; Listing generated by Microsoft (R) Optimizing Compiler Version 19.28.29335.0 

	TITLE	D:\Metin2 Server Files\mainline\SRC_2014\Metin2Client\UserInterface\PythonApplication.cpp
	.686P
	.XMM
	include listing.inc
	.model	flat

INCLUDELIB LIBCMT
INCLUDELIB OLDNAMES

PUBLIC	?ms_pInstance@CPythonApplication@@1PAV1@A	; CPythonApplication::ms_pInstance
PUBLIC	?MIN_FOG@@3MA					; MIN_FOG
PUBLIC	?g_specularSpd@@3NA				; g_specularSpd
PUBLIC	?c_fDefaultCameraRotateSpeed@@3MA		; c_fDefaultCameraRotateSpeed
PUBLIC	?c_fDefaultCameraPitchSpeed@@3MA		; c_fDefaultCameraPitchSpeed
PUBLIC	?c_fDefaultCameraZoomSpeed@@3MA			; c_fDefaultCameraZoomSpeed
PUBLIC	?PERF_CHECKER_RENDER_GAME@@3_NA			; PERF_CHECKER_RENDER_GAME
_BSS	SEGMENT
?ms_pInstance@CPythonApplication@@1PAV1@A DD 01H DUP (?) ; CPythonApplication::ms_pInstance
?PERF_CHECKER_RENDER_GAME@@3_NA DB 01H DUP (?)		; PERF_CHECKER_RENDER_GAME
_BSS	ENDS
_DATA	SEGMENT
?MIN_FOG@@3MA DD 045160000r			; 2400	; MIN_FOG
?c_fDefaultCameraRotateSpeed@@3MA DD 03fc00000r	; 1.5	; c_fDefaultCameraRotateSpeed
?g_specularSpd@@3NA DQ 03f7cac0840000000r	; 0.007	; g_specularSpd
?c_fDefaultCameraPitchSpeed@@3MA DD 03fc00000r	; 1.5	; c_fDefaultCameraPitchSpeed
?c_fDefaultCameraZoomSpeed@@3MA DD 03d4ccccdr	; 0.05	; c_fDefaultCameraZoomSpeed
_DATA	ENDS
PUBLIC	??_H@YGXPAXIIP6EPAX0@Z@Z			; `vector constructor iterator'
PUBLIC	?__empty_global_delete@@YAXPAX@Z		; __empty_global_delete
PUBLIC	?__empty_global_delete@@YAXPAXI@Z		; __empty_global_delete
PUBLIC	___local_stdio_printf_options
PUBLIC	_fprintf
PUBLIC	_printf
PUBLIC	_sprintf
PUBLIC	__snprintf
PUBLIC	??0exception@std@@QAE@ABV01@@Z			; std::exception::exception
PUBLIC	?what@exception@std@@UBEPBDXZ			; std::exception::what
PUBLIC	??_Gexception@std@@UAEPAXI@Z			; std::exception::`scalar deleting destructor'
PUBLIC	??0bad_alloc@std@@QAE@ABV01@@Z			; std::bad_alloc::bad_alloc
PUBLIC	??_Gbad_alloc@std@@UAEPAXI@Z			; std::bad_alloc::`scalar deleting destructor'
PUBLIC	??0bad_array_new_length@std@@QAE@XZ		; std::bad_array_new_length::bad_array_new_length
PUBLIC	??1bad_array_new_length@std@@UAE@XZ		; std::bad_array_new_length::~bad_array_new_length
PUBLIC	??0bad_array_new_length@std@@QAE@ABV01@@Z	; std::bad_array_new_length::bad_array_new_length
PUBLIC	??_Gbad_array_new_length@std@@UAEPAXI@Z		; std::bad_array_new_length::`scalar deleting destructor'
PUBLIC	?_Throw_bad_array_new_length@std@@YAXXZ		; std::_Throw_bad_array_new_length
PUBLIC	?_Adjust_manually_vector_aligned@std@@YAXAAPAXAAI@Z ; std::_Adjust_manually_vector_aligned
PUBLIC	?_Xlen_string@std@@YAXXZ			; std::_Xlen_string
PUBLIC	?_Myptr@?$_String_val@U?$_Simple_types@D@std@@@std@@QAEPADXZ ; std::_String_val<std::_Simple_types<char> >::_Myptr
PUBLIC	??0?$basic_string@DU?$char_traits@D@std@@V?$allocator@D@2@@std@@QAE@XZ ; std::basic_string<char,std::char_traits<char>,std::allocator<char> >::basic_string<char,std::char_traits<char>,std::allocator<char> >
PUBLIC	??1?$basic_string@DU?$char_traits@D@std@@V?$allocator@D@2@@std@@QAE@XZ ; std::basic_string<char,std::char_traits<char>,std::allocator<char> >::~basic_string<char,std::char_traits<char>,std::allocator<char> >
PUBLIC	?_Copy_assign@?$basic_string@DU?$char_traits@D@std@@V?$allocator@D@2@@std@@AAEXABV12@U?$integral_constant@_N$0A@@2@@Z ; std::basic_string<char,std::char_traits<char>,std::allocator<char> >::_Copy_assign
PUBLIC	?assign@?$basic_string@DU?$char_traits@D@std@@V?$allocator@D@2@@std@@QAEAAV12@QBDI@Z ; std::basic_string<char,std::char_traits<char>,std::allocator<char> >::assign
PUBLIC	?max_size@?$basic_string@DU?$char_traits@D@std@@V?$allocator@D@2@@std@@QBEIXZ ; std::basic_string<char,std::char_traits<char>,std::allocator<char> >::max_size
PUBLIC	?_Calculate_growth@?$basic_string@DU?$char_traits@D@std@@V?$allocator@D@2@@std@@ABEII@Z ; std::basic_string<char,std::char_traits<char>,std::allocator<char> >::_Calculate_growth
PUBLIC	?_Tidy_init@?$basic_string@DU?$char_traits@D@std@@V?$allocator@D@2@@std@@AAEXXZ ; std::basic_string<char,std::char_traits<char>,std::allocator<char> >::_Tidy_init
PUBLIC	?_Tidy_deallocate@?$basic_string@DU?$char_traits@D@std@@V?$allocator@D@2@@std@@AAEXXZ ; std::basic_string<char,std::char_traits<char>,std::allocator<char> >::_Tidy_deallocate
PUBLIC	??$_Destroy_in_place@PAD@std@@YAXAAPAD@Z	; std::_Destroy_in_place<char *>
PUBLIC	??$_Reallocate_for@V<lambda_9366063389c5f42a00a5088cf24e69de>@@PBD@?$basic_string@DU?$char_traits@D@std@@V?$allocator@D@2@@std@@AAEAAV01@IV<lambda_9366063389c5f42a00a5088cf24e69de>@@PBD@Z ; std::basic_string<char,std::char_traits<char>,std::allocator<char> >::_Reallocate_for<<lambda_9366063389c5f42a00a5088cf24e69de>,char const *>
PUBLIC	??$_Construct_in_place@PADABQAD@std@@YAXAAPADABQAD@Z ; std::_Construct_in_place<char *,char * const &>
PUBLIC	??$_Deallocate@$07$0A@@std@@YAXPAXI@Z		; std::_Deallocate<8,0>
PUBLIC	??$_Allocate@$07U_Default_allocate_traits@std@@$0A@@std@@YAPAXI@Z ; std::_Allocate<8,std::_Default_allocate_traits,0>
PUBLIC	??$_Allocate_manually_vector_aligned@U_Default_allocate_traits@std@@@std@@YAPAXI@Z ; std::_Allocate_manually_vector_aligned<std::_Default_allocate_traits>
PUBLIC	??_G?$CSingleton@VCGuildMarkUploader@@@@UAEPAXI@Z ; CSingleton<CGuildMarkUploader>::`scalar deleting destructor'
PUBLIC	??0CGuildMarkUploader@@QAE@XZ			; CGuildMarkUploader::CGuildMarkUploader
PUBLIC	??1CGuildMarkUploader@@UAE@XZ			; CGuildMarkUploader::~CGuildMarkUploader
PUBLIC	??_GCGuildMarkUploader@@UAEPAXI@Z		; CGuildMarkUploader::`scalar deleting destructor'
PUBLIC	??_G?$TAbstractSingleton@VIAbstractApplication@@@@UAEPAXI@Z ; TAbstractSingleton<IAbstractApplication>::`scalar deleting destructor'
PUBLIC	??0SCameraSetting@IAbstractApplication@@QAE@XZ	; IAbstractApplication::SCameraSetting::SCameraSetting
PUBLIC	??1IAbstractApplication@@UAE@XZ			; IAbstractApplication::~IAbstractApplication
PUBLIC	??_GIAbstractApplication@@UAEPAXI@Z		; IAbstractApplication::`scalar deleting destructor'
PUBLIC	??_G?$CSingleton@VCMovieMan@@@@UAEPAXI@Z	; CSingleton<CMovieMan>::`scalar deleting destructor'
PUBLIC	??0CMovieMan@@QAE@XZ				; CMovieMan::CMovieMan
PUBLIC	??1CMovieMan@@UAE@XZ				; CMovieMan::~CMovieMan
PUBLIC	??_GCMovieMan@@UAEPAXI@Z			; CMovieMan::`scalar deleting destructor'
PUBLIC	??0CPythonApplication@@QAE@XZ			; CPythonApplication::CPythonApplication
PUBLIC	??1CPythonApplication@@UAE@XZ			; CPythonApplication::~CPythonApplication
PUBLIC	?NotifyHack@CPythonApplication@@QAAXPBDZZ	; CPythonApplication::NotifyHack
PUBLIC	?GetInfo@CPythonApplication@@QAEXIPAV?$basic_string@DU?$char_traits@D@std@@V?$allocator@D@2@@std@@@Z ; CPythonApplication::GetInfo
PUBLIC	?GetMousePosition@CPythonApplication@@UAEXPAUtagPOINT@@@Z ; CPythonApplication::GetMousePosition
PUBLIC	?Loop@CPythonApplication@@QAEXXZ		; CPythonApplication::Loop
PUBLIC	?Destroy@CPythonApplication@@QAEXXZ		; CPythonApplication::Destroy
PUBLIC	?Clear@CPythonApplication@@QAEXXZ		; CPythonApplication::Clear
PUBLIC	?Exit@CPythonApplication@@QAEXXZ		; CPythonApplication::Exit
PUBLIC	?Abort@CPythonApplication@@QAEXXZ		; CPythonApplication::Abort
PUBLIC	?SetMinFog@CPythonApplication@@QAEXM@Z		; CPythonApplication::SetMinFog
PUBLIC	?SetFrameSkip@CPythonApplication@@QAEX_N@Z	; CPythonApplication::SetFrameSkip
PUBLIC	?SkipRenderBuffering@CPythonApplication@@UAEXK@Z ; CPythonApplication::SkipRenderBuffering
PUBLIC	?Create@CPythonApplication@@QAE_NPAU_object@@PBDHHH@Z ; CPythonApplication::Create
PUBLIC	?CreateDevice@CPythonApplication@@QAE_NHHHHH@Z	; CPythonApplication::CreateDevice
PUBLIC	?UpdateGame@CPythonApplication@@QAEXXZ		; CPythonApplication::UpdateGame
PUBLIC	?RenderGame@CPythonApplication@@QAEXXZ		; CPythonApplication::RenderGame
PUBLIC	?Process@CPythonApplication@@QAE_NXZ		; CPythonApplication::Process
PUBLIC	?UpdateClientRect@CPythonApplication@@QAEXXZ	; CPythonApplication::UpdateClientRect
PUBLIC	?SetMouseHandler@CPythonApplication@@QAEXPAU_object@@@Z ; CPythonApplication::SetMouseHandler
PUBLIC	?GetWidth@CPythonApplication@@QAEHXZ		; CPythonApplication::GetWidth
PUBLIC	?GetHeight@CPythonApplication@@QAEHXZ		; CPythonApplication::GetHeight
PUBLIC	?SetGlobalCenterPosition@CPythonApplication@@QAEXJJ@Z ; CPythonApplication::SetGlobalCenterPosition
PUBLIC	?SetCenterPosition@CPythonApplication@@UAEXMMM@Z ; CPythonApplication::SetCenterPosition
PUBLIC	?GetCenterPosition@CPythonApplication@@QAEXPAUD3DXVECTOR3@@@Z ; CPythonApplication::GetCenterPosition
PUBLIC	?SetFPS@CPythonApplication@@QAEXH@Z		; CPythonApplication::SetFPS
PUBLIC	?SetServerTime@CPythonApplication@@UAEXJ@Z	; CPythonApplication::SetServerTime
PUBLIC	?GetServerTime@CPythonApplication@@QAEJXZ	; CPythonApplication::GetServerTime
PUBLIC	?GetServerTimeStamp@CPythonApplication@@QAEJXZ	; CPythonApplication::GetServerTimeStamp
PUBLIC	?GetGlobalTime@CPythonApplication@@UAEMXZ	; CPythonApplication::GetGlobalTime
PUBLIC	?GetGlobalElapsedTime@CPythonApplication@@UAEMXZ ; CPythonApplication::GetGlobalElapsedTime
PUBLIC	?SetConnectData@CPythonApplication@@QAEXPBDH@Z	; CPythonApplication::SetConnectData
PUBLIC	?GetConnectData@CPythonApplication@@QAEXAAV?$basic_string@DU?$char_traits@D@std@@V?$allocator@D@2@@std@@AAH@Z ; CPythonApplication::GetConnectData
PUBLIC	?EnableSpecialCameraMode@CPythonApplication@@QAEXXZ ; CPythonApplication::EnableSpecialCameraMode
PUBLIC	?SetCameraSpeed@CPythonApplication@@QAEXH@Z	; CPythonApplication::SetCameraSpeed
PUBLIC	?SetForceSightRange@CPythonApplication@@QAEXH@Z	; CPythonApplication::SetForceSightRange
PUBLIC	?CheckDeviceState@CPythonApplication@@IAEHXZ	; CPythonApplication::CheckDeviceState
PUBLIC	??0?$_Tree@V?$_Tmap_traits@HPAXU?$less@H@std@@V?$allocator@U?$pair@$$CBHPAX@std@@@2@$0A@@std@@@std@@QAE@ABU?$less@H@1@@Z ; std::_Tree<std::_Tmap_traits<int,void *,std::less<int>,std::allocator<std::pair<int const ,void *> >,0> >::_Tree<std::_Tmap_traits<int,void *,std::less<int>,std::allocator<std::pair<int const ,void *> >,0> >
PUBLIC	??1?$_Tree@V?$_Tmap_traits@HPAXU?$less@H@std@@V?$allocator@U?$pair@$$CBHPAX@std@@@2@$0A@@std@@@std@@QAE@XZ ; std::_Tree<std::_Tmap_traits<int,void *,std::less<int>,std::allocator<std::pair<int const ,void *> >,0> >::~_Tree<std::_Tmap_traits<int,void *,std::less<int>,std::allocator<std::pair<int const ,void *> >,0> >
PUBLIC	?_Alloc_sentinel_and_proxy@?$_Tree@V?$_Tmap_traits@HPAXU?$less@H@std@@V?$allocator@U?$pair@$$CBHPAX@std@@@2@$0A@@std@@@std@@IAEXXZ ; std::_Tree<std::_Tmap_traits<int,void *,std::less<int>,std::allocator<std::pair<int const ,void *> >,0> >::_Alloc_sentinel_and_proxy
PUBLIC	??1?$map@HPAXU?$less@H@std@@V?$allocator@U?$pair@$$CBHPAX@std@@@2@@std@@QAE@XZ ; std::map<int,void *,std::less<int>,std::allocator<std::pair<int const ,void *> > >::~map<int,void *,std::less<int>,std::allocator<std::pair<int const ,void *> > >
PUBLIC	??_GCPythonApplication@@UAEPAXI@Z		; CPythonApplication::`scalar deleting destructor'
PUBLIC	?LoadLocaleData@@YA_NPBD@Z			; LoadLocaleData
PUBLIC	?__GetWindowMode@@YAI_N@Z			; __GetWindowMode
PUBLIC	??0?$CDynamicPoolEx@VCRotationDecorator@NEffectUpdateDecorator@@@@QAE@XZ ; CDynamicPoolEx<NEffectUpdateDecorator::CRotationDecorator>::CDynamicPoolEx<NEffectUpdateDecorator::CRotationDecorator>
PUBLIC	??1?$CDynamicPoolEx@VCRotationDecorator@NEffectUpdateDecorator@@@@UAE@XZ ; CDynamicPoolEx<NEffectUpdateDecorator::CRotationDecorator>::~CDynamicPoolEx<NEffectUpdateDecorator::CRotationDecorator>
PUBLIC	?Destroy@?$CDynamicPoolEx@VCRotationDecorator@NEffectUpdateDecorator@@@@QAEXXZ ; CDynamicPoolEx<NEffectUpdateDecorator::CRotationDecorator>::Destroy
PUBLIC	?Delete@?$CDynamicPoolEx@VCRotationDecorator@NEffectUpdateDecorator@@@@KAXPAVCRotationDecorator@NEffectUpdateDecorator@@@Z ; CDynamicPoolEx<NEffectUpdateDecorator::CRotationDecorator>::Delete
PUBLIC	?clear@?$vector@PAVCRotationDecorator@NEffectUpdateDecorator@@V?$allocator@PAVCRotationDecorator@NEffectUpdateDecorator@@@std@@@std@@QAEXXZ ; std::vector<NEffectUpdateDecorator::CRotationDecorator *,std::allocator<NEffectUpdateDecorator::CRotationDecorator *> >::clear
PUBLIC	?_Tidy@?$vector@PAVCRotationDecorator@NEffectUpdateDecorator@@V?$allocator@PAVCRotationDecorator@NEffectUpdateDecorator@@@std@@@std@@AAEXXZ ; std::vector<NEffectUpdateDecorator::CRotationDecorator *,std::allocator<NEffectUpdateDecorator::CRotationDecorator *> >::_Tidy
PUBLIC	??_G?$CDynamicPoolEx@VCRotationDecorator@NEffectUpdateDecorator@@@@UAEPAXI@Z ; CDynamicPoolEx<NEffectUpdateDecorator::CRotationDecorator>::`scalar deleting destructor'
PUBLIC	??0?$CDynamicPoolEx@VCGravityDecorator@NEffectUpdateDecorator@@@@QAE@XZ ; CDynamicPoolEx<NEffectUpdateDecorator::CGravityDecorator>::CDynamicPoolEx<NEffectUpdateDecorator::CGravityDecorator>
PUBLIC	??1?$CDynamicPoolEx@VCGravityDecorator@NEffectUpdateDecorator@@@@UAE@XZ ; CDynamicPoolEx<NEffectUpdateDecorator::CGravityDecorator>::~CDynamicPoolEx<NEffectUpdateDecorator::CGravityDecorator>
PUBLIC	?Destroy@?$CDynamicPoolEx@VCGravityDecorator@NEffectUpdateDecorator@@@@QAEXXZ ; CDynamicPoolEx<NEffectUpdateDecorator::CGravityDecorator>::Destroy
PUBLIC	?Delete@?$CDynamicPoolEx@VCGravityDecorator@NEffectUpdateDecorator@@@@KAXPAVCGravityDecorator@NEffectUpdateDecorator@@@Z ; CDynamicPoolEx<NEffectUpdateDecorator::CGravityDecorator>::Delete
PUBLIC	?clear@?$vector@PAVCGravityDecorator@NEffectUpdateDecorator@@V?$allocator@PAVCGravityDecorator@NEffectUpdateDecorator@@@std@@@std@@QAEXXZ ; std::vector<NEffectUpdateDecorator::CGravityDecorator *,std::allocator<NEffectUpdateDecorator::CGravityDecorator *> >::clear
PUBLIC	?_Tidy@?$vector@PAVCGravityDecorator@NEffectUpdateDecorator@@V?$allocator@PAVCGravityDecorator@NEffectUpdateDecorator@@@std@@@std@@AAEXXZ ; std::vector<NEffectUpdateDecorator::CGravityDecorator *,std::allocator<NEffectUpdateDecorator::CGravityDecorator *> >::_Tidy
PUBLIC	??_G?$CDynamicPoolEx@VCGravityDecorator@NEffectUpdateDecorator@@@@UAEPAXI@Z ; CDynamicPoolEx<NEffectUpdateDecorator::CGravityDecorator>::`scalar deleting destructor'
PUBLIC	??0?$CDynamicPoolEx@VCAirResistanceDecorator@NEffectUpdateDecorator@@@@QAE@XZ ; CDynamicPoolEx<NEffectUpdateDecorator::CAirResistanceDecorator>::CDynamicPoolEx<NEffectUpdateDecorator::CAirResistanceDecorator>
PUBLIC	??1?$CDynamicPoolEx@VCAirResistanceDecorator@NEffectUpdateDecorator@@@@UAE@XZ ; CDynamicPoolEx<NEffectUpdateDecorator::CAirResistanceDecorator>::~CDynamicPoolEx<NEffectUpdateDecorator::CAirResistanceDecorator>
PUBLIC	?Destroy@?$CDynamicPoolEx@VCAirResistanceDecorator@NEffectUpdateDecorator@@@@QAEXXZ ; CDynamicPoolEx<NEffectUpdateDecorator::CAirResistanceDecorator>::Destroy
PUBLIC	?Delete@?$CDynamicPoolEx@VCAirResistanceDecorator@NEffectUpdateDecorator@@@@KAXPAVCAirResistanceDecorator@NEffectUpdateDecorator@@@Z ; CDynamicPoolEx<NEffectUpdateDecorator::CAirResistanceDecorator>::Delete
PUBLIC	?clear@?$vector@PAVCAirResistanceDecorator@NEffectUpdateDecorator@@V?$allocator@PAVCAirResistanceDecorator@NEffectUpdateDecorator@@@std@@@std@@QAEXXZ ; std::vector<NEffectUpdateDecorator::CAirResistanceDecorator *,std::allocator<NEffectUpdateDecorator::CAirResistanceDecorator *> >::clear
PUBLIC	?_Tidy@?$vector@PAVCAirResistanceDecorator@NEffectUpdateDecorator@@V?$allocator@PAVCAirResistanceDecorator@NEffectUpdateDecorator@@@std@@@std@@AAEXXZ ; std::vector<NEffectUpdateDecorator::CAirResistanceDecorator *,std::allocator<NEffectUpdateDecorator::CAirResistanceDecorator *> >::_Tidy
PUBLIC	??_G?$CDynamicPoolEx@VCAirResistanceDecorator@NEffectUpdateDecorator@@@@UAEPAXI@Z ; CDynamicPoolEx<NEffectUpdateDecorator::CAirResistanceDecorator>::`scalar deleting destructor'
PUBLIC	??0?$CDynamicPoolEx@VCTextureAnimationRandomDecorator@NEffectUpdateDecorator@@@@QAE@XZ ; CDynamicPoolEx<NEffectUpdateDecorator::CTextureAnimationRandomDecorator>::CDynamicPoolEx<NEffectUpdateDecorator::CTextureAnimationRandomDecorator>
PUBLIC	??1?$CDynamicPoolEx@VCTextureAnimationRandomDecorator@NEffectUpdateDecorator@@@@UAE@XZ ; CDynamicPoolEx<NEffectUpdateDecorator::CTextureAnimationRandomDecorator>::~CDynamicPoolEx<NEffectUpdateDecorator::CTextureAnimationRandomDecorator>
PUBLIC	?Destroy@?$CDynamicPoolEx@VCTextureAnimationRandomDecorator@NEffectUpdateDecorator@@@@QAEXXZ ; CDynamicPoolEx<NEffectUpdateDecorator::CTextureAnimationRandomDecorator>::Destroy
PUBLIC	?Delete@?$CDynamicPoolEx@VCTextureAnimationRandomDecorator@NEffectUpdateDecorator@@@@KAXPAVCTextureAnimationRandomDecorator@NEffectUpdateDecorator@@@Z ; CDynamicPoolEx<NEffectUpdateDecorator::CTextureAnimationRandomDecorator>::Delete
PUBLIC	?clear@?$vector@PAVCTextureAnimationRandomDecorator@NEffectUpdateDecorator@@V?$allocator@PAVCTextureAnimationRandomDecorator@NEffectUpdateDecorator@@@std@@@std@@QAEXXZ ; std::vector<NEffectUpdateDecorator::CTextureAnimationRandomDecorator *,std::allocator<NEffectUpdateDecorator::CTextureAnimationRandomDecorator *> >::clear
PUBLIC	?_Tidy@?$vector@PAVCTextureAnimationRandomDecorator@NEffectUpdateDecorator@@V?$allocator@PAVCTextureAnimationRandomDecorator@NEffectUpdateDecorator@@@std@@@std@@AAEXXZ ; std::vector<NEffectUpdateDecorator::CTextureAnimationRandomDecorator *,std::allocator<NEffectUpdateDecorator::CTextureAnimationRandomDecorator *> >::_Tidy
PUBLIC	??_G?$CDynamicPoolEx@VCTextureAnimationRandomDecorator@NEffectUpdateDecorator@@@@UAEPAXI@Z ; CDynamicPoolEx<NEffectUpdateDecorator::CTextureAnimationRandomDecorator>::`scalar deleting destructor'
PUBLIC	??0?$CDynamicPoolEx@VCTextureAnimationCCWDecorator@NEffectUpdateDecorator@@@@QAE@XZ ; CDynamicPoolEx<NEffectUpdateDecorator::CTextureAnimationCCWDecorator>::CDynamicPoolEx<NEffectUpdateDecorator::CTextureAnimationCCWDecorator>
PUBLIC	??1?$CDynamicPoolEx@VCTextureAnimationCCWDecorator@NEffectUpdateDecorator@@@@UAE@XZ ; CDynamicPoolEx<NEffectUpdateDecorator::CTextureAnimationCCWDecorator>::~CDynamicPoolEx<NEffectUpdateDecorator::CTextureAnimationCCWDecorator>
PUBLIC	?Destroy@?$CDynamicPoolEx@VCTextureAnimationCCWDecorator@NEffectUpdateDecorator@@@@QAEXXZ ; CDynamicPoolEx<NEffectUpdateDecorator::CTextureAnimationCCWDecorator>::Destroy
PUBLIC	?Delete@?$CDynamicPoolEx@VCTextureAnimationCCWDecorator@NEffectUpdateDecorator@@@@KAXPAVCTextureAnimationCCWDecorator@NEffectUpdateDecorator@@@Z ; CDynamicPoolEx<NEffectUpdateDecorator::CTextureAnimationCCWDecorator>::Delete
PUBLIC	?clear@?$vector@PAVCTextureAnimationCCWDecorator@NEffectUpdateDecorator@@V?$allocator@PAVCTextureAnimationCCWDecorator@NEffectUpdateDecorator@@@std@@@std@@QAEXXZ ; std::vector<NEffectUpdateDecorator::CTextureAnimationCCWDecorator *,std::allocator<NEffectUpdateDecorator::CTextureAnimationCCWDecorator *> >::clear
PUBLIC	?_Tidy@?$vector@PAVCTextureAnimationCCWDecorator@NEffectUpdateDecorator@@V?$allocator@PAVCTextureAnimationCCWDecorator@NEffectUpdateDecorator@@@std@@@std@@AAEXXZ ; std::vector<NEffectUpdateDecorator::CTextureAnimationCCWDecorator *,std::allocator<NEffectUpdateDecorator::CTextureAnimationCCWDecorator *> >::_Tidy
PUBLIC	??_G?$CDynamicPoolEx@VCTextureAnimationCCWDecorator@NEffectUpdateDecorator@@@@UAEPAXI@Z ; CDynamicPoolEx<NEffectUpdateDecorator::CTextureAnimationCCWDecorator>::`scalar deleting destructor'
PUBLIC	??0?$CDynamicPoolEx@VCTextureAnimationCWDecorator@NEffectUpdateDecorator@@@@QAE@XZ ; CDynamicPoolEx<NEffectUpdateDecorator::CTextureAnimationCWDecorator>::CDynamicPoolEx<NEffectUpdateDecorator::CTextureAnimationCWDecorator>
PUBLIC	??1?$CDynamicPoolEx@VCTextureAnimationCWDecorator@NEffectUpdateDecorator@@@@UAE@XZ ; CDynamicPoolEx<NEffectUpdateDecorator::CTextureAnimationCWDecorator>::~CDynamicPoolEx<NEffectUpdateDecorator::CTextureAnimationCWDecorator>
PUBLIC	?Destroy@?$CDynamicPoolEx@VCTextureAnimationCWDecorator@NEffectUpdateDecorator@@@@QAEXXZ ; CDynamicPoolEx<NEffectUpdateDecorator::CTextureAnimationCWDecorator>::Destroy
PUBLIC	?Delete@?$CDynamicPoolEx@VCTextureAnimationCWDecorator@NEffectUpdateDecorator@@@@KAXPAVCTextureAnimationCWDecorator@NEffectUpdateDecorator@@@Z ; CDynamicPoolEx<NEffectUpdateDecorator::CTextureAnimationCWDecorator>::Delete
PUBLIC	?clear@?$vector@PAVCTextureAnimationCWDecorator@NEffectUpdateDecorator@@V?$allocator@PAVCTextureAnimationCWDecorator@NEffectUpdateDecorator@@@std@@@std@@QAEXXZ ; std::vector<NEffectUpdateDecorator::CTextureAnimationCWDecorator *,std::allocator<NEffectUpdateDecorator::CTextureAnimationCWDecorator *> >::clear
PUBLIC	?_Tidy@?$vector@PAVCTextureAnimationCWDecorator@NEffectUpdateDecorator@@V?$allocator@PAVCTextureAnimationCWDecorator@NEffectUpdateDecorator@@@std@@@std@@AAEXXZ ; std::vector<NEffectUpdateDecorator::CTextureAnimationCWDecorator *,std::allocator<NEffectUpdateDecorator::CTextureAnimationCWDecorator *> >::_Tidy
PUBLIC	??_G?$CDynamicPoolEx@VCTextureAnimationCWDecorator@NEffectUpdateDecorator@@@@UAEPAXI@Z ; CDynamicPoolEx<NEffectUpdateDecorator::CTextureAnimationCWDecorator>::`scalar deleting destructor'
PUBLIC	??0?$CDynamicPoolEx@VCNullDecorator@NEffectUpdateDecorator@@@@QAE@XZ ; CDynamicPoolEx<NEffectUpdateDecorator::CNullDecorator>::CDynamicPoolEx<NEffectUpdateDecorator::CNullDecorator>
PUBLIC	??1?$CDynamicPoolEx@VCNullDecorator@NEffectUpdateDecorator@@@@UAE@XZ ; CDynamicPoolEx<NEffectUpdateDecorator::CNullDecorator>::~CDynamicPoolEx<NEffectUpdateDecorator::CNullDecorator>
PUBLIC	?Destroy@?$CDynamicPoolEx@VCNullDecorator@NEffectUpdateDecorator@@@@QAEXXZ ; CDynamicPoolEx<NEffectUpdateDecorator::CNullDecorator>::Destroy
PUBLIC	?Delete@?$CDynamicPoolEx@VCNullDecorator@NEffectUpdateDecorator@@@@KAXPAVCNullDecorator@NEffectUpdateDecorator@@@Z ; CDynamicPoolEx<NEffectUpdateDecorator::CNullDecorator>::Delete
PUBLIC	?clear@?$vector@PAVCNullDecorator@NEffectUpdateDecorator@@V?$allocator@PAVCNullDecorator@NEffectUpdateDecorator@@@std@@@std@@QAEXXZ ; std::vector<NEffectUpdateDecorator::CNullDecorator *,std::allocator<NEffectUpdateDecorator::CNullDecorator *> >::clear
PUBLIC	?_Tidy@?$vector@PAVCNullDecorator@NEffectUpdateDecorator@@V?$allocator@PAVCNullDecorator@NEffectUpdateDecorator@@@std@@@std@@AAEXXZ ; std::vector<NEffectUpdateDecorator::CNullDecorator *,std::allocator<NEffectUpdateDecorator::CNullDecorator *> >::_Tidy
PUBLIC	??_G?$CDynamicPoolEx@VCNullDecorator@NEffectUpdateDecorator@@@@UAEPAXI@Z ; CDynamicPoolEx<NEffectUpdateDecorator::CNullDecorator>::`scalar deleting destructor'
PUBLIC	??0?$CDynamicPoolEx@VCHeaderDecorator@NEffectUpdateDecorator@@@@QAE@XZ ; CDynamicPoolEx<NEffectUpdateDecorator::CHeaderDecorator>::CDynamicPoolEx<NEffectUpdateDecorator::CHeaderDecorator>
PUBLIC	??1?$CDynamicPoolEx@VCHeaderDecorator@NEffectUpdateDecorator@@@@UAE@XZ ; CDynamicPoolEx<NEffectUpdateDecorator::CHeaderDecorator>::~CDynamicPoolEx<NEffectUpdateDecorator::CHeaderDecorator>
PUBLIC	?Destroy@?$CDynamicPoolEx@VCHeaderDecorator@NEffectUpdateDecorator@@@@QAEXXZ ; CDynamicPoolEx<NEffectUpdateDecorator::CHeaderDecorator>::Destroy
PUBLIC	?Delete@?$CDynamicPoolEx@VCHeaderDecorator@NEffectUpdateDecorator@@@@KAXPAVCHeaderDecorator@NEffectUpdateDecorator@@@Z ; CDynamicPoolEx<NEffectUpdateDecorator::CHeaderDecorator>::Delete
PUBLIC	?clear@?$vector@PAVCHeaderDecorator@NEffectUpdateDecorator@@V?$allocator@PAVCHeaderDecorator@NEffectUpdateDecorator@@@std@@@std@@QAEXXZ ; std::vector<NEffectUpdateDecorator::CHeaderDecorator *,std::allocator<NEffectUpdateDecorator::CHeaderDecorator *> >::clear
PUBLIC	?_Tidy@?$vector@PAVCHeaderDecorator@NEffectUpdateDecorator@@V?$allocator@PAVCHeaderDecorator@NEffectUpdateDecorator@@@std@@@std@@AAEXXZ ; std::vector<NEffectUpdateDecorator::CHeaderDecorator *,std::allocator<NEffectUpdateDecorator::CHeaderDecorator *> >::_Tidy
PUBLIC	??_G?$CDynamicPoolEx@VCHeaderDecorator@NEffectUpdateDecorator@@@@UAEPAXI@Z ; CDynamicPoolEx<NEffectUpdateDecorator::CHeaderDecorator>::`scalar deleting destructor'
PUBLIC	??$_Pocca@V?$allocator@D@std@@@std@@YAXAAV?$allocator@D@0@ABV10@@Z ; std::_Pocca<std::allocator<char> >
PUBLIC	??$for_each@V?$_Vector_iterator@V?$_Vector_val@U?$_Simple_types@PAVCHeaderDecorator@NEffectUpdateDecorator@@@std@@@std@@@std@@P6AXPAVCHeaderDecorator@NEffectUpdateDecorator@@@Z@std@@YAP6AXPAVCHeaderDecorator@NEffectUpdateDecorator@@@ZV?$_Vector_iterator@V?$_Vector_val@U?$_Simple_types@PAVCHeaderDecorator@NEffectUpdateDecorator@@@std@@@std@@@0@1P6AX0@Z@Z ; std::for_each<std::_Vector_iterator<std::_Vector_val<std::_Simple_types<NEffectUpdateDecorator::CHeaderDecorator *> > >,void (__cdecl*)(NEffectUpdateDecorator::CHeaderDecorator *)>
PUBLIC	??$for_each@V?$_Vector_iterator@V?$_Vector_val@U?$_Simple_types@PAVCNullDecorator@NEffectUpdateDecorator@@@std@@@std@@@std@@P6AXPAVCNullDecorator@NEffectUpdateDecorator@@@Z@std@@YAP6AXPAVCNullDecorator@NEffectUpdateDecorator@@@ZV?$_Vector_iterator@V?$_Vector_val@U?$_Simple_types@PAVCNullDecorator@NEffectUpdateDecorator@@@std@@@std@@@0@1P6AX0@Z@Z ; std::for_each<std::_Vector_iterator<std::_Vector_val<std::_Simple_types<NEffectUpdateDecorator::CNullDecorator *> > >,void (__cdecl*)(NEffectUpdateDecorator::CNullDecorator *)>
PUBLIC	??$for_each@V?$_Vector_iterator@V?$_Vector_val@U?$_Simple_types@PAVCTextureAnimationCWDecorator@NEffectUpdateDecorator@@@std@@@std@@@std@@P6AXPAVCTextureAnimationCWDecorator@NEffectUpdateDecorator@@@Z@std@@YAP6AXPAVCTextureAnimationCWDecorator@NEffectUpdateDecorator@@@ZV?$_Vector_iterator@V?$_Vector_val@U?$_Simple_types@PAVCTextureAnimationCWDecorator@NEffectUpdateDecorator@@@std@@@std@@@0@1P6AX0@Z@Z ; std::for_each<std::_Vector_iterator<std::_Vector_val<std::_Simple_types<NEffectUpdateDecorator::CTextureAnimationCWDecorator *> > >,void (__cdecl*)(NEffectUpdateDecorator::CTextureAnimationCWDecorator *)>
PUBLIC	??$for_each@V?$_Vector_iterator@V?$_Vector_val@U?$_Simple_types@PAVCTextureAnimationCCWDecorator@NEffectUpdateDecorator@@@std@@@std@@@std@@P6AXPAVCTextureAnimationCCWDecorator@NEffectUpdateDecorator@@@Z@std@@YAP6AXPAVCTextureAnimationCCWDecorator@NEffectUpdateDecorator@@@ZV?$_Vector_iterator@V?$_Vector_val@U?$_Simple_types@PAVCTextureAnimationCCWDecorator@NEffectUpdateDecorator@@@std@@@std@@@0@1P6AX0@Z@Z ; std::for_each<std::_Vector_iterator<std::_Vector_val<std::_Simple_types<NEffectUpdateDecorator::CTextureAnimationCCWDecorator *> > >,void (__cdecl*)(NEffectUpdateDecorator::CTextureAnimationCCWDecorator *)>
PUBLIC	??$for_each@V?$_Vector_iterator@V?$_Vector_val@U?$_Simple_types@PAVCTextureAnimationRandomDecorator@NEffectUpdateDecorator@@@std@@@std@@@std@@P6AXPAVCTextureAnimationRandomDecorator@NEffectUpdateDecorator@@@Z@std@@YAP6AXPAVCTextureAnimationRandomDecorator@NEffectUpdateDecorator@@@ZV?$_Vector_iterator@V?$_Vector_val@U?$_Simple_types@PAVCTextureAnimationRandomDecorator@NEffectUpdateDecorator@@@std@@@std@@@0@1P6AX0@Z@Z ; std::for_each<std::_Vector_iterator<std::_Vector_val<std::_Simple_types<NEffectUpdateDecorator::CTextureAnimationRandomDecorator *> > >,void (__cdecl*)(NEffectUpdateDecorator::CTextureAnimationRandomDecorator *)>
PUBLIC	??$for_each@V?$_Vector_iterator@V?$_Vector_val@U?$_Simple_types@PAVCAirResistanceDecorator@NEffectUpdateDecorator@@@std@@@std@@@std@@P6AXPAVCAirResistanceDecorator@NEffectUpdateDecorator@@@Z@std@@YAP6AXPAVCAirResistanceDecorator@NEffectUpdateDecorator@@@ZV?$_Vector_iterator@V?$_Vector_val@U?$_Simple_types@PAVCAirResistanceDecorator@NEffectUpdateDecorator@@@std@@@std@@@0@1P6AX0@Z@Z ; std::for_each<std::_Vector_iterator<std::_Vector_val<std::_Simple_types<NEffectUpdateDecorator::CAirResistanceDecorator *> > >,void (__cdecl*)(NEffectUpdateDecorator::CAirResistanceDecorator *)>
PUBLIC	??$for_each@V?$_Vector_iterator@V?$_Vector_val@U?$_Simple_types@PAVCGravityDecorator@NEffectUpdateDecorator@@@std@@@std@@@std@@P6AXPAVCGravityDecorator@NEffectUpdateDecorator@@@Z@std@@YAP6AXPAVCGravityDecorator@NEffectUpdateDecorator@@@ZV?$_Vector_iterator@V?$_Vector_val@U?$_Simple_types@PAVCGravityDecorator@NEffectUpdateDecorator@@@std@@@std@@@0@1P6AX0@Z@Z ; std::for_each<std::_Vector_iterator<std::_Vector_val<std::_Simple_types<NEffectUpdateDecorator::CGravityDecorator *> > >,void (__cdecl*)(NEffectUpdateDecorator::CGravityDecorator *)>
PUBLIC	??$for_each@V?$_Vector_iterator@V?$_Vector_val@U?$_Simple_types@PAVCRotationDecorator@NEffectUpdateDecorator@@@std@@@std@@@std@@P6AXPAVCRotationDecorator@NEffectUpdateDecorator@@@Z@std@@YAP6AXPAVCRotationDecorator@NEffectUpdateDecorator@@@ZV?$_Vector_iterator@V?$_Vector_val@U?$_Simple_types@PAVCRotationDecorator@NEffectUpdateDecorator@@@std@@@std@@@0@1P6AX0@Z@Z ; std::for_each<std::_Vector_iterator<std::_Vector_val<std::_Simple_types<NEffectUpdateDecorator::CRotationDecorator *> > >,void (__cdecl*)(NEffectUpdateDecorator::CRotationDecorator *)>
PUBLIC	??$_Buyheadnode@V?$allocator@U?$_Tree_node@U?$pair@$$CBHPAX@std@@PAX@std@@@std@@@?$_Tree_node@U?$pair@$$CBHPAX@std@@PAX@std@@SAPAU01@AAV?$allocator@U?$_Tree_node@U?$pair@$$CBHPAX@std@@PAX@std@@@1@@Z ; std::_Tree_node<std::pair<int const ,void *>,void *>::_Buyheadnode<std::allocator<std::_Tree_node<std::pair<int const ,void *>,void *> > >
PUBLIC	??$_Destroy_range@V?$allocator@PAVCHeaderDecorator@NEffectUpdateDecorator@@@std@@@std@@YAXPAPAVCHeaderDecorator@NEffectUpdateDecorator@@QAPAV12@AAV?$allocator@PAVCHeaderDecorator@NEffectUpdateDecorator@@@0@@Z ; std::_Destroy_range<std::allocator<NEffectUpdateDecorator::CHeaderDecorator *> >
PUBLIC	??$_Destroy_range@V?$allocator@PAVCNullDecorator@NEffectUpdateDecorator@@@std@@@std@@YAXPAPAVCNullDecorator@NEffectUpdateDecorator@@QAPAV12@AAV?$allocator@PAVCNullDecorator@NEffectUpdateDecorator@@@0@@Z ; std::_Destroy_range<std::allocator<NEffectUpdateDecorator::CNullDecorator *> >
PUBLIC	??$_Destroy_range@V?$allocator@PAVCTextureAnimationCWDecorator@NEffectUpdateDecorator@@@std@@@std@@YAXPAPAVCTextureAnimationCWDecorator@NEffectUpdateDecorator@@QAPAV12@AAV?$allocator@PAVCTextureAnimationCWDecorator@NEffectUpdateDecorator@@@0@@Z ; std::_Destroy_range<std::allocator<NEffectUpdateDecorator::CTextureAnimationCWDecorator *> >
PUBLIC	??$_Destroy_range@V?$allocator@PAVCTextureAnimationCCWDecorator@NEffectUpdateDecorator@@@std@@@std@@YAXPAPAVCTextureAnimationCCWDecorator@NEffectUpdateDecorator@@QAPAV12@AAV?$allocator@PAVCTextureAnimationCCWDecorator@NEffectUpdateDecorator@@@0@@Z ; std::_Destroy_range<std::allocator<NEffectUpdateDecorator::CTextureAnimationCCWDecorator *> >
PUBLIC	??$_Destroy_range@V?$allocator@PAVCTextureAnimationRandomDecorator@NEffectUpdateDecorator@@@std@@@std@@YAXPAPAVCTextureAnimationRandomDecorator@NEffectUpdateDecorator@@QAPAV12@AAV?$allocator@PAVCTextureAnimationRandomDecorator@NEffectUpdateDecorator@@@0@@Z ; std::_Destroy_range<std::allocator<NEffectUpdateDecorator::CTextureAnimationRandomDecorator *> >
PUBLIC	??$_Destroy_range@V?$allocator@PAVCAirResistanceDecorator@NEffectUpdateDecorator@@@std@@@std@@YAXPAPAVCAirResistanceDecorator@NEffectUpdateDecorator@@QAPAV12@AAV?$allocator@PAVCAirResistanceDecorator@NEffectUpdateDecorator@@@0@@Z ; std::_Destroy_range<std::allocator<NEffectUpdateDecorator::CAirResistanceDecorator *> >
PUBLIC	??$_Destroy_range@V?$allocator@PAVCGravityDecorator@NEffectUpdateDecorator@@@std@@@std@@YAXPAPAVCGravityDecorator@NEffectUpdateDecorator@@QAPAV12@AAV?$allocator@PAVCGravityDecorator@NEffectUpdateDecorator@@@0@@Z ; std::_Destroy_range<std::allocator<NEffectUpdateDecorator::CGravityDecorator *> >
PUBLIC	??$_Destroy_range@V?$allocator@PAVCRotationDecorator@NEffectUpdateDecorator@@@std@@@std@@YAXPAPAVCRotationDecorator@NEffectUpdateDecorator@@QAPAV12@AAV?$allocator@PAVCRotationDecorator@NEffectUpdateDecorator@@@0@@Z ; std::_Destroy_range<std::allocator<NEffectUpdateDecorator::CRotationDecorator *> >
PUBLIC	??$_Erase_tree@V?$allocator@U?$_Tree_node@U?$pair@$$CBHPAX@std@@PAX@std@@@std@@@?$_Tree_val@U?$_Tree_simple_types@U?$pair@$$CBHPAX@std@@@std@@@std@@QAEXAAV?$allocator@U?$_Tree_node@U?$pair@$$CBHPAX@std@@PAX@std@@@1@PAU?$_Tree_node@U?$pair@$$CBHPAX@std@@PAX@1@@Z ; std::_Tree_val<std::_Tree_simple_types<std::pair<int const ,void *> > >::_Erase_tree<std::allocator<std::_Tree_node<std::pair<int const ,void *>,void *> > >
PUBLIC	??$_Freenode0@V?$allocator@U?$_Tree_node@U?$pair@$$CBHPAX@std@@PAX@std@@@std@@@?$_Tree_node@U?$pair@$$CBHPAX@std@@PAX@std@@SAXAAV?$allocator@U?$_Tree_node@U?$pair@$$CBHPAX@std@@PAX@std@@@1@PAU01@@Z ; std::_Tree_node<std::pair<int const ,void *>,void *>::_Freenode0<std::allocator<std::_Tree_node<std::pair<int const ,void *>,void *> > >
PUBLIC	??$_Construct_in_place@PAU?$_Tree_node@U?$pair@$$CBHPAX@std@@PAX@std@@ABQAU12@@std@@YAXAAPAU?$_Tree_node@U?$pair@$$CBHPAX@std@@PAX@0@ABQAU10@@Z ; std::_Construct_in_place<std::_Tree_node<std::pair<int const ,void *>,void *> *,std::_Tree_node<std::pair<int const ,void *>,void *> * const &>
PUBLIC	??$_Destroy_in_place@PAU?$_Tree_node@U?$pair@$$CBHPAX@std@@PAX@std@@@std@@YAXAAPAU?$_Tree_node@U?$pair@$$CBHPAX@std@@PAX@0@@Z ; std::_Destroy_in_place<std::_Tree_node<std::pair<int const ,void *>,void *> *>
PUBLIC	??_ECGuildMarkUploader@@WHM@AEPAXI@Z		; [thunk]:CGuildMarkUploader::`vector deleting destructor'
PUBLIC	??_ECPythonApplication@@WBM@AEPAXI@Z		; [thunk]:CPythonApplication::`vector deleting destructor'
PUBLIC	??_ECPythonApplication@@WCA@AEPAXI@Z		; [thunk]:CPythonApplication::`vector deleting destructor'
PUBLIC	?_OptionsStorage@?1??__local_stdio_printf_options@@9@4_KA ; `__local_stdio_printf_options'::`2'::_OptionsStorage
PUBLIC	??_7exception@std@@6B@				; std::exception::`vftable'
PUBLIC	??_C@_0BC@EOODALEL@Unknown?5exception@		; `string'
PUBLIC	??_7bad_alloc@std@@6B@				; std::bad_alloc::`vftable'
PUBLIC	??_7bad_array_new_length@std@@6B@		; std::bad_array_new_length::`vftable'
PUBLIC	??_C@_0BF@KINCDENJ@bad?5array?5new?5length@	; `string'
PUBLIC	__TI3?AVbad_array_new_length@std@@
PUBLIC	__CTA3?AVbad_array_new_length@std@@
PUBLIC	??_R0?AVbad_array_new_length@std@@@8		; std::bad_array_new_length `RTTI Type Descriptor'
PUBLIC	__CT??_R0?AVbad_array_new_length@std@@@8??0bad_array_new_length@std@@QAE@ABV01@@Z12
PUBLIC	??_R0?AVbad_alloc@std@@@8			; std::bad_alloc `RTTI Type Descriptor'
PUBLIC	__CT??_R0?AVbad_alloc@std@@@8??0bad_alloc@std@@QAE@ABV01@@Z12
PUBLIC	??_R0?AVexception@std@@@8			; std::exception `RTTI Type Descriptor'
PUBLIC	__CT??_R0?AVexception@std@@@8??0exception@std@@QAE@ABV01@@Z12
PUBLIC	??_C@_0BA@JFNIOLAK@string?5too?5long@		; `string'
PUBLIC	??_C@_00CNPNBAHC@@				; `string'
PUBLIC	?ms_singleton@?$CSingleton@VCTimer@@@@0PAVCTimer@@A ; CSingleton<CTimer>::ms_singleton
PUBLIC	?ms_singleton@?$CSingleton@VCResourceManager@@@@0PAVCResourceManager@@A ; CSingleton<CResourceManager>::ms_singleton
PUBLIC	?ms_singleton@?$CSingleton@VCCullingManager@@@@0PAVCCullingManager@@A ; CSingleton<CCullingManager>::ms_singleton
PUBLIC	?ms_singleton@?$CSingleton@VCWindowManager@UI@@@@0PAVCWindowManager@UI@@A ; CSingleton<UI::CWindowManager>::ms_singleton
PUBLIC	??_R4exception@std@@6B@				; std::exception::`RTTI Complete Object Locator'
PUBLIC	??_R3exception@std@@8				; std::exception::`RTTI Class Hierarchy Descriptor'
PUBLIC	??_R2exception@std@@8				; std::exception::`RTTI Base Class Array'
PUBLIC	??_R1A@?0A@EA@exception@std@@8			; std::exception::`RTTI Base Class Descriptor at (0,-1,0,64)'
PUBLIC	??_R4bad_alloc@std@@6B@				; std::bad_alloc::`RTTI Complete Object Locator'
PUBLIC	??_R3bad_alloc@std@@8				; std::bad_alloc::`RTTI Class Hierarchy Descriptor'
PUBLIC	??_R2bad_alloc@std@@8				; std::bad_alloc::`RTTI Base Class Array'
PUBLIC	??_R1A@?0A@EA@bad_alloc@std@@8			; std::bad_alloc::`RTTI Base Class Descriptor at (0,-1,0,64)'
PUBLIC	??_R4bad_array_new_length@std@@6B@		; std::bad_array_new_length::`RTTI Complete Object Locator'
PUBLIC	??_R3bad_array_new_length@std@@8		; std::bad_array_new_length::`RTTI Class Hierarchy Descriptor'
PUBLIC	??_R2bad_array_new_length@std@@8		; std::bad_array_new_length::`RTTI Base Class Array'
PUBLIC	??_R1A@?0A@EA@bad_array_new_length@std@@8	; std::bad_array_new_length::`RTTI Base Class Descriptor at (0,-1,0,64)'
PUBLIC	?ms_singleton@?$CSingleton@VCCameraManager@@@@0PAVCCameraManager@@A ; CSingleton<CCameraManager>::ms_singleton
PUBLIC	?ms_singleton@?$CSingleton@VCStateManager@@@@0PAVCStateManager@@A ; CSingleton<CStateManager>::ms_singleton
PUBLIC	?ms_kPool@?$CPooledObject@VCHeaderDecorator@NEffectUpdateDecorator@@@@1V?$CDynamicPoolEx@VCHeaderDecorator@NEffectUpdateDecorator@@@@A ; CPooledObject<NEffectUpdateDecorator::CHeaderDecorator>::ms_kPool
PUBLIC	?ms_kPool@?$CPooledObject@VCNullDecorator@NEffectUpdateDecorator@@@@1V?$CDynamicPoolEx@VCNullDecorator@NEffectUpdateDecorator@@@@A ; CPooledObject<NEffectUpdateDecorator::CNullDecorator>::ms_kPool
PUBLIC	?ms_kPool@?$CPooledObject@VCTextureAnimationCWDecorator@NEffectUpdateDecorator@@@@1V?$CDynamicPoolEx@VCTextureAnimationCWDecorator@NEffectUpdateDecorator@@@@A ; CPooledObject<NEffectUpdateDecorator::CTextureAnimationCWDecorator>::ms_kPool
PUBLIC	?ms_kPool@?$CPooledObject@VCTextureAnimationCCWDecorator@NEffectUpdateDecorator@@@@1V?$CDynamicPoolEx@VCTextureAnimationCCWDecorator@NEffectUpdateDecorator@@@@A ; CPooledObject<NEffectUpdateDecorator::CTextureAnimationCCWDecorator>::ms_kPool
PUBLIC	?ms_kPool@?$CPooledObject@VCTextureAnimationRandomDecorator@NEffectUpdateDecorator@@@@1V?$CDynamicPoolEx@VCTextureAnimationRandomDecorator@NEffectUpdateDecorator@@@@A ; CPooledObject<NEffectUpdateDecorator::CTextureAnimationRandomDecorator>::ms_kPool
PUBLIC	?ms_kPool@?$CPooledObject@VCAirResistanceDecorator@NEffectUpdateDecorator@@@@1V?$CDynamicPoolEx@VCAirResistanceDecorator@NEffectUpdateDecorator@@@@A ; CPooledObject<NEffectUpdateDecorator::CAirResistanceDecorator>::ms_kPool
PUBLIC	?ms_kPool@?$CPooledObject@VCGravityDecorator@NEffectUpdateDecorator@@@@1V?$CDynamicPoolEx@VCGravityDecorator@NEffectUpdateDecorator@@@@A ; CPooledObject<NEffectUpdateDecorator::CGravityDecorator>::ms_kPool
PUBLIC	?ms_kPool@?$CPooledObject@VCRotationDecorator@NEffectUpdateDecorator@@@@1V?$CDynamicPoolEx@VCRotationDecorator@NEffectUpdateDecorator@@@@A ; CPooledObject<NEffectUpdateDecorator::CRotationDecorator>::ms_kPool
PUBLIC	?ms_singleton@?$CSingleton@VCItemManager@@@@0PAVCItemManager@@A ; CSingleton<CItemManager>::ms_singleton
PUBLIC	?ms_singleton@?$CSingleton@VCPythonSkill@@@@0PAVCPythonSkill@@A ; CSingleton<CPythonSkill>::ms_singleton
PUBLIC	?ms_singleton@?$CSingleton@VCPythonNonPlayer@@@@0PAVCPythonNonPlayer@@A ; CSingleton<CPythonNonPlayer>::ms_singleton
PUBLIC	?ms_singleton@?$CSingleton@VCPythonBackground@@@@0PAVCPythonBackground@@A ; CSingleton<CPythonBackground>::ms_singleton
PUBLIC	?ms_singleton@?$CSingleton@VCPythonIME@@@@0PAVCPythonIME@@A ; CSingleton<CPythonIME>::ms_singleton
PUBLIC	?ms_singleton@?$CSingleton@VCPythonTextTail@@@@0PAVCPythonTextTail@@A ; CSingleton<CPythonTextTail>::ms_singleton
PUBLIC	?ms_singleton@?$CSingleton@VCPythonSystem@@@@0PAVCPythonSystem@@A ; CSingleton<CPythonSystem>::ms_singleton
PUBLIC	?ms_singleton@?$CSingleton@VCPythonNetworkStream@@@@0PAVCPythonNetworkStream@@A ; CSingleton<CPythonNetworkStream>::ms_singleton
PUBLIC	?ms_singleton@?$CSingleton@VCGuildMarkUploader@@@@0PAVCGuildMarkUploader@@A ; CSingleton<CGuildMarkUploader>::ms_singleton
PUBLIC	??_7?$CSingleton@VCGuildMarkUploader@@@@6B@	; CSingleton<CGuildMarkUploader>::`vftable'
PUBLIC	??_7CGuildMarkUploader@@6BCNetworkStream@@@	; CGuildMarkUploader::`vftable'
PUBLIC	??_7CGuildMarkUploader@@6B?$CSingleton@VCGuildMarkUploader@@@@@ ; CGuildMarkUploader::`vftable'
PUBLIC	?ms_singleton@?$TAbstractSingleton@VIAbstractApplication@@@@0PAVIAbstractApplication@@A ; TAbstractSingleton<IAbstractApplication>::ms_singleton
PUBLIC	??_7?$TAbstractSingleton@VIAbstractApplication@@@@6B@ ; TAbstractSingleton<IAbstractApplication>::`vftable'
PUBLIC	??_7IAbstractApplication@@6B@			; IAbstractApplication::`vftable'
PUBLIC	?ms_singleton@?$CSingleton@VCMovieMan@@@@0PAVCMovieMan@@A ; CSingleton<CMovieMan>::ms_singleton
PUBLIC	??_7?$CSingleton@VCMovieMan@@@@6B@		; CSingleton<CMovieMan>::`vftable'
PUBLIC	??_7CMovieMan@@6B@				; CMovieMan::`vftable'
PUBLIC	??_7CPythonApplication@@6BCMSApplication@@@	; CPythonApplication::`vftable'
PUBLIC	??_7CPythonApplication@@6BCInputKeyboard@@@	; CPythonApplication::`vftable'
PUBLIC	??_7CPythonApplication@@6BIAbstractApplication@@@ ; CPythonApplication::`vftable'
PUBLIC	??_C@_0GN@LLBDNFAM@?$DN?$DN?$DN?$DN?$DN?$DN?$DN?$DN?$DN?$DN?$DN?$DN?$DN?$DN?$DN?$DN?$DN?$DN?$DN?$DN?$DN?$DN?$DN?$DN?$DN?$DN?$DN?$DN?$DN?$DN?$DN@ ; `string'
PUBLIC	??_C@_0M@EHJKIBDK@Abort?$CB?$CB?$CB?$CB?6?6@	; `string'
PUBLIC	??_C@_01NOFIACDB@w@				; `string'
PUBLIC	??_C@_0BF@OHHAPIAL@perf_game_render?4txt@	; `string'
PUBLIC	??_C@_0BH@GCCBAEAA@GR?4Total?5?$CFd?5?$CITime?5?$CFd?$CJ?6@ ; `string'
PUBLIC	??_C@_0L@EGAPCDKD@GR?4DFM?5?$CFd?6@		; `string'
PUBLIC	??_C@_0O@PLGAMGBI@GR?4EFT?4UP?5?$CFd?6@		; `string'
PUBLIC	??_C@_0L@MCADEBDB@GR?4SHW?5?$CFd?6@		; `string'
PUBLIC	??_C@_0L@OEOJMFCF@GR?4STT?5?$CFd?6@		; `string'
PUBLIC	??_C@_0L@CDOGKGFB@GR?4CLL?5?$CFd?6@		; `string'
PUBLIC	??_C@_0O@HPKPMDPE@GR?4BG?4SKY?5?$CFd?6@		; `string'
PUBLIC	??_C@_0O@JENIKJAN@GR?4BG?4LEN?5?$CFd?6@		; `string'
PUBLIC	??_C@_0O@HJPLNNBE@GR?4BG?4CLD?5?$CFd?6@		; `string'
PUBLIC	??_C@_0P@EJKDFAIB@GR?4BG?4MAIN?5?$CFd?6@	; `string'
PUBLIC	??_C@_0L@OOHFOBKJ@GR?4CHR?5?$CFd?6@		; `string'
PUBLIC	??_C@_0O@LENBOK@GR?4BG?4WTR?5?$CFd?6@		; `string'
PUBLIC	??_C@_0O@BIDCIJEG@GR?4BG?4EFT?5?$CFd?6@		; `string'
PUBLIC	??_C@_0L@KOHMHAGO@GR?4EFT?5?$CFd?6@		; `string'
PUBLIC	??_C@_0L@CNELLLJF@GR?4ITM?5?$CFd?6@		; `string'
PUBLIC	??_C@_0L@DIBNDLBN@GR?4FLY?5?$CFd?6@		; `string'
PUBLIC	??_C@_0O@EEAHGPFP@GR?4BG?4BLK?5?$CFd?6@		; `string'
PUBLIC	??_C@_0BF@NHIIGIH@perf_game_update?4txt@	; `string'
PUBLIC	??_C@_0BH@HPIDKEA@GU?4Total?5?$CFd?5?$CITime?5?$CFd?$CJ?6@ ; `string'
PUBLIC	??_C@_0L@JHBDHKIG@GU?4GMP?5?$CFd?6@		; `string'
PUBLIC	??_C@_0L@HCBFJPAB@GU?4SCR?5?$CFd?6@		; `string'
PUBLIC	??_C@_0L@IGEOOJOO@GU?4MPS?5?$CFd?6@		; `string'
PUBLIC	??_C@_09JGPPFKPH@GU?4BG?5?$CFd?6@		; `string'
PUBLIC	??_C@_0L@BLLECFKE@GU?4GEM?5?$CFd?6@		; `string'
PUBLIC	??_C@_0L@MKJPKNA@GU?4CHR?5?$CFd?6@		; `string'
PUBLIC	??_C@_0L@EMKAGLBH@GU?4EFT?5?$CFd?6@		; `string'
PUBLIC	??_C@_0L@NKMBCAGE@GU?4FLY?5?$CFd?6@		; `string'
PUBLIC	??_C@_0L@MPJHKAOM@GU?4ITM?5?$CFd?6@		; `string'
PUBLIC	??_C@_0L@KNCOIAL@GU?4PLR?5?$CFd?6@		; `string'
PUBLIC	??_C@_0L@PAGGCBDD@GU?4POS?5?$CFd?6@		; `string'
PUBLIC	??_C@_0BD@OJBILBDC@FrameSkip?5?$LK?$LI?A?$KE?5?$CFd?6@ ; `string'
PUBLIC	??_C@_0BA@NOHKOOIE@WARN_BAD_DRIVER@		; `string'
PUBLIC	??_C@_0M@MOGGPFAH@WARN_NO_TNL@			; `string'
PUBLIC	??_C@_0BN@OAKBEJJN@CREATE_NO_APPROPRIATE_DEVICE@ ; `string'
PUBLIC	??_C@_0CD@GGLEAAKE@CreateDevice?3?5Enum?5?$CG?5Detect?5fai@ ; `string'
PUBLIC	??_C@_0BC@NKAKBNDM@CREATE_NO_DIRECTX@		; `string'
PUBLIC	??_C@_0DK@GACPAJMM@CreateDevice?3?5DirectX?58?41?5or?5gr@ ; `string'
PUBLIC	??_C@_0O@CMPMDOEH@CREATE_DEVICE@		; `string'
PUBLIC	??_C@_0CK@KMPBIDGP@CreateDevice?3?5GraphicDevice?5cre@ ; `string'
PUBLIC	??_C@_0O@DAEHMKOB@CREATE_FORMAT@		; `string'
PUBLIC	??_C@_0CH@DEBFNBPL@CreateDevice?3?5Change?5the?5screen@ ; `string'
PUBLIC	??_C@_0BC@IMJEDJEA@GetDevCaps?5failed@		; `string'
PUBLIC	??_C@_0CA@DLHDILBB@CreateDevice?3?5GetDevCaps?5failed@ ; `string'
PUBLIC	??_C@_0BD@IHNLMMLJ@GetDevCaps2?5failed@		; `string'
PUBLIC	??_C@_0CB@JLAAEKGJ@CreateDevice?3?5GetDevCaps2?5faile@ ; `string'
PUBLIC	??_C@_0O@BAEJJDKB@UNKNOWN_ERROR@		; `string'
PUBLIC	??_C@_0BN@JAHEKIGK@CreateDevice?3?5Unknown?5Error?$CB@ ; `string'
PUBLIC	??_C@_0BB@EOELDOLA@?$CFs?1item_list?4txt@	; `string'
PUBLIC	??_C@_0O@MEMEPBB@?$CFs?1item_proto@		; `string'
PUBLIC	??_C@_0BA@BIDKFLDM@?$CFs?1itemdesc?4txt@	; `string'
PUBLIC	??_C@_0N@KCBCHIHM@?$CFs?1mob_proto@		; `string'
PUBLIC	??_C@_0BB@JDMIHPNN@?$CFs?1SkillDesc?4txt@	; `string'
PUBLIC	??_C@_0BC@NLEJCAEF@?$CFs?1SkillTable?4txt@	; `string'
PUBLIC	??_C@_0O@JEIJHCCG@?$CFs?1insult?4txt@		; `string'
PUBLIC	??_C@_0CI@MGBDCDJE@LoadLocaleData?5?9?5LoadItemList?$CI?$CF@ ; `string'
PUBLIC	??_C@_0CJ@MIFDPICO@LoadLocaleData?5?9?5LoadItemProto?$CI@ ; `string'
PUBLIC	??_C@_0CI@FLOPHKEN@LoadLocaleData?5?9?5LoadItemDesc?$CI?$CF@ ; `string'
PUBLIC	??_C@_0CI@PNCAMHEJ@LoadLocaleData?5?9?5LoadMobProto?$CI?$CF@ ; `string'
PUBLIC	??_C@_0CN@NIKOAAJF@LoadLocaleData?5?9?5RegisterSkillD@ ; `string'
PUBLIC	??_C@_0CO@HCDPLHIO@LoadLocaleData?5?9?5RegisterSkillT@ ; `string'
PUBLIC	??_C@_0DO@PNDPPMDH@CPythonApplication?5?9?5CPythonNet@ ; `string'
PUBLIC	??_C@_0O@GCNBGGIE@?$CFs?1lang?$CFd?4cvt@	; `string'
PUBLIC	??_C@_0EI@FFMLHANM@LoadLocaleData?5?9?5CPythonNetwork@ ; `string'
PUBLIC	??_C@_0BJ@DBNNLGNG@CMSWindow?3?3Create?5failed@	; `string'
PUBLIC	??_C@_0O@NOBMPFEG@CREATE_WINDOW@		; `string'
PUBLIC	??_C@_0CA@FFOMJBHN@CMSWindow?3?3Cursors?5Create?5Error@ ; `string'
PUBLIC	??_C@_0BA@GLLECKCO@?$CCCREATE_CURSOR?$CC@	; `string'
PUBLIC	??_C@_0BJ@CJEBNOLC@NetDevice?3?3Create?5failed@	; `string'
PUBLIC	??_C@_0BB@EJLMKODK@?$CCCREATE_NETWORK?$CC@	; `string'
PUBLIC	??_C@_0CD@KIIBIHOG@d?3?1ymir?5work?1special?1spheremap?4@ ; `string'
PUBLIC	??_C@_0CF@CBFEMJII@d?3?1ymir?5work?1special?1spheremap0@ ; `string'
PUBLIC	??_7?$CDynamicPoolEx@VCRotationDecorator@NEffectUpdateDecorator@@@@6B@ ; CDynamicPoolEx<NEffectUpdateDecorator::CRotationDecorator>::`vftable'
PUBLIC	??_7?$CDynamicPoolEx@VCGravityDecorator@NEffectUpdateDecorator@@@@6B@ ; CDynamicPoolEx<NEffectUpdateDecorator::CGravityDecorator>::`vftable'
PUBLIC	??_7?$CDynamicPoolEx@VCAirResistanceDecorator@NEffectUpdateDecorator@@@@6B@ ; CDynamicPoolEx<NEffectUpdateDecorator::CAirResistanceDecorator>::`vftable'
PUBLIC	??_7?$CDynamicPoolEx@VCTextureAnimationRandomDecorator@NEffectUpdateDecorator@@@@6B@ ; CDynamicPoolEx<NEffectUpdateDecorator::CTextureAnimationRandomDecorator>::`vftable'
PUBLIC	??_7?$CDynamicPoolEx@VCTextureAnimationCCWDecorator@NEffectUpdateDecorator@@@@6B@ ; CDynamicPoolEx<NEffectUpdateDecorator::CTextureAnimationCCWDecorator>::`vftable'
PUBLIC	??_7?$CDynamicPoolEx@VCTextureAnimationCWDecorator@NEffectUpdateDecorator@@@@6B@ ; CDynamicPoolEx<NEffectUpdateDecorator::CTextureAnimationCWDecorator>::`vftable'
PUBLIC	??_7?$CDynamicPoolEx@VCNullDecorator@NEffectUpdateDecorator@@@@6B@ ; CDynamicPoolEx<NEffectUpdateDecorator::CNullDecorator>::`vftable'
PUBLIC	??_7?$CDynamicPoolEx@VCHeaderDecorator@NEffectUpdateDecorator@@@@6B@ ; CDynamicPoolEx<NEffectUpdateDecorator::CHeaderDecorator>::`vftable'
PUBLIC	??_R4?$CDynamicPoolEx@VCHeaderDecorator@NEffectUpdateDecorator@@@@6B@ ; CDynamicPoolEx<NEffectUpdateDecorator::CHeaderDecorator>::`RTTI Complete Object Locator'
PUBLIC	??_R0?AV?$CDynamicPoolEx@VCHeaderDecorator@NEffectUpdateDecorator@@@@@8 ; CDynamicPoolEx<NEffectUpdateDecorator::CHeaderDecorator> `RTTI Type Descriptor'
PUBLIC	??_R3?$CDynamicPoolEx@VCHeaderDecorator@NEffectUpdateDecorator@@@@8 ; CDynamicPoolEx<NEffectUpdateDecorator::CHeaderDecorator>::`RTTI Class Hierarchy Descriptor'
PUBLIC	??_R2?$CDynamicPoolEx@VCHeaderDecorator@NEffectUpdateDecorator@@@@8 ; CDynamicPoolEx<NEffectUpdateDecorator::CHeaderDecorator>::`RTTI Base Class Array'
PUBLIC	??_R1A@?0A@EA@?$CDynamicPoolEx@VCHeaderDecorator@NEffectUpdateDecorator@@@@8 ; CDynamicPoolEx<NEffectUpdateDecorator::CHeaderDecorator>::`RTTI Base Class Descriptor at (0,-1,0,64)'
PUBLIC	??_R4?$CDynamicPoolEx@VCNullDecorator@NEffectUpdateDecorator@@@@6B@ ; CDynamicPoolEx<NEffectUpdateDecorator::CNullDecorator>::`RTTI Complete Object Locator'
PUBLIC	??_R0?AV?$CDynamicPoolEx@VCNullDecorator@NEffectUpdateDecorator@@@@@8 ; CDynamicPoolEx<NEffectUpdateDecorator::CNullDecorator> `RTTI Type Descriptor'
PUBLIC	??_R3?$CDynamicPoolEx@VCNullDecorator@NEffectUpdateDecorator@@@@8 ; CDynamicPoolEx<NEffectUpdateDecorator::CNullDecorator>::`RTTI Class Hierarchy Descriptor'
PUBLIC	??_R2?$CDynamicPoolEx@VCNullDecorator@NEffectUpdateDecorator@@@@8 ; CDynamicPoolEx<NEffectUpdateDecorator::CNullDecorator>::`RTTI Base Class Array'
PUBLIC	??_R1A@?0A@EA@?$CDynamicPoolEx@VCNullDecorator@NEffectUpdateDecorator@@@@8 ; CDynamicPoolEx<NEffectUpdateDecorator::CNullDecorator>::`RTTI Base Class Descriptor at (0,-1,0,64)'
PUBLIC	??_R4?$CDynamicPoolEx@VCTextureAnimationCWDecorator@NEffectUpdateDecorator@@@@6B@ ; CDynamicPoolEx<NEffectUpdateDecorator::CTextureAnimationCWDecorator>::`RTTI Complete Object Locator'
PUBLIC	??_R0?AV?$CDynamicPoolEx@VCTextureAnimationCWDecorator@NEffectUpdateDecorator@@@@@8 ; CDynamicPoolEx<NEffectUpdateDecorator::CTextureAnimationCWDecorator> `RTTI Type Descriptor'
PUBLIC	??_R3?$CDynamicPoolEx@VCTextureAnimationCWDecorator@NEffectUpdateDecorator@@@@8 ; CDynamicPoolEx<NEffectUpdateDecorator::CTextureAnimationCWDecorator>::`RTTI Class Hierarchy Descriptor'
PUBLIC	??_R2?$CDynamicPoolEx@VCTextureAnimationCWDecorator@NEffectUpdateDecorator@@@@8 ; CDynamicPoolEx<NEffectUpdateDecorator::CTextureAnimationCWDecorator>::`RTTI Base Class Array'
PUBLIC	??_R1A@?0A@EA@?$CDynamicPoolEx@VCTextureAnimationCWDecorator@NEffectUpdateDecorator@@@@8 ; CDynamicPoolEx<NEffectUpdateDecorator::CTextureAnimationCWDecorator>::`RTTI Base Class Descriptor at (0,-1,0,64)'
PUBLIC	??_R4?$CDynamicPoolEx@VCTextureAnimationCCWDecorator@NEffectUpdateDecorator@@@@6B@ ; CDynamicPoolEx<NEffectUpdateDecorator::CTextureAnimationCCWDecorator>::`RTTI Complete Object Locator'
PUBLIC	??_R0?AV?$CDynamicPoolEx@VCTextureAnimationCCWDecorator@NEffectUpdateDecorator@@@@@8 ; CDynamicPoolEx<NEffectUpdateDecorator::CTextureAnimationCCWDecorator> `RTTI Type Descriptor'
PUBLIC	??_R3?$CDynamicPoolEx@VCTextureAnimationCCWDecorator@NEffectUpdateDecorator@@@@8 ; CDynamicPoolEx<NEffectUpdateDecorator::CTextureAnimationCCWDecorator>::`RTTI Class Hierarchy Descriptor'
PUBLIC	??_R2?$CDynamicPoolEx@VCTextureAnimationCCWDecorator@NEffectUpdateDecorator@@@@8 ; CDynamicPoolEx<NEffectUpdateDecorator::CTextureAnimationCCWDecorator>::`RTTI Base Class Array'
PUBLIC	??_R1A@?0A@EA@?$CDynamicPoolEx@VCTextureAnimationCCWDecorator@NEffectUpdateDecorator@@@@8 ; CDynamicPoolEx<NEffectUpdateDecorator::CTextureAnimationCCWDecorator>::`RTTI Base Class Descriptor at (0,-1,0,64)'
PUBLIC	??_R4?$CDynamicPoolEx@VCTextureAnimationRandomDecorator@NEffectUpdateDecorator@@@@6B@ ; CDynamicPoolEx<NEffectUpdateDecorator::CTextureAnimationRandomDecorator>::`RTTI Complete Object Locator'
PUBLIC	??_R0?AV?$CDynamicPoolEx@VCTextureAnimationRandomDecorator@NEffectUpdateDecorator@@@@@8 ; CDynamicPoolEx<NEffectUpdateDecorator::CTextureAnimationRandomDecorator> `RTTI Type Descriptor'
PUBLIC	??_R3?$CDynamicPoolEx@VCTextureAnimationRandomDecorator@NEffectUpdateDecorator@@@@8 ; CDynamicPoolEx<NEffectUpdateDecorator::CTextureAnimationRandomDecorator>::`RTTI Class Hierarchy Descriptor'
PUBLIC	??_R2?$CDynamicPoolEx@VCTextureAnimationRandomDecorator@NEffectUpdateDecorator@@@@8 ; CDynamicPoolEx<NEffectUpdateDecorator::CTextureAnimationRandomDecorator>::`RTTI Base Class Array'
PUBLIC	??_R1A@?0A@EA@?$CDynamicPoolEx@VCTextureAnimationRandomDecorator@NEffectUpdateDecorator@@@@8 ; CDynamicPoolEx<NEffectUpdateDecorator::CTextureAnimationRandomDecorator>::`RTTI Base Class Descriptor at (0,-1,0,64)'
PUBLIC	??_R4?$CDynamicPoolEx@VCAirResistanceDecorator@NEffectUpdateDecorator@@@@6B@ ; CDynamicPoolEx<NEffectUpdateDecorator::CAirResistanceDecorator>::`RTTI Complete Object Locator'
PUBLIC	??_R0?AV?$CDynamicPoolEx@VCAirResistanceDecorator@NEffectUpdateDecorator@@@@@8 ; CDynamicPoolEx<NEffectUpdateDecorator::CAirResistanceDecorator> `RTTI Type Descriptor'
PUBLIC	??_R3?$CDynamicPoolEx@VCAirResistanceDecorator@NEffectUpdateDecorator@@@@8 ; CDynamicPoolEx<NEffectUpdateDecorator::CAirResistanceDecorator>::`RTTI Class Hierarchy Descriptor'
PUBLIC	??_R2?$CDynamicPoolEx@VCAirResistanceDecorator@NEffectUpdateDecorator@@@@8 ; CDynamicPoolEx<NEffectUpdateDecorator::CAirResistanceDecorator>::`RTTI Base Class Array'
PUBLIC	??_R1A@?0A@EA@?$CDynamicPoolEx@VCAirResistanceDecorator@NEffectUpdateDecorator@@@@8 ; CDynamicPoolEx<NEffectUpdateDecorator::CAirResistanceDecorator>::`RTTI Base Class Descriptor at (0,-1,0,64)'
PUBLIC	??_R4?$CDynamicPoolEx@VCGravityDecorator@NEffectUpdateDecorator@@@@6B@ ; CDynamicPoolEx<NEffectUpdateDecorator::CGravityDecorator>::`RTTI Complete Object Locator'
PUBLIC	??_R0?AV?$CDynamicPoolEx@VCGravityDecorator@NEffectUpdateDecorator@@@@@8 ; CDynamicPoolEx<NEffectUpdateDecorator::CGravityDecorator> `RTTI Type Descriptor'
PUBLIC	??_R3?$CDynamicPoolEx@VCGravityDecorator@NEffectUpdateDecorator@@@@8 ; CDynamicPoolEx<NEffectUpdateDecorator::CGravityDecorator>::`RTTI Class Hierarchy Descriptor'
PUBLIC	??_R2?$CDynamicPoolEx@VCGravityDecorator@NEffectUpdateDecorator@@@@8 ; CDynamicPoolEx<NEffectUpdateDecorator::CGravityDecorator>::`RTTI Base Class Array'
PUBLIC	??_R1A@?0A@EA@?$CDynamicPoolEx@VCGravityDecorator@NEffectUpdateDecorator@@@@8 ; CDynamicPoolEx<NEffectUpdateDecorator::CGravityDecorator>::`RTTI Base Class Descriptor at (0,-1,0,64)'
PUBLIC	??_R4?$CDynamicPoolEx@VCRotationDecorator@NEffectUpdateDecorator@@@@6B@ ; CDynamicPoolEx<NEffectUpdateDecorator::CRotationDecorator>::`RTTI Complete Object Locator'
PUBLIC	??_R0?AV?$CDynamicPoolEx@VCRotationDecorator@NEffectUpdateDecorator@@@@@8 ; CDynamicPoolEx<NEffectUpdateDecorator::CRotationDecorator> `RTTI Type Descriptor'
PUBLIC	??_R3?$CDynamicPoolEx@VCRotationDecorator@NEffectUpdateDecorator@@@@8 ; CDynamicPoolEx<NEffectUpdateDecorator::CRotationDecorator>::`RTTI Class Hierarchy Descriptor'
PUBLIC	??_R2?$CDynamicPoolEx@VCRotationDecorator@NEffectUpdateDecorator@@@@8 ; CDynamicPoolEx<NEffectUpdateDecorator::CRotationDecorator>::`RTTI Base Class Array'
PUBLIC	??_R1A@?0A@EA@?$CDynamicPoolEx@VCRotationDecorator@NEffectUpdateDecorator@@@@8 ; CDynamicPoolEx<NEffectUpdateDecorator::CRotationDecorator>::`RTTI Base Class Descriptor at (0,-1,0,64)'
PUBLIC	??_R4CGuildMarkUploader@@6BCNetworkStream@@@	; CGuildMarkUploader::`RTTI Complete Object Locator'
PUBLIC	??_R0?AVCGuildMarkUploader@@@8			; CGuildMarkUploader `RTTI Type Descriptor'
PUBLIC	??_R3CGuildMarkUploader@@8			; CGuildMarkUploader::`RTTI Class Hierarchy Descriptor'
PUBLIC	??_R2CGuildMarkUploader@@8			; CGuildMarkUploader::`RTTI Base Class Array'
PUBLIC	??_R1A@?0A@EA@CGuildMarkUploader@@8		; CGuildMarkUploader::`RTTI Base Class Descriptor at (0,-1,0,64)'
PUBLIC	??_R1A@?0A@EA@CNetworkStream@@8			; CNetworkStream::`RTTI Base Class Descriptor at (0,-1,0,64)'
PUBLIC	??_R0?AVCNetworkStream@@@8			; CNetworkStream `RTTI Type Descriptor'
PUBLIC	??_R3CNetworkStream@@8				; CNetworkStream::`RTTI Class Hierarchy Descriptor'
PUBLIC	??_R2CNetworkStream@@8				; CNetworkStream::`RTTI Base Class Array'
PUBLIC	??_R1HM@?0A@EA@?$CSingleton@VCGuildMarkUploader@@@@8 ; CSingleton<CGuildMarkUploader>::`RTTI Base Class Descriptor at (124,-1,0,64)'
PUBLIC	??_R0?AV?$CSingleton@VCGuildMarkUploader@@@@@8	; CSingleton<CGuildMarkUploader> `RTTI Type Descriptor'
PUBLIC	??_R3?$CSingleton@VCGuildMarkUploader@@@@8	; CSingleton<CGuildMarkUploader>::`RTTI Class Hierarchy Descriptor'
PUBLIC	??_R2?$CSingleton@VCGuildMarkUploader@@@@8	; CSingleton<CGuildMarkUploader>::`RTTI Base Class Array'
PUBLIC	??_R1A@?0A@EA@?$CSingleton@VCGuildMarkUploader@@@@8 ; CSingleton<CGuildMarkUploader>::`RTTI Base Class Descriptor at (0,-1,0,64)'
PUBLIC	??_R4CGuildMarkUploader@@6B?$CSingleton@VCGuildMarkUploader@@@@@ ; CGuildMarkUploader::`RTTI Complete Object Locator'
PUBLIC	??_R4?$CSingleton@VCGuildMarkUploader@@@@6B@	; CSingleton<CGuildMarkUploader>::`RTTI Complete Object Locator'
PUBLIC	??_R4IAbstractApplication@@6B@			; IAbstractApplication::`RTTI Complete Object Locator'
PUBLIC	??_R0?AVIAbstractApplication@@@8		; IAbstractApplication `RTTI Type Descriptor'
PUBLIC	??_R3IAbstractApplication@@8			; IAbstractApplication::`RTTI Class Hierarchy Descriptor'
PUBLIC	??_R2IAbstractApplication@@8			; IAbstractApplication::`RTTI Base Class Array'
PUBLIC	??_R1A@?0A@EA@IAbstractApplication@@8		; IAbstractApplication::`RTTI Base Class Descriptor at (0,-1,0,64)'
PUBLIC	??_R1A@?0A@EA@?$TAbstractSingleton@VIAbstractApplication@@@@8 ; TAbstractSingleton<IAbstractApplication>::`RTTI Base Class Descriptor at (0,-1,0,64)'
PUBLIC	??_R0?AV?$TAbstractSingleton@VIAbstractApplication@@@@@8 ; TAbstractSingleton<IAbstractApplication> `RTTI Type Descriptor'
PUBLIC	??_R3?$TAbstractSingleton@VIAbstractApplication@@@@8 ; TAbstractSingleton<IAbstractApplication>::`RTTI Class Hierarchy Descriptor'
PUBLIC	??_R2?$TAbstractSingleton@VIAbstractApplication@@@@8 ; TAbstractSingleton<IAbstractApplication>::`RTTI Base Class Array'
PUBLIC	??_R4?$TAbstractSingleton@VIAbstractApplication@@@@6B@ ; TAbstractSingleton<IAbstractApplication>::`RTTI Complete Object Locator'
PUBLIC	??_R4CMovieMan@@6B@				; CMovieMan::`RTTI Complete Object Locator'
PUBLIC	??_R0?AVCMovieMan@@@8				; CMovieMan `RTTI Type Descriptor'
PUBLIC	??_R3CMovieMan@@8				; CMovieMan::`RTTI Class Hierarchy Descriptor'
PUBLIC	??_R2CMovieMan@@8				; CMovieMan::`RTTI Base Class Array'
PUBLIC	??_R1A@?0A@EA@CMovieMan@@8			; CMovieMan::`RTTI Base Class Descriptor at (0,-1,0,64)'
PUBLIC	??_R1A@?0A@EA@?$CSingleton@VCMovieMan@@@@8	; CSingleton<CMovieMan>::`RTTI Base Class Descriptor at (0,-1,0,64)'
PUBLIC	??_R0?AV?$CSingleton@VCMovieMan@@@@@8		; CSingleton<CMovieMan> `RTTI Type Descriptor'
PUBLIC	??_R3?$CSingleton@VCMovieMan@@@@8		; CSingleton<CMovieMan>::`RTTI Class Hierarchy Descriptor'
PUBLIC	??_R2?$CSingleton@VCMovieMan@@@@8		; CSingleton<CMovieMan>::`RTTI Base Class Array'
PUBLIC	??_R4?$CSingleton@VCMovieMan@@@@6B@		; CSingleton<CMovieMan>::`RTTI Complete Object Locator'
PUBLIC	??_R4CPythonApplication@@6BCMSApplication@@@	; CPythonApplication::`RTTI Complete Object Locator'
PUBLIC	??_R0?AVCPythonApplication@@@8			; CPythonApplication `RTTI Type Descriptor'
PUBLIC	??_R3CPythonApplication@@8			; CPythonApplication::`RTTI Class Hierarchy Descriptor'
PUBLIC	??_R2CPythonApplication@@8			; CPythonApplication::`RTTI Base Class Array'
PUBLIC	??_R1A@?0A@EA@CPythonApplication@@8		; CPythonApplication::`RTTI Base Class Descriptor at (0,-1,0,64)'
PUBLIC	??_R1A@?0A@EA@CMSApplication@@8			; CMSApplication::`RTTI Base Class Descriptor at (0,-1,0,64)'
PUBLIC	??_R0?AVCMSApplication@@@8			; CMSApplication `RTTI Type Descriptor'
PUBLIC	??_R3CMSApplication@@8				; CMSApplication::`RTTI Class Hierarchy Descriptor'
PUBLIC	??_R2CMSApplication@@8				; CMSApplication::`RTTI Base Class Array'
PUBLIC	??_R1A@?0A@EA@CMSWindow@@8			; CMSWindow::`RTTI Base Class Descriptor at (0,-1,0,64)'
PUBLIC	??_R0?AVCMSWindow@@@8				; CMSWindow `RTTI Type Descriptor'
PUBLIC	??_R3CMSWindow@@8				; CMSWindow::`RTTI Class Hierarchy Descriptor'
PUBLIC	??_R2CMSWindow@@8				; CMSWindow::`RTTI Base Class Array'
PUBLIC	??_R1BM@?0A@EA@CInputKeyboard@@8		; CInputKeyboard::`RTTI Base Class Descriptor at (28,-1,0,64)'
PUBLIC	??_R0?AVCInputKeyboard@@@8			; CInputKeyboard `RTTI Type Descriptor'
PUBLIC	??_R3CInputKeyboard@@8				; CInputKeyboard::`RTTI Class Hierarchy Descriptor'
PUBLIC	??_R2CInputKeyboard@@8				; CInputKeyboard::`RTTI Base Class Array'
PUBLIC	??_R1A@?0A@EA@CInputKeyboard@@8			; CInputKeyboard::`RTTI Base Class Descriptor at (0,-1,0,64)'
PUBLIC	??_R1A@?0A@EA@CInputDevice@@8			; CInputDevice::`RTTI Base Class Descriptor at (0,-1,0,64)'
PUBLIC	??_R0?AVCInputDevice@@@8			; CInputDevice `RTTI Type Descriptor'
PUBLIC	??_R3CInputDevice@@8				; CInputDevice::`RTTI Class Hierarchy Descriptor'
PUBLIC	??_R2CInputDevice@@8				; CInputDevice::`RTTI Base Class Array'
PUBLIC	??_R1BM@?0A@EA@CInputDevice@@8			; CInputDevice::`RTTI Base Class Descriptor at (28,-1,0,64)'
PUBLIC	??_R1CA@?0A@EA@IAbstractApplication@@8		; IAbstractApplication::`RTTI Base Class Descriptor at (32,-1,0,64)'
PUBLIC	??_R1CA@?0A@EA@?$TAbstractSingleton@VIAbstractApplication@@@@8 ; TAbstractSingleton<IAbstractApplication>::`RTTI Base Class Descriptor at (32,-1,0,64)'
PUBLIC	??_R4CPythonApplication@@6BCInputKeyboard@@@	; CPythonApplication::`RTTI Complete Object Locator'
PUBLIC	??_R4CPythonApplication@@6BIAbstractApplication@@@ ; CPythonApplication::`RTTI Complete Object Locator'
PUBLIC	__real@3e99999a
PUBLIC	__real@3f000000
PUBLIC	__real@404e000000000000
PUBLIC	__real@40a00000
PUBLIC	__real@41800000
PUBLIC	__real@41f00000
PUBLIC	__real@42c80000
PUBLIC	__real@447a0000
PUBLIC	__real@46c80000
PUBLIC	__xmm@41f00000000000000000000000000000
PUBLIC	__xmm@80000000800000008000000080000000
EXTRN	__purecall:PROC
EXTRN	??2@YAPAXI@Z:PROC				; operator new
EXTRN	??3@YAXPAX@Z:PROC				; operator delete
EXTRN	??3@YAXPAXI@Z:PROC				; operator delete
EXTRN	_atexit:PROC
EXTRN	__Init_thread_header:PROC
EXTRN	__Init_thread_abort:PROC
EXTRN	__Init_thread_footer:PROC
EXTRN	__invalid_parameter_noinfo_noreturn:PROC
EXTRN	_memcpy:PROC
EXTRN	_memmove:PROC
EXTRN	_memset:PROC
EXTRN	_strlen:PROC
EXTRN	__imp__Sleep@4:PROC
EXTRN	__imp__PostQuitMessage@4:PROC
EXTRN	__imp__SetWindowPos@28:PROC
EXTRN	__imp__GetAsyncKeyState@4:PROC
EXTRN	__imp__GetCursorPos@4:PROC
EXTRN	__imp__ScreenToClient@8:PROC
EXTRN	__imp__FindWindowA@8:PROC
EXTRN	__imp__LoadIconA@8:PROC
EXTRN	__imp__SystemParametersInfoA@16:PROC
EXTRN	__imp__CoUninitialize@0:PROC
EXTRN	__imp__CoInitialize@4:PROC
EXTRN	___acrt_iob_func:PROC
EXTRN	_fflush:PROC
EXTRN	_fopen:PROC
EXTRN	___stdio_common_vfprintf:PROC
EXTRN	___stdio_common_vsprintf:PROC
EXTRN	__time32:PROC
EXTRN	___std_exception_copy:PROC
EXTRN	___std_exception_destroy:PROC
EXTRN	??_Eexception@std@@UAEPAXI@Z:PROC		; std::exception::`vector deleting destructor'
EXTRN	??_Ebad_alloc@std@@UAEPAXI@Z:PROC		; std::bad_alloc::`vector deleting destructor'
EXTRN	??_Ebad_array_new_length@std@@UAEPAXI@Z:PROC	; std::bad_array_new_length::`vector deleting destructor'
EXTRN	?_Xlength_error@std@@YAXPBD@Z:PROC		; std::_Xlength_error
EXTRN	?Tracenf@@YAXPBDZZ:PROC				; Tracenf
EXTRN	?TraceError@@YAXPBDZZ:PROC			; TraceError
EXTRN	?fMAX@@YAMMM@Z:PROC				; fMAX
EXTRN	__imp__PyErr_SetString:PROC
EXTRN	??0CTimer@@QAE@XZ:PROC				; CTimer::CTimer
EXTRN	??1CTimer@@UAE@XZ:PROC				; CTimer::~CTimer
EXTRN	?Advance@CTimer@@QAEXXZ:PROC			; CTimer::Advance
EXTRN	?Adjust@CTimer@@QAEXH@Z:PROC			; CTimer::Adjust
EXTRN	?GetCurrentSecond@CTimer@@QAEMXZ:PROC		; CTimer::GetCurrentSecond
EXTRN	?GetElapsedSecond@CTimer@@QAEMXZ:PROC		; CTimer::GetElapsedSecond
EXTRN	?GetElapsedMilliecond@CTimer@@QAEKXZ:PROC	; CTimer::GetElapsedMilliecond
EXTRN	?UseCustomTime@CTimer@@QAEXXZ:PROC		; CTimer::UseCustomTime
EXTRN	?ELTimer_GetMSec@@YAKXZ:PROC			; ELTimer_GetMSec
EXTRN	?ELTimer_SetFrameMSec@@YAXXZ:PROC		; ELTimer_SetFrameMSec
EXTRN	?DestroySystem@CTextFileLoader@@SAXXZ:PROC	; CTextFileLoader::DestroySystem
EXTRN	?Update@CResourceManager@@QAEXXZ:PROC		; CResourceManager::Update
EXTRN	??0CPythonResource@@QAE@XZ:PROC			; CPythonResource::CPythonResource
EXTRN	??1CPythonResource@@UAE@XZ:PROC			; CPythonResource::~CPythonResource
EXTRN	?Destroy@CPythonResource@@QAEXXZ:PROC		; CPythonResource::Destroy
EXTRN	?SetPerspective@CGraphicBase@@QAEXMMMM@Z:PROC	; CGraphicBase::SetPerspective
EXTRN	?GetFaceCount@CGraphicBase@@QAEKXZ:PROC		; CGraphicBase::GetFaceCount
EXTRN	?ResetFaceCount@CGraphicBase@@QAEXXZ:PROC	; CGraphicBase::ResetFaceCount
EXTRN	?IsFastTNL@CGraphicBase@@SA_NXZ:PROC		; CGraphicBase::IsFastTNL
EXTRN	?Hyperlink_UpdateMousePos@CGraphicTextInstance@@SAXHH@Z:PROC ; CGraphicTextInstance::Hyperlink_UpdateMousePos
EXTRN	?CreateSystem@CGraphicImageInstance@@SAXI@Z:PROC ; CGraphicImageInstance::CreateSystem
EXTRN	?DestroySystem@CGraphicImageInstance@@SAXXZ:PROC ; CGraphicImageInstance::DestroySystem
EXTRN	??0CScreen@@QAE@XZ:PROC				; CScreen::CScreen
EXTRN	??1CScreen@@UAE@XZ:PROC				; CScreen::~CScreen
EXTRN	?ClearDepthBuffer@CScreen@@QAEXXZ:PROC		; CScreen::ClearDepthBuffer
EXTRN	?Begin@CScreen@@QAE_NXZ:PROC			; CScreen::Begin
EXTRN	?End@CScreen@@QAEXXZ:PROC			; CScreen::End
EXTRN	?Show@CScreen@@QAEXPAUHWND__@@@Z:PROC		; CScreen::Show
EXTRN	?IsLostDevice@CScreen@@QAEHXZ:PROC		; CScreen::IsLostDevice
EXTRN	?RestoreDevice@CScreen@@QAEHXZ:PROC		; CScreen::RestoreDevice
EXTRN	?BuildViewFrustum@CScreen@@QAEXXZ:PROC		; CScreen::BuildViewFrustum
EXTRN	?Update@CCullingManager@@QAEXXZ:PROC		; CCullingManager::Update
EXTRN	?Process@CCullingManager@@QAEXXZ:PROC		; CCullingManager::Process
EXTRN	?DestroyCollisionInstanceSystem@@YAXXZ:PROC	; DestroyCollisionInstanceSystem
EXTRN	?DestroySystem@CAttributeInstance@@SAXXZ:PROC	; CAttributeInstance::DestroySystem
EXTRN	?CreateSphereMap@CGrannyMaterial@@SAXIPBD@Z:PROC ; CGrannyMaterial::CreateSphereMap
EXTRN	?DestroySphereMap@CGrannyMaterial@@SAXXZ:PROC	; CGrannyMaterial::DestroySphereMap
EXTRN	?TranslateSpecularMatrix@CGrannyMaterial@@SAXMMM@Z:PROC ; CGrannyMaterial::TranslateSpecularMatrix
EXTRN	?DestroySystem@CGrannyModelInstance@@SAXXZ:PROC	; CGrannyModelInstance::DestroySystem
EXTRN	?SetMinLODMode@CGrannyLODController@@SAX_N@Z:PROC ; CGrannyLODController::SetMinLODMode
EXTRN	??0CPythonGraphic@@QAE@XZ:PROC			; CPythonGraphic::CPythonGraphic
EXTRN	??1CPythonGraphic@@UAE@XZ:PROC			; CPythonGraphic::~CPythonGraphic
EXTRN	?Destroy@CPythonGraphic@@QAEXXZ:PROC		; CPythonGraphic::Destroy
EXTRN	?PushState@CPythonGraphic@@QAEXXZ:PROC		; CPythonGraphic::PushState
EXTRN	?SetInterfaceRenderState@CPythonGraphic@@QAEXXZ:PROC ; CPythonGraphic::SetInterfaceRenderState
EXTRN	?SetGameRenderState@CPythonGraphic@@QAEXXZ:PROC	; CPythonGraphic::SetGameRenderState
EXTRN	?SetCursorPosition@CPythonGraphic@@QAEXHH@Z:PROC ; CPythonGraphic::SetCursorPosition
EXTRN	??0CWindowManager@UI@@QAE@XZ:PROC		; UI::CWindowManager::CWindowManager
EXTRN	??1CWindowManager@UI@@UAE@XZ:PROC		; UI::CWindowManager::~CWindowManager
EXTRN	?Destroy@CWindowManager@UI@@QAEXXZ:PROC		; UI::CWindowManager::Destroy
EXTRN	?GetAspect@CWindowManager@UI@@QAEMXZ:PROC	; UI::CWindowManager::GetAspect
EXTRN	?GetMousePosition@CWindowManager@UI@@QAEXAAJ0@Z:PROC ; UI::CWindowManager::GetMousePosition
EXTRN	??0CSoundManager@@QAE@XZ:PROC			; CSoundManager::CSoundManager
EXTRN	??1CSoundManager@@UAE@XZ:PROC			; CSoundManager::~CSoundManager
EXTRN	?Create@CSoundManager@@QAEHXZ:PROC		; CSoundManager::Create
EXTRN	?Destroy@CSoundManager@@QAEXXZ:PROC		; CSoundManager::Destroy
EXTRN	?LocaleService_IsYMIR@@YA_NXZ:PROC		; LocaleService_IsYMIR
EXTRN	?LocaleService_IsEUROPE@@YA_NXZ:PROC		; LocaleService_IsEUROPE
EXTRN	?DefaultFont_Startup@@YAXXZ:PROC		; DefaultFont_Startup
EXTRN	?DefaultFont_Cleanup@@YAXXZ:PROC		; DefaultFont_Cleanup
EXTRN	?ApplicationStringTable_GetStringz@@YAPBDKPBD@Z:PROC ; ApplicationStringTable_GetStringz
EXTRN	?SetEterExceptionHandler@@YAXXZ:PROC		; SetEterExceptionHandler
EXTRN	?AddCamera@CCameraManager@@QAE_NE@Z:PROC	; CCameraManager::AddCamera
EXTRN	_WebBrowser_Destroy:PROC
EXTRN	?Destroy@CMSWindow@@QAEXXZ:PROC			; CMSWindow::Destroy
EXTRN	?Create@CMSWindow@@QAE_NPBDHKKPAUHICON__@@H@Z:PROC ; CMSWindow::Create
EXTRN	?SetVisibleMode@CMSWindow@@QAEX_N@Z:PROC	; CMSWindow::SetVisibleMode
EXTRN	?SetPosition@CMSWindow@@QAEXHH@Z:PROC		; CMSWindow::SetPosition
EXTRN	?AdjustSize@CMSWindow@@QAEXHH@Z:PROC		; CMSWindow::AdjustSize
EXTRN	?IsActive@CMSWindow@@QAE_NXZ:PROC		; CMSWindow::IsActive
EXTRN	?GetMousePosition@CMSWindow@@QAEXPAUtagPOINT@@@Z:PROC ; CMSWindow::GetMousePosition
EXTRN	?GetClientRect@CMSWindow@@QAEXPAUtagRECT@@@Z:PROC ; CMSWindow::GetClientRect
EXTRN	?GetScreenWidth@CMSWindow@@QAEHXZ:PROC		; CMSWindow::GetScreenWidth
EXTRN	?GetScreenHeight@CMSWindow@@QAEHXZ:PROC		; CMSWindow::GetScreenHeight
EXTRN	?GetWindowHandle@CMSWindow@@QAEPAUHWND__@@XZ:PROC ; CMSWindow::GetWindowHandle
EXTRN	?GetInstance@CMSWindow@@QAEPAUHINSTANCE__@@XZ:PROC ; CMSWindow::GetInstance
EXTRN	?OnSize@CMSWindow@@UAEXIJ@Z:PROC		; CMSWindow::OnSize
EXTRN	??0CMSApplication@@QAE@XZ:PROC			; CMSApplication::CMSApplication
EXTRN	??1CMSApplication@@UAE@XZ:PROC			; CMSApplication::~CMSApplication
EXTRN	?IsMessage@CMSApplication@@QAE_NXZ:PROC		; CMSApplication::IsMessage
EXTRN	?MessageProcess@CMSApplication@@QAE_NXZ:PROC	; CMSApplication::MessageProcess
EXTRN	??0CInputKeyboard@@QAE@XZ:PROC			; CInputKeyboard::CInputKeyboard
EXTRN	??1CInputKeyboard@@UAE@XZ:PROC			; CInputKeyboard::~CInputKeyboard
EXTRN	?InitializeKeyboard@CInputKeyboard@@QAE_NPAUHWND__@@@Z:PROC ; CInputKeyboard::InitializeKeyboard
EXTRN	?UpdateKeyboard@CInputKeyboard@@QAEXXZ:PROC	; CInputKeyboard::UpdateKeyboard
EXTRN	?SetRenderState@CStateManager@@QAEXW4_D3DRENDERSTATETYPE@@K@Z:PROC ; CStateManager::SetRenderState
EXTRN	??0CGraphicDevice@@QAE@XZ:PROC			; CGraphicDevice::CGraphicDevice
EXTRN	??1CGraphicDevice@@UAE@XZ:PROC			; CGraphicDevice::~CGraphicDevice
EXTRN	?InitBackBufferCount@CGraphicDevice@@QAEXI@Z:PROC ; CGraphicDevice::InitBackBufferCount
EXTRN	?Destroy@CGraphicDevice@@QAEXXZ:PROC		; CGraphicDevice::Destroy
EXTRN	?Create@CGraphicDevice@@QAEHPAUHWND__@@HH_NHH@Z:PROC ; CGraphicDevice::Create
EXTRN	?GetDeviceState@CGraphicDevice@@QAE?AW4EDeviceState@1@XZ:PROC ; CGraphicDevice::GetDeviceState
EXTRN	?Reset@CGraphicDevice@@QAE_NXZ:PROC		; CGraphicDevice::Reset
EXTRN	?RegisterWarningString@CGraphicDevice@@QAEXIPBD@Z:PROC ; CGraphicDevice::RegisterWarningString
EXTRN	??0CNetworkDevice@@QAE@XZ:PROC			; CNetworkDevice::CNetworkDevice
EXTRN	??1CNetworkDevice@@UAE@XZ:PROC			; CNetworkDevice::~CNetworkDevice
EXTRN	?Create@CNetworkDevice@@QAE_NXZ:PROC		; CNetworkDevice::Create
EXTRN	??0CLightManager@@QAE@XZ:PROC			; CLightManager::CLightManager
EXTRN	??1CLightManager@@UAE@XZ:PROC			; CLightManager::~CLightManager
EXTRN	?Destroy@CLightManager@@QAEXXZ:PROC		; CLightManager::Destroy
EXTRN	?Initialize@CLightManager@@QAEXXZ:PROC		; CLightManager::Initialize
EXTRN	??0CEffectManager@@QAE@XZ:PROC			; CEffectManager::CEffectManager
EXTRN	??1CEffectManager@@UAE@XZ:PROC			; CEffectManager::~CEffectManager
EXTRN	?Destroy@CEffectManager@@QAEXXZ:PROC		; CEffectManager::Destroy
EXTRN	?UpdateSound@CEffectManager@@QAEXXZ:PROC	; CEffectManager::UpdateSound
EXTRN	?Update@CEffectManager@@QAEXXZ:PROC		; CEffectManager::Update
EXTRN	?Render@CEffectManager@@QAEXXZ:PROC		; CEffectManager::Render
EXTRN	?GetInfo@CEffectManager@@QAEXPAV?$basic_string@DU?$char_traits@D@std@@V?$allocator@D@2@@std@@@Z:PROC ; CEffectManager::GetInfo
EXTRN	??0CRaceManager@@QAE@XZ:PROC			; CRaceManager::CRaceManager
EXTRN	??1CRaceManager@@UAE@XZ:PROC			; CRaceManager::~CRaceManager
EXTRN	?Destroy@CRaceManager@@QAEXXZ:PROC		; CRaceManager::Destroy
EXTRN	??0CItemManager@@QAE@XZ:PROC			; CItemManager::CItemManager
EXTRN	??1CItemManager@@UAE@XZ:PROC			; CItemManager::~CItemManager
EXTRN	?Destroy@CItemManager@@QAEXXZ:PROC		; CItemManager::Destroy
EXTRN	?LoadItemDesc@CItemManager@@QAE_NPBD@Z:PROC	; CItemManager::LoadItemDesc
EXTRN	?LoadItemList@CItemManager@@QAE_NPBD@Z:PROC	; CItemManager::LoadItemList
EXTRN	?LoadItemTable@CItemManager@@QAE_NPBD@Z:PROC	; CItemManager::LoadItemTable
EXTRN	??0CFlyingManager@@QAE@XZ:PROC			; CFlyingManager::CFlyingManager
EXTRN	??1CFlyingManager@@UAE@XZ:PROC			; CFlyingManager::~CFlyingManager
EXTRN	?Destroy@CFlyingManager@@QAEXXZ:PROC		; CFlyingManager::Destroy
EXTRN	?Update@CFlyingManager@@QAEXXZ:PROC		; CFlyingManager::Update
EXTRN	?Render@CFlyingManager@@QAEXXZ:PROC		; CFlyingManager::Render
EXTRN	??0CGameEventManager@@QAE@XZ:PROC		; CGameEventManager::CGameEventManager
EXTRN	??1CGameEventManager@@UAE@XZ:PROC		; CGameEventManager::~CGameEventManager
EXTRN	?SetCenterPosition@CGameEventManager@@QAEXMMM@Z:PROC ; CGameEventManager::SetCenterPosition
EXTRN	?Update@CGameEventManager@@QAEXXZ:PROC		; CGameEventManager::Update
EXTRN	??0CPythonEventManager@@QAE@XZ:PROC		; CPythonEventManager::CPythonEventManager
EXTRN	??1CPythonEventManager@@UAE@XZ:PROC		; CPythonEventManager::~CPythonEventManager
EXTRN	?Destroy@CPythonEventManager@@QAEXXZ:PROC	; CPythonEventManager::Destroy
EXTRN	??0CPythonSkill@@QAE@XZ:PROC			; CPythonSkill::CPythonSkill
EXTRN	??1CPythonSkill@@UAE@XZ:PROC			; CPythonSkill::~CPythonSkill
EXTRN	?Destroy@CPythonSkill@@QAEXXZ:PROC		; CPythonSkill::Destroy
EXTRN	?RegisterSkillTable@CPythonSkill@@QAE_NPBD@Z:PROC ; CPythonSkill::RegisterSkillTable
EXTRN	?RegisterSkillDesc@CPythonSkill@@QAE_NPBD@Z:PROC ; CPythonSkill::RegisterSkillDesc
EXTRN	??0CPythonPlayer@@QAE@XZ:PROC			; CPythonPlayer::CPythonPlayer
EXTRN	??1CPythonPlayer@@UAE@XZ:PROC			; CPythonPlayer::~CPythonPlayer
EXTRN	?NEW_GetMainActorPosition@CPythonPlayer@@QAEXPAUD3DXVECTOR3@@@Z:PROC ; CPythonPlayer::NEW_GetMainActorPosition
EXTRN	?Update@CPythonPlayer@@QAEXXZ:PROC		; CPythonPlayer::Update
EXTRN	??0CPythonNonPlayer@@QAE@XZ:PROC		; CPythonNonPlayer::CPythonNonPlayer
EXTRN	??1CPythonNonPlayer@@UAE@XZ:PROC		; CPythonNonPlayer::~CPythonNonPlayer
EXTRN	?Destroy@CPythonNonPlayer@@QAEXXZ:PROC		; CPythonNonPlayer::Destroy
EXTRN	?LoadNonPlayerData@CPythonNonPlayer@@QAE_NPBD@Z:PROC ; CPythonNonPlayer::LoadNonPlayerData
EXTRN	?ReserveSoftwareTilingEnable@CMapManager@@QAEX_N@Z:PROC ; CMapManager::ReserveSoftwareTilingEnable
EXTRN	?GetHeight@CMapManager@@QAEMMM@Z:PROC		; CMapManager::GetHeight
EXTRN	?BeginEnvironment@CMapManager@@QAEXXZ:PROC	; CMapManager::BeginEnvironment
EXTRN	?EndEnvironment@CMapManager@@QAEXXZ:PROC	; CMapManager::EndEnvironment
EXTRN	??0CPythonBackground@@QAE@XZ:PROC		; CPythonBackground::CPythonBackground
EXTRN	??1CPythonBackground@@UAE@XZ:PROC		; CPythonBackground::~CPythonBackground
EXTRN	?Destroy@CPythonBackground@@QAEXXZ:PROC		; CPythonBackground::Destroy
EXTRN	?GlobalPositionToLocalPosition@CPythonBackground@@QAEXAAJ0@Z:PROC ; CPythonBackground::GlobalPositionToLocalPosition
EXTRN	?SetViewDistanceSet@CPythonBackground@@QAEXHM@Z:PROC ; CPythonBackground::SetViewDistanceSet
EXTRN	?GetFarClip@CPythonBackground@@QAEMXZ:PROC	; CPythonBackground::GetFarClip
EXTRN	?Update@CPythonBackground@@QAEXMMM@Z:PROC	; CPythonBackground::Update
EXTRN	?CreateCharacterShadowTexture@CPythonBackground@@QAEXXZ:PROC ; CPythonBackground::CreateCharacterShadowTexture
EXTRN	?ReleaseCharacterShadowTexture@CPythonBackground@@QAEXXZ:PROC ; CPythonBackground::ReleaseCharacterShadowTexture
EXTRN	?Render@CPythonBackground@@QAEXXZ:PROC		; CPythonBackground::Render
EXTRN	?RenderSnow@CPythonBackground@@QAEXXZ:PROC	; CPythonBackground::RenderSnow
EXTRN	?RenderPCBlocker@CPythonBackground@@QAEXXZ:PROC	; CPythonBackground::RenderPCBlocker
EXTRN	?RenderCharacterShadowToTexture@CPythonBackground@@QAEXXZ:PROC ; CPythonBackground::RenderCharacterShadowToTexture
EXTRN	?RenderSky@CPythonBackground@@QAEXXZ:PROC	; CPythonBackground::RenderSky
EXTRN	?RenderCloud@CPythonBackground@@QAEXXZ:PROC	; CPythonBackground::RenderCloud
EXTRN	?RenderWater@CPythonBackground@@QAEXXZ:PROC	; CPythonBackground::RenderWater
EXTRN	?RenderEffect@CPythonBackground@@QAEXXZ:PROC	; CPythonBackground::RenderEffect
EXTRN	?RenderBeforeLensFlare@CPythonBackground@@QAEXXZ:PROC ; CPythonBackground::RenderBeforeLensFlare
EXTRN	?RenderAfterLensFlare@CPythonBackground@@QAEXXZ:PROC ; CPythonBackground::RenderAfterLensFlare
EXTRN	?SetCharacterDirLight@CPythonBackground@@QAEXXZ:PROC ; CPythonBackground::SetCharacterDirLight
EXTRN	?SetBackgroundDirLight@CPythonBackground@@QAEXXZ:PROC ; CPythonBackground::SetBackgroundDirLight
EXTRN	??0CPythonMiniMap@@QAE@XZ:PROC			; CPythonMiniMap::CPythonMiniMap
EXTRN	??1CPythonMiniMap@@UAE@XZ:PROC			; CPythonMiniMap::~CPythonMiniMap
EXTRN	?Destroy@CPythonMiniMap@@QAEXXZ:PROC		; CPythonMiniMap::Destroy
EXTRN	?SetText@CIME@@QAEXPBDH@Z:PROC			; CIME::SetText
EXTRN	?UseDefaultIME@CIME@@QAEXXZ:PROC		; CIME::UseDefaultIME
EXTRN	??0CPythonIME@@QAE@XZ:PROC			; CPythonIME::CPythonIME
EXTRN	??1CPythonIME@@UAE@XZ:PROC			; CPythonIME::~CPythonIME
EXTRN	?Create@CPythonIME@@QAEXPAUHWND__@@@Z:PROC	; CPythonIME::Create
EXTRN	??0CPythonItem@@QAE@XZ:PROC			; CPythonItem::CPythonItem
EXTRN	??1CPythonItem@@UAE@XZ:PROC			; CPythonItem::~CPythonItem
EXTRN	?Destroy@CPythonItem@@QAEXXZ:PROC		; CPythonItem::Destroy
EXTRN	?Create@CPythonItem@@QAEXXZ:PROC		; CPythonItem::Create
EXTRN	?GetInfo@CPythonItem@@QAEXPAV?$basic_string@DU?$char_traits@D@std@@V?$allocator@D@2@@std@@@Z:PROC ; CPythonItem::GetInfo
EXTRN	?Render@CPythonItem@@QAEXXZ:PROC		; CPythonItem::Render
EXTRN	?Update@CPythonItem@@QAEXABUtagPOINT@@@Z:PROC	; CPythonItem::Update
EXTRN	??0CPythonShop@@QAE@XZ:PROC			; CPythonShop::CPythonShop
EXTRN	??1CPythonShop@@UAE@XZ:PROC			; CPythonShop::~CPythonShop
EXTRN	??0CPythonExchange@@QAE@XZ:PROC			; CPythonExchange::CPythonExchange
EXTRN	??1CPythonExchange@@UAE@XZ:PROC			; CPythonExchange::~CPythonExchange
EXTRN	??0CPythonChat@@QAE@XZ:PROC			; CPythonChat::CPythonChat
EXTRN	??1CPythonChat@@UAE@XZ:PROC			; CPythonChat::~CPythonChat
EXTRN	?Destroy@CPythonChat@@QAEXXZ:PROC		; CPythonChat::Destroy
EXTRN	??0CPythonTextTail@@QAE@XZ:PROC			; CPythonTextTail::CPythonTextTail
EXTRN	??1CPythonTextTail@@UAE@XZ:PROC			; CPythonTextTail::~CPythonTextTail
EXTRN	?GetInfo@CPythonTextTail@@QAEXPAV?$basic_string@DU?$char_traits@D@std@@V?$allocator@D@2@@std@@@Z:PROC ; CPythonTextTail::GetInfo
EXTRN	?Initialize@CPythonTextTail@@QAEXXZ:PROC	; CPythonTextTail::Initialize
EXTRN	?Destroy@CPythonTextTail@@QAEXXZ:PROC		; CPythonTextTail::Destroy
EXTRN	??0CPythonSystem@@QAE@XZ:PROC			; CPythonSystem::CPythonSystem
EXTRN	??1CPythonSystem@@UAE@XZ:PROC			; CPythonSystem::~CPythonSystem
EXTRN	?Clear@CPythonSystem@@QAEXXZ:PROC		; CPythonSystem::Clear
EXTRN	?SaveConfig@CPythonSystem@@QAE_NXZ:PROC		; CPythonSystem::SaveConfig
EXTRN	?SaveInterfaceStatus@CPythonSystem@@QAEXXZ:PROC	; CPythonSystem::SaveInterfaceStatus
EXTRN	?GetWidth@CPythonSystem@@QAEKXZ:PROC		; CPythonSystem::GetWidth
EXTRN	?GetHeight@CPythonSystem@@QAEKXZ:PROC		; CPythonSystem::GetHeight
EXTRN	?GetBPP@CPythonSystem@@QAEKXZ:PROC		; CPythonSystem::GetBPP
EXTRN	?GetFrequency@CPythonSystem@@QAEKXZ:PROC	; CPythonSystem::GetFrequency
EXTRN	?IsSoftwareCursor@CPythonSystem@@QAE_NXZ:PROC	; CPythonSystem::IsSoftwareCursor
EXTRN	?IsWindowed@CPythonSystem@@QAE_NXZ:PROC		; CPythonSystem::IsWindowed
EXTRN	?IsUseDefaultIME@CPythonSystem@@QAE_NXZ:PROC	; CPythonSystem::IsUseDefaultIME
EXTRN	?IsNoSoundCard@CPythonSystem@@QAE_NXZ:PROC	; CPythonSystem::IsNoSoundCard
EXTRN	?IsAutoTiling@CPythonSystem@@QAE_NXZ:PROC	; CPythonSystem::IsAutoTiling
EXTRN	?IsSoftwareTiling@CPythonSystem@@QAE_NXZ:PROC	; CPythonSystem::IsSoftwareTiling
EXTRN	?GetDisplaySettings@CPythonSystem@@QAEXXZ:PROC	; CPythonSystem::GetDisplaySettings
EXTRN	??0CNetworkStream@@QAE@XZ:PROC			; CNetworkStream::CNetworkStream
EXTRN	??1CNetworkStream@@UAE@XZ:PROC			; CNetworkStream::~CNetworkStream
EXTRN	?Process@CNetworkStream@@QAEXXZ:PROC		; CNetworkStream::Process
EXTRN	?Disconnect@CNetworkStream@@QAEXXZ:PROC		; CNetworkStream::Disconnect
EXTRN	?OnConnectSuccess@CNetworkStream@@MAEXXZ:PROC	; CNetworkStream::OnConnectSuccess
EXTRN	?OnConnectFailure@CNetworkStream@@MAEXXZ:PROC	; CNetworkStream::OnConnectFailure
EXTRN	?OnRemoteDisconnect@CNetworkStream@@MAEXXZ:PROC	; CNetworkStream::OnRemoteDisconnect
EXTRN	?OnDisconnect@CNetworkStream@@MAEXXZ:PROC	; CNetworkStream::OnDisconnect
EXTRN	?OnProcess@CNetworkStream@@MAE_NXZ:PROC		; CNetworkStream::OnProcess
EXTRN	??0CPythonNetworkStream@@QAE@XZ:PROC		; CPythonNetworkStream::CPythonNetworkStream
EXTRN	??1CPythonNetworkStream@@UAE@XZ:PROC		; CPythonNetworkStream::~CPythonNetworkStream
EXTRN	?NotifyHack@CPythonNetworkStream@@QAEXPBD@Z:PROC ; CPythonNetworkStream::NotifyHack
EXTRN	?LoadInsultList@CPythonNetworkStream@@QAE_NPBD@Z:PROC ; CPythonNetworkStream::LoadInsultList
EXTRN	?LoadConvertTable@CPythonNetworkStream@@QAE_NKPBD@Z:PROC ; CPythonNetworkStream::LoadConvertTable
EXTRN	??0CPythonCharacterManager@@QAE@XZ:PROC		; CPythonCharacterManager::CPythonCharacterManager
EXTRN	??1CPythonCharacterManager@@UAE@XZ:PROC		; CPythonCharacterManager::~CPythonCharacterManager
EXTRN	?GetInfo@CPythonCharacterManager@@QAEXPAV?$basic_string@DU?$char_traits@D@std@@V?$allocator@D@2@@std@@@Z:PROC ; CPythonCharacterManager::GetInfo
EXTRN	?Update@CPythonCharacterManager@@QAEXXZ:PROC	; CPythonCharacterManager::Update
EXTRN	?Deform@CPythonCharacterManager@@QAEXXZ:PROC	; CPythonCharacterManager::Deform
EXTRN	?Render@CPythonCharacterManager@@QAEXXZ:PROC	; CPythonCharacterManager::Render
EXTRN	??0CPythonQuest@@QAE@XZ:PROC			; CPythonQuest::CPythonQuest
EXTRN	??1CPythonQuest@@UAE@XZ:PROC			; CPythonQuest::~CPythonQuest
EXTRN	??0CPythonMessenger@@QAE@XZ:PROC		; CPythonMessenger::CPythonMessenger
EXTRN	??1CPythonMessenger@@UAE@XZ:PROC		; CPythonMessenger::~CPythonMessenger
EXTRN	??0CPythonSafeBox@@QAE@XZ:PROC			; CPythonSafeBox::CPythonSafeBox
EXTRN	??1CPythonSafeBox@@UAE@XZ:PROC			; CPythonSafeBox::~CPythonSafeBox
EXTRN	??0CPythonGuild@@QAE@XZ:PROC			; CPythonGuild::CPythonGuild
EXTRN	??1CPythonGuild@@UAE@XZ:PROC			; CPythonGuild::~CPythonGuild
EXTRN	??0CGuildMarkManager@@QAE@XZ:PROC		; CGuildMarkManager::CGuildMarkManager
EXTRN	??1CGuildMarkManager@@UAE@XZ:PROC		; CGuildMarkManager::~CGuildMarkManager
EXTRN	??0CGuildMarkDownloader@@QAE@XZ:PROC		; CGuildMarkDownloader::CGuildMarkDownloader
EXTRN	??1CGuildMarkDownloader@@UAE@XZ:PROC		; CGuildMarkDownloader::~CGuildMarkDownloader
EXTRN	?Process@CGuildMarkDownloader@@QAEXXZ:PROC	; CGuildMarkDownloader::Process
EXTRN	??_E?$CSingleton@VCGuildMarkUploader@@@@UAEPAXI@Z:PROC ; CSingleton<CGuildMarkUploader>::`vector deleting destructor'
EXTRN	??_ECGuildMarkUploader@@UAEPAXI@Z:PROC		; CGuildMarkUploader::`vector deleting destructor'
EXTRN	??0CAccountConnector@@QAE@XZ:PROC		; CAccountConnector::CAccountConnector
EXTRN	??1CAccountConnector@@UAE@XZ:PROC		; CAccountConnector::~CAccountConnector
EXTRN	?Process@CAccountConnector@@QAEXXZ:PROC		; CAccountConnector::Process
EXTRN	??0CServerStateChecker@@QAE@XZ:PROC		; CServerStateChecker::CServerStateChecker
EXTRN	??1CServerStateChecker@@UAE@XZ:PROC		; CServerStateChecker::~CServerStateChecker
EXTRN	??_E?$TAbstractSingleton@VIAbstractApplication@@@@UAEPAXI@Z:PROC ; TAbstractSingleton<IAbstractApplication>::`vector deleting destructor'
EXTRN	??_EIAbstractApplication@@UAEPAXI@Z:PROC	; IAbstractApplication::`vector deleting destructor'
EXTRN	??_E?$CSingleton@VCMovieMan@@@@UAEPAXI@Z:PROC	; CSingleton<CMovieMan>::`vector deleting destructor'
EXTRN	??_ECMovieMan@@UAEPAXI@Z:PROC			; CMovieMan::`vector deleting destructor'
EXTRN	?CreateCursors@CPythonApplication@@QAE_NXZ:PROC	; CPythonApplication::CreateCursors
EXTRN	?DestroyCursors@CPythonApplication@@QAEXXZ:PROC	; CPythonApplication::DestroyCursors
EXTRN	?SetCursorMode@CPythonApplication@@QAEXH@Z:PROC	; CPythonApplication::SetCursorMode
EXTRN	?RunIMEUpdate@CPythonApplication@@UAEXXZ:PROC	; CPythonApplication::RunIMEUpdate
EXTRN	?RunIMETabEvent@CPythonApplication@@UAEXXZ:PROC	; CPythonApplication::RunIMETabEvent
EXTRN	?RunIMEReturnEvent@CPythonApplication@@UAEXXZ:PROC ; CPythonApplication::RunIMEReturnEvent
EXTRN	?RunIMEChangeCodePage@CPythonApplication@@UAEXXZ:PROC ; CPythonApplication::RunIMEChangeCodePage
EXTRN	?RunIMEOpenCandidateListEvent@CPythonApplication@@UAEXXZ:PROC ; CPythonApplication::RunIMEOpenCandidateListEvent
EXTRN	?RunIMECloseCandidateListEvent@CPythonApplication@@UAEXXZ:PROC ; CPythonApplication::RunIMECloseCandidateListEvent
EXTRN	?RunIMEOpenReadingWndEvent@CPythonApplication@@UAEXXZ:PROC ; CPythonApplication::RunIMEOpenReadingWndEvent
EXTRN	?RunIMECloseReadingWndEvent@CPythonApplication@@UAEXXZ:PROC ; CPythonApplication::RunIMECloseReadingWndEvent
EXTRN	?SetEventCamera@CPythonApplication@@UAEXABUSCameraSetting@IAbstractApplication@@@Z:PROC ; CPythonApplication::SetEventCamera
EXTRN	?BlendEventCamera@CPythonApplication@@UAEXABUSCameraSetting@IAbstractApplication@@M@Z:PROC ; CPythonApplication::BlendEventCamera
EXTRN	?SetDefaultCamera@CPythonApplication@@UAEXXZ:PROC ; CPythonApplication::SetDefaultCamera
EXTRN	?WindowProcedure@CPythonApplication@@MAEJPAUHWND__@@IIJ@Z:PROC ; CPythonApplication::WindowProcedure
EXTRN	?OnCameraUpdate@CPythonApplication@@IAEXXZ:PROC	; CPythonApplication::OnCameraUpdate
EXTRN	?OnUIUpdate@CPythonApplication@@IAEXXZ:PROC	; CPythonApplication::OnUIUpdate
EXTRN	?OnUIRender@CPythonApplication@@IAEXXZ:PROC	; CPythonApplication::OnUIRender
EXTRN	?OnMouseUpdate@CPythonApplication@@IAEXXZ:PROC	; CPythonApplication::OnMouseUpdate
EXTRN	?OnMouseRender@CPythonApplication@@IAEXXZ:PROC	; CPythonApplication::OnMouseRender
EXTRN	?OnMouseMove@CPythonApplication@@IAEXHH@Z:PROC	; CPythonApplication::OnMouseMove
EXTRN	?OnSizeChange@CPythonApplication@@IAEXHH@Z:PROC	; CPythonApplication::OnSizeChange
EXTRN	?OnKeyDown@CPythonApplication@@MAEXH@Z:PROC	; CPythonApplication::OnKeyDown
EXTRN	?OnKeyUp@CPythonApplication@@MAEXH@Z:PROC	; CPythonApplication::OnKeyUp
EXTRN	?__UpdateCamera@CPythonApplication@@IAEXXZ:PROC	; CPythonApplication::__UpdateCamera
EXTRN	?__SetFullScreenWindow@CPythonApplication@@IAEXPAUHWND__@@KKK@Z:PROC ; CPythonApplication::__SetFullScreenWindow
EXTRN	??_ECPythonApplication@@UAEPAXI@Z:PROC		; CPythonApplication::`vector deleting destructor'
EXTRN	?GrannyCreateSharedDeformBuffer@@YAXXZ:PROC	; GrannyCreateSharedDeformBuffer
EXTRN	?GrannyDestroySharedDeformBuffer@@YAXXZ:PROC	; GrannyDestroySharedDeformBuffer
EXTRN	??_E?$CDynamicPoolEx@VCRotationDecorator@NEffectUpdateDecorator@@@@UAEPAXI@Z:PROC ; CDynamicPoolEx<NEffectUpdateDecorator::CRotationDecorator>::`vector deleting destructor'
EXTRN	??_E?$CDynamicPoolEx@VCGravityDecorator@NEffectUpdateDecorator@@@@UAEPAXI@Z:PROC ; CDynamicPoolEx<NEffectUpdateDecorator::CGravityDecorator>::`vector deleting destructor'
EXTRN	??_E?$CDynamicPoolEx@VCAirResistanceDecorator@NEffectUpdateDecorator@@@@UAEPAXI@Z:PROC ; CDynamicPoolEx<NEffectUpdateDecorator::CAirResistanceDecorator>::`vector deleting destructor'
EXTRN	??_E?$CDynamicPoolEx@VCTextureAnimationRandomDecorator@NEffectUpdateDecorator@@@@UAEPAXI@Z:PROC ; CDynamicPoolEx<NEffectUpdateDecorator::CTextureAnimationRandomDecorator>::`vector deleting destructor'
EXTRN	??_E?$CDynamicPoolEx@VCTextureAnimationCCWDecorator@NEffectUpdateDecorator@@@@UAEPAXI@Z:PROC ; CDynamicPoolEx<NEffectUpdateDecorator::CTextureAnimationCCWDecorator>::`vector deleting destructor'
EXTRN	??_E?$CDynamicPoolEx@VCTextureAnimationCWDecorator@NEffectUpdateDecorator@@@@UAEPAXI@Z:PROC ; CDynamicPoolEx<NEffectUpdateDecorator::CTextureAnimationCWDecorator>::`vector deleting destructor'
EXTRN	??_E?$CDynamicPoolEx@VCNullDecorator@NEffectUpdateDecorator@@@@UAEPAXI@Z:PROC ; CDynamicPoolEx<NEffectUpdateDecorator::CNullDecorator>::`vector deleting destructor'
EXTRN	??_E?$CDynamicPoolEx@VCHeaderDecorator@NEffectUpdateDecorator@@@@UAEPAXI@Z:PROC ; CDynamicPoolEx<NEffectUpdateDecorator::CHeaderDecorator>::`vector deleting destructor'
EXTRN	@__security_check_cookie@4:PROC
EXTRN	__CxxThrowException@8:PROC
EXTRN	___CxxFrameHandler3:PROC
EXTRN	__ftoui3:PROC
EXTRN	__Init_thread_epoch:DWORD
EXTRN	??_7type_info@@6B@:QWORD			; type_info::`vftable'
EXTRN	__imp__PyExc_RuntimeError:DWORD
EXTRN	?GRAPHICS_CAPS_SOFTWARE_TILING@@3_NA:BYTE	; GRAPHICS_CAPS_SOFTWARE_TILING
EXTRN	___security_cookie:DWORD
EXTRN	__fltused:DWORD
EXTRN	__tls_array:DWORD
EXTRN	__tls_index:DWORD
;	COMDAT ?_OptionsStorage@?1??__local_stdio_printf_options@@9@4_KA
_BSS	SEGMENT
?_OptionsStorage@?1??__local_stdio_printf_options@@9@4_KA DQ 01H DUP (?) ; `__local_stdio_printf_options'::`2'::_OptionsStorage
_BSS	ENDS
;	COMDAT ?ms_singleton@?$CSingleton@VCTimer@@@@0PAVCTimer@@A
_BSS	SEGMENT
?ms_singleton@?$CSingleton@VCTimer@@@@0PAVCTimer@@A DD 01H DUP (?) ; CSingleton<CTimer>::ms_singleton
_BSS	ENDS
;	COMDAT ?ms_singleton@?$CSingleton@VCResourceManager@@@@0PAVCResourceManager@@A
_BSS	SEGMENT
?ms_singleton@?$CSingleton@VCResourceManager@@@@0PAVCResourceManager@@A DD 01H DUP (?) ; CSingleton<CResourceManager>::ms_singleton
_BSS	ENDS
;	COMDAT ?ms_singleton@?$CSingleton@VCCullingManager@@@@0PAVCCullingManager@@A
_BSS	SEGMENT
?ms_singleton@?$CSingleton@VCCullingManager@@@@0PAVCCullingManager@@A DD 01H DUP (?) ; CSingleton<CCullingManager>::ms_singleton
_BSS	ENDS
;	COMDAT ?ms_singleton@?$CSingleton@VCWindowManager@UI@@@@0PAVCWindowManager@UI@@A
_BSS	SEGMENT
?ms_singleton@?$CSingleton@VCWindowManager@UI@@@@0PAVCWindowManager@UI@@A DD 01H DUP (?) ; CSingleton<UI::CWindowManager>::ms_singleton
_BSS	ENDS
;	COMDAT ?ms_singleton@?$CSingleton@VCCameraManager@@@@0PAVCCameraManager@@A
_BSS	SEGMENT
?ms_singleton@?$CSingleton@VCCameraManager@@@@0PAVCCameraManager@@A DD 01H DUP (?) ; CSingleton<CCameraManager>::ms_singleton
_BSS	ENDS
;	COMDAT ?ms_singleton@?$CSingleton@VCStateManager@@@@0PAVCStateManager@@A
_BSS	SEGMENT
?ms_singleton@?$CSingleton@VCStateManager@@@@0PAVCStateManager@@A DD 01H DUP (?) ; CSingleton<CStateManager>::ms_singleton
_BSS	ENDS
;	COMDAT ?ms_kPool@?$CPooledObject@VCHeaderDecorator@NEffectUpdateDecorator@@@@1V?$CDynamicPoolEx@VCHeaderDecorator@NEffectUpdateDecorator@@@@A
_BSS	SEGMENT
?ms_kPool@?$CPooledObject@VCHeaderDecorator@NEffectUpdateDecorator@@@@1V?$CDynamicPoolEx@VCHeaderDecorator@NEffectUpdateDecorator@@@@A DB 024H DUP (?) ; CPooledObject<NEffectUpdateDecorator::CHeaderDecorator>::ms_kPool
_BSS	ENDS
;	COMDAT ?ms_kPool@?$CPooledObject@VCNullDecorator@NEffectUpdateDecorator@@@@1V?$CDynamicPoolEx@VCNullDecorator@NEffectUpdateDecorator@@@@A
_BSS	SEGMENT
?ms_kPool@?$CPooledObject@VCNullDecorator@NEffectUpdateDecorator@@@@1V?$CDynamicPoolEx@VCNullDecorator@NEffectUpdateDecorator@@@@A DB 024H DUP (?) ; CPooledObject<NEffectUpdateDecorator::CNullDecorator>::ms_kPool
_BSS	ENDS
;	COMDAT ?ms_kPool@?$CPooledObject@VCTextureAnimationCWDecorator@NEffectUpdateDecorator@@@@1V?$CDynamicPoolEx@VCTextureAnimationCWDecorator@NEffectUpdateDecorator@@@@A
_BSS	SEGMENT
?ms_kPool@?$CPooledObject@VCTextureAnimationCWDecorator@NEffectUpdateDecorator@@@@1V?$CDynamicPoolEx@VCTextureAnimationCWDecorator@NEffectUpdateDecorator@@@@A DB 024H DUP (?) ; CPooledObject<NEffectUpdateDecorator::CTextureAnimationCWDecorator>::ms_kPool
_BSS	ENDS
;	COMDAT ?ms_kPool@?$CPooledObject@VCTextureAnimationCCWDecorator@NEffectUpdateDecorator@@@@1V?$CDynamicPoolEx@VCTextureAnimationCCWDecorator@NEffectUpdateDecorator@@@@A
_BSS	SEGMENT
?ms_kPool@?$CPooledObject@VCTextureAnimationCCWDecorator@NEffectUpdateDecorator@@@@1V?$CDynamicPoolEx@VCTextureAnimationCCWDecorator@NEffectUpdateDecorator@@@@A DB 024H DUP (?) ; CPooledObject<NEffectUpdateDecorator::CTextureAnimationCCWDecorator>::ms_kPool
_BSS	ENDS
;	COMDAT ?ms_kPool@?$CPooledObject@VCTextureAnimationRandomDecorator@NEffectUpdateDecorator@@@@1V?$CDynamicPoolEx@VCTextureAnimationRandomDecorator@NEffectUpdateDecorator@@@@A
_BSS	SEGMENT
?ms_kPool@?$CPooledObject@VCTextureAnimationRandomDecorator@NEffectUpdateDecorator@@@@1V?$CDynamicPoolEx@VCTextureAnimationRandomDecorator@NEffectUpdateDecorator@@@@A DB 024H DUP (?) ; CPooledObject<NEffectUpdateDecorator::CTextureAnimationRandomDecorator>::ms_kPool
_BSS	ENDS
;	COMDAT ?ms_kPool@?$CPooledObject@VCAirResistanceDecorator@NEffectUpdateDecorator@@@@1V?$CDynamicPoolEx@VCAirResistanceDecorator@NEffectUpdateDecorator@@@@A
_BSS	SEGMENT
?ms_kPool@?$CPooledObject@VCAirResistanceDecorator@NEffectUpdateDecorator@@@@1V?$CDynamicPoolEx@VCAirResistanceDecorator@NEffectUpdateDecorator@@@@A DB 024H DUP (?) ; CPooledObject<NEffectUpdateDecorator::CAirResistanceDecorator>::ms_kPool
_BSS	ENDS
;	COMDAT ?ms_kPool@?$CPooledObject@VCGravityDecorator@NEffectUpdateDecorator@@@@1V?$CDynamicPoolEx@VCGravityDecorator@NEffectUpdateDecorator@@@@A
_BSS	SEGMENT
?ms_kPool@?$CPooledObject@VCGravityDecorator@NEffectUpdateDecorator@@@@1V?$CDynamicPoolEx@VCGravityDecorator@NEffectUpdateDecorator@@@@A DB 024H DUP (?) ; CPooledObject<NEffectUpdateDecorator::CGravityDecorator>::ms_kPool
_BSS	ENDS
;	COMDAT ?ms_kPool@?$CPooledObject@VCRotationDecorator@NEffectUpdateDecorator@@@@1V?$CDynamicPoolEx@VCRotationDecorator@NEffectUpdateDecorator@@@@A
_BSS	SEGMENT
?ms_kPool@?$CPooledObject@VCRotationDecorator@NEffectUpdateDecorator@@@@1V?$CDynamicPoolEx@VCRotationDecorator@NEffectUpdateDecorator@@@@A DB 024H DUP (?) ; CPooledObject<NEffectUpdateDecorator::CRotationDecorator>::ms_kPool
_BSS	ENDS
;	COMDAT ?ms_singleton@?$CSingleton@VCItemManager@@@@0PAVCItemManager@@A
_BSS	SEGMENT
?ms_singleton@?$CSingleton@VCItemManager@@@@0PAVCItemManager@@A DD 01H DUP (?) ; CSingleton<CItemManager>::ms_singleton
_BSS	ENDS
;	COMDAT ?ms_singleton@?$CSingleton@VCPythonSkill@@@@0PAVCPythonSkill@@A
_BSS	SEGMENT
?ms_singleton@?$CSingleton@VCPythonSkill@@@@0PAVCPythonSkill@@A DD 01H DUP (?) ; CSingleton<CPythonSkill>::ms_singleton
_BSS	ENDS
;	COMDAT ?ms_singleton@?$CSingleton@VCPythonNonPlayer@@@@0PAVCPythonNonPlayer@@A
_BSS	SEGMENT
?ms_singleton@?$CSingleton@VCPythonNonPlayer@@@@0PAVCPythonNonPlayer@@A DD 01H DUP (?) ; CSingleton<CPythonNonPlayer>::ms_singleton
_BSS	ENDS
;	COMDAT ?ms_singleton@?$CSingleton@VCPythonBackground@@@@0PAVCPythonBackground@@A
_BSS	SEGMENT
?ms_singleton@?$CSingleton@VCPythonBackground@@@@0PAVCPythonBackground@@A DD 01H DUP (?) ; CSingleton<CPythonBackground>::ms_singleton
_BSS	ENDS
;	COMDAT ?ms_singleton@?$CSingleton@VCPythonIME@@@@0PAVCPythonIME@@A
_BSS	SEGMENT
?ms_singleton@?$CSingleton@VCPythonIME@@@@0PAVCPythonIME@@A DD 01H DUP (?) ; CSingleton<CPythonIME>::ms_singleton
_BSS	ENDS
;	COMDAT ?ms_singleton@?$CSingleton@VCPythonTextTail@@@@0PAVCPythonTextTail@@A
_BSS	SEGMENT
?ms_singleton@?$CSingleton@VCPythonTextTail@@@@0PAVCPythonTextTail@@A DD 01H DUP (?) ; CSingleton<CPythonTextTail>::ms_singleton
_BSS	ENDS
;	COMDAT ?ms_singleton@?$CSingleton@VCPythonSystem@@@@0PAVCPythonSystem@@A
_BSS	SEGMENT
?ms_singleton@?$CSingleton@VCPythonSystem@@@@0PAVCPythonSystem@@A DD 01H DUP (?) ; CSingleton<CPythonSystem>::ms_singleton
_BSS	ENDS
;	COMDAT ?ms_singleton@?$CSingleton@VCPythonNetworkStream@@@@0PAVCPythonNetworkStream@@A
_BSS	SEGMENT
?ms_singleton@?$CSingleton@VCPythonNetworkStream@@@@0PAVCPythonNetworkStream@@A DD 01H DUP (?) ; CSingleton<CPythonNetworkStream>::ms_singleton
_BSS	ENDS
;	COMDAT ?ms_singleton@?$CSingleton@VCGuildMarkUploader@@@@0PAVCGuildMarkUploader@@A
_BSS	SEGMENT
?ms_singleton@?$CSingleton@VCGuildMarkUploader@@@@0PAVCGuildMarkUploader@@A DD 01H DUP (?) ; CSingleton<CGuildMarkUploader>::ms_singleton
_BSS	ENDS
;	COMDAT ?ms_singleton@?$TAbstractSingleton@VIAbstractApplication@@@@0PAVIAbstractApplication@@A
_BSS	SEGMENT
?ms_singleton@?$TAbstractSingleton@VIAbstractApplication@@@@0PAVIAbstractApplication@@A DD 01H DUP (?) ; TAbstractSingleton<IAbstractApplication>::ms_singleton
_BSS	ENDS
;	COMDAT ?ms_singleton@?$CSingleton@VCMovieMan@@@@0PAVCMovieMan@@A
_BSS	SEGMENT
?ms_singleton@?$CSingleton@VCMovieMan@@@@0PAVCMovieMan@@A DD 01H DUP (?) ; CSingleton<CMovieMan>::ms_singleton
_BSS	ENDS
;	COMDAT ?fp@?1??RenderGame@CPythonApplication@@QAEXXZ@4PAU_iobuf@@A
_BSS	SEGMENT
?fp@?1??RenderGame@CPythonApplication@@QAEXXZ@4PAU_iobuf@@A DD 01H DUP (?) ; `CPythonApplication::RenderGame'::`2'::fp
_BSS	ENDS
;	COMDAT ?$TSS0@?1??RenderGame@CPythonApplication@@QAEXXZ@4HA
_BSS	SEGMENT
?$TSS0@?1??RenderGame@CPythonApplication@@QAEXXZ@4HA DD 01H DUP (?) ; `CPythonApplication::RenderGame'::`2'::$TSS0
_BSS	ENDS
;	COMDAT ?fp@?8??UpdateGame@CPythonApplication@@QAEXXZ@4PAU_iobuf@@A
_BSS	SEGMENT
?fp@?8??UpdateGame@CPythonApplication@@QAEXXZ@4PAU_iobuf@@A DD 01H DUP (?) ; `CPythonApplication::UpdateGame'::`9'::fp
_BSS	ENDS
;	COMDAT ?$TSS0@?8??UpdateGame@CPythonApplication@@QAEXXZ@4HA
_BSS	SEGMENT
?$TSS0@?8??UpdateGame@CPythonApplication@@QAEXXZ@4HA DD 01H DUP (?) ; `CPythonApplication::UpdateGame'::`9'::$TSS0
_BSS	ENDS
;	COMDAT ?s_dwUpdateFrameCount@?1??Process@CPythonApplication@@QAE_NXZ@4KA
_BSS	SEGMENT
?s_dwUpdateFrameCount@?1??Process@CPythonApplication@@QAE_NXZ@4KA DD 01H DUP (?) ; `CPythonApplication::Process'::`2'::s_dwUpdateFrameCount
_BSS	ENDS
;	COMDAT ?s_dwRenderFrameCount@?1??Process@CPythonApplication@@QAE_NXZ@4KA
_BSS	SEGMENT
?s_dwRenderFrameCount@?1??Process@CPythonApplication@@QAE_NXZ@4KA DD 01H DUP (?) ; `CPythonApplication::Process'::`2'::s_dwRenderFrameCount
_BSS	ENDS
;	COMDAT ?s_dwFaceCount@?1??Process@CPythonApplication@@QAE_NXZ@4KA
_BSS	SEGMENT
?s_dwFaceCount@?1??Process@CPythonApplication@@QAE_NXZ@4KA DD 01H DUP (?) ; `CPythonApplication::Process'::`2'::s_dwFaceCount
_BSS	ENDS
;	COMDAT ?s_uiLoad@?1??Process@CPythonApplication@@QAE_NXZ@4IA
_BSS	SEGMENT
?s_uiLoad@?1??Process@CPythonApplication@@QAE_NXZ@4IA DD 01H DUP (?) ; `CPythonApplication::Process'::`2'::s_uiLoad
_BSS	ENDS
;	COMDAT ?s_dwCheckTime@?1??Process@CPythonApplication@@QAE_NXZ@4KA
_BSS	SEGMENT
?s_dwCheckTime@?1??Process@CPythonApplication@@QAE_NXZ@4KA DD 01H DUP (?) ; `CPythonApplication::Process'::`2'::s_dwCheckTime
_BSS	ENDS
;	COMDAT ?$TSS0@?1??Process@CPythonApplication@@QAE_NXZ@4HA
_BSS	SEGMENT
?$TSS0@?1??Process@CPythonApplication@@QAE_NXZ@4HA DD 01H DUP (?) ; `CPythonApplication::Process'::`2'::$TSS0
_BSS	ENDS
;	COMDAT ?s_bFrameSkip@?1??Process@CPythonApplication@@QAE_NXZ@4HA
_BSS	SEGMENT
?s_bFrameSkip@?1??Process@CPythonApplication@@QAE_NXZ@4HA DD 01H DUP (?) ; `CPythonApplication::Process'::`2'::s_bFrameSkip
_BSS	ENDS
;	COMDAT ?s_uiNextFrameTime@?1??Process@CPythonApplication@@QAE_NXZ@4IA
_BSS	SEGMENT
?s_uiNextFrameTime@?1??Process@CPythonApplication@@QAE_NXZ@4IA DD 01H DUP (?) ; `CPythonApplication::Process'::`2'::s_uiNextFrameTime
_BSS	ENDS
;	COMDAT ?$TSS1@?1??Process@CPythonApplication@@QAE_NXZ@4HA
_BSS	SEGMENT
?$TSS1@?1??Process@CPythonApplication@@QAE_NXZ@4HA DD 01H DUP (?) ; `CPythonApplication::Process'::`2'::$TSS1
_BSS	ENDS
;	COMDAT ?s_dwRenderCheckTime@?CJ@??Process@CPythonApplication@@QAE_NXZ@4KA
_BSS	SEGMENT
?s_dwRenderCheckTime@?CJ@??Process@CPythonApplication@@QAE_NXZ@4KA DD 01H DUP (?) ; `CPythonApplication::Process'::`41'::s_dwRenderCheckTime
_BSS	ENDS
;	COMDAT ?$TSS2@?CJ@??Process@CPythonApplication@@QAE_NXZ@4HA
_BSS	SEGMENT
?$TSS2@?CJ@??Process@CPythonApplication@@QAE_NXZ@4HA DD 01H DUP (?) ; `CPythonApplication::Process'::`41'::$TSS2
_BSS	ENDS
;	COMDAT ?s_dwRenderRangeTime@?CJ@??Process@CPythonApplication@@QAE_NXZ@4KA
_BSS	SEGMENT
?s_dwRenderRangeTime@?CJ@??Process@CPythonApplication@@QAE_NXZ@4KA DD 01H DUP (?) ; `CPythonApplication::Process'::`41'::s_dwRenderRangeTime
_BSS	ENDS
;	COMDAT ?s_dwRenderRangeFrame@?CJ@??Process@CPythonApplication@@QAE_NXZ@4KA
_BSS	SEGMENT
?s_dwRenderRangeFrame@?CJ@??Process@CPythonApplication@@QAE_NXZ@4KA DD 01H DUP (?) ; `CPythonApplication::Process'::`41'::s_dwRenderRangeFrame
_BSS	ENDS
;	COMDAT ?s_fBufRenderTime@?DC@??Process@CPythonApplication@@QAE_NXZ@4MA
_BSS	SEGMENT
?s_fBufRenderTime@?DC@??Process@CPythonApplication@@QAE_NXZ@4MA DD 01H DUP (?) ; `CPythonApplication::Process'::`50'::s_fBufRenderTime
_BSS	ENDS
;	COMDAT CRT$XCU
CRT$XCU	SEGMENT
??ms_kPool$initializer$@?$CPooledObject@VCHeaderDecorator@NEffectUpdateDecorator@@@@1P6AXXZA@@3P6AXXZA DD FLAT:??__E?ms_kPool@?$CPooledObject@VCHeaderDecorator@NEffectUpdateDecorator@@@@1V?$CDynamicPoolEx@VCHeaderDecorator@NEffectUpdateDecorator@@@@A@@YAXXZ ; ??ms_kPool$initializer$@?$CPooledObject@VCHeaderDecorator@NEffectUpdateDecorator@@@@1P6AXXZA@@3P6AXXZA
CRT$XCU	ENDS
;	COMDAT __xmm@80000000800000008000000080000000
CONST	SEGMENT
__xmm@80000000800000008000000080000000 DB 00H, 00H, 00H, 080H, 00H, 00H, 00H
	DB	080H, 00H, 00H, 00H, 080H, 00H, 00H, 00H, 080H
CONST	ENDS
;	COMDAT __xmm@41f00000000000000000000000000000
CONST	SEGMENT
__xmm@41f00000000000000000000000000000 DB 00H, 00H, 00H, 00H, 00H, 00H, 00H
	DB	00H, 00H, 00H, 00H, 00H, 00H, 00H, 0f0H, 'A'
CONST	ENDS
;	COMDAT __real@46c80000
CONST	SEGMENT
__real@46c80000 DD 046c80000r			; 25600
CONST	ENDS
;	COMDAT __real@447a0000
CONST	SEGMENT
__real@447a0000 DD 0447a0000r			; 1000
CONST	ENDS
;	COMDAT __real@42c80000
CONST	SEGMENT
__real@42c80000 DD 042c80000r			; 100
CONST	ENDS
;	COMDAT __real@41f00000
CONST	SEGMENT
__real@41f00000 DD 041f00000r			; 30
CONST	ENDS
;	COMDAT __real@41800000
CONST	SEGMENT
__real@41800000 DD 041800000r			; 16
CONST	ENDS
;	COMDAT __real@40a00000
CONST	SEGMENT
__real@40a00000 DD 040a00000r			; 5
CONST	ENDS
;	COMDAT __real@404e000000000000
CONST	SEGMENT
__real@404e000000000000 DQ 0404e000000000000r	; 60
CONST	ENDS
;	COMDAT __real@3f000000
CONST	SEGMENT
__real@3f000000 DD 03f000000r			; 0.5
CONST	ENDS
;	COMDAT __real@3e99999a
CONST	SEGMENT
__real@3e99999a DD 03e99999ar			; 0.3
CONST	ENDS
;	COMDAT ??_R4CPythonApplication@@6BIAbstractApplication@@@
rdata$r	SEGMENT
??_R4CPythonApplication@@6BIAbstractApplication@@@ DD 00H ; CPythonApplication::`RTTI Complete Object Locator'
	DD	020H
	DD	00H
	DD	FLAT:??_R0?AVCPythonApplication@@@8
	DD	FLAT:??_R3CPythonApplication@@8
rdata$r	ENDS
;	COMDAT ??_R4CPythonApplication@@6BCInputKeyboard@@@
rdata$r	SEGMENT
??_R4CPythonApplication@@6BCInputKeyboard@@@ DD 00H	; CPythonApplication::`RTTI Complete Object Locator'
	DD	01cH
	DD	00H
	DD	FLAT:??_R0?AVCPythonApplication@@@8
	DD	FLAT:??_R3CPythonApplication@@8
rdata$r	ENDS
;	COMDAT ??_R1CA@?0A@EA@?$TAbstractSingleton@VIAbstractApplication@@@@8
rdata$r	SEGMENT
??_R1CA@?0A@EA@?$TAbstractSingleton@VIAbstractApplication@@@@8 DD FLAT:??_R0?AV?$TAbstractSingleton@VIAbstractApplication@@@@@8 ; TAbstractSingleton<IAbstractApplication>::`RTTI Base Class Descriptor at (32,-1,0,64)'
	DD	00H
	DD	020H
	DD	0ffffffffH
	DD	00H
	DD	040H
	DD	FLAT:??_R3?$TAbstractSingleton@VIAbstractApplication@@@@8
rdata$r	ENDS
;	COMDAT ??_R1CA@?0A@EA@IAbstractApplication@@8
rdata$r	SEGMENT
??_R1CA@?0A@EA@IAbstractApplication@@8 DD FLAT:??_R0?AVIAbstractApplication@@@8 ; IAbstractApplication::`RTTI Base Class Descriptor at (32,-1,0,64)'
	DD	01H
	DD	020H
	DD	0ffffffffH
	DD	00H
	DD	040H
	DD	FLAT:??_R3IAbstractApplication@@8
rdata$r	ENDS
;	COMDAT ??_R1BM@?0A@EA@CInputDevice@@8
rdata$r	SEGMENT
??_R1BM@?0A@EA@CInputDevice@@8 DD FLAT:??_R0?AVCInputDevice@@@8 ; CInputDevice::`RTTI Base Class Descriptor at (28,-1,0,64)'
	DD	00H
	DD	01cH
	DD	0ffffffffH
	DD	00H
	DD	040H
	DD	FLAT:??_R3CInputDevice@@8
rdata$r	ENDS
;	COMDAT ??_R2CInputDevice@@8
rdata$r	SEGMENT
??_R2CInputDevice@@8 DD FLAT:??_R1A@?0A@EA@CInputDevice@@8 ; CInputDevice::`RTTI Base Class Array'
rdata$r	ENDS
;	COMDAT ??_R3CInputDevice@@8
rdata$r	SEGMENT
??_R3CInputDevice@@8 DD 00H				; CInputDevice::`RTTI Class Hierarchy Descriptor'
	DD	00H
	DD	01H
	DD	FLAT:??_R2CInputDevice@@8
rdata$r	ENDS
;	COMDAT ??_R0?AVCInputDevice@@@8
data$rs	SEGMENT
??_R0?AVCInputDevice@@@8 DD FLAT:??_7type_info@@6B@	; CInputDevice `RTTI Type Descriptor'
	DD	00H
	DB	'.?AVCInputDevice@@', 00H
data$rs	ENDS
;	COMDAT ??_R1A@?0A@EA@CInputDevice@@8
rdata$r	SEGMENT
??_R1A@?0A@EA@CInputDevice@@8 DD FLAT:??_R0?AVCInputDevice@@@8 ; CInputDevice::`RTTI Base Class Descriptor at (0,-1,0,64)'
	DD	00H
	DD	00H
	DD	0ffffffffH
	DD	00H
	DD	040H
	DD	FLAT:??_R3CInputDevice@@8
rdata$r	ENDS
;	COMDAT ??_R1A@?0A@EA@CInputKeyboard@@8
rdata$r	SEGMENT
??_R1A@?0A@EA@CInputKeyboard@@8 DD FLAT:??_R0?AVCInputKeyboard@@@8 ; CInputKeyboard::`RTTI Base Class Descriptor at (0,-1,0,64)'
	DD	01H
	DD	00H
	DD	0ffffffffH
	DD	00H
	DD	040H
	DD	FLAT:??_R3CInputKeyboard@@8
rdata$r	ENDS
;	COMDAT ??_R2CInputKeyboard@@8
rdata$r	SEGMENT
??_R2CInputKeyboard@@8 DD FLAT:??_R1A@?0A@EA@CInputKeyboard@@8 ; CInputKeyboard::`RTTI Base Class Array'
	DD	FLAT:??_R1A@?0A@EA@CInputDevice@@8
rdata$r	ENDS
;	COMDAT ??_R3CInputKeyboard@@8
rdata$r	SEGMENT
??_R3CInputKeyboard@@8 DD 00H				; CInputKeyboard::`RTTI Class Hierarchy Descriptor'
	DD	00H
	DD	02H
	DD	FLAT:??_R2CInputKeyboard@@8
rdata$r	ENDS
;	COMDAT ??_R0?AVCInputKeyboard@@@8
data$rs	SEGMENT
??_R0?AVCInputKeyboard@@@8 DD FLAT:??_7type_info@@6B@	; CInputKeyboard `RTTI Type Descriptor'
	DD	00H
	DB	'.?AVCInputKeyboard@@', 00H
data$rs	ENDS
;	COMDAT ??_R1BM@?0A@EA@CInputKeyboard@@8
rdata$r	SEGMENT
??_R1BM@?0A@EA@CInputKeyboard@@8 DD FLAT:??_R0?AVCInputKeyboard@@@8 ; CInputKeyboard::`RTTI Base Class Descriptor at (28,-1,0,64)'
	DD	01H
	DD	01cH
	DD	0ffffffffH
	DD	00H
	DD	040H
	DD	FLAT:??_R3CInputKeyboard@@8
rdata$r	ENDS
;	COMDAT ??_R2CMSWindow@@8
rdata$r	SEGMENT
??_R2CMSWindow@@8 DD FLAT:??_R1A@?0A@EA@CMSWindow@@8	; CMSWindow::`RTTI Base Class Array'
rdata$r	ENDS
;	COMDAT ??_R3CMSWindow@@8
rdata$r	SEGMENT
??_R3CMSWindow@@8 DD 00H				; CMSWindow::`RTTI Class Hierarchy Descriptor'
	DD	00H
	DD	01H
	DD	FLAT:??_R2CMSWindow@@8
rdata$r	ENDS
;	COMDAT ??_R0?AVCMSWindow@@@8
data$rs	SEGMENT
??_R0?AVCMSWindow@@@8 DD FLAT:??_7type_info@@6B@	; CMSWindow `RTTI Type Descriptor'
	DD	00H
	DB	'.?AVCMSWindow@@', 00H
data$rs	ENDS
;	COMDAT ??_R1A@?0A@EA@CMSWindow@@8
rdata$r	SEGMENT
??_R1A@?0A@EA@CMSWindow@@8 DD FLAT:??_R0?AVCMSWindow@@@8 ; CMSWindow::`RTTI Base Class Descriptor at (0,-1,0,64)'
	DD	00H
	DD	00H
	DD	0ffffffffH
	DD	00H
	DD	040H
	DD	FLAT:??_R3CMSWindow@@8
rdata$r	ENDS
;	COMDAT ??_R2CMSApplication@@8
rdata$r	SEGMENT
??_R2CMSApplication@@8 DD FLAT:??_R1A@?0A@EA@CMSApplication@@8 ; CMSApplication::`RTTI Base Class Array'
	DD	FLAT:??_R1A@?0A@EA@CMSWindow@@8
rdata$r	ENDS
;	COMDAT ??_R3CMSApplication@@8
rdata$r	SEGMENT
??_R3CMSApplication@@8 DD 00H				; CMSApplication::`RTTI Class Hierarchy Descriptor'
	DD	00H
	DD	02H
	DD	FLAT:??_R2CMSApplication@@8
rdata$r	ENDS
;	COMDAT ??_R0?AVCMSApplication@@@8
data$rs	SEGMENT
??_R0?AVCMSApplication@@@8 DD FLAT:??_7type_info@@6B@	; CMSApplication `RTTI Type Descriptor'
	DD	00H
	DB	'.?AVCMSApplication@@', 00H
data$rs	ENDS
;	COMDAT ??_R1A@?0A@EA@CMSApplication@@8
rdata$r	SEGMENT
??_R1A@?0A@EA@CMSApplication@@8 DD FLAT:??_R0?AVCMSApplication@@@8 ; CMSApplication::`RTTI Base Class Descriptor at (0,-1,0,64)'
	DD	01H
	DD	00H
	DD	0ffffffffH
	DD	00H
	DD	040H
	DD	FLAT:??_R3CMSApplication@@8
rdata$r	ENDS
;	COMDAT ??_R1A@?0A@EA@CPythonApplication@@8
rdata$r	SEGMENT
??_R1A@?0A@EA@CPythonApplication@@8 DD FLAT:??_R0?AVCPythonApplication@@@8 ; CPythonApplication::`RTTI Base Class Descriptor at (0,-1,0,64)'
	DD	06H
	DD	00H
	DD	0ffffffffH
	DD	00H
	DD	040H
	DD	FLAT:??_R3CPythonApplication@@8
rdata$r	ENDS
;	COMDAT ??_R2CPythonApplication@@8
rdata$r	SEGMENT
??_R2CPythonApplication@@8 DD FLAT:??_R1A@?0A@EA@CPythonApplication@@8 ; CPythonApplication::`RTTI Base Class Array'
	DD	FLAT:??_R1A@?0A@EA@CMSApplication@@8
	DD	FLAT:??_R1A@?0A@EA@CMSWindow@@8
	DD	FLAT:??_R1BM@?0A@EA@CInputKeyboard@@8
	DD	FLAT:??_R1BM@?0A@EA@CInputDevice@@8
	DD	FLAT:??_R1CA@?0A@EA@IAbstractApplication@@8
	DD	FLAT:??_R1CA@?0A@EA@?$TAbstractSingleton@VIAbstractApplication@@@@8
rdata$r	ENDS
;	COMDAT ??_R3CPythonApplication@@8
rdata$r	SEGMENT
??_R3CPythonApplication@@8 DD 00H			; CPythonApplication::`RTTI Class Hierarchy Descriptor'
	DD	01H
	DD	07H
	DD	FLAT:??_R2CPythonApplication@@8
rdata$r	ENDS
;	COMDAT ??_R0?AVCPythonApplication@@@8
data$rs	SEGMENT
??_R0?AVCPythonApplication@@@8 DD FLAT:??_7type_info@@6B@ ; CPythonApplication `RTTI Type Descriptor'
	DD	00H
	DB	'.?AVCPythonApplication@@', 00H
data$rs	ENDS
;	COMDAT ??_R4CPythonApplication@@6BCMSApplication@@@
rdata$r	SEGMENT
??_R4CPythonApplication@@6BCMSApplication@@@ DD 00H	; CPythonApplication::`RTTI Complete Object Locator'
	DD	00H
	DD	00H
	DD	FLAT:??_R0?AVCPythonApplication@@@8
	DD	FLAT:??_R3CPythonApplication@@8
rdata$r	ENDS
;	COMDAT ??_R4?$CSingleton@VCMovieMan@@@@6B@
rdata$r	SEGMENT
??_R4?$CSingleton@VCMovieMan@@@@6B@ DD 00H		; CSingleton<CMovieMan>::`RTTI Complete Object Locator'
	DD	00H
	DD	00H
	DD	FLAT:??_R0?AV?$CSingleton@VCMovieMan@@@@@8
	DD	FLAT:??_R3?$CSingleton@VCMovieMan@@@@8
rdata$r	ENDS
;	COMDAT ??_R2?$CSingleton@VCMovieMan@@@@8
rdata$r	SEGMENT
??_R2?$CSingleton@VCMovieMan@@@@8 DD FLAT:??_R1A@?0A@EA@?$CSingleton@VCMovieMan@@@@8 ; CSingleton<CMovieMan>::`RTTI Base Class Array'
rdata$r	ENDS
;	COMDAT ??_R3?$CSingleton@VCMovieMan@@@@8
rdata$r	SEGMENT
??_R3?$CSingleton@VCMovieMan@@@@8 DD 00H		; CSingleton<CMovieMan>::`RTTI Class Hierarchy Descriptor'
	DD	00H
	DD	01H
	DD	FLAT:??_R2?$CSingleton@VCMovieMan@@@@8
rdata$r	ENDS
;	COMDAT ??_R0?AV?$CSingleton@VCMovieMan@@@@@8
data$rs	SEGMENT
??_R0?AV?$CSingleton@VCMovieMan@@@@@8 DD FLAT:??_7type_info@@6B@ ; CSingleton<CMovieMan> `RTTI Type Descriptor'
	DD	00H
	DB	'.?AV?$CSingleton@VCMovieMan@@@@', 00H
data$rs	ENDS
;	COMDAT ??_R1A@?0A@EA@?$CSingleton@VCMovieMan@@@@8
rdata$r	SEGMENT
??_R1A@?0A@EA@?$CSingleton@VCMovieMan@@@@8 DD FLAT:??_R0?AV?$CSingleton@VCMovieMan@@@@@8 ; CSingleton<CMovieMan>::`RTTI Base Class Descriptor at (0,-1,0,64)'
	DD	00H
	DD	00H
	DD	0ffffffffH
	DD	00H
	DD	040H
	DD	FLAT:??_R3?$CSingleton@VCMovieMan@@@@8
rdata$r	ENDS
;	COMDAT ??_R1A@?0A@EA@CMovieMan@@8
rdata$r	SEGMENT
??_R1A@?0A@EA@CMovieMan@@8 DD FLAT:??_R0?AVCMovieMan@@@8 ; CMovieMan::`RTTI Base Class Descriptor at (0,-1,0,64)'
	DD	01H
	DD	00H
	DD	0ffffffffH
	DD	00H
	DD	040H
	DD	FLAT:??_R3CMovieMan@@8
rdata$r	ENDS
;	COMDAT ??_R2CMovieMan@@8
rdata$r	SEGMENT
??_R2CMovieMan@@8 DD FLAT:??_R1A@?0A@EA@CMovieMan@@8	; CMovieMan::`RTTI Base Class Array'
	DD	FLAT:??_R1A@?0A@EA@?$CSingleton@VCMovieMan@@@@8
rdata$r	ENDS
;	COMDAT ??_R3CMovieMan@@8
rdata$r	SEGMENT
??_R3CMovieMan@@8 DD 00H				; CMovieMan::`RTTI Class Hierarchy Descriptor'
	DD	00H
	DD	02H
	DD	FLAT:??_R2CMovieMan@@8
rdata$r	ENDS
;	COMDAT ??_R0?AVCMovieMan@@@8
data$rs	SEGMENT
??_R0?AVCMovieMan@@@8 DD FLAT:??_7type_info@@6B@	; CMovieMan `RTTI Type Descriptor'
	DD	00H
	DB	'.?AVCMovieMan@@', 00H
data$rs	ENDS
;	COMDAT ??_R4CMovieMan@@6B@
rdata$r	SEGMENT
??_R4CMovieMan@@6B@ DD 00H				; CMovieMan::`RTTI Complete Object Locator'
	DD	00H
	DD	00H
	DD	FLAT:??_R0?AVCMovieMan@@@8
	DD	FLAT:??_R3CMovieMan@@8
rdata$r	ENDS
;	COMDAT ??_R4?$TAbstractSingleton@VIAbstractApplication@@@@6B@
rdata$r	SEGMENT
??_R4?$TAbstractSingleton@VIAbstractApplication@@@@6B@ DD 00H ; TAbstractSingleton<IAbstractApplication>::`RTTI Complete Object Locator'
	DD	00H
	DD	00H
	DD	FLAT:??_R0?AV?$TAbstractSingleton@VIAbstractApplication@@@@@8
	DD	FLAT:??_R3?$TAbstractSingleton@VIAbstractApplication@@@@8
rdata$r	ENDS
;	COMDAT ??_R2?$TAbstractSingleton@VIAbstractApplication@@@@8
rdata$r	SEGMENT
??_R2?$TAbstractSingleton@VIAbstractApplication@@@@8 DD FLAT:??_R1A@?0A@EA@?$TAbstractSingleton@VIAbstractApplication@@@@8 ; TAbstractSingleton<IAbstractApplication>::`RTTI Base Class Array'
rdata$r	ENDS
;	COMDAT ??_R3?$TAbstractSingleton@VIAbstractApplication@@@@8
rdata$r	SEGMENT
??_R3?$TAbstractSingleton@VIAbstractApplication@@@@8 DD 00H ; TAbstractSingleton<IAbstractApplication>::`RTTI Class Hierarchy Descriptor'
	DD	00H
	DD	01H
	DD	FLAT:??_R2?$TAbstractSingleton@VIAbstractApplication@@@@8
rdata$r	ENDS
;	COMDAT ??_R0?AV?$TAbstractSingleton@VIAbstractApplication@@@@@8
data$rs	SEGMENT
??_R0?AV?$TAbstractSingleton@VIAbstractApplication@@@@@8 DD FLAT:??_7type_info@@6B@ ; TAbstractSingleton<IAbstractApplication> `RTTI Type Descriptor'
	DD	00H
	DB	'.?AV?$TAbstractSingleton@VIAbstractApplication@@@@', 00H
data$rs	ENDS
;	COMDAT ??_R1A@?0A@EA@?$TAbstractSingleton@VIAbstractApplication@@@@8
rdata$r	SEGMENT
??_R1A@?0A@EA@?$TAbstractSingleton@VIAbstractApplication@@@@8 DD FLAT:??_R0?AV?$TAbstractSingleton@VIAbstractApplication@@@@@8 ; TAbstractSingleton<IAbstractApplication>::`RTTI Base Class Descriptor at (0,-1,0,64)'
	DD	00H
	DD	00H
	DD	0ffffffffH
	DD	00H
	DD	040H
	DD	FLAT:??_R3?$TAbstractSingleton@VIAbstractApplication@@@@8
rdata$r	ENDS
;	COMDAT ??_R1A@?0A@EA@IAbstractApplication@@8
rdata$r	SEGMENT
??_R1A@?0A@EA@IAbstractApplication@@8 DD FLAT:??_R0?AVIAbstractApplication@@@8 ; IAbstractApplication::`RTTI Base Class Descriptor at (0,-1,0,64)'
	DD	01H
	DD	00H
	DD	0ffffffffH
	DD	00H
	DD	040H
	DD	FLAT:??_R3IAbstractApplication@@8
rdata$r	ENDS
;	COMDAT ??_R2IAbstractApplication@@8
rdata$r	SEGMENT
??_R2IAbstractApplication@@8 DD FLAT:??_R1A@?0A@EA@IAbstractApplication@@8 ; IAbstractApplication::`RTTI Base Class Array'
	DD	FLAT:??_R1A@?0A@EA@?$TAbstractSingleton@VIAbstractApplication@@@@8
rdata$r	ENDS
;	COMDAT ??_R3IAbstractApplication@@8
rdata$r	SEGMENT
??_R3IAbstractApplication@@8 DD 00H			; IAbstractApplication::`RTTI Class Hierarchy Descriptor'
	DD	00H
	DD	02H
	DD	FLAT:??_R2IAbstractApplication@@8
rdata$r	ENDS
;	COMDAT ??_R0?AVIAbstractApplication@@@8
data$rs	SEGMENT
??_R0?AVIAbstractApplication@@@8 DD FLAT:??_7type_info@@6B@ ; IAbstractApplication `RTTI Type Descriptor'
	DD	00H
	DB	'.?AVIAbstractApplication@@', 00H
data$rs	ENDS
;	COMDAT ??_R4IAbstractApplication@@6B@
rdata$r	SEGMENT
??_R4IAbstractApplication@@6B@ DD 00H			; IAbstractApplication::`RTTI Complete Object Locator'
	DD	00H
	DD	00H
	DD	FLAT:??_R0?AVIAbstractApplication@@@8
	DD	FLAT:??_R3IAbstractApplication@@8
rdata$r	ENDS
;	COMDAT ??_R4?$CSingleton@VCGuildMarkUploader@@@@6B@
rdata$r	SEGMENT
??_R4?$CSingleton@VCGuildMarkUploader@@@@6B@ DD 00H	; CSingleton<CGuildMarkUploader>::`RTTI Complete Object Locator'
	DD	00H
	DD	00H
	DD	FLAT:??_R0?AV?$CSingleton@VCGuildMarkUploader@@@@@8
	DD	FLAT:??_R3?$CSingleton@VCGuildMarkUploader@@@@8
rdata$r	ENDS
;	COMDAT ??_R4CGuildMarkUploader@@6B?$CSingleton@VCGuildMarkUploader@@@@@
rdata$r	SEGMENT
??_R4CGuildMarkUploader@@6B?$CSingleton@VCGuildMarkUploader@@@@@ DD 00H ; CGuildMarkUploader::`RTTI Complete Object Locator'
	DD	07cH
	DD	00H
	DD	FLAT:??_R0?AVCGuildMarkUploader@@@8
	DD	FLAT:??_R3CGuildMarkUploader@@8
rdata$r	ENDS
;	COMDAT ??_R1A@?0A@EA@?$CSingleton@VCGuildMarkUploader@@@@8
rdata$r	SEGMENT
??_R1A@?0A@EA@?$CSingleton@VCGuildMarkUploader@@@@8 DD FLAT:??_R0?AV?$CSingleton@VCGuildMarkUploader@@@@@8 ; CSingleton<CGuildMarkUploader>::`RTTI Base Class Descriptor at (0,-1,0,64)'
	DD	00H
	DD	00H
	DD	0ffffffffH
	DD	00H
	DD	040H
	DD	FLAT:??_R3?$CSingleton@VCGuildMarkUploader@@@@8
rdata$r	ENDS
;	COMDAT ??_R2?$CSingleton@VCGuildMarkUploader@@@@8
rdata$r	SEGMENT
??_R2?$CSingleton@VCGuildMarkUploader@@@@8 DD FLAT:??_R1A@?0A@EA@?$CSingleton@VCGuildMarkUploader@@@@8 ; CSingleton<CGuildMarkUploader>::`RTTI Base Class Array'
rdata$r	ENDS
;	COMDAT ??_R3?$CSingleton@VCGuildMarkUploader@@@@8
rdata$r	SEGMENT
??_R3?$CSingleton@VCGuildMarkUploader@@@@8 DD 00H	; CSingleton<CGuildMarkUploader>::`RTTI Class Hierarchy Descriptor'
	DD	00H
	DD	01H
	DD	FLAT:??_R2?$CSingleton@VCGuildMarkUploader@@@@8
rdata$r	ENDS
;	COMDAT ??_R0?AV?$CSingleton@VCGuildMarkUploader@@@@@8
data$rs	SEGMENT
??_R0?AV?$CSingleton@VCGuildMarkUploader@@@@@8 DD FLAT:??_7type_info@@6B@ ; CSingleton<CGuildMarkUploader> `RTTI Type Descriptor'
	DD	00H
	DB	'.?AV?$CSingleton@VCGuildMarkUploader@@@@', 00H
data$rs	ENDS
;	COMDAT ??_R1HM@?0A@EA@?$CSingleton@VCGuildMarkUploader@@@@8
rdata$r	SEGMENT
??_R1HM@?0A@EA@?$CSingleton@VCGuildMarkUploader@@@@8 DD FLAT:??_R0?AV?$CSingleton@VCGuildMarkUploader@@@@@8 ; CSingleton<CGuildMarkUploader>::`RTTI Base Class Descriptor at (124,-1,0,64)'
	DD	00H
	DD	07cH
	DD	0ffffffffH
	DD	00H
	DD	040H
	DD	FLAT:??_R3?$CSingleton@VCGuildMarkUploader@@@@8
rdata$r	ENDS
;	COMDAT ??_R2CNetworkStream@@8
rdata$r	SEGMENT
??_R2CNetworkStream@@8 DD FLAT:??_R1A@?0A@EA@CNetworkStream@@8 ; CNetworkStream::`RTTI Base Class Array'
rdata$r	ENDS
;	COMDAT ??_R3CNetworkStream@@8
rdata$r	SEGMENT
??_R3CNetworkStream@@8 DD 00H				; CNetworkStream::`RTTI Class Hierarchy Descriptor'
	DD	00H
	DD	01H
	DD	FLAT:??_R2CNetworkStream@@8
rdata$r	ENDS
;	COMDAT ??_R0?AVCNetworkStream@@@8
data$rs	SEGMENT
??_R0?AVCNetworkStream@@@8 DD FLAT:??_7type_info@@6B@	; CNetworkStream `RTTI Type Descriptor'
	DD	00H
	DB	'.?AVCNetworkStream@@', 00H
data$rs	ENDS
;	COMDAT ??_R1A@?0A@EA@CNetworkStream@@8
rdata$r	SEGMENT
??_R1A@?0A@EA@CNetworkStream@@8 DD FLAT:??_R0?AVCNetworkStream@@@8 ; CNetworkStream::`RTTI Base Class Descriptor at (0,-1,0,64)'
	DD	00H
	DD	00H
	DD	0ffffffffH
	DD	00H
	DD	040H
	DD	FLAT:??_R3CNetworkStream@@8
rdata$r	ENDS
;	COMDAT ??_R1A@?0A@EA@CGuildMarkUploader@@8
rdata$r	SEGMENT
??_R1A@?0A@EA@CGuildMarkUploader@@8 DD FLAT:??_R0?AVCGuildMarkUploader@@@8 ; CGuildMarkUploader::`RTTI Base Class Descriptor at (0,-1,0,64)'
	DD	02H
	DD	00H
	DD	0ffffffffH
	DD	00H
	DD	040H
	DD	FLAT:??_R3CGuildMarkUploader@@8
rdata$r	ENDS
;	COMDAT ??_R2CGuildMarkUploader@@8
rdata$r	SEGMENT
??_R2CGuildMarkUploader@@8 DD FLAT:??_R1A@?0A@EA@CGuildMarkUploader@@8 ; CGuildMarkUploader::`RTTI Base Class Array'
	DD	FLAT:??_R1A@?0A@EA@CNetworkStream@@8
	DD	FLAT:??_R1HM@?0A@EA@?$CSingleton@VCGuildMarkUploader@@@@8
rdata$r	ENDS
;	COMDAT ??_R3CGuildMarkUploader@@8
rdata$r	SEGMENT
??_R3CGuildMarkUploader@@8 DD 00H			; CGuildMarkUploader::`RTTI Class Hierarchy Descriptor'
	DD	01H
	DD	03H
	DD	FLAT:??_R2CGuildMarkUploader@@8
rdata$r	ENDS
;	COMDAT ??_R0?AVCGuildMarkUploader@@@8
data$rs	SEGMENT
??_R0?AVCGuildMarkUploader@@@8 DD FLAT:??_7type_info@@6B@ ; CGuildMarkUploader `RTTI Type Descriptor'
	DD	00H
	DB	'.?AVCGuildMarkUploader@@', 00H
data$rs	ENDS
;	COMDAT ??_R4CGuildMarkUploader@@6BCNetworkStream@@@
rdata$r	SEGMENT
??_R4CGuildMarkUploader@@6BCNetworkStream@@@ DD 00H	; CGuildMarkUploader::`RTTI Complete Object Locator'
	DD	00H
	DD	00H
	DD	FLAT:??_R0?AVCGuildMarkUploader@@@8
	DD	FLAT:??_R3CGuildMarkUploader@@8
rdata$r	ENDS
;	COMDAT ??_R1A@?0A@EA@?$CDynamicPoolEx@VCRotationDecorator@NEffectUpdateDecorator@@@@8
rdata$r	SEGMENT
??_R1A@?0A@EA@?$CDynamicPoolEx@VCRotationDecorator@NEffectUpdateDecorator@@@@8 DD FLAT:??_R0?AV?$CDynamicPoolEx@VCRotationDecorator@NEffectUpdateDecorator@@@@@8 ; CDynamicPoolEx<NEffectUpdateDecorator::CRotationDecorator>::`RTTI Base Class Descriptor at (0,-1,0,64)'
	DD	00H
	DD	00H
	DD	0ffffffffH
	DD	00H
	DD	040H
	DD	FLAT:??_R3?$CDynamicPoolEx@VCRotationDecorator@NEffectUpdateDecorator@@@@8
rdata$r	ENDS
;	COMDAT ??_R2?$CDynamicPoolEx@VCRotationDecorator@NEffectUpdateDecorator@@@@8
rdata$r	SEGMENT
??_R2?$CDynamicPoolEx@VCRotationDecorator@NEffectUpdateDecorator@@@@8 DD FLAT:??_R1A@?0A@EA@?$CDynamicPoolEx@VCRotationDecorator@NEffectUpdateDecorator@@@@8 ; CDynamicPoolEx<NEffectUpdateDecorator::CRotationDecorator>::`RTTI Base Class Array'
rdata$r	ENDS
;	COMDAT ??_R3?$CDynamicPoolEx@VCRotationDecorator@NEffectUpdateDecorator@@@@8
rdata$r	SEGMENT
??_R3?$CDynamicPoolEx@VCRotationDecorator@NEffectUpdateDecorator@@@@8 DD 00H ; CDynamicPoolEx<NEffectUpdateDecorator::CRotationDecorator>::`RTTI Class Hierarchy Descriptor'
	DD	00H
	DD	01H
	DD	FLAT:??_R2?$CDynamicPoolEx@VCRotationDecorator@NEffectUpdateDecorator@@@@8
rdata$r	ENDS
;	COMDAT ??_R0?AV?$CDynamicPoolEx@VCRotationDecorator@NEffectUpdateDecorator@@@@@8
data$rs	SEGMENT
??_R0?AV?$CDynamicPoolEx@VCRotationDecorator@NEffectUpdateDecorator@@@@@8 DD FLAT:??_7type_info@@6B@ ; CDynamicPoolEx<NEffectUpdateDecorator::CRotationDecorator> `RTTI Type Descriptor'
	DD	00H
	DB	'.?AV?$CDynamicPoolEx@VCRotationDecorator@NEffectUpdateDe'
	DB	'corator@@@@', 00H
data$rs	ENDS
;	COMDAT ??_R4?$CDynamicPoolEx@VCRotationDecorator@NEffectUpdateDecorator@@@@6B@
rdata$r	SEGMENT
??_R4?$CDynamicPoolEx@VCRotationDecorator@NEffectUpdateDecorator@@@@6B@ DD 00H ; CDynamicPoolEx<NEffectUpdateDecorator::CRotationDecorator>::`RTTI Complete Object Locator'
	DD	00H
	DD	00H
	DD	FLAT:??_R0?AV?$CDynamicPoolEx@VCRotationDecorator@NEffectUpdateDecorator@@@@@8
	DD	FLAT:??_R3?$CDynamicPoolEx@VCRotationDecorator@NEffectUpdateDecorator@@@@8
rdata$r	ENDS
;	COMDAT ??_R1A@?0A@EA@?$CDynamicPoolEx@VCGravityDecorator@NEffectUpdateDecorator@@@@8
rdata$r	SEGMENT
??_R1A@?0A@EA@?$CDynamicPoolEx@VCGravityDecorator@NEffectUpdateDecorator@@@@8 DD FLAT:??_R0?AV?$CDynamicPoolEx@VCGravityDecorator@NEffectUpdateDecorator@@@@@8 ; CDynamicPoolEx<NEffectUpdateDecorator::CGravityDecorator>::`RTTI Base Class Descriptor at (0,-1,0,64)'
	DD	00H
	DD	00H
	DD	0ffffffffH
	DD	00H
	DD	040H
	DD	FLAT:??_R3?$CDynamicPoolEx@VCGravityDecorator@NEffectUpdateDecorator@@@@8
rdata$r	ENDS
;	COMDAT ??_R2?$CDynamicPoolEx@VCGravityDecorator@NEffectUpdateDecorator@@@@8
rdata$r	SEGMENT
??_R2?$CDynamicPoolEx@VCGravityDecorator@NEffectUpdateDecorator@@@@8 DD FLAT:??_R1A@?0A@EA@?$CDynamicPoolEx@VCGravityDecorator@NEffectUpdateDecorator@@@@8 ; CDynamicPoolEx<NEffectUpdateDecorator::CGravityDecorator>::`RTTI Base Class Array'
rdata$r	ENDS
;	COMDAT ??_R3?$CDynamicPoolEx@VCGravityDecorator@NEffectUpdateDecorator@@@@8
rdata$r	SEGMENT
??_R3?$CDynamicPoolEx@VCGravityDecorator@NEffectUpdateDecorator@@@@8 DD 00H ; CDynamicPoolEx<NEffectUpdateDecorator::CGravityDecorator>::`RTTI Class Hierarchy Descriptor'
	DD	00H
	DD	01H
	DD	FLAT:??_R2?$CDynamicPoolEx@VCGravityDecorator@NEffectUpdateDecorator@@@@8
rdata$r	ENDS
;	COMDAT ??_R0?AV?$CDynamicPoolEx@VCGravityDecorator@NEffectUpdateDecorator@@@@@8
data$rs	SEGMENT
??_R0?AV?$CDynamicPoolEx@VCGravityDecorator@NEffectUpdateDecorator@@@@@8 DD FLAT:??_7type_info@@6B@ ; CDynamicPoolEx<NEffectUpdateDecorator::CGravityDecorator> `RTTI Type Descriptor'
	DD	00H
	DB	'.?AV?$CDynamicPoolEx@VCGravityDecorator@NEffectUpdateDec'
	DB	'orator@@@@', 00H
data$rs	ENDS
;	COMDAT ??_R4?$CDynamicPoolEx@VCGravityDecorator@NEffectUpdateDecorator@@@@6B@
rdata$r	SEGMENT
??_R4?$CDynamicPoolEx@VCGravityDecorator@NEffectUpdateDecorator@@@@6B@ DD 00H ; CDynamicPoolEx<NEffectUpdateDecorator::CGravityDecorator>::`RTTI Complete Object Locator'
	DD	00H
	DD	00H
	DD	FLAT:??_R0?AV?$CDynamicPoolEx@VCGravityDecorator@NEffectUpdateDecorator@@@@@8
	DD	FLAT:??_R3?$CDynamicPoolEx@VCGravityDecorator@NEffectUpdateDecorator@@@@8
rdata$r	ENDS
;	COMDAT ??_R1A@?0A@EA@?$CDynamicPoolEx@VCAirResistanceDecorator@NEffectUpdateDecorator@@@@8
rdata$r	SEGMENT
??_R1A@?0A@EA@?$CDynamicPoolEx@VCAirResistanceDecorator@NEffectUpdateDecorator@@@@8 DD FLAT:??_R0?AV?$CDynamicPoolEx@VCAirResistanceDecorator@NEffectUpdateDecorator@@@@@8 ; CDynamicPoolEx<NEffectUpdateDecorator::CAirResistanceDecorator>::`RTTI Base Class Descriptor at (0,-1,0,64)'
	DD	00H
	DD	00H
	DD	0ffffffffH
	DD	00H
	DD	040H
	DD	FLAT:??_R3?$CDynamicPoolEx@VCAirResistanceDecorator@NEffectUpdateDecorator@@@@8
rdata$r	ENDS
;	COMDAT ??_R2?$CDynamicPoolEx@VCAirResistanceDecorator@NEffectUpdateDecorator@@@@8
rdata$r	SEGMENT
??_R2?$CDynamicPoolEx@VCAirResistanceDecorator@NEffectUpdateDecorator@@@@8 DD FLAT:??_R1A@?0A@EA@?$CDynamicPoolEx@VCAirResistanceDecorator@NEffectUpdateDecorator@@@@8 ; CDynamicPoolEx<NEffectUpdateDecorator::CAirResistanceDecorator>::`RTTI Base Class Array'
rdata$r	ENDS
;	COMDAT ??_R3?$CDynamicPoolEx@VCAirResistanceDecorator@NEffectUpdateDecorator@@@@8
rdata$r	SEGMENT
??_R3?$CDynamicPoolEx@VCAirResistanceDecorator@NEffectUpdateDecorator@@@@8 DD 00H ; CDynamicPoolEx<NEffectUpdateDecorator::CAirResistanceDecorator>::`RTTI Class Hierarchy Descriptor'
	DD	00H
	DD	01H
	DD	FLAT:??_R2?$CDynamicPoolEx@VCAirResistanceDecorator@NEffectUpdateDecorator@@@@8
rdata$r	ENDS
;	COMDAT ??_R0?AV?$CDynamicPoolEx@VCAirResistanceDecorator@NEffectUpdateDecorator@@@@@8
data$rs	SEGMENT
??_R0?AV?$CDynamicPoolEx@VCAirResistanceDecorator@NEffectUpdateDecorator@@@@@8 DD FLAT:??_7type_info@@6B@ ; CDynamicPoolEx<NEffectUpdateDecorator::CAirResistanceDecorator> `RTTI Type Descriptor'
	DD	00H
	DB	'.?AV?$CDynamicPoolEx@VCAirResistanceDecorator@NEffectUpd'
	DB	'ateDecorator@@@@', 00H
data$rs	ENDS
;	COMDAT ??_R4?$CDynamicPoolEx@VCAirResistanceDecorator@NEffectUpdateDecorator@@@@6B@
rdata$r	SEGMENT
??_R4?$CDynamicPoolEx@VCAirResistanceDecorator@NEffectUpdateDecorator@@@@6B@ DD 00H ; CDynamicPoolEx<NEffectUpdateDecorator::CAirResistanceDecorator>::`RTTI Complete Object Locator'
	DD	00H
	DD	00H
	DD	FLAT:??_R0?AV?$CDynamicPoolEx@VCAirResistanceDecorator@NEffectUpdateDecorator@@@@@8
	DD	FLAT:??_R3?$CDynamicPoolEx@VCAirResistanceDecorator@NEffectUpdateDecorator@@@@8
rdata$r	ENDS
;	COMDAT ??_R1A@?0A@EA@?$CDynamicPoolEx@VCTextureAnimationRandomDecorator@NEffectUpdateDecorator@@@@8
rdata$r	SEGMENT
??_R1A@?0A@EA@?$CDynamicPoolEx@VCTextureAnimationRandomDecorator@NEffectUpdateDecorator@@@@8 DD FLAT:??_R0?AV?$CDynamicPoolEx@VCTextureAnimationRandomDecorator@NEffectUpdateDecorator@@@@@8 ; CDynamicPoolEx<NEffectUpdateDecorator::CTextureAnimationRandomDecorator>::`RTTI Base Class Descriptor at (0,-1,0,64)'
	DD	00H
	DD	00H
	DD	0ffffffffH
	DD	00H
	DD	040H
	DD	FLAT:??_R3?$CDynamicPoolEx@VCTextureAnimationRandomDecorator@NEffectUpdateDecorator@@@@8
rdata$r	ENDS
;	COMDAT ??_R2?$CDynamicPoolEx@VCTextureAnimationRandomDecorator@NEffectUpdateDecorator@@@@8
rdata$r	SEGMENT
??_R2?$CDynamicPoolEx@VCTextureAnimationRandomDecorator@NEffectUpdateDecorator@@@@8 DD FLAT:??_R1A@?0A@EA@?$CDynamicPoolEx@VCTextureAnimationRandomDecorator@NEffectUpdateDecorator@@@@8 ; CDynamicPoolEx<NEffectUpdateDecorator::CTextureAnimationRandomDecorator>::`RTTI Base Class Array'
rdata$r	ENDS
;	COMDAT ??_R3?$CDynamicPoolEx@VCTextureAnimationRandomDecorator@NEffectUpdateDecorator@@@@8
rdata$r	SEGMENT
??_R3?$CDynamicPoolEx@VCTextureAnimationRandomDecorator@NEffectUpdateDecorator@@@@8 DD 00H ; CDynamicPoolEx<NEffectUpdateDecorator::CTextureAnimationRandomDecorator>::`RTTI Class Hierarchy Descriptor'
	DD	00H
	DD	01H
	DD	FLAT:??_R2?$CDynamicPoolEx@VCTextureAnimationRandomDecorator@NEffectUpdateDecorator@@@@8
rdata$r	ENDS
;	COMDAT ??_R0?AV?$CDynamicPoolEx@VCTextureAnimationRandomDecorator@NEffectUpdateDecorator@@@@@8
data$rs	SEGMENT
??_R0?AV?$CDynamicPoolEx@VCTextureAnimationRandomDecorator@NEffectUpdateDecorator@@@@@8 DD FLAT:??_7type_info@@6B@ ; CDynamicPoolEx<NEffectUpdateDecorator::CTextureAnimationRandomDecorator> `RTTI Type Descriptor'
	DD	00H
	DB	'.?AV?$CDynamicPoolEx@VCTextureAnimationRandomDecorator@N'
	DB	'EffectUpdateDecorator@@@@', 00H
data$rs	ENDS
;	COMDAT ??_R4?$CDynamicPoolEx@VCTextureAnimationRandomDecorator@NEffectUpdateDecorator@@@@6B@
rdata$r	SEGMENT
??_R4?$CDynamicPoolEx@VCTextureAnimationRandomDecorator@NEffectUpdateDecorator@@@@6B@ DD 00H ; CDynamicPoolEx<NEffectUpdateDecorator::CTextureAnimationRandomDecorator>::`RTTI Complete Object Locator'
	DD	00H
	DD	00H
	DD	FLAT:??_R0?AV?$CDynamicPoolEx@VCTextureAnimationRandomDecorator@NEffectUpdateDecorator@@@@@8
	DD	FLAT:??_R3?$CDynamicPoolEx@VCTextureAnimationRandomDecorator@NEffectUpdateDecorator@@@@8
rdata$r	ENDS
;	COMDAT ??_R1A@?0A@EA@?$CDynamicPoolEx@VCTextureAnimationCCWDecorator@NEffectUpdateDecorator@@@@8
rdata$r	SEGMENT
??_R1A@?0A@EA@?$CDynamicPoolEx@VCTextureAnimationCCWDecorator@NEffectUpdateDecorator@@@@8 DD FLAT:??_R0?AV?$CDynamicPoolEx@VCTextureAnimationCCWDecorator@NEffectUpdateDecorator@@@@@8 ; CDynamicPoolEx<NEffectUpdateDecorator::CTextureAnimationCCWDecorator>::`RTTI Base Class Descriptor at (0,-1,0,64)'
	DD	00H
	DD	00H
	DD	0ffffffffH
	DD	00H
	DD	040H
	DD	FLAT:??_R3?$CDynamicPoolEx@VCTextureAnimationCCWDecorator@NEffectUpdateDecorator@@@@8
rdata$r	ENDS
;	COMDAT ??_R2?$CDynamicPoolEx@VCTextureAnimationCCWDecorator@NEffectUpdateDecorator@@@@8
rdata$r	SEGMENT
??_R2?$CDynamicPoolEx@VCTextureAnimationCCWDecorator@NEffectUpdateDecorator@@@@8 DD FLAT:??_R1A@?0A@EA@?$CDynamicPoolEx@VCTextureAnimationCCWDecorator@NEffectUpdateDecorator@@@@8 ; CDynamicPoolEx<NEffectUpdateDecorator::CTextureAnimationCCWDecorator>::`RTTI Base Class Array'
rdata$r	ENDS
;	COMDAT ??_R3?$CDynamicPoolEx@VCTextureAnimationCCWDecorator@NEffectUpdateDecorator@@@@8
rdata$r	SEGMENT
??_R3?$CDynamicPoolEx@VCTextureAnimationCCWDecorator@NEffectUpdateDecorator@@@@8 DD 00H ; CDynamicPoolEx<NEffectUpdateDecorator::CTextureAnimationCCWDecorator>::`RTTI Class Hierarchy Descriptor'
	DD	00H
	DD	01H
	DD	FLAT:??_R2?$CDynamicPoolEx@VCTextureAnimationCCWDecorator@NEffectUpdateDecorator@@@@8
rdata$r	ENDS
;	COMDAT ??_R0?AV?$CDynamicPoolEx@VCTextureAnimationCCWDecorator@NEffectUpdateDecorator@@@@@8
data$rs	SEGMENT
??_R0?AV?$CDynamicPoolEx@VCTextureAnimationCCWDecorator@NEffectUpdateDecorator@@@@@8 DD FLAT:??_7type_info@@6B@ ; CDynamicPoolEx<NEffectUpdateDecorator::CTextureAnimationCCWDecorator> `RTTI Type Descriptor'
	DD	00H
	DB	'.?AV?$CDynamicPoolEx@VCTextureAnimationCCWDecorator@NEff'
	DB	'ectUpdateDecorator@@@@', 00H
data$rs	ENDS
;	COMDAT ??_R4?$CDynamicPoolEx@VCTextureAnimationCCWDecorator@NEffectUpdateDecorator@@@@6B@
rdata$r	SEGMENT
??_R4?$CDynamicPoolEx@VCTextureAnimationCCWDecorator@NEffectUpdateDecorator@@@@6B@ DD 00H ; CDynamicPoolEx<NEffectUpdateDecorator::CTextureAnimationCCWDecorator>::`RTTI Complete Object Locator'
	DD	00H
	DD	00H
	DD	FLAT:??_R0?AV?$CDynamicPoolEx@VCTextureAnimationCCWDecorator@NEffectUpdateDecorator@@@@@8
	DD	FLAT:??_R3?$CDynamicPoolEx@VCTextureAnimationCCWDecorator@NEffectUpdateDecorator@@@@8
rdata$r	ENDS
;	COMDAT ??_R1A@?0A@EA@?$CDynamicPoolEx@VCTextureAnimationCWDecorator@NEffectUpdateDecorator@@@@8
rdata$r	SEGMENT
??_R1A@?0A@EA@?$CDynamicPoolEx@VCTextureAnimationCWDecorator@NEffectUpdateDecorator@@@@8 DD FLAT:??_R0?AV?$CDynamicPoolEx@VCTextureAnimationCWDecorator@NEffectUpdateDecorator@@@@@8 ; CDynamicPoolEx<NEffectUpdateDecorator::CTextureAnimationCWDecorator>::`RTTI Base Class Descriptor at (0,-1,0,64)'
	DD	00H
	DD	00H
	DD	0ffffffffH
	DD	00H
	DD	040H
	DD	FLAT:??_R3?$CDynamicPoolEx@VCTextureAnimationCWDecorator@NEffectUpdateDecorator@@@@8
rdata$r	ENDS
;	COMDAT ??_R2?$CDynamicPoolEx@VCTextureAnimationCWDecorator@NEffectUpdateDecorator@@@@8
rdata$r	SEGMENT
??_R2?$CDynamicPoolEx@VCTextureAnimationCWDecorator@NEffectUpdateDecorator@@@@8 DD FLAT:??_R1A@?0A@EA@?$CDynamicPoolEx@VCTextureAnimationCWDecorator@NEffectUpdateDecorator@@@@8 ; CDynamicPoolEx<NEffectUpdateDecorator::CTextureAnimationCWDecorator>::`RTTI Base Class Array'
rdata$r	ENDS
;	COMDAT ??_R3?$CDynamicPoolEx@VCTextureAnimationCWDecorator@NEffectUpdateDecorator@@@@8
rdata$r	SEGMENT
??_R3?$CDynamicPoolEx@VCTextureAnimationCWDecorator@NEffectUpdateDecorator@@@@8 DD 00H ; CDynamicPoolEx<NEffectUpdateDecorator::CTextureAnimationCWDecorator>::`RTTI Class Hierarchy Descriptor'
	DD	00H
	DD	01H
	DD	FLAT:??_R2?$CDynamicPoolEx@VCTextureAnimationCWDecorator@NEffectUpdateDecorator@@@@8
rdata$r	ENDS
;	COMDAT ??_R0?AV?$CDynamicPoolEx@VCTextureAnimationCWDecorator@NEffectUpdateDecorator@@@@@8
data$rs	SEGMENT
??_R0?AV?$CDynamicPoolEx@VCTextureAnimationCWDecorator@NEffectUpdateDecorator@@@@@8 DD FLAT:??_7type_info@@6B@ ; CDynamicPoolEx<NEffectUpdateDecorator::CTextureAnimationCWDecorator> `RTTI Type Descriptor'
	DD	00H
	DB	'.?AV?$CDynamicPoolEx@VCTextureAnimationCWDecorator@NEffe'
	DB	'ctUpdateDecorator@@@@', 00H
data$rs	ENDS
;	COMDAT ??_R4?$CDynamicPoolEx@VCTextureAnimationCWDecorator@NEffectUpdateDecorator@@@@6B@
rdata$r	SEGMENT
??_R4?$CDynamicPoolEx@VCTextureAnimationCWDecorator@NEffectUpdateDecorator@@@@6B@ DD 00H ; CDynamicPoolEx<NEffectUpdateDecorator::CTextureAnimationCWDecorator>::`RTTI Complete Object Locator'
	DD	00H
	DD	00H
	DD	FLAT:??_R0?AV?$CDynamicPoolEx@VCTextureAnimationCWDecorator@NEffectUpdateDecorator@@@@@8
	DD	FLAT:??_R3?$CDynamicPoolEx@VCTextureAnimationCWDecorator@NEffectUpdateDecorator@@@@8
rdata$r	ENDS
;	COMDAT ??_R1A@?0A@EA@?$CDynamicPoolEx@VCNullDecorator@NEffectUpdateDecorator@@@@8
rdata$r	SEGMENT
??_R1A@?0A@EA@?$CDynamicPoolEx@VCNullDecorator@NEffectUpdateDecorator@@@@8 DD FLAT:??_R0?AV?$CDynamicPoolEx@VCNullDecorator@NEffectUpdateDecorator@@@@@8 ; CDynamicPoolEx<NEffectUpdateDecorator::CNullDecorator>::`RTTI Base Class Descriptor at (0,-1,0,64)'
	DD	00H
	DD	00H
	DD	0ffffffffH
	DD	00H
	DD	040H
	DD	FLAT:??_R3?$CDynamicPoolEx@VCNullDecorator@NEffectUpdateDecorator@@@@8
rdata$r	ENDS
;	COMDAT ??_R2?$CDynamicPoolEx@VCNullDecorator@NEffectUpdateDecorator@@@@8
rdata$r	SEGMENT
??_R2?$CDynamicPoolEx@VCNullDecorator@NEffectUpdateDecorator@@@@8 DD FLAT:??_R1A@?0A@EA@?$CDynamicPoolEx@VCNullDecorator@NEffectUpdateDecorator@@@@8 ; CDynamicPoolEx<NEffectUpdateDecorator::CNullDecorator>::`RTTI Base Class Array'
rdata$r	ENDS
;	COMDAT ??_R3?$CDynamicPoolEx@VCNullDecorator@NEffectUpdateDecorator@@@@8
rdata$r	SEGMENT
??_R3?$CDynamicPoolEx@VCNullDecorator@NEffectUpdateDecorator@@@@8 DD 00H ; CDynamicPoolEx<NEffectUpdateDecorator::CNullDecorator>::`RTTI Class Hierarchy Descriptor'
	DD	00H
	DD	01H
	DD	FLAT:??_R2?$CDynamicPoolEx@VCNullDecorator@NEffectUpdateDecorator@@@@8
rdata$r	ENDS
;	COMDAT ??_R0?AV?$CDynamicPoolEx@VCNullDecorator@NEffectUpdateDecorator@@@@@8
data$rs	SEGMENT
??_R0?AV?$CDynamicPoolEx@VCNullDecorator@NEffectUpdateDecorator@@@@@8 DD FLAT:??_7type_info@@6B@ ; CDynamicPoolEx<NEffectUpdateDecorator::CNullDecorator> `RTTI Type Descriptor'
	DD	00H
	DB	'.?AV?$CDynamicPoolEx@VCNullDecorator@NEffectUpdateDecora'
	DB	'tor@@@@', 00H
data$rs	ENDS
;	COMDAT ??_R4?$CDynamicPoolEx@VCNullDecorator@NEffectUpdateDecorator@@@@6B@
rdata$r	SEGMENT
??_R4?$CDynamicPoolEx@VCNullDecorator@NEffectUpdateDecorator@@@@6B@ DD 00H ; CDynamicPoolEx<NEffectUpdateDecorator::CNullDecorator>::`RTTI Complete Object Locator'
	DD	00H
	DD	00H
	DD	FLAT:??_R0?AV?$CDynamicPoolEx@VCNullDecorator@NEffectUpdateDecorator@@@@@8
	DD	FLAT:??_R3?$CDynamicPoolEx@VCNullDecorator@NEffectUpdateDecorator@@@@8
rdata$r	ENDS
;	COMDAT ??_R1A@?0A@EA@?$CDynamicPoolEx@VCHeaderDecorator@NEffectUpdateDecorator@@@@8
rdata$r	SEGMENT
??_R1A@?0A@EA@?$CDynamicPoolEx@VCHeaderDecorator@NEffectUpdateDecorator@@@@8 DD FLAT:??_R0?AV?$CDynamicPoolEx@VCHeaderDecorator@NEffectUpdateDecorator@@@@@8 ; CDynamicPoolEx<NEffectUpdateDecorator::CHeaderDecorator>::`RTTI Base Class Descriptor at (0,-1,0,64)'
	DD	00H
	DD	00H
	DD	0ffffffffH
	DD	00H
	DD	040H
	DD	FLAT:??_R3?$CDynamicPoolEx@VCHeaderDecorator@NEffectUpdateDecorator@@@@8
rdata$r	ENDS
;	COMDAT ??_R2?$CDynamicPoolEx@VCHeaderDecorator@NEffectUpdateDecorator@@@@8
rdata$r	SEGMENT
??_R2?$CDynamicPoolEx@VCHeaderDecorator@NEffectUpdateDecorator@@@@8 DD FLAT:??_R1A@?0A@EA@?$CDynamicPoolEx@VCHeaderDecorator@NEffectUpdateDecorator@@@@8 ; CDynamicPoolEx<NEffectUpdateDecorator::CHeaderDecorator>::`RTTI Base Class Array'
rdata$r	ENDS
;	COMDAT ??_R3?$CDynamicPoolEx@VCHeaderDecorator@NEffectUpdateDecorator@@@@8
rdata$r	SEGMENT
??_R3?$CDynamicPoolEx@VCHeaderDecorator@NEffectUpdateDecorator@@@@8 DD 00H ; CDynamicPoolEx<NEffectUpdateDecorator::CHeaderDecorator>::`RTTI Class Hierarchy Descriptor'
	DD	00H
	DD	01H
	DD	FLAT:??_R2?$CDynamicPoolEx@VCHeaderDecorator@NEffectUpdateDecorator@@@@8
rdata$r	ENDS
;	COMDAT ??_R0?AV?$CDynamicPoolEx@VCHeaderDecorator@NEffectUpdateDecorator@@@@@8
data$rs	SEGMENT
??_R0?AV?$CDynamicPoolEx@VCHeaderDecorator@NEffectUpdateDecorator@@@@@8 DD FLAT:??_7type_info@@6B@ ; CDynamicPoolEx<NEffectUpdateDecorator::CHeaderDecorator> `RTTI Type Descriptor'
	DD	00H
	DB	'.?AV?$CDynamicPoolEx@VCHeaderDecorator@NEffectUpdateDeco'
	DB	'rator@@@@', 00H
data$rs	ENDS
;	COMDAT ??_R4?$CDynamicPoolEx@VCHeaderDecorator@NEffectUpdateDecorator@@@@6B@
rdata$r	SEGMENT
??_R4?$CDynamicPoolEx@VCHeaderDecorator@NEffectUpdateDecorator@@@@6B@ DD 00H ; CDynamicPoolEx<NEffectUpdateDecorator::CHeaderDecorator>::`RTTI Complete Object Locator'
	DD	00H
	DD	00H
	DD	FLAT:??_R0?AV?$CDynamicPoolEx@VCHeaderDecorator@NEffectUpdateDecorator@@@@@8
	DD	FLAT:??_R3?$CDynamicPoolEx@VCHeaderDecorator@NEffectUpdateDecorator@@@@8
rdata$r	ENDS
;	COMDAT ??_7?$CDynamicPoolEx@VCHeaderDecorator@NEffectUpdateDecorator@@@@6B@
CONST	SEGMENT
??_7?$CDynamicPoolEx@VCHeaderDecorator@NEffectUpdateDecorator@@@@6B@ DD FLAT:??_R4?$CDynamicPoolEx@VCHeaderDecorator@NEffectUpdateDecorator@@@@6B@ ; CDynamicPoolEx<NEffectUpdateDecorator::CHeaderDecorator>::`vftable'
	DD	FLAT:??_E?$CDynamicPoolEx@VCHeaderDecorator@NEffectUpdateDecorator@@@@UAEPAXI@Z
CONST	ENDS
;	COMDAT ??_7?$CDynamicPoolEx@VCNullDecorator@NEffectUpdateDecorator@@@@6B@
CONST	SEGMENT
??_7?$CDynamicPoolEx@VCNullDecorator@NEffectUpdateDecorator@@@@6B@ DD FLAT:??_R4?$CDynamicPoolEx@VCNullDecorator@NEffectUpdateDecorator@@@@6B@ ; CDynamicPoolEx<NEffectUpdateDecorator::CNullDecorator>::`vftable'
	DD	FLAT:??_E?$CDynamicPoolEx@VCNullDecorator@NEffectUpdateDecorator@@@@UAEPAXI@Z
CONST	ENDS
;	COMDAT ??_7?$CDynamicPoolEx@VCTextureAnimationCWDecorator@NEffectUpdateDecorator@@@@6B@
CONST	SEGMENT
??_7?$CDynamicPoolEx@VCTextureAnimationCWDecorator@NEffectUpdateDecorator@@@@6B@ DD FLAT:??_R4?$CDynamicPoolEx@VCTextureAnimationCWDecorator@NEffectUpdateDecorator@@@@6B@ ; CDynamicPoolEx<NEffectUpdateDecorator::CTextureAnimationCWDecorator>::`vftable'
	DD	FLAT:??_E?$CDynamicPoolEx@VCTextureAnimationCWDecorator@NEffectUpdateDecorator@@@@UAEPAXI@Z
CONST	ENDS
;	COMDAT ??_7?$CDynamicPoolEx@VCTextureAnimationCCWDecorator@NEffectUpdateDecorator@@@@6B@
CONST	SEGMENT
??_7?$CDynamicPoolEx@VCTextureAnimationCCWDecorator@NEffectUpdateDecorator@@@@6B@ DD FLAT:??_R4?$CDynamicPoolEx@VCTextureAnimationCCWDecorator@NEffectUpdateDecorator@@@@6B@ ; CDynamicPoolEx<NEffectUpdateDecorator::CTextureAnimationCCWDecorator>::`vftable'
	DD	FLAT:??_E?$CDynamicPoolEx@VCTextureAnimationCCWDecorator@NEffectUpdateDecorator@@@@UAEPAXI@Z
CONST	ENDS
;	COMDAT ??_7?$CDynamicPoolEx@VCTextureAnimationRandomDecorator@NEffectUpdateDecorator@@@@6B@
CONST	SEGMENT
??_7?$CDynamicPoolEx@VCTextureAnimationRandomDecorator@NEffectUpdateDecorator@@@@6B@ DD FLAT:??_R4?$CDynamicPoolEx@VCTextureAnimationRandomDecorator@NEffectUpdateDecorator@@@@6B@ ; CDynamicPoolEx<NEffectUpdateDecorator::CTextureAnimationRandomDecorator>::`vftable'
	DD	FLAT:??_E?$CDynamicPoolEx@VCTextureAnimationRandomDecorator@NEffectUpdateDecorator@@@@UAEPAXI@Z
CONST	ENDS
;	COMDAT ??_7?$CDynamicPoolEx@VCAirResistanceDecorator@NEffectUpdateDecorator@@@@6B@
CONST	SEGMENT
??_7?$CDynamicPoolEx@VCAirResistanceDecorator@NEffectUpdateDecorator@@@@6B@ DD FLAT:??_R4?$CDynamicPoolEx@VCAirResistanceDecorator@NEffectUpdateDecorator@@@@6B@ ; CDynamicPoolEx<NEffectUpdateDecorator::CAirResistanceDecorator>::`vftable'
	DD	FLAT:??_E?$CDynamicPoolEx@VCAirResistanceDecorator@NEffectUpdateDecorator@@@@UAEPAXI@Z
CONST	ENDS
;	COMDAT ??_7?$CDynamicPoolEx@VCGravityDecorator@NEffectUpdateDecorator@@@@6B@
CONST	SEGMENT
??_7?$CDynamicPoolEx@VCGravityDecorator@NEffectUpdateDecorator@@@@6B@ DD FLAT:??_R4?$CDynamicPoolEx@VCGravityDecorator@NEffectUpdateDecorator@@@@6B@ ; CDynamicPoolEx<NEffectUpdateDecorator::CGravityDecorator>::`vftable'
	DD	FLAT:??_E?$CDynamicPoolEx@VCGravityDecorator@NEffectUpdateDecorator@@@@UAEPAXI@Z
CONST	ENDS
;	COMDAT ??_7?$CDynamicPoolEx@VCRotationDecorator@NEffectUpdateDecorator@@@@6B@
CONST	SEGMENT
??_7?$CDynamicPoolEx@VCRotationDecorator@NEffectUpdateDecorator@@@@6B@ DD FLAT:??_R4?$CDynamicPoolEx@VCRotationDecorator@NEffectUpdateDecorator@@@@6B@ ; CDynamicPoolEx<NEffectUpdateDecorator::CRotationDecorator>::`vftable'
	DD	FLAT:??_E?$CDynamicPoolEx@VCRotationDecorator@NEffectUpdateDecorator@@@@UAEPAXI@Z
CONST	ENDS
;	COMDAT ??_C@_0CF@CBFEMJII@d?3?1ymir?5work?1special?1spheremap0@
CONST	SEGMENT
??_C@_0CF@CBFEMJII@d?3?1ymir?5work?1special?1spheremap0@ DB 'd:/ymir work'
	DB	'/special/spheremap01.jpg', 00H		; `string'
CONST	ENDS
;	COMDAT ??_C@_0CD@KIIBIHOG@d?3?1ymir?5work?1special?1spheremap?4@
CONST	SEGMENT
??_C@_0CD@KIIBIHOG@d?3?1ymir?5work?1special?1spheremap?4@ DB 'd:/ymir wor'
	DB	'k/special/spheremap.jpg', 00H		; `string'
CONST	ENDS
;	COMDAT ??_C@_0BB@EJLMKODK@?$CCCREATE_NETWORK?$CC@
CONST	SEGMENT
??_C@_0BB@EJLMKODK@?$CCCREATE_NETWORK?$CC@ DB '"CREATE_NETWORK"', 00H ; `string'
CONST	ENDS
;	COMDAT ??_C@_0BJ@CJEBNOLC@NetDevice?3?3Create?5failed@
CONST	SEGMENT
??_C@_0BJ@CJEBNOLC@NetDevice?3?3Create?5failed@ DB 'NetDevice::Create fai'
	DB	'led', 00H					; `string'
CONST	ENDS
;	COMDAT ??_C@_0BA@GLLECKCO@?$CCCREATE_CURSOR?$CC@
CONST	SEGMENT
??_C@_0BA@GLLECKCO@?$CCCREATE_CURSOR?$CC@ DB '"CREATE_CURSOR"', 00H ; `string'
CONST	ENDS
;	COMDAT ??_C@_0CA@FFOMJBHN@CMSWindow?3?3Cursors?5Create?5Error@
CONST	SEGMENT
??_C@_0CA@FFOMJBHN@CMSWindow?3?3Cursors?5Create?5Error@ DB 'CMSWindow::Cu'
	DB	'rsors Create Error', 00H			; `string'
CONST	ENDS
;	COMDAT ??_C@_0O@NOBMPFEG@CREATE_WINDOW@
CONST	SEGMENT
??_C@_0O@NOBMPFEG@CREATE_WINDOW@ DB 'CREATE_WINDOW', 00H ; `string'
CONST	ENDS
;	COMDAT ??_C@_0BJ@DBNNLGNG@CMSWindow?3?3Create?5failed@
CONST	SEGMENT
??_C@_0BJ@DBNNLGNG@CMSWindow?3?3Create?5failed@ DB 'CMSWindow::Create fai'
	DB	'led', 00H					; `string'
CONST	ENDS
;	COMDAT ??_C@_0EI@FFMLHANM@LoadLocaleData?5?9?5CPythonNetwork@
CONST	SEGMENT
??_C@_0EI@FFMLHANM@LoadLocaleData?5?9?5CPythonNetwork@ DB 'LoadLocaleData'
	DB	' - CPythonNetworkStream::LoadConvertTable(%d, %s) FAILURE', 00H ; `string'
CONST	ENDS
;	COMDAT ??_C@_0O@GCNBGGIE@?$CFs?1lang?$CFd?4cvt@
CONST	SEGMENT
??_C@_0O@GCNBGGIE@?$CFs?1lang?$CFd?4cvt@ DB '%s/lang%d.cvt', 00H ; `string'
CONST	ENDS
;	COMDAT ??_C@_0DO@PNDPPMDH@CPythonApplication?5?9?5CPythonNet@
CONST	SEGMENT
??_C@_0DO@PNDPPMDH@CPythonApplication?5?9?5CPythonNet@ DB 'CPythonApplica'
	DB	'tion - CPythonNetworkStream::LoadInsultList(%s)', 00H ; `string'
CONST	ENDS
;	COMDAT ??_C@_0CO@HCDPLHIO@LoadLocaleData?5?9?5RegisterSkillT@
CONST	SEGMENT
??_C@_0CO@HCDPLHIO@LoadLocaleData?5?9?5RegisterSkillT@ DB 'LoadLocaleData'
	DB	' - RegisterSkillTable(%s) Error', 00H	; `string'
CONST	ENDS
;	COMDAT ??_C@_0CN@NIKOAAJF@LoadLocaleData?5?9?5RegisterSkillD@
CONST	SEGMENT
??_C@_0CN@NIKOAAJF@LoadLocaleData?5?9?5RegisterSkillD@ DB 'LoadLocaleData'
	DB	' - RegisterSkillDesc(%s) Error', 00H	; `string'
CONST	ENDS
;	COMDAT ??_C@_0CI@PNCAMHEJ@LoadLocaleData?5?9?5LoadMobProto?$CI?$CF@
CONST	SEGMENT
??_C@_0CI@PNCAMHEJ@LoadLocaleData?5?9?5LoadMobProto?$CI?$CF@ DB 'LoadLoca'
	DB	'leData - LoadMobProto(%s) Error', 00H	; `string'
CONST	ENDS
;	COMDAT ??_C@_0CI@FLOPHKEN@LoadLocaleData?5?9?5LoadItemDesc?$CI?$CF@
CONST	SEGMENT
??_C@_0CI@FLOPHKEN@LoadLocaleData?5?9?5LoadItemDesc?$CI?$CF@ DB 'LoadLoca'
	DB	'leData - LoadItemDesc(%s) Error', 00H	; `string'
CONST	ENDS
;	COMDAT ??_C@_0CJ@MIFDPICO@LoadLocaleData?5?9?5LoadItemProto?$CI@
CONST	SEGMENT
??_C@_0CJ@MIFDPICO@LoadLocaleData?5?9?5LoadItemProto?$CI@ DB 'LoadLocaleD'
	DB	'ata - LoadItemProto(%s) Error', 00H		; `string'
CONST	ENDS
;	COMDAT ??_C@_0CI@MGBDCDJE@LoadLocaleData?5?9?5LoadItemList?$CI?$CF@
CONST	SEGMENT
??_C@_0CI@MGBDCDJE@LoadLocaleData?5?9?5LoadItemList?$CI?$CF@ DB 'LoadLoca'
	DB	'leData - LoadItemList(%s) Error', 00H	; `string'
CONST	ENDS
;	COMDAT ??_C@_0O@JEIJHCCG@?$CFs?1insult?4txt@
CONST	SEGMENT
??_C@_0O@JEIJHCCG@?$CFs?1insult?4txt@ DB '%s/insult.txt', 00H ; `string'
CONST	ENDS
;	COMDAT ??_C@_0BC@NLEJCAEF@?$CFs?1SkillTable?4txt@
CONST	SEGMENT
??_C@_0BC@NLEJCAEF@?$CFs?1SkillTable?4txt@ DB '%s/SkillTable.txt', 00H ; `string'
CONST	ENDS
;	COMDAT ??_C@_0BB@JDMIHPNN@?$CFs?1SkillDesc?4txt@
CONST	SEGMENT
??_C@_0BB@JDMIHPNN@?$CFs?1SkillDesc?4txt@ DB '%s/SkillDesc.txt', 00H ; `string'
CONST	ENDS
;	COMDAT ??_C@_0N@KCBCHIHM@?$CFs?1mob_proto@
CONST	SEGMENT
??_C@_0N@KCBCHIHM@?$CFs?1mob_proto@ DB '%s/mob_proto', 00H ; `string'
CONST	ENDS
;	COMDAT ??_C@_0BA@BIDKFLDM@?$CFs?1itemdesc?4txt@
CONST	SEGMENT
??_C@_0BA@BIDKFLDM@?$CFs?1itemdesc?4txt@ DB '%s/itemdesc.txt', 00H ; `string'
CONST	ENDS
;	COMDAT ??_C@_0O@MEMEPBB@?$CFs?1item_proto@
CONST	SEGMENT
??_C@_0O@MEMEPBB@?$CFs?1item_proto@ DB '%s/item_proto', 00H ; `string'
CONST	ENDS
;	COMDAT ??_C@_0BB@EOELDOLA@?$CFs?1item_list?4txt@
CONST	SEGMENT
??_C@_0BB@EOELDOLA@?$CFs?1item_list?4txt@ DB '%s/item_list.txt', 00H ; `string'
CONST	ENDS
;	COMDAT ??_C@_0BN@JAHEKIGK@CreateDevice?3?5Unknown?5Error?$CB@
CONST	SEGMENT
??_C@_0BN@JAHEKIGK@CreateDevice?3?5Unknown?5Error?$CB@ DB 'CreateDevice: '
	DB	'Unknown Error!', 00H			; `string'
CONST	ENDS
;	COMDAT ??_C@_0O@BAEJJDKB@UNKNOWN_ERROR@
CONST	SEGMENT
??_C@_0O@BAEJJDKB@UNKNOWN_ERROR@ DB 'UNKNOWN_ERROR', 00H ; `string'
CONST	ENDS
;	COMDAT ??_C@_0CB@JLAAEKGJ@CreateDevice?3?5GetDevCaps2?5faile@
CONST	SEGMENT
??_C@_0CB@JLAAEKGJ@CreateDevice?3?5GetDevCaps2?5faile@ DB 'CreateDevice: '
	DB	'GetDevCaps2 failed', 00H			; `string'
CONST	ENDS
;	COMDAT ??_C@_0BD@IHNLMMLJ@GetDevCaps2?5failed@
CONST	SEGMENT
??_C@_0BD@IHNLMMLJ@GetDevCaps2?5failed@ DB 'GetDevCaps2 failed', 00H ; `string'
CONST	ENDS
;	COMDAT ??_C@_0CA@DLHDILBB@CreateDevice?3?5GetDevCaps?5failed@
CONST	SEGMENT
??_C@_0CA@DLHDILBB@CreateDevice?3?5GetDevCaps?5failed@ DB 'CreateDevice: '
	DB	'GetDevCaps failed', 00H			; `string'
CONST	ENDS
;	COMDAT ??_C@_0BC@IMJEDJEA@GetDevCaps?5failed@
CONST	SEGMENT
??_C@_0BC@IMJEDJEA@GetDevCaps?5failed@ DB 'GetDevCaps failed', 00H ; `string'
CONST	ENDS
;	COMDAT ??_C@_0CH@DEBFNBPL@CreateDevice?3?5Change?5the?5screen@
CONST	SEGMENT
??_C@_0CH@DEBFNBPL@CreateDevice?3?5Change?5the?5screen@ DB 'CreateDevice:'
	DB	' Change the screen format', 00H		; `string'
CONST	ENDS
;	COMDAT ??_C@_0O@DAEHMKOB@CREATE_FORMAT@
CONST	SEGMENT
??_C@_0O@DAEHMKOB@CREATE_FORMAT@ DB 'CREATE_FORMAT', 00H ; `string'
CONST	ENDS
;	COMDAT ??_C@_0CK@KMPBIDGP@CreateDevice?3?5GraphicDevice?5cre@
CONST	SEGMENT
??_C@_0CK@KMPBIDGP@CreateDevice?3?5GraphicDevice?5cre@ DB 'CreateDevice: '
	DB	'GraphicDevice create failed', 00H		; `string'
CONST	ENDS
;	COMDAT ??_C@_0O@CMPMDOEH@CREATE_DEVICE@
CONST	SEGMENT
??_C@_0O@CMPMDOEH@CREATE_DEVICE@ DB 'CREATE_DEVICE', 00H ; `string'
CONST	ENDS
;	COMDAT ??_C@_0DK@GACPAJMM@CreateDevice?3?5DirectX?58?41?5or?5gr@
CONST	SEGMENT
??_C@_0DK@GACPAJMM@CreateDevice?3?5DirectX?58?41?5or?5gr@ DB 'CreateDevic'
	DB	'e: DirectX 8.1 or greater required to run game', 00H ; `string'
CONST	ENDS
;	COMDAT ??_C@_0BC@NKAKBNDM@CREATE_NO_DIRECTX@
CONST	SEGMENT
??_C@_0BC@NKAKBNDM@CREATE_NO_DIRECTX@ DB 'CREATE_NO_DIRECTX', 00H ; `string'
CONST	ENDS
;	COMDAT ??_C@_0CD@GGLEAAKE@CreateDevice?3?5Enum?5?$CG?5Detect?5fai@
CONST	SEGMENT
??_C@_0CD@GGLEAAKE@CreateDevice?3?5Enum?5?$CG?5Detect?5fai@ DB 'CreateDev'
	DB	'ice: Enum & Detect failed', 00H		; `string'
CONST	ENDS
;	COMDAT ??_C@_0BN@OAKBEJJN@CREATE_NO_APPROPRIATE_DEVICE@
CONST	SEGMENT
??_C@_0BN@OAKBEJJN@CREATE_NO_APPROPRIATE_DEVICE@ DB 'CREATE_NO_APPROPRIAT'
	DB	'E_DEVICE', 00H				; `string'
CONST	ENDS
;	COMDAT ??_C@_0M@MOGGPFAH@WARN_NO_TNL@
CONST	SEGMENT
??_C@_0M@MOGGPFAH@WARN_NO_TNL@ DB 'WARN_NO_TNL', 00H	; `string'
CONST	ENDS
;	COMDAT ??_C@_0BA@NOHKOOIE@WARN_BAD_DRIVER@
CONST	SEGMENT
??_C@_0BA@NOHKOOIE@WARN_BAD_DRIVER@ DB 'WARN_BAD_DRIVER', 00H ; `string'
CONST	ENDS
;	COMDAT ??_C@_0BD@OJBILBDC@FrameSkip?5?$LK?$LI?A?$KE?5?$CFd?6@
CONST	SEGMENT
??_C@_0BD@OJBILBDC@FrameSkip?5?$LK?$LI?A?$KE?5?$CFd?6@ DB 'FrameSkip ', 0baH
	DB	0b8H, 0c1H, 0a4H, ' %d', 0aH, 00H		; `string'
CONST	ENDS
;	COMDAT ?s_fAveRenderTime@?EL@??Process@CPythonApplication@@QAE_NXZ@4MA
_DATA	SEGMENT
?s_fAveRenderTime@?EL@??Process@CPythonApplication@@QAE_NXZ@4MA DD 041800000r ; 16 ; `CPythonApplication::Process'::`75'::s_fAveRenderTime
_DATA	ENDS
;	COMDAT ??_C@_0L@PAGGCBDD@GU?4POS?5?$CFd?6@
CONST	SEGMENT
??_C@_0L@PAGGCBDD@GU?4POS?5?$CFd?6@ DB 'GU.POS %d', 0aH, 00H ; `string'
CONST	ENDS
;	COMDAT ??_C@_0L@KNCOIAL@GU?4PLR?5?$CFd?6@
CONST	SEGMENT
??_C@_0L@KNCOIAL@GU?4PLR?5?$CFd?6@ DB 'GU.PLR %d', 0aH, 00H ; `string'
CONST	ENDS
;	COMDAT ??_C@_0L@MPJHKAOM@GU?4ITM?5?$CFd?6@
CONST	SEGMENT
??_C@_0L@MPJHKAOM@GU?4ITM?5?$CFd?6@ DB 'GU.ITM %d', 0aH, 00H ; `string'
CONST	ENDS
;	COMDAT ??_C@_0L@NKMBCAGE@GU?4FLY?5?$CFd?6@
CONST	SEGMENT
??_C@_0L@NKMBCAGE@GU?4FLY?5?$CFd?6@ DB 'GU.FLY %d', 0aH, 00H ; `string'
CONST	ENDS
;	COMDAT ??_C@_0L@EMKAGLBH@GU?4EFT?5?$CFd?6@
CONST	SEGMENT
??_C@_0L@EMKAGLBH@GU?4EFT?5?$CFd?6@ DB 'GU.EFT %d', 0aH, 00H ; `string'
CONST	ENDS
;	COMDAT ??_C@_0L@MKJPKNA@GU?4CHR?5?$CFd?6@
CONST	SEGMENT
??_C@_0L@MKJPKNA@GU?4CHR?5?$CFd?6@ DB 'GU.CHR %d', 0aH, 00H ; `string'
CONST	ENDS
;	COMDAT ??_C@_0L@BLLECFKE@GU?4GEM?5?$CFd?6@
CONST	SEGMENT
??_C@_0L@BLLECFKE@GU?4GEM?5?$CFd?6@ DB 'GU.GEM %d', 0aH, 00H ; `string'
CONST	ENDS
;	COMDAT ??_C@_09JGPPFKPH@GU?4BG?5?$CFd?6@
CONST	SEGMENT
??_C@_09JGPPFKPH@GU?4BG?5?$CFd?6@ DB 'GU.BG %d', 0aH, 00H ; `string'
CONST	ENDS
;	COMDAT ??_C@_0L@IGEOOJOO@GU?4MPS?5?$CFd?6@
CONST	SEGMENT
??_C@_0L@IGEOOJOO@GU?4MPS?5?$CFd?6@ DB 'GU.MPS %d', 0aH, 00H ; `string'
CONST	ENDS
;	COMDAT ??_C@_0L@HCBFJPAB@GU?4SCR?5?$CFd?6@
CONST	SEGMENT
??_C@_0L@HCBFJPAB@GU?4SCR?5?$CFd?6@ DB 'GU.SCR %d', 0aH, 00H ; `string'
CONST	ENDS
;	COMDAT ??_C@_0L@JHBDHKIG@GU?4GMP?5?$CFd?6@
CONST	SEGMENT
??_C@_0L@JHBDHKIG@GU?4GMP?5?$CFd?6@ DB 'GU.GMP %d', 0aH, 00H ; `string'
CONST	ENDS
;	COMDAT ??_C@_0BH@HPIDKEA@GU?4Total?5?$CFd?5?$CITime?5?$CFd?$CJ?6@
CONST	SEGMENT
??_C@_0BH@HPIDKEA@GU?4Total?5?$CFd?5?$CITime?5?$CFd?$CJ?6@ DB 'GU.Total %'
	DB	'd (Time %d)', 0aH, 00H			; `string'
CONST	ENDS
;	COMDAT ??_C@_0BF@NHIIGIH@perf_game_update?4txt@
CONST	SEGMENT
??_C@_0BF@NHIIGIH@perf_game_update?4txt@ DB 'perf_game_update.txt', 00H ; `string'
CONST	ENDS
;	COMDAT ??_C@_0O@EEAHGPFP@GR?4BG?4BLK?5?$CFd?6@
CONST	SEGMENT
??_C@_0O@EEAHGPFP@GR?4BG?4BLK?5?$CFd?6@ DB 'GR.BG.BLK %d', 0aH, 00H ; `string'
CONST	ENDS
;	COMDAT ??_C@_0L@DIBNDLBN@GR?4FLY?5?$CFd?6@
CONST	SEGMENT
??_C@_0L@DIBNDLBN@GR?4FLY?5?$CFd?6@ DB 'GR.FLY %d', 0aH, 00H ; `string'
CONST	ENDS
;	COMDAT ??_C@_0L@CNELLLJF@GR?4ITM?5?$CFd?6@
CONST	SEGMENT
??_C@_0L@CNELLLJF@GR?4ITM?5?$CFd?6@ DB 'GR.ITM %d', 0aH, 00H ; `string'
CONST	ENDS
;	COMDAT ??_C@_0L@KOHMHAGO@GR?4EFT?5?$CFd?6@
CONST	SEGMENT
??_C@_0L@KOHMHAGO@GR?4EFT?5?$CFd?6@ DB 'GR.EFT %d', 0aH, 00H ; `string'
CONST	ENDS
;	COMDAT ??_C@_0O@BIDCIJEG@GR?4BG?4EFT?5?$CFd?6@
CONST	SEGMENT
??_C@_0O@BIDCIJEG@GR?4BG?4EFT?5?$CFd?6@ DB 'GR.BG.EFT %d', 0aH, 00H ; `string'
CONST	ENDS
;	COMDAT ??_C@_0O@LENBOK@GR?4BG?4WTR?5?$CFd?6@
CONST	SEGMENT
??_C@_0O@LENBOK@GR?4BG?4WTR?5?$CFd?6@ DB 'GR.BG.WTR %d', 0aH, 00H ; `string'
CONST	ENDS
;	COMDAT ??_C@_0L@OOHFOBKJ@GR?4CHR?5?$CFd?6@
CONST	SEGMENT
??_C@_0L@OOHFOBKJ@GR?4CHR?5?$CFd?6@ DB 'GR.CHR %d', 0aH, 00H ; `string'
CONST	ENDS
;	COMDAT ??_C@_0P@EJKDFAIB@GR?4BG?4MAIN?5?$CFd?6@
CONST	SEGMENT
??_C@_0P@EJKDFAIB@GR?4BG?4MAIN?5?$CFd?6@ DB 'GR.BG.MAIN %d', 0aH, 00H ; `string'
CONST	ENDS
;	COMDAT ??_C@_0O@HJPLNNBE@GR?4BG?4CLD?5?$CFd?6@
CONST	SEGMENT
??_C@_0O@HJPLNNBE@GR?4BG?4CLD?5?$CFd?6@ DB 'GR.BG.CLD %d', 0aH, 00H ; `string'
CONST	ENDS
;	COMDAT ??_C@_0O@JENIKJAN@GR?4BG?4LEN?5?$CFd?6@
CONST	SEGMENT
??_C@_0O@JENIKJAN@GR?4BG?4LEN?5?$CFd?6@ DB 'GR.BG.LEN %d', 0aH, 00H ; `string'
CONST	ENDS
;	COMDAT ??_C@_0O@HPKPMDPE@GR?4BG?4SKY?5?$CFd?6@
CONST	SEGMENT
??_C@_0O@HPKPMDPE@GR?4BG?4SKY?5?$CFd?6@ DB 'GR.BG.SKY %d', 0aH, 00H ; `string'
CONST	ENDS
;	COMDAT ??_C@_0L@CDOGKGFB@GR?4CLL?5?$CFd?6@
CONST	SEGMENT
??_C@_0L@CDOGKGFB@GR?4CLL?5?$CFd?6@ DB 'GR.CLL %d', 0aH, 00H ; `string'
CONST	ENDS
;	COMDAT ??_C@_0L@OEOJMFCF@GR?4STT?5?$CFd?6@
CONST	SEGMENT
??_C@_0L@OEOJMFCF@GR?4STT?5?$CFd?6@ DB 'GR.STT %d', 0aH, 00H ; `string'
CONST	ENDS
;	COMDAT ??_C@_0L@MCADEBDB@GR?4SHW?5?$CFd?6@
CONST	SEGMENT
??_C@_0L@MCADEBDB@GR?4SHW?5?$CFd?6@ DB 'GR.SHW %d', 0aH, 00H ; `string'
CONST	ENDS
;	COMDAT ??_C@_0O@PLGAMGBI@GR?4EFT?4UP?5?$CFd?6@
CONST	SEGMENT
??_C@_0O@PLGAMGBI@GR?4EFT?4UP?5?$CFd?6@ DB 'GR.EFT.UP %d', 0aH, 00H ; `string'
CONST	ENDS
;	COMDAT ??_C@_0L@EGAPCDKD@GR?4DFM?5?$CFd?6@
CONST	SEGMENT
??_C@_0L@EGAPCDKD@GR?4DFM?5?$CFd?6@ DB 'GR.DFM %d', 0aH, 00H ; `string'
CONST	ENDS
;	COMDAT ??_C@_0BH@GCCBAEAA@GR?4Total?5?$CFd?5?$CITime?5?$CFd?$CJ?6@
CONST	SEGMENT
??_C@_0BH@GCCBAEAA@GR?4Total?5?$CFd?5?$CITime?5?$CFd?$CJ?6@ DB 'GR.Total '
	DB	'%d (Time %d)', 0aH, 00H			; `string'
CONST	ENDS
;	COMDAT ??_C@_0BF@OHHAPIAL@perf_game_render?4txt@
CONST	SEGMENT
??_C@_0BF@OHHAPIAL@perf_game_render?4txt@ DB 'perf_game_render.txt', 00H ; `string'
CONST	ENDS
;	COMDAT ??_C@_01NOFIACDB@w@
CONST	SEGMENT
??_C@_01NOFIACDB@w@ DB 'w', 00H				; `string'
CONST	ENDS
;	COMDAT ??_C@_0M@EHJKIBDK@Abort?$CB?$CB?$CB?$CB?6?6@
CONST	SEGMENT
??_C@_0M@EHJKIBDK@Abort?$CB?$CB?$CB?$CB?6?6@ DB 'Abort!!!!', 0aH, 0aH, 00H ; `string'
CONST	ENDS
;	COMDAT ??_C@_0GN@LLBDNFAM@?$DN?$DN?$DN?$DN?$DN?$DN?$DN?$DN?$DN?$DN?$DN?$DN?$DN?$DN?$DN?$DN?$DN?$DN?$DN?$DN?$DN?$DN?$DN?$DN?$DN?$DN?$DN?$DN?$DN?$DN?$DN@
CONST	SEGMENT
??_C@_0GN@LLBDNFAM@?$DN?$DN?$DN?$DN?$DN?$DN?$DN?$DN?$DN?$DN?$DN?$DN?$DN?$DN?$DN?$DN?$DN?$DN?$DN?$DN?$DN?$DN?$DN?$DN?$DN?$DN?$DN?$DN?$DN?$DN?$DN@ DB '='
	DB	'============================================================='
	DB	'==============================================', 00H ; `string'
CONST	ENDS
;	COMDAT ??_7CPythonApplication@@6BIAbstractApplication@@@
CONST	SEGMENT
??_7CPythonApplication@@6BIAbstractApplication@@@ DD FLAT:??_R4CPythonApplication@@6BIAbstractApplication@@@ ; CPythonApplication::`vftable'
	DD	FLAT:??_ECPythonApplication@@WCA@AEPAXI@Z
	DD	FLAT:?GetMousePosition@CPythonApplication@@UAEXPAUtagPOINT@@@Z
	DD	FLAT:?GetGlobalTime@CPythonApplication@@UAEMXZ
	DD	FLAT:?GetGlobalElapsedTime@CPythonApplication@@UAEMXZ
	DD	FLAT:?SkipRenderBuffering@CPythonApplication@@UAEXK@Z
	DD	FLAT:?SetServerTime@CPythonApplication@@UAEXJ@Z
	DD	FLAT:?SetCenterPosition@CPythonApplication@@UAEXMMM@Z
	DD	FLAT:?SetEventCamera@CPythonApplication@@UAEXABUSCameraSetting@IAbstractApplication@@@Z
	DD	FLAT:?BlendEventCamera@CPythonApplication@@UAEXABUSCameraSetting@IAbstractApplication@@M@Z
	DD	FLAT:?SetDefaultCamera@CPythonApplication@@UAEXXZ
	DD	FLAT:?RunIMEUpdate@CPythonApplication@@UAEXXZ
	DD	FLAT:?RunIMETabEvent@CPythonApplication@@UAEXXZ
	DD	FLAT:?RunIMEReturnEvent@CPythonApplication@@UAEXXZ
	DD	FLAT:?RunIMEChangeCodePage@CPythonApplication@@UAEXXZ
	DD	FLAT:?RunIMEOpenCandidateListEvent@CPythonApplication@@UAEXXZ
	DD	FLAT:?RunIMECloseCandidateListEvent@CPythonApplication@@UAEXXZ
	DD	FLAT:?RunIMEOpenReadingWndEvent@CPythonApplication@@UAEXXZ
	DD	FLAT:?RunIMECloseReadingWndEvent@CPythonApplication@@UAEXXZ
CONST	ENDS
;	COMDAT ??_7CPythonApplication@@6BCInputKeyboard@@@
CONST	SEGMENT
??_7CPythonApplication@@6BCInputKeyboard@@@ DD FLAT:??_R4CPythonApplication@@6BCInputKeyboard@@@ ; CPythonApplication::`vftable'
	DD	FLAT:??_ECPythonApplication@@WBM@AEPAXI@Z
	DD	FLAT:?OnKeyDown@CPythonApplication@@MAEXH@Z
	DD	FLAT:?OnKeyUp@CPythonApplication@@MAEXH@Z
CONST	ENDS
;	COMDAT ??_7CPythonApplication@@6BCMSApplication@@@
CONST	SEGMENT
??_7CPythonApplication@@6BCMSApplication@@@ DD FLAT:??_R4CPythonApplication@@6BCMSApplication@@@ ; CPythonApplication::`vftable'
	DD	FLAT:??_ECPythonApplication@@UAEPAXI@Z
	DD	FLAT:?WindowProcedure@CPythonApplication@@MAEJPAUHWND__@@IIJ@Z
	DD	FLAT:?OnSize@CMSWindow@@UAEXIJ@Z
CONST	ENDS
;	COMDAT ??_7CMovieMan@@6B@
CONST	SEGMENT
??_7CMovieMan@@6B@ DD FLAT:??_R4CMovieMan@@6B@		; CMovieMan::`vftable'
	DD	FLAT:??_ECMovieMan@@UAEPAXI@Z
CONST	ENDS
;	COMDAT ??_7?$CSingleton@VCMovieMan@@@@6B@
CONST	SEGMENT
??_7?$CSingleton@VCMovieMan@@@@6B@ DD FLAT:??_R4?$CSingleton@VCMovieMan@@@@6B@ ; CSingleton<CMovieMan>::`vftable'
	DD	FLAT:??_E?$CSingleton@VCMovieMan@@@@UAEPAXI@Z
CONST	ENDS
;	COMDAT ??_7IAbstractApplication@@6B@
CONST	SEGMENT
??_7IAbstractApplication@@6B@ DD FLAT:??_R4IAbstractApplication@@6B@ ; IAbstractApplication::`vftable'
	DD	FLAT:??_EIAbstractApplication@@UAEPAXI@Z
	DD	FLAT:__purecall
	DD	FLAT:__purecall
	DD	FLAT:__purecall
	DD	FLAT:__purecall
	DD	FLAT:__purecall
	DD	FLAT:__purecall
	DD	FLAT:__purecall
	DD	FLAT:__purecall
	DD	FLAT:__purecall
	DD	FLAT:__purecall
	DD	FLAT:__purecall
	DD	FLAT:__purecall
	DD	FLAT:__purecall
	DD	FLAT:__purecall
	DD	FLAT:__purecall
	DD	FLAT:__purecall
	DD	FLAT:__purecall
CONST	ENDS
;	COMDAT ??_7?$TAbstractSingleton@VIAbstractApplication@@@@6B@
CONST	SEGMENT
??_7?$TAbstractSingleton@VIAbstractApplication@@@@6B@ DD FLAT:??_R4?$TAbstractSingleton@VIAbstractApplication@@@@6B@ ; TAbstractSingleton<IAbstractApplication>::`vftable'
	DD	FLAT:??_E?$TAbstractSingleton@VIAbstractApplication@@@@UAEPAXI@Z
CONST	ENDS
;	COMDAT ??_7CGuildMarkUploader@@6B?$CSingleton@VCGuildMarkUploader@@@@@
CONST	SEGMENT
??_7CGuildMarkUploader@@6B?$CSingleton@VCGuildMarkUploader@@@@@ DD FLAT:??_R4CGuildMarkUploader@@6B?$CSingleton@VCGuildMarkUploader@@@@@ ; CGuildMarkUploader::`vftable'
	DD	FLAT:??_ECGuildMarkUploader@@WHM@AEPAXI@Z
CONST	ENDS
;	COMDAT ??_7CGuildMarkUploader@@6BCNetworkStream@@@
CONST	SEGMENT
??_7CGuildMarkUploader@@6BCNetworkStream@@@ DD FLAT:??_R4CGuildMarkUploader@@6BCNetworkStream@@@ ; CGuildMarkUploader::`vftable'
	DD	FLAT:??_ECGuildMarkUploader@@UAEPAXI@Z
	DD	FLAT:?OnConnectSuccess@CNetworkStream@@MAEXXZ
	DD	FLAT:?OnConnectFailure@CNetworkStream@@MAEXXZ
	DD	FLAT:?OnRemoteDisconnect@CNetworkStream@@MAEXXZ
	DD	FLAT:?OnDisconnect@CNetworkStream@@MAEXXZ
	DD	FLAT:?OnProcess@CNetworkStream@@MAE_NXZ
CONST	ENDS
;	COMDAT ??_7?$CSingleton@VCGuildMarkUploader@@@@6B@
CONST	SEGMENT
??_7?$CSingleton@VCGuildMarkUploader@@@@6B@ DD FLAT:??_R4?$CSingleton@VCGuildMarkUploader@@@@6B@ ; CSingleton<CGuildMarkUploader>::`vftable'
	DD	FLAT:??_E?$CSingleton@VCGuildMarkUploader@@@@UAEPAXI@Z
CONST	ENDS
;	COMDAT ??_R1A@?0A@EA@bad_array_new_length@std@@8
rdata$r	SEGMENT
??_R1A@?0A@EA@bad_array_new_length@std@@8 DD FLAT:??_R0?AVbad_array_new_length@std@@@8 ; std::bad_array_new_length::`RTTI Base Class Descriptor at (0,-1,0,64)'
	DD	02H
	DD	00H
	DD	0ffffffffH
	DD	00H
	DD	040H
	DD	FLAT:??_R3bad_array_new_length@std@@8
rdata$r	ENDS
;	COMDAT ??_R2bad_array_new_length@std@@8
rdata$r	SEGMENT
??_R2bad_array_new_length@std@@8 DD FLAT:??_R1A@?0A@EA@bad_array_new_length@std@@8 ; std::bad_array_new_length::`RTTI Base Class Array'
	DD	FLAT:??_R1A@?0A@EA@bad_alloc@std@@8
	DD	FLAT:??_R1A@?0A@EA@exception@std@@8
rdata$r	ENDS
;	COMDAT ??_R3bad_array_new_length@std@@8
rdata$r	SEGMENT
??_R3bad_array_new_length@std@@8 DD 00H			; std::bad_array_new_length::`RTTI Class Hierarchy Descriptor'
	DD	00H
	DD	03H
	DD	FLAT:??_R2bad_array_new_length@std@@8
rdata$r	ENDS
;	COMDAT ??_R4bad_array_new_length@std@@6B@
rdata$r	SEGMENT
??_R4bad_array_new_length@std@@6B@ DD 00H		; std::bad_array_new_length::`RTTI Complete Object Locator'
	DD	00H
	DD	00H
	DD	FLAT:??_R0?AVbad_array_new_length@std@@@8
	DD	FLAT:??_R3bad_array_new_length@std@@8
rdata$r	ENDS
;	COMDAT ??_R1A@?0A@EA@bad_alloc@std@@8
rdata$r	SEGMENT
??_R1A@?0A@EA@bad_alloc@std@@8 DD FLAT:??_R0?AVbad_alloc@std@@@8 ; std::bad_alloc::`RTTI Base Class Descriptor at (0,-1,0,64)'
	DD	01H
	DD	00H
	DD	0ffffffffH
	DD	00H
	DD	040H
	DD	FLAT:??_R3bad_alloc@std@@8
rdata$r	ENDS
;	COMDAT ??_R2bad_alloc@std@@8
rdata$r	SEGMENT
??_R2bad_alloc@std@@8 DD FLAT:??_R1A@?0A@EA@bad_alloc@std@@8 ; std::bad_alloc::`RTTI Base Class Array'
	DD	FLAT:??_R1A@?0A@EA@exception@std@@8
rdata$r	ENDS
;	COMDAT ??_R3bad_alloc@std@@8
rdata$r	SEGMENT
??_R3bad_alloc@std@@8 DD 00H				; std::bad_alloc::`RTTI Class Hierarchy Descriptor'
	DD	00H
	DD	02H
	DD	FLAT:??_R2bad_alloc@std@@8
rdata$r	ENDS
;	COMDAT ??_R4bad_alloc@std@@6B@
rdata$r	SEGMENT
??_R4bad_alloc@std@@6B@ DD 00H				; std::bad_alloc::`RTTI Complete Object Locator'
	DD	00H
	DD	00H
	DD	FLAT:??_R0?AVbad_alloc@std@@@8
	DD	FLAT:??_R3bad_alloc@std@@8
rdata$r	ENDS
;	COMDAT ??_R1A@?0A@EA@exception@std@@8
rdata$r	SEGMENT
??_R1A@?0A@EA@exception@std@@8 DD FLAT:??_R0?AVexception@std@@@8 ; std::exception::`RTTI Base Class Descriptor at (0,-1,0,64)'
	DD	00H
	DD	00H
	DD	0ffffffffH
	DD	00H
	DD	040H
	DD	FLAT:??_R3exception@std@@8
rdata$r	ENDS
;	COMDAT ??_R2exception@std@@8
rdata$r	SEGMENT
??_R2exception@std@@8 DD FLAT:??_R1A@?0A@EA@exception@std@@8 ; std::exception::`RTTI Base Class Array'
rdata$r	ENDS
;	COMDAT ??_R3exception@std@@8
rdata$r	SEGMENT
??_R3exception@std@@8 DD 00H				; std::exception::`RTTI Class Hierarchy Descriptor'
	DD	00H
	DD	01H
	DD	FLAT:??_R2exception@std@@8
rdata$r	ENDS
;	COMDAT ??_R4exception@std@@6B@
rdata$r	SEGMENT
??_R4exception@std@@6B@ DD 00H				; std::exception::`RTTI Complete Object Locator'
	DD	00H
	DD	00H
	DD	FLAT:??_R0?AVexception@std@@@8
	DD	FLAT:??_R3exception@std@@8
rdata$r	ENDS
;	COMDAT ??_C@_00CNPNBAHC@@
CONST	SEGMENT
??_C@_00CNPNBAHC@@ DB 00H				; `string'
CONST	ENDS
;	COMDAT ??_C@_0BA@JFNIOLAK@string?5too?5long@
CONST	SEGMENT
??_C@_0BA@JFNIOLAK@string?5too?5long@ DB 'string too long', 00H ; `string'
CONST	ENDS
;	COMDAT __CT??_R0?AVexception@std@@@8??0exception@std@@QAE@ABV01@@Z12
xdata$x	SEGMENT
__CT??_R0?AVexception@std@@@8??0exception@std@@QAE@ABV01@@Z12 DD 00H
	DD	FLAT:??_R0?AVexception@std@@@8
	DD	00H
	DD	0ffffffffH
	ORG $+4
	DD	0cH
	DD	FLAT:??0exception@std@@QAE@ABV01@@Z
xdata$x	ENDS
;	COMDAT ??_R0?AVexception@std@@@8
data$r	SEGMENT
??_R0?AVexception@std@@@8 DD FLAT:??_7type_info@@6B@	; std::exception `RTTI Type Descriptor'
	DD	00H
	DB	'.?AVexception@std@@', 00H
data$r	ENDS
;	COMDAT __CT??_R0?AVbad_alloc@std@@@8??0bad_alloc@std@@QAE@ABV01@@Z12
xdata$x	SEGMENT
__CT??_R0?AVbad_alloc@std@@@8??0bad_alloc@std@@QAE@ABV01@@Z12 DD 010H
	DD	FLAT:??_R0?AVbad_alloc@std@@@8
	DD	00H
	DD	0ffffffffH
	ORG $+4
	DD	0cH
	DD	FLAT:??0bad_alloc@std@@QAE@ABV01@@Z
xdata$x	ENDS
;	COMDAT ??_R0?AVbad_alloc@std@@@8
data$r	SEGMENT
??_R0?AVbad_alloc@std@@@8 DD FLAT:??_7type_info@@6B@	; std::bad_alloc `RTTI Type Descriptor'
	DD	00H
	DB	'.?AVbad_alloc@std@@', 00H
data$r	ENDS
;	COMDAT __CT??_R0?AVbad_array_new_length@std@@@8??0bad_array_new_length@std@@QAE@ABV01@@Z12
xdata$x	SEGMENT
__CT??_R0?AVbad_array_new_length@std@@@8??0bad_array_new_length@std@@QAE@ABV01@@Z12 DD 00H
	DD	FLAT:??_R0?AVbad_array_new_length@std@@@8
	DD	00H
	DD	0ffffffffH
	ORG $+4
	DD	0cH
	DD	FLAT:??0bad_array_new_length@std@@QAE@ABV01@@Z
xdata$x	ENDS
;	COMDAT ??_R0?AVbad_array_new_length@std@@@8
data$r	SEGMENT
??_R0?AVbad_array_new_length@std@@@8 DD FLAT:??_7type_info@@6B@ ; std::bad_array_new_length `RTTI Type Descriptor'
	DD	00H
	DB	'.?AVbad_array_new_length@std@@', 00H
data$r	ENDS
;	COMDAT __CTA3?AVbad_array_new_length@std@@
xdata$x	SEGMENT
__CTA3?AVbad_array_new_length@std@@ DD 03H
	DD	FLAT:__CT??_R0?AVbad_array_new_length@std@@@8??0bad_array_new_length@std@@QAE@ABV01@@Z12
	DD	FLAT:__CT??_R0?AVbad_alloc@std@@@8??0bad_alloc@std@@QAE@ABV01@@Z12
	DD	FLAT:__CT??_R0?AVexception@std@@@8??0exception@std@@QAE@ABV01@@Z12
xdata$x	ENDS
;	COMDAT __TI3?AVbad_array_new_length@std@@
xdata$x	SEGMENT
__TI3?AVbad_array_new_length@std@@ DD 00H
	DD	FLAT:??1bad_array_new_length@std@@UAE@XZ
	DD	00H
	DD	FLAT:__CTA3?AVbad_array_new_length@std@@
xdata$x	ENDS
;	COMDAT ??_C@_0BF@KINCDENJ@bad?5array?5new?5length@
CONST	SEGMENT
??_C@_0BF@KINCDENJ@bad?5array?5new?5length@ DB 'bad array new length', 00H ; `string'
CONST	ENDS
;	COMDAT ??_7bad_array_new_length@std@@6B@
CONST	SEGMENT
??_7bad_array_new_length@std@@6B@ DD FLAT:??_R4bad_array_new_length@std@@6B@ ; std::bad_array_new_length::`vftable'
	DD	FLAT:??_Ebad_array_new_length@std@@UAEPAXI@Z
	DD	FLAT:?what@exception@std@@UBEPBDXZ
CONST	ENDS
;	COMDAT ??_7bad_alloc@std@@6B@
CONST	SEGMENT
??_7bad_alloc@std@@6B@ DD FLAT:??_R4bad_alloc@std@@6B@	; std::bad_alloc::`vftable'
	DD	FLAT:??_Ebad_alloc@std@@UAEPAXI@Z
	DD	FLAT:?what@exception@std@@UBEPBDXZ
CONST	ENDS
;	COMDAT ??_C@_0BC@EOODALEL@Unknown?5exception@
CONST	SEGMENT
??_C@_0BC@EOODALEL@Unknown?5exception@ DB 'Unknown exception', 00H ; `string'
CONST	ENDS
;	COMDAT ??_7exception@std@@6B@
CONST	SEGMENT
??_7exception@std@@6B@ DD FLAT:??_R4exception@std@@6B@	; std::exception::`vftable'
	DD	FLAT:??_Eexception@std@@UAEPAXI@Z
	DD	FLAT:?what@exception@std@@UBEPBDXZ
CONST	ENDS
;	COMDAT xdata$x
xdata$x	SEGMENT
__ehfuncinfo$??1?$CDynamicPoolEx@VCHeaderDecorator@NEffectUpdateDecorator@@@@UAE@XZ DD 019930522H
	DD	00H
	DD	00H
	DD	2 DUP(00H)
	DD	2 DUP(00H)
	DD	00H
	DD	05H
xdata$x	ENDS
;	COMDAT xdata$x
xdata$x	SEGMENT
__ehfuncinfo$??1?$CDynamicPoolEx@VCNullDecorator@NEffectUpdateDecorator@@@@UAE@XZ DD 019930522H
	DD	00H
	DD	00H
	DD	2 DUP(00H)
	DD	2 DUP(00H)
	DD	00H
	DD	05H
xdata$x	ENDS
;	COMDAT xdata$x
xdata$x	SEGMENT
__ehfuncinfo$??1?$CDynamicPoolEx@VCTextureAnimationCWDecorator@NEffectUpdateDecorator@@@@UAE@XZ DD 019930522H
	DD	00H
	DD	00H
	DD	2 DUP(00H)
	DD	2 DUP(00H)
	DD	00H
	DD	05H
xdata$x	ENDS
;	COMDAT xdata$x
xdata$x	SEGMENT
__ehfuncinfo$??1?$CDynamicPoolEx@VCTextureAnimationCCWDecorator@NEffectUpdateDecorator@@@@UAE@XZ DD 019930522H
	DD	00H
	DD	00H
	DD	2 DUP(00H)
	DD	2 DUP(00H)
	DD	00H
	DD	05H
xdata$x	ENDS
;	COMDAT xdata$x
xdata$x	SEGMENT
__ehfuncinfo$??1?$CDynamicPoolEx@VCTextureAnimationRandomDecorator@NEffectUpdateDecorator@@@@UAE@XZ DD 019930522H
	DD	00H
	DD	00H
	DD	2 DUP(00H)
	DD	2 DUP(00H)
	DD	00H
	DD	05H
xdata$x	ENDS
;	COMDAT xdata$x
xdata$x	SEGMENT
__ehfuncinfo$??1?$CDynamicPoolEx@VCAirResistanceDecorator@NEffectUpdateDecorator@@@@UAE@XZ DD 019930522H
	DD	00H
	DD	00H
	DD	2 DUP(00H)
	DD	2 DUP(00H)
	DD	00H
	DD	05H
xdata$x	ENDS
;	COMDAT xdata$x
xdata$x	SEGMENT
__ehfuncinfo$??1?$CDynamicPoolEx@VCGravityDecorator@NEffectUpdateDecorator@@@@UAE@XZ DD 019930522H
	DD	00H
	DD	00H
	DD	2 DUP(00H)
	DD	2 DUP(00H)
	DD	00H
	DD	05H
xdata$x	ENDS
;	COMDAT xdata$x
xdata$x	SEGMENT
__ehfuncinfo$??1?$CDynamicPoolEx@VCRotationDecorator@NEffectUpdateDecorator@@@@UAE@XZ DD 019930522H
	DD	00H
	DD	00H
	DD	2 DUP(00H)
	DD	2 DUP(00H)
	DD	00H
	DD	05H
xdata$x	ENDS
;	COMDAT xdata$x
xdata$x	SEGMENT
__unwindtable$?Process@CPythonApplication@@QAE_NXZ DD 0ffffffffH
	DD	FLAT:__unwindfunclet$?Process@CPythonApplication@@QAE_NXZ$0
	DD	0ffffffffH
	DD	FLAT:__unwindfunclet$?Process@CPythonApplication@@QAE_NXZ$1
__ehfuncinfo$?Process@CPythonApplication@@QAE_NXZ DD 019930522H
	DD	02H
	DD	FLAT:__unwindtable$?Process@CPythonApplication@@QAE_NXZ
	DD	2 DUP(00H)
	DD	2 DUP(00H)
	DD	00H
	DD	01H
xdata$x	ENDS
;	COMDAT xdata$x
xdata$x	SEGMENT
__unwindtable$?UpdateGame@CPythonApplication@@QAEXXZ DD 0ffffffffH
	DD	FLAT:__unwindfunclet$?UpdateGame@CPythonApplication@@QAEXXZ$0
__ehfuncinfo$?UpdateGame@CPythonApplication@@QAEXXZ DD 019930522H
	DD	01H
	DD	FLAT:__unwindtable$?UpdateGame@CPythonApplication@@QAEXXZ
	DD	2 DUP(00H)
	DD	2 DUP(00H)
	DD	00H
	DD	01H
xdata$x	ENDS
;	COMDAT xdata$x
xdata$x	SEGMENT
__ehfuncinfo$??0CPythonApplication@@QAE@XZ DD 019930522H
	DD	02bH
	DD	FLAT:__unwindtable$??0CPythonApplication@@QAE@XZ
	DD	2 DUP(00H)
	DD	2 DUP(00H)
	DD	00H
	DD	01H
__unwindtable$??0CPythonApplication@@QAE@XZ DD 0ffffffffH
	DD	FLAT:__unwindfunclet$??0CPythonApplication@@QAE@XZ$0
	DD	00H
	DD	FLAT:__unwindfunclet$??0CPythonApplication@@QAE@XZ$1
	DD	01H
	DD	FLAT:__unwindfunclet$??0CPythonApplication@@QAE@XZ$2
	DD	02H
	DD	FLAT:__unwindfunclet$??0CPythonApplication@@QAE@XZ$3
	DD	03H
	DD	FLAT:__unwindfunclet$??0CPythonApplication@@QAE@XZ$4
	DD	04H
	DD	FLAT:__unwindfunclet$??0CPythonApplication@@QAE@XZ$5
	DD	05H
	DD	FLAT:__unwindfunclet$??0CPythonApplication@@QAE@XZ$6
	DD	06H
	DD	FLAT:__unwindfunclet$??0CPythonApplication@@QAE@XZ$7
	DD	07H
	DD	FLAT:__unwindfunclet$??0CPythonApplication@@QAE@XZ$8
	DD	08H
	DD	FLAT:__unwindfunclet$??0CPythonApplication@@QAE@XZ$9
	DD	09H
	DD	FLAT:__unwindfunclet$??0CPythonApplication@@QAE@XZ$10
	DD	0aH
	DD	FLAT:__unwindfunclet$??0CPythonApplication@@QAE@XZ$11
	DD	0bH
	DD	FLAT:__unwindfunclet$??0CPythonApplication@@QAE@XZ$12
	DD	0cH
	DD	FLAT:__unwindfunclet$??0CPythonApplication@@QAE@XZ$13
	DD	0dH
	DD	FLAT:__unwindfunclet$??0CPythonApplication@@QAE@XZ$14
	DD	0eH
	DD	FLAT:__unwindfunclet$??0CPythonApplication@@QAE@XZ$15
	DD	0fH
	DD	FLAT:__unwindfunclet$??0CPythonApplication@@QAE@XZ$16
	DD	010H
	DD	FLAT:__unwindfunclet$??0CPythonApplication@@QAE@XZ$17
	DD	011H
	DD	FLAT:__unwindfunclet$??0CPythonApplication@@QAE@XZ$18
	DD	012H
	DD	FLAT:__unwindfunclet$??0CPythonApplication@@QAE@XZ$19
	DD	013H
	DD	FLAT:__unwindfunclet$??0CPythonApplication@@QAE@XZ$20
	DD	014H
	DD	FLAT:__unwindfunclet$??0CPythonApplication@@QAE@XZ$21
	DD	015H
	DD	FLAT:__unwindfunclet$??0CPythonApplication@@QAE@XZ$22
	DD	016H
	DD	FLAT:__unwindfunclet$??0CPythonApplication@@QAE@XZ$23
	DD	017H
	DD	FLAT:__unwindfunclet$??0CPythonApplication@@QAE@XZ$24
	DD	018H
	DD	FLAT:__unwindfunclet$??0CPythonApplication@@QAE@XZ$25
	DD	019H
	DD	FLAT:__unwindfunclet$??0CPythonApplication@@QAE@XZ$26
	DD	01aH
	DD	FLAT:__unwindfunclet$??0CPythonApplication@@QAE@XZ$27
	DD	01bH
	DD	FLAT:__unwindfunclet$??0CPythonApplication@@QAE@XZ$28
	DD	01cH
	DD	FLAT:__unwindfunclet$??0CPythonApplication@@QAE@XZ$29
	DD	01dH
	DD	FLAT:__unwindfunclet$??0CPythonApplication@@QAE@XZ$30
	DD	01eH
	DD	FLAT:__unwindfunclet$??0CPythonApplication@@QAE@XZ$31
	DD	01fH
	DD	FLAT:__unwindfunclet$??0CPythonApplication@@QAE@XZ$32
	DD	020H
	DD	FLAT:__unwindfunclet$??0CPythonApplication@@QAE@XZ$33
	DD	021H
	DD	FLAT:__unwindfunclet$??0CPythonApplication@@QAE@XZ$34
	DD	022H
	DD	FLAT:__unwindfunclet$??0CPythonApplication@@QAE@XZ$35
	DD	023H
	DD	FLAT:__unwindfunclet$??0CPythonApplication@@QAE@XZ$36
	DD	024H
	DD	FLAT:__unwindfunclet$??0CPythonApplication@@QAE@XZ$37
	DD	025H
	DD	FLAT:__unwindfunclet$??0CPythonApplication@@QAE@XZ$38
	DD	026H
	DD	FLAT:__unwindfunclet$??0CPythonApplication@@QAE@XZ$39
	DD	027H
	DD	FLAT:__unwindfunclet$??0CPythonApplication@@QAE@XZ$40
	DD	028H
	DD	FLAT:__unwindfunclet$??0CPythonApplication@@QAE@XZ$41
	DD	029H
	DD	FLAT:__unwindfunclet$??0CPythonApplication@@QAE@XZ$42
xdata$x	ENDS
;	COMDAT xdata$x
xdata$x	SEGMENT
__ehfuncinfo$??$_Deallocate@$07$0A@@std@@YAXPAXI@Z DD 019930522H
	DD	00H
	DD	00H
	DD	2 DUP(00H)
	DD	2 DUP(00H)
	DD	00H
	DD	05H
xdata$x	ENDS
;	COMDAT CRT$XCU
CRT$XCU	SEGMENT
??ms_kPool$initializer$@?$CPooledObject@VCNullDecorator@NEffectUpdateDecorator@@@@1P6AXXZA@@3P6AXXZA DD FLAT:??__E?ms_kPool@?$CPooledObject@VCNullDecorator@NEffectUpdateDecorator@@@@1V?$CDynamicPoolEx@VCNullDecorator@NEffectUpdateDecorator@@@@A@@YAXXZ ; ??ms_kPool$initializer$@?$CPooledObject@VCNullDecorator@NEffectUpdateDecorator@@@@1P6AXXZA@@3P6AXXZA
CRT$XCU	ENDS
;	COMDAT CRT$XCU
CRT$XCU	SEGMENT
??ms_kPool$initializer$@?$CPooledObject@VCTextureAnimationCWDecorator@NEffectUpdateDecorator@@@@1P6AXXZA@@3P6AXXZA DD FLAT:??__E?ms_kPool@?$CPooledObject@VCTextureAnimationCWDecorator@NEffectUpdateDecorator@@@@1V?$CDynamicPoolEx@VCTextureAnimationCWDecorator@NEffectUpdateDecorator@@@@A@@YAXXZ ; ??ms_kPool$initializer$@?$CPooledObject@VCTextureAnimationCWDecorator@NEffectUpdateDecorator@@@@1P6AXXZA@@3P6AXXZA
CRT$XCU	ENDS
;	COMDAT CRT$XCU
CRT$XCU	SEGMENT
??ms_kPool$initializer$@?$CPooledObject@VCTextureAnimationCCWDecorator@NEffectUpdateDecorator@@@@1P6AXXZA@@3P6AXXZA DD FLAT:??__E?ms_kPool@?$CPooledObject@VCTextureAnimationCCWDecorator@NEffectUpdateDecorator@@@@1V?$CDynamicPoolEx@VCTextureAnimationCCWDecorator@NEffectUpdateDecorator@@@@A@@YAXXZ ; ??ms_kPool$initializer$@?$CPooledObject@VCTextureAnimationCCWDecorator@NEffectUpdateDecorator@@@@1P6AXXZA@@3P6AXXZA
CRT$XCU	ENDS
;	COMDAT CRT$XCU
CRT$XCU	SEGMENT
??ms_kPool$initializer$@?$CPooledObject@VCTextureAnimationRandomDecorator@NEffectUpdateDecorator@@@@1P6AXXZA@@3P6AXXZA DD FLAT:??__E?ms_kPool@?$CPooledObject@VCTextureAnimationRandomDecorator@NEffectUpdateDecorator@@@@1V?$CDynamicPoolEx@VCTextureAnimationRandomDecorator@NEffectUpdateDecorator@@@@A@@YAXXZ ; ??ms_kPool$initializer$@?$CPooledObject@VCTextureAnimationRandomDecorator@NEffectUpdateDecorator@@@@1P6AXXZA@@3P6AXXZA
CRT$XCU	ENDS
;	COMDAT CRT$XCU
CRT$XCU	SEGMENT
??ms_kPool$initializer$@?$CPooledObject@VCAirResistanceDecorator@NEffectUpdateDecorator@@@@1P6AXXZA@@3P6AXXZA DD FLAT:??__E?ms_kPool@?$CPooledObject@VCAirResistanceDecorator@NEffectUpdateDecorator@@@@1V?$CDynamicPoolEx@VCAirResistanceDecorator@NEffectUpdateDecorator@@@@A@@YAXXZ ; ??ms_kPool$initializer$@?$CPooledObject@VCAirResistanceDecorator@NEffectUpdateDecorator@@@@1P6AXXZA@@3P6AXXZA
CRT$XCU	ENDS
;	COMDAT CRT$XCU
CRT$XCU	SEGMENT
??ms_kPool$initializer$@?$CPooledObject@VCGravityDecorator@NEffectUpdateDecorator@@@@1P6AXXZA@@3P6AXXZA DD FLAT:??__E?ms_kPool@?$CPooledObject@VCGravityDecorator@NEffectUpdateDecorator@@@@1V?$CDynamicPoolEx@VCGravityDecorator@NEffectUpdateDecorator@@@@A@@YAXXZ ; ??ms_kPool$initializer$@?$CPooledObject@VCGravityDecorator@NEffectUpdateDecorator@@@@1P6AXXZA@@3P6AXXZA
CRT$XCU	ENDS
;	COMDAT CRT$XCU
CRT$XCU	SEGMENT
??ms_kPool$initializer$@?$CPooledObject@VCRotationDecorator@NEffectUpdateDecorator@@@@1P6AXXZA@@3P6AXXZA DD FLAT:??__E?ms_kPool@?$CPooledObject@VCRotationDecorator@NEffectUpdateDecorator@@@@1V?$CDynamicPoolEx@VCRotationDecorator@NEffectUpdateDecorator@@@@A@@YAXXZ ; ??ms_kPool$initializer$@?$CPooledObject@VCRotationDecorator@NEffectUpdateDecorator@@@@1P6AXXZA@@3P6AXXZA
CRT$XCU	ENDS
; Function compile flags: /Odspy
;	COMDAT ??_ECPythonApplication@@WCA@AEPAXI@Z
_TEXT	SEGMENT
??_ECPythonApplication@@WCA@AEPAXI@Z PROC		; [thunk]:CPythonApplication::`vector deleting destructor', COMDAT
  00000	83 e9 20	 sub	 ecx, 32			; 00000020H
  00003	e9 00 00 00 00	 jmp	 ??_ECPythonApplication@@UAEPAXI@Z
??_ECPythonApplication@@WCA@AEPAXI@Z ENDP		; [thunk]:CPythonApplication::`vector deleting destructor'
_TEXT	ENDS
; Function compile flags: /Odspy
;	COMDAT ??_ECPythonApplication@@WBM@AEPAXI@Z
_TEXT	SEGMENT
??_ECPythonApplication@@WBM@AEPAXI@Z PROC		; [thunk]:CPythonApplication::`vector deleting destructor', COMDAT
  00000	83 e9 1c	 sub	 ecx, 28			; 0000001cH
  00003	e9 00 00 00 00	 jmp	 ??_ECPythonApplication@@UAEPAXI@Z
??_ECPythonApplication@@WBM@AEPAXI@Z ENDP		; [thunk]:CPythonApplication::`vector deleting destructor'
_TEXT	ENDS
; Function compile flags: /Odspy
;	COMDAT ??_ECGuildMarkUploader@@WHM@AEPAXI@Z
_TEXT	SEGMENT
??_ECGuildMarkUploader@@WHM@AEPAXI@Z PROC		; [thunk]:CGuildMarkUploader::`vector deleting destructor', COMDAT
  00000	83 e9 7c	 sub	 ecx, 124		; 0000007cH
  00003	e9 00 00 00 00	 jmp	 ??_ECGuildMarkUploader@@UAEPAXI@Z
??_ECGuildMarkUploader@@WHM@AEPAXI@Z ENDP		; [thunk]:CGuildMarkUploader::`vector deleting destructor'
_TEXT	ENDS
; Function compile flags: /Odspy
; File C:\Program Files (x86)\Microsoft Visual Studio\2019\Community\VC\Tools\MSVC\14.28.29333\include\xmemory
;	COMDAT ??$_Destroy_in_place@PAU?$_Tree_node@U?$pair@$$CBHPAX@std@@PAX@std@@@std@@YAXAAPAU?$_Tree_node@U?$pair@$$CBHPAX@std@@PAX@0@@Z
_TEXT	SEGMENT
__Obj$ = 8						; size = 4
??$_Destroy_in_place@PAU?$_Tree_node@U?$pair@$$CBHPAX@std@@PAX@std@@@std@@YAXAAPAU?$_Tree_node@U?$pair@$$CBHPAX@std@@PAX@0@@Z PROC ; std::_Destroy_in_place<std::_Tree_node<std::pair<int const ,void *>,void *> *>, COMDAT

; 270  : /* _CONSTEXPR20_DYNALLOC */ void _Destroy_in_place(_Ty& _Obj) noexcept {

  00000	55		 push	 ebp
  00001	8b ec		 mov	 ebp, esp

; 271  : #if _HAS_IF_CONSTEXPR
; 272  :     if constexpr (is_array_v<_Ty>) {
; 273  :         _Destroy_range(_Obj, _Obj + extent_v<_Ty>);
; 274  :     } else
; 275  : #endif // _HAS_IF_CONSTEXPR
; 276  :     {
; 277  :         _Obj.~_Ty();
; 278  :     }
; 279  : }

  00003	5d		 pop	 ebp
  00004	c3		 ret	 0
??$_Destroy_in_place@PAU?$_Tree_node@U?$pair@$$CBHPAX@std@@PAX@std@@@std@@YAXAAPAU?$_Tree_node@U?$pair@$$CBHPAX@std@@PAX@0@@Z ENDP ; std::_Destroy_in_place<std::_Tree_node<std::pair<int const ,void *>,void *> *>
_TEXT	ENDS
; Function compile flags: /Odspy
; File C:\Program Files (x86)\Microsoft Visual Studio\2019\Community\VC\Tools\MSVC\14.28.29333\include\xmemory
; File C:\Program Files (x86)\Microsoft Visual Studio\2019\Community\VC\Tools\MSVC\14.28.29333\include\xstddef
; File C:\Program Files (x86)\Microsoft Visual Studio\2019\Community\VC\Tools\MSVC\14.28.29333\include\vcruntime_new.h
; File C:\Program Files (x86)\Microsoft Visual Studio\2019\Community\VC\Tools\MSVC\14.28.29333\include\type_traits
; File C:\Program Files (x86)\Microsoft Visual Studio\2019\Community\VC\Tools\MSVC\14.28.29333\include\xmemory
;	COMDAT ??$_Construct_in_place@PAU?$_Tree_node@U?$pair@$$CBHPAX@std@@PAX@std@@ABQAU12@@std@@YAXAAPAU?$_Tree_node@U?$pair@$$CBHPAX@std@@PAX@0@ABQAU10@@Z
_TEXT	SEGMENT
$T1 = -12						; size = 4
$T2 = -8						; size = 4
$T3 = -4						; size = 4
__Obj$ = 8						; size = 4
_<_Args_0>$ = 12					; size = 4
??$_Construct_in_place@PAU?$_Tree_node@U?$pair@$$CBHPAX@std@@PAX@std@@ABQAU12@@std@@YAXAAPAU?$_Tree_node@U?$pair@$$CBHPAX@std@@PAX@0@ABQAU10@@Z PROC ; std::_Construct_in_place<std::_Tree_node<std::pair<int const ,void *>,void *> *,std::_Tree_node<std::pair<int const ,void *>,void *> * const &>, COMDAT

; 228  : void _Construct_in_place(_Ty& _Obj, _Types&&... _Args) noexcept(is_nothrow_constructible_v<_Ty, _Types...>) {

  00000	55		 push	 ebp
  00001	8b ec		 mov	 ebp, esp
  00003	83 ec 0c	 sub	 esp, 12			; 0000000cH
; File C:\Program Files (x86)\Microsoft Visual Studio\2019\Community\VC\Tools\MSVC\14.28.29333\include\xstddef

; 275  :     return __builtin_addressof(_Val);

  00006	8b 45 08	 mov	 eax, DWORD PTR __Obj$[ebp]
  00009	89 45 fc	 mov	 DWORD PTR $T3[ebp], eax
; File C:\Program Files (x86)\Microsoft Visual Studio\2019\Community\VC\Tools\MSVC\14.28.29333\include\vcruntime_new.h

; 169  :         return _Where;

  0000c	8b 45 fc	 mov	 eax, DWORD PTR $T3[ebp]
  0000f	89 45 f8	 mov	 DWORD PTR $T2[ebp], eax
; File C:\Program Files (x86)\Microsoft Visual Studio\2019\Community\VC\Tools\MSVC\14.28.29333\include\type_traits

; 1443 :     return static_cast<_Ty&&>(_Arg);

  00012	8b 45 0c	 mov	 eax, DWORD PTR _<_Args_0>$[ebp]
  00015	89 45 f4	 mov	 DWORD PTR $T1[ebp], eax
; File C:\Program Files (x86)\Microsoft Visual Studio\2019\Community\VC\Tools\MSVC\14.28.29333\include\xmemory

; 229  :     ::new (const_cast<void*>(static_cast<const volatile void*>(_STD addressof(_Obj))))

  00018	8b 45 f8	 mov	 eax, DWORD PTR $T2[ebp]
  0001b	8b 4d f4	 mov	 ecx, DWORD PTR $T1[ebp]
  0001e	8b 09		 mov	 ecx, DWORD PTR [ecx]
  00020	89 08		 mov	 DWORD PTR [eax], ecx

; 230  :         _Ty(_STD forward<_Types>(_Args)...);
; 231  : }

  00022	c9		 leave
  00023	c3		 ret	 0
??$_Construct_in_place@PAU?$_Tree_node@U?$pair@$$CBHPAX@std@@PAX@std@@ABQAU12@@std@@YAXAAPAU?$_Tree_node@U?$pair@$$CBHPAX@std@@PAX@0@ABQAU10@@Z ENDP ; std::_Construct_in_place<std::_Tree_node<std::pair<int const ,void *>,void *> *,std::_Tree_node<std::pair<int const ,void *>,void *> * const &>
_TEXT	ENDS
; Function compile flags: /Odspy
; File C:\Program Files (x86)\Microsoft Visual Studio\2019\Community\VC\Tools\MSVC\14.28.29333\include\xtree
; File C:\Program Files (x86)\Microsoft Visual Studio\2019\Community\VC\Tools\MSVC\14.28.29333\include\xmemory
; File C:\Program Files (x86)\Microsoft Visual Studio\2019\Community\VC\Tools\MSVC\14.28.29333\include\xtree
;	COMDAT ??$_Freenode0@V?$allocator@U?$_Tree_node@U?$pair@$$CBHPAX@std@@PAX@std@@@std@@@?$_Tree_node@U?$pair@$$CBHPAX@std@@PAX@std@@SAXAAV?$allocator@U?$_Tree_node@U?$pair@$$CBHPAX@std@@PAX@std@@@1@PAU01@@Z
_TEXT	SEGMENT
__Al$ = 8						; size = 4
__Ptr$ = 12						; size = 4
??$_Freenode0@V?$allocator@U?$_Tree_node@U?$pair@$$CBHPAX@std@@PAX@std@@@std@@@?$_Tree_node@U?$pair@$$CBHPAX@std@@PAX@std@@SAXAAV?$allocator@U?$_Tree_node@U?$pair@$$CBHPAX@std@@PAX@std@@@1@PAU01@@Z PROC ; std::_Tree_node<std::pair<int const ,void *>,void *>::_Freenode0<std::allocator<std::_Tree_node<std::pair<int const ,void *>,void *> > >, COMDAT

; 368  :     static void _Freenode0(_Alloc& _Al, _Nodeptr _Ptr) noexcept {

  00000	55		 push	 ebp
  00001	8b ec		 mov	 ebp, esp

; 369  :         static_assert(is_same_v<typename _Alloc::value_type, _Tree_node>, "Bad _Freenode0 call");
; 370  :         _Destroy_in_place(_Ptr->_Left);

  00003	ff 75 0c	 push	 DWORD PTR __Ptr$[ebp]
  00006	e8 00 00 00 00	 call	 ??$_Destroy_in_place@PAU?$_Tree_node@U?$pair@$$CBHPAX@std@@PAX@std@@@std@@YAXAAPAU?$_Tree_node@U?$pair@$$CBHPAX@std@@PAX@0@@Z ; std::_Destroy_in_place<std::_Tree_node<std::pair<int const ,void *>,void *> *>
  0000b	59		 pop	 ecx

; 371  :         _Destroy_in_place(_Ptr->_Parent);

  0000c	8b 45 0c	 mov	 eax, DWORD PTR __Ptr$[ebp]
  0000f	83 c0 04	 add	 eax, 4
  00012	50		 push	 eax
  00013	e8 00 00 00 00	 call	 ??$_Destroy_in_place@PAU?$_Tree_node@U?$pair@$$CBHPAX@std@@PAX@std@@@std@@YAXAAPAU?$_Tree_node@U?$pair@$$CBHPAX@std@@PAX@0@@Z ; std::_Destroy_in_place<std::_Tree_node<std::pair<int const ,void *>,void *> *>
  00018	59		 pop	 ecx

; 372  :         _Destroy_in_place(_Ptr->_Right);

  00019	8b 45 0c	 mov	 eax, DWORD PTR __Ptr$[ebp]
  0001c	83 c0 08	 add	 eax, 8
  0001f	50		 push	 eax
  00020	e8 00 00 00 00	 call	 ??$_Destroy_in_place@PAU?$_Tree_node@U?$pair@$$CBHPAX@std@@PAX@std@@@std@@YAXAAPAU?$_Tree_node@U?$pair@$$CBHPAX@std@@PAX@0@@Z ; std::_Destroy_in_place<std::_Tree_node<std::pair<int const ,void *>,void *> *>
  00025	59		 pop	 ecx
; File C:\Program Files (x86)\Microsoft Visual Studio\2019\Community\VC\Tools\MSVC\14.28.29333\include\xmemory

; 696  :         _Deallocate<_New_alignof<value_type>>(_Ptr, sizeof(value_type) * _Count);

  00026	33 c0		 xor	 eax, eax
  00028	40		 inc	 eax
  00029	6b c0 18	 imul	 eax, eax, 24
  0002c	50		 push	 eax
  0002d	ff 75 0c	 push	 DWORD PTR __Ptr$[ebp]
  00030	e8 00 00 00 00	 call	 ??$_Deallocate@$07$0A@@std@@YAXPAXI@Z ; std::_Deallocate<8,0>
  00035	59		 pop	 ecx
  00036	59		 pop	 ecx
; File C:\Program Files (x86)\Microsoft Visual Studio\2019\Community\VC\Tools\MSVC\14.28.29333\include\xtree

; 374  :     }

  00037	5d		 pop	 ebp
  00038	c3		 ret	 0
??$_Freenode0@V?$allocator@U?$_Tree_node@U?$pair@$$CBHPAX@std@@PAX@std@@@std@@@?$_Tree_node@U?$pair@$$CBHPAX@std@@PAX@std@@SAXAAV?$allocator@U?$_Tree_node@U?$pair@$$CBHPAX@std@@PAX@std@@@1@PAU01@@Z ENDP ; std::_Tree_node<std::pair<int const ,void *>,void *>::_Freenode0<std::allocator<std::_Tree_node<std::pair<int const ,void *>,void *> > >
_TEXT	ENDS
; Function compile flags: /Odspy
; File C:\Program Files (x86)\Microsoft Visual Studio\2019\Community\VC\Tools\MSVC\14.28.29333\include\xtree
; File C:\Program Files (x86)\Microsoft Visual Studio\2019\Community\VC\Tools\MSVC\14.28.29333\include\utility
; File C:\Program Files (x86)\Microsoft Visual Studio\2019\Community\VC\Tools\MSVC\14.28.29333\include\xtree
; File C:\Program Files (x86)\Microsoft Visual Studio\2019\Community\VC\Tools\MSVC\14.28.29333\include\xstddef
; File C:\Program Files (x86)\Microsoft Visual Studio\2019\Community\VC\Tools\MSVC\14.28.29333\include\xtree
;	COMDAT ??$_Erase_tree@V?$allocator@U?$_Tree_node@U?$pair@$$CBHPAX@std@@PAX@std@@@std@@@?$_Tree_val@U?$_Tree_simple_types@U?$pair@$$CBHPAX@std@@@std@@@std@@QAEXAAV?$allocator@U?$_Tree_node@U?$pair@$$CBHPAX@std@@PAX@std@@@1@PAU?$_Tree_node@U?$pair@$$CBHPAX@std@@PAX@1@@Z
_TEXT	SEGMENT
$T1 = -20						; size = 4
__Old_val$2 = -16					; size = 4
__New_val$ = -12					; size = 4
_this$ = -8						; size = 4
$T3 = -4						; size = 4
__Al$ = 8						; size = 4
__Rootnode$ = 12					; size = 4
??$_Erase_tree@V?$allocator@U?$_Tree_node@U?$pair@$$CBHPAX@std@@PAX@std@@@std@@@?$_Tree_val@U?$_Tree_simple_types@U?$pair@$$CBHPAX@std@@@std@@@std@@QAEXAAV?$allocator@U?$_Tree_node@U?$pair@$$CBHPAX@std@@PAX@std@@@1@PAU?$_Tree_node@U?$pair@$$CBHPAX@std@@PAX@1@@Z PROC ; std::_Tree_val<std::_Tree_simple_types<std::pair<int const ,void *> > >::_Erase_tree<std::allocator<std::_Tree_node<std::pair<int const ,void *>,void *> > >, COMDAT
; _this$ = ecx

; 742  :     void _Erase_tree(_Alnode& _Al, _Nodeptr _Rootnode) noexcept {

  00000	55		 push	 ebp
  00001	8b ec		 mov	 ebp, esp
  00003	83 ec 14	 sub	 esp, 20			; 00000014H
  00006	89 4d f8	 mov	 DWORD PTR _this$[ebp], ecx
$LN2@Erase_tree:

; 743  :         while (!_Rootnode->_Isnil) { // free subtrees, then node

  00009	8b 45 0c	 mov	 eax, DWORD PTR __Rootnode$[ebp]
  0000c	0f be 40 0d	 movsx	 eax, BYTE PTR [eax+13]
  00010	85 c0		 test	 eax, eax
  00012	75 43		 jne	 SHORT $LN4@Erase_tree

; 744  :             _Erase_tree(_Al, _Rootnode->_Right);

  00014	8b 45 0c	 mov	 eax, DWORD PTR __Rootnode$[ebp]
  00017	ff 70 08	 push	 DWORD PTR [eax+8]
  0001a	ff 75 08	 push	 DWORD PTR __Al$[ebp]
  0001d	8b 4d f8	 mov	 ecx, DWORD PTR _this$[ebp]
  00020	e8 00 00 00 00	 call	 ??$_Erase_tree@V?$allocator@U?$_Tree_node@U?$pair@$$CBHPAX@std@@PAX@std@@@std@@@?$_Tree_val@U?$_Tree_simple_types@U?$pair@$$CBHPAX@std@@@std@@@std@@QAEXAAV?$allocator@U?$_Tree_node@U?$pair@$$CBHPAX@std@@PAX@std@@@1@PAU?$_Tree_node@U?$pair@$$CBHPAX@std@@PAX@1@@Z ; std::_Tree_val<std::_Tree_simple_types<std::pair<int const ,void *> > >::_Erase_tree<std::allocator<std::_Tree_node<std::pair<int const ,void *>,void *> > >

; 745  :             _Alnode::value_type::_Freenode(_Al, _STD exchange(_Rootnode, _Rootnode->_Left));

  00025	8b 45 0c	 mov	 eax, DWORD PTR __Rootnode$[ebp]
  00028	89 45 f4	 mov	 DWORD PTR __New_val$[ebp], eax
; File C:\Program Files (x86)\Microsoft Visual Studio\2019\Community\VC\Tools\MSVC\14.28.29333\include\utility

; 598  :     _Ty _Old_val = static_cast<_Ty&&>(_Val);

  0002b	8b 45 0c	 mov	 eax, DWORD PTR __Rootnode$[ebp]
  0002e	89 45 f0	 mov	 DWORD PTR __Old_val$2[ebp], eax

; 599  :     _Val         = static_cast<_Other&&>(_New_val);

  00031	8b 45 f4	 mov	 eax, DWORD PTR __New_val$[ebp]
  00034	8b 00		 mov	 eax, DWORD PTR [eax]
  00036	89 45 0c	 mov	 DWORD PTR __Rootnode$[ebp], eax

; 600  :     return _Old_val;

  00039	8b 45 f0	 mov	 eax, DWORD PTR __Old_val$2[ebp]
  0003c	89 45 fc	 mov	 DWORD PTR $T3[ebp], eax
; File C:\Program Files (x86)\Microsoft Visual Studio\2019\Community\VC\Tools\MSVC\14.28.29333\include\xtree

; 379  :         allocator_traits<_Alloc>::destroy(_Al, _STD addressof(_Ptr->_Myval));

  0003f	8b 45 fc	 mov	 eax, DWORD PTR $T3[ebp]
  00042	83 c0 10	 add	 eax, 16			; 00000010H
; File C:\Program Files (x86)\Microsoft Visual Studio\2019\Community\VC\Tools\MSVC\14.28.29333\include\xstddef

; 275  :     return __builtin_addressof(_Val);

  00045	89 45 ec	 mov	 DWORD PTR $T1[ebp], eax
; File C:\Program Files (x86)\Microsoft Visual Studio\2019\Community\VC\Tools\MSVC\14.28.29333\include\xtree

; 380  :         _Freenode0(_Al, _Ptr);

  00048	ff 75 fc	 push	 DWORD PTR $T3[ebp]
  0004b	ff 75 08	 push	 DWORD PTR __Al$[ebp]
  0004e	e8 00 00 00 00	 call	 ??$_Freenode0@V?$allocator@U?$_Tree_node@U?$pair@$$CBHPAX@std@@PAX@std@@@std@@@?$_Tree_node@U?$pair@$$CBHPAX@std@@PAX@std@@SAXAAV?$allocator@U?$_Tree_node@U?$pair@$$CBHPAX@std@@PAX@std@@@1@PAU01@@Z ; std::_Tree_node<std::pair<int const ,void *>,void *>::_Freenode0<std::allocator<std::_Tree_node<std::pair<int const ,void *>,void *> > >
  00053	59		 pop	 ecx
  00054	59		 pop	 ecx

; 746  :         }

  00055	eb b2		 jmp	 SHORT $LN2@Erase_tree
$LN4@Erase_tree:

; 747  :     }

  00057	c9		 leave
  00058	c2 08 00	 ret	 8
??$_Erase_tree@V?$allocator@U?$_Tree_node@U?$pair@$$CBHPAX@std@@PAX@std@@@std@@@?$_Tree_val@U?$_Tree_simple_types@U?$pair@$$CBHPAX@std@@@std@@@std@@QAEXAAV?$allocator@U?$_Tree_node@U?$pair@$$CBHPAX@std@@PAX@std@@@1@PAU?$_Tree_node@U?$pair@$$CBHPAX@std@@PAX@1@@Z ENDP ; std::_Tree_val<std::_Tree_simple_types<std::pair<int const ,void *> > >::_Erase_tree<std::allocator<std::_Tree_node<std::pair<int const ,void *>,void *> > >
_TEXT	ENDS
; Function compile flags: /Odspy
;	COMDAT ??__F?ms_kPool@?$CPooledObject@VCRotationDecorator@NEffectUpdateDecorator@@@@1V?$CDynamicPoolEx@VCRotationDecorator@NEffectUpdateDecorator@@@@A@@YAXXZ
text$yd	SEGMENT
??__F?ms_kPool@?$CPooledObject@VCRotationDecorator@NEffectUpdateDecorator@@@@1V?$CDynamicPoolEx@VCRotationDecorator@NEffectUpdateDecorator@@@@A@@YAXXZ PROC ; `dynamic atexit destructor for 'CPooledObject<NEffectUpdateDecorator::CRotationDecorator>::ms_kPool'', COMDAT
  00000	55		 push	 ebp
  00001	8b ec		 mov	 ebp, esp
  00003	b9 00 00 00 00	 mov	 ecx, OFFSET ?ms_kPool@?$CPooledObject@VCRotationDecorator@NEffectUpdateDecorator@@@@1V?$CDynamicPoolEx@VCRotationDecorator@NEffectUpdateDecorator@@@@A ; CPooledObject<NEffectUpdateDecorator::CRotationDecorator>::ms_kPool
  00008	e8 00 00 00 00	 call	 ??1?$CDynamicPoolEx@VCRotationDecorator@NEffectUpdateDecorator@@@@UAE@XZ ; CDynamicPoolEx<NEffectUpdateDecorator::CRotationDecorator>::~CDynamicPoolEx<NEffectUpdateDecorator::CRotationDecorator>
  0000d	5d		 pop	 ebp
  0000e	c3		 ret	 0
??__F?ms_kPool@?$CPooledObject@VCRotationDecorator@NEffectUpdateDecorator@@@@1V?$CDynamicPoolEx@VCRotationDecorator@NEffectUpdateDecorator@@@@A@@YAXXZ ENDP ; `dynamic atexit destructor for 'CPooledObject<NEffectUpdateDecorator::CRotationDecorator>::ms_kPool''
text$yd	ENDS
; Function compile flags: /Odspy
; File D:\Metin2 Server Files\mainline\SRC_2014\Metin2Client\eterLib\Pool.h
;	COMDAT ??__E?ms_kPool@?$CPooledObject@VCRotationDecorator@NEffectUpdateDecorator@@@@1V?$CDynamicPoolEx@VCRotationDecorator@NEffectUpdateDecorator@@@@A@@YAXXZ
text$di	SEGMENT
??__E?ms_kPool@?$CPooledObject@VCRotationDecorator@NEffectUpdateDecorator@@@@1V?$CDynamicPoolEx@VCRotationDecorator@NEffectUpdateDecorator@@@@A@@YAXXZ PROC ; `dynamic initializer for 'CPooledObject<NEffectUpdateDecorator::CRotationDecorator>::ms_kPool'', COMDAT

; 272  : template <class T> CDynamicPoolEx<T> CPooledObject<T>::ms_kPool;

  00000	55		 push	 ebp
  00001	8b ec		 mov	 ebp, esp
  00003	b9 00 00 00 00	 mov	 ecx, OFFSET ?ms_kPool@?$CPooledObject@VCRotationDecorator@NEffectUpdateDecorator@@@@1V?$CDynamicPoolEx@VCRotationDecorator@NEffectUpdateDecorator@@@@A ; CPooledObject<NEffectUpdateDecorator::CRotationDecorator>::ms_kPool
  00008	e8 00 00 00 00	 call	 ??0?$CDynamicPoolEx@VCRotationDecorator@NEffectUpdateDecorator@@@@QAE@XZ ; CDynamicPoolEx<NEffectUpdateDecorator::CRotationDecorator>::CDynamicPoolEx<NEffectUpdateDecorator::CRotationDecorator>
  0000d	68 00 00 00 00	 push	 OFFSET ??__F?ms_kPool@?$CPooledObject@VCRotationDecorator@NEffectUpdateDecorator@@@@1V?$CDynamicPoolEx@VCRotationDecorator@NEffectUpdateDecorator@@@@A@@YAXXZ ; `dynamic atexit destructor for 'CPooledObject<NEffectUpdateDecorator::CRotationDecorator>::ms_kPool''
  00012	e8 00 00 00 00	 call	 _atexit
  00017	59		 pop	 ecx
  00018	5d		 pop	 ebp
  00019	c3		 ret	 0
??__E?ms_kPool@?$CPooledObject@VCRotationDecorator@NEffectUpdateDecorator@@@@1V?$CDynamicPoolEx@VCRotationDecorator@NEffectUpdateDecorator@@@@A@@YAXXZ ENDP ; `dynamic initializer for 'CPooledObject<NEffectUpdateDecorator::CRotationDecorator>::ms_kPool''
text$di	ENDS
; Function compile flags: /Odspy
;	COMDAT ??__F?ms_kPool@?$CPooledObject@VCGravityDecorator@NEffectUpdateDecorator@@@@1V?$CDynamicPoolEx@VCGravityDecorator@NEffectUpdateDecorator@@@@A@@YAXXZ
text$yd	SEGMENT
??__F?ms_kPool@?$CPooledObject@VCGravityDecorator@NEffectUpdateDecorator@@@@1V?$CDynamicPoolEx@VCGravityDecorator@NEffectUpdateDecorator@@@@A@@YAXXZ PROC ; `dynamic atexit destructor for 'CPooledObject<NEffectUpdateDecorator::CGravityDecorator>::ms_kPool'', COMDAT
  00000	55		 push	 ebp
  00001	8b ec		 mov	 ebp, esp
  00003	b9 00 00 00 00	 mov	 ecx, OFFSET ?ms_kPool@?$CPooledObject@VCGravityDecorator@NEffectUpdateDecorator@@@@1V?$CDynamicPoolEx@VCGravityDecorator@NEffectUpdateDecorator@@@@A ; CPooledObject<NEffectUpdateDecorator::CGravityDecorator>::ms_kPool
  00008	e8 00 00 00 00	 call	 ??1?$CDynamicPoolEx@VCGravityDecorator@NEffectUpdateDecorator@@@@UAE@XZ ; CDynamicPoolEx<NEffectUpdateDecorator::CGravityDecorator>::~CDynamicPoolEx<NEffectUpdateDecorator::CGravityDecorator>
  0000d	5d		 pop	 ebp
  0000e	c3		 ret	 0
??__F?ms_kPool@?$CPooledObject@VCGravityDecorator@NEffectUpdateDecorator@@@@1V?$CDynamicPoolEx@VCGravityDecorator@NEffectUpdateDecorator@@@@A@@YAXXZ ENDP ; `dynamic atexit destructor for 'CPooledObject<NEffectUpdateDecorator::CGravityDecorator>::ms_kPool''
text$yd	ENDS
; Function compile flags: /Odspy
; File D:\Metin2 Server Files\mainline\SRC_2014\Metin2Client\eterLib\Pool.h
;	COMDAT ??__E?ms_kPool@?$CPooledObject@VCGravityDecorator@NEffectUpdateDecorator@@@@1V?$CDynamicPoolEx@VCGravityDecorator@NEffectUpdateDecorator@@@@A@@YAXXZ
text$di	SEGMENT
??__E?ms_kPool@?$CPooledObject@VCGravityDecorator@NEffectUpdateDecorator@@@@1V?$CDynamicPoolEx@VCGravityDecorator@NEffectUpdateDecorator@@@@A@@YAXXZ PROC ; `dynamic initializer for 'CPooledObject<NEffectUpdateDecorator::CGravityDecorator>::ms_kPool'', COMDAT

; 272  : template <class T> CDynamicPoolEx<T> CPooledObject<T>::ms_kPool;

  00000	55		 push	 ebp
  00001	8b ec		 mov	 ebp, esp
  00003	b9 00 00 00 00	 mov	 ecx, OFFSET ?ms_kPool@?$CPooledObject@VCGravityDecorator@NEffectUpdateDecorator@@@@1V?$CDynamicPoolEx@VCGravityDecorator@NEffectUpdateDecorator@@@@A ; CPooledObject<NEffectUpdateDecorator::CGravityDecorator>::ms_kPool
  00008	e8 00 00 00 00	 call	 ??0?$CDynamicPoolEx@VCGravityDecorator@NEffectUpdateDecorator@@@@QAE@XZ ; CDynamicPoolEx<NEffectUpdateDecorator::CGravityDecorator>::CDynamicPoolEx<NEffectUpdateDecorator::CGravityDecorator>
  0000d	68 00 00 00 00	 push	 OFFSET ??__F?ms_kPool@?$CPooledObject@VCGravityDecorator@NEffectUpdateDecorator@@@@1V?$CDynamicPoolEx@VCGravityDecorator@NEffectUpdateDecorator@@@@A@@YAXXZ ; `dynamic atexit destructor for 'CPooledObject<NEffectUpdateDecorator::CGravityDecorator>::ms_kPool''
  00012	e8 00 00 00 00	 call	 _atexit
  00017	59		 pop	 ecx
  00018	5d		 pop	 ebp
  00019	c3		 ret	 0
??__E?ms_kPool@?$CPooledObject@VCGravityDecorator@NEffectUpdateDecorator@@@@1V?$CDynamicPoolEx@VCGravityDecorator@NEffectUpdateDecorator@@@@A@@YAXXZ ENDP ; `dynamic initializer for 'CPooledObject<NEffectUpdateDecorator::CGravityDecorator>::ms_kPool''
text$di	ENDS
; Function compile flags: /Odspy
;	COMDAT ??__F?ms_kPool@?$CPooledObject@VCAirResistanceDecorator@NEffectUpdateDecorator@@@@1V?$CDynamicPoolEx@VCAirResistanceDecorator@NEffectUpdateDecorator@@@@A@@YAXXZ
text$yd	SEGMENT
??__F?ms_kPool@?$CPooledObject@VCAirResistanceDecorator@NEffectUpdateDecorator@@@@1V?$CDynamicPoolEx@VCAirResistanceDecorator@NEffectUpdateDecorator@@@@A@@YAXXZ PROC ; `dynamic atexit destructor for 'CPooledObject<NEffectUpdateDecorator::CAirResistanceDecorator>::ms_kPool'', COMDAT
  00000	55		 push	 ebp
  00001	8b ec		 mov	 ebp, esp
  00003	b9 00 00 00 00	 mov	 ecx, OFFSET ?ms_kPool@?$CPooledObject@VCAirResistanceDecorator@NEffectUpdateDecorator@@@@1V?$CDynamicPoolEx@VCAirResistanceDecorator@NEffectUpdateDecorator@@@@A ; CPooledObject<NEffectUpdateDecorator::CAirResistanceDecorator>::ms_kPool
  00008	e8 00 00 00 00	 call	 ??1?$CDynamicPoolEx@VCAirResistanceDecorator@NEffectUpdateDecorator@@@@UAE@XZ ; CDynamicPoolEx<NEffectUpdateDecorator::CAirResistanceDecorator>::~CDynamicPoolEx<NEffectUpdateDecorator::CAirResistanceDecorator>
  0000d	5d		 pop	 ebp
  0000e	c3		 ret	 0
??__F?ms_kPool@?$CPooledObject@VCAirResistanceDecorator@NEffectUpdateDecorator@@@@1V?$CDynamicPoolEx@VCAirResistanceDecorator@NEffectUpdateDecorator@@@@A@@YAXXZ ENDP ; `dynamic atexit destructor for 'CPooledObject<NEffectUpdateDecorator::CAirResistanceDecorator>::ms_kPool''
text$yd	ENDS
; Function compile flags: /Odspy
; File D:\Metin2 Server Files\mainline\SRC_2014\Metin2Client\eterLib\Pool.h
;	COMDAT ??__E?ms_kPool@?$CPooledObject@VCAirResistanceDecorator@NEffectUpdateDecorator@@@@1V?$CDynamicPoolEx@VCAirResistanceDecorator@NEffectUpdateDecorator@@@@A@@YAXXZ
text$di	SEGMENT
??__E?ms_kPool@?$CPooledObject@VCAirResistanceDecorator@NEffectUpdateDecorator@@@@1V?$CDynamicPoolEx@VCAirResistanceDecorator@NEffectUpdateDecorator@@@@A@@YAXXZ PROC ; `dynamic initializer for 'CPooledObject<NEffectUpdateDecorator::CAirResistanceDecorator>::ms_kPool'', COMDAT

; 272  : template <class T> CDynamicPoolEx<T> CPooledObject<T>::ms_kPool;

  00000	55		 push	 ebp
  00001	8b ec		 mov	 ebp, esp
  00003	b9 00 00 00 00	 mov	 ecx, OFFSET ?ms_kPool@?$CPooledObject@VCAirResistanceDecorator@NEffectUpdateDecorator@@@@1V?$CDynamicPoolEx@VCAirResistanceDecorator@NEffectUpdateDecorator@@@@A ; CPooledObject<NEffectUpdateDecorator::CAirResistanceDecorator>::ms_kPool
  00008	e8 00 00 00 00	 call	 ??0?$CDynamicPoolEx@VCAirResistanceDecorator@NEffectUpdateDecorator@@@@QAE@XZ ; CDynamicPoolEx<NEffectUpdateDecorator::CAirResistanceDecorator>::CDynamicPoolEx<NEffectUpdateDecorator::CAirResistanceDecorator>
  0000d	68 00 00 00 00	 push	 OFFSET ??__F?ms_kPool@?$CPooledObject@VCAirResistanceDecorator@NEffectUpdateDecorator@@@@1V?$CDynamicPoolEx@VCAirResistanceDecorator@NEffectUpdateDecorator@@@@A@@YAXXZ ; `dynamic atexit destructor for 'CPooledObject<NEffectUpdateDecorator::CAirResistanceDecorator>::ms_kPool''
  00012	e8 00 00 00 00	 call	 _atexit
  00017	59		 pop	 ecx
  00018	5d		 pop	 ebp
  00019	c3		 ret	 0
??__E?ms_kPool@?$CPooledObject@VCAirResistanceDecorator@NEffectUpdateDecorator@@@@1V?$CDynamicPoolEx@VCAirResistanceDecorator@NEffectUpdateDecorator@@@@A@@YAXXZ ENDP ; `dynamic initializer for 'CPooledObject<NEffectUpdateDecorator::CAirResistanceDecorator>::ms_kPool''
text$di	ENDS
; Function compile flags: /Odspy
;	COMDAT ??__F?ms_kPool@?$CPooledObject@VCTextureAnimationRandomDecorator@NEffectUpdateDecorator@@@@1V?$CDynamicPoolEx@VCTextureAnimationRandomDecorator@NEffectUpdateDecorator@@@@A@@YAXXZ
text$yd	SEGMENT
??__F?ms_kPool@?$CPooledObject@VCTextureAnimationRandomDecorator@NEffectUpdateDecorator@@@@1V?$CDynamicPoolEx@VCTextureAnimationRandomDecorator@NEffectUpdateDecorator@@@@A@@YAXXZ PROC ; `dynamic atexit destructor for 'CPooledObject<NEffectUpdateDecorator::CTextureAnimationRandomDecorator>::ms_kPool'', COMDAT
  00000	55		 push	 ebp
  00001	8b ec		 mov	 ebp, esp
  00003	b9 00 00 00 00	 mov	 ecx, OFFSET ?ms_kPool@?$CPooledObject@VCTextureAnimationRandomDecorator@NEffectUpdateDecorator@@@@1V?$CDynamicPoolEx@VCTextureAnimationRandomDecorator@NEffectUpdateDecorator@@@@A ; CPooledObject<NEffectUpdateDecorator::CTextureAnimationRandomDecorator>::ms_kPool
  00008	e8 00 00 00 00	 call	 ??1?$CDynamicPoolEx@VCTextureAnimationRandomDecorator@NEffectUpdateDecorator@@@@UAE@XZ ; CDynamicPoolEx<NEffectUpdateDecorator::CTextureAnimationRandomDecorator>::~CDynamicPoolEx<NEffectUpdateDecorator::CTextureAnimationRandomDecorator>
  0000d	5d		 pop	 ebp
  0000e	c3		 ret	 0
??__F?ms_kPool@?$CPooledObject@VCTextureAnimationRandomDecorator@NEffectUpdateDecorator@@@@1V?$CDynamicPoolEx@VCTextureAnimationRandomDecorator@NEffectUpdateDecorator@@@@A@@YAXXZ ENDP ; `dynamic atexit destructor for 'CPooledObject<NEffectUpdateDecorator::CTextureAnimationRandomDecorator>::ms_kPool''
text$yd	ENDS
; Function compile flags: /Odspy
; File D:\Metin2 Server Files\mainline\SRC_2014\Metin2Client\eterLib\Pool.h
;	COMDAT ??__E?ms_kPool@?$CPooledObject@VCTextureAnimationRandomDecorator@NEffectUpdateDecorator@@@@1V?$CDynamicPoolEx@VCTextureAnimationRandomDecorator@NEffectUpdateDecorator@@@@A@@YAXXZ
text$di	SEGMENT
??__E?ms_kPool@?$CPooledObject@VCTextureAnimationRandomDecorator@NEffectUpdateDecorator@@@@1V?$CDynamicPoolEx@VCTextureAnimationRandomDecorator@NEffectUpdateDecorator@@@@A@@YAXXZ PROC ; `dynamic initializer for 'CPooledObject<NEffectUpdateDecorator::CTextureAnimationRandomDecorator>::ms_kPool'', COMDAT

; 272  : template <class T> CDynamicPoolEx<T> CPooledObject<T>::ms_kPool;

  00000	55		 push	 ebp
  00001	8b ec		 mov	 ebp, esp
  00003	b9 00 00 00 00	 mov	 ecx, OFFSET ?ms_kPool@?$CPooledObject@VCTextureAnimationRandomDecorator@NEffectUpdateDecorator@@@@1V?$CDynamicPoolEx@VCTextureAnimationRandomDecorator@NEffectUpdateDecorator@@@@A ; CPooledObject<NEffectUpdateDecorator::CTextureAnimationRandomDecorator>::ms_kPool
  00008	e8 00 00 00 00	 call	 ??0?$CDynamicPoolEx@VCTextureAnimationRandomDecorator@NEffectUpdateDecorator@@@@QAE@XZ ; CDynamicPoolEx<NEffectUpdateDecorator::CTextureAnimationRandomDecorator>::CDynamicPoolEx<NEffectUpdateDecorator::CTextureAnimationRandomDecorator>
  0000d	68 00 00 00 00	 push	 OFFSET ??__F?ms_kPool@?$CPooledObject@VCTextureAnimationRandomDecorator@NEffectUpdateDecorator@@@@1V?$CDynamicPoolEx@VCTextureAnimationRandomDecorator@NEffectUpdateDecorator@@@@A@@YAXXZ ; `dynamic atexit destructor for 'CPooledObject<NEffectUpdateDecorator::CTextureAnimationRandomDecorator>::ms_kPool''
  00012	e8 00 00 00 00	 call	 _atexit
  00017	59		 pop	 ecx
  00018	5d		 pop	 ebp
  00019	c3		 ret	 0
??__E?ms_kPool@?$CPooledObject@VCTextureAnimationRandomDecorator@NEffectUpdateDecorator@@@@1V?$CDynamicPoolEx@VCTextureAnimationRandomDecorator@NEffectUpdateDecorator@@@@A@@YAXXZ ENDP ; `dynamic initializer for 'CPooledObject<NEffectUpdateDecorator::CTextureAnimationRandomDecorator>::ms_kPool''
text$di	ENDS
; Function compile flags: /Odspy
;	COMDAT ??__F?ms_kPool@?$CPooledObject@VCTextureAnimationCCWDecorator@NEffectUpdateDecorator@@@@1V?$CDynamicPoolEx@VCTextureAnimationCCWDecorator@NEffectUpdateDecorator@@@@A@@YAXXZ
text$yd	SEGMENT
??__F?ms_kPool@?$CPooledObject@VCTextureAnimationCCWDecorator@NEffectUpdateDecorator@@@@1V?$CDynamicPoolEx@VCTextureAnimationCCWDecorator@NEffectUpdateDecorator@@@@A@@YAXXZ PROC ; `dynamic atexit destructor for 'CPooledObject<NEffectUpdateDecorator::CTextureAnimationCCWDecorator>::ms_kPool'', COMDAT
  00000	55		 push	 ebp
  00001	8b ec		 mov	 ebp, esp
  00003	b9 00 00 00 00	 mov	 ecx, OFFSET ?ms_kPool@?$CPooledObject@VCTextureAnimationCCWDecorator@NEffectUpdateDecorator@@@@1V?$CDynamicPoolEx@VCTextureAnimationCCWDecorator@NEffectUpdateDecorator@@@@A ; CPooledObject<NEffectUpdateDecorator::CTextureAnimationCCWDecorator>::ms_kPool
  00008	e8 00 00 00 00	 call	 ??1?$CDynamicPoolEx@VCTextureAnimationCCWDecorator@NEffectUpdateDecorator@@@@UAE@XZ ; CDynamicPoolEx<NEffectUpdateDecorator::CTextureAnimationCCWDecorator>::~CDynamicPoolEx<NEffectUpdateDecorator::CTextureAnimationCCWDecorator>
  0000d	5d		 pop	 ebp
  0000e	c3		 ret	 0
??__F?ms_kPool@?$CPooledObject@VCTextureAnimationCCWDecorator@NEffectUpdateDecorator@@@@1V?$CDynamicPoolEx@VCTextureAnimationCCWDecorator@NEffectUpdateDecorator@@@@A@@YAXXZ ENDP ; `dynamic atexit destructor for 'CPooledObject<NEffectUpdateDecorator::CTextureAnimationCCWDecorator>::ms_kPool''
text$yd	ENDS
; Function compile flags: /Odspy
; File D:\Metin2 Server Files\mainline\SRC_2014\Metin2Client\eterLib\Pool.h
;	COMDAT ??__E?ms_kPool@?$CPooledObject@VCTextureAnimationCCWDecorator@NEffectUpdateDecorator@@@@1V?$CDynamicPoolEx@VCTextureAnimationCCWDecorator@NEffectUpdateDecorator@@@@A@@YAXXZ
text$di	SEGMENT
??__E?ms_kPool@?$CPooledObject@VCTextureAnimationCCWDecorator@NEffectUpdateDecorator@@@@1V?$CDynamicPoolEx@VCTextureAnimationCCWDecorator@NEffectUpdateDecorator@@@@A@@YAXXZ PROC ; `dynamic initializer for 'CPooledObject<NEffectUpdateDecorator::CTextureAnimationCCWDecorator>::ms_kPool'', COMDAT

; 272  : template <class T> CDynamicPoolEx<T> CPooledObject<T>::ms_kPool;

  00000	55		 push	 ebp
  00001	8b ec		 mov	 ebp, esp
  00003	b9 00 00 00 00	 mov	 ecx, OFFSET ?ms_kPool@?$CPooledObject@VCTextureAnimationCCWDecorator@NEffectUpdateDecorator@@@@1V?$CDynamicPoolEx@VCTextureAnimationCCWDecorator@NEffectUpdateDecorator@@@@A ; CPooledObject<NEffectUpdateDecorator::CTextureAnimationCCWDecorator>::ms_kPool
  00008	e8 00 00 00 00	 call	 ??0?$CDynamicPoolEx@VCTextureAnimationCCWDecorator@NEffectUpdateDecorator@@@@QAE@XZ ; CDynamicPoolEx<NEffectUpdateDecorator::CTextureAnimationCCWDecorator>::CDynamicPoolEx<NEffectUpdateDecorator::CTextureAnimationCCWDecorator>
  0000d	68 00 00 00 00	 push	 OFFSET ??__F?ms_kPool@?$CPooledObject@VCTextureAnimationCCWDecorator@NEffectUpdateDecorator@@@@1V?$CDynamicPoolEx@VCTextureAnimationCCWDecorator@NEffectUpdateDecorator@@@@A@@YAXXZ ; `dynamic atexit destructor for 'CPooledObject<NEffectUpdateDecorator::CTextureAnimationCCWDecorator>::ms_kPool''
  00012	e8 00 00 00 00	 call	 _atexit
  00017	59		 pop	 ecx
  00018	5d		 pop	 ebp
  00019	c3		 ret	 0
??__E?ms_kPool@?$CPooledObject@VCTextureAnimationCCWDecorator@NEffectUpdateDecorator@@@@1V?$CDynamicPoolEx@VCTextureAnimationCCWDecorator@NEffectUpdateDecorator@@@@A@@YAXXZ ENDP ; `dynamic initializer for 'CPooledObject<NEffectUpdateDecorator::CTextureAnimationCCWDecorator>::ms_kPool''
text$di	ENDS
; Function compile flags: /Odspy
;	COMDAT ??__F?ms_kPool@?$CPooledObject@VCTextureAnimationCWDecorator@NEffectUpdateDecorator@@@@1V?$CDynamicPoolEx@VCTextureAnimationCWDecorator@NEffectUpdateDecorator@@@@A@@YAXXZ
text$yd	SEGMENT
??__F?ms_kPool@?$CPooledObject@VCTextureAnimationCWDecorator@NEffectUpdateDecorator@@@@1V?$CDynamicPoolEx@VCTextureAnimationCWDecorator@NEffectUpdateDecorator@@@@A@@YAXXZ PROC ; `dynamic atexit destructor for 'CPooledObject<NEffectUpdateDecorator::CTextureAnimationCWDecorator>::ms_kPool'', COMDAT
  00000	55		 push	 ebp
  00001	8b ec		 mov	 ebp, esp
  00003	b9 00 00 00 00	 mov	 ecx, OFFSET ?ms_kPool@?$CPooledObject@VCTextureAnimationCWDecorator@NEffectUpdateDecorator@@@@1V?$CDynamicPoolEx@VCTextureAnimationCWDecorator@NEffectUpdateDecorator@@@@A ; CPooledObject<NEffectUpdateDecorator::CTextureAnimationCWDecorator>::ms_kPool
  00008	e8 00 00 00 00	 call	 ??1?$CDynamicPoolEx@VCTextureAnimationCWDecorator@NEffectUpdateDecorator@@@@UAE@XZ ; CDynamicPoolEx<NEffectUpdateDecorator::CTextureAnimationCWDecorator>::~CDynamicPoolEx<NEffectUpdateDecorator::CTextureAnimationCWDecorator>
  0000d	5d		 pop	 ebp
  0000e	c3		 ret	 0
??__F?ms_kPool@?$CPooledObject@VCTextureAnimationCWDecorator@NEffectUpdateDecorator@@@@1V?$CDynamicPoolEx@VCTextureAnimationCWDecorator@NEffectUpdateDecorator@@@@A@@YAXXZ ENDP ; `dynamic atexit destructor for 'CPooledObject<NEffectUpdateDecorator::CTextureAnimationCWDecorator>::ms_kPool''
text$yd	ENDS
; Function compile flags: /Odspy
; File D:\Metin2 Server Files\mainline\SRC_2014\Metin2Client\eterLib\Pool.h
;	COMDAT ??__E?ms_kPool@?$CPooledObject@VCTextureAnimationCWDecorator@NEffectUpdateDecorator@@@@1V?$CDynamicPoolEx@VCTextureAnimationCWDecorator@NEffectUpdateDecorator@@@@A@@YAXXZ
text$di	SEGMENT
??__E?ms_kPool@?$CPooledObject@VCTextureAnimationCWDecorator@NEffectUpdateDecorator@@@@1V?$CDynamicPoolEx@VCTextureAnimationCWDecorator@NEffectUpdateDecorator@@@@A@@YAXXZ PROC ; `dynamic initializer for 'CPooledObject<NEffectUpdateDecorator::CTextureAnimationCWDecorator>::ms_kPool'', COMDAT

; 272  : template <class T> CDynamicPoolEx<T> CPooledObject<T>::ms_kPool;

  00000	55		 push	 ebp
  00001	8b ec		 mov	 ebp, esp
  00003	b9 00 00 00 00	 mov	 ecx, OFFSET ?ms_kPool@?$CPooledObject@VCTextureAnimationCWDecorator@NEffectUpdateDecorator@@@@1V?$CDynamicPoolEx@VCTextureAnimationCWDecorator@NEffectUpdateDecorator@@@@A ; CPooledObject<NEffectUpdateDecorator::CTextureAnimationCWDecorator>::ms_kPool
  00008	e8 00 00 00 00	 call	 ??0?$CDynamicPoolEx@VCTextureAnimationCWDecorator@NEffectUpdateDecorator@@@@QAE@XZ ; CDynamicPoolEx<NEffectUpdateDecorator::CTextureAnimationCWDecorator>::CDynamicPoolEx<NEffectUpdateDecorator::CTextureAnimationCWDecorator>
  0000d	68 00 00 00 00	 push	 OFFSET ??__F?ms_kPool@?$CPooledObject@VCTextureAnimationCWDecorator@NEffectUpdateDecorator@@@@1V?$CDynamicPoolEx@VCTextureAnimationCWDecorator@NEffectUpdateDecorator@@@@A@@YAXXZ ; `dynamic atexit destructor for 'CPooledObject<NEffectUpdateDecorator::CTextureAnimationCWDecorator>::ms_kPool''
  00012	e8 00 00 00 00	 call	 _atexit
  00017	59		 pop	 ecx
  00018	5d		 pop	 ebp
  00019	c3		 ret	 0
??__E?ms_kPool@?$CPooledObject@VCTextureAnimationCWDecorator@NEffectUpdateDecorator@@@@1V?$CDynamicPoolEx@VCTextureAnimationCWDecorator@NEffectUpdateDecorator@@@@A@@YAXXZ ENDP ; `dynamic initializer for 'CPooledObject<NEffectUpdateDecorator::CTextureAnimationCWDecorator>::ms_kPool''
text$di	ENDS
; Function compile flags: /Odspy
;	COMDAT ??__F?ms_kPool@?$CPooledObject@VCNullDecorator@NEffectUpdateDecorator@@@@1V?$CDynamicPoolEx@VCNullDecorator@NEffectUpdateDecorator@@@@A@@YAXXZ
text$yd	SEGMENT
??__F?ms_kPool@?$CPooledObject@VCNullDecorator@NEffectUpdateDecorator@@@@1V?$CDynamicPoolEx@VCNullDecorator@NEffectUpdateDecorator@@@@A@@YAXXZ PROC ; `dynamic atexit destructor for 'CPooledObject<NEffectUpdateDecorator::CNullDecorator>::ms_kPool'', COMDAT
  00000	55		 push	 ebp
  00001	8b ec		 mov	 ebp, esp
  00003	b9 00 00 00 00	 mov	 ecx, OFFSET ?ms_kPool@?$CPooledObject@VCNullDecorator@NEffectUpdateDecorator@@@@1V?$CDynamicPoolEx@VCNullDecorator@NEffectUpdateDecorator@@@@A ; CPooledObject<NEffectUpdateDecorator::CNullDecorator>::ms_kPool
  00008	e8 00 00 00 00	 call	 ??1?$CDynamicPoolEx@VCNullDecorator@NEffectUpdateDecorator@@@@UAE@XZ ; CDynamicPoolEx<NEffectUpdateDecorator::CNullDecorator>::~CDynamicPoolEx<NEffectUpdateDecorator::CNullDecorator>
  0000d	5d		 pop	 ebp
  0000e	c3		 ret	 0
??__F?ms_kPool@?$CPooledObject@VCNullDecorator@NEffectUpdateDecorator@@@@1V?$CDynamicPoolEx@VCNullDecorator@NEffectUpdateDecorator@@@@A@@YAXXZ ENDP ; `dynamic atexit destructor for 'CPooledObject<NEffectUpdateDecorator::CNullDecorator>::ms_kPool''
text$yd	ENDS
; Function compile flags: /Odspy
; File D:\Metin2 Server Files\mainline\SRC_2014\Metin2Client\eterLib\Pool.h
;	COMDAT ??__E?ms_kPool@?$CPooledObject@VCNullDecorator@NEffectUpdateDecorator@@@@1V?$CDynamicPoolEx@VCNullDecorator@NEffectUpdateDecorator@@@@A@@YAXXZ
text$di	SEGMENT
??__E?ms_kPool@?$CPooledObject@VCNullDecorator@NEffectUpdateDecorator@@@@1V?$CDynamicPoolEx@VCNullDecorator@NEffectUpdateDecorator@@@@A@@YAXXZ PROC ; `dynamic initializer for 'CPooledObject<NEffectUpdateDecorator::CNullDecorator>::ms_kPool'', COMDAT

; 272  : template <class T> CDynamicPoolEx<T> CPooledObject<T>::ms_kPool;

  00000	55		 push	 ebp
  00001	8b ec		 mov	 ebp, esp
  00003	b9 00 00 00 00	 mov	 ecx, OFFSET ?ms_kPool@?$CPooledObject@VCNullDecorator@NEffectUpdateDecorator@@@@1V?$CDynamicPoolEx@VCNullDecorator@NEffectUpdateDecorator@@@@A ; CPooledObject<NEffectUpdateDecorator::CNullDecorator>::ms_kPool
  00008	e8 00 00 00 00	 call	 ??0?$CDynamicPoolEx@VCNullDecorator@NEffectUpdateDecorator@@@@QAE@XZ ; CDynamicPoolEx<NEffectUpdateDecorator::CNullDecorator>::CDynamicPoolEx<NEffectUpdateDecorator::CNullDecorator>
  0000d	68 00 00 00 00	 push	 OFFSET ??__F?ms_kPool@?$CPooledObject@VCNullDecorator@NEffectUpdateDecorator@@@@1V?$CDynamicPoolEx@VCNullDecorator@NEffectUpdateDecorator@@@@A@@YAXXZ ; `dynamic atexit destructor for 'CPooledObject<NEffectUpdateDecorator::CNullDecorator>::ms_kPool''
  00012	e8 00 00 00 00	 call	 _atexit
  00017	59		 pop	 ecx
  00018	5d		 pop	 ebp
  00019	c3		 ret	 0
??__E?ms_kPool@?$CPooledObject@VCNullDecorator@NEffectUpdateDecorator@@@@1V?$CDynamicPoolEx@VCNullDecorator@NEffectUpdateDecorator@@@@A@@YAXXZ ENDP ; `dynamic initializer for 'CPooledObject<NEffectUpdateDecorator::CNullDecorator>::ms_kPool''
text$di	ENDS
; Function compile flags: /Odspy
;	COMDAT ??__F?ms_kPool@?$CPooledObject@VCHeaderDecorator@NEffectUpdateDecorator@@@@1V?$CDynamicPoolEx@VCHeaderDecorator@NEffectUpdateDecorator@@@@A@@YAXXZ
text$yd	SEGMENT
??__F?ms_kPool@?$CPooledObject@VCHeaderDecorator@NEffectUpdateDecorator@@@@1V?$CDynamicPoolEx@VCHeaderDecorator@NEffectUpdateDecorator@@@@A@@YAXXZ PROC ; `dynamic atexit destructor for 'CPooledObject<NEffectUpdateDecorator::CHeaderDecorator>::ms_kPool'', COMDAT
  00000	55		 push	 ebp
  00001	8b ec		 mov	 ebp, esp
  00003	b9 00 00 00 00	 mov	 ecx, OFFSET ?ms_kPool@?$CPooledObject@VCHeaderDecorator@NEffectUpdateDecorator@@@@1V?$CDynamicPoolEx@VCHeaderDecorator@NEffectUpdateDecorator@@@@A ; CPooledObject<NEffectUpdateDecorator::CHeaderDecorator>::ms_kPool
  00008	e8 00 00 00 00	 call	 ??1?$CDynamicPoolEx@VCHeaderDecorator@NEffectUpdateDecorator@@@@UAE@XZ ; CDynamicPoolEx<NEffectUpdateDecorator::CHeaderDecorator>::~CDynamicPoolEx<NEffectUpdateDecorator::CHeaderDecorator>
  0000d	5d		 pop	 ebp
  0000e	c3		 ret	 0
??__F?ms_kPool@?$CPooledObject@VCHeaderDecorator@NEffectUpdateDecorator@@@@1V?$CDynamicPoolEx@VCHeaderDecorator@NEffectUpdateDecorator@@@@A@@YAXXZ ENDP ; `dynamic atexit destructor for 'CPooledObject<NEffectUpdateDecorator::CHeaderDecorator>::ms_kPool''
text$yd	ENDS
; Function compile flags: /Odspy
; File D:\Metin2 Server Files\mainline\SRC_2014\Metin2Client\eterLib\Pool.h
;	COMDAT ??__E?ms_kPool@?$CPooledObject@VCHeaderDecorator@NEffectUpdateDecorator@@@@1V?$CDynamicPoolEx@VCHeaderDecorator@NEffectUpdateDecorator@@@@A@@YAXXZ
text$di	SEGMENT
??__E?ms_kPool@?$CPooledObject@VCHeaderDecorator@NEffectUpdateDecorator@@@@1V?$CDynamicPoolEx@VCHeaderDecorator@NEffectUpdateDecorator@@@@A@@YAXXZ PROC ; `dynamic initializer for 'CPooledObject<NEffectUpdateDecorator::CHeaderDecorator>::ms_kPool'', COMDAT

; 272  : template <class T> CDynamicPoolEx<T> CPooledObject<T>::ms_kPool;

  00000	55		 push	 ebp
  00001	8b ec		 mov	 ebp, esp
  00003	b9 00 00 00 00	 mov	 ecx, OFFSET ?ms_kPool@?$CPooledObject@VCHeaderDecorator@NEffectUpdateDecorator@@@@1V?$CDynamicPoolEx@VCHeaderDecorator@NEffectUpdateDecorator@@@@A ; CPooledObject<NEffectUpdateDecorator::CHeaderDecorator>::ms_kPool
  00008	e8 00 00 00 00	 call	 ??0?$CDynamicPoolEx@VCHeaderDecorator@NEffectUpdateDecorator@@@@QAE@XZ ; CDynamicPoolEx<NEffectUpdateDecorator::CHeaderDecorator>::CDynamicPoolEx<NEffectUpdateDecorator::CHeaderDecorator>
  0000d	68 00 00 00 00	 push	 OFFSET ??__F?ms_kPool@?$CPooledObject@VCHeaderDecorator@NEffectUpdateDecorator@@@@1V?$CDynamicPoolEx@VCHeaderDecorator@NEffectUpdateDecorator@@@@A@@YAXXZ ; `dynamic atexit destructor for 'CPooledObject<NEffectUpdateDecorator::CHeaderDecorator>::ms_kPool''
  00012	e8 00 00 00 00	 call	 _atexit
  00017	59		 pop	 ecx
  00018	5d		 pop	 ebp
  00019	c3		 ret	 0
??__E?ms_kPool@?$CPooledObject@VCHeaderDecorator@NEffectUpdateDecorator@@@@1V?$CDynamicPoolEx@VCHeaderDecorator@NEffectUpdateDecorator@@@@A@@YAXXZ ENDP ; `dynamic initializer for 'CPooledObject<NEffectUpdateDecorator::CHeaderDecorator>::ms_kPool''
text$di	ENDS
; Function compile flags: /Odspy
; File C:\Program Files (x86)\Microsoft Visual Studio\2019\Community\VC\Tools\MSVC\14.28.29333\include\xmemory
;	COMDAT ??$_Destroy_range@V?$allocator@PAVCRotationDecorator@NEffectUpdateDecorator@@@std@@@std@@YAXPAPAVCRotationDecorator@NEffectUpdateDecorator@@QAPAV12@AAV?$allocator@PAVCRotationDecorator@NEffectUpdateDecorator@@@0@@Z
_TEXT	SEGMENT
__First$ = 8						; size = 4
__Last$ = 12						; size = 4
__Al$ = 16						; size = 4
??$_Destroy_range@V?$allocator@PAVCRotationDecorator@NEffectUpdateDecorator@@@std@@@std@@YAXPAPAVCRotationDecorator@NEffectUpdateDecorator@@QAPAV12@AAV?$allocator@PAVCRotationDecorator@NEffectUpdateDecorator@@@0@@Z PROC ; std::_Destroy_range<std::allocator<NEffectUpdateDecorator::CRotationDecorator *> >, COMDAT

; 962  :     _Alloc_ptr_t<_Alloc> _First, const _Alloc_ptr_t<_Alloc> _Last, _Alloc& _Al) noexcept {

  00000	55		 push	 ebp
  00001	8b ec		 mov	 ebp, esp

; 963  :     // note that this is an optimization for debug mode codegen; in release mode the BE removes all of this
; 964  :     using _Ty = typename _Alloc::value_type;
; 965  :     if _CONSTEXPR_IF (!conjunction_v<is_trivially_destructible<_Ty>, _Uses_default_destroy<_Alloc, _Ty*>>) {
; 966  :         for (; _First != _Last; ++_First) {
; 967  :             allocator_traits<_Alloc>::destroy(_Al, _Unfancy(_First));
; 968  :         }
; 969  :     }
; 970  : }

  00003	5d		 pop	 ebp
  00004	c3		 ret	 0
??$_Destroy_range@V?$allocator@PAVCRotationDecorator@NEffectUpdateDecorator@@@std@@@std@@YAXPAPAVCRotationDecorator@NEffectUpdateDecorator@@QAPAV12@AAV?$allocator@PAVCRotationDecorator@NEffectUpdateDecorator@@@0@@Z ENDP ; std::_Destroy_range<std::allocator<NEffectUpdateDecorator::CRotationDecorator *> >
_TEXT	ENDS
; Function compile flags: /Odspy
; File C:\Program Files (x86)\Microsoft Visual Studio\2019\Community\VC\Tools\MSVC\14.28.29333\include\xmemory
;	COMDAT ??$_Destroy_range@V?$allocator@PAVCGravityDecorator@NEffectUpdateDecorator@@@std@@@std@@YAXPAPAVCGravityDecorator@NEffectUpdateDecorator@@QAPAV12@AAV?$allocator@PAVCGravityDecorator@NEffectUpdateDecorator@@@0@@Z
_TEXT	SEGMENT
__First$ = 8						; size = 4
__Last$ = 12						; size = 4
__Al$ = 16						; size = 4
??$_Destroy_range@V?$allocator@PAVCGravityDecorator@NEffectUpdateDecorator@@@std@@@std@@YAXPAPAVCGravityDecorator@NEffectUpdateDecorator@@QAPAV12@AAV?$allocator@PAVCGravityDecorator@NEffectUpdateDecorator@@@0@@Z PROC ; std::_Destroy_range<std::allocator<NEffectUpdateDecorator::CGravityDecorator *> >, COMDAT

; 962  :     _Alloc_ptr_t<_Alloc> _First, const _Alloc_ptr_t<_Alloc> _Last, _Alloc& _Al) noexcept {

  00000	55		 push	 ebp
  00001	8b ec		 mov	 ebp, esp

; 963  :     // note that this is an optimization for debug mode codegen; in release mode the BE removes all of this
; 964  :     using _Ty = typename _Alloc::value_type;
; 965  :     if _CONSTEXPR_IF (!conjunction_v<is_trivially_destructible<_Ty>, _Uses_default_destroy<_Alloc, _Ty*>>) {
; 966  :         for (; _First != _Last; ++_First) {
; 967  :             allocator_traits<_Alloc>::destroy(_Al, _Unfancy(_First));
; 968  :         }
; 969  :     }
; 970  : }

  00003	5d		 pop	 ebp
  00004	c3		 ret	 0
??$_Destroy_range@V?$allocator@PAVCGravityDecorator@NEffectUpdateDecorator@@@std@@@std@@YAXPAPAVCGravityDecorator@NEffectUpdateDecorator@@QAPAV12@AAV?$allocator@PAVCGravityDecorator@NEffectUpdateDecorator@@@0@@Z ENDP ; std::_Destroy_range<std::allocator<NEffectUpdateDecorator::CGravityDecorator *> >
_TEXT	ENDS
; Function compile flags: /Odspy
; File C:\Program Files (x86)\Microsoft Visual Studio\2019\Community\VC\Tools\MSVC\14.28.29333\include\xmemory
;	COMDAT ??$_Destroy_range@V?$allocator@PAVCAirResistanceDecorator@NEffectUpdateDecorator@@@std@@@std@@YAXPAPAVCAirResistanceDecorator@NEffectUpdateDecorator@@QAPAV12@AAV?$allocator@PAVCAirResistanceDecorator@NEffectUpdateDecorator@@@0@@Z
_TEXT	SEGMENT
__First$ = 8						; size = 4
__Last$ = 12						; size = 4
__Al$ = 16						; size = 4
??$_Destroy_range@V?$allocator@PAVCAirResistanceDecorator@NEffectUpdateDecorator@@@std@@@std@@YAXPAPAVCAirResistanceDecorator@NEffectUpdateDecorator@@QAPAV12@AAV?$allocator@PAVCAirResistanceDecorator@NEffectUpdateDecorator@@@0@@Z PROC ; std::_Destroy_range<std::allocator<NEffectUpdateDecorator::CAirResistanceDecorator *> >, COMDAT

; 962  :     _Alloc_ptr_t<_Alloc> _First, const _Alloc_ptr_t<_Alloc> _Last, _Alloc& _Al) noexcept {

  00000	55		 push	 ebp
  00001	8b ec		 mov	 ebp, esp

; 963  :     // note that this is an optimization for debug mode codegen; in release mode the BE removes all of this
; 964  :     using _Ty = typename _Alloc::value_type;
; 965  :     if _CONSTEXPR_IF (!conjunction_v<is_trivially_destructible<_Ty>, _Uses_default_destroy<_Alloc, _Ty*>>) {
; 966  :         for (; _First != _Last; ++_First) {
; 967  :             allocator_traits<_Alloc>::destroy(_Al, _Unfancy(_First));
; 968  :         }
; 969  :     }
; 970  : }

  00003	5d		 pop	 ebp
  00004	c3		 ret	 0
??$_Destroy_range@V?$allocator@PAVCAirResistanceDecorator@NEffectUpdateDecorator@@@std@@@std@@YAXPAPAVCAirResistanceDecorator@NEffectUpdateDecorator@@QAPAV12@AAV?$allocator@PAVCAirResistanceDecorator@NEffectUpdateDecorator@@@0@@Z ENDP ; std::_Destroy_range<std::allocator<NEffectUpdateDecorator::CAirResistanceDecorator *> >
_TEXT	ENDS
; Function compile flags: /Odspy
; File C:\Program Files (x86)\Microsoft Visual Studio\2019\Community\VC\Tools\MSVC\14.28.29333\include\xmemory
;	COMDAT ??$_Destroy_range@V?$allocator@PAVCTextureAnimationRandomDecorator@NEffectUpdateDecorator@@@std@@@std@@YAXPAPAVCTextureAnimationRandomDecorator@NEffectUpdateDecorator@@QAPAV12@AAV?$allocator@PAVCTextureAnimationRandomDecorator@NEffectUpdateDecorator@@@0@@Z
_TEXT	SEGMENT
__First$ = 8						; size = 4
__Last$ = 12						; size = 4
__Al$ = 16						; size = 4
??$_Destroy_range@V?$allocator@PAVCTextureAnimationRandomDecorator@NEffectUpdateDecorator@@@std@@@std@@YAXPAPAVCTextureAnimationRandomDecorator@NEffectUpdateDecorator@@QAPAV12@AAV?$allocator@PAVCTextureAnimationRandomDecorator@NEffectUpdateDecorator@@@0@@Z PROC ; std::_Destroy_range<std::allocator<NEffectUpdateDecorator::CTextureAnimationRandomDecorator *> >, COMDAT

; 962  :     _Alloc_ptr_t<_Alloc> _First, const _Alloc_ptr_t<_Alloc> _Last, _Alloc& _Al) noexcept {

  00000	55		 push	 ebp
  00001	8b ec		 mov	 ebp, esp

; 963  :     // note that this is an optimization for debug mode codegen; in release mode the BE removes all of this
; 964  :     using _Ty = typename _Alloc::value_type;
; 965  :     if _CONSTEXPR_IF (!conjunction_v<is_trivially_destructible<_Ty>, _Uses_default_destroy<_Alloc, _Ty*>>) {
; 966  :         for (; _First != _Last; ++_First) {
; 967  :             allocator_traits<_Alloc>::destroy(_Al, _Unfancy(_First));
; 968  :         }
; 969  :     }
; 970  : }

  00003	5d		 pop	 ebp
  00004	c3		 ret	 0
??$_Destroy_range@V?$allocator@PAVCTextureAnimationRandomDecorator@NEffectUpdateDecorator@@@std@@@std@@YAXPAPAVCTextureAnimationRandomDecorator@NEffectUpdateDecorator@@QAPAV12@AAV?$allocator@PAVCTextureAnimationRandomDecorator@NEffectUpdateDecorator@@@0@@Z ENDP ; std::_Destroy_range<std::allocator<NEffectUpdateDecorator::CTextureAnimationRandomDecorator *> >
_TEXT	ENDS
; Function compile flags: /Odspy
; File C:\Program Files (x86)\Microsoft Visual Studio\2019\Community\VC\Tools\MSVC\14.28.29333\include\xmemory
;	COMDAT ??$_Destroy_range@V?$allocator@PAVCTextureAnimationCCWDecorator@NEffectUpdateDecorator@@@std@@@std@@YAXPAPAVCTextureAnimationCCWDecorator@NEffectUpdateDecorator@@QAPAV12@AAV?$allocator@PAVCTextureAnimationCCWDecorator@NEffectUpdateDecorator@@@0@@Z
_TEXT	SEGMENT
__First$ = 8						; size = 4
__Last$ = 12						; size = 4
__Al$ = 16						; size = 4
??$_Destroy_range@V?$allocator@PAVCTextureAnimationCCWDecorator@NEffectUpdateDecorator@@@std@@@std@@YAXPAPAVCTextureAnimationCCWDecorator@NEffectUpdateDecorator@@QAPAV12@AAV?$allocator@PAVCTextureAnimationCCWDecorator@NEffectUpdateDecorator@@@0@@Z PROC ; std::_Destroy_range<std::allocator<NEffectUpdateDecorator::CTextureAnimationCCWDecorator *> >, COMDAT

; 962  :     _Alloc_ptr_t<_Alloc> _First, const _Alloc_ptr_t<_Alloc> _Last, _Alloc& _Al) noexcept {

  00000	55		 push	 ebp
  00001	8b ec		 mov	 ebp, esp

; 963  :     // note that this is an optimization for debug mode codegen; in release mode the BE removes all of this
; 964  :     using _Ty = typename _Alloc::value_type;
; 965  :     if _CONSTEXPR_IF (!conjunction_v<is_trivially_destructible<_Ty>, _Uses_default_destroy<_Alloc, _Ty*>>) {
; 966  :         for (; _First != _Last; ++_First) {
; 967  :             allocator_traits<_Alloc>::destroy(_Al, _Unfancy(_First));
; 968  :         }
; 969  :     }
; 970  : }

  00003	5d		 pop	 ebp
  00004	c3		 ret	 0
??$_Destroy_range@V?$allocator@PAVCTextureAnimationCCWDecorator@NEffectUpdateDecorator@@@std@@@std@@YAXPAPAVCTextureAnimationCCWDecorator@NEffectUpdateDecorator@@QAPAV12@AAV?$allocator@PAVCTextureAnimationCCWDecorator@NEffectUpdateDecorator@@@0@@Z ENDP ; std::_Destroy_range<std::allocator<NEffectUpdateDecorator::CTextureAnimationCCWDecorator *> >
_TEXT	ENDS
; Function compile flags: /Odspy
; File C:\Program Files (x86)\Microsoft Visual Studio\2019\Community\VC\Tools\MSVC\14.28.29333\include\xmemory
;	COMDAT ??$_Destroy_range@V?$allocator@PAVCTextureAnimationCWDecorator@NEffectUpdateDecorator@@@std@@@std@@YAXPAPAVCTextureAnimationCWDecorator@NEffectUpdateDecorator@@QAPAV12@AAV?$allocator@PAVCTextureAnimationCWDecorator@NEffectUpdateDecorator@@@0@@Z
_TEXT	SEGMENT
__First$ = 8						; size = 4
__Last$ = 12						; size = 4
__Al$ = 16						; size = 4
??$_Destroy_range@V?$allocator@PAVCTextureAnimationCWDecorator@NEffectUpdateDecorator@@@std@@@std@@YAXPAPAVCTextureAnimationCWDecorator@NEffectUpdateDecorator@@QAPAV12@AAV?$allocator@PAVCTextureAnimationCWDecorator@NEffectUpdateDecorator@@@0@@Z PROC ; std::_Destroy_range<std::allocator<NEffectUpdateDecorator::CTextureAnimationCWDecorator *> >, COMDAT

; 962  :     _Alloc_ptr_t<_Alloc> _First, const _Alloc_ptr_t<_Alloc> _Last, _Alloc& _Al) noexcept {

  00000	55		 push	 ebp
  00001	8b ec		 mov	 ebp, esp

; 963  :     // note that this is an optimization for debug mode codegen; in release mode the BE removes all of this
; 964  :     using _Ty = typename _Alloc::value_type;
; 965  :     if _CONSTEXPR_IF (!conjunction_v<is_trivially_destructible<_Ty>, _Uses_default_destroy<_Alloc, _Ty*>>) {
; 966  :         for (; _First != _Last; ++_First) {
; 967  :             allocator_traits<_Alloc>::destroy(_Al, _Unfancy(_First));
; 968  :         }
; 969  :     }
; 970  : }

  00003	5d		 pop	 ebp
  00004	c3		 ret	 0
??$_Destroy_range@V?$allocator@PAVCTextureAnimationCWDecorator@NEffectUpdateDecorator@@@std@@@std@@YAXPAPAVCTextureAnimationCWDecorator@NEffectUpdateDecorator@@QAPAV12@AAV?$allocator@PAVCTextureAnimationCWDecorator@NEffectUpdateDecorator@@@0@@Z ENDP ; std::_Destroy_range<std::allocator<NEffectUpdateDecorator::CTextureAnimationCWDecorator *> >
_TEXT	ENDS
; Function compile flags: /Odspy
; File C:\Program Files (x86)\Microsoft Visual Studio\2019\Community\VC\Tools\MSVC\14.28.29333\include\xmemory
;	COMDAT ??$_Destroy_range@V?$allocator@PAVCNullDecorator@NEffectUpdateDecorator@@@std@@@std@@YAXPAPAVCNullDecorator@NEffectUpdateDecorator@@QAPAV12@AAV?$allocator@PAVCNullDecorator@NEffectUpdateDecorator@@@0@@Z
_TEXT	SEGMENT
__First$ = 8						; size = 4
__Last$ = 12						; size = 4
__Al$ = 16						; size = 4
??$_Destroy_range@V?$allocator@PAVCNullDecorator@NEffectUpdateDecorator@@@std@@@std@@YAXPAPAVCNullDecorator@NEffectUpdateDecorator@@QAPAV12@AAV?$allocator@PAVCNullDecorator@NEffectUpdateDecorator@@@0@@Z PROC ; std::_Destroy_range<std::allocator<NEffectUpdateDecorator::CNullDecorator *> >, COMDAT

; 962  :     _Alloc_ptr_t<_Alloc> _First, const _Alloc_ptr_t<_Alloc> _Last, _Alloc& _Al) noexcept {

  00000	55		 push	 ebp
  00001	8b ec		 mov	 ebp, esp

; 963  :     // note that this is an optimization for debug mode codegen; in release mode the BE removes all of this
; 964  :     using _Ty = typename _Alloc::value_type;
; 965  :     if _CONSTEXPR_IF (!conjunction_v<is_trivially_destructible<_Ty>, _Uses_default_destroy<_Alloc, _Ty*>>) {
; 966  :         for (; _First != _Last; ++_First) {
; 967  :             allocator_traits<_Alloc>::destroy(_Al, _Unfancy(_First));
; 968  :         }
; 969  :     }
; 970  : }

  00003	5d		 pop	 ebp
  00004	c3		 ret	 0
??$_Destroy_range@V?$allocator@PAVCNullDecorator@NEffectUpdateDecorator@@@std@@@std@@YAXPAPAVCNullDecorator@NEffectUpdateDecorator@@QAPAV12@AAV?$allocator@PAVCNullDecorator@NEffectUpdateDecorator@@@0@@Z ENDP ; std::_Destroy_range<std::allocator<NEffectUpdateDecorator::CNullDecorator *> >
_TEXT	ENDS
; Function compile flags: /Odspy
; File C:\Program Files (x86)\Microsoft Visual Studio\2019\Community\VC\Tools\MSVC\14.28.29333\include\xmemory
;	COMDAT ??$_Destroy_range@V?$allocator@PAVCHeaderDecorator@NEffectUpdateDecorator@@@std@@@std@@YAXPAPAVCHeaderDecorator@NEffectUpdateDecorator@@QAPAV12@AAV?$allocator@PAVCHeaderDecorator@NEffectUpdateDecorator@@@0@@Z
_TEXT	SEGMENT
__First$ = 8						; size = 4
__Last$ = 12						; size = 4
__Al$ = 16						; size = 4
??$_Destroy_range@V?$allocator@PAVCHeaderDecorator@NEffectUpdateDecorator@@@std@@@std@@YAXPAPAVCHeaderDecorator@NEffectUpdateDecorator@@QAPAV12@AAV?$allocator@PAVCHeaderDecorator@NEffectUpdateDecorator@@@0@@Z PROC ; std::_Destroy_range<std::allocator<NEffectUpdateDecorator::CHeaderDecorator *> >, COMDAT

; 962  :     _Alloc_ptr_t<_Alloc> _First, const _Alloc_ptr_t<_Alloc> _Last, _Alloc& _Al) noexcept {

  00000	55		 push	 ebp
  00001	8b ec		 mov	 ebp, esp

; 963  :     // note that this is an optimization for debug mode codegen; in release mode the BE removes all of this
; 964  :     using _Ty = typename _Alloc::value_type;
; 965  :     if _CONSTEXPR_IF (!conjunction_v<is_trivially_destructible<_Ty>, _Uses_default_destroy<_Alloc, _Ty*>>) {
; 966  :         for (; _First != _Last; ++_First) {
; 967  :             allocator_traits<_Alloc>::destroy(_Al, _Unfancy(_First));
; 968  :         }
; 969  :     }
; 970  : }

  00003	5d		 pop	 ebp
  00004	c3		 ret	 0
??$_Destroy_range@V?$allocator@PAVCHeaderDecorator@NEffectUpdateDecorator@@@std@@@std@@YAXPAPAVCHeaderDecorator@NEffectUpdateDecorator@@QAPAV12@AAV?$allocator@PAVCHeaderDecorator@NEffectUpdateDecorator@@@0@@Z ENDP ; std::_Destroy_range<std::allocator<NEffectUpdateDecorator::CHeaderDecorator *> >
_TEXT	ENDS
; Function compile flags: /Odspy
; File C:\Program Files (x86)\Microsoft Visual Studio\2019\Community\VC\Tools\MSVC\14.28.29333\include\xtree
; File C:\Program Files (x86)\Microsoft Visual Studio\2019\Community\VC\Tools\MSVC\14.28.29333\include\xmemory
; File C:\Program Files (x86)\Microsoft Visual Studio\2019\Community\VC\Tools\MSVC\14.28.29333\include\xtree
;	COMDAT ??$_Buyheadnode@V?$allocator@U?$_Tree_node@U?$pair@$$CBHPAX@std@@PAX@std@@@std@@@?$_Tree_node@U?$pair@$$CBHPAX@std@@PAX@std@@SAPAU01@AAV?$allocator@U?$_Tree_node@U?$pair@$$CBHPAX@std@@PAX@std@@@1@@Z
_TEXT	SEGMENT
__Max_possible$1 = -20					; size = 4
$T2 = -16						; size = 4
$T3 = -12						; size = 4
__Pnode$ = -8						; size = 4
__Overflow_is_possible$4 = -1				; size = 1
__Al$ = 8						; size = 4
??$_Buyheadnode@V?$allocator@U?$_Tree_node@U?$pair@$$CBHPAX@std@@PAX@std@@@std@@@?$_Tree_node@U?$pair@$$CBHPAX@std@@PAX@std@@SAPAU01@AAV?$allocator@U?$_Tree_node@U?$pair@$$CBHPAX@std@@PAX@std@@@1@@Z PROC ; std::_Tree_node<std::pair<int const ,void *>,void *>::_Buyheadnode<std::allocator<std::_Tree_node<std::pair<int const ,void *>,void *> > >, COMDAT

; 341  :     static _Nodeptr _Buyheadnode(_Alloc& _Al) {

  00000	55		 push	 ebp
  00001	8b ec		 mov	 ebp, esp
  00003	83 ec 14	 sub	 esp, 20			; 00000014H
; File C:\Program Files (x86)\Microsoft Visual Studio\2019\Community\VC\Tools\MSVC\14.28.29333\include\xmemory

; 56   :     constexpr bool _Overflow_is_possible = _Ty_size > 1;

  00006	c6 45 ff 01	 mov	 BYTE PTR __Overflow_is_possible$4[ebp], 1

; 57   : 
; 58   :     if _CONSTEXPR_IF (_Overflow_is_possible) {
; 59   :         constexpr size_t _Max_possible = static_cast<size_t>(-1) / _Ty_size;

  0000a	c7 45 ec aa aa
	aa 0a		 mov	 DWORD PTR __Max_possible$1[ebp], 178956970 ; 0aaaaaaaH

; 60   :         if (_Count > _Max_possible) {

  00011	33 c0		 xor	 eax, eax
  00013	40		 inc	 eax
  00014	3d aa aa aa 0a	 cmp	 eax, 178956970		; 0aaaaaaaH
  00019	76 05		 jbe	 SHORT $LN6@Buyheadnod

; 61   :             _Throw_bad_array_new_length(); // multiply overflow

  0001b	e8 00 00 00 00	 call	 ?_Throw_bad_array_new_length@std@@YAXXZ ; std::_Throw_bad_array_new_length
$LN6@Buyheadnod:

; 62   :         }
; 63   :     }
; 64   : 
; 65   :     return _Count * _Ty_size;

  00020	33 c0		 xor	 eax, eax
  00022	40		 inc	 eax
  00023	6b c0 18	 imul	 eax, eax, 24
  00026	89 45 f4	 mov	 DWORD PTR $T3[ebp], eax

; 814  :         return static_cast<_Ty*>(_Allocate<_New_alignof<_Ty>>(_Get_size_of_n<sizeof(_Ty)>(_Count)));

  00029	ff 75 f4	 push	 DWORD PTR $T3[ebp]
  0002c	e8 00 00 00 00	 call	 ??$_Allocate@$07U_Default_allocate_traits@std@@$0A@@std@@YAPAXI@Z ; std::_Allocate<8,std::_Default_allocate_traits,0>
  00031	59		 pop	 ecx
  00032	89 45 f0	 mov	 DWORD PTR $T2[ebp], eax
; File C:\Program Files (x86)\Microsoft Visual Studio\2019\Community\VC\Tools\MSVC\14.28.29333\include\xtree

; 343  :         const auto _Pnode = _Al.allocate(1);

  00035	8b 45 f0	 mov	 eax, DWORD PTR $T2[ebp]
  00038	89 45 f8	 mov	 DWORD PTR __Pnode$[ebp], eax

; 344  :         _Construct_in_place(_Pnode->_Left, _Pnode);

  0003b	8d 45 f8	 lea	 eax, DWORD PTR __Pnode$[ebp]
  0003e	50		 push	 eax
  0003f	ff 75 f8	 push	 DWORD PTR __Pnode$[ebp]
  00042	e8 00 00 00 00	 call	 ??$_Construct_in_place@PAU?$_Tree_node@U?$pair@$$CBHPAX@std@@PAX@std@@ABQAU12@@std@@YAXAAPAU?$_Tree_node@U?$pair@$$CBHPAX@std@@PAX@0@ABQAU10@@Z ; std::_Construct_in_place<std::_Tree_node<std::pair<int const ,void *>,void *> *,std::_Tree_node<std::pair<int const ,void *>,void *> * const &>
  00047	59		 pop	 ecx
  00048	59		 pop	 ecx

; 345  :         _Construct_in_place(_Pnode->_Parent, _Pnode);

  00049	8d 45 f8	 lea	 eax, DWORD PTR __Pnode$[ebp]
  0004c	50		 push	 eax
  0004d	8b 45 f8	 mov	 eax, DWORD PTR __Pnode$[ebp]
  00050	83 c0 04	 add	 eax, 4
  00053	50		 push	 eax
  00054	e8 00 00 00 00	 call	 ??$_Construct_in_place@PAU?$_Tree_node@U?$pair@$$CBHPAX@std@@PAX@std@@ABQAU12@@std@@YAXAAPAU?$_Tree_node@U?$pair@$$CBHPAX@std@@PAX@0@ABQAU10@@Z ; std::_Construct_in_place<std::_Tree_node<std::pair<int const ,void *>,void *> *,std::_Tree_node<std::pair<int const ,void *>,void *> * const &>
  00059	59		 pop	 ecx
  0005a	59		 pop	 ecx

; 346  :         _Construct_in_place(_Pnode->_Right, _Pnode);

  0005b	8d 45 f8	 lea	 eax, DWORD PTR __Pnode$[ebp]
  0005e	50		 push	 eax
  0005f	8b 45 f8	 mov	 eax, DWORD PTR __Pnode$[ebp]
  00062	83 c0 08	 add	 eax, 8
  00065	50		 push	 eax
  00066	e8 00 00 00 00	 call	 ??$_Construct_in_place@PAU?$_Tree_node@U?$pair@$$CBHPAX@std@@PAX@std@@ABQAU12@@std@@YAXAAPAU?$_Tree_node@U?$pair@$$CBHPAX@std@@PAX@0@ABQAU10@@Z ; std::_Construct_in_place<std::_Tree_node<std::pair<int const ,void *>,void *> *,std::_Tree_node<std::pair<int const ,void *>,void *> * const &>
  0006b	59		 pop	 ecx
  0006c	59		 pop	 ecx

; 347  :         _Pnode->_Color = _Black;

  0006d	8b 45 f8	 mov	 eax, DWORD PTR __Pnode$[ebp]
  00070	c6 40 0c 01	 mov	 BYTE PTR [eax+12], 1

; 348  :         _Pnode->_Isnil = true;

  00074	8b 45 f8	 mov	 eax, DWORD PTR __Pnode$[ebp]
  00077	c6 40 0d 01	 mov	 BYTE PTR [eax+13], 1

; 349  :         return _Pnode;

  0007b	8b 45 f8	 mov	 eax, DWORD PTR __Pnode$[ebp]
$LN9@Buyheadnod:

; 350  :     }

  0007e	c9		 leave
  0007f	c3		 ret	 0
??$_Buyheadnode@V?$allocator@U?$_Tree_node@U?$pair@$$CBHPAX@std@@PAX@std@@@std@@@?$_Tree_node@U?$pair@$$CBHPAX@std@@PAX@std@@SAPAU01@AAV?$allocator@U?$_Tree_node@U?$pair@$$CBHPAX@std@@PAX@std@@@1@@Z ENDP ; std::_Tree_node<std::pair<int const ,void *>,void *>::_Buyheadnode<std::allocator<std::_Tree_node<std::pair<int const ,void *>,void *> > >
_TEXT	ENDS
; Function compile flags: /Odspy
; File C:\Program Files (x86)\Microsoft Visual Studio\2019\Community\VC\Tools\MSVC\14.28.29333\include\algorithm
; File C:\Program Files (x86)\Microsoft Visual Studio\2019\Community\VC\Tools\MSVC\14.28.29333\include\vector
; File C:\Program Files (x86)\Microsoft Visual Studio\2019\Community\VC\Tools\MSVC\14.28.29333\include\xstddef
; File C:\Program Files (x86)\Microsoft Visual Studio\2019\Community\VC\Tools\MSVC\14.28.29333\include\vector
; File C:\Program Files (x86)\Microsoft Visual Studio\2019\Community\VC\Tools\MSVC\14.28.29333\include\algorithm
; File C:\Program Files (x86)\Microsoft Visual Studio\2019\Community\VC\Tools\MSVC\14.28.29333\include\vector
; File C:\Program Files (x86)\Microsoft Visual Studio\2019\Community\VC\Tools\MSVC\14.28.29333\include\xstddef
; File C:\Program Files (x86)\Microsoft Visual Studio\2019\Community\VC\Tools\MSVC\14.28.29333\include\vector
; File C:\Program Files (x86)\Microsoft Visual Studio\2019\Community\VC\Tools\MSVC\14.28.29333\include\algorithm
;	COMDAT ??$for_each@V?$_Vector_iterator@V?$_Vector_val@U?$_Simple_types@PAVCRotationDecorator@NEffectUpdateDecorator@@@std@@@std@@@std@@P6AXPAVCRotationDecorator@NEffectUpdateDecorator@@@Z@std@@YAP6AXPAVCRotationDecorator@NEffectUpdateDecorator@@@ZV?$_Vector_iterator@V?$_Vector_val@U?$_Simple_types@PAVCRotationDecorator@NEffectUpdateDecorator@@@std@@@std@@@0@1P6AX0@Z@Z
_TEXT	SEGMENT
__ULast$ = -32						; size = 4
$T1 = -28						; size = 4
$T2 = -24						; size = 4
__Ptr$3 = -20						; size = 4
$T4 = -16						; size = 4
$T5 = -12						; size = 4
__Ptr$6 = -8						; size = 4
__UFirst$ = -4						; size = 4
__First$ = 8						; size = 4
__Last$ = 12						; size = 4
__Func$ = 16						; size = 4
??$for_each@V?$_Vector_iterator@V?$_Vector_val@U?$_Simple_types@PAVCRotationDecorator@NEffectUpdateDecorator@@@std@@@std@@@std@@P6AXPAVCRotationDecorator@NEffectUpdateDecorator@@@Z@std@@YAP6AXPAVCRotationDecorator@NEffectUpdateDecorator@@@ZV?$_Vector_iterator@V?$_Vector_val@U?$_Simple_types@PAVCRotationDecorator@NEffectUpdateDecorator@@@std@@@std@@@0@1P6AX0@Z@Z PROC ; std::for_each<std::_Vector_iterator<std::_Vector_val<std::_Simple_types<NEffectUpdateDecorator::CRotationDecorator *> > >,void (__cdecl*)(NEffectUpdateDecorator::CRotationDecorator *)>, COMDAT

; 303  : _CONSTEXPR20 _Fn for_each(_InIt _First, _InIt _Last, _Fn _Func) { // perform function for each element [_First, _Last)

  00000	55		 push	 ebp
  00001	8b ec		 mov	 ebp, esp
  00003	83 ec 20	 sub	 esp, 32			; 00000020H
; File C:\Program Files (x86)\Microsoft Visual Studio\2019\Community\VC\Tools\MSVC\14.28.29333\include\vector

; 310  :         return _Unfancy(this->_Ptr);

  00006	8b 45 08	 mov	 eax, DWORD PTR __First$[ebp]
  00009	89 45 f8	 mov	 DWORD PTR __Ptr$6[ebp], eax
; File C:\Program Files (x86)\Microsoft Visual Studio\2019\Community\VC\Tools\MSVC\14.28.29333\include\xstddef

; 289  :     return _Ptr;

  0000c	8b 45 f8	 mov	 eax, DWORD PTR __Ptr$6[ebp]
  0000f	89 45 f4	 mov	 DWORD PTR $T5[ebp], eax
; File C:\Program Files (x86)\Microsoft Visual Studio\2019\Community\VC\Tools\MSVC\14.28.29333\include\vector

; 310  :         return _Unfancy(this->_Ptr);

  00012	8b 45 f4	 mov	 eax, DWORD PTR $T5[ebp]
  00015	89 45 f0	 mov	 DWORD PTR $T4[ebp], eax
; File C:\Program Files (x86)\Microsoft Visual Studio\2019\Community\VC\Tools\MSVC\14.28.29333\include\algorithm

; 305  :     auto _UFirst      = _Get_unwrapped(_First);

  00018	8b 45 f0	 mov	 eax, DWORD PTR $T4[ebp]
  0001b	89 45 fc	 mov	 DWORD PTR __UFirst$[ebp], eax
; File C:\Program Files (x86)\Microsoft Visual Studio\2019\Community\VC\Tools\MSVC\14.28.29333\include\vector

; 310  :         return _Unfancy(this->_Ptr);

  0001e	8b 45 0c	 mov	 eax, DWORD PTR __Last$[ebp]
  00021	89 45 ec	 mov	 DWORD PTR __Ptr$3[ebp], eax
; File C:\Program Files (x86)\Microsoft Visual Studio\2019\Community\VC\Tools\MSVC\14.28.29333\include\xstddef

; 289  :     return _Ptr;

  00024	8b 45 ec	 mov	 eax, DWORD PTR __Ptr$3[ebp]
  00027	89 45 e8	 mov	 DWORD PTR $T2[ebp], eax
; File C:\Program Files (x86)\Microsoft Visual Studio\2019\Community\VC\Tools\MSVC\14.28.29333\include\vector

; 310  :         return _Unfancy(this->_Ptr);

  0002a	8b 45 e8	 mov	 eax, DWORD PTR $T2[ebp]
  0002d	89 45 e4	 mov	 DWORD PTR $T1[ebp], eax
; File C:\Program Files (x86)\Microsoft Visual Studio\2019\Community\VC\Tools\MSVC\14.28.29333\include\algorithm

; 306  :     const auto _ULast = _Get_unwrapped(_Last);

  00030	8b 45 e4	 mov	 eax, DWORD PTR $T1[ebp]
  00033	89 45 e0	 mov	 DWORD PTR __ULast$[ebp], eax

; 307  :     for (; _UFirst != _ULast; ++_UFirst) {

  00036	eb 09		 jmp	 SHORT $LN4@for_each
$LN2@for_each:
  00038	8b 45 fc	 mov	 eax, DWORD PTR __UFirst$[ebp]
  0003b	83 c0 04	 add	 eax, 4
  0003e	89 45 fc	 mov	 DWORD PTR __UFirst$[ebp], eax
$LN4@for_each:
  00041	8b 45 fc	 mov	 eax, DWORD PTR __UFirst$[ebp]
  00044	3b 45 e0	 cmp	 eax, DWORD PTR __ULast$[ebp]
  00047	74 0b		 je	 SHORT $LN3@for_each

; 308  :         _Func(*_UFirst);

  00049	8b 45 fc	 mov	 eax, DWORD PTR __UFirst$[ebp]
  0004c	ff 30		 push	 DWORD PTR [eax]
  0004e	ff 55 10	 call	 DWORD PTR __Func$[ebp]
  00051	59		 pop	 ecx

; 309  :     }

  00052	eb e4		 jmp	 SHORT $LN2@for_each
$LN3@for_each:

; 310  : 
; 311  :     return _Func;

  00054	8b 45 10	 mov	 eax, DWORD PTR __Func$[ebp]

; 312  : }

  00057	c9		 leave
  00058	c3		 ret	 0
??$for_each@V?$_Vector_iterator@V?$_Vector_val@U?$_Simple_types@PAVCRotationDecorator@NEffectUpdateDecorator@@@std@@@std@@@std@@P6AXPAVCRotationDecorator@NEffectUpdateDecorator@@@Z@std@@YAP6AXPAVCRotationDecorator@NEffectUpdateDecorator@@@ZV?$_Vector_iterator@V?$_Vector_val@U?$_Simple_types@PAVCRotationDecorator@NEffectUpdateDecorator@@@std@@@std@@@0@1P6AX0@Z@Z ENDP ; std::for_each<std::_Vector_iterator<std::_Vector_val<std::_Simple_types<NEffectUpdateDecorator::CRotationDecorator *> > >,void (__cdecl*)(NEffectUpdateDecorator::CRotationDecorator *)>
_TEXT	ENDS
; Function compile flags: /Odspy
; File C:\Program Files (x86)\Microsoft Visual Studio\2019\Community\VC\Tools\MSVC\14.28.29333\include\algorithm
; File C:\Program Files (x86)\Microsoft Visual Studio\2019\Community\VC\Tools\MSVC\14.28.29333\include\vector
; File C:\Program Files (x86)\Microsoft Visual Studio\2019\Community\VC\Tools\MSVC\14.28.29333\include\xstddef
; File C:\Program Files (x86)\Microsoft Visual Studio\2019\Community\VC\Tools\MSVC\14.28.29333\include\vector
; File C:\Program Files (x86)\Microsoft Visual Studio\2019\Community\VC\Tools\MSVC\14.28.29333\include\algorithm
; File C:\Program Files (x86)\Microsoft Visual Studio\2019\Community\VC\Tools\MSVC\14.28.29333\include\vector
; File C:\Program Files (x86)\Microsoft Visual Studio\2019\Community\VC\Tools\MSVC\14.28.29333\include\xstddef
; File C:\Program Files (x86)\Microsoft Visual Studio\2019\Community\VC\Tools\MSVC\14.28.29333\include\vector
; File C:\Program Files (x86)\Microsoft Visual Studio\2019\Community\VC\Tools\MSVC\14.28.29333\include\algorithm
;	COMDAT ??$for_each@V?$_Vector_iterator@V?$_Vector_val@U?$_Simple_types@PAVCGravityDecorator@NEffectUpdateDecorator@@@std@@@std@@@std@@P6AXPAVCGravityDecorator@NEffectUpdateDecorator@@@Z@std@@YAP6AXPAVCGravityDecorator@NEffectUpdateDecorator@@@ZV?$_Vector_iterator@V?$_Vector_val@U?$_Simple_types@PAVCGravityDecorator@NEffectUpdateDecorator@@@std@@@std@@@0@1P6AX0@Z@Z
_TEXT	SEGMENT
__ULast$ = -32						; size = 4
$T1 = -28						; size = 4
$T2 = -24						; size = 4
__Ptr$3 = -20						; size = 4
$T4 = -16						; size = 4
$T5 = -12						; size = 4
__Ptr$6 = -8						; size = 4
__UFirst$ = -4						; size = 4
__First$ = 8						; size = 4
__Last$ = 12						; size = 4
__Func$ = 16						; size = 4
??$for_each@V?$_Vector_iterator@V?$_Vector_val@U?$_Simple_types@PAVCGravityDecorator@NEffectUpdateDecorator@@@std@@@std@@@std@@P6AXPAVCGravityDecorator@NEffectUpdateDecorator@@@Z@std@@YAP6AXPAVCGravityDecorator@NEffectUpdateDecorator@@@ZV?$_Vector_iterator@V?$_Vector_val@U?$_Simple_types@PAVCGravityDecorator@NEffectUpdateDecorator@@@std@@@std@@@0@1P6AX0@Z@Z PROC ; std::for_each<std::_Vector_iterator<std::_Vector_val<std::_Simple_types<NEffectUpdateDecorator::CGravityDecorator *> > >,void (__cdecl*)(NEffectUpdateDecorator::CGravityDecorator *)>, COMDAT

; 303  : _CONSTEXPR20 _Fn for_each(_InIt _First, _InIt _Last, _Fn _Func) { // perform function for each element [_First, _Last)

  00000	55		 push	 ebp
  00001	8b ec		 mov	 ebp, esp
  00003	83 ec 20	 sub	 esp, 32			; 00000020H
; File C:\Program Files (x86)\Microsoft Visual Studio\2019\Community\VC\Tools\MSVC\14.28.29333\include\vector

; 310  :         return _Unfancy(this->_Ptr);

  00006	8b 45 08	 mov	 eax, DWORD PTR __First$[ebp]
  00009	89 45 f8	 mov	 DWORD PTR __Ptr$6[ebp], eax
; File C:\Program Files (x86)\Microsoft Visual Studio\2019\Community\VC\Tools\MSVC\14.28.29333\include\xstddef

; 289  :     return _Ptr;

  0000c	8b 45 f8	 mov	 eax, DWORD PTR __Ptr$6[ebp]
  0000f	89 45 f4	 mov	 DWORD PTR $T5[ebp], eax
; File C:\Program Files (x86)\Microsoft Visual Studio\2019\Community\VC\Tools\MSVC\14.28.29333\include\vector

; 310  :         return _Unfancy(this->_Ptr);

  00012	8b 45 f4	 mov	 eax, DWORD PTR $T5[ebp]
  00015	89 45 f0	 mov	 DWORD PTR $T4[ebp], eax
; File C:\Program Files (x86)\Microsoft Visual Studio\2019\Community\VC\Tools\MSVC\14.28.29333\include\algorithm

; 305  :     auto _UFirst      = _Get_unwrapped(_First);

  00018	8b 45 f0	 mov	 eax, DWORD PTR $T4[ebp]
  0001b	89 45 fc	 mov	 DWORD PTR __UFirst$[ebp], eax
; File C:\Program Files (x86)\Microsoft Visual Studio\2019\Community\VC\Tools\MSVC\14.28.29333\include\vector

; 310  :         return _Unfancy(this->_Ptr);

  0001e	8b 45 0c	 mov	 eax, DWORD PTR __Last$[ebp]
  00021	89 45 ec	 mov	 DWORD PTR __Ptr$3[ebp], eax
; File C:\Program Files (x86)\Microsoft Visual Studio\2019\Community\VC\Tools\MSVC\14.28.29333\include\xstddef

; 289  :     return _Ptr;

  00024	8b 45 ec	 mov	 eax, DWORD PTR __Ptr$3[ebp]
  00027	89 45 e8	 mov	 DWORD PTR $T2[ebp], eax
; File C:\Program Files (x86)\Microsoft Visual Studio\2019\Community\VC\Tools\MSVC\14.28.29333\include\vector

; 310  :         return _Unfancy(this->_Ptr);

  0002a	8b 45 e8	 mov	 eax, DWORD PTR $T2[ebp]
  0002d	89 45 e4	 mov	 DWORD PTR $T1[ebp], eax
; File C:\Program Files (x86)\Microsoft Visual Studio\2019\Community\VC\Tools\MSVC\14.28.29333\include\algorithm

; 306  :     const auto _ULast = _Get_unwrapped(_Last);

  00030	8b 45 e4	 mov	 eax, DWORD PTR $T1[ebp]
  00033	89 45 e0	 mov	 DWORD PTR __ULast$[ebp], eax

; 307  :     for (; _UFirst != _ULast; ++_UFirst) {

  00036	eb 09		 jmp	 SHORT $LN4@for_each
$LN2@for_each:
  00038	8b 45 fc	 mov	 eax, DWORD PTR __UFirst$[ebp]
  0003b	83 c0 04	 add	 eax, 4
  0003e	89 45 fc	 mov	 DWORD PTR __UFirst$[ebp], eax
$LN4@for_each:
  00041	8b 45 fc	 mov	 eax, DWORD PTR __UFirst$[ebp]
  00044	3b 45 e0	 cmp	 eax, DWORD PTR __ULast$[ebp]
  00047	74 0b		 je	 SHORT $LN3@for_each

; 308  :         _Func(*_UFirst);

  00049	8b 45 fc	 mov	 eax, DWORD PTR __UFirst$[ebp]
  0004c	ff 30		 push	 DWORD PTR [eax]
  0004e	ff 55 10	 call	 DWORD PTR __Func$[ebp]
  00051	59		 pop	 ecx

; 309  :     }

  00052	eb e4		 jmp	 SHORT $LN2@for_each
$LN3@for_each:

; 310  : 
; 311  :     return _Func;

  00054	8b 45 10	 mov	 eax, DWORD PTR __Func$[ebp]

; 312  : }

  00057	c9		 leave
  00058	c3		 ret	 0
??$for_each@V?$_Vector_iterator@V?$_Vector_val@U?$_Simple_types@PAVCGravityDecorator@NEffectUpdateDecorator@@@std@@@std@@@std@@P6AXPAVCGravityDecorator@NEffectUpdateDecorator@@@Z@std@@YAP6AXPAVCGravityDecorator@NEffectUpdateDecorator@@@ZV?$_Vector_iterator@V?$_Vector_val@U?$_Simple_types@PAVCGravityDecorator@NEffectUpdateDecorator@@@std@@@std@@@0@1P6AX0@Z@Z ENDP ; std::for_each<std::_Vector_iterator<std::_Vector_val<std::_Simple_types<NEffectUpdateDecorator::CGravityDecorator *> > >,void (__cdecl*)(NEffectUpdateDecorator::CGravityDecorator *)>
_TEXT	ENDS
; Function compile flags: /Odspy
; File C:\Program Files (x86)\Microsoft Visual Studio\2019\Community\VC\Tools\MSVC\14.28.29333\include\algorithm
; File C:\Program Files (x86)\Microsoft Visual Studio\2019\Community\VC\Tools\MSVC\14.28.29333\include\vector
; File C:\Program Files (x86)\Microsoft Visual Studio\2019\Community\VC\Tools\MSVC\14.28.29333\include\xstddef
; File C:\Program Files (x86)\Microsoft Visual Studio\2019\Community\VC\Tools\MSVC\14.28.29333\include\vector
; File C:\Program Files (x86)\Microsoft Visual Studio\2019\Community\VC\Tools\MSVC\14.28.29333\include\algorithm
; File C:\Program Files (x86)\Microsoft Visual Studio\2019\Community\VC\Tools\MSVC\14.28.29333\include\vector
; File C:\Program Files (x86)\Microsoft Visual Studio\2019\Community\VC\Tools\MSVC\14.28.29333\include\xstddef
; File C:\Program Files (x86)\Microsoft Visual Studio\2019\Community\VC\Tools\MSVC\14.28.29333\include\vector
; File C:\Program Files (x86)\Microsoft Visual Studio\2019\Community\VC\Tools\MSVC\14.28.29333\include\algorithm
;	COMDAT ??$for_each@V?$_Vector_iterator@V?$_Vector_val@U?$_Simple_types@PAVCAirResistanceDecorator@NEffectUpdateDecorator@@@std@@@std@@@std@@P6AXPAVCAirResistanceDecorator@NEffectUpdateDecorator@@@Z@std@@YAP6AXPAVCAirResistanceDecorator@NEffectUpdateDecorator@@@ZV?$_Vector_iterator@V?$_Vector_val@U?$_Simple_types@PAVCAirResistanceDecorator@NEffectUpdateDecorator@@@std@@@std@@@0@1P6AX0@Z@Z
_TEXT	SEGMENT
__ULast$ = -32						; size = 4
$T1 = -28						; size = 4
$T2 = -24						; size = 4
__Ptr$3 = -20						; size = 4
$T4 = -16						; size = 4
$T5 = -12						; size = 4
__Ptr$6 = -8						; size = 4
__UFirst$ = -4						; size = 4
__First$ = 8						; size = 4
__Last$ = 12						; size = 4
__Func$ = 16						; size = 4
??$for_each@V?$_Vector_iterator@V?$_Vector_val@U?$_Simple_types@PAVCAirResistanceDecorator@NEffectUpdateDecorator@@@std@@@std@@@std@@P6AXPAVCAirResistanceDecorator@NEffectUpdateDecorator@@@Z@std@@YAP6AXPAVCAirResistanceDecorator@NEffectUpdateDecorator@@@ZV?$_Vector_iterator@V?$_Vector_val@U?$_Simple_types@PAVCAirResistanceDecorator@NEffectUpdateDecorator@@@std@@@std@@@0@1P6AX0@Z@Z PROC ; std::for_each<std::_Vector_iterator<std::_Vector_val<std::_Simple_types<NEffectUpdateDecorator::CAirResistanceDecorator *> > >,void (__cdecl*)(NEffectUpdateDecorator::CAirResistanceDecorator *)>, COMDAT

; 303  : _CONSTEXPR20 _Fn for_each(_InIt _First, _InIt _Last, _Fn _Func) { // perform function for each element [_First, _Last)

  00000	55		 push	 ebp
  00001	8b ec		 mov	 ebp, esp
  00003	83 ec 20	 sub	 esp, 32			; 00000020H
; File C:\Program Files (x86)\Microsoft Visual Studio\2019\Community\VC\Tools\MSVC\14.28.29333\include\vector

; 310  :         return _Unfancy(this->_Ptr);

  00006	8b 45 08	 mov	 eax, DWORD PTR __First$[ebp]
  00009	89 45 f8	 mov	 DWORD PTR __Ptr$6[ebp], eax
; File C:\Program Files (x86)\Microsoft Visual Studio\2019\Community\VC\Tools\MSVC\14.28.29333\include\xstddef

; 289  :     return _Ptr;

  0000c	8b 45 f8	 mov	 eax, DWORD PTR __Ptr$6[ebp]
  0000f	89 45 f4	 mov	 DWORD PTR $T5[ebp], eax
; File C:\Program Files (x86)\Microsoft Visual Studio\2019\Community\VC\Tools\MSVC\14.28.29333\include\vector

; 310  :         return _Unfancy(this->_Ptr);

  00012	8b 45 f4	 mov	 eax, DWORD PTR $T5[ebp]
  00015	89 45 f0	 mov	 DWORD PTR $T4[ebp], eax
; File C:\Program Files (x86)\Microsoft Visual Studio\2019\Community\VC\Tools\MSVC\14.28.29333\include\algorithm

; 305  :     auto _UFirst      = _Get_unwrapped(_First);

  00018	8b 45 f0	 mov	 eax, DWORD PTR $T4[ebp]
  0001b	89 45 fc	 mov	 DWORD PTR __UFirst$[ebp], eax
; File C:\Program Files (x86)\Microsoft Visual Studio\2019\Community\VC\Tools\MSVC\14.28.29333\include\vector

; 310  :         return _Unfancy(this->_Ptr);

  0001e	8b 45 0c	 mov	 eax, DWORD PTR __Last$[ebp]
  00021	89 45 ec	 mov	 DWORD PTR __Ptr$3[ebp], eax
; File C:\Program Files (x86)\Microsoft Visual Studio\2019\Community\VC\Tools\MSVC\14.28.29333\include\xstddef

; 289  :     return _Ptr;

  00024	8b 45 ec	 mov	 eax, DWORD PTR __Ptr$3[ebp]
  00027	89 45 e8	 mov	 DWORD PTR $T2[ebp], eax
; File C:\Program Files (x86)\Microsoft Visual Studio\2019\Community\VC\Tools\MSVC\14.28.29333\include\vector

; 310  :         return _Unfancy(this->_Ptr);

  0002a	8b 45 e8	 mov	 eax, DWORD PTR $T2[ebp]
  0002d	89 45 e4	 mov	 DWORD PTR $T1[ebp], eax
; File C:\Program Files (x86)\Microsoft Visual Studio\2019\Community\VC\Tools\MSVC\14.28.29333\include\algorithm

; 306  :     const auto _ULast = _Get_unwrapped(_Last);

  00030	8b 45 e4	 mov	 eax, DWORD PTR $T1[ebp]
  00033	89 45 e0	 mov	 DWORD PTR __ULast$[ebp], eax

; 307  :     for (; _UFirst != _ULast; ++_UFirst) {

  00036	eb 09		 jmp	 SHORT $LN4@for_each
$LN2@for_each:
  00038	8b 45 fc	 mov	 eax, DWORD PTR __UFirst$[ebp]
  0003b	83 c0 04	 add	 eax, 4
  0003e	89 45 fc	 mov	 DWORD PTR __UFirst$[ebp], eax
$LN4@for_each:
  00041	8b 45 fc	 mov	 eax, DWORD PTR __UFirst$[ebp]
  00044	3b 45 e0	 cmp	 eax, DWORD PTR __ULast$[ebp]
  00047	74 0b		 je	 SHORT $LN3@for_each

; 308  :         _Func(*_UFirst);

  00049	8b 45 fc	 mov	 eax, DWORD PTR __UFirst$[ebp]
  0004c	ff 30		 push	 DWORD PTR [eax]
  0004e	ff 55 10	 call	 DWORD PTR __Func$[ebp]
  00051	59		 pop	 ecx

; 309  :     }

  00052	eb e4		 jmp	 SHORT $LN2@for_each
$LN3@for_each:

; 310  : 
; 311  :     return _Func;

  00054	8b 45 10	 mov	 eax, DWORD PTR __Func$[ebp]

; 312  : }

  00057	c9		 leave
  00058	c3		 ret	 0
??$for_each@V?$_Vector_iterator@V?$_Vector_val@U?$_Simple_types@PAVCAirResistanceDecorator@NEffectUpdateDecorator@@@std@@@std@@@std@@P6AXPAVCAirResistanceDecorator@NEffectUpdateDecorator@@@Z@std@@YAP6AXPAVCAirResistanceDecorator@NEffectUpdateDecorator@@@ZV?$_Vector_iterator@V?$_Vector_val@U?$_Simple_types@PAVCAirResistanceDecorator@NEffectUpdateDecorator@@@std@@@std@@@0@1P6AX0@Z@Z ENDP ; std::for_each<std::_Vector_iterator<std::_Vector_val<std::_Simple_types<NEffectUpdateDecorator::CAirResistanceDecorator *> > >,void (__cdecl*)(NEffectUpdateDecorator::CAirResistanceDecorator *)>
_TEXT	ENDS
; Function compile flags: /Odspy
; File C:\Program Files (x86)\Microsoft Visual Studio\2019\Community\VC\Tools\MSVC\14.28.29333\include\algorithm
; File C:\Program Files (x86)\Microsoft Visual Studio\2019\Community\VC\Tools\MSVC\14.28.29333\include\vector
; File C:\Program Files (x86)\Microsoft Visual Studio\2019\Community\VC\Tools\MSVC\14.28.29333\include\xstddef
; File C:\Program Files (x86)\Microsoft Visual Studio\2019\Community\VC\Tools\MSVC\14.28.29333\include\vector
; File C:\Program Files (x86)\Microsoft Visual Studio\2019\Community\VC\Tools\MSVC\14.28.29333\include\algorithm
; File C:\Program Files (x86)\Microsoft Visual Studio\2019\Community\VC\Tools\MSVC\14.28.29333\include\vector
; File C:\Program Files (x86)\Microsoft Visual Studio\2019\Community\VC\Tools\MSVC\14.28.29333\include\xstddef
; File C:\Program Files (x86)\Microsoft Visual Studio\2019\Community\VC\Tools\MSVC\14.28.29333\include\vector
; File C:\Program Files (x86)\Microsoft Visual Studio\2019\Community\VC\Tools\MSVC\14.28.29333\include\algorithm
;	COMDAT ??$for_each@V?$_Vector_iterator@V?$_Vector_val@U?$_Simple_types@PAVCTextureAnimationRandomDecorator@NEffectUpdateDecorator@@@std@@@std@@@std@@P6AXPAVCTextureAnimationRandomDecorator@NEffectUpdateDecorator@@@Z@std@@YAP6AXPAVCTextureAnimationRandomDecorator@NEffectUpdateDecorator@@@ZV?$_Vector_iterator@V?$_Vector_val@U?$_Simple_types@PAVCTextureAnimationRandomDecorator@NEffectUpdateDecorator@@@std@@@std@@@0@1P6AX0@Z@Z
_TEXT	SEGMENT
__ULast$ = -32						; size = 4
$T1 = -28						; size = 4
$T2 = -24						; size = 4
__Ptr$3 = -20						; size = 4
$T4 = -16						; size = 4
$T5 = -12						; size = 4
__Ptr$6 = -8						; size = 4
__UFirst$ = -4						; size = 4
__First$ = 8						; size = 4
__Last$ = 12						; size = 4
__Func$ = 16						; size = 4
??$for_each@V?$_Vector_iterator@V?$_Vector_val@U?$_Simple_types@PAVCTextureAnimationRandomDecorator@NEffectUpdateDecorator@@@std@@@std@@@std@@P6AXPAVCTextureAnimationRandomDecorator@NEffectUpdateDecorator@@@Z@std@@YAP6AXPAVCTextureAnimationRandomDecorator@NEffectUpdateDecorator@@@ZV?$_Vector_iterator@V?$_Vector_val@U?$_Simple_types@PAVCTextureAnimationRandomDecorator@NEffectUpdateDecorator@@@std@@@std@@@0@1P6AX0@Z@Z PROC ; std::for_each<std::_Vector_iterator<std::_Vector_val<std::_Simple_types<NEffectUpdateDecorator::CTextureAnimationRandomDecorator *> > >,void (__cdecl*)(NEffectUpdateDecorator::CTextureAnimationRandomDecorator *)>, COMDAT

; 303  : _CONSTEXPR20 _Fn for_each(_InIt _First, _InIt _Last, _Fn _Func) { // perform function for each element [_First, _Last)

  00000	55		 push	 ebp
  00001	8b ec		 mov	 ebp, esp
  00003	83 ec 20	 sub	 esp, 32			; 00000020H
; File C:\Program Files (x86)\Microsoft Visual Studio\2019\Community\VC\Tools\MSVC\14.28.29333\include\vector

; 310  :         return _Unfancy(this->_Ptr);

  00006	8b 45 08	 mov	 eax, DWORD PTR __First$[ebp]
  00009	89 45 f8	 mov	 DWORD PTR __Ptr$6[ebp], eax
; File C:\Program Files (x86)\Microsoft Visual Studio\2019\Community\VC\Tools\MSVC\14.28.29333\include\xstddef

; 289  :     return _Ptr;

  0000c	8b 45 f8	 mov	 eax, DWORD PTR __Ptr$6[ebp]
  0000f	89 45 f4	 mov	 DWORD PTR $T5[ebp], eax
; File C:\Program Files (x86)\Microsoft Visual Studio\2019\Community\VC\Tools\MSVC\14.28.29333\include\vector

; 310  :         return _Unfancy(this->_Ptr);

  00012	8b 45 f4	 mov	 eax, DWORD PTR $T5[ebp]
  00015	89 45 f0	 mov	 DWORD PTR $T4[ebp], eax
; File C:\Program Files (x86)\Microsoft Visual Studio\2019\Community\VC\Tools\MSVC\14.28.29333\include\algorithm

; 305  :     auto _UFirst      = _Get_unwrapped(_First);

  00018	8b 45 f0	 mov	 eax, DWORD PTR $T4[ebp]
  0001b	89 45 fc	 mov	 DWORD PTR __UFirst$[ebp], eax
; File C:\Program Files (x86)\Microsoft Visual Studio\2019\Community\VC\Tools\MSVC\14.28.29333\include\vector

; 310  :         return _Unfancy(this->_Ptr);

  0001e	8b 45 0c	 mov	 eax, DWORD PTR __Last$[ebp]
  00021	89 45 ec	 mov	 DWORD PTR __Ptr$3[ebp], eax
; File C:\Program Files (x86)\Microsoft Visual Studio\2019\Community\VC\Tools\MSVC\14.28.29333\include\xstddef

; 289  :     return _Ptr;

  00024	8b 45 ec	 mov	 eax, DWORD PTR __Ptr$3[ebp]
  00027	89 45 e8	 mov	 DWORD PTR $T2[ebp], eax
; File C:\Program Files (x86)\Microsoft Visual Studio\2019\Community\VC\Tools\MSVC\14.28.29333\include\vector

; 310  :         return _Unfancy(this->_Ptr);

  0002a	8b 45 e8	 mov	 eax, DWORD PTR $T2[ebp]
  0002d	89 45 e4	 mov	 DWORD PTR $T1[ebp], eax
; File C:\Program Files (x86)\Microsoft Visual Studio\2019\Community\VC\Tools\MSVC\14.28.29333\include\algorithm

; 306  :     const auto _ULast = _Get_unwrapped(_Last);

  00030	8b 45 e4	 mov	 eax, DWORD PTR $T1[ebp]
  00033	89 45 e0	 mov	 DWORD PTR __ULast$[ebp], eax

; 307  :     for (; _UFirst != _ULast; ++_UFirst) {

  00036	eb 09		 jmp	 SHORT $LN4@for_each
$LN2@for_each:
  00038	8b 45 fc	 mov	 eax, DWORD PTR __UFirst$[ebp]
  0003b	83 c0 04	 add	 eax, 4
  0003e	89 45 fc	 mov	 DWORD PTR __UFirst$[ebp], eax
$LN4@for_each:
  00041	8b 45 fc	 mov	 eax, DWORD PTR __UFirst$[ebp]
  00044	3b 45 e0	 cmp	 eax, DWORD PTR __ULast$[ebp]
  00047	74 0b		 je	 SHORT $LN3@for_each

; 308  :         _Func(*_UFirst);

  00049	8b 45 fc	 mov	 eax, DWORD PTR __UFirst$[ebp]
  0004c	ff 30		 push	 DWORD PTR [eax]
  0004e	ff 55 10	 call	 DWORD PTR __Func$[ebp]
  00051	59		 pop	 ecx

; 309  :     }

  00052	eb e4		 jmp	 SHORT $LN2@for_each
$LN3@for_each:

; 310  : 
; 311  :     return _Func;

  00054	8b 45 10	 mov	 eax, DWORD PTR __Func$[ebp]

; 312  : }

  00057	c9		 leave
  00058	c3		 ret	 0
??$for_each@V?$_Vector_iterator@V?$_Vector_val@U?$_Simple_types@PAVCTextureAnimationRandomDecorator@NEffectUpdateDecorator@@@std@@@std@@@std@@P6AXPAVCTextureAnimationRandomDecorator@NEffectUpdateDecorator@@@Z@std@@YAP6AXPAVCTextureAnimationRandomDecorator@NEffectUpdateDecorator@@@ZV?$_Vector_iterator@V?$_Vector_val@U?$_Simple_types@PAVCTextureAnimationRandomDecorator@NEffectUpdateDecorator@@@std@@@std@@@0@1P6AX0@Z@Z ENDP ; std::for_each<std::_Vector_iterator<std::_Vector_val<std::_Simple_types<NEffectUpdateDecorator::CTextureAnimationRandomDecorator *> > >,void (__cdecl*)(NEffectUpdateDecorator::CTextureAnimationRandomDecorator *)>
_TEXT	ENDS
; Function compile flags: /Odspy
; File C:\Program Files (x86)\Microsoft Visual Studio\2019\Community\VC\Tools\MSVC\14.28.29333\include\algorithm
; File C:\Program Files (x86)\Microsoft Visual Studio\2019\Community\VC\Tools\MSVC\14.28.29333\include\vector
; File C:\Program Files (x86)\Microsoft Visual Studio\2019\Community\VC\Tools\MSVC\14.28.29333\include\xstddef
; File C:\Program Files (x86)\Microsoft Visual Studio\2019\Community\VC\Tools\MSVC\14.28.29333\include\vector
; File C:\Program Files (x86)\Microsoft Visual Studio\2019\Community\VC\Tools\MSVC\14.28.29333\include\algorithm
; File C:\Program Files (x86)\Microsoft Visual Studio\2019\Community\VC\Tools\MSVC\14.28.29333\include\vector
; File C:\Program Files (x86)\Microsoft Visual Studio\2019\Community\VC\Tools\MSVC\14.28.29333\include\xstddef
; File C:\Program Files (x86)\Microsoft Visual Studio\2019\Community\VC\Tools\MSVC\14.28.29333\include\vector
; File C:\Program Files (x86)\Microsoft Visual Studio\2019\Community\VC\Tools\MSVC\14.28.29333\include\algorithm
;	COMDAT ??$for_each@V?$_Vector_iterator@V?$_Vector_val@U?$_Simple_types@PAVCTextureAnimationCCWDecorator@NEffectUpdateDecorator@@@std@@@std@@@std@@P6AXPAVCTextureAnimationCCWDecorator@NEffectUpdateDecorator@@@Z@std@@YAP6AXPAVCTextureAnimationCCWDecorator@NEffectUpdateDecorator@@@ZV?$_Vector_iterator@V?$_Vector_val@U?$_Simple_types@PAVCTextureAnimationCCWDecorator@NEffectUpdateDecorator@@@std@@@std@@@0@1P6AX0@Z@Z
_TEXT	SEGMENT
__ULast$ = -32						; size = 4
$T1 = -28						; size = 4
$T2 = -24						; size = 4
__Ptr$3 = -20						; size = 4
$T4 = -16						; size = 4
$T5 = -12						; size = 4
__Ptr$6 = -8						; size = 4
__UFirst$ = -4						; size = 4
__First$ = 8						; size = 4
__Last$ = 12						; size = 4
__Func$ = 16						; size = 4
??$for_each@V?$_Vector_iterator@V?$_Vector_val@U?$_Simple_types@PAVCTextureAnimationCCWDecorator@NEffectUpdateDecorator@@@std@@@std@@@std@@P6AXPAVCTextureAnimationCCWDecorator@NEffectUpdateDecorator@@@Z@std@@YAP6AXPAVCTextureAnimationCCWDecorator@NEffectUpdateDecorator@@@ZV?$_Vector_iterator@V?$_Vector_val@U?$_Simple_types@PAVCTextureAnimationCCWDecorator@NEffectUpdateDecorator@@@std@@@std@@@0@1P6AX0@Z@Z PROC ; std::for_each<std::_Vector_iterator<std::_Vector_val<std::_Simple_types<NEffectUpdateDecorator::CTextureAnimationCCWDecorator *> > >,void (__cdecl*)(NEffectUpdateDecorator::CTextureAnimationCCWDecorator *)>, COMDAT

; 303  : _CONSTEXPR20 _Fn for_each(_InIt _First, _InIt _Last, _Fn _Func) { // perform function for each element [_First, _Last)

  00000	55		 push	 ebp
  00001	8b ec		 mov	 ebp, esp
  00003	83 ec 20	 sub	 esp, 32			; 00000020H
; File C:\Program Files (x86)\Microsoft Visual Studio\2019\Community\VC\Tools\MSVC\14.28.29333\include\vector

; 310  :         return _Unfancy(this->_Ptr);

  00006	8b 45 08	 mov	 eax, DWORD PTR __First$[ebp]
  00009	89 45 f8	 mov	 DWORD PTR __Ptr$6[ebp], eax
; File C:\Program Files (x86)\Microsoft Visual Studio\2019\Community\VC\Tools\MSVC\14.28.29333\include\xstddef

; 289  :     return _Ptr;

  0000c	8b 45 f8	 mov	 eax, DWORD PTR __Ptr$6[ebp]
  0000f	89 45 f4	 mov	 DWORD PTR $T5[ebp], eax
; File C:\Program Files (x86)\Microsoft Visual Studio\2019\Community\VC\Tools\MSVC\14.28.29333\include\vector

; 310  :         return _Unfancy(this->_Ptr);

  00012	8b 45 f4	 mov	 eax, DWORD PTR $T5[ebp]
  00015	89 45 f0	 mov	 DWORD PTR $T4[ebp], eax
; File C:\Program Files (x86)\Microsoft Visual Studio\2019\Community\VC\Tools\MSVC\14.28.29333\include\algorithm

; 305  :     auto _UFirst      = _Get_unwrapped(_First);

  00018	8b 45 f0	 mov	 eax, DWORD PTR $T4[ebp]
  0001b	89 45 fc	 mov	 DWORD PTR __UFirst$[ebp], eax
; File C:\Program Files (x86)\Microsoft Visual Studio\2019\Community\VC\Tools\MSVC\14.28.29333\include\vector

; 310  :         return _Unfancy(this->_Ptr);

  0001e	8b 45 0c	 mov	 eax, DWORD PTR __Last$[ebp]
  00021	89 45 ec	 mov	 DWORD PTR __Ptr$3[ebp], eax
; File C:\Program Files (x86)\Microsoft Visual Studio\2019\Community\VC\Tools\MSVC\14.28.29333\include\xstddef

; 289  :     return _Ptr;

  00024	8b 45 ec	 mov	 eax, DWORD PTR __Ptr$3[ebp]
  00027	89 45 e8	 mov	 DWORD PTR $T2[ebp], eax
; File C:\Program Files (x86)\Microsoft Visual Studio\2019\Community\VC\Tools\MSVC\14.28.29333\include\vector

; 310  :         return _Unfancy(this->_Ptr);

  0002a	8b 45 e8	 mov	 eax, DWORD PTR $T2[ebp]
  0002d	89 45 e4	 mov	 DWORD PTR $T1[ebp], eax
; File C:\Program Files (x86)\Microsoft Visual Studio\2019\Community\VC\Tools\MSVC\14.28.29333\include\algorithm

; 306  :     const auto _ULast = _Get_unwrapped(_Last);

  00030	8b 45 e4	 mov	 eax, DWORD PTR $T1[ebp]
  00033	89 45 e0	 mov	 DWORD PTR __ULast$[ebp], eax

; 307  :     for (; _UFirst != _ULast; ++_UFirst) {

  00036	eb 09		 jmp	 SHORT $LN4@for_each
$LN2@for_each:
  00038	8b 45 fc	 mov	 eax, DWORD PTR __UFirst$[ebp]
  0003b	83 c0 04	 add	 eax, 4
  0003e	89 45 fc	 mov	 DWORD PTR __UFirst$[ebp], eax
$LN4@for_each:
  00041	8b 45 fc	 mov	 eax, DWORD PTR __UFirst$[ebp]
  00044	3b 45 e0	 cmp	 eax, DWORD PTR __ULast$[ebp]
  00047	74 0b		 je	 SHORT $LN3@for_each

; 308  :         _Func(*_UFirst);

  00049	8b 45 fc	 mov	 eax, DWORD PTR __UFirst$[ebp]
  0004c	ff 30		 push	 DWORD PTR [eax]
  0004e	ff 55 10	 call	 DWORD PTR __Func$[ebp]
  00051	59		 pop	 ecx

; 309  :     }

  00052	eb e4		 jmp	 SHORT $LN2@for_each
$LN3@for_each:

; 310  : 
; 311  :     return _Func;

  00054	8b 45 10	 mov	 eax, DWORD PTR __Func$[ebp]

; 312  : }

  00057	c9		 leave
  00058	c3		 ret	 0
??$for_each@V?$_Vector_iterator@V?$_Vector_val@U?$_Simple_types@PAVCTextureAnimationCCWDecorator@NEffectUpdateDecorator@@@std@@@std@@@std@@P6AXPAVCTextureAnimationCCWDecorator@NEffectUpdateDecorator@@@Z@std@@YAP6AXPAVCTextureAnimationCCWDecorator@NEffectUpdateDecorator@@@ZV?$_Vector_iterator@V?$_Vector_val@U?$_Simple_types@PAVCTextureAnimationCCWDecorator@NEffectUpdateDecorator@@@std@@@std@@@0@1P6AX0@Z@Z ENDP ; std::for_each<std::_Vector_iterator<std::_Vector_val<std::_Simple_types<NEffectUpdateDecorator::CTextureAnimationCCWDecorator *> > >,void (__cdecl*)(NEffectUpdateDecorator::CTextureAnimationCCWDecorator *)>
_TEXT	ENDS
; Function compile flags: /Odspy
; File C:\Program Files (x86)\Microsoft Visual Studio\2019\Community\VC\Tools\MSVC\14.28.29333\include\algorithm
; File C:\Program Files (x86)\Microsoft Visual Studio\2019\Community\VC\Tools\MSVC\14.28.29333\include\vector
; File C:\Program Files (x86)\Microsoft Visual Studio\2019\Community\VC\Tools\MSVC\14.28.29333\include\xstddef
; File C:\Program Files (x86)\Microsoft Visual Studio\2019\Community\VC\Tools\MSVC\14.28.29333\include\vector
; File C:\Program Files (x86)\Microsoft Visual Studio\2019\Community\VC\Tools\MSVC\14.28.29333\include\algorithm
; File C:\Program Files (x86)\Microsoft Visual Studio\2019\Community\VC\Tools\MSVC\14.28.29333\include\vector
; File C:\Program Files (x86)\Microsoft Visual Studio\2019\Community\VC\Tools\MSVC\14.28.29333\include\xstddef
; File C:\Program Files (x86)\Microsoft Visual Studio\2019\Community\VC\Tools\MSVC\14.28.29333\include\vector
; File C:\Program Files (x86)\Microsoft Visual Studio\2019\Community\VC\Tools\MSVC\14.28.29333\include\algorithm
;	COMDAT ??$for_each@V?$_Vector_iterator@V?$_Vector_val@U?$_Simple_types@PAVCTextureAnimationCWDecorator@NEffectUpdateDecorator@@@std@@@std@@@std@@P6AXPAVCTextureAnimationCWDecorator@NEffectUpdateDecorator@@@Z@std@@YAP6AXPAVCTextureAnimationCWDecorator@NEffectUpdateDecorator@@@ZV?$_Vector_iterator@V?$_Vector_val@U?$_Simple_types@PAVCTextureAnimationCWDecorator@NEffectUpdateDecorator@@@std@@@std@@@0@1P6AX0@Z@Z
_TEXT	SEGMENT
__ULast$ = -32						; size = 4
$T1 = -28						; size = 4
$T2 = -24						; size = 4
__Ptr$3 = -20						; size = 4
$T4 = -16						; size = 4
$T5 = -12						; size = 4
__Ptr$6 = -8						; size = 4
__UFirst$ = -4						; size = 4
__First$ = 8						; size = 4
__Last$ = 12						; size = 4
__Func$ = 16						; size = 4
??$for_each@V?$_Vector_iterator@V?$_Vector_val@U?$_Simple_types@PAVCTextureAnimationCWDecorator@NEffectUpdateDecorator@@@std@@@std@@@std@@P6AXPAVCTextureAnimationCWDecorator@NEffectUpdateDecorator@@@Z@std@@YAP6AXPAVCTextureAnimationCWDecorator@NEffectUpdateDecorator@@@ZV?$_Vector_iterator@V?$_Vector_val@U?$_Simple_types@PAVCTextureAnimationCWDecorator@NEffectUpdateDecorator@@@std@@@std@@@0@1P6AX0@Z@Z PROC ; std::for_each<std::_Vector_iterator<std::_Vector_val<std::_Simple_types<NEffectUpdateDecorator::CTextureAnimationCWDecorator *> > >,void (__cdecl*)(NEffectUpdateDecorator::CTextureAnimationCWDecorator *)>, COMDAT

; 303  : _CONSTEXPR20 _Fn for_each(_InIt _First, _InIt _Last, _Fn _Func) { // perform function for each element [_First, _Last)

  00000	55		 push	 ebp
  00001	8b ec		 mov	 ebp, esp
  00003	83 ec 20	 sub	 esp, 32			; 00000020H
; File C:\Program Files (x86)\Microsoft Visual Studio\2019\Community\VC\Tools\MSVC\14.28.29333\include\vector

; 310  :         return _Unfancy(this->_Ptr);

  00006	8b 45 08	 mov	 eax, DWORD PTR __First$[ebp]
  00009	89 45 f8	 mov	 DWORD PTR __Ptr$6[ebp], eax
; File C:\Program Files (x86)\Microsoft Visual Studio\2019\Community\VC\Tools\MSVC\14.28.29333\include\xstddef

; 289  :     return _Ptr;

  0000c	8b 45 f8	 mov	 eax, DWORD PTR __Ptr$6[ebp]
  0000f	89 45 f4	 mov	 DWORD PTR $T5[ebp], eax
; File C:\Program Files (x86)\Microsoft Visual Studio\2019\Community\VC\Tools\MSVC\14.28.29333\include\vector

; 310  :         return _Unfancy(this->_Ptr);

  00012	8b 45 f4	 mov	 eax, DWORD PTR $T5[ebp]
  00015	89 45 f0	 mov	 DWORD PTR $T4[ebp], eax
; File C:\Program Files (x86)\Microsoft Visual Studio\2019\Community\VC\Tools\MSVC\14.28.29333\include\algorithm

; 305  :     auto _UFirst      = _Get_unwrapped(_First);

  00018	8b 45 f0	 mov	 eax, DWORD PTR $T4[ebp]
  0001b	89 45 fc	 mov	 DWORD PTR __UFirst$[ebp], eax
; File C:\Program Files (x86)\Microsoft Visual Studio\2019\Community\VC\Tools\MSVC\14.28.29333\include\vector

; 310  :         return _Unfancy(this->_Ptr);

  0001e	8b 45 0c	 mov	 eax, DWORD PTR __Last$[ebp]
  00021	89 45 ec	 mov	 DWORD PTR __Ptr$3[ebp], eax
; File C:\Program Files (x86)\Microsoft Visual Studio\2019\Community\VC\Tools\MSVC\14.28.29333\include\xstddef

; 289  :     return _Ptr;

  00024	8b 45 ec	 mov	 eax, DWORD PTR __Ptr$3[ebp]
  00027	89 45 e8	 mov	 DWORD PTR $T2[ebp], eax
; File C:\Program Files (x86)\Microsoft Visual Studio\2019\Community\VC\Tools\MSVC\14.28.29333\include\vector

; 310  :         return _Unfancy(this->_Ptr);

  0002a	8b 45 e8	 mov	 eax, DWORD PTR $T2[ebp]
  0002d	89 45 e4	 mov	 DWORD PTR $T1[ebp], eax
; File C:\Program Files (x86)\Microsoft Visual Studio\2019\Community\VC\Tools\MSVC\14.28.29333\include\algorithm

; 306  :     const auto _ULast = _Get_unwrapped(_Last);

  00030	8b 45 e4	 mov	 eax, DWORD PTR $T1[ebp]
  00033	89 45 e0	 mov	 DWORD PTR __ULast$[ebp], eax

; 307  :     for (; _UFirst != _ULast; ++_UFirst) {

  00036	eb 09		 jmp	 SHORT $LN4@for_each
$LN2@for_each:
  00038	8b 45 fc	 mov	 eax, DWORD PTR __UFirst$[ebp]
  0003b	83 c0 04	 add	 eax, 4
  0003e	89 45 fc	 mov	 DWORD PTR __UFirst$[ebp], eax
$LN4@for_each:
  00041	8b 45 fc	 mov	 eax, DWORD PTR __UFirst$[ebp]
  00044	3b 45 e0	 cmp	 eax, DWORD PTR __ULast$[ebp]
  00047	74 0b		 je	 SHORT $LN3@for_each

; 308  :         _Func(*_UFirst);

  00049	8b 45 fc	 mov	 eax, DWORD PTR __UFirst$[ebp]
  0004c	ff 30		 push	 DWORD PTR [eax]
  0004e	ff 55 10	 call	 DWORD PTR __Func$[ebp]
  00051	59		 pop	 ecx

; 309  :     }

  00052	eb e4		 jmp	 SHORT $LN2@for_each
$LN3@for_each:

; 310  : 
; 311  :     return _Func;

  00054	8b 45 10	 mov	 eax, DWORD PTR __Func$[ebp]

; 312  : }

  00057	c9		 leave
  00058	c3		 ret	 0
??$for_each@V?$_Vector_iterator@V?$_Vector_val@U?$_Simple_types@PAVCTextureAnimationCWDecorator@NEffectUpdateDecorator@@@std@@@std@@@std@@P6AXPAVCTextureAnimationCWDecorator@NEffectUpdateDecorator@@@Z@std@@YAP6AXPAVCTextureAnimationCWDecorator@NEffectUpdateDecorator@@@ZV?$_Vector_iterator@V?$_Vector_val@U?$_Simple_types@PAVCTextureAnimationCWDecorator@NEffectUpdateDecorator@@@std@@@std@@@0@1P6AX0@Z@Z ENDP ; std::for_each<std::_Vector_iterator<std::_Vector_val<std::_Simple_types<NEffectUpdateDecorator::CTextureAnimationCWDecorator *> > >,void (__cdecl*)(NEffectUpdateDecorator::CTextureAnimationCWDecorator *)>
_TEXT	ENDS
; Function compile flags: /Odspy
; File C:\Program Files (x86)\Microsoft Visual Studio\2019\Community\VC\Tools\MSVC\14.28.29333\include\algorithm
; File C:\Program Files (x86)\Microsoft Visual Studio\2019\Community\VC\Tools\MSVC\14.28.29333\include\vector
; File C:\Program Files (x86)\Microsoft Visual Studio\2019\Community\VC\Tools\MSVC\14.28.29333\include\xstddef
; File C:\Program Files (x86)\Microsoft Visual Studio\2019\Community\VC\Tools\MSVC\14.28.29333\include\vector
; File C:\Program Files (x86)\Microsoft Visual Studio\2019\Community\VC\Tools\MSVC\14.28.29333\include\algorithm
; File C:\Program Files (x86)\Microsoft Visual Studio\2019\Community\VC\Tools\MSVC\14.28.29333\include\vector
; File C:\Program Files (x86)\Microsoft Visual Studio\2019\Community\VC\Tools\MSVC\14.28.29333\include\xstddef
; File C:\Program Files (x86)\Microsoft Visual Studio\2019\Community\VC\Tools\MSVC\14.28.29333\include\vector
; File C:\Program Files (x86)\Microsoft Visual Studio\2019\Community\VC\Tools\MSVC\14.28.29333\include\algorithm
;	COMDAT ??$for_each@V?$_Vector_iterator@V?$_Vector_val@U?$_Simple_types@PAVCNullDecorator@NEffectUpdateDecorator@@@std@@@std@@@std@@P6AXPAVCNullDecorator@NEffectUpdateDecorator@@@Z@std@@YAP6AXPAVCNullDecorator@NEffectUpdateDecorator@@@ZV?$_Vector_iterator@V?$_Vector_val@U?$_Simple_types@PAVCNullDecorator@NEffectUpdateDecorator@@@std@@@std@@@0@1P6AX0@Z@Z
_TEXT	SEGMENT
__ULast$ = -32						; size = 4
$T1 = -28						; size = 4
$T2 = -24						; size = 4
__Ptr$3 = -20						; size = 4
$T4 = -16						; size = 4
$T5 = -12						; size = 4
__Ptr$6 = -8						; size = 4
__UFirst$ = -4						; size = 4
__First$ = 8						; size = 4
__Last$ = 12						; size = 4
__Func$ = 16						; size = 4
??$for_each@V?$_Vector_iterator@V?$_Vector_val@U?$_Simple_types@PAVCNullDecorator@NEffectUpdateDecorator@@@std@@@std@@@std@@P6AXPAVCNullDecorator@NEffectUpdateDecorator@@@Z@std@@YAP6AXPAVCNullDecorator@NEffectUpdateDecorator@@@ZV?$_Vector_iterator@V?$_Vector_val@U?$_Simple_types@PAVCNullDecorator@NEffectUpdateDecorator@@@std@@@std@@@0@1P6AX0@Z@Z PROC ; std::for_each<std::_Vector_iterator<std::_Vector_val<std::_Simple_types<NEffectUpdateDecorator::CNullDecorator *> > >,void (__cdecl*)(NEffectUpdateDecorator::CNullDecorator *)>, COMDAT

; 303  : _CONSTEXPR20 _Fn for_each(_InIt _First, _InIt _Last, _Fn _Func) { // perform function for each element [_First, _Last)

  00000	55		 push	 ebp
  00001	8b ec		 mov	 ebp, esp
  00003	83 ec 20	 sub	 esp, 32			; 00000020H
; File C:\Program Files (x86)\Microsoft Visual Studio\2019\Community\VC\Tools\MSVC\14.28.29333\include\vector

; 310  :         return _Unfancy(this->_Ptr);

  00006	8b 45 08	 mov	 eax, DWORD PTR __First$[ebp]
  00009	89 45 f8	 mov	 DWORD PTR __Ptr$6[ebp], eax
; File C:\Program Files (x86)\Microsoft Visual Studio\2019\Community\VC\Tools\MSVC\14.28.29333\include\xstddef

; 289  :     return _Ptr;

  0000c	8b 45 f8	 mov	 eax, DWORD PTR __Ptr$6[ebp]
  0000f	89 45 f4	 mov	 DWORD PTR $T5[ebp], eax
; File C:\Program Files (x86)\Microsoft Visual Studio\2019\Community\VC\Tools\MSVC\14.28.29333\include\vector

; 310  :         return _Unfancy(this->_Ptr);

  00012	8b 45 f4	 mov	 eax, DWORD PTR $T5[ebp]
  00015	89 45 f0	 mov	 DWORD PTR $T4[ebp], eax
; File C:\Program Files (x86)\Microsoft Visual Studio\2019\Community\VC\Tools\MSVC\14.28.29333\include\algorithm

; 305  :     auto _UFirst      = _Get_unwrapped(_First);

  00018	8b 45 f0	 mov	 eax, DWORD PTR $T4[ebp]
  0001b	89 45 fc	 mov	 DWORD PTR __UFirst$[ebp], eax
; File C:\Program Files (x86)\Microsoft Visual Studio\2019\Community\VC\Tools\MSVC\14.28.29333\include\vector

; 310  :         return _Unfancy(this->_Ptr);

  0001e	8b 45 0c	 mov	 eax, DWORD PTR __Last$[ebp]
  00021	89 45 ec	 mov	 DWORD PTR __Ptr$3[ebp], eax
; File C:\Program Files (x86)\Microsoft Visual Studio\2019\Community\VC\Tools\MSVC\14.28.29333\include\xstddef

; 289  :     return _Ptr;

  00024	8b 45 ec	 mov	 eax, DWORD PTR __Ptr$3[ebp]
  00027	89 45 e8	 mov	 DWORD PTR $T2[ebp], eax
; File C:\Program Files (x86)\Microsoft Visual Studio\2019\Community\VC\Tools\MSVC\14.28.29333\include\vector

; 310  :         return _Unfancy(this->_Ptr);

  0002a	8b 45 e8	 mov	 eax, DWORD PTR $T2[ebp]
  0002d	89 45 e4	 mov	 DWORD PTR $T1[ebp], eax
; File C:\Program Files (x86)\Microsoft Visual Studio\2019\Community\VC\Tools\MSVC\14.28.29333\include\algorithm

; 306  :     const auto _ULast = _Get_unwrapped(_Last);

  00030	8b 45 e4	 mov	 eax, DWORD PTR $T1[ebp]
  00033	89 45 e0	 mov	 DWORD PTR __ULast$[ebp], eax

; 307  :     for (; _UFirst != _ULast; ++_UFirst) {

  00036	eb 09		 jmp	 SHORT $LN4@for_each
$LN2@for_each:
  00038	8b 45 fc	 mov	 eax, DWORD PTR __UFirst$[ebp]
  0003b	83 c0 04	 add	 eax, 4
  0003e	89 45 fc	 mov	 DWORD PTR __UFirst$[ebp], eax
$LN4@for_each:
  00041	8b 45 fc	 mov	 eax, DWORD PTR __UFirst$[ebp]
  00044	3b 45 e0	 cmp	 eax, DWORD PTR __ULast$[ebp]
  00047	74 0b		 je	 SHORT $LN3@for_each

; 308  :         _Func(*_UFirst);

  00049	8b 45 fc	 mov	 eax, DWORD PTR __UFirst$[ebp]
  0004c	ff 30		 push	 DWORD PTR [eax]
  0004e	ff 55 10	 call	 DWORD PTR __Func$[ebp]
  00051	59		 pop	 ecx

; 309  :     }

  00052	eb e4		 jmp	 SHORT $LN2@for_each
$LN3@for_each:

; 310  : 
; 311  :     return _Func;

  00054	8b 45 10	 mov	 eax, DWORD PTR __Func$[ebp]

; 312  : }

  00057	c9		 leave
  00058	c3		 ret	 0
??$for_each@V?$_Vector_iterator@V?$_Vector_val@U?$_Simple_types@PAVCNullDecorator@NEffectUpdateDecorator@@@std@@@std@@@std@@P6AXPAVCNullDecorator@NEffectUpdateDecorator@@@Z@std@@YAP6AXPAVCNullDecorator@NEffectUpdateDecorator@@@ZV?$_Vector_iterator@V?$_Vector_val@U?$_Simple_types@PAVCNullDecorator@NEffectUpdateDecorator@@@std@@@std@@@0@1P6AX0@Z@Z ENDP ; std::for_each<std::_Vector_iterator<std::_Vector_val<std::_Simple_types<NEffectUpdateDecorator::CNullDecorator *> > >,void (__cdecl*)(NEffectUpdateDecorator::CNullDecorator *)>
_TEXT	ENDS
; Function compile flags: /Odspy
; File C:\Program Files (x86)\Microsoft Visual Studio\2019\Community\VC\Tools\MSVC\14.28.29333\include\algorithm
; File C:\Program Files (x86)\Microsoft Visual Studio\2019\Community\VC\Tools\MSVC\14.28.29333\include\vector
; File C:\Program Files (x86)\Microsoft Visual Studio\2019\Community\VC\Tools\MSVC\14.28.29333\include\xstddef
; File C:\Program Files (x86)\Microsoft Visual Studio\2019\Community\VC\Tools\MSVC\14.28.29333\include\vector
; File C:\Program Files (x86)\Microsoft Visual Studio\2019\Community\VC\Tools\MSVC\14.28.29333\include\algorithm
; File C:\Program Files (x86)\Microsoft Visual Studio\2019\Community\VC\Tools\MSVC\14.28.29333\include\vector
; File C:\Program Files (x86)\Microsoft Visual Studio\2019\Community\VC\Tools\MSVC\14.28.29333\include\xstddef
; File C:\Program Files (x86)\Microsoft Visual Studio\2019\Community\VC\Tools\MSVC\14.28.29333\include\vector
; File C:\Program Files (x86)\Microsoft Visual Studio\2019\Community\VC\Tools\MSVC\14.28.29333\include\algorithm
;	COMDAT ??$for_each@V?$_Vector_iterator@V?$_Vector_val@U?$_Simple_types@PAVCHeaderDecorator@NEffectUpdateDecorator@@@std@@@std@@@std@@P6AXPAVCHeaderDecorator@NEffectUpdateDecorator@@@Z@std@@YAP6AXPAVCHeaderDecorator@NEffectUpdateDecorator@@@ZV?$_Vector_iterator@V?$_Vector_val@U?$_Simple_types@PAVCHeaderDecorator@NEffectUpdateDecorator@@@std@@@std@@@0@1P6AX0@Z@Z
_TEXT	SEGMENT
__ULast$ = -32						; size = 4
$T1 = -28						; size = 4
$T2 = -24						; size = 4
__Ptr$3 = -20						; size = 4
$T4 = -16						; size = 4
$T5 = -12						; size = 4
__Ptr$6 = -8						; size = 4
__UFirst$ = -4						; size = 4
__First$ = 8						; size = 4
__Last$ = 12						; size = 4
__Func$ = 16						; size = 4
??$for_each@V?$_Vector_iterator@V?$_Vector_val@U?$_Simple_types@PAVCHeaderDecorator@NEffectUpdateDecorator@@@std@@@std@@@std@@P6AXPAVCHeaderDecorator@NEffectUpdateDecorator@@@Z@std@@YAP6AXPAVCHeaderDecorator@NEffectUpdateDecorator@@@ZV?$_Vector_iterator@V?$_Vector_val@U?$_Simple_types@PAVCHeaderDecorator@NEffectUpdateDecorator@@@std@@@std@@@0@1P6AX0@Z@Z PROC ; std::for_each<std::_Vector_iterator<std::_Vector_val<std::_Simple_types<NEffectUpdateDecorator::CHeaderDecorator *> > >,void (__cdecl*)(NEffectUpdateDecorator::CHeaderDecorator *)>, COMDAT

; 303  : _CONSTEXPR20 _Fn for_each(_InIt _First, _InIt _Last, _Fn _Func) { // perform function for each element [_First, _Last)

  00000	55		 push	 ebp
  00001	8b ec		 mov	 ebp, esp
  00003	83 ec 20	 sub	 esp, 32			; 00000020H
; File C:\Program Files (x86)\Microsoft Visual Studio\2019\Community\VC\Tools\MSVC\14.28.29333\include\vector

; 310  :         return _Unfancy(this->_Ptr);

  00006	8b 45 08	 mov	 eax, DWORD PTR __First$[ebp]
  00009	89 45 f8	 mov	 DWORD PTR __Ptr$6[ebp], eax
; File C:\Program Files (x86)\Microsoft Visual Studio\2019\Community\VC\Tools\MSVC\14.28.29333\include\xstddef

; 289  :     return _Ptr;

  0000c	8b 45 f8	 mov	 eax, DWORD PTR __Ptr$6[ebp]
  0000f	89 45 f4	 mov	 DWORD PTR $T5[ebp], eax
; File C:\Program Files (x86)\Microsoft Visual Studio\2019\Community\VC\Tools\MSVC\14.28.29333\include\vector

; 310  :         return _Unfancy(this->_Ptr);

  00012	8b 45 f4	 mov	 eax, DWORD PTR $T5[ebp]
  00015	89 45 f0	 mov	 DWORD PTR $T4[ebp], eax
; File C:\Program Files (x86)\Microsoft Visual Studio\2019\Community\VC\Tools\MSVC\14.28.29333\include\algorithm

; 305  :     auto _UFirst      = _Get_unwrapped(_First);

  00018	8b 45 f0	 mov	 eax, DWORD PTR $T4[ebp]
  0001b	89 45 fc	 mov	 DWORD PTR __UFirst$[ebp], eax
; File C:\Program Files (x86)\Microsoft Visual Studio\2019\Community\VC\Tools\MSVC\14.28.29333\include\vector

; 310  :         return _Unfancy(this->_Ptr);

  0001e	8b 45 0c	 mov	 eax, DWORD PTR __Last$[ebp]
  00021	89 45 ec	 mov	 DWORD PTR __Ptr$3[ebp], eax
; File C:\Program Files (x86)\Microsoft Visual Studio\2019\Community\VC\Tools\MSVC\14.28.29333\include\xstddef

; 289  :     return _Ptr;

  00024	8b 45 ec	 mov	 eax, DWORD PTR __Ptr$3[ebp]
  00027	89 45 e8	 mov	 DWORD PTR $T2[ebp], eax
; File C:\Program Files (x86)\Microsoft Visual Studio\2019\Community\VC\Tools\MSVC\14.28.29333\include\vector

; 310  :         return _Unfancy(this->_Ptr);

  0002a	8b 45 e8	 mov	 eax, DWORD PTR $T2[ebp]
  0002d	89 45 e4	 mov	 DWORD PTR $T1[ebp], eax
; File C:\Program Files (x86)\Microsoft Visual Studio\2019\Community\VC\Tools\MSVC\14.28.29333\include\algorithm

; 306  :     const auto _ULast = _Get_unwrapped(_Last);

  00030	8b 45 e4	 mov	 eax, DWORD PTR $T1[ebp]
  00033	89 45 e0	 mov	 DWORD PTR __ULast$[ebp], eax

; 307  :     for (; _UFirst != _ULast; ++_UFirst) {

  00036	eb 09		 jmp	 SHORT $LN4@for_each
$LN2@for_each:
  00038	8b 45 fc	 mov	 eax, DWORD PTR __UFirst$[ebp]
  0003b	83 c0 04	 add	 eax, 4
  0003e	89 45 fc	 mov	 DWORD PTR __UFirst$[ebp], eax
$LN4@for_each:
  00041	8b 45 fc	 mov	 eax, DWORD PTR __UFirst$[ebp]
  00044	3b 45 e0	 cmp	 eax, DWORD PTR __ULast$[ebp]
  00047	74 0b		 je	 SHORT $LN3@for_each

; 308  :         _Func(*_UFirst);

  00049	8b 45 fc	 mov	 eax, DWORD PTR __UFirst$[ebp]
  0004c	ff 30		 push	 DWORD PTR [eax]
  0004e	ff 55 10	 call	 DWORD PTR __Func$[ebp]
  00051	59		 pop	 ecx

; 309  :     }

  00052	eb e4		 jmp	 SHORT $LN2@for_each
$LN3@for_each:

; 310  : 
; 311  :     return _Func;

  00054	8b 45 10	 mov	 eax, DWORD PTR __Func$[ebp]

; 312  : }

  00057	c9		 leave
  00058	c3		 ret	 0
??$for_each@V?$_Vector_iterator@V?$_Vector_val@U?$_Simple_types@PAVCHeaderDecorator@NEffectUpdateDecorator@@@std@@@std@@@std@@P6AXPAVCHeaderDecorator@NEffectUpdateDecorator@@@Z@std@@YAP6AXPAVCHeaderDecorator@NEffectUpdateDecorator@@@ZV?$_Vector_iterator@V?$_Vector_val@U?$_Simple_types@PAVCHeaderDecorator@NEffectUpdateDecorator@@@std@@@std@@@0@1P6AX0@Z@Z ENDP ; std::for_each<std::_Vector_iterator<std::_Vector_val<std::_Simple_types<NEffectUpdateDecorator::CHeaderDecorator *> > >,void (__cdecl*)(NEffectUpdateDecorator::CHeaderDecorator *)>
_TEXT	ENDS
; Function compile flags: /Odspy
; File C:\Program Files (x86)\Microsoft Visual Studio\2019\Community\VC\Tools\MSVC\14.28.29333\include\xmemory
;	COMDAT ??$_Pocca@V?$allocator@D@std@@@std@@YAXAAV?$allocator@D@0@ABV10@@Z
_TEXT	SEGMENT
__Left$ = 8						; size = 4
__Right$ = 12						; size = 4
??$_Pocca@V?$allocator@D@std@@@std@@YAXAAV?$allocator@D@0@ABV10@@Z PROC ; std::_Pocca<std::allocator<char> >, COMDAT

; 885  : void _Pocca(_Alloc& _Left, const _Alloc& _Right) noexcept {

  00000	55		 push	 ebp
  00001	8b ec		 mov	 ebp, esp

; 886  :     if constexpr (allocator_traits<_Alloc>::propagate_on_container_copy_assignment::value) {
; 887  :         _Left = _Right;
; 888  :     }
; 889  : }

  00003	5d		 pop	 ebp
  00004	c3		 ret	 0
??$_Pocca@V?$allocator@D@std@@@std@@YAXAAV?$allocator@D@0@ABV10@@Z ENDP ; std::_Pocca<std::allocator<char> >
_TEXT	ENDS
; Function compile flags: /Odspy
;	COMDAT ??_G?$CDynamicPoolEx@VCHeaderDecorator@NEffectUpdateDecorator@@@@UAEPAXI@Z
_TEXT	SEGMENT
_this$ = -4						; size = 4
___flags$ = 8						; size = 4
??_G?$CDynamicPoolEx@VCHeaderDecorator@NEffectUpdateDecorator@@@@UAEPAXI@Z PROC ; CDynamicPoolEx<NEffectUpdateDecorator::CHeaderDecorator>::`scalar deleting destructor', COMDAT
; _this$ = ecx
  00000	55		 push	 ebp
  00001	8b ec		 mov	 ebp, esp
  00003	51		 push	 ecx
  00004	89 4d fc	 mov	 DWORD PTR _this$[ebp], ecx
  00007	8b 4d fc	 mov	 ecx, DWORD PTR _this$[ebp]
  0000a	e8 00 00 00 00	 call	 ??1?$CDynamicPoolEx@VCHeaderDecorator@NEffectUpdateDecorator@@@@UAE@XZ ; CDynamicPoolEx<NEffectUpdateDecorator::CHeaderDecorator>::~CDynamicPoolEx<NEffectUpdateDecorator::CHeaderDecorator>
  0000f	8b 45 08	 mov	 eax, DWORD PTR ___flags$[ebp]
  00012	83 e0 01	 and	 eax, 1
  00015	74 0c		 je	 SHORT $LN2@scalar
  00017	6a 24		 push	 36			; 00000024H
  00019	ff 75 fc	 push	 DWORD PTR _this$[ebp]
  0001c	e8 00 00 00 00	 call	 ??3@YAXPAXI@Z		; operator delete
  00021	59		 pop	 ecx
  00022	59		 pop	 ecx
$LN2@scalar:
  00023	8b 45 fc	 mov	 eax, DWORD PTR _this$[ebp]
  00026	c9		 leave
  00027	c2 04 00	 ret	 4
??_G?$CDynamicPoolEx@VCHeaderDecorator@NEffectUpdateDecorator@@@@UAEPAXI@Z ENDP ; CDynamicPoolEx<NEffectUpdateDecorator::CHeaderDecorator>::`scalar deleting destructor'
_TEXT	ENDS
; Function compile flags: /Odspy
; File C:\Program Files (x86)\Microsoft Visual Studio\2019\Community\VC\Tools\MSVC\14.28.29333\include\vector
; File C:\Program Files (x86)\Microsoft Visual Studio\2019\Community\VC\Tools\MSVC\14.28.29333\include\xmemory
; File C:\Program Files (x86)\Microsoft Visual Studio\2019\Community\VC\Tools\MSVC\14.28.29333\include\vector
; File C:\Program Files (x86)\Microsoft Visual Studio\2019\Community\VC\Tools\MSVC\14.28.29333\include\xmemory
; File C:\Program Files (x86)\Microsoft Visual Studio\2019\Community\VC\Tools\MSVC\14.28.29333\include\vector
; File C:\Program Files (x86)\Microsoft Visual Studio\2019\Community\VC\Tools\MSVC\14.28.29333\include\xmemory
; File C:\Program Files (x86)\Microsoft Visual Studio\2019\Community\VC\Tools\MSVC\14.28.29333\include\vector
;	COMDAT ?_Tidy@?$vector@PAVCHeaderDecorator@NEffectUpdateDecorator@@V?$allocator@PAVCHeaderDecorator@NEffectUpdateDecorator@@@std@@@std@@AAEXXZ
_TEXT	SEGMENT
$T1 = -52						; size = 4
__Ptr$ = -48						; size = 4
__Count$ = -44						; size = 4
$T2 = -40						; size = 4
__First$ = -36						; size = 4
__Last$ = -32						; size = 4
$T3 = -28						; size = 4
$T4 = -24						; size = 4
__Myend$ = -20						; size = 4
__Mylast$ = -16						; size = 4
_this$ = -12						; size = 4
__My_data$ = -8						; size = 4
__Myfirst$ = -4						; size = 4
?_Tidy@?$vector@PAVCHeaderDecorator@NEffectUpdateDecorator@@V?$allocator@PAVCHeaderDecorator@NEffectUpdateDecorator@@@std@@@std@@AAEXXZ PROC ; std::vector<NEffectUpdateDecorator::CHeaderDecorator *,std::allocator<NEffectUpdateDecorator::CHeaderDecorator *> >::_Tidy, COMDAT
; _this$ = ecx

; 1686 :     void _Tidy() noexcept { // free all storage

  00000	55		 push	 ebp
  00001	8b ec		 mov	 ebp, esp
  00003	83 ec 34	 sub	 esp, 52			; 00000034H
  00006	89 4d f4	 mov	 DWORD PTR _this$[ebp], ecx

; 1687 :         auto& _My_data    = _Mypair._Myval2;

  00009	8b 45 f4	 mov	 eax, DWORD PTR _this$[ebp]
  0000c	89 45 f8	 mov	 DWORD PTR __My_data$[ebp], eax

; 1688 :         pointer& _Myfirst = _My_data._Myfirst;

  0000f	8b 45 f8	 mov	 eax, DWORD PTR __My_data$[ebp]
  00012	89 45 fc	 mov	 DWORD PTR __Myfirst$[ebp], eax

; 1689 :         pointer& _Mylast  = _My_data._Mylast;

  00015	8b 45 f8	 mov	 eax, DWORD PTR __My_data$[ebp]
  00018	83 c0 04	 add	 eax, 4
  0001b	89 45 f0	 mov	 DWORD PTR __Mylast$[ebp], eax

; 1690 :         pointer& _Myend   = _My_data._Myend;

  0001e	8b 45 f8	 mov	 eax, DWORD PTR __My_data$[ebp]
  00021	83 c0 08	 add	 eax, 8
  00024	89 45 ec	 mov	 DWORD PTR __Myend$[ebp], eax

; 1691 : 
; 1692 :         _My_data._Orphan_all();
; 1693 : 
; 1694 :         if (_Myfirst) { // destroy and deallocate old array

  00027	8b 45 fc	 mov	 eax, DWORD PTR __Myfirst$[ebp]
  0002a	83 38 00	 cmp	 DWORD PTR [eax], 0
  0002d	74 74		 je	 SHORT $LN3@Tidy

; 1695 :             _Destroy(_Myfirst, _Mylast);

  0002f	8b 45 f0	 mov	 eax, DWORD PTR __Mylast$[ebp]
  00032	8b 00		 mov	 eax, DWORD PTR [eax]
  00034	89 45 e0	 mov	 DWORD PTR __Last$[ebp], eax
  00037	8b 45 fc	 mov	 eax, DWORD PTR __Myfirst$[ebp]
  0003a	8b 00		 mov	 eax, DWORD PTR [eax]
  0003c	89 45 dc	 mov	 DWORD PTR __First$[ebp], eax

; 1733 :         return _Mypair._Get_first();

  0003f	8b 45 f4	 mov	 eax, DWORD PTR _this$[ebp]
; File C:\Program Files (x86)\Microsoft Visual Studio\2019\Community\VC\Tools\MSVC\14.28.29333\include\xmemory

; 1347 :         return *this;

  00042	89 45 e8	 mov	 DWORD PTR $T4[ebp], eax
; File C:\Program Files (x86)\Microsoft Visual Studio\2019\Community\VC\Tools\MSVC\14.28.29333\include\vector

; 1733 :         return _Mypair._Get_first();

  00045	8b 45 e8	 mov	 eax, DWORD PTR $T4[ebp]
  00048	89 45 e4	 mov	 DWORD PTR $T3[ebp], eax

; 1612 :         _Destroy_range(_First, _Last, _Getal());

  0004b	ff 75 e4	 push	 DWORD PTR $T3[ebp]
  0004e	ff 75 e0	 push	 DWORD PTR __Last$[ebp]
  00051	ff 75 dc	 push	 DWORD PTR __First$[ebp]
  00054	e8 00 00 00 00	 call	 ??$_Destroy_range@V?$allocator@PAVCHeaderDecorator@NEffectUpdateDecorator@@@std@@@std@@YAXPAPAVCHeaderDecorator@NEffectUpdateDecorator@@QAPAV12@AAV?$allocator@PAVCHeaderDecorator@NEffectUpdateDecorator@@@0@@Z ; std::_Destroy_range<std::allocator<NEffectUpdateDecorator::CHeaderDecorator *> >
  00059	83 c4 0c	 add	 esp, 12			; 0000000cH

; 1733 :         return _Mypair._Get_first();

  0005c	8b 45 f4	 mov	 eax, DWORD PTR _this$[ebp]
; File C:\Program Files (x86)\Microsoft Visual Studio\2019\Community\VC\Tools\MSVC\14.28.29333\include\xmemory

; 1347 :         return *this;

  0005f	89 45 d8	 mov	 DWORD PTR $T2[ebp], eax
; File C:\Program Files (x86)\Microsoft Visual Studio\2019\Community\VC\Tools\MSVC\14.28.29333\include\vector

; 1733 :         return _Mypair._Get_first();

  00062	8b 45 d8	 mov	 eax, DWORD PTR $T2[ebp]
  00065	89 45 cc	 mov	 DWORD PTR $T1[ebp], eax

; 1696 :             _Getal().deallocate(_Myfirst, static_cast<size_type>(_Myend - _Myfirst));

  00068	8b 45 ec	 mov	 eax, DWORD PTR __Myend$[ebp]
  0006b	8b 4d fc	 mov	 ecx, DWORD PTR __Myfirst$[ebp]
  0006e	8b 00		 mov	 eax, DWORD PTR [eax]
  00070	2b 01		 sub	 eax, DWORD PTR [ecx]
  00072	c1 f8 02	 sar	 eax, 2
  00075	89 45 d4	 mov	 DWORD PTR __Count$[ebp], eax
  00078	8b 45 fc	 mov	 eax, DWORD PTR __Myfirst$[ebp]
  0007b	8b 00		 mov	 eax, DWORD PTR [eax]
  0007d	89 45 d0	 mov	 DWORD PTR __Ptr$[ebp], eax
; File C:\Program Files (x86)\Microsoft Visual Studio\2019\Community\VC\Tools\MSVC\14.28.29333\include\xmemory

; 810  :         _Deallocate<_New_alignof<_Ty>>(_Ptr, sizeof(_Ty) * _Count);

  00080	8b 45 d4	 mov	 eax, DWORD PTR __Count$[ebp]
  00083	c1 e0 02	 shl	 eax, 2
  00086	50		 push	 eax
  00087	ff 75 d0	 push	 DWORD PTR __Ptr$[ebp]
  0008a	e8 00 00 00 00	 call	 ??$_Deallocate@$07$0A@@std@@YAXPAXI@Z ; std::_Deallocate<8,0>
  0008f	59		 pop	 ecx
  00090	59		 pop	 ecx
; File C:\Program Files (x86)\Microsoft Visual Studio\2019\Community\VC\Tools\MSVC\14.28.29333\include\vector

; 1698 :             _Myfirst = pointer();

  00091	8b 45 fc	 mov	 eax, DWORD PTR __Myfirst$[ebp]
  00094	83 20 00	 and	 DWORD PTR [eax], 0

; 1699 :             _Mylast  = pointer();

  00097	8b 45 f0	 mov	 eax, DWORD PTR __Mylast$[ebp]
  0009a	83 20 00	 and	 DWORD PTR [eax], 0

; 1700 :             _Myend   = pointer();

  0009d	8b 45 ec	 mov	 eax, DWORD PTR __Myend$[ebp]
  000a0	83 20 00	 and	 DWORD PTR [eax], 0
$LN3@Tidy:

; 1701 :         }
; 1702 :     }

  000a3	c9		 leave
  000a4	c3		 ret	 0
?_Tidy@?$vector@PAVCHeaderDecorator@NEffectUpdateDecorator@@V?$allocator@PAVCHeaderDecorator@NEffectUpdateDecorator@@@std@@@std@@AAEXXZ ENDP ; std::vector<NEffectUpdateDecorator::CHeaderDecorator *,std::allocator<NEffectUpdateDecorator::CHeaderDecorator *> >::_Tidy
_TEXT	ENDS
; Function compile flags: /Odspy
; File C:\Program Files (x86)\Microsoft Visual Studio\2019\Community\VC\Tools\MSVC\14.28.29333\include\vector
; File C:\Program Files (x86)\Microsoft Visual Studio\2019\Community\VC\Tools\MSVC\14.28.29333\include\xmemory
; File C:\Program Files (x86)\Microsoft Visual Studio\2019\Community\VC\Tools\MSVC\14.28.29333\include\vector
;	COMDAT ?clear@?$vector@PAVCHeaderDecorator@NEffectUpdateDecorator@@V?$allocator@PAVCHeaderDecorator@NEffectUpdateDecorator@@@std@@@std@@QAEXXZ
_TEXT	SEGMENT
__First$ = -32						; size = 4
__Last$ = -28						; size = 4
$T1 = -24						; size = 4
$T2 = -20						; size = 4
__Myfirst$ = -16					; size = 4
__Mylast$ = -12						; size = 4
_this$ = -8						; size = 4
__My_data$ = -4						; size = 4
?clear@?$vector@PAVCHeaderDecorator@NEffectUpdateDecorator@@V?$allocator@PAVCHeaderDecorator@NEffectUpdateDecorator@@@std@@@std@@QAEXXZ PROC ; std::vector<NEffectUpdateDecorator::CHeaderDecorator *,std::allocator<NEffectUpdateDecorator::CHeaderDecorator *> >::clear, COMDAT
; _this$ = ecx

; 1383 :     void clear() noexcept { // erase all

  00000	55		 push	 ebp
  00001	8b ec		 mov	 ebp, esp
  00003	83 ec 20	 sub	 esp, 32			; 00000020H
  00006	89 4d f8	 mov	 DWORD PTR _this$[ebp], ecx

; 1384 :         auto& _My_data    = _Mypair._Myval2;

  00009	8b 45 f8	 mov	 eax, DWORD PTR _this$[ebp]
  0000c	89 45 fc	 mov	 DWORD PTR __My_data$[ebp], eax

; 1385 :         pointer& _Myfirst = _My_data._Myfirst;

  0000f	8b 45 fc	 mov	 eax, DWORD PTR __My_data$[ebp]
  00012	89 45 f0	 mov	 DWORD PTR __Myfirst$[ebp], eax

; 1386 :         pointer& _Mylast  = _My_data._Mylast;

  00015	8b 45 fc	 mov	 eax, DWORD PTR __My_data$[ebp]
  00018	83 c0 04	 add	 eax, 4
  0001b	89 45 f4	 mov	 DWORD PTR __Mylast$[ebp], eax

; 1387 : 
; 1388 :         _My_data._Orphan_all();
; 1389 :         _Destroy(_Myfirst, _Mylast);

  0001e	8b 45 f4	 mov	 eax, DWORD PTR __Mylast$[ebp]
  00021	8b 00		 mov	 eax, DWORD PTR [eax]
  00023	89 45 e4	 mov	 DWORD PTR __Last$[ebp], eax
  00026	8b 45 f0	 mov	 eax, DWORD PTR __Myfirst$[ebp]
  00029	8b 00		 mov	 eax, DWORD PTR [eax]
  0002b	89 45 e0	 mov	 DWORD PTR __First$[ebp], eax

; 1733 :         return _Mypair._Get_first();

  0002e	8b 45 f8	 mov	 eax, DWORD PTR _this$[ebp]
; File C:\Program Files (x86)\Microsoft Visual Studio\2019\Community\VC\Tools\MSVC\14.28.29333\include\xmemory

; 1347 :         return *this;

  00031	89 45 ec	 mov	 DWORD PTR $T2[ebp], eax
; File C:\Program Files (x86)\Microsoft Visual Studio\2019\Community\VC\Tools\MSVC\14.28.29333\include\vector

; 1733 :         return _Mypair._Get_first();

  00034	8b 45 ec	 mov	 eax, DWORD PTR $T2[ebp]
  00037	89 45 e8	 mov	 DWORD PTR $T1[ebp], eax

; 1612 :         _Destroy_range(_First, _Last, _Getal());

  0003a	ff 75 e8	 push	 DWORD PTR $T1[ebp]
  0003d	ff 75 e4	 push	 DWORD PTR __Last$[ebp]
  00040	ff 75 e0	 push	 DWORD PTR __First$[ebp]
  00043	e8 00 00 00 00	 call	 ??$_Destroy_range@V?$allocator@PAVCHeaderDecorator@NEffectUpdateDecorator@@@std@@@std@@YAXPAPAVCHeaderDecorator@NEffectUpdateDecorator@@QAPAV12@AAV?$allocator@PAVCHeaderDecorator@NEffectUpdateDecorator@@@0@@Z ; std::_Destroy_range<std::allocator<NEffectUpdateDecorator::CHeaderDecorator *> >
  00048	83 c4 0c	 add	 esp, 12			; 0000000cH

; 1390 :         _Mylast = _Myfirst;

  0004b	8b 45 f4	 mov	 eax, DWORD PTR __Mylast$[ebp]
  0004e	8b 4d f0	 mov	 ecx, DWORD PTR __Myfirst$[ebp]
  00051	8b 09		 mov	 ecx, DWORD PTR [ecx]
  00053	89 08		 mov	 DWORD PTR [eax], ecx

; 1391 :     }

  00055	c9		 leave
  00056	c3		 ret	 0
?clear@?$vector@PAVCHeaderDecorator@NEffectUpdateDecorator@@V?$allocator@PAVCHeaderDecorator@NEffectUpdateDecorator@@@std@@@std@@QAEXXZ ENDP ; std::vector<NEffectUpdateDecorator::CHeaderDecorator *,std::allocator<NEffectUpdateDecorator::CHeaderDecorator *> >::clear
_TEXT	ENDS
; Function compile flags: /Odspy
; File D:\Metin2 Server Files\mainline\SRC_2014\Metin2Client\eterLib\Pool.h
;	COMDAT ?Delete@?$CDynamicPoolEx@VCHeaderDecorator@NEffectUpdateDecorator@@@@KAXPAVCHeaderDecorator@NEffectUpdateDecorator@@@Z
_TEXT	SEGMENT
_pkData$ = 8						; size = 4
?Delete@?$CDynamicPoolEx@VCHeaderDecorator@NEffectUpdateDecorator@@@@KAXPAVCHeaderDecorator@NEffectUpdateDecorator@@@Z PROC ; CDynamicPoolEx<NEffectUpdateDecorator::CHeaderDecorator>::Delete, COMDAT

; 223  : 		{

  00000	55		 push	 ebp
  00001	8b ec		 mov	 ebp, esp

; 224  : 			::operator delete(pkData);

  00003	ff 75 08	 push	 DWORD PTR _pkData$[ebp]
  00006	e8 00 00 00 00	 call	 ??3@YAXPAX@Z		; operator delete
  0000b	59		 pop	 ecx

; 225  : 		}

  0000c	5d		 pop	 ebp
  0000d	c3		 ret	 0
?Delete@?$CDynamicPoolEx@VCHeaderDecorator@NEffectUpdateDecorator@@@@KAXPAVCHeaderDecorator@NEffectUpdateDecorator@@@Z ENDP ; CDynamicPoolEx<NEffectUpdateDecorator::CHeaderDecorator>::Delete
_TEXT	ENDS
; Function compile flags: /Odspy
; File D:\Metin2 Server Files\mainline\SRC_2014\Metin2Client\eterLib\Pool.h
; File C:\Program Files (x86)\Microsoft Visual Studio\2019\Community\VC\Tools\MSVC\14.28.29333\include\vector
; File C:\Program Files (x86)\Microsoft Visual Studio\2019\Community\VC\Tools\MSVC\14.28.29333\include\xstddef
; File C:\Program Files (x86)\Microsoft Visual Studio\2019\Community\VC\Tools\MSVC\14.28.29333\include\vector
; File C:\Program Files (x86)\Microsoft Visual Studio\2019\Community\VC\Tools\MSVC\14.28.29333\include\xstddef
; File C:\Program Files (x86)\Microsoft Visual Studio\2019\Community\VC\Tools\MSVC\14.28.29333\include\vector
; File D:\Metin2 Server Files\mainline\SRC_2014\Metin2Client\eterLib\Pool.h
;	COMDAT ?Destroy@?$CDynamicPoolEx@VCHeaderDecorator@NEffectUpdateDecorator@@@@QAEXXZ
_TEXT	SEGMENT
$T1 = -44						; size = 4
$T2 = -40						; size = 4
$T3 = -36						; size = 4
$T4 = -32						; size = 4
$T5 = -28						; size = 4
___param0$ = -24					; size = 4
$T6 = -20						; size = 4
___param0$ = -16					; size = 4
__My_data$7 = -12					; size = 4
__My_data$8 = -8					; size = 4
_this$ = -4						; size = 4
?Destroy@?$CDynamicPoolEx@VCHeaderDecorator@NEffectUpdateDecorator@@@@QAEXXZ PROC ; CDynamicPoolEx<NEffectUpdateDecorator::CHeaderDecorator>::Destroy, COMDAT
; _this$ = ecx

; 150  : 		{

  00000	55		 push	 ebp
  00001	8b ec		 mov	 ebp, esp
  00003	83 ec 2c	 sub	 esp, 44			; 0000002cH
  00006	89 4d fc	 mov	 DWORD PTR _this$[ebp], ecx
; File C:\Program Files (x86)\Microsoft Visual Studio\2019\Community\VC\Tools\MSVC\14.28.29333\include\vector

; 1420 :         auto& _My_data = _Mypair._Myval2;

  00009	8b 45 fc	 mov	 eax, DWORD PTR _this$[ebp]
  0000c	83 c0 04	 add	 eax, 4
  0000f	89 45 f8	 mov	 DWORD PTR __My_data$8[ebp], eax
; File C:\Program Files (x86)\Microsoft Visual Studio\2019\Community\VC\Tools\MSVC\14.28.29333\include\xstddef

; 275  :     return __builtin_addressof(_Val);

  00012	8b 45 f8	 mov	 eax, DWORD PTR __My_data$8[ebp]
  00015	89 45 d8	 mov	 DWORD PTR $T2[ebp], eax
; File C:\Program Files (x86)\Microsoft Visual Studio\2019\Community\VC\Tools\MSVC\14.28.29333\include\vector

; 1421 :         return iterator(_My_data._Mylast, _STD addressof(_My_data));

  00018	8b 45 f8	 mov	 eax, DWORD PTR __My_data$8[ebp]
  0001b	8b 40 04	 mov	 eax, DWORD PTR [eax+4]
  0001e	89 45 f0	 mov	 DWORD PTR ___param0$[ebp], eax

; 42   :     _Vector_const_iterator(_Tptr _Parg, const _Container_base* _Pvector) noexcept : _Ptr(_Parg) {

  00021	8b 45 f0	 mov	 eax, DWORD PTR ___param0$[ebp]
  00024	89 45 ec	 mov	 DWORD PTR $T6[ebp], eax

; 1421 :         return iterator(_My_data._Mylast, _STD addressof(_My_data));

  00027	8d 45 ec	 lea	 eax, DWORD PTR $T6[ebp]
  0002a	89 45 e0	 mov	 DWORD PTR $T4[ebp], eax

; 1410 :         auto& _My_data = _Mypair._Myval2;

  0002d	8b 45 fc	 mov	 eax, DWORD PTR _this$[ebp]
  00030	83 c0 04	 add	 eax, 4
  00033	89 45 f4	 mov	 DWORD PTR __My_data$7[ebp], eax
; File C:\Program Files (x86)\Microsoft Visual Studio\2019\Community\VC\Tools\MSVC\14.28.29333\include\xstddef

; 275  :     return __builtin_addressof(_Val);

  00036	8b 45 f4	 mov	 eax, DWORD PTR __My_data$7[ebp]
  00039	89 45 d4	 mov	 DWORD PTR $T1[ebp], eax
; File C:\Program Files (x86)\Microsoft Visual Studio\2019\Community\VC\Tools\MSVC\14.28.29333\include\vector

; 1411 :         return iterator(_My_data._Myfirst, _STD addressof(_My_data));

  0003c	8b 45 f4	 mov	 eax, DWORD PTR __My_data$7[ebp]
  0003f	8b 00		 mov	 eax, DWORD PTR [eax]
  00041	89 45 e8	 mov	 DWORD PTR ___param0$[ebp], eax

; 42   :     _Vector_const_iterator(_Tptr _Parg, const _Container_base* _Pvector) noexcept : _Ptr(_Parg) {

  00044	8b 45 e8	 mov	 eax, DWORD PTR ___param0$[ebp]
  00047	89 45 e4	 mov	 DWORD PTR $T5[ebp], eax

; 1411 :         return iterator(_My_data._Myfirst, _STD addressof(_My_data));

  0004a	8d 45 e4	 lea	 eax, DWORD PTR $T5[ebp]
  0004d	89 45 dc	 mov	 DWORD PTR $T3[ebp], eax
; File D:\Metin2 Server Files\mainline\SRC_2014\Metin2Client\eterLib\Pool.h

; 160  : 			std::for_each(m_kVct_pkData.begin(), m_kVct_pkData.end(), Delete);

  00050	68 00 00 00 00	 push	 OFFSET ?Delete@?$CDynamicPoolEx@VCHeaderDecorator@NEffectUpdateDecorator@@@@KAXPAVCHeaderDecorator@NEffectUpdateDecorator@@@Z ; CDynamicPoolEx<NEffectUpdateDecorator::CHeaderDecorator>::Delete
  00055	8b 45 e0	 mov	 eax, DWORD PTR $T4[ebp]
  00058	ff 30		 push	 DWORD PTR [eax]
  0005a	8b 45 dc	 mov	 eax, DWORD PTR $T3[ebp]
  0005d	ff 30		 push	 DWORD PTR [eax]
  0005f	e8 00 00 00 00	 call	 ??$for_each@V?$_Vector_iterator@V?$_Vector_val@U?$_Simple_types@PAVCHeaderDecorator@NEffectUpdateDecorator@@@std@@@std@@@std@@P6AXPAVCHeaderDecorator@NEffectUpdateDecorator@@@Z@std@@YAP6AXPAVCHeaderDecorator@NEffectUpdateDecorator@@@ZV?$_Vector_iterator@V?$_Vector_val@U?$_Simple_types@PAVCHeaderDecorator@NEffectUpdateDecorator@@@std@@@std@@@0@1P6AX0@Z@Z ; std::for_each<std::_Vector_iterator<std::_Vector_val<std::_Simple_types<NEffectUpdateDecorator::CHeaderDecorator *> > >,void (__cdecl*)(NEffectUpdateDecorator::CHeaderDecorator *)>
  00064	83 c4 0c	 add	 esp, 12			; 0000000cH

; 161  : 			m_kVct_pkData.clear();

  00067	8b 4d fc	 mov	 ecx, DWORD PTR _this$[ebp]
  0006a	83 c1 04	 add	 ecx, 4
  0006d	e8 00 00 00 00	 call	 ?clear@?$vector@PAVCHeaderDecorator@NEffectUpdateDecorator@@V?$allocator@PAVCHeaderDecorator@NEffectUpdateDecorator@@@std@@@std@@QAEXXZ ; std::vector<NEffectUpdateDecorator::CHeaderDecorator *,std::allocator<NEffectUpdateDecorator::CHeaderDecorator *> >::clear

; 162  : 			m_kVct_pkFree.clear();

  00072	8b 4d fc	 mov	 ecx, DWORD PTR _this$[ebp]
  00075	83 c1 10	 add	 ecx, 16			; 00000010H
  00078	e8 00 00 00 00	 call	 ?clear@?$vector@PAVCHeaderDecorator@NEffectUpdateDecorator@@V?$allocator@PAVCHeaderDecorator@NEffectUpdateDecorator@@@std@@@std@@QAEXXZ ; std::vector<NEffectUpdateDecorator::CHeaderDecorator *,std::allocator<NEffectUpdateDecorator::CHeaderDecorator *> >::clear

; 163  : 		}

  0007d	c9		 leave
  0007e	c3		 ret	 0
?Destroy@?$CDynamicPoolEx@VCHeaderDecorator@NEffectUpdateDecorator@@@@QAEXXZ ENDP ; CDynamicPoolEx<NEffectUpdateDecorator::CHeaderDecorator>::Destroy
_TEXT	ENDS
; Function compile flags: /Odspy
; File D:\Metin2 Server Files\mainline\SRC_2014\Metin2Client\eterLib\Pool.h
; File C:\Program Files (x86)\Microsoft Visual Studio\2019\Community\VC\Tools\MSVC\14.28.29333\include\vector
; File D:\Metin2 Server Files\mainline\SRC_2014\Metin2Client\eterLib\Pool.h
; File C:\Program Files (x86)\Microsoft Visual Studio\2019\Community\VC\Tools\MSVC\14.28.29333\include\vector
; File D:\Metin2 Server Files\mainline\SRC_2014\Metin2Client\eterLib\Pool.h
;	COMDAT ??1?$CDynamicPoolEx@VCHeaderDecorator@NEffectUpdateDecorator@@@@UAE@XZ
_TEXT	SEGMENT
_this$ = -16						; size = 4
__$EHRec$ = -12						; size = 12
??1?$CDynamicPoolEx@VCHeaderDecorator@NEffectUpdateDecorator@@@@UAE@XZ PROC ; CDynamicPoolEx<NEffectUpdateDecorator::CHeaderDecorator>::~CDynamicPoolEx<NEffectUpdateDecorator::CHeaderDecorator>, COMDAT
; _this$ = ecx

; 132  : 		{

  00000	55		 push	 ebp
  00001	8b ec		 mov	 ebp, esp
  00003	6a ff		 push	 -1
  00005	68 00 00 00 00	 push	 __ehhandler$??1?$CDynamicPoolEx@VCHeaderDecorator@NEffectUpdateDecorator@@@@UAE@XZ
  0000a	64 a1 00 00 00
	00		 mov	 eax, DWORD PTR fs:0
  00010	50		 push	 eax
  00011	51		 push	 ecx
  00012	a1 00 00 00 00	 mov	 eax, DWORD PTR ___security_cookie
  00017	33 c5		 xor	 eax, ebp
  00019	50		 push	 eax
  0001a	8d 45 f4	 lea	 eax, DWORD PTR __$EHRec$[ebp]
  0001d	64 a3 00 00 00
	00		 mov	 DWORD PTR fs:0, eax
  00023	89 4d f0	 mov	 DWORD PTR _this$[ebp], ecx
  00026	8b 45 f0	 mov	 eax, DWORD PTR _this$[ebp]
  00029	c7 00 00 00 00
	00		 mov	 DWORD PTR [eax], OFFSET ??_7?$CDynamicPoolEx@VCHeaderDecorator@NEffectUpdateDecorator@@@@6B@

; 133  : 			assert(m_kVct_pkFree.size()==m_kVct_pkData.size());
; 134  : 			Destroy();

  0002f	8b 4d f0	 mov	 ecx, DWORD PTR _this$[ebp]
  00032	e8 00 00 00 00	 call	 ?Destroy@?$CDynamicPoolEx@VCHeaderDecorator@NEffectUpdateDecorator@@@@QAEXXZ ; CDynamicPoolEx<NEffectUpdateDecorator::CHeaderDecorator>::Destroy

; 142  : 		}

  00037	8b 4d f0	 mov	 ecx, DWORD PTR _this$[ebp]
  0003a	83 c1 10	 add	 ecx, 16			; 00000010H
; File C:\Program Files (x86)\Microsoft Visual Studio\2019\Community\VC\Tools\MSVC\14.28.29333\include\vector

; 673  :         _Tidy();

  0003d	e8 00 00 00 00	 call	 ?_Tidy@?$vector@PAVCHeaderDecorator@NEffectUpdateDecorator@@V?$allocator@PAVCHeaderDecorator@NEffectUpdateDecorator@@@std@@@std@@AAEXXZ ; std::vector<NEffectUpdateDecorator::CHeaderDecorator *,std::allocator<NEffectUpdateDecorator::CHeaderDecorator *> >::_Tidy
; File D:\Metin2 Server Files\mainline\SRC_2014\Metin2Client\eterLib\Pool.h

; 142  : 		}

  00042	8b 4d f0	 mov	 ecx, DWORD PTR _this$[ebp]
  00045	83 c1 04	 add	 ecx, 4
; File C:\Program Files (x86)\Microsoft Visual Studio\2019\Community\VC\Tools\MSVC\14.28.29333\include\vector

; 673  :         _Tidy();

  00048	e8 00 00 00 00	 call	 ?_Tidy@?$vector@PAVCHeaderDecorator@NEffectUpdateDecorator@@V?$allocator@PAVCHeaderDecorator@NEffectUpdateDecorator@@@std@@@std@@AAEXXZ ; std::vector<NEffectUpdateDecorator::CHeaderDecorator *,std::allocator<NEffectUpdateDecorator::CHeaderDecorator *> >::_Tidy
; File D:\Metin2 Server Files\mainline\SRC_2014\Metin2Client\eterLib\Pool.h

; 142  : 		}

  0004d	8b 4d f4	 mov	 ecx, DWORD PTR __$EHRec$[ebp]
  00050	64 89 0d 00 00
	00 00		 mov	 DWORD PTR fs:0, ecx
  00057	59		 pop	 ecx
  00058	c9		 leave
  00059	c3		 ret	 0
  0005a	cc		 int	 3
  0005b	cc		 int	 3
  0005c	cc		 int	 3
  0005d	cc		 int	 3
  0005e	cc		 int	 3
_TEXT	ENDS
;	COMDAT text$x
text$x	SEGMENT
__ehhandler$??1?$CDynamicPoolEx@VCHeaderDecorator@NEffectUpdateDecorator@@@@UAE@XZ:
  00000	90		 npad	 1
  00001	90		 npad	 1
  00002	8b 54 24 08	 mov	 edx, DWORD PTR [esp+8]
  00006	8d 42 0c	 lea	 eax, DWORD PTR [edx+12]
  00009	8b 4a f8	 mov	 ecx, DWORD PTR [edx-8]
  0000c	33 c8		 xor	 ecx, eax
  0000e	e8 00 00 00 00	 call	 @__security_check_cookie@4
  00013	b8 00 00 00 00	 mov	 eax, OFFSET __ehfuncinfo$??1?$CDynamicPoolEx@VCHeaderDecorator@NEffectUpdateDecorator@@@@UAE@XZ
  00018	e9 00 00 00 00	 jmp	 ___CxxFrameHandler3
text$x	ENDS
??1?$CDynamicPoolEx@VCHeaderDecorator@NEffectUpdateDecorator@@@@UAE@XZ ENDP ; CDynamicPoolEx<NEffectUpdateDecorator::CHeaderDecorator>::~CDynamicPoolEx<NEffectUpdateDecorator::CHeaderDecorator>
; Function compile flags: /Odspy
; File D:\Metin2 Server Files\mainline\SRC_2014\Metin2Client\eterLib\Pool.h
; File C:\Program Files (x86)\Microsoft Visual Studio\2019\Community\VC\Tools\MSVC\14.28.29333\include\vector
; File C:\Program Files (x86)\Microsoft Visual Studio\2019\Community\VC\Tools\MSVC\14.28.29333\include\xmemory
; File C:\Program Files (x86)\Microsoft Visual Studio\2019\Community\VC\Tools\MSVC\14.28.29333\include\vector
; File D:\Metin2 Server Files\mainline\SRC_2014\Metin2Client\eterLib\Pool.h
; File C:\Program Files (x86)\Microsoft Visual Studio\2019\Community\VC\Tools\MSVC\14.28.29333\include\vector
; File C:\Program Files (x86)\Microsoft Visual Studio\2019\Community\VC\Tools\MSVC\14.28.29333\include\xmemory
; File C:\Program Files (x86)\Microsoft Visual Studio\2019\Community\VC\Tools\MSVC\14.28.29333\include\vector
; File D:\Metin2 Server Files\mainline\SRC_2014\Metin2Client\eterLib\Pool.h
;	COMDAT ??0?$CDynamicPoolEx@VCHeaderDecorator@NEffectUpdateDecorator@@@@QAE@XZ
_TEXT	SEGMENT
_this$ = -28						; size = 4
_this$ = -24						; size = 4
_this$ = -20						; size = 4
_this$ = -16						; size = 4
_this$1 = -12						; size = 4
_this$2 = -8						; size = 4
_this$ = -4						; size = 4
??0?$CDynamicPoolEx@VCHeaderDecorator@NEffectUpdateDecorator@@@@QAE@XZ PROC ; CDynamicPoolEx<NEffectUpdateDecorator::CHeaderDecorator>::CDynamicPoolEx<NEffectUpdateDecorator::CHeaderDecorator>, COMDAT
; _this$ = ecx

; 126  : 		CDynamicPoolEx()

  00000	55		 push	 ebp
  00001	8b ec		 mov	 ebp, esp
  00003	83 ec 1c	 sub	 esp, 28			; 0000001cH
  00006	89 4d fc	 mov	 DWORD PTR _this$[ebp], ecx

; 127  : 		{

  00009	8b 45 fc	 mov	 eax, DWORD PTR _this$[ebp]
  0000c	c7 00 00 00 00
	00		 mov	 DWORD PTR [eax], OFFSET ??_7?$CDynamicPoolEx@VCHeaderDecorator@NEffectUpdateDecorator@@@@6B@
  00012	8b 45 fc	 mov	 eax, DWORD PTR _this$[ebp]
  00015	83 c0 04	 add	 eax, 4
  00018	89 45 f0	 mov	 DWORD PTR _this$[ebp], eax
; File C:\Program Files (x86)\Microsoft Visual Studio\2019\Community\VC\Tools\MSVC\14.28.29333\include\vector

; 445  :     vector() noexcept(is_nothrow_default_constructible_v<_Alty>) : _Mypair(_Zero_then_variadic_args_t{}) {

  0001b	8b 45 f0	 mov	 eax, DWORD PTR _this$[ebp]
  0001e	89 45 ec	 mov	 DWORD PTR _this$[ebp], eax
; File C:\Program Files (x86)\Microsoft Visual Studio\2019\Community\VC\Tools\MSVC\14.28.29333\include\xmemory

; 1339 :         : _Ty1(), _Myval2(_STD forward<_Other2>(_Val2)...) {}

  00021	8b 45 ec	 mov	 eax, DWORD PTR _this$[ebp]
  00024	89 45 f8	 mov	 DWORD PTR _this$2[ebp], eax
; File C:\Program Files (x86)\Microsoft Visual Studio\2019\Community\VC\Tools\MSVC\14.28.29333\include\vector

; 375  :     _Vector_val() noexcept : _Myfirst(), _Mylast(), _Myend() {}

  00027	8b 45 f8	 mov	 eax, DWORD PTR _this$2[ebp]
  0002a	83 20 00	 and	 DWORD PTR [eax], 0
  0002d	8b 45 f8	 mov	 eax, DWORD PTR _this$2[ebp]
  00030	83 60 04 00	 and	 DWORD PTR [eax+4], 0
  00034	8b 45 f8	 mov	 eax, DWORD PTR _this$2[ebp]
  00037	83 60 08 00	 and	 DWORD PTR [eax+8], 0
; File D:\Metin2 Server Files\mainline\SRC_2014\Metin2Client\eterLib\Pool.h

; 127  : 		{

  0003b	8b 45 fc	 mov	 eax, DWORD PTR _this$[ebp]
  0003e	83 c0 10	 add	 eax, 16			; 00000010H
  00041	89 45 e8	 mov	 DWORD PTR _this$[ebp], eax
; File C:\Program Files (x86)\Microsoft Visual Studio\2019\Community\VC\Tools\MSVC\14.28.29333\include\vector

; 445  :     vector() noexcept(is_nothrow_default_constructible_v<_Alty>) : _Mypair(_Zero_then_variadic_args_t{}) {

  00044	8b 45 e8	 mov	 eax, DWORD PTR _this$[ebp]
  00047	89 45 e4	 mov	 DWORD PTR _this$[ebp], eax
; File C:\Program Files (x86)\Microsoft Visual Studio\2019\Community\VC\Tools\MSVC\14.28.29333\include\xmemory

; 1339 :         : _Ty1(), _Myval2(_STD forward<_Other2>(_Val2)...) {}

  0004a	8b 45 e4	 mov	 eax, DWORD PTR _this$[ebp]
  0004d	89 45 f4	 mov	 DWORD PTR _this$1[ebp], eax
; File C:\Program Files (x86)\Microsoft Visual Studio\2019\Community\VC\Tools\MSVC\14.28.29333\include\vector

; 375  :     _Vector_val() noexcept : _Myfirst(), _Mylast(), _Myend() {}

  00050	8b 45 f4	 mov	 eax, DWORD PTR _this$1[ebp]
  00053	83 20 00	 and	 DWORD PTR [eax], 0
  00056	8b 45 f4	 mov	 eax, DWORD PTR _this$1[ebp]
  00059	83 60 04 00	 and	 DWORD PTR [eax+4], 0
  0005d	8b 45 f4	 mov	 eax, DWORD PTR _this$1[ebp]
  00060	83 60 08 00	 and	 DWORD PTR [eax+8], 0
; File D:\Metin2 Server Files\mainline\SRC_2014\Metin2Client\eterLib\Pool.h

; 128  : 			m_uInitCapacity=0;

  00064	8b 45 fc	 mov	 eax, DWORD PTR _this$[ebp]
  00067	83 60 1c 00	 and	 DWORD PTR [eax+28], 0

; 129  : 			m_uUsedCapacity=0;

  0006b	8b 45 fc	 mov	 eax, DWORD PTR _this$[ebp]
  0006e	83 60 20 00	 and	 DWORD PTR [eax+32], 0

; 130  : 		}

  00072	8b 45 fc	 mov	 eax, DWORD PTR _this$[ebp]
  00075	c9		 leave
  00076	c3		 ret	 0
??0?$CDynamicPoolEx@VCHeaderDecorator@NEffectUpdateDecorator@@@@QAE@XZ ENDP ; CDynamicPoolEx<NEffectUpdateDecorator::CHeaderDecorator>::CDynamicPoolEx<NEffectUpdateDecorator::CHeaderDecorator>
_TEXT	ENDS
; Function compile flags: /Odspy
;	COMDAT ??_G?$CDynamicPoolEx@VCNullDecorator@NEffectUpdateDecorator@@@@UAEPAXI@Z
_TEXT	SEGMENT
_this$ = -4						; size = 4
___flags$ = 8						; size = 4
??_G?$CDynamicPoolEx@VCNullDecorator@NEffectUpdateDecorator@@@@UAEPAXI@Z PROC ; CDynamicPoolEx<NEffectUpdateDecorator::CNullDecorator>::`scalar deleting destructor', COMDAT
; _this$ = ecx
  00000	55		 push	 ebp
  00001	8b ec		 mov	 ebp, esp
  00003	51		 push	 ecx
  00004	89 4d fc	 mov	 DWORD PTR _this$[ebp], ecx
  00007	8b 4d fc	 mov	 ecx, DWORD PTR _this$[ebp]
  0000a	e8 00 00 00 00	 call	 ??1?$CDynamicPoolEx@VCNullDecorator@NEffectUpdateDecorator@@@@UAE@XZ ; CDynamicPoolEx<NEffectUpdateDecorator::CNullDecorator>::~CDynamicPoolEx<NEffectUpdateDecorator::CNullDecorator>
  0000f	8b 45 08	 mov	 eax, DWORD PTR ___flags$[ebp]
  00012	83 e0 01	 and	 eax, 1
  00015	74 0c		 je	 SHORT $LN2@scalar
  00017	6a 24		 push	 36			; 00000024H
  00019	ff 75 fc	 push	 DWORD PTR _this$[ebp]
  0001c	e8 00 00 00 00	 call	 ??3@YAXPAXI@Z		; operator delete
  00021	59		 pop	 ecx
  00022	59		 pop	 ecx
$LN2@scalar:
  00023	8b 45 fc	 mov	 eax, DWORD PTR _this$[ebp]
  00026	c9		 leave
  00027	c2 04 00	 ret	 4
??_G?$CDynamicPoolEx@VCNullDecorator@NEffectUpdateDecorator@@@@UAEPAXI@Z ENDP ; CDynamicPoolEx<NEffectUpdateDecorator::CNullDecorator>::`scalar deleting destructor'
_TEXT	ENDS
; Function compile flags: /Odspy
; File C:\Program Files (x86)\Microsoft Visual Studio\2019\Community\VC\Tools\MSVC\14.28.29333\include\vector
; File C:\Program Files (x86)\Microsoft Visual Studio\2019\Community\VC\Tools\MSVC\14.28.29333\include\xmemory
; File C:\Program Files (x86)\Microsoft Visual Studio\2019\Community\VC\Tools\MSVC\14.28.29333\include\vector
; File C:\Program Files (x86)\Microsoft Visual Studio\2019\Community\VC\Tools\MSVC\14.28.29333\include\xmemory
; File C:\Program Files (x86)\Microsoft Visual Studio\2019\Community\VC\Tools\MSVC\14.28.29333\include\vector
; File C:\Program Files (x86)\Microsoft Visual Studio\2019\Community\VC\Tools\MSVC\14.28.29333\include\xmemory
; File C:\Program Files (x86)\Microsoft Visual Studio\2019\Community\VC\Tools\MSVC\14.28.29333\include\vector
;	COMDAT ?_Tidy@?$vector@PAVCNullDecorator@NEffectUpdateDecorator@@V?$allocator@PAVCNullDecorator@NEffectUpdateDecorator@@@std@@@std@@AAEXXZ
_TEXT	SEGMENT
$T1 = -52						; size = 4
__Ptr$ = -48						; size = 4
__Count$ = -44						; size = 4
$T2 = -40						; size = 4
__First$ = -36						; size = 4
__Last$ = -32						; size = 4
$T3 = -28						; size = 4
$T4 = -24						; size = 4
__Myend$ = -20						; size = 4
__Mylast$ = -16						; size = 4
_this$ = -12						; size = 4
__My_data$ = -8						; size = 4
__Myfirst$ = -4						; size = 4
?_Tidy@?$vector@PAVCNullDecorator@NEffectUpdateDecorator@@V?$allocator@PAVCNullDecorator@NEffectUpdateDecorator@@@std@@@std@@AAEXXZ PROC ; std::vector<NEffectUpdateDecorator::CNullDecorator *,std::allocator<NEffectUpdateDecorator::CNullDecorator *> >::_Tidy, COMDAT
; _this$ = ecx

; 1686 :     void _Tidy() noexcept { // free all storage

  00000	55		 push	 ebp
  00001	8b ec		 mov	 ebp, esp
  00003	83 ec 34	 sub	 esp, 52			; 00000034H
  00006	89 4d f4	 mov	 DWORD PTR _this$[ebp], ecx

; 1687 :         auto& _My_data    = _Mypair._Myval2;

  00009	8b 45 f4	 mov	 eax, DWORD PTR _this$[ebp]
  0000c	89 45 f8	 mov	 DWORD PTR __My_data$[ebp], eax

; 1688 :         pointer& _Myfirst = _My_data._Myfirst;

  0000f	8b 45 f8	 mov	 eax, DWORD PTR __My_data$[ebp]
  00012	89 45 fc	 mov	 DWORD PTR __Myfirst$[ebp], eax

; 1689 :         pointer& _Mylast  = _My_data._Mylast;

  00015	8b 45 f8	 mov	 eax, DWORD PTR __My_data$[ebp]
  00018	83 c0 04	 add	 eax, 4
  0001b	89 45 f0	 mov	 DWORD PTR __Mylast$[ebp], eax

; 1690 :         pointer& _Myend   = _My_data._Myend;

  0001e	8b 45 f8	 mov	 eax, DWORD PTR __My_data$[ebp]
  00021	83 c0 08	 add	 eax, 8
  00024	89 45 ec	 mov	 DWORD PTR __Myend$[ebp], eax

; 1691 : 
; 1692 :         _My_data._Orphan_all();
; 1693 : 
; 1694 :         if (_Myfirst) { // destroy and deallocate old array

  00027	8b 45 fc	 mov	 eax, DWORD PTR __Myfirst$[ebp]
  0002a	83 38 00	 cmp	 DWORD PTR [eax], 0
  0002d	74 74		 je	 SHORT $LN3@Tidy

; 1695 :             _Destroy(_Myfirst, _Mylast);

  0002f	8b 45 f0	 mov	 eax, DWORD PTR __Mylast$[ebp]
  00032	8b 00		 mov	 eax, DWORD PTR [eax]
  00034	89 45 e0	 mov	 DWORD PTR __Last$[ebp], eax
  00037	8b 45 fc	 mov	 eax, DWORD PTR __Myfirst$[ebp]
  0003a	8b 00		 mov	 eax, DWORD PTR [eax]
  0003c	89 45 dc	 mov	 DWORD PTR __First$[ebp], eax

; 1733 :         return _Mypair._Get_first();

  0003f	8b 45 f4	 mov	 eax, DWORD PTR _this$[ebp]
; File C:\Program Files (x86)\Microsoft Visual Studio\2019\Community\VC\Tools\MSVC\14.28.29333\include\xmemory

; 1347 :         return *this;

  00042	89 45 e8	 mov	 DWORD PTR $T4[ebp], eax
; File C:\Program Files (x86)\Microsoft Visual Studio\2019\Community\VC\Tools\MSVC\14.28.29333\include\vector

; 1733 :         return _Mypair._Get_first();

  00045	8b 45 e8	 mov	 eax, DWORD PTR $T4[ebp]
  00048	89 45 e4	 mov	 DWORD PTR $T3[ebp], eax

; 1612 :         _Destroy_range(_First, _Last, _Getal());

  0004b	ff 75 e4	 push	 DWORD PTR $T3[ebp]
  0004e	ff 75 e0	 push	 DWORD PTR __Last$[ebp]
  00051	ff 75 dc	 push	 DWORD PTR __First$[ebp]
  00054	e8 00 00 00 00	 call	 ??$_Destroy_range@V?$allocator@PAVCNullDecorator@NEffectUpdateDecorator@@@std@@@std@@YAXPAPAVCNullDecorator@NEffectUpdateDecorator@@QAPAV12@AAV?$allocator@PAVCNullDecorator@NEffectUpdateDecorator@@@0@@Z ; std::_Destroy_range<std::allocator<NEffectUpdateDecorator::CNullDecorator *> >
  00059	83 c4 0c	 add	 esp, 12			; 0000000cH

; 1733 :         return _Mypair._Get_first();

  0005c	8b 45 f4	 mov	 eax, DWORD PTR _this$[ebp]
; File C:\Program Files (x86)\Microsoft Visual Studio\2019\Community\VC\Tools\MSVC\14.28.29333\include\xmemory

; 1347 :         return *this;

  0005f	89 45 d8	 mov	 DWORD PTR $T2[ebp], eax
; File C:\Program Files (x86)\Microsoft Visual Studio\2019\Community\VC\Tools\MSVC\14.28.29333\include\vector

; 1733 :         return _Mypair._Get_first();

  00062	8b 45 d8	 mov	 eax, DWORD PTR $T2[ebp]
  00065	89 45 cc	 mov	 DWORD PTR $T1[ebp], eax

; 1696 :             _Getal().deallocate(_Myfirst, static_cast<size_type>(_Myend - _Myfirst));

  00068	8b 45 ec	 mov	 eax, DWORD PTR __Myend$[ebp]
  0006b	8b 4d fc	 mov	 ecx, DWORD PTR __Myfirst$[ebp]
  0006e	8b 00		 mov	 eax, DWORD PTR [eax]
  00070	2b 01		 sub	 eax, DWORD PTR [ecx]
  00072	c1 f8 02	 sar	 eax, 2
  00075	89 45 d4	 mov	 DWORD PTR __Count$[ebp], eax
  00078	8b 45 fc	 mov	 eax, DWORD PTR __Myfirst$[ebp]
  0007b	8b 00		 mov	 eax, DWORD PTR [eax]
  0007d	89 45 d0	 mov	 DWORD PTR __Ptr$[ebp], eax
; File C:\Program Files (x86)\Microsoft Visual Studio\2019\Community\VC\Tools\MSVC\14.28.29333\include\xmemory

; 810  :         _Deallocate<_New_alignof<_Ty>>(_Ptr, sizeof(_Ty) * _Count);

  00080	8b 45 d4	 mov	 eax, DWORD PTR __Count$[ebp]
  00083	c1 e0 02	 shl	 eax, 2
  00086	50		 push	 eax
  00087	ff 75 d0	 push	 DWORD PTR __Ptr$[ebp]
  0008a	e8 00 00 00 00	 call	 ??$_Deallocate@$07$0A@@std@@YAXPAXI@Z ; std::_Deallocate<8,0>
  0008f	59		 pop	 ecx
  00090	59		 pop	 ecx
; File C:\Program Files (x86)\Microsoft Visual Studio\2019\Community\VC\Tools\MSVC\14.28.29333\include\vector

; 1698 :             _Myfirst = pointer();

  00091	8b 45 fc	 mov	 eax, DWORD PTR __Myfirst$[ebp]
  00094	83 20 00	 and	 DWORD PTR [eax], 0

; 1699 :             _Mylast  = pointer();

  00097	8b 45 f0	 mov	 eax, DWORD PTR __Mylast$[ebp]
  0009a	83 20 00	 and	 DWORD PTR [eax], 0

; 1700 :             _Myend   = pointer();

  0009d	8b 45 ec	 mov	 eax, DWORD PTR __Myend$[ebp]
  000a0	83 20 00	 and	 DWORD PTR [eax], 0
$LN3@Tidy:

; 1701 :         }
; 1702 :     }

  000a3	c9		 leave
  000a4	c3		 ret	 0
?_Tidy@?$vector@PAVCNullDecorator@NEffectUpdateDecorator@@V?$allocator@PAVCNullDecorator@NEffectUpdateDecorator@@@std@@@std@@AAEXXZ ENDP ; std::vector<NEffectUpdateDecorator::CNullDecorator *,std::allocator<NEffectUpdateDecorator::CNullDecorator *> >::_Tidy
_TEXT	ENDS
; Function compile flags: /Odspy
; File C:\Program Files (x86)\Microsoft Visual Studio\2019\Community\VC\Tools\MSVC\14.28.29333\include\vector
; File C:\Program Files (x86)\Microsoft Visual Studio\2019\Community\VC\Tools\MSVC\14.28.29333\include\xmemory
; File C:\Program Files (x86)\Microsoft Visual Studio\2019\Community\VC\Tools\MSVC\14.28.29333\include\vector
;	COMDAT ?clear@?$vector@PAVCNullDecorator@NEffectUpdateDecorator@@V?$allocator@PAVCNullDecorator@NEffectUpdateDecorator@@@std@@@std@@QAEXXZ
_TEXT	SEGMENT
__First$ = -32						; size = 4
__Last$ = -28						; size = 4
$T1 = -24						; size = 4
$T2 = -20						; size = 4
__Myfirst$ = -16					; size = 4
__Mylast$ = -12						; size = 4
_this$ = -8						; size = 4
__My_data$ = -4						; size = 4
?clear@?$vector@PAVCNullDecorator@NEffectUpdateDecorator@@V?$allocator@PAVCNullDecorator@NEffectUpdateDecorator@@@std@@@std@@QAEXXZ PROC ; std::vector<NEffectUpdateDecorator::CNullDecorator *,std::allocator<NEffectUpdateDecorator::CNullDecorator *> >::clear, COMDAT
; _this$ = ecx

; 1383 :     void clear() noexcept { // erase all

  00000	55		 push	 ebp
  00001	8b ec		 mov	 ebp, esp
  00003	83 ec 20	 sub	 esp, 32			; 00000020H
  00006	89 4d f8	 mov	 DWORD PTR _this$[ebp], ecx

; 1384 :         auto& _My_data    = _Mypair._Myval2;

  00009	8b 45 f8	 mov	 eax, DWORD PTR _this$[ebp]
  0000c	89 45 fc	 mov	 DWORD PTR __My_data$[ebp], eax

; 1385 :         pointer& _Myfirst = _My_data._Myfirst;

  0000f	8b 45 fc	 mov	 eax, DWORD PTR __My_data$[ebp]
  00012	89 45 f0	 mov	 DWORD PTR __Myfirst$[ebp], eax

; 1386 :         pointer& _Mylast  = _My_data._Mylast;

  00015	8b 45 fc	 mov	 eax, DWORD PTR __My_data$[ebp]
  00018	83 c0 04	 add	 eax, 4
  0001b	89 45 f4	 mov	 DWORD PTR __Mylast$[ebp], eax

; 1387 : 
; 1388 :         _My_data._Orphan_all();
; 1389 :         _Destroy(_Myfirst, _Mylast);

  0001e	8b 45 f4	 mov	 eax, DWORD PTR __Mylast$[ebp]
  00021	8b 00		 mov	 eax, DWORD PTR [eax]
  00023	89 45 e4	 mov	 DWORD PTR __Last$[ebp], eax
  00026	8b 45 f0	 mov	 eax, DWORD PTR __Myfirst$[ebp]
  00029	8b 00		 mov	 eax, DWORD PTR [eax]
  0002b	89 45 e0	 mov	 DWORD PTR __First$[ebp], eax

; 1733 :         return _Mypair._Get_first();

  0002e	8b 45 f8	 mov	 eax, DWORD PTR _this$[ebp]
; File C:\Program Files (x86)\Microsoft Visual Studio\2019\Community\VC\Tools\MSVC\14.28.29333\include\xmemory

; 1347 :         return *this;

  00031	89 45 ec	 mov	 DWORD PTR $T2[ebp], eax
; File C:\Program Files (x86)\Microsoft Visual Studio\2019\Community\VC\Tools\MSVC\14.28.29333\include\vector

; 1733 :         return _Mypair._Get_first();

  00034	8b 45 ec	 mov	 eax, DWORD PTR $T2[ebp]
  00037	89 45 e8	 mov	 DWORD PTR $T1[ebp], eax

; 1612 :         _Destroy_range(_First, _Last, _Getal());

  0003a	ff 75 e8	 push	 DWORD PTR $T1[ebp]
  0003d	ff 75 e4	 push	 DWORD PTR __Last$[ebp]
  00040	ff 75 e0	 push	 DWORD PTR __First$[ebp]
  00043	e8 00 00 00 00	 call	 ??$_Destroy_range@V?$allocator@PAVCNullDecorator@NEffectUpdateDecorator@@@std@@@std@@YAXPAPAVCNullDecorator@NEffectUpdateDecorator@@QAPAV12@AAV?$allocator@PAVCNullDecorator@NEffectUpdateDecorator@@@0@@Z ; std::_Destroy_range<std::allocator<NEffectUpdateDecorator::CNullDecorator *> >
  00048	83 c4 0c	 add	 esp, 12			; 0000000cH

; 1390 :         _Mylast = _Myfirst;

  0004b	8b 45 f4	 mov	 eax, DWORD PTR __Mylast$[ebp]
  0004e	8b 4d f0	 mov	 ecx, DWORD PTR __Myfirst$[ebp]
  00051	8b 09		 mov	 ecx, DWORD PTR [ecx]
  00053	89 08		 mov	 DWORD PTR [eax], ecx

; 1391 :     }

  00055	c9		 leave
  00056	c3		 ret	 0
?clear@?$vector@PAVCNullDecorator@NEffectUpdateDecorator@@V?$allocator@PAVCNullDecorator@NEffectUpdateDecorator@@@std@@@std@@QAEXXZ ENDP ; std::vector<NEffectUpdateDecorator::CNullDecorator *,std::allocator<NEffectUpdateDecorator::CNullDecorator *> >::clear
_TEXT	ENDS
; Function compile flags: /Odspy
; File D:\Metin2 Server Files\mainline\SRC_2014\Metin2Client\eterLib\Pool.h
;	COMDAT ?Delete@?$CDynamicPoolEx@VCNullDecorator@NEffectUpdateDecorator@@@@KAXPAVCNullDecorator@NEffectUpdateDecorator@@@Z
_TEXT	SEGMENT
_pkData$ = 8						; size = 4
?Delete@?$CDynamicPoolEx@VCNullDecorator@NEffectUpdateDecorator@@@@KAXPAVCNullDecorator@NEffectUpdateDecorator@@@Z PROC ; CDynamicPoolEx<NEffectUpdateDecorator::CNullDecorator>::Delete, COMDAT

; 223  : 		{

  00000	55		 push	 ebp
  00001	8b ec		 mov	 ebp, esp

; 224  : 			::operator delete(pkData);

  00003	ff 75 08	 push	 DWORD PTR _pkData$[ebp]
  00006	e8 00 00 00 00	 call	 ??3@YAXPAX@Z		; operator delete
  0000b	59		 pop	 ecx

; 225  : 		}

  0000c	5d		 pop	 ebp
  0000d	c3		 ret	 0
?Delete@?$CDynamicPoolEx@VCNullDecorator@NEffectUpdateDecorator@@@@KAXPAVCNullDecorator@NEffectUpdateDecorator@@@Z ENDP ; CDynamicPoolEx<NEffectUpdateDecorator::CNullDecorator>::Delete
_TEXT	ENDS
; Function compile flags: /Odspy
; File D:\Metin2 Server Files\mainline\SRC_2014\Metin2Client\eterLib\Pool.h
; File C:\Program Files (x86)\Microsoft Visual Studio\2019\Community\VC\Tools\MSVC\14.28.29333\include\vector
; File C:\Program Files (x86)\Microsoft Visual Studio\2019\Community\VC\Tools\MSVC\14.28.29333\include\xstddef
; File C:\Program Files (x86)\Microsoft Visual Studio\2019\Community\VC\Tools\MSVC\14.28.29333\include\vector
; File C:\Program Files (x86)\Microsoft Visual Studio\2019\Community\VC\Tools\MSVC\14.28.29333\include\xstddef
; File C:\Program Files (x86)\Microsoft Visual Studio\2019\Community\VC\Tools\MSVC\14.28.29333\include\vector
; File D:\Metin2 Server Files\mainline\SRC_2014\Metin2Client\eterLib\Pool.h
;	COMDAT ?Destroy@?$CDynamicPoolEx@VCNullDecorator@NEffectUpdateDecorator@@@@QAEXXZ
_TEXT	SEGMENT
$T1 = -44						; size = 4
$T2 = -40						; size = 4
$T3 = -36						; size = 4
$T4 = -32						; size = 4
$T5 = -28						; size = 4
___param0$ = -24					; size = 4
$T6 = -20						; size = 4
___param0$ = -16					; size = 4
__My_data$7 = -12					; size = 4
__My_data$8 = -8					; size = 4
_this$ = -4						; size = 4
?Destroy@?$CDynamicPoolEx@VCNullDecorator@NEffectUpdateDecorator@@@@QAEXXZ PROC ; CDynamicPoolEx<NEffectUpdateDecorator::CNullDecorator>::Destroy, COMDAT
; _this$ = ecx

; 150  : 		{

  00000	55		 push	 ebp
  00001	8b ec		 mov	 ebp, esp
  00003	83 ec 2c	 sub	 esp, 44			; 0000002cH
  00006	89 4d fc	 mov	 DWORD PTR _this$[ebp], ecx
; File C:\Program Files (x86)\Microsoft Visual Studio\2019\Community\VC\Tools\MSVC\14.28.29333\include\vector

; 1420 :         auto& _My_data = _Mypair._Myval2;

  00009	8b 45 fc	 mov	 eax, DWORD PTR _this$[ebp]
  0000c	83 c0 04	 add	 eax, 4
  0000f	89 45 f8	 mov	 DWORD PTR __My_data$8[ebp], eax
; File C:\Program Files (x86)\Microsoft Visual Studio\2019\Community\VC\Tools\MSVC\14.28.29333\include\xstddef

; 275  :     return __builtin_addressof(_Val);

  00012	8b 45 f8	 mov	 eax, DWORD PTR __My_data$8[ebp]
  00015	89 45 d8	 mov	 DWORD PTR $T2[ebp], eax
; File C:\Program Files (x86)\Microsoft Visual Studio\2019\Community\VC\Tools\MSVC\14.28.29333\include\vector

; 1421 :         return iterator(_My_data._Mylast, _STD addressof(_My_data));

  00018	8b 45 f8	 mov	 eax, DWORD PTR __My_data$8[ebp]
  0001b	8b 40 04	 mov	 eax, DWORD PTR [eax+4]
  0001e	89 45 f0	 mov	 DWORD PTR ___param0$[ebp], eax

; 42   :     _Vector_const_iterator(_Tptr _Parg, const _Container_base* _Pvector) noexcept : _Ptr(_Parg) {

  00021	8b 45 f0	 mov	 eax, DWORD PTR ___param0$[ebp]
  00024	89 45 ec	 mov	 DWORD PTR $T6[ebp], eax

; 1421 :         return iterator(_My_data._Mylast, _STD addressof(_My_data));

  00027	8d 45 ec	 lea	 eax, DWORD PTR $T6[ebp]
  0002a	89 45 e0	 mov	 DWORD PTR $T4[ebp], eax

; 1410 :         auto& _My_data = _Mypair._Myval2;

  0002d	8b 45 fc	 mov	 eax, DWORD PTR _this$[ebp]
  00030	83 c0 04	 add	 eax, 4
  00033	89 45 f4	 mov	 DWORD PTR __My_data$7[ebp], eax
; File C:\Program Files (x86)\Microsoft Visual Studio\2019\Community\VC\Tools\MSVC\14.28.29333\include\xstddef

; 275  :     return __builtin_addressof(_Val);

  00036	8b 45 f4	 mov	 eax, DWORD PTR __My_data$7[ebp]
  00039	89 45 d4	 mov	 DWORD PTR $T1[ebp], eax
; File C:\Program Files (x86)\Microsoft Visual Studio\2019\Community\VC\Tools\MSVC\14.28.29333\include\vector

; 1411 :         return iterator(_My_data._Myfirst, _STD addressof(_My_data));

  0003c	8b 45 f4	 mov	 eax, DWORD PTR __My_data$7[ebp]
  0003f	8b 00		 mov	 eax, DWORD PTR [eax]
  00041	89 45 e8	 mov	 DWORD PTR ___param0$[ebp], eax

; 42   :     _Vector_const_iterator(_Tptr _Parg, const _Container_base* _Pvector) noexcept : _Ptr(_Parg) {

  00044	8b 45 e8	 mov	 eax, DWORD PTR ___param0$[ebp]
  00047	89 45 e4	 mov	 DWORD PTR $T5[ebp], eax

; 1411 :         return iterator(_My_data._Myfirst, _STD addressof(_My_data));

  0004a	8d 45 e4	 lea	 eax, DWORD PTR $T5[ebp]
  0004d	89 45 dc	 mov	 DWORD PTR $T3[ebp], eax
; File D:\Metin2 Server Files\mainline\SRC_2014\Metin2Client\eterLib\Pool.h

; 160  : 			std::for_each(m_kVct_pkData.begin(), m_kVct_pkData.end(), Delete);

  00050	68 00 00 00 00	 push	 OFFSET ?Delete@?$CDynamicPoolEx@VCNullDecorator@NEffectUpdateDecorator@@@@KAXPAVCNullDecorator@NEffectUpdateDecorator@@@Z ; CDynamicPoolEx<NEffectUpdateDecorator::CNullDecorator>::Delete
  00055	8b 45 e0	 mov	 eax, DWORD PTR $T4[ebp]
  00058	ff 30		 push	 DWORD PTR [eax]
  0005a	8b 45 dc	 mov	 eax, DWORD PTR $T3[ebp]
  0005d	ff 30		 push	 DWORD PTR [eax]
  0005f	e8 00 00 00 00	 call	 ??$for_each@V?$_Vector_iterator@V?$_Vector_val@U?$_Simple_types@PAVCNullDecorator@NEffectUpdateDecorator@@@std@@@std@@@std@@P6AXPAVCNullDecorator@NEffectUpdateDecorator@@@Z@std@@YAP6AXPAVCNullDecorator@NEffectUpdateDecorator@@@ZV?$_Vector_iterator@V?$_Vector_val@U?$_Simple_types@PAVCNullDecorator@NEffectUpdateDecorator@@@std@@@std@@@0@1P6AX0@Z@Z ; std::for_each<std::_Vector_iterator<std::_Vector_val<std::_Simple_types<NEffectUpdateDecorator::CNullDecorator *> > >,void (__cdecl*)(NEffectUpdateDecorator::CNullDecorator *)>
  00064	83 c4 0c	 add	 esp, 12			; 0000000cH

; 161  : 			m_kVct_pkData.clear();

  00067	8b 4d fc	 mov	 ecx, DWORD PTR _this$[ebp]
  0006a	83 c1 04	 add	 ecx, 4
  0006d	e8 00 00 00 00	 call	 ?clear@?$vector@PAVCNullDecorator@NEffectUpdateDecorator@@V?$allocator@PAVCNullDecorator@NEffectUpdateDecorator@@@std@@@std@@QAEXXZ ; std::vector<NEffectUpdateDecorator::CNullDecorator *,std::allocator<NEffectUpdateDecorator::CNullDecorator *> >::clear

; 162  : 			m_kVct_pkFree.clear();

  00072	8b 4d fc	 mov	 ecx, DWORD PTR _this$[ebp]
  00075	83 c1 10	 add	 ecx, 16			; 00000010H
  00078	e8 00 00 00 00	 call	 ?clear@?$vector@PAVCNullDecorator@NEffectUpdateDecorator@@V?$allocator@PAVCNullDecorator@NEffectUpdateDecorator@@@std@@@std@@QAEXXZ ; std::vector<NEffectUpdateDecorator::CNullDecorator *,std::allocator<NEffectUpdateDecorator::CNullDecorator *> >::clear

; 163  : 		}

  0007d	c9		 leave
  0007e	c3		 ret	 0
?Destroy@?$CDynamicPoolEx@VCNullDecorator@NEffectUpdateDecorator@@@@QAEXXZ ENDP ; CDynamicPoolEx<NEffectUpdateDecorator::CNullDecorator>::Destroy
_TEXT	ENDS
; Function compile flags: /Odspy
; File D:\Metin2 Server Files\mainline\SRC_2014\Metin2Client\eterLib\Pool.h
; File C:\Program Files (x86)\Microsoft Visual Studio\2019\Community\VC\Tools\MSVC\14.28.29333\include\vector
; File D:\Metin2 Server Files\mainline\SRC_2014\Metin2Client\eterLib\Pool.h
; File C:\Program Files (x86)\Microsoft Visual Studio\2019\Community\VC\Tools\MSVC\14.28.29333\include\vector
; File D:\Metin2 Server Files\mainline\SRC_2014\Metin2Client\eterLib\Pool.h
;	COMDAT ??1?$CDynamicPoolEx@VCNullDecorator@NEffectUpdateDecorator@@@@UAE@XZ
_TEXT	SEGMENT
_this$ = -16						; size = 4
__$EHRec$ = -12						; size = 12
??1?$CDynamicPoolEx@VCNullDecorator@NEffectUpdateDecorator@@@@UAE@XZ PROC ; CDynamicPoolEx<NEffectUpdateDecorator::CNullDecorator>::~CDynamicPoolEx<NEffectUpdateDecorator::CNullDecorator>, COMDAT
; _this$ = ecx

; 132  : 		{

  00000	55		 push	 ebp
  00001	8b ec		 mov	 ebp, esp
  00003	6a ff		 push	 -1
  00005	68 00 00 00 00	 push	 __ehhandler$??1?$CDynamicPoolEx@VCNullDecorator@NEffectUpdateDecorator@@@@UAE@XZ
  0000a	64 a1 00 00 00
	00		 mov	 eax, DWORD PTR fs:0
  00010	50		 push	 eax
  00011	51		 push	 ecx
  00012	a1 00 00 00 00	 mov	 eax, DWORD PTR ___security_cookie
  00017	33 c5		 xor	 eax, ebp
  00019	50		 push	 eax
  0001a	8d 45 f4	 lea	 eax, DWORD PTR __$EHRec$[ebp]
  0001d	64 a3 00 00 00
	00		 mov	 DWORD PTR fs:0, eax
  00023	89 4d f0	 mov	 DWORD PTR _this$[ebp], ecx
  00026	8b 45 f0	 mov	 eax, DWORD PTR _this$[ebp]
  00029	c7 00 00 00 00
	00		 mov	 DWORD PTR [eax], OFFSET ??_7?$CDynamicPoolEx@VCNullDecorator@NEffectUpdateDecorator@@@@6B@

; 133  : 			assert(m_kVct_pkFree.size()==m_kVct_pkData.size());
; 134  : 			Destroy();

  0002f	8b 4d f0	 mov	 ecx, DWORD PTR _this$[ebp]
  00032	e8 00 00 00 00	 call	 ?Destroy@?$CDynamicPoolEx@VCNullDecorator@NEffectUpdateDecorator@@@@QAEXXZ ; CDynamicPoolEx<NEffectUpdateDecorator::CNullDecorator>::Destroy

; 142  : 		}

  00037	8b 4d f0	 mov	 ecx, DWORD PTR _this$[ebp]
  0003a	83 c1 10	 add	 ecx, 16			; 00000010H
; File C:\Program Files (x86)\Microsoft Visual Studio\2019\Community\VC\Tools\MSVC\14.28.29333\include\vector

; 673  :         _Tidy();

  0003d	e8 00 00 00 00	 call	 ?_Tidy@?$vector@PAVCNullDecorator@NEffectUpdateDecorator@@V?$allocator@PAVCNullDecorator@NEffectUpdateDecorator@@@std@@@std@@AAEXXZ ; std::vector<NEffectUpdateDecorator::CNullDecorator *,std::allocator<NEffectUpdateDecorator::CNullDecorator *> >::_Tidy
; File D:\Metin2 Server Files\mainline\SRC_2014\Metin2Client\eterLib\Pool.h

; 142  : 		}

  00042	8b 4d f0	 mov	 ecx, DWORD PTR _this$[ebp]
  00045	83 c1 04	 add	 ecx, 4
; File C:\Program Files (x86)\Microsoft Visual Studio\2019\Community\VC\Tools\MSVC\14.28.29333\include\vector

; 673  :         _Tidy();

  00048	e8 00 00 00 00	 call	 ?_Tidy@?$vector@PAVCNullDecorator@NEffectUpdateDecorator@@V?$allocator@PAVCNullDecorator@NEffectUpdateDecorator@@@std@@@std@@AAEXXZ ; std::vector<NEffectUpdateDecorator::CNullDecorator *,std::allocator<NEffectUpdateDecorator::CNullDecorator *> >::_Tidy
; File D:\Metin2 Server Files\mainline\SRC_2014\Metin2Client\eterLib\Pool.h

; 142  : 		}

  0004d	8b 4d f4	 mov	 ecx, DWORD PTR __$EHRec$[ebp]
  00050	64 89 0d 00 00
	00 00		 mov	 DWORD PTR fs:0, ecx
  00057	59		 pop	 ecx
  00058	c9		 leave
  00059	c3		 ret	 0
  0005a	cc		 int	 3
  0005b	cc		 int	 3
  0005c	cc		 int	 3
  0005d	cc		 int	 3
  0005e	cc		 int	 3
_TEXT	ENDS
;	COMDAT text$x
text$x	SEGMENT
__ehhandler$??1?$CDynamicPoolEx@VCNullDecorator@NEffectUpdateDecorator@@@@UAE@XZ:
  00000	90		 npad	 1
  00001	90		 npad	 1
  00002	8b 54 24 08	 mov	 edx, DWORD PTR [esp+8]
  00006	8d 42 0c	 lea	 eax, DWORD PTR [edx+12]
  00009	8b 4a f8	 mov	 ecx, DWORD PTR [edx-8]
  0000c	33 c8		 xor	 ecx, eax
  0000e	e8 00 00 00 00	 call	 @__security_check_cookie@4
  00013	b8 00 00 00 00	 mov	 eax, OFFSET __ehfuncinfo$??1?$CDynamicPoolEx@VCNullDecorator@NEffectUpdateDecorator@@@@UAE@XZ
  00018	e9 00 00 00 00	 jmp	 ___CxxFrameHandler3
text$x	ENDS
??1?$CDynamicPoolEx@VCNullDecorator@NEffectUpdateDecorator@@@@UAE@XZ ENDP ; CDynamicPoolEx<NEffectUpdateDecorator::CNullDecorator>::~CDynamicPoolEx<NEffectUpdateDecorator::CNullDecorator>
; Function compile flags: /Odspy
; File D:\Metin2 Server Files\mainline\SRC_2014\Metin2Client\eterLib\Pool.h
; File C:\Program Files (x86)\Microsoft Visual Studio\2019\Community\VC\Tools\MSVC\14.28.29333\include\vector
; File C:\Program Files (x86)\Microsoft Visual Studio\2019\Community\VC\Tools\MSVC\14.28.29333\include\xmemory
; File C:\Program Files (x86)\Microsoft Visual Studio\2019\Community\VC\Tools\MSVC\14.28.29333\include\vector
; File D:\Metin2 Server Files\mainline\SRC_2014\Metin2Client\eterLib\Pool.h
; File C:\Program Files (x86)\Microsoft Visual Studio\2019\Community\VC\Tools\MSVC\14.28.29333\include\vector
; File C:\Program Files (x86)\Microsoft Visual Studio\2019\Community\VC\Tools\MSVC\14.28.29333\include\xmemory
; File C:\Program Files (x86)\Microsoft Visual Studio\2019\Community\VC\Tools\MSVC\14.28.29333\include\vector
; File D:\Metin2 Server Files\mainline\SRC_2014\Metin2Client\eterLib\Pool.h
;	COMDAT ??0?$CDynamicPoolEx@VCNullDecorator@NEffectUpdateDecorator@@@@QAE@XZ
_TEXT	SEGMENT
_this$ = -28						; size = 4
_this$ = -24						; size = 4
_this$ = -20						; size = 4
_this$ = -16						; size = 4
_this$1 = -12						; size = 4
_this$2 = -8						; size = 4
_this$ = -4						; size = 4
??0?$CDynamicPoolEx@VCNullDecorator@NEffectUpdateDecorator@@@@QAE@XZ PROC ; CDynamicPoolEx<NEffectUpdateDecorator::CNullDecorator>::CDynamicPoolEx<NEffectUpdateDecorator::CNullDecorator>, COMDAT
; _this$ = ecx

; 126  : 		CDynamicPoolEx()

  00000	55		 push	 ebp
  00001	8b ec		 mov	 ebp, esp
  00003	83 ec 1c	 sub	 esp, 28			; 0000001cH
  00006	89 4d fc	 mov	 DWORD PTR _this$[ebp], ecx

; 127  : 		{

  00009	8b 45 fc	 mov	 eax, DWORD PTR _this$[ebp]
  0000c	c7 00 00 00 00
	00		 mov	 DWORD PTR [eax], OFFSET ??_7?$CDynamicPoolEx@VCNullDecorator@NEffectUpdateDecorator@@@@6B@
  00012	8b 45 fc	 mov	 eax, DWORD PTR _this$[ebp]
  00015	83 c0 04	 add	 eax, 4
  00018	89 45 f0	 mov	 DWORD PTR _this$[ebp], eax
; File C:\Program Files (x86)\Microsoft Visual Studio\2019\Community\VC\Tools\MSVC\14.28.29333\include\vector

; 445  :     vector() noexcept(is_nothrow_default_constructible_v<_Alty>) : _Mypair(_Zero_then_variadic_args_t{}) {

  0001b	8b 45 f0	 mov	 eax, DWORD PTR _this$[ebp]
  0001e	89 45 ec	 mov	 DWORD PTR _this$[ebp], eax
; File C:\Program Files (x86)\Microsoft Visual Studio\2019\Community\VC\Tools\MSVC\14.28.29333\include\xmemory

; 1339 :         : _Ty1(), _Myval2(_STD forward<_Other2>(_Val2)...) {}

  00021	8b 45 ec	 mov	 eax, DWORD PTR _this$[ebp]
  00024	89 45 f8	 mov	 DWORD PTR _this$2[ebp], eax
; File C:\Program Files (x86)\Microsoft Visual Studio\2019\Community\VC\Tools\MSVC\14.28.29333\include\vector

; 375  :     _Vector_val() noexcept : _Myfirst(), _Mylast(), _Myend() {}

  00027	8b 45 f8	 mov	 eax, DWORD PTR _this$2[ebp]
  0002a	83 20 00	 and	 DWORD PTR [eax], 0
  0002d	8b 45 f8	 mov	 eax, DWORD PTR _this$2[ebp]
  00030	83 60 04 00	 and	 DWORD PTR [eax+4], 0
  00034	8b 45 f8	 mov	 eax, DWORD PTR _this$2[ebp]
  00037	83 60 08 00	 and	 DWORD PTR [eax+8], 0
; File D:\Metin2 Server Files\mainline\SRC_2014\Metin2Client\eterLib\Pool.h

; 127  : 		{

  0003b	8b 45 fc	 mov	 eax, DWORD PTR _this$[ebp]
  0003e	83 c0 10	 add	 eax, 16			; 00000010H
  00041	89 45 e8	 mov	 DWORD PTR _this$[ebp], eax
; File C:\Program Files (x86)\Microsoft Visual Studio\2019\Community\VC\Tools\MSVC\14.28.29333\include\vector

; 445  :     vector() noexcept(is_nothrow_default_constructible_v<_Alty>) : _Mypair(_Zero_then_variadic_args_t{}) {

  00044	8b 45 e8	 mov	 eax, DWORD PTR _this$[ebp]
  00047	89 45 e4	 mov	 DWORD PTR _this$[ebp], eax
; File C:\Program Files (x86)\Microsoft Visual Studio\2019\Community\VC\Tools\MSVC\14.28.29333\include\xmemory

; 1339 :         : _Ty1(), _Myval2(_STD forward<_Other2>(_Val2)...) {}

  0004a	8b 45 e4	 mov	 eax, DWORD PTR _this$[ebp]
  0004d	89 45 f4	 mov	 DWORD PTR _this$1[ebp], eax
; File C:\Program Files (x86)\Microsoft Visual Studio\2019\Community\VC\Tools\MSVC\14.28.29333\include\vector

; 375  :     _Vector_val() noexcept : _Myfirst(), _Mylast(), _Myend() {}

  00050	8b 45 f4	 mov	 eax, DWORD PTR _this$1[ebp]
  00053	83 20 00	 and	 DWORD PTR [eax], 0
  00056	8b 45 f4	 mov	 eax, DWORD PTR _this$1[ebp]
  00059	83 60 04 00	 and	 DWORD PTR [eax+4], 0
  0005d	8b 45 f4	 mov	 eax, DWORD PTR _this$1[ebp]
  00060	83 60 08 00	 and	 DWORD PTR [eax+8], 0
; File D:\Metin2 Server Files\mainline\SRC_2014\Metin2Client\eterLib\Pool.h

; 128  : 			m_uInitCapacity=0;

  00064	8b 45 fc	 mov	 eax, DWORD PTR _this$[ebp]
  00067	83 60 1c 00	 and	 DWORD PTR [eax+28], 0

; 129  : 			m_uUsedCapacity=0;

  0006b	8b 45 fc	 mov	 eax, DWORD PTR _this$[ebp]
  0006e	83 60 20 00	 and	 DWORD PTR [eax+32], 0

; 130  : 		}

  00072	8b 45 fc	 mov	 eax, DWORD PTR _this$[ebp]
  00075	c9		 leave
  00076	c3		 ret	 0
??0?$CDynamicPoolEx@VCNullDecorator@NEffectUpdateDecorator@@@@QAE@XZ ENDP ; CDynamicPoolEx<NEffectUpdateDecorator::CNullDecorator>::CDynamicPoolEx<NEffectUpdateDecorator::CNullDecorator>
_TEXT	ENDS
; Function compile flags: /Odspy
;	COMDAT ??_G?$CDynamicPoolEx@VCTextureAnimationCWDecorator@NEffectUpdateDecorator@@@@UAEPAXI@Z
_TEXT	SEGMENT
_this$ = -4						; size = 4
___flags$ = 8						; size = 4
??_G?$CDynamicPoolEx@VCTextureAnimationCWDecorator@NEffectUpdateDecorator@@@@UAEPAXI@Z PROC ; CDynamicPoolEx<NEffectUpdateDecorator::CTextureAnimationCWDecorator>::`scalar deleting destructor', COMDAT
; _this$ = ecx
  00000	55		 push	 ebp
  00001	8b ec		 mov	 ebp, esp
  00003	51		 push	 ecx
  00004	89 4d fc	 mov	 DWORD PTR _this$[ebp], ecx
  00007	8b 4d fc	 mov	 ecx, DWORD PTR _this$[ebp]
  0000a	e8 00 00 00 00	 call	 ??1?$CDynamicPoolEx@VCTextureAnimationCWDecorator@NEffectUpdateDecorator@@@@UAE@XZ ; CDynamicPoolEx<NEffectUpdateDecorator::CTextureAnimationCWDecorator>::~CDynamicPoolEx<NEffectUpdateDecorator::CTextureAnimationCWDecorator>
  0000f	8b 45 08	 mov	 eax, DWORD PTR ___flags$[ebp]
  00012	83 e0 01	 and	 eax, 1
  00015	74 0c		 je	 SHORT $LN2@scalar
  00017	6a 24		 push	 36			; 00000024H
  00019	ff 75 fc	 push	 DWORD PTR _this$[ebp]
  0001c	e8 00 00 00 00	 call	 ??3@YAXPAXI@Z		; operator delete
  00021	59		 pop	 ecx
  00022	59		 pop	 ecx
$LN2@scalar:
  00023	8b 45 fc	 mov	 eax, DWORD PTR _this$[ebp]
  00026	c9		 leave
  00027	c2 04 00	 ret	 4
??_G?$CDynamicPoolEx@VCTextureAnimationCWDecorator@NEffectUpdateDecorator@@@@UAEPAXI@Z ENDP ; CDynamicPoolEx<NEffectUpdateDecorator::CTextureAnimationCWDecorator>::`scalar deleting destructor'
_TEXT	ENDS
; Function compile flags: /Odspy
; File C:\Program Files (x86)\Microsoft Visual Studio\2019\Community\VC\Tools\MSVC\14.28.29333\include\vector
; File C:\Program Files (x86)\Microsoft Visual Studio\2019\Community\VC\Tools\MSVC\14.28.29333\include\xmemory
; File C:\Program Files (x86)\Microsoft Visual Studio\2019\Community\VC\Tools\MSVC\14.28.29333\include\vector
; File C:\Program Files (x86)\Microsoft Visual Studio\2019\Community\VC\Tools\MSVC\14.28.29333\include\xmemory
; File C:\Program Files (x86)\Microsoft Visual Studio\2019\Community\VC\Tools\MSVC\14.28.29333\include\vector
; File C:\Program Files (x86)\Microsoft Visual Studio\2019\Community\VC\Tools\MSVC\14.28.29333\include\xmemory
; File C:\Program Files (x86)\Microsoft Visual Studio\2019\Community\VC\Tools\MSVC\14.28.29333\include\vector
;	COMDAT ?_Tidy@?$vector@PAVCTextureAnimationCWDecorator@NEffectUpdateDecorator@@V?$allocator@PAVCTextureAnimationCWDecorator@NEffectUpdateDecorator@@@std@@@std@@AAEXXZ
_TEXT	SEGMENT
$T1 = -52						; size = 4
__Ptr$ = -48						; size = 4
__Count$ = -44						; size = 4
$T2 = -40						; size = 4
__First$ = -36						; size = 4
__Last$ = -32						; size = 4
$T3 = -28						; size = 4
$T4 = -24						; size = 4
__Myend$ = -20						; size = 4
__Mylast$ = -16						; size = 4
_this$ = -12						; size = 4
__My_data$ = -8						; size = 4
__Myfirst$ = -4						; size = 4
?_Tidy@?$vector@PAVCTextureAnimationCWDecorator@NEffectUpdateDecorator@@V?$allocator@PAVCTextureAnimationCWDecorator@NEffectUpdateDecorator@@@std@@@std@@AAEXXZ PROC ; std::vector<NEffectUpdateDecorator::CTextureAnimationCWDecorator *,std::allocator<NEffectUpdateDecorator::CTextureAnimationCWDecorator *> >::_Tidy, COMDAT
; _this$ = ecx

; 1686 :     void _Tidy() noexcept { // free all storage

  00000	55		 push	 ebp
  00001	8b ec		 mov	 ebp, esp
  00003	83 ec 34	 sub	 esp, 52			; 00000034H
  00006	89 4d f4	 mov	 DWORD PTR _this$[ebp], ecx

; 1687 :         auto& _My_data    = _Mypair._Myval2;

  00009	8b 45 f4	 mov	 eax, DWORD PTR _this$[ebp]
  0000c	89 45 f8	 mov	 DWORD PTR __My_data$[ebp], eax

; 1688 :         pointer& _Myfirst = _My_data._Myfirst;

  0000f	8b 45 f8	 mov	 eax, DWORD PTR __My_data$[ebp]
  00012	89 45 fc	 mov	 DWORD PTR __Myfirst$[ebp], eax

; 1689 :         pointer& _Mylast  = _My_data._Mylast;

  00015	8b 45 f8	 mov	 eax, DWORD PTR __My_data$[ebp]
  00018	83 c0 04	 add	 eax, 4
  0001b	89 45 f0	 mov	 DWORD PTR __Mylast$[ebp], eax

; 1690 :         pointer& _Myend   = _My_data._Myend;

  0001e	8b 45 f8	 mov	 eax, DWORD PTR __My_data$[ebp]
  00021	83 c0 08	 add	 eax, 8
  00024	89 45 ec	 mov	 DWORD PTR __Myend$[ebp], eax

; 1691 : 
; 1692 :         _My_data._Orphan_all();
; 1693 : 
; 1694 :         if (_Myfirst) { // destroy and deallocate old array

  00027	8b 45 fc	 mov	 eax, DWORD PTR __Myfirst$[ebp]
  0002a	83 38 00	 cmp	 DWORD PTR [eax], 0
  0002d	74 74		 je	 SHORT $LN3@Tidy

; 1695 :             _Destroy(_Myfirst, _Mylast);

  0002f	8b 45 f0	 mov	 eax, DWORD PTR __Mylast$[ebp]
  00032	8b 00		 mov	 eax, DWORD PTR [eax]
  00034	89 45 e0	 mov	 DWORD PTR __Last$[ebp], eax
  00037	8b 45 fc	 mov	 eax, DWORD PTR __Myfirst$[ebp]
  0003a	8b 00		 mov	 eax, DWORD PTR [eax]
  0003c	89 45 dc	 mov	 DWORD PTR __First$[ebp], eax

; 1733 :         return _Mypair._Get_first();

  0003f	8b 45 f4	 mov	 eax, DWORD PTR _this$[ebp]
; File C:\Program Files (x86)\Microsoft Visual Studio\2019\Community\VC\Tools\MSVC\14.28.29333\include\xmemory

; 1347 :         return *this;

  00042	89 45 e8	 mov	 DWORD PTR $T4[ebp], eax
; File C:\Program Files (x86)\Microsoft Visual Studio\2019\Community\VC\Tools\MSVC\14.28.29333\include\vector

; 1733 :         return _Mypair._Get_first();

  00045	8b 45 e8	 mov	 eax, DWORD PTR $T4[ebp]
  00048	89 45 e4	 mov	 DWORD PTR $T3[ebp], eax

; 1612 :         _Destroy_range(_First, _Last, _Getal());

  0004b	ff 75 e4	 push	 DWORD PTR $T3[ebp]
  0004e	ff 75 e0	 push	 DWORD PTR __Last$[ebp]
  00051	ff 75 dc	 push	 DWORD PTR __First$[ebp]
  00054	e8 00 00 00 00	 call	 ??$_Destroy_range@V?$allocator@PAVCTextureAnimationCWDecorator@NEffectUpdateDecorator@@@std@@@std@@YAXPAPAVCTextureAnimationCWDecorator@NEffectUpdateDecorator@@QAPAV12@AAV?$allocator@PAVCTextureAnimationCWDecorator@NEffectUpdateDecorator@@@0@@Z ; std::_Destroy_range<std::allocator<NEffectUpdateDecorator::CTextureAnimationCWDecorator *> >
  00059	83 c4 0c	 add	 esp, 12			; 0000000cH

; 1733 :         return _Mypair._Get_first();

  0005c	8b 45 f4	 mov	 eax, DWORD PTR _this$[ebp]
; File C:\Program Files (x86)\Microsoft Visual Studio\2019\Community\VC\Tools\MSVC\14.28.29333\include\xmemory

; 1347 :         return *this;

  0005f	89 45 d8	 mov	 DWORD PTR $T2[ebp], eax
; File C:\Program Files (x86)\Microsoft Visual Studio\2019\Community\VC\Tools\MSVC\14.28.29333\include\vector

; 1733 :         return _Mypair._Get_first();

  00062	8b 45 d8	 mov	 eax, DWORD PTR $T2[ebp]
  00065	89 45 cc	 mov	 DWORD PTR $T1[ebp], eax

; 1696 :             _Getal().deallocate(_Myfirst, static_cast<size_type>(_Myend - _Myfirst));

  00068	8b 45 ec	 mov	 eax, DWORD PTR __Myend$[ebp]
  0006b	8b 4d fc	 mov	 ecx, DWORD PTR __Myfirst$[ebp]
  0006e	8b 00		 mov	 eax, DWORD PTR [eax]
  00070	2b 01		 sub	 eax, DWORD PTR [ecx]
  00072	c1 f8 02	 sar	 eax, 2
  00075	89 45 d4	 mov	 DWORD PTR __Count$[ebp], eax
  00078	8b 45 fc	 mov	 eax, DWORD PTR __Myfirst$[ebp]
  0007b	8b 00		 mov	 eax, DWORD PTR [eax]
  0007d	89 45 d0	 mov	 DWORD PTR __Ptr$[ebp], eax
; File C:\Program Files (x86)\Microsoft Visual Studio\2019\Community\VC\Tools\MSVC\14.28.29333\include\xmemory

; 810  :         _Deallocate<_New_alignof<_Ty>>(_Ptr, sizeof(_Ty) * _Count);

  00080	8b 45 d4	 mov	 eax, DWORD PTR __Count$[ebp]
  00083	c1 e0 02	 shl	 eax, 2
  00086	50		 push	 eax
  00087	ff 75 d0	 push	 DWORD PTR __Ptr$[ebp]
  0008a	e8 00 00 00 00	 call	 ??$_Deallocate@$07$0A@@std@@YAXPAXI@Z ; std::_Deallocate<8,0>
  0008f	59		 pop	 ecx
  00090	59		 pop	 ecx
; File C:\Program Files (x86)\Microsoft Visual Studio\2019\Community\VC\Tools\MSVC\14.28.29333\include\vector

; 1698 :             _Myfirst = pointer();

  00091	8b 45 fc	 mov	 eax, DWORD PTR __Myfirst$[ebp]
  00094	83 20 00	 and	 DWORD PTR [eax], 0

; 1699 :             _Mylast  = pointer();

  00097	8b 45 f0	 mov	 eax, DWORD PTR __Mylast$[ebp]
  0009a	83 20 00	 and	 DWORD PTR [eax], 0

; 1700 :             _Myend   = pointer();

  0009d	8b 45 ec	 mov	 eax, DWORD PTR __Myend$[ebp]
  000a0	83 20 00	 and	 DWORD PTR [eax], 0
$LN3@Tidy:

; 1701 :         }
; 1702 :     }

  000a3	c9		 leave
  000a4	c3		 ret	 0
?_Tidy@?$vector@PAVCTextureAnimationCWDecorator@NEffectUpdateDecorator@@V?$allocator@PAVCTextureAnimationCWDecorator@NEffectUpdateDecorator@@@std@@@std@@AAEXXZ ENDP ; std::vector<NEffectUpdateDecorator::CTextureAnimationCWDecorator *,std::allocator<NEffectUpdateDecorator::CTextureAnimationCWDecorator *> >::_Tidy
_TEXT	ENDS
; Function compile flags: /Odspy
; File C:\Program Files (x86)\Microsoft Visual Studio\2019\Community\VC\Tools\MSVC\14.28.29333\include\vector
; File C:\Program Files (x86)\Microsoft Visual Studio\2019\Community\VC\Tools\MSVC\14.28.29333\include\xmemory
; File C:\Program Files (x86)\Microsoft Visual Studio\2019\Community\VC\Tools\MSVC\14.28.29333\include\vector
;	COMDAT ?clear@?$vector@PAVCTextureAnimationCWDecorator@NEffectUpdateDecorator@@V?$allocator@PAVCTextureAnimationCWDecorator@NEffectUpdateDecorator@@@std@@@std@@QAEXXZ
_TEXT	SEGMENT
__First$ = -32						; size = 4
__Last$ = -28						; size = 4
$T1 = -24						; size = 4
$T2 = -20						; size = 4
__Myfirst$ = -16					; size = 4
__Mylast$ = -12						; size = 4
_this$ = -8						; size = 4
__My_data$ = -4						; size = 4
?clear@?$vector@PAVCTextureAnimationCWDecorator@NEffectUpdateDecorator@@V?$allocator@PAVCTextureAnimationCWDecorator@NEffectUpdateDecorator@@@std@@@std@@QAEXXZ PROC ; std::vector<NEffectUpdateDecorator::CTextureAnimationCWDecorator *,std::allocator<NEffectUpdateDecorator::CTextureAnimationCWDecorator *> >::clear, COMDAT
; _this$ = ecx

; 1383 :     void clear() noexcept { // erase all

  00000	55		 push	 ebp
  00001	8b ec		 mov	 ebp, esp
  00003	83 ec 20	 sub	 esp, 32			; 00000020H
  00006	89 4d f8	 mov	 DWORD PTR _this$[ebp], ecx

; 1384 :         auto& _My_data    = _Mypair._Myval2;

  00009	8b 45 f8	 mov	 eax, DWORD PTR _this$[ebp]
  0000c	89 45 fc	 mov	 DWORD PTR __My_data$[ebp], eax

; 1385 :         pointer& _Myfirst = _My_data._Myfirst;

  0000f	8b 45 fc	 mov	 eax, DWORD PTR __My_data$[ebp]
  00012	89 45 f0	 mov	 DWORD PTR __Myfirst$[ebp], eax

; 1386 :         pointer& _Mylast  = _My_data._Mylast;

  00015	8b 45 fc	 mov	 eax, DWORD PTR __My_data$[ebp]
  00018	83 c0 04	 add	 eax, 4
  0001b	89 45 f4	 mov	 DWORD PTR __Mylast$[ebp], eax

; 1387 : 
; 1388 :         _My_data._Orphan_all();
; 1389 :         _Destroy(_Myfirst, _Mylast);

  0001e	8b 45 f4	 mov	 eax, DWORD PTR __Mylast$[ebp]
  00021	8b 00		 mov	 eax, DWORD PTR [eax]
  00023	89 45 e4	 mov	 DWORD PTR __Last$[ebp], eax
  00026	8b 45 f0	 mov	 eax, DWORD PTR __Myfirst$[ebp]
  00029	8b 00		 mov	 eax, DWORD PTR [eax]
  0002b	89 45 e0	 mov	 DWORD PTR __First$[ebp], eax

; 1733 :         return _Mypair._Get_first();

  0002e	8b 45 f8	 mov	 eax, DWORD PTR _this$[ebp]
; File C:\Program Files (x86)\Microsoft Visual Studio\2019\Community\VC\Tools\MSVC\14.28.29333\include\xmemory

; 1347 :         return *this;

  00031	89 45 ec	 mov	 DWORD PTR $T2[ebp], eax
; File C:\Program Files (x86)\Microsoft Visual Studio\2019\Community\VC\Tools\MSVC\14.28.29333\include\vector

; 1733 :         return _Mypair._Get_first();

  00034	8b 45 ec	 mov	 eax, DWORD PTR $T2[ebp]
  00037	89 45 e8	 mov	 DWORD PTR $T1[ebp], eax

; 1612 :         _Destroy_range(_First, _Last, _Getal());

  0003a	ff 75 e8	 push	 DWORD PTR $T1[ebp]
  0003d	ff 75 e4	 push	 DWORD PTR __Last$[ebp]
  00040	ff 75 e0	 push	 DWORD PTR __First$[ebp]
  00043	e8 00 00 00 00	 call	 ??$_Destroy_range@V?$allocator@PAVCTextureAnimationCWDecorator@NEffectUpdateDecorator@@@std@@@std@@YAXPAPAVCTextureAnimationCWDecorator@NEffectUpdateDecorator@@QAPAV12@AAV?$allocator@PAVCTextureAnimationCWDecorator@NEffectUpdateDecorator@@@0@@Z ; std::_Destroy_range<std::allocator<NEffectUpdateDecorator::CTextureAnimationCWDecorator *> >
  00048	83 c4 0c	 add	 esp, 12			; 0000000cH

; 1390 :         _Mylast = _Myfirst;

  0004b	8b 45 f4	 mov	 eax, DWORD PTR __Mylast$[ebp]
  0004e	8b 4d f0	 mov	 ecx, DWORD PTR __Myfirst$[ebp]
  00051	8b 09		 mov	 ecx, DWORD PTR [ecx]
  00053	89 08		 mov	 DWORD PTR [eax], ecx

; 1391 :     }

  00055	c9		 leave
  00056	c3		 ret	 0
?clear@?$vector@PAVCTextureAnimationCWDecorator@NEffectUpdateDecorator@@V?$allocator@PAVCTextureAnimationCWDecorator@NEffectUpdateDecorator@@@std@@@std@@QAEXXZ ENDP ; std::vector<NEffectUpdateDecorator::CTextureAnimationCWDecorator *,std::allocator<NEffectUpdateDecorator::CTextureAnimationCWDecorator *> >::clear
_TEXT	ENDS
; Function compile flags: /Odspy
; File D:\Metin2 Server Files\mainline\SRC_2014\Metin2Client\eterLib\Pool.h
;	COMDAT ?Delete@?$CDynamicPoolEx@VCTextureAnimationCWDecorator@NEffectUpdateDecorator@@@@KAXPAVCTextureAnimationCWDecorator@NEffectUpdateDecorator@@@Z
_TEXT	SEGMENT
_pkData$ = 8						; size = 4
?Delete@?$CDynamicPoolEx@VCTextureAnimationCWDecorator@NEffectUpdateDecorator@@@@KAXPAVCTextureAnimationCWDecorator@NEffectUpdateDecorator@@@Z PROC ; CDynamicPoolEx<NEffectUpdateDecorator::CTextureAnimationCWDecorator>::Delete, COMDAT

; 223  : 		{

  00000	55		 push	 ebp
  00001	8b ec		 mov	 ebp, esp

; 224  : 			::operator delete(pkData);

  00003	ff 75 08	 push	 DWORD PTR _pkData$[ebp]
  00006	e8 00 00 00 00	 call	 ??3@YAXPAX@Z		; operator delete
  0000b	59		 pop	 ecx

; 225  : 		}

  0000c	5d		 pop	 ebp
  0000d	c3		 ret	 0
?Delete@?$CDynamicPoolEx@VCTextureAnimationCWDecorator@NEffectUpdateDecorator@@@@KAXPAVCTextureAnimationCWDecorator@NEffectUpdateDecorator@@@Z ENDP ; CDynamicPoolEx<NEffectUpdateDecorator::CTextureAnimationCWDecorator>::Delete
_TEXT	ENDS
; Function compile flags: /Odspy
; File D:\Metin2 Server Files\mainline\SRC_2014\Metin2Client\eterLib\Pool.h
; File C:\Program Files (x86)\Microsoft Visual Studio\2019\Community\VC\Tools\MSVC\14.28.29333\include\vector
; File C:\Program Files (x86)\Microsoft Visual Studio\2019\Community\VC\Tools\MSVC\14.28.29333\include\xstddef
; File C:\Program Files (x86)\Microsoft Visual Studio\2019\Community\VC\Tools\MSVC\14.28.29333\include\vector
; File C:\Program Files (x86)\Microsoft Visual Studio\2019\Community\VC\Tools\MSVC\14.28.29333\include\xstddef
; File C:\Program Files (x86)\Microsoft Visual Studio\2019\Community\VC\Tools\MSVC\14.28.29333\include\vector
; File D:\Metin2 Server Files\mainline\SRC_2014\Metin2Client\eterLib\Pool.h
;	COMDAT ?Destroy@?$CDynamicPoolEx@VCTextureAnimationCWDecorator@NEffectUpdateDecorator@@@@QAEXXZ
_TEXT	SEGMENT
$T1 = -44						; size = 4
$T2 = -40						; size = 4
$T3 = -36						; size = 4
$T4 = -32						; size = 4
$T5 = -28						; size = 4
___param0$ = -24					; size = 4
$T6 = -20						; size = 4
___param0$ = -16					; size = 4
__My_data$7 = -12					; size = 4
__My_data$8 = -8					; size = 4
_this$ = -4						; size = 4
?Destroy@?$CDynamicPoolEx@VCTextureAnimationCWDecorator@NEffectUpdateDecorator@@@@QAEXXZ PROC ; CDynamicPoolEx<NEffectUpdateDecorator::CTextureAnimationCWDecorator>::Destroy, COMDAT
; _this$ = ecx

; 150  : 		{

  00000	55		 push	 ebp
  00001	8b ec		 mov	 ebp, esp
  00003	83 ec 2c	 sub	 esp, 44			; 0000002cH
  00006	89 4d fc	 mov	 DWORD PTR _this$[ebp], ecx
; File C:\Program Files (x86)\Microsoft Visual Studio\2019\Community\VC\Tools\MSVC\14.28.29333\include\vector

; 1420 :         auto& _My_data = _Mypair._Myval2;

  00009	8b 45 fc	 mov	 eax, DWORD PTR _this$[ebp]
  0000c	83 c0 04	 add	 eax, 4
  0000f	89 45 f8	 mov	 DWORD PTR __My_data$8[ebp], eax
; File C:\Program Files (x86)\Microsoft Visual Studio\2019\Community\VC\Tools\MSVC\14.28.29333\include\xstddef

; 275  :     return __builtin_addressof(_Val);

  00012	8b 45 f8	 mov	 eax, DWORD PTR __My_data$8[ebp]
  00015	89 45 d8	 mov	 DWORD PTR $T2[ebp], eax
; File C:\Program Files (x86)\Microsoft Visual Studio\2019\Community\VC\Tools\MSVC\14.28.29333\include\vector

; 1421 :         return iterator(_My_data._Mylast, _STD addressof(_My_data));

  00018	8b 45 f8	 mov	 eax, DWORD PTR __My_data$8[ebp]
  0001b	8b 40 04	 mov	 eax, DWORD PTR [eax+4]
  0001e	89 45 f0	 mov	 DWORD PTR ___param0$[ebp], eax

; 42   :     _Vector_const_iterator(_Tptr _Parg, const _Container_base* _Pvector) noexcept : _Ptr(_Parg) {

  00021	8b 45 f0	 mov	 eax, DWORD PTR ___param0$[ebp]
  00024	89 45 ec	 mov	 DWORD PTR $T6[ebp], eax

; 1421 :         return iterator(_My_data._Mylast, _STD addressof(_My_data));

  00027	8d 45 ec	 lea	 eax, DWORD PTR $T6[ebp]
  0002a	89 45 e0	 mov	 DWORD PTR $T4[ebp], eax

; 1410 :         auto& _My_data = _Mypair._Myval2;

  0002d	8b 45 fc	 mov	 eax, DWORD PTR _this$[ebp]
  00030	83 c0 04	 add	 eax, 4
  00033	89 45 f4	 mov	 DWORD PTR __My_data$7[ebp], eax
; File C:\Program Files (x86)\Microsoft Visual Studio\2019\Community\VC\Tools\MSVC\14.28.29333\include\xstddef

; 275  :     return __builtin_addressof(_Val);

  00036	8b 45 f4	 mov	 eax, DWORD PTR __My_data$7[ebp]
  00039	89 45 d4	 mov	 DWORD PTR $T1[ebp], eax
; File C:\Program Files (x86)\Microsoft Visual Studio\2019\Community\VC\Tools\MSVC\14.28.29333\include\vector

; 1411 :         return iterator(_My_data._Myfirst, _STD addressof(_My_data));

  0003c	8b 45 f4	 mov	 eax, DWORD PTR __My_data$7[ebp]
  0003f	8b 00		 mov	 eax, DWORD PTR [eax]
  00041	89 45 e8	 mov	 DWORD PTR ___param0$[ebp], eax

; 42   :     _Vector_const_iterator(_Tptr _Parg, const _Container_base* _Pvector) noexcept : _Ptr(_Parg) {

  00044	8b 45 e8	 mov	 eax, DWORD PTR ___param0$[ebp]
  00047	89 45 e4	 mov	 DWORD PTR $T5[ebp], eax

; 1411 :         return iterator(_My_data._Myfirst, _STD addressof(_My_data));

  0004a	8d 45 e4	 lea	 eax, DWORD PTR $T5[ebp]
  0004d	89 45 dc	 mov	 DWORD PTR $T3[ebp], eax
; File D:\Metin2 Server Files\mainline\SRC_2014\Metin2Client\eterLib\Pool.h

; 160  : 			std::for_each(m_kVct_pkData.begin(), m_kVct_pkData.end(), Delete);

  00050	68 00 00 00 00	 push	 OFFSET ?Delete@?$CDynamicPoolEx@VCTextureAnimationCWDecorator@NEffectUpdateDecorator@@@@KAXPAVCTextureAnimationCWDecorator@NEffectUpdateDecorator@@@Z ; CDynamicPoolEx<NEffectUpdateDecorator::CTextureAnimationCWDecorator>::Delete
  00055	8b 45 e0	 mov	 eax, DWORD PTR $T4[ebp]
  00058	ff 30		 push	 DWORD PTR [eax]
  0005a	8b 45 dc	 mov	 eax, DWORD PTR $T3[ebp]
  0005d	ff 30		 push	 DWORD PTR [eax]
  0005f	e8 00 00 00 00	 call	 ??$for_each@V?$_Vector_iterator@V?$_Vector_val@U?$_Simple_types@PAVCTextureAnimationCWDecorator@NEffectUpdateDecorator@@@std@@@std@@@std@@P6AXPAVCTextureAnimationCWDecorator@NEffectUpdateDecorator@@@Z@std@@YAP6AXPAVCTextureAnimationCWDecorator@NEffectUpdateDecorator@@@ZV?$_Vector_iterator@V?$_Vector_val@U?$_Simple_types@PAVCTextureAnimationCWDecorator@NEffectUpdateDecorator@@@std@@@std@@@0@1P6AX0@Z@Z ; std::for_each<std::_Vector_iterator<std::_Vector_val<std::_Simple_types<NEffectUpdateDecorator::CTextureAnimationCWDecorator *> > >,void (__cdecl*)(NEffectUpdateDecorator::CTextureAnimationCWDecorator *)>
  00064	83 c4 0c	 add	 esp, 12			; 0000000cH

; 161  : 			m_kVct_pkData.clear();

  00067	8b 4d fc	 mov	 ecx, DWORD PTR _this$[ebp]
  0006a	83 c1 04	 add	 ecx, 4
  0006d	e8 00 00 00 00	 call	 ?clear@?$vector@PAVCTextureAnimationCWDecorator@NEffectUpdateDecorator@@V?$allocator@PAVCTextureAnimationCWDecorator@NEffectUpdateDecorator@@@std@@@std@@QAEXXZ ; std::vector<NEffectUpdateDecorator::CTextureAnimationCWDecorator *,std::allocator<NEffectUpdateDecorator::CTextureAnimationCWDecorator *> >::clear

; 162  : 			m_kVct_pkFree.clear();

  00072	8b 4d fc	 mov	 ecx, DWORD PTR _this$[ebp]
  00075	83 c1 10	 add	 ecx, 16			; 00000010H
  00078	e8 00 00 00 00	 call	 ?clear@?$vector@PAVCTextureAnimationCWDecorator@NEffectUpdateDecorator@@V?$allocator@PAVCTextureAnimationCWDecorator@NEffectUpdateDecorator@@@std@@@std@@QAEXXZ ; std::vector<NEffectUpdateDecorator::CTextureAnimationCWDecorator *,std::allocator<NEffectUpdateDecorator::CTextureAnimationCWDecorator *> >::clear

; 163  : 		}

  0007d	c9		 leave
  0007e	c3		 ret	 0
?Destroy@?$CDynamicPoolEx@VCTextureAnimationCWDecorator@NEffectUpdateDecorator@@@@QAEXXZ ENDP ; CDynamicPoolEx<NEffectUpdateDecorator::CTextureAnimationCWDecorator>::Destroy
_TEXT	ENDS
; Function compile flags: /Odspy
; File D:\Metin2 Server Files\mainline\SRC_2014\Metin2Client\eterLib\Pool.h
; File C:\Program Files (x86)\Microsoft Visual Studio\2019\Community\VC\Tools\MSVC\14.28.29333\include\vector
; File D:\Metin2 Server Files\mainline\SRC_2014\Metin2Client\eterLib\Pool.h
; File C:\Program Files (x86)\Microsoft Visual Studio\2019\Community\VC\Tools\MSVC\14.28.29333\include\vector
; File D:\Metin2 Server Files\mainline\SRC_2014\Metin2Client\eterLib\Pool.h
;	COMDAT ??1?$CDynamicPoolEx@VCTextureAnimationCWDecorator@NEffectUpdateDecorator@@@@UAE@XZ
_TEXT	SEGMENT
_this$ = -16						; size = 4
__$EHRec$ = -12						; size = 12
??1?$CDynamicPoolEx@VCTextureAnimationCWDecorator@NEffectUpdateDecorator@@@@UAE@XZ PROC ; CDynamicPoolEx<NEffectUpdateDecorator::CTextureAnimationCWDecorator>::~CDynamicPoolEx<NEffectUpdateDecorator::CTextureAnimationCWDecorator>, COMDAT
; _this$ = ecx

; 132  : 		{

  00000	55		 push	 ebp
  00001	8b ec		 mov	 ebp, esp
  00003	6a ff		 push	 -1
  00005	68 00 00 00 00	 push	 __ehhandler$??1?$CDynamicPoolEx@VCTextureAnimationCWDecorator@NEffectUpdateDecorator@@@@UAE@XZ
  0000a	64 a1 00 00 00
	00		 mov	 eax, DWORD PTR fs:0
  00010	50		 push	 eax
  00011	51		 push	 ecx
  00012	a1 00 00 00 00	 mov	 eax, DWORD PTR ___security_cookie
  00017	33 c5		 xor	 eax, ebp
  00019	50		 push	 eax
  0001a	8d 45 f4	 lea	 eax, DWORD PTR __$EHRec$[ebp]
  0001d	64 a3 00 00 00
	00		 mov	 DWORD PTR fs:0, eax
  00023	89 4d f0	 mov	 DWORD PTR _this$[ebp], ecx
  00026	8b 45 f0	 mov	 eax, DWORD PTR _this$[ebp]
  00029	c7 00 00 00 00
	00		 mov	 DWORD PTR [eax], OFFSET ??_7?$CDynamicPoolEx@VCTextureAnimationCWDecorator@NEffectUpdateDecorator@@@@6B@

; 133  : 			assert(m_kVct_pkFree.size()==m_kVct_pkData.size());
; 134  : 			Destroy();

  0002f	8b 4d f0	 mov	 ecx, DWORD PTR _this$[ebp]
  00032	e8 00 00 00 00	 call	 ?Destroy@?$CDynamicPoolEx@VCTextureAnimationCWDecorator@NEffectUpdateDecorator@@@@QAEXXZ ; CDynamicPoolEx<NEffectUpdateDecorator::CTextureAnimationCWDecorator>::Destroy

; 142  : 		}

  00037	8b 4d f0	 mov	 ecx, DWORD PTR _this$[ebp]
  0003a	83 c1 10	 add	 ecx, 16			; 00000010H
; File C:\Program Files (x86)\Microsoft Visual Studio\2019\Community\VC\Tools\MSVC\14.28.29333\include\vector

; 673  :         _Tidy();

  0003d	e8 00 00 00 00	 call	 ?_Tidy@?$vector@PAVCTextureAnimationCWDecorator@NEffectUpdateDecorator@@V?$allocator@PAVCTextureAnimationCWDecorator@NEffectUpdateDecorator@@@std@@@std@@AAEXXZ ; std::vector<NEffectUpdateDecorator::CTextureAnimationCWDecorator *,std::allocator<NEffectUpdateDecorator::CTextureAnimationCWDecorator *> >::_Tidy
; File D:\Metin2 Server Files\mainline\SRC_2014\Metin2Client\eterLib\Pool.h

; 142  : 		}

  00042	8b 4d f0	 mov	 ecx, DWORD PTR _this$[ebp]
  00045	83 c1 04	 add	 ecx, 4
; File C:\Program Files (x86)\Microsoft Visual Studio\2019\Community\VC\Tools\MSVC\14.28.29333\include\vector

; 673  :         _Tidy();

  00048	e8 00 00 00 00	 call	 ?_Tidy@?$vector@PAVCTextureAnimationCWDecorator@NEffectUpdateDecorator@@V?$allocator@PAVCTextureAnimationCWDecorator@NEffectUpdateDecorator@@@std@@@std@@AAEXXZ ; std::vector<NEffectUpdateDecorator::CTextureAnimationCWDecorator *,std::allocator<NEffectUpdateDecorator::CTextureAnimationCWDecorator *> >::_Tidy
; File D:\Metin2 Server Files\mainline\SRC_2014\Metin2Client\eterLib\Pool.h

; 142  : 		}

  0004d	8b 4d f4	 mov	 ecx, DWORD PTR __$EHRec$[ebp]
  00050	64 89 0d 00 00
	00 00		 mov	 DWORD PTR fs:0, ecx
  00057	59		 pop	 ecx
  00058	c9		 leave
  00059	c3		 ret	 0
  0005a	cc		 int	 3
  0005b	cc		 int	 3
  0005c	cc		 int	 3
  0005d	cc		 int	 3
  0005e	cc		 int	 3
_TEXT	ENDS
;	COMDAT text$x
text$x	SEGMENT
__ehhandler$??1?$CDynamicPoolEx@VCTextureAnimationCWDecorator@NEffectUpdateDecorator@@@@UAE@XZ:
  00000	90		 npad	 1
  00001	90		 npad	 1
  00002	8b 54 24 08	 mov	 edx, DWORD PTR [esp+8]
  00006	8d 42 0c	 lea	 eax, DWORD PTR [edx+12]
  00009	8b 4a f8	 mov	 ecx, DWORD PTR [edx-8]
  0000c	33 c8		 xor	 ecx, eax
  0000e	e8 00 00 00 00	 call	 @__security_check_cookie@4
  00013	b8 00 00 00 00	 mov	 eax, OFFSET __ehfuncinfo$??1?$CDynamicPoolEx@VCTextureAnimationCWDecorator@NEffectUpdateDecorator@@@@UAE@XZ
  00018	e9 00 00 00 00	 jmp	 ___CxxFrameHandler3
text$x	ENDS
??1?$CDynamicPoolEx@VCTextureAnimationCWDecorator@NEffectUpdateDecorator@@@@UAE@XZ ENDP ; CDynamicPoolEx<NEffectUpdateDecorator::CTextureAnimationCWDecorator>::~CDynamicPoolEx<NEffectUpdateDecorator::CTextureAnimationCWDecorator>
; Function compile flags: /Odspy
; File D:\Metin2 Server Files\mainline\SRC_2014\Metin2Client\eterLib\Pool.h
; File C:\Program Files (x86)\Microsoft Visual Studio\2019\Community\VC\Tools\MSVC\14.28.29333\include\vector
; File C:\Program Files (x86)\Microsoft Visual Studio\2019\Community\VC\Tools\MSVC\14.28.29333\include\xmemory
; File C:\Program Files (x86)\Microsoft Visual Studio\2019\Community\VC\Tools\MSVC\14.28.29333\include\vector
; File D:\Metin2 Server Files\mainline\SRC_2014\Metin2Client\eterLib\Pool.h
; File C:\Program Files (x86)\Microsoft Visual Studio\2019\Community\VC\Tools\MSVC\14.28.29333\include\vector
; File C:\Program Files (x86)\Microsoft Visual Studio\2019\Community\VC\Tools\MSVC\14.28.29333\include\xmemory
; File C:\Program Files (x86)\Microsoft Visual Studio\2019\Community\VC\Tools\MSVC\14.28.29333\include\vector
; File D:\Metin2 Server Files\mainline\SRC_2014\Metin2Client\eterLib\Pool.h
;	COMDAT ??0?$CDynamicPoolEx@VCTextureAnimationCWDecorator@NEffectUpdateDecorator@@@@QAE@XZ
_TEXT	SEGMENT
_this$ = -28						; size = 4
_this$ = -24						; size = 4
_this$ = -20						; size = 4
_this$ = -16						; size = 4
_this$1 = -12						; size = 4
_this$2 = -8						; size = 4
_this$ = -4						; size = 4
??0?$CDynamicPoolEx@VCTextureAnimationCWDecorator@NEffectUpdateDecorator@@@@QAE@XZ PROC ; CDynamicPoolEx<NEffectUpdateDecorator::CTextureAnimationCWDecorator>::CDynamicPoolEx<NEffectUpdateDecorator::CTextureAnimationCWDecorator>, COMDAT
; _this$ = ecx

; 126  : 		CDynamicPoolEx()

  00000	55		 push	 ebp
  00001	8b ec		 mov	 ebp, esp
  00003	83 ec 1c	 sub	 esp, 28			; 0000001cH
  00006	89 4d fc	 mov	 DWORD PTR _this$[ebp], ecx

; 127  : 		{

  00009	8b 45 fc	 mov	 eax, DWORD PTR _this$[ebp]
  0000c	c7 00 00 00 00
	00		 mov	 DWORD PTR [eax], OFFSET ??_7?$CDynamicPoolEx@VCTextureAnimationCWDecorator@NEffectUpdateDecorator@@@@6B@
  00012	8b 45 fc	 mov	 eax, DWORD PTR _this$[ebp]
  00015	83 c0 04	 add	 eax, 4
  00018	89 45 f0	 mov	 DWORD PTR _this$[ebp], eax
; File C:\Program Files (x86)\Microsoft Visual Studio\2019\Community\VC\Tools\MSVC\14.28.29333\include\vector

; 445  :     vector() noexcept(is_nothrow_default_constructible_v<_Alty>) : _Mypair(_Zero_then_variadic_args_t{}) {

  0001b	8b 45 f0	 mov	 eax, DWORD PTR _this$[ebp]
  0001e	89 45 ec	 mov	 DWORD PTR _this$[ebp], eax
; File C:\Program Files (x86)\Microsoft Visual Studio\2019\Community\VC\Tools\MSVC\14.28.29333\include\xmemory

; 1339 :         : _Ty1(), _Myval2(_STD forward<_Other2>(_Val2)...) {}

  00021	8b 45 ec	 mov	 eax, DWORD PTR _this$[ebp]
  00024	89 45 f8	 mov	 DWORD PTR _this$2[ebp], eax
; File C:\Program Files (x86)\Microsoft Visual Studio\2019\Community\VC\Tools\MSVC\14.28.29333\include\vector

; 375  :     _Vector_val() noexcept : _Myfirst(), _Mylast(), _Myend() {}

  00027	8b 45 f8	 mov	 eax, DWORD PTR _this$2[ebp]
  0002a	83 20 00	 and	 DWORD PTR [eax], 0
  0002d	8b 45 f8	 mov	 eax, DWORD PTR _this$2[ebp]
  00030	83 60 04 00	 and	 DWORD PTR [eax+4], 0
  00034	8b 45 f8	 mov	 eax, DWORD PTR _this$2[ebp]
  00037	83 60 08 00	 and	 DWORD PTR [eax+8], 0
; File D:\Metin2 Server Files\mainline\SRC_2014\Metin2Client\eterLib\Pool.h

; 127  : 		{

  0003b	8b 45 fc	 mov	 eax, DWORD PTR _this$[ebp]
  0003e	83 c0 10	 add	 eax, 16			; 00000010H
  00041	89 45 e8	 mov	 DWORD PTR _this$[ebp], eax
; File C:\Program Files (x86)\Microsoft Visual Studio\2019\Community\VC\Tools\MSVC\14.28.29333\include\vector

; 445  :     vector() noexcept(is_nothrow_default_constructible_v<_Alty>) : _Mypair(_Zero_then_variadic_args_t{}) {

  00044	8b 45 e8	 mov	 eax, DWORD PTR _this$[ebp]
  00047	89 45 e4	 mov	 DWORD PTR _this$[ebp], eax
; File C:\Program Files (x86)\Microsoft Visual Studio\2019\Community\VC\Tools\MSVC\14.28.29333\include\xmemory

; 1339 :         : _Ty1(), _Myval2(_STD forward<_Other2>(_Val2)...) {}

  0004a	8b 45 e4	 mov	 eax, DWORD PTR _this$[ebp]
  0004d	89 45 f4	 mov	 DWORD PTR _this$1[ebp], eax
; File C:\Program Files (x86)\Microsoft Visual Studio\2019\Community\VC\Tools\MSVC\14.28.29333\include\vector

; 375  :     _Vector_val() noexcept : _Myfirst(), _Mylast(), _Myend() {}

  00050	8b 45 f4	 mov	 eax, DWORD PTR _this$1[ebp]
  00053	83 20 00	 and	 DWORD PTR [eax], 0
  00056	8b 45 f4	 mov	 eax, DWORD PTR _this$1[ebp]
  00059	83 60 04 00	 and	 DWORD PTR [eax+4], 0
  0005d	8b 45 f4	 mov	 eax, DWORD PTR _this$1[ebp]
  00060	83 60 08 00	 and	 DWORD PTR [eax+8], 0
; File D:\Metin2 Server Files\mainline\SRC_2014\Metin2Client\eterLib\Pool.h

; 128  : 			m_uInitCapacity=0;

  00064	8b 45 fc	 mov	 eax, DWORD PTR _this$[ebp]
  00067	83 60 1c 00	 and	 DWORD PTR [eax+28], 0

; 129  : 			m_uUsedCapacity=0;

  0006b	8b 45 fc	 mov	 eax, DWORD PTR _this$[ebp]
  0006e	83 60 20 00	 and	 DWORD PTR [eax+32], 0

; 130  : 		}

  00072	8b 45 fc	 mov	 eax, DWORD PTR _this$[ebp]
  00075	c9		 leave
  00076	c3		 ret	 0
??0?$CDynamicPoolEx@VCTextureAnimationCWDecorator@NEffectUpdateDecorator@@@@QAE@XZ ENDP ; CDynamicPoolEx<NEffectUpdateDecorator::CTextureAnimationCWDecorator>::CDynamicPoolEx<NEffectUpdateDecorator::CTextureAnimationCWDecorator>
_TEXT	ENDS
; Function compile flags: /Odspy
;	COMDAT ??_G?$CDynamicPoolEx@VCTextureAnimationCCWDecorator@NEffectUpdateDecorator@@@@UAEPAXI@Z
_TEXT	SEGMENT
_this$ = -4						; size = 4
___flags$ = 8						; size = 4
??_G?$CDynamicPoolEx@VCTextureAnimationCCWDecorator@NEffectUpdateDecorator@@@@UAEPAXI@Z PROC ; CDynamicPoolEx<NEffectUpdateDecorator::CTextureAnimationCCWDecorator>::`scalar deleting destructor', COMDAT
; _this$ = ecx
  00000	55		 push	 ebp
  00001	8b ec		 mov	 ebp, esp
  00003	51		 push	 ecx
  00004	89 4d fc	 mov	 DWORD PTR _this$[ebp], ecx
  00007	8b 4d fc	 mov	 ecx, DWORD PTR _this$[ebp]
  0000a	e8 00 00 00 00	 call	 ??1?$CDynamicPoolEx@VCTextureAnimationCCWDecorator@NEffectUpdateDecorator@@@@UAE@XZ ; CDynamicPoolEx<NEffectUpdateDecorator::CTextureAnimationCCWDecorator>::~CDynamicPoolEx<NEffectUpdateDecorator::CTextureAnimationCCWDecorator>
  0000f	8b 45 08	 mov	 eax, DWORD PTR ___flags$[ebp]
  00012	83 e0 01	 and	 eax, 1
  00015	74 0c		 je	 SHORT $LN2@scalar
  00017	6a 24		 push	 36			; 00000024H
  00019	ff 75 fc	 push	 DWORD PTR _this$[ebp]
  0001c	e8 00 00 00 00	 call	 ??3@YAXPAXI@Z		; operator delete
  00021	59		 pop	 ecx
  00022	59		 pop	 ecx
$LN2@scalar:
  00023	8b 45 fc	 mov	 eax, DWORD PTR _this$[ebp]
  00026	c9		 leave
  00027	c2 04 00	 ret	 4
??_G?$CDynamicPoolEx@VCTextureAnimationCCWDecorator@NEffectUpdateDecorator@@@@UAEPAXI@Z ENDP ; CDynamicPoolEx<NEffectUpdateDecorator::CTextureAnimationCCWDecorator>::`scalar deleting destructor'
_TEXT	ENDS
; Function compile flags: /Odspy
; File C:\Program Files (x86)\Microsoft Visual Studio\2019\Community\VC\Tools\MSVC\14.28.29333\include\vector
; File C:\Program Files (x86)\Microsoft Visual Studio\2019\Community\VC\Tools\MSVC\14.28.29333\include\xmemory
; File C:\Program Files (x86)\Microsoft Visual Studio\2019\Community\VC\Tools\MSVC\14.28.29333\include\vector
; File C:\Program Files (x86)\Microsoft Visual Studio\2019\Community\VC\Tools\MSVC\14.28.29333\include\xmemory
; File C:\Program Files (x86)\Microsoft Visual Studio\2019\Community\VC\Tools\MSVC\14.28.29333\include\vector
; File C:\Program Files (x86)\Microsoft Visual Studio\2019\Community\VC\Tools\MSVC\14.28.29333\include\xmemory
; File C:\Program Files (x86)\Microsoft Visual Studio\2019\Community\VC\Tools\MSVC\14.28.29333\include\vector
;	COMDAT ?_Tidy@?$vector@PAVCTextureAnimationCCWDecorator@NEffectUpdateDecorator@@V?$allocator@PAVCTextureAnimationCCWDecorator@NEffectUpdateDecorator@@@std@@@std@@AAEXXZ
_TEXT	SEGMENT
$T1 = -52						; size = 4
__Ptr$ = -48						; size = 4
__Count$ = -44						; size = 4
$T2 = -40						; size = 4
__First$ = -36						; size = 4
__Last$ = -32						; size = 4
$T3 = -28						; size = 4
$T4 = -24						; size = 4
__Myend$ = -20						; size = 4
__Mylast$ = -16						; size = 4
_this$ = -12						; size = 4
__My_data$ = -8						; size = 4
__Myfirst$ = -4						; size = 4
?_Tidy@?$vector@PAVCTextureAnimationCCWDecorator@NEffectUpdateDecorator@@V?$allocator@PAVCTextureAnimationCCWDecorator@NEffectUpdateDecorator@@@std@@@std@@AAEXXZ PROC ; std::vector<NEffectUpdateDecorator::CTextureAnimationCCWDecorator *,std::allocator<NEffectUpdateDecorator::CTextureAnimationCCWDecorator *> >::_Tidy, COMDAT
; _this$ = ecx

; 1686 :     void _Tidy() noexcept { // free all storage

  00000	55		 push	 ebp
  00001	8b ec		 mov	 ebp, esp
  00003	83 ec 34	 sub	 esp, 52			; 00000034H
  00006	89 4d f4	 mov	 DWORD PTR _this$[ebp], ecx

; 1687 :         auto& _My_data    = _Mypair._Myval2;

  00009	8b 45 f4	 mov	 eax, DWORD PTR _this$[ebp]
  0000c	89 45 f8	 mov	 DWORD PTR __My_data$[ebp], eax

; 1688 :         pointer& _Myfirst = _My_data._Myfirst;

  0000f	8b 45 f8	 mov	 eax, DWORD PTR __My_data$[ebp]
  00012	89 45 fc	 mov	 DWORD PTR __Myfirst$[ebp], eax

; 1689 :         pointer& _Mylast  = _My_data._Mylast;

  00015	8b 45 f8	 mov	 eax, DWORD PTR __My_data$[ebp]
  00018	83 c0 04	 add	 eax, 4
  0001b	89 45 f0	 mov	 DWORD PTR __Mylast$[ebp], eax

; 1690 :         pointer& _Myend   = _My_data._Myend;

  0001e	8b 45 f8	 mov	 eax, DWORD PTR __My_data$[ebp]
  00021	83 c0 08	 add	 eax, 8
  00024	89 45 ec	 mov	 DWORD PTR __Myend$[ebp], eax

; 1691 : 
; 1692 :         _My_data._Orphan_all();
; 1693 : 
; 1694 :         if (_Myfirst) { // destroy and deallocate old array

  00027	8b 45 fc	 mov	 eax, DWORD PTR __Myfirst$[ebp]
  0002a	83 38 00	 cmp	 DWORD PTR [eax], 0
  0002d	74 74		 je	 SHORT $LN3@Tidy

; 1695 :             _Destroy(_Myfirst, _Mylast);

  0002f	8b 45 f0	 mov	 eax, DWORD PTR __Mylast$[ebp]
  00032	8b 00		 mov	 eax, DWORD PTR [eax]
  00034	89 45 e0	 mov	 DWORD PTR __Last$[ebp], eax
  00037	8b 45 fc	 mov	 eax, DWORD PTR __Myfirst$[ebp]
  0003a	8b 00		 mov	 eax, DWORD PTR [eax]
  0003c	89 45 dc	 mov	 DWORD PTR __First$[ebp], eax

; 1733 :         return _Mypair._Get_first();

  0003f	8b 45 f4	 mov	 eax, DWORD PTR _this$[ebp]
; File C:\Program Files (x86)\Microsoft Visual Studio\2019\Community\VC\Tools\MSVC\14.28.29333\include\xmemory

; 1347 :         return *this;

  00042	89 45 e8	 mov	 DWORD PTR $T4[ebp], eax
; File C:\Program Files (x86)\Microsoft Visual Studio\2019\Community\VC\Tools\MSVC\14.28.29333\include\vector

; 1733 :         return _Mypair._Get_first();

  00045	8b 45 e8	 mov	 eax, DWORD PTR $T4[ebp]
  00048	89 45 e4	 mov	 DWORD PTR $T3[ebp], eax

; 1612 :         _Destroy_range(_First, _Last, _Getal());

  0004b	ff 75 e4	 push	 DWORD PTR $T3[ebp]
  0004e	ff 75 e0	 push	 DWORD PTR __Last$[ebp]
  00051	ff 75 dc	 push	 DWORD PTR __First$[ebp]
  00054	e8 00 00 00 00	 call	 ??$_Destroy_range@V?$allocator@PAVCTextureAnimationCCWDecorator@NEffectUpdateDecorator@@@std@@@std@@YAXPAPAVCTextureAnimationCCWDecorator@NEffectUpdateDecorator@@QAPAV12@AAV?$allocator@PAVCTextureAnimationCCWDecorator@NEffectUpdateDecorator@@@0@@Z ; std::_Destroy_range<std::allocator<NEffectUpdateDecorator::CTextureAnimationCCWDecorator *> >
  00059	83 c4 0c	 add	 esp, 12			; 0000000cH

; 1733 :         return _Mypair._Get_first();

  0005c	8b 45 f4	 mov	 eax, DWORD PTR _this$[ebp]
; File C:\Program Files (x86)\Microsoft Visual Studio\2019\Community\VC\Tools\MSVC\14.28.29333\include\xmemory

; 1347 :         return *this;

  0005f	89 45 d8	 mov	 DWORD PTR $T2[ebp], eax
; File C:\Program Files (x86)\Microsoft Visual Studio\2019\Community\VC\Tools\MSVC\14.28.29333\include\vector

; 1733 :         return _Mypair._Get_first();

  00062	8b 45 d8	 mov	 eax, DWORD PTR $T2[ebp]
  00065	89 45 cc	 mov	 DWORD PTR $T1[ebp], eax

; 1696 :             _Getal().deallocate(_Myfirst, static_cast<size_type>(_Myend - _Myfirst));

  00068	8b 45 ec	 mov	 eax, DWORD PTR __Myend$[ebp]
  0006b	8b 4d fc	 mov	 ecx, DWORD PTR __Myfirst$[ebp]
  0006e	8b 00		 mov	 eax, DWORD PTR [eax]
  00070	2b 01		 sub	 eax, DWORD PTR [ecx]
  00072	c1 f8 02	 sar	 eax, 2
  00075	89 45 d4	 mov	 DWORD PTR __Count$[ebp], eax
  00078	8b 45 fc	 mov	 eax, DWORD PTR __Myfirst$[ebp]
  0007b	8b 00		 mov	 eax, DWORD PTR [eax]
  0007d	89 45 d0	 mov	 DWORD PTR __Ptr$[ebp], eax
; File C:\Program Files (x86)\Microsoft Visual Studio\2019\Community\VC\Tools\MSVC\14.28.29333\include\xmemory

; 810  :         _Deallocate<_New_alignof<_Ty>>(_Ptr, sizeof(_Ty) * _Count);

  00080	8b 45 d4	 mov	 eax, DWORD PTR __Count$[ebp]
  00083	c1 e0 02	 shl	 eax, 2
  00086	50		 push	 eax
  00087	ff 75 d0	 push	 DWORD PTR __Ptr$[ebp]
  0008a	e8 00 00 00 00	 call	 ??$_Deallocate@$07$0A@@std@@YAXPAXI@Z ; std::_Deallocate<8,0>
  0008f	59		 pop	 ecx
  00090	59		 pop	 ecx
; File C:\Program Files (x86)\Microsoft Visual Studio\2019\Community\VC\Tools\MSVC\14.28.29333\include\vector

; 1698 :             _Myfirst = pointer();

  00091	8b 45 fc	 mov	 eax, DWORD PTR __Myfirst$[ebp]
  00094	83 20 00	 and	 DWORD PTR [eax], 0

; 1699 :             _Mylast  = pointer();

  00097	8b 45 f0	 mov	 eax, DWORD PTR __Mylast$[ebp]
  0009a	83 20 00	 and	 DWORD PTR [eax], 0

; 1700 :             _Myend   = pointer();

  0009d	8b 45 ec	 mov	 eax, DWORD PTR __Myend$[ebp]
  000a0	83 20 00	 and	 DWORD PTR [eax], 0
$LN3@Tidy:

; 1701 :         }
; 1702 :     }

  000a3	c9		 leave
  000a4	c3		 ret	 0
?_Tidy@?$vector@PAVCTextureAnimationCCWDecorator@NEffectUpdateDecorator@@V?$allocator@PAVCTextureAnimationCCWDecorator@NEffectUpdateDecorator@@@std@@@std@@AAEXXZ ENDP ; std::vector<NEffectUpdateDecorator::CTextureAnimationCCWDecorator *,std::allocator<NEffectUpdateDecorator::CTextureAnimationCCWDecorator *> >::_Tidy
_TEXT	ENDS
; Function compile flags: /Odspy
; File C:\Program Files (x86)\Microsoft Visual Studio\2019\Community\VC\Tools\MSVC\14.28.29333\include\vector
; File C:\Program Files (x86)\Microsoft Visual Studio\2019\Community\VC\Tools\MSVC\14.28.29333\include\xmemory
; File C:\Program Files (x86)\Microsoft Visual Studio\2019\Community\VC\Tools\MSVC\14.28.29333\include\vector
;	COMDAT ?clear@?$vector@PAVCTextureAnimationCCWDecorator@NEffectUpdateDecorator@@V?$allocator@PAVCTextureAnimationCCWDecorator@NEffectUpdateDecorator@@@std@@@std@@QAEXXZ
_TEXT	SEGMENT
__First$ = -32						; size = 4
__Last$ = -28						; size = 4
$T1 = -24						; size = 4
$T2 = -20						; size = 4
__Myfirst$ = -16					; size = 4
__Mylast$ = -12						; size = 4
_this$ = -8						; size = 4
__My_data$ = -4						; size = 4
?clear@?$vector@PAVCTextureAnimationCCWDecorator@NEffectUpdateDecorator@@V?$allocator@PAVCTextureAnimationCCWDecorator@NEffectUpdateDecorator@@@std@@@std@@QAEXXZ PROC ; std::vector<NEffectUpdateDecorator::CTextureAnimationCCWDecorator *,std::allocator<NEffectUpdateDecorator::CTextureAnimationCCWDecorator *> >::clear, COMDAT
; _this$ = ecx

; 1383 :     void clear() noexcept { // erase all

  00000	55		 push	 ebp
  00001	8b ec		 mov	 ebp, esp
  00003	83 ec 20	 sub	 esp, 32			; 00000020H
  00006	89 4d f8	 mov	 DWORD PTR _this$[ebp], ecx

; 1384 :         auto& _My_data    = _Mypair._Myval2;

  00009	8b 45 f8	 mov	 eax, DWORD PTR _this$[ebp]
  0000c	89 45 fc	 mov	 DWORD PTR __My_data$[ebp], eax

; 1385 :         pointer& _Myfirst = _My_data._Myfirst;

  0000f	8b 45 fc	 mov	 eax, DWORD PTR __My_data$[ebp]
  00012	89 45 f0	 mov	 DWORD PTR __Myfirst$[ebp], eax

; 1386 :         pointer& _Mylast  = _My_data._Mylast;

  00015	8b 45 fc	 mov	 eax, DWORD PTR __My_data$[ebp]
  00018	83 c0 04	 add	 eax, 4
  0001b	89 45 f4	 mov	 DWORD PTR __Mylast$[ebp], eax

; 1387 : 
; 1388 :         _My_data._Orphan_all();
; 1389 :         _Destroy(_Myfirst, _Mylast);

  0001e	8b 45 f4	 mov	 eax, DWORD PTR __Mylast$[ebp]
  00021	8b 00		 mov	 eax, DWORD PTR [eax]
  00023	89 45 e4	 mov	 DWORD PTR __Last$[ebp], eax
  00026	8b 45 f0	 mov	 eax, DWORD PTR __Myfirst$[ebp]
  00029	8b 00		 mov	 eax, DWORD PTR [eax]
  0002b	89 45 e0	 mov	 DWORD PTR __First$[ebp], eax

; 1733 :         return _Mypair._Get_first();

  0002e	8b 45 f8	 mov	 eax, DWORD PTR _this$[ebp]
; File C:\Program Files (x86)\Microsoft Visual Studio\2019\Community\VC\Tools\MSVC\14.28.29333\include\xmemory

; 1347 :         return *this;

  00031	89 45 ec	 mov	 DWORD PTR $T2[ebp], eax
; File C:\Program Files (x86)\Microsoft Visual Studio\2019\Community\VC\Tools\MSVC\14.28.29333\include\vector

; 1733 :         return _Mypair._Get_first();

  00034	8b 45 ec	 mov	 eax, DWORD PTR $T2[ebp]
  00037	89 45 e8	 mov	 DWORD PTR $T1[ebp], eax

; 1612 :         _Destroy_range(_First, _Last, _Getal());

  0003a	ff 75 e8	 push	 DWORD PTR $T1[ebp]
  0003d	ff 75 e4	 push	 DWORD PTR __Last$[ebp]
  00040	ff 75 e0	 push	 DWORD PTR __First$[ebp]
  00043	e8 00 00 00 00	 call	 ??$_Destroy_range@V?$allocator@PAVCTextureAnimationCCWDecorator@NEffectUpdateDecorator@@@std@@@std@@YAXPAPAVCTextureAnimationCCWDecorator@NEffectUpdateDecorator@@QAPAV12@AAV?$allocator@PAVCTextureAnimationCCWDecorator@NEffectUpdateDecorator@@@0@@Z ; std::_Destroy_range<std::allocator<NEffectUpdateDecorator::CTextureAnimationCCWDecorator *> >
  00048	83 c4 0c	 add	 esp, 12			; 0000000cH

; 1390 :         _Mylast = _Myfirst;

  0004b	8b 45 f4	 mov	 eax, DWORD PTR __Mylast$[ebp]
  0004e	8b 4d f0	 mov	 ecx, DWORD PTR __Myfirst$[ebp]
  00051	8b 09		 mov	 ecx, DWORD PTR [ecx]
  00053	89 08		 mov	 DWORD PTR [eax], ecx

; 1391 :     }

  00055	c9		 leave
  00056	c3		 ret	 0
?clear@?$vector@PAVCTextureAnimationCCWDecorator@NEffectUpdateDecorator@@V?$allocator@PAVCTextureAnimationCCWDecorator@NEffectUpdateDecorator@@@std@@@std@@QAEXXZ ENDP ; std::vector<NEffectUpdateDecorator::CTextureAnimationCCWDecorator *,std::allocator<NEffectUpdateDecorator::CTextureAnimationCCWDecorator *> >::clear
_TEXT	ENDS
; Function compile flags: /Odspy
; File D:\Metin2 Server Files\mainline\SRC_2014\Metin2Client\eterLib\Pool.h
;	COMDAT ?Delete@?$CDynamicPoolEx@VCTextureAnimationCCWDecorator@NEffectUpdateDecorator@@@@KAXPAVCTextureAnimationCCWDecorator@NEffectUpdateDecorator@@@Z
_TEXT	SEGMENT
_pkData$ = 8						; size = 4
?Delete@?$CDynamicPoolEx@VCTextureAnimationCCWDecorator@NEffectUpdateDecorator@@@@KAXPAVCTextureAnimationCCWDecorator@NEffectUpdateDecorator@@@Z PROC ; CDynamicPoolEx<NEffectUpdateDecorator::CTextureAnimationCCWDecorator>::Delete, COMDAT

; 223  : 		{

  00000	55		 push	 ebp
  00001	8b ec		 mov	 ebp, esp

; 224  : 			::operator delete(pkData);

  00003	ff 75 08	 push	 DWORD PTR _pkData$[ebp]
  00006	e8 00 00 00 00	 call	 ??3@YAXPAX@Z		; operator delete
  0000b	59		 pop	 ecx

; 225  : 		}

  0000c	5d		 pop	 ebp
  0000d	c3		 ret	 0
?Delete@?$CDynamicPoolEx@VCTextureAnimationCCWDecorator@NEffectUpdateDecorator@@@@KAXPAVCTextureAnimationCCWDecorator@NEffectUpdateDecorator@@@Z ENDP ; CDynamicPoolEx<NEffectUpdateDecorator::CTextureAnimationCCWDecorator>::Delete
_TEXT	ENDS
; Function compile flags: /Odspy
; File D:\Metin2 Server Files\mainline\SRC_2014\Metin2Client\eterLib\Pool.h
; File C:\Program Files (x86)\Microsoft Visual Studio\2019\Community\VC\Tools\MSVC\14.28.29333\include\vector
; File C:\Program Files (x86)\Microsoft Visual Studio\2019\Community\VC\Tools\MSVC\14.28.29333\include\xstddef
; File C:\Program Files (x86)\Microsoft Visual Studio\2019\Community\VC\Tools\MSVC\14.28.29333\include\vector
; File C:\Program Files (x86)\Microsoft Visual Studio\2019\Community\VC\Tools\MSVC\14.28.29333\include\xstddef
; File C:\Program Files (x86)\Microsoft Visual Studio\2019\Community\VC\Tools\MSVC\14.28.29333\include\vector
; File D:\Metin2 Server Files\mainline\SRC_2014\Metin2Client\eterLib\Pool.h
;	COMDAT ?Destroy@?$CDynamicPoolEx@VCTextureAnimationCCWDecorator@NEffectUpdateDecorator@@@@QAEXXZ
_TEXT	SEGMENT
$T1 = -44						; size = 4
$T2 = -40						; size = 4
$T3 = -36						; size = 4
$T4 = -32						; size = 4
$T5 = -28						; size = 4
___param0$ = -24					; size = 4
$T6 = -20						; size = 4
___param0$ = -16					; size = 4
__My_data$7 = -12					; size = 4
__My_data$8 = -8					; size = 4
_this$ = -4						; size = 4
?Destroy@?$CDynamicPoolEx@VCTextureAnimationCCWDecorator@NEffectUpdateDecorator@@@@QAEXXZ PROC ; CDynamicPoolEx<NEffectUpdateDecorator::CTextureAnimationCCWDecorator>::Destroy, COMDAT
; _this$ = ecx

; 150  : 		{

  00000	55		 push	 ebp
  00001	8b ec		 mov	 ebp, esp
  00003	83 ec 2c	 sub	 esp, 44			; 0000002cH
  00006	89 4d fc	 mov	 DWORD PTR _this$[ebp], ecx
; File C:\Program Files (x86)\Microsoft Visual Studio\2019\Community\VC\Tools\MSVC\14.28.29333\include\vector

; 1420 :         auto& _My_data = _Mypair._Myval2;

  00009	8b 45 fc	 mov	 eax, DWORD PTR _this$[ebp]
  0000c	83 c0 04	 add	 eax, 4
  0000f	89 45 f8	 mov	 DWORD PTR __My_data$8[ebp], eax
; File C:\Program Files (x86)\Microsoft Visual Studio\2019\Community\VC\Tools\MSVC\14.28.29333\include\xstddef

; 275  :     return __builtin_addressof(_Val);

  00012	8b 45 f8	 mov	 eax, DWORD PTR __My_data$8[ebp]
  00015	89 45 d8	 mov	 DWORD PTR $T2[ebp], eax
; File C:\Program Files (x86)\Microsoft Visual Studio\2019\Community\VC\Tools\MSVC\14.28.29333\include\vector

; 1421 :         return iterator(_My_data._Mylast, _STD addressof(_My_data));

  00018	8b 45 f8	 mov	 eax, DWORD PTR __My_data$8[ebp]
  0001b	8b 40 04	 mov	 eax, DWORD PTR [eax+4]
  0001e	89 45 f0	 mov	 DWORD PTR ___param0$[ebp], eax

; 42   :     _Vector_const_iterator(_Tptr _Parg, const _Container_base* _Pvector) noexcept : _Ptr(_Parg) {

  00021	8b 45 f0	 mov	 eax, DWORD PTR ___param0$[ebp]
  00024	89 45 ec	 mov	 DWORD PTR $T6[ebp], eax

; 1421 :         return iterator(_My_data._Mylast, _STD addressof(_My_data));

  00027	8d 45 ec	 lea	 eax, DWORD PTR $T6[ebp]
  0002a	89 45 e0	 mov	 DWORD PTR $T4[ebp], eax

; 1410 :         auto& _My_data = _Mypair._Myval2;

  0002d	8b 45 fc	 mov	 eax, DWORD PTR _this$[ebp]
  00030	83 c0 04	 add	 eax, 4
  00033	89 45 f4	 mov	 DWORD PTR __My_data$7[ebp], eax
; File C:\Program Files (x86)\Microsoft Visual Studio\2019\Community\VC\Tools\MSVC\14.28.29333\include\xstddef

; 275  :     return __builtin_addressof(_Val);

  00036	8b 45 f4	 mov	 eax, DWORD PTR __My_data$7[ebp]
  00039	89 45 d4	 mov	 DWORD PTR $T1[ebp], eax
; File C:\Program Files (x86)\Microsoft Visual Studio\2019\Community\VC\Tools\MSVC\14.28.29333\include\vector

; 1411 :         return iterator(_My_data._Myfirst, _STD addressof(_My_data));

  0003c	8b 45 f4	 mov	 eax, DWORD PTR __My_data$7[ebp]
  0003f	8b 00		 mov	 eax, DWORD PTR [eax]
  00041	89 45 e8	 mov	 DWORD PTR ___param0$[ebp], eax

; 42   :     _Vector_const_iterator(_Tptr _Parg, const _Container_base* _Pvector) noexcept : _Ptr(_Parg) {

  00044	8b 45 e8	 mov	 eax, DWORD PTR ___param0$[ebp]
  00047	89 45 e4	 mov	 DWORD PTR $T5[ebp], eax

; 1411 :         return iterator(_My_data._Myfirst, _STD addressof(_My_data));

  0004a	8d 45 e4	 lea	 eax, DWORD PTR $T5[ebp]
  0004d	89 45 dc	 mov	 DWORD PTR $T3[ebp], eax
; File D:\Metin2 Server Files\mainline\SRC_2014\Metin2Client\eterLib\Pool.h

; 160  : 			std::for_each(m_kVct_pkData.begin(), m_kVct_pkData.end(), Delete);

  00050	68 00 00 00 00	 push	 OFFSET ?Delete@?$CDynamicPoolEx@VCTextureAnimationCCWDecorator@NEffectUpdateDecorator@@@@KAXPAVCTextureAnimationCCWDecorator@NEffectUpdateDecorator@@@Z ; CDynamicPoolEx<NEffectUpdateDecorator::CTextureAnimationCCWDecorator>::Delete
  00055	8b 45 e0	 mov	 eax, DWORD PTR $T4[ebp]
  00058	ff 30		 push	 DWORD PTR [eax]
  0005a	8b 45 dc	 mov	 eax, DWORD PTR $T3[ebp]
  0005d	ff 30		 push	 DWORD PTR [eax]
  0005f	e8 00 00 00 00	 call	 ??$for_each@V?$_Vector_iterator@V?$_Vector_val@U?$_Simple_types@PAVCTextureAnimationCCWDecorator@NEffectUpdateDecorator@@@std@@@std@@@std@@P6AXPAVCTextureAnimationCCWDecorator@NEffectUpdateDecorator@@@Z@std@@YAP6AXPAVCTextureAnimationCCWDecorator@NEffectUpdateDecorator@@@ZV?$_Vector_iterator@V?$_Vector_val@U?$_Simple_types@PAVCTextureAnimationCCWDecorator@NEffectUpdateDecorator@@@std@@@std@@@0@1P6AX0@Z@Z ; std::for_each<std::_Vector_iterator<std::_Vector_val<std::_Simple_types<NEffectUpdateDecorator::CTextureAnimationCCWDecorator *> > >,void (__cdecl*)(NEffectUpdateDecorator::CTextureAnimationCCWDecorator *)>
  00064	83 c4 0c	 add	 esp, 12			; 0000000cH

; 161  : 			m_kVct_pkData.clear();

  00067	8b 4d fc	 mov	 ecx, DWORD PTR _this$[ebp]
  0006a	83 c1 04	 add	 ecx, 4
  0006d	e8 00 00 00 00	 call	 ?clear@?$vector@PAVCTextureAnimationCCWDecorator@NEffectUpdateDecorator@@V?$allocator@PAVCTextureAnimationCCWDecorator@NEffectUpdateDecorator@@@std@@@std@@QAEXXZ ; std::vector<NEffectUpdateDecorator::CTextureAnimationCCWDecorator *,std::allocator<NEffectUpdateDecorator::CTextureAnimationCCWDecorator *> >::clear

; 162  : 			m_kVct_pkFree.clear();

  00072	8b 4d fc	 mov	 ecx, DWORD PTR _this$[ebp]
  00075	83 c1 10	 add	 ecx, 16			; 00000010H
  00078	e8 00 00 00 00	 call	 ?clear@?$vector@PAVCTextureAnimationCCWDecorator@NEffectUpdateDecorator@@V?$allocator@PAVCTextureAnimationCCWDecorator@NEffectUpdateDecorator@@@std@@@std@@QAEXXZ ; std::vector<NEffectUpdateDecorator::CTextureAnimationCCWDecorator *,std::allocator<NEffectUpdateDecorator::CTextureAnimationCCWDecorator *> >::clear

; 163  : 		}

  0007d	c9		 leave
  0007e	c3		 ret	 0
?Destroy@?$CDynamicPoolEx@VCTextureAnimationCCWDecorator@NEffectUpdateDecorator@@@@QAEXXZ ENDP ; CDynamicPoolEx<NEffectUpdateDecorator::CTextureAnimationCCWDecorator>::Destroy
_TEXT	ENDS
; Function compile flags: /Odspy
; File D:\Metin2 Server Files\mainline\SRC_2014\Metin2Client\eterLib\Pool.h
; File C:\Program Files (x86)\Microsoft Visual Studio\2019\Community\VC\Tools\MSVC\14.28.29333\include\vector
; File D:\Metin2 Server Files\mainline\SRC_2014\Metin2Client\eterLib\Pool.h
; File C:\Program Files (x86)\Microsoft Visual Studio\2019\Community\VC\Tools\MSVC\14.28.29333\include\vector
; File D:\Metin2 Server Files\mainline\SRC_2014\Metin2Client\eterLib\Pool.h
;	COMDAT ??1?$CDynamicPoolEx@VCTextureAnimationCCWDecorator@NEffectUpdateDecorator@@@@UAE@XZ
_TEXT	SEGMENT
_this$ = -16						; size = 4
__$EHRec$ = -12						; size = 12
??1?$CDynamicPoolEx@VCTextureAnimationCCWDecorator@NEffectUpdateDecorator@@@@UAE@XZ PROC ; CDynamicPoolEx<NEffectUpdateDecorator::CTextureAnimationCCWDecorator>::~CDynamicPoolEx<NEffectUpdateDecorator::CTextureAnimationCCWDecorator>, COMDAT
; _this$ = ecx

; 132  : 		{

  00000	55		 push	 ebp
  00001	8b ec		 mov	 ebp, esp
  00003	6a ff		 push	 -1
  00005	68 00 00 00 00	 push	 __ehhandler$??1?$CDynamicPoolEx@VCTextureAnimationCCWDecorator@NEffectUpdateDecorator@@@@UAE@XZ
  0000a	64 a1 00 00 00
	00		 mov	 eax, DWORD PTR fs:0
  00010	50		 push	 eax
  00011	51		 push	 ecx
  00012	a1 00 00 00 00	 mov	 eax, DWORD PTR ___security_cookie
  00017	33 c5		 xor	 eax, ebp
  00019	50		 push	 eax
  0001a	8d 45 f4	 lea	 eax, DWORD PTR __$EHRec$[ebp]
  0001d	64 a3 00 00 00
	00		 mov	 DWORD PTR fs:0, eax
  00023	89 4d f0	 mov	 DWORD PTR _this$[ebp], ecx
  00026	8b 45 f0	 mov	 eax, DWORD PTR _this$[ebp]
  00029	c7 00 00 00 00
	00		 mov	 DWORD PTR [eax], OFFSET ??_7?$CDynamicPoolEx@VCTextureAnimationCCWDecorator@NEffectUpdateDecorator@@@@6B@

; 133  : 			assert(m_kVct_pkFree.size()==m_kVct_pkData.size());
; 134  : 			Destroy();

  0002f	8b 4d f0	 mov	 ecx, DWORD PTR _this$[ebp]
  00032	e8 00 00 00 00	 call	 ?Destroy@?$CDynamicPoolEx@VCTextureAnimationCCWDecorator@NEffectUpdateDecorator@@@@QAEXXZ ; CDynamicPoolEx<NEffectUpdateDecorator::CTextureAnimationCCWDecorator>::Destroy

; 142  : 		}

  00037	8b 4d f0	 mov	 ecx, DWORD PTR _this$[ebp]
  0003a	83 c1 10	 add	 ecx, 16			; 00000010H
; File C:\Program Files (x86)\Microsoft Visual Studio\2019\Community\VC\Tools\MSVC\14.28.29333\include\vector

; 673  :         _Tidy();

  0003d	e8 00 00 00 00	 call	 ?_Tidy@?$vector@PAVCTextureAnimationCCWDecorator@NEffectUpdateDecorator@@V?$allocator@PAVCTextureAnimationCCWDecorator@NEffectUpdateDecorator@@@std@@@std@@AAEXXZ ; std::vector<NEffectUpdateDecorator::CTextureAnimationCCWDecorator *,std::allocator<NEffectUpdateDecorator::CTextureAnimationCCWDecorator *> >::_Tidy
; File D:\Metin2 Server Files\mainline\SRC_2014\Metin2Client\eterLib\Pool.h

; 142  : 		}

  00042	8b 4d f0	 mov	 ecx, DWORD PTR _this$[ebp]
  00045	83 c1 04	 add	 ecx, 4
; File C:\Program Files (x86)\Microsoft Visual Studio\2019\Community\VC\Tools\MSVC\14.28.29333\include\vector

; 673  :         _Tidy();

  00048	e8 00 00 00 00	 call	 ?_Tidy@?$vector@PAVCTextureAnimationCCWDecorator@NEffectUpdateDecorator@@V?$allocator@PAVCTextureAnimationCCWDecorator@NEffectUpdateDecorator@@@std@@@std@@AAEXXZ ; std::vector<NEffectUpdateDecorator::CTextureAnimationCCWDecorator *,std::allocator<NEffectUpdateDecorator::CTextureAnimationCCWDecorator *> >::_Tidy
; File D:\Metin2 Server Files\mainline\SRC_2014\Metin2Client\eterLib\Pool.h

; 142  : 		}

  0004d	8b 4d f4	 mov	 ecx, DWORD PTR __$EHRec$[ebp]
  00050	64 89 0d 00 00
	00 00		 mov	 DWORD PTR fs:0, ecx
  00057	59		 pop	 ecx
  00058	c9		 leave
  00059	c3		 ret	 0
  0005a	cc		 int	 3
  0005b	cc		 int	 3
  0005c	cc		 int	 3
  0005d	cc		 int	 3
  0005e	cc		 int	 3
_TEXT	ENDS
;	COMDAT text$x
text$x	SEGMENT
__ehhandler$??1?$CDynamicPoolEx@VCTextureAnimationCCWDecorator@NEffectUpdateDecorator@@@@UAE@XZ:
  00000	90		 npad	 1
  00001	90		 npad	 1
  00002	8b 54 24 08	 mov	 edx, DWORD PTR [esp+8]
  00006	8d 42 0c	 lea	 eax, DWORD PTR [edx+12]
  00009	8b 4a f8	 mov	 ecx, DWORD PTR [edx-8]
  0000c	33 c8		 xor	 ecx, eax
  0000e	e8 00 00 00 00	 call	 @__security_check_cookie@4
  00013	b8 00 00 00 00	 mov	 eax, OFFSET __ehfuncinfo$??1?$CDynamicPoolEx@VCTextureAnimationCCWDecorator@NEffectUpdateDecorator@@@@UAE@XZ
  00018	e9 00 00 00 00	 jmp	 ___CxxFrameHandler3
text$x	ENDS
??1?$CDynamicPoolEx@VCTextureAnimationCCWDecorator@NEffectUpdateDecorator@@@@UAE@XZ ENDP ; CDynamicPoolEx<NEffectUpdateDecorator::CTextureAnimationCCWDecorator>::~CDynamicPoolEx<NEffectUpdateDecorator::CTextureAnimationCCWDecorator>
; Function compile flags: /Odspy
; File D:\Metin2 Server Files\mainline\SRC_2014\Metin2Client\eterLib\Pool.h
; File C:\Program Files (x86)\Microsoft Visual Studio\2019\Community\VC\Tools\MSVC\14.28.29333\include\vector
; File C:\Program Files (x86)\Microsoft Visual Studio\2019\Community\VC\Tools\MSVC\14.28.29333\include\xmemory
; File C:\Program Files (x86)\Microsoft Visual Studio\2019\Community\VC\Tools\MSVC\14.28.29333\include\vector
; File D:\Metin2 Server Files\mainline\SRC_2014\Metin2Client\eterLib\Pool.h
; File C:\Program Files (x86)\Microsoft Visual Studio\2019\Community\VC\Tools\MSVC\14.28.29333\include\vector
; File C:\Program Files (x86)\Microsoft Visual Studio\2019\Community\VC\Tools\MSVC\14.28.29333\include\xmemory
; File C:\Program Files (x86)\Microsoft Visual Studio\2019\Community\VC\Tools\MSVC\14.28.29333\include\vector
; File D:\Metin2 Server Files\mainline\SRC_2014\Metin2Client\eterLib\Pool.h
;	COMDAT ??0?$CDynamicPoolEx@VCTextureAnimationCCWDecorator@NEffectUpdateDecorator@@@@QAE@XZ
_TEXT	SEGMENT
_this$ = -28						; size = 4
_this$ = -24						; size = 4
_this$ = -20						; size = 4
_this$ = -16						; size = 4
_this$1 = -12						; size = 4
_this$2 = -8						; size = 4
_this$ = -4						; size = 4
??0?$CDynamicPoolEx@VCTextureAnimationCCWDecorator@NEffectUpdateDecorator@@@@QAE@XZ PROC ; CDynamicPoolEx<NEffectUpdateDecorator::CTextureAnimationCCWDecorator>::CDynamicPoolEx<NEffectUpdateDecorator::CTextureAnimationCCWDecorator>, COMDAT
; _this$ = ecx

; 126  : 		CDynamicPoolEx()

  00000	55		 push	 ebp
  00001	8b ec		 mov	 ebp, esp
  00003	83 ec 1c	 sub	 esp, 28			; 0000001cH
  00006	89 4d fc	 mov	 DWORD PTR _this$[ebp], ecx

; 127  : 		{

  00009	8b 45 fc	 mov	 eax, DWORD PTR _this$[ebp]
  0000c	c7 00 00 00 00
	00		 mov	 DWORD PTR [eax], OFFSET ??_7?$CDynamicPoolEx@VCTextureAnimationCCWDecorator@NEffectUpdateDecorator@@@@6B@
  00012	8b 45 fc	 mov	 eax, DWORD PTR _this$[ebp]
  00015	83 c0 04	 add	 eax, 4
  00018	89 45 f0	 mov	 DWORD PTR _this$[ebp], eax
; File C:\Program Files (x86)\Microsoft Visual Studio\2019\Community\VC\Tools\MSVC\14.28.29333\include\vector

; 445  :     vector() noexcept(is_nothrow_default_constructible_v<_Alty>) : _Mypair(_Zero_then_variadic_args_t{}) {

  0001b	8b 45 f0	 mov	 eax, DWORD PTR _this$[ebp]
  0001e	89 45 ec	 mov	 DWORD PTR _this$[ebp], eax
; File C:\Program Files (x86)\Microsoft Visual Studio\2019\Community\VC\Tools\MSVC\14.28.29333\include\xmemory

; 1339 :         : _Ty1(), _Myval2(_STD forward<_Other2>(_Val2)...) {}

  00021	8b 45 ec	 mov	 eax, DWORD PTR _this$[ebp]
  00024	89 45 f8	 mov	 DWORD PTR _this$2[ebp], eax
; File C:\Program Files (x86)\Microsoft Visual Studio\2019\Community\VC\Tools\MSVC\14.28.29333\include\vector

; 375  :     _Vector_val() noexcept : _Myfirst(), _Mylast(), _Myend() {}

  00027	8b 45 f8	 mov	 eax, DWORD PTR _this$2[ebp]
  0002a	83 20 00	 and	 DWORD PTR [eax], 0
  0002d	8b 45 f8	 mov	 eax, DWORD PTR _this$2[ebp]
  00030	83 60 04 00	 and	 DWORD PTR [eax+4], 0
  00034	8b 45 f8	 mov	 eax, DWORD PTR _this$2[ebp]
  00037	83 60 08 00	 and	 DWORD PTR [eax+8], 0
; File D:\Metin2 Server Files\mainline\SRC_2014\Metin2Client\eterLib\Pool.h

; 127  : 		{

  0003b	8b 45 fc	 mov	 eax, DWORD PTR _this$[ebp]
  0003e	83 c0 10	 add	 eax, 16			; 00000010H
  00041	89 45 e8	 mov	 DWORD PTR _this$[ebp], eax
; File C:\Program Files (x86)\Microsoft Visual Studio\2019\Community\VC\Tools\MSVC\14.28.29333\include\vector

; 445  :     vector() noexcept(is_nothrow_default_constructible_v<_Alty>) : _Mypair(_Zero_then_variadic_args_t{}) {

  00044	8b 45 e8	 mov	 eax, DWORD PTR _this$[ebp]
  00047	89 45 e4	 mov	 DWORD PTR _this$[ebp], eax
; File C:\Program Files (x86)\Microsoft Visual Studio\2019\Community\VC\Tools\MSVC\14.28.29333\include\xmemory

; 1339 :         : _Ty1(), _Myval2(_STD forward<_Other2>(_Val2)...) {}

  0004a	8b 45 e4	 mov	 eax, DWORD PTR _this$[ebp]
  0004d	89 45 f4	 mov	 DWORD PTR _this$1[ebp], eax
; File C:\Program Files (x86)\Microsoft Visual Studio\2019\Community\VC\Tools\MSVC\14.28.29333\include\vector

; 375  :     _Vector_val() noexcept : _Myfirst(), _Mylast(), _Myend() {}

  00050	8b 45 f4	 mov	 eax, DWORD PTR _this$1[ebp]
  00053	83 20 00	 and	 DWORD PTR [eax], 0
  00056	8b 45 f4	 mov	 eax, DWORD PTR _this$1[ebp]
  00059	83 60 04 00	 and	 DWORD PTR [eax+4], 0
  0005d	8b 45 f4	 mov	 eax, DWORD PTR _this$1[ebp]
  00060	83 60 08 00	 and	 DWORD PTR [eax+8], 0
; File D:\Metin2 Server Files\mainline\SRC_2014\Metin2Client\eterLib\Pool.h

; 128  : 			m_uInitCapacity=0;

  00064	8b 45 fc	 mov	 eax, DWORD PTR _this$[ebp]
  00067	83 60 1c 00	 and	 DWORD PTR [eax+28], 0

; 129  : 			m_uUsedCapacity=0;

  0006b	8b 45 fc	 mov	 eax, DWORD PTR _this$[ebp]
  0006e	83 60 20 00	 and	 DWORD PTR [eax+32], 0

; 130  : 		}

  00072	8b 45 fc	 mov	 eax, DWORD PTR _this$[ebp]
  00075	c9		 leave
  00076	c3		 ret	 0
??0?$CDynamicPoolEx@VCTextureAnimationCCWDecorator@NEffectUpdateDecorator@@@@QAE@XZ ENDP ; CDynamicPoolEx<NEffectUpdateDecorator::CTextureAnimationCCWDecorator>::CDynamicPoolEx<NEffectUpdateDecorator::CTextureAnimationCCWDecorator>
_TEXT	ENDS
; Function compile flags: /Odspy
;	COMDAT ??_G?$CDynamicPoolEx@VCTextureAnimationRandomDecorator@NEffectUpdateDecorator@@@@UAEPAXI@Z
_TEXT	SEGMENT
_this$ = -4						; size = 4
___flags$ = 8						; size = 4
??_G?$CDynamicPoolEx@VCTextureAnimationRandomDecorator@NEffectUpdateDecorator@@@@UAEPAXI@Z PROC ; CDynamicPoolEx<NEffectUpdateDecorator::CTextureAnimationRandomDecorator>::`scalar deleting destructor', COMDAT
; _this$ = ecx
  00000	55		 push	 ebp
  00001	8b ec		 mov	 ebp, esp
  00003	51		 push	 ecx
  00004	89 4d fc	 mov	 DWORD PTR _this$[ebp], ecx
  00007	8b 4d fc	 mov	 ecx, DWORD PTR _this$[ebp]
  0000a	e8 00 00 00 00	 call	 ??1?$CDynamicPoolEx@VCTextureAnimationRandomDecorator@NEffectUpdateDecorator@@@@UAE@XZ ; CDynamicPoolEx<NEffectUpdateDecorator::CTextureAnimationRandomDecorator>::~CDynamicPoolEx<NEffectUpdateDecorator::CTextureAnimationRandomDecorator>
  0000f	8b 45 08	 mov	 eax, DWORD PTR ___flags$[ebp]
  00012	83 e0 01	 and	 eax, 1
  00015	74 0c		 je	 SHORT $LN2@scalar
  00017	6a 24		 push	 36			; 00000024H
  00019	ff 75 fc	 push	 DWORD PTR _this$[ebp]
  0001c	e8 00 00 00 00	 call	 ??3@YAXPAXI@Z		; operator delete
  00021	59		 pop	 ecx
  00022	59		 pop	 ecx
$LN2@scalar:
  00023	8b 45 fc	 mov	 eax, DWORD PTR _this$[ebp]
  00026	c9		 leave
  00027	c2 04 00	 ret	 4
??_G?$CDynamicPoolEx@VCTextureAnimationRandomDecorator@NEffectUpdateDecorator@@@@UAEPAXI@Z ENDP ; CDynamicPoolEx<NEffectUpdateDecorator::CTextureAnimationRandomDecorator>::`scalar deleting destructor'
_TEXT	ENDS
; Function compile flags: /Odspy
; File C:\Program Files (x86)\Microsoft Visual Studio\2019\Community\VC\Tools\MSVC\14.28.29333\include\vector
; File C:\Program Files (x86)\Microsoft Visual Studio\2019\Community\VC\Tools\MSVC\14.28.29333\include\xmemory
; File C:\Program Files (x86)\Microsoft Visual Studio\2019\Community\VC\Tools\MSVC\14.28.29333\include\vector
; File C:\Program Files (x86)\Microsoft Visual Studio\2019\Community\VC\Tools\MSVC\14.28.29333\include\xmemory
; File C:\Program Files (x86)\Microsoft Visual Studio\2019\Community\VC\Tools\MSVC\14.28.29333\include\vector
; File C:\Program Files (x86)\Microsoft Visual Studio\2019\Community\VC\Tools\MSVC\14.28.29333\include\xmemory
; File C:\Program Files (x86)\Microsoft Visual Studio\2019\Community\VC\Tools\MSVC\14.28.29333\include\vector
;	COMDAT ?_Tidy@?$vector@PAVCTextureAnimationRandomDecorator@NEffectUpdateDecorator@@V?$allocator@PAVCTextureAnimationRandomDecorator@NEffectUpdateDecorator@@@std@@@std@@AAEXXZ
_TEXT	SEGMENT
$T1 = -52						; size = 4
__Ptr$ = -48						; size = 4
__Count$ = -44						; size = 4
$T2 = -40						; size = 4
__First$ = -36						; size = 4
__Last$ = -32						; size = 4
$T3 = -28						; size = 4
$T4 = -24						; size = 4
__Myend$ = -20						; size = 4
__Mylast$ = -16						; size = 4
_this$ = -12						; size = 4
__My_data$ = -8						; size = 4
__Myfirst$ = -4						; size = 4
?_Tidy@?$vector@PAVCTextureAnimationRandomDecorator@NEffectUpdateDecorator@@V?$allocator@PAVCTextureAnimationRandomDecorator@NEffectUpdateDecorator@@@std@@@std@@AAEXXZ PROC ; std::vector<NEffectUpdateDecorator::CTextureAnimationRandomDecorator *,std::allocator<NEffectUpdateDecorator::CTextureAnimationRandomDecorator *> >::_Tidy, COMDAT
; _this$ = ecx

; 1686 :     void _Tidy() noexcept { // free all storage

  00000	55		 push	 ebp
  00001	8b ec		 mov	 ebp, esp
  00003	83 ec 34	 sub	 esp, 52			; 00000034H
  00006	89 4d f4	 mov	 DWORD PTR _this$[ebp], ecx

; 1687 :         auto& _My_data    = _Mypair._Myval2;

  00009	8b 45 f4	 mov	 eax, DWORD PTR _this$[ebp]
  0000c	89 45 f8	 mov	 DWORD PTR __My_data$[ebp], eax

; 1688 :         pointer& _Myfirst = _My_data._Myfirst;

  0000f	8b 45 f8	 mov	 eax, DWORD PTR __My_data$[ebp]
  00012	89 45 fc	 mov	 DWORD PTR __Myfirst$[ebp], eax

; 1689 :         pointer& _Mylast  = _My_data._Mylast;

  00015	8b 45 f8	 mov	 eax, DWORD PTR __My_data$[ebp]
  00018	83 c0 04	 add	 eax, 4
  0001b	89 45 f0	 mov	 DWORD PTR __Mylast$[ebp], eax

; 1690 :         pointer& _Myend   = _My_data._Myend;

  0001e	8b 45 f8	 mov	 eax, DWORD PTR __My_data$[ebp]
  00021	83 c0 08	 add	 eax, 8
  00024	89 45 ec	 mov	 DWORD PTR __Myend$[ebp], eax

; 1691 : 
; 1692 :         _My_data._Orphan_all();
; 1693 : 
; 1694 :         if (_Myfirst) { // destroy and deallocate old array

  00027	8b 45 fc	 mov	 eax, DWORD PTR __Myfirst$[ebp]
  0002a	83 38 00	 cmp	 DWORD PTR [eax], 0
  0002d	74 74		 je	 SHORT $LN3@Tidy

; 1695 :             _Destroy(_Myfirst, _Mylast);

  0002f	8b 45 f0	 mov	 eax, DWORD PTR __Mylast$[ebp]
  00032	8b 00		 mov	 eax, DWORD PTR [eax]
  00034	89 45 e0	 mov	 DWORD PTR __Last$[ebp], eax
  00037	8b 45 fc	 mov	 eax, DWORD PTR __Myfirst$[ebp]
  0003a	8b 00		 mov	 eax, DWORD PTR [eax]
  0003c	89 45 dc	 mov	 DWORD PTR __First$[ebp], eax

; 1733 :         return _Mypair._Get_first();

  0003f	8b 45 f4	 mov	 eax, DWORD PTR _this$[ebp]
; File C:\Program Files (x86)\Microsoft Visual Studio\2019\Community\VC\Tools\MSVC\14.28.29333\include\xmemory

; 1347 :         return *this;

  00042	89 45 e8	 mov	 DWORD PTR $T4[ebp], eax
; File C:\Program Files (x86)\Microsoft Visual Studio\2019\Community\VC\Tools\MSVC\14.28.29333\include\vector

; 1733 :         return _Mypair._Get_first();

  00045	8b 45 e8	 mov	 eax, DWORD PTR $T4[ebp]
  00048	89 45 e4	 mov	 DWORD PTR $T3[ebp], eax

; 1612 :         _Destroy_range(_First, _Last, _Getal());

  0004b	ff 75 e4	 push	 DWORD PTR $T3[ebp]
  0004e	ff 75 e0	 push	 DWORD PTR __Last$[ebp]
  00051	ff 75 dc	 push	 DWORD PTR __First$[ebp]
  00054	e8 00 00 00 00	 call	 ??$_Destroy_range@V?$allocator@PAVCTextureAnimationRandomDecorator@NEffectUpdateDecorator@@@std@@@std@@YAXPAPAVCTextureAnimationRandomDecorator@NEffectUpdateDecorator@@QAPAV12@AAV?$allocator@PAVCTextureAnimationRandomDecorator@NEffectUpdateDecorator@@@0@@Z ; std::_Destroy_range<std::allocator<NEffectUpdateDecorator::CTextureAnimationRandomDecorator *> >
  00059	83 c4 0c	 add	 esp, 12			; 0000000cH

; 1733 :         return _Mypair._Get_first();

  0005c	8b 45 f4	 mov	 eax, DWORD PTR _this$[ebp]
; File C:\Program Files (x86)\Microsoft Visual Studio\2019\Community\VC\Tools\MSVC\14.28.29333\include\xmemory

; 1347 :         return *this;

  0005f	89 45 d8	 mov	 DWORD PTR $T2[ebp], eax
; File C:\Program Files (x86)\Microsoft Visual Studio\2019\Community\VC\Tools\MSVC\14.28.29333\include\vector

; 1733 :         return _Mypair._Get_first();

  00062	8b 45 d8	 mov	 eax, DWORD PTR $T2[ebp]
  00065	89 45 cc	 mov	 DWORD PTR $T1[ebp], eax

; 1696 :             _Getal().deallocate(_Myfirst, static_cast<size_type>(_Myend - _Myfirst));

  00068	8b 45 ec	 mov	 eax, DWORD PTR __Myend$[ebp]
  0006b	8b 4d fc	 mov	 ecx, DWORD PTR __Myfirst$[ebp]
  0006e	8b 00		 mov	 eax, DWORD PTR [eax]
  00070	2b 01		 sub	 eax, DWORD PTR [ecx]
  00072	c1 f8 02	 sar	 eax, 2
  00075	89 45 d4	 mov	 DWORD PTR __Count$[ebp], eax
  00078	8b 45 fc	 mov	 eax, DWORD PTR __Myfirst$[ebp]
  0007b	8b 00		 mov	 eax, DWORD PTR [eax]
  0007d	89 45 d0	 mov	 DWORD PTR __Ptr$[ebp], eax
; File C:\Program Files (x86)\Microsoft Visual Studio\2019\Community\VC\Tools\MSVC\14.28.29333\include\xmemory

; 810  :         _Deallocate<_New_alignof<_Ty>>(_Ptr, sizeof(_Ty) * _Count);

  00080	8b 45 d4	 mov	 eax, DWORD PTR __Count$[ebp]
  00083	c1 e0 02	 shl	 eax, 2
  00086	50		 push	 eax
  00087	ff 75 d0	 push	 DWORD PTR __Ptr$[ebp]
  0008a	e8 00 00 00 00	 call	 ??$_Deallocate@$07$0A@@std@@YAXPAXI@Z ; std::_Deallocate<8,0>
  0008f	59		 pop	 ecx
  00090	59		 pop	 ecx
; File C:\Program Files (x86)\Microsoft Visual Studio\2019\Community\VC\Tools\MSVC\14.28.29333\include\vector

; 1698 :             _Myfirst = pointer();

  00091	8b 45 fc	 mov	 eax, DWORD PTR __Myfirst$[ebp]
  00094	83 20 00	 and	 DWORD PTR [eax], 0

; 1699 :             _Mylast  = pointer();

  00097	8b 45 f0	 mov	 eax, DWORD PTR __Mylast$[ebp]
  0009a	83 20 00	 and	 DWORD PTR [eax], 0

; 1700 :             _Myend   = pointer();

  0009d	8b 45 ec	 mov	 eax, DWORD PTR __Myend$[ebp]
  000a0	83 20 00	 and	 DWORD PTR [eax], 0
$LN3@Tidy:

; 1701 :         }
; 1702 :     }

  000a3	c9		 leave
  000a4	c3		 ret	 0
?_Tidy@?$vector@PAVCTextureAnimationRandomDecorator@NEffectUpdateDecorator@@V?$allocator@PAVCTextureAnimationRandomDecorator@NEffectUpdateDecorator@@@std@@@std@@AAEXXZ ENDP ; std::vector<NEffectUpdateDecorator::CTextureAnimationRandomDecorator *,std::allocator<NEffectUpdateDecorator::CTextureAnimationRandomDecorator *> >::_Tidy
_TEXT	ENDS
; Function compile flags: /Odspy
; File C:\Program Files (x86)\Microsoft Visual Studio\2019\Community\VC\Tools\MSVC\14.28.29333\include\vector
; File C:\Program Files (x86)\Microsoft Visual Studio\2019\Community\VC\Tools\MSVC\14.28.29333\include\xmemory
; File C:\Program Files (x86)\Microsoft Visual Studio\2019\Community\VC\Tools\MSVC\14.28.29333\include\vector
;	COMDAT ?clear@?$vector@PAVCTextureAnimationRandomDecorator@NEffectUpdateDecorator@@V?$allocator@PAVCTextureAnimationRandomDecorator@NEffectUpdateDecorator@@@std@@@std@@QAEXXZ
_TEXT	SEGMENT
__First$ = -32						; size = 4
__Last$ = -28						; size = 4
$T1 = -24						; size = 4
$T2 = -20						; size = 4
__Myfirst$ = -16					; size = 4
__Mylast$ = -12						; size = 4
_this$ = -8						; size = 4
__My_data$ = -4						; size = 4
?clear@?$vector@PAVCTextureAnimationRandomDecorator@NEffectUpdateDecorator@@V?$allocator@PAVCTextureAnimationRandomDecorator@NEffectUpdateDecorator@@@std@@@std@@QAEXXZ PROC ; std::vector<NEffectUpdateDecorator::CTextureAnimationRandomDecorator *,std::allocator<NEffectUpdateDecorator::CTextureAnimationRandomDecorator *> >::clear, COMDAT
; _this$ = ecx

; 1383 :     void clear() noexcept { // erase all

  00000	55		 push	 ebp
  00001	8b ec		 mov	 ebp, esp
  00003	83 ec 20	 sub	 esp, 32			; 00000020H
  00006	89 4d f8	 mov	 DWORD PTR _this$[ebp], ecx

; 1384 :         auto& _My_data    = _Mypair._Myval2;

  00009	8b 45 f8	 mov	 eax, DWORD PTR _this$[ebp]
  0000c	89 45 fc	 mov	 DWORD PTR __My_data$[ebp], eax

; 1385 :         pointer& _Myfirst = _My_data._Myfirst;

  0000f	8b 45 fc	 mov	 eax, DWORD PTR __My_data$[ebp]
  00012	89 45 f0	 mov	 DWORD PTR __Myfirst$[ebp], eax

; 1386 :         pointer& _Mylast  = _My_data._Mylast;

  00015	8b 45 fc	 mov	 eax, DWORD PTR __My_data$[ebp]
  00018	83 c0 04	 add	 eax, 4
  0001b	89 45 f4	 mov	 DWORD PTR __Mylast$[ebp], eax

; 1387 : 
; 1388 :         _My_data._Orphan_all();
; 1389 :         _Destroy(_Myfirst, _Mylast);

  0001e	8b 45 f4	 mov	 eax, DWORD PTR __Mylast$[ebp]
  00021	8b 00		 mov	 eax, DWORD PTR [eax]
  00023	89 45 e4	 mov	 DWORD PTR __Last$[ebp], eax
  00026	8b 45 f0	 mov	 eax, DWORD PTR __Myfirst$[ebp]
  00029	8b 00		 mov	 eax, DWORD PTR [eax]
  0002b	89 45 e0	 mov	 DWORD PTR __First$[ebp], eax

; 1733 :         return _Mypair._Get_first();

  0002e	8b 45 f8	 mov	 eax, DWORD PTR _this$[ebp]
; File C:\Program Files (x86)\Microsoft Visual Studio\2019\Community\VC\Tools\MSVC\14.28.29333\include\xmemory

; 1347 :         return *this;

  00031	89 45 ec	 mov	 DWORD PTR $T2[ebp], eax
; File C:\Program Files (x86)\Microsoft Visual Studio\2019\Community\VC\Tools\MSVC\14.28.29333\include\vector

; 1733 :         return _Mypair._Get_first();

  00034	8b 45 ec	 mov	 eax, DWORD PTR $T2[ebp]
  00037	89 45 e8	 mov	 DWORD PTR $T1[ebp], eax

; 1612 :         _Destroy_range(_First, _Last, _Getal());

  0003a	ff 75 e8	 push	 DWORD PTR $T1[ebp]
  0003d	ff 75 e4	 push	 DWORD PTR __Last$[ebp]
  00040	ff 75 e0	 push	 DWORD PTR __First$[ebp]
  00043	e8 00 00 00 00	 call	 ??$_Destroy_range@V?$allocator@PAVCTextureAnimationRandomDecorator@NEffectUpdateDecorator@@@std@@@std@@YAXPAPAVCTextureAnimationRandomDecorator@NEffectUpdateDecorator@@QAPAV12@AAV?$allocator@PAVCTextureAnimationRandomDecorator@NEffectUpdateDecorator@@@0@@Z ; std::_Destroy_range<std::allocator<NEffectUpdateDecorator::CTextureAnimationRandomDecorator *> >
  00048	83 c4 0c	 add	 esp, 12			; 0000000cH

; 1390 :         _Mylast = _Myfirst;

  0004b	8b 45 f4	 mov	 eax, DWORD PTR __Mylast$[ebp]
  0004e	8b 4d f0	 mov	 ecx, DWORD PTR __Myfirst$[ebp]
  00051	8b 09		 mov	 ecx, DWORD PTR [ecx]
  00053	89 08		 mov	 DWORD PTR [eax], ecx

; 1391 :     }

  00055	c9		 leave
  00056	c3		 ret	 0
?clear@?$vector@PAVCTextureAnimationRandomDecorator@NEffectUpdateDecorator@@V?$allocator@PAVCTextureAnimationRandomDecorator@NEffectUpdateDecorator@@@std@@@std@@QAEXXZ ENDP ; std::vector<NEffectUpdateDecorator::CTextureAnimationRandomDecorator *,std::allocator<NEffectUpdateDecorator::CTextureAnimationRandomDecorator *> >::clear
_TEXT	ENDS
; Function compile flags: /Odspy
; File D:\Metin2 Server Files\mainline\SRC_2014\Metin2Client\eterLib\Pool.h
;	COMDAT ?Delete@?$CDynamicPoolEx@VCTextureAnimationRandomDecorator@NEffectUpdateDecorator@@@@KAXPAVCTextureAnimationRandomDecorator@NEffectUpdateDecorator@@@Z
_TEXT	SEGMENT
_pkData$ = 8						; size = 4
?Delete@?$CDynamicPoolEx@VCTextureAnimationRandomDecorator@NEffectUpdateDecorator@@@@KAXPAVCTextureAnimationRandomDecorator@NEffectUpdateDecorator@@@Z PROC ; CDynamicPoolEx<NEffectUpdateDecorator::CTextureAnimationRandomDecorator>::Delete, COMDAT

; 223  : 		{

  00000	55		 push	 ebp
  00001	8b ec		 mov	 ebp, esp

; 224  : 			::operator delete(pkData);

  00003	ff 75 08	 push	 DWORD PTR _pkData$[ebp]
  00006	e8 00 00 00 00	 call	 ??3@YAXPAX@Z		; operator delete
  0000b	59		 pop	 ecx

; 225  : 		}

  0000c	5d		 pop	 ebp
  0000d	c3		 ret	 0
?Delete@?$CDynamicPoolEx@VCTextureAnimationRandomDecorator@NEffectUpdateDecorator@@@@KAXPAVCTextureAnimationRandomDecorator@NEffectUpdateDecorator@@@Z ENDP ; CDynamicPoolEx<NEffectUpdateDecorator::CTextureAnimationRandomDecorator>::Delete
_TEXT	ENDS
; Function compile flags: /Odspy
; File D:\Metin2 Server Files\mainline\SRC_2014\Metin2Client\eterLib\Pool.h
; File C:\Program Files (x86)\Microsoft Visual Studio\2019\Community\VC\Tools\MSVC\14.28.29333\include\vector
; File C:\Program Files (x86)\Microsoft Visual Studio\2019\Community\VC\Tools\MSVC\14.28.29333\include\xstddef
; File C:\Program Files (x86)\Microsoft Visual Studio\2019\Community\VC\Tools\MSVC\14.28.29333\include\vector
; File C:\Program Files (x86)\Microsoft Visual Studio\2019\Community\VC\Tools\MSVC\14.28.29333\include\xstddef
; File C:\Program Files (x86)\Microsoft Visual Studio\2019\Community\VC\Tools\MSVC\14.28.29333\include\vector
; File D:\Metin2 Server Files\mainline\SRC_2014\Metin2Client\eterLib\Pool.h
;	COMDAT ?Destroy@?$CDynamicPoolEx@VCTextureAnimationRandomDecorator@NEffectUpdateDecorator@@@@QAEXXZ
_TEXT	SEGMENT
$T1 = -44						; size = 4
$T2 = -40						; size = 4
$T3 = -36						; size = 4
$T4 = -32						; size = 4
$T5 = -28						; size = 4
___param0$ = -24					; size = 4
$T6 = -20						; size = 4
___param0$ = -16					; size = 4
__My_data$7 = -12					; size = 4
__My_data$8 = -8					; size = 4
_this$ = -4						; size = 4
?Destroy@?$CDynamicPoolEx@VCTextureAnimationRandomDecorator@NEffectUpdateDecorator@@@@QAEXXZ PROC ; CDynamicPoolEx<NEffectUpdateDecorator::CTextureAnimationRandomDecorator>::Destroy, COMDAT
; _this$ = ecx

; 150  : 		{

  00000	55		 push	 ebp
  00001	8b ec		 mov	 ebp, esp
  00003	83 ec 2c	 sub	 esp, 44			; 0000002cH
  00006	89 4d fc	 mov	 DWORD PTR _this$[ebp], ecx
; File C:\Program Files (x86)\Microsoft Visual Studio\2019\Community\VC\Tools\MSVC\14.28.29333\include\vector

; 1420 :         auto& _My_data = _Mypair._Myval2;

  00009	8b 45 fc	 mov	 eax, DWORD PTR _this$[ebp]
  0000c	83 c0 04	 add	 eax, 4
  0000f	89 45 f8	 mov	 DWORD PTR __My_data$8[ebp], eax
; File C:\Program Files (x86)\Microsoft Visual Studio\2019\Community\VC\Tools\MSVC\14.28.29333\include\xstddef

; 275  :     return __builtin_addressof(_Val);

  00012	8b 45 f8	 mov	 eax, DWORD PTR __My_data$8[ebp]
  00015	89 45 d8	 mov	 DWORD PTR $T2[ebp], eax
; File C:\Program Files (x86)\Microsoft Visual Studio\2019\Community\VC\Tools\MSVC\14.28.29333\include\vector

; 1421 :         return iterator(_My_data._Mylast, _STD addressof(_My_data));

  00018	8b 45 f8	 mov	 eax, DWORD PTR __My_data$8[ebp]
  0001b	8b 40 04	 mov	 eax, DWORD PTR [eax+4]
  0001e	89 45 f0	 mov	 DWORD PTR ___param0$[ebp], eax

; 42   :     _Vector_const_iterator(_Tptr _Parg, const _Container_base* _Pvector) noexcept : _Ptr(_Parg) {

  00021	8b 45 f0	 mov	 eax, DWORD PTR ___param0$[ebp]
  00024	89 45 ec	 mov	 DWORD PTR $T6[ebp], eax

; 1421 :         return iterator(_My_data._Mylast, _STD addressof(_My_data));

  00027	8d 45 ec	 lea	 eax, DWORD PTR $T6[ebp]
  0002a	89 45 e0	 mov	 DWORD PTR $T4[ebp], eax

; 1410 :         auto& _My_data = _Mypair._Myval2;

  0002d	8b 45 fc	 mov	 eax, DWORD PTR _this$[ebp]
  00030	83 c0 04	 add	 eax, 4
  00033	89 45 f4	 mov	 DWORD PTR __My_data$7[ebp], eax
; File C:\Program Files (x86)\Microsoft Visual Studio\2019\Community\VC\Tools\MSVC\14.28.29333\include\xstddef

; 275  :     return __builtin_addressof(_Val);

  00036	8b 45 f4	 mov	 eax, DWORD PTR __My_data$7[ebp]
  00039	89 45 d4	 mov	 DWORD PTR $T1[ebp], eax
; File C:\Program Files (x86)\Microsoft Visual Studio\2019\Community\VC\Tools\MSVC\14.28.29333\include\vector

; 1411 :         return iterator(_My_data._Myfirst, _STD addressof(_My_data));

  0003c	8b 45 f4	 mov	 eax, DWORD PTR __My_data$7[ebp]
  0003f	8b 00		 mov	 eax, DWORD PTR [eax]
  00041	89 45 e8	 mov	 DWORD PTR ___param0$[ebp], eax

; 42   :     _Vector_const_iterator(_Tptr _Parg, const _Container_base* _Pvector) noexcept : _Ptr(_Parg) {

  00044	8b 45 e8	 mov	 eax, DWORD PTR ___param0$[ebp]
  00047	89 45 e4	 mov	 DWORD PTR $T5[ebp], eax

; 1411 :         return iterator(_My_data._Myfirst, _STD addressof(_My_data));

  0004a	8d 45 e4	 lea	 eax, DWORD PTR $T5[ebp]
  0004d	89 45 dc	 mov	 DWORD PTR $T3[ebp], eax
; File D:\Metin2 Server Files\mainline\SRC_2014\Metin2Client\eterLib\Pool.h

; 160  : 			std::for_each(m_kVct_pkData.begin(), m_kVct_pkData.end(), Delete);

  00050	68 00 00 00 00	 push	 OFFSET ?Delete@?$CDynamicPoolEx@VCTextureAnimationRandomDecorator@NEffectUpdateDecorator@@@@KAXPAVCTextureAnimationRandomDecorator@NEffectUpdateDecorator@@@Z ; CDynamicPoolEx<NEffectUpdateDecorator::CTextureAnimationRandomDecorator>::Delete
  00055	8b 45 e0	 mov	 eax, DWORD PTR $T4[ebp]
  00058	ff 30		 push	 DWORD PTR [eax]
  0005a	8b 45 dc	 mov	 eax, DWORD PTR $T3[ebp]
  0005d	ff 30		 push	 DWORD PTR [eax]
  0005f	e8 00 00 00 00	 call	 ??$for_each@V?$_Vector_iterator@V?$_Vector_val@U?$_Simple_types@PAVCTextureAnimationRandomDecorator@NEffectUpdateDecorator@@@std@@@std@@@std@@P6AXPAVCTextureAnimationRandomDecorator@NEffectUpdateDecorator@@@Z@std@@YAP6AXPAVCTextureAnimationRandomDecorator@NEffectUpdateDecorator@@@ZV?$_Vector_iterator@V?$_Vector_val@U?$_Simple_types@PAVCTextureAnimationRandomDecorator@NEffectUpdateDecorator@@@std@@@std@@@0@1P6AX0@Z@Z ; std::for_each<std::_Vector_iterator<std::_Vector_val<std::_Simple_types<NEffectUpdateDecorator::CTextureAnimationRandomDecorator *> > >,void (__cdecl*)(NEffectUpdateDecorator::CTextureAnimationRandomDecorator *)>
  00064	83 c4 0c	 add	 esp, 12			; 0000000cH

; 161  : 			m_kVct_pkData.clear();

  00067	8b 4d fc	 mov	 ecx, DWORD PTR _this$[ebp]
  0006a	83 c1 04	 add	 ecx, 4
  0006d	e8 00 00 00 00	 call	 ?clear@?$vector@PAVCTextureAnimationRandomDecorator@NEffectUpdateDecorator@@V?$allocator@PAVCTextureAnimationRandomDecorator@NEffectUpdateDecorator@@@std@@@std@@QAEXXZ ; std::vector<NEffectUpdateDecorator::CTextureAnimationRandomDecorator *,std::allocator<NEffectUpdateDecorator::CTextureAnimationRandomDecorator *> >::clear

; 162  : 			m_kVct_pkFree.clear();

  00072	8b 4d fc	 mov	 ecx, DWORD PTR _this$[ebp]
  00075	83 c1 10	 add	 ecx, 16			; 00000010H
  00078	e8 00 00 00 00	 call	 ?clear@?$vector@PAVCTextureAnimationRandomDecorator@NEffectUpdateDecorator@@V?$allocator@PAVCTextureAnimationRandomDecorator@NEffectUpdateDecorator@@@std@@@std@@QAEXXZ ; std::vector<NEffectUpdateDecorator::CTextureAnimationRandomDecorator *,std::allocator<NEffectUpdateDecorator::CTextureAnimationRandomDecorator *> >::clear

; 163  : 		}

  0007d	c9		 leave
  0007e	c3		 ret	 0
?Destroy@?$CDynamicPoolEx@VCTextureAnimationRandomDecorator@NEffectUpdateDecorator@@@@QAEXXZ ENDP ; CDynamicPoolEx<NEffectUpdateDecorator::CTextureAnimationRandomDecorator>::Destroy
_TEXT	ENDS
; Function compile flags: /Odspy
; File D:\Metin2 Server Files\mainline\SRC_2014\Metin2Client\eterLib\Pool.h
; File C:\Program Files (x86)\Microsoft Visual Studio\2019\Community\VC\Tools\MSVC\14.28.29333\include\vector
; File D:\Metin2 Server Files\mainline\SRC_2014\Metin2Client\eterLib\Pool.h
; File C:\Program Files (x86)\Microsoft Visual Studio\2019\Community\VC\Tools\MSVC\14.28.29333\include\vector
; File D:\Metin2 Server Files\mainline\SRC_2014\Metin2Client\eterLib\Pool.h
;	COMDAT ??1?$CDynamicPoolEx@VCTextureAnimationRandomDecorator@NEffectUpdateDecorator@@@@UAE@XZ
_TEXT	SEGMENT
_this$ = -16						; size = 4
__$EHRec$ = -12						; size = 12
??1?$CDynamicPoolEx@VCTextureAnimationRandomDecorator@NEffectUpdateDecorator@@@@UAE@XZ PROC ; CDynamicPoolEx<NEffectUpdateDecorator::CTextureAnimationRandomDecorator>::~CDynamicPoolEx<NEffectUpdateDecorator::CTextureAnimationRandomDecorator>, COMDAT
; _this$ = ecx

; 132  : 		{

  00000	55		 push	 ebp
  00001	8b ec		 mov	 ebp, esp
  00003	6a ff		 push	 -1
  00005	68 00 00 00 00	 push	 __ehhandler$??1?$CDynamicPoolEx@VCTextureAnimationRandomDecorator@NEffectUpdateDecorator@@@@UAE@XZ
  0000a	64 a1 00 00 00
	00		 mov	 eax, DWORD PTR fs:0
  00010	50		 push	 eax
  00011	51		 push	 ecx
  00012	a1 00 00 00 00	 mov	 eax, DWORD PTR ___security_cookie
  00017	33 c5		 xor	 eax, ebp
  00019	50		 push	 eax
  0001a	8d 45 f4	 lea	 eax, DWORD PTR __$EHRec$[ebp]
  0001d	64 a3 00 00 00
	00		 mov	 DWORD PTR fs:0, eax
  00023	89 4d f0	 mov	 DWORD PTR _this$[ebp], ecx
  00026	8b 45 f0	 mov	 eax, DWORD PTR _this$[ebp]
  00029	c7 00 00 00 00
	00		 mov	 DWORD PTR [eax], OFFSET ??_7?$CDynamicPoolEx@VCTextureAnimationRandomDecorator@NEffectUpdateDecorator@@@@6B@

; 133  : 			assert(m_kVct_pkFree.size()==m_kVct_pkData.size());
; 134  : 			Destroy();

  0002f	8b 4d f0	 mov	 ecx, DWORD PTR _this$[ebp]
  00032	e8 00 00 00 00	 call	 ?Destroy@?$CDynamicPoolEx@VCTextureAnimationRandomDecorator@NEffectUpdateDecorator@@@@QAEXXZ ; CDynamicPoolEx<NEffectUpdateDecorator::CTextureAnimationRandomDecorator>::Destroy

; 142  : 		}

  00037	8b 4d f0	 mov	 ecx, DWORD PTR _this$[ebp]
  0003a	83 c1 10	 add	 ecx, 16			; 00000010H
; File C:\Program Files (x86)\Microsoft Visual Studio\2019\Community\VC\Tools\MSVC\14.28.29333\include\vector

; 673  :         _Tidy();

  0003d	e8 00 00 00 00	 call	 ?_Tidy@?$vector@PAVCTextureAnimationRandomDecorator@NEffectUpdateDecorator@@V?$allocator@PAVCTextureAnimationRandomDecorator@NEffectUpdateDecorator@@@std@@@std@@AAEXXZ ; std::vector<NEffectUpdateDecorator::CTextureAnimationRandomDecorator *,std::allocator<NEffectUpdateDecorator::CTextureAnimationRandomDecorator *> >::_Tidy
; File D:\Metin2 Server Files\mainline\SRC_2014\Metin2Client\eterLib\Pool.h

; 142  : 		}

  00042	8b 4d f0	 mov	 ecx, DWORD PTR _this$[ebp]
  00045	83 c1 04	 add	 ecx, 4
; File C:\Program Files (x86)\Microsoft Visual Studio\2019\Community\VC\Tools\MSVC\14.28.29333\include\vector

; 673  :         _Tidy();

  00048	e8 00 00 00 00	 call	 ?_Tidy@?$vector@PAVCTextureAnimationRandomDecorator@NEffectUpdateDecorator@@V?$allocator@PAVCTextureAnimationRandomDecorator@NEffectUpdateDecorator@@@std@@@std@@AAEXXZ ; std::vector<NEffectUpdateDecorator::CTextureAnimationRandomDecorator *,std::allocator<NEffectUpdateDecorator::CTextureAnimationRandomDecorator *> >::_Tidy
; File D:\Metin2 Server Files\mainline\SRC_2014\Metin2Client\eterLib\Pool.h

; 142  : 		}

  0004d	8b 4d f4	 mov	 ecx, DWORD PTR __$EHRec$[ebp]
  00050	64 89 0d 00 00
	00 00		 mov	 DWORD PTR fs:0, ecx
  00057	59		 pop	 ecx
  00058	c9		 leave
  00059	c3		 ret	 0
  0005a	cc		 int	 3
  0005b	cc		 int	 3
  0005c	cc		 int	 3
  0005d	cc		 int	 3
  0005e	cc		 int	 3
_TEXT	ENDS
;	COMDAT text$x
text$x	SEGMENT
__ehhandler$??1?$CDynamicPoolEx@VCTextureAnimationRandomDecorator@NEffectUpdateDecorator@@@@UAE@XZ:
  00000	90		 npad	 1
  00001	90		 npad	 1
  00002	8b 54 24 08	 mov	 edx, DWORD PTR [esp+8]
  00006	8d 42 0c	 lea	 eax, DWORD PTR [edx+12]
  00009	8b 4a f8	 mov	 ecx, DWORD PTR [edx-8]
  0000c	33 c8		 xor	 ecx, eax
  0000e	e8 00 00 00 00	 call	 @__security_check_cookie@4
  00013	b8 00 00 00 00	 mov	 eax, OFFSET __ehfuncinfo$??1?$CDynamicPoolEx@VCTextureAnimationRandomDecorator@NEffectUpdateDecorator@@@@UAE@XZ
  00018	e9 00 00 00 00	 jmp	 ___CxxFrameHandler3
text$x	ENDS
??1?$CDynamicPoolEx@VCTextureAnimationRandomDecorator@NEffectUpdateDecorator@@@@UAE@XZ ENDP ; CDynamicPoolEx<NEffectUpdateDecorator::CTextureAnimationRandomDecorator>::~CDynamicPoolEx<NEffectUpdateDecorator::CTextureAnimationRandomDecorator>
; Function compile flags: /Odspy
; File D:\Metin2 Server Files\mainline\SRC_2014\Metin2Client\eterLib\Pool.h
; File C:\Program Files (x86)\Microsoft Visual Studio\2019\Community\VC\Tools\MSVC\14.28.29333\include\vector
; File C:\Program Files (x86)\Microsoft Visual Studio\2019\Community\VC\Tools\MSVC\14.28.29333\include\xmemory
; File C:\Program Files (x86)\Microsoft Visual Studio\2019\Community\VC\Tools\MSVC\14.28.29333\include\vector
; File D:\Metin2 Server Files\mainline\SRC_2014\Metin2Client\eterLib\Pool.h
; File C:\Program Files (x86)\Microsoft Visual Studio\2019\Community\VC\Tools\MSVC\14.28.29333\include\vector
; File C:\Program Files (x86)\Microsoft Visual Studio\2019\Community\VC\Tools\MSVC\14.28.29333\include\xmemory
; File C:\Program Files (x86)\Microsoft Visual Studio\2019\Community\VC\Tools\MSVC\14.28.29333\include\vector
; File D:\Metin2 Server Files\mainline\SRC_2014\Metin2Client\eterLib\Pool.h
;	COMDAT ??0?$CDynamicPoolEx@VCTextureAnimationRandomDecorator@NEffectUpdateDecorator@@@@QAE@XZ
_TEXT	SEGMENT
_this$ = -28						; size = 4
_this$ = -24						; size = 4
_this$ = -20						; size = 4
_this$ = -16						; size = 4
_this$1 = -12						; size = 4
_this$2 = -8						; size = 4
_this$ = -4						; size = 4
??0?$CDynamicPoolEx@VCTextureAnimationRandomDecorator@NEffectUpdateDecorator@@@@QAE@XZ PROC ; CDynamicPoolEx<NEffectUpdateDecorator::CTextureAnimationRandomDecorator>::CDynamicPoolEx<NEffectUpdateDecorator::CTextureAnimationRandomDecorator>, COMDAT
; _this$ = ecx

; 126  : 		CDynamicPoolEx()

  00000	55		 push	 ebp
  00001	8b ec		 mov	 ebp, esp
  00003	83 ec 1c	 sub	 esp, 28			; 0000001cH
  00006	89 4d fc	 mov	 DWORD PTR _this$[ebp], ecx

; 127  : 		{

  00009	8b 45 fc	 mov	 eax, DWORD PTR _this$[ebp]
  0000c	c7 00 00 00 00
	00		 mov	 DWORD PTR [eax], OFFSET ??_7?$CDynamicPoolEx@VCTextureAnimationRandomDecorator@NEffectUpdateDecorator@@@@6B@
  00012	8b 45 fc	 mov	 eax, DWORD PTR _this$[ebp]
  00015	83 c0 04	 add	 eax, 4
  00018	89 45 f0	 mov	 DWORD PTR _this$[ebp], eax
; File C:\Program Files (x86)\Microsoft Visual Studio\2019\Community\VC\Tools\MSVC\14.28.29333\include\vector

; 445  :     vector() noexcept(is_nothrow_default_constructible_v<_Alty>) : _Mypair(_Zero_then_variadic_args_t{}) {

  0001b	8b 45 f0	 mov	 eax, DWORD PTR _this$[ebp]
  0001e	89 45 ec	 mov	 DWORD PTR _this$[ebp], eax
; File C:\Program Files (x86)\Microsoft Visual Studio\2019\Community\VC\Tools\MSVC\14.28.29333\include\xmemory

; 1339 :         : _Ty1(), _Myval2(_STD forward<_Other2>(_Val2)...) {}

  00021	8b 45 ec	 mov	 eax, DWORD PTR _this$[ebp]
  00024	89 45 f8	 mov	 DWORD PTR _this$2[ebp], eax
; File C:\Program Files (x86)\Microsoft Visual Studio\2019\Community\VC\Tools\MSVC\14.28.29333\include\vector

; 375  :     _Vector_val() noexcept : _Myfirst(), _Mylast(), _Myend() {}

  00027	8b 45 f8	 mov	 eax, DWORD PTR _this$2[ebp]
  0002a	83 20 00	 and	 DWORD PTR [eax], 0
  0002d	8b 45 f8	 mov	 eax, DWORD PTR _this$2[ebp]
  00030	83 60 04 00	 and	 DWORD PTR [eax+4], 0
  00034	8b 45 f8	 mov	 eax, DWORD PTR _this$2[ebp]
  00037	83 60 08 00	 and	 DWORD PTR [eax+8], 0
; File D:\Metin2 Server Files\mainline\SRC_2014\Metin2Client\eterLib\Pool.h

; 127  : 		{

  0003b	8b 45 fc	 mov	 eax, DWORD PTR _this$[ebp]
  0003e	83 c0 10	 add	 eax, 16			; 00000010H
  00041	89 45 e8	 mov	 DWORD PTR _this$[ebp], eax
; File C:\Program Files (x86)\Microsoft Visual Studio\2019\Community\VC\Tools\MSVC\14.28.29333\include\vector

; 445  :     vector() noexcept(is_nothrow_default_constructible_v<_Alty>) : _Mypair(_Zero_then_variadic_args_t{}) {

  00044	8b 45 e8	 mov	 eax, DWORD PTR _this$[ebp]
  00047	89 45 e4	 mov	 DWORD PTR _this$[ebp], eax
; File C:\Program Files (x86)\Microsoft Visual Studio\2019\Community\VC\Tools\MSVC\14.28.29333\include\xmemory

; 1339 :         : _Ty1(), _Myval2(_STD forward<_Other2>(_Val2)...) {}

  0004a	8b 45 e4	 mov	 eax, DWORD PTR _this$[ebp]
  0004d	89 45 f4	 mov	 DWORD PTR _this$1[ebp], eax
; File C:\Program Files (x86)\Microsoft Visual Studio\2019\Community\VC\Tools\MSVC\14.28.29333\include\vector

; 375  :     _Vector_val() noexcept : _Myfirst(), _Mylast(), _Myend() {}

  00050	8b 45 f4	 mov	 eax, DWORD PTR _this$1[ebp]
  00053	83 20 00	 and	 DWORD PTR [eax], 0
  00056	8b 45 f4	 mov	 eax, DWORD PTR _this$1[ebp]
  00059	83 60 04 00	 and	 DWORD PTR [eax+4], 0
  0005d	8b 45 f4	 mov	 eax, DWORD PTR _this$1[ebp]
  00060	83 60 08 00	 and	 DWORD PTR [eax+8], 0
; File D:\Metin2 Server Files\mainline\SRC_2014\Metin2Client\eterLib\Pool.h

; 128  : 			m_uInitCapacity=0;

  00064	8b 45 fc	 mov	 eax, DWORD PTR _this$[ebp]
  00067	83 60 1c 00	 and	 DWORD PTR [eax+28], 0

; 129  : 			m_uUsedCapacity=0;

  0006b	8b 45 fc	 mov	 eax, DWORD PTR _this$[ebp]
  0006e	83 60 20 00	 and	 DWORD PTR [eax+32], 0

; 130  : 		}

  00072	8b 45 fc	 mov	 eax, DWORD PTR _this$[ebp]
  00075	c9		 leave
  00076	c3		 ret	 0
??0?$CDynamicPoolEx@VCTextureAnimationRandomDecorator@NEffectUpdateDecorator@@@@QAE@XZ ENDP ; CDynamicPoolEx<NEffectUpdateDecorator::CTextureAnimationRandomDecorator>::CDynamicPoolEx<NEffectUpdateDecorator::CTextureAnimationRandomDecorator>
_TEXT	ENDS
; Function compile flags: /Odspy
;	COMDAT ??_G?$CDynamicPoolEx@VCAirResistanceDecorator@NEffectUpdateDecorator@@@@UAEPAXI@Z
_TEXT	SEGMENT
_this$ = -4						; size = 4
___flags$ = 8						; size = 4
??_G?$CDynamicPoolEx@VCAirResistanceDecorator@NEffectUpdateDecorator@@@@UAEPAXI@Z PROC ; CDynamicPoolEx<NEffectUpdateDecorator::CAirResistanceDecorator>::`scalar deleting destructor', COMDAT
; _this$ = ecx
  00000	55		 push	 ebp
  00001	8b ec		 mov	 ebp, esp
  00003	51		 push	 ecx
  00004	89 4d fc	 mov	 DWORD PTR _this$[ebp], ecx
  00007	8b 4d fc	 mov	 ecx, DWORD PTR _this$[ebp]
  0000a	e8 00 00 00 00	 call	 ??1?$CDynamicPoolEx@VCAirResistanceDecorator@NEffectUpdateDecorator@@@@UAE@XZ ; CDynamicPoolEx<NEffectUpdateDecorator::CAirResistanceDecorator>::~CDynamicPoolEx<NEffectUpdateDecorator::CAirResistanceDecorator>
  0000f	8b 45 08	 mov	 eax, DWORD PTR ___flags$[ebp]
  00012	83 e0 01	 and	 eax, 1
  00015	74 0c		 je	 SHORT $LN2@scalar
  00017	6a 24		 push	 36			; 00000024H
  00019	ff 75 fc	 push	 DWORD PTR _this$[ebp]
  0001c	e8 00 00 00 00	 call	 ??3@YAXPAXI@Z		; operator delete
  00021	59		 pop	 ecx
  00022	59		 pop	 ecx
$LN2@scalar:
  00023	8b 45 fc	 mov	 eax, DWORD PTR _this$[ebp]
  00026	c9		 leave
  00027	c2 04 00	 ret	 4
??_G?$CDynamicPoolEx@VCAirResistanceDecorator@NEffectUpdateDecorator@@@@UAEPAXI@Z ENDP ; CDynamicPoolEx<NEffectUpdateDecorator::CAirResistanceDecorator>::`scalar deleting destructor'
_TEXT	ENDS
; Function compile flags: /Odspy
; File C:\Program Files (x86)\Microsoft Visual Studio\2019\Community\VC\Tools\MSVC\14.28.29333\include\vector
; File C:\Program Files (x86)\Microsoft Visual Studio\2019\Community\VC\Tools\MSVC\14.28.29333\include\xmemory
; File C:\Program Files (x86)\Microsoft Visual Studio\2019\Community\VC\Tools\MSVC\14.28.29333\include\vector
; File C:\Program Files (x86)\Microsoft Visual Studio\2019\Community\VC\Tools\MSVC\14.28.29333\include\xmemory
; File C:\Program Files (x86)\Microsoft Visual Studio\2019\Community\VC\Tools\MSVC\14.28.29333\include\vector
; File C:\Program Files (x86)\Microsoft Visual Studio\2019\Community\VC\Tools\MSVC\14.28.29333\include\xmemory
; File C:\Program Files (x86)\Microsoft Visual Studio\2019\Community\VC\Tools\MSVC\14.28.29333\include\vector
;	COMDAT ?_Tidy@?$vector@PAVCAirResistanceDecorator@NEffectUpdateDecorator@@V?$allocator@PAVCAirResistanceDecorator@NEffectUpdateDecorator@@@std@@@std@@AAEXXZ
_TEXT	SEGMENT
$T1 = -52						; size = 4
__Ptr$ = -48						; size = 4
__Count$ = -44						; size = 4
$T2 = -40						; size = 4
__First$ = -36						; size = 4
__Last$ = -32						; size = 4
$T3 = -28						; size = 4
$T4 = -24						; size = 4
__Myend$ = -20						; size = 4
__Mylast$ = -16						; size = 4
_this$ = -12						; size = 4
__My_data$ = -8						; size = 4
__Myfirst$ = -4						; size = 4
?_Tidy@?$vector@PAVCAirResistanceDecorator@NEffectUpdateDecorator@@V?$allocator@PAVCAirResistanceDecorator@NEffectUpdateDecorator@@@std@@@std@@AAEXXZ PROC ; std::vector<NEffectUpdateDecorator::CAirResistanceDecorator *,std::allocator<NEffectUpdateDecorator::CAirResistanceDecorator *> >::_Tidy, COMDAT
; _this$ = ecx

; 1686 :     void _Tidy() noexcept { // free all storage

  00000	55		 push	 ebp
  00001	8b ec		 mov	 ebp, esp
  00003	83 ec 34	 sub	 esp, 52			; 00000034H
  00006	89 4d f4	 mov	 DWORD PTR _this$[ebp], ecx

; 1687 :         auto& _My_data    = _Mypair._Myval2;

  00009	8b 45 f4	 mov	 eax, DWORD PTR _this$[ebp]
  0000c	89 45 f8	 mov	 DWORD PTR __My_data$[ebp], eax

; 1688 :         pointer& _Myfirst = _My_data._Myfirst;

  0000f	8b 45 f8	 mov	 eax, DWORD PTR __My_data$[ebp]
  00012	89 45 fc	 mov	 DWORD PTR __Myfirst$[ebp], eax

; 1689 :         pointer& _Mylast  = _My_data._Mylast;

  00015	8b 45 f8	 mov	 eax, DWORD PTR __My_data$[ebp]
  00018	83 c0 04	 add	 eax, 4
  0001b	89 45 f0	 mov	 DWORD PTR __Mylast$[ebp], eax

; 1690 :         pointer& _Myend   = _My_data._Myend;

  0001e	8b 45 f8	 mov	 eax, DWORD PTR __My_data$[ebp]
  00021	83 c0 08	 add	 eax, 8
  00024	89 45 ec	 mov	 DWORD PTR __Myend$[ebp], eax

; 1691 : 
; 1692 :         _My_data._Orphan_all();
; 1693 : 
; 1694 :         if (_Myfirst) { // destroy and deallocate old array

  00027	8b 45 fc	 mov	 eax, DWORD PTR __Myfirst$[ebp]
  0002a	83 38 00	 cmp	 DWORD PTR [eax], 0
  0002d	74 74		 je	 SHORT $LN3@Tidy

; 1695 :             _Destroy(_Myfirst, _Mylast);

  0002f	8b 45 f0	 mov	 eax, DWORD PTR __Mylast$[ebp]
  00032	8b 00		 mov	 eax, DWORD PTR [eax]
  00034	89 45 e0	 mov	 DWORD PTR __Last$[ebp], eax
  00037	8b 45 fc	 mov	 eax, DWORD PTR __Myfirst$[ebp]
  0003a	8b 00		 mov	 eax, DWORD PTR [eax]
  0003c	89 45 dc	 mov	 DWORD PTR __First$[ebp], eax

; 1733 :         return _Mypair._Get_first();

  0003f	8b 45 f4	 mov	 eax, DWORD PTR _this$[ebp]
; File C:\Program Files (x86)\Microsoft Visual Studio\2019\Community\VC\Tools\MSVC\14.28.29333\include\xmemory

; 1347 :         return *this;

  00042	89 45 e8	 mov	 DWORD PTR $T4[ebp], eax
; File C:\Program Files (x86)\Microsoft Visual Studio\2019\Community\VC\Tools\MSVC\14.28.29333\include\vector

; 1733 :         return _Mypair._Get_first();

  00045	8b 45 e8	 mov	 eax, DWORD PTR $T4[ebp]
  00048	89 45 e4	 mov	 DWORD PTR $T3[ebp], eax

; 1612 :         _Destroy_range(_First, _Last, _Getal());

  0004b	ff 75 e4	 push	 DWORD PTR $T3[ebp]
  0004e	ff 75 e0	 push	 DWORD PTR __Last$[ebp]
  00051	ff 75 dc	 push	 DWORD PTR __First$[ebp]
  00054	e8 00 00 00 00	 call	 ??$_Destroy_range@V?$allocator@PAVCAirResistanceDecorator@NEffectUpdateDecorator@@@std@@@std@@YAXPAPAVCAirResistanceDecorator@NEffectUpdateDecorator@@QAPAV12@AAV?$allocator@PAVCAirResistanceDecorator@NEffectUpdateDecorator@@@0@@Z ; std::_Destroy_range<std::allocator<NEffectUpdateDecorator::CAirResistanceDecorator *> >
  00059	83 c4 0c	 add	 esp, 12			; 0000000cH

; 1733 :         return _Mypair._Get_first();

  0005c	8b 45 f4	 mov	 eax, DWORD PTR _this$[ebp]
; File C:\Program Files (x86)\Microsoft Visual Studio\2019\Community\VC\Tools\MSVC\14.28.29333\include\xmemory

; 1347 :         return *this;

  0005f	89 45 d8	 mov	 DWORD PTR $T2[ebp], eax
; File C:\Program Files (x86)\Microsoft Visual Studio\2019\Community\VC\Tools\MSVC\14.28.29333\include\vector

; 1733 :         return _Mypair._Get_first();

  00062	8b 45 d8	 mov	 eax, DWORD PTR $T2[ebp]
  00065	89 45 cc	 mov	 DWORD PTR $T1[ebp], eax

; 1696 :             _Getal().deallocate(_Myfirst, static_cast<size_type>(_Myend - _Myfirst));

  00068	8b 45 ec	 mov	 eax, DWORD PTR __Myend$[ebp]
  0006b	8b 4d fc	 mov	 ecx, DWORD PTR __Myfirst$[ebp]
  0006e	8b 00		 mov	 eax, DWORD PTR [eax]
  00070	2b 01		 sub	 eax, DWORD PTR [ecx]
  00072	c1 f8 02	 sar	 eax, 2
  00075	89 45 d4	 mov	 DWORD PTR __Count$[ebp], eax
  00078	8b 45 fc	 mov	 eax, DWORD PTR __Myfirst$[ebp]
  0007b	8b 00		 mov	 eax, DWORD PTR [eax]
  0007d	89 45 d0	 mov	 DWORD PTR __Ptr$[ebp], eax
; File C:\Program Files (x86)\Microsoft Visual Studio\2019\Community\VC\Tools\MSVC\14.28.29333\include\xmemory

; 810  :         _Deallocate<_New_alignof<_Ty>>(_Ptr, sizeof(_Ty) * _Count);

  00080	8b 45 d4	 mov	 eax, DWORD PTR __Count$[ebp]
  00083	c1 e0 02	 shl	 eax, 2
  00086	50		 push	 eax
  00087	ff 75 d0	 push	 DWORD PTR __Ptr$[ebp]
  0008a	e8 00 00 00 00	 call	 ??$_Deallocate@$07$0A@@std@@YAXPAXI@Z ; std::_Deallocate<8,0>
  0008f	59		 pop	 ecx
  00090	59		 pop	 ecx
; File C:\Program Files (x86)\Microsoft Visual Studio\2019\Community\VC\Tools\MSVC\14.28.29333\include\vector

; 1698 :             _Myfirst = pointer();

  00091	8b 45 fc	 mov	 eax, DWORD PTR __Myfirst$[ebp]
  00094	83 20 00	 and	 DWORD PTR [eax], 0

; 1699 :             _Mylast  = pointer();

  00097	8b 45 f0	 mov	 eax, DWORD PTR __Mylast$[ebp]
  0009a	83 20 00	 and	 DWORD PTR [eax], 0

; 1700 :             _Myend   = pointer();

  0009d	8b 45 ec	 mov	 eax, DWORD PTR __Myend$[ebp]
  000a0	83 20 00	 and	 DWORD PTR [eax], 0
$LN3@Tidy:

; 1701 :         }
; 1702 :     }

  000a3	c9		 leave
  000a4	c3		 ret	 0
?_Tidy@?$vector@PAVCAirResistanceDecorator@NEffectUpdateDecorator@@V?$allocator@PAVCAirResistanceDecorator@NEffectUpdateDecorator@@@std@@@std@@AAEXXZ ENDP ; std::vector<NEffectUpdateDecorator::CAirResistanceDecorator *,std::allocator<NEffectUpdateDecorator::CAirResistanceDecorator *> >::_Tidy
_TEXT	ENDS
; Function compile flags: /Odspy
; File C:\Program Files (x86)\Microsoft Visual Studio\2019\Community\VC\Tools\MSVC\14.28.29333\include\vector
; File C:\Program Files (x86)\Microsoft Visual Studio\2019\Community\VC\Tools\MSVC\14.28.29333\include\xmemory
; File C:\Program Files (x86)\Microsoft Visual Studio\2019\Community\VC\Tools\MSVC\14.28.29333\include\vector
;	COMDAT ?clear@?$vector@PAVCAirResistanceDecorator@NEffectUpdateDecorator@@V?$allocator@PAVCAirResistanceDecorator@NEffectUpdateDecorator@@@std@@@std@@QAEXXZ
_TEXT	SEGMENT
__First$ = -32						; size = 4
__Last$ = -28						; size = 4
$T1 = -24						; size = 4
$T2 = -20						; size = 4
__Myfirst$ = -16					; size = 4
__Mylast$ = -12						; size = 4
_this$ = -8						; size = 4
__My_data$ = -4						; size = 4
?clear@?$vector@PAVCAirResistanceDecorator@NEffectUpdateDecorator@@V?$allocator@PAVCAirResistanceDecorator@NEffectUpdateDecorator@@@std@@@std@@QAEXXZ PROC ; std::vector<NEffectUpdateDecorator::CAirResistanceDecorator *,std::allocator<NEffectUpdateDecorator::CAirResistanceDecorator *> >::clear, COMDAT
; _this$ = ecx

; 1383 :     void clear() noexcept { // erase all

  00000	55		 push	 ebp
  00001	8b ec		 mov	 ebp, esp
  00003	83 ec 20	 sub	 esp, 32			; 00000020H
  00006	89 4d f8	 mov	 DWORD PTR _this$[ebp], ecx

; 1384 :         auto& _My_data    = _Mypair._Myval2;

  00009	8b 45 f8	 mov	 eax, DWORD PTR _this$[ebp]
  0000c	89 45 fc	 mov	 DWORD PTR __My_data$[ebp], eax

; 1385 :         pointer& _Myfirst = _My_data._Myfirst;

  0000f	8b 45 fc	 mov	 eax, DWORD PTR __My_data$[ebp]
  00012	89 45 f0	 mov	 DWORD PTR __Myfirst$[ebp], eax

; 1386 :         pointer& _Mylast  = _My_data._Mylast;

  00015	8b 45 fc	 mov	 eax, DWORD PTR __My_data$[ebp]
  00018	83 c0 04	 add	 eax, 4
  0001b	89 45 f4	 mov	 DWORD PTR __Mylast$[ebp], eax

; 1387 : 
; 1388 :         _My_data._Orphan_all();
; 1389 :         _Destroy(_Myfirst, _Mylast);

  0001e	8b 45 f4	 mov	 eax, DWORD PTR __Mylast$[ebp]
  00021	8b 00		 mov	 eax, DWORD PTR [eax]
  00023	89 45 e4	 mov	 DWORD PTR __Last$[ebp], eax
  00026	8b 45 f0	 mov	 eax, DWORD PTR __Myfirst$[ebp]
  00029	8b 00		 mov	 eax, DWORD PTR [eax]
  0002b	89 45 e0	 mov	 DWORD PTR __First$[ebp], eax

; 1733 :         return _Mypair._Get_first();

  0002e	8b 45 f8	 mov	 eax, DWORD PTR _this$[ebp]
; File C:\Program Files (x86)\Microsoft Visual Studio\2019\Community\VC\Tools\MSVC\14.28.29333\include\xmemory

; 1347 :         return *this;

  00031	89 45 ec	 mov	 DWORD PTR $T2[ebp], eax
; File C:\Program Files (x86)\Microsoft Visual Studio\2019\Community\VC\Tools\MSVC\14.28.29333\include\vector

; 1733 :         return _Mypair._Get_first();

  00034	8b 45 ec	 mov	 eax, DWORD PTR $T2[ebp]
  00037	89 45 e8	 mov	 DWORD PTR $T1[ebp], eax

; 1612 :         _Destroy_range(_First, _Last, _Getal());

  0003a	ff 75 e8	 push	 DWORD PTR $T1[ebp]
  0003d	ff 75 e4	 push	 DWORD PTR __Last$[ebp]
  00040	ff 75 e0	 push	 DWORD PTR __First$[ebp]
  00043	e8 00 00 00 00	 call	 ??$_Destroy_range@V?$allocator@PAVCAirResistanceDecorator@NEffectUpdateDecorator@@@std@@@std@@YAXPAPAVCAirResistanceDecorator@NEffectUpdateDecorator@@QAPAV12@AAV?$allocator@PAVCAirResistanceDecorator@NEffectUpdateDecorator@@@0@@Z ; std::_Destroy_range<std::allocator<NEffectUpdateDecorator::CAirResistanceDecorator *> >
  00048	83 c4 0c	 add	 esp, 12			; 0000000cH

; 1390 :         _Mylast = _Myfirst;

  0004b	8b 45 f4	 mov	 eax, DWORD PTR __Mylast$[ebp]
  0004e	8b 4d f0	 mov	 ecx, DWORD PTR __Myfirst$[ebp]
  00051	8b 09		 mov	 ecx, DWORD PTR [ecx]
  00053	89 08		 mov	 DWORD PTR [eax], ecx

; 1391 :     }

  00055	c9		 leave
  00056	c3		 ret	 0
?clear@?$vector@PAVCAirResistanceDecorator@NEffectUpdateDecorator@@V?$allocator@PAVCAirResistanceDecorator@NEffectUpdateDecorator@@@std@@@std@@QAEXXZ ENDP ; std::vector<NEffectUpdateDecorator::CAirResistanceDecorator *,std::allocator<NEffectUpdateDecorator::CAirResistanceDecorator *> >::clear
_TEXT	ENDS
; Function compile flags: /Odspy
; File D:\Metin2 Server Files\mainline\SRC_2014\Metin2Client\eterLib\Pool.h
;	COMDAT ?Delete@?$CDynamicPoolEx@VCAirResistanceDecorator@NEffectUpdateDecorator@@@@KAXPAVCAirResistanceDecorator@NEffectUpdateDecorator@@@Z
_TEXT	SEGMENT
_pkData$ = 8						; size = 4
?Delete@?$CDynamicPoolEx@VCAirResistanceDecorator@NEffectUpdateDecorator@@@@KAXPAVCAirResistanceDecorator@NEffectUpdateDecorator@@@Z PROC ; CDynamicPoolEx<NEffectUpdateDecorator::CAirResistanceDecorator>::Delete, COMDAT

; 223  : 		{

  00000	55		 push	 ebp
  00001	8b ec		 mov	 ebp, esp

; 224  : 			::operator delete(pkData);

  00003	ff 75 08	 push	 DWORD PTR _pkData$[ebp]
  00006	e8 00 00 00 00	 call	 ??3@YAXPAX@Z		; operator delete
  0000b	59		 pop	 ecx

; 225  : 		}

  0000c	5d		 pop	 ebp
  0000d	c3		 ret	 0
?Delete@?$CDynamicPoolEx@VCAirResistanceDecorator@NEffectUpdateDecorator@@@@KAXPAVCAirResistanceDecorator@NEffectUpdateDecorator@@@Z ENDP ; CDynamicPoolEx<NEffectUpdateDecorator::CAirResistanceDecorator>::Delete
_TEXT	ENDS
; Function compile flags: /Odspy
; File D:\Metin2 Server Files\mainline\SRC_2014\Metin2Client\eterLib\Pool.h
; File C:\Program Files (x86)\Microsoft Visual Studio\2019\Community\VC\Tools\MSVC\14.28.29333\include\vector
; File C:\Program Files (x86)\Microsoft Visual Studio\2019\Community\VC\Tools\MSVC\14.28.29333\include\xstddef
; File C:\Program Files (x86)\Microsoft Visual Studio\2019\Community\VC\Tools\MSVC\14.28.29333\include\vector
; File C:\Program Files (x86)\Microsoft Visual Studio\2019\Community\VC\Tools\MSVC\14.28.29333\include\xstddef
; File C:\Program Files (x86)\Microsoft Visual Studio\2019\Community\VC\Tools\MSVC\14.28.29333\include\vector
; File D:\Metin2 Server Files\mainline\SRC_2014\Metin2Client\eterLib\Pool.h
;	COMDAT ?Destroy@?$CDynamicPoolEx@VCAirResistanceDecorator@NEffectUpdateDecorator@@@@QAEXXZ
_TEXT	SEGMENT
$T1 = -44						; size = 4
$T2 = -40						; size = 4
$T3 = -36						; size = 4
$T4 = -32						; size = 4
$T5 = -28						; size = 4
___param0$ = -24					; size = 4
$T6 = -20						; size = 4
___param0$ = -16					; size = 4
__My_data$7 = -12					; size = 4
__My_data$8 = -8					; size = 4
_this$ = -4						; size = 4
?Destroy@?$CDynamicPoolEx@VCAirResistanceDecorator@NEffectUpdateDecorator@@@@QAEXXZ PROC ; CDynamicPoolEx<NEffectUpdateDecorator::CAirResistanceDecorator>::Destroy, COMDAT
; _this$ = ecx

; 150  : 		{

  00000	55		 push	 ebp
  00001	8b ec		 mov	 ebp, esp
  00003	83 ec 2c	 sub	 esp, 44			; 0000002cH
  00006	89 4d fc	 mov	 DWORD PTR _this$[ebp], ecx
; File C:\Program Files (x86)\Microsoft Visual Studio\2019\Community\VC\Tools\MSVC\14.28.29333\include\vector

; 1420 :         auto& _My_data = _Mypair._Myval2;

  00009	8b 45 fc	 mov	 eax, DWORD PTR _this$[ebp]
  0000c	83 c0 04	 add	 eax, 4
  0000f	89 45 f8	 mov	 DWORD PTR __My_data$8[ebp], eax
; File C:\Program Files (x86)\Microsoft Visual Studio\2019\Community\VC\Tools\MSVC\14.28.29333\include\xstddef

; 275  :     return __builtin_addressof(_Val);

  00012	8b 45 f8	 mov	 eax, DWORD PTR __My_data$8[ebp]
  00015	89 45 d8	 mov	 DWORD PTR $T2[ebp], eax
; File C:\Program Files (x86)\Microsoft Visual Studio\2019\Community\VC\Tools\MSVC\14.28.29333\include\vector

; 1421 :         return iterator(_My_data._Mylast, _STD addressof(_My_data));

  00018	8b 45 f8	 mov	 eax, DWORD PTR __My_data$8[ebp]
  0001b	8b 40 04	 mov	 eax, DWORD PTR [eax+4]
  0001e	89 45 f0	 mov	 DWORD PTR ___param0$[ebp], eax

; 42   :     _Vector_const_iterator(_Tptr _Parg, const _Container_base* _Pvector) noexcept : _Ptr(_Parg) {

  00021	8b 45 f0	 mov	 eax, DWORD PTR ___param0$[ebp]
  00024	89 45 ec	 mov	 DWORD PTR $T6[ebp], eax

; 1421 :         return iterator(_My_data._Mylast, _STD addressof(_My_data));

  00027	8d 45 ec	 lea	 eax, DWORD PTR $T6[ebp]
  0002a	89 45 e0	 mov	 DWORD PTR $T4[ebp], eax

; 1410 :         auto& _My_data = _Mypair._Myval2;

  0002d	8b 45 fc	 mov	 eax, DWORD PTR _this$[ebp]
  00030	83 c0 04	 add	 eax, 4
  00033	89 45 f4	 mov	 DWORD PTR __My_data$7[ebp], eax
; File C:\Program Files (x86)\Microsoft Visual Studio\2019\Community\VC\Tools\MSVC\14.28.29333\include\xstddef

; 275  :     return __builtin_addressof(_Val);

  00036	8b 45 f4	 mov	 eax, DWORD PTR __My_data$7[ebp]
  00039	89 45 d4	 mov	 DWORD PTR $T1[ebp], eax
; File C:\Program Files (x86)\Microsoft Visual Studio\2019\Community\VC\Tools\MSVC\14.28.29333\include\vector

; 1411 :         return iterator(_My_data._Myfirst, _STD addressof(_My_data));

  0003c	8b 45 f4	 mov	 eax, DWORD PTR __My_data$7[ebp]
  0003f	8b 00		 mov	 eax, DWORD PTR [eax]
  00041	89 45 e8	 mov	 DWORD PTR ___param0$[ebp], eax

; 42   :     _Vector_const_iterator(_Tptr _Parg, const _Container_base* _Pvector) noexcept : _Ptr(_Parg) {

  00044	8b 45 e8	 mov	 eax, DWORD PTR ___param0$[ebp]
  00047	89 45 e4	 mov	 DWORD PTR $T5[ebp], eax

; 1411 :         return iterator(_My_data._Myfirst, _STD addressof(_My_data));

  0004a	8d 45 e4	 lea	 eax, DWORD PTR $T5[ebp]
  0004d	89 45 dc	 mov	 DWORD PTR $T3[ebp], eax
; File D:\Metin2 Server Files\mainline\SRC_2014\Metin2Client\eterLib\Pool.h

; 160  : 			std::for_each(m_kVct_pkData.begin(), m_kVct_pkData.end(), Delete);

  00050	68 00 00 00 00	 push	 OFFSET ?Delete@?$CDynamicPoolEx@VCAirResistanceDecorator@NEffectUpdateDecorator@@@@KAXPAVCAirResistanceDecorator@NEffectUpdateDecorator@@@Z ; CDynamicPoolEx<NEffectUpdateDecorator::CAirResistanceDecorator>::Delete
  00055	8b 45 e0	 mov	 eax, DWORD PTR $T4[ebp]
  00058	ff 30		 push	 DWORD PTR [eax]
  0005a	8b 45 dc	 mov	 eax, DWORD PTR $T3[ebp]
  0005d	ff 30		 push	 DWORD PTR [eax]
  0005f	e8 00 00 00 00	 call	 ??$for_each@V?$_Vector_iterator@V?$_Vector_val@U?$_Simple_types@PAVCAirResistanceDecorator@NEffectUpdateDecorator@@@std@@@std@@@std@@P6AXPAVCAirResistanceDecorator@NEffectUpdateDecorator@@@Z@std@@YAP6AXPAVCAirResistanceDecorator@NEffectUpdateDecorator@@@ZV?$_Vector_iterator@V?$_Vector_val@U?$_Simple_types@PAVCAirResistanceDecorator@NEffectUpdateDecorator@@@std@@@std@@@0@1P6AX0@Z@Z ; std::for_each<std::_Vector_iterator<std::_Vector_val<std::_Simple_types<NEffectUpdateDecorator::CAirResistanceDecorator *> > >,void (__cdecl*)(NEffectUpdateDecorator::CAirResistanceDecorator *)>
  00064	83 c4 0c	 add	 esp, 12			; 0000000cH

; 161  : 			m_kVct_pkData.clear();

  00067	8b 4d fc	 mov	 ecx, DWORD PTR _this$[ebp]
  0006a	83 c1 04	 add	 ecx, 4
  0006d	e8 00 00 00 00	 call	 ?clear@?$vector@PAVCAirResistanceDecorator@NEffectUpdateDecorator@@V?$allocator@PAVCAirResistanceDecorator@NEffectUpdateDecorator@@@std@@@std@@QAEXXZ ; std::vector<NEffectUpdateDecorator::CAirResistanceDecorator *,std::allocator<NEffectUpdateDecorator::CAirResistanceDecorator *> >::clear

; 162  : 			m_kVct_pkFree.clear();

  00072	8b 4d fc	 mov	 ecx, DWORD PTR _this$[ebp]
  00075	83 c1 10	 add	 ecx, 16			; 00000010H
  00078	e8 00 00 00 00	 call	 ?clear@?$vector@PAVCAirResistanceDecorator@NEffectUpdateDecorator@@V?$allocator@PAVCAirResistanceDecorator@NEffectUpdateDecorator@@@std@@@std@@QAEXXZ ; std::vector<NEffectUpdateDecorator::CAirResistanceDecorator *,std::allocator<NEffectUpdateDecorator::CAirResistanceDecorator *> >::clear

; 163  : 		}

  0007d	c9		 leave
  0007e	c3		 ret	 0
?Destroy@?$CDynamicPoolEx@VCAirResistanceDecorator@NEffectUpdateDecorator@@@@QAEXXZ ENDP ; CDynamicPoolEx<NEffectUpdateDecorator::CAirResistanceDecorator>::Destroy
_TEXT	ENDS
; Function compile flags: /Odspy
; File D:\Metin2 Server Files\mainline\SRC_2014\Metin2Client\eterLib\Pool.h
; File C:\Program Files (x86)\Microsoft Visual Studio\2019\Community\VC\Tools\MSVC\14.28.29333\include\vector
; File D:\Metin2 Server Files\mainline\SRC_2014\Metin2Client\eterLib\Pool.h
; File C:\Program Files (x86)\Microsoft Visual Studio\2019\Community\VC\Tools\MSVC\14.28.29333\include\vector
; File D:\Metin2 Server Files\mainline\SRC_2014\Metin2Client\eterLib\Pool.h
;	COMDAT ??1?$CDynamicPoolEx@VCAirResistanceDecorator@NEffectUpdateDecorator@@@@UAE@XZ
_TEXT	SEGMENT
_this$ = -16						; size = 4
__$EHRec$ = -12						; size = 12
??1?$CDynamicPoolEx@VCAirResistanceDecorator@NEffectUpdateDecorator@@@@UAE@XZ PROC ; CDynamicPoolEx<NEffectUpdateDecorator::CAirResistanceDecorator>::~CDynamicPoolEx<NEffectUpdateDecorator::CAirResistanceDecorator>, COMDAT
; _this$ = ecx

; 132  : 		{

  00000	55		 push	 ebp
  00001	8b ec		 mov	 ebp, esp
  00003	6a ff		 push	 -1
  00005	68 00 00 00 00	 push	 __ehhandler$??1?$CDynamicPoolEx@VCAirResistanceDecorator@NEffectUpdateDecorator@@@@UAE@XZ
  0000a	64 a1 00 00 00
	00		 mov	 eax, DWORD PTR fs:0
  00010	50		 push	 eax
  00011	51		 push	 ecx
  00012	a1 00 00 00 00	 mov	 eax, DWORD PTR ___security_cookie
  00017	33 c5		 xor	 eax, ebp
  00019	50		 push	 eax
  0001a	8d 45 f4	 lea	 eax, DWORD PTR __$EHRec$[ebp]
  0001d	64 a3 00 00 00
	00		 mov	 DWORD PTR fs:0, eax
  00023	89 4d f0	 mov	 DWORD PTR _this$[ebp], ecx
  00026	8b 45 f0	 mov	 eax, DWORD PTR _this$[ebp]
  00029	c7 00 00 00 00
	00		 mov	 DWORD PTR [eax], OFFSET ??_7?$CDynamicPoolEx@VCAirResistanceDecorator@NEffectUpdateDecorator@@@@6B@

; 133  : 			assert(m_kVct_pkFree.size()==m_kVct_pkData.size());
; 134  : 			Destroy();

  0002f	8b 4d f0	 mov	 ecx, DWORD PTR _this$[ebp]
  00032	e8 00 00 00 00	 call	 ?Destroy@?$CDynamicPoolEx@VCAirResistanceDecorator@NEffectUpdateDecorator@@@@QAEXXZ ; CDynamicPoolEx<NEffectUpdateDecorator::CAirResistanceDecorator>::Destroy

; 142  : 		}

  00037	8b 4d f0	 mov	 ecx, DWORD PTR _this$[ebp]
  0003a	83 c1 10	 add	 ecx, 16			; 00000010H
; File C:\Program Files (x86)\Microsoft Visual Studio\2019\Community\VC\Tools\MSVC\14.28.29333\include\vector

; 673  :         _Tidy();

  0003d	e8 00 00 00 00	 call	 ?_Tidy@?$vector@PAVCAirResistanceDecorator@NEffectUpdateDecorator@@V?$allocator@PAVCAirResistanceDecorator@NEffectUpdateDecorator@@@std@@@std@@AAEXXZ ; std::vector<NEffectUpdateDecorator::CAirResistanceDecorator *,std::allocator<NEffectUpdateDecorator::CAirResistanceDecorator *> >::_Tidy
; File D:\Metin2 Server Files\mainline\SRC_2014\Metin2Client\eterLib\Pool.h

; 142  : 		}

  00042	8b 4d f0	 mov	 ecx, DWORD PTR _this$[ebp]
  00045	83 c1 04	 add	 ecx, 4
; File C:\Program Files (x86)\Microsoft Visual Studio\2019\Community\VC\Tools\MSVC\14.28.29333\include\vector

; 673  :         _Tidy();

  00048	e8 00 00 00 00	 call	 ?_Tidy@?$vector@PAVCAirResistanceDecorator@NEffectUpdateDecorator@@V?$allocator@PAVCAirResistanceDecorator@NEffectUpdateDecorator@@@std@@@std@@AAEXXZ ; std::vector<NEffectUpdateDecorator::CAirResistanceDecorator *,std::allocator<NEffectUpdateDecorator::CAirResistanceDecorator *> >::_Tidy
; File D:\Metin2 Server Files\mainline\SRC_2014\Metin2Client\eterLib\Pool.h

; 142  : 		}

  0004d	8b 4d f4	 mov	 ecx, DWORD PTR __$EHRec$[ebp]
  00050	64 89 0d 00 00
	00 00		 mov	 DWORD PTR fs:0, ecx
  00057	59		 pop	 ecx
  00058	c9		 leave
  00059	c3		 ret	 0
  0005a	cc		 int	 3
  0005b	cc		 int	 3
  0005c	cc		 int	 3
  0005d	cc		 int	 3
  0005e	cc		 int	 3
_TEXT	ENDS
;	COMDAT text$x
text$x	SEGMENT
__ehhandler$??1?$CDynamicPoolEx@VCAirResistanceDecorator@NEffectUpdateDecorator@@@@UAE@XZ:
  00000	90		 npad	 1
  00001	90		 npad	 1
  00002	8b 54 24 08	 mov	 edx, DWORD PTR [esp+8]
  00006	8d 42 0c	 lea	 eax, DWORD PTR [edx+12]
  00009	8b 4a f8	 mov	 ecx, DWORD PTR [edx-8]
  0000c	33 c8		 xor	 ecx, eax
  0000e	e8 00 00 00 00	 call	 @__security_check_cookie@4
  00013	b8 00 00 00 00	 mov	 eax, OFFSET __ehfuncinfo$??1?$CDynamicPoolEx@VCAirResistanceDecorator@NEffectUpdateDecorator@@@@UAE@XZ
  00018	e9 00 00 00 00	 jmp	 ___CxxFrameHandler3
text$x	ENDS
??1?$CDynamicPoolEx@VCAirResistanceDecorator@NEffectUpdateDecorator@@@@UAE@XZ ENDP ; CDynamicPoolEx<NEffectUpdateDecorator::CAirResistanceDecorator>::~CDynamicPoolEx<NEffectUpdateDecorator::CAirResistanceDecorator>
; Function compile flags: /Odspy
; File D:\Metin2 Server Files\mainline\SRC_2014\Metin2Client\eterLib\Pool.h
; File C:\Program Files (x86)\Microsoft Visual Studio\2019\Community\VC\Tools\MSVC\14.28.29333\include\vector
; File C:\Program Files (x86)\Microsoft Visual Studio\2019\Community\VC\Tools\MSVC\14.28.29333\include\xmemory
; File C:\Program Files (x86)\Microsoft Visual Studio\2019\Community\VC\Tools\MSVC\14.28.29333\include\vector
; File D:\Metin2 Server Files\mainline\SRC_2014\Metin2Client\eterLib\Pool.h
; File C:\Program Files (x86)\Microsoft Visual Studio\2019\Community\VC\Tools\MSVC\14.28.29333\include\vector
; File C:\Program Files (x86)\Microsoft Visual Studio\2019\Community\VC\Tools\MSVC\14.28.29333\include\xmemory
; File C:\Program Files (x86)\Microsoft Visual Studio\2019\Community\VC\Tools\MSVC\14.28.29333\include\vector
; File D:\Metin2 Server Files\mainline\SRC_2014\Metin2Client\eterLib\Pool.h
;	COMDAT ??0?$CDynamicPoolEx@VCAirResistanceDecorator@NEffectUpdateDecorator@@@@QAE@XZ
_TEXT	SEGMENT
_this$ = -28						; size = 4
_this$ = -24						; size = 4
_this$ = -20						; size = 4
_this$ = -16						; size = 4
_this$1 = -12						; size = 4
_this$2 = -8						; size = 4
_this$ = -4						; size = 4
??0?$CDynamicPoolEx@VCAirResistanceDecorator@NEffectUpdateDecorator@@@@QAE@XZ PROC ; CDynamicPoolEx<NEffectUpdateDecorator::CAirResistanceDecorator>::CDynamicPoolEx<NEffectUpdateDecorator::CAirResistanceDecorator>, COMDAT
; _this$ = ecx

; 126  : 		CDynamicPoolEx()

  00000	55		 push	 ebp
  00001	8b ec		 mov	 ebp, esp
  00003	83 ec 1c	 sub	 esp, 28			; 0000001cH
  00006	89 4d fc	 mov	 DWORD PTR _this$[ebp], ecx

; 127  : 		{

  00009	8b 45 fc	 mov	 eax, DWORD PTR _this$[ebp]
  0000c	c7 00 00 00 00
	00		 mov	 DWORD PTR [eax], OFFSET ??_7?$CDynamicPoolEx@VCAirResistanceDecorator@NEffectUpdateDecorator@@@@6B@
  00012	8b 45 fc	 mov	 eax, DWORD PTR _this$[ebp]
  00015	83 c0 04	 add	 eax, 4
  00018	89 45 f0	 mov	 DWORD PTR _this$[ebp], eax
; File C:\Program Files (x86)\Microsoft Visual Studio\2019\Community\VC\Tools\MSVC\14.28.29333\include\vector

; 445  :     vector() noexcept(is_nothrow_default_constructible_v<_Alty>) : _Mypair(_Zero_then_variadic_args_t{}) {

  0001b	8b 45 f0	 mov	 eax, DWORD PTR _this$[ebp]
  0001e	89 45 ec	 mov	 DWORD PTR _this$[ebp], eax
; File C:\Program Files (x86)\Microsoft Visual Studio\2019\Community\VC\Tools\MSVC\14.28.29333\include\xmemory

; 1339 :         : _Ty1(), _Myval2(_STD forward<_Other2>(_Val2)...) {}

  00021	8b 45 ec	 mov	 eax, DWORD PTR _this$[ebp]
  00024	89 45 f8	 mov	 DWORD PTR _this$2[ebp], eax
; File C:\Program Files (x86)\Microsoft Visual Studio\2019\Community\VC\Tools\MSVC\14.28.29333\include\vector

; 375  :     _Vector_val() noexcept : _Myfirst(), _Mylast(), _Myend() {}

  00027	8b 45 f8	 mov	 eax, DWORD PTR _this$2[ebp]
  0002a	83 20 00	 and	 DWORD PTR [eax], 0
  0002d	8b 45 f8	 mov	 eax, DWORD PTR _this$2[ebp]
  00030	83 60 04 00	 and	 DWORD PTR [eax+4], 0
  00034	8b 45 f8	 mov	 eax, DWORD PTR _this$2[ebp]
  00037	83 60 08 00	 and	 DWORD PTR [eax+8], 0
; File D:\Metin2 Server Files\mainline\SRC_2014\Metin2Client\eterLib\Pool.h

; 127  : 		{

  0003b	8b 45 fc	 mov	 eax, DWORD PTR _this$[ebp]
  0003e	83 c0 10	 add	 eax, 16			; 00000010H
  00041	89 45 e8	 mov	 DWORD PTR _this$[ebp], eax
; File C:\Program Files (x86)\Microsoft Visual Studio\2019\Community\VC\Tools\MSVC\14.28.29333\include\vector

; 445  :     vector() noexcept(is_nothrow_default_constructible_v<_Alty>) : _Mypair(_Zero_then_variadic_args_t{}) {

  00044	8b 45 e8	 mov	 eax, DWORD PTR _this$[ebp]
  00047	89 45 e4	 mov	 DWORD PTR _this$[ebp], eax
; File C:\Program Files (x86)\Microsoft Visual Studio\2019\Community\VC\Tools\MSVC\14.28.29333\include\xmemory

; 1339 :         : _Ty1(), _Myval2(_STD forward<_Other2>(_Val2)...) {}

  0004a	8b 45 e4	 mov	 eax, DWORD PTR _this$[ebp]
  0004d	89 45 f4	 mov	 DWORD PTR _this$1[ebp], eax
; File C:\Program Files (x86)\Microsoft Visual Studio\2019\Community\VC\Tools\MSVC\14.28.29333\include\vector

; 375  :     _Vector_val() noexcept : _Myfirst(), _Mylast(), _Myend() {}

  00050	8b 45 f4	 mov	 eax, DWORD PTR _this$1[ebp]
  00053	83 20 00	 and	 DWORD PTR [eax], 0
  00056	8b 45 f4	 mov	 eax, DWORD PTR _this$1[ebp]
  00059	83 60 04 00	 and	 DWORD PTR [eax+4], 0
  0005d	8b 45 f4	 mov	 eax, DWORD PTR _this$1[ebp]
  00060	83 60 08 00	 and	 DWORD PTR [eax+8], 0
; File D:\Metin2 Server Files\mainline\SRC_2014\Metin2Client\eterLib\Pool.h

; 128  : 			m_uInitCapacity=0;

  00064	8b 45 fc	 mov	 eax, DWORD PTR _this$[ebp]
  00067	83 60 1c 00	 and	 DWORD PTR [eax+28], 0

; 129  : 			m_uUsedCapacity=0;

  0006b	8b 45 fc	 mov	 eax, DWORD PTR _this$[ebp]
  0006e	83 60 20 00	 and	 DWORD PTR [eax+32], 0

; 130  : 		}

  00072	8b 45 fc	 mov	 eax, DWORD PTR _this$[ebp]
  00075	c9		 leave
  00076	c3		 ret	 0
??0?$CDynamicPoolEx@VCAirResistanceDecorator@NEffectUpdateDecorator@@@@QAE@XZ ENDP ; CDynamicPoolEx<NEffectUpdateDecorator::CAirResistanceDecorator>::CDynamicPoolEx<NEffectUpdateDecorator::CAirResistanceDecorator>
_TEXT	ENDS
; Function compile flags: /Odspy
;	COMDAT ??_G?$CDynamicPoolEx@VCGravityDecorator@NEffectUpdateDecorator@@@@UAEPAXI@Z
_TEXT	SEGMENT
_this$ = -4						; size = 4
___flags$ = 8						; size = 4
??_G?$CDynamicPoolEx@VCGravityDecorator@NEffectUpdateDecorator@@@@UAEPAXI@Z PROC ; CDynamicPoolEx<NEffectUpdateDecorator::CGravityDecorator>::`scalar deleting destructor', COMDAT
; _this$ = ecx
  00000	55		 push	 ebp
  00001	8b ec		 mov	 ebp, esp
  00003	51		 push	 ecx
  00004	89 4d fc	 mov	 DWORD PTR _this$[ebp], ecx
  00007	8b 4d fc	 mov	 ecx, DWORD PTR _this$[ebp]
  0000a	e8 00 00 00 00	 call	 ??1?$CDynamicPoolEx@VCGravityDecorator@NEffectUpdateDecorator@@@@UAE@XZ ; CDynamicPoolEx<NEffectUpdateDecorator::CGravityDecorator>::~CDynamicPoolEx<NEffectUpdateDecorator::CGravityDecorator>
  0000f	8b 45 08	 mov	 eax, DWORD PTR ___flags$[ebp]
  00012	83 e0 01	 and	 eax, 1
  00015	74 0c		 je	 SHORT $LN2@scalar
  00017	6a 24		 push	 36			; 00000024H
  00019	ff 75 fc	 push	 DWORD PTR _this$[ebp]
  0001c	e8 00 00 00 00	 call	 ??3@YAXPAXI@Z		; operator delete
  00021	59		 pop	 ecx
  00022	59		 pop	 ecx
$LN2@scalar:
  00023	8b 45 fc	 mov	 eax, DWORD PTR _this$[ebp]
  00026	c9		 leave
  00027	c2 04 00	 ret	 4
??_G?$CDynamicPoolEx@VCGravityDecorator@NEffectUpdateDecorator@@@@UAEPAXI@Z ENDP ; CDynamicPoolEx<NEffectUpdateDecorator::CGravityDecorator>::`scalar deleting destructor'
_TEXT	ENDS
; Function compile flags: /Odspy
; File C:\Program Files (x86)\Microsoft Visual Studio\2019\Community\VC\Tools\MSVC\14.28.29333\include\vector
; File C:\Program Files (x86)\Microsoft Visual Studio\2019\Community\VC\Tools\MSVC\14.28.29333\include\xmemory
; File C:\Program Files (x86)\Microsoft Visual Studio\2019\Community\VC\Tools\MSVC\14.28.29333\include\vector
; File C:\Program Files (x86)\Microsoft Visual Studio\2019\Community\VC\Tools\MSVC\14.28.29333\include\xmemory
; File C:\Program Files (x86)\Microsoft Visual Studio\2019\Community\VC\Tools\MSVC\14.28.29333\include\vector
; File C:\Program Files (x86)\Microsoft Visual Studio\2019\Community\VC\Tools\MSVC\14.28.29333\include\xmemory
; File C:\Program Files (x86)\Microsoft Visual Studio\2019\Community\VC\Tools\MSVC\14.28.29333\include\vector
;	COMDAT ?_Tidy@?$vector@PAVCGravityDecorator@NEffectUpdateDecorator@@V?$allocator@PAVCGravityDecorator@NEffectUpdateDecorator@@@std@@@std@@AAEXXZ
_TEXT	SEGMENT
$T1 = -52						; size = 4
__Ptr$ = -48						; size = 4
__Count$ = -44						; size = 4
$T2 = -40						; size = 4
__First$ = -36						; size = 4
__Last$ = -32						; size = 4
$T3 = -28						; size = 4
$T4 = -24						; size = 4
__Myend$ = -20						; size = 4
__Mylast$ = -16						; size = 4
_this$ = -12						; size = 4
__My_data$ = -8						; size = 4
__Myfirst$ = -4						; size = 4
?_Tidy@?$vector@PAVCGravityDecorator@NEffectUpdateDecorator@@V?$allocator@PAVCGravityDecorator@NEffectUpdateDecorator@@@std@@@std@@AAEXXZ PROC ; std::vector<NEffectUpdateDecorator::CGravityDecorator *,std::allocator<NEffectUpdateDecorator::CGravityDecorator *> >::_Tidy, COMDAT
; _this$ = ecx

; 1686 :     void _Tidy() noexcept { // free all storage

  00000	55		 push	 ebp
  00001	8b ec		 mov	 ebp, esp
  00003	83 ec 34	 sub	 esp, 52			; 00000034H
  00006	89 4d f4	 mov	 DWORD PTR _this$[ebp], ecx

; 1687 :         auto& _My_data    = _Mypair._Myval2;

  00009	8b 45 f4	 mov	 eax, DWORD PTR _this$[ebp]
  0000c	89 45 f8	 mov	 DWORD PTR __My_data$[ebp], eax

; 1688 :         pointer& _Myfirst = _My_data._Myfirst;

  0000f	8b 45 f8	 mov	 eax, DWORD PTR __My_data$[ebp]
  00012	89 45 fc	 mov	 DWORD PTR __Myfirst$[ebp], eax

; 1689 :         pointer& _Mylast  = _My_data._Mylast;

  00015	8b 45 f8	 mov	 eax, DWORD PTR __My_data$[ebp]
  00018	83 c0 04	 add	 eax, 4
  0001b	89 45 f0	 mov	 DWORD PTR __Mylast$[ebp], eax

; 1690 :         pointer& _Myend   = _My_data._Myend;

  0001e	8b 45 f8	 mov	 eax, DWORD PTR __My_data$[ebp]
  00021	83 c0 08	 add	 eax, 8
  00024	89 45 ec	 mov	 DWORD PTR __Myend$[ebp], eax

; 1691 : 
; 1692 :         _My_data._Orphan_all();
; 1693 : 
; 1694 :         if (_Myfirst) { // destroy and deallocate old array

  00027	8b 45 fc	 mov	 eax, DWORD PTR __Myfirst$[ebp]
  0002a	83 38 00	 cmp	 DWORD PTR [eax], 0
  0002d	74 74		 je	 SHORT $LN3@Tidy

; 1695 :             _Destroy(_Myfirst, _Mylast);

  0002f	8b 45 f0	 mov	 eax, DWORD PTR __Mylast$[ebp]
  00032	8b 00		 mov	 eax, DWORD PTR [eax]
  00034	89 45 e0	 mov	 DWORD PTR __Last$[ebp], eax
  00037	8b 45 fc	 mov	 eax, DWORD PTR __Myfirst$[ebp]
  0003a	8b 00		 mov	 eax, DWORD PTR [eax]
  0003c	89 45 dc	 mov	 DWORD PTR __First$[ebp], eax

; 1733 :         return _Mypair._Get_first();

  0003f	8b 45 f4	 mov	 eax, DWORD PTR _this$[ebp]
; File C:\Program Files (x86)\Microsoft Visual Studio\2019\Community\VC\Tools\MSVC\14.28.29333\include\xmemory

; 1347 :         return *this;

  00042	89 45 e8	 mov	 DWORD PTR $T4[ebp], eax
; File C:\Program Files (x86)\Microsoft Visual Studio\2019\Community\VC\Tools\MSVC\14.28.29333\include\vector

; 1733 :         return _Mypair._Get_first();

  00045	8b 45 e8	 mov	 eax, DWORD PTR $T4[ebp]
  00048	89 45 e4	 mov	 DWORD PTR $T3[ebp], eax

; 1612 :         _Destroy_range(_First, _Last, _Getal());

  0004b	ff 75 e4	 push	 DWORD PTR $T3[ebp]
  0004e	ff 75 e0	 push	 DWORD PTR __Last$[ebp]
  00051	ff 75 dc	 push	 DWORD PTR __First$[ebp]
  00054	e8 00 00 00 00	 call	 ??$_Destroy_range@V?$allocator@PAVCGravityDecorator@NEffectUpdateDecorator@@@std@@@std@@YAXPAPAVCGravityDecorator@NEffectUpdateDecorator@@QAPAV12@AAV?$allocator@PAVCGravityDecorator@NEffectUpdateDecorator@@@0@@Z ; std::_Destroy_range<std::allocator<NEffectUpdateDecorator::CGravityDecorator *> >
  00059	83 c4 0c	 add	 esp, 12			; 0000000cH

; 1733 :         return _Mypair._Get_first();

  0005c	8b 45 f4	 mov	 eax, DWORD PTR _this$[ebp]
; File C:\Program Files (x86)\Microsoft Visual Studio\2019\Community\VC\Tools\MSVC\14.28.29333\include\xmemory

; 1347 :         return *this;

  0005f	89 45 d8	 mov	 DWORD PTR $T2[ebp], eax
; File C:\Program Files (x86)\Microsoft Visual Studio\2019\Community\VC\Tools\MSVC\14.28.29333\include\vector

; 1733 :         return _Mypair._Get_first();

  00062	8b 45 d8	 mov	 eax, DWORD PTR $T2[ebp]
  00065	89 45 cc	 mov	 DWORD PTR $T1[ebp], eax

; 1696 :             _Getal().deallocate(_Myfirst, static_cast<size_type>(_Myend - _Myfirst));

  00068	8b 45 ec	 mov	 eax, DWORD PTR __Myend$[ebp]
  0006b	8b 4d fc	 mov	 ecx, DWORD PTR __Myfirst$[ebp]
  0006e	8b 00		 mov	 eax, DWORD PTR [eax]
  00070	2b 01		 sub	 eax, DWORD PTR [ecx]
  00072	c1 f8 02	 sar	 eax, 2
  00075	89 45 d4	 mov	 DWORD PTR __Count$[ebp], eax
  00078	8b 45 fc	 mov	 eax, DWORD PTR __Myfirst$[ebp]
  0007b	8b 00		 mov	 eax, DWORD PTR [eax]
  0007d	89 45 d0	 mov	 DWORD PTR __Ptr$[ebp], eax
; File C:\Program Files (x86)\Microsoft Visual Studio\2019\Community\VC\Tools\MSVC\14.28.29333\include\xmemory

; 810  :         _Deallocate<_New_alignof<_Ty>>(_Ptr, sizeof(_Ty) * _Count);

  00080	8b 45 d4	 mov	 eax, DWORD PTR __Count$[ebp]
  00083	c1 e0 02	 shl	 eax, 2
  00086	50		 push	 eax
  00087	ff 75 d0	 push	 DWORD PTR __Ptr$[ebp]
  0008a	e8 00 00 00 00	 call	 ??$_Deallocate@$07$0A@@std@@YAXPAXI@Z ; std::_Deallocate<8,0>
  0008f	59		 pop	 ecx
  00090	59		 pop	 ecx
; File C:\Program Files (x86)\Microsoft Visual Studio\2019\Community\VC\Tools\MSVC\14.28.29333\include\vector

; 1698 :             _Myfirst = pointer();

  00091	8b 45 fc	 mov	 eax, DWORD PTR __Myfirst$[ebp]
  00094	83 20 00	 and	 DWORD PTR [eax], 0

; 1699 :             _Mylast  = pointer();

  00097	8b 45 f0	 mov	 eax, DWORD PTR __Mylast$[ebp]
  0009a	83 20 00	 and	 DWORD PTR [eax], 0

; 1700 :             _Myend   = pointer();

  0009d	8b 45 ec	 mov	 eax, DWORD PTR __Myend$[ebp]
  000a0	83 20 00	 and	 DWORD PTR [eax], 0
$LN3@Tidy:

; 1701 :         }
; 1702 :     }

  000a3	c9		 leave
  000a4	c3		 ret	 0
?_Tidy@?$vector@PAVCGravityDecorator@NEffectUpdateDecorator@@V?$allocator@PAVCGravityDecorator@NEffectUpdateDecorator@@@std@@@std@@AAEXXZ ENDP ; std::vector<NEffectUpdateDecorator::CGravityDecorator *,std::allocator<NEffectUpdateDecorator::CGravityDecorator *> >::_Tidy
_TEXT	ENDS
; Function compile flags: /Odspy
; File C:\Program Files (x86)\Microsoft Visual Studio\2019\Community\VC\Tools\MSVC\14.28.29333\include\vector
; File C:\Program Files (x86)\Microsoft Visual Studio\2019\Community\VC\Tools\MSVC\14.28.29333\include\xmemory
; File C:\Program Files (x86)\Microsoft Visual Studio\2019\Community\VC\Tools\MSVC\14.28.29333\include\vector
;	COMDAT ?clear@?$vector@PAVCGravityDecorator@NEffectUpdateDecorator@@V?$allocator@PAVCGravityDecorator@NEffectUpdateDecorator@@@std@@@std@@QAEXXZ
_TEXT	SEGMENT
__First$ = -32						; size = 4
__Last$ = -28						; size = 4
$T1 = -24						; size = 4
$T2 = -20						; size = 4
__Myfirst$ = -16					; size = 4
__Mylast$ = -12						; size = 4
_this$ = -8						; size = 4
__My_data$ = -4						; size = 4
?clear@?$vector@PAVCGravityDecorator@NEffectUpdateDecorator@@V?$allocator@PAVCGravityDecorator@NEffectUpdateDecorator@@@std@@@std@@QAEXXZ PROC ; std::vector<NEffectUpdateDecorator::CGravityDecorator *,std::allocator<NEffectUpdateDecorator::CGravityDecorator *> >::clear, COMDAT
; _this$ = ecx

; 1383 :     void clear() noexcept { // erase all

  00000	55		 push	 ebp
  00001	8b ec		 mov	 ebp, esp
  00003	83 ec 20	 sub	 esp, 32			; 00000020H
  00006	89 4d f8	 mov	 DWORD PTR _this$[ebp], ecx

; 1384 :         auto& _My_data    = _Mypair._Myval2;

  00009	8b 45 f8	 mov	 eax, DWORD PTR _this$[ebp]
  0000c	89 45 fc	 mov	 DWORD PTR __My_data$[ebp], eax

; 1385 :         pointer& _Myfirst = _My_data._Myfirst;

  0000f	8b 45 fc	 mov	 eax, DWORD PTR __My_data$[ebp]
  00012	89 45 f0	 mov	 DWORD PTR __Myfirst$[ebp], eax

; 1386 :         pointer& _Mylast  = _My_data._Mylast;

  00015	8b 45 fc	 mov	 eax, DWORD PTR __My_data$[ebp]
  00018	83 c0 04	 add	 eax, 4
  0001b	89 45 f4	 mov	 DWORD PTR __Mylast$[ebp], eax

; 1387 : 
; 1388 :         _My_data._Orphan_all();
; 1389 :         _Destroy(_Myfirst, _Mylast);

  0001e	8b 45 f4	 mov	 eax, DWORD PTR __Mylast$[ebp]
  00021	8b 00		 mov	 eax, DWORD PTR [eax]
  00023	89 45 e4	 mov	 DWORD PTR __Last$[ebp], eax
  00026	8b 45 f0	 mov	 eax, DWORD PTR __Myfirst$[ebp]
  00029	8b 00		 mov	 eax, DWORD PTR [eax]
  0002b	89 45 e0	 mov	 DWORD PTR __First$[ebp], eax

; 1733 :         return _Mypair._Get_first();

  0002e	8b 45 f8	 mov	 eax, DWORD PTR _this$[ebp]
; File C:\Program Files (x86)\Microsoft Visual Studio\2019\Community\VC\Tools\MSVC\14.28.29333\include\xmemory

; 1347 :         return *this;

  00031	89 45 ec	 mov	 DWORD PTR $T2[ebp], eax
; File C:\Program Files (x86)\Microsoft Visual Studio\2019\Community\VC\Tools\MSVC\14.28.29333\include\vector

; 1733 :         return _Mypair._Get_first();

  00034	8b 45 ec	 mov	 eax, DWORD PTR $T2[ebp]
  00037	89 45 e8	 mov	 DWORD PTR $T1[ebp], eax

; 1612 :         _Destroy_range(_First, _Last, _Getal());

  0003a	ff 75 e8	 push	 DWORD PTR $T1[ebp]
  0003d	ff 75 e4	 push	 DWORD PTR __Last$[ebp]
  00040	ff 75 e0	 push	 DWORD PTR __First$[ebp]
  00043	e8 00 00 00 00	 call	 ??$_Destroy_range@V?$allocator@PAVCGravityDecorator@NEffectUpdateDecorator@@@std@@@std@@YAXPAPAVCGravityDecorator@NEffectUpdateDecorator@@QAPAV12@AAV?$allocator@PAVCGravityDecorator@NEffectUpdateDecorator@@@0@@Z ; std::_Destroy_range<std::allocator<NEffectUpdateDecorator::CGravityDecorator *> >
  00048	83 c4 0c	 add	 esp, 12			; 0000000cH

; 1390 :         _Mylast = _Myfirst;

  0004b	8b 45 f4	 mov	 eax, DWORD PTR __Mylast$[ebp]
  0004e	8b 4d f0	 mov	 ecx, DWORD PTR __Myfirst$[ebp]
  00051	8b 09		 mov	 ecx, DWORD PTR [ecx]
  00053	89 08		 mov	 DWORD PTR [eax], ecx

; 1391 :     }

  00055	c9		 leave
  00056	c3		 ret	 0
?clear@?$vector@PAVCGravityDecorator@NEffectUpdateDecorator@@V?$allocator@PAVCGravityDecorator@NEffectUpdateDecorator@@@std@@@std@@QAEXXZ ENDP ; std::vector<NEffectUpdateDecorator::CGravityDecorator *,std::allocator<NEffectUpdateDecorator::CGravityDecorator *> >::clear
_TEXT	ENDS
; Function compile flags: /Odspy
; File D:\Metin2 Server Files\mainline\SRC_2014\Metin2Client\eterLib\Pool.h
;	COMDAT ?Delete@?$CDynamicPoolEx@VCGravityDecorator@NEffectUpdateDecorator@@@@KAXPAVCGravityDecorator@NEffectUpdateDecorator@@@Z
_TEXT	SEGMENT
_pkData$ = 8						; size = 4
?Delete@?$CDynamicPoolEx@VCGravityDecorator@NEffectUpdateDecorator@@@@KAXPAVCGravityDecorator@NEffectUpdateDecorator@@@Z PROC ; CDynamicPoolEx<NEffectUpdateDecorator::CGravityDecorator>::Delete, COMDAT

; 223  : 		{

  00000	55		 push	 ebp
  00001	8b ec		 mov	 ebp, esp

; 224  : 			::operator delete(pkData);

  00003	ff 75 08	 push	 DWORD PTR _pkData$[ebp]
  00006	e8 00 00 00 00	 call	 ??3@YAXPAX@Z		; operator delete
  0000b	59		 pop	 ecx

; 225  : 		}

  0000c	5d		 pop	 ebp
  0000d	c3		 ret	 0
?Delete@?$CDynamicPoolEx@VCGravityDecorator@NEffectUpdateDecorator@@@@KAXPAVCGravityDecorator@NEffectUpdateDecorator@@@Z ENDP ; CDynamicPoolEx<NEffectUpdateDecorator::CGravityDecorator>::Delete
_TEXT	ENDS
; Function compile flags: /Odspy
; File D:\Metin2 Server Files\mainline\SRC_2014\Metin2Client\eterLib\Pool.h
; File C:\Program Files (x86)\Microsoft Visual Studio\2019\Community\VC\Tools\MSVC\14.28.29333\include\vector
; File C:\Program Files (x86)\Microsoft Visual Studio\2019\Community\VC\Tools\MSVC\14.28.29333\include\xstddef
; File C:\Program Files (x86)\Microsoft Visual Studio\2019\Community\VC\Tools\MSVC\14.28.29333\include\vector
; File C:\Program Files (x86)\Microsoft Visual Studio\2019\Community\VC\Tools\MSVC\14.28.29333\include\xstddef
; File C:\Program Files (x86)\Microsoft Visual Studio\2019\Community\VC\Tools\MSVC\14.28.29333\include\vector
; File D:\Metin2 Server Files\mainline\SRC_2014\Metin2Client\eterLib\Pool.h
;	COMDAT ?Destroy@?$CDynamicPoolEx@VCGravityDecorator@NEffectUpdateDecorator@@@@QAEXXZ
_TEXT	SEGMENT
$T1 = -44						; size = 4
$T2 = -40						; size = 4
$T3 = -36						; size = 4
$T4 = -32						; size = 4
$T5 = -28						; size = 4
___param0$ = -24					; size = 4
$T6 = -20						; size = 4
___param0$ = -16					; size = 4
__My_data$7 = -12					; size = 4
__My_data$8 = -8					; size = 4
_this$ = -4						; size = 4
?Destroy@?$CDynamicPoolEx@VCGravityDecorator@NEffectUpdateDecorator@@@@QAEXXZ PROC ; CDynamicPoolEx<NEffectUpdateDecorator::CGravityDecorator>::Destroy, COMDAT
; _this$ = ecx

; 150  : 		{

  00000	55		 push	 ebp
  00001	8b ec		 mov	 ebp, esp
  00003	83 ec 2c	 sub	 esp, 44			; 0000002cH
  00006	89 4d fc	 mov	 DWORD PTR _this$[ebp], ecx
; File C:\Program Files (x86)\Microsoft Visual Studio\2019\Community\VC\Tools\MSVC\14.28.29333\include\vector

; 1420 :         auto& _My_data = _Mypair._Myval2;

  00009	8b 45 fc	 mov	 eax, DWORD PTR _this$[ebp]
  0000c	83 c0 04	 add	 eax, 4
  0000f	89 45 f8	 mov	 DWORD PTR __My_data$8[ebp], eax
; File C:\Program Files (x86)\Microsoft Visual Studio\2019\Community\VC\Tools\MSVC\14.28.29333\include\xstddef

; 275  :     return __builtin_addressof(_Val);

  00012	8b 45 f8	 mov	 eax, DWORD PTR __My_data$8[ebp]
  00015	89 45 d8	 mov	 DWORD PTR $T2[ebp], eax
; File C:\Program Files (x86)\Microsoft Visual Studio\2019\Community\VC\Tools\MSVC\14.28.29333\include\vector

; 1421 :         return iterator(_My_data._Mylast, _STD addressof(_My_data));

  00018	8b 45 f8	 mov	 eax, DWORD PTR __My_data$8[ebp]
  0001b	8b 40 04	 mov	 eax, DWORD PTR [eax+4]
  0001e	89 45 f0	 mov	 DWORD PTR ___param0$[ebp], eax

; 42   :     _Vector_const_iterator(_Tptr _Parg, const _Container_base* _Pvector) noexcept : _Ptr(_Parg) {

  00021	8b 45 f0	 mov	 eax, DWORD PTR ___param0$[ebp]
  00024	89 45 ec	 mov	 DWORD PTR $T6[ebp], eax

; 1421 :         return iterator(_My_data._Mylast, _STD addressof(_My_data));

  00027	8d 45 ec	 lea	 eax, DWORD PTR $T6[ebp]
  0002a	89 45 e0	 mov	 DWORD PTR $T4[ebp], eax

; 1410 :         auto& _My_data = _Mypair._Myval2;

  0002d	8b 45 fc	 mov	 eax, DWORD PTR _this$[ebp]
  00030	83 c0 04	 add	 eax, 4
  00033	89 45 f4	 mov	 DWORD PTR __My_data$7[ebp], eax
; File C:\Program Files (x86)\Microsoft Visual Studio\2019\Community\VC\Tools\MSVC\14.28.29333\include\xstddef

; 275  :     return __builtin_addressof(_Val);

  00036	8b 45 f4	 mov	 eax, DWORD PTR __My_data$7[ebp]
  00039	89 45 d4	 mov	 DWORD PTR $T1[ebp], eax
; File C:\Program Files (x86)\Microsoft Visual Studio\2019\Community\VC\Tools\MSVC\14.28.29333\include\vector

; 1411 :         return iterator(_My_data._Myfirst, _STD addressof(_My_data));

  0003c	8b 45 f4	 mov	 eax, DWORD PTR __My_data$7[ebp]
  0003f	8b 00		 mov	 eax, DWORD PTR [eax]
  00041	89 45 e8	 mov	 DWORD PTR ___param0$[ebp], eax

; 42   :     _Vector_const_iterator(_Tptr _Parg, const _Container_base* _Pvector) noexcept : _Ptr(_Parg) {

  00044	8b 45 e8	 mov	 eax, DWORD PTR ___param0$[ebp]
  00047	89 45 e4	 mov	 DWORD PTR $T5[ebp], eax

; 1411 :         return iterator(_My_data._Myfirst, _STD addressof(_My_data));

  0004a	8d 45 e4	 lea	 eax, DWORD PTR $T5[ebp]
  0004d	89 45 dc	 mov	 DWORD PTR $T3[ebp], eax
; File D:\Metin2 Server Files\mainline\SRC_2014\Metin2Client\eterLib\Pool.h

; 160  : 			std::for_each(m_kVct_pkData.begin(), m_kVct_pkData.end(), Delete);

  00050	68 00 00 00 00	 push	 OFFSET ?Delete@?$CDynamicPoolEx@VCGravityDecorator@NEffectUpdateDecorator@@@@KAXPAVCGravityDecorator@NEffectUpdateDecorator@@@Z ; CDynamicPoolEx<NEffectUpdateDecorator::CGravityDecorator>::Delete
  00055	8b 45 e0	 mov	 eax, DWORD PTR $T4[ebp]
  00058	ff 30		 push	 DWORD PTR [eax]
  0005a	8b 45 dc	 mov	 eax, DWORD PTR $T3[ebp]
  0005d	ff 30		 push	 DWORD PTR [eax]
  0005f	e8 00 00 00 00	 call	 ??$for_each@V?$_Vector_iterator@V?$_Vector_val@U?$_Simple_types@PAVCGravityDecorator@NEffectUpdateDecorator@@@std@@@std@@@std@@P6AXPAVCGravityDecorator@NEffectUpdateDecorator@@@Z@std@@YAP6AXPAVCGravityDecorator@NEffectUpdateDecorator@@@ZV?$_Vector_iterator@V?$_Vector_val@U?$_Simple_types@PAVCGravityDecorator@NEffectUpdateDecorator@@@std@@@std@@@0@1P6AX0@Z@Z ; std::for_each<std::_Vector_iterator<std::_Vector_val<std::_Simple_types<NEffectUpdateDecorator::CGravityDecorator *> > >,void (__cdecl*)(NEffectUpdateDecorator::CGravityDecorator *)>
  00064	83 c4 0c	 add	 esp, 12			; 0000000cH

; 161  : 			m_kVct_pkData.clear();

  00067	8b 4d fc	 mov	 ecx, DWORD PTR _this$[ebp]
  0006a	83 c1 04	 add	 ecx, 4
  0006d	e8 00 00 00 00	 call	 ?clear@?$vector@PAVCGravityDecorator@NEffectUpdateDecorator@@V?$allocator@PAVCGravityDecorator@NEffectUpdateDecorator@@@std@@@std@@QAEXXZ ; std::vector<NEffectUpdateDecorator::CGravityDecorator *,std::allocator<NEffectUpdateDecorator::CGravityDecorator *> >::clear

; 162  : 			m_kVct_pkFree.clear();

  00072	8b 4d fc	 mov	 ecx, DWORD PTR _this$[ebp]
  00075	83 c1 10	 add	 ecx, 16			; 00000010H
  00078	e8 00 00 00 00	 call	 ?clear@?$vector@PAVCGravityDecorator@NEffectUpdateDecorator@@V?$allocator@PAVCGravityDecorator@NEffectUpdateDecorator@@@std@@@std@@QAEXXZ ; std::vector<NEffectUpdateDecorator::CGravityDecorator *,std::allocator<NEffectUpdateDecorator::CGravityDecorator *> >::clear

; 163  : 		}

  0007d	c9		 leave
  0007e	c3		 ret	 0
?Destroy@?$CDynamicPoolEx@VCGravityDecorator@NEffectUpdateDecorator@@@@QAEXXZ ENDP ; CDynamicPoolEx<NEffectUpdateDecorator::CGravityDecorator>::Destroy
_TEXT	ENDS
; Function compile flags: /Odspy
; File D:\Metin2 Server Files\mainline\SRC_2014\Metin2Client\eterLib\Pool.h
; File C:\Program Files (x86)\Microsoft Visual Studio\2019\Community\VC\Tools\MSVC\14.28.29333\include\vector
; File D:\Metin2 Server Files\mainline\SRC_2014\Metin2Client\eterLib\Pool.h
; File C:\Program Files (x86)\Microsoft Visual Studio\2019\Community\VC\Tools\MSVC\14.28.29333\include\vector
; File D:\Metin2 Server Files\mainline\SRC_2014\Metin2Client\eterLib\Pool.h
;	COMDAT ??1?$CDynamicPoolEx@VCGravityDecorator@NEffectUpdateDecorator@@@@UAE@XZ
_TEXT	SEGMENT
_this$ = -16						; size = 4
__$EHRec$ = -12						; size = 12
??1?$CDynamicPoolEx@VCGravityDecorator@NEffectUpdateDecorator@@@@UAE@XZ PROC ; CDynamicPoolEx<NEffectUpdateDecorator::CGravityDecorator>::~CDynamicPoolEx<NEffectUpdateDecorator::CGravityDecorator>, COMDAT
; _this$ = ecx

; 132  : 		{

  00000	55		 push	 ebp
  00001	8b ec		 mov	 ebp, esp
  00003	6a ff		 push	 -1
  00005	68 00 00 00 00	 push	 __ehhandler$??1?$CDynamicPoolEx@VCGravityDecorator@NEffectUpdateDecorator@@@@UAE@XZ
  0000a	64 a1 00 00 00
	00		 mov	 eax, DWORD PTR fs:0
  00010	50		 push	 eax
  00011	51		 push	 ecx
  00012	a1 00 00 00 00	 mov	 eax, DWORD PTR ___security_cookie
  00017	33 c5		 xor	 eax, ebp
  00019	50		 push	 eax
  0001a	8d 45 f4	 lea	 eax, DWORD PTR __$EHRec$[ebp]
  0001d	64 a3 00 00 00
	00		 mov	 DWORD PTR fs:0, eax
  00023	89 4d f0	 mov	 DWORD PTR _this$[ebp], ecx
  00026	8b 45 f0	 mov	 eax, DWORD PTR _this$[ebp]
  00029	c7 00 00 00 00
	00		 mov	 DWORD PTR [eax], OFFSET ??_7?$CDynamicPoolEx@VCGravityDecorator@NEffectUpdateDecorator@@@@6B@

; 133  : 			assert(m_kVct_pkFree.size()==m_kVct_pkData.size());
; 134  : 			Destroy();

  0002f	8b 4d f0	 mov	 ecx, DWORD PTR _this$[ebp]
  00032	e8 00 00 00 00	 call	 ?Destroy@?$CDynamicPoolEx@VCGravityDecorator@NEffectUpdateDecorator@@@@QAEXXZ ; CDynamicPoolEx<NEffectUpdateDecorator::CGravityDecorator>::Destroy

; 142  : 		}

  00037	8b 4d f0	 mov	 ecx, DWORD PTR _this$[ebp]
  0003a	83 c1 10	 add	 ecx, 16			; 00000010H
; File C:\Program Files (x86)\Microsoft Visual Studio\2019\Community\VC\Tools\MSVC\14.28.29333\include\vector

; 673  :         _Tidy();

  0003d	e8 00 00 00 00	 call	 ?_Tidy@?$vector@PAVCGravityDecorator@NEffectUpdateDecorator@@V?$allocator@PAVCGravityDecorator@NEffectUpdateDecorator@@@std@@@std@@AAEXXZ ; std::vector<NEffectUpdateDecorator::CGravityDecorator *,std::allocator<NEffectUpdateDecorator::CGravityDecorator *> >::_Tidy
; File D:\Metin2 Server Files\mainline\SRC_2014\Metin2Client\eterLib\Pool.h

; 142  : 		}

  00042	8b 4d f0	 mov	 ecx, DWORD PTR _this$[ebp]
  00045	83 c1 04	 add	 ecx, 4
; File C:\Program Files (x86)\Microsoft Visual Studio\2019\Community\VC\Tools\MSVC\14.28.29333\include\vector

; 673  :         _Tidy();

  00048	e8 00 00 00 00	 call	 ?_Tidy@?$vector@PAVCGravityDecorator@NEffectUpdateDecorator@@V?$allocator@PAVCGravityDecorator@NEffectUpdateDecorator@@@std@@@std@@AAEXXZ ; std::vector<NEffectUpdateDecorator::CGravityDecorator *,std::allocator<NEffectUpdateDecorator::CGravityDecorator *> >::_Tidy
; File D:\Metin2 Server Files\mainline\SRC_2014\Metin2Client\eterLib\Pool.h

; 142  : 		}

  0004d	8b 4d f4	 mov	 ecx, DWORD PTR __$EHRec$[ebp]
  00050	64 89 0d 00 00
	00 00		 mov	 DWORD PTR fs:0, ecx
  00057	59		 pop	 ecx
  00058	c9		 leave
  00059	c3		 ret	 0
  0005a	cc		 int	 3
  0005b	cc		 int	 3
  0005c	cc		 int	 3
  0005d	cc		 int	 3
  0005e	cc		 int	 3
_TEXT	ENDS
;	COMDAT text$x
text$x	SEGMENT
__ehhandler$??1?$CDynamicPoolEx@VCGravityDecorator@NEffectUpdateDecorator@@@@UAE@XZ:
  00000	90		 npad	 1
  00001	90		 npad	 1
  00002	8b 54 24 08	 mov	 edx, DWORD PTR [esp+8]
  00006	8d 42 0c	 lea	 eax, DWORD PTR [edx+12]
  00009	8b 4a f8	 mov	 ecx, DWORD PTR [edx-8]
  0000c	33 c8		 xor	 ecx, eax
  0000e	e8 00 00 00 00	 call	 @__security_check_cookie@4
  00013	b8 00 00 00 00	 mov	 eax, OFFSET __ehfuncinfo$??1?$CDynamicPoolEx@VCGravityDecorator@NEffectUpdateDecorator@@@@UAE@XZ
  00018	e9 00 00 00 00	 jmp	 ___CxxFrameHandler3
text$x	ENDS
??1?$CDynamicPoolEx@VCGravityDecorator@NEffectUpdateDecorator@@@@UAE@XZ ENDP ; CDynamicPoolEx<NEffectUpdateDecorator::CGravityDecorator>::~CDynamicPoolEx<NEffectUpdateDecorator::CGravityDecorator>
; Function compile flags: /Odspy
; File D:\Metin2 Server Files\mainline\SRC_2014\Metin2Client\eterLib\Pool.h
; File C:\Program Files (x86)\Microsoft Visual Studio\2019\Community\VC\Tools\MSVC\14.28.29333\include\vector
; File C:\Program Files (x86)\Microsoft Visual Studio\2019\Community\VC\Tools\MSVC\14.28.29333\include\xmemory
; File C:\Program Files (x86)\Microsoft Visual Studio\2019\Community\VC\Tools\MSVC\14.28.29333\include\vector
; File D:\Metin2 Server Files\mainline\SRC_2014\Metin2Client\eterLib\Pool.h
; File C:\Program Files (x86)\Microsoft Visual Studio\2019\Community\VC\Tools\MSVC\14.28.29333\include\vector
; File C:\Program Files (x86)\Microsoft Visual Studio\2019\Community\VC\Tools\MSVC\14.28.29333\include\xmemory
; File C:\Program Files (x86)\Microsoft Visual Studio\2019\Community\VC\Tools\MSVC\14.28.29333\include\vector
; File D:\Metin2 Server Files\mainline\SRC_2014\Metin2Client\eterLib\Pool.h
;	COMDAT ??0?$CDynamicPoolEx@VCGravityDecorator@NEffectUpdateDecorator@@@@QAE@XZ
_TEXT	SEGMENT
_this$ = -28						; size = 4
_this$ = -24						; size = 4
_this$ = -20						; size = 4
_this$ = -16						; size = 4
_this$1 = -12						; size = 4
_this$2 = -8						; size = 4
_this$ = -4						; size = 4
??0?$CDynamicPoolEx@VCGravityDecorator@NEffectUpdateDecorator@@@@QAE@XZ PROC ; CDynamicPoolEx<NEffectUpdateDecorator::CGravityDecorator>::CDynamicPoolEx<NEffectUpdateDecorator::CGravityDecorator>, COMDAT
; _this$ = ecx

; 126  : 		CDynamicPoolEx()

  00000	55		 push	 ebp
  00001	8b ec		 mov	 ebp, esp
  00003	83 ec 1c	 sub	 esp, 28			; 0000001cH
  00006	89 4d fc	 mov	 DWORD PTR _this$[ebp], ecx

; 127  : 		{

  00009	8b 45 fc	 mov	 eax, DWORD PTR _this$[ebp]
  0000c	c7 00 00 00 00
	00		 mov	 DWORD PTR [eax], OFFSET ??_7?$CDynamicPoolEx@VCGravityDecorator@NEffectUpdateDecorator@@@@6B@
  00012	8b 45 fc	 mov	 eax, DWORD PTR _this$[ebp]
  00015	83 c0 04	 add	 eax, 4
  00018	89 45 f0	 mov	 DWORD PTR _this$[ebp], eax
; File C:\Program Files (x86)\Microsoft Visual Studio\2019\Community\VC\Tools\MSVC\14.28.29333\include\vector

; 445  :     vector() noexcept(is_nothrow_default_constructible_v<_Alty>) : _Mypair(_Zero_then_variadic_args_t{}) {

  0001b	8b 45 f0	 mov	 eax, DWORD PTR _this$[ebp]
  0001e	89 45 ec	 mov	 DWORD PTR _this$[ebp], eax
; File C:\Program Files (x86)\Microsoft Visual Studio\2019\Community\VC\Tools\MSVC\14.28.29333\include\xmemory

; 1339 :         : _Ty1(), _Myval2(_STD forward<_Other2>(_Val2)...) {}

  00021	8b 45 ec	 mov	 eax, DWORD PTR _this$[ebp]
  00024	89 45 f8	 mov	 DWORD PTR _this$2[ebp], eax
; File C:\Program Files (x86)\Microsoft Visual Studio\2019\Community\VC\Tools\MSVC\14.28.29333\include\vector

; 375  :     _Vector_val() noexcept : _Myfirst(), _Mylast(), _Myend() {}

  00027	8b 45 f8	 mov	 eax, DWORD PTR _this$2[ebp]
  0002a	83 20 00	 and	 DWORD PTR [eax], 0
  0002d	8b 45 f8	 mov	 eax, DWORD PTR _this$2[ebp]
  00030	83 60 04 00	 and	 DWORD PTR [eax+4], 0
  00034	8b 45 f8	 mov	 eax, DWORD PTR _this$2[ebp]
  00037	83 60 08 00	 and	 DWORD PTR [eax+8], 0
; File D:\Metin2 Server Files\mainline\SRC_2014\Metin2Client\eterLib\Pool.h

; 127  : 		{

  0003b	8b 45 fc	 mov	 eax, DWORD PTR _this$[ebp]
  0003e	83 c0 10	 add	 eax, 16			; 00000010H
  00041	89 45 e8	 mov	 DWORD PTR _this$[ebp], eax
; File C:\Program Files (x86)\Microsoft Visual Studio\2019\Community\VC\Tools\MSVC\14.28.29333\include\vector

; 445  :     vector() noexcept(is_nothrow_default_constructible_v<_Alty>) : _Mypair(_Zero_then_variadic_args_t{}) {

  00044	8b 45 e8	 mov	 eax, DWORD PTR _this$[ebp]
  00047	89 45 e4	 mov	 DWORD PTR _this$[ebp], eax
; File C:\Program Files (x86)\Microsoft Visual Studio\2019\Community\VC\Tools\MSVC\14.28.29333\include\xmemory

; 1339 :         : _Ty1(), _Myval2(_STD forward<_Other2>(_Val2)...) {}

  0004a	8b 45 e4	 mov	 eax, DWORD PTR _this$[ebp]
  0004d	89 45 f4	 mov	 DWORD PTR _this$1[ebp], eax
; File C:\Program Files (x86)\Microsoft Visual Studio\2019\Community\VC\Tools\MSVC\14.28.29333\include\vector

; 375  :     _Vector_val() noexcept : _Myfirst(), _Mylast(), _Myend() {}

  00050	8b 45 f4	 mov	 eax, DWORD PTR _this$1[ebp]
  00053	83 20 00	 and	 DWORD PTR [eax], 0
  00056	8b 45 f4	 mov	 eax, DWORD PTR _this$1[ebp]
  00059	83 60 04 00	 and	 DWORD PTR [eax+4], 0
  0005d	8b 45 f4	 mov	 eax, DWORD PTR _this$1[ebp]
  00060	83 60 08 00	 and	 DWORD PTR [eax+8], 0
; File D:\Metin2 Server Files\mainline\SRC_2014\Metin2Client\eterLib\Pool.h

; 128  : 			m_uInitCapacity=0;

  00064	8b 45 fc	 mov	 eax, DWORD PTR _this$[ebp]
  00067	83 60 1c 00	 and	 DWORD PTR [eax+28], 0

; 129  : 			m_uUsedCapacity=0;

  0006b	8b 45 fc	 mov	 eax, DWORD PTR _this$[ebp]
  0006e	83 60 20 00	 and	 DWORD PTR [eax+32], 0

; 130  : 		}

  00072	8b 45 fc	 mov	 eax, DWORD PTR _this$[ebp]
  00075	c9		 leave
  00076	c3		 ret	 0
??0?$CDynamicPoolEx@VCGravityDecorator@NEffectUpdateDecorator@@@@QAE@XZ ENDP ; CDynamicPoolEx<NEffectUpdateDecorator::CGravityDecorator>::CDynamicPoolEx<NEffectUpdateDecorator::CGravityDecorator>
_TEXT	ENDS
; Function compile flags: /Odspy
;	COMDAT ??_G?$CDynamicPoolEx@VCRotationDecorator@NEffectUpdateDecorator@@@@UAEPAXI@Z
_TEXT	SEGMENT
_this$ = -4						; size = 4
___flags$ = 8						; size = 4
??_G?$CDynamicPoolEx@VCRotationDecorator@NEffectUpdateDecorator@@@@UAEPAXI@Z PROC ; CDynamicPoolEx<NEffectUpdateDecorator::CRotationDecorator>::`scalar deleting destructor', COMDAT
; _this$ = ecx
  00000	55		 push	 ebp
  00001	8b ec		 mov	 ebp, esp
  00003	51		 push	 ecx
  00004	89 4d fc	 mov	 DWORD PTR _this$[ebp], ecx
  00007	8b 4d fc	 mov	 ecx, DWORD PTR _this$[ebp]
  0000a	e8 00 00 00 00	 call	 ??1?$CDynamicPoolEx@VCRotationDecorator@NEffectUpdateDecorator@@@@UAE@XZ ; CDynamicPoolEx<NEffectUpdateDecorator::CRotationDecorator>::~CDynamicPoolEx<NEffectUpdateDecorator::CRotationDecorator>
  0000f	8b 45 08	 mov	 eax, DWORD PTR ___flags$[ebp]
  00012	83 e0 01	 and	 eax, 1
  00015	74 0c		 je	 SHORT $LN2@scalar
  00017	6a 24		 push	 36			; 00000024H
  00019	ff 75 fc	 push	 DWORD PTR _this$[ebp]
  0001c	e8 00 00 00 00	 call	 ??3@YAXPAXI@Z		; operator delete
  00021	59		 pop	 ecx
  00022	59		 pop	 ecx
$LN2@scalar:
  00023	8b 45 fc	 mov	 eax, DWORD PTR _this$[ebp]
  00026	c9		 leave
  00027	c2 04 00	 ret	 4
??_G?$CDynamicPoolEx@VCRotationDecorator@NEffectUpdateDecorator@@@@UAEPAXI@Z ENDP ; CDynamicPoolEx<NEffectUpdateDecorator::CRotationDecorator>::`scalar deleting destructor'
_TEXT	ENDS
; Function compile flags: /Odspy
; File C:\Program Files (x86)\Microsoft Visual Studio\2019\Community\VC\Tools\MSVC\14.28.29333\include\vector
; File C:\Program Files (x86)\Microsoft Visual Studio\2019\Community\VC\Tools\MSVC\14.28.29333\include\xmemory
; File C:\Program Files (x86)\Microsoft Visual Studio\2019\Community\VC\Tools\MSVC\14.28.29333\include\vector
; File C:\Program Files (x86)\Microsoft Visual Studio\2019\Community\VC\Tools\MSVC\14.28.29333\include\xmemory
; File C:\Program Files (x86)\Microsoft Visual Studio\2019\Community\VC\Tools\MSVC\14.28.29333\include\vector
; File C:\Program Files (x86)\Microsoft Visual Studio\2019\Community\VC\Tools\MSVC\14.28.29333\include\xmemory
; File C:\Program Files (x86)\Microsoft Visual Studio\2019\Community\VC\Tools\MSVC\14.28.29333\include\vector
;	COMDAT ?_Tidy@?$vector@PAVCRotationDecorator@NEffectUpdateDecorator@@V?$allocator@PAVCRotationDecorator@NEffectUpdateDecorator@@@std@@@std@@AAEXXZ
_TEXT	SEGMENT
$T1 = -52						; size = 4
__Ptr$ = -48						; size = 4
__Count$ = -44						; size = 4
$T2 = -40						; size = 4
__First$ = -36						; size = 4
__Last$ = -32						; size = 4
$T3 = -28						; size = 4
$T4 = -24						; size = 4
__Myend$ = -20						; size = 4
__Mylast$ = -16						; size = 4
_this$ = -12						; size = 4
__My_data$ = -8						; size = 4
__Myfirst$ = -4						; size = 4
?_Tidy@?$vector@PAVCRotationDecorator@NEffectUpdateDecorator@@V?$allocator@PAVCRotationDecorator@NEffectUpdateDecorator@@@std@@@std@@AAEXXZ PROC ; std::vector<NEffectUpdateDecorator::CRotationDecorator *,std::allocator<NEffectUpdateDecorator::CRotationDecorator *> >::_Tidy, COMDAT
; _this$ = ecx

; 1686 :     void _Tidy() noexcept { // free all storage

  00000	55		 push	 ebp
  00001	8b ec		 mov	 ebp, esp
  00003	83 ec 34	 sub	 esp, 52			; 00000034H
  00006	89 4d f4	 mov	 DWORD PTR _this$[ebp], ecx

; 1687 :         auto& _My_data    = _Mypair._Myval2;

  00009	8b 45 f4	 mov	 eax, DWORD PTR _this$[ebp]
  0000c	89 45 f8	 mov	 DWORD PTR __My_data$[ebp], eax

; 1688 :         pointer& _Myfirst = _My_data._Myfirst;

  0000f	8b 45 f8	 mov	 eax, DWORD PTR __My_data$[ebp]
  00012	89 45 fc	 mov	 DWORD PTR __Myfirst$[ebp], eax

; 1689 :         pointer& _Mylast  = _My_data._Mylast;

  00015	8b 45 f8	 mov	 eax, DWORD PTR __My_data$[ebp]
  00018	83 c0 04	 add	 eax, 4
  0001b	89 45 f0	 mov	 DWORD PTR __Mylast$[ebp], eax

; 1690 :         pointer& _Myend   = _My_data._Myend;

  0001e	8b 45 f8	 mov	 eax, DWORD PTR __My_data$[ebp]
  00021	83 c0 08	 add	 eax, 8
  00024	89 45 ec	 mov	 DWORD PTR __Myend$[ebp], eax

; 1691 : 
; 1692 :         _My_data._Orphan_all();
; 1693 : 
; 1694 :         if (_Myfirst) { // destroy and deallocate old array

  00027	8b 45 fc	 mov	 eax, DWORD PTR __Myfirst$[ebp]
  0002a	83 38 00	 cmp	 DWORD PTR [eax], 0
  0002d	74 74		 je	 SHORT $LN3@Tidy

; 1695 :             _Destroy(_Myfirst, _Mylast);

  0002f	8b 45 f0	 mov	 eax, DWORD PTR __Mylast$[ebp]
  00032	8b 00		 mov	 eax, DWORD PTR [eax]
  00034	89 45 e0	 mov	 DWORD PTR __Last$[ebp], eax
  00037	8b 45 fc	 mov	 eax, DWORD PTR __Myfirst$[ebp]
  0003a	8b 00		 mov	 eax, DWORD PTR [eax]
  0003c	89 45 dc	 mov	 DWORD PTR __First$[ebp], eax

; 1733 :         return _Mypair._Get_first();

  0003f	8b 45 f4	 mov	 eax, DWORD PTR _this$[ebp]
; File C:\Program Files (x86)\Microsoft Visual Studio\2019\Community\VC\Tools\MSVC\14.28.29333\include\xmemory

; 1347 :         return *this;

  00042	89 45 e8	 mov	 DWORD PTR $T4[ebp], eax
; File C:\Program Files (x86)\Microsoft Visual Studio\2019\Community\VC\Tools\MSVC\14.28.29333\include\vector

; 1733 :         return _Mypair._Get_first();

  00045	8b 45 e8	 mov	 eax, DWORD PTR $T4[ebp]
  00048	89 45 e4	 mov	 DWORD PTR $T3[ebp], eax

; 1612 :         _Destroy_range(_First, _Last, _Getal());

  0004b	ff 75 e4	 push	 DWORD PTR $T3[ebp]
  0004e	ff 75 e0	 push	 DWORD PTR __Last$[ebp]
  00051	ff 75 dc	 push	 DWORD PTR __First$[ebp]
  00054	e8 00 00 00 00	 call	 ??$_Destroy_range@V?$allocator@PAVCRotationDecorator@NEffectUpdateDecorator@@@std@@@std@@YAXPAPAVCRotationDecorator@NEffectUpdateDecorator@@QAPAV12@AAV?$allocator@PAVCRotationDecorator@NEffectUpdateDecorator@@@0@@Z ; std::_Destroy_range<std::allocator<NEffectUpdateDecorator::CRotationDecorator *> >
  00059	83 c4 0c	 add	 esp, 12			; 0000000cH

; 1733 :         return _Mypair._Get_first();

  0005c	8b 45 f4	 mov	 eax, DWORD PTR _this$[ebp]
; File C:\Program Files (x86)\Microsoft Visual Studio\2019\Community\VC\Tools\MSVC\14.28.29333\include\xmemory

; 1347 :         return *this;

  0005f	89 45 d8	 mov	 DWORD PTR $T2[ebp], eax
; File C:\Program Files (x86)\Microsoft Visual Studio\2019\Community\VC\Tools\MSVC\14.28.29333\include\vector

; 1733 :         return _Mypair._Get_first();

  00062	8b 45 d8	 mov	 eax, DWORD PTR $T2[ebp]
  00065	89 45 cc	 mov	 DWORD PTR $T1[ebp], eax

; 1696 :             _Getal().deallocate(_Myfirst, static_cast<size_type>(_Myend - _Myfirst));

  00068	8b 45 ec	 mov	 eax, DWORD PTR __Myend$[ebp]
  0006b	8b 4d fc	 mov	 ecx, DWORD PTR __Myfirst$[ebp]
  0006e	8b 00		 mov	 eax, DWORD PTR [eax]
  00070	2b 01		 sub	 eax, DWORD PTR [ecx]
  00072	c1 f8 02	 sar	 eax, 2
  00075	89 45 d4	 mov	 DWORD PTR __Count$[ebp], eax
  00078	8b 45 fc	 mov	 eax, DWORD PTR __Myfirst$[ebp]
  0007b	8b 00		 mov	 eax, DWORD PTR [eax]
  0007d	89 45 d0	 mov	 DWORD PTR __Ptr$[ebp], eax
; File C:\Program Files (x86)\Microsoft Visual Studio\2019\Community\VC\Tools\MSVC\14.28.29333\include\xmemory

; 810  :         _Deallocate<_New_alignof<_Ty>>(_Ptr, sizeof(_Ty) * _Count);

  00080	8b 45 d4	 mov	 eax, DWORD PTR __Count$[ebp]
  00083	c1 e0 02	 shl	 eax, 2
  00086	50		 push	 eax
  00087	ff 75 d0	 push	 DWORD PTR __Ptr$[ebp]
  0008a	e8 00 00 00 00	 call	 ??$_Deallocate@$07$0A@@std@@YAXPAXI@Z ; std::_Deallocate<8,0>
  0008f	59		 pop	 ecx
  00090	59		 pop	 ecx
; File C:\Program Files (x86)\Microsoft Visual Studio\2019\Community\VC\Tools\MSVC\14.28.29333\include\vector

; 1698 :             _Myfirst = pointer();

  00091	8b 45 fc	 mov	 eax, DWORD PTR __Myfirst$[ebp]
  00094	83 20 00	 and	 DWORD PTR [eax], 0

; 1699 :             _Mylast  = pointer();

  00097	8b 45 f0	 mov	 eax, DWORD PTR __Mylast$[ebp]
  0009a	83 20 00	 and	 DWORD PTR [eax], 0

; 1700 :             _Myend   = pointer();

  0009d	8b 45 ec	 mov	 eax, DWORD PTR __Myend$[ebp]
  000a0	83 20 00	 and	 DWORD PTR [eax], 0
$LN3@Tidy:

; 1701 :         }
; 1702 :     }

  000a3	c9		 leave
  000a4	c3		 ret	 0
?_Tidy@?$vector@PAVCRotationDecorator@NEffectUpdateDecorator@@V?$allocator@PAVCRotationDecorator@NEffectUpdateDecorator@@@std@@@std@@AAEXXZ ENDP ; std::vector<NEffectUpdateDecorator::CRotationDecorator *,std::allocator<NEffectUpdateDecorator::CRotationDecorator *> >::_Tidy
_TEXT	ENDS
; Function compile flags: /Odspy
; File C:\Program Files (x86)\Microsoft Visual Studio\2019\Community\VC\Tools\MSVC\14.28.29333\include\vector
; File C:\Program Files (x86)\Microsoft Visual Studio\2019\Community\VC\Tools\MSVC\14.28.29333\include\xmemory
; File C:\Program Files (x86)\Microsoft Visual Studio\2019\Community\VC\Tools\MSVC\14.28.29333\include\vector
;	COMDAT ?clear@?$vector@PAVCRotationDecorator@NEffectUpdateDecorator@@V?$allocator@PAVCRotationDecorator@NEffectUpdateDecorator@@@std@@@std@@QAEXXZ
_TEXT	SEGMENT
__First$ = -32						; size = 4
__Last$ = -28						; size = 4
$T1 = -24						; size = 4
$T2 = -20						; size = 4
__Myfirst$ = -16					; size = 4
__Mylast$ = -12						; size = 4
_this$ = -8						; size = 4
__My_data$ = -4						; size = 4
?clear@?$vector@PAVCRotationDecorator@NEffectUpdateDecorator@@V?$allocator@PAVCRotationDecorator@NEffectUpdateDecorator@@@std@@@std@@QAEXXZ PROC ; std::vector<NEffectUpdateDecorator::CRotationDecorator *,std::allocator<NEffectUpdateDecorator::CRotationDecorator *> >::clear, COMDAT
; _this$ = ecx

; 1383 :     void clear() noexcept { // erase all

  00000	55		 push	 ebp
  00001	8b ec		 mov	 ebp, esp
  00003	83 ec 20	 sub	 esp, 32			; 00000020H
  00006	89 4d f8	 mov	 DWORD PTR _this$[ebp], ecx

; 1384 :         auto& _My_data    = _Mypair._Myval2;

  00009	8b 45 f8	 mov	 eax, DWORD PTR _this$[ebp]
  0000c	89 45 fc	 mov	 DWORD PTR __My_data$[ebp], eax

; 1385 :         pointer& _Myfirst = _My_data._Myfirst;

  0000f	8b 45 fc	 mov	 eax, DWORD PTR __My_data$[ebp]
  00012	89 45 f0	 mov	 DWORD PTR __Myfirst$[ebp], eax

; 1386 :         pointer& _Mylast  = _My_data._Mylast;

  00015	8b 45 fc	 mov	 eax, DWORD PTR __My_data$[ebp]
  00018	83 c0 04	 add	 eax, 4
  0001b	89 45 f4	 mov	 DWORD PTR __Mylast$[ebp], eax

; 1387 : 
; 1388 :         _My_data._Orphan_all();
; 1389 :         _Destroy(_Myfirst, _Mylast);

  0001e	8b 45 f4	 mov	 eax, DWORD PTR __Mylast$[ebp]
  00021	8b 00		 mov	 eax, DWORD PTR [eax]
  00023	89 45 e4	 mov	 DWORD PTR __Last$[ebp], eax
  00026	8b 45 f0	 mov	 eax, DWORD PTR __Myfirst$[ebp]
  00029	8b 00		 mov	 eax, DWORD PTR [eax]
  0002b	89 45 e0	 mov	 DWORD PTR __First$[ebp], eax

; 1733 :         return _Mypair._Get_first();

  0002e	8b 45 f8	 mov	 eax, DWORD PTR _this$[ebp]
; File C:\Program Files (x86)\Microsoft Visual Studio\2019\Community\VC\Tools\MSVC\14.28.29333\include\xmemory

; 1347 :         return *this;

  00031	89 45 ec	 mov	 DWORD PTR $T2[ebp], eax
; File C:\Program Files (x86)\Microsoft Visual Studio\2019\Community\VC\Tools\MSVC\14.28.29333\include\vector

; 1733 :         return _Mypair._Get_first();

  00034	8b 45 ec	 mov	 eax, DWORD PTR $T2[ebp]
  00037	89 45 e8	 mov	 DWORD PTR $T1[ebp], eax

; 1612 :         _Destroy_range(_First, _Last, _Getal());

  0003a	ff 75 e8	 push	 DWORD PTR $T1[ebp]
  0003d	ff 75 e4	 push	 DWORD PTR __Last$[ebp]
  00040	ff 75 e0	 push	 DWORD PTR __First$[ebp]
  00043	e8 00 00 00 00	 call	 ??$_Destroy_range@V?$allocator@PAVCRotationDecorator@NEffectUpdateDecorator@@@std@@@std@@YAXPAPAVCRotationDecorator@NEffectUpdateDecorator@@QAPAV12@AAV?$allocator@PAVCRotationDecorator@NEffectUpdateDecorator@@@0@@Z ; std::_Destroy_range<std::allocator<NEffectUpdateDecorator::CRotationDecorator *> >
  00048	83 c4 0c	 add	 esp, 12			; 0000000cH

; 1390 :         _Mylast = _Myfirst;

  0004b	8b 45 f4	 mov	 eax, DWORD PTR __Mylast$[ebp]
  0004e	8b 4d f0	 mov	 ecx, DWORD PTR __Myfirst$[ebp]
  00051	8b 09		 mov	 ecx, DWORD PTR [ecx]
  00053	89 08		 mov	 DWORD PTR [eax], ecx

; 1391 :     }

  00055	c9		 leave
  00056	c3		 ret	 0
?clear@?$vector@PAVCRotationDecorator@NEffectUpdateDecorator@@V?$allocator@PAVCRotationDecorator@NEffectUpdateDecorator@@@std@@@std@@QAEXXZ ENDP ; std::vector<NEffectUpdateDecorator::CRotationDecorator *,std::allocator<NEffectUpdateDecorator::CRotationDecorator *> >::clear
_TEXT	ENDS
; Function compile flags: /Odspy
; File D:\Metin2 Server Files\mainline\SRC_2014\Metin2Client\eterLib\Pool.h
;	COMDAT ?Delete@?$CDynamicPoolEx@VCRotationDecorator@NEffectUpdateDecorator@@@@KAXPAVCRotationDecorator@NEffectUpdateDecorator@@@Z
_TEXT	SEGMENT
_pkData$ = 8						; size = 4
?Delete@?$CDynamicPoolEx@VCRotationDecorator@NEffectUpdateDecorator@@@@KAXPAVCRotationDecorator@NEffectUpdateDecorator@@@Z PROC ; CDynamicPoolEx<NEffectUpdateDecorator::CRotationDecorator>::Delete, COMDAT

; 223  : 		{

  00000	55		 push	 ebp
  00001	8b ec		 mov	 ebp, esp

; 224  : 			::operator delete(pkData);

  00003	ff 75 08	 push	 DWORD PTR _pkData$[ebp]
  00006	e8 00 00 00 00	 call	 ??3@YAXPAX@Z		; operator delete
  0000b	59		 pop	 ecx

; 225  : 		}

  0000c	5d		 pop	 ebp
  0000d	c3		 ret	 0
?Delete@?$CDynamicPoolEx@VCRotationDecorator@NEffectUpdateDecorator@@@@KAXPAVCRotationDecorator@NEffectUpdateDecorator@@@Z ENDP ; CDynamicPoolEx<NEffectUpdateDecorator::CRotationDecorator>::Delete
_TEXT	ENDS
; Function compile flags: /Odspy
; File D:\Metin2 Server Files\mainline\SRC_2014\Metin2Client\eterLib\Pool.h
; File C:\Program Files (x86)\Microsoft Visual Studio\2019\Community\VC\Tools\MSVC\14.28.29333\include\vector
; File C:\Program Files (x86)\Microsoft Visual Studio\2019\Community\VC\Tools\MSVC\14.28.29333\include\xstddef
; File C:\Program Files (x86)\Microsoft Visual Studio\2019\Community\VC\Tools\MSVC\14.28.29333\include\vector
; File C:\Program Files (x86)\Microsoft Visual Studio\2019\Community\VC\Tools\MSVC\14.28.29333\include\xstddef
; File C:\Program Files (x86)\Microsoft Visual Studio\2019\Community\VC\Tools\MSVC\14.28.29333\include\vector
; File D:\Metin2 Server Files\mainline\SRC_2014\Metin2Client\eterLib\Pool.h
;	COMDAT ?Destroy@?$CDynamicPoolEx@VCRotationDecorator@NEffectUpdateDecorator@@@@QAEXXZ
_TEXT	SEGMENT
$T1 = -44						; size = 4
$T2 = -40						; size = 4
$T3 = -36						; size = 4
$T4 = -32						; size = 4
$T5 = -28						; size = 4
___param0$ = -24					; size = 4
$T6 = -20						; size = 4
___param0$ = -16					; size = 4
__My_data$7 = -12					; size = 4
__My_data$8 = -8					; size = 4
_this$ = -4						; size = 4
?Destroy@?$CDynamicPoolEx@VCRotationDecorator@NEffectUpdateDecorator@@@@QAEXXZ PROC ; CDynamicPoolEx<NEffectUpdateDecorator::CRotationDecorator>::Destroy, COMDAT
; _this$ = ecx

; 150  : 		{

  00000	55		 push	 ebp
  00001	8b ec		 mov	 ebp, esp
  00003	83 ec 2c	 sub	 esp, 44			; 0000002cH
  00006	89 4d fc	 mov	 DWORD PTR _this$[ebp], ecx
; File C:\Program Files (x86)\Microsoft Visual Studio\2019\Community\VC\Tools\MSVC\14.28.29333\include\vector

; 1420 :         auto& _My_data = _Mypair._Myval2;

  00009	8b 45 fc	 mov	 eax, DWORD PTR _this$[ebp]
  0000c	83 c0 04	 add	 eax, 4
  0000f	89 45 f8	 mov	 DWORD PTR __My_data$8[ebp], eax
; File C:\Program Files (x86)\Microsoft Visual Studio\2019\Community\VC\Tools\MSVC\14.28.29333\include\xstddef

; 275  :     return __builtin_addressof(_Val);

  00012	8b 45 f8	 mov	 eax, DWORD PTR __My_data$8[ebp]
  00015	89 45 d8	 mov	 DWORD PTR $T2[ebp], eax
; File C:\Program Files (x86)\Microsoft Visual Studio\2019\Community\VC\Tools\MSVC\14.28.29333\include\vector

; 1421 :         return iterator(_My_data._Mylast, _STD addressof(_My_data));

  00018	8b 45 f8	 mov	 eax, DWORD PTR __My_data$8[ebp]
  0001b	8b 40 04	 mov	 eax, DWORD PTR [eax+4]
  0001e	89 45 f0	 mov	 DWORD PTR ___param0$[ebp], eax

; 42   :     _Vector_const_iterator(_Tptr _Parg, const _Container_base* _Pvector) noexcept : _Ptr(_Parg) {

  00021	8b 45 f0	 mov	 eax, DWORD PTR ___param0$[ebp]
  00024	89 45 ec	 mov	 DWORD PTR $T6[ebp], eax

; 1421 :         return iterator(_My_data._Mylast, _STD addressof(_My_data));

  00027	8d 45 ec	 lea	 eax, DWORD PTR $T6[ebp]
  0002a	89 45 e0	 mov	 DWORD PTR $T4[ebp], eax

; 1410 :         auto& _My_data = _Mypair._Myval2;

  0002d	8b 45 fc	 mov	 eax, DWORD PTR _this$[ebp]
  00030	83 c0 04	 add	 eax, 4
  00033	89 45 f4	 mov	 DWORD PTR __My_data$7[ebp], eax
; File C:\Program Files (x86)\Microsoft Visual Studio\2019\Community\VC\Tools\MSVC\14.28.29333\include\xstddef

; 275  :     return __builtin_addressof(_Val);

  00036	8b 45 f4	 mov	 eax, DWORD PTR __My_data$7[ebp]
  00039	89 45 d4	 mov	 DWORD PTR $T1[ebp], eax
; File C:\Program Files (x86)\Microsoft Visual Studio\2019\Community\VC\Tools\MSVC\14.28.29333\include\vector

; 1411 :         return iterator(_My_data._Myfirst, _STD addressof(_My_data));

  0003c	8b 45 f4	 mov	 eax, DWORD PTR __My_data$7[ebp]
  0003f	8b 00		 mov	 eax, DWORD PTR [eax]
  00041	89 45 e8	 mov	 DWORD PTR ___param0$[ebp], eax

; 42   :     _Vector_const_iterator(_Tptr _Parg, const _Container_base* _Pvector) noexcept : _Ptr(_Parg) {

  00044	8b 45 e8	 mov	 eax, DWORD PTR ___param0$[ebp]
  00047	89 45 e4	 mov	 DWORD PTR $T5[ebp], eax

; 1411 :         return iterator(_My_data._Myfirst, _STD addressof(_My_data));

  0004a	8d 45 e4	 lea	 eax, DWORD PTR $T5[ebp]
  0004d	89 45 dc	 mov	 DWORD PTR $T3[ebp], eax
; File D:\Metin2 Server Files\mainline\SRC_2014\Metin2Client\eterLib\Pool.h

; 160  : 			std::for_each(m_kVct_pkData.begin(), m_kVct_pkData.end(), Delete);

  00050	68 00 00 00 00	 push	 OFFSET ?Delete@?$CDynamicPoolEx@VCRotationDecorator@NEffectUpdateDecorator@@@@KAXPAVCRotationDecorator@NEffectUpdateDecorator@@@Z ; CDynamicPoolEx<NEffectUpdateDecorator::CRotationDecorator>::Delete
  00055	8b 45 e0	 mov	 eax, DWORD PTR $T4[ebp]
  00058	ff 30		 push	 DWORD PTR [eax]
  0005a	8b 45 dc	 mov	 eax, DWORD PTR $T3[ebp]
  0005d	ff 30		 push	 DWORD PTR [eax]
  0005f	e8 00 00 00 00	 call	 ??$for_each@V?$_Vector_iterator@V?$_Vector_val@U?$_Simple_types@PAVCRotationDecorator@NEffectUpdateDecorator@@@std@@@std@@@std@@P6AXPAVCRotationDecorator@NEffectUpdateDecorator@@@Z@std@@YAP6AXPAVCRotationDecorator@NEffectUpdateDecorator@@@ZV?$_Vector_iterator@V?$_Vector_val@U?$_Simple_types@PAVCRotationDecorator@NEffectUpdateDecorator@@@std@@@std@@@0@1P6AX0@Z@Z ; std::for_each<std::_Vector_iterator<std::_Vector_val<std::_Simple_types<NEffectUpdateDecorator::CRotationDecorator *> > >,void (__cdecl*)(NEffectUpdateDecorator::CRotationDecorator *)>
  00064	83 c4 0c	 add	 esp, 12			; 0000000cH

; 161  : 			m_kVct_pkData.clear();

  00067	8b 4d fc	 mov	 ecx, DWORD PTR _this$[ebp]
  0006a	83 c1 04	 add	 ecx, 4
  0006d	e8 00 00 00 00	 call	 ?clear@?$vector@PAVCRotationDecorator@NEffectUpdateDecorator@@V?$allocator@PAVCRotationDecorator@NEffectUpdateDecorator@@@std@@@std@@QAEXXZ ; std::vector<NEffectUpdateDecorator::CRotationDecorator *,std::allocator<NEffectUpdateDecorator::CRotationDecorator *> >::clear

; 162  : 			m_kVct_pkFree.clear();

  00072	8b 4d fc	 mov	 ecx, DWORD PTR _this$[ebp]
  00075	83 c1 10	 add	 ecx, 16			; 00000010H
  00078	e8 00 00 00 00	 call	 ?clear@?$vector@PAVCRotationDecorator@NEffectUpdateDecorator@@V?$allocator@PAVCRotationDecorator@NEffectUpdateDecorator@@@std@@@std@@QAEXXZ ; std::vector<NEffectUpdateDecorator::CRotationDecorator *,std::allocator<NEffectUpdateDecorator::CRotationDecorator *> >::clear

; 163  : 		}

  0007d	c9		 leave
  0007e	c3		 ret	 0
?Destroy@?$CDynamicPoolEx@VCRotationDecorator@NEffectUpdateDecorator@@@@QAEXXZ ENDP ; CDynamicPoolEx<NEffectUpdateDecorator::CRotationDecorator>::Destroy
_TEXT	ENDS
; Function compile flags: /Odspy
; File D:\Metin2 Server Files\mainline\SRC_2014\Metin2Client\eterLib\Pool.h
; File C:\Program Files (x86)\Microsoft Visual Studio\2019\Community\VC\Tools\MSVC\14.28.29333\include\vector
; File D:\Metin2 Server Files\mainline\SRC_2014\Metin2Client\eterLib\Pool.h
; File C:\Program Files (x86)\Microsoft Visual Studio\2019\Community\VC\Tools\MSVC\14.28.29333\include\vector
; File D:\Metin2 Server Files\mainline\SRC_2014\Metin2Client\eterLib\Pool.h
;	COMDAT ??1?$CDynamicPoolEx@VCRotationDecorator@NEffectUpdateDecorator@@@@UAE@XZ
_TEXT	SEGMENT
_this$ = -16						; size = 4
__$EHRec$ = -12						; size = 12
??1?$CDynamicPoolEx@VCRotationDecorator@NEffectUpdateDecorator@@@@UAE@XZ PROC ; CDynamicPoolEx<NEffectUpdateDecorator::CRotationDecorator>::~CDynamicPoolEx<NEffectUpdateDecorator::CRotationDecorator>, COMDAT
; _this$ = ecx

; 132  : 		{

  00000	55		 push	 ebp
  00001	8b ec		 mov	 ebp, esp
  00003	6a ff		 push	 -1
  00005	68 00 00 00 00	 push	 __ehhandler$??1?$CDynamicPoolEx@VCRotationDecorator@NEffectUpdateDecorator@@@@UAE@XZ
  0000a	64 a1 00 00 00
	00		 mov	 eax, DWORD PTR fs:0
  00010	50		 push	 eax
  00011	51		 push	 ecx
  00012	a1 00 00 00 00	 mov	 eax, DWORD PTR ___security_cookie
  00017	33 c5		 xor	 eax, ebp
  00019	50		 push	 eax
  0001a	8d 45 f4	 lea	 eax, DWORD PTR __$EHRec$[ebp]
  0001d	64 a3 00 00 00
	00		 mov	 DWORD PTR fs:0, eax
  00023	89 4d f0	 mov	 DWORD PTR _this$[ebp], ecx
  00026	8b 45 f0	 mov	 eax, DWORD PTR _this$[ebp]
  00029	c7 00 00 00 00
	00		 mov	 DWORD PTR [eax], OFFSET ??_7?$CDynamicPoolEx@VCRotationDecorator@NEffectUpdateDecorator@@@@6B@

; 133  : 			assert(m_kVct_pkFree.size()==m_kVct_pkData.size());
; 134  : 			Destroy();

  0002f	8b 4d f0	 mov	 ecx, DWORD PTR _this$[ebp]
  00032	e8 00 00 00 00	 call	 ?Destroy@?$CDynamicPoolEx@VCRotationDecorator@NEffectUpdateDecorator@@@@QAEXXZ ; CDynamicPoolEx<NEffectUpdateDecorator::CRotationDecorator>::Destroy

; 142  : 		}

  00037	8b 4d f0	 mov	 ecx, DWORD PTR _this$[ebp]
  0003a	83 c1 10	 add	 ecx, 16			; 00000010H
; File C:\Program Files (x86)\Microsoft Visual Studio\2019\Community\VC\Tools\MSVC\14.28.29333\include\vector

; 673  :         _Tidy();

  0003d	e8 00 00 00 00	 call	 ?_Tidy@?$vector@PAVCRotationDecorator@NEffectUpdateDecorator@@V?$allocator@PAVCRotationDecorator@NEffectUpdateDecorator@@@std@@@std@@AAEXXZ ; std::vector<NEffectUpdateDecorator::CRotationDecorator *,std::allocator<NEffectUpdateDecorator::CRotationDecorator *> >::_Tidy
; File D:\Metin2 Server Files\mainline\SRC_2014\Metin2Client\eterLib\Pool.h

; 142  : 		}

  00042	8b 4d f0	 mov	 ecx, DWORD PTR _this$[ebp]
  00045	83 c1 04	 add	 ecx, 4
; File C:\Program Files (x86)\Microsoft Visual Studio\2019\Community\VC\Tools\MSVC\14.28.29333\include\vector

; 673  :         _Tidy();

  00048	e8 00 00 00 00	 call	 ?_Tidy@?$vector@PAVCRotationDecorator@NEffectUpdateDecorator@@V?$allocator@PAVCRotationDecorator@NEffectUpdateDecorator@@@std@@@std@@AAEXXZ ; std::vector<NEffectUpdateDecorator::CRotationDecorator *,std::allocator<NEffectUpdateDecorator::CRotationDecorator *> >::_Tidy
; File D:\Metin2 Server Files\mainline\SRC_2014\Metin2Client\eterLib\Pool.h

; 142  : 		}

  0004d	8b 4d f4	 mov	 ecx, DWORD PTR __$EHRec$[ebp]
  00050	64 89 0d 00 00
	00 00		 mov	 DWORD PTR fs:0, ecx
  00057	59		 pop	 ecx
  00058	c9		 leave
  00059	c3		 ret	 0
  0005a	cc		 int	 3
  0005b	cc		 int	 3
  0005c	cc		 int	 3
  0005d	cc		 int	 3
  0005e	cc		 int	 3
_TEXT	ENDS
;	COMDAT text$x
text$x	SEGMENT
__ehhandler$??1?$CDynamicPoolEx@VCRotationDecorator@NEffectUpdateDecorator@@@@UAE@XZ:
  00000	90		 npad	 1
  00001	90		 npad	 1
  00002	8b 54 24 08	 mov	 edx, DWORD PTR [esp+8]
  00006	8d 42 0c	 lea	 eax, DWORD PTR [edx+12]
  00009	8b 4a f8	 mov	 ecx, DWORD PTR [edx-8]
  0000c	33 c8		 xor	 ecx, eax
  0000e	e8 00 00 00 00	 call	 @__security_check_cookie@4
  00013	b8 00 00 00 00	 mov	 eax, OFFSET __ehfuncinfo$??1?$CDynamicPoolEx@VCRotationDecorator@NEffectUpdateDecorator@@@@UAE@XZ
  00018	e9 00 00 00 00	 jmp	 ___CxxFrameHandler3
text$x	ENDS
??1?$CDynamicPoolEx@VCRotationDecorator@NEffectUpdateDecorator@@@@UAE@XZ ENDP ; CDynamicPoolEx<NEffectUpdateDecorator::CRotationDecorator>::~CDynamicPoolEx<NEffectUpdateDecorator::CRotationDecorator>
; Function compile flags: /Odspy
; File D:\Metin2 Server Files\mainline\SRC_2014\Metin2Client\eterLib\Pool.h
; File C:\Program Files (x86)\Microsoft Visual Studio\2019\Community\VC\Tools\MSVC\14.28.29333\include\vector
; File C:\Program Files (x86)\Microsoft Visual Studio\2019\Community\VC\Tools\MSVC\14.28.29333\include\xmemory
; File C:\Program Files (x86)\Microsoft Visual Studio\2019\Community\VC\Tools\MSVC\14.28.29333\include\vector
; File D:\Metin2 Server Files\mainline\SRC_2014\Metin2Client\eterLib\Pool.h
; File C:\Program Files (x86)\Microsoft Visual Studio\2019\Community\VC\Tools\MSVC\14.28.29333\include\vector
; File C:\Program Files (x86)\Microsoft Visual Studio\2019\Community\VC\Tools\MSVC\14.28.29333\include\xmemory
; File C:\Program Files (x86)\Microsoft Visual Studio\2019\Community\VC\Tools\MSVC\14.28.29333\include\vector
; File D:\Metin2 Server Files\mainline\SRC_2014\Metin2Client\eterLib\Pool.h
;	COMDAT ??0?$CDynamicPoolEx@VCRotationDecorator@NEffectUpdateDecorator@@@@QAE@XZ
_TEXT	SEGMENT
_this$ = -28						; size = 4
_this$ = -24						; size = 4
_this$ = -20						; size = 4
_this$ = -16						; size = 4
_this$1 = -12						; size = 4
_this$2 = -8						; size = 4
_this$ = -4						; size = 4
??0?$CDynamicPoolEx@VCRotationDecorator@NEffectUpdateDecorator@@@@QAE@XZ PROC ; CDynamicPoolEx<NEffectUpdateDecorator::CRotationDecorator>::CDynamicPoolEx<NEffectUpdateDecorator::CRotationDecorator>, COMDAT
; _this$ = ecx

; 126  : 		CDynamicPoolEx()

  00000	55		 push	 ebp
  00001	8b ec		 mov	 ebp, esp
  00003	83 ec 1c	 sub	 esp, 28			; 0000001cH
  00006	89 4d fc	 mov	 DWORD PTR _this$[ebp], ecx

; 127  : 		{

  00009	8b 45 fc	 mov	 eax, DWORD PTR _this$[ebp]
  0000c	c7 00 00 00 00
	00		 mov	 DWORD PTR [eax], OFFSET ??_7?$CDynamicPoolEx@VCRotationDecorator@NEffectUpdateDecorator@@@@6B@
  00012	8b 45 fc	 mov	 eax, DWORD PTR _this$[ebp]
  00015	83 c0 04	 add	 eax, 4
  00018	89 45 f0	 mov	 DWORD PTR _this$[ebp], eax
; File C:\Program Files (x86)\Microsoft Visual Studio\2019\Community\VC\Tools\MSVC\14.28.29333\include\vector

; 445  :     vector() noexcept(is_nothrow_default_constructible_v<_Alty>) : _Mypair(_Zero_then_variadic_args_t{}) {

  0001b	8b 45 f0	 mov	 eax, DWORD PTR _this$[ebp]
  0001e	89 45 ec	 mov	 DWORD PTR _this$[ebp], eax
; File C:\Program Files (x86)\Microsoft Visual Studio\2019\Community\VC\Tools\MSVC\14.28.29333\include\xmemory

; 1339 :         : _Ty1(), _Myval2(_STD forward<_Other2>(_Val2)...) {}

  00021	8b 45 ec	 mov	 eax, DWORD PTR _this$[ebp]
  00024	89 45 f8	 mov	 DWORD PTR _this$2[ebp], eax
; File C:\Program Files (x86)\Microsoft Visual Studio\2019\Community\VC\Tools\MSVC\14.28.29333\include\vector

; 375  :     _Vector_val() noexcept : _Myfirst(), _Mylast(), _Myend() {}

  00027	8b 45 f8	 mov	 eax, DWORD PTR _this$2[ebp]
  0002a	83 20 00	 and	 DWORD PTR [eax], 0
  0002d	8b 45 f8	 mov	 eax, DWORD PTR _this$2[ebp]
  00030	83 60 04 00	 and	 DWORD PTR [eax+4], 0
  00034	8b 45 f8	 mov	 eax, DWORD PTR _this$2[ebp]
  00037	83 60 08 00	 and	 DWORD PTR [eax+8], 0
; File D:\Metin2 Server Files\mainline\SRC_2014\Metin2Client\eterLib\Pool.h

; 127  : 		{

  0003b	8b 45 fc	 mov	 eax, DWORD PTR _this$[ebp]
  0003e	83 c0 10	 add	 eax, 16			; 00000010H
  00041	89 45 e8	 mov	 DWORD PTR _this$[ebp], eax
; File C:\Program Files (x86)\Microsoft Visual Studio\2019\Community\VC\Tools\MSVC\14.28.29333\include\vector

; 445  :     vector() noexcept(is_nothrow_default_constructible_v<_Alty>) : _Mypair(_Zero_then_variadic_args_t{}) {

  00044	8b 45 e8	 mov	 eax, DWORD PTR _this$[ebp]
  00047	89 45 e4	 mov	 DWORD PTR _this$[ebp], eax
; File C:\Program Files (x86)\Microsoft Visual Studio\2019\Community\VC\Tools\MSVC\14.28.29333\include\xmemory

; 1339 :         : _Ty1(), _Myval2(_STD forward<_Other2>(_Val2)...) {}

  0004a	8b 45 e4	 mov	 eax, DWORD PTR _this$[ebp]
  0004d	89 45 f4	 mov	 DWORD PTR _this$1[ebp], eax
; File C:\Program Files (x86)\Microsoft Visual Studio\2019\Community\VC\Tools\MSVC\14.28.29333\include\vector

; 375  :     _Vector_val() noexcept : _Myfirst(), _Mylast(), _Myend() {}

  00050	8b 45 f4	 mov	 eax, DWORD PTR _this$1[ebp]
  00053	83 20 00	 and	 DWORD PTR [eax], 0
  00056	8b 45 f4	 mov	 eax, DWORD PTR _this$1[ebp]
  00059	83 60 04 00	 and	 DWORD PTR [eax+4], 0
  0005d	8b 45 f4	 mov	 eax, DWORD PTR _this$1[ebp]
  00060	83 60 08 00	 and	 DWORD PTR [eax+8], 0
; File D:\Metin2 Server Files\mainline\SRC_2014\Metin2Client\eterLib\Pool.h

; 128  : 			m_uInitCapacity=0;

  00064	8b 45 fc	 mov	 eax, DWORD PTR _this$[ebp]
  00067	83 60 1c 00	 and	 DWORD PTR [eax+28], 0

; 129  : 			m_uUsedCapacity=0;

  0006b	8b 45 fc	 mov	 eax, DWORD PTR _this$[ebp]
  0006e	83 60 20 00	 and	 DWORD PTR [eax+32], 0

; 130  : 		}

  00072	8b 45 fc	 mov	 eax, DWORD PTR _this$[ebp]
  00075	c9		 leave
  00076	c3		 ret	 0
??0?$CDynamicPoolEx@VCRotationDecorator@NEffectUpdateDecorator@@@@QAE@XZ ENDP ; CDynamicPoolEx<NEffectUpdateDecorator::CRotationDecorator>::CDynamicPoolEx<NEffectUpdateDecorator::CRotationDecorator>
_TEXT	ENDS
; Function compile flags: /Odspy
; File D:\Metin2 Server Files\mainline\SRC_2014\Metin2Client\UserInterface\PythonApplication.cpp
;	COMDAT ?__GetWindowMode@@YAI_N@Z
_TEXT	SEGMENT
_windowed$ = 8						; size = 1
?__GetWindowMode@@YAI_N@Z PROC				; __GetWindowMode, COMDAT

; 1085 : {

  00000	55		 push	 ebp
  00001	8b ec		 mov	 ebp, esp

; 1086 : 	if (windowed)

  00003	0f b6 45 08	 movzx	 eax, BYTE PTR _windowed$[ebp]
  00007	85 c0		 test	 eax, eax
  00009	74 07		 je	 SHORT $LN2@GetWindowM

; 1087 : 		return WS_OVERLAPPED | WS_CAPTION |   WS_SYSMENU | WS_MINIMIZEBOX;

  0000b	b8 00 00 ca 00	 mov	 eax, 13238272		; 00ca0000H
  00010	eb 05		 jmp	 SHORT $LN1@GetWindowM
$LN2@GetWindowM:

; 1088 : 
; 1089 : 	return WS_POPUP;

  00012	b8 00 00 00 80	 mov	 eax, -2147483648	; 80000000H
$LN1@GetWindowM:

; 1090 : }

  00017	5d		 pop	 ebp
  00018	c3		 ret	 0
?__GetWindowMode@@YAI_N@Z ENDP				; __GetWindowMode
_TEXT	ENDS
; Function compile flags: /Odspy
; File D:\Metin2 Server Files\mainline\SRC_2014\Metin2Client\UserInterface\PythonApplication.cpp
;	COMDAT ?LoadLocaleData@@YA_NPBD@Z
_TEXT	SEGMENT
_rkNetStream$ = -2072					; size = 4
_rkNPCMgr$ = -2068					; size = 4
_rkSkillMgr$ = -2064					; size = 4
_rkItemMgr$ = -2060					; size = 4
_dwEmpireID$1 = -2056					; size = 4
_szSkillTableFileName$ = -2052				; size = 256
_szSkillDescFileName$ = -1796				; size = 256
_szEmpireTextConvFile$2 = -1540				; size = 256
_szInsultList$ = -1284					; size = 256
_szItemDesc$ = -1028					; size = 256
_szItemProto$ = -772					; size = 256
_szItemList$ = -516					; size = 256
_szMobProto$ = -260					; size = 256
__$ArrayPad$ = -4					; size = 4
_localePath$ = 8					; size = 4
?LoadLocaleData@@YA_NPBD@Z PROC				; LoadLocaleData, COMDAT

; 1001 : {

  00000	55		 push	 ebp
  00001	8b ec		 mov	 ebp, esp
  00003	81 ec 18 08 00
	00		 sub	 esp, 2072		; 00000818H
  00009	a1 00 00 00 00	 mov	 eax, DWORD PTR ___security_cookie
  0000e	33 c5		 xor	 eax, ebp
  00010	89 45 fc	 mov	 DWORD PTR __$ArrayPad$[ebp], eax
  00013	53		 push	 ebx
  00014	56		 push	 esi
  00015	57		 push	 edi

; 1002 : 	NANOBEGIN

  00016	eb		 DB	 -21			; ffffffebH
  00017	03		 DB	 3
  00018	d6		 DB	 -42			; ffffffd6H
  00019	d7		 DB	 -41			; ffffffd7H
  0001a	01		 DB	 1
  0001b	a1 00 00 00 00	 mov	 eax, DWORD PTR ?ms_singleton@?$CSingleton@VCPythonNonPlayer@@@@0PAVCPythonNonPlayer@@A ; CSingleton<CPythonNonPlayer>::ms_singleton
  00020	89 85 ec f7 ff
	ff		 mov	 DWORD PTR _rkNPCMgr$[ebp], eax

; 1003 : 		CPythonNonPlayer&	rkNPCMgr	= CPythonNonPlayer::Instance();
; 1004 : 	CItemManager&		rkItemMgr	= CItemManager::Instance();	

  00026	a1 00 00 00 00	 mov	 eax, DWORD PTR ?ms_singleton@?$CSingleton@VCItemManager@@@@0PAVCItemManager@@A ; CSingleton<CItemManager>::ms_singleton
  0002b	89 85 f4 f7 ff
	ff		 mov	 DWORD PTR _rkItemMgr$[ebp], eax

; 1005 : 	CPythonSkill&		rkSkillMgr	= CPythonSkill::Instance();

  00031	a1 00 00 00 00	 mov	 eax, DWORD PTR ?ms_singleton@?$CSingleton@VCPythonSkill@@@@0PAVCPythonSkill@@A ; CSingleton<CPythonSkill>::ms_singleton
  00036	89 85 f0 f7 ff
	ff		 mov	 DWORD PTR _rkSkillMgr$[ebp], eax

; 1006 : 	CPythonNetworkStream& rkNetStream = CPythonNetworkStream::Instance();

  0003c	a1 00 00 00 00	 mov	 eax, DWORD PTR ?ms_singleton@?$CSingleton@VCPythonNetworkStream@@@@0PAVCPythonNetworkStream@@A ; CSingleton<CPythonNetworkStream>::ms_singleton
  00041	89 85 e8 f7 ff
	ff		 mov	 DWORD PTR _rkNetStream$[ebp], eax

; 1007 : 
; 1008 : 	char szItemList[256];
; 1009 : 	char szItemProto[256];
; 1010 : 	char szItemDesc[256];	
; 1011 : 	char szMobProto[256];
; 1012 : 	char szSkillDescFileName[256];
; 1013 : 	char szSkillTableFileName[256];
; 1014 : 	char szInsultList[256];
; 1015 : 	snprintf(szItemList,	sizeof(szItemList) ,	"%s/item_list.txt",	localePath);		

  00047	ff 75 08	 push	 DWORD PTR _localePath$[ebp]
  0004a	68 00 00 00 00	 push	 OFFSET ??_C@_0BB@EOELDOLA@?$CFs?1item_list?4txt@
  0004f	68 00 01 00 00	 push	 256			; 00000100H
  00054	8d 85 fc fd ff
	ff		 lea	 eax, DWORD PTR _szItemList$[ebp]
  0005a	50		 push	 eax
  0005b	e8 00 00 00 00	 call	 __snprintf
  00060	83 c4 10	 add	 esp, 16			; 00000010H

; 1016 : 	snprintf(szItemProto,	sizeof(szItemProto),	"%s/item_proto",	localePath);

  00063	ff 75 08	 push	 DWORD PTR _localePath$[ebp]
  00066	68 00 00 00 00	 push	 OFFSET ??_C@_0O@MEMEPBB@?$CFs?1item_proto@
  0006b	68 00 01 00 00	 push	 256			; 00000100H
  00070	8d 85 fc fc ff
	ff		 lea	 eax, DWORD PTR _szItemProto$[ebp]
  00076	50		 push	 eax
  00077	e8 00 00 00 00	 call	 __snprintf
  0007c	83 c4 10	 add	 esp, 16			; 00000010H

; 1017 : 	snprintf(szItemDesc,	sizeof(szItemDesc),	"%s/itemdesc.txt",	localePath);	

  0007f	ff 75 08	 push	 DWORD PTR _localePath$[ebp]
  00082	68 00 00 00 00	 push	 OFFSET ??_C@_0BA@BIDKFLDM@?$CFs?1itemdesc?4txt@
  00087	68 00 01 00 00	 push	 256			; 00000100H
  0008c	8d 85 fc fb ff
	ff		 lea	 eax, DWORD PTR _szItemDesc$[ebp]
  00092	50		 push	 eax
  00093	e8 00 00 00 00	 call	 __snprintf
  00098	83 c4 10	 add	 esp, 16			; 00000010H

; 1018 : 	snprintf(szMobProto,	sizeof(szMobProto),	"%s/mob_proto",		localePath);	

  0009b	ff 75 08	 push	 DWORD PTR _localePath$[ebp]
  0009e	68 00 00 00 00	 push	 OFFSET ??_C@_0N@KCBCHIHM@?$CFs?1mob_proto@
  000a3	68 00 01 00 00	 push	 256			; 00000100H
  000a8	8d 85 fc fe ff
	ff		 lea	 eax, DWORD PTR _szMobProto$[ebp]
  000ae	50		 push	 eax
  000af	e8 00 00 00 00	 call	 __snprintf
  000b4	83 c4 10	 add	 esp, 16			; 00000010H

; 1019 : 	snprintf(szSkillDescFileName, sizeof(szSkillDescFileName),	"%s/SkillDesc.txt", localePath);

  000b7	ff 75 08	 push	 DWORD PTR _localePath$[ebp]
  000ba	68 00 00 00 00	 push	 OFFSET ??_C@_0BB@JDMIHPNN@?$CFs?1SkillDesc?4txt@
  000bf	68 00 01 00 00	 push	 256			; 00000100H
  000c4	8d 85 fc f8 ff
	ff		 lea	 eax, DWORD PTR _szSkillDescFileName$[ebp]
  000ca	50		 push	 eax
  000cb	e8 00 00 00 00	 call	 __snprintf
  000d0	83 c4 10	 add	 esp, 16			; 00000010H

; 1020 : 	snprintf(szSkillTableFileName, sizeof(szSkillTableFileName),	"%s/SkillTable.txt", localePath);	

  000d3	ff 75 08	 push	 DWORD PTR _localePath$[ebp]
  000d6	68 00 00 00 00	 push	 OFFSET ??_C@_0BC@NLEJCAEF@?$CFs?1SkillTable?4txt@
  000db	68 00 01 00 00	 push	 256			; 00000100H
  000e0	8d 85 fc f7 ff
	ff		 lea	 eax, DWORD PTR _szSkillTableFileName$[ebp]
  000e6	50		 push	 eax
  000e7	e8 00 00 00 00	 call	 __snprintf
  000ec	83 c4 10	 add	 esp, 16			; 00000010H

; 1021 : 	snprintf(szInsultList,	sizeof(szInsultList),	"%s/insult.txt", localePath);

  000ef	ff 75 08	 push	 DWORD PTR _localePath$[ebp]
  000f2	68 00 00 00 00	 push	 OFFSET ??_C@_0O@JEIJHCCG@?$CFs?1insult?4txt@
  000f7	68 00 01 00 00	 push	 256			; 00000100H
  000fc	8d 85 fc fa ff
	ff		 lea	 eax, DWORD PTR _szInsultList$[ebp]
  00102	50		 push	 eax
  00103	e8 00 00 00 00	 call	 __snprintf
  00108	83 c4 10	 add	 esp, 16			; 00000010H

; 1022 : 
; 1023 : 	rkNPCMgr.Destroy();

  0010b	8b 8d ec f7 ff
	ff		 mov	 ecx, DWORD PTR _rkNPCMgr$[ebp]
  00111	e8 00 00 00 00	 call	 ?Destroy@CPythonNonPlayer@@QAEXXZ ; CPythonNonPlayer::Destroy

; 1024 : 	rkItemMgr.Destroy();	

  00116	8b 8d f4 f7 ff
	ff		 mov	 ecx, DWORD PTR _rkItemMgr$[ebp]
  0011c	e8 00 00 00 00	 call	 ?Destroy@CItemManager@@QAEXXZ ; CItemManager::Destroy

; 1025 : 	rkSkillMgr.Destroy();

  00121	8b 8d f0 f7 ff
	ff		 mov	 ecx, DWORD PTR _rkSkillMgr$[ebp]
  00127	e8 00 00 00 00	 call	 ?Destroy@CPythonSkill@@QAEXXZ ; CPythonSkill::Destroy

; 1026 : 
; 1027 : 	if (!rkItemMgr.LoadItemList(szItemList))

  0012c	8d 85 fc fd ff
	ff		 lea	 eax, DWORD PTR _szItemList$[ebp]
  00132	50		 push	 eax
  00133	8b 8d f4 f7 ff
	ff		 mov	 ecx, DWORD PTR _rkItemMgr$[ebp]
  00139	e8 00 00 00 00	 call	 ?LoadItemList@CItemManager@@QAE_NPBD@Z ; CItemManager::LoadItemList
  0013e	0f b6 c0	 movzx	 eax, al
  00141	85 c0		 test	 eax, eax
  00143	75 13		 jne	 SHORT $LN5@LoadLocale

; 1028 : 	{
; 1029 : 		TraceError("LoadLocaleData - LoadItemList(%s) Error", szItemList);

  00145	8d 85 fc fd ff
	ff		 lea	 eax, DWORD PTR _szItemList$[ebp]
  0014b	50		 push	 eax
  0014c	68 00 00 00 00	 push	 OFFSET ??_C@_0CI@MGBDCDJE@LoadLocaleData?5?9?5LoadItemList?$CI?$CF@
  00151	e8 00 00 00 00	 call	 ?TraceError@@YAXPBDZZ	; TraceError
  00156	59		 pop	 ecx
  00157	59		 pop	 ecx
$LN5@LoadLocale:

; 1030 : 	}	
; 1031 : 
; 1032 : 	if (!rkItemMgr.LoadItemTable(szItemProto))

  00158	8d 85 fc fc ff
	ff		 lea	 eax, DWORD PTR _szItemProto$[ebp]
  0015e	50		 push	 eax
  0015f	8b 8d f4 f7 ff
	ff		 mov	 ecx, DWORD PTR _rkItemMgr$[ebp]
  00165	e8 00 00 00 00	 call	 ?LoadItemTable@CItemManager@@QAE_NPBD@Z ; CItemManager::LoadItemTable
  0016a	0f b6 c0	 movzx	 eax, al
  0016d	85 c0		 test	 eax, eax
  0016f	75 1a		 jne	 SHORT $LN6@LoadLocale

; 1033 : 	{
; 1034 : 		TraceError("LoadLocaleData - LoadItemProto(%s) Error", szItemProto);

  00171	8d 85 fc fc ff
	ff		 lea	 eax, DWORD PTR _szItemProto$[ebp]
  00177	50		 push	 eax
  00178	68 00 00 00 00	 push	 OFFSET ??_C@_0CJ@MIFDPICO@LoadLocaleData?5?9?5LoadItemProto?$CI@
  0017d	e8 00 00 00 00	 call	 ?TraceError@@YAXPBDZZ	; TraceError
  00182	59		 pop	 ecx
  00183	59		 pop	 ecx

; 1035 : 		return false;

  00184	32 c0		 xor	 al, al
  00186	e9 7e 01 00 00	 jmp	 $LN1@LoadLocale
$LN6@LoadLocale:

; 1036 : 	}
; 1037 : 
; 1038 : 	if (!rkItemMgr.LoadItemDesc(szItemDesc))

  0018b	8d 85 fc fb ff
	ff		 lea	 eax, DWORD PTR _szItemDesc$[ebp]
  00191	50		 push	 eax
  00192	8b 8d f4 f7 ff
	ff		 mov	 ecx, DWORD PTR _rkItemMgr$[ebp]
  00198	e8 00 00 00 00	 call	 ?LoadItemDesc@CItemManager@@QAE_NPBD@Z ; CItemManager::LoadItemDesc
  0019d	0f b6 c0	 movzx	 eax, al
  001a0	85 c0		 test	 eax, eax
  001a2	75 13		 jne	 SHORT $LN7@LoadLocale

; 1039 : 	{
; 1040 : 		Tracenf("LoadLocaleData - LoadItemDesc(%s) Error", szItemDesc);	

  001a4	8d 85 fc fb ff
	ff		 lea	 eax, DWORD PTR _szItemDesc$[ebp]
  001aa	50		 push	 eax
  001ab	68 00 00 00 00	 push	 OFFSET ??_C@_0CI@FLOPHKEN@LoadLocaleData?5?9?5LoadItemDesc?$CI?$CF@
  001b0	e8 00 00 00 00	 call	 ?Tracenf@@YAXPBDZZ	; Tracenf
  001b5	59		 pop	 ecx
  001b6	59		 pop	 ecx
$LN7@LoadLocale:

; 1041 : 	}
; 1042 : 
; 1043 : 	if (!rkNPCMgr.LoadNonPlayerData(szMobProto))

  001b7	8d 85 fc fe ff
	ff		 lea	 eax, DWORD PTR _szMobProto$[ebp]
  001bd	50		 push	 eax
  001be	8b 8d ec f7 ff
	ff		 mov	 ecx, DWORD PTR _rkNPCMgr$[ebp]
  001c4	e8 00 00 00 00	 call	 ?LoadNonPlayerData@CPythonNonPlayer@@QAE_NPBD@Z ; CPythonNonPlayer::LoadNonPlayerData
  001c9	0f b6 c0	 movzx	 eax, al
  001cc	85 c0		 test	 eax, eax
  001ce	75 1a		 jne	 SHORT $LN8@LoadLocale

; 1044 : 	{
; 1045 : 		TraceError("LoadLocaleData - LoadMobProto(%s) Error", szMobProto);

  001d0	8d 85 fc fe ff
	ff		 lea	 eax, DWORD PTR _szMobProto$[ebp]
  001d6	50		 push	 eax
  001d7	68 00 00 00 00	 push	 OFFSET ??_C@_0CI@PNCAMHEJ@LoadLocaleData?5?9?5LoadMobProto?$CI?$CF@
  001dc	e8 00 00 00 00	 call	 ?TraceError@@YAXPBDZZ	; TraceError
  001e1	59		 pop	 ecx
  001e2	59		 pop	 ecx

; 1046 : 		return false;

  001e3	32 c0		 xor	 al, al
  001e5	e9 1f 01 00 00	 jmp	 $LN1@LoadLocale
$LN8@LoadLocale:

; 1047 : 	}
; 1048 : 
; 1049 : 	if (!rkSkillMgr.RegisterSkillDesc(szSkillDescFileName))

  001ea	8d 85 fc f8 ff
	ff		 lea	 eax, DWORD PTR _szSkillDescFileName$[ebp]
  001f0	50		 push	 eax
  001f1	8b 8d f0 f7 ff
	ff		 mov	 ecx, DWORD PTR _rkSkillMgr$[ebp]
  001f7	e8 00 00 00 00	 call	 ?RegisterSkillDesc@CPythonSkill@@QAE_NPBD@Z ; CPythonSkill::RegisterSkillDesc
  001fc	0f b6 c0	 movzx	 eax, al
  001ff	85 c0		 test	 eax, eax
  00201	75 1a		 jne	 SHORT $LN9@LoadLocale

; 1050 : 	{
; 1051 : 		TraceError("LoadLocaleData - RegisterSkillDesc(%s) Error", szMobProto);

  00203	8d 85 fc fe ff
	ff		 lea	 eax, DWORD PTR _szMobProto$[ebp]
  00209	50		 push	 eax
  0020a	68 00 00 00 00	 push	 OFFSET ??_C@_0CN@NIKOAAJF@LoadLocaleData?5?9?5RegisterSkillD@
  0020f	e8 00 00 00 00	 call	 ?TraceError@@YAXPBDZZ	; TraceError
  00214	59		 pop	 ecx
  00215	59		 pop	 ecx

; 1052 : 		return false;

  00216	32 c0		 xor	 al, al
  00218	e9 ec 00 00 00	 jmp	 $LN1@LoadLocale
$LN9@LoadLocale:

; 1053 : 	}
; 1054 : 
; 1055 : 	if (!rkSkillMgr.RegisterSkillTable(szSkillTableFileName))

  0021d	8d 85 fc f7 ff
	ff		 lea	 eax, DWORD PTR _szSkillTableFileName$[ebp]
  00223	50		 push	 eax
  00224	8b 8d f0 f7 ff
	ff		 mov	 ecx, DWORD PTR _rkSkillMgr$[ebp]
  0022a	e8 00 00 00 00	 call	 ?RegisterSkillTable@CPythonSkill@@QAE_NPBD@Z ; CPythonSkill::RegisterSkillTable
  0022f	0f b6 c0	 movzx	 eax, al
  00232	85 c0		 test	 eax, eax
  00234	75 1a		 jne	 SHORT $LN10@LoadLocale

; 1056 : 	{
; 1057 : 		TraceError("LoadLocaleData - RegisterSkillTable(%s) Error", szMobProto);

  00236	8d 85 fc fe ff
	ff		 lea	 eax, DWORD PTR _szMobProto$[ebp]
  0023c	50		 push	 eax
  0023d	68 00 00 00 00	 push	 OFFSET ??_C@_0CO@HCDPLHIO@LoadLocaleData?5?9?5RegisterSkillT@
  00242	e8 00 00 00 00	 call	 ?TraceError@@YAXPBDZZ	; TraceError
  00247	59		 pop	 ecx
  00248	59		 pop	 ecx

; 1058 : 		return false;

  00249	32 c0		 xor	 al, al
  0024b	e9 b9 00 00 00	 jmp	 $LN1@LoadLocale
$LN10@LoadLocale:

; 1059 : 	}
; 1060 : 
; 1061 : 	if (!rkNetStream.LoadInsultList(szInsultList))

  00250	8d 85 fc fa ff
	ff		 lea	 eax, DWORD PTR _szInsultList$[ebp]
  00256	50		 push	 eax
  00257	8b 8d e8 f7 ff
	ff		 mov	 ecx, DWORD PTR _rkNetStream$[ebp]
  0025d	e8 00 00 00 00	 call	 ?LoadInsultList@CPythonNetworkStream@@QAE_NPBD@Z ; CPythonNetworkStream::LoadInsultList
  00262	0f b6 c0	 movzx	 eax, al
  00265	85 c0		 test	 eax, eax
  00267	75 13		 jne	 SHORT $LN11@LoadLocale

; 1062 : 	{
; 1063 : 		Tracenf("CPythonApplication - CPythonNetworkStream::LoadInsultList(%s)", szInsultList);				

  00269	8d 85 fc fa ff
	ff		 lea	 eax, DWORD PTR _szInsultList$[ebp]
  0026f	50		 push	 eax
  00270	68 00 00 00 00	 push	 OFFSET ??_C@_0DO@PNDPPMDH@CPythonApplication?5?9?5CPythonNet@
  00275	e8 00 00 00 00	 call	 ?Tracenf@@YAXPBDZZ	; Tracenf
  0027a	59		 pop	 ecx
  0027b	59		 pop	 ecx
$LN11@LoadLocale:

; 1064 : 	}
; 1065 : 
; 1066 : 	if (LocaleService_IsYMIR())

  0027c	e8 00 00 00 00	 call	 ?LocaleService_IsYMIR@@YA_NXZ ; LocaleService_IsYMIR
  00281	0f b6 c0	 movzx	 eax, al
  00284	85 c0		 test	 eax, eax
  00286	74 7a		 je	 SHORT $LN12@LoadLocale

; 1067 : 	{	
; 1068 : 		char szEmpireTextConvFile[256];
; 1069 : 		for (DWORD dwEmpireID=1; dwEmpireID<=3; ++dwEmpireID)

  00288	c7 85 f8 f7 ff
	ff 01 00 00 00	 mov	 DWORD PTR _dwEmpireID$1[ebp], 1
  00292	eb 0d		 jmp	 SHORT $LN4@LoadLocale
$LN2@LoadLocale:
  00294	8b 85 f8 f7 ff
	ff		 mov	 eax, DWORD PTR _dwEmpireID$1[ebp]
  0029a	40		 inc	 eax
  0029b	89 85 f8 f7 ff
	ff		 mov	 DWORD PTR _dwEmpireID$1[ebp], eax
$LN4@LoadLocale:
  002a1	83 bd f8 f7 ff
	ff 03		 cmp	 DWORD PTR _dwEmpireID$1[ebp], 3
  002a8	77 58		 ja	 SHORT $LN12@LoadLocale

; 1070 : 		{			
; 1071 : 			sprintf(szEmpireTextConvFile, "%s/lang%d.cvt", localePath, dwEmpireID);

  002aa	ff b5 f8 f7 ff
	ff		 push	 DWORD PTR _dwEmpireID$1[ebp]
  002b0	ff 75 08	 push	 DWORD PTR _localePath$[ebp]
  002b3	68 00 00 00 00	 push	 OFFSET ??_C@_0O@GCNBGGIE@?$CFs?1lang?$CFd?4cvt@
  002b8	8d 85 fc f9 ff
	ff		 lea	 eax, DWORD PTR _szEmpireTextConvFile$2[ebp]
  002be	50		 push	 eax
  002bf	e8 00 00 00 00	 call	 _sprintf
  002c4	83 c4 10	 add	 esp, 16			; 00000010H

; 1072 : 			if (!rkNetStream.LoadConvertTable(dwEmpireID, szEmpireTextConvFile))

  002c7	8d 85 fc f9 ff
	ff		 lea	 eax, DWORD PTR _szEmpireTextConvFile$2[ebp]
  002cd	50		 push	 eax
  002ce	ff b5 f8 f7 ff
	ff		 push	 DWORD PTR _dwEmpireID$1[ebp]
  002d4	8b 8d e8 f7 ff
	ff		 mov	 ecx, DWORD PTR _rkNetStream$[ebp]
  002da	e8 00 00 00 00	 call	 ?LoadConvertTable@CPythonNetworkStream@@QAE_NKPBD@Z ; CPythonNetworkStream::LoadConvertTable
  002df	0f b6 c0	 movzx	 eax, al
  002e2	85 c0		 test	 eax, eax
  002e4	75 1a		 jne	 SHORT $LN13@LoadLocale

; 1073 : 			{
; 1074 : 				TraceError("LoadLocaleData - CPythonNetworkStream::LoadConvertTable(%d, %s) FAILURE", dwEmpireID, szEmpireTextConvFile);			

  002e6	8d 85 fc f9 ff
	ff		 lea	 eax, DWORD PTR _szEmpireTextConvFile$2[ebp]
  002ec	50		 push	 eax
  002ed	ff b5 f8 f7 ff
	ff		 push	 DWORD PTR _dwEmpireID$1[ebp]
  002f3	68 00 00 00 00	 push	 OFFSET ??_C@_0EI@FFMLHANM@LoadLocaleData?5?9?5CPythonNetwork@
  002f8	e8 00 00 00 00	 call	 ?TraceError@@YAXPBDZZ	; TraceError
  002fd	83 c4 0c	 add	 esp, 12			; 0000000cH
$LN13@LoadLocale:

; 1075 : 			}
; 1076 : 		}

  00300	eb 92		 jmp	 SHORT $LN2@LoadLocale
$LN12@LoadLocale:

; 1077 : 	}
; 1078 : 
; 1079 : 	NANOEND

  00302	eb		 DB	 -21			; ffffffebH
  00303	03		 DB	 3
  00304	d6		 DB	 -42			; ffffffd6H
  00305	d7		 DB	 -41			; ffffffd7H
  00306	00		 DB	 0
  00307	b0 01		 mov	 al, 1
$LN1@LoadLocale:

; 1080 : 		return true;
; 1081 : }

  00309	5f		 pop	 edi
  0030a	5e		 pop	 esi
  0030b	5b		 pop	 ebx
  0030c	8b 4d fc	 mov	 ecx, DWORD PTR __$ArrayPad$[ebp]
  0030f	33 cd		 xor	 ecx, ebp
  00311	e8 00 00 00 00	 call	 @__security_check_cookie@4
  00316	c9		 leave
  00317	c3		 ret	 0
?LoadLocaleData@@YA_NPBD@Z ENDP				; LoadLocaleData
_TEXT	ENDS
; Function compile flags: /Odspy
;	COMDAT ??_GCPythonApplication@@UAEPAXI@Z
_TEXT	SEGMENT
_this$ = -4						; size = 4
___flags$ = 8						; size = 4
??_GCPythonApplication@@UAEPAXI@Z PROC			; CPythonApplication::`scalar deleting destructor', COMDAT
; _this$ = ecx
  00000	55		 push	 ebp
  00001	8b ec		 mov	 ebp, esp
  00003	51		 push	 ecx
  00004	89 4d fc	 mov	 DWORD PTR _this$[ebp], ecx
  00007	8b 4d fc	 mov	 ecx, DWORD PTR _this$[ebp]
  0000a	e8 00 00 00 00	 call	 ??1CPythonApplication@@UAE@XZ ; CPythonApplication::~CPythonApplication
  0000f	8b 45 08	 mov	 eax, DWORD PTR ___flags$[ebp]
  00012	83 e0 01	 and	 eax, 1
  00015	74 0f		 je	 SHORT $LN2@scalar
  00017	68 88 eb 01 00	 push	 125832			; 0001eb88H
  0001c	ff 75 fc	 push	 DWORD PTR _this$[ebp]
  0001f	e8 00 00 00 00	 call	 ??3@YAXPAXI@Z		; operator delete
  00024	59		 pop	 ecx
  00025	59		 pop	 ecx
$LN2@scalar:
  00026	8b 45 fc	 mov	 eax, DWORD PTR _this$[ebp]
  00029	c9		 leave
  0002a	c2 04 00	 ret	 4
??_GCPythonApplication@@UAEPAXI@Z ENDP			; CPythonApplication::`scalar deleting destructor'
_TEXT	ENDS
; Function compile flags: /Odspy
;	COMDAT ??1?$map@HPAXU?$less@H@std@@V?$allocator@U?$pair@$$CBHPAX@std@@@2@@std@@QAE@XZ
_TEXT	SEGMENT
_this$ = -4						; size = 4
??1?$map@HPAXU?$less@H@std@@V?$allocator@U?$pair@$$CBHPAX@std@@@2@@std@@QAE@XZ PROC ; std::map<int,void *,std::less<int>,std::allocator<std::pair<int const ,void *> > >::~map<int,void *,std::less<int>,std::allocator<std::pair<int const ,void *> > >, COMDAT
; _this$ = ecx
  00000	55		 push	 ebp
  00001	8b ec		 mov	 ebp, esp
  00003	51		 push	 ecx
  00004	89 4d fc	 mov	 DWORD PTR _this$[ebp], ecx
  00007	8b 4d fc	 mov	 ecx, DWORD PTR _this$[ebp]
  0000a	e8 00 00 00 00	 call	 ??1?$_Tree@V?$_Tmap_traits@HPAXU?$less@H@std@@V?$allocator@U?$pair@$$CBHPAX@std@@@2@$0A@@std@@@std@@QAE@XZ ; std::_Tree<std::_Tmap_traits<int,void *,std::less<int>,std::allocator<std::pair<int const ,void *> >,0> >::~_Tree<std::_Tmap_traits<int,void *,std::less<int>,std::allocator<std::pair<int const ,void *> >,0> >
  0000f	c9		 leave
  00010	c3		 ret	 0
??1?$map@HPAXU?$less@H@std@@V?$allocator@U?$pair@$$CBHPAX@std@@@2@@std@@QAE@XZ ENDP ; std::map<int,void *,std::less<int>,std::allocator<std::pair<int const ,void *> > >::~map<int,void *,std::less<int>,std::allocator<std::pair<int const ,void *> > >
_TEXT	ENDS
; Function compile flags: /Odspy
; File C:\Program Files (x86)\Microsoft Visual Studio\2019\Community\VC\Tools\MSVC\14.28.29333\include\xtree
; File C:\Program Files (x86)\Microsoft Visual Studio\2019\Community\VC\Tools\MSVC\14.28.29333\include\xstddef
; File C:\Program Files (x86)\Microsoft Visual Studio\2019\Community\VC\Tools\MSVC\14.28.29333\include\xtree
; File C:\Program Files (x86)\Microsoft Visual Studio\2019\Community\VC\Tools\MSVC\14.28.29333\include\xmemory
; File C:\Program Files (x86)\Microsoft Visual Studio\2019\Community\VC\Tools\MSVC\14.28.29333\include\xtree
;	COMDAT ?_Alloc_sentinel_and_proxy@?$_Tree@V?$_Tmap_traits@HPAXU?$less@H@std@@V?$allocator@U?$pair@$$CBHPAX@std@@@2@$0A@@std@@@std@@IAEXXZ
_TEXT	SEGMENT
__Alproxy$ = -28					; size = 4
__Scary$ = -24						; size = 4
$T1 = -20						; size = 4
$T2 = -16						; size = 4
$T3 = -12						; size = 4
_this$ = -8						; size = 4
_$S15$ = -1						; size = 1
?_Alloc_sentinel_and_proxy@?$_Tree@V?$_Tmap_traits@HPAXU?$less@H@std@@V?$allocator@U?$pair@$$CBHPAX@std@@@2@$0A@@std@@@std@@IAEXXZ PROC ; std::_Tree<std::_Tmap_traits<int,void *,std::less<int>,std::allocator<std::pair<int const ,void *> >,0> >::_Alloc_sentinel_and_proxy, COMDAT
; _this$ = ecx

; 2017 :     void _Alloc_sentinel_and_proxy() {

  00000	55		 push	 ebp
  00001	8b ec		 mov	 ebp, esp
  00003	83 ec 1c	 sub	 esp, 28			; 0000001cH
  00006	89 4d f8	 mov	 DWORD PTR _this$[ebp], ecx

; 2047 :         return _STD addressof(_Mypair._Myval2._Myval2);

  00009	8b 45 f8	 mov	 eax, DWORD PTR _this$[ebp]
; File C:\Program Files (x86)\Microsoft Visual Studio\2019\Community\VC\Tools\MSVC\14.28.29333\include\xstddef

; 275  :     return __builtin_addressof(_Val);

  0000c	89 45 f4	 mov	 DWORD PTR $T3[ebp], eax
; File C:\Program Files (x86)\Microsoft Visual Studio\2019\Community\VC\Tools\MSVC\14.28.29333\include\xtree

; 2047 :         return _STD addressof(_Mypair._Myval2._Myval2);

  0000f	8b 45 f4	 mov	 eax, DWORD PTR $T3[ebp]
  00012	89 45 e8	 mov	 DWORD PTR __Scary$[ebp], eax

; 2018 :         const auto _Scary = _Get_scary();
; 2019 :         auto&& _Alproxy   = _GET_PROXY_ALLOCATOR(_Alnode, _Getal());

  00015	8d 45 ff	 lea	 eax, DWORD PTR _$S15$[ebp]
  00018	89 45 e4	 mov	 DWORD PTR __Alproxy$[ebp], eax

; 2039 :         return _Mypair._Myval2._Get_first();

  0001b	8b 45 f8	 mov	 eax, DWORD PTR _this$[ebp]
; File C:\Program Files (x86)\Microsoft Visual Studio\2019\Community\VC\Tools\MSVC\14.28.29333\include\xmemory

; 1347 :         return *this;

  0001e	89 45 f0	 mov	 DWORD PTR $T2[ebp], eax
; File C:\Program Files (x86)\Microsoft Visual Studio\2019\Community\VC\Tools\MSVC\14.28.29333\include\xtree

; 2039 :         return _Mypair._Myval2._Get_first();

  00021	8b 45 f0	 mov	 eax, DWORD PTR $T2[ebp]
  00024	89 45 ec	 mov	 DWORD PTR $T1[ebp], eax

; 2020 :         _Container_proxy_ptr<_Alnode> _Proxy(_Alproxy, *_Scary);
; 2021 :         _Scary->_Myhead = _Node::_Buyheadnode(_Getal());

  00027	ff 75 ec	 push	 DWORD PTR $T1[ebp]
  0002a	e8 00 00 00 00	 call	 ??$_Buyheadnode@V?$allocator@U?$_Tree_node@U?$pair@$$CBHPAX@std@@PAX@std@@@std@@@?$_Tree_node@U?$pair@$$CBHPAX@std@@PAX@std@@SAPAU01@AAV?$allocator@U?$_Tree_node@U?$pair@$$CBHPAX@std@@PAX@std@@@1@@Z ; std::_Tree_node<std::pair<int const ,void *>,void *>::_Buyheadnode<std::allocator<std::_Tree_node<std::pair<int const ,void *>,void *> > >
  0002f	59		 pop	 ecx
  00030	8b 4d e8	 mov	 ecx, DWORD PTR __Scary$[ebp]
  00033	89 01		 mov	 DWORD PTR [ecx], eax

; 2022 :         _Proxy._Release();
; 2023 :     }

  00035	c9		 leave
  00036	c3		 ret	 0
?_Alloc_sentinel_and_proxy@?$_Tree@V?$_Tmap_traits@HPAXU?$less@H@std@@V?$allocator@U?$pair@$$CBHPAX@std@@@2@$0A@@std@@@std@@IAEXXZ ENDP ; std::_Tree<std::_Tmap_traits<int,void *,std::less<int>,std::allocator<std::pair<int const ,void *> >,0> >::_Alloc_sentinel_and_proxy
_TEXT	ENDS
; Function compile flags: /Odspy
; File C:\Program Files (x86)\Microsoft Visual Studio\2019\Community\VC\Tools\MSVC\14.28.29333\include\xtree
; File C:\Program Files (x86)\Microsoft Visual Studio\2019\Community\VC\Tools\MSVC\14.28.29333\include\xstddef
; File C:\Program Files (x86)\Microsoft Visual Studio\2019\Community\VC\Tools\MSVC\14.28.29333\include\xtree
; File C:\Program Files (x86)\Microsoft Visual Studio\2019\Community\VC\Tools\MSVC\14.28.29333\include\xmemory
; File C:\Program Files (x86)\Microsoft Visual Studio\2019\Community\VC\Tools\MSVC\14.28.29333\include\xtree
;	COMDAT ??1?$_Tree@V?$_Tmap_traits@HPAXU?$less@H@std@@V?$allocator@U?$pair@$$CBHPAX@std@@@2@$0A@@std@@@std@@QAE@XZ
_TEXT	SEGMENT
$T1 = -20						; size = 4
$T2 = -16						; size = 4
$T3 = -12						; size = 4
_this$ = -8						; size = 4
__Scary$ = -4						; size = 4
??1?$_Tree@V?$_Tmap_traits@HPAXU?$less@H@std@@V?$allocator@U?$pair@$$CBHPAX@std@@@2@$0A@@std@@@std@@QAE@XZ PROC ; std::_Tree<std::_Tmap_traits<int,void *,std::less<int>,std::allocator<std::pair<int const ,void *> >,0> >::~_Tree<std::_Tmap_traits<int,void *,std::less<int>,std::allocator<std::pair<int const ,void *> >,0> >, COMDAT
; _this$ = ecx

; 1189 :     ~_Tree() noexcept {

  00000	55		 push	 ebp
  00001	8b ec		 mov	 ebp, esp
  00003	83 ec 14	 sub	 esp, 20			; 00000014H
  00006	89 4d f8	 mov	 DWORD PTR _this$[ebp], ecx

; 2047 :         return _STD addressof(_Mypair._Myval2._Myval2);

  00009	8b 45 f8	 mov	 eax, DWORD PTR _this$[ebp]
; File C:\Program Files (x86)\Microsoft Visual Studio\2019\Community\VC\Tools\MSVC\14.28.29333\include\xstddef

; 275  :     return __builtin_addressof(_Val);

  0000c	89 45 f0	 mov	 DWORD PTR $T2[ebp], eax
; File C:\Program Files (x86)\Microsoft Visual Studio\2019\Community\VC\Tools\MSVC\14.28.29333\include\xtree

; 2047 :         return _STD addressof(_Mypair._Myval2._Myval2);

  0000f	8b 45 f0	 mov	 eax, DWORD PTR $T2[ebp]
  00012	89 45 fc	 mov	 DWORD PTR __Scary$[ebp], eax

; 2039 :         return _Mypair._Myval2._Get_first();

  00015	8b 45 f8	 mov	 eax, DWORD PTR _this$[ebp]
; File C:\Program Files (x86)\Microsoft Visual Studio\2019\Community\VC\Tools\MSVC\14.28.29333\include\xmemory

; 1347 :         return *this;

  00018	89 45 ec	 mov	 DWORD PTR $T1[ebp], eax
; File C:\Program Files (x86)\Microsoft Visual Studio\2019\Community\VC\Tools\MSVC\14.28.29333\include\xtree

; 2039 :         return _Mypair._Myval2._Get_first();

  0001b	8b 45 ec	 mov	 eax, DWORD PTR $T1[ebp]
  0001e	89 45 f4	 mov	 DWORD PTR $T3[ebp], eax

; 752  :         _Erase_tree(_Al, _Myhead->_Parent);

  00021	8b 45 fc	 mov	 eax, DWORD PTR __Scary$[ebp]
  00024	8b 00		 mov	 eax, DWORD PTR [eax]
  00026	ff 70 04	 push	 DWORD PTR [eax+4]
  00029	ff 75 f4	 push	 DWORD PTR $T3[ebp]
  0002c	8b 4d fc	 mov	 ecx, DWORD PTR __Scary$[ebp]
  0002f	e8 00 00 00 00	 call	 ??$_Erase_tree@V?$allocator@U?$_Tree_node@U?$pair@$$CBHPAX@std@@PAX@std@@@std@@@?$_Tree_val@U?$_Tree_simple_types@U?$pair@$$CBHPAX@std@@@std@@@std@@QAEXAAV?$allocator@U?$_Tree_node@U?$pair@$$CBHPAX@std@@PAX@std@@@1@PAU?$_Tree_node@U?$pair@$$CBHPAX@std@@PAX@1@@Z ; std::_Tree_val<std::_Tree_simple_types<std::pair<int const ,void *> > >::_Erase_tree<std::allocator<std::_Tree_node<std::pair<int const ,void *>,void *> > >

; 753  :         _Alnode::value_type::_Freenode0(_Al, _Myhead);

  00034	8b 45 fc	 mov	 eax, DWORD PTR __Scary$[ebp]
  00037	ff 30		 push	 DWORD PTR [eax]
  00039	ff 75 f4	 push	 DWORD PTR $T3[ebp]
  0003c	e8 00 00 00 00	 call	 ??$_Freenode0@V?$allocator@U?$_Tree_node@U?$pair@$$CBHPAX@std@@PAX@std@@@std@@@?$_Tree_node@U?$pair@$$CBHPAX@std@@PAX@std@@SAXAAV?$allocator@U?$_Tree_node@U?$pair@$$CBHPAX@std@@PAX@std@@@1@PAU01@@Z ; std::_Tree_node<std::pair<int const ,void *>,void *>::_Freenode0<std::allocator<std::_Tree_node<std::pair<int const ,void *>,void *> > >
  00041	59		 pop	 ecx
  00042	59		 pop	 ecx

; 1190 :         const auto _Scary = _Get_scary();
; 1191 :         _Scary->_Erase_head(_Getal());
; 1192 : #if _ITERATOR_DEBUG_LEVEL != 0 // TRANSITION, ABI
; 1193 :         auto&& _Alproxy = _GET_PROXY_ALLOCATOR(_Alnode, _Getal());
; 1194 :         _Delete_plain_internal(_Alproxy, _Scary->_Myproxy);
; 1195 : #endif // _ITERATOR_DEBUG_LEVEL != 0
; 1196 :     }

  00043	c9		 leave
  00044	c3		 ret	 0
??1?$_Tree@V?$_Tmap_traits@HPAXU?$less@H@std@@V?$allocator@U?$pair@$$CBHPAX@std@@@2@$0A@@std@@@std@@QAE@XZ ENDP ; std::_Tree<std::_Tmap_traits<int,void *,std::less<int>,std::allocator<std::pair<int const ,void *> >,0> >::~_Tree<std::_Tmap_traits<int,void *,std::less<int>,std::allocator<std::pair<int const ,void *> >,0> >
_TEXT	ENDS
; Function compile flags: /Odspy
; File C:\Program Files (x86)\Microsoft Visual Studio\2019\Community\VC\Tools\MSVC\14.28.29333\include\xtree
; File C:\Program Files (x86)\Microsoft Visual Studio\2019\Community\VC\Tools\MSVC\14.28.29333\include\type_traits
; File C:\Program Files (x86)\Microsoft Visual Studio\2019\Community\VC\Tools\MSVC\14.28.29333\include\xmemory
; File C:\Program Files (x86)\Microsoft Visual Studio\2019\Community\VC\Tools\MSVC\14.28.29333\include\xtree
;	COMDAT ??0?$_Tree@V?$_Tmap_traits@HPAXU?$less@H@std@@V?$allocator@U?$pair@$$CBHPAX@std@@@2@$0A@@std@@@std@@QAE@ABU?$less@H@1@@Z
_TEXT	SEGMENT
_this$ = -28						; size = 4
_this$ = -24						; size = 4
$T1 = -20						; size = 4
_this$2 = -16						; size = 4
_this$ = -12						; size = 4
___formal$ = -8						; size = 1
$T3 = -1						; size = 1
__Parg$ = 8						; size = 4
??0?$_Tree@V?$_Tmap_traits@HPAXU?$less@H@std@@V?$allocator@U?$pair@$$CBHPAX@std@@@2@$0A@@std@@@std@@QAE@ABU?$less@H@1@@Z PROC ; std::_Tree<std::_Tmap_traits<int,void *,std::less<int>,std::allocator<std::pair<int const ,void *> >,0> >::_Tree<std::_Tmap_traits<int,void *,std::less<int>,std::allocator<std::pair<int const ,void *> >,0> >, COMDAT
; _this$ = ecx

; 885  :     _Tree(const key_compare& _Parg) : _Mypair(_One_then_variadic_args_t{}, _Parg, _Zero_then_variadic_args_t{}) {

  00000	55		 push	 ebp
  00001	8b ec		 mov	 ebp, esp
  00003	83 ec 1c	 sub	 esp, 28			; 0000001cH
  00006	89 4d f4	 mov	 DWORD PTR _this$[ebp], ecx
  00009	8b 45 f4	 mov	 eax, DWORD PTR _this$[ebp]
  0000c	89 45 e8	 mov	 DWORD PTR _this$[ebp], eax
; File C:\Program Files (x86)\Microsoft Visual Studio\2019\Community\VC\Tools\MSVC\14.28.29333\include\type_traits

; 1443 :     return static_cast<_Ty&&>(_Arg);

  0000f	8d 45 ff	 lea	 eax, DWORD PTR $T3[ebp]
  00012	89 45 ec	 mov	 DWORD PTR $T1[ebp], eax
; File C:\Program Files (x86)\Microsoft Visual Studio\2019\Community\VC\Tools\MSVC\14.28.29333\include\xmemory

; 1344 :         : _Ty1(_STD forward<_Other1>(_Val1)), _Myval2(_STD forward<_Other2>(_Val2)...) {}

  00015	8b 45 ec	 mov	 eax, DWORD PTR $T1[ebp]
  00018	8a 00		 mov	 al, BYTE PTR [eax]
  0001a	88 45 f8	 mov	 BYTE PTR ___formal$[ebp], al
  0001d	8b 45 e8	 mov	 eax, DWORD PTR _this$[ebp]
  00020	89 45 e4	 mov	 DWORD PTR _this$[ebp], eax

; 1339 :         : _Ty1(), _Myval2(_STD forward<_Other2>(_Val2)...) {}

  00023	8b 45 e4	 mov	 eax, DWORD PTR _this$[ebp]
  00026	89 45 f0	 mov	 DWORD PTR _this$2[ebp], eax
; File C:\Program Files (x86)\Microsoft Visual Studio\2019\Community\VC\Tools\MSVC\14.28.29333\include\xtree

; 435  :     _Tree_val() noexcept : _Myhead(), _Mysize(0) {}

  00029	8b 45 f0	 mov	 eax, DWORD PTR _this$2[ebp]
  0002c	83 20 00	 and	 DWORD PTR [eax], 0
  0002f	8b 45 f0	 mov	 eax, DWORD PTR _this$2[ebp]
  00032	83 60 04 00	 and	 DWORD PTR [eax+4], 0

; 886  :         _Alloc_sentinel_and_proxy();

  00036	8b 4d f4	 mov	 ecx, DWORD PTR _this$[ebp]
  00039	e8 00 00 00 00	 call	 ?_Alloc_sentinel_and_proxy@?$_Tree@V?$_Tmap_traits@HPAXU?$less@H@std@@V?$allocator@U?$pair@$$CBHPAX@std@@@2@$0A@@std@@@std@@IAEXXZ ; std::_Tree<std::_Tmap_traits<int,void *,std::less<int>,std::allocator<std::pair<int const ,void *> >,0> >::_Alloc_sentinel_and_proxy

; 887  :     }

  0003e	8b 45 f4	 mov	 eax, DWORD PTR _this$[ebp]
  00041	c9		 leave
  00042	c2 04 00	 ret	 4
??0?$_Tree@V?$_Tmap_traits@HPAXU?$less@H@std@@V?$allocator@U?$pair@$$CBHPAX@std@@@2@$0A@@std@@@std@@QAE@ABU?$less@H@1@@Z ENDP ; std::_Tree<std::_Tmap_traits<int,void *,std::less<int>,std::allocator<std::pair<int const ,void *> >,0> >::_Tree<std::_Tmap_traits<int,void *,std::less<int>,std::allocator<std::pair<int const ,void *> >,0> >
_TEXT	ENDS
; Function compile flags: /Odspy
; File D:\Metin2 Server Files\mainline\SRC_2014\Metin2Client\UserInterface\PythonApplication.cpp
;	COMDAT ?CheckDeviceState@CPythonApplication@@IAEHXZ
_TEXT	SEGMENT
_e_deviceState$ = -12					; size = 4
_this$ = -8						; size = 4
tv67 = -4						; size = 4
?CheckDeviceState@CPythonApplication@@IAEHXZ PROC	; CPythonApplication::CheckDeviceState, COMDAT
; _this$ = ecx

; 877  : {

  00000	55		 push	 ebp
  00001	8b ec		 mov	 ebp, esp
  00003	83 ec 0c	 sub	 esp, 12			; 0000000cH
  00006	89 4d f8	 mov	 DWORD PTR _this$[ebp], ecx

; 878  : 	CGraphicDevice::EDeviceState e_deviceState = m_grpDevice.GetDeviceState();

  00009	8b 4d f8	 mov	 ecx, DWORD PTR _this$[ebp]
  0000c	81 c1 0c c3 01
	00		 add	 ecx, 115468		; 0001c30cH
  00012	e8 00 00 00 00	 call	 ?GetDeviceState@CGraphicDevice@@QAE?AW4EDeviceState@1@XZ ; CGraphicDevice::GetDeviceState
  00017	89 45 f4	 mov	 DWORD PTR _e_deviceState$[ebp], eax

; 879  : 
; 880  : 	switch (e_deviceState)

  0001a	8b 45 f4	 mov	 eax, DWORD PTR _e_deviceState$[ebp]
  0001d	89 45 fc	 mov	 DWORD PTR tv67[ebp], eax
  00020	83 7d fc 01	 cmp	 DWORD PTR tv67[ebp], 1
  00024	74 12		 je	 SHORT $LN5@CheckDevic
  00026	83 7d fc 02	 cmp	 DWORD PTR tv67[ebp], 2
  0002a	74 11		 je	 SHORT $LN6@CheckDevic
  0002c	83 7d fc 03	 cmp	 DWORD PTR tv67[ebp], 3
  00030	74 02		 je	 SHORT $LN4@CheckDevic
  00032	eb 23		 jmp	 SHORT $LN2@CheckDevic
$LN4@CheckDevic:

; 881  : 	{
; 882  : 		//      .
; 883  : 	case CGraphicDevice::DEVICESTATE_NULL:
; 884  : 		return DEVICE_STATE_FALSE;

  00034	33 c0		 xor	 eax, eax
  00036	eb 22		 jmp	 SHORT $LN1@CheckDevic
$LN5@CheckDevic:

; 885  : 
; 886  : 		// DEVICESTATE_BROKEN         .
; 887  : 		//    DrawPrimitive     .
; 888  : 	case CGraphicDevice::DEVICESTATE_BROKEN:
; 889  : 		return DEVICE_STATE_SKIP;

  00038	33 c0		 xor	 eax, eax
  0003a	40		 inc	 eax
  0003b	eb 1d		 jmp	 SHORT $LN1@CheckDevic
$LN6@CheckDevic:

; 890  : 
; 891  : 	case CGraphicDevice::DEVICESTATE_NEEDS_RESET:
; 892  : 		if (!m_grpDevice.Reset())

  0003d	8b 4d f8	 mov	 ecx, DWORD PTR _this$[ebp]
  00040	81 c1 0c c3 01
	00		 add	 ecx, 115468		; 0001c30cH
  00046	e8 00 00 00 00	 call	 ?Reset@CGraphicDevice@@QAE_NXZ ; CGraphicDevice::Reset
  0004b	0f b6 c0	 movzx	 eax, al
  0004e	85 c0		 test	 eax, eax
  00050	75 05		 jne	 SHORT $LN2@CheckDevic

; 893  : 			return DEVICE_STATE_SKIP;

  00052	33 c0		 xor	 eax, eax
  00054	40		 inc	 eax
  00055	eb 03		 jmp	 SHORT $LN1@CheckDevic
$LN2@CheckDevic:

; 894  : 
; 895  : 		break;
; 896  : 	}
; 897  : 
; 898  : 	return DEVICE_STATE_OK;

  00057	6a 02		 push	 2
  00059	58		 pop	 eax
$LN1@CheckDevic:

; 899  : }

  0005a	c9		 leave
  0005b	c3		 ret	 0
?CheckDeviceState@CPythonApplication@@IAEHXZ ENDP	; CPythonApplication::CheckDeviceState
_TEXT	ENDS
; Function compile flags: /Odspy
; File D:\Metin2 Server Files\mainline\SRC_2014\Metin2Client\UserInterface\PythonApplication.cpp
;	COMDAT ?SetForceSightRange@CPythonApplication@@QAEXH@Z
_TEXT	SEGMENT
_this$ = -4						; size = 4
_iRange$ = 8						; size = 4
?SetForceSightRange@CPythonApplication@@QAEXH@Z PROC	; CPythonApplication::SetForceSightRange, COMDAT
; _this$ = ecx

; 1373 : {

  00000	55		 push	 ebp
  00001	8b ec		 mov	 ebp, esp
  00003	51		 push	 ecx
  00004	89 4d fc	 mov	 DWORD PTR _this$[ebp], ecx

; 1374 : 	m_iForceSightRange = iRange;

  00007	8b 45 fc	 mov	 eax, DWORD PTR _this$[ebp]
  0000a	8b 4d 08	 mov	 ecx, DWORD PTR _iRange$[ebp]
  0000d	89 88 78 eb 01
	00		 mov	 DWORD PTR [eax+125816], ecx

; 1375 : }

  00013	c9		 leave
  00014	c2 04 00	 ret	 4
?SetForceSightRange@CPythonApplication@@QAEXH@Z ENDP	; CPythonApplication::SetForceSightRange
_TEXT	ENDS
; Function compile flags: /Odspy
; File D:\Metin2 Server Files\mainline\SRC_2014\Metin2Client\UserInterface\PythonApplication.cpp
;	COMDAT ?SetCameraSpeed@CPythonApplication@@QAEXH@Z
_TEXT	SEGMENT
_this$ = -4						; size = 4
_iPercentage$ = 8					; size = 4
?SetCameraSpeed@CPythonApplication@@QAEXH@Z PROC	; CPythonApplication::SetCameraSpeed, COMDAT
; _this$ = ecx

; 1366 : {

  00000	55		 push	 ebp
  00001	8b ec		 mov	 ebp, esp
  00003	51		 push	 ecx
  00004	89 4d fc	 mov	 DWORD PTR _this$[ebp], ecx

; 1367 : 	m_fCameraRotateSpeed = c_fDefaultCameraRotateSpeed * float(iPercentage) / 100.0f;

  00007	f3 0f 2a 45 08	 cvtsi2ss xmm0, DWORD PTR _iPercentage$[ebp]
  0000c	f3 0f 59 05 00
	00 00 00	 mulss	 xmm0, DWORD PTR ?c_fDefaultCameraRotateSpeed@@3MA
  00014	f3 0f 5e 05 00
	00 00 00	 divss	 xmm0, DWORD PTR __real@42c80000
  0001c	8b 45 fc	 mov	 eax, DWORD PTR _this$[ebp]
  0001f	f3 0f 11 80 e0
	ea 01 00	 movss	 DWORD PTR [eax+125664], xmm0

; 1368 : 	m_fCameraPitchSpeed = c_fDefaultCameraPitchSpeed * float(iPercentage) / 100.0f;

  00027	f3 0f 2a 45 08	 cvtsi2ss xmm0, DWORD PTR _iPercentage$[ebp]
  0002c	f3 0f 59 05 00
	00 00 00	 mulss	 xmm0, DWORD PTR ?c_fDefaultCameraPitchSpeed@@3MA
  00034	f3 0f 5e 05 00
	00 00 00	 divss	 xmm0, DWORD PTR __real@42c80000
  0003c	8b 45 fc	 mov	 eax, DWORD PTR _this$[ebp]
  0003f	f3 0f 11 80 e4
	ea 01 00	 movss	 DWORD PTR [eax+125668], xmm0

; 1369 : 	m_fCameraZoomSpeed = c_fDefaultCameraZoomSpeed * float(iPercentage) / 100.0f;

  00047	f3 0f 2a 45 08	 cvtsi2ss xmm0, DWORD PTR _iPercentage$[ebp]
  0004c	f3 0f 59 05 00
	00 00 00	 mulss	 xmm0, DWORD PTR ?c_fDefaultCameraZoomSpeed@@3MA
  00054	f3 0f 5e 05 00
	00 00 00	 divss	 xmm0, DWORD PTR __real@42c80000
  0005c	8b 45 fc	 mov	 eax, DWORD PTR _this$[ebp]
  0005f	f3 0f 11 80 e8
	ea 01 00	 movss	 DWORD PTR [eax+125672], xmm0

; 1370 : }

  00067	c9		 leave
  00068	c2 04 00	 ret	 4
?SetCameraSpeed@CPythonApplication@@QAEXH@Z ENDP	; CPythonApplication::SetCameraSpeed
_TEXT	ENDS
; Function compile flags: /Odspy
; File D:\Metin2 Server Files\mainline\SRC_2014\Metin2Client\UserInterface\PythonApplication.cpp
;	COMDAT ?EnableSpecialCameraMode@CPythonApplication@@QAEXXZ
_TEXT	SEGMENT
_this$ = -4						; size = 4
?EnableSpecialCameraMode@CPythonApplication@@QAEXXZ PROC ; CPythonApplication::EnableSpecialCameraMode, COMDAT
; _this$ = ecx

; 1361 : {

  00000	55		 push	 ebp
  00001	8b ec		 mov	 ebp, esp
  00003	51		 push	 ecx
  00004	89 4d fc	 mov	 DWORD PTR _this$[ebp], ecx

; 1362 : 	m_isSpecialCameraMode = TRUE;

  00007	8b 45 fc	 mov	 eax, DWORD PTR _this$[ebp]
  0000a	c7 80 04 eb 01
	00 01 00 00 00	 mov	 DWORD PTR [eax+125700], 1

; 1363 : }

  00014	c9		 leave
  00015	c3		 ret	 0
?EnableSpecialCameraMode@CPythonApplication@@QAEXXZ ENDP ; CPythonApplication::EnableSpecialCameraMode
_TEXT	ENDS
; Function compile flags: /Odspy
; File D:\Metin2 Server Files\mainline\SRC_2014\Metin2Client\UserInterface\PythonApplication.cpp
; File C:\Program Files (x86)\Microsoft Visual Studio\2019\Community\VC\Tools\MSVC\14.28.29333\include\xstddef
; File C:\Program Files (x86)\Microsoft Visual Studio\2019\Community\VC\Tools\MSVC\14.28.29333\include\xstring
; File D:\Metin2 Server Files\mainline\SRC_2014\Metin2Client\UserInterface\PythonApplication.cpp
;	COMDAT ?GetConnectData@CPythonApplication@@QAEXAAV?$basic_string@DU?$char_traits@D@std@@V?$allocator@D@2@@std@@AAH@Z
_TEXT	SEGMENT
$T1 = -16						; size = 1
$T2 = -12						; size = 4
_this$ = -8						; size = 4
__Right$ = -4						; size = 4
_rstIP$ = 8						; size = 4
_riPort$ = 12						; size = 4
?GetConnectData@CPythonApplication@@QAEXAAV?$basic_string@DU?$char_traits@D@std@@V?$allocator@D@2@@std@@AAH@Z PROC ; CPythonApplication::GetConnectData, COMDAT
; _this$ = ecx

; 1355 : {

  00000	55		 push	 ebp
  00001	8b ec		 mov	 ebp, esp
  00003	83 ec 10	 sub	 esp, 16			; 00000010H
  00006	89 4d f8	 mov	 DWORD PTR _this$[ebp], ecx

; 1356 : 	rstIP	= m_strIP;

  00009	8b 45 f8	 mov	 eax, DWORD PTR _this$[ebp]
  0000c	05 4c eb 01 00	 add	 eax, 125772		; 0001eb4cH
  00011	89 45 fc	 mov	 DWORD PTR __Right$[ebp], eax
; File C:\Program Files (x86)\Microsoft Visual Studio\2019\Community\VC\Tools\MSVC\14.28.29333\include\xstddef

; 275  :     return __builtin_addressof(_Val);

  00014	8b 45 fc	 mov	 eax, DWORD PTR __Right$[ebp]
  00017	89 45 f4	 mov	 DWORD PTR $T2[ebp], eax
; File C:\Program Files (x86)\Microsoft Visual Studio\2019\Community\VC\Tools\MSVC\14.28.29333\include\xstring

; 2863 :         if (this != _STD addressof(_Right)) {

  0001a	8b 45 08	 mov	 eax, DWORD PTR _rstIP$[ebp]
  0001d	3b 45 f4	 cmp	 eax, DWORD PTR $T2[ebp]
  00020	74 13		 je	 SHORT $LN3@GetConnect

; 2864 :             _Copy_assign(_Right, _Choose_pocca<_Alty>{});

  00022	33 c0		 xor	 eax, eax
  00024	88 45 f0	 mov	 BYTE PTR $T1[ebp], al
  00027	ff 75 f0	 push	 DWORD PTR $T1[ebp]
  0002a	ff 75 fc	 push	 DWORD PTR __Right$[ebp]
  0002d	8b 4d 08	 mov	 ecx, DWORD PTR _rstIP$[ebp]
  00030	e8 00 00 00 00	 call	 ?_Copy_assign@?$basic_string@DU?$char_traits@D@std@@V?$allocator@D@2@@std@@AAEXABV12@U?$integral_constant@_N$0A@@2@@Z ; std::basic_string<char,std::char_traits<char>,std::allocator<char> >::_Copy_assign
$LN3@GetConnect:
; File D:\Metin2 Server Files\mainline\SRC_2014\Metin2Client\UserInterface\PythonApplication.cpp

; 1357 : 	riPort	= m_iPort;

  00035	8b 45 0c	 mov	 eax, DWORD PTR _riPort$[ebp]
  00038	8b 4d f8	 mov	 ecx, DWORD PTR _this$[ebp]
  0003b	8b 89 64 eb 01
	00		 mov	 ecx, DWORD PTR [ecx+125796]
  00041	89 08		 mov	 DWORD PTR [eax], ecx

; 1358 : }

  00043	c9		 leave
  00044	c2 08 00	 ret	 8
?GetConnectData@CPythonApplication@@QAEXAAV?$basic_string@DU?$char_traits@D@std@@V?$allocator@D@2@@std@@AAH@Z ENDP ; CPythonApplication::GetConnectData
_TEXT	ENDS
; Function compile flags: /Odspy
; File D:\Metin2 Server Files\mainline\SRC_2014\Metin2Client\UserInterface\PythonApplication.cpp
; File C:\Program Files (x86)\Microsoft Visual Studio\2019\Community\VC\Tools\MSVC\14.28.29333\include\xstring
; File C:\Program Files (x86)\Microsoft Visual Studio\2019\Community\VC\Tools\MSVC\14.28.29333\include\xmemory
; File C:\Program Files (x86)\Microsoft Visual Studio\2019\Community\VC\Tools\MSVC\14.28.29333\include\xstring
; File D:\Metin2 Server Files\mainline\SRC_2014\Metin2Client\UserInterface\PythonApplication.cpp
; File C:\Program Files (x86)\Microsoft Visual Studio\2019\Community\VC\Tools\MSVC\14.28.29333\include\xstring
; File D:\Metin2 Server Files\mainline\SRC_2014\Metin2Client\UserInterface\PythonApplication.cpp
;	COMDAT ?SetConnectData@CPythonApplication@@QAEXPBDH@Z
_TEXT	SEGMENT
$T1 = -12						; size = 4
$T2 = -8						; size = 4
_this$ = -4						; size = 4
_c_szIP$ = 8						; size = 4
_iPort$ = 12						; size = 4
?SetConnectData@CPythonApplication@@QAEXPBDH@Z PROC	; CPythonApplication::SetConnectData, COMDAT
; _this$ = ecx

; 1349 : {

  00000	55		 push	 ebp
  00001	8b ec		 mov	 ebp, esp
  00003	83 ec 0c	 sub	 esp, 12			; 0000000cH
  00006	89 4d fc	 mov	 DWORD PTR _this$[ebp], ecx
; File C:\Program Files (x86)\Microsoft Visual Studio\2019\Community\VC\Tools\MSVC\14.28.29333\include\xstring

; 389  :         return _CSTD strlen(reinterpret_cast<const char*>(_First));

  00009	ff 75 08	 push	 DWORD PTR _c_szIP$[ebp]
  0000c	e8 00 00 00 00	 call	 _strlen
  00011	59		 pop	 ecx
  00012	89 45 f8	 mov	 DWORD PTR $T2[ebp], eax
; File C:\Program Files (x86)\Microsoft Visual Studio\2019\Community\VC\Tools\MSVC\14.28.29333\include\xmemory

; 997  :     return _Len;

  00015	8b 45 f8	 mov	 eax, DWORD PTR $T2[ebp]
  00018	89 45 f4	 mov	 DWORD PTR $T1[ebp], eax
; File C:\Program Files (x86)\Microsoft Visual Studio\2019\Community\VC\Tools\MSVC\14.28.29333\include\xstring

; 3062 :         return assign(_Ptr, _Convert_size<size_type>(_Traits::length(_Ptr)));

  0001b	ff 75 f4	 push	 DWORD PTR $T1[ebp]
  0001e	ff 75 08	 push	 DWORD PTR _c_szIP$[ebp]
; File D:\Metin2 Server Files\mainline\SRC_2014\Metin2Client\UserInterface\PythonApplication.cpp

; 1350 : 	m_strIP = c_szIP;

  00021	8b 4d fc	 mov	 ecx, DWORD PTR _this$[ebp]
  00024	81 c1 4c eb 01
	00		 add	 ecx, 125772		; 0001eb4cH
; File C:\Program Files (x86)\Microsoft Visual Studio\2019\Community\VC\Tools\MSVC\14.28.29333\include\xstring

; 3062 :         return assign(_Ptr, _Convert_size<size_type>(_Traits::length(_Ptr)));

  0002a	e8 00 00 00 00	 call	 ?assign@?$basic_string@DU?$char_traits@D@std@@V?$allocator@D@2@@std@@QAEAAV12@QBDI@Z ; std::basic_string<char,std::char_traits<char>,std::allocator<char> >::assign
; File D:\Metin2 Server Files\mainline\SRC_2014\Metin2Client\UserInterface\PythonApplication.cpp

; 1351 : 	m_iPort = iPort;

  0002f	8b 45 fc	 mov	 eax, DWORD PTR _this$[ebp]
  00032	8b 4d 0c	 mov	 ecx, DWORD PTR _iPort$[ebp]
  00035	89 88 64 eb 01
	00		 mov	 DWORD PTR [eax+125796], ecx

; 1352 : }

  0003b	c9		 leave
  0003c	c2 08 00	 ret	 8
?SetConnectData@CPythonApplication@@QAEXPBDH@Z ENDP	; CPythonApplication::SetConnectData
_TEXT	ENDS
; Function compile flags: /Odspy
; File D:\Metin2 Server Files\mainline\SRC_2014\Metin2Client\UserInterface\PythonApplication.cpp
;	COMDAT ?GetGlobalElapsedTime@CPythonApplication@@UAEMXZ
_TEXT	SEGMENT
_this$ = -4						; size = 4
?GetGlobalElapsedTime@CPythonApplication@@UAEMXZ PROC	; CPythonApplication::GetGlobalElapsedTime, COMDAT
; _this$ = ecx

; 1329 : {

  00000	55		 push	 ebp
  00001	8b ec		 mov	 ebp, esp
  00003	51		 push	 ecx
  00004	89 4d fc	 mov	 DWORD PTR _this$[ebp], ecx

; 1330 : 	return m_fGlobalElapsedTime;

  00007	8b 45 fc	 mov	 eax, DWORD PTR _this$[ebp]
  0000a	d9 80 38 ea 01
	00		 fld	 DWORD PTR [eax+125496]

; 1331 : }

  00010	c9		 leave
  00011	c3		 ret	 0
?GetGlobalElapsedTime@CPythonApplication@@UAEMXZ ENDP	; CPythonApplication::GetGlobalElapsedTime
_TEXT	ENDS
; Function compile flags: /Odspy
; File D:\Metin2 Server Files\mainline\SRC_2014\Metin2Client\UserInterface\PythonApplication.cpp
;	COMDAT ?GetGlobalTime@CPythonApplication@@UAEMXZ
_TEXT	SEGMENT
_this$ = -4						; size = 4
?GetGlobalTime@CPythonApplication@@UAEMXZ PROC		; CPythonApplication::GetGlobalTime, COMDAT
; _this$ = ecx

; 1324 : {

  00000	55		 push	 ebp
  00001	8b ec		 mov	 ebp, esp
  00003	51		 push	 ecx
  00004	89 4d fc	 mov	 DWORD PTR _this$[ebp], ecx

; 1325 : 	return m_fGlobalTime;

  00007	8b 45 fc	 mov	 eax, DWORD PTR _this$[ebp]
  0000a	d9 80 34 ea 01
	00		 fld	 DWORD PTR [eax+125492]

; 1326 : }

  00010	c9		 leave
  00011	c3		 ret	 0
?GetGlobalTime@CPythonApplication@@UAEMXZ ENDP		; CPythonApplication::GetGlobalTime
_TEXT	ENDS
; Function compile flags: /Odspy
; File D:\Metin2 Server Files\mainline\SRC_2014\Metin2Client\UserInterface\PythonApplication.cpp
; File C:\Program Files (x86)\Windows Kits\10\Include\10.0.18362.0\ucrt\time.h
; File D:\Metin2 Server Files\mainline\SRC_2014\Metin2Client\UserInterface\PythonApplication.cpp
;	COMDAT ?GetServerTimeStamp@CPythonApplication@@QAEJXZ
_TEXT	SEGMENT
$T1 = -8						; size = 4
_this$ = -4						; size = 4
?GetServerTimeStamp@CPythonApplication@@QAEJXZ PROC	; CPythonApplication::GetServerTimeStamp, COMDAT
; _this$ = ecx

; 1319 : {

  00000	55		 push	 ebp
  00001	8b ec		 mov	 ebp, esp
  00003	51		 push	 ecx
  00004	51		 push	 ecx
  00005	89 4d fc	 mov	 DWORD PTR _this$[ebp], ecx
; File C:\Program Files (x86)\Windows Kits\10\Include\10.0.18362.0\ucrt\time.h

; 431  :             return _time32(_Time);

  00008	6a 00		 push	 0
  0000a	e8 00 00 00 00	 call	 __time32
  0000f	59		 pop	 ecx
  00010	89 45 f8	 mov	 DWORD PTR $T1[ebp], eax
; File D:\Metin2 Server Files\mainline\SRC_2014\Metin2Client\UserInterface\PythonApplication.cpp

; 1320 : 	return (time(0) - m_tLocalStartTime) + m_tServerTime;

  00013	8b 45 fc	 mov	 eax, DWORD PTR _this$[ebp]
  00016	8b 4d f8	 mov	 ecx, DWORD PTR $T1[ebp]
  00019	2b 88 50 ea 01
	00		 sub	 ecx, DWORD PTR [eax+125520]
  0001f	8b 45 fc	 mov	 eax, DWORD PTR _this$[ebp]
  00022	03 88 4c ea 01
	00		 add	 ecx, DWORD PTR [eax+125516]
  00028	8b c1		 mov	 eax, ecx

; 1321 : }

  0002a	c9		 leave
  0002b	c3		 ret	 0
?GetServerTimeStamp@CPythonApplication@@QAEJXZ ENDP	; CPythonApplication::GetServerTimeStamp
_TEXT	ENDS
; Function compile flags: /Odspy
; File D:\Metin2 Server Files\mainline\SRC_2014\Metin2Client\UserInterface\PythonApplication.cpp
;	COMDAT ?GetServerTime@CPythonApplication@@QAEJXZ
_TEXT	SEGMENT
_this$ = -4						; size = 4
?GetServerTime@CPythonApplication@@QAEJXZ PROC		; CPythonApplication::GetServerTime, COMDAT
; _this$ = ecx

; 1312 : {

  00000	55		 push	 ebp
  00001	8b ec		 mov	 ebp, esp
  00003	51		 push	 ecx
  00004	89 4d fc	 mov	 DWORD PTR _this$[ebp], ecx

; 1313 : 	return (ELTimer_GetMSec() - m_dwStartLocalTime) + m_tServerTime;

  00007	e8 00 00 00 00	 call	 ?ELTimer_GetMSec@@YAKXZ	; ELTimer_GetMSec
  0000c	8b 4d fc	 mov	 ecx, DWORD PTR _this$[ebp]
  0000f	2b 81 48 ea 01
	00		 sub	 eax, DWORD PTR [ecx+125512]
  00015	8b 4d fc	 mov	 ecx, DWORD PTR _this$[ebp]
  00018	03 81 4c ea 01
	00		 add	 eax, DWORD PTR [ecx+125516]

; 1314 : }

  0001e	c9		 leave
  0001f	c3		 ret	 0
?GetServerTime@CPythonApplication@@QAEJXZ ENDP		; CPythonApplication::GetServerTime
_TEXT	ENDS
; Function compile flags: /Odspy
; File D:\Metin2 Server Files\mainline\SRC_2014\Metin2Client\UserInterface\PythonApplication.cpp
; File C:\Program Files (x86)\Windows Kits\10\Include\10.0.18362.0\ucrt\time.h
; File D:\Metin2 Server Files\mainline\SRC_2014\Metin2Client\UserInterface\PythonApplication.cpp
;	COMDAT ?SetServerTime@CPythonApplication@@UAEXJ@Z
_TEXT	SEGMENT
_this$ = -4						; size = 4
_tTime$ = 8						; size = 4
?SetServerTime@CPythonApplication@@UAEXJ@Z PROC		; CPythonApplication::SetServerTime, COMDAT
; _this$ = ecx

; 1305 : {

  00000	55		 push	 ebp
  00001	8b ec		 mov	 ebp, esp
  00003	51		 push	 ecx
  00004	89 4d fc	 mov	 DWORD PTR _this$[ebp], ecx

; 1306 : 	m_dwStartLocalTime	= ELTimer_GetMSec();

  00007	e8 00 00 00 00	 call	 ?ELTimer_GetMSec@@YAKXZ	; ELTimer_GetMSec
  0000c	8b 4d fc	 mov	 ecx, DWORD PTR _this$[ebp]
  0000f	89 81 28 ea 01
	00		 mov	 DWORD PTR [ecx+125480], eax

; 1307 : 	m_tServerTime		= tTime;

  00015	8b 45 fc	 mov	 eax, DWORD PTR _this$[ebp]
  00018	8b 4d 08	 mov	 ecx, DWORD PTR _tTime$[ebp]
  0001b	89 88 2c ea 01
	00		 mov	 DWORD PTR [eax+125484], ecx
; File C:\Program Files (x86)\Windows Kits\10\Include\10.0.18362.0\ucrt\time.h

; 431  :             return _time32(_Time);

  00021	6a 00		 push	 0
  00023	e8 00 00 00 00	 call	 __time32
  00028	59		 pop	 ecx
; File D:\Metin2 Server Files\mainline\SRC_2014\Metin2Client\UserInterface\PythonApplication.cpp

; 1308 : 	m_tLocalStartTime	= time(0);

  00029	8b 4d fc	 mov	 ecx, DWORD PTR _this$[ebp]
  0002c	89 81 30 ea 01
	00		 mov	 DWORD PTR [ecx+125488], eax

; 1309 : }

  00032	c9		 leave
  00033	c2 04 00	 ret	 4
?SetServerTime@CPythonApplication@@UAEXJ@Z ENDP		; CPythonApplication::SetServerTime
_TEXT	ENDS
; Function compile flags: /Odspy
; File D:\Metin2 Server Files\mainline\SRC_2014\Metin2Client\UserInterface\PythonApplication.cpp
;	COMDAT ?SetFPS@CPythonApplication@@QAEXH@Z
_TEXT	SEGMENT
_this$ = -4						; size = 4
_iFPS$ = 8						; size = 4
?SetFPS@CPythonApplication@@QAEXH@Z PROC		; CPythonApplication::SetFPS, COMDAT
; _this$ = ecx

; 1334 : {

  00000	55		 push	 ebp
  00001	8b ec		 mov	 ebp, esp
  00003	51		 push	 ecx
  00004	89 4d fc	 mov	 DWORD PTR _this$[ebp], ecx

; 1335 : 	m_iFPS = iFPS;

  00007	8b 45 fc	 mov	 eax, DWORD PTR _this$[ebp]
  0000a	8b 4d 08	 mov	 ecx, DWORD PTR _iFPS$[ebp]
  0000d	89 88 28 ea 01
	00		 mov	 DWORD PTR [eax+125480], ecx

; 1336 : }

  00013	c9		 leave
  00014	c2 04 00	 ret	 4
?SetFPS@CPythonApplication@@QAEXH@Z ENDP		; CPythonApplication::SetFPS
_TEXT	ENDS
; Function compile flags: /Odspy
; File D:\Metin2 Server Files\mainline\SRC_2014\Metin2Client\UserInterface\PythonApplication.cpp
;	COMDAT ?GetCenterPosition@CPythonApplication@@QAEXPAUD3DXVECTOR3@@@Z
_TEXT	SEGMENT
_this$ = -4						; size = 4
_pPixelPosition$ = 8					; size = 4
?GetCenterPosition@CPythonApplication@@QAEXPAUD3DXVECTOR3@@@Z PROC ; CPythonApplication::GetCenterPosition, COMDAT
; _this$ = ecx

; 1297 : {

  00000	55		 push	 ebp
  00001	8b ec		 mov	 ebp, esp
  00003	51		 push	 ecx
  00004	89 4d fc	 mov	 DWORD PTR _this$[ebp], ecx

; 1298 : 	pPixelPosition->x = +m_v3CenterPosition.x;

  00007	8b 45 08	 mov	 eax, DWORD PTR _pPixelPosition$[ebp]
  0000a	8b 4d fc	 mov	 ecx, DWORD PTR _this$[ebp]
  0000d	8b 89 1c ea 01
	00		 mov	 ecx, DWORD PTR [ecx+125468]
  00013	89 08		 mov	 DWORD PTR [eax], ecx

; 1299 : 	pPixelPosition->y = -m_v3CenterPosition.y;

  00015	8b 45 fc	 mov	 eax, DWORD PTR _this$[ebp]
  00018	f3 0f 10 80 20
	ea 01 00	 movss	 xmm0, DWORD PTR [eax+125472]
  00020	0f 57 05 00 00
	00 00		 xorps	 xmm0, DWORD PTR __xmm@80000000800000008000000080000000
  00027	8b 45 08	 mov	 eax, DWORD PTR _pPixelPosition$[ebp]
  0002a	f3 0f 11 40 04	 movss	 DWORD PTR [eax+4], xmm0

; 1300 : 	pPixelPosition->z = +m_v3CenterPosition.z;

  0002f	8b 45 08	 mov	 eax, DWORD PTR _pPixelPosition$[ebp]
  00032	8b 4d fc	 mov	 ecx, DWORD PTR _this$[ebp]
  00035	8b 89 24 ea 01
	00		 mov	 ecx, DWORD PTR [ecx+125476]
  0003b	89 48 08	 mov	 DWORD PTR [eax+8], ecx

; 1301 : }

  0003e	c9		 leave
  0003f	c2 04 00	 ret	 4
?GetCenterPosition@CPythonApplication@@QAEXPAUD3DXVECTOR3@@@Z ENDP ; CPythonApplication::GetCenterPosition
_TEXT	ENDS
; Function compile flags: /Odspy
; File D:\Metin2 Server Files\mainline\SRC_2014\Metin2Client\UserInterface\PythonApplication.cpp
;	COMDAT ?SetCenterPosition@CPythonApplication@@UAEXMMM@Z
_TEXT	SEGMENT
_this$ = -4						; size = 4
_fx$ = 8						; size = 4
_fy$ = 12						; size = 4
_fz$ = 16						; size = 4
?SetCenterPosition@CPythonApplication@@UAEXMMM@Z PROC	; CPythonApplication::SetCenterPosition, COMDAT
; _this$ = ecx

; 1290 : {

  00000	55		 push	 ebp
  00001	8b ec		 mov	 ebp, esp
  00003	51		 push	 ecx
  00004	89 4d fc	 mov	 DWORD PTR _this$[ebp], ecx

; 1291 : 	m_v3CenterPosition.x = +fx;

  00007	8b 45 fc	 mov	 eax, DWORD PTR _this$[ebp]
  0000a	f3 0f 10 45 08	 movss	 xmm0, DWORD PTR _fx$[ebp]
  0000f	f3 0f 11 80 fc
	e9 01 00	 movss	 DWORD PTR [eax+125436], xmm0

; 1292 : 	m_v3CenterPosition.y = -fy;

  00017	f3 0f 10 45 0c	 movss	 xmm0, DWORD PTR _fy$[ebp]
  0001c	0f 57 05 00 00
	00 00		 xorps	 xmm0, DWORD PTR __xmm@80000000800000008000000080000000
  00023	8b 45 fc	 mov	 eax, DWORD PTR _this$[ebp]
  00026	f3 0f 11 80 00
	ea 01 00	 movss	 DWORD PTR [eax+125440], xmm0

; 1293 : 	m_v3CenterPosition.z = +fz;

  0002e	8b 45 fc	 mov	 eax, DWORD PTR _this$[ebp]
  00031	f3 0f 10 45 10	 movss	 xmm0, DWORD PTR _fz$[ebp]
  00036	f3 0f 11 80 04
	ea 01 00	 movss	 DWORD PTR [eax+125444], xmm0

; 1294 : }

  0003e	c9		 leave
  0003f	c2 0c 00	 ret	 12			; 0000000cH
?SetCenterPosition@CPythonApplication@@UAEXMMM@Z ENDP	; CPythonApplication::SetCenterPosition
_TEXT	ENDS
; Function compile flags: /Odspy
; File D:\Metin2 Server Files\mainline\SRC_2014\Metin2Client\UserInterface\PythonApplication.cpp
; File D:\Metin2 Server Files\mainline\SRC_2014\Metin2Client\eterBase\Singleton.h
; File D:\Metin2 Server Files\mainline\SRC_2014\Metin2Client\UserInterface\PythonApplication.cpp
;	COMDAT ?SetGlobalCenterPosition@CPythonApplication@@QAEXJJ@Z
_TEXT	SEGMENT
_this$ = -20						; size = 4
_z$ = -16						; size = 4
$T1 = -12						; size = 4
_rkBG$ = -8						; size = 4
tv85 = -4						; size = 4
_x$ = 8							; size = 4
_y$ = 12						; size = 4
?SetGlobalCenterPosition@CPythonApplication@@QAEXJJ@Z PROC ; CPythonApplication::SetGlobalCenterPosition, COMDAT
; _this$ = ecx

; 1280 : {

  00000	55		 push	 ebp
  00001	8b ec		 mov	 ebp, esp
  00003	83 ec 14	 sub	 esp, 20			; 00000014H
  00006	89 4d ec	 mov	 DWORD PTR _this$[ebp], ecx

; 1281 : 	CPythonBackground& rkBG=CPythonBackground::Instance();

  00009	a1 00 00 00 00	 mov	 eax, DWORD PTR ?ms_singleton@?$CSingleton@VCPythonBackground@@@@0PAVCPythonBackground@@A ; CSingleton<CPythonBackground>::ms_singleton
  0000e	89 45 f8	 mov	 DWORD PTR _rkBG$[ebp], eax

; 1282 : 	rkBG.GlobalPositionToLocalPosition(x, y);

  00011	8d 45 0c	 lea	 eax, DWORD PTR _y$[ebp]
  00014	50		 push	 eax
  00015	8d 45 08	 lea	 eax, DWORD PTR _x$[ebp]
  00018	50		 push	 eax
  00019	8b 4d f8	 mov	 ecx, DWORD PTR _rkBG$[ebp]
  0001c	e8 00 00 00 00	 call	 ?GlobalPositionToLocalPosition@CPythonBackground@@QAEXAAJ0@Z ; CPythonBackground::GlobalPositionToLocalPosition
; File D:\Metin2 Server Files\mainline\SRC_2014\Metin2Client\eterBase\Singleton.h

; 27   : 		return (*ms_singleton);

  00021	a1 00 00 00 00	 mov	 eax, DWORD PTR ?ms_singleton@?$CSingleton@VCPythonBackground@@@@0PAVCPythonBackground@@A ; CSingleton<CPythonBackground>::ms_singleton
  00026	89 45 f4	 mov	 DWORD PTR $T1[ebp], eax
; File D:\Metin2 Server Files\mainline\SRC_2014\Metin2Client\UserInterface\PythonApplication.cpp

; 1284 : 	float z = CPythonBackground::Instance().GetHeight(x, y);

  00029	f3 0f 2a 45 0c	 cvtsi2ss xmm0, DWORD PTR _y$[ebp]
  0002e	51		 push	 ecx
  0002f	f3 0f 11 04 24	 movss	 DWORD PTR [esp], xmm0
  00034	f3 0f 2a 45 08	 cvtsi2ss xmm0, DWORD PTR _x$[ebp]
  00039	51		 push	 ecx
  0003a	f3 0f 11 04 24	 movss	 DWORD PTR [esp], xmm0
  0003f	8b 4d f4	 mov	 ecx, DWORD PTR $T1[ebp]
  00042	e8 00 00 00 00	 call	 ?GetHeight@CMapManager@@QAEMMM@Z ; CMapManager::GetHeight
  00047	d9 5d f0	 fstp	 DWORD PTR _z$[ebp]

; 1285 : 
; 1286 : 	CPythonApplication::Instance().SetCenterPosition(x, y, z);

  0004a	a1 00 00 00 00	 mov	 eax, DWORD PTR ?ms_pInstance@CPythonApplication@@1PAV1@A ; CPythonApplication::ms_pInstance
  0004f	83 c0 20	 add	 eax, 32			; 00000020H
  00052	89 45 fc	 mov	 DWORD PTR tv85[ebp], eax
  00055	51		 push	 ecx
  00056	f3 0f 10 45 f0	 movss	 xmm0, DWORD PTR _z$[ebp]
  0005b	f3 0f 11 04 24	 movss	 DWORD PTR [esp], xmm0
  00060	f3 0f 2a 45 0c	 cvtsi2ss xmm0, DWORD PTR _y$[ebp]
  00065	51		 push	 ecx
  00066	f3 0f 11 04 24	 movss	 DWORD PTR [esp], xmm0
  0006b	f3 0f 2a 45 08	 cvtsi2ss xmm0, DWORD PTR _x$[ebp]
  00070	51		 push	 ecx
  00071	f3 0f 11 04 24	 movss	 DWORD PTR [esp], xmm0
  00076	8b 45 fc	 mov	 eax, DWORD PTR tv85[ebp]
  00079	8b 00		 mov	 eax, DWORD PTR [eax]
  0007b	8b 4d fc	 mov	 ecx, DWORD PTR tv85[ebp]
  0007e	ff 50 18	 call	 DWORD PTR [eax+24]

; 1287 : }

  00081	c9		 leave
  00082	c2 08 00	 ret	 8
?SetGlobalCenterPosition@CPythonApplication@@QAEXJJ@Z ENDP ; CPythonApplication::SetGlobalCenterPosition
_TEXT	ENDS
; Function compile flags: /Odspy
; File D:\Metin2 Server Files\mainline\SRC_2014\Metin2Client\UserInterface\PythonApplication.cpp
;	COMDAT ?GetHeight@CPythonApplication@@QAEHXZ
_TEXT	SEGMENT
_this$ = -4						; size = 4
?GetHeight@CPythonApplication@@QAEHXZ PROC		; CPythonApplication::GetHeight, COMDAT
; _this$ = ecx

; 1344 : {

  00000	55		 push	 ebp
  00001	8b ec		 mov	 ebp, esp
  00003	51		 push	 ecx
  00004	89 4d fc	 mov	 DWORD PTR _this$[ebp], ecx

; 1345 : 	return m_dwHeight;

  00007	8b 45 fc	 mov	 eax, DWORD PTR _this$[ebp]
  0000a	8b 80 40 ea 01
	00		 mov	 eax, DWORD PTR [eax+125504]

; 1346 : }

  00010	c9		 leave
  00011	c3		 ret	 0
?GetHeight@CPythonApplication@@QAEHXZ ENDP		; CPythonApplication::GetHeight
_TEXT	ENDS
; Function compile flags: /Odspy
; File D:\Metin2 Server Files\mainline\SRC_2014\Metin2Client\UserInterface\PythonApplication.cpp
;	COMDAT ?GetWidth@CPythonApplication@@QAEHXZ
_TEXT	SEGMENT
_this$ = -4						; size = 4
?GetWidth@CPythonApplication@@QAEHXZ PROC		; CPythonApplication::GetWidth, COMDAT
; _this$ = ecx

; 1339 : {

  00000	55		 push	 ebp
  00001	8b ec		 mov	 ebp, esp
  00003	51		 push	 ecx
  00004	89 4d fc	 mov	 DWORD PTR _this$[ebp], ecx

; 1340 : 	return m_dwWidth;

  00007	8b 45 fc	 mov	 eax, DWORD PTR _this$[ebp]
  0000a	8b 80 3c ea 01
	00		 mov	 eax, DWORD PTR [eax+125500]

; 1341 : }

  00010	c9		 leave
  00011	c3		 ret	 0
?GetWidth@CPythonApplication@@QAEHXZ ENDP		; CPythonApplication::GetWidth
_TEXT	ENDS
; Function compile flags: /Odspy
; File D:\Metin2 Server Files\mainline\SRC_2014\Metin2Client\UserInterface\PythonApplication.cpp
;	COMDAT ?SetMouseHandler@CPythonApplication@@QAEXPAU_object@@@Z
_TEXT	SEGMENT
_this$ = -4						; size = 4
_poMouseHandler$ = 8					; size = 4
?SetMouseHandler@CPythonApplication@@QAEXPAU_object@@@Z PROC ; CPythonApplication::SetMouseHandler, COMDAT
; _this$ = ecx

; 872  : {	

  00000	55		 push	 ebp
  00001	8b ec		 mov	 ebp, esp
  00003	51		 push	 ecx
  00004	89 4d fc	 mov	 DWORD PTR _this$[ebp], ecx

; 873  : 	m_poMouseHandler = poMouseHandler;

  00007	8b 45 fc	 mov	 eax, DWORD PTR _this$[ebp]
  0000a	8b 4d 08	 mov	 ecx, DWORD PTR _poMouseHandler$[ebp]
  0000d	89 88 18 ea 01
	00		 mov	 DWORD PTR [eax+125464], ecx

; 874  : }

  00013	c9		 leave
  00014	c2 04 00	 ret	 4
?SetMouseHandler@CPythonApplication@@QAEXPAU_object@@@Z ENDP ; CPythonApplication::SetMouseHandler
_TEXT	ENDS
; Function compile flags: /Odspy
; File D:\Metin2 Server Files\mainline\SRC_2014\Metin2Client\UserInterface\PythonApplication.cpp
;	COMDAT ?UpdateClientRect@CPythonApplication@@QAEXXZ
_TEXT	SEGMENT
_this$ = -24						; size = 4
_rcApp$ = -20						; size = 16
__$ArrayPad$ = -4					; size = 4
?UpdateClientRect@CPythonApplication@@QAEXXZ PROC	; CPythonApplication::UpdateClientRect, COMDAT
; _this$ = ecx

; 865  : {

  00000	55		 push	 ebp
  00001	8b ec		 mov	 ebp, esp
  00003	83 ec 18	 sub	 esp, 24			; 00000018H
  00006	a1 00 00 00 00	 mov	 eax, DWORD PTR ___security_cookie
  0000b	33 c5		 xor	 eax, ebp
  0000d	89 45 fc	 mov	 DWORD PTR __$ArrayPad$[ebp], eax
  00010	89 4d e8	 mov	 DWORD PTR _this$[ebp], ecx

; 866  : 	RECT rcApp;
; 867  : 	GetClientRect(&rcApp);

  00013	8d 45 ec	 lea	 eax, DWORD PTR _rcApp$[ebp]
  00016	50		 push	 eax
  00017	8b 4d e8	 mov	 ecx, DWORD PTR _this$[ebp]
  0001a	e8 00 00 00 00	 call	 ?GetClientRect@CMSWindow@@QAEXPAUtagRECT@@@Z ; CMSWindow::GetClientRect

; 868  : 	OnSizeChange(rcApp.right - rcApp.left, rcApp.bottom - rcApp.top);

  0001f	8b 45 f8	 mov	 eax, DWORD PTR _rcApp$[ebp+12]
  00022	2b 45 f0	 sub	 eax, DWORD PTR _rcApp$[ebp+4]
  00025	50		 push	 eax
  00026	8b 45 f4	 mov	 eax, DWORD PTR _rcApp$[ebp+8]
  00029	2b 45 ec	 sub	 eax, DWORD PTR _rcApp$[ebp]
  0002c	50		 push	 eax
  0002d	8b 4d e8	 mov	 ecx, DWORD PTR _this$[ebp]
  00030	e8 00 00 00 00	 call	 ?OnSizeChange@CPythonApplication@@IAEXHH@Z ; CPythonApplication::OnSizeChange

; 869  : }

  00035	8b 4d fc	 mov	 ecx, DWORD PTR __$ArrayPad$[ebp]
  00038	33 cd		 xor	 ecx, ebp
  0003a	e8 00 00 00 00	 call	 @__security_check_cookie@4
  0003f	c9		 leave
  00040	c3		 ret	 0
?UpdateClientRect@CPythonApplication@@QAEXXZ ENDP	; CPythonApplication::UpdateClientRect
_TEXT	ENDS
; Function compile flags: /Odspy
; File D:\Metin2 Server Files\mainline\SRC_2014\Metin2Client\UserInterface\PythonApplication.cpp
;	COMDAT ?Process@CPythonApplication@@QAE_NXZ
_TEXT	SEGMENT
tv655 = -104						; size = 8
tv643 = -96						; size = 8
tv630 = -88						; size = 8
tv590 = -80						; size = 8
tv527 = -72						; size = 8
tv518 = -64						; size = 8
tv396 = -56						; size = 8
_dbMaxPow$2 = -48					; size = 8
_dbAvePow$3 = -40					; size = 8
_Point$ = -32						; size = 8
_dwStart$ = -24						; size = 4
_fDistance$4 = -20					; size = 4
_dwRenderStartTime$5 = -16				; size = 4
__$EHRec$ = -12						; size = 12
_updatestart$ = 0					; size = 4
_bCurrentLateUpdate$ = 4				; size = 4
_fFar$6 = 8						; size = 4
_fRatio$7 = 12						; size = 4
tv375 = 16						; size = 4
tv651 = 20						; size = 4
tv639 = 24						; size = 4
tv627 = 28						; size = 4
_fRatio$8 = 32						; size = 4
_fRatio$9 = 36						; size = 4
tv586 = 40						; size = 4
tv572 = 44						; size = 4
tv567 = 48						; size = 4
_rkBG$10 = 52						; size = 4
_dt$11 = 56						; size = 4
tv523 = 60						; size = 4
tv514 = 64						; size = 4
_dwCurrentTime$ = 68					; size = 4
tv82 = 72						; size = 4
_rest$ = 76						; size = 4
_dwCurFaceCount$12 = 80					; size = 4
_nAdjustTime$13 = 84					; size = 4
_uiFrameTime$ = 88					; size = 4
_fCurRenderTime$14 = 92					; size = 4
_dwRenderEndTime$15 = 96				; size = 4
_rkTimer$ = 100						; size = 4
_fNear$16 = 104						; size = 4
_dwBufRenderTime$17 = 108				; size = 4
_canRender$18 = 115					; size = 1
_this$ = 116						; size = 4
?Process@CPythonApplication@@QAE_NXZ PROC		; CPythonApplication::Process, COMDAT
; _this$ = ecx

; 400  : {

  00000	55		 push	 ebp
  00001	8d 6c 24 88	 lea	 ebp, DWORD PTR [esp-120]
  00005	83 ec 78	 sub	 esp, 120		; 00000078H
  00008	6a ff		 push	 -1
  0000a	68 00 00 00 00	 push	 __ehhandler$?Process@CPythonApplication@@QAE_NXZ
  0000f	64 a1 00 00 00
	00		 mov	 eax, DWORD PTR fs:0
  00015	50		 push	 eax
  00016	83 ec 5c	 sub	 esp, 92			; 0000005cH
  00019	a1 00 00 00 00	 mov	 eax, DWORD PTR ___security_cookie
  0001e	33 c5		 xor	 eax, ebp
  00020	50		 push	 eax
  00021	8d 45 f4	 lea	 eax, DWORD PTR __$EHRec$[ebp]
  00024	64 a3 00 00 00
	00		 mov	 DWORD PTR fs:0, eax
  0002a	89 4d 74	 mov	 DWORD PTR _this$[ebp], ecx

; 401  : #if defined(CHECK_LATEST_DATA_FILES)
; 402  : 	if (CheckLatestFiles_PollEvent())
; 403  : 		return false;
; 404  : #endif
; 405  : #ifdef USE_AHNLAB_HACKSHIELD
; 406  : 	if (HackShield_PollEvent())
; 407  : 		return false;
; 408  : #endif
; 409  : #ifdef XTRAP_CLIENT_ENABLE
; 410  : 	XTrap_PollEvent();
; 411  : #endif
; 412  : 	ELTimer_SetFrameMSec();

  0002d	e8 00 00 00 00	 call	 ?ELTimer_SetFrameMSec@@YAXXZ ; ELTimer_SetFrameMSec

; 413  : 
; 414  : 	// 	m_Profiler.Clear();
; 415  : 	DWORD dwStart = ELTimer_GetMSec();

  00032	e8 00 00 00 00	 call	 ?ELTimer_GetMSec@@YAKXZ	; ELTimer_GetMSec
  00037	89 45 e8	 mov	 DWORD PTR _dwStart$[ebp], eax

; 416  : 
; 417  : 	///////////////////////////////////////////////////////////////////////////////////////////////////
; 418  : 	static DWORD	s_dwUpdateFrameCount = 0;
; 419  : 	static DWORD	s_dwRenderFrameCount = 0;
; 420  : 	static DWORD	s_dwFaceCount = 0;
; 421  : 	static UINT		s_uiLoad = 0;
; 422  : 	static DWORD	s_dwCheckTime = ELTimer_GetMSec();

  0003a	a1 00 00 00 00	 mov	 eax, DWORD PTR __tls_index
  0003f	64 8b 0d 00 00
	00 00		 mov	 ecx, DWORD PTR fs:__tls_array
  00046	8b 04 81	 mov	 eax, DWORD PTR [ecx+eax*4]
  00049	8b 0d 00 00 00
	00		 mov	 ecx, DWORD PTR ?$TSS0@?1??Process@CPythonApplication@@QAE_NXZ@4HA
  0004f	3b 88 00 00 00
	00		 cmp	 ecx, DWORD PTR __Init_thread_epoch[eax]
  00055	7e 31		 jle	 SHORT $LN2@Process
  00057	68 00 00 00 00	 push	 OFFSET ?$TSS0@?1??Process@CPythonApplication@@QAE_NXZ@4HA
  0005c	e8 00 00 00 00	 call	 __Init_thread_header
  00061	59		 pop	 ecx
  00062	83 3d 00 00 00
	00 ff		 cmp	 DWORD PTR ?$TSS0@?1??Process@CPythonApplication@@QAE_NXZ@4HA, -1
  00069	75 1d		 jne	 SHORT $LN2@Process
  0006b	83 65 fc 00	 and	 DWORD PTR __$EHRec$[ebp+8], 0
  0006f	e8 00 00 00 00	 call	 ?ELTimer_GetMSec@@YAKXZ	; ELTimer_GetMSec
  00074	a3 00 00 00 00	 mov	 DWORD PTR ?s_dwCheckTime@?1??Process@CPythonApplication@@QAE_NXZ@4KA, eax
  00079	83 4d fc ff	 or	 DWORD PTR __$EHRec$[ebp+8], -1
  0007d	68 00 00 00 00	 push	 OFFSET ?$TSS0@?1??Process@CPythonApplication@@QAE_NXZ@4HA
  00082	e8 00 00 00 00	 call	 __Init_thread_footer
  00087	59		 pop	 ecx
$LN2@Process:

; 423  : 
; 424  : 	if (ELTimer_GetMSec() - s_dwCheckTime > 1000)

  00088	e8 00 00 00 00	 call	 ?ELTimer_GetMSec@@YAKXZ	; ELTimer_GetMSec
  0008d	2b 05 00 00 00
	00		 sub	 eax, DWORD PTR ?s_dwCheckTime@?1??Process@CPythonApplication@@QAE_NXZ@4KA
  00093	3d e8 03 00 00	 cmp	 eax, 1000		; 000003e8H
  00098	0f 86 89 00 00
	00		 jbe	 $LN5@Process

; 425  : 	{
; 426  : 		m_dwUpdateFPS		= s_dwUpdateFrameCount;

  0009e	8b 45 74	 mov	 eax, DWORD PTR _this$[ebp]
  000a1	8b 0d 00 00 00
	00		 mov	 ecx, DWORD PTR ?s_dwUpdateFrameCount@?1??Process@CPythonApplication@@QAE_NXZ@4KA
  000a7	89 88 1c eb 01
	00		 mov	 DWORD PTR [eax+125724], ecx

; 427  : 		m_dwRenderFPS		= s_dwRenderFrameCount;

  000ad	8b 45 74	 mov	 eax, DWORD PTR _this$[ebp]
  000b0	8b 0d 00 00 00
	00		 mov	 ecx, DWORD PTR ?s_dwRenderFrameCount@?1??Process@CPythonApplication@@QAE_NXZ@4KA
  000b6	89 88 20 eb 01
	00		 mov	 DWORD PTR [eax+125728], ecx

; 428  : 		m_dwLoad			= s_uiLoad;

  000bc	8b 45 74	 mov	 eax, DWORD PTR _this$[ebp]
  000bf	8b 0d 00 00 00
	00		 mov	 ecx, DWORD PTR ?s_uiLoad@?1??Process@CPythonApplication@@QAE_NXZ@4IA
  000c5	89 88 38 ea 01
	00		 mov	 DWORD PTR [eax+125496], ecx

; 429  : 
; 430  : 		m_dwFaceCount		= s_dwFaceCount / max(1, s_dwRenderFrameCount);

  000cb	83 3d 00 00 00
	00 01		 cmp	 DWORD PTR ?s_dwRenderFrameCount@?1??Process@CPythonApplication@@QAE_NXZ@4KA, 1
  000d2	73 09		 jae	 SHORT $LN40@Process
  000d4	c7 45 48 01 00
	00 00		 mov	 DWORD PTR tv82[ebp], 1
  000db	eb 08		 jmp	 SHORT $LN41@Process
$LN40@Process:
  000dd	a1 00 00 00 00	 mov	 eax, DWORD PTR ?s_dwRenderFrameCount@?1??Process@CPythonApplication@@QAE_NXZ@4KA
  000e2	89 45 48	 mov	 DWORD PTR tv82[ebp], eax
$LN41@Process:
  000e5	a1 00 00 00 00	 mov	 eax, DWORD PTR ?s_dwFaceCount@?1??Process@CPythonApplication@@QAE_NXZ@4KA
  000ea	33 d2		 xor	 edx, edx
  000ec	f7 75 48	 div	 DWORD PTR tv82[ebp]
  000ef	8b 4d 74	 mov	 ecx, DWORD PTR _this$[ebp]
  000f2	89 81 24 eb 01
	00		 mov	 DWORD PTR [ecx+125732], eax

; 431  : 
; 432  : 		s_dwCheckTime		= ELTimer_GetMSec();

  000f8	e8 00 00 00 00	 call	 ?ELTimer_GetMSec@@YAKXZ	; ELTimer_GetMSec
  000fd	a3 00 00 00 00	 mov	 DWORD PTR ?s_dwCheckTime@?1??Process@CPythonApplication@@QAE_NXZ@4KA, eax

; 433  : 
; 434  : 		s_uiLoad = s_dwFaceCount = s_dwUpdateFrameCount = s_dwRenderFrameCount = 0;

  00102	83 25 00 00 00
	00 00		 and	 DWORD PTR ?s_dwRenderFrameCount@?1??Process@CPythonApplication@@QAE_NXZ@4KA, 0
  00109	a1 00 00 00 00	 mov	 eax, DWORD PTR ?s_dwRenderFrameCount@?1??Process@CPythonApplication@@QAE_NXZ@4KA
  0010e	a3 00 00 00 00	 mov	 DWORD PTR ?s_dwUpdateFrameCount@?1??Process@CPythonApplication@@QAE_NXZ@4KA, eax
  00113	a1 00 00 00 00	 mov	 eax, DWORD PTR ?s_dwUpdateFrameCount@?1??Process@CPythonApplication@@QAE_NXZ@4KA
  00118	a3 00 00 00 00	 mov	 DWORD PTR ?s_dwFaceCount@?1??Process@CPythonApplication@@QAE_NXZ@4KA, eax
  0011d	a1 00 00 00 00	 mov	 eax, DWORD PTR ?s_dwFaceCount@?1??Process@CPythonApplication@@QAE_NXZ@4KA
  00122	a3 00 00 00 00	 mov	 DWORD PTR ?s_uiLoad@?1??Process@CPythonApplication@@QAE_NXZ@4IA, eax
$LN5@Process:

; 435  : 	}
; 436  : 
; 437  : 	// Update Time
; 438  : 	static BOOL s_bFrameSkip = false;
; 439  : 	static UINT s_uiNextFrameTime = ELTimer_GetMSec();

  00127	a1 00 00 00 00	 mov	 eax, DWORD PTR __tls_index
  0012c	64 8b 0d 00 00
	00 00		 mov	 ecx, DWORD PTR fs:__tls_array
  00133	8b 04 81	 mov	 eax, DWORD PTR [ecx+eax*4]
  00136	8b 0d 00 00 00
	00		 mov	 ecx, DWORD PTR ?$TSS1@?1??Process@CPythonApplication@@QAE_NXZ@4HA
  0013c	3b 88 00 00 00
	00		 cmp	 ecx, DWORD PTR __Init_thread_epoch[eax]
  00142	7e 34		 jle	 SHORT $LN3@Process
  00144	68 00 00 00 00	 push	 OFFSET ?$TSS1@?1??Process@CPythonApplication@@QAE_NXZ@4HA
  00149	e8 00 00 00 00	 call	 __Init_thread_header
  0014e	59		 pop	 ecx
  0014f	83 3d 00 00 00
	00 ff		 cmp	 DWORD PTR ?$TSS1@?1??Process@CPythonApplication@@QAE_NXZ@4HA, -1
  00156	75 20		 jne	 SHORT $LN3@Process
  00158	c7 45 fc 01 00
	00 00		 mov	 DWORD PTR __$EHRec$[ebp+8], 1
  0015f	e8 00 00 00 00	 call	 ?ELTimer_GetMSec@@YAKXZ	; ELTimer_GetMSec
  00164	a3 00 00 00 00	 mov	 DWORD PTR ?s_uiNextFrameTime@?1??Process@CPythonApplication@@QAE_NXZ@4IA, eax
  00169	83 4d fc ff	 or	 DWORD PTR __$EHRec$[ebp+8], -1
  0016d	68 00 00 00 00	 push	 OFFSET ?$TSS1@?1??Process@CPythonApplication@@QAE_NXZ@4HA
  00172	e8 00 00 00 00	 call	 __Init_thread_footer
  00177	59		 pop	 ecx
$LN3@Process:

; 440  : 
; 441  : #ifdef __PERFORMANCE_CHECK__
; 442  : 	DWORD dwUpdateTime1=ELTimer_GetMSec();
; 443  : #endif
; 444  : 	CTimer& rkTimer=CTimer::Instance();

  00178	a1 00 00 00 00	 mov	 eax, DWORD PTR ?ms_singleton@?$CSingleton@VCTimer@@@@0PAVCTimer@@A ; CSingleton<CTimer>::ms_singleton
  0017d	89 45 64	 mov	 DWORD PTR _rkTimer$[ebp], eax

; 445  : 	rkTimer.Advance();

  00180	8b 4d 64	 mov	 ecx, DWORD PTR _rkTimer$[ebp]
  00183	e8 00 00 00 00	 call	 ?Advance@CTimer@@QAEXXZ	; CTimer::Advance

; 446  : 
; 447  : 	m_fGlobalTime = rkTimer.GetCurrentSecond();

  00188	8b 4d 64	 mov	 ecx, DWORD PTR _rkTimer$[ebp]
  0018b	e8 00 00 00 00	 call	 ?GetCurrentSecond@CTimer@@QAEMXZ ; CTimer::GetCurrentSecond
  00190	8b 45 74	 mov	 eax, DWORD PTR _this$[ebp]
  00193	d9 98 54 ea 01
	00		 fstp	 DWORD PTR [eax+125524]

; 448  : 	m_fGlobalElapsedTime = rkTimer.GetElapsedSecond();

  00199	8b 4d 64	 mov	 ecx, DWORD PTR _rkTimer$[ebp]
  0019c	e8 00 00 00 00	 call	 ?GetElapsedSecond@CTimer@@QAEMXZ ; CTimer::GetElapsedSecond
  001a1	8b 45 74	 mov	 eax, DWORD PTR _this$[ebp]
  001a4	d9 98 58 ea 01
	00		 fstp	 DWORD PTR [eax+125528]

; 449  : 
; 450  : 	UINT uiFrameTime = rkTimer.GetElapsedMilliecond();

  001aa	8b 4d 64	 mov	 ecx, DWORD PTR _rkTimer$[ebp]
  001ad	e8 00 00 00 00	 call	 ?GetElapsedMilliecond@CTimer@@QAEKXZ ; CTimer::GetElapsedMilliecond
  001b2	89 45 58	 mov	 DWORD PTR _uiFrameTime$[ebp], eax

; 451  : 	s_uiNextFrameTime += uiFrameTime;	//17 - 1 60fps.

  001b5	a1 00 00 00 00	 mov	 eax, DWORD PTR ?s_uiNextFrameTime@?1??Process@CPythonApplication@@QAE_NXZ@4IA
  001ba	03 45 58	 add	 eax, DWORD PTR _uiFrameTime$[ebp]
  001bd	a3 00 00 00 00	 mov	 DWORD PTR ?s_uiNextFrameTime@?1??Process@CPythonApplication@@QAE_NXZ@4IA, eax

; 452  : 
; 453  : 	DWORD updatestart = ELTimer_GetMSec();

  001c2	e8 00 00 00 00	 call	 ?ELTimer_GetMSec@@YAKXZ	; ELTimer_GetMSec
  001c7	89 45 00	 mov	 DWORD PTR _updatestart$[ebp], eax

; 454  : #ifdef __PERFORMANCE_CHECK__
; 455  : 	DWORD dwUpdateTime2=ELTimer_GetMSec();
; 456  : #endif
; 457  : 	// Network I/O	
; 458  : 	m_pyNetworkStream.Process();	

  001ca	8b 4d 74	 mov	 ecx, DWORD PTR _this$[ebp]
  001cd	81 c1 40 08 00
	00		 add	 ecx, 2112		; 00000840H
  001d3	e8 00 00 00 00	 call	 ?Process@CNetworkStream@@QAEXXZ ; CNetworkStream::Process

; 459  : 	//m_pyNetworkDatagram.Process();
; 460  : 
; 461  : 	m_kGuildMarkUploader.Process();
; 462  : 
; 463  : #ifdef USE_NPROTECT_GAMEGUARD
; 464  : 	if (GameGuard_IsError())
; 465  : 		return false;
; 466  : #endif
; 467  : 
; 468  : 	m_kGuildMarkDownloader.Process();

  001d8	8b 4d 74	 mov	 ecx, DWORD PTR _this$[ebp]
  001db	81 c1 04 c1 01
	00		 add	 ecx, 114948		; 0001c104H
  001e1	e8 00 00 00 00	 call	 ?Process@CGuildMarkDownloader@@QAEXXZ ; CGuildMarkDownloader::Process

; 469  : 	m_kAccountConnector.Process();

  001e6	8b 4d 74	 mov	 ecx, DWORD PTR _this$[ebp]
  001e9	81 c1 34 c2 01
	00		 add	 ecx, 115252		; 0001c234H
  001ef	e8 00 00 00 00	 call	 ?Process@CAccountConnector@@QAEXXZ ; CAccountConnector::Process

; 470  : 
; 471  : #ifdef __PERFORMANCE_CHECK__		
; 472  : 	DWORD dwUpdateTime3=ELTimer_GetMSec();
; 473  : #endif
; 474  : 	//////////////////////
; 475  : 	// Input Process
; 476  : 	// Keyboard
; 477  : 	UpdateKeyboard();

  001f4	8b 4d 74	 mov	 ecx, DWORD PTR _this$[ebp]
  001f7	83 c1 1c	 add	 ecx, 28			; 0000001cH
  001fa	e8 00 00 00 00	 call	 ?UpdateKeyboard@CInputKeyboard@@QAEXXZ ; CInputKeyboard::UpdateKeyboard

; 478  : #ifdef __PERFORMANCE_CHECK__
; 479  : 	DWORD dwUpdateTime4=ELTimer_GetMSec();
; 480  : #endif
; 481  : 	// Mouse
; 482  : 	POINT Point;
; 483  : 	if (GetCursorPos(&Point))

  001ff	8d 45 e0	 lea	 eax, DWORD PTR _Point$[ebp]
  00202	50		 push	 eax
  00203	ff 15 00 00 00
	00		 call	 DWORD PTR __imp__GetCursorPos@4
  00209	85 c0		 test	 eax, eax
  0020b	74 1e		 je	 SHORT $LN6@Process

; 484  : 	{
; 485  : 		ScreenToClient(m_hWnd, &Point);

  0020d	8d 45 e0	 lea	 eax, DWORD PTR _Point$[ebp]
  00210	50		 push	 eax
  00211	8b 45 74	 mov	 eax, DWORD PTR _this$[ebp]
  00214	ff 70 04	 push	 DWORD PTR [eax+4]
  00217	ff 15 00 00 00
	00		 call	 DWORD PTR __imp__ScreenToClient@8

; 486  : 		OnMouseMove(Point.x, Point.y);		

  0021d	ff 75 e4	 push	 DWORD PTR _Point$[ebp+4]
  00220	ff 75 e0	 push	 DWORD PTR _Point$[ebp]
  00223	8b 4d 74	 mov	 ecx, DWORD PTR _this$[ebp]
  00226	e8 00 00 00 00	 call	 ?OnMouseMove@CPythonApplication@@IAEXHH@Z ; CPythonApplication::OnMouseMove
$LN6@Process:

; 487  : 	}
; 488  : 	//////////////////////
; 489  : #ifdef __PERFORMANCE_CHECK__
; 490  : 	DWORD dwUpdateTime5=ELTimer_GetMSec();
; 491  : #endif
; 492  : 	//!@# Alt+Tab  SetTransfor      - [levites]
; 493  : 	//if (m_isActivateWnd)
; 494  : 	__UpdateCamera();

  0022b	8b 4d 74	 mov	 ecx, DWORD PTR _this$[ebp]
  0022e	e8 00 00 00 00	 call	 ?__UpdateCamera@CPythonApplication@@IAEXXZ ; CPythonApplication::__UpdateCamera

; 495  : #ifdef __PERFORMANCE_CHECK__
; 496  : 	DWORD dwUpdateTime6=ELTimer_GetMSec();
; 497  : #endif
; 498  : 	// Update Game Playing
; 499  : 	CResourceManager::Instance().Update();

  00233	8b 0d 00 00 00
	00		 mov	 ecx, DWORD PTR ?ms_singleton@?$CSingleton@VCResourceManager@@@@0PAVCResourceManager@@A ; CSingleton<CResourceManager>::ms_singleton
  00239	e8 00 00 00 00	 call	 ?Update@CResourceManager@@QAEXXZ ; CResourceManager::Update

; 500  : #ifdef __PERFORMANCE_CHECK__
; 501  : 	DWORD dwUpdateTime7=ELTimer_GetMSec();
; 502  : #endif
; 503  : 	OnCameraUpdate();

  0023e	8b 4d 74	 mov	 ecx, DWORD PTR _this$[ebp]
  00241	e8 00 00 00 00	 call	 ?OnCameraUpdate@CPythonApplication@@IAEXXZ ; CPythonApplication::OnCameraUpdate

; 504  : #ifdef __PERFORMANCE_CHECK__
; 505  : 	DWORD dwUpdateTime8=ELTimer_GetMSec();
; 506  : #endif
; 507  : 	OnMouseUpdate();

  00246	8b 4d 74	 mov	 ecx, DWORD PTR _this$[ebp]
  00249	e8 00 00 00 00	 call	 ?OnMouseUpdate@CPythonApplication@@IAEXXZ ; CPythonApplication::OnMouseUpdate

; 508  : #ifdef __PERFORMANCE_CHECK__
; 509  : 	DWORD dwUpdateTime9=ELTimer_GetMSec();
; 510  : #endif
; 511  : 	OnUIUpdate();

  0024e	8b 4d 74	 mov	 ecx, DWORD PTR _this$[ebp]
  00251	e8 00 00 00 00	 call	 ?OnUIUpdate@CPythonApplication@@IAEXXZ ; CPythonApplication::OnUIUpdate

; 512  : 
; 513  : #ifdef __PERFORMANCE_CHECK__		
; 514  : 	DWORD dwUpdateTime10=ELTimer_GetMSec();
; 515  : 
; 516  : 	if (dwUpdateTime10-dwUpdateTime1>10)
; 517  : 	{			
; 518  : 		static FILE* fp=fopen("perf_app_update.txt", "w");
; 519  : 
; 520  : 		fprintf(fp, "AU.Total %d (Time %d)\n", dwUpdateTime9-dwUpdateTime1, ELTimer_GetMSec());
; 521  : 		fprintf(fp, "AU.TU %d\n", dwUpdateTime2-dwUpdateTime1);
; 522  : 		fprintf(fp, "AU.NU %d\n", dwUpdateTime3-dwUpdateTime2);
; 523  : 		fprintf(fp, "AU.KU %d\n", dwUpdateTime4-dwUpdateTime3);
; 524  : 		fprintf(fp, "AU.MP %d\n", dwUpdateTime5-dwUpdateTime4);
; 525  : 		fprintf(fp, "AU.CP %d\n", dwUpdateTime6-dwUpdateTime5);
; 526  : 		fprintf(fp, "AU.RU %d\n", dwUpdateTime7-dwUpdateTime6);
; 527  : 		fprintf(fp, "AU.CU %d\n", dwUpdateTime8-dwUpdateTime7);
; 528  : 		fprintf(fp, "AU.MU %d\n", dwUpdateTime9-dwUpdateTime8);
; 529  : 		fprintf(fp, "AU.UU %d\n", dwUpdateTime10-dwUpdateTime9);			
; 530  : 		fprintf(fp, "----------------------------------\n");
; 531  : 		fflush(fp);
; 532  : 	}		
; 533  : #endif
; 534  : 
; 535  : 	//Update .delta
; 536  : 	m_dwCurUpdateTime = ELTimer_GetMSec() - updatestart;

  00256	e8 00 00 00 00	 call	 ?ELTimer_GetMSec@@YAKXZ	; ELTimer_GetMSec
  0025b	2b 45 00	 sub	 eax, DWORD PTR _updatestart$[ebp]
  0025e	8b 4d 74	 mov	 ecx, DWORD PTR _this$[ebp]
  00261	89 81 34 ea 01
	00		 mov	 DWORD PTR [ecx+125492], eax

; 537  : 
; 538  : 	DWORD dwCurrentTime = ELTimer_GetMSec();

  00267	e8 00 00 00 00	 call	 ?ELTimer_GetMSec@@YAKXZ	; ELTimer_GetMSec
  0026c	89 45 44	 mov	 DWORD PTR _dwCurrentTime$[ebp], eax

; 539  : 	BOOL  bCurrentLateUpdate = FALSE;

  0026f	83 65 04 00	 and	 DWORD PTR _bCurrentLateUpdate$[ebp], 0

; 540  : 
; 541  : 	s_bFrameSkip = false;

  00273	83 25 00 00 00
	00 00		 and	 DWORD PTR ?s_bFrameSkip@?1??Process@CPythonApplication@@QAE_NXZ@4HA, 0

; 542  : 
; 543  : 	if (dwCurrentTime > s_uiNextFrameTime)

  0027a	8b 45 44	 mov	 eax, DWORD PTR _dwCurrentTime$[ebp]
  0027d	3b 05 00 00 00
	00		 cmp	 eax, DWORD PTR ?s_uiNextFrameTime@?1??Process@CPythonApplication@@QAE_NXZ@4IA
  00283	0f 86 ac 00 00
	00		 jbe	 $LN7@Process

; 544  : 	{
; 545  : 		int dt = dwCurrentTime - s_uiNextFrameTime;

  00289	8b 45 44	 mov	 eax, DWORD PTR _dwCurrentTime$[ebp]
  0028c	2b 05 00 00 00
	00		 sub	 eax, DWORD PTR ?s_uiNextFrameTime@?1??Process@CPythonApplication@@QAE_NXZ@4IA
  00292	89 45 38	 mov	 DWORD PTR _dt$11[ebp], eax

; 546  : 		int nAdjustTime = ((float)dt / (float)uiFrameTime) * uiFrameTime; 

  00295	f3 0f 2a 45 38	 cvtsi2ss xmm0, DWORD PTR _dt$11[ebp]
  0029a	8b 45 58	 mov	 eax, DWORD PTR _uiFrameTime$[ebp]
  0029d	89 45 40	 mov	 DWORD PTR tv514[ebp], eax
  002a0	f2 0f 2a 4d 40	 cvtsi2sd xmm1, DWORD PTR tv514[ebp]
  002a5	8b 45 40	 mov	 eax, DWORD PTR tv514[ebp]
  002a8	c1 e8 1f	 shr	 eax, 31			; 0000001fH
  002ab	f2 0f 58 0c c5
	00 00 00 00	 addsd	 xmm1, QWORD PTR __xmm@41f00000000000000000000000000000[eax*8]
  002b4	f2 0f 11 4d c0	 movsd	 QWORD PTR tv518[ebp], xmm1
  002b9	f2 0f 5a 4d c0	 cvtsd2ss xmm1, QWORD PTR tv518[ebp]
  002be	f3 0f 5e c1	 divss	 xmm0, xmm1
  002c2	8b 45 58	 mov	 eax, DWORD PTR _uiFrameTime$[ebp]
  002c5	89 45 3c	 mov	 DWORD PTR tv523[ebp], eax
  002c8	f2 0f 2a 4d 3c	 cvtsi2sd xmm1, DWORD PTR tv523[ebp]
  002cd	8b 45 3c	 mov	 eax, DWORD PTR tv523[ebp]
  002d0	c1 e8 1f	 shr	 eax, 31			; 0000001fH
  002d3	f2 0f 58 0c c5
	00 00 00 00	 addsd	 xmm1, QWORD PTR __xmm@41f00000000000000000000000000000[eax*8]
  002dc	f2 0f 11 4d b8	 movsd	 QWORD PTR tv527[ebp], xmm1
  002e1	f2 0f 5a 4d b8	 cvtsd2ss xmm1, QWORD PTR tv527[ebp]
  002e6	f3 0f 59 c1	 mulss	 xmm0, xmm1
  002ea	f3 0f 2c c0	 cvttss2si eax, xmm0
  002ee	89 45 54	 mov	 DWORD PTR _nAdjustTime$13[ebp], eax

; 547  : 
; 548  : 		if ( dt >= 500 )

  002f1	81 7d 38 f4 01
	00 00		 cmp	 DWORD PTR _dt$11[ebp], 500 ; 000001f4H
  002f8	7c 2a		 jl	 SHORT $LN8@Process

; 549  : 		{
; 550  : 			s_uiNextFrameTime += nAdjustTime; 

  002fa	a1 00 00 00 00	 mov	 eax, DWORD PTR ?s_uiNextFrameTime@?1??Process@CPythonApplication@@QAE_NXZ@4IA
  002ff	03 45 54	 add	 eax, DWORD PTR _nAdjustTime$13[ebp]
  00302	a3 00 00 00 00	 mov	 DWORD PTR ?s_uiNextFrameTime@?1??Process@CPythonApplication@@QAE_NXZ@4IA, eax

; 551  : 			printf("FrameSkip  %d\n",nAdjustTime);

  00307	ff 75 54	 push	 DWORD PTR _nAdjustTime$13[ebp]
  0030a	68 00 00 00 00	 push	 OFFSET ??_C@_0BD@OJBILBDC@FrameSkip?5?$LK?$LI?A?$KE?5?$CFd?6@
  0030f	e8 00 00 00 00	 call	 _printf
  00314	59		 pop	 ecx
  00315	59		 pop	 ecx

; 552  : 			CTimer::Instance().Adjust(nAdjustTime);

  00316	ff 75 54	 push	 DWORD PTR _nAdjustTime$13[ebp]
  00319	8b 0d 00 00 00
	00		 mov	 ecx, DWORD PTR ?ms_singleton@?$CSingleton@VCTimer@@@@0PAVCTimer@@A ; CSingleton<CTimer>::ms_singleton
  0031f	e8 00 00 00 00	 call	 ?Adjust@CTimer@@QAEXH@Z	; CTimer::Adjust
$LN8@Process:

; 553  : 		}
; 554  : 
; 555  : 		s_bFrameSkip = true;

  00324	c7 05 00 00 00
	00 01 00 00 00	 mov	 DWORD PTR ?s_bFrameSkip@?1??Process@CPythonApplication@@QAE_NXZ@4HA, 1

; 556  : 		bCurrentLateUpdate = TRUE;

  0032e	c7 45 04 01 00
	00 00		 mov	 DWORD PTR _bCurrentLateUpdate$[ebp], 1
$LN7@Process:

; 557  : 	}
; 558  : 
; 559  : 	//s_bFrameSkip = false;
; 560  : 
; 561  : 	//if (dwCurrentTime > s_uiNextFrameTime)
; 562  : 	//{
; 563  : 	//	int dt = dwCurrentTime - s_uiNextFrameTime;
; 564  : 
; 565  : 	//	//   .
; 566  : 	//	// m_dwCurUpdateTime delta delta absolute time  ?
; 567  : 	//	//if (dt >= 500 || m_dwCurUpdateTime > s_uiNextFrameTime)
; 568  : 
; 569  : 	//	//  0.5    update   rendering frame skip
; 570  : 	//	if (dt >= 500 || m_dwCurUpdateTime > s_uiNextFrameTime)
; 571  : 	//	{
; 572  : 	//		s_uiNextFrameTime += dt / uiFrameTime * uiFrameTime; 
; 573  : 	//		printf("FrameSkip  %d\n", dt / uiFrameTime * uiFrameTime);
; 574  : 	//		CTimer::Instance().Adjust((dt / uiFrameTime) * uiFrameTime);
; 575  : 	//		s_bFrameSkip = true;
; 576  : 	//	}
; 577  : 	//}
; 578  : 
; 579  : 	if (m_isFrameSkipDisable)

  00335	8b 45 74	 mov	 eax, DWORD PTR _this$[ebp]
  00338	0f b6 80 49 eb
	01 00		 movzx	 eax, BYTE PTR [eax+125769]
  0033f	85 c0		 test	 eax, eax
  00341	74 07		 je	 SHORT $LN9@Process

; 580  : 		s_bFrameSkip = false;

  00343	83 25 00 00 00
	00 00		 and	 DWORD PTR ?s_bFrameSkip@?1??Process@CPythonApplication@@QAE_NXZ@4HA, 0
$LN9@Process:

; 581  : 
; 582  : #ifdef __VTUNE__
; 583  : 	s_bFrameSkip = false;

  0034a	83 25 00 00 00
	00 00		 and	 DWORD PTR ?s_bFrameSkip@?1??Process@CPythonApplication@@QAE_NXZ@4HA, 0

; 584  : #endif
; 585  : 	/*
; 586  : 	static bool s_isPrevFrameSkip=false;
; 587  : 	static DWORD s_dwFrameSkipCount=0;
; 588  : 	static DWORD s_dwFrameSkipEndTime=0;
; 589  : 
; 590  : 	static DWORD ERROR_FRAME_SKIP_COUNT = 60*5;
; 591  : 	static DWORD ERROR_FRAME_SKIP_TIME = ERROR_FRAME_SKIP_COUNT*18;
; 592  : 
; 593  : 	//static DWORD MAX_FRAME_SKIP=0;
; 594  : 
; 595  : 	if (IsActive())
; 596  : 	{
; 597  : 	DWORD dwFrameSkipCurTime=ELTimer_GetMSec();
; 598  : 
; 599  : 	if (s_bFrameSkip)
; 600  : 	{
; 601  : 	//   ..
; 602  : 	if (s_isPrevFrameSkip)
; 603  : 	{
; 604  : 	if (s_dwFrameSkipEndTime==0)
; 605  : 	{
; 606  : 	s_dwFrameSkipCount=0; //    
; 607  : 	s_dwFrameSkipEndTime=dwFrameSkipCurTime+ERROR_FRAME_SKIP_TIME; //      
; 608  : 
; 609  : 	//printf("FrameSkipCheck Start\n");
; 610  : 	}
; 611  : 	++s_dwFrameSkipCount;
; 612  : 
; 613  : 	//if (MAX_FRAME_SKIP<s_dwFrameSkipCount)
; 614  : 	//	MAX_FRAME_SKIP=s_dwFrameSkipCount;
; 615  : 
; 616  : 	//printf("u %d c %d/%d t %d\n", 
; 617  : 	//	dwUpdateTime9-dwUpdateTime1,
; 618  : 	//	s_dwFrameSkipCount, 
; 619  : 	//	MAX_FRAME_SKIP,
; 620  : 	//	s_dwFrameSkipEndTime);
; 621  : 
; 622  : 	//#ifndef _DEBUG
; 623  : 	//      ...
; 624  : 	if (s_dwFrameSkipCount>ERROR_FRAME_SKIP_COUNT && s_dwFrameSkipEndTime<dwFrameSkipCurTime)
; 625  : 	{
; 626  : 	s_isPrevFrameSkip=false;
; 627  : 	s_dwFrameSkipEndTime=0;
; 628  : 	s_dwFrameSkipCount=0;
; 629  : 
; 630  : 	//m_pyNetworkStream.AbsoluteExitGame();
; 631  : 
; 632  : 	/*
; 633  : 	TraceError("    ");
; 634  : 
; 635  : 	{
; 636  : 	FILE* fp=fopen("errorlog.txt", "w");
; 637  : 	if (fp)
; 638  : 	{
; 639  : 	fprintf(fp, "FRAMESKIP\n");
; 640  : 	fprintf(fp, "Total %d\n",		dwUpdateTime9-dwUpdateTime1);
; 641  : 	fprintf(fp, "Timer %d\n",		dwUpdateTime2-dwUpdateTime1);
; 642  : 	fprintf(fp, "Network %d\n",		dwUpdateTime3-dwUpdateTime2);
; 643  : 	fprintf(fp, "Keyboard %d\n",	dwUpdateTime4-dwUpdateTime3);
; 644  : 	fprintf(fp, "Controll %d\n",	dwUpdateTime5-dwUpdateTime4);
; 645  : 	fprintf(fp, "Resource %d\n",	dwUpdateTime6-dwUpdateTime5);
; 646  : 	fprintf(fp, "Camera %d\n",		dwUpdateTime7-dwUpdateTime6);
; 647  : 	fprintf(fp, "Mouse %d\n",		dwUpdateTime8-dwUpdateTime7);
; 648  : 	fprintf(fp, "UI %d\n",			dwUpdateTime9-dwUpdateTime8);
; 649  : 	fclose(fp);
; 650  : 
; 651  : 	WinExec("errorlog.exe", SW_SHOW);
; 652  : 	}
; 653  : 	}
; 654  : 	}
; 655  : 	}
; 656  : 
; 657  : 	s_isPrevFrameSkip=true;
; 658  : 	}
; 659  : 	else
; 660  : 	{
; 661  : 	s_isPrevFrameSkip=false;
; 662  : 	s_dwFrameSkipCount=0;
; 663  : 	s_dwFrameSkipEndTime=0;
; 664  : 	}
; 665  : 	}
; 666  : 	else
; 667  : 	{
; 668  : 	s_isPrevFrameSkip=false;
; 669  : 	s_dwFrameSkipCount=0;
; 670  : 	s_dwFrameSkipEndTime=0;
; 671  : 	}
; 672  : 	*/
; 673  : 	if (!s_bFrameSkip)

  00351	0f 85 42 06 00
	00		 jne	 $LN19@Process

; 674  : 	{
; 675  : 		//		static double pos=0.0f;
; 676  : 		//		CGrannyMaterial::TranslateSpecularMatrix(fabs(sin(pos)*0.005), fabs(cos(pos)*0.005), 0.0f);
; 677  : 		//		pos+=0.01f;
; 678  : 
; 679  : 		CGrannyMaterial::TranslateSpecularMatrix(g_specularSpd, g_specularSpd, 0.0f);

  00357	51		 push	 ecx
  00358	0f 57 c0	 xorps	 xmm0, xmm0
  0035b	f3 0f 11 04 24	 movss	 DWORD PTR [esp], xmm0
  00360	f2 0f 5a 05 00
	00 00 00	 cvtsd2ss xmm0, QWORD PTR ?g_specularSpd@@3NA
  00368	51		 push	 ecx
  00369	f3 0f 11 04 24	 movss	 DWORD PTR [esp], xmm0
  0036e	f2 0f 5a 05 00
	00 00 00	 cvtsd2ss xmm0, QWORD PTR ?g_specularSpd@@3NA
  00376	51		 push	 ecx
  00377	f3 0f 11 04 24	 movss	 DWORD PTR [esp], xmm0
  0037c	e8 00 00 00 00	 call	 ?TranslateSpecularMatrix@CGrannyMaterial@@SAXMMM@Z ; CGrannyMaterial::TranslateSpecularMatrix
  00381	83 c4 0c	 add	 esp, 12			; 0000000cH

; 680  : 
; 681  : 		DWORD dwRenderStartTime = ELTimer_GetMSec();		

  00384	e8 00 00 00 00	 call	 ?ELTimer_GetMSec@@YAKXZ	; ELTimer_GetMSec
  00389	89 45 f0	 mov	 DWORD PTR _dwRenderStartTime$5[ebp], eax

; 682  : 
; 683  : 		bool canRender = true;

  0038c	c6 45 73 01	 mov	 BYTE PTR _canRender$18[ebp], 1

; 684  : 
; 685  : 		if (m_isMinimizedWnd)

  00390	8b 45 74	 mov	 eax, DWORD PTR _this$[ebp]
  00393	0f b6 80 68 eb
	01 00		 movzx	 eax, BYTE PTR [eax+125800]
  0039a	85 c0		 test	 eax, eax
  0039c	74 06		 je	 SHORT $LN11@Process

; 686  : 		{
; 687  : 			canRender = false;

  0039e	c6 45 73 00	 mov	 BYTE PTR _canRender$18[ebp], 0

; 688  : 		}

  003a2	eb 42		 jmp	 SHORT $LN15@Process
$LN11@Process:

; 689  : 		else
; 690  : 		{
; 691  : 			if (m_pyGraphic.IsLostDevice())

  003a4	8b 4d 74	 mov	 ecx, DWORD PTR _this$[ebp]
  003a7	81 c1 9c 07 00
	00		 add	 ecx, 1948		; 0000079cH
  003ad	e8 00 00 00 00	 call	 ?IsLostDevice@CScreen@@QAEHXZ ; CScreen::IsLostDevice
  003b2	85 c0		 test	 eax, eax
  003b4	74 30		 je	 SHORT $LN15@Process

; 692  : 			{
; 693  : 				CPythonBackground& rkBG = CPythonBackground::Instance();

  003b6	a1 00 00 00 00	 mov	 eax, DWORD PTR ?ms_singleton@?$CSingleton@VCPythonBackground@@@@0PAVCPythonBackground@@A ; CSingleton<CPythonBackground>::ms_singleton
  003bb	89 45 34	 mov	 DWORD PTR _rkBG$10[ebp], eax

; 694  : 				rkBG.ReleaseCharacterShadowTexture();

  003be	8b 4d 34	 mov	 ecx, DWORD PTR _rkBG$10[ebp]
  003c1	e8 00 00 00 00	 call	 ?ReleaseCharacterShadowTexture@CPythonBackground@@QAEXXZ ; CPythonBackground::ReleaseCharacterShadowTexture

; 695  : 
; 696  : 				if (m_pyGraphic.RestoreDevice())					

  003c6	8b 4d 74	 mov	 ecx, DWORD PTR _this$[ebp]
  003c9	81 c1 9c 07 00
	00		 add	 ecx, 1948		; 0000079cH
  003cf	e8 00 00 00 00	 call	 ?RestoreDevice@CScreen@@QAEHXZ ; CScreen::RestoreDevice
  003d4	85 c0		 test	 eax, eax
  003d6	74 0a		 je	 SHORT $LN14@Process

; 697  : 					rkBG.CreateCharacterShadowTexture();

  003d8	8b 4d 34	 mov	 ecx, DWORD PTR _rkBG$10[ebp]
  003db	e8 00 00 00 00	 call	 ?CreateCharacterShadowTexture@CPythonBackground@@QAEXXZ ; CPythonBackground::CreateCharacterShadowTexture
  003e0	eb 04		 jmp	 SHORT $LN15@Process
$LN14@Process:

; 698  : 				else
; 699  : 					canRender = false;				

  003e2	c6 45 73 00	 mov	 BYTE PTR _canRender$18[ebp], 0
$LN15@Process:

; 700  : 			}
; 701  : 		}
; 702  : 
; 703  : 		if (!IsActive())

  003e6	8b 4d 74	 mov	 ecx, DWORD PTR _this$[ebp]
  003e9	e8 00 00 00 00	 call	 ?IsActive@CMSWindow@@QAE_NXZ ; CMSWindow::IsActive
  003ee	0f b6 c0	 movzx	 eax, al
  003f1	85 c0		 test	 eax, eax
  003f3	75 14		 jne	 SHORT $LN16@Process

; 704  : 		{
; 705  : 			SkipRenderBuffering(3000);

  003f5	68 b8 0b 00 00	 push	 3000			; 00000bb8H
  003fa	8b 4d 74	 mov	 ecx, DWORD PTR _this$[ebp]
  003fd	83 c1 20	 add	 ecx, 32			; 00000020H
  00400	8b 45 74	 mov	 eax, DWORD PTR _this$[ebp]
  00403	8b 40 20	 mov	 eax, DWORD PTR [eax+32]
  00406	ff 50 10	 call	 DWORD PTR [eax+16]
$LN16@Process:

; 706  : 		}
; 707  : 
; 708  : 		//        
; 709  : 		if (!canRender)

  00409	0f b6 45 73	 movzx	 eax, BYTE PTR _canRender$18[ebp]
  0040d	85 c0		 test	 eax, eax
  0040f	75 19		 jne	 SHORT $LN17@Process

; 710  : 		{
; 711  : 			SkipRenderBuffering(3000);

  00411	68 b8 0b 00 00	 push	 3000			; 00000bb8H
  00416	8b 4d 74	 mov	 ecx, DWORD PTR _this$[ebp]
  00419	83 c1 20	 add	 ecx, 32			; 00000020H
  0041c	8b 45 74	 mov	 eax, DWORD PTR _this$[ebp]
  0041f	8b 40 20	 mov	 eax, DWORD PTR [eax+32]
  00422	ff 50 10	 call	 DWORD PTR [eax+16]

; 712  : 		}

  00425	e9 6f 05 00 00	 jmp	 $LN19@Process
$LN17@Process:

; 713  : 		else
; 714  : 		{
; 715  : 			// RestoreLostDevice
; 716  : 			CCullingManager::Instance().Update();

  0042a	8b 0d 00 00 00
	00		 mov	 ecx, DWORD PTR ?ms_singleton@?$CSingleton@VCCullingManager@@@@0PAVCCullingManager@@A ; CSingleton<CCullingManager>::ms_singleton
  00430	e8 00 00 00 00	 call	 ?Update@CCullingManager@@QAEXXZ ; CCullingManager::Update

; 717  : 			if (m_pyGraphic.Begin())

  00435	8b 4d 74	 mov	 ecx, DWORD PTR _this$[ebp]
  00438	81 c1 9c 07 00
	00		 add	 ecx, 1948		; 0000079cH
  0043e	e8 00 00 00 00	 call	 ?Begin@CScreen@@QAE_NXZ	; CScreen::Begin
  00443	0f b6 c0	 movzx	 eax, al
  00446	85 c0		 test	 eax, eax
  00448	0f 84 4b 05 00
	00		 je	 $LN19@Process

; 718  : 			{
; 719  : 
; 720  : 				m_pyGraphic.ClearDepthBuffer();

  0044e	8b 4d 74	 mov	 ecx, DWORD PTR _this$[ebp]
  00451	81 c1 9c 07 00
	00		 add	 ecx, 1948		; 0000079cH
  00457	e8 00 00 00 00	 call	 ?ClearDepthBuffer@CScreen@@QAEXXZ ; CScreen::ClearDepthBuffer

; 721  : 
; 722  : #ifdef _DEBUG
; 723  : 				m_pyGraphic.SetClearColor(0.3f, 0.3f, 0.3f);
; 724  : 				m_pyGraphic.Clear();
; 725  : #endif
; 726  : 
; 727  : 				/////////////////////
; 728  : 				// Interface
; 729  : 				m_pyGraphic.SetInterfaceRenderState();

  0045c	8b 4d 74	 mov	 ecx, DWORD PTR _this$[ebp]
  0045f	81 c1 9c 07 00
	00		 add	 ecx, 1948		; 0000079cH
  00465	e8 00 00 00 00	 call	 ?SetInterfaceRenderState@CPythonGraphic@@QAEXXZ ; CPythonGraphic::SetInterfaceRenderState

; 730  : 
; 731  : 				OnUIRender();

  0046a	8b 4d 74	 mov	 ecx, DWORD PTR _this$[ebp]
  0046d	e8 00 00 00 00	 call	 ?OnUIRender@CPythonApplication@@IAEXXZ ; CPythonApplication::OnUIRender

; 732  : 				OnMouseRender();

  00472	8b 4d 74	 mov	 ecx, DWORD PTR _this$[ebp]
  00475	e8 00 00 00 00	 call	 ?OnMouseRender@CPythonApplication@@IAEXXZ ; CPythonApplication::OnMouseRender

; 733  : 				/////////////////////
; 734  : 
; 735  : 				m_pyGraphic.End();

  0047a	8b 4d 74	 mov	 ecx, DWORD PTR _this$[ebp]
  0047d	81 c1 9c 07 00
	00		 add	 ecx, 1948		; 0000079cH
  00483	e8 00 00 00 00	 call	 ?End@CScreen@@QAEXXZ	; CScreen::End

; 736  : 
; 737  : 				//DWORD t1 = ELTimer_GetMSec();
; 738  : 				m_pyGraphic.Show();

  00488	6a 00		 push	 0
  0048a	8b 4d 74	 mov	 ecx, DWORD PTR _this$[ebp]
  0048d	81 c1 9c 07 00
	00		 add	 ecx, 1948		; 0000079cH
  00493	e8 00 00 00 00	 call	 ?Show@CScreen@@QAEXPAUHWND__@@@Z ; CScreen::Show

; 739  : 				//DWORD t2 = ELTimer_GetMSec();
; 740  : 
; 741  : 				DWORD dwRenderEndTime = ELTimer_GetMSec();

  00498	e8 00 00 00 00	 call	 ?ELTimer_GetMSec@@YAKXZ	; ELTimer_GetMSec
  0049d	89 45 60	 mov	 DWORD PTR _dwRenderEndTime$15[ebp], eax

; 742  : 
; 743  : 				static DWORD s_dwRenderCheckTime = dwRenderEndTime;

  004a0	a1 00 00 00 00	 mov	 eax, DWORD PTR __tls_index
  004a5	64 8b 0d 00 00
	00 00		 mov	 ecx, DWORD PTR fs:__tls_array
  004ac	8b 04 81	 mov	 eax, DWORD PTR [ecx+eax*4]
  004af	8b 0d 00 00 00
	00		 mov	 ecx, DWORD PTR ?$TSS2@?CJ@??Process@CPythonApplication@@QAE_NXZ@4HA
  004b5	3b 88 00 00 00
	00		 cmp	 ecx, DWORD PTR __Init_thread_epoch[eax]
  004bb	7e 27		 jle	 SHORT $LN4@Process
  004bd	68 00 00 00 00	 push	 OFFSET ?$TSS2@?CJ@??Process@CPythonApplication@@QAE_NXZ@4HA
  004c2	e8 00 00 00 00	 call	 __Init_thread_header
  004c7	59		 pop	 ecx
  004c8	83 3d 00 00 00
	00 ff		 cmp	 DWORD PTR ?$TSS2@?CJ@??Process@CPythonApplication@@QAE_NXZ@4HA, -1
  004cf	75 13		 jne	 SHORT $LN4@Process
  004d1	8b 45 60	 mov	 eax, DWORD PTR _dwRenderEndTime$15[ebp]
  004d4	a3 00 00 00 00	 mov	 DWORD PTR ?s_dwRenderCheckTime@?CJ@??Process@CPythonApplication@@QAE_NXZ@4KA, eax
  004d9	68 00 00 00 00	 push	 OFFSET ?$TSS2@?CJ@??Process@CPythonApplication@@QAE_NXZ@4HA
  004de	e8 00 00 00 00	 call	 __Init_thread_footer
  004e3	59		 pop	 ecx
$LN4@Process:

; 744  : 				static DWORD s_dwRenderRangeTime = 0;
; 745  : 				static DWORD s_dwRenderRangeFrame = 0;
; 746  : 
; 747  : 				m_dwCurRenderTime = dwRenderEndTime - dwRenderStartTime;			

  004e4	8b 45 60	 mov	 eax, DWORD PTR _dwRenderEndTime$15[ebp]
  004e7	2b 45 f0	 sub	 eax, DWORD PTR _dwRenderStartTime$5[ebp]
  004ea	8b 4d 74	 mov	 ecx, DWORD PTR _this$[ebp]
  004ed	89 81 30 ea 01
	00		 mov	 DWORD PTR [ecx+125488], eax

; 748  : 				s_dwRenderRangeTime += m_dwCurRenderTime;				

  004f3	8b 45 74	 mov	 eax, DWORD PTR _this$[ebp]
  004f6	8b 0d 00 00 00
	00		 mov	 ecx, DWORD PTR ?s_dwRenderRangeTime@?CJ@??Process@CPythonApplication@@QAE_NXZ@4KA
  004fc	03 88 30 ea 01
	00		 add	 ecx, DWORD PTR [eax+125488]
  00502	89 0d 00 00 00
	00		 mov	 DWORD PTR ?s_dwRenderRangeTime@?CJ@??Process@CPythonApplication@@QAE_NXZ@4KA, ecx

; 749  : 				++s_dwRenderRangeFrame;			

  00508	a1 00 00 00 00	 mov	 eax, DWORD PTR ?s_dwRenderRangeFrame@?CJ@??Process@CPythonApplication@@QAE_NXZ@4KA
  0050d	40		 inc	 eax
  0050e	a3 00 00 00 00	 mov	 DWORD PTR ?s_dwRenderRangeFrame@?CJ@??Process@CPythonApplication@@QAE_NXZ@4KA, eax

; 750  : 
; 751  : 				if (dwRenderEndTime-s_dwRenderCheckTime>1000)

  00513	8b 45 60	 mov	 eax, DWORD PTR _dwRenderEndTime$15[ebp]
  00516	2b 05 00 00 00
	00		 sub	 eax, DWORD PTR ?s_dwRenderCheckTime@?CJ@??Process@CPythonApplication@@QAE_NXZ@4KA
  0051c	3d e8 03 00 00	 cmp	 eax, 1000		; 000003e8H
  00521	76 63		 jbe	 SHORT $LN20@Process

; 752  : 				{
; 753  : 					m_fAveRenderTime=float(double(s_dwRenderRangeTime)/double(s_dwRenderRangeFrame));

  00523	a1 00 00 00 00	 mov	 eax, DWORD PTR ?s_dwRenderRangeTime@?CJ@??Process@CPythonApplication@@QAE_NXZ@4KA
  00528	89 45 30	 mov	 DWORD PTR tv567[ebp], eax
  0052b	f2 0f 2a 45 30	 cvtsi2sd xmm0, DWORD PTR tv567[ebp]
  00530	8b 45 30	 mov	 eax, DWORD PTR tv567[ebp]
  00533	c1 e8 1f	 shr	 eax, 31			; 0000001fH
  00536	f2 0f 58 04 c5
	00 00 00 00	 addsd	 xmm0, QWORD PTR __xmm@41f00000000000000000000000000000[eax*8]
  0053f	a1 00 00 00 00	 mov	 eax, DWORD PTR ?s_dwRenderRangeFrame@?CJ@??Process@CPythonApplication@@QAE_NXZ@4KA
  00544	89 45 2c	 mov	 DWORD PTR tv572[ebp], eax
  00547	f2 0f 2a 4d 2c	 cvtsi2sd xmm1, DWORD PTR tv572[ebp]
  0054c	8b 45 2c	 mov	 eax, DWORD PTR tv572[ebp]
  0054f	c1 e8 1f	 shr	 eax, 31			; 0000001fH
  00552	f2 0f 58 0c c5
	00 00 00 00	 addsd	 xmm1, QWORD PTR __xmm@41f00000000000000000000000000000[eax*8]
  0055b	f2 0f 5e c1	 divsd	 xmm0, xmm1
  0055f	f2 0f 5a c0	 cvtsd2ss xmm0, xmm0
  00563	8b 45 74	 mov	 eax, DWORD PTR _this$[ebp]
  00566	f3 0f 11 80 2c
	ea 01 00	 movss	 DWORD PTR [eax+125484], xmm0

; 754  : 
; 755  : 					s_dwRenderCheckTime=ELTimer_GetMSec();

  0056e	e8 00 00 00 00	 call	 ?ELTimer_GetMSec@@YAKXZ	; ELTimer_GetMSec
  00573	a3 00 00 00 00	 mov	 DWORD PTR ?s_dwRenderCheckTime@?CJ@??Process@CPythonApplication@@QAE_NXZ@4KA, eax

; 756  : 					s_dwRenderRangeTime=0;

  00578	83 25 00 00 00
	00 00		 and	 DWORD PTR ?s_dwRenderRangeTime@?CJ@??Process@CPythonApplication@@QAE_NXZ@4KA, 0

; 757  : 					s_dwRenderRangeFrame=0;

  0057f	83 25 00 00 00
	00 00		 and	 DWORD PTR ?s_dwRenderRangeFrame@?CJ@??Process@CPythonApplication@@QAE_NXZ@4KA, 0
$LN20@Process:

; 758  : 				}										
; 759  : 
; 760  : 				DWORD dwCurFaceCount=m_pyGraphic.GetFaceCount();

  00586	8b 4d 74	 mov	 ecx, DWORD PTR _this$[ebp]
  00589	81 c1 9c 07 00
	00		 add	 ecx, 1948		; 0000079cH
  0058f	e8 00 00 00 00	 call	 ?GetFaceCount@CGraphicBase@@QAEKXZ ; CGraphicBase::GetFaceCount
  00594	89 45 50	 mov	 DWORD PTR _dwCurFaceCount$12[ebp], eax

; 761  : 				m_pyGraphic.ResetFaceCount();

  00597	8b 4d 74	 mov	 ecx, DWORD PTR _this$[ebp]
  0059a	81 c1 9c 07 00
	00		 add	 ecx, 1948		; 0000079cH
  005a0	e8 00 00 00 00	 call	 ?ResetFaceCount@CGraphicBase@@QAEXXZ ; CGraphicBase::ResetFaceCount

; 762  : 				s_dwFaceCount += dwCurFaceCount;

  005a5	a1 00 00 00 00	 mov	 eax, DWORD PTR ?s_dwFaceCount@?1??Process@CPythonApplication@@QAE_NXZ@4KA
  005aa	03 45 50	 add	 eax, DWORD PTR _dwCurFaceCount$12[ebp]
  005ad	a3 00 00 00 00	 mov	 DWORD PTR ?s_dwFaceCount@?1??Process@CPythonApplication@@QAE_NXZ@4KA, eax

; 763  : 
; 764  : 				if (dwCurFaceCount > 5000)

  005b2	81 7d 50 88 13
	00 00		 cmp	 DWORD PTR _dwCurFaceCount$12[ebp], 5000 ; 00001388H
  005b9	0f 86 b1 03 00
	00		 jbe	 $LN21@Process

; 765  : 				{
; 766  : 					//   
; 767  : 					if (dwRenderEndTime > m_dwBufSleepSkipTime)

  005bf	8b 45 74	 mov	 eax, DWORD PTR _this$[ebp]
  005c2	8b 4d 60	 mov	 ecx, DWORD PTR _dwRenderEndTime$15[ebp]
  005c5	3b 88 74 eb 01
	00		 cmp	 ecx, DWORD PTR [eax+125812]
  005cb	0f 86 82 01 00
	00		 jbe	 $LN23@Process

; 768  : 					{	
; 769  : 						static float s_fBufRenderTime = 0.0f;
; 770  : 
; 771  : 						float fCurRenderTime = m_dwCurRenderTime;

  005d1	8b 45 74	 mov	 eax, DWORD PTR _this$[ebp]
  005d4	8b 80 30 ea 01
	00		 mov	 eax, DWORD PTR [eax+125488]
  005da	89 45 28	 mov	 DWORD PTR tv586[ebp], eax
  005dd	f2 0f 2a 45 28	 cvtsi2sd xmm0, DWORD PTR tv586[ebp]
  005e2	8b 45 28	 mov	 eax, DWORD PTR tv586[ebp]
  005e5	c1 e8 1f	 shr	 eax, 31			; 0000001fH
  005e8	f2 0f 58 04 c5
	00 00 00 00	 addsd	 xmm0, QWORD PTR __xmm@41f00000000000000000000000000000[eax*8]
  005f1	f2 0f 11 45 b0	 movsd	 QWORD PTR tv590[ebp], xmm0
  005f6	f2 0f 5a 45 b0	 cvtsd2ss xmm0, QWORD PTR tv590[ebp]
  005fb	f3 0f 11 45 5c	 movss	 DWORD PTR _fCurRenderTime$14[ebp], xmm0

; 772  : 
; 773  : 						if (fCurRenderTime > s_fBufRenderTime)

  00600	f3 0f 10 45 5c	 movss	 xmm0, DWORD PTR _fCurRenderTime$14[ebp]
  00605	0f 2f 05 00 00
	00 00		 comiss	 xmm0, DWORD PTR ?s_fBufRenderTime@?DC@??Process@CPythonApplication@@QAE_NXZ@4MA
  0060c	76 70		 jbe	 SHORT $LN24@Process

; 774  : 						{
; 775  : 							float fRatio = fMAX(0.5f, (fCurRenderTime - s_fBufRenderTime) / 30.0f);

  0060e	f3 0f 10 45 5c	 movss	 xmm0, DWORD PTR _fCurRenderTime$14[ebp]
  00613	f3 0f 5c 05 00
	00 00 00	 subss	 xmm0, DWORD PTR ?s_fBufRenderTime@?DC@??Process@CPythonApplication@@QAE_NXZ@4MA
  0061b	f3 0f 5e 05 00
	00 00 00	 divss	 xmm0, DWORD PTR __real@41f00000
  00623	51		 push	 ecx
  00624	f3 0f 11 04 24	 movss	 DWORD PTR [esp], xmm0
  00629	51		 push	 ecx
  0062a	f3 0f 10 05 00
	00 00 00	 movss	 xmm0, DWORD PTR __real@3f000000
  00632	f3 0f 11 04 24	 movss	 DWORD PTR [esp], xmm0
  00637	e8 00 00 00 00	 call	 ?fMAX@@YAMMM@Z		; fMAX
  0063c	59		 pop	 ecx
  0063d	59		 pop	 ecx
  0063e	d9 5d 24	 fstp	 DWORD PTR _fRatio$9[ebp]

; 776  : 							s_fBufRenderTime = (s_fBufRenderTime * (100.0f - fRatio) + (fCurRenderTime + 5) * fRatio) / 100.0f;

  00641	f3 0f 10 05 00
	00 00 00	 movss	 xmm0, DWORD PTR __real@42c80000
  00649	f3 0f 5c 45 24	 subss	 xmm0, DWORD PTR _fRatio$9[ebp]
  0064e	f3 0f 59 05 00
	00 00 00	 mulss	 xmm0, DWORD PTR ?s_fBufRenderTime@?DC@??Process@CPythonApplication@@QAE_NXZ@4MA
  00656	f3 0f 10 4d 5c	 movss	 xmm1, DWORD PTR _fCurRenderTime$14[ebp]
  0065b	f3 0f 58 0d 00
	00 00 00	 addss	 xmm1, DWORD PTR __real@40a00000
  00663	f3 0f 59 4d 24	 mulss	 xmm1, DWORD PTR _fRatio$9[ebp]
  00668	f3 0f 58 c1	 addss	 xmm0, xmm1
  0066c	f3 0f 5e 05 00
	00 00 00	 divss	 xmm0, DWORD PTR __real@42c80000
  00674	f3 0f 11 05 00
	00 00 00	 movss	 DWORD PTR ?s_fBufRenderTime@?DC@??Process@CPythonApplication@@QAE_NXZ@4MA, xmm0

; 777  : 						}

  0067c	eb 40		 jmp	 SHORT $LN25@Process
$LN24@Process:

; 778  : 						else
; 779  : 						{
; 780  : 							float fRatio = 0.5f;

  0067e	f3 0f 10 05 00
	00 00 00	 movss	 xmm0, DWORD PTR __real@3f000000
  00686	f3 0f 11 45 20	 movss	 DWORD PTR _fRatio$8[ebp], xmm0

; 781  : 							s_fBufRenderTime = (s_fBufRenderTime * (100.0f - fRatio) + fCurRenderTime * fRatio) / 100.0f;

  0068b	f3 0f 10 05 00
	00 00 00	 movss	 xmm0, DWORD PTR __real@42c80000
  00693	f3 0f 5c 45 20	 subss	 xmm0, DWORD PTR _fRatio$8[ebp]
  00698	f3 0f 59 05 00
	00 00 00	 mulss	 xmm0, DWORD PTR ?s_fBufRenderTime@?DC@??Process@CPythonApplication@@QAE_NXZ@4MA
  006a0	f3 0f 10 4d 5c	 movss	 xmm1, DWORD PTR _fCurRenderTime$14[ebp]
  006a5	f3 0f 59 4d 20	 mulss	 xmm1, DWORD PTR _fRatio$8[ebp]
  006aa	f3 0f 58 c1	 addss	 xmm0, xmm1
  006ae	f3 0f 5e 05 00
	00 00 00	 divss	 xmm0, DWORD PTR __real@42c80000
  006b6	f3 0f 11 05 00
	00 00 00	 movss	 DWORD PTR ?s_fBufRenderTime@?DC@??Process@CPythonApplication@@QAE_NXZ@4MA, xmm0
$LN25@Process:

; 782  : 						}
; 783  : 
; 784  : 						//  
; 785  : 						if (s_fBufRenderTime > 100.0f)

  006be	f3 0f 10 05 00
	00 00 00	 movss	 xmm0, DWORD PTR ?s_fBufRenderTime@?DC@??Process@CPythonApplication@@QAE_NXZ@4MA
  006c6	0f 2f 05 00 00
	00 00		 comiss	 xmm0, DWORD PTR __real@42c80000
  006cd	76 10		 jbe	 SHORT $LN26@Process

; 786  : 							s_fBufRenderTime = 100.0f;

  006cf	f3 0f 10 05 00
	00 00 00	 movss	 xmm0, DWORD PTR __real@42c80000
  006d7	f3 0f 11 05 00
	00 00 00	 movss	 DWORD PTR ?s_fBufRenderTime@?DC@??Process@CPythonApplication@@QAE_NXZ@4MA, xmm0
$LN26@Process:

; 787  : 
; 788  : 						DWORD dwBufRenderTime = s_fBufRenderTime;

  006df	f3 0f 10 05 00
	00 00 00	 movss	 xmm0, DWORD PTR ?s_fBufRenderTime@?DC@??Process@CPythonApplication@@QAE_NXZ@4MA
  006e7	e8 00 00 00 00	 call	 __ftoui3
  006ec	89 45 6c	 mov	 DWORD PTR _dwBufRenderTime$17[ebp], eax

; 789  : 
; 790  : 						if (m_isWindowed)

  006ef	8b 45 74	 mov	 eax, DWORD PTR _this$[ebp]
  006f2	0f b6 80 48 eb
	01 00		 movzx	 eax, BYTE PTR [eax+125768]
  006f9	85 c0		 test	 eax, eax
  006fb	74 43		 je	 SHORT $LN35@Process

; 791  : 						{						
; 792  : 							if (dwBufRenderTime>58)

  006fd	83 7d 6c 3a	 cmp	 DWORD PTR _dwBufRenderTime$17[ebp], 58 ; 0000003aH
  00701	76 09		 jbe	 SHORT $LN28@Process

; 793  : 								dwBufRenderTime=64;

  00703	c7 45 6c 40 00
	00 00		 mov	 DWORD PTR _dwBufRenderTime$17[ebp], 64 ; 00000040H
  0070a	eb 34		 jmp	 SHORT $LN35@Process
$LN28@Process:

; 794  : 							else if (dwBufRenderTime>42)

  0070c	83 7d 6c 2a	 cmp	 DWORD PTR _dwBufRenderTime$17[ebp], 42 ; 0000002aH
  00710	76 09		 jbe	 SHORT $LN30@Process

; 795  : 								dwBufRenderTime=48;

  00712	c7 45 6c 30 00
	00 00		 mov	 DWORD PTR _dwBufRenderTime$17[ebp], 48 ; 00000030H
  00719	eb 25		 jmp	 SHORT $LN35@Process
$LN30@Process:

; 796  : 							else if (dwBufRenderTime>26)

  0071b	83 7d 6c 1a	 cmp	 DWORD PTR _dwBufRenderTime$17[ebp], 26 ; 0000001aH
  0071f	76 09		 jbe	 SHORT $LN32@Process

; 797  : 								dwBufRenderTime=32;

  00721	c7 45 6c 20 00
	00 00		 mov	 DWORD PTR _dwBufRenderTime$17[ebp], 32 ; 00000020H
  00728	eb 16		 jmp	 SHORT $LN35@Process
$LN32@Process:

; 798  : 							else if (dwBufRenderTime>10)

  0072a	83 7d 6c 0a	 cmp	 DWORD PTR _dwBufRenderTime$17[ebp], 10 ; 0000000aH
  0072e	76 09		 jbe	 SHORT $LN34@Process

; 799  : 								dwBufRenderTime=16;

  00730	c7 45 6c 10 00
	00 00		 mov	 DWORD PTR _dwBufRenderTime$17[ebp], 16 ; 00000010H
  00737	eb 07		 jmp	 SHORT $LN35@Process
$LN34@Process:

; 800  : 							else
; 801  : 								dwBufRenderTime=8;

  00739	c7 45 6c 08 00
	00 00		 mov	 DWORD PTR _dwBufRenderTime$17[ebp], 8
$LN35@Process:

; 802  : 						}
; 803  : 
; 804  : 						//      
; 805  : 						//    .
; 806  : 						//if (m_dwCurRenderTime<dwBufRenderTime)
; 807  : 						//	Sleep(dwBufRenderTime-m_dwCurRenderTime);			
; 808  : 
; 809  : 						m_fAveRenderTime=s_fBufRenderTime;

  00740	8b 45 74	 mov	 eax, DWORD PTR _this$[ebp]
  00743	f3 0f 10 05 00
	00 00 00	 movss	 xmm0, DWORD PTR ?s_fBufRenderTime@?DC@??Process@CPythonApplication@@QAE_NXZ@4MA
  0074b	f3 0f 11 80 2c
	ea 01 00	 movss	 DWORD PTR [eax+125484], xmm0
$LN23@Process:

; 810  : 					}
; 811  : 
; 812  : 					m_dwFaceAccCount += dwCurFaceCount;

  00753	8b 45 74	 mov	 eax, DWORD PTR _this$[ebp]
  00756	8b 80 14 eb 01
	00		 mov	 eax, DWORD PTR [eax+125716]
  0075c	03 45 50	 add	 eax, DWORD PTR _dwCurFaceCount$12[ebp]
  0075f	8b 4d 74	 mov	 ecx, DWORD PTR _this$[ebp]
  00762	89 81 14 eb 01
	00		 mov	 DWORD PTR [ecx+125716], eax

; 813  : 					m_dwFaceAccTime += m_dwCurRenderTime;

  00768	8b 45 74	 mov	 eax, DWORD PTR _this$[ebp]
  0076b	8b 80 18 eb 01
	00		 mov	 eax, DWORD PTR [eax+125720]
  00771	8b 4d 74	 mov	 ecx, DWORD PTR _this$[ebp]
  00774	03 81 30 ea 01
	00		 add	 eax, DWORD PTR [ecx+125488]
  0077a	8b 4d 74	 mov	 ecx, DWORD PTR _this$[ebp]
  0077d	89 81 18 eb 01
	00		 mov	 DWORD PTR [ecx+125720], eax

; 814  : 
; 815  : 					m_fFaceSpd=(m_dwFaceAccCount/m_dwFaceAccTime);

  00783	8b 45 74	 mov	 eax, DWORD PTR _this$[ebp]
  00786	8b 4d 74	 mov	 ecx, DWORD PTR _this$[ebp]
  00789	8b 80 14 eb 01
	00		 mov	 eax, DWORD PTR [eax+125716]
  0078f	33 d2		 xor	 edx, edx
  00791	f7 b1 18 eb 01
	00		 div	 DWORD PTR [ecx+125720]
  00797	89 45 1c	 mov	 DWORD PTR tv627[ebp], eax
  0079a	f2 0f 2a 45 1c	 cvtsi2sd xmm0, DWORD PTR tv627[ebp]
  0079f	8b 45 1c	 mov	 eax, DWORD PTR tv627[ebp]
  007a2	c1 e8 1f	 shr	 eax, 31			; 0000001fH
  007a5	f2 0f 58 04 c5
	00 00 00 00	 addsd	 xmm0, QWORD PTR __xmm@41f00000000000000000000000000000[eax*8]
  007ae	f2 0f 11 45 a8	 movsd	 QWORD PTR tv630[ebp], xmm0
  007b3	f2 0f 5a 45 a8	 cvtsd2ss xmm0, QWORD PTR tv630[ebp]
  007b8	8b 45 74	 mov	 eax, DWORD PTR _this$[ebp]
  007bb	f3 0f 11 80 08
	eb 01 00	 movss	 DWORD PTR [eax+125704], xmm0

; 816  : 
; 817  : 					//   
; 818  : 					if (-1 == m_iForceSightRange)

  007c3	8b 45 74	 mov	 eax, DWORD PTR _this$[ebp]
  007c6	83 b8 78 eb 01
	00 ff		 cmp	 DWORD PTR [eax+125816], -1
  007cd	0f 85 7a 01 00
	00		 jne	 $LN36@Process

; 819  : 					{
; 820  : 						static float s_fAveRenderTime = 16.0f;
; 821  : 						float fRatio=0.3f;

  007d3	f3 0f 10 05 00
	00 00 00	 movss	 xmm0, DWORD PTR __real@3e99999a
  007db	f3 0f 11 45 0c	 movss	 DWORD PTR _fRatio$7[ebp], xmm0

; 822  : 						s_fAveRenderTime=(s_fAveRenderTime*(100.0f-fRatio)+max(16.0f, m_dwCurRenderTime)*fRatio)/100.0f;

  007e0	8b 45 74	 mov	 eax, DWORD PTR _this$[ebp]
  007e3	8b 80 30 ea 01
	00		 mov	 eax, DWORD PTR [eax+125488]
  007e9	89 45 18	 mov	 DWORD PTR tv639[ebp], eax
  007ec	f2 0f 2a 45 18	 cvtsi2sd xmm0, DWORD PTR tv639[ebp]
  007f1	8b 45 18	 mov	 eax, DWORD PTR tv639[ebp]
  007f4	c1 e8 1f	 shr	 eax, 31			; 0000001fH
  007f7	f2 0f 58 04 c5
	00 00 00 00	 addsd	 xmm0, QWORD PTR __xmm@41f00000000000000000000000000000[eax*8]
  00800	f2 0f 11 45 a0	 movsd	 QWORD PTR tv643[ebp], xmm0
  00805	f2 0f 5a 45 a0	 cvtsd2ss xmm0, QWORD PTR tv643[ebp]
  0080a	f3 0f 10 0d 00
	00 00 00	 movss	 xmm1, DWORD PTR __real@41800000
  00812	0f 2f c8	 comiss	 xmm1, xmm0
  00815	76 0f		 jbe	 SHORT $LN42@Process
  00817	f3 0f 10 05 00
	00 00 00	 movss	 xmm0, DWORD PTR __real@41800000
  0081f	f3 0f 11 45 10	 movss	 DWORD PTR tv375[ebp], xmm0
  00824	eb 2f		 jmp	 SHORT $LN43@Process
$LN42@Process:
  00826	8b 45 74	 mov	 eax, DWORD PTR _this$[ebp]
  00829	8b 80 30 ea 01
	00		 mov	 eax, DWORD PTR [eax+125488]
  0082f	89 45 14	 mov	 DWORD PTR tv651[ebp], eax
  00832	f2 0f 2a 45 14	 cvtsi2sd xmm0, DWORD PTR tv651[ebp]
  00837	8b 45 14	 mov	 eax, DWORD PTR tv651[ebp]
  0083a	c1 e8 1f	 shr	 eax, 31			; 0000001fH
  0083d	f2 0f 58 04 c5
	00 00 00 00	 addsd	 xmm0, QWORD PTR __xmm@41f00000000000000000000000000000[eax*8]
  00846	f2 0f 11 45 98	 movsd	 QWORD PTR tv655[ebp], xmm0
  0084b	f2 0f 5a 45 98	 cvtsd2ss xmm0, QWORD PTR tv655[ebp]
  00850	f3 0f 11 45 10	 movss	 DWORD PTR tv375[ebp], xmm0
$LN43@Process:
  00855	f3 0f 10 05 00
	00 00 00	 movss	 xmm0, DWORD PTR __real@42c80000
  0085d	f3 0f 5c 45 0c	 subss	 xmm0, DWORD PTR _fRatio$7[ebp]
  00862	f3 0f 59 05 00
	00 00 00	 mulss	 xmm0, DWORD PTR ?s_fAveRenderTime@?EL@??Process@CPythonApplication@@QAE_NXZ@4MA
  0086a	f3 0f 10 4d 10	 movss	 xmm1, DWORD PTR tv375[ebp]
  0086f	f3 0f 59 4d 0c	 mulss	 xmm1, DWORD PTR _fRatio$7[ebp]
  00874	f3 0f 58 c1	 addss	 xmm0, xmm1
  00878	f3 0f 5e 05 00
	00 00 00	 divss	 xmm0, DWORD PTR __real@42c80000
  00880	f3 0f 11 05 00
	00 00 00	 movss	 DWORD PTR ?s_fAveRenderTime@?EL@??Process@CPythonApplication@@QAE_NXZ@4MA, xmm0

; 823  : 
; 824  : 
; 825  : 						float fFar=25600.0f;

  00888	f3 0f 10 05 00
	00 00 00	 movss	 xmm0, DWORD PTR __real@46c80000
  00890	f3 0f 11 45 08	 movss	 DWORD PTR _fFar$6[ebp], xmm0

; 826  : 						float fNear=MIN_FOG;

  00895	f3 0f 10 05 00
	00 00 00	 movss	 xmm0, DWORD PTR ?MIN_FOG@@3MA
  0089d	f3 0f 11 45 68	 movss	 DWORD PTR _fNear$16[ebp], xmm0

; 827  : 						double dbAvePow=double(1000.0f/s_fAveRenderTime);

  008a2	f3 0f 10 05 00
	00 00 00	 movss	 xmm0, DWORD PTR __real@447a0000
  008aa	f3 0f 5e 05 00
	00 00 00	 divss	 xmm0, DWORD PTR ?s_fAveRenderTime@?EL@??Process@CPythonApplication@@QAE_NXZ@4MA
  008b2	f3 0f 5a c0	 cvtss2sd xmm0, xmm0
  008b6	f2 0f 11 45 d8	 movsd	 QWORD PTR _dbAvePow$3[ebp], xmm0

; 828  : 						double dbMaxPow=60.0;

  008bb	f2 0f 10 05 00
	00 00 00	 movsd	 xmm0, QWORD PTR __real@404e000000000000
  008c3	f2 0f 11 45 d0	 movsd	 QWORD PTR _dbMaxPow$2[ebp], xmm0

; 829  : 						float fDistance=max(fNear+(fFar-fNear)*(dbAvePow)/dbMaxPow, fNear);

  008c8	f3 0f 5a 45 68	 cvtss2sd xmm0, DWORD PTR _fNear$16[ebp]
  008cd	f3 0f 10 4d 08	 movss	 xmm1, DWORD PTR _fFar$6[ebp]
  008d2	f3 0f 5c 4d 68	 subss	 xmm1, DWORD PTR _fNear$16[ebp]
  008d7	f3 0f 5a c9	 cvtss2sd xmm1, xmm1
  008db	f2 0f 59 4d d8	 mulsd	 xmm1, QWORD PTR _dbAvePow$3[ebp]
  008e0	f2 0f 5e 4d d0	 divsd	 xmm1, QWORD PTR _dbMaxPow$2[ebp]
  008e5	f2 0f 58 c1	 addsd	 xmm0, xmm1
  008e9	f3 0f 5a 4d 68	 cvtss2sd xmm1, DWORD PTR _fNear$16[ebp]
  008ee	66 0f 2f c1	 comisd	 xmm0, xmm1
  008f2	76 28		 jbe	 SHORT $LN44@Process
  008f4	f3 0f 5a 45 68	 cvtss2sd xmm0, DWORD PTR _fNear$16[ebp]
  008f9	f3 0f 10 4d 08	 movss	 xmm1, DWORD PTR _fFar$6[ebp]
  008fe	f3 0f 5c 4d 68	 subss	 xmm1, DWORD PTR _fNear$16[ebp]
  00903	f3 0f 5a c9	 cvtss2sd xmm1, xmm1
  00907	f2 0f 59 4d d8	 mulsd	 xmm1, QWORD PTR _dbAvePow$3[ebp]
  0090c	f2 0f 5e 4d d0	 divsd	 xmm1, QWORD PTR _dbMaxPow$2[ebp]
  00911	f2 0f 58 c1	 addsd	 xmm0, xmm1
  00915	f2 0f 11 45 c8	 movsd	 QWORD PTR tv396[ebp], xmm0
  0091a	eb 0a		 jmp	 SHORT $LN45@Process
$LN44@Process:
  0091c	f3 0f 5a 45 68	 cvtss2sd xmm0, DWORD PTR _fNear$16[ebp]
  00921	f2 0f 11 45 c8	 movsd	 QWORD PTR tv396[ebp], xmm0
$LN45@Process:
  00926	f2 0f 5a 45 c8	 cvtsd2ss xmm0, QWORD PTR tv396[ebp]
  0092b	f3 0f 11 45 ec	 movss	 DWORD PTR _fDistance$4[ebp], xmm0

; 830  : 						m_pyBackground.SetViewDistanceSet(0, fDistance);

  00930	51		 push	 ecx
  00931	f3 0f 10 45 ec	 movss	 xmm0, DWORD PTR _fDistance$4[ebp]
  00936	f3 0f 11 04 24	 movss	 DWORD PTR [esp], xmm0
  0093b	6a 00		 push	 0
  0093d	8b 4d 74	 mov	 ecx, DWORD PTR _this$[ebp]
  00940	81 c1 4c a9 01
	00		 add	 ecx, 108876		; 0001a94cH
  00946	e8 00 00 00 00	 call	 ?SetViewDistanceSet@CPythonBackground@@QAEXHM@Z ; CPythonBackground::SetViewDistanceSet

; 831  : 					}

  0094b	eb 21		 jmp	 SHORT $LN37@Process
$LN36@Process:

; 832  : 					//   
; 833  : 					else
; 834  : 					{
; 835  : 						m_pyBackground.SetViewDistanceSet(0, float(m_iForceSightRange));

  0094d	8b 45 74	 mov	 eax, DWORD PTR _this$[ebp]
  00950	f3 0f 2a 80 78
	eb 01 00	 cvtsi2ss xmm0, DWORD PTR [eax+125816]
  00958	51		 push	 ecx
  00959	f3 0f 11 04 24	 movss	 DWORD PTR [esp], xmm0
  0095e	6a 00		 push	 0
  00960	8b 4d 74	 mov	 ecx, DWORD PTR _this$[ebp]
  00963	81 c1 4c a9 01
	00		 add	 ecx, 108876		; 0001a94cH
  00969	e8 00 00 00 00	 call	 ?SetViewDistanceSet@CPythonBackground@@QAEXHM@Z ; CPythonBackground::SetViewDistanceSet
$LN37@Process:

; 836  : 					}
; 837  : 				}

  0096e	eb 1e		 jmp	 SHORT $LN22@Process
$LN21@Process:

; 838  : 				else
; 839  : 				{
; 840  : 					// 10000       
; 841  : 					m_pyBackground.SetViewDistanceSet(0, 25600.0f);

  00970	51		 push	 ecx
  00971	f3 0f 10 05 00
	00 00 00	 movss	 xmm0, DWORD PTR __real@46c80000
  00979	f3 0f 11 04 24	 movss	 DWORD PTR [esp], xmm0
  0097e	6a 00		 push	 0
  00980	8b 4d 74	 mov	 ecx, DWORD PTR _this$[ebp]
  00983	81 c1 4c a9 01
	00		 add	 ecx, 108876		; 0001a94cH
  00989	e8 00 00 00 00	 call	 ?SetViewDistanceSet@CPythonBackground@@QAEXHM@Z ; CPythonBackground::SetViewDistanceSet
$LN22@Process:

; 842  : 				}
; 843  : 
; 844  : 				++s_dwRenderFrameCount;

  0098e	a1 00 00 00 00	 mov	 eax, DWORD PTR ?s_dwRenderFrameCount@?1??Process@CPythonApplication@@QAE_NXZ@4KA
  00993	40		 inc	 eax
  00994	a3 00 00 00 00	 mov	 DWORD PTR ?s_dwRenderFrameCount@?1??Process@CPythonApplication@@QAE_NXZ@4KA, eax
$LN19@Process:

; 845  : 			}
; 846  : 		}
; 847  : 	}
; 848  : 
; 849  : 	int rest = s_uiNextFrameTime - ELTimer_GetMSec();

  00999	e8 00 00 00 00	 call	 ?ELTimer_GetMSec@@YAKXZ	; ELTimer_GetMSec
  0099e	8b 0d 00 00 00
	00		 mov	 ecx, DWORD PTR ?s_uiNextFrameTime@?1??Process@CPythonApplication@@QAE_NXZ@4IA
  009a4	2b c8		 sub	 ecx, eax
  009a6	89 4d 4c	 mov	 DWORD PTR _rest$[ebp], ecx

; 850  : 
; 851  : 	if (rest > 0 && !bCurrentLateUpdate )

  009a9	83 7d 4c 00	 cmp	 DWORD PTR _rest$[ebp], 0
  009ad	7e 1c		 jle	 SHORT $LN38@Process
  009af	83 7d 04 00	 cmp	 DWORD PTR _bCurrentLateUpdate$[ebp], 0
  009b3	75 16		 jne	 SHORT $LN38@Process

; 852  : 	{
; 853  : 		s_uiLoad -= rest;	//    ..

  009b5	a1 00 00 00 00	 mov	 eax, DWORD PTR ?s_uiLoad@?1??Process@CPythonApplication@@QAE_NXZ@4IA
  009ba	2b 45 4c	 sub	 eax, DWORD PTR _rest$[ebp]
  009bd	a3 00 00 00 00	 mov	 DWORD PTR ?s_uiLoad@?1??Process@CPythonApplication@@QAE_NXZ@4IA, eax

; 854  : 		Sleep(rest);

  009c2	ff 75 4c	 push	 DWORD PTR _rest$[ebp]
  009c5	ff 15 00 00 00
	00		 call	 DWORD PTR __imp__Sleep@4
$LN38@Process:

; 855  : 	}	
; 856  : 
; 857  : 	++s_dwUpdateFrameCount;

  009cb	a1 00 00 00 00	 mov	 eax, DWORD PTR ?s_dwUpdateFrameCount@?1??Process@CPythonApplication@@QAE_NXZ@4KA
  009d0	40		 inc	 eax
  009d1	a3 00 00 00 00	 mov	 DWORD PTR ?s_dwUpdateFrameCount@?1??Process@CPythonApplication@@QAE_NXZ@4KA, eax

; 858  : 
; 859  : 	s_uiLoad += ELTimer_GetMSec() - dwStart;

  009d6	e8 00 00 00 00	 call	 ?ELTimer_GetMSec@@YAKXZ	; ELTimer_GetMSec
  009db	2b 45 e8	 sub	 eax, DWORD PTR _dwStart$[ebp]
  009de	03 05 00 00 00
	00		 add	 eax, DWORD PTR ?s_uiLoad@?1??Process@CPythonApplication@@QAE_NXZ@4IA
  009e4	a3 00 00 00 00	 mov	 DWORD PTR ?s_uiLoad@?1??Process@CPythonApplication@@QAE_NXZ@4IA, eax

; 860  : 	//m_Profiler.ProfileByScreen();	
; 861  : 	return true;

  009e9	b0 01		 mov	 al, 1

; 862  : }

  009eb	8b 4d f4	 mov	 ecx, DWORD PTR __$EHRec$[ebp]
  009ee	64 89 0d 00 00
	00 00		 mov	 DWORD PTR fs:0, ecx
  009f5	59		 pop	 ecx
  009f6	83 c5 78	 add	 ebp, 120		; 00000078H
  009f9	c9		 leave
  009fa	c3		 ret	 0
_TEXT	ENDS
;	COMDAT text$x
text$x	SEGMENT
__unwindfunclet$?Process@CPythonApplication@@QAE_NXZ$0:
  00000	68 00 00 00 00	 push	 OFFSET ?$TSS0@?1??Process@CPythonApplication@@QAE_NXZ@4HA
  00005	e8 00 00 00 00	 call	 __Init_thread_abort
  0000a	59		 pop	 ecx
  0000b	c3		 ret	 0
__unwindfunclet$?Process@CPythonApplication@@QAE_NXZ$1:
  0000c	68 00 00 00 00	 push	 OFFSET ?$TSS1@?1??Process@CPythonApplication@@QAE_NXZ@4HA
  00011	e8 00 00 00 00	 call	 __Init_thread_abort
  00016	59		 pop	 ecx
  00017	c3		 ret	 0
  00018	cc		 int	 3
  00019	cc		 int	 3
  0001a	cc		 int	 3
  0001b	cc		 int	 3
  0001c	cc		 int	 3
__ehhandler$?Process@CPythonApplication@@QAE_NXZ:
  0001d	90		 npad	 1
  0001e	90		 npad	 1
  0001f	8b 54 24 08	 mov	 edx, DWORD PTR [esp+8]
  00023	8d 42 0c	 lea	 eax, DWORD PTR [edx+12]
  00026	8b 4a a0	 mov	 ecx, DWORD PTR [edx-96]
  00029	33 c8		 xor	 ecx, eax
  0002b	e8 00 00 00 00	 call	 @__security_check_cookie@4
  00030	b8 00 00 00 00	 mov	 eax, OFFSET __ehfuncinfo$?Process@CPythonApplication@@QAE_NXZ
  00035	e9 00 00 00 00	 jmp	 ___CxxFrameHandler3
text$x	ENDS
?Process@CPythonApplication@@QAE_NXZ ENDP		; CPythonApplication::Process
; Function compile flags: /Odspy
; File D:\Metin2 Server Files\mainline\SRC_2014\Metin2Client\UserInterface\PythonApplication.cpp
;	COMDAT ?RenderGame@CPythonApplication@@QAEXXZ
_TEXT	SEGMENT
_t18$ = -112						; size = 4
_lx$1 = -108						; size = 4
_ly$2 = -104						; size = 4
_fAspect$ = -100					; size = 4
_fFarClip$ = -96					; size = 4
_lx$3 = -92						; size = 4
_ly$4 = -88						; size = 4
_fAspect$5 = -84					; size = 4
_fFarClip$6 = -80					; size = 4
_t17$ = -76						; size = 4
_t16$ = -72						; size = 4
_t15$ = -68						; size = 4
_t14$ = -64						; size = 4
_t13$ = -60						; size = 4
_t12$ = -56						; size = 4
_t11$ = -52						; size = 4
_t10$ = -48						; size = 4
_t9$ = -44						; size = 4
_t8$ = -40						; size = 4
_t7$ = -36						; size = 4
_t6$ = -32						; size = 4
_t5$ = -28						; size = 4
_t4$ = -24						; size = 4
_t3$ = -20						; size = 4
_t2$ = -16						; size = 4
_tEnd$ = -12						; size = 4
_t1$ = -8						; size = 4
_this$ = -4						; size = 4
?RenderGame@CPythonApplication@@QAEXXZ PROC		; CPythonApplication::RenderGame, COMDAT
; _this$ = ecx

; 169  : {	

  00000	55		 push	 ebp
  00001	8b ec		 mov	 ebp, esp
  00003	83 ec 70	 sub	 esp, 112		; 00000070H
  00006	89 4d fc	 mov	 DWORD PTR _this$[ebp], ecx

; 170  : 	if (!PERF_CHECKER_RENDER_GAME)

  00009	0f b6 05 00 00
	00 00		 movzx	 eax, BYTE PTR ?PERF_CHECKER_RENDER_GAME@@3_NA ; PERF_CHECKER_RENDER_GAME
  00010	85 c0		 test	 eax, eax
  00012	0f 85 ec 01 00
	00		 jne	 $LN3@RenderGame

; 171  : 	{
; 172  : 		float fAspect=m_kWndMgr.GetAspect();

  00018	8b 4d fc	 mov	 ecx, DWORD PTR _this$[ebp]
  0001b	81 c1 10 02 00
	00		 add	 ecx, 528		; 00000210H
  00021	e8 00 00 00 00	 call	 ?GetAspect@CWindowManager@UI@@QAEMXZ ; UI::CWindowManager::GetAspect
  00026	d9 5d ac	 fstp	 DWORD PTR _fAspect$5[ebp]

; 173  : 		float fFarClip=m_pyBackground.GetFarClip();

  00029	8b 4d fc	 mov	 ecx, DWORD PTR _this$[ebp]
  0002c	81 c1 4c a9 01
	00		 add	 ecx, 108876		; 0001a94cH
  00032	e8 00 00 00 00	 call	 ?GetFarClip@CPythonBackground@@QAEMXZ ; CPythonBackground::GetFarClip
  00037	d9 5d b0	 fstp	 DWORD PTR _fFarClip$6[ebp]

; 174  : 
; 175  : 		m_pyGraphic.SetPerspective(30.0f, fAspect, 100.0, fFarClip);

  0003a	51		 push	 ecx
  0003b	f3 0f 10 45 b0	 movss	 xmm0, DWORD PTR _fFarClip$6[ebp]
  00040	f3 0f 11 04 24	 movss	 DWORD PTR [esp], xmm0
  00045	51		 push	 ecx
  00046	f3 0f 10 05 00
	00 00 00	 movss	 xmm0, DWORD PTR __real@42c80000
  0004e	f3 0f 11 04 24	 movss	 DWORD PTR [esp], xmm0
  00053	51		 push	 ecx
  00054	f3 0f 10 45 ac	 movss	 xmm0, DWORD PTR _fAspect$5[ebp]
  00059	f3 0f 11 04 24	 movss	 DWORD PTR [esp], xmm0
  0005e	51		 push	 ecx
  0005f	f3 0f 10 05 00
	00 00 00	 movss	 xmm0, DWORD PTR __real@41f00000
  00067	f3 0f 11 04 24	 movss	 DWORD PTR [esp], xmm0
  0006c	8b 4d fc	 mov	 ecx, DWORD PTR _this$[ebp]
  0006f	81 c1 9c 07 00
	00		 add	 ecx, 1948		; 0000079cH
  00075	e8 00 00 00 00	 call	 ?SetPerspective@CGraphicBase@@QAEXMMMM@Z ; CGraphicBase::SetPerspective

; 176  : 
; 177  : 		CCullingManager::Instance().Process();

  0007a	8b 0d 00 00 00
	00		 mov	 ecx, DWORD PTR ?ms_singleton@?$CSingleton@VCCullingManager@@@@0PAVCCullingManager@@A ; CSingleton<CCullingManager>::ms_singleton
  00080	e8 00 00 00 00	 call	 ?Process@CCullingManager@@QAEXXZ ; CCullingManager::Process

; 178  : 
; 179  : 		m_kChrMgr.Deform();

  00085	8b 4d fc	 mov	 ecx, DWORD PTR _this$[ebp]
  00088	81 c1 d8 02 00
	00		 add	 ecx, 728		; 000002d8H
  0008e	e8 00 00 00 00	 call	 ?Deform@CPythonCharacterManager@@QAEXXZ ; CPythonCharacterManager::Deform

; 180  : 		m_kEftMgr.Update();

  00093	8b 4d fc	 mov	 ecx, DWORD PTR _this$[ebp]
  00096	81 c1 b0 02 00
	00		 add	 ecx, 688		; 000002b0H
  0009c	e8 00 00 00 00	 call	 ?Update@CEffectManager@@QAEXXZ ; CEffectManager::Update

; 181  : 
; 182  : 		m_pyBackground.RenderCharacterShadowToTexture();

  000a1	8b 4d fc	 mov	 ecx, DWORD PTR _this$[ebp]
  000a4	81 c1 4c a9 01
	00		 add	 ecx, 108876		; 0001a94cH
  000aa	e8 00 00 00 00	 call	 ?RenderCharacterShadowToTexture@CPythonBackground@@QAEXXZ ; CPythonBackground::RenderCharacterShadowToTexture

; 183  : 
; 184  : 		m_pyGraphic.SetGameRenderState();

  000af	8b 4d fc	 mov	 ecx, DWORD PTR _this$[ebp]
  000b2	81 c1 9c 07 00
	00		 add	 ecx, 1948		; 0000079cH
  000b8	e8 00 00 00 00	 call	 ?SetGameRenderState@CPythonGraphic@@QAEXXZ ; CPythonGraphic::SetGameRenderState

; 185  : 		m_pyGraphic.PushState();

  000bd	8b 4d fc	 mov	 ecx, DWORD PTR _this$[ebp]
  000c0	81 c1 9c 07 00
	00		 add	 ecx, 1948		; 0000079cH
  000c6	e8 00 00 00 00	 call	 ?PushState@CPythonGraphic@@QAEXXZ ; CPythonGraphic::PushState

; 186  : 
; 187  : 		{
; 188  : 			long lx, ly;
; 189  : 			m_kWndMgr.GetMousePosition(lx, ly);

  000cb	8d 45 a8	 lea	 eax, DWORD PTR _ly$4[ebp]
  000ce	50		 push	 eax
  000cf	8d 45 a4	 lea	 eax, DWORD PTR _lx$3[ebp]
  000d2	50		 push	 eax
  000d3	8b 4d fc	 mov	 ecx, DWORD PTR _this$[ebp]
  000d6	81 c1 10 02 00
	00		 add	 ecx, 528		; 00000210H
  000dc	e8 00 00 00 00	 call	 ?GetMousePosition@CWindowManager@UI@@QAEXAAJ0@Z ; UI::CWindowManager::GetMousePosition

; 190  : 			m_pyGraphic.SetCursorPosition(lx, ly);

  000e1	ff 75 a8	 push	 DWORD PTR _ly$4[ebp]
  000e4	ff 75 a4	 push	 DWORD PTR _lx$3[ebp]
  000e7	8b 4d fc	 mov	 ecx, DWORD PTR _this$[ebp]
  000ea	81 c1 9c 07 00
	00		 add	 ecx, 1948		; 0000079cH
  000f0	e8 00 00 00 00	 call	 ?SetCursorPosition@CPythonGraphic@@QAEXHH@Z ; CPythonGraphic::SetCursorPosition

; 191  : 		}
; 192  : 
; 193  : 		m_pyBackground.RenderSky();

  000f5	8b 4d fc	 mov	 ecx, DWORD PTR _this$[ebp]
  000f8	81 c1 4c a9 01
	00		 add	 ecx, 108876		; 0001a94cH
  000fe	e8 00 00 00 00	 call	 ?RenderSky@CPythonBackground@@QAEXXZ ; CPythonBackground::RenderSky

; 194  : 
; 195  : 		m_pyBackground.RenderBeforeLensFlare();

  00103	8b 4d fc	 mov	 ecx, DWORD PTR _this$[ebp]
  00106	81 c1 4c a9 01
	00		 add	 ecx, 108876		; 0001a94cH
  0010c	e8 00 00 00 00	 call	 ?RenderBeforeLensFlare@CPythonBackground@@QAEXXZ ; CPythonBackground::RenderBeforeLensFlare

; 196  : 
; 197  : 		m_pyBackground.RenderCloud();

  00111	8b 4d fc	 mov	 ecx, DWORD PTR _this$[ebp]
  00114	81 c1 4c a9 01
	00		 add	 ecx, 108876		; 0001a94cH
  0011a	e8 00 00 00 00	 call	 ?RenderCloud@CPythonBackground@@QAEXXZ ; CPythonBackground::RenderCloud

; 198  : 
; 199  : 		m_pyBackground.BeginEnvironment();

  0011f	8b 4d fc	 mov	 ecx, DWORD PTR _this$[ebp]
  00122	81 c1 4c a9 01
	00		 add	 ecx, 108876		; 0001a94cH
  00128	e8 00 00 00 00	 call	 ?BeginEnvironment@CMapManager@@QAEXXZ ; CMapManager::BeginEnvironment

; 200  : 		m_pyBackground.Render();

  0012d	8b 4d fc	 mov	 ecx, DWORD PTR _this$[ebp]
  00130	81 c1 4c a9 01
	00		 add	 ecx, 108876		; 0001a94cH
  00136	e8 00 00 00 00	 call	 ?Render@CPythonBackground@@QAEXXZ ; CPythonBackground::Render

; 201  : 
; 202  : 		m_pyBackground.SetCharacterDirLight();

  0013b	8b 4d fc	 mov	 ecx, DWORD PTR _this$[ebp]
  0013e	81 c1 4c a9 01
	00		 add	 ecx, 108876		; 0001a94cH
  00144	e8 00 00 00 00	 call	 ?SetCharacterDirLight@CPythonBackground@@QAEXXZ ; CPythonBackground::SetCharacterDirLight

; 203  : 		m_kChrMgr.Render();

  00149	8b 4d fc	 mov	 ecx, DWORD PTR _this$[ebp]
  0014c	81 c1 d8 02 00
	00		 add	 ecx, 728		; 000002d8H
  00152	e8 00 00 00 00	 call	 ?Render@CPythonCharacterManager@@QAEXXZ ; CPythonCharacterManager::Render

; 204  : 
; 205  : 		m_pyBackground.SetBackgroundDirLight();

  00157	8b 4d fc	 mov	 ecx, DWORD PTR _this$[ebp]
  0015a	81 c1 4c a9 01
	00		 add	 ecx, 108876		; 0001a94cH
  00160	e8 00 00 00 00	 call	 ?SetBackgroundDirLight@CPythonBackground@@QAEXXZ ; CPythonBackground::SetBackgroundDirLight

; 206  : 		m_pyBackground.RenderWater();

  00165	8b 4d fc	 mov	 ecx, DWORD PTR _this$[ebp]
  00168	81 c1 4c a9 01
	00		 add	 ecx, 108876		; 0001a94cH
  0016e	e8 00 00 00 00	 call	 ?RenderWater@CPythonBackground@@QAEXXZ ; CPythonBackground::RenderWater

; 207  : 		m_pyBackground.RenderSnow();

  00173	8b 4d fc	 mov	 ecx, DWORD PTR _this$[ebp]
  00176	81 c1 4c a9 01
	00		 add	 ecx, 108876		; 0001a94cH
  0017c	e8 00 00 00 00	 call	 ?RenderSnow@CPythonBackground@@QAEXXZ ; CPythonBackground::RenderSnow

; 208  : 		m_pyBackground.RenderEffect();

  00181	8b 4d fc	 mov	 ecx, DWORD PTR _this$[ebp]
  00184	81 c1 4c a9 01
	00		 add	 ecx, 108876		; 0001a94cH
  0018a	e8 00 00 00 00	 call	 ?RenderEffect@CPythonBackground@@QAEXXZ ; CPythonBackground::RenderEffect

; 209  : 
; 210  : 		m_pyBackground.EndEnvironment();

  0018f	8b 4d fc	 mov	 ecx, DWORD PTR _this$[ebp]
  00192	81 c1 4c a9 01
	00		 add	 ecx, 108876		; 0001a94cH
  00198	e8 00 00 00 00	 call	 ?EndEnvironment@CMapManager@@QAEXXZ ; CMapManager::EndEnvironment

; 211  : 
; 212  : 		m_kEftMgr.Render();

  0019d	8b 4d fc	 mov	 ecx, DWORD PTR _this$[ebp]
  001a0	81 c1 b0 02 00
	00		 add	 ecx, 688		; 000002b0H
  001a6	e8 00 00 00 00	 call	 ?Render@CEffectManager@@QAEXXZ ; CEffectManager::Render

; 213  : 		m_pyItem.Render();

  001ab	8b 4d fc	 mov	 ecx, DWORD PTR _this$[ebp]
  001ae	81 c1 e0 81 01
	00		 add	 ecx, 98784		; 000181e0H
  001b4	e8 00 00 00 00	 call	 ?Render@CPythonItem@@QAEXXZ ; CPythonItem::Render

; 214  : 		m_FlyingManager.Render();

  001b9	8b 4d fc	 mov	 ecx, DWORD PTR _this$[ebp]
  001bc	81 c1 5c 01 00
	00		 add	 ecx, 348		; 0000015cH
  001c2	e8 00 00 00 00	 call	 ?Render@CFlyingManager@@QAEXXZ ; CFlyingManager::Render

; 215  : 
; 216  : 		m_pyBackground.BeginEnvironment();

  001c7	8b 4d fc	 mov	 ecx, DWORD PTR _this$[ebp]
  001ca	81 c1 4c a9 01
	00		 add	 ecx, 108876		; 0001a94cH
  001d0	e8 00 00 00 00	 call	 ?BeginEnvironment@CMapManager@@QAEXXZ ; CMapManager::BeginEnvironment

; 217  : 		m_pyBackground.RenderPCBlocker();

  001d5	8b 4d fc	 mov	 ecx, DWORD PTR _this$[ebp]
  001d8	81 c1 4c a9 01
	00		 add	 ecx, 108876		; 0001a94cH
  001de	e8 00 00 00 00	 call	 ?RenderPCBlocker@CPythonBackground@@QAEXXZ ; CPythonBackground::RenderPCBlocker

; 218  : 		m_pyBackground.EndEnvironment();

  001e3	8b 4d fc	 mov	 ecx, DWORD PTR _this$[ebp]
  001e6	81 c1 4c a9 01
	00		 add	 ecx, 108876		; 0001a94cH
  001ec	e8 00 00 00 00	 call	 ?EndEnvironment@CMapManager@@QAEXXZ ; CMapManager::EndEnvironment

; 219  : 
; 220  : 		m_pyBackground.RenderAfterLensFlare();

  001f1	8b 4d fc	 mov	 ecx, DWORD PTR _this$[ebp]
  001f4	81 c1 4c a9 01
	00		 add	 ecx, 108876		; 0001a94cH
  001fa	e8 00 00 00 00	 call	 ?RenderAfterLensFlare@CPythonBackground@@QAEXXZ ; CPythonBackground::RenderAfterLensFlare

; 221  : 
; 222  : 		return;

  001ff	e9 d5 04 00 00	 jmp	 $LN1@RenderGame
$LN3@RenderGame:

; 223  : 	}
; 224  : 
; 225  : 	//if (GetAsyncKeyState(VK_Z))
; 226  : 	//	STATEMANAGER.SetRenderState(D3DRS_FILLMODE, D3DFILL_WIREFRAME);
; 227  : 
; 228  : 	DWORD t1=ELTimer_GetMSec();

  00204	e8 00 00 00 00	 call	 ?ELTimer_GetMSec@@YAKXZ	; ELTimer_GetMSec
  00209	89 45 f8	 mov	 DWORD PTR _t1$[ebp], eax

; 229  : 	m_kChrMgr.Deform();

  0020c	8b 4d fc	 mov	 ecx, DWORD PTR _this$[ebp]
  0020f	81 c1 d8 02 00
	00		 add	 ecx, 728		; 000002d8H
  00215	e8 00 00 00 00	 call	 ?Deform@CPythonCharacterManager@@QAEXXZ ; CPythonCharacterManager::Deform

; 230  : 	DWORD t2=ELTimer_GetMSec();

  0021a	e8 00 00 00 00	 call	 ?ELTimer_GetMSec@@YAKXZ	; ELTimer_GetMSec
  0021f	89 45 f0	 mov	 DWORD PTR _t2$[ebp], eax

; 231  : 	m_kEftMgr.Update();

  00222	8b 4d fc	 mov	 ecx, DWORD PTR _this$[ebp]
  00225	81 c1 b0 02 00
	00		 add	 ecx, 688		; 000002b0H
  0022b	e8 00 00 00 00	 call	 ?Update@CEffectManager@@QAEXXZ ; CEffectManager::Update

; 232  : 	DWORD t3=ELTimer_GetMSec();

  00230	e8 00 00 00 00	 call	 ?ELTimer_GetMSec@@YAKXZ	; ELTimer_GetMSec
  00235	89 45 ec	 mov	 DWORD PTR _t3$[ebp], eax

; 233  : 	m_pyBackground.RenderCharacterShadowToTexture();

  00238	8b 4d fc	 mov	 ecx, DWORD PTR _this$[ebp]
  0023b	81 c1 4c a9 01
	00		 add	 ecx, 108876		; 0001a94cH
  00241	e8 00 00 00 00	 call	 ?RenderCharacterShadowToTexture@CPythonBackground@@QAEXXZ ; CPythonBackground::RenderCharacterShadowToTexture

; 234  : 	DWORD t4=ELTimer_GetMSec();

  00246	e8 00 00 00 00	 call	 ?ELTimer_GetMSec@@YAKXZ	; ELTimer_GetMSec
  0024b	89 45 e8	 mov	 DWORD PTR _t4$[ebp], eax

; 235  : 
; 236  : 	m_pyGraphic.SetGameRenderState();

  0024e	8b 4d fc	 mov	 ecx, DWORD PTR _this$[ebp]
  00251	81 c1 9c 07 00
	00		 add	 ecx, 1948		; 0000079cH
  00257	e8 00 00 00 00	 call	 ?SetGameRenderState@CPythonGraphic@@QAEXXZ ; CPythonGraphic::SetGameRenderState

; 237  : 	m_pyGraphic.PushState();

  0025c	8b 4d fc	 mov	 ecx, DWORD PTR _this$[ebp]
  0025f	81 c1 9c 07 00
	00		 add	 ecx, 1948		; 0000079cH
  00265	e8 00 00 00 00	 call	 ?PushState@CPythonGraphic@@QAEXXZ ; CPythonGraphic::PushState

; 238  : 
; 239  : 	float fAspect=m_kWndMgr.GetAspect();

  0026a	8b 4d fc	 mov	 ecx, DWORD PTR _this$[ebp]
  0026d	81 c1 10 02 00
	00		 add	 ecx, 528		; 00000210H
  00273	e8 00 00 00 00	 call	 ?GetAspect@CWindowManager@UI@@QAEMXZ ; UI::CWindowManager::GetAspect
  00278	d9 5d 9c	 fstp	 DWORD PTR _fAspect$[ebp]

; 240  : 	float fFarClip=m_pyBackground.GetFarClip();

  0027b	8b 4d fc	 mov	 ecx, DWORD PTR _this$[ebp]
  0027e	81 c1 4c a9 01
	00		 add	 ecx, 108876		; 0001a94cH
  00284	e8 00 00 00 00	 call	 ?GetFarClip@CPythonBackground@@QAEMXZ ; CPythonBackground::GetFarClip
  00289	d9 5d a0	 fstp	 DWORD PTR _fFarClip$[ebp]

; 241  : 
; 242  : 	m_pyGraphic.SetPerspective(30.0f, fAspect, 100.0, fFarClip);

  0028c	51		 push	 ecx
  0028d	f3 0f 10 45 a0	 movss	 xmm0, DWORD PTR _fFarClip$[ebp]
  00292	f3 0f 11 04 24	 movss	 DWORD PTR [esp], xmm0
  00297	51		 push	 ecx
  00298	f3 0f 10 05 00
	00 00 00	 movss	 xmm0, DWORD PTR __real@42c80000
  002a0	f3 0f 11 04 24	 movss	 DWORD PTR [esp], xmm0
  002a5	51		 push	 ecx
  002a6	f3 0f 10 45 9c	 movss	 xmm0, DWORD PTR _fAspect$[ebp]
  002ab	f3 0f 11 04 24	 movss	 DWORD PTR [esp], xmm0
  002b0	51		 push	 ecx
  002b1	f3 0f 10 05 00
	00 00 00	 movss	 xmm0, DWORD PTR __real@41f00000
  002b9	f3 0f 11 04 24	 movss	 DWORD PTR [esp], xmm0
  002be	8b 4d fc	 mov	 ecx, DWORD PTR _this$[ebp]
  002c1	81 c1 9c 07 00
	00		 add	 ecx, 1948		; 0000079cH
  002c7	e8 00 00 00 00	 call	 ?SetPerspective@CGraphicBase@@QAEXMMMM@Z ; CGraphicBase::SetPerspective

; 243  : 
; 244  : 	DWORD t5=ELTimer_GetMSec();

  002cc	e8 00 00 00 00	 call	 ?ELTimer_GetMSec@@YAKXZ	; ELTimer_GetMSec
  002d1	89 45 e4	 mov	 DWORD PTR _t5$[ebp], eax

; 245  : 
; 246  : 	CCullingManager::Instance().Process();

  002d4	8b 0d 00 00 00
	00		 mov	 ecx, DWORD PTR ?ms_singleton@?$CSingleton@VCCullingManager@@@@0PAVCCullingManager@@A ; CSingleton<CCullingManager>::ms_singleton
  002da	e8 00 00 00 00	 call	 ?Process@CCullingManager@@QAEXXZ ; CCullingManager::Process

; 247  : 
; 248  : 	DWORD t6=ELTimer_GetMSec();

  002df	e8 00 00 00 00	 call	 ?ELTimer_GetMSec@@YAKXZ	; ELTimer_GetMSec
  002e4	89 45 e0	 mov	 DWORD PTR _t6$[ebp], eax

; 249  : 
; 250  : 	{
; 251  : 		long lx, ly;
; 252  : 		m_kWndMgr.GetMousePosition(lx, ly);

  002e7	8d 45 98	 lea	 eax, DWORD PTR _ly$2[ebp]
  002ea	50		 push	 eax
  002eb	8d 45 94	 lea	 eax, DWORD PTR _lx$1[ebp]
  002ee	50		 push	 eax
  002ef	8b 4d fc	 mov	 ecx, DWORD PTR _this$[ebp]
  002f2	81 c1 10 02 00
	00		 add	 ecx, 528		; 00000210H
  002f8	e8 00 00 00 00	 call	 ?GetMousePosition@CWindowManager@UI@@QAEXAAJ0@Z ; UI::CWindowManager::GetMousePosition

; 253  : 		m_pyGraphic.SetCursorPosition(lx, ly);

  002fd	ff 75 98	 push	 DWORD PTR _ly$2[ebp]
  00300	ff 75 94	 push	 DWORD PTR _lx$1[ebp]
  00303	8b 4d fc	 mov	 ecx, DWORD PTR _this$[ebp]
  00306	81 c1 9c 07 00
	00		 add	 ecx, 1948		; 0000079cH
  0030c	e8 00 00 00 00	 call	 ?SetCursorPosition@CPythonGraphic@@QAEXHH@Z ; CPythonGraphic::SetCursorPosition

; 254  : 	}
; 255  : 
; 256  : 	m_pyBackground.RenderSky();

  00311	8b 4d fc	 mov	 ecx, DWORD PTR _this$[ebp]
  00314	81 c1 4c a9 01
	00		 add	 ecx, 108876		; 0001a94cH
  0031a	e8 00 00 00 00	 call	 ?RenderSky@CPythonBackground@@QAEXXZ ; CPythonBackground::RenderSky

; 257  : 	DWORD t7=ELTimer_GetMSec();

  0031f	e8 00 00 00 00	 call	 ?ELTimer_GetMSec@@YAKXZ	; ELTimer_GetMSec
  00324	89 45 dc	 mov	 DWORD PTR _t7$[ebp], eax

; 258  : 	m_pyBackground.RenderBeforeLensFlare();

  00327	8b 4d fc	 mov	 ecx, DWORD PTR _this$[ebp]
  0032a	81 c1 4c a9 01
	00		 add	 ecx, 108876		; 0001a94cH
  00330	e8 00 00 00 00	 call	 ?RenderBeforeLensFlare@CPythonBackground@@QAEXXZ ; CPythonBackground::RenderBeforeLensFlare

; 259  : 	DWORD t8=ELTimer_GetMSec();

  00335	e8 00 00 00 00	 call	 ?ELTimer_GetMSec@@YAKXZ	; ELTimer_GetMSec
  0033a	89 45 d8	 mov	 DWORD PTR _t8$[ebp], eax

; 260  : 	m_pyBackground.RenderCloud();

  0033d	8b 4d fc	 mov	 ecx, DWORD PTR _this$[ebp]
  00340	81 c1 4c a9 01
	00		 add	 ecx, 108876		; 0001a94cH
  00346	e8 00 00 00 00	 call	 ?RenderCloud@CPythonBackground@@QAEXXZ ; CPythonBackground::RenderCloud

; 261  : 	DWORD t9=ELTimer_GetMSec();

  0034b	e8 00 00 00 00	 call	 ?ELTimer_GetMSec@@YAKXZ	; ELTimer_GetMSec
  00350	89 45 d4	 mov	 DWORD PTR _t9$[ebp], eax

; 262  : 	m_pyBackground.BeginEnvironment();

  00353	8b 4d fc	 mov	 ecx, DWORD PTR _this$[ebp]
  00356	81 c1 4c a9 01
	00		 add	 ecx, 108876		; 0001a94cH
  0035c	e8 00 00 00 00	 call	 ?BeginEnvironment@CMapManager@@QAEXXZ ; CMapManager::BeginEnvironment

; 263  : 	m_pyBackground.Render();

  00361	8b 4d fc	 mov	 ecx, DWORD PTR _this$[ebp]
  00364	81 c1 4c a9 01
	00		 add	 ecx, 108876		; 0001a94cH
  0036a	e8 00 00 00 00	 call	 ?Render@CPythonBackground@@QAEXXZ ; CPythonBackground::Render

; 264  : 
; 265  : 	m_pyBackground.SetCharacterDirLight();

  0036f	8b 4d fc	 mov	 ecx, DWORD PTR _this$[ebp]
  00372	81 c1 4c a9 01
	00		 add	 ecx, 108876		; 0001a94cH
  00378	e8 00 00 00 00	 call	 ?SetCharacterDirLight@CPythonBackground@@QAEXXZ ; CPythonBackground::SetCharacterDirLight

; 266  : 	DWORD t10=ELTimer_GetMSec();

  0037d	e8 00 00 00 00	 call	 ?ELTimer_GetMSec@@YAKXZ	; ELTimer_GetMSec
  00382	89 45 d0	 mov	 DWORD PTR _t10$[ebp], eax

; 267  : 	m_kChrMgr.Render();

  00385	8b 4d fc	 mov	 ecx, DWORD PTR _this$[ebp]
  00388	81 c1 d8 02 00
	00		 add	 ecx, 728		; 000002d8H
  0038e	e8 00 00 00 00	 call	 ?Render@CPythonCharacterManager@@QAEXXZ ; CPythonCharacterManager::Render

; 268  : 	DWORD t11=ELTimer_GetMSec();

  00393	e8 00 00 00 00	 call	 ?ELTimer_GetMSec@@YAKXZ	; ELTimer_GetMSec
  00398	89 45 cc	 mov	 DWORD PTR _t11$[ebp], eax

; 269  : 
; 270  : 	m_pyBackground.SetBackgroundDirLight();

  0039b	8b 4d fc	 mov	 ecx, DWORD PTR _this$[ebp]
  0039e	81 c1 4c a9 01
	00		 add	 ecx, 108876		; 0001a94cH
  003a4	e8 00 00 00 00	 call	 ?SetBackgroundDirLight@CPythonBackground@@QAEXXZ ; CPythonBackground::SetBackgroundDirLight

; 271  : 	m_pyBackground.RenderWater();

  003a9	8b 4d fc	 mov	 ecx, DWORD PTR _this$[ebp]
  003ac	81 c1 4c a9 01
	00		 add	 ecx, 108876		; 0001a94cH
  003b2	e8 00 00 00 00	 call	 ?RenderWater@CPythonBackground@@QAEXXZ ; CPythonBackground::RenderWater

; 272  : 	DWORD t12=ELTimer_GetMSec();

  003b7	e8 00 00 00 00	 call	 ?ELTimer_GetMSec@@YAKXZ	; ELTimer_GetMSec
  003bc	89 45 c8	 mov	 DWORD PTR _t12$[ebp], eax

; 273  : 	m_pyBackground.RenderEffect();

  003bf	8b 4d fc	 mov	 ecx, DWORD PTR _this$[ebp]
  003c2	81 c1 4c a9 01
	00		 add	 ecx, 108876		; 0001a94cH
  003c8	e8 00 00 00 00	 call	 ?RenderEffect@CPythonBackground@@QAEXXZ ; CPythonBackground::RenderEffect

; 274  : 	DWORD t13=ELTimer_GetMSec();

  003cd	e8 00 00 00 00	 call	 ?ELTimer_GetMSec@@YAKXZ	; ELTimer_GetMSec
  003d2	89 45 c4	 mov	 DWORD PTR _t13$[ebp], eax

; 275  : 	m_pyBackground.EndEnvironment();

  003d5	8b 4d fc	 mov	 ecx, DWORD PTR _this$[ebp]
  003d8	81 c1 4c a9 01
	00		 add	 ecx, 108876		; 0001a94cH
  003de	e8 00 00 00 00	 call	 ?EndEnvironment@CMapManager@@QAEXXZ ; CMapManager::EndEnvironment

; 276  : 	m_kEftMgr.Render();

  003e3	8b 4d fc	 mov	 ecx, DWORD PTR _this$[ebp]
  003e6	81 c1 b0 02 00
	00		 add	 ecx, 688		; 000002b0H
  003ec	e8 00 00 00 00	 call	 ?Render@CEffectManager@@QAEXXZ ; CEffectManager::Render

; 277  : 	DWORD t14=ELTimer_GetMSec();

  003f1	e8 00 00 00 00	 call	 ?ELTimer_GetMSec@@YAKXZ	; ELTimer_GetMSec
  003f6	89 45 c0	 mov	 DWORD PTR _t14$[ebp], eax

; 278  : 	m_pyItem.Render();

  003f9	8b 4d fc	 mov	 ecx, DWORD PTR _this$[ebp]
  003fc	81 c1 e0 81 01
	00		 add	 ecx, 98784		; 000181e0H
  00402	e8 00 00 00 00	 call	 ?Render@CPythonItem@@QAEXXZ ; CPythonItem::Render

; 279  : 	DWORD t15=ELTimer_GetMSec();

  00407	e8 00 00 00 00	 call	 ?ELTimer_GetMSec@@YAKXZ	; ELTimer_GetMSec
  0040c	89 45 bc	 mov	 DWORD PTR _t15$[ebp], eax

; 280  : 	m_FlyingManager.Render();

  0040f	8b 4d fc	 mov	 ecx, DWORD PTR _this$[ebp]
  00412	81 c1 5c 01 00
	00		 add	 ecx, 348		; 0000015cH
  00418	e8 00 00 00 00	 call	 ?Render@CFlyingManager@@QAEXXZ ; CFlyingManager::Render

; 281  : 	DWORD t16=ELTimer_GetMSec();

  0041d	e8 00 00 00 00	 call	 ?ELTimer_GetMSec@@YAKXZ	; ELTimer_GetMSec
  00422	89 45 b8	 mov	 DWORD PTR _t16$[ebp], eax

; 282  : 	m_pyBackground.BeginEnvironment();

  00425	8b 4d fc	 mov	 ecx, DWORD PTR _this$[ebp]
  00428	81 c1 4c a9 01
	00		 add	 ecx, 108876		; 0001a94cH
  0042e	e8 00 00 00 00	 call	 ?BeginEnvironment@CMapManager@@QAEXXZ ; CMapManager::BeginEnvironment

; 283  : 	m_pyBackground.RenderPCBlocker();

  00433	8b 4d fc	 mov	 ecx, DWORD PTR _this$[ebp]
  00436	81 c1 4c a9 01
	00		 add	 ecx, 108876		; 0001a94cH
  0043c	e8 00 00 00 00	 call	 ?RenderPCBlocker@CPythonBackground@@QAEXXZ ; CPythonBackground::RenderPCBlocker

; 284  : 	m_pyBackground.EndEnvironment();

  00441	8b 4d fc	 mov	 ecx, DWORD PTR _this$[ebp]
  00444	81 c1 4c a9 01
	00		 add	 ecx, 108876		; 0001a94cH
  0044a	e8 00 00 00 00	 call	 ?EndEnvironment@CMapManager@@QAEXXZ ; CMapManager::EndEnvironment

; 285  : 	DWORD t17=ELTimer_GetMSec();

  0044f	e8 00 00 00 00	 call	 ?ELTimer_GetMSec@@YAKXZ	; ELTimer_GetMSec
  00454	89 45 b4	 mov	 DWORD PTR _t17$[ebp], eax

; 286  : 	m_pyBackground.RenderAfterLensFlare();

  00457	8b 4d fc	 mov	 ecx, DWORD PTR _this$[ebp]
  0045a	81 c1 4c a9 01
	00		 add	 ecx, 108876		; 0001a94cH
  00460	e8 00 00 00 00	 call	 ?RenderAfterLensFlare@CPythonBackground@@QAEXXZ ; CPythonBackground::RenderAfterLensFlare

; 287  : 	DWORD t18=ELTimer_GetMSec();

  00465	e8 00 00 00 00	 call	 ?ELTimer_GetMSec@@YAKXZ	; ELTimer_GetMSec
  0046a	89 45 90	 mov	 DWORD PTR _t18$[ebp], eax

; 288  : 	DWORD tEnd=ELTimer_GetMSec();

  0046d	e8 00 00 00 00	 call	 ?ELTimer_GetMSec@@YAKXZ	; ELTimer_GetMSec
  00472	89 45 f4	 mov	 DWORD PTR _tEnd$[ebp], eax

; 289  : 
; 290  : 	if (GetAsyncKeyState(VK_Z))

  00475	6a 5a		 push	 90			; 0000005aH
  00477	ff 15 00 00 00
	00		 call	 DWORD PTR __imp__GetAsyncKeyState@4
  0047d	98		 cwde
  0047e	85 c0		 test	 eax, eax
  00480	74 0f		 je	 SHORT $LN4@RenderGame

; 291  : 		STATEMANAGER.SetRenderState(D3DRS_FILLMODE, D3DFILL_SOLID);

  00482	6a 03		 push	 3
  00484	6a 08		 push	 8
  00486	8b 0d 00 00 00
	00		 mov	 ecx, DWORD PTR ?ms_singleton@?$CSingleton@VCStateManager@@@@0PAVCStateManager@@A ; CSingleton<CStateManager>::ms_singleton
  0048c	e8 00 00 00 00	 call	 ?SetRenderState@CStateManager@@QAEXW4_D3DRENDERSTATETYPE@@K@Z ; CStateManager::SetRenderState
$LN4@RenderGame:

; 292  : 
; 293  : 	if (tEnd-t1<3)

  00491	8b 45 f4	 mov	 eax, DWORD PTR _tEnd$[ebp]
  00494	2b 45 f8	 sub	 eax, DWORD PTR _t1$[ebp]
  00497	83 f8 03	 cmp	 eax, 3
  0049a	73 05		 jae	 SHORT $LN5@RenderGame

; 294  : 		return;

  0049c	e9 38 02 00 00	 jmp	 $LN1@RenderGame
$LN5@RenderGame:

; 295  : 
; 296  : 	static FILE* fp=fopen("perf_game_render.txt", "w");

  004a1	a1 00 00 00 00	 mov	 eax, DWORD PTR __tls_index
  004a6	64 8b 0d 00 00
	00 00		 mov	 ecx, DWORD PTR fs:__tls_array
  004ad	8b 04 81	 mov	 eax, DWORD PTR [ecx+eax*4]
  004b0	8b 0d 00 00 00
	00		 mov	 ecx, DWORD PTR ?$TSS0@?1??RenderGame@CPythonApplication@@QAEXXZ@4HA
  004b6	3b 88 00 00 00
	00		 cmp	 ecx, DWORD PTR __Init_thread_epoch[eax]
  004bc	7e 35		 jle	 SHORT $LN2@RenderGame
  004be	68 00 00 00 00	 push	 OFFSET ?$TSS0@?1??RenderGame@CPythonApplication@@QAEXXZ@4HA
  004c3	e8 00 00 00 00	 call	 __Init_thread_header
  004c8	59		 pop	 ecx
  004c9	83 3d 00 00 00
	00 ff		 cmp	 DWORD PTR ?$TSS0@?1??RenderGame@CPythonApplication@@QAEXXZ@4HA, -1
  004d0	75 21		 jne	 SHORT $LN2@RenderGame
  004d2	68 00 00 00 00	 push	 OFFSET ??_C@_01NOFIACDB@w@
  004d7	68 00 00 00 00	 push	 OFFSET ??_C@_0BF@OHHAPIAL@perf_game_render?4txt@
  004dc	e8 00 00 00 00	 call	 _fopen
  004e1	59		 pop	 ecx
  004e2	59		 pop	 ecx
  004e3	a3 00 00 00 00	 mov	 DWORD PTR ?fp@?1??RenderGame@CPythonApplication@@QAEXXZ@4PAU_iobuf@@A, eax
  004e8	68 00 00 00 00	 push	 OFFSET ?$TSS0@?1??RenderGame@CPythonApplication@@QAEXXZ@4HA
  004ed	e8 00 00 00 00	 call	 __Init_thread_footer
  004f2	59		 pop	 ecx
$LN2@RenderGame:

; 297  : 
; 298  : 	fprintf(fp, "GR.Total %d (Time %d)\n", tEnd-t1, ELTimer_GetMSec());

  004f3	e8 00 00 00 00	 call	 ?ELTimer_GetMSec@@YAKXZ	; ELTimer_GetMSec
  004f8	50		 push	 eax
  004f9	8b 45 f4	 mov	 eax, DWORD PTR _tEnd$[ebp]
  004fc	2b 45 f8	 sub	 eax, DWORD PTR _t1$[ebp]
  004ff	50		 push	 eax
  00500	68 00 00 00 00	 push	 OFFSET ??_C@_0BH@GCCBAEAA@GR?4Total?5?$CFd?5?$CITime?5?$CFd?$CJ?6@
  00505	ff 35 00 00 00
	00		 push	 DWORD PTR ?fp@?1??RenderGame@CPythonApplication@@QAEXXZ@4PAU_iobuf@@A
  0050b	e8 00 00 00 00	 call	 _fprintf
  00510	83 c4 10	 add	 esp, 16			; 00000010H

; 299  : 	fprintf(fp, "GR.DFM %d\n", t2-t1);

  00513	8b 45 f0	 mov	 eax, DWORD PTR _t2$[ebp]
  00516	2b 45 f8	 sub	 eax, DWORD PTR _t1$[ebp]
  00519	50		 push	 eax
  0051a	68 00 00 00 00	 push	 OFFSET ??_C@_0L@EGAPCDKD@GR?4DFM?5?$CFd?6@
  0051f	ff 35 00 00 00
	00		 push	 DWORD PTR ?fp@?1??RenderGame@CPythonApplication@@QAEXXZ@4PAU_iobuf@@A
  00525	e8 00 00 00 00	 call	 _fprintf
  0052a	83 c4 0c	 add	 esp, 12			; 0000000cH

; 300  : 	fprintf(fp, "GR.EFT.UP %d\n", t3-t2);

  0052d	8b 45 ec	 mov	 eax, DWORD PTR _t3$[ebp]
  00530	2b 45 f0	 sub	 eax, DWORD PTR _t2$[ebp]
  00533	50		 push	 eax
  00534	68 00 00 00 00	 push	 OFFSET ??_C@_0O@PLGAMGBI@GR?4EFT?4UP?5?$CFd?6@
  00539	ff 35 00 00 00
	00		 push	 DWORD PTR ?fp@?1??RenderGame@CPythonApplication@@QAEXXZ@4PAU_iobuf@@A
  0053f	e8 00 00 00 00	 call	 _fprintf
  00544	83 c4 0c	 add	 esp, 12			; 0000000cH

; 301  : 	fprintf(fp, "GR.SHW %d\n", t4-t3);

  00547	8b 45 e8	 mov	 eax, DWORD PTR _t4$[ebp]
  0054a	2b 45 ec	 sub	 eax, DWORD PTR _t3$[ebp]
  0054d	50		 push	 eax
  0054e	68 00 00 00 00	 push	 OFFSET ??_C@_0L@MCADEBDB@GR?4SHW?5?$CFd?6@
  00553	ff 35 00 00 00
	00		 push	 DWORD PTR ?fp@?1??RenderGame@CPythonApplication@@QAEXXZ@4PAU_iobuf@@A
  00559	e8 00 00 00 00	 call	 _fprintf
  0055e	83 c4 0c	 add	 esp, 12			; 0000000cH

; 302  : 	fprintf(fp, "GR.STT %d\n", t5-t4);

  00561	8b 45 e4	 mov	 eax, DWORD PTR _t5$[ebp]
  00564	2b 45 e8	 sub	 eax, DWORD PTR _t4$[ebp]
  00567	50		 push	 eax
  00568	68 00 00 00 00	 push	 OFFSET ??_C@_0L@OEOJMFCF@GR?4STT?5?$CFd?6@
  0056d	ff 35 00 00 00
	00		 push	 DWORD PTR ?fp@?1??RenderGame@CPythonApplication@@QAEXXZ@4PAU_iobuf@@A
  00573	e8 00 00 00 00	 call	 _fprintf
  00578	83 c4 0c	 add	 esp, 12			; 0000000cH

; 303  : 	fprintf(fp, "GR.CLL %d\n", t6-t5);

  0057b	8b 45 e0	 mov	 eax, DWORD PTR _t6$[ebp]
  0057e	2b 45 e4	 sub	 eax, DWORD PTR _t5$[ebp]
  00581	50		 push	 eax
  00582	68 00 00 00 00	 push	 OFFSET ??_C@_0L@CDOGKGFB@GR?4CLL?5?$CFd?6@
  00587	ff 35 00 00 00
	00		 push	 DWORD PTR ?fp@?1??RenderGame@CPythonApplication@@QAEXXZ@4PAU_iobuf@@A
  0058d	e8 00 00 00 00	 call	 _fprintf
  00592	83 c4 0c	 add	 esp, 12			; 0000000cH

; 304  : 	fprintf(fp, "GR.BG.SKY %d\n", t7-t6);

  00595	8b 45 dc	 mov	 eax, DWORD PTR _t7$[ebp]
  00598	2b 45 e0	 sub	 eax, DWORD PTR _t6$[ebp]
  0059b	50		 push	 eax
  0059c	68 00 00 00 00	 push	 OFFSET ??_C@_0O@HPKPMDPE@GR?4BG?4SKY?5?$CFd?6@
  005a1	ff 35 00 00 00
	00		 push	 DWORD PTR ?fp@?1??RenderGame@CPythonApplication@@QAEXXZ@4PAU_iobuf@@A
  005a7	e8 00 00 00 00	 call	 _fprintf
  005ac	83 c4 0c	 add	 esp, 12			; 0000000cH

; 305  : 	fprintf(fp, "GR.BG.LEN %d\n", t8-t7);

  005af	8b 45 d8	 mov	 eax, DWORD PTR _t8$[ebp]
  005b2	2b 45 dc	 sub	 eax, DWORD PTR _t7$[ebp]
  005b5	50		 push	 eax
  005b6	68 00 00 00 00	 push	 OFFSET ??_C@_0O@JENIKJAN@GR?4BG?4LEN?5?$CFd?6@
  005bb	ff 35 00 00 00
	00		 push	 DWORD PTR ?fp@?1??RenderGame@CPythonApplication@@QAEXXZ@4PAU_iobuf@@A
  005c1	e8 00 00 00 00	 call	 _fprintf
  005c6	83 c4 0c	 add	 esp, 12			; 0000000cH

; 306  : 	fprintf(fp, "GR.BG.CLD %d\n", t9-t8);

  005c9	8b 45 d4	 mov	 eax, DWORD PTR _t9$[ebp]
  005cc	2b 45 d8	 sub	 eax, DWORD PTR _t8$[ebp]
  005cf	50		 push	 eax
  005d0	68 00 00 00 00	 push	 OFFSET ??_C@_0O@HJPLNNBE@GR?4BG?4CLD?5?$CFd?6@
  005d5	ff 35 00 00 00
	00		 push	 DWORD PTR ?fp@?1??RenderGame@CPythonApplication@@QAEXXZ@4PAU_iobuf@@A
  005db	e8 00 00 00 00	 call	 _fprintf
  005e0	83 c4 0c	 add	 esp, 12			; 0000000cH

; 307  : 	fprintf(fp, "GR.BG.MAIN %d\n", t10-t9);		

  005e3	8b 45 d0	 mov	 eax, DWORD PTR _t10$[ebp]
  005e6	2b 45 d4	 sub	 eax, DWORD PTR _t9$[ebp]
  005e9	50		 push	 eax
  005ea	68 00 00 00 00	 push	 OFFSET ??_C@_0P@EJKDFAIB@GR?4BG?4MAIN?5?$CFd?6@
  005ef	ff 35 00 00 00
	00		 push	 DWORD PTR ?fp@?1??RenderGame@CPythonApplication@@QAEXXZ@4PAU_iobuf@@A
  005f5	e8 00 00 00 00	 call	 _fprintf
  005fa	83 c4 0c	 add	 esp, 12			; 0000000cH

; 308  : 	fprintf(fp, "GR.CHR %d\n",	t11-t10);

  005fd	8b 45 cc	 mov	 eax, DWORD PTR _t11$[ebp]
  00600	2b 45 d0	 sub	 eax, DWORD PTR _t10$[ebp]
  00603	50		 push	 eax
  00604	68 00 00 00 00	 push	 OFFSET ??_C@_0L@OOHFOBKJ@GR?4CHR?5?$CFd?6@
  00609	ff 35 00 00 00
	00		 push	 DWORD PTR ?fp@?1??RenderGame@CPythonApplication@@QAEXXZ@4PAU_iobuf@@A
  0060f	e8 00 00 00 00	 call	 _fprintf
  00614	83 c4 0c	 add	 esp, 12			; 0000000cH

; 309  : 	fprintf(fp, "GR.BG.WTR %d\n", t12-t11);

  00617	8b 45 c8	 mov	 eax, DWORD PTR _t12$[ebp]
  0061a	2b 45 cc	 sub	 eax, DWORD PTR _t11$[ebp]
  0061d	50		 push	 eax
  0061e	68 00 00 00 00	 push	 OFFSET ??_C@_0O@LENBOK@GR?4BG?4WTR?5?$CFd?6@
  00623	ff 35 00 00 00
	00		 push	 DWORD PTR ?fp@?1??RenderGame@CPythonApplication@@QAEXXZ@4PAU_iobuf@@A
  00629	e8 00 00 00 00	 call	 _fprintf
  0062e	83 c4 0c	 add	 esp, 12			; 0000000cH

; 310  : 	fprintf(fp, "GR.BG.EFT %d\n", t13-t12);

  00631	8b 45 c4	 mov	 eax, DWORD PTR _t13$[ebp]
  00634	2b 45 c8	 sub	 eax, DWORD PTR _t12$[ebp]
  00637	50		 push	 eax
  00638	68 00 00 00 00	 push	 OFFSET ??_C@_0O@BIDCIJEG@GR?4BG?4EFT?5?$CFd?6@
  0063d	ff 35 00 00 00
	00		 push	 DWORD PTR ?fp@?1??RenderGame@CPythonApplication@@QAEXXZ@4PAU_iobuf@@A
  00643	e8 00 00 00 00	 call	 _fprintf
  00648	83 c4 0c	 add	 esp, 12			; 0000000cH

; 311  : 	fprintf(fp, "GR.EFT %d\n", t14-t13);

  0064b	8b 45 c0	 mov	 eax, DWORD PTR _t14$[ebp]
  0064e	2b 45 c4	 sub	 eax, DWORD PTR _t13$[ebp]
  00651	50		 push	 eax
  00652	68 00 00 00 00	 push	 OFFSET ??_C@_0L@KOHMHAGO@GR?4EFT?5?$CFd?6@
  00657	ff 35 00 00 00
	00		 push	 DWORD PTR ?fp@?1??RenderGame@CPythonApplication@@QAEXXZ@4PAU_iobuf@@A
  0065d	e8 00 00 00 00	 call	 _fprintf
  00662	83 c4 0c	 add	 esp, 12			; 0000000cH

; 312  : 	fprintf(fp, "GR.ITM %d\n", t15-t14);

  00665	8b 45 bc	 mov	 eax, DWORD PTR _t15$[ebp]
  00668	2b 45 c0	 sub	 eax, DWORD PTR _t14$[ebp]
  0066b	50		 push	 eax
  0066c	68 00 00 00 00	 push	 OFFSET ??_C@_0L@CNELLLJF@GR?4ITM?5?$CFd?6@
  00671	ff 35 00 00 00
	00		 push	 DWORD PTR ?fp@?1??RenderGame@CPythonApplication@@QAEXXZ@4PAU_iobuf@@A
  00677	e8 00 00 00 00	 call	 _fprintf
  0067c	83 c4 0c	 add	 esp, 12			; 0000000cH

; 313  : 	fprintf(fp, "GR.FLY %d\n", t16-t15);

  0067f	8b 45 b8	 mov	 eax, DWORD PTR _t16$[ebp]
  00682	2b 45 bc	 sub	 eax, DWORD PTR _t15$[ebp]
  00685	50		 push	 eax
  00686	68 00 00 00 00	 push	 OFFSET ??_C@_0L@DIBNDLBN@GR?4FLY?5?$CFd?6@
  0068b	ff 35 00 00 00
	00		 push	 DWORD PTR ?fp@?1??RenderGame@CPythonApplication@@QAEXXZ@4PAU_iobuf@@A
  00691	e8 00 00 00 00	 call	 _fprintf
  00696	83 c4 0c	 add	 esp, 12			; 0000000cH

; 314  : 	fprintf(fp, "GR.BG.BLK %d\n", t17-t16);

  00699	8b 45 b4	 mov	 eax, DWORD PTR _t17$[ebp]
  0069c	2b 45 b8	 sub	 eax, DWORD PTR _t16$[ebp]
  0069f	50		 push	 eax
  006a0	68 00 00 00 00	 push	 OFFSET ??_C@_0O@EEAHGPFP@GR?4BG?4BLK?5?$CFd?6@
  006a5	ff 35 00 00 00
	00		 push	 DWORD PTR ?fp@?1??RenderGame@CPythonApplication@@QAEXXZ@4PAU_iobuf@@A
  006ab	e8 00 00 00 00	 call	 _fprintf
  006b0	83 c4 0c	 add	 esp, 12			; 0000000cH

; 315  : 	fprintf(fp, "GR.BG.LEN %d\n", t18-t17);

  006b3	8b 45 90	 mov	 eax, DWORD PTR _t18$[ebp]
  006b6	2b 45 b4	 sub	 eax, DWORD PTR _t17$[ebp]
  006b9	50		 push	 eax
  006ba	68 00 00 00 00	 push	 OFFSET ??_C@_0O@JENIKJAN@GR?4BG?4LEN?5?$CFd?6@
  006bf	ff 35 00 00 00
	00		 push	 DWORD PTR ?fp@?1??RenderGame@CPythonApplication@@QAEXXZ@4PAU_iobuf@@A
  006c5	e8 00 00 00 00	 call	 _fprintf
  006ca	83 c4 0c	 add	 esp, 12			; 0000000cH

; 316  : 
; 317  : 
; 318  : 	fflush(fp);

  006cd	ff 35 00 00 00
	00		 push	 DWORD PTR ?fp@?1??RenderGame@CPythonApplication@@QAEXXZ@4PAU_iobuf@@A
  006d3	e8 00 00 00 00	 call	 _fflush
  006d8	59		 pop	 ecx
$LN1@RenderGame:

; 319  : }

  006d9	c9		 leave
  006da	c3		 ret	 0
?RenderGame@CPythonApplication@@QAEXXZ ENDP		; CPythonApplication::RenderGame
_TEXT	ENDS
; Function compile flags: /Odspy
; File D:\Metin2 Server Files\mainline\SRC_2014\Metin2Client\UserInterface\PythonApplication.cpp
; File D:\Metin2 Server Files\mainline\SRC_2014\Metin2Client\eterBase\Singleton.h
; File D:\Metin2 Server Files\mainline\SRC_2014\Metin2Client\UserInterface\PythonApplication.cpp
; File D:\Metin2 Server Files\mainline\SRC_2014\Metin2Client\eterBase\Singleton.h
; File D:\Metin2 Server Files\mainline\SRC_2014\Metin2Client\UserInterface\PythonApplication.cpp
;	COMDAT ?UpdateGame@CPythonApplication@@QAEXXZ
_TEXT	SEGMENT
_ptMouse$ = -108					; size = 8
_fAspect$2 = -100					; size = 4
_fFarClip$3 = -96					; size = 4
$T4 = -92						; size = 4
$T5 = -88						; size = 4
_t11$ = -84						; size = 4
_t10$ = -80						; size = 4
_t9$ = -76						; size = 4
_t8$ = -72						; size = 4
_t7$ = -68						; size = 4
_t6$ = -64						; size = 4
_t5$ = -60						; size = 4
_t4$ = -56						; size = 4
_t3$ = -52						; size = 4
_t2$ = -48						; size = 4
_t12$ = -44						; size = 4
_t1$ = -40						; size = 4
_s$6 = -36						; size = 4
_this$ = -32						; size = 4
_kPPosMainActor$ = -28					; size = 12
__$ArrayPad$ = -16					; size = 4
__$EHRec$ = -12						; size = 12
?UpdateGame@CPythonApplication@@QAEXXZ PROC		; CPythonApplication::UpdateGame, COMDAT
; _this$ = ecx

; 322  : {

  00000	55		 push	 ebp
  00001	8b ec		 mov	 ebp, esp
  00003	6a ff		 push	 -1
  00005	68 00 00 00 00	 push	 __ehhandler$?UpdateGame@CPythonApplication@@QAEXXZ
  0000a	64 a1 00 00 00
	00		 mov	 eax, DWORD PTR fs:0
  00010	50		 push	 eax
  00011	83 ec 60	 sub	 esp, 96			; 00000060H
  00014	a1 00 00 00 00	 mov	 eax, DWORD PTR ___security_cookie
  00019	33 c5		 xor	 eax, ebp
  0001b	89 45 f0	 mov	 DWORD PTR __$ArrayPad$[ebp], eax
  0001e	50		 push	 eax
  0001f	8d 45 f4	 lea	 eax, DWORD PTR __$EHRec$[ebp]
  00022	64 a3 00 00 00
	00		 mov	 DWORD PTR fs:0, eax
  00028	89 4d e0	 mov	 DWORD PTR _this$[ebp], ecx

; 323  : 	DWORD t1=ELTimer_GetMSec();

  0002b	e8 00 00 00 00	 call	 ?ELTimer_GetMSec@@YAKXZ	; ELTimer_GetMSec
  00030	89 45 d8	 mov	 DWORD PTR _t1$[ebp], eax

; 324  : 	POINT ptMouse;
; 325  : 	GetMousePosition(&ptMouse);

  00033	8d 45 94	 lea	 eax, DWORD PTR _ptMouse$[ebp]
  00036	50		 push	 eax
  00037	8b 4d e0	 mov	 ecx, DWORD PTR _this$[ebp]
  0003a	83 c1 20	 add	 ecx, 32			; 00000020H
  0003d	8b 45 e0	 mov	 eax, DWORD PTR _this$[ebp]
  00040	8b 40 20	 mov	 eax, DWORD PTR [eax+32]
  00043	ff 50 04	 call	 DWORD PTR [eax+4]

; 326  : 
; 327  : 	CGraphicTextInstance::Hyperlink_UpdateMousePos(ptMouse.x, ptMouse.y);

  00046	ff 75 98	 push	 DWORD PTR _ptMouse$[ebp+4]
  00049	ff 75 94	 push	 DWORD PTR _ptMouse$[ebp]
  0004c	e8 00 00 00 00	 call	 ?Hyperlink_UpdateMousePos@CGraphicTextInstance@@SAXHH@Z ; CGraphicTextInstance::Hyperlink_UpdateMousePos
  00051	59		 pop	 ecx
  00052	59		 pop	 ecx

; 328  : 
; 329  : 	DWORD t2=ELTimer_GetMSec();

  00053	e8 00 00 00 00	 call	 ?ELTimer_GetMSec@@YAKXZ	; ELTimer_GetMSec
  00058	89 45 d0	 mov	 DWORD PTR _t2$[ebp], eax

; 330  : 
; 331  : 	//!@# Alt+Tab  SetTransfor      - [levites]
; 332  : 	//if (m_isActivateWnd)
; 333  : 	{
; 334  : 		CScreen s;

  0005b	8d 4d dc	 lea	 ecx, DWORD PTR _s$6[ebp]
  0005e	e8 00 00 00 00	 call	 ??0CScreen@@QAE@XZ	; CScreen::CScreen
  00063	83 65 fc 00	 and	 DWORD PTR __$EHRec$[ebp+8], 0
; File D:\Metin2 Server Files\mainline\SRC_2014\Metin2Client\eterBase\Singleton.h

; 27   : 		return (*ms_singleton);

  00067	a1 00 00 00 00	 mov	 eax, DWORD PTR ?ms_singleton@?$CSingleton@VCWindowManager@UI@@@@0PAVCWindowManager@UI@@A ; CSingleton<UI::CWindowManager>::ms_singleton
  0006c	89 45 a8	 mov	 DWORD PTR $T5[ebp], eax
; File D:\Metin2 Server Files\mainline\SRC_2014\Metin2Client\UserInterface\PythonApplication.cpp

; 335  : 		float fAspect = UI::CWindowManager::Instance().GetAspect();

  0006f	8b 4d a8	 mov	 ecx, DWORD PTR $T5[ebp]
  00072	e8 00 00 00 00	 call	 ?GetAspect@CWindowManager@UI@@QAEMXZ ; UI::CWindowManager::GetAspect
  00077	d9 5d 9c	 fstp	 DWORD PTR _fAspect$2[ebp]
; File D:\Metin2 Server Files\mainline\SRC_2014\Metin2Client\eterBase\Singleton.h

; 27   : 		return (*ms_singleton);

  0007a	a1 00 00 00 00	 mov	 eax, DWORD PTR ?ms_singleton@?$CSingleton@VCPythonBackground@@@@0PAVCPythonBackground@@A ; CSingleton<CPythonBackground>::ms_singleton
  0007f	89 45 a4	 mov	 DWORD PTR $T4[ebp], eax
; File D:\Metin2 Server Files\mainline\SRC_2014\Metin2Client\UserInterface\PythonApplication.cpp

; 336  : 		float fFarClip = CPythonBackground::Instance().GetFarClip();

  00082	8b 4d a4	 mov	 ecx, DWORD PTR $T4[ebp]
  00085	e8 00 00 00 00	 call	 ?GetFarClip@CPythonBackground@@QAEMXZ ; CPythonBackground::GetFarClip
  0008a	d9 5d a0	 fstp	 DWORD PTR _fFarClip$3[ebp]

; 337  : 
; 338  : 		s.SetPerspective(30.0f,fAspect, 100.0f, fFarClip);

  0008d	51		 push	 ecx
  0008e	f3 0f 10 45 a0	 movss	 xmm0, DWORD PTR _fFarClip$3[ebp]
  00093	f3 0f 11 04 24	 movss	 DWORD PTR [esp], xmm0
  00098	51		 push	 ecx
  00099	f3 0f 10 05 00
	00 00 00	 movss	 xmm0, DWORD PTR __real@42c80000
  000a1	f3 0f 11 04 24	 movss	 DWORD PTR [esp], xmm0
  000a6	51		 push	 ecx
  000a7	f3 0f 10 45 9c	 movss	 xmm0, DWORD PTR _fAspect$2[ebp]
  000ac	f3 0f 11 04 24	 movss	 DWORD PTR [esp], xmm0
  000b1	51		 push	 ecx
  000b2	f3 0f 10 05 00
	00 00 00	 movss	 xmm0, DWORD PTR __real@41f00000
  000ba	f3 0f 11 04 24	 movss	 DWORD PTR [esp], xmm0
  000bf	8d 4d dc	 lea	 ecx, DWORD PTR _s$6[ebp]
  000c2	e8 00 00 00 00	 call	 ?SetPerspective@CGraphicBase@@QAEXMMMM@Z ; CGraphicBase::SetPerspective

; 339  : 		s.BuildViewFrustum();

  000c7	8d 4d dc	 lea	 ecx, DWORD PTR _s$6[ebp]
  000ca	e8 00 00 00 00	 call	 ?BuildViewFrustum@CScreen@@QAEXXZ ; CScreen::BuildViewFrustum

; 340  : 	}

  000cf	83 4d fc ff	 or	 DWORD PTR __$EHRec$[ebp+8], -1
  000d3	8d 4d dc	 lea	 ecx, DWORD PTR _s$6[ebp]
  000d6	e8 00 00 00 00	 call	 ??1CScreen@@UAE@XZ	; CScreen::~CScreen

; 341  : 
; 342  : 	DWORD t3=ELTimer_GetMSec();

  000db	e8 00 00 00 00	 call	 ?ELTimer_GetMSec@@YAKXZ	; ELTimer_GetMSec
  000e0	89 45 cc	 mov	 DWORD PTR _t3$[ebp], eax

; 343  : 	TPixelPosition kPPosMainActor;
; 344  : 	m_pyPlayer.NEW_GetMainActorPosition(&kPPosMainActor);

  000e3	8d 45 e4	 lea	 eax, DWORD PTR _kPPosMainActor$[ebp]
  000e6	50		 push	 eax
  000e7	8b 4d e0	 mov	 ecx, DWORD PTR _this$[ebp]
  000ea	81 c1 90 81 00
	00		 add	 ecx, 33168		; 00008190H
  000f0	e8 00 00 00 00	 call	 ?NEW_GetMainActorPosition@CPythonPlayer@@QAEXPAUD3DXVECTOR3@@@Z ; CPythonPlayer::NEW_GetMainActorPosition

; 345  : 
; 346  : 	DWORD t4=ELTimer_GetMSec();

  000f5	e8 00 00 00 00	 call	 ?ELTimer_GetMSec@@YAKXZ	; ELTimer_GetMSec
  000fa	89 45 c8	 mov	 DWORD PTR _t4$[ebp], eax

; 347  : 	m_pyBackground.Update(kPPosMainActor.x, kPPosMainActor.y, kPPosMainActor.z);

  000fd	51		 push	 ecx
  000fe	f3 0f 10 45 ec	 movss	 xmm0, DWORD PTR _kPPosMainActor$[ebp+8]
  00103	f3 0f 11 04 24	 movss	 DWORD PTR [esp], xmm0
  00108	51		 push	 ecx
  00109	f3 0f 10 45 e8	 movss	 xmm0, DWORD PTR _kPPosMainActor$[ebp+4]
  0010e	f3 0f 11 04 24	 movss	 DWORD PTR [esp], xmm0
  00113	51		 push	 ecx
  00114	f3 0f 10 45 e4	 movss	 xmm0, DWORD PTR _kPPosMainActor$[ebp]
  00119	f3 0f 11 04 24	 movss	 DWORD PTR [esp], xmm0
  0011e	8b 4d e0	 mov	 ecx, DWORD PTR _this$[ebp]
  00121	81 c1 4c a9 01
	00		 add	 ecx, 108876		; 0001a94cH
  00127	e8 00 00 00 00	 call	 ?Update@CPythonBackground@@QAEXMMM@Z ; CPythonBackground::Update

; 348  : 
; 349  : 	DWORD t5=ELTimer_GetMSec();

  0012c	e8 00 00 00 00	 call	 ?ELTimer_GetMSec@@YAKXZ	; ELTimer_GetMSec
  00131	89 45 c4	 mov	 DWORD PTR _t5$[ebp], eax

; 350  : 	m_GameEventManager.SetCenterPosition(kPPosMainActor.x, kPPosMainActor.y, kPPosMainActor.z);

  00134	51		 push	 ecx
  00135	f3 0f 10 45 ec	 movss	 xmm0, DWORD PTR _kPPosMainActor$[ebp+8]
  0013a	f3 0f 11 04 24	 movss	 DWORD PTR [esp], xmm0
  0013f	51		 push	 ecx
  00140	f3 0f 10 45 e8	 movss	 xmm0, DWORD PTR _kPPosMainActor$[ebp+4]
  00145	f3 0f 11 04 24	 movss	 DWORD PTR [esp], xmm0
  0014a	51		 push	 ecx
  0014b	f3 0f 10 45 e4	 movss	 xmm0, DWORD PTR _kPPosMainActor$[ebp]
  00150	f3 0f 11 04 24	 movss	 DWORD PTR [esp], xmm0
  00155	8b 4d e0	 mov	 ecx, DWORD PTR _this$[ebp]
  00158	81 c1 b8 01 00
	00		 add	 ecx, 440		; 000001b8H
  0015e	e8 00 00 00 00	 call	 ?SetCenterPosition@CGameEventManager@@QAEXMMM@Z ; CGameEventManager::SetCenterPosition

; 351  : 	m_GameEventManager.Update();

  00163	8b 4d e0	 mov	 ecx, DWORD PTR _this$[ebp]
  00166	81 c1 b8 01 00
	00		 add	 ecx, 440		; 000001b8H
  0016c	e8 00 00 00 00	 call	 ?Update@CGameEventManager@@QAEXXZ ; CGameEventManager::Update

; 352  : 
; 353  : 	DWORD t6=ELTimer_GetMSec();

  00171	e8 00 00 00 00	 call	 ?ELTimer_GetMSec@@YAKXZ	; ELTimer_GetMSec
  00176	89 45 c0	 mov	 DWORD PTR _t6$[ebp], eax

; 354  : 	m_kChrMgr.Update();	

  00179	8b 4d e0	 mov	 ecx, DWORD PTR _this$[ebp]
  0017c	81 c1 d8 02 00
	00		 add	 ecx, 728		; 000002d8H
  00182	e8 00 00 00 00	 call	 ?Update@CPythonCharacterManager@@QAEXXZ ; CPythonCharacterManager::Update

; 355  : 	DWORD t7=ELTimer_GetMSec();

  00187	e8 00 00 00 00	 call	 ?ELTimer_GetMSec@@YAKXZ	; ELTimer_GetMSec
  0018c	89 45 bc	 mov	 DWORD PTR _t7$[ebp], eax

; 356  : 	m_kEftMgr.UpdateSound();

  0018f	8b 4d e0	 mov	 ecx, DWORD PTR _this$[ebp]
  00192	81 c1 b0 02 00
	00		 add	 ecx, 688		; 000002b0H
  00198	e8 00 00 00 00	 call	 ?UpdateSound@CEffectManager@@QAEXXZ ; CEffectManager::UpdateSound

; 357  : 	DWORD t8=ELTimer_GetMSec();

  0019d	e8 00 00 00 00	 call	 ?ELTimer_GetMSec@@YAKXZ	; ELTimer_GetMSec
  001a2	89 45 b8	 mov	 DWORD PTR _t8$[ebp], eax

; 358  : 	m_FlyingManager.Update();

  001a5	8b 4d e0	 mov	 ecx, DWORD PTR _this$[ebp]
  001a8	81 c1 5c 01 00
	00		 add	 ecx, 348		; 0000015cH
  001ae	e8 00 00 00 00	 call	 ?Update@CFlyingManager@@QAEXXZ ; CFlyingManager::Update

; 359  : 	DWORD t9=ELTimer_GetMSec();

  001b3	e8 00 00 00 00	 call	 ?ELTimer_GetMSec@@YAKXZ	; ELTimer_GetMSec
  001b8	89 45 b4	 mov	 DWORD PTR _t9$[ebp], eax

; 360  : 	m_pyItem.Update(ptMouse);

  001bb	8d 45 94	 lea	 eax, DWORD PTR _ptMouse$[ebp]
  001be	50		 push	 eax
  001bf	8b 4d e0	 mov	 ecx, DWORD PTR _this$[ebp]
  001c2	81 c1 e0 81 01
	00		 add	 ecx, 98784		; 000181e0H
  001c8	e8 00 00 00 00	 call	 ?Update@CPythonItem@@QAEXABUtagPOINT@@@Z ; CPythonItem::Update

; 361  : 	DWORD t10=ELTimer_GetMSec();

  001cd	e8 00 00 00 00	 call	 ?ELTimer_GetMSec@@YAKXZ	; ELTimer_GetMSec
  001d2	89 45 b0	 mov	 DWORD PTR _t10$[ebp], eax

; 362  : 	m_pyPlayer.Update();

  001d5	8b 4d e0	 mov	 ecx, DWORD PTR _this$[ebp]
  001d8	81 c1 90 81 00
	00		 add	 ecx, 33168		; 00008190H
  001de	e8 00 00 00 00	 call	 ?Update@CPythonPlayer@@QAEXXZ ; CPythonPlayer::Update

; 363  : 	DWORD t11=ELTimer_GetMSec();

  001e3	e8 00 00 00 00	 call	 ?ELTimer_GetMSec@@YAKXZ	; ELTimer_GetMSec
  001e8	89 45 ac	 mov	 DWORD PTR _t11$[ebp], eax

; 364  : 
; 365  : 	// NOTE : Update        - [levites]
; 366  : 	//             Sound      .
; 367  : 	m_pyPlayer.NEW_GetMainActorPosition(&kPPosMainActor);

  001eb	8d 45 e4	 lea	 eax, DWORD PTR _kPPosMainActor$[ebp]
  001ee	50		 push	 eax
  001ef	8b 4d e0	 mov	 ecx, DWORD PTR _this$[ebp]
  001f2	81 c1 90 81 00
	00		 add	 ecx, 33168		; 00008190H
  001f8	e8 00 00 00 00	 call	 ?NEW_GetMainActorPosition@CPythonPlayer@@QAEXPAUD3DXVECTOR3@@@Z ; CPythonPlayer::NEW_GetMainActorPosition

; 368  : 	SetCenterPosition(kPPosMainActor.x, kPPosMainActor.y, kPPosMainActor.z);

  001fd	51		 push	 ecx
  001fe	f3 0f 10 45 ec	 movss	 xmm0, DWORD PTR _kPPosMainActor$[ebp+8]
  00203	f3 0f 11 04 24	 movss	 DWORD PTR [esp], xmm0
  00208	51		 push	 ecx
  00209	f3 0f 10 45 e8	 movss	 xmm0, DWORD PTR _kPPosMainActor$[ebp+4]
  0020e	f3 0f 11 04 24	 movss	 DWORD PTR [esp], xmm0
  00213	51		 push	 ecx
  00214	f3 0f 10 45 e4	 movss	 xmm0, DWORD PTR _kPPosMainActor$[ebp]
  00219	f3 0f 11 04 24	 movss	 DWORD PTR [esp], xmm0
  0021e	8b 4d e0	 mov	 ecx, DWORD PTR _this$[ebp]
  00221	83 c1 20	 add	 ecx, 32			; 00000020H
  00224	8b 45 e0	 mov	 eax, DWORD PTR _this$[ebp]
  00227	8b 40 20	 mov	 eax, DWORD PTR [eax+32]
  0022a	ff 50 18	 call	 DWORD PTR [eax+24]

; 369  : 	DWORD t12=ELTimer_GetMSec();

  0022d	e8 00 00 00 00	 call	 ?ELTimer_GetMSec@@YAKXZ	; ELTimer_GetMSec
  00232	89 45 d4	 mov	 DWORD PTR _t12$[ebp], eax

; 370  : 
; 371  : 	if (PERF_CHECKER_RENDER_GAME)

  00235	0f b6 05 00 00
	00 00		 movzx	 eax, BYTE PTR ?PERF_CHECKER_RENDER_GAME@@3_NA ; PERF_CHECKER_RENDER_GAME
  0023c	85 c0		 test	 eax, eax
  0023e	0f 84 ab 01 00
	00		 je	 $LN4@UpdateGame

; 372  : 	{
; 373  : 		if (t12-t1>5)

  00244	8b 45 d4	 mov	 eax, DWORD PTR _t12$[ebp]
  00247	2b 45 d8	 sub	 eax, DWORD PTR _t1$[ebp]
  0024a	83 f8 05	 cmp	 eax, 5
  0024d	0f 86 9c 01 00
	00		 jbe	 $LN4@UpdateGame

; 374  : 		{
; 375  : 			static FILE* fp=fopen("perf_game_update.txt", "w");

  00253	a1 00 00 00 00	 mov	 eax, DWORD PTR __tls_index
  00258	64 8b 0d 00 00
	00 00		 mov	 ecx, DWORD PTR fs:__tls_array
  0025f	8b 04 81	 mov	 eax, DWORD PTR [ecx+eax*4]
  00262	8b 0d 00 00 00
	00		 mov	 ecx, DWORD PTR ?$TSS0@?8??UpdateGame@CPythonApplication@@QAEXXZ@4HA
  00268	3b 88 00 00 00
	00		 cmp	 ecx, DWORD PTR __Init_thread_epoch[eax]
  0026e	7e 35		 jle	 SHORT $LN2@UpdateGame
  00270	68 00 00 00 00	 push	 OFFSET ?$TSS0@?8??UpdateGame@CPythonApplication@@QAEXXZ@4HA
  00275	e8 00 00 00 00	 call	 __Init_thread_header
  0027a	59		 pop	 ecx
  0027b	83 3d 00 00 00
	00 ff		 cmp	 DWORD PTR ?$TSS0@?8??UpdateGame@CPythonApplication@@QAEXXZ@4HA, -1
  00282	75 21		 jne	 SHORT $LN2@UpdateGame
  00284	68 00 00 00 00	 push	 OFFSET ??_C@_01NOFIACDB@w@
  00289	68 00 00 00 00	 push	 OFFSET ??_C@_0BF@NHIIGIH@perf_game_update?4txt@
  0028e	e8 00 00 00 00	 call	 _fopen
  00293	59		 pop	 ecx
  00294	59		 pop	 ecx
  00295	a3 00 00 00 00	 mov	 DWORD PTR ?fp@?8??UpdateGame@CPythonApplication@@QAEXXZ@4PAU_iobuf@@A, eax
  0029a	68 00 00 00 00	 push	 OFFSET ?$TSS0@?8??UpdateGame@CPythonApplication@@QAEXXZ@4HA
  0029f	e8 00 00 00 00	 call	 __Init_thread_footer
  002a4	59		 pop	 ecx
$LN2@UpdateGame:

; 376  : 
; 377  : 			fprintf(fp, "GU.Total %d (Time %d)\n", t12-t1, ELTimer_GetMSec());

  002a5	e8 00 00 00 00	 call	 ?ELTimer_GetMSec@@YAKXZ	; ELTimer_GetMSec
  002aa	50		 push	 eax
  002ab	8b 45 d4	 mov	 eax, DWORD PTR _t12$[ebp]
  002ae	2b 45 d8	 sub	 eax, DWORD PTR _t1$[ebp]
  002b1	50		 push	 eax
  002b2	68 00 00 00 00	 push	 OFFSET ??_C@_0BH@HPIDKEA@GU?4Total?5?$CFd?5?$CITime?5?$CFd?$CJ?6@
  002b7	ff 35 00 00 00
	00		 push	 DWORD PTR ?fp@?8??UpdateGame@CPythonApplication@@QAEXXZ@4PAU_iobuf@@A
  002bd	e8 00 00 00 00	 call	 _fprintf
  002c2	83 c4 10	 add	 esp, 16			; 00000010H

; 378  : 			fprintf(fp, "GU.GMP %d\n", t2-t1);

  002c5	8b 45 d0	 mov	 eax, DWORD PTR _t2$[ebp]
  002c8	2b 45 d8	 sub	 eax, DWORD PTR _t1$[ebp]
  002cb	50		 push	 eax
  002cc	68 00 00 00 00	 push	 OFFSET ??_C@_0L@JHBDHKIG@GU?4GMP?5?$CFd?6@
  002d1	ff 35 00 00 00
	00		 push	 DWORD PTR ?fp@?8??UpdateGame@CPythonApplication@@QAEXXZ@4PAU_iobuf@@A
  002d7	e8 00 00 00 00	 call	 _fprintf
  002dc	83 c4 0c	 add	 esp, 12			; 0000000cH

; 379  : 			fprintf(fp, "GU.SCR %d\n", t3-t2);

  002df	8b 45 cc	 mov	 eax, DWORD PTR _t3$[ebp]
  002e2	2b 45 d0	 sub	 eax, DWORD PTR _t2$[ebp]
  002e5	50		 push	 eax
  002e6	68 00 00 00 00	 push	 OFFSET ??_C@_0L@HCBFJPAB@GU?4SCR?5?$CFd?6@
  002eb	ff 35 00 00 00
	00		 push	 DWORD PTR ?fp@?8??UpdateGame@CPythonApplication@@QAEXXZ@4PAU_iobuf@@A
  002f1	e8 00 00 00 00	 call	 _fprintf
  002f6	83 c4 0c	 add	 esp, 12			; 0000000cH

; 380  : 			fprintf(fp, "GU.MPS %d\n", t4-t3);

  002f9	8b 45 c8	 mov	 eax, DWORD PTR _t4$[ebp]
  002fc	2b 45 cc	 sub	 eax, DWORD PTR _t3$[ebp]
  002ff	50		 push	 eax
  00300	68 00 00 00 00	 push	 OFFSET ??_C@_0L@IGEOOJOO@GU?4MPS?5?$CFd?6@
  00305	ff 35 00 00 00
	00		 push	 DWORD PTR ?fp@?8??UpdateGame@CPythonApplication@@QAEXXZ@4PAU_iobuf@@A
  0030b	e8 00 00 00 00	 call	 _fprintf
  00310	83 c4 0c	 add	 esp, 12			; 0000000cH

; 381  : 			fprintf(fp, "GU.BG %d\n", t5-t4);

  00313	8b 45 c4	 mov	 eax, DWORD PTR _t5$[ebp]
  00316	2b 45 c8	 sub	 eax, DWORD PTR _t4$[ebp]
  00319	50		 push	 eax
  0031a	68 00 00 00 00	 push	 OFFSET ??_C@_09JGPPFKPH@GU?4BG?5?$CFd?6@
  0031f	ff 35 00 00 00
	00		 push	 DWORD PTR ?fp@?8??UpdateGame@CPythonApplication@@QAEXXZ@4PAU_iobuf@@A
  00325	e8 00 00 00 00	 call	 _fprintf
  0032a	83 c4 0c	 add	 esp, 12			; 0000000cH

; 382  : 			fprintf(fp, "GU.GEM %d\n", t6-t5);

  0032d	8b 45 c0	 mov	 eax, DWORD PTR _t6$[ebp]
  00330	2b 45 c4	 sub	 eax, DWORD PTR _t5$[ebp]
  00333	50		 push	 eax
  00334	68 00 00 00 00	 push	 OFFSET ??_C@_0L@BLLECFKE@GU?4GEM?5?$CFd?6@
  00339	ff 35 00 00 00
	00		 push	 DWORD PTR ?fp@?8??UpdateGame@CPythonApplication@@QAEXXZ@4PAU_iobuf@@A
  0033f	e8 00 00 00 00	 call	 _fprintf
  00344	83 c4 0c	 add	 esp, 12			; 0000000cH

; 383  : 			fprintf(fp, "GU.CHR %d\n", t7-t6);

  00347	8b 45 bc	 mov	 eax, DWORD PTR _t7$[ebp]
  0034a	2b 45 c0	 sub	 eax, DWORD PTR _t6$[ebp]
  0034d	50		 push	 eax
  0034e	68 00 00 00 00	 push	 OFFSET ??_C@_0L@MKJPKNA@GU?4CHR?5?$CFd?6@
  00353	ff 35 00 00 00
	00		 push	 DWORD PTR ?fp@?8??UpdateGame@CPythonApplication@@QAEXXZ@4PAU_iobuf@@A
  00359	e8 00 00 00 00	 call	 _fprintf
  0035e	83 c4 0c	 add	 esp, 12			; 0000000cH

; 384  : 			fprintf(fp, "GU.EFT %d\n", t8-t7);

  00361	8b 45 b8	 mov	 eax, DWORD PTR _t8$[ebp]
  00364	2b 45 bc	 sub	 eax, DWORD PTR _t7$[ebp]
  00367	50		 push	 eax
  00368	68 00 00 00 00	 push	 OFFSET ??_C@_0L@EMKAGLBH@GU?4EFT?5?$CFd?6@
  0036d	ff 35 00 00 00
	00		 push	 DWORD PTR ?fp@?8??UpdateGame@CPythonApplication@@QAEXXZ@4PAU_iobuf@@A
  00373	e8 00 00 00 00	 call	 _fprintf
  00378	83 c4 0c	 add	 esp, 12			; 0000000cH

; 385  : 			fprintf(fp, "GU.FLY %d\n", t9-t8);

  0037b	8b 45 b4	 mov	 eax, DWORD PTR _t9$[ebp]
  0037e	2b 45 b8	 sub	 eax, DWORD PTR _t8$[ebp]
  00381	50		 push	 eax
  00382	68 00 00 00 00	 push	 OFFSET ??_C@_0L@NKMBCAGE@GU?4FLY?5?$CFd?6@
  00387	ff 35 00 00 00
	00		 push	 DWORD PTR ?fp@?8??UpdateGame@CPythonApplication@@QAEXXZ@4PAU_iobuf@@A
  0038d	e8 00 00 00 00	 call	 _fprintf
  00392	83 c4 0c	 add	 esp, 12			; 0000000cH

; 386  : 			fprintf(fp, "GU.ITM %d\n", t10-t9);

  00395	8b 45 b0	 mov	 eax, DWORD PTR _t10$[ebp]
  00398	2b 45 b4	 sub	 eax, DWORD PTR _t9$[ebp]
  0039b	50		 push	 eax
  0039c	68 00 00 00 00	 push	 OFFSET ??_C@_0L@MPJHKAOM@GU?4ITM?5?$CFd?6@
  003a1	ff 35 00 00 00
	00		 push	 DWORD PTR ?fp@?8??UpdateGame@CPythonApplication@@QAEXXZ@4PAU_iobuf@@A
  003a7	e8 00 00 00 00	 call	 _fprintf
  003ac	83 c4 0c	 add	 esp, 12			; 0000000cH

; 387  : 			fprintf(fp, "GU.PLR %d\n", t11-t10);

  003af	8b 45 ac	 mov	 eax, DWORD PTR _t11$[ebp]
  003b2	2b 45 b0	 sub	 eax, DWORD PTR _t10$[ebp]
  003b5	50		 push	 eax
  003b6	68 00 00 00 00	 push	 OFFSET ??_C@_0L@KNCOIAL@GU?4PLR?5?$CFd?6@
  003bb	ff 35 00 00 00
	00		 push	 DWORD PTR ?fp@?8??UpdateGame@CPythonApplication@@QAEXXZ@4PAU_iobuf@@A
  003c1	e8 00 00 00 00	 call	 _fprintf
  003c6	83 c4 0c	 add	 esp, 12			; 0000000cH

; 388  : 			fprintf(fp, "GU.POS %d\n", t12-t11);

  003c9	8b 45 d4	 mov	 eax, DWORD PTR _t12$[ebp]
  003cc	2b 45 ac	 sub	 eax, DWORD PTR _t11$[ebp]
  003cf	50		 push	 eax
  003d0	68 00 00 00 00	 push	 OFFSET ??_C@_0L@PAGGCBDD@GU?4POS?5?$CFd?6@
  003d5	ff 35 00 00 00
	00		 push	 DWORD PTR ?fp@?8??UpdateGame@CPythonApplication@@QAEXXZ@4PAU_iobuf@@A
  003db	e8 00 00 00 00	 call	 _fprintf
  003e0	83 c4 0c	 add	 esp, 12			; 0000000cH

; 389  : 			fflush(fp);

  003e3	ff 35 00 00 00
	00		 push	 DWORD PTR ?fp@?8??UpdateGame@CPythonApplication@@QAEXXZ@4PAU_iobuf@@A
  003e9	e8 00 00 00 00	 call	 _fflush
  003ee	59		 pop	 ecx
$LN4@UpdateGame:

; 390  : 		}
; 391  : 	}
; 392  : }

  003ef	8b 4d f4	 mov	 ecx, DWORD PTR __$EHRec$[ebp]
  003f2	64 89 0d 00 00
	00 00		 mov	 DWORD PTR fs:0, ecx
  003f9	59		 pop	 ecx
  003fa	8b 4d f0	 mov	 ecx, DWORD PTR __$ArrayPad$[ebp]
  003fd	33 cd		 xor	 ecx, ebp
  003ff	e8 00 00 00 00	 call	 @__security_check_cookie@4
  00404	c9		 leave
  00405	c3		 ret	 0
_TEXT	ENDS
;	COMDAT text$x
text$x	SEGMENT
__unwindfunclet$?UpdateGame@CPythonApplication@@QAEXXZ$0:
  00000	8d 4d dc	 lea	 ecx, DWORD PTR _s$6[ebp]
  00003	e9 00 00 00 00	 jmp	 ??1CScreen@@UAE@XZ	; CScreen::~CScreen
  00008	cc		 int	 3
  00009	cc		 int	 3
  0000a	cc		 int	 3
  0000b	cc		 int	 3
  0000c	cc		 int	 3
__ehhandler$?UpdateGame@CPythonApplication@@QAEXXZ:
  0000d	90		 npad	 1
  0000e	90		 npad	 1
  0000f	8b 54 24 08	 mov	 edx, DWORD PTR [esp+8]
  00013	8d 42 0c	 lea	 eax, DWORD PTR [edx+12]
  00016	8b 4a 9c	 mov	 ecx, DWORD PTR [edx-100]
  00019	33 c8		 xor	 ecx, eax
  0001b	e8 00 00 00 00	 call	 @__security_check_cookie@4
  00020	8b 4a fc	 mov	 ecx, DWORD PTR [edx-4]
  00023	33 c8		 xor	 ecx, eax
  00025	e8 00 00 00 00	 call	 @__security_check_cookie@4
  0002a	b8 00 00 00 00	 mov	 eax, OFFSET __ehfuncinfo$?UpdateGame@CPythonApplication@@QAEXXZ
  0002f	e9 00 00 00 00	 jmp	 ___CxxFrameHandler3
text$x	ENDS
?UpdateGame@CPythonApplication@@QAEXXZ ENDP		; CPythonApplication::UpdateGame
; Function compile flags: /Odspy
; File D:\Metin2 Server Files\mainline\SRC_2014\Metin2Client\UserInterface\PythonApplication.cpp
;	COMDAT ?CreateDevice@CPythonApplication@@QAE_NHHHHH@Z
_TEXT	SEGMENT
tv175 = -16						; size = 4
_iRet$ = -12						; size = 4
_this$ = -8						; size = 4
tv130 = -4						; size = 4
_width$ = 8						; size = 4
_height$ = 12						; size = 4
_Windowed$ = 16						; size = 4
_bit$ = 20						; size = 4
_frequency$ = 24					; size = 4
?CreateDevice@CPythonApplication@@QAE_NHHHHH@Z PROC	; CPythonApplication::CreateDevice, COMDAT
; _this$ = ecx

; 902  : {

  00000	55		 push	 ebp
  00001	8b ec		 mov	 ebp, esp
  00003	83 ec 10	 sub	 esp, 16			; 00000010H
  00006	89 4d f8	 mov	 DWORD PTR _this$[ebp], ecx

; 903  : 	int iRet;
; 904  : 
; 905  : 	m_grpDevice.InitBackBufferCount(2);

  00009	6a 02		 push	 2
  0000b	8b 4d f8	 mov	 ecx, DWORD PTR _this$[ebp]
  0000e	81 c1 0c c3 01
	00		 add	 ecx, 115468		; 0001c30cH
  00014	e8 00 00 00 00	 call	 ?InitBackBufferCount@CGraphicDevice@@QAEXI@Z ; CGraphicDevice::InitBackBufferCount

; 906  : 	m_grpDevice.RegisterWarningString(CGraphicDevice::CREATE_BAD_DRIVER, ApplicationStringTable_GetStringz(IDS_WARN_BAD_DRIVER, "WARN_BAD_DRIVER"));

  00019	68 00 00 00 00	 push	 OFFSET ??_C@_0BA@NOHKOOIE@WARN_BAD_DRIVER@
  0001e	6a 03		 push	 3
  00020	e8 00 00 00 00	 call	 ?ApplicationStringTable_GetStringz@@YAPBDKPBD@Z ; ApplicationStringTable_GetStringz
  00025	59		 pop	 ecx
  00026	59		 pop	 ecx
  00027	50		 push	 eax
  00028	68 00 02 00 00	 push	 512			; 00000200H
  0002d	8b 4d f8	 mov	 ecx, DWORD PTR _this$[ebp]
  00030	81 c1 0c c3 01
	00		 add	 ecx, 115468		; 0001c30cH
  00036	e8 00 00 00 00	 call	 ?RegisterWarningString@CGraphicDevice@@QAEXIPBD@Z ; CGraphicDevice::RegisterWarningString

; 907  : 	m_grpDevice.RegisterWarningString(CGraphicDevice::CREATE_NO_TNL, ApplicationStringTable_GetStringz(IDS_WARN_NO_TNL, "WARN_NO_TNL"));

  0003b	68 00 00 00 00	 push	 OFFSET ??_C@_0M@MOGGPFAH@WARN_NO_TNL@
  00040	6a 04		 push	 4
  00042	e8 00 00 00 00	 call	 ?ApplicationStringTable_GetStringz@@YAPBDKPBD@Z ; ApplicationStringTable_GetStringz
  00047	59		 pop	 ecx
  00048	59		 pop	 ecx
  00049	50		 push	 eax
  0004a	68 00 01 00 00	 push	 256			; 00000100H
  0004f	8b 4d f8	 mov	 ecx, DWORD PTR _this$[ebp]
  00052	81 c1 0c c3 01
	00		 add	 ecx, 115468		; 0001c30cH
  00058	e8 00 00 00 00	 call	 ?RegisterWarningString@CGraphicDevice@@QAEXIPBD@Z ; CGraphicDevice::RegisterWarningString

; 908  : 
; 909  : 	iRet = m_grpDevice.Create(GetWindowHandle(), width, height, Windowed ? true : false, bit,frequency);

  0005d	83 7d 10 00	 cmp	 DWORD PTR _Windowed$[ebp], 0
  00061	74 06		 je	 SHORT $LN16@CreateDevi
  00063	c6 45 f0 01	 mov	 BYTE PTR tv175[ebp], 1
  00067	eb 04		 jmp	 SHORT $LN17@CreateDevi
$LN16@CreateDevi:
  00069	c6 45 f0 00	 mov	 BYTE PTR tv175[ebp], 0
$LN17@CreateDevi:
  0006d	ff 75 18	 push	 DWORD PTR _frequency$[ebp]
  00070	ff 75 14	 push	 DWORD PTR _bit$[ebp]
  00073	ff 75 f0	 push	 DWORD PTR tv175[ebp]
  00076	ff 75 0c	 push	 DWORD PTR _height$[ebp]
  00079	ff 75 08	 push	 DWORD PTR _width$[ebp]
  0007c	8b 4d f8	 mov	 ecx, DWORD PTR _this$[ebp]
  0007f	e8 00 00 00 00	 call	 ?GetWindowHandle@CMSWindow@@QAEPAUHWND__@@XZ ; CMSWindow::GetWindowHandle
  00084	50		 push	 eax
  00085	8b 4d f8	 mov	 ecx, DWORD PTR _this$[ebp]
  00088	81 c1 0c c3 01
	00		 add	 ecx, 115468		; 0001c30cH
  0008e	e8 00 00 00 00	 call	 ?Create@CGraphicDevice@@QAEHPAUHWND__@@HH_NHH@Z ; CGraphicDevice::Create
  00093	89 45 f4	 mov	 DWORD PTR _iRet$[ebp], eax

; 910  : 
; 911  : 	switch (iRet)

  00096	8b 45 f4	 mov	 eax, DWORD PTR _iRet$[ebp]
  00099	89 45 fc	 mov	 DWORD PTR tv130[ebp], eax
  0009c	83 7d fc 10	 cmp	 DWORD PTR tv130[ebp], 16 ; 00000010H
  000a0	7f 2f		 jg	 SHORT $LN18@CreateDevi
  000a2	83 7d fc 10	 cmp	 DWORD PTR tv130[ebp], 16 ; 00000010H
  000a6	0f 84 a6 00 00
	00		 je	 $LN8@CreateDevi
  000ac	83 7d fc 01	 cmp	 DWORD PTR tv130[ebp], 1
  000b0	74 46		 je	 SHORT $LN4@CreateDevi
  000b2	83 7d fc 02	 cmp	 DWORD PTR tv130[ebp], 2
  000b6	74 74		 je	 SHORT $LN7@CreateDevi
  000b8	83 7d fc 04	 cmp	 DWORD PTR tv130[ebp], 4
  000bc	0f 84 dc 00 00
	00		 je	 $LN10@CreateDevi
  000c2	83 7d fc 08	 cmp	 DWORD PTR tv130[ebp], 8
  000c6	0f 84 f5 00 00
	00		 je	 $LN11@CreateDevi
  000cc	e9 13 01 00 00	 jmp	 $LN12@CreateDevi
$LN18@CreateDevi:
  000d1	83 7d fc 20	 cmp	 DWORD PTR tv130[ebp], 32 ; 00000020H
  000d5	74 28		 je	 SHORT $LN5@CreateDevi
  000d7	83 7d fc 40	 cmp	 DWORD PTR tv130[ebp], 64 ; 00000040H
  000db	74 29		 je	 SHORT $LN6@CreateDevi
  000dd	81 7d fc 80 00
	00 00		 cmp	 DWORD PTR tv130[ebp], 128 ; 00000080H
  000e4	74 20		 je	 SHORT $LN6@CreateDevi
  000e6	81 7d fc 00 04
	00 00		 cmp	 DWORD PTR tv130[ebp], 1024 ; 00000400H
  000ed	0f 84 85 00 00
	00		 je	 $LN9@CreateDevi
  000f3	e9 ec 00 00 00	 jmp	 $LN12@CreateDevi
$LN4@CreateDevi:

; 912  : 	{
; 913  : 	case CGraphicDevice::CREATE_OK:
; 914  : 		return true;

  000f8	b0 01		 mov	 al, 1
  000fa	e9 24 01 00 00	 jmp	 $LN1@CreateDevi
$LN5@CreateDevi:

; 915  : 
; 916  : 	case CGraphicDevice::CREATE_REFRESHRATE:
; 917  : 		return true;

  000ff	b0 01		 mov	 al, 1
  00101	e9 1d 01 00 00	 jmp	 $LN1@CreateDevi
$LN6@CreateDevi:

; 918  : 
; 919  : 	case CGraphicDevice::CREATE_ENUM:
; 920  : 	case CGraphicDevice::CREATE_DETECT:
; 921  : 		SET_EXCEPTION(CREATE_NO_APPROPRIATE_DEVICE);

  00106	68 00 00 00 00	 push	 OFFSET ??_C@_0BN@OAKBEJJN@CREATE_NO_APPROPRIATE_DEVICE@
  0010b	a1 00 00 00 00	 mov	 eax, DWORD PTR __imp__PyExc_RuntimeError
  00110	ff 30		 push	 DWORD PTR [eax]
  00112	ff 15 00 00 00
	00		 call	 DWORD PTR __imp__PyErr_SetString
  00118	59		 pop	 ecx
  00119	59		 pop	 ecx

; 922  : 		TraceError("CreateDevice: Enum & Detect failed");

  0011a	68 00 00 00 00	 push	 OFFSET ??_C@_0CD@GGLEAAKE@CreateDevice?3?5Enum?5?$CG?5Detect?5fai@
  0011f	e8 00 00 00 00	 call	 ?TraceError@@YAXPBDZZ	; TraceError
  00124	59		 pop	 ecx

; 923  : 		return false;

  00125	32 c0		 xor	 al, al
  00127	e9 f7 00 00 00	 jmp	 $LN1@CreateDevi
$LN7@CreateDevi:

; 924  : 
; 925  : 	case CGraphicDevice::CREATE_NO_DIRECTX:
; 926  : 		//PyErr_SetString(PyExc_RuntimeError, "DirectX 8.1 or greater required to run game");
; 927  : 		SET_EXCEPTION(CREATE_NO_DIRECTX);

  0012c	68 00 00 00 00	 push	 OFFSET ??_C@_0BC@NKAKBNDM@CREATE_NO_DIRECTX@
  00131	a1 00 00 00 00	 mov	 eax, DWORD PTR __imp__PyExc_RuntimeError
  00136	ff 30		 push	 DWORD PTR [eax]
  00138	ff 15 00 00 00
	00		 call	 DWORD PTR __imp__PyErr_SetString
  0013e	59		 pop	 ecx
  0013f	59		 pop	 ecx

; 928  : 		TraceError("CreateDevice: DirectX 8.1 or greater required to run game");

  00140	68 00 00 00 00	 push	 OFFSET ??_C@_0DK@GACPAJMM@CreateDevice?3?5DirectX?58?41?5or?5gr@
  00145	e8 00 00 00 00	 call	 ?TraceError@@YAXPBDZZ	; TraceError
  0014a	59		 pop	 ecx

; 929  : 		return false;

  0014b	32 c0		 xor	 al, al
  0014d	e9 d1 00 00 00	 jmp	 $LN1@CreateDevi
$LN8@CreateDevi:

; 930  : 
; 931  : 	case CGraphicDevice::CREATE_DEVICE:
; 932  : 		//PyErr_SetString(PyExc_RuntimeError, "GraphicDevice create failed");
; 933  : 		SET_EXCEPTION(CREATE_DEVICE);

  00152	68 00 00 00 00	 push	 OFFSET ??_C@_0O@CMPMDOEH@CREATE_DEVICE@
  00157	a1 00 00 00 00	 mov	 eax, DWORD PTR __imp__PyExc_RuntimeError
  0015c	ff 30		 push	 DWORD PTR [eax]
  0015e	ff 15 00 00 00
	00		 call	 DWORD PTR __imp__PyErr_SetString
  00164	59		 pop	 ecx
  00165	59		 pop	 ecx

; 934  : 		TraceError("CreateDevice: GraphicDevice create failed");

  00166	68 00 00 00 00	 push	 OFFSET ??_C@_0CK@KMPBIDGP@CreateDevice?3?5GraphicDevice?5cre@
  0016b	e8 00 00 00 00	 call	 ?TraceError@@YAXPBDZZ	; TraceError
  00170	59		 pop	 ecx

; 935  : 		return false;

  00171	32 c0		 xor	 al, al
  00173	e9 ab 00 00 00	 jmp	 $LN1@CreateDevi
$LN9@CreateDevi:

; 936  : 
; 937  : 	case CGraphicDevice::CREATE_FORMAT:
; 938  : 		SET_EXCEPTION(CREATE_FORMAT);

  00178	68 00 00 00 00	 push	 OFFSET ??_C@_0O@DAEHMKOB@CREATE_FORMAT@
  0017d	a1 00 00 00 00	 mov	 eax, DWORD PTR __imp__PyExc_RuntimeError
  00182	ff 30		 push	 DWORD PTR [eax]
  00184	ff 15 00 00 00
	00		 call	 DWORD PTR __imp__PyErr_SetString
  0018a	59		 pop	 ecx
  0018b	59		 pop	 ecx

; 939  : 		TraceError("CreateDevice: Change the screen format");

  0018c	68 00 00 00 00	 push	 OFFSET ??_C@_0CH@DEBFNBPL@CreateDevice?3?5Change?5the?5screen@
  00191	e8 00 00 00 00	 call	 ?TraceError@@YAXPBDZZ	; TraceError
  00196	59		 pop	 ecx

; 940  : 		return false;

  00197	32 c0		 xor	 al, al
  00199	e9 85 00 00 00	 jmp	 $LN1@CreateDevi
$LN10@CreateDevi:

; 941  : 
; 942  : 		/*case CGraphicDevice::CREATE_GET_ADAPTER_DISPLAY_MODE:
; 943  : 		//PyErr_SetString(PyExc_RuntimeError, "GetAdapterDisplayMode failed");
; 944  : 		SET_EXCEPTION(CREATE_GET_ADAPTER_DISPLAY_MODE);
; 945  : 		TraceError("CreateDevice: GetAdapterDisplayMode failed");
; 946  : 		return false;*/
; 947  : 
; 948  : 	case CGraphicDevice::CREATE_GET_DEVICE_CAPS:
; 949  : 		PyErr_SetString(PyExc_RuntimeError, "GetDevCaps failed");

  0019e	68 00 00 00 00	 push	 OFFSET ??_C@_0BC@IMJEDJEA@GetDevCaps?5failed@
  001a3	a1 00 00 00 00	 mov	 eax, DWORD PTR __imp__PyExc_RuntimeError
  001a8	ff 30		 push	 DWORD PTR [eax]
  001aa	ff 15 00 00 00
	00		 call	 DWORD PTR __imp__PyErr_SetString
  001b0	59		 pop	 ecx
  001b1	59		 pop	 ecx

; 950  : 		TraceError("CreateDevice: GetDevCaps failed");

  001b2	68 00 00 00 00	 push	 OFFSET ??_C@_0CA@DLHDILBB@CreateDevice?3?5GetDevCaps?5failed@
  001b7	e8 00 00 00 00	 call	 ?TraceError@@YAXPBDZZ	; TraceError
  001bc	59		 pop	 ecx

; 951  : 		return false;

  001bd	32 c0		 xor	 al, al
  001bf	eb 62		 jmp	 SHORT $LN1@CreateDevi
$LN11@CreateDevi:

; 952  : 
; 953  : 	case CGraphicDevice::CREATE_GET_DEVICE_CAPS2:
; 954  : 		PyErr_SetString(PyExc_RuntimeError, "GetDevCaps2 failed");

  001c1	68 00 00 00 00	 push	 OFFSET ??_C@_0BD@IHNLMMLJ@GetDevCaps2?5failed@
  001c6	a1 00 00 00 00	 mov	 eax, DWORD PTR __imp__PyExc_RuntimeError
  001cb	ff 30		 push	 DWORD PTR [eax]
  001cd	ff 15 00 00 00
	00		 call	 DWORD PTR __imp__PyErr_SetString
  001d3	59		 pop	 ecx
  001d4	59		 pop	 ecx

; 955  : 		TraceError("CreateDevice: GetDevCaps2 failed");

  001d5	68 00 00 00 00	 push	 OFFSET ??_C@_0CB@JLAAEKGJ@CreateDevice?3?5GetDevCaps2?5faile@
  001da	e8 00 00 00 00	 call	 ?TraceError@@YAXPBDZZ	; TraceError
  001df	59		 pop	 ecx

; 956  : 		return false;

  001e0	32 c0		 xor	 al, al
  001e2	eb 3f		 jmp	 SHORT $LN1@CreateDevi
$LN12@CreateDevi:

; 957  : 
; 958  : 	default:
; 959  : 		if (iRet & CGraphicDevice::CREATE_OK)

  001e4	8b 45 f4	 mov	 eax, DWORD PTR _iRet$[ebp]
  001e7	83 e0 01	 and	 eax, 1
  001ea	74 16		 je	 SHORT $LN13@CreateDevi

; 960  : 		{
; 961  : 			//if (iRet & CGraphicDevice::CREATE_BAD_DRIVER)
; 962  : 			//{
; 963  : 			//	LogBox(ApplicationStringTable_GetStringz(IDS_WARN_BAD_DRIVER), NULL, GetWindowHandle());
; 964  : 			//}
; 965  : 			if (iRet & CGraphicDevice::CREATE_NO_TNL)

  001ec	8b 45 f4	 mov	 eax, DWORD PTR _iRet$[ebp]
  001ef	25 00 01 00 00	 and	 eax, 256		; 00000100H
  001f4	74 08		 je	 SHORT $LN14@CreateDevi

; 966  : 			{
; 967  : 				CGrannyLODController::SetMinLODMode(true);

  001f6	6a 01		 push	 1
  001f8	e8 00 00 00 00	 call	 ?SetMinLODMode@CGrannyLODController@@SAX_N@Z ; CGrannyLODController::SetMinLODMode
  001fd	59		 pop	 ecx
$LN14@CreateDevi:

; 968  : 				//LogBox(ApplicationStringTable_GetStringz(IDS_WARN_NO_TNL), NULL, GetWindowHandle());
; 969  : 			}
; 970  : 			return true;

  001fe	b0 01		 mov	 al, 1
  00200	eb 21		 jmp	 SHORT $LN1@CreateDevi
$LN13@CreateDevi:

; 971  : 		}
; 972  : 
; 973  : 		//PyErr_SetString(PyExc_RuntimeError, "Unknown Error!");
; 974  : 		SET_EXCEPTION(UNKNOWN_ERROR);

  00202	68 00 00 00 00	 push	 OFFSET ??_C@_0O@BAEJJDKB@UNKNOWN_ERROR@
  00207	a1 00 00 00 00	 mov	 eax, DWORD PTR __imp__PyExc_RuntimeError
  0020c	ff 30		 push	 DWORD PTR [eax]
  0020e	ff 15 00 00 00
	00		 call	 DWORD PTR __imp__PyErr_SetString
  00214	59		 pop	 ecx
  00215	59		 pop	 ecx

; 975  : 		TraceError("CreateDevice: Unknown Error!");

  00216	68 00 00 00 00	 push	 OFFSET ??_C@_0BN@JAHEKIGK@CreateDevice?3?5Unknown?5Error?$CB@
  0021b	e8 00 00 00 00	 call	 ?TraceError@@YAXPBDZZ	; TraceError
  00220	59		 pop	 ecx

; 976  : 		return false;

  00221	32 c0		 xor	 al, al
$LN1@CreateDevi:

; 977  : 	}
; 978  : }

  00223	c9		 leave
  00224	c2 14 00	 ret	 20			; 00000014H
?CreateDevice@CPythonApplication@@QAE_NHHHHH@Z ENDP	; CPythonApplication::CreateDevice
_TEXT	ENDS
; Function compile flags: /Odspy
; File D:\Metin2 Server Files\mainline\SRC_2014\Metin2Client\UserInterface\PythonApplication.cpp
; File D:\Metin2 Server Files\mainline\SRC_2014\Metin2Client\eterBase\Singleton.h
; File D:\Metin2 Server Files\mainline\SRC_2014\Metin2Client\UserInterface\PythonApplication.cpp
; File D:\Metin2 Server Files\mainline\SRC_2014\Metin2Client\eterBase\Singleton.h
; File D:\Metin2 Server Files\mainline\SRC_2014\Metin2Client\UserInterface\PythonApplication.cpp
;	COMDAT ?Create@CPythonApplication@@QAE_NPAU_object@@PBDHHH@Z
_TEXT	SEGMENT
$T1 = -64						; size = 4
_windowWidth$2 = -60					; size = 4
_windowHeight$3 = -56					; size = 4
_WindowMode$ = -52					; size = 4
$T4 = -48						; size = 4
tv419 = -44						; size = 4
tv69 = -40						; size = 4
_sStickKeys$ = -36					; size = 8
_bAnotherWindow$ = -25					; size = 1
_this$ = -24						; size = 4
_rc$5 = -20						; size = 16
__$ArrayPad$ = -4					; size = 4
_poSelf$ = 8						; size = 4
_c_szName$ = 12						; size = 4
_width$ = 16						; size = 4
_height$ = 20						; size = 4
_Windowed$ = 24						; size = 4
?Create@CPythonApplication@@QAE_NPAU_object@@PBDHHH@Z PROC ; CPythonApplication::Create, COMDAT
; _this$ = ecx

; 1093 : {

  00000	55		 push	 ebp
  00001	8b ec		 mov	 ebp, esp
  00003	83 ec 40	 sub	 esp, 64			; 00000040H
  00006	a1 00 00 00 00	 mov	 eax, DWORD PTR ___security_cookie
  0000b	33 c5		 xor	 eax, ebp
  0000d	89 45 fc	 mov	 DWORD PTR __$ArrayPad$[ebp], eax
  00010	53		 push	 ebx
  00011	56		 push	 esi
  00012	57		 push	 edi
  00013	89 4d e8	 mov	 DWORD PTR _this$[ebp], ecx

; 1094 : 	NANOBEGIN

  00016	eb		 DB	 -21			; ffffffebH
  00017	03		 DB	 3
  00018	d6		 DB	 -42			; ffffffd6H
  00019	d7		 DB	 -41			; ffffffd7H
  0001a	01		 DB	 1
; File D:\Metin2 Server Files\mainline\SRC_2014\Metin2Client\eterBase\Singleton.h

; 27   : 		return (*ms_singleton);

  0001b	a1 00 00 00 00	 mov	 eax, DWORD PTR ?ms_singleton@?$CSingleton@VCPythonSystem@@@@0PAVCPythonSystem@@A ; CSingleton<CPythonSystem>::ms_singleton
  00020	89 45 d0	 mov	 DWORD PTR $T4[ebp], eax
; File D:\Metin2 Server Files\mainline\SRC_2014\Metin2Client\UserInterface\PythonApplication.cpp

; 1094 : 	NANOBEGIN

  00023	8b 4d d0	 mov	 ecx, DWORD PTR $T4[ebp]
  00026	e8 00 00 00 00	 call	 ?IsWindowed@CPythonSystem@@QAE_NXZ ; CPythonSystem::IsWindowed
  0002b	0f b6 c0	 movzx	 eax, al
  0002e	85 c0		 test	 eax, eax
  00030	74 09		 je	 SHORT $LN27@Create
  00032	c7 45 d8 01 00
	00 00		 mov	 DWORD PTR tv69[ebp], 1
  00039	eb 04		 jmp	 SHORT $LN28@Create
$LN27@Create:
  0003b	83 65 d8 00	 and	 DWORD PTR tv69[ebp], 0
$LN28@Create:
  0003f	8b 45 d8	 mov	 eax, DWORD PTR tv69[ebp]
  00042	89 45 18	 mov	 DWORD PTR _Windowed$[ebp], eax

; 1095 : 		Windowed = CPythonSystem::Instance().IsWindowed() ? 1 : 0;
; 1096 : 
; 1097 : 	bool bAnotherWindow = false;

  00045	c6 45 e7 00	 mov	 BYTE PTR _bAnotherWindow$[ebp], 0

; 1098 : 
; 1099 : 	if (FindWindow(NULL, c_szName))

  00049	ff 75 0c	 push	 DWORD PTR _c_szName$[ebp]
  0004c	6a 00		 push	 0
  0004e	ff 15 00 00 00
	00		 call	 DWORD PTR __imp__FindWindowA@8
  00054	85 c0		 test	 eax, eax
  00056	74 04		 je	 SHORT $LN2@Create

; 1100 : 		bAnotherWindow = true;

  00058	c6 45 e7 01	 mov	 BYTE PTR _bAnotherWindow$[ebp], 1
$LN2@Create:

; 1101 : 
; 1102 : 	m_dwWidth = width;

  0005c	8b 45 e8	 mov	 eax, DWORD PTR _this$[ebp]
  0005f	8b 4d 10	 mov	 ecx, DWORD PTR _width$[ebp]
  00062	89 88 3c ea 01
	00		 mov	 DWORD PTR [eax+125500], ecx

; 1103 : 	m_dwHeight = height;

  00068	8b 45 e8	 mov	 eax, DWORD PTR _this$[ebp]
  0006b	8b 4d 14	 mov	 ecx, DWORD PTR _height$[ebp]
  0006e	89 88 40 ea 01
	00		 mov	 DWORD PTR [eax+125504], ecx

; 1104 : 
; 1105 : 	// Window
; 1106 : 	UINT WindowMode = __GetWindowMode(Windowed ? true : false);

  00074	83 7d 18 00	 cmp	 DWORD PTR _Windowed$[ebp], 0
  00078	74 06		 je	 SHORT $LN29@Create
  0007a	c6 45 d4 01	 mov	 BYTE PTR tv419[ebp], 1
  0007e	eb 04		 jmp	 SHORT $LN30@Create
$LN29@Create:
  00080	c6 45 d4 00	 mov	 BYTE PTR tv419[ebp], 0
$LN30@Create:
  00084	ff 75 d4	 push	 DWORD PTR tv419[ebp]
  00087	e8 00 00 00 00	 call	 ?__GetWindowMode@@YAI_N@Z ; __GetWindowMode
  0008c	59		 pop	 ecx
  0008d	89 45 cc	 mov	 DWORD PTR _WindowMode$[ebp], eax

; 1107 : 
; 1108 : 	if (!CMSWindow::Create(c_szName, 4, 0, WindowMode, ::LoadIcon( GetInstance(), MAKEINTRESOURCE( IDI_METIN2 ) ), IDC_CURSOR_NORMAL))

  00090	6a 66		 push	 102			; 00000066H
  00092	6a 64		 push	 100			; 00000064H
  00094	8b 4d e8	 mov	 ecx, DWORD PTR _this$[ebp]
  00097	e8 00 00 00 00	 call	 ?GetInstance@CMSWindow@@QAEPAUHINSTANCE__@@XZ ; CMSWindow::GetInstance
  0009c	50		 push	 eax
  0009d	ff 15 00 00 00
	00		 call	 DWORD PTR __imp__LoadIconA@8
  000a3	50		 push	 eax
  000a4	ff 75 cc	 push	 DWORD PTR _WindowMode$[ebp]
  000a7	6a 00		 push	 0
  000a9	6a 04		 push	 4
  000ab	ff 75 0c	 push	 DWORD PTR _c_szName$[ebp]
  000ae	8b 4d e8	 mov	 ecx, DWORD PTR _this$[ebp]
  000b1	e8 00 00 00 00	 call	 ?Create@CMSWindow@@QAE_NPBDHKKPAUHICON__@@H@Z ; CMSWindow::Create
  000b6	0f b6 c0	 movzx	 eax, al
  000b9	85 c0		 test	 eax, eax
  000bb	75 26		 jne	 SHORT $LN3@Create

; 1109 : 	{
; 1110 : 		//PyErr_SetString(PyExc_RuntimeError, "CMSWindow::Create failed");
; 1111 : 		TraceError("CMSWindow::Create failed");

  000bd	68 00 00 00 00	 push	 OFFSET ??_C@_0BJ@DBNNLGNG@CMSWindow?3?3Create?5failed@
  000c2	e8 00 00 00 00	 call	 ?TraceError@@YAXPBDZZ	; TraceError
  000c7	59		 pop	 ecx

; 1112 : 		SET_EXCEPTION(CREATE_WINDOW);

  000c8	68 00 00 00 00	 push	 OFFSET ??_C@_0O@NOBMPFEG@CREATE_WINDOW@
  000cd	a1 00 00 00 00	 mov	 eax, DWORD PTR __imp__PyExc_RuntimeError
  000d2	ff 30		 push	 DWORD PTR [eax]
  000d4	ff 15 00 00 00
	00		 call	 DWORD PTR __imp__PyErr_SetString
  000da	59		 pop	 ecx
  000db	59		 pop	 ecx

; 1113 : 		return false;

  000dc	32 c0		 xor	 al, al
  000de	e9 23 04 00 00	 jmp	 $LN1@Create
$LN3@Create:

; 1114 : 	}
; 1115 : 
; 1116 : #ifdef USE_NPROTECT_GAMEGUARD
; 1117 : 	if (!GameGuard_Run(CMSWindow::GetWindowHandle()))
; 1118 : 		return false;
; 1119 : #endif
; 1120 : #ifdef XTRAP_CLIENT_ENABLE
; 1121 : 	if (!XTrap_CheckInit())
; 1122 : 		return false;
; 1123 : #endif
; 1124 : 
; 1125 : 	if (m_pySystem.IsUseDefaultIME())

  000e3	8b 4d e8	 mov	 ecx, DWORD PTR _this$[ebp]
  000e6	81 c1 28 c3 01
	00		 add	 ecx, 115496		; 0001c328H
  000ec	e8 00 00 00 00	 call	 ?IsUseDefaultIME@CPythonSystem@@QAE_NXZ ; CPythonSystem::IsUseDefaultIME
  000f1	0f b6 c0	 movzx	 eax, al
  000f4	85 c0		 test	 eax, eax
  000f6	74 0e		 je	 SHORT $LN4@Create

; 1126 : 	{
; 1127 : 		CPythonIME::Instance().UseDefaultIME();

  000f8	8b 0d 00 00 00
	00		 mov	 ecx, DWORD PTR ?ms_singleton@?$CSingleton@VCPythonIME@@@@0PAVCPythonIME@@A ; CSingleton<CPythonIME>::ms_singleton
  000fe	83 c1 04	 add	 ecx, 4
  00101	e8 00 00 00 00	 call	 ?UseDefaultIME@CIME@@QAEXXZ ; CIME::UseDefaultIME
$LN4@Create:

; 1128 : 	}
; 1129 : 
; 1130 : 	//  
; 1131 : 	//  IME    
; 1132 : 	//    
; 1133 : 	if (!m_pySystem.IsWindowed() && (m_pySystem.IsUseDefaultIME() || LocaleService_IsEUROPE()))

  00106	8b 4d e8	 mov	 ecx, DWORD PTR _this$[ebp]
  00109	81 c1 28 c3 01
	00		 add	 ecx, 115496		; 0001c328H
  0010f	e8 00 00 00 00	 call	 ?IsWindowed@CPythonSystem@@QAE_NXZ ; CPythonSystem::IsWindowed
  00114	0f b6 c0	 movzx	 eax, al
  00117	85 c0		 test	 eax, eax
  00119	75 6a		 jne	 SHORT $LN5@Create
  0011b	8b 4d e8	 mov	 ecx, DWORD PTR _this$[ebp]
  0011e	81 c1 28 c3 01
	00		 add	 ecx, 115496		; 0001c328H
  00124	e8 00 00 00 00	 call	 ?IsUseDefaultIME@CPythonSystem@@QAE_NXZ ; CPythonSystem::IsUseDefaultIME
  00129	0f b6 c0	 movzx	 eax, al
  0012c	85 c0		 test	 eax, eax
  0012e	75 0c		 jne	 SHORT $LN7@Create
  00130	e8 00 00 00 00	 call	 ?LocaleService_IsEUROPE@@YA_NXZ ; LocaleService_IsEUROPE
  00135	0f b6 c0	 movzx	 eax, al
  00138	85 c0		 test	 eax, eax
  0013a	74 49		 je	 SHORT $LN5@Create
$LN7@Create:

; 1134 : 	{
; 1135 : 		m_isWindowed = false;

  0013c	8b 45 e8	 mov	 eax, DWORD PTR _this$[ebp]
  0013f	c6 80 48 eb 01
	00 00		 mov	 BYTE PTR [eax+125768], 0

; 1136 : 		m_isWindowFullScreenEnable = TRUE;

  00146	8b 45 e8	 mov	 eax, DWORD PTR _this$[ebp]
  00149	c7 80 6c eb 01
	00 01 00 00 00	 mov	 DWORD PTR [eax+125804], 1

; 1137 : 		__SetFullScreenWindow(GetWindowHandle(), width, height, m_pySystem.GetBPP());

  00153	8b 4d e8	 mov	 ecx, DWORD PTR _this$[ebp]
  00156	81 c1 28 c3 01
	00		 add	 ecx, 115496		; 0001c328H
  0015c	e8 00 00 00 00	 call	 ?GetBPP@CPythonSystem@@QAEKXZ ; CPythonSystem::GetBPP
  00161	50		 push	 eax
  00162	ff 75 14	 push	 DWORD PTR _height$[ebp]
  00165	ff 75 10	 push	 DWORD PTR _width$[ebp]
  00168	8b 4d e8	 mov	 ecx, DWORD PTR _this$[ebp]
  0016b	e8 00 00 00 00	 call	 ?GetWindowHandle@CMSWindow@@QAEPAUHWND__@@XZ ; CMSWindow::GetWindowHandle
  00170	50		 push	 eax
  00171	8b 4d e8	 mov	 ecx, DWORD PTR _this$[ebp]
  00174	e8 00 00 00 00	 call	 ?__SetFullScreenWindow@CPythonApplication@@IAEXPAUHWND__@@KKK@Z ; CPythonApplication::__SetFullScreenWindow

; 1138 : 
; 1139 : 		Windowed = true;

  00179	c7 45 18 01 00
	00 00		 mov	 DWORD PTR _Windowed$[ebp], 1

; 1140 : 	}

  00180	e9 97 00 00 00	 jmp	 $LN6@Create
$LN5@Create:

; 1141 : 	else
; 1142 : 	{
; 1143 : 		AdjustSize(m_pySystem.GetWidth(), m_pySystem.GetHeight());

  00185	8b 4d e8	 mov	 ecx, DWORD PTR _this$[ebp]
  00188	81 c1 28 c3 01
	00		 add	 ecx, 115496		; 0001c328H
  0018e	e8 00 00 00 00	 call	 ?GetHeight@CPythonSystem@@QAEKXZ ; CPythonSystem::GetHeight
  00193	50		 push	 eax
  00194	8b 4d e8	 mov	 ecx, DWORD PTR _this$[ebp]
  00197	81 c1 28 c3 01
	00		 add	 ecx, 115496		; 0001c328H
  0019d	e8 00 00 00 00	 call	 ?GetWidth@CPythonSystem@@QAEKXZ ; CPythonSystem::GetWidth
  001a2	50		 push	 eax
  001a3	8b 4d e8	 mov	 ecx, DWORD PTR _this$[ebp]
  001a6	e8 00 00 00 00	 call	 ?AdjustSize@CMSWindow@@QAEXHH@Z ; CMSWindow::AdjustSize

; 1144 : 
; 1145 : 		if (Windowed)

  001ab	83 7d 18 00	 cmp	 DWORD PTR _Windowed$[ebp], 0
  001af	74 55		 je	 SHORT $LN8@Create

; 1146 : 		{
; 1147 : 			m_isWindowed = true;

  001b1	8b 45 e8	 mov	 eax, DWORD PTR _this$[ebp]
  001b4	c6 80 48 eb 01
	00 01		 mov	 BYTE PTR [eax+125768], 1

; 1148 : 
; 1149 : 			if (bAnotherWindow)

  001bb	0f b6 45 e7	 movzx	 eax, BYTE PTR _bAnotherWindow$[ebp]
  001bf	85 c0		 test	 eax, eax
  001c1	74 41		 je	 SHORT $LN10@Create

; 1150 : 			{
; 1151 : 				RECT rc;
; 1152 : 
; 1153 : 				GetClientRect(&rc);

  001c3	8d 45 ec	 lea	 eax, DWORD PTR _rc$5[ebp]
  001c6	50		 push	 eax
  001c7	8b 4d e8	 mov	 ecx, DWORD PTR _this$[ebp]
  001ca	e8 00 00 00 00	 call	 ?GetClientRect@CMSWindow@@QAEXPAUtagRECT@@@Z ; CMSWindow::GetClientRect

; 1154 : 
; 1155 : 				int windowWidth = rc.right - rc.left;

  001cf	8b 45 f4	 mov	 eax, DWORD PTR _rc$5[ebp+8]
  001d2	2b 45 ec	 sub	 eax, DWORD PTR _rc$5[ebp]
  001d5	89 45 c4	 mov	 DWORD PTR _windowWidth$2[ebp], eax

; 1156 : 				int windowHeight = (rc.bottom - rc.top);

  001d8	8b 45 f8	 mov	 eax, DWORD PTR _rc$5[ebp+12]
  001db	2b 45 f0	 sub	 eax, DWORD PTR _rc$5[ebp+4]
  001de	89 45 c8	 mov	 DWORD PTR _windowHeight$3[ebp], eax

; 1157 : 
; 1158 : 				CMSApplication::SetPosition(GetScreenWidth() - windowWidth, GetScreenHeight() - 60 - windowHeight);

  001e1	8b 4d e8	 mov	 ecx, DWORD PTR _this$[ebp]
  001e4	e8 00 00 00 00	 call	 ?GetScreenHeight@CMSWindow@@QAEHXZ ; CMSWindow::GetScreenHeight
  001e9	83 e8 3c	 sub	 eax, 60			; 0000003cH
  001ec	2b 45 c8	 sub	 eax, DWORD PTR _windowHeight$3[ebp]
  001ef	50		 push	 eax
  001f0	8b 4d e8	 mov	 ecx, DWORD PTR _this$[ebp]
  001f3	e8 00 00 00 00	 call	 ?GetScreenWidth@CMSWindow@@QAEHXZ ; CMSWindow::GetScreenWidth
  001f8	2b 45 c4	 sub	 eax, DWORD PTR _windowWidth$2[ebp]
  001fb	50		 push	 eax
  001fc	8b 4d e8	 mov	 ecx, DWORD PTR _this$[ebp]
  001ff	e8 00 00 00 00	 call	 ?SetPosition@CMSWindow@@QAEXHH@Z ; CMSWindow::SetPosition
$LN10@Create:

; 1159 : 			}
; 1160 : 		}

  00204	eb 16		 jmp	 SHORT $LN6@Create
$LN8@Create:

; 1161 : 		else
; 1162 : 		{
; 1163 : 			m_isWindowed = false;

  00206	8b 45 e8	 mov	 eax, DWORD PTR _this$[ebp]
  00209	c6 80 48 eb 01
	00 00		 mov	 BYTE PTR [eax+125768], 0

; 1164 : 			SetPosition(0, 0);

  00210	6a 00		 push	 0
  00212	6a 00		 push	 0
  00214	8b 4d e8	 mov	 ecx, DWORD PTR _this$[ebp]
  00217	e8 00 00 00 00	 call	 ?SetPosition@CMSWindow@@QAEXHH@Z ; CMSWindow::SetPosition
$LN6@Create:

; 1165 : 		}
; 1166 : 	}
; 1167 : 
; 1168 : 	NANOEND

  0021c	eb		 DB	 -21			; ffffffebH
  0021d	03		 DB	 3
  0021e	d6		 DB	 -42			; ffffffd6H
  0021f	d7		 DB	 -41			; ffffffd7H
  00220	00		 DB	 0
  00221	8b 4d e8	 mov	 ecx, DWORD PTR _this$[ebp]
  00224	e8 00 00 00 00	 call	 ?CreateCursors@CPythonApplication@@QAE_NXZ ; CPythonApplication::CreateCursors
  00229	0f b6 c0	 movzx	 eax, al
  0022c	85 c0		 test	 eax, eax
  0022e	75 26		 jne	 SHORT $LN11@Create

; 1169 : 		///////////////////////////////////////////////////////////////////////////////////////////////////////////////////
; 1170 : 		///////////////////////////////////////////////////////////////////////////////////////////////////////////////////
; 1171 : 
; 1172 : 		// Cursor
; 1173 : 		if (!CreateCursors())
; 1174 : 		{
; 1175 : 			//PyErr_SetString(PyExc_RuntimeError, "CMSWindow::Cursors Create Error");
; 1176 : 			TraceError("CMSWindow::Cursors Create Error");

  00230	68 00 00 00 00	 push	 OFFSET ??_C@_0CA@FFOMJBHN@CMSWindow?3?3Cursors?5Create?5Error@
  00235	e8 00 00 00 00	 call	 ?TraceError@@YAXPBDZZ	; TraceError
  0023a	59		 pop	 ecx

; 1177 : 			SET_EXCEPTION("CREATE_CURSOR");

  0023b	68 00 00 00 00	 push	 OFFSET ??_C@_0BA@GLLECKCO@?$CCCREATE_CURSOR?$CC@
  00240	a1 00 00 00 00	 mov	 eax, DWORD PTR __imp__PyExc_RuntimeError
  00245	ff 30		 push	 DWORD PTR [eax]
  00247	ff 15 00 00 00
	00		 call	 DWORD PTR __imp__PyErr_SetString
  0024d	59		 pop	 ecx
  0024e	59		 pop	 ecx

; 1178 : 			return false;

  0024f	32 c0		 xor	 al, al
  00251	e9 b0 02 00 00	 jmp	 $LN1@Create
$LN11@Create:

; 1179 : 		}
; 1180 : 
; 1181 : 		if (!m_pySystem.IsNoSoundCard())

  00256	8b 4d e8	 mov	 ecx, DWORD PTR _this$[ebp]
  00259	81 c1 28 c3 01
	00		 add	 ecx, 115496		; 0001c328H
  0025f	e8 00 00 00 00	 call	 ?IsNoSoundCard@CPythonSystem@@QAE_NXZ ; CPythonSystem::IsNoSoundCard
  00264	0f b6 c0	 movzx	 eax, al
  00267	85 c0		 test	 eax, eax
  00269	75 0e		 jne	 SHORT $LN12@Create

; 1182 : 		{
; 1183 : 			// Sound
; 1184 : 			if (!m_SoundManager.Create())

  0026b	8b 4d e8	 mov	 ecx, DWORD PTR _this$[ebp]
  0026e	81 c1 e8 00 00
	00		 add	 ecx, 232		; 000000e8H
  00274	e8 00 00 00 00	 call	 ?Create@CSoundManager@@QAEHXZ ; CSoundManager::Create
$LN12@Create:

; 1185 : 			{
; 1186 : 				// NOTE :   
; 1187 : 				//		LogBox(ApplicationStringTable_GetStringz(IDS_WARN_NO_SOUND_DEVICE));
; 1188 : 			}
; 1189 : 		}
; 1190 : 
; 1191 : 		extern bool GRAPHICS_CAPS_SOFTWARE_TILING;
; 1192 : 
; 1193 : 		if (!m_pySystem.IsAutoTiling())

  00279	8b 4d e8	 mov	 ecx, DWORD PTR _this$[ebp]
  0027c	81 c1 28 c3 01
	00		 add	 ecx, 115496		; 0001c328H
  00282	e8 00 00 00 00	 call	 ?IsAutoTiling@CPythonSystem@@QAE_NXZ ; CPythonSystem::IsAutoTiling
  00287	0f b6 c0	 movzx	 eax, al
  0028a	85 c0		 test	 eax, eax
  0028c	75 13		 jne	 SHORT $LN14@Create

; 1194 : 			GRAPHICS_CAPS_SOFTWARE_TILING = m_pySystem.IsSoftwareTiling();

  0028e	8b 4d e8	 mov	 ecx, DWORD PTR _this$[ebp]
  00291	81 c1 28 c3 01
	00		 add	 ecx, 115496		; 0001c328H
  00297	e8 00 00 00 00	 call	 ?IsSoftwareTiling@CPythonSystem@@QAE_NXZ ; CPythonSystem::IsSoftwareTiling
  0029c	a2 00 00 00 00	 mov	 BYTE PTR ?GRAPHICS_CAPS_SOFTWARE_TILING@@3_NA, al ; GRAPHICS_CAPS_SOFTWARE_TILING
$LN14@Create:

; 1195 : 
; 1196 : 		// Device
; 1197 : 		if (!CreateDevice(m_pySystem.GetWidth(), m_pySystem.GetHeight(), Windowed, m_pySystem.GetBPP(), m_pySystem.GetFrequency()))

  002a1	8b 4d e8	 mov	 ecx, DWORD PTR _this$[ebp]
  002a4	81 c1 28 c3 01
	00		 add	 ecx, 115496		; 0001c328H
  002aa	e8 00 00 00 00	 call	 ?GetFrequency@CPythonSystem@@QAEKXZ ; CPythonSystem::GetFrequency
  002af	50		 push	 eax
  002b0	8b 4d e8	 mov	 ecx, DWORD PTR _this$[ebp]
  002b3	81 c1 28 c3 01
	00		 add	 ecx, 115496		; 0001c328H
  002b9	e8 00 00 00 00	 call	 ?GetBPP@CPythonSystem@@QAEKXZ ; CPythonSystem::GetBPP
  002be	50		 push	 eax
  002bf	ff 75 18	 push	 DWORD PTR _Windowed$[ebp]
  002c2	8b 4d e8	 mov	 ecx, DWORD PTR _this$[ebp]
  002c5	81 c1 28 c3 01
	00		 add	 ecx, 115496		; 0001c328H
  002cb	e8 00 00 00 00	 call	 ?GetHeight@CPythonSystem@@QAEKXZ ; CPythonSystem::GetHeight
  002d0	50		 push	 eax
  002d1	8b 4d e8	 mov	 ecx, DWORD PTR _this$[ebp]
  002d4	81 c1 28 c3 01
	00		 add	 ecx, 115496		; 0001c328H
  002da	e8 00 00 00 00	 call	 ?GetWidth@CPythonSystem@@QAEKXZ ; CPythonSystem::GetWidth
  002df	50		 push	 eax
  002e0	8b 4d e8	 mov	 ecx, DWORD PTR _this$[ebp]
  002e3	e8 00 00 00 00	 call	 ?CreateDevice@CPythonApplication@@QAE_NHHHHH@Z ; CPythonApplication::CreateDevice
  002e8	0f b6 c0	 movzx	 eax, al
  002eb	85 c0		 test	 eax, eax
  002ed	75 07		 jne	 SHORT $LN15@Create

; 1198 : 			return false;

  002ef	32 c0		 xor	 al, al
  002f1	e9 10 02 00 00	 jmp	 $LN1@Create
$LN15@Create:

; 1199 : 
; 1200 : 		GrannyCreateSharedDeformBuffer();

  002f6	e8 00 00 00 00	 call	 ?GrannyCreateSharedDeformBuffer@@YAXXZ ; GrannyCreateSharedDeformBuffer

; 1201 : 
; 1202 : 		if (m_pySystem.IsAutoTiling())

  002fb	8b 4d e8	 mov	 ecx, DWORD PTR _this$[ebp]
  002fe	81 c1 28 c3 01
	00		 add	 ecx, 115496		; 0001c328H
  00304	e8 00 00 00 00	 call	 ?IsAutoTiling@CPythonSystem@@QAE_NXZ ; CPythonSystem::IsAutoTiling
  00309	0f b6 c0	 movzx	 eax, al
  0030c	85 c0		 test	 eax, eax
  0030e	74 30		 je	 SHORT $LN16@Create

; 1203 : 		{
; 1204 : 			if (m_grpDevice.IsFastTNL())

  00310	e8 00 00 00 00	 call	 ?IsFastTNL@CGraphicBase@@SA_NXZ ; CGraphicBase::IsFastTNL
  00315	0f b6 c0	 movzx	 eax, al
  00318	85 c0		 test	 eax, eax
  0031a	74 12		 je	 SHORT $LN18@Create

; 1205 : 			{
; 1206 : 				m_pyBackground.ReserveSoftwareTilingEnable(false);

  0031c	6a 00		 push	 0
  0031e	8b 4d e8	 mov	 ecx, DWORD PTR _this$[ebp]
  00321	81 c1 4c a9 01
	00		 add	 ecx, 108876		; 0001a94cH
  00327	e8 00 00 00 00	 call	 ?ReserveSoftwareTilingEnable@CMapManager@@QAEX_N@Z ; CMapManager::ReserveSoftwareTilingEnable

; 1207 : 			}

  0032c	eb 10		 jmp	 SHORT $LN19@Create
$LN18@Create:

; 1208 : 			else
; 1209 : 			{
; 1210 : 				m_pyBackground.ReserveSoftwareTilingEnable(true);

  0032e	6a 01		 push	 1
  00330	8b 4d e8	 mov	 ecx, DWORD PTR _this$[ebp]
  00333	81 c1 4c a9 01
	00		 add	 ecx, 108876		; 0001a94cH
  00339	e8 00 00 00 00	 call	 ?ReserveSoftwareTilingEnable@CMapManager@@QAEX_N@Z ; CMapManager::ReserveSoftwareTilingEnable
$LN19@Create:

; 1211 : 			}
; 1212 : 		}

  0033e	eb 20		 jmp	 SHORT $LN17@Create
$LN16@Create:

; 1213 : 		else
; 1214 : 		{
; 1215 : 			m_pyBackground.ReserveSoftwareTilingEnable(m_pySystem.IsSoftwareTiling());

  00340	8b 4d e8	 mov	 ecx, DWORD PTR _this$[ebp]
  00343	81 c1 28 c3 01
	00		 add	 ecx, 115496		; 0001c328H
  00349	e8 00 00 00 00	 call	 ?IsSoftwareTiling@CPythonSystem@@QAE_NXZ ; CPythonSystem::IsSoftwareTiling
  0034e	0f b6 c0	 movzx	 eax, al
  00351	50		 push	 eax
  00352	8b 4d e8	 mov	 ecx, DWORD PTR _this$[ebp]
  00355	81 c1 4c a9 01
	00		 add	 ecx, 108876		; 0001a94cH
  0035b	e8 00 00 00 00	 call	 ?ReserveSoftwareTilingEnable@CMapManager@@QAEX_N@Z ; CMapManager::ReserveSoftwareTilingEnable
$LN17@Create:

; 1216 : 		}
; 1217 : 
; 1218 : 		SetVisibleMode(true);

  00360	6a 01		 push	 1
  00362	8b 4d e8	 mov	 ecx, DWORD PTR _this$[ebp]
  00365	e8 00 00 00 00	 call	 ?SetVisibleMode@CMSWindow@@QAEX_N@Z ; CMSWindow::SetVisibleMode

; 1219 : 
; 1220 : 		if (m_isWindowFullScreenEnable) //m_pySystem.IsUseDefaultIME() && !m_pySystem.IsWindowed())

  0036a	8b 45 e8	 mov	 eax, DWORD PTR _this$[ebp]
  0036d	83 b8 6c eb 01
	00 00		 cmp	 DWORD PTR [eax+125804], 0
  00374	74 1d		 je	 SHORT $LN20@Create

; 1221 : 		{
; 1222 : 			SetWindowPos(GetWindowHandle(), HWND_TOP, 0, 0, width, height, SWP_SHOWWINDOW);

  00376	6a 40		 push	 64			; 00000040H
  00378	ff 75 14	 push	 DWORD PTR _height$[ebp]
  0037b	ff 75 10	 push	 DWORD PTR _width$[ebp]
  0037e	6a 00		 push	 0
  00380	6a 00		 push	 0
  00382	6a 00		 push	 0
  00384	8b 4d e8	 mov	 ecx, DWORD PTR _this$[ebp]
  00387	e8 00 00 00 00	 call	 ?GetWindowHandle@CMSWindow@@QAEPAUHWND__@@XZ ; CMSWindow::GetWindowHandle
  0038c	50		 push	 eax
  0038d	ff 15 00 00 00
	00		 call	 DWORD PTR __imp__SetWindowPos@28
$LN20@Create:

; 1223 : 		}
; 1224 : 
; 1225 : 		if (!InitializeKeyboard(GetWindowHandle()))

  00393	8b 4d e8	 mov	 ecx, DWORD PTR _this$[ebp]
  00396	e8 00 00 00 00	 call	 ?GetWindowHandle@CMSWindow@@QAEPAUHWND__@@XZ ; CMSWindow::GetWindowHandle
  0039b	50		 push	 eax
  0039c	8b 4d e8	 mov	 ecx, DWORD PTR _this$[ebp]
  0039f	83 c1 1c	 add	 ecx, 28			; 0000001cH
  003a2	e8 00 00 00 00	 call	 ?InitializeKeyboard@CInputKeyboard@@QAE_NPAUHWND__@@@Z ; CInputKeyboard::InitializeKeyboard
  003a7	0f b6 c0	 movzx	 eax, al
  003aa	85 c0		 test	 eax, eax
  003ac	75 07		 jne	 SHORT $LN21@Create

; 1226 : 			return false;

  003ae	32 c0		 xor	 al, al
  003b0	e9 51 01 00 00	 jmp	 $LN1@Create
$LN21@Create:

; 1227 : 
; 1228 : 		m_pySystem.GetDisplaySettings();

  003b5	8b 4d e8	 mov	 ecx, DWORD PTR _this$[ebp]
  003b8	81 c1 28 c3 01
	00		 add	 ecx, 115496		; 0001c328H
  003be	e8 00 00 00 00	 call	 ?GetDisplaySettings@CPythonSystem@@QAEXXZ ; CPythonSystem::GetDisplaySettings

; 1229 : 
; 1230 : 		// Mouse
; 1231 : 		if (m_pySystem.IsSoftwareCursor())

  003c3	8b 4d e8	 mov	 ecx, DWORD PTR _this$[ebp]
  003c6	81 c1 28 c3 01
	00		 add	 ecx, 115496		; 0001c328H
  003cc	e8 00 00 00 00	 call	 ?IsSoftwareCursor@CPythonSystem@@QAE_NXZ ; CPythonSystem::IsSoftwareCursor
  003d1	0f b6 c0	 movzx	 eax, al
  003d4	85 c0		 test	 eax, eax
  003d6	74 0c		 je	 SHORT $LN22@Create

; 1232 : 			SetCursorMode(CURSOR_MODE_SOFTWARE);

  003d8	6a 01		 push	 1
  003da	8b 4d e8	 mov	 ecx, DWORD PTR _this$[ebp]
  003dd	e8 00 00 00 00	 call	 ?SetCursorMode@CPythonApplication@@QAEXH@Z ; CPythonApplication::SetCursorMode
  003e2	eb 0a		 jmp	 SHORT $LN23@Create
$LN22@Create:

; 1233 : 		else
; 1234 : 			SetCursorMode(CURSOR_MODE_HARDWARE);

  003e4	6a 00		 push	 0
  003e6	8b 4d e8	 mov	 ecx, DWORD PTR _this$[ebp]
  003e9	e8 00 00 00 00	 call	 ?SetCursorMode@CPythonApplication@@QAEXH@Z ; CPythonApplication::SetCursorMode
$LN23@Create:

; 1235 : 
; 1236 : 		// Network
; 1237 : 		if (!m_netDevice.Create())

  003ee	8b 4d e8	 mov	 ecx, DWORD PTR _this$[ebp]
  003f1	81 c1 20 c3 01
	00		 add	 ecx, 115488		; 0001c320H
  003f7	e8 00 00 00 00	 call	 ?Create@CNetworkDevice@@QAE_NXZ ; CNetworkDevice::Create
  003fc	0f b6 c0	 movzx	 eax, al
  003ff	85 c0		 test	 eax, eax
  00401	75 26		 jne	 SHORT $LN24@Create

; 1238 : 		{
; 1239 : 			//PyErr_SetString(PyExc_RuntimeError, "NetDevice::Create failed");
; 1240 : 			TraceError("NetDevice::Create failed");

  00403	68 00 00 00 00	 push	 OFFSET ??_C@_0BJ@CJEBNOLC@NetDevice?3?3Create?5failed@
  00408	e8 00 00 00 00	 call	 ?TraceError@@YAXPBDZZ	; TraceError
  0040d	59		 pop	 ecx

; 1241 : 			SET_EXCEPTION("CREATE_NETWORK");

  0040e	68 00 00 00 00	 push	 OFFSET ??_C@_0BB@EJLMKODK@?$CCCREATE_NETWORK?$CC@
  00413	a1 00 00 00 00	 mov	 eax, DWORD PTR __imp__PyExc_RuntimeError
  00418	ff 30		 push	 DWORD PTR [eax]
  0041a	ff 15 00 00 00
	00		 call	 DWORD PTR __imp__PyErr_SetString
  00420	59		 pop	 ecx
  00421	59		 pop	 ecx

; 1242 : 			return false;

  00422	32 c0		 xor	 al, al
  00424	e9 dd 00 00 00	 jmp	 $LN1@Create
$LN24@Create:

; 1243 : 		}
; 1244 : 
; 1245 : 		if (!m_grpDevice.IsFastTNL())

  00429	e8 00 00 00 00	 call	 ?IsFastTNL@CGraphicBase@@SA_NXZ ; CGraphicBase::IsFastTNL
  0042e	0f b6 c0	 movzx	 eax, al
  00431	85 c0		 test	 eax, eax
  00433	75 08		 jne	 SHORT $LN25@Create

; 1246 : 			CGrannyLODController::SetMinLODMode(true);

  00435	6a 01		 push	 1
  00437	e8 00 00 00 00	 call	 ?SetMinLODMode@CGrannyLODController@@SAX_N@Z ; CGrannyLODController::SetMinLODMode
  0043c	59		 pop	 ecx
$LN25@Create:

; 1247 : 
; 1248 : 		m_pyItem.Create();

  0043d	8b 4d e8	 mov	 ecx, DWORD PTR _this$[ebp]
  00440	81 c1 e0 81 01
	00		 add	 ecx, 98784		; 000181e0H
  00446	e8 00 00 00 00	 call	 ?Create@CPythonItem@@QAEXXZ ; CPythonItem::Create

; 1249 : 
; 1250 : 		// Other Modules
; 1251 : 		DefaultFont_Startup();

  0044b	e8 00 00 00 00	 call	 ?DefaultFont_Startup@@YAXXZ ; DefaultFont_Startup
; File D:\Metin2 Server Files\mainline\SRC_2014\Metin2Client\eterBase\Singleton.h

; 27   : 		return (*ms_singleton);

  00450	a1 00 00 00 00	 mov	 eax, DWORD PTR ?ms_singleton@?$CSingleton@VCPythonIME@@@@0PAVCPythonIME@@A ; CSingleton<CPythonIME>::ms_singleton
  00455	89 45 c0	 mov	 DWORD PTR $T1[ebp], eax
; File D:\Metin2 Server Files\mainline\SRC_2014\Metin2Client\UserInterface\PythonApplication.cpp

; 1253 : 		CPythonIME::Instance().Create(GetWindowHandle());

  00458	8b 4d e8	 mov	 ecx, DWORD PTR _this$[ebp]
  0045b	e8 00 00 00 00	 call	 ?GetWindowHandle@CMSWindow@@QAEPAUHWND__@@XZ ; CMSWindow::GetWindowHandle
  00460	50		 push	 eax
  00461	8b 4d c0	 mov	 ecx, DWORD PTR $T1[ebp]
  00464	e8 00 00 00 00	 call	 ?Create@CPythonIME@@QAEXPAUHWND__@@@Z ; CPythonIME::Create

; 1254 : 		CPythonIME::Instance().SetText("", 0);

  00469	6a 00		 push	 0
  0046b	68 00 00 00 00	 push	 OFFSET ??_C@_00CNPNBAHC@@
  00470	8b 0d 00 00 00
	00		 mov	 ecx, DWORD PTR ?ms_singleton@?$CSingleton@VCPythonIME@@@@0PAVCPythonIME@@A ; CSingleton<CPythonIME>::ms_singleton
  00476	83 c1 04	 add	 ecx, 4
  00479	e8 00 00 00 00	 call	 ?SetText@CIME@@QAEXPBDH@Z ; CIME::SetText

; 1255 : 		CPythonTextTail::Instance().Initialize();

  0047e	8b 0d 00 00 00
	00		 mov	 ecx, DWORD PTR ?ms_singleton@?$CSingleton@VCPythonTextTail@@@@0PAVCPythonTextTail@@A ; CSingleton<CPythonTextTail>::ms_singleton
  00484	e8 00 00 00 00	 call	 ?Initialize@CPythonTextTail@@QAEXXZ ; CPythonTextTail::Initialize

; 1256 : 
; 1257 : 		// Light Manager
; 1258 : 		m_LightManager.Initialize();

  00489	8b 4d e8	 mov	 ecx, DWORD PTR _this$[ebp]
  0048c	83 c1 7c	 add	 ecx, 124		; 0000007cH
  0048f	e8 00 00 00 00	 call	 ?Initialize@CLightManager@@QAEXXZ ; CLightManager::Initialize

; 1259 : 
; 1260 : 		CGraphicImageInstance::CreateSystem(32);

  00494	6a 20		 push	 32			; 00000020H
  00496	e8 00 00 00 00	 call	 ?CreateSystem@CGraphicImageInstance@@SAXI@Z ; CGraphicImageInstance::CreateSystem
  0049b	59		 pop	 ecx

; 1261 : 
; 1262 : 		// 
; 1263 : 		STICKYKEYS sStickKeys;
; 1264 : 		memset(&sStickKeys, 0, sizeof(sStickKeys));

  0049c	6a 08		 push	 8
  0049e	6a 00		 push	 0
  004a0	8d 45 dc	 lea	 eax, DWORD PTR _sStickKeys$[ebp]
  004a3	50		 push	 eax
  004a4	e8 00 00 00 00	 call	 _memset
  004a9	83 c4 0c	 add	 esp, 12			; 0000000cH

; 1265 : 		sStickKeys.cbSize = sizeof(sStickKeys);

  004ac	c7 45 dc 08 00
	00 00		 mov	 DWORD PTR _sStickKeys$[ebp], 8

; 1266 : 		SystemParametersInfo( SPI_GETSTICKYKEYS, sizeof(sStickKeys), &sStickKeys, 0 );

  004b3	6a 00		 push	 0
  004b5	8d 45 dc	 lea	 eax, DWORD PTR _sStickKeys$[ebp]
  004b8	50		 push	 eax
  004b9	6a 08		 push	 8
  004bb	6a 3a		 push	 58			; 0000003aH
  004bd	ff 15 00 00 00
	00		 call	 DWORD PTR __imp__SystemParametersInfoA@16

; 1267 : 		m_dwStickyKeysFlag = sStickKeys.dwFlags;

  004c3	8b 45 e8	 mov	 eax, DWORD PTR _this$[ebp]
  004c6	8b 4d e0	 mov	 ecx, DWORD PTR _sStickKeys$[ebp+4]
  004c9	89 88 70 eb 01
	00		 mov	 DWORD PTR [eax+125808], ecx

; 1268 : 
; 1269 : 		// 
; 1270 : 		sStickKeys.dwFlags &= ~(SKF_AVAILABLE|SKF_HOTKEYACTIVE);

  004cf	8b 45 e0	 mov	 eax, DWORD PTR _sStickKeys$[ebp+4]
  004d2	83 e0 f9	 and	 eax, -7			; fffffff9H
  004d5	89 45 e0	 mov	 DWORD PTR _sStickKeys$[ebp+4], eax

; 1271 : 		SystemParametersInfo( SPI_SETSTICKYKEYS, sizeof(sStickKeys), &sStickKeys, 0 );

  004d8	6a 00		 push	 0
  004da	8d 45 dc	 lea	 eax, DWORD PTR _sStickKeys$[ebp]
  004dd	50		 push	 eax
  004de	6a 08		 push	 8
  004e0	6a 3b		 push	 59			; 0000003bH
  004e2	ff 15 00 00 00
	00		 call	 DWORD PTR __imp__SystemParametersInfoA@16

; 1272 : 
; 1273 : 		// SphereMap
; 1274 : 		CGrannyMaterial::CreateSphereMap(0, "d:/ymir work/special/spheremap.jpg");

  004e8	68 00 00 00 00	 push	 OFFSET ??_C@_0CD@KIIBIHOG@d?3?1ymir?5work?1special?1spheremap?4@
  004ed	6a 00		 push	 0
  004ef	e8 00 00 00 00	 call	 ?CreateSphereMap@CGrannyMaterial@@SAXIPBD@Z ; CGrannyMaterial::CreateSphereMap
  004f4	59		 pop	 ecx
  004f5	59		 pop	 ecx

; 1275 : 		CGrannyMaterial::CreateSphereMap(1, "d:/ymir work/special/spheremap01.jpg");

  004f6	68 00 00 00 00	 push	 OFFSET ??_C@_0CF@CBFEMJII@d?3?1ymir?5work?1special?1spheremap0@
  004fb	6a 01		 push	 1
  004fd	e8 00 00 00 00	 call	 ?CreateSphereMap@CGrannyMaterial@@SAXIPBD@Z ; CGrannyMaterial::CreateSphereMap
  00502	59		 pop	 ecx
  00503	59		 pop	 ecx

; 1276 : 		return true;

  00504	b0 01		 mov	 al, 1
$LN1@Create:

; 1277 : }

  00506	5f		 pop	 edi
  00507	5e		 pop	 esi
  00508	5b		 pop	 ebx
  00509	8b 4d fc	 mov	 ecx, DWORD PTR __$ArrayPad$[ebp]
  0050c	33 cd		 xor	 ecx, ebp
  0050e	e8 00 00 00 00	 call	 @__security_check_cookie@4
  00513	c9		 leave
  00514	c2 14 00	 ret	 20			; 00000014H
?Create@CPythonApplication@@QAE_NPAU_object@@PBDHHH@Z ENDP ; CPythonApplication::Create
_TEXT	ENDS
; Function compile flags: /Odspy
; File D:\Metin2 Server Files\mainline\SRC_2014\Metin2Client\UserInterface\PythonApplication.cpp
;	COMDAT ?SkipRenderBuffering@CPythonApplication@@UAEXK@Z
_TEXT	SEGMENT
_this$ = -4						; size = 4
_dwSleepMSec$ = 8					; size = 4
?SkipRenderBuffering@CPythonApplication@@UAEXK@Z PROC	; CPythonApplication::SkipRenderBuffering, COMDAT
; _this$ = ecx

; 395  : {

  00000	55		 push	 ebp
  00001	8b ec		 mov	 ebp, esp
  00003	51		 push	 ecx
  00004	89 4d fc	 mov	 DWORD PTR _this$[ebp], ecx

; 396  : 	m_dwBufSleepSkipTime=ELTimer_GetMSec()+dwSleepMSec;

  00007	e8 00 00 00 00	 call	 ?ELTimer_GetMSec@@YAKXZ	; ELTimer_GetMSec
  0000c	03 45 08	 add	 eax, DWORD PTR _dwSleepMSec$[ebp]
  0000f	8b 4d fc	 mov	 ecx, DWORD PTR _this$[ebp]
  00012	89 81 54 eb 01
	00		 mov	 DWORD PTR [ecx+125780], eax

; 397  : }

  00018	c9		 leave
  00019	c2 04 00	 ret	 4
?SkipRenderBuffering@CPythonApplication@@UAEXK@Z ENDP	; CPythonApplication::SkipRenderBuffering
_TEXT	ENDS
; Function compile flags: /Odspy
; File D:\Metin2 Server Files\mainline\SRC_2014\Metin2Client\UserInterface\PythonApplication.cpp
;	COMDAT ?SetFrameSkip@CPythonApplication@@QAEX_N@Z
_TEXT	SEGMENT
_this$ = -4						; size = 4
_isEnable$ = 8						; size = 1
?SetFrameSkip@CPythonApplication@@QAEX_N@Z PROC		; CPythonApplication::SetFrameSkip, COMDAT
; _this$ = ecx

; 116  : {

  00000	55		 push	 ebp
  00001	8b ec		 mov	 ebp, esp
  00003	51		 push	 ecx
  00004	89 4d fc	 mov	 DWORD PTR _this$[ebp], ecx

; 117  : 	if (isEnable)

  00007	0f b6 45 08	 movzx	 eax, BYTE PTR _isEnable$[ebp]
  0000b	85 c0		 test	 eax, eax
  0000d	74 0c		 je	 SHORT $LN2@SetFrameSk

; 118  : 		m_isFrameSkipDisable=false;

  0000f	8b 45 fc	 mov	 eax, DWORD PTR _this$[ebp]
  00012	c6 80 49 eb 01
	00 00		 mov	 BYTE PTR [eax+125769], 0
  00019	eb 0a		 jmp	 SHORT $LN1@SetFrameSk
$LN2@SetFrameSk:

; 119  : 	else
; 120  : 		m_isFrameSkipDisable=true;

  0001b	8b 45 fc	 mov	 eax, DWORD PTR _this$[ebp]
  0001e	c6 80 49 eb 01
	00 01		 mov	 BYTE PTR [eax+125769], 1
$LN1@SetFrameSk:

; 121  : }

  00025	c9		 leave
  00026	c2 04 00	 ret	 4
?SetFrameSkip@CPythonApplication@@QAEX_N@Z ENDP		; CPythonApplication::SetFrameSkip
_TEXT	ENDS
; Function compile flags: /Odspy
; File D:\Metin2 Server Files\mainline\SRC_2014\Metin2Client\UserInterface\PythonApplication.cpp
;	COMDAT ?SetMinFog@CPythonApplication@@QAEXM@Z
_TEXT	SEGMENT
_this$ = -4						; size = 4
_fMinFog$ = 8						; size = 4
?SetMinFog@CPythonApplication@@QAEXM@Z PROC		; CPythonApplication::SetMinFog, COMDAT
; _this$ = ecx

; 111  : {

  00000	55		 push	 ebp
  00001	8b ec		 mov	 ebp, esp
  00003	51		 push	 ecx
  00004	89 4d fc	 mov	 DWORD PTR _this$[ebp], ecx

; 112  : 	MIN_FOG = fMinFog;

  00007	f3 0f 10 45 08	 movss	 xmm0, DWORD PTR _fMinFog$[ebp]
  0000c	f3 0f 11 05 00
	00 00 00	 movss	 DWORD PTR ?MIN_FOG@@3MA, xmm0

; 113  : }

  00014	c9		 leave
  00015	c2 04 00	 ret	 4
?SetMinFog@CPythonApplication@@QAEXM@Z ENDP		; CPythonApplication::SetMinFog
_TEXT	ENDS
; Function compile flags: /Odspy
; File D:\Metin2 Server Files\mainline\SRC_2014\Metin2Client\UserInterface\PythonApplication.cpp
;	COMDAT ?Abort@CPythonApplication@@QAEXXZ
_TEXT	SEGMENT
_this$ = -4						; size = 4
?Abort@CPythonApplication@@QAEXXZ PROC			; CPythonApplication::Abort, COMDAT
; _this$ = ecx

; 154  : {

  00000	55		 push	 ebp
  00001	8b ec		 mov	 ebp, esp
  00003	51		 push	 ecx
  00004	89 4d fc	 mov	 DWORD PTR _this$[ebp], ecx

; 155  : 	TraceError("============================================================================================================");

  00007	68 00 00 00 00	 push	 OFFSET ??_C@_0GN@LLBDNFAM@?$DN?$DN?$DN?$DN?$DN?$DN?$DN?$DN?$DN?$DN?$DN?$DN?$DN?$DN?$DN?$DN?$DN?$DN?$DN?$DN?$DN?$DN?$DN?$DN?$DN?$DN?$DN?$DN?$DN?$DN?$DN@
  0000c	e8 00 00 00 00	 call	 ?TraceError@@YAXPBDZZ	; TraceError
  00011	59		 pop	 ecx

; 156  : 	TraceError("Abort!!!!\n\n");

  00012	68 00 00 00 00	 push	 OFFSET ??_C@_0M@EHJKIBDK@Abort?$CB?$CB?$CB?$CB?6?6@
  00017	e8 00 00 00 00	 call	 ?TraceError@@YAXPBDZZ	; TraceError
  0001c	59		 pop	 ecx

; 157  : 
; 158  : 	PostQuitMessage(0);

  0001d	6a 00		 push	 0
  0001f	ff 15 00 00 00
	00		 call	 DWORD PTR __imp__PostQuitMessage@4

; 159  : }

  00025	c9		 leave
  00026	c3		 ret	 0
?Abort@CPythonApplication@@QAEXXZ ENDP			; CPythonApplication::Abort
_TEXT	ENDS
; Function compile flags: /Odspy
; File D:\Metin2 Server Files\mainline\SRC_2014\Metin2Client\UserInterface\PythonApplication.cpp
;	COMDAT ?Exit@CPythonApplication@@QAEXXZ
_TEXT	SEGMENT
_this$ = -4						; size = 4
?Exit@CPythonApplication@@QAEXXZ PROC			; CPythonApplication::Exit, COMDAT
; _this$ = ecx

; 162  : {

  00000	55		 push	 ebp
  00001	8b ec		 mov	 ebp, esp
  00003	51		 push	 ecx
  00004	89 4d fc	 mov	 DWORD PTR _this$[ebp], ecx

; 163  : 	PostQuitMessage(0);

  00007	6a 00		 push	 0
  00009	ff 15 00 00 00
	00		 call	 DWORD PTR __imp__PostQuitMessage@4

; 164  : }

  0000f	c9		 leave
  00010	c3		 ret	 0
?Exit@CPythonApplication@@QAEXXZ ENDP			; CPythonApplication::Exit
_TEXT	ENDS
; Function compile flags: /Odspy
; File D:\Metin2 Server Files\mainline\SRC_2014\Metin2Client\UserInterface\PythonApplication.cpp
;	COMDAT ?Clear@CPythonApplication@@QAEXXZ
_TEXT	SEGMENT
_this$ = -4						; size = 4
?Clear@CPythonApplication@@QAEXXZ PROC			; CPythonApplication::Clear, COMDAT
; _this$ = ecx

; 1378 : {

  00000	55		 push	 ebp
  00001	8b ec		 mov	 ebp, esp
  00003	51		 push	 ecx
  00004	89 4d fc	 mov	 DWORD PTR _this$[ebp], ecx

; 1379 : 	m_pySystem.Clear();

  00007	8b 4d fc	 mov	 ecx, DWORD PTR _this$[ebp]
  0000a	81 c1 28 c3 01
	00		 add	 ecx, 115496		; 0001c328H
  00010	e8 00 00 00 00	 call	 ?Clear@CPythonSystem@@QAEXXZ ; CPythonSystem::Clear

; 1380 : }

  00015	c9		 leave
  00016	c3		 ret	 0
?Clear@CPythonApplication@@QAEXXZ ENDP			; CPythonApplication::Clear
_TEXT	ENDS
; Function compile flags: /Odspy
; File D:\Metin2 Server Files\mainline\SRC_2014\Metin2Client\UserInterface\PythonApplication.cpp
;	COMDAT ?Destroy@CPythonApplication@@QAEXXZ
_TEXT	SEGMENT
_sStickKeys$ = -12					; size = 8
_this$ = -4						; size = 4
?Destroy@CPythonApplication@@QAEXXZ PROC		; CPythonApplication::Destroy, COMDAT
; _this$ = ecx

; 1383 : {

  00000	55		 push	 ebp
  00001	8b ec		 mov	 ebp, esp
  00003	83 ec 0c	 sub	 esp, 12			; 0000000cH
  00006	89 4d fc	 mov	 DWORD PTR _this$[ebp], ecx

; 1384 : 	WebBrowser_Destroy();

  00009	e8 00 00 00 00	 call	 _WebBrowser_Destroy

; 1385 : 
; 1386 : 	// SphereMap
; 1387 : 	CGrannyMaterial::DestroySphereMap();

  0000e	e8 00 00 00 00	 call	 ?DestroySphereMap@CGrannyMaterial@@SAXXZ ; CGrannyMaterial::DestroySphereMap

; 1388 : 
; 1389 : 	m_kWndMgr.Destroy();

  00013	8b 4d fc	 mov	 ecx, DWORD PTR _this$[ebp]
  00016	81 c1 10 02 00
	00		 add	 ecx, 528		; 00000210H
  0001c	e8 00 00 00 00	 call	 ?Destroy@CWindowManager@UI@@QAEXXZ ; UI::CWindowManager::Destroy

; 1390 : 
; 1391 : 	CPythonSystem::Instance().SaveConfig();

  00021	8b 0d 00 00 00
	00		 mov	 ecx, DWORD PTR ?ms_singleton@?$CSingleton@VCPythonSystem@@@@0PAVCPythonSystem@@A ; CSingleton<CPythonSystem>::ms_singleton
  00027	e8 00 00 00 00	 call	 ?SaveConfig@CPythonSystem@@QAE_NXZ ; CPythonSystem::SaveConfig

; 1392 : 
; 1393 : 	DestroyCollisionInstanceSystem();

  0002c	e8 00 00 00 00	 call	 ?DestroyCollisionInstanceSystem@@YAXXZ ; DestroyCollisionInstanceSystem

; 1394 : 
; 1395 : 	m_pySystem.SaveInterfaceStatus();

  00031	8b 4d fc	 mov	 ecx, DWORD PTR _this$[ebp]
  00034	81 c1 28 c3 01
	00		 add	 ecx, 115496		; 0001c328H
  0003a	e8 00 00 00 00	 call	 ?SaveInterfaceStatus@CPythonSystem@@QAEXXZ ; CPythonSystem::SaveInterfaceStatus

; 1396 : 
; 1397 : 	m_pyEventManager.Destroy();	

  0003f	8b 4d fc	 mov	 ecx, DWORD PTR _this$[ebp]
  00042	81 c1 cc a8 01
	00		 add	 ecx, 108748		; 0001a8ccH
  00048	e8 00 00 00 00	 call	 ?Destroy@CPythonEventManager@@QAEXXZ ; CPythonEventManager::Destroy

; 1398 : 	m_FlyingManager.Destroy();

  0004d	8b 4d fc	 mov	 ecx, DWORD PTR _this$[ebp]
  00050	81 c1 5c 01 00
	00		 add	 ecx, 348		; 0000015cH
  00056	e8 00 00 00 00	 call	 ?Destroy@CFlyingManager@@QAEXXZ ; CFlyingManager::Destroy

; 1399 : 
; 1400 : 	m_pyMiniMap.Destroy();

  0005b	8b 4d fc	 mov	 ecx, DWORD PTR _this$[ebp]
  0005e	81 c1 94 9c 01
	00		 add	 ecx, 105620		; 00019c94H
  00064	e8 00 00 00 00	 call	 ?Destroy@CPythonMiniMap@@QAEXXZ ; CPythonMiniMap::Destroy

; 1401 : 
; 1402 : 	m_pyTextTail.Destroy();

  00069	8b 4d fc	 mov	 ecx, DWORD PTR _this$[ebp]
  0006c	81 c1 38 9c 01
	00		 add	 ecx, 105528		; 00019c38H
  00072	e8 00 00 00 00	 call	 ?Destroy@CPythonTextTail@@QAEXXZ ; CPythonTextTail::Destroy

; 1403 : 	m_pyChat.Destroy();	

  00077	8b 4d fc	 mov	 ecx, DWORD PTR _this$[ebp]
  0007a	81 c1 64 9b 01
	00		 add	 ecx, 105316		; 00019b64H
  00080	e8 00 00 00 00	 call	 ?Destroy@CPythonChat@@QAEXXZ ; CPythonChat::Destroy

; 1404 : 	m_kChrMgr.Destroy();

  00085	8b 4d fc	 mov	 ecx, DWORD PTR _this$[ebp]
  00088	81 c1 dc 02 00
	00		 add	 ecx, 732		; 000002dcH
  0008e	8b 45 fc	 mov	 eax, DWORD PTR _this$[ebp]
  00091	8b 80 dc 02 00
	00		 mov	 eax, DWORD PTR [eax+732]
  00097	ff 50 04	 call	 DWORD PTR [eax+4]

; 1405 : 	m_RaceManager.Destroy();

  0009a	8b 4d fc	 mov	 ecx, DWORD PTR _this$[ebp]
  0009d	81 c1 80 01 00
	00		 add	 ecx, 384		; 00000180H
  000a3	e8 00 00 00 00	 call	 ?Destroy@CRaceManager@@QAEXXZ ; CRaceManager::Destroy

; 1406 : 
; 1407 : 	m_pyItem.Destroy();

  000a8	8b 4d fc	 mov	 ecx, DWORD PTR _this$[ebp]
  000ab	81 c1 e0 81 01
	00		 add	 ecx, 98784		; 000181e0H
  000b1	e8 00 00 00 00	 call	 ?Destroy@CPythonItem@@QAEXXZ ; CPythonItem::Destroy

; 1408 : 	m_kItemMgr.Destroy();

  000b6	8b 4d fc	 mov	 ecx, DWORD PTR _this$[ebp]
  000b9	81 c1 cc 01 00
	00		 add	 ecx, 460		; 000001ccH
  000bf	e8 00 00 00 00	 call	 ?Destroy@CItemManager@@QAEXXZ ; CItemManager::Destroy

; 1409 : 
; 1410 : 	m_pyBackground.Destroy();

  000c4	8b 4d fc	 mov	 ecx, DWORD PTR _this$[ebp]
  000c7	81 c1 4c a9 01
	00		 add	 ecx, 108876		; 0001a94cH
  000cd	e8 00 00 00 00	 call	 ?Destroy@CPythonBackground@@QAEXXZ ; CPythonBackground::Destroy

; 1411 : 
; 1412 : 	m_kEftMgr.Destroy();

  000d2	8b 4d fc	 mov	 ecx, DWORD PTR _this$[ebp]
  000d5	81 c1 b0 02 00
	00		 add	 ecx, 688		; 000002b0H
  000db	e8 00 00 00 00	 call	 ?Destroy@CEffectManager@@QAEXXZ ; CEffectManager::Destroy

; 1413 : 	m_LightManager.Destroy();

  000e0	8b 4d fc	 mov	 ecx, DWORD PTR _this$[ebp]
  000e3	83 c1 7c	 add	 ecx, 124		; 0000007cH
  000e6	e8 00 00 00 00	 call	 ?Destroy@CLightManager@@QAEXXZ ; CLightManager::Destroy

; 1414 : 
; 1415 : 	// DEFAULT_FONT
; 1416 : 	DefaultFont_Cleanup();

  000eb	e8 00 00 00 00	 call	 ?DefaultFont_Cleanup@@YAXXZ ; DefaultFont_Cleanup

; 1417 : 	// END_OF_DEFAULT_FONT
; 1418 : 
; 1419 : 	GrannyDestroySharedDeformBuffer();

  000f0	e8 00 00 00 00	 call	 ?GrannyDestroySharedDeformBuffer@@YAXXZ ; GrannyDestroySharedDeformBuffer

; 1420 : 
; 1421 : 	m_pyGraphic.Destroy();

  000f5	8b 4d fc	 mov	 ecx, DWORD PTR _this$[ebp]
  000f8	81 c1 9c 07 00
	00		 add	 ecx, 1948		; 0000079cH
  000fe	e8 00 00 00 00	 call	 ?Destroy@CPythonGraphic@@QAEXXZ ; CPythonGraphic::Destroy

; 1422 : 	//m_pyNetworkDatagram.Destroy();	
; 1423 : 
; 1424 : 	m_pyRes.Destroy();

  00103	8b 4d fc	 mov	 ecx, DWORD PTR _this$[ebp]
  00106	81 c1 a0 bf 01
	00		 add	 ecx, 114592		; 0001bfa0H
  0010c	e8 00 00 00 00	 call	 ?Destroy@CPythonResource@@QAEXXZ ; CPythonResource::Destroy

; 1425 : 
; 1426 : 	m_kGuildMarkDownloader.Disconnect();

  00111	8b 4d fc	 mov	 ecx, DWORD PTR _this$[ebp]
  00114	81 c1 04 c1 01
	00		 add	 ecx, 114948		; 0001c104H
  0011a	e8 00 00 00 00	 call	 ?Disconnect@CNetworkStream@@QAEXXZ ; CNetworkStream::Disconnect

; 1427 : 
; 1428 : 	CGrannyModelInstance::DestroySystem();

  0011f	e8 00 00 00 00	 call	 ?DestroySystem@CGrannyModelInstance@@SAXXZ ; CGrannyModelInstance::DestroySystem

; 1429 : 	CGraphicImageInstance::DestroySystem();

  00124	e8 00 00 00 00	 call	 ?DestroySystem@CGraphicImageInstance@@SAXXZ ; CGraphicImageInstance::DestroySystem

; 1430 : 
; 1431 : 
; 1432 : 	m_SoundManager.Destroy();

  00129	8b 4d fc	 mov	 ecx, DWORD PTR _this$[ebp]
  0012c	81 c1 e8 00 00
	00		 add	 ecx, 232		; 000000e8H
  00132	e8 00 00 00 00	 call	 ?Destroy@CSoundManager@@QAEXXZ ; CSoundManager::Destroy

; 1433 : 	m_grpDevice.Destroy();

  00137	8b 4d fc	 mov	 ecx, DWORD PTR _this$[ebp]
  0013a	81 c1 0c c3 01
	00		 add	 ecx, 115468		; 0001c30cH
  00140	e8 00 00 00 00	 call	 ?Destroy@CGraphicDevice@@QAEXXZ ; CGraphicDevice::Destroy

; 1434 : 
; 1435 : 	// FIXME :    - [levites]
; 1436 : 	//CSpeedTreeForestDirectX8::Instance().Clear();
; 1437 : 
; 1438 : 	CAttributeInstance::DestroySystem();

  00145	e8 00 00 00 00	 call	 ?DestroySystem@CAttributeInstance@@SAXXZ ; CAttributeInstance::DestroySystem

; 1439 : 	CTextFileLoader::DestroySystem();

  0014a	e8 00 00 00 00	 call	 ?DestroySystem@CTextFileLoader@@SAXXZ ; CTextFileLoader::DestroySystem

; 1440 : 	DestroyCursors();

  0014f	8b 4d fc	 mov	 ecx, DWORD PTR _this$[ebp]
  00152	e8 00 00 00 00	 call	 ?DestroyCursors@CPythonApplication@@QAEXXZ ; CPythonApplication::DestroyCursors

; 1441 : 
; 1442 : 	CMSApplication::Destroy();

  00157	8b 4d fc	 mov	 ecx, DWORD PTR _this$[ebp]
  0015a	e8 00 00 00 00	 call	 ?Destroy@CMSWindow@@QAEXXZ ; CMSWindow::Destroy

; 1443 : 
; 1444 : 	STICKYKEYS sStickKeys;
; 1445 : 	memset(&sStickKeys, 0, sizeof(sStickKeys));

  0015f	6a 08		 push	 8
  00161	6a 00		 push	 0
  00163	8d 45 f4	 lea	 eax, DWORD PTR _sStickKeys$[ebp]
  00166	50		 push	 eax
  00167	e8 00 00 00 00	 call	 _memset
  0016c	83 c4 0c	 add	 esp, 12			; 0000000cH

; 1446 : 	sStickKeys.cbSize = sizeof(sStickKeys);

  0016f	c7 45 f4 08 00
	00 00		 mov	 DWORD PTR _sStickKeys$[ebp], 8

; 1447 : 	sStickKeys.dwFlags = m_dwStickyKeysFlag;

  00176	8b 45 fc	 mov	 eax, DWORD PTR _this$[ebp]
  00179	8b 80 70 eb 01
	00		 mov	 eax, DWORD PTR [eax+125808]
  0017f	89 45 f8	 mov	 DWORD PTR _sStickKeys$[ebp+4], eax

; 1448 : 	SystemParametersInfo( SPI_SETSTICKYKEYS, sizeof(sStickKeys), &sStickKeys, 0 );

  00182	6a 00		 push	 0
  00184	8d 45 f4	 lea	 eax, DWORD PTR _sStickKeys$[ebp]
  00187	50		 push	 eax
  00188	6a 08		 push	 8
  0018a	6a 3b		 push	 59			; 0000003bH
  0018c	ff 15 00 00 00
	00		 call	 DWORD PTR __imp__SystemParametersInfoA@16

; 1449 : }

  00192	c9		 leave
  00193	c3		 ret	 0
?Destroy@CPythonApplication@@QAEXXZ ENDP		; CPythonApplication::Destroy
_TEXT	ENDS
; Function compile flags: /Odspy
; File D:\Metin2 Server Files\mainline\SRC_2014\Metin2Client\UserInterface\PythonApplication.cpp
;	COMDAT ?Loop@CPythonApplication@@QAEXXZ
_TEXT	SEGMENT
_this$ = -4						; size = 4
?Loop@CPythonApplication@@QAEXXZ PROC			; CPythonApplication::Loop, COMDAT
; _this$ = ecx

; 981  : {	

  00000	55		 push	 ebp
  00001	8b ec		 mov	 ebp, esp
  00003	51		 push	 ecx
  00004	89 4d fc	 mov	 DWORD PTR _this$[ebp], ecx
$LN2@Loop:

; 982  : 	while (1)

  00007	33 c0		 xor	 eax, eax
  00009	40		 inc	 eax
  0000a	74 43		 je	 SHORT $LN1@Loop

; 983  : 	{	
; 984  : 		if (IsMessage())

  0000c	8b 4d fc	 mov	 ecx, DWORD PTR _this$[ebp]
  0000f	e8 00 00 00 00	 call	 ?IsMessage@CMSApplication@@QAE_NXZ ; CMSApplication::IsMessage
  00014	0f b6 c0	 movzx	 eax, al
  00017	85 c0		 test	 eax, eax
  00019	74 13		 je	 SHORT $LN4@Loop

; 985  : 		{
; 986  : 			if (!MessageProcess())

  0001b	8b 4d fc	 mov	 ecx, DWORD PTR _this$[ebp]
  0001e	e8 00 00 00 00	 call	 ?MessageProcess@CMSApplication@@QAE_NXZ ; CMSApplication::MessageProcess
  00023	0f b6 c0	 movzx	 eax, al
  00026	85 c0		 test	 eax, eax
  00028	75 02		 jne	 SHORT $LN6@Loop

; 987  : 				break;

  0002a	eb 23		 jmp	 SHORT $LN1@Loop
$LN6@Loop:

; 988  : 		}

  0002c	eb 1f		 jmp	 SHORT $LN5@Loop
$LN4@Loop:

; 989  : 		else
; 990  : 		{
; 991  : 			if (!Process())

  0002e	8b 4d fc	 mov	 ecx, DWORD PTR _this$[ebp]
  00031	e8 00 00 00 00	 call	 ?Process@CPythonApplication@@QAE_NXZ ; CPythonApplication::Process
  00036	0f b6 c0	 movzx	 eax, al
  00039	85 c0		 test	 eax, eax
  0003b	75 02		 jne	 SHORT $LN7@Loop

; 992  : 				break;

  0003d	eb 10		 jmp	 SHORT $LN1@Loop
$LN7@Loop:

; 993  : 
; 994  : 			m_dwLastIdleTime=ELTimer_GetMSec();

  0003f	e8 00 00 00 00	 call	 ?ELTimer_GetMSec@@YAKXZ	; ELTimer_GetMSec
  00044	8b 4d fc	 mov	 ecx, DWORD PTR _this$[ebp]
  00047	89 81 44 ea 01
	00		 mov	 DWORD PTR [ecx+125508], eax
$LN5@Loop:

; 995  : 		}
; 996  : 	}

  0004d	eb b8		 jmp	 SHORT $LN2@Loop
$LN1@Loop:

; 997  : }

  0004f	c9		 leave
  00050	c3		 ret	 0
?Loop@CPythonApplication@@QAEXXZ ENDP			; CPythonApplication::Loop
_TEXT	ENDS
; Function compile flags: /Odspy
; File D:\Metin2 Server Files\mainline\SRC_2014\Metin2Client\UserInterface\PythonApplication.cpp
;	COMDAT ?GetMousePosition@CPythonApplication@@UAEXPAUtagPOINT@@@Z
_TEXT	SEGMENT
_this$ = -4						; size = 4
_ppt$ = 8						; size = 4
?GetMousePosition@CPythonApplication@@UAEXPAUtagPOINT@@@Z PROC ; CPythonApplication::GetMousePosition, COMDAT
; _this$ = ecx

; 106  : {

  00000	55		 push	 ebp
  00001	8b ec		 mov	 ebp, esp
  00003	51		 push	 ecx
  00004	89 4d fc	 mov	 DWORD PTR _this$[ebp], ecx

; 107  : 	CMSApplication::GetMousePosition(ppt);

  00007	ff 75 08	 push	 DWORD PTR _ppt$[ebp]
  0000a	8b 4d fc	 mov	 ecx, DWORD PTR _this$[ebp]
  0000d	83 e9 20	 sub	 ecx, 32			; 00000020H
  00010	e8 00 00 00 00	 call	 ?GetMousePosition@CMSWindow@@QAEXPAUtagPOINT@@@Z ; CMSWindow::GetMousePosition

; 108  : }

  00015	c9		 leave
  00016	c2 04 00	 ret	 4
?GetMousePosition@CPythonApplication@@UAEXPAUtagPOINT@@@Z ENDP ; CPythonApplication::GetMousePosition
_TEXT	ENDS
; Function compile flags: /Odspy
; File D:\Metin2 Server Files\mainline\SRC_2014\Metin2Client\UserInterface\PythonApplication.cpp
;	COMDAT ?GetInfo@CPythonApplication@@QAEXIPAV?$basic_string@DU?$char_traits@D@std@@V?$allocator@D@2@@std@@@Z
_TEXT	SEGMENT
_this$ = -8						; size = 4
tv64 = -4						; size = 4
_eInfo$ = 8						; size = 4
_pstInfo$ = 12						; size = 4
?GetInfo@CPythonApplication@@QAEXIPAV?$basic_string@DU?$char_traits@D@std@@V?$allocator@D@2@@std@@@Z PROC ; CPythonApplication::GetInfo, COMDAT
; _this$ = ecx

; 135  : {

  00000	55		 push	 ebp
  00001	8b ec		 mov	 ebp, esp
  00003	51		 push	 ecx
  00004	51		 push	 ecx
  00005	89 4d f8	 mov	 DWORD PTR _this$[ebp], ecx

; 136  : 	switch (eInfo)

  00008	8b 45 08	 mov	 eax, DWORD PTR _eInfo$[ebp]
  0000b	89 45 fc	 mov	 DWORD PTR tv64[ebp], eax
  0000e	83 7d fc 00	 cmp	 DWORD PTR tv64[ebp], 0
  00012	74 14		 je	 SHORT $LN4@GetInfo
  00014	83 7d fc 01	 cmp	 DWORD PTR tv64[ebp], 1
  00018	74 21		 je	 SHORT $LN5@GetInfo
  0001a	83 7d fc 02	 cmp	 DWORD PTR tv64[ebp], 2
  0001e	74 2e		 je	 SHORT $LN6@GetInfo
  00020	83 7d fc 03	 cmp	 DWORD PTR tv64[ebp], 3
  00024	74 3b		 je	 SHORT $LN7@GetInfo
  00026	eb 4a		 jmp	 SHORT $LN1@GetInfo
$LN4@GetInfo:

; 137  : 	{
; 138  : 	case INFO_ACTOR:
; 139  : 		m_kChrMgr.GetInfo(pstInfo);

  00028	ff 75 0c	 push	 DWORD PTR _pstInfo$[ebp]
  0002b	8b 4d f8	 mov	 ecx, DWORD PTR _this$[ebp]
  0002e	81 c1 d8 02 00
	00		 add	 ecx, 728		; 000002d8H
  00034	e8 00 00 00 00	 call	 ?GetInfo@CPythonCharacterManager@@QAEXPAV?$basic_string@DU?$char_traits@D@std@@V?$allocator@D@2@@std@@@Z ; CPythonCharacterManager::GetInfo

; 140  : 		break;

  00039	eb 37		 jmp	 SHORT $LN1@GetInfo
$LN5@GetInfo:

; 141  : 	case INFO_EFFECT:
; 142  : 		m_kEftMgr.GetInfo(pstInfo);			

  0003b	ff 75 0c	 push	 DWORD PTR _pstInfo$[ebp]
  0003e	8b 4d f8	 mov	 ecx, DWORD PTR _this$[ebp]
  00041	81 c1 b0 02 00
	00		 add	 ecx, 688		; 000002b0H
  00047	e8 00 00 00 00	 call	 ?GetInfo@CEffectManager@@QAEXPAV?$basic_string@DU?$char_traits@D@std@@V?$allocator@D@2@@std@@@Z ; CEffectManager::GetInfo

; 143  : 		break;

  0004c	eb 24		 jmp	 SHORT $LN1@GetInfo
$LN6@GetInfo:

; 144  : 	case INFO_ITEM:
; 145  : 		m_pyItem.GetInfo(pstInfo);

  0004e	ff 75 0c	 push	 DWORD PTR _pstInfo$[ebp]
  00051	8b 4d f8	 mov	 ecx, DWORD PTR _this$[ebp]
  00054	81 c1 e0 81 01
	00		 add	 ecx, 98784		; 000181e0H
  0005a	e8 00 00 00 00	 call	 ?GetInfo@CPythonItem@@QAEXPAV?$basic_string@DU?$char_traits@D@std@@V?$allocator@D@2@@std@@@Z ; CPythonItem::GetInfo

; 146  : 		break;

  0005f	eb 11		 jmp	 SHORT $LN1@GetInfo
$LN7@GetInfo:

; 147  : 	case INFO_TEXTTAIL:
; 148  : 		m_pyTextTail.GetInfo(pstInfo);

  00061	ff 75 0c	 push	 DWORD PTR _pstInfo$[ebp]
  00064	8b 4d f8	 mov	 ecx, DWORD PTR _this$[ebp]
  00067	81 c1 38 9c 01
	00		 add	 ecx, 105528		; 00019c38H
  0006d	e8 00 00 00 00	 call	 ?GetInfo@CPythonTextTail@@QAEXPAV?$basic_string@DU?$char_traits@D@std@@V?$allocator@D@2@@std@@@Z ; CPythonTextTail::GetInfo
$LN1@GetInfo:

; 149  : 		break;
; 150  : 	}
; 151  : }

  00072	c9		 leave
  00073	c2 08 00	 ret	 8
?GetInfo@CPythonApplication@@QAEXIPAV?$basic_string@DU?$char_traits@D@std@@V?$allocator@D@2@@std@@@Z ENDP ; CPythonApplication::GetInfo
_TEXT	ENDS
; Function compile flags: /Odspy
; File D:\Metin2 Server Files\mainline\SRC_2014\Metin2Client\UserInterface\PythonApplication.cpp
; File C:\Program Files (x86)\Windows Kits\10\Include\10.0.18362.0\ucrt\stdio.h
; File D:\Metin2 Server Files\mainline\SRC_2014\Metin2Client\UserInterface\PythonApplication.cpp
;	COMDAT ?NotifyHack@CPythonApplication@@QAAXPBDZZ
_TEXT	SEGMENT
tv88 = -128						; size = 4
__Format$ = -124					; size = 4
_args$ = -120						; size = 4
__Result$1 = -116					; size = 4
_szBuf$ = -112						; size = 1024
__$ArrayPad$ = 912					; size = 4
_this$ = 924						; size = 4
_c_szFormat$ = 928					; size = 4
?NotifyHack@CPythonApplication@@QAAXPBDZZ PROC		; CPythonApplication::NotifyHack, COMDAT

; 124  : {

  00000	55		 push	 ebp
  00001	8d ac 24 6c fc
	ff ff		 lea	 ebp, DWORD PTR [esp-916]
  00008	81 ec 14 04 00
	00		 sub	 esp, 1044		; 00000414H
  0000e	a1 00 00 00 00	 mov	 eax, DWORD PTR ___security_cookie
  00013	33 c5		 xor	 eax, ebp
  00015	89 85 90 03 00
	00		 mov	 DWORD PTR __$ArrayPad$[ebp], eax

; 125  : 	char szBuf[1024];
; 126  : 
; 127  : 	va_list args;
; 128  : 	va_start(args, c_szFormat);	

  0001b	8d 85 a4 03 00
	00		 lea	 eax, DWORD PTR _c_szFormat$[ebp+4]
  00021	89 45 88	 mov	 DWORD PTR _args$[ebp], eax

; 129  : 	_vsnprintf(szBuf, sizeof(szBuf), c_szFormat, args);

  00024	8b 85 a0 03 00
	00		 mov	 eax, DWORD PTR _c_szFormat$[ebp]
  0002a	89 45 84	 mov	 DWORD PTR __Format$[ebp], eax
; File C:\Program Files (x86)\Windows Kits\10\Include\10.0.18362.0\ucrt\stdio.h

; 1390 :         int const _Result = __stdio_common_vsprintf(

  0002d	ff 75 88	 push	 DWORD PTR _args$[ebp]
  00030	6a 00		 push	 0
  00032	ff 75 84	 push	 DWORD PTR __Format$[ebp]
  00035	68 00 04 00 00	 push	 1024			; 00000400H
  0003a	8d 45 90	 lea	 eax, DWORD PTR _szBuf$[ebp]
  0003d	50		 push	 eax
  0003e	e8 00 00 00 00	 call	 ___local_stdio_printf_options
  00043	8b 08		 mov	 ecx, DWORD PTR [eax]
  00045	83 c9 01	 or	 ecx, 1
  00048	8b 40 04	 mov	 eax, DWORD PTR [eax+4]
  0004b	50		 push	 eax
  0004c	51		 push	 ecx
  0004d	e8 00 00 00 00	 call	 ___stdio_common_vsprintf
  00052	83 c4 1c	 add	 esp, 28			; 0000001cH
  00055	89 45 8c	 mov	 DWORD PTR __Result$1[ebp], eax

; 1391 :             _CRT_INTERNAL_LOCAL_PRINTF_OPTIONS | _CRT_INTERNAL_PRINTF_LEGACY_VSPRINTF_NULL_TERMINATION,
; 1392 :             _Buffer, _BufferCount, _Format, _Locale, _ArgList);
; 1393 : 
; 1394 :         return _Result < 0 ? -1 : _Result;

  00058	83 7d 8c 00	 cmp	 DWORD PTR __Result$1[ebp], 0
  0005c	7d 06		 jge	 SHORT $LN7@NotifyHack
  0005e	83 4d 80 ff	 or	 DWORD PTR tv88[ebp], -1
  00062	eb 06		 jmp	 SHORT $LN3@NotifyHack
$LN7@NotifyHack:
  00064	8b 45 8c	 mov	 eax, DWORD PTR __Result$1[ebp]
  00067	89 45 80	 mov	 DWORD PTR tv88[ebp], eax
$LN3@NotifyHack:
; File D:\Metin2 Server Files\mainline\SRC_2014\Metin2Client\UserInterface\PythonApplication.cpp

; 130  : 	va_end(args);

  0006a	83 65 88 00	 and	 DWORD PTR _args$[ebp], 0

; 131  : 	m_pyNetworkStream.NotifyHack(szBuf);

  0006e	8d 45 90	 lea	 eax, DWORD PTR _szBuf$[ebp]
  00071	50		 push	 eax
  00072	8b 8d 9c 03 00
	00		 mov	 ecx, DWORD PTR _this$[ebp]
  00078	81 c1 40 08 00
	00		 add	 ecx, 2112		; 00000840H
  0007e	e8 00 00 00 00	 call	 ?NotifyHack@CPythonNetworkStream@@QAEXPBD@Z ; CPythonNetworkStream::NotifyHack

; 132  : }

  00083	8b 8d 90 03 00
	00		 mov	 ecx, DWORD PTR __$ArrayPad$[ebp]
  00089	33 cd		 xor	 ecx, ebp
  0008b	e8 00 00 00 00	 call	 @__security_check_cookie@4
  00090	81 c5 94 03 00
	00		 add	 ebp, 916		; 00000394H
  00096	c9		 leave
  00097	c3		 ret	 0
?NotifyHack@CPythonApplication@@QAAXPBDZZ ENDP		; CPythonApplication::NotifyHack
_TEXT	ENDS
; Function compile flags: /Odspy
; File D:\Metin2 Server Files\mainline\SRC_2014\Metin2Client\UserInterface\PythonApplication.cpp
; File C:\Program Files (x86)\Microsoft Visual Studio\2019\Community\VC\Tools\MSVC\14.28.29333\include\xstring
; File D:\Metin2 Server Files\mainline\SRC_2014\Metin2Client\UserInterface\PythonApplication.cpp
; File D:\Metin2 Server Files\mainline\SRC_2014\Metin2Client\UserInterface\MovieMan.h
; File D:\Metin2 Server Files\mainline\SRC_2014\Metin2Client\eterBase\Singleton.h
; File D:\Metin2 Server Files\mainline\SRC_2014\Metin2Client\UserInterface\PythonApplication.cpp
; File D:\Metin2 Server Files\mainline\SRC_2014\Metin2Client\UserInterface\AbstractApplication.h
; File D:\Metin2 Server Files\mainline\SRC_2014\Metin2Client\UserInterface\AbstractSingleton.h
; File D:\Metin2 Server Files\mainline\SRC_2014\Metin2Client\UserInterface\PythonApplication.cpp
;	COMDAT ??1CPythonApplication@@UAE@XZ
_TEXT	SEGMENT
_this$ = -12						; size = 4
_this$ = -8						; size = 4
_this$ = -4						; size = 4
??1CPythonApplication@@UAE@XZ PROC			; CPythonApplication::~CPythonApplication, COMDAT
; _this$ = ecx

; 102  : {

  00000	55		 push	 ebp
  00001	8b ec		 mov	 ebp, esp
  00003	83 ec 0c	 sub	 esp, 12			; 0000000cH
  00006	89 4d fc	 mov	 DWORD PTR _this$[ebp], ecx
  00009	8b 45 fc	 mov	 eax, DWORD PTR _this$[ebp]
  0000c	c7 00 00 00 00
	00		 mov	 DWORD PTR [eax], OFFSET ??_7CPythonApplication@@6BCMSApplication@@@
  00012	8b 45 fc	 mov	 eax, DWORD PTR _this$[ebp]
  00015	c7 40 1c 00 00
	00 00		 mov	 DWORD PTR [eax+28], OFFSET ??_7CPythonApplication@@6BCInputKeyboard@@@
  0001c	8b 45 fc	 mov	 eax, DWORD PTR _this$[ebp]
  0001f	c7 40 20 00 00
	00 00		 mov	 DWORD PTR [eax+32], OFFSET ??_7CPythonApplication@@6BIAbstractApplication@@@

; 103  : }

  00026	8b 4d fc	 mov	 ecx, DWORD PTR _this$[ebp]
  00029	81 c1 4c eb 01
	00		 add	 ecx, 125772		; 0001eb4cH
; File C:\Program Files (x86)\Microsoft Visual Studio\2019\Community\VC\Tools\MSVC\14.28.29333\include\xstring

; 2801 :         _Tidy_deallocate();

  0002f	e8 00 00 00 00	 call	 ?_Tidy_deallocate@?$basic_string@DU?$char_traits@D@std@@V?$allocator@D@2@@std@@AAEXXZ ; std::basic_string<char,std::char_traits<char>,std::allocator<char> >::_Tidy_deallocate
; File D:\Metin2 Server Files\mainline\SRC_2014\Metin2Client\UserInterface\PythonApplication.cpp

; 103  : }

  00034	8b 4d fc	 mov	 ecx, DWORD PTR _this$[ebp]
  00037	81 c1 30 eb 01
	00		 add	 ecx, 125744		; 0001eb30H
  0003d	e8 00 00 00 00	 call	 ??1?$_Tree@V?$_Tmap_traits@HPAXU?$less@H@std@@V?$allocator@U?$pair@$$CBHPAX@std@@@2@$0A@@std@@@std@@QAE@XZ ; std::_Tree<std::_Tmap_traits<int,void *,std::less<int>,std::allocator<std::pair<int const ,void *> >,0> >::~_Tree<std::_Tmap_traits<int,void *,std::less<int>,std::allocator<std::pair<int const ,void *> >,0> >
  00042	8b 4d fc	 mov	 ecx, DWORD PTR _this$[ebp]
  00045	81 c1 28 c3 01
	00		 add	 ecx, 115496		; 0001c328H
  0004b	e8 00 00 00 00	 call	 ??1CPythonSystem@@UAE@XZ ; CPythonSystem::~CPythonSystem
  00050	8b 4d fc	 mov	 ecx, DWORD PTR _this$[ebp]
  00053	81 c1 20 c3 01
	00		 add	 ecx, 115488		; 0001c320H
  00059	e8 00 00 00 00	 call	 ??1CNetworkDevice@@UAE@XZ ; CNetworkDevice::~CNetworkDevice
  0005e	8b 4d fc	 mov	 ecx, DWORD PTR _this$[ebp]
  00061	81 c1 0c c3 01
	00		 add	 ecx, 115468		; 0001c30cH
  00067	e8 00 00 00 00	 call	 ??1CGraphicDevice@@UAE@XZ ; CGraphicDevice::~CGraphicDevice
  0006c	8b 4d fc	 mov	 ecx, DWORD PTR _this$[ebp]
  0006f	81 c1 34 c2 01
	00		 add	 ecx, 115252		; 0001c234H
  00075	e8 00 00 00 00	 call	 ??1CAccountConnector@@UAE@XZ ; CAccountConnector::~CAccountConnector
  0007a	8b 4d fc	 mov	 ecx, DWORD PTR _this$[ebp]
  0007d	81 c1 b4 c1 01
	00		 add	 ecx, 115124		; 0001c1b4H
  00083	e8 00 00 00 00	 call	 ??1CGuildMarkUploader@@UAE@XZ ; CGuildMarkUploader::~CGuildMarkUploader
  00088	8b 4d fc	 mov	 ecx, DWORD PTR _this$[ebp]
  0008b	81 c1 04 c1 01
	00		 add	 ecx, 114948		; 0001c104H
  00091	e8 00 00 00 00	 call	 ??1CGuildMarkDownloader@@UAE@XZ ; CGuildMarkDownloader::~CGuildMarkDownloader
  00096	8b 4d fc	 mov	 ecx, DWORD PTR _this$[ebp]
  00099	81 c1 c8 c0 01
	00		 add	 ecx, 114888		; 0001c0c8H
  0009f	e8 00 00 00 00	 call	 ??1CGuildMarkManager@@UAE@XZ ; CGuildMarkManager::~CGuildMarkManager
  000a4	8b 4d fc	 mov	 ecx, DWORD PTR _this$[ebp]
  000a7	81 c1 30 c0 01
	00		 add	 ecx, 114736		; 0001c030H
  000ad	e8 00 00 00 00	 call	 ??1CPythonGuild@@UAE@XZ	; CPythonGuild::~CPythonGuild
  000b2	8b 4d fc	 mov	 ecx, DWORD PTR _this$[ebp]
  000b5	81 c1 10 c0 01
	00		 add	 ecx, 114704		; 0001c010H
  000bb	e8 00 00 00 00	 call	 ??1CPythonSafeBox@@UAE@XZ ; CPythonSafeBox::~CPythonSafeBox
  000c0	8b 4d fc	 mov	 ecx, DWORD PTR _this$[ebp]
  000c3	81 c1 f8 bf 01
	00		 add	 ecx, 114680		; 0001bff8H
  000c9	e8 00 00 00 00	 call	 ??1CPythonMessenger@@UAE@XZ ; CPythonMessenger::~CPythonMessenger
  000ce	8b 4d fc	 mov	 ecx, DWORD PTR _this$[ebp]
  000d1	81 c1 e8 bf 01
	00		 add	 ecx, 114664		; 0001bfe8H
  000d7	e8 00 00 00 00	 call	 ??1CPythonQuest@@UAE@XZ	; CPythonQuest::~CPythonQuest
  000dc	8b 4d fc	 mov	 ecx, DWORD PTR _this$[ebp]
  000df	81 c1 a0 bf 01
	00		 add	 ecx, 114592		; 0001bfa0H
  000e5	e8 00 00 00 00	 call	 ??1CPythonResource@@UAE@XZ ; CPythonResource::~CPythonResource
  000ea	8b 4d fc	 mov	 ecx, DWORD PTR _this$[ebp]
  000ed	81 c1 54 bf 01
	00		 add	 ecx, 114516		; 0001bf54H
  000f3	e8 00 00 00 00	 call	 ??1CPythonSkill@@UAE@XZ	; CPythonSkill::~CPythonSkill
  000f8	8b 4d fc	 mov	 ecx, DWORD PTR _this$[ebp]
  000fb	81 c1 4c a9 01
	00		 add	 ecx, 108876		; 0001a94cH
  00101	e8 00 00 00 00	 call	 ??1CPythonBackground@@UAE@XZ ; CPythonBackground::~CPythonBackground
  00106	8b 4d fc	 mov	 ecx, DWORD PTR _this$[ebp]
  00109	81 c1 cc a8 01
	00		 add	 ecx, 108748		; 0001a8ccH
  0010f	e8 00 00 00 00	 call	 ??1CPythonEventManager@@UAE@XZ ; CPythonEventManager::~CPythonEventManager
  00114	8b 4d fc	 mov	 ecx, DWORD PTR _this$[ebp]
  00117	81 c1 94 9c 01
	00		 add	 ecx, 105620		; 00019c94H
  0011d	e8 00 00 00 00	 call	 ??1CPythonMiniMap@@UAE@XZ ; CPythonMiniMap::~CPythonMiniMap
  00122	8b 4d fc	 mov	 ecx, DWORD PTR _this$[ebp]
  00125	81 c1 88 9c 01
	00		 add	 ecx, 105608		; 00019c88H
  0012b	e8 00 00 00 00	 call	 ??1CPythonNonPlayer@@UAE@XZ ; CPythonNonPlayer::~CPythonNonPlayer
  00130	8b 4d fc	 mov	 ecx, DWORD PTR _this$[ebp]
  00133	81 c1 38 9c 01
	00		 add	 ecx, 105528		; 00019c38H
  00139	e8 00 00 00 00	 call	 ??1CPythonTextTail@@UAE@XZ ; CPythonTextTail::~CPythonTextTail
  0013e	8b 4d fc	 mov	 ecx, DWORD PTR _this$[ebp]
  00141	81 c1 64 9b 01
	00		 add	 ecx, 105316		; 00019b64H
  00147	e8 00 00 00 00	 call	 ??1CPythonChat@@UAE@XZ	; CPythonChat::~CPythonChat
  0014c	8b 4d fc	 mov	 ecx, DWORD PTR _this$[ebp]
  0014f	81 c1 84 97 01
	00		 add	 ecx, 104324		; 00019784H
  00155	e8 00 00 00 00	 call	 ??1CPythonExchange@@UAE@XZ ; CPythonExchange::~CPythonExchange
  0015a	8b 4d fc	 mov	 ecx, DWORD PTR _this$[ebp]
  0015d	81 c1 ec 82 01
	00		 add	 ecx, 99052		; 000182ecH
  00163	e8 00 00 00 00	 call	 ??1CPythonShop@@UAE@XZ	; CPythonShop::~CPythonShop
  00168	8b 4d fc	 mov	 ecx, DWORD PTR _this$[ebp]
  0016b	81 c1 e0 81 01
	00		 add	 ecx, 98784		; 000181e0H
  00171	e8 00 00 00 00	 call	 ??1CPythonItem@@UAE@XZ	; CPythonItem::~CPythonItem
  00176	8b 4d fc	 mov	 ecx, DWORD PTR _this$[ebp]
  00179	81 c1 b4 79 01
	00		 add	 ecx, 96692		; 000179b4H
  0017f	e8 00 00 00 00	 call	 ??1CPythonIME@@UAE@XZ	; CPythonIME::~CPythonIME
  00184	8b 4d fc	 mov	 ecx, DWORD PTR _this$[ebp]
  00187	81 c1 90 81 00
	00		 add	 ecx, 33168		; 00008190H
  0018d	e8 00 00 00 00	 call	 ??1CPythonPlayer@@UAE@XZ ; CPythonPlayer::~CPythonPlayer
  00192	8b 4d fc	 mov	 ecx, DWORD PTR _this$[ebp]
  00195	81 c1 40 08 00
	00		 add	 ecx, 2112		; 00000840H
  0019b	e8 00 00 00 00	 call	 ??1CPythonNetworkStream@@UAE@XZ ; CPythonNetworkStream::~CPythonNetworkStream
  001a0	8b 4d fc	 mov	 ecx, DWORD PTR _this$[ebp]
  001a3	81 c1 9c 07 00
	00		 add	 ecx, 1948		; 0000079cH
  001a9	e8 00 00 00 00	 call	 ??1CPythonGraphic@@UAE@XZ ; CPythonGraphic::~CPythonGraphic
  001ae	8b 4d fc	 mov	 ecx, DWORD PTR _this$[ebp]
  001b1	81 c1 10 07 00
	00		 add	 ecx, 1808		; 00000710H
  001b7	e8 00 00 00 00	 call	 ??1CServerStateChecker@@UAE@XZ ; CServerStateChecker::~CServerStateChecker
  001bc	8b 4d fc	 mov	 ecx, DWORD PTR _this$[ebp]
  001bf	81 c1 d8 02 00
	00		 add	 ecx, 728		; 000002d8H
  001c5	e8 00 00 00 00	 call	 ??1CPythonCharacterManager@@UAE@XZ ; CPythonCharacterManager::~CPythonCharacterManager
  001ca	8b 4d fc	 mov	 ecx, DWORD PTR _this$[ebp]
  001cd	81 c1 b0 02 00
	00		 add	 ecx, 688		; 000002b0H
  001d3	e8 00 00 00 00	 call	 ??1CEffectManager@@UAE@XZ ; CEffectManager::~CEffectManager
  001d8	8b 4d fc	 mov	 ecx, DWORD PTR _this$[ebp]
  001db	81 c1 10 02 00
	00		 add	 ecx, 528		; 00000210H
  001e1	e8 00 00 00 00	 call	 ??1CWindowManager@UI@@UAE@XZ ; UI::CWindowManager::~CWindowManager
  001e6	8b 45 fc	 mov	 eax, DWORD PTR _this$[ebp]
  001e9	05 e8 01 00 00	 add	 eax, 488		; 000001e8H
  001ee	89 45 f8	 mov	 DWORD PTR _this$[ebp], eax
; File D:\Metin2 Server Files\mainline\SRC_2014\Metin2Client\UserInterface\MovieMan.h

; 36   : 	{

  001f1	8b 45 f8	 mov	 eax, DWORD PTR _this$[ebp]
  001f4	c7 00 00 00 00
	00		 mov	 DWORD PTR [eax], OFFSET ??_7CMovieMan@@6B@

; 37   : 		CoUninitialize();

  001fa	ff 15 00 00 00
	00		 call	 DWORD PTR __imp__CoUninitialize@0
; File D:\Metin2 Server Files\mainline\SRC_2014\Metin2Client\eterBase\Singleton.h

; 19   : 	{ 

  00200	8b 45 f8	 mov	 eax, DWORD PTR _this$[ebp]
  00203	c7 00 00 00 00
	00		 mov	 DWORD PTR [eax], OFFSET ??_7?$CSingleton@VCMovieMan@@@@6B@

; 20   : 		assert(ms_singleton);
; 21   : 		ms_singleton = 0; 

  00209	83 25 00 00 00
	00 00		 and	 DWORD PTR ?ms_singleton@?$CSingleton@VCMovieMan@@@@0PAVCMovieMan@@A, 0 ; CSingleton<CMovieMan>::ms_singleton
; File D:\Metin2 Server Files\mainline\SRC_2014\Metin2Client\UserInterface\PythonApplication.cpp

; 103  : }

  00210	8b 4d fc	 mov	 ecx, DWORD PTR _this$[ebp]
  00213	81 c1 cc 01 00
	00		 add	 ecx, 460		; 000001ccH
  00219	e8 00 00 00 00	 call	 ??1CItemManager@@UAE@XZ	; CItemManager::~CItemManager
  0021e	8b 4d fc	 mov	 ecx, DWORD PTR _this$[ebp]
  00221	81 c1 b8 01 00
	00		 add	 ecx, 440		; 000001b8H
  00227	e8 00 00 00 00	 call	 ??1CGameEventManager@@UAE@XZ ; CGameEventManager::~CGameEventManager
  0022c	8b 4d fc	 mov	 ecx, DWORD PTR _this$[ebp]
  0022f	81 c1 80 01 00
	00		 add	 ecx, 384		; 00000180H
  00235	e8 00 00 00 00	 call	 ??1CRaceManager@@UAE@XZ	; CRaceManager::~CRaceManager
  0023a	8b 4d fc	 mov	 ecx, DWORD PTR _this$[ebp]
  0023d	81 c1 5c 01 00
	00		 add	 ecx, 348		; 0000015cH
  00243	e8 00 00 00 00	 call	 ??1CFlyingManager@@UAE@XZ ; CFlyingManager::~CFlyingManager
  00248	8b 4d fc	 mov	 ecx, DWORD PTR _this$[ebp]
  0024b	81 c1 e8 00 00
	00		 add	 ecx, 232		; 000000e8H
  00251	e8 00 00 00 00	 call	 ??1CSoundManager@@UAE@XZ ; CSoundManager::~CSoundManager
  00256	8b 4d fc	 mov	 ecx, DWORD PTR _this$[ebp]
  00259	83 c1 7c	 add	 ecx, 124		; 0000007cH
  0025c	e8 00 00 00 00	 call	 ??1CLightManager@@UAE@XZ ; CLightManager::~CLightManager
  00261	8b 4d fc	 mov	 ecx, DWORD PTR _this$[ebp]
  00264	83 c1 60	 add	 ecx, 96			; 00000060H
  00267	e8 00 00 00 00	 call	 ??1CTimer@@UAE@XZ	; CTimer::~CTimer
  0026c	8b 45 fc	 mov	 eax, DWORD PTR _this$[ebp]
  0026f	83 c0 20	 add	 eax, 32			; 00000020H
  00272	89 45 f4	 mov	 DWORD PTR _this$[ebp], eax
; File D:\Metin2 Server Files\mainline\SRC_2014\Metin2Client\UserInterface\AbstractApplication.h

; 33   : 		virtual ~IAbstractApplication() {}

  00275	8b 45 f4	 mov	 eax, DWORD PTR _this$[ebp]
  00278	c7 00 00 00 00
	00		 mov	 DWORD PTR [eax], OFFSET ??_7IAbstractApplication@@6B@
; File D:\Metin2 Server Files\mainline\SRC_2014\Metin2Client\UserInterface\AbstractSingleton.h

; 17   : 	{ 

  0027e	8b 45 f4	 mov	 eax, DWORD PTR _this$[ebp]
  00281	c7 00 00 00 00
	00		 mov	 DWORD PTR [eax], OFFSET ??_7?$TAbstractSingleton@VIAbstractApplication@@@@6B@

; 18   : 		assert(ms_singleton);
; 19   : 		ms_singleton = 0; 

  00287	83 25 00 00 00
	00 00		 and	 DWORD PTR ?ms_singleton@?$TAbstractSingleton@VIAbstractApplication@@@@0PAVIAbstractApplication@@A, 0 ; TAbstractSingleton<IAbstractApplication>::ms_singleton
; File D:\Metin2 Server Files\mainline\SRC_2014\Metin2Client\UserInterface\PythonApplication.cpp

; 103  : }

  0028e	8b 4d fc	 mov	 ecx, DWORD PTR _this$[ebp]
  00291	83 c1 1c	 add	 ecx, 28			; 0000001cH
  00294	e8 00 00 00 00	 call	 ??1CInputKeyboard@@UAE@XZ ; CInputKeyboard::~CInputKeyboard
  00299	8b 4d fc	 mov	 ecx, DWORD PTR _this$[ebp]
  0029c	e8 00 00 00 00	 call	 ??1CMSApplication@@UAE@XZ ; CMSApplication::~CMSApplication
  002a1	c9		 leave
  002a2	c3		 ret	 0
??1CPythonApplication@@UAE@XZ ENDP			; CPythonApplication::~CPythonApplication
_TEXT	ENDS
; Function compile flags: /Odspy
; File D:\Metin2 Server Files\mainline\SRC_2014\Metin2Client\UserInterface\PythonApplication.cpp
; File D:\Metin2 Server Files\mainline\SRC_2014\Metin2Client\UserInterface\AbstractSingleton.h
; File D:\Metin2 Server Files\mainline\SRC_2014\Metin2Client\UserInterface\AbstractApplication.h
; File D:\Metin2 Server Files\mainline\SRC_2014\Metin2Client\UserInterface\PythonApplication.cpp
; File D:\Metin2 Server Files\mainline\SRC_2014\Metin2Client\UserInterface\AbstractApplication.h
; File D:\Metin2 Server Files\mainline\SRC_2014\Metin2Client\UserInterface\PythonApplication.cpp
; File D:\Metin2 Server Files\mainline\SRC_2014\Metin2Client\UserInterface\PythonApplication.h
; File D:\Metin2 Server Files\mainline\SRC_2014\Metin2Client\UserInterface\PythonApplication.cpp
; File C:\Program Files (x86)\Microsoft Visual Studio\2019\Community\VC\Tools\MSVC\14.28.29333\include\map
; File D:\Metin2 Server Files\mainline\SRC_2014\Metin2Client\UserInterface\PythonApplication.cpp
; File D:\Metin2 Server Files\mainline\SRC_2014\M2Data\include\d3dx8math.inl
; File D:\Metin2 Server Files\mainline\SRC_2014\Metin2Client\UserInterface\PythonApplication.cpp
; File D:\Metin2 Server Files\mainline\SRC_2014\Metin2Client\gamelib\FlyingObjectManager.h
; File D:\Metin2 Server Files\mainline\SRC_2014\Metin2Client\UserInterface\PythonApplication.cpp
;	COMDAT ??0CPythonApplication@@QAE@XZ
_TEXT	SEGMENT
_this$ = -56						; size = 4
_offset$2 = -52						; size = 4
_this$ = -48						; size = 4
_this$ = -44						; size = 4
_this$ = -40						; size = 4
$T3 = -33						; size = 1
_this$ = -32						; size = 4
$T4 = -28						; size = 12
__$ArrayPad$ = -16					; size = 4
__$EHRec$ = -12						; size = 12
??0CPythonApplication@@QAE@XZ PROC			; CPythonApplication::CPythonApplication, COMDAT
; _this$ = ecx

; 47   : {

  00000	55		 push	 ebp
  00001	8b ec		 mov	 ebp, esp
  00003	6a ff		 push	 -1
  00005	68 00 00 00 00	 push	 __ehhandler$??0CPythonApplication@@QAE@XZ
  0000a	64 a1 00 00 00
	00		 mov	 eax, DWORD PTR fs:0
  00010	50		 push	 eax
  00011	83 ec 2c	 sub	 esp, 44			; 0000002cH
  00014	a1 00 00 00 00	 mov	 eax, DWORD PTR ___security_cookie
  00019	33 c5		 xor	 eax, ebp
  0001b	89 45 f0	 mov	 DWORD PTR __$ArrayPad$[ebp], eax
  0001e	56		 push	 esi
  0001f	57		 push	 edi
  00020	50		 push	 eax
  00021	8d 45 f4	 lea	 eax, DWORD PTR __$EHRec$[ebp]
  00024	64 a3 00 00 00
	00		 mov	 DWORD PTR fs:0, eax
  0002a	89 4d e0	 mov	 DWORD PTR _this$[ebp], ecx
  0002d	8b 4d e0	 mov	 ecx, DWORD PTR _this$[ebp]
  00030	e8 00 00 00 00	 call	 ??0CMSApplication@@QAE@XZ ; CMSApplication::CMSApplication
  00035	83 65 fc 00	 and	 DWORD PTR __$EHRec$[ebp+8], 0
  00039	8b 4d e0	 mov	 ecx, DWORD PTR _this$[ebp]
  0003c	83 c1 1c	 add	 ecx, 28			; 0000001cH
  0003f	e8 00 00 00 00	 call	 ??0CInputKeyboard@@QAE@XZ ; CInputKeyboard::CInputKeyboard
  00044	c6 45 fc 01	 mov	 BYTE PTR __$EHRec$[ebp+8], 1
  00048	8b 45 e0	 mov	 eax, DWORD PTR _this$[ebp]
  0004b	83 c0 20	 add	 eax, 32			; 00000020H
  0004e	89 45 d8	 mov	 DWORD PTR _this$[ebp], eax
; File D:\Metin2 Server Files\mainline\SRC_2014\Metin2Client\UserInterface\AbstractSingleton.h

; 10   : 	{ 

  00051	8b 45 d8	 mov	 eax, DWORD PTR _this$[ebp]
  00054	c7 00 00 00 00
	00		 mov	 DWORD PTR [eax], OFFSET ??_7?$TAbstractSingleton@VIAbstractApplication@@@@6B@

; 11   : 		assert(!ms_singleton);
; 12   : 		int offset = (int) (T*) 1 - (int) (CSingleton <T>*) (T*) 1; 

  0005a	83 65 cc 00	 and	 DWORD PTR _offset$2[ebp], 0

; 13   : 		ms_singleton = (T*) ((int) this + offset);

  0005e	8b 45 d8	 mov	 eax, DWORD PTR _this$[ebp]
  00061	03 45 cc	 add	 eax, DWORD PTR _offset$2[ebp]
  00064	a3 00 00 00 00	 mov	 DWORD PTR ?ms_singleton@?$TAbstractSingleton@VIAbstractApplication@@@@0PAVIAbstractApplication@@A, eax ; TAbstractSingleton<IAbstractApplication>::ms_singleton
; File D:\Metin2 Server Files\mainline\SRC_2014\Metin2Client\UserInterface\AbstractApplication.h

; 32   : 		IAbstractApplication() {}

  00069	8b 45 d8	 mov	 eax, DWORD PTR _this$[ebp]
  0006c	c7 00 00 00 00
	00		 mov	 DWORD PTR [eax], OFFSET ??_7IAbstractApplication@@6B@
; File D:\Metin2 Server Files\mainline\SRC_2014\Metin2Client\UserInterface\PythonApplication.cpp

; 47   : {

  00072	c6 45 fc 02	 mov	 BYTE PTR __$EHRec$[ebp+8], 2
  00076	8b 45 e0	 mov	 eax, DWORD PTR _this$[ebp]
  00079	c7 00 00 00 00
	00		 mov	 DWORD PTR [eax], OFFSET ??_7CPythonApplication@@6BCMSApplication@@@
  0007f	8b 45 e0	 mov	 eax, DWORD PTR _this$[ebp]
  00082	c7 40 1c 00 00
	00 00		 mov	 DWORD PTR [eax+28], OFFSET ??_7CPythonApplication@@6BCInputKeyboard@@@
  00089	8b 45 e0	 mov	 eax, DWORD PTR _this$[ebp]
  0008c	c7 40 20 00 00
	00 00		 mov	 DWORD PTR [eax+32], OFFSET ??_7CPythonApplication@@6BIAbstractApplication@@@
  00093	8b 4d e0	 mov	 ecx, DWORD PTR _this$[ebp]
  00096	83 c1 60	 add	 ecx, 96			; 00000060H
  00099	e8 00 00 00 00	 call	 ??0CTimer@@QAE@XZ	; CTimer::CTimer
  0009e	c6 45 fc 03	 mov	 BYTE PTR __$EHRec$[ebp+8], 3
  000a2	8b 4d e0	 mov	 ecx, DWORD PTR _this$[ebp]
  000a5	83 c1 7c	 add	 ecx, 124		; 0000007cH
  000a8	e8 00 00 00 00	 call	 ??0CLightManager@@QAE@XZ ; CLightManager::CLightManager
  000ad	c6 45 fc 04	 mov	 BYTE PTR __$EHRec$[ebp+8], 4
  000b1	8b 4d e0	 mov	 ecx, DWORD PTR _this$[ebp]
  000b4	81 c1 e8 00 00
	00		 add	 ecx, 232		; 000000e8H
  000ba	e8 00 00 00 00	 call	 ??0CSoundManager@@QAE@XZ ; CSoundManager::CSoundManager
  000bf	c6 45 fc 05	 mov	 BYTE PTR __$EHRec$[ebp+8], 5
  000c3	8b 4d e0	 mov	 ecx, DWORD PTR _this$[ebp]
  000c6	81 c1 5c 01 00
	00		 add	 ecx, 348		; 0000015cH
  000cc	e8 00 00 00 00	 call	 ??0CFlyingManager@@QAE@XZ ; CFlyingManager::CFlyingManager
  000d1	c6 45 fc 06	 mov	 BYTE PTR __$EHRec$[ebp+8], 6
  000d5	8b 4d e0	 mov	 ecx, DWORD PTR _this$[ebp]
  000d8	81 c1 80 01 00
	00		 add	 ecx, 384		; 00000180H
  000de	e8 00 00 00 00	 call	 ??0CRaceManager@@QAE@XZ	; CRaceManager::CRaceManager
  000e3	c6 45 fc 07	 mov	 BYTE PTR __$EHRec$[ebp+8], 7
  000e7	8b 4d e0	 mov	 ecx, DWORD PTR _this$[ebp]
  000ea	81 c1 b8 01 00
	00		 add	 ecx, 440		; 000001b8H
  000f0	e8 00 00 00 00	 call	 ??0CGameEventManager@@QAE@XZ ; CGameEventManager::CGameEventManager
  000f5	c6 45 fc 08	 mov	 BYTE PTR __$EHRec$[ebp+8], 8
  000f9	8b 4d e0	 mov	 ecx, DWORD PTR _this$[ebp]
  000fc	81 c1 cc 01 00
	00		 add	 ecx, 460		; 000001ccH
  00102	e8 00 00 00 00	 call	 ??0CItemManager@@QAE@XZ	; CItemManager::CItemManager
  00107	c6 45 fc 09	 mov	 BYTE PTR __$EHRec$[ebp+8], 9
  0010b	8b 4d e0	 mov	 ecx, DWORD PTR _this$[ebp]
  0010e	81 c1 e8 01 00
	00		 add	 ecx, 488		; 000001e8H
  00114	e8 00 00 00 00	 call	 ??0CMovieMan@@QAE@XZ	; CMovieMan::CMovieMan
  00119	c6 45 fc 0a	 mov	 BYTE PTR __$EHRec$[ebp+8], 10 ; 0000000aH
  0011d	8b 4d e0	 mov	 ecx, DWORD PTR _this$[ebp]
  00120	81 c1 10 02 00
	00		 add	 ecx, 528		; 00000210H
  00126	e8 00 00 00 00	 call	 ??0CWindowManager@UI@@QAE@XZ ; UI::CWindowManager::CWindowManager
  0012b	c6 45 fc 0b	 mov	 BYTE PTR __$EHRec$[ebp+8], 11 ; 0000000bH
  0012f	8b 4d e0	 mov	 ecx, DWORD PTR _this$[ebp]
  00132	81 c1 b0 02 00
	00		 add	 ecx, 688		; 000002b0H
  00138	e8 00 00 00 00	 call	 ??0CEffectManager@@QAE@XZ ; CEffectManager::CEffectManager
  0013d	c6 45 fc 0c	 mov	 BYTE PTR __$EHRec$[ebp+8], 12 ; 0000000cH
  00141	8b 4d e0	 mov	 ecx, DWORD PTR _this$[ebp]
  00144	81 c1 d8 02 00
	00		 add	 ecx, 728		; 000002d8H
  0014a	e8 00 00 00 00	 call	 ??0CPythonCharacterManager@@QAE@XZ ; CPythonCharacterManager::CPythonCharacterManager
  0014f	c6 45 fc 0d	 mov	 BYTE PTR __$EHRec$[ebp+8], 13 ; 0000000dH
  00153	8b 4d e0	 mov	 ecx, DWORD PTR _this$[ebp]
  00156	81 c1 10 07 00
	00		 add	 ecx, 1808		; 00000710H
  0015c	e8 00 00 00 00	 call	 ??0CServerStateChecker@@QAE@XZ ; CServerStateChecker::CServerStateChecker
  00161	c6 45 fc 0e	 mov	 BYTE PTR __$EHRec$[ebp+8], 14 ; 0000000eH
  00165	8b 4d e0	 mov	 ecx, DWORD PTR _this$[ebp]
  00168	81 c1 9c 07 00
	00		 add	 ecx, 1948		; 0000079cH
  0016e	e8 00 00 00 00	 call	 ??0CPythonGraphic@@QAE@XZ ; CPythonGraphic::CPythonGraphic
  00173	c6 45 fc 0f	 mov	 BYTE PTR __$EHRec$[ebp+8], 15 ; 0000000fH
  00177	8b 4d e0	 mov	 ecx, DWORD PTR _this$[ebp]
  0017a	81 c1 40 08 00
	00		 add	 ecx, 2112		; 00000840H
  00180	e8 00 00 00 00	 call	 ??0CPythonNetworkStream@@QAE@XZ ; CPythonNetworkStream::CPythonNetworkStream
  00185	c6 45 fc 10	 mov	 BYTE PTR __$EHRec$[ebp+8], 16 ; 00000010H
  00189	8b 4d e0	 mov	 ecx, DWORD PTR _this$[ebp]
  0018c	81 c1 90 81 00
	00		 add	 ecx, 33168		; 00008190H
  00192	e8 00 00 00 00	 call	 ??0CPythonPlayer@@QAE@XZ ; CPythonPlayer::CPythonPlayer
  00197	c6 45 fc 11	 mov	 BYTE PTR __$EHRec$[ebp+8], 17 ; 00000011H
  0019b	8b 4d e0	 mov	 ecx, DWORD PTR _this$[ebp]
  0019e	81 c1 b4 79 01
	00		 add	 ecx, 96692		; 000179b4H
  001a4	e8 00 00 00 00	 call	 ??0CPythonIME@@QAE@XZ	; CPythonIME::CPythonIME
  001a9	c6 45 fc 12	 mov	 BYTE PTR __$EHRec$[ebp+8], 18 ; 00000012H
  001ad	8b 4d e0	 mov	 ecx, DWORD PTR _this$[ebp]
  001b0	81 c1 e0 81 01
	00		 add	 ecx, 98784		; 000181e0H
  001b6	e8 00 00 00 00	 call	 ??0CPythonItem@@QAE@XZ	; CPythonItem::CPythonItem
  001bb	c6 45 fc 13	 mov	 BYTE PTR __$EHRec$[ebp+8], 19 ; 00000013H
  001bf	8b 4d e0	 mov	 ecx, DWORD PTR _this$[ebp]
  001c2	81 c1 ec 82 01
	00		 add	 ecx, 99052		; 000182ecH
  001c8	e8 00 00 00 00	 call	 ??0CPythonShop@@QAE@XZ	; CPythonShop::CPythonShop
  001cd	c6 45 fc 14	 mov	 BYTE PTR __$EHRec$[ebp+8], 20 ; 00000014H
  001d1	8b 4d e0	 mov	 ecx, DWORD PTR _this$[ebp]
  001d4	81 c1 84 97 01
	00		 add	 ecx, 104324		; 00019784H
  001da	e8 00 00 00 00	 call	 ??0CPythonExchange@@QAE@XZ ; CPythonExchange::CPythonExchange
  001df	c6 45 fc 15	 mov	 BYTE PTR __$EHRec$[ebp+8], 21 ; 00000015H
  001e3	8b 4d e0	 mov	 ecx, DWORD PTR _this$[ebp]
  001e6	81 c1 64 9b 01
	00		 add	 ecx, 105316		; 00019b64H
  001ec	e8 00 00 00 00	 call	 ??0CPythonChat@@QAE@XZ	; CPythonChat::CPythonChat
  001f1	c6 45 fc 16	 mov	 BYTE PTR __$EHRec$[ebp+8], 22 ; 00000016H
  001f5	8b 4d e0	 mov	 ecx, DWORD PTR _this$[ebp]
  001f8	81 c1 38 9c 01
	00		 add	 ecx, 105528		; 00019c38H
  001fe	e8 00 00 00 00	 call	 ??0CPythonTextTail@@QAE@XZ ; CPythonTextTail::CPythonTextTail
  00203	c6 45 fc 17	 mov	 BYTE PTR __$EHRec$[ebp+8], 23 ; 00000017H
  00207	8b 4d e0	 mov	 ecx, DWORD PTR _this$[ebp]
  0020a	81 c1 88 9c 01
	00		 add	 ecx, 105608		; 00019c88H
  00210	e8 00 00 00 00	 call	 ??0CPythonNonPlayer@@QAE@XZ ; CPythonNonPlayer::CPythonNonPlayer
  00215	c6 45 fc 18	 mov	 BYTE PTR __$EHRec$[ebp+8], 24 ; 00000018H
  00219	8b 4d e0	 mov	 ecx, DWORD PTR _this$[ebp]
  0021c	81 c1 94 9c 01
	00		 add	 ecx, 105620		; 00019c94H
  00222	e8 00 00 00 00	 call	 ??0CPythonMiniMap@@QAE@XZ ; CPythonMiniMap::CPythonMiniMap
  00227	c6 45 fc 19	 mov	 BYTE PTR __$EHRec$[ebp+8], 25 ; 00000019H
  0022b	8b 4d e0	 mov	 ecx, DWORD PTR _this$[ebp]
  0022e	81 c1 cc a8 01
	00		 add	 ecx, 108748		; 0001a8ccH
  00234	e8 00 00 00 00	 call	 ??0CPythonEventManager@@QAE@XZ ; CPythonEventManager::CPythonEventManager
  00239	c6 45 fc 1a	 mov	 BYTE PTR __$EHRec$[ebp+8], 26 ; 0000001aH
  0023d	8b 4d e0	 mov	 ecx, DWORD PTR _this$[ebp]
  00240	81 c1 4c a9 01
	00		 add	 ecx, 108876		; 0001a94cH
  00246	e8 00 00 00 00	 call	 ??0CPythonBackground@@QAE@XZ ; CPythonBackground::CPythonBackground
  0024b	c6 45 fc 1b	 mov	 BYTE PTR __$EHRec$[ebp+8], 27 ; 0000001bH
  0024f	8b 4d e0	 mov	 ecx, DWORD PTR _this$[ebp]
  00252	81 c1 54 bf 01
	00		 add	 ecx, 114516		; 0001bf54H
  00258	e8 00 00 00 00	 call	 ??0CPythonSkill@@QAE@XZ	; CPythonSkill::CPythonSkill
  0025d	c6 45 fc 1c	 mov	 BYTE PTR __$EHRec$[ebp+8], 28 ; 0000001cH
  00261	8b 4d e0	 mov	 ecx, DWORD PTR _this$[ebp]
  00264	81 c1 a0 bf 01
	00		 add	 ecx, 114592		; 0001bfa0H
  0026a	e8 00 00 00 00	 call	 ??0CPythonResource@@QAE@XZ ; CPythonResource::CPythonResource
  0026f	c6 45 fc 1d	 mov	 BYTE PTR __$EHRec$[ebp+8], 29 ; 0000001dH
  00273	8b 4d e0	 mov	 ecx, DWORD PTR _this$[ebp]
  00276	81 c1 e8 bf 01
	00		 add	 ecx, 114664		; 0001bfe8H
  0027c	e8 00 00 00 00	 call	 ??0CPythonQuest@@QAE@XZ	; CPythonQuest::CPythonQuest
  00281	c6 45 fc 1e	 mov	 BYTE PTR __$EHRec$[ebp+8], 30 ; 0000001eH
  00285	8b 4d e0	 mov	 ecx, DWORD PTR _this$[ebp]
  00288	81 c1 f8 bf 01
	00		 add	 ecx, 114680		; 0001bff8H
  0028e	e8 00 00 00 00	 call	 ??0CPythonMessenger@@QAE@XZ ; CPythonMessenger::CPythonMessenger
  00293	c6 45 fc 1f	 mov	 BYTE PTR __$EHRec$[ebp+8], 31 ; 0000001fH
  00297	8b 4d e0	 mov	 ecx, DWORD PTR _this$[ebp]
  0029a	81 c1 10 c0 01
	00		 add	 ecx, 114704		; 0001c010H
  002a0	e8 00 00 00 00	 call	 ??0CPythonSafeBox@@QAE@XZ ; CPythonSafeBox::CPythonSafeBox
  002a5	c6 45 fc 20	 mov	 BYTE PTR __$EHRec$[ebp+8], 32 ; 00000020H
  002a9	8b 4d e0	 mov	 ecx, DWORD PTR _this$[ebp]
  002ac	81 c1 30 c0 01
	00		 add	 ecx, 114736		; 0001c030H
  002b2	e8 00 00 00 00	 call	 ??0CPythonGuild@@QAE@XZ	; CPythonGuild::CPythonGuild
  002b7	c6 45 fc 21	 mov	 BYTE PTR __$EHRec$[ebp+8], 33 ; 00000021H
  002bb	8b 4d e0	 mov	 ecx, DWORD PTR _this$[ebp]
  002be	81 c1 c8 c0 01
	00		 add	 ecx, 114888		; 0001c0c8H
  002c4	e8 00 00 00 00	 call	 ??0CGuildMarkManager@@QAE@XZ ; CGuildMarkManager::CGuildMarkManager
  002c9	c6 45 fc 22	 mov	 BYTE PTR __$EHRec$[ebp+8], 34 ; 00000022H
  002cd	8b 4d e0	 mov	 ecx, DWORD PTR _this$[ebp]
  002d0	81 c1 04 c1 01
	00		 add	 ecx, 114948		; 0001c104H
  002d6	e8 00 00 00 00	 call	 ??0CGuildMarkDownloader@@QAE@XZ ; CGuildMarkDownloader::CGuildMarkDownloader
  002db	c6 45 fc 23	 mov	 BYTE PTR __$EHRec$[ebp+8], 35 ; 00000023H
  002df	8b 4d e0	 mov	 ecx, DWORD PTR _this$[ebp]
  002e2	81 c1 b4 c1 01
	00		 add	 ecx, 115124		; 0001c1b4H
  002e8	e8 00 00 00 00	 call	 ??0CGuildMarkUploader@@QAE@XZ ; CGuildMarkUploader::CGuildMarkUploader
  002ed	c6 45 fc 24	 mov	 BYTE PTR __$EHRec$[ebp+8], 36 ; 00000024H
  002f1	8b 4d e0	 mov	 ecx, DWORD PTR _this$[ebp]
  002f4	81 c1 34 c2 01
	00		 add	 ecx, 115252		; 0001c234H
  002fa	e8 00 00 00 00	 call	 ??0CAccountConnector@@QAE@XZ ; CAccountConnector::CAccountConnector
  002ff	c6 45 fc 25	 mov	 BYTE PTR __$EHRec$[ebp+8], 37 ; 00000025H
  00303	8b 4d e0	 mov	 ecx, DWORD PTR _this$[ebp]
  00306	81 c1 0c c3 01
	00		 add	 ecx, 115468		; 0001c30cH
  0030c	e8 00 00 00 00	 call	 ??0CGraphicDevice@@QAE@XZ ; CGraphicDevice::CGraphicDevice
  00311	c6 45 fc 26	 mov	 BYTE PTR __$EHRec$[ebp+8], 38 ; 00000026H
  00315	8b 4d e0	 mov	 ecx, DWORD PTR _this$[ebp]
  00318	81 c1 20 c3 01
	00		 add	 ecx, 115488		; 0001c320H
  0031e	e8 00 00 00 00	 call	 ??0CNetworkDevice@@QAE@XZ ; CNetworkDevice::CNetworkDevice
  00323	c6 45 fc 27	 mov	 BYTE PTR __$EHRec$[ebp+8], 39 ; 00000027H
  00327	8b 4d e0	 mov	 ecx, DWORD PTR _this$[ebp]
  0032a	81 c1 28 c3 01
	00		 add	 ecx, 115496		; 0001c328H
  00330	e8 00 00 00 00	 call	 ??0CPythonSystem@@QAE@XZ ; CPythonSystem::CPythonSystem
  00335	c6 45 fc 28	 mov	 BYTE PTR __$EHRec$[ebp+8], 40 ; 00000028H

; 38   : m_poMouseHandler(NULL),

  00339	8b 45 e0	 mov	 eax, DWORD PTR _this$[ebp]
  0033c	83 a0 18 ea 01
	00 00		 and	 DWORD PTR [eax+125464], 0

; 41   : m_fAveRenderTime(0.0f),

  00343	8b 45 e0	 mov	 eax, DWORD PTR _this$[ebp]
  00346	0f 57 c0	 xorps	 xmm0, xmm0
  00349	f3 0f 11 80 2c
	ea 01 00	 movss	 DWORD PTR [eax+125484], xmm0

; 46   : m_dwLastIdleTime(0)

  00351	8b 45 e0	 mov	 eax, DWORD PTR _this$[ebp]
  00354	83 a0 44 ea 01
	00 00		 and	 DWORD PTR [eax+125508], 0

; 43   : m_fGlobalTime(0.0f),

  0035b	8b 45 e0	 mov	 eax, DWORD PTR _this$[ebp]
  0035e	0f 57 c0	 xorps	 xmm0, xmm0
  00361	f3 0f 11 80 54
	ea 01 00	 movss	 DWORD PTR [eax+125524], xmm0

; 44   : m_fGlobalElapsedTime(0.0f),

  00369	8b 45 e0	 mov	 eax, DWORD PTR _this$[ebp]
  0036c	0f 57 c0	 xorps	 xmm0, xmm0
  0036f	f3 0f 11 80 58
	ea 01 00	 movss	 DWORD PTR [eax+125528], xmm0

; 47   : {

  00377	8b 4d e0	 mov	 ecx, DWORD PTR _this$[ebp]
  0037a	81 c1 5c ea 01
	00		 add	 ecx, 125532		; 0001ea5cH
  00380	e8 00 00 00 00	 call	 ??0SCameraSetting@IAbstractApplication@@QAE@XZ ; IAbstractApplication::SCameraSetting::SCameraSetting
  00385	8b 4d e0	 mov	 ecx, DWORD PTR _this$[ebp]
  00388	81 c1 80 ea 01
	00		 add	 ecx, 125568		; 0001ea80H
  0038e	e8 00 00 00 00	 call	 ??0SCameraSetting@IAbstractApplication@@QAE@XZ ; IAbstractApplication::SCameraSetting::SCameraSetting
  00393	8b 4d e0	 mov	 ecx, DWORD PTR _this$[ebp]
  00396	81 c1 b0 ea 01
	00		 add	 ecx, 125616		; 0001eab0H
  0039c	e8 00 00 00 00	 call	 ??0SCameraSetting@IAbstractApplication@@QAE@XZ ; IAbstractApplication::SCameraSetting::SCameraSetting
  003a1	8b 45 e0	 mov	 eax, DWORD PTR _this$[ebp]
  003a4	05 ec ea 01 00	 add	 eax, 125676		; 0001eaecH
  003a9	89 45 d4	 mov	 DWORD PTR _this$[ebp], eax
; File D:\Metin2 Server Files\mainline\SRC_2014\Metin2Client\UserInterface\AbstractApplication.h

; 14   : 			SCameraPos() : m_fUpDir(0.0f), m_fViewDir(0.0f), m_fCrossDir(0.0f) {}

  003ac	8b 45 d4	 mov	 eax, DWORD PTR _this$[ebp]
  003af	0f 57 c0	 xorps	 xmm0, xmm0
  003b2	f3 0f 11 00	 movss	 DWORD PTR [eax], xmm0
  003b6	8b 45 d4	 mov	 eax, DWORD PTR _this$[ebp]
  003b9	0f 57 c0	 xorps	 xmm0, xmm0
  003bc	f3 0f 11 40 04	 movss	 DWORD PTR [eax+4], xmm0
  003c1	8b 45 d4	 mov	 eax, DWORD PTR _this$[ebp]
  003c4	0f 57 c0	 xorps	 xmm0, xmm0
  003c7	f3 0f 11 40 08	 movss	 DWORD PTR [eax+8], xmm0
; File D:\Metin2 Server Files\mainline\SRC_2014\Metin2Client\UserInterface\PythonApplication.cpp

; 47   : {

  003cc	8b 45 e0	 mov	 eax, DWORD PTR _this$[ebp]
  003cf	05 f8 ea 01 00	 add	 eax, 125688		; 0001eaf8H
  003d4	89 45 d0	 mov	 DWORD PTR _this$[ebp], eax
; File D:\Metin2 Server Files\mainline\SRC_2014\Metin2Client\UserInterface\PythonApplication.h

; 121  : 			SCameraSpeed() : m_fUpDir(0.0f), m_fViewDir(0.0f), m_fCrossDir(0.0f) {}

  003d7	8b 45 d0	 mov	 eax, DWORD PTR _this$[ebp]
  003da	0f 57 c0	 xorps	 xmm0, xmm0
  003dd	f3 0f 11 00	 movss	 DWORD PTR [eax], xmm0
  003e1	8b 45 d0	 mov	 eax, DWORD PTR _this$[ebp]
  003e4	0f 57 c0	 xorps	 xmm0, xmm0
  003e7	f3 0f 11 40 04	 movss	 DWORD PTR [eax+4], xmm0
  003ec	8b 45 d0	 mov	 eax, DWORD PTR _this$[ebp]
  003ef	0f 57 c0	 xorps	 xmm0, xmm0
  003f2	f3 0f 11 40 08	 movss	 DWORD PTR [eax+8], xmm0
; File D:\Metin2 Server Files\mainline\SRC_2014\Metin2Client\UserInterface\PythonApplication.cpp

; 39   : m_dwUpdateFPS(0),

  003f7	8b 45 e0	 mov	 eax, DWORD PTR _this$[ebp]
  003fa	83 a0 1c eb 01
	00 00		 and	 DWORD PTR [eax+125724], 0

; 40   : m_dwRenderFPS(0),

  00401	8b 45 e0	 mov	 eax, DWORD PTR _this$[ebp]
  00404	83 a0 20 eb 01
	00 00		 and	 DWORD PTR [eax+125728], 0

; 42   : m_dwFaceCount(0),

  0040b	8b 45 e0	 mov	 eax, DWORD PTR _this$[ebp]
  0040e	83 a0 24 eb 01
	00 00		 and	 DWORD PTR [eax+125732], 0

; 45   : m_dwLButtonDownTime(0),

  00415	8b 45 e0	 mov	 eax, DWORD PTR _this$[ebp]
  00418	83 a0 28 eb 01
	00 00		 and	 DWORD PTR [eax+125736], 0

; 47   : {

  0041f	8b 45 e0	 mov	 eax, DWORD PTR _this$[ebp]
  00422	05 30 eb 01 00	 add	 eax, 125744		; 0001eb30H
  00427	89 45 c8	 mov	 DWORD PTR _this$[ebp], eax
; File C:\Program Files (x86)\Microsoft Visual Studio\2019\Community\VC\Tools\MSVC\14.28.29333\include\map

; 107  :     map() : _Mybase(key_compare()) {}

  0042a	8d 45 df	 lea	 eax, DWORD PTR $T3[ebp]
  0042d	50		 push	 eax
  0042e	8b 4d c8	 mov	 ecx, DWORD PTR _this$[ebp]
  00431	e8 00 00 00 00	 call	 ??0?$_Tree@V?$_Tmap_traits@HPAXU?$less@H@std@@V?$allocator@U?$pair@$$CBHPAX@std@@@2@$0A@@std@@@std@@QAE@ABU?$less@H@1@@Z ; std::_Tree<std::_Tmap_traits<int,void *,std::less<int>,std::allocator<std::pair<int const ,void *> >,0> >::_Tree<std::_Tmap_traits<int,void *,std::less<int>,std::allocator<std::pair<int const ,void *> >,0> >
; File D:\Metin2 Server Files\mainline\SRC_2014\Metin2Client\UserInterface\PythonApplication.cpp

; 47   : {

  00436	c6 45 fc 29	 mov	 BYTE PTR __$EHRec$[ebp+8], 41 ; 00000029H

; 33   : m_bCursorVisible(TRUE),

  0043a	8b 45 e0	 mov	 eax, DWORD PTR _this$[ebp]
  0043d	c7 80 3c eb 01
	00 01 00 00 00	 mov	 DWORD PTR [eax+125756], 1

; 34   : m_bLiarCursorOn(false),

  00447	8b 45 e0	 mov	 eax, DWORD PTR _this$[ebp]
  0044a	c6 80 40 eb 01
	00 00		 mov	 BYTE PTR [eax+125760], 0

; 35   : m_iCursorMode(CURSOR_MODE_HARDWARE),

  00451	8b 45 e0	 mov	 eax, DWORD PTR _this$[ebp]
  00454	83 a0 44 eb 01
	00 00		 and	 DWORD PTR [eax+125764], 0

; 36   : m_isWindowed(false),

  0045b	8b 45 e0	 mov	 eax, DWORD PTR _this$[ebp]
  0045e	c6 80 48 eb 01
	00 00		 mov	 BYTE PTR [eax+125768], 0

; 37   : m_isFrameSkipDisable(false),

  00465	8b 45 e0	 mov	 eax, DWORD PTR _this$[ebp]
  00468	c6 80 49 eb 01
	00 00		 mov	 BYTE PTR [eax+125769], 0

; 47   : {

  0046f	8b 4d e0	 mov	 ecx, DWORD PTR _this$[ebp]
  00472	81 c1 4c eb 01
	00		 add	 ecx, 125772		; 0001eb4cH
  00478	e8 00 00 00 00	 call	 ??0?$basic_string@DU?$char_traits@D@std@@V?$allocator@D@2@@std@@QAE@XZ ; std::basic_string<char,std::char_traits<char>,std::allocator<char> >::basic_string<char,std::char_traits<char>,std::allocator<char> >
  0047d	c6 45 fc 2a	 mov	 BYTE PTR __$EHRec$[ebp+8], 42 ; 0000002aH

; 48   : #ifndef _DEBUG
; 49   : 	SetEterExceptionHandler();

  00481	e8 00 00 00 00	 call	 ?SetEterExceptionHandler@@YAXXZ ; SetEterExceptionHandler

; 50   : #endif
; 51   : 
; 52   : 	CTimer::Instance().UseCustomTime();

  00486	8b 0d 00 00 00
	00		 mov	 ecx, DWORD PTR ?ms_singleton@?$CSingleton@VCTimer@@@@0PAVCTimer@@A ; CSingleton<CTimer>::ms_singleton
  0048c	e8 00 00 00 00	 call	 ?UseCustomTime@CTimer@@QAEXXZ ; CTimer::UseCustomTime

; 53   : 	m_dwWidth = 800;

  00491	8b 45 e0	 mov	 eax, DWORD PTR _this$[ebp]
  00494	c7 80 3c ea 01
	00 20 03 00 00	 mov	 DWORD PTR [eax+125500], 800 ; 00000320H

; 54   : 	m_dwHeight = 600;

  0049e	8b 45 e0	 mov	 eax, DWORD PTR _this$[ebp]
  004a1	c7 80 40 ea 01
	00 58 02 00 00	 mov	 DWORD PTR [eax+125504], 600 ; 00000258H

; 55   : 
; 56   : 	ms_pInstance = this;

  004ab	8b 45 e0	 mov	 eax, DWORD PTR _this$[ebp]
  004ae	a3 00 00 00 00	 mov	 DWORD PTR ?ms_pInstance@CPythonApplication@@1PAV1@A, eax ; CPythonApplication::ms_pInstance

; 57   : 	m_isWindowFullScreenEnable = FALSE;

  004b3	8b 45 e0	 mov	 eax, DWORD PTR _this$[ebp]
  004b6	83 a0 6c eb 01
	00 00		 and	 DWORD PTR [eax+125804], 0
; File D:\Metin2 Server Files\mainline\SRC_2014\M2Data\include\d3dx8math.inl

; 180  :     x = fx;

  004bd	0f 57 c0	 xorps	 xmm0, xmm0
  004c0	f3 0f 11 45 e4	 movss	 DWORD PTR $T4[ebp], xmm0

; 181  :     y = fy;

  004c5	0f 57 c0	 xorps	 xmm0, xmm0
  004c8	f3 0f 11 45 e8	 movss	 DWORD PTR $T4[ebp+4], xmm0

; 182  :     z = fz;

  004cd	0f 57 c0	 xorps	 xmm0, xmm0
  004d0	f3 0f 11 45 ec	 movss	 DWORD PTR $T4[ebp+8], xmm0
; File D:\Metin2 Server Files\mainline\SRC_2014\Metin2Client\UserInterface\PythonApplication.cpp

; 59   : 	m_v3CenterPosition = D3DXVECTOR3(0.0f, 0.0f, 0.0f);

  004d5	8b 7d e0	 mov	 edi, DWORD PTR _this$[ebp]
  004d8	81 c7 1c ea 01
	00		 add	 edi, 125468		; 0001ea1cH
  004de	8d 75 e4	 lea	 esi, DWORD PTR $T4[ebp]
  004e1	a5		 movsd
  004e2	a5		 movsd
  004e3	a5		 movsd

; 60   : 	m_dwStartLocalTime = ELTimer_GetMSec();

  004e4	e8 00 00 00 00	 call	 ?ELTimer_GetMSec@@YAKXZ	; ELTimer_GetMSec
  004e9	8b 4d e0	 mov	 ecx, DWORD PTR _this$[ebp]
  004ec	89 81 48 ea 01
	00		 mov	 DWORD PTR [ecx+125512], eax

; 61   : 	m_tServerTime = 0;

  004f2	8b 45 e0	 mov	 eax, DWORD PTR _this$[ebp]
  004f5	83 a0 4c ea 01
	00 00		 and	 DWORD PTR [eax+125516], 0

; 62   : 	m_tLocalStartTime = 0;

  004fc	8b 45 e0	 mov	 eax, DWORD PTR _this$[ebp]
  004ff	83 a0 50 ea 01
	00 00		 and	 DWORD PTR [eax+125520], 0

; 63   : 
; 64   : 	m_iPort = 0;

  00506	8b 45 e0	 mov	 eax, DWORD PTR _this$[ebp]
  00509	83 a0 64 eb 01
	00 00		 and	 DWORD PTR [eax+125796], 0

; 65   : 	m_iFPS = 60;

  00510	8b 45 e0	 mov	 eax, DWORD PTR _this$[ebp]
  00513	c7 80 28 ea 01
	00 3c 00 00 00	 mov	 DWORD PTR [eax+125480], 60 ; 0000003cH

; 66   : 
; 67   : 	m_isActivateWnd = false;

  0051d	8b 45 e0	 mov	 eax, DWORD PTR _this$[ebp]
  00520	c6 80 69 eb 01
	00 00		 mov	 BYTE PTR [eax+125801], 0

; 68   : 	m_isMinimizedWnd = true;

  00527	8b 45 e0	 mov	 eax, DWORD PTR _this$[ebp]
  0052a	c6 80 68 eb 01
	00 01		 mov	 BYTE PTR [eax+125800], 1

; 69   : 
; 70   : 	m_fRotationSpeed = 0.0f;

  00531	8b 45 e0	 mov	 eax, DWORD PTR _this$[ebp]
  00534	0f 57 c0	 xorps	 xmm0, xmm0
  00537	f3 0f 11 80 d4
	ea 01 00	 movss	 DWORD PTR [eax+125652], xmm0

; 71   : 	m_fPitchSpeed = 0.0f;

  0053f	8b 45 e0	 mov	 eax, DWORD PTR _this$[ebp]
  00542	0f 57 c0	 xorps	 xmm0, xmm0
  00545	f3 0f 11 80 d8
	ea 01 00	 movss	 DWORD PTR [eax+125656], xmm0

; 72   : 	m_fZoomSpeed = 0.0f;

  0054d	8b 45 e0	 mov	 eax, DWORD PTR _this$[ebp]
  00550	0f 57 c0	 xorps	 xmm0, xmm0
  00553	f3 0f 11 80 dc
	ea 01 00	 movss	 DWORD PTR [eax+125660], xmm0

; 73   : 
; 74   : 	m_fFaceSpd=0.0f;

  0055b	8b 45 e0	 mov	 eax, DWORD PTR _this$[ebp]
  0055e	0f 57 c0	 xorps	 xmm0, xmm0
  00561	f3 0f 11 80 08
	eb 01 00	 movss	 DWORD PTR [eax+125704], xmm0

; 75   : 
; 76   : 	m_dwFaceAccCount=0;

  00569	8b 45 e0	 mov	 eax, DWORD PTR _this$[ebp]
  0056c	83 a0 14 eb 01
	00 00		 and	 DWORD PTR [eax+125716], 0

; 77   : 	m_dwFaceAccTime=0;

  00573	8b 45 e0	 mov	 eax, DWORD PTR _this$[ebp]
  00576	83 a0 18 eb 01
	00 00		 and	 DWORD PTR [eax+125720], 0

; 78   : 
; 79   : 	m_dwFaceSpdSum=0;

  0057d	8b 45 e0	 mov	 eax, DWORD PTR _this$[ebp]
  00580	83 a0 0c eb 01
	00 00		 and	 DWORD PTR [eax+125708], 0

; 80   : 	m_dwFaceSpdCount=0;

  00587	8b 45 e0	 mov	 eax, DWORD PTR _this$[ebp]
  0058a	83 a0 10 eb 01
	00 00		 and	 DWORD PTR [eax+125712], 0

; 81   : 
; 82   : 	m_FlyingManager.SetMapManagerPtr(&m_pyBackground);

  00591	8b 45 e0	 mov	 eax, DWORD PTR _this$[ebp]
  00594	05 4c a9 01 00	 add	 eax, 108876		; 0001a94cH
; File D:\Metin2 Server Files\mainline\SRC_2014\Metin2Client\gamelib\FlyingObjectManager.h

; 38   : 	void SetMapManagerPtr(CMapManager * pMapManager) { m_pMapManager = pMapManager; }

  00599	8b 4d e0	 mov	 ecx, DWORD PTR _this$[ebp]
  0059c	89 81 78 01 00
	00		 mov	 DWORD PTR [ecx+376], eax
; File D:\Metin2 Server Files\mainline\SRC_2014\Metin2Client\UserInterface\PythonApplication.cpp

; 84   : 	m_iCursorNum = CURSOR_SHAPE_NORMAL;

  005a2	8b 45 e0	 mov	 eax, DWORD PTR _this$[ebp]
  005a5	83 a0 7c eb 01
	00 00		 and	 DWORD PTR [eax+125820], 0

; 85   : 	m_iContinuousCursorNum = CURSOR_SHAPE_NORMAL;

  005ac	8b 45 e0	 mov	 eax, DWORD PTR _this$[ebp]
  005af	83 a0 80 eb 01
	00 00		 and	 DWORD PTR [eax+125824], 0

; 86   : 
; 87   : 	m_isSpecialCameraMode = FALSE;

  005b6	8b 45 e0	 mov	 eax, DWORD PTR _this$[ebp]
  005b9	83 a0 04 eb 01
	00 00		 and	 DWORD PTR [eax+125700], 0

; 88   : 	m_fCameraRotateSpeed = c_fDefaultCameraRotateSpeed;

  005c0	8b 45 e0	 mov	 eax, DWORD PTR _this$[ebp]
  005c3	f3 0f 10 05 00
	00 00 00	 movss	 xmm0, DWORD PTR ?c_fDefaultCameraRotateSpeed@@3MA
  005cb	f3 0f 11 80 e0
	ea 01 00	 movss	 DWORD PTR [eax+125664], xmm0

; 89   : 	m_fCameraPitchSpeed = c_fDefaultCameraPitchSpeed;

  005d3	8b 45 e0	 mov	 eax, DWORD PTR _this$[ebp]
  005d6	f3 0f 10 05 00
	00 00 00	 movss	 xmm0, DWORD PTR ?c_fDefaultCameraPitchSpeed@@3MA
  005de	f3 0f 11 80 e4
	ea 01 00	 movss	 DWORD PTR [eax+125668], xmm0

; 90   : 	m_fCameraZoomSpeed = c_fDefaultCameraZoomSpeed;

  005e6	8b 45 e0	 mov	 eax, DWORD PTR _this$[ebp]
  005e9	f3 0f 10 05 00
	00 00 00	 movss	 xmm0, DWORD PTR ?c_fDefaultCameraZoomSpeed@@3MA
  005f1	f3 0f 11 80 e8
	ea 01 00	 movss	 DWORD PTR [eax+125672], xmm0

; 91   : 
; 92   : 	m_iCameraMode = CAMERA_MODE_NORMAL;

  005f9	8b 45 e0	 mov	 eax, DWORD PTR _this$[ebp]
  005fc	83 a0 a4 ea 01
	00 00		 and	 DWORD PTR [eax+125604], 0

; 93   : 	m_fBlendCameraStartTime = 0.0f;

  00603	8b 45 e0	 mov	 eax, DWORD PTR _this$[ebp]
  00606	0f 57 c0	 xorps	 xmm0, xmm0
  00609	f3 0f 11 80 a8
	ea 01 00	 movss	 DWORD PTR [eax+125608], xmm0

; 94   : 	m_fBlendCameraBlendTime = 0.0f;

  00611	8b 45 e0	 mov	 eax, DWORD PTR _this$[ebp]
  00614	0f 57 c0	 xorps	 xmm0, xmm0
  00617	f3 0f 11 80 ac
	ea 01 00	 movss	 DWORD PTR [eax+125612], xmm0

; 95   : 
; 96   : 	m_iForceSightRange = -1;

  0061f	8b 45 e0	 mov	 eax, DWORD PTR _this$[ebp]
  00622	83 88 78 eb 01
	00 ff		 or	 DWORD PTR [eax+125816], -1

; 97   : 
; 98   : 	CCameraManager::Instance().AddCamera(EVENT_CAMERA_NUMBER);

  00629	6a 65		 push	 101			; 00000065H
  0062b	8b 0d 00 00 00
	00		 mov	 ecx, DWORD PTR ?ms_singleton@?$CSingleton@VCCameraManager@@@@0PAVCCameraManager@@A ; CSingleton<CCameraManager>::ms_singleton
  00631	e8 00 00 00 00	 call	 ?AddCamera@CCameraManager@@QAE_NE@Z ; CCameraManager::AddCamera

; 99   : }

  00636	83 4d fc ff	 or	 DWORD PTR __$EHRec$[ebp+8], -1
  0063a	8b 45 e0	 mov	 eax, DWORD PTR _this$[ebp]
  0063d	8b 4d f4	 mov	 ecx, DWORD PTR __$EHRec$[ebp]
  00640	64 89 0d 00 00
	00 00		 mov	 DWORD PTR fs:0, ecx
  00647	59		 pop	 ecx
  00648	5f		 pop	 edi
  00649	5e		 pop	 esi
  0064a	8b 4d f0	 mov	 ecx, DWORD PTR __$ArrayPad$[ebp]
  0064d	33 cd		 xor	 ecx, ebp
  0064f	e8 00 00 00 00	 call	 @__security_check_cookie@4
  00654	c9		 leave
  00655	c3		 ret	 0
_TEXT	ENDS
;	COMDAT text$x
text$x	SEGMENT
__unwindfunclet$??0CPythonApplication@@QAE@XZ$0:
  00000	8b 4d e0	 mov	 ecx, DWORD PTR _this$[ebp]
  00003	e9 00 00 00 00	 jmp	 ??1CMSApplication@@UAE@XZ ; CMSApplication::~CMSApplication
__unwindfunclet$??0CPythonApplication@@QAE@XZ$1:
  00008	8b 4d e0	 mov	 ecx, DWORD PTR _this$[ebp]
  0000b	83 c1 1c	 add	 ecx, 28			; 0000001cH
  0000e	e9 00 00 00 00	 jmp	 ??1CInputKeyboard@@UAE@XZ ; CInputKeyboard::~CInputKeyboard
__unwindfunclet$??0CPythonApplication@@QAE@XZ$2:
  00013	8b 4d e0	 mov	 ecx, DWORD PTR _this$[ebp]
  00016	83 c1 20	 add	 ecx, 32			; 00000020H
  00019	e9 00 00 00 00	 jmp	 ??1IAbstractApplication@@UAE@XZ ; IAbstractApplication::~IAbstractApplication
__unwindfunclet$??0CPythonApplication@@QAE@XZ$3:
  0001e	8b 4d e0	 mov	 ecx, DWORD PTR _this$[ebp]
  00021	83 c1 60	 add	 ecx, 96			; 00000060H
  00024	e9 00 00 00 00	 jmp	 ??1CTimer@@UAE@XZ	; CTimer::~CTimer
__unwindfunclet$??0CPythonApplication@@QAE@XZ$4:
  00029	8b 4d e0	 mov	 ecx, DWORD PTR _this$[ebp]
  0002c	83 c1 7c	 add	 ecx, 124		; 0000007cH
  0002f	e9 00 00 00 00	 jmp	 ??1CLightManager@@UAE@XZ ; CLightManager::~CLightManager
__unwindfunclet$??0CPythonApplication@@QAE@XZ$5:
  00034	8b 4d e0	 mov	 ecx, DWORD PTR _this$[ebp]
  00037	81 c1 e8 00 00
	00		 add	 ecx, 232		; 000000e8H
  0003d	e9 00 00 00 00	 jmp	 ??1CSoundManager@@UAE@XZ ; CSoundManager::~CSoundManager
__unwindfunclet$??0CPythonApplication@@QAE@XZ$6:
  00042	8b 4d e0	 mov	 ecx, DWORD PTR _this$[ebp]
  00045	81 c1 5c 01 00
	00		 add	 ecx, 348		; 0000015cH
  0004b	e9 00 00 00 00	 jmp	 ??1CFlyingManager@@UAE@XZ ; CFlyingManager::~CFlyingManager
__unwindfunclet$??0CPythonApplication@@QAE@XZ$7:
  00050	8b 4d e0	 mov	 ecx, DWORD PTR _this$[ebp]
  00053	81 c1 80 01 00
	00		 add	 ecx, 384		; 00000180H
  00059	e9 00 00 00 00	 jmp	 ??1CRaceManager@@UAE@XZ	; CRaceManager::~CRaceManager
__unwindfunclet$??0CPythonApplication@@QAE@XZ$8:
  0005e	8b 4d e0	 mov	 ecx, DWORD PTR _this$[ebp]
  00061	81 c1 b8 01 00
	00		 add	 ecx, 440		; 000001b8H
  00067	e9 00 00 00 00	 jmp	 ??1CGameEventManager@@UAE@XZ ; CGameEventManager::~CGameEventManager
__unwindfunclet$??0CPythonApplication@@QAE@XZ$9:
  0006c	8b 4d e0	 mov	 ecx, DWORD PTR _this$[ebp]
  0006f	81 c1 cc 01 00
	00		 add	 ecx, 460		; 000001ccH
  00075	e9 00 00 00 00	 jmp	 ??1CItemManager@@UAE@XZ	; CItemManager::~CItemManager
__unwindfunclet$??0CPythonApplication@@QAE@XZ$10:
  0007a	8b 4d e0	 mov	 ecx, DWORD PTR _this$[ebp]
  0007d	81 c1 e8 01 00
	00		 add	 ecx, 488		; 000001e8H
  00083	e9 00 00 00 00	 jmp	 ??1CMovieMan@@UAE@XZ	; CMovieMan::~CMovieMan
__unwindfunclet$??0CPythonApplication@@QAE@XZ$11:
  00088	8b 4d e0	 mov	 ecx, DWORD PTR _this$[ebp]
  0008b	81 c1 10 02 00
	00		 add	 ecx, 528		; 00000210H
  00091	e9 00 00 00 00	 jmp	 ??1CWindowManager@UI@@UAE@XZ ; UI::CWindowManager::~CWindowManager
__unwindfunclet$??0CPythonApplication@@QAE@XZ$12:
  00096	8b 4d e0	 mov	 ecx, DWORD PTR _this$[ebp]
  00099	81 c1 b0 02 00
	00		 add	 ecx, 688		; 000002b0H
  0009f	e9 00 00 00 00	 jmp	 ??1CEffectManager@@UAE@XZ ; CEffectManager::~CEffectManager
__unwindfunclet$??0CPythonApplication@@QAE@XZ$13:
  000a4	8b 4d e0	 mov	 ecx, DWORD PTR _this$[ebp]
  000a7	81 c1 d8 02 00
	00		 add	 ecx, 728		; 000002d8H
  000ad	e9 00 00 00 00	 jmp	 ??1CPythonCharacterManager@@UAE@XZ ; CPythonCharacterManager::~CPythonCharacterManager
__unwindfunclet$??0CPythonApplication@@QAE@XZ$14:
  000b2	8b 4d e0	 mov	 ecx, DWORD PTR _this$[ebp]
  000b5	81 c1 10 07 00
	00		 add	 ecx, 1808		; 00000710H
  000bb	e9 00 00 00 00	 jmp	 ??1CServerStateChecker@@UAE@XZ ; CServerStateChecker::~CServerStateChecker
__unwindfunclet$??0CPythonApplication@@QAE@XZ$15:
  000c0	8b 4d e0	 mov	 ecx, DWORD PTR _this$[ebp]
  000c3	81 c1 9c 07 00
	00		 add	 ecx, 1948		; 0000079cH
  000c9	e9 00 00 00 00	 jmp	 ??1CPythonGraphic@@UAE@XZ ; CPythonGraphic::~CPythonGraphic
__unwindfunclet$??0CPythonApplication@@QAE@XZ$16:
  000ce	8b 4d e0	 mov	 ecx, DWORD PTR _this$[ebp]
  000d1	81 c1 40 08 00
	00		 add	 ecx, 2112		; 00000840H
  000d7	e9 00 00 00 00	 jmp	 ??1CPythonNetworkStream@@UAE@XZ ; CPythonNetworkStream::~CPythonNetworkStream
__unwindfunclet$??0CPythonApplication@@QAE@XZ$17:
  000dc	8b 4d e0	 mov	 ecx, DWORD PTR _this$[ebp]
  000df	81 c1 90 81 00
	00		 add	 ecx, 33168		; 00008190H
  000e5	e9 00 00 00 00	 jmp	 ??1CPythonPlayer@@UAE@XZ ; CPythonPlayer::~CPythonPlayer
__unwindfunclet$??0CPythonApplication@@QAE@XZ$18:
  000ea	8b 4d e0	 mov	 ecx, DWORD PTR _this$[ebp]
  000ed	81 c1 b4 79 01
	00		 add	 ecx, 96692		; 000179b4H
  000f3	e9 00 00 00 00	 jmp	 ??1CPythonIME@@UAE@XZ	; CPythonIME::~CPythonIME
__unwindfunclet$??0CPythonApplication@@QAE@XZ$19:
  000f8	8b 4d e0	 mov	 ecx, DWORD PTR _this$[ebp]
  000fb	81 c1 e0 81 01
	00		 add	 ecx, 98784		; 000181e0H
  00101	e9 00 00 00 00	 jmp	 ??1CPythonItem@@UAE@XZ	; CPythonItem::~CPythonItem
__unwindfunclet$??0CPythonApplication@@QAE@XZ$20:
  00106	8b 4d e0	 mov	 ecx, DWORD PTR _this$[ebp]
  00109	81 c1 ec 82 01
	00		 add	 ecx, 99052		; 000182ecH
  0010f	e9 00 00 00 00	 jmp	 ??1CPythonShop@@UAE@XZ	; CPythonShop::~CPythonShop
__unwindfunclet$??0CPythonApplication@@QAE@XZ$21:
  00114	8b 4d e0	 mov	 ecx, DWORD PTR _this$[ebp]
  00117	81 c1 84 97 01
	00		 add	 ecx, 104324		; 00019784H
  0011d	e9 00 00 00 00	 jmp	 ??1CPythonExchange@@UAE@XZ ; CPythonExchange::~CPythonExchange
__unwindfunclet$??0CPythonApplication@@QAE@XZ$22:
  00122	8b 4d e0	 mov	 ecx, DWORD PTR _this$[ebp]
  00125	81 c1 64 9b 01
	00		 add	 ecx, 105316		; 00019b64H
  0012b	e9 00 00 00 00	 jmp	 ??1CPythonChat@@UAE@XZ	; CPythonChat::~CPythonChat
__unwindfunclet$??0CPythonApplication@@QAE@XZ$23:
  00130	8b 4d e0	 mov	 ecx, DWORD PTR _this$[ebp]
  00133	81 c1 38 9c 01
	00		 add	 ecx, 105528		; 00019c38H
  00139	e9 00 00 00 00	 jmp	 ??1CPythonTextTail@@UAE@XZ ; CPythonTextTail::~CPythonTextTail
__unwindfunclet$??0CPythonApplication@@QAE@XZ$24:
  0013e	8b 4d e0	 mov	 ecx, DWORD PTR _this$[ebp]
  00141	81 c1 88 9c 01
	00		 add	 ecx, 105608		; 00019c88H
  00147	e9 00 00 00 00	 jmp	 ??1CPythonNonPlayer@@UAE@XZ ; CPythonNonPlayer::~CPythonNonPlayer
__unwindfunclet$??0CPythonApplication@@QAE@XZ$25:
  0014c	8b 4d e0	 mov	 ecx, DWORD PTR _this$[ebp]
  0014f	81 c1 94 9c 01
	00		 add	 ecx, 105620		; 00019c94H
  00155	e9 00 00 00 00	 jmp	 ??1CPythonMiniMap@@UAE@XZ ; CPythonMiniMap::~CPythonMiniMap
__unwindfunclet$??0CPythonApplication@@QAE@XZ$26:
  0015a	8b 4d e0	 mov	 ecx, DWORD PTR _this$[ebp]
  0015d	81 c1 cc a8 01
	00		 add	 ecx, 108748		; 0001a8ccH
  00163	e9 00 00 00 00	 jmp	 ??1CPythonEventManager@@UAE@XZ ; CPythonEventManager::~CPythonEventManager
__unwindfunclet$??0CPythonApplication@@QAE@XZ$27:
  00168	8b 4d e0	 mov	 ecx, DWORD PTR _this$[ebp]
  0016b	81 c1 4c a9 01
	00		 add	 ecx, 108876		; 0001a94cH
  00171	e9 00 00 00 00	 jmp	 ??1CPythonBackground@@UAE@XZ ; CPythonBackground::~CPythonBackground
__unwindfunclet$??0CPythonApplication@@QAE@XZ$28:
  00176	8b 4d e0	 mov	 ecx, DWORD PTR _this$[ebp]
  00179	81 c1 54 bf 01
	00		 add	 ecx, 114516		; 0001bf54H
  0017f	e9 00 00 00 00	 jmp	 ??1CPythonSkill@@UAE@XZ	; CPythonSkill::~CPythonSkill
__unwindfunclet$??0CPythonApplication@@QAE@XZ$29:
  00184	8b 4d e0	 mov	 ecx, DWORD PTR _this$[ebp]
  00187	81 c1 a0 bf 01
	00		 add	 ecx, 114592		; 0001bfa0H
  0018d	e9 00 00 00 00	 jmp	 ??1CPythonResource@@UAE@XZ ; CPythonResource::~CPythonResource
__unwindfunclet$??0CPythonApplication@@QAE@XZ$30:
  00192	8b 4d e0	 mov	 ecx, DWORD PTR _this$[ebp]
  00195	81 c1 e8 bf 01
	00		 add	 ecx, 114664		; 0001bfe8H
  0019b	e9 00 00 00 00	 jmp	 ??1CPythonQuest@@UAE@XZ	; CPythonQuest::~CPythonQuest
__unwindfunclet$??0CPythonApplication@@QAE@XZ$31:
  001a0	8b 4d e0	 mov	 ecx, DWORD PTR _this$[ebp]
  001a3	81 c1 f8 bf 01
	00		 add	 ecx, 114680		; 0001bff8H
  001a9	e9 00 00 00 00	 jmp	 ??1CPythonMessenger@@UAE@XZ ; CPythonMessenger::~CPythonMessenger
__unwindfunclet$??0CPythonApplication@@QAE@XZ$32:
  001ae	8b 4d e0	 mov	 ecx, DWORD PTR _this$[ebp]
  001b1	81 c1 10 c0 01
	00		 add	 ecx, 114704		; 0001c010H
  001b7	e9 00 00 00 00	 jmp	 ??1CPythonSafeBox@@UAE@XZ ; CPythonSafeBox::~CPythonSafeBox
__unwindfunclet$??0CPythonApplication@@QAE@XZ$33:
  001bc	8b 4d e0	 mov	 ecx, DWORD PTR _this$[ebp]
  001bf	81 c1 30 c0 01
	00		 add	 ecx, 114736		; 0001c030H
  001c5	e9 00 00 00 00	 jmp	 ??1CPythonGuild@@UAE@XZ	; CPythonGuild::~CPythonGuild
__unwindfunclet$??0CPythonApplication@@QAE@XZ$34:
  001ca	8b 4d e0	 mov	 ecx, DWORD PTR _this$[ebp]
  001cd	81 c1 c8 c0 01
	00		 add	 ecx, 114888		; 0001c0c8H
  001d3	e9 00 00 00 00	 jmp	 ??1CGuildMarkManager@@UAE@XZ ; CGuildMarkManager::~CGuildMarkManager
__unwindfunclet$??0CPythonApplication@@QAE@XZ$35:
  001d8	8b 4d e0	 mov	 ecx, DWORD PTR _this$[ebp]
  001db	81 c1 04 c1 01
	00		 add	 ecx, 114948		; 0001c104H
  001e1	e9 00 00 00 00	 jmp	 ??1CGuildMarkDownloader@@UAE@XZ ; CGuildMarkDownloader::~CGuildMarkDownloader
__unwindfunclet$??0CPythonApplication@@QAE@XZ$36:
  001e6	8b 4d e0	 mov	 ecx, DWORD PTR _this$[ebp]
  001e9	81 c1 b4 c1 01
	00		 add	 ecx, 115124		; 0001c1b4H
  001ef	e9 00 00 00 00	 jmp	 ??1CGuildMarkUploader@@UAE@XZ ; CGuildMarkUploader::~CGuildMarkUploader
__unwindfunclet$??0CPythonApplication@@QAE@XZ$37:
  001f4	8b 4d e0	 mov	 ecx, DWORD PTR _this$[ebp]
  001f7	81 c1 34 c2 01
	00		 add	 ecx, 115252		; 0001c234H
  001fd	e9 00 00 00 00	 jmp	 ??1CAccountConnector@@UAE@XZ ; CAccountConnector::~CAccountConnector
__unwindfunclet$??0CPythonApplication@@QAE@XZ$38:
  00202	8b 4d e0	 mov	 ecx, DWORD PTR _this$[ebp]
  00205	81 c1 0c c3 01
	00		 add	 ecx, 115468		; 0001c30cH
  0020b	e9 00 00 00 00	 jmp	 ??1CGraphicDevice@@UAE@XZ ; CGraphicDevice::~CGraphicDevice
__unwindfunclet$??0CPythonApplication@@QAE@XZ$39:
  00210	8b 4d e0	 mov	 ecx, DWORD PTR _this$[ebp]
  00213	81 c1 20 c3 01
	00		 add	 ecx, 115488		; 0001c320H
  00219	e9 00 00 00 00	 jmp	 ??1CNetworkDevice@@UAE@XZ ; CNetworkDevice::~CNetworkDevice
__unwindfunclet$??0CPythonApplication@@QAE@XZ$40:
  0021e	8b 4d e0	 mov	 ecx, DWORD PTR _this$[ebp]
  00221	81 c1 28 c3 01
	00		 add	 ecx, 115496		; 0001c328H
  00227	e9 00 00 00 00	 jmp	 ??1CPythonSystem@@UAE@XZ ; CPythonSystem::~CPythonSystem
__unwindfunclet$??0CPythonApplication@@QAE@XZ$41:
  0022c	8b 4d e0	 mov	 ecx, DWORD PTR _this$[ebp]
  0022f	81 c1 30 eb 01
	00		 add	 ecx, 125744		; 0001eb30H
  00235	e9 00 00 00 00	 jmp	 ??1?$map@HPAXU?$less@H@std@@V?$allocator@U?$pair@$$CBHPAX@std@@@2@@std@@QAE@XZ
__unwindfunclet$??0CPythonApplication@@QAE@XZ$42:
  0023a	8b 4d e0	 mov	 ecx, DWORD PTR _this$[ebp]
  0023d	81 c1 4c eb 01
	00		 add	 ecx, 125772		; 0001eb4cH
  00243	e9 00 00 00 00	 jmp	 ??1?$basic_string@DU?$char_traits@D@std@@V?$allocator@D@2@@std@@QAE@XZ ; std::basic_string<char,std::char_traits<char>,std::allocator<char> >::~basic_string<char,std::char_traits<char>,std::allocator<char> >
  00248	cc		 int	 3
  00249	cc		 int	 3
  0024a	cc		 int	 3
  0024b	cc		 int	 3
  0024c	cc		 int	 3
__ehhandler$??0CPythonApplication@@QAE@XZ:
  0024d	90		 npad	 1
  0024e	90		 npad	 1
  0024f	8b 54 24 08	 mov	 edx, DWORD PTR [esp+8]
  00253	8d 42 0c	 lea	 eax, DWORD PTR [edx+12]
  00256	8b 4a c8	 mov	 ecx, DWORD PTR [edx-56]
  00259	33 c8		 xor	 ecx, eax
  0025b	e8 00 00 00 00	 call	 @__security_check_cookie@4
  00260	8b 4a fc	 mov	 ecx, DWORD PTR [edx-4]
  00263	33 c8		 xor	 ecx, eax
  00265	e8 00 00 00 00	 call	 @__security_check_cookie@4
  0026a	b8 00 00 00 00	 mov	 eax, OFFSET __ehfuncinfo$??0CPythonApplication@@QAE@XZ
  0026f	e9 00 00 00 00	 jmp	 ___CxxFrameHandler3
text$x	ENDS
??0CPythonApplication@@QAE@XZ ENDP			; CPythonApplication::CPythonApplication
; Function compile flags: /Odspy
; File D:\Metin2 Server Files\mainline\SRC_2014\Metin2Client\UserInterface\MovieMan.h
; File D:\Metin2 Server Files\mainline\SRC_2014\Metin2Client\eterBase\Singleton.h
;	COMDAT ??_GCMovieMan@@UAEPAXI@Z
_TEXT	SEGMENT
_this$ = -4						; size = 4
___flags$ = 8						; size = 4
??_GCMovieMan@@UAEPAXI@Z PROC				; CMovieMan::`scalar deleting destructor', COMDAT
; _this$ = ecx
  00000	55		 push	 ebp
  00001	8b ec		 mov	 ebp, esp
  00003	51		 push	 ecx
  00004	89 4d fc	 mov	 DWORD PTR _this$[ebp], ecx
; File D:\Metin2 Server Files\mainline\SRC_2014\Metin2Client\UserInterface\MovieMan.h

; 36   : 	{

  00007	8b 45 fc	 mov	 eax, DWORD PTR _this$[ebp]
  0000a	c7 00 00 00 00
	00		 mov	 DWORD PTR [eax], OFFSET ??_7CMovieMan@@6B@

; 37   : 		CoUninitialize();

  00010	ff 15 00 00 00
	00		 call	 DWORD PTR __imp__CoUninitialize@0
; File D:\Metin2 Server Files\mainline\SRC_2014\Metin2Client\eterBase\Singleton.h

; 19   : 	{ 

  00016	8b 45 fc	 mov	 eax, DWORD PTR _this$[ebp]
  00019	c7 00 00 00 00
	00		 mov	 DWORD PTR [eax], OFFSET ??_7?$CSingleton@VCMovieMan@@@@6B@

; 20   : 		assert(ms_singleton);
; 21   : 		ms_singleton = 0; 

  0001f	83 25 00 00 00
	00 00		 and	 DWORD PTR ?ms_singleton@?$CSingleton@VCMovieMan@@@@0PAVCMovieMan@@A, 0 ; CSingleton<CMovieMan>::ms_singleton
  00026	8b 45 08	 mov	 eax, DWORD PTR ___flags$[ebp]
  00029	83 e0 01	 and	 eax, 1
  0002c	74 0c		 je	 SHORT $LN2@scalar
  0002e	6a 28		 push	 40			; 00000028H
  00030	ff 75 fc	 push	 DWORD PTR _this$[ebp]
  00033	e8 00 00 00 00	 call	 ??3@YAXPAXI@Z		; operator delete
  00038	59		 pop	 ecx
  00039	59		 pop	 ecx
$LN2@scalar:
  0003a	8b 45 fc	 mov	 eax, DWORD PTR _this$[ebp]
  0003d	c9		 leave
  0003e	c2 04 00	 ret	 4
??_GCMovieMan@@UAEPAXI@Z ENDP				; CMovieMan::`scalar deleting destructor'
_TEXT	ENDS
; Function compile flags: /Odspy
; File D:\Metin2 Server Files\mainline\SRC_2014\Metin2Client\UserInterface\MovieMan.h
; File D:\Metin2 Server Files\mainline\SRC_2014\Metin2Client\eterBase\Singleton.h
; File D:\Metin2 Server Files\mainline\SRC_2014\Metin2Client\UserInterface\MovieMan.h
;	COMDAT ??1CMovieMan@@UAE@XZ
_TEXT	SEGMENT
_this$ = -4						; size = 4
??1CMovieMan@@UAE@XZ PROC				; CMovieMan::~CMovieMan, COMDAT
; _this$ = ecx

; 36   : 	{

  00000	55		 push	 ebp
  00001	8b ec		 mov	 ebp, esp
  00003	51		 push	 ecx
  00004	89 4d fc	 mov	 DWORD PTR _this$[ebp], ecx
  00007	8b 45 fc	 mov	 eax, DWORD PTR _this$[ebp]
  0000a	c7 00 00 00 00
	00		 mov	 DWORD PTR [eax], OFFSET ??_7CMovieMan@@6B@

; 37   : 		CoUninitialize();

  00010	ff 15 00 00 00
	00		 call	 DWORD PTR __imp__CoUninitialize@0
; File D:\Metin2 Server Files\mainline\SRC_2014\Metin2Client\eterBase\Singleton.h

; 19   : 	{ 

  00016	8b 45 fc	 mov	 eax, DWORD PTR _this$[ebp]
  00019	c7 00 00 00 00
	00		 mov	 DWORD PTR [eax], OFFSET ??_7?$CSingleton@VCMovieMan@@@@6B@

; 20   : 		assert(ms_singleton);
; 21   : 		ms_singleton = 0; 

  0001f	83 25 00 00 00
	00 00		 and	 DWORD PTR ?ms_singleton@?$CSingleton@VCMovieMan@@@@0PAVCMovieMan@@A, 0 ; CSingleton<CMovieMan>::ms_singleton
; File D:\Metin2 Server Files\mainline\SRC_2014\Metin2Client\UserInterface\MovieMan.h

; 38   : 	};

  00026	c9		 leave
  00027	c3		 ret	 0
??1CMovieMan@@UAE@XZ ENDP				; CMovieMan::~CMovieMan
_TEXT	ENDS
; Function compile flags: /Odspy
; File D:\Metin2 Server Files\mainline\SRC_2014\Metin2Client\UserInterface\MovieMan.h
; File D:\Metin2 Server Files\mainline\SRC_2014\Metin2Client\eterBase\Singleton.h
; File D:\Metin2 Server Files\mainline\SRC_2014\Metin2Client\UserInterface\MovieMan.h
;	COMDAT ??0CMovieMan@@QAE@XZ
_TEXT	SEGMENT
_offset$1 = -8						; size = 4
_this$ = -4						; size = 4
??0CMovieMan@@QAE@XZ PROC				; CMovieMan::CMovieMan, COMDAT
; _this$ = ecx

; 31   : 	{

  00000	55		 push	 ebp
  00001	8b ec		 mov	 ebp, esp
  00003	51		 push	 ecx
  00004	51		 push	 ecx
  00005	89 4d fc	 mov	 DWORD PTR _this$[ebp], ecx
; File D:\Metin2 Server Files\mainline\SRC_2014\Metin2Client\eterBase\Singleton.h

; 12   : 	{ 

  00008	8b 45 fc	 mov	 eax, DWORD PTR _this$[ebp]
  0000b	c7 00 00 00 00
	00		 mov	 DWORD PTR [eax], OFFSET ??_7?$CSingleton@VCMovieMan@@@@6B@

; 13   : 		assert(!ms_singleton);
; 14   : 		int offset = (int) (T*) 1 - (int) (CSingleton <T>*) (T*) 1; 

  00011	33 c0		 xor	 eax, eax
  00013	89 45 f8	 mov	 DWORD PTR _offset$1[ebp], eax

; 15   : 		ms_singleton = (T*) ((int) this + offset);

  00016	8b 45 fc	 mov	 eax, DWORD PTR _this$[ebp]
  00019	03 45 f8	 add	 eax, DWORD PTR _offset$1[ebp]
  0001c	a3 00 00 00 00	 mov	 DWORD PTR ?ms_singleton@?$CSingleton@VCMovieMan@@@@0PAVCMovieMan@@A, eax ; CSingleton<CMovieMan>::ms_singleton
; File D:\Metin2 Server Files\mainline\SRC_2014\Metin2Client\UserInterface\MovieMan.h

; 31   : 	{

  00021	8b 45 fc	 mov	 eax, DWORD PTR _this$[ebp]
  00024	c7 00 00 00 00
	00		 mov	 DWORD PTR [eax], OFFSET ??_7CMovieMan@@6B@

; 28   : 		  m_usingRGB32(false),

  0002a	8b 45 fc	 mov	 eax, DWORD PTR _this$[ebp]
  0002d	c6 40 04 00	 mov	 BYTE PTR [eax+4], 0

; 26   : 		: m_movieWidth(0),

  00031	8b 45 fc	 mov	 eax, DWORD PTR _this$[ebp]
  00034	83 60 08 00	 and	 DWORD PTR [eax+8], 0

; 27   : 		  m_movieHeight(0),

  00038	8b 45 fc	 mov	 eax, DWORD PTR _this$[ebp]
  0003b	83 60 0c 00	 and	 DWORD PTR [eax+12], 0

; 29   : 		  m_pPrimarySurface(NULL),

  0003f	8b 45 fc	 mov	 eax, DWORD PTR _this$[ebp]
  00042	83 60 20 00	 and	 DWORD PTR [eax+32], 0

; 30   : 		  m_pBasicAudio(NULL)

  00046	8b 45 fc	 mov	 eax, DWORD PTR _this$[ebp]
  00049	83 60 24 00	 and	 DWORD PTR [eax+36], 0

; 32   : 		CoInitialize(NULL);

  0004d	6a 00		 push	 0
  0004f	ff 15 00 00 00
	00		 call	 DWORD PTR __imp__CoInitialize@4

; 33   : 	};

  00055	8b 45 fc	 mov	 eax, DWORD PTR _this$[ebp]
  00058	c9		 leave
  00059	c3		 ret	 0
??0CMovieMan@@QAE@XZ ENDP				; CMovieMan::CMovieMan
_TEXT	ENDS
; Function compile flags: /Odspy
; File D:\Metin2 Server Files\mainline\SRC_2014\Metin2Client\eterBase\Singleton.h
;	COMDAT ??_G?$CSingleton@VCMovieMan@@@@UAEPAXI@Z
_TEXT	SEGMENT
_this$ = -4						; size = 4
___flags$ = 8						; size = 4
??_G?$CSingleton@VCMovieMan@@@@UAEPAXI@Z PROC		; CSingleton<CMovieMan>::`scalar deleting destructor', COMDAT
; _this$ = ecx
  00000	55		 push	 ebp
  00001	8b ec		 mov	 ebp, esp
  00003	51		 push	 ecx
  00004	89 4d fc	 mov	 DWORD PTR _this$[ebp], ecx

; 19   : 	{ 

  00007	8b 45 fc	 mov	 eax, DWORD PTR _this$[ebp]
  0000a	c7 00 00 00 00
	00		 mov	 DWORD PTR [eax], OFFSET ??_7?$CSingleton@VCMovieMan@@@@6B@

; 20   : 		assert(ms_singleton);
; 21   : 		ms_singleton = 0; 

  00010	83 25 00 00 00
	00 00		 and	 DWORD PTR ?ms_singleton@?$CSingleton@VCMovieMan@@@@0PAVCMovieMan@@A, 0 ; CSingleton<CMovieMan>::ms_singleton
  00017	8b 45 08	 mov	 eax, DWORD PTR ___flags$[ebp]
  0001a	83 e0 01	 and	 eax, 1
  0001d	74 0c		 je	 SHORT $LN2@scalar
  0001f	6a 04		 push	 4
  00021	ff 75 fc	 push	 DWORD PTR _this$[ebp]
  00024	e8 00 00 00 00	 call	 ??3@YAXPAXI@Z		; operator delete
  00029	59		 pop	 ecx
  0002a	59		 pop	 ecx
$LN2@scalar:
  0002b	8b 45 fc	 mov	 eax, DWORD PTR _this$[ebp]
  0002e	c9		 leave
  0002f	c2 04 00	 ret	 4
??_G?$CSingleton@VCMovieMan@@@@UAEPAXI@Z ENDP		; CSingleton<CMovieMan>::`scalar deleting destructor'
_TEXT	ENDS
; Function compile flags: /Odspy
; File D:\Metin2 Server Files\mainline\SRC_2014\Metin2Client\UserInterface\AbstractApplication.h
; File D:\Metin2 Server Files\mainline\SRC_2014\Metin2Client\UserInterface\AbstractSingleton.h
;	COMDAT ??_GIAbstractApplication@@UAEPAXI@Z
_TEXT	SEGMENT
_this$ = -4						; size = 4
___flags$ = 8						; size = 4
??_GIAbstractApplication@@UAEPAXI@Z PROC		; IAbstractApplication::`scalar deleting destructor', COMDAT
; _this$ = ecx
  00000	55		 push	 ebp
  00001	8b ec		 mov	 ebp, esp
  00003	51		 push	 ecx
  00004	89 4d fc	 mov	 DWORD PTR _this$[ebp], ecx
; File D:\Metin2 Server Files\mainline\SRC_2014\Metin2Client\UserInterface\AbstractApplication.h

; 33   : 		virtual ~IAbstractApplication() {}

  00007	8b 45 fc	 mov	 eax, DWORD PTR _this$[ebp]
  0000a	c7 00 00 00 00
	00		 mov	 DWORD PTR [eax], OFFSET ??_7IAbstractApplication@@6B@
; File D:\Metin2 Server Files\mainline\SRC_2014\Metin2Client\UserInterface\AbstractSingleton.h

; 17   : 	{ 

  00010	8b 45 fc	 mov	 eax, DWORD PTR _this$[ebp]
  00013	c7 00 00 00 00
	00		 mov	 DWORD PTR [eax], OFFSET ??_7?$TAbstractSingleton@VIAbstractApplication@@@@6B@

; 18   : 		assert(ms_singleton);
; 19   : 		ms_singleton = 0; 

  00019	83 25 00 00 00
	00 00		 and	 DWORD PTR ?ms_singleton@?$TAbstractSingleton@VIAbstractApplication@@@@0PAVIAbstractApplication@@A, 0 ; TAbstractSingleton<IAbstractApplication>::ms_singleton
  00020	8b 45 08	 mov	 eax, DWORD PTR ___flags$[ebp]
  00023	83 e0 01	 and	 eax, 1
  00026	74 0c		 je	 SHORT $LN2@scalar
  00028	6a 04		 push	 4
  0002a	ff 75 fc	 push	 DWORD PTR _this$[ebp]
  0002d	e8 00 00 00 00	 call	 ??3@YAXPAXI@Z		; operator delete
  00032	59		 pop	 ecx
  00033	59		 pop	 ecx
$LN2@scalar:
  00034	8b 45 fc	 mov	 eax, DWORD PTR _this$[ebp]
  00037	c9		 leave
  00038	c2 04 00	 ret	 4
??_GIAbstractApplication@@UAEPAXI@Z ENDP		; IAbstractApplication::`scalar deleting destructor'
_TEXT	ENDS
; Function compile flags: /Odspy
; File D:\Metin2 Server Files\mainline\SRC_2014\Metin2Client\UserInterface\AbstractApplication.h
; File D:\Metin2 Server Files\mainline\SRC_2014\Metin2Client\UserInterface\AbstractSingleton.h
; File D:\Metin2 Server Files\mainline\SRC_2014\Metin2Client\UserInterface\AbstractApplication.h
;	COMDAT ??1IAbstractApplication@@UAE@XZ
_TEXT	SEGMENT
_this$ = -4						; size = 4
??1IAbstractApplication@@UAE@XZ PROC			; IAbstractApplication::~IAbstractApplication, COMDAT
; _this$ = ecx

; 33   : 		virtual ~IAbstractApplication() {}

  00000	55		 push	 ebp
  00001	8b ec		 mov	 ebp, esp
  00003	51		 push	 ecx
  00004	89 4d fc	 mov	 DWORD PTR _this$[ebp], ecx
  00007	8b 45 fc	 mov	 eax, DWORD PTR _this$[ebp]
  0000a	c7 00 00 00 00
	00		 mov	 DWORD PTR [eax], OFFSET ??_7IAbstractApplication@@6B@
; File D:\Metin2 Server Files\mainline\SRC_2014\Metin2Client\UserInterface\AbstractSingleton.h

; 17   : 	{ 

  00010	8b 45 fc	 mov	 eax, DWORD PTR _this$[ebp]
  00013	c7 00 00 00 00
	00		 mov	 DWORD PTR [eax], OFFSET ??_7?$TAbstractSingleton@VIAbstractApplication@@@@6B@

; 18   : 		assert(ms_singleton);
; 19   : 		ms_singleton = 0; 

  00019	83 25 00 00 00
	00 00		 and	 DWORD PTR ?ms_singleton@?$TAbstractSingleton@VIAbstractApplication@@@@0PAVIAbstractApplication@@A, 0 ; TAbstractSingleton<IAbstractApplication>::ms_singleton
; File D:\Metin2 Server Files\mainline\SRC_2014\Metin2Client\UserInterface\AbstractApplication.h

; 33   : 		virtual ~IAbstractApplication() {}

  00020	c9		 leave
  00021	c3		 ret	 0
??1IAbstractApplication@@UAE@XZ ENDP			; IAbstractApplication::~IAbstractApplication
_TEXT	ENDS
; Function compile flags: /Odspy
; File D:\Metin2 Server Files\mainline\SRC_2014\Metin2Client\UserInterface\AbstractApplication.h
; File D:\Metin2 Server Files\mainline\SRC_2014\M2Data\include\d3dx8math.inl
; File D:\Metin2 Server Files\mainline\SRC_2014\Metin2Client\UserInterface\AbstractApplication.h
;	COMDAT ??0SCameraSetting@IAbstractApplication@@QAE@XZ
_TEXT	SEGMENT
_this$ = -12						; size = 4
_this$ = -8						; size = 4
_this$ = -4						; size = 4
??0SCameraSetting@IAbstractApplication@@QAE@XZ PROC	; IAbstractApplication::SCameraSetting::SCameraSetting, COMDAT
; _this$ = ecx

; 28   : 								fZoom(0.0f) {}

  00000	55		 push	 ebp
  00001	8b ec		 mov	 ebp, esp
  00003	83 ec 0c	 sub	 esp, 12			; 0000000cH
  00006	89 4d fc	 mov	 DWORD PTR _this$[ebp], ecx

; 15   : 		};
; 16   : 
; 17   : 		struct SCameraSetting
; 18   : 		{
; 19   : 			D3DXVECTOR3				v3CenterPosition;
; 20   : 			SCameraPos				kCmrPos;
; 21   : 			float					fRotation;
; 22   : 			float					fPitch;
; 23   : 			float					fZoom;
; 24   : 
; 25   : 			SCameraSetting() :	v3CenterPosition(0.0f, 0.0f, 0.0f),

  00009	8b 45 fc	 mov	 eax, DWORD PTR _this$[ebp]
  0000c	89 45 f8	 mov	 DWORD PTR _this$[ebp], eax
; File D:\Metin2 Server Files\mainline\SRC_2014\M2Data\include\d3dx8math.inl

; 180  :     x = fx;

  0000f	8b 45 f8	 mov	 eax, DWORD PTR _this$[ebp]
  00012	0f 57 c0	 xorps	 xmm0, xmm0
  00015	f3 0f 11 00	 movss	 DWORD PTR [eax], xmm0

; 181  :     y = fy;

  00019	8b 45 f8	 mov	 eax, DWORD PTR _this$[ebp]
  0001c	0f 57 c0	 xorps	 xmm0, xmm0
  0001f	f3 0f 11 40 04	 movss	 DWORD PTR [eax+4], xmm0

; 182  :     z = fz;

  00024	8b 45 f8	 mov	 eax, DWORD PTR _this$[ebp]
  00027	0f 57 c0	 xorps	 xmm0, xmm0
  0002a	f3 0f 11 40 08	 movss	 DWORD PTR [eax+8], xmm0
; File D:\Metin2 Server Files\mainline\SRC_2014\Metin2Client\UserInterface\AbstractApplication.h

; 28   : 								fZoom(0.0f) {}

  0002f	8b 45 fc	 mov	 eax, DWORD PTR _this$[ebp]
  00032	83 c0 0c	 add	 eax, 12			; 0000000cH
  00035	89 45 f4	 mov	 DWORD PTR _this$[ebp], eax

; 14   : 			SCameraPos() : m_fUpDir(0.0f), m_fViewDir(0.0f), m_fCrossDir(0.0f) {}

  00038	8b 45 f4	 mov	 eax, DWORD PTR _this$[ebp]
  0003b	0f 57 c0	 xorps	 xmm0, xmm0
  0003e	f3 0f 11 00	 movss	 DWORD PTR [eax], xmm0
  00042	8b 45 f4	 mov	 eax, DWORD PTR _this$[ebp]
  00045	0f 57 c0	 xorps	 xmm0, xmm0
  00048	f3 0f 11 40 04	 movss	 DWORD PTR [eax+4], xmm0
  0004d	8b 45 f4	 mov	 eax, DWORD PTR _this$[ebp]
  00050	0f 57 c0	 xorps	 xmm0, xmm0
  00053	f3 0f 11 40 08	 movss	 DWORD PTR [eax+8], xmm0

; 26   : 								fRotation(0.0f),

  00058	8b 45 fc	 mov	 eax, DWORD PTR _this$[ebp]
  0005b	0f 57 c0	 xorps	 xmm0, xmm0
  0005e	f3 0f 11 40 18	 movss	 DWORD PTR [eax+24], xmm0

; 27   : 								fPitch(0.0f),

  00063	8b 45 fc	 mov	 eax, DWORD PTR _this$[ebp]
  00066	0f 57 c0	 xorps	 xmm0, xmm0
  00069	f3 0f 11 40 1c	 movss	 DWORD PTR [eax+28], xmm0

; 28   : 								fZoom(0.0f) {}

  0006e	8b 45 fc	 mov	 eax, DWORD PTR _this$[ebp]
  00071	0f 57 c0	 xorps	 xmm0, xmm0
  00074	f3 0f 11 40 20	 movss	 DWORD PTR [eax+32], xmm0
  00079	8b 45 fc	 mov	 eax, DWORD PTR _this$[ebp]
  0007c	c9		 leave
  0007d	c3		 ret	 0
??0SCameraSetting@IAbstractApplication@@QAE@XZ ENDP	; IAbstractApplication::SCameraSetting::SCameraSetting
_TEXT	ENDS
; Function compile flags: /Odspy
; File D:\Metin2 Server Files\mainline\SRC_2014\Metin2Client\UserInterface\AbstractSingleton.h
;	COMDAT ??_G?$TAbstractSingleton@VIAbstractApplication@@@@UAEPAXI@Z
_TEXT	SEGMENT
_this$ = -4						; size = 4
___flags$ = 8						; size = 4
??_G?$TAbstractSingleton@VIAbstractApplication@@@@UAEPAXI@Z PROC ; TAbstractSingleton<IAbstractApplication>::`scalar deleting destructor', COMDAT
; _this$ = ecx
  00000	55		 push	 ebp
  00001	8b ec		 mov	 ebp, esp
  00003	51		 push	 ecx
  00004	89 4d fc	 mov	 DWORD PTR _this$[ebp], ecx

; 17   : 	{ 

  00007	8b 45 fc	 mov	 eax, DWORD PTR _this$[ebp]
  0000a	c7 00 00 00 00
	00		 mov	 DWORD PTR [eax], OFFSET ??_7?$TAbstractSingleton@VIAbstractApplication@@@@6B@

; 18   : 		assert(ms_singleton);
; 19   : 		ms_singleton = 0; 

  00010	83 25 00 00 00
	00 00		 and	 DWORD PTR ?ms_singleton@?$TAbstractSingleton@VIAbstractApplication@@@@0PAVIAbstractApplication@@A, 0 ; TAbstractSingleton<IAbstractApplication>::ms_singleton
  00017	8b 45 08	 mov	 eax, DWORD PTR ___flags$[ebp]
  0001a	83 e0 01	 and	 eax, 1
  0001d	74 0c		 je	 SHORT $LN2@scalar
  0001f	6a 04		 push	 4
  00021	ff 75 fc	 push	 DWORD PTR _this$[ebp]
  00024	e8 00 00 00 00	 call	 ??3@YAXPAXI@Z		; operator delete
  00029	59		 pop	 ecx
  0002a	59		 pop	 ecx
$LN2@scalar:
  0002b	8b 45 fc	 mov	 eax, DWORD PTR _this$[ebp]
  0002e	c9		 leave
  0002f	c2 04 00	 ret	 4
??_G?$TAbstractSingleton@VIAbstractApplication@@@@UAEPAXI@Z ENDP ; TAbstractSingleton<IAbstractApplication>::`scalar deleting destructor'
_TEXT	ENDS
; Function compile flags: /Odspy
;	COMDAT ??_GCGuildMarkUploader@@UAEPAXI@Z
_TEXT	SEGMENT
_this$ = -4						; size = 4
___flags$ = 8						; size = 4
??_GCGuildMarkUploader@@UAEPAXI@Z PROC			; CGuildMarkUploader::`scalar deleting destructor', COMDAT
; _this$ = ecx
  00000	55		 push	 ebp
  00001	8b ec		 mov	 ebp, esp
  00003	51		 push	 ecx
  00004	89 4d fc	 mov	 DWORD PTR _this$[ebp], ecx
  00007	8b 4d fc	 mov	 ecx, DWORD PTR _this$[ebp]
  0000a	e8 00 00 00 00	 call	 ??1CGuildMarkUploader@@UAE@XZ ; CGuildMarkUploader::~CGuildMarkUploader
  0000f	8b 45 08	 mov	 eax, DWORD PTR ___flags$[ebp]
  00012	83 e0 01	 and	 eax, 1
  00015	74 0f		 je	 SHORT $LN2@scalar
  00017	68 80 00 00 00	 push	 128			; 00000080H
  0001c	ff 75 fc	 push	 DWORD PTR _this$[ebp]
  0001f	e8 00 00 00 00	 call	 ??3@YAXPAXI@Z		; operator delete
  00024	59		 pop	 ecx
  00025	59		 pop	 ecx
$LN2@scalar:
  00026	8b 45 fc	 mov	 eax, DWORD PTR _this$[ebp]
  00029	c9		 leave
  0002a	c2 04 00	 ret	 4
??_GCGuildMarkUploader@@UAEPAXI@Z ENDP			; CGuildMarkUploader::`scalar deleting destructor'
_TEXT	ENDS
; Function compile flags: /Odspy
; File D:\Metin2 Server Files\mainline\SRC_2014\Metin2Client\UserInterface\GuildMarkUploader.h
; File D:\Metin2 Server Files\mainline\SRC_2014\Metin2Client\eterBase\Singleton.h
; File D:\Metin2 Server Files\mainline\SRC_2014\Metin2Client\UserInterface\GuildMarkUploader.h
;	COMDAT ??1CGuildMarkUploader@@UAE@XZ
_TEXT	SEGMENT
_this$ = -4						; size = 4
??1CGuildMarkUploader@@UAE@XZ PROC			; CGuildMarkUploader::~CGuildMarkUploader, COMDAT
; _this$ = ecx

; 22   : 		virtual ~CGuildMarkUploader() {}

  00000	55		 push	 ebp
  00001	8b ec		 mov	 ebp, esp
  00003	51		 push	 ecx
  00004	89 4d fc	 mov	 DWORD PTR _this$[ebp], ecx
  00007	8b 45 fc	 mov	 eax, DWORD PTR _this$[ebp]
  0000a	c7 00 00 00 00
	00		 mov	 DWORD PTR [eax], OFFSET ??_7CGuildMarkUploader@@6BCNetworkStream@@@
  00010	8b 45 fc	 mov	 eax, DWORD PTR _this$[ebp]
  00013	c7 40 7c 00 00
	00 00		 mov	 DWORD PTR [eax+124], OFFSET ??_7CGuildMarkUploader@@6B?$CSingleton@VCGuildMarkUploader@@@@@
; File D:\Metin2 Server Files\mainline\SRC_2014\Metin2Client\eterBase\Singleton.h

; 19   : 	{ 

  0001a	8b 45 fc	 mov	 eax, DWORD PTR _this$[ebp]
  0001d	c7 40 7c 00 00
	00 00		 mov	 DWORD PTR [eax+124], OFFSET ??_7?$CSingleton@VCGuildMarkUploader@@@@6B@

; 20   : 		assert(ms_singleton);
; 21   : 		ms_singleton = 0; 

  00024	83 25 00 00 00
	00 00		 and	 DWORD PTR ?ms_singleton@?$CSingleton@VCGuildMarkUploader@@@@0PAVCGuildMarkUploader@@A, 0 ; CSingleton<CGuildMarkUploader>::ms_singleton
; File D:\Metin2 Server Files\mainline\SRC_2014\Metin2Client\UserInterface\GuildMarkUploader.h

; 22   : 		virtual ~CGuildMarkUploader() {}

  0002b	8b 4d fc	 mov	 ecx, DWORD PTR _this$[ebp]
  0002e	e8 00 00 00 00	 call	 ??1CNetworkStream@@UAE@XZ ; CNetworkStream::~CNetworkStream
  00033	c9		 leave
  00034	c3		 ret	 0
??1CGuildMarkUploader@@UAE@XZ ENDP			; CGuildMarkUploader::~CGuildMarkUploader
_TEXT	ENDS
; Function compile flags: /Odspy
; File D:\Metin2 Server Files\mainline\SRC_2014\Metin2Client\UserInterface\GuildMarkUploader.h
; File D:\Metin2 Server Files\mainline\SRC_2014\Metin2Client\eterBase\Singleton.h
; File D:\Metin2 Server Files\mainline\SRC_2014\Metin2Client\UserInterface\GuildMarkUploader.h
;	COMDAT ??0CGuildMarkUploader@@QAE@XZ
_TEXT	SEGMENT
_offset$1 = -16						; size = 4
_this$ = -12						; size = 4
tv136 = -8						; size = 4
_this$ = -4						; size = 4
??0CGuildMarkUploader@@QAE@XZ PROC			; CGuildMarkUploader::CGuildMarkUploader, COMDAT
; _this$ = ecx

; 21   : 		CGuildMarkUploader() {}

  00000	55		 push	 ebp
  00001	8b ec		 mov	 ebp, esp
  00003	83 ec 10	 sub	 esp, 16			; 00000010H
  00006	89 4d fc	 mov	 DWORD PTR _this$[ebp], ecx
  00009	8b 4d fc	 mov	 ecx, DWORD PTR _this$[ebp]
  0000c	e8 00 00 00 00	 call	 ??0CNetworkStream@@QAE@XZ ; CNetworkStream::CNetworkStream
  00011	8b 45 fc	 mov	 eax, DWORD PTR _this$[ebp]
  00014	83 c0 7c	 add	 eax, 124		; 0000007cH
  00017	89 45 f4	 mov	 DWORD PTR _this$[ebp], eax
; File D:\Metin2 Server Files\mainline\SRC_2014\Metin2Client\eterBase\Singleton.h

; 12   : 	{ 

  0001a	8b 45 f4	 mov	 eax, DWORD PTR _this$[ebp]
  0001d	c7 00 00 00 00
	00		 mov	 DWORD PTR [eax], OFFSET ??_7?$CSingleton@VCGuildMarkUploader@@@@6B@

; 13   : 		assert(!ms_singleton);
; 14   : 		int offset = (int) (T*) 1 - (int) (CSingleton <T>*) (T*) 1; 

  00023	33 c0		 xor	 eax, eax
  00025	40		 inc	 eax
  00026	74 0a		 je	 SHORT $LN7@CGuildMark
  00028	33 c0		 xor	 eax, eax
  0002a	83 c0 7d	 add	 eax, 125		; 0000007dH
  0002d	89 45 f8	 mov	 DWORD PTR tv136[ebp], eax
  00030	eb 04		 jmp	 SHORT $LN8@CGuildMark
$LN7@CGuildMark:
  00032	83 65 f8 00	 and	 DWORD PTR tv136[ebp], 0
$LN8@CGuildMark:
  00036	33 c0		 xor	 eax, eax
  00038	40		 inc	 eax
  00039	2b 45 f8	 sub	 eax, DWORD PTR tv136[ebp]
  0003c	89 45 f0	 mov	 DWORD PTR _offset$1[ebp], eax

; 15   : 		ms_singleton = (T*) ((int) this + offset);

  0003f	8b 45 f4	 mov	 eax, DWORD PTR _this$[ebp]
  00042	03 45 f0	 add	 eax, DWORD PTR _offset$1[ebp]
  00045	a3 00 00 00 00	 mov	 DWORD PTR ?ms_singleton@?$CSingleton@VCGuildMarkUploader@@@@0PAVCGuildMarkUploader@@A, eax ; CSingleton<CGuildMarkUploader>::ms_singleton
; File D:\Metin2 Server Files\mainline\SRC_2014\Metin2Client\UserInterface\GuildMarkUploader.h

; 21   : 		CGuildMarkUploader() {}

  0004a	8b 45 fc	 mov	 eax, DWORD PTR _this$[ebp]
  0004d	c7 00 00 00 00
	00		 mov	 DWORD PTR [eax], OFFSET ??_7CGuildMarkUploader@@6BCNetworkStream@@@
  00053	8b 45 fc	 mov	 eax, DWORD PTR _this$[ebp]
  00056	c7 40 7c 00 00
	00 00		 mov	 DWORD PTR [eax+124], OFFSET ??_7CGuildMarkUploader@@6B?$CSingleton@VCGuildMarkUploader@@@@@
  0005d	8b 45 fc	 mov	 eax, DWORD PTR _this$[ebp]
  00060	c9		 leave
  00061	c3		 ret	 0
??0CGuildMarkUploader@@QAE@XZ ENDP			; CGuildMarkUploader::CGuildMarkUploader
_TEXT	ENDS
; Function compile flags: /Odspy
; File D:\Metin2 Server Files\mainline\SRC_2014\Metin2Client\eterBase\Singleton.h
;	COMDAT ??_G?$CSingleton@VCGuildMarkUploader@@@@UAEPAXI@Z
_TEXT	SEGMENT
_this$ = -4						; size = 4
___flags$ = 8						; size = 4
??_G?$CSingleton@VCGuildMarkUploader@@@@UAEPAXI@Z PROC	; CSingleton<CGuildMarkUploader>::`scalar deleting destructor', COMDAT
; _this$ = ecx
  00000	55		 push	 ebp
  00001	8b ec		 mov	 ebp, esp
  00003	51		 push	 ecx
  00004	89 4d fc	 mov	 DWORD PTR _this$[ebp], ecx

; 19   : 	{ 

  00007	8b 45 fc	 mov	 eax, DWORD PTR _this$[ebp]
  0000a	c7 00 00 00 00
	00		 mov	 DWORD PTR [eax], OFFSET ??_7?$CSingleton@VCGuildMarkUploader@@@@6B@

; 20   : 		assert(ms_singleton);
; 21   : 		ms_singleton = 0; 

  00010	83 25 00 00 00
	00 00		 and	 DWORD PTR ?ms_singleton@?$CSingleton@VCGuildMarkUploader@@@@0PAVCGuildMarkUploader@@A, 0 ; CSingleton<CGuildMarkUploader>::ms_singleton
  00017	8b 45 08	 mov	 eax, DWORD PTR ___flags$[ebp]
  0001a	83 e0 01	 and	 eax, 1
  0001d	74 0c		 je	 SHORT $LN2@scalar
  0001f	6a 04		 push	 4
  00021	ff 75 fc	 push	 DWORD PTR _this$[ebp]
  00024	e8 00 00 00 00	 call	 ??3@YAXPAXI@Z		; operator delete
  00029	59		 pop	 ecx
  0002a	59		 pop	 ecx
$LN2@scalar:
  0002b	8b 45 fc	 mov	 eax, DWORD PTR _this$[ebp]
  0002e	c9		 leave
  0002f	c2 04 00	 ret	 4
??_G?$CSingleton@VCGuildMarkUploader@@@@UAEPAXI@Z ENDP	; CSingleton<CGuildMarkUploader>::`scalar deleting destructor'
_TEXT	ENDS
; Function compile flags: /Odspy
; File C:\Program Files (x86)\Microsoft Visual Studio\2019\Community\VC\Tools\MSVC\14.28.29333\include\xmemory
;	COMDAT ??$_Allocate_manually_vector_aligned@U_Default_allocate_traits@std@@@std@@YAPAXI@Z
_TEXT	SEGMENT
__Ptr$ = -12						; size = 4
__Block_size$ = -8					; size = 4
__Ptr_container$ = -4					; size = 4
__Bytes$ = 8						; size = 4
??$_Allocate_manually_vector_aligned@U_Default_allocate_traits@std@@@std@@YAPAXI@Z PROC ; std::_Allocate_manually_vector_aligned<std::_Default_allocate_traits>, COMDAT

; 113  : __declspec(allocator) void* _Allocate_manually_vector_aligned(const size_t _Bytes) {

  00000	55		 push	 ebp
  00001	8b ec		 mov	 ebp, esp
  00003	83 ec 0c	 sub	 esp, 12			; 0000000cH

; 114  :     // allocate _Bytes manually aligned to at least _Big_allocation_alignment
; 115  :     const size_t _Block_size = _Non_user_size + _Bytes;

  00006	8b 45 08	 mov	 eax, DWORD PTR __Bytes$[ebp]
  00009	83 c0 23	 add	 eax, 35			; 00000023H
  0000c	89 45 f8	 mov	 DWORD PTR __Block_size$[ebp], eax

; 116  :     if (_Block_size <= _Bytes) {

  0000f	8b 45 f8	 mov	 eax, DWORD PTR __Block_size$[ebp]
  00012	3b 45 08	 cmp	 eax, DWORD PTR __Bytes$[ebp]
  00015	77 05		 ja	 SHORT $LN12@Allocate_m

; 117  :         _Throw_bad_array_new_length(); // add overflow

  00017	e8 00 00 00 00	 call	 ?_Throw_bad_array_new_length@std@@YAXXZ ; std::_Throw_bad_array_new_length
$LN12@Allocate_m:

; 77   :         return ::operator new(_Bytes);

  0001c	ff 75 f8	 push	 DWORD PTR __Block_size$[ebp]
  0001f	e8 00 00 00 00	 call	 ??2@YAPAXI@Z		; operator new
  00024	59		 pop	 ecx

; 118  :     }
; 119  : 
; 120  :     const uintptr_t _Ptr_container = reinterpret_cast<uintptr_t>(_Traits::_Allocate(_Block_size));

  00025	89 45 fc	 mov	 DWORD PTR __Ptr_container$[ebp], eax
$LN4@Allocate_m:

; 121  :     _STL_VERIFY(_Ptr_container != 0, "invalid argument"); // validate even in release since we're doing p[-1]

  00028	83 7d fc 00	 cmp	 DWORD PTR __Ptr_container$[ebp], 0
  0002c	74 02		 je	 SHORT $LN7@Allocate_m
  0002e	eb 09		 jmp	 SHORT $LN2@Allocate_m
$LN7@Allocate_m:
  00030	e8 00 00 00 00	 call	 __invalid_parameter_noinfo_noreturn
  00035	33 c0		 xor	 eax, eax
  00037	75 f7		 jne	 SHORT $LN7@Allocate_m
$LN2@Allocate_m:
  00039	33 c0		 xor	 eax, eax
  0003b	75 eb		 jne	 SHORT $LN4@Allocate_m

; 122  :     void* const _Ptr = reinterpret_cast<void*>((_Ptr_container + _Non_user_size) & ~(_Big_allocation_alignment - 1));

  0003d	8b 45 fc	 mov	 eax, DWORD PTR __Ptr_container$[ebp]
  00040	83 c0 23	 add	 eax, 35			; 00000023H
  00043	83 e0 e0	 and	 eax, -32		; ffffffe0H
  00046	89 45 f4	 mov	 DWORD PTR __Ptr$[ebp], eax

; 123  :     static_cast<uintptr_t*>(_Ptr)[-1] = _Ptr_container;

  00049	6a 04		 push	 4
  0004b	58		 pop	 eax
  0004c	6b c0 ff	 imul	 eax, eax, -1
  0004f	8b 4d f4	 mov	 ecx, DWORD PTR __Ptr$[ebp]
  00052	8b 55 fc	 mov	 edx, DWORD PTR __Ptr_container$[ebp]
  00055	89 14 01	 mov	 DWORD PTR [ecx+eax], edx

; 124  : 
; 125  : #ifdef _DEBUG
; 126  :     static_cast<uintptr_t*>(_Ptr)[-2] = _Big_allocation_sentinel;
; 127  : #endif // _DEBUG
; 128  :     return _Ptr;

  00058	8b 45 f4	 mov	 eax, DWORD PTR __Ptr$[ebp]
$LN11@Allocate_m:

; 129  : }

  0005b	c9		 leave
  0005c	c3		 ret	 0
??$_Allocate_manually_vector_aligned@U_Default_allocate_traits@std@@@std@@YAPAXI@Z ENDP ; std::_Allocate_manually_vector_aligned<std::_Default_allocate_traits>
_TEXT	ENDS
; Function compile flags: /Odspy
; File C:\Program Files (x86)\Microsoft Visual Studio\2019\Community\VC\Tools\MSVC\14.28.29333\include\xmemory
;	COMDAT ??$_Allocate@$07U_Default_allocate_traits@std@@$0A@@std@@YAPAXI@Z
_TEXT	SEGMENT
__Bytes$ = 8						; size = 4
??$_Allocate@$07U_Default_allocate_traits@std@@$0A@@std@@YAPAXI@Z PROC ; std::_Allocate<8,std::_Default_allocate_traits,0>, COMDAT

; 197  : __declspec(allocator) void* _Allocate(const size_t _Bytes) {

  00000	55		 push	 ebp
  00001	8b ec		 mov	 ebp, esp

; 198  :     // allocate _Bytes when !_HAS_ALIGNED_NEW || _Align <= __STDCPP_DEFAULT_NEW_ALIGNMENT__
; 199  : #if defined(_M_IX86) || defined(_M_X64)
; 200  :     if (_Bytes >= _Big_allocation_threshold) { // boost the alignment of big allocations to help autovectorization

  00003	81 7d 08 00 10
	00 00		 cmp	 DWORD PTR __Bytes$[ebp], 4096 ; 00001000H
  0000a	72 0b		 jb	 SHORT $LN2@Allocate

; 201  :         return _Allocate_manually_vector_aligned<_Traits>(_Bytes);

  0000c	ff 75 08	 push	 DWORD PTR __Bytes$[ebp]
  0000f	e8 00 00 00 00	 call	 ??$_Allocate_manually_vector_aligned@U_Default_allocate_traits@std@@@std@@YAPAXI@Z ; std::_Allocate_manually_vector_aligned<std::_Default_allocate_traits>
  00014	59		 pop	 ecx
  00015	eb 13		 jmp	 SHORT $LN1@Allocate
$LN2@Allocate:

; 202  :     }
; 203  : #endif // defined(_M_IX86) || defined(_M_X64)
; 204  : 
; 205  :     if (_Bytes != 0) {

  00017	83 7d 08 00	 cmp	 DWORD PTR __Bytes$[ebp], 0
  0001b	74 0b		 je	 SHORT $LN3@Allocate

; 77   :         return ::operator new(_Bytes);

  0001d	ff 75 08	 push	 DWORD PTR __Bytes$[ebp]
  00020	e8 00 00 00 00	 call	 ??2@YAPAXI@Z		; operator new
  00025	59		 pop	 ecx

; 206  :         return _Traits::_Allocate(_Bytes);

  00026	eb 02		 jmp	 SHORT $LN1@Allocate
$LN3@Allocate:

; 207  :     }
; 208  : 
; 209  :     return nullptr;

  00028	33 c0		 xor	 eax, eax
$LN1@Allocate:

; 210  : }

  0002a	5d		 pop	 ebp
  0002b	c3		 ret	 0
??$_Allocate@$07U_Default_allocate_traits@std@@$0A@@std@@YAPAXI@Z ENDP ; std::_Allocate<8,std::_Default_allocate_traits,0>
_TEXT	ENDS
; Function compile flags: /Odspy
; File C:\Program Files (x86)\Microsoft Visual Studio\2019\Community\VC\Tools\MSVC\14.28.29333\include\xmemory
;	COMDAT ??$_Deallocate@$07$0A@@std@@YAXPAXI@Z
_TEXT	SEGMENT
__$EHRec$ = -12						; size = 12
__Ptr$ = 8						; size = 4
__Bytes$ = 12						; size = 4
??$_Deallocate@$07$0A@@std@@YAXPAXI@Z PROC		; std::_Deallocate<8,0>, COMDAT

; 213  : void _Deallocate(void* _Ptr, size_t _Bytes) noexcept {

  00000	55		 push	 ebp
  00001	8b ec		 mov	 ebp, esp
  00003	6a ff		 push	 -1
  00005	68 00 00 00 00	 push	 __ehhandler$??$_Deallocate@$07$0A@@std@@YAXPAXI@Z
  0000a	64 a1 00 00 00
	00		 mov	 eax, DWORD PTR fs:0
  00010	50		 push	 eax
  00011	a1 00 00 00 00	 mov	 eax, DWORD PTR ___security_cookie
  00016	33 c5		 xor	 eax, ebp
  00018	50		 push	 eax
  00019	8d 45 f4	 lea	 eax, DWORD PTR __$EHRec$[ebp]
  0001c	64 a3 00 00 00
	00		 mov	 DWORD PTR fs:0, eax

; 214  :     // deallocate storage allocated by _Allocate when !_HAS_ALIGNED_NEW || _Align <= __STDCPP_DEFAULT_NEW_ALIGNMENT__
; 215  : #if defined(_M_IX86) || defined(_M_X64)
; 216  :     if (_Bytes >= _Big_allocation_threshold) { // boost the alignment of big allocations to help autovectorization

  00022	81 7d 0c 00 10
	00 00		 cmp	 DWORD PTR __Bytes$[ebp], 4096 ; 00001000H
  00029	72 0f		 jb	 SHORT $LN2@Deallocate

; 217  :         _Adjust_manually_vector_aligned(_Ptr, _Bytes);

  0002b	8d 45 0c	 lea	 eax, DWORD PTR __Bytes$[ebp]
  0002e	50		 push	 eax
  0002f	8d 45 08	 lea	 eax, DWORD PTR __Ptr$[ebp]
  00032	50		 push	 eax
  00033	e8 00 00 00 00	 call	 ?_Adjust_manually_vector_aligned@std@@YAXAAPAXAAI@Z ; std::_Adjust_manually_vector_aligned
  00038	59		 pop	 ecx
  00039	59		 pop	 ecx
$LN2@Deallocate:

; 218  :     }
; 219  : #endif // defined(_M_IX86) || defined(_M_X64)
; 220  : 
; 221  :     ::operator delete(_Ptr, _Bytes);

  0003a	ff 75 0c	 push	 DWORD PTR __Bytes$[ebp]
  0003d	ff 75 08	 push	 DWORD PTR __Ptr$[ebp]
  00040	e8 00 00 00 00	 call	 ??3@YAXPAXI@Z		; operator delete
  00045	59		 pop	 ecx
  00046	59		 pop	 ecx

; 222  : }

  00047	8b 4d f4	 mov	 ecx, DWORD PTR __$EHRec$[ebp]
  0004a	64 89 0d 00 00
	00 00		 mov	 DWORD PTR fs:0, ecx
  00051	59		 pop	 ecx
  00052	c9		 leave
  00053	c3		 ret	 0
  00054	cc		 int	 3
  00055	cc		 int	 3
  00056	cc		 int	 3
  00057	cc		 int	 3
  00058	cc		 int	 3
_TEXT	ENDS
;	COMDAT text$x
text$x	SEGMENT
__ehhandler$??$_Deallocate@$07$0A@@std@@YAXPAXI@Z:
  00000	90		 npad	 1
  00001	90		 npad	 1
  00002	8b 54 24 08	 mov	 edx, DWORD PTR [esp+8]
  00006	8d 42 0c	 lea	 eax, DWORD PTR [edx+12]
  00009	8b 4a fc	 mov	 ecx, DWORD PTR [edx-4]
  0000c	33 c8		 xor	 ecx, eax
  0000e	e8 00 00 00 00	 call	 @__security_check_cookie@4
  00013	b8 00 00 00 00	 mov	 eax, OFFSET __ehfuncinfo$??$_Deallocate@$07$0A@@std@@YAXPAXI@Z
  00018	e9 00 00 00 00	 jmp	 ___CxxFrameHandler3
text$x	ENDS
??$_Deallocate@$07$0A@@std@@YAXPAXI@Z ENDP		; std::_Deallocate<8,0>
; Function compile flags: /Odspy
; File C:\Program Files (x86)\Microsoft Visual Studio\2019\Community\VC\Tools\MSVC\14.28.29333\include\xmemory
; File C:\Program Files (x86)\Microsoft Visual Studio\2019\Community\VC\Tools\MSVC\14.28.29333\include\xstddef
; File C:\Program Files (x86)\Microsoft Visual Studio\2019\Community\VC\Tools\MSVC\14.28.29333\include\vcruntime_new.h
; File C:\Program Files (x86)\Microsoft Visual Studio\2019\Community\VC\Tools\MSVC\14.28.29333\include\type_traits
; File C:\Program Files (x86)\Microsoft Visual Studio\2019\Community\VC\Tools\MSVC\14.28.29333\include\xmemory
;	COMDAT ??$_Construct_in_place@PADABQAD@std@@YAXAAPADABQAD@Z
_TEXT	SEGMENT
$T1 = -12						; size = 4
$T2 = -8						; size = 4
$T3 = -4						; size = 4
__Obj$ = 8						; size = 4
_<_Args_0>$ = 12					; size = 4
??$_Construct_in_place@PADABQAD@std@@YAXAAPADABQAD@Z PROC ; std::_Construct_in_place<char *,char * const &>, COMDAT

; 228  : void _Construct_in_place(_Ty& _Obj, _Types&&... _Args) noexcept(is_nothrow_constructible_v<_Ty, _Types...>) {

  00000	55		 push	 ebp
  00001	8b ec		 mov	 ebp, esp
  00003	83 ec 0c	 sub	 esp, 12			; 0000000cH
; File C:\Program Files (x86)\Microsoft Visual Studio\2019\Community\VC\Tools\MSVC\14.28.29333\include\xstddef

; 275  :     return __builtin_addressof(_Val);

  00006	8b 45 08	 mov	 eax, DWORD PTR __Obj$[ebp]
  00009	89 45 fc	 mov	 DWORD PTR $T3[ebp], eax
; File C:\Program Files (x86)\Microsoft Visual Studio\2019\Community\VC\Tools\MSVC\14.28.29333\include\vcruntime_new.h

; 169  :         return _Where;

  0000c	8b 45 fc	 mov	 eax, DWORD PTR $T3[ebp]
  0000f	89 45 f8	 mov	 DWORD PTR $T2[ebp], eax
; File C:\Program Files (x86)\Microsoft Visual Studio\2019\Community\VC\Tools\MSVC\14.28.29333\include\type_traits

; 1443 :     return static_cast<_Ty&&>(_Arg);

  00012	8b 45 0c	 mov	 eax, DWORD PTR _<_Args_0>$[ebp]
  00015	89 45 f4	 mov	 DWORD PTR $T1[ebp], eax
; File C:\Program Files (x86)\Microsoft Visual Studio\2019\Community\VC\Tools\MSVC\14.28.29333\include\xmemory

; 229  :     ::new (const_cast<void*>(static_cast<const volatile void*>(_STD addressof(_Obj))))

  00018	8b 45 f8	 mov	 eax, DWORD PTR $T2[ebp]
  0001b	8b 4d f4	 mov	 ecx, DWORD PTR $T1[ebp]
  0001e	8b 09		 mov	 ecx, DWORD PTR [ecx]
  00020	89 08		 mov	 DWORD PTR [eax], ecx

; 230  :         _Ty(_STD forward<_Types>(_Args)...);
; 231  : }

  00022	c9		 leave
  00023	c3		 ret	 0
??$_Construct_in_place@PADABQAD@std@@YAXAAPADABQAD@Z ENDP ; std::_Construct_in_place<char *,char * const &>
_TEXT	ENDS
; Function compile flags: /Odspy
; File C:\Program Files (x86)\Microsoft Visual Studio\2019\Community\VC\Tools\MSVC\14.28.29333\include\xstring
; File C:\Program Files (x86)\Microsoft Visual Studio\2019\Community\VC\Tools\MSVC\14.28.29333\include\xmemory
; File C:\Program Files (x86)\Microsoft Visual Studio\2019\Community\VC\Tools\MSVC\14.28.29333\include\xstring
; File C:\Program Files (x86)\Microsoft Visual Studio\2019\Community\VC\Tools\MSVC\14.28.29333\include\xmemory
; File C:\Program Files (x86)\Microsoft Visual Studio\2019\Community\VC\Tools\MSVC\14.28.29333\include\xstring
; File C:\Program Files (x86)\Microsoft Visual Studio\2019\Community\VC\Tools\MSVC\14.28.29333\include\xmemory
; File C:\Program Files (x86)\Microsoft Visual Studio\2019\Community\VC\Tools\MSVC\14.28.29333\include\xstring
; File C:\Program Files (x86)\Microsoft Visual Studio\2019\Community\VC\Tools\MSVC\14.28.29333\include\xstddef
; File C:\Program Files (x86)\Microsoft Visual Studio\2019\Community\VC\Tools\MSVC\14.28.29333\include\xstring
; File C:\Program Files (x86)\Microsoft Visual Studio\2019\Community\VC\Tools\MSVC\14.28.29333\include\xmemory
; File C:\Program Files (x86)\Microsoft Visual Studio\2019\Community\VC\Tools\MSVC\14.28.29333\include\xstring
;	COMDAT ??$_Reallocate_for@V<lambda_9366063389c5f42a00a5088cf24e69de>@@PBD@?$basic_string@DU?$char_traits@D@std@@V?$allocator@D@2@@std@@AAEAAV01@IV<lambda_9366063389c5f42a00a5088cf24e69de>@@PBD@Z
_TEXT	SEGMENT
__Al$ = -40						; size = 4
__Ptr$ = -36						; size = 4
__Ptr$ = -32						; size = 4
$T1 = -28						; size = 4
__Old_capacity$ = -24					; size = 4
$T2 = -20						; size = 4
__New_capacity$ = -16					; size = 4
__New_ptr$ = -12					; size = 4
_this$ = -8						; size = 4
__Overflow_is_possible$3 = -2				; size = 1
$T4 = -1						; size = 1
__New_size$ = 8						; size = 4
__Fn$ = 12						; size = 1
_<_Args_0>$ = 16					; size = 4
??$_Reallocate_for@V<lambda_9366063389c5f42a00a5088cf24e69de>@@PBD@?$basic_string@DU?$char_traits@D@std@@V?$allocator@D@2@@std@@AAEAAV01@IV<lambda_9366063389c5f42a00a5088cf24e69de>@@PBD@Z PROC ; std::basic_string<char,std::char_traits<char>,std::allocator<char> >::_Reallocate_for<<lambda_9366063389c5f42a00a5088cf24e69de>,char const *>, COMDAT
; _this$ = ecx

; 4302 :     basic_string& _Reallocate_for(const size_type _New_size, _Fty _Fn, _ArgTys... _Args) {

  00000	55		 push	 ebp
  00001	8b ec		 mov	 ebp, esp
  00003	83 ec 28	 sub	 esp, 40			; 00000028H
  00006	89 4d f8	 mov	 DWORD PTR _this$[ebp], ecx

; 4303 :         // reallocate to store exactly _New_size elements, new buffer prepared by
; 4304 :         // _Fn(_New_ptr, _New_size, _Args...)
; 4305 :         if (_New_size > max_size()) {

  00009	8b 4d f8	 mov	 ecx, DWORD PTR _this$[ebp]
  0000c	e8 00 00 00 00	 call	 ?max_size@?$basic_string@DU?$char_traits@D@std@@V?$allocator@D@2@@std@@QBEIXZ ; std::basic_string<char,std::char_traits<char>,std::allocator<char> >::max_size
  00011	39 45 08	 cmp	 DWORD PTR __New_size$[ebp], eax
  00014	76 05		 jbe	 SHORT $LN2@Reallocate

; 4306 :             _Xlen_string(); // result too long

  00016	e8 00 00 00 00	 call	 ?_Xlen_string@std@@YAXXZ ; std::_Xlen_string
$LN2@Reallocate:

; 4307 :         }
; 4308 : 
; 4309 :         const size_type _Old_capacity = _Mypair._Myval2._Myres;

  0001b	8b 45 f8	 mov	 eax, DWORD PTR _this$[ebp]
  0001e	8b 40 14	 mov	 eax, DWORD PTR [eax+20]
  00021	89 45 e8	 mov	 DWORD PTR __Old_capacity$[ebp], eax

; 4310 :         const size_type _New_capacity = _Calculate_growth(_New_size);

  00024	ff 75 08	 push	 DWORD PTR __New_size$[ebp]
  00027	8b 4d f8	 mov	 ecx, DWORD PTR _this$[ebp]
  0002a	e8 00 00 00 00	 call	 ?_Calculate_growth@?$basic_string@DU?$char_traits@D@std@@V?$allocator@D@2@@std@@ABEII@Z ; std::basic_string<char,std::char_traits<char>,std::allocator<char> >::_Calculate_growth
  0002f	89 45 f0	 mov	 DWORD PTR __New_capacity$[ebp], eax

; 4409 :         return _Mypair._Get_first();

  00032	8b 45 f8	 mov	 eax, DWORD PTR _this$[ebp]
; File C:\Program Files (x86)\Microsoft Visual Studio\2019\Community\VC\Tools\MSVC\14.28.29333\include\xmemory

; 1347 :         return *this;

  00035	89 45 e4	 mov	 DWORD PTR $T1[ebp], eax
; File C:\Program Files (x86)\Microsoft Visual Studio\2019\Community\VC\Tools\MSVC\14.28.29333\include\xstring

; 4409 :         return _Mypair._Get_first();

  00038	8b 45 e4	 mov	 eax, DWORD PTR $T1[ebp]
  0003b	89 45 d8	 mov	 DWORD PTR __Al$[ebp], eax
; File C:\Program Files (x86)\Microsoft Visual Studio\2019\Community\VC\Tools\MSVC\14.28.29333\include\xmemory

; 56   :     constexpr bool _Overflow_is_possible = _Ty_size > 1;

  0003e	c6 45 fe 00	 mov	 BYTE PTR __Overflow_is_possible$3[ebp], 0
; File C:\Program Files (x86)\Microsoft Visual Studio\2019\Community\VC\Tools\MSVC\14.28.29333\include\xstring

; 4312 :         const pointer _New_ptr        = _Al.allocate(_New_capacity + 1); // throws

  00042	8b 45 f0	 mov	 eax, DWORD PTR __New_capacity$[ebp]
  00045	40		 inc	 eax
; File C:\Program Files (x86)\Microsoft Visual Studio\2019\Community\VC\Tools\MSVC\14.28.29333\include\xmemory

; 814  :         return static_cast<_Ty*>(_Allocate<_New_alignof<_Ty>>(_Get_size_of_n<sizeof(_Ty)>(_Count)));

  00046	50		 push	 eax
  00047	e8 00 00 00 00	 call	 ??$_Allocate@$07U_Default_allocate_traits@std@@$0A@@std@@YAPAXI@Z ; std::_Allocate<8,std::_Default_allocate_traits,0>
  0004c	59		 pop	 ecx
; File C:\Program Files (x86)\Microsoft Visual Studio\2019\Community\VC\Tools\MSVC\14.28.29333\include\xstring

; 4312 :         const pointer _New_ptr        = _Al.allocate(_New_capacity + 1); // throws

  0004d	89 45 f4	 mov	 DWORD PTR __New_ptr$[ebp], eax

; 4313 :         _Mypair._Myval2._Orphan_all();
; 4314 :         _Mypair._Myval2._Mysize = _New_size;

  00050	8b 45 f8	 mov	 eax, DWORD PTR _this$[ebp]
  00053	8b 4d 08	 mov	 ecx, DWORD PTR __New_size$[ebp]
  00056	89 48 10	 mov	 DWORD PTR [eax+16], ecx

; 4315 :         _Mypair._Myval2._Myres  = _New_capacity;

  00059	8b 45 f8	 mov	 eax, DWORD PTR _this$[ebp]
  0005c	8b 4d f0	 mov	 ecx, DWORD PTR __New_capacity$[ebp]
  0005f	89 48 14	 mov	 DWORD PTR [eax+20], ecx

; 4316 :         _Fn(_Unfancy(_New_ptr), _New_size, _Args...);

  00062	8b 45 f4	 mov	 eax, DWORD PTR __New_ptr$[ebp]
  00065	89 45 e0	 mov	 DWORD PTR __Ptr$[ebp], eax
; File C:\Program Files (x86)\Microsoft Visual Studio\2019\Community\VC\Tools\MSVC\14.28.29333\include\xstddef

; 289  :     return _Ptr;

  00068	8b 45 e0	 mov	 eax, DWORD PTR __Ptr$[ebp]
  0006b	89 45 ec	 mov	 DWORD PTR $T2[ebp], eax
; File C:\Program Files (x86)\Microsoft Visual Studio\2019\Community\VC\Tools\MSVC\14.28.29333\include\xstring

; 62   :         _CSTD memcpy(_First1, _First2, _Count * sizeof(_Elem));

  0006e	ff 75 08	 push	 DWORD PTR __New_size$[ebp]
  00071	ff 75 10	 push	 DWORD PTR _<_Args_0>$[ebp]
  00074	ff 75 ec	 push	 DWORD PTR $T2[ebp]
  00077	e8 00 00 00 00	 call	 _memcpy
  0007c	83 c4 0c	 add	 esp, 12			; 0000000cH

; 3056 :                 _Traits::assign(_New_ptr[_Count], _Elem());

  0007f	c6 45 ff 00	 mov	 BYTE PTR $T4[ebp], 0

; 428  :         _Left = _Right;

  00083	8b 45 ec	 mov	 eax, DWORD PTR $T2[ebp]
  00086	03 45 08	 add	 eax, DWORD PTR __New_size$[ebp]
  00089	8a 4d ff	 mov	 cl, BYTE PTR $T4[ebp]
  0008c	88 08		 mov	 BYTE PTR [eax], cl

; 4317 :         if (_BUF_SIZE <= _Old_capacity) {

  0008e	83 7d e8 10	 cmp	 DWORD PTR __Old_capacity$[ebp], 16 ; 00000010H
  00092	72 21		 jb	 SHORT $LN3@Reallocate

; 4318 :             _Al.deallocate(_Mypair._Myval2._Bx._Ptr, _Old_capacity + 1);

  00094	8b 45 f8	 mov	 eax, DWORD PTR _this$[ebp]
  00097	8b 00		 mov	 eax, DWORD PTR [eax]
  00099	89 45 dc	 mov	 DWORD PTR __Ptr$[ebp], eax
  0009c	8b 45 e8	 mov	 eax, DWORD PTR __Old_capacity$[ebp]
  0009f	40		 inc	 eax
; File C:\Program Files (x86)\Microsoft Visual Studio\2019\Community\VC\Tools\MSVC\14.28.29333\include\xmemory

; 810  :         _Deallocate<_New_alignof<_Ty>>(_Ptr, sizeof(_Ty) * _Count);

  000a0	50		 push	 eax
  000a1	ff 75 dc	 push	 DWORD PTR __Ptr$[ebp]
  000a4	e8 00 00 00 00	 call	 ??$_Deallocate@$07$0A@@std@@YAXPAXI@Z ; std::_Deallocate<8,0>
  000a9	59		 pop	 ecx
  000aa	59		 pop	 ecx
; File C:\Program Files (x86)\Microsoft Visual Studio\2019\Community\VC\Tools\MSVC\14.28.29333\include\xstring

; 4319 :             _Mypair._Myval2._Bx._Ptr = _New_ptr;

  000ab	8b 45 f8	 mov	 eax, DWORD PTR _this$[ebp]
  000ae	8b 4d f4	 mov	 ecx, DWORD PTR __New_ptr$[ebp]
  000b1	89 08		 mov	 DWORD PTR [eax], ecx

; 4320 :         } else {

  000b3	eb 0e		 jmp	 SHORT $LN4@Reallocate
$LN3@Reallocate:

; 4321 :             _Construct_in_place(_Mypair._Myval2._Bx._Ptr, _New_ptr);

  000b5	8d 45 f4	 lea	 eax, DWORD PTR __New_ptr$[ebp]
  000b8	50		 push	 eax
  000b9	ff 75 f8	 push	 DWORD PTR _this$[ebp]
  000bc	e8 00 00 00 00	 call	 ??$_Construct_in_place@PADABQAD@std@@YAXAAPADABQAD@Z ; std::_Construct_in_place<char *,char * const &>
  000c1	59		 pop	 ecx
  000c2	59		 pop	 ecx
$LN4@Reallocate:

; 4322 :         }
; 4323 : 
; 4324 :         return *this;

  000c3	8b 45 f8	 mov	 eax, DWORD PTR _this$[ebp]
$LN5@Reallocate:

; 4325 :     }

  000c6	c9		 leave
  000c7	c2 0c 00	 ret	 12			; 0000000cH
??$_Reallocate_for@V<lambda_9366063389c5f42a00a5088cf24e69de>@@PBD@?$basic_string@DU?$char_traits@D@std@@V?$allocator@D@2@@std@@AAEAAV01@IV<lambda_9366063389c5f42a00a5088cf24e69de>@@PBD@Z ENDP ; std::basic_string<char,std::char_traits<char>,std::allocator<char> >::_Reallocate_for<<lambda_9366063389c5f42a00a5088cf24e69de>,char const *>
_TEXT	ENDS
; Function compile flags: /Odspy
; File C:\Program Files (x86)\Microsoft Visual Studio\2019\Community\VC\Tools\MSVC\14.28.29333\include\xmemory
;	COMDAT ??$_Destroy_in_place@PAD@std@@YAXAAPAD@Z
_TEXT	SEGMENT
__Obj$ = 8						; size = 4
??$_Destroy_in_place@PAD@std@@YAXAAPAD@Z PROC		; std::_Destroy_in_place<char *>, COMDAT

; 270  : /* _CONSTEXPR20_DYNALLOC */ void _Destroy_in_place(_Ty& _Obj) noexcept {

  00000	55		 push	 ebp
  00001	8b ec		 mov	 ebp, esp

; 271  : #if _HAS_IF_CONSTEXPR
; 272  :     if constexpr (is_array_v<_Ty>) {
; 273  :         _Destroy_range(_Obj, _Obj + extent_v<_Ty>);
; 274  :     } else
; 275  : #endif // _HAS_IF_CONSTEXPR
; 276  :     {
; 277  :         _Obj.~_Ty();
; 278  :     }
; 279  : }

  00003	5d		 pop	 ebp
  00004	c3		 ret	 0
??$_Destroy_in_place@PAD@std@@YAXAAPAD@Z ENDP		; std::_Destroy_in_place<char *>
_TEXT	ENDS
; Function compile flags: /Odspy
; File C:\Program Files (x86)\Microsoft Visual Studio\2019\Community\VC\Tools\MSVC\14.28.29333\include\xstring
; File C:\Program Files (x86)\Microsoft Visual Studio\2019\Community\VC\Tools\MSVC\14.28.29333\include\xmemory
; File C:\Program Files (x86)\Microsoft Visual Studio\2019\Community\VC\Tools\MSVC\14.28.29333\include\xstring
; File C:\Program Files (x86)\Microsoft Visual Studio\2019\Community\VC\Tools\MSVC\14.28.29333\include\xmemory
; File C:\Program Files (x86)\Microsoft Visual Studio\2019\Community\VC\Tools\MSVC\14.28.29333\include\xstring
;	COMDAT ?_Tidy_deallocate@?$basic_string@DU?$char_traits@D@std@@V?$allocator@D@2@@std@@AAEXXZ
_TEXT	SEGMENT
__Al$1 = -28						; size = 4
__Ptr$2 = -24						; size = 4
__Count$ = -20						; size = 4
$T3 = -16						; size = 4
tv68 = -12						; size = 4
_this$ = -8						; size = 4
$T4 = -2						; size = 1
$T5 = -1						; size = 1
?_Tidy_deallocate@?$basic_string@DU?$char_traits@D@std@@V?$allocator@D@2@@std@@AAEXXZ PROC ; std::basic_string<char,std::char_traits<char>,std::allocator<char> >::_Tidy_deallocate, COMDAT
; _this$ = ecx

; 4383 :     void _Tidy_deallocate() noexcept { // initialize buffer, deallocating any storage

  00000	55		 push	 ebp
  00001	8b ec		 mov	 ebp, esp
  00003	83 ec 1c	 sub	 esp, 28			; 0000001cH
  00006	89 4d f8	 mov	 DWORD PTR _this$[ebp], ecx

; 2227 :         return _BUF_SIZE <= _Myres;

  00009	8b 45 f8	 mov	 eax, DWORD PTR _this$[ebp]
  0000c	83 78 14 10	 cmp	 DWORD PTR [eax+20], 16	; 00000010H
  00010	72 09		 jb	 SHORT $LN9@Tidy_deall
  00012	c7 45 f4 01 00
	00 00		 mov	 DWORD PTR tv68[ebp], 1
  00019	eb 04		 jmp	 SHORT $LN10@Tidy_deall
$LN9@Tidy_deall:
  0001b	83 65 f4 00	 and	 DWORD PTR tv68[ebp], 0
$LN10@Tidy_deall:
  0001f	8a 45 f4	 mov	 al, BYTE PTR tv68[ebp]
  00022	88 45 ff	 mov	 BYTE PTR $T5[ebp], al

; 4384 :         _Mypair._Myval2._Orphan_all();
; 4385 :         if (_Mypair._Myval2._Large_string_engaged()) {

  00025	0f b6 45 ff	 movzx	 eax, BYTE PTR $T5[ebp]
  00029	85 c0		 test	 eax, eax
  0002b	74 34		 je	 SHORT $LN2@Tidy_deall

; 4386 :             const pointer _Ptr = _Mypair._Myval2._Bx._Ptr;

  0002d	8b 45 f8	 mov	 eax, DWORD PTR _this$[ebp]
  00030	8b 00		 mov	 eax, DWORD PTR [eax]
  00032	89 45 e8	 mov	 DWORD PTR __Ptr$2[ebp], eax

; 4409 :         return _Mypair._Get_first();

  00035	8b 45 f8	 mov	 eax, DWORD PTR _this$[ebp]
; File C:\Program Files (x86)\Microsoft Visual Studio\2019\Community\VC\Tools\MSVC\14.28.29333\include\xmemory

; 1347 :         return *this;

  00038	89 45 f0	 mov	 DWORD PTR $T3[ebp], eax
; File C:\Program Files (x86)\Microsoft Visual Studio\2019\Community\VC\Tools\MSVC\14.28.29333\include\xstring

; 4409 :         return _Mypair._Get_first();

  0003b	8b 45 f0	 mov	 eax, DWORD PTR $T3[ebp]
  0003e	89 45 e4	 mov	 DWORD PTR __Al$1[ebp], eax

; 4387 :             auto& _Al          = _Getal();
; 4388 :             _Destroy_in_place(_Mypair._Myval2._Bx._Ptr);

  00041	ff 75 f8	 push	 DWORD PTR _this$[ebp]
  00044	e8 00 00 00 00	 call	 ??$_Destroy_in_place@PAD@std@@YAXAAPAD@Z ; std::_Destroy_in_place<char *>
  00049	59		 pop	 ecx

; 4389 :             _Al.deallocate(_Ptr, _Mypair._Myval2._Myres + 1);

  0004a	8b 45 f8	 mov	 eax, DWORD PTR _this$[ebp]
  0004d	8b 40 14	 mov	 eax, DWORD PTR [eax+20]
  00050	40		 inc	 eax
  00051	89 45 ec	 mov	 DWORD PTR __Count$[ebp], eax
; File C:\Program Files (x86)\Microsoft Visual Studio\2019\Community\VC\Tools\MSVC\14.28.29333\include\xmemory

; 810  :         _Deallocate<_New_alignof<_Ty>>(_Ptr, sizeof(_Ty) * _Count);

  00054	ff 75 ec	 push	 DWORD PTR __Count$[ebp]
  00057	ff 75 e8	 push	 DWORD PTR __Ptr$2[ebp]
  0005a	e8 00 00 00 00	 call	 ??$_Deallocate@$07$0A@@std@@YAXPAXI@Z ; std::_Deallocate<8,0>
  0005f	59		 pop	 ecx
  00060	59		 pop	 ecx
$LN2@Tidy_deall:
; File C:\Program Files (x86)\Microsoft Visual Studio\2019\Community\VC\Tools\MSVC\14.28.29333\include\xstring

; 4392 :         _Mypair._Myval2._Mysize = 0;

  00061	8b 45 f8	 mov	 eax, DWORD PTR _this$[ebp]
  00064	83 60 10 00	 and	 DWORD PTR [eax+16], 0

; 4393 :         _Mypair._Myval2._Myres  = _BUF_SIZE - 1;

  00068	8b 45 f8	 mov	 eax, DWORD PTR _this$[ebp]
  0006b	c7 40 14 0f 00
	00 00		 mov	 DWORD PTR [eax+20], 15	; 0000000fH

; 4394 :         // the _Traits::assign is last so the codegen doesn't think the char write can alias this
; 4395 :         _Traits::assign(_Mypair._Myval2._Bx._Buf[0], _Elem());

  00072	c6 45 fe 00	 mov	 BYTE PTR $T4[ebp], 0
  00076	33 c0		 xor	 eax, eax
  00078	40		 inc	 eax
  00079	6b c0 00	 imul	 eax, eax, 0

; 428  :         _Left = _Right;

  0007c	8b 4d f8	 mov	 ecx, DWORD PTR _this$[ebp]
  0007f	8a 55 fe	 mov	 dl, BYTE PTR $T4[ebp]
  00082	88 14 01	 mov	 BYTE PTR [ecx+eax], dl

; 4396 :     }

  00085	c9		 leave
  00086	c3		 ret	 0
?_Tidy_deallocate@?$basic_string@DU?$char_traits@D@std@@V?$allocator@D@2@@std@@AAEXXZ ENDP ; std::basic_string<char,std::char_traits<char>,std::allocator<char> >::_Tidy_deallocate
_TEXT	ENDS
; Function compile flags: /Odspy
; File C:\Program Files (x86)\Microsoft Visual Studio\2019\Community\VC\Tools\MSVC\14.28.29333\include\xstring
;	COMDAT ?_Tidy_init@?$basic_string@DU?$char_traits@D@std@@V?$allocator@D@2@@std@@AAEXXZ
_TEXT	SEGMENT
_this$ = -8						; size = 4
$T1 = -1						; size = 1
?_Tidy_init@?$basic_string@DU?$char_traits@D@std@@V?$allocator@D@2@@std@@AAEXXZ PROC ; std::basic_string<char,std::char_traits<char>,std::allocator<char> >::_Tidy_init, COMDAT
; _this$ = ecx

; 4376 :     void _Tidy_init() noexcept { // initialize basic_string data members

  00000	55		 push	 ebp
  00001	8b ec		 mov	 ebp, esp
  00003	51		 push	 ecx
  00004	51		 push	 ecx
  00005	89 4d f8	 mov	 DWORD PTR _this$[ebp], ecx

; 4377 :         _Mypair._Myval2._Mysize = 0;

  00008	8b 45 f8	 mov	 eax, DWORD PTR _this$[ebp]
  0000b	83 60 10 00	 and	 DWORD PTR [eax+16], 0

; 4378 :         _Mypair._Myval2._Myres  = _BUF_SIZE - 1;

  0000f	8b 45 f8	 mov	 eax, DWORD PTR _this$[ebp]
  00012	c7 40 14 0f 00
	00 00		 mov	 DWORD PTR [eax+20], 15	; 0000000fH

; 4379 :         // the _Traits::assign is last so the codegen doesn't think the char write can alias this
; 4380 :         _Traits::assign(_Mypair._Myval2._Bx._Buf[0], _Elem());

  00019	c6 45 ff 00	 mov	 BYTE PTR $T1[ebp], 0
  0001d	33 c0		 xor	 eax, eax
  0001f	40		 inc	 eax
  00020	6b c0 00	 imul	 eax, eax, 0

; 428  :         _Left = _Right;

  00023	8b 4d f8	 mov	 ecx, DWORD PTR _this$[ebp]
  00026	8a 55 ff	 mov	 dl, BYTE PTR $T1[ebp]
  00029	88 14 01	 mov	 BYTE PTR [ecx+eax], dl

; 4381 :     }

  0002c	c9		 leave
  0002d	c3		 ret	 0
?_Tidy_init@?$basic_string@DU?$char_traits@D@std@@V?$allocator@D@2@@std@@AAEXXZ ENDP ; std::basic_string<char,std::char_traits<char>,std::allocator<char> >::_Tidy_init
_TEXT	ENDS
; Function compile flags: /Odspy
; File C:\Program Files (x86)\Microsoft Visual Studio\2019\Community\VC\Tools\MSVC\14.28.29333\include\xstring
; File C:\Program Files (x86)\Microsoft Visual Studio\2019\Community\VC\Tools\MSVC\14.28.29333\include\utility
; File C:\Program Files (x86)\Microsoft Visual Studio\2019\Community\VC\Tools\MSVC\14.28.29333\include\xstring
;	COMDAT ?_Calculate_growth@?$basic_string@DU?$char_traits@D@std@@V?$allocator@D@2@@std@@ABEII@Z
_TEXT	SEGMENT
$T1 = -36						; size = 4
$T2 = -32						; size = 4
tv93 = -28						; size = 4
$T3 = -24						; size = 4
_this$ = -20						; size = 4
$T4 = -16						; size = 4
__Masked$5 = -12					; size = 4
__Old$ = -8						; size = 4
__Max$ = -4						; size = 4
__Requested$ = 8					; size = 4
?_Calculate_growth@?$basic_string@DU?$char_traits@D@std@@V?$allocator@D@2@@std@@ABEII@Z PROC ; std::basic_string<char,std::char_traits<char>,std::allocator<char> >::_Calculate_growth, COMDAT
; _this$ = ecx

; 4297 :     _NODISCARD size_type _Calculate_growth(const size_type _Requested) const noexcept {

  00000	55		 push	 ebp
  00001	8b ec		 mov	 ebp, esp
  00003	83 ec 24	 sub	 esp, 36			; 00000024H
  00006	89 4d ec	 mov	 DWORD PTR _this$[ebp], ecx

; 4298 :         return _Calculate_growth(_Requested, _Mypair._Myval2._Myres, max_size());

  00009	8b 4d ec	 mov	 ecx, DWORD PTR _this$[ebp]
  0000c	e8 00 00 00 00	 call	 ?max_size@?$basic_string@DU?$char_traits@D@std@@V?$allocator@D@2@@std@@QBEIXZ ; std::basic_string<char,std::char_traits<char>,std::allocator<char> >::max_size
  00011	89 45 fc	 mov	 DWORD PTR __Max$[ebp], eax
  00014	8b 45 ec	 mov	 eax, DWORD PTR _this$[ebp]
  00017	8b 40 14	 mov	 eax, DWORD PTR [eax+20]
  0001a	89 45 f8	 mov	 DWORD PTR __Old$[ebp], eax

; 4285 :         const size_type _Masked = _Requested | _ALLOC_MASK;

  0001d	8b 45 08	 mov	 eax, DWORD PTR __Requested$[ebp]
  00020	83 c8 0f	 or	 eax, 15			; 0000000fH
  00023	89 45 f4	 mov	 DWORD PTR __Masked$5[ebp], eax

; 4286 :         if (_Masked > _Max) { // the mask overflows, settle for max_size()

  00026	8b 45 f4	 mov	 eax, DWORD PTR __Masked$5[ebp]
  00029	3b 45 fc	 cmp	 eax, DWORD PTR __Max$[ebp]
  0002c	76 08		 jbe	 SHORT $LN29@Calculate_

; 4287 :             return _Max;

  0002e	8b 45 fc	 mov	 eax, DWORD PTR __Max$[ebp]
  00031	89 45 f0	 mov	 DWORD PTR $T4[ebp], eax
  00034	eb 4c		 jmp	 SHORT $LN31@Calculate_
$LN29@Calculate_:

; 4288 :         }
; 4289 : 
; 4290 :         if (_Old > _Max - _Old / 2) { // similarly, geometric overflows

  00036	8b 45 f8	 mov	 eax, DWORD PTR __Old$[ebp]
  00039	d1 e8		 shr	 eax, 1
  0003b	8b 4d fc	 mov	 ecx, DWORD PTR __Max$[ebp]
  0003e	2b c8		 sub	 ecx, eax
  00040	39 4d f8	 cmp	 DWORD PTR __Old$[ebp], ecx
  00043	76 08		 jbe	 SHORT $LN30@Calculate_

; 4291 :             return _Max;

  00045	8b 45 fc	 mov	 eax, DWORD PTR __Max$[ebp]
  00048	89 45 f0	 mov	 DWORD PTR $T4[ebp], eax
  0004b	eb 35		 jmp	 SHORT $LN31@Calculate_
$LN30@Calculate_:

; 4294 :         return (_STD max)(_Masked, _Old + _Old / 2);

  0004d	8b 45 f8	 mov	 eax, DWORD PTR __Old$[ebp]
  00050	d1 e8		 shr	 eax, 1
  00052	03 45 f8	 add	 eax, DWORD PTR __Old$[ebp]
  00055	89 45 e8	 mov	 DWORD PTR $T3[ebp], eax
; File C:\Program Files (x86)\Microsoft Visual Studio\2019\Community\VC\Tools\MSVC\14.28.29333\include\utility

; 44   :     return _Left < _Right ? _Right : _Left;

  00058	8b 45 f4	 mov	 eax, DWORD PTR __Masked$5[ebp]
  0005b	3b 45 e8	 cmp	 eax, DWORD PTR $T3[ebp]
  0005e	73 08		 jae	 SHORT $LN35@Calculate_
  00060	8d 45 e8	 lea	 eax, DWORD PTR $T3[ebp]
  00063	89 45 e4	 mov	 DWORD PTR tv93[ebp], eax
  00066	eb 06		 jmp	 SHORT $LN36@Calculate_
$LN35@Calculate_:
  00068	8d 45 f4	 lea	 eax, DWORD PTR __Masked$5[ebp]
  0006b	89 45 e4	 mov	 DWORD PTR tv93[ebp], eax
$LN36@Calculate_:
  0006e	8b 45 e4	 mov	 eax, DWORD PTR tv93[ebp]
  00071	89 45 e0	 mov	 DWORD PTR $T2[ebp], eax
  00074	8b 45 e0	 mov	 eax, DWORD PTR $T2[ebp]
  00077	89 45 dc	 mov	 DWORD PTR $T1[ebp], eax
; File C:\Program Files (x86)\Microsoft Visual Studio\2019\Community\VC\Tools\MSVC\14.28.29333\include\xstring

; 4294 :         return (_STD max)(_Masked, _Old + _Old / 2);

  0007a	8b 45 dc	 mov	 eax, DWORD PTR $T1[ebp]
  0007d	8b 00		 mov	 eax, DWORD PTR [eax]
  0007f	89 45 f0	 mov	 DWORD PTR $T4[ebp], eax
$LN31@Calculate_:

; 4298 :         return _Calculate_growth(_Requested, _Mypair._Myval2._Myres, max_size());

  00082	8b 45 f0	 mov	 eax, DWORD PTR $T4[ebp]

; 4299 :     }

  00085	c9		 leave
  00086	c2 04 00	 ret	 4
?_Calculate_growth@?$basic_string@DU?$char_traits@D@std@@V?$allocator@D@2@@std@@ABEII@Z ENDP ; std::basic_string<char,std::char_traits<char>,std::allocator<char> >::_Calculate_growth
_TEXT	ENDS
; Function compile flags: /Odspy
; File C:\Program Files (x86)\Microsoft Visual Studio\2019\Community\VC\Tools\MSVC\14.28.29333\include\xstring
; File C:\Program Files (x86)\Microsoft Visual Studio\2019\Community\VC\Tools\MSVC\14.28.29333\include\xmemory
; File C:\Program Files (x86)\Microsoft Visual Studio\2019\Community\VC\Tools\MSVC\14.28.29333\include\xstring
; File C:\Program Files (x86)\Microsoft Visual Studio\2019\Community\VC\Tools\MSVC\14.28.29333\include\xmemory
; File C:\Program Files (x86)\Microsoft Visual Studio\2019\Community\VC\Tools\MSVC\14.28.29333\include\xstring
; File C:\Program Files (x86)\Microsoft Visual Studio\2019\Community\VC\Tools\MSVC\14.28.29333\include\utility
; File C:\Program Files (x86)\Microsoft Visual Studio\2019\Community\VC\Tools\MSVC\14.28.29333\include\xstring
; File C:\Program Files (x86)\Microsoft Visual Studio\2019\Community\VC\Tools\MSVC\14.28.29333\include\limits
; File C:\Program Files (x86)\Microsoft Visual Studio\2019\Community\VC\Tools\MSVC\14.28.29333\include\xstring
; File C:\Program Files (x86)\Microsoft Visual Studio\2019\Community\VC\Tools\MSVC\14.28.29333\include\utility
; File C:\Program Files (x86)\Microsoft Visual Studio\2019\Community\VC\Tools\MSVC\14.28.29333\include\xstring
;	COMDAT ?max_size@?$basic_string@DU?$char_traits@D@std@@V?$allocator@D@2@@std@@QBEIXZ
_TEXT	SEGMENT
$T1 = -60						; size = 4
$T2 = -56						; size = 4
$T3 = -52						; size = 4
$T4 = -48						; size = 4
__Storage_max$ = -44					; size = 4
$T5 = -40						; size = 4
$T6 = -36						; size = 4
$T7 = -32						; size = 4
_this$ = -28						; size = 4
tv70 = -24						; size = 4
$T8 = -20						; size = 4
$T9 = -16						; size = 4
tv67 = -12						; size = 4
__Alloc_max$ = -8					; size = 4
$T10 = -4						; size = 4
?max_size@?$basic_string@DU?$char_traits@D@std@@V?$allocator@D@2@@std@@QBEIXZ PROC ; std::basic_string<char,std::char_traits<char>,std::allocator<char> >::max_size, COMDAT
; _this$ = ecx

; 3773 :     _NODISCARD size_type max_size() const noexcept {

  00000	55		 push	 ebp
  00001	8b ec		 mov	 ebp, esp
  00003	83 ec 3c	 sub	 esp, 60			; 0000003cH
  00006	89 4d e4	 mov	 DWORD PTR _this$[ebp], ecx

; 4413 :         return _Mypair._Get_first();

  00009	8b 45 e4	 mov	 eax, DWORD PTR _this$[ebp]
; File C:\Program Files (x86)\Microsoft Visual Studio\2019\Community\VC\Tools\MSVC\14.28.29333\include\xmemory

; 1351 :         return *this;

  0000c	89 45 e0	 mov	 DWORD PTR $T7[ebp], eax
; File C:\Program Files (x86)\Microsoft Visual Studio\2019\Community\VC\Tools\MSVC\14.28.29333\include\xstring

; 4413 :         return _Mypair._Get_first();

  0000f	8b 45 e0	 mov	 eax, DWORD PTR $T7[ebp]
  00012	89 45 c4	 mov	 DWORD PTR $T1[ebp], eax
; File C:\Program Files (x86)\Microsoft Visual Studio\2019\Community\VC\Tools\MSVC\14.28.29333\include\xmemory

; 710  :         return static_cast<size_t>(-1) / sizeof(value_type);

  00015	83 4d f8 ff	 or	 DWORD PTR __Alloc_max$[ebp], -1
; File C:\Program Files (x86)\Microsoft Visual Studio\2019\Community\VC\Tools\MSVC\14.28.29333\include\xstring

; 3775 :         const size_type _Storage_max = // can always store small string

  00019	c7 45 fc 10 00
	00 00		 mov	 DWORD PTR $T10[ebp], 16	; 00000010H
; File C:\Program Files (x86)\Microsoft Visual Studio\2019\Community\VC\Tools\MSVC\14.28.29333\include\utility

; 44   :     return _Left < _Right ? _Right : _Left;

  00020	8b 45 f8	 mov	 eax, DWORD PTR __Alloc_max$[ebp]
  00023	3b 45 fc	 cmp	 eax, DWORD PTR $T10[ebp]
  00026	73 08		 jae	 SHORT $LN14@max_size
  00028	8d 45 fc	 lea	 eax, DWORD PTR $T10[ebp]
  0002b	89 45 f4	 mov	 DWORD PTR tv67[ebp], eax
  0002e	eb 06		 jmp	 SHORT $LN15@max_size
$LN14@max_size:
  00030	8d 45 f8	 lea	 eax, DWORD PTR __Alloc_max$[ebp]
  00033	89 45 f4	 mov	 DWORD PTR tv67[ebp], eax
$LN15@max_size:
  00036	8b 45 f4	 mov	 eax, DWORD PTR tv67[ebp]
  00039	89 45 dc	 mov	 DWORD PTR $T6[ebp], eax
  0003c	8b 45 dc	 mov	 eax, DWORD PTR $T6[ebp]
  0003f	89 45 d8	 mov	 DWORD PTR $T5[ebp], eax
; File C:\Program Files (x86)\Microsoft Visual Studio\2019\Community\VC\Tools\MSVC\14.28.29333\include\xstring

; 3775 :         const size_type _Storage_max = // can always store small string

  00042	8b 45 d8	 mov	 eax, DWORD PTR $T5[ebp]
  00045	8b 00		 mov	 eax, DWORD PTR [eax]
  00047	89 45 d4	 mov	 DWORD PTR __Storage_max$[ebp], eax

; 3777 :         return (_STD min)(static_cast<size_type>((numeric_limits<difference_type>::max)()),

  0004a	8b 45 d4	 mov	 eax, DWORD PTR __Storage_max$[ebp]
  0004d	48		 dec	 eax
  0004e	89 45 f0	 mov	 DWORD PTR $T9[ebp], eax
; File C:\Program Files (x86)\Microsoft Visual Studio\2019\Community\VC\Tools\MSVC\14.28.29333\include\limits

; 557  :         return INT_MAX;

  00051	c7 45 d0 ff ff
	ff 7f		 mov	 DWORD PTR $T4[ebp], 2147483647 ; 7fffffffH
; File C:\Program Files (x86)\Microsoft Visual Studio\2019\Community\VC\Tools\MSVC\14.28.29333\include\xstring

; 3777 :         return (_STD min)(static_cast<size_type>((numeric_limits<difference_type>::max)()),

  00058	8b 45 d0	 mov	 eax, DWORD PTR $T4[ebp]
  0005b	89 45 ec	 mov	 DWORD PTR $T8[ebp], eax
; File C:\Program Files (x86)\Microsoft Visual Studio\2019\Community\VC\Tools\MSVC\14.28.29333\include\utility

; 68   :     return _Right < _Left ? _Right : _Left;

  0005e	8b 45 f0	 mov	 eax, DWORD PTR $T9[ebp]
  00061	3b 45 ec	 cmp	 eax, DWORD PTR $T8[ebp]
  00064	73 08		 jae	 SHORT $LN22@max_size
  00066	8d 45 f0	 lea	 eax, DWORD PTR $T9[ebp]
  00069	89 45 e8	 mov	 DWORD PTR tv70[ebp], eax
  0006c	eb 06		 jmp	 SHORT $LN23@max_size
$LN22@max_size:
  0006e	8d 45 ec	 lea	 eax, DWORD PTR $T8[ebp]
  00071	89 45 e8	 mov	 DWORD PTR tv70[ebp], eax
$LN23@max_size:
  00074	8b 45 e8	 mov	 eax, DWORD PTR tv70[ebp]
  00077	89 45 cc	 mov	 DWORD PTR $T3[ebp], eax
  0007a	8b 45 cc	 mov	 eax, DWORD PTR $T3[ebp]
  0007d	89 45 c8	 mov	 DWORD PTR $T2[ebp], eax
; File C:\Program Files (x86)\Microsoft Visual Studio\2019\Community\VC\Tools\MSVC\14.28.29333\include\xstring

; 3777 :         return (_STD min)(static_cast<size_type>((numeric_limits<difference_type>::max)()),

  00080	8b 45 c8	 mov	 eax, DWORD PTR $T2[ebp]
  00083	8b 00		 mov	 eax, DWORD PTR [eax]

; 3778 :             _Storage_max - 1 // -1 is for null terminator and/or npos
; 3779 :         );
; 3780 :     }

  00085	c9		 leave
  00086	c3		 ret	 0
?max_size@?$basic_string@DU?$char_traits@D@std@@V?$allocator@D@2@@std@@QBEIXZ ENDP ; std::basic_string<char,std::char_traits<char>,std::allocator<char> >::max_size
_TEXT	ENDS
; Function compile flags: /Odspy
; File C:\Program Files (x86)\Microsoft Visual Studio\2019\Community\VC\Tools\MSVC\14.28.29333\include\xstring
;	COMDAT ?assign@?$basic_string@DU?$char_traits@D@std@@V?$allocator@D@2@@std@@QAEAAV12@QBDI@Z
_TEXT	SEGMENT
$T1 = -16						; size = 1
__Old_ptr$2 = -12					; size = 4
_this$ = -8						; size = 4
$T3 = -1						; size = 1
__Ptr$ = 8						; size = 4
__Count$ = 12						; size = 4
?assign@?$basic_string@DU?$char_traits@D@std@@V?$allocator@D@2@@std@@QAEAAV12@QBDI@Z PROC ; std::basic_string<char,std::char_traits<char>,std::allocator<char> >::assign, COMDAT
; _this$ = ecx

; 3042 :     basic_string& assign(_In_reads_(_Count) const _Elem* const _Ptr, _CRT_GUARDOVERFLOW const size_type _Count) {

  00000	55		 push	 ebp
  00001	8b ec		 mov	 ebp, esp
  00003	83 ec 10	 sub	 esp, 16			; 00000010H
  00006	89 4d f8	 mov	 DWORD PTR _this$[ebp], ecx

; 3043 :         // assign [_Ptr, _Ptr + _Count)
; 3044 :         if (_Count <= _Mypair._Myval2._Myres) {

  00009	8b 45 f8	 mov	 eax, DWORD PTR _this$[ebp]
  0000c	8b 4d 0c	 mov	 ecx, DWORD PTR __Count$[ebp]
  0000f	3b 48 14	 cmp	 ecx, DWORD PTR [eax+20]
  00012	77 39		 ja	 SHORT $LN2@assign

; 3045 :             _Elem* const _Old_ptr   = _Mypair._Myval2._Myptr();

  00014	8b 4d f8	 mov	 ecx, DWORD PTR _this$[ebp]
  00017	e8 00 00 00 00	 call	 ?_Myptr@?$_String_val@U?$_Simple_types@D@std@@@std@@QAEPADXZ ; std::_String_val<std::_Simple_types<char> >::_Myptr
  0001c	89 45 f4	 mov	 DWORD PTR __Old_ptr$2[ebp], eax

; 3046 :             _Mypair._Myval2._Mysize = _Count;

  0001f	8b 45 f8	 mov	 eax, DWORD PTR _this$[ebp]
  00022	8b 4d 0c	 mov	 ecx, DWORD PTR __Count$[ebp]
  00025	89 48 10	 mov	 DWORD PTR [eax+16], ecx

; 119  :         _CSTD memmove(_First1, _First2, _Count * sizeof(_Elem));

  00028	ff 75 0c	 push	 DWORD PTR __Count$[ebp]
  0002b	ff 75 08	 push	 DWORD PTR __Ptr$[ebp]
  0002e	ff 75 f4	 push	 DWORD PTR __Old_ptr$2[ebp]
  00031	e8 00 00 00 00	 call	 _memmove
  00036	83 c4 0c	 add	 esp, 12			; 0000000cH

; 3047 :             _Traits::move(_Old_ptr, _Ptr, _Count);
; 3048 :             _Traits::assign(_Old_ptr[_Count], _Elem());

  00039	c6 45 ff 00	 mov	 BYTE PTR $T3[ebp], 0

; 428  :         _Left = _Right;

  0003d	8b 45 f4	 mov	 eax, DWORD PTR __Old_ptr$2[ebp]
  00040	03 45 0c	 add	 eax, DWORD PTR __Count$[ebp]
  00043	8a 4d ff	 mov	 cl, BYTE PTR $T3[ebp]
  00046	88 08		 mov	 BYTE PTR [eax], cl

; 3049 :             return *this;

  00048	8b 45 f8	 mov	 eax, DWORD PTR _this$[ebp]
  0004b	eb 16		 jmp	 SHORT $LN1@assign
$LN2@assign:

; 3050 :         }
; 3051 : 
; 3052 :         return _Reallocate_for(

  0004d	33 c0		 xor	 eax, eax
  0004f	88 45 f0	 mov	 BYTE PTR $T1[ebp], al
  00052	ff 75 08	 push	 DWORD PTR __Ptr$[ebp]
  00055	ff 75 f0	 push	 DWORD PTR $T1[ebp]
  00058	ff 75 0c	 push	 DWORD PTR __Count$[ebp]
  0005b	8b 4d f8	 mov	 ecx, DWORD PTR _this$[ebp]
  0005e	e8 00 00 00 00	 call	 ??$_Reallocate_for@V<lambda_9366063389c5f42a00a5088cf24e69de>@@PBD@?$basic_string@DU?$char_traits@D@std@@V?$allocator@D@2@@std@@AAEAAV01@IV<lambda_9366063389c5f42a00a5088cf24e69de>@@PBD@Z ; std::basic_string<char,std::char_traits<char>,std::allocator<char> >::_Reallocate_for<<lambda_9366063389c5f42a00a5088cf24e69de>,char const *>
$LN1@assign:

; 3053 :             _Count,
; 3054 :             [](_Elem* const _New_ptr, const size_type _Count, const _Elem* const _Ptr) {
; 3055 :                 _Traits::copy(_New_ptr, _Ptr, _Count);
; 3056 :                 _Traits::assign(_New_ptr[_Count], _Elem());
; 3057 :             },
; 3058 :             _Ptr);
; 3059 :     }

  00063	c9		 leave
  00064	c2 08 00	 ret	 8
?assign@?$basic_string@DU?$char_traits@D@std@@V?$allocator@D@2@@std@@QAEAAV12@QBDI@Z ENDP ; std::basic_string<char,std::char_traits<char>,std::allocator<char> >::assign
_TEXT	ENDS
; Function compile flags: /Odspy
; File C:\Program Files (x86)\Microsoft Visual Studio\2019\Community\VC\Tools\MSVC\14.28.29333\include\xstring
; File C:\Program Files (x86)\Microsoft Visual Studio\2019\Community\VC\Tools\MSVC\14.28.29333\include\xmemory
; File C:\Program Files (x86)\Microsoft Visual Studio\2019\Community\VC\Tools\MSVC\14.28.29333\include\xstring
; File C:\Program Files (x86)\Microsoft Visual Studio\2019\Community\VC\Tools\MSVC\14.28.29333\include\xmemory
; File C:\Program Files (x86)\Microsoft Visual Studio\2019\Community\VC\Tools\MSVC\14.28.29333\include\xstring
; File C:\Program Files (x86)\Microsoft Visual Studio\2019\Community\VC\Tools\MSVC\14.28.29333\include\xstddef
; File C:\Program Files (x86)\Microsoft Visual Studio\2019\Community\VC\Tools\MSVC\14.28.29333\include\xstring
;	COMDAT ?_Copy_assign@?$basic_string@DU?$char_traits@D@std@@V?$allocator@D@2@@std@@AAEXABV12@U?$integral_constant@_N$0A@@2@@Z
_TEXT	SEGMENT
$T1 = -44						; size = 4
__Ptr$ = -40						; size = 4
$T2 = -36						; size = 4
$T3 = -32						; size = 4
$T4 = -28						; size = 4
$T5 = -24						; size = 4
_this$ = -20						; size = 4
__Result$6 = -16					; size = 4
tv134 = -12						; size = 4
_this$ = -8						; size = 4
$T7 = -1						; size = 1
__Right$ = 8						; size = 4
___formal$ = 12						; size = 1
?_Copy_assign@?$basic_string@DU?$char_traits@D@std@@V?$allocator@D@2@@std@@AAEXABV12@U?$integral_constant@_N$0A@@2@@Z PROC ; std::basic_string<char,std::char_traits<char>,std::allocator<char> >::_Copy_assign, COMDAT
; _this$ = ecx

; 2826 :     void _Copy_assign(const basic_string& _Right, false_type) {

  00000	55		 push	 ebp
  00001	8b ec		 mov	 ebp, esp
  00003	83 ec 2c	 sub	 esp, 44			; 0000002cH
  00006	89 4d ec	 mov	 DWORD PTR _this$[ebp], ecx

; 4413 :         return _Mypair._Get_first();

  00009	8b 45 08	 mov	 eax, DWORD PTR __Right$[ebp]
; File C:\Program Files (x86)\Microsoft Visual Studio\2019\Community\VC\Tools\MSVC\14.28.29333\include\xmemory

; 1351 :         return *this;

  0000c	89 45 e8	 mov	 DWORD PTR $T5[ebp], eax
; File C:\Program Files (x86)\Microsoft Visual Studio\2019\Community\VC\Tools\MSVC\14.28.29333\include\xstring

; 4413 :         return _Mypair._Get_first();

  0000f	8b 45 e8	 mov	 eax, DWORD PTR $T5[ebp]
  00012	89 45 e0	 mov	 DWORD PTR $T3[ebp], eax

; 4409 :         return _Mypair._Get_first();

  00015	8b 45 ec	 mov	 eax, DWORD PTR _this$[ebp]
; File C:\Program Files (x86)\Microsoft Visual Studio\2019\Community\VC\Tools\MSVC\14.28.29333\include\xmemory

; 1347 :         return *this;

  00018	89 45 e4	 mov	 DWORD PTR $T4[ebp], eax
; File C:\Program Files (x86)\Microsoft Visual Studio\2019\Community\VC\Tools\MSVC\14.28.29333\include\xstring

; 4409 :         return _Mypair._Get_first();

  0001b	8b 45 e4	 mov	 eax, DWORD PTR $T4[ebp]
  0001e	89 45 dc	 mov	 DWORD PTR $T2[ebp], eax

; 2827 :         _Pocca(_Getal(), _Right._Getal());

  00021	ff 75 e0	 push	 DWORD PTR $T3[ebp]
  00024	ff 75 dc	 push	 DWORD PTR $T2[ebp]
  00027	e8 00 00 00 00	 call	 ??$_Pocca@V?$allocator@D@std@@@std@@YAXAAV?$allocator@D@0@ABV10@@Z ; std::_Pocca<std::allocator<char> >
  0002c	59		 pop	 ecx
  0002d	59		 pop	 ecx

; 2828 :         assign(_Right._Mypair._Myval2._Myptr(), _Right._Mypair._Myval2._Mysize);

  0002e	8b 45 08	 mov	 eax, DWORD PTR __Right$[ebp]
  00031	89 45 f8	 mov	 DWORD PTR _this$[ebp], eax

; 2218 :         const value_type* _Result = _Bx._Buf;

  00034	8b 45 f8	 mov	 eax, DWORD PTR _this$[ebp]
  00037	89 45 f0	 mov	 DWORD PTR __Result$6[ebp], eax

; 2227 :         return _BUF_SIZE <= _Myres;

  0003a	8b 45 f8	 mov	 eax, DWORD PTR _this$[ebp]
  0003d	83 78 14 10	 cmp	 DWORD PTR [eax+20], 16	; 00000010H
  00041	72 09		 jb	 SHORT $LN21@Copy_assig
  00043	c7 45 f4 01 00
	00 00		 mov	 DWORD PTR tv134[ebp], 1
  0004a	eb 04		 jmp	 SHORT $LN22@Copy_assig
$LN21@Copy_assig:
  0004c	83 65 f4 00	 and	 DWORD PTR tv134[ebp], 0
$LN22@Copy_assig:
  00050	8a 45 f4	 mov	 al, BYTE PTR tv134[ebp]
  00053	88 45 ff	 mov	 BYTE PTR $T7[ebp], al

; 2219 :         if (_Large_string_engaged()) {

  00056	0f b6 45 ff	 movzx	 eax, BYTE PTR $T7[ebp]
  0005a	85 c0		 test	 eax, eax
  0005c	74 0e		 je	 SHORT $LN16@Copy_assig

; 2220 :             _Result = _Unfancy(_Bx._Ptr);

  0005e	8b 45 f8	 mov	 eax, DWORD PTR _this$[ebp]
  00061	8b 00		 mov	 eax, DWORD PTR [eax]
  00063	89 45 d8	 mov	 DWORD PTR __Ptr$[ebp], eax
; File C:\Program Files (x86)\Microsoft Visual Studio\2019\Community\VC\Tools\MSVC\14.28.29333\include\xstddef

; 289  :     return _Ptr;

  00066	8b 45 d8	 mov	 eax, DWORD PTR __Ptr$[ebp]
  00069	89 45 f0	 mov	 DWORD PTR __Result$6[ebp], eax
$LN16@Copy_assig:
; File C:\Program Files (x86)\Microsoft Visual Studio\2019\Community\VC\Tools\MSVC\14.28.29333\include\xstring

; 2223 :         return _Result;

  0006c	8b 45 f0	 mov	 eax, DWORD PTR __Result$6[ebp]
  0006f	89 45 d4	 mov	 DWORD PTR $T1[ebp], eax

; 2828 :         assign(_Right._Mypair._Myval2._Myptr(), _Right._Mypair._Myval2._Mysize);

  00072	8b 45 08	 mov	 eax, DWORD PTR __Right$[ebp]
  00075	ff 70 10	 push	 DWORD PTR [eax+16]
  00078	ff 75 d4	 push	 DWORD PTR $T1[ebp]
  0007b	8b 4d ec	 mov	 ecx, DWORD PTR _this$[ebp]
  0007e	e8 00 00 00 00	 call	 ?assign@?$basic_string@DU?$char_traits@D@std@@V?$allocator@D@2@@std@@QAEAAV12@QBDI@Z ; std::basic_string<char,std::char_traits<char>,std::allocator<char> >::assign

; 2829 :     }

  00083	c9		 leave
  00084	c2 08 00	 ret	 8
?_Copy_assign@?$basic_string@DU?$char_traits@D@std@@V?$allocator@D@2@@std@@AAEXABV12@U?$integral_constant@_N$0A@@2@@Z ENDP ; std::basic_string<char,std::char_traits<char>,std::allocator<char> >::_Copy_assign
_TEXT	ENDS
; Function compile flags: /Odspy
; File C:\Program Files (x86)\Microsoft Visual Studio\2019\Community\VC\Tools\MSVC\14.28.29333\include\xstring
;	COMDAT ??1?$basic_string@DU?$char_traits@D@std@@V?$allocator@D@2@@std@@QAE@XZ
_TEXT	SEGMENT
_this$ = -4						; size = 4
??1?$basic_string@DU?$char_traits@D@std@@V?$allocator@D@2@@std@@QAE@XZ PROC ; std::basic_string<char,std::char_traits<char>,std::allocator<char> >::~basic_string<char,std::char_traits<char>,std::allocator<char> >, COMDAT
; _this$ = ecx

; 2800 :     ~basic_string() noexcept {

  00000	55		 push	 ebp
  00001	8b ec		 mov	 ebp, esp
  00003	51		 push	 ecx
  00004	89 4d fc	 mov	 DWORD PTR _this$[ebp], ecx

; 2801 :         _Tidy_deallocate();

  00007	8b 4d fc	 mov	 ecx, DWORD PTR _this$[ebp]
  0000a	e8 00 00 00 00	 call	 ?_Tidy_deallocate@?$basic_string@DU?$char_traits@D@std@@V?$allocator@D@2@@std@@AAEXXZ ; std::basic_string<char,std::char_traits<char>,std::allocator<char> >::_Tidy_deallocate

; 2802 : #if _ITERATOR_DEBUG_LEVEL != 0
; 2803 :         auto&& _Alproxy          = _GET_PROXY_ALLOCATOR(_Alty, _Getal());
; 2804 :         const auto _To_delete    = _Mypair._Myval2._Myproxy;
; 2805 :         _Mypair._Myval2._Myproxy = nullptr;
; 2806 :         _Delete_plain_internal(_Alproxy, _To_delete);
; 2807 : #endif // _ITERATOR_DEBUG_LEVEL != 0
; 2808 :     }

  0000f	c9		 leave
  00010	c3		 ret	 0
??1?$basic_string@DU?$char_traits@D@std@@V?$allocator@D@2@@std@@QAE@XZ ENDP ; std::basic_string<char,std::char_traits<char>,std::allocator<char> >::~basic_string<char,std::char_traits<char>,std::allocator<char> >
_TEXT	ENDS
; Function compile flags: /Odspy
; File C:\Program Files (x86)\Microsoft Visual Studio\2019\Community\VC\Tools\MSVC\14.28.29333\include\xstring
; File C:\Program Files (x86)\Microsoft Visual Studio\2019\Community\VC\Tools\MSVC\14.28.29333\include\xmemory
; File C:\Program Files (x86)\Microsoft Visual Studio\2019\Community\VC\Tools\MSVC\14.28.29333\include\xstring
;	COMDAT ??0?$basic_string@DU?$char_traits@D@std@@V?$allocator@D@2@@std@@QAE@XZ
_TEXT	SEGMENT
_this$ = -12						; size = 4
_this$ = -8						; size = 4
_this$ = -4						; size = 4
??0?$basic_string@DU?$char_traits@D@std@@V?$allocator@D@2@@std@@QAE@XZ PROC ; std::basic_string<char,std::char_traits<char>,std::allocator<char> >::basic_string<char,std::char_traits<char>,std::allocator<char> >, COMDAT
; _this$ = ecx

; 2365 :     basic_string() noexcept(is_nothrow_default_constructible_v<_Alty>) : _Mypair(_Zero_then_variadic_args_t{}) {

  00000	55		 push	 ebp
  00001	8b ec		 mov	 ebp, esp
  00003	83 ec 0c	 sub	 esp, 12			; 0000000cH
  00006	89 4d fc	 mov	 DWORD PTR _this$[ebp], ecx
  00009	8b 45 fc	 mov	 eax, DWORD PTR _this$[ebp]
  0000c	89 45 f4	 mov	 DWORD PTR _this$[ebp], eax
; File C:\Program Files (x86)\Microsoft Visual Studio\2019\Community\VC\Tools\MSVC\14.28.29333\include\xmemory

; 1339 :         : _Ty1(), _Myval2(_STD forward<_Other2>(_Val2)...) {}

  0000f	8b 45 f4	 mov	 eax, DWORD PTR _this$[ebp]
  00012	89 45 f8	 mov	 DWORD PTR _this$[ebp], eax
; File C:\Program Files (x86)\Microsoft Visual Studio\2019\Community\VC\Tools\MSVC\14.28.29333\include\xstring

; 2198 :     _String_val() noexcept : _Bx(), _Mysize(0), _Myres(0) {}

  00015	8b 45 f8	 mov	 eax, DWORD PTR _this$[ebp]
  00018	83 60 10 00	 and	 DWORD PTR [eax+16], 0
  0001c	8b 45 f8	 mov	 eax, DWORD PTR _this$[ebp]
  0001f	83 60 14 00	 and	 DWORD PTR [eax+20], 0

; 2366 :         _Mypair._Myval2._Alloc_proxy(_GET_PROXY_ALLOCATOR(_Alty, _Getal()));
; 2367 :         _Tidy_init();

  00023	8b 4d fc	 mov	 ecx, DWORD PTR _this$[ebp]
  00026	e8 00 00 00 00	 call	 ?_Tidy_init@?$basic_string@DU?$char_traits@D@std@@V?$allocator@D@2@@std@@AAEXXZ ; std::basic_string<char,std::char_traits<char>,std::allocator<char> >::_Tidy_init

; 2368 :     }

  0002b	8b 45 fc	 mov	 eax, DWORD PTR _this$[ebp]
  0002e	c9		 leave
  0002f	c3		 ret	 0
??0?$basic_string@DU?$char_traits@D@std@@V?$allocator@D@2@@std@@QAE@XZ ENDP ; std::basic_string<char,std::char_traits<char>,std::allocator<char> >::basic_string<char,std::char_traits<char>,std::allocator<char> >
_TEXT	ENDS
; Function compile flags: /Odspy
; File C:\Program Files (x86)\Microsoft Visual Studio\2019\Community\VC\Tools\MSVC\14.28.29333\include\xstring
; File C:\Program Files (x86)\Microsoft Visual Studio\2019\Community\VC\Tools\MSVC\14.28.29333\include\xstddef
; File C:\Program Files (x86)\Microsoft Visual Studio\2019\Community\VC\Tools\MSVC\14.28.29333\include\xstring
;	COMDAT ?_Myptr@?$_String_val@U?$_Simple_types@D@std@@@std@@QAEPADXZ
_TEXT	SEGMENT
__Ptr$ = -20						; size = 4
__Result$ = -16						; size = 4
tv76 = -12						; size = 4
_this$ = -8						; size = 4
$T1 = -1						; size = 1
?_Myptr@?$_String_val@U?$_Simple_types@D@std@@@std@@QAEPADXZ PROC ; std::_String_val<std::_Simple_types<char> >::_Myptr, COMDAT
; _this$ = ecx

; 2208 :     value_type* _Myptr() noexcept {

  00000	55		 push	 ebp
  00001	8b ec		 mov	 ebp, esp
  00003	83 ec 14	 sub	 esp, 20			; 00000014H
  00006	89 4d f8	 mov	 DWORD PTR _this$[ebp], ecx

; 2209 :         value_type* _Result = _Bx._Buf;

  00009	8b 45 f8	 mov	 eax, DWORD PTR _this$[ebp]
  0000c	89 45 f0	 mov	 DWORD PTR __Result$[ebp], eax

; 2227 :         return _BUF_SIZE <= _Myres;

  0000f	8b 45 f8	 mov	 eax, DWORD PTR _this$[ebp]
  00012	83 78 14 10	 cmp	 DWORD PTR [eax+20], 16	; 00000010H
  00016	72 09		 jb	 SHORT $LN6@Myptr
  00018	c7 45 f4 01 00
	00 00		 mov	 DWORD PTR tv76[ebp], 1
  0001f	eb 04		 jmp	 SHORT $LN7@Myptr
$LN6@Myptr:
  00021	83 65 f4 00	 and	 DWORD PTR tv76[ebp], 0
$LN7@Myptr:
  00025	8a 45 f4	 mov	 al, BYTE PTR tv76[ebp]
  00028	88 45 ff	 mov	 BYTE PTR $T1[ebp], al

; 2210 :         if (_Large_string_engaged()) {

  0002b	0f b6 45 ff	 movzx	 eax, BYTE PTR $T1[ebp]
  0002f	85 c0		 test	 eax, eax
  00031	74 0e		 je	 SHORT $LN2@Myptr

; 2211 :             _Result = _Unfancy(_Bx._Ptr);

  00033	8b 45 f8	 mov	 eax, DWORD PTR _this$[ebp]
  00036	8b 00		 mov	 eax, DWORD PTR [eax]
  00038	89 45 ec	 mov	 DWORD PTR __Ptr$[ebp], eax
; File C:\Program Files (x86)\Microsoft Visual Studio\2019\Community\VC\Tools\MSVC\14.28.29333\include\xstddef

; 289  :     return _Ptr;

  0003b	8b 45 ec	 mov	 eax, DWORD PTR __Ptr$[ebp]
  0003e	89 45 f0	 mov	 DWORD PTR __Result$[ebp], eax
$LN2@Myptr:
; File C:\Program Files (x86)\Microsoft Visual Studio\2019\Community\VC\Tools\MSVC\14.28.29333\include\xstring

; 2214 :         return _Result;

  00041	8b 45 f0	 mov	 eax, DWORD PTR __Result$[ebp]

; 2215 :     }

  00044	c9		 leave
  00045	c3		 ret	 0
?_Myptr@?$_String_val@U?$_Simple_types@D@std@@@std@@QAEPADXZ ENDP ; std::_String_val<std::_Simple_types<char> >::_Myptr
_TEXT	ENDS
; Function compile flags: /Odspy
; File C:\Program Files (x86)\Microsoft Visual Studio\2019\Community\VC\Tools\MSVC\14.28.29333\include\xstring
;	COMDAT ?_Xlen_string@std@@YAXXZ
_TEXT	SEGMENT
?_Xlen_string@std@@YAXXZ PROC				; std::_Xlen_string, COMDAT

; 2274 : [[noreturn]] inline void _Xlen_string() {

  00000	55		 push	 ebp
  00001	8b ec		 mov	 ebp, esp

; 2275 :     _Xlength_error("string too long");

  00003	68 00 00 00 00	 push	 OFFSET ??_C@_0BA@JFNIOLAK@string?5too?5long@
  00008	e8 00 00 00 00	 call	 ?_Xlength_error@std@@YAXPBD@Z ; std::_Xlength_error
$LN2@Xlen_strin:

; 2276 : }

  0000d	5d		 pop	 ebp
  0000e	c3		 ret	 0
?_Xlen_string@std@@YAXXZ ENDP				; std::_Xlen_string
_TEXT	ENDS
; Function compile flags: /Odspy
; File C:\Program Files (x86)\Microsoft Visual Studio\2019\Community\VC\Tools\MSVC\14.28.29333\include\xmemory
;	COMDAT ?_Adjust_manually_vector_aligned@std@@YAXAAPAXAAI@Z
_TEXT	SEGMENT
__Min_back_shift$ = -16					; size = 4
__Ptr_user$ = -12					; size = 4
__Ptr_container$ = -8					; size = 4
__Back_shift$ = -4					; size = 4
__Ptr$ = 8						; size = 4
__Bytes$ = 12						; size = 4
?_Adjust_manually_vector_aligned@std@@YAXAAPAXAAI@Z PROC ; std::_Adjust_manually_vector_aligned, COMDAT

; 132  : inline void _Adjust_manually_vector_aligned(void*& _Ptr, size_t& _Bytes) {

  00000	55		 push	 ebp
  00001	8b ec		 mov	 ebp, esp
  00003	83 ec 10	 sub	 esp, 16			; 00000010H

; 133  :     // adjust parameters from _Allocate_manually_vector_aligned to pass to operator delete
; 134  :     _Bytes += _Non_user_size;

  00006	8b 45 0c	 mov	 eax, DWORD PTR __Bytes$[ebp]
  00009	8b 00		 mov	 eax, DWORD PTR [eax]
  0000b	83 c0 23	 add	 eax, 35			; 00000023H
  0000e	8b 4d 0c	 mov	 ecx, DWORD PTR __Bytes$[ebp]
  00011	89 01		 mov	 DWORD PTR [ecx], eax

; 135  : 
; 136  :     const uintptr_t* const _Ptr_user = reinterpret_cast<uintptr_t*>(_Ptr);

  00013	8b 45 08	 mov	 eax, DWORD PTR __Ptr$[ebp]
  00016	8b 00		 mov	 eax, DWORD PTR [eax]
  00018	89 45 f4	 mov	 DWORD PTR __Ptr_user$[ebp], eax

; 137  :     const uintptr_t _Ptr_container   = _Ptr_user[-1];

  0001b	6a 04		 push	 4
  0001d	58		 pop	 eax
  0001e	6b c0 ff	 imul	 eax, eax, -1
  00021	8b 4d f4	 mov	 ecx, DWORD PTR __Ptr_user$[ebp]
  00024	8b 04 01	 mov	 eax, DWORD PTR [ecx+eax]
  00027	89 45 f8	 mov	 DWORD PTR __Ptr_container$[ebp], eax

; 138  : 
; 139  :     // If the following asserts, it likely means that we are performing
; 140  :     // an aligned delete on memory coming from an unaligned allocation.
; 141  :     _STL_ASSERT(_Ptr_user[-2] == _Big_allocation_sentinel, "invalid argument");
; 142  : 
; 143  :     // Extra paranoia on aligned allocation/deallocation; ensure _Ptr_container is
; 144  :     // in range [_Min_back_shift, _Non_user_size]
; 145  : #ifdef _DEBUG
; 146  :     constexpr uintptr_t _Min_back_shift = 2 * sizeof(void*);
; 147  : #else // ^^^ _DEBUG ^^^ // vvv !_DEBUG vvv
; 148  :     constexpr uintptr_t _Min_back_shift = sizeof(void*);

  0002a	c7 45 f0 04 00
	00 00		 mov	 DWORD PTR __Min_back_shift$[ebp], 4

; 149  : #endif // _DEBUG
; 150  :     const uintptr_t _Back_shift = reinterpret_cast<uintptr_t>(_Ptr) - _Ptr_container;

  00031	8b 45 08	 mov	 eax, DWORD PTR __Ptr$[ebp]
  00034	8b 00		 mov	 eax, DWORD PTR [eax]
  00036	2b 45 f8	 sub	 eax, DWORD PTR __Ptr_container$[ebp]
  00039	89 45 fc	 mov	 DWORD PTR __Back_shift$[ebp], eax
$LN4@Adjust_man:

; 151  :     _STL_VERIFY(_Back_shift >= _Min_back_shift && _Back_shift <= _Non_user_size, "invalid argument");

  0003c	83 7d fc 04	 cmp	 DWORD PTR __Back_shift$[ebp], 4
  00040	72 08		 jb	 SHORT $LN7@Adjust_man
  00042	83 7d fc 23	 cmp	 DWORD PTR __Back_shift$[ebp], 35 ; 00000023H
  00046	77 02		 ja	 SHORT $LN7@Adjust_man
  00048	eb 09		 jmp	 SHORT $LN2@Adjust_man
$LN7@Adjust_man:
  0004a	e8 00 00 00 00	 call	 __invalid_parameter_noinfo_noreturn
  0004f	33 c0		 xor	 eax, eax
  00051	75 f7		 jne	 SHORT $LN7@Adjust_man
$LN2@Adjust_man:
  00053	33 c0		 xor	 eax, eax
  00055	75 e5		 jne	 SHORT $LN4@Adjust_man

; 152  :     _Ptr = reinterpret_cast<void*>(_Ptr_container);

  00057	8b 45 08	 mov	 eax, DWORD PTR __Ptr$[ebp]
  0005a	8b 4d f8	 mov	 ecx, DWORD PTR __Ptr_container$[ebp]
  0005d	89 08		 mov	 DWORD PTR [eax], ecx
$LN10@Adjust_man:

; 153  : }

  0005f	c9		 leave
  00060	c3		 ret	 0
?_Adjust_manually_vector_aligned@std@@YAXAAPAXAAI@Z ENDP ; std::_Adjust_manually_vector_aligned
_TEXT	ENDS
; Function compile flags: /Odspy
; File C:\Program Files (x86)\Microsoft Visual Studio\2019\Community\VC\Tools\MSVC\14.28.29333\include\exception
;	COMDAT ?_Throw_bad_array_new_length@std@@YAXXZ
_TEXT	SEGMENT
$T1 = -12						; size = 12
?_Throw_bad_array_new_length@std@@YAXXZ PROC		; std::_Throw_bad_array_new_length, COMDAT

; 320  : [[noreturn]] inline void _Throw_bad_array_new_length() {

  00000	55		 push	 ebp
  00001	8b ec		 mov	 ebp, esp
  00003	83 ec 0c	 sub	 esp, 12			; 0000000cH

; 321  :     _THROW(bad_array_new_length{});

  00006	8d 4d f4	 lea	 ecx, DWORD PTR $T1[ebp]
  00009	e8 00 00 00 00	 call	 ??0bad_array_new_length@std@@QAE@XZ ; std::bad_array_new_length::bad_array_new_length
  0000e	68 00 00 00 00	 push	 OFFSET __TI3?AVbad_array_new_length@std@@
  00013	8d 45 f4	 lea	 eax, DWORD PTR $T1[ebp]
  00016	50		 push	 eax
  00017	e8 00 00 00 00	 call	 __CxxThrowException@8
$LN2@Throw_bad_:

; 322  : }

  0001c	c9		 leave
  0001d	c3		 ret	 0
?_Throw_bad_array_new_length@std@@YAXXZ ENDP		; std::_Throw_bad_array_new_length
_TEXT	ENDS
; Function compile flags: /Odspy
; File C:\Program Files (x86)\Microsoft Visual Studio\2019\Community\VC\Tools\MSVC\14.28.29333\include\vcruntime_exception.h
;	COMDAT ??_Gbad_array_new_length@std@@UAEPAXI@Z
_TEXT	SEGMENT
_this$ = -4						; size = 4
___flags$ = 8						; size = 4
??_Gbad_array_new_length@std@@UAEPAXI@Z PROC		; std::bad_array_new_length::`scalar deleting destructor', COMDAT
; _this$ = ecx
  00000	55		 push	 ebp
  00001	8b ec		 mov	 ebp, esp
  00003	51		 push	 ecx
  00004	89 4d fc	 mov	 DWORD PTR _this$[ebp], ecx

; 89   :     {

  00007	8b 45 fc	 mov	 eax, DWORD PTR _this$[ebp]
  0000a	c7 00 00 00 00
	00		 mov	 DWORD PTR [eax], OFFSET ??_7exception@std@@6B@

; 90   :         __std_exception_destroy(&_Data);

  00010	8b 45 fc	 mov	 eax, DWORD PTR _this$[ebp]
  00013	83 c0 04	 add	 eax, 4
  00016	50		 push	 eax
  00017	e8 00 00 00 00	 call	 ___std_exception_destroy
  0001c	59		 pop	 ecx
  0001d	8b 45 08	 mov	 eax, DWORD PTR ___flags$[ebp]
  00020	83 e0 01	 and	 eax, 1
  00023	74 0c		 je	 SHORT $LN2@scalar
  00025	6a 0c		 push	 12			; 0000000cH
  00027	ff 75 fc	 push	 DWORD PTR _this$[ebp]
  0002a	e8 00 00 00 00	 call	 ??3@YAXPAXI@Z		; operator delete
  0002f	59		 pop	 ecx
  00030	59		 pop	 ecx
$LN2@scalar:
  00031	8b 45 fc	 mov	 eax, DWORD PTR _this$[ebp]
  00034	c9		 leave
  00035	c2 04 00	 ret	 4
??_Gbad_array_new_length@std@@UAEPAXI@Z ENDP		; std::bad_array_new_length::`scalar deleting destructor'
_TEXT	ENDS
; Function compile flags: /Odspy
;	COMDAT ??0bad_array_new_length@std@@QAE@ABV01@@Z
_TEXT	SEGMENT
_this$ = -4						; size = 4
___that$ = 8						; size = 4
??0bad_array_new_length@std@@QAE@ABV01@@Z PROC		; std::bad_array_new_length::bad_array_new_length, COMDAT
; _this$ = ecx
  00000	55		 push	 ebp
  00001	8b ec		 mov	 ebp, esp
  00003	51		 push	 ecx
  00004	89 4d fc	 mov	 DWORD PTR _this$[ebp], ecx
  00007	ff 75 08	 push	 DWORD PTR ___that$[ebp]
  0000a	8b 4d fc	 mov	 ecx, DWORD PTR _this$[ebp]
  0000d	e8 00 00 00 00	 call	 ??0exception@std@@QAE@ABV01@@Z ; std::exception::exception
  00012	8b 45 fc	 mov	 eax, DWORD PTR _this$[ebp]
  00015	c7 00 00 00 00
	00		 mov	 DWORD PTR [eax], OFFSET ??_7bad_alloc@std@@6B@
  0001b	8b 45 fc	 mov	 eax, DWORD PTR _this$[ebp]
  0001e	c7 00 00 00 00
	00		 mov	 DWORD PTR [eax], OFFSET ??_7bad_array_new_length@std@@6B@
  00024	8b 45 fc	 mov	 eax, DWORD PTR _this$[ebp]
  00027	c9		 leave
  00028	c2 04 00	 ret	 4
??0bad_array_new_length@std@@QAE@ABV01@@Z ENDP		; std::bad_array_new_length::bad_array_new_length
_TEXT	ENDS
; Function compile flags: /Odspy
; File C:\Program Files (x86)\Microsoft Visual Studio\2019\Community\VC\Tools\MSVC\14.28.29333\include\vcruntime_exception.h
;	COMDAT ??1bad_array_new_length@std@@UAE@XZ
_TEXT	SEGMENT
_this$ = -4						; size = 4
??1bad_array_new_length@std@@UAE@XZ PROC		; std::bad_array_new_length::~bad_array_new_length, COMDAT
; _this$ = ecx
  00000	55		 push	 ebp
  00001	8b ec		 mov	 ebp, esp
  00003	51		 push	 ecx
  00004	89 4d fc	 mov	 DWORD PTR _this$[ebp], ecx

; 89   :     {

  00007	8b 45 fc	 mov	 eax, DWORD PTR _this$[ebp]
  0000a	c7 00 00 00 00
	00		 mov	 DWORD PTR [eax], OFFSET ??_7exception@std@@6B@

; 90   :         __std_exception_destroy(&_Data);

  00010	8b 45 fc	 mov	 eax, DWORD PTR _this$[ebp]
  00013	83 c0 04	 add	 eax, 4
  00016	50		 push	 eax
  00017	e8 00 00 00 00	 call	 ___std_exception_destroy
  0001c	59		 pop	 ecx
  0001d	c9		 leave
  0001e	c3		 ret	 0
??1bad_array_new_length@std@@UAE@XZ ENDP		; std::bad_array_new_length::~bad_array_new_length
_TEXT	ENDS
; Function compile flags: /Odspy
; File C:\Program Files (x86)\Microsoft Visual Studio\2019\Community\VC\Tools\MSVC\14.28.29333\include\vcruntime_exception.h
;	COMDAT ??0bad_array_new_length@std@@QAE@XZ
_TEXT	SEGMENT
_this$ = -4						; size = 4
??0bad_array_new_length@std@@QAE@XZ PROC		; std::bad_array_new_length::bad_array_new_length, COMDAT
; _this$ = ecx

; 141  :     {

  00000	55		 push	 ebp
  00001	8b ec		 mov	 ebp, esp
  00003	51		 push	 ecx
  00004	89 4d fc	 mov	 DWORD PTR _this$[ebp], ecx

; 66   :     {

  00007	8b 45 fc	 mov	 eax, DWORD PTR _this$[ebp]
  0000a	c7 00 00 00 00
	00		 mov	 DWORD PTR [eax], OFFSET ??_7exception@std@@6B@

; 65   :         : _Data()

  00010	33 c0		 xor	 eax, eax
  00012	8b 4d fc	 mov	 ecx, DWORD PTR _this$[ebp]
  00015	83 c1 04	 add	 ecx, 4
  00018	89 01		 mov	 DWORD PTR [ecx], eax
  0001a	89 41 04	 mov	 DWORD PTR [ecx+4], eax

; 67   :         _Data._What = _Message;

  0001d	8b 45 fc	 mov	 eax, DWORD PTR _this$[ebp]
  00020	c7 40 04 00 00
	00 00		 mov	 DWORD PTR [eax+4], OFFSET ??_C@_0BF@KINCDENJ@bad?5array?5new?5length@

; 130  :     {

  00027	8b 45 fc	 mov	 eax, DWORD PTR _this$[ebp]
  0002a	c7 00 00 00 00
	00		 mov	 DWORD PTR [eax], OFFSET ??_7bad_alloc@std@@6B@

; 141  :     {

  00030	8b 45 fc	 mov	 eax, DWORD PTR _this$[ebp]
  00033	c7 00 00 00 00
	00		 mov	 DWORD PTR [eax], OFFSET ??_7bad_array_new_length@std@@6B@

; 142  :     }

  00039	8b 45 fc	 mov	 eax, DWORD PTR _this$[ebp]
  0003c	c9		 leave
  0003d	c3		 ret	 0
??0bad_array_new_length@std@@QAE@XZ ENDP		; std::bad_array_new_length::bad_array_new_length
_TEXT	ENDS
; Function compile flags: /Odspy
; File C:\Program Files (x86)\Microsoft Visual Studio\2019\Community\VC\Tools\MSVC\14.28.29333\include\vcruntime_exception.h
;	COMDAT ??_Gbad_alloc@std@@UAEPAXI@Z
_TEXT	SEGMENT
_this$ = -4						; size = 4
___flags$ = 8						; size = 4
??_Gbad_alloc@std@@UAEPAXI@Z PROC			; std::bad_alloc::`scalar deleting destructor', COMDAT
; _this$ = ecx
  00000	55		 push	 ebp
  00001	8b ec		 mov	 ebp, esp
  00003	51		 push	 ecx
  00004	89 4d fc	 mov	 DWORD PTR _this$[ebp], ecx

; 89   :     {

  00007	8b 45 fc	 mov	 eax, DWORD PTR _this$[ebp]
  0000a	c7 00 00 00 00
	00		 mov	 DWORD PTR [eax], OFFSET ??_7exception@std@@6B@

; 90   :         __std_exception_destroy(&_Data);

  00010	8b 45 fc	 mov	 eax, DWORD PTR _this$[ebp]
  00013	83 c0 04	 add	 eax, 4
  00016	50		 push	 eax
  00017	e8 00 00 00 00	 call	 ___std_exception_destroy
  0001c	59		 pop	 ecx
  0001d	8b 45 08	 mov	 eax, DWORD PTR ___flags$[ebp]
  00020	83 e0 01	 and	 eax, 1
  00023	74 0c		 je	 SHORT $LN2@scalar
  00025	6a 0c		 push	 12			; 0000000cH
  00027	ff 75 fc	 push	 DWORD PTR _this$[ebp]
  0002a	e8 00 00 00 00	 call	 ??3@YAXPAXI@Z		; operator delete
  0002f	59		 pop	 ecx
  00030	59		 pop	 ecx
$LN2@scalar:
  00031	8b 45 fc	 mov	 eax, DWORD PTR _this$[ebp]
  00034	c9		 leave
  00035	c2 04 00	 ret	 4
??_Gbad_alloc@std@@UAEPAXI@Z ENDP			; std::bad_alloc::`scalar deleting destructor'
_TEXT	ENDS
; Function compile flags: /Odspy
;	COMDAT ??0bad_alloc@std@@QAE@ABV01@@Z
_TEXT	SEGMENT
_this$ = -4						; size = 4
___that$ = 8						; size = 4
??0bad_alloc@std@@QAE@ABV01@@Z PROC			; std::bad_alloc::bad_alloc, COMDAT
; _this$ = ecx
  00000	55		 push	 ebp
  00001	8b ec		 mov	 ebp, esp
  00003	51		 push	 ecx
  00004	89 4d fc	 mov	 DWORD PTR _this$[ebp], ecx
  00007	ff 75 08	 push	 DWORD PTR ___that$[ebp]
  0000a	8b 4d fc	 mov	 ecx, DWORD PTR _this$[ebp]
  0000d	e8 00 00 00 00	 call	 ??0exception@std@@QAE@ABV01@@Z ; std::exception::exception
  00012	8b 45 fc	 mov	 eax, DWORD PTR _this$[ebp]
  00015	c7 00 00 00 00
	00		 mov	 DWORD PTR [eax], OFFSET ??_7bad_alloc@std@@6B@
  0001b	8b 45 fc	 mov	 eax, DWORD PTR _this$[ebp]
  0001e	c9		 leave
  0001f	c2 04 00	 ret	 4
??0bad_alloc@std@@QAE@ABV01@@Z ENDP			; std::bad_alloc::bad_alloc
_TEXT	ENDS
; Function compile flags: /Odspy
; File C:\Program Files (x86)\Microsoft Visual Studio\2019\Community\VC\Tools\MSVC\14.28.29333\include\vcruntime_exception.h
;	COMDAT ??_Gexception@std@@UAEPAXI@Z
_TEXT	SEGMENT
_this$ = -4						; size = 4
___flags$ = 8						; size = 4
??_Gexception@std@@UAEPAXI@Z PROC			; std::exception::`scalar deleting destructor', COMDAT
; _this$ = ecx
  00000	55		 push	 ebp
  00001	8b ec		 mov	 ebp, esp
  00003	51		 push	 ecx
  00004	89 4d fc	 mov	 DWORD PTR _this$[ebp], ecx

; 89   :     {

  00007	8b 45 fc	 mov	 eax, DWORD PTR _this$[ebp]
  0000a	c7 00 00 00 00
	00		 mov	 DWORD PTR [eax], OFFSET ??_7exception@std@@6B@

; 90   :         __std_exception_destroy(&_Data);

  00010	8b 45 fc	 mov	 eax, DWORD PTR _this$[ebp]
  00013	83 c0 04	 add	 eax, 4
  00016	50		 push	 eax
  00017	e8 00 00 00 00	 call	 ___std_exception_destroy
  0001c	59		 pop	 ecx
  0001d	8b 45 08	 mov	 eax, DWORD PTR ___flags$[ebp]
  00020	83 e0 01	 and	 eax, 1
  00023	74 0c		 je	 SHORT $LN2@scalar
  00025	6a 0c		 push	 12			; 0000000cH
  00027	ff 75 fc	 push	 DWORD PTR _this$[ebp]
  0002a	e8 00 00 00 00	 call	 ??3@YAXPAXI@Z		; operator delete
  0002f	59		 pop	 ecx
  00030	59		 pop	 ecx
$LN2@scalar:
  00031	8b 45 fc	 mov	 eax, DWORD PTR _this$[ebp]
  00034	c9		 leave
  00035	c2 04 00	 ret	 4
??_Gexception@std@@UAEPAXI@Z ENDP			; std::exception::`scalar deleting destructor'
_TEXT	ENDS
; Function compile flags: /Odspy
; File C:\Program Files (x86)\Microsoft Visual Studio\2019\Community\VC\Tools\MSVC\14.28.29333\include\vcruntime_exception.h
;	COMDAT ?what@exception@std@@UBEPBDXZ
_TEXT	SEGMENT
tv69 = -8						; size = 4
_this$ = -4						; size = 4
?what@exception@std@@UBEPBDXZ PROC			; std::exception::what, COMDAT
; _this$ = ecx

; 94   :     {

  00000	55		 push	 ebp
  00001	8b ec		 mov	 ebp, esp
  00003	51		 push	 ecx
  00004	51		 push	 ecx
  00005	89 4d fc	 mov	 DWORD PTR _this$[ebp], ecx

; 95   :         return _Data._What ? _Data._What : "Unknown exception";

  00008	8b 45 fc	 mov	 eax, DWORD PTR _this$[ebp]
  0000b	83 78 04 00	 cmp	 DWORD PTR [eax+4], 0
  0000f	74 0b		 je	 SHORT $LN3@what
  00011	8b 45 fc	 mov	 eax, DWORD PTR _this$[ebp]
  00014	8b 40 04	 mov	 eax, DWORD PTR [eax+4]
  00017	89 45 f8	 mov	 DWORD PTR tv69[ebp], eax
  0001a	eb 07		 jmp	 SHORT $LN4@what
$LN3@what:
  0001c	c7 45 f8 00 00
	00 00		 mov	 DWORD PTR tv69[ebp], OFFSET ??_C@_0BC@EOODALEL@Unknown?5exception@
$LN4@what:
  00023	8b 45 f8	 mov	 eax, DWORD PTR tv69[ebp]

; 96   :     }

  00026	c9		 leave
  00027	c3		 ret	 0
?what@exception@std@@UBEPBDXZ ENDP			; std::exception::what
_TEXT	ENDS
; Function compile flags: /Odspy
; File C:\Program Files (x86)\Microsoft Visual Studio\2019\Community\VC\Tools\MSVC\14.28.29333\include\vcruntime_exception.h
;	COMDAT ??0exception@std@@QAE@ABV01@@Z
_TEXT	SEGMENT
_this$ = -4						; size = 4
__Other$ = 8						; size = 4
??0exception@std@@QAE@ABV01@@Z PROC			; std::exception::exception, COMDAT
; _this$ = ecx

; 72   :     {

  00000	55		 push	 ebp
  00001	8b ec		 mov	 ebp, esp
  00003	51		 push	 ecx
  00004	89 4d fc	 mov	 DWORD PTR _this$[ebp], ecx
  00007	8b 45 fc	 mov	 eax, DWORD PTR _this$[ebp]
  0000a	c7 00 00 00 00
	00		 mov	 DWORD PTR [eax], OFFSET ??_7exception@std@@6B@

; 71   :         : _Data()

  00010	33 c0		 xor	 eax, eax
  00012	8b 4d fc	 mov	 ecx, DWORD PTR _this$[ebp]
  00015	83 c1 04	 add	 ecx, 4
  00018	89 01		 mov	 DWORD PTR [ecx], eax
  0001a	89 41 04	 mov	 DWORD PTR [ecx+4], eax

; 73   :         __std_exception_copy(&_Other._Data, &_Data);

  0001d	8b 45 fc	 mov	 eax, DWORD PTR _this$[ebp]
  00020	83 c0 04	 add	 eax, 4
  00023	50		 push	 eax
  00024	8b 45 08	 mov	 eax, DWORD PTR __Other$[ebp]
  00027	83 c0 04	 add	 eax, 4
  0002a	50		 push	 eax
  0002b	e8 00 00 00 00	 call	 ___std_exception_copy
  00030	59		 pop	 ecx
  00031	59		 pop	 ecx

; 74   :     }

  00032	8b 45 fc	 mov	 eax, DWORD PTR _this$[ebp]
  00035	c9		 leave
  00036	c2 04 00	 ret	 4
??0exception@std@@QAE@ABV01@@Z ENDP			; std::exception::exception
_TEXT	ENDS
; Function compile flags: /Odspy
; File C:\Program Files (x86)\Windows Kits\10\Include\10.0.18362.0\ucrt\stdio.h
;	COMDAT __snprintf
_TEXT	SEGMENT
__Result$ = -20						; size = 4
__Format$ = -16						; size = 4
__ArgList$ = -12					; size = 4
tv86 = -8						; size = 4
__Result$1 = -4						; size = 4
__Buffer$ = 8						; size = 4
__BufferCount$ = 12					; size = 4
__Format$ = 16						; size = 4
__snprintf PROC						; COMDAT

; 1969 :     {

  00000	55		 push	 ebp
  00001	8b ec		 mov	 ebp, esp
  00003	83 ec 14	 sub	 esp, 20			; 00000014H

; 1970 :         int _Result;
; 1971 :         va_list _ArgList;
; 1972 :         __crt_va_start(_ArgList, _Format);

  00006	8d 45 14	 lea	 eax, DWORD PTR __Format$[ebp+4]
  00009	89 45 f4	 mov	 DWORD PTR __ArgList$[ebp], eax

; 1973 :     #pragma warning(suppress:28719)    // 28719
; 1974 :         _Result = _vsnprintf(_Buffer, _BufferCount, _Format, _ArgList);

  0000c	8b 45 10	 mov	 eax, DWORD PTR __Format$[ebp]
  0000f	89 45 f0	 mov	 DWORD PTR __Format$[ebp], eax

; 1390 :         int const _Result = __stdio_common_vsprintf(

  00012	ff 75 f4	 push	 DWORD PTR __ArgList$[ebp]
  00015	6a 00		 push	 0
  00017	ff 75 f0	 push	 DWORD PTR __Format$[ebp]
  0001a	ff 75 0c	 push	 DWORD PTR __BufferCount$[ebp]
  0001d	ff 75 08	 push	 DWORD PTR __Buffer$[ebp]
  00020	e8 00 00 00 00	 call	 ___local_stdio_printf_options
  00025	8b 08		 mov	 ecx, DWORD PTR [eax]
  00027	83 c9 01	 or	 ecx, 1
  0002a	8b 40 04	 mov	 eax, DWORD PTR [eax+4]
  0002d	50		 push	 eax
  0002e	51		 push	 ecx
  0002f	e8 00 00 00 00	 call	 ___stdio_common_vsprintf
  00034	83 c4 1c	 add	 esp, 28			; 0000001cH
  00037	89 45 fc	 mov	 DWORD PTR __Result$1[ebp], eax

; 1391 :             _CRT_INTERNAL_LOCAL_PRINTF_OPTIONS | _CRT_INTERNAL_PRINTF_LEGACY_VSPRINTF_NULL_TERMINATION,
; 1392 :             _Buffer, _BufferCount, _Format, _Locale, _ArgList);
; 1393 : 
; 1394 :         return _Result < 0 ? -1 : _Result;

  0003a	83 7d fc 00	 cmp	 DWORD PTR __Result$1[ebp], 0
  0003e	7d 06		 jge	 SHORT $LN7@snprintf
  00040	83 4d f8 ff	 or	 DWORD PTR tv86[ebp], -1
  00044	eb 06		 jmp	 SHORT $LN3@snprintf
$LN7@snprintf:
  00046	8b 45 fc	 mov	 eax, DWORD PTR __Result$1[ebp]
  00049	89 45 f8	 mov	 DWORD PTR tv86[ebp], eax
$LN3@snprintf:

; 1973 :     #pragma warning(suppress:28719)    // 28719
; 1974 :         _Result = _vsnprintf(_Buffer, _BufferCount, _Format, _ArgList);

  0004c	8b 45 f8	 mov	 eax, DWORD PTR tv86[ebp]
  0004f	89 45 ec	 mov	 DWORD PTR __Result$[ebp], eax

; 1975 :         __crt_va_end(_ArgList);

  00052	83 65 f4 00	 and	 DWORD PTR __ArgList$[ebp], 0

; 1976 :         return _Result;

  00056	8b 45 ec	 mov	 eax, DWORD PTR __Result$[ebp]

; 1977 :     }

  00059	c9		 leave
  0005a	c3		 ret	 0
__snprintf ENDP
_TEXT	ENDS
; Function compile flags: /Odspy
; File C:\Program Files (x86)\Windows Kits\10\Include\10.0.18362.0\ucrt\stdio.h
;	COMDAT _sprintf
_TEXT	SEGMENT
__Result$ = -20						; size = 4
__Format$ = -16						; size = 4
__ArgList$ = -12					; size = 4
tv86 = -8						; size = 4
__Result$1 = -4						; size = 4
__Buffer$ = 8						; size = 4
__Format$ = 12						; size = 4
_sprintf PROC						; COMDAT

; 1781 :     {

  00000	55		 push	 ebp
  00001	8b ec		 mov	 ebp, esp
  00003	83 ec 14	 sub	 esp, 20			; 00000014H

; 1782 :         int _Result;
; 1783 :         va_list _ArgList;
; 1784 :         __crt_va_start(_ArgList, _Format);

  00006	8d 45 10	 lea	 eax, DWORD PTR __Format$[ebp+4]
  00009	89 45 f4	 mov	 DWORD PTR __ArgList$[ebp], eax

; 1785 : 
; 1786 :         #pragma warning(push)
; 1787 :         #pragma warning(disable: 4996) // Deprecation
; 1788 :         _Result = _vsprintf_l(_Buffer, _Format, NULL, _ArgList);

  0000c	8b 45 0c	 mov	 eax, DWORD PTR __Format$[ebp]
  0000f	89 45 f0	 mov	 DWORD PTR __Format$[ebp], eax

; 1390 :         int const _Result = __stdio_common_vsprintf(

  00012	ff 75 f4	 push	 DWORD PTR __ArgList$[ebp]
  00015	6a 00		 push	 0
  00017	ff 75 f0	 push	 DWORD PTR __Format$[ebp]
  0001a	6a ff		 push	 -1
  0001c	ff 75 08	 push	 DWORD PTR __Buffer$[ebp]
  0001f	e8 00 00 00 00	 call	 ___local_stdio_printf_options
  00024	8b 08		 mov	 ecx, DWORD PTR [eax]
  00026	83 c9 01	 or	 ecx, 1
  00029	8b 40 04	 mov	 eax, DWORD PTR [eax+4]
  0002c	50		 push	 eax
  0002d	51		 push	 ecx
  0002e	e8 00 00 00 00	 call	 ___stdio_common_vsprintf
  00033	83 c4 1c	 add	 esp, 28			; 0000001cH
  00036	89 45 fc	 mov	 DWORD PTR __Result$1[ebp], eax

; 1391 :             _CRT_INTERNAL_LOCAL_PRINTF_OPTIONS | _CRT_INTERNAL_PRINTF_LEGACY_VSPRINTF_NULL_TERMINATION,
; 1392 :             _Buffer, _BufferCount, _Format, _Locale, _ArgList);
; 1393 : 
; 1394 :         return _Result < 0 ? -1 : _Result;

  00039	83 7d fc 00	 cmp	 DWORD PTR __Result$1[ebp], 0
  0003d	7d 06		 jge	 SHORT $LN7@sprintf
  0003f	83 4d f8 ff	 or	 DWORD PTR tv86[ebp], -1
  00043	eb 06		 jmp	 SHORT $LN3@sprintf
$LN7@sprintf:
  00045	8b 45 fc	 mov	 eax, DWORD PTR __Result$1[ebp]
  00048	89 45 f8	 mov	 DWORD PTR tv86[ebp], eax
$LN3@sprintf:

; 1785 : 
; 1786 :         #pragma warning(push)
; 1787 :         #pragma warning(disable: 4996) // Deprecation
; 1788 :         _Result = _vsprintf_l(_Buffer, _Format, NULL, _ArgList);

  0004b	8b 45 f8	 mov	 eax, DWORD PTR tv86[ebp]
  0004e	89 45 ec	 mov	 DWORD PTR __Result$[ebp], eax

; 1789 :         #pragma warning(pop)
; 1790 : 
; 1791 :         __crt_va_end(_ArgList);

  00051	83 65 f4 00	 and	 DWORD PTR __ArgList$[ebp], 0

; 1792 :         return _Result;

  00055	8b 45 ec	 mov	 eax, DWORD PTR __Result$[ebp]

; 1793 :     }

  00058	c9		 leave
  00059	c3		 ret	 0
_sprintf ENDP
_TEXT	ENDS
; Function compile flags: /Odspy
; File C:\Program Files (x86)\Windows Kits\10\Include\10.0.18362.0\ucrt\stdio.h
;	COMDAT _printf
_TEXT	SEGMENT
__Result$ = -16						; size = 4
__Stream$ = -12						; size = 4
__Format$ = -8						; size = 4
__ArgList$ = -4						; size = 4
__Format$ = 8						; size = 4
_printf	PROC						; COMDAT

; 954  :     {

  00000	55		 push	 ebp
  00001	8b ec		 mov	 ebp, esp
  00003	83 ec 10	 sub	 esp, 16			; 00000010H

; 955  :         int _Result;
; 956  :         va_list _ArgList;
; 957  :         __crt_va_start(_ArgList, _Format);

  00006	8d 45 0c	 lea	 eax, DWORD PTR __Format$[ebp+4]
  00009	89 45 fc	 mov	 DWORD PTR __ArgList$[ebp], eax

; 958  :         _Result = _vfprintf_l(stdout, _Format, NULL, _ArgList);

  0000c	8b 45 08	 mov	 eax, DWORD PTR __Format$[ebp]
  0000f	89 45 f8	 mov	 DWORD PTR __Format$[ebp], eax
  00012	6a 01		 push	 1
  00014	e8 00 00 00 00	 call	 ___acrt_iob_func
  00019	59		 pop	 ecx
  0001a	89 45 f4	 mov	 DWORD PTR __Stream$[ebp], eax

; 643  :         return __stdio_common_vfprintf(_CRT_INTERNAL_LOCAL_PRINTF_OPTIONS, _Stream, _Format, _Locale, _ArgList);

  0001d	ff 75 fc	 push	 DWORD PTR __ArgList$[ebp]
  00020	6a 00		 push	 0
  00022	ff 75 f8	 push	 DWORD PTR __Format$[ebp]
  00025	ff 75 f4	 push	 DWORD PTR __Stream$[ebp]
  00028	e8 00 00 00 00	 call	 ___local_stdio_printf_options
  0002d	ff 70 04	 push	 DWORD PTR [eax+4]
  00030	ff 30		 push	 DWORD PTR [eax]
  00032	e8 00 00 00 00	 call	 ___stdio_common_vfprintf
  00037	83 c4 18	 add	 esp, 24			; 00000018H

; 958  :         _Result = _vfprintf_l(stdout, _Format, NULL, _ArgList);

  0003a	89 45 f0	 mov	 DWORD PTR __Result$[ebp], eax

; 959  :         __crt_va_end(_ArgList);

  0003d	83 65 fc 00	 and	 DWORD PTR __ArgList$[ebp], 0

; 960  :         return _Result;

  00041	8b 45 f0	 mov	 eax, DWORD PTR __Result$[ebp]

; 961  :     }

  00044	c9		 leave
  00045	c3		 ret	 0
_printf	ENDP
_TEXT	ENDS
; Function compile flags: /Odspy
; File C:\Program Files (x86)\Windows Kits\10\Include\10.0.18362.0\ucrt\stdio.h
;	COMDAT _fprintf
_TEXT	SEGMENT
__Result$ = -12						; size = 4
__Format$ = -8						; size = 4
__ArgList$ = -4						; size = 4
__Stream$ = 8						; size = 4
__Format$ = 12						; size = 4
_fprintf PROC						; COMDAT

; 835  :     {

  00000	55		 push	 ebp
  00001	8b ec		 mov	 ebp, esp
  00003	83 ec 0c	 sub	 esp, 12			; 0000000cH

; 836  :         int _Result;
; 837  :         va_list _ArgList;
; 838  :         __crt_va_start(_ArgList, _Format);

  00006	8d 45 10	 lea	 eax, DWORD PTR __Format$[ebp+4]
  00009	89 45 fc	 mov	 DWORD PTR __ArgList$[ebp], eax

; 839  :         _Result = _vfprintf_l(_Stream, _Format, NULL, _ArgList);

  0000c	8b 45 0c	 mov	 eax, DWORD PTR __Format$[ebp]
  0000f	89 45 f8	 mov	 DWORD PTR __Format$[ebp], eax

; 643  :         return __stdio_common_vfprintf(_CRT_INTERNAL_LOCAL_PRINTF_OPTIONS, _Stream, _Format, _Locale, _ArgList);

  00012	ff 75 fc	 push	 DWORD PTR __ArgList$[ebp]
  00015	6a 00		 push	 0
  00017	ff 75 f8	 push	 DWORD PTR __Format$[ebp]
  0001a	ff 75 08	 push	 DWORD PTR __Stream$[ebp]
  0001d	e8 00 00 00 00	 call	 ___local_stdio_printf_options
  00022	ff 70 04	 push	 DWORD PTR [eax+4]
  00025	ff 30		 push	 DWORD PTR [eax]
  00027	e8 00 00 00 00	 call	 ___stdio_common_vfprintf
  0002c	83 c4 18	 add	 esp, 24			; 00000018H

; 839  :         _Result = _vfprintf_l(_Stream, _Format, NULL, _ArgList);

  0002f	89 45 f4	 mov	 DWORD PTR __Result$[ebp], eax

; 840  :         __crt_va_end(_ArgList);

  00032	83 65 fc 00	 and	 DWORD PTR __ArgList$[ebp], 0

; 841  :         return _Result;

  00036	8b 45 f4	 mov	 eax, DWORD PTR __Result$[ebp]

; 842  :     }

  00039	c9		 leave
  0003a	c3		 ret	 0
_fprintf ENDP
_TEXT	ENDS
; Function compile flags: /Odspy
; File C:\Program Files (x86)\Windows Kits\10\Include\10.0.18362.0\ucrt\corecrt_stdio_config.h
;	COMDAT ___local_stdio_printf_options
_TEXT	SEGMENT
___local_stdio_printf_options PROC			; COMDAT

; 86   :     {

  00000	55		 push	 ebp
  00001	8b ec		 mov	 ebp, esp

; 87   :         static unsigned __int64 _OptionsStorage;
; 88   :         return &_OptionsStorage;

  00003	b8 00 00 00 00	 mov	 eax, OFFSET ?_OptionsStorage@?1??__local_stdio_printf_options@@9@4_KA ; `__local_stdio_printf_options'::`2'::_OptionsStorage

; 89   :     }

  00008	5d		 pop	 ebp
  00009	c3		 ret	 0
___local_stdio_printf_options ENDP
_TEXT	ENDS
; Function compile flags: /Odspy
; File D:\Metin2 Server Files\mainline\SRC_2014\Metin2Client\UserInterface\PythonApplication.cpp
;	COMDAT ?__empty_global_delete@@YAXPAXI@Z
_TEXT	SEGMENT
___formal$ = 8						; size = 4
___formal$ = 12						; size = 4
?__empty_global_delete@@YAXPAXI@Z PROC			; __empty_global_delete, COMDAT

  00000	55		 push	 ebp
  00001	8b ec		 mov	 ebp, esp
  00003	5d		 pop	 ebp
  00004	c3		 ret	 0
?__empty_global_delete@@YAXPAXI@Z ENDP			; __empty_global_delete
_TEXT	ENDS
; Function compile flags: /Odspy
; File D:\Metin2 Server Files\mainline\SRC_2014\Metin2Client\UserInterface\PythonApplication.cpp
;	COMDAT ?__empty_global_delete@@YAXPAX@Z
_TEXT	SEGMENT
___formal$ = 8						; size = 4
?__empty_global_delete@@YAXPAX@Z PROC			; __empty_global_delete, COMDAT

  00000	55		 push	 ebp
  00001	8b ec		 mov	 ebp, esp
  00003	5d		 pop	 ebp
  00004	c3		 ret	 0
?__empty_global_delete@@YAXPAX@Z ENDP			; __empty_global_delete
_TEXT	ENDS
; Function compile flags: /Odspy
;	COMDAT ??_H@YGXPAXIIP6EPAX0@Z@Z
_TEXT	SEGMENT
tv66 = -4						; size = 4
___t$ = 8						; size = 4
___s$ = 12						; size = 4
___n$ = 16						; size = 4
___f$ = 20						; size = 4
??_H@YGXPAXIIP6EPAX0@Z@Z PROC				; `vector constructor iterator', COMDAT
  00000	55		 push	 ebp
  00001	8b ec		 mov	 ebp, esp
  00003	51		 push	 ecx
$LN2@vector:
  00004	8b 45 10	 mov	 eax, DWORD PTR ___n$[ebp]
  00007	89 45 fc	 mov	 DWORD PTR tv66[ebp], eax
  0000a	8b 45 10	 mov	 eax, DWORD PTR ___n$[ebp]
  0000d	48		 dec	 eax
  0000e	89 45 10	 mov	 DWORD PTR ___n$[ebp], eax
  00011	83 7d fc 00	 cmp	 DWORD PTR tv66[ebp], 0
  00015	76 11		 jbe	 SHORT $LN1@vector
  00017	8b 4d 08	 mov	 ecx, DWORD PTR ___t$[ebp]
  0001a	ff 55 14	 call	 DWORD PTR ___f$[ebp]
  0001d	8b 45 08	 mov	 eax, DWORD PTR ___t$[ebp]
  00020	03 45 0c	 add	 eax, DWORD PTR ___s$[ebp]
  00023	89 45 08	 mov	 DWORD PTR ___t$[ebp], eax
  00026	eb dc		 jmp	 SHORT $LN2@vector
$LN1@vector:
  00028	c9		 leave
  00029	c2 10 00	 ret	 16			; 00000010H
??_H@YGXPAXIIP6EPAX0@Z@Z ENDP				; `vector constructor iterator'
_TEXT	ENDS
END
