; Listing generated by Microsoft (R) Optimizing Compiler Version 19.28.29335.0 

	TITLE	D:\Metin2 Server Files\mainline\SRC_2014\Metin2Client\UserInterface\PythonIME.cpp
	.686P
	.XMM
	include listing.inc
	.model	flat

INCLUDELIB LIBCMT
INCLUDELIB OLDNAMES

PUBLIC	??_G?$CSingleton@VCPythonIME@@@@UAEPAXI@Z	; CSingleton<CPythonIME>::`scalar deleting destructor'
PUBLIC	??0CPythonIME@@QAE@XZ				; CPythonIME::CPythonIME
PUBLIC	??1CPythonIME@@UAE@XZ				; CPythonIME::~CPythonIME
PUBLIC	?MoveLeft@CPythonIME@@QAEXXZ			; CPythonIME::MoveLeft
PUBLIC	?MoveRight@CPythonIME@@QAEXXZ			; CPythonIME::MoveRight
PUBLIC	?MoveHome@CPythonIME@@QAEXXZ			; CPythonIME::MoveHome
PUBLIC	?MoveEnd@CPythonIME@@QAEXXZ			; CPythonIME::MoveEnd
PUBLIC	?SetCursorPosition@CPythonIME@@QAEXH@Z		; CPythonIME::SetCursorPosition
PUBLIC	?Delete@CPythonIME@@QAEXXZ			; CPythonIME::Delete
PUBLIC	?Create@CPythonIME@@QAEXPAUHWND__@@@Z		; CPythonIME::Create
PUBLIC	?OnTab@CPythonIME@@MAEXXZ			; CPythonIME::OnTab
PUBLIC	?OnReturn@CPythonIME@@MAEXXZ			; CPythonIME::OnReturn
PUBLIC	?OnEscape@CPythonIME@@MAEXXZ			; CPythonIME::OnEscape
PUBLIC	?OnWM_CHAR@CPythonIME@@MAE_NIJ@Z		; CPythonIME::OnWM_CHAR
PUBLIC	?OnUpdate@CPythonIME@@MAEXXZ			; CPythonIME::OnUpdate
PUBLIC	?OnChangeCodePage@CPythonIME@@MAEXXZ		; CPythonIME::OnChangeCodePage
PUBLIC	?OnOpenCandidateList@CPythonIME@@MAEXXZ		; CPythonIME::OnOpenCandidateList
PUBLIC	?OnCloseCandidateList@CPythonIME@@MAEXXZ	; CPythonIME::OnCloseCandidateList
PUBLIC	?OnOpenReadingWnd@CPythonIME@@MAEXXZ		; CPythonIME::OnOpenReadingWnd
PUBLIC	?OnCloseReadingWnd@CPythonIME@@MAEXXZ		; CPythonIME::OnCloseReadingWnd
PUBLIC	??_GCPythonIME@@UAEPAXI@Z			; CPythonIME::`scalar deleting destructor'
PUBLIC	??_ECPythonIME@@W3AEPAXI@Z			; [thunk]:CPythonIME::`vector deleting destructor'
PUBLIC	??_ECPythonIME@@WICI@AEPAXI@Z			; [thunk]:CPythonIME::`vector deleting destructor'
PUBLIC	??_7IIMEEventSink@@6B@				; IIMEEventSink::`vftable'
PUBLIC	?ms_singleton@?$CSingleton@VCPythonIME@@@@0PAVCPythonIME@@A ; CSingleton<CPythonIME>::ms_singleton
PUBLIC	??_7?$CSingleton@VCPythonIME@@@@6B@		; CSingleton<CPythonIME>::`vftable'
PUBLIC	??_7CPythonIME@@6BIIMEEventSink@@@		; CPythonIME::`vftable'
PUBLIC	??_7CPythonIME@@6BCIME@@@			; CPythonIME::`vftable'
PUBLIC	??_7CPythonIME@@6B?$CSingleton@VCPythonIME@@@@@	; CPythonIME::`vftable'
PUBLIC	?ms_singleton@?$TAbstractSingleton@VIAbstractApplication@@@@0PAVIAbstractApplication@@A ; TAbstractSingleton<IAbstractApplication>::ms_singleton
PUBLIC	??_C@_0BA@DKDMKINE@PythonIME?5Clear@		; `string'
PUBLIC	??_R4IIMEEventSink@@6B@				; IIMEEventSink::`RTTI Complete Object Locator'
PUBLIC	??_R0?AVIIMEEventSink@@@8			; IIMEEventSink `RTTI Type Descriptor'
PUBLIC	??_R3IIMEEventSink@@8				; IIMEEventSink::`RTTI Class Hierarchy Descriptor'
PUBLIC	??_R2IIMEEventSink@@8				; IIMEEventSink::`RTTI Base Class Array'
PUBLIC	??_R1A@?0A@EA@IIMEEventSink@@8			; IIMEEventSink::`RTTI Base Class Descriptor at (0,-1,0,64)'
PUBLIC	??_R4CPythonIME@@6BIIMEEventSink@@@		; CPythonIME::`RTTI Complete Object Locator'
PUBLIC	??_R0?AVCPythonIME@@@8				; CPythonIME `RTTI Type Descriptor'
PUBLIC	??_R3CPythonIME@@8				; CPythonIME::`RTTI Class Hierarchy Descriptor'
PUBLIC	??_R2CPythonIME@@8				; CPythonIME::`RTTI Base Class Array'
PUBLIC	??_R1A@?0A@EA@CPythonIME@@8			; CPythonIME::`RTTI Base Class Descriptor at (0,-1,0,64)'
PUBLIC	??_R13?0A@EA@CIME@@8				; CIME::`RTTI Base Class Descriptor at (4,-1,0,64)'
PUBLIC	??_R0?AVCIME@@@8				; CIME `RTTI Type Descriptor'
PUBLIC	??_R3CIME@@8					; CIME::`RTTI Class Hierarchy Descriptor'
PUBLIC	??_R2CIME@@8					; CIME::`RTTI Base Class Array'
PUBLIC	??_R1A@?0A@EA@CIME@@8				; CIME::`RTTI Base Class Descriptor at (0,-1,0,64)'
PUBLIC	??_R1ICI@?0A@EA@?$CSingleton@VCPythonIME@@@@8	; CSingleton<CPythonIME>::`RTTI Base Class Descriptor at (2088,-1,0,64)'
PUBLIC	??_R0?AV?$CSingleton@VCPythonIME@@@@@8		; CSingleton<CPythonIME> `RTTI Type Descriptor'
PUBLIC	??_R3?$CSingleton@VCPythonIME@@@@8		; CSingleton<CPythonIME>::`RTTI Class Hierarchy Descriptor'
PUBLIC	??_R2?$CSingleton@VCPythonIME@@@@8		; CSingleton<CPythonIME>::`RTTI Base Class Array'
PUBLIC	??_R1A@?0A@EA@?$CSingleton@VCPythonIME@@@@8	; CSingleton<CPythonIME>::`RTTI Base Class Descriptor at (0,-1,0,64)'
PUBLIC	??_R4CPythonIME@@6BCIME@@@			; CPythonIME::`RTTI Complete Object Locator'
PUBLIC	??_R4CPythonIME@@6B?$CSingleton@VCPythonIME@@@@@ ; CPythonIME::`RTTI Complete Object Locator'
PUBLIC	??_R4?$CSingleton@VCPythonIME@@@@6B@		; CSingleton<CPythonIME>::`RTTI Complete Object Locator'
EXTRN	__purecall:PROC
EXTRN	??3@YAXPAXI@Z:PROC				; operator delete
EXTRN	?Tracen@@YAXPBD@Z:PROC				; Tracen
EXTRN	??0CIME@@QAE@XZ:PROC				; CIME::CIME
EXTRN	??1CIME@@UAE@XZ:PROC				; CIME::~CIME
EXTRN	?Initialize@CIME@@QAE_NPAUHWND__@@@Z:PROC	; CIME::Initialize
EXTRN	?IncCurPos@CIME@@IAEXXZ:PROC			; CIME::IncCurPos
EXTRN	?DecCurPos@CIME@@IAEXXZ:PROC			; CIME::DecCurPos
EXTRN	?SetCurPos@CIME@@IAEXH@Z:PROC			; CIME::SetCurPos
EXTRN	?DelCurPos@CIME@@IAEXXZ:PROC			; CIME::DelCurPos
EXTRN	??_E?$CSingleton@VCPythonIME@@@@UAEPAXI@Z:PROC	; CSingleton<CPythonIME>::`vector deleting destructor'
EXTRN	??_ECPythonIME@@UAEPAXI@Z:PROC			; CPythonIME::`vector deleting destructor'
EXTRN	@__security_check_cookie@4:PROC
EXTRN	___CxxFrameHandler3:PROC
EXTRN	??_7type_info@@6B@:QWORD			; type_info::`vftable'
EXTRN	?ms_bCaptureInput@CIME@@2_NA:BYTE		; CIME::ms_bCaptureInput
EXTRN	?ms_pEvent@CIME@@2PAVIIMEEventSink@@A:DWORD	; CIME::ms_pEvent
EXTRN	?ms_curpos@CIME@@2HA:DWORD			; CIME::ms_curpos
EXTRN	?ms_lastpos@CIME@@2HA:DWORD			; CIME::ms_lastpos
EXTRN	___security_cookie:DWORD
;	COMDAT ?ms_singleton@?$CSingleton@VCPythonIME@@@@0PAVCPythonIME@@A
_BSS	SEGMENT
?ms_singleton@?$CSingleton@VCPythonIME@@@@0PAVCPythonIME@@A DD 01H DUP (?) ; CSingleton<CPythonIME>::ms_singleton
_BSS	ENDS
;	COMDAT ?ms_singleton@?$TAbstractSingleton@VIAbstractApplication@@@@0PAVIAbstractApplication@@A
_BSS	SEGMENT
?ms_singleton@?$TAbstractSingleton@VIAbstractApplication@@@@0PAVIAbstractApplication@@A DD 01H DUP (?) ; TAbstractSingleton<IAbstractApplication>::ms_singleton
_BSS	ENDS
;	COMDAT ??_R4?$CSingleton@VCPythonIME@@@@6B@
rdata$r	SEGMENT
??_R4?$CSingleton@VCPythonIME@@@@6B@ DD 00H		; CSingleton<CPythonIME>::`RTTI Complete Object Locator'
	DD	00H
	DD	00H
	DD	FLAT:??_R0?AV?$CSingleton@VCPythonIME@@@@@8
	DD	FLAT:??_R3?$CSingleton@VCPythonIME@@@@8
rdata$r	ENDS
;	COMDAT ??_R4CPythonIME@@6B?$CSingleton@VCPythonIME@@@@@
rdata$r	SEGMENT
??_R4CPythonIME@@6B?$CSingleton@VCPythonIME@@@@@ DD 00H	; CPythonIME::`RTTI Complete Object Locator'
	DD	0828H
	DD	00H
	DD	FLAT:??_R0?AVCPythonIME@@@8
	DD	FLAT:??_R3CPythonIME@@8
rdata$r	ENDS
;	COMDAT ??_R4CPythonIME@@6BCIME@@@
rdata$r	SEGMENT
??_R4CPythonIME@@6BCIME@@@ DD 00H			; CPythonIME::`RTTI Complete Object Locator'
	DD	04H
	DD	00H
	DD	FLAT:??_R0?AVCPythonIME@@@8
	DD	FLAT:??_R3CPythonIME@@8
rdata$r	ENDS
;	COMDAT ??_R1A@?0A@EA@?$CSingleton@VCPythonIME@@@@8
rdata$r	SEGMENT
??_R1A@?0A@EA@?$CSingleton@VCPythonIME@@@@8 DD FLAT:??_R0?AV?$CSingleton@VCPythonIME@@@@@8 ; CSingleton<CPythonIME>::`RTTI Base Class Descriptor at (0,-1,0,64)'
	DD	00H
	DD	00H
	DD	0ffffffffH
	DD	00H
	DD	040H
	DD	FLAT:??_R3?$CSingleton@VCPythonIME@@@@8
rdata$r	ENDS
;	COMDAT ??_R2?$CSingleton@VCPythonIME@@@@8
rdata$r	SEGMENT
??_R2?$CSingleton@VCPythonIME@@@@8 DD FLAT:??_R1A@?0A@EA@?$CSingleton@VCPythonIME@@@@8 ; CSingleton<CPythonIME>::`RTTI Base Class Array'
rdata$r	ENDS
;	COMDAT ??_R3?$CSingleton@VCPythonIME@@@@8
rdata$r	SEGMENT
??_R3?$CSingleton@VCPythonIME@@@@8 DD 00H		; CSingleton<CPythonIME>::`RTTI Class Hierarchy Descriptor'
	DD	00H
	DD	01H
	DD	FLAT:??_R2?$CSingleton@VCPythonIME@@@@8
rdata$r	ENDS
;	COMDAT ??_R0?AV?$CSingleton@VCPythonIME@@@@@8
data$rs	SEGMENT
??_R0?AV?$CSingleton@VCPythonIME@@@@@8 DD FLAT:??_7type_info@@6B@ ; CSingleton<CPythonIME> `RTTI Type Descriptor'
	DD	00H
	DB	'.?AV?$CSingleton@VCPythonIME@@@@', 00H
data$rs	ENDS
;	COMDAT ??_R1ICI@?0A@EA@?$CSingleton@VCPythonIME@@@@8
rdata$r	SEGMENT
??_R1ICI@?0A@EA@?$CSingleton@VCPythonIME@@@@8 DD FLAT:??_R0?AV?$CSingleton@VCPythonIME@@@@@8 ; CSingleton<CPythonIME>::`RTTI Base Class Descriptor at (2088,-1,0,64)'
	DD	00H
	DD	0828H
	DD	0ffffffffH
	DD	00H
	DD	040H
	DD	FLAT:??_R3?$CSingleton@VCPythonIME@@@@8
rdata$r	ENDS
;	COMDAT ??_R1A@?0A@EA@CIME@@8
rdata$r	SEGMENT
??_R1A@?0A@EA@CIME@@8 DD FLAT:??_R0?AVCIME@@@8		; CIME::`RTTI Base Class Descriptor at (0,-1,0,64)'
	DD	00H
	DD	00H
	DD	0ffffffffH
	DD	00H
	DD	040H
	DD	FLAT:??_R3CIME@@8
rdata$r	ENDS
;	COMDAT ??_R2CIME@@8
rdata$r	SEGMENT
??_R2CIME@@8 DD	FLAT:??_R1A@?0A@EA@CIME@@8		; CIME::`RTTI Base Class Array'
rdata$r	ENDS
;	COMDAT ??_R3CIME@@8
rdata$r	SEGMENT
??_R3CIME@@8 DD	00H					; CIME::`RTTI Class Hierarchy Descriptor'
	DD	00H
	DD	01H
	DD	FLAT:??_R2CIME@@8
rdata$r	ENDS
;	COMDAT ??_R0?AVCIME@@@8
data$rs	SEGMENT
??_R0?AVCIME@@@8 DD FLAT:??_7type_info@@6B@		; CIME `RTTI Type Descriptor'
	DD	00H
	DB	'.?AVCIME@@', 00H
data$rs	ENDS
;	COMDAT ??_R13?0A@EA@CIME@@8
rdata$r	SEGMENT
??_R13?0A@EA@CIME@@8 DD FLAT:??_R0?AVCIME@@@8		; CIME::`RTTI Base Class Descriptor at (4,-1,0,64)'
	DD	00H
	DD	04H
	DD	0ffffffffH
	DD	00H
	DD	040H
	DD	FLAT:??_R3CIME@@8
rdata$r	ENDS
;	COMDAT ??_R1A@?0A@EA@CPythonIME@@8
rdata$r	SEGMENT
??_R1A@?0A@EA@CPythonIME@@8 DD FLAT:??_R0?AVCPythonIME@@@8 ; CPythonIME::`RTTI Base Class Descriptor at (0,-1,0,64)'
	DD	03H
	DD	00H
	DD	0ffffffffH
	DD	00H
	DD	040H
	DD	FLAT:??_R3CPythonIME@@8
rdata$r	ENDS
;	COMDAT ??_R2CPythonIME@@8
rdata$r	SEGMENT
??_R2CPythonIME@@8 DD FLAT:??_R1A@?0A@EA@CPythonIME@@8	; CPythonIME::`RTTI Base Class Array'
	DD	FLAT:??_R1A@?0A@EA@IIMEEventSink@@8
	DD	FLAT:??_R13?0A@EA@CIME@@8
	DD	FLAT:??_R1ICI@?0A@EA@?$CSingleton@VCPythonIME@@@@8
rdata$r	ENDS
;	COMDAT ??_R3CPythonIME@@8
rdata$r	SEGMENT
??_R3CPythonIME@@8 DD 00H				; CPythonIME::`RTTI Class Hierarchy Descriptor'
	DD	01H
	DD	04H
	DD	FLAT:??_R2CPythonIME@@8
rdata$r	ENDS
;	COMDAT ??_R0?AVCPythonIME@@@8
data$rs	SEGMENT
??_R0?AVCPythonIME@@@8 DD FLAT:??_7type_info@@6B@	; CPythonIME `RTTI Type Descriptor'
	DD	00H
	DB	'.?AVCPythonIME@@', 00H
data$rs	ENDS
;	COMDAT ??_R4CPythonIME@@6BIIMEEventSink@@@
rdata$r	SEGMENT
??_R4CPythonIME@@6BIIMEEventSink@@@ DD 00H		; CPythonIME::`RTTI Complete Object Locator'
	DD	00H
	DD	00H
	DD	FLAT:??_R0?AVCPythonIME@@@8
	DD	FLAT:??_R3CPythonIME@@8
rdata$r	ENDS
;	COMDAT ??_R1A@?0A@EA@IIMEEventSink@@8
rdata$r	SEGMENT
??_R1A@?0A@EA@IIMEEventSink@@8 DD FLAT:??_R0?AVIIMEEventSink@@@8 ; IIMEEventSink::`RTTI Base Class Descriptor at (0,-1,0,64)'
	DD	00H
	DD	00H
	DD	0ffffffffH
	DD	00H
	DD	040H
	DD	FLAT:??_R3IIMEEventSink@@8
rdata$r	ENDS
;	COMDAT ??_R2IIMEEventSink@@8
rdata$r	SEGMENT
??_R2IIMEEventSink@@8 DD FLAT:??_R1A@?0A@EA@IIMEEventSink@@8 ; IIMEEventSink::`RTTI Base Class Array'
rdata$r	ENDS
;	COMDAT ??_R3IIMEEventSink@@8
rdata$r	SEGMENT
??_R3IIMEEventSink@@8 DD 00H				; IIMEEventSink::`RTTI Class Hierarchy Descriptor'
	DD	00H
	DD	01H
	DD	FLAT:??_R2IIMEEventSink@@8
rdata$r	ENDS
;	COMDAT ??_R0?AVIIMEEventSink@@@8
data$rs	SEGMENT
??_R0?AVIIMEEventSink@@@8 DD FLAT:??_7type_info@@6B@	; IIMEEventSink `RTTI Type Descriptor'
	DD	00H
	DB	'.?AVIIMEEventSink@@', 00H
data$rs	ENDS
;	COMDAT ??_R4IIMEEventSink@@6B@
rdata$r	SEGMENT
??_R4IIMEEventSink@@6B@ DD 00H				; IIMEEventSink::`RTTI Complete Object Locator'
	DD	00H
	DD	00H
	DD	FLAT:??_R0?AVIIMEEventSink@@@8
	DD	FLAT:??_R3IIMEEventSink@@8
rdata$r	ENDS
;	COMDAT ??_C@_0BA@DKDMKINE@PythonIME?5Clear@
CONST	SEGMENT
??_C@_0BA@DKDMKINE@PythonIME?5Clear@ DB 'PythonIME Clear', 00H ; `string'
CONST	ENDS
;	COMDAT ??_7CPythonIME@@6B?$CSingleton@VCPythonIME@@@@@
CONST	SEGMENT
??_7CPythonIME@@6B?$CSingleton@VCPythonIME@@@@@ DD FLAT:??_R4CPythonIME@@6B?$CSingleton@VCPythonIME@@@@@ ; CPythonIME::`vftable'
	DD	FLAT:??_ECPythonIME@@WICI@AEPAXI@Z
CONST	ENDS
;	COMDAT ??_7CPythonIME@@6BCIME@@@
CONST	SEGMENT
??_7CPythonIME@@6BCIME@@@ DD FLAT:??_R4CPythonIME@@6BCIME@@@ ; CPythonIME::`vftable'
	DD	FLAT:??_ECPythonIME@@W3AEPAXI@Z
CONST	ENDS
;	COMDAT ??_7CPythonIME@@6BIIMEEventSink@@@
CONST	SEGMENT
??_7CPythonIME@@6BIIMEEventSink@@@ DD FLAT:??_R4CPythonIME@@6BIIMEEventSink@@@ ; CPythonIME::`vftable'
	DD	FLAT:?OnWM_CHAR@CPythonIME@@MAE_NIJ@Z
	DD	FLAT:?OnUpdate@CPythonIME@@MAEXXZ
	DD	FLAT:?OnChangeCodePage@CPythonIME@@MAEXXZ
	DD	FLAT:?OnOpenCandidateList@CPythonIME@@MAEXXZ
	DD	FLAT:?OnCloseCandidateList@CPythonIME@@MAEXXZ
	DD	FLAT:?OnOpenReadingWnd@CPythonIME@@MAEXXZ
	DD	FLAT:?OnCloseReadingWnd@CPythonIME@@MAEXXZ
	DD	FLAT:?OnTab@CPythonIME@@MAEXXZ
	DD	FLAT:?OnReturn@CPythonIME@@MAEXXZ
	DD	FLAT:?OnEscape@CPythonIME@@MAEXXZ
CONST	ENDS
;	COMDAT ??_7?$CSingleton@VCPythonIME@@@@6B@
CONST	SEGMENT
??_7?$CSingleton@VCPythonIME@@@@6B@ DD FLAT:??_R4?$CSingleton@VCPythonIME@@@@6B@ ; CSingleton<CPythonIME>::`vftable'
	DD	FLAT:??_E?$CSingleton@VCPythonIME@@@@UAEPAXI@Z
CONST	ENDS
;	COMDAT ??_7IIMEEventSink@@6B@
CONST	SEGMENT
??_7IIMEEventSink@@6B@ DD FLAT:??_R4IIMEEventSink@@6B@	; IIMEEventSink::`vftable'
	DD	FLAT:__purecall
	DD	FLAT:__purecall
	DD	FLAT:__purecall
	DD	FLAT:__purecall
	DD	FLAT:__purecall
	DD	FLAT:__purecall
	DD	FLAT:__purecall
CONST	ENDS
;	COMDAT xdata$x
xdata$x	SEGMENT
__ehfuncinfo$??1CPythonIME@@UAE@XZ DD 019930522H
	DD	00H
	DD	00H
	DD	2 DUP(00H)
	DD	2 DUP(00H)
	DD	00H
	DD	05H
xdata$x	ENDS
; Function compile flags: /Odspy
;	COMDAT ??_ECPythonIME@@WICI@AEPAXI@Z
_TEXT	SEGMENT
??_ECPythonIME@@WICI@AEPAXI@Z PROC			; [thunk]:CPythonIME::`vector deleting destructor', COMDAT
  00000	81 e9 28 08 00
	00		 sub	 ecx, 2088		; 00000828H
  00006	e9 00 00 00 00	 jmp	 ??_ECPythonIME@@UAEPAXI@Z
??_ECPythonIME@@WICI@AEPAXI@Z ENDP			; [thunk]:CPythonIME::`vector deleting destructor'
_TEXT	ENDS
; Function compile flags: /Odspy
;	COMDAT ??_ECPythonIME@@W3AEPAXI@Z
_TEXT	SEGMENT
??_ECPythonIME@@W3AEPAXI@Z PROC				; [thunk]:CPythonIME::`vector deleting destructor', COMDAT
  00000	83 e9 04	 sub	 ecx, 4
  00003	e9 00 00 00 00	 jmp	 ??_ECPythonIME@@UAEPAXI@Z
??_ECPythonIME@@W3AEPAXI@Z ENDP				; [thunk]:CPythonIME::`vector deleting destructor'
_TEXT	ENDS
; Function compile flags: /Odspy
;	COMDAT ??_GCPythonIME@@UAEPAXI@Z
_TEXT	SEGMENT
_this$ = -4						; size = 4
___flags$ = 8						; size = 4
??_GCPythonIME@@UAEPAXI@Z PROC				; CPythonIME::`scalar deleting destructor', COMDAT
; _this$ = ecx
  00000	55		 push	 ebp
  00001	8b ec		 mov	 ebp, esp
  00003	51		 push	 ecx
  00004	89 4d fc	 mov	 DWORD PTR _this$[ebp], ecx
  00007	8b 4d fc	 mov	 ecx, DWORD PTR _this$[ebp]
  0000a	e8 00 00 00 00	 call	 ??1CPythonIME@@UAE@XZ	; CPythonIME::~CPythonIME
  0000f	8b 45 08	 mov	 eax, DWORD PTR ___flags$[ebp]
  00012	83 e0 01	 and	 eax, 1
  00015	74 0f		 je	 SHORT $LN2@scalar
  00017	68 2c 08 00 00	 push	 2092			; 0000082cH
  0001c	ff 75 fc	 push	 DWORD PTR _this$[ebp]
  0001f	e8 00 00 00 00	 call	 ??3@YAXPAXI@Z		; operator delete
  00024	59		 pop	 ecx
  00025	59		 pop	 ecx
$LN2@scalar:
  00026	8b 45 fc	 mov	 eax, DWORD PTR _this$[ebp]
  00029	c9		 leave
  0002a	c2 04 00	 ret	 4
??_GCPythonIME@@UAEPAXI@Z ENDP				; CPythonIME::`scalar deleting destructor'
_TEXT	ENDS
; Function compile flags: /Odspy
; File D:\Metin2 Server Files\mainline\SRC_2014\Metin2Client\UserInterface\PythonIME.cpp
;	COMDAT ?OnCloseReadingWnd@CPythonIME@@MAEXXZ
_TEXT	SEGMENT
_this$ = -8						; size = 4
tv66 = -4						; size = 4
?OnCloseReadingWnd@CPythonIME@@MAEXXZ PROC		; CPythonIME::OnCloseReadingWnd, COMDAT
; _this$ = ecx

; 117  : {

  00000	55		 push	 ebp
  00001	8b ec		 mov	 ebp, esp
  00003	51		 push	 ecx
  00004	51		 push	 ecx
  00005	89 4d f8	 mov	 DWORD PTR _this$[ebp], ecx

; 118  : 	IAbstractApplication::GetSingleton().RunIMECloseReadingWndEvent();

  00008	a1 00 00 00 00	 mov	 eax, DWORD PTR ?ms_singleton@?$TAbstractSingleton@VIAbstractApplication@@@@0PAVIAbstractApplication@@A ; TAbstractSingleton<IAbstractApplication>::ms_singleton
  0000d	89 45 fc	 mov	 DWORD PTR tv66[ebp], eax
  00010	8b 45 fc	 mov	 eax, DWORD PTR tv66[ebp]
  00013	8b 00		 mov	 eax, DWORD PTR [eax]
  00015	8b 4d fc	 mov	 ecx, DWORD PTR tv66[ebp]
  00018	ff 50 44	 call	 DWORD PTR [eax+68]

; 119  : }

  0001b	c9		 leave
  0001c	c3		 ret	 0
?OnCloseReadingWnd@CPythonIME@@MAEXXZ ENDP		; CPythonIME::OnCloseReadingWnd
_TEXT	ENDS
; Function compile flags: /Odspy
; File D:\Metin2 Server Files\mainline\SRC_2014\Metin2Client\UserInterface\PythonIME.cpp
;	COMDAT ?OnOpenReadingWnd@CPythonIME@@MAEXXZ
_TEXT	SEGMENT
_this$ = -8						; size = 4
tv66 = -4						; size = 4
?OnOpenReadingWnd@CPythonIME@@MAEXXZ PROC		; CPythonIME::OnOpenReadingWnd, COMDAT
; _this$ = ecx

; 112  : {

  00000	55		 push	 ebp
  00001	8b ec		 mov	 ebp, esp
  00003	51		 push	 ecx
  00004	51		 push	 ecx
  00005	89 4d f8	 mov	 DWORD PTR _this$[ebp], ecx

; 113  : 	IAbstractApplication::GetSingleton().RunIMEOpenReadingWndEvent();

  00008	a1 00 00 00 00	 mov	 eax, DWORD PTR ?ms_singleton@?$TAbstractSingleton@VIAbstractApplication@@@@0PAVIAbstractApplication@@A ; TAbstractSingleton<IAbstractApplication>::ms_singleton
  0000d	89 45 fc	 mov	 DWORD PTR tv66[ebp], eax
  00010	8b 45 fc	 mov	 eax, DWORD PTR tv66[ebp]
  00013	8b 00		 mov	 eax, DWORD PTR [eax]
  00015	8b 4d fc	 mov	 ecx, DWORD PTR tv66[ebp]
  00018	ff 50 40	 call	 DWORD PTR [eax+64]

; 114  : }

  0001b	c9		 leave
  0001c	c3		 ret	 0
?OnOpenReadingWnd@CPythonIME@@MAEXXZ ENDP		; CPythonIME::OnOpenReadingWnd
_TEXT	ENDS
; Function compile flags: /Odspy
; File D:\Metin2 Server Files\mainline\SRC_2014\Metin2Client\UserInterface\PythonIME.cpp
;	COMDAT ?OnCloseCandidateList@CPythonIME@@MAEXXZ
_TEXT	SEGMENT
_this$ = -8						; size = 4
tv66 = -4						; size = 4
?OnCloseCandidateList@CPythonIME@@MAEXXZ PROC		; CPythonIME::OnCloseCandidateList, COMDAT
; _this$ = ecx

; 107  : {

  00000	55		 push	 ebp
  00001	8b ec		 mov	 ebp, esp
  00003	51		 push	 ecx
  00004	51		 push	 ecx
  00005	89 4d f8	 mov	 DWORD PTR _this$[ebp], ecx

; 108  : 	IAbstractApplication::GetSingleton().RunIMECloseCandidateListEvent();

  00008	a1 00 00 00 00	 mov	 eax, DWORD PTR ?ms_singleton@?$TAbstractSingleton@VIAbstractApplication@@@@0PAVIAbstractApplication@@A ; TAbstractSingleton<IAbstractApplication>::ms_singleton
  0000d	89 45 fc	 mov	 DWORD PTR tv66[ebp], eax
  00010	8b 45 fc	 mov	 eax, DWORD PTR tv66[ebp]
  00013	8b 00		 mov	 eax, DWORD PTR [eax]
  00015	8b 4d fc	 mov	 ecx, DWORD PTR tv66[ebp]
  00018	ff 50 3c	 call	 DWORD PTR [eax+60]

; 109  : }

  0001b	c9		 leave
  0001c	c3		 ret	 0
?OnCloseCandidateList@CPythonIME@@MAEXXZ ENDP		; CPythonIME::OnCloseCandidateList
_TEXT	ENDS
; Function compile flags: /Odspy
; File D:\Metin2 Server Files\mainline\SRC_2014\Metin2Client\UserInterface\PythonIME.cpp
;	COMDAT ?OnOpenCandidateList@CPythonIME@@MAEXXZ
_TEXT	SEGMENT
_this$ = -8						; size = 4
tv66 = -4						; size = 4
?OnOpenCandidateList@CPythonIME@@MAEXXZ PROC		; CPythonIME::OnOpenCandidateList, COMDAT
; _this$ = ecx

; 102  : {

  00000	55		 push	 ebp
  00001	8b ec		 mov	 ebp, esp
  00003	51		 push	 ecx
  00004	51		 push	 ecx
  00005	89 4d f8	 mov	 DWORD PTR _this$[ebp], ecx

; 103  : 	IAbstractApplication::GetSingleton().RunIMEOpenCandidateListEvent();

  00008	a1 00 00 00 00	 mov	 eax, DWORD PTR ?ms_singleton@?$TAbstractSingleton@VIAbstractApplication@@@@0PAVIAbstractApplication@@A ; TAbstractSingleton<IAbstractApplication>::ms_singleton
  0000d	89 45 fc	 mov	 DWORD PTR tv66[ebp], eax
  00010	8b 45 fc	 mov	 eax, DWORD PTR tv66[ebp]
  00013	8b 00		 mov	 eax, DWORD PTR [eax]
  00015	8b 4d fc	 mov	 ecx, DWORD PTR tv66[ebp]
  00018	ff 50 38	 call	 DWORD PTR [eax+56]

; 104  : }

  0001b	c9		 leave
  0001c	c3		 ret	 0
?OnOpenCandidateList@CPythonIME@@MAEXXZ ENDP		; CPythonIME::OnOpenCandidateList
_TEXT	ENDS
; Function compile flags: /Odspy
; File D:\Metin2 Server Files\mainline\SRC_2014\Metin2Client\UserInterface\PythonIME.cpp
;	COMDAT ?OnChangeCodePage@CPythonIME@@MAEXXZ
_TEXT	SEGMENT
_this$ = -8						; size = 4
tv66 = -4						; size = 4
?OnChangeCodePage@CPythonIME@@MAEXXZ PROC		; CPythonIME::OnChangeCodePage, COMDAT
; _this$ = ecx

; 97   : {

  00000	55		 push	 ebp
  00001	8b ec		 mov	 ebp, esp
  00003	51		 push	 ecx
  00004	51		 push	 ecx
  00005	89 4d f8	 mov	 DWORD PTR _this$[ebp], ecx

; 98   : 	IAbstractApplication::GetSingleton().RunIMEChangeCodePage();

  00008	a1 00 00 00 00	 mov	 eax, DWORD PTR ?ms_singleton@?$TAbstractSingleton@VIAbstractApplication@@@@0PAVIAbstractApplication@@A ; TAbstractSingleton<IAbstractApplication>::ms_singleton
  0000d	89 45 fc	 mov	 DWORD PTR tv66[ebp], eax
  00010	8b 45 fc	 mov	 eax, DWORD PTR tv66[ebp]
  00013	8b 00		 mov	 eax, DWORD PTR [eax]
  00015	8b 4d fc	 mov	 ecx, DWORD PTR tv66[ebp]
  00018	ff 50 34	 call	 DWORD PTR [eax+52]

; 99   : }

  0001b	c9		 leave
  0001c	c3		 ret	 0
?OnChangeCodePage@CPythonIME@@MAEXXZ ENDP		; CPythonIME::OnChangeCodePage
_TEXT	ENDS
; Function compile flags: /Odspy
; File D:\Metin2 Server Files\mainline\SRC_2014\Metin2Client\UserInterface\PythonIME.cpp
;	COMDAT ?OnUpdate@CPythonIME@@MAEXXZ
_TEXT	SEGMENT
_this$ = -8						; size = 4
tv66 = -4						; size = 4
?OnUpdate@CPythonIME@@MAEXXZ PROC			; CPythonIME::OnUpdate, COMDAT
; _this$ = ecx

; 52   : {

  00000	55		 push	 ebp
  00001	8b ec		 mov	 ebp, esp
  00003	51		 push	 ecx
  00004	51		 push	 ecx
  00005	89 4d f8	 mov	 DWORD PTR _this$[ebp], ecx

; 53   : 	IAbstractApplication::GetSingleton().RunIMEUpdate();

  00008	a1 00 00 00 00	 mov	 eax, DWORD PTR ?ms_singleton@?$TAbstractSingleton@VIAbstractApplication@@@@0PAVIAbstractApplication@@A ; TAbstractSingleton<IAbstractApplication>::ms_singleton
  0000d	89 45 fc	 mov	 DWORD PTR tv66[ebp], eax
  00010	8b 45 fc	 mov	 eax, DWORD PTR tv66[ebp]
  00013	8b 00		 mov	 eax, DWORD PTR [eax]
  00015	8b 4d fc	 mov	 ecx, DWORD PTR tv66[ebp]
  00018	ff 50 28	 call	 DWORD PTR [eax+40]

; 54   : }

  0001b	c9		 leave
  0001c	c3		 ret	 0
?OnUpdate@CPythonIME@@MAEXXZ ENDP			; CPythonIME::OnUpdate
_TEXT	ENDS
; Function compile flags: /Odspy
; File D:\Metin2 Server Files\mainline\SRC_2014\Metin2Client\UserInterface\PythonIME.cpp
;	COMDAT ?OnWM_CHAR@CPythonIME@@MAE_NIJ@Z
_TEXT	SEGMENT
tv67 = -12						; size = 4
_this$ = -8						; size = 4
_c$ = -1						; size = 1
_wParam$ = 8						; size = 4
_lParam$ = 12						; size = 4
?OnWM_CHAR@CPythonIME@@MAE_NIJ@Z PROC			; CPythonIME::OnWM_CHAR, COMDAT
; _this$ = ecx

; 72   : {

  00000	55		 push	 ebp
  00001	8b ec		 mov	 ebp, esp
  00003	83 ec 0c	 sub	 esp, 12			; 0000000cH
  00006	89 4d f8	 mov	 DWORD PTR _this$[ebp], ecx

; 73   : 	unsigned char c = unsigned char(wParam & 0xff);

  00009	8b 45 08	 mov	 eax, DWORD PTR _wParam$[ebp]
  0000c	25 ff 00 00 00	 and	 eax, 255		; 000000ffH
  00011	88 45 ff	 mov	 BYTE PTR _c$[ebp], al

; 74   : 
; 75   : 	switch (c) 

  00014	8a 45 ff	 mov	 al, BYTE PTR _c$[ebp]
  00017	88 45 f4	 mov	 BYTE PTR tv67[ebp], al
  0001a	80 7d f4 09	 cmp	 BYTE PTR tv67[ebp], 9
  0001e	74 1d		 je	 SHORT $LN5@OnWM_CHAR
  00020	80 7d f4 0d	 cmp	 BYTE PTR tv67[ebp], 13	; 0000000dH
  00024	74 08		 je	 SHORT $LN4@OnWM_CHAR
  00026	80 7d f4 1b	 cmp	 BYTE PTR tv67[ebp], 27	; 0000001bH
  0002a	74 2f		 je	 SHORT $LN7@OnWM_CHAR
  0002c	eb 4b		 jmp	 SHORT $LN2@OnWM_CHAR
$LN4@OnWM_CHAR:

; 76   : 	{
; 77   : 	case VK_RETURN:
; 78   : 		OnReturn();

  0002e	8b 45 f8	 mov	 eax, DWORD PTR _this$[ebp]
  00031	8b 00		 mov	 eax, DWORD PTR [eax]
  00033	8b 4d f8	 mov	 ecx, DWORD PTR _this$[ebp]
  00036	ff 50 20	 call	 DWORD PTR [eax+32]

; 79   : 		return true;

  00039	b0 01		 mov	 al, 1
  0003b	eb 3e		 jmp	 SHORT $LN1@OnWM_CHAR
$LN5@OnWM_CHAR:

; 80   : 
; 81   : 	case VK_TAB:
; 82   : 		if(ms_bCaptureInput == false)

  0003d	0f b6 05 00 00
	00 00		 movzx	 eax, BYTE PTR ?ms_bCaptureInput@CIME@@2_NA ; CIME::ms_bCaptureInput
  00044	85 c0		 test	 eax, eax
  00046	75 04		 jne	 SHORT $LN6@OnWM_CHAR

; 83   : 			return 0;

  00048	32 c0		 xor	 al, al
  0004a	eb 2f		 jmp	 SHORT $LN1@OnWM_CHAR
$LN6@OnWM_CHAR:

; 84   : 		OnTab();

  0004c	8b 45 f8	 mov	 eax, DWORD PTR _this$[ebp]
  0004f	8b 00		 mov	 eax, DWORD PTR [eax]
  00051	8b 4d f8	 mov	 ecx, DWORD PTR _this$[ebp]
  00054	ff 50 1c	 call	 DWORD PTR [eax+28]

; 85   : 		return true;

  00057	b0 01		 mov	 al, 1
  00059	eb 20		 jmp	 SHORT $LN1@OnWM_CHAR
$LN7@OnWM_CHAR:

; 86   : 
; 87   : 	case VK_ESCAPE:
; 88   : 		if(ms_bCaptureInput == false)

  0005b	0f b6 05 00 00
	00 00		 movzx	 eax, BYTE PTR ?ms_bCaptureInput@CIME@@2_NA ; CIME::ms_bCaptureInput
  00062	85 c0		 test	 eax, eax
  00064	75 04		 jne	 SHORT $LN8@OnWM_CHAR

; 89   : 			return 0;

  00066	32 c0		 xor	 al, al
  00068	eb 11		 jmp	 SHORT $LN1@OnWM_CHAR
$LN8@OnWM_CHAR:

; 90   : 		OnEscape();

  0006a	8b 45 f8	 mov	 eax, DWORD PTR _this$[ebp]
  0006d	8b 00		 mov	 eax, DWORD PTR [eax]
  0006f	8b 4d f8	 mov	 ecx, DWORD PTR _this$[ebp]
  00072	ff 50 24	 call	 DWORD PTR [eax+36]

; 91   : 		return true;

  00075	b0 01		 mov	 al, 1
  00077	eb 02		 jmp	 SHORT $LN1@OnWM_CHAR
$LN2@OnWM_CHAR:

; 92   : 	}
; 93   : 	return false;

  00079	32 c0		 xor	 al, al
$LN1@OnWM_CHAR:

; 94   : }

  0007b	c9		 leave
  0007c	c2 08 00	 ret	 8
?OnWM_CHAR@CPythonIME@@MAE_NIJ@Z ENDP			; CPythonIME::OnWM_CHAR
_TEXT	ENDS
; Function compile flags: /Odspy
; File D:\Metin2 Server Files\mainline\SRC_2014\Metin2Client\UserInterface\PythonIME.cpp
;	COMDAT ?OnEscape@CPythonIME@@MAEXXZ
_TEXT	SEGMENT
_this$ = -4						; size = 4
?OnEscape@CPythonIME@@MAEXXZ PROC			; CPythonIME::OnEscape, COMDAT
; _this$ = ecx

; 67   : {

  00000	55		 push	 ebp
  00001	8b ec		 mov	 ebp, esp
  00003	51		 push	 ecx
  00004	89 4d fc	 mov	 DWORD PTR _this$[ebp], ecx

; 68   : //	IAbstractApplication::GetSingleton().RunIMEEscapeEvent();
; 69   : }

  00007	c9		 leave
  00008	c3		 ret	 0
?OnEscape@CPythonIME@@MAEXXZ ENDP			; CPythonIME::OnEscape
_TEXT	ENDS
; Function compile flags: /Odspy
; File D:\Metin2 Server Files\mainline\SRC_2014\Metin2Client\UserInterface\PythonIME.cpp
;	COMDAT ?OnReturn@CPythonIME@@MAEXXZ
_TEXT	SEGMENT
_this$ = -8						; size = 4
tv66 = -4						; size = 4
?OnReturn@CPythonIME@@MAEXXZ PROC			; CPythonIME::OnReturn, COMDAT
; _this$ = ecx

; 62   : {

  00000	55		 push	 ebp
  00001	8b ec		 mov	 ebp, esp
  00003	51		 push	 ecx
  00004	51		 push	 ecx
  00005	89 4d f8	 mov	 DWORD PTR _this$[ebp], ecx

; 63   : 	IAbstractApplication::GetSingleton().RunIMEReturnEvent();

  00008	a1 00 00 00 00	 mov	 eax, DWORD PTR ?ms_singleton@?$TAbstractSingleton@VIAbstractApplication@@@@0PAVIAbstractApplication@@A ; TAbstractSingleton<IAbstractApplication>::ms_singleton
  0000d	89 45 fc	 mov	 DWORD PTR tv66[ebp], eax
  00010	8b 45 fc	 mov	 eax, DWORD PTR tv66[ebp]
  00013	8b 00		 mov	 eax, DWORD PTR [eax]
  00015	8b 4d fc	 mov	 ecx, DWORD PTR tv66[ebp]
  00018	ff 50 30	 call	 DWORD PTR [eax+48]

; 64   : }

  0001b	c9		 leave
  0001c	c3		 ret	 0
?OnReturn@CPythonIME@@MAEXXZ ENDP			; CPythonIME::OnReturn
_TEXT	ENDS
; Function compile flags: /Odspy
; File D:\Metin2 Server Files\mainline\SRC_2014\Metin2Client\UserInterface\PythonIME.cpp
;	COMDAT ?OnTab@CPythonIME@@MAEXXZ
_TEXT	SEGMENT
_this$ = -8						; size = 4
tv66 = -4						; size = 4
?OnTab@CPythonIME@@MAEXXZ PROC				; CPythonIME::OnTab, COMDAT
; _this$ = ecx

; 57   : {

  00000	55		 push	 ebp
  00001	8b ec		 mov	 ebp, esp
  00003	51		 push	 ecx
  00004	51		 push	 ecx
  00005	89 4d f8	 mov	 DWORD PTR _this$[ebp], ecx

; 58   : 	IAbstractApplication::GetSingleton().RunIMETabEvent();

  00008	a1 00 00 00 00	 mov	 eax, DWORD PTR ?ms_singleton@?$TAbstractSingleton@VIAbstractApplication@@@@0PAVIAbstractApplication@@A ; TAbstractSingleton<IAbstractApplication>::ms_singleton
  0000d	89 45 fc	 mov	 DWORD PTR tv66[ebp], eax
  00010	8b 45 fc	 mov	 eax, DWORD PTR tv66[ebp]
  00013	8b 00		 mov	 eax, DWORD PTR [eax]
  00015	8b 4d fc	 mov	 ecx, DWORD PTR tv66[ebp]
  00018	ff 50 2c	 call	 DWORD PTR [eax+44]

; 59   : }

  0001b	c9		 leave
  0001c	c3		 ret	 0
?OnTab@CPythonIME@@MAEXXZ ENDP				; CPythonIME::OnTab
_TEXT	ENDS
; Function compile flags: /Odspy
; File D:\Metin2 Server Files\mainline\SRC_2014\Metin2Client\UserInterface\PythonIME.cpp
;	COMDAT ?Create@CPythonIME@@QAEXPAUHWND__@@@Z
_TEXT	SEGMENT
_this$ = -4						; size = 4
_hWnd$ = 8						; size = 4
?Create@CPythonIME@@QAEXPAUHWND__@@@Z PROC		; CPythonIME::Create, COMDAT
; _this$ = ecx

; 17   : {

  00000	55		 push	 ebp
  00001	8b ec		 mov	 ebp, esp
  00003	51		 push	 ecx
  00004	89 4d fc	 mov	 DWORD PTR _this$[ebp], ecx

; 18   : 	Initialize(hWnd);

  00007	ff 75 08	 push	 DWORD PTR _hWnd$[ebp]
  0000a	8b 4d fc	 mov	 ecx, DWORD PTR _this$[ebp]
  0000d	83 c1 04	 add	 ecx, 4
  00010	e8 00 00 00 00	 call	 ?Initialize@CIME@@QAE_NPAUHWND__@@@Z ; CIME::Initialize

; 19   : }

  00015	c9		 leave
  00016	c2 04 00	 ret	 4
?Create@CPythonIME@@QAEXPAUHWND__@@@Z ENDP		; CPythonIME::Create
_TEXT	ENDS
; Function compile flags: /Odspy
; File D:\Metin2 Server Files\mainline\SRC_2014\Metin2Client\UserInterface\PythonIME.cpp
;	COMDAT ?Delete@CPythonIME@@QAEXXZ
_TEXT	SEGMENT
_this$ = -4						; size = 4
?Delete@CPythonIME@@QAEXXZ PROC				; CPythonIME::Delete, COMDAT
; _this$ = ecx

; 47   : {

  00000	55		 push	 ebp
  00001	8b ec		 mov	 ebp, esp
  00003	51		 push	 ecx
  00004	89 4d fc	 mov	 DWORD PTR _this$[ebp], ecx

; 48   : 	DelCurPos();

  00007	8b 4d fc	 mov	 ecx, DWORD PTR _this$[ebp]
  0000a	83 c1 04	 add	 ecx, 4
  0000d	e8 00 00 00 00	 call	 ?DelCurPos@CIME@@IAEXXZ	; CIME::DelCurPos

; 49   : }

  00012	c9		 leave
  00013	c3		 ret	 0
?Delete@CPythonIME@@QAEXXZ ENDP				; CPythonIME::Delete
_TEXT	ENDS
; Function compile flags: /Odspy
; File D:\Metin2 Server Files\mainline\SRC_2014\Metin2Client\UserInterface\PythonIME.cpp
;	COMDAT ?SetCursorPosition@CPythonIME@@QAEXH@Z
_TEXT	SEGMENT
_this$ = -4						; size = 4
_iPosition$ = 8						; size = 4
?SetCursorPosition@CPythonIME@@QAEXH@Z PROC		; CPythonIME::SetCursorPosition, COMDAT
; _this$ = ecx

; 42   : {

  00000	55		 push	 ebp
  00001	8b ec		 mov	 ebp, esp
  00003	51		 push	 ecx
  00004	89 4d fc	 mov	 DWORD PTR _this$[ebp], ecx

; 43   : 	SetCurPos(iPosition);

  00007	ff 75 08	 push	 DWORD PTR _iPosition$[ebp]
  0000a	8b 4d fc	 mov	 ecx, DWORD PTR _this$[ebp]
  0000d	83 c1 04	 add	 ecx, 4
  00010	e8 00 00 00 00	 call	 ?SetCurPos@CIME@@IAEXH@Z ; CIME::SetCurPos

; 44   : }

  00015	c9		 leave
  00016	c2 04 00	 ret	 4
?SetCursorPosition@CPythonIME@@QAEXH@Z ENDP		; CPythonIME::SetCursorPosition
_TEXT	ENDS
; Function compile flags: /Odspy
; File D:\Metin2 Server Files\mainline\SRC_2014\Metin2Client\UserInterface\PythonIME.cpp
;	COMDAT ?MoveEnd@CPythonIME@@QAEXXZ
_TEXT	SEGMENT
_this$ = -4						; size = 4
?MoveEnd@CPythonIME@@QAEXXZ PROC			; CPythonIME::MoveEnd, COMDAT
; _this$ = ecx

; 37   : {

  00000	55		 push	 ebp
  00001	8b ec		 mov	 ebp, esp
  00003	51		 push	 ecx
  00004	89 4d fc	 mov	 DWORD PTR _this$[ebp], ecx

; 38   : 	ms_curpos = ms_lastpos;

  00007	a1 00 00 00 00	 mov	 eax, DWORD PTR ?ms_lastpos@CIME@@2HA ; CIME::ms_lastpos
  0000c	a3 00 00 00 00	 mov	 DWORD PTR ?ms_curpos@CIME@@2HA, eax ; CIME::ms_curpos

; 39   : }

  00011	c9		 leave
  00012	c3		 ret	 0
?MoveEnd@CPythonIME@@QAEXXZ ENDP			; CPythonIME::MoveEnd
_TEXT	ENDS
; Function compile flags: /Odspy
; File D:\Metin2 Server Files\mainline\SRC_2014\Metin2Client\UserInterface\PythonIME.cpp
;	COMDAT ?MoveHome@CPythonIME@@QAEXXZ
_TEXT	SEGMENT
_this$ = -4						; size = 4
?MoveHome@CPythonIME@@QAEXXZ PROC			; CPythonIME::MoveHome, COMDAT
; _this$ = ecx

; 32   : {

  00000	55		 push	 ebp
  00001	8b ec		 mov	 ebp, esp
  00003	51		 push	 ecx
  00004	89 4d fc	 mov	 DWORD PTR _this$[ebp], ecx

; 33   : 	ms_curpos = 0;

  00007	83 25 00 00 00
	00 00		 and	 DWORD PTR ?ms_curpos@CIME@@2HA, 0 ; CIME::ms_curpos

; 34   : }

  0000e	c9		 leave
  0000f	c3		 ret	 0
?MoveHome@CPythonIME@@QAEXXZ ENDP			; CPythonIME::MoveHome
_TEXT	ENDS
; Function compile flags: /Odspy
; File D:\Metin2 Server Files\mainline\SRC_2014\Metin2Client\UserInterface\PythonIME.cpp
;	COMDAT ?MoveRight@CPythonIME@@QAEXXZ
_TEXT	SEGMENT
_this$ = -4						; size = 4
?MoveRight@CPythonIME@@QAEXXZ PROC			; CPythonIME::MoveRight, COMDAT
; _this$ = ecx

; 27   : {

  00000	55		 push	 ebp
  00001	8b ec		 mov	 ebp, esp
  00003	51		 push	 ecx
  00004	89 4d fc	 mov	 DWORD PTR _this$[ebp], ecx

; 28   : 	IncCurPos();

  00007	8b 4d fc	 mov	 ecx, DWORD PTR _this$[ebp]
  0000a	83 c1 04	 add	 ecx, 4
  0000d	e8 00 00 00 00	 call	 ?IncCurPos@CIME@@IAEXXZ	; CIME::IncCurPos

; 29   : }

  00012	c9		 leave
  00013	c3		 ret	 0
?MoveRight@CPythonIME@@QAEXXZ ENDP			; CPythonIME::MoveRight
_TEXT	ENDS
; Function compile flags: /Odspy
; File D:\Metin2 Server Files\mainline\SRC_2014\Metin2Client\UserInterface\PythonIME.cpp
;	COMDAT ?MoveLeft@CPythonIME@@QAEXXZ
_TEXT	SEGMENT
_this$ = -4						; size = 4
?MoveLeft@CPythonIME@@QAEXXZ PROC			; CPythonIME::MoveLeft, COMDAT
; _this$ = ecx

; 22   : {

  00000	55		 push	 ebp
  00001	8b ec		 mov	 ebp, esp
  00003	51		 push	 ecx
  00004	89 4d fc	 mov	 DWORD PTR _this$[ebp], ecx

; 23   : 	DecCurPos();

  00007	8b 4d fc	 mov	 ecx, DWORD PTR _this$[ebp]
  0000a	83 c1 04	 add	 ecx, 4
  0000d	e8 00 00 00 00	 call	 ?DecCurPos@CIME@@IAEXXZ	; CIME::DecCurPos

; 24   : }

  00012	c9		 leave
  00013	c3		 ret	 0
?MoveLeft@CPythonIME@@QAEXXZ ENDP			; CPythonIME::MoveLeft
_TEXT	ENDS
; Function compile flags: /Odspy
; File D:\Metin2 Server Files\mainline\SRC_2014\Metin2Client\UserInterface\PythonIME.cpp
; File D:\Metin2 Server Files\mainline\SRC_2014\Metin2Client\eterBase\Singleton.h
; File D:\Metin2 Server Files\mainline\SRC_2014\Metin2Client\UserInterface\PythonIME.cpp
;	COMDAT ??1CPythonIME@@UAE@XZ
_TEXT	SEGMENT
_this$ = -16						; size = 4
__$EHRec$ = -12						; size = 12
??1CPythonIME@@UAE@XZ PROC				; CPythonIME::~CPythonIME, COMDAT
; _this$ = ecx

; 12   : {

  00000	55		 push	 ebp
  00001	8b ec		 mov	 ebp, esp
  00003	6a ff		 push	 -1
  00005	68 00 00 00 00	 push	 __ehhandler$??1CPythonIME@@UAE@XZ
  0000a	64 a1 00 00 00
	00		 mov	 eax, DWORD PTR fs:0
  00010	50		 push	 eax
  00011	51		 push	 ecx
  00012	a1 00 00 00 00	 mov	 eax, DWORD PTR ___security_cookie
  00017	33 c5		 xor	 eax, ebp
  00019	50		 push	 eax
  0001a	8d 45 f4	 lea	 eax, DWORD PTR __$EHRec$[ebp]
  0001d	64 a3 00 00 00
	00		 mov	 DWORD PTR fs:0, eax
  00023	89 4d f0	 mov	 DWORD PTR _this$[ebp], ecx
  00026	8b 45 f0	 mov	 eax, DWORD PTR _this$[ebp]
  00029	c7 00 00 00 00
	00		 mov	 DWORD PTR [eax], OFFSET ??_7CPythonIME@@6BIIMEEventSink@@@
  0002f	8b 45 f0	 mov	 eax, DWORD PTR _this$[ebp]
  00032	c7 40 04 00 00
	00 00		 mov	 DWORD PTR [eax+4], OFFSET ??_7CPythonIME@@6BCIME@@@
  00039	8b 45 f0	 mov	 eax, DWORD PTR _this$[ebp]
  0003c	c7 80 28 08 00
	00 00 00 00 00	 mov	 DWORD PTR [eax+2088], OFFSET ??_7CPythonIME@@6B?$CSingleton@VCPythonIME@@@@@

; 13   : 	Tracen("PythonIME Clear");

  00046	68 00 00 00 00	 push	 OFFSET ??_C@_0BA@DKDMKINE@PythonIME?5Clear@
  0004b	e8 00 00 00 00	 call	 ?Tracen@@YAXPBD@Z	; Tracen
  00050	59		 pop	 ecx
; File D:\Metin2 Server Files\mainline\SRC_2014\Metin2Client\eterBase\Singleton.h

; 19   : 	{ 

  00051	8b 45 f0	 mov	 eax, DWORD PTR _this$[ebp]
  00054	c7 80 28 08 00
	00 00 00 00 00	 mov	 DWORD PTR [eax+2088], OFFSET ??_7?$CSingleton@VCPythonIME@@@@6B@

; 20   : 		assert(ms_singleton);
; 21   : 		ms_singleton = 0; 

  0005e	83 25 00 00 00
	00 00		 and	 DWORD PTR ?ms_singleton@?$CSingleton@VCPythonIME@@@@0PAVCPythonIME@@A, 0 ; CSingleton<CPythonIME>::ms_singleton
; File D:\Metin2 Server Files\mainline\SRC_2014\Metin2Client\UserInterface\PythonIME.cpp

; 14   : }

  00065	8b 4d f0	 mov	 ecx, DWORD PTR _this$[ebp]
  00068	83 c1 04	 add	 ecx, 4
  0006b	e8 00 00 00 00	 call	 ??1CIME@@UAE@XZ		; CIME::~CIME
  00070	8b 4d f4	 mov	 ecx, DWORD PTR __$EHRec$[ebp]
  00073	64 89 0d 00 00
	00 00		 mov	 DWORD PTR fs:0, ecx
  0007a	59		 pop	 ecx
  0007b	c9		 leave
  0007c	c3		 ret	 0
  0007d	cc		 int	 3
  0007e	cc		 int	 3
  0007f	cc		 int	 3
  00080	cc		 int	 3
  00081	cc		 int	 3
_TEXT	ENDS
;	COMDAT text$x
text$x	SEGMENT
__ehhandler$??1CPythonIME@@UAE@XZ:
  00000	90		 npad	 1
  00001	90		 npad	 1
  00002	8b 54 24 08	 mov	 edx, DWORD PTR [esp+8]
  00006	8d 42 0c	 lea	 eax, DWORD PTR [edx+12]
  00009	8b 4a f8	 mov	 ecx, DWORD PTR [edx-8]
  0000c	33 c8		 xor	 ecx, eax
  0000e	e8 00 00 00 00	 call	 @__security_check_cookie@4
  00013	b8 00 00 00 00	 mov	 eax, OFFSET __ehfuncinfo$??1CPythonIME@@UAE@XZ
  00018	e9 00 00 00 00	 jmp	 ___CxxFrameHandler3
text$x	ENDS
??1CPythonIME@@UAE@XZ ENDP				; CPythonIME::~CPythonIME
; Function compile flags: /Odspy
; File D:\Metin2 Server Files\mainline\SRC_2014\Metin2Client\UserInterface\PythonIME.cpp
; File D:\Metin2 Server Files\mainline\SRC_2014\Metin2Client\eterBase\Singleton.h
; File D:\Metin2 Server Files\mainline\SRC_2014\Metin2Client\UserInterface\PythonIME.cpp
;	COMDAT ??0CPythonIME@@QAE@XZ
_TEXT	SEGMENT
_offset$1 = -16						; size = 4
_this$ = -12						; size = 4
tv151 = -8						; size = 4
_this$ = -4						; size = 4
??0CPythonIME@@QAE@XZ PROC				; CPythonIME::CPythonIME, COMDAT
; _this$ = ecx

; 7    : {

  00000	55		 push	 ebp
  00001	8b ec		 mov	 ebp, esp
  00003	83 ec 10	 sub	 esp, 16			; 00000010H
  00006	89 4d fc	 mov	 DWORD PTR _this$[ebp], ecx
  00009	8b 45 fc	 mov	 eax, DWORD PTR _this$[ebp]
  0000c	c7 00 00 00 00
	00		 mov	 DWORD PTR [eax], OFFSET ??_7IIMEEventSink@@6B@

; 6    : : CIME()

  00012	8b 4d fc	 mov	 ecx, DWORD PTR _this$[ebp]
  00015	83 c1 04	 add	 ecx, 4
  00018	e8 00 00 00 00	 call	 ??0CIME@@QAE@XZ		; CIME::CIME

; 7    : {

  0001d	8b 45 fc	 mov	 eax, DWORD PTR _this$[ebp]
  00020	05 28 08 00 00	 add	 eax, 2088		; 00000828H
  00025	89 45 f4	 mov	 DWORD PTR _this$[ebp], eax
; File D:\Metin2 Server Files\mainline\SRC_2014\Metin2Client\eterBase\Singleton.h

; 12   : 	{ 

  00028	8b 45 f4	 mov	 eax, DWORD PTR _this$[ebp]
  0002b	c7 00 00 00 00
	00		 mov	 DWORD PTR [eax], OFFSET ??_7?$CSingleton@VCPythonIME@@@@6B@

; 13   : 		assert(!ms_singleton);
; 14   : 		int offset = (int) (T*) 1 - (int) (CSingleton <T>*) (T*) 1; 

  00031	33 c0		 xor	 eax, eax
  00033	40		 inc	 eax
  00034	74 0c		 je	 SHORT $LN10@CPythonIME
  00036	33 c0		 xor	 eax, eax
  00038	05 29 08 00 00	 add	 eax, 2089		; 00000829H
  0003d	89 45 f8	 mov	 DWORD PTR tv151[ebp], eax
  00040	eb 04		 jmp	 SHORT $LN11@CPythonIME
$LN10@CPythonIME:
  00042	83 65 f8 00	 and	 DWORD PTR tv151[ebp], 0
$LN11@CPythonIME:
  00046	33 c0		 xor	 eax, eax
  00048	40		 inc	 eax
  00049	2b 45 f8	 sub	 eax, DWORD PTR tv151[ebp]
  0004c	89 45 f0	 mov	 DWORD PTR _offset$1[ebp], eax

; 15   : 		ms_singleton = (T*) ((int) this + offset);

  0004f	8b 45 f4	 mov	 eax, DWORD PTR _this$[ebp]
  00052	03 45 f0	 add	 eax, DWORD PTR _offset$1[ebp]
  00055	a3 00 00 00 00	 mov	 DWORD PTR ?ms_singleton@?$CSingleton@VCPythonIME@@@@0PAVCPythonIME@@A, eax ; CSingleton<CPythonIME>::ms_singleton
; File D:\Metin2 Server Files\mainline\SRC_2014\Metin2Client\UserInterface\PythonIME.cpp

; 7    : {

  0005a	8b 45 fc	 mov	 eax, DWORD PTR _this$[ebp]
  0005d	c7 00 00 00 00
	00		 mov	 DWORD PTR [eax], OFFSET ??_7CPythonIME@@6BIIMEEventSink@@@
  00063	8b 45 fc	 mov	 eax, DWORD PTR _this$[ebp]
  00066	c7 40 04 00 00
	00 00		 mov	 DWORD PTR [eax+4], OFFSET ??_7CPythonIME@@6BCIME@@@
  0006d	8b 45 fc	 mov	 eax, DWORD PTR _this$[ebp]
  00070	c7 80 28 08 00
	00 00 00 00 00	 mov	 DWORD PTR [eax+2088], OFFSET ??_7CPythonIME@@6B?$CSingleton@VCPythonIME@@@@@

; 8    : 	ms_pEvent = this;

  0007a	8b 45 fc	 mov	 eax, DWORD PTR _this$[ebp]
  0007d	a3 00 00 00 00	 mov	 DWORD PTR ?ms_pEvent@CIME@@2PAVIIMEEventSink@@A, eax ; CIME::ms_pEvent

; 9    : }

  00082	8b 45 fc	 mov	 eax, DWORD PTR _this$[ebp]
  00085	c9		 leave
  00086	c3		 ret	 0
??0CPythonIME@@QAE@XZ ENDP				; CPythonIME::CPythonIME
_TEXT	ENDS
; Function compile flags: /Odspy
; File D:\Metin2 Server Files\mainline\SRC_2014\Metin2Client\eterBase\Singleton.h
;	COMDAT ??_G?$CSingleton@VCPythonIME@@@@UAEPAXI@Z
_TEXT	SEGMENT
_this$ = -4						; size = 4
___flags$ = 8						; size = 4
??_G?$CSingleton@VCPythonIME@@@@UAEPAXI@Z PROC		; CSingleton<CPythonIME>::`scalar deleting destructor', COMDAT
; _this$ = ecx
  00000	55		 push	 ebp
  00001	8b ec		 mov	 ebp, esp
  00003	51		 push	 ecx
  00004	89 4d fc	 mov	 DWORD PTR _this$[ebp], ecx

; 19   : 	{ 

  00007	8b 45 fc	 mov	 eax, DWORD PTR _this$[ebp]
  0000a	c7 00 00 00 00
	00		 mov	 DWORD PTR [eax], OFFSET ??_7?$CSingleton@VCPythonIME@@@@6B@

; 20   : 		assert(ms_singleton);
; 21   : 		ms_singleton = 0; 

  00010	83 25 00 00 00
	00 00		 and	 DWORD PTR ?ms_singleton@?$CSingleton@VCPythonIME@@@@0PAVCPythonIME@@A, 0 ; CSingleton<CPythonIME>::ms_singleton
  00017	8b 45 08	 mov	 eax, DWORD PTR ___flags$[ebp]
  0001a	83 e0 01	 and	 eax, 1
  0001d	74 0c		 je	 SHORT $LN2@scalar
  0001f	6a 04		 push	 4
  00021	ff 75 fc	 push	 DWORD PTR _this$[ebp]
  00024	e8 00 00 00 00	 call	 ??3@YAXPAXI@Z		; operator delete
  00029	59		 pop	 ecx
  0002a	59		 pop	 ecx
$LN2@scalar:
  0002b	8b 45 fc	 mov	 eax, DWORD PTR _this$[ebp]
  0002e	c9		 leave
  0002f	c2 04 00	 ret	 4
??_G?$CSingleton@VCPythonIME@@@@UAEPAXI@Z ENDP		; CSingleton<CPythonIME>::`scalar deleting destructor'
_TEXT	ENDS
END
