; Listing generated by Microsoft (R) Optimizing Compiler Version 19.28.29335.0 

	TITLE	D:\Metin2 Server Files\mainline\SRC_2014\Metin2Client\UserInterface\PythonNetworkStreamPhaseGame.cpp
	.686P
	.XMM
	include listing.inc
	.model	flat

INCLUDELIB LIBCMT
INCLUDELIB OLDNAMES

PUBLIC	?gs_bEmpireLanuageEnable@@3HA			; gs_bEmpireLanuageEnable
_DATA	SEGMENT
?gs_bEmpireLanuageEnable@@3HA DD 01H			; gs_bEmpireLanuageEnable
_DATA	ENDS
PUBLIC	??_H@YGXPAXIIP6EPAX0@Z@Z			; `vector constructor iterator'
PUBLIC	?__empty_global_delete@@YAXPAX@Z		; __empty_global_delete
PUBLIC	?__empty_global_delete@@YAXPAXI@Z		; __empty_global_delete
PUBLIC	___local_stdio_printf_options
PUBLIC	__snprintf
PUBLIC	??0exception@std@@QAE@ABV01@@Z			; std::exception::exception
PUBLIC	?what@exception@std@@UBEPBDXZ			; std::exception::what
PUBLIC	??_Gexception@std@@UAEPAXI@Z			; std::exception::`scalar deleting destructor'
PUBLIC	??0bad_alloc@std@@QAE@ABV01@@Z			; std::bad_alloc::bad_alloc
PUBLIC	??_Gbad_alloc@std@@UAEPAXI@Z			; std::bad_alloc::`scalar deleting destructor'
PUBLIC	??0bad_array_new_length@std@@QAE@XZ		; std::bad_array_new_length::bad_array_new_length
PUBLIC	??1bad_array_new_length@std@@UAE@XZ		; std::bad_array_new_length::~bad_array_new_length
PUBLIC	??0bad_array_new_length@std@@QAE@ABV01@@Z	; std::bad_array_new_length::bad_array_new_length
PUBLIC	??_Gbad_array_new_length@std@@UAEPAXI@Z		; std::bad_array_new_length::`scalar deleting destructor'
PUBLIC	?_Throw_bad_array_new_length@std@@YAXXZ		; std::_Throw_bad_array_new_length
PUBLIC	?_Adjust_manually_vector_aligned@std@@YAXAAPAXAAI@Z ; std::_Adjust_manually_vector_aligned
PUBLIC	?_Xlen_string@std@@YAXXZ			; std::_Xlen_string
PUBLIC	?deallocate@?$allocator@D@std@@QAEXQADI@Z	; std::allocator<char>::deallocate
PUBLIC	??0?$_String_val@U?$_Simple_types@D@std@@@std@@QAE@XZ ; std::_String_val<std::_Simple_types<char> >::_String_val<std::_Simple_types<char> >
PUBLIC	?_Myptr@?$_String_val@U?$_Simple_types@D@std@@@std@@QAEPADXZ ; std::_String_val<std::_Simple_types<char> >::_Myptr
PUBLIC	?_Xran@?$_String_val@U?$_Simple_types@D@std@@@std@@SAXXZ ; std::_String_val<std::_Simple_types<char> >::_Xran
PUBLIC	??0?$basic_string@DU?$char_traits@D@std@@V?$allocator@D@2@@std@@QAE@XZ ; std::basic_string<char,std::char_traits<char>,std::allocator<char> >::basic_string<char,std::char_traits<char>,std::allocator<char> >
PUBLIC	??0?$basic_string@DU?$char_traits@D@std@@V?$allocator@D@2@@std@@QAE@QBD@Z ; std::basic_string<char,std::char_traits<char>,std::allocator<char> >::basic_string<char,std::char_traits<char>,std::allocator<char> >
PUBLIC	??0?$basic_string@DU?$char_traits@D@std@@V?$allocator@D@2@@std@@QAE@$$QAV01@@Z ; std::basic_string<char,std::char_traits<char>,std::allocator<char> >::basic_string<char,std::char_traits<char>,std::allocator<char> >
PUBLIC	?_Move_assign@?$basic_string@DU?$char_traits@D@std@@V?$allocator@D@2@@std@@AAEXAAV12@U_Equal_allocators@2@@Z ; std::basic_string<char,std::char_traits<char>,std::allocator<char> >::_Move_assign
PUBLIC	??1?$basic_string@DU?$char_traits@D@std@@V?$allocator@D@2@@std@@QAE@XZ ; std::basic_string<char,std::char_traits<char>,std::allocator<char> >::~basic_string<char,std::char_traits<char>,std::allocator<char> >
PUBLIC	?_Copy_assign@?$basic_string@DU?$char_traits@D@std@@V?$allocator@D@2@@std@@AAEXABV12@U?$integral_constant@_N$0A@@2@@Z ; std::basic_string<char,std::char_traits<char>,std::allocator<char> >::_Copy_assign
PUBLIC	?append@?$basic_string@DU?$char_traits@D@std@@V?$allocator@D@2@@std@@QAEAAV12@ID@Z ; std::basic_string<char,std::char_traits<char>,std::allocator<char> >::append
PUBLIC	?assign@?$basic_string@DU?$char_traits@D@std@@V?$allocator@D@2@@std@@QAEAAV12@QBDI@Z ; std::basic_string<char,std::char_traits<char>,std::allocator<char> >::assign
PUBLIC	?at@?$basic_string@DU?$char_traits@D@std@@V?$allocator@D@2@@std@@QAEAADI@Z ; std::basic_string<char,std::char_traits<char>,std::allocator<char> >::at
PUBLIC	??A?$basic_string@DU?$char_traits@D@std@@V?$allocator@D@2@@std@@QAEAADI@Z ; std::basic_string<char,std::char_traits<char>,std::allocator<char> >::operator[]
PUBLIC	?c_str@?$basic_string@DU?$char_traits@D@std@@V?$allocator@D@2@@std@@QBEPBDXZ ; std::basic_string<char,std::char_traits<char>,std::allocator<char> >::c_str
PUBLIC	?max_size@?$basic_string@DU?$char_traits@D@std@@V?$allocator@D@2@@std@@QBEIXZ ; std::basic_string<char,std::char_traits<char>,std::allocator<char> >::max_size
PUBLIC	?_Equal@?$basic_string@DU?$char_traits@D@std@@V?$allocator@D@2@@std@@QBE_NQBD@Z ; std::basic_string<char,std::char_traits<char>,std::allocator<char> >::_Equal
PUBLIC	?compare@?$basic_string@DU?$char_traits@D@std@@V?$allocator@D@2@@std@@QBEHQBD@Z ; std::basic_string<char,std::char_traits<char>,std::allocator<char> >::compare
PUBLIC	?_Calculate_growth@?$basic_string@DU?$char_traits@D@std@@V?$allocator@D@2@@std@@CAIIII@Z ; std::basic_string<char,std::char_traits<char>,std::allocator<char> >::_Calculate_growth
PUBLIC	?_Calculate_growth@?$basic_string@DU?$char_traits@D@std@@V?$allocator@D@2@@std@@ABEII@Z ; std::basic_string<char,std::char_traits<char>,std::allocator<char> >::_Calculate_growth
PUBLIC	?_Eos@?$basic_string@DU?$char_traits@D@std@@V?$allocator@D@2@@std@@AAEXI@Z ; std::basic_string<char,std::char_traits<char>,std::allocator<char> >::_Eos
PUBLIC	?_Tidy_init@?$basic_string@DU?$char_traits@D@std@@V?$allocator@D@2@@std@@AAEXXZ ; std::basic_string<char,std::char_traits<char>,std::allocator<char> >::_Tidy_init
PUBLIC	?_Tidy_deallocate@?$basic_string@DU?$char_traits@D@std@@V?$allocator@D@2@@std@@AAEXXZ ; std::basic_string<char,std::char_traits<char>,std::allocator<char> >::_Tidy_deallocate
PUBLIC	??1?$_Compressed_pair@V?$allocator@D@std@@V?$_String_val@U?$_Simple_types@D@std@@@2@$00@std@@QAE@XZ ; std::_Compressed_pair<std::allocator<char>,std::_String_val<std::_Simple_types<char> >,1>::~_Compressed_pair<std::allocator<char>,std::_String_val<std::_Simple_types<char> >,1>
PUBLIC	?ChangeDosPath@CFileNameHelper@@SAXAAV?$basic_string@DU?$char_traits@D@std@@V?$allocator@D@2@@std@@@Z ; CFileNameHelper::ChangeDosPath
PUBLIC	?NoPath@CFileNameHelper@@SA?AV?$basic_string@DU?$char_traits@D@std@@V?$allocator@D@2@@std@@AAV23@@Z ; CFileNameHelper::NoPath
PUBLIC	?deallocate@?$allocator@V?$basic_string@DU?$char_traits@D@std@@V?$allocator@D@2@@std@@@std@@QAEXQAV?$basic_string@DU?$char_traits@D@std@@V?$allocator@D@2@@2@I@Z ; std::allocator<std::basic_string<char,std::char_traits<char>,std::allocator<char> > >::deallocate
PUBLIC	?clear@?$vector@V?$basic_string@DU?$char_traits@D@std@@V?$allocator@D@2@@std@@V?$allocator@V?$basic_string@DU?$char_traits@D@std@@V?$allocator@D@2@@std@@@2@@std@@QAEXXZ ; std::vector<std::basic_string<char,std::char_traits<char>,std::allocator<char> >,std::allocator<std::basic_string<char,std::char_traits<char>,std::allocator<char> > > >::clear
PUBLIC	?_Destroy@?$vector@V?$basic_string@DU?$char_traits@D@std@@V?$allocator@D@2@@std@@V?$allocator@V?$basic_string@DU?$char_traits@D@std@@V?$allocator@D@2@@std@@@2@@std@@AAEXPAV?$basic_string@DU?$char_traits@D@std@@V?$allocator@D@2@@2@0@Z ; std::vector<std::basic_string<char,std::char_traits<char>,std::allocator<char> >,std::allocator<std::basic_string<char,std::char_traits<char>,std::allocator<char> > > >::_Destroy
PUBLIC	?_Calculate_growth@?$vector@V?$basic_string@DU?$char_traits@D@std@@V?$allocator@D@2@@std@@V?$allocator@V?$basic_string@DU?$char_traits@D@std@@V?$allocator@D@2@@std@@@2@@std@@ABEII@Z ; std::vector<std::basic_string<char,std::char_traits<char>,std::allocator<char> >,std::allocator<std::basic_string<char,std::char_traits<char>,std::allocator<char> > > >::_Calculate_growth
PUBLIC	?_Change_array@?$vector@V?$basic_string@DU?$char_traits@D@std@@V?$allocator@D@2@@std@@V?$allocator@V?$basic_string@DU?$char_traits@D@std@@V?$allocator@D@2@@std@@@2@@std@@AAEXQAV?$basic_string@DU?$char_traits@D@std@@V?$allocator@D@2@@2@II@Z ; std::vector<std::basic_string<char,std::char_traits<char>,std::allocator<char> >,std::allocator<std::basic_string<char,std::char_traits<char>,std::allocator<char> > > >::_Change_array
PUBLIC	?_Xlength@?$vector@V?$basic_string@DU?$char_traits@D@std@@V?$allocator@D@2@@std@@V?$allocator@V?$basic_string@DU?$char_traits@D@std@@V?$allocator@D@2@@std@@@2@@std@@CAXXZ ; std::vector<std::basic_string<char,std::char_traits<char>,std::allocator<char> >,std::allocator<std::basic_string<char,std::char_traits<char>,std::allocator<char> > > >::_Xlength
PUBLIC	?deallocate@?$allocator@K@std@@QAEXQAKI@Z	; std::allocator<unsigned long>::deallocate
PUBLIC	??1?$vector@KV?$allocator@K@std@@@std@@QAE@XZ	; std::vector<unsigned long,std::allocator<unsigned long> >::~vector<unsigned long,std::allocator<unsigned long> >
PUBLIC	?_Destroy@?$vector@KV?$allocator@K@std@@@std@@AAEXPAK0@Z ; std::vector<unsigned long,std::allocator<unsigned long> >::_Destroy
PUBLIC	?_Calculate_growth@?$vector@KV?$allocator@K@std@@@std@@ABEII@Z ; std::vector<unsigned long,std::allocator<unsigned long> >::_Calculate_growth
PUBLIC	?_Change_array@?$vector@KV?$allocator@K@std@@@std@@AAEXQAKII@Z ; std::vector<unsigned long,std::allocator<unsigned long> >::_Change_array
PUBLIC	?_Tidy@?$vector@KV?$allocator@K@std@@@std@@AAEXXZ ; std::vector<unsigned long,std::allocator<unsigned long> >::_Tidy
PUBLIC	?_Xlength@?$vector@KV?$allocator@K@std@@@std@@CAXXZ ; std::vector<unsigned long,std::allocator<unsigned long> >::_Xlength
PUBLIC	??$_Destroy_in_place@PAD@std@@YAXAAPAD@Z	; std::_Destroy_in_place<char *>
PUBLIC	??$_Reallocate_for@V<lambda_9366063389c5f42a00a5088cf24e69de>@@PBD@?$basic_string@DU?$char_traits@D@std@@V?$allocator@D@2@@std@@AAEAAV01@IV<lambda_9366063389c5f42a00a5088cf24e69de>@@PBD@Z ; std::basic_string<char,std::char_traits<char>,std::allocator<char> >::_Reallocate_for<<lambda_9366063389c5f42a00a5088cf24e69de>,char const *>
PUBLIC	??$_Reallocate_grow_by@V<lambda_c1b8c41cb4019640539cfd828748c4d4>@@ID@?$basic_string@DU?$char_traits@D@std@@V?$allocator@D@2@@std@@AAEAAV01@IV<lambda_c1b8c41cb4019640539cfd828748c4d4>@@ID@Z ; std::basic_string<char,std::char_traits<char>,std::allocator<char> >::_Reallocate_grow_by<<lambda_c1b8c41cb4019640539cfd828748c4d4>,unsigned int,char>
PUBLIC	??$_Construct_in_place@PADABQAD@std@@YAXAAPADABQAD@Z ; std::_Construct_in_place<char *,char * const &>
PUBLIC	??$_Pocma@V?$allocator@D@std@@@std@@YAXAAV?$allocator@D@0@0@Z ; std::_Pocma<std::allocator<char> >
PUBLIC	??$_Deallocate@$07$0A@@std@@YAXPAXI@Z		; std::_Deallocate<8,0>
PUBLIC	??$_Allocate@$07U_Default_allocate_traits@std@@$0A@@std@@YAPAXI@Z ; std::_Allocate<8,std::_Default_allocate_traits,0>
PUBLIC	??$_Allocate_manually_vector_aligned@U_Default_allocate_traits@std@@@std@@YAPAXI@Z ; std::_Allocate_manually_vector_aligned<std::_Default_allocate_traits>
PUBLIC	??0SPacketCGDragonSoulRefine@@QAE@XZ		; SPacketCGDragonSoulRefine::SPacketCGDragonSoulRefine
PUBLIC	?SendSpecial@CPythonNetworkStream@@QAE_NHPAX@Z	; CPythonNetworkStream::SendSpecial
PUBLIC	?Warp@CPythonNetworkStream@@QAEXJJ@Z		; CPythonNetworkStream::Warp
PUBLIC	?NotifyHack@CPythonNetworkStream@@QAEXPBD@Z	; CPythonNetworkStream::NotifyHack
PUBLIC	?ToggleGameDebugInfo@CPythonNetworkStream@@QAEXXZ ; CPythonNetworkStream::ToggleGameDebugInfo
PUBLIC	?SendSyncPositionElementPacket@CPythonNetworkStream@@QAE_NKKK@Z ; CPythonNetworkStream::SendSyncPositionElementPacket
PUBLIC	?SendAttackPacket@CPythonNetworkStream@@QAE_NIK@Z ; CPythonNetworkStream::SendAttackPacket
PUBLIC	?SendCharacterStatePacket@CPythonNetworkStream@@QAE_NABUD3DXVECTOR3@@MII@Z ; CPythonNetworkStream::SendCharacterStatePacket
PUBLIC	?SendUseSkillPacket@CPythonNetworkStream@@QAE_NKK@Z ; CPythonNetworkStream::SendUseSkillPacket
PUBLIC	?SendTargetPacket@CPythonNetworkStream@@QAE_NK@Z ; CPythonNetworkStream::SendTargetPacket
PUBLIC	?SendCharacterPositionPacket@CPythonNetworkStream@@QAE_NE@Z ; CPythonNetworkStream::SendCharacterPositionPacket
PUBLIC	?SendPointResetPacket@CPythonNetworkStream@@QAE_NXZ ; CPythonNetworkStream::SendPointResetPacket
PUBLIC	?SendExchangeStartPacket@CPythonNetworkStream@@QAE_NK@Z ; CPythonNetworkStream::SendExchangeStartPacket
PUBLIC	?SendExchangeItemAddPacket@CPythonNetworkStream@@QAE_NUSItemPos@@E@Z ; CPythonNetworkStream::SendExchangeItemAddPacket
PUBLIC	?SendExchangeElkAddPacket@CPythonNetworkStream@@QAE_NK@Z ; CPythonNetworkStream::SendExchangeElkAddPacket
PUBLIC	?SendExchangeItemDelPacket@CPythonNetworkStream@@QAE_NE@Z ; CPythonNetworkStream::SendExchangeItemDelPacket
PUBLIC	?SendExchangeAcceptPacket@CPythonNetworkStream@@QAE_NXZ ; CPythonNetworkStream::SendExchangeAcceptPacket
PUBLIC	?SendExchangeExitPacket@CPythonNetworkStream@@QAE_NXZ ; CPythonNetworkStream::SendExchangeExitPacket
PUBLIC	?SendScriptAnswerPacket@CPythonNetworkStream@@QAE_NH@Z ; CPythonNetworkStream::SendScriptAnswerPacket
PUBLIC	?SendScriptButtonPacket@CPythonNetworkStream@@QAE_NI@Z ; CPythonNetworkStream::SendScriptButtonPacket
PUBLIC	?SendAnswerMakeGuildPacket@CPythonNetworkStream@@QAE_NPBD@Z ; CPythonNetworkStream::SendAnswerMakeGuildPacket
PUBLIC	?SendQuestInputStringPacket@CPythonNetworkStream@@QAE_NPBD@Z ; CPythonNetworkStream::SendQuestInputStringPacket
PUBLIC	?SendQuestConfirmPacket@CPythonNetworkStream@@QAE_NEK@Z ; CPythonNetworkStream::SendQuestConfirmPacket
PUBLIC	?SendOnClickPacket@CPythonNetworkStream@@QAE_NK@Z ; CPythonNetworkStream::SendOnClickPacket
PUBLIC	?SendFlyTargetingPacket@CPythonNetworkStream@@QAE_NKABUD3DXVECTOR3@@@Z ; CPythonNetworkStream::SendFlyTargetingPacket
PUBLIC	?SendAddFlyTargetingPacket@CPythonNetworkStream@@QAE_NKABUD3DXVECTOR3@@@Z ; CPythonNetworkStream::SendAddFlyTargetingPacket
PUBLIC	?SendShootPacket@CPythonNetworkStream@@QAE_NI@Z	; CPythonNetworkStream::SendShootPacket
PUBLIC	?RegisterEmoticonString@CPythonNetworkStream@@QAEXPBD@Z ; CPythonNetworkStream::RegisterEmoticonString
PUBLIC	?SendPartyInvitePacket@CPythonNetworkStream@@QAE_NK@Z ; CPythonNetworkStream::SendPartyInvitePacket
PUBLIC	?SendPartyInviteAnswerPacket@CPythonNetworkStream@@QAE_NKE@Z ; CPythonNetworkStream::SendPartyInviteAnswerPacket
PUBLIC	?SendPartyRemovePacket@CPythonNetworkStream@@QAE_NK@Z ; CPythonNetworkStream::SendPartyRemovePacket
PUBLIC	?SendPartySetStatePacket@CPythonNetworkStream@@QAE_NKEE@Z ; CPythonNetworkStream::SendPartySetStatePacket
PUBLIC	?SendPartyUseSkillPacket@CPythonNetworkStream@@QAE_NEK@Z ; CPythonNetworkStream::SendPartyUseSkillPacket
PUBLIC	?SendPartyParameterPacket@CPythonNetworkStream@@QAE_NE@Z ; CPythonNetworkStream::SendPartyParameterPacket
PUBLIC	?SendGuildAddMemberPacket@CPythonNetworkStream@@QAE_NK@Z ; CPythonNetworkStream::SendGuildAddMemberPacket
PUBLIC	?SendGuildRemoveMemberPacket@CPythonNetworkStream@@QAE_NK@Z ; CPythonNetworkStream::SendGuildRemoveMemberPacket
PUBLIC	?SendGuildChangeGradeNamePacket@CPythonNetworkStream@@QAE_NEPBD@Z ; CPythonNetworkStream::SendGuildChangeGradeNamePacket
PUBLIC	?SendGuildChangeGradeAuthorityPacket@CPythonNetworkStream@@QAE_NEE@Z ; CPythonNetworkStream::SendGuildChangeGradeAuthorityPacket
PUBLIC	?SendGuildOfferPacket@CPythonNetworkStream@@QAE_NK@Z ; CPythonNetworkStream::SendGuildOfferPacket
PUBLIC	?SendGuildPostCommentPacket@CPythonNetworkStream@@QAE_NPBD@Z ; CPythonNetworkStream::SendGuildPostCommentPacket
PUBLIC	?SendGuildDeleteCommentPacket@CPythonNetworkStream@@QAE_NK@Z ; CPythonNetworkStream::SendGuildDeleteCommentPacket
PUBLIC	?SendGuildRefreshCommentsPacket@CPythonNetworkStream@@QAE_NK@Z ; CPythonNetworkStream::SendGuildRefreshCommentsPacket
PUBLIC	?SendGuildChangeMemberGradePacket@CPythonNetworkStream@@QAE_NKE@Z ; CPythonNetworkStream::SendGuildChangeMemberGradePacket
PUBLIC	?SendGuildUseSkillPacket@CPythonNetworkStream@@QAE_NKK@Z ; CPythonNetworkStream::SendGuildUseSkillPacket
PUBLIC	?SendGuildChangeMemberGeneralPacket@CPythonNetworkStream@@QAE_NKE@Z ; CPythonNetworkStream::SendGuildChangeMemberGeneralPacket
PUBLIC	?SendGuildInviteAnswerPacket@CPythonNetworkStream@@QAE_NKE@Z ; CPythonNetworkStream::SendGuildInviteAnswerPacket
PUBLIC	?SendGuildChargeGSPPacket@CPythonNetworkStream@@QAE_NK@Z ; CPythonNetworkStream::SendGuildChargeGSPPacket
PUBLIC	?SendGuildDepositMoneyPacket@CPythonNetworkStream@@QAE_NK@Z ; CPythonNetworkStream::SendGuildDepositMoneyPacket
PUBLIC	?SendGuildWithdrawMoneyPacket@CPythonNetworkStream@@QAE_NK@Z ; CPythonNetworkStream::SendGuildWithdrawMoneyPacket
PUBLIC	?RecvLoverInfoPacket@CPythonNetworkStream@@QAE_NXZ ; CPythonNetworkStream::RecvLoverInfoPacket
PUBLIC	?RecvLovePointUpdatePacket@CPythonNetworkStream@@QAE_NXZ ; CPythonNetworkStream::RecvLovePointUpdatePacket
PUBLIC	?RecvDigMotionPacket@CPythonNetworkStream@@QAE_NXZ ; CPythonNetworkStream::RecvDigMotionPacket
PUBLIC	?SendFishingPacket@CPythonNetworkStream@@QAE_NH@Z ; CPythonNetworkStream::SendFishingPacket
PUBLIC	?SendGiveItemPacket@CPythonNetworkStream@@QAE_NKUSItemPos@@H@Z ; CPythonNetworkStream::SendGiveItemPacket
PUBLIC	?SendBuildPrivateShopPacket@CPythonNetworkStream@@QAE_NPBDABV?$vector@USShopItemTable@@V?$allocator@USShopItemTable@@@std@@@std@@@Z ; CPythonNetworkStream::SendBuildPrivateShopPacket
PUBLIC	?SendRefinePacket@CPythonNetworkStream@@QAE_NEE@Z ; CPythonNetworkStream::SendRefinePacket
PUBLIC	?SendSelectItemPacket@CPythonNetworkStream@@QAE_NK@Z ; CPythonNetworkStream::SendSelectItemPacket
PUBLIC	?SendClientVersionPacket@CPythonNetworkStream@@QAE_NXZ ; CPythonNetworkStream::SendClientVersionPacket
PUBLIC	?__SendCRCReportPacket@CPythonNetworkStream@@QAE_NXZ ; CPythonNetworkStream::__SendCRCReportPacket
PUBLIC	?SendDragonSoulRefinePacket@CPythonNetworkStream@@QAE_NEPAUSItemPos@@@Z ; CPythonNetworkStream::SendDragonSoulRefinePacket
PUBLIC	?__TEST_SetSkillGroupFake@CPythonNetworkStream@@QAEXH@Z ; CPythonNetworkStream::__TEST_SetSkillGroupFake
PUBLIC	?SetGamePhase@CPythonNetworkStream@@QAEXXZ	; CPythonNetworkStream::SetGamePhase
PUBLIC	?SendChatPacket@CPythonNetworkStream@@QAE_NPBDE@Z ; CPythonNetworkStream::SendChatPacket
PUBLIC	?SendWhisperPacket@CPythonNetworkStream@@QAE_NPBD0@Z ; CPythonNetworkStream::SendWhisperPacket
PUBLIC	?SendMobileMessagePacket@CPythonNetworkStream@@QAE_NPBD0@Z ; CPythonNetworkStream::SendMobileMessagePacket
PUBLIC	?SendMessengerAddByVIDPacket@CPythonNetworkStream@@QAE_NK@Z ; CPythonNetworkStream::SendMessengerAddByVIDPacket
PUBLIC	?SendMessengerAddByNamePacket@CPythonNetworkStream@@QAE_NPBD@Z ; CPythonNetworkStream::SendMessengerAddByNamePacket
PUBLIC	?SendMessengerRemovePacket@CPythonNetworkStream@@QAE_NPBD0@Z ; CPythonNetworkStream::SendMessengerRemovePacket
PUBLIC	?GamePhase@CPythonNetworkStream@@IAEXXZ		; CPythonNetworkStream::GamePhase
PUBLIC	?__RefreshStatus@CPythonNetworkStream@@IAEXXZ	; CPythonNetworkStream::__RefreshStatus
PUBLIC	?__RefreshAlignmentWindow@CPythonNetworkStream@@IAEXXZ ; CPythonNetworkStream::__RefreshAlignmentWindow
PUBLIC	?__RefreshCharacterWindow@CPythonNetworkStream@@IAEXXZ ; CPythonNetworkStream::__RefreshCharacterWindow
PUBLIC	?__RefreshEquipmentWindow@CPythonNetworkStream@@IAEXXZ ; CPythonNetworkStream::__RefreshEquipmentWindow
PUBLIC	?__RefreshInventoryWindow@CPythonNetworkStream@@IAEXXZ ; CPythonNetworkStream::__RefreshInventoryWindow
PUBLIC	?__RefreshExchangeWindow@CPythonNetworkStream@@IAEXXZ ; CPythonNetworkStream::__RefreshExchangeWindow
PUBLIC	?__RefreshSkillWindow@CPythonNetworkStream@@IAEXXZ ; CPythonNetworkStream::__RefreshSkillWindow
PUBLIC	?__RefreshSafeboxWindow@CPythonNetworkStream@@IAEXXZ ; CPythonNetworkStream::__RefreshSafeboxWindow
PUBLIC	?__RefreshMessengerWindow@CPythonNetworkStream@@IAEXXZ ; CPythonNetworkStream::__RefreshMessengerWindow
PUBLIC	?__RefreshGuildWindowInfoPage@CPythonNetworkStream@@IAEXXZ ; CPythonNetworkStream::__RefreshGuildWindowInfoPage
PUBLIC	?__RefreshGuildWindowBoardPage@CPythonNetworkStream@@IAEXXZ ; CPythonNetworkStream::__RefreshGuildWindowBoardPage
PUBLIC	?__RefreshGuildWindowMemberPage@CPythonNetworkStream@@IAEXXZ ; CPythonNetworkStream::__RefreshGuildWindowMemberPage
PUBLIC	?__RefreshGuildWindowMemberPageGradeComboBox@CPythonNetworkStream@@IAEXXZ ; CPythonNetworkStream::__RefreshGuildWindowMemberPageGradeComboBox
PUBLIC	?__RefreshGuildWindowSkillPage@CPythonNetworkStream@@IAEXXZ ; CPythonNetworkStream::__RefreshGuildWindowSkillPage
PUBLIC	?__RefreshGuildWindowGradePage@CPythonNetworkStream@@IAEXXZ ; CPythonNetworkStream::__RefreshGuildWindowGradePage
PUBLIC	?__RefreshTargetBoardByVID@CPythonNetworkStream@@IAEXK@Z ; CPythonNetworkStream::__RefreshTargetBoardByVID
PUBLIC	?__RefreshTargetBoardByName@CPythonNetworkStream@@IAEXPBD@Z ; CPythonNetworkStream::__RefreshTargetBoardByName
PUBLIC	?__RefreshTargetBoard@CPythonNetworkStream@@IAEXXZ ; CPythonNetworkStream::__RefreshTargetBoard
PUBLIC	?__RefreshMallWindow@CPythonNetworkStream@@IAEXXZ ; CPythonNetworkStream::__RefreshMallWindow
PUBLIC	?__SendHack@CPythonNetworkStream@@IAE_NPBD@Z	; CPythonNetworkStream::__SendHack
PUBLIC	?RecvObserverAddPacket@CPythonNetworkStream@@IAE_NXZ ; CPythonNetworkStream::RecvObserverAddPacket
PUBLIC	?RecvObserverRemovePacket@CPythonNetworkStream@@IAE_NXZ ; CPythonNetworkStream::RecvObserverRemovePacket
PUBLIC	?RecvObserverMovePacket@CPythonNetworkStream@@IAE_NXZ ; CPythonNetworkStream::RecvObserverMovePacket
PUBLIC	?RecvWarpPacket@CPythonNetworkStream@@IAE_NXZ	; CPythonNetworkStream::RecvWarpPacket
PUBLIC	?RecvPVPPacket@CPythonNetworkStream@@IAE_NXZ	; CPythonNetworkStream::RecvPVPPacket
PUBLIC	?RecvDuelStartPacket@CPythonNetworkStream@@IAE_NXZ ; CPythonNetworkStream::RecvDuelStartPacket
PUBLIC	?RecvChatPacket@CPythonNetworkStream@@IAE_NXZ	; CPythonNetworkStream::RecvChatPacket
PUBLIC	?RecvWhisperPacket@CPythonNetworkStream@@IAE_NXZ ; CPythonNetworkStream::RecvWhisperPacket
PUBLIC	?RecvPointChange@CPythonNetworkStream@@IAE_NXZ	; CPythonNetworkStream::RecvPointChange
PUBLIC	?RecvChangeSpeedPacket@CPythonNetworkStream@@IAE_NXZ ; CPythonNetworkStream::RecvChangeSpeedPacket
PUBLIC	?RecvStunPacket@CPythonNetworkStream@@IAE_NXZ	; CPythonNetworkStream::RecvStunPacket
PUBLIC	?RecvDeadPacket@CPythonNetworkStream@@IAE_NXZ	; CPythonNetworkStream::RecvDeadPacket
PUBLIC	?RecvCharacterPositionPacket@CPythonNetworkStream@@IAE_NXZ ; CPythonNetworkStream::RecvCharacterPositionPacket
PUBLIC	?RecvMotionPacket@CPythonNetworkStream@@IAE_NXZ	; CPythonNetworkStream::RecvMotionPacket
PUBLIC	?RecvShopPacket@CPythonNetworkStream@@IAE_NXZ	; CPythonNetworkStream::RecvShopPacket
PUBLIC	?RecvShopSignPacket@CPythonNetworkStream@@IAE_NXZ ; CPythonNetworkStream::RecvShopSignPacket
PUBLIC	?RecvExchangePacket@CPythonNetworkStream@@IAE_NXZ ; CPythonNetworkStream::RecvExchangePacket
PUBLIC	?RecvScriptPacket@CPythonNetworkStream@@IAE_NXZ	; CPythonNetworkStream::RecvScriptPacket
PUBLIC	?RecvQuestInfoPacket@CPythonNetworkStream@@IAE_NXZ ; CPythonNetworkStream::RecvQuestInfoPacket
PUBLIC	?RecvQuestConfirmPacket@CPythonNetworkStream@@IAE_NXZ ; CPythonNetworkStream::RecvQuestConfirmPacket
PUBLIC	?RecvRequestMakeGuild@CPythonNetworkStream@@IAE_NXZ ; CPythonNetworkStream::RecvRequestMakeGuild
PUBLIC	?RecvSkillLevel@CPythonNetworkStream@@IAE_NXZ	; CPythonNetworkStream::RecvSkillLevel
PUBLIC	?RecvSkillLevelNew@CPythonNetworkStream@@IAE_NXZ ; CPythonNetworkStream::RecvSkillLevelNew
PUBLIC	?RecvSkillCoolTimeEnd@CPythonNetworkStream@@IAE_NXZ ; CPythonNetworkStream::RecvSkillCoolTimeEnd
PUBLIC	?RecvTargetPacket@CPythonNetworkStream@@IAE_NXZ	; CPythonNetworkStream::RecvTargetPacket
PUBLIC	?RecvViewEquipPacket@CPythonNetworkStream@@IAE_NXZ ; CPythonNetworkStream::RecvViewEquipPacket
PUBLIC	?RecvDamageInfoPacket@CPythonNetworkStream@@IAE_NXZ ; CPythonNetworkStream::RecvDamageInfoPacket
PUBLIC	?RecvMountPacket@CPythonNetworkStream@@IAE_NXZ	; CPythonNetworkStream::RecvMountPacket
PUBLIC	?RecvCreateFlyPacket@CPythonNetworkStream@@IAE_NXZ ; CPythonNetworkStream::RecvCreateFlyPacket
PUBLIC	?RecvFlyTargetingPacket@CPythonNetworkStream@@IAE_NXZ ; CPythonNetworkStream::RecvFlyTargetingPacket
PUBLIC	?RecvAddFlyTargetingPacket@CPythonNetworkStream@@IAE_NXZ ; CPythonNetworkStream::RecvAddFlyTargetingPacket
PUBLIC	?RecvMessenger@CPythonNetworkStream@@IAE_NXZ	; CPythonNetworkStream::RecvMessenger
PUBLIC	?RecvGuild@CPythonNetworkStream@@IAE_NXZ	; CPythonNetworkStream::RecvGuild
PUBLIC	?RecvPartyInvite@CPythonNetworkStream@@IAE_NXZ	; CPythonNetworkStream::RecvPartyInvite
PUBLIC	?RecvPartyAdd@CPythonNetworkStream@@IAE_NXZ	; CPythonNetworkStream::RecvPartyAdd
PUBLIC	?RecvPartyUpdate@CPythonNetworkStream@@IAE_NXZ	; CPythonNetworkStream::RecvPartyUpdate
PUBLIC	?RecvPartyRemove@CPythonNetworkStream@@IAE_NXZ	; CPythonNetworkStream::RecvPartyRemove
PUBLIC	?RecvPartyLink@CPythonNetworkStream@@IAE_NXZ	; CPythonNetworkStream::RecvPartyLink
PUBLIC	?RecvPartyUnlink@CPythonNetworkStream@@IAE_NXZ	; CPythonNetworkStream::RecvPartyUnlink
PUBLIC	?RecvPartyParameter@CPythonNetworkStream@@IAE_NXZ ; CPythonNetworkStream::RecvPartyParameter
PUBLIC	?RecvFishing@CPythonNetworkStream@@IAE_NXZ	; CPythonNetworkStream::RecvFishing
PUBLIC	?RecvDungeon@CPythonNetworkStream@@IAE_NXZ	; CPythonNetworkStream::RecvDungeon
PUBLIC	?RecvTimePacket@CPythonNetworkStream@@IAE_NXZ	; CPythonNetworkStream::RecvTimePacket
PUBLIC	?RecvWalkModePacket@CPythonNetworkStream@@IAE_NXZ ; CPythonNetworkStream::RecvWalkModePacket
PUBLIC	?RecvChangeSkillGroupPacket@CPythonNetworkStream@@IAE_NXZ ; CPythonNetworkStream::RecvChangeSkillGroupPacket
PUBLIC	?RecvRefineInformationPacket@CPythonNetworkStream@@IAE_NXZ ; CPythonNetworkStream::RecvRefineInformationPacket
PUBLIC	?RecvRefineInformationPacketNew@CPythonNetworkStream@@IAE_NXZ ; CPythonNetworkStream::RecvRefineInformationPacketNew
PUBLIC	?RecvNPCList@CPythonNetworkStream@@IAE_NXZ	; CPythonNetworkStream::RecvNPCList
PUBLIC	?RecvLandPacket@CPythonNetworkStream@@IAE_NXZ	; CPythonNetworkStream::RecvLandPacket
PUBLIC	?RecvTargetCreatePacket@CPythonNetworkStream@@IAE_NXZ ; CPythonNetworkStream::RecvTargetCreatePacket
PUBLIC	?RecvTargetCreatePacketNew@CPythonNetworkStream@@IAE_NXZ ; CPythonNetworkStream::RecvTargetCreatePacketNew
PUBLIC	?RecvTargetUpdatePacket@CPythonNetworkStream@@IAE_NXZ ; CPythonNetworkStream::RecvTargetUpdatePacket
PUBLIC	?RecvTargetDeletePacket@CPythonNetworkStream@@IAE_NXZ ; CPythonNetworkStream::RecvTargetDeletePacket
PUBLIC	?RecvAffectAddPacket@CPythonNetworkStream@@IAE_NXZ ; CPythonNetworkStream::RecvAffectAddPacket
PUBLIC	?RecvAffectRemovePacket@CPythonNetworkStream@@IAE_NXZ ; CPythonNetworkStream::RecvAffectRemovePacket
PUBLIC	?RecvChannelPacket@CPythonNetworkStream@@IAE_NXZ ; CPythonNetworkStream::RecvChannelPacket
PUBLIC	?ParseEmoticon@CPythonNetworkStream@@IAE_NPBDPAK@Z ; CPythonNetworkStream::ParseEmoticon
PUBLIC	?__InitializeGamePhase@CPythonNetworkStream@@IAEXXZ ; CPythonNetworkStream::__InitializeGamePhase
PUBLIC	?__IsPlayerAttacking@CPythonNetworkStream@@IAE_NXZ ; CPythonNetworkStream::__IsPlayerAttacking
PUBLIC	?__ShowMapName@CPythonNetworkStream@@IAEXJJ@Z	; CPythonNetworkStream::__ShowMapName
PUBLIC	?__LeaveGamePhase@CPythonNetworkStream@@IAEXXZ	; CPythonNetworkStream::__LeaveGamePhase
PUBLIC	?__ConvertEmpireText@CPythonNetworkStream@@IAEXKPAD@Z ; CPythonNetworkStream::__ConvertEmpireText
PUBLIC	?__SetGuildID@CPythonNetworkStream@@IAEXK@Z	; CPythonNetworkStream::__SetGuildID
PUBLIC	?Run@?$CFuncObject@VCPythonNetworkStream@@@@QAEXXZ ; CFuncObject<CPythonNetworkStream>::Run
PUBLIC	?_Unchecked_end@?$deque@V?$basic_string@DU?$char_traits@D@std@@V?$allocator@D@2@@std@@V?$allocator@V?$basic_string@DU?$char_traits@D@std@@V?$allocator@D@2@@std@@@2@@std@@QAE?AV?$_Deque_unchecked_iterator@V?$_Deque_val@U?$_Deque_simple_types@V?$basic_string@DU?$char_traits@D@std@@V?$allocator@D@2@@std@@@std@@@std@@@2@XZ ; std::deque<std::basic_string<char,std::char_traits<char>,std::allocator<char> >,std::allocator<std::basic_string<char,std::char_traits<char>,std::allocator<char> > > >::_Unchecked_end
PUBLIC	?front@?$deque@V?$basic_string@DU?$char_traits@D@std@@V?$allocator@D@2@@std@@V?$allocator@V?$basic_string@DU?$char_traits@D@std@@V?$allocator@D@2@@std@@@2@@std@@QAEAAV?$basic_string@DU?$char_traits@D@std@@V?$allocator@D@2@@2@XZ ; std::deque<std::basic_string<char,std::char_traits<char>,std::allocator<char> >,std::allocator<std::basic_string<char,std::char_traits<char>,std::allocator<char> > > >::front
PUBLIC	?back@?$deque@V?$basic_string@DU?$char_traits@D@std@@V?$allocator@D@2@@std@@V?$allocator@V?$basic_string@DU?$char_traits@D@std@@V?$allocator@D@2@@std@@@2@@std@@QAEAAV?$basic_string@DU?$char_traits@D@std@@V?$allocator@D@2@@2@XZ ; std::deque<std::basic_string<char,std::char_traits<char>,std::allocator<char> >,std::allocator<std::basic_string<char,std::char_traits<char>,std::allocator<char> > > >::back
PUBLIC	?pop_front@?$deque@V?$basic_string@DU?$char_traits@D@std@@V?$allocator@D@2@@std@@V?$allocator@V?$basic_string@DU?$char_traits@D@std@@V?$allocator@D@2@@std@@@2@@std@@QAEXXZ ; std::deque<std::basic_string<char,std::char_traits<char>,std::allocator<char> >,std::allocator<std::basic_string<char,std::char_traits<char>,std::allocator<char> > > >::pop_front
PUBLIC	?_Xlen@?$deque@V?$basic_string@DU?$char_traits@D@std@@V?$allocator@D@2@@std@@V?$allocator@V?$basic_string@DU?$char_traits@D@std@@V?$allocator@D@2@@std@@@2@@std@@ABEXXZ ; std::deque<std::basic_string<char,std::char_traits<char>,std::allocator<char> >,std::allocator<std::basic_string<char,std::char_traits<char>,std::allocator<char> > > >::_Xlen
PUBLIC	?_Growmap@?$deque@V?$basic_string@DU?$char_traits@D@std@@V?$allocator@D@2@@std@@V?$allocator@V?$basic_string@DU?$char_traits@D@std@@V?$allocator@D@2@@std@@@2@@std@@AAEXI@Z ; std::deque<std::basic_string<char,std::char_traits<char>,std::allocator<char> >,std::allocator<std::basic_string<char,std::char_traits<char>,std::allocator<char> > > >::_Growmap
PUBLIC	??1SGuildGradeData@CPythonGuild@@QAE@XZ		; CPythonGuild::SGuildGradeData::~SGuildGradeData
PUBLIC	??0SGuildMemberData@CPythonGuild@@QAE@XZ	; CPythonGuild::SGuildMemberData::SGuildMemberData
PUBLIC	??1SGuildMemberData@CPythonGuild@@QAE@XZ	; CPythonGuild::SGuildMemberData::~SGuildMemberData
PUBLIC	??0SQuestInstance@CPythonQuest@@QAE@XZ		; CPythonQuest::SQuestInstance::SQuestInstance
PUBLIC	??1SQuestInstance@CPythonQuest@@QAE@XZ		; CPythonQuest::SQuestInstance::~SQuestInstance
PUBLIC	??$?8DU?$char_traits@D@std@@V?$allocator@D@1@@std@@YA_NABV?$basic_string@DU?$char_traits@D@std@@V?$allocator@D@2@@0@QBD@Z ; std::operator==<char,std::char_traits<char>,std::allocator<char> >
PUBLIC	??$?9DU?$char_traits@D@std@@V?$allocator@D@1@@std@@YA_NQBDABV?$basic_string@DU?$char_traits@D@std@@V?$allocator@D@2@@0@@Z ; std::operator!=<char,std::char_traits<char>,std::allocator<char> >
PUBLIC	??$?8DU?$char_traits@D@std@@V?$allocator@D@1@@std@@YA_NQBDABV?$basic_string@DU?$char_traits@D@std@@V?$allocator@D@2@@0@@Z ; std::operator==<char,std::char_traits<char>,std::allocator<char> >
PUBLIC	??1?$vector@DV?$allocator@D@std@@@std@@QAE@XZ	; std::vector<char,std::allocator<char> >::~vector<char,std::allocator<char> >
PUBLIC	?clear@?$vector@DV?$allocator@D@std@@@std@@QAEXXZ ; std::vector<char,std::allocator<char> >::clear
PUBLIC	?_Destroy@?$vector@DV?$allocator@D@std@@@std@@AAEXPAD0@Z ; std::vector<char,std::allocator<char> >::_Destroy
PUBLIC	?_Calculate_growth@?$vector@DV?$allocator@D@std@@@std@@ABEII@Z ; std::vector<char,std::allocator<char> >::_Calculate_growth
PUBLIC	?_Change_array@?$vector@DV?$allocator@D@std@@@std@@AAEXQADII@Z ; std::vector<char,std::allocator<char> >::_Change_array
PUBLIC	?_Tidy@?$vector@DV?$allocator@D@std@@@std@@AAEXXZ ; std::vector<char,std::allocator<char> >::_Tidy
PUBLIC	?_Xlength@?$vector@DV?$allocator@D@std@@@std@@CAXXZ ; std::vector<char,std::allocator<char> >::_Xlength
PUBLIC	?_Getal@?$vector@DV?$allocator@D@std@@@std@@AAEAAV?$allocator@D@2@XZ ; std::vector<char,std::allocator<char> >::_Getal
PUBLIC	??0?$_Vector_val@U?$_Simple_types@D@std@@@std@@QAE@XZ ; std::_Vector_val<std::_Simple_types<char> >::_Vector_val<std::_Simple_types<char> >
PUBLIC	??$_Resize@U_Value_init_tag@std@@@?$vector@DV?$allocator@D@std@@@std@@AAEXIABU_Value_init_tag@1@@Z ; std::vector<char,std::allocator<char> >::_Resize<std::_Value_init_tag>
PUBLIC	??0?$CDynamicPoolEx@VCRotationDecorator@NEffectUpdateDecorator@@@@QAE@XZ ; CDynamicPoolEx<NEffectUpdateDecorator::CRotationDecorator>::CDynamicPoolEx<NEffectUpdateDecorator::CRotationDecorator>
PUBLIC	??1?$CDynamicPoolEx@VCRotationDecorator@NEffectUpdateDecorator@@@@UAE@XZ ; CDynamicPoolEx<NEffectUpdateDecorator::CRotationDecorator>::~CDynamicPoolEx<NEffectUpdateDecorator::CRotationDecorator>
PUBLIC	?Destroy@?$CDynamicPoolEx@VCRotationDecorator@NEffectUpdateDecorator@@@@QAEXXZ ; CDynamicPoolEx<NEffectUpdateDecorator::CRotationDecorator>::Destroy
PUBLIC	?Delete@?$CDynamicPoolEx@VCRotationDecorator@NEffectUpdateDecorator@@@@KAXPAVCRotationDecorator@NEffectUpdateDecorator@@@Z ; CDynamicPoolEx<NEffectUpdateDecorator::CRotationDecorator>::Delete
PUBLIC	?clear@?$vector@PAVCRotationDecorator@NEffectUpdateDecorator@@V?$allocator@PAVCRotationDecorator@NEffectUpdateDecorator@@@std@@@std@@QAEXXZ ; std::vector<NEffectUpdateDecorator::CRotationDecorator *,std::allocator<NEffectUpdateDecorator::CRotationDecorator *> >::clear
PUBLIC	?_Tidy@?$vector@PAVCRotationDecorator@NEffectUpdateDecorator@@V?$allocator@PAVCRotationDecorator@NEffectUpdateDecorator@@@std@@@std@@AAEXXZ ; std::vector<NEffectUpdateDecorator::CRotationDecorator *,std::allocator<NEffectUpdateDecorator::CRotationDecorator *> >::_Tidy
PUBLIC	??_G?$CDynamicPoolEx@VCRotationDecorator@NEffectUpdateDecorator@@@@UAEPAXI@Z ; CDynamicPoolEx<NEffectUpdateDecorator::CRotationDecorator>::`scalar deleting destructor'
PUBLIC	??0?$CDynamicPoolEx@VCGravityDecorator@NEffectUpdateDecorator@@@@QAE@XZ ; CDynamicPoolEx<NEffectUpdateDecorator::CGravityDecorator>::CDynamicPoolEx<NEffectUpdateDecorator::CGravityDecorator>
PUBLIC	??1?$CDynamicPoolEx@VCGravityDecorator@NEffectUpdateDecorator@@@@UAE@XZ ; CDynamicPoolEx<NEffectUpdateDecorator::CGravityDecorator>::~CDynamicPoolEx<NEffectUpdateDecorator::CGravityDecorator>
PUBLIC	?Destroy@?$CDynamicPoolEx@VCGravityDecorator@NEffectUpdateDecorator@@@@QAEXXZ ; CDynamicPoolEx<NEffectUpdateDecorator::CGravityDecorator>::Destroy
PUBLIC	?Delete@?$CDynamicPoolEx@VCGravityDecorator@NEffectUpdateDecorator@@@@KAXPAVCGravityDecorator@NEffectUpdateDecorator@@@Z ; CDynamicPoolEx<NEffectUpdateDecorator::CGravityDecorator>::Delete
PUBLIC	?clear@?$vector@PAVCGravityDecorator@NEffectUpdateDecorator@@V?$allocator@PAVCGravityDecorator@NEffectUpdateDecorator@@@std@@@std@@QAEXXZ ; std::vector<NEffectUpdateDecorator::CGravityDecorator *,std::allocator<NEffectUpdateDecorator::CGravityDecorator *> >::clear
PUBLIC	?_Tidy@?$vector@PAVCGravityDecorator@NEffectUpdateDecorator@@V?$allocator@PAVCGravityDecorator@NEffectUpdateDecorator@@@std@@@std@@AAEXXZ ; std::vector<NEffectUpdateDecorator::CGravityDecorator *,std::allocator<NEffectUpdateDecorator::CGravityDecorator *> >::_Tidy
PUBLIC	??_G?$CDynamicPoolEx@VCGravityDecorator@NEffectUpdateDecorator@@@@UAEPAXI@Z ; CDynamicPoolEx<NEffectUpdateDecorator::CGravityDecorator>::`scalar deleting destructor'
PUBLIC	??0?$CDynamicPoolEx@VCAirResistanceDecorator@NEffectUpdateDecorator@@@@QAE@XZ ; CDynamicPoolEx<NEffectUpdateDecorator::CAirResistanceDecorator>::CDynamicPoolEx<NEffectUpdateDecorator::CAirResistanceDecorator>
PUBLIC	??1?$CDynamicPoolEx@VCAirResistanceDecorator@NEffectUpdateDecorator@@@@UAE@XZ ; CDynamicPoolEx<NEffectUpdateDecorator::CAirResistanceDecorator>::~CDynamicPoolEx<NEffectUpdateDecorator::CAirResistanceDecorator>
PUBLIC	?Destroy@?$CDynamicPoolEx@VCAirResistanceDecorator@NEffectUpdateDecorator@@@@QAEXXZ ; CDynamicPoolEx<NEffectUpdateDecorator::CAirResistanceDecorator>::Destroy
PUBLIC	?Delete@?$CDynamicPoolEx@VCAirResistanceDecorator@NEffectUpdateDecorator@@@@KAXPAVCAirResistanceDecorator@NEffectUpdateDecorator@@@Z ; CDynamicPoolEx<NEffectUpdateDecorator::CAirResistanceDecorator>::Delete
PUBLIC	?clear@?$vector@PAVCAirResistanceDecorator@NEffectUpdateDecorator@@V?$allocator@PAVCAirResistanceDecorator@NEffectUpdateDecorator@@@std@@@std@@QAEXXZ ; std::vector<NEffectUpdateDecorator::CAirResistanceDecorator *,std::allocator<NEffectUpdateDecorator::CAirResistanceDecorator *> >::clear
PUBLIC	?_Tidy@?$vector@PAVCAirResistanceDecorator@NEffectUpdateDecorator@@V?$allocator@PAVCAirResistanceDecorator@NEffectUpdateDecorator@@@std@@@std@@AAEXXZ ; std::vector<NEffectUpdateDecorator::CAirResistanceDecorator *,std::allocator<NEffectUpdateDecorator::CAirResistanceDecorator *> >::_Tidy
PUBLIC	??_G?$CDynamicPoolEx@VCAirResistanceDecorator@NEffectUpdateDecorator@@@@UAEPAXI@Z ; CDynamicPoolEx<NEffectUpdateDecorator::CAirResistanceDecorator>::`scalar deleting destructor'
PUBLIC	??0?$CDynamicPoolEx@VCTextureAnimationRandomDecorator@NEffectUpdateDecorator@@@@QAE@XZ ; CDynamicPoolEx<NEffectUpdateDecorator::CTextureAnimationRandomDecorator>::CDynamicPoolEx<NEffectUpdateDecorator::CTextureAnimationRandomDecorator>
PUBLIC	??1?$CDynamicPoolEx@VCTextureAnimationRandomDecorator@NEffectUpdateDecorator@@@@UAE@XZ ; CDynamicPoolEx<NEffectUpdateDecorator::CTextureAnimationRandomDecorator>::~CDynamicPoolEx<NEffectUpdateDecorator::CTextureAnimationRandomDecorator>
PUBLIC	?Destroy@?$CDynamicPoolEx@VCTextureAnimationRandomDecorator@NEffectUpdateDecorator@@@@QAEXXZ ; CDynamicPoolEx<NEffectUpdateDecorator::CTextureAnimationRandomDecorator>::Destroy
PUBLIC	?Delete@?$CDynamicPoolEx@VCTextureAnimationRandomDecorator@NEffectUpdateDecorator@@@@KAXPAVCTextureAnimationRandomDecorator@NEffectUpdateDecorator@@@Z ; CDynamicPoolEx<NEffectUpdateDecorator::CTextureAnimationRandomDecorator>::Delete
PUBLIC	?clear@?$vector@PAVCTextureAnimationRandomDecorator@NEffectUpdateDecorator@@V?$allocator@PAVCTextureAnimationRandomDecorator@NEffectUpdateDecorator@@@std@@@std@@QAEXXZ ; std::vector<NEffectUpdateDecorator::CTextureAnimationRandomDecorator *,std::allocator<NEffectUpdateDecorator::CTextureAnimationRandomDecorator *> >::clear
PUBLIC	?_Tidy@?$vector@PAVCTextureAnimationRandomDecorator@NEffectUpdateDecorator@@V?$allocator@PAVCTextureAnimationRandomDecorator@NEffectUpdateDecorator@@@std@@@std@@AAEXXZ ; std::vector<NEffectUpdateDecorator::CTextureAnimationRandomDecorator *,std::allocator<NEffectUpdateDecorator::CTextureAnimationRandomDecorator *> >::_Tidy
PUBLIC	??_G?$CDynamicPoolEx@VCTextureAnimationRandomDecorator@NEffectUpdateDecorator@@@@UAEPAXI@Z ; CDynamicPoolEx<NEffectUpdateDecorator::CTextureAnimationRandomDecorator>::`scalar deleting destructor'
PUBLIC	??0?$CDynamicPoolEx@VCTextureAnimationCCWDecorator@NEffectUpdateDecorator@@@@QAE@XZ ; CDynamicPoolEx<NEffectUpdateDecorator::CTextureAnimationCCWDecorator>::CDynamicPoolEx<NEffectUpdateDecorator::CTextureAnimationCCWDecorator>
PUBLIC	??1?$CDynamicPoolEx@VCTextureAnimationCCWDecorator@NEffectUpdateDecorator@@@@UAE@XZ ; CDynamicPoolEx<NEffectUpdateDecorator::CTextureAnimationCCWDecorator>::~CDynamicPoolEx<NEffectUpdateDecorator::CTextureAnimationCCWDecorator>
PUBLIC	?Destroy@?$CDynamicPoolEx@VCTextureAnimationCCWDecorator@NEffectUpdateDecorator@@@@QAEXXZ ; CDynamicPoolEx<NEffectUpdateDecorator::CTextureAnimationCCWDecorator>::Destroy
PUBLIC	?Delete@?$CDynamicPoolEx@VCTextureAnimationCCWDecorator@NEffectUpdateDecorator@@@@KAXPAVCTextureAnimationCCWDecorator@NEffectUpdateDecorator@@@Z ; CDynamicPoolEx<NEffectUpdateDecorator::CTextureAnimationCCWDecorator>::Delete
PUBLIC	?clear@?$vector@PAVCTextureAnimationCCWDecorator@NEffectUpdateDecorator@@V?$allocator@PAVCTextureAnimationCCWDecorator@NEffectUpdateDecorator@@@std@@@std@@QAEXXZ ; std::vector<NEffectUpdateDecorator::CTextureAnimationCCWDecorator *,std::allocator<NEffectUpdateDecorator::CTextureAnimationCCWDecorator *> >::clear
PUBLIC	?_Tidy@?$vector@PAVCTextureAnimationCCWDecorator@NEffectUpdateDecorator@@V?$allocator@PAVCTextureAnimationCCWDecorator@NEffectUpdateDecorator@@@std@@@std@@AAEXXZ ; std::vector<NEffectUpdateDecorator::CTextureAnimationCCWDecorator *,std::allocator<NEffectUpdateDecorator::CTextureAnimationCCWDecorator *> >::_Tidy
PUBLIC	??_G?$CDynamicPoolEx@VCTextureAnimationCCWDecorator@NEffectUpdateDecorator@@@@UAEPAXI@Z ; CDynamicPoolEx<NEffectUpdateDecorator::CTextureAnimationCCWDecorator>::`scalar deleting destructor'
PUBLIC	??0?$CDynamicPoolEx@VCTextureAnimationCWDecorator@NEffectUpdateDecorator@@@@QAE@XZ ; CDynamicPoolEx<NEffectUpdateDecorator::CTextureAnimationCWDecorator>::CDynamicPoolEx<NEffectUpdateDecorator::CTextureAnimationCWDecorator>
PUBLIC	??1?$CDynamicPoolEx@VCTextureAnimationCWDecorator@NEffectUpdateDecorator@@@@UAE@XZ ; CDynamicPoolEx<NEffectUpdateDecorator::CTextureAnimationCWDecorator>::~CDynamicPoolEx<NEffectUpdateDecorator::CTextureAnimationCWDecorator>
PUBLIC	?Destroy@?$CDynamicPoolEx@VCTextureAnimationCWDecorator@NEffectUpdateDecorator@@@@QAEXXZ ; CDynamicPoolEx<NEffectUpdateDecorator::CTextureAnimationCWDecorator>::Destroy
PUBLIC	?Delete@?$CDynamicPoolEx@VCTextureAnimationCWDecorator@NEffectUpdateDecorator@@@@KAXPAVCTextureAnimationCWDecorator@NEffectUpdateDecorator@@@Z ; CDynamicPoolEx<NEffectUpdateDecorator::CTextureAnimationCWDecorator>::Delete
PUBLIC	?clear@?$vector@PAVCTextureAnimationCWDecorator@NEffectUpdateDecorator@@V?$allocator@PAVCTextureAnimationCWDecorator@NEffectUpdateDecorator@@@std@@@std@@QAEXXZ ; std::vector<NEffectUpdateDecorator::CTextureAnimationCWDecorator *,std::allocator<NEffectUpdateDecorator::CTextureAnimationCWDecorator *> >::clear
PUBLIC	?_Tidy@?$vector@PAVCTextureAnimationCWDecorator@NEffectUpdateDecorator@@V?$allocator@PAVCTextureAnimationCWDecorator@NEffectUpdateDecorator@@@std@@@std@@AAEXXZ ; std::vector<NEffectUpdateDecorator::CTextureAnimationCWDecorator *,std::allocator<NEffectUpdateDecorator::CTextureAnimationCWDecorator *> >::_Tidy
PUBLIC	??_G?$CDynamicPoolEx@VCTextureAnimationCWDecorator@NEffectUpdateDecorator@@@@UAEPAXI@Z ; CDynamicPoolEx<NEffectUpdateDecorator::CTextureAnimationCWDecorator>::`scalar deleting destructor'
PUBLIC	??0?$CDynamicPoolEx@VCNullDecorator@NEffectUpdateDecorator@@@@QAE@XZ ; CDynamicPoolEx<NEffectUpdateDecorator::CNullDecorator>::CDynamicPoolEx<NEffectUpdateDecorator::CNullDecorator>
PUBLIC	??1?$CDynamicPoolEx@VCNullDecorator@NEffectUpdateDecorator@@@@UAE@XZ ; CDynamicPoolEx<NEffectUpdateDecorator::CNullDecorator>::~CDynamicPoolEx<NEffectUpdateDecorator::CNullDecorator>
PUBLIC	?Destroy@?$CDynamicPoolEx@VCNullDecorator@NEffectUpdateDecorator@@@@QAEXXZ ; CDynamicPoolEx<NEffectUpdateDecorator::CNullDecorator>::Destroy
PUBLIC	?Delete@?$CDynamicPoolEx@VCNullDecorator@NEffectUpdateDecorator@@@@KAXPAVCNullDecorator@NEffectUpdateDecorator@@@Z ; CDynamicPoolEx<NEffectUpdateDecorator::CNullDecorator>::Delete
PUBLIC	?clear@?$vector@PAVCNullDecorator@NEffectUpdateDecorator@@V?$allocator@PAVCNullDecorator@NEffectUpdateDecorator@@@std@@@std@@QAEXXZ ; std::vector<NEffectUpdateDecorator::CNullDecorator *,std::allocator<NEffectUpdateDecorator::CNullDecorator *> >::clear
PUBLIC	?_Tidy@?$vector@PAVCNullDecorator@NEffectUpdateDecorator@@V?$allocator@PAVCNullDecorator@NEffectUpdateDecorator@@@std@@@std@@AAEXXZ ; std::vector<NEffectUpdateDecorator::CNullDecorator *,std::allocator<NEffectUpdateDecorator::CNullDecorator *> >::_Tidy
PUBLIC	??_G?$CDynamicPoolEx@VCNullDecorator@NEffectUpdateDecorator@@@@UAEPAXI@Z ; CDynamicPoolEx<NEffectUpdateDecorator::CNullDecorator>::`scalar deleting destructor'
PUBLIC	??0?$CDynamicPoolEx@VCHeaderDecorator@NEffectUpdateDecorator@@@@QAE@XZ ; CDynamicPoolEx<NEffectUpdateDecorator::CHeaderDecorator>::CDynamicPoolEx<NEffectUpdateDecorator::CHeaderDecorator>
PUBLIC	??1?$CDynamicPoolEx@VCHeaderDecorator@NEffectUpdateDecorator@@@@UAE@XZ ; CDynamicPoolEx<NEffectUpdateDecorator::CHeaderDecorator>::~CDynamicPoolEx<NEffectUpdateDecorator::CHeaderDecorator>
PUBLIC	?Destroy@?$CDynamicPoolEx@VCHeaderDecorator@NEffectUpdateDecorator@@@@QAEXXZ ; CDynamicPoolEx<NEffectUpdateDecorator::CHeaderDecorator>::Destroy
PUBLIC	?Delete@?$CDynamicPoolEx@VCHeaderDecorator@NEffectUpdateDecorator@@@@KAXPAVCHeaderDecorator@NEffectUpdateDecorator@@@Z ; CDynamicPoolEx<NEffectUpdateDecorator::CHeaderDecorator>::Delete
PUBLIC	?clear@?$vector@PAVCHeaderDecorator@NEffectUpdateDecorator@@V?$allocator@PAVCHeaderDecorator@NEffectUpdateDecorator@@@std@@@std@@QAEXXZ ; std::vector<NEffectUpdateDecorator::CHeaderDecorator *,std::allocator<NEffectUpdateDecorator::CHeaderDecorator *> >::clear
PUBLIC	?_Tidy@?$vector@PAVCHeaderDecorator@NEffectUpdateDecorator@@V?$allocator@PAVCHeaderDecorator@NEffectUpdateDecorator@@@std@@@std@@AAEXXZ ; std::vector<NEffectUpdateDecorator::CHeaderDecorator *,std::allocator<NEffectUpdateDecorator::CHeaderDecorator *> >::_Tidy
PUBLIC	??_G?$CDynamicPoolEx@VCHeaderDecorator@NEffectUpdateDecorator@@@@UAEPAXI@Z ; CDynamicPoolEx<NEffectUpdateDecorator::CHeaderDecorator>::`scalar deleting destructor'
PUBLIC	??D?$_Deque_unchecked_const_iterator@V?$_Deque_val@U?$_Deque_simple_types@V?$basic_string@DU?$char_traits@D@std@@V?$allocator@D@2@@std@@@std@@@std@@@std@@QBEABV?$basic_string@DU?$char_traits@D@std@@V?$allocator@D@2@@1@XZ ; std::_Deque_unchecked_const_iterator<std::_Deque_val<std::_Deque_simple_types<std::basic_string<char,std::char_traits<char>,std::allocator<char> > > > >::operator*
PUBLIC	??$_Emplace_back_internal@V?$basic_string@DU?$char_traits@D@std@@V?$allocator@D@2@@std@@@?$deque@V?$basic_string@DU?$char_traits@D@std@@V?$allocator@D@2@@std@@V?$allocator@V?$basic_string@DU?$char_traits@D@std@@V?$allocator@D@2@@std@@@2@@std@@AAEX$$QAV?$basic_string@DU?$char_traits@D@std@@V?$allocator@D@2@@1@@Z ; std::deque<std::basic_string<char,std::char_traits<char>,std::allocator<char> >,std::allocator<std::basic_string<char,std::char_traits<char>,std::allocator<char> > > >::_Emplace_back_internal<std::basic_string<char,std::char_traits<char>,std::allocator<char> > >
PUBLIC	??$emplace_back@ABK@?$vector@KV?$allocator@K@std@@@std@@QAEXABK@Z ; std::vector<unsigned long,std::allocator<unsigned long> >::emplace_back<unsigned long const &>
PUBLIC	??$_Emplace_back_with_unused_capacity@ABK@?$vector@KV?$allocator@K@std@@@std@@AAEXABK@Z ; std::vector<unsigned long,std::allocator<unsigned long> >::_Emplace_back_with_unused_capacity<unsigned long const &>
PUBLIC	??$_Emplace_reallocate@ABK@?$vector@KV?$allocator@K@std@@@std@@QAEPAKQAKABK@Z ; std::vector<unsigned long,std::allocator<unsigned long> >::_Emplace_reallocate<unsigned long const &>
PUBLIC	??$emplace_back@V?$basic_string@DU?$char_traits@D@std@@V?$allocator@D@2@@std@@@?$vector@V?$basic_string@DU?$char_traits@D@std@@V?$allocator@D@2@@std@@V?$allocator@V?$basic_string@DU?$char_traits@D@std@@V?$allocator@D@2@@std@@@2@@std@@QAEX$$QAV?$basic_string@DU?$char_traits@D@std@@V?$allocator@D@2@@1@@Z ; std::vector<std::basic_string<char,std::char_traits<char>,std::allocator<char> >,std::allocator<std::basic_string<char,std::char_traits<char>,std::allocator<char> > > >::emplace_back<std::basic_string<char,std::char_traits<char>,std::allocator<char> > >
PUBLIC	??$_Emplace_back_with_unused_capacity@V?$basic_string@DU?$char_traits@D@std@@V?$allocator@D@2@@std@@@?$vector@V?$basic_string@DU?$char_traits@D@std@@V?$allocator@D@2@@std@@V?$allocator@V?$basic_string@DU?$char_traits@D@std@@V?$allocator@D@2@@std@@@2@@std@@AAEX$$QAV?$basic_string@DU?$char_traits@D@std@@V?$allocator@D@2@@1@@Z ; std::vector<std::basic_string<char,std::char_traits<char>,std::allocator<char> >,std::allocator<std::basic_string<char,std::char_traits<char>,std::allocator<char> > > >::_Emplace_back_with_unused_capacity<std::basic_string<char,std::char_traits<char>,std::allocator<char> > >
PUBLIC	??$_Emplace_reallocate@V?$basic_string@DU?$char_traits@D@std@@V?$allocator@D@2@@std@@@?$vector@V?$basic_string@DU?$char_traits@D@std@@V?$allocator@D@2@@std@@V?$allocator@V?$basic_string@DU?$char_traits@D@std@@V?$allocator@D@2@@std@@@2@@std@@QAEPAV?$basic_string@DU?$char_traits@D@std@@V?$allocator@D@2@@1@QAV21@$$QAV21@@Z ; std::vector<std::basic_string<char,std::char_traits<char>,std::allocator<char> >,std::allocator<std::basic_string<char,std::char_traits<char>,std::allocator<char> > > >::_Emplace_reallocate<std::basic_string<char,std::char_traits<char>,std::allocator<char> > >
PUBLIC	??$_Destroy_range@V?$allocator@D@std@@@std@@YAXPADQADAAV?$allocator@D@0@@Z ; std::_Destroy_range<std::allocator<char> >
PUBLIC	??$_Destroy_range@V?$allocator@V?$basic_string@DU?$char_traits@D@std@@V?$allocator@D@2@@std@@@std@@@std@@YAXPAV?$basic_string@DU?$char_traits@D@std@@V?$allocator@D@2@@0@QAV10@AAV?$allocator@V?$basic_string@DU?$char_traits@D@std@@V?$allocator@D@2@@std@@@0@@Z ; std::_Destroy_range<std::allocator<std::basic_string<char,std::char_traits<char>,std::allocator<char> > > >
PUBLIC	??$_Pocca@V?$allocator@D@std@@@std@@YAXAAV?$allocator@D@0@ABV10@@Z ; std::_Pocca<std::allocator<char> >
PUBLIC	??$for_each@V?$_Vector_iterator@V?$_Vector_val@U?$_Simple_types@PAVCHeaderDecorator@NEffectUpdateDecorator@@@std@@@std@@@std@@P6AXPAVCHeaderDecorator@NEffectUpdateDecorator@@@Z@std@@YAP6AXPAVCHeaderDecorator@NEffectUpdateDecorator@@@ZV?$_Vector_iterator@V?$_Vector_val@U?$_Simple_types@PAVCHeaderDecorator@NEffectUpdateDecorator@@@std@@@std@@@0@1P6AX0@Z@Z ; std::for_each<std::_Vector_iterator<std::_Vector_val<std::_Simple_types<NEffectUpdateDecorator::CHeaderDecorator *> > >,void (__cdecl*)(NEffectUpdateDecorator::CHeaderDecorator *)>
PUBLIC	??$for_each@V?$_Vector_iterator@V?$_Vector_val@U?$_Simple_types@PAVCNullDecorator@NEffectUpdateDecorator@@@std@@@std@@@std@@P6AXPAVCNullDecorator@NEffectUpdateDecorator@@@Z@std@@YAP6AXPAVCNullDecorator@NEffectUpdateDecorator@@@ZV?$_Vector_iterator@V?$_Vector_val@U?$_Simple_types@PAVCNullDecorator@NEffectUpdateDecorator@@@std@@@std@@@0@1P6AX0@Z@Z ; std::for_each<std::_Vector_iterator<std::_Vector_val<std::_Simple_types<NEffectUpdateDecorator::CNullDecorator *> > >,void (__cdecl*)(NEffectUpdateDecorator::CNullDecorator *)>
PUBLIC	??$for_each@V?$_Vector_iterator@V?$_Vector_val@U?$_Simple_types@PAVCTextureAnimationCWDecorator@NEffectUpdateDecorator@@@std@@@std@@@std@@P6AXPAVCTextureAnimationCWDecorator@NEffectUpdateDecorator@@@Z@std@@YAP6AXPAVCTextureAnimationCWDecorator@NEffectUpdateDecorator@@@ZV?$_Vector_iterator@V?$_Vector_val@U?$_Simple_types@PAVCTextureAnimationCWDecorator@NEffectUpdateDecorator@@@std@@@std@@@0@1P6AX0@Z@Z ; std::for_each<std::_Vector_iterator<std::_Vector_val<std::_Simple_types<NEffectUpdateDecorator::CTextureAnimationCWDecorator *> > >,void (__cdecl*)(NEffectUpdateDecorator::CTextureAnimationCWDecorator *)>
PUBLIC	??$for_each@V?$_Vector_iterator@V?$_Vector_val@U?$_Simple_types@PAVCTextureAnimationCCWDecorator@NEffectUpdateDecorator@@@std@@@std@@@std@@P6AXPAVCTextureAnimationCCWDecorator@NEffectUpdateDecorator@@@Z@std@@YAP6AXPAVCTextureAnimationCCWDecorator@NEffectUpdateDecorator@@@ZV?$_Vector_iterator@V?$_Vector_val@U?$_Simple_types@PAVCTextureAnimationCCWDecorator@NEffectUpdateDecorator@@@std@@@std@@@0@1P6AX0@Z@Z ; std::for_each<std::_Vector_iterator<std::_Vector_val<std::_Simple_types<NEffectUpdateDecorator::CTextureAnimationCCWDecorator *> > >,void (__cdecl*)(NEffectUpdateDecorator::CTextureAnimationCCWDecorator *)>
PUBLIC	??$for_each@V?$_Vector_iterator@V?$_Vector_val@U?$_Simple_types@PAVCTextureAnimationRandomDecorator@NEffectUpdateDecorator@@@std@@@std@@@std@@P6AXPAVCTextureAnimationRandomDecorator@NEffectUpdateDecorator@@@Z@std@@YAP6AXPAVCTextureAnimationRandomDecorator@NEffectUpdateDecorator@@@ZV?$_Vector_iterator@V?$_Vector_val@U?$_Simple_types@PAVCTextureAnimationRandomDecorator@NEffectUpdateDecorator@@@std@@@std@@@0@1P6AX0@Z@Z ; std::for_each<std::_Vector_iterator<std::_Vector_val<std::_Simple_types<NEffectUpdateDecorator::CTextureAnimationRandomDecorator *> > >,void (__cdecl*)(NEffectUpdateDecorator::CTextureAnimationRandomDecorator *)>
PUBLIC	??$for_each@V?$_Vector_iterator@V?$_Vector_val@U?$_Simple_types@PAVCAirResistanceDecorator@NEffectUpdateDecorator@@@std@@@std@@@std@@P6AXPAVCAirResistanceDecorator@NEffectUpdateDecorator@@@Z@std@@YAP6AXPAVCAirResistanceDecorator@NEffectUpdateDecorator@@@ZV?$_Vector_iterator@V?$_Vector_val@U?$_Simple_types@PAVCAirResistanceDecorator@NEffectUpdateDecorator@@@std@@@std@@@0@1P6AX0@Z@Z ; std::for_each<std::_Vector_iterator<std::_Vector_val<std::_Simple_types<NEffectUpdateDecorator::CAirResistanceDecorator *> > >,void (__cdecl*)(NEffectUpdateDecorator::CAirResistanceDecorator *)>
PUBLIC	??$for_each@V?$_Vector_iterator@V?$_Vector_val@U?$_Simple_types@PAVCGravityDecorator@NEffectUpdateDecorator@@@std@@@std@@@std@@P6AXPAVCGravityDecorator@NEffectUpdateDecorator@@@Z@std@@YAP6AXPAVCGravityDecorator@NEffectUpdateDecorator@@@ZV?$_Vector_iterator@V?$_Vector_val@U?$_Simple_types@PAVCGravityDecorator@NEffectUpdateDecorator@@@std@@@std@@@0@1P6AX0@Z@Z ; std::for_each<std::_Vector_iterator<std::_Vector_val<std::_Simple_types<NEffectUpdateDecorator::CGravityDecorator *> > >,void (__cdecl*)(NEffectUpdateDecorator::CGravityDecorator *)>
PUBLIC	??$for_each@V?$_Vector_iterator@V?$_Vector_val@U?$_Simple_types@PAVCRotationDecorator@NEffectUpdateDecorator@@@std@@@std@@@std@@P6AXPAVCRotationDecorator@NEffectUpdateDecorator@@@Z@std@@YAP6AXPAVCRotationDecorator@NEffectUpdateDecorator@@@ZV?$_Vector_iterator@V?$_Vector_val@U?$_Simple_types@PAVCRotationDecorator@NEffectUpdateDecorator@@@std@@@std@@@0@1P6AX0@Z@Z ; std::for_each<std::_Vector_iterator<std::_Vector_val<std::_Simple_types<NEffectUpdateDecorator::CRotationDecorator *> > >,void (__cdecl*)(NEffectUpdateDecorator::CRotationDecorator *)>
PUBLIC	??$_Destroy_range@V?$allocator@K@std@@@std@@YAXPAKQAKAAV?$allocator@K@0@@Z ; std::_Destroy_range<std::allocator<unsigned long> >
PUBLIC	??$_Destroy_range@V?$allocator@PAVCHeaderDecorator@NEffectUpdateDecorator@@@std@@@std@@YAXPAPAVCHeaderDecorator@NEffectUpdateDecorator@@QAPAV12@AAV?$allocator@PAVCHeaderDecorator@NEffectUpdateDecorator@@@0@@Z ; std::_Destroy_range<std::allocator<NEffectUpdateDecorator::CHeaderDecorator *> >
PUBLIC	??$_Destroy_range@V?$allocator@PAVCNullDecorator@NEffectUpdateDecorator@@@std@@@std@@YAXPAPAVCNullDecorator@NEffectUpdateDecorator@@QAPAV12@AAV?$allocator@PAVCNullDecorator@NEffectUpdateDecorator@@@0@@Z ; std::_Destroy_range<std::allocator<NEffectUpdateDecorator::CNullDecorator *> >
PUBLIC	??$_Destroy_range@V?$allocator@PAVCTextureAnimationCWDecorator@NEffectUpdateDecorator@@@std@@@std@@YAXPAPAVCTextureAnimationCWDecorator@NEffectUpdateDecorator@@QAPAV12@AAV?$allocator@PAVCTextureAnimationCWDecorator@NEffectUpdateDecorator@@@0@@Z ; std::_Destroy_range<std::allocator<NEffectUpdateDecorator::CTextureAnimationCWDecorator *> >
PUBLIC	??$_Destroy_range@V?$allocator@PAVCTextureAnimationCCWDecorator@NEffectUpdateDecorator@@@std@@@std@@YAXPAPAVCTextureAnimationCCWDecorator@NEffectUpdateDecorator@@QAPAV12@AAV?$allocator@PAVCTextureAnimationCCWDecorator@NEffectUpdateDecorator@@@0@@Z ; std::_Destroy_range<std::allocator<NEffectUpdateDecorator::CTextureAnimationCCWDecorator *> >
PUBLIC	??$_Destroy_range@V?$allocator@PAVCTextureAnimationRandomDecorator@NEffectUpdateDecorator@@@std@@@std@@YAXPAPAVCTextureAnimationRandomDecorator@NEffectUpdateDecorator@@QAPAV12@AAV?$allocator@PAVCTextureAnimationRandomDecorator@NEffectUpdateDecorator@@@0@@Z ; std::_Destroy_range<std::allocator<NEffectUpdateDecorator::CTextureAnimationRandomDecorator *> >
PUBLIC	??$_Destroy_range@V?$allocator@PAVCAirResistanceDecorator@NEffectUpdateDecorator@@@std@@@std@@YAXPAPAVCAirResistanceDecorator@NEffectUpdateDecorator@@QAPAV12@AAV?$allocator@PAVCAirResistanceDecorator@NEffectUpdateDecorator@@@0@@Z ; std::_Destroy_range<std::allocator<NEffectUpdateDecorator::CAirResistanceDecorator *> >
PUBLIC	??$_Destroy_range@V?$allocator@PAVCGravityDecorator@NEffectUpdateDecorator@@@std@@@std@@YAXPAPAVCGravityDecorator@NEffectUpdateDecorator@@QAPAV12@AAV?$allocator@PAVCGravityDecorator@NEffectUpdateDecorator@@@0@@Z ; std::_Destroy_range<std::allocator<NEffectUpdateDecorator::CGravityDecorator *> >
PUBLIC	??$_Destroy_range@V?$allocator@PAVCRotationDecorator@NEffectUpdateDecorator@@@std@@@std@@YAXPAPAVCRotationDecorator@NEffectUpdateDecorator@@QAPAV12@AAV?$allocator@PAVCRotationDecorator@NEffectUpdateDecorator@@@0@@Z ; std::_Destroy_range<std::allocator<NEffectUpdateDecorator::CRotationDecorator *> >
PUBLIC	??$_Resize_reallocate@U_Value_init_tag@std@@@?$vector@DV?$allocator@D@std@@@std@@AAEXIABU_Value_init_tag@1@@Z ; std::vector<char,std::allocator<char> >::_Resize_reallocate<std::_Value_init_tag>
PUBLIC	??$_Uninitialized_value_construct_n@V?$allocator@D@std@@@std@@YAPADPADIAAV?$allocator@D@0@@Z ; std::_Uninitialized_value_construct_n<std::allocator<char> >
PUBLIC	??$uninitialized_copy@PAPAV?$basic_string@DU?$char_traits@D@std@@V?$allocator@D@2@@std@@PAPAV12@@std@@YAPAPAV?$basic_string@DU?$char_traits@D@std@@V?$allocator@D@2@@0@QAPAV10@0PAPAV10@@Z ; std::uninitialized_copy<std::basic_string<char,std::char_traits<char>,std::allocator<char> > * *,std::basic_string<char,std::char_traits<char>,std::allocator<char> > * *>
PUBLIC	??$_Uninitialized_value_construct_n_unchecked1@PAPAV?$basic_string@DU?$char_traits@D@std@@V?$allocator@D@2@@std@@I@std@@YAPAPAV?$basic_string@DU?$char_traits@D@std@@V?$allocator@D@2@@0@PAPAV10@I@Z ; std::_Uninitialized_value_construct_n_unchecked1<std::basic_string<char,std::char_traits<char>,std::allocator<char> > * *,unsigned int>
PUBLIC	??$_Destroy_range@PAPAV?$basic_string@DU?$char_traits@D@std@@V?$allocator@D@2@@std@@PAPAV12@@std@@YAXPAPAV?$basic_string@DU?$char_traits@D@std@@V?$allocator@D@2@@0@QAPAV10@@Z ; std::_Destroy_range<std::basic_string<char,std::char_traits<char>,std::allocator<char> > * *,std::basic_string<char,std::char_traits<char>,std::allocator<char> > * *>
PUBLIC	??$_Uninitialized_move@PAKV?$allocator@K@std@@@std@@YAPAKQAK0PAKAAV?$allocator@K@0@@Z ; std::_Uninitialized_move<unsigned long *,std::allocator<unsigned long> >
PUBLIC	??$_Uninitialized_move@PAV?$basic_string@DU?$char_traits@D@std@@V?$allocator@D@2@@std@@V?$allocator@V?$basic_string@DU?$char_traits@D@std@@V?$allocator@D@2@@std@@@2@@std@@YAPAV?$basic_string@DU?$char_traits@D@std@@V?$allocator@D@2@@0@QAV10@0PAV10@AAV?$allocator@V?$basic_string@DU?$char_traits@D@std@@V?$allocator@D@2@@std@@@0@@Z ; std::_Uninitialized_move<std::basic_string<char,std::char_traits<char>,std::allocator<char> > *,std::allocator<std::basic_string<char,std::char_traits<char>,std::allocator<char> > > >
PUBLIC	??$_Zero_range@PAD@std@@YAPADQAD0@Z		; std::_Zero_range<char *>
PUBLIC	??$_Copy_memmove@PAPAV?$basic_string@DU?$char_traits@D@std@@V?$allocator@D@2@@std@@PAPAV12@@std@@YAPAPAV?$basic_string@DU?$char_traits@D@std@@V?$allocator@D@2@@0@PAPAV10@00@Z ; std::_Copy_memmove<std::basic_string<char,std::char_traits<char>,std::allocator<char> > * *,std::basic_string<char,std::char_traits<char>,std::allocator<char> > * *>
PUBLIC	??$_Zero_range@PAPAV?$basic_string@DU?$char_traits@D@std@@V?$allocator@D@2@@std@@@std@@YAPAPAV?$basic_string@DU?$char_traits@D@std@@V?$allocator@D@2@@0@QAPAV10@0@Z ; std::_Zero_range<std::basic_string<char,std::char_traits<char>,std::allocator<char> > * *>
PUBLIC	??$_Copy_memmove@PAKPAK@std@@YAPAKPAK00@Z	; std::_Copy_memmove<unsigned long *,unsigned long *>
PUBLIC	??1?$_Uninitialized_backout_al@V?$allocator@V?$basic_string@DU?$char_traits@D@std@@V?$allocator@D@2@@std@@@std@@@std@@QAE@XZ ; std::_Uninitialized_backout_al<std::allocator<std::basic_string<char,std::char_traits<char>,std::allocator<char> > > >::~_Uninitialized_backout_al<std::allocator<std::basic_string<char,std::char_traits<char>,std::allocator<char> > > >
PUBLIC	??$_Emplace_back@V?$basic_string@DU?$char_traits@D@std@@V?$allocator@D@2@@std@@@?$_Uninitialized_backout_al@V?$allocator@V?$basic_string@DU?$char_traits@D@std@@V?$allocator@D@2@@std@@@std@@@std@@QAEX$$QAV?$basic_string@DU?$char_traits@D@std@@V?$allocator@D@2@@1@@Z ; std::_Uninitialized_backout_al<std::allocator<std::basic_string<char,std::char_traits<char>,std::allocator<char> > > >::_Emplace_back<std::basic_string<char,std::char_traits<char>,std::allocator<char> > >
PUBLIC	??$_Uninitialized_move@PADV?$allocator@D@std@@@std@@YAPADQAD0PADAAV?$allocator@D@0@@Z ; std::_Uninitialized_move<char *,std::allocator<char> >
PUBLIC	??$_Copy_memmove@PADPAD@std@@YAPADPAD00@Z	; std::_Copy_memmove<char *,char *>
PUBLIC	?_OptionsStorage@?1??__local_stdio_printf_options@@9@4_KA ; `__local_stdio_printf_options'::`2'::_OptionsStorage
PUBLIC	??_7exception@std@@6B@				; std::exception::`vftable'
PUBLIC	??_C@_0BC@EOODALEL@Unknown?5exception@		; `string'
PUBLIC	??_7bad_alloc@std@@6B@				; std::bad_alloc::`vftable'
PUBLIC	??_7bad_array_new_length@std@@6B@		; std::bad_array_new_length::`vftable'
PUBLIC	??_C@_0BF@KINCDENJ@bad?5array?5new?5length@	; `string'
PUBLIC	__TI3?AVbad_array_new_length@std@@
PUBLIC	__CTA3?AVbad_array_new_length@std@@
PUBLIC	??_R0?AVbad_array_new_length@std@@@8		; std::bad_array_new_length `RTTI Type Descriptor'
PUBLIC	__CT??_R0?AVbad_array_new_length@std@@@8??0bad_array_new_length@std@@QAE@ABV01@@Z12
PUBLIC	??_R0?AVbad_alloc@std@@@8			; std::bad_alloc `RTTI Type Descriptor'
PUBLIC	__CT??_R0?AVbad_alloc@std@@@8??0bad_alloc@std@@QAE@ABV01@@Z12
PUBLIC	??_R0?AVexception@std@@@8			; std::exception `RTTI Type Descriptor'
PUBLIC	__CT??_R0?AVexception@std@@@8??0exception@std@@QAE@ABV01@@Z12
PUBLIC	??_C@_0BA@JFNIOLAK@string?5too?5long@		; `string'
PUBLIC	??_C@_00CNPNBAHC@@				; `string'
PUBLIC	??_C@_0BI@CFPLBAOH@invalid?5string?5position@	; `string'
PUBLIC	??_C@_0BA@FOIKENOD@vector?5too?5long@		; `string'
PUBLIC	??_R4exception@std@@6B@				; std::exception::`RTTI Complete Object Locator'
PUBLIC	??_R3exception@std@@8				; std::exception::`RTTI Class Hierarchy Descriptor'
PUBLIC	??_R2exception@std@@8				; std::exception::`RTTI Base Class Array'
PUBLIC	??_R1A@?0A@EA@exception@std@@8			; std::exception::`RTTI Base Class Descriptor at (0,-1,0,64)'
PUBLIC	??_R4bad_alloc@std@@6B@				; std::bad_alloc::`RTTI Complete Object Locator'
PUBLIC	??_R3bad_alloc@std@@8				; std::bad_alloc::`RTTI Class Hierarchy Descriptor'
PUBLIC	??_R2bad_alloc@std@@8				; std::bad_alloc::`RTTI Base Class Array'
PUBLIC	??_R1A@?0A@EA@bad_alloc@std@@8			; std::bad_alloc::`RTTI Base Class Descriptor at (0,-1,0,64)'
PUBLIC	??_R4bad_array_new_length@std@@6B@		; std::bad_array_new_length::`RTTI Complete Object Locator'
PUBLIC	??_R3bad_array_new_length@std@@8		; std::bad_array_new_length::`RTTI Class Hierarchy Descriptor'
PUBLIC	??_R2bad_array_new_length@std@@8		; std::bad_array_new_length::`RTTI Base Class Array'
PUBLIC	??_R1A@?0A@EA@bad_array_new_length@std@@8	; std::bad_array_new_length::`RTTI Base Class Descriptor at (0,-1,0,64)'
PUBLIC	?ms_singleton@?$CSingleton@VCPythonNetworkStream@@@@0PAVCPythonNetworkStream@@A ; CSingleton<CPythonNetworkStream>::ms_singleton
PUBLIC	?ms_singleton@?$CSingleton@VCPythonGuild@@@@0PAVCPythonGuild@@A ; CSingleton<CPythonGuild>::ms_singleton
PUBLIC	?ms_singleton@?$TAbstractSingleton@VIAbstractCharacterManager@@@@0PAVIAbstractCharacterManager@@A ; TAbstractSingleton<IAbstractCharacterManager>::ms_singleton
PUBLIC	?ms_kPool@?$CPooledObject@VCHeaderDecorator@NEffectUpdateDecorator@@@@1V?$CDynamicPoolEx@VCHeaderDecorator@NEffectUpdateDecorator@@@@A ; CPooledObject<NEffectUpdateDecorator::CHeaderDecorator>::ms_kPool
PUBLIC	?ms_kPool@?$CPooledObject@VCNullDecorator@NEffectUpdateDecorator@@@@1V?$CDynamicPoolEx@VCNullDecorator@NEffectUpdateDecorator@@@@A ; CPooledObject<NEffectUpdateDecorator::CNullDecorator>::ms_kPool
PUBLIC	?ms_kPool@?$CPooledObject@VCTextureAnimationCWDecorator@NEffectUpdateDecorator@@@@1V?$CDynamicPoolEx@VCTextureAnimationCWDecorator@NEffectUpdateDecorator@@@@A ; CPooledObject<NEffectUpdateDecorator::CTextureAnimationCWDecorator>::ms_kPool
PUBLIC	?ms_kPool@?$CPooledObject@VCTextureAnimationCCWDecorator@NEffectUpdateDecorator@@@@1V?$CDynamicPoolEx@VCTextureAnimationCCWDecorator@NEffectUpdateDecorator@@@@A ; CPooledObject<NEffectUpdateDecorator::CTextureAnimationCCWDecorator>::ms_kPool
PUBLIC	?ms_kPool@?$CPooledObject@VCTextureAnimationRandomDecorator@NEffectUpdateDecorator@@@@1V?$CDynamicPoolEx@VCTextureAnimationRandomDecorator@NEffectUpdateDecorator@@@@A ; CPooledObject<NEffectUpdateDecorator::CTextureAnimationRandomDecorator>::ms_kPool
PUBLIC	?ms_kPool@?$CPooledObject@VCAirResistanceDecorator@NEffectUpdateDecorator@@@@1V?$CDynamicPoolEx@VCAirResistanceDecorator@NEffectUpdateDecorator@@@@A ; CPooledObject<NEffectUpdateDecorator::CAirResistanceDecorator>::ms_kPool
PUBLIC	?ms_kPool@?$CPooledObject@VCGravityDecorator@NEffectUpdateDecorator@@@@1V?$CDynamicPoolEx@VCGravityDecorator@NEffectUpdateDecorator@@@@A ; CPooledObject<NEffectUpdateDecorator::CGravityDecorator>::ms_kPool
PUBLIC	?ms_kPool@?$CPooledObject@VCRotationDecorator@NEffectUpdateDecorator@@@@1V?$CDynamicPoolEx@VCRotationDecorator@NEffectUpdateDecorator@@@@A ; CPooledObject<NEffectUpdateDecorator::CRotationDecorator>::ms_kPool
PUBLIC	?ms_singleton@?$CSingleton@VCFlyingManager@@@@0PAVCFlyingManager@@A ; CSingleton<CFlyingManager>::ms_singleton
PUBLIC	?ms_singleton@?$CSingleton@VCPythonCharacterManager@@@@0PAVCPythonCharacterManager@@A ; CSingleton<CPythonCharacterManager>::ms_singleton
PUBLIC	?ms_singleton@?$TAbstractSingleton@VIAbstractPlayer@@@@0PAVIAbstractPlayer@@A ; TAbstractSingleton<IAbstractPlayer>::ms_singleton
PUBLIC	?ms_singleton@?$CSingleton@VCPythonPlayer@@@@0PAVCPythonPlayer@@A ; CSingleton<CPythonPlayer>::ms_singleton
PUBLIC	?ms_singleton@?$CSingleton@VCPythonBackground@@@@0PAVCPythonBackground@@A ; CSingleton<CPythonBackground>::ms_singleton
PUBLIC	?ms_singleton@?$CSingleton@VCPythonMiniMap@@@@0PAVCPythonMiniMap@@A ; CSingleton<CPythonMiniMap>::ms_singleton
PUBLIC	?ms_singleton@?$CSingleton@VCPythonTextTail@@@@0PAVCPythonTextTail@@A ; CSingleton<CPythonTextTail>::ms_singleton
PUBLIC	?ms_singleton@?$CSingleton@VCPythonItem@@@@0PAVCPythonItem@@A ; CSingleton<CPythonItem>::ms_singleton
PUBLIC	?ms_singleton@?$CSingleton@VCPythonChat@@@@0PAVCPythonChat@@A ; CSingleton<CPythonChat>::ms_singleton
PUBLIC	?ms_singleton@?$CSingleton@VCPythonShop@@@@0PAVCPythonShop@@A ; CSingleton<CPythonShop>::ms_singleton
PUBLIC	?ms_singleton@?$CSingleton@VCPythonExchange@@@@0PAVCPythonExchange@@A ; CSingleton<CPythonExchange>::ms_singleton
PUBLIC	?ms_singleton@?$CSingleton@VCPythonQuest@@@@0PAVCPythonQuest@@A ; CSingleton<CPythonQuest>::ms_singleton
PUBLIC	?ms_singleton@?$CSingleton@VCPythonEventManager@@@@0PAVCPythonEventManager@@A ; CSingleton<CPythonEventManager>::ms_singleton
PUBLIC	?ms_singleton@?$CSingleton@VCPythonMessenger@@@@0PAVCPythonMessenger@@A ; CSingleton<CPythonMessenger>::ms_singleton
PUBLIC	?ms_singleton@?$CSingleton@VCItemManager@@@@0PAVCItemManager@@A ; CSingleton<CItemManager>::ms_singleton
PUBLIC	?ms_singleton@?$TAbstractSingleton@VIAbstractApplication@@@@0PAVIAbstractApplication@@A ; TAbstractSingleton<IAbstractApplication>::ms_singleton
PUBLIC	??_C@_02HCKGKOFO@?$CI?$CJ@			; `string'
PUBLIC	??_C@_0BB@DGNNMOLK@RefreshAlignment@		; `string'
PUBLIC	??_C@_03LIHNMIHG@?$CIi?$CJ@			; `string'
PUBLIC	??_C@_0BI@IJENFIMO@RefreshTargetBoardByVID@	; `string'
PUBLIC	??_C@_03KJMMOONA@?$CIs?$CJ@			; `string'
PUBLIC	??_C@_0BJ@GGFFBLPA@RefreshTargetBoardByName@	; `string'
PUBLIC	??_C@_0BD@FLFBFOOJ@RefreshTargetBoard@		; `string'
PUBLIC	??_C@_04IBBNLEM@Game@				; `string'
PUBLIC	??_C@_0BB@HFALJDHO@RefreshCharacter@		; `string'
PUBLIC	??_C@_0BB@CAEOPHDE@RefreshEquipment@		; `string'
PUBLIC	??_C@_0BB@JLCHKFKI@RefreshInventory@		; `string'
PUBLIC	??_C@_0BA@JECEPFD@RefreshExchange@		; `string'
PUBLIC	??_C@_0N@EFFAOLPI@RefreshSkill@			; `string'
PUBLIC	??_C@_0P@PHDJJCCP@RefreshSafebox@		; `string'
PUBLIC	??_C@_0M@HNBFKLDC@RefreshMall@			; `string'
PUBLIC	??_C@_0O@PDJLBMPA@RefreshStatus@		; `string'
PUBLIC	??_C@_0BB@CDMJAHKO@RefreshMessenger@		; `string'
PUBLIC	??_C@_0BF@NLJDKFFK@RefreshGuildInfoPage@	; `string'
PUBLIC	??_C@_0BG@FFPNPADB@RefreshGuildBoardPage@	; `string'
PUBLIC	??_C@_0BH@BOJHBBF@RefreshGuildMemberPage@	; `string'
PUBLIC	??_C@_0CE@PAAOLBDB@RefreshGuildMemberPageGradeComb@ ; `string'
PUBLIC	??_C@_0BG@MICKDFKA@RefreshGuildSkillPage@	; `string'
PUBLIC	??_C@_0BG@CBAJOEAC@RefreshGuildGradePage@	; `string'
PUBLIC	??_C@_05FONOJENF@?$CIsii?$CJ@			; `string'
PUBLIC	??_C@_0M@DJFBBLID@ShowMapName@			; `string'
PUBLIC	??_C@_0BL@HPKACCGC@?$CD?$CD?5Network?5?9?5Game?5Phase?5?$CD?$CD@ ; `string'
PUBLIC	??_C@_0EC@IHJJGCFB@CPythonNetworkStream?3?3RecvDuelS@ ; `string'
PUBLIC	??_C@_0BB@FNPCBFHE@CloseTargetBoard@		; `string'
PUBLIC	??_C@_0CE@DHDBME@?5SendMessengerAddByNamePacket?5?3@ ; `string'
PUBLIC	??_C@_0IB@FFAGJAOL@CPythonNetworkStream?3?3SendChara@ ; `string'
PUBLIC	??_C@_0DN@EFFJHKOL@CPythonNetworkStream?3?3SendUseSk@ ; `string'
PUBLIC	??_C@_0DL@GMAAOOOI@Can?8t?5register?5emoticon?5string?4@ ; `string'
PUBLIC	??_C@_02DKCKIIND@?$CFs@				; `string'
PUBLIC	??_C@_0BF@EKLOHGBI@BINARY_SetTipMessage@	; `string'
PUBLIC	??_C@_0BF@MEFMFHCI@BINARY_SetBigMessage@	; `string'
PUBLIC	??_C@_07IAFACCAD@?$CFs?5?3?5?$CFs@		; `string'
PUBLIC	??_C@_05FKJLIKKL@?$CIiss?$CJ@			; `string'
PUBLIC	??_C@_0O@MLMPGGOH@OnRecvWhisper@		; `string'
PUBLIC	??_C@_0BL@MJBHNNKO@OnRecvWhisperSystemMessage@	; `string'
PUBLIC	??_C@_0BD@HFHHLLOG@OnRecvWhisperError@		; `string'
PUBLIC	??_C@_0BP@DGLKKAJF@Recv?5Point?5Change?5Packet?5Error@ ; `string'
PUBLIC	??_C@_0M@JJMCBALF@OnPickMoney@			; `string'
PUBLIC	??_C@_0CL@MKMKFBIM@CPythonNetworkStream?3?3RecvStunP@ ; `string'
PUBLIC	??_C@_0CL@KJGPDLAC@CPythonNetworkStream?3?3RecvDeadP@ ; `string'
PUBLIC	??_C@_0M@BDKDPHGA@?A?V?$MA?N?$LA?x?5?$LL?g?$LI?A@ ; `string'
PUBLIC	??_C@_0L@MNOOMILJ@OnGameOver@			; `string'
PUBLIC	??_C@_0CF@OKKJKDKD@Send?5Character?5Position?5Packet?5@ ; `string'
PUBLIC	??_C@_0BL@HCNNPICH@Send?5On_Click?5Packet?5Error@ ; `string'
PUBLIC	??_C@_0BD@ICLELGCO@SendOnClickPacket?6@		; `string'
PUBLIC	??_C@_09PJIJIJPH@StartShop@			; `string'
PUBLIC	??_C@_07FONJAJPH@EndShop@			; `string'
PUBLIC	??_C@_0M@DLPMCOFP@RefreshShop@			; `string'
PUBLIC	??_C@_0BE@MHMAEIEM@SetShopSellingPrice@		; `string'
PUBLIC	??_C@_0BB@GHBGEHD@NOT_ENOUGH_MONEY@		; `string'
PUBLIC	??_C@_0M@NHHHAHOK@OnShopError@			; `string'
PUBLIC	??_C@_0BE@OHHJLOIF@NOT_ENOUGH_MONEY_EX@		; `string'
PUBLIC	??_C@_07FBAJNJNN@SOLDOUT@			; `string'
PUBLIC	??_C@_0P@HIHIAGBD@INVENTORY_FULL@		; `string'
PUBLIC	??_C@_0M@HAELFLPD@INVALID_POS@			; `string'
PUBLIC	??_C@_0DJ@IGANFIGP@CPythonNetworkStream?3?3RecvShopP@ ; `string'
PUBLIC	??_C@_0O@HKIIBLHD@StartExchange@		; `string'
PUBLIC	??_C@_0M@GJLEGLOM@EndExchange@			; `string'
PUBLIC	??_C@_0O@LLCGBEIB@trade_already@		; `string'
PUBLIC	??_C@_0P@DNLFDBJJ@trade_less_elk@		; `string'
PUBLIC	??_C@_0CA@CACIOMDA@Recv?5Quest?5Info?5Packet?5Error?5?$CD1@ ; `string'
PUBLIC	??_C@_0CA@LAFLPPD@Recv?5Quest?5Info?5Packet?5Error?5?$CD2@ ; `string'
PUBLIC	??_C@_0N@IPPKALM@RefreshQuest@			; `string'
PUBLIC	??_C@_0BN@JBCFOMDG@RecvQuestConfirmPacket?5Error@ ; `string'
PUBLIC	??_C@_0BG@KIBJJMEI@BINARY_OnQuestConfirm@	; `string'
PUBLIC	??_C@_0CC@ELOCPLFN@RecvRequestMakeGuild?5Packet?5Err@ ; `string'
PUBLIC	??_C@_0N@FKOIEIPK@AskGuildName@			; `string'
PUBLIC	??_C@_0BA@BHDOCKEA@ToggleDebugInfo@		; `string'
PUBLIC	??_C@_0BP@CGFAIMHK@send_trade_start_packet?5Error?6@ ; `string'
PUBLIC	??_C@_0CD@FOAEKPNP@send_trade_start_packet?5?5?5vid?5?$CF@ ; `string'
PUBLIC	??_C@_0CB@EABMKDBI@send_trade_elk_add_packet?5Error@ ; `string'
PUBLIC	??_C@_0CC@JFABNFDE@send_trade_item_add_packet?5Erro@ ; `string'
PUBLIC	??_C@_0CC@IFEOOANP@send_trade_item_del_packet?5Erro@ ; `string'
PUBLIC	??_C@_0CA@EEPLBN@send_trade_accept_packet?5Error?6@ ; `string'
PUBLIC	??_C@_0BO@FJKDIHPJ@send_trade_exit_packet?5Error?6@ ; `string'
PUBLIC	??_C@_0BA@ILEGHCPF@StartPointReset@		; `string'
PUBLIC	??_C@_0BL@GIIBIOJB@RecvScriptPacket_RecvError@	; `string'
PUBLIC	??_C@_0BL@FELFLKOI@RecvScriptPacket_SizeError@	; `string'
PUBLIC	??_C@_0CA@GLOCGDPA@Send?5Script?5Answer?5Packet?5Error@ ; `string'
PUBLIC	??_C@_0CA@DKGOFDHL@Send?5Script?5Button?5Packet?5Error@ ; `string'
PUBLIC	??_C@_0CB@FGDJCCCM@SendAnswerMakeGuild?5Packet?5Erro@ ; `string'
PUBLIC	??_C@_0CB@KDIADHIP@SendQuestInputStringPacket?5Erro@ ; `string'
PUBLIC	??_C@_0BN@IAHFIDIL@SendQuestConfirmPacket?5Error@ ; `string'
PUBLIC	??_C@_0CB@HKJKPPKG@?5SendQuestConfirmPacket?5?3?5?$CFd?0?5?$CF@ ; `string'
PUBLIC	??_C@_0DH@MPAMADMO@CPythonNetworkStream?3?3RecvSkill@ ; `string'
PUBLIC	??_C@_0DB@OELACDEA@CPythonNetworkStream?3?3RecvSkill@ ; `string'
PUBLIC	??_C@_0BE@OJMAIMGE@?5?$DO?$DO?5RecvSkillLevel?6@ ; `string'
PUBLIC	??_C@_0DE@EBNCHOOM@CPythonNetworkStream?3?3RecvSkill@ ; `string'
PUBLIC	??_C@_0BJ@HIJGCIDI@Recv?5Target?5Packet?5Error@	; `string'
PUBLIC	??_C@_0BM@PIHJNOHE@Damage?5is?5equal?5or?5below?50?4@ ; `string'
PUBLIC	??_C@_0BM@KLEOIHKF@CloseTargetBoardIfDifferent@	; `string'
PUBLIC	??_C@_04INACLLOK@?$CIii?$CJ@			; `string'
PUBLIC	??_C@_0BB@PDPGJKAD@SetHPTargetBoard@		; `string'
PUBLIC	??_C@_0BI@LEDBDCKL@Recv?5Mount?5Packet?5Error@	; `string'
PUBLIC	??_C@_0BI@OCDKMKMI@Recv?5Speed?5Packet?5Error@	; `string'
PUBLIC	??_C@_0CA@IBBLODAF@Send?5Battle?5Attack?5Packet?5Error@ ; `string'
PUBLIC	??_C@_0BN@KNAMGOGH@VID?5?$FL?$CFd?$FN?$LA?$KB?5?E?$LI?$LA?Y?$MA?$LL?5?C?$NP?$LA?$KB?5?$LM?$LD?A?$KE?6@ ; `string'
PUBLIC	??_C@_0EM@NIJLGOIC@CPythonNetworkStream?3?3RecvFlyTa@ ; `string'
PUBLIC	??_C@_0BG@GKKFNNN@SendShootPacket?5Error@	; `string'
PUBLIC	??_C@_0BP@MONNHODC@Send?5FlyTargeting?5Packet?5Error@ ; `string'
PUBLIC	??_C@_0BJ@MBCMDDJG@Send?5Target?5Packet?5Error@	; `string'
PUBLIC	??_C@_0DM@NAODJGJE@CPythonNetworkStream?3?3SendSyncP@ ; `string'
PUBLIC	??_C@_0EG@HLBPKODM@CPythonNetworkStream?3?3SendParty@ ; `string'
PUBLIC	??_C@_0CA@GNHHEHBK@?5?$DM?$DM?5SendPartyInvitePacket?5?3?5?$CFd?6@ ; `string'
PUBLIC	??_C@_0FA@IIILKEFH@CPythonNetworkStream?3?3SendParty@ ; `string'
PUBLIC	??_C@_0CK@GHKGLGPO@?5?$DM?$DM?5SendPartyInviteAnswerPacket@ ; `string'
PUBLIC	??_C@_0EG@BBBGKACF@CPythonNetworkStream?3?3SendParty@ ; `string'
PUBLIC	??_C@_0CA@HANJMBEA@?5?$DM?$DM?5SendPartyRemovePacket?5?3?5?$CFd?6@ ; `string'
PUBLIC	??_C@_0EM@FFPCCHJM@CPythonNetworkStream?3?3SendParty@ ; `string'
PUBLIC	??_C@_0CK@PHAHCCJC@?5?$DM?$DM?5SendPartySetStatePacket?5?3?5?$CF@ ; `string'
PUBLIC	??_C@_0EM@BMAFGIHC@CPythonNetworkStream?3?3SendParty@ ; `string'
PUBLIC	??_C@_0CG@GLODGHKD@?5?$DM?$DM?5SendPartyUseSkillPacket?5?3?5?$CF@ ; `string'
PUBLIC	??_C@_0EH@IOBBPNMN@CPythonNetworkStream?3?3SendParty@ ; `string'
PUBLIC	??_C@_0CD@LLPEDDBL@?5?$DM?$DM?5SendPartyParameterPacket?5?3?5@ ; `string'
PUBLIC	??_C@_0EO@GALKDEGO@?5CPythonNetworkStream?3?3RecvPart@ ; `string'
PUBLIC	??_C@_04JMLDJNEM@?$CIis?$CJ@			; `string'
PUBLIC	??_C@_0BI@FPJOLEHH@RecvPartyInviteQuestion@	; `string'
PUBLIC	??_C@_0BO@EBDJDNJB@?5?$DO?$DO?5RecvPartyInvite?5?3?5?$CFd?0?5?$CFs?6@ ; `string'
PUBLIC	??_C@_0P@JPKHKGNP@AddPartyMember@		; `string'
PUBLIC	??_C@_0BL@GPMBAKEI@?5?$DO?$DO?5RecvPartyAdd?5?3?5?$CFd?0?5?$CFs?6@ ; `string'
PUBLIC	??_C@_0BG@JOKFDABD@UpdatePartyMemberInfo@	; `string'
PUBLIC	??_C@_0BC@DGCJFOHN@RemovePartyMember@		; `string'
PUBLIC	??_C@_0BK@FHNAOGNK@?5?$DO?$DO?5RecvPartyRemove?5?3?5?$CFd?6@ ; `string'
PUBLIC	??_C@_0BA@JPJIDGOI@LinkPartyMember@		; `string'
PUBLIC	??_C@_0BM@FEBFPLO@?5?$DO?$DO?5RecvPartyLink?5?3?5?$CFd?0?5?$CFd?6@ ; `string'
PUBLIC	??_C@_0BF@KBCGJNOO@UnlinkAllPartyMember@	; `string'
PUBLIC	??_C@_0BC@EBBCCLIK@UnlinkPartyMember@		; `string'
PUBLIC	??_C@_0BO@JOBNIIPD@?5?$DO?$DO?5RecvPartyUnlink?5?3?5?$CFd?0?5?$CFd?6@ ; `string'
PUBLIC	??_C@_0BF@FFLEPOCB@ChangePartyParameter@	; `string'
PUBLIC	??_C@_0BN@HDHIECAG@?5?$DO?$DO?5RecvPartyParameter?5?3?5?$CFd?6@ ; `string'
PUBLIC	??_C@_0BL@GHDBPEKM@?5SendGuildAddMemberPacket?6@ ; `string'
PUBLIC	??_C@_0CB@OCJDCDKN@?5SendGuildRemoveMemberPacket?5?$CFd@ ; `string'
PUBLIC	??_C@_0CI@HCDCDOMK@?5SendGuildChangeGradeNamePacket@ ; `string'
PUBLIC	??_C@_0CN@ENAPGANL@?5SendGuildChangeGradeAuthorityP@ ; `string'
PUBLIC	??_C@_0BK@JBHNFCGO@?5SendGuildOfferPacket?5?$CFd?6@ ; `string'
PUBLIC	??_C@_0CE@ILONPNIK@?5SendGuildPostCommentPacket?5?$CFd?0@ ; `string'
PUBLIC	??_C@_0CC@HHBLBNGP@?5SendGuildDeleteCommentPacket?5?$CF@ ; `string'
PUBLIC	??_C@_0CD@DFFJJDFM@?5SendGuildRefreshCommentPacket?5@ ; `string'
PUBLIC	??_C@_0CK@NJDDFMMG@?5SendGuildChangeMemberGradePack@ ; `string'
PUBLIC	??_C@_0CB@HHLIHMFO@?5SendGuildUseSkillPacket?5?$CFd?0?5?$CFd@ ; `string'
PUBLIC	??_C@_0DA@BBFAPAKJ@?5SendGuildChangeMemberGeneralFl@ ; `string'
PUBLIC	??_C@_0CF@HPNCOLAE@?5SendGuildInviteAnswerPacket?5?$CFd@ ; `string'
PUBLIC	??_C@_0BO@DLDFHEKF@?5SendGuildChargeGSPPacket?5?$CFd?6@ ; `string'
PUBLIC	??_C@_0CB@OEPAEO@?5SendGuildDepositMoneyPacket?5?$CFd@ ; `string'
PUBLIC	??_C@_0CC@HBGAJKKF@?5SendGuildWithdrawMoneyPacket?5?$CF@ ; `string'
PUBLIC	??_C@_0M@JPGKCCFN@DeleteGuild@			; `string'
PUBLIC	??_C@_0O@EGDOPDJO@?5?$DMRemove?$DO?5?$CFd?6@	; `string'
PUBLIC	??_C@_0BC@MJKOOFCD@RefreshGuildGrade@		; `string'
PUBLIC	??_C@_0BN@JFJPHNLH@?5?$DMChange?5Grade?5Name?$DO?5?$CFd?0?5?$CFs?6@ ; `string'
PUBLIC	??_C@_0CC@KDHBOMAA@?5?$DMChange?5Grade?5Authority?$DO?5?$CFd?0?5?$CF@ ; `string'
PUBLIC	??_C@_0BF@GJIHEANJ@?5?$DMChangeEXP?$DO?5?$CFd?0?5?$CFd?6@ ; `string'
PUBLIC	??_C@_0BN@HEKKNAEA@?5?$DMChangeMemberGrade?$DO?5?$CFd?0?5?$CFd?6@ ; `string'
PUBLIC	??_C@_0BK@FEHNPJOD@?5?$DMSkillInfo?$DO?5?$CFd?5?1?5?$CFd?0?5?$CFd?6@ ; `string'
PUBLIC	??_C@_0CD@MPFPDEHG@?5?$DMChangeMemberGeneralFlag?$DO?5?$CFd?0?5@ ; `string'
PUBLIC	??_C@_0BI@GJGOAKHL@RecvGuildInviteQuestion@	; `string'
PUBLIC	??_C@_0BI@EECNELJB@?5?$DMGuild?5Invite?$DO?5?$CFd?0?5?$CFs?6@ ; `string'
PUBLIC	??_C@_0DF@PELONEKB@?5?$DO?$DO?5GUILD_SUBHEADER_GC_WAR?5?3?5GU@ ; `string'
PUBLIC	??_C@_0BO@HMPGICIO@BINARY_GuildWar_OnSendDeclare@ ; `string'
PUBLIC	??_C@_0DF@BIEEJDD@?5?$DO?$DO?5GUILD_SUBHEADER_GC_WAR?5?3?5GU@ ; `string'
PUBLIC	??_C@_0BO@JAJLCPKG@BINARY_GuildWar_OnRecvDeclare@ ; `string'
PUBLIC	??_C@_0DI@LOGKJDI@?5?$DO?$DO?5GUILD_SUBHEADER_GC_WAR?5?3?5GU@ ; `string'
PUBLIC	??_C@_0BI@JKFNHMFD@BINARY_GuildWar_OnStart@	; `string'
PUBLIC	??_C@_0CM@HGKOKFIL@?5?$DO?$DO?5GUILD_SUBHEADER_GC_WAR?5?3?5GU@ ; `string'
PUBLIC	??_C@_0BG@NACAFPAN@BINARY_GuildWar_OnEnd@	; `string'
PUBLIC	??_C@_0BN@PIMGMDLK@?5?$DO?$DO?5GulidWarList?5?$FL?$CFd?5vs?5?$CFd?$FN?6@ ; `string'
PUBLIC	??_C@_0CA@FNEJFGNL@?5?$DO?$DO?5GulidWarEndList?5?$FL?$CFd?5vs?5?$CFd?$FN?6@ ; `string'
PUBLIC	??_C@_05HEIOBLPG@?$CIiii?$CJ@			; `string'
PUBLIC	??_C@_0BM@LBOEDDLE@BINARY_GuildWar_OnRecvPoint@	; `string'
PUBLIC	??_C@_0BN@IAMOHDFF@?5?$DO?$DO?5Guild?5Money?5Change?5?3?5?$CFd?6@ ; `string'
PUBLIC	??_C@_0BB@CJFMLNJB@OnFishingFailure@		; `string'
PUBLIC	??_C@_0BH@DPEJLPAP@OnFishingNotifyUnknown@	; `string'
PUBLIC	??_C@_0BA@ODHDNEFK@OnFishingNotify@		; `string'
PUBLIC	??_C@_0BB@OABOAGML@OnFishingSuccess@		; `string'
PUBLIC	??_C@_0BN@BEOHMMCM@BINARY_PrivateShop_Disappear@ ; `string'
PUBLIC	??_C@_0BK@CKEFNKBC@BINARY_PrivateShop_Appear@	; `string'
PUBLIC	??_C@_06GAHGMLBJ@?$CIiiii?$CJ@			; `string'
PUBLIC	??_C@_0BB@CHHJLMHC@OpenRefineDialog@		; `string'
PUBLIC	??_C@_0BN@KLPAAKFJ@AppendMaterialToRefineDialog@ ; `string'
PUBLIC	??_C@_07FANHMMCA@?$CIiiiii?$CJ@			; `string'
PUBLIC	??_C@_0L@DJAIFHCH@1215955205@			; `string'
PUBLIC	??_C@_0BN@PKCCDLMA@SendClientReportPacket?5Error@ ; `string'
PUBLIC	??_C@_0BJ@FMBMECGE@Wed?5Sep?511?510?339?322?52013@ ; `string'
PUBLIC	??_C@_0BF@DEMCFMHM@BINARY_NEW_AddAffect@	; `string'
PUBLIC	??_C@_0BI@NIFEGIKP@BINARY_NEW_RemoveAffect@	; `string'
PUBLIC	??_C@_0BE@OLAMAMAK@OpenEquipmentDialog@		; `string'
PUBLIC	??_C@_0BH@DIEBEMHE@SetEquipmentDialogItem@	; `string'
PUBLIC	??_C@_0BJ@DBOCKHJF@SetEquipmentDialogSocket@	; `string'
PUBLIC	??_C@_0BH@NIIPMAGM@SetEquipmentDialogAttr@	; `string'
PUBLIC	??_C@_0BH@NJGJICND@BINARY_OpenAtlasWindow@	; `string'
PUBLIC	??_C@_04LCKGAMBB@?$CIsi?$CJ@			; `string'
PUBLIC	??_C@_0BB@EGDBDJKJ@BINARY_LoverInfo@		; `string'
PUBLIC	??_C@_0BH@KEGDJEJM@BINARY_UpdateLovePoint@	; `string'
PUBLIC	??_7?$CDynamicPoolEx@VCRotationDecorator@NEffectUpdateDecorator@@@@6B@ ; CDynamicPoolEx<NEffectUpdateDecorator::CRotationDecorator>::`vftable'
PUBLIC	??_7?$CDynamicPoolEx@VCGravityDecorator@NEffectUpdateDecorator@@@@6B@ ; CDynamicPoolEx<NEffectUpdateDecorator::CGravityDecorator>::`vftable'
PUBLIC	??_7?$CDynamicPoolEx@VCAirResistanceDecorator@NEffectUpdateDecorator@@@@6B@ ; CDynamicPoolEx<NEffectUpdateDecorator::CAirResistanceDecorator>::`vftable'
PUBLIC	??_7?$CDynamicPoolEx@VCTextureAnimationRandomDecorator@NEffectUpdateDecorator@@@@6B@ ; CDynamicPoolEx<NEffectUpdateDecorator::CTextureAnimationRandomDecorator>::`vftable'
PUBLIC	??_7?$CDynamicPoolEx@VCTextureAnimationCCWDecorator@NEffectUpdateDecorator@@@@6B@ ; CDynamicPoolEx<NEffectUpdateDecorator::CTextureAnimationCCWDecorator>::`vftable'
PUBLIC	??_7?$CDynamicPoolEx@VCTextureAnimationCWDecorator@NEffectUpdateDecorator@@@@6B@ ; CDynamicPoolEx<NEffectUpdateDecorator::CTextureAnimationCWDecorator>::`vftable'
PUBLIC	??_7?$CDynamicPoolEx@VCNullDecorator@NEffectUpdateDecorator@@@@6B@ ; CDynamicPoolEx<NEffectUpdateDecorator::CNullDecorator>::`vftable'
PUBLIC	??_7?$CDynamicPoolEx@VCHeaderDecorator@NEffectUpdateDecorator@@@@6B@ ; CDynamicPoolEx<NEffectUpdateDecorator::CHeaderDecorator>::`vftable'
PUBLIC	??_C@_0BC@KBDMBKEH@deque?$DMT?$DO?5too?5long@	; `string'
PUBLIC	??_R4?$CDynamicPoolEx@VCHeaderDecorator@NEffectUpdateDecorator@@@@6B@ ; CDynamicPoolEx<NEffectUpdateDecorator::CHeaderDecorator>::`RTTI Complete Object Locator'
PUBLIC	??_R0?AV?$CDynamicPoolEx@VCHeaderDecorator@NEffectUpdateDecorator@@@@@8 ; CDynamicPoolEx<NEffectUpdateDecorator::CHeaderDecorator> `RTTI Type Descriptor'
PUBLIC	??_R3?$CDynamicPoolEx@VCHeaderDecorator@NEffectUpdateDecorator@@@@8 ; CDynamicPoolEx<NEffectUpdateDecorator::CHeaderDecorator>::`RTTI Class Hierarchy Descriptor'
PUBLIC	??_R2?$CDynamicPoolEx@VCHeaderDecorator@NEffectUpdateDecorator@@@@8 ; CDynamicPoolEx<NEffectUpdateDecorator::CHeaderDecorator>::`RTTI Base Class Array'
PUBLIC	??_R1A@?0A@EA@?$CDynamicPoolEx@VCHeaderDecorator@NEffectUpdateDecorator@@@@8 ; CDynamicPoolEx<NEffectUpdateDecorator::CHeaderDecorator>::`RTTI Base Class Descriptor at (0,-1,0,64)'
PUBLIC	??_R4?$CDynamicPoolEx@VCNullDecorator@NEffectUpdateDecorator@@@@6B@ ; CDynamicPoolEx<NEffectUpdateDecorator::CNullDecorator>::`RTTI Complete Object Locator'
PUBLIC	??_R0?AV?$CDynamicPoolEx@VCNullDecorator@NEffectUpdateDecorator@@@@@8 ; CDynamicPoolEx<NEffectUpdateDecorator::CNullDecorator> `RTTI Type Descriptor'
PUBLIC	??_R3?$CDynamicPoolEx@VCNullDecorator@NEffectUpdateDecorator@@@@8 ; CDynamicPoolEx<NEffectUpdateDecorator::CNullDecorator>::`RTTI Class Hierarchy Descriptor'
PUBLIC	??_R2?$CDynamicPoolEx@VCNullDecorator@NEffectUpdateDecorator@@@@8 ; CDynamicPoolEx<NEffectUpdateDecorator::CNullDecorator>::`RTTI Base Class Array'
PUBLIC	??_R1A@?0A@EA@?$CDynamicPoolEx@VCNullDecorator@NEffectUpdateDecorator@@@@8 ; CDynamicPoolEx<NEffectUpdateDecorator::CNullDecorator>::`RTTI Base Class Descriptor at (0,-1,0,64)'
PUBLIC	??_R4?$CDynamicPoolEx@VCTextureAnimationCWDecorator@NEffectUpdateDecorator@@@@6B@ ; CDynamicPoolEx<NEffectUpdateDecorator::CTextureAnimationCWDecorator>::`RTTI Complete Object Locator'
PUBLIC	??_R0?AV?$CDynamicPoolEx@VCTextureAnimationCWDecorator@NEffectUpdateDecorator@@@@@8 ; CDynamicPoolEx<NEffectUpdateDecorator::CTextureAnimationCWDecorator> `RTTI Type Descriptor'
PUBLIC	??_R3?$CDynamicPoolEx@VCTextureAnimationCWDecorator@NEffectUpdateDecorator@@@@8 ; CDynamicPoolEx<NEffectUpdateDecorator::CTextureAnimationCWDecorator>::`RTTI Class Hierarchy Descriptor'
PUBLIC	??_R2?$CDynamicPoolEx@VCTextureAnimationCWDecorator@NEffectUpdateDecorator@@@@8 ; CDynamicPoolEx<NEffectUpdateDecorator::CTextureAnimationCWDecorator>::`RTTI Base Class Array'
PUBLIC	??_R1A@?0A@EA@?$CDynamicPoolEx@VCTextureAnimationCWDecorator@NEffectUpdateDecorator@@@@8 ; CDynamicPoolEx<NEffectUpdateDecorator::CTextureAnimationCWDecorator>::`RTTI Base Class Descriptor at (0,-1,0,64)'
PUBLIC	??_R4?$CDynamicPoolEx@VCTextureAnimationCCWDecorator@NEffectUpdateDecorator@@@@6B@ ; CDynamicPoolEx<NEffectUpdateDecorator::CTextureAnimationCCWDecorator>::`RTTI Complete Object Locator'
PUBLIC	??_R0?AV?$CDynamicPoolEx@VCTextureAnimationCCWDecorator@NEffectUpdateDecorator@@@@@8 ; CDynamicPoolEx<NEffectUpdateDecorator::CTextureAnimationCCWDecorator> `RTTI Type Descriptor'
PUBLIC	??_R3?$CDynamicPoolEx@VCTextureAnimationCCWDecorator@NEffectUpdateDecorator@@@@8 ; CDynamicPoolEx<NEffectUpdateDecorator::CTextureAnimationCCWDecorator>::`RTTI Class Hierarchy Descriptor'
PUBLIC	??_R2?$CDynamicPoolEx@VCTextureAnimationCCWDecorator@NEffectUpdateDecorator@@@@8 ; CDynamicPoolEx<NEffectUpdateDecorator::CTextureAnimationCCWDecorator>::`RTTI Base Class Array'
PUBLIC	??_R1A@?0A@EA@?$CDynamicPoolEx@VCTextureAnimationCCWDecorator@NEffectUpdateDecorator@@@@8 ; CDynamicPoolEx<NEffectUpdateDecorator::CTextureAnimationCCWDecorator>::`RTTI Base Class Descriptor at (0,-1,0,64)'
PUBLIC	??_R4?$CDynamicPoolEx@VCTextureAnimationRandomDecorator@NEffectUpdateDecorator@@@@6B@ ; CDynamicPoolEx<NEffectUpdateDecorator::CTextureAnimationRandomDecorator>::`RTTI Complete Object Locator'
PUBLIC	??_R0?AV?$CDynamicPoolEx@VCTextureAnimationRandomDecorator@NEffectUpdateDecorator@@@@@8 ; CDynamicPoolEx<NEffectUpdateDecorator::CTextureAnimationRandomDecorator> `RTTI Type Descriptor'
PUBLIC	??_R3?$CDynamicPoolEx@VCTextureAnimationRandomDecorator@NEffectUpdateDecorator@@@@8 ; CDynamicPoolEx<NEffectUpdateDecorator::CTextureAnimationRandomDecorator>::`RTTI Class Hierarchy Descriptor'
PUBLIC	??_R2?$CDynamicPoolEx@VCTextureAnimationRandomDecorator@NEffectUpdateDecorator@@@@8 ; CDynamicPoolEx<NEffectUpdateDecorator::CTextureAnimationRandomDecorator>::`RTTI Base Class Array'
PUBLIC	??_R1A@?0A@EA@?$CDynamicPoolEx@VCTextureAnimationRandomDecorator@NEffectUpdateDecorator@@@@8 ; CDynamicPoolEx<NEffectUpdateDecorator::CTextureAnimationRandomDecorator>::`RTTI Base Class Descriptor at (0,-1,0,64)'
PUBLIC	??_R4?$CDynamicPoolEx@VCAirResistanceDecorator@NEffectUpdateDecorator@@@@6B@ ; CDynamicPoolEx<NEffectUpdateDecorator::CAirResistanceDecorator>::`RTTI Complete Object Locator'
PUBLIC	??_R0?AV?$CDynamicPoolEx@VCAirResistanceDecorator@NEffectUpdateDecorator@@@@@8 ; CDynamicPoolEx<NEffectUpdateDecorator::CAirResistanceDecorator> `RTTI Type Descriptor'
PUBLIC	??_R3?$CDynamicPoolEx@VCAirResistanceDecorator@NEffectUpdateDecorator@@@@8 ; CDynamicPoolEx<NEffectUpdateDecorator::CAirResistanceDecorator>::`RTTI Class Hierarchy Descriptor'
PUBLIC	??_R2?$CDynamicPoolEx@VCAirResistanceDecorator@NEffectUpdateDecorator@@@@8 ; CDynamicPoolEx<NEffectUpdateDecorator::CAirResistanceDecorator>::`RTTI Base Class Array'
PUBLIC	??_R1A@?0A@EA@?$CDynamicPoolEx@VCAirResistanceDecorator@NEffectUpdateDecorator@@@@8 ; CDynamicPoolEx<NEffectUpdateDecorator::CAirResistanceDecorator>::`RTTI Base Class Descriptor at (0,-1,0,64)'
PUBLIC	??_R4?$CDynamicPoolEx@VCGravityDecorator@NEffectUpdateDecorator@@@@6B@ ; CDynamicPoolEx<NEffectUpdateDecorator::CGravityDecorator>::`RTTI Complete Object Locator'
PUBLIC	??_R0?AV?$CDynamicPoolEx@VCGravityDecorator@NEffectUpdateDecorator@@@@@8 ; CDynamicPoolEx<NEffectUpdateDecorator::CGravityDecorator> `RTTI Type Descriptor'
PUBLIC	??_R3?$CDynamicPoolEx@VCGravityDecorator@NEffectUpdateDecorator@@@@8 ; CDynamicPoolEx<NEffectUpdateDecorator::CGravityDecorator>::`RTTI Class Hierarchy Descriptor'
PUBLIC	??_R2?$CDynamicPoolEx@VCGravityDecorator@NEffectUpdateDecorator@@@@8 ; CDynamicPoolEx<NEffectUpdateDecorator::CGravityDecorator>::`RTTI Base Class Array'
PUBLIC	??_R1A@?0A@EA@?$CDynamicPoolEx@VCGravityDecorator@NEffectUpdateDecorator@@@@8 ; CDynamicPoolEx<NEffectUpdateDecorator::CGravityDecorator>::`RTTI Base Class Descriptor at (0,-1,0,64)'
PUBLIC	??_R4?$CDynamicPoolEx@VCRotationDecorator@NEffectUpdateDecorator@@@@6B@ ; CDynamicPoolEx<NEffectUpdateDecorator::CRotationDecorator>::`RTTI Complete Object Locator'
PUBLIC	??_R0?AV?$CDynamicPoolEx@VCRotationDecorator@NEffectUpdateDecorator@@@@@8 ; CDynamicPoolEx<NEffectUpdateDecorator::CRotationDecorator> `RTTI Type Descriptor'
PUBLIC	??_R3?$CDynamicPoolEx@VCRotationDecorator@NEffectUpdateDecorator@@@@8 ; CDynamicPoolEx<NEffectUpdateDecorator::CRotationDecorator>::`RTTI Class Hierarchy Descriptor'
PUBLIC	??_R2?$CDynamicPoolEx@VCRotationDecorator@NEffectUpdateDecorator@@@@8 ; CDynamicPoolEx<NEffectUpdateDecorator::CRotationDecorator>::`RTTI Base Class Array'
PUBLIC	??_R1A@?0A@EA@?$CDynamicPoolEx@VCRotationDecorator@NEffectUpdateDecorator@@@@8 ; CDynamicPoolEx<NEffectUpdateDecorator::CRotationDecorator>::`RTTI Base Class Descriptor at (0,-1,0,64)'
PUBLIC	__real@3dcccccd
PUBLIC	__real@3f800000
PUBLIC	__real@40a00000
PUBLIC	__real@42700000
PUBLIC	__real@42c80000
PUBLIC	__real@43b40000
EXTRN	??2@YAPAXI@Z:PROC				; operator new
EXTRN	??3@YAXPAX@Z:PROC				; operator delete
EXTRN	??3@YAXPAXI@Z:PROC				; operator delete
EXTRN	_atexit:PROC
EXTRN	___report_rangecheckfailure:PROC
EXTRN	__Init_thread_header:PROC
EXTRN	__Init_thread_abort:PROC
EXTRN	__Init_thread_footer:PROC
EXTRN	__invalid_parameter_noinfo_noreturn:PROC
EXTRN	_memcmp:PROC
EXTRN	_memcpy:PROC
EXTRN	_memmove:PROC
EXTRN	_memset:PROC
EXTRN	_strchr:PROC
EXTRN	_strstr:PROC
EXTRN	_strcmp:PROC
EXTRN	_strcpy:PROC
EXTRN	_strlen:PROC
EXTRN	_strncmp:PROC
EXTRN	_strncpy:PROC
EXTRN	_fmod:PROC
EXTRN	__imp__timeGetTime@0:PROC
EXTRN	___stdio_common_vsprintf:PROC
EXTRN	___std_exception_copy:PROC
EXTRN	___std_exception_destroy:PROC
EXTRN	??_Eexception@std@@UAEPAXI@Z:PROC		; std::exception::`vector deleting destructor'
EXTRN	??_Ebad_alloc@std@@UAEPAXI@Z:PROC		; std::bad_alloc::`vector deleting destructor'
EXTRN	??_Ebad_array_new_length@std@@UAEPAXI@Z:PROC	; std::bad_array_new_length::`vector deleting destructor'
EXTRN	?_Xlength_error@std@@YAXPBD@Z:PROC		; std::_Xlength_error
EXTRN	?_Xout_of_range@std@@YAXPBD@Z:PROC		; std::_Xout_of_range
EXTRN	?Tracen@@YAXPBD@Z:PROC				; Tracen
EXTRN	?Tracenf@@YAXPBDZZ:PROC				; Tracenf
EXTRN	?Tracef@@YAXPBDZZ:PROC				; Tracef
EXTRN	?TraceError@@YAXPBDZZ:PROC			; TraceError
EXTRN	?GetExcutedFileName@@YAXAAV?$basic_string@DU?$char_traits@D@std@@V?$allocator@D@2@@std@@@Z:PROC ; GetExcutedFileName
EXTRN	__imp__Py_BuildValue:PROC
EXTRN	?PyCallClassMemberFunc@@YA_NPAU_object@@PBD0@Z:PROC ; PyCallClassMemberFunc
EXTRN	?ELTimer_GetMSec@@YAKXZ:PROC			; ELTimer_GetMSec
EXTRN	?ELTimer_GetServerMSec@@YAKXZ:PROC		; ELTimer_GetServerMSec
EXTRN	?GetDefaultCodePage@@YAKXZ:PROC			; GetDefaultCodePage
EXTRN	?LocaleService_IsYMIR@@YA_NXZ:PROC		; LocaleService_IsYMIR
EXTRN	?LocaleService_IsEUROPE@@YA_NXZ:PROC		; LocaleService_IsEUROPE
EXTRN	?GetName@CItemData@@QBEPBDXZ:PROC		; CItemData::GetName
EXTRN	?GetType@CItemData@@QBEEXZ:PROC			; CItemData::GetType
EXTRN	?GetRecvBufferSize@CNetworkStream@@QAEHXZ:PROC	; CNetworkStream::GetRecvBufferSize
EXTRN	?Connect@CNetworkStream@@QAE_NKHH@Z:PROC	; CNetworkStream::Connect
EXTRN	?Peek@CNetworkStream@@QAE_NH@Z:PROC		; CNetworkStream::Peek
EXTRN	?Recv@CNetworkStream@@QAE_NH@Z:PROC		; CNetworkStream::Recv
EXTRN	?Recv@CNetworkStream@@QAE_NHPAD@Z:PROC		; CNetworkStream::Recv
EXTRN	?Send@CNetworkStream@@QAE_NHPBD@Z:PROC		; CNetworkStream::Send
EXTRN	?Peek@CNetworkStream@@QAE_NHPAX@Z:PROC		; CNetworkStream::Peek
EXTRN	?Recv@CNetworkStream@@QAE_NHPAX@Z:PROC		; CNetworkStream::Recv
EXTRN	?Send@CNetworkStream@@QAE_NHPBX@Z:PROC		; CNetworkStream::Send
EXTRN	?SendSequence@CNetworkStream@@QAE_NXZ:PROC	; CNetworkStream::SendSequence
EXTRN	?ClientCommand@CPythonNetworkStream@@QAE_NPBD@Z:PROC ; CPythonNetworkStream::ClientCommand
EXTRN	?ServerCommand@CPythonNetworkStream@@QAEXPAD@Z:PROC ; CPythonNetworkStream::ServerCommand
EXTRN	?RecvMallOpenPacket@CPythonNetworkStream@@QAE_NXZ:PROC ; CPythonNetworkStream::RecvMallOpenPacket
EXTRN	?RecvMallItemSetPacket@CPythonNetworkStream@@QAE_NXZ:PROC ; CPythonNetworkStream::RecvMallItemSetPacket
EXTRN	?RecvMallItemDelPacket@CPythonNetworkStream@@QAE_NXZ:PROC ; CPythonNetworkStream::RecvMallItemDelPacket
EXTRN	?RecvHandshakePacket@CPythonNetworkStream@@QAE_NXZ:PROC ; CPythonNetworkStream::RecvHandshakePacket
EXTRN	?RecvHandshakeOKPacket@CPythonNetworkStream@@QAE_NXZ:PROC ; CPythonNetworkStream::RecvHandshakeOKPacket
EXTRN	?RecvHybridCryptKeyPacket@CPythonNetworkStream@@QAE_NXZ:PROC ; CPythonNetworkStream::RecvHybridCryptKeyPacket
EXTRN	?RecvHybridCryptSDBPacket@CPythonNetworkStream@@QAE_NXZ:PROC ; CPythonNetworkStream::RecvHybridCryptSDBPacket
EXTRN	?RecvKeyAgreementPacket@CPythonNetworkStream@@QAE_NXZ:PROC ; CPythonNetworkStream::RecvKeyAgreementPacket
EXTRN	?RecvKeyAgreementCompletedPacket@CPythonNetworkStream@@QAE_NXZ:PROC ; CPythonNetworkStream::RecvKeyAgreementCompletedPacket
EXTRN	?GetMainActorVID@CPythonNetworkStream@@QAEKXZ:PROC ; CPythonNetworkStream::GetMainActorVID
EXTRN	?__DownloadSymbol@CPythonNetworkStream@@IAEXABV?$vector@KV?$allocator@K@std@@@std@@@Z:PROC ; CPythonNetworkStream::__DownloadSymbol
EXTRN	?__CanActMainInstance@CPythonNetworkStream@@IAE_NXZ:PROC ; CPythonNetworkStream::__CanActMainInstance
EXTRN	?RecvErrorPacket@CPythonNetworkStream@@IAE_NH@Z:PROC ; CPythonNetworkStream::RecvErrorPacket
EXTRN	?RecvPingPacket@CPythonNetworkStream@@IAE_NXZ:PROC ; CPythonNetworkStream::RecvPingPacket
EXTRN	?RecvDefaultPacket@CPythonNetworkStream@@IAE_NH@Z:PROC ; CPythonNetworkStream::RecvDefaultPacket
EXTRN	?RecvPhasePacket@CPythonNetworkStream@@IAE_NXZ:PROC ; CPythonNetworkStream::RecvPhasePacket
EXTRN	?__RecvPlayerPoints@CPythonNetworkStream@@IAE_NXZ:PROC ; CPythonNetworkStream::__RecvPlayerPoints
EXTRN	?RecvCharacterAppendPacket@CPythonNetworkStream@@IAE_NXZ:PROC ; CPythonNetworkStream::RecvCharacterAppendPacket
EXTRN	?RecvCharacterAdditionalInfo@CPythonNetworkStream@@IAE_NXZ:PROC ; CPythonNetworkStream::RecvCharacterAdditionalInfo
EXTRN	?RecvCharacterAppendPacketNew@CPythonNetworkStream@@IAE_NXZ:PROC ; CPythonNetworkStream::RecvCharacterAppendPacketNew
EXTRN	?RecvCharacterUpdatePacket@CPythonNetworkStream@@IAE_NXZ:PROC ; CPythonNetworkStream::RecvCharacterUpdatePacket
EXTRN	?RecvCharacterUpdatePacketNew@CPythonNetworkStream@@IAE_NXZ:PROC ; CPythonNetworkStream::RecvCharacterUpdatePacketNew
EXTRN	?RecvCharacterDeletePacket@CPythonNetworkStream@@IAE_NXZ:PROC ; CPythonNetworkStream::RecvCharacterDeletePacket
EXTRN	?RecvOwnerShipPacket@CPythonNetworkStream@@IAE_NXZ:PROC ; CPythonNetworkStream::RecvOwnerShipPacket
EXTRN	?RecvSyncPositionPacket@CPythonNetworkStream@@IAE_NXZ:PROC ; CPythonNetworkStream::RecvSyncPositionPacket
EXTRN	?RecvCharacterMovePacket@CPythonNetworkStream@@IAE_NXZ:PROC ; CPythonNetworkStream::RecvCharacterMovePacket
EXTRN	?RecvItemSetPacket@CPythonNetworkStream@@IAE_NXZ:PROC ; CPythonNetworkStream::RecvItemSetPacket
EXTRN	?RecvItemSetPacket2@CPythonNetworkStream@@IAE_NXZ:PROC ; CPythonNetworkStream::RecvItemSetPacket2
EXTRN	?RecvItemUsePacket@CPythonNetworkStream@@IAE_NXZ:PROC ; CPythonNetworkStream::RecvItemUsePacket
EXTRN	?RecvItemUpdatePacket@CPythonNetworkStream@@IAE_NXZ:PROC ; CPythonNetworkStream::RecvItemUpdatePacket
EXTRN	?RecvItemGroundAddPacket@CPythonNetworkStream@@IAE_NXZ:PROC ; CPythonNetworkStream::RecvItemGroundAddPacket
EXTRN	?RecvItemGroundDelPacket@CPythonNetworkStream@@IAE_NXZ:PROC ; CPythonNetworkStream::RecvItemGroundDelPacket
EXTRN	?RecvItemOwnership@CPythonNetworkStream@@IAE_NXZ:PROC ; CPythonNetworkStream::RecvItemOwnership
EXTRN	?RecvQuickSlotAddPacket@CPythonNetworkStream@@IAE_NXZ:PROC ; CPythonNetworkStream::RecvQuickSlotAddPacket
EXTRN	?RecvQuickSlotDelPacket@CPythonNetworkStream@@IAE_NXZ:PROC ; CPythonNetworkStream::RecvQuickSlotDelPacket
EXTRN	?RecvQuickSlotMovePacket@CPythonNetworkStream@@IAE_NXZ:PROC ; CPythonNetworkStream::RecvQuickSlotMovePacket
EXTRN	?RecvSafeBoxSetPacket@CPythonNetworkStream@@IAE_NXZ:PROC ; CPythonNetworkStream::RecvSafeBoxSetPacket
EXTRN	?RecvSafeBoxDelPacket@CPythonNetworkStream@@IAE_NXZ:PROC ; CPythonNetworkStream::RecvSafeBoxDelPacket
EXTRN	?RecvSafeBoxWrongPasswordPacket@CPythonNetworkStream@@IAE_NXZ:PROC ; CPythonNetworkStream::RecvSafeBoxWrongPasswordPacket
EXTRN	?RecvSafeBoxSizePacket@CPythonNetworkStream@@IAE_NXZ:PROC ; CPythonNetworkStream::RecvSafeBoxSizePacket
EXTRN	?RecvSafeBoxMoneyChangePacket@CPythonNetworkStream@@IAE_NXZ:PROC ; CPythonNetworkStream::RecvSafeBoxMoneyChangePacket
EXTRN	?RecvSpecialEffect@CPythonNetworkStream@@IAE_NXZ:PROC ; CPythonNetworkStream::RecvSpecialEffect
EXTRN	?RecvSpecificEffect@CPythonNetworkStream@@IAE_NXZ:PROC ; CPythonNetworkStream::RecvSpecificEffect
EXTRN	?RecvDragonSoulRefine@CPythonNetworkStream@@IAE_NXZ:PROC ; CPythonNetworkStream::RecvDragonSoulRefine
EXTRN	?RecvHSCheckRequest@CPythonNetworkStream@@IAE_NXZ:PROC ; CPythonNetworkStream::RecvHSCheckRequest
EXTRN	?RecvXTrapVerifyRequest@CPythonNetworkStream@@IAE_NXZ:PROC ; CPythonNetworkStream::RecvXTrapVerifyRequest
EXTRN	?OnScriptEventStart@CPythonNetworkStream@@IAEXHH@Z:PROC ; CPythonNetworkStream::OnScriptEventStart
EXTRN	?CheckPacket@CPythonNetworkStream@@IAE_NPAE@Z:PROC ; CPythonNetworkStream::CheckPacket
EXTRN	?__GlobalPositionToLocalPosition@CPythonNetworkStream@@IAEXAAJ0@Z:PROC ; CPythonNetworkStream::__GlobalPositionToLocalPosition
EXTRN	?__LocalPositionToGlobalPosition@CPythonNetworkStream@@IAEXAAJ0@Z:PROC ; CPythonNetworkStream::__LocalPositionToGlobalPosition
EXTRN	?__ClearNetworkActorManager@CPythonNetworkStream@@IAEXXZ:PROC ; CPythonNetworkStream::__ClearNetworkActorManager
EXTRN	?__FilterInsult@CPythonNetworkStream@@IAEXPADI@Z:PROC ; CPythonNetworkStream::__FilterInsult
EXTRN	?__ServerTimeSync_Initialize@CPythonNetworkStream@@IAEXXZ:PROC ; CPythonNetworkStream::__ServerTimeSync_Initialize
EXTRN	?__DirectEnterMode_Set@CPythonNetworkStream@@AAEXI@Z:PROC ; CPythonNetworkStream::__DirectEnterMode_Set
EXTRN	?Destroy@CPythonGuild@@QAEXXZ:PROC		; CPythonGuild::Destroy
EXTRN	?EnableGuild@CPythonGuild@@QAEXXZ:PROC		; CPythonGuild::EnableGuild
EXTRN	?SetGuildMoney@CPythonGuild@@QAEXK@Z:PROC	; CPythonGuild::SetGuildMoney
EXTRN	?SetGuildEXP@CPythonGuild@@QAEXEK@Z:PROC	; CPythonGuild::SetGuildEXP
EXTRN	?SetGradeData@CPythonGuild@@QAEXEAAUSGuildGradeData@1@@Z:PROC ; CPythonGuild::SetGradeData
EXTRN	?SetGradeName@CPythonGuild@@QAEXEPBD@Z:PROC	; CPythonGuild::SetGradeName
EXTRN	?SetGradeAuthority@CPythonGuild@@QAEXEE@Z:PROC	; CPythonGuild::SetGradeAuthority
EXTRN	?ClearComment@CPythonGuild@@QAEXXZ:PROC		; CPythonGuild::ClearComment
EXTRN	?RegisterComment@CPythonGuild@@QAEXKPBD0@Z:PROC	; CPythonGuild::RegisterComment
EXTRN	?RegisterMember@CPythonGuild@@QAEXAAUSGuildMemberData@1@@Z:PROC ; CPythonGuild::RegisterMember
EXTRN	?ChangeGuildMemberGrade@CPythonGuild@@QAEXKE@Z:PROC ; CPythonGuild::ChangeGuildMemberGrade
EXTRN	?ChangeGuildMemberGeneralFlag@CPythonGuild@@QAEXKE@Z:PROC ; CPythonGuild::ChangeGuildMemberGeneralFlag
EXTRN	?RemoveMember@CPythonGuild@@QAEXK@Z:PROC	; CPythonGuild::RemoveMember
EXTRN	?RegisterGuildName@CPythonGuild@@QAEXKPBD@Z:PROC ; CPythonGuild::RegisterGuildName
EXTRN	?IsMainPlayer@CPythonGuild@@QAEHK@Z:PROC	; CPythonGuild::IsMainPlayer
EXTRN	?GetGuildInfoRef@CPythonGuild@@QAEAAUSGulidInfo@1@XZ:PROC ; CPythonGuild::GetGuildInfoRef
EXTRN	?GetMemberDataPtrByPID@CPythonGuild@@QAEHKPAPAUSGuildMemberData@1@@Z:PROC ; CPythonGuild::GetMemberDataPtrByPID
EXTRN	?GetGuildSkillDataRef@CPythonGuild@@QAEAAUSGuildSkillData@1@XZ:PROC ; CPythonGuild::GetGuildSkillDataRef
EXTRN	?GetGuildName@CPythonGuild@@QAE_NKPAV?$basic_string@DU?$char_traits@D@std@@V?$allocator@D@2@@std@@@Z:PROC ; CPythonGuild::GetGuildName
EXTRN	?StartGuildWar@CPythonGuild@@QAEXK@Z:PROC	; CPythonGuild::StartGuildWar
EXTRN	?EndGuildWar@CPythonGuild@@QAEXK@Z:PROC		; CPythonGuild::EndGuildWar
EXTRN	??0CFlyTarget@@QAE@PAVIFlyTargetableObject@@@Z:PROC ; CFlyTarget::CFlyTarget
EXTRN	??0CFlyTarget@@QAE@ABUD3DXVECTOR3@@@Z:PROC	; CFlyTarget::CFlyTarget
EXTRN	??1CFlyTarget@@UAE@XZ:PROC			; CFlyTarget::~CFlyTarget
EXTRN	?CreateIndexedFly@CFlyingManager@@QAEXKPAVCActorInstance@@0@Z:PROC ; CFlyingManager::CreateIndexedFly
EXTRN	?AddFlyTarget@CActorInstance@@QAEXABVCFlyTarget@@@Z:PROC ; CActorInstance::AddFlyTarget
EXTRN	?SetFlyTarget@CActorInstance@@QAEXABVCFlyTarget@@@Z:PROC ; CActorInstance::SetFlyTarget
EXTRN	?GetNameString@CInstanceBase@@QAEPBDXZ:PROC	; CInstanceBase::GetNameString
EXTRN	?GetVirtualID@CInstanceBase@@QAEKXZ:PROC	; CInstanceBase::GetVirtualID
EXTRN	?GetEmpireID@CInstanceBase@@QAEKXZ:PROC		; CInstanceBase::GetEmpireID
EXTRN	?GetGuildID@CInstanceBase@@QAEKXZ:PROC		; CInstanceBase::GetGuildID
EXTRN	?Stun@CInstanceBase@@QAEXXZ:PROC		; CInstanceBase::Stun
EXTRN	?Die@CInstanceBase@@QAEXXZ:PROC			; CInstanceBase::Die
EXTRN	?CanViewTargetHP@CInstanceBase@@QAE_NAAV1@@Z:PROC ; CInstanceBase::CanViewTargetHP
EXTRN	?SetRunMode@CInstanceBase@@QAEXXZ:PROC		; CInstanceBase::SetRunMode
EXTRN	?SetWalkMode@CInstanceBase@@QAEXXZ:PROC		; CInstanceBase::SetWalkMode
EXTRN	?IsSameEmpire@CInstanceBase@@QAEHAAV1@@Z:PROC	; CInstanceBase::IsSameEmpire
EXTRN	?IsFishing@CInstanceBase@@QAEHXZ:PROC		; CInstanceBase::IsFishing
EXTRN	?IsEnemy@CInstanceBase@@QAEHXZ:PROC		; CInstanceBase::IsEnemy
EXTRN	?IsNPC@CInstanceBase@@QAEHXZ:PROC		; CInstanceBase::IsNPC
EXTRN	?IsPC@CInstanceBase@@QAEHXZ:PROC		; CInstanceBase::IsPC
EXTRN	?IsBuilding@CInstanceBase@@QAEHXZ:PROC		; CInstanceBase::IsBuilding
EXTRN	?IsDead@CInstanceBase@@QAEHXZ:PROC		; CInstanceBase::IsDead
EXTRN	?IsAttacking@CInstanceBase@@QAEHXZ:PROC		; CInstanceBase::IsAttacking
EXTRN	?StartFishing@CInstanceBase@@QAEXM@Z:PROC	; CInstanceBase::StartFishing
EXTRN	?StopFishing@CInstanceBase@@QAEXXZ:PROC		; CInstanceBase::StopFishing
EXTRN	?ReactFishing@CInstanceBase@@QAEXXZ:PROC	; CInstanceBase::ReactFishing
EXTRN	?CatchSuccess@CInstanceBase@@QAEXXZ:PROC	; CInstanceBase::CatchSuccess
EXTRN	?CatchFail@CInstanceBase@@QAEXXZ:PROC		; CInstanceBase::CatchFail
EXTRN	?NEW_LookAtDestInstance@CInstanceBase@@QAEXAAV1@@Z:PROC ; CInstanceBase::NEW_LookAtDestInstance
EXTRN	?PushOnceMotion@CInstanceBase@@QAEXGMM@Z:PROC	; CInstanceBase::PushOnceMotion
EXTRN	?GetGraphicThingInstancePtr@CInstanceBase@@QAEPAVCActorInstance@@XZ:PROC ; CInstanceBase::GetGraphicThingInstancePtr
EXTRN	?SetEmoticon@CInstanceBase@@QAEXI@Z:PROC	; CInstanceBase::SetEmoticon
EXTRN	?SetFishEmoticon@CInstanceBase@@QAEXXZ:PROC	; CInstanceBase::SetFishEmoticon
EXTRN	?AddDamageEffect@CInstanceBase@@QAEXKEHH@Z:PROC	; CInstanceBase::AddDamageEffect
EXTRN	?ClearPVPKeySystem@CInstanceBase@@SAXXZ:PROC	; CInstanceBase::ClearPVPKeySystem
EXTRN	?InsertGVGKey@CInstanceBase@@SAXKK@Z:PROC	; CInstanceBase::InsertGVGKey
EXTRN	?RemoveGVGKey@CInstanceBase@@SAXKK@Z:PROC	; CInstanceBase::RemoveGVGKey
EXTRN	?InsertDUELKey@CInstanceBase@@SAXKK@Z:PROC	; CInstanceBase::InsertDUELKey
EXTRN	?GetDuelMode@CInstanceBase@@QAEKXZ:PROC		; CInstanceBase::GetDuelMode
EXTRN	?SetDuelMode@CInstanceBase@@QAEXK@Z:PROC	; CInstanceBase::SetDuelMode
EXTRN	?InsertPVPKey@CPythonCharacterManager@@QAEXKK@Z:PROC ; CPythonCharacterManager::InsertPVPKey
EXTRN	?RemovePVPKey@CPythonCharacterManager@@QAEXKK@Z:PROC ; CPythonCharacterManager::RemovePVPKey
EXTRN	?ChangeGVG@CPythonCharacterManager@@QAEXKK@Z:PROC ; CPythonCharacterManager::ChangeGVG
EXTRN	?GetMainInstancePtr@CPythonCharacterManager@@QAEPAVCInstanceBase@@XZ:PROC ; CPythonCharacterManager::GetMainInstancePtr
EXTRN	?ShowPointEffect@CPythonCharacterManager@@QAEXKK@Z:PROC ; CPythonCharacterManager::ShowPointEffect
EXTRN	?RefreshAllPCTextTail@CPythonCharacterManager@@QAEXXZ:PROC ; CPythonCharacterManager::RefreshAllPCTextTail
EXTRN	?SetDungeonDestinationPosition@CPythonPlayer@@QAEXHH@Z:PROC ; CPythonPlayer::SetDungeonDestinationPosition
EXTRN	?NEW_ClearSkillData@CPythonPlayer@@QAEX_N@Z:PROC ; CPythonPlayer::NEW_ClearSkillData
EXTRN	?NotifyDeadMainCharacter@CPythonPlayer@@QAEXXZ:PROC ; CPythonPlayer::NotifyDeadMainCharacter
EXTRN	?SetStatus@CPythonPlayer@@QAEXKJ@Z:PROC		; CPythonPlayer::SetStatus
EXTRN	?SetSkill@CPythonPlayer@@QAEXKK@Z:PROC		; CPythonPlayer::SetSkill
EXTRN	?GetSkillSlotIndex@CPythonPlayer@@QAE_NKPAK@Z:PROC ; CPythonPlayer::GetSkillSlotIndex
EXTRN	?SetSkillLevel@CPythonPlayer@@QAEXKK@Z:PROC	; CPythonPlayer::SetSkillLevel
EXTRN	?SetSkillLevel_@CPythonPlayer@@QAEXKKK@Z:PROC	; CPythonPlayer::SetSkillLevel_
EXTRN	?EndSkillCoolTime@CPythonPlayer@@QAEXK@Z:PROC	; CPythonPlayer::EndSkillCoolTime
EXTRN	?AppendPartyMember@CPythonPlayer@@QAEXKPBD@Z:PROC ; CPythonPlayer::AppendPartyMember
EXTRN	?LinkPartyMember@CPythonPlayer@@QAEXKK@Z:PROC	; CPythonPlayer::LinkPartyMember
EXTRN	?UnlinkPartyMember@CPythonPlayer@@QAEXK@Z:PROC	; CPythonPlayer::UnlinkPartyMember
EXTRN	?UpdatePartyMemberInfo@CPythonPlayer@@QAEXKEE@Z:PROC ; CPythonPlayer::UpdatePartyMemberInfo
EXTRN	?UpdatePartyMemberAffect@CPythonPlayer@@QAEXKEF@Z:PROC ; CPythonPlayer::UpdatePartyMemberAffect
EXTRN	?GetPartyMemberPtr@CPythonPlayer@@QAE_NKPAPAUSPartyMemberInfo@1@@Z:PROC ; CPythonPlayer::GetPartyMemberPtr
EXTRN	?PartyMemberPIDToVID@CPythonPlayer@@QAE_NKPAK@Z:PROC ; CPythonPlayer::PartyMemberPIDToVID
EXTRN	?RememberChallengeInstance@CPythonPlayer@@QAEXK@Z:PROC ; CPythonPlayer::RememberChallengeInstance
EXTRN	?RememberRevengeInstance@CPythonPlayer@@QAEXK@Z:PROC ; CPythonPlayer::RememberRevengeInstance
EXTRN	?RememberCantFightInstance@CPythonPlayer@@QAEXK@Z:PROC ; CPythonPlayer::RememberCantFightInstance
EXTRN	?ForgetInstance@CPythonPlayer@@QAEXK@Z:PROC	; CPythonPlayer::ForgetInstance
EXTRN	?OpenPrivateShop@CPythonPlayer@@QAEXXZ:PROC	; CPythonPlayer::OpenPrivateShop
EXTRN	?ClosePrivateShop@CPythonPlayer@@QAEXXZ:PROC	; CPythonPlayer::ClosePrivateShop
EXTRN	?GetHeight@CMapManager@@QAEMMM@Z:PROC		; CMapManager::GetHeight
EXTRN	?Destroy@CPythonBackground@@QAEXXZ:PROC		; CPythonBackground::Destroy
EXTRN	?Create@CPythonBackground@@QAEXXZ:PROC		; CPythonBackground::Create
EXTRN	?RefreshShadowLevel@CPythonBackground@@QAEXXZ:PROC ; CPythonBackground::RefreshShadowLevel
EXTRN	?ClearGuildArea@CPythonBackground@@QAEXXZ:PROC	; CPythonBackground::ClearGuildArea
EXTRN	?RegisterGuildArea@CPythonBackground@@QAEXHHHH@Z:PROC ; CPythonBackground::RegisterGuildArea
EXTRN	?CreateTargetEffect@CPythonBackground@@QAEXKK@Z:PROC ; CPythonBackground::CreateTargetEffect
EXTRN	?CreateTargetEffect@CPythonBackground@@QAEXKJJ@Z:PROC ; CPythonBackground::CreateTargetEffect
EXTRN	?DeleteTargetEffect@CPythonBackground@@QAEXK@Z:PROC ; CPythonBackground::DeleteTargetEffect
EXTRN	?Warp@CPythonBackground@@QAEXKK@Z:PROC		; CPythonBackground::Warp
EXTRN	?GetWarpMapName@CPythonBackground@@QAEPBDXZ:PROC ; CPythonBackground::GetWarpMapName
EXTRN	?AddObserver@CPythonMiniMap@@QAEXKMM@Z:PROC	; CPythonMiniMap::AddObserver
EXTRN	?MoveObserver@CPythonMiniMap@@QAEXKMM@Z:PROC	; CPythonMiniMap::MoveObserver
EXTRN	?RemoveObserver@CPythonMiniMap@@QAEXK@Z:PROC	; CPythonMiniMap::RemoveObserver
EXTRN	?ClearAtlasMarkInfo@CPythonMiniMap@@QAEXXZ:PROC	; CPythonMiniMap::ClearAtlasMarkInfo
EXTRN	?RegisterAtlasMark@CPythonMiniMap@@QAEXEPBDJJ@Z:PROC ; CPythonMiniMap::RegisterAtlasMark
EXTRN	?ClearGuildArea@CPythonMiniMap@@QAEXXZ:PROC	; CPythonMiniMap::ClearGuildArea
EXTRN	?RegisterGuildArea@CPythonMiniMap@@QAEXKKJJJJ@Z:PROC ; CPythonMiniMap::RegisterGuildArea
EXTRN	?CreateTarget@CPythonMiniMap@@QAEXHPBD@Z:PROC	; CPythonMiniMap::CreateTarget
EXTRN	?CreateTarget@CPythonMiniMap@@QAEXHPBDK@Z:PROC	; CPythonMiniMap::CreateTarget
EXTRN	?UpdateTarget@CPythonMiniMap@@QAEXHHH@Z:PROC	; CPythonMiniMap::UpdateTarget
EXTRN	?DeleteTarget@CPythonMiniMap@@QAEXH@Z:PROC	; CPythonMiniMap::DeleteTarget
EXTRN	?RegisterChatTail@CPythonTextTail@@QAEXKPBD@Z:PROC ; CPythonTextTail::RegisterChatTail
EXTRN	?Destroy@CPythonItem@@QAEXXZ:PROC		; CPythonItem::Destroy
EXTRN	?Clear@CPythonShop@@QAEXXZ:PROC			; CPythonShop::Clear
EXTRN	?SetItemData@CPythonShop@@QAEXKABUpacket_shop_item@@@Z:PROC ; CPythonShop::SetItemData
EXTRN	?SetItemData@CPythonShop@@QAEXEKABUpacket_shop_item@@@Z:PROC ; CPythonShop::SetItemData
EXTRN	?SetTabCoinType@CPythonShop@@QAEXEE@Z:PROC	; CPythonShop::SetTabCoinType
EXTRN	?SetTabName@CPythonShop@@QAEXEPBD@Z:PROC	; CPythonShop::SetTabName
EXTRN	?Clear@CPythonExchange@@QAEXXZ:PROC		; CPythonExchange::Clear
EXTRN	?Start@CPythonExchange@@QAEXXZ:PROC		; CPythonExchange::Start
EXTRN	?End@CPythonExchange@@QAEXXZ:PROC		; CPythonExchange::End
EXTRN	?SetSelfName@CPythonExchange@@QAEXPBD@Z:PROC	; CPythonExchange::SetSelfName
EXTRN	?SetTargetName@CPythonExchange@@QAEXPBD@Z:PROC	; CPythonExchange::SetTargetName
EXTRN	?SetElkToTarget@CPythonExchange@@QAEXK@Z:PROC	; CPythonExchange::SetElkToTarget
EXTRN	?SetElkToSelf@CPythonExchange@@QAEXK@Z:PROC	; CPythonExchange::SetElkToSelf
EXTRN	?SetItemToTarget@CPythonExchange@@QAEXKKE@Z:PROC ; CPythonExchange::SetItemToTarget
EXTRN	?SetItemToSelf@CPythonExchange@@QAEXKKE@Z:PROC	; CPythonExchange::SetItemToSelf
EXTRN	?SetItemMetinSocketToTarget@CPythonExchange@@QAEXHHK@Z:PROC ; CPythonExchange::SetItemMetinSocketToTarget
EXTRN	?SetItemMetinSocketToSelf@CPythonExchange@@QAEXHHK@Z:PROC ; CPythonExchange::SetItemMetinSocketToSelf
EXTRN	?SetItemAttributeToTarget@CPythonExchange@@QAEXHHEF@Z:PROC ; CPythonExchange::SetItemAttributeToTarget
EXTRN	?SetItemAttributeToSelf@CPythonExchange@@QAEXHHEF@Z:PROC ; CPythonExchange::SetItemAttributeToSelf
EXTRN	?DelItemOfTarget@CPythonExchange@@QAEXE@Z:PROC	; CPythonExchange::DelItemOfTarget
EXTRN	?DelItemOfSelf@CPythonExchange@@QAEXE@Z:PROC	; CPythonExchange::DelItemOfSelf
EXTRN	?SetAcceptToTarget@CPythonExchange@@QAEXE@Z:PROC ; CPythonExchange::SetAcceptToTarget
EXTRN	?SetAcceptToSelf@CPythonExchange@@QAEXE@Z:PROC	; CPythonExchange::SetAcceptToSelf
EXTRN	?RegisterQuestInstance@CPythonQuest@@QAEXABUSQuestInstance@1@@Z:PROC ; CPythonQuest::RegisterQuestInstance
EXTRN	?DeleteQuestInstance@CPythonQuest@@QAEXK@Z:PROC	; CPythonQuest::DeleteQuestInstance
EXTRN	?IsQuest@CPythonQuest@@QAE_NK@Z:PROC		; CPythonQuest::IsQuest
EXTRN	?MakeQuest@CPythonQuest@@QAEXK@Z:PROC		; CPythonQuest::MakeQuest
EXTRN	?SetQuestTitle@CPythonQuest@@QAEXKPBD@Z:PROC	; CPythonQuest::SetQuestTitle
EXTRN	?SetQuestClockName@CPythonQuest@@QAEXKPBD@Z:PROC ; CPythonQuest::SetQuestClockName
EXTRN	?SetQuestCounterName@CPythonQuest@@QAEXKPBD@Z:PROC ; CPythonQuest::SetQuestCounterName
EXTRN	?SetQuestClockValue@CPythonQuest@@QAEXKH@Z:PROC	; CPythonQuest::SetQuestClockValue
EXTRN	?SetQuestCounterValue@CPythonQuest@@QAEXKH@Z:PROC ; CPythonQuest::SetQuestCounterValue
EXTRN	?SetQuestIconFileName@CPythonQuest@@QAEXKPBD@Z:PROC ; CPythonQuest::SetQuestIconFileName
EXTRN	?RegisterEventSetFromString@CPythonEventManager@@QAEHABV?$basic_string@DU?$char_traits@D@std@@V?$allocator@D@2@@std@@@Z:PROC ; CPythonEventManager::RegisterEventSetFromString
EXTRN	?SetVisibleLineCount@CPythonEventManager@@QAEXHH@Z:PROC ; CPythonEventManager::SetVisibleLineCount
EXTRN	?OnFriendLogin@CPythonMessenger@@QAEXPBD@Z:PROC	; CPythonMessenger::OnFriendLogin
EXTRN	?OnFriendLogout@CPythonMessenger@@QAEXPBD@Z:PROC ; CPythonMessenger::OnFriendLogout
EXTRN	?SetMobile@CPythonMessenger@@QAEXPBDE@Z:PROC	; CPythonMessenger::SetMobile
EXTRN	?AppendGuildMember@CPythonMessenger@@QAEXPBD@Z:PROC ; CPythonMessenger::AppendGuildMember
EXTRN	?RemoveGuildMember@CPythonMessenger@@QAEXPBD@Z:PROC ; CPythonMessenger::RemoveGuildMember
EXTRN	?RemoveAllGuildMember@CPythonMessenger@@QAEXXZ:PROC ; CPythonMessenger::RemoveAllGuildMember
EXTRN	?LoginGuildMember@CPythonMessenger@@QAEXPBD@Z:PROC ; CPythonMessenger::LoginGuildMember
EXTRN	?LogoutGuildMember@CPythonMessenger@@QAEXPBD@Z:PROC ; CPythonMessenger::LogoutGuildMember
EXTRN	?GetItemDataPointer@CItemManager@@QAEHKPAPAVCItemData@@@Z:PROC ; CItemManager::GetItemDataPointer
EXTRN	?GetServerTimeStamp@CPythonApplication@@QAEJXZ:PROC ; CPythonApplication::GetServerTimeStamp
EXTRN	?GetProcessCRCMagicCubePiece@@YAEXZ:PROC	; GetProcessCRCMagicCubePiece
EXTRN	??_E?$CDynamicPoolEx@VCRotationDecorator@NEffectUpdateDecorator@@@@UAEPAXI@Z:PROC ; CDynamicPoolEx<NEffectUpdateDecorator::CRotationDecorator>::`vector deleting destructor'
EXTRN	??_E?$CDynamicPoolEx@VCGravityDecorator@NEffectUpdateDecorator@@@@UAEPAXI@Z:PROC ; CDynamicPoolEx<NEffectUpdateDecorator::CGravityDecorator>::`vector deleting destructor'
EXTRN	??_E?$CDynamicPoolEx@VCAirResistanceDecorator@NEffectUpdateDecorator@@@@UAEPAXI@Z:PROC ; CDynamicPoolEx<NEffectUpdateDecorator::CAirResistanceDecorator>::`vector deleting destructor'
EXTRN	??_E?$CDynamicPoolEx@VCTextureAnimationRandomDecorator@NEffectUpdateDecorator@@@@UAEPAXI@Z:PROC ; CDynamicPoolEx<NEffectUpdateDecorator::CTextureAnimationRandomDecorator>::`vector deleting destructor'
EXTRN	??_E?$CDynamicPoolEx@VCTextureAnimationCCWDecorator@NEffectUpdateDecorator@@@@UAEPAXI@Z:PROC ; CDynamicPoolEx<NEffectUpdateDecorator::CTextureAnimationCCWDecorator>::`vector deleting destructor'
EXTRN	??_E?$CDynamicPoolEx@VCTextureAnimationCWDecorator@NEffectUpdateDecorator@@@@UAEPAXI@Z:PROC ; CDynamicPoolEx<NEffectUpdateDecorator::CTextureAnimationCWDecorator>::`vector deleting destructor'
EXTRN	??_E?$CDynamicPoolEx@VCNullDecorator@NEffectUpdateDecorator@@@@UAEPAXI@Z:PROC ; CDynamicPoolEx<NEffectUpdateDecorator::CNullDecorator>::`vector deleting destructor'
EXTRN	??_E?$CDynamicPoolEx@VCHeaderDecorator@NEffectUpdateDecorator@@@@UAEPAXI@Z:PROC ; CDynamicPoolEx<NEffectUpdateDecorator::CHeaderDecorator>::`vector deleting destructor'
EXTRN	@__security_check_cookie@4:PROC
EXTRN	__CxxThrowException@8:PROC
EXTRN	___CxxFrameHandler3:PROC
EXTRN	_memset:PROC
EXTRN	__Init_thread_epoch:DWORD
EXTRN	??_7type_info@@6B@:QWORD			; type_info::`vftable'
EXTRN	?ms_pInstance@CPythonApplication@@1PAV1@A:DWORD	; CPythonApplication::ms_pInstance
EXTRN	___security_cookie:DWORD
EXTRN	__fltused:DWORD
EXTRN	__tls_array:DWORD
EXTRN	__tls_index:DWORD
;	COMDAT ?_OptionsStorage@?1??__local_stdio_printf_options@@9@4_KA
_BSS	SEGMENT
?_OptionsStorage@?1??__local_stdio_printf_options@@9@4_KA DQ 01H DUP (?) ; `__local_stdio_printf_options'::`2'::_OptionsStorage
_BSS	ENDS
;	COMDAT ?ms_singleton@?$CSingleton@VCPythonNetworkStream@@@@0PAVCPythonNetworkStream@@A
_BSS	SEGMENT
?ms_singleton@?$CSingleton@VCPythonNetworkStream@@@@0PAVCPythonNetworkStream@@A DD 01H DUP (?) ; CSingleton<CPythonNetworkStream>::ms_singleton
_BSS	ENDS
;	COMDAT ?ms_singleton@?$CSingleton@VCPythonGuild@@@@0PAVCPythonGuild@@A
_BSS	SEGMENT
?ms_singleton@?$CSingleton@VCPythonGuild@@@@0PAVCPythonGuild@@A DD 01H DUP (?) ; CSingleton<CPythonGuild>::ms_singleton
_BSS	ENDS
;	COMDAT ?ms_singleton@?$TAbstractSingleton@VIAbstractCharacterManager@@@@0PAVIAbstractCharacterManager@@A
_BSS	SEGMENT
?ms_singleton@?$TAbstractSingleton@VIAbstractCharacterManager@@@@0PAVIAbstractCharacterManager@@A DD 01H DUP (?) ; TAbstractSingleton<IAbstractCharacterManager>::ms_singleton
_BSS	ENDS
;	COMDAT ?ms_kPool@?$CPooledObject@VCHeaderDecorator@NEffectUpdateDecorator@@@@1V?$CDynamicPoolEx@VCHeaderDecorator@NEffectUpdateDecorator@@@@A
_BSS	SEGMENT
?ms_kPool@?$CPooledObject@VCHeaderDecorator@NEffectUpdateDecorator@@@@1V?$CDynamicPoolEx@VCHeaderDecorator@NEffectUpdateDecorator@@@@A DB 024H DUP (?) ; CPooledObject<NEffectUpdateDecorator::CHeaderDecorator>::ms_kPool
_BSS	ENDS
;	COMDAT ?ms_kPool@?$CPooledObject@VCNullDecorator@NEffectUpdateDecorator@@@@1V?$CDynamicPoolEx@VCNullDecorator@NEffectUpdateDecorator@@@@A
_BSS	SEGMENT
?ms_kPool@?$CPooledObject@VCNullDecorator@NEffectUpdateDecorator@@@@1V?$CDynamicPoolEx@VCNullDecorator@NEffectUpdateDecorator@@@@A DB 024H DUP (?) ; CPooledObject<NEffectUpdateDecorator::CNullDecorator>::ms_kPool
_BSS	ENDS
;	COMDAT ?ms_kPool@?$CPooledObject@VCTextureAnimationCWDecorator@NEffectUpdateDecorator@@@@1V?$CDynamicPoolEx@VCTextureAnimationCWDecorator@NEffectUpdateDecorator@@@@A
_BSS	SEGMENT
?ms_kPool@?$CPooledObject@VCTextureAnimationCWDecorator@NEffectUpdateDecorator@@@@1V?$CDynamicPoolEx@VCTextureAnimationCWDecorator@NEffectUpdateDecorator@@@@A DB 024H DUP (?) ; CPooledObject<NEffectUpdateDecorator::CTextureAnimationCWDecorator>::ms_kPool
_BSS	ENDS
;	COMDAT ?ms_kPool@?$CPooledObject@VCTextureAnimationCCWDecorator@NEffectUpdateDecorator@@@@1V?$CDynamicPoolEx@VCTextureAnimationCCWDecorator@NEffectUpdateDecorator@@@@A
_BSS	SEGMENT
?ms_kPool@?$CPooledObject@VCTextureAnimationCCWDecorator@NEffectUpdateDecorator@@@@1V?$CDynamicPoolEx@VCTextureAnimationCCWDecorator@NEffectUpdateDecorator@@@@A DB 024H DUP (?) ; CPooledObject<NEffectUpdateDecorator::CTextureAnimationCCWDecorator>::ms_kPool
_BSS	ENDS
;	COMDAT ?ms_kPool@?$CPooledObject@VCTextureAnimationRandomDecorator@NEffectUpdateDecorator@@@@1V?$CDynamicPoolEx@VCTextureAnimationRandomDecorator@NEffectUpdateDecorator@@@@A
_BSS	SEGMENT
?ms_kPool@?$CPooledObject@VCTextureAnimationRandomDecorator@NEffectUpdateDecorator@@@@1V?$CDynamicPoolEx@VCTextureAnimationRandomDecorator@NEffectUpdateDecorator@@@@A DB 024H DUP (?) ; CPooledObject<NEffectUpdateDecorator::CTextureAnimationRandomDecorator>::ms_kPool
_BSS	ENDS
;	COMDAT ?ms_kPool@?$CPooledObject@VCAirResistanceDecorator@NEffectUpdateDecorator@@@@1V?$CDynamicPoolEx@VCAirResistanceDecorator@NEffectUpdateDecorator@@@@A
_BSS	SEGMENT
?ms_kPool@?$CPooledObject@VCAirResistanceDecorator@NEffectUpdateDecorator@@@@1V?$CDynamicPoolEx@VCAirResistanceDecorator@NEffectUpdateDecorator@@@@A DB 024H DUP (?) ; CPooledObject<NEffectUpdateDecorator::CAirResistanceDecorator>::ms_kPool
_BSS	ENDS
;	COMDAT ?ms_kPool@?$CPooledObject@VCGravityDecorator@NEffectUpdateDecorator@@@@1V?$CDynamicPoolEx@VCGravityDecorator@NEffectUpdateDecorator@@@@A
_BSS	SEGMENT
?ms_kPool@?$CPooledObject@VCGravityDecorator@NEffectUpdateDecorator@@@@1V?$CDynamicPoolEx@VCGravityDecorator@NEffectUpdateDecorator@@@@A DB 024H DUP (?) ; CPooledObject<NEffectUpdateDecorator::CGravityDecorator>::ms_kPool
_BSS	ENDS
;	COMDAT ?ms_kPool@?$CPooledObject@VCRotationDecorator@NEffectUpdateDecorator@@@@1V?$CDynamicPoolEx@VCRotationDecorator@NEffectUpdateDecorator@@@@A
_BSS	SEGMENT
?ms_kPool@?$CPooledObject@VCRotationDecorator@NEffectUpdateDecorator@@@@1V?$CDynamicPoolEx@VCRotationDecorator@NEffectUpdateDecorator@@@@A DB 024H DUP (?) ; CPooledObject<NEffectUpdateDecorator::CRotationDecorator>::ms_kPool
_BSS	ENDS
;	COMDAT ?ms_singleton@?$CSingleton@VCFlyingManager@@@@0PAVCFlyingManager@@A
_BSS	SEGMENT
?ms_singleton@?$CSingleton@VCFlyingManager@@@@0PAVCFlyingManager@@A DD 01H DUP (?) ; CSingleton<CFlyingManager>::ms_singleton
_BSS	ENDS
;	COMDAT ?ms_singleton@?$CSingleton@VCPythonCharacterManager@@@@0PAVCPythonCharacterManager@@A
_BSS	SEGMENT
?ms_singleton@?$CSingleton@VCPythonCharacterManager@@@@0PAVCPythonCharacterManager@@A DD 01H DUP (?) ; CSingleton<CPythonCharacterManager>::ms_singleton
_BSS	ENDS
;	COMDAT ?ms_singleton@?$TAbstractSingleton@VIAbstractPlayer@@@@0PAVIAbstractPlayer@@A
_BSS	SEGMENT
?ms_singleton@?$TAbstractSingleton@VIAbstractPlayer@@@@0PAVIAbstractPlayer@@A DD 01H DUP (?) ; TAbstractSingleton<IAbstractPlayer>::ms_singleton
_BSS	ENDS
;	COMDAT ?ms_singleton@?$CSingleton@VCPythonPlayer@@@@0PAVCPythonPlayer@@A
_BSS	SEGMENT
?ms_singleton@?$CSingleton@VCPythonPlayer@@@@0PAVCPythonPlayer@@A DD 01H DUP (?) ; CSingleton<CPythonPlayer>::ms_singleton
_BSS	ENDS
;	COMDAT ?ms_singleton@?$CSingleton@VCPythonBackground@@@@0PAVCPythonBackground@@A
_BSS	SEGMENT
?ms_singleton@?$CSingleton@VCPythonBackground@@@@0PAVCPythonBackground@@A DD 01H DUP (?) ; CSingleton<CPythonBackground>::ms_singleton
_BSS	ENDS
;	COMDAT ?ms_singleton@?$CSingleton@VCPythonMiniMap@@@@0PAVCPythonMiniMap@@A
_BSS	SEGMENT
?ms_singleton@?$CSingleton@VCPythonMiniMap@@@@0PAVCPythonMiniMap@@A DD 01H DUP (?) ; CSingleton<CPythonMiniMap>::ms_singleton
_BSS	ENDS
;	COMDAT ?ms_singleton@?$CSingleton@VCPythonTextTail@@@@0PAVCPythonTextTail@@A
_BSS	SEGMENT
?ms_singleton@?$CSingleton@VCPythonTextTail@@@@0PAVCPythonTextTail@@A DD 01H DUP (?) ; CSingleton<CPythonTextTail>::ms_singleton
_BSS	ENDS
;	COMDAT ?ms_singleton@?$CSingleton@VCPythonItem@@@@0PAVCPythonItem@@A
_BSS	SEGMENT
?ms_singleton@?$CSingleton@VCPythonItem@@@@0PAVCPythonItem@@A DD 01H DUP (?) ; CSingleton<CPythonItem>::ms_singleton
_BSS	ENDS
;	COMDAT ?ms_singleton@?$CSingleton@VCPythonChat@@@@0PAVCPythonChat@@A
_BSS	SEGMENT
?ms_singleton@?$CSingleton@VCPythonChat@@@@0PAVCPythonChat@@A DD 01H DUP (?) ; CSingleton<CPythonChat>::ms_singleton
_BSS	ENDS
;	COMDAT ?ms_singleton@?$CSingleton@VCPythonShop@@@@0PAVCPythonShop@@A
_BSS	SEGMENT
?ms_singleton@?$CSingleton@VCPythonShop@@@@0PAVCPythonShop@@A DD 01H DUP (?) ; CSingleton<CPythonShop>::ms_singleton
_BSS	ENDS
;	COMDAT ?ms_singleton@?$CSingleton@VCPythonExchange@@@@0PAVCPythonExchange@@A
_BSS	SEGMENT
?ms_singleton@?$CSingleton@VCPythonExchange@@@@0PAVCPythonExchange@@A DD 01H DUP (?) ; CSingleton<CPythonExchange>::ms_singleton
_BSS	ENDS
;	COMDAT ?ms_singleton@?$CSingleton@VCPythonQuest@@@@0PAVCPythonQuest@@A
_BSS	SEGMENT
?ms_singleton@?$CSingleton@VCPythonQuest@@@@0PAVCPythonQuest@@A DD 01H DUP (?) ; CSingleton<CPythonQuest>::ms_singleton
_BSS	ENDS
;	COMDAT ?ms_singleton@?$CSingleton@VCPythonEventManager@@@@0PAVCPythonEventManager@@A
_BSS	SEGMENT
?ms_singleton@?$CSingleton@VCPythonEventManager@@@@0PAVCPythonEventManager@@A DD 01H DUP (?) ; CSingleton<CPythonEventManager>::ms_singleton
_BSS	ENDS
;	COMDAT ?ms_singleton@?$CSingleton@VCPythonMessenger@@@@0PAVCPythonMessenger@@A
_BSS	SEGMENT
?ms_singleton@?$CSingleton@VCPythonMessenger@@@@0PAVCPythonMessenger@@A DD 01H DUP (?) ; CSingleton<CPythonMessenger>::ms_singleton
_BSS	ENDS
;	COMDAT ?ms_singleton@?$CSingleton@VCItemManager@@@@0PAVCItemManager@@A
_BSS	SEGMENT
?ms_singleton@?$CSingleton@VCItemManager@@@@0PAVCItemManager@@A DD 01H DUP (?) ; CSingleton<CItemManager>::ms_singleton
_BSS	ENDS
;	COMDAT ?ms_singleton@?$TAbstractSingleton@VIAbstractApplication@@@@0PAVIAbstractApplication@@A
_BSS	SEGMENT
?ms_singleton@?$TAbstractSingleton@VIAbstractApplication@@@@0PAVIAbstractApplication@@A DD 01H DUP (?) ; TAbstractSingleton<IAbstractApplication>::ms_singleton
_BSS	ENDS
;	COMDAT ?s_nextRefreshTime@?1??GamePhase@CPythonNetworkStream@@IAEXXZ@4KA
_BSS	SEGMENT
?s_nextRefreshTime@?1??GamePhase@CPythonNetworkStream@@IAEXXZ@4KA DD 01H DUP (?) ; `CPythonNetworkStream::GamePhase'::`2'::s_nextRefreshTime
_BSS	ENDS
;	COMDAT ?$TSS0@?1??GamePhase@CPythonNetworkStream@@IAEXXZ@4HA
_BSS	SEGMENT
?$TSS0@?1??GamePhase@CPythonNetworkStream@@IAEXXZ@4HA DD 01H DUP (?) ; `CPythonNetworkStream::GamePhase'::`2'::$TSS0
_BSS	ENDS
;	COMDAT ?line@?1??RecvWhisperPacket@CPythonNetworkStream@@IAE_NXZ@4PADA
_BSS	SEGMENT
?line@?1??RecvWhisperPacket@CPythonNetworkStream@@IAE_NXZ@4PADA DB 0100H DUP (?) ; `CPythonNetworkStream::RecvWhisperPacket'::`2'::line
_BSS	ENDS
;	COMDAT ?str@?1??RecvScriptPacket@CPythonNetworkStream@@IAE_NXZ@4V?$basic_string@DU?$char_traits@D@std@@V?$allocator@D@2@@std@@A
_BSS	SEGMENT
?str@?1??RecvScriptPacket@CPythonNetworkStream@@IAE_NXZ@4V?$basic_string@DU?$char_traits@D@std@@V?$allocator@D@2@@std@@A DB 018H DUP (?) ; `CPythonNetworkStream::RecvScriptPacket'::`2'::str
_BSS	ENDS
;	COMDAT ?$TSS0@?1??RecvScriptPacket@CPythonNetworkStream@@IAE_NXZ@4HA
_BSS	SEGMENT
?$TSS0@?1??RecvScriptPacket@CPythonNetworkStream@@IAE_NXZ@4HA DD 01H DUP (?) ; `CPythonNetworkStream::RecvScriptPacket'::`2'::$TSS0
_BSS	ENDS
;	COMDAT ?s_LastTime@?1??SendGuildRefreshCommentsPacket@CPythonNetworkStream@@QAE_NK@Z@4KA
_BSS	SEGMENT
?s_LastTime@?1??SendGuildRefreshCommentsPacket@CPythonNetworkStream@@QAE_NK@Z@4KA DD 01H DUP (?) ; `CPythonNetworkStream::SendGuildRefreshCommentsPacket'::`2'::s_LastTime
_BSS	ENDS
;	COMDAT ?$TSS0@?1??SendGuildRefreshCommentsPacket@CPythonNetworkStream@@QAE_NK@Z@4HA
_BSS	SEGMENT
?$TSS0@?1??SendGuildRefreshCommentsPacket@CPythonNetworkStream@@QAE_NK@Z@4HA DD 01H DUP (?) ; `CPythonNetworkStream::SendGuildRefreshCommentsPacket'::`2'::$TSS0
_BSS	ENDS
;	COMDAT CRT$XCU
CRT$XCU	SEGMENT
??ms_kPool$initializer$@?$CPooledObject@VCHeaderDecorator@NEffectUpdateDecorator@@@@1P6AXXZA@@3P6AXXZA DD FLAT:??__E?ms_kPool@?$CPooledObject@VCHeaderDecorator@NEffectUpdateDecorator@@@@1V?$CDynamicPoolEx@VCHeaderDecorator@NEffectUpdateDecorator@@@@A@@YAXXZ ; ??ms_kPool$initializer$@?$CPooledObject@VCHeaderDecorator@NEffectUpdateDecorator@@@@1P6AXXZA@@3P6AXXZA
CRT$XCU	ENDS
;	COMDAT __real@43b40000
CONST	SEGMENT
__real@43b40000 DD 043b40000r			; 360
CONST	ENDS
;	COMDAT __real@42c80000
CONST	SEGMENT
__real@42c80000 DD 042c80000r			; 100
CONST	ENDS
;	COMDAT __real@42700000
CONST	SEGMENT
__real@42700000 DD 042700000r			; 60
CONST	ENDS
;	COMDAT __real@40a00000
CONST	SEGMENT
__real@40a00000 DD 040a00000r			; 5
CONST	ENDS
;	COMDAT __real@3f800000
CONST	SEGMENT
__real@3f800000 DD 03f800000r			; 1
CONST	ENDS
;	COMDAT __real@3dcccccd
CONST	SEGMENT
__real@3dcccccd DD 03dcccccdr			; 0.1
CONST	ENDS
;	COMDAT ??_R1A@?0A@EA@?$CDynamicPoolEx@VCRotationDecorator@NEffectUpdateDecorator@@@@8
rdata$r	SEGMENT
??_R1A@?0A@EA@?$CDynamicPoolEx@VCRotationDecorator@NEffectUpdateDecorator@@@@8 DD FLAT:??_R0?AV?$CDynamicPoolEx@VCRotationDecorator@NEffectUpdateDecorator@@@@@8 ; CDynamicPoolEx<NEffectUpdateDecorator::CRotationDecorator>::`RTTI Base Class Descriptor at (0,-1,0,64)'
	DD	00H
	DD	00H
	DD	0ffffffffH
	DD	00H
	DD	040H
	DD	FLAT:??_R3?$CDynamicPoolEx@VCRotationDecorator@NEffectUpdateDecorator@@@@8
rdata$r	ENDS
;	COMDAT ??_R2?$CDynamicPoolEx@VCRotationDecorator@NEffectUpdateDecorator@@@@8
rdata$r	SEGMENT
??_R2?$CDynamicPoolEx@VCRotationDecorator@NEffectUpdateDecorator@@@@8 DD FLAT:??_R1A@?0A@EA@?$CDynamicPoolEx@VCRotationDecorator@NEffectUpdateDecorator@@@@8 ; CDynamicPoolEx<NEffectUpdateDecorator::CRotationDecorator>::`RTTI Base Class Array'
rdata$r	ENDS
;	COMDAT ??_R3?$CDynamicPoolEx@VCRotationDecorator@NEffectUpdateDecorator@@@@8
rdata$r	SEGMENT
??_R3?$CDynamicPoolEx@VCRotationDecorator@NEffectUpdateDecorator@@@@8 DD 00H ; CDynamicPoolEx<NEffectUpdateDecorator::CRotationDecorator>::`RTTI Class Hierarchy Descriptor'
	DD	00H
	DD	01H
	DD	FLAT:??_R2?$CDynamicPoolEx@VCRotationDecorator@NEffectUpdateDecorator@@@@8
rdata$r	ENDS
;	COMDAT ??_R0?AV?$CDynamicPoolEx@VCRotationDecorator@NEffectUpdateDecorator@@@@@8
data$rs	SEGMENT
??_R0?AV?$CDynamicPoolEx@VCRotationDecorator@NEffectUpdateDecorator@@@@@8 DD FLAT:??_7type_info@@6B@ ; CDynamicPoolEx<NEffectUpdateDecorator::CRotationDecorator> `RTTI Type Descriptor'
	DD	00H
	DB	'.?AV?$CDynamicPoolEx@VCRotationDecorator@NEffectUpdateDe'
	DB	'corator@@@@', 00H
data$rs	ENDS
;	COMDAT ??_R4?$CDynamicPoolEx@VCRotationDecorator@NEffectUpdateDecorator@@@@6B@
rdata$r	SEGMENT
??_R4?$CDynamicPoolEx@VCRotationDecorator@NEffectUpdateDecorator@@@@6B@ DD 00H ; CDynamicPoolEx<NEffectUpdateDecorator::CRotationDecorator>::`RTTI Complete Object Locator'
	DD	00H
	DD	00H
	DD	FLAT:??_R0?AV?$CDynamicPoolEx@VCRotationDecorator@NEffectUpdateDecorator@@@@@8
	DD	FLAT:??_R3?$CDynamicPoolEx@VCRotationDecorator@NEffectUpdateDecorator@@@@8
rdata$r	ENDS
;	COMDAT ??_R1A@?0A@EA@?$CDynamicPoolEx@VCGravityDecorator@NEffectUpdateDecorator@@@@8
rdata$r	SEGMENT
??_R1A@?0A@EA@?$CDynamicPoolEx@VCGravityDecorator@NEffectUpdateDecorator@@@@8 DD FLAT:??_R0?AV?$CDynamicPoolEx@VCGravityDecorator@NEffectUpdateDecorator@@@@@8 ; CDynamicPoolEx<NEffectUpdateDecorator::CGravityDecorator>::`RTTI Base Class Descriptor at (0,-1,0,64)'
	DD	00H
	DD	00H
	DD	0ffffffffH
	DD	00H
	DD	040H
	DD	FLAT:??_R3?$CDynamicPoolEx@VCGravityDecorator@NEffectUpdateDecorator@@@@8
rdata$r	ENDS
;	COMDAT ??_R2?$CDynamicPoolEx@VCGravityDecorator@NEffectUpdateDecorator@@@@8
rdata$r	SEGMENT
??_R2?$CDynamicPoolEx@VCGravityDecorator@NEffectUpdateDecorator@@@@8 DD FLAT:??_R1A@?0A@EA@?$CDynamicPoolEx@VCGravityDecorator@NEffectUpdateDecorator@@@@8 ; CDynamicPoolEx<NEffectUpdateDecorator::CGravityDecorator>::`RTTI Base Class Array'
rdata$r	ENDS
;	COMDAT ??_R3?$CDynamicPoolEx@VCGravityDecorator@NEffectUpdateDecorator@@@@8
rdata$r	SEGMENT
??_R3?$CDynamicPoolEx@VCGravityDecorator@NEffectUpdateDecorator@@@@8 DD 00H ; CDynamicPoolEx<NEffectUpdateDecorator::CGravityDecorator>::`RTTI Class Hierarchy Descriptor'
	DD	00H
	DD	01H
	DD	FLAT:??_R2?$CDynamicPoolEx@VCGravityDecorator@NEffectUpdateDecorator@@@@8
rdata$r	ENDS
;	COMDAT ??_R0?AV?$CDynamicPoolEx@VCGravityDecorator@NEffectUpdateDecorator@@@@@8
data$rs	SEGMENT
??_R0?AV?$CDynamicPoolEx@VCGravityDecorator@NEffectUpdateDecorator@@@@@8 DD FLAT:??_7type_info@@6B@ ; CDynamicPoolEx<NEffectUpdateDecorator::CGravityDecorator> `RTTI Type Descriptor'
	DD	00H
	DB	'.?AV?$CDynamicPoolEx@VCGravityDecorator@NEffectUpdateDec'
	DB	'orator@@@@', 00H
data$rs	ENDS
;	COMDAT ??_R4?$CDynamicPoolEx@VCGravityDecorator@NEffectUpdateDecorator@@@@6B@
rdata$r	SEGMENT
??_R4?$CDynamicPoolEx@VCGravityDecorator@NEffectUpdateDecorator@@@@6B@ DD 00H ; CDynamicPoolEx<NEffectUpdateDecorator::CGravityDecorator>::`RTTI Complete Object Locator'
	DD	00H
	DD	00H
	DD	FLAT:??_R0?AV?$CDynamicPoolEx@VCGravityDecorator@NEffectUpdateDecorator@@@@@8
	DD	FLAT:??_R3?$CDynamicPoolEx@VCGravityDecorator@NEffectUpdateDecorator@@@@8
rdata$r	ENDS
;	COMDAT ??_R1A@?0A@EA@?$CDynamicPoolEx@VCAirResistanceDecorator@NEffectUpdateDecorator@@@@8
rdata$r	SEGMENT
??_R1A@?0A@EA@?$CDynamicPoolEx@VCAirResistanceDecorator@NEffectUpdateDecorator@@@@8 DD FLAT:??_R0?AV?$CDynamicPoolEx@VCAirResistanceDecorator@NEffectUpdateDecorator@@@@@8 ; CDynamicPoolEx<NEffectUpdateDecorator::CAirResistanceDecorator>::`RTTI Base Class Descriptor at (0,-1,0,64)'
	DD	00H
	DD	00H
	DD	0ffffffffH
	DD	00H
	DD	040H
	DD	FLAT:??_R3?$CDynamicPoolEx@VCAirResistanceDecorator@NEffectUpdateDecorator@@@@8
rdata$r	ENDS
;	COMDAT ??_R2?$CDynamicPoolEx@VCAirResistanceDecorator@NEffectUpdateDecorator@@@@8
rdata$r	SEGMENT
??_R2?$CDynamicPoolEx@VCAirResistanceDecorator@NEffectUpdateDecorator@@@@8 DD FLAT:??_R1A@?0A@EA@?$CDynamicPoolEx@VCAirResistanceDecorator@NEffectUpdateDecorator@@@@8 ; CDynamicPoolEx<NEffectUpdateDecorator::CAirResistanceDecorator>::`RTTI Base Class Array'
rdata$r	ENDS
;	COMDAT ??_R3?$CDynamicPoolEx@VCAirResistanceDecorator@NEffectUpdateDecorator@@@@8
rdata$r	SEGMENT
??_R3?$CDynamicPoolEx@VCAirResistanceDecorator@NEffectUpdateDecorator@@@@8 DD 00H ; CDynamicPoolEx<NEffectUpdateDecorator::CAirResistanceDecorator>::`RTTI Class Hierarchy Descriptor'
	DD	00H
	DD	01H
	DD	FLAT:??_R2?$CDynamicPoolEx@VCAirResistanceDecorator@NEffectUpdateDecorator@@@@8
rdata$r	ENDS
;	COMDAT ??_R0?AV?$CDynamicPoolEx@VCAirResistanceDecorator@NEffectUpdateDecorator@@@@@8
data$rs	SEGMENT
??_R0?AV?$CDynamicPoolEx@VCAirResistanceDecorator@NEffectUpdateDecorator@@@@@8 DD FLAT:??_7type_info@@6B@ ; CDynamicPoolEx<NEffectUpdateDecorator::CAirResistanceDecorator> `RTTI Type Descriptor'
	DD	00H
	DB	'.?AV?$CDynamicPoolEx@VCAirResistanceDecorator@NEffectUpd'
	DB	'ateDecorator@@@@', 00H
data$rs	ENDS
;	COMDAT ??_R4?$CDynamicPoolEx@VCAirResistanceDecorator@NEffectUpdateDecorator@@@@6B@
rdata$r	SEGMENT
??_R4?$CDynamicPoolEx@VCAirResistanceDecorator@NEffectUpdateDecorator@@@@6B@ DD 00H ; CDynamicPoolEx<NEffectUpdateDecorator::CAirResistanceDecorator>::`RTTI Complete Object Locator'
	DD	00H
	DD	00H
	DD	FLAT:??_R0?AV?$CDynamicPoolEx@VCAirResistanceDecorator@NEffectUpdateDecorator@@@@@8
	DD	FLAT:??_R3?$CDynamicPoolEx@VCAirResistanceDecorator@NEffectUpdateDecorator@@@@8
rdata$r	ENDS
;	COMDAT ??_R1A@?0A@EA@?$CDynamicPoolEx@VCTextureAnimationRandomDecorator@NEffectUpdateDecorator@@@@8
rdata$r	SEGMENT
??_R1A@?0A@EA@?$CDynamicPoolEx@VCTextureAnimationRandomDecorator@NEffectUpdateDecorator@@@@8 DD FLAT:??_R0?AV?$CDynamicPoolEx@VCTextureAnimationRandomDecorator@NEffectUpdateDecorator@@@@@8 ; CDynamicPoolEx<NEffectUpdateDecorator::CTextureAnimationRandomDecorator>::`RTTI Base Class Descriptor at (0,-1,0,64)'
	DD	00H
	DD	00H
	DD	0ffffffffH
	DD	00H
	DD	040H
	DD	FLAT:??_R3?$CDynamicPoolEx@VCTextureAnimationRandomDecorator@NEffectUpdateDecorator@@@@8
rdata$r	ENDS
;	COMDAT ??_R2?$CDynamicPoolEx@VCTextureAnimationRandomDecorator@NEffectUpdateDecorator@@@@8
rdata$r	SEGMENT
??_R2?$CDynamicPoolEx@VCTextureAnimationRandomDecorator@NEffectUpdateDecorator@@@@8 DD FLAT:??_R1A@?0A@EA@?$CDynamicPoolEx@VCTextureAnimationRandomDecorator@NEffectUpdateDecorator@@@@8 ; CDynamicPoolEx<NEffectUpdateDecorator::CTextureAnimationRandomDecorator>::`RTTI Base Class Array'
rdata$r	ENDS
;	COMDAT ??_R3?$CDynamicPoolEx@VCTextureAnimationRandomDecorator@NEffectUpdateDecorator@@@@8
rdata$r	SEGMENT
??_R3?$CDynamicPoolEx@VCTextureAnimationRandomDecorator@NEffectUpdateDecorator@@@@8 DD 00H ; CDynamicPoolEx<NEffectUpdateDecorator::CTextureAnimationRandomDecorator>::`RTTI Class Hierarchy Descriptor'
	DD	00H
	DD	01H
	DD	FLAT:??_R2?$CDynamicPoolEx@VCTextureAnimationRandomDecorator@NEffectUpdateDecorator@@@@8
rdata$r	ENDS
;	COMDAT ??_R0?AV?$CDynamicPoolEx@VCTextureAnimationRandomDecorator@NEffectUpdateDecorator@@@@@8
data$rs	SEGMENT
??_R0?AV?$CDynamicPoolEx@VCTextureAnimationRandomDecorator@NEffectUpdateDecorator@@@@@8 DD FLAT:??_7type_info@@6B@ ; CDynamicPoolEx<NEffectUpdateDecorator::CTextureAnimationRandomDecorator> `RTTI Type Descriptor'
	DD	00H
	DB	'.?AV?$CDynamicPoolEx@VCTextureAnimationRandomDecorator@N'
	DB	'EffectUpdateDecorator@@@@', 00H
data$rs	ENDS
;	COMDAT ??_R4?$CDynamicPoolEx@VCTextureAnimationRandomDecorator@NEffectUpdateDecorator@@@@6B@
rdata$r	SEGMENT
??_R4?$CDynamicPoolEx@VCTextureAnimationRandomDecorator@NEffectUpdateDecorator@@@@6B@ DD 00H ; CDynamicPoolEx<NEffectUpdateDecorator::CTextureAnimationRandomDecorator>::`RTTI Complete Object Locator'
	DD	00H
	DD	00H
	DD	FLAT:??_R0?AV?$CDynamicPoolEx@VCTextureAnimationRandomDecorator@NEffectUpdateDecorator@@@@@8
	DD	FLAT:??_R3?$CDynamicPoolEx@VCTextureAnimationRandomDecorator@NEffectUpdateDecorator@@@@8
rdata$r	ENDS
;	COMDAT ??_R1A@?0A@EA@?$CDynamicPoolEx@VCTextureAnimationCCWDecorator@NEffectUpdateDecorator@@@@8
rdata$r	SEGMENT
??_R1A@?0A@EA@?$CDynamicPoolEx@VCTextureAnimationCCWDecorator@NEffectUpdateDecorator@@@@8 DD FLAT:??_R0?AV?$CDynamicPoolEx@VCTextureAnimationCCWDecorator@NEffectUpdateDecorator@@@@@8 ; CDynamicPoolEx<NEffectUpdateDecorator::CTextureAnimationCCWDecorator>::`RTTI Base Class Descriptor at (0,-1,0,64)'
	DD	00H
	DD	00H
	DD	0ffffffffH
	DD	00H
	DD	040H
	DD	FLAT:??_R3?$CDynamicPoolEx@VCTextureAnimationCCWDecorator@NEffectUpdateDecorator@@@@8
rdata$r	ENDS
;	COMDAT ??_R2?$CDynamicPoolEx@VCTextureAnimationCCWDecorator@NEffectUpdateDecorator@@@@8
rdata$r	SEGMENT
??_R2?$CDynamicPoolEx@VCTextureAnimationCCWDecorator@NEffectUpdateDecorator@@@@8 DD FLAT:??_R1A@?0A@EA@?$CDynamicPoolEx@VCTextureAnimationCCWDecorator@NEffectUpdateDecorator@@@@8 ; CDynamicPoolEx<NEffectUpdateDecorator::CTextureAnimationCCWDecorator>::`RTTI Base Class Array'
rdata$r	ENDS
;	COMDAT ??_R3?$CDynamicPoolEx@VCTextureAnimationCCWDecorator@NEffectUpdateDecorator@@@@8
rdata$r	SEGMENT
??_R3?$CDynamicPoolEx@VCTextureAnimationCCWDecorator@NEffectUpdateDecorator@@@@8 DD 00H ; CDynamicPoolEx<NEffectUpdateDecorator::CTextureAnimationCCWDecorator>::`RTTI Class Hierarchy Descriptor'
	DD	00H
	DD	01H
	DD	FLAT:??_R2?$CDynamicPoolEx@VCTextureAnimationCCWDecorator@NEffectUpdateDecorator@@@@8
rdata$r	ENDS
;	COMDAT ??_R0?AV?$CDynamicPoolEx@VCTextureAnimationCCWDecorator@NEffectUpdateDecorator@@@@@8
data$rs	SEGMENT
??_R0?AV?$CDynamicPoolEx@VCTextureAnimationCCWDecorator@NEffectUpdateDecorator@@@@@8 DD FLAT:??_7type_info@@6B@ ; CDynamicPoolEx<NEffectUpdateDecorator::CTextureAnimationCCWDecorator> `RTTI Type Descriptor'
	DD	00H
	DB	'.?AV?$CDynamicPoolEx@VCTextureAnimationCCWDecorator@NEff'
	DB	'ectUpdateDecorator@@@@', 00H
data$rs	ENDS
;	COMDAT ??_R4?$CDynamicPoolEx@VCTextureAnimationCCWDecorator@NEffectUpdateDecorator@@@@6B@
rdata$r	SEGMENT
??_R4?$CDynamicPoolEx@VCTextureAnimationCCWDecorator@NEffectUpdateDecorator@@@@6B@ DD 00H ; CDynamicPoolEx<NEffectUpdateDecorator::CTextureAnimationCCWDecorator>::`RTTI Complete Object Locator'
	DD	00H
	DD	00H
	DD	FLAT:??_R0?AV?$CDynamicPoolEx@VCTextureAnimationCCWDecorator@NEffectUpdateDecorator@@@@@8
	DD	FLAT:??_R3?$CDynamicPoolEx@VCTextureAnimationCCWDecorator@NEffectUpdateDecorator@@@@8
rdata$r	ENDS
;	COMDAT ??_R1A@?0A@EA@?$CDynamicPoolEx@VCTextureAnimationCWDecorator@NEffectUpdateDecorator@@@@8
rdata$r	SEGMENT
??_R1A@?0A@EA@?$CDynamicPoolEx@VCTextureAnimationCWDecorator@NEffectUpdateDecorator@@@@8 DD FLAT:??_R0?AV?$CDynamicPoolEx@VCTextureAnimationCWDecorator@NEffectUpdateDecorator@@@@@8 ; CDynamicPoolEx<NEffectUpdateDecorator::CTextureAnimationCWDecorator>::`RTTI Base Class Descriptor at (0,-1,0,64)'
	DD	00H
	DD	00H
	DD	0ffffffffH
	DD	00H
	DD	040H
	DD	FLAT:??_R3?$CDynamicPoolEx@VCTextureAnimationCWDecorator@NEffectUpdateDecorator@@@@8
rdata$r	ENDS
;	COMDAT ??_R2?$CDynamicPoolEx@VCTextureAnimationCWDecorator@NEffectUpdateDecorator@@@@8
rdata$r	SEGMENT
??_R2?$CDynamicPoolEx@VCTextureAnimationCWDecorator@NEffectUpdateDecorator@@@@8 DD FLAT:??_R1A@?0A@EA@?$CDynamicPoolEx@VCTextureAnimationCWDecorator@NEffectUpdateDecorator@@@@8 ; CDynamicPoolEx<NEffectUpdateDecorator::CTextureAnimationCWDecorator>::`RTTI Base Class Array'
rdata$r	ENDS
;	COMDAT ??_R3?$CDynamicPoolEx@VCTextureAnimationCWDecorator@NEffectUpdateDecorator@@@@8
rdata$r	SEGMENT
??_R3?$CDynamicPoolEx@VCTextureAnimationCWDecorator@NEffectUpdateDecorator@@@@8 DD 00H ; CDynamicPoolEx<NEffectUpdateDecorator::CTextureAnimationCWDecorator>::`RTTI Class Hierarchy Descriptor'
	DD	00H
	DD	01H
	DD	FLAT:??_R2?$CDynamicPoolEx@VCTextureAnimationCWDecorator@NEffectUpdateDecorator@@@@8
rdata$r	ENDS
;	COMDAT ??_R0?AV?$CDynamicPoolEx@VCTextureAnimationCWDecorator@NEffectUpdateDecorator@@@@@8
data$rs	SEGMENT
??_R0?AV?$CDynamicPoolEx@VCTextureAnimationCWDecorator@NEffectUpdateDecorator@@@@@8 DD FLAT:??_7type_info@@6B@ ; CDynamicPoolEx<NEffectUpdateDecorator::CTextureAnimationCWDecorator> `RTTI Type Descriptor'
	DD	00H
	DB	'.?AV?$CDynamicPoolEx@VCTextureAnimationCWDecorator@NEffe'
	DB	'ctUpdateDecorator@@@@', 00H
data$rs	ENDS
;	COMDAT ??_R4?$CDynamicPoolEx@VCTextureAnimationCWDecorator@NEffectUpdateDecorator@@@@6B@
rdata$r	SEGMENT
??_R4?$CDynamicPoolEx@VCTextureAnimationCWDecorator@NEffectUpdateDecorator@@@@6B@ DD 00H ; CDynamicPoolEx<NEffectUpdateDecorator::CTextureAnimationCWDecorator>::`RTTI Complete Object Locator'
	DD	00H
	DD	00H
	DD	FLAT:??_R0?AV?$CDynamicPoolEx@VCTextureAnimationCWDecorator@NEffectUpdateDecorator@@@@@8
	DD	FLAT:??_R3?$CDynamicPoolEx@VCTextureAnimationCWDecorator@NEffectUpdateDecorator@@@@8
rdata$r	ENDS
;	COMDAT ??_R1A@?0A@EA@?$CDynamicPoolEx@VCNullDecorator@NEffectUpdateDecorator@@@@8
rdata$r	SEGMENT
??_R1A@?0A@EA@?$CDynamicPoolEx@VCNullDecorator@NEffectUpdateDecorator@@@@8 DD FLAT:??_R0?AV?$CDynamicPoolEx@VCNullDecorator@NEffectUpdateDecorator@@@@@8 ; CDynamicPoolEx<NEffectUpdateDecorator::CNullDecorator>::`RTTI Base Class Descriptor at (0,-1,0,64)'
	DD	00H
	DD	00H
	DD	0ffffffffH
	DD	00H
	DD	040H
	DD	FLAT:??_R3?$CDynamicPoolEx@VCNullDecorator@NEffectUpdateDecorator@@@@8
rdata$r	ENDS
;	COMDAT ??_R2?$CDynamicPoolEx@VCNullDecorator@NEffectUpdateDecorator@@@@8
rdata$r	SEGMENT
??_R2?$CDynamicPoolEx@VCNullDecorator@NEffectUpdateDecorator@@@@8 DD FLAT:??_R1A@?0A@EA@?$CDynamicPoolEx@VCNullDecorator@NEffectUpdateDecorator@@@@8 ; CDynamicPoolEx<NEffectUpdateDecorator::CNullDecorator>::`RTTI Base Class Array'
rdata$r	ENDS
;	COMDAT ??_R3?$CDynamicPoolEx@VCNullDecorator@NEffectUpdateDecorator@@@@8
rdata$r	SEGMENT
??_R3?$CDynamicPoolEx@VCNullDecorator@NEffectUpdateDecorator@@@@8 DD 00H ; CDynamicPoolEx<NEffectUpdateDecorator::CNullDecorator>::`RTTI Class Hierarchy Descriptor'
	DD	00H
	DD	01H
	DD	FLAT:??_R2?$CDynamicPoolEx@VCNullDecorator@NEffectUpdateDecorator@@@@8
rdata$r	ENDS
;	COMDAT ??_R0?AV?$CDynamicPoolEx@VCNullDecorator@NEffectUpdateDecorator@@@@@8
data$rs	SEGMENT
??_R0?AV?$CDynamicPoolEx@VCNullDecorator@NEffectUpdateDecorator@@@@@8 DD FLAT:??_7type_info@@6B@ ; CDynamicPoolEx<NEffectUpdateDecorator::CNullDecorator> `RTTI Type Descriptor'
	DD	00H
	DB	'.?AV?$CDynamicPoolEx@VCNullDecorator@NEffectUpdateDecora'
	DB	'tor@@@@', 00H
data$rs	ENDS
;	COMDAT ??_R4?$CDynamicPoolEx@VCNullDecorator@NEffectUpdateDecorator@@@@6B@
rdata$r	SEGMENT
??_R4?$CDynamicPoolEx@VCNullDecorator@NEffectUpdateDecorator@@@@6B@ DD 00H ; CDynamicPoolEx<NEffectUpdateDecorator::CNullDecorator>::`RTTI Complete Object Locator'
	DD	00H
	DD	00H
	DD	FLAT:??_R0?AV?$CDynamicPoolEx@VCNullDecorator@NEffectUpdateDecorator@@@@@8
	DD	FLAT:??_R3?$CDynamicPoolEx@VCNullDecorator@NEffectUpdateDecorator@@@@8
rdata$r	ENDS
;	COMDAT ??_R1A@?0A@EA@?$CDynamicPoolEx@VCHeaderDecorator@NEffectUpdateDecorator@@@@8
rdata$r	SEGMENT
??_R1A@?0A@EA@?$CDynamicPoolEx@VCHeaderDecorator@NEffectUpdateDecorator@@@@8 DD FLAT:??_R0?AV?$CDynamicPoolEx@VCHeaderDecorator@NEffectUpdateDecorator@@@@@8 ; CDynamicPoolEx<NEffectUpdateDecorator::CHeaderDecorator>::`RTTI Base Class Descriptor at (0,-1,0,64)'
	DD	00H
	DD	00H
	DD	0ffffffffH
	DD	00H
	DD	040H
	DD	FLAT:??_R3?$CDynamicPoolEx@VCHeaderDecorator@NEffectUpdateDecorator@@@@8
rdata$r	ENDS
;	COMDAT ??_R2?$CDynamicPoolEx@VCHeaderDecorator@NEffectUpdateDecorator@@@@8
rdata$r	SEGMENT
??_R2?$CDynamicPoolEx@VCHeaderDecorator@NEffectUpdateDecorator@@@@8 DD FLAT:??_R1A@?0A@EA@?$CDynamicPoolEx@VCHeaderDecorator@NEffectUpdateDecorator@@@@8 ; CDynamicPoolEx<NEffectUpdateDecorator::CHeaderDecorator>::`RTTI Base Class Array'
rdata$r	ENDS
;	COMDAT ??_R3?$CDynamicPoolEx@VCHeaderDecorator@NEffectUpdateDecorator@@@@8
rdata$r	SEGMENT
??_R3?$CDynamicPoolEx@VCHeaderDecorator@NEffectUpdateDecorator@@@@8 DD 00H ; CDynamicPoolEx<NEffectUpdateDecorator::CHeaderDecorator>::`RTTI Class Hierarchy Descriptor'
	DD	00H
	DD	01H
	DD	FLAT:??_R2?$CDynamicPoolEx@VCHeaderDecorator@NEffectUpdateDecorator@@@@8
rdata$r	ENDS
;	COMDAT ??_R0?AV?$CDynamicPoolEx@VCHeaderDecorator@NEffectUpdateDecorator@@@@@8
data$rs	SEGMENT
??_R0?AV?$CDynamicPoolEx@VCHeaderDecorator@NEffectUpdateDecorator@@@@@8 DD FLAT:??_7type_info@@6B@ ; CDynamicPoolEx<NEffectUpdateDecorator::CHeaderDecorator> `RTTI Type Descriptor'
	DD	00H
	DB	'.?AV?$CDynamicPoolEx@VCHeaderDecorator@NEffectUpdateDeco'
	DB	'rator@@@@', 00H
data$rs	ENDS
;	COMDAT ??_R4?$CDynamicPoolEx@VCHeaderDecorator@NEffectUpdateDecorator@@@@6B@
rdata$r	SEGMENT
??_R4?$CDynamicPoolEx@VCHeaderDecorator@NEffectUpdateDecorator@@@@6B@ DD 00H ; CDynamicPoolEx<NEffectUpdateDecorator::CHeaderDecorator>::`RTTI Complete Object Locator'
	DD	00H
	DD	00H
	DD	FLAT:??_R0?AV?$CDynamicPoolEx@VCHeaderDecorator@NEffectUpdateDecorator@@@@@8
	DD	FLAT:??_R3?$CDynamicPoolEx@VCHeaderDecorator@NEffectUpdateDecorator@@@@8
rdata$r	ENDS
;	COMDAT ??_C@_0BC@KBDMBKEH@deque?$DMT?$DO?5too?5long@
CONST	SEGMENT
??_C@_0BC@KBDMBKEH@deque?$DMT?$DO?5too?5long@ DB 'deque<T> too long', 00H ; `string'
CONST	ENDS
;	COMDAT ??_7?$CDynamicPoolEx@VCHeaderDecorator@NEffectUpdateDecorator@@@@6B@
CONST	SEGMENT
??_7?$CDynamicPoolEx@VCHeaderDecorator@NEffectUpdateDecorator@@@@6B@ DD FLAT:??_R4?$CDynamicPoolEx@VCHeaderDecorator@NEffectUpdateDecorator@@@@6B@ ; CDynamicPoolEx<NEffectUpdateDecorator::CHeaderDecorator>::`vftable'
	DD	FLAT:??_E?$CDynamicPoolEx@VCHeaderDecorator@NEffectUpdateDecorator@@@@UAEPAXI@Z
CONST	ENDS
;	COMDAT ??_7?$CDynamicPoolEx@VCNullDecorator@NEffectUpdateDecorator@@@@6B@
CONST	SEGMENT
??_7?$CDynamicPoolEx@VCNullDecorator@NEffectUpdateDecorator@@@@6B@ DD FLAT:??_R4?$CDynamicPoolEx@VCNullDecorator@NEffectUpdateDecorator@@@@6B@ ; CDynamicPoolEx<NEffectUpdateDecorator::CNullDecorator>::`vftable'
	DD	FLAT:??_E?$CDynamicPoolEx@VCNullDecorator@NEffectUpdateDecorator@@@@UAEPAXI@Z
CONST	ENDS
;	COMDAT ??_7?$CDynamicPoolEx@VCTextureAnimationCWDecorator@NEffectUpdateDecorator@@@@6B@
CONST	SEGMENT
??_7?$CDynamicPoolEx@VCTextureAnimationCWDecorator@NEffectUpdateDecorator@@@@6B@ DD FLAT:??_R4?$CDynamicPoolEx@VCTextureAnimationCWDecorator@NEffectUpdateDecorator@@@@6B@ ; CDynamicPoolEx<NEffectUpdateDecorator::CTextureAnimationCWDecorator>::`vftable'
	DD	FLAT:??_E?$CDynamicPoolEx@VCTextureAnimationCWDecorator@NEffectUpdateDecorator@@@@UAEPAXI@Z
CONST	ENDS
;	COMDAT ??_7?$CDynamicPoolEx@VCTextureAnimationCCWDecorator@NEffectUpdateDecorator@@@@6B@
CONST	SEGMENT
??_7?$CDynamicPoolEx@VCTextureAnimationCCWDecorator@NEffectUpdateDecorator@@@@6B@ DD FLAT:??_R4?$CDynamicPoolEx@VCTextureAnimationCCWDecorator@NEffectUpdateDecorator@@@@6B@ ; CDynamicPoolEx<NEffectUpdateDecorator::CTextureAnimationCCWDecorator>::`vftable'
	DD	FLAT:??_E?$CDynamicPoolEx@VCTextureAnimationCCWDecorator@NEffectUpdateDecorator@@@@UAEPAXI@Z
CONST	ENDS
;	COMDAT ??_7?$CDynamicPoolEx@VCTextureAnimationRandomDecorator@NEffectUpdateDecorator@@@@6B@
CONST	SEGMENT
??_7?$CDynamicPoolEx@VCTextureAnimationRandomDecorator@NEffectUpdateDecorator@@@@6B@ DD FLAT:??_R4?$CDynamicPoolEx@VCTextureAnimationRandomDecorator@NEffectUpdateDecorator@@@@6B@ ; CDynamicPoolEx<NEffectUpdateDecorator::CTextureAnimationRandomDecorator>::`vftable'
	DD	FLAT:??_E?$CDynamicPoolEx@VCTextureAnimationRandomDecorator@NEffectUpdateDecorator@@@@UAEPAXI@Z
CONST	ENDS
;	COMDAT ??_7?$CDynamicPoolEx@VCAirResistanceDecorator@NEffectUpdateDecorator@@@@6B@
CONST	SEGMENT
??_7?$CDynamicPoolEx@VCAirResistanceDecorator@NEffectUpdateDecorator@@@@6B@ DD FLAT:??_R4?$CDynamicPoolEx@VCAirResistanceDecorator@NEffectUpdateDecorator@@@@6B@ ; CDynamicPoolEx<NEffectUpdateDecorator::CAirResistanceDecorator>::`vftable'
	DD	FLAT:??_E?$CDynamicPoolEx@VCAirResistanceDecorator@NEffectUpdateDecorator@@@@UAEPAXI@Z
CONST	ENDS
;	COMDAT ??_7?$CDynamicPoolEx@VCGravityDecorator@NEffectUpdateDecorator@@@@6B@
CONST	SEGMENT
??_7?$CDynamicPoolEx@VCGravityDecorator@NEffectUpdateDecorator@@@@6B@ DD FLAT:??_R4?$CDynamicPoolEx@VCGravityDecorator@NEffectUpdateDecorator@@@@6B@ ; CDynamicPoolEx<NEffectUpdateDecorator::CGravityDecorator>::`vftable'
	DD	FLAT:??_E?$CDynamicPoolEx@VCGravityDecorator@NEffectUpdateDecorator@@@@UAEPAXI@Z
CONST	ENDS
;	COMDAT ??_7?$CDynamicPoolEx@VCRotationDecorator@NEffectUpdateDecorator@@@@6B@
CONST	SEGMENT
??_7?$CDynamicPoolEx@VCRotationDecorator@NEffectUpdateDecorator@@@@6B@ DD FLAT:??_R4?$CDynamicPoolEx@VCRotationDecorator@NEffectUpdateDecorator@@@@6B@ ; CDynamicPoolEx<NEffectUpdateDecorator::CRotationDecorator>::`vftable'
	DD	FLAT:??_E?$CDynamicPoolEx@VCRotationDecorator@NEffectUpdateDecorator@@@@UAEPAXI@Z
CONST	ENDS
;	COMDAT ??_C@_0BH@KEGDJEJM@BINARY_UpdateLovePoint@
CONST	SEGMENT
??_C@_0BH@KEGDJEJM@BINARY_UpdateLovePoint@ DB 'BINARY_UpdateLovePoint', 00H ; `string'
CONST	ENDS
;	COMDAT ??_C@_0BB@EGDBDJKJ@BINARY_LoverInfo@
CONST	SEGMENT
??_C@_0BB@EGDBDJKJ@BINARY_LoverInfo@ DB 'BINARY_LoverInfo', 00H ; `string'
CONST	ENDS
;	COMDAT ??_C@_04LCKGAMBB@?$CIsi?$CJ@
CONST	SEGMENT
??_C@_04LCKGAMBB@?$CIsi?$CJ@ DB '(si)', 00H		; `string'
CONST	ENDS
;	COMDAT ??_C@_0BH@NJGJICND@BINARY_OpenAtlasWindow@
CONST	SEGMENT
??_C@_0BH@NJGJICND@BINARY_OpenAtlasWindow@ DB 'BINARY_OpenAtlasWindow', 00H ; `string'
CONST	ENDS
;	COMDAT ??_C@_0BH@NIIPMAGM@SetEquipmentDialogAttr@
CONST	SEGMENT
??_C@_0BH@NIIPMAGM@SetEquipmentDialogAttr@ DB 'SetEquipmentDialogAttr', 00H ; `string'
CONST	ENDS
;	COMDAT ??_C@_0BJ@DBOCKHJF@SetEquipmentDialogSocket@
CONST	SEGMENT
??_C@_0BJ@DBOCKHJF@SetEquipmentDialogSocket@ DB 'SetEquipmentDialogSocket'
	DB	00H						; `string'
CONST	ENDS
;	COMDAT ??_C@_0BH@DIEBEMHE@SetEquipmentDialogItem@
CONST	SEGMENT
??_C@_0BH@DIEBEMHE@SetEquipmentDialogItem@ DB 'SetEquipmentDialogItem', 00H ; `string'
CONST	ENDS
;	COMDAT ??_C@_0BE@OLAMAMAK@OpenEquipmentDialog@
CONST	SEGMENT
??_C@_0BE@OLAMAMAK@OpenEquipmentDialog@ DB 'OpenEquipmentDialog', 00H ; `string'
CONST	ENDS
;	COMDAT ??_C@_0BI@NIFEGIKP@BINARY_NEW_RemoveAffect@
CONST	SEGMENT
??_C@_0BI@NIFEGIKP@BINARY_NEW_RemoveAffect@ DB 'BINARY_NEW_RemoveAffect', 00H ; `string'
CONST	ENDS
;	COMDAT ??_C@_0BF@DEMCFMHM@BINARY_NEW_AddAffect@
CONST	SEGMENT
??_C@_0BF@DEMCFMHM@BINARY_NEW_AddAffect@ DB 'BINARY_NEW_AddAffect', 00H ; `string'
CONST	ENDS
;	COMDAT ??_C@_0BJ@FMBMECGE@Wed?5Sep?511?510?339?322?52013@
CONST	SEGMENT
??_C@_0BJ@FMBMECGE@Wed?5Sep?511?510?339?322?52013@ DB 'Wed Sep 11 10:39:2'
	DB	'2 2013', 00H				; `string'
CONST	ENDS
;	COMDAT ??_C@_0BN@PKCCDLMA@SendClientReportPacket?5Error@
CONST	SEGMENT
??_C@_0BN@PKCCDLMA@SendClientReportPacket?5Error@ DB 'SendClientReportPac'
	DB	'ket Error', 00H				; `string'
CONST	ENDS
;	COMDAT ??_C@_0L@DJAIFHCH@1215955205@
CONST	SEGMENT
??_C@_0L@DJAIFHCH@1215955205@ DB '1215955205', 00H	; `string'
CONST	ENDS
;	COMDAT ??_C@_07FANHMMCA@?$CIiiiii?$CJ@
CONST	SEGMENT
??_C@_07FANHMMCA@?$CIiiiii?$CJ@ DB '(iiiii)', 00H	; `string'
CONST	ENDS
;	COMDAT ??_C@_0BN@KLPAAKFJ@AppendMaterialToRefineDialog@
CONST	SEGMENT
??_C@_0BN@KLPAAKFJ@AppendMaterialToRefineDialog@ DB 'AppendMaterialToRefi'
	DB	'neDialog', 00H				; `string'
CONST	ENDS
;	COMDAT ??_C@_0BB@CHHJLMHC@OpenRefineDialog@
CONST	SEGMENT
??_C@_0BB@CHHJLMHC@OpenRefineDialog@ DB 'OpenRefineDialog', 00H ; `string'
CONST	ENDS
;	COMDAT ??_C@_06GAHGMLBJ@?$CIiiii?$CJ@
CONST	SEGMENT
??_C@_06GAHGMLBJ@?$CIiiii?$CJ@ DB '(iiii)', 00H		; `string'
CONST	ENDS
;	COMDAT ??_C@_0BK@CKEFNKBC@BINARY_PrivateShop_Appear@
CONST	SEGMENT
??_C@_0BK@CKEFNKBC@BINARY_PrivateShop_Appear@ DB 'BINARY_PrivateShop_Appe'
	DB	'ar', 00H					; `string'
CONST	ENDS
;	COMDAT ??_C@_0BN@BEOHMMCM@BINARY_PrivateShop_Disappear@
CONST	SEGMENT
??_C@_0BN@BEOHMMCM@BINARY_PrivateShop_Disappear@ DB 'BINARY_PrivateShop_D'
	DB	'isappear', 00H				; `string'
CONST	ENDS
;	COMDAT ??_C@_0BB@OABOAGML@OnFishingSuccess@
CONST	SEGMENT
??_C@_0BB@OABOAGML@OnFishingSuccess@ DB 'OnFishingSuccess', 00H ; `string'
CONST	ENDS
;	COMDAT ??_C@_0BA@ODHDNEFK@OnFishingNotify@
CONST	SEGMENT
??_C@_0BA@ODHDNEFK@OnFishingNotify@ DB 'OnFishingNotify', 00H ; `string'
CONST	ENDS
;	COMDAT ??_C@_0BH@DPEJLPAP@OnFishingNotifyUnknown@
CONST	SEGMENT
??_C@_0BH@DPEJLPAP@OnFishingNotifyUnknown@ DB 'OnFishingNotifyUnknown', 00H ; `string'
CONST	ENDS
;	COMDAT ??_C@_0BB@CJFMLNJB@OnFishingFailure@
CONST	SEGMENT
??_C@_0BB@CJFMLNJB@OnFishingFailure@ DB 'OnFishingFailure', 00H ; `string'
CONST	ENDS
;	COMDAT ??_C@_0BN@IAMOHDFF@?5?$DO?$DO?5Guild?5Money?5Change?5?3?5?$CFd?6@
CONST	SEGMENT
??_C@_0BN@IAMOHDFF@?5?$DO?$DO?5Guild?5Money?5Change?5?3?5?$CFd?6@ DB ' >>'
	DB	' Guild Money Change : %d', 0aH, 00H		; `string'
CONST	ENDS
;	COMDAT ??_C@_0BM@LBOEDDLE@BINARY_GuildWar_OnRecvPoint@
CONST	SEGMENT
??_C@_0BM@LBOEDDLE@BINARY_GuildWar_OnRecvPoint@ DB 'BINARY_GuildWar_OnRec'
	DB	'vPoint', 00H				; `string'
CONST	ENDS
;	COMDAT ??_C@_05HEIOBLPG@?$CIiii?$CJ@
CONST	SEGMENT
??_C@_05HEIOBLPG@?$CIiii?$CJ@ DB '(iii)', 00H		; `string'
CONST	ENDS
;	COMDAT ??_C@_0CA@FNEJFGNL@?5?$DO?$DO?5GulidWarEndList?5?$FL?$CFd?5vs?5?$CFd?$FN?6@
CONST	SEGMENT
??_C@_0CA@FNEJFGNL@?5?$DO?$DO?5GulidWarEndList?5?$FL?$CFd?5vs?5?$CFd?$FN?6@ DB ' '
	DB	'>> GulidWarEndList [%d vs %d]', 0aH, 00H	; `string'
CONST	ENDS
;	COMDAT ??_C@_0BN@PIMGMDLK@?5?$DO?$DO?5GulidWarList?5?$FL?$CFd?5vs?5?$CFd?$FN?6@
CONST	SEGMENT
??_C@_0BN@PIMGMDLK@?5?$DO?$DO?5GulidWarList?5?$FL?$CFd?5vs?5?$CFd?$FN?6@ DB ' '
	DB	'>> GulidWarList [%d vs %d]', 0aH, 00H	; `string'
CONST	ENDS
;	COMDAT ??_C@_0BG@NACAFPAN@BINARY_GuildWar_OnEnd@
CONST	SEGMENT
??_C@_0BG@NACAFPAN@BINARY_GuildWar_OnEnd@ DB 'BINARY_GuildWar_OnEnd', 00H ; `string'
CONST	ENDS
;	COMDAT ??_C@_0CM@HGKOKFIL@?5?$DO?$DO?5GUILD_SUBHEADER_GC_WAR?5?3?5GU@
CONST	SEGMENT
??_C@_0CM@HGKOKFIL@?5?$DO?$DO?5GUILD_SUBHEADER_GC_WAR?5?3?5GU@ DB ' >> GU'
	DB	'ILD_SUBHEADER_GC_WAR : GUILD_WAR_END', 0aH, 00H ; `string'
CONST	ENDS
;	COMDAT ??_C@_0BI@JKFNHMFD@BINARY_GuildWar_OnStart@
CONST	SEGMENT
??_C@_0BI@JKFNHMFD@BINARY_GuildWar_OnStart@ DB 'BINARY_GuildWar_OnStart', 00H ; `string'
CONST	ENDS
;	COMDAT ??_C@_0DI@LOGKJDI@?5?$DO?$DO?5GUILD_SUBHEADER_GC_WAR?5?3?5GU@
CONST	SEGMENT
??_C@_0DI@LOGKJDI@?5?$DO?$DO?5GUILD_SUBHEADER_GC_WAR?5?3?5GU@ DB ' >> GUI'
	DB	'LD_SUBHEADER_GC_WAR : GUILD_WAR_ON_WAR : %d, %d', 0aH, 00H ; `string'
CONST	ENDS
;	COMDAT ??_C@_0BO@JAJLCPKG@BINARY_GuildWar_OnRecvDeclare@
CONST	SEGMENT
??_C@_0BO@JAJLCPKG@BINARY_GuildWar_OnRecvDeclare@ DB 'BINARY_GuildWar_OnR'
	DB	'ecvDeclare', 00H				; `string'
CONST	ENDS
;	COMDAT ??_C@_0DF@BIEEJDD@?5?$DO?$DO?5GUILD_SUBHEADER_GC_WAR?5?3?5GU@
CONST	SEGMENT
??_C@_0DF@BIEEJDD@?5?$DO?$DO?5GUILD_SUBHEADER_GC_WAR?5?3?5GU@ DB ' >> GUI'
	DB	'LD_SUBHEADER_GC_WAR : GUILD_WAR_RECV_DECLARE', 0aH, 00H ; `string'
CONST	ENDS
;	COMDAT ??_C@_0BO@HMPGICIO@BINARY_GuildWar_OnSendDeclare@
CONST	SEGMENT
??_C@_0BO@HMPGICIO@BINARY_GuildWar_OnSendDeclare@ DB 'BINARY_GuildWar_OnS'
	DB	'endDeclare', 00H				; `string'
CONST	ENDS
;	COMDAT ??_C@_0DF@PELONEKB@?5?$DO?$DO?5GUILD_SUBHEADER_GC_WAR?5?3?5GU@
CONST	SEGMENT
??_C@_0DF@PELONEKB@?5?$DO?$DO?5GUILD_SUBHEADER_GC_WAR?5?3?5GU@ DB ' >> GU'
	DB	'ILD_SUBHEADER_GC_WAR : GUILD_WAR_SEND_DECLARE', 0aH, 00H ; `string'
CONST	ENDS
;	COMDAT ??_C@_0BI@EECNELJB@?5?$DMGuild?5Invite?$DO?5?$CFd?0?5?$CFs?6@
CONST	SEGMENT
??_C@_0BI@EECNELJB@?5?$DMGuild?5Invite?$DO?5?$CFd?0?5?$CFs?6@ DB ' <Guild'
	DB	' Invite> %d, %s', 0aH, 00H			; `string'
CONST	ENDS
;	COMDAT ??_C@_0BI@GJGOAKHL@RecvGuildInviteQuestion@
CONST	SEGMENT
??_C@_0BI@GJGOAKHL@RecvGuildInviteQuestion@ DB 'RecvGuildInviteQuestion', 00H ; `string'
CONST	ENDS
;	COMDAT ??_C@_0CD@MPFPDEHG@?5?$DMChangeMemberGeneralFlag?$DO?5?$CFd?0?5@
CONST	SEGMENT
??_C@_0CD@MPFPDEHG@?5?$DMChangeMemberGeneralFlag?$DO?5?$CFd?0?5@ DB ' <Ch'
	DB	'angeMemberGeneralFlag> %d, %d', 0aH, 00H	; `string'
CONST	ENDS
;	COMDAT ??_C@_0BK@FEHNPJOD@?5?$DMSkillInfo?$DO?5?$CFd?5?1?5?$CFd?0?5?$CFd?6@
CONST	SEGMENT
??_C@_0BK@FEHNPJOD@?5?$DMSkillInfo?$DO?5?$CFd?5?1?5?$CFd?0?5?$CFd?6@ DB ' '
	DB	'<SkillInfo> %d / %d, %d', 0aH, 00H		; `string'
CONST	ENDS
;	COMDAT ??_C@_0BN@HEKKNAEA@?5?$DMChangeMemberGrade?$DO?5?$CFd?0?5?$CFd?6@
CONST	SEGMENT
??_C@_0BN@HEKKNAEA@?5?$DMChangeMemberGrade?$DO?5?$CFd?0?5?$CFd?6@ DB ' <C'
	DB	'hangeMemberGrade> %d, %d', 0aH, 00H		; `string'
CONST	ENDS
;	COMDAT ??_C@_0BF@GJIHEANJ@?5?$DMChangeEXP?$DO?5?$CFd?0?5?$CFd?6@
CONST	SEGMENT
??_C@_0BF@GJIHEANJ@?5?$DMChangeEXP?$DO?5?$CFd?0?5?$CFd?6@ DB ' <ChangeEXP'
	DB	'> %d, %d', 0aH, 00H				; `string'
CONST	ENDS
;	COMDAT ??_C@_0CC@KDHBOMAA@?5?$DMChange?5Grade?5Authority?$DO?5?$CFd?0?5?$CF@
CONST	SEGMENT
??_C@_0CC@KDHBOMAA@?5?$DMChange?5Grade?5Authority?$DO?5?$CFd?0?5?$CF@ DB ' '
	DB	'<Change Grade Authority> %d, %d', 0aH, 00H	; `string'
CONST	ENDS
;	COMDAT ??_C@_0BN@JFJPHNLH@?5?$DMChange?5Grade?5Name?$DO?5?$CFd?0?5?$CFs?6@
CONST	SEGMENT
??_C@_0BN@JFJPHNLH@?5?$DMChange?5Grade?5Name?$DO?5?$CFd?0?5?$CFs?6@ DB ' '
	DB	'<Change Grade Name> %d, %s', 0aH, 00H	; `string'
CONST	ENDS
;	COMDAT ??_C@_0BC@MJKOOFCD@RefreshGuildGrade@
CONST	SEGMENT
??_C@_0BC@MJKOOFCD@RefreshGuildGrade@ DB 'RefreshGuildGrade', 00H ; `string'
CONST	ENDS
;	COMDAT ??_C@_0O@EGDOPDJO@?5?$DMRemove?$DO?5?$CFd?6@
CONST	SEGMENT
??_C@_0O@EGDOPDJO@?5?$DMRemove?$DO?5?$CFd?6@ DB ' <Remove> %d', 0aH, 00H ; `string'
CONST	ENDS
;	COMDAT ??_C@_0M@JPGKCCFN@DeleteGuild@
CONST	SEGMENT
??_C@_0M@JPGKCCFN@DeleteGuild@ DB 'DeleteGuild', 00H	; `string'
CONST	ENDS
;	COMDAT ??_C@_0CC@HBGAJKKF@?5SendGuildWithdrawMoneyPacket?5?$CF@
CONST	SEGMENT
??_C@_0CC@HBGAJKKF@?5SendGuildWithdrawMoneyPacket?5?$CF@ DB ' SendGuildWi'
	DB	'thdrawMoneyPacket %d', 0aH, 00H		; `string'
CONST	ENDS
;	COMDAT ??_C@_0CB@OEPAEO@?5SendGuildDepositMoneyPacket?5?$CFd@
CONST	SEGMENT
??_C@_0CB@OEPAEO@?5SendGuildDepositMoneyPacket?5?$CFd@ DB ' SendGuildDepo'
	DB	'sitMoneyPacket %d', 0aH, 00H		; `string'
CONST	ENDS
;	COMDAT ??_C@_0BO@DLDFHEKF@?5SendGuildChargeGSPPacket?5?$CFd?6@
CONST	SEGMENT
??_C@_0BO@DLDFHEKF@?5SendGuildChargeGSPPacket?5?$CFd?6@ DB ' SendGuildCha'
	DB	'rgeGSPPacket %d', 0aH, 00H			; `string'
CONST	ENDS
;	COMDAT ??_C@_0CF@HPNCOLAE@?5SendGuildInviteAnswerPacket?5?$CFd@
CONST	SEGMENT
??_C@_0CF@HPNCOLAE@?5SendGuildInviteAnswerPacket?5?$CFd@ DB ' SendGuildIn'
	DB	'viteAnswerPacket %d, %d', 0aH, 00H		; `string'
CONST	ENDS
;	COMDAT ??_C@_0DA@BBFAPAKJ@?5SendGuildChangeMemberGeneralFl@
CONST	SEGMENT
??_C@_0DA@BBFAPAKJ@?5SendGuildChangeMemberGeneralFl@ DB ' SendGuildChange'
	DB	'MemberGeneralFlagPacket %d, %d', 0aH, 00H	; `string'
CONST	ENDS
;	COMDAT ??_C@_0CB@HHLIHMFO@?5SendGuildUseSkillPacket?5?$CFd?0?5?$CFd@
CONST	SEGMENT
??_C@_0CB@HHLIHMFO@?5SendGuildUseSkillPacket?5?$CFd?0?5?$CFd@ DB ' SendGu'
	DB	'ildUseSkillPacket %d, %d', 0aH, 00H		; `string'
CONST	ENDS
;	COMDAT ??_C@_0CK@NJDDFMMG@?5SendGuildChangeMemberGradePack@
CONST	SEGMENT
??_C@_0CK@NJDDFMMG@?5SendGuildChangeMemberGradePack@ DB ' SendGuildChange'
	DB	'MemberGradePacket %d, %d', 0aH, 00H		; `string'
CONST	ENDS
;	COMDAT ??_C@_0CD@DFFJJDFM@?5SendGuildRefreshCommentPacket?5@
CONST	SEGMENT
??_C@_0CD@DFFJJDFM@?5SendGuildRefreshCommentPacket?5@ DB ' SendGuildRefre'
	DB	'shCommentPacket %d', 0aH, 00H		; `string'
CONST	ENDS
;	COMDAT ??_C@_0CC@HHBLBNGP@?5SendGuildDeleteCommentPacket?5?$CF@
CONST	SEGMENT
??_C@_0CC@HHBLBNGP@?5SendGuildDeleteCommentPacket?5?$CF@ DB ' SendGuildDe'
	DB	'leteCommentPacket %d', 0aH, 00H		; `string'
CONST	ENDS
;	COMDAT ??_C@_0CE@ILONPNIK@?5SendGuildPostCommentPacket?5?$CFd?0@
CONST	SEGMENT
??_C@_0CE@ILONPNIK@?5SendGuildPostCommentPacket?5?$CFd?0@ DB ' SendGuildP'
	DB	'ostCommentPacket %d, %s', 0aH, 00H		; `string'
CONST	ENDS
;	COMDAT ??_C@_0BK@JBHNFCGO@?5SendGuildOfferPacket?5?$CFd?6@
CONST	SEGMENT
??_C@_0BK@JBHNFCGO@?5SendGuildOfferPacket?5?$CFd?6@ DB ' SendGuildOfferPa'
	DB	'cket %d', 0aH, 00H				; `string'
CONST	ENDS
;	COMDAT ??_C@_0CN@ENAPGANL@?5SendGuildChangeGradeAuthorityP@
CONST	SEGMENT
??_C@_0CN@ENAPGANL@?5SendGuildChangeGradeAuthorityP@ DB ' SendGuildChange'
	DB	'GradeAuthorityPacket %d, %d', 0aH, 00H	; `string'
CONST	ENDS
;	COMDAT ??_C@_0CI@HCDCDOMK@?5SendGuildChangeGradeNamePacket@
CONST	SEGMENT
??_C@_0CI@HCDCDOMK@?5SendGuildChangeGradeNamePacket@ DB ' SendGuildChange'
	DB	'GradeNamePacket %d, %s', 0aH, 00H		; `string'
CONST	ENDS
;	COMDAT ??_C@_0CB@OCJDCDKN@?5SendGuildRemoveMemberPacket?5?$CFd@
CONST	SEGMENT
??_C@_0CB@OCJDCDKN@?5SendGuildRemoveMemberPacket?5?$CFd@ DB ' SendGuildRe'
	DB	'moveMemberPacket %d', 0aH, 00H		; `string'
CONST	ENDS
;	COMDAT ??_C@_0BL@GHDBPEKM@?5SendGuildAddMemberPacket?6@
CONST	SEGMENT
??_C@_0BL@GHDBPEKM@?5SendGuildAddMemberPacket?6@ DB ' SendGuildAddMemberP'
	DB	'acket', 0aH, 00H				; `string'
CONST	ENDS
;	COMDAT ??_C@_0BN@HDHIECAG@?5?$DO?$DO?5RecvPartyParameter?5?3?5?$CFd?6@
CONST	SEGMENT
??_C@_0BN@HDHIECAG@?5?$DO?$DO?5RecvPartyParameter?5?3?5?$CFd?6@ DB ' >> R'
	DB	'ecvPartyParameter : %d', 0aH, 00H		; `string'
CONST	ENDS
;	COMDAT ??_C@_0BF@FFLEPOCB@ChangePartyParameter@
CONST	SEGMENT
??_C@_0BF@FFLEPOCB@ChangePartyParameter@ DB 'ChangePartyParameter', 00H ; `string'
CONST	ENDS
;	COMDAT ??_C@_0BO@JOBNIIPD@?5?$DO?$DO?5RecvPartyUnlink?5?3?5?$CFd?0?5?$CFd?6@
CONST	SEGMENT
??_C@_0BO@JOBNIIPD@?5?$DO?$DO?5RecvPartyUnlink?5?3?5?$CFd?0?5?$CFd?6@ DB ' '
	DB	'>> RecvPartyUnlink : %d, %d', 0aH, 00H	; `string'
CONST	ENDS
;	COMDAT ??_C@_0BC@EBBCCLIK@UnlinkPartyMember@
CONST	SEGMENT
??_C@_0BC@EBBCCLIK@UnlinkPartyMember@ DB 'UnlinkPartyMember', 00H ; `string'
CONST	ENDS
;	COMDAT ??_C@_0BF@KBCGJNOO@UnlinkAllPartyMember@
CONST	SEGMENT
??_C@_0BF@KBCGJNOO@UnlinkAllPartyMember@ DB 'UnlinkAllPartyMember', 00H ; `string'
CONST	ENDS
;	COMDAT ??_C@_0BM@FEBFPLO@?5?$DO?$DO?5RecvPartyLink?5?3?5?$CFd?0?5?$CFd?6@
CONST	SEGMENT
??_C@_0BM@FEBFPLO@?5?$DO?$DO?5RecvPartyLink?5?3?5?$CFd?0?5?$CFd?6@ DB ' >'
	DB	'> RecvPartyLink : %d, %d', 0aH, 00H		; `string'
CONST	ENDS
;	COMDAT ??_C@_0BA@JPJIDGOI@LinkPartyMember@
CONST	SEGMENT
??_C@_0BA@JPJIDGOI@LinkPartyMember@ DB 'LinkPartyMember', 00H ; `string'
CONST	ENDS
;	COMDAT ??_C@_0BK@FHNAOGNK@?5?$DO?$DO?5RecvPartyRemove?5?3?5?$CFd?6@
CONST	SEGMENT
??_C@_0BK@FHNAOGNK@?5?$DO?$DO?5RecvPartyRemove?5?3?5?$CFd?6@ DB ' >> Recv'
	DB	'PartyRemove : %d', 0aH, 00H			; `string'
CONST	ENDS
;	COMDAT ??_C@_0BC@DGCJFOHN@RemovePartyMember@
CONST	SEGMENT
??_C@_0BC@DGCJFOHN@RemovePartyMember@ DB 'RemovePartyMember', 00H ; `string'
CONST	ENDS
;	COMDAT ??_C@_0BG@JOKFDABD@UpdatePartyMemberInfo@
CONST	SEGMENT
??_C@_0BG@JOKFDABD@UpdatePartyMemberInfo@ DB 'UpdatePartyMemberInfo', 00H ; `string'
CONST	ENDS
;	COMDAT ??_C@_0BL@GPMBAKEI@?5?$DO?$DO?5RecvPartyAdd?5?3?5?$CFd?0?5?$CFs?6@
CONST	SEGMENT
??_C@_0BL@GPMBAKEI@?5?$DO?$DO?5RecvPartyAdd?5?3?5?$CFd?0?5?$CFs?6@ DB ' >'
	DB	'> RecvPartyAdd : %d, %s', 0aH, 00H		; `string'
CONST	ENDS
;	COMDAT ??_C@_0P@JPKHKGNP@AddPartyMember@
CONST	SEGMENT
??_C@_0P@JPKHKGNP@AddPartyMember@ DB 'AddPartyMember', 00H ; `string'
CONST	ENDS
;	COMDAT ??_C@_0BO@EBDJDNJB@?5?$DO?$DO?5RecvPartyInvite?5?3?5?$CFd?0?5?$CFs?6@
CONST	SEGMENT
??_C@_0BO@EBDJDNJB@?5?$DO?$DO?5RecvPartyInvite?5?3?5?$CFd?0?5?$CFs?6@ DB ' '
	DB	'>> RecvPartyInvite : %d, %s', 0aH, 00H	; `string'
CONST	ENDS
;	COMDAT ??_C@_0BI@FPJOLEHH@RecvPartyInviteQuestion@
CONST	SEGMENT
??_C@_0BI@FPJOLEHH@RecvPartyInviteQuestion@ DB 'RecvPartyInviteQuestion', 00H ; `string'
CONST	ENDS
;	COMDAT ??_C@_04JMLDJNEM@?$CIis?$CJ@
CONST	SEGMENT
??_C@_04JMLDJNEM@?$CIis?$CJ@ DB '(is)', 00H		; `string'
CONST	ENDS
;	COMDAT ??_C@_0EO@GALKDEGO@?5CPythonNetworkStream?3?3RecvPart@
CONST	SEGMENT
??_C@_0EO@GALKDEGO@?5CPythonNetworkStream?3?3RecvPart@ DB ' CPythonNetwor'
	DB	'kStream::RecvPartyInvite - Failed to find leader instance [%d'
	DB	']', 0aH, 00H				; `string'
CONST	ENDS
;	COMDAT ??_C@_0CD@LLPEDDBL@?5?$DM?$DM?5SendPartyParameterPacket?5?3?5@
CONST	SEGMENT
??_C@_0CD@LLPEDDBL@?5?$DM?$DM?5SendPartyParameterPacket?5?3?5@ DB ' << Se'
	DB	'ndPartyParameterPacket : %d', 0aH, 00H	; `string'
CONST	ENDS
;	COMDAT ??_C@_0EH@IOBBPNMN@CPythonNetworkStream?3?3SendParty@
CONST	SEGMENT
??_C@_0EH@IOBBPNMN@CPythonNetworkStream?3?3SendParty@ DB 'CPythonNetworkS'
	DB	'tream::SendPartyParameterPacket(%d) - PACKET SEND ERROR', 00H ; `string'
CONST	ENDS
;	COMDAT ??_C@_0CG@GLODGHKD@?5?$DM?$DM?5SendPartyUseSkillPacket?5?3?5?$CF@
CONST	SEGMENT
??_C@_0CG@GLODGHKD@?5?$DM?$DM?5SendPartyUseSkillPacket?5?3?5?$CF@ DB ' <<'
	DB	' SendPartyUseSkillPacket : %d, %d', 0aH, 00H ; `string'
CONST	ENDS
;	COMDAT ??_C@_0EM@BMAFGIHC@CPythonNetworkStream?3?3SendParty@
CONST	SEGMENT
??_C@_0EM@BMAFGIHC@CPythonNetworkStream?3?3SendParty@ DB 'CPythonNetworkS'
	DB	'tream::SendPartyUseSkillPacket(%ud, %ud) - PACKET SEND ERROR', 00H ; `string'
CONST	ENDS
;	COMDAT ??_C@_0CK@PHAHCCJC@?5?$DM?$DM?5SendPartySetStatePacket?5?3?5?$CF@
CONST	SEGMENT
??_C@_0CK@PHAHCCJC@?5?$DM?$DM?5SendPartySetStatePacket?5?3?5?$CF@ DB ' <<'
	DB	' SendPartySetStatePacket : %d, %d, %d', 0aH, 00H ; `string'
CONST	ENDS
;	COMDAT ??_C@_0EM@FFPCCHJM@CPythonNetworkStream?3?3SendParty@
CONST	SEGMENT
??_C@_0EM@FFPCCHJM@CPythonNetworkStream?3?3SendParty@ DB 'CPythonNetworkS'
	DB	'tream::SendPartySetStatePacket(%ud, %ud) - PACKET SEND ERROR', 00H ; `string'
CONST	ENDS
;	COMDAT ??_C@_0CA@HANJMBEA@?5?$DM?$DM?5SendPartyRemovePacket?5?3?5?$CFd?6@
CONST	SEGMENT
??_C@_0CA@HANJMBEA@?5?$DM?$DM?5SendPartyRemovePacket?5?3?5?$CFd?6@ DB ' <'
	DB	'< SendPartyRemovePacket : %d', 0aH, 00H	; `string'
CONST	ENDS
;	COMDAT ??_C@_0EG@BBBGKACF@CPythonNetworkStream?3?3SendParty@
CONST	SEGMENT
??_C@_0EG@BBBGKACF@CPythonNetworkStream?3?3SendParty@ DB 'CPythonNetworkS'
	DB	'tream::SendPartyRemovePacket [%ud] - PACKET SEND ERROR', 00H ; `string'
CONST	ENDS
;	COMDAT ??_C@_0CK@GHKGLGPO@?5?$DM?$DM?5SendPartyInviteAnswerPacket@
CONST	SEGMENT
??_C@_0CK@GHKGLGPO@?5?$DM?$DM?5SendPartyInviteAnswerPacket@ DB ' << SendP'
	DB	'artyInviteAnswerPacket : %d, %d', 0aH, 00H	; `string'
CONST	ENDS
;	COMDAT ??_C@_0FA@IIILKEFH@CPythonNetworkStream?3?3SendParty@
CONST	SEGMENT
??_C@_0FA@IIILKEFH@CPythonNetworkStream?3?3SendParty@ DB 'CPythonNetworkS'
	DB	'tream::SendPartyInviteAnswerPacket [%ud %ud] - PACKET SEND ER'
	DB	'ROR', 00H					; `string'
CONST	ENDS
;	COMDAT ??_C@_0CA@GNHHEHBK@?5?$DM?$DM?5SendPartyInvitePacket?5?3?5?$CFd?6@
CONST	SEGMENT
??_C@_0CA@GNHHEHBK@?5?$DM?$DM?5SendPartyInvitePacket?5?3?5?$CFd?6@ DB ' <'
	DB	'< SendPartyInvitePacket : %d', 0aH, 00H	; `string'
CONST	ENDS
;	COMDAT ??_C@_0EG@HLBPKODM@CPythonNetworkStream?3?3SendParty@
CONST	SEGMENT
??_C@_0EG@HLBPKODM@CPythonNetworkStream?3?3SendParty@ DB 'CPythonNetworkS'
	DB	'tream::SendPartyInvitePacket [%ud] - PACKET SEND ERROR', 00H ; `string'
CONST	ENDS
;	COMDAT ??_C@_0DM@NAODJGJE@CPythonNetworkStream?3?3SendSyncP@
CONST	SEGMENT
??_C@_0DM@NAODJGJE@CPythonNetworkStream?3?3SendSyncP@ DB 'CPythonNetworkS'
	DB	'tream::SendSyncPositionElementPacket - ERROR', 00H ; `string'
CONST	ENDS
;	COMDAT ??_C@_0BJ@MBCMDDJG@Send?5Target?5Packet?5Error@
CONST	SEGMENT
??_C@_0BJ@MBCMDDJG@Send?5Target?5Packet?5Error@ DB 'Send Target Packet Er'
	DB	'ror', 00H					; `string'
CONST	ENDS
;	COMDAT ??_C@_0BP@MONNHODC@Send?5FlyTargeting?5Packet?5Error@
CONST	SEGMENT
??_C@_0BP@MONNHODC@Send?5FlyTargeting?5Packet?5Error@ DB 'Send FlyTargeti'
	DB	'ng Packet Error', 00H			; `string'
CONST	ENDS
;	COMDAT ??_C@_0BG@GKKFNNN@SendShootPacket?5Error@
CONST	SEGMENT
??_C@_0BG@GKKFNNN@SendShootPacket?5Error@ DB 'SendShootPacket Error', 00H ; `string'
CONST	ENDS
;	COMDAT ??_C@_0EM@NIJLGOIC@CPythonNetworkStream?3?3RecvFlyTa@
CONST	SEGMENT
??_C@_0EM@NIJLGOIC@CPythonNetworkStream?3?3RecvFlyTa@ DB 'CPythonNetworkS'
	DB	'tream::RecvFlyTargetingPacket() - dwShooterVID[%d] NOT EXIST', 00H ; `string'
CONST	ENDS
;	COMDAT ??_C@_0BN@KNAMGOGH@VID?5?$FL?$CFd?$FN?$LA?$KB?5?E?$LI?$LA?Y?$MA?$LL?5?C?$NP?$LA?$KB?5?$LM?$LD?A?$KE?6@
CONST	SEGMENT
??_C@_0BN@KNAMGOGH@VID?5?$FL?$CFd?$FN?$LA?$KB?5?E?$LI?$LA?Y?$MA?$LL?5?C?$NP?$LA?$KB?5?$LM?$LD?A?$KE?6@ DB 'V'
	DB	'ID [%d]', 0b0H, 0a1H, ' ', 0c5H, 0b8H, 0b0H, 0d9H, 0c0H, 0bbH
	DB	' ', 0c3H, 0dfH, 0b0H, 0a1H, ' ', 0bcH, 0b3H, 0c1H, 0a4H, 0aH, 00H ; `string'
CONST	ENDS
;	COMDAT ??_C@_0CA@IBBLODAF@Send?5Battle?5Attack?5Packet?5Error@
CONST	SEGMENT
??_C@_0CA@IBBLODAF@Send?5Battle?5Attack?5Packet?5Error@ DB 'Send Battle A'
	DB	'ttack Packet Error', 00H			; `string'
CONST	ENDS
;	COMDAT ??_C@_0BI@OCDKMKMI@Recv?5Speed?5Packet?5Error@
CONST	SEGMENT
??_C@_0BI@OCDKMKMI@Recv?5Speed?5Packet?5Error@ DB 'Recv Speed Packet Erro'
	DB	'r', 00H					; `string'
CONST	ENDS
;	COMDAT ??_C@_0BI@LEDBDCKL@Recv?5Mount?5Packet?5Error@
CONST	SEGMENT
??_C@_0BI@LEDBDCKL@Recv?5Mount?5Packet?5Error@ DB 'Recv Mount Packet Erro'
	DB	'r', 00H					; `string'
CONST	ENDS
;	COMDAT ??_C@_0BB@PDPGJKAD@SetHPTargetBoard@
CONST	SEGMENT
??_C@_0BB@PDPGJKAD@SetHPTargetBoard@ DB 'SetHPTargetBoard', 00H ; `string'
CONST	ENDS
;	COMDAT ??_C@_04INACLLOK@?$CIii?$CJ@
CONST	SEGMENT
??_C@_04INACLLOK@?$CIii?$CJ@ DB '(ii)', 00H		; `string'
CONST	ENDS
;	COMDAT ??_C@_0BM@KLEOIHKF@CloseTargetBoardIfDifferent@
CONST	SEGMENT
??_C@_0BM@KLEOIHKF@CloseTargetBoardIfDifferent@ DB 'CloseTargetBoardIfDif'
	DB	'ferent', 00H				; `string'
CONST	ENDS
;	COMDAT ??_C@_0BM@PIHJNOHE@Damage?5is?5equal?5or?5below?50?4@
CONST	SEGMENT
??_C@_0BM@PIHJNOHE@Damage?5is?5equal?5or?5below?50?4@ DB 'Damage is equal'
	DB	' or below 0.', 00H				; `string'
CONST	ENDS
;	COMDAT ??_C@_0BJ@HIJGCIDI@Recv?5Target?5Packet?5Error@
CONST	SEGMENT
??_C@_0BJ@HIJGCIDI@Recv?5Target?5Packet?5Error@ DB 'Recv Target Packet Er'
	DB	'ror', 00H					; `string'
CONST	ENDS
;	COMDAT ??_C@_0DE@EBNCHOOM@CPythonNetworkStream?3?3RecvSkill@
CONST	SEGMENT
??_C@_0DE@EBNCHOOM@CPythonNetworkStream?3?3RecvSkill@ DB 'CPythonNetworkS'
	DB	'tream::RecvSkillLevelNew - RecvError', 00H	; `string'
CONST	ENDS
;	COMDAT ??_C@_0BE@OJMAIMGE@?5?$DO?$DO?5RecvSkillLevel?6@
CONST	SEGMENT
??_C@_0BE@OJMAIMGE@?5?$DO?$DO?5RecvSkillLevel?6@ DB ' >> RecvSkillLevel', 0aH
	DB	00H						; `string'
CONST	ENDS
;	COMDAT ??_C@_0DB@OELACDEA@CPythonNetworkStream?3?3RecvSkill@
CONST	SEGMENT
??_C@_0DB@OELACDEA@CPythonNetworkStream?3?3RecvSkill@ DB 'CPythonNetworkS'
	DB	'tream::RecvSkillLevel - RecvError', 00H	; `string'
CONST	ENDS
;	COMDAT ??_C@_0DH@MPAMADMO@CPythonNetworkStream?3?3RecvSkill@
CONST	SEGMENT
??_C@_0DH@MPAMADMO@CPythonNetworkStream?3?3RecvSkill@ DB 'CPythonNetworkS'
	DB	'tream::RecvSkillCoolTimeEnd - RecvError', 00H ; `string'
CONST	ENDS
;	COMDAT ??_C@_0CB@HKJKPPKG@?5SendQuestConfirmPacket?5?3?5?$CFd?0?5?$CF@
CONST	SEGMENT
??_C@_0CB@HKJKPPKG@?5SendQuestConfirmPacket?5?3?5?$CFd?0?5?$CF@ DB ' Send'
	DB	'QuestConfirmPacket : %d, %d', 00H		; `string'
CONST	ENDS
;	COMDAT ??_C@_0BN@IAHFIDIL@SendQuestConfirmPacket?5Error@
CONST	SEGMENT
??_C@_0BN@IAHFIDIL@SendQuestConfirmPacket?5Error@ DB 'SendQuestConfirmPac'
	DB	'ket Error', 00H				; `string'
CONST	ENDS
;	COMDAT ??_C@_0CB@KDIADHIP@SendQuestInputStringPacket?5Erro@
CONST	SEGMENT
??_C@_0CB@KDIADHIP@SendQuestInputStringPacket?5Erro@ DB 'SendQuestInputSt'
	DB	'ringPacket Error', 00H			; `string'
CONST	ENDS
;	COMDAT ??_C@_0CB@FGDJCCCM@SendAnswerMakeGuild?5Packet?5Erro@
CONST	SEGMENT
??_C@_0CB@FGDJCCCM@SendAnswerMakeGuild?5Packet?5Erro@ DB 'SendAnswerMakeG'
	DB	'uild Packet Error', 00H			; `string'
CONST	ENDS
;	COMDAT ??_C@_0CA@DKGOFDHL@Send?5Script?5Button?5Packet?5Error@
CONST	SEGMENT
??_C@_0CA@DKGOFDHL@Send?5Script?5Button?5Packet?5Error@ DB 'Send Script B'
	DB	'utton Packet Error', 00H			; `string'
CONST	ENDS
;	COMDAT ??_C@_0CA@GLOCGDPA@Send?5Script?5Answer?5Packet?5Error@
CONST	SEGMENT
??_C@_0CA@GLOCGDPA@Send?5Script?5Answer?5Packet?5Error@ DB 'Send Script A'
	DB	'nswer Packet Error', 00H			; `string'
CONST	ENDS
;	COMDAT ??_C@_0BL@FELFLKOI@RecvScriptPacket_SizeError@
CONST	SEGMENT
??_C@_0BL@FELFLKOI@RecvScriptPacket_SizeError@ DB 'RecvScriptPacket_SizeE'
	DB	'rror', 00H					; `string'
CONST	ENDS
;	COMDAT ??_C@_0BL@GIIBIOJB@RecvScriptPacket_RecvError@
CONST	SEGMENT
??_C@_0BL@GIIBIOJB@RecvScriptPacket_RecvError@ DB 'RecvScriptPacket_RecvE'
	DB	'rror', 00H					; `string'
CONST	ENDS
;	COMDAT ??_C@_0BA@ILEGHCPF@StartPointReset@
CONST	SEGMENT
??_C@_0BA@ILEGHCPF@StartPointReset@ DB 'StartPointReset', 00H ; `string'
CONST	ENDS
;	COMDAT ??_C@_0BO@FJKDIHPJ@send_trade_exit_packet?5Error?6@
CONST	SEGMENT
??_C@_0BO@FJKDIHPJ@send_trade_exit_packet?5Error?6@ DB 'send_trade_exit_p'
	DB	'acket Error', 0aH, 00H			; `string'
CONST	ENDS
;	COMDAT ??_C@_0CA@EEPLBN@send_trade_accept_packet?5Error?6@
CONST	SEGMENT
??_C@_0CA@EEPLBN@send_trade_accept_packet?5Error?6@ DB 'send_trade_accept'
	DB	'_packet Error', 0aH, 00H			; `string'
CONST	ENDS
;	COMDAT ??_C@_0CC@IFEOOANP@send_trade_item_del_packet?5Erro@
CONST	SEGMENT
??_C@_0CC@IFEOOANP@send_trade_item_del_packet?5Erro@ DB 'send_trade_item_'
	DB	'del_packet Error', 0aH, 00H			; `string'
CONST	ENDS
;	COMDAT ??_C@_0CC@JFABNFDE@send_trade_item_add_packet?5Erro@
CONST	SEGMENT
??_C@_0CC@JFABNFDE@send_trade_item_add_packet?5Erro@ DB 'send_trade_item_'
	DB	'add_packet Error', 0aH, 00H			; `string'
CONST	ENDS
;	COMDAT ??_C@_0CB@EABMKDBI@send_trade_elk_add_packet?5Error@
CONST	SEGMENT
??_C@_0CB@EABMKDBI@send_trade_elk_add_packet?5Error@ DB 'send_trade_elk_a'
	DB	'dd_packet Error', 0aH, 00H			; `string'
CONST	ENDS
;	COMDAT ??_C@_0CD@FOAEKPNP@send_trade_start_packet?5?5?5vid?5?$CF@
CONST	SEGMENT
??_C@_0CD@FOAEKPNP@send_trade_start_packet?5?5?5vid?5?$CF@ DB 'send_trade'
	DB	'_start_packet   vid %d ', 0aH, 00H		; `string'
CONST	ENDS
;	COMDAT ??_C@_0BP@CGFAIMHK@send_trade_start_packet?5Error?6@
CONST	SEGMENT
??_C@_0BP@CGFAIMHK@send_trade_start_packet?5Error?6@ DB 'send_trade_start'
	DB	'_packet Error', 0aH, 00H			; `string'
CONST	ENDS
;	COMDAT ??_C@_0BA@BHDOCKEA@ToggleDebugInfo@
CONST	SEGMENT
??_C@_0BA@BHDOCKEA@ToggleDebugInfo@ DB 'ToggleDebugInfo', 00H ; `string'
CONST	ENDS
;	COMDAT ??_C@_0N@FKOIEIPK@AskGuildName@
CONST	SEGMENT
??_C@_0N@FKOIEIPK@AskGuildName@ DB 'AskGuildName', 00H	; `string'
CONST	ENDS
;	COMDAT ??_C@_0CC@ELOCPLFN@RecvRequestMakeGuild?5Packet?5Err@
CONST	SEGMENT
??_C@_0CC@ELOCPLFN@RecvRequestMakeGuild?5Packet?5Err@ DB 'RecvRequestMake'
	DB	'Guild Packet Error', 00H			; `string'
CONST	ENDS
;	COMDAT ??_C@_0BG@KIBJJMEI@BINARY_OnQuestConfirm@
CONST	SEGMENT
??_C@_0BG@KIBJJMEI@BINARY_OnQuestConfirm@ DB 'BINARY_OnQuestConfirm', 00H ; `string'
CONST	ENDS
;	COMDAT ??_C@_0BN@JBCFOMDG@RecvQuestConfirmPacket?5Error@
CONST	SEGMENT
??_C@_0BN@JBCFOMDG@RecvQuestConfirmPacket?5Error@ DB 'RecvQuestConfirmPac'
	DB	'ket Error', 00H				; `string'
CONST	ENDS
;	COMDAT ??_C@_0N@IPPKALM@RefreshQuest@
CONST	SEGMENT
??_C@_0N@IPPKALM@RefreshQuest@ DB 'RefreshQuest', 00H	; `string'
CONST	ENDS
;	COMDAT ??_C@_0CA@LAFLPPD@Recv?5Quest?5Info?5Packet?5Error?5?$CD2@
CONST	SEGMENT
??_C@_0CA@LAFLPPD@Recv?5Quest?5Info?5Packet?5Error?5?$CD2@ DB 'Recv Quest'
	DB	' Info Packet Error #2', 00H			; `string'
CONST	ENDS
;	COMDAT ??_C@_0CA@CACIOMDA@Recv?5Quest?5Info?5Packet?5Error?5?$CD1@
CONST	SEGMENT
??_C@_0CA@CACIOMDA@Recv?5Quest?5Info?5Packet?5Error?5?$CD1@ DB 'Recv Ques'
	DB	't Info Packet Error #1', 00H		; `string'
CONST	ENDS
;	COMDAT ??_C@_0P@DNLFDBJJ@trade_less_elk@
CONST	SEGMENT
??_C@_0P@DNLFDBJJ@trade_less_elk@ DB 'trade_less_elk', 00H ; `string'
CONST	ENDS
;	COMDAT ??_C@_0O@LLCGBEIB@trade_already@
CONST	SEGMENT
??_C@_0O@LLCGBEIB@trade_already@ DB 'trade_already', 00H ; `string'
CONST	ENDS
;	COMDAT ??_C@_0M@GJLEGLOM@EndExchange@
CONST	SEGMENT
??_C@_0M@GJLEGLOM@EndExchange@ DB 'EndExchange', 00H	; `string'
CONST	ENDS
;	COMDAT ??_C@_0O@HKIIBLHD@StartExchange@
CONST	SEGMENT
??_C@_0O@HKIIBLHD@StartExchange@ DB 'StartExchange', 00H ; `string'
CONST	ENDS
;	COMDAT ??_C@_0DJ@IGANFIGP@CPythonNetworkStream?3?3RecvShopP@
CONST	SEGMENT
??_C@_0DJ@IGANFIGP@CPythonNetworkStream?3?3RecvShopP@ DB 'CPythonNetworkS'
	DB	'tream::RecvShopPacket: Unknown subheader', 0aH, 00H ; `string'
CONST	ENDS
;	COMDAT ??_C@_0M@HAELFLPD@INVALID_POS@
CONST	SEGMENT
??_C@_0M@HAELFLPD@INVALID_POS@ DB 'INVALID_POS', 00H	; `string'
CONST	ENDS
;	COMDAT ??_C@_0P@HIHIAGBD@INVENTORY_FULL@
CONST	SEGMENT
??_C@_0P@HIHIAGBD@INVENTORY_FULL@ DB 'INVENTORY_FULL', 00H ; `string'
CONST	ENDS
;	COMDAT ??_C@_07FBAJNJNN@SOLDOUT@
CONST	SEGMENT
??_C@_07FBAJNJNN@SOLDOUT@ DB 'SOLDOUT', 00H		; `string'
CONST	ENDS
;	COMDAT ??_C@_0BE@OHHJLOIF@NOT_ENOUGH_MONEY_EX@
CONST	SEGMENT
??_C@_0BE@OHHJLOIF@NOT_ENOUGH_MONEY_EX@ DB 'NOT_ENOUGH_MONEY_EX', 00H ; `string'
CONST	ENDS
;	COMDAT ??_C@_0M@NHHHAHOK@OnShopError@
CONST	SEGMENT
??_C@_0M@NHHHAHOK@OnShopError@ DB 'OnShopError', 00H	; `string'
CONST	ENDS
;	COMDAT ??_C@_0BB@GHBGEHD@NOT_ENOUGH_MONEY@
CONST	SEGMENT
??_C@_0BB@GHBGEHD@NOT_ENOUGH_MONEY@ DB 'NOT_ENOUGH_MONEY', 00H ; `string'
CONST	ENDS
;	COMDAT ??_C@_0BE@MHMAEIEM@SetShopSellingPrice@
CONST	SEGMENT
??_C@_0BE@MHMAEIEM@SetShopSellingPrice@ DB 'SetShopSellingPrice', 00H ; `string'
CONST	ENDS
;	COMDAT ??_C@_0M@DLPMCOFP@RefreshShop@
CONST	SEGMENT
??_C@_0M@DLPMCOFP@RefreshShop@ DB 'RefreshShop', 00H	; `string'
CONST	ENDS
;	COMDAT ??_C@_07FONJAJPH@EndShop@
CONST	SEGMENT
??_C@_07FONJAJPH@EndShop@ DB 'EndShop', 00H		; `string'
CONST	ENDS
;	COMDAT ??_C@_09PJIJIJPH@StartShop@
CONST	SEGMENT
??_C@_09PJIJIJPH@StartShop@ DB 'StartShop', 00H		; `string'
CONST	ENDS
;	COMDAT ??_C@_0BD@ICLELGCO@SendOnClickPacket?6@
CONST	SEGMENT
??_C@_0BD@ICLELGCO@SendOnClickPacket?6@ DB 'SendOnClickPacket', 0aH, 00H ; `string'
CONST	ENDS
;	COMDAT ??_C@_0BL@HCNNPICH@Send?5On_Click?5Packet?5Error@
CONST	SEGMENT
??_C@_0BL@HCNNPICH@Send?5On_Click?5Packet?5Error@ DB 'Send On_Click Packe'
	DB	't Error', 00H				; `string'
CONST	ENDS
;	COMDAT ??_C@_0CF@OKKJKDKD@Send?5Character?5Position?5Packet?5@
CONST	SEGMENT
??_C@_0CF@OKKJKDKD@Send?5Character?5Position?5Packet?5@ DB 'Send Characte'
	DB	'r Position Packet Error', 00H		; `string'
CONST	ENDS
;	COMDAT ??_C@_0L@MNOOMILJ@OnGameOver@
CONST	SEGMENT
??_C@_0L@MNOOMILJ@OnGameOver@ DB 'OnGameOver', 00H	; `string'
CONST	ENDS
;	COMDAT ??_C@_0M@BDKDPHGA@?A?V?$MA?N?$LA?x?5?$LL?g?$LI?A@
CONST	SEGMENT
??_C@_0M@BDKDPHGA@?A?V?$MA?N?$LA?x?5?$LL?g?$LI?A@ DB 0c1H, 0d6H, 0c0H, 0ceH
	DB	0b0H, 0f8H, ' ', 0bbH, 0e7H, 0b8H, 0c1H, 00H	; `string'
CONST	ENDS
;	COMDAT ??_C@_0CL@KJGPDLAC@CPythonNetworkStream?3?3RecvDeadP@
CONST	SEGMENT
??_C@_0CL@KJGPDLAC@CPythonNetworkStream?3?3RecvDeadP@ DB 'CPythonNetworkS'
	DB	'tream::RecvDeadPacket Error', 00H		; `string'
CONST	ENDS
;	COMDAT ??_C@_0CL@MKMKFBIM@CPythonNetworkStream?3?3RecvStunP@
CONST	SEGMENT
??_C@_0CL@MKMKFBIM@CPythonNetworkStream?3?3RecvStunP@ DB 'CPythonNetworkS'
	DB	'tream::RecvStunPacket Error', 00H		; `string'
CONST	ENDS
;	COMDAT ??_C@_0M@JJMCBALF@OnPickMoney@
CONST	SEGMENT
??_C@_0M@JJMCBALF@OnPickMoney@ DB 'OnPickMoney', 00H	; `string'
CONST	ENDS
;	COMDAT ??_C@_0BP@DGLKKAJF@Recv?5Point?5Change?5Packet?5Error@
CONST	SEGMENT
??_C@_0BP@DGLKKAJF@Recv?5Point?5Change?5Packet?5Error@ DB 'Recv Point Cha'
	DB	'nge Packet Error', 00H			; `string'
CONST	ENDS
;	COMDAT ??_C@_0BD@HFHHLLOG@OnRecvWhisperError@
CONST	SEGMENT
??_C@_0BD@HFHHLLOG@OnRecvWhisperError@ DB 'OnRecvWhisperError', 00H ; `string'
CONST	ENDS
;	COMDAT ??_C@_0BL@MJBHNNKO@OnRecvWhisperSystemMessage@
CONST	SEGMENT
??_C@_0BL@MJBHNNKO@OnRecvWhisperSystemMessage@ DB 'OnRecvWhisperSystemMes'
	DB	'sage', 00H					; `string'
CONST	ENDS
;	COMDAT ??_C@_0O@MLMPGGOH@OnRecvWhisper@
CONST	SEGMENT
??_C@_0O@MLMPGGOH@OnRecvWhisper@ DB 'OnRecvWhisper', 00H ; `string'
CONST	ENDS
;	COMDAT ??_C@_05FKJLIKKL@?$CIiss?$CJ@
CONST	SEGMENT
??_C@_05FKJLIKKL@?$CIiss?$CJ@ DB '(iss)', 00H		; `string'
CONST	ENDS
;	COMDAT ??_C@_07IAFACCAD@?$CFs?5?3?5?$CFs@
CONST	SEGMENT
??_C@_07IAFACCAD@?$CFs?5?3?5?$CFs@ DB '%s : %s', 00H	; `string'
CONST	ENDS
;	COMDAT ??_C@_0BF@MEFMFHCI@BINARY_SetBigMessage@
CONST	SEGMENT
??_C@_0BF@MEFMFHCI@BINARY_SetBigMessage@ DB 'BINARY_SetBigMessage', 00H ; `string'
CONST	ENDS
;	COMDAT ??_C@_0BF@EKLOHGBI@BINARY_SetTipMessage@
CONST	SEGMENT
??_C@_0BF@EKLOHGBI@BINARY_SetTipMessage@ DB 'BINARY_SetTipMessage', 00H ; `string'
CONST	ENDS
;	COMDAT ??_C@_02DKCKIIND@?$CFs@
CONST	SEGMENT
??_C@_02DKCKIIND@?$CFs@ DB '%s', 00H			; `string'
CONST	ENDS
;	COMDAT ??_C@_0DL@GMAAOOOI@Can?8t?5register?5emoticon?5string?4@
CONST	SEGMENT
??_C@_0DL@GMAAOOOI@Can?8t?5register?5emoticon?5string?4@ DB 'Can''t regis'
	DB	'ter emoticon string... vector is full (size:%d)', 00H ; `string'
CONST	ENDS
;	COMDAT ??_C@_0DN@EFFJHKOL@CPythonNetworkStream?3?3SendUseSk@
CONST	SEGMENT
??_C@_0DN@EFFJHKOL@CPythonNetworkStream?3?3SendUseSk@ DB 'CPythonNetworkS'
	DB	'tream::SendUseSkillPacket - SEND PACKET ERROR', 00H ; `string'
CONST	ENDS
;	COMDAT ??_C@_0IB@FFAGJAOL@CPythonNetworkStream?3?3SendChara@
CONST	SEGMENT
??_C@_0IB@FFAGJAOL@CPythonNetworkStream?3?3SendChara@ DB 'CPythonNetworkS'
	DB	'tream::SendCharacterStatePacket(dwCmdTime=%u, fDstPos=(%f, %f'
	DB	'), fDstRot=%f, eFunc=%d uArg=%d) - PACKET SEND ERROR', 00H ; `string'
CONST	ENDS
;	COMDAT ??_C@_0CE@DHDBME@?5SendMessengerAddByNamePacket?5?3@
CONST	SEGMENT
??_C@_0CE@DHDBME@?5SendMessengerAddByNamePacket?5?3@ DB ' SendMessengerAd'
	DB	'dByNamePacket : %s', 0aH, 00H		; `string'
CONST	ENDS
;	COMDAT ??_C@_0BB@FNPCBFHE@CloseTargetBoard@
CONST	SEGMENT
??_C@_0BB@FNPCBFHE@CloseTargetBoard@ DB 'CloseTargetBoard', 00H ; `string'
CONST	ENDS
;	COMDAT ??_C@_0EC@IHJJGCFB@CPythonNetworkStream?3?3RecvDuelS@
CONST	SEGMENT
??_C@_0EC@IHJJGCFB@CPythonNetworkStream?3?3RecvDuelS@ DB 'CPythonNetworkS'
	DB	'tream::RecvDuelStartPacket - MainCharacter is NULL', 00H ; `string'
CONST	ENDS
;	COMDAT ??_C@_0BL@HPKACCGC@?$CD?$CD?5Network?5?9?5Game?5Phase?5?$CD?$CD@
CONST	SEGMENT
??_C@_0BL@HPKACCGC@?$CD?$CD?5Network?5?9?5Game?5Phase?5?$CD?$CD@ DB '## N'
	DB	'etwork - Game Phase ##', 00H		; `string'
CONST	ENDS
;	COMDAT ??_C@_0M@DJFBBLID@ShowMapName@
CONST	SEGMENT
??_C@_0M@DJFBBLID@ShowMapName@ DB 'ShowMapName', 00H	; `string'
CONST	ENDS
;	COMDAT ??_C@_05FONOJENF@?$CIsii?$CJ@
CONST	SEGMENT
??_C@_05FONOJENF@?$CIsii?$CJ@ DB '(sii)', 00H		; `string'
CONST	ENDS
;	COMDAT ??_C@_0BG@CBAJOEAC@RefreshGuildGradePage@
CONST	SEGMENT
??_C@_0BG@CBAJOEAC@RefreshGuildGradePage@ DB 'RefreshGuildGradePage', 00H ; `string'
CONST	ENDS
;	COMDAT ??_C@_0BG@MICKDFKA@RefreshGuildSkillPage@
CONST	SEGMENT
??_C@_0BG@MICKDFKA@RefreshGuildSkillPage@ DB 'RefreshGuildSkillPage', 00H ; `string'
CONST	ENDS
;	COMDAT ??_C@_0CE@PAAOLBDB@RefreshGuildMemberPageGradeComb@
CONST	SEGMENT
??_C@_0CE@PAAOLBDB@RefreshGuildMemberPageGradeComb@ DB 'RefreshGuildMembe'
	DB	'rPageGradeComboBox', 00H			; `string'
CONST	ENDS
;	COMDAT ??_C@_0BH@BOJHBBF@RefreshGuildMemberPage@
CONST	SEGMENT
??_C@_0BH@BOJHBBF@RefreshGuildMemberPage@ DB 'RefreshGuildMemberPage', 00H ; `string'
CONST	ENDS
;	COMDAT ??_C@_0BG@FFPNPADB@RefreshGuildBoardPage@
CONST	SEGMENT
??_C@_0BG@FFPNPADB@RefreshGuildBoardPage@ DB 'RefreshGuildBoardPage', 00H ; `string'
CONST	ENDS
;	COMDAT ??_C@_0BF@NLJDKFFK@RefreshGuildInfoPage@
CONST	SEGMENT
??_C@_0BF@NLJDKFFK@RefreshGuildInfoPage@ DB 'RefreshGuildInfoPage', 00H ; `string'
CONST	ENDS
;	COMDAT ??_C@_0BB@CDMJAHKO@RefreshMessenger@
CONST	SEGMENT
??_C@_0BB@CDMJAHKO@RefreshMessenger@ DB 'RefreshMessenger', 00H ; `string'
CONST	ENDS
;	COMDAT ??_C@_0O@PDJLBMPA@RefreshStatus@
CONST	SEGMENT
??_C@_0O@PDJLBMPA@RefreshStatus@ DB 'RefreshStatus', 00H ; `string'
CONST	ENDS
;	COMDAT ??_C@_0M@HNBFKLDC@RefreshMall@
CONST	SEGMENT
??_C@_0M@HNBFKLDC@RefreshMall@ DB 'RefreshMall', 00H	; `string'
CONST	ENDS
;	COMDAT ??_C@_0P@PHDJJCCP@RefreshSafebox@
CONST	SEGMENT
??_C@_0P@PHDJJCCP@RefreshSafebox@ DB 'RefreshSafebox', 00H ; `string'
CONST	ENDS
;	COMDAT ??_C@_0N@EFFAOLPI@RefreshSkill@
CONST	SEGMENT
??_C@_0N@EFFAOLPI@RefreshSkill@ DB 'RefreshSkill', 00H	; `string'
CONST	ENDS
;	COMDAT ??_C@_0BA@JECEPFD@RefreshExchange@
CONST	SEGMENT
??_C@_0BA@JECEPFD@RefreshExchange@ DB 'RefreshExchange', 00H ; `string'
CONST	ENDS
;	COMDAT ??_C@_0BB@JLCHKFKI@RefreshInventory@
CONST	SEGMENT
??_C@_0BB@JLCHKFKI@RefreshInventory@ DB 'RefreshInventory', 00H ; `string'
CONST	ENDS
;	COMDAT ??_C@_0BB@CAEOPHDE@RefreshEquipment@
CONST	SEGMENT
??_C@_0BB@CAEOPHDE@RefreshEquipment@ DB 'RefreshEquipment', 00H ; `string'
CONST	ENDS
;	COMDAT ??_C@_0BB@HFALJDHO@RefreshCharacter@
CONST	SEGMENT
??_C@_0BB@HFALJDHO@RefreshCharacter@ DB 'RefreshCharacter', 00H ; `string'
CONST	ENDS
;	COMDAT ??_C@_04IBBNLEM@Game@
CONST	SEGMENT
??_C@_04IBBNLEM@Game@ DB 'Game', 00H			; `string'
CONST	ENDS
;	COMDAT ??_C@_0BD@FLFBFOOJ@RefreshTargetBoard@
CONST	SEGMENT
??_C@_0BD@FLFBFOOJ@RefreshTargetBoard@ DB 'RefreshTargetBoard', 00H ; `string'
CONST	ENDS
;	COMDAT ??_C@_0BJ@GGFFBLPA@RefreshTargetBoardByName@
CONST	SEGMENT
??_C@_0BJ@GGFFBLPA@RefreshTargetBoardByName@ DB 'RefreshTargetBoardByName'
	DB	00H						; `string'
CONST	ENDS
;	COMDAT ??_C@_03KJMMOONA@?$CIs?$CJ@
CONST	SEGMENT
??_C@_03KJMMOONA@?$CIs?$CJ@ DB '(s)', 00H		; `string'
CONST	ENDS
;	COMDAT ??_C@_0BI@IJENFIMO@RefreshTargetBoardByVID@
CONST	SEGMENT
??_C@_0BI@IJENFIMO@RefreshTargetBoardByVID@ DB 'RefreshTargetBoardByVID', 00H ; `string'
CONST	ENDS
;	COMDAT ??_C@_03LIHNMIHG@?$CIi?$CJ@
CONST	SEGMENT
??_C@_03LIHNMIHG@?$CIi?$CJ@ DB '(i)', 00H		; `string'
CONST	ENDS
;	COMDAT ??_C@_0BB@DGNNMOLK@RefreshAlignment@
CONST	SEGMENT
??_C@_0BB@DGNNMOLK@RefreshAlignment@ DB 'RefreshAlignment', 00H ; `string'
CONST	ENDS
;	COMDAT ??_C@_02HCKGKOFO@?$CI?$CJ@
CONST	SEGMENT
??_C@_02HCKGKOFO@?$CI?$CJ@ DB '()', 00H			; `string'
CONST	ENDS
;	COMDAT ??_R1A@?0A@EA@bad_array_new_length@std@@8
rdata$r	SEGMENT
??_R1A@?0A@EA@bad_array_new_length@std@@8 DD FLAT:??_R0?AVbad_array_new_length@std@@@8 ; std::bad_array_new_length::`RTTI Base Class Descriptor at (0,-1,0,64)'
	DD	02H
	DD	00H
	DD	0ffffffffH
	DD	00H
	DD	040H
	DD	FLAT:??_R3bad_array_new_length@std@@8
rdata$r	ENDS
;	COMDAT ??_R2bad_array_new_length@std@@8
rdata$r	SEGMENT
??_R2bad_array_new_length@std@@8 DD FLAT:??_R1A@?0A@EA@bad_array_new_length@std@@8 ; std::bad_array_new_length::`RTTI Base Class Array'
	DD	FLAT:??_R1A@?0A@EA@bad_alloc@std@@8
	DD	FLAT:??_R1A@?0A@EA@exception@std@@8
rdata$r	ENDS
;	COMDAT ??_R3bad_array_new_length@std@@8
rdata$r	SEGMENT
??_R3bad_array_new_length@std@@8 DD 00H			; std::bad_array_new_length::`RTTI Class Hierarchy Descriptor'
	DD	00H
	DD	03H
	DD	FLAT:??_R2bad_array_new_length@std@@8
rdata$r	ENDS
;	COMDAT ??_R4bad_array_new_length@std@@6B@
rdata$r	SEGMENT
??_R4bad_array_new_length@std@@6B@ DD 00H		; std::bad_array_new_length::`RTTI Complete Object Locator'
	DD	00H
	DD	00H
	DD	FLAT:??_R0?AVbad_array_new_length@std@@@8
	DD	FLAT:??_R3bad_array_new_length@std@@8
rdata$r	ENDS
;	COMDAT ??_R1A@?0A@EA@bad_alloc@std@@8
rdata$r	SEGMENT
??_R1A@?0A@EA@bad_alloc@std@@8 DD FLAT:??_R0?AVbad_alloc@std@@@8 ; std::bad_alloc::`RTTI Base Class Descriptor at (0,-1,0,64)'
	DD	01H
	DD	00H
	DD	0ffffffffH
	DD	00H
	DD	040H
	DD	FLAT:??_R3bad_alloc@std@@8
rdata$r	ENDS
;	COMDAT ??_R2bad_alloc@std@@8
rdata$r	SEGMENT
??_R2bad_alloc@std@@8 DD FLAT:??_R1A@?0A@EA@bad_alloc@std@@8 ; std::bad_alloc::`RTTI Base Class Array'
	DD	FLAT:??_R1A@?0A@EA@exception@std@@8
rdata$r	ENDS
;	COMDAT ??_R3bad_alloc@std@@8
rdata$r	SEGMENT
??_R3bad_alloc@std@@8 DD 00H				; std::bad_alloc::`RTTI Class Hierarchy Descriptor'
	DD	00H
	DD	02H
	DD	FLAT:??_R2bad_alloc@std@@8
rdata$r	ENDS
;	COMDAT ??_R4bad_alloc@std@@6B@
rdata$r	SEGMENT
??_R4bad_alloc@std@@6B@ DD 00H				; std::bad_alloc::`RTTI Complete Object Locator'
	DD	00H
	DD	00H
	DD	FLAT:??_R0?AVbad_alloc@std@@@8
	DD	FLAT:??_R3bad_alloc@std@@8
rdata$r	ENDS
;	COMDAT ??_R1A@?0A@EA@exception@std@@8
rdata$r	SEGMENT
??_R1A@?0A@EA@exception@std@@8 DD FLAT:??_R0?AVexception@std@@@8 ; std::exception::`RTTI Base Class Descriptor at (0,-1,0,64)'
	DD	00H
	DD	00H
	DD	0ffffffffH
	DD	00H
	DD	040H
	DD	FLAT:??_R3exception@std@@8
rdata$r	ENDS
;	COMDAT ??_R2exception@std@@8
rdata$r	SEGMENT
??_R2exception@std@@8 DD FLAT:??_R1A@?0A@EA@exception@std@@8 ; std::exception::`RTTI Base Class Array'
rdata$r	ENDS
;	COMDAT ??_R3exception@std@@8
rdata$r	SEGMENT
??_R3exception@std@@8 DD 00H				; std::exception::`RTTI Class Hierarchy Descriptor'
	DD	00H
	DD	01H
	DD	FLAT:??_R2exception@std@@8
rdata$r	ENDS
;	COMDAT ??_R4exception@std@@6B@
rdata$r	SEGMENT
??_R4exception@std@@6B@ DD 00H				; std::exception::`RTTI Complete Object Locator'
	DD	00H
	DD	00H
	DD	FLAT:??_R0?AVexception@std@@@8
	DD	FLAT:??_R3exception@std@@8
rdata$r	ENDS
;	COMDAT ??_C@_0BA@FOIKENOD@vector?5too?5long@
CONST	SEGMENT
??_C@_0BA@FOIKENOD@vector?5too?5long@ DB 'vector too long', 00H ; `string'
CONST	ENDS
;	COMDAT ??_C@_0BI@CFPLBAOH@invalid?5string?5position@
CONST	SEGMENT
??_C@_0BI@CFPLBAOH@invalid?5string?5position@ DB 'invalid string position'
	DB	00H						; `string'
CONST	ENDS
;	COMDAT ??_C@_00CNPNBAHC@@
CONST	SEGMENT
??_C@_00CNPNBAHC@@ DB 00H				; `string'
CONST	ENDS
;	COMDAT ??_C@_0BA@JFNIOLAK@string?5too?5long@
CONST	SEGMENT
??_C@_0BA@JFNIOLAK@string?5too?5long@ DB 'string too long', 00H ; `string'
CONST	ENDS
;	COMDAT __CT??_R0?AVexception@std@@@8??0exception@std@@QAE@ABV01@@Z12
xdata$x	SEGMENT
__CT??_R0?AVexception@std@@@8??0exception@std@@QAE@ABV01@@Z12 DD 00H
	DD	FLAT:??_R0?AVexception@std@@@8
	DD	00H
	DD	0ffffffffH
	ORG $+4
	DD	0cH
	DD	FLAT:??0exception@std@@QAE@ABV01@@Z
xdata$x	ENDS
;	COMDAT ??_R0?AVexception@std@@@8
data$r	SEGMENT
??_R0?AVexception@std@@@8 DD FLAT:??_7type_info@@6B@	; std::exception `RTTI Type Descriptor'
	DD	00H
	DB	'.?AVexception@std@@', 00H
data$r	ENDS
;	COMDAT __CT??_R0?AVbad_alloc@std@@@8??0bad_alloc@std@@QAE@ABV01@@Z12
xdata$x	SEGMENT
__CT??_R0?AVbad_alloc@std@@@8??0bad_alloc@std@@QAE@ABV01@@Z12 DD 010H
	DD	FLAT:??_R0?AVbad_alloc@std@@@8
	DD	00H
	DD	0ffffffffH
	ORG $+4
	DD	0cH
	DD	FLAT:??0bad_alloc@std@@QAE@ABV01@@Z
xdata$x	ENDS
;	COMDAT ??_R0?AVbad_alloc@std@@@8
data$r	SEGMENT
??_R0?AVbad_alloc@std@@@8 DD FLAT:??_7type_info@@6B@	; std::bad_alloc `RTTI Type Descriptor'
	DD	00H
	DB	'.?AVbad_alloc@std@@', 00H
data$r	ENDS
;	COMDAT __CT??_R0?AVbad_array_new_length@std@@@8??0bad_array_new_length@std@@QAE@ABV01@@Z12
xdata$x	SEGMENT
__CT??_R0?AVbad_array_new_length@std@@@8??0bad_array_new_length@std@@QAE@ABV01@@Z12 DD 00H
	DD	FLAT:??_R0?AVbad_array_new_length@std@@@8
	DD	00H
	DD	0ffffffffH
	ORG $+4
	DD	0cH
	DD	FLAT:??0bad_array_new_length@std@@QAE@ABV01@@Z
xdata$x	ENDS
;	COMDAT ??_R0?AVbad_array_new_length@std@@@8
data$r	SEGMENT
??_R0?AVbad_array_new_length@std@@@8 DD FLAT:??_7type_info@@6B@ ; std::bad_array_new_length `RTTI Type Descriptor'
	DD	00H
	DB	'.?AVbad_array_new_length@std@@', 00H
data$r	ENDS
;	COMDAT __CTA3?AVbad_array_new_length@std@@
xdata$x	SEGMENT
__CTA3?AVbad_array_new_length@std@@ DD 03H
	DD	FLAT:__CT??_R0?AVbad_array_new_length@std@@@8??0bad_array_new_length@std@@QAE@ABV01@@Z12
	DD	FLAT:__CT??_R0?AVbad_alloc@std@@@8??0bad_alloc@std@@QAE@ABV01@@Z12
	DD	FLAT:__CT??_R0?AVexception@std@@@8??0exception@std@@QAE@ABV01@@Z12
xdata$x	ENDS
;	COMDAT __TI3?AVbad_array_new_length@std@@
xdata$x	SEGMENT
__TI3?AVbad_array_new_length@std@@ DD 00H
	DD	FLAT:??1bad_array_new_length@std@@UAE@XZ
	DD	00H
	DD	FLAT:__CTA3?AVbad_array_new_length@std@@
xdata$x	ENDS
;	COMDAT ??_C@_0BF@KINCDENJ@bad?5array?5new?5length@
CONST	SEGMENT
??_C@_0BF@KINCDENJ@bad?5array?5new?5length@ DB 'bad array new length', 00H ; `string'
CONST	ENDS
;	COMDAT ??_7bad_array_new_length@std@@6B@
CONST	SEGMENT
??_7bad_array_new_length@std@@6B@ DD FLAT:??_R4bad_array_new_length@std@@6B@ ; std::bad_array_new_length::`vftable'
	DD	FLAT:??_Ebad_array_new_length@std@@UAEPAXI@Z
	DD	FLAT:?what@exception@std@@UBEPBDXZ
CONST	ENDS
;	COMDAT ??_7bad_alloc@std@@6B@
CONST	SEGMENT
??_7bad_alloc@std@@6B@ DD FLAT:??_R4bad_alloc@std@@6B@	; std::bad_alloc::`vftable'
	DD	FLAT:??_Ebad_alloc@std@@UAEPAXI@Z
	DD	FLAT:?what@exception@std@@UBEPBDXZ
CONST	ENDS
;	COMDAT ??_C@_0BC@EOODALEL@Unknown?5exception@
CONST	SEGMENT
??_C@_0BC@EOODALEL@Unknown?5exception@ DB 'Unknown exception', 00H ; `string'
CONST	ENDS
;	COMDAT ??_7exception@std@@6B@
CONST	SEGMENT
??_7exception@std@@6B@ DD FLAT:??_R4exception@std@@6B@	; std::exception::`vftable'
	DD	FLAT:??_Eexception@std@@UAEPAXI@Z
	DD	FLAT:?what@exception@std@@UBEPBDXZ
CONST	ENDS
;	COMDAT xdata$x
xdata$x	SEGMENT
__unwindtable$??$_Uninitialized_move@PAV?$basic_string@DU?$char_traits@D@std@@V?$allocator@D@2@@std@@V?$allocator@V?$basic_string@DU?$char_traits@D@std@@V?$allocator@D@2@@std@@@2@@std@@YAPAV?$basic_string@DU?$char_traits@D@std@@V?$allocator@D@2@@0@QAV10@0PAV10@AAV?$allocator@V?$basic_string@DU?$char_traits@D@std@@V?$allocator@D@2@@std@@@0@@Z DD 0ffffffffH
	DD	FLAT:__unwindfunclet$??$_Uninitialized_move@PAV?$basic_string@DU?$char_traits@D@std@@V?$allocator@D@2@@std@@V?$allocator@V?$basic_string@DU?$char_traits@D@std@@V?$allocator@D@2@@std@@@2@@std@@YAPAV?$basic_string@DU?$char_traits@D@std@@V?$allocator@D@2@@0@QAV10@0PAV10@AAV?$allocator@V?$basic_string@DU?$char_traits@D@std@@V?$allocator@D@2@@std@@@0@@Z$0
__ehfuncinfo$??$_Uninitialized_move@PAV?$basic_string@DU?$char_traits@D@std@@V?$allocator@D@2@@std@@V?$allocator@V?$basic_string@DU?$char_traits@D@std@@V?$allocator@D@2@@std@@@2@@std@@YAPAV?$basic_string@DU?$char_traits@D@std@@V?$allocator@D@2@@0@QAV10@0PAV10@AAV?$allocator@V?$basic_string@DU?$char_traits@D@std@@V?$allocator@D@2@@std@@@0@@Z DD 019930522H
	DD	01H
	DD	FLAT:__unwindtable$??$_Uninitialized_move@PAV?$basic_string@DU?$char_traits@D@std@@V?$allocator@D@2@@std@@V?$allocator@V?$basic_string@DU?$char_traits@D@std@@V?$allocator@D@2@@std@@@2@@std@@YAPAV?$basic_string@DU?$char_traits@D@std@@V?$allocator@D@2@@0@QAV10@0PAV10@AAV?$allocator@V?$basic_string@DU?$char_traits@D@std@@V?$allocator@D@2@@std@@@0@@Z
	DD	2 DUP(00H)
	DD	2 DUP(00H)
	DD	00H
	DD	01H
xdata$x	ENDS
;	COMDAT xdata$x
xdata$x	SEGMENT
__catchsym$??$_Resize_reallocate@U_Value_init_tag@std@@@?$vector@DV?$allocator@D@std@@@std@@AAEXIABU_Value_init_tag@1@@Z$26 DD 040H
	DD	00H
	DD	00H
	DD	FLAT:__catch$??$_Resize_reallocate@U_Value_init_tag@std@@@?$vector@DV?$allocator@D@std@@@std@@AAEXIABU_Value_init_tag@1@@Z$0
__unwindtable$??$_Resize_reallocate@U_Value_init_tag@std@@@?$vector@DV?$allocator@D@std@@@std@@AAEXIABU_Value_init_tag@1@@Z DD 0ffffffffH
	DD	00H
	DD	0ffffffffH
	DD	00H
__tryblocktable$??$_Resize_reallocate@U_Value_init_tag@std@@@?$vector@DV?$allocator@D@std@@@std@@AAEXIABU_Value_init_tag@1@@Z DD 00H
	DD	00H
	DD	01H
	DD	01H
	DD	FLAT:__catchsym$??$_Resize_reallocate@U_Value_init_tag@std@@@?$vector@DV?$allocator@D@std@@@std@@AAEXIABU_Value_init_tag@1@@Z$26
__ehfuncinfo$??$_Resize_reallocate@U_Value_init_tag@std@@@?$vector@DV?$allocator@D@std@@@std@@AAEXIABU_Value_init_tag@1@@Z DD 019930522H
	DD	02H
	DD	FLAT:__unwindtable$??$_Resize_reallocate@U_Value_init_tag@std@@@?$vector@DV?$allocator@D@std@@@std@@AAEXIABU_Value_init_tag@1@@Z
	DD	01H
	DD	FLAT:__tryblocktable$??$_Resize_reallocate@U_Value_init_tag@std@@@?$vector@DV?$allocator@D@std@@@std@@AAEXIABU_Value_init_tag@1@@Z
	DD	2 DUP(00H)
	DD	00H
	DD	01H
xdata$x	ENDS
;	COMDAT xdata$x
xdata$x	SEGMENT
__catchsym$??$_Emplace_reallocate@V?$basic_string@DU?$char_traits@D@std@@V?$allocator@D@2@@std@@@?$vector@V?$basic_string@DU?$char_traits@D@std@@V?$allocator@D@2@@std@@V?$allocator@V?$basic_string@DU?$char_traits@D@std@@V?$allocator@D@2@@std@@@2@@std@@QAEPAV?$basic_string@DU?$char_traits@D@std@@V?$allocator@D@2@@1@QAV21@$$QAV21@@Z$40 DD 040H
	DD	00H
	DD	00H
	DD	FLAT:__catch$??$_Emplace_reallocate@V?$basic_string@DU?$char_traits@D@std@@V?$allocator@D@2@@std@@@?$vector@V?$basic_string@DU?$char_traits@D@std@@V?$allocator@D@2@@std@@V?$allocator@V?$basic_string@DU?$char_traits@D@std@@V?$allocator@D@2@@std@@@2@@std@@QAEPAV?$basic_string@DU?$char_traits@D@std@@V?$allocator@D@2@@1@QAV21@$$QAV21@@Z$0
__unwindtable$??$_Emplace_reallocate@V?$basic_string@DU?$char_traits@D@std@@V?$allocator@D@2@@std@@@?$vector@V?$basic_string@DU?$char_traits@D@std@@V?$allocator@D@2@@std@@V?$allocator@V?$basic_string@DU?$char_traits@D@std@@V?$allocator@D@2@@std@@@2@@std@@QAEPAV?$basic_string@DU?$char_traits@D@std@@V?$allocator@D@2@@1@QAV21@$$QAV21@@Z DD 0ffffffffH
	DD	00H
	DD	0ffffffffH
	DD	00H
__tryblocktable$??$_Emplace_reallocate@V?$basic_string@DU?$char_traits@D@std@@V?$allocator@D@2@@std@@@?$vector@V?$basic_string@DU?$char_traits@D@std@@V?$allocator@D@2@@std@@V?$allocator@V?$basic_string@DU?$char_traits@D@std@@V?$allocator@D@2@@std@@@2@@std@@QAEPAV?$basic_string@DU?$char_traits@D@std@@V?$allocator@D@2@@1@QAV21@$$QAV21@@Z DD 00H
	DD	00H
	DD	01H
	DD	01H
	DD	FLAT:__catchsym$??$_Emplace_reallocate@V?$basic_string@DU?$char_traits@D@std@@V?$allocator@D@2@@std@@@?$vector@V?$basic_string@DU?$char_traits@D@std@@V?$allocator@D@2@@std@@V?$allocator@V?$basic_string@DU?$char_traits@D@std@@V?$allocator@D@2@@std@@@2@@std@@QAEPAV?$basic_string@DU?$char_traits@D@std@@V?$allocator@D@2@@1@QAV21@$$QAV21@@Z$40
__ehfuncinfo$??$_Emplace_reallocate@V?$basic_string@DU?$char_traits@D@std@@V?$allocator@D@2@@std@@@?$vector@V?$basic_string@DU?$char_traits@D@std@@V?$allocator@D@2@@std@@V?$allocator@V?$basic_string@DU?$char_traits@D@std@@V?$allocator@D@2@@std@@@2@@std@@QAEPAV?$basic_string@DU?$char_traits@D@std@@V?$allocator@D@2@@1@QAV21@$$QAV21@@Z DD 019930522H
	DD	02H
	DD	FLAT:__unwindtable$??$_Emplace_reallocate@V?$basic_string@DU?$char_traits@D@std@@V?$allocator@D@2@@std@@@?$vector@V?$basic_string@DU?$char_traits@D@std@@V?$allocator@D@2@@std@@V?$allocator@V?$basic_string@DU?$char_traits@D@std@@V?$allocator@D@2@@std@@@2@@std@@QAEPAV?$basic_string@DU?$char_traits@D@std@@V?$allocator@D@2@@1@QAV21@$$QAV21@@Z
	DD	01H
	DD	FLAT:__tryblocktable$??$_Emplace_reallocate@V?$basic_string@DU?$char_traits@D@std@@V?$allocator@D@2@@std@@@?$vector@V?$basic_string@DU?$char_traits@D@std@@V?$allocator@D@2@@std@@V?$allocator@V?$basic_string@DU?$char_traits@D@std@@V?$allocator@D@2@@std@@@2@@std@@QAEPAV?$basic_string@DU?$char_traits@D@std@@V?$allocator@D@2@@1@QAV21@$$QAV21@@Z
	DD	2 DUP(00H)
	DD	00H
	DD	01H
xdata$x	ENDS
;	COMDAT xdata$x
xdata$x	SEGMENT
__catchsym$??$_Emplace_reallocate@ABK@?$vector@KV?$allocator@K@std@@@std@@QAEPAKQAKABK@Z$32 DD 040H
	DD	00H
	DD	00H
	DD	FLAT:__catch$??$_Emplace_reallocate@ABK@?$vector@KV?$allocator@K@std@@@std@@QAEPAKQAKABK@Z$0
__unwindtable$??$_Emplace_reallocate@ABK@?$vector@KV?$allocator@K@std@@@std@@QAEPAKQAKABK@Z DD 0ffffffffH
	DD	00H
	DD	0ffffffffH
	DD	00H
__tryblocktable$??$_Emplace_reallocate@ABK@?$vector@KV?$allocator@K@std@@@std@@QAEPAKQAKABK@Z DD 00H
	DD	00H
	DD	01H
	DD	01H
	DD	FLAT:__catchsym$??$_Emplace_reallocate@ABK@?$vector@KV?$allocator@K@std@@@std@@QAEPAKQAKABK@Z$32
__ehfuncinfo$??$_Emplace_reallocate@ABK@?$vector@KV?$allocator@K@std@@@std@@QAEPAKQAKABK@Z DD 019930522H
	DD	02H
	DD	FLAT:__unwindtable$??$_Emplace_reallocate@ABK@?$vector@KV?$allocator@K@std@@@std@@QAEPAKQAKABK@Z
	DD	01H
	DD	FLAT:__tryblocktable$??$_Emplace_reallocate@ABK@?$vector@KV?$allocator@K@std@@@std@@QAEPAKQAKABK@Z
	DD	2 DUP(00H)
	DD	00H
	DD	01H
xdata$x	ENDS
;	COMDAT xdata$x
xdata$x	SEGMENT
__ehfuncinfo$??1?$CDynamicPoolEx@VCHeaderDecorator@NEffectUpdateDecorator@@@@UAE@XZ DD 019930522H
	DD	00H
	DD	00H
	DD	2 DUP(00H)
	DD	2 DUP(00H)
	DD	00H
	DD	05H
xdata$x	ENDS
;	COMDAT xdata$x
xdata$x	SEGMENT
__ehfuncinfo$??1?$CDynamicPoolEx@VCNullDecorator@NEffectUpdateDecorator@@@@UAE@XZ DD 019930522H
	DD	00H
	DD	00H
	DD	2 DUP(00H)
	DD	2 DUP(00H)
	DD	00H
	DD	05H
xdata$x	ENDS
;	COMDAT xdata$x
xdata$x	SEGMENT
__ehfuncinfo$??1?$CDynamicPoolEx@VCTextureAnimationCWDecorator@NEffectUpdateDecorator@@@@UAE@XZ DD 019930522H
	DD	00H
	DD	00H
	DD	2 DUP(00H)
	DD	2 DUP(00H)
	DD	00H
	DD	05H
xdata$x	ENDS
;	COMDAT xdata$x
xdata$x	SEGMENT
__ehfuncinfo$??1?$CDynamicPoolEx@VCTextureAnimationCCWDecorator@NEffectUpdateDecorator@@@@UAE@XZ DD 019930522H
	DD	00H
	DD	00H
	DD	2 DUP(00H)
	DD	2 DUP(00H)
	DD	00H
	DD	05H
xdata$x	ENDS
;	COMDAT xdata$x
xdata$x	SEGMENT
__ehfuncinfo$??1?$CDynamicPoolEx@VCTextureAnimationRandomDecorator@NEffectUpdateDecorator@@@@UAE@XZ DD 019930522H
	DD	00H
	DD	00H
	DD	2 DUP(00H)
	DD	2 DUP(00H)
	DD	00H
	DD	05H
xdata$x	ENDS
;	COMDAT xdata$x
xdata$x	SEGMENT
__ehfuncinfo$??1?$CDynamicPoolEx@VCAirResistanceDecorator@NEffectUpdateDecorator@@@@UAE@XZ DD 019930522H
	DD	00H
	DD	00H
	DD	2 DUP(00H)
	DD	2 DUP(00H)
	DD	00H
	DD	05H
xdata$x	ENDS
;	COMDAT xdata$x
xdata$x	SEGMENT
__ehfuncinfo$??1?$CDynamicPoolEx@VCGravityDecorator@NEffectUpdateDecorator@@@@UAE@XZ DD 019930522H
	DD	00H
	DD	00H
	DD	2 DUP(00H)
	DD	2 DUP(00H)
	DD	00H
	DD	05H
xdata$x	ENDS
;	COMDAT xdata$x
xdata$x	SEGMENT
__ehfuncinfo$??1?$CDynamicPoolEx@VCRotationDecorator@NEffectUpdateDecorator@@@@UAE@XZ DD 019930522H
	DD	00H
	DD	00H
	DD	2 DUP(00H)
	DD	2 DUP(00H)
	DD	00H
	DD	05H
xdata$x	ENDS
;	COMDAT xdata$x
xdata$x	SEGMENT
__unwindtable$?__SetGuildID@CPythonNetworkStream@@IAEXK@Z DD 0ffffffffH
	DD	FLAT:__unwindfunclet$?__SetGuildID@CPythonNetworkStream@@IAEXK@Z$0
__ehfuncinfo$?__SetGuildID@CPythonNetworkStream@@IAEXK@Z DD 019930522H
	DD	01H
	DD	FLAT:__unwindtable$?__SetGuildID@CPythonNetworkStream@@IAEXK@Z
	DD	2 DUP(00H)
	DD	2 DUP(00H)
	DD	00H
	DD	01H
xdata$x	ENDS
;	COMDAT xdata$x
xdata$x	SEGMENT
__unwindtable$?__ShowMapName@CPythonNetworkStream@@IAEXJJ@Z DD 0ffffffffH
	DD	FLAT:__unwindfunclet$?__ShowMapName@CPythonNetworkStream@@IAEXJJ@Z$0
__ehfuncinfo$?__ShowMapName@CPythonNetworkStream@@IAEXJJ@Z DD 019930522H
	DD	01H
	DD	FLAT:__unwindtable$?__ShowMapName@CPythonNetworkStream@@IAEXJJ@Z
	DD	2 DUP(00H)
	DD	2 DUP(00H)
	DD	00H
	DD	01H
xdata$x	ENDS
;	COMDAT xdata$x
xdata$x	SEGMENT
__unwindtable$?RecvLandPacket@CPythonNetworkStream@@IAE_NXZ DD 0ffffffffH
	DD	FLAT:__unwindfunclet$?RecvLandPacket@CPythonNetworkStream@@IAE_NXZ$0
__ehfuncinfo$?RecvLandPacket@CPythonNetworkStream@@IAE_NXZ DD 019930522H
	DD	01H
	DD	FLAT:__unwindtable$?RecvLandPacket@CPythonNetworkStream@@IAE_NXZ
	DD	2 DUP(00H)
	DD	2 DUP(00H)
	DD	00H
	DD	01H
xdata$x	ENDS
;	COMDAT xdata$x
xdata$x	SEGMENT
__unwindtable$?RecvGuild@CPythonNetworkStream@@IAE_NXZ DD 0ffffffffH
	DD	FLAT:__unwindfunclet$?RecvGuild@CPythonNetworkStream@@IAE_NXZ$0
	DD	0ffffffffH
	DD	FLAT:__unwindfunclet$?RecvGuild@CPythonNetworkStream@@IAE_NXZ$1
	DD	0ffffffffH
	DD	FLAT:__unwindfunclet$?RecvGuild@CPythonNetworkStream@@IAE_NXZ$2
__ehfuncinfo$?RecvGuild@CPythonNetworkStream@@IAE_NXZ DD 019930522H
	DD	03H
	DD	FLAT:__unwindtable$?RecvGuild@CPythonNetworkStream@@IAE_NXZ
	DD	2 DUP(00H)
	DD	2 DUP(00H)
	DD	00H
	DD	01H
xdata$x	ENDS
;	COMDAT xdata$x
xdata$x	SEGMENT
__unwindtable$?RecvAddFlyTargetingPacket@CPythonNetworkStream@@IAE_NXZ DD 0ffffffffH
	DD	FLAT:__unwindfunclet$?RecvAddFlyTargetingPacket@CPythonNetworkStream@@IAE_NXZ$0
	DD	0ffffffffH
	DD	FLAT:__unwindfunclet$?RecvAddFlyTargetingPacket@CPythonNetworkStream@@IAE_NXZ$1
__ehfuncinfo$?RecvAddFlyTargetingPacket@CPythonNetworkStream@@IAE_NXZ DD 019930522H
	DD	02H
	DD	FLAT:__unwindtable$?RecvAddFlyTargetingPacket@CPythonNetworkStream@@IAE_NXZ
	DD	2 DUP(00H)
	DD	2 DUP(00H)
	DD	00H
	DD	01H
xdata$x	ENDS
;	COMDAT xdata$x
xdata$x	SEGMENT
__unwindtable$?RecvFlyTargetingPacket@CPythonNetworkStream@@IAE_NXZ DD 0ffffffffH
	DD	FLAT:__unwindfunclet$?RecvFlyTargetingPacket@CPythonNetworkStream@@IAE_NXZ$0
	DD	0ffffffffH
	DD	FLAT:__unwindfunclet$?RecvFlyTargetingPacket@CPythonNetworkStream@@IAE_NXZ$1
__ehfuncinfo$?RecvFlyTargetingPacket@CPythonNetworkStream@@IAE_NXZ DD 019930522H
	DD	02H
	DD	FLAT:__unwindtable$?RecvFlyTargetingPacket@CPythonNetworkStream@@IAE_NXZ
	DD	2 DUP(00H)
	DD	2 DUP(00H)
	DD	00H
	DD	01H
xdata$x	ENDS
;	COMDAT xdata$x
xdata$x	SEGMENT
__unwindtable$?RecvQuestInfoPacket@CPythonNetworkStream@@IAE_NXZ DD 0ffffffffH
	DD	FLAT:__unwindfunclet$?RecvQuestInfoPacket@CPythonNetworkStream@@IAE_NXZ$0
__ehfuncinfo$?RecvQuestInfoPacket@CPythonNetworkStream@@IAE_NXZ DD 019930522H
	DD	01H
	DD	FLAT:__unwindtable$?RecvQuestInfoPacket@CPythonNetworkStream@@IAE_NXZ
	DD	2 DUP(00H)
	DD	2 DUP(00H)
	DD	00H
	DD	01H
xdata$x	ENDS
;	COMDAT xdata$x
xdata$x	SEGMENT
__unwindtable$?RecvShopPacket@CPythonNetworkStream@@IAE_NXZ DD 0ffffffffH
	DD	FLAT:__unwindfunclet$?RecvShopPacket@CPythonNetworkStream@@IAE_NXZ$0
__ehfuncinfo$?RecvShopPacket@CPythonNetworkStream@@IAE_NXZ DD 019930522H
	DD	01H
	DD	FLAT:__unwindtable$?RecvShopPacket@CPythonNetworkStream@@IAE_NXZ
	DD	2 DUP(00H)
	DD	2 DUP(00H)
	DD	00H
	DD	01H
xdata$x	ENDS
;	COMDAT xdata$x
xdata$x	SEGMENT
__unwindtable$?GamePhase@CPythonNetworkStream@@IAEXXZ DD 0ffffffffH
	DD	FLAT:__unwindfunclet$?GamePhase@CPythonNetworkStream@@IAEXXZ$0
__ehfuncinfo$?GamePhase@CPythonNetworkStream@@IAEXXZ DD 019930522H
	DD	01H
	DD	FLAT:__unwindtable$?GamePhase@CPythonNetworkStream@@IAEXXZ
	DD	2 DUP(00H)
	DD	2 DUP(00H)
	DD	00H
	DD	01H
xdata$x	ENDS
;	COMDAT xdata$x
xdata$x	SEGMENT
__unwindtable$?SendClientVersionPacket@CPythonNetworkStream@@QAE_NXZ DD 0ffffffffH
	DD	FLAT:__unwindfunclet$?SendClientVersionPacket@CPythonNetworkStream@@QAE_NXZ$0
__ehfuncinfo$?SendClientVersionPacket@CPythonNetworkStream@@QAE_NXZ DD 019930522H
	DD	01H
	DD	FLAT:__unwindtable$?SendClientVersionPacket@CPythonNetworkStream@@QAE_NXZ
	DD	2 DUP(00H)
	DD	2 DUP(00H)
	DD	00H
	DD	01H
xdata$x	ENDS
;	COMDAT xdata$x
xdata$x	SEGMENT
__unwindtable$?RegisterEmoticonString@CPythonNetworkStream@@QAEXPBD@Z DD 0ffffffffH
	DD	FLAT:__unwindfunclet$?RegisterEmoticonString@CPythonNetworkStream@@QAEXPBD@Z$0
__ehfuncinfo$?RegisterEmoticonString@CPythonNetworkStream@@QAEXPBD@Z DD 019930522H
	DD	01H
	DD	FLAT:__unwindtable$?RegisterEmoticonString@CPythonNetworkStream@@QAEXPBD@Z
	DD	2 DUP(00H)
	DD	2 DUP(00H)
	DD	00H
	DD	01H
xdata$x	ENDS
;	COMDAT xdata$x
xdata$x	SEGMENT
__unwindtable$?NotifyHack@CPythonNetworkStream@@QAEXPBD@Z DD 0ffffffffH
	DD	FLAT:__unwindfunclet$?NotifyHack@CPythonNetworkStream@@QAEXPBD@Z$0
__ehfuncinfo$?NotifyHack@CPythonNetworkStream@@QAEXPBD@Z DD 019930522H
	DD	01H
	DD	FLAT:__unwindtable$?NotifyHack@CPythonNetworkStream@@QAEXPBD@Z
	DD	2 DUP(00H)
	DD	2 DUP(00H)
	DD	00H
	DD	01H
xdata$x	ENDS
;	COMDAT xdata$x
xdata$x	SEGMENT
__ehfuncinfo$??$_Deallocate@$07$0A@@std@@YAXPAXI@Z DD 019930522H
	DD	00H
	DD	00H
	DD	2 DUP(00H)
	DD	2 DUP(00H)
	DD	00H
	DD	05H
xdata$x	ENDS
;	COMDAT xdata$x
xdata$x	SEGMENT
__unwindtable$??0?$basic_string@DU?$char_traits@D@std@@V?$allocator@D@2@@std@@QAE@QBD@Z DD 0ffffffffH
	DD	FLAT:__unwindfunclet$??0?$basic_string@DU?$char_traits@D@std@@V?$allocator@D@2@@std@@QAE@QBD@Z$0
__ehfuncinfo$??0?$basic_string@DU?$char_traits@D@std@@V?$allocator@D@2@@std@@QAE@QBD@Z DD 019930522H
	DD	01H
	DD	FLAT:__unwindtable$??0?$basic_string@DU?$char_traits@D@std@@V?$allocator@D@2@@std@@QAE@QBD@Z
	DD	2 DUP(00H)
	DD	2 DUP(00H)
	DD	00H
	DD	01H
xdata$x	ENDS
;	COMDAT CRT$XCU
CRT$XCU	SEGMENT
??ms_kPool$initializer$@?$CPooledObject@VCNullDecorator@NEffectUpdateDecorator@@@@1P6AXXZA@@3P6AXXZA DD FLAT:??__E?ms_kPool@?$CPooledObject@VCNullDecorator@NEffectUpdateDecorator@@@@1V?$CDynamicPoolEx@VCNullDecorator@NEffectUpdateDecorator@@@@A@@YAXXZ ; ??ms_kPool$initializer$@?$CPooledObject@VCNullDecorator@NEffectUpdateDecorator@@@@1P6AXXZA@@3P6AXXZA
CRT$XCU	ENDS
;	COMDAT CRT$XCU
CRT$XCU	SEGMENT
??ms_kPool$initializer$@?$CPooledObject@VCTextureAnimationCWDecorator@NEffectUpdateDecorator@@@@1P6AXXZA@@3P6AXXZA DD FLAT:??__E?ms_kPool@?$CPooledObject@VCTextureAnimationCWDecorator@NEffectUpdateDecorator@@@@1V?$CDynamicPoolEx@VCTextureAnimationCWDecorator@NEffectUpdateDecorator@@@@A@@YAXXZ ; ??ms_kPool$initializer$@?$CPooledObject@VCTextureAnimationCWDecorator@NEffectUpdateDecorator@@@@1P6AXXZA@@3P6AXXZA
CRT$XCU	ENDS
;	COMDAT CRT$XCU
CRT$XCU	SEGMENT
??ms_kPool$initializer$@?$CPooledObject@VCTextureAnimationCCWDecorator@NEffectUpdateDecorator@@@@1P6AXXZA@@3P6AXXZA DD FLAT:??__E?ms_kPool@?$CPooledObject@VCTextureAnimationCCWDecorator@NEffectUpdateDecorator@@@@1V?$CDynamicPoolEx@VCTextureAnimationCCWDecorator@NEffectUpdateDecorator@@@@A@@YAXXZ ; ??ms_kPool$initializer$@?$CPooledObject@VCTextureAnimationCCWDecorator@NEffectUpdateDecorator@@@@1P6AXXZA@@3P6AXXZA
CRT$XCU	ENDS
;	COMDAT CRT$XCU
CRT$XCU	SEGMENT
??ms_kPool$initializer$@?$CPooledObject@VCTextureAnimationRandomDecorator@NEffectUpdateDecorator@@@@1P6AXXZA@@3P6AXXZA DD FLAT:??__E?ms_kPool@?$CPooledObject@VCTextureAnimationRandomDecorator@NEffectUpdateDecorator@@@@1V?$CDynamicPoolEx@VCTextureAnimationRandomDecorator@NEffectUpdateDecorator@@@@A@@YAXXZ ; ??ms_kPool$initializer$@?$CPooledObject@VCTextureAnimationRandomDecorator@NEffectUpdateDecorator@@@@1P6AXXZA@@3P6AXXZA
CRT$XCU	ENDS
;	COMDAT CRT$XCU
CRT$XCU	SEGMENT
??ms_kPool$initializer$@?$CPooledObject@VCAirResistanceDecorator@NEffectUpdateDecorator@@@@1P6AXXZA@@3P6AXXZA DD FLAT:??__E?ms_kPool@?$CPooledObject@VCAirResistanceDecorator@NEffectUpdateDecorator@@@@1V?$CDynamicPoolEx@VCAirResistanceDecorator@NEffectUpdateDecorator@@@@A@@YAXXZ ; ??ms_kPool$initializer$@?$CPooledObject@VCAirResistanceDecorator@NEffectUpdateDecorator@@@@1P6AXXZA@@3P6AXXZA
CRT$XCU	ENDS
;	COMDAT CRT$XCU
CRT$XCU	SEGMENT
??ms_kPool$initializer$@?$CPooledObject@VCGravityDecorator@NEffectUpdateDecorator@@@@1P6AXXZA@@3P6AXXZA DD FLAT:??__E?ms_kPool@?$CPooledObject@VCGravityDecorator@NEffectUpdateDecorator@@@@1V?$CDynamicPoolEx@VCGravityDecorator@NEffectUpdateDecorator@@@@A@@YAXXZ ; ??ms_kPool$initializer$@?$CPooledObject@VCGravityDecorator@NEffectUpdateDecorator@@@@1P6AXXZA@@3P6AXXZA
CRT$XCU	ENDS
;	COMDAT CRT$XCU
CRT$XCU	SEGMENT
??ms_kPool$initializer$@?$CPooledObject@VCRotationDecorator@NEffectUpdateDecorator@@@@1P6AXXZA@@3P6AXXZA DD FLAT:??__E?ms_kPool@?$CPooledObject@VCRotationDecorator@NEffectUpdateDecorator@@@@1V?$CDynamicPoolEx@VCRotationDecorator@NEffectUpdateDecorator@@@@A@@YAXXZ ; ??ms_kPool$initializer$@?$CPooledObject@VCRotationDecorator@NEffectUpdateDecorator@@@@1P6AXXZA@@3P6AXXZA
CRT$XCU	ENDS
; Function compile flags: /Odspy
; File C:\Program Files (x86)\Microsoft Visual Studio\2019\Community\VC\Tools\MSVC\14.28.29333\include\xutility
;	COMDAT ??$_Copy_memmove@PADPAD@std@@YAPADPAD00@Z
_TEXT	SEGMENT
__Last_ch$ = -16					; size = 4
__Count$ = -12						; size = 4
__Dest_ch$ = -8						; size = 4
__First_ch$ = -4					; size = 4
__First$ = 8						; size = 4
__Last$ = 12						; size = 4
__Dest$ = 16						; size = 4
??$_Copy_memmove@PADPAD@std@@YAPADPAD00@Z PROC		; std::_Copy_memmove<char *,char *>, COMDAT

; 4360 : _OutIt _Copy_memmove(_InIt _First, _InIt _Last, _OutIt _Dest) {

  00000	55		 push	 ebp
  00001	8b ec		 mov	 ebp, esp
  00003	83 ec 10	 sub	 esp, 16			; 00000010H

; 4361 :     const char* const _First_ch = const_cast<const char*>(reinterpret_cast<const volatile char*>(_First));

  00006	8b 45 08	 mov	 eax, DWORD PTR __First$[ebp]
  00009	89 45 fc	 mov	 DWORD PTR __First_ch$[ebp], eax

; 4362 :     const char* const _Last_ch  = const_cast<const char*>(reinterpret_cast<const volatile char*>(_Last));

  0000c	8b 45 0c	 mov	 eax, DWORD PTR __Last$[ebp]
  0000f	89 45 f0	 mov	 DWORD PTR __Last_ch$[ebp], eax

; 4363 :     char* const _Dest_ch        = const_cast<char*>(reinterpret_cast<volatile char*>(_Dest));

  00012	8b 45 10	 mov	 eax, DWORD PTR __Dest$[ebp]
  00015	89 45 f8	 mov	 DWORD PTR __Dest_ch$[ebp], eax

; 4364 :     const auto _Count           = static_cast<size_t>(_Last_ch - _First_ch);

  00018	8b 45 f0	 mov	 eax, DWORD PTR __Last_ch$[ebp]
  0001b	2b 45 fc	 sub	 eax, DWORD PTR __First_ch$[ebp]
  0001e	89 45 f4	 mov	 DWORD PTR __Count$[ebp], eax

; 4365 :     _CSTD memmove(_Dest_ch, _First_ch, _Count);

  00021	ff 75 f4	 push	 DWORD PTR __Count$[ebp]
  00024	ff 75 fc	 push	 DWORD PTR __First_ch$[ebp]
  00027	ff 75 f8	 push	 DWORD PTR __Dest_ch$[ebp]
  0002a	e8 00 00 00 00	 call	 _memmove
  0002f	83 c4 0c	 add	 esp, 12			; 0000000cH

; 4366 :     return reinterpret_cast<_OutIt>(_Dest_ch + _Count);

  00032	8b 45 f8	 mov	 eax, DWORD PTR __Dest_ch$[ebp]
  00035	03 45 f4	 add	 eax, DWORD PTR __Count$[ebp]

; 4367 : }

  00038	c9		 leave
  00039	c3		 ret	 0
??$_Copy_memmove@PADPAD@std@@YAPADPAD00@Z ENDP		; std::_Copy_memmove<char *,char *>
_TEXT	ENDS
; Function compile flags: /Odspy
; File C:\Program Files (x86)\Microsoft Visual Studio\2019\Community\VC\Tools\MSVC\14.28.29333\include\xmemory
; File C:\Program Files (x86)\Microsoft Visual Studio\2019\Community\VC\Tools\MSVC\14.28.29333\include\xstddef
; File C:\Program Files (x86)\Microsoft Visual Studio\2019\Community\VC\Tools\MSVC\14.28.29333\include\xmemory
;	COMDAT ??$_Uninitialized_move@PADV?$allocator@D@std@@@std@@YAPADQAD0PADAAV?$allocator@D@0@@Z
_TEXT	SEGMENT
$T1 = -12						; size = 4
__UFirst$ = -8						; size = 4
__ULast$ = -4						; size = 4
__First$ = 8						; size = 4
__Last$ = 12						; size = 4
__Dest$ = 16						; size = 4
__Al$ = 20						; size = 4
??$_Uninitialized_move@PADV?$allocator@D@std@@@std@@YAPADQAD0PADAAV?$allocator@D@0@@Z PROC ; std::_Uninitialized_move<char *,std::allocator<char> >, COMDAT

; 1685 :     const _InIt _First, const _InIt _Last, _Alloc_ptr_t<_Alloc> _Dest, _Alloc& _Al) {

  00000	55		 push	 ebp
  00001	8b ec		 mov	 ebp, esp
  00003	83 ec 0c	 sub	 esp, 12			; 0000000cH

; 1686 :     // move [_First, _Last) to raw _Dest, using _Al
; 1687 :     // note: only called internally from elsewhere in the STL
; 1688 :     using _Ptrval     = typename _Alloc::value_type*;
; 1689 :     auto _UFirst      = _Get_unwrapped(_First);

  00006	8b 45 08	 mov	 eax, DWORD PTR __First$[ebp]
  00009	89 45 f8	 mov	 DWORD PTR __UFirst$[ebp], eax

; 1690 :     const auto _ULast = _Get_unwrapped(_Last);

  0000c	8b 45 0c	 mov	 eax, DWORD PTR __Last$[ebp]
  0000f	89 45 fc	 mov	 DWORD PTR __ULast$[ebp], eax
; File C:\Program Files (x86)\Microsoft Visual Studio\2019\Community\VC\Tools\MSVC\14.28.29333\include\xstddef

; 289  :     return _Ptr;

  00012	8b 45 10	 mov	 eax, DWORD PTR __Dest$[ebp]
  00015	89 45 f4	 mov	 DWORD PTR $T1[ebp], eax
; File C:\Program Files (x86)\Microsoft Visual Studio\2019\Community\VC\Tools\MSVC\14.28.29333\include\xmemory

; 1693 :         _Copy_memmove(_UFirst, _ULast, _Unfancy(_Dest));

  00018	ff 75 f4	 push	 DWORD PTR $T1[ebp]
  0001b	ff 75 fc	 push	 DWORD PTR __ULast$[ebp]
  0001e	ff 75 f8	 push	 DWORD PTR __UFirst$[ebp]
  00021	e8 00 00 00 00	 call	 ??$_Copy_memmove@PADPAD@std@@YAPADPAD00@Z ; std::_Copy_memmove<char *,char *>
  00026	83 c4 0c	 add	 esp, 12			; 0000000cH

; 1694 :         return _Dest + (_ULast - _UFirst);

  00029	8b 45 fc	 mov	 eax, DWORD PTR __ULast$[ebp]
  0002c	2b 45 f8	 sub	 eax, DWORD PTR __UFirst$[ebp]
  0002f	03 45 10	 add	 eax, DWORD PTR __Dest$[ebp]

; 1695 :     } else {
; 1696 :         _Uninitialized_backout_al<_Alloc> _Backout{_Dest, _Al};
; 1697 :         for (; _UFirst != _ULast; ++_UFirst) {
; 1698 :             _Backout._Emplace_back(_STD move(*_UFirst));
; 1699 :         }
; 1700 : 
; 1701 :         return _Backout._Release();
; 1702 :     }
; 1703 : }

  00032	c9		 leave
  00033	c3		 ret	 0
??$_Uninitialized_move@PADV?$allocator@D@std@@@std@@YAPADQAD0PADAAV?$allocator@D@0@@Z ENDP ; std::_Uninitialized_move<char *,std::allocator<char> >
_TEXT	ENDS
; Function compile flags: /Odspy
; File C:\Program Files (x86)\Microsoft Visual Studio\2019\Community\VC\Tools\MSVC\14.28.29333\include\xmemory
; File C:\Program Files (x86)\Microsoft Visual Studio\2019\Community\VC\Tools\MSVC\14.28.29333\include\type_traits
; File C:\Program Files (x86)\Microsoft Visual Studio\2019\Community\VC\Tools\MSVC\14.28.29333\include\xmemory
; File C:\Program Files (x86)\Microsoft Visual Studio\2019\Community\VC\Tools\MSVC\14.28.29333\include\xstddef
; File C:\Program Files (x86)\Microsoft Visual Studio\2019\Community\VC\Tools\MSVC\14.28.29333\include\xmemory
; File C:\Program Files (x86)\Microsoft Visual Studio\2019\Community\VC\Tools\MSVC\14.28.29333\include\vcruntime_new.h
; File C:\Program Files (x86)\Microsoft Visual Studio\2019\Community\VC\Tools\MSVC\14.28.29333\include\type_traits
; File C:\Program Files (x86)\Microsoft Visual Studio\2019\Community\VC\Tools\MSVC\14.28.29333\include\xmemory
;	COMDAT ??$_Emplace_back@V?$basic_string@DU?$char_traits@D@std@@V?$allocator@D@2@@std@@@?$_Uninitialized_backout_al@V?$allocator@V?$basic_string@DU?$char_traits@D@std@@V?$allocator@D@2@@std@@@std@@@std@@QAEX$$QAV?$basic_string@DU?$char_traits@D@std@@V?$allocator@D@2@@1@@Z
_TEXT	SEGMENT
___formal$ = -28					; size = 4
$T1 = -24						; size = 4
$T2 = -20						; size = 4
$T3 = -16						; size = 4
$T4 = -12						; size = 4
__Ptr$ = -8						; size = 4
_this$ = -4						; size = 4
_<_Vals_0>$ = 8						; size = 4
??$_Emplace_back@V?$basic_string@DU?$char_traits@D@std@@V?$allocator@D@2@@std@@@?$_Uninitialized_backout_al@V?$allocator@V?$basic_string@DU?$char_traits@D@std@@V?$allocator@D@2@@std@@@std@@@std@@QAEX$$QAV?$basic_string@DU?$char_traits@D@std@@V?$allocator@D@2@@1@@Z PROC ; std::_Uninitialized_backout_al<std::allocator<std::basic_string<char,std::char_traits<char>,std::allocator<char> > > >::_Emplace_back<std::basic_string<char,std::char_traits<char>,std::allocator<char> > >, COMDAT
; _this$ = ecx

; 1545 :     void _Emplace_back(_Types&&... _Vals) { // construct a new element at *_Last and increment

  00000	55		 push	 ebp
  00001	8b ec		 mov	 ebp, esp
  00003	83 ec 1c	 sub	 esp, 28			; 0000001cH
  00006	89 4d fc	 mov	 DWORD PTR _this$[ebp], ecx
; File C:\Program Files (x86)\Microsoft Visual Studio\2019\Community\VC\Tools\MSVC\14.28.29333\include\type_traits

; 1443 :     return static_cast<_Ty&&>(_Arg);

  00009	8b 45 08	 mov	 eax, DWORD PTR _<_Vals_0>$[ebp]
  0000c	89 45 f0	 mov	 DWORD PTR $T3[ebp], eax
; File C:\Program Files (x86)\Microsoft Visual Studio\2019\Community\VC\Tools\MSVC\14.28.29333\include\xmemory

; 1546 :         allocator_traits<_Alloc>::construct(_Al, _Unfancy(_Last), _STD forward<_Types>(_Vals)...);

  0000f	8b 45 fc	 mov	 eax, DWORD PTR _this$[ebp]
  00012	8b 40 04	 mov	 eax, DWORD PTR [eax+4]
  00015	89 45 f8	 mov	 DWORD PTR __Ptr$[ebp], eax
; File C:\Program Files (x86)\Microsoft Visual Studio\2019\Community\VC\Tools\MSVC\14.28.29333\include\xstddef

; 289  :     return _Ptr;

  00018	8b 45 f8	 mov	 eax, DWORD PTR __Ptr$[ebp]
  0001b	89 45 f4	 mov	 DWORD PTR $T4[ebp], eax
; File C:\Program Files (x86)\Microsoft Visual Studio\2019\Community\VC\Tools\MSVC\14.28.29333\include\xmemory

; 1546 :         allocator_traits<_Alloc>::construct(_Al, _Unfancy(_Last), _STD forward<_Types>(_Vals)...);

  0001e	8b 45 fc	 mov	 eax, DWORD PTR _this$[ebp]
  00021	8b 40 08	 mov	 eax, DWORD PTR [eax+8]
  00024	89 45 e4	 mov	 DWORD PTR ___formal$[ebp], eax
; File C:\Program Files (x86)\Microsoft Visual Studio\2019\Community\VC\Tools\MSVC\14.28.29333\include\vcruntime_new.h

; 169  :         return _Where;

  00027	8b 45 f4	 mov	 eax, DWORD PTR $T4[ebp]
  0002a	89 45 e8	 mov	 DWORD PTR $T1[ebp], eax
; File C:\Program Files (x86)\Microsoft Visual Studio\2019\Community\VC\Tools\MSVC\14.28.29333\include\type_traits

; 1443 :     return static_cast<_Ty&&>(_Arg);

  0002d	8b 45 f0	 mov	 eax, DWORD PTR $T3[ebp]
  00030	89 45 ec	 mov	 DWORD PTR $T2[ebp], eax
; File C:\Program Files (x86)\Microsoft Visual Studio\2019\Community\VC\Tools\MSVC\14.28.29333\include\xmemory

; 701  :         ::new (const_cast<void*>(static_cast<const volatile void*>(_Ptr))) _Objty(_STD forward<_Types>(_Args)...);

  00033	ff 75 ec	 push	 DWORD PTR $T2[ebp]
  00036	8b 4d e8	 mov	 ecx, DWORD PTR $T1[ebp]
  00039	e8 00 00 00 00	 call	 ??0?$basic_string@DU?$char_traits@D@std@@V?$allocator@D@2@@std@@QAE@$$QAV01@@Z ; std::basic_string<char,std::char_traits<char>,std::allocator<char> >::basic_string<char,std::char_traits<char>,std::allocator<char> >

; 1547 :         ++_Last;

  0003e	8b 45 fc	 mov	 eax, DWORD PTR _this$[ebp]
  00041	8b 40 04	 mov	 eax, DWORD PTR [eax+4]
  00044	83 c0 18	 add	 eax, 24			; 00000018H
  00047	8b 4d fc	 mov	 ecx, DWORD PTR _this$[ebp]
  0004a	89 41 04	 mov	 DWORD PTR [ecx+4], eax

; 1548 :     }

  0004d	c9		 leave
  0004e	c2 04 00	 ret	 4
??$_Emplace_back@V?$basic_string@DU?$char_traits@D@std@@V?$allocator@D@2@@std@@@?$_Uninitialized_backout_al@V?$allocator@V?$basic_string@DU?$char_traits@D@std@@V?$allocator@D@2@@std@@@std@@@std@@QAEX$$QAV?$basic_string@DU?$char_traits@D@std@@V?$allocator@D@2@@1@@Z ENDP ; std::_Uninitialized_backout_al<std::allocator<std::basic_string<char,std::char_traits<char>,std::allocator<char> > > >::_Emplace_back<std::basic_string<char,std::char_traits<char>,std::allocator<char> > >
_TEXT	ENDS
; Function compile flags: /Odspy
; File C:\Program Files (x86)\Microsoft Visual Studio\2019\Community\VC\Tools\MSVC\14.28.29333\include\xmemory
;	COMDAT ??1?$_Uninitialized_backout_al@V?$allocator@V?$basic_string@DU?$char_traits@D@std@@V?$allocator@D@2@@std@@@std@@@std@@QAE@XZ
_TEXT	SEGMENT
_this$ = -4						; size = 4
??1?$_Uninitialized_backout_al@V?$allocator@V?$basic_string@DU?$char_traits@D@std@@V?$allocator@D@2@@std@@@std@@@std@@QAE@XZ PROC ; std::_Uninitialized_backout_al<std::allocator<std::basic_string<char,std::char_traits<char>,std::allocator<char> > > >::~_Uninitialized_backout_al<std::allocator<std::basic_string<char,std::char_traits<char>,std::allocator<char> > > >, COMDAT
; _this$ = ecx

; 1540 :     ~_Uninitialized_backout_al() {

  00000	55		 push	 ebp
  00001	8b ec		 mov	 ebp, esp
  00003	51		 push	 ecx
  00004	89 4d fc	 mov	 DWORD PTR _this$[ebp], ecx

; 1541 :         _Destroy_range(_First, _Last, _Al);

  00007	8b 45 fc	 mov	 eax, DWORD PTR _this$[ebp]
  0000a	ff 70 08	 push	 DWORD PTR [eax+8]
  0000d	8b 45 fc	 mov	 eax, DWORD PTR _this$[ebp]
  00010	ff 70 04	 push	 DWORD PTR [eax+4]
  00013	8b 45 fc	 mov	 eax, DWORD PTR _this$[ebp]
  00016	ff 30		 push	 DWORD PTR [eax]
  00018	e8 00 00 00 00	 call	 ??$_Destroy_range@V?$allocator@V?$basic_string@DU?$char_traits@D@std@@V?$allocator@D@2@@std@@@std@@@std@@YAXPAV?$basic_string@DU?$char_traits@D@std@@V?$allocator@D@2@@0@QAV10@AAV?$allocator@V?$basic_string@DU?$char_traits@D@std@@V?$allocator@D@2@@std@@@0@@Z ; std::_Destroy_range<std::allocator<std::basic_string<char,std::char_traits<char>,std::allocator<char> > > >
  0001d	83 c4 0c	 add	 esp, 12			; 0000000cH

; 1542 :     }

  00020	c9		 leave
  00021	c3		 ret	 0
??1?$_Uninitialized_backout_al@V?$allocator@V?$basic_string@DU?$char_traits@D@std@@V?$allocator@D@2@@std@@@std@@@std@@QAE@XZ ENDP ; std::_Uninitialized_backout_al<std::allocator<std::basic_string<char,std::char_traits<char>,std::allocator<char> > > >::~_Uninitialized_backout_al<std::allocator<std::basic_string<char,std::char_traits<char>,std::allocator<char> > > >
_TEXT	ENDS
; Function compile flags: /Odspy
; File C:\Program Files (x86)\Microsoft Visual Studio\2019\Community\VC\Tools\MSVC\14.28.29333\include\xutility
;	COMDAT ??$_Copy_memmove@PAKPAK@std@@YAPAKPAK00@Z
_TEXT	SEGMENT
__Last_ch$ = -16					; size = 4
__Count$ = -12						; size = 4
__Dest_ch$ = -8						; size = 4
__First_ch$ = -4					; size = 4
__First$ = 8						; size = 4
__Last$ = 12						; size = 4
__Dest$ = 16						; size = 4
??$_Copy_memmove@PAKPAK@std@@YAPAKPAK00@Z PROC		; std::_Copy_memmove<unsigned long *,unsigned long *>, COMDAT

; 4360 : _OutIt _Copy_memmove(_InIt _First, _InIt _Last, _OutIt _Dest) {

  00000	55		 push	 ebp
  00001	8b ec		 mov	 ebp, esp
  00003	83 ec 10	 sub	 esp, 16			; 00000010H

; 4361 :     const char* const _First_ch = const_cast<const char*>(reinterpret_cast<const volatile char*>(_First));

  00006	8b 45 08	 mov	 eax, DWORD PTR __First$[ebp]
  00009	89 45 fc	 mov	 DWORD PTR __First_ch$[ebp], eax

; 4362 :     const char* const _Last_ch  = const_cast<const char*>(reinterpret_cast<const volatile char*>(_Last));

  0000c	8b 45 0c	 mov	 eax, DWORD PTR __Last$[ebp]
  0000f	89 45 f0	 mov	 DWORD PTR __Last_ch$[ebp], eax

; 4363 :     char* const _Dest_ch        = const_cast<char*>(reinterpret_cast<volatile char*>(_Dest));

  00012	8b 45 10	 mov	 eax, DWORD PTR __Dest$[ebp]
  00015	89 45 f8	 mov	 DWORD PTR __Dest_ch$[ebp], eax

; 4364 :     const auto _Count           = static_cast<size_t>(_Last_ch - _First_ch);

  00018	8b 45 f0	 mov	 eax, DWORD PTR __Last_ch$[ebp]
  0001b	2b 45 fc	 sub	 eax, DWORD PTR __First_ch$[ebp]
  0001e	89 45 f4	 mov	 DWORD PTR __Count$[ebp], eax

; 4365 :     _CSTD memmove(_Dest_ch, _First_ch, _Count);

  00021	ff 75 f4	 push	 DWORD PTR __Count$[ebp]
  00024	ff 75 fc	 push	 DWORD PTR __First_ch$[ebp]
  00027	ff 75 f8	 push	 DWORD PTR __Dest_ch$[ebp]
  0002a	e8 00 00 00 00	 call	 _memmove
  0002f	83 c4 0c	 add	 esp, 12			; 0000000cH

; 4366 :     return reinterpret_cast<_OutIt>(_Dest_ch + _Count);

  00032	8b 45 f8	 mov	 eax, DWORD PTR __Dest_ch$[ebp]
  00035	03 45 f4	 add	 eax, DWORD PTR __Count$[ebp]

; 4367 : }

  00038	c9		 leave
  00039	c3		 ret	 0
??$_Copy_memmove@PAKPAK@std@@YAPAKPAK00@Z ENDP		; std::_Copy_memmove<unsigned long *,unsigned long *>
_TEXT	ENDS
; Function compile flags: /Odspy
; File C:\Program Files (x86)\Microsoft Visual Studio\2019\Community\VC\Tools\MSVC\14.28.29333\include\xmemory
;	COMDAT ??$_Zero_range@PAPAV?$basic_string@DU?$char_traits@D@std@@V?$allocator@D@2@@std@@@std@@YAPAPAV?$basic_string@DU?$char_traits@D@std@@V?$allocator@D@2@@0@QAPAV10@0@Z
_TEXT	SEGMENT
__Last_ch$ = -8						; size = 4
__First_ch$ = -4					; size = 4
__First$ = 8						; size = 4
__Last$ = 12						; size = 4
??$_Zero_range@PAPAV?$basic_string@DU?$char_traits@D@std@@V?$allocator@D@2@@std@@@std@@YAPAPAV?$basic_string@DU?$char_traits@D@std@@V?$allocator@D@2@@0@QAPAV10@0@Z PROC ; std::_Zero_range<std::basic_string<char,std::char_traits<char>,std::allocator<char> > * *>, COMDAT

; 1852 : _Ptr _Zero_range(const _Ptr _First, const _Ptr _Last) { // fill [_First, _Last) with zeroes

  00000	55		 push	 ebp
  00001	8b ec		 mov	 ebp, esp
  00003	51		 push	 ecx
  00004	51		 push	 ecx

; 1853 :     char* const _First_ch = reinterpret_cast<char*>(_First);

  00005	8b 45 08	 mov	 eax, DWORD PTR __First$[ebp]
  00008	89 45 fc	 mov	 DWORD PTR __First_ch$[ebp], eax

; 1854 :     char* const _Last_ch  = reinterpret_cast<char*>(_Last);

  0000b	8b 45 0c	 mov	 eax, DWORD PTR __Last$[ebp]
  0000e	89 45 f8	 mov	 DWORD PTR __Last_ch$[ebp], eax

; 1855 :     _CSTD memset(_First_ch, 0, static_cast<size_t>(_Last_ch - _First_ch));

  00011	8b 45 f8	 mov	 eax, DWORD PTR __Last_ch$[ebp]
  00014	2b 45 fc	 sub	 eax, DWORD PTR __First_ch$[ebp]
  00017	50		 push	 eax
  00018	6a 00		 push	 0
  0001a	ff 75 fc	 push	 DWORD PTR __First_ch$[ebp]
  0001d	e8 00 00 00 00	 call	 _memset
  00022	83 c4 0c	 add	 esp, 12			; 0000000cH

; 1856 :     return _Last;

  00025	8b 45 0c	 mov	 eax, DWORD PTR __Last$[ebp]

; 1857 : }

  00028	c9		 leave
  00029	c3		 ret	 0
??$_Zero_range@PAPAV?$basic_string@DU?$char_traits@D@std@@V?$allocator@D@2@@std@@@std@@YAPAPAV?$basic_string@DU?$char_traits@D@std@@V?$allocator@D@2@@0@QAPAV10@0@Z ENDP ; std::_Zero_range<std::basic_string<char,std::char_traits<char>,std::allocator<char> > * *>
_TEXT	ENDS
; Function compile flags: /Odspy
; File C:\Program Files (x86)\Microsoft Visual Studio\2019\Community\VC\Tools\MSVC\14.28.29333\include\xutility
;	COMDAT ??$_Copy_memmove@PAPAV?$basic_string@DU?$char_traits@D@std@@V?$allocator@D@2@@std@@PAPAV12@@std@@YAPAPAV?$basic_string@DU?$char_traits@D@std@@V?$allocator@D@2@@0@PAPAV10@00@Z
_TEXT	SEGMENT
__Last_ch$ = -16					; size = 4
__Count$ = -12						; size = 4
__Dest_ch$ = -8						; size = 4
__First_ch$ = -4					; size = 4
__First$ = 8						; size = 4
__Last$ = 12						; size = 4
__Dest$ = 16						; size = 4
??$_Copy_memmove@PAPAV?$basic_string@DU?$char_traits@D@std@@V?$allocator@D@2@@std@@PAPAV12@@std@@YAPAPAV?$basic_string@DU?$char_traits@D@std@@V?$allocator@D@2@@0@PAPAV10@00@Z PROC ; std::_Copy_memmove<std::basic_string<char,std::char_traits<char>,std::allocator<char> > * *,std::basic_string<char,std::char_traits<char>,std::allocator<char> > * *>, COMDAT

; 4360 : _OutIt _Copy_memmove(_InIt _First, _InIt _Last, _OutIt _Dest) {

  00000	55		 push	 ebp
  00001	8b ec		 mov	 ebp, esp
  00003	83 ec 10	 sub	 esp, 16			; 00000010H

; 4361 :     const char* const _First_ch = const_cast<const char*>(reinterpret_cast<const volatile char*>(_First));

  00006	8b 45 08	 mov	 eax, DWORD PTR __First$[ebp]
  00009	89 45 fc	 mov	 DWORD PTR __First_ch$[ebp], eax

; 4362 :     const char* const _Last_ch  = const_cast<const char*>(reinterpret_cast<const volatile char*>(_Last));

  0000c	8b 45 0c	 mov	 eax, DWORD PTR __Last$[ebp]
  0000f	89 45 f0	 mov	 DWORD PTR __Last_ch$[ebp], eax

; 4363 :     char* const _Dest_ch        = const_cast<char*>(reinterpret_cast<volatile char*>(_Dest));

  00012	8b 45 10	 mov	 eax, DWORD PTR __Dest$[ebp]
  00015	89 45 f8	 mov	 DWORD PTR __Dest_ch$[ebp], eax

; 4364 :     const auto _Count           = static_cast<size_t>(_Last_ch - _First_ch);

  00018	8b 45 f0	 mov	 eax, DWORD PTR __Last_ch$[ebp]
  0001b	2b 45 fc	 sub	 eax, DWORD PTR __First_ch$[ebp]
  0001e	89 45 f4	 mov	 DWORD PTR __Count$[ebp], eax

; 4365 :     _CSTD memmove(_Dest_ch, _First_ch, _Count);

  00021	ff 75 f4	 push	 DWORD PTR __Count$[ebp]
  00024	ff 75 fc	 push	 DWORD PTR __First_ch$[ebp]
  00027	ff 75 f8	 push	 DWORD PTR __Dest_ch$[ebp]
  0002a	e8 00 00 00 00	 call	 _memmove
  0002f	83 c4 0c	 add	 esp, 12			; 0000000cH

; 4366 :     return reinterpret_cast<_OutIt>(_Dest_ch + _Count);

  00032	8b 45 f8	 mov	 eax, DWORD PTR __Dest_ch$[ebp]
  00035	03 45 f4	 add	 eax, DWORD PTR __Count$[ebp]

; 4367 : }

  00038	c9		 leave
  00039	c3		 ret	 0
??$_Copy_memmove@PAPAV?$basic_string@DU?$char_traits@D@std@@V?$allocator@D@2@@std@@PAPAV12@@std@@YAPAPAV?$basic_string@DU?$char_traits@D@std@@V?$allocator@D@2@@0@PAPAV10@00@Z ENDP ; std::_Copy_memmove<std::basic_string<char,std::char_traits<char>,std::allocator<char> > * *,std::basic_string<char,std::char_traits<char>,std::allocator<char> > * *>
_TEXT	ENDS
; Function compile flags: /Odspy
; File C:\Program Files (x86)\Microsoft Visual Studio\2019\Community\VC\Tools\MSVC\14.28.29333\include\xmemory
;	COMDAT ??$_Zero_range@PAD@std@@YAPADQAD0@Z
_TEXT	SEGMENT
__Last_ch$ = -8						; size = 4
__First_ch$ = -4					; size = 4
__First$ = 8						; size = 4
__Last$ = 12						; size = 4
??$_Zero_range@PAD@std@@YAPADQAD0@Z PROC		; std::_Zero_range<char *>, COMDAT

; 1852 : _Ptr _Zero_range(const _Ptr _First, const _Ptr _Last) { // fill [_First, _Last) with zeroes

  00000	55		 push	 ebp
  00001	8b ec		 mov	 ebp, esp
  00003	51		 push	 ecx
  00004	51		 push	 ecx

; 1853 :     char* const _First_ch = reinterpret_cast<char*>(_First);

  00005	8b 45 08	 mov	 eax, DWORD PTR __First$[ebp]
  00008	89 45 fc	 mov	 DWORD PTR __First_ch$[ebp], eax

; 1854 :     char* const _Last_ch  = reinterpret_cast<char*>(_Last);

  0000b	8b 45 0c	 mov	 eax, DWORD PTR __Last$[ebp]
  0000e	89 45 f8	 mov	 DWORD PTR __Last_ch$[ebp], eax

; 1855 :     _CSTD memset(_First_ch, 0, static_cast<size_t>(_Last_ch - _First_ch));

  00011	8b 45 f8	 mov	 eax, DWORD PTR __Last_ch$[ebp]
  00014	2b 45 fc	 sub	 eax, DWORD PTR __First_ch$[ebp]
  00017	50		 push	 eax
  00018	6a 00		 push	 0
  0001a	ff 75 fc	 push	 DWORD PTR __First_ch$[ebp]
  0001d	e8 00 00 00 00	 call	 _memset
  00022	83 c4 0c	 add	 esp, 12			; 0000000cH

; 1856 :     return _Last;

  00025	8b 45 0c	 mov	 eax, DWORD PTR __Last$[ebp]

; 1857 : }

  00028	c9		 leave
  00029	c3		 ret	 0
??$_Zero_range@PAD@std@@YAPADQAD0@Z ENDP		; std::_Zero_range<char *>
_TEXT	ENDS
; Function compile flags: /Odspy
; File C:\Program Files (x86)\Microsoft Visual Studio\2019\Community\VC\Tools\MSVC\14.28.29333\include\xmemory
; File C:\Program Files (x86)\Microsoft Visual Studio\2019\Community\VC\Tools\MSVC\14.28.29333\include\type_traits
; File C:\Program Files (x86)\Microsoft Visual Studio\2019\Community\VC\Tools\MSVC\14.28.29333\include\xmemory
;	COMDAT ??$_Uninitialized_move@PAV?$basic_string@DU?$char_traits@D@std@@V?$allocator@D@2@@std@@V?$allocator@V?$basic_string@DU?$char_traits@D@std@@V?$allocator@D@2@@std@@@2@@std@@YAPAV?$basic_string@DU?$char_traits@D@std@@V?$allocator@D@2@@0@QAV10@0PAV10@AAV?$allocator@V?$basic_string@DU?$char_traits@D@std@@V?$allocator@D@2@@std@@@0@@Z
_TEXT	SEGMENT
__Backout$2 = -40					; size = 12
$T3 = -28						; size = 4
$T4 = -24						; size = 4
__ULast$ = -20						; size = 4
__UFirst$ = -16						; size = 4
__$EHRec$ = -12						; size = 12
__First$ = 8						; size = 4
__Last$ = 12						; size = 4
__Dest$ = 16						; size = 4
__Al$ = 20						; size = 4
??$_Uninitialized_move@PAV?$basic_string@DU?$char_traits@D@std@@V?$allocator@D@2@@std@@V?$allocator@V?$basic_string@DU?$char_traits@D@std@@V?$allocator@D@2@@std@@@2@@std@@YAPAV?$basic_string@DU?$char_traits@D@std@@V?$allocator@D@2@@0@QAV10@0PAV10@AAV?$allocator@V?$basic_string@DU?$char_traits@D@std@@V?$allocator@D@2@@std@@@0@@Z PROC ; std::_Uninitialized_move<std::basic_string<char,std::char_traits<char>,std::allocator<char> > *,std::allocator<std::basic_string<char,std::char_traits<char>,std::allocator<char> > > >, COMDAT

; 1685 :     const _InIt _First, const _InIt _Last, _Alloc_ptr_t<_Alloc> _Dest, _Alloc& _Al) {

  00000	55		 push	 ebp
  00001	8b ec		 mov	 ebp, esp
  00003	6a ff		 push	 -1
  00005	68 00 00 00 00	 push	 __ehhandler$??$_Uninitialized_move@PAV?$basic_string@DU?$char_traits@D@std@@V?$allocator@D@2@@std@@V?$allocator@V?$basic_string@DU?$char_traits@D@std@@V?$allocator@D@2@@std@@@2@@std@@YAPAV?$basic_string@DU?$char_traits@D@std@@V?$allocator@D@2@@0@QAV10@0PAV10@AAV?$allocator@V?$basic_string@DU?$char_traits@D@std@@V?$allocator@D@2@@std@@@0@@Z
  0000a	64 a1 00 00 00
	00		 mov	 eax, DWORD PTR fs:0
  00010	50		 push	 eax
  00011	83 ec 1c	 sub	 esp, 28			; 0000001cH
  00014	a1 00 00 00 00	 mov	 eax, DWORD PTR ___security_cookie
  00019	33 c5		 xor	 eax, ebp
  0001b	50		 push	 eax
  0001c	8d 45 f4	 lea	 eax, DWORD PTR __$EHRec$[ebp]
  0001f	64 a3 00 00 00
	00		 mov	 DWORD PTR fs:0, eax

; 1686 :     // move [_First, _Last) to raw _Dest, using _Al
; 1687 :     // note: only called internally from elsewhere in the STL
; 1688 :     using _Ptrval     = typename _Alloc::value_type*;
; 1689 :     auto _UFirst      = _Get_unwrapped(_First);

  00025	8b 45 08	 mov	 eax, DWORD PTR __First$[ebp]
  00028	89 45 f0	 mov	 DWORD PTR __UFirst$[ebp], eax

; 1690 :     const auto _ULast = _Get_unwrapped(_Last);

  0002b	8b 45 0c	 mov	 eax, DWORD PTR __Last$[ebp]
  0002e	89 45 ec	 mov	 DWORD PTR __ULast$[ebp], eax

; 1535 :     _Uninitialized_backout_al(pointer _Dest, _Alloc& _Al_) : _First(_Dest), _Last(_Dest), _Al(_Al_) {}

  00031	8b 45 10	 mov	 eax, DWORD PTR __Dest$[ebp]
  00034	89 45 d8	 mov	 DWORD PTR __Backout$2[ebp], eax
  00037	8b 45 10	 mov	 eax, DWORD PTR __Dest$[ebp]
  0003a	89 45 dc	 mov	 DWORD PTR __Backout$2[ebp+4], eax
  0003d	8b 45 14	 mov	 eax, DWORD PTR __Al$[ebp]
  00040	89 45 e0	 mov	 DWORD PTR __Backout$2[ebp+8], eax

; 1691 :     if constexpr (conjunction_v<bool_constant<_Ptr_move_cat<decltype(_UFirst), _Ptrval>::_Really_trivial>,
; 1692 :                       _Uses_default_construct<_Alloc, _Ptrval, decltype(_STD move(*_UFirst))>>) {
; 1693 :         _Copy_memmove(_UFirst, _ULast, _Unfancy(_Dest));
; 1694 :         return _Dest + (_ULast - _UFirst);
; 1695 :     } else {
; 1696 :         _Uninitialized_backout_al<_Alloc> _Backout{_Dest, _Al};

  00043	83 65 fc 00	 and	 DWORD PTR __$EHRec$[ebp+8], 0

; 1697 :         for (; _UFirst != _ULast; ++_UFirst) {

  00047	eb 09		 jmp	 SHORT $LN4@Uninitiali
$LN2@Uninitiali:
  00049	8b 45 f0	 mov	 eax, DWORD PTR __UFirst$[ebp]
  0004c	83 c0 18	 add	 eax, 24			; 00000018H
  0004f	89 45 f0	 mov	 DWORD PTR __UFirst$[ebp], eax
$LN4@Uninitiali:
  00052	8b 45 f0	 mov	 eax, DWORD PTR __UFirst$[ebp]
  00055	3b 45 ec	 cmp	 eax, DWORD PTR __ULast$[ebp]
  00058	74 13		 je	 SHORT $LN3@Uninitiali
; File C:\Program Files (x86)\Microsoft Visual Studio\2019\Community\VC\Tools\MSVC\14.28.29333\include\type_traits

; 1455 :     return static_cast<remove_reference_t<_Ty>&&>(_Arg);

  0005a	8b 45 f0	 mov	 eax, DWORD PTR __UFirst$[ebp]
  0005d	89 45 e8	 mov	 DWORD PTR $T4[ebp], eax
; File C:\Program Files (x86)\Microsoft Visual Studio\2019\Community\VC\Tools\MSVC\14.28.29333\include\xmemory

; 1698 :             _Backout._Emplace_back(_STD move(*_UFirst));

  00060	ff 75 e8	 push	 DWORD PTR $T4[ebp]
  00063	8d 4d d8	 lea	 ecx, DWORD PTR __Backout$2[ebp]
  00066	e8 00 00 00 00	 call	 ??$_Emplace_back@V?$basic_string@DU?$char_traits@D@std@@V?$allocator@D@2@@std@@@?$_Uninitialized_backout_al@V?$allocator@V?$basic_string@DU?$char_traits@D@std@@V?$allocator@D@2@@std@@@std@@@std@@QAEX$$QAV?$basic_string@DU?$char_traits@D@std@@V?$allocator@D@2@@1@@Z ; std::_Uninitialized_backout_al<std::allocator<std::basic_string<char,std::char_traits<char>,std::allocator<char> > > >::_Emplace_back<std::basic_string<char,std::char_traits<char>,std::allocator<char> > >

; 1699 :         }

  0006b	eb dc		 jmp	 SHORT $LN2@Uninitiali
$LN3@Uninitiali:

; 1551 :         _First = _Last;

  0006d	8b 45 dc	 mov	 eax, DWORD PTR __Backout$2[ebp+4]
  00070	89 45 d8	 mov	 DWORD PTR __Backout$2[ebp], eax

; 1552 :         return _Last;

  00073	8b 45 dc	 mov	 eax, DWORD PTR __Backout$2[ebp+4]
  00076	89 45 e4	 mov	 DWORD PTR $T3[ebp], eax

; 1700 : 
; 1701 :         return _Backout._Release();

  00079	83 4d fc ff	 or	 DWORD PTR __$EHRec$[ebp+8], -1

; 1541 :         _Destroy_range(_First, _Last, _Al);

  0007d	ff 75 e0	 push	 DWORD PTR __Backout$2[ebp+8]
  00080	ff 75 dc	 push	 DWORD PTR __Backout$2[ebp+4]
  00083	ff 75 d8	 push	 DWORD PTR __Backout$2[ebp]
  00086	e8 00 00 00 00	 call	 ??$_Destroy_range@V?$allocator@V?$basic_string@DU?$char_traits@D@std@@V?$allocator@D@2@@std@@@std@@@std@@YAXPAV?$basic_string@DU?$char_traits@D@std@@V?$allocator@D@2@@0@QAV10@AAV?$allocator@V?$basic_string@DU?$char_traits@D@std@@V?$allocator@D@2@@std@@@0@@Z ; std::_Destroy_range<std::allocator<std::basic_string<char,std::char_traits<char>,std::allocator<char> > > >
  0008b	83 c4 0c	 add	 esp, 12			; 0000000cH

; 1700 : 
; 1701 :         return _Backout._Release();

  0008e	8b 45 e4	 mov	 eax, DWORD PTR $T3[ebp]

; 1702 :     }
; 1703 : }

  00091	8b 4d f4	 mov	 ecx, DWORD PTR __$EHRec$[ebp]
  00094	64 89 0d 00 00
	00 00		 mov	 DWORD PTR fs:0, ecx
  0009b	59		 pop	 ecx
  0009c	c9		 leave
  0009d	c3		 ret	 0
_TEXT	ENDS
;	COMDAT text$x
text$x	SEGMENT
__unwindfunclet$??$_Uninitialized_move@PAV?$basic_string@DU?$char_traits@D@std@@V?$allocator@D@2@@std@@V?$allocator@V?$basic_string@DU?$char_traits@D@std@@V?$allocator@D@2@@std@@@2@@std@@YAPAV?$basic_string@DU?$char_traits@D@std@@V?$allocator@D@2@@0@QAV10@0PAV10@AAV?$allocator@V?$basic_string@DU?$char_traits@D@std@@V?$allocator@D@2@@std@@@0@@Z$0:
  00000	8d 4d d8	 lea	 ecx, DWORD PTR __Backout$2[ebp]
  00003	e9 00 00 00 00	 jmp	 ??1?$_Uninitialized_backout_al@V?$allocator@V?$basic_string@DU?$char_traits@D@std@@V?$allocator@D@2@@std@@@std@@@std@@QAE@XZ ; std::_Uninitialized_backout_al<std::allocator<std::basic_string<char,std::char_traits<char>,std::allocator<char> > > >::~_Uninitialized_backout_al<std::allocator<std::basic_string<char,std::char_traits<char>,std::allocator<char> > > >
  00008	cc		 int	 3
  00009	cc		 int	 3
  0000a	cc		 int	 3
  0000b	cc		 int	 3
  0000c	cc		 int	 3
__ehhandler$??$_Uninitialized_move@PAV?$basic_string@DU?$char_traits@D@std@@V?$allocator@D@2@@std@@V?$allocator@V?$basic_string@DU?$char_traits@D@std@@V?$allocator@D@2@@std@@@2@@std@@YAPAV?$basic_string@DU?$char_traits@D@std@@V?$allocator@D@2@@0@QAV10@0PAV10@AAV?$allocator@V?$basic_string@DU?$char_traits@D@std@@V?$allocator@D@2@@std@@@0@@Z:
  0000d	90		 npad	 1
  0000e	90		 npad	 1
  0000f	8b 54 24 08	 mov	 edx, DWORD PTR [esp+8]
  00013	8d 42 0c	 lea	 eax, DWORD PTR [edx+12]
  00016	8b 4a e0	 mov	 ecx, DWORD PTR [edx-32]
  00019	33 c8		 xor	 ecx, eax
  0001b	e8 00 00 00 00	 call	 @__security_check_cookie@4
  00020	b8 00 00 00 00	 mov	 eax, OFFSET __ehfuncinfo$??$_Uninitialized_move@PAV?$basic_string@DU?$char_traits@D@std@@V?$allocator@D@2@@std@@V?$allocator@V?$basic_string@DU?$char_traits@D@std@@V?$allocator@D@2@@std@@@2@@std@@YAPAV?$basic_string@DU?$char_traits@D@std@@V?$allocator@D@2@@0@QAV10@0PAV10@AAV?$allocator@V?$basic_string@DU?$char_traits@D@std@@V?$allocator@D@2@@std@@@0@@Z
  00025	e9 00 00 00 00	 jmp	 ___CxxFrameHandler3
text$x	ENDS
??$_Uninitialized_move@PAV?$basic_string@DU?$char_traits@D@std@@V?$allocator@D@2@@std@@V?$allocator@V?$basic_string@DU?$char_traits@D@std@@V?$allocator@D@2@@std@@@2@@std@@YAPAV?$basic_string@DU?$char_traits@D@std@@V?$allocator@D@2@@0@QAV10@0PAV10@AAV?$allocator@V?$basic_string@DU?$char_traits@D@std@@V?$allocator@D@2@@std@@@0@@Z ENDP ; std::_Uninitialized_move<std::basic_string<char,std::char_traits<char>,std::allocator<char> > *,std::allocator<std::basic_string<char,std::char_traits<char>,std::allocator<char> > > >
; Function compile flags: /Odspy
; File C:\Program Files (x86)\Microsoft Visual Studio\2019\Community\VC\Tools\MSVC\14.28.29333\include\xmemory
; File C:\Program Files (x86)\Microsoft Visual Studio\2019\Community\VC\Tools\MSVC\14.28.29333\include\xstddef
; File C:\Program Files (x86)\Microsoft Visual Studio\2019\Community\VC\Tools\MSVC\14.28.29333\include\xmemory
;	COMDAT ??$_Uninitialized_move@PAKV?$allocator@K@std@@@std@@YAPAKQAK0PAKAAV?$allocator@K@0@@Z
_TEXT	SEGMENT
$T1 = -12						; size = 4
__UFirst$ = -8						; size = 4
__ULast$ = -4						; size = 4
__First$ = 8						; size = 4
__Last$ = 12						; size = 4
__Dest$ = 16						; size = 4
__Al$ = 20						; size = 4
??$_Uninitialized_move@PAKV?$allocator@K@std@@@std@@YAPAKQAK0PAKAAV?$allocator@K@0@@Z PROC ; std::_Uninitialized_move<unsigned long *,std::allocator<unsigned long> >, COMDAT

; 1685 :     const _InIt _First, const _InIt _Last, _Alloc_ptr_t<_Alloc> _Dest, _Alloc& _Al) {

  00000	55		 push	 ebp
  00001	8b ec		 mov	 ebp, esp
  00003	83 ec 0c	 sub	 esp, 12			; 0000000cH

; 1686 :     // move [_First, _Last) to raw _Dest, using _Al
; 1687 :     // note: only called internally from elsewhere in the STL
; 1688 :     using _Ptrval     = typename _Alloc::value_type*;
; 1689 :     auto _UFirst      = _Get_unwrapped(_First);

  00006	8b 45 08	 mov	 eax, DWORD PTR __First$[ebp]
  00009	89 45 f8	 mov	 DWORD PTR __UFirst$[ebp], eax

; 1690 :     const auto _ULast = _Get_unwrapped(_Last);

  0000c	8b 45 0c	 mov	 eax, DWORD PTR __Last$[ebp]
  0000f	89 45 fc	 mov	 DWORD PTR __ULast$[ebp], eax
; File C:\Program Files (x86)\Microsoft Visual Studio\2019\Community\VC\Tools\MSVC\14.28.29333\include\xstddef

; 289  :     return _Ptr;

  00012	8b 45 10	 mov	 eax, DWORD PTR __Dest$[ebp]
  00015	89 45 f4	 mov	 DWORD PTR $T1[ebp], eax
; File C:\Program Files (x86)\Microsoft Visual Studio\2019\Community\VC\Tools\MSVC\14.28.29333\include\xmemory

; 1693 :         _Copy_memmove(_UFirst, _ULast, _Unfancy(_Dest));

  00018	ff 75 f4	 push	 DWORD PTR $T1[ebp]
  0001b	ff 75 fc	 push	 DWORD PTR __ULast$[ebp]
  0001e	ff 75 f8	 push	 DWORD PTR __UFirst$[ebp]
  00021	e8 00 00 00 00	 call	 ??$_Copy_memmove@PAKPAK@std@@YAPAKPAK00@Z ; std::_Copy_memmove<unsigned long *,unsigned long *>
  00026	83 c4 0c	 add	 esp, 12			; 0000000cH

; 1694 :         return _Dest + (_ULast - _UFirst);

  00029	8b 45 fc	 mov	 eax, DWORD PTR __ULast$[ebp]
  0002c	2b 45 f8	 sub	 eax, DWORD PTR __UFirst$[ebp]
  0002f	c1 f8 02	 sar	 eax, 2
  00032	8b 4d 10	 mov	 ecx, DWORD PTR __Dest$[ebp]
  00035	8d 04 81	 lea	 eax, DWORD PTR [ecx+eax*4]

; 1695 :     } else {
; 1696 :         _Uninitialized_backout_al<_Alloc> _Backout{_Dest, _Al};
; 1697 :         for (; _UFirst != _ULast; ++_UFirst) {
; 1698 :             _Backout._Emplace_back(_STD move(*_UFirst));
; 1699 :         }
; 1700 : 
; 1701 :         return _Backout._Release();
; 1702 :     }
; 1703 : }

  00038	c9		 leave
  00039	c3		 ret	 0
??$_Uninitialized_move@PAKV?$allocator@K@std@@@std@@YAPAKQAK0PAKAAV?$allocator@K@0@@Z ENDP ; std::_Uninitialized_move<unsigned long *,std::allocator<unsigned long> >
_TEXT	ENDS
; Function compile flags: /Odspy
; File C:\Program Files (x86)\Microsoft Visual Studio\2019\Community\VC\Tools\MSVC\14.28.29333\include\xmemory
;	COMDAT ??$_Destroy_range@PAPAV?$basic_string@DU?$char_traits@D@std@@V?$allocator@D@2@@std@@PAPAV12@@std@@YAXPAPAV?$basic_string@DU?$char_traits@D@std@@V?$allocator@D@2@@0@QAPAV10@@Z
_TEXT	SEGMENT
__First$ = 8						; size = 4
__Last$ = 12						; size = 4
??$_Destroy_range@PAPAV?$basic_string@DU?$char_traits@D@std@@V?$allocator@D@2@@std@@PAPAV12@@std@@YAXPAPAV?$basic_string@DU?$char_traits@D@std@@V?$allocator@D@2@@0@QAPAV10@@Z PROC ; std::_Destroy_range<std::basic_string<char,std::char_traits<char>,std::allocator<char> > * *,std::basic_string<char,std::char_traits<char>,std::allocator<char> > * *>, COMDAT

; 974  : /* _CONSTEXPR20_DYNALLOC */ void _Destroy_range(_NoThrowFwdIt _First, const _NoThrowSentinel _Last) noexcept {

  00000	55		 push	 ebp
  00001	8b ec		 mov	 ebp, esp

; 975  :     // note that this is an optimization for debug mode codegen; in release mode the BE removes all of this
; 976  :     if _CONSTEXPR_IF (!is_trivially_destructible_v<_Iter_value_t<_NoThrowFwdIt>>) {
; 977  :         for (; _First != _Last; ++_First) {
; 978  :             _Destroy_in_place(*_First);
; 979  :         }
; 980  :     }
; 981  : }

  00003	5d		 pop	 ebp
  00004	c3		 ret	 0
??$_Destroy_range@PAPAV?$basic_string@DU?$char_traits@D@std@@V?$allocator@D@2@@std@@PAPAV12@@std@@YAXPAPAV?$basic_string@DU?$char_traits@D@std@@V?$allocator@D@2@@0@QAPAV10@@Z ENDP ; std::_Destroy_range<std::basic_string<char,std::char_traits<char>,std::allocator<char> > * *,std::basic_string<char,std::char_traits<char>,std::allocator<char> > * *>
_TEXT	ENDS
; Function compile flags: /Odspy
; File C:\Program Files (x86)\Microsoft Visual Studio\2019\Community\VC\Tools\MSVC\14.28.29333\include\xmemory
;	COMDAT ??$_Uninitialized_value_construct_n_unchecked1@PAPAV?$basic_string@DU?$char_traits@D@std@@V?$allocator@D@2@@std@@I@std@@YAPAPAV?$basic_string@DU?$char_traits@D@std@@V?$allocator@D@2@@0@PAPAV10@I@Z
_TEXT	SEGMENT
__UFirst$ = 8						; size = 4
__Count$ = 12						; size = 4
??$_Uninitialized_value_construct_n_unchecked1@PAPAV?$basic_string@DU?$char_traits@D@std@@V?$allocator@D@2@@std@@I@std@@YAPAPAV?$basic_string@DU?$char_traits@D@std@@V?$allocator@D@2@@0@PAPAV10@I@Z PROC ; std::_Uninitialized_value_construct_n_unchecked1<std::basic_string<char,std::char_traits<char>,std::allocator<char> > * *,unsigned int>, COMDAT

; 1912 : _NoThrowFwdIt _Uninitialized_value_construct_n_unchecked1(_NoThrowFwdIt _UFirst, _Diff _Count) {

  00000	55		 push	 ebp
  00001	8b ec		 mov	 ebp, esp

; 1913 :     // value-initialize all elements in [_UFirst, _UFirst + _Count_raw)
; 1914 :     _STL_INTERNAL_CHECK(_Count >= 0);
; 1915 :     if constexpr (_Use_memset_value_construct_v<_NoThrowFwdIt>) {
; 1916 :         return _Zero_range(_UFirst, _UFirst + _Count);

  00003	8b 45 0c	 mov	 eax, DWORD PTR __Count$[ebp]
  00006	8b 4d 08	 mov	 ecx, DWORD PTR __UFirst$[ebp]
  00009	8d 04 81	 lea	 eax, DWORD PTR [ecx+eax*4]
  0000c	50		 push	 eax
  0000d	ff 75 08	 push	 DWORD PTR __UFirst$[ebp]
  00010	e8 00 00 00 00	 call	 ??$_Zero_range@PAPAV?$basic_string@DU?$char_traits@D@std@@V?$allocator@D@2@@std@@@std@@YAPAPAV?$basic_string@DU?$char_traits@D@std@@V?$allocator@D@2@@0@QAPAV10@0@Z ; std::_Zero_range<std::basic_string<char,std::char_traits<char>,std::allocator<char> > * *>
  00015	59		 pop	 ecx
  00016	59		 pop	 ecx

; 1917 :     } else {
; 1918 :         _Uninitialized_backout<_NoThrowFwdIt> _Backout{_UFirst};
; 1919 :         for (; 0 < _Count; --_Count) {
; 1920 :             _Backout._Emplace_back();
; 1921 :         }
; 1922 : 
; 1923 :         return _Backout._Release();
; 1924 :     }
; 1925 : }

  00017	5d		 pop	 ebp
  00018	c3		 ret	 0
??$_Uninitialized_value_construct_n_unchecked1@PAPAV?$basic_string@DU?$char_traits@D@std@@V?$allocator@D@2@@std@@I@std@@YAPAPAV?$basic_string@DU?$char_traits@D@std@@V?$allocator@D@2@@0@PAPAV10@I@Z ENDP ; std::_Uninitialized_value_construct_n_unchecked1<std::basic_string<char,std::char_traits<char>,std::allocator<char> > * *,unsigned int>
_TEXT	ENDS
; Function compile flags: /Odspy
; File C:\Program Files (x86)\Microsoft Visual Studio\2019\Community\VC\Tools\MSVC\14.28.29333\include\xmemory
; File C:\Program Files (x86)\Microsoft Visual Studio\2019\Community\VC\Tools\MSVC\14.28.29333\include\xutility
; File C:\Program Files (x86)\Microsoft Visual Studio\2019\Community\VC\Tools\MSVC\14.28.29333\include\xmemory
; File C:\Program Files (x86)\Microsoft Visual Studio\2019\Community\VC\Tools\MSVC\14.28.29333\include\xutility
; File C:\Program Files (x86)\Microsoft Visual Studio\2019\Community\VC\Tools\MSVC\14.28.29333\include\xmemory
;	COMDAT ??$uninitialized_copy@PAPAV?$basic_string@DU?$char_traits@D@std@@V?$allocator@D@2@@std@@PAPAV12@@std@@YAPAPAV?$basic_string@DU?$char_traits@D@std@@V?$allocator@D@2@@0@QAPAV10@0PAPAV10@@Z
_TEXT	SEGMENT
$T1 = -16						; size = 4
__UFirst$ = -12						; size = 4
__ULast$ = -8						; size = 4
__UDest$ = -4						; size = 4
__First$ = 8						; size = 4
__Last$ = 12						; size = 4
__Dest$ = 16						; size = 4
??$uninitialized_copy@PAPAV?$basic_string@DU?$char_traits@D@std@@V?$allocator@D@2@@std@@PAPAV12@@std@@YAPAPAV?$basic_string@DU?$char_traits@D@std@@V?$allocator@D@2@@0@QAPAV10@0PAPAV10@@Z PROC ; std::uninitialized_copy<std::basic_string<char,std::char_traits<char>,std::allocator<char> > * *,std::basic_string<char,std::char_traits<char>,std::allocator<char> > * *>, COMDAT

; 1629 : _NoThrowFwdIt uninitialized_copy(const _InIt _First, const _InIt _Last, _NoThrowFwdIt _Dest) {

  00000	55		 push	 ebp
  00001	8b ec		 mov	 ebp, esp
  00003	83 ec 10	 sub	 esp, 16			; 00000010H

; 1630 :     // copy [_First, _Last) to raw [_Dest, ...)
; 1631 :     _Adl_verify_range(_First, _Last);
; 1632 :     auto _UFirst      = _Get_unwrapped(_First);

  00006	8b 45 08	 mov	 eax, DWORD PTR __First$[ebp]
  00009	89 45 f4	 mov	 DWORD PTR __UFirst$[ebp], eax

; 1633 :     const auto _ULast = _Get_unwrapped(_Last);

  0000c	8b 45 0c	 mov	 eax, DWORD PTR __Last$[ebp]
  0000f	89 45 f8	 mov	 DWORD PTR __ULast$[ebp], eax
; File C:\Program Files (x86)\Microsoft Visual Studio\2019\Community\VC\Tools\MSVC\14.28.29333\include\xutility

; 1557 :         return static_cast<_Iter_diff_t<_Checked>>(_Last - _First);

  00012	8b 45 f8	 mov	 eax, DWORD PTR __ULast$[ebp]
  00015	2b 45 f4	 sub	 eax, DWORD PTR __UFirst$[ebp]
  00018	c1 f8 02	 sar	 eax, 2
  0001b	89 45 f0	 mov	 DWORD PTR $T1[ebp], eax
; File C:\Program Files (x86)\Microsoft Visual Studio\2019\Community\VC\Tools\MSVC\14.28.29333\include\xmemory

; 1634 :     auto _UDest       = _Get_unwrapped_n(_Dest, _Idl_distance<_InIt>(_UFirst, _ULast));

  0001e	8b 45 10	 mov	 eax, DWORD PTR __Dest$[ebp]
  00021	89 45 fc	 mov	 DWORD PTR __UDest$[ebp], eax

; 1635 :     if constexpr (_Ptr_copy_cat<decltype(_UFirst), decltype(_UDest)>::_Really_trivial) {
; 1636 :         _UDest = _Copy_memmove(_UFirst, _ULast, _UDest);

  00024	ff 75 fc	 push	 DWORD PTR __UDest$[ebp]
  00027	ff 75 f8	 push	 DWORD PTR __ULast$[ebp]
  0002a	ff 75 f4	 push	 DWORD PTR __UFirst$[ebp]
  0002d	e8 00 00 00 00	 call	 ??$_Copy_memmove@PAPAV?$basic_string@DU?$char_traits@D@std@@V?$allocator@D@2@@std@@PAPAV12@@std@@YAPAPAV?$basic_string@DU?$char_traits@D@std@@V?$allocator@D@2@@0@PAPAV10@00@Z ; std::_Copy_memmove<std::basic_string<char,std::char_traits<char>,std::allocator<char> > * *,std::basic_string<char,std::char_traits<char>,std::allocator<char> > * *>
  00032	83 c4 0c	 add	 esp, 12			; 0000000cH
  00035	89 45 fc	 mov	 DWORD PTR __UDest$[ebp], eax
; File C:\Program Files (x86)\Microsoft Visual Studio\2019\Community\VC\Tools\MSVC\14.28.29333\include\xutility

; 1492 :         _It = static_cast<_UIter&&>(_UIt);

  00038	8b 45 fc	 mov	 eax, DWORD PTR __UDest$[ebp]
  0003b	89 45 10	 mov	 DWORD PTR __Dest$[ebp], eax
; File C:\Program Files (x86)\Microsoft Visual Studio\2019\Community\VC\Tools\MSVC\14.28.29333\include\xmemory

; 1647 :     return _Dest;

  0003e	8b 45 10	 mov	 eax, DWORD PTR __Dest$[ebp]

; 1648 : }

  00041	c9		 leave
  00042	c3		 ret	 0
??$uninitialized_copy@PAPAV?$basic_string@DU?$char_traits@D@std@@V?$allocator@D@2@@std@@PAPAV12@@std@@YAPAPAV?$basic_string@DU?$char_traits@D@std@@V?$allocator@D@2@@0@QAPAV10@0PAPAV10@@Z ENDP ; std::uninitialized_copy<std::basic_string<char,std::char_traits<char>,std::allocator<char> > * *,std::basic_string<char,std::char_traits<char>,std::allocator<char> > * *>
_TEXT	ENDS
; Function compile flags: /Odspy
; File C:\Program Files (x86)\Microsoft Visual Studio\2019\Community\VC\Tools\MSVC\14.28.29333\include\xmemory
; File C:\Program Files (x86)\Microsoft Visual Studio\2019\Community\VC\Tools\MSVC\14.28.29333\include\xstddef
; File C:\Program Files (x86)\Microsoft Visual Studio\2019\Community\VC\Tools\MSVC\14.28.29333\include\xmemory
;	COMDAT ??$_Uninitialized_value_construct_n@V?$allocator@D@std@@@std@@YAPADPADIAAV?$allocator@D@0@@Z
_TEXT	SEGMENT
__PFirst$1 = -4						; size = 4
__First$ = 8						; size = 4
__Count$ = 12						; size = 4
__Al$ = 16						; size = 4
??$_Uninitialized_value_construct_n@V?$allocator@D@std@@@std@@YAPADPADIAAV?$allocator@D@0@@Z PROC ; std::_Uninitialized_value_construct_n<std::allocator<char> >, COMDAT

; 1862 :     _Alloc_ptr_t<_Alloc> _First, _Alloc_size_t<_Alloc> _Count, _Alloc& _Al) {

  00000	55		 push	 ebp
  00001	8b ec		 mov	 ebp, esp
  00003	51		 push	 ecx
; File C:\Program Files (x86)\Microsoft Visual Studio\2019\Community\VC\Tools\MSVC\14.28.29333\include\xstddef

; 289  :     return _Ptr;

  00004	8b 45 08	 mov	 eax, DWORD PTR __First$[ebp]
  00007	89 45 fc	 mov	 DWORD PTR __PFirst$1[ebp], eax
; File C:\Program Files (x86)\Microsoft Visual Studio\2019\Community\VC\Tools\MSVC\14.28.29333\include\xmemory

; 1867 :         _Zero_range(_PFirst, _PFirst + _Count);

  0000a	8b 45 fc	 mov	 eax, DWORD PTR __PFirst$1[ebp]
  0000d	03 45 0c	 add	 eax, DWORD PTR __Count$[ebp]
  00010	50		 push	 eax
  00011	ff 75 fc	 push	 DWORD PTR __PFirst$1[ebp]
  00014	e8 00 00 00 00	 call	 ??$_Zero_range@PAD@std@@YAPADQAD0@Z ; std::_Zero_range<char *>
  00019	59		 pop	 ecx
  0001a	59		 pop	 ecx

; 1868 :         return _First + _Count;

  0001b	8b 45 08	 mov	 eax, DWORD PTR __First$[ebp]
  0001e	03 45 0c	 add	 eax, DWORD PTR __Count$[ebp]

; 1869 :     } else {
; 1870 :         _Uninitialized_backout_al<_Alloc> _Backout{_First, _Al};
; 1871 :         for (; 0 < _Count; --_Count) {
; 1872 :             _Backout._Emplace_back();
; 1873 :         }
; 1874 : 
; 1875 :         return _Backout._Release();
; 1876 :     }
; 1877 : }

  00021	c9		 leave
  00022	c3		 ret	 0
??$_Uninitialized_value_construct_n@V?$allocator@D@std@@@std@@YAPADPADIAAV?$allocator@D@0@@Z ENDP ; std::_Uninitialized_value_construct_n<std::allocator<char> >
_TEXT	ENDS
; Function compile flags: /Odspy
; File C:\Program Files (x86)\Microsoft Visual Studio\2019\Community\VC\Tools\MSVC\14.28.29333\include\vector
; File C:\Program Files (x86)\Microsoft Visual Studio\2019\Community\VC\Tools\MSVC\14.28.29333\include\xmemory
; File C:\Program Files (x86)\Microsoft Visual Studio\2019\Community\VC\Tools\MSVC\14.28.29333\include\vector
; File C:\Program Files (x86)\Microsoft Visual Studio\2019\Community\VC\Tools\MSVC\14.28.29333\include\xmemory
; File C:\Program Files (x86)\Microsoft Visual Studio\2019\Community\VC\Tools\MSVC\14.28.29333\include\limits
; File C:\Program Files (x86)\Microsoft Visual Studio\2019\Community\VC\Tools\MSVC\14.28.29333\include\vector
; File C:\Program Files (x86)\Microsoft Visual Studio\2019\Community\VC\Tools\MSVC\14.28.29333\include\utility
; File C:\Program Files (x86)\Microsoft Visual Studio\2019\Community\VC\Tools\MSVC\14.28.29333\include\vector
; File C:\Program Files (x86)\Microsoft Visual Studio\2019\Community\VC\Tools\MSVC\14.28.29333\include\xmemory
; File C:\Program Files (x86)\Microsoft Visual Studio\2019\Community\VC\Tools\MSVC\14.28.29333\include\vector
