; Listing generated by Microsoft (R) Optimizing Compiler Version 19.28.29335.0 

	TITLE	D:\Metin2 Server Files\mainline\SRC_2014\Metin2Client\UserInterface\PythonNetworkDatagramModule.cpp
	.686P
	.XMM
	include listing.inc
	.model	flat

INCLUDELIB LIBCMT
INCLUDELIB OLDNAMES

PUBLIC	?initudp@@YAXXZ					; initudp
; Function compile flags: /Odspy
; File D:\Metin2 Server Files\mainline\SRC_2014\Metin2Client\UserInterface\PythonNetworkDatagramModule.cpp
;	COMDAT ?initudp@@YAXXZ
_TEXT	SEGMENT
?initudp@@YAXXZ PROC					; initudp, COMDAT

; 17   : {

  00000	55		 push	 ebp
  00001	8b ec		 mov	 ebp, esp

; 18   : 	/*
; 19   : 	static PyMethodDef s_methods[] =
; 20   : 	{
; 21   : 		{ "Enable",		udpEnable,					METH_VARARGS },
; 22   : 		{ "Disable",	udpDisable,					METH_VARARGS },
; 23   : 		
; 24   : 		{ NULL,						NULL,							NULL		 }
; 25   : 	};
; 26   : 
; 27   : 	PyObject * poModule = Py_InitModule("udp", s_methods);
; 28   : 	*/
; 29   : }

  00003	5d		 pop	 ebp
  00004	c3		 ret	 0
?initudp@@YAXXZ ENDP					; initudp
_TEXT	ENDS
END
