; Listing generated by Microsoft (R) Optimizing Compiler Version 19.28.29335.0 

	TITLE	D:\Metin2 Server Files\mainline\SRC_2014\Metin2Client\UserInterface\PythonSystemModule.cpp
	.686P
	.XMM
	include listing.inc
	.model	flat

INCLUDELIB LIBCMT
INCLUDELIB OLDNAMES

PUBLIC	??0exception@std@@QAE@ABV01@@Z			; std::exception::exception
PUBLIC	?what@exception@std@@UBEPBDXZ			; std::exception::what
PUBLIC	??_Gexception@std@@UAEPAXI@Z			; std::exception::`scalar deleting destructor'
PUBLIC	??0bad_alloc@std@@QAE@ABV01@@Z			; std::bad_alloc::bad_alloc
PUBLIC	??_Gbad_alloc@std@@UAEPAXI@Z			; std::bad_alloc::`scalar deleting destructor'
PUBLIC	??0bad_array_new_length@std@@QAE@XZ		; std::bad_array_new_length::bad_array_new_length
PUBLIC	??1bad_array_new_length@std@@UAE@XZ		; std::bad_array_new_length::~bad_array_new_length
PUBLIC	??0bad_array_new_length@std@@QAE@ABV01@@Z	; std::bad_array_new_length::bad_array_new_length
PUBLIC	??_Gbad_array_new_length@std@@UAEPAXI@Z		; std::bad_array_new_length::`scalar deleting destructor'
PUBLIC	?_Throw_bad_array_new_length@std@@YAXXZ		; std::_Throw_bad_array_new_length
PUBLIC	?_Adjust_manually_vector_aligned@std@@YAXAAPAXAAI@Z ; std::_Adjust_manually_vector_aligned
PUBLIC	?_Tidy_deallocate@?$basic_string@DU?$char_traits@D@std@@V?$allocator@D@2@@std@@AAEXXZ ; std::basic_string<char,std::char_traits<char>,std::allocator<char> >::_Tidy_deallocate
PUBLIC	?initsystem@@YAXXZ				; initsystem
PUBLIC	??$_Destroy_in_place@PAD@std@@YAXAAPAD@Z	; std::_Destroy_in_place<char *>
PUBLIC	??$_Deallocate@$07$0A@@std@@YAXPAXI@Z		; std::_Deallocate<8,0>
PUBLIC	??$_Allocate@$07U_Default_allocate_traits@std@@$0A@@std@@YAPAXI@Z ; std::_Allocate<8,std::_Default_allocate_traits,0>
PUBLIC	??$_Allocate_manually_vector_aligned@U_Default_allocate_traits@std@@@std@@YAPAXI@Z ; std::_Allocate_manually_vector_aligned<std::_Default_allocate_traits>
PUBLIC	?systemGetWidth@@YAPAU_object@@PAU1@0@Z		; systemGetWidth
PUBLIC	?systemGetHeight@@YAPAU_object@@PAU1@0@Z	; systemGetHeight
PUBLIC	?systemSetInterfaceHandler@@YAPAU_object@@PAU1@0@Z ; systemSetInterfaceHandler
PUBLIC	?systemDestroyInterfaceHandler@@YAPAU_object@@PAU1@0@Z ; systemDestroyInterfaceHandler
PUBLIC	?systemReserveResource@@YAPAU_object@@PAU1@0@Z	; systemReserveResource
PUBLIC	??0?$_Tree@V?$_Tset_traits@V?$basic_string@DU?$char_traits@D@std@@V?$allocator@D@2@@std@@U?$less@V?$basic_string@DU?$char_traits@D@std@@V?$allocator@D@2@@std@@@2@V?$allocator@V?$basic_string@DU?$char_traits@D@std@@V?$allocator@D@2@@std@@@2@$0A@@std@@@std@@QAE@ABU?$less@V?$basic_string@DU?$char_traits@D@std@@V?$allocator@D@2@@std@@@1@@Z ; std::_Tree<std::_Tset_traits<std::basic_string<char,std::char_traits<char>,std::allocator<char> >,std::less<std::basic_string<char,std::char_traits<char>,std::allocator<char> > >,std::allocator<std::basic_string<char,std::char_traits<char>,std::allocator<char> > >,0> >::_Tree<std::_Tset_traits<std::basic_string<char,std::char_traits<char>,std::allocator<char> >,std::less<std::basic_string<char,std::char_traits<char>,std::allocator<char> > >,std::allocator<std::basic_string<char,std::char_traits<char>,std::allocator<char> > >,0> >
PUBLIC	??1?$_Tree@V?$_Tset_traits@V?$basic_string@DU?$char_traits@D@std@@V?$allocator@D@2@@std@@U?$less@V?$basic_string@DU?$char_traits@D@std@@V?$allocator@D@2@@std@@@2@V?$allocator@V?$basic_string@DU?$char_traits@D@std@@V?$allocator@D@2@@std@@@2@$0A@@std@@@std@@QAE@XZ ; std::_Tree<std::_Tset_traits<std::basic_string<char,std::char_traits<char>,std::allocator<char> >,std::less<std::basic_string<char,std::char_traits<char>,std::allocator<char> > >,std::allocator<std::basic_string<char,std::char_traits<char>,std::allocator<char> > >,0> >::~_Tree<std::_Tset_traits<std::basic_string<char,std::char_traits<char>,std::allocator<char> >,std::less<std::basic_string<char,std::char_traits<char>,std::allocator<char> > >,std::allocator<std::basic_string<char,std::char_traits<char>,std::allocator<char> > >,0> >
PUBLIC	?_Alloc_sentinel_and_proxy@?$_Tree@V?$_Tset_traits@V?$basic_string@DU?$char_traits@D@std@@V?$allocator@D@2@@std@@U?$less@V?$basic_string@DU?$char_traits@D@std@@V?$allocator@D@2@@std@@@2@V?$allocator@V?$basic_string@DU?$char_traits@D@std@@V?$allocator@D@2@@std@@@2@$0A@@std@@@std@@IAEXXZ ; std::_Tree<std::_Tset_traits<std::basic_string<char,std::char_traits<char>,std::allocator<char> >,std::less<std::basic_string<char,std::char_traits<char>,std::allocator<char> > >,std::allocator<std::basic_string<char,std::char_traits<char>,std::allocator<char> > >,0> >::_Alloc_sentinel_and_proxy
PUBLIC	??1?$set@V?$basic_string@DU?$char_traits@D@std@@V?$allocator@D@2@@std@@U?$less@V?$basic_string@DU?$char_traits@D@std@@V?$allocator@D@2@@std@@@2@V?$allocator@V?$basic_string@DU?$char_traits@D@std@@V?$allocator@D@2@@std@@@2@@std@@QAE@XZ ; std::set<std::basic_string<char,std::char_traits<char>,std::allocator<char> >,std::less<std::basic_string<char,std::char_traits<char>,std::allocator<char> > >,std::allocator<std::basic_string<char,std::char_traits<char>,std::allocator<char> > > >::~set<std::basic_string<char,std::char_traits<char>,std::allocator<char> >,std::less<std::basic_string<char,std::char_traits<char>,std::allocator<char> > >,std::allocator<std::basic_string<char,std::char_traits<char>,std::allocator<char> > > >
PUBLIC	?systemisInterfaceConfig@@YAPAU_object@@PAU1@0@Z ; systemisInterfaceConfig
PUBLIC	?systemSaveWindowStatus@@YAPAU_object@@PAU1@0@Z	; systemSaveWindowStatus
PUBLIC	?systemGetWindowStatus@@YAPAU_object@@PAU1@0@Z	; systemGetWindowStatus
PUBLIC	?systemGetConfig@@YAPAU_object@@PAU1@0@Z	; systemGetConfig
PUBLIC	?systemSetSaveID@@YAPAU_object@@PAU1@0@Z	; systemSetSaveID
PUBLIC	?systemisSaveID@@YAPAU_object@@PAU1@0@Z		; systemisSaveID
PUBLIC	?systemGetSaveID@@YAPAU_object@@PAU1@0@Z	; systemGetSaveID
PUBLIC	?systemGetMusicVolume@@YAPAU_object@@PAU1@0@Z	; systemGetMusicVolume
PUBLIC	?systemGetSoundVolume@@YAPAU_object@@PAU1@0@Z	; systemGetSoundVolume
PUBLIC	?systemSetMusicVolume@@YAPAU_object@@PAU1@0@Z	; systemSetMusicVolume
PUBLIC	?systemSetSoundVolumef@@YAPAU_object@@PAU1@0@Z	; systemSetSoundVolumef
PUBLIC	?systemIsSoftwareCursor@@YAPAU_object@@PAU1@0@Z	; systemIsSoftwareCursor
PUBLIC	?systemSetViewChatFlag@@YAPAU_object@@PAU1@0@Z	; systemSetViewChatFlag
PUBLIC	?systemIsViewChat@@YAPAU_object@@PAU1@0@Z	; systemIsViewChat
PUBLIC	?systemSetAlwaysShowNameFlag@@YAPAU_object@@PAU1@0@Z ; systemSetAlwaysShowNameFlag
PUBLIC	?systemSetShowDamageFlag@@YAPAU_object@@PAU1@0@Z ; systemSetShowDamageFlag
PUBLIC	?systemSetShowSalesTextFlag@@YAPAU_object@@PAU1@0@Z ; systemSetShowSalesTextFlag
PUBLIC	?systemIsAlwaysShowName@@YAPAU_object@@PAU1@0@Z	; systemIsAlwaysShowName
PUBLIC	?systemIsShowDamage@@YAPAU_object@@PAU1@0@Z	; systemIsShowDamage
PUBLIC	?systemIsShowSalesText@@YAPAU_object@@PAU1@0@Z	; systemIsShowSalesText
PUBLIC	?systemSetConfig@@YAPAU_object@@PAU1@0@Z	; systemSetConfig
PUBLIC	?systemApplyConfig@@YAPAU_object@@PAU1@0@Z	; systemApplyConfig
PUBLIC	?systemSaveConfig@@YAPAU_object@@PAU1@0@Z	; systemSaveConfig
PUBLIC	?systemGetResolutionCount@@YAPAU_object@@PAU1@0@Z ; systemGetResolutionCount
PUBLIC	?systemGetFrequencyCount@@YAPAU_object@@PAU1@0@Z ; systemGetFrequencyCount
PUBLIC	?systemGetResolution@@YAPAU_object@@PAU1@0@Z	; systemGetResolution
PUBLIC	?systemGetCurrentResolution@@YAPAU_object@@PAU1@0@Z ; systemGetCurrentResolution
PUBLIC	?systemGetFrequency@@YAPAU_object@@PAU1@0@Z	; systemGetFrequency
PUBLIC	?systemGetShadowLevel@@YAPAU_object@@PAU1@0@Z	; systemGetShadowLevel
PUBLIC	?systemSetShadowLevel@@YAPAU_object@@PAU1@0@Z	; systemSetShadowLevel
PUBLIC	??$_Buyheadnode@V?$allocator@U?$_Tree_node@V?$basic_string@DU?$char_traits@D@std@@V?$allocator@D@2@@std@@PAX@std@@@std@@@?$_Tree_node@V?$basic_string@DU?$char_traits@D@std@@V?$allocator@D@2@@std@@PAX@std@@SAPAU01@AAV?$allocator@U?$_Tree_node@V?$basic_string@DU?$char_traits@D@std@@V?$allocator@D@2@@std@@PAX@std@@@1@@Z ; std::_Tree_node<std::basic_string<char,std::char_traits<char>,std::allocator<char> >,void *>::_Buyheadnode<std::allocator<std::_Tree_node<std::basic_string<char,std::char_traits<char>,std::allocator<char> >,void *> > >
PUBLIC	??$_Erase_tree@V?$allocator@U?$_Tree_node@V?$basic_string@DU?$char_traits@D@std@@V?$allocator@D@2@@std@@PAX@std@@@std@@@?$_Tree_val@U?$_Tree_simple_types@V?$basic_string@DU?$char_traits@D@std@@V?$allocator@D@2@@std@@@std@@@std@@QAEXAAV?$allocator@U?$_Tree_node@V?$basic_string@DU?$char_traits@D@std@@V?$allocator@D@2@@std@@PAX@std@@@1@PAU?$_Tree_node@V?$basic_string@DU?$char_traits@D@std@@V?$allocator@D@2@@std@@PAX@1@@Z ; std::_Tree_val<std::_Tree_simple_types<std::basic_string<char,std::char_traits<char>,std::allocator<char> > > >::_Erase_tree<std::allocator<std::_Tree_node<std::basic_string<char,std::char_traits<char>,std::allocator<char> >,void *> > >
PUBLIC	??$_Freenode0@V?$allocator@U?$_Tree_node@V?$basic_string@DU?$char_traits@D@std@@V?$allocator@D@2@@std@@PAX@std@@@std@@@?$_Tree_node@V?$basic_string@DU?$char_traits@D@std@@V?$allocator@D@2@@std@@PAX@std@@SAXAAV?$allocator@U?$_Tree_node@V?$basic_string@DU?$char_traits@D@std@@V?$allocator@D@2@@std@@PAX@std@@@1@PAU01@@Z ; std::_Tree_node<std::basic_string<char,std::char_traits<char>,std::allocator<char> >,void *>::_Freenode0<std::allocator<std::_Tree_node<std::basic_string<char,std::char_traits<char>,std::allocator<char> >,void *> > >
PUBLIC	??$_Construct_in_place@PAU?$_Tree_node@V?$basic_string@DU?$char_traits@D@std@@V?$allocator@D@2@@std@@PAX@std@@ABQAU12@@std@@YAXAAPAU?$_Tree_node@V?$basic_string@DU?$char_traits@D@std@@V?$allocator@D@2@@std@@PAX@0@ABQAU10@@Z ; std::_Construct_in_place<std::_Tree_node<std::basic_string<char,std::char_traits<char>,std::allocator<char> >,void *> *,std::_Tree_node<std::basic_string<char,std::char_traits<char>,std::allocator<char> >,void *> * const &>
PUBLIC	??$_Freenode@V?$allocator@U?$_Tree_node@V?$basic_string@DU?$char_traits@D@std@@V?$allocator@D@2@@std@@PAX@std@@@std@@@?$_Tree_node@V?$basic_string@DU?$char_traits@D@std@@V?$allocator@D@2@@std@@PAX@std@@SAXAAV?$allocator@U?$_Tree_node@V?$basic_string@DU?$char_traits@D@std@@V?$allocator@D@2@@std@@PAX@std@@@1@PAU01@@Z ; std::_Tree_node<std::basic_string<char,std::char_traits<char>,std::allocator<char> >,void *>::_Freenode<std::allocator<std::_Tree_node<std::basic_string<char,std::char_traits<char>,std::allocator<char> >,void *> > >
PUBLIC	??$_Destroy_in_place@PAU?$_Tree_node@V?$basic_string@DU?$char_traits@D@std@@V?$allocator@D@2@@std@@PAX@std@@@std@@YAXAAPAU?$_Tree_node@V?$basic_string@DU?$char_traits@D@std@@V?$allocator@D@2@@std@@PAX@0@@Z ; std::_Destroy_in_place<std::_Tree_node<std::basic_string<char,std::char_traits<char>,std::allocator<char> >,void *> *>
PUBLIC	??_7exception@std@@6B@				; std::exception::`vftable'
PUBLIC	??_C@_0BC@EOODALEL@Unknown?5exception@		; `string'
PUBLIC	??_7bad_alloc@std@@6B@				; std::bad_alloc::`vftable'
PUBLIC	??_7bad_array_new_length@std@@6B@		; std::bad_array_new_length::`vftable'
PUBLIC	??_C@_0BF@KINCDENJ@bad?5array?5new?5length@	; `string'
PUBLIC	__TI3?AVbad_array_new_length@std@@
PUBLIC	__CTA3?AVbad_array_new_length@std@@
PUBLIC	??_R0?AVbad_array_new_length@std@@@8		; std::bad_array_new_length `RTTI Type Descriptor'
PUBLIC	__CT??_R0?AVbad_array_new_length@std@@@8??0bad_array_new_length@std@@QAE@ABV01@@Z12
PUBLIC	??_R0?AVbad_alloc@std@@@8			; std::bad_alloc `RTTI Type Descriptor'
PUBLIC	__CT??_R0?AVbad_alloc@std@@@8??0bad_alloc@std@@QAE@ABV01@@Z12
PUBLIC	??_R0?AVexception@std@@@8			; std::exception `RTTI Type Descriptor'
PUBLIC	__CT??_R0?AVexception@std@@@8??0exception@std@@QAE@ABV01@@Z12
PUBLIC	?ms_singleton@?$CSingleton@VCResourceManager@@@@0PAVCResourceManager@@A ; CSingleton<CResourceManager>::ms_singleton
PUBLIC	??_R4exception@std@@6B@				; std::exception::`RTTI Complete Object Locator'
PUBLIC	??_R3exception@std@@8				; std::exception::`RTTI Class Hierarchy Descriptor'
PUBLIC	??_R2exception@std@@8				; std::exception::`RTTI Base Class Array'
PUBLIC	??_R1A@?0A@EA@exception@std@@8			; std::exception::`RTTI Base Class Descriptor at (0,-1,0,64)'
PUBLIC	??_R4bad_alloc@std@@6B@				; std::bad_alloc::`RTTI Complete Object Locator'
PUBLIC	??_R3bad_alloc@std@@8				; std::bad_alloc::`RTTI Class Hierarchy Descriptor'
PUBLIC	??_R2bad_alloc@std@@8				; std::bad_alloc::`RTTI Base Class Array'
PUBLIC	??_R1A@?0A@EA@bad_alloc@std@@8			; std::bad_alloc::`RTTI Base Class Descriptor at (0,-1,0,64)'
PUBLIC	??_R4bad_array_new_length@std@@6B@		; std::bad_array_new_length::`RTTI Complete Object Locator'
PUBLIC	??_R3bad_array_new_length@std@@8		; std::bad_array_new_length::`RTTI Class Hierarchy Descriptor'
PUBLIC	??_R2bad_array_new_length@std@@8		; std::bad_array_new_length::`RTTI Base Class Array'
PUBLIC	??_R1A@?0A@EA@bad_array_new_length@std@@8	; std::bad_array_new_length::`RTTI Base Class Descriptor at (0,-1,0,64)'
PUBLIC	?ms_singleton@?$CSingleton@VCPythonSystem@@@@0PAVCPythonSystem@@A ; CSingleton<CPythonSystem>::ms_singleton
PUBLIC	??_C@_01KBJDNOO@i@				; `string'
PUBLIC	??_C@_05EAPDINDK@iiiii@				; `string'
PUBLIC	??_C@_08DGHCLNGO@iiiiiiii@			; `string'
PUBLIC	??_C@_01LKDEMHDF@s@				; `string'
PUBLIC	??_C@_01INIBCBCB@f@				; `string'
PUBLIC	??_C@_03GLKMLICL@iii@				; `string'
PUBLIC	??_C@_08OMBILDHM@GetWidth@			; `string'
PUBLIC	??_C@_09EOGEIJMK@GetHeight@			; `string'
PUBLIC	??_C@_0BE@LHLPPLCA@SetInterfaceHandler@		; `string'
PUBLIC	??_C@_0BI@NBDOAHCB@DestroyInterfaceHandler@	; `string'
PUBLIC	??_C@_0BA@DGMEINM@ReserveResource@		; `string'
PUBLIC	??_C@_0BC@GGDBAEOO@isInterfaceConfig@		; `string'
PUBLIC	??_C@_0BB@DOCGKHHO@SaveWindowStatus@		; `string'
PUBLIC	??_C@_0BA@OIPDIACO@GetWindowStatus@		; `string'
PUBLIC	??_C@_0BD@PNJEEMA@GetResolutionCount@		; `string'
PUBLIC	??_C@_0BC@MMLDLJCA@GetFrequencyCount@		; `string'
PUBLIC	??_C@_0BF@GJHGOKBH@GetCurrentResolution@	; `string'
PUBLIC	??_C@_0O@MCJGAEI@GetResolution@			; `string'
PUBLIC	??_C@_0N@DEDCKOKK@GetFrequency@			; `string'
PUBLIC	??_C@_0M@PHHLFDDI@ApplyConfig@			; `string'
PUBLIC	??_C@_09KJAMEPBE@SetConfig@			; `string'
PUBLIC	??_C@_0L@IJAHDAKP@SaveConfig@			; `string'
PUBLIC	??_C@_09IHEJGOIG@GetConfig@			; `string'
PUBLIC	??_C@_09DABJPAIG@SetSaveID@			; `string'
PUBLIC	??_C@_08ILEIELBI@isSaveID@			; `string'
PUBLIC	??_C@_09BOFMNBBE@GetSaveID@			; `string'
PUBLIC	??_C@_0P@HIIHPFML@GetMusicVolume@		; `string'
PUBLIC	??_C@_0P@LCENEDPB@GetSoundVolume@		; `string'
PUBLIC	??_C@_0P@LGJJAPOH@SetMusicVolume@		; `string'
PUBLIC	??_C@_0BA@MLLJDBPB@SetSoundVolumef@		; `string'
PUBLIC	??_C@_0BB@BFMNFHIM@IsSoftwareCursor@		; `string'
PUBLIC	??_C@_0BA@MFKECAML@SetViewChatFlag@		; `string'
PUBLIC	??_C@_0L@MGMBGKCF@IsViewChat@			; `string'
PUBLIC	??_C@_0BG@GMBDCOC@SetAlwaysShowNameFlag@	; `string'
PUBLIC	??_C@_0BB@NKNDCIFA@IsAlwaysShowName@		; `string'
PUBLIC	??_C@_0BC@JHKGLKC@SetShowDamageFlag@		; `string'
PUBLIC	??_C@_0N@FLKCLECP@IsShowDamage@			; `string'
PUBLIC	??_C@_0BF@IKKCKDDD@SetShowSalesTextFlag@	; `string'
PUBLIC	??_C@_0BA@GPLIEFHC@IsShowSalesText@		; `string'
PUBLIC	??_C@_0P@FFPBIDPG@GetShadowLevel@		; `string'
PUBLIC	??_C@_0P@JLOPHJNK@SetShadowLevel@		; `string'
PUBLIC	??_C@_0O@LCPLIAAE@systemSetting@		; `string'
PUBLIC	??_C@_0O@EDOCFBFG@WINDOW_STATUS@		; `string'
PUBLIC	??_C@_0BB@CHCHLBGG@WINDOW_INVENTORY@		; `string'
PUBLIC	??_C@_0P@HAOBMPKD@WINDOW_ABILITY@		; `string'
PUBLIC	??_C@_0P@MAFILJL@WINDOW_SOCIETY@		; `string'
PUBLIC	??_C@_0P@FHBHOGAA@WINDOW_JOURNAL@		; `string'
PUBLIC	??_C@_0P@NOILKAON@WINDOW_COMMAND@		; `string'
PUBLIC	??_C@_0N@BOOBGFI@WINDOW_QUICK@			; `string'
PUBLIC	??_C@_0N@MCEEKLOJ@WINDOW_GAUGE@			; `string'
PUBLIC	??_C@_0P@LEOBHMFL@WINDOW_MINIMAP@		; `string'
PUBLIC	??_C@_0M@GHKKFINH@WINDOW_CHAT@			; `string'
EXTRN	??2@YAPAXI@Z:PROC				; operator new
EXTRN	??3@YAXPAXI@Z:PROC				; operator delete
EXTRN	__invalid_parameter_noinfo_noreturn:PROC
EXTRN	_memcpy:PROC
EXTRN	___std_exception_copy:PROC
EXTRN	___std_exception_destroy:PROC
EXTRN	??_Eexception@std@@UAEPAXI@Z:PROC		; std::exception::`vector deleting destructor'
EXTRN	??_Ebad_alloc@std@@UAEPAXI@Z:PROC		; std::bad_alloc::`vector deleting destructor'
EXTRN	??_Ebad_array_new_length@std@@UAEPAXI@Z:PROC	; std::bad_array_new_length::`vector deleting destructor'
EXTRN	__imp__Py_BuildValue:PROC
EXTRN	__imp__PyModule_AddIntConstant:PROC
EXTRN	__imp__Py_InitModule4:PROC
EXTRN	?PyTuple_GetString@@YA_NPAU_object@@HPAPAD@Z:PROC ; PyTuple_GetString
EXTRN	?PyTuple_GetInteger@@YA_NPAU_object@@HPAH@Z:PROC ; PyTuple_GetInteger
EXTRN	?PyTuple_GetFloat@@YA_NPAU_object@@HPAM@Z:PROC	; PyTuple_GetFloat
EXTRN	?PyTuple_GetObject@@YA_NPAU_object@@HPAPAU1@@Z:PROC ; PyTuple_GetObject
EXTRN	?Py_BuildException@@YAPAU_object@@PBDZZ:PROC	; Py_BuildException
EXTRN	?Py_BuildNone@@YAPAU_object@@XZ:PROC		; Py_BuildNone
EXTRN	?PushBackgroundLoadingSet@CResourceManager@@QAEXAAV?$set@V?$basic_string@DU?$char_traits@D@std@@V?$allocator@D@2@@std@@U?$less@V?$basic_string@DU?$char_traits@D@std@@V?$allocator@D@2@@std@@@2@V?$allocator@V?$basic_string@DU?$char_traits@D@std@@V?$allocator@D@2@@std@@@2@@std@@@Z:PROC ; CResourceManager::PushBackgroundLoadingSet
EXTRN	?SetInterfaceHandler@CPythonSystem@@QAEXPAU_object@@@Z:PROC ; CPythonSystem::SetInterfaceHandler
EXTRN	?DestroyInterfaceHandler@CPythonSystem@@QAEXXZ:PROC ; CPythonSystem::DestroyInterfaceHandler
EXTRN	?SaveConfig@CPythonSystem@@QAE_NXZ:PROC		; CPythonSystem::SaveConfig
EXTRN	?ApplyConfig@CPythonSystem@@QAEXXZ:PROC		; CPythonSystem::ApplyConfig
EXTRN	?SetConfig@CPythonSystem@@QAEXPAUSConfig@1@@Z:PROC ; CPythonSystem::SetConfig
EXTRN	?GetConfig@CPythonSystem@@QAEPAUSConfig@1@XZ:PROC ; CPythonSystem::GetConfig
EXTRN	?isInterfaceConfig@CPythonSystem@@QAE_NXZ:PROC	; CPythonSystem::isInterfaceConfig
EXTRN	?GetWindowStatusReference@CPythonSystem@@QAEABUSWindowStatus@1@H@Z:PROC ; CPythonSystem::GetWindowStatusReference
EXTRN	?GetWidth@CPythonSystem@@QAEKXZ:PROC		; CPythonSystem::GetWidth
EXTRN	?GetHeight@CPythonSystem@@QAEKXZ:PROC		; CPythonSystem::GetHeight
EXTRN	?IsSoftwareCursor@CPythonSystem@@QAE_NXZ:PROC	; CPythonSystem::IsSoftwareCursor
EXTRN	?IsViewChat@CPythonSystem@@QAE_NXZ:PROC		; CPythonSystem::IsViewChat
EXTRN	?IsAlwaysShowName@CPythonSystem@@QAE_NXZ:PROC	; CPythonSystem::IsAlwaysShowName
EXTRN	?IsShowDamage@CPythonSystem@@QAE_NXZ:PROC	; CPythonSystem::IsShowDamage
EXTRN	?IsShowSalesText@CPythonSystem@@QAE_NXZ:PROC	; CPythonSystem::IsShowSalesText
EXTRN	?SetViewChatFlag@CPythonSystem@@QAEXH@Z:PROC	; CPythonSystem::SetViewChatFlag
EXTRN	?SetAlwaysShowNameFlag@CPythonSystem@@QAEXH@Z:PROC ; CPythonSystem::SetAlwaysShowNameFlag
EXTRN	?SetShowDamageFlag@CPythonSystem@@QAEXH@Z:PROC	; CPythonSystem::SetShowDamageFlag
EXTRN	?SetShowSalesTextFlag@CPythonSystem@@QAEXH@Z:PROC ; CPythonSystem::SetShowSalesTextFlag
EXTRN	?SaveWindowStatus@CPythonSystem@@QAEXHHHHHH@Z:PROC ; CPythonSystem::SaveWindowStatus
EXTRN	?IsSaveID@CPythonSystem@@QAEHXZ:PROC		; CPythonSystem::IsSaveID
EXTRN	?GetSaveID@CPythonSystem@@QAEPBDXZ:PROC		; CPythonSystem::GetSaveID
EXTRN	?SetSaveID@CPythonSystem@@QAEXHPBD@Z:PROC	; CPythonSystem::SetSaveID
EXTRN	?GetResolutionCount@CPythonSystem@@QAEHXZ:PROC	; CPythonSystem::GetResolutionCount
EXTRN	?GetFrequencyCount@CPythonSystem@@QAEHH@Z:PROC	; CPythonSystem::GetFrequencyCount
EXTRN	?GetResolution@CPythonSystem@@QAE_NHPAK00@Z:PROC ; CPythonSystem::GetResolution
EXTRN	?GetFrequency@CPythonSystem@@QAE_NHHPAK@Z:PROC	; CPythonSystem::GetFrequency
EXTRN	?GetResolutionIndex@CPythonSystem@@QAEHKKK@Z:PROC ; CPythonSystem::GetResolutionIndex
EXTRN	?GetFrequencyIndex@CPythonSystem@@QAEHHK@Z:PROC	; CPythonSystem::GetFrequencyIndex
EXTRN	?GetMusicVolume@CPythonSystem@@QAEMXZ:PROC	; CPythonSystem::GetMusicVolume
EXTRN	?GetSoundVolume@CPythonSystem@@QAEHXZ:PROC	; CPythonSystem::GetSoundVolume
EXTRN	?SetMusicVolume@CPythonSystem@@QAEXM@Z:PROC	; CPythonSystem::SetMusicVolume
EXTRN	?SetSoundVolumef@CPythonSystem@@QAEXM@Z:PROC	; CPythonSystem::SetSoundVolumef
EXTRN	?GetShadowLevel@CPythonSystem@@QAEHXZ:PROC	; CPythonSystem::GetShadowLevel
EXTRN	?SetShadowLevel@CPythonSystem@@QAEXI@Z:PROC	; CPythonSystem::SetShadowLevel
EXTRN	@__security_check_cookie@4:PROC
EXTRN	__CxxThrowException@8:PROC
EXTRN	___CxxFrameHandler3:PROC
EXTRN	??_7type_info@@6B@:QWORD			; type_info::`vftable'
EXTRN	___security_cookie:DWORD
EXTRN	__fltused:DWORD
;	COMDAT ?ms_singleton@?$CSingleton@VCResourceManager@@@@0PAVCResourceManager@@A
_BSS	SEGMENT
?ms_singleton@?$CSingleton@VCResourceManager@@@@0PAVCResourceManager@@A DD 01H DUP (?) ; CSingleton<CResourceManager>::ms_singleton
_BSS	ENDS
;	COMDAT ?ms_singleton@?$CSingleton@VCPythonSystem@@@@0PAVCPythonSystem@@A
_BSS	SEGMENT
?ms_singleton@?$CSingleton@VCPythonSystem@@@@0PAVCPythonSystem@@A DD 01H DUP (?) ; CSingleton<CPythonSystem>::ms_singleton
_BSS	ENDS
;	COMDAT ??_C@_0M@GHKKFINH@WINDOW_CHAT@
CONST	SEGMENT
??_C@_0M@GHKKFINH@WINDOW_CHAT@ DB 'WINDOW_CHAT', 00H	; `string'
CONST	ENDS
;	COMDAT ??_C@_0P@LEOBHMFL@WINDOW_MINIMAP@
CONST	SEGMENT
??_C@_0P@LEOBHMFL@WINDOW_MINIMAP@ DB 'WINDOW_MINIMAP', 00H ; `string'
CONST	ENDS
;	COMDAT ??_C@_0N@MCEEKLOJ@WINDOW_GAUGE@
CONST	SEGMENT
??_C@_0N@MCEEKLOJ@WINDOW_GAUGE@ DB 'WINDOW_GAUGE', 00H	; `string'
CONST	ENDS
;	COMDAT ??_C@_0N@BOOBGFI@WINDOW_QUICK@
CONST	SEGMENT
??_C@_0N@BOOBGFI@WINDOW_QUICK@ DB 'WINDOW_QUICK', 00H	; `string'
CONST	ENDS
;	COMDAT ??_C@_0P@NOILKAON@WINDOW_COMMAND@
CONST	SEGMENT
??_C@_0P@NOILKAON@WINDOW_COMMAND@ DB 'WINDOW_COMMAND', 00H ; `string'
CONST	ENDS
;	COMDAT ??_C@_0P@FHBHOGAA@WINDOW_JOURNAL@
CONST	SEGMENT
??_C@_0P@FHBHOGAA@WINDOW_JOURNAL@ DB 'WINDOW_JOURNAL', 00H ; `string'
CONST	ENDS
;	COMDAT ??_C@_0P@MAFILJL@WINDOW_SOCIETY@
CONST	SEGMENT
??_C@_0P@MAFILJL@WINDOW_SOCIETY@ DB 'WINDOW_SOCIETY', 00H ; `string'
CONST	ENDS
;	COMDAT ??_C@_0P@HAOBMPKD@WINDOW_ABILITY@
CONST	SEGMENT
??_C@_0P@HAOBMPKD@WINDOW_ABILITY@ DB 'WINDOW_ABILITY', 00H ; `string'
CONST	ENDS
;	COMDAT ??_C@_0BB@CHCHLBGG@WINDOW_INVENTORY@
CONST	SEGMENT
??_C@_0BB@CHCHLBGG@WINDOW_INVENTORY@ DB 'WINDOW_INVENTORY', 00H ; `string'
CONST	ENDS
;	COMDAT ??_C@_0O@EDOCFBFG@WINDOW_STATUS@
CONST	SEGMENT
??_C@_0O@EDOCFBFG@WINDOW_STATUS@ DB 'WINDOW_STATUS', 00H ; `string'
CONST	ENDS
;	COMDAT ??_C@_0O@LCPLIAAE@systemSetting@
CONST	SEGMENT
??_C@_0O@LCPLIAAE@systemSetting@ DB 'systemSetting', 00H ; `string'
CONST	ENDS
;	COMDAT ??_C@_0P@JLOPHJNK@SetShadowLevel@
CONST	SEGMENT
??_C@_0P@JLOPHJNK@SetShadowLevel@ DB 'SetShadowLevel', 00H ; `string'
CONST	ENDS
;	COMDAT ??_C@_0P@FFPBIDPG@GetShadowLevel@
CONST	SEGMENT
??_C@_0P@FFPBIDPG@GetShadowLevel@ DB 'GetShadowLevel', 00H ; `string'
CONST	ENDS
;	COMDAT ??_C@_0BA@GPLIEFHC@IsShowSalesText@
CONST	SEGMENT
??_C@_0BA@GPLIEFHC@IsShowSalesText@ DB 'IsShowSalesText', 00H ; `string'
CONST	ENDS
;	COMDAT ??_C@_0BF@IKKCKDDD@SetShowSalesTextFlag@
CONST	SEGMENT
??_C@_0BF@IKKCKDDD@SetShowSalesTextFlag@ DB 'SetShowSalesTextFlag', 00H ; `string'
CONST	ENDS
;	COMDAT ??_C@_0N@FLKCLECP@IsShowDamage@
CONST	SEGMENT
??_C@_0N@FLKCLECP@IsShowDamage@ DB 'IsShowDamage', 00H	; `string'
CONST	ENDS
;	COMDAT ??_C@_0BC@JHKGLKC@SetShowDamageFlag@
CONST	SEGMENT
??_C@_0BC@JHKGLKC@SetShowDamageFlag@ DB 'SetShowDamageFlag', 00H ; `string'
CONST	ENDS
;	COMDAT ??_C@_0BB@NKNDCIFA@IsAlwaysShowName@
CONST	SEGMENT
??_C@_0BB@NKNDCIFA@IsAlwaysShowName@ DB 'IsAlwaysShowName', 00H ; `string'
CONST	ENDS
;	COMDAT ??_C@_0BG@GMBDCOC@SetAlwaysShowNameFlag@
CONST	SEGMENT
??_C@_0BG@GMBDCOC@SetAlwaysShowNameFlag@ DB 'SetAlwaysShowNameFlag', 00H ; `string'
CONST	ENDS
;	COMDAT ??_C@_0L@MGMBGKCF@IsViewChat@
CONST	SEGMENT
??_C@_0L@MGMBGKCF@IsViewChat@ DB 'IsViewChat', 00H	; `string'
CONST	ENDS
;	COMDAT ??_C@_0BA@MFKECAML@SetViewChatFlag@
CONST	SEGMENT
??_C@_0BA@MFKECAML@SetViewChatFlag@ DB 'SetViewChatFlag', 00H ; `string'
CONST	ENDS
;	COMDAT ??_C@_0BB@BFMNFHIM@IsSoftwareCursor@
CONST	SEGMENT
??_C@_0BB@BFMNFHIM@IsSoftwareCursor@ DB 'IsSoftwareCursor', 00H ; `string'
CONST	ENDS
;	COMDAT ??_C@_0BA@MLLJDBPB@SetSoundVolumef@
CONST	SEGMENT
??_C@_0BA@MLLJDBPB@SetSoundVolumef@ DB 'SetSoundVolumef', 00H ; `string'
CONST	ENDS
;	COMDAT ??_C@_0P@LGJJAPOH@SetMusicVolume@
CONST	SEGMENT
??_C@_0P@LGJJAPOH@SetMusicVolume@ DB 'SetMusicVolume', 00H ; `string'
CONST	ENDS
;	COMDAT ??_C@_0P@LCENEDPB@GetSoundVolume@
CONST	SEGMENT
??_C@_0P@LCENEDPB@GetSoundVolume@ DB 'GetSoundVolume', 00H ; `string'
CONST	ENDS
;	COMDAT ??_C@_0P@HIIHPFML@GetMusicVolume@
CONST	SEGMENT
??_C@_0P@HIIHPFML@GetMusicVolume@ DB 'GetMusicVolume', 00H ; `string'
CONST	ENDS
;	COMDAT ??_C@_09BOFMNBBE@GetSaveID@
CONST	SEGMENT
??_C@_09BOFMNBBE@GetSaveID@ DB 'GetSaveID', 00H		; `string'
CONST	ENDS
;	COMDAT ??_C@_08ILEIELBI@isSaveID@
CONST	SEGMENT
??_C@_08ILEIELBI@isSaveID@ DB 'isSaveID', 00H		; `string'
CONST	ENDS
;	COMDAT ??_C@_09DABJPAIG@SetSaveID@
CONST	SEGMENT
??_C@_09DABJPAIG@SetSaveID@ DB 'SetSaveID', 00H		; `string'
CONST	ENDS
;	COMDAT ??_C@_09IHEJGOIG@GetConfig@
CONST	SEGMENT
??_C@_09IHEJGOIG@GetConfig@ DB 'GetConfig', 00H		; `string'
CONST	ENDS
;	COMDAT ??_C@_0L@IJAHDAKP@SaveConfig@
CONST	SEGMENT
??_C@_0L@IJAHDAKP@SaveConfig@ DB 'SaveConfig', 00H	; `string'
CONST	ENDS
;	COMDAT ??_C@_09KJAMEPBE@SetConfig@
CONST	SEGMENT
??_C@_09KJAMEPBE@SetConfig@ DB 'SetConfig', 00H		; `string'
CONST	ENDS
;	COMDAT ??_C@_0M@PHHLFDDI@ApplyConfig@
CONST	SEGMENT
??_C@_0M@PHHLFDDI@ApplyConfig@ DB 'ApplyConfig', 00H	; `string'
CONST	ENDS
;	COMDAT ??_C@_0N@DEDCKOKK@GetFrequency@
CONST	SEGMENT
??_C@_0N@DEDCKOKK@GetFrequency@ DB 'GetFrequency', 00H	; `string'
CONST	ENDS
;	COMDAT ??_C@_0O@MCJGAEI@GetResolution@
CONST	SEGMENT
??_C@_0O@MCJGAEI@GetResolution@ DB 'GetResolution', 00H	; `string'
CONST	ENDS
;	COMDAT ??_C@_0BF@GJHGOKBH@GetCurrentResolution@
CONST	SEGMENT
??_C@_0BF@GJHGOKBH@GetCurrentResolution@ DB 'GetCurrentResolution', 00H ; `string'
CONST	ENDS
;	COMDAT ??_C@_0BC@MMLDLJCA@GetFrequencyCount@
CONST	SEGMENT
??_C@_0BC@MMLDLJCA@GetFrequencyCount@ DB 'GetFrequencyCount', 00H ; `string'
CONST	ENDS
;	COMDAT ??_C@_0BD@PNJEEMA@GetResolutionCount@
CONST	SEGMENT
??_C@_0BD@PNJEEMA@GetResolutionCount@ DB 'GetResolutionCount', 00H ; `string'
CONST	ENDS
;	COMDAT ??_C@_0BA@OIPDIACO@GetWindowStatus@
CONST	SEGMENT
??_C@_0BA@OIPDIACO@GetWindowStatus@ DB 'GetWindowStatus', 00H ; `string'
CONST	ENDS
;	COMDAT ??_C@_0BB@DOCGKHHO@SaveWindowStatus@
CONST	SEGMENT
??_C@_0BB@DOCGKHHO@SaveWindowStatus@ DB 'SaveWindowStatus', 00H ; `string'
CONST	ENDS
;	COMDAT ??_C@_0BC@GGDBAEOO@isInterfaceConfig@
CONST	SEGMENT
??_C@_0BC@GGDBAEOO@isInterfaceConfig@ DB 'isInterfaceConfig', 00H ; `string'
CONST	ENDS
;	COMDAT ??_C@_0BA@DGMEINM@ReserveResource@
CONST	SEGMENT
??_C@_0BA@DGMEINM@ReserveResource@ DB 'ReserveResource', 00H ; `string'
CONST	ENDS
;	COMDAT ??_C@_0BI@NBDOAHCB@DestroyInterfaceHandler@
CONST	SEGMENT
??_C@_0BI@NBDOAHCB@DestroyInterfaceHandler@ DB 'DestroyInterfaceHandler', 00H ; `string'
CONST	ENDS
;	COMDAT ??_C@_0BE@LHLPPLCA@SetInterfaceHandler@
CONST	SEGMENT
??_C@_0BE@LHLPPLCA@SetInterfaceHandler@ DB 'SetInterfaceHandler', 00H ; `string'
CONST	ENDS
;	COMDAT ??_C@_09EOGEIJMK@GetHeight@
CONST	SEGMENT
??_C@_09EOGEIJMK@GetHeight@ DB 'GetHeight', 00H		; `string'
CONST	ENDS
;	COMDAT ??_C@_08OMBILDHM@GetWidth@
CONST	SEGMENT
??_C@_08OMBILDHM@GetWidth@ DB 'GetWidth', 00H		; `string'
CONST	ENDS
;	COMDAT ?s_methods@?1??initsystem@@YAXXZ@4PAUPyMethodDef@@A
_DATA	SEGMENT
?s_methods@?1??initsystem@@YAXXZ@4PAUPyMethodDef@@A DD FLAT:??_C@_08OMBILDHM@GetWidth@ ; `initsystem'::`2'::s_methods
	DD	FLAT:?systemGetWidth@@YAPAU_object@@PAU1@0@Z
	DD	01H
	ORG $+4
	DD	FLAT:??_C@_09EOGEIJMK@GetHeight@
	DD	FLAT:?systemGetHeight@@YAPAU_object@@PAU1@0@Z
	DD	01H
	ORG $+4
	DD	FLAT:??_C@_0BE@LHLPPLCA@SetInterfaceHandler@
	DD	FLAT:?systemSetInterfaceHandler@@YAPAU_object@@PAU1@0@Z
	DD	01H
	ORG $+4
	DD	FLAT:??_C@_0BI@NBDOAHCB@DestroyInterfaceHandler@
	DD	FLAT:?systemDestroyInterfaceHandler@@YAPAU_object@@PAU1@0@Z
	DD	01H
	ORG $+4
	DD	FLAT:??_C@_0BA@DGMEINM@ReserveResource@
	DD	FLAT:?systemReserveResource@@YAPAU_object@@PAU1@0@Z
	DD	01H
	ORG $+4
	DD	FLAT:??_C@_0BC@GGDBAEOO@isInterfaceConfig@
	DD	FLAT:?systemisInterfaceConfig@@YAPAU_object@@PAU1@0@Z
	DD	01H
	ORG $+4
	DD	FLAT:??_C@_0BB@DOCGKHHO@SaveWindowStatus@
	DD	FLAT:?systemSaveWindowStatus@@YAPAU_object@@PAU1@0@Z
	DD	01H
	ORG $+4
	DD	FLAT:??_C@_0BA@OIPDIACO@GetWindowStatus@
	DD	FLAT:?systemGetWindowStatus@@YAPAU_object@@PAU1@0@Z
	DD	01H
	ORG $+4
	DD	FLAT:??_C@_0BD@PNJEEMA@GetResolutionCount@
	DD	FLAT:?systemGetResolutionCount@@YAPAU_object@@PAU1@0@Z
	DD	01H
	ORG $+4
	DD	FLAT:??_C@_0BC@MMLDLJCA@GetFrequencyCount@
	DD	FLAT:?systemGetFrequencyCount@@YAPAU_object@@PAU1@0@Z
	DD	01H
	ORG $+4
	DD	FLAT:??_C@_0BF@GJHGOKBH@GetCurrentResolution@
	DD	FLAT:?systemGetCurrentResolution@@YAPAU_object@@PAU1@0@Z
	DD	01H
	ORG $+4
	DD	FLAT:??_C@_0O@MCJGAEI@GetResolution@
	DD	FLAT:?systemGetResolution@@YAPAU_object@@PAU1@0@Z
	DD	01H
	ORG $+4
	DD	FLAT:??_C@_0N@DEDCKOKK@GetFrequency@
	DD	FLAT:?systemGetFrequency@@YAPAU_object@@PAU1@0@Z
	DD	01H
	ORG $+4
	DD	FLAT:??_C@_0M@PHHLFDDI@ApplyConfig@
	DD	FLAT:?systemApplyConfig@@YAPAU_object@@PAU1@0@Z
	DD	01H
	ORG $+4
	DD	FLAT:??_C@_09KJAMEPBE@SetConfig@
	DD	FLAT:?systemSetConfig@@YAPAU_object@@PAU1@0@Z
	DD	01H
	ORG $+4
	DD	FLAT:??_C@_0L@IJAHDAKP@SaveConfig@
	DD	FLAT:?systemSaveConfig@@YAPAU_object@@PAU1@0@Z
	DD	01H
	ORG $+4
	DD	FLAT:??_C@_09IHEJGOIG@GetConfig@
	DD	FLAT:?systemGetConfig@@YAPAU_object@@PAU1@0@Z
	DD	01H
	ORG $+4
	DD	FLAT:??_C@_09DABJPAIG@SetSaveID@
	DD	FLAT:?systemSetSaveID@@YAPAU_object@@PAU1@0@Z
	DD	01H
	ORG $+4
	DD	FLAT:??_C@_08ILEIELBI@isSaveID@
	DD	FLAT:?systemisSaveID@@YAPAU_object@@PAU1@0@Z
	DD	01H
	ORG $+4
	DD	FLAT:??_C@_09BOFMNBBE@GetSaveID@
	DD	FLAT:?systemGetSaveID@@YAPAU_object@@PAU1@0@Z
	DD	01H
	ORG $+4
	DD	FLAT:??_C@_0P@HIIHPFML@GetMusicVolume@
	DD	FLAT:?systemGetMusicVolume@@YAPAU_object@@PAU1@0@Z
	DD	01H
	ORG $+4
	DD	FLAT:??_C@_0P@LCENEDPB@GetSoundVolume@
	DD	FLAT:?systemGetSoundVolume@@YAPAU_object@@PAU1@0@Z
	DD	01H
	ORG $+4
	DD	FLAT:??_C@_0P@LGJJAPOH@SetMusicVolume@
	DD	FLAT:?systemSetMusicVolume@@YAPAU_object@@PAU1@0@Z
	DD	01H
	ORG $+4
	DD	FLAT:??_C@_0BA@MLLJDBPB@SetSoundVolumef@
	DD	FLAT:?systemSetSoundVolumef@@YAPAU_object@@PAU1@0@Z
	DD	01H
	ORG $+4
	DD	FLAT:??_C@_0BB@BFMNFHIM@IsSoftwareCursor@
	DD	FLAT:?systemIsSoftwareCursor@@YAPAU_object@@PAU1@0@Z
	DD	01H
	ORG $+4
	DD	FLAT:??_C@_0BA@MFKECAML@SetViewChatFlag@
	DD	FLAT:?systemSetViewChatFlag@@YAPAU_object@@PAU1@0@Z
	DD	01H
	ORG $+4
	DD	FLAT:??_C@_0L@MGMBGKCF@IsViewChat@
	DD	FLAT:?systemIsViewChat@@YAPAU_object@@PAU1@0@Z
	DD	01H
	ORG $+4
	DD	FLAT:??_C@_0BG@GMBDCOC@SetAlwaysShowNameFlag@
	DD	FLAT:?systemSetAlwaysShowNameFlag@@YAPAU_object@@PAU1@0@Z
	DD	01H
	ORG $+4
	DD	FLAT:??_C@_0BB@NKNDCIFA@IsAlwaysShowName@
	DD	FLAT:?systemIsAlwaysShowName@@YAPAU_object@@PAU1@0@Z
	DD	01H
	ORG $+4
	DD	FLAT:??_C@_0BC@JHKGLKC@SetShowDamageFlag@
	DD	FLAT:?systemSetShowDamageFlag@@YAPAU_object@@PAU1@0@Z
	DD	01H
	ORG $+4
	DD	FLAT:??_C@_0N@FLKCLECP@IsShowDamage@
	DD	FLAT:?systemIsShowDamage@@YAPAU_object@@PAU1@0@Z
	DD	01H
	ORG $+4
	DD	FLAT:??_C@_0BF@IKKCKDDD@SetShowSalesTextFlag@
	DD	FLAT:?systemSetShowSalesTextFlag@@YAPAU_object@@PAU1@0@Z
	DD	01H
	ORG $+4
	DD	FLAT:??_C@_0BA@GPLIEFHC@IsShowSalesText@
	DD	FLAT:?systemIsShowSalesText@@YAPAU_object@@PAU1@0@Z
	DD	01H
	ORG $+4
	DD	FLAT:??_C@_0P@FFPBIDPG@GetShadowLevel@
	DD	FLAT:?systemGetShadowLevel@@YAPAU_object@@PAU1@0@Z
	DD	01H
	ORG $+4
	DD	FLAT:??_C@_0P@JLOPHJNK@SetShadowLevel@
	DD	FLAT:?systemSetShadowLevel@@YAPAU_object@@PAU1@0@Z
	DD	01H
	ORG $+4
	DD	00H
	DD	00H
	DD	00H
	ORG $+4
_DATA	ENDS
;	COMDAT ??_C@_03GLKMLICL@iii@
CONST	SEGMENT
??_C@_03GLKMLICL@iii@ DB 'iii', 00H			; `string'
CONST	ENDS
;	COMDAT ??_C@_01INIBCBCB@f@
CONST	SEGMENT
??_C@_01INIBCBCB@f@ DB 'f', 00H				; `string'
CONST	ENDS
;	COMDAT ??_C@_01LKDEMHDF@s@
CONST	SEGMENT
??_C@_01LKDEMHDF@s@ DB 's', 00H				; `string'
CONST	ENDS
;	COMDAT ??_C@_08DGHCLNGO@iiiiiiii@
CONST	SEGMENT
??_C@_08DGHCLNGO@iiiiiiii@ DB 'iiiiiiii', 00H		; `string'
CONST	ENDS
;	COMDAT ??_C@_05EAPDINDK@iiiii@
CONST	SEGMENT
??_C@_05EAPDINDK@iiiii@ DB 'iiiii', 00H			; `string'
CONST	ENDS
;	COMDAT ??_C@_01KBJDNOO@i@
CONST	SEGMENT
??_C@_01KBJDNOO@i@ DB 'i', 00H				; `string'
CONST	ENDS
;	COMDAT ??_R1A@?0A@EA@bad_array_new_length@std@@8
rdata$r	SEGMENT
??_R1A@?0A@EA@bad_array_new_length@std@@8 DD FLAT:??_R0?AVbad_array_new_length@std@@@8 ; std::bad_array_new_length::`RTTI Base Class Descriptor at (0,-1,0,64)'
	DD	02H
	DD	00H
	DD	0ffffffffH
	DD	00H
	DD	040H
	DD	FLAT:??_R3bad_array_new_length@std@@8
rdata$r	ENDS
;	COMDAT ??_R2bad_array_new_length@std@@8
rdata$r	SEGMENT
??_R2bad_array_new_length@std@@8 DD FLAT:??_R1A@?0A@EA@bad_array_new_length@std@@8 ; std::bad_array_new_length::`RTTI Base Class Array'
	DD	FLAT:??_R1A@?0A@EA@bad_alloc@std@@8
	DD	FLAT:??_R1A@?0A@EA@exception@std@@8
rdata$r	ENDS
;	COMDAT ??_R3bad_array_new_length@std@@8
rdata$r	SEGMENT
??_R3bad_array_new_length@std@@8 DD 00H			; std::bad_array_new_length::`RTTI Class Hierarchy Descriptor'
	DD	00H
	DD	03H
	DD	FLAT:??_R2bad_array_new_length@std@@8
rdata$r	ENDS
;	COMDAT ??_R4bad_array_new_length@std@@6B@
rdata$r	SEGMENT
??_R4bad_array_new_length@std@@6B@ DD 00H		; std::bad_array_new_length::`RTTI Complete Object Locator'
	DD	00H
	DD	00H
	DD	FLAT:??_R0?AVbad_array_new_length@std@@@8
	DD	FLAT:??_R3bad_array_new_length@std@@8
rdata$r	ENDS
;	COMDAT ??_R1A@?0A@EA@bad_alloc@std@@8
rdata$r	SEGMENT
??_R1A@?0A@EA@bad_alloc@std@@8 DD FLAT:??_R0?AVbad_alloc@std@@@8 ; std::bad_alloc::`RTTI Base Class Descriptor at (0,-1,0,64)'
	DD	01H
	DD	00H
	DD	0ffffffffH
	DD	00H
	DD	040H
	DD	FLAT:??_R3bad_alloc@std@@8
rdata$r	ENDS
;	COMDAT ??_R2bad_alloc@std@@8
rdata$r	SEGMENT
??_R2bad_alloc@std@@8 DD FLAT:??_R1A@?0A@EA@bad_alloc@std@@8 ; std::bad_alloc::`RTTI Base Class Array'
	DD	FLAT:??_R1A@?0A@EA@exception@std@@8
rdata$r	ENDS
;	COMDAT ??_R3bad_alloc@std@@8
rdata$r	SEGMENT
??_R3bad_alloc@std@@8 DD 00H				; std::bad_alloc::`RTTI Class Hierarchy Descriptor'
	DD	00H
	DD	02H
	DD	FLAT:??_R2bad_alloc@std@@8
rdata$r	ENDS
;	COMDAT ??_R4bad_alloc@std@@6B@
rdata$r	SEGMENT
??_R4bad_alloc@std@@6B@ DD 00H				; std::bad_alloc::`RTTI Complete Object Locator'
	DD	00H
	DD	00H
	DD	FLAT:??_R0?AVbad_alloc@std@@@8
	DD	FLAT:??_R3bad_alloc@std@@8
rdata$r	ENDS
;	COMDAT ??_R1A@?0A@EA@exception@std@@8
rdata$r	SEGMENT
??_R1A@?0A@EA@exception@std@@8 DD FLAT:??_R0?AVexception@std@@@8 ; std::exception::`RTTI Base Class Descriptor at (0,-1,0,64)'
	DD	00H
	DD	00H
	DD	0ffffffffH
	DD	00H
	DD	040H
	DD	FLAT:??_R3exception@std@@8
rdata$r	ENDS
;	COMDAT ??_R2exception@std@@8
rdata$r	SEGMENT
??_R2exception@std@@8 DD FLAT:??_R1A@?0A@EA@exception@std@@8 ; std::exception::`RTTI Base Class Array'
rdata$r	ENDS
;	COMDAT ??_R3exception@std@@8
rdata$r	SEGMENT
??_R3exception@std@@8 DD 00H				; std::exception::`RTTI Class Hierarchy Descriptor'
	DD	00H
	DD	01H
	DD	FLAT:??_R2exception@std@@8
rdata$r	ENDS
;	COMDAT ??_R4exception@std@@6B@
rdata$r	SEGMENT
??_R4exception@std@@6B@ DD 00H				; std::exception::`RTTI Complete Object Locator'
	DD	00H
	DD	00H
	DD	FLAT:??_R0?AVexception@std@@@8
	DD	FLAT:??_R3exception@std@@8
rdata$r	ENDS
;	COMDAT __CT??_R0?AVexception@std@@@8??0exception@std@@QAE@ABV01@@Z12
xdata$x	SEGMENT
__CT??_R0?AVexception@std@@@8??0exception@std@@QAE@ABV01@@Z12 DD 00H
	DD	FLAT:??_R0?AVexception@std@@@8
	DD	00H
	DD	0ffffffffH
	ORG $+4
	DD	0cH
	DD	FLAT:??0exception@std@@QAE@ABV01@@Z
xdata$x	ENDS
;	COMDAT ??_R0?AVexception@std@@@8
data$r	SEGMENT
??_R0?AVexception@std@@@8 DD FLAT:??_7type_info@@6B@	; std::exception `RTTI Type Descriptor'
	DD	00H
	DB	'.?AVexception@std@@', 00H
data$r	ENDS
;	COMDAT __CT??_R0?AVbad_alloc@std@@@8??0bad_alloc@std@@QAE@ABV01@@Z12
xdata$x	SEGMENT
__CT??_R0?AVbad_alloc@std@@@8??0bad_alloc@std@@QAE@ABV01@@Z12 DD 010H
	DD	FLAT:??_R0?AVbad_alloc@std@@@8
	DD	00H
	DD	0ffffffffH
	ORG $+4
	DD	0cH
	DD	FLAT:??0bad_alloc@std@@QAE@ABV01@@Z
xdata$x	ENDS
;	COMDAT ??_R0?AVbad_alloc@std@@@8
data$r	SEGMENT
??_R0?AVbad_alloc@std@@@8 DD FLAT:??_7type_info@@6B@	; std::bad_alloc `RTTI Type Descriptor'
	DD	00H
	DB	'.?AVbad_alloc@std@@', 00H
data$r	ENDS
;	COMDAT __CT??_R0?AVbad_array_new_length@std@@@8??0bad_array_new_length@std@@QAE@ABV01@@Z12
xdata$x	SEGMENT
__CT??_R0?AVbad_array_new_length@std@@@8??0bad_array_new_length@std@@QAE@ABV01@@Z12 DD 00H
	DD	FLAT:??_R0?AVbad_array_new_length@std@@@8
	DD	00H
	DD	0ffffffffH
	ORG $+4
	DD	0cH
	DD	FLAT:??0bad_array_new_length@std@@QAE@ABV01@@Z
xdata$x	ENDS
;	COMDAT ??_R0?AVbad_array_new_length@std@@@8
data$r	SEGMENT
??_R0?AVbad_array_new_length@std@@@8 DD FLAT:??_7type_info@@6B@ ; std::bad_array_new_length `RTTI Type Descriptor'
	DD	00H
	DB	'.?AVbad_array_new_length@std@@', 00H
data$r	ENDS
;	COMDAT __CTA3?AVbad_array_new_length@std@@
xdata$x	SEGMENT
__CTA3?AVbad_array_new_length@std@@ DD 03H
	DD	FLAT:__CT??_R0?AVbad_array_new_length@std@@@8??0bad_array_new_length@std@@QAE@ABV01@@Z12
	DD	FLAT:__CT??_R0?AVbad_alloc@std@@@8??0bad_alloc@std@@QAE@ABV01@@Z12
	DD	FLAT:__CT??_R0?AVexception@std@@@8??0exception@std@@QAE@ABV01@@Z12
xdata$x	ENDS
;	COMDAT __TI3?AVbad_array_new_length@std@@
xdata$x	SEGMENT
__TI3?AVbad_array_new_length@std@@ DD 00H
	DD	FLAT:??1bad_array_new_length@std@@UAE@XZ
	DD	00H
	DD	FLAT:__CTA3?AVbad_array_new_length@std@@
xdata$x	ENDS
;	COMDAT ??_C@_0BF@KINCDENJ@bad?5array?5new?5length@
CONST	SEGMENT
??_C@_0BF@KINCDENJ@bad?5array?5new?5length@ DB 'bad array new length', 00H ; `string'
CONST	ENDS
;	COMDAT ??_7bad_array_new_length@std@@6B@
CONST	SEGMENT
??_7bad_array_new_length@std@@6B@ DD FLAT:??_R4bad_array_new_length@std@@6B@ ; std::bad_array_new_length::`vftable'
	DD	FLAT:??_Ebad_array_new_length@std@@UAEPAXI@Z
	DD	FLAT:?what@exception@std@@UBEPBDXZ
CONST	ENDS
;	COMDAT ??_7bad_alloc@std@@6B@
CONST	SEGMENT
??_7bad_alloc@std@@6B@ DD FLAT:??_R4bad_alloc@std@@6B@	; std::bad_alloc::`vftable'
	DD	FLAT:??_Ebad_alloc@std@@UAEPAXI@Z
	DD	FLAT:?what@exception@std@@UBEPBDXZ
CONST	ENDS
;	COMDAT ??_C@_0BC@EOODALEL@Unknown?5exception@
CONST	SEGMENT
??_C@_0BC@EOODALEL@Unknown?5exception@ DB 'Unknown exception', 00H ; `string'
CONST	ENDS
;	COMDAT ??_7exception@std@@6B@
CONST	SEGMENT
??_7exception@std@@6B@ DD FLAT:??_R4exception@std@@6B@	; std::exception::`vftable'
	DD	FLAT:??_Eexception@std@@UAEPAXI@Z
	DD	FLAT:?what@exception@std@@UBEPBDXZ
CONST	ENDS
;	COMDAT xdata$x
xdata$x	SEGMENT
__unwindtable$?systemReserveResource@@YAPAU_object@@PAU1@0@Z DD 0ffffffffH
	DD	FLAT:__unwindfunclet$?systemReserveResource@@YAPAU_object@@PAU1@0@Z$0
__ehfuncinfo$?systemReserveResource@@YAPAU_object@@PAU1@0@Z DD 019930522H
	DD	01H
	DD	FLAT:__unwindtable$?systemReserveResource@@YAPAU_object@@PAU1@0@Z
	DD	2 DUP(00H)
	DD	2 DUP(00H)
	DD	00H
	DD	01H
xdata$x	ENDS
;	COMDAT xdata$x
xdata$x	SEGMENT
__ehfuncinfo$??$_Deallocate@$07$0A@@std@@YAXPAXI@Z DD 019930522H
	DD	00H
	DD	00H
	DD	2 DUP(00H)
	DD	2 DUP(00H)
	DD	00H
	DD	05H
xdata$x	ENDS
; Function compile flags: /Odspy
; File C:\Program Files (x86)\Microsoft Visual Studio\2019\Community\VC\Tools\MSVC\14.28.29333\include\xmemory
;	COMDAT ??$_Destroy_in_place@PAU?$_Tree_node@V?$basic_string@DU?$char_traits@D@std@@V?$allocator@D@2@@std@@PAX@std@@@std@@YAXAAPAU?$_Tree_node@V?$basic_string@DU?$char_traits@D@std@@V?$allocator@D@2@@std@@PAX@0@@Z
_TEXT	SEGMENT
__Obj$ = 8						; size = 4
??$_Destroy_in_place@PAU?$_Tree_node@V?$basic_string@DU?$char_traits@D@std@@V?$allocator@D@2@@std@@PAX@std@@@std@@YAXAAPAU?$_Tree_node@V?$basic_string@DU?$char_traits@D@std@@V?$allocator@D@2@@std@@PAX@0@@Z PROC ; std::_Destroy_in_place<std::_Tree_node<std::basic_string<char,std::char_traits<char>,std::allocator<char> >,void *> *>, COMDAT

; 270  : /* _CONSTEXPR20_DYNALLOC */ void _Destroy_in_place(_Ty& _Obj) noexcept {

  00000	55		 push	 ebp
  00001	8b ec		 mov	 ebp, esp

; 271  : #if _HAS_IF_CONSTEXPR
; 272  :     if constexpr (is_array_v<_Ty>) {
; 273  :         _Destroy_range(_Obj, _Obj + extent_v<_Ty>);
; 274  :     } else
; 275  : #endif // _HAS_IF_CONSTEXPR
; 276  :     {
; 277  :         _Obj.~_Ty();
; 278  :     }
; 279  : }

  00003	5d		 pop	 ebp
  00004	c3		 ret	 0
??$_Destroy_in_place@PAU?$_Tree_node@V?$basic_string@DU?$char_traits@D@std@@V?$allocator@D@2@@std@@PAX@std@@@std@@YAXAAPAU?$_Tree_node@V?$basic_string@DU?$char_traits@D@std@@V?$allocator@D@2@@std@@PAX@0@@Z ENDP ; std::_Destroy_in_place<std::_Tree_node<std::basic_string<char,std::char_traits<char>,std::allocator<char> >,void *> *>
_TEXT	ENDS
; Function compile flags: /Odspy
; File C:\Program Files (x86)\Microsoft Visual Studio\2019\Community\VC\Tools\MSVC\14.28.29333\include\xtree
; File C:\Program Files (x86)\Microsoft Visual Studio\2019\Community\VC\Tools\MSVC\14.28.29333\include\xstddef
; File C:\Program Files (x86)\Microsoft Visual Studio\2019\Community\VC\Tools\MSVC\14.28.29333\include\xstring
; File C:\Program Files (x86)\Microsoft Visual Studio\2019\Community\VC\Tools\MSVC\14.28.29333\include\xtree
;	COMDAT ??$_Freenode@V?$allocator@U?$_Tree_node@V?$basic_string@DU?$char_traits@D@std@@V?$allocator@D@2@@std@@PAX@std@@@std@@@?$_Tree_node@V?$basic_string@DU?$char_traits@D@std@@V?$allocator@D@2@@std@@PAX@std@@SAXAAV?$allocator@U?$_Tree_node@V?$basic_string@DU?$char_traits@D@std@@V?$allocator@D@2@@std@@PAX@std@@@1@PAU01@@Z
_TEXT	SEGMENT
$T1 = -4						; size = 4
__Al$ = 8						; size = 4
__Ptr$ = 12						; size = 4
??$_Freenode@V?$allocator@U?$_Tree_node@V?$basic_string@DU?$char_traits@D@std@@V?$allocator@D@2@@std@@PAX@std@@@std@@@?$_Tree_node@V?$basic_string@DU?$char_traits@D@std@@V?$allocator@D@2@@std@@PAX@std@@SAXAAV?$allocator@U?$_Tree_node@V?$basic_string@DU?$char_traits@D@std@@V?$allocator@D@2@@std@@PAX@std@@@1@PAU01@@Z PROC ; std::_Tree_node<std::basic_string<char,std::char_traits<char>,std::allocator<char> >,void *>::_Freenode<std::allocator<std::_Tree_node<std::basic_string<char,std::char_traits<char>,std::allocator<char> >,void *> > >, COMDAT

; 377  :     static void _Freenode(_Alloc& _Al, _Nodeptr _Ptr) noexcept {

  00000	55		 push	 ebp
  00001	8b ec		 mov	 ebp, esp
  00003	51		 push	 ecx

; 378  :         static_assert(is_same_v<typename _Alloc::value_type, _Tree_node>, "Bad _Freenode call");
; 379  :         allocator_traits<_Alloc>::destroy(_Al, _STD addressof(_Ptr->_Myval));

  00004	8b 45 0c	 mov	 eax, DWORD PTR __Ptr$[ebp]
  00007	83 c0 10	 add	 eax, 16			; 00000010H
; File C:\Program Files (x86)\Microsoft Visual Studio\2019\Community\VC\Tools\MSVC\14.28.29333\include\xstddef

; 275  :     return __builtin_addressof(_Val);

  0000a	89 45 fc	 mov	 DWORD PTR $T1[ebp], eax
; File C:\Program Files (x86)\Microsoft Visual Studio\2019\Community\VC\Tools\MSVC\14.28.29333\include\xstring

; 2801 :         _Tidy_deallocate();

  0000d	8b 4d fc	 mov	 ecx, DWORD PTR $T1[ebp]
  00010	e8 00 00 00 00	 call	 ?_Tidy_deallocate@?$basic_string@DU?$char_traits@D@std@@V?$allocator@D@2@@std@@AAEXXZ ; std::basic_string<char,std::char_traits<char>,std::allocator<char> >::_Tidy_deallocate
  00015	33 c0		 xor	 eax, eax
  00017	83 e0 01	 and	 eax, 1
  0001a	74 0c		 je	 SHORT $LN6@Freenode
  0001c	6a 18		 push	 24			; 00000018H
  0001e	ff 75 fc	 push	 DWORD PTR $T1[ebp]
  00021	e8 00 00 00 00	 call	 ??3@YAXPAXI@Z		; operator delete
  00026	59		 pop	 ecx
  00027	59		 pop	 ecx
$LN6@Freenode:
; File C:\Program Files (x86)\Microsoft Visual Studio\2019\Community\VC\Tools\MSVC\14.28.29333\include\xtree

; 380  :         _Freenode0(_Al, _Ptr);

  00028	ff 75 0c	 push	 DWORD PTR __Ptr$[ebp]
  0002b	ff 75 08	 push	 DWORD PTR __Al$[ebp]
  0002e	e8 00 00 00 00	 call	 ??$_Freenode0@V?$allocator@U?$_Tree_node@V?$basic_string@DU?$char_traits@D@std@@V?$allocator@D@2@@std@@PAX@std@@@std@@@?$_Tree_node@V?$basic_string@DU?$char_traits@D@std@@V?$allocator@D@2@@std@@PAX@std@@SAXAAV?$allocator@U?$_Tree_node@V?$basic_string@DU?$char_traits@D@std@@V?$allocator@D@2@@std@@PAX@std@@@1@PAU01@@Z ; std::_Tree_node<std::basic_string<char,std::char_traits<char>,std::allocator<char> >,void *>::_Freenode0<std::allocator<std::_Tree_node<std::basic_string<char,std::char_traits<char>,std::allocator<char> >,void *> > >
  00033	59		 pop	 ecx
  00034	59		 pop	 ecx

; 381  :     }

  00035	c9		 leave
  00036	c3		 ret	 0
??$_Freenode@V?$allocator@U?$_Tree_node@V?$basic_string@DU?$char_traits@D@std@@V?$allocator@D@2@@std@@PAX@std@@@std@@@?$_Tree_node@V?$basic_string@DU?$char_traits@D@std@@V?$allocator@D@2@@std@@PAX@std@@SAXAAV?$allocator@U?$_Tree_node@V?$basic_string@DU?$char_traits@D@std@@V?$allocator@D@2@@std@@PAX@std@@@1@PAU01@@Z ENDP ; std::_Tree_node<std::basic_string<char,std::char_traits<char>,std::allocator<char> >,void *>::_Freenode<std::allocator<std::_Tree_node<std::basic_string<char,std::char_traits<char>,std::allocator<char> >,void *> > >
_TEXT	ENDS
; Function compile flags: /Odspy
; File C:\Program Files (x86)\Microsoft Visual Studio\2019\Community\VC\Tools\MSVC\14.28.29333\include\xmemory
; File C:\Program Files (x86)\Microsoft Visual Studio\2019\Community\VC\Tools\MSVC\14.28.29333\include\xstddef
; File C:\Program Files (x86)\Microsoft Visual Studio\2019\Community\VC\Tools\MSVC\14.28.29333\include\vcruntime_new.h
; File C:\Program Files (x86)\Microsoft Visual Studio\2019\Community\VC\Tools\MSVC\14.28.29333\include\type_traits
; File C:\Program Files (x86)\Microsoft Visual Studio\2019\Community\VC\Tools\MSVC\14.28.29333\include\xmemory
;	COMDAT ??$_Construct_in_place@PAU?$_Tree_node@V?$basic_string@DU?$char_traits@D@std@@V?$allocator@D@2@@std@@PAX@std@@ABQAU12@@std@@YAXAAPAU?$_Tree_node@V?$basic_string@DU?$char_traits@D@std@@V?$allocator@D@2@@std@@PAX@0@ABQAU10@@Z
_TEXT	SEGMENT
$T1 = -12						; size = 4
$T2 = -8						; size = 4
$T3 = -4						; size = 4
__Obj$ = 8						; size = 4
_<_Args_0>$ = 12					; size = 4
??$_Construct_in_place@PAU?$_Tree_node@V?$basic_string@DU?$char_traits@D@std@@V?$allocator@D@2@@std@@PAX@std@@ABQAU12@@std@@YAXAAPAU?$_Tree_node@V?$basic_string@DU?$char_traits@D@std@@V?$allocator@D@2@@std@@PAX@0@ABQAU10@@Z PROC ; std::_Construct_in_place<std::_Tree_node<std::basic_string<char,std::char_traits<char>,std::allocator<char> >,void *> *,std::_Tree_node<std::basic_string<char,std::char_traits<char>,std::allocator<char> >,void *> * const &>, COMDAT

; 228  : void _Construct_in_place(_Ty& _Obj, _Types&&... _Args) noexcept(is_nothrow_constructible_v<_Ty, _Types...>) {

  00000	55		 push	 ebp
  00001	8b ec		 mov	 ebp, esp
  00003	83 ec 0c	 sub	 esp, 12			; 0000000cH
; File C:\Program Files (x86)\Microsoft Visual Studio\2019\Community\VC\Tools\MSVC\14.28.29333\include\xstddef

; 275  :     return __builtin_addressof(_Val);

  00006	8b 45 08	 mov	 eax, DWORD PTR __Obj$[ebp]
  00009	89 45 fc	 mov	 DWORD PTR $T3[ebp], eax
; File C:\Program Files (x86)\Microsoft Visual Studio\2019\Community\VC\Tools\MSVC\14.28.29333\include\vcruntime_new.h

; 169  :         return _Where;

  0000c	8b 45 fc	 mov	 eax, DWORD PTR $T3[ebp]
  0000f	89 45 f8	 mov	 DWORD PTR $T2[ebp], eax
; File C:\Program Files (x86)\Microsoft Visual Studio\2019\Community\VC\Tools\MSVC\14.28.29333\include\type_traits

; 1443 :     return static_cast<_Ty&&>(_Arg);

  00012	8b 45 0c	 mov	 eax, DWORD PTR _<_Args_0>$[ebp]
  00015	89 45 f4	 mov	 DWORD PTR $T1[ebp], eax
; File C:\Program Files (x86)\Microsoft Visual Studio\2019\Community\VC\Tools\MSVC\14.28.29333\include\xmemory

; 229  :     ::new (const_cast<void*>(static_cast<const volatile void*>(_STD addressof(_Obj))))

  00018	8b 45 f8	 mov	 eax, DWORD PTR $T2[ebp]
  0001b	8b 4d f4	 mov	 ecx, DWORD PTR $T1[ebp]
  0001e	8b 09		 mov	 ecx, DWORD PTR [ecx]
  00020	89 08		 mov	 DWORD PTR [eax], ecx

; 230  :         _Ty(_STD forward<_Types>(_Args)...);
; 231  : }

  00022	c9		 leave
  00023	c3		 ret	 0
??$_Construct_in_place@PAU?$_Tree_node@V?$basic_string@DU?$char_traits@D@std@@V?$allocator@D@2@@std@@PAX@std@@ABQAU12@@std@@YAXAAPAU?$_Tree_node@V?$basic_string@DU?$char_traits@D@std@@V?$allocator@D@2@@std@@PAX@0@ABQAU10@@Z ENDP ; std::_Construct_in_place<std::_Tree_node<std::basic_string<char,std::char_traits<char>,std::allocator<char> >,void *> *,std::_Tree_node<std::basic_string<char,std::char_traits<char>,std::allocator<char> >,void *> * const &>
_TEXT	ENDS
; Function compile flags: /Odspy
; File C:\Program Files (x86)\Microsoft Visual Studio\2019\Community\VC\Tools\MSVC\14.28.29333\include\xtree
; File C:\Program Files (x86)\Microsoft Visual Studio\2019\Community\VC\Tools\MSVC\14.28.29333\include\xmemory
; File C:\Program Files (x86)\Microsoft Visual Studio\2019\Community\VC\Tools\MSVC\14.28.29333\include\xtree
;	COMDAT ??$_Freenode0@V?$allocator@U?$_Tree_node@V?$basic_string@DU?$char_traits@D@std@@V?$allocator@D@2@@std@@PAX@std@@@std@@@?$_Tree_node@V?$basic_string@DU?$char_traits@D@std@@V?$allocator@D@2@@std@@PAX@std@@SAXAAV?$allocator@U?$_Tree_node@V?$basic_string@DU?$char_traits@D@std@@V?$allocator@D@2@@std@@PAX@std@@@1@PAU01@@Z
_TEXT	SEGMENT
__Al$ = 8						; size = 4
__Ptr$ = 12						; size = 4
??$_Freenode0@V?$allocator@U?$_Tree_node@V?$basic_string@DU?$char_traits@D@std@@V?$allocator@D@2@@std@@PAX@std@@@std@@@?$_Tree_node@V?$basic_string@DU?$char_traits@D@std@@V?$allocator@D@2@@std@@PAX@std@@SAXAAV?$allocator@U?$_Tree_node@V?$basic_string@DU?$char_traits@D@std@@V?$allocator@D@2@@std@@PAX@std@@@1@PAU01@@Z PROC ; std::_Tree_node<std::basic_string<char,std::char_traits<char>,std::allocator<char> >,void *>::_Freenode0<std::allocator<std::_Tree_node<std::basic_string<char,std::char_traits<char>,std::allocator<char> >,void *> > >, COMDAT

; 368  :     static void _Freenode0(_Alloc& _Al, _Nodeptr _Ptr) noexcept {

  00000	55		 push	 ebp
  00001	8b ec		 mov	 ebp, esp

; 369  :         static_assert(is_same_v<typename _Alloc::value_type, _Tree_node>, "Bad _Freenode0 call");
; 370  :         _Destroy_in_place(_Ptr->_Left);

  00003	ff 75 0c	 push	 DWORD PTR __Ptr$[ebp]
  00006	e8 00 00 00 00	 call	 ??$_Destroy_in_place@PAU?$_Tree_node@V?$basic_string@DU?$char_traits@D@std@@V?$allocator@D@2@@std@@PAX@std@@@std@@YAXAAPAU?$_Tree_node@V?$basic_string@DU?$char_traits@D@std@@V?$allocator@D@2@@std@@PAX@0@@Z ; std::_Destroy_in_place<std::_Tree_node<std::basic_string<char,std::char_traits<char>,std::allocator<char> >,void *> *>
  0000b	59		 pop	 ecx

; 371  :         _Destroy_in_place(_Ptr->_Parent);

  0000c	8b 45 0c	 mov	 eax, DWORD PTR __Ptr$[ebp]
  0000f	83 c0 04	 add	 eax, 4
  00012	50		 push	 eax
  00013	e8 00 00 00 00	 call	 ??$_Destroy_in_place@PAU?$_Tree_node@V?$basic_string@DU?$char_traits@D@std@@V?$allocator@D@2@@std@@PAX@std@@@std@@YAXAAPAU?$_Tree_node@V?$basic_string@DU?$char_traits@D@std@@V?$allocator@D@2@@std@@PAX@0@@Z ; std::_Destroy_in_place<std::_Tree_node<std::basic_string<char,std::char_traits<char>,std::allocator<char> >,void *> *>
  00018	59		 pop	 ecx

; 372  :         _Destroy_in_place(_Ptr->_Right);

  00019	8b 45 0c	 mov	 eax, DWORD PTR __Ptr$[ebp]
  0001c	83 c0 08	 add	 eax, 8
  0001f	50		 push	 eax
  00020	e8 00 00 00 00	 call	 ??$_Destroy_in_place@PAU?$_Tree_node@V?$basic_string@DU?$char_traits@D@std@@V?$allocator@D@2@@std@@PAX@std@@@std@@YAXAAPAU?$_Tree_node@V?$basic_string@DU?$char_traits@D@std@@V?$allocator@D@2@@std@@PAX@0@@Z ; std::_Destroy_in_place<std::_Tree_node<std::basic_string<char,std::char_traits<char>,std::allocator<char> >,void *> *>
  00025	59		 pop	 ecx
; File C:\Program Files (x86)\Microsoft Visual Studio\2019\Community\VC\Tools\MSVC\14.28.29333\include\xmemory

; 696  :         _Deallocate<_New_alignof<value_type>>(_Ptr, sizeof(value_type) * _Count);

  00026	33 c0		 xor	 eax, eax
  00028	40		 inc	 eax
  00029	6b c0 28	 imul	 eax, eax, 40
  0002c	50		 push	 eax
  0002d	ff 75 0c	 push	 DWORD PTR __Ptr$[ebp]
  00030	e8 00 00 00 00	 call	 ??$_Deallocate@$07$0A@@std@@YAXPAXI@Z ; std::_Deallocate<8,0>
  00035	59		 pop	 ecx
  00036	59		 pop	 ecx
; File C:\Program Files (x86)\Microsoft Visual Studio\2019\Community\VC\Tools\MSVC\14.28.29333\include\xtree

; 374  :     }

  00037	5d		 pop	 ebp
  00038	c3		 ret	 0
??$_Freenode0@V?$allocator@U?$_Tree_node@V?$basic_string@DU?$char_traits@D@std@@V?$allocator@D@2@@std@@PAX@std@@@std@@@?$_Tree_node@V?$basic_string@DU?$char_traits@D@std@@V?$allocator@D@2@@std@@PAX@std@@SAXAAV?$allocator@U?$_Tree_node@V?$basic_string@DU?$char_traits@D@std@@V?$allocator@D@2@@std@@PAX@std@@@1@PAU01@@Z ENDP ; std::_Tree_node<std::basic_string<char,std::char_traits<char>,std::allocator<char> >,void *>::_Freenode0<std::allocator<std::_Tree_node<std::basic_string<char,std::char_traits<char>,std::allocator<char> >,void *> > >
_TEXT	ENDS
; Function compile flags: /Odspy
; File C:\Program Files (x86)\Microsoft Visual Studio\2019\Community\VC\Tools\MSVC\14.28.29333\include\xtree
; File C:\Program Files (x86)\Microsoft Visual Studio\2019\Community\VC\Tools\MSVC\14.28.29333\include\utility
; File C:\Program Files (x86)\Microsoft Visual Studio\2019\Community\VC\Tools\MSVC\14.28.29333\include\xtree
;	COMDAT ??$_Erase_tree@V?$allocator@U?$_Tree_node@V?$basic_string@DU?$char_traits@D@std@@V?$allocator@D@2@@std@@PAX@std@@@std@@@?$_Tree_val@U?$_Tree_simple_types@V?$basic_string@DU?$char_traits@D@std@@V?$allocator@D@2@@std@@@std@@@std@@QAEXAAV?$allocator@U?$_Tree_node@V?$basic_string@DU?$char_traits@D@std@@V?$allocator@D@2@@std@@PAX@std@@@1@PAU?$_Tree_node@V?$basic_string@DU?$char_traits@D@std@@V?$allocator@D@2@@std@@PAX@1@@Z
_TEXT	SEGMENT
$T1 = -16						; size = 4
__Old_val$2 = -12					; size = 4
__New_val$ = -8						; size = 4
_this$ = -4						; size = 4
__Al$ = 8						; size = 4
__Rootnode$ = 12					; size = 4
??$_Erase_tree@V?$allocator@U?$_Tree_node@V?$basic_string@DU?$char_traits@D@std@@V?$allocator@D@2@@std@@PAX@std@@@std@@@?$_Tree_val@U?$_Tree_simple_types@V?$basic_string@DU?$char_traits@D@std@@V?$allocator@D@2@@std@@@std@@@std@@QAEXAAV?$allocator@U?$_Tree_node@V?$basic_string@DU?$char_traits@D@std@@V?$allocator@D@2@@std@@PAX@std@@@1@PAU?$_Tree_node@V?$basic_string@DU?$char_traits@D@std@@V?$allocator@D@2@@std@@PAX@1@@Z PROC ; std::_Tree_val<std::_Tree_simple_types<std::basic_string<char,std::char_traits<char>,std::allocator<char> > > >::_Erase_tree<std::allocator<std::_Tree_node<std::basic_string<char,std::char_traits<char>,std::allocator<char> >,void *> > >, COMDAT
; _this$ = ecx

; 742  :     void _Erase_tree(_Alnode& _Al, _Nodeptr _Rootnode) noexcept {

  00000	55		 push	 ebp
  00001	8b ec		 mov	 ebp, esp
  00003	83 ec 10	 sub	 esp, 16			; 00000010H
  00006	89 4d fc	 mov	 DWORD PTR _this$[ebp], ecx
$LN2@Erase_tree:

; 743  :         while (!_Rootnode->_Isnil) { // free subtrees, then node

  00009	8b 45 0c	 mov	 eax, DWORD PTR __Rootnode$[ebp]
  0000c	0f be 40 0d	 movsx	 eax, BYTE PTR [eax+13]
  00010	85 c0		 test	 eax, eax
  00012	75 3a		 jne	 SHORT $LN4@Erase_tree

; 744  :             _Erase_tree(_Al, _Rootnode->_Right);

  00014	8b 45 0c	 mov	 eax, DWORD PTR __Rootnode$[ebp]
  00017	ff 70 08	 push	 DWORD PTR [eax+8]
  0001a	ff 75 08	 push	 DWORD PTR __Al$[ebp]
  0001d	8b 4d fc	 mov	 ecx, DWORD PTR _this$[ebp]
  00020	e8 00 00 00 00	 call	 ??$_Erase_tree@V?$allocator@U?$_Tree_node@V?$basic_string@DU?$char_traits@D@std@@V?$allocator@D@2@@std@@PAX@std@@@std@@@?$_Tree_val@U?$_Tree_simple_types@V?$basic_string@DU?$char_traits@D@std@@V?$allocator@D@2@@std@@@std@@@std@@QAEXAAV?$allocator@U?$_Tree_node@V?$basic_string@DU?$char_traits@D@std@@V?$allocator@D@2@@std@@PAX@std@@@1@PAU?$_Tree_node@V?$basic_string@DU?$char_traits@D@std@@V?$allocator@D@2@@std@@PAX@1@@Z ; std::_Tree_val<std::_Tree_simple_types<std::basic_string<char,std::char_traits<char>,std::allocator<char> > > >::_Erase_tree<std::allocator<std::_Tree_node<std::basic_string<char,std::char_traits<char>,std::allocator<char> >,void *> > >

; 745  :             _Alnode::value_type::_Freenode(_Al, _STD exchange(_Rootnode, _Rootnode->_Left));

  00025	8b 45 0c	 mov	 eax, DWORD PTR __Rootnode$[ebp]
  00028	89 45 f8	 mov	 DWORD PTR __New_val$[ebp], eax
; File C:\Program Files (x86)\Microsoft Visual Studio\2019\Community\VC\Tools\MSVC\14.28.29333\include\utility

; 598  :     _Ty _Old_val = static_cast<_Ty&&>(_Val);

  0002b	8b 45 0c	 mov	 eax, DWORD PTR __Rootnode$[ebp]
  0002e	89 45 f4	 mov	 DWORD PTR __Old_val$2[ebp], eax

; 599  :     _Val         = static_cast<_Other&&>(_New_val);

  00031	8b 45 f8	 mov	 eax, DWORD PTR __New_val$[ebp]
  00034	8b 00		 mov	 eax, DWORD PTR [eax]
  00036	89 45 0c	 mov	 DWORD PTR __Rootnode$[ebp], eax

; 600  :     return _Old_val;

  00039	8b 45 f4	 mov	 eax, DWORD PTR __Old_val$2[ebp]
  0003c	89 45 f0	 mov	 DWORD PTR $T1[ebp], eax
; File C:\Program Files (x86)\Microsoft Visual Studio\2019\Community\VC\Tools\MSVC\14.28.29333\include\xtree

; 745  :             _Alnode::value_type::_Freenode(_Al, _STD exchange(_Rootnode, _Rootnode->_Left));

  0003f	ff 75 f0	 push	 DWORD PTR $T1[ebp]
  00042	ff 75 08	 push	 DWORD PTR __Al$[ebp]
  00045	e8 00 00 00 00	 call	 ??$_Freenode@V?$allocator@U?$_Tree_node@V?$basic_string@DU?$char_traits@D@std@@V?$allocator@D@2@@std@@PAX@std@@@std@@@?$_Tree_node@V?$basic_string@DU?$char_traits@D@std@@V?$allocator@D@2@@std@@PAX@std@@SAXAAV?$allocator@U?$_Tree_node@V?$basic_string@DU?$char_traits@D@std@@V?$allocator@D@2@@std@@PAX@std@@@1@PAU01@@Z ; std::_Tree_node<std::basic_string<char,std::char_traits<char>,std::allocator<char> >,void *>::_Freenode<std::allocator<std::_Tree_node<std::basic_string<char,std::char_traits<char>,std::allocator<char> >,void *> > >
  0004a	59		 pop	 ecx
  0004b	59		 pop	 ecx

; 746  :         }

  0004c	eb bb		 jmp	 SHORT $LN2@Erase_tree
$LN4@Erase_tree:

; 747  :     }

  0004e	c9		 leave
  0004f	c2 08 00	 ret	 8
??$_Erase_tree@V?$allocator@U?$_Tree_node@V?$basic_string@DU?$char_traits@D@std@@V?$allocator@D@2@@std@@PAX@std@@@std@@@?$_Tree_val@U?$_Tree_simple_types@V?$basic_string@DU?$char_traits@D@std@@V?$allocator@D@2@@std@@@std@@@std@@QAEXAAV?$allocator@U?$_Tree_node@V?$basic_string@DU?$char_traits@D@std@@V?$allocator@D@2@@std@@PAX@std@@@1@PAU?$_Tree_node@V?$basic_string@DU?$char_traits@D@std@@V?$allocator@D@2@@std@@PAX@1@@Z ENDP ; std::_Tree_val<std::_Tree_simple_types<std::basic_string<char,std::char_traits<char>,std::allocator<char> > > >::_Erase_tree<std::allocator<std::_Tree_node<std::basic_string<char,std::char_traits<char>,std::allocator<char> >,void *> > >
_TEXT	ENDS
; Function compile flags: /Odspy
; File C:\Program Files (x86)\Microsoft Visual Studio\2019\Community\VC\Tools\MSVC\14.28.29333\include\xtree
; File C:\Program Files (x86)\Microsoft Visual Studio\2019\Community\VC\Tools\MSVC\14.28.29333\include\xmemory
; File C:\Program Files (x86)\Microsoft Visual Studio\2019\Community\VC\Tools\MSVC\14.28.29333\include\xtree
;	COMDAT ??$_Buyheadnode@V?$allocator@U?$_Tree_node@V?$basic_string@DU?$char_traits@D@std@@V?$allocator@D@2@@std@@PAX@std@@@std@@@?$_Tree_node@V?$basic_string@DU?$char_traits@D@std@@V?$allocator@D@2@@std@@PAX@std@@SAPAU01@AAV?$allocator@U?$_Tree_node@V?$basic_string@DU?$char_traits@D@std@@V?$allocator@D@2@@std@@PAX@std@@@1@@Z
_TEXT	SEGMENT
__Max_possible$1 = -20					; size = 4
$T2 = -16						; size = 4
$T3 = -12						; size = 4
__Pnode$ = -8						; size = 4
__Overflow_is_possible$4 = -1				; size = 1
__Al$ = 8						; size = 4
??$_Buyheadnode@V?$allocator@U?$_Tree_node@V?$basic_string@DU?$char_traits@D@std@@V?$allocator@D@2@@std@@PAX@std@@@std@@@?$_Tree_node@V?$basic_string@DU?$char_traits@D@std@@V?$allocator@D@2@@std@@PAX@std@@SAPAU01@AAV?$allocator@U?$_Tree_node@V?$basic_string@DU?$char_traits@D@std@@V?$allocator@D@2@@std@@PAX@std@@@1@@Z PROC ; std::_Tree_node<std::basic_string<char,std::char_traits<char>,std::allocator<char> >,void *>::_Buyheadnode<std::allocator<std::_Tree_node<std::basic_string<char,std::char_traits<char>,std::allocator<char> >,void *> > >, COMDAT

; 341  :     static _Nodeptr _Buyheadnode(_Alloc& _Al) {

  00000	55		 push	 ebp
  00001	8b ec		 mov	 ebp, esp
  00003	83 ec 14	 sub	 esp, 20			; 00000014H
; File C:\Program Files (x86)\Microsoft Visual Studio\2019\Community\VC\Tools\MSVC\14.28.29333\include\xmemory

; 56   :     constexpr bool _Overflow_is_possible = _Ty_size > 1;

  00006	c6 45 ff 01	 mov	 BYTE PTR __Overflow_is_possible$4[ebp], 1

; 57   : 
; 58   :     if _CONSTEXPR_IF (_Overflow_is_possible) {
; 59   :         constexpr size_t _Max_possible = static_cast<size_t>(-1) / _Ty_size;

  0000a	c7 45 ec 66 66
	66 06		 mov	 DWORD PTR __Max_possible$1[ebp], 107374182 ; 06666666H

; 60   :         if (_Count > _Max_possible) {

  00011	33 c0		 xor	 eax, eax
  00013	40		 inc	 eax
  00014	3d 66 66 66 06	 cmp	 eax, 107374182		; 06666666H
  00019	76 05		 jbe	 SHORT $LN6@Buyheadnod

; 61   :             _Throw_bad_array_new_length(); // multiply overflow

  0001b	e8 00 00 00 00	 call	 ?_Throw_bad_array_new_length@std@@YAXXZ ; std::_Throw_bad_array_new_length
$LN6@Buyheadnod:

; 62   :         }
; 63   :     }
; 64   : 
; 65   :     return _Count * _Ty_size;

  00020	33 c0		 xor	 eax, eax
  00022	40		 inc	 eax
  00023	6b c0 28	 imul	 eax, eax, 40
  00026	89 45 f4	 mov	 DWORD PTR $T3[ebp], eax

; 814  :         return static_cast<_Ty*>(_Allocate<_New_alignof<_Ty>>(_Get_size_of_n<sizeof(_Ty)>(_Count)));

  00029	ff 75 f4	 push	 DWORD PTR $T3[ebp]
  0002c	e8 00 00 00 00	 call	 ??$_Allocate@$07U_Default_allocate_traits@std@@$0A@@std@@YAPAXI@Z ; std::_Allocate<8,std::_Default_allocate_traits,0>
  00031	59		 pop	 ecx
  00032	89 45 f0	 mov	 DWORD PTR $T2[ebp], eax
; File C:\Program Files (x86)\Microsoft Visual Studio\2019\Community\VC\Tools\MSVC\14.28.29333\include\xtree

; 343  :         const auto _Pnode = _Al.allocate(1);

  00035	8b 45 f0	 mov	 eax, DWORD PTR $T2[ebp]
  00038	89 45 f8	 mov	 DWORD PTR __Pnode$[ebp], eax

; 344  :         _Construct_in_place(_Pnode->_Left, _Pnode);

  0003b	8d 45 f8	 lea	 eax, DWORD PTR __Pnode$[ebp]
  0003e	50		 push	 eax
  0003f	ff 75 f8	 push	 DWORD PTR __Pnode$[ebp]
  00042	e8 00 00 00 00	 call	 ??$_Construct_in_place@PAU?$_Tree_node@V?$basic_string@DU?$char_traits@D@std@@V?$allocator@D@2@@std@@PAX@std@@ABQAU12@@std@@YAXAAPAU?$_Tree_node@V?$basic_string@DU?$char_traits@D@std@@V?$allocator@D@2@@std@@PAX@0@ABQAU10@@Z ; std::_Construct_in_place<std::_Tree_node<std::basic_string<char,std::char_traits<char>,std::allocator<char> >,void *> *,std::_Tree_node<std::basic_string<char,std::char_traits<char>,std::allocator<char> >,void *> * const &>
  00047	59		 pop	 ecx
  00048	59		 pop	 ecx

; 345  :         _Construct_in_place(_Pnode->_Parent, _Pnode);

  00049	8d 45 f8	 lea	 eax, DWORD PTR __Pnode$[ebp]
  0004c	50		 push	 eax
  0004d	8b 45 f8	 mov	 eax, DWORD PTR __Pnode$[ebp]
  00050	83 c0 04	 add	 eax, 4
  00053	50		 push	 eax
  00054	e8 00 00 00 00	 call	 ??$_Construct_in_place@PAU?$_Tree_node@V?$basic_string@DU?$char_traits@D@std@@V?$allocator@D@2@@std@@PAX@std@@ABQAU12@@std@@YAXAAPAU?$_Tree_node@V?$basic_string@DU?$char_traits@D@std@@V?$allocator@D@2@@std@@PAX@0@ABQAU10@@Z ; std::_Construct_in_place<std::_Tree_node<std::basic_string<char,std::char_traits<char>,std::allocator<char> >,void *> *,std::_Tree_node<std::basic_string<char,std::char_traits<char>,std::allocator<char> >,void *> * const &>
  00059	59		 pop	 ecx
  0005a	59		 pop	 ecx

; 346  :         _Construct_in_place(_Pnode->_Right, _Pnode);

  0005b	8d 45 f8	 lea	 eax, DWORD PTR __Pnode$[ebp]
  0005e	50		 push	 eax
  0005f	8b 45 f8	 mov	 eax, DWORD PTR __Pnode$[ebp]
  00062	83 c0 08	 add	 eax, 8
  00065	50		 push	 eax
  00066	e8 00 00 00 00	 call	 ??$_Construct_in_place@PAU?$_Tree_node@V?$basic_string@DU?$char_traits@D@std@@V?$allocator@D@2@@std@@PAX@std@@ABQAU12@@std@@YAXAAPAU?$_Tree_node@V?$basic_string@DU?$char_traits@D@std@@V?$allocator@D@2@@std@@PAX@0@ABQAU10@@Z ; std::_Construct_in_place<std::_Tree_node<std::basic_string<char,std::char_traits<char>,std::allocator<char> >,void *> *,std::_Tree_node<std::basic_string<char,std::char_traits<char>,std::allocator<char> >,void *> * const &>
  0006b	59		 pop	 ecx
  0006c	59		 pop	 ecx

; 347  :         _Pnode->_Color = _Black;

  0006d	8b 45 f8	 mov	 eax, DWORD PTR __Pnode$[ebp]
  00070	c6 40 0c 01	 mov	 BYTE PTR [eax+12], 1

; 348  :         _Pnode->_Isnil = true;

  00074	8b 45 f8	 mov	 eax, DWORD PTR __Pnode$[ebp]
  00077	c6 40 0d 01	 mov	 BYTE PTR [eax+13], 1

; 349  :         return _Pnode;

  0007b	8b 45 f8	 mov	 eax, DWORD PTR __Pnode$[ebp]
$LN9@Buyheadnod:

; 350  :     }

  0007e	c9		 leave
  0007f	c3		 ret	 0
??$_Buyheadnode@V?$allocator@U?$_Tree_node@V?$basic_string@DU?$char_traits@D@std@@V?$allocator@D@2@@std@@PAX@std@@@std@@@?$_Tree_node@V?$basic_string@DU?$char_traits@D@std@@V?$allocator@D@2@@std@@PAX@std@@SAPAU01@AAV?$allocator@U?$_Tree_node@V?$basic_string@DU?$char_traits@D@std@@V?$allocator@D@2@@std@@PAX@std@@@1@@Z ENDP ; std::_Tree_node<std::basic_string<char,std::char_traits<char>,std::allocator<char> >,void *>::_Buyheadnode<std::allocator<std::_Tree_node<std::basic_string<char,std::char_traits<char>,std::allocator<char> >,void *> > >
_TEXT	ENDS
; Function compile flags: /Odspy
; File D:\Metin2 Server Files\mainline\SRC_2014\Metin2Client\UserInterface\PythonSystemModule.cpp
;	COMDAT ?systemSetShadowLevel@@YAPAU_object@@PAU1@0@Z
_TEXT	SEGMENT
_level$ = -4						; size = 4
_poSelf$ = 8						; size = 4
_poArgs$ = 12						; size = 4
?systemSetShadowLevel@@YAPAU_object@@PAU1@0@Z PROC	; systemSetShadowLevel, COMDAT

; 363  : {

  00000	55		 push	 ebp
  00001	8b ec		 mov	 ebp, esp
  00003	51		 push	 ecx

; 364  : 	int level;
; 365  : 
; 366  : 	if (!PyTuple_GetInteger(poArgs, 0, &level))

  00004	8d 45 fc	 lea	 eax, DWORD PTR _level$[ebp]
  00007	50		 push	 eax
  00008	6a 00		 push	 0
  0000a	ff 75 0c	 push	 DWORD PTR _poArgs$[ebp]
  0000d	e8 00 00 00 00	 call	 ?PyTuple_GetInteger@@YA_NPAU_object@@HPAH@Z ; PyTuple_GetInteger
  00012	83 c4 0c	 add	 esp, 12			; 0000000cH
  00015	0f b6 c0	 movzx	 eax, al
  00018	85 c0		 test	 eax, eax
  0001a	75 0a		 jne	 SHORT $LN2@systemSetS

; 367  : 		return Py_BuildException();

  0001c	6a 00		 push	 0
  0001e	e8 00 00 00 00	 call	 ?Py_BuildException@@YAPAU_object@@PBDZZ ; Py_BuildException
  00023	59		 pop	 ecx
  00024	eb 19		 jmp	 SHORT $LN1@systemSetS
$LN2@systemSetS:

; 368  : 
; 369  : 	if (level > 0)

  00026	83 7d fc 00	 cmp	 DWORD PTR _level$[ebp], 0
  0002a	7e 0e		 jle	 SHORT $LN3@systemSetS

; 370  : 		CPythonSystem::Instance().SetShadowLevel(level);

  0002c	ff 75 fc	 push	 DWORD PTR _level$[ebp]
  0002f	8b 0d 00 00 00
	00		 mov	 ecx, DWORD PTR ?ms_singleton@?$CSingleton@VCPythonSystem@@@@0PAVCPythonSystem@@A ; CSingleton<CPythonSystem>::ms_singleton
  00035	e8 00 00 00 00	 call	 ?SetShadowLevel@CPythonSystem@@QAEXI@Z ; CPythonSystem::SetShadowLevel
$LN3@systemSetS:

; 371  : 
; 372  : 	return Py_BuildNone();

  0003a	e8 00 00 00 00	 call	 ?Py_BuildNone@@YAPAU_object@@XZ ; Py_BuildNone
$LN1@systemSetS:

; 373  : }

  0003f	c9		 leave
  00040	c3		 ret	 0
?systemSetShadowLevel@@YAPAU_object@@PAU1@0@Z ENDP	; systemSetShadowLevel
_TEXT	ENDS
; Function compile flags: /Odspy
; File D:\Metin2 Server Files\mainline\SRC_2014\Metin2Client\UserInterface\PythonSystemModule.cpp
; File D:\Metin2 Server Files\mainline\SRC_2014\Metin2Client\eterBase\Singleton.h
; File D:\Metin2 Server Files\mainline\SRC_2014\Metin2Client\UserInterface\PythonSystemModule.cpp
;	COMDAT ?systemGetShadowLevel@@YAPAU_object@@PAU1@0@Z
_TEXT	SEGMENT
$T1 = -4						; size = 4
_poSelf$ = 8						; size = 4
_poArgs$ = 12						; size = 4
?systemGetShadowLevel@@YAPAU_object@@PAU1@0@Z PROC	; systemGetShadowLevel, COMDAT

; 358  : {

  00000	55		 push	 ebp
  00001	8b ec		 mov	 ebp, esp
  00003	51		 push	 ecx
; File D:\Metin2 Server Files\mainline\SRC_2014\Metin2Client\eterBase\Singleton.h

; 27   : 		return (*ms_singleton);

  00004	a1 00 00 00 00	 mov	 eax, DWORD PTR ?ms_singleton@?$CSingleton@VCPythonSystem@@@@0PAVCPythonSystem@@A ; CSingleton<CPythonSystem>::ms_singleton
  00009	89 45 fc	 mov	 DWORD PTR $T1[ebp], eax
; File D:\Metin2 Server Files\mainline\SRC_2014\Metin2Client\UserInterface\PythonSystemModule.cpp

; 359  : 	return Py_BuildValue("i", CPythonSystem::Instance().GetShadowLevel());

  0000c	8b 4d fc	 mov	 ecx, DWORD PTR $T1[ebp]
  0000f	e8 00 00 00 00	 call	 ?GetShadowLevel@CPythonSystem@@QAEHXZ ; CPythonSystem::GetShadowLevel
  00014	50		 push	 eax
  00015	68 00 00 00 00	 push	 OFFSET ??_C@_01KBJDNOO@i@
  0001a	ff 15 00 00 00
	00		 call	 DWORD PTR __imp__Py_BuildValue
  00020	59		 pop	 ecx
  00021	59		 pop	 ecx

; 360  : }

  00022	c9		 leave
  00023	c3		 ret	 0
?systemGetShadowLevel@@YAPAU_object@@PAU1@0@Z ENDP	; systemGetShadowLevel
_TEXT	ENDS
; Function compile flags: /Odspy
; File D:\Metin2 Server Files\mainline\SRC_2014\Metin2Client\UserInterface\PythonSystemModule.cpp
;	COMDAT ?systemGetFrequency@@YAPAU_object@@PAU1@0@Z
_TEXT	SEGMENT
_index$ = -12						; size = 4
_frequency_index$ = -8					; size = 4
_frequency$ = -4					; size = 4
_poSelf$ = 8						; size = 4
_poArgs$ = 12						; size = 4
?systemGetFrequency@@YAPAU_object@@PAU1@0@Z PROC	; systemGetFrequency, COMDAT

; 343  : {

  00000	55		 push	 ebp
  00001	8b ec		 mov	 ebp, esp
  00003	83 ec 0c	 sub	 esp, 12			; 0000000cH

; 344  : 	int	index, frequency_index;
; 345  : 	DWORD frequency = 0;

  00006	83 65 fc 00	 and	 DWORD PTR _frequency$[ebp], 0

; 346  : 
; 347  : 	if (!PyTuple_GetInteger(poArgs, 0, &index))

  0000a	8d 45 f4	 lea	 eax, DWORD PTR _index$[ebp]
  0000d	50		 push	 eax
  0000e	6a 00		 push	 0
  00010	ff 75 0c	 push	 DWORD PTR _poArgs$[ebp]
  00013	e8 00 00 00 00	 call	 ?PyTuple_GetInteger@@YA_NPAU_object@@HPAH@Z ; PyTuple_GetInteger
  00018	83 c4 0c	 add	 esp, 12			; 0000000cH
  0001b	0f b6 c0	 movzx	 eax, al
  0001e	85 c0		 test	 eax, eax
  00020	75 0a		 jne	 SHORT $LN2@systemGetF

; 348  : 		return Py_BuildException();

  00022	6a 00		 push	 0
  00024	e8 00 00 00 00	 call	 ?Py_BuildException@@YAPAU_object@@PBDZZ ; Py_BuildException
  00029	59		 pop	 ecx
  0002a	eb 47		 jmp	 SHORT $LN1@systemGetF
$LN2@systemGetF:

; 349  : 
; 350  : 	if (!PyTuple_GetInteger(poArgs, 1, &frequency_index))

  0002c	8d 45 f8	 lea	 eax, DWORD PTR _frequency_index$[ebp]
  0002f	50		 push	 eax
  00030	6a 01		 push	 1
  00032	ff 75 0c	 push	 DWORD PTR _poArgs$[ebp]
  00035	e8 00 00 00 00	 call	 ?PyTuple_GetInteger@@YA_NPAU_object@@HPAH@Z ; PyTuple_GetInteger
  0003a	83 c4 0c	 add	 esp, 12			; 0000000cH
  0003d	0f b6 c0	 movzx	 eax, al
  00040	85 c0		 test	 eax, eax
  00042	75 0a		 jne	 SHORT $LN5@systemGetF

; 351  : 		return Py_BuildException();

  00044	6a 00		 push	 0
  00046	e8 00 00 00 00	 call	 ?Py_BuildException@@YAPAU_object@@PBDZZ ; Py_BuildException
  0004b	59		 pop	 ecx
  0004c	eb 25		 jmp	 SHORT $LN1@systemGetF
$LN5@systemGetF:

; 352  : 
; 353  : 	CPythonSystem::Instance().GetFrequency(index, frequency_index, &frequency);

  0004e	8d 45 fc	 lea	 eax, DWORD PTR _frequency$[ebp]
  00051	50		 push	 eax
  00052	ff 75 f8	 push	 DWORD PTR _frequency_index$[ebp]
  00055	ff 75 f4	 push	 DWORD PTR _index$[ebp]
  00058	8b 0d 00 00 00
	00		 mov	 ecx, DWORD PTR ?ms_singleton@?$CSingleton@VCPythonSystem@@@@0PAVCPythonSystem@@A ; CSingleton<CPythonSystem>::ms_singleton
  0005e	e8 00 00 00 00	 call	 ?GetFrequency@CPythonSystem@@QAE_NHHPAK@Z ; CPythonSystem::GetFrequency

; 354  : 	return Py_BuildValue("i", frequency);

  00063	ff 75 fc	 push	 DWORD PTR _frequency$[ebp]
  00066	68 00 00 00 00	 push	 OFFSET ??_C@_01KBJDNOO@i@
  0006b	ff 15 00 00 00
	00		 call	 DWORD PTR __imp__Py_BuildValue
  00071	59		 pop	 ecx
  00072	59		 pop	 ecx
$LN1@systemGetF:

; 355  : }

  00073	c9		 leave
  00074	c3		 ret	 0
?systemGetFrequency@@YAPAU_object@@PAU1@0@Z ENDP	; systemGetFrequency
_TEXT	ENDS
; Function compile flags: /Odspy
; File D:\Metin2 Server Files\mainline\SRC_2014\Metin2Client\UserInterface\PythonSystemModule.cpp
; File D:\Metin2 Server Files\mainline\SRC_2014\Metin2Client\eterBase\Singleton.h
; File D:\Metin2 Server Files\mainline\SRC_2014\Metin2Client\UserInterface\PythonSystemModule.cpp
;	COMDAT ?systemGetCurrentResolution@@YAPAU_object@@PAU1@0@Z
_TEXT	SEGMENT
$T1 = -8						; size = 4
_tmp$ = -4						; size = 4
_poSelf$ = 8						; size = 4
_poArgs$ = 12						; size = 4
?systemGetCurrentResolution@@YAPAU_object@@PAU1@0@Z PROC ; systemGetCurrentResolution, COMDAT

; 337  : {

  00000	55		 push	 ebp
  00001	8b ec		 mov	 ebp, esp
  00003	51		 push	 ecx
  00004	51		 push	 ecx
; File D:\Metin2 Server Files\mainline\SRC_2014\Metin2Client\eterBase\Singleton.h

; 27   : 		return (*ms_singleton);

  00005	a1 00 00 00 00	 mov	 eax, DWORD PTR ?ms_singleton@?$CSingleton@VCPythonSystem@@@@0PAVCPythonSystem@@A ; CSingleton<CPythonSystem>::ms_singleton
  0000a	89 45 f8	 mov	 DWORD PTR $T1[ebp], eax
; File D:\Metin2 Server Files\mainline\SRC_2014\Metin2Client\UserInterface\PythonSystemModule.cpp

; 338  : 	CPythonSystem::TConfig *tmp = CPythonSystem::Instance().GetConfig();

  0000d	8b 4d f8	 mov	 ecx, DWORD PTR $T1[ebp]
  00010	e8 00 00 00 00	 call	 ?GetConfig@CPythonSystem@@QAEPAUSConfig@1@XZ ; CPythonSystem::GetConfig
  00015	89 45 fc	 mov	 DWORD PTR _tmp$[ebp], eax

; 339  : 	return Py_BuildValue("iii", tmp->width, tmp->height, tmp->bpp);

  00018	8b 45 fc	 mov	 eax, DWORD PTR _tmp$[ebp]
  0001b	ff 70 08	 push	 DWORD PTR [eax+8]
  0001e	8b 45 fc	 mov	 eax, DWORD PTR _tmp$[ebp]
  00021	ff 70 04	 push	 DWORD PTR [eax+4]
  00024	8b 45 fc	 mov	 eax, DWORD PTR _tmp$[ebp]
  00027	ff 30		 push	 DWORD PTR [eax]
  00029	68 00 00 00 00	 push	 OFFSET ??_C@_03GLKMLICL@iii@
  0002e	ff 15 00 00 00
	00		 call	 DWORD PTR __imp__Py_BuildValue
  00034	83 c4 10	 add	 esp, 16			; 00000010H

; 340  : }

  00037	c9		 leave
  00038	c3		 ret	 0
?systemGetCurrentResolution@@YAPAU_object@@PAU1@0@Z ENDP ; systemGetCurrentResolution
_TEXT	ENDS
; Function compile flags: /Odspy
; File D:\Metin2 Server Files\mainline\SRC_2014\Metin2Client\UserInterface\PythonSystemModule.cpp
;	COMDAT ?systemGetResolution@@YAPAU_object@@PAU1@0@Z
_TEXT	SEGMENT
_index$ = -16						; size = 4
_width$ = -12						; size = 4
_height$ = -8						; size = 4
_bpp$ = -4						; size = 4
_poSelf$ = 8						; size = 4
_poArgs$ = 12						; size = 4
?systemGetResolution@@YAPAU_object@@PAU1@0@Z PROC	; systemGetResolution, COMDAT

; 325  : {

  00000	55		 push	 ebp
  00001	8b ec		 mov	 ebp, esp
  00003	83 ec 10	 sub	 esp, 16			; 00000010H

; 326  : 	int	index;
; 327  : 	DWORD width = 0, height = 0, bpp = 0;

  00006	83 65 f4 00	 and	 DWORD PTR _width$[ebp], 0
  0000a	83 65 f8 00	 and	 DWORD PTR _height$[ebp], 0
  0000e	83 65 fc 00	 and	 DWORD PTR _bpp$[ebp], 0

; 328  : 
; 329  : 	if (!PyTuple_GetInteger(poArgs, 0, &index))

  00012	8d 45 f0	 lea	 eax, DWORD PTR _index$[ebp]
  00015	50		 push	 eax
  00016	6a 00		 push	 0
  00018	ff 75 0c	 push	 DWORD PTR _poArgs$[ebp]
  0001b	e8 00 00 00 00	 call	 ?PyTuple_GetInteger@@YA_NPAU_object@@HPAH@Z ; PyTuple_GetInteger
  00020	83 c4 0c	 add	 esp, 12			; 0000000cH
  00023	0f b6 c0	 movzx	 eax, al
  00026	85 c0		 test	 eax, eax
  00028	75 0a		 jne	 SHORT $LN4@systemGetR

; 330  : 		return Py_BuildException();

  0002a	6a 00		 push	 0
  0002c	e8 00 00 00 00	 call	 ?Py_BuildException@@YAPAU_object@@PBDZZ ; Py_BuildException
  00031	59		 pop	 ecx
  00032	eb 31		 jmp	 SHORT $LN1@systemGetR
$LN4@systemGetR:

; 331  : 
; 332  : 	CPythonSystem::Instance().GetResolution(index, &width, &height, &bpp);

  00034	8d 45 fc	 lea	 eax, DWORD PTR _bpp$[ebp]
  00037	50		 push	 eax
  00038	8d 45 f8	 lea	 eax, DWORD PTR _height$[ebp]
  0003b	50		 push	 eax
  0003c	8d 45 f4	 lea	 eax, DWORD PTR _width$[ebp]
  0003f	50		 push	 eax
  00040	ff 75 f0	 push	 DWORD PTR _index$[ebp]
  00043	8b 0d 00 00 00
	00		 mov	 ecx, DWORD PTR ?ms_singleton@?$CSingleton@VCPythonSystem@@@@0PAVCPythonSystem@@A ; CSingleton<CPythonSystem>::ms_singleton
  00049	e8 00 00 00 00	 call	 ?GetResolution@CPythonSystem@@QAE_NHPAK00@Z ; CPythonSystem::GetResolution

; 333  : 	return Py_BuildValue("iii", width, height, bpp);

  0004e	ff 75 fc	 push	 DWORD PTR _bpp$[ebp]
  00051	ff 75 f8	 push	 DWORD PTR _height$[ebp]
  00054	ff 75 f4	 push	 DWORD PTR _width$[ebp]
  00057	68 00 00 00 00	 push	 OFFSET ??_C@_03GLKMLICL@iii@
  0005c	ff 15 00 00 00
	00		 call	 DWORD PTR __imp__Py_BuildValue
  00062	83 c4 10	 add	 esp, 16			; 00000010H
$LN1@systemGetR:

; 334  : }

  00065	c9		 leave
  00066	c3		 ret	 0
?systemGetResolution@@YAPAU_object@@PAU1@0@Z ENDP	; systemGetResolution
_TEXT	ENDS
; Function compile flags: /Odspy
; File D:\Metin2 Server Files\mainline\SRC_2014\Metin2Client\UserInterface\PythonSystemModule.cpp
; File D:\Metin2 Server Files\mainline\SRC_2014\Metin2Client\eterBase\Singleton.h
; File D:\Metin2 Server Files\mainline\SRC_2014\Metin2Client\UserInterface\PythonSystemModule.cpp
;	COMDAT ?systemGetFrequencyCount@@YAPAU_object@@PAU1@0@Z
_TEXT	SEGMENT
$T1 = -8						; size = 4
_index$ = -4						; size = 4
_poSelf$ = 8						; size = 4
_poArgs$ = 12						; size = 4
?systemGetFrequencyCount@@YAPAU_object@@PAU1@0@Z PROC	; systemGetFrequencyCount, COMDAT

; 315  : {

  00000	55		 push	 ebp
  00001	8b ec		 mov	 ebp, esp
  00003	51		 push	 ecx
  00004	51		 push	 ecx

; 316  : 	int	index;
; 317  : 
; 318  : 	if (!PyTuple_GetInteger(poArgs, 0, &index))

  00005	8d 45 fc	 lea	 eax, DWORD PTR _index$[ebp]
  00008	50		 push	 eax
  00009	6a 00		 push	 0
  0000b	ff 75 0c	 push	 DWORD PTR _poArgs$[ebp]
  0000e	e8 00 00 00 00	 call	 ?PyTuple_GetInteger@@YA_NPAU_object@@HPAH@Z ; PyTuple_GetInteger
  00013	83 c4 0c	 add	 esp, 12			; 0000000cH
  00016	0f b6 c0	 movzx	 eax, al
  00019	85 c0		 test	 eax, eax
  0001b	75 0a		 jne	 SHORT $LN2@systemGetF

; 319  : 		return Py_BuildException();

  0001d	6a 00		 push	 0
  0001f	e8 00 00 00 00	 call	 ?Py_BuildException@@YAPAU_object@@PBDZZ ; Py_BuildException
  00024	59		 pop	 ecx
  00025	eb 21		 jmp	 SHORT $LN1@systemGetF
$LN2@systemGetF:
; File D:\Metin2 Server Files\mainline\SRC_2014\Metin2Client\eterBase\Singleton.h

; 27   : 		return (*ms_singleton);

  00027	a1 00 00 00 00	 mov	 eax, DWORD PTR ?ms_singleton@?$CSingleton@VCPythonSystem@@@@0PAVCPythonSystem@@A ; CSingleton<CPythonSystem>::ms_singleton
  0002c	89 45 f8	 mov	 DWORD PTR $T1[ebp], eax
; File D:\Metin2 Server Files\mainline\SRC_2014\Metin2Client\UserInterface\PythonSystemModule.cpp

; 321  : 	return Py_BuildValue("i", CPythonSystem::Instance().GetFrequencyCount(index));

  0002f	ff 75 fc	 push	 DWORD PTR _index$[ebp]
  00032	8b 4d f8	 mov	 ecx, DWORD PTR $T1[ebp]
  00035	e8 00 00 00 00	 call	 ?GetFrequencyCount@CPythonSystem@@QAEHH@Z ; CPythonSystem::GetFrequencyCount
  0003a	50		 push	 eax
  0003b	68 00 00 00 00	 push	 OFFSET ??_C@_01KBJDNOO@i@
  00040	ff 15 00 00 00
	00		 call	 DWORD PTR __imp__Py_BuildValue
  00046	59		 pop	 ecx
  00047	59		 pop	 ecx
$LN1@systemGetF:

; 322  : }

  00048	c9		 leave
  00049	c3		 ret	 0
?systemGetFrequencyCount@@YAPAU_object@@PAU1@0@Z ENDP	; systemGetFrequencyCount
_TEXT	ENDS
; Function compile flags: /Odspy
; File D:\Metin2 Server Files\mainline\SRC_2014\Metin2Client\UserInterface\PythonSystemModule.cpp
; File D:\Metin2 Server Files\mainline\SRC_2014\Metin2Client\eterBase\Singleton.h
; File D:\Metin2 Server Files\mainline\SRC_2014\Metin2Client\UserInterface\PythonSystemModule.cpp
;	COMDAT ?systemGetResolutionCount@@YAPAU_object@@PAU1@0@Z
_TEXT	SEGMENT
$T1 = -4						; size = 4
_poSelf$ = 8						; size = 4
_poArgs$ = 12						; size = 4
?systemGetResolutionCount@@YAPAU_object@@PAU1@0@Z PROC	; systemGetResolutionCount, COMDAT

; 310  : {

  00000	55		 push	 ebp
  00001	8b ec		 mov	 ebp, esp
  00003	51		 push	 ecx
; File D:\Metin2 Server Files\mainline\SRC_2014\Metin2Client\eterBase\Singleton.h

; 27   : 		return (*ms_singleton);

  00004	a1 00 00 00 00	 mov	 eax, DWORD PTR ?ms_singleton@?$CSingleton@VCPythonSystem@@@@0PAVCPythonSystem@@A ; CSingleton<CPythonSystem>::ms_singleton
  00009	89 45 fc	 mov	 DWORD PTR $T1[ebp], eax
; File D:\Metin2 Server Files\mainline\SRC_2014\Metin2Client\UserInterface\PythonSystemModule.cpp

; 311  : 	return Py_BuildValue("i", CPythonSystem::Instance().GetResolutionCount());

  0000c	8b 4d fc	 mov	 ecx, DWORD PTR $T1[ebp]
  0000f	e8 00 00 00 00	 call	 ?GetResolutionCount@CPythonSystem@@QAEHXZ ; CPythonSystem::GetResolutionCount
  00014	50		 push	 eax
  00015	68 00 00 00 00	 push	 OFFSET ??_C@_01KBJDNOO@i@
  0001a	ff 15 00 00 00
	00		 call	 DWORD PTR __imp__Py_BuildValue
  00020	59		 pop	 ecx
  00021	59		 pop	 ecx

; 312  : }

  00022	c9		 leave
  00023	c3		 ret	 0
?systemGetResolutionCount@@YAPAU_object@@PAU1@0@Z ENDP	; systemGetResolutionCount
_TEXT	ENDS
; Function compile flags: /Odspy
; File D:\Metin2 Server Files\mainline\SRC_2014\Metin2Client\UserInterface\PythonSystemModule.cpp
; File D:\Metin2 Server Files\mainline\SRC_2014\Metin2Client\eterBase\Singleton.h
; File D:\Metin2 Server Files\mainline\SRC_2014\Metin2Client\UserInterface\PythonSystemModule.cpp
;	COMDAT ?systemSaveConfig@@YAPAU_object@@PAU1@0@Z
_TEXT	SEGMENT
_ret$ = -8						; size = 4
$T1 = -4						; size = 4
_poSelf$ = 8						; size = 4
_poArgs$ = 12						; size = 4
?systemSaveConfig@@YAPAU_object@@PAU1@0@Z PROC		; systemSaveConfig, COMDAT

; 304  : {

  00000	55		 push	 ebp
  00001	8b ec		 mov	 ebp, esp
  00003	51		 push	 ecx
  00004	51		 push	 ecx
; File D:\Metin2 Server Files\mainline\SRC_2014\Metin2Client\eterBase\Singleton.h

; 27   : 		return (*ms_singleton);

  00005	a1 00 00 00 00	 mov	 eax, DWORD PTR ?ms_singleton@?$CSingleton@VCPythonSystem@@@@0PAVCPythonSystem@@A ; CSingleton<CPythonSystem>::ms_singleton
  0000a	89 45 fc	 mov	 DWORD PTR $T1[ebp], eax
; File D:\Metin2 Server Files\mainline\SRC_2014\Metin2Client\UserInterface\PythonSystemModule.cpp

; 305  : 	int ret = CPythonSystem::Instance().SaveConfig();

  0000d	8b 4d fc	 mov	 ecx, DWORD PTR $T1[ebp]
  00010	e8 00 00 00 00	 call	 ?SaveConfig@CPythonSystem@@QAE_NXZ ; CPythonSystem::SaveConfig
  00015	0f b6 c0	 movzx	 eax, al
  00018	89 45 f8	 mov	 DWORD PTR _ret$[ebp], eax

; 306  : 	return Py_BuildValue("i", ret);

  0001b	ff 75 f8	 push	 DWORD PTR _ret$[ebp]
  0001e	68 00 00 00 00	 push	 OFFSET ??_C@_01KBJDNOO@i@
  00023	ff 15 00 00 00
	00		 call	 DWORD PTR __imp__Py_BuildValue
  00029	59		 pop	 ecx
  0002a	59		 pop	 ecx

; 307  : }

  0002b	c9		 leave
  0002c	c3		 ret	 0
?systemSaveConfig@@YAPAU_object@@PAU1@0@Z ENDP		; systemSaveConfig
_TEXT	ENDS
; Function compile flags: /Odspy
; File D:\Metin2 Server Files\mainline\SRC_2014\Metin2Client\UserInterface\PythonSystemModule.cpp
;	COMDAT ?systemApplyConfig@@YAPAU_object@@PAU1@0@Z
_TEXT	SEGMENT
_poSelf$ = 8						; size = 4
_poArgs$ = 12						; size = 4
?systemApplyConfig@@YAPAU_object@@PAU1@0@Z PROC		; systemApplyConfig, COMDAT

; 298  : {

  00000	55		 push	 ebp
  00001	8b ec		 mov	 ebp, esp

; 299  : 	CPythonSystem::Instance().ApplyConfig();

  00003	8b 0d 00 00 00
	00		 mov	 ecx, DWORD PTR ?ms_singleton@?$CSingleton@VCPythonSystem@@@@0PAVCPythonSystem@@A ; CSingleton<CPythonSystem>::ms_singleton
  00009	e8 00 00 00 00	 call	 ?ApplyConfig@CPythonSystem@@QAEXXZ ; CPythonSystem::ApplyConfig

; 300  : 	return Py_BuildNone();

  0000e	e8 00 00 00 00	 call	 ?Py_BuildNone@@YAPAU_object@@XZ ; Py_BuildNone

; 301  : }

  00013	5d		 pop	 ebp
  00014	c3		 ret	 0
?systemApplyConfig@@YAPAU_object@@PAU1@0@Z ENDP		; systemApplyConfig
_TEXT	ENDS
; Function compile flags: /Odspy
; File D:\Metin2 Server Files\mainline\SRC_2014\Metin2Client\UserInterface\PythonSystemModule.cpp
; File D:\Metin2 Server Files\mainline\SRC_2014\Metin2Client\eterBase\Singleton.h
; File D:\Metin2 Server Files\mainline\SRC_2014\Metin2Client\UserInterface\PythonSystemModule.cpp
; File D:\Metin2 Server Files\mainline\SRC_2014\Metin2Client\eterBase\Singleton.h
; File D:\Metin2 Server Files\mainline\SRC_2014\Metin2Client\UserInterface\PythonSystemModule.cpp
; File D:\Metin2 Server Files\mainline\SRC_2014\Metin2Client\eterBase\Singleton.h
; File D:\Metin2 Server Files\mainline\SRC_2014\Metin2Client\UserInterface\PythonSystemModule.cpp
;	COMDAT ?systemSetConfig@@YAPAU_object@@PAU1@0@Z
_TEXT	SEGMENT
_shadow$ = -36						; size = 4
_distance$ = -32					; size = 4
_gamma$ = -28						; size = 4
_voice_volume$ = -24					; size = 4
_music_volume$ = -20					; size = 4
_object_culling$ = -16					; size = 4
_software_cursor$ = -12					; size = 4
_frequency$ = -8					; size = 4
_bpp$ = -4						; size = 4
_height$ = 0						; size = 4
_width$ = 4						; size = 4
$T1 = 8							; size = 4
$T2 = 12						; size = 4
_frequency_index$ = 16					; size = 4
$T3 = 20						; size = 4
_res_index$ = 24					; size = 4
tv196 = 30						; size = 1
tv194 = 31						; size = 1
_tmp$ = 32						; size = 76
__$ArrayPad$ = 108					; size = 4
_poSelf$ = 120						; size = 4
_poArgs$ = 124						; size = 4
?systemSetConfig@@YAPAU_object@@PAU1@0@Z PROC		; systemSetConfig, COMDAT

; 230  : {

  00000	55		 push	 ebp
  00001	8d 6c 24 90	 lea	 ebp, DWORD PTR [esp-112]
  00005	81 ec 94 00 00
	00		 sub	 esp, 148		; 00000094H
  0000b	a1 00 00 00 00	 mov	 eax, DWORD PTR ___security_cookie
  00010	33 c5		 xor	 eax, ebp
  00012	89 45 6c	 mov	 DWORD PTR __$ArrayPad$[ebp], eax

; 231  : 	int res_index;
; 232  : 	int width;
; 233  : 	int height;
; 234  : 	int bpp;
; 235  : 	int frequency_index;
; 236  : 	int frequency;
; 237  : 	int software_cursor;
; 238  : 	int shadow;
; 239  : 	int object_culling;
; 240  : 	int music_volume;
; 241  : 	int voice_volume;
; 242  : 	int gamma;
; 243  : 	int distance;
; 244  : 
; 245  : 	if (!PyTuple_GetInteger(poArgs, 0, &res_index))

  00015	8d 45 18	 lea	 eax, DWORD PTR _res_index$[ebp]
  00018	50		 push	 eax
  00019	6a 00		 push	 0
  0001b	ff 75 7c	 push	 DWORD PTR _poArgs$[ebp]
  0001e	e8 00 00 00 00	 call	 ?PyTuple_GetInteger@@YA_NPAU_object@@HPAH@Z ; PyTuple_GetInteger
  00023	83 c4 0c	 add	 esp, 12			; 0000000cH
  00026	0f b6 c0	 movzx	 eax, al
  00029	85 c0		 test	 eax, eax
  0002b	75 0d		 jne	 SHORT $LN2@systemSetC

; 246  : 		return Py_BuildException();

  0002d	6a 00		 push	 0
  0002f	e8 00 00 00 00	 call	 ?Py_BuildException@@YAPAU_object@@PBDZZ ; Py_BuildException
  00034	59		 pop	 ecx
  00035	e9 19 02 00 00	 jmp	 $LN1@systemSetC
$LN2@systemSetC:

; 247  : 
; 248  : 	if (!PyTuple_GetInteger(poArgs, 1, &frequency_index))

  0003a	8d 45 10	 lea	 eax, DWORD PTR _frequency_index$[ebp]
  0003d	50		 push	 eax
  0003e	6a 01		 push	 1
  00040	ff 75 7c	 push	 DWORD PTR _poArgs$[ebp]
  00043	e8 00 00 00 00	 call	 ?PyTuple_GetInteger@@YA_NPAU_object@@HPAH@Z ; PyTuple_GetInteger
  00048	83 c4 0c	 add	 esp, 12			; 0000000cH
  0004b	0f b6 c0	 movzx	 eax, al
  0004e	85 c0		 test	 eax, eax
  00050	75 0d		 jne	 SHORT $LN3@systemSetC

; 249  : 		return Py_BuildException();

  00052	6a 00		 push	 0
  00054	e8 00 00 00 00	 call	 ?Py_BuildException@@YAPAU_object@@PBDZZ ; Py_BuildException
  00059	59		 pop	 ecx
  0005a	e9 f4 01 00 00	 jmp	 $LN1@systemSetC
$LN3@systemSetC:

; 250  : 
; 251  : 	if (!PyTuple_GetInteger(poArgs, 2, &software_cursor))

  0005f	8d 45 f4	 lea	 eax, DWORD PTR _software_cursor$[ebp]
  00062	50		 push	 eax
  00063	6a 02		 push	 2
  00065	ff 75 7c	 push	 DWORD PTR _poArgs$[ebp]
  00068	e8 00 00 00 00	 call	 ?PyTuple_GetInteger@@YA_NPAU_object@@HPAH@Z ; PyTuple_GetInteger
  0006d	83 c4 0c	 add	 esp, 12			; 0000000cH
  00070	0f b6 c0	 movzx	 eax, al
  00073	85 c0		 test	 eax, eax
  00075	75 0d		 jne	 SHORT $LN4@systemSetC

; 252  : 		return Py_BuildException();

  00077	6a 00		 push	 0
  00079	e8 00 00 00 00	 call	 ?Py_BuildException@@YAPAU_object@@PBDZZ ; Py_BuildException
  0007e	59		 pop	 ecx
  0007f	e9 cf 01 00 00	 jmp	 $LN1@systemSetC
$LN4@systemSetC:

; 253  : 
; 254  : 	if (!PyTuple_GetInteger(poArgs, 3, &shadow))

  00084	8d 45 dc	 lea	 eax, DWORD PTR _shadow$[ebp]
  00087	50		 push	 eax
  00088	6a 03		 push	 3
  0008a	ff 75 7c	 push	 DWORD PTR _poArgs$[ebp]
  0008d	e8 00 00 00 00	 call	 ?PyTuple_GetInteger@@YA_NPAU_object@@HPAH@Z ; PyTuple_GetInteger
  00092	83 c4 0c	 add	 esp, 12			; 0000000cH
  00095	0f b6 c0	 movzx	 eax, al
  00098	85 c0		 test	 eax, eax
  0009a	75 0d		 jne	 SHORT $LN5@systemSetC

; 255  : 		return Py_BuildException();

  0009c	6a 00		 push	 0
  0009e	e8 00 00 00 00	 call	 ?Py_BuildException@@YAPAU_object@@PBDZZ ; Py_BuildException
  000a3	59		 pop	 ecx
  000a4	e9 aa 01 00 00	 jmp	 $LN1@systemSetC
$LN5@systemSetC:

; 256  : 
; 257  : 	if (!PyTuple_GetInteger(poArgs, 4, &object_culling))

  000a9	8d 45 f0	 lea	 eax, DWORD PTR _object_culling$[ebp]
  000ac	50		 push	 eax
  000ad	6a 04		 push	 4
  000af	ff 75 7c	 push	 DWORD PTR _poArgs$[ebp]
  000b2	e8 00 00 00 00	 call	 ?PyTuple_GetInteger@@YA_NPAU_object@@HPAH@Z ; PyTuple_GetInteger
  000b7	83 c4 0c	 add	 esp, 12			; 0000000cH
  000ba	0f b6 c0	 movzx	 eax, al
  000bd	85 c0		 test	 eax, eax
  000bf	75 0d		 jne	 SHORT $LN6@systemSetC

; 258  : 		return Py_BuildException();

  000c1	6a 00		 push	 0
  000c3	e8 00 00 00 00	 call	 ?Py_BuildException@@YAPAU_object@@PBDZZ ; Py_BuildException
  000c8	59		 pop	 ecx
  000c9	e9 85 01 00 00	 jmp	 $LN1@systemSetC
$LN6@systemSetC:

; 259  : 
; 260  : 	if (!PyTuple_GetInteger(poArgs, 5, &music_volume))

  000ce	8d 45 ec	 lea	 eax, DWORD PTR _music_volume$[ebp]
  000d1	50		 push	 eax
  000d2	6a 05		 push	 5
  000d4	ff 75 7c	 push	 DWORD PTR _poArgs$[ebp]
  000d7	e8 00 00 00 00	 call	 ?PyTuple_GetInteger@@YA_NPAU_object@@HPAH@Z ; PyTuple_GetInteger
  000dc	83 c4 0c	 add	 esp, 12			; 0000000cH
  000df	0f b6 c0	 movzx	 eax, al
  000e2	85 c0		 test	 eax, eax
  000e4	75 0d		 jne	 SHORT $LN7@systemSetC

; 261  : 		return Py_BuildException();

  000e6	6a 00		 push	 0
  000e8	e8 00 00 00 00	 call	 ?Py_BuildException@@YAPAU_object@@PBDZZ ; Py_BuildException
  000ed	59		 pop	 ecx
  000ee	e9 60 01 00 00	 jmp	 $LN1@systemSetC
$LN7@systemSetC:

; 262  : 
; 263  : 	if (!PyTuple_GetInteger(poArgs, 6, &voice_volume))

  000f3	8d 45 e8	 lea	 eax, DWORD PTR _voice_volume$[ebp]
  000f6	50		 push	 eax
  000f7	6a 06		 push	 6
  000f9	ff 75 7c	 push	 DWORD PTR _poArgs$[ebp]
  000fc	e8 00 00 00 00	 call	 ?PyTuple_GetInteger@@YA_NPAU_object@@HPAH@Z ; PyTuple_GetInteger
  00101	83 c4 0c	 add	 esp, 12			; 0000000cH
  00104	0f b6 c0	 movzx	 eax, al
  00107	85 c0		 test	 eax, eax
  00109	75 0d		 jne	 SHORT $LN8@systemSetC

; 264  : 		return Py_BuildException();

  0010b	6a 00		 push	 0
  0010d	e8 00 00 00 00	 call	 ?Py_BuildException@@YAPAU_object@@PBDZZ ; Py_BuildException
  00112	59		 pop	 ecx
  00113	e9 3b 01 00 00	 jmp	 $LN1@systemSetC
$LN8@systemSetC:

; 265  : 
; 266  : 	if (!PyTuple_GetInteger(poArgs, 7, &gamma))

  00118	8d 45 e4	 lea	 eax, DWORD PTR _gamma$[ebp]
  0011b	50		 push	 eax
  0011c	6a 07		 push	 7
  0011e	ff 75 7c	 push	 DWORD PTR _poArgs$[ebp]
  00121	e8 00 00 00 00	 call	 ?PyTuple_GetInteger@@YA_NPAU_object@@HPAH@Z ; PyTuple_GetInteger
  00126	83 c4 0c	 add	 esp, 12			; 0000000cH
  00129	0f b6 c0	 movzx	 eax, al
  0012c	85 c0		 test	 eax, eax
  0012e	75 0d		 jne	 SHORT $LN9@systemSetC

; 267  : 		return Py_BuildException();

  00130	6a 00		 push	 0
  00132	e8 00 00 00 00	 call	 ?Py_BuildException@@YAPAU_object@@PBDZZ ; Py_BuildException
  00137	59		 pop	 ecx
  00138	e9 16 01 00 00	 jmp	 $LN1@systemSetC
$LN9@systemSetC:

; 268  : 
; 269  : 	if (!PyTuple_GetInteger(poArgs, 8, &distance))

  0013d	8d 45 e0	 lea	 eax, DWORD PTR _distance$[ebp]
  00140	50		 push	 eax
  00141	6a 08		 push	 8
  00143	ff 75 7c	 push	 DWORD PTR _poArgs$[ebp]
  00146	e8 00 00 00 00	 call	 ?PyTuple_GetInteger@@YA_NPAU_object@@HPAH@Z ; PyTuple_GetInteger
  0014b	83 c4 0c	 add	 esp, 12			; 0000000cH
  0014e	0f b6 c0	 movzx	 eax, al
  00151	85 c0		 test	 eax, eax
  00153	75 0d		 jne	 SHORT $LN10@systemSetC

; 270  : 		return Py_BuildException();

  00155	6a 00		 push	 0
  00157	e8 00 00 00 00	 call	 ?Py_BuildException@@YAPAU_object@@PBDZZ ; Py_BuildException
  0015c	59		 pop	 ecx
  0015d	e9 f1 00 00 00	 jmp	 $LN1@systemSetC
$LN10@systemSetC:
; File D:\Metin2 Server Files\mainline\SRC_2014\Metin2Client\eterBase\Singleton.h

; 27   : 		return (*ms_singleton);

  00162	a1 00 00 00 00	 mov	 eax, DWORD PTR ?ms_singleton@?$CSingleton@VCPythonSystem@@@@0PAVCPythonSystem@@A ; CSingleton<CPythonSystem>::ms_singleton
  00167	89 45 14	 mov	 DWORD PTR $T3[ebp], eax
; File D:\Metin2 Server Files\mainline\SRC_2014\Metin2Client\UserInterface\PythonSystemModule.cpp

; 272  : 	if (!CPythonSystem::Instance().GetResolution(res_index, (DWORD *) &width, (DWORD *) &height, (DWORD *) &bpp))

  0016a	8d 45 fc	 lea	 eax, DWORD PTR _bpp$[ebp]
  0016d	50		 push	 eax
  0016e	8d 45 00	 lea	 eax, DWORD PTR _height$[ebp]
  00171	50		 push	 eax
  00172	8d 45 04	 lea	 eax, DWORD PTR _width$[ebp]
  00175	50		 push	 eax
  00176	ff 75 18	 push	 DWORD PTR _res_index$[ebp]
  00179	8b 4d 14	 mov	 ecx, DWORD PTR $T3[ebp]
  0017c	e8 00 00 00 00	 call	 ?GetResolution@CPythonSystem@@QAE_NHPAK00@Z ; CPythonSystem::GetResolution
  00181	0f b6 c0	 movzx	 eax, al
  00184	85 c0		 test	 eax, eax
  00186	75 0a		 jne	 SHORT $LN11@systemSetC

; 273  : 		return Py_BuildNone();

  00188	e8 00 00 00 00	 call	 ?Py_BuildNone@@YAPAU_object@@XZ ; Py_BuildNone
  0018d	e9 c1 00 00 00	 jmp	 $LN1@systemSetC
$LN11@systemSetC:
; File D:\Metin2 Server Files\mainline\SRC_2014\Metin2Client\eterBase\Singleton.h

; 27   : 		return (*ms_singleton);

  00192	a1 00 00 00 00	 mov	 eax, DWORD PTR ?ms_singleton@?$CSingleton@VCPythonSystem@@@@0PAVCPythonSystem@@A ; CSingleton<CPythonSystem>::ms_singleton
  00197	89 45 0c	 mov	 DWORD PTR $T2[ebp], eax
; File D:\Metin2 Server Files\mainline\SRC_2014\Metin2Client\UserInterface\PythonSystemModule.cpp

; 275  : 	if (!CPythonSystem::Instance().GetFrequency(res_index,frequency_index, (DWORD *) &frequency))

  0019a	8d 45 f8	 lea	 eax, DWORD PTR _frequency$[ebp]
  0019d	50		 push	 eax
  0019e	ff 75 10	 push	 DWORD PTR _frequency_index$[ebp]
  001a1	ff 75 18	 push	 DWORD PTR _res_index$[ebp]
  001a4	8b 4d 0c	 mov	 ecx, DWORD PTR $T2[ebp]
  001a7	e8 00 00 00 00	 call	 ?GetFrequency@CPythonSystem@@QAE_NHHPAK@Z ; CPythonSystem::GetFrequency
  001ac	0f b6 c0	 movzx	 eax, al
  001af	85 c0		 test	 eax, eax
  001b1	75 0a		 jne	 SHORT $LN12@systemSetC

; 276  : 		return Py_BuildNone();

  001b3	e8 00 00 00 00	 call	 ?Py_BuildNone@@YAPAU_object@@XZ ; Py_BuildNone
  001b8	e9 96 00 00 00	 jmp	 $LN1@systemSetC
$LN12@systemSetC:
; File D:\Metin2 Server Files\mainline\SRC_2014\Metin2Client\eterBase\Singleton.h

; 27   : 		return (*ms_singleton);

  001bd	a1 00 00 00 00	 mov	 eax, DWORD PTR ?ms_singleton@?$CSingleton@VCPythonSystem@@@@0PAVCPythonSystem@@A ; CSingleton<CPythonSystem>::ms_singleton
  001c2	89 45 08	 mov	 DWORD PTR $T1[ebp], eax
; File D:\Metin2 Server Files\mainline\SRC_2014\Metin2Client\UserInterface\PythonSystemModule.cpp

; 280  : 	memcpy(&tmp, CPythonSystem::Instance().GetConfig(), sizeof(tmp));

  001c5	6a 4c		 push	 76			; 0000004cH
  001c7	8b 4d 08	 mov	 ecx, DWORD PTR $T1[ebp]
  001ca	e8 00 00 00 00	 call	 ?GetConfig@CPythonSystem@@QAEPAUSConfig@1@XZ ; CPythonSystem::GetConfig
  001cf	50		 push	 eax
  001d0	8d 45 20	 lea	 eax, DWORD PTR _tmp$[ebp]
  001d3	50		 push	 eax
  001d4	e8 00 00 00 00	 call	 _memcpy
  001d9	83 c4 0c	 add	 esp, 12			; 0000000cH

; 281  : 
; 282  : 	tmp.width				= width;

  001dc	8b 45 04	 mov	 eax, DWORD PTR _width$[ebp]
  001df	89 45 20	 mov	 DWORD PTR _tmp$[ebp], eax

; 283  : 	tmp.height				= height;

  001e2	8b 45 00	 mov	 eax, DWORD PTR _height$[ebp]
  001e5	89 45 24	 mov	 DWORD PTR _tmp$[ebp+4], eax

; 284  : 	tmp.bpp					= bpp;

  001e8	8b 45 fc	 mov	 eax, DWORD PTR _bpp$[ebp]
  001eb	89 45 28	 mov	 DWORD PTR _tmp$[ebp+8], eax

; 285  : 	tmp.frequency			= frequency;

  001ee	8b 45 f8	 mov	 eax, DWORD PTR _frequency$[ebp]
  001f1	89 45 2c	 mov	 DWORD PTR _tmp$[ebp+12], eax

; 286  : 	tmp.is_software_cursor	= software_cursor ? true : false;

  001f4	83 7d f4 00	 cmp	 DWORD PTR _software_cursor$[ebp], 0
  001f8	74 06		 je	 SHORT $LN14@systemSetC
  001fa	c6 45 1f 01	 mov	 BYTE PTR tv194[ebp], 1
  001fe	eb 04		 jmp	 SHORT $LN15@systemSetC
$LN14@systemSetC:
  00200	c6 45 1f 00	 mov	 BYTE PTR tv194[ebp], 0
$LN15@systemSetC:
  00204	8a 45 1f	 mov	 al, BYTE PTR tv194[ebp]
  00207	88 45 30	 mov	 BYTE PTR _tmp$[ebp+16], al

; 287  : 	tmp.is_object_culling	= object_culling ? true : false;

  0020a	83 7d f0 00	 cmp	 DWORD PTR _object_culling$[ebp], 0
  0020e	74 06		 je	 SHORT $LN16@systemSetC
  00210	c6 45 1e 01	 mov	 BYTE PTR tv196[ebp], 1
  00214	eb 04		 jmp	 SHORT $LN17@systemSetC
$LN16@systemSetC:
  00216	c6 45 1e 00	 mov	 BYTE PTR tv196[ebp], 0
$LN17@systemSetC:
  0021a	8a 45 1e	 mov	 al, BYTE PTR tv196[ebp]
  0021d	88 45 31	 mov	 BYTE PTR _tmp$[ebp+17], al

; 288  : 	tmp.music_volume		= (char) music_volume;

  00220	0f be 45 ec	 movsx	 eax, BYTE PTR _music_volume$[ebp]
  00224	f3 0f 2a c0	 cvtsi2ss xmm0, eax
  00228	f3 0f 11 45 3c	 movss	 DWORD PTR _tmp$[ebp+28], xmm0

; 289  : 	tmp.voice_volume		= (char) voice_volume;

  0022d	8a 45 e8	 mov	 al, BYTE PTR _voice_volume$[ebp]
  00230	88 45 40	 mov	 BYTE PTR _tmp$[ebp+32], al

; 290  : 	tmp.gamma				= gamma;

  00233	8b 45 e4	 mov	 eax, DWORD PTR _gamma$[ebp]
  00236	89 45 44	 mov	 DWORD PTR _tmp$[ebp+36], eax

; 291  : 	tmp.iDistance			= distance;

  00239	8b 45 e0	 mov	 eax, DWORD PTR _distance$[ebp]
  0023c	89 45 34	 mov	 DWORD PTR _tmp$[ebp+20], eax

; 292  : 
; 293  : 	CPythonSystem::Instance().SetConfig(&tmp);

  0023f	8d 45 20	 lea	 eax, DWORD PTR _tmp$[ebp]
  00242	50		 push	 eax
  00243	8b 0d 00 00 00
	00		 mov	 ecx, DWORD PTR ?ms_singleton@?$CSingleton@VCPythonSystem@@@@0PAVCPythonSystem@@A ; CSingleton<CPythonSystem>::ms_singleton
  00249	e8 00 00 00 00	 call	 ?SetConfig@CPythonSystem@@QAEXPAUSConfig@1@@Z ; CPythonSystem::SetConfig

; 294  : 	return Py_BuildNone();

  0024e	e8 00 00 00 00	 call	 ?Py_BuildNone@@YAPAU_object@@XZ ; Py_BuildNone
$LN1@systemSetC:

; 295  : }

  00253	8b 4d 6c	 mov	 ecx, DWORD PTR __$ArrayPad$[ebp]
  00256	33 cd		 xor	 ecx, ebp
  00258	e8 00 00 00 00	 call	 @__security_check_cookie@4
  0025d	83 c5 70	 add	 ebp, 112		; 00000070H
  00260	c9		 leave
  00261	c3		 ret	 0
?systemSetConfig@@YAPAU_object@@PAU1@0@Z ENDP		; systemSetConfig
_TEXT	ENDS
; Function compile flags: /Odspy
; File D:\Metin2 Server Files\mainline\SRC_2014\Metin2Client\UserInterface\PythonSystemModule.cpp
; File D:\Metin2 Server Files\mainline\SRC_2014\Metin2Client\eterBase\Singleton.h
; File D:\Metin2 Server Files\mainline\SRC_2014\Metin2Client\UserInterface\PythonSystemModule.cpp
;	COMDAT ?systemIsShowSalesText@@YAPAU_object@@PAU1@0@Z
_TEXT	SEGMENT
$T1 = -4						; size = 4
_poSelf$ = 8						; size = 4
_poArgs$ = 12						; size = 4
?systemIsShowSalesText@@YAPAU_object@@PAU1@0@Z PROC	; systemIsShowSalesText, COMDAT

; 225  : {

  00000	55		 push	 ebp
  00001	8b ec		 mov	 ebp, esp
  00003	51		 push	 ecx
; File D:\Metin2 Server Files\mainline\SRC_2014\Metin2Client\eterBase\Singleton.h

; 27   : 		return (*ms_singleton);

  00004	a1 00 00 00 00	 mov	 eax, DWORD PTR ?ms_singleton@?$CSingleton@VCPythonSystem@@@@0PAVCPythonSystem@@A ; CSingleton<CPythonSystem>::ms_singleton
  00009	89 45 fc	 mov	 DWORD PTR $T1[ebp], eax
; File D:\Metin2 Server Files\mainline\SRC_2014\Metin2Client\UserInterface\PythonSystemModule.cpp

; 226  : 	return Py_BuildValue("i", CPythonSystem::Instance().IsShowSalesText());

  0000c	8b 4d fc	 mov	 ecx, DWORD PTR $T1[ebp]
  0000f	e8 00 00 00 00	 call	 ?IsShowSalesText@CPythonSystem@@QAE_NXZ ; CPythonSystem::IsShowSalesText
  00014	0f b6 c0	 movzx	 eax, al
  00017	50		 push	 eax
  00018	68 00 00 00 00	 push	 OFFSET ??_C@_01KBJDNOO@i@
  0001d	ff 15 00 00 00
	00		 call	 DWORD PTR __imp__Py_BuildValue
  00023	59		 pop	 ecx
  00024	59		 pop	 ecx

; 227  : }

  00025	c9		 leave
  00026	c3		 ret	 0
?systemIsShowSalesText@@YAPAU_object@@PAU1@0@Z ENDP	; systemIsShowSalesText
_TEXT	ENDS
; Function compile flags: /Odspy
; File D:\Metin2 Server Files\mainline\SRC_2014\Metin2Client\UserInterface\PythonSystemModule.cpp
; File D:\Metin2 Server Files\mainline\SRC_2014\Metin2Client\eterBase\Singleton.h
; File D:\Metin2 Server Files\mainline\SRC_2014\Metin2Client\UserInterface\PythonSystemModule.cpp
;	COMDAT ?systemIsShowDamage@@YAPAU_object@@PAU1@0@Z
_TEXT	SEGMENT
$T1 = -4						; size = 4
_poSelf$ = 8						; size = 4
_poArgs$ = 12						; size = 4
?systemIsShowDamage@@YAPAU_object@@PAU1@0@Z PROC	; systemIsShowDamage, COMDAT

; 220  : {

  00000	55		 push	 ebp
  00001	8b ec		 mov	 ebp, esp
  00003	51		 push	 ecx
; File D:\Metin2 Server Files\mainline\SRC_2014\Metin2Client\eterBase\Singleton.h

; 27   : 		return (*ms_singleton);

  00004	a1 00 00 00 00	 mov	 eax, DWORD PTR ?ms_singleton@?$CSingleton@VCPythonSystem@@@@0PAVCPythonSystem@@A ; CSingleton<CPythonSystem>::ms_singleton
  00009	89 45 fc	 mov	 DWORD PTR $T1[ebp], eax
; File D:\Metin2 Server Files\mainline\SRC_2014\Metin2Client\UserInterface\PythonSystemModule.cpp

; 221  : 	return Py_BuildValue("i", CPythonSystem::Instance().IsShowDamage());

  0000c	8b 4d fc	 mov	 ecx, DWORD PTR $T1[ebp]
  0000f	e8 00 00 00 00	 call	 ?IsShowDamage@CPythonSystem@@QAE_NXZ ; CPythonSystem::IsShowDamage
  00014	0f b6 c0	 movzx	 eax, al
  00017	50		 push	 eax
  00018	68 00 00 00 00	 push	 OFFSET ??_C@_01KBJDNOO@i@
  0001d	ff 15 00 00 00
	00		 call	 DWORD PTR __imp__Py_BuildValue
  00023	59		 pop	 ecx
  00024	59		 pop	 ecx

; 222  : }

  00025	c9		 leave
  00026	c3		 ret	 0
?systemIsShowDamage@@YAPAU_object@@PAU1@0@Z ENDP	; systemIsShowDamage
_TEXT	ENDS
; Function compile flags: /Odspy
; File D:\Metin2 Server Files\mainline\SRC_2014\Metin2Client\UserInterface\PythonSystemModule.cpp
; File D:\Metin2 Server Files\mainline\SRC_2014\Metin2Client\eterBase\Singleton.h
; File D:\Metin2 Server Files\mainline\SRC_2014\Metin2Client\UserInterface\PythonSystemModule.cpp
;	COMDAT ?systemIsAlwaysShowName@@YAPAU_object@@PAU1@0@Z
_TEXT	SEGMENT
$T1 = -4						; size = 4
_poSelf$ = 8						; size = 4
_poArgs$ = 12						; size = 4
?systemIsAlwaysShowName@@YAPAU_object@@PAU1@0@Z PROC	; systemIsAlwaysShowName, COMDAT

; 215  : {

  00000	55		 push	 ebp
  00001	8b ec		 mov	 ebp, esp
  00003	51		 push	 ecx
; File D:\Metin2 Server Files\mainline\SRC_2014\Metin2Client\eterBase\Singleton.h

; 27   : 		return (*ms_singleton);

  00004	a1 00 00 00 00	 mov	 eax, DWORD PTR ?ms_singleton@?$CSingleton@VCPythonSystem@@@@0PAVCPythonSystem@@A ; CSingleton<CPythonSystem>::ms_singleton
  00009	89 45 fc	 mov	 DWORD PTR $T1[ebp], eax
; File D:\Metin2 Server Files\mainline\SRC_2014\Metin2Client\UserInterface\PythonSystemModule.cpp

; 216  : 	return Py_BuildValue("i", CPythonSystem::Instance().IsAlwaysShowName());

  0000c	8b 4d fc	 mov	 ecx, DWORD PTR $T1[ebp]
  0000f	e8 00 00 00 00	 call	 ?IsAlwaysShowName@CPythonSystem@@QAE_NXZ ; CPythonSystem::IsAlwaysShowName
  00014	0f b6 c0	 movzx	 eax, al
  00017	50		 push	 eax
  00018	68 00 00 00 00	 push	 OFFSET ??_C@_01KBJDNOO@i@
  0001d	ff 15 00 00 00
	00		 call	 DWORD PTR __imp__Py_BuildValue
  00023	59		 pop	 ecx
  00024	59		 pop	 ecx

; 217  : }

  00025	c9		 leave
  00026	c3		 ret	 0
?systemIsAlwaysShowName@@YAPAU_object@@PAU1@0@Z ENDP	; systemIsAlwaysShowName
_TEXT	ENDS
; Function compile flags: /Odspy
; File D:\Metin2 Server Files\mainline\SRC_2014\Metin2Client\UserInterface\PythonSystemModule.cpp
;	COMDAT ?systemSetShowSalesTextFlag@@YAPAU_object@@PAU1@0@Z
_TEXT	SEGMENT
_iFlag$ = -4						; size = 4
_poSelf$ = 8						; size = 4
_poArgs$ = 12						; size = 4
?systemSetShowSalesTextFlag@@YAPAU_object@@PAU1@0@Z PROC ; systemSetShowSalesTextFlag, COMDAT

; 204  : {

  00000	55		 push	 ebp
  00001	8b ec		 mov	 ebp, esp
  00003	51		 push	 ecx

; 205  : 	int iFlag;
; 206  : 	if (!PyTuple_GetInteger(poArgs, 0, &iFlag))

  00004	8d 45 fc	 lea	 eax, DWORD PTR _iFlag$[ebp]
  00007	50		 push	 eax
  00008	6a 00		 push	 0
  0000a	ff 75 0c	 push	 DWORD PTR _poArgs$[ebp]
  0000d	e8 00 00 00 00	 call	 ?PyTuple_GetInteger@@YA_NPAU_object@@HPAH@Z ; PyTuple_GetInteger
  00012	83 c4 0c	 add	 esp, 12			; 0000000cH
  00015	0f b6 c0	 movzx	 eax, al
  00018	85 c0		 test	 eax, eax
  0001a	75 0a		 jne	 SHORT $LN4@systemSetS

; 207  : 		return Py_BuildException();

  0001c	6a 00		 push	 0
  0001e	e8 00 00 00 00	 call	 ?Py_BuildException@@YAPAU_object@@PBDZZ ; Py_BuildException
  00023	59		 pop	 ecx
  00024	eb 13		 jmp	 SHORT $LN1@systemSetS
$LN4@systemSetS:

; 208  : 
; 209  : 	CPythonSystem::Instance().SetShowSalesTextFlag(iFlag);

  00026	ff 75 fc	 push	 DWORD PTR _iFlag$[ebp]
  00029	8b 0d 00 00 00
	00		 mov	 ecx, DWORD PTR ?ms_singleton@?$CSingleton@VCPythonSystem@@@@0PAVCPythonSystem@@A ; CSingleton<CPythonSystem>::ms_singleton
  0002f	e8 00 00 00 00	 call	 ?SetShowSalesTextFlag@CPythonSystem@@QAEXH@Z ; CPythonSystem::SetShowSalesTextFlag

; 210  : 
; 211  : 	return Py_BuildNone();

  00034	e8 00 00 00 00	 call	 ?Py_BuildNone@@YAPAU_object@@XZ ; Py_BuildNone
$LN1@systemSetS:

; 212  : }

  00039	c9		 leave
  0003a	c3		 ret	 0
?systemSetShowSalesTextFlag@@YAPAU_object@@PAU1@0@Z ENDP ; systemSetShowSalesTextFlag
_TEXT	ENDS
; Function compile flags: /Odspy
; File D:\Metin2 Server Files\mainline\SRC_2014\Metin2Client\UserInterface\PythonSystemModule.cpp
;	COMDAT ?systemSetShowDamageFlag@@YAPAU_object@@PAU1@0@Z
_TEXT	SEGMENT
_iFlag$ = -4						; size = 4
_poSelf$ = 8						; size = 4
_poArgs$ = 12						; size = 4
?systemSetShowDamageFlag@@YAPAU_object@@PAU1@0@Z PROC	; systemSetShowDamageFlag, COMDAT

; 193  : {

  00000	55		 push	 ebp
  00001	8b ec		 mov	 ebp, esp
  00003	51		 push	 ecx

; 194  : 	int iFlag;
; 195  : 	if (!PyTuple_GetInteger(poArgs, 0, &iFlag))

  00004	8d 45 fc	 lea	 eax, DWORD PTR _iFlag$[ebp]
  00007	50		 push	 eax
  00008	6a 00		 push	 0
  0000a	ff 75 0c	 push	 DWORD PTR _poArgs$[ebp]
  0000d	e8 00 00 00 00	 call	 ?PyTuple_GetInteger@@YA_NPAU_object@@HPAH@Z ; PyTuple_GetInteger
  00012	83 c4 0c	 add	 esp, 12			; 0000000cH
  00015	0f b6 c0	 movzx	 eax, al
  00018	85 c0		 test	 eax, eax
  0001a	75 0a		 jne	 SHORT $LN4@systemSetS

; 196  : 		return Py_BuildException();

  0001c	6a 00		 push	 0
  0001e	e8 00 00 00 00	 call	 ?Py_BuildException@@YAPAU_object@@PBDZZ ; Py_BuildException
  00023	59		 pop	 ecx
  00024	eb 13		 jmp	 SHORT $LN1@systemSetS
$LN4@systemSetS:

; 197  : 
; 198  : 	CPythonSystem::Instance().SetShowDamageFlag(iFlag);

  00026	ff 75 fc	 push	 DWORD PTR _iFlag$[ebp]
  00029	8b 0d 00 00 00
	00		 mov	 ecx, DWORD PTR ?ms_singleton@?$CSingleton@VCPythonSystem@@@@0PAVCPythonSystem@@A ; CSingleton<CPythonSystem>::ms_singleton
  0002f	e8 00 00 00 00	 call	 ?SetShowDamageFlag@CPythonSystem@@QAEXH@Z ; CPythonSystem::SetShowDamageFlag

; 199  : 
; 200  : 	return Py_BuildNone();

  00034	e8 00 00 00 00	 call	 ?Py_BuildNone@@YAPAU_object@@XZ ; Py_BuildNone
$LN1@systemSetS:

; 201  : }

  00039	c9		 leave
  0003a	c3		 ret	 0
?systemSetShowDamageFlag@@YAPAU_object@@PAU1@0@Z ENDP	; systemSetShowDamageFlag
_TEXT	ENDS
; Function compile flags: /Odspy
; File D:\Metin2 Server Files\mainline\SRC_2014\Metin2Client\UserInterface\PythonSystemModule.cpp
;	COMDAT ?systemSetAlwaysShowNameFlag@@YAPAU_object@@PAU1@0@Z
_TEXT	SEGMENT
_iFlag$ = -4						; size = 4
_poSelf$ = 8						; size = 4
_poArgs$ = 12						; size = 4
?systemSetAlwaysShowNameFlag@@YAPAU_object@@PAU1@0@Z PROC ; systemSetAlwaysShowNameFlag, COMDAT

; 182  : {

  00000	55		 push	 ebp
  00001	8b ec		 mov	 ebp, esp
  00003	51		 push	 ecx

; 183  : 	int iFlag;
; 184  : 	if (!PyTuple_GetInteger(poArgs, 0, &iFlag))

  00004	8d 45 fc	 lea	 eax, DWORD PTR _iFlag$[ebp]
  00007	50		 push	 eax
  00008	6a 00		 push	 0
  0000a	ff 75 0c	 push	 DWORD PTR _poArgs$[ebp]
  0000d	e8 00 00 00 00	 call	 ?PyTuple_GetInteger@@YA_NPAU_object@@HPAH@Z ; PyTuple_GetInteger
  00012	83 c4 0c	 add	 esp, 12			; 0000000cH
  00015	0f b6 c0	 movzx	 eax, al
  00018	85 c0		 test	 eax, eax
  0001a	75 0a		 jne	 SHORT $LN4@systemSetA

; 185  : 		return Py_BuildException();

  0001c	6a 00		 push	 0
  0001e	e8 00 00 00 00	 call	 ?Py_BuildException@@YAPAU_object@@PBDZZ ; Py_BuildException
  00023	59		 pop	 ecx
  00024	eb 13		 jmp	 SHORT $LN1@systemSetA
$LN4@systemSetA:

; 186  : 
; 187  : 	CPythonSystem::Instance().SetAlwaysShowNameFlag(iFlag);

  00026	ff 75 fc	 push	 DWORD PTR _iFlag$[ebp]
  00029	8b 0d 00 00 00
	00		 mov	 ecx, DWORD PTR ?ms_singleton@?$CSingleton@VCPythonSystem@@@@0PAVCPythonSystem@@A ; CSingleton<CPythonSystem>::ms_singleton
  0002f	e8 00 00 00 00	 call	 ?SetAlwaysShowNameFlag@CPythonSystem@@QAEXH@Z ; CPythonSystem::SetAlwaysShowNameFlag

; 188  : 
; 189  : 	return Py_BuildNone();

  00034	e8 00 00 00 00	 call	 ?Py_BuildNone@@YAPAU_object@@XZ ; Py_BuildNone
$LN1@systemSetA:

; 190  : }

  00039	c9		 leave
  0003a	c3		 ret	 0
?systemSetAlwaysShowNameFlag@@YAPAU_object@@PAU1@0@Z ENDP ; systemSetAlwaysShowNameFlag
_TEXT	ENDS
; Function compile flags: /Odspy
; File D:\Metin2 Server Files\mainline\SRC_2014\Metin2Client\UserInterface\PythonSystemModule.cpp
; File D:\Metin2 Server Files\mainline\SRC_2014\Metin2Client\eterBase\Singleton.h
; File D:\Metin2 Server Files\mainline\SRC_2014\Metin2Client\UserInterface\PythonSystemModule.cpp
;	COMDAT ?systemIsViewChat@@YAPAU_object@@PAU1@0@Z
_TEXT	SEGMENT
$T1 = -4						; size = 4
_poSelf$ = 8						; size = 4
_poArgs$ = 12						; size = 4
?systemIsViewChat@@YAPAU_object@@PAU1@0@Z PROC		; systemIsViewChat, COMDAT

; 177  : {

  00000	55		 push	 ebp
  00001	8b ec		 mov	 ebp, esp
  00003	51		 push	 ecx
; File D:\Metin2 Server Files\mainline\SRC_2014\Metin2Client\eterBase\Singleton.h

; 27   : 		return (*ms_singleton);

  00004	a1 00 00 00 00	 mov	 eax, DWORD PTR ?ms_singleton@?$CSingleton@VCPythonSystem@@@@0PAVCPythonSystem@@A ; CSingleton<CPythonSystem>::ms_singleton
  00009	89 45 fc	 mov	 DWORD PTR $T1[ebp], eax
; File D:\Metin2 Server Files\mainline\SRC_2014\Metin2Client\UserInterface\PythonSystemModule.cpp

; 178  : 	return Py_BuildValue("i", CPythonSystem::Instance().IsViewChat());

  0000c	8b 4d fc	 mov	 ecx, DWORD PTR $T1[ebp]
  0000f	e8 00 00 00 00	 call	 ?IsViewChat@CPythonSystem@@QAE_NXZ ; CPythonSystem::IsViewChat
  00014	0f b6 c0	 movzx	 eax, al
  00017	50		 push	 eax
  00018	68 00 00 00 00	 push	 OFFSET ??_C@_01KBJDNOO@i@
  0001d	ff 15 00 00 00
	00		 call	 DWORD PTR __imp__Py_BuildValue
  00023	59		 pop	 ecx
  00024	59		 pop	 ecx

; 179  : }

  00025	c9		 leave
  00026	c3		 ret	 0
?systemIsViewChat@@YAPAU_object@@PAU1@0@Z ENDP		; systemIsViewChat
_TEXT	ENDS
; Function compile flags: /Odspy
; File D:\Metin2 Server Files\mainline\SRC_2014\Metin2Client\UserInterface\PythonSystemModule.cpp
;	COMDAT ?systemSetViewChatFlag@@YAPAU_object@@PAU1@0@Z
_TEXT	SEGMENT
_iFlag$ = -4						; size = 4
_poSelf$ = 8						; size = 4
_poArgs$ = 12						; size = 4
?systemSetViewChatFlag@@YAPAU_object@@PAU1@0@Z PROC	; systemSetViewChatFlag, COMDAT

; 166  : {

  00000	55		 push	 ebp
  00001	8b ec		 mov	 ebp, esp
  00003	51		 push	 ecx

; 167  : 	int iFlag;
; 168  : 	if (!PyTuple_GetInteger(poArgs, 0, &iFlag))

  00004	8d 45 fc	 lea	 eax, DWORD PTR _iFlag$[ebp]
  00007	50		 push	 eax
  00008	6a 00		 push	 0
  0000a	ff 75 0c	 push	 DWORD PTR _poArgs$[ebp]
  0000d	e8 00 00 00 00	 call	 ?PyTuple_GetInteger@@YA_NPAU_object@@HPAH@Z ; PyTuple_GetInteger
  00012	83 c4 0c	 add	 esp, 12			; 0000000cH
  00015	0f b6 c0	 movzx	 eax, al
  00018	85 c0		 test	 eax, eax
  0001a	75 0a		 jne	 SHORT $LN4@systemSetV

; 169  : 		return Py_BuildException();

  0001c	6a 00		 push	 0
  0001e	e8 00 00 00 00	 call	 ?Py_BuildException@@YAPAU_object@@PBDZZ ; Py_BuildException
  00023	59		 pop	 ecx
  00024	eb 13		 jmp	 SHORT $LN1@systemSetV
$LN4@systemSetV:

; 170  : 
; 171  : 	CPythonSystem::Instance().SetViewChatFlag(iFlag);

  00026	ff 75 fc	 push	 DWORD PTR _iFlag$[ebp]
  00029	8b 0d 00 00 00
	00		 mov	 ecx, DWORD PTR ?ms_singleton@?$CSingleton@VCPythonSystem@@@@0PAVCPythonSystem@@A ; CSingleton<CPythonSystem>::ms_singleton
  0002f	e8 00 00 00 00	 call	 ?SetViewChatFlag@CPythonSystem@@QAEXH@Z ; CPythonSystem::SetViewChatFlag

; 172  : 
; 173  : 	return Py_BuildNone();

  00034	e8 00 00 00 00	 call	 ?Py_BuildNone@@YAPAU_object@@XZ ; Py_BuildNone
$LN1@systemSetV:

; 174  : }

  00039	c9		 leave
  0003a	c3		 ret	 0
?systemSetViewChatFlag@@YAPAU_object@@PAU1@0@Z ENDP	; systemSetViewChatFlag
_TEXT	ENDS
; Function compile flags: /Odspy
; File D:\Metin2 Server Files\mainline\SRC_2014\Metin2Client\UserInterface\PythonSystemModule.cpp
; File D:\Metin2 Server Files\mainline\SRC_2014\Metin2Client\eterBase\Singleton.h
; File D:\Metin2 Server Files\mainline\SRC_2014\Metin2Client\UserInterface\PythonSystemModule.cpp
;	COMDAT ?systemIsSoftwareCursor@@YAPAU_object@@PAU1@0@Z
_TEXT	SEGMENT
$T1 = -4						; size = 4
_poSelf$ = 8						; size = 4
_poArgs$ = 12						; size = 4
?systemIsSoftwareCursor@@YAPAU_object@@PAU1@0@Z PROC	; systemIsSoftwareCursor, COMDAT

; 161  : {

  00000	55		 push	 ebp
  00001	8b ec		 mov	 ebp, esp
  00003	51		 push	 ecx
; File D:\Metin2 Server Files\mainline\SRC_2014\Metin2Client\eterBase\Singleton.h

; 27   : 		return (*ms_singleton);

  00004	a1 00 00 00 00	 mov	 eax, DWORD PTR ?ms_singleton@?$CSingleton@VCPythonSystem@@@@0PAVCPythonSystem@@A ; CSingleton<CPythonSystem>::ms_singleton
  00009	89 45 fc	 mov	 DWORD PTR $T1[ebp], eax
; File D:\Metin2 Server Files\mainline\SRC_2014\Metin2Client\UserInterface\PythonSystemModule.cpp

; 162  : 	return Py_BuildValue("i", CPythonSystem::Instance().IsSoftwareCursor());

  0000c	8b 4d fc	 mov	 ecx, DWORD PTR $T1[ebp]
  0000f	e8 00 00 00 00	 call	 ?IsSoftwareCursor@CPythonSystem@@QAE_NXZ ; CPythonSystem::IsSoftwareCursor
  00014	0f b6 c0	 movzx	 eax, al
  00017	50		 push	 eax
  00018	68 00 00 00 00	 push	 OFFSET ??_C@_01KBJDNOO@i@
  0001d	ff 15 00 00 00
	00		 call	 DWORD PTR __imp__Py_BuildValue
  00023	59		 pop	 ecx
  00024	59		 pop	 ecx

; 163  : }

  00025	c9		 leave
  00026	c3		 ret	 0
?systemIsSoftwareCursor@@YAPAU_object@@PAU1@0@Z ENDP	; systemIsSoftwareCursor
_TEXT	ENDS
; Function compile flags: /Odspy
; File D:\Metin2 Server Files\mainline\SRC_2014\Metin2Client\UserInterface\PythonSystemModule.cpp
;	COMDAT ?systemSetSoundVolumef@@YAPAU_object@@PAU1@0@Z
_TEXT	SEGMENT
_fVolume$ = -4						; size = 4
_poSelf$ = 8						; size = 4
_poArgs$ = 12						; size = 4
?systemSetSoundVolumef@@YAPAU_object@@PAU1@0@Z PROC	; systemSetSoundVolumef, COMDAT

; 151  : {

  00000	55		 push	 ebp
  00001	8b ec		 mov	 ebp, esp
  00003	51		 push	 ecx

; 152  : 	float fVolume;
; 153  : 	if (!PyTuple_GetFloat(poArgs, 0, &fVolume))

  00004	8d 45 fc	 lea	 eax, DWORD PTR _fVolume$[ebp]
  00007	50		 push	 eax
  00008	6a 00		 push	 0
  0000a	ff 75 0c	 push	 DWORD PTR _poArgs$[ebp]
  0000d	e8 00 00 00 00	 call	 ?PyTuple_GetFloat@@YA_NPAU_object@@HPAM@Z ; PyTuple_GetFloat
  00012	83 c4 0c	 add	 esp, 12			; 0000000cH
  00015	0f b6 c0	 movzx	 eax, al
  00018	85 c0		 test	 eax, eax
  0001a	75 0a		 jne	 SHORT $LN2@systemSetS

; 154  : 		return Py_BuildException();

  0001c	6a 00		 push	 0
  0001e	e8 00 00 00 00	 call	 ?Py_BuildException@@YAPAU_object@@PBDZZ ; Py_BuildException
  00023	59		 pop	 ecx
  00024	eb 1b		 jmp	 SHORT $LN1@systemSetS
$LN2@systemSetS:

; 155  : 
; 156  : 	CPythonSystem::Instance().SetSoundVolumef(fVolume);

  00026	51		 push	 ecx
  00027	f3 0f 10 45 fc	 movss	 xmm0, DWORD PTR _fVolume$[ebp]
  0002c	f3 0f 11 04 24	 movss	 DWORD PTR [esp], xmm0
  00031	8b 0d 00 00 00
	00		 mov	 ecx, DWORD PTR ?ms_singleton@?$CSingleton@VCPythonSystem@@@@0PAVCPythonSystem@@A ; CSingleton<CPythonSystem>::ms_singleton
  00037	e8 00 00 00 00	 call	 ?SetSoundVolumef@CPythonSystem@@QAEXM@Z ; CPythonSystem::SetSoundVolumef

; 157  : 	return Py_BuildNone();

  0003c	e8 00 00 00 00	 call	 ?Py_BuildNone@@YAPAU_object@@XZ ; Py_BuildNone
$LN1@systemSetS:

; 158  : }

  00041	c9		 leave
  00042	c3		 ret	 0
?systemSetSoundVolumef@@YAPAU_object@@PAU1@0@Z ENDP	; systemSetSoundVolumef
_TEXT	ENDS
; Function compile flags: /Odspy
; File D:\Metin2 Server Files\mainline\SRC_2014\Metin2Client\UserInterface\PythonSystemModule.cpp
;	COMDAT ?systemSetMusicVolume@@YAPAU_object@@PAU1@0@Z
_TEXT	SEGMENT
_fVolume$ = -4						; size = 4
_poSelf$ = 8						; size = 4
_poArgs$ = 12						; size = 4
?systemSetMusicVolume@@YAPAU_object@@PAU1@0@Z PROC	; systemSetMusicVolume, COMDAT

; 141  : {

  00000	55		 push	 ebp
  00001	8b ec		 mov	 ebp, esp
  00003	51		 push	 ecx

; 142  : 	float fVolume;
; 143  : 	if (!PyTuple_GetFloat(poArgs, 0, &fVolume))

  00004	8d 45 fc	 lea	 eax, DWORD PTR _fVolume$[ebp]
  00007	50		 push	 eax
  00008	6a 00		 push	 0
  0000a	ff 75 0c	 push	 DWORD PTR _poArgs$[ebp]
  0000d	e8 00 00 00 00	 call	 ?PyTuple_GetFloat@@YA_NPAU_object@@HPAM@Z ; PyTuple_GetFloat
  00012	83 c4 0c	 add	 esp, 12			; 0000000cH
  00015	0f b6 c0	 movzx	 eax, al
  00018	85 c0		 test	 eax, eax
  0001a	75 0a		 jne	 SHORT $LN2@systemSetM

; 144  : 		return Py_BuildException();

  0001c	6a 00		 push	 0
  0001e	e8 00 00 00 00	 call	 ?Py_BuildException@@YAPAU_object@@PBDZZ ; Py_BuildException
  00023	59		 pop	 ecx
  00024	eb 1b		 jmp	 SHORT $LN1@systemSetM
$LN2@systemSetM:

; 145  : 
; 146  : 	CPythonSystem::Instance().SetMusicVolume(fVolume);

  00026	51		 push	 ecx
  00027	f3 0f 10 45 fc	 movss	 xmm0, DWORD PTR _fVolume$[ebp]
  0002c	f3 0f 11 04 24	 movss	 DWORD PTR [esp], xmm0
  00031	8b 0d 00 00 00
	00		 mov	 ecx, DWORD PTR ?ms_singleton@?$CSingleton@VCPythonSystem@@@@0PAVCPythonSystem@@A ; CSingleton<CPythonSystem>::ms_singleton
  00037	e8 00 00 00 00	 call	 ?SetMusicVolume@CPythonSystem@@QAEXM@Z ; CPythonSystem::SetMusicVolume

; 147  : 	return Py_BuildNone();

  0003c	e8 00 00 00 00	 call	 ?Py_BuildNone@@YAPAU_object@@XZ ; Py_BuildNone
$LN1@systemSetM:

; 148  : }

  00041	c9		 leave
  00042	c3		 ret	 0
?systemSetMusicVolume@@YAPAU_object@@PAU1@0@Z ENDP	; systemSetMusicVolume
_TEXT	ENDS
; Function compile flags: /Odspy
; File D:\Metin2 Server Files\mainline\SRC_2014\Metin2Client\UserInterface\PythonSystemModule.cpp
; File D:\Metin2 Server Files\mainline\SRC_2014\Metin2Client\eterBase\Singleton.h
; File D:\Metin2 Server Files\mainline\SRC_2014\Metin2Client\UserInterface\PythonSystemModule.cpp
;	COMDAT ?systemGetSoundVolume@@YAPAU_object@@PAU1@0@Z
_TEXT	SEGMENT
$T1 = -4						; size = 4
_poSelf$ = 8						; size = 4
_poArgs$ = 12						; size = 4
?systemGetSoundVolume@@YAPAU_object@@PAU1@0@Z PROC	; systemGetSoundVolume, COMDAT

; 136  : {

  00000	55		 push	 ebp
  00001	8b ec		 mov	 ebp, esp
  00003	51		 push	 ecx
; File D:\Metin2 Server Files\mainline\SRC_2014\Metin2Client\eterBase\Singleton.h

; 27   : 		return (*ms_singleton);

  00004	a1 00 00 00 00	 mov	 eax, DWORD PTR ?ms_singleton@?$CSingleton@VCPythonSystem@@@@0PAVCPythonSystem@@A ; CSingleton<CPythonSystem>::ms_singleton
  00009	89 45 fc	 mov	 DWORD PTR $T1[ebp], eax
; File D:\Metin2 Server Files\mainline\SRC_2014\Metin2Client\UserInterface\PythonSystemModule.cpp

; 137  : 	return Py_BuildValue("i", CPythonSystem::Instance().GetSoundVolume());

  0000c	8b 4d fc	 mov	 ecx, DWORD PTR $T1[ebp]
  0000f	e8 00 00 00 00	 call	 ?GetSoundVolume@CPythonSystem@@QAEHXZ ; CPythonSystem::GetSoundVolume
  00014	50		 push	 eax
  00015	68 00 00 00 00	 push	 OFFSET ??_C@_01KBJDNOO@i@
  0001a	ff 15 00 00 00
	00		 call	 DWORD PTR __imp__Py_BuildValue
  00020	59		 pop	 ecx
  00021	59		 pop	 ecx

; 138  : }

  00022	c9		 leave
  00023	c3		 ret	 0
?systemGetSoundVolume@@YAPAU_object@@PAU1@0@Z ENDP	; systemGetSoundVolume
_TEXT	ENDS
; Function compile flags: /Odspy
; File D:\Metin2 Server Files\mainline\SRC_2014\Metin2Client\UserInterface\PythonSystemModule.cpp
; File D:\Metin2 Server Files\mainline\SRC_2014\Metin2Client\eterBase\Singleton.h
; File D:\Metin2 Server Files\mainline\SRC_2014\Metin2Client\UserInterface\PythonSystemModule.cpp
;	COMDAT ?systemGetMusicVolume@@YAPAU_object@@PAU1@0@Z
_TEXT	SEGMENT
$T1 = -4						; size = 4
_poSelf$ = 8						; size = 4
_poArgs$ = 12						; size = 4
?systemGetMusicVolume@@YAPAU_object@@PAU1@0@Z PROC	; systemGetMusicVolume, COMDAT

; 131  : {

  00000	55		 push	 ebp
  00001	8b ec		 mov	 ebp, esp
  00003	51		 push	 ecx
; File D:\Metin2 Server Files\mainline\SRC_2014\Metin2Client\eterBase\Singleton.h

; 27   : 		return (*ms_singleton);

  00004	a1 00 00 00 00	 mov	 eax, DWORD PTR ?ms_singleton@?$CSingleton@VCPythonSystem@@@@0PAVCPythonSystem@@A ; CSingleton<CPythonSystem>::ms_singleton
  00009	89 45 fc	 mov	 DWORD PTR $T1[ebp], eax
; File D:\Metin2 Server Files\mainline\SRC_2014\Metin2Client\UserInterface\PythonSystemModule.cpp

; 132  : 	return Py_BuildValue("f", CPythonSystem::Instance().GetMusicVolume());

  0000c	8b 4d fc	 mov	 ecx, DWORD PTR $T1[ebp]
  0000f	e8 00 00 00 00	 call	 ?GetMusicVolume@CPythonSystem@@QAEMXZ ; CPythonSystem::GetMusicVolume
  00014	51		 push	 ecx
  00015	51		 push	 ecx
  00016	dd 1c 24	 fstp	 QWORD PTR [esp]
  00019	68 00 00 00 00	 push	 OFFSET ??_C@_01INIBCBCB@f@
  0001e	ff 15 00 00 00
	00		 call	 DWORD PTR __imp__Py_BuildValue
  00024	83 c4 0c	 add	 esp, 12			; 0000000cH

; 133  : }

  00027	c9		 leave
  00028	c3		 ret	 0
?systemGetMusicVolume@@YAPAU_object@@PAU1@0@Z ENDP	; systemGetMusicVolume
_TEXT	ENDS
; Function compile flags: /Odspy
; File D:\Metin2 Server Files\mainline\SRC_2014\Metin2Client\UserInterface\PythonSystemModule.cpp
; File D:\Metin2 Server Files\mainline\SRC_2014\Metin2Client\eterBase\Singleton.h
; File D:\Metin2 Server Files\mainline\SRC_2014\Metin2Client\UserInterface\PythonSystemModule.cpp
;	COMDAT ?systemGetSaveID@@YAPAU_object@@PAU1@0@Z
_TEXT	SEGMENT
_c_szSaveID$ = -8					; size = 4
$T1 = -4						; size = 4
_poSelf$ = 8						; size = 4
_poArgs$ = 12						; size = 4
?systemGetSaveID@@YAPAU_object@@PAU1@0@Z PROC		; systemGetSaveID, COMDAT

; 125  : {

  00000	55		 push	 ebp
  00001	8b ec		 mov	 ebp, esp
  00003	51		 push	 ecx
  00004	51		 push	 ecx
; File D:\Metin2 Server Files\mainline\SRC_2014\Metin2Client\eterBase\Singleton.h

; 27   : 		return (*ms_singleton);

  00005	a1 00 00 00 00	 mov	 eax, DWORD PTR ?ms_singleton@?$CSingleton@VCPythonSystem@@@@0PAVCPythonSystem@@A ; CSingleton<CPythonSystem>::ms_singleton
  0000a	89 45 fc	 mov	 DWORD PTR $T1[ebp], eax
; File D:\Metin2 Server Files\mainline\SRC_2014\Metin2Client\UserInterface\PythonSystemModule.cpp

; 126  : 	const char * c_szSaveID = CPythonSystem::Instance().GetSaveID();

  0000d	8b 4d fc	 mov	 ecx, DWORD PTR $T1[ebp]
  00010	e8 00 00 00 00	 call	 ?GetSaveID@CPythonSystem@@QAEPBDXZ ; CPythonSystem::GetSaveID
  00015	89 45 f8	 mov	 DWORD PTR _c_szSaveID$[ebp], eax

; 127  : 	return Py_BuildValue("s", c_szSaveID);

  00018	ff 75 f8	 push	 DWORD PTR _c_szSaveID$[ebp]
  0001b	68 00 00 00 00	 push	 OFFSET ??_C@_01LKDEMHDF@s@
  00020	ff 15 00 00 00
	00		 call	 DWORD PTR __imp__Py_BuildValue
  00026	59		 pop	 ecx
  00027	59		 pop	 ecx

; 128  : }

  00028	c9		 leave
  00029	c3		 ret	 0
?systemGetSaveID@@YAPAU_object@@PAU1@0@Z ENDP		; systemGetSaveID
_TEXT	ENDS
; Function compile flags: /Odspy
; File D:\Metin2 Server Files\mainline\SRC_2014\Metin2Client\UserInterface\PythonSystemModule.cpp
; File D:\Metin2 Server Files\mainline\SRC_2014\Metin2Client\eterBase\Singleton.h
; File D:\Metin2 Server Files\mainline\SRC_2014\Metin2Client\UserInterface\PythonSystemModule.cpp
;	COMDAT ?systemisSaveID@@YAPAU_object@@PAU1@0@Z
_TEXT	SEGMENT
_value$ = -8						; size = 4
$T1 = -4						; size = 4
_poSelf$ = 8						; size = 4
_poArgs$ = 12						; size = 4
?systemisSaveID@@YAPAU_object@@PAU1@0@Z PROC		; systemisSaveID, COMDAT

; 119  : {

  00000	55		 push	 ebp
  00001	8b ec		 mov	 ebp, esp
  00003	51		 push	 ecx
  00004	51		 push	 ecx
; File D:\Metin2 Server Files\mainline\SRC_2014\Metin2Client\eterBase\Singleton.h

; 27   : 		return (*ms_singleton);

  00005	a1 00 00 00 00	 mov	 eax, DWORD PTR ?ms_singleton@?$CSingleton@VCPythonSystem@@@@0PAVCPythonSystem@@A ; CSingleton<CPythonSystem>::ms_singleton
  0000a	89 45 fc	 mov	 DWORD PTR $T1[ebp], eax
; File D:\Metin2 Server Files\mainline\SRC_2014\Metin2Client\UserInterface\PythonSystemModule.cpp

; 120  : 	int value = CPythonSystem::Instance().IsSaveID();

  0000d	8b 4d fc	 mov	 ecx, DWORD PTR $T1[ebp]
  00010	e8 00 00 00 00	 call	 ?IsSaveID@CPythonSystem@@QAEHXZ ; CPythonSystem::IsSaveID
  00015	89 45 f8	 mov	 DWORD PTR _value$[ebp], eax

; 121  : 	return Py_BuildValue("i", value);

  00018	ff 75 f8	 push	 DWORD PTR _value$[ebp]
  0001b	68 00 00 00 00	 push	 OFFSET ??_C@_01KBJDNOO@i@
  00020	ff 15 00 00 00
	00		 call	 DWORD PTR __imp__Py_BuildValue
  00026	59		 pop	 ecx
  00027	59		 pop	 ecx

; 122  : }

  00028	c9		 leave
  00029	c3		 ret	 0
?systemisSaveID@@YAPAU_object@@PAU1@0@Z ENDP		; systemisSaveID
_TEXT	ENDS
; Function compile flags: /Odspy
; File D:\Metin2 Server Files\mainline\SRC_2014\Metin2Client\UserInterface\PythonSystemModule.cpp
;	COMDAT ?systemSetSaveID@@YAPAU_object@@PAU1@0@Z
_TEXT	SEGMENT
_iValue$ = -8						; size = 4
_szSaveID$ = -4						; size = 4
_poSelf$ = 8						; size = 4
_poArgs$ = 12						; size = 4
?systemSetSaveID@@YAPAU_object@@PAU1@0@Z PROC		; systemSetSaveID, COMDAT

; 105  : {

  00000	55		 push	 ebp
  00001	8b ec		 mov	 ebp, esp
  00003	51		 push	 ecx
  00004	51		 push	 ecx

; 106  : 	int iValue;
; 107  : 	if (!PyTuple_GetInteger(poArgs, 0, &iValue))

  00005	8d 45 f8	 lea	 eax, DWORD PTR _iValue$[ebp]
  00008	50		 push	 eax
  00009	6a 00		 push	 0
  0000b	ff 75 0c	 push	 DWORD PTR _poArgs$[ebp]
  0000e	e8 00 00 00 00	 call	 ?PyTuple_GetInteger@@YA_NPAU_object@@HPAH@Z ; PyTuple_GetInteger
  00013	83 c4 0c	 add	 esp, 12			; 0000000cH
  00016	0f b6 c0	 movzx	 eax, al
  00019	85 c0		 test	 eax, eax
  0001b	75 0a		 jne	 SHORT $LN2@systemSetS

; 108  : 		return Py_BuildException();

  0001d	6a 00		 push	 0
  0001f	e8 00 00 00 00	 call	 ?Py_BuildException@@YAPAU_object@@PBDZZ ; Py_BuildException
  00024	59		 pop	 ecx
  00025	eb 38		 jmp	 SHORT $LN1@systemSetS
$LN2@systemSetS:

; 109  : 
; 110  : 	char * szSaveID;
; 111  : 	if (!PyTuple_GetString(poArgs, 1, &szSaveID))

  00027	8d 45 fc	 lea	 eax, DWORD PTR _szSaveID$[ebp]
  0002a	50		 push	 eax
  0002b	6a 01		 push	 1
  0002d	ff 75 0c	 push	 DWORD PTR _poArgs$[ebp]
  00030	e8 00 00 00 00	 call	 ?PyTuple_GetString@@YA_NPAU_object@@HPAPAD@Z ; PyTuple_GetString
  00035	83 c4 0c	 add	 esp, 12			; 0000000cH
  00038	0f b6 c0	 movzx	 eax, al
  0003b	85 c0		 test	 eax, eax
  0003d	75 0a		 jne	 SHORT $LN5@systemSetS

; 112  : 		return Py_BuildException();

  0003f	6a 00		 push	 0
  00041	e8 00 00 00 00	 call	 ?Py_BuildException@@YAPAU_object@@PBDZZ ; Py_BuildException
  00046	59		 pop	 ecx
  00047	eb 16		 jmp	 SHORT $LN1@systemSetS
$LN5@systemSetS:

; 113  : 
; 114  : 	CPythonSystem::Instance().SetSaveID(iValue, szSaveID);

  00049	ff 75 fc	 push	 DWORD PTR _szSaveID$[ebp]
  0004c	ff 75 f8	 push	 DWORD PTR _iValue$[ebp]
  0004f	8b 0d 00 00 00
	00		 mov	 ecx, DWORD PTR ?ms_singleton@?$CSingleton@VCPythonSystem@@@@0PAVCPythonSystem@@A ; CSingleton<CPythonSystem>::ms_singleton
  00055	e8 00 00 00 00	 call	 ?SetSaveID@CPythonSystem@@QAEXHPBD@Z ; CPythonSystem::SetSaveID

; 115  : 	return Py_BuildNone();

  0005a	e8 00 00 00 00	 call	 ?Py_BuildNone@@YAPAU_object@@XZ ; Py_BuildNone
$LN1@systemSetS:

; 116  : }

  0005f	c9		 leave
  00060	c3		 ret	 0
?systemSetSaveID@@YAPAU_object@@PAU1@0@Z ENDP		; systemSetSaveID
_TEXT	ENDS
; Function compile flags: /Odspy
; File D:\Metin2 Server Files\mainline\SRC_2014\Metin2Client\UserInterface\PythonSystemModule.cpp
; File D:\Metin2 Server Files\mainline\SRC_2014\Metin2Client\eterBase\Singleton.h
; File D:\Metin2 Server Files\mainline\SRC_2014\Metin2Client\UserInterface\PythonSystemModule.cpp
; File D:\Metin2 Server Files\mainline\SRC_2014\Metin2Client\eterBase\Singleton.h
; File D:\Metin2 Server Files\mainline\SRC_2014\Metin2Client\UserInterface\PythonSystemModule.cpp
; File D:\Metin2 Server Files\mainline\SRC_2014\Metin2Client\eterBase\Singleton.h
; File D:\Metin2 Server Files\mainline\SRC_2014\Metin2Client\UserInterface\PythonSystemModule.cpp
;	COMDAT ?systemGetConfig@@YAPAU_object@@PAU1@0@Z
_TEXT	SEGMENT
_iFrequency$ = -24					; size = 4
$T1 = -20						; size = 4
$T2 = -16						; size = 4
$T3 = -12						; size = 4
_iRes$ = -8						; size = 4
_tmp$ = -4						; size = 4
_poSelf$ = 8						; size = 4
_poArgs$ = 12						; size = 4
?systemGetConfig@@YAPAU_object@@PAU1@0@Z PROC		; systemGetConfig, COMDAT

; 88   : {

  00000	55		 push	 ebp
  00001	8b ec		 mov	 ebp, esp
  00003	83 ec 18	 sub	 esp, 24			; 00000018H
; File D:\Metin2 Server Files\mainline\SRC_2014\Metin2Client\eterBase\Singleton.h

; 27   : 		return (*ms_singleton);

  00006	a1 00 00 00 00	 mov	 eax, DWORD PTR ?ms_singleton@?$CSingleton@VCPythonSystem@@@@0PAVCPythonSystem@@A ; CSingleton<CPythonSystem>::ms_singleton
  0000b	89 45 f4	 mov	 DWORD PTR $T3[ebp], eax
; File D:\Metin2 Server Files\mainline\SRC_2014\Metin2Client\UserInterface\PythonSystemModule.cpp

; 89   : 	CPythonSystem::TConfig *tmp = CPythonSystem::Instance().GetConfig();

  0000e	8b 4d f4	 mov	 ecx, DWORD PTR $T3[ebp]
  00011	e8 00 00 00 00	 call	 ?GetConfig@CPythonSystem@@QAEPAUSConfig@1@XZ ; CPythonSystem::GetConfig
  00016	89 45 fc	 mov	 DWORD PTR _tmp$[ebp], eax
; File D:\Metin2 Server Files\mainline\SRC_2014\Metin2Client\eterBase\Singleton.h

; 27   : 		return (*ms_singleton);

  00019	a1 00 00 00 00	 mov	 eax, DWORD PTR ?ms_singleton@?$CSingleton@VCPythonSystem@@@@0PAVCPythonSystem@@A ; CSingleton<CPythonSystem>::ms_singleton
  0001e	89 45 f0	 mov	 DWORD PTR $T2[ebp], eax
; File D:\Metin2 Server Files\mainline\SRC_2014\Metin2Client\UserInterface\PythonSystemModule.cpp

; 91   : 	int iRes = CPythonSystem::Instance().GetResolutionIndex(tmp->width, tmp->height, tmp->bpp);

  00021	8b 45 fc	 mov	 eax, DWORD PTR _tmp$[ebp]
  00024	ff 70 08	 push	 DWORD PTR [eax+8]
  00027	8b 45 fc	 mov	 eax, DWORD PTR _tmp$[ebp]
  0002a	ff 70 04	 push	 DWORD PTR [eax+4]
  0002d	8b 45 fc	 mov	 eax, DWORD PTR _tmp$[ebp]
  00030	ff 30		 push	 DWORD PTR [eax]
  00032	8b 4d f0	 mov	 ecx, DWORD PTR $T2[ebp]
  00035	e8 00 00 00 00	 call	 ?GetResolutionIndex@CPythonSystem@@QAEHKKK@Z ; CPythonSystem::GetResolutionIndex
  0003a	89 45 f8	 mov	 DWORD PTR _iRes$[ebp], eax
; File D:\Metin2 Server Files\mainline\SRC_2014\Metin2Client\eterBase\Singleton.h

; 27   : 		return (*ms_singleton);

  0003d	a1 00 00 00 00	 mov	 eax, DWORD PTR ?ms_singleton@?$CSingleton@VCPythonSystem@@@@0PAVCPythonSystem@@A ; CSingleton<CPythonSystem>::ms_singleton
  00042	89 45 ec	 mov	 DWORD PTR $T1[ebp], eax
; File D:\Metin2 Server Files\mainline\SRC_2014\Metin2Client\UserInterface\PythonSystemModule.cpp

; 92   : 	int iFrequency = CPythonSystem::Instance().GetFrequencyIndex(iRes, tmp->frequency);

  00045	8b 45 fc	 mov	 eax, DWORD PTR _tmp$[ebp]
  00048	ff 70 0c	 push	 DWORD PTR [eax+12]
  0004b	ff 75 f8	 push	 DWORD PTR _iRes$[ebp]
  0004e	8b 4d ec	 mov	 ecx, DWORD PTR $T1[ebp]
  00051	e8 00 00 00 00	 call	 ?GetFrequencyIndex@CPythonSystem@@QAEHHK@Z ; CPythonSystem::GetFrequencyIndex
  00056	89 45 e8	 mov	 DWORD PTR _iFrequency$[ebp], eax

; 93   : 
; 94   : 	return Py_BuildValue("iiiiiiii",  iRes,

  00059	8b 45 fc	 mov	 eax, DWORD PTR _tmp$[ebp]
  0005c	ff 70 14	 push	 DWORD PTR [eax+20]
  0005f	8b 45 fc	 mov	 eax, DWORD PTR _tmp$[ebp]
  00062	ff 70 24	 push	 DWORD PTR [eax+36]
  00065	8b 45 fc	 mov	 eax, DWORD PTR _tmp$[ebp]
  00068	0f b6 40 20	 movzx	 eax, BYTE PTR [eax+32]
  0006c	50		 push	 eax
  0006d	8b 45 fc	 mov	 eax, DWORD PTR _tmp$[ebp]
  00070	f3 0f 5a 40 1c	 cvtss2sd xmm0, DWORD PTR [eax+28]
  00075	51		 push	 ecx
  00076	51		 push	 ecx
  00077	f2 0f 11 04 24	 movsd	 QWORD PTR [esp], xmm0
  0007c	8b 45 fc	 mov	 eax, DWORD PTR _tmp$[ebp]
  0007f	0f b6 40 11	 movzx	 eax, BYTE PTR [eax+17]
  00083	50		 push	 eax
  00084	8b 45 fc	 mov	 eax, DWORD PTR _tmp$[ebp]
  00087	0f b6 40 10	 movzx	 eax, BYTE PTR [eax+16]
  0008b	50		 push	 eax
  0008c	ff 75 e8	 push	 DWORD PTR _iFrequency$[ebp]
  0008f	ff 75 f8	 push	 DWORD PTR _iRes$[ebp]
  00092	68 00 00 00 00	 push	 OFFSET ??_C@_08DGHCLNGO@iiiiiiii@
  00097	ff 15 00 00 00
	00		 call	 DWORD PTR __imp__Py_BuildValue
  0009d	83 c4 28	 add	 esp, 40			; 00000028H

; 95   : 									  iFrequency,
; 96   : 									  tmp->is_software_cursor,
; 97   : 									  tmp->is_object_culling,
; 98   : 									  tmp->music_volume,
; 99   : 									  tmp->voice_volume,
; 100  : 									  tmp->gamma,
; 101  : 									  tmp->iDistance);
; 102  : }

  000a0	c9		 leave
  000a1	c3		 ret	 0
?systemGetConfig@@YAPAU_object@@PAU1@0@Z ENDP		; systemGetConfig
_TEXT	ENDS
; Function compile flags: /Odspy
; File D:\Metin2 Server Files\mainline\SRC_2014\Metin2Client\UserInterface\PythonSystemModule.cpp
; File D:\Metin2 Server Files\mainline\SRC_2014\Metin2Client\eterBase\Singleton.h
; File D:\Metin2 Server Files\mainline\SRC_2014\Metin2Client\UserInterface\PythonSystemModule.cpp
;	COMDAT ?systemGetWindowStatus@@YAPAU_object@@PAU1@0@Z
_TEXT	SEGMENT
$T1 = -12						; size = 4
_iIndex$ = -8						; size = 4
_c_rWindowStatus$ = -4					; size = 4
_poSelf$ = 8						; size = 4
_poArgs$ = 12						; size = 4
?systemGetWindowStatus@@YAPAU_object@@PAU1@0@Z PROC	; systemGetWindowStatus, COMDAT

; 74   : {

  00000	55		 push	 ebp
  00001	8b ec		 mov	 ebp, esp
  00003	83 ec 0c	 sub	 esp, 12			; 0000000cH

; 75   : 	int iIndex;
; 76   : 	if (!PyTuple_GetInteger(poArgs, 0, &iIndex))

  00006	8d 45 f8	 lea	 eax, DWORD PTR _iIndex$[ebp]
  00009	50		 push	 eax
  0000a	6a 00		 push	 0
  0000c	ff 75 0c	 push	 DWORD PTR _poArgs$[ebp]
  0000f	e8 00 00 00 00	 call	 ?PyTuple_GetInteger@@YA_NPAU_object@@HPAH@Z ; PyTuple_GetInteger
  00014	83 c4 0c	 add	 esp, 12			; 0000000cH
  00017	0f b6 c0	 movzx	 eax, al
  0001a	85 c0		 test	 eax, eax
  0001c	75 0a		 jne	 SHORT $LN2@systemGetW

; 77   : 		return Py_BuildException();

  0001e	6a 00		 push	 0
  00020	e8 00 00 00 00	 call	 ?Py_BuildException@@YAPAU_object@@PBDZZ ; Py_BuildException
  00025	59		 pop	 ecx
  00026	eb 41		 jmp	 SHORT $LN1@systemGetW
$LN2@systemGetW:
; File D:\Metin2 Server Files\mainline\SRC_2014\Metin2Client\eterBase\Singleton.h

; 27   : 		return (*ms_singleton);

  00028	a1 00 00 00 00	 mov	 eax, DWORD PTR ?ms_singleton@?$CSingleton@VCPythonSystem@@@@0PAVCPythonSystem@@A ; CSingleton<CPythonSystem>::ms_singleton
  0002d	89 45 f4	 mov	 DWORD PTR $T1[ebp], eax
; File D:\Metin2 Server Files\mainline\SRC_2014\Metin2Client\UserInterface\PythonSystemModule.cpp

; 79   : 	const CPythonSystem::TWindowStatus & c_rWindowStatus = CPythonSystem::Instance().GetWindowStatusReference(iIndex);

  00030	ff 75 f8	 push	 DWORD PTR _iIndex$[ebp]
  00033	8b 4d f4	 mov	 ecx, DWORD PTR $T1[ebp]
  00036	e8 00 00 00 00	 call	 ?GetWindowStatusReference@CPythonSystem@@QAEABUSWindowStatus@1@H@Z ; CPythonSystem::GetWindowStatusReference
  0003b	89 45 fc	 mov	 DWORD PTR _c_rWindowStatus$[ebp], eax

; 80   : 	return Py_BuildValue("iiiii", c_rWindowStatus.isVisible,

  0003e	8b 45 fc	 mov	 eax, DWORD PTR _c_rWindowStatus$[ebp]
  00041	ff 70 10	 push	 DWORD PTR [eax+16]
  00044	8b 45 fc	 mov	 eax, DWORD PTR _c_rWindowStatus$[ebp]
  00047	ff 70 0c	 push	 DWORD PTR [eax+12]
  0004a	8b 45 fc	 mov	 eax, DWORD PTR _c_rWindowStatus$[ebp]
  0004d	ff 70 08	 push	 DWORD PTR [eax+8]
  00050	8b 45 fc	 mov	 eax, DWORD PTR _c_rWindowStatus$[ebp]
  00053	ff 70 04	 push	 DWORD PTR [eax+4]
  00056	8b 45 fc	 mov	 eax, DWORD PTR _c_rWindowStatus$[ebp]
  00059	ff 30		 push	 DWORD PTR [eax]
  0005b	68 00 00 00 00	 push	 OFFSET ??_C@_05EAPDINDK@iiiii@
  00060	ff 15 00 00 00
	00		 call	 DWORD PTR __imp__Py_BuildValue
  00066	83 c4 18	 add	 esp, 24			; 00000018H
$LN1@systemGetW:

; 81   : 								  c_rWindowStatus.isMinimized,
; 82   : 								  c_rWindowStatus.ixPosition,
; 83   : 								  c_rWindowStatus.iyPosition,
; 84   : 								  c_rWindowStatus.iHeight);
; 85   : }

  00069	c9		 leave
  0006a	c3		 ret	 0
?systemGetWindowStatus@@YAPAU_object@@PAU1@0@Z ENDP	; systemGetWindowStatus
_TEXT	ENDS
; Function compile flags: /Odspy
; File D:\Metin2 Server Files\mainline\SRC_2014\Metin2Client\UserInterface\PythonSystemModule.cpp
;	COMDAT ?systemSaveWindowStatus@@YAPAU_object@@PAU1@0@Z
_TEXT	SEGMENT
_iIndex$ = -24						; size = 4
_iVisible$ = -20					; size = 4
_iMinimized$ = -16					; size = 4
_ix$ = -12						; size = 4
_iy$ = -8						; size = 4
_iHeight$ = -4						; size = 4
_poSelf$ = 8						; size = 4
_poArgs$ = 12						; size = 4
?systemSaveWindowStatus@@YAPAU_object@@PAU1@0@Z PROC	; systemSaveWindowStatus, COMDAT

; 44   : {

  00000	55		 push	 ebp
  00001	8b ec		 mov	 ebp, esp
  00003	83 ec 18	 sub	 esp, 24			; 00000018H

; 45   : 	int iIndex;
; 46   : 	if (!PyTuple_GetInteger(poArgs, 0, &iIndex))

  00006	8d 45 e8	 lea	 eax, DWORD PTR _iIndex$[ebp]
  00009	50		 push	 eax
  0000a	6a 00		 push	 0
  0000c	ff 75 0c	 push	 DWORD PTR _poArgs$[ebp]
  0000f	e8 00 00 00 00	 call	 ?PyTuple_GetInteger@@YA_NPAU_object@@HPAH@Z ; PyTuple_GetInteger
  00014	83 c4 0c	 add	 esp, 12			; 0000000cH
  00017	0f b6 c0	 movzx	 eax, al
  0001a	85 c0		 test	 eax, eax
  0001c	75 0d		 jne	 SHORT $LN2@systemSave

; 47   : 		return Py_BuildException();

  0001e	6a 00		 push	 0
  00020	e8 00 00 00 00	 call	 ?Py_BuildException@@YAPAU_object@@PBDZZ ; Py_BuildException
  00025	59		 pop	 ecx
  00026	e9 d2 00 00 00	 jmp	 $LN1@systemSave
$LN2@systemSave:

; 48   : 
; 49   : 	int iVisible;
; 50   : 	if (!PyTuple_GetInteger(poArgs, 1, &iVisible))

  0002b	8d 45 ec	 lea	 eax, DWORD PTR _iVisible$[ebp]
  0002e	50		 push	 eax
  0002f	6a 01		 push	 1
  00031	ff 75 0c	 push	 DWORD PTR _poArgs$[ebp]
  00034	e8 00 00 00 00	 call	 ?PyTuple_GetInteger@@YA_NPAU_object@@HPAH@Z ; PyTuple_GetInteger
  00039	83 c4 0c	 add	 esp, 12			; 0000000cH
  0003c	0f b6 c0	 movzx	 eax, al
  0003f	85 c0		 test	 eax, eax
  00041	75 0d		 jne	 SHORT $LN3@systemSave

; 51   : 		return Py_BuildException();

  00043	6a 00		 push	 0
  00045	e8 00 00 00 00	 call	 ?Py_BuildException@@YAPAU_object@@PBDZZ ; Py_BuildException
  0004a	59		 pop	 ecx
  0004b	e9 ad 00 00 00	 jmp	 $LN1@systemSave
$LN3@systemSave:

; 52   : 
; 53   : 	int iMinimized;
; 54   : 	if (!PyTuple_GetInteger(poArgs, 2, &iMinimized))

  00050	8d 45 f0	 lea	 eax, DWORD PTR _iMinimized$[ebp]
  00053	50		 push	 eax
  00054	6a 02		 push	 2
  00056	ff 75 0c	 push	 DWORD PTR _poArgs$[ebp]
  00059	e8 00 00 00 00	 call	 ?PyTuple_GetInteger@@YA_NPAU_object@@HPAH@Z ; PyTuple_GetInteger
  0005e	83 c4 0c	 add	 esp, 12			; 0000000cH
  00061	0f b6 c0	 movzx	 eax, al
  00064	85 c0		 test	 eax, eax
  00066	75 0d		 jne	 SHORT $LN4@systemSave

; 55   : 		return Py_BuildException();

  00068	6a 00		 push	 0
  0006a	e8 00 00 00 00	 call	 ?Py_BuildException@@YAPAU_object@@PBDZZ ; Py_BuildException
  0006f	59		 pop	 ecx
  00070	e9 88 00 00 00	 jmp	 $LN1@systemSave
$LN4@systemSave:

; 56   : 
; 57   : 	int ix;
; 58   : 	if (!PyTuple_GetInteger(poArgs, 3, &ix))

  00075	8d 45 f4	 lea	 eax, DWORD PTR _ix$[ebp]
  00078	50		 push	 eax
  00079	6a 03		 push	 3
  0007b	ff 75 0c	 push	 DWORD PTR _poArgs$[ebp]
  0007e	e8 00 00 00 00	 call	 ?PyTuple_GetInteger@@YA_NPAU_object@@HPAH@Z ; PyTuple_GetInteger
  00083	83 c4 0c	 add	 esp, 12			; 0000000cH
  00086	0f b6 c0	 movzx	 eax, al
  00089	85 c0		 test	 eax, eax
  0008b	75 0a		 jne	 SHORT $LN5@systemSave

; 59   : 		return Py_BuildException();

  0008d	6a 00		 push	 0
  0008f	e8 00 00 00 00	 call	 ?Py_BuildException@@YAPAU_object@@PBDZZ ; Py_BuildException
  00094	59		 pop	 ecx
  00095	eb 66		 jmp	 SHORT $LN1@systemSave
$LN5@systemSave:

; 60   : 
; 61   : 	int iy;
; 62   : 	if (!PyTuple_GetInteger(poArgs, 4, &iy))

  00097	8d 45 f8	 lea	 eax, DWORD PTR _iy$[ebp]
  0009a	50		 push	 eax
  0009b	6a 04		 push	 4
  0009d	ff 75 0c	 push	 DWORD PTR _poArgs$[ebp]
  000a0	e8 00 00 00 00	 call	 ?PyTuple_GetInteger@@YA_NPAU_object@@HPAH@Z ; PyTuple_GetInteger
  000a5	83 c4 0c	 add	 esp, 12			; 0000000cH
  000a8	0f b6 c0	 movzx	 eax, al
  000ab	85 c0		 test	 eax, eax
  000ad	75 0a		 jne	 SHORT $LN6@systemSave

; 63   : 		return Py_BuildException();

  000af	6a 00		 push	 0
  000b1	e8 00 00 00 00	 call	 ?Py_BuildException@@YAPAU_object@@PBDZZ ; Py_BuildException
  000b6	59		 pop	 ecx
  000b7	eb 44		 jmp	 SHORT $LN1@systemSave
$LN6@systemSave:

; 64   : 
; 65   : 	int iHeight;
; 66   : 	if (!PyTuple_GetInteger(poArgs, 5, &iHeight))

  000b9	8d 45 fc	 lea	 eax, DWORD PTR _iHeight$[ebp]
  000bc	50		 push	 eax
  000bd	6a 05		 push	 5
  000bf	ff 75 0c	 push	 DWORD PTR _poArgs$[ebp]
  000c2	e8 00 00 00 00	 call	 ?PyTuple_GetInteger@@YA_NPAU_object@@HPAH@Z ; PyTuple_GetInteger
  000c7	83 c4 0c	 add	 esp, 12			; 0000000cH
  000ca	0f b6 c0	 movzx	 eax, al
  000cd	85 c0		 test	 eax, eax
  000cf	75 0a		 jne	 SHORT $LN9@systemSave

; 67   : 		return Py_BuildException();

  000d1	6a 00		 push	 0
  000d3	e8 00 00 00 00	 call	 ?Py_BuildException@@YAPAU_object@@PBDZZ ; Py_BuildException
  000d8	59		 pop	 ecx
  000d9	eb 22		 jmp	 SHORT $LN1@systemSave
$LN9@systemSave:

; 68   : 
; 69   : 	CPythonSystem::Instance().SaveWindowStatus(iIndex, iVisible, iMinimized, ix, iy, iHeight);

  000db	ff 75 fc	 push	 DWORD PTR _iHeight$[ebp]
  000de	ff 75 f8	 push	 DWORD PTR _iy$[ebp]
  000e1	ff 75 f4	 push	 DWORD PTR _ix$[ebp]
  000e4	ff 75 f0	 push	 DWORD PTR _iMinimized$[ebp]
  000e7	ff 75 ec	 push	 DWORD PTR _iVisible$[ebp]
  000ea	ff 75 e8	 push	 DWORD PTR _iIndex$[ebp]
  000ed	8b 0d 00 00 00
	00		 mov	 ecx, DWORD PTR ?ms_singleton@?$CSingleton@VCPythonSystem@@@@0PAVCPythonSystem@@A ; CSingleton<CPythonSystem>::ms_singleton
  000f3	e8 00 00 00 00	 call	 ?SaveWindowStatus@CPythonSystem@@QAEXHHHHHH@Z ; CPythonSystem::SaveWindowStatus

; 70   : 	return Py_BuildNone();

  000f8	e8 00 00 00 00	 call	 ?Py_BuildNone@@YAPAU_object@@XZ ; Py_BuildNone
$LN1@systemSave:

; 71   : }

  000fd	c9		 leave
  000fe	c3		 ret	 0
?systemSaveWindowStatus@@YAPAU_object@@PAU1@0@Z ENDP	; systemSaveWindowStatus
_TEXT	ENDS
; Function compile flags: /Odspy
; File D:\Metin2 Server Files\mainline\SRC_2014\Metin2Client\UserInterface\PythonSystemModule.cpp
; File D:\Metin2 Server Files\mainline\SRC_2014\Metin2Client\eterBase\Singleton.h
; File D:\Metin2 Server Files\mainline\SRC_2014\Metin2Client\UserInterface\PythonSystemModule.cpp
;	COMDAT ?systemisInterfaceConfig@@YAPAU_object@@PAU1@0@Z
_TEXT	SEGMENT
_isInterfaceConfig$ = -8				; size = 4
$T1 = -4						; size = 4
_poSelf$ = 8						; size = 4
_poArgs$ = 12						; size = 4
?systemisInterfaceConfig@@YAPAU_object@@PAU1@0@Z PROC	; systemisInterfaceConfig, COMDAT

; 38   : {

  00000	55		 push	 ebp
  00001	8b ec		 mov	 ebp, esp
  00003	51		 push	 ecx
  00004	51		 push	 ecx
; File D:\Metin2 Server Files\mainline\SRC_2014\Metin2Client\eterBase\Singleton.h

; 27   : 		return (*ms_singleton);

  00005	a1 00 00 00 00	 mov	 eax, DWORD PTR ?ms_singleton@?$CSingleton@VCPythonSystem@@@@0PAVCPythonSystem@@A ; CSingleton<CPythonSystem>::ms_singleton
  0000a	89 45 fc	 mov	 DWORD PTR $T1[ebp], eax
; File D:\Metin2 Server Files\mainline\SRC_2014\Metin2Client\UserInterface\PythonSystemModule.cpp

; 39   : 	int isInterfaceConfig = CPythonSystem::Instance().isInterfaceConfig();

  0000d	8b 4d fc	 mov	 ecx, DWORD PTR $T1[ebp]
  00010	e8 00 00 00 00	 call	 ?isInterfaceConfig@CPythonSystem@@QAE_NXZ ; CPythonSystem::isInterfaceConfig
  00015	0f b6 c0	 movzx	 eax, al
  00018	89 45 f8	 mov	 DWORD PTR _isInterfaceConfig$[ebp], eax

; 40   : 	return Py_BuildValue("i", isInterfaceConfig);

  0001b	ff 75 f8	 push	 DWORD PTR _isInterfaceConfig$[ebp]
  0001e	68 00 00 00 00	 push	 OFFSET ??_C@_01KBJDNOO@i@
  00023	ff 15 00 00 00
	00		 call	 DWORD PTR __imp__Py_BuildValue
  00029	59		 pop	 ecx
  0002a	59		 pop	 ecx

; 41   : }

  0002b	c9		 leave
  0002c	c3		 ret	 0
?systemisInterfaceConfig@@YAPAU_object@@PAU1@0@Z ENDP	; systemisInterfaceConfig
_TEXT	ENDS
; Function compile flags: /Odspy
;	COMDAT ??1?$set@V?$basic_string@DU?$char_traits@D@std@@V?$allocator@D@2@@std@@U?$less@V?$basic_string@DU?$char_traits@D@std@@V?$allocator@D@2@@std@@@2@V?$allocator@V?$basic_string@DU?$char_traits@D@std@@V?$allocator@D@2@@std@@@2@@std@@QAE@XZ
_TEXT	SEGMENT
_this$ = -4						; size = 4
??1?$set@V?$basic_string@DU?$char_traits@D@std@@V?$allocator@D@2@@std@@U?$less@V?$basic_string@DU?$char_traits@D@std@@V?$allocator@D@2@@std@@@2@V?$allocator@V?$basic_string@DU?$char_traits@D@std@@V?$allocator@D@2@@std@@@2@@std@@QAE@XZ PROC ; std::set<std::basic_string<char,std::char_traits<char>,std::allocator<char> >,std::less<std::basic_string<char,std::char_traits<char>,std::allocator<char> > >,std::allocator<std::basic_string<char,std::char_traits<char>,std::allocator<char> > > >::~set<std::basic_string<char,std::char_traits<char>,std::allocator<char> >,std::less<std::basic_string<char,std::char_traits<char>,std::allocator<char> > >,std::allocator<std::basic_string<char,std::char_traits<char>,std::allocator<char> > > >, COMDAT
; _this$ = ecx
  00000	55		 push	 ebp
  00001	8b ec		 mov	 ebp, esp
  00003	51		 push	 ecx
  00004	89 4d fc	 mov	 DWORD PTR _this$[ebp], ecx
  00007	8b 4d fc	 mov	 ecx, DWORD PTR _this$[ebp]
  0000a	e8 00 00 00 00	 call	 ??1?$_Tree@V?$_Tset_traits@V?$basic_string@DU?$char_traits@D@std@@V?$allocator@D@2@@std@@U?$less@V?$basic_string@DU?$char_traits@D@std@@V?$allocator@D@2@@std@@@2@V?$allocator@V?$basic_string@DU?$char_traits@D@std@@V?$allocator@D@2@@std@@@2@$0A@@std@@@std@@QAE@XZ ; std::_Tree<std::_Tset_traits<std::basic_string<char,std::char_traits<char>,std::allocator<char> >,std::less<std::basic_string<char,std::char_traits<char>,std::allocator<char> > >,std::allocator<std::basic_string<char,std::char_traits<char>,std::allocator<char> > >,0> >::~_Tree<std::_Tset_traits<std::basic_string<char,std::char_traits<char>,std::allocator<char> >,std::less<std::basic_string<char,std::char_traits<char>,std::allocator<char> > >,std::allocator<std::basic_string<char,std::char_traits<char>,std::allocator<char> > >,0> >
  0000f	c9		 leave
  00010	c3		 ret	 0
??1?$set@V?$basic_string@DU?$char_traits@D@std@@V?$allocator@D@2@@std@@U?$less@V?$basic_string@DU?$char_traits@D@std@@V?$allocator@D@2@@std@@@2@V?$allocator@V?$basic_string@DU?$char_traits@D@std@@V?$allocator@D@2@@std@@@2@@std@@QAE@XZ ENDP ; std::set<std::basic_string<char,std::char_traits<char>,std::allocator<char> >,std::less<std::basic_string<char,std::char_traits<char>,std::allocator<char> > >,std::allocator<std::basic_string<char,std::char_traits<char>,std::allocator<char> > > >::~set<std::basic_string<char,std::char_traits<char>,std::allocator<char> >,std::less<std::basic_string<char,std::char_traits<char>,std::allocator<char> > >,std::allocator<std::basic_string<char,std::char_traits<char>,std::allocator<char> > > >
_TEXT	ENDS
; Function compile flags: /Odspy
; File C:\Program Files (x86)\Microsoft Visual Studio\2019\Community\VC\Tools\MSVC\14.28.29333\include\xtree
; File C:\Program Files (x86)\Microsoft Visual Studio\2019\Community\VC\Tools\MSVC\14.28.29333\include\xstddef
; File C:\Program Files (x86)\Microsoft Visual Studio\2019\Community\VC\Tools\MSVC\14.28.29333\include\xtree
; File C:\Program Files (x86)\Microsoft Visual Studio\2019\Community\VC\Tools\MSVC\14.28.29333\include\xmemory
; File C:\Program Files (x86)\Microsoft Visual Studio\2019\Community\VC\Tools\MSVC\14.28.29333\include\xtree
;	COMDAT ?_Alloc_sentinel_and_proxy@?$_Tree@V?$_Tset_traits@V?$basic_string@DU?$char_traits@D@std@@V?$allocator@D@2@@std@@U?$less@V?$basic_string@DU?$char_traits@D@std@@V?$allocator@D@2@@std@@@2@V?$allocator@V?$basic_string@DU?$char_traits@D@std@@V?$allocator@D@2@@std@@@2@$0A@@std@@@std@@IAEXXZ
_TEXT	SEGMENT
__Alproxy$ = -28					; size = 4
__Scary$ = -24						; size = 4
$T1 = -20						; size = 4
$T2 = -16						; size = 4
$T3 = -12						; size = 4
_this$ = -8						; size = 4
_$S12$ = -1						; size = 1
?_Alloc_sentinel_and_proxy@?$_Tree@V?$_Tset_traits@V?$basic_string@DU?$char_traits@D@std@@V?$allocator@D@2@@std@@U?$less@V?$basic_string@DU?$char_traits@D@std@@V?$allocator@D@2@@std@@@2@V?$allocator@V?$basic_string@DU?$char_traits@D@std@@V?$allocator@D@2@@std@@@2@$0A@@std@@@std@@IAEXXZ PROC ; std::_Tree<std::_Tset_traits<std::basic_string<char,std::char_traits<char>,std::allocator<char> >,std::less<std::basic_string<char,std::char_traits<char>,std::allocator<char> > >,std::allocator<std::basic_string<char,std::char_traits<char>,std::allocator<char> > >,0> >::_Alloc_sentinel_and_proxy, COMDAT
; _this$ = ecx

; 2017 :     void _Alloc_sentinel_and_proxy() {

  00000	55		 push	 ebp
  00001	8b ec		 mov	 ebp, esp
  00003	83 ec 1c	 sub	 esp, 28			; 0000001cH
  00006	89 4d f8	 mov	 DWORD PTR _this$[ebp], ecx

; 2047 :         return _STD addressof(_Mypair._Myval2._Myval2);

  00009	8b 45 f8	 mov	 eax, DWORD PTR _this$[ebp]
; File C:\Program Files (x86)\Microsoft Visual Studio\2019\Community\VC\Tools\MSVC\14.28.29333\include\xstddef

; 275  :     return __builtin_addressof(_Val);

  0000c	89 45 f4	 mov	 DWORD PTR $T3[ebp], eax
; File C:\Program Files (x86)\Microsoft Visual Studio\2019\Community\VC\Tools\MSVC\14.28.29333\include\xtree

; 2047 :         return _STD addressof(_Mypair._Myval2._Myval2);

  0000f	8b 45 f4	 mov	 eax, DWORD PTR $T3[ebp]
  00012	89 45 e8	 mov	 DWORD PTR __Scary$[ebp], eax

; 2018 :         const auto _Scary = _Get_scary();
; 2019 :         auto&& _Alproxy   = _GET_PROXY_ALLOCATOR(_Alnode, _Getal());

  00015	8d 45 ff	 lea	 eax, DWORD PTR _$S12$[ebp]
  00018	89 45 e4	 mov	 DWORD PTR __Alproxy$[ebp], eax

; 2039 :         return _Mypair._Myval2._Get_first();

  0001b	8b 45 f8	 mov	 eax, DWORD PTR _this$[ebp]
; File C:\Program Files (x86)\Microsoft Visual Studio\2019\Community\VC\Tools\MSVC\14.28.29333\include\xmemory

; 1347 :         return *this;

  0001e	89 45 f0	 mov	 DWORD PTR $T2[ebp], eax
; File C:\Program Files (x86)\Microsoft Visual Studio\2019\Community\VC\Tools\MSVC\14.28.29333\include\xtree

; 2039 :         return _Mypair._Myval2._Get_first();

  00021	8b 45 f0	 mov	 eax, DWORD PTR $T2[ebp]
  00024	89 45 ec	 mov	 DWORD PTR $T1[ebp], eax

; 2020 :         _Container_proxy_ptr<_Alnode> _Proxy(_Alproxy, *_Scary);
; 2021 :         _Scary->_Myhead = _Node::_Buyheadnode(_Getal());

  00027	ff 75 ec	 push	 DWORD PTR $T1[ebp]
  0002a	e8 00 00 00 00	 call	 ??$_Buyheadnode@V?$allocator@U?$_Tree_node@V?$basic_string@DU?$char_traits@D@std@@V?$allocator@D@2@@std@@PAX@std@@@std@@@?$_Tree_node@V?$basic_string@DU?$char_traits@D@std@@V?$allocator@D@2@@std@@PAX@std@@SAPAU01@AAV?$allocator@U?$_Tree_node@V?$basic_string@DU?$char_traits@D@std@@V?$allocator@D@2@@std@@PAX@std@@@1@@Z ; std::_Tree_node<std::basic_string<char,std::char_traits<char>,std::allocator<char> >,void *>::_Buyheadnode<std::allocator<std::_Tree_node<std::basic_string<char,std::char_traits<char>,std::allocator<char> >,void *> > >
  0002f	59		 pop	 ecx
  00030	8b 4d e8	 mov	 ecx, DWORD PTR __Scary$[ebp]
  00033	89 01		 mov	 DWORD PTR [ecx], eax

; 2022 :         _Proxy._Release();
; 2023 :     }

  00035	c9		 leave
  00036	c3		 ret	 0
?_Alloc_sentinel_and_proxy@?$_Tree@V?$_Tset_traits@V?$basic_string@DU?$char_traits@D@std@@V?$allocator@D@2@@std@@U?$less@V?$basic_string@DU?$char_traits@D@std@@V?$allocator@D@2@@std@@@2@V?$allocator@V?$basic_string@DU?$char_traits@D@std@@V?$allocator@D@2@@std@@@2@$0A@@std@@@std@@IAEXXZ ENDP ; std::_Tree<std::_Tset_traits<std::basic_string<char,std::char_traits<char>,std::allocator<char> >,std::less<std::basic_string<char,std::char_traits<char>,std::allocator<char> > >,std::allocator<std::basic_string<char,std::char_traits<char>,std::allocator<char> > >,0> >::_Alloc_sentinel_and_proxy
_TEXT	ENDS
; Function compile flags: /Odspy
; File C:\Program Files (x86)\Microsoft Visual Studio\2019\Community\VC\Tools\MSVC\14.28.29333\include\xtree
; File C:\Program Files (x86)\Microsoft Visual Studio\2019\Community\VC\Tools\MSVC\14.28.29333\include\xstddef
; File C:\Program Files (x86)\Microsoft Visual Studio\2019\Community\VC\Tools\MSVC\14.28.29333\include\xtree
; File C:\Program Files (x86)\Microsoft Visual Studio\2019\Community\VC\Tools\MSVC\14.28.29333\include\xmemory
; File C:\Program Files (x86)\Microsoft Visual Studio\2019\Community\VC\Tools\MSVC\14.28.29333\include\xtree
;	COMDAT ??1?$_Tree@V?$_Tset_traits@V?$basic_string@DU?$char_traits@D@std@@V?$allocator@D@2@@std@@U?$less@V?$basic_string@DU?$char_traits@D@std@@V?$allocator@D@2@@std@@@2@V?$allocator@V?$basic_string@DU?$char_traits@D@std@@V?$allocator@D@2@@std@@@2@$0A@@std@@@std@@QAE@XZ
_TEXT	SEGMENT
$T1 = -20						; size = 4
$T2 = -16						; size = 4
$T3 = -12						; size = 4
_this$ = -8						; size = 4
__Scary$ = -4						; size = 4
??1?$_Tree@V?$_Tset_traits@V?$basic_string@DU?$char_traits@D@std@@V?$allocator@D@2@@std@@U?$less@V?$basic_string@DU?$char_traits@D@std@@V?$allocator@D@2@@std@@@2@V?$allocator@V?$basic_string@DU?$char_traits@D@std@@V?$allocator@D@2@@std@@@2@$0A@@std@@@std@@QAE@XZ PROC ; std::_Tree<std::_Tset_traits<std::basic_string<char,std::char_traits<char>,std::allocator<char> >,std::less<std::basic_string<char,std::char_traits<char>,std::allocator<char> > >,std::allocator<std::basic_string<char,std::char_traits<char>,std::allocator<char> > >,0> >::~_Tree<std::_Tset_traits<std::basic_string<char,std::char_traits<char>,std::allocator<char> >,std::less<std::basic_string<char,std::char_traits<char>,std::allocator<char> > >,std::allocator<std::basic_string<char,std::char_traits<char>,std::allocator<char> > >,0> >, COMDAT
; _this$ = ecx

; 1189 :     ~_Tree() noexcept {

  00000	55		 push	 ebp
  00001	8b ec		 mov	 ebp, esp
  00003	83 ec 14	 sub	 esp, 20			; 00000014H
  00006	89 4d f8	 mov	 DWORD PTR _this$[ebp], ecx

; 2047 :         return _STD addressof(_Mypair._Myval2._Myval2);

  00009	8b 45 f8	 mov	 eax, DWORD PTR _this$[ebp]
; File C:\Program Files (x86)\Microsoft Visual Studio\2019\Community\VC\Tools\MSVC\14.28.29333\include\xstddef

; 275  :     return __builtin_addressof(_Val);

  0000c	89 45 f0	 mov	 DWORD PTR $T2[ebp], eax
; File C:\Program Files (x86)\Microsoft Visual Studio\2019\Community\VC\Tools\MSVC\14.28.29333\include\xtree

; 2047 :         return _STD addressof(_Mypair._Myval2._Myval2);

  0000f	8b 45 f0	 mov	 eax, DWORD PTR $T2[ebp]
  00012	89 45 fc	 mov	 DWORD PTR __Scary$[ebp], eax

; 2039 :         return _Mypair._Myval2._Get_first();

  00015	8b 45 f8	 mov	 eax, DWORD PTR _this$[ebp]
; File C:\Program Files (x86)\Microsoft Visual Studio\2019\Community\VC\Tools\MSVC\14.28.29333\include\xmemory

; 1347 :         return *this;

  00018	89 45 ec	 mov	 DWORD PTR $T1[ebp], eax
; File C:\Program Files (x86)\Microsoft Visual Studio\2019\Community\VC\Tools\MSVC\14.28.29333\include\xtree

; 2039 :         return _Mypair._Myval2._Get_first();

  0001b	8b 45 ec	 mov	 eax, DWORD PTR $T1[ebp]
  0001e	89 45 f4	 mov	 DWORD PTR $T3[ebp], eax

; 752  :         _Erase_tree(_Al, _Myhead->_Parent);

  00021	8b 45 fc	 mov	 eax, DWORD PTR __Scary$[ebp]
  00024	8b 00		 mov	 eax, DWORD PTR [eax]
  00026	ff 70 04	 push	 DWORD PTR [eax+4]
  00029	ff 75 f4	 push	 DWORD PTR $T3[ebp]
  0002c	8b 4d fc	 mov	 ecx, DWORD PTR __Scary$[ebp]
  0002f	e8 00 00 00 00	 call	 ??$_Erase_tree@V?$allocator@U?$_Tree_node@V?$basic_string@DU?$char_traits@D@std@@V?$allocator@D@2@@std@@PAX@std@@@std@@@?$_Tree_val@U?$_Tree_simple_types@V?$basic_string@DU?$char_traits@D@std@@V?$allocator@D@2@@std@@@std@@@std@@QAEXAAV?$allocator@U?$_Tree_node@V?$basic_string@DU?$char_traits@D@std@@V?$allocator@D@2@@std@@PAX@std@@@1@PAU?$_Tree_node@V?$basic_string@DU?$char_traits@D@std@@V?$allocator@D@2@@std@@PAX@1@@Z ; std::_Tree_val<std::_Tree_simple_types<std::basic_string<char,std::char_traits<char>,std::allocator<char> > > >::_Erase_tree<std::allocator<std::_Tree_node<std::basic_string<char,std::char_traits<char>,std::allocator<char> >,void *> > >

; 753  :         _Alnode::value_type::_Freenode0(_Al, _Myhead);

  00034	8b 45 fc	 mov	 eax, DWORD PTR __Scary$[ebp]
  00037	ff 30		 push	 DWORD PTR [eax]
  00039	ff 75 f4	 push	 DWORD PTR $T3[ebp]
  0003c	e8 00 00 00 00	 call	 ??$_Freenode0@V?$allocator@U?$_Tree_node@V?$basic_string@DU?$char_traits@D@std@@V?$allocator@D@2@@std@@PAX@std@@@std@@@?$_Tree_node@V?$basic_string@DU?$char_traits@D@std@@V?$allocator@D@2@@std@@PAX@std@@SAXAAV?$allocator@U?$_Tree_node@V?$basic_string@DU?$char_traits@D@std@@V?$allocator@D@2@@std@@PAX@std@@@1@PAU01@@Z ; std::_Tree_node<std::basic_string<char,std::char_traits<char>,std::allocator<char> >,void *>::_Freenode0<std::allocator<std::_Tree_node<std::basic_string<char,std::char_traits<char>,std::allocator<char> >,void *> > >
  00041	59		 pop	 ecx
  00042	59		 pop	 ecx

; 1190 :         const auto _Scary = _Get_scary();
; 1191 :         _Scary->_Erase_head(_Getal());
; 1192 : #if _ITERATOR_DEBUG_LEVEL != 0 // TRANSITION, ABI
; 1193 :         auto&& _Alproxy = _GET_PROXY_ALLOCATOR(_Alnode, _Getal());
; 1194 :         _Delete_plain_internal(_Alproxy, _Scary->_Myproxy);
; 1195 : #endif // _ITERATOR_DEBUG_LEVEL != 0
; 1196 :     }

  00043	c9		 leave
  00044	c3		 ret	 0
??1?$_Tree@V?$_Tset_traits@V?$basic_string@DU?$char_traits@D@std@@V?$allocator@D@2@@std@@U?$less@V?$basic_string@DU?$char_traits@D@std@@V?$allocator@D@2@@std@@@2@V?$allocator@V?$basic_string@DU?$char_traits@D@std@@V?$allocator@D@2@@std@@@2@$0A@@std@@@std@@QAE@XZ ENDP ; std::_Tree<std::_Tset_traits<std::basic_string<char,std::char_traits<char>,std::allocator<char> >,std::less<std::basic_string<char,std::char_traits<char>,std::allocator<char> > >,std::allocator<std::basic_string<char,std::char_traits<char>,std::allocator<char> > >,0> >::~_Tree<std::_Tset_traits<std::basic_string<char,std::char_traits<char>,std::allocator<char> >,std::less<std::basic_string<char,std::char_traits<char>,std::allocator<char> > >,std::allocator<std::basic_string<char,std::char_traits<char>,std::allocator<char> > >,0> >
_TEXT	ENDS
; Function compile flags: /Odspy
; File C:\Program Files (x86)\Microsoft Visual Studio\2019\Community\VC\Tools\MSVC\14.28.29333\include\xtree
; File C:\Program Files (x86)\Microsoft Visual Studio\2019\Community\VC\Tools\MSVC\14.28.29333\include\type_traits
; File C:\Program Files (x86)\Microsoft Visual Studio\2019\Community\VC\Tools\MSVC\14.28.29333\include\xmemory
; File C:\Program Files (x86)\Microsoft Visual Studio\2019\Community\VC\Tools\MSVC\14.28.29333\include\xtree
;	COMDAT ??0?$_Tree@V?$_Tset_traits@V?$basic_string@DU?$char_traits@D@std@@V?$allocator@D@2@@std@@U?$less@V?$basic_string@DU?$char_traits@D@std@@V?$allocator@D@2@@std@@@2@V?$allocator@V?$basic_string@DU?$char_traits@D@std@@V?$allocator@D@2@@std@@@2@$0A@@std@@@std@@QAE@ABU?$less@V?$basic_string@DU?$char_traits@D@std@@V?$allocator@D@2@@std@@@1@@Z
_TEXT	SEGMENT
_this$ = -28						; size = 4
_this$ = -24						; size = 4
$T1 = -20						; size = 4
_this$2 = -16						; size = 4
_this$ = -12						; size = 4
___formal$ = -8						; size = 1
$T3 = -1						; size = 1
__Parg$ = 8						; size = 4
??0?$_Tree@V?$_Tset_traits@V?$basic_string@DU?$char_traits@D@std@@V?$allocator@D@2@@std@@U?$less@V?$basic_string@DU?$char_traits@D@std@@V?$allocator@D@2@@std@@@2@V?$allocator@V?$basic_string@DU?$char_traits@D@std@@V?$allocator@D@2@@std@@@2@$0A@@std@@@std@@QAE@ABU?$less@V?$basic_string@DU?$char_traits@D@std@@V?$allocator@D@2@@std@@@1@@Z PROC ; std::_Tree<std::_Tset_traits<std::basic_string<char,std::char_traits<char>,std::allocator<char> >,std::less<std::basic_string<char,std::char_traits<char>,std::allocator<char> > >,std::allocator<std::basic_string<char,std::char_traits<char>,std::allocator<char> > >,0> >::_Tree<std::_Tset_traits<std::basic_string<char,std::char_traits<char>,std::allocator<char> >,std::less<std::basic_string<char,std::char_traits<char>,std::allocator<char> > >,std::allocator<std::basic_string<char,std::char_traits<char>,std::allocator<char> > >,0> >, COMDAT
; _this$ = ecx

; 885  :     _Tree(const key_compare& _Parg) : _Mypair(_One_then_variadic_args_t{}, _Parg, _Zero_then_variadic_args_t{}) {

  00000	55		 push	 ebp
  00001	8b ec		 mov	 ebp, esp
  00003	83 ec 1c	 sub	 esp, 28			; 0000001cH
  00006	89 4d f4	 mov	 DWORD PTR _this$[ebp], ecx
  00009	8b 45 f4	 mov	 eax, DWORD PTR _this$[ebp]
  0000c	89 45 e8	 mov	 DWORD PTR _this$[ebp], eax
; File C:\Program Files (x86)\Microsoft Visual Studio\2019\Community\VC\Tools\MSVC\14.28.29333\include\type_traits

; 1443 :     return static_cast<_Ty&&>(_Arg);

  0000f	8d 45 ff	 lea	 eax, DWORD PTR $T3[ebp]
  00012	89 45 ec	 mov	 DWORD PTR $T1[ebp], eax
; File C:\Program Files (x86)\Microsoft Visual Studio\2019\Community\VC\Tools\MSVC\14.28.29333\include\xmemory

; 1344 :         : _Ty1(_STD forward<_Other1>(_Val1)), _Myval2(_STD forward<_Other2>(_Val2)...) {}

  00015	8b 45 ec	 mov	 eax, DWORD PTR $T1[ebp]
  00018	8a 00		 mov	 al, BYTE PTR [eax]
  0001a	88 45 f8	 mov	 BYTE PTR ___formal$[ebp], al
  0001d	8b 45 e8	 mov	 eax, DWORD PTR _this$[ebp]
  00020	89 45 e4	 mov	 DWORD PTR _this$[ebp], eax

; 1339 :         : _Ty1(), _Myval2(_STD forward<_Other2>(_Val2)...) {}

  00023	8b 45 e4	 mov	 eax, DWORD PTR _this$[ebp]
  00026	89 45 f0	 mov	 DWORD PTR _this$2[ebp], eax
; File C:\Program Files (x86)\Microsoft Visual Studio\2019\Community\VC\Tools\MSVC\14.28.29333\include\xtree

; 435  :     _Tree_val() noexcept : _Myhead(), _Mysize(0) {}

  00029	8b 45 f0	 mov	 eax, DWORD PTR _this$2[ebp]
  0002c	83 20 00	 and	 DWORD PTR [eax], 0
  0002f	8b 45 f0	 mov	 eax, DWORD PTR _this$2[ebp]
  00032	83 60 04 00	 and	 DWORD PTR [eax+4], 0

; 886  :         _Alloc_sentinel_and_proxy();

  00036	8b 4d f4	 mov	 ecx, DWORD PTR _this$[ebp]
  00039	e8 00 00 00 00	 call	 ?_Alloc_sentinel_and_proxy@?$_Tree@V?$_Tset_traits@V?$basic_string@DU?$char_traits@D@std@@V?$allocator@D@2@@std@@U?$less@V?$basic_string@DU?$char_traits@D@std@@V?$allocator@D@2@@std@@@2@V?$allocator@V?$basic_string@DU?$char_traits@D@std@@V?$allocator@D@2@@std@@@2@$0A@@std@@@std@@IAEXXZ ; std::_Tree<std::_Tset_traits<std::basic_string<char,std::char_traits<char>,std::allocator<char> >,std::less<std::basic_string<char,std::char_traits<char>,std::allocator<char> > >,std::allocator<std::basic_string<char,std::char_traits<char>,std::allocator<char> > >,0> >::_Alloc_sentinel_and_proxy

; 887  :     }

  0003e	8b 45 f4	 mov	 eax, DWORD PTR _this$[ebp]
  00041	c9		 leave
  00042	c2 04 00	 ret	 4
??0?$_Tree@V?$_Tset_traits@V?$basic_string@DU?$char_traits@D@std@@V?$allocator@D@2@@std@@U?$less@V?$basic_string@DU?$char_traits@D@std@@V?$allocator@D@2@@std@@@2@V?$allocator@V?$basic_string@DU?$char_traits@D@std@@V?$allocator@D@2@@std@@@2@$0A@@std@@@std@@QAE@ABU?$less@V?$basic_string@DU?$char_traits@D@std@@V?$allocator@D@2@@std@@@1@@Z ENDP ; std::_Tree<std::_Tset_traits<std::basic_string<char,std::char_traits<char>,std::allocator<char> >,std::less<std::basic_string<char,std::char_traits<char>,std::allocator<char> > >,std::allocator<std::basic_string<char,std::char_traits<char>,std::allocator<char> > >,0> >::_Tree<std::_Tset_traits<std::basic_string<char,std::char_traits<char>,std::allocator<char> >,std::less<std::basic_string<char,std::char_traits<char>,std::allocator<char> > >,std::allocator<std::basic_string<char,std::char_traits<char>,std::allocator<char> > >,0> >
_TEXT	ENDS
; Function compile flags: /Odspy
; File D:\Metin2 Server Files\mainline\SRC_2014\Metin2Client\UserInterface\PythonSystemModule.cpp
; File C:\Program Files (x86)\Microsoft Visual Studio\2019\Community\VC\Tools\MSVC\14.28.29333\include\set
; File D:\Metin2 Server Files\mainline\SRC_2014\Metin2Client\UserInterface\PythonSystemModule.cpp
;	COMDAT ?systemReserveResource@@YAPAU_object@@PAU1@0@Z
_TEXT	SEGMENT
_ResourceSet$ = -28					; size = 8
$T2 = -20						; size = 4
$T3 = -13						; size = 1
__$EHRec$ = -12						; size = 12
_poSelf$ = 8						; size = 4
_poArgs$ = 12						; size = 4
?systemReserveResource@@YAPAU_object@@PAU1@0@Z PROC	; systemReserveResource, COMDAT

; 31   : {

  00000	55		 push	 ebp
  00001	8b ec		 mov	 ebp, esp
  00003	6a ff		 push	 -1
  00005	68 00 00 00 00	 push	 __ehhandler$?systemReserveResource@@YAPAU_object@@PAU1@0@Z
  0000a	64 a1 00 00 00
	00		 mov	 eax, DWORD PTR fs:0
  00010	50		 push	 eax
  00011	83 ec 10	 sub	 esp, 16			; 00000010H
  00014	a1 00 00 00 00	 mov	 eax, DWORD PTR ___security_cookie
  00019	33 c5		 xor	 eax, ebp
  0001b	50		 push	 eax
  0001c	8d 45 f4	 lea	 eax, DWORD PTR __$EHRec$[ebp]
  0001f	64 a3 00 00 00
	00		 mov	 DWORD PTR fs:0, eax
; File C:\Program Files (x86)\Microsoft Visual Studio\2019\Community\VC\Tools\MSVC\14.28.29333\include\set

; 84   :     set() : _Mybase(key_compare()) {}

  00025	8d 45 f3	 lea	 eax, DWORD PTR $T3[ebp]
  00028	50		 push	 eax
  00029	8d 4d e4	 lea	 ecx, DWORD PTR _ResourceSet$[ebp]
  0002c	e8 00 00 00 00	 call	 ??0?$_Tree@V?$_Tset_traits@V?$basic_string@DU?$char_traits@D@std@@V?$allocator@D@2@@std@@U?$less@V?$basic_string@DU?$char_traits@D@std@@V?$allocator@D@2@@std@@@2@V?$allocator@V?$basic_string@DU?$char_traits@D@std@@V?$allocator@D@2@@std@@@2@$0A@@std@@@std@@QAE@ABU?$less@V?$basic_string@DU?$char_traits@D@std@@V?$allocator@D@2@@std@@@1@@Z ; std::_Tree<std::_Tset_traits<std::basic_string<char,std::char_traits<char>,std::allocator<char> >,std::less<std::basic_string<char,std::char_traits<char>,std::allocator<char> > >,std::allocator<std::basic_string<char,std::char_traits<char>,std::allocator<char> > >,0> >::_Tree<std::_Tset_traits<std::basic_string<char,std::char_traits<char>,std::allocator<char> >,std::less<std::basic_string<char,std::char_traits<char>,std::allocator<char> > >,std::allocator<std::basic_string<char,std::char_traits<char>,std::allocator<char> > >,0> >
; File D:\Metin2 Server Files\mainline\SRC_2014\Metin2Client\UserInterface\PythonSystemModule.cpp

; 32   : 	std::set<std::string> ResourceSet;

  00031	83 65 fc 00	 and	 DWORD PTR __$EHRec$[ebp+8], 0

; 33   : 	CResourceManager::Instance().PushBackgroundLoadingSet(ResourceSet);

  00035	8d 45 e4	 lea	 eax, DWORD PTR _ResourceSet$[ebp]
  00038	50		 push	 eax
  00039	8b 0d 00 00 00
	00		 mov	 ecx, DWORD PTR ?ms_singleton@?$CSingleton@VCResourceManager@@@@0PAVCResourceManager@@A ; CSingleton<CResourceManager>::ms_singleton
  0003f	e8 00 00 00 00	 call	 ?PushBackgroundLoadingSet@CResourceManager@@QAEXAAV?$set@V?$basic_string@DU?$char_traits@D@std@@V?$allocator@D@2@@std@@U?$less@V?$basic_string@DU?$char_traits@D@std@@V?$allocator@D@2@@std@@@2@V?$allocator@V?$basic_string@DU?$char_traits@D@std@@V?$allocator@D@2@@std@@@2@@std@@@Z ; CResourceManager::PushBackgroundLoadingSet

; 34   : 	return Py_BuildNone();

  00044	e8 00 00 00 00	 call	 ?Py_BuildNone@@YAPAU_object@@XZ ; Py_BuildNone
  00049	89 45 ec	 mov	 DWORD PTR $T2[ebp], eax
  0004c	83 4d fc ff	 or	 DWORD PTR __$EHRec$[ebp+8], -1
  00050	8d 4d e4	 lea	 ecx, DWORD PTR _ResourceSet$[ebp]
  00053	e8 00 00 00 00	 call	 ??1?$_Tree@V?$_Tset_traits@V?$basic_string@DU?$char_traits@D@std@@V?$allocator@D@2@@std@@U?$less@V?$basic_string@DU?$char_traits@D@std@@V?$allocator@D@2@@std@@@2@V?$allocator@V?$basic_string@DU?$char_traits@D@std@@V?$allocator@D@2@@std@@@2@$0A@@std@@@std@@QAE@XZ ; std::_Tree<std::_Tset_traits<std::basic_string<char,std::char_traits<char>,std::allocator<char> >,std::less<std::basic_string<char,std::char_traits<char>,std::allocator<char> > >,std::allocator<std::basic_string<char,std::char_traits<char>,std::allocator<char> > >,0> >::~_Tree<std::_Tset_traits<std::basic_string<char,std::char_traits<char>,std::allocator<char> >,std::less<std::basic_string<char,std::char_traits<char>,std::allocator<char> > >,std::allocator<std::basic_string<char,std::char_traits<char>,std::allocator<char> > >,0> >
  00058	8b 45 ec	 mov	 eax, DWORD PTR $T2[ebp]

; 35   : }

  0005b	8b 4d f4	 mov	 ecx, DWORD PTR __$EHRec$[ebp]
  0005e	64 89 0d 00 00
	00 00		 mov	 DWORD PTR fs:0, ecx
  00065	59		 pop	 ecx
  00066	c9		 leave
  00067	c3		 ret	 0
_TEXT	ENDS
;	COMDAT text$x
text$x	SEGMENT
__unwindfunclet$?systemReserveResource@@YAPAU_object@@PAU1@0@Z$0:
  00000	8d 4d e4	 lea	 ecx, DWORD PTR _ResourceSet$[ebp]
  00003	e9 00 00 00 00	 jmp	 ??1?$set@V?$basic_string@DU?$char_traits@D@std@@V?$allocator@D@2@@std@@U?$less@V?$basic_string@DU?$char_traits@D@std@@V?$allocator@D@2@@std@@@2@V?$allocator@V?$basic_string@DU?$char_traits@D@std@@V?$allocator@D@2@@std@@@2@@std@@QAE@XZ
  00008	cc		 int	 3
  00009	cc		 int	 3
  0000a	cc		 int	 3
  0000b	cc		 int	 3
  0000c	cc		 int	 3
__ehhandler$?systemReserveResource@@YAPAU_object@@PAU1@0@Z:
  0000d	90		 npad	 1
  0000e	90		 npad	 1
  0000f	8b 54 24 08	 mov	 edx, DWORD PTR [esp+8]
  00013	8d 42 0c	 lea	 eax, DWORD PTR [edx+12]
  00016	8b 4a ec	 mov	 ecx, DWORD PTR [edx-20]
  00019	33 c8		 xor	 ecx, eax
  0001b	e8 00 00 00 00	 call	 @__security_check_cookie@4
  00020	b8 00 00 00 00	 mov	 eax, OFFSET __ehfuncinfo$?systemReserveResource@@YAPAU_object@@PAU1@0@Z
  00025	e9 00 00 00 00	 jmp	 ___CxxFrameHandler3
text$x	ENDS
?systemReserveResource@@YAPAU_object@@PAU1@0@Z ENDP	; systemReserveResource
; Function compile flags: /Odspy
; File D:\Metin2 Server Files\mainline\SRC_2014\Metin2Client\UserInterface\PythonSystemModule.cpp
;	COMDAT ?systemDestroyInterfaceHandler@@YAPAU_object@@PAU1@0@Z
_TEXT	SEGMENT
_poSelf$ = 8						; size = 4
_poArgs$ = 12						; size = 4
?systemDestroyInterfaceHandler@@YAPAU_object@@PAU1@0@Z PROC ; systemDestroyInterfaceHandler, COMDAT

; 25   : {

  00000	55		 push	 ebp
  00001	8b ec		 mov	 ebp, esp

; 26   : 	CPythonSystem::Instance().DestroyInterfaceHandler();

  00003	8b 0d 00 00 00
	00		 mov	 ecx, DWORD PTR ?ms_singleton@?$CSingleton@VCPythonSystem@@@@0PAVCPythonSystem@@A ; CSingleton<CPythonSystem>::ms_singleton
  00009	e8 00 00 00 00	 call	 ?DestroyInterfaceHandler@CPythonSystem@@QAEXXZ ; CPythonSystem::DestroyInterfaceHandler

; 27   : 	return Py_BuildNone();

  0000e	e8 00 00 00 00	 call	 ?Py_BuildNone@@YAPAU_object@@XZ ; Py_BuildNone

; 28   : }

  00013	5d		 pop	 ebp
  00014	c3		 ret	 0
?systemDestroyInterfaceHandler@@YAPAU_object@@PAU1@0@Z ENDP ; systemDestroyInterfaceHandler
_TEXT	ENDS
; Function compile flags: /Odspy
; File D:\Metin2 Server Files\mainline\SRC_2014\Metin2Client\UserInterface\PythonSystemModule.cpp
;	COMDAT ?systemSetInterfaceHandler@@YAPAU_object@@PAU1@0@Z
_TEXT	SEGMENT
_poHandler$ = -4					; size = 4
_poSelf$ = 8						; size = 4
_poArgs$ = 12						; size = 4
?systemSetInterfaceHandler@@YAPAU_object@@PAU1@0@Z PROC	; systemSetInterfaceHandler, COMDAT

; 15   : {

  00000	55		 push	 ebp
  00001	8b ec		 mov	 ebp, esp
  00003	51		 push	 ecx

; 16   : 	PyObject* poHandler;
; 17   : 	if (!PyTuple_GetObject(poArgs, 0, &poHandler))

  00004	8d 45 fc	 lea	 eax, DWORD PTR _poHandler$[ebp]
  00007	50		 push	 eax
  00008	6a 00		 push	 0
  0000a	ff 75 0c	 push	 DWORD PTR _poArgs$[ebp]
  0000d	e8 00 00 00 00	 call	 ?PyTuple_GetObject@@YA_NPAU_object@@HPAPAU1@@Z ; PyTuple_GetObject
  00012	83 c4 0c	 add	 esp, 12			; 0000000cH
  00015	0f b6 c0	 movzx	 eax, al
  00018	85 c0		 test	 eax, eax
  0001a	75 0a		 jne	 SHORT $LN4@systemSetI

; 18   : 		return Py_BuildException();

  0001c	6a 00		 push	 0
  0001e	e8 00 00 00 00	 call	 ?Py_BuildException@@YAPAU_object@@PBDZZ ; Py_BuildException
  00023	59		 pop	 ecx
  00024	eb 13		 jmp	 SHORT $LN1@systemSetI
$LN4@systemSetI:

; 19   : 
; 20   : 	CPythonSystem::Instance().SetInterfaceHandler(poHandler);

  00026	ff 75 fc	 push	 DWORD PTR _poHandler$[ebp]
  00029	8b 0d 00 00 00
	00		 mov	 ecx, DWORD PTR ?ms_singleton@?$CSingleton@VCPythonSystem@@@@0PAVCPythonSystem@@A ; CSingleton<CPythonSystem>::ms_singleton
  0002f	e8 00 00 00 00	 call	 ?SetInterfaceHandler@CPythonSystem@@QAEXPAU_object@@@Z ; CPythonSystem::SetInterfaceHandler

; 21   : 	return Py_BuildNone();

  00034	e8 00 00 00 00	 call	 ?Py_BuildNone@@YAPAU_object@@XZ ; Py_BuildNone
$LN1@systemSetI:

; 22   : }

  00039	c9		 leave
  0003a	c3		 ret	 0
?systemSetInterfaceHandler@@YAPAU_object@@PAU1@0@Z ENDP	; systemSetInterfaceHandler
_TEXT	ENDS
; Function compile flags: /Odspy
; File D:\Metin2 Server Files\mainline\SRC_2014\Metin2Client\UserInterface\PythonSystemModule.cpp
; File D:\Metin2 Server Files\mainline\SRC_2014\Metin2Client\eterBase\Singleton.h
; File D:\Metin2 Server Files\mainline\SRC_2014\Metin2Client\UserInterface\PythonSystemModule.cpp
;	COMDAT ?systemGetHeight@@YAPAU_object@@PAU1@0@Z
_TEXT	SEGMENT
$T1 = -4						; size = 4
_poSelf$ = 8						; size = 4
_poArgs$ = 12						; size = 4
?systemGetHeight@@YAPAU_object@@PAU1@0@Z PROC		; systemGetHeight, COMDAT

; 10   : {

  00000	55		 push	 ebp
  00001	8b ec		 mov	 ebp, esp
  00003	51		 push	 ecx
; File D:\Metin2 Server Files\mainline\SRC_2014\Metin2Client\eterBase\Singleton.h

; 27   : 		return (*ms_singleton);

  00004	a1 00 00 00 00	 mov	 eax, DWORD PTR ?ms_singleton@?$CSingleton@VCPythonSystem@@@@0PAVCPythonSystem@@A ; CSingleton<CPythonSystem>::ms_singleton
  00009	89 45 fc	 mov	 DWORD PTR $T1[ebp], eax
; File D:\Metin2 Server Files\mainline\SRC_2014\Metin2Client\UserInterface\PythonSystemModule.cpp

; 11   : 	return Py_BuildValue("i", CPythonSystem::Instance().GetHeight());

  0000c	8b 4d fc	 mov	 ecx, DWORD PTR $T1[ebp]
  0000f	e8 00 00 00 00	 call	 ?GetHeight@CPythonSystem@@QAEKXZ ; CPythonSystem::GetHeight
  00014	50		 push	 eax
  00015	68 00 00 00 00	 push	 OFFSET ??_C@_01KBJDNOO@i@
  0001a	ff 15 00 00 00
	00		 call	 DWORD PTR __imp__Py_BuildValue
  00020	59		 pop	 ecx
  00021	59		 pop	 ecx

; 12   : }

  00022	c9		 leave
  00023	c3		 ret	 0
?systemGetHeight@@YAPAU_object@@PAU1@0@Z ENDP		; systemGetHeight
_TEXT	ENDS
; Function compile flags: /Odspy
; File D:\Metin2 Server Files\mainline\SRC_2014\Metin2Client\UserInterface\PythonSystemModule.cpp
; File D:\Metin2 Server Files\mainline\SRC_2014\Metin2Client\eterBase\Singleton.h
; File D:\Metin2 Server Files\mainline\SRC_2014\Metin2Client\UserInterface\PythonSystemModule.cpp
;	COMDAT ?systemGetWidth@@YAPAU_object@@PAU1@0@Z
_TEXT	SEGMENT
$T1 = -4						; size = 4
_poSelf$ = 8						; size = 4
_poArgs$ = 12						; size = 4
?systemGetWidth@@YAPAU_object@@PAU1@0@Z PROC		; systemGetWidth, COMDAT

; 5    : {

  00000	55		 push	 ebp
  00001	8b ec		 mov	 ebp, esp
  00003	51		 push	 ecx
; File D:\Metin2 Server Files\mainline\SRC_2014\Metin2Client\eterBase\Singleton.h

; 27   : 		return (*ms_singleton);

  00004	a1 00 00 00 00	 mov	 eax, DWORD PTR ?ms_singleton@?$CSingleton@VCPythonSystem@@@@0PAVCPythonSystem@@A ; CSingleton<CPythonSystem>::ms_singleton
  00009	89 45 fc	 mov	 DWORD PTR $T1[ebp], eax
; File D:\Metin2 Server Files\mainline\SRC_2014\Metin2Client\UserInterface\PythonSystemModule.cpp

; 6    : 	return Py_BuildValue("i", CPythonSystem::Instance().GetWidth());

  0000c	8b 4d fc	 mov	 ecx, DWORD PTR $T1[ebp]
  0000f	e8 00 00 00 00	 call	 ?GetWidth@CPythonSystem@@QAEKXZ ; CPythonSystem::GetWidth
  00014	50		 push	 eax
  00015	68 00 00 00 00	 push	 OFFSET ??_C@_01KBJDNOO@i@
  0001a	ff 15 00 00 00
	00		 call	 DWORD PTR __imp__Py_BuildValue
  00020	59		 pop	 ecx
  00021	59		 pop	 ecx

; 7    : }

  00022	c9		 leave
  00023	c3		 ret	 0
?systemGetWidth@@YAPAU_object@@PAU1@0@Z ENDP		; systemGetWidth
_TEXT	ENDS
; Function compile flags: /Odspy
; File C:\Program Files (x86)\Microsoft Visual Studio\2019\Community\VC\Tools\MSVC\14.28.29333\include\xmemory
;	COMDAT ??$_Allocate_manually_vector_aligned@U_Default_allocate_traits@std@@@std@@YAPAXI@Z
_TEXT	SEGMENT
__Ptr$ = -12						; size = 4
__Block_size$ = -8					; size = 4
__Ptr_container$ = -4					; size = 4
__Bytes$ = 8						; size = 4
??$_Allocate_manually_vector_aligned@U_Default_allocate_traits@std@@@std@@YAPAXI@Z PROC ; std::_Allocate_manually_vector_aligned<std::_Default_allocate_traits>, COMDAT

; 113  : __declspec(allocator) void* _Allocate_manually_vector_aligned(const size_t _Bytes) {

  00000	55		 push	 ebp
  00001	8b ec		 mov	 ebp, esp
  00003	83 ec 0c	 sub	 esp, 12			; 0000000cH

; 114  :     // allocate _Bytes manually aligned to at least _Big_allocation_alignment
; 115  :     const size_t _Block_size = _Non_user_size + _Bytes;

  00006	8b 45 08	 mov	 eax, DWORD PTR __Bytes$[ebp]
  00009	83 c0 23	 add	 eax, 35			; 00000023H
  0000c	89 45 f8	 mov	 DWORD PTR __Block_size$[ebp], eax

; 116  :     if (_Block_size <= _Bytes) {

  0000f	8b 45 f8	 mov	 eax, DWORD PTR __Block_size$[ebp]
  00012	3b 45 08	 cmp	 eax, DWORD PTR __Bytes$[ebp]
  00015	77 05		 ja	 SHORT $LN12@Allocate_m

; 117  :         _Throw_bad_array_new_length(); // add overflow

  00017	e8 00 00 00 00	 call	 ?_Throw_bad_array_new_length@std@@YAXXZ ; std::_Throw_bad_array_new_length
$LN12@Allocate_m:

; 77   :         return ::operator new(_Bytes);

  0001c	ff 75 f8	 push	 DWORD PTR __Block_size$[ebp]
  0001f	e8 00 00 00 00	 call	 ??2@YAPAXI@Z		; operator new
  00024	59		 pop	 ecx

; 118  :     }
; 119  : 
; 120  :     const uintptr_t _Ptr_container = reinterpret_cast<uintptr_t>(_Traits::_Allocate(_Block_size));

  00025	89 45 fc	 mov	 DWORD PTR __Ptr_container$[ebp], eax
$LN4@Allocate_m:

; 121  :     _STL_VERIFY(_Ptr_container != 0, "invalid argument"); // validate even in release since we're doing p[-1]

  00028	83 7d fc 00	 cmp	 DWORD PTR __Ptr_container$[ebp], 0
  0002c	74 02		 je	 SHORT $LN7@Allocate_m
  0002e	eb 09		 jmp	 SHORT $LN2@Allocate_m
$LN7@Allocate_m:
  00030	e8 00 00 00 00	 call	 __invalid_parameter_noinfo_noreturn
  00035	33 c0		 xor	 eax, eax
  00037	75 f7		 jne	 SHORT $LN7@Allocate_m
$LN2@Allocate_m:
  00039	33 c0		 xor	 eax, eax
  0003b	75 eb		 jne	 SHORT $LN4@Allocate_m

; 122  :     void* const _Ptr = reinterpret_cast<void*>((_Ptr_container + _Non_user_size) & ~(_Big_allocation_alignment - 1));

  0003d	8b 45 fc	 mov	 eax, DWORD PTR __Ptr_container$[ebp]
  00040	83 c0 23	 add	 eax, 35			; 00000023H
  00043	83 e0 e0	 and	 eax, -32		; ffffffe0H
  00046	89 45 f4	 mov	 DWORD PTR __Ptr$[ebp], eax

; 123  :     static_cast<uintptr_t*>(_Ptr)[-1] = _Ptr_container;

  00049	6a 04		 push	 4
  0004b	58		 pop	 eax
  0004c	6b c0 ff	 imul	 eax, eax, -1
  0004f	8b 4d f4	 mov	 ecx, DWORD PTR __Ptr$[ebp]
  00052	8b 55 fc	 mov	 edx, DWORD PTR __Ptr_container$[ebp]
  00055	89 14 01	 mov	 DWORD PTR [ecx+eax], edx

; 124  : 
; 125  : #ifdef _DEBUG
; 126  :     static_cast<uintptr_t*>(_Ptr)[-2] = _Big_allocation_sentinel;
; 127  : #endif // _DEBUG
; 128  :     return _Ptr;

  00058	8b 45 f4	 mov	 eax, DWORD PTR __Ptr$[ebp]
$LN11@Allocate_m:

; 129  : }

  0005b	c9		 leave
  0005c	c3		 ret	 0
??$_Allocate_manually_vector_aligned@U_Default_allocate_traits@std@@@std@@YAPAXI@Z ENDP ; std::_Allocate_manually_vector_aligned<std::_Default_allocate_traits>
_TEXT	ENDS
; Function compile flags: /Odspy
; File C:\Program Files (x86)\Microsoft Visual Studio\2019\Community\VC\Tools\MSVC\14.28.29333\include\xmemory
;	COMDAT ??$_Allocate@$07U_Default_allocate_traits@std@@$0A@@std@@YAPAXI@Z
_TEXT	SEGMENT
__Bytes$ = 8						; size = 4
??$_Allocate@$07U_Default_allocate_traits@std@@$0A@@std@@YAPAXI@Z PROC ; std::_Allocate<8,std::_Default_allocate_traits,0>, COMDAT

; 197  : __declspec(allocator) void* _Allocate(const size_t _Bytes) {

  00000	55		 push	 ebp
  00001	8b ec		 mov	 ebp, esp

; 198  :     // allocate _Bytes when !_HAS_ALIGNED_NEW || _Align <= __STDCPP_DEFAULT_NEW_ALIGNMENT__
; 199  : #if defined(_M_IX86) || defined(_M_X64)
; 200  :     if (_Bytes >= _Big_allocation_threshold) { // boost the alignment of big allocations to help autovectorization

  00003	81 7d 08 00 10
	00 00		 cmp	 DWORD PTR __Bytes$[ebp], 4096 ; 00001000H
  0000a	72 0b		 jb	 SHORT $LN2@Allocate

; 201  :         return _Allocate_manually_vector_aligned<_Traits>(_Bytes);

  0000c	ff 75 08	 push	 DWORD PTR __Bytes$[ebp]
  0000f	e8 00 00 00 00	 call	 ??$_Allocate_manually_vector_aligned@U_Default_allocate_traits@std@@@std@@YAPAXI@Z ; std::_Allocate_manually_vector_aligned<std::_Default_allocate_traits>
  00014	59		 pop	 ecx
  00015	eb 13		 jmp	 SHORT $LN1@Allocate
$LN2@Allocate:

; 202  :     }
; 203  : #endif // defined(_M_IX86) || defined(_M_X64)
; 204  : 
; 205  :     if (_Bytes != 0) {

  00017	83 7d 08 00	 cmp	 DWORD PTR __Bytes$[ebp], 0
  0001b	74 0b		 je	 SHORT $LN3@Allocate

; 77   :         return ::operator new(_Bytes);

  0001d	ff 75 08	 push	 DWORD PTR __Bytes$[ebp]
  00020	e8 00 00 00 00	 call	 ??2@YAPAXI@Z		; operator new
  00025	59		 pop	 ecx

; 206  :         return _Traits::_Allocate(_Bytes);

  00026	eb 02		 jmp	 SHORT $LN1@Allocate
$LN3@Allocate:

; 207  :     }
; 208  : 
; 209  :     return nullptr;

  00028	33 c0		 xor	 eax, eax
$LN1@Allocate:

; 210  : }

  0002a	5d		 pop	 ebp
  0002b	c3		 ret	 0
??$_Allocate@$07U_Default_allocate_traits@std@@$0A@@std@@YAPAXI@Z ENDP ; std::_Allocate<8,std::_Default_allocate_traits,0>
_TEXT	ENDS
; Function compile flags: /Odspy
; File C:\Program Files (x86)\Microsoft Visual Studio\2019\Community\VC\Tools\MSVC\14.28.29333\include\xmemory
;	COMDAT ??$_Deallocate@$07$0A@@std@@YAXPAXI@Z
_TEXT	SEGMENT
__$EHRec$ = -12						; size = 12
__Ptr$ = 8						; size = 4
__Bytes$ = 12						; size = 4
??$_Deallocate@$07$0A@@std@@YAXPAXI@Z PROC		; std::_Deallocate<8,0>, COMDAT

; 213  : void _Deallocate(void* _Ptr, size_t _Bytes) noexcept {

  00000	55		 push	 ebp
  00001	8b ec		 mov	 ebp, esp
  00003	6a ff		 push	 -1
  00005	68 00 00 00 00	 push	 __ehhandler$??$_Deallocate@$07$0A@@std@@YAXPAXI@Z
  0000a	64 a1 00 00 00
	00		 mov	 eax, DWORD PTR fs:0
  00010	50		 push	 eax
  00011	a1 00 00 00 00	 mov	 eax, DWORD PTR ___security_cookie
  00016	33 c5		 xor	 eax, ebp
  00018	50		 push	 eax
  00019	8d 45 f4	 lea	 eax, DWORD PTR __$EHRec$[ebp]
  0001c	64 a3 00 00 00
	00		 mov	 DWORD PTR fs:0, eax

; 214  :     // deallocate storage allocated by _Allocate when !_HAS_ALIGNED_NEW || _Align <= __STDCPP_DEFAULT_NEW_ALIGNMENT__
; 215  : #if defined(_M_IX86) || defined(_M_X64)
; 216  :     if (_Bytes >= _Big_allocation_threshold) { // boost the alignment of big allocations to help autovectorization

  00022	81 7d 0c 00 10
	00 00		 cmp	 DWORD PTR __Bytes$[ebp], 4096 ; 00001000H
  00029	72 0f		 jb	 SHORT $LN2@Deallocate

; 217  :         _Adjust_manually_vector_aligned(_Ptr, _Bytes);

  0002b	8d 45 0c	 lea	 eax, DWORD PTR __Bytes$[ebp]
  0002e	50		 push	 eax
  0002f	8d 45 08	 lea	 eax, DWORD PTR __Ptr$[ebp]
  00032	50		 push	 eax
  00033	e8 00 00 00 00	 call	 ?_Adjust_manually_vector_aligned@std@@YAXAAPAXAAI@Z ; std::_Adjust_manually_vector_aligned
  00038	59		 pop	 ecx
  00039	59		 pop	 ecx
$LN2@Deallocate:

; 218  :     }
; 219  : #endif // defined(_M_IX86) || defined(_M_X64)
; 220  : 
; 221  :     ::operator delete(_Ptr, _Bytes);

  0003a	ff 75 0c	 push	 DWORD PTR __Bytes$[ebp]
  0003d	ff 75 08	 push	 DWORD PTR __Ptr$[ebp]
  00040	e8 00 00 00 00	 call	 ??3@YAXPAXI@Z		; operator delete
  00045	59		 pop	 ecx
  00046	59		 pop	 ecx

; 222  : }

  00047	8b 4d f4	 mov	 ecx, DWORD PTR __$EHRec$[ebp]
  0004a	64 89 0d 00 00
	00 00		 mov	 DWORD PTR fs:0, ecx
  00051	59		 pop	 ecx
  00052	c9		 leave
  00053	c3		 ret	 0
  00054	cc		 int	 3
  00055	cc		 int	 3
  00056	cc		 int	 3
  00057	cc		 int	 3
  00058	cc		 int	 3
_TEXT	ENDS
;	COMDAT text$x
text$x	SEGMENT
__ehhandler$??$_Deallocate@$07$0A@@std@@YAXPAXI@Z:
  00000	90		 npad	 1
  00001	90		 npad	 1
  00002	8b 54 24 08	 mov	 edx, DWORD PTR [esp+8]
  00006	8d 42 0c	 lea	 eax, DWORD PTR [edx+12]
  00009	8b 4a fc	 mov	 ecx, DWORD PTR [edx-4]
  0000c	33 c8		 xor	 ecx, eax
  0000e	e8 00 00 00 00	 call	 @__security_check_cookie@4
  00013	b8 00 00 00 00	 mov	 eax, OFFSET __ehfuncinfo$??$_Deallocate@$07$0A@@std@@YAXPAXI@Z
  00018	e9 00 00 00 00	 jmp	 ___CxxFrameHandler3
text$x	ENDS
??$_Deallocate@$07$0A@@std@@YAXPAXI@Z ENDP		; std::_Deallocate<8,0>
; Function compile flags: /Odspy
; File C:\Program Files (x86)\Microsoft Visual Studio\2019\Community\VC\Tools\MSVC\14.28.29333\include\xmemory
;	COMDAT ??$_Destroy_in_place@PAD@std@@YAXAAPAD@Z
_TEXT	SEGMENT
__Obj$ = 8						; size = 4
??$_Destroy_in_place@PAD@std@@YAXAAPAD@Z PROC		; std::_Destroy_in_place<char *>, COMDAT

; 270  : /* _CONSTEXPR20_DYNALLOC */ void _Destroy_in_place(_Ty& _Obj) noexcept {

  00000	55		 push	 ebp
  00001	8b ec		 mov	 ebp, esp

; 271  : #if _HAS_IF_CONSTEXPR
; 272  :     if constexpr (is_array_v<_Ty>) {
; 273  :         _Destroy_range(_Obj, _Obj + extent_v<_Ty>);
; 274  :     } else
; 275  : #endif // _HAS_IF_CONSTEXPR
; 276  :     {
; 277  :         _Obj.~_Ty();
; 278  :     }
; 279  : }

  00003	5d		 pop	 ebp
  00004	c3		 ret	 0
??$_Destroy_in_place@PAD@std@@YAXAAPAD@Z ENDP		; std::_Destroy_in_place<char *>
_TEXT	ENDS
; Function compile flags: /Odspy
; File D:\Metin2 Server Files\mainline\SRC_2014\Metin2Client\UserInterface\PythonSystemModule.cpp
;	COMDAT ?initsystem@@YAXXZ
_TEXT	SEGMENT
_poModule$ = -4						; size = 4
?initsystem@@YAXXZ PROC					; initsystem, COMDAT

; 376  : {

  00000	55		 push	 ebp
  00001	8b ec		 mov	 ebp, esp
  00003	51		 push	 ecx

; 377  : 	static PyMethodDef s_methods[] =
; 378  : 	{
; 379  : 		{ "GetWidth",					systemGetWidth,					METH_VARARGS },
; 380  : 		{ "GetHeight",					systemGetHeight,				METH_VARARGS },
; 381  : 
; 382  : 		{ "SetInterfaceHandler",		systemSetInterfaceHandler,		METH_VARARGS },
; 383  : 		{ "DestroyInterfaceHandler",	systemDestroyInterfaceHandler,	METH_VARARGS },
; 384  : 		{ "ReserveResource",			systemReserveResource,			METH_VARARGS },
; 385  : 
; 386  : 		{ "isInterfaceConfig",			systemisInterfaceConfig,		METH_VARARGS },
; 387  : 		{ "SaveWindowStatus",			systemSaveWindowStatus,			METH_VARARGS },
; 388  : 		{ "GetWindowStatus",			systemGetWindowStatus,			METH_VARARGS },
; 389  : 
; 390  : 		{ "GetResolutionCount",			systemGetResolutionCount,		METH_VARARGS },
; 391  : 		{ "GetFrequencyCount",			systemGetFrequencyCount,		METH_VARARGS },
; 392  : 
; 393  : 		{ "GetCurrentResolution",		systemGetCurrentResolution,		METH_VARARGS },
; 394  : 
; 395  : 		{ "GetResolution",				systemGetResolution,			METH_VARARGS },
; 396  : 		{ "GetFrequency",				systemGetFrequency,				METH_VARARGS },
; 397  : 
; 398  : 		{ "ApplyConfig",				systemApplyConfig,				METH_VARARGS },
; 399  : 		{ "SetConfig",					systemSetConfig,				METH_VARARGS },
; 400  : 		{ "SaveConfig",					systemSaveConfig,				METH_VARARGS },
; 401  : 		{ "GetConfig",					systemGetConfig,				METH_VARARGS },
; 402  : 
; 403  : 		{ "SetSaveID",					systemSetSaveID,				METH_VARARGS },
; 404  : 		{ "isSaveID",					systemisSaveID,					METH_VARARGS },
; 405  : 		{ "GetSaveID",					systemGetSaveID,				METH_VARARGS },
; 406  : 
; 407  : 		{ "GetMusicVolume",				systemGetMusicVolume,			METH_VARARGS },
; 408  : 		{ "GetSoundVolume",				systemGetSoundVolume,			METH_VARARGS },
; 409  : 
; 410  : 		{ "SetMusicVolume",				systemSetMusicVolume,			METH_VARARGS },
; 411  : 		{ "SetSoundVolumef",			systemSetSoundVolumef,			METH_VARARGS },
; 412  : 		{ "IsSoftwareCursor",			systemIsSoftwareCursor,			METH_VARARGS },
; 413  : 
; 414  : 		{ "SetViewChatFlag",			systemSetViewChatFlag,			METH_VARARGS },
; 415  : 		{ "IsViewChat",					systemIsViewChat,				METH_VARARGS },
; 416  : 
; 417  : 		{ "SetAlwaysShowNameFlag",		systemSetAlwaysShowNameFlag,	METH_VARARGS },
; 418  : 		{ "IsAlwaysShowName",			systemIsAlwaysShowName,			METH_VARARGS },
; 419  : 
; 420  : 		{ "SetShowDamageFlag",			systemSetShowDamageFlag,		METH_VARARGS },
; 421  : 		{ "IsShowDamage",				systemIsShowDamage,				METH_VARARGS },
; 422  : 
; 423  : 		{ "SetShowSalesTextFlag",		systemSetShowSalesTextFlag,		METH_VARARGS },
; 424  : 		{ "IsShowSalesText",			systemIsShowSalesText,			METH_VARARGS },
; 425  : 
; 426  : 		{ "GetShadowLevel",				systemGetShadowLevel,			METH_VARARGS },
; 427  : 		{ "SetShadowLevel",				systemSetShadowLevel,			METH_VARARGS },
; 428  : 
; 429  : 		{ NULL,							NULL,							NULL }
; 430  : 	};
; 431  : 
; 432  : 	PyObject * poModule = Py_InitModule("systemSetting", s_methods);

  00004	68 f5 03 00 00	 push	 1013			; 000003f5H
  00009	6a 00		 push	 0
  0000b	6a 00		 push	 0
  0000d	68 00 00 00 00	 push	 OFFSET ?s_methods@?1??initsystem@@YAXXZ@4PAUPyMethodDef@@A
  00012	68 00 00 00 00	 push	 OFFSET ??_C@_0O@LCPLIAAE@systemSetting@
  00017	ff 15 00 00 00
	00		 call	 DWORD PTR __imp__Py_InitModule4
  0001d	83 c4 14	 add	 esp, 20			; 00000014H
  00020	89 45 fc	 mov	 DWORD PTR _poModule$[ebp], eax

; 433  : 
; 434  : 	PyModule_AddIntConstant(poModule, "WINDOW_STATUS",		CPythonSystem::WINDOW_STATUS);

  00023	6a 00		 push	 0
  00025	68 00 00 00 00	 push	 OFFSET ??_C@_0O@EDOCFBFG@WINDOW_STATUS@
  0002a	ff 75 fc	 push	 DWORD PTR _poModule$[ebp]
  0002d	ff 15 00 00 00
	00		 call	 DWORD PTR __imp__PyModule_AddIntConstant
  00033	83 c4 0c	 add	 esp, 12			; 0000000cH

; 435  : 	PyModule_AddIntConstant(poModule, "WINDOW_INVENTORY",	CPythonSystem::WINDOW_INVENTORY);

  00036	6a 01		 push	 1
  00038	68 00 00 00 00	 push	 OFFSET ??_C@_0BB@CHCHLBGG@WINDOW_INVENTORY@
  0003d	ff 75 fc	 push	 DWORD PTR _poModule$[ebp]
  00040	ff 15 00 00 00
	00		 call	 DWORD PTR __imp__PyModule_AddIntConstant
  00046	83 c4 0c	 add	 esp, 12			; 0000000cH

; 436  : 	PyModule_AddIntConstant(poModule, "WINDOW_ABILITY",		CPythonSystem::WINDOW_ABILITY);

  00049	6a 02		 push	 2
  0004b	68 00 00 00 00	 push	 OFFSET ??_C@_0P@HAOBMPKD@WINDOW_ABILITY@
  00050	ff 75 fc	 push	 DWORD PTR _poModule$[ebp]
  00053	ff 15 00 00 00
	00		 call	 DWORD PTR __imp__PyModule_AddIntConstant
  00059	83 c4 0c	 add	 esp, 12			; 0000000cH

; 437  : 	PyModule_AddIntConstant(poModule, "WINDOW_SOCIETY",		CPythonSystem::WINDOW_SOCIETY);

  0005c	6a 03		 push	 3
  0005e	68 00 00 00 00	 push	 OFFSET ??_C@_0P@MAFILJL@WINDOW_SOCIETY@
  00063	ff 75 fc	 push	 DWORD PTR _poModule$[ebp]
  00066	ff 15 00 00 00
	00		 call	 DWORD PTR __imp__PyModule_AddIntConstant
  0006c	83 c4 0c	 add	 esp, 12			; 0000000cH

; 438  : 	PyModule_AddIntConstant(poModule, "WINDOW_JOURNAL",		CPythonSystem::WINDOW_JOURNAL);

  0006f	6a 04		 push	 4
  00071	68 00 00 00 00	 push	 OFFSET ??_C@_0P@FHBHOGAA@WINDOW_JOURNAL@
  00076	ff 75 fc	 push	 DWORD PTR _poModule$[ebp]
  00079	ff 15 00 00 00
	00		 call	 DWORD PTR __imp__PyModule_AddIntConstant
  0007f	83 c4 0c	 add	 esp, 12			; 0000000cH

; 439  : 	PyModule_AddIntConstant(poModule, "WINDOW_COMMAND",		CPythonSystem::WINDOW_COMMAND);

  00082	6a 05		 push	 5
  00084	68 00 00 00 00	 push	 OFFSET ??_C@_0P@NOILKAON@WINDOW_COMMAND@
  00089	ff 75 fc	 push	 DWORD PTR _poModule$[ebp]
  0008c	ff 15 00 00 00
	00		 call	 DWORD PTR __imp__PyModule_AddIntConstant
  00092	83 c4 0c	 add	 esp, 12			; 0000000cH

; 440  : 
; 441  : 	PyModule_AddIntConstant(poModule, "WINDOW_QUICK",		CPythonSystem::WINDOW_QUICK);

  00095	6a 06		 push	 6
  00097	68 00 00 00 00	 push	 OFFSET ??_C@_0N@BOOBGFI@WINDOW_QUICK@
  0009c	ff 75 fc	 push	 DWORD PTR _poModule$[ebp]
  0009f	ff 15 00 00 00
	00		 call	 DWORD PTR __imp__PyModule_AddIntConstant
  000a5	83 c4 0c	 add	 esp, 12			; 0000000cH

; 442  : 	PyModule_AddIntConstant(poModule, "WINDOW_GAUGE",		CPythonSystem::WINDOW_GAUGE);

  000a8	6a 07		 push	 7
  000aa	68 00 00 00 00	 push	 OFFSET ??_C@_0N@MCEEKLOJ@WINDOW_GAUGE@
  000af	ff 75 fc	 push	 DWORD PTR _poModule$[ebp]
  000b2	ff 15 00 00 00
	00		 call	 DWORD PTR __imp__PyModule_AddIntConstant
  000b8	83 c4 0c	 add	 esp, 12			; 0000000cH

; 443  : 	PyModule_AddIntConstant(poModule, "WINDOW_MINIMAP",		CPythonSystem::WINDOW_MINIMAP);

  000bb	6a 08		 push	 8
  000bd	68 00 00 00 00	 push	 OFFSET ??_C@_0P@LEOBHMFL@WINDOW_MINIMAP@
  000c2	ff 75 fc	 push	 DWORD PTR _poModule$[ebp]
  000c5	ff 15 00 00 00
	00		 call	 DWORD PTR __imp__PyModule_AddIntConstant
  000cb	83 c4 0c	 add	 esp, 12			; 0000000cH

; 444  : 	PyModule_AddIntConstant(poModule, "WINDOW_CHAT",		CPythonSystem::WINDOW_CHAT);

  000ce	6a 09		 push	 9
  000d0	68 00 00 00 00	 push	 OFFSET ??_C@_0M@GHKKFINH@WINDOW_CHAT@
  000d5	ff 75 fc	 push	 DWORD PTR _poModule$[ebp]
  000d8	ff 15 00 00 00
	00		 call	 DWORD PTR __imp__PyModule_AddIntConstant
  000de	83 c4 0c	 add	 esp, 12			; 0000000cH

; 445  : }

  000e1	c9		 leave
  000e2	c3		 ret	 0
?initsystem@@YAXXZ ENDP					; initsystem
_TEXT	ENDS
; Function compile flags: /Odspy
; File C:\Program Files (x86)\Microsoft Visual Studio\2019\Community\VC\Tools\MSVC\14.28.29333\include\xstring
; File C:\Program Files (x86)\Microsoft Visual Studio\2019\Community\VC\Tools\MSVC\14.28.29333\include\xmemory
; File C:\Program Files (x86)\Microsoft Visual Studio\2019\Community\VC\Tools\MSVC\14.28.29333\include\xstring
; File C:\Program Files (x86)\Microsoft Visual Studio\2019\Community\VC\Tools\MSVC\14.28.29333\include\xmemory
; File C:\Program Files (x86)\Microsoft Visual Studio\2019\Community\VC\Tools\MSVC\14.28.29333\include\xstring
;	COMDAT ?_Tidy_deallocate@?$basic_string@DU?$char_traits@D@std@@V?$allocator@D@2@@std@@AAEXXZ
_TEXT	SEGMENT
__Al$1 = -28						; size = 4
__Ptr$2 = -24						; size = 4
__Count$ = -20						; size = 4
$T3 = -16						; size = 4
tv68 = -12						; size = 4
_this$ = -8						; size = 4
$T4 = -2						; size = 1
$T5 = -1						; size = 1
?_Tidy_deallocate@?$basic_string@DU?$char_traits@D@std@@V?$allocator@D@2@@std@@AAEXXZ PROC ; std::basic_string<char,std::char_traits<char>,std::allocator<char> >::_Tidy_deallocate, COMDAT
; _this$ = ecx

; 4383 :     void _Tidy_deallocate() noexcept { // initialize buffer, deallocating any storage

  00000	55		 push	 ebp
  00001	8b ec		 mov	 ebp, esp
  00003	83 ec 1c	 sub	 esp, 28			; 0000001cH
  00006	89 4d f8	 mov	 DWORD PTR _this$[ebp], ecx

; 2227 :         return _BUF_SIZE <= _Myres;

  00009	8b 45 f8	 mov	 eax, DWORD PTR _this$[ebp]
  0000c	83 78 14 10	 cmp	 DWORD PTR [eax+20], 16	; 00000010H
  00010	72 09		 jb	 SHORT $LN9@Tidy_deall
  00012	c7 45 f4 01 00
	00 00		 mov	 DWORD PTR tv68[ebp], 1
  00019	eb 04		 jmp	 SHORT $LN10@Tidy_deall
$LN9@Tidy_deall:
  0001b	83 65 f4 00	 and	 DWORD PTR tv68[ebp], 0
$LN10@Tidy_deall:
  0001f	8a 45 f4	 mov	 al, BYTE PTR tv68[ebp]
  00022	88 45 ff	 mov	 BYTE PTR $T5[ebp], al

; 4384 :         _Mypair._Myval2._Orphan_all();
; 4385 :         if (_Mypair._Myval2._Large_string_engaged()) {

  00025	0f b6 45 ff	 movzx	 eax, BYTE PTR $T5[ebp]
  00029	85 c0		 test	 eax, eax
  0002b	74 34		 je	 SHORT $LN2@Tidy_deall

; 4386 :             const pointer _Ptr = _Mypair._Myval2._Bx._Ptr;

  0002d	8b 45 f8	 mov	 eax, DWORD PTR _this$[ebp]
  00030	8b 00		 mov	 eax, DWORD PTR [eax]
  00032	89 45 e8	 mov	 DWORD PTR __Ptr$2[ebp], eax

; 4409 :         return _Mypair._Get_first();

  00035	8b 45 f8	 mov	 eax, DWORD PTR _this$[ebp]
; File C:\Program Files (x86)\Microsoft Visual Studio\2019\Community\VC\Tools\MSVC\14.28.29333\include\xmemory

; 1347 :         return *this;

  00038	89 45 f0	 mov	 DWORD PTR $T3[ebp], eax
; File C:\Program Files (x86)\Microsoft Visual Studio\2019\Community\VC\Tools\MSVC\14.28.29333\include\xstring

; 4409 :         return _Mypair._Get_first();

  0003b	8b 45 f0	 mov	 eax, DWORD PTR $T3[ebp]
  0003e	89 45 e4	 mov	 DWORD PTR __Al$1[ebp], eax

; 4387 :             auto& _Al          = _Getal();
; 4388 :             _Destroy_in_place(_Mypair._Myval2._Bx._Ptr);

  00041	ff 75 f8	 push	 DWORD PTR _this$[ebp]
  00044	e8 00 00 00 00	 call	 ??$_Destroy_in_place@PAD@std@@YAXAAPAD@Z ; std::_Destroy_in_place<char *>
  00049	59		 pop	 ecx

; 4389 :             _Al.deallocate(_Ptr, _Mypair._Myval2._Myres + 1);

  0004a	8b 45 f8	 mov	 eax, DWORD PTR _this$[ebp]
  0004d	8b 40 14	 mov	 eax, DWORD PTR [eax+20]
  00050	40		 inc	 eax
  00051	89 45 ec	 mov	 DWORD PTR __Count$[ebp], eax
; File C:\Program Files (x86)\Microsoft Visual Studio\2019\Community\VC\Tools\MSVC\14.28.29333\include\xmemory

; 810  :         _Deallocate<_New_alignof<_Ty>>(_Ptr, sizeof(_Ty) * _Count);

  00054	ff 75 ec	 push	 DWORD PTR __Count$[ebp]
  00057	ff 75 e8	 push	 DWORD PTR __Ptr$2[ebp]
  0005a	e8 00 00 00 00	 call	 ??$_Deallocate@$07$0A@@std@@YAXPAXI@Z ; std::_Deallocate<8,0>
  0005f	59		 pop	 ecx
  00060	59		 pop	 ecx
$LN2@Tidy_deall:
; File C:\Program Files (x86)\Microsoft Visual Studio\2019\Community\VC\Tools\MSVC\14.28.29333\include\xstring

; 4392 :         _Mypair._Myval2._Mysize = 0;

  00061	8b 45 f8	 mov	 eax, DWORD PTR _this$[ebp]
  00064	83 60 10 00	 and	 DWORD PTR [eax+16], 0

; 4393 :         _Mypair._Myval2._Myres  = _BUF_SIZE - 1;

  00068	8b 45 f8	 mov	 eax, DWORD PTR _this$[ebp]
  0006b	c7 40 14 0f 00
	00 00		 mov	 DWORD PTR [eax+20], 15	; 0000000fH

; 4394 :         // the _Traits::assign is last so the codegen doesn't think the char write can alias this
; 4395 :         _Traits::assign(_Mypair._Myval2._Bx._Buf[0], _Elem());

  00072	c6 45 fe 00	 mov	 BYTE PTR $T4[ebp], 0
  00076	33 c0		 xor	 eax, eax
  00078	40		 inc	 eax
  00079	6b c0 00	 imul	 eax, eax, 0

; 428  :         _Left = _Right;

  0007c	8b 4d f8	 mov	 ecx, DWORD PTR _this$[ebp]
  0007f	8a 55 fe	 mov	 dl, BYTE PTR $T4[ebp]
  00082	88 14 01	 mov	 BYTE PTR [ecx+eax], dl

; 4396 :     }

  00085	c9		 leave
  00086	c3		 ret	 0
?_Tidy_deallocate@?$basic_string@DU?$char_traits@D@std@@V?$allocator@D@2@@std@@AAEXXZ ENDP ; std::basic_string<char,std::char_traits<char>,std::allocator<char> >::_Tidy_deallocate
_TEXT	ENDS
; Function compile flags: /Odspy
; File C:\Program Files (x86)\Microsoft Visual Studio\2019\Community\VC\Tools\MSVC\14.28.29333\include\xmemory
;	COMDAT ?_Adjust_manually_vector_aligned@std@@YAXAAPAXAAI@Z
_TEXT	SEGMENT
__Min_back_shift$ = -16					; size = 4
__Ptr_user$ = -12					; size = 4
__Ptr_container$ = -8					; size = 4
__Back_shift$ = -4					; size = 4
__Ptr$ = 8						; size = 4
__Bytes$ = 12						; size = 4
?_Adjust_manually_vector_aligned@std@@YAXAAPAXAAI@Z PROC ; std::_Adjust_manually_vector_aligned, COMDAT

; 132  : inline void _Adjust_manually_vector_aligned(void*& _Ptr, size_t& _Bytes) {

  00000	55		 push	 ebp
  00001	8b ec		 mov	 ebp, esp
  00003	83 ec 10	 sub	 esp, 16			; 00000010H

; 133  :     // adjust parameters from _Allocate_manually_vector_aligned to pass to operator delete
; 134  :     _Bytes += _Non_user_size;

  00006	8b 45 0c	 mov	 eax, DWORD PTR __Bytes$[ebp]
  00009	8b 00		 mov	 eax, DWORD PTR [eax]
  0000b	83 c0 23	 add	 eax, 35			; 00000023H
  0000e	8b 4d 0c	 mov	 ecx, DWORD PTR __Bytes$[ebp]
  00011	89 01		 mov	 DWORD PTR [ecx], eax

; 135  : 
; 136  :     const uintptr_t* const _Ptr_user = reinterpret_cast<uintptr_t*>(_Ptr);

  00013	8b 45 08	 mov	 eax, DWORD PTR __Ptr$[ebp]
  00016	8b 00		 mov	 eax, DWORD PTR [eax]
  00018	89 45 f4	 mov	 DWORD PTR __Ptr_user$[ebp], eax

; 137  :     const uintptr_t _Ptr_container   = _Ptr_user[-1];

  0001b	6a 04		 push	 4
  0001d	58		 pop	 eax
  0001e	6b c0 ff	 imul	 eax, eax, -1
  00021	8b 4d f4	 mov	 ecx, DWORD PTR __Ptr_user$[ebp]
  00024	8b 04 01	 mov	 eax, DWORD PTR [ecx+eax]
  00027	89 45 f8	 mov	 DWORD PTR __Ptr_container$[ebp], eax

; 138  : 
; 139  :     // If the following asserts, it likely means that we are performing
; 140  :     // an aligned delete on memory coming from an unaligned allocation.
; 141  :     _STL_ASSERT(_Ptr_user[-2] == _Big_allocation_sentinel, "invalid argument");
; 142  : 
; 143  :     // Extra paranoia on aligned allocation/deallocation; ensure _Ptr_container is
; 144  :     // in range [_Min_back_shift, _Non_user_size]
; 145  : #ifdef _DEBUG
; 146  :     constexpr uintptr_t _Min_back_shift = 2 * sizeof(void*);
; 147  : #else // ^^^ _DEBUG ^^^ // vvv !_DEBUG vvv
; 148  :     constexpr uintptr_t _Min_back_shift = sizeof(void*);

  0002a	c7 45 f0 04 00
	00 00		 mov	 DWORD PTR __Min_back_shift$[ebp], 4

; 149  : #endif // _DEBUG
; 150  :     const uintptr_t _Back_shift = reinterpret_cast<uintptr_t>(_Ptr) - _Ptr_container;

  00031	8b 45 08	 mov	 eax, DWORD PTR __Ptr$[ebp]
  00034	8b 00		 mov	 eax, DWORD PTR [eax]
  00036	2b 45 f8	 sub	 eax, DWORD PTR __Ptr_container$[ebp]
  00039	89 45 fc	 mov	 DWORD PTR __Back_shift$[ebp], eax
$LN4@Adjust_man:

; 151  :     _STL_VERIFY(_Back_shift >= _Min_back_shift && _Back_shift <= _Non_user_size, "invalid argument");

  0003c	83 7d fc 04	 cmp	 DWORD PTR __Back_shift$[ebp], 4
  00040	72 08		 jb	 SHORT $LN7@Adjust_man
  00042	83 7d fc 23	 cmp	 DWORD PTR __Back_shift$[ebp], 35 ; 00000023H
  00046	77 02		 ja	 SHORT $LN7@Adjust_man
  00048	eb 09		 jmp	 SHORT $LN2@Adjust_man
$LN7@Adjust_man:
  0004a	e8 00 00 00 00	 call	 __invalid_parameter_noinfo_noreturn
  0004f	33 c0		 xor	 eax, eax
  00051	75 f7		 jne	 SHORT $LN7@Adjust_man
$LN2@Adjust_man:
  00053	33 c0		 xor	 eax, eax
  00055	75 e5		 jne	 SHORT $LN4@Adjust_man

; 152  :     _Ptr = reinterpret_cast<void*>(_Ptr_container);

  00057	8b 45 08	 mov	 eax, DWORD PTR __Ptr$[ebp]
  0005a	8b 4d f8	 mov	 ecx, DWORD PTR __Ptr_container$[ebp]
  0005d	89 08		 mov	 DWORD PTR [eax], ecx
$LN10@Adjust_man:

; 153  : }

  0005f	c9		 leave
  00060	c3		 ret	 0
?_Adjust_manually_vector_aligned@std@@YAXAAPAXAAI@Z ENDP ; std::_Adjust_manually_vector_aligned
_TEXT	ENDS
; Function compile flags: /Odspy
; File C:\Program Files (x86)\Microsoft Visual Studio\2019\Community\VC\Tools\MSVC\14.28.29333\include\exception
;	COMDAT ?_Throw_bad_array_new_length@std@@YAXXZ
_TEXT	SEGMENT
$T1 = -12						; size = 12
?_Throw_bad_array_new_length@std@@YAXXZ PROC		; std::_Throw_bad_array_new_length, COMDAT

; 320  : [[noreturn]] inline void _Throw_bad_array_new_length() {

  00000	55		 push	 ebp
  00001	8b ec		 mov	 ebp, esp
  00003	83 ec 0c	 sub	 esp, 12			; 0000000cH

; 321  :     _THROW(bad_array_new_length{});

  00006	8d 4d f4	 lea	 ecx, DWORD PTR $T1[ebp]
  00009	e8 00 00 00 00	 call	 ??0bad_array_new_length@std@@QAE@XZ ; std::bad_array_new_length::bad_array_new_length
  0000e	68 00 00 00 00	 push	 OFFSET __TI3?AVbad_array_new_length@std@@
  00013	8d 45 f4	 lea	 eax, DWORD PTR $T1[ebp]
  00016	50		 push	 eax
  00017	e8 00 00 00 00	 call	 __CxxThrowException@8
$LN2@Throw_bad_:

; 322  : }

  0001c	c9		 leave
  0001d	c3		 ret	 0
?_Throw_bad_array_new_length@std@@YAXXZ ENDP		; std::_Throw_bad_array_new_length
_TEXT	ENDS
; Function compile flags: /Odspy
; File C:\Program Files (x86)\Microsoft Visual Studio\2019\Community\VC\Tools\MSVC\14.28.29333\include\vcruntime_exception.h
;	COMDAT ??_Gbad_array_new_length@std@@UAEPAXI@Z
_TEXT	SEGMENT
_this$ = -4						; size = 4
___flags$ = 8						; size = 4
??_Gbad_array_new_length@std@@UAEPAXI@Z PROC		; std::bad_array_new_length::`scalar deleting destructor', COMDAT
; _this$ = ecx
  00000	55		 push	 ebp
  00001	8b ec		 mov	 ebp, esp
  00003	51		 push	 ecx
  00004	89 4d fc	 mov	 DWORD PTR _this$[ebp], ecx

; 89   :     {

  00007	8b 45 fc	 mov	 eax, DWORD PTR _this$[ebp]
  0000a	c7 00 00 00 00
	00		 mov	 DWORD PTR [eax], OFFSET ??_7exception@std@@6B@

; 90   :         __std_exception_destroy(&_Data);

  00010	8b 45 fc	 mov	 eax, DWORD PTR _this$[ebp]
  00013	83 c0 04	 add	 eax, 4
  00016	50		 push	 eax
  00017	e8 00 00 00 00	 call	 ___std_exception_destroy
  0001c	59		 pop	 ecx
  0001d	8b 45 08	 mov	 eax, DWORD PTR ___flags$[ebp]
  00020	83 e0 01	 and	 eax, 1
  00023	74 0c		 je	 SHORT $LN2@scalar
  00025	6a 0c		 push	 12			; 0000000cH
  00027	ff 75 fc	 push	 DWORD PTR _this$[ebp]
  0002a	e8 00 00 00 00	 call	 ??3@YAXPAXI@Z		; operator delete
  0002f	59		 pop	 ecx
  00030	59		 pop	 ecx
$LN2@scalar:
  00031	8b 45 fc	 mov	 eax, DWORD PTR _this$[ebp]
  00034	c9		 leave
  00035	c2 04 00	 ret	 4
??_Gbad_array_new_length@std@@UAEPAXI@Z ENDP		; std::bad_array_new_length::`scalar deleting destructor'
_TEXT	ENDS
; Function compile flags: /Odspy
;	COMDAT ??0bad_array_new_length@std@@QAE@ABV01@@Z
_TEXT	SEGMENT
_this$ = -4						; size = 4
___that$ = 8						; size = 4
??0bad_array_new_length@std@@QAE@ABV01@@Z PROC		; std::bad_array_new_length::bad_array_new_length, COMDAT
; _this$ = ecx
  00000	55		 push	 ebp
  00001	8b ec		 mov	 ebp, esp
  00003	51		 push	 ecx
  00004	89 4d fc	 mov	 DWORD PTR _this$[ebp], ecx
  00007	ff 75 08	 push	 DWORD PTR ___that$[ebp]
  0000a	8b 4d fc	 mov	 ecx, DWORD PTR _this$[ebp]
  0000d	e8 00 00 00 00	 call	 ??0exception@std@@QAE@ABV01@@Z ; std::exception::exception
  00012	8b 45 fc	 mov	 eax, DWORD PTR _this$[ebp]
  00015	c7 00 00 00 00
	00		 mov	 DWORD PTR [eax], OFFSET ??_7bad_alloc@std@@6B@
  0001b	8b 45 fc	 mov	 eax, DWORD PTR _this$[ebp]
  0001e	c7 00 00 00 00
	00		 mov	 DWORD PTR [eax], OFFSET ??_7bad_array_new_length@std@@6B@
  00024	8b 45 fc	 mov	 eax, DWORD PTR _this$[ebp]
  00027	c9		 leave
  00028	c2 04 00	 ret	 4
??0bad_array_new_length@std@@QAE@ABV01@@Z ENDP		; std::bad_array_new_length::bad_array_new_length
_TEXT	ENDS
; Function compile flags: /Odspy
; File C:\Program Files (x86)\Microsoft Visual Studio\2019\Community\VC\Tools\MSVC\14.28.29333\include\vcruntime_exception.h
;	COMDAT ??1bad_array_new_length@std@@UAE@XZ
_TEXT	SEGMENT
_this$ = -4						; size = 4
??1bad_array_new_length@std@@UAE@XZ PROC		; std::bad_array_new_length::~bad_array_new_length, COMDAT
; _this$ = ecx
  00000	55		 push	 ebp
  00001	8b ec		 mov	 ebp, esp
  00003	51		 push	 ecx
  00004	89 4d fc	 mov	 DWORD PTR _this$[ebp], ecx

; 89   :     {

  00007	8b 45 fc	 mov	 eax, DWORD PTR _this$[ebp]
  0000a	c7 00 00 00 00
	00		 mov	 DWORD PTR [eax], OFFSET ??_7exception@std@@6B@

; 90   :         __std_exception_destroy(&_Data);

  00010	8b 45 fc	 mov	 eax, DWORD PTR _this$[ebp]
  00013	83 c0 04	 add	 eax, 4
  00016	50		 push	 eax
  00017	e8 00 00 00 00	 call	 ___std_exception_destroy
  0001c	59		 pop	 ecx
  0001d	c9		 leave
  0001e	c3		 ret	 0
??1bad_array_new_length@std@@UAE@XZ ENDP		; std::bad_array_new_length::~bad_array_new_length
_TEXT	ENDS
; Function compile flags: /Odspy
; File C:\Program Files (x86)\Microsoft Visual Studio\2019\Community\VC\Tools\MSVC\14.28.29333\include\vcruntime_exception.h
;	COMDAT ??0bad_array_new_length@std@@QAE@XZ
_TEXT	SEGMENT
_this$ = -4						; size = 4
??0bad_array_new_length@std@@QAE@XZ PROC		; std::bad_array_new_length::bad_array_new_length, COMDAT
; _this$ = ecx

; 141  :     {

  00000	55		 push	 ebp
  00001	8b ec		 mov	 ebp, esp
  00003	51		 push	 ecx
  00004	89 4d fc	 mov	 DWORD PTR _this$[ebp], ecx

; 66   :     {

  00007	8b 45 fc	 mov	 eax, DWORD PTR _this$[ebp]
  0000a	c7 00 00 00 00
	00		 mov	 DWORD PTR [eax], OFFSET ??_7exception@std@@6B@

; 65   :         : _Data()

  00010	33 c0		 xor	 eax, eax
  00012	8b 4d fc	 mov	 ecx, DWORD PTR _this$[ebp]
  00015	83 c1 04	 add	 ecx, 4
  00018	89 01		 mov	 DWORD PTR [ecx], eax
  0001a	89 41 04	 mov	 DWORD PTR [ecx+4], eax

; 67   :         _Data._What = _Message;

  0001d	8b 45 fc	 mov	 eax, DWORD PTR _this$[ebp]
  00020	c7 40 04 00 00
	00 00		 mov	 DWORD PTR [eax+4], OFFSET ??_C@_0BF@KINCDENJ@bad?5array?5new?5length@

; 130  :     {

  00027	8b 45 fc	 mov	 eax, DWORD PTR _this$[ebp]
  0002a	c7 00 00 00 00
	00		 mov	 DWORD PTR [eax], OFFSET ??_7bad_alloc@std@@6B@

; 141  :     {

  00030	8b 45 fc	 mov	 eax, DWORD PTR _this$[ebp]
  00033	c7 00 00 00 00
	00		 mov	 DWORD PTR [eax], OFFSET ??_7bad_array_new_length@std@@6B@

; 142  :     }

  00039	8b 45 fc	 mov	 eax, DWORD PTR _this$[ebp]
  0003c	c9		 leave
  0003d	c3		 ret	 0
??0bad_array_new_length@std@@QAE@XZ ENDP		; std::bad_array_new_length::bad_array_new_length
_TEXT	ENDS
; Function compile flags: /Odspy
; File C:\Program Files (x86)\Microsoft Visual Studio\2019\Community\VC\Tools\MSVC\14.28.29333\include\vcruntime_exception.h
;	COMDAT ??_Gbad_alloc@std@@UAEPAXI@Z
_TEXT	SEGMENT
_this$ = -4						; size = 4
___flags$ = 8						; size = 4
??_Gbad_alloc@std@@UAEPAXI@Z PROC			; std::bad_alloc::`scalar deleting destructor', COMDAT
; _this$ = ecx
  00000	55		 push	 ebp
  00001	8b ec		 mov	 ebp, esp
  00003	51		 push	 ecx
  00004	89 4d fc	 mov	 DWORD PTR _this$[ebp], ecx

; 89   :     {

  00007	8b 45 fc	 mov	 eax, DWORD PTR _this$[ebp]
  0000a	c7 00 00 00 00
	00		 mov	 DWORD PTR [eax], OFFSET ??_7exception@std@@6B@

; 90   :         __std_exception_destroy(&_Data);

  00010	8b 45 fc	 mov	 eax, DWORD PTR _this$[ebp]
  00013	83 c0 04	 add	 eax, 4
  00016	50		 push	 eax
  00017	e8 00 00 00 00	 call	 ___std_exception_destroy
  0001c	59		 pop	 ecx
  0001d	8b 45 08	 mov	 eax, DWORD PTR ___flags$[ebp]
  00020	83 e0 01	 and	 eax, 1
  00023	74 0c		 je	 SHORT $LN2@scalar
  00025	6a 0c		 push	 12			; 0000000cH
  00027	ff 75 fc	 push	 DWORD PTR _this$[ebp]
  0002a	e8 00 00 00 00	 call	 ??3@YAXPAXI@Z		; operator delete
  0002f	59		 pop	 ecx
  00030	59		 pop	 ecx
$LN2@scalar:
  00031	8b 45 fc	 mov	 eax, DWORD PTR _this$[ebp]
  00034	c9		 leave
  00035	c2 04 00	 ret	 4
??_Gbad_alloc@std@@UAEPAXI@Z ENDP			; std::bad_alloc::`scalar deleting destructor'
_TEXT	ENDS
; Function compile flags: /Odspy
;	COMDAT ??0bad_alloc@std@@QAE@ABV01@@Z
_TEXT	SEGMENT
_this$ = -4						; size = 4
___that$ = 8						; size = 4
??0bad_alloc@std@@QAE@ABV01@@Z PROC			; std::bad_alloc::bad_alloc, COMDAT
; _this$ = ecx
  00000	55		 push	 ebp
  00001	8b ec		 mov	 ebp, esp
  00003	51		 push	 ecx
  00004	89 4d fc	 mov	 DWORD PTR _this$[ebp], ecx
  00007	ff 75 08	 push	 DWORD PTR ___that$[ebp]
  0000a	8b 4d fc	 mov	 ecx, DWORD PTR _this$[ebp]
  0000d	e8 00 00 00 00	 call	 ??0exception@std@@QAE@ABV01@@Z ; std::exception::exception
  00012	8b 45 fc	 mov	 eax, DWORD PTR _this$[ebp]
  00015	c7 00 00 00 00
	00		 mov	 DWORD PTR [eax], OFFSET ??_7bad_alloc@std@@6B@
  0001b	8b 45 fc	 mov	 eax, DWORD PTR _this$[ebp]
  0001e	c9		 leave
  0001f	c2 04 00	 ret	 4
??0bad_alloc@std@@QAE@ABV01@@Z ENDP			; std::bad_alloc::bad_alloc
_TEXT	ENDS
; Function compile flags: /Odspy
; File C:\Program Files (x86)\Microsoft Visual Studio\2019\Community\VC\Tools\MSVC\14.28.29333\include\vcruntime_exception.h
;	COMDAT ??_Gexception@std@@UAEPAXI@Z
_TEXT	SEGMENT
_this$ = -4						; size = 4
___flags$ = 8						; size = 4
??_Gexception@std@@UAEPAXI@Z PROC			; std::exception::`scalar deleting destructor', COMDAT
; _this$ = ecx
  00000	55		 push	 ebp
  00001	8b ec		 mov	 ebp, esp
  00003	51		 push	 ecx
  00004	89 4d fc	 mov	 DWORD PTR _this$[ebp], ecx

; 89   :     {

  00007	8b 45 fc	 mov	 eax, DWORD PTR _this$[ebp]
  0000a	c7 00 00 00 00
	00		 mov	 DWORD PTR [eax], OFFSET ??_7exception@std@@6B@

; 90   :         __std_exception_destroy(&_Data);

  00010	8b 45 fc	 mov	 eax, DWORD PTR _this$[ebp]
  00013	83 c0 04	 add	 eax, 4
  00016	50		 push	 eax
  00017	e8 00 00 00 00	 call	 ___std_exception_destroy
  0001c	59		 pop	 ecx
  0001d	8b 45 08	 mov	 eax, DWORD PTR ___flags$[ebp]
  00020	83 e0 01	 and	 eax, 1
  00023	74 0c		 je	 SHORT $LN2@scalar
  00025	6a 0c		 push	 12			; 0000000cH
  00027	ff 75 fc	 push	 DWORD PTR _this$[ebp]
  0002a	e8 00 00 00 00	 call	 ??3@YAXPAXI@Z		; operator delete
  0002f	59		 pop	 ecx
  00030	59		 pop	 ecx
$LN2@scalar:
  00031	8b 45 fc	 mov	 eax, DWORD PTR _this$[ebp]
  00034	c9		 leave
  00035	c2 04 00	 ret	 4
??_Gexception@std@@UAEPAXI@Z ENDP			; std::exception::`scalar deleting destructor'
_TEXT	ENDS
; Function compile flags: /Odspy
; File C:\Program Files (x86)\Microsoft Visual Studio\2019\Community\VC\Tools\MSVC\14.28.29333\include\vcruntime_exception.h
;	COMDAT ?what@exception@std@@UBEPBDXZ
_TEXT	SEGMENT
tv69 = -8						; size = 4
_this$ = -4						; size = 4
?what@exception@std@@UBEPBDXZ PROC			; std::exception::what, COMDAT
; _this$ = ecx

; 94   :     {

  00000	55		 push	 ebp
  00001	8b ec		 mov	 ebp, esp
  00003	51		 push	 ecx
  00004	51		 push	 ecx
  00005	89 4d fc	 mov	 DWORD PTR _this$[ebp], ecx

; 95   :         return _Data._What ? _Data._What : "Unknown exception";

  00008	8b 45 fc	 mov	 eax, DWORD PTR _this$[ebp]
  0000b	83 78 04 00	 cmp	 DWORD PTR [eax+4], 0
  0000f	74 0b		 je	 SHORT $LN3@what
  00011	8b 45 fc	 mov	 eax, DWORD PTR _this$[ebp]
  00014	8b 40 04	 mov	 eax, DWORD PTR [eax+4]
  00017	89 45 f8	 mov	 DWORD PTR tv69[ebp], eax
  0001a	eb 07		 jmp	 SHORT $LN4@what
$LN3@what:
  0001c	c7 45 f8 00 00
	00 00		 mov	 DWORD PTR tv69[ebp], OFFSET ??_C@_0BC@EOODALEL@Unknown?5exception@
$LN4@what:
  00023	8b 45 f8	 mov	 eax, DWORD PTR tv69[ebp]

; 96   :     }

  00026	c9		 leave
  00027	c3		 ret	 0
?what@exception@std@@UBEPBDXZ ENDP			; std::exception::what
_TEXT	ENDS
; Function compile flags: /Odspy
; File C:\Program Files (x86)\Microsoft Visual Studio\2019\Community\VC\Tools\MSVC\14.28.29333\include\vcruntime_exception.h
;	COMDAT ??0exception@std@@QAE@ABV01@@Z
_TEXT	SEGMENT
_this$ = -4						; size = 4
__Other$ = 8						; size = 4
??0exception@std@@QAE@ABV01@@Z PROC			; std::exception::exception, COMDAT
; _this$ = ecx

; 72   :     {

  00000	55		 push	 ebp
  00001	8b ec		 mov	 ebp, esp
  00003	51		 push	 ecx
  00004	89 4d fc	 mov	 DWORD PTR _this$[ebp], ecx
  00007	8b 45 fc	 mov	 eax, DWORD PTR _this$[ebp]
  0000a	c7 00 00 00 00
	00		 mov	 DWORD PTR [eax], OFFSET ??_7exception@std@@6B@

; 71   :         : _Data()

  00010	33 c0		 xor	 eax, eax
  00012	8b 4d fc	 mov	 ecx, DWORD PTR _this$[ebp]
  00015	83 c1 04	 add	 ecx, 4
  00018	89 01		 mov	 DWORD PTR [ecx], eax
  0001a	89 41 04	 mov	 DWORD PTR [ecx+4], eax

; 73   :         __std_exception_copy(&_Other._Data, &_Data);

  0001d	8b 45 fc	 mov	 eax, DWORD PTR _this$[ebp]
  00020	83 c0 04	 add	 eax, 4
  00023	50		 push	 eax
  00024	8b 45 08	 mov	 eax, DWORD PTR __Other$[ebp]
  00027	83 c0 04	 add	 eax, 4
  0002a	50		 push	 eax
  0002b	e8 00 00 00 00	 call	 ___std_exception_copy
  00030	59		 pop	 ecx
  00031	59		 pop	 ecx

; 74   :     }

  00032	8b 45 fc	 mov	 eax, DWORD PTR _this$[ebp]
  00035	c9		 leave
  00036	c2 04 00	 ret	 4
??0exception@std@@QAE@ABV01@@Z ENDP			; std::exception::exception
_TEXT	ENDS
END
