; Listing generated by Microsoft (R) Optimizing Compiler Version 19.28.29335.0 

	TITLE	D:\Metin2 Server Files\mainline\SRC_2014\Metin2Client\UserInterface\PythonItemModule.cpp
	.686P
	.XMM
	include listing.inc
	.model	flat

INCLUDELIB LIBCMT
INCLUDELIB OLDNAMES

PUBLIC	??_H@YGXPAXIIP6EPAX0@Z@Z			; `vector constructor iterator'
PUBLIC	?__empty_global_delete@@YAXPAX@Z		; __empty_global_delete
PUBLIC	?__empty_global_delete@@YAXPAXI@Z		; __empty_global_delete
PUBLIC	??0exception@std@@QAE@ABV01@@Z			; std::exception::exception
PUBLIC	?what@exception@std@@UBEPBDXZ			; std::exception::what
PUBLIC	??_Gexception@std@@UAEPAXI@Z			; std::exception::`scalar deleting destructor'
PUBLIC	??0bad_alloc@std@@QAE@ABV01@@Z			; std::bad_alloc::bad_alloc
PUBLIC	??_Gbad_alloc@std@@UAEPAXI@Z			; std::bad_alloc::`scalar deleting destructor'
PUBLIC	??0bad_array_new_length@std@@QAE@XZ		; std::bad_array_new_length::bad_array_new_length
PUBLIC	??1bad_array_new_length@std@@UAE@XZ		; std::bad_array_new_length::~bad_array_new_length
PUBLIC	??0bad_array_new_length@std@@QAE@ABV01@@Z	; std::bad_array_new_length::bad_array_new_length
PUBLIC	??_Gbad_array_new_length@std@@UAEPAXI@Z		; std::bad_array_new_length::`scalar deleting destructor'
PUBLIC	?_Throw_bad_array_new_length@std@@YAXXZ		; std::_Throw_bad_array_new_length
PUBLIC	?_Adjust_manually_vector_aligned@std@@YAXAAPAXAAI@Z ; std::_Adjust_manually_vector_aligned
PUBLIC	?_Xlen_string@std@@YAXXZ			; std::_Xlen_string
PUBLIC	?_Myptr@?$_String_val@U?$_Simple_types@D@std@@@std@@QAEPADXZ ; std::_String_val<std::_Simple_types<char> >::_Myptr
PUBLIC	?_Myptr@?$_String_val@U?$_Simple_types@D@std@@@std@@QBEPBDXZ ; std::_String_val<std::_Simple_types<char> >::_Myptr
PUBLIC	??0?$basic_string@DU?$char_traits@D@std@@V?$allocator@D@2@@std@@QAE@QBD@Z ; std::basic_string<char,std::char_traits<char>,std::allocator<char> >::basic_string<char,std::char_traits<char>,std::allocator<char> >
PUBLIC	??1?$basic_string@DU?$char_traits@D@std@@V?$allocator@D@2@@std@@QAE@XZ ; std::basic_string<char,std::char_traits<char>,std::allocator<char> >::~basic_string<char,std::char_traits<char>,std::allocator<char> >
PUBLIC	?assign@?$basic_string@DU?$char_traits@D@std@@V?$allocator@D@2@@std@@QAEAAV12@QBDI@Z ; std::basic_string<char,std::char_traits<char>,std::allocator<char> >::assign
PUBLIC	?max_size@?$basic_string@DU?$char_traits@D@std@@V?$allocator@D@2@@std@@QBEIXZ ; std::basic_string<char,std::char_traits<char>,std::allocator<char> >::max_size
PUBLIC	?_Calculate_growth@?$basic_string@DU?$char_traits@D@std@@V?$allocator@D@2@@std@@ABEII@Z ; std::basic_string<char,std::char_traits<char>,std::allocator<char> >::_Calculate_growth
PUBLIC	?_Tidy_init@?$basic_string@DU?$char_traits@D@std@@V?$allocator@D@2@@std@@AAEXXZ ; std::basic_string<char,std::char_traits<char>,std::allocator<char> >::_Tidy_init
PUBLIC	?_Tidy_deallocate@?$basic_string@DU?$char_traits@D@std@@V?$allocator@D@2@@std@@AAEXXZ ; std::basic_string<char,std::char_traits<char>,std::allocator<char> >::_Tidy_deallocate
PUBLIC	??1?$_Compressed_pair@V?$allocator@D@std@@V?$_String_val@U?$_Simple_types@D@std@@@2@$00@std@@QAE@XZ ; std::_Compressed_pair<std::allocator<char>,std::_String_val<std::_Simple_types<char> >,1>::~_Compressed_pair<std::allocator<char>,std::_String_val<std::_Simple_types<char> >,1>
PUBLIC	?initItem@@YAXXZ				; initItem
PUBLIC	??$_Destroy_in_place@PAD@std@@YAXAAPAD@Z	; std::_Destroy_in_place<char *>
PUBLIC	??$_Reallocate_for@V<lambda_9366063389c5f42a00a5088cf24e69de>@@PBD@?$basic_string@DU?$char_traits@D@std@@V?$allocator@D@2@@std@@AAEAAV01@IV<lambda_9366063389c5f42a00a5088cf24e69de>@@PBD@Z ; std::basic_string<char,std::char_traits<char>,std::allocator<char> >::_Reallocate_for<<lambda_9366063389c5f42a00a5088cf24e69de>,char const *>
PUBLIC	??$_Construct_in_place@PADABQAD@std@@YAXAAPADABQAD@Z ; std::_Construct_in_place<char *,char * const &>
PUBLIC	??$_Deallocate@$07$0A@@std@@YAXPAXI@Z		; std::_Deallocate<8,0>
PUBLIC	??$_Allocate@$07U_Default_allocate_traits@std@@$0A@@std@@YAPAXI@Z ; std::_Allocate<8,std::_Default_allocate_traits,0>
PUBLIC	??$_Allocate_manually_vector_aligned@U_Default_allocate_traits@std@@@std@@YAPAXI@Z ; std::_Allocate_manually_vector_aligned<std::_Default_allocate_traits>
PUBLIC	?itemSetUseSoundFileName@@YAPAU_object@@PAU1@0@Z ; itemSetUseSoundFileName
PUBLIC	?itemSetDropSoundFileName@@YAPAU_object@@PAU1@0@Z ; itemSetDropSoundFileName
PUBLIC	?itemSelectItem@@YAPAU_object@@PAU1@0@Z		; itemSelectItem
PUBLIC	?itemGetItemName@@YAPAU_object@@PAU1@0@Z	; itemGetItemName
PUBLIC	?itemGetItemDescription@@YAPAU_object@@PAU1@0@Z	; itemGetItemDescription
PUBLIC	?itemGetItemSummary@@YAPAU_object@@PAU1@0@Z	; itemGetItemSummary
PUBLIC	?itemGetIconImage@@YAPAU_object@@PAU1@0@Z	; itemGetIconImage
PUBLIC	?itemGetIconImageFileName@@YAPAU_object@@PAU1@0@Z ; itemGetIconImageFileName
PUBLIC	?itemGetItemSize@@YAPAU_object@@PAU1@0@Z	; itemGetItemSize
PUBLIC	?itemGetItemType@@YAPAU_object@@PAU1@0@Z	; itemGetItemType
PUBLIC	?itemGetItemSubType@@YAPAU_object@@PAU1@0@Z	; itemGetItemSubType
PUBLIC	?itemGetIBuyItemPrice@@YAPAU_object@@PAU1@0@Z	; itemGetIBuyItemPrice
PUBLIC	?itemGetISellItemPrice@@YAPAU_object@@PAU1@0@Z	; itemGetISellItemPrice
PUBLIC	?itemIsAntiFlag@@YAPAU_object@@PAU1@0@Z		; itemIsAntiFlag
PUBLIC	?itemIsFlag@@YAPAU_object@@PAU1@0@Z		; itemIsFlag
PUBLIC	?itemIsWearableFlag@@YAPAU_object@@PAU1@0@Z	; itemIsWearableFlag
PUBLIC	?itemIs1GoldItem@@YAPAU_object@@PAU1@0@Z	; itemIs1GoldItem
PUBLIC	?itemGetLimit@@YAPAU_object@@PAU1@0@Z		; itemGetLimit
PUBLIC	?itemGetAffect@@YAPAU_object@@PAU1@0@Z		; itemGetAffect
PUBLIC	?itemGetValue@@YAPAU_object@@PAU1@0@Z		; itemGetValue
PUBLIC	?itemGetSocket@@YAPAU_object@@PAU1@0@Z		; itemGetSocket
PUBLIC	?itemGetIconInstance@@YAPAU_object@@PAU1@0@Z	; itemGetIconInstance
PUBLIC	?itemDeleteIconInstance@@YAPAU_object@@PAU1@0@Z	; itemDeleteIconInstance
PUBLIC	?itemIsEquipmentVID@@YAPAU_object@@PAU1@0@Z	; itemIsEquipmentVID
PUBLIC	?itemGetUseType@@YAPAU_object@@PAU1@0@Z		; itemGetUseType
PUBLIC	?itemIsRefineScroll@@YAPAU_object@@PAU1@0@Z	; itemIsRefineScroll
PUBLIC	?itemIsDetachScroll@@YAPAU_object@@PAU1@0@Z	; itemIsDetachScroll
PUBLIC	?itemCanAddToQuickSlotItem@@YAPAU_object@@PAU1@0@Z ; itemCanAddToQuickSlotItem
PUBLIC	?itemIsKey@@YAPAU_object@@PAU1@0@Z		; itemIsKey
PUBLIC	?itemIsMetin@@YAPAU_object@@PAU1@0@Z		; itemIsMetin
PUBLIC	?itemRender@@YAPAU_object@@PAU1@0@Z		; itemRender
PUBLIC	?itemUpdate@@YAPAU_object@@PAU1@0@Z		; itemUpdate
PUBLIC	?itemCreateItem@@YAPAU_object@@PAU1@0@Z		; itemCreateItem
PUBLIC	?itemDeleteItem@@YAPAU_object@@PAU1@0@Z		; itemDeleteItem
PUBLIC	?itemPick@@YAPAU_object@@PAU1@0@Z		; itemPick
PUBLIC	?itemLoadItemTable@@YAPAU_object@@PAU1@0@Z	; itemLoadItemTable
PUBLIC	??0?$CDynamicPoolEx@VCRotationDecorator@NEffectUpdateDecorator@@@@QAE@XZ ; CDynamicPoolEx<NEffectUpdateDecorator::CRotationDecorator>::CDynamicPoolEx<NEffectUpdateDecorator::CRotationDecorator>
PUBLIC	??1?$CDynamicPoolEx@VCRotationDecorator@NEffectUpdateDecorator@@@@UAE@XZ ; CDynamicPoolEx<NEffectUpdateDecorator::CRotationDecorator>::~CDynamicPoolEx<NEffectUpdateDecorator::CRotationDecorator>
PUBLIC	?Destroy@?$CDynamicPoolEx@VCRotationDecorator@NEffectUpdateDecorator@@@@QAEXXZ ; CDynamicPoolEx<NEffectUpdateDecorator::CRotationDecorator>::Destroy
PUBLIC	?Delete@?$CDynamicPoolEx@VCRotationDecorator@NEffectUpdateDecorator@@@@KAXPAVCRotationDecorator@NEffectUpdateDecorator@@@Z ; CDynamicPoolEx<NEffectUpdateDecorator::CRotationDecorator>::Delete
PUBLIC	?clear@?$vector@PAVCRotationDecorator@NEffectUpdateDecorator@@V?$allocator@PAVCRotationDecorator@NEffectUpdateDecorator@@@std@@@std@@QAEXXZ ; std::vector<NEffectUpdateDecorator::CRotationDecorator *,std::allocator<NEffectUpdateDecorator::CRotationDecorator *> >::clear
PUBLIC	?_Tidy@?$vector@PAVCRotationDecorator@NEffectUpdateDecorator@@V?$allocator@PAVCRotationDecorator@NEffectUpdateDecorator@@@std@@@std@@AAEXXZ ; std::vector<NEffectUpdateDecorator::CRotationDecorator *,std::allocator<NEffectUpdateDecorator::CRotationDecorator *> >::_Tidy
PUBLIC	??_G?$CDynamicPoolEx@VCRotationDecorator@NEffectUpdateDecorator@@@@UAEPAXI@Z ; CDynamicPoolEx<NEffectUpdateDecorator::CRotationDecorator>::`scalar deleting destructor'
PUBLIC	??0?$CDynamicPoolEx@VCGravityDecorator@NEffectUpdateDecorator@@@@QAE@XZ ; CDynamicPoolEx<NEffectUpdateDecorator::CGravityDecorator>::CDynamicPoolEx<NEffectUpdateDecorator::CGravityDecorator>
PUBLIC	??1?$CDynamicPoolEx@VCGravityDecorator@NEffectUpdateDecorator@@@@UAE@XZ ; CDynamicPoolEx<NEffectUpdateDecorator::CGravityDecorator>::~CDynamicPoolEx<NEffectUpdateDecorator::CGravityDecorator>
PUBLIC	?Destroy@?$CDynamicPoolEx@VCGravityDecorator@NEffectUpdateDecorator@@@@QAEXXZ ; CDynamicPoolEx<NEffectUpdateDecorator::CGravityDecorator>::Destroy
PUBLIC	?Delete@?$CDynamicPoolEx@VCGravityDecorator@NEffectUpdateDecorator@@@@KAXPAVCGravityDecorator@NEffectUpdateDecorator@@@Z ; CDynamicPoolEx<NEffectUpdateDecorator::CGravityDecorator>::Delete
PUBLIC	?clear@?$vector@PAVCGravityDecorator@NEffectUpdateDecorator@@V?$allocator@PAVCGravityDecorator@NEffectUpdateDecorator@@@std@@@std@@QAEXXZ ; std::vector<NEffectUpdateDecorator::CGravityDecorator *,std::allocator<NEffectUpdateDecorator::CGravityDecorator *> >::clear
PUBLIC	?_Tidy@?$vector@PAVCGravityDecorator@NEffectUpdateDecorator@@V?$allocator@PAVCGravityDecorator@NEffectUpdateDecorator@@@std@@@std@@AAEXXZ ; std::vector<NEffectUpdateDecorator::CGravityDecorator *,std::allocator<NEffectUpdateDecorator::CGravityDecorator *> >::_Tidy
PUBLIC	??_G?$CDynamicPoolEx@VCGravityDecorator@NEffectUpdateDecorator@@@@UAEPAXI@Z ; CDynamicPoolEx<NEffectUpdateDecorator::CGravityDecorator>::`scalar deleting destructor'
PUBLIC	??0?$CDynamicPoolEx@VCAirResistanceDecorator@NEffectUpdateDecorator@@@@QAE@XZ ; CDynamicPoolEx<NEffectUpdateDecorator::CAirResistanceDecorator>::CDynamicPoolEx<NEffectUpdateDecorator::CAirResistanceDecorator>
PUBLIC	??1?$CDynamicPoolEx@VCAirResistanceDecorator@NEffectUpdateDecorator@@@@UAE@XZ ; CDynamicPoolEx<NEffectUpdateDecorator::CAirResistanceDecorator>::~CDynamicPoolEx<NEffectUpdateDecorator::CAirResistanceDecorator>
PUBLIC	?Destroy@?$CDynamicPoolEx@VCAirResistanceDecorator@NEffectUpdateDecorator@@@@QAEXXZ ; CDynamicPoolEx<NEffectUpdateDecorator::CAirResistanceDecorator>::Destroy
PUBLIC	?Delete@?$CDynamicPoolEx@VCAirResistanceDecorator@NEffectUpdateDecorator@@@@KAXPAVCAirResistanceDecorator@NEffectUpdateDecorator@@@Z ; CDynamicPoolEx<NEffectUpdateDecorator::CAirResistanceDecorator>::Delete
PUBLIC	?clear@?$vector@PAVCAirResistanceDecorator@NEffectUpdateDecorator@@V?$allocator@PAVCAirResistanceDecorator@NEffectUpdateDecorator@@@std@@@std@@QAEXXZ ; std::vector<NEffectUpdateDecorator::CAirResistanceDecorator *,std::allocator<NEffectUpdateDecorator::CAirResistanceDecorator *> >::clear
PUBLIC	?_Tidy@?$vector@PAVCAirResistanceDecorator@NEffectUpdateDecorator@@V?$allocator@PAVCAirResistanceDecorator@NEffectUpdateDecorator@@@std@@@std@@AAEXXZ ; std::vector<NEffectUpdateDecorator::CAirResistanceDecorator *,std::allocator<NEffectUpdateDecorator::CAirResistanceDecorator *> >::_Tidy
PUBLIC	??_G?$CDynamicPoolEx@VCAirResistanceDecorator@NEffectUpdateDecorator@@@@UAEPAXI@Z ; CDynamicPoolEx<NEffectUpdateDecorator::CAirResistanceDecorator>::`scalar deleting destructor'
PUBLIC	??0?$CDynamicPoolEx@VCTextureAnimationRandomDecorator@NEffectUpdateDecorator@@@@QAE@XZ ; CDynamicPoolEx<NEffectUpdateDecorator::CTextureAnimationRandomDecorator>::CDynamicPoolEx<NEffectUpdateDecorator::CTextureAnimationRandomDecorator>
PUBLIC	??1?$CDynamicPoolEx@VCTextureAnimationRandomDecorator@NEffectUpdateDecorator@@@@UAE@XZ ; CDynamicPoolEx<NEffectUpdateDecorator::CTextureAnimationRandomDecorator>::~CDynamicPoolEx<NEffectUpdateDecorator::CTextureAnimationRandomDecorator>
PUBLIC	?Destroy@?$CDynamicPoolEx@VCTextureAnimationRandomDecorator@NEffectUpdateDecorator@@@@QAEXXZ ; CDynamicPoolEx<NEffectUpdateDecorator::CTextureAnimationRandomDecorator>::Destroy
PUBLIC	?Delete@?$CDynamicPoolEx@VCTextureAnimationRandomDecorator@NEffectUpdateDecorator@@@@KAXPAVCTextureAnimationRandomDecorator@NEffectUpdateDecorator@@@Z ; CDynamicPoolEx<NEffectUpdateDecorator::CTextureAnimationRandomDecorator>::Delete
PUBLIC	?clear@?$vector@PAVCTextureAnimationRandomDecorator@NEffectUpdateDecorator@@V?$allocator@PAVCTextureAnimationRandomDecorator@NEffectUpdateDecorator@@@std@@@std@@QAEXXZ ; std::vector<NEffectUpdateDecorator::CTextureAnimationRandomDecorator *,std::allocator<NEffectUpdateDecorator::CTextureAnimationRandomDecorator *> >::clear
PUBLIC	?_Tidy@?$vector@PAVCTextureAnimationRandomDecorator@NEffectUpdateDecorator@@V?$allocator@PAVCTextureAnimationRandomDecorator@NEffectUpdateDecorator@@@std@@@std@@AAEXXZ ; std::vector<NEffectUpdateDecorator::CTextureAnimationRandomDecorator *,std::allocator<NEffectUpdateDecorator::CTextureAnimationRandomDecorator *> >::_Tidy
PUBLIC	??_G?$CDynamicPoolEx@VCTextureAnimationRandomDecorator@NEffectUpdateDecorator@@@@UAEPAXI@Z ; CDynamicPoolEx<NEffectUpdateDecorator::CTextureAnimationRandomDecorator>::`scalar deleting destructor'
PUBLIC	??0?$CDynamicPoolEx@VCTextureAnimationCCWDecorator@NEffectUpdateDecorator@@@@QAE@XZ ; CDynamicPoolEx<NEffectUpdateDecorator::CTextureAnimationCCWDecorator>::CDynamicPoolEx<NEffectUpdateDecorator::CTextureAnimationCCWDecorator>
PUBLIC	??1?$CDynamicPoolEx@VCTextureAnimationCCWDecorator@NEffectUpdateDecorator@@@@UAE@XZ ; CDynamicPoolEx<NEffectUpdateDecorator::CTextureAnimationCCWDecorator>::~CDynamicPoolEx<NEffectUpdateDecorator::CTextureAnimationCCWDecorator>
PUBLIC	?Destroy@?$CDynamicPoolEx@VCTextureAnimationCCWDecorator@NEffectUpdateDecorator@@@@QAEXXZ ; CDynamicPoolEx<NEffectUpdateDecorator::CTextureAnimationCCWDecorator>::Destroy
PUBLIC	?Delete@?$CDynamicPoolEx@VCTextureAnimationCCWDecorator@NEffectUpdateDecorator@@@@KAXPAVCTextureAnimationCCWDecorator@NEffectUpdateDecorator@@@Z ; CDynamicPoolEx<NEffectUpdateDecorator::CTextureAnimationCCWDecorator>::Delete
PUBLIC	?clear@?$vector@PAVCTextureAnimationCCWDecorator@NEffectUpdateDecorator@@V?$allocator@PAVCTextureAnimationCCWDecorator@NEffectUpdateDecorator@@@std@@@std@@QAEXXZ ; std::vector<NEffectUpdateDecorator::CTextureAnimationCCWDecorator *,std::allocator<NEffectUpdateDecorator::CTextureAnimationCCWDecorator *> >::clear
PUBLIC	?_Tidy@?$vector@PAVCTextureAnimationCCWDecorator@NEffectUpdateDecorator@@V?$allocator@PAVCTextureAnimationCCWDecorator@NEffectUpdateDecorator@@@std@@@std@@AAEXXZ ; std::vector<NEffectUpdateDecorator::CTextureAnimationCCWDecorator *,std::allocator<NEffectUpdateDecorator::CTextureAnimationCCWDecorator *> >::_Tidy
PUBLIC	??_G?$CDynamicPoolEx@VCTextureAnimationCCWDecorator@NEffectUpdateDecorator@@@@UAEPAXI@Z ; CDynamicPoolEx<NEffectUpdateDecorator::CTextureAnimationCCWDecorator>::`scalar deleting destructor'
PUBLIC	??0?$CDynamicPoolEx@VCTextureAnimationCWDecorator@NEffectUpdateDecorator@@@@QAE@XZ ; CDynamicPoolEx<NEffectUpdateDecorator::CTextureAnimationCWDecorator>::CDynamicPoolEx<NEffectUpdateDecorator::CTextureAnimationCWDecorator>
PUBLIC	??1?$CDynamicPoolEx@VCTextureAnimationCWDecorator@NEffectUpdateDecorator@@@@UAE@XZ ; CDynamicPoolEx<NEffectUpdateDecorator::CTextureAnimationCWDecorator>::~CDynamicPoolEx<NEffectUpdateDecorator::CTextureAnimationCWDecorator>
PUBLIC	?Destroy@?$CDynamicPoolEx@VCTextureAnimationCWDecorator@NEffectUpdateDecorator@@@@QAEXXZ ; CDynamicPoolEx<NEffectUpdateDecorator::CTextureAnimationCWDecorator>::Destroy
PUBLIC	?Delete@?$CDynamicPoolEx@VCTextureAnimationCWDecorator@NEffectUpdateDecorator@@@@KAXPAVCTextureAnimationCWDecorator@NEffectUpdateDecorator@@@Z ; CDynamicPoolEx<NEffectUpdateDecorator::CTextureAnimationCWDecorator>::Delete
PUBLIC	?clear@?$vector@PAVCTextureAnimationCWDecorator@NEffectUpdateDecorator@@V?$allocator@PAVCTextureAnimationCWDecorator@NEffectUpdateDecorator@@@std@@@std@@QAEXXZ ; std::vector<NEffectUpdateDecorator::CTextureAnimationCWDecorator *,std::allocator<NEffectUpdateDecorator::CTextureAnimationCWDecorator *> >::clear
PUBLIC	?_Tidy@?$vector@PAVCTextureAnimationCWDecorator@NEffectUpdateDecorator@@V?$allocator@PAVCTextureAnimationCWDecorator@NEffectUpdateDecorator@@@std@@@std@@AAEXXZ ; std::vector<NEffectUpdateDecorator::CTextureAnimationCWDecorator *,std::allocator<NEffectUpdateDecorator::CTextureAnimationCWDecorator *> >::_Tidy
PUBLIC	??_G?$CDynamicPoolEx@VCTextureAnimationCWDecorator@NEffectUpdateDecorator@@@@UAEPAXI@Z ; CDynamicPoolEx<NEffectUpdateDecorator::CTextureAnimationCWDecorator>::`scalar deleting destructor'
PUBLIC	??0?$CDynamicPoolEx@VCNullDecorator@NEffectUpdateDecorator@@@@QAE@XZ ; CDynamicPoolEx<NEffectUpdateDecorator::CNullDecorator>::CDynamicPoolEx<NEffectUpdateDecorator::CNullDecorator>
PUBLIC	??1?$CDynamicPoolEx@VCNullDecorator@NEffectUpdateDecorator@@@@UAE@XZ ; CDynamicPoolEx<NEffectUpdateDecorator::CNullDecorator>::~CDynamicPoolEx<NEffectUpdateDecorator::CNullDecorator>
PUBLIC	?Destroy@?$CDynamicPoolEx@VCNullDecorator@NEffectUpdateDecorator@@@@QAEXXZ ; CDynamicPoolEx<NEffectUpdateDecorator::CNullDecorator>::Destroy
PUBLIC	?Delete@?$CDynamicPoolEx@VCNullDecorator@NEffectUpdateDecorator@@@@KAXPAVCNullDecorator@NEffectUpdateDecorator@@@Z ; CDynamicPoolEx<NEffectUpdateDecorator::CNullDecorator>::Delete
PUBLIC	?clear@?$vector@PAVCNullDecorator@NEffectUpdateDecorator@@V?$allocator@PAVCNullDecorator@NEffectUpdateDecorator@@@std@@@std@@QAEXXZ ; std::vector<NEffectUpdateDecorator::CNullDecorator *,std::allocator<NEffectUpdateDecorator::CNullDecorator *> >::clear
PUBLIC	?_Tidy@?$vector@PAVCNullDecorator@NEffectUpdateDecorator@@V?$allocator@PAVCNullDecorator@NEffectUpdateDecorator@@@std@@@std@@AAEXXZ ; std::vector<NEffectUpdateDecorator::CNullDecorator *,std::allocator<NEffectUpdateDecorator::CNullDecorator *> >::_Tidy
PUBLIC	??_G?$CDynamicPoolEx@VCNullDecorator@NEffectUpdateDecorator@@@@UAEPAXI@Z ; CDynamicPoolEx<NEffectUpdateDecorator::CNullDecorator>::`scalar deleting destructor'
PUBLIC	??0?$CDynamicPoolEx@VCHeaderDecorator@NEffectUpdateDecorator@@@@QAE@XZ ; CDynamicPoolEx<NEffectUpdateDecorator::CHeaderDecorator>::CDynamicPoolEx<NEffectUpdateDecorator::CHeaderDecorator>
PUBLIC	??1?$CDynamicPoolEx@VCHeaderDecorator@NEffectUpdateDecorator@@@@UAE@XZ ; CDynamicPoolEx<NEffectUpdateDecorator::CHeaderDecorator>::~CDynamicPoolEx<NEffectUpdateDecorator::CHeaderDecorator>
PUBLIC	?Destroy@?$CDynamicPoolEx@VCHeaderDecorator@NEffectUpdateDecorator@@@@QAEXXZ ; CDynamicPoolEx<NEffectUpdateDecorator::CHeaderDecorator>::Destroy
PUBLIC	?Delete@?$CDynamicPoolEx@VCHeaderDecorator@NEffectUpdateDecorator@@@@KAXPAVCHeaderDecorator@NEffectUpdateDecorator@@@Z ; CDynamicPoolEx<NEffectUpdateDecorator::CHeaderDecorator>::Delete
PUBLIC	?clear@?$vector@PAVCHeaderDecorator@NEffectUpdateDecorator@@V?$allocator@PAVCHeaderDecorator@NEffectUpdateDecorator@@@std@@@std@@QAEXXZ ; std::vector<NEffectUpdateDecorator::CHeaderDecorator *,std::allocator<NEffectUpdateDecorator::CHeaderDecorator *> >::clear
PUBLIC	?_Tidy@?$vector@PAVCHeaderDecorator@NEffectUpdateDecorator@@V?$allocator@PAVCHeaderDecorator@NEffectUpdateDecorator@@@std@@@std@@AAEXXZ ; std::vector<NEffectUpdateDecorator::CHeaderDecorator *,std::allocator<NEffectUpdateDecorator::CHeaderDecorator *> >::_Tidy
PUBLIC	??_G?$CDynamicPoolEx@VCHeaderDecorator@NEffectUpdateDecorator@@@@UAEPAXI@Z ; CDynamicPoolEx<NEffectUpdateDecorator::CHeaderDecorator>::`scalar deleting destructor'
PUBLIC	??$for_each@V?$_Vector_iterator@V?$_Vector_val@U?$_Simple_types@PAVCHeaderDecorator@NEffectUpdateDecorator@@@std@@@std@@@std@@P6AXPAVCHeaderDecorator@NEffectUpdateDecorator@@@Z@std@@YAP6AXPAVCHeaderDecorator@NEffectUpdateDecorator@@@ZV?$_Vector_iterator@V?$_Vector_val@U?$_Simple_types@PAVCHeaderDecorator@NEffectUpdateDecorator@@@std@@@std@@@0@1P6AX0@Z@Z ; std::for_each<std::_Vector_iterator<std::_Vector_val<std::_Simple_types<NEffectUpdateDecorator::CHeaderDecorator *> > >,void (__cdecl*)(NEffectUpdateDecorator::CHeaderDecorator *)>
PUBLIC	??$for_each@V?$_Vector_iterator@V?$_Vector_val@U?$_Simple_types@PAVCNullDecorator@NEffectUpdateDecorator@@@std@@@std@@@std@@P6AXPAVCNullDecorator@NEffectUpdateDecorator@@@Z@std@@YAP6AXPAVCNullDecorator@NEffectUpdateDecorator@@@ZV?$_Vector_iterator@V?$_Vector_val@U?$_Simple_types@PAVCNullDecorator@NEffectUpdateDecorator@@@std@@@std@@@0@1P6AX0@Z@Z ; std::for_each<std::_Vector_iterator<std::_Vector_val<std::_Simple_types<NEffectUpdateDecorator::CNullDecorator *> > >,void (__cdecl*)(NEffectUpdateDecorator::CNullDecorator *)>
PUBLIC	??$for_each@V?$_Vector_iterator@V?$_Vector_val@U?$_Simple_types@PAVCTextureAnimationCWDecorator@NEffectUpdateDecorator@@@std@@@std@@@std@@P6AXPAVCTextureAnimationCWDecorator@NEffectUpdateDecorator@@@Z@std@@YAP6AXPAVCTextureAnimationCWDecorator@NEffectUpdateDecorator@@@ZV?$_Vector_iterator@V?$_Vector_val@U?$_Simple_types@PAVCTextureAnimationCWDecorator@NEffectUpdateDecorator@@@std@@@std@@@0@1P6AX0@Z@Z ; std::for_each<std::_Vector_iterator<std::_Vector_val<std::_Simple_types<NEffectUpdateDecorator::CTextureAnimationCWDecorator *> > >,void (__cdecl*)(NEffectUpdateDecorator::CTextureAnimationCWDecorator *)>
PUBLIC	??$for_each@V?$_Vector_iterator@V?$_Vector_val@U?$_Simple_types@PAVCTextureAnimationCCWDecorator@NEffectUpdateDecorator@@@std@@@std@@@std@@P6AXPAVCTextureAnimationCCWDecorator@NEffectUpdateDecorator@@@Z@std@@YAP6AXPAVCTextureAnimationCCWDecorator@NEffectUpdateDecorator@@@ZV?$_Vector_iterator@V?$_Vector_val@U?$_Simple_types@PAVCTextureAnimationCCWDecorator@NEffectUpdateDecorator@@@std@@@std@@@0@1P6AX0@Z@Z ; std::for_each<std::_Vector_iterator<std::_Vector_val<std::_Simple_types<NEffectUpdateDecorator::CTextureAnimationCCWDecorator *> > >,void (__cdecl*)(NEffectUpdateDecorator::CTextureAnimationCCWDecorator *)>
PUBLIC	??$for_each@V?$_Vector_iterator@V?$_Vector_val@U?$_Simple_types@PAVCTextureAnimationRandomDecorator@NEffectUpdateDecorator@@@std@@@std@@@std@@P6AXPAVCTextureAnimationRandomDecorator@NEffectUpdateDecorator@@@Z@std@@YAP6AXPAVCTextureAnimationRandomDecorator@NEffectUpdateDecorator@@@ZV?$_Vector_iterator@V?$_Vector_val@U?$_Simple_types@PAVCTextureAnimationRandomDecorator@NEffectUpdateDecorator@@@std@@@std@@@0@1P6AX0@Z@Z ; std::for_each<std::_Vector_iterator<std::_Vector_val<std::_Simple_types<NEffectUpdateDecorator::CTextureAnimationRandomDecorator *> > >,void (__cdecl*)(NEffectUpdateDecorator::CTextureAnimationRandomDecorator *)>
PUBLIC	??$for_each@V?$_Vector_iterator@V?$_Vector_val@U?$_Simple_types@PAVCAirResistanceDecorator@NEffectUpdateDecorator@@@std@@@std@@@std@@P6AXPAVCAirResistanceDecorator@NEffectUpdateDecorator@@@Z@std@@YAP6AXPAVCAirResistanceDecorator@NEffectUpdateDecorator@@@ZV?$_Vector_iterator@V?$_Vector_val@U?$_Simple_types@PAVCAirResistanceDecorator@NEffectUpdateDecorator@@@std@@@std@@@0@1P6AX0@Z@Z ; std::for_each<std::_Vector_iterator<std::_Vector_val<std::_Simple_types<NEffectUpdateDecorator::CAirResistanceDecorator *> > >,void (__cdecl*)(NEffectUpdateDecorator::CAirResistanceDecorator *)>
PUBLIC	??$for_each@V?$_Vector_iterator@V?$_Vector_val@U?$_Simple_types@PAVCGravityDecorator@NEffectUpdateDecorator@@@std@@@std@@@std@@P6AXPAVCGravityDecorator@NEffectUpdateDecorator@@@Z@std@@YAP6AXPAVCGravityDecorator@NEffectUpdateDecorator@@@ZV?$_Vector_iterator@V?$_Vector_val@U?$_Simple_types@PAVCGravityDecorator@NEffectUpdateDecorator@@@std@@@std@@@0@1P6AX0@Z@Z ; std::for_each<std::_Vector_iterator<std::_Vector_val<std::_Simple_types<NEffectUpdateDecorator::CGravityDecorator *> > >,void (__cdecl*)(NEffectUpdateDecorator::CGravityDecorator *)>
PUBLIC	??$for_each@V?$_Vector_iterator@V?$_Vector_val@U?$_Simple_types@PAVCRotationDecorator@NEffectUpdateDecorator@@@std@@@std@@@std@@P6AXPAVCRotationDecorator@NEffectUpdateDecorator@@@Z@std@@YAP6AXPAVCRotationDecorator@NEffectUpdateDecorator@@@ZV?$_Vector_iterator@V?$_Vector_val@U?$_Simple_types@PAVCRotationDecorator@NEffectUpdateDecorator@@@std@@@std@@@0@1P6AX0@Z@Z ; std::for_each<std::_Vector_iterator<std::_Vector_val<std::_Simple_types<NEffectUpdateDecorator::CRotationDecorator *> > >,void (__cdecl*)(NEffectUpdateDecorator::CRotationDecorator *)>
PUBLIC	??$_Destroy_range@V?$allocator@PAVCHeaderDecorator@NEffectUpdateDecorator@@@std@@@std@@YAXPAPAVCHeaderDecorator@NEffectUpdateDecorator@@QAPAV12@AAV?$allocator@PAVCHeaderDecorator@NEffectUpdateDecorator@@@0@@Z ; std::_Destroy_range<std::allocator<NEffectUpdateDecorator::CHeaderDecorator *> >
PUBLIC	??$_Destroy_range@V?$allocator@PAVCNullDecorator@NEffectUpdateDecorator@@@std@@@std@@YAXPAPAVCNullDecorator@NEffectUpdateDecorator@@QAPAV12@AAV?$allocator@PAVCNullDecorator@NEffectUpdateDecorator@@@0@@Z ; std::_Destroy_range<std::allocator<NEffectUpdateDecorator::CNullDecorator *> >
PUBLIC	??$_Destroy_range@V?$allocator@PAVCTextureAnimationCWDecorator@NEffectUpdateDecorator@@@std@@@std@@YAXPAPAVCTextureAnimationCWDecorator@NEffectUpdateDecorator@@QAPAV12@AAV?$allocator@PAVCTextureAnimationCWDecorator@NEffectUpdateDecorator@@@0@@Z ; std::_Destroy_range<std::allocator<NEffectUpdateDecorator::CTextureAnimationCWDecorator *> >
PUBLIC	??$_Destroy_range@V?$allocator@PAVCTextureAnimationCCWDecorator@NEffectUpdateDecorator@@@std@@@std@@YAXPAPAVCTextureAnimationCCWDecorator@NEffectUpdateDecorator@@QAPAV12@AAV?$allocator@PAVCTextureAnimationCCWDecorator@NEffectUpdateDecorator@@@0@@Z ; std::_Destroy_range<std::allocator<NEffectUpdateDecorator::CTextureAnimationCCWDecorator *> >
PUBLIC	??$_Destroy_range@V?$allocator@PAVCTextureAnimationRandomDecorator@NEffectUpdateDecorator@@@std@@@std@@YAXPAPAVCTextureAnimationRandomDecorator@NEffectUpdateDecorator@@QAPAV12@AAV?$allocator@PAVCTextureAnimationRandomDecorator@NEffectUpdateDecorator@@@0@@Z ; std::_Destroy_range<std::allocator<NEffectUpdateDecorator::CTextureAnimationRandomDecorator *> >
PUBLIC	??$_Destroy_range@V?$allocator@PAVCAirResistanceDecorator@NEffectUpdateDecorator@@@std@@@std@@YAXPAPAVCAirResistanceDecorator@NEffectUpdateDecorator@@QAPAV12@AAV?$allocator@PAVCAirResistanceDecorator@NEffectUpdateDecorator@@@0@@Z ; std::_Destroy_range<std::allocator<NEffectUpdateDecorator::CAirResistanceDecorator *> >
PUBLIC	??$_Destroy_range@V?$allocator@PAVCGravityDecorator@NEffectUpdateDecorator@@@std@@@std@@YAXPAPAVCGravityDecorator@NEffectUpdateDecorator@@QAPAV12@AAV?$allocator@PAVCGravityDecorator@NEffectUpdateDecorator@@@0@@Z ; std::_Destroy_range<std::allocator<NEffectUpdateDecorator::CGravityDecorator *> >
PUBLIC	??$_Destroy_range@V?$allocator@PAVCRotationDecorator@NEffectUpdateDecorator@@@std@@@std@@YAXPAPAVCRotationDecorator@NEffectUpdateDecorator@@QAPAV12@AAV?$allocator@PAVCRotationDecorator@NEffectUpdateDecorator@@@0@@Z ; std::_Destroy_range<std::allocator<NEffectUpdateDecorator::CRotationDecorator *> >
PUBLIC	??_7exception@std@@6B@				; std::exception::`vftable'
PUBLIC	??_C@_0BC@EOODALEL@Unknown?5exception@		; `string'
PUBLIC	??_7bad_alloc@std@@6B@				; std::bad_alloc::`vftable'
PUBLIC	??_7bad_array_new_length@std@@6B@		; std::bad_array_new_length::`vftable'
PUBLIC	??_C@_0BF@KINCDENJ@bad?5array?5new?5length@	; `string'
PUBLIC	__TI3?AVbad_array_new_length@std@@
PUBLIC	__CTA3?AVbad_array_new_length@std@@
PUBLIC	??_R0?AVbad_array_new_length@std@@@8		; std::bad_array_new_length `RTTI Type Descriptor'
PUBLIC	__CT??_R0?AVbad_array_new_length@std@@@8??0bad_array_new_length@std@@QAE@ABV01@@Z12
PUBLIC	??_R0?AVbad_alloc@std@@@8			; std::bad_alloc `RTTI Type Descriptor'
PUBLIC	__CT??_R0?AVbad_alloc@std@@@8??0bad_alloc@std@@QAE@ABV01@@Z12
PUBLIC	??_R0?AVexception@std@@@8			; std::exception `RTTI Type Descriptor'
PUBLIC	__CT??_R0?AVexception@std@@@8??0exception@std@@QAE@ABV01@@Z12
PUBLIC	??_C@_0BA@JFNIOLAK@string?5too?5long@		; `string'
PUBLIC	??_R4exception@std@@6B@				; std::exception::`RTTI Complete Object Locator'
PUBLIC	??_R3exception@std@@8				; std::exception::`RTTI Class Hierarchy Descriptor'
PUBLIC	??_R2exception@std@@8				; std::exception::`RTTI Base Class Array'
PUBLIC	??_R1A@?0A@EA@exception@std@@8			; std::exception::`RTTI Base Class Descriptor at (0,-1,0,64)'
PUBLIC	??_R4bad_alloc@std@@6B@				; std::bad_alloc::`RTTI Complete Object Locator'
PUBLIC	??_R3bad_alloc@std@@8				; std::bad_alloc::`RTTI Class Hierarchy Descriptor'
PUBLIC	??_R2bad_alloc@std@@8				; std::bad_alloc::`RTTI Base Class Array'
PUBLIC	??_R1A@?0A@EA@bad_alloc@std@@8			; std::bad_alloc::`RTTI Base Class Descriptor at (0,-1,0,64)'
PUBLIC	??_R4bad_array_new_length@std@@6B@		; std::bad_array_new_length::`RTTI Complete Object Locator'
PUBLIC	??_R3bad_array_new_length@std@@8		; std::bad_array_new_length::`RTTI Class Hierarchy Descriptor'
PUBLIC	??_R2bad_array_new_length@std@@8		; std::bad_array_new_length::`RTTI Base Class Array'
PUBLIC	??_R1A@?0A@EA@bad_array_new_length@std@@8	; std::bad_array_new_length::`RTTI Base Class Descriptor at (0,-1,0,64)'
PUBLIC	?ms_singleton@?$CSingleton@VCPythonItem@@@@0PAVCPythonItem@@A ; CSingleton<CPythonItem>::ms_singleton
PUBLIC	?ms_singleton@?$CSingleton@VCItemManager@@@@0PAVCItemManager@@A ; CSingleton<CItemManager>::ms_singleton
PUBLIC	?ms_kPool@?$CPooledObject@VCHeaderDecorator@NEffectUpdateDecorator@@@@1V?$CDynamicPoolEx@VCHeaderDecorator@NEffectUpdateDecorator@@@@A ; CPooledObject<NEffectUpdateDecorator::CHeaderDecorator>::ms_kPool
PUBLIC	?ms_kPool@?$CPooledObject@VCNullDecorator@NEffectUpdateDecorator@@@@1V?$CDynamicPoolEx@VCNullDecorator@NEffectUpdateDecorator@@@@A ; CPooledObject<NEffectUpdateDecorator::CNullDecorator>::ms_kPool
PUBLIC	?ms_kPool@?$CPooledObject@VCTextureAnimationCWDecorator@NEffectUpdateDecorator@@@@1V?$CDynamicPoolEx@VCTextureAnimationCWDecorator@NEffectUpdateDecorator@@@@A ; CPooledObject<NEffectUpdateDecorator::CTextureAnimationCWDecorator>::ms_kPool
PUBLIC	?ms_kPool@?$CPooledObject@VCTextureAnimationCCWDecorator@NEffectUpdateDecorator@@@@1V?$CDynamicPoolEx@VCTextureAnimationCCWDecorator@NEffectUpdateDecorator@@@@A ; CPooledObject<NEffectUpdateDecorator::CTextureAnimationCCWDecorator>::ms_kPool
PUBLIC	?ms_kPool@?$CPooledObject@VCTextureAnimationRandomDecorator@NEffectUpdateDecorator@@@@1V?$CDynamicPoolEx@VCTextureAnimationRandomDecorator@NEffectUpdateDecorator@@@@A ; CPooledObject<NEffectUpdateDecorator::CTextureAnimationRandomDecorator>::ms_kPool
PUBLIC	?ms_kPool@?$CPooledObject@VCAirResistanceDecorator@NEffectUpdateDecorator@@@@1V?$CDynamicPoolEx@VCAirResistanceDecorator@NEffectUpdateDecorator@@@@A ; CPooledObject<NEffectUpdateDecorator::CAirResistanceDecorator>::ms_kPool
PUBLIC	?ms_kPool@?$CPooledObject@VCGravityDecorator@NEffectUpdateDecorator@@@@1V?$CDynamicPoolEx@VCGravityDecorator@NEffectUpdateDecorator@@@@A ; CPooledObject<NEffectUpdateDecorator::CGravityDecorator>::ms_kPool
PUBLIC	?ms_kPool@?$CPooledObject@VCRotationDecorator@NEffectUpdateDecorator@@@@1V?$CDynamicPoolEx@VCRotationDecorator@NEffectUpdateDecorator@@@@A ; CPooledObject<NEffectUpdateDecorator::CRotationDecorator>::ms_kPool
PUBLIC	?ms_singleton@?$TAbstractSingleton@VIAbstractApplication@@@@0PAVIAbstractApplication@@A ; TAbstractSingleton<IAbstractApplication>::ms_singleton
PUBLIC	??_C@_0BH@EOAFOHJK@Cannot?5find?5item?5by?5?$CFd@ ; `string'
PUBLIC	??_C@_0BG@LNOAJHHG@no?5selected?5item?5data@	; `string'
PUBLIC	??_C@_01LKDEMHDF@s@				; `string'
PUBLIC	??_C@_01KBJDNOO@i@				; `string'
PUBLIC	??_C@_06HCBIANPB@Noname@			; `string'
PUBLIC	??_C@_04INACLLOK@?$CIii?$CJ@			; `string'
PUBLIC	??_C@_0BJ@FJOAFFCG@Not?5yet?5select?5item?5data@ ; `string'
PUBLIC	??_C@_02PDIHAGKM@ii@				; `string'
PUBLIC	??_C@_0BM@MLEHJLDK@Cannot?5get?5icon?5image?5by?5?$CFd@ ; `string'
PUBLIC	??_C@_0BM@KPLEGEEH@Can?8t?5find?5select?5item?5data@ ; `string'
PUBLIC	??_C@_0BE@HKKEFMIC@SetUseSoundFileName@		; `string'
PUBLIC	??_C@_0BF@BODGENI@SetDropSoundFileName@		; `string'
PUBLIC	??_C@_0L@GFKKOOBA@SelectItem@			; `string'
PUBLIC	??_C@_0M@BFODJMFI@GetItemName@			; `string'
PUBLIC	??_C@_0BD@GLEOJONA@GetItemDescription@		; `string'
PUBLIC	??_C@_0P@OIBFDAMI@GetItemSummary@		; `string'
PUBLIC	??_C@_0N@IEABDKDK@GetIconImage@			; `string'
PUBLIC	??_C@_0BF@NNPLLIOE@GetIconImageFileName@	; `string'
PUBLIC	??_C@_0M@FBEOFCHB@GetItemSize@			; `string'
PUBLIC	??_C@_0M@LOOAFMCI@GetItemType@			; `string'
PUBLIC	??_C@_0P@MFCMKOKJ@GetItemSubType@		; `string'
PUBLIC	??_C@_0BB@KJGHJKGD@GetIBuyItemPrice@		; `string'
PUBLIC	??_C@_0BC@OKNBBEMG@GetISellItemPrice@		; `string'
PUBLIC	??_C@_0L@NKLNOBKA@IsAntiFlag@			; `string'
PUBLIC	??_C@_06PLFMNGGB@IsFlag@			; `string'
PUBLIC	??_C@_0P@KNFGADIE@IsWearableFlag@		; `string'
PUBLIC	??_C@_0M@IKKLMPND@Is1GoldItem@			; `string'
PUBLIC	??_C@_08KIIGDNA@GetLimit@			; `string'
PUBLIC	??_C@_09HJGEAOAM@GetAffect@			; `string'
PUBLIC	??_C@_08GGOMBHIN@GetValue@			; `string'
PUBLIC	??_C@_09ICJIFGNC@GetSocket@			; `string'
PUBLIC	??_C@_0BA@PMLMLIHH@GetIconInstance@		; `string'
PUBLIC	??_C@_0L@POCKMHMA@GetUseType@			; `string'
PUBLIC	??_C@_0BD@BNBIIKMM@DeleteIconInstance@		; `string'
PUBLIC	??_C@_0P@OGDGGJFE@IsEquipmentVID@		; `string'
PUBLIC	??_C@_0P@LGDKNEFF@IsRefineScroll@		; `string'
PUBLIC	??_C@_0P@CNNPGCCK@IsDetachScroll@		; `string'
PUBLIC	??_C@_05CEOMILKP@IsKey@				; `string'
PUBLIC	??_C@_07MLLOFDCE@IsMetin@			; `string'
PUBLIC	??_C@_0BG@FEGHIHDK@CanAddToQuickSlotItem@	; `string'
PUBLIC	??_C@_06LMAGPFNF@Update@			; `string'
PUBLIC	??_C@_06EPLDPNDB@Render@			; `string'
PUBLIC	??_C@_0L@EMDEHLJF@CreateItem@			; `string'
PUBLIC	??_C@_0L@IIJEEMCG@DeleteItem@			; `string'
PUBLIC	??_C@_04ILHILILF@Pick@				; `string'
PUBLIC	??_C@_0O@HJNOJBCJ@LoadItemTable@		; `string'
PUBLIC	??_C@_04NHONDGDE@item@				; `string'
PUBLIC	??_C@_0BD@MEKMBKPM@USESOUND_ACCESSORY@		; `string'
PUBLIC	??_C@_0P@ENGKPPPD@USESOUND_ARMOR@		; `string'
PUBLIC	??_C@_0N@MDIFIDON@USESOUND_BOW@			; `string'
PUBLIC	??_C@_0BB@BHHNCGFC@USESOUND_DEFAULT@		; `string'
PUBLIC	??_C@_0BA@IJKKKKOO@USESOUND_WEAPON@		; `string'
PUBLIC	??_C@_0BA@GIIHLHOB@USESOUND_POTION@		; `string'
PUBLIC	??_C@_0BA@HNBMICIL@USESOUND_PORTAL@		; `string'
PUBLIC	??_C@_0BE@PBPPNIPJ@DROPSOUND_ACCESSORY@		; `string'
PUBLIC	??_C@_0BA@PCCDLKKO@DROPSOUND_ARMOR@		; `string'
PUBLIC	??_C@_0O@OOJPAKOO@DROPSOUND_BOW@		; `string'
PUBLIC	??_C@_0BC@BONOAPBN@DROPSOUND_DEFAULT@		; `string'
PUBLIC	??_C@_0BB@JMMPMOOC@DROPSOUND_WEAPON@		; `string'
PUBLIC	??_C@_0BA@KJELJAII@EQUIPMENT_COUNT@		; `string'
PUBLIC	??_C@_0P@GCJFHMFC@EQUIPMENT_HEAD@		; `string'
PUBLIC	??_C@_0P@LODPCKGA@EQUIPMENT_BODY@		; `string'
PUBLIC	??_C@_0BB@IKOPOEMN@EQUIPMENT_WEAPON@		; `string'
PUBLIC	??_C@_0BA@KHENFLDC@EQUIPMENT_WRIST@		; `string'
PUBLIC	??_C@_0BA@GEANIANO@EQUIPMENT_SHOES@		; `string'
PUBLIC	??_C@_0P@GJMJEBFD@EQUIPMENT_NECK@		; `string'
PUBLIC	??_C@_0O@KNFMDJEG@EQUIPMENT_EAR@		; `string'
PUBLIC	??_C@_0BC@IBOCPGBL@EQUIPMENT_UNIQUE1@		; `string'
PUBLIC	??_C@_0BC@KKMPKFNI@EQUIPMENT_UNIQUE2@		; `string'
PUBLIC	??_C@_0BA@MLMLGDPN@EQUIPMENT_ARROW@		; `string'
PUBLIC	??_C@_0BA@HOMCMAOF@EQUIPMENT_RING1@		; `string'
PUBLIC	??_C@_0BA@FFOPJDCG@EQUIPMENT_RING2@		; `string'
PUBLIC	??_C@_0P@GKDPOFPB@EQUIPMENT_BELT@		; `string'
PUBLIC	??_C@_0P@EMFHBOCE@ITEM_TYPE_NONE@		; `string'
PUBLIC	??_C@_0BB@KIJBPCOD@ITEM_TYPE_WEAPON@		; `string'
PUBLIC	??_C@_0BA@MCMGEHMH@ITEM_TYPE_ARMOR@		; `string'
PUBLIC	??_C@_0O@EJGIJMHP@ITEM_TYPE_USE@		; `string'
PUBLIC	??_C@_0BC@PDFOCJLB@ITEM_TYPE_AUTOUSE@		; `string'
PUBLIC	??_C@_0BD@NFIKPBKO@ITEM_TYPE_MATERIAL@		; `string'
PUBLIC	??_C@_0BC@EGCNCIAP@ITEM_TYPE_SPECIAL@		; `string'
PUBLIC	??_C@_0P@LGAHEAHJ@ITEM_TYPE_TOOL@		; `string'
PUBLIC	??_C@_0BC@LGJDJIG@ITEM_TYPE_LOTTERY@		; `string'
PUBLIC	??_C@_0O@JAIIACCD@ITEM_TYPE_ELK@		; `string'
PUBLIC	??_C@_0BA@KICPPFNE@ITEM_TYPE_METIN@		; `string'
PUBLIC	??_C@_0BE@JBBPDBJM@ITEM_TYPE_CONTAINER@		; `string'
PUBLIC	??_C@_0P@PIBMEEFH@ITEM_TYPE_FISH@		; `string'
PUBLIC	??_C@_0O@NIJIMPJD@ITEM_TYPE_ROD@		; `string'
PUBLIC	??_C@_0BD@KBPLAMLF@ITEM_TYPE_RESOURCE@		; `string'
PUBLIC	??_C@_0BD@OGNHPHCL@ITEM_TYPE_CAMPFIRE@		; `string'
PUBLIC	??_C@_0BB@CPEAMAMA@ITEM_TYPE_UNIQUE@		; `string'
PUBLIC	??_C@_0BE@FAMMFDKM@ITEM_TYPE_SKILLBOOK@		; `string'
PUBLIC	??_C@_0BA@PFOCEMDB@ITEM_TYPE_QUEST@		; `string'
PUBLIC	??_C@_0BE@DGPJCLHG@ITEM_TYPE_POLYMORPH@		; `string'
PUBLIC	??_C@_0BH@MPEMDLLF@ITEM_TYPE_TREASURE_BOX@	; `string'
PUBLIC	??_C@_0BH@KGMIMAKI@ITEM_TYPE_TREASURE_KEY@	; `string'
PUBLIC	??_C@_0P@CALHNGMG@ITEM_TYPE_PICK@		; `string'
PUBLIC	??_C@_0BA@EDGMOLIF@ITEM_TYPE_BLEND@		; `string'
PUBLIC	??_C@_0N@BKIJEOLO@ITEM_TYPE_DS@			; `string'
PUBLIC	??_C@_0BF@GGLFIBNL@ITEM_TYPE_SPECIAL_DS@	; `string'
PUBLIC	??_C@_0P@POBKFJPJ@ITEM_TYPE_RING@		; `string'
PUBLIC	??_C@_0P@LGEHOEDP@ITEM_TYPE_BELT@		; `string'
PUBLIC	??_C@_0BC@GOFIPFBN@ITEM_TYPE_COSTUME@		; `string'
PUBLIC	??_C@_0BC@IBLNMJBH@COSTUME_TYPE_BODY@		; `string'
PUBLIC	??_C@_0BC@MAPOOMBN@COSTUME_TYPE_HAIR@		; `string'
PUBLIC	??_C@_0BD@JCGACLBK@COSTUME_SLOT_START@		; `string'
PUBLIC	??_C@_0BD@EMMBBFMO@COSTUME_SLOT_COUNT@		; `string'
PUBLIC	??_C@_0BC@OBAEGBKN@COSTUME_SLOT_BODY@		; `string'
PUBLIC	??_C@_0BC@KAEHEEKH@COSTUME_SLOT_HAIR@		; `string'
PUBLIC	??_C@_0BB@IEFLAOJF@COSTUME_SLOT_END@		; `string'
PUBLIC	??_C@_0BK@JAICDGKA@BELT_INVENTORY_SLOT_START@	; `string'
PUBLIC	??_C@_0BK@EOCDAIHE@BELT_INVENTORY_SLOT_COUNT@	; `string'
PUBLIC	??_C@_0BI@GPHFDCEJ@BELT_INVENTORY_SLOT_END@	; `string'
PUBLIC	??_C@_0N@FCLCNMLC@WEAPON_SWORD@			; `string'
PUBLIC	??_C@_0O@IMDDJKDH@WEAPON_DAGGER@		; `string'
PUBLIC	??_C@_0L@KDNCAJJM@WEAPON_BOW@			; `string'
PUBLIC	??_C@_0BC@OILJBHHK@WEAPON_TWO_HANDED@		; `string'
PUBLIC	??_C@_0M@NKBIKBJK@WEAPON_BELL@			; `string'
PUBLIC	??_C@_0L@LNCOBKNJ@WEAPON_FAN@			; `string'
PUBLIC	??_C@_0N@DCOAOKB@WEAPON_ARROW@			; `string'
PUBLIC	??_C@_0BB@KFDFBDPL@WEAPON_NUM_TYPES@		; `string'
PUBLIC	??_C@_0L@DENJCCNI@USE_POTION@			; `string'
PUBLIC	??_C@_0N@CINBPLKM@USE_TALISMAN@			; `string'
PUBLIC	??_C@_0L@JIILHJGL@USE_TUNING@			; `string'
PUBLIC	??_C@_08JHFKMGGA@USE_MOVE@			; `string'
PUBLIC	??_C@_0BB@BBPDKOFG@USE_TREASURE_BOX@		; `string'
PUBLIC	??_C@_0N@BOHEHPFI@USE_MONEYBAG@			; `string'
PUBLIC	??_C@_08LBHGOBNP@USE_BAIT@			; `string'
PUBLIC	??_C@_0P@JBLCKFGE@USE_ABILITY_UP@		; `string'
PUBLIC	??_C@_0L@DLLOJMIP@USE_AFFECT@			; `string'
PUBLIC	??_C@_0BB@PBBDNJH@USE_CREATE_STONE@		; `string'
PUBLIC	??_C@_0M@GHOELJHH@USE_SPECIAL@			; `string'
PUBLIC	??_C@_0BD@MMDEHJ@USE_POTION_NODELAY@		; `string'
PUBLIC	??_C@_09PNKHEPEF@USE_CLEAR@			; `string'
PUBLIC	??_C@_0BB@NCIEFOD@USE_INVISIBILITY@		; `string'
PUBLIC	??_C@_0P@MKAMDACK@USE_DETACHMENT@		; `string'
PUBLIC	??_C@_0BE@NEAJJELI@USE_TIME_CHARGE_PER@		; `string'
PUBLIC	??_C@_0BE@FCIOINBF@USE_TIME_CHARGE_FIX@		; `string'
PUBLIC	??_C@_0BK@FFJFCNLF@MATERIAL_DS_REFINE_NORMAL@	; `string'
PUBLIC	??_C@_0BL@HNMOOIKG@MATERIAL_DS_REFINE_BLESSED@	; `string'
PUBLIC	??_C@_0BJ@KCHKGND@MATERIAL_DS_REFINE_HOLLY@	; `string'
PUBLIC	??_C@_0N@HOHHHOFD@METIN_NORMAL@			; `string'
PUBLIC	??_C@_0L@MFIGJJDC@METIN_GOLD@			; `string'
PUBLIC	??_C@_0L@MKHGBGII@LIMIT_NONE@			; `string'
PUBLIC	??_C@_0M@CNLALLNH@LIMIT_LEVEL@			; `string'
PUBLIC	??_C@_09JOBFCJGA@LIMIT_STR@			; `string'
PUBLIC	??_C@_09LENAGHIL@LIMIT_DEX@			; `string'
PUBLIC	??_C@_09OGFKBPLL@LIMIT_INT@			; `string'
PUBLIC	??_C@_09DIAIGPDD@LIMIT_CON@			; `string'
PUBLIC	??_C@_0N@MIADEJNC@LIMIT_PCBANG@			; `string'
PUBLIC	??_C@_0BA@FCJCAFPM@LIMIT_REAL_TIME@		; `string'
PUBLIC	??_C@_0CA@KECNELOI@LIMIT_REAL_TIME_START_FIRST_USE@ ; `string'
PUBLIC	??_C@_0BK@DKGMKHOA@LIMIT_TIMER_BASED_ON_WEAR@	; `string'
PUBLIC	??_C@_0BD@JIAJEJNL@LIMIT_TYPE_MAX_NUM@		; `string'
PUBLIC	??_C@_0O@DPNMMLCK@LIMIT_MAX_NUM@		; `string'
PUBLIC	??_C@_0BF@DFHLBKDO@ITEM_ANTIFLAG_FEMALE@	; `string'
PUBLIC	??_C@_0BD@DBFGLDPM@ITEM_ANTIFLAG_MALE@		; `string'
PUBLIC	??_C@_0BG@OCAOGEDJ@ITEM_ANTIFLAG_WARRIOR@	; `string'
PUBLIC	??_C@_0BH@NDIALJFO@ITEM_ANTIFLAG_ASSASSIN@	; `string'
PUBLIC	??_C@_0BD@EDCJBBKJ@ITEM_ANTIFLAG_SURA@		; `string'
PUBLIC	??_C@_0BF@NIAJKCKI@ITEM_ANTIFLAG_SHAMAN@	; `string'
PUBLIC	??_C@_0BC@NECEHGFA@ITEM_ANTIFLAG_GET@		; `string'
PUBLIC	??_C@_0BD@ELBJHBLB@ITEM_ANTIFLAG_DROP@		; `string'
PUBLIC	??_C@_0BD@LACGLGAB@ITEM_ANTIFLAG_SELL@		; `string'
PUBLIC	??_C@_0BH@ONMHLBEF@ITEM_ANTIFLAG_EMPIRE_A@	; `string'
PUBLIC	??_C@_0BH@MGOKOCIG@ITEM_ANTIFLAG_EMPIRE_B@	; `string'
PUBLIC	??_C@_0BH@IMCIPANH@ITEM_ANTIFLAG_EMPIRE_R@	; `string'
PUBLIC	??_C@_0BD@PPDHLMLJ@ITEM_ANTIFLAG_SAVE@		; `string'
PUBLIC	??_C@_0BD@KPODKFBE@ITEM_ANTIFLAG_GIVE@		; `string'
PUBLIC	??_C@_0BF@HBDABAPH@ITEM_ANTIFLAG_PKDROP@	; `string'
PUBLIC	??_C@_0BE@MAIMKBDM@ITEM_ANTIFLAG_STACK@		; `string'
PUBLIC	??_C@_0BF@NEEDLCAA@ITEM_ANTIFLAG_MYSHOP@	; `string'
PUBLIC	??_C@_0P@POCGDPPH@ITEM_FLAG_RARE@		; `string'
PUBLIC	??_C@_0BB@PGFIBJHK@ITEM_FLAG_UNIQUE@		; `string'
PUBLIC	??_C@_0BL@IPKGPKMA@ITEM_FLAG_CONFIRM_WHEN_USE@	; `string'
PUBLIC	??_C@_0BA@PLOPKCNG@ANTIFLAG_FEMALE@		; `string'
PUBLIC	??_C@_0O@GCOFJDKL@ANTIFLAG_MALE@		; `string'
PUBLIC	??_C@_0BB@EMBBJKML@ANTIFLAG_WARRIOR@		; `string'
PUBLIC	??_C@_0BC@IAJNDFJA@ANTIFLAG_ASSASSIN@		; `string'
PUBLIC	??_C@_0O@BAJKDBPO@ANTIFLAG_SURA@		; `string'
PUBLIC	??_C@_0BA@BGJNBKEA@ANTIFLAG_SHAMAN@		; `string'
PUBLIC	??_C@_0N@NEJHBBKC@ANTIFLAG_GET@			; `string'
PUBLIC	??_C@_0O@BIKKFBOG@ANTIFLAG_DROP@		; `string'
PUBLIC	??_C@_0O@ODJFJGFG@ANTIFLAG_SELL@		; `string'
PUBLIC	??_C@_0BC@LONKDNIL@ANTIFLAG_EMPIRE_A@		; `string'
PUBLIC	??_C@_0BC@JFPHGOEI@ANTIFLAG_EMPIRE_B@		; `string'
PUBLIC	??_C@_0BC@NPDFHMBJ@ANTIFLAG_EMPIRE_R@		; `string'
PUBLIC	??_C@_0O@KMIEJMOO@ANTIFLAG_SAVE@		; `string'
PUBLIC	??_C@_0O@PMFAIFED@ANTIFLAG_GIVE@		; `string'
PUBLIC	??_C@_0BA@LPKEKIBP@ANTIFLAG_PKDROP@		; `string'
PUBLIC	??_C@_0P@DFNANGEL@ANTIFLAG_STACK@		; `string'
PUBLIC	??_C@_0BA@BKNHAKOI@ANTIFLAG_MYSHOP@		; `string'
PUBLIC	??_C@_0O@KOFPKKKF@WEARABLE_BODY@		; `string'
PUBLIC	??_C@_0O@HCPFPMJH@WEARABLE_HEAD@		; `string'
PUBLIC	??_C@_0P@HDMMFABO@WEARABLE_FOOTS@		; `string'
PUBLIC	??_C@_0P@EMFDANIN@WEARABLE_WRIST@		; `string'
PUBLIC	??_C@_0BA@NBNKFEIG@WEARABLE_WEAPON@		; `string'
PUBLIC	??_C@_0O@HJKJMBJG@WEARABLE_NECK@		; `string'
PUBLIC	??_C@_0N@BHKGKGNM@WEARABLE_EAR@			; `string'
PUBLIC	??_C@_0BA@FGALGGKF@WEARABLE_UNIQUE@		; `string'
PUBLIC	??_C@_0BA@DGBFNJPE@WEARABLE_SHIELD@		; `string'
PUBLIC	??_C@_0P@CANFDFEC@WEARABLE_ARROW@		; `string'
PUBLIC	??_C@_0L@FFADCIKH@ARMOR_BODY@			; `string'
PUBLIC	??_C@_0L@IJKJHOJF@ARMOR_HEAD@			; `string'
PUBLIC	??_C@_0N@HJFKCCG@ARMOR_SHIELD@			; `string'
PUBLIC	??_C@_0M@KCKGDACD@ARMOR_WRIST@			; `string'
PUBLIC	??_C@_0M@JNDJGNLA@ARMOR_FOOTS@			; `string'
PUBLIC	??_C@_0L@ICPFEDJE@ARMOR_NECK@			; `string'
PUBLIC	??_C@_09JPGIMBID@ARMOR_EAR@			; `string'
PUBLIC	??_C@_0BD@POBJPMPE@ITEM_APPLY_MAX_NUM@		; `string'
PUBLIC	??_C@_0BE@PABFDMOM@ITEM_SOCKET_MAX_NUM@		; `string'
PUBLIC	??_C@_0L@KOOBDLCP@APPLY_NONE@			; `string'
PUBLIC	??_C@_09GCJAEOHJ@APPLY_STR@			; `string'
PUBLIC	??_C@_09EIFFAAJC@APPLY_DEX@			; `string'
PUBLIC	??_C@_09MEINAICK@APPLY_CON@			; `string'
PUBLIC	??_C@_09BKNPHIKC@APPLY_INT@			; `string'
PUBLIC	??_C@_0N@LMMDFALA@APPLY_MAX_HP@			; `string'
PUBLIC	??_C@_0N@KMLABMCB@APPLY_MAX_SP@			; `string'
PUBLIC	??_C@_0P@CBOEJMBC@APPLY_HP_REGEN@		; `string'
PUBLIC	??_C@_0P@PHBEALO@APPLY_SP_REGEN@		; `string'
PUBLIC	??_C@_0BG@DJGIDNN@APPLY_DEF_GRADE_BONUS@	; `string'
PUBLIC	??_C@_0BG@DIKOCKN@APPLY_ATT_GRADE_BONUS@	; `string'
PUBLIC	??_C@_0BA@PBNDFNHA@APPLY_ATT_SPEED@		; `string'
PUBLIC	??_C@_0BA@IHFPGGCP@APPLY_MOV_SPEED@		; `string'
PUBLIC	??_C@_0BB@IMPHMAIN@APPLY_CAST_SPEED@		; `string'
PUBLIC	??_C@_0BG@JIJNNLOL@APPLY_MAGIC_ATT_GRADE@	; `string'
PUBLIC	??_C@_0BG@PLJBHAML@APPLY_MAGIC_DEF_GRADE@	; `string'
PUBLIC	??_C@_0M@CPHNGINI@APPLY_SKILL@			; `string'
PUBLIC	??_C@_0BG@FCHNFPKG@APPLY_ATTBONUS_ANIMAL@	; `string'
PUBLIC	??_C@_0BG@DEBBIBCN@APPLY_ATTBONUS_UNDEAD@	; `string'
PUBLIC	??_C@_0BF@PHBHKMPC@APPLY_ATTBONUS_DEVIL@	; `string'
PUBLIC	??_C@_0BF@FLAIBIKP@APPLY_ATTBONUS_HUMAN@	; `string'
PUBLIC	??_C@_0BD@DGLENODO@APPLY_BOW_DISTANCE@		; `string'
PUBLIC	??_C@_0BB@KEIAGOOG@APPLY_RESIST_BOW@		; `string'
PUBLIC	??_C@_0BC@BCODEHJE@APPLY_RESIST_FIRE@		; `string'
PUBLIC	??_C@_0BC@CNKONPAF@APPLY_RESIST_ELEC@		; `string'
PUBLIC	??_C@_0BD@BIEOENBH@APPLY_RESIST_MAGIC@		; `string'
PUBLIC	??_C@_0BB@OFEPEABG@APPLY_POISON_PCT@		; `string'
PUBLIC	??_C@_0P@EAEIAPML@APPLY_SLOW_PCT@		; `string'
PUBLIC	??_C@_0P@IGBLFIG@APPLY_STUN_PCT@		; `string'
PUBLIC	??_C@_0BD@DOHBCDEC@APPLY_CRITICAL_PCT@		; `string'
PUBLIC	??_C@_0BE@MIHOPHBF@APPLY_PENETRATE_PCT@		; `string'
PUBLIC	??_C@_0BD@GHNBCFFK@APPLY_ATTBONUS_ORC@		; `string'
PUBLIC	??_C@_0BG@BGJNMLHF@APPLY_ATTBONUS_MILGYO@	; `string'
PUBLIC	??_C@_0P@IJPDEMHM@APPLY_STEAL_HP@		; `string'
PUBLIC	??_C@_0P@JJIAAAON@APPLY_STEAL_SP@		; `string'
PUBLIC	??_C@_0BE@MMJAOBJI@APPLY_MANA_BURN_PCT@		; `string'
PUBLIC	??_C@_0BI@CNPFJGMF@APPLY_DAMAGE_SP_RECOVER@	; `string'
PUBLIC	??_C@_0M@DEKBOLNA@APPLY_BLOCK@			; `string'
PUBLIC	??_C@_0M@OLNDHAEO@APPLY_DODGE@			; `string'
PUBLIC	??_C@_0BD@FELELOGH@APPLY_RESIST_SWORD@		; `string'
PUBLIC	??_C@_0BF@PPDPGLJM@APPLY_RESIST_TWOHAND@	; `string'
PUBLIC	??_C@_0BE@HKIMLKAO@APPLY_RESIST_DAGGER@		; `string'
PUBLIC	??_C@_0BC@GKMPGLNP@APPLY_RESIST_BELL@		; `string'
PUBLIC	??_C@_0BB@LKHMHNKD@APPLY_RESIST_FAN@		; `string'
PUBLIC	??_C@_0BC@EDEEJCPD@APPLY_RESIST_WIND@		; `string'
PUBLIC	??_C@_0BE@JKECBGFJ@APPLY_REFLECT_MELEE@		; `string'
PUBLIC	??_C@_0BE@GIMFBPMF@APPLY_REFLECT_CURSE@		; `string'
PUBLIC	??_C@_0BE@CMJGNONM@APPLY_POISON_REDUCE@		; `string'
PUBLIC	??_C@_0BG@NAAMOKGC@APPLY_KILL_SP_RECOVER@	; `string'
PUBLIC	??_C@_0BH@BOFCHNGC@APPLY_EXP_DOUBLE_BONUS@	; `string'
PUBLIC	??_C@_0BI@CPGCKKHM@APPLY_GOLD_DOUBLE_BONUS@	; `string'
PUBLIC	??_C@_0BG@GJLPLNJK@APPLY_ITEM_DROP_BONUS@	; `string'
PUBLIC	??_C@_0BD@HAABJCED@APPLY_POTION_BONUS@		; `string'
PUBLIC	??_C@_0BG@FNNLKJON@APPLY_KILL_HP_RECOVER@	; `string'
PUBLIC	??_C@_0BC@GMOGAEGD@APPLY_IMMUNE_STUN@		; `string'
PUBLIC	??_C@_0BC@HDPKPEKN@APPLY_IMMUNE_SLOW@		; `string'
PUBLIC	??_C@_0BC@ICOAEBEB@APPLY_IMMUNE_FALL@		; `string'
PUBLIC	??_C@_0BC@MENAELHN@APPLY_MAX_STAMINA@		; `string'
PUBLIC	??_C@_0BH@LHKFGIKM@APPLY_ATTBONUS_WARRIOR@	; `string'
PUBLIC	??_C@_0BI@FDLAHFJJ@APPLY_ATTBONUS_ASSASSIN@	; `string'
PUBLIC	??_C@_0BE@EHJIJMPG@APPLY_ATTBONUS_SURA@		; `string'
PUBLIC	??_C@_0BG@HGCDBIBP@APPLY_ATTBONUS_SHAMAN@	; `string'
PUBLIC	??_C@_0BH@OMHBNPNG@APPLY_ATTBONUS_MONSTER@	; `string'
PUBLIC	??_C@_0BE@INMGAFDB@APPLY_MALL_ATTBONUS@		; `string'
PUBLIC	??_C@_0BE@IHABPMCM@APPLY_MALL_DEFBONUS@		; `string'
PUBLIC	??_C@_0BE@HDMKGFGB@APPLY_MALL_EXPBONUS@		; `string'
PUBLIC	??_C@_0BF@JHCAFPEC@APPLY_MALL_ITEMBONUS@	; `string'
PUBLIC	??_C@_0BF@CNKLONKF@APPLY_MALL_GOLDBONUS@	; `string'
PUBLIC	??_C@_0BB@IOILOHHB@APPLY_MAX_HP_PCT@		; `string'
PUBLIC	??_C@_0BB@OLFCCPEF@APPLY_MAX_SP_PCT@		; `string'
PUBLIC	??_C@_0BJ@ILJOEJMP@APPLY_SKILL_DAMAGE_BONUS@	; `string'
PUBLIC	??_C@_0BO@KJDLNPKH@APPLY_NORMAL_HIT_DAMAGE_BONUS@ ; `string'
PUBLIC	??_C@_0BJ@MCFLODEL@APPLY_SKILL_DEFEND_BONUS@	; `string'
PUBLIC	??_C@_0BO@OAPOHFCD@APPLY_NORMAL_HIT_DEFEND_BONUS@ ; `string'
PUBLIC	??_C@_0BI@MMJMNMDE@APPLY_PC_BANG_EXP_BONUS@	; `string'
PUBLIC	??_C@_0BJ@MIHJNNLH@APPLY_PC_BANG_DROP_BONUS@	; `string'
PUBLIC	??_C@_0BF@DIEIKMOC@APPLY_RESIST_WARRIOR@	; `string'
PUBLIC	??_C@_0BG@MCFLPEMK@APPLY_RESIST_ASSASSIN@	; `string'
PUBLIC	??_C@_0BC@MEEAHCEF@APPLY_RESIST_SURA@		; `string'
PUBLIC	??_C@_0BE@POHJKJMD@APPLY_RESIST_SHAMAN@		; `string'
PUBLIC	??_C@_0N@MOPONLJI@APPLY_ENERGY@			; `string'
PUBLIC	??_C@_0BJ@IGOAELFN@APPLY_COSTUME_ATTR_BONUS@	; `string'
PUBLIC	??_C@_0BJ@JJJKDKFC@APPLY_MAGIC_ATTBONUS_PER@	; `string'
PUBLIC	??_C@_0BP@MGKGKJGA@APPLY_MELEE_MAGIC_ATTBONUS_PER@ ; `string'
PUBLIC	??_C@_0BB@CGPGAFA@APPLY_RESIST_ICE@		; `string'
PUBLIC	??_C@_0BD@GENAIBDP@APPLY_RESIST_EARTH@		; `string'
PUBLIC	??_C@_0BC@DDBEBBJF@APPLY_RESIST_DARK@		; `string'
PUBLIC	??_C@_0BI@KIMFHHIO@APPLY_ANTI_CRITICAL_PCT@	; `string'
PUBLIC	??_C@_0BJ@FKDKMNNK@APPLY_ANTI_PENETRATE_PCT@	; `string'
PUBLIC	??_7?$CDynamicPoolEx@VCRotationDecorator@NEffectUpdateDecorator@@@@6B@ ; CDynamicPoolEx<NEffectUpdateDecorator::CRotationDecorator>::`vftable'
PUBLIC	??_7?$CDynamicPoolEx@VCGravityDecorator@NEffectUpdateDecorator@@@@6B@ ; CDynamicPoolEx<NEffectUpdateDecorator::CGravityDecorator>::`vftable'
PUBLIC	??_7?$CDynamicPoolEx@VCAirResistanceDecorator@NEffectUpdateDecorator@@@@6B@ ; CDynamicPoolEx<NEffectUpdateDecorator::CAirResistanceDecorator>::`vftable'
PUBLIC	??_7?$CDynamicPoolEx@VCTextureAnimationRandomDecorator@NEffectUpdateDecorator@@@@6B@ ; CDynamicPoolEx<NEffectUpdateDecorator::CTextureAnimationRandomDecorator>::`vftable'
PUBLIC	??_7?$CDynamicPoolEx@VCTextureAnimationCCWDecorator@NEffectUpdateDecorator@@@@6B@ ; CDynamicPoolEx<NEffectUpdateDecorator::CTextureAnimationCCWDecorator>::`vftable'
PUBLIC	??_7?$CDynamicPoolEx@VCTextureAnimationCWDecorator@NEffectUpdateDecorator@@@@6B@ ; CDynamicPoolEx<NEffectUpdateDecorator::CTextureAnimationCWDecorator>::`vftable'
PUBLIC	??_7?$CDynamicPoolEx@VCNullDecorator@NEffectUpdateDecorator@@@@6B@ ; CDynamicPoolEx<NEffectUpdateDecorator::CNullDecorator>::`vftable'
PUBLIC	??_7?$CDynamicPoolEx@VCHeaderDecorator@NEffectUpdateDecorator@@@@6B@ ; CDynamicPoolEx<NEffectUpdateDecorator::CHeaderDecorator>::`vftable'
PUBLIC	??_R4?$CDynamicPoolEx@VCHeaderDecorator@NEffectUpdateDecorator@@@@6B@ ; CDynamicPoolEx<NEffectUpdateDecorator::CHeaderDecorator>::`RTTI Complete Object Locator'
PUBLIC	??_R0?AV?$CDynamicPoolEx@VCHeaderDecorator@NEffectUpdateDecorator@@@@@8 ; CDynamicPoolEx<NEffectUpdateDecorator::CHeaderDecorator> `RTTI Type Descriptor'
PUBLIC	??_R3?$CDynamicPoolEx@VCHeaderDecorator@NEffectUpdateDecorator@@@@8 ; CDynamicPoolEx<NEffectUpdateDecorator::CHeaderDecorator>::`RTTI Class Hierarchy Descriptor'
PUBLIC	??_R2?$CDynamicPoolEx@VCHeaderDecorator@NEffectUpdateDecorator@@@@8 ; CDynamicPoolEx<NEffectUpdateDecorator::CHeaderDecorator>::`RTTI Base Class Array'
PUBLIC	??_R1A@?0A@EA@?$CDynamicPoolEx@VCHeaderDecorator@NEffectUpdateDecorator@@@@8 ; CDynamicPoolEx<NEffectUpdateDecorator::CHeaderDecorator>::`RTTI Base Class Descriptor at (0,-1,0,64)'
PUBLIC	??_R4?$CDynamicPoolEx@VCNullDecorator@NEffectUpdateDecorator@@@@6B@ ; CDynamicPoolEx<NEffectUpdateDecorator::CNullDecorator>::`RTTI Complete Object Locator'
PUBLIC	??_R0?AV?$CDynamicPoolEx@VCNullDecorator@NEffectUpdateDecorator@@@@@8 ; CDynamicPoolEx<NEffectUpdateDecorator::CNullDecorator> `RTTI Type Descriptor'
PUBLIC	??_R3?$CDynamicPoolEx@VCNullDecorator@NEffectUpdateDecorator@@@@8 ; CDynamicPoolEx<NEffectUpdateDecorator::CNullDecorator>::`RTTI Class Hierarchy Descriptor'
PUBLIC	??_R2?$CDynamicPoolEx@VCNullDecorator@NEffectUpdateDecorator@@@@8 ; CDynamicPoolEx<NEffectUpdateDecorator::CNullDecorator>::`RTTI Base Class Array'
PUBLIC	??_R1A@?0A@EA@?$CDynamicPoolEx@VCNullDecorator@NEffectUpdateDecorator@@@@8 ; CDynamicPoolEx<NEffectUpdateDecorator::CNullDecorator>::`RTTI Base Class Descriptor at (0,-1,0,64)'
PUBLIC	??_R4?$CDynamicPoolEx@VCTextureAnimationCWDecorator@NEffectUpdateDecorator@@@@6B@ ; CDynamicPoolEx<NEffectUpdateDecorator::CTextureAnimationCWDecorator>::`RTTI Complete Object Locator'
PUBLIC	??_R0?AV?$CDynamicPoolEx@VCTextureAnimationCWDecorator@NEffectUpdateDecorator@@@@@8 ; CDynamicPoolEx<NEffectUpdateDecorator::CTextureAnimationCWDecorator> `RTTI Type Descriptor'
PUBLIC	??_R3?$CDynamicPoolEx@VCTextureAnimationCWDecorator@NEffectUpdateDecorator@@@@8 ; CDynamicPoolEx<NEffectUpdateDecorator::CTextureAnimationCWDecorator>::`RTTI Class Hierarchy Descriptor'
PUBLIC	??_R2?$CDynamicPoolEx@VCTextureAnimationCWDecorator@NEffectUpdateDecorator@@@@8 ; CDynamicPoolEx<NEffectUpdateDecorator::CTextureAnimationCWDecorator>::`RTTI Base Class Array'
PUBLIC	??_R1A@?0A@EA@?$CDynamicPoolEx@VCTextureAnimationCWDecorator@NEffectUpdateDecorator@@@@8 ; CDynamicPoolEx<NEffectUpdateDecorator::CTextureAnimationCWDecorator>::`RTTI Base Class Descriptor at (0,-1,0,64)'
PUBLIC	??_R4?$CDynamicPoolEx@VCTextureAnimationCCWDecorator@NEffectUpdateDecorator@@@@6B@ ; CDynamicPoolEx<NEffectUpdateDecorator::CTextureAnimationCCWDecorator>::`RTTI Complete Object Locator'
PUBLIC	??_R0?AV?$CDynamicPoolEx@VCTextureAnimationCCWDecorator@NEffectUpdateDecorator@@@@@8 ; CDynamicPoolEx<NEffectUpdateDecorator::CTextureAnimationCCWDecorator> `RTTI Type Descriptor'
PUBLIC	??_R3?$CDynamicPoolEx@VCTextureAnimationCCWDecorator@NEffectUpdateDecorator@@@@8 ; CDynamicPoolEx<NEffectUpdateDecorator::CTextureAnimationCCWDecorator>::`RTTI Class Hierarchy Descriptor'
PUBLIC	??_R2?$CDynamicPoolEx@VCTextureAnimationCCWDecorator@NEffectUpdateDecorator@@@@8 ; CDynamicPoolEx<NEffectUpdateDecorator::CTextureAnimationCCWDecorator>::`RTTI Base Class Array'
PUBLIC	??_R1A@?0A@EA@?$CDynamicPoolEx@VCTextureAnimationCCWDecorator@NEffectUpdateDecorator@@@@8 ; CDynamicPoolEx<NEffectUpdateDecorator::CTextureAnimationCCWDecorator>::`RTTI Base Class Descriptor at (0,-1,0,64)'
PUBLIC	??_R4?$CDynamicPoolEx@VCTextureAnimationRandomDecorator@NEffectUpdateDecorator@@@@6B@ ; CDynamicPoolEx<NEffectUpdateDecorator::CTextureAnimationRandomDecorator>::`RTTI Complete Object Locator'
PUBLIC	??_R0?AV?$CDynamicPoolEx@VCTextureAnimationRandomDecorator@NEffectUpdateDecorator@@@@@8 ; CDynamicPoolEx<NEffectUpdateDecorator::CTextureAnimationRandomDecorator> `RTTI Type Descriptor'
PUBLIC	??_R3?$CDynamicPoolEx@VCTextureAnimationRandomDecorator@NEffectUpdateDecorator@@@@8 ; CDynamicPoolEx<NEffectUpdateDecorator::CTextureAnimationRandomDecorator>::`RTTI Class Hierarchy Descriptor'
PUBLIC	??_R2?$CDynamicPoolEx@VCTextureAnimationRandomDecorator@NEffectUpdateDecorator@@@@8 ; CDynamicPoolEx<NEffectUpdateDecorator::CTextureAnimationRandomDecorator>::`RTTI Base Class Array'
PUBLIC	??_R1A@?0A@EA@?$CDynamicPoolEx@VCTextureAnimationRandomDecorator@NEffectUpdateDecorator@@@@8 ; CDynamicPoolEx<NEffectUpdateDecorator::CTextureAnimationRandomDecorator>::`RTTI Base Class Descriptor at (0,-1,0,64)'
PUBLIC	??_R4?$CDynamicPoolEx@VCAirResistanceDecorator@NEffectUpdateDecorator@@@@6B@ ; CDynamicPoolEx<NEffectUpdateDecorator::CAirResistanceDecorator>::`RTTI Complete Object Locator'
PUBLIC	??_R0?AV?$CDynamicPoolEx@VCAirResistanceDecorator@NEffectUpdateDecorator@@@@@8 ; CDynamicPoolEx<NEffectUpdateDecorator::CAirResistanceDecorator> `RTTI Type Descriptor'
PUBLIC	??_R3?$CDynamicPoolEx@VCAirResistanceDecorator@NEffectUpdateDecorator@@@@8 ; CDynamicPoolEx<NEffectUpdateDecorator::CAirResistanceDecorator>::`RTTI Class Hierarchy Descriptor'
PUBLIC	??_R2?$CDynamicPoolEx@VCAirResistanceDecorator@NEffectUpdateDecorator@@@@8 ; CDynamicPoolEx<NEffectUpdateDecorator::CAirResistanceDecorator>::`RTTI Base Class Array'
PUBLIC	??_R1A@?0A@EA@?$CDynamicPoolEx@VCAirResistanceDecorator@NEffectUpdateDecorator@@@@8 ; CDynamicPoolEx<NEffectUpdateDecorator::CAirResistanceDecorator>::`RTTI Base Class Descriptor at (0,-1,0,64)'
PUBLIC	??_R4?$CDynamicPoolEx@VCGravityDecorator@NEffectUpdateDecorator@@@@6B@ ; CDynamicPoolEx<NEffectUpdateDecorator::CGravityDecorator>::`RTTI Complete Object Locator'
PUBLIC	??_R0?AV?$CDynamicPoolEx@VCGravityDecorator@NEffectUpdateDecorator@@@@@8 ; CDynamicPoolEx<NEffectUpdateDecorator::CGravityDecorator> `RTTI Type Descriptor'
PUBLIC	??_R3?$CDynamicPoolEx@VCGravityDecorator@NEffectUpdateDecorator@@@@8 ; CDynamicPoolEx<NEffectUpdateDecorator::CGravityDecorator>::`RTTI Class Hierarchy Descriptor'
PUBLIC	??_R2?$CDynamicPoolEx@VCGravityDecorator@NEffectUpdateDecorator@@@@8 ; CDynamicPoolEx<NEffectUpdateDecorator::CGravityDecorator>::`RTTI Base Class Array'
PUBLIC	??_R1A@?0A@EA@?$CDynamicPoolEx@VCGravityDecorator@NEffectUpdateDecorator@@@@8 ; CDynamicPoolEx<NEffectUpdateDecorator::CGravityDecorator>::`RTTI Base Class Descriptor at (0,-1,0,64)'
PUBLIC	??_R4?$CDynamicPoolEx@VCRotationDecorator@NEffectUpdateDecorator@@@@6B@ ; CDynamicPoolEx<NEffectUpdateDecorator::CRotationDecorator>::`RTTI Complete Object Locator'
PUBLIC	??_R0?AV?$CDynamicPoolEx@VCRotationDecorator@NEffectUpdateDecorator@@@@@8 ; CDynamicPoolEx<NEffectUpdateDecorator::CRotationDecorator> `RTTI Type Descriptor'
PUBLIC	??_R3?$CDynamicPoolEx@VCRotationDecorator@NEffectUpdateDecorator@@@@8 ; CDynamicPoolEx<NEffectUpdateDecorator::CRotationDecorator>::`RTTI Class Hierarchy Descriptor'
PUBLIC	??_R2?$CDynamicPoolEx@VCRotationDecorator@NEffectUpdateDecorator@@@@8 ; CDynamicPoolEx<NEffectUpdateDecorator::CRotationDecorator>::`RTTI Base Class Array'
PUBLIC	??_R1A@?0A@EA@?$CDynamicPoolEx@VCRotationDecorator@NEffectUpdateDecorator@@@@8 ; CDynamicPoolEx<NEffectUpdateDecorator::CRotationDecorator>::`RTTI Base Class Descriptor at (0,-1,0,64)'
EXTRN	??2@YAPAXI@Z:PROC				; operator new
EXTRN	??3@YAXPAX@Z:PROC				; operator delete
EXTRN	??3@YAXPAXI@Z:PROC				; operator delete
EXTRN	_atexit:PROC
EXTRN	__invalid_parameter_noinfo_noreturn:PROC
EXTRN	_memcpy:PROC
EXTRN	_memmove:PROC
EXTRN	_strlen:PROC
EXTRN	___std_exception_copy:PROC
EXTRN	___std_exception_destroy:PROC
EXTRN	??_Eexception@std@@UAEPAXI@Z:PROC		; std::exception::`vector deleting destructor'
EXTRN	??_Ebad_alloc@std@@UAEPAXI@Z:PROC		; std::bad_alloc::`vector deleting destructor'
EXTRN	??_Ebad_array_new_length@std@@UAEPAXI@Z:PROC	; std::bad_array_new_length::`vector deleting destructor'
EXTRN	?_Xlength_error@std@@YAXPBD@Z:PROC		; std::_Xlength_error
EXTRN	?TraceError@@YAXPBDZZ:PROC			; TraceError
EXTRN	__imp__Py_BuildValue:PROC
EXTRN	__imp__PyModule_AddIntConstant:PROC
EXTRN	__imp__Py_InitModule4:PROC
EXTRN	?PyTuple_GetString@@YA_NPAU_object@@HPAPAD@Z:PROC ; PyTuple_GetString
EXTRN	?PyTuple_GetInteger@@YA_NPAU_object@@HPAH@Z:PROC ; PyTuple_GetInteger
EXTRN	?PyTuple_GetFloat@@YA_NPAU_object@@HPAM@Z:PROC	; PyTuple_GetFloat
EXTRN	?PyTuple_GetBoolean@@YA_NPAU_object@@HPA_N@Z:PROC ; PyTuple_GetBoolean
EXTRN	?Py_BuildException@@YAPAU_object@@PBDZZ:PROC	; Py_BuildException
EXTRN	?Py_BadArgument@@YAPAU_object@@XZ:PROC		; Py_BadArgument
EXTRN	?Py_BuildNone@@YAPAU_object@@XZ:PROC		; Py_BuildNone
EXTRN	?SetImagePointer@CGraphicImageInstance@@QAEXPAVCGraphicImage@@@Z:PROC ; CGraphicImageInstance::SetImagePointer
EXTRN	?New@CGraphicImageInstance@@SAPAV1@XZ:PROC	; CGraphicImageInstance::New
EXTRN	?Delete@CGraphicImageInstance@@SAXPAV1@@Z:PROC	; CGraphicImageInstance::Delete
EXTRN	?GetIconImage@CItemData@@QAEPAVCGraphicSubImage@@XZ:PROC ; CItemData::GetIconImage
EXTRN	?GetIndex@CItemData@@QBEKXZ:PROC		; CItemData::GetIndex
EXTRN	?GetName@CItemData@@QBEPBDXZ:PROC		; CItemData::GetName
EXTRN	?GetDescription@CItemData@@QBEPBDXZ:PROC	; CItemData::GetDescription
EXTRN	?GetSummary@CItemData@@QBEPBDXZ:PROC		; CItemData::GetSummary
EXTRN	?GetType@CItemData@@QBEEXZ:PROC			; CItemData::GetType
EXTRN	?GetSubType@CItemData@@QBEEXZ:PROC		; CItemData::GetSubType
EXTRN	?GetUseTypeString@CItemData@@QBEPBDXZ:PROC	; CItemData::GetUseTypeString
EXTRN	?GetSize@CItemData@@QBEEXZ:PROC			; CItemData::GetSize
EXTRN	?IsAntiFlag@CItemData@@QBEHK@Z:PROC		; CItemData::IsAntiFlag
EXTRN	?IsFlag@CItemData@@QBEHK@Z:PROC			; CItemData::IsFlag
EXTRN	?IsWearableFlag@CItemData@@QBEHK@Z:PROC		; CItemData::IsWearableFlag
EXTRN	?GetIBuyItemPrice@CItemData@@QBEKXZ:PROC	; CItemData::GetIBuyItemPrice
EXTRN	?GetISellItemPrice@CItemData@@QBEKXZ:PROC	; CItemData::GetISellItemPrice
EXTRN	?GetLimit@CItemData@@QBEHEPAUSItemLimit@1@@Z:PROC ; CItemData::GetLimit
EXTRN	?GetApply@CItemData@@QBEHEPAUSItemApply@1@@Z:PROC ; CItemData::GetApply
EXTRN	?GetValue@CItemData@@QBEJE@Z:PROC		; CItemData::GetValue
EXTRN	?GetSocket@CItemData@@QBEJE@Z:PROC		; CItemData::GetSocket
EXTRN	?IsEquipment@CItemData@@QBEHXZ:PROC		; CItemData::IsEquipment
EXTRN	?SetUseSoundFileName@CPythonItem@@QAEXKABV?$basic_string@DU?$char_traits@D@std@@V?$allocator@D@2@@std@@@Z:PROC ; CPythonItem::SetUseSoundFileName
EXTRN	?SetDropSoundFileName@CPythonItem@@QAEXKABV?$basic_string@DU?$char_traits@D@std@@V?$allocator@D@2@@std@@@Z:PROC ; CPythonItem::SetDropSoundFileName
EXTRN	?Render@CPythonItem@@QAEXXZ:PROC		; CPythonItem::Render
EXTRN	?Update@CPythonItem@@QAEXABUtagPOINT@@@Z:PROC	; CPythonItem::Update
EXTRN	?CreateItem@CPythonItem@@QAEXKKMMM_N@Z:PROC	; CPythonItem::CreateItem
EXTRN	?DeleteItem@CPythonItem@@QAEXK@Z:PROC		; CPythonItem::DeleteItem
EXTRN	?GetPickedItemID@CPythonItem@@QAE_NPAK@Z:PROC	; CPythonItem::GetPickedItemID
EXTRN	?SelectItemData@CItemManager@@QAEHK@Z:PROC	; CItemManager::SelectItemData
EXTRN	?GetSelectedItemDataPointer@CItemManager@@QAEPAVCItemData@@XZ:PROC ; CItemManager::GetSelectedItemDataPointer
EXTRN	?LoadItemTable@CItemManager@@QAE_NPBD@Z:PROC	; CItemManager::LoadItemTable
EXTRN	??_E?$CDynamicPoolEx@VCRotationDecorator@NEffectUpdateDecorator@@@@UAEPAXI@Z:PROC ; CDynamicPoolEx<NEffectUpdateDecorator::CRotationDecorator>::`vector deleting destructor'
EXTRN	??_E?$CDynamicPoolEx@VCGravityDecorator@NEffectUpdateDecorator@@@@UAEPAXI@Z:PROC ; CDynamicPoolEx<NEffectUpdateDecorator::CGravityDecorator>::`vector deleting destructor'
EXTRN	??_E?$CDynamicPoolEx@VCAirResistanceDecorator@NEffectUpdateDecorator@@@@UAEPAXI@Z:PROC ; CDynamicPoolEx<NEffectUpdateDecorator::CAirResistanceDecorator>::`vector deleting destructor'
EXTRN	??_E?$CDynamicPoolEx@VCTextureAnimationRandomDecorator@NEffectUpdateDecorator@@@@UAEPAXI@Z:PROC ; CDynamicPoolEx<NEffectUpdateDecorator::CTextureAnimationRandomDecorator>::`vector deleting destructor'
EXTRN	??_E?$CDynamicPoolEx@VCTextureAnimationCCWDecorator@NEffectUpdateDecorator@@@@UAEPAXI@Z:PROC ; CDynamicPoolEx<NEffectUpdateDecorator::CTextureAnimationCCWDecorator>::`vector deleting destructor'
EXTRN	??_E?$CDynamicPoolEx@VCTextureAnimationCWDecorator@NEffectUpdateDecorator@@@@UAEPAXI@Z:PROC ; CDynamicPoolEx<NEffectUpdateDecorator::CTextureAnimationCWDecorator>::`vector deleting destructor'
EXTRN	??_E?$CDynamicPoolEx@VCNullDecorator@NEffectUpdateDecorator@@@@UAEPAXI@Z:PROC ; CDynamicPoolEx<NEffectUpdateDecorator::CNullDecorator>::`vector deleting destructor'
EXTRN	??_E?$CDynamicPoolEx@VCHeaderDecorator@NEffectUpdateDecorator@@@@UAEPAXI@Z:PROC ; CDynamicPoolEx<NEffectUpdateDecorator::CHeaderDecorator>::`vector deleting destructor'
EXTRN	@__security_check_cookie@4:PROC
EXTRN	__CxxThrowException@8:PROC
EXTRN	___CxxFrameHandler3:PROC
EXTRN	??_7type_info@@6B@:QWORD			; type_info::`vftable'
EXTRN	?TWOHANDED_WEWAPON_ATT_SPEED_DECREASE_VALUE@@3HA:DWORD ; TWOHANDED_WEWAPON_ATT_SPEED_DECREASE_VALUE
EXTRN	___security_cookie:DWORD
EXTRN	__fltused:DWORD
;	COMDAT ?ms_singleton@?$CSingleton@VCPythonItem@@@@0PAVCPythonItem@@A
_BSS	SEGMENT
?ms_singleton@?$CSingleton@VCPythonItem@@@@0PAVCPythonItem@@A DD 01H DUP (?) ; CSingleton<CPythonItem>::ms_singleton
_BSS	ENDS
;	COMDAT ?ms_singleton@?$CSingleton@VCItemManager@@@@0PAVCItemManager@@A
_BSS	SEGMENT
?ms_singleton@?$CSingleton@VCItemManager@@@@0PAVCItemManager@@A DD 01H DUP (?) ; CSingleton<CItemManager>::ms_singleton
_BSS	ENDS
;	COMDAT ?ms_kPool@?$CPooledObject@VCHeaderDecorator@NEffectUpdateDecorator@@@@1V?$CDynamicPoolEx@VCHeaderDecorator@NEffectUpdateDecorator@@@@A
_BSS	SEGMENT
?ms_kPool@?$CPooledObject@VCHeaderDecorator@NEffectUpdateDecorator@@@@1V?$CDynamicPoolEx@VCHeaderDecorator@NEffectUpdateDecorator@@@@A DB 024H DUP (?) ; CPooledObject<NEffectUpdateDecorator::CHeaderDecorator>::ms_kPool
_BSS	ENDS
;	COMDAT ?ms_kPool@?$CPooledObject@VCNullDecorator@NEffectUpdateDecorator@@@@1V?$CDynamicPoolEx@VCNullDecorator@NEffectUpdateDecorator@@@@A
_BSS	SEGMENT
?ms_kPool@?$CPooledObject@VCNullDecorator@NEffectUpdateDecorator@@@@1V?$CDynamicPoolEx@VCNullDecorator@NEffectUpdateDecorator@@@@A DB 024H DUP (?) ; CPooledObject<NEffectUpdateDecorator::CNullDecorator>::ms_kPool
_BSS	ENDS
;	COMDAT ?ms_kPool@?$CPooledObject@VCTextureAnimationCWDecorator@NEffectUpdateDecorator@@@@1V?$CDynamicPoolEx@VCTextureAnimationCWDecorator@NEffectUpdateDecorator@@@@A
_BSS	SEGMENT
?ms_kPool@?$CPooledObject@VCTextureAnimationCWDecorator@NEffectUpdateDecorator@@@@1V?$CDynamicPoolEx@VCTextureAnimationCWDecorator@NEffectUpdateDecorator@@@@A DB 024H DUP (?) ; CPooledObject<NEffectUpdateDecorator::CTextureAnimationCWDecorator>::ms_kPool
_BSS	ENDS
;	COMDAT ?ms_kPool@?$CPooledObject@VCTextureAnimationCCWDecorator@NEffectUpdateDecorator@@@@1V?$CDynamicPoolEx@VCTextureAnimationCCWDecorator@NEffectUpdateDecorator@@@@A
_BSS	SEGMENT
?ms_kPool@?$CPooledObject@VCTextureAnimationCCWDecorator@NEffectUpdateDecorator@@@@1V?$CDynamicPoolEx@VCTextureAnimationCCWDecorator@NEffectUpdateDecorator@@@@A DB 024H DUP (?) ; CPooledObject<NEffectUpdateDecorator::CTextureAnimationCCWDecorator>::ms_kPool
_BSS	ENDS
;	COMDAT ?ms_kPool@?$CPooledObject@VCTextureAnimationRandomDecorator@NEffectUpdateDecorator@@@@1V?$CDynamicPoolEx@VCTextureAnimationRandomDecorator@NEffectUpdateDecorator@@@@A
_BSS	SEGMENT
?ms_kPool@?$CPooledObject@VCTextureAnimationRandomDecorator@NEffectUpdateDecorator@@@@1V?$CDynamicPoolEx@VCTextureAnimationRandomDecorator@NEffectUpdateDecorator@@@@A DB 024H DUP (?) ; CPooledObject<NEffectUpdateDecorator::CTextureAnimationRandomDecorator>::ms_kPool
_BSS	ENDS
;	COMDAT ?ms_kPool@?$CPooledObject@VCAirResistanceDecorator@NEffectUpdateDecorator@@@@1V?$CDynamicPoolEx@VCAirResistanceDecorator@NEffectUpdateDecorator@@@@A
_BSS	SEGMENT
?ms_kPool@?$CPooledObject@VCAirResistanceDecorator@NEffectUpdateDecorator@@@@1V?$CDynamicPoolEx@VCAirResistanceDecorator@NEffectUpdateDecorator@@@@A DB 024H DUP (?) ; CPooledObject<NEffectUpdateDecorator::CAirResistanceDecorator>::ms_kPool
_BSS	ENDS
;	COMDAT ?ms_kPool@?$CPooledObject@VCGravityDecorator@NEffectUpdateDecorator@@@@1V?$CDynamicPoolEx@VCGravityDecorator@NEffectUpdateDecorator@@@@A
_BSS	SEGMENT
?ms_kPool@?$CPooledObject@VCGravityDecorator@NEffectUpdateDecorator@@@@1V?$CDynamicPoolEx@VCGravityDecorator@NEffectUpdateDecorator@@@@A DB 024H DUP (?) ; CPooledObject<NEffectUpdateDecorator::CGravityDecorator>::ms_kPool
_BSS	ENDS
;	COMDAT ?ms_kPool@?$CPooledObject@VCRotationDecorator@NEffectUpdateDecorator@@@@1V?$CDynamicPoolEx@VCRotationDecorator@NEffectUpdateDecorator@@@@A
_BSS	SEGMENT
?ms_kPool@?$CPooledObject@VCRotationDecorator@NEffectUpdateDecorator@@@@1V?$CDynamicPoolEx@VCRotationDecorator@NEffectUpdateDecorator@@@@A DB 024H DUP (?) ; CPooledObject<NEffectUpdateDecorator::CRotationDecorator>::ms_kPool
_BSS	ENDS
;	COMDAT ?ms_singleton@?$TAbstractSingleton@VIAbstractApplication@@@@0PAVIAbstractApplication@@A
_BSS	SEGMENT
?ms_singleton@?$TAbstractSingleton@VIAbstractApplication@@@@0PAVIAbstractApplication@@A DD 01H DUP (?) ; TAbstractSingleton<IAbstractApplication>::ms_singleton
_BSS	ENDS
;	COMDAT CRT$XCU
CRT$XCU	SEGMENT
??ms_kPool$initializer$@?$CPooledObject@VCHeaderDecorator@NEffectUpdateDecorator@@@@1P6AXXZA@@3P6AXXZA DD FLAT:??__E?ms_kPool@?$CPooledObject@VCHeaderDecorator@NEffectUpdateDecorator@@@@1V?$CDynamicPoolEx@VCHeaderDecorator@NEffectUpdateDecorator@@@@A@@YAXXZ ; ??ms_kPool$initializer$@?$CPooledObject@VCHeaderDecorator@NEffectUpdateDecorator@@@@1P6AXXZA@@3P6AXXZA
CRT$XCU	ENDS
;	COMDAT ??_R1A@?0A@EA@?$CDynamicPoolEx@VCRotationDecorator@NEffectUpdateDecorator@@@@8
rdata$r	SEGMENT
??_R1A@?0A@EA@?$CDynamicPoolEx@VCRotationDecorator@NEffectUpdateDecorator@@@@8 DD FLAT:??_R0?AV?$CDynamicPoolEx@VCRotationDecorator@NEffectUpdateDecorator@@@@@8 ; CDynamicPoolEx<NEffectUpdateDecorator::CRotationDecorator>::`RTTI Base Class Descriptor at (0,-1,0,64)'
	DD	00H
	DD	00H
	DD	0ffffffffH
	DD	00H
	DD	040H
	DD	FLAT:??_R3?$CDynamicPoolEx@VCRotationDecorator@NEffectUpdateDecorator@@@@8
rdata$r	ENDS
;	COMDAT ??_R2?$CDynamicPoolEx@VCRotationDecorator@NEffectUpdateDecorator@@@@8
rdata$r	SEGMENT
??_R2?$CDynamicPoolEx@VCRotationDecorator@NEffectUpdateDecorator@@@@8 DD FLAT:??_R1A@?0A@EA@?$CDynamicPoolEx@VCRotationDecorator@NEffectUpdateDecorator@@@@8 ; CDynamicPoolEx<NEffectUpdateDecorator::CRotationDecorator>::`RTTI Base Class Array'
rdata$r	ENDS
;	COMDAT ??_R3?$CDynamicPoolEx@VCRotationDecorator@NEffectUpdateDecorator@@@@8
rdata$r	SEGMENT
??_R3?$CDynamicPoolEx@VCRotationDecorator@NEffectUpdateDecorator@@@@8 DD 00H ; CDynamicPoolEx<NEffectUpdateDecorator::CRotationDecorator>::`RTTI Class Hierarchy Descriptor'
	DD	00H
	DD	01H
	DD	FLAT:??_R2?$CDynamicPoolEx@VCRotationDecorator@NEffectUpdateDecorator@@@@8
rdata$r	ENDS
;	COMDAT ??_R0?AV?$CDynamicPoolEx@VCRotationDecorator@NEffectUpdateDecorator@@@@@8
data$rs	SEGMENT
??_R0?AV?$CDynamicPoolEx@VCRotationDecorator@NEffectUpdateDecorator@@@@@8 DD FLAT:??_7type_info@@6B@ ; CDynamicPoolEx<NEffectUpdateDecorator::CRotationDecorator> `RTTI Type Descriptor'
	DD	00H
	DB	'.?AV?$CDynamicPoolEx@VCRotationDecorator@NEffectUpdateDe'
	DB	'corator@@@@', 00H
data$rs	ENDS
;	COMDAT ??_R4?$CDynamicPoolEx@VCRotationDecorator@NEffectUpdateDecorator@@@@6B@
rdata$r	SEGMENT
??_R4?$CDynamicPoolEx@VCRotationDecorator@NEffectUpdateDecorator@@@@6B@ DD 00H ; CDynamicPoolEx<NEffectUpdateDecorator::CRotationDecorator>::`RTTI Complete Object Locator'
	DD	00H
	DD	00H
	DD	FLAT:??_R0?AV?$CDynamicPoolEx@VCRotationDecorator@NEffectUpdateDecorator@@@@@8
	DD	FLAT:??_R3?$CDynamicPoolEx@VCRotationDecorator@NEffectUpdateDecorator@@@@8
rdata$r	ENDS
;	COMDAT ??_R1A@?0A@EA@?$CDynamicPoolEx@VCGravityDecorator@NEffectUpdateDecorator@@@@8
rdata$r	SEGMENT
??_R1A@?0A@EA@?$CDynamicPoolEx@VCGravityDecorator@NEffectUpdateDecorator@@@@8 DD FLAT:??_R0?AV?$CDynamicPoolEx@VCGravityDecorator@NEffectUpdateDecorator@@@@@8 ; CDynamicPoolEx<NEffectUpdateDecorator::CGravityDecorator>::`RTTI Base Class Descriptor at (0,-1,0,64)'
	DD	00H
	DD	00H
	DD	0ffffffffH
	DD	00H
	DD	040H
	DD	FLAT:??_R3?$CDynamicPoolEx@VCGravityDecorator@NEffectUpdateDecorator@@@@8
rdata$r	ENDS
;	COMDAT ??_R2?$CDynamicPoolEx@VCGravityDecorator@NEffectUpdateDecorator@@@@8
rdata$r	SEGMENT
??_R2?$CDynamicPoolEx@VCGravityDecorator@NEffectUpdateDecorator@@@@8 DD FLAT:??_R1A@?0A@EA@?$CDynamicPoolEx@VCGravityDecorator@NEffectUpdateDecorator@@@@8 ; CDynamicPoolEx<NEffectUpdateDecorator::CGravityDecorator>::`RTTI Base Class Array'
rdata$r	ENDS
;	COMDAT ??_R3?$CDynamicPoolEx@VCGravityDecorator@NEffectUpdateDecorator@@@@8
rdata$r	SEGMENT
??_R3?$CDynamicPoolEx@VCGravityDecorator@NEffectUpdateDecorator@@@@8 DD 00H ; CDynamicPoolEx<NEffectUpdateDecorator::CGravityDecorator>::`RTTI Class Hierarchy Descriptor'
	DD	00H
	DD	01H
	DD	FLAT:??_R2?$CDynamicPoolEx@VCGravityDecorator@NEffectUpdateDecorator@@@@8
rdata$r	ENDS
;	COMDAT ??_R0?AV?$CDynamicPoolEx@VCGravityDecorator@NEffectUpdateDecorator@@@@@8
data$rs	SEGMENT
??_R0?AV?$CDynamicPoolEx@VCGravityDecorator@NEffectUpdateDecorator@@@@@8 DD FLAT:??_7type_info@@6B@ ; CDynamicPoolEx<NEffectUpdateDecorator::CGravityDecorator> `RTTI Type Descriptor'
	DD	00H
	DB	'.?AV?$CDynamicPoolEx@VCGravityDecorator@NEffectUpdateDec'
	DB	'orator@@@@', 00H
data$rs	ENDS
;	COMDAT ??_R4?$CDynamicPoolEx@VCGravityDecorator@NEffectUpdateDecorator@@@@6B@
rdata$r	SEGMENT
??_R4?$CDynamicPoolEx@VCGravityDecorator@NEffectUpdateDecorator@@@@6B@ DD 00H ; CDynamicPoolEx<NEffectUpdateDecorator::CGravityDecorator>::`RTTI Complete Object Locator'
	DD	00H
	DD	00H
	DD	FLAT:??_R0?AV?$CDynamicPoolEx@VCGravityDecorator@NEffectUpdateDecorator@@@@@8
	DD	FLAT:??_R3?$CDynamicPoolEx@VCGravityDecorator@NEffectUpdateDecorator@@@@8
rdata$r	ENDS
;	COMDAT ??_R1A@?0A@EA@?$CDynamicPoolEx@VCAirResistanceDecorator@NEffectUpdateDecorator@@@@8
rdata$r	SEGMENT
??_R1A@?0A@EA@?$CDynamicPoolEx@VCAirResistanceDecorator@NEffectUpdateDecorator@@@@8 DD FLAT:??_R0?AV?$CDynamicPoolEx@VCAirResistanceDecorator@NEffectUpdateDecorator@@@@@8 ; CDynamicPoolEx<NEffectUpdateDecorator::CAirResistanceDecorator>::`RTTI Base Class Descriptor at (0,-1,0,64)'
	DD	00H
	DD	00H
	DD	0ffffffffH
	DD	00H
	DD	040H
	DD	FLAT:??_R3?$CDynamicPoolEx@VCAirResistanceDecorator@NEffectUpdateDecorator@@@@8
rdata$r	ENDS
;	COMDAT ??_R2?$CDynamicPoolEx@VCAirResistanceDecorator@NEffectUpdateDecorator@@@@8
rdata$r	SEGMENT
??_R2?$CDynamicPoolEx@VCAirResistanceDecorator@NEffectUpdateDecorator@@@@8 DD FLAT:??_R1A@?0A@EA@?$CDynamicPoolEx@VCAirResistanceDecorator@NEffectUpdateDecorator@@@@8 ; CDynamicPoolEx<NEffectUpdateDecorator::CAirResistanceDecorator>::`RTTI Base Class Array'
rdata$r	ENDS
;	COMDAT ??_R3?$CDynamicPoolEx@VCAirResistanceDecorator@NEffectUpdateDecorator@@@@8
rdata$r	SEGMENT
??_R3?$CDynamicPoolEx@VCAirResistanceDecorator@NEffectUpdateDecorator@@@@8 DD 00H ; CDynamicPoolEx<NEffectUpdateDecorator::CAirResistanceDecorator>::`RTTI Class Hierarchy Descriptor'
	DD	00H
	DD	01H
	DD	FLAT:??_R2?$CDynamicPoolEx@VCAirResistanceDecorator@NEffectUpdateDecorator@@@@8
rdata$r	ENDS
;	COMDAT ??_R0?AV?$CDynamicPoolEx@VCAirResistanceDecorator@NEffectUpdateDecorator@@@@@8
data$rs	SEGMENT
??_R0?AV?$CDynamicPoolEx@VCAirResistanceDecorator@NEffectUpdateDecorator@@@@@8 DD FLAT:??_7type_info@@6B@ ; CDynamicPoolEx<NEffectUpdateDecorator::CAirResistanceDecorator> `RTTI Type Descriptor'
	DD	00H
	DB	'.?AV?$CDynamicPoolEx@VCAirResistanceDecorator@NEffectUpd'
	DB	'ateDecorator@@@@', 00H
data$rs	ENDS
;	COMDAT ??_R4?$CDynamicPoolEx@VCAirResistanceDecorator@NEffectUpdateDecorator@@@@6B@
rdata$r	SEGMENT
??_R4?$CDynamicPoolEx@VCAirResistanceDecorator@NEffectUpdateDecorator@@@@6B@ DD 00H ; CDynamicPoolEx<NEffectUpdateDecorator::CAirResistanceDecorator>::`RTTI Complete Object Locator'
	DD	00H
	DD	00H
	DD	FLAT:??_R0?AV?$CDynamicPoolEx@VCAirResistanceDecorator@NEffectUpdateDecorator@@@@@8
	DD	FLAT:??_R3?$CDynamicPoolEx@VCAirResistanceDecorator@NEffectUpdateDecorator@@@@8
rdata$r	ENDS
;	COMDAT ??_R1A@?0A@EA@?$CDynamicPoolEx@VCTextureAnimationRandomDecorator@NEffectUpdateDecorator@@@@8
rdata$r	SEGMENT
??_R1A@?0A@EA@?$CDynamicPoolEx@VCTextureAnimationRandomDecorator@NEffectUpdateDecorator@@@@8 DD FLAT:??_R0?AV?$CDynamicPoolEx@VCTextureAnimationRandomDecorator@NEffectUpdateDecorator@@@@@8 ; CDynamicPoolEx<NEffectUpdateDecorator::CTextureAnimationRandomDecorator>::`RTTI Base Class Descriptor at (0,-1,0,64)'
	DD	00H
	DD	00H
	DD	0ffffffffH
	DD	00H
	DD	040H
	DD	FLAT:??_R3?$CDynamicPoolEx@VCTextureAnimationRandomDecorator@NEffectUpdateDecorator@@@@8
rdata$r	ENDS
;	COMDAT ??_R2?$CDynamicPoolEx@VCTextureAnimationRandomDecorator@NEffectUpdateDecorator@@@@8
rdata$r	SEGMENT
??_R2?$CDynamicPoolEx@VCTextureAnimationRandomDecorator@NEffectUpdateDecorator@@@@8 DD FLAT:??_R1A@?0A@EA@?$CDynamicPoolEx@VCTextureAnimationRandomDecorator@NEffectUpdateDecorator@@@@8 ; CDynamicPoolEx<NEffectUpdateDecorator::CTextureAnimationRandomDecorator>::`RTTI Base Class Array'
rdata$r	ENDS
;	COMDAT ??_R3?$CDynamicPoolEx@VCTextureAnimationRandomDecorator@NEffectUpdateDecorator@@@@8
rdata$r	SEGMENT
??_R3?$CDynamicPoolEx@VCTextureAnimationRandomDecorator@NEffectUpdateDecorator@@@@8 DD 00H ; CDynamicPoolEx<NEffectUpdateDecorator::CTextureAnimationRandomDecorator>::`RTTI Class Hierarchy Descriptor'
	DD	00H
	DD	01H
	DD	FLAT:??_R2?$CDynamicPoolEx@VCTextureAnimationRandomDecorator@NEffectUpdateDecorator@@@@8
rdata$r	ENDS
;	COMDAT ??_R0?AV?$CDynamicPoolEx@VCTextureAnimationRandomDecorator@NEffectUpdateDecorator@@@@@8
data$rs	SEGMENT
??_R0?AV?$CDynamicPoolEx@VCTextureAnimationRandomDecorator@NEffectUpdateDecorator@@@@@8 DD FLAT:??_7type_info@@6B@ ; CDynamicPoolEx<NEffectUpdateDecorator::CTextureAnimationRandomDecorator> `RTTI Type Descriptor'
	DD	00H
	DB	'.?AV?$CDynamicPoolEx@VCTextureAnimationRandomDecorator@N'
	DB	'EffectUpdateDecorator@@@@', 00H
data$rs	ENDS
;	COMDAT ??_R4?$CDynamicPoolEx@VCTextureAnimationRandomDecorator@NEffectUpdateDecorator@@@@6B@
rdata$r	SEGMENT
??_R4?$CDynamicPoolEx@VCTextureAnimationRandomDecorator@NEffectUpdateDecorator@@@@6B@ DD 00H ; CDynamicPoolEx<NEffectUpdateDecorator::CTextureAnimationRandomDecorator>::`RTTI Complete Object Locator'
	DD	00H
	DD	00H
	DD	FLAT:??_R0?AV?$CDynamicPoolEx@VCTextureAnimationRandomDecorator@NEffectUpdateDecorator@@@@@8
	DD	FLAT:??_R3?$CDynamicPoolEx@VCTextureAnimationRandomDecorator@NEffectUpdateDecorator@@@@8
rdata$r	ENDS
;	COMDAT ??_R1A@?0A@EA@?$CDynamicPoolEx@VCTextureAnimationCCWDecorator@NEffectUpdateDecorator@@@@8
rdata$r	SEGMENT
??_R1A@?0A@EA@?$CDynamicPoolEx@VCTextureAnimationCCWDecorator@NEffectUpdateDecorator@@@@8 DD FLAT:??_R0?AV?$CDynamicPoolEx@VCTextureAnimationCCWDecorator@NEffectUpdateDecorator@@@@@8 ; CDynamicPoolEx<NEffectUpdateDecorator::CTextureAnimationCCWDecorator>::`RTTI Base Class Descriptor at (0,-1,0,64)'
	DD	00H
	DD	00H
	DD	0ffffffffH
	DD	00H
	DD	040H
	DD	FLAT:??_R3?$CDynamicPoolEx@VCTextureAnimationCCWDecorator@NEffectUpdateDecorator@@@@8
rdata$r	ENDS
;	COMDAT ??_R2?$CDynamicPoolEx@VCTextureAnimationCCWDecorator@NEffectUpdateDecorator@@@@8
rdata$r	SEGMENT
??_R2?$CDynamicPoolEx@VCTextureAnimationCCWDecorator@NEffectUpdateDecorator@@@@8 DD FLAT:??_R1A@?0A@EA@?$CDynamicPoolEx@VCTextureAnimationCCWDecorator@NEffectUpdateDecorator@@@@8 ; CDynamicPoolEx<NEffectUpdateDecorator::CTextureAnimationCCWDecorator>::`RTTI Base Class Array'
rdata$r	ENDS
;	COMDAT ??_R3?$CDynamicPoolEx@VCTextureAnimationCCWDecorator@NEffectUpdateDecorator@@@@8
rdata$r	SEGMENT
??_R3?$CDynamicPoolEx@VCTextureAnimationCCWDecorator@NEffectUpdateDecorator@@@@8 DD 00H ; CDynamicPoolEx<NEffectUpdateDecorator::CTextureAnimationCCWDecorator>::`RTTI Class Hierarchy Descriptor'
	DD	00H
	DD	01H
	DD	FLAT:??_R2?$CDynamicPoolEx@VCTextureAnimationCCWDecorator@NEffectUpdateDecorator@@@@8
rdata$r	ENDS
;	COMDAT ??_R0?AV?$CDynamicPoolEx@VCTextureAnimationCCWDecorator@NEffectUpdateDecorator@@@@@8
data$rs	SEGMENT
??_R0?AV?$CDynamicPoolEx@VCTextureAnimationCCWDecorator@NEffectUpdateDecorator@@@@@8 DD FLAT:??_7type_info@@6B@ ; CDynamicPoolEx<NEffectUpdateDecorator::CTextureAnimationCCWDecorator> `RTTI Type Descriptor'
	DD	00H
	DB	'.?AV?$CDynamicPoolEx@VCTextureAnimationCCWDecorator@NEff'
	DB	'ectUpdateDecorator@@@@', 00H
data$rs	ENDS
;	COMDAT ??_R4?$CDynamicPoolEx@VCTextureAnimationCCWDecorator@NEffectUpdateDecorator@@@@6B@
rdata$r	SEGMENT
??_R4?$CDynamicPoolEx@VCTextureAnimationCCWDecorator@NEffectUpdateDecorator@@@@6B@ DD 00H ; CDynamicPoolEx<NEffectUpdateDecorator::CTextureAnimationCCWDecorator>::`RTTI Complete Object Locator'
	DD	00H
	DD	00H
	DD	FLAT:??_R0?AV?$CDynamicPoolEx@VCTextureAnimationCCWDecorator@NEffectUpdateDecorator@@@@@8
	DD	FLAT:??_R3?$CDynamicPoolEx@VCTextureAnimationCCWDecorator@NEffectUpdateDecorator@@@@8
rdata$r	ENDS
;	COMDAT ??_R1A@?0A@EA@?$CDynamicPoolEx@VCTextureAnimationCWDecorator@NEffectUpdateDecorator@@@@8
rdata$r	SEGMENT
??_R1A@?0A@EA@?$CDynamicPoolEx@VCTextureAnimationCWDecorator@NEffectUpdateDecorator@@@@8 DD FLAT:??_R0?AV?$CDynamicPoolEx@VCTextureAnimationCWDecorator@NEffectUpdateDecorator@@@@@8 ; CDynamicPoolEx<NEffectUpdateDecorator::CTextureAnimationCWDecorator>::`RTTI Base Class Descriptor at (0,-1,0,64)'
	DD	00H
	DD	00H
	DD	0ffffffffH
	DD	00H
	DD	040H
	DD	FLAT:??_R3?$CDynamicPoolEx@VCTextureAnimationCWDecorator@NEffectUpdateDecorator@@@@8
rdata$r	ENDS
;	COMDAT ??_R2?$CDynamicPoolEx@VCTextureAnimationCWDecorator@NEffectUpdateDecorator@@@@8
rdata$r	SEGMENT
??_R2?$CDynamicPoolEx@VCTextureAnimationCWDecorator@NEffectUpdateDecorator@@@@8 DD FLAT:??_R1A@?0A@EA@?$CDynamicPoolEx@VCTextureAnimationCWDecorator@NEffectUpdateDecorator@@@@8 ; CDynamicPoolEx<NEffectUpdateDecorator::CTextureAnimationCWDecorator>::`RTTI Base Class Array'
rdata$r	ENDS
;	COMDAT ??_R3?$CDynamicPoolEx@VCTextureAnimationCWDecorator@NEffectUpdateDecorator@@@@8
rdata$r	SEGMENT
??_R3?$CDynamicPoolEx@VCTextureAnimationCWDecorator@NEffectUpdateDecorator@@@@8 DD 00H ; CDynamicPoolEx<NEffectUpdateDecorator::CTextureAnimationCWDecorator>::`RTTI Class Hierarchy Descriptor'
	DD	00H
	DD	01H
	DD	FLAT:??_R2?$CDynamicPoolEx@VCTextureAnimationCWDecorator@NEffectUpdateDecorator@@@@8
rdata$r	ENDS
;	COMDAT ??_R0?AV?$CDynamicPoolEx@VCTextureAnimationCWDecorator@NEffectUpdateDecorator@@@@@8
data$rs	SEGMENT
??_R0?AV?$CDynamicPoolEx@VCTextureAnimationCWDecorator@NEffectUpdateDecorator@@@@@8 DD FLAT:??_7type_info@@6B@ ; CDynamicPoolEx<NEffectUpdateDecorator::CTextureAnimationCWDecorator> `RTTI Type Descriptor'
	DD	00H
	DB	'.?AV?$CDynamicPoolEx@VCTextureAnimationCWDecorator@NEffe'
	DB	'ctUpdateDecorator@@@@', 00H
data$rs	ENDS
;	COMDAT ??_R4?$CDynamicPoolEx@VCTextureAnimationCWDecorator@NEffectUpdateDecorator@@@@6B@
rdata$r	SEGMENT
??_R4?$CDynamicPoolEx@VCTextureAnimationCWDecorator@NEffectUpdateDecorator@@@@6B@ DD 00H ; CDynamicPoolEx<NEffectUpdateDecorator::CTextureAnimationCWDecorator>::`RTTI Complete Object Locator'
	DD	00H
	DD	00H
	DD	FLAT:??_R0?AV?$CDynamicPoolEx@VCTextureAnimationCWDecorator@NEffectUpdateDecorator@@@@@8
	DD	FLAT:??_R3?$CDynamicPoolEx@VCTextureAnimationCWDecorator@NEffectUpdateDecorator@@@@8
rdata$r	ENDS
;	COMDAT ??_R1A@?0A@EA@?$CDynamicPoolEx@VCNullDecorator@NEffectUpdateDecorator@@@@8
rdata$r	SEGMENT
??_R1A@?0A@EA@?$CDynamicPoolEx@VCNullDecorator@NEffectUpdateDecorator@@@@8 DD FLAT:??_R0?AV?$CDynamicPoolEx@VCNullDecorator@NEffectUpdateDecorator@@@@@8 ; CDynamicPoolEx<NEffectUpdateDecorator::CNullDecorator>::`RTTI Base Class Descriptor at (0,-1,0,64)'
	DD	00H
	DD	00H
	DD	0ffffffffH
	DD	00H
	DD	040H
	DD	FLAT:??_R3?$CDynamicPoolEx@VCNullDecorator@NEffectUpdateDecorator@@@@8
rdata$r	ENDS
;	COMDAT ??_R2?$CDynamicPoolEx@VCNullDecorator@NEffectUpdateDecorator@@@@8
rdata$r	SEGMENT
??_R2?$CDynamicPoolEx@VCNullDecorator@NEffectUpdateDecorator@@@@8 DD FLAT:??_R1A@?0A@EA@?$CDynamicPoolEx@VCNullDecorator@NEffectUpdateDecorator@@@@8 ; CDynamicPoolEx<NEffectUpdateDecorator::CNullDecorator>::`RTTI Base Class Array'
rdata$r	ENDS
;	COMDAT ??_R3?$CDynamicPoolEx@VCNullDecorator@NEffectUpdateDecorator@@@@8
rdata$r	SEGMENT
??_R3?$CDynamicPoolEx@VCNullDecorator@NEffectUpdateDecorator@@@@8 DD 00H ; CDynamicPoolEx<NEffectUpdateDecorator::CNullDecorator>::`RTTI Class Hierarchy Descriptor'
	DD	00H
	DD	01H
	DD	FLAT:??_R2?$CDynamicPoolEx@VCNullDecorator@NEffectUpdateDecorator@@@@8
rdata$r	ENDS
;	COMDAT ??_R0?AV?$CDynamicPoolEx@VCNullDecorator@NEffectUpdateDecorator@@@@@8
data$rs	SEGMENT
??_R0?AV?$CDynamicPoolEx@VCNullDecorator@NEffectUpdateDecorator@@@@@8 DD FLAT:??_7type_info@@6B@ ; CDynamicPoolEx<NEffectUpdateDecorator::CNullDecorator> `RTTI Type Descriptor'
	DD	00H
	DB	'.?AV?$CDynamicPoolEx@VCNullDecorator@NEffectUpdateDecora'
	DB	'tor@@@@', 00H
data$rs	ENDS
;	COMDAT ??_R4?$CDynamicPoolEx@VCNullDecorator@NEffectUpdateDecorator@@@@6B@
rdata$r	SEGMENT
??_R4?$CDynamicPoolEx@VCNullDecorator@NEffectUpdateDecorator@@@@6B@ DD 00H ; CDynamicPoolEx<NEffectUpdateDecorator::CNullDecorator>::`RTTI Complete Object Locator'
	DD	00H
	DD	00H
	DD	FLAT:??_R0?AV?$CDynamicPoolEx@VCNullDecorator@NEffectUpdateDecorator@@@@@8
	DD	FLAT:??_R3?$CDynamicPoolEx@VCNullDecorator@NEffectUpdateDecorator@@@@8
rdata$r	ENDS
;	COMDAT ??_R1A@?0A@EA@?$CDynamicPoolEx@VCHeaderDecorator@NEffectUpdateDecorator@@@@8
rdata$r	SEGMENT
??_R1A@?0A@EA@?$CDynamicPoolEx@VCHeaderDecorator@NEffectUpdateDecorator@@@@8 DD FLAT:??_R0?AV?$CDynamicPoolEx@VCHeaderDecorator@NEffectUpdateDecorator@@@@@8 ; CDynamicPoolEx<NEffectUpdateDecorator::CHeaderDecorator>::`RTTI Base Class Descriptor at (0,-1,0,64)'
	DD	00H
	DD	00H
	DD	0ffffffffH
	DD	00H
	DD	040H
	DD	FLAT:??_R3?$CDynamicPoolEx@VCHeaderDecorator@NEffectUpdateDecorator@@@@8
rdata$r	ENDS
;	COMDAT ??_R2?$CDynamicPoolEx@VCHeaderDecorator@NEffectUpdateDecorator@@@@8
rdata$r	SEGMENT
??_R2?$CDynamicPoolEx@VCHeaderDecorator@NEffectUpdateDecorator@@@@8 DD FLAT:??_R1A@?0A@EA@?$CDynamicPoolEx@VCHeaderDecorator@NEffectUpdateDecorator@@@@8 ; CDynamicPoolEx<NEffectUpdateDecorator::CHeaderDecorator>::`RTTI Base Class Array'
rdata$r	ENDS
;	COMDAT ??_R3?$CDynamicPoolEx@VCHeaderDecorator@NEffectUpdateDecorator@@@@8
rdata$r	SEGMENT
??_R3?$CDynamicPoolEx@VCHeaderDecorator@NEffectUpdateDecorator@@@@8 DD 00H ; CDynamicPoolEx<NEffectUpdateDecorator::CHeaderDecorator>::`RTTI Class Hierarchy Descriptor'
	DD	00H
	DD	01H
	DD	FLAT:??_R2?$CDynamicPoolEx@VCHeaderDecorator@NEffectUpdateDecorator@@@@8
rdata$r	ENDS
;	COMDAT ??_R0?AV?$CDynamicPoolEx@VCHeaderDecorator@NEffectUpdateDecorator@@@@@8
data$rs	SEGMENT
??_R0?AV?$CDynamicPoolEx@VCHeaderDecorator@NEffectUpdateDecorator@@@@@8 DD FLAT:??_7type_info@@6B@ ; CDynamicPoolEx<NEffectUpdateDecorator::CHeaderDecorator> `RTTI Type Descriptor'
	DD	00H
	DB	'.?AV?$CDynamicPoolEx@VCHeaderDecorator@NEffectUpdateDeco'
	DB	'rator@@@@', 00H
data$rs	ENDS
;	COMDAT ??_R4?$CDynamicPoolEx@VCHeaderDecorator@NEffectUpdateDecorator@@@@6B@
rdata$r	SEGMENT
??_R4?$CDynamicPoolEx@VCHeaderDecorator@NEffectUpdateDecorator@@@@6B@ DD 00H ; CDynamicPoolEx<NEffectUpdateDecorator::CHeaderDecorator>::`RTTI Complete Object Locator'
	DD	00H
	DD	00H
	DD	FLAT:??_R0?AV?$CDynamicPoolEx@VCHeaderDecorator@NEffectUpdateDecorator@@@@@8
	DD	FLAT:??_R3?$CDynamicPoolEx@VCHeaderDecorator@NEffectUpdateDecorator@@@@8
rdata$r	ENDS
;	COMDAT ??_7?$CDynamicPoolEx@VCHeaderDecorator@NEffectUpdateDecorator@@@@6B@
CONST	SEGMENT
??_7?$CDynamicPoolEx@VCHeaderDecorator@NEffectUpdateDecorator@@@@6B@ DD FLAT:??_R4?$CDynamicPoolEx@VCHeaderDecorator@NEffectUpdateDecorator@@@@6B@ ; CDynamicPoolEx<NEffectUpdateDecorator::CHeaderDecorator>::`vftable'
	DD	FLAT:??_E?$CDynamicPoolEx@VCHeaderDecorator@NEffectUpdateDecorator@@@@UAEPAXI@Z
CONST	ENDS
;	COMDAT ??_7?$CDynamicPoolEx@VCNullDecorator@NEffectUpdateDecorator@@@@6B@
CONST	SEGMENT
??_7?$CDynamicPoolEx@VCNullDecorator@NEffectUpdateDecorator@@@@6B@ DD FLAT:??_R4?$CDynamicPoolEx@VCNullDecorator@NEffectUpdateDecorator@@@@6B@ ; CDynamicPoolEx<NEffectUpdateDecorator::CNullDecorator>::`vftable'
	DD	FLAT:??_E?$CDynamicPoolEx@VCNullDecorator@NEffectUpdateDecorator@@@@UAEPAXI@Z
CONST	ENDS
;	COMDAT ??_7?$CDynamicPoolEx@VCTextureAnimationCWDecorator@NEffectUpdateDecorator@@@@6B@
CONST	SEGMENT
??_7?$CDynamicPoolEx@VCTextureAnimationCWDecorator@NEffectUpdateDecorator@@@@6B@ DD FLAT:??_R4?$CDynamicPoolEx@VCTextureAnimationCWDecorator@NEffectUpdateDecorator@@@@6B@ ; CDynamicPoolEx<NEffectUpdateDecorator::CTextureAnimationCWDecorator>::`vftable'
	DD	FLAT:??_E?$CDynamicPoolEx@VCTextureAnimationCWDecorator@NEffectUpdateDecorator@@@@UAEPAXI@Z
CONST	ENDS
;	COMDAT ??_7?$CDynamicPoolEx@VCTextureAnimationCCWDecorator@NEffectUpdateDecorator@@@@6B@
CONST	SEGMENT
??_7?$CDynamicPoolEx@VCTextureAnimationCCWDecorator@NEffectUpdateDecorator@@@@6B@ DD FLAT:??_R4?$CDynamicPoolEx@VCTextureAnimationCCWDecorator@NEffectUpdateDecorator@@@@6B@ ; CDynamicPoolEx<NEffectUpdateDecorator::CTextureAnimationCCWDecorator>::`vftable'
	DD	FLAT:??_E?$CDynamicPoolEx@VCTextureAnimationCCWDecorator@NEffectUpdateDecorator@@@@UAEPAXI@Z
CONST	ENDS
;	COMDAT ??_7?$CDynamicPoolEx@VCTextureAnimationRandomDecorator@NEffectUpdateDecorator@@@@6B@
CONST	SEGMENT
??_7?$CDynamicPoolEx@VCTextureAnimationRandomDecorator@NEffectUpdateDecorator@@@@6B@ DD FLAT:??_R4?$CDynamicPoolEx@VCTextureAnimationRandomDecorator@NEffectUpdateDecorator@@@@6B@ ; CDynamicPoolEx<NEffectUpdateDecorator::CTextureAnimationRandomDecorator>::`vftable'
	DD	FLAT:??_E?$CDynamicPoolEx@VCTextureAnimationRandomDecorator@NEffectUpdateDecorator@@@@UAEPAXI@Z
CONST	ENDS
;	COMDAT ??_7?$CDynamicPoolEx@VCAirResistanceDecorator@NEffectUpdateDecorator@@@@6B@
CONST	SEGMENT
??_7?$CDynamicPoolEx@VCAirResistanceDecorator@NEffectUpdateDecorator@@@@6B@ DD FLAT:??_R4?$CDynamicPoolEx@VCAirResistanceDecorator@NEffectUpdateDecorator@@@@6B@ ; CDynamicPoolEx<NEffectUpdateDecorator::CAirResistanceDecorator>::`vftable'
	DD	FLAT:??_E?$CDynamicPoolEx@VCAirResistanceDecorator@NEffectUpdateDecorator@@@@UAEPAXI@Z
CONST	ENDS
;	COMDAT ??_7?$CDynamicPoolEx@VCGravityDecorator@NEffectUpdateDecorator@@@@6B@
CONST	SEGMENT
??_7?$CDynamicPoolEx@VCGravityDecorator@NEffectUpdateDecorator@@@@6B@ DD FLAT:??_R4?$CDynamicPoolEx@VCGravityDecorator@NEffectUpdateDecorator@@@@6B@ ; CDynamicPoolEx<NEffectUpdateDecorator::CGravityDecorator>::`vftable'
	DD	FLAT:??_E?$CDynamicPoolEx@VCGravityDecorator@NEffectUpdateDecorator@@@@UAEPAXI@Z
CONST	ENDS
;	COMDAT ??_7?$CDynamicPoolEx@VCRotationDecorator@NEffectUpdateDecorator@@@@6B@
CONST	SEGMENT
??_7?$CDynamicPoolEx@VCRotationDecorator@NEffectUpdateDecorator@@@@6B@ DD FLAT:??_R4?$CDynamicPoolEx@VCRotationDecorator@NEffectUpdateDecorator@@@@6B@ ; CDynamicPoolEx<NEffectUpdateDecorator::CRotationDecorator>::`vftable'
	DD	FLAT:??_E?$CDynamicPoolEx@VCRotationDecorator@NEffectUpdateDecorator@@@@UAEPAXI@Z
CONST	ENDS
;	COMDAT ??_C@_0BJ@FKDKMNNK@APPLY_ANTI_PENETRATE_PCT@
CONST	SEGMENT
??_C@_0BJ@FKDKMNNK@APPLY_ANTI_PENETRATE_PCT@ DB 'APPLY_ANTI_PENETRATE_PCT'
	DB	00H						; `string'
CONST	ENDS
;	COMDAT ??_C@_0BI@KIMFHHIO@APPLY_ANTI_CRITICAL_PCT@
CONST	SEGMENT
??_C@_0BI@KIMFHHIO@APPLY_ANTI_CRITICAL_PCT@ DB 'APPLY_ANTI_CRITICAL_PCT', 00H ; `string'
CONST	ENDS
;	COMDAT ??_C@_0BC@DDBEBBJF@APPLY_RESIST_DARK@
CONST	SEGMENT
??_C@_0BC@DDBEBBJF@APPLY_RESIST_DARK@ DB 'APPLY_RESIST_DARK', 00H ; `string'
CONST	ENDS
;	COMDAT ??_C@_0BD@GENAIBDP@APPLY_RESIST_EARTH@
CONST	SEGMENT
??_C@_0BD@GENAIBDP@APPLY_RESIST_EARTH@ DB 'APPLY_RESIST_EARTH', 00H ; `string'
CONST	ENDS
;	COMDAT ??_C@_0BB@CGPGAFA@APPLY_RESIST_ICE@
CONST	SEGMENT
??_C@_0BB@CGPGAFA@APPLY_RESIST_ICE@ DB 'APPLY_RESIST_ICE', 00H ; `string'
CONST	ENDS
;	COMDAT ??_C@_0BP@MGKGKJGA@APPLY_MELEE_MAGIC_ATTBONUS_PER@
CONST	SEGMENT
??_C@_0BP@MGKGKJGA@APPLY_MELEE_MAGIC_ATTBONUS_PER@ DB 'APPLY_MELEE_MAGIC_'
	DB	'ATTBONUS_PER', 00H				; `string'
CONST	ENDS
;	COMDAT ??_C@_0BJ@JJJKDKFC@APPLY_MAGIC_ATTBONUS_PER@
CONST	SEGMENT
??_C@_0BJ@JJJKDKFC@APPLY_MAGIC_ATTBONUS_PER@ DB 'APPLY_MAGIC_ATTBONUS_PER'
	DB	00H						; `string'
CONST	ENDS
;	COMDAT ??_C@_0BJ@IGOAELFN@APPLY_COSTUME_ATTR_BONUS@
CONST	SEGMENT
??_C@_0BJ@IGOAELFN@APPLY_COSTUME_ATTR_BONUS@ DB 'APPLY_COSTUME_ATTR_BONUS'
	DB	00H						; `string'
CONST	ENDS
;	COMDAT ??_C@_0N@MOPONLJI@APPLY_ENERGY@
CONST	SEGMENT
??_C@_0N@MOPONLJI@APPLY_ENERGY@ DB 'APPLY_ENERGY', 00H	; `string'
CONST	ENDS
;	COMDAT ??_C@_0BE@POHJKJMD@APPLY_RESIST_SHAMAN@
CONST	SEGMENT
??_C@_0BE@POHJKJMD@APPLY_RESIST_SHAMAN@ DB 'APPLY_RESIST_SHAMAN', 00H ; `string'
CONST	ENDS
;	COMDAT ??_C@_0BC@MEEAHCEF@APPLY_RESIST_SURA@
CONST	SEGMENT
??_C@_0BC@MEEAHCEF@APPLY_RESIST_SURA@ DB 'APPLY_RESIST_SURA', 00H ; `string'
CONST	ENDS
;	COMDAT ??_C@_0BG@MCFLPEMK@APPLY_RESIST_ASSASSIN@
CONST	SEGMENT
??_C@_0BG@MCFLPEMK@APPLY_RESIST_ASSASSIN@ DB 'APPLY_RESIST_ASSASSIN', 00H ; `string'
CONST	ENDS
;	COMDAT ??_C@_0BF@DIEIKMOC@APPLY_RESIST_WARRIOR@
CONST	SEGMENT
??_C@_0BF@DIEIKMOC@APPLY_RESIST_WARRIOR@ DB 'APPLY_RESIST_WARRIOR', 00H ; `string'
CONST	ENDS
;	COMDAT ??_C@_0BJ@MIHJNNLH@APPLY_PC_BANG_DROP_BONUS@
CONST	SEGMENT
??_C@_0BJ@MIHJNNLH@APPLY_PC_BANG_DROP_BONUS@ DB 'APPLY_PC_BANG_DROP_BONUS'
	DB	00H						; `string'
CONST	ENDS
;	COMDAT ??_C@_0BI@MMJMNMDE@APPLY_PC_BANG_EXP_BONUS@
CONST	SEGMENT
??_C@_0BI@MMJMNMDE@APPLY_PC_BANG_EXP_BONUS@ DB 'APPLY_PC_BANG_EXP_BONUS', 00H ; `string'
CONST	ENDS
;	COMDAT ??_C@_0BO@OAPOHFCD@APPLY_NORMAL_HIT_DEFEND_BONUS@
CONST	SEGMENT
??_C@_0BO@OAPOHFCD@APPLY_NORMAL_HIT_DEFEND_BONUS@ DB 'APPLY_NORMAL_HIT_DE'
	DB	'FEND_BONUS', 00H				; `string'
CONST	ENDS
;	COMDAT ??_C@_0BJ@MCFLODEL@APPLY_SKILL_DEFEND_BONUS@
CONST	SEGMENT
??_C@_0BJ@MCFLODEL@APPLY_SKILL_DEFEND_BONUS@ DB 'APPLY_SKILL_DEFEND_BONUS'
	DB	00H						; `string'
CONST	ENDS
;	COMDAT ??_C@_0BO@KJDLNPKH@APPLY_NORMAL_HIT_DAMAGE_BONUS@
CONST	SEGMENT
??_C@_0BO@KJDLNPKH@APPLY_NORMAL_HIT_DAMAGE_BONUS@ DB 'APPLY_NORMAL_HIT_DA'
	DB	'MAGE_BONUS', 00H				; `string'
CONST	ENDS
;	COMDAT ??_C@_0BJ@ILJOEJMP@APPLY_SKILL_DAMAGE_BONUS@
CONST	SEGMENT
??_C@_0BJ@ILJOEJMP@APPLY_SKILL_DAMAGE_BONUS@ DB 'APPLY_SKILL_DAMAGE_BONUS'
	DB	00H						; `string'
CONST	ENDS
;	COMDAT ??_C@_0BB@OLFCCPEF@APPLY_MAX_SP_PCT@
CONST	SEGMENT
??_C@_0BB@OLFCCPEF@APPLY_MAX_SP_PCT@ DB 'APPLY_MAX_SP_PCT', 00H ; `string'
CONST	ENDS
;	COMDAT ??_C@_0BB@IOILOHHB@APPLY_MAX_HP_PCT@
CONST	SEGMENT
??_C@_0BB@IOILOHHB@APPLY_MAX_HP_PCT@ DB 'APPLY_MAX_HP_PCT', 00H ; `string'
CONST	ENDS
;	COMDAT ??_C@_0BF@CNKLONKF@APPLY_MALL_GOLDBONUS@
CONST	SEGMENT
??_C@_0BF@CNKLONKF@APPLY_MALL_GOLDBONUS@ DB 'APPLY_MALL_GOLDBONUS', 00H ; `string'
CONST	ENDS
;	COMDAT ??_C@_0BF@JHCAFPEC@APPLY_MALL_ITEMBONUS@
CONST	SEGMENT
??_C@_0BF@JHCAFPEC@APPLY_MALL_ITEMBONUS@ DB 'APPLY_MALL_ITEMBONUS', 00H ; `string'
CONST	ENDS
;	COMDAT ??_C@_0BE@HDMKGFGB@APPLY_MALL_EXPBONUS@
CONST	SEGMENT
??_C@_0BE@HDMKGFGB@APPLY_MALL_EXPBONUS@ DB 'APPLY_MALL_EXPBONUS', 00H ; `string'
CONST	ENDS
;	COMDAT ??_C@_0BE@IHABPMCM@APPLY_MALL_DEFBONUS@
CONST	SEGMENT
??_C@_0BE@IHABPMCM@APPLY_MALL_DEFBONUS@ DB 'APPLY_MALL_DEFBONUS', 00H ; `string'
CONST	ENDS
;	COMDAT ??_C@_0BE@INMGAFDB@APPLY_MALL_ATTBONUS@
CONST	SEGMENT
??_C@_0BE@INMGAFDB@APPLY_MALL_ATTBONUS@ DB 'APPLY_MALL_ATTBONUS', 00H ; `string'
CONST	ENDS
;	COMDAT ??_C@_0BH@OMHBNPNG@APPLY_ATTBONUS_MONSTER@
CONST	SEGMENT
??_C@_0BH@OMHBNPNG@APPLY_ATTBONUS_MONSTER@ DB 'APPLY_ATTBONUS_MONSTER', 00H ; `string'
CONST	ENDS
;	COMDAT ??_C@_0BG@HGCDBIBP@APPLY_ATTBONUS_SHAMAN@
CONST	SEGMENT
??_C@_0BG@HGCDBIBP@APPLY_ATTBONUS_SHAMAN@ DB 'APPLY_ATTBONUS_SHAMAN', 00H ; `string'
CONST	ENDS
;	COMDAT ??_C@_0BE@EHJIJMPG@APPLY_ATTBONUS_SURA@
CONST	SEGMENT
??_C@_0BE@EHJIJMPG@APPLY_ATTBONUS_SURA@ DB 'APPLY_ATTBONUS_SURA', 00H ; `string'
CONST	ENDS
;	COMDAT ??_C@_0BI@FDLAHFJJ@APPLY_ATTBONUS_ASSASSIN@
CONST	SEGMENT
??_C@_0BI@FDLAHFJJ@APPLY_ATTBONUS_ASSASSIN@ DB 'APPLY_ATTBONUS_ASSASSIN', 00H ; `string'
CONST	ENDS
;	COMDAT ??_C@_0BH@LHKFGIKM@APPLY_ATTBONUS_WARRIOR@
CONST	SEGMENT
??_C@_0BH@LHKFGIKM@APPLY_ATTBONUS_WARRIOR@ DB 'APPLY_ATTBONUS_WARRIOR', 00H ; `string'
CONST	ENDS
;	COMDAT ??_C@_0BC@MENAELHN@APPLY_MAX_STAMINA@
CONST	SEGMENT
??_C@_0BC@MENAELHN@APPLY_MAX_STAMINA@ DB 'APPLY_MAX_STAMINA', 00H ; `string'
CONST	ENDS
;	COMDAT ??_C@_0BC@ICOAEBEB@APPLY_IMMUNE_FALL@
CONST	SEGMENT
??_C@_0BC@ICOAEBEB@APPLY_IMMUNE_FALL@ DB 'APPLY_IMMUNE_FALL', 00H ; `string'
CONST	ENDS
;	COMDAT ??_C@_0BC@HDPKPEKN@APPLY_IMMUNE_SLOW@
CONST	SEGMENT
??_C@_0BC@HDPKPEKN@APPLY_IMMUNE_SLOW@ DB 'APPLY_IMMUNE_SLOW', 00H ; `string'
CONST	ENDS
;	COMDAT ??_C@_0BC@GMOGAEGD@APPLY_IMMUNE_STUN@
CONST	SEGMENT
??_C@_0BC@GMOGAEGD@APPLY_IMMUNE_STUN@ DB 'APPLY_IMMUNE_STUN', 00H ; `string'
CONST	ENDS
;	COMDAT ??_C@_0BG@FNNLKJON@APPLY_KILL_HP_RECOVER@
CONST	SEGMENT
??_C@_0BG@FNNLKJON@APPLY_KILL_HP_RECOVER@ DB 'APPLY_KILL_HP_RECOVER', 00H ; `string'
CONST	ENDS
;	COMDAT ??_C@_0BD@HAABJCED@APPLY_POTION_BONUS@
CONST	SEGMENT
??_C@_0BD@HAABJCED@APPLY_POTION_BONUS@ DB 'APPLY_POTION_BONUS', 00H ; `string'
CONST	ENDS
;	COMDAT ??_C@_0BG@GJLPLNJK@APPLY_ITEM_DROP_BONUS@
CONST	SEGMENT
??_C@_0BG@GJLPLNJK@APPLY_ITEM_DROP_BONUS@ DB 'APPLY_ITEM_DROP_BONUS', 00H ; `string'
CONST	ENDS
;	COMDAT ??_C@_0BI@CPGCKKHM@APPLY_GOLD_DOUBLE_BONUS@
CONST	SEGMENT
??_C@_0BI@CPGCKKHM@APPLY_GOLD_DOUBLE_BONUS@ DB 'APPLY_GOLD_DOUBLE_BONUS', 00H ; `string'
CONST	ENDS
;	COMDAT ??_C@_0BH@BOFCHNGC@APPLY_EXP_DOUBLE_BONUS@
CONST	SEGMENT
??_C@_0BH@BOFCHNGC@APPLY_EXP_DOUBLE_BONUS@ DB 'APPLY_EXP_DOUBLE_BONUS', 00H ; `string'
CONST	ENDS
;	COMDAT ??_C@_0BG@NAAMOKGC@APPLY_KILL_SP_RECOVER@
CONST	SEGMENT
??_C@_0BG@NAAMOKGC@APPLY_KILL_SP_RECOVER@ DB 'APPLY_KILL_SP_RECOVER', 00H ; `string'
CONST	ENDS
;	COMDAT ??_C@_0BE@CMJGNONM@APPLY_POISON_REDUCE@
CONST	SEGMENT
??_C@_0BE@CMJGNONM@APPLY_POISON_REDUCE@ DB 'APPLY_POISON_REDUCE', 00H ; `string'
CONST	ENDS
;	COMDAT ??_C@_0BE@GIMFBPMF@APPLY_REFLECT_CURSE@
CONST	SEGMENT
??_C@_0BE@GIMFBPMF@APPLY_REFLECT_CURSE@ DB 'APPLY_REFLECT_CURSE', 00H ; `string'
CONST	ENDS
;	COMDAT ??_C@_0BE@JKECBGFJ@APPLY_REFLECT_MELEE@
CONST	SEGMENT
??_C@_0BE@JKECBGFJ@APPLY_REFLECT_MELEE@ DB 'APPLY_REFLECT_MELEE', 00H ; `string'
CONST	ENDS
;	COMDAT ??_C@_0BC@EDEEJCPD@APPLY_RESIST_WIND@
CONST	SEGMENT
??_C@_0BC@EDEEJCPD@APPLY_RESIST_WIND@ DB 'APPLY_RESIST_WIND', 00H ; `string'
CONST	ENDS
;	COMDAT ??_C@_0BB@LKHMHNKD@APPLY_RESIST_FAN@
CONST	SEGMENT
??_C@_0BB@LKHMHNKD@APPLY_RESIST_FAN@ DB 'APPLY_RESIST_FAN', 00H ; `string'
CONST	ENDS
;	COMDAT ??_C@_0BC@GKMPGLNP@APPLY_RESIST_BELL@
CONST	SEGMENT
??_C@_0BC@GKMPGLNP@APPLY_RESIST_BELL@ DB 'APPLY_RESIST_BELL', 00H ; `string'
CONST	ENDS
;	COMDAT ??_C@_0BE@HKIMLKAO@APPLY_RESIST_DAGGER@
CONST	SEGMENT
??_C@_0BE@HKIMLKAO@APPLY_RESIST_DAGGER@ DB 'APPLY_RESIST_DAGGER', 00H ; `string'
CONST	ENDS
;	COMDAT ??_C@_0BF@PPDPGLJM@APPLY_RESIST_TWOHAND@
CONST	SEGMENT
??_C@_0BF@PPDPGLJM@APPLY_RESIST_TWOHAND@ DB 'APPLY_RESIST_TWOHAND', 00H ; `string'
CONST	ENDS
;	COMDAT ??_C@_0BD@FELELOGH@APPLY_RESIST_SWORD@
CONST	SEGMENT
??_C@_0BD@FELELOGH@APPLY_RESIST_SWORD@ DB 'APPLY_RESIST_SWORD', 00H ; `string'
CONST	ENDS
;	COMDAT ??_C@_0M@OLNDHAEO@APPLY_DODGE@
CONST	SEGMENT
??_C@_0M@OLNDHAEO@APPLY_DODGE@ DB 'APPLY_DODGE', 00H	; `string'
CONST	ENDS
;	COMDAT ??_C@_0M@DEKBOLNA@APPLY_BLOCK@
CONST	SEGMENT
??_C@_0M@DEKBOLNA@APPLY_BLOCK@ DB 'APPLY_BLOCK', 00H	; `string'
CONST	ENDS
;	COMDAT ??_C@_0BI@CNPFJGMF@APPLY_DAMAGE_SP_RECOVER@
CONST	SEGMENT
??_C@_0BI@CNPFJGMF@APPLY_DAMAGE_SP_RECOVER@ DB 'APPLY_DAMAGE_SP_RECOVER', 00H ; `string'
CONST	ENDS
;	COMDAT ??_C@_0BE@MMJAOBJI@APPLY_MANA_BURN_PCT@
CONST	SEGMENT
??_C@_0BE@MMJAOBJI@APPLY_MANA_BURN_PCT@ DB 'APPLY_MANA_BURN_PCT', 00H ; `string'
CONST	ENDS
;	COMDAT ??_C@_0P@JJIAAAON@APPLY_STEAL_SP@
CONST	SEGMENT
??_C@_0P@JJIAAAON@APPLY_STEAL_SP@ DB 'APPLY_STEAL_SP', 00H ; `string'
CONST	ENDS
;	COMDAT ??_C@_0P@IJPDEMHM@APPLY_STEAL_HP@
CONST	SEGMENT
??_C@_0P@IJPDEMHM@APPLY_STEAL_HP@ DB 'APPLY_STEAL_HP', 00H ; `string'
CONST	ENDS
;	COMDAT ??_C@_0BG@BGJNMLHF@APPLY_ATTBONUS_MILGYO@
CONST	SEGMENT
??_C@_0BG@BGJNMLHF@APPLY_ATTBONUS_MILGYO@ DB 'APPLY_ATTBONUS_MILGYO', 00H ; `string'
CONST	ENDS
;	COMDAT ??_C@_0BD@GHNBCFFK@APPLY_ATTBONUS_ORC@
CONST	SEGMENT
??_C@_0BD@GHNBCFFK@APPLY_ATTBONUS_ORC@ DB 'APPLY_ATTBONUS_ORC', 00H ; `string'
CONST	ENDS
;	COMDAT ??_C@_0BE@MIHOPHBF@APPLY_PENETRATE_PCT@
CONST	SEGMENT
??_C@_0BE@MIHOPHBF@APPLY_PENETRATE_PCT@ DB 'APPLY_PENETRATE_PCT', 00H ; `string'
CONST	ENDS
;	COMDAT ??_C@_0BD@DOHBCDEC@APPLY_CRITICAL_PCT@
CONST	SEGMENT
??_C@_0BD@DOHBCDEC@APPLY_CRITICAL_PCT@ DB 'APPLY_CRITICAL_PCT', 00H ; `string'
CONST	ENDS
;	COMDAT ??_C@_0P@IGBLFIG@APPLY_STUN_PCT@
CONST	SEGMENT
??_C@_0P@IGBLFIG@APPLY_STUN_PCT@ DB 'APPLY_STUN_PCT', 00H ; `string'
CONST	ENDS
;	COMDAT ??_C@_0P@EAEIAPML@APPLY_SLOW_PCT@
CONST	SEGMENT
??_C@_0P@EAEIAPML@APPLY_SLOW_PCT@ DB 'APPLY_SLOW_PCT', 00H ; `string'
CONST	ENDS
;	COMDAT ??_C@_0BB@OFEPEABG@APPLY_POISON_PCT@
CONST	SEGMENT
??_C@_0BB@OFEPEABG@APPLY_POISON_PCT@ DB 'APPLY_POISON_PCT', 00H ; `string'
CONST	ENDS
;	COMDAT ??_C@_0BD@BIEOENBH@APPLY_RESIST_MAGIC@
CONST	SEGMENT
??_C@_0BD@BIEOENBH@APPLY_RESIST_MAGIC@ DB 'APPLY_RESIST_MAGIC', 00H ; `string'
CONST	ENDS
;	COMDAT ??_C@_0BC@CNKONPAF@APPLY_RESIST_ELEC@
CONST	SEGMENT
??_C@_0BC@CNKONPAF@APPLY_RESIST_ELEC@ DB 'APPLY_RESIST_ELEC', 00H ; `string'
CONST	ENDS
;	COMDAT ??_C@_0BC@BCODEHJE@APPLY_RESIST_FIRE@
CONST	SEGMENT
??_C@_0BC@BCODEHJE@APPLY_RESIST_FIRE@ DB 'APPLY_RESIST_FIRE', 00H ; `string'
CONST	ENDS
;	COMDAT ??_C@_0BB@KEIAGOOG@APPLY_RESIST_BOW@
CONST	SEGMENT
??_C@_0BB@KEIAGOOG@APPLY_RESIST_BOW@ DB 'APPLY_RESIST_BOW', 00H ; `string'
CONST	ENDS
;	COMDAT ??_C@_0BD@DGLENODO@APPLY_BOW_DISTANCE@
CONST	SEGMENT
??_C@_0BD@DGLENODO@APPLY_BOW_DISTANCE@ DB 'APPLY_BOW_DISTANCE', 00H ; `string'
CONST	ENDS
;	COMDAT ??_C@_0BF@FLAIBIKP@APPLY_ATTBONUS_HUMAN@
CONST	SEGMENT
??_C@_0BF@FLAIBIKP@APPLY_ATTBONUS_HUMAN@ DB 'APPLY_ATTBONUS_HUMAN', 00H ; `string'
CONST	ENDS
;	COMDAT ??_C@_0BF@PHBHKMPC@APPLY_ATTBONUS_DEVIL@
CONST	SEGMENT
??_C@_0BF@PHBHKMPC@APPLY_ATTBONUS_DEVIL@ DB 'APPLY_ATTBONUS_DEVIL', 00H ; `string'
CONST	ENDS
;	COMDAT ??_C@_0BG@DEBBIBCN@APPLY_ATTBONUS_UNDEAD@
CONST	SEGMENT
??_C@_0BG@DEBBIBCN@APPLY_ATTBONUS_UNDEAD@ DB 'APPLY_ATTBONUS_UNDEAD', 00H ; `string'
CONST	ENDS
;	COMDAT ??_C@_0BG@FCHNFPKG@APPLY_ATTBONUS_ANIMAL@
CONST	SEGMENT
??_C@_0BG@FCHNFPKG@APPLY_ATTBONUS_ANIMAL@ DB 'APPLY_ATTBONUS_ANIMAL', 00H ; `string'
CONST	ENDS
;	COMDAT ??_C@_0M@CPHNGINI@APPLY_SKILL@
CONST	SEGMENT
??_C@_0M@CPHNGINI@APPLY_SKILL@ DB 'APPLY_SKILL', 00H	; `string'
CONST	ENDS
;	COMDAT ??_C@_0BG@PLJBHAML@APPLY_MAGIC_DEF_GRADE@
CONST	SEGMENT
??_C@_0BG@PLJBHAML@APPLY_MAGIC_DEF_GRADE@ DB 'APPLY_MAGIC_DEF_GRADE', 00H ; `string'
CONST	ENDS
;	COMDAT ??_C@_0BG@JIJNNLOL@APPLY_MAGIC_ATT_GRADE@
CONST	SEGMENT
??_C@_0BG@JIJNNLOL@APPLY_MAGIC_ATT_GRADE@ DB 'APPLY_MAGIC_ATT_GRADE', 00H ; `string'
CONST	ENDS
;	COMDAT ??_C@_0BB@IMPHMAIN@APPLY_CAST_SPEED@
CONST	SEGMENT
??_C@_0BB@IMPHMAIN@APPLY_CAST_SPEED@ DB 'APPLY_CAST_SPEED', 00H ; `string'
CONST	ENDS
;	COMDAT ??_C@_0BA@IHFPGGCP@APPLY_MOV_SPEED@
CONST	SEGMENT
??_C@_0BA@IHFPGGCP@APPLY_MOV_SPEED@ DB 'APPLY_MOV_SPEED', 00H ; `string'
CONST	ENDS
;	COMDAT ??_C@_0BA@PBNDFNHA@APPLY_ATT_SPEED@
CONST	SEGMENT
??_C@_0BA@PBNDFNHA@APPLY_ATT_SPEED@ DB 'APPLY_ATT_SPEED', 00H ; `string'
CONST	ENDS
;	COMDAT ??_C@_0BG@DIKOCKN@APPLY_ATT_GRADE_BONUS@
CONST	SEGMENT
??_C@_0BG@DIKOCKN@APPLY_ATT_GRADE_BONUS@ DB 'APPLY_ATT_GRADE_BONUS', 00H ; `string'
CONST	ENDS
;	COMDAT ??_C@_0BG@DJGIDNN@APPLY_DEF_GRADE_BONUS@
CONST	SEGMENT
??_C@_0BG@DJGIDNN@APPLY_DEF_GRADE_BONUS@ DB 'APPLY_DEF_GRADE_BONUS', 00H ; `string'
CONST	ENDS
;	COMDAT ??_C@_0P@PHBEALO@APPLY_SP_REGEN@
CONST	SEGMENT
??_C@_0P@PHBEALO@APPLY_SP_REGEN@ DB 'APPLY_SP_REGEN', 00H ; `string'
CONST	ENDS
;	COMDAT ??_C@_0P@CBOEJMBC@APPLY_HP_REGEN@
CONST	SEGMENT
??_C@_0P@CBOEJMBC@APPLY_HP_REGEN@ DB 'APPLY_HP_REGEN', 00H ; `string'
CONST	ENDS
;	COMDAT ??_C@_0N@KMLABMCB@APPLY_MAX_SP@
CONST	SEGMENT
??_C@_0N@KMLABMCB@APPLY_MAX_SP@ DB 'APPLY_MAX_SP', 00H	; `string'
CONST	ENDS
;	COMDAT ??_C@_0N@LMMDFALA@APPLY_MAX_HP@
CONST	SEGMENT
??_C@_0N@LMMDFALA@APPLY_MAX_HP@ DB 'APPLY_MAX_HP', 00H	; `string'
CONST	ENDS
;	COMDAT ??_C@_09BKNPHIKC@APPLY_INT@
CONST	SEGMENT
??_C@_09BKNPHIKC@APPLY_INT@ DB 'APPLY_INT', 00H		; `string'
CONST	ENDS
;	COMDAT ??_C@_09MEINAICK@APPLY_CON@
CONST	SEGMENT
??_C@_09MEINAICK@APPLY_CON@ DB 'APPLY_CON', 00H		; `string'
CONST	ENDS
;	COMDAT ??_C@_09EIFFAAJC@APPLY_DEX@
CONST	SEGMENT
??_C@_09EIFFAAJC@APPLY_DEX@ DB 'APPLY_DEX', 00H		; `string'
CONST	ENDS
;	COMDAT ??_C@_09GCJAEOHJ@APPLY_STR@
CONST	SEGMENT
??_C@_09GCJAEOHJ@APPLY_STR@ DB 'APPLY_STR', 00H		; `string'
CONST	ENDS
;	COMDAT ??_C@_0L@KOOBDLCP@APPLY_NONE@
CONST	SEGMENT
??_C@_0L@KOOBDLCP@APPLY_NONE@ DB 'APPLY_NONE', 00H	; `string'
CONST	ENDS
;	COMDAT ??_C@_0BE@PABFDMOM@ITEM_SOCKET_MAX_NUM@
CONST	SEGMENT
??_C@_0BE@PABFDMOM@ITEM_SOCKET_MAX_NUM@ DB 'ITEM_SOCKET_MAX_NUM', 00H ; `string'
CONST	ENDS
;	COMDAT ??_C@_0BD@POBJPMPE@ITEM_APPLY_MAX_NUM@
CONST	SEGMENT
??_C@_0BD@POBJPMPE@ITEM_APPLY_MAX_NUM@ DB 'ITEM_APPLY_MAX_NUM', 00H ; `string'
CONST	ENDS
;	COMDAT ??_C@_09JPGIMBID@ARMOR_EAR@
CONST	SEGMENT
??_C@_09JPGIMBID@ARMOR_EAR@ DB 'ARMOR_EAR', 00H		; `string'
CONST	ENDS
;	COMDAT ??_C@_0L@ICPFEDJE@ARMOR_NECK@
CONST	SEGMENT
??_C@_0L@ICPFEDJE@ARMOR_NECK@ DB 'ARMOR_NECK', 00H	; `string'
CONST	ENDS
;	COMDAT ??_C@_0M@JNDJGNLA@ARMOR_FOOTS@
CONST	SEGMENT
??_C@_0M@JNDJGNLA@ARMOR_FOOTS@ DB 'ARMOR_FOOTS', 00H	; `string'
CONST	ENDS
;	COMDAT ??_C@_0M@KCKGDACD@ARMOR_WRIST@
CONST	SEGMENT
??_C@_0M@KCKGDACD@ARMOR_WRIST@ DB 'ARMOR_WRIST', 00H	; `string'
CONST	ENDS
;	COMDAT ??_C@_0N@HJFKCCG@ARMOR_SHIELD@
CONST	SEGMENT
??_C@_0N@HJFKCCG@ARMOR_SHIELD@ DB 'ARMOR_SHIELD', 00H	; `string'
CONST	ENDS
;	COMDAT ??_C@_0L@IJKJHOJF@ARMOR_HEAD@
CONST	SEGMENT
??_C@_0L@IJKJHOJF@ARMOR_HEAD@ DB 'ARMOR_HEAD', 00H	; `string'
CONST	ENDS
;	COMDAT ??_C@_0L@FFADCIKH@ARMOR_BODY@
CONST	SEGMENT
??_C@_0L@FFADCIKH@ARMOR_BODY@ DB 'ARMOR_BODY', 00H	; `string'
CONST	ENDS
;	COMDAT ??_C@_0P@CANFDFEC@WEARABLE_ARROW@
CONST	SEGMENT
??_C@_0P@CANFDFEC@WEARABLE_ARROW@ DB 'WEARABLE_ARROW', 00H ; `string'
CONST	ENDS
;	COMDAT ??_C@_0BA@DGBFNJPE@WEARABLE_SHIELD@
CONST	SEGMENT
??_C@_0BA@DGBFNJPE@WEARABLE_SHIELD@ DB 'WEARABLE_SHIELD', 00H ; `string'
CONST	ENDS
;	COMDAT ??_C@_0BA@FGALGGKF@WEARABLE_UNIQUE@
CONST	SEGMENT
??_C@_0BA@FGALGGKF@WEARABLE_UNIQUE@ DB 'WEARABLE_UNIQUE', 00H ; `string'
CONST	ENDS
;	COMDAT ??_C@_0N@BHKGKGNM@WEARABLE_EAR@
CONST	SEGMENT
??_C@_0N@BHKGKGNM@WEARABLE_EAR@ DB 'WEARABLE_EAR', 00H	; `string'
CONST	ENDS
;	COMDAT ??_C@_0O@HJKJMBJG@WEARABLE_NECK@
CONST	SEGMENT
??_C@_0O@HJKJMBJG@WEARABLE_NECK@ DB 'WEARABLE_NECK', 00H ; `string'
CONST	ENDS
;	COMDAT ??_C@_0BA@NBNKFEIG@WEARABLE_WEAPON@
CONST	SEGMENT
??_C@_0BA@NBNKFEIG@WEARABLE_WEAPON@ DB 'WEARABLE_WEAPON', 00H ; `string'
CONST	ENDS
;	COMDAT ??_C@_0P@EMFDANIN@WEARABLE_WRIST@
CONST	SEGMENT
??_C@_0P@EMFDANIN@WEARABLE_WRIST@ DB 'WEARABLE_WRIST', 00H ; `string'
CONST	ENDS
;	COMDAT ??_C@_0P@HDMMFABO@WEARABLE_FOOTS@
CONST	SEGMENT
??_C@_0P@HDMMFABO@WEARABLE_FOOTS@ DB 'WEARABLE_FOOTS', 00H ; `string'
CONST	ENDS
;	COMDAT ??_C@_0O@HCPFPMJH@WEARABLE_HEAD@
CONST	SEGMENT
??_C@_0O@HCPFPMJH@WEARABLE_HEAD@ DB 'WEARABLE_HEAD', 00H ; `string'
CONST	ENDS
;	COMDAT ??_C@_0O@KOFPKKKF@WEARABLE_BODY@
CONST	SEGMENT
??_C@_0O@KOFPKKKF@WEARABLE_BODY@ DB 'WEARABLE_BODY', 00H ; `string'
CONST	ENDS
;	COMDAT ??_C@_0BA@BKNHAKOI@ANTIFLAG_MYSHOP@
CONST	SEGMENT
??_C@_0BA@BKNHAKOI@ANTIFLAG_MYSHOP@ DB 'ANTIFLAG_MYSHOP', 00H ; `string'
CONST	ENDS
;	COMDAT ??_C@_0P@DFNANGEL@ANTIFLAG_STACK@
CONST	SEGMENT
??_C@_0P@DFNANGEL@ANTIFLAG_STACK@ DB 'ANTIFLAG_STACK', 00H ; `string'
CONST	ENDS
;	COMDAT ??_C@_0BA@LPKEKIBP@ANTIFLAG_PKDROP@
CONST	SEGMENT
??_C@_0BA@LPKEKIBP@ANTIFLAG_PKDROP@ DB 'ANTIFLAG_PKDROP', 00H ; `string'
CONST	ENDS
;	COMDAT ??_C@_0O@PMFAIFED@ANTIFLAG_GIVE@
CONST	SEGMENT
??_C@_0O@PMFAIFED@ANTIFLAG_GIVE@ DB 'ANTIFLAG_GIVE', 00H ; `string'
CONST	ENDS
;	COMDAT ??_C@_0O@KMIEJMOO@ANTIFLAG_SAVE@
CONST	SEGMENT
??_C@_0O@KMIEJMOO@ANTIFLAG_SAVE@ DB 'ANTIFLAG_SAVE', 00H ; `string'
CONST	ENDS
;	COMDAT ??_C@_0BC@NPDFHMBJ@ANTIFLAG_EMPIRE_R@
CONST	SEGMENT
??_C@_0BC@NPDFHMBJ@ANTIFLAG_EMPIRE_R@ DB 'ANTIFLAG_EMPIRE_R', 00H ; `string'
CONST	ENDS
;	COMDAT ??_C@_0BC@JFPHGOEI@ANTIFLAG_EMPIRE_B@
CONST	SEGMENT
??_C@_0BC@JFPHGOEI@ANTIFLAG_EMPIRE_B@ DB 'ANTIFLAG_EMPIRE_B', 00H ; `string'
CONST	ENDS
;	COMDAT ??_C@_0BC@LONKDNIL@ANTIFLAG_EMPIRE_A@
CONST	SEGMENT
??_C@_0BC@LONKDNIL@ANTIFLAG_EMPIRE_A@ DB 'ANTIFLAG_EMPIRE_A', 00H ; `string'
CONST	ENDS
;	COMDAT ??_C@_0O@ODJFJGFG@ANTIFLAG_SELL@
CONST	SEGMENT
??_C@_0O@ODJFJGFG@ANTIFLAG_SELL@ DB 'ANTIFLAG_SELL', 00H ; `string'
CONST	ENDS
;	COMDAT ??_C@_0O@BIKKFBOG@ANTIFLAG_DROP@
CONST	SEGMENT
??_C@_0O@BIKKFBOG@ANTIFLAG_DROP@ DB 'ANTIFLAG_DROP', 00H ; `string'
CONST	ENDS
;	COMDAT ??_C@_0N@NEJHBBKC@ANTIFLAG_GET@
CONST	SEGMENT
??_C@_0N@NEJHBBKC@ANTIFLAG_GET@ DB 'ANTIFLAG_GET', 00H	; `string'
CONST	ENDS
;	COMDAT ??_C@_0BA@BGJNBKEA@ANTIFLAG_SHAMAN@
CONST	SEGMENT
??_C@_0BA@BGJNBKEA@ANTIFLAG_SHAMAN@ DB 'ANTIFLAG_SHAMAN', 00H ; `string'
CONST	ENDS
;	COMDAT ??_C@_0O@BAJKDBPO@ANTIFLAG_SURA@
CONST	SEGMENT
??_C@_0O@BAJKDBPO@ANTIFLAG_SURA@ DB 'ANTIFLAG_SURA', 00H ; `string'
CONST	ENDS
;	COMDAT ??_C@_0BC@IAJNDFJA@ANTIFLAG_ASSASSIN@
CONST	SEGMENT
??_C@_0BC@IAJNDFJA@ANTIFLAG_ASSASSIN@ DB 'ANTIFLAG_ASSASSIN', 00H ; `string'
CONST	ENDS
;	COMDAT ??_C@_0BB@EMBBJKML@ANTIFLAG_WARRIOR@
CONST	SEGMENT
??_C@_0BB@EMBBJKML@ANTIFLAG_WARRIOR@ DB 'ANTIFLAG_WARRIOR', 00H ; `string'
CONST	ENDS
;	COMDAT ??_C@_0O@GCOFJDKL@ANTIFLAG_MALE@
CONST	SEGMENT
??_C@_0O@GCOFJDKL@ANTIFLAG_MALE@ DB 'ANTIFLAG_MALE', 00H ; `string'
CONST	ENDS
;	COMDAT ??_C@_0BA@PLOPKCNG@ANTIFLAG_FEMALE@
CONST	SEGMENT
??_C@_0BA@PLOPKCNG@ANTIFLAG_FEMALE@ DB 'ANTIFLAG_FEMALE', 00H ; `string'
CONST	ENDS
;	COMDAT ??_C@_0BL@IPKGPKMA@ITEM_FLAG_CONFIRM_WHEN_USE@
CONST	SEGMENT
??_C@_0BL@IPKGPKMA@ITEM_FLAG_CONFIRM_WHEN_USE@ DB 'ITEM_FLAG_CONFIRM_WHEN'
	DB	'_USE', 00H					; `string'
CONST	ENDS
;	COMDAT ??_C@_0BB@PGFIBJHK@ITEM_FLAG_UNIQUE@
CONST	SEGMENT
??_C@_0BB@PGFIBJHK@ITEM_FLAG_UNIQUE@ DB 'ITEM_FLAG_UNIQUE', 00H ; `string'
CONST	ENDS
;	COMDAT ??_C@_0P@POCGDPPH@ITEM_FLAG_RARE@
CONST	SEGMENT
??_C@_0P@POCGDPPH@ITEM_FLAG_RARE@ DB 'ITEM_FLAG_RARE', 00H ; `string'
CONST	ENDS
;	COMDAT ??_C@_0BF@NEEDLCAA@ITEM_ANTIFLAG_MYSHOP@
CONST	SEGMENT
??_C@_0BF@NEEDLCAA@ITEM_ANTIFLAG_MYSHOP@ DB 'ITEM_ANTIFLAG_MYSHOP', 00H ; `string'
CONST	ENDS
;	COMDAT ??_C@_0BE@MAIMKBDM@ITEM_ANTIFLAG_STACK@
CONST	SEGMENT
??_C@_0BE@MAIMKBDM@ITEM_ANTIFLAG_STACK@ DB 'ITEM_ANTIFLAG_STACK', 00H ; `string'
CONST	ENDS
;	COMDAT ??_C@_0BF@HBDABAPH@ITEM_ANTIFLAG_PKDROP@
CONST	SEGMENT
??_C@_0BF@HBDABAPH@ITEM_ANTIFLAG_PKDROP@ DB 'ITEM_ANTIFLAG_PKDROP', 00H ; `string'
CONST	ENDS
;	COMDAT ??_C@_0BD@KPODKFBE@ITEM_ANTIFLAG_GIVE@
CONST	SEGMENT
??_C@_0BD@KPODKFBE@ITEM_ANTIFLAG_GIVE@ DB 'ITEM_ANTIFLAG_GIVE', 00H ; `string'
CONST	ENDS
;	COMDAT ??_C@_0BD@PPDHLMLJ@ITEM_ANTIFLAG_SAVE@
CONST	SEGMENT
??_C@_0BD@PPDHLMLJ@ITEM_ANTIFLAG_SAVE@ DB 'ITEM_ANTIFLAG_SAVE', 00H ; `string'
CONST	ENDS
;	COMDAT ??_C@_0BH@IMCIPANH@ITEM_ANTIFLAG_EMPIRE_R@
CONST	SEGMENT
??_C@_0BH@IMCIPANH@ITEM_ANTIFLAG_EMPIRE_R@ DB 'ITEM_ANTIFLAG_EMPIRE_R', 00H ; `string'
CONST	ENDS
;	COMDAT ??_C@_0BH@MGOKOCIG@ITEM_ANTIFLAG_EMPIRE_B@
CONST	SEGMENT
??_C@_0BH@MGOKOCIG@ITEM_ANTIFLAG_EMPIRE_B@ DB 'ITEM_ANTIFLAG_EMPIRE_B', 00H ; `string'
CONST	ENDS
;	COMDAT ??_C@_0BH@ONMHLBEF@ITEM_ANTIFLAG_EMPIRE_A@
CONST	SEGMENT
??_C@_0BH@ONMHLBEF@ITEM_ANTIFLAG_EMPIRE_A@ DB 'ITEM_ANTIFLAG_EMPIRE_A', 00H ; `string'
CONST	ENDS
;	COMDAT ??_C@_0BD@LACGLGAB@ITEM_ANTIFLAG_SELL@
CONST	SEGMENT
??_C@_0BD@LACGLGAB@ITEM_ANTIFLAG_SELL@ DB 'ITEM_ANTIFLAG_SELL', 00H ; `string'
CONST	ENDS
;	COMDAT ??_C@_0BD@ELBJHBLB@ITEM_ANTIFLAG_DROP@
CONST	SEGMENT
??_C@_0BD@ELBJHBLB@ITEM_ANTIFLAG_DROP@ DB 'ITEM_ANTIFLAG_DROP', 00H ; `string'
CONST	ENDS
;	COMDAT ??_C@_0BC@NECEHGFA@ITEM_ANTIFLAG_GET@
CONST	SEGMENT
??_C@_0BC@NECEHGFA@ITEM_ANTIFLAG_GET@ DB 'ITEM_ANTIFLAG_GET', 00H ; `string'
CONST	ENDS
;	COMDAT ??_C@_0BF@NIAJKCKI@ITEM_ANTIFLAG_SHAMAN@
CONST	SEGMENT
??_C@_0BF@NIAJKCKI@ITEM_ANTIFLAG_SHAMAN@ DB 'ITEM_ANTIFLAG_SHAMAN', 00H ; `string'
CONST	ENDS
;	COMDAT ??_C@_0BD@EDCJBBKJ@ITEM_ANTIFLAG_SURA@
CONST	SEGMENT
??_C@_0BD@EDCJBBKJ@ITEM_ANTIFLAG_SURA@ DB 'ITEM_ANTIFLAG_SURA', 00H ; `string'
CONST	ENDS
;	COMDAT ??_C@_0BH@NDIALJFO@ITEM_ANTIFLAG_ASSASSIN@
CONST	SEGMENT
??_C@_0BH@NDIALJFO@ITEM_ANTIFLAG_ASSASSIN@ DB 'ITEM_ANTIFLAG_ASSASSIN', 00H ; `string'
CONST	ENDS
;	COMDAT ??_C@_0BG@OCAOGEDJ@ITEM_ANTIFLAG_WARRIOR@
CONST	SEGMENT
??_C@_0BG@OCAOGEDJ@ITEM_ANTIFLAG_WARRIOR@ DB 'ITEM_ANTIFLAG_WARRIOR', 00H ; `string'
CONST	ENDS
;	COMDAT ??_C@_0BD@DBFGLDPM@ITEM_ANTIFLAG_MALE@
CONST	SEGMENT
??_C@_0BD@DBFGLDPM@ITEM_ANTIFLAG_MALE@ DB 'ITEM_ANTIFLAG_MALE', 00H ; `string'
CONST	ENDS
;	COMDAT ??_C@_0BF@DFHLBKDO@ITEM_ANTIFLAG_FEMALE@
CONST	SEGMENT
??_C@_0BF@DFHLBKDO@ITEM_ANTIFLAG_FEMALE@ DB 'ITEM_ANTIFLAG_FEMALE', 00H ; `string'
CONST	ENDS
;	COMDAT ??_C@_0O@DPNMMLCK@LIMIT_MAX_NUM@
CONST	SEGMENT
??_C@_0O@DPNMMLCK@LIMIT_MAX_NUM@ DB 'LIMIT_MAX_NUM', 00H ; `string'
CONST	ENDS
;	COMDAT ??_C@_0BD@JIAJEJNL@LIMIT_TYPE_MAX_NUM@
CONST	SEGMENT
??_C@_0BD@JIAJEJNL@LIMIT_TYPE_MAX_NUM@ DB 'LIMIT_TYPE_MAX_NUM', 00H ; `string'
CONST	ENDS
;	COMDAT ??_C@_0BK@DKGMKHOA@LIMIT_TIMER_BASED_ON_WEAR@
CONST	SEGMENT
??_C@_0BK@DKGMKHOA@LIMIT_TIMER_BASED_ON_WEAR@ DB 'LIMIT_TIMER_BASED_ON_WE'
	DB	'AR', 00H					; `string'
CONST	ENDS
;	COMDAT ??_C@_0CA@KECNELOI@LIMIT_REAL_TIME_START_FIRST_USE@
CONST	SEGMENT
??_C@_0CA@KECNELOI@LIMIT_REAL_TIME_START_FIRST_USE@ DB 'LIMIT_REAL_TIME_S'
	DB	'TART_FIRST_USE', 00H			; `string'
CONST	ENDS
;	COMDAT ??_C@_0BA@FCJCAFPM@LIMIT_REAL_TIME@
CONST	SEGMENT
??_C@_0BA@FCJCAFPM@LIMIT_REAL_TIME@ DB 'LIMIT_REAL_TIME', 00H ; `string'
CONST	ENDS
;	COMDAT ??_C@_0N@MIADEJNC@LIMIT_PCBANG@
CONST	SEGMENT
??_C@_0N@MIADEJNC@LIMIT_PCBANG@ DB 'LIMIT_PCBANG', 00H	; `string'
CONST	ENDS
;	COMDAT ??_C@_09DIAIGPDD@LIMIT_CON@
CONST	SEGMENT
??_C@_09DIAIGPDD@LIMIT_CON@ DB 'LIMIT_CON', 00H		; `string'
CONST	ENDS
;	COMDAT ??_C@_09OGFKBPLL@LIMIT_INT@
CONST	SEGMENT
??_C@_09OGFKBPLL@LIMIT_INT@ DB 'LIMIT_INT', 00H		; `string'
CONST	ENDS
;	COMDAT ??_C@_09LENAGHIL@LIMIT_DEX@
CONST	SEGMENT
??_C@_09LENAGHIL@LIMIT_DEX@ DB 'LIMIT_DEX', 00H		; `string'
CONST	ENDS
;	COMDAT ??_C@_09JOBFCJGA@LIMIT_STR@
CONST	SEGMENT
??_C@_09JOBFCJGA@LIMIT_STR@ DB 'LIMIT_STR', 00H		; `string'
CONST	ENDS
;	COMDAT ??_C@_0M@CNLALLNH@LIMIT_LEVEL@
CONST	SEGMENT
??_C@_0M@CNLALLNH@LIMIT_LEVEL@ DB 'LIMIT_LEVEL', 00H	; `string'
CONST	ENDS
;	COMDAT ??_C@_0L@MKHGBGII@LIMIT_NONE@
CONST	SEGMENT
??_C@_0L@MKHGBGII@LIMIT_NONE@ DB 'LIMIT_NONE', 00H	; `string'
CONST	ENDS
;	COMDAT ??_C@_0L@MFIGJJDC@METIN_GOLD@
CONST	SEGMENT
??_C@_0L@MFIGJJDC@METIN_GOLD@ DB 'METIN_GOLD', 00H	; `string'
CONST	ENDS
;	COMDAT ??_C@_0N@HOHHHOFD@METIN_NORMAL@
CONST	SEGMENT
??_C@_0N@HOHHHOFD@METIN_NORMAL@ DB 'METIN_NORMAL', 00H	; `string'
CONST	ENDS
;	COMDAT ??_C@_0BJ@KCHKGND@MATERIAL_DS_REFINE_HOLLY@
CONST	SEGMENT
??_C@_0BJ@KCHKGND@MATERIAL_DS_REFINE_HOLLY@ DB 'MATERIAL_DS_REFINE_HOLLY', 00H ; `string'
CONST	ENDS
;	COMDAT ??_C@_0BL@HNMOOIKG@MATERIAL_DS_REFINE_BLESSED@
CONST	SEGMENT
??_C@_0BL@HNMOOIKG@MATERIAL_DS_REFINE_BLESSED@ DB 'MATERIAL_DS_REFINE_BLE'
	DB	'SSED', 00H					; `string'
CONST	ENDS
;	COMDAT ??_C@_0BK@FFJFCNLF@MATERIAL_DS_REFINE_NORMAL@
CONST	SEGMENT
??_C@_0BK@FFJFCNLF@MATERIAL_DS_REFINE_NORMAL@ DB 'MATERIAL_DS_REFINE_NORM'
	DB	'AL', 00H					; `string'
CONST	ENDS
;	COMDAT ??_C@_0BE@FCIOINBF@USE_TIME_CHARGE_FIX@
CONST	SEGMENT
??_C@_0BE@FCIOINBF@USE_TIME_CHARGE_FIX@ DB 'USE_TIME_CHARGE_FIX', 00H ; `string'
CONST	ENDS
;	COMDAT ??_C@_0BE@NEAJJELI@USE_TIME_CHARGE_PER@
CONST	SEGMENT
??_C@_0BE@NEAJJELI@USE_TIME_CHARGE_PER@ DB 'USE_TIME_CHARGE_PER', 00H ; `string'
CONST	ENDS
;	COMDAT ??_C@_0P@MKAMDACK@USE_DETACHMENT@
CONST	SEGMENT
??_C@_0P@MKAMDACK@USE_DETACHMENT@ DB 'USE_DETACHMENT', 00H ; `string'
CONST	ENDS
;	COMDAT ??_C@_0BB@NCIEFOD@USE_INVISIBILITY@
CONST	SEGMENT
??_C@_0BB@NCIEFOD@USE_INVISIBILITY@ DB 'USE_INVISIBILITY', 00H ; `string'
CONST	ENDS
;	COMDAT ??_C@_09PNKHEPEF@USE_CLEAR@
CONST	SEGMENT
??_C@_09PNKHEPEF@USE_CLEAR@ DB 'USE_CLEAR', 00H		; `string'
CONST	ENDS
;	COMDAT ??_C@_0BD@MMDEHJ@USE_POTION_NODELAY@
CONST	SEGMENT
??_C@_0BD@MMDEHJ@USE_POTION_NODELAY@ DB 'USE_POTION_NODELAY', 00H ; `string'
CONST	ENDS
;	COMDAT ??_C@_0M@GHOELJHH@USE_SPECIAL@
CONST	SEGMENT
??_C@_0M@GHOELJHH@USE_SPECIAL@ DB 'USE_SPECIAL', 00H	; `string'
CONST	ENDS
;	COMDAT ??_C@_0BB@PBBDNJH@USE_CREATE_STONE@
CONST	SEGMENT
??_C@_0BB@PBBDNJH@USE_CREATE_STONE@ DB 'USE_CREATE_STONE', 00H ; `string'
CONST	ENDS
;	COMDAT ??_C@_0L@DLLOJMIP@USE_AFFECT@
CONST	SEGMENT
??_C@_0L@DLLOJMIP@USE_AFFECT@ DB 'USE_AFFECT', 00H	; `string'
CONST	ENDS
;	COMDAT ??_C@_0P@JBLCKFGE@USE_ABILITY_UP@
CONST	SEGMENT
??_C@_0P@JBLCKFGE@USE_ABILITY_UP@ DB 'USE_ABILITY_UP', 00H ; `string'
CONST	ENDS
;	COMDAT ??_C@_08LBHGOBNP@USE_BAIT@
CONST	SEGMENT
??_C@_08LBHGOBNP@USE_BAIT@ DB 'USE_BAIT', 00H		; `string'
CONST	ENDS
;	COMDAT ??_C@_0N@BOHEHPFI@USE_MONEYBAG@
CONST	SEGMENT
??_C@_0N@BOHEHPFI@USE_MONEYBAG@ DB 'USE_MONEYBAG', 00H	; `string'
CONST	ENDS
;	COMDAT ??_C@_0BB@BBPDKOFG@USE_TREASURE_BOX@
CONST	SEGMENT
??_C@_0BB@BBPDKOFG@USE_TREASURE_BOX@ DB 'USE_TREASURE_BOX', 00H ; `string'
CONST	ENDS
;	COMDAT ??_C@_08JHFKMGGA@USE_MOVE@
CONST	SEGMENT
??_C@_08JHFKMGGA@USE_MOVE@ DB 'USE_MOVE', 00H		; `string'
CONST	ENDS
;	COMDAT ??_C@_0L@JIILHJGL@USE_TUNING@
CONST	SEGMENT
??_C@_0L@JIILHJGL@USE_TUNING@ DB 'USE_TUNING', 00H	; `string'
CONST	ENDS
;	COMDAT ??_C@_0N@CINBPLKM@USE_TALISMAN@
CONST	SEGMENT
??_C@_0N@CINBPLKM@USE_TALISMAN@ DB 'USE_TALISMAN', 00H	; `string'
CONST	ENDS
;	COMDAT ??_C@_0L@DENJCCNI@USE_POTION@
CONST	SEGMENT
??_C@_0L@DENJCCNI@USE_POTION@ DB 'USE_POTION', 00H	; `string'
CONST	ENDS
;	COMDAT ??_C@_0BB@KFDFBDPL@WEAPON_NUM_TYPES@
CONST	SEGMENT
??_C@_0BB@KFDFBDPL@WEAPON_NUM_TYPES@ DB 'WEAPON_NUM_TYPES', 00H ; `string'
CONST	ENDS
;	COMDAT ??_C@_0N@DCOAOKB@WEAPON_ARROW@
CONST	SEGMENT
??_C@_0N@DCOAOKB@WEAPON_ARROW@ DB 'WEAPON_ARROW', 00H	; `string'
CONST	ENDS
;	COMDAT ??_C@_0L@LNCOBKNJ@WEAPON_FAN@
CONST	SEGMENT
??_C@_0L@LNCOBKNJ@WEAPON_FAN@ DB 'WEAPON_FAN', 00H	; `string'
CONST	ENDS
;	COMDAT ??_C@_0M@NKBIKBJK@WEAPON_BELL@
CONST	SEGMENT
??_C@_0M@NKBIKBJK@WEAPON_BELL@ DB 'WEAPON_BELL', 00H	; `string'
CONST	ENDS
;	COMDAT ??_C@_0BC@OILJBHHK@WEAPON_TWO_HANDED@
CONST	SEGMENT
??_C@_0BC@OILJBHHK@WEAPON_TWO_HANDED@ DB 'WEAPON_TWO_HANDED', 00H ; `string'
CONST	ENDS
;	COMDAT ??_C@_0L@KDNCAJJM@WEAPON_BOW@
CONST	SEGMENT
??_C@_0L@KDNCAJJM@WEAPON_BOW@ DB 'WEAPON_BOW', 00H	; `string'
CONST	ENDS
;	COMDAT ??_C@_0O@IMDDJKDH@WEAPON_DAGGER@
CONST	SEGMENT
??_C@_0O@IMDDJKDH@WEAPON_DAGGER@ DB 'WEAPON_DAGGER', 00H ; `string'
CONST	ENDS
;	COMDAT ??_C@_0N@FCLCNMLC@WEAPON_SWORD@
CONST	SEGMENT
??_C@_0N@FCLCNMLC@WEAPON_SWORD@ DB 'WEAPON_SWORD', 00H	; `string'
CONST	ENDS
;	COMDAT ??_C@_0BI@GPHFDCEJ@BELT_INVENTORY_SLOT_END@
CONST	SEGMENT
??_C@_0BI@GPHFDCEJ@BELT_INVENTORY_SLOT_END@ DB 'BELT_INVENTORY_SLOT_END', 00H ; `string'
CONST	ENDS
;	COMDAT ??_C@_0BK@EOCDAIHE@BELT_INVENTORY_SLOT_COUNT@
CONST	SEGMENT
??_C@_0BK@EOCDAIHE@BELT_INVENTORY_SLOT_COUNT@ DB 'BELT_INVENTORY_SLOT_COU'
	DB	'NT', 00H					; `string'
CONST	ENDS
;	COMDAT ??_C@_0BK@JAICDGKA@BELT_INVENTORY_SLOT_START@
CONST	SEGMENT
??_C@_0BK@JAICDGKA@BELT_INVENTORY_SLOT_START@ DB 'BELT_INVENTORY_SLOT_STA'
	DB	'RT', 00H					; `string'
CONST	ENDS
;	COMDAT ??_C@_0BB@IEFLAOJF@COSTUME_SLOT_END@
CONST	SEGMENT
??_C@_0BB@IEFLAOJF@COSTUME_SLOT_END@ DB 'COSTUME_SLOT_END', 00H ; `string'
CONST	ENDS
;	COMDAT ??_C@_0BC@KAEHEEKH@COSTUME_SLOT_HAIR@
CONST	SEGMENT
??_C@_0BC@KAEHEEKH@COSTUME_SLOT_HAIR@ DB 'COSTUME_SLOT_HAIR', 00H ; `string'
CONST	ENDS
;	COMDAT ??_C@_0BC@OBAEGBKN@COSTUME_SLOT_BODY@
CONST	SEGMENT
??_C@_0BC@OBAEGBKN@COSTUME_SLOT_BODY@ DB 'COSTUME_SLOT_BODY', 00H ; `string'
CONST	ENDS
;	COMDAT ??_C@_0BD@EMMBBFMO@COSTUME_SLOT_COUNT@
CONST	SEGMENT
??_C@_0BD@EMMBBFMO@COSTUME_SLOT_COUNT@ DB 'COSTUME_SLOT_COUNT', 00H ; `string'
CONST	ENDS
;	COMDAT ??_C@_0BD@JCGACLBK@COSTUME_SLOT_START@
CONST	SEGMENT
??_C@_0BD@JCGACLBK@COSTUME_SLOT_START@ DB 'COSTUME_SLOT_START', 00H ; `string'
CONST	ENDS
;	COMDAT ??_C@_0BC@MAPOOMBN@COSTUME_TYPE_HAIR@
CONST	SEGMENT
??_C@_0BC@MAPOOMBN@COSTUME_TYPE_HAIR@ DB 'COSTUME_TYPE_HAIR', 00H ; `string'
CONST	ENDS
;	COMDAT ??_C@_0BC@IBLNMJBH@COSTUME_TYPE_BODY@
CONST	SEGMENT
??_C@_0BC@IBLNMJBH@COSTUME_TYPE_BODY@ DB 'COSTUME_TYPE_BODY', 00H ; `string'
CONST	ENDS
;	COMDAT ??_C@_0BC@GOFIPFBN@ITEM_TYPE_COSTUME@
CONST	SEGMENT
??_C@_0BC@GOFIPFBN@ITEM_TYPE_COSTUME@ DB 'ITEM_TYPE_COSTUME', 00H ; `string'
CONST	ENDS
;	COMDAT ??_C@_0P@LGEHOEDP@ITEM_TYPE_BELT@
CONST	SEGMENT
??_C@_0P@LGEHOEDP@ITEM_TYPE_BELT@ DB 'ITEM_TYPE_BELT', 00H ; `string'
CONST	ENDS
;	COMDAT ??_C@_0P@POBKFJPJ@ITEM_TYPE_RING@
CONST	SEGMENT
??_C@_0P@POBKFJPJ@ITEM_TYPE_RING@ DB 'ITEM_TYPE_RING', 00H ; `string'
CONST	ENDS
;	COMDAT ??_C@_0BF@GGLFIBNL@ITEM_TYPE_SPECIAL_DS@
CONST	SEGMENT
??_C@_0BF@GGLFIBNL@ITEM_TYPE_SPECIAL_DS@ DB 'ITEM_TYPE_SPECIAL_DS', 00H ; `string'
CONST	ENDS
;	COMDAT ??_C@_0N@BKIJEOLO@ITEM_TYPE_DS@
CONST	SEGMENT
??_C@_0N@BKIJEOLO@ITEM_TYPE_DS@ DB 'ITEM_TYPE_DS', 00H	; `string'
CONST	ENDS
;	COMDAT ??_C@_0BA@EDGMOLIF@ITEM_TYPE_BLEND@
CONST	SEGMENT
??_C@_0BA@EDGMOLIF@ITEM_TYPE_BLEND@ DB 'ITEM_TYPE_BLEND', 00H ; `string'
CONST	ENDS
;	COMDAT ??_C@_0P@CALHNGMG@ITEM_TYPE_PICK@
CONST	SEGMENT
??_C@_0P@CALHNGMG@ITEM_TYPE_PICK@ DB 'ITEM_TYPE_PICK', 00H ; `string'
CONST	ENDS
;	COMDAT ??_C@_0BH@KGMIMAKI@ITEM_TYPE_TREASURE_KEY@
CONST	SEGMENT
??_C@_0BH@KGMIMAKI@ITEM_TYPE_TREASURE_KEY@ DB 'ITEM_TYPE_TREASURE_KEY', 00H ; `string'
CONST	ENDS
;	COMDAT ??_C@_0BH@MPEMDLLF@ITEM_TYPE_TREASURE_BOX@
CONST	SEGMENT
??_C@_0BH@MPEMDLLF@ITEM_TYPE_TREASURE_BOX@ DB 'ITEM_TYPE_TREASURE_BOX', 00H ; `string'
CONST	ENDS
;	COMDAT ??_C@_0BE@DGPJCLHG@ITEM_TYPE_POLYMORPH@
CONST	SEGMENT
??_C@_0BE@DGPJCLHG@ITEM_TYPE_POLYMORPH@ DB 'ITEM_TYPE_POLYMORPH', 00H ; `string'
CONST	ENDS
;	COMDAT ??_C@_0BA@PFOCEMDB@ITEM_TYPE_QUEST@
CONST	SEGMENT
??_C@_0BA@PFOCEMDB@ITEM_TYPE_QUEST@ DB 'ITEM_TYPE_QUEST', 00H ; `string'
CONST	ENDS
;	COMDAT ??_C@_0BE@FAMMFDKM@ITEM_TYPE_SKILLBOOK@
CONST	SEGMENT
??_C@_0BE@FAMMFDKM@ITEM_TYPE_SKILLBOOK@ DB 'ITEM_TYPE_SKILLBOOK', 00H ; `string'
CONST	ENDS
;	COMDAT ??_C@_0BB@CPEAMAMA@ITEM_TYPE_UNIQUE@
CONST	SEGMENT
??_C@_0BB@CPEAMAMA@ITEM_TYPE_UNIQUE@ DB 'ITEM_TYPE_UNIQUE', 00H ; `string'
CONST	ENDS
;	COMDAT ??_C@_0BD@OGNHPHCL@ITEM_TYPE_CAMPFIRE@
CONST	SEGMENT
??_C@_0BD@OGNHPHCL@ITEM_TYPE_CAMPFIRE@ DB 'ITEM_TYPE_CAMPFIRE', 00H ; `string'
CONST	ENDS
;	COMDAT ??_C@_0BD@KBPLAMLF@ITEM_TYPE_RESOURCE@
CONST	SEGMENT
??_C@_0BD@KBPLAMLF@ITEM_TYPE_RESOURCE@ DB 'ITEM_TYPE_RESOURCE', 00H ; `string'
CONST	ENDS
;	COMDAT ??_C@_0O@NIJIMPJD@ITEM_TYPE_ROD@
CONST	SEGMENT
??_C@_0O@NIJIMPJD@ITEM_TYPE_ROD@ DB 'ITEM_TYPE_ROD', 00H ; `string'
CONST	ENDS
;	COMDAT ??_C@_0P@PIBMEEFH@ITEM_TYPE_FISH@
CONST	SEGMENT
??_C@_0P@PIBMEEFH@ITEM_TYPE_FISH@ DB 'ITEM_TYPE_FISH', 00H ; `string'
CONST	ENDS
;	COMDAT ??_C@_0BE@JBBPDBJM@ITEM_TYPE_CONTAINER@
CONST	SEGMENT
??_C@_0BE@JBBPDBJM@ITEM_TYPE_CONTAINER@ DB 'ITEM_TYPE_CONTAINER', 00H ; `string'
CONST	ENDS
;	COMDAT ??_C@_0BA@KICPPFNE@ITEM_TYPE_METIN@
CONST	SEGMENT
??_C@_0BA@KICPPFNE@ITEM_TYPE_METIN@ DB 'ITEM_TYPE_METIN', 00H ; `string'
CONST	ENDS
;	COMDAT ??_C@_0O@JAIIACCD@ITEM_TYPE_ELK@
CONST	SEGMENT
??_C@_0O@JAIIACCD@ITEM_TYPE_ELK@ DB 'ITEM_TYPE_ELK', 00H ; `string'
CONST	ENDS
;	COMDAT ??_C@_0BC@LGJDJIG@ITEM_TYPE_LOTTERY@
CONST	SEGMENT
??_C@_0BC@LGJDJIG@ITEM_TYPE_LOTTERY@ DB 'ITEM_TYPE_LOTTERY', 00H ; `string'
CONST	ENDS
;	COMDAT ??_C@_0P@LGAHEAHJ@ITEM_TYPE_TOOL@
CONST	SEGMENT
??_C@_0P@LGAHEAHJ@ITEM_TYPE_TOOL@ DB 'ITEM_TYPE_TOOL', 00H ; `string'
CONST	ENDS
;	COMDAT ??_C@_0BC@EGCNCIAP@ITEM_TYPE_SPECIAL@
CONST	SEGMENT
??_C@_0BC@EGCNCIAP@ITEM_TYPE_SPECIAL@ DB 'ITEM_TYPE_SPECIAL', 00H ; `string'
CONST	ENDS
;	COMDAT ??_C@_0BD@NFIKPBKO@ITEM_TYPE_MATERIAL@
CONST	SEGMENT
??_C@_0BD@NFIKPBKO@ITEM_TYPE_MATERIAL@ DB 'ITEM_TYPE_MATERIAL', 00H ; `string'
CONST	ENDS
;	COMDAT ??_C@_0BC@PDFOCJLB@ITEM_TYPE_AUTOUSE@
CONST	SEGMENT
??_C@_0BC@PDFOCJLB@ITEM_TYPE_AUTOUSE@ DB 'ITEM_TYPE_AUTOUSE', 00H ; `string'
CONST	ENDS
;	COMDAT ??_C@_0O@EJGIJMHP@ITEM_TYPE_USE@
CONST	SEGMENT
??_C@_0O@EJGIJMHP@ITEM_TYPE_USE@ DB 'ITEM_TYPE_USE', 00H ; `string'
CONST	ENDS
;	COMDAT ??_C@_0BA@MCMGEHMH@ITEM_TYPE_ARMOR@
CONST	SEGMENT
??_C@_0BA@MCMGEHMH@ITEM_TYPE_ARMOR@ DB 'ITEM_TYPE_ARMOR', 00H ; `string'
CONST	ENDS
;	COMDAT ??_C@_0BB@KIJBPCOD@ITEM_TYPE_WEAPON@
CONST	SEGMENT
??_C@_0BB@KIJBPCOD@ITEM_TYPE_WEAPON@ DB 'ITEM_TYPE_WEAPON', 00H ; `string'
CONST	ENDS
;	COMDAT ??_C@_0P@EMFHBOCE@ITEM_TYPE_NONE@
CONST	SEGMENT
??_C@_0P@EMFHBOCE@ITEM_TYPE_NONE@ DB 'ITEM_TYPE_NONE', 00H ; `string'
CONST	ENDS
;	COMDAT ??_C@_0P@GKDPOFPB@EQUIPMENT_BELT@
CONST	SEGMENT
??_C@_0P@GKDPOFPB@EQUIPMENT_BELT@ DB 'EQUIPMENT_BELT', 00H ; `string'
CONST	ENDS
;	COMDAT ??_C@_0BA@FFOPJDCG@EQUIPMENT_RING2@
CONST	SEGMENT
??_C@_0BA@FFOPJDCG@EQUIPMENT_RING2@ DB 'EQUIPMENT_RING2', 00H ; `string'
CONST	ENDS
;	COMDAT ??_C@_0BA@HOMCMAOF@EQUIPMENT_RING1@
CONST	SEGMENT
??_C@_0BA@HOMCMAOF@EQUIPMENT_RING1@ DB 'EQUIPMENT_RING1', 00H ; `string'
CONST	ENDS
;	COMDAT ??_C@_0BA@MLMLGDPN@EQUIPMENT_ARROW@
CONST	SEGMENT
??_C@_0BA@MLMLGDPN@EQUIPMENT_ARROW@ DB 'EQUIPMENT_ARROW', 00H ; `string'
CONST	ENDS
;	COMDAT ??_C@_0BC@KKMPKFNI@EQUIPMENT_UNIQUE2@
CONST	SEGMENT
??_C@_0BC@KKMPKFNI@EQUIPMENT_UNIQUE2@ DB 'EQUIPMENT_UNIQUE2', 00H ; `string'
CONST	ENDS
;	COMDAT ??_C@_0BC@IBOCPGBL@EQUIPMENT_UNIQUE1@
CONST	SEGMENT
??_C@_0BC@IBOCPGBL@EQUIPMENT_UNIQUE1@ DB 'EQUIPMENT_UNIQUE1', 00H ; `string'
CONST	ENDS
;	COMDAT ??_C@_0O@KNFMDJEG@EQUIPMENT_EAR@
CONST	SEGMENT
??_C@_0O@KNFMDJEG@EQUIPMENT_EAR@ DB 'EQUIPMENT_EAR', 00H ; `string'
CONST	ENDS
;	COMDAT ??_C@_0P@GJMJEBFD@EQUIPMENT_NECK@
CONST	SEGMENT
??_C@_0P@GJMJEBFD@EQUIPMENT_NECK@ DB 'EQUIPMENT_NECK', 00H ; `string'
CONST	ENDS
;	COMDAT ??_C@_0BA@GEANIANO@EQUIPMENT_SHOES@
CONST	SEGMENT
??_C@_0BA@GEANIANO@EQUIPMENT_SHOES@ DB 'EQUIPMENT_SHOES', 00H ; `string'
CONST	ENDS
;	COMDAT ??_C@_0BA@KHENFLDC@EQUIPMENT_WRIST@
CONST	SEGMENT
??_C@_0BA@KHENFLDC@EQUIPMENT_WRIST@ DB 'EQUIPMENT_WRIST', 00H ; `string'
CONST	ENDS
;	COMDAT ??_C@_0BB@IKOPOEMN@EQUIPMENT_WEAPON@
CONST	SEGMENT
??_C@_0BB@IKOPOEMN@EQUIPMENT_WEAPON@ DB 'EQUIPMENT_WEAPON', 00H ; `string'
CONST	ENDS
;	COMDAT ??_C@_0P@LODPCKGA@EQUIPMENT_BODY@
CONST	SEGMENT
??_C@_0P@LODPCKGA@EQUIPMENT_BODY@ DB 'EQUIPMENT_BODY', 00H ; `string'
CONST	ENDS
;	COMDAT ??_C@_0P@GCJFHMFC@EQUIPMENT_HEAD@
CONST	SEGMENT
??_C@_0P@GCJFHMFC@EQUIPMENT_HEAD@ DB 'EQUIPMENT_HEAD', 00H ; `string'
CONST	ENDS
;	COMDAT ??_C@_0BA@KJELJAII@EQUIPMENT_COUNT@
CONST	SEGMENT
??_C@_0BA@KJELJAII@EQUIPMENT_COUNT@ DB 'EQUIPMENT_COUNT', 00H ; `string'
CONST	ENDS
;	COMDAT ??_C@_0BB@JMMPMOOC@DROPSOUND_WEAPON@
CONST	SEGMENT
??_C@_0BB@JMMPMOOC@DROPSOUND_WEAPON@ DB 'DROPSOUND_WEAPON', 00H ; `string'
CONST	ENDS
;	COMDAT ??_C@_0BC@BONOAPBN@DROPSOUND_DEFAULT@
CONST	SEGMENT
??_C@_0BC@BONOAPBN@DROPSOUND_DEFAULT@ DB 'DROPSOUND_DEFAULT', 00H ; `string'
CONST	ENDS
;	COMDAT ??_C@_0O@OOJPAKOO@DROPSOUND_BOW@
CONST	SEGMENT
??_C@_0O@OOJPAKOO@DROPSOUND_BOW@ DB 'DROPSOUND_BOW', 00H ; `string'
CONST	ENDS
;	COMDAT ??_C@_0BA@PCCDLKKO@DROPSOUND_ARMOR@
CONST	SEGMENT
??_C@_0BA@PCCDLKKO@DROPSOUND_ARMOR@ DB 'DROPSOUND_ARMOR', 00H ; `string'
CONST	ENDS
;	COMDAT ??_C@_0BE@PBPPNIPJ@DROPSOUND_ACCESSORY@
CONST	SEGMENT
??_C@_0BE@PBPPNIPJ@DROPSOUND_ACCESSORY@ DB 'DROPSOUND_ACCESSORY', 00H ; `string'
CONST	ENDS
;	COMDAT ??_C@_0BA@HNBMICIL@USESOUND_PORTAL@
CONST	SEGMENT
??_C@_0BA@HNBMICIL@USESOUND_PORTAL@ DB 'USESOUND_PORTAL', 00H ; `string'
CONST	ENDS
;	COMDAT ??_C@_0BA@GIIHLHOB@USESOUND_POTION@
CONST	SEGMENT
??_C@_0BA@GIIHLHOB@USESOUND_POTION@ DB 'USESOUND_POTION', 00H ; `string'
CONST	ENDS
;	COMDAT ??_C@_0BA@IJKKKKOO@USESOUND_WEAPON@
CONST	SEGMENT
??_C@_0BA@IJKKKKOO@USESOUND_WEAPON@ DB 'USESOUND_WEAPON', 00H ; `string'
CONST	ENDS
;	COMDAT ??_C@_0BB@BHHNCGFC@USESOUND_DEFAULT@
CONST	SEGMENT
??_C@_0BB@BHHNCGFC@USESOUND_DEFAULT@ DB 'USESOUND_DEFAULT', 00H ; `string'
CONST	ENDS
;	COMDAT ??_C@_0N@MDIFIDON@USESOUND_BOW@
CONST	SEGMENT
??_C@_0N@MDIFIDON@USESOUND_BOW@ DB 'USESOUND_BOW', 00H	; `string'
CONST	ENDS
;	COMDAT ??_C@_0P@ENGKPPPD@USESOUND_ARMOR@
CONST	SEGMENT
??_C@_0P@ENGKPPPD@USESOUND_ARMOR@ DB 'USESOUND_ARMOR', 00H ; `string'
CONST	ENDS
;	COMDAT ??_C@_0BD@MEKMBKPM@USESOUND_ACCESSORY@
CONST	SEGMENT
??_C@_0BD@MEKMBKPM@USESOUND_ACCESSORY@ DB 'USESOUND_ACCESSORY', 00H ; `string'
CONST	ENDS
;	COMDAT ??_C@_04NHONDGDE@item@
CONST	SEGMENT
??_C@_04NHONDGDE@item@ DB 'item', 00H			; `string'
CONST	ENDS
;	COMDAT ??_C@_0O@HJNOJBCJ@LoadItemTable@
CONST	SEGMENT
??_C@_0O@HJNOJBCJ@LoadItemTable@ DB 'LoadItemTable', 00H ; `string'
CONST	ENDS
;	COMDAT ??_C@_04ILHILILF@Pick@
CONST	SEGMENT
??_C@_04ILHILILF@Pick@ DB 'Pick', 00H			; `string'
CONST	ENDS
;	COMDAT ??_C@_0L@IIJEEMCG@DeleteItem@
CONST	SEGMENT
??_C@_0L@IIJEEMCG@DeleteItem@ DB 'DeleteItem', 00H	; `string'
CONST	ENDS
;	COMDAT ??_C@_0L@EMDEHLJF@CreateItem@
CONST	SEGMENT
??_C@_0L@EMDEHLJF@CreateItem@ DB 'CreateItem', 00H	; `string'
CONST	ENDS
;	COMDAT ??_C@_06EPLDPNDB@Render@
CONST	SEGMENT
??_C@_06EPLDPNDB@Render@ DB 'Render', 00H		; `string'
CONST	ENDS
;	COMDAT ??_C@_06LMAGPFNF@Update@
CONST	SEGMENT
??_C@_06LMAGPFNF@Update@ DB 'Update', 00H		; `string'
CONST	ENDS
;	COMDAT ??_C@_0BG@FEGHIHDK@CanAddToQuickSlotItem@
CONST	SEGMENT
??_C@_0BG@FEGHIHDK@CanAddToQuickSlotItem@ DB 'CanAddToQuickSlotItem', 00H ; `string'
CONST	ENDS
;	COMDAT ??_C@_07MLLOFDCE@IsMetin@
CONST	SEGMENT
??_C@_07MLLOFDCE@IsMetin@ DB 'IsMetin', 00H		; `string'
CONST	ENDS
;	COMDAT ??_C@_05CEOMILKP@IsKey@
CONST	SEGMENT
??_C@_05CEOMILKP@IsKey@ DB 'IsKey', 00H			; `string'
CONST	ENDS
;	COMDAT ??_C@_0P@CNNPGCCK@IsDetachScroll@
CONST	SEGMENT
??_C@_0P@CNNPGCCK@IsDetachScroll@ DB 'IsDetachScroll', 00H ; `string'
CONST	ENDS
;	COMDAT ??_C@_0P@LGDKNEFF@IsRefineScroll@
CONST	SEGMENT
??_C@_0P@LGDKNEFF@IsRefineScroll@ DB 'IsRefineScroll', 00H ; `string'
CONST	ENDS
;	COMDAT ??_C@_0P@OGDGGJFE@IsEquipmentVID@
CONST	SEGMENT
??_C@_0P@OGDGGJFE@IsEquipmentVID@ DB 'IsEquipmentVID', 00H ; `string'
CONST	ENDS
;	COMDAT ??_C@_0BD@BNBIIKMM@DeleteIconInstance@
CONST	SEGMENT
??_C@_0BD@BNBIIKMM@DeleteIconInstance@ DB 'DeleteIconInstance', 00H ; `string'
CONST	ENDS
;	COMDAT ??_C@_0L@POCKMHMA@GetUseType@
CONST	SEGMENT
??_C@_0L@POCKMHMA@GetUseType@ DB 'GetUseType', 00H	; `string'
CONST	ENDS
;	COMDAT ??_C@_0BA@PMLMLIHH@GetIconInstance@
CONST	SEGMENT
??_C@_0BA@PMLMLIHH@GetIconInstance@ DB 'GetIconInstance', 00H ; `string'
CONST	ENDS
;	COMDAT ??_C@_09ICJIFGNC@GetSocket@
CONST	SEGMENT
??_C@_09ICJIFGNC@GetSocket@ DB 'GetSocket', 00H		; `string'
CONST	ENDS
;	COMDAT ??_C@_08GGOMBHIN@GetValue@
CONST	SEGMENT
??_C@_08GGOMBHIN@GetValue@ DB 'GetValue', 00H		; `string'
CONST	ENDS
;	COMDAT ??_C@_09HJGEAOAM@GetAffect@
CONST	SEGMENT
??_C@_09HJGEAOAM@GetAffect@ DB 'GetAffect', 00H		; `string'
CONST	ENDS
;	COMDAT ??_C@_08KIIGDNA@GetLimit@
CONST	SEGMENT
??_C@_08KIIGDNA@GetLimit@ DB 'GetLimit', 00H		; `string'
CONST	ENDS
;	COMDAT ??_C@_0M@IKKLMPND@Is1GoldItem@
CONST	SEGMENT
??_C@_0M@IKKLMPND@Is1GoldItem@ DB 'Is1GoldItem', 00H	; `string'
CONST	ENDS
;	COMDAT ??_C@_0P@KNFGADIE@IsWearableFlag@
CONST	SEGMENT
??_C@_0P@KNFGADIE@IsWearableFlag@ DB 'IsWearableFlag', 00H ; `string'
CONST	ENDS
;	COMDAT ??_C@_06PLFMNGGB@IsFlag@
CONST	SEGMENT
??_C@_06PLFMNGGB@IsFlag@ DB 'IsFlag', 00H		; `string'
CONST	ENDS
;	COMDAT ??_C@_0L@NKLNOBKA@IsAntiFlag@
CONST	SEGMENT
??_C@_0L@NKLNOBKA@IsAntiFlag@ DB 'IsAntiFlag', 00H	; `string'
CONST	ENDS
;	COMDAT ??_C@_0BC@OKNBBEMG@GetISellItemPrice@
CONST	SEGMENT
??_C@_0BC@OKNBBEMG@GetISellItemPrice@ DB 'GetISellItemPrice', 00H ; `string'
CONST	ENDS
;	COMDAT ??_C@_0BB@KJGHJKGD@GetIBuyItemPrice@
CONST	SEGMENT
??_C@_0BB@KJGHJKGD@GetIBuyItemPrice@ DB 'GetIBuyItemPrice', 00H ; `string'
CONST	ENDS
;	COMDAT ??_C@_0P@MFCMKOKJ@GetItemSubType@
CONST	SEGMENT
??_C@_0P@MFCMKOKJ@GetItemSubType@ DB 'GetItemSubType', 00H ; `string'
CONST	ENDS
;	COMDAT ??_C@_0M@LOOAFMCI@GetItemType@
CONST	SEGMENT
??_C@_0M@LOOAFMCI@GetItemType@ DB 'GetItemType', 00H	; `string'
CONST	ENDS
;	COMDAT ??_C@_0M@FBEOFCHB@GetItemSize@
CONST	SEGMENT
??_C@_0M@FBEOFCHB@GetItemSize@ DB 'GetItemSize', 00H	; `string'
CONST	ENDS
;	COMDAT ??_C@_0BF@NNPLLIOE@GetIconImageFileName@
CONST	SEGMENT
??_C@_0BF@NNPLLIOE@GetIconImageFileName@ DB 'GetIconImageFileName', 00H ; `string'
CONST	ENDS
;	COMDAT ??_C@_0N@IEABDKDK@GetIconImage@
CONST	SEGMENT
??_C@_0N@IEABDKDK@GetIconImage@ DB 'GetIconImage', 00H	; `string'
CONST	ENDS
;	COMDAT ??_C@_0P@OIBFDAMI@GetItemSummary@
CONST	SEGMENT
??_C@_0P@OIBFDAMI@GetItemSummary@ DB 'GetItemSummary', 00H ; `string'
CONST	ENDS
;	COMDAT ??_C@_0BD@GLEOJONA@GetItemDescription@
CONST	SEGMENT
??_C@_0BD@GLEOJONA@GetItemDescription@ DB 'GetItemDescription', 00H ; `string'
CONST	ENDS
;	COMDAT ??_C@_0M@BFODJMFI@GetItemName@
CONST	SEGMENT
??_C@_0M@BFODJMFI@GetItemName@ DB 'GetItemName', 00H	; `string'
CONST	ENDS
;	COMDAT ??_C@_0L@GFKKOOBA@SelectItem@
CONST	SEGMENT
??_C@_0L@GFKKOOBA@SelectItem@ DB 'SelectItem', 00H	; `string'
CONST	ENDS
;	COMDAT ??_C@_0BF@BODGENI@SetDropSoundFileName@
CONST	SEGMENT
??_C@_0BF@BODGENI@SetDropSoundFileName@ DB 'SetDropSoundFileName', 00H ; `string'
CONST	ENDS
;	COMDAT ??_C@_0BE@HKKEFMIC@SetUseSoundFileName@
CONST	SEGMENT
??_C@_0BE@HKKEFMIC@SetUseSoundFileName@ DB 'SetUseSoundFileName', 00H ; `string'
CONST	ENDS
;	COMDAT ?s_methods@?1??initItem@@YAXXZ@4PAUPyMethodDef@@A
_DATA	SEGMENT
?s_methods@?1??initItem@@YAXXZ@4PAUPyMethodDef@@A DD FLAT:??_C@_0BE@HKKEFMIC@SetUseSoundFileName@ ; `initItem'::`2'::s_methods
	DD	FLAT:?itemSetUseSoundFileName@@YAPAU_object@@PAU1@0@Z
	DD	01H
	ORG $+4
	DD	FLAT:??_C@_0BF@BODGENI@SetDropSoundFileName@
	DD	FLAT:?itemSetDropSoundFileName@@YAPAU_object@@PAU1@0@Z
	DD	01H
	ORG $+4
	DD	FLAT:??_C@_0L@GFKKOOBA@SelectItem@
	DD	FLAT:?itemSelectItem@@YAPAU_object@@PAU1@0@Z
	DD	01H
	ORG $+4
	DD	FLAT:??_C@_0M@BFODJMFI@GetItemName@
	DD	FLAT:?itemGetItemName@@YAPAU_object@@PAU1@0@Z
	DD	01H
	ORG $+4
	DD	FLAT:??_C@_0BD@GLEOJONA@GetItemDescription@
	DD	FLAT:?itemGetItemDescription@@YAPAU_object@@PAU1@0@Z
	DD	01H
	ORG $+4
	DD	FLAT:??_C@_0P@OIBFDAMI@GetItemSummary@
	DD	FLAT:?itemGetItemSummary@@YAPAU_object@@PAU1@0@Z
	DD	01H
	ORG $+4
	DD	FLAT:??_C@_0N@IEABDKDK@GetIconImage@
	DD	FLAT:?itemGetIconImage@@YAPAU_object@@PAU1@0@Z
	DD	01H
	ORG $+4
	DD	FLAT:??_C@_0BF@NNPLLIOE@GetIconImageFileName@
	DD	FLAT:?itemGetIconImageFileName@@YAPAU_object@@PAU1@0@Z
	DD	01H
	ORG $+4
	DD	FLAT:??_C@_0M@FBEOFCHB@GetItemSize@
	DD	FLAT:?itemGetItemSize@@YAPAU_object@@PAU1@0@Z
	DD	01H
	ORG $+4
	DD	FLAT:??_C@_0M@LOOAFMCI@GetItemType@
	DD	FLAT:?itemGetItemType@@YAPAU_object@@PAU1@0@Z
	DD	01H
	ORG $+4
	DD	FLAT:??_C@_0P@MFCMKOKJ@GetItemSubType@
	DD	FLAT:?itemGetItemSubType@@YAPAU_object@@PAU1@0@Z
	DD	01H
	ORG $+4
	DD	FLAT:??_C@_0BB@KJGHJKGD@GetIBuyItemPrice@
	DD	FLAT:?itemGetIBuyItemPrice@@YAPAU_object@@PAU1@0@Z
	DD	01H
	ORG $+4
	DD	FLAT:??_C@_0BC@OKNBBEMG@GetISellItemPrice@
	DD	FLAT:?itemGetISellItemPrice@@YAPAU_object@@PAU1@0@Z
	DD	01H
	ORG $+4
	DD	FLAT:??_C@_0L@NKLNOBKA@IsAntiFlag@
	DD	FLAT:?itemIsAntiFlag@@YAPAU_object@@PAU1@0@Z
	DD	01H
	ORG $+4
	DD	FLAT:??_C@_06PLFMNGGB@IsFlag@
	DD	FLAT:?itemIsFlag@@YAPAU_object@@PAU1@0@Z
	DD	01H
	ORG $+4
	DD	FLAT:??_C@_0P@KNFGADIE@IsWearableFlag@
	DD	FLAT:?itemIsWearableFlag@@YAPAU_object@@PAU1@0@Z
	DD	01H
	ORG $+4
	DD	FLAT:??_C@_0M@IKKLMPND@Is1GoldItem@
	DD	FLAT:?itemIs1GoldItem@@YAPAU_object@@PAU1@0@Z
	DD	01H
	ORG $+4
	DD	FLAT:??_C@_08KIIGDNA@GetLimit@
	DD	FLAT:?itemGetLimit@@YAPAU_object@@PAU1@0@Z
	DD	01H
	ORG $+4
	DD	FLAT:??_C@_09HJGEAOAM@GetAffect@
	DD	FLAT:?itemGetAffect@@YAPAU_object@@PAU1@0@Z
	DD	01H
	ORG $+4
	DD	FLAT:??_C@_08GGOMBHIN@GetValue@
	DD	FLAT:?itemGetValue@@YAPAU_object@@PAU1@0@Z
	DD	01H
	ORG $+4
	DD	FLAT:??_C@_09ICJIFGNC@GetSocket@
	DD	FLAT:?itemGetSocket@@YAPAU_object@@PAU1@0@Z
	DD	01H
	ORG $+4
	DD	FLAT:??_C@_0BA@PMLMLIHH@GetIconInstance@
	DD	FLAT:?itemGetIconInstance@@YAPAU_object@@PAU1@0@Z
	DD	01H
	ORG $+4
	DD	FLAT:??_C@_0L@POCKMHMA@GetUseType@
	DD	FLAT:?itemGetUseType@@YAPAU_object@@PAU1@0@Z
	DD	01H
	ORG $+4
	DD	FLAT:??_C@_0BD@BNBIIKMM@DeleteIconInstance@
	DD	FLAT:?itemDeleteIconInstance@@YAPAU_object@@PAU1@0@Z
	DD	01H
	ORG $+4
	DD	FLAT:??_C@_0P@OGDGGJFE@IsEquipmentVID@
	DD	FLAT:?itemIsEquipmentVID@@YAPAU_object@@PAU1@0@Z
	DD	01H
	ORG $+4
	DD	FLAT:??_C@_0P@LGDKNEFF@IsRefineScroll@
	DD	FLAT:?itemIsRefineScroll@@YAPAU_object@@PAU1@0@Z
	DD	01H
	ORG $+4
	DD	FLAT:??_C@_0P@CNNPGCCK@IsDetachScroll@
	DD	FLAT:?itemIsDetachScroll@@YAPAU_object@@PAU1@0@Z
	DD	01H
	ORG $+4
	DD	FLAT:??_C@_05CEOMILKP@IsKey@
	DD	FLAT:?itemIsKey@@YAPAU_object@@PAU1@0@Z
	DD	01H
	ORG $+4
	DD	FLAT:??_C@_07MLLOFDCE@IsMetin@
	DD	FLAT:?itemIsMetin@@YAPAU_object@@PAU1@0@Z
	DD	01H
	ORG $+4
	DD	FLAT:??_C@_0BG@FEGHIHDK@CanAddToQuickSlotItem@
	DD	FLAT:?itemCanAddToQuickSlotItem@@YAPAU_object@@PAU1@0@Z
	DD	01H
	ORG $+4
	DD	FLAT:??_C@_06LMAGPFNF@Update@
	DD	FLAT:?itemUpdate@@YAPAU_object@@PAU1@0@Z
	DD	01H
	ORG $+4
	DD	FLAT:??_C@_06EPLDPNDB@Render@
	DD	FLAT:?itemRender@@YAPAU_object@@PAU1@0@Z
	DD	01H
	ORG $+4
	DD	FLAT:??_C@_0L@EMDEHLJF@CreateItem@
	DD	FLAT:?itemCreateItem@@YAPAU_object@@PAU1@0@Z
	DD	01H
	ORG $+4
	DD	FLAT:??_C@_0L@IIJEEMCG@DeleteItem@
	DD	FLAT:?itemDeleteItem@@YAPAU_object@@PAU1@0@Z
	DD	01H
	ORG $+4
	DD	FLAT:??_C@_04ILHILILF@Pick@
	DD	FLAT:?itemPick@@YAPAU_object@@PAU1@0@Z
	DD	01H
	ORG $+4
	DD	FLAT:??_C@_0O@HJNOJBCJ@LoadItemTable@
	DD	FLAT:?itemLoadItemTable@@YAPAU_object@@PAU1@0@Z
	DD	01H
	ORG $+4
	DD	00H
	DD	00H
	DD	00H
	ORG $+4
_DATA	ENDS
;	COMDAT ??_C@_0BM@KPLEGEEH@Can?8t?5find?5select?5item?5data@
CONST	SEGMENT
??_C@_0BM@KPLEGEEH@Can?8t?5find?5select?5item?5data@ DB 'Can''t find sele'
	DB	'ct item data', 00H				; `string'
CONST	ENDS
;	COMDAT ??_C@_0BM@MLEHJLDK@Cannot?5get?5icon?5image?5by?5?$CFd@
CONST	SEGMENT
??_C@_0BM@MLEHJLDK@Cannot?5get?5icon?5image?5by?5?$CFd@ DB 'Cannot get ic'
	DB	'on image by %d', 00H			; `string'
CONST	ENDS
;	COMDAT ??_C@_02PDIHAGKM@ii@
CONST	SEGMENT
??_C@_02PDIHAGKM@ii@ DB 'ii', 00H			; `string'
CONST	ENDS
;	COMDAT ??_C@_0BJ@FJOAFFCG@Not?5yet?5select?5item?5data@
CONST	SEGMENT
??_C@_0BJ@FJOAFFCG@Not?5yet?5select?5item?5data@ DB 'Not yet select item '
	DB	'data', 00H					; `string'
CONST	ENDS
;	COMDAT ??_C@_04INACLLOK@?$CIii?$CJ@
CONST	SEGMENT
??_C@_04INACLLOK@?$CIii?$CJ@ DB '(ii)', 00H		; `string'
CONST	ENDS
;	COMDAT ??_C@_06HCBIANPB@Noname@
CONST	SEGMENT
??_C@_06HCBIANPB@Noname@ DB 'Noname', 00H		; `string'
CONST	ENDS
;	COMDAT ??_C@_01KBJDNOO@i@
CONST	SEGMENT
??_C@_01KBJDNOO@i@ DB 'i', 00H				; `string'
CONST	ENDS
;	COMDAT ??_C@_01LKDEMHDF@s@
CONST	SEGMENT
??_C@_01LKDEMHDF@s@ DB 's', 00H				; `string'
CONST	ENDS
;	COMDAT ??_C@_0BG@LNOAJHHG@no?5selected?5item?5data@
CONST	SEGMENT
??_C@_0BG@LNOAJHHG@no?5selected?5item?5data@ DB 'no selected item data', 00H ; `string'
CONST	ENDS
;	COMDAT ??_C@_0BH@EOAFOHJK@Cannot?5find?5item?5by?5?$CFd@
CONST	SEGMENT
??_C@_0BH@EOAFOHJK@Cannot?5find?5item?5by?5?$CFd@ DB 'Cannot find item by'
	DB	' %d', 00H					; `string'
CONST	ENDS
;	COMDAT ??_R1A@?0A@EA@bad_array_new_length@std@@8
rdata$r	SEGMENT
??_R1A@?0A@EA@bad_array_new_length@std@@8 DD FLAT:??_R0?AVbad_array_new_length@std@@@8 ; std::bad_array_new_length::`RTTI Base Class Descriptor at (0,-1,0,64)'
	DD	02H
	DD	00H
	DD	0ffffffffH
	DD	00H
	DD	040H
	DD	FLAT:??_R3bad_array_new_length@std@@8
rdata$r	ENDS
;	COMDAT ??_R2bad_array_new_length@std@@8
rdata$r	SEGMENT
??_R2bad_array_new_length@std@@8 DD FLAT:??_R1A@?0A@EA@bad_array_new_length@std@@8 ; std::bad_array_new_length::`RTTI Base Class Array'
	DD	FLAT:??_R1A@?0A@EA@bad_alloc@std@@8
	DD	FLAT:??_R1A@?0A@EA@exception@std@@8
rdata$r	ENDS
;	COMDAT ??_R3bad_array_new_length@std@@8
rdata$r	SEGMENT
??_R3bad_array_new_length@std@@8 DD 00H			; std::bad_array_new_length::`RTTI Class Hierarchy Descriptor'
	DD	00H
	DD	03H
	DD	FLAT:??_R2bad_array_new_length@std@@8
rdata$r	ENDS
;	COMDAT ??_R4bad_array_new_length@std@@6B@
rdata$r	SEGMENT
??_R4bad_array_new_length@std@@6B@ DD 00H		; std::bad_array_new_length::`RTTI Complete Object Locator'
	DD	00H
	DD	00H
	DD	FLAT:??_R0?AVbad_array_new_length@std@@@8
	DD	FLAT:??_R3bad_array_new_length@std@@8
rdata$r	ENDS
;	COMDAT ??_R1A@?0A@EA@bad_alloc@std@@8
rdata$r	SEGMENT
??_R1A@?0A@EA@bad_alloc@std@@8 DD FLAT:??_R0?AVbad_alloc@std@@@8 ; std::bad_alloc::`RTTI Base Class Descriptor at (0,-1,0,64)'
	DD	01H
	DD	00H
	DD	0ffffffffH
	DD	00H
	DD	040H
	DD	FLAT:??_R3bad_alloc@std@@8
rdata$r	ENDS
;	COMDAT ??_R2bad_alloc@std@@8
rdata$r	SEGMENT
??_R2bad_alloc@std@@8 DD FLAT:??_R1A@?0A@EA@bad_alloc@std@@8 ; std::bad_alloc::`RTTI Base Class Array'
	DD	FLAT:??_R1A@?0A@EA@exception@std@@8
rdata$r	ENDS
;	COMDAT ??_R3bad_alloc@std@@8
rdata$r	SEGMENT
??_R3bad_alloc@std@@8 DD 00H				; std::bad_alloc::`RTTI Class Hierarchy Descriptor'
	DD	00H
	DD	02H
	DD	FLAT:??_R2bad_alloc@std@@8
rdata$r	ENDS
;	COMDAT ??_R4bad_alloc@std@@6B@
rdata$r	SEGMENT
??_R4bad_alloc@std@@6B@ DD 00H				; std::bad_alloc::`RTTI Complete Object Locator'
	DD	00H
	DD	00H
	DD	FLAT:??_R0?AVbad_alloc@std@@@8
	DD	FLAT:??_R3bad_alloc@std@@8
rdata$r	ENDS
;	COMDAT ??_R1A@?0A@EA@exception@std@@8
rdata$r	SEGMENT
??_R1A@?0A@EA@exception@std@@8 DD FLAT:??_R0?AVexception@std@@@8 ; std::exception::`RTTI Base Class Descriptor at (0,-1,0,64)'
	DD	00H
	DD	00H
	DD	0ffffffffH
	DD	00H
	DD	040H
	DD	FLAT:??_R3exception@std@@8
rdata$r	ENDS
;	COMDAT ??_R2exception@std@@8
rdata$r	SEGMENT
??_R2exception@std@@8 DD FLAT:??_R1A@?0A@EA@exception@std@@8 ; std::exception::`RTTI Base Class Array'
rdata$r	ENDS
;	COMDAT ??_R3exception@std@@8
rdata$r	SEGMENT
??_R3exception@std@@8 DD 00H				; std::exception::`RTTI Class Hierarchy Descriptor'
	DD	00H
	DD	01H
	DD	FLAT:??_R2exception@std@@8
rdata$r	ENDS
;	COMDAT ??_R4exception@std@@6B@
rdata$r	SEGMENT
??_R4exception@std@@6B@ DD 00H				; std::exception::`RTTI Complete Object Locator'
	DD	00H
	DD	00H
	DD	FLAT:??_R0?AVexception@std@@@8
	DD	FLAT:??_R3exception@std@@8
rdata$r	ENDS
;	COMDAT ??_C@_0BA@JFNIOLAK@string?5too?5long@
CONST	SEGMENT
??_C@_0BA@JFNIOLAK@string?5too?5long@ DB 'string too long', 00H ; `string'
CONST	ENDS
;	COMDAT __CT??_R0?AVexception@std@@@8??0exception@std@@QAE@ABV01@@Z12
xdata$x	SEGMENT
__CT??_R0?AVexception@std@@@8??0exception@std@@QAE@ABV01@@Z12 DD 00H
	DD	FLAT:??_R0?AVexception@std@@@8
	DD	00H
	DD	0ffffffffH
	ORG $+4
	DD	0cH
	DD	FLAT:??0exception@std@@QAE@ABV01@@Z
xdata$x	ENDS
;	COMDAT ??_R0?AVexception@std@@@8
data$r	SEGMENT
??_R0?AVexception@std@@@8 DD FLAT:??_7type_info@@6B@	; std::exception `RTTI Type Descriptor'
	DD	00H
	DB	'.?AVexception@std@@', 00H
data$r	ENDS
;	COMDAT __CT??_R0?AVbad_alloc@std@@@8??0bad_alloc@std@@QAE@ABV01@@Z12
xdata$x	SEGMENT
__CT??_R0?AVbad_alloc@std@@@8??0bad_alloc@std@@QAE@ABV01@@Z12 DD 010H
	DD	FLAT:??_R0?AVbad_alloc@std@@@8
	DD	00H
	DD	0ffffffffH
	ORG $+4
	DD	0cH
	DD	FLAT:??0bad_alloc@std@@QAE@ABV01@@Z
xdata$x	ENDS
;	COMDAT ??_R0?AVbad_alloc@std@@@8
data$r	SEGMENT
??_R0?AVbad_alloc@std@@@8 DD FLAT:??_7type_info@@6B@	; std::bad_alloc `RTTI Type Descriptor'
	DD	00H
	DB	'.?AVbad_alloc@std@@', 00H
data$r	ENDS
;	COMDAT __CT??_R0?AVbad_array_new_length@std@@@8??0bad_array_new_length@std@@QAE@ABV01@@Z12
xdata$x	SEGMENT
__CT??_R0?AVbad_array_new_length@std@@@8??0bad_array_new_length@std@@QAE@ABV01@@Z12 DD 00H
	DD	FLAT:??_R0?AVbad_array_new_length@std@@@8
	DD	00H
	DD	0ffffffffH
	ORG $+4
	DD	0cH
	DD	FLAT:??0bad_array_new_length@std@@QAE@ABV01@@Z
xdata$x	ENDS
;	COMDAT ??_R0?AVbad_array_new_length@std@@@8
data$r	SEGMENT
??_R0?AVbad_array_new_length@std@@@8 DD FLAT:??_7type_info@@6B@ ; std::bad_array_new_length `RTTI Type Descriptor'
	DD	00H
	DB	'.?AVbad_array_new_length@std@@', 00H
data$r	ENDS
;	COMDAT __CTA3?AVbad_array_new_length@std@@
xdata$x	SEGMENT
__CTA3?AVbad_array_new_length@std@@ DD 03H
	DD	FLAT:__CT??_R0?AVbad_array_new_length@std@@@8??0bad_array_new_length@std@@QAE@ABV01@@Z12
	DD	FLAT:__CT??_R0?AVbad_alloc@std@@@8??0bad_alloc@std@@QAE@ABV01@@Z12
	DD	FLAT:__CT??_R0?AVexception@std@@@8??0exception@std@@QAE@ABV01@@Z12
xdata$x	ENDS
;	COMDAT __TI3?AVbad_array_new_length@std@@
xdata$x	SEGMENT
__TI3?AVbad_array_new_length@std@@ DD 00H
	DD	FLAT:??1bad_array_new_length@std@@UAE@XZ
	DD	00H
	DD	FLAT:__CTA3?AVbad_array_new_length@std@@
xdata$x	ENDS
;	COMDAT ??_C@_0BF@KINCDENJ@bad?5array?5new?5length@
CONST	SEGMENT
??_C@_0BF@KINCDENJ@bad?5array?5new?5length@ DB 'bad array new length', 00H ; `string'
CONST	ENDS
;	COMDAT ??_7bad_array_new_length@std@@6B@
CONST	SEGMENT
??_7bad_array_new_length@std@@6B@ DD FLAT:??_R4bad_array_new_length@std@@6B@ ; std::bad_array_new_length::`vftable'
	DD	FLAT:??_Ebad_array_new_length@std@@UAEPAXI@Z
	DD	FLAT:?what@exception@std@@UBEPBDXZ
CONST	ENDS
;	COMDAT ??_7bad_alloc@std@@6B@
CONST	SEGMENT
??_7bad_alloc@std@@6B@ DD FLAT:??_R4bad_alloc@std@@6B@	; std::bad_alloc::`vftable'
	DD	FLAT:??_Ebad_alloc@std@@UAEPAXI@Z
	DD	FLAT:?what@exception@std@@UBEPBDXZ
CONST	ENDS
;	COMDAT ??_C@_0BC@EOODALEL@Unknown?5exception@
CONST	SEGMENT
??_C@_0BC@EOODALEL@Unknown?5exception@ DB 'Unknown exception', 00H ; `string'
CONST	ENDS
;	COMDAT ??_7exception@std@@6B@
CONST	SEGMENT
??_7exception@std@@6B@ DD FLAT:??_R4exception@std@@6B@	; std::exception::`vftable'
	DD	FLAT:??_Eexception@std@@UAEPAXI@Z
	DD	FLAT:?what@exception@std@@UBEPBDXZ
CONST	ENDS
;	COMDAT xdata$x
xdata$x	SEGMENT
__ehfuncinfo$??1?$CDynamicPoolEx@VCHeaderDecorator@NEffectUpdateDecorator@@@@UAE@XZ DD 019930522H
	DD	00H
	DD	00H
	DD	2 DUP(00H)
	DD	2 DUP(00H)
	DD	00H
	DD	05H
xdata$x	ENDS
;	COMDAT xdata$x
xdata$x	SEGMENT
__ehfuncinfo$??1?$CDynamicPoolEx@VCNullDecorator@NEffectUpdateDecorator@@@@UAE@XZ DD 019930522H
	DD	00H
	DD	00H
	DD	2 DUP(00H)
	DD	2 DUP(00H)
	DD	00H
	DD	05H
xdata$x	ENDS
;	COMDAT xdata$x
xdata$x	SEGMENT
__ehfuncinfo$??1?$CDynamicPoolEx@VCTextureAnimationCWDecorator@NEffectUpdateDecorator@@@@UAE@XZ DD 019930522H
	DD	00H
	DD	00H
	DD	2 DUP(00H)
	DD	2 DUP(00H)
	DD	00H
	DD	05H
xdata$x	ENDS
;	COMDAT xdata$x
xdata$x	SEGMENT
__ehfuncinfo$??1?$CDynamicPoolEx@VCTextureAnimationCCWDecorator@NEffectUpdateDecorator@@@@UAE@XZ DD 019930522H
	DD	00H
	DD	00H
	DD	2 DUP(00H)
	DD	2 DUP(00H)
	DD	00H
	DD	05H
xdata$x	ENDS
;	COMDAT xdata$x
xdata$x	SEGMENT
__ehfuncinfo$??1?$CDynamicPoolEx@VCTextureAnimationRandomDecorator@NEffectUpdateDecorator@@@@UAE@XZ DD 019930522H
	DD	00H
	DD	00H
	DD	2 DUP(00H)
	DD	2 DUP(00H)
	DD	00H
	DD	05H
xdata$x	ENDS
;	COMDAT xdata$x
xdata$x	SEGMENT
__ehfuncinfo$??1?$CDynamicPoolEx@VCAirResistanceDecorator@NEffectUpdateDecorator@@@@UAE@XZ DD 019930522H
	DD	00H
	DD	00H
	DD	2 DUP(00H)
	DD	2 DUP(00H)
	DD	00H
	DD	05H
xdata$x	ENDS
;	COMDAT xdata$x
xdata$x	SEGMENT
__ehfuncinfo$??1?$CDynamicPoolEx@VCGravityDecorator@NEffectUpdateDecorator@@@@UAE@XZ DD 019930522H
	DD	00H
	DD	00H
	DD	2 DUP(00H)
	DD	2 DUP(00H)
	DD	00H
	DD	05H
xdata$x	ENDS
;	COMDAT xdata$x
xdata$x	SEGMENT
__ehfuncinfo$??1?$CDynamicPoolEx@VCRotationDecorator@NEffectUpdateDecorator@@@@UAE@XZ DD 019930522H
	DD	00H
	DD	00H
	DD	2 DUP(00H)
	DD	2 DUP(00H)
	DD	00H
	DD	05H
xdata$x	ENDS
;	COMDAT xdata$x
xdata$x	SEGMENT
__unwindtable$?itemSetDropSoundFileName@@YAPAU_object@@PAU1@0@Z DD 0ffffffffH
	DD	FLAT:__unwindfunclet$?itemSetDropSoundFileName@@YAPAU_object@@PAU1@0@Z$0
__ehfuncinfo$?itemSetDropSoundFileName@@YAPAU_object@@PAU1@0@Z DD 019930522H
	DD	01H
	DD	FLAT:__unwindtable$?itemSetDropSoundFileName@@YAPAU_object@@PAU1@0@Z
	DD	2 DUP(00H)
	DD	2 DUP(00H)
	DD	00H
	DD	01H
xdata$x	ENDS
;	COMDAT xdata$x
xdata$x	SEGMENT
__unwindtable$?itemSetUseSoundFileName@@YAPAU_object@@PAU1@0@Z DD 0ffffffffH
	DD	FLAT:__unwindfunclet$?itemSetUseSoundFileName@@YAPAU_object@@PAU1@0@Z$0
__ehfuncinfo$?itemSetUseSoundFileName@@YAPAU_object@@PAU1@0@Z DD 019930522H
	DD	01H
	DD	FLAT:__unwindtable$?itemSetUseSoundFileName@@YAPAU_object@@PAU1@0@Z
	DD	2 DUP(00H)
	DD	2 DUP(00H)
	DD	00H
	DD	01H
xdata$x	ENDS
;	COMDAT xdata$x
xdata$x	SEGMENT
__ehfuncinfo$??$_Deallocate@$07$0A@@std@@YAXPAXI@Z DD 019930522H
	DD	00H
	DD	00H
	DD	2 DUP(00H)
	DD	2 DUP(00H)
	DD	00H
	DD	05H
xdata$x	ENDS
;	COMDAT xdata$x
xdata$x	SEGMENT
__unwindtable$??0?$basic_string@DU?$char_traits@D@std@@V?$allocator@D@2@@std@@QAE@QBD@Z DD 0ffffffffH
	DD	FLAT:__unwindfunclet$??0?$basic_string@DU?$char_traits@D@std@@V?$allocator@D@2@@std@@QAE@QBD@Z$0
__ehfuncinfo$??0?$basic_string@DU?$char_traits@D@std@@V?$allocator@D@2@@std@@QAE@QBD@Z DD 019930522H
	DD	01H
	DD	FLAT:__unwindtable$??0?$basic_string@DU?$char_traits@D@std@@V?$allocator@D@2@@std@@QAE@QBD@Z
	DD	2 DUP(00H)
	DD	2 DUP(00H)
	DD	00H
	DD	01H
xdata$x	ENDS
;	COMDAT CRT$XCU
CRT$XCU	SEGMENT
??ms_kPool$initializer$@?$CPooledObject@VCNullDecorator@NEffectUpdateDecorator@@@@1P6AXXZA@@3P6AXXZA DD FLAT:??__E?ms_kPool@?$CPooledObject@VCNullDecorator@NEffectUpdateDecorator@@@@1V?$CDynamicPoolEx@VCNullDecorator@NEffectUpdateDecorator@@@@A@@YAXXZ ; ??ms_kPool$initializer$@?$CPooledObject@VCNullDecorator@NEffectUpdateDecorator@@@@1P6AXXZA@@3P6AXXZA
CRT$XCU	ENDS
;	COMDAT CRT$XCU
CRT$XCU	SEGMENT
??ms_kPool$initializer$@?$CPooledObject@VCTextureAnimationCWDecorator@NEffectUpdateDecorator@@@@1P6AXXZA@@3P6AXXZA DD FLAT:??__E?ms_kPool@?$CPooledObject@VCTextureAnimationCWDecorator@NEffectUpdateDecorator@@@@1V?$CDynamicPoolEx@VCTextureAnimationCWDecorator@NEffectUpdateDecorator@@@@A@@YAXXZ ; ??ms_kPool$initializer$@?$CPooledObject@VCTextureAnimationCWDecorator@NEffectUpdateDecorator@@@@1P6AXXZA@@3P6AXXZA
CRT$XCU	ENDS
;	COMDAT CRT$XCU
CRT$XCU	SEGMENT
??ms_kPool$initializer$@?$CPooledObject@VCTextureAnimationCCWDecorator@NEffectUpdateDecorator@@@@1P6AXXZA@@3P6AXXZA DD FLAT:??__E?ms_kPool@?$CPooledObject@VCTextureAnimationCCWDecorator@NEffectUpdateDecorator@@@@1V?$CDynamicPoolEx@VCTextureAnimationCCWDecorator@NEffectUpdateDecorator@@@@A@@YAXXZ ; ??ms_kPool$initializer$@?$CPooledObject@VCTextureAnimationCCWDecorator@NEffectUpdateDecorator@@@@1P6AXXZA@@3P6AXXZA
CRT$XCU	ENDS
;	COMDAT CRT$XCU
CRT$XCU	SEGMENT
??ms_kPool$initializer$@?$CPooledObject@VCTextureAnimationRandomDecorator@NEffectUpdateDecorator@@@@1P6AXXZA@@3P6AXXZA DD FLAT:??__E?ms_kPool@?$CPooledObject@VCTextureAnimationRandomDecorator@NEffectUpdateDecorator@@@@1V?$CDynamicPoolEx@VCTextureAnimationRandomDecorator@NEffectUpdateDecorator@@@@A@@YAXXZ ; ??ms_kPool$initializer$@?$CPooledObject@VCTextureAnimationRandomDecorator@NEffectUpdateDecorator@@@@1P6AXXZA@@3P6AXXZA
CRT$XCU	ENDS
;	COMDAT CRT$XCU
CRT$XCU	SEGMENT
??ms_kPool$initializer$@?$CPooledObject@VCAirResistanceDecorator@NEffectUpdateDecorator@@@@1P6AXXZA@@3P6AXXZA DD FLAT:??__E?ms_kPool@?$CPooledObject@VCAirResistanceDecorator@NEffectUpdateDecorator@@@@1V?$CDynamicPoolEx@VCAirResistanceDecorator@NEffectUpdateDecorator@@@@A@@YAXXZ ; ??ms_kPool$initializer$@?$CPooledObject@VCAirResistanceDecorator@NEffectUpdateDecorator@@@@1P6AXXZA@@3P6AXXZA
CRT$XCU	ENDS
;	COMDAT CRT$XCU
CRT$XCU	SEGMENT
??ms_kPool$initializer$@?$CPooledObject@VCGravityDecorator@NEffectUpdateDecorator@@@@1P6AXXZA@@3P6AXXZA DD FLAT:??__E?ms_kPool@?$CPooledObject@VCGravityDecorator@NEffectUpdateDecorator@@@@1V?$CDynamicPoolEx@VCGravityDecorator@NEffectUpdateDecorator@@@@A@@YAXXZ ; ??ms_kPool$initializer$@?$CPooledObject@VCGravityDecorator@NEffectUpdateDecorator@@@@1P6AXXZA@@3P6AXXZA
CRT$XCU	ENDS
;	COMDAT CRT$XCU
CRT$XCU	SEGMENT
??ms_kPool$initializer$@?$CPooledObject@VCRotationDecorator@NEffectUpdateDecorator@@@@1P6AXXZA@@3P6AXXZA DD FLAT:??__E?ms_kPool@?$CPooledObject@VCRotationDecorator@NEffectUpdateDecorator@@@@1V?$CDynamicPoolEx@VCRotationDecorator@NEffectUpdateDecorator@@@@A@@YAXXZ ; ??ms_kPool$initializer$@?$CPooledObject@VCRotationDecorator@NEffectUpdateDecorator@@@@1P6AXXZA@@3P6AXXZA
CRT$XCU	ENDS
; Function compile flags: /Odspy
;	COMDAT ??__F?ms_kPool@?$CPooledObject@VCRotationDecorator@NEffectUpdateDecorator@@@@1V?$CDynamicPoolEx@VCRotationDecorator@NEffectUpdateDecorator@@@@A@@YAXXZ
text$yd	SEGMENT
??__F?ms_kPool@?$CPooledObject@VCRotationDecorator@NEffectUpdateDecorator@@@@1V?$CDynamicPoolEx@VCRotationDecorator@NEffectUpdateDecorator@@@@A@@YAXXZ PROC ; `dynamic atexit destructor for 'CPooledObject<NEffectUpdateDecorator::CRotationDecorator>::ms_kPool'', COMDAT
  00000	55		 push	 ebp
  00001	8b ec		 mov	 ebp, esp
  00003	b9 00 00 00 00	 mov	 ecx, OFFSET ?ms_kPool@?$CPooledObject@VCRotationDecorator@NEffectUpdateDecorator@@@@1V?$CDynamicPoolEx@VCRotationDecorator@NEffectUpdateDecorator@@@@A ; CPooledObject<NEffectUpdateDecorator::CRotationDecorator>::ms_kPool
  00008	e8 00 00 00 00	 call	 ??1?$CDynamicPoolEx@VCRotationDecorator@NEffectUpdateDecorator@@@@UAE@XZ ; CDynamicPoolEx<NEffectUpdateDecorator::CRotationDecorator>::~CDynamicPoolEx<NEffectUpdateDecorator::CRotationDecorator>
  0000d	5d		 pop	 ebp
  0000e	c3		 ret	 0
??__F?ms_kPool@?$CPooledObject@VCRotationDecorator@NEffectUpdateDecorator@@@@1V?$CDynamicPoolEx@VCRotationDecorator@NEffectUpdateDecorator@@@@A@@YAXXZ ENDP ; `dynamic atexit destructor for 'CPooledObject<NEffectUpdateDecorator::CRotationDecorator>::ms_kPool''
text$yd	ENDS
; Function compile flags: /Odspy
; File D:\Metin2 Server Files\mainline\SRC_2014\Metin2Client\eterLib\Pool.h
;	COMDAT ??__E?ms_kPool@?$CPooledObject@VCRotationDecorator@NEffectUpdateDecorator@@@@1V?$CDynamicPoolEx@VCRotationDecorator@NEffectUpdateDecorator@@@@A@@YAXXZ
text$di	SEGMENT
??__E?ms_kPool@?$CPooledObject@VCRotationDecorator@NEffectUpdateDecorator@@@@1V?$CDynamicPoolEx@VCRotationDecorator@NEffectUpdateDecorator@@@@A@@YAXXZ PROC ; `dynamic initializer for 'CPooledObject<NEffectUpdateDecorator::CRotationDecorator>::ms_kPool'', COMDAT

; 272  : template <class T> CDynamicPoolEx<T> CPooledObject<T>::ms_kPool;

  00000	55		 push	 ebp
  00001	8b ec		 mov	 ebp, esp
  00003	b9 00 00 00 00	 mov	 ecx, OFFSET ?ms_kPool@?$CPooledObject@VCRotationDecorator@NEffectUpdateDecorator@@@@1V?$CDynamicPoolEx@VCRotationDecorator@NEffectUpdateDecorator@@@@A ; CPooledObject<NEffectUpdateDecorator::CRotationDecorator>::ms_kPool
  00008	e8 00 00 00 00	 call	 ??0?$CDynamicPoolEx@VCRotationDecorator@NEffectUpdateDecorator@@@@QAE@XZ ; CDynamicPoolEx<NEffectUpdateDecorator::CRotationDecorator>::CDynamicPoolEx<NEffectUpdateDecorator::CRotationDecorator>
  0000d	68 00 00 00 00	 push	 OFFSET ??__F?ms_kPool@?$CPooledObject@VCRotationDecorator@NEffectUpdateDecorator@@@@1V?$CDynamicPoolEx@VCRotationDecorator@NEffectUpdateDecorator@@@@A@@YAXXZ ; `dynamic atexit destructor for 'CPooledObject<NEffectUpdateDecorator::CRotationDecorator>::ms_kPool''
  00012	e8 00 00 00 00	 call	 _atexit
  00017	59		 pop	 ecx
  00018	5d		 pop	 ebp
  00019	c3		 ret	 0
??__E?ms_kPool@?$CPooledObject@VCRotationDecorator@NEffectUpdateDecorator@@@@1V?$CDynamicPoolEx@VCRotationDecorator@NEffectUpdateDecorator@@@@A@@YAXXZ ENDP ; `dynamic initializer for 'CPooledObject<NEffectUpdateDecorator::CRotationDecorator>::ms_kPool''
text$di	ENDS
; Function compile flags: /Odspy
;	COMDAT ??__F?ms_kPool@?$CPooledObject@VCGravityDecorator@NEffectUpdateDecorator@@@@1V?$CDynamicPoolEx@VCGravityDecorator@NEffectUpdateDecorator@@@@A@@YAXXZ
text$yd	SEGMENT
??__F?ms_kPool@?$CPooledObject@VCGravityDecorator@NEffectUpdateDecorator@@@@1V?$CDynamicPoolEx@VCGravityDecorator@NEffectUpdateDecorator@@@@A@@YAXXZ PROC ; `dynamic atexit destructor for 'CPooledObject<NEffectUpdateDecorator::CGravityDecorator>::ms_kPool'', COMDAT
  00000	55		 push	 ebp
  00001	8b ec		 mov	 ebp, esp
  00003	b9 00 00 00 00	 mov	 ecx, OFFSET ?ms_kPool@?$CPooledObject@VCGravityDecorator@NEffectUpdateDecorator@@@@1V?$CDynamicPoolEx@VCGravityDecorator@NEffectUpdateDecorator@@@@A ; CPooledObject<NEffectUpdateDecorator::CGravityDecorator>::ms_kPool
  00008	e8 00 00 00 00	 call	 ??1?$CDynamicPoolEx@VCGravityDecorator@NEffectUpdateDecorator@@@@UAE@XZ ; CDynamicPoolEx<NEffectUpdateDecorator::CGravityDecorator>::~CDynamicPoolEx<NEffectUpdateDecorator::CGravityDecorator>
  0000d	5d		 pop	 ebp
  0000e	c3		 ret	 0
??__F?ms_kPool@?$CPooledObject@VCGravityDecorator@NEffectUpdateDecorator@@@@1V?$CDynamicPoolEx@VCGravityDecorator@NEffectUpdateDecorator@@@@A@@YAXXZ ENDP ; `dynamic atexit destructor for 'CPooledObject<NEffectUpdateDecorator::CGravityDecorator>::ms_kPool''
text$yd	ENDS
; Function compile flags: /Odspy
; File D:\Metin2 Server Files\mainline\SRC_2014\Metin2Client\eterLib\Pool.h
;	COMDAT ??__E?ms_kPool@?$CPooledObject@VCGravityDecorator@NEffectUpdateDecorator@@@@1V?$CDynamicPoolEx@VCGravityDecorator@NEffectUpdateDecorator@@@@A@@YAXXZ
text$di	SEGMENT
??__E?ms_kPool@?$CPooledObject@VCGravityDecorator@NEffectUpdateDecorator@@@@1V?$CDynamicPoolEx@VCGravityDecorator@NEffectUpdateDecorator@@@@A@@YAXXZ PROC ; `dynamic initializer for 'CPooledObject<NEffectUpdateDecorator::CGravityDecorator>::ms_kPool'', COMDAT

; 272  : template <class T> CDynamicPoolEx<T> CPooledObject<T>::ms_kPool;

  00000	55		 push	 ebp
  00001	8b ec		 mov	 ebp, esp
  00003	b9 00 00 00 00	 mov	 ecx, OFFSET ?ms_kPool@?$CPooledObject@VCGravityDecorator@NEffectUpdateDecorator@@@@1V?$CDynamicPoolEx@VCGravityDecorator@NEffectUpdateDecorator@@@@A ; CPooledObject<NEffectUpdateDecorator::CGravityDecorator>::ms_kPool
  00008	e8 00 00 00 00	 call	 ??0?$CDynamicPoolEx@VCGravityDecorator@NEffectUpdateDecorator@@@@QAE@XZ ; CDynamicPoolEx<NEffectUpdateDecorator::CGravityDecorator>::CDynamicPoolEx<NEffectUpdateDecorator::CGravityDecorator>
  0000d	68 00 00 00 00	 push	 OFFSET ??__F?ms_kPool@?$CPooledObject@VCGravityDecorator@NEffectUpdateDecorator@@@@1V?$CDynamicPoolEx@VCGravityDecorator@NEffectUpdateDecorator@@@@A@@YAXXZ ; `dynamic atexit destructor for 'CPooledObject<NEffectUpdateDecorator::CGravityDecorator>::ms_kPool''
  00012	e8 00 00 00 00	 call	 _atexit
  00017	59		 pop	 ecx
  00018	5d		 pop	 ebp
  00019	c3		 ret	 0
??__E?ms_kPool@?$CPooledObject@VCGravityDecorator@NEffectUpdateDecorator@@@@1V?$CDynamicPoolEx@VCGravityDecorator@NEffectUpdateDecorator@@@@A@@YAXXZ ENDP ; `dynamic initializer for 'CPooledObject<NEffectUpdateDecorator::CGravityDecorator>::ms_kPool''
text$di	ENDS
; Function compile flags: /Odspy
;	COMDAT ??__F?ms_kPool@?$CPooledObject@VCAirResistanceDecorator@NEffectUpdateDecorator@@@@1V?$CDynamicPoolEx@VCAirResistanceDecorator@NEffectUpdateDecorator@@@@A@@YAXXZ
text$yd	SEGMENT
??__F?ms_kPool@?$CPooledObject@VCAirResistanceDecorator@NEffectUpdateDecorator@@@@1V?$CDynamicPoolEx@VCAirResistanceDecorator@NEffectUpdateDecorator@@@@A@@YAXXZ PROC ; `dynamic atexit destructor for 'CPooledObject<NEffectUpdateDecorator::CAirResistanceDecorator>::ms_kPool'', COMDAT
  00000	55		 push	 ebp
  00001	8b ec		 mov	 ebp, esp
  00003	b9 00 00 00 00	 mov	 ecx, OFFSET ?ms_kPool@?$CPooledObject@VCAirResistanceDecorator@NEffectUpdateDecorator@@@@1V?$CDynamicPoolEx@VCAirResistanceDecorator@NEffectUpdateDecorator@@@@A ; CPooledObject<NEffectUpdateDecorator::CAirResistanceDecorator>::ms_kPool
  00008	e8 00 00 00 00	 call	 ??1?$CDynamicPoolEx@VCAirResistanceDecorator@NEffectUpdateDecorator@@@@UAE@XZ ; CDynamicPoolEx<NEffectUpdateDecorator::CAirResistanceDecorator>::~CDynamicPoolEx<NEffectUpdateDecorator::CAirResistanceDecorator>
  0000d	5d		 pop	 ebp
  0000e	c3		 ret	 0
??__F?ms_kPool@?$CPooledObject@VCAirResistanceDecorator@NEffectUpdateDecorator@@@@1V?$CDynamicPoolEx@VCAirResistanceDecorator@NEffectUpdateDecorator@@@@A@@YAXXZ ENDP ; `dynamic atexit destructor for 'CPooledObject<NEffectUpdateDecorator::CAirResistanceDecorator>::ms_kPool''
text$yd	ENDS
; Function compile flags: /Odspy
; File D:\Metin2 Server Files\mainline\SRC_2014\Metin2Client\eterLib\Pool.h
;	COMDAT ??__E?ms_kPool@?$CPooledObject@VCAirResistanceDecorator@NEffectUpdateDecorator@@@@1V?$CDynamicPoolEx@VCAirResistanceDecorator@NEffectUpdateDecorator@@@@A@@YAXXZ
text$di	SEGMENT
??__E?ms_kPool@?$CPooledObject@VCAirResistanceDecorator@NEffectUpdateDecorator@@@@1V?$CDynamicPoolEx@VCAirResistanceDecorator@NEffectUpdateDecorator@@@@A@@YAXXZ PROC ; `dynamic initializer for 'CPooledObject<NEffectUpdateDecorator::CAirResistanceDecorator>::ms_kPool'', COMDAT

; 272  : template <class T> CDynamicPoolEx<T> CPooledObject<T>::ms_kPool;

  00000	55		 push	 ebp
  00001	8b ec		 mov	 ebp, esp
  00003	b9 00 00 00 00	 mov	 ecx, OFFSET ?ms_kPool@?$CPooledObject@VCAirResistanceDecorator@NEffectUpdateDecorator@@@@1V?$CDynamicPoolEx@VCAirResistanceDecorator@NEffectUpdateDecorator@@@@A ; CPooledObject<NEffectUpdateDecorator::CAirResistanceDecorator>::ms_kPool
  00008	e8 00 00 00 00	 call	 ??0?$CDynamicPoolEx@VCAirResistanceDecorator@NEffectUpdateDecorator@@@@QAE@XZ ; CDynamicPoolEx<NEffectUpdateDecorator::CAirResistanceDecorator>::CDynamicPoolEx<NEffectUpdateDecorator::CAirResistanceDecorator>
  0000d	68 00 00 00 00	 push	 OFFSET ??__F?ms_kPool@?$CPooledObject@VCAirResistanceDecorator@NEffectUpdateDecorator@@@@1V?$CDynamicPoolEx@VCAirResistanceDecorator@NEffectUpdateDecorator@@@@A@@YAXXZ ; `dynamic atexit destructor for 'CPooledObject<NEffectUpdateDecorator::CAirResistanceDecorator>::ms_kPool''
  00012	e8 00 00 00 00	 call	 _atexit
  00017	59		 pop	 ecx
  00018	5d		 pop	 ebp
  00019	c3		 ret	 0
??__E?ms_kPool@?$CPooledObject@VCAirResistanceDecorator@NEffectUpdateDecorator@@@@1V?$CDynamicPoolEx@VCAirResistanceDecorator@NEffectUpdateDecorator@@@@A@@YAXXZ ENDP ; `dynamic initializer for 'CPooledObject<NEffectUpdateDecorator::CAirResistanceDecorator>::ms_kPool''
text$di	ENDS
; Function compile flags: /Odspy
;	COMDAT ??__F?ms_kPool@?$CPooledObject@VCTextureAnimationRandomDecorator@NEffectUpdateDecorator@@@@1V?$CDynamicPoolEx@VCTextureAnimationRandomDecorator@NEffectUpdateDecorator@@@@A@@YAXXZ
text$yd	SEGMENT
??__F?ms_kPool@?$CPooledObject@VCTextureAnimationRandomDecorator@NEffectUpdateDecorator@@@@1V?$CDynamicPoolEx@VCTextureAnimationRandomDecorator@NEffectUpdateDecorator@@@@A@@YAXXZ PROC ; `dynamic atexit destructor for 'CPooledObject<NEffectUpdateDecorator::CTextureAnimationRandomDecorator>::ms_kPool'', COMDAT
  00000	55		 push	 ebp
  00001	8b ec		 mov	 ebp, esp
  00003	b9 00 00 00 00	 mov	 ecx, OFFSET ?ms_kPool@?$CPooledObject@VCTextureAnimationRandomDecorator@NEffectUpdateDecorator@@@@1V?$CDynamicPoolEx@VCTextureAnimationRandomDecorator@NEffectUpdateDecorator@@@@A ; CPooledObject<NEffectUpdateDecorator::CTextureAnimationRandomDecorator>::ms_kPool
  00008	e8 00 00 00 00	 call	 ??1?$CDynamicPoolEx@VCTextureAnimationRandomDecorator@NEffectUpdateDecorator@@@@UAE@XZ ; CDynamicPoolEx<NEffectUpdateDecorator::CTextureAnimationRandomDecorator>::~CDynamicPoolEx<NEffectUpdateDecorator::CTextureAnimationRandomDecorator>
  0000d	5d		 pop	 ebp
  0000e	c3		 ret	 0
??__F?ms_kPool@?$CPooledObject@VCTextureAnimationRandomDecorator@NEffectUpdateDecorator@@@@1V?$CDynamicPoolEx@VCTextureAnimationRandomDecorator@NEffectUpdateDecorator@@@@A@@YAXXZ ENDP ; `dynamic atexit destructor for 'CPooledObject<NEffectUpdateDecorator::CTextureAnimationRandomDecorator>::ms_kPool''
text$yd	ENDS
; Function compile flags: /Odspy
; File D:\Metin2 Server Files\mainline\SRC_2014\Metin2Client\eterLib\Pool.h
;	COMDAT ??__E?ms_kPool@?$CPooledObject@VCTextureAnimationRandomDecorator@NEffectUpdateDecorator@@@@1V?$CDynamicPoolEx@VCTextureAnimationRandomDecorator@NEffectUpdateDecorator@@@@A@@YAXXZ
text$di	SEGMENT
??__E?ms_kPool@?$CPooledObject@VCTextureAnimationRandomDecorator@NEffectUpdateDecorator@@@@1V?$CDynamicPoolEx@VCTextureAnimationRandomDecorator@NEffectUpdateDecorator@@@@A@@YAXXZ PROC ; `dynamic initializer for 'CPooledObject<NEffectUpdateDecorator::CTextureAnimationRandomDecorator>::ms_kPool'', COMDAT

; 272  : template <class T> CDynamicPoolEx<T> CPooledObject<T>::ms_kPool;

  00000	55		 push	 ebp
  00001	8b ec		 mov	 ebp, esp
  00003	b9 00 00 00 00	 mov	 ecx, OFFSET ?ms_kPool@?$CPooledObject@VCTextureAnimationRandomDecorator@NEffectUpdateDecorator@@@@1V?$CDynamicPoolEx@VCTextureAnimationRandomDecorator@NEffectUpdateDecorator@@@@A ; CPooledObject<NEffectUpdateDecorator::CTextureAnimationRandomDecorator>::ms_kPool
  00008	e8 00 00 00 00	 call	 ??0?$CDynamicPoolEx@VCTextureAnimationRandomDecorator@NEffectUpdateDecorator@@@@QAE@XZ ; CDynamicPoolEx<NEffectUpdateDecorator::CTextureAnimationRandomDecorator>::CDynamicPoolEx<NEffectUpdateDecorator::CTextureAnimationRandomDecorator>
  0000d	68 00 00 00 00	 push	 OFFSET ??__F?ms_kPool@?$CPooledObject@VCTextureAnimationRandomDecorator@NEffectUpdateDecorator@@@@1V?$CDynamicPoolEx@VCTextureAnimationRandomDecorator@NEffectUpdateDecorator@@@@A@@YAXXZ ; `dynamic atexit destructor for 'CPooledObject<NEffectUpdateDecorator::CTextureAnimationRandomDecorator>::ms_kPool''
  00012	e8 00 00 00 00	 call	 _atexit
  00017	59		 pop	 ecx
  00018	5d		 pop	 ebp
  00019	c3		 ret	 0
??__E?ms_kPool@?$CPooledObject@VCTextureAnimationRandomDecorator@NEffectUpdateDecorator@@@@1V?$CDynamicPoolEx@VCTextureAnimationRandomDecorator@NEffectUpdateDecorator@@@@A@@YAXXZ ENDP ; `dynamic initializer for 'CPooledObject<NEffectUpdateDecorator::CTextureAnimationRandomDecorator>::ms_kPool''
text$di	ENDS
; Function compile flags: /Odspy
;	COMDAT ??__F?ms_kPool@?$CPooledObject@VCTextureAnimationCCWDecorator@NEffectUpdateDecorator@@@@1V?$CDynamicPoolEx@VCTextureAnimationCCWDecorator@NEffectUpdateDecorator@@@@A@@YAXXZ
text$yd	SEGMENT
??__F?ms_kPool@?$CPooledObject@VCTextureAnimationCCWDecorator@NEffectUpdateDecorator@@@@1V?$CDynamicPoolEx@VCTextureAnimationCCWDecorator@NEffectUpdateDecorator@@@@A@@YAXXZ PROC ; `dynamic atexit destructor for 'CPooledObject<NEffectUpdateDecorator::CTextureAnimationCCWDecorator>::ms_kPool'', COMDAT
  00000	55		 push	 ebp
  00001	8b ec		 mov	 ebp, esp
  00003	b9 00 00 00 00	 mov	 ecx, OFFSET ?ms_kPool@?$CPooledObject@VCTextureAnimationCCWDecorator@NEffectUpdateDecorator@@@@1V?$CDynamicPoolEx@VCTextureAnimationCCWDecorator@NEffectUpdateDecorator@@@@A ; CPooledObject<NEffectUpdateDecorator::CTextureAnimationCCWDecorator>::ms_kPool
  00008	e8 00 00 00 00	 call	 ??1?$CDynamicPoolEx@VCTextureAnimationCCWDecorator@NEffectUpdateDecorator@@@@UAE@XZ ; CDynamicPoolEx<NEffectUpdateDecorator::CTextureAnimationCCWDecorator>::~CDynamicPoolEx<NEffectUpdateDecorator::CTextureAnimationCCWDecorator>
  0000d	5d		 pop	 ebp
  0000e	c3		 ret	 0
??__F?ms_kPool@?$CPooledObject@VCTextureAnimationCCWDecorator@NEffectUpdateDecorator@@@@1V?$CDynamicPoolEx@VCTextureAnimationCCWDecorator@NEffectUpdateDecorator@@@@A@@YAXXZ ENDP ; `dynamic atexit destructor for 'CPooledObject<NEffectUpdateDecorator::CTextureAnimationCCWDecorator>::ms_kPool''
text$yd	ENDS
; Function compile flags: /Odspy
; File D:\Metin2 Server Files\mainline\SRC_2014\Metin2Client\eterLib\Pool.h
;	COMDAT ??__E?ms_kPool@?$CPooledObject@VCTextureAnimationCCWDecorator@NEffectUpdateDecorator@@@@1V?$CDynamicPoolEx@VCTextureAnimationCCWDecorator@NEffectUpdateDecorator@@@@A@@YAXXZ
text$di	SEGMENT
??__E?ms_kPool@?$CPooledObject@VCTextureAnimationCCWDecorator@NEffectUpdateDecorator@@@@1V?$CDynamicPoolEx@VCTextureAnimationCCWDecorator@NEffectUpdateDecorator@@@@A@@YAXXZ PROC ; `dynamic initializer for 'CPooledObject<NEffectUpdateDecorator::CTextureAnimationCCWDecorator>::ms_kPool'', COMDAT

; 272  : template <class T> CDynamicPoolEx<T> CPooledObject<T>::ms_kPool;

  00000	55		 push	 ebp
  00001	8b ec		 mov	 ebp, esp
  00003	b9 00 00 00 00	 mov	 ecx, OFFSET ?ms_kPool@?$CPooledObject@VCTextureAnimationCCWDecorator@NEffectUpdateDecorator@@@@1V?$CDynamicPoolEx@VCTextureAnimationCCWDecorator@NEffectUpdateDecorator@@@@A ; CPooledObject<NEffectUpdateDecorator::CTextureAnimationCCWDecorator>::ms_kPool
  00008	e8 00 00 00 00	 call	 ??0?$CDynamicPoolEx@VCTextureAnimationCCWDecorator@NEffectUpdateDecorator@@@@QAE@XZ ; CDynamicPoolEx<NEffectUpdateDecorator::CTextureAnimationCCWDecorator>::CDynamicPoolEx<NEffectUpdateDecorator::CTextureAnimationCCWDecorator>
  0000d	68 00 00 00 00	 push	 OFFSET ??__F?ms_kPool@?$CPooledObject@VCTextureAnimationCCWDecorator@NEffectUpdateDecorator@@@@1V?$CDynamicPoolEx@VCTextureAnimationCCWDecorator@NEffectUpdateDecorator@@@@A@@YAXXZ ; `dynamic atexit destructor for 'CPooledObject<NEffectUpdateDecorator::CTextureAnimationCCWDecorator>::ms_kPool''
  00012	e8 00 00 00 00	 call	 _atexit
  00017	59		 pop	 ecx
  00018	5d		 pop	 ebp
  00019	c3		 ret	 0
??__E?ms_kPool@?$CPooledObject@VCTextureAnimationCCWDecorator@NEffectUpdateDecorator@@@@1V?$CDynamicPoolEx@VCTextureAnimationCCWDecorator@NEffectUpdateDecorator@@@@A@@YAXXZ ENDP ; `dynamic initializer for 'CPooledObject<NEffectUpdateDecorator::CTextureAnimationCCWDecorator>::ms_kPool''
text$di	ENDS
; Function compile flags: /Odspy
;	COMDAT ??__F?ms_kPool@?$CPooledObject@VCTextureAnimationCWDecorator@NEffectUpdateDecorator@@@@1V?$CDynamicPoolEx@VCTextureAnimationCWDecorator@NEffectUpdateDecorator@@@@A@@YAXXZ
text$yd	SEGMENT
??__F?ms_kPool@?$CPooledObject@VCTextureAnimationCWDecorator@NEffectUpdateDecorator@@@@1V?$CDynamicPoolEx@VCTextureAnimationCWDecorator@NEffectUpdateDecorator@@@@A@@YAXXZ PROC ; `dynamic atexit destructor for 'CPooledObject<NEffectUpdateDecorator::CTextureAnimationCWDecorator>::ms_kPool'', COMDAT
  00000	55		 push	 ebp
  00001	8b ec		 mov	 ebp, esp
  00003	b9 00 00 00 00	 mov	 ecx, OFFSET ?ms_kPool@?$CPooledObject@VCTextureAnimationCWDecorator@NEffectUpdateDecorator@@@@1V?$CDynamicPoolEx@VCTextureAnimationCWDecorator@NEffectUpdateDecorator@@@@A ; CPooledObject<NEffectUpdateDecorator::CTextureAnimationCWDecorator>::ms_kPool
  00008	e8 00 00 00 00	 call	 ??1?$CDynamicPoolEx@VCTextureAnimationCWDecorator@NEffectUpdateDecorator@@@@UAE@XZ ; CDynamicPoolEx<NEffectUpdateDecorator::CTextureAnimationCWDecorator>::~CDynamicPoolEx<NEffectUpdateDecorator::CTextureAnimationCWDecorator>
  0000d	5d		 pop	 ebp
  0000e	c3		 ret	 0
??__F?ms_kPool@?$CPooledObject@VCTextureAnimationCWDecorator@NEffectUpdateDecorator@@@@1V?$CDynamicPoolEx@VCTextureAnimationCWDecorator@NEffectUpdateDecorator@@@@A@@YAXXZ ENDP ; `dynamic atexit destructor for 'CPooledObject<NEffectUpdateDecorator::CTextureAnimationCWDecorator>::ms_kPool''
text$yd	ENDS
; Function compile flags: /Odspy
; File D:\Metin2 Server Files\mainline\SRC_2014\Metin2Client\eterLib\Pool.h
;	COMDAT ??__E?ms_kPool@?$CPooledObject@VCTextureAnimationCWDecorator@NEffectUpdateDecorator@@@@1V?$CDynamicPoolEx@VCTextureAnimationCWDecorator@NEffectUpdateDecorator@@@@A@@YAXXZ
text$di	SEGMENT
??__E?ms_kPool@?$CPooledObject@VCTextureAnimationCWDecorator@NEffectUpdateDecorator@@@@1V?$CDynamicPoolEx@VCTextureAnimationCWDecorator@NEffectUpdateDecorator@@@@A@@YAXXZ PROC ; `dynamic initializer for 'CPooledObject<NEffectUpdateDecorator::CTextureAnimationCWDecorator>::ms_kPool'', COMDAT

; 272  : template <class T> CDynamicPoolEx<T> CPooledObject<T>::ms_kPool;

  00000	55		 push	 ebp
  00001	8b ec		 mov	 ebp, esp
  00003	b9 00 00 00 00	 mov	 ecx, OFFSET ?ms_kPool@?$CPooledObject@VCTextureAnimationCWDecorator@NEffectUpdateDecorator@@@@1V?$CDynamicPoolEx@VCTextureAnimationCWDecorator@NEffectUpdateDecorator@@@@A ; CPooledObject<NEffectUpdateDecorator::CTextureAnimationCWDecorator>::ms_kPool
  00008	e8 00 00 00 00	 call	 ??0?$CDynamicPoolEx@VCTextureAnimationCWDecorator@NEffectUpdateDecorator@@@@QAE@XZ ; CDynamicPoolEx<NEffectUpdateDecorator::CTextureAnimationCWDecorator>::CDynamicPoolEx<NEffectUpdateDecorator::CTextureAnimationCWDecorator>
  0000d	68 00 00 00 00	 push	 OFFSET ??__F?ms_kPool@?$CPooledObject@VCTextureAnimationCWDecorator@NEffectUpdateDecorator@@@@1V?$CDynamicPoolEx@VCTextureAnimationCWDecorator@NEffectUpdateDecorator@@@@A@@YAXXZ ; `dynamic atexit destructor for 'CPooledObject<NEffectUpdateDecorator::CTextureAnimationCWDecorator>::ms_kPool''
  00012	e8 00 00 00 00	 call	 _atexit
  00017	59		 pop	 ecx
  00018	5d		 pop	 ebp
  00019	c3		 ret	 0
??__E?ms_kPool@?$CPooledObject@VCTextureAnimationCWDecorator@NEffectUpdateDecorator@@@@1V?$CDynamicPoolEx@VCTextureAnimationCWDecorator@NEffectUpdateDecorator@@@@A@@YAXXZ ENDP ; `dynamic initializer for 'CPooledObject<NEffectUpdateDecorator::CTextureAnimationCWDecorator>::ms_kPool''
text$di	ENDS
; Function compile flags: /Odspy
;	COMDAT ??__F?ms_kPool@?$CPooledObject@VCNullDecorator@NEffectUpdateDecorator@@@@1V?$CDynamicPoolEx@VCNullDecorator@NEffectUpdateDecorator@@@@A@@YAXXZ
text$yd	SEGMENT
??__F?ms_kPool@?$CPooledObject@VCNullDecorator@NEffectUpdateDecorator@@@@1V?$CDynamicPoolEx@VCNullDecorator@NEffectUpdateDecorator@@@@A@@YAXXZ PROC ; `dynamic atexit destructor for 'CPooledObject<NEffectUpdateDecorator::CNullDecorator>::ms_kPool'', COMDAT
  00000	55		 push	 ebp
  00001	8b ec		 mov	 ebp, esp
  00003	b9 00 00 00 00	 mov	 ecx, OFFSET ?ms_kPool@?$CPooledObject@VCNullDecorator@NEffectUpdateDecorator@@@@1V?$CDynamicPoolEx@VCNullDecorator@NEffectUpdateDecorator@@@@A ; CPooledObject<NEffectUpdateDecorator::CNullDecorator>::ms_kPool
  00008	e8 00 00 00 00	 call	 ??1?$CDynamicPoolEx@VCNullDecorator@NEffectUpdateDecorator@@@@UAE@XZ ; CDynamicPoolEx<NEffectUpdateDecorator::CNullDecorator>::~CDynamicPoolEx<NEffectUpdateDecorator::CNullDecorator>
  0000d	5d		 pop	 ebp
  0000e	c3		 ret	 0
??__F?ms_kPool@?$CPooledObject@VCNullDecorator@NEffectUpdateDecorator@@@@1V?$CDynamicPoolEx@VCNullDecorator@NEffectUpdateDecorator@@@@A@@YAXXZ ENDP ; `dynamic atexit destructor for 'CPooledObject<NEffectUpdateDecorator::CNullDecorator>::ms_kPool''
text$yd	ENDS
; Function compile flags: /Odspy
; File D:\Metin2 Server Files\mainline\SRC_2014\Metin2Client\eterLib\Pool.h
;	COMDAT ??__E?ms_kPool@?$CPooledObject@VCNullDecorator@NEffectUpdateDecorator@@@@1V?$CDynamicPoolEx@VCNullDecorator@NEffectUpdateDecorator@@@@A@@YAXXZ
text$di	SEGMENT
??__E?ms_kPool@?$CPooledObject@VCNullDecorator@NEffectUpdateDecorator@@@@1V?$CDynamicPoolEx@VCNullDecorator@NEffectUpdateDecorator@@@@A@@YAXXZ PROC ; `dynamic initializer for 'CPooledObject<NEffectUpdateDecorator::CNullDecorator>::ms_kPool'', COMDAT

; 272  : template <class T> CDynamicPoolEx<T> CPooledObject<T>::ms_kPool;

  00000	55		 push	 ebp
  00001	8b ec		 mov	 ebp, esp
  00003	b9 00 00 00 00	 mov	 ecx, OFFSET ?ms_kPool@?$CPooledObject@VCNullDecorator@NEffectUpdateDecorator@@@@1V?$CDynamicPoolEx@VCNullDecorator@NEffectUpdateDecorator@@@@A ; CPooledObject<NEffectUpdateDecorator::CNullDecorator>::ms_kPool
  00008	e8 00 00 00 00	 call	 ??0?$CDynamicPoolEx@VCNullDecorator@NEffectUpdateDecorator@@@@QAE@XZ ; CDynamicPoolEx<NEffectUpdateDecorator::CNullDecorator>::CDynamicPoolEx<NEffectUpdateDecorator::CNullDecorator>
  0000d	68 00 00 00 00	 push	 OFFSET ??__F?ms_kPool@?$CPooledObject@VCNullDecorator@NEffectUpdateDecorator@@@@1V?$CDynamicPoolEx@VCNullDecorator@NEffectUpdateDecorator@@@@A@@YAXXZ ; `dynamic atexit destructor for 'CPooledObject<NEffectUpdateDecorator::CNullDecorator>::ms_kPool''
  00012	e8 00 00 00 00	 call	 _atexit
  00017	59		 pop	 ecx
  00018	5d		 pop	 ebp
  00019	c3		 ret	 0
??__E?ms_kPool@?$CPooledObject@VCNullDecorator@NEffectUpdateDecorator@@@@1V?$CDynamicPoolEx@VCNullDecorator@NEffectUpdateDecorator@@@@A@@YAXXZ ENDP ; `dynamic initializer for 'CPooledObject<NEffectUpdateDecorator::CNullDecorator>::ms_kPool''
text$di	ENDS
; Function compile flags: /Odspy
;	COMDAT ??__F?ms_kPool@?$CPooledObject@VCHeaderDecorator@NEffectUpdateDecorator@@@@1V?$CDynamicPoolEx@VCHeaderDecorator@NEffectUpdateDecorator@@@@A@@YAXXZ
text$yd	SEGMENT
??__F?ms_kPool@?$CPooledObject@VCHeaderDecorator@NEffectUpdateDecorator@@@@1V?$CDynamicPoolEx@VCHeaderDecorator@NEffectUpdateDecorator@@@@A@@YAXXZ PROC ; `dynamic atexit destructor for 'CPooledObject<NEffectUpdateDecorator::CHeaderDecorator>::ms_kPool'', COMDAT
  00000	55		 push	 ebp
  00001	8b ec		 mov	 ebp, esp
  00003	b9 00 00 00 00	 mov	 ecx, OFFSET ?ms_kPool@?$CPooledObject@VCHeaderDecorator@NEffectUpdateDecorator@@@@1V?$CDynamicPoolEx@VCHeaderDecorator@NEffectUpdateDecorator@@@@A ; CPooledObject<NEffectUpdateDecorator::CHeaderDecorator>::ms_kPool
  00008	e8 00 00 00 00	 call	 ??1?$CDynamicPoolEx@VCHeaderDecorator@NEffectUpdateDecorator@@@@UAE@XZ ; CDynamicPoolEx<NEffectUpdateDecorator::CHeaderDecorator>::~CDynamicPoolEx<NEffectUpdateDecorator::CHeaderDecorator>
  0000d	5d		 pop	 ebp
  0000e	c3		 ret	 0
??__F?ms_kPool@?$CPooledObject@VCHeaderDecorator@NEffectUpdateDecorator@@@@1V?$CDynamicPoolEx@VCHeaderDecorator@NEffectUpdateDecorator@@@@A@@YAXXZ ENDP ; `dynamic atexit destructor for 'CPooledObject<NEffectUpdateDecorator::CHeaderDecorator>::ms_kPool''
text$yd	ENDS
; Function compile flags: /Odspy
; File D:\Metin2 Server Files\mainline\SRC_2014\Metin2Client\eterLib\Pool.h
;	COMDAT ??__E?ms_kPool@?$CPooledObject@VCHeaderDecorator@NEffectUpdateDecorator@@@@1V?$CDynamicPoolEx@VCHeaderDecorator@NEffectUpdateDecorator@@@@A@@YAXXZ
text$di	SEGMENT
??__E?ms_kPool@?$CPooledObject@VCHeaderDecorator@NEffectUpdateDecorator@@@@1V?$CDynamicPoolEx@VCHeaderDecorator@NEffectUpdateDecorator@@@@A@@YAXXZ PROC ; `dynamic initializer for 'CPooledObject<NEffectUpdateDecorator::CHeaderDecorator>::ms_kPool'', COMDAT

; 272  : template <class T> CDynamicPoolEx<T> CPooledObject<T>::ms_kPool;

  00000	55		 push	 ebp
  00001	8b ec		 mov	 ebp, esp
  00003	b9 00 00 00 00	 mov	 ecx, OFFSET ?ms_kPool@?$CPooledObject@VCHeaderDecorator@NEffectUpdateDecorator@@@@1V?$CDynamicPoolEx@VCHeaderDecorator@NEffectUpdateDecorator@@@@A ; CPooledObject<NEffectUpdateDecorator::CHeaderDecorator>::ms_kPool
  00008	e8 00 00 00 00	 call	 ??0?$CDynamicPoolEx@VCHeaderDecorator@NEffectUpdateDecorator@@@@QAE@XZ ; CDynamicPoolEx<NEffectUpdateDecorator::CHeaderDecorator>::CDynamicPoolEx<NEffectUpdateDecorator::CHeaderDecorator>
  0000d	68 00 00 00 00	 push	 OFFSET ??__F?ms_kPool@?$CPooledObject@VCHeaderDecorator@NEffectUpdateDecorator@@@@1V?$CDynamicPoolEx@VCHeaderDecorator@NEffectUpdateDecorator@@@@A@@YAXXZ ; `dynamic atexit destructor for 'CPooledObject<NEffectUpdateDecorator::CHeaderDecorator>::ms_kPool''
  00012	e8 00 00 00 00	 call	 _atexit
  00017	59		 pop	 ecx
  00018	5d		 pop	 ebp
  00019	c3		 ret	 0
??__E?ms_kPool@?$CPooledObject@VCHeaderDecorator@NEffectUpdateDecorator@@@@1V?$CDynamicPoolEx@VCHeaderDecorator@NEffectUpdateDecorator@@@@A@@YAXXZ ENDP ; `dynamic initializer for 'CPooledObject<NEffectUpdateDecorator::CHeaderDecorator>::ms_kPool''
text$di	ENDS
; Function compile flags: /Odspy
; File C:\Program Files (x86)\Microsoft Visual Studio\2019\Community\VC\Tools\MSVC\14.28.29333\include\xmemory
;	COMDAT ??$_Destroy_range@V?$allocator@PAVCRotationDecorator@NEffectUpdateDecorator@@@std@@@std@@YAXPAPAVCRotationDecorator@NEffectUpdateDecorator@@QAPAV12@AAV?$allocator@PAVCRotationDecorator@NEffectUpdateDecorator@@@0@@Z
_TEXT	SEGMENT
__First$ = 8						; size = 4
__Last$ = 12						; size = 4
__Al$ = 16						; size = 4
??$_Destroy_range@V?$allocator@PAVCRotationDecorator@NEffectUpdateDecorator@@@std@@@std@@YAXPAPAVCRotationDecorator@NEffectUpdateDecorator@@QAPAV12@AAV?$allocator@PAVCRotationDecorator@NEffectUpdateDecorator@@@0@@Z PROC ; std::_Destroy_range<std::allocator<NEffectUpdateDecorator::CRotationDecorator *> >, COMDAT

; 962  :     _Alloc_ptr_t<_Alloc> _First, const _Alloc_ptr_t<_Alloc> _Last, _Alloc& _Al) noexcept {

  00000	55		 push	 ebp
  00001	8b ec		 mov	 ebp, esp

; 963  :     // note that this is an optimization for debug mode codegen; in release mode the BE removes all of this
; 964  :     using _Ty = typename _Alloc::value_type;
; 965  :     if _CONSTEXPR_IF (!conjunction_v<is_trivially_destructible<_Ty>, _Uses_default_destroy<_Alloc, _Ty*>>) {
; 966  :         for (; _First != _Last; ++_First) {
; 967  :             allocator_traits<_Alloc>::destroy(_Al, _Unfancy(_First));
; 968  :         }
; 969  :     }
; 970  : }

  00003	5d		 pop	 ebp
  00004	c3		 ret	 0
??$_Destroy_range@V?$allocator@PAVCRotationDecorator@NEffectUpdateDecorator@@@std@@@std@@YAXPAPAVCRotationDecorator@NEffectUpdateDecorator@@QAPAV12@AAV?$allocator@PAVCRotationDecorator@NEffectUpdateDecorator@@@0@@Z ENDP ; std::_Destroy_range<std::allocator<NEffectUpdateDecorator::CRotationDecorator *> >
_TEXT	ENDS
; Function compile flags: /Odspy
; File C:\Program Files (x86)\Microsoft Visual Studio\2019\Community\VC\Tools\MSVC\14.28.29333\include\xmemory
;	COMDAT ??$_Destroy_range@V?$allocator@PAVCGravityDecorator@NEffectUpdateDecorator@@@std@@@std@@YAXPAPAVCGravityDecorator@NEffectUpdateDecorator@@QAPAV12@AAV?$allocator@PAVCGravityDecorator@NEffectUpdateDecorator@@@0@@Z
_TEXT	SEGMENT
__First$ = 8						; size = 4
__Last$ = 12						; size = 4
__Al$ = 16						; size = 4
??$_Destroy_range@V?$allocator@PAVCGravityDecorator@NEffectUpdateDecorator@@@std@@@std@@YAXPAPAVCGravityDecorator@NEffectUpdateDecorator@@QAPAV12@AAV?$allocator@PAVCGravityDecorator@NEffectUpdateDecorator@@@0@@Z PROC ; std::_Destroy_range<std::allocator<NEffectUpdateDecorator::CGravityDecorator *> >, COMDAT

; 962  :     _Alloc_ptr_t<_Alloc> _First, const _Alloc_ptr_t<_Alloc> _Last, _Alloc& _Al) noexcept {

  00000	55		 push	 ebp
  00001	8b ec		 mov	 ebp, esp

; 963  :     // note that this is an optimization for debug mode codegen; in release mode the BE removes all of this
; 964  :     using _Ty = typename _Alloc::value_type;
; 965  :     if _CONSTEXPR_IF (!conjunction_v<is_trivially_destructible<_Ty>, _Uses_default_destroy<_Alloc, _Ty*>>) {
; 966  :         for (; _First != _Last; ++_First) {
; 967  :             allocator_traits<_Alloc>::destroy(_Al, _Unfancy(_First));
; 968  :         }
; 969  :     }
; 970  : }

  00003	5d		 pop	 ebp
  00004	c3		 ret	 0
??$_Destroy_range@V?$allocator@PAVCGravityDecorator@NEffectUpdateDecorator@@@std@@@std@@YAXPAPAVCGravityDecorator@NEffectUpdateDecorator@@QAPAV12@AAV?$allocator@PAVCGravityDecorator@NEffectUpdateDecorator@@@0@@Z ENDP ; std::_Destroy_range<std::allocator<NEffectUpdateDecorator::CGravityDecorator *> >
_TEXT	ENDS
; Function compile flags: /Odspy
; File C:\Program Files (x86)\Microsoft Visual Studio\2019\Community\VC\Tools\MSVC\14.28.29333\include\xmemory
;	COMDAT ??$_Destroy_range@V?$allocator@PAVCAirResistanceDecorator@NEffectUpdateDecorator@@@std@@@std@@YAXPAPAVCAirResistanceDecorator@NEffectUpdateDecorator@@QAPAV12@AAV?$allocator@PAVCAirResistanceDecorator@NEffectUpdateDecorator@@@0@@Z
_TEXT	SEGMENT
__First$ = 8						; size = 4
__Last$ = 12						; size = 4
__Al$ = 16						; size = 4
??$_Destroy_range@V?$allocator@PAVCAirResistanceDecorator@NEffectUpdateDecorator@@@std@@@std@@YAXPAPAVCAirResistanceDecorator@NEffectUpdateDecorator@@QAPAV12@AAV?$allocator@PAVCAirResistanceDecorator@NEffectUpdateDecorator@@@0@@Z PROC ; std::_Destroy_range<std::allocator<NEffectUpdateDecorator::CAirResistanceDecorator *> >, COMDAT

; 962  :     _Alloc_ptr_t<_Alloc> _First, const _Alloc_ptr_t<_Alloc> _Last, _Alloc& _Al) noexcept {

  00000	55		 push	 ebp
  00001	8b ec		 mov	 ebp, esp

; 963  :     // note that this is an optimization for debug mode codegen; in release mode the BE removes all of this
; 964  :     using _Ty = typename _Alloc::value_type;
; 965  :     if _CONSTEXPR_IF (!conjunction_v<is_trivially_destructible<_Ty>, _Uses_default_destroy<_Alloc, _Ty*>>) {
; 966  :         for (; _First != _Last; ++_First) {
; 967  :             allocator_traits<_Alloc>::destroy(_Al, _Unfancy(_First));
; 968  :         }
; 969  :     }
; 970  : }

  00003	5d		 pop	 ebp
  00004	c3		 ret	 0
??$_Destroy_range@V?$allocator@PAVCAirResistanceDecorator@NEffectUpdateDecorator@@@std@@@std@@YAXPAPAVCAirResistanceDecorator@NEffectUpdateDecorator@@QAPAV12@AAV?$allocator@PAVCAirResistanceDecorator@NEffectUpdateDecorator@@@0@@Z ENDP ; std::_Destroy_range<std::allocator<NEffectUpdateDecorator::CAirResistanceDecorator *> >
_TEXT	ENDS
; Function compile flags: /Odspy
; File C:\Program Files (x86)\Microsoft Visual Studio\2019\Community\VC\Tools\MSVC\14.28.29333\include\xmemory
;	COMDAT ??$_Destroy_range@V?$allocator@PAVCTextureAnimationRandomDecorator@NEffectUpdateDecorator@@@std@@@std@@YAXPAPAVCTextureAnimationRandomDecorator@NEffectUpdateDecorator@@QAPAV12@AAV?$allocator@PAVCTextureAnimationRandomDecorator@NEffectUpdateDecorator@@@0@@Z
_TEXT	SEGMENT
__First$ = 8						; size = 4
__Last$ = 12						; size = 4
__Al$ = 16						; size = 4
??$_Destroy_range@V?$allocator@PAVCTextureAnimationRandomDecorator@NEffectUpdateDecorator@@@std@@@std@@YAXPAPAVCTextureAnimationRandomDecorator@NEffectUpdateDecorator@@QAPAV12@AAV?$allocator@PAVCTextureAnimationRandomDecorator@NEffectUpdateDecorator@@@0@@Z PROC ; std::_Destroy_range<std::allocator<NEffectUpdateDecorator::CTextureAnimationRandomDecorator *> >, COMDAT

; 962  :     _Alloc_ptr_t<_Alloc> _First, const _Alloc_ptr_t<_Alloc> _Last, _Alloc& _Al) noexcept {

  00000	55		 push	 ebp
  00001	8b ec		 mov	 ebp, esp

; 963  :     // note that this is an optimization for debug mode codegen; in release mode the BE removes all of this
; 964  :     using _Ty = typename _Alloc::value_type;
; 965  :     if _CONSTEXPR_IF (!conjunction_v<is_trivially_destructible<_Ty>, _Uses_default_destroy<_Alloc, _Ty*>>) {
; 966  :         for (; _First != _Last; ++_First) {
; 967  :             allocator_traits<_Alloc>::destroy(_Al, _Unfancy(_First));
; 968  :         }
; 969  :     }
; 970  : }

  00003	5d		 pop	 ebp
  00004	c3		 ret	 0
??$_Destroy_range@V?$allocator@PAVCTextureAnimationRandomDecorator@NEffectUpdateDecorator@@@std@@@std@@YAXPAPAVCTextureAnimationRandomDecorator@NEffectUpdateDecorator@@QAPAV12@AAV?$allocator@PAVCTextureAnimationRandomDecorator@NEffectUpdateDecorator@@@0@@Z ENDP ; std::_Destroy_range<std::allocator<NEffectUpdateDecorator::CTextureAnimationRandomDecorator *> >
_TEXT	ENDS
; Function compile flags: /Odspy
; File C:\Program Files (x86)\Microsoft Visual Studio\2019\Community\VC\Tools\MSVC\14.28.29333\include\xmemory
;	COMDAT ??$_Destroy_range@V?$allocator@PAVCTextureAnimationCCWDecorator@NEffectUpdateDecorator@@@std@@@std@@YAXPAPAVCTextureAnimationCCWDecorator@NEffectUpdateDecorator@@QAPAV12@AAV?$allocator@PAVCTextureAnimationCCWDecorator@NEffectUpdateDecorator@@@0@@Z
_TEXT	SEGMENT
__First$ = 8						; size = 4
__Last$ = 12						; size = 4
__Al$ = 16						; size = 4
??$_Destroy_range@V?$allocator@PAVCTextureAnimationCCWDecorator@NEffectUpdateDecorator@@@std@@@std@@YAXPAPAVCTextureAnimationCCWDecorator@NEffectUpdateDecorator@@QAPAV12@AAV?$allocator@PAVCTextureAnimationCCWDecorator@NEffectUpdateDecorator@@@0@@Z PROC ; std::_Destroy_range<std::allocator<NEffectUpdateDecorator::CTextureAnimationCCWDecorator *> >, COMDAT

; 962  :     _Alloc_ptr_t<_Alloc> _First, const _Alloc_ptr_t<_Alloc> _Last, _Alloc& _Al) noexcept {

  00000	55		 push	 ebp
  00001	8b ec		 mov	 ebp, esp

; 963  :     // note that this is an optimization for debug mode codegen; in release mode the BE removes all of this
; 964  :     using _Ty = typename _Alloc::value_type;
; 965  :     if _CONSTEXPR_IF (!conjunction_v<is_trivially_destructible<_Ty>, _Uses_default_destroy<_Alloc, _Ty*>>) {
; 966  :         for (; _First != _Last; ++_First) {
; 967  :             allocator_traits<_Alloc>::destroy(_Al, _Unfancy(_First));
; 968  :         }
; 969  :     }
; 970  : }

  00003	5d		 pop	 ebp
  00004	c3		 ret	 0
??$_Destroy_range@V?$allocator@PAVCTextureAnimationCCWDecorator@NEffectUpdateDecorator@@@std@@@std@@YAXPAPAVCTextureAnimationCCWDecorator@NEffectUpdateDecorator@@QAPAV12@AAV?$allocator@PAVCTextureAnimationCCWDecorator@NEffectUpdateDecorator@@@0@@Z ENDP ; std::_Destroy_range<std::allocator<NEffectUpdateDecorator::CTextureAnimationCCWDecorator *> >
_TEXT	ENDS
; Function compile flags: /Odspy
; File C:\Program Files (x86)\Microsoft Visual Studio\2019\Community\VC\Tools\MSVC\14.28.29333\include\xmemory
;	COMDAT ??$_Destroy_range@V?$allocator@PAVCTextureAnimationCWDecorator@NEffectUpdateDecorator@@@std@@@std@@YAXPAPAVCTextureAnimationCWDecorator@NEffectUpdateDecorator@@QAPAV12@AAV?$allocator@PAVCTextureAnimationCWDecorator@NEffectUpdateDecorator@@@0@@Z
_TEXT	SEGMENT
__First$ = 8						; size = 4
__Last$ = 12						; size = 4
__Al$ = 16						; size = 4
??$_Destroy_range@V?$allocator@PAVCTextureAnimationCWDecorator@NEffectUpdateDecorator@@@std@@@std@@YAXPAPAVCTextureAnimationCWDecorator@NEffectUpdateDecorator@@QAPAV12@AAV?$allocator@PAVCTextureAnimationCWDecorator@NEffectUpdateDecorator@@@0@@Z PROC ; std::_Destroy_range<std::allocator<NEffectUpdateDecorator::CTextureAnimationCWDecorator *> >, COMDAT

; 962  :     _Alloc_ptr_t<_Alloc> _First, const _Alloc_ptr_t<_Alloc> _Last, _Alloc& _Al) noexcept {

  00000	55		 push	 ebp
  00001	8b ec		 mov	 ebp, esp

; 963  :     // note that this is an optimization for debug mode codegen; in release mode the BE removes all of this
; 964  :     using _Ty = typename _Alloc::value_type;
; 965  :     if _CONSTEXPR_IF (!conjunction_v<is_trivially_destructible<_Ty>, _Uses_default_destroy<_Alloc, _Ty*>>) {
; 966  :         for (; _First != _Last; ++_First) {
; 967  :             allocator_traits<_Alloc>::destroy(_Al, _Unfancy(_First));
; 968  :         }
; 969  :     }
; 970  : }

  00003	5d		 pop	 ebp
  00004	c3		 ret	 0
??$_Destroy_range@V?$allocator@PAVCTextureAnimationCWDecorator@NEffectUpdateDecorator@@@std@@@std@@YAXPAPAVCTextureAnimationCWDecorator@NEffectUpdateDecorator@@QAPAV12@AAV?$allocator@PAVCTextureAnimationCWDecorator@NEffectUpdateDecorator@@@0@@Z ENDP ; std::_Destroy_range<std::allocator<NEffectUpdateDecorator::CTextureAnimationCWDecorator *> >
_TEXT	ENDS
; Function compile flags: /Odspy
; File C:\Program Files (x86)\Microsoft Visual Studio\2019\Community\VC\Tools\MSVC\14.28.29333\include\xmemory
;	COMDAT ??$_Destroy_range@V?$allocator@PAVCNullDecorator@NEffectUpdateDecorator@@@std@@@std@@YAXPAPAVCNullDecorator@NEffectUpdateDecorator@@QAPAV12@AAV?$allocator@PAVCNullDecorator@NEffectUpdateDecorator@@@0@@Z
_TEXT	SEGMENT
__First$ = 8						; size = 4
__Last$ = 12						; size = 4
__Al$ = 16						; size = 4
??$_Destroy_range@V?$allocator@PAVCNullDecorator@NEffectUpdateDecorator@@@std@@@std@@YAXPAPAVCNullDecorator@NEffectUpdateDecorator@@QAPAV12@AAV?$allocator@PAVCNullDecorator@NEffectUpdateDecorator@@@0@@Z PROC ; std::_Destroy_range<std::allocator<NEffectUpdateDecorator::CNullDecorator *> >, COMDAT

; 962  :     _Alloc_ptr_t<_Alloc> _First, const _Alloc_ptr_t<_Alloc> _Last, _Alloc& _Al) noexcept {

  00000	55		 push	 ebp
  00001	8b ec		 mov	 ebp, esp

; 963  :     // note that this is an optimization for debug mode codegen; in release mode the BE removes all of this
; 964  :     using _Ty = typename _Alloc::value_type;
; 965  :     if _CONSTEXPR_IF (!conjunction_v<is_trivially_destructible<_Ty>, _Uses_default_destroy<_Alloc, _Ty*>>) {
; 966  :         for (; _First != _Last; ++_First) {
; 967  :             allocator_traits<_Alloc>::destroy(_Al, _Unfancy(_First));
; 968  :         }
; 969  :     }
; 970  : }

  00003	5d		 pop	 ebp
  00004	c3		 ret	 0
??$_Destroy_range@V?$allocator@PAVCNullDecorator@NEffectUpdateDecorator@@@std@@@std@@YAXPAPAVCNullDecorator@NEffectUpdateDecorator@@QAPAV12@AAV?$allocator@PAVCNullDecorator@NEffectUpdateDecorator@@@0@@Z ENDP ; std::_Destroy_range<std::allocator<NEffectUpdateDecorator::CNullDecorator *> >
_TEXT	ENDS
; Function compile flags: /Odspy
; File C:\Program Files (x86)\Microsoft Visual Studio\2019\Community\VC\Tools\MSVC\14.28.29333\include\xmemory
;	COMDAT ??$_Destroy_range@V?$allocator@PAVCHeaderDecorator@NEffectUpdateDecorator@@@std@@@std@@YAXPAPAVCHeaderDecorator@NEffectUpdateDecorator@@QAPAV12@AAV?$allocator@PAVCHeaderDecorator@NEffectUpdateDecorator@@@0@@Z
_TEXT	SEGMENT
__First$ = 8						; size = 4
__Last$ = 12						; size = 4
__Al$ = 16						; size = 4
??$_Destroy_range@V?$allocator@PAVCHeaderDecorator@NEffectUpdateDecorator@@@std@@@std@@YAXPAPAVCHeaderDecorator@NEffectUpdateDecorator@@QAPAV12@AAV?$allocator@PAVCHeaderDecorator@NEffectUpdateDecorator@@@0@@Z PROC ; std::_Destroy_range<std::allocator<NEffectUpdateDecorator::CHeaderDecorator *> >, COMDAT

; 962  :     _Alloc_ptr_t<_Alloc> _First, const _Alloc_ptr_t<_Alloc> _Last, _Alloc& _Al) noexcept {

  00000	55		 push	 ebp
  00001	8b ec		 mov	 ebp, esp

; 963  :     // note that this is an optimization for debug mode codegen; in release mode the BE removes all of this
; 964  :     using _Ty = typename _Alloc::value_type;
; 965  :     if _CONSTEXPR_IF (!conjunction_v<is_trivially_destructible<_Ty>, _Uses_default_destroy<_Alloc, _Ty*>>) {
; 966  :         for (; _First != _Last; ++_First) {
; 967  :             allocator_traits<_Alloc>::destroy(_Al, _Unfancy(_First));
; 968  :         }
; 969  :     }
; 970  : }

  00003	5d		 pop	 ebp
  00004	c3		 ret	 0
??$_Destroy_range@V?$allocator@PAVCHeaderDecorator@NEffectUpdateDecorator@@@std@@@std@@YAXPAPAVCHeaderDecorator@NEffectUpdateDecorator@@QAPAV12@AAV?$allocator@PAVCHeaderDecorator@NEffectUpdateDecorator@@@0@@Z ENDP ; std::_Destroy_range<std::allocator<NEffectUpdateDecorator::CHeaderDecorator *> >
_TEXT	ENDS
; Function compile flags: /Odspy
; File C:\Program Files (x86)\Microsoft Visual Studio\2019\Community\VC\Tools\MSVC\14.28.29333\include\algorithm
; File C:\Program Files (x86)\Microsoft Visual Studio\2019\Community\VC\Tools\MSVC\14.28.29333\include\vector
; File C:\Program Files (x86)\Microsoft Visual Studio\2019\Community\VC\Tools\MSVC\14.28.29333\include\xstddef
; File C:\Program Files (x86)\Microsoft Visual Studio\2019\Community\VC\Tools\MSVC\14.28.29333\include\vector
; File C:\Program Files (x86)\Microsoft Visual Studio\2019\Community\VC\Tools\MSVC\14.28.29333\include\algorithm
; File C:\Program Files (x86)\Microsoft Visual Studio\2019\Community\VC\Tools\MSVC\14.28.29333\include\vector
; File C:\Program Files (x86)\Microsoft Visual Studio\2019\Community\VC\Tools\MSVC\14.28.29333\include\xstddef
; File C:\Program Files (x86)\Microsoft Visual Studio\2019\Community\VC\Tools\MSVC\14.28.29333\include\vector
; File C:\Program Files (x86)\Microsoft Visual Studio\2019\Community\VC\Tools\MSVC\14.28.29333\include\algorithm
;	COMDAT ??$for_each@V?$_Vector_iterator@V?$_Vector_val@U?$_Simple_types@PAVCRotationDecorator@NEffectUpdateDecorator@@@std@@@std@@@std@@P6AXPAVCRotationDecorator@NEffectUpdateDecorator@@@Z@std@@YAP6AXPAVCRotationDecorator@NEffectUpdateDecorator@@@ZV?$_Vector_iterator@V?$_Vector_val@U?$_Simple_types@PAVCRotationDecorator@NEffectUpdateDecorator@@@std@@@std@@@0@1P6AX0@Z@Z
_TEXT	SEGMENT
__ULast$ = -32						; size = 4
$T1 = -28						; size = 4
$T2 = -24						; size = 4
__Ptr$3 = -20						; size = 4
$T4 = -16						; size = 4
$T5 = -12						; size = 4
__Ptr$6 = -8						; size = 4
__UFirst$ = -4						; size = 4
__First$ = 8						; size = 4
__Last$ = 12						; size = 4
__Func$ = 16						; size = 4
??$for_each@V?$_Vector_iterator@V?$_Vector_val@U?$_Simple_types@PAVCRotationDecorator@NEffectUpdateDecorator@@@std@@@std@@@std@@P6AXPAVCRotationDecorator@NEffectUpdateDecorator@@@Z@std@@YAP6AXPAVCRotationDecorator@NEffectUpdateDecorator@@@ZV?$_Vector_iterator@V?$_Vector_val@U?$_Simple_types@PAVCRotationDecorator@NEffectUpdateDecorator@@@std@@@std@@@0@1P6AX0@Z@Z PROC ; std::for_each<std::_Vector_iterator<std::_Vector_val<std::_Simple_types<NEffectUpdateDecorator::CRotationDecorator *> > >,void (__cdecl*)(NEffectUpdateDecorator::CRotationDecorator *)>, COMDAT

; 303  : _CONSTEXPR20 _Fn for_each(_InIt _First, _InIt _Last, _Fn _Func) { // perform function for each element [_First, _Last)

  00000	55		 push	 ebp
  00001	8b ec		 mov	 ebp, esp
  00003	83 ec 20	 sub	 esp, 32			; 00000020H
; File C:\Program Files (x86)\Microsoft Visual Studio\2019\Community\VC\Tools\MSVC\14.28.29333\include\vector

; 310  :         return _Unfancy(this->_Ptr);

  00006	8b 45 08	 mov	 eax, DWORD PTR __First$[ebp]
  00009	89 45 f8	 mov	 DWORD PTR __Ptr$6[ebp], eax
; File C:\Program Files (x86)\Microsoft Visual Studio\2019\Community\VC\Tools\MSVC\14.28.29333\include\xstddef

; 289  :     return _Ptr;

  0000c	8b 45 f8	 mov	 eax, DWORD PTR __Ptr$6[ebp]
  0000f	89 45 f4	 mov	 DWORD PTR $T5[ebp], eax
; File C:\Program Files (x86)\Microsoft Visual Studio\2019\Community\VC\Tools\MSVC\14.28.29333\include\vector

; 310  :         return _Unfancy(this->_Ptr);

  00012	8b 45 f4	 mov	 eax, DWORD PTR $T5[ebp]
  00015	89 45 f0	 mov	 DWORD PTR $T4[ebp], eax
; File C:\Program Files (x86)\Microsoft Visual Studio\2019\Community\VC\Tools\MSVC\14.28.29333\include\algorithm

; 305  :     auto _UFirst      = _Get_unwrapped(_First);

  00018	8b 45 f0	 mov	 eax, DWORD PTR $T4[ebp]
  0001b	89 45 fc	 mov	 DWORD PTR __UFirst$[ebp], eax
; File C:\Program Files (x86)\Microsoft Visual Studio\2019\Community\VC\Tools\MSVC\14.28.29333\include\vector

; 310  :         return _Unfancy(this->_Ptr);

  0001e	8b 45 0c	 mov	 eax, DWORD PTR __Last$[ebp]
  00021	89 45 ec	 mov	 DWORD PTR __Ptr$3[ebp], eax
; File C:\Program Files (x86)\Microsoft Visual Studio\2019\Community\VC\Tools\MSVC\14.28.29333\include\xstddef

; 289  :     return _Ptr;

  00024	8b 45 ec	 mov	 eax, DWORD PTR __Ptr$3[ebp]
  00027	89 45 e8	 mov	 DWORD PTR $T2[ebp], eax
; File C:\Program Files (x86)\Microsoft Visual Studio\2019\Community\VC\Tools\MSVC\14.28.29333\include\vector

; 310  :         return _Unfancy(this->_Ptr);

  0002a	8b 45 e8	 mov	 eax, DWORD PTR $T2[ebp]
  0002d	89 45 e4	 mov	 DWORD PTR $T1[ebp], eax
; File C:\Program Files (x86)\Microsoft Visual Studio\2019\Community\VC\Tools\MSVC\14.28.29333\include\algorithm

; 306  :     const auto _ULast = _Get_unwrapped(_Last);

  00030	8b 45 e4	 mov	 eax, DWORD PTR $T1[ebp]
  00033	89 45 e0	 mov	 DWORD PTR __ULast$[ebp], eax

; 307  :     for (; _UFirst != _ULast; ++_UFirst) {

  00036	eb 09		 jmp	 SHORT $LN4@for_each
$LN2@for_each:
  00038	8b 45 fc	 mov	 eax, DWORD PTR __UFirst$[ebp]
  0003b	83 c0 04	 add	 eax, 4
  0003e	89 45 fc	 mov	 DWORD PTR __UFirst$[ebp], eax
$LN4@for_each:
  00041	8b 45 fc	 mov	 eax, DWORD PTR __UFirst$[ebp]
  00044	3b 45 e0	 cmp	 eax, DWORD PTR __ULast$[ebp]
  00047	74 0b		 je	 SHORT $LN3@for_each

; 308  :         _Func(*_UFirst);

  00049	8b 45 fc	 mov	 eax, DWORD PTR __UFirst$[ebp]
  0004c	ff 30		 push	 DWORD PTR [eax]
  0004e	ff 55 10	 call	 DWORD PTR __Func$[ebp]
  00051	59		 pop	 ecx

; 309  :     }

  00052	eb e4		 jmp	 SHORT $LN2@for_each
$LN3@for_each:

; 310  : 
; 311  :     return _Func;

  00054	8b 45 10	 mov	 eax, DWORD PTR __Func$[ebp]

; 312  : }

  00057	c9		 leave
  00058	c3		 ret	 0
??$for_each@V?$_Vector_iterator@V?$_Vector_val@U?$_Simple_types@PAVCRotationDecorator@NEffectUpdateDecorator@@@std@@@std@@@std@@P6AXPAVCRotationDecorator@NEffectUpdateDecorator@@@Z@std@@YAP6AXPAVCRotationDecorator@NEffectUpdateDecorator@@@ZV?$_Vector_iterator@V?$_Vector_val@U?$_Simple_types@PAVCRotationDecorator@NEffectUpdateDecorator@@@std@@@std@@@0@1P6AX0@Z@Z ENDP ; std::for_each<std::_Vector_iterator<std::_Vector_val<std::_Simple_types<NEffectUpdateDecorator::CRotationDecorator *> > >,void (__cdecl*)(NEffectUpdateDecorator::CRotationDecorator *)>
_TEXT	ENDS
; Function compile flags: /Odspy
; File C:\Program Files (x86)\Microsoft Visual Studio\2019\Community\VC\Tools\MSVC\14.28.29333\include\algorithm
; File C:\Program Files (x86)\Microsoft Visual Studio\2019\Community\VC\Tools\MSVC\14.28.29333\include\vector
; File C:\Program Files (x86)\Microsoft Visual Studio\2019\Community\VC\Tools\MSVC\14.28.29333\include\xstddef
; File C:\Program Files (x86)\Microsoft Visual Studio\2019\Community\VC\Tools\MSVC\14.28.29333\include\vector
; File C:\Program Files (x86)\Microsoft Visual Studio\2019\Community\VC\Tools\MSVC\14.28.29333\include\algorithm
; File C:\Program Files (x86)\Microsoft Visual Studio\2019\Community\VC\Tools\MSVC\14.28.29333\include\vector
; File C:\Program Files (x86)\Microsoft Visual Studio\2019\Community\VC\Tools\MSVC\14.28.29333\include\xstddef
; File C:\Program Files (x86)\Microsoft Visual Studio\2019\Community\VC\Tools\MSVC\14.28.29333\include\vector
; File C:\Program Files (x86)\Microsoft Visual Studio\2019\Community\VC\Tools\MSVC\14.28.29333\include\algorithm
;	COMDAT ??$for_each@V?$_Vector_iterator@V?$_Vector_val@U?$_Simple_types@PAVCGravityDecorator@NEffectUpdateDecorator@@@std@@@std@@@std@@P6AXPAVCGravityDecorator@NEffectUpdateDecorator@@@Z@std@@YAP6AXPAVCGravityDecorator@NEffectUpdateDecorator@@@ZV?$_Vector_iterator@V?$_Vector_val@U?$_Simple_types@PAVCGravityDecorator@NEffectUpdateDecorator@@@std@@@std@@@0@1P6AX0@Z@Z
_TEXT	SEGMENT
__ULast$ = -32						; size = 4
$T1 = -28						; size = 4
$T2 = -24						; size = 4
__Ptr$3 = -20						; size = 4
$T4 = -16						; size = 4
$T5 = -12						; size = 4
__Ptr$6 = -8						; size = 4
__UFirst$ = -4						; size = 4
__First$ = 8						; size = 4
__Last$ = 12						; size = 4
__Func$ = 16						; size = 4
??$for_each@V?$_Vector_iterator@V?$_Vector_val@U?$_Simple_types@PAVCGravityDecorator@NEffectUpdateDecorator@@@std@@@std@@@std@@P6AXPAVCGravityDecorator@NEffectUpdateDecorator@@@Z@std@@YAP6AXPAVCGravityDecorator@NEffectUpdateDecorator@@@ZV?$_Vector_iterator@V?$_Vector_val@U?$_Simple_types@PAVCGravityDecorator@NEffectUpdateDecorator@@@std@@@std@@@0@1P6AX0@Z@Z PROC ; std::for_each<std::_Vector_iterator<std::_Vector_val<std::_Simple_types<NEffectUpdateDecorator::CGravityDecorator *> > >,void (__cdecl*)(NEffectUpdateDecorator::CGravityDecorator *)>, COMDAT

; 303  : _CONSTEXPR20 _Fn for_each(_InIt _First, _InIt _Last, _Fn _Func) { // perform function for each element [_First, _Last)

  00000	55		 push	 ebp
  00001	8b ec		 mov	 ebp, esp
  00003	83 ec 20	 sub	 esp, 32			; 00000020H
; File C:\Program Files (x86)\Microsoft Visual Studio\2019\Community\VC\Tools\MSVC\14.28.29333\include\vector

; 310  :         return _Unfancy(this->_Ptr);

  00006	8b 45 08	 mov	 eax, DWORD PTR __First$[ebp]
  00009	89 45 f8	 mov	 DWORD PTR __Ptr$6[ebp], eax
; File C:\Program Files (x86)\Microsoft Visual Studio\2019\Community\VC\Tools\MSVC\14.28.29333\include\xstddef

; 289  :     return _Ptr;

  0000c	8b 45 f8	 mov	 eax, DWORD PTR __Ptr$6[ebp]
  0000f	89 45 f4	 mov	 DWORD PTR $T5[ebp], eax
; File C:\Program Files (x86)\Microsoft Visual Studio\2019\Community\VC\Tools\MSVC\14.28.29333\include\vector

; 310  :         return _Unfancy(this->_Ptr);

  00012	8b 45 f4	 mov	 eax, DWORD PTR $T5[ebp]
  00015	89 45 f0	 mov	 DWORD PTR $T4[ebp], eax
; File C:\Program Files (x86)\Microsoft Visual Studio\2019\Community\VC\Tools\MSVC\14.28.29333\include\algorithm

; 305  :     auto _UFirst      = _Get_unwrapped(_First);

  00018	8b 45 f0	 mov	 eax, DWORD PTR $T4[ebp]
  0001b	89 45 fc	 mov	 DWORD PTR __UFirst$[ebp], eax
; File C:\Program Files (x86)\Microsoft Visual Studio\2019\Community\VC\Tools\MSVC\14.28.29333\include\vector

; 310  :         return _Unfancy(this->_Ptr);

  0001e	8b 45 0c	 mov	 eax, DWORD PTR __Last$[ebp]
  00021	89 45 ec	 mov	 DWORD PTR __Ptr$3[ebp], eax
; File C:\Program Files (x86)\Microsoft Visual Studio\2019\Community\VC\Tools\MSVC\14.28.29333\include\xstddef

; 289  :     return _Ptr;

  00024	8b 45 ec	 mov	 eax, DWORD PTR __Ptr$3[ebp]
  00027	89 45 e8	 mov	 DWORD PTR $T2[ebp], eax
; File C:\Program Files (x86)\Microsoft Visual Studio\2019\Community\VC\Tools\MSVC\14.28.29333\include\vector

; 310  :         return _Unfancy(this->_Ptr);

  0002a	8b 45 e8	 mov	 eax, DWORD PTR $T2[ebp]
  0002d	89 45 e4	 mov	 DWORD PTR $T1[ebp], eax
; File C:\Program Files (x86)\Microsoft Visual Studio\2019\Community\VC\Tools\MSVC\14.28.29333\include\algorithm

; 306  :     const auto _ULast = _Get_unwrapped(_Last);

  00030	8b 45 e4	 mov	 eax, DWORD PTR $T1[ebp]
  00033	89 45 e0	 mov	 DWORD PTR __ULast$[ebp], eax

; 307  :     for (; _UFirst != _ULast; ++_UFirst) {

  00036	eb 09		 jmp	 SHORT $LN4@for_each
$LN2@for_each:
  00038	8b 45 fc	 mov	 eax, DWORD PTR __UFirst$[ebp]
  0003b	83 c0 04	 add	 eax, 4
  0003e	89 45 fc	 mov	 DWORD PTR __UFirst$[ebp], eax
$LN4@for_each:
  00041	8b 45 fc	 mov	 eax, DWORD PTR __UFirst$[ebp]
  00044	3b 45 e0	 cmp	 eax, DWORD PTR __ULast$[ebp]
  00047	74 0b		 je	 SHORT $LN3@for_each

; 308  :         _Func(*_UFirst);

  00049	8b 45 fc	 mov	 eax, DWORD PTR __UFirst$[ebp]
  0004c	ff 30		 push	 DWORD PTR [eax]
  0004e	ff 55 10	 call	 DWORD PTR __Func$[ebp]
  00051	59		 pop	 ecx

; 309  :     }

  00052	eb e4		 jmp	 SHORT $LN2@for_each
$LN3@for_each:

; 310  : 
; 311  :     return _Func;

  00054	8b 45 10	 mov	 eax, DWORD PTR __Func$[ebp]

; 312  : }

  00057	c9		 leave
  00058	c3		 ret	 0
??$for_each@V?$_Vector_iterator@V?$_Vector_val@U?$_Simple_types@PAVCGravityDecorator@NEffectUpdateDecorator@@@std@@@std@@@std@@P6AXPAVCGravityDecorator@NEffectUpdateDecorator@@@Z@std@@YAP6AXPAVCGravityDecorator@NEffectUpdateDecorator@@@ZV?$_Vector_iterator@V?$_Vector_val@U?$_Simple_types@PAVCGravityDecorator@NEffectUpdateDecorator@@@std@@@std@@@0@1P6AX0@Z@Z ENDP ; std::for_each<std::_Vector_iterator<std::_Vector_val<std::_Simple_types<NEffectUpdateDecorator::CGravityDecorator *> > >,void (__cdecl*)(NEffectUpdateDecorator::CGravityDecorator *)>
_TEXT	ENDS
; Function compile flags: /Odspy
; File C:\Program Files (x86)\Microsoft Visual Studio\2019\Community\VC\Tools\MSVC\14.28.29333\include\algorithm
; File C:\Program Files (x86)\Microsoft Visual Studio\2019\Community\VC\Tools\MSVC\14.28.29333\include\vector
; File C:\Program Files (x86)\Microsoft Visual Studio\2019\Community\VC\Tools\MSVC\14.28.29333\include\xstddef
; File C:\Program Files (x86)\Microsoft Visual Studio\2019\Community\VC\Tools\MSVC\14.28.29333\include\vector
; File C:\Program Files (x86)\Microsoft Visual Studio\2019\Community\VC\Tools\MSVC\14.28.29333\include\algorithm
; File C:\Program Files (x86)\Microsoft Visual Studio\2019\Community\VC\Tools\MSVC\14.28.29333\include\vector
; File C:\Program Files (x86)\Microsoft Visual Studio\2019\Community\VC\Tools\MSVC\14.28.29333\include\xstddef
; File C:\Program Files (x86)\Microsoft Visual Studio\2019\Community\VC\Tools\MSVC\14.28.29333\include\vector
; File C:\Program Files (x86)\Microsoft Visual Studio\2019\Community\VC\Tools\MSVC\14.28.29333\include\algorithm
;	COMDAT ??$for_each@V?$_Vector_iterator@V?$_Vector_val@U?$_Simple_types@PAVCAirResistanceDecorator@NEffectUpdateDecorator@@@std@@@std@@@std@@P6AXPAVCAirResistanceDecorator@NEffectUpdateDecorator@@@Z@std@@YAP6AXPAVCAirResistanceDecorator@NEffectUpdateDecorator@@@ZV?$_Vector_iterator@V?$_Vector_val@U?$_Simple_types@PAVCAirResistanceDecorator@NEffectUpdateDecorator@@@std@@@std@@@0@1P6AX0@Z@Z
_TEXT	SEGMENT
__ULast$ = -32						; size = 4
$T1 = -28						; size = 4
$T2 = -24						; size = 4
__Ptr$3 = -20						; size = 4
$T4 = -16						; size = 4
$T5 = -12						; size = 4
__Ptr$6 = -8						; size = 4
__UFirst$ = -4						; size = 4
__First$ = 8						; size = 4
__Last$ = 12						; size = 4
__Func$ = 16						; size = 4
??$for_each@V?$_Vector_iterator@V?$_Vector_val@U?$_Simple_types@PAVCAirResistanceDecorator@NEffectUpdateDecorator@@@std@@@std@@@std@@P6AXPAVCAirResistanceDecorator@NEffectUpdateDecorator@@@Z@std@@YAP6AXPAVCAirResistanceDecorator@NEffectUpdateDecorator@@@ZV?$_Vector_iterator@V?$_Vector_val@U?$_Simple_types@PAVCAirResistanceDecorator@NEffectUpdateDecorator@@@std@@@std@@@0@1P6AX0@Z@Z PROC ; std::for_each<std::_Vector_iterator<std::_Vector_val<std::_Simple_types<NEffectUpdateDecorator::CAirResistanceDecorator *> > >,void (__cdecl*)(NEffectUpdateDecorator::CAirResistanceDecorator *)>, COMDAT

; 303  : _CONSTEXPR20 _Fn for_each(_InIt _First, _InIt _Last, _Fn _Func) { // perform function for each element [_First, _Last)

  00000	55		 push	 ebp
  00001	8b ec		 mov	 ebp, esp
  00003	83 ec 20	 sub	 esp, 32			; 00000020H
; File C:\Program Files (x86)\Microsoft Visual Studio\2019\Community\VC\Tools\MSVC\14.28.29333\include\vector

; 310  :         return _Unfancy(this->_Ptr);

  00006	8b 45 08	 mov	 eax, DWORD PTR __First$[ebp]
  00009	89 45 f8	 mov	 DWORD PTR __Ptr$6[ebp], eax
; File C:\Program Files (x86)\Microsoft Visual Studio\2019\Community\VC\Tools\MSVC\14.28.29333\include\xstddef

; 289  :     return _Ptr;

  0000c	8b 45 f8	 mov	 eax, DWORD PTR __Ptr$6[ebp]
  0000f	89 45 f4	 mov	 DWORD PTR $T5[ebp], eax
; File C:\Program Files (x86)\Microsoft Visual Studio\2019\Community\VC\Tools\MSVC\14.28.29333\include\vector

; 310  :         return _Unfancy(this->_Ptr);

  00012	8b 45 f4	 mov	 eax, DWORD PTR $T5[ebp]
  00015	89 45 f0	 mov	 DWORD PTR $T4[ebp], eax
; File C:\Program Files (x86)\Microsoft Visual Studio\2019\Community\VC\Tools\MSVC\14.28.29333\include\algorithm

; 305  :     auto _UFirst      = _Get_unwrapped(_First);

  00018	8b 45 f0	 mov	 eax, DWORD PTR $T4[ebp]
  0001b	89 45 fc	 mov	 DWORD PTR __UFirst$[ebp], eax
; File C:\Program Files (x86)\Microsoft Visual Studio\2019\Community\VC\Tools\MSVC\14.28.29333\include\vector

; 310  :         return _Unfancy(this->_Ptr);

  0001e	8b 45 0c	 mov	 eax, DWORD PTR __Last$[ebp]
  00021	89 45 ec	 mov	 DWORD PTR __Ptr$3[ebp], eax
; File C:\Program Files (x86)\Microsoft Visual Studio\2019\Community\VC\Tools\MSVC\14.28.29333\include\xstddef

; 289  :     return _Ptr;

  00024	8b 45 ec	 mov	 eax, DWORD PTR __Ptr$3[ebp]
  00027	89 45 e8	 mov	 DWORD PTR $T2[ebp], eax
; File C:\Program Files (x86)\Microsoft Visual Studio\2019\Community\VC\Tools\MSVC\14.28.29333\include\vector

; 310  :         return _Unfancy(this->_Ptr);

  0002a	8b 45 e8	 mov	 eax, DWORD PTR $T2[ebp]
  0002d	89 45 e4	 mov	 DWORD PTR $T1[ebp], eax
; File C:\Program Files (x86)\Microsoft Visual Studio\2019\Community\VC\Tools\MSVC\14.28.29333\include\algorithm

; 306  :     const auto _ULast = _Get_unwrapped(_Last);

  00030	8b 45 e4	 mov	 eax, DWORD PTR $T1[ebp]
  00033	89 45 e0	 mov	 DWORD PTR __ULast$[ebp], eax

; 307  :     for (; _UFirst != _ULast; ++_UFirst) {

  00036	eb 09		 jmp	 SHORT $LN4@for_each
$LN2@for_each:
  00038	8b 45 fc	 mov	 eax, DWORD PTR __UFirst$[ebp]
  0003b	83 c0 04	 add	 eax, 4
  0003e	89 45 fc	 mov	 DWORD PTR __UFirst$[ebp], eax
$LN4@for_each:
  00041	8b 45 fc	 mov	 eax, DWORD PTR __UFirst$[ebp]
  00044	3b 45 e0	 cmp	 eax, DWORD PTR __ULast$[ebp]
  00047	74 0b		 je	 SHORT $LN3@for_each

; 308  :         _Func(*_UFirst);

  00049	8b 45 fc	 mov	 eax, DWORD PTR __UFirst$[ebp]
  0004c	ff 30		 push	 DWORD PTR [eax]
  0004e	ff 55 10	 call	 DWORD PTR __Func$[ebp]
  00051	59		 pop	 ecx

; 309  :     }

  00052	eb e4		 jmp	 SHORT $LN2@for_each
$LN3@for_each:

; 310  : 
; 311  :     return _Func;

  00054	8b 45 10	 mov	 eax, DWORD PTR __Func$[ebp]

; 312  : }

  00057	c9		 leave
  00058	c3		 ret	 0
??$for_each@V?$_Vector_iterator@V?$_Vector_val@U?$_Simple_types@PAVCAirResistanceDecorator@NEffectUpdateDecorator@@@std@@@std@@@std@@P6AXPAVCAirResistanceDecorator@NEffectUpdateDecorator@@@Z@std@@YAP6AXPAVCAirResistanceDecorator@NEffectUpdateDecorator@@@ZV?$_Vector_iterator@V?$_Vector_val@U?$_Simple_types@PAVCAirResistanceDecorator@NEffectUpdateDecorator@@@std@@@std@@@0@1P6AX0@Z@Z ENDP ; std::for_each<std::_Vector_iterator<std::_Vector_val<std::_Simple_types<NEffectUpdateDecorator::CAirResistanceDecorator *> > >,void (__cdecl*)(NEffectUpdateDecorator::CAirResistanceDecorator *)>
_TEXT	ENDS
; Function compile flags: /Odspy
; File C:\Program Files (x86)\Microsoft Visual Studio\2019\Community\VC\Tools\MSVC\14.28.29333\include\algorithm
; File C:\Program Files (x86)\Microsoft Visual Studio\2019\Community\VC\Tools\MSVC\14.28.29333\include\vector
; File C:\Program Files (x86)\Microsoft Visual Studio\2019\Community\VC\Tools\MSVC\14.28.29333\include\xstddef
; File C:\Program Files (x86)\Microsoft Visual Studio\2019\Community\VC\Tools\MSVC\14.28.29333\include\vector
; File C:\Program Files (x86)\Microsoft Visual Studio\2019\Community\VC\Tools\MSVC\14.28.29333\include\algorithm
; File C:\Program Files (x86)\Microsoft Visual Studio\2019\Community\VC\Tools\MSVC\14.28.29333\include\vector
; File C:\Program Files (x86)\Microsoft Visual Studio\2019\Community\VC\Tools\MSVC\14.28.29333\include\xstddef
; File C:\Program Files (x86)\Microsoft Visual Studio\2019\Community\VC\Tools\MSVC\14.28.29333\include\vector
; File C:\Program Files (x86)\Microsoft Visual Studio\2019\Community\VC\Tools\MSVC\14.28.29333\include\algorithm
;	COMDAT ??$for_each@V?$_Vector_iterator@V?$_Vector_val@U?$_Simple_types@PAVCTextureAnimationRandomDecorator@NEffectUpdateDecorator@@@std@@@std@@@std@@P6AXPAVCTextureAnimationRandomDecorator@NEffectUpdateDecorator@@@Z@std@@YAP6AXPAVCTextureAnimationRandomDecorator@NEffectUpdateDecorator@@@ZV?$_Vector_iterator@V?$_Vector_val@U?$_Simple_types@PAVCTextureAnimationRandomDecorator@NEffectUpdateDecorator@@@std@@@std@@@0@1P6AX0@Z@Z
_TEXT	SEGMENT
__ULast$ = -32						; size = 4
$T1 = -28						; size = 4
$T2 = -24						; size = 4
__Ptr$3 = -20						; size = 4
$T4 = -16						; size = 4
$T5 = -12						; size = 4
__Ptr$6 = -8						; size = 4
__UFirst$ = -4						; size = 4
__First$ = 8						; size = 4
__Last$ = 12						; size = 4
__Func$ = 16						; size = 4
??$for_each@V?$_Vector_iterator@V?$_Vector_val@U?$_Simple_types@PAVCTextureAnimationRandomDecorator@NEffectUpdateDecorator@@@std@@@std@@@std@@P6AXPAVCTextureAnimationRandomDecorator@NEffectUpdateDecorator@@@Z@std@@YAP6AXPAVCTextureAnimationRandomDecorator@NEffectUpdateDecorator@@@ZV?$_Vector_iterator@V?$_Vector_val@U?$_Simple_types@PAVCTextureAnimationRandomDecorator@NEffectUpdateDecorator@@@std@@@std@@@0@1P6AX0@Z@Z PROC ; std::for_each<std::_Vector_iterator<std::_Vector_val<std::_Simple_types<NEffectUpdateDecorator::CTextureAnimationRandomDecorator *> > >,void (__cdecl*)(NEffectUpdateDecorator::CTextureAnimationRandomDecorator *)>, COMDAT

; 303  : _CONSTEXPR20 _Fn for_each(_InIt _First, _InIt _Last, _Fn _Func) { // perform function for each element [_First, _Last)

  00000	55		 push	 ebp
  00001	8b ec		 mov	 ebp, esp
  00003	83 ec 20	 sub	 esp, 32			; 00000020H
; File C:\Program Files (x86)\Microsoft Visual Studio\2019\Community\VC\Tools\MSVC\14.28.29333\include\vector

; 310  :         return _Unfancy(this->_Ptr);

  00006	8b 45 08	 mov	 eax, DWORD PTR __First$[ebp]
  00009	89 45 f8	 mov	 DWORD PTR __Ptr$6[ebp], eax
; File C:\Program Files (x86)\Microsoft Visual Studio\2019\Community\VC\Tools\MSVC\14.28.29333\include\xstddef

; 289  :     return _Ptr;

  0000c	8b 45 f8	 mov	 eax, DWORD PTR __Ptr$6[ebp]
  0000f	89 45 f4	 mov	 DWORD PTR $T5[ebp], eax
; File C:\Program Files (x86)\Microsoft Visual Studio\2019\Community\VC\Tools\MSVC\14.28.29333\include\vector

; 310  :         return _Unfancy(this->_Ptr);

  00012	8b 45 f4	 mov	 eax, DWORD PTR $T5[ebp]
  00015	89 45 f0	 mov	 DWORD PTR $T4[ebp], eax
; File C:\Program Files (x86)\Microsoft Visual Studio\2019\Community\VC\Tools\MSVC\14.28.29333\include\algorithm

; 305  :     auto _UFirst      = _Get_unwrapped(_First);

  00018	8b 45 f0	 mov	 eax, DWORD PTR $T4[ebp]
  0001b	89 45 fc	 mov	 DWORD PTR __UFirst$[ebp], eax
; File C:\Program Files (x86)\Microsoft Visual Studio\2019\Community\VC\Tools\MSVC\14.28.29333\include\vector

; 310  :         return _Unfancy(this->_Ptr);

  0001e	8b 45 0c	 mov	 eax, DWORD PTR __Last$[ebp]
  00021	89 45 ec	 mov	 DWORD PTR __Ptr$3[ebp], eax
; File C:\Program Files (x86)\Microsoft Visual Studio\2019\Community\VC\Tools\MSVC\14.28.29333\include\xstddef

; 289  :     return _Ptr;

  00024	8b 45 ec	 mov	 eax, DWORD PTR __Ptr$3[ebp]
  00027	89 45 e8	 mov	 DWORD PTR $T2[ebp], eax
; File C:\Program Files (x86)\Microsoft Visual Studio\2019\Community\VC\Tools\MSVC\14.28.29333\include\vector

; 310  :         return _Unfancy(this->_Ptr);

  0002a	8b 45 e8	 mov	 eax, DWORD PTR $T2[ebp]
  0002d	89 45 e4	 mov	 DWORD PTR $T1[ebp], eax
; File C:\Program Files (x86)\Microsoft Visual Studio\2019\Community\VC\Tools\MSVC\14.28.29333\include\algorithm

; 306  :     const auto _ULast = _Get_unwrapped(_Last);

  00030	8b 45 e4	 mov	 eax, DWORD PTR $T1[ebp]
  00033	89 45 e0	 mov	 DWORD PTR __ULast$[ebp], eax

; 307  :     for (; _UFirst != _ULast; ++_UFirst) {

  00036	eb 09		 jmp	 SHORT $LN4@for_each
$LN2@for_each:
  00038	8b 45 fc	 mov	 eax, DWORD PTR __UFirst$[ebp]
  0003b	83 c0 04	 add	 eax, 4
  0003e	89 45 fc	 mov	 DWORD PTR __UFirst$[ebp], eax
$LN4@for_each:
  00041	8b 45 fc	 mov	 eax, DWORD PTR __UFirst$[ebp]
  00044	3b 45 e0	 cmp	 eax, DWORD PTR __ULast$[ebp]
  00047	74 0b		 je	 SHORT $LN3@for_each

; 308  :         _Func(*_UFirst);

  00049	8b 45 fc	 mov	 eax, DWORD PTR __UFirst$[ebp]
  0004c	ff 30		 push	 DWORD PTR [eax]
  0004e	ff 55 10	 call	 DWORD PTR __Func$[ebp]
  00051	59		 pop	 ecx

; 309  :     }

  00052	eb e4		 jmp	 SHORT $LN2@for_each
$LN3@for_each:

; 310  : 
; 311  :     return _Func;

  00054	8b 45 10	 mov	 eax, DWORD PTR __Func$[ebp]

; 312  : }

  00057	c9		 leave
  00058	c3		 ret	 0
??$for_each@V?$_Vector_iterator@V?$_Vector_val@U?$_Simple_types@PAVCTextureAnimationRandomDecorator@NEffectUpdateDecorator@@@std@@@std@@@std@@P6AXPAVCTextureAnimationRandomDecorator@NEffectUpdateDecorator@@@Z@std@@YAP6AXPAVCTextureAnimationRandomDecorator@NEffectUpdateDecorator@@@ZV?$_Vector_iterator@V?$_Vector_val@U?$_Simple_types@PAVCTextureAnimationRandomDecorator@NEffectUpdateDecorator@@@std@@@std@@@0@1P6AX0@Z@Z ENDP ; std::for_each<std::_Vector_iterator<std::_Vector_val<std::_Simple_types<NEffectUpdateDecorator::CTextureAnimationRandomDecorator *> > >,void (__cdecl*)(NEffectUpdateDecorator::CTextureAnimationRandomDecorator *)>
_TEXT	ENDS
; Function compile flags: /Odspy
; File C:\Program Files (x86)\Microsoft Visual Studio\2019\Community\VC\Tools\MSVC\14.28.29333\include\algorithm
; File C:\Program Files (x86)\Microsoft Visual Studio\2019\Community\VC\Tools\MSVC\14.28.29333\include\vector
; File C:\Program Files (x86)\Microsoft Visual Studio\2019\Community\VC\Tools\MSVC\14.28.29333\include\xstddef
; File C:\Program Files (x86)\Microsoft Visual Studio\2019\Community\VC\Tools\MSVC\14.28.29333\include\vector
; File C:\Program Files (x86)\Microsoft Visual Studio\2019\Community\VC\Tools\MSVC\14.28.29333\include\algorithm
; File C:\Program Files (x86)\Microsoft Visual Studio\2019\Community\VC\Tools\MSVC\14.28.29333\include\vector
; File C:\Program Files (x86)\Microsoft Visual Studio\2019\Community\VC\Tools\MSVC\14.28.29333\include\xstddef
; File C:\Program Files (x86)\Microsoft Visual Studio\2019\Community\VC\Tools\MSVC\14.28.29333\include\vector
; File C:\Program Files (x86)\Microsoft Visual Studio\2019\Community\VC\Tools\MSVC\14.28.29333\include\algorithm
;	COMDAT ??$for_each@V?$_Vector_iterator@V?$_Vector_val@U?$_Simple_types@PAVCTextureAnimationCCWDecorator@NEffectUpdateDecorator@@@std@@@std@@@std@@P6AXPAVCTextureAnimationCCWDecorator@NEffectUpdateDecorator@@@Z@std@@YAP6AXPAVCTextureAnimationCCWDecorator@NEffectUpdateDecorator@@@ZV?$_Vector_iterator@V?$_Vector_val@U?$_Simple_types@PAVCTextureAnimationCCWDecorator@NEffectUpdateDecorator@@@std@@@std@@@0@1P6AX0@Z@Z
_TEXT	SEGMENT
__ULast$ = -32						; size = 4
$T1 = -28						; size = 4
$T2 = -24						; size = 4
__Ptr$3 = -20						; size = 4
$T4 = -16						; size = 4
$T5 = -12						; size = 4
__Ptr$6 = -8						; size = 4
__UFirst$ = -4						; size = 4
__First$ = 8						; size = 4
__Last$ = 12						; size = 4
__Func$ = 16						; size = 4
??$for_each@V?$_Vector_iterator@V?$_Vector_val@U?$_Simple_types@PAVCTextureAnimationCCWDecorator@NEffectUpdateDecorator@@@std@@@std@@@std@@P6AXPAVCTextureAnimationCCWDecorator@NEffectUpdateDecorator@@@Z@std@@YAP6AXPAVCTextureAnimationCCWDecorator@NEffectUpdateDecorator@@@ZV?$_Vector_iterator@V?$_Vector_val@U?$_Simple_types@PAVCTextureAnimationCCWDecorator@NEffectUpdateDecorator@@@std@@@std@@@0@1P6AX0@Z@Z PROC ; std::for_each<std::_Vector_iterator<std::_Vector_val<std::_Simple_types<NEffectUpdateDecorator::CTextureAnimationCCWDecorator *> > >,void (__cdecl*)(NEffectUpdateDecorator::CTextureAnimationCCWDecorator *)>, COMDAT

; 303  : _CONSTEXPR20 _Fn for_each(_InIt _First, _InIt _Last, _Fn _Func) { // perform function for each element [_First, _Last)

  00000	55		 push	 ebp
  00001	8b ec		 mov	 ebp, esp
  00003	83 ec 20	 sub	 esp, 32			; 00000020H
; File C:\Program Files (x86)\Microsoft Visual Studio\2019\Community\VC\Tools\MSVC\14.28.29333\include\vector

; 310  :         return _Unfancy(this->_Ptr);

  00006	8b 45 08	 mov	 eax, DWORD PTR __First$[ebp]
  00009	89 45 f8	 mov	 DWORD PTR __Ptr$6[ebp], eax
; File C:\Program Files (x86)\Microsoft Visual Studio\2019\Community\VC\Tools\MSVC\14.28.29333\include\xstddef

; 289  :     return _Ptr;

  0000c	8b 45 f8	 mov	 eax, DWORD PTR __Ptr$6[ebp]
  0000f	89 45 f4	 mov	 DWORD PTR $T5[ebp], eax
; File C:\Program Files (x86)\Microsoft Visual Studio\2019\Community\VC\Tools\MSVC\14.28.29333\include\vector

; 310  :         return _Unfancy(this->_Ptr);

  00012	8b 45 f4	 mov	 eax, DWORD PTR $T5[ebp]
  00015	89 45 f0	 mov	 DWORD PTR $T4[ebp], eax
; File C:\Program Files (x86)\Microsoft Visual Studio\2019\Community\VC\Tools\MSVC\14.28.29333\include\algorithm

; 305  :     auto _UFirst      = _Get_unwrapped(_First);

  00018	8b 45 f0	 mov	 eax, DWORD PTR $T4[ebp]
  0001b	89 45 fc	 mov	 DWORD PTR __UFirst$[ebp], eax
; File C:\Program Files (x86)\Microsoft Visual Studio\2019\Community\VC\Tools\MSVC\14.28.29333\include\vector

; 310  :         return _Unfancy(this->_Ptr);

  0001e	8b 45 0c	 mov	 eax, DWORD PTR __Last$[ebp]
  00021	89 45 ec	 mov	 DWORD PTR __Ptr$3[ebp], eax
; File C:\Program Files (x86)\Microsoft Visual Studio\2019\Community\VC\Tools\MSVC\14.28.29333\include\xstddef

; 289  :     return _Ptr;

  00024	8b 45 ec	 mov	 eax, DWORD PTR __Ptr$3[ebp]
  00027	89 45 e8	 mov	 DWORD PTR $T2[ebp], eax
; File C:\Program Files (x86)\Microsoft Visual Studio\2019\Community\VC\Tools\MSVC\14.28.29333\include\vector

; 310  :         return _Unfancy(this->_Ptr);

  0002a	8b 45 e8	 mov	 eax, DWORD PTR $T2[ebp]
  0002d	89 45 e4	 mov	 DWORD PTR $T1[ebp], eax
; File C:\Program Files (x86)\Microsoft Visual Studio\2019\Community\VC\Tools\MSVC\14.28.29333\include\algorithm

; 306  :     const auto _ULast = _Get_unwrapped(_Last);

  00030	8b 45 e4	 mov	 eax, DWORD PTR $T1[ebp]
  00033	89 45 e0	 mov	 DWORD PTR __ULast$[ebp], eax

; 307  :     for (; _UFirst != _ULast; ++_UFirst) {

  00036	eb 09		 jmp	 SHORT $LN4@for_each
$LN2@for_each:
  00038	8b 45 fc	 mov	 eax, DWORD PTR __UFirst$[ebp]
  0003b	83 c0 04	 add	 eax, 4
  0003e	89 45 fc	 mov	 DWORD PTR __UFirst$[ebp], eax
$LN4@for_each:
  00041	8b 45 fc	 mov	 eax, DWORD PTR __UFirst$[ebp]
  00044	3b 45 e0	 cmp	 eax, DWORD PTR __ULast$[ebp]
  00047	74 0b		 je	 SHORT $LN3@for_each

; 308  :         _Func(*_UFirst);

  00049	8b 45 fc	 mov	 eax, DWORD PTR __UFirst$[ebp]
  0004c	ff 30		 push	 DWORD PTR [eax]
  0004e	ff 55 10	 call	 DWORD PTR __Func$[ebp]
  00051	59		 pop	 ecx

; 309  :     }

  00052	eb e4		 jmp	 SHORT $LN2@for_each
$LN3@for_each:

; 310  : 
; 311  :     return _Func;

  00054	8b 45 10	 mov	 eax, DWORD PTR __Func$[ebp]

; 312  : }

  00057	c9		 leave
  00058	c3		 ret	 0
??$for_each@V?$_Vector_iterator@V?$_Vector_val@U?$_Simple_types@PAVCTextureAnimationCCWDecorator@NEffectUpdateDecorator@@@std@@@std@@@std@@P6AXPAVCTextureAnimationCCWDecorator@NEffectUpdateDecorator@@@Z@std@@YAP6AXPAVCTextureAnimationCCWDecorator@NEffectUpdateDecorator@@@ZV?$_Vector_iterator@V?$_Vector_val@U?$_Simple_types@PAVCTextureAnimationCCWDecorator@NEffectUpdateDecorator@@@std@@@std@@@0@1P6AX0@Z@Z ENDP ; std::for_each<std::_Vector_iterator<std::_Vector_val<std::_Simple_types<NEffectUpdateDecorator::CTextureAnimationCCWDecorator *> > >,void (__cdecl*)(NEffectUpdateDecorator::CTextureAnimationCCWDecorator *)>
_TEXT	ENDS
; Function compile flags: /Odspy
; File C:\Program Files (x86)\Microsoft Visual Studio\2019\Community\VC\Tools\MSVC\14.28.29333\include\algorithm
; File C:\Program Files (x86)\Microsoft Visual Studio\2019\Community\VC\Tools\MSVC\14.28.29333\include\vector
; File C:\Program Files (x86)\Microsoft Visual Studio\2019\Community\VC\Tools\MSVC\14.28.29333\include\xstddef
; File C:\Program Files (x86)\Microsoft Visual Studio\2019\Community\VC\Tools\MSVC\14.28.29333\include\vector
; File C:\Program Files (x86)\Microsoft Visual Studio\2019\Community\VC\Tools\MSVC\14.28.29333\include\algorithm
; File C:\Program Files (x86)\Microsoft Visual Studio\2019\Community\VC\Tools\MSVC\14.28.29333\include\vector
; File C:\Program Files (x86)\Microsoft Visual Studio\2019\Community\VC\Tools\MSVC\14.28.29333\include\xstddef
; File C:\Program Files (x86)\Microsoft Visual Studio\2019\Community\VC\Tools\MSVC\14.28.29333\include\vector
; File C:\Program Files (x86)\Microsoft Visual Studio\2019\Community\VC\Tools\MSVC\14.28.29333\include\algorithm
;	COMDAT ??$for_each@V?$_Vector_iterator@V?$_Vector_val@U?$_Simple_types@PAVCTextureAnimationCWDecorator@NEffectUpdateDecorator@@@std@@@std@@@std@@P6AXPAVCTextureAnimationCWDecorator@NEffectUpdateDecorator@@@Z@std@@YAP6AXPAVCTextureAnimationCWDecorator@NEffectUpdateDecorator@@@ZV?$_Vector_iterator@V?$_Vector_val@U?$_Simple_types@PAVCTextureAnimationCWDecorator@NEffectUpdateDecorator@@@std@@@std@@@0@1P6AX0@Z@Z
_TEXT	SEGMENT
__ULast$ = -32						; size = 4
$T1 = -28						; size = 4
$T2 = -24						; size = 4
__Ptr$3 = -20						; size = 4
$T4 = -16						; size = 4
$T5 = -12						; size = 4
__Ptr$6 = -8						; size = 4
__UFirst$ = -4						; size = 4
__First$ = 8						; size = 4
__Last$ = 12						; size = 4
__Func$ = 16						; size = 4
??$for_each@V?$_Vector_iterator@V?$_Vector_val@U?$_Simple_types@PAVCTextureAnimationCWDecorator@NEffectUpdateDecorator@@@std@@@std@@@std@@P6AXPAVCTextureAnimationCWDecorator@NEffectUpdateDecorator@@@Z@std@@YAP6AXPAVCTextureAnimationCWDecorator@NEffectUpdateDecorator@@@ZV?$_Vector_iterator@V?$_Vector_val@U?$_Simple_types@PAVCTextureAnimationCWDecorator@NEffectUpdateDecorator@@@std@@@std@@@0@1P6AX0@Z@Z PROC ; std::for_each<std::_Vector_iterator<std::_Vector_val<std::_Simple_types<NEffectUpdateDecorator::CTextureAnimationCWDecorator *> > >,void (__cdecl*)(NEffectUpdateDecorator::CTextureAnimationCWDecorator *)>, COMDAT

; 303  : _CONSTEXPR20 _Fn for_each(_InIt _First, _InIt _Last, _Fn _Func) { // perform function for each element [_First, _Last)

  00000	55		 push	 ebp
  00001	8b ec		 mov	 ebp, esp
  00003	83 ec 20	 sub	 esp, 32			; 00000020H
; File C:\Program Files (x86)\Microsoft Visual Studio\2019\Community\VC\Tools\MSVC\14.28.29333\include\vector

; 310  :         return _Unfancy(this->_Ptr);

  00006	8b 45 08	 mov	 eax, DWORD PTR __First$[ebp]
  00009	89 45 f8	 mov	 DWORD PTR __Ptr$6[ebp], eax
; File C:\Program Files (x86)\Microsoft Visual Studio\2019\Community\VC\Tools\MSVC\14.28.29333\include\xstddef

; 289  :     return _Ptr;

  0000c	8b 45 f8	 mov	 eax, DWORD PTR __Ptr$6[ebp]
  0000f	89 45 f4	 mov	 DWORD PTR $T5[ebp], eax
; File C:\Program Files (x86)\Microsoft Visual Studio\2019\Community\VC\Tools\MSVC\14.28.29333\include\vector

; 310  :         return _Unfancy(this->_Ptr);

  00012	8b 45 f4	 mov	 eax, DWORD PTR $T5[ebp]
  00015	89 45 f0	 mov	 DWORD PTR $T4[ebp], eax
; File C:\Program Files (x86)\Microsoft Visual Studio\2019\Community\VC\Tools\MSVC\14.28.29333\include\algorithm

; 305  :     auto _UFirst      = _Get_unwrapped(_First);

  00018	8b 45 f0	 mov	 eax, DWORD PTR $T4[ebp]
  0001b	89 45 fc	 mov	 DWORD PTR __UFirst$[ebp], eax
; File C:\Program Files (x86)\Microsoft Visual Studio\2019\Community\VC\Tools\MSVC\14.28.29333\include\vector

; 310  :         return _Unfancy(this->_Ptr);

  0001e	8b 45 0c	 mov	 eax, DWORD PTR __Last$[ebp]
  00021	89 45 ec	 mov	 DWORD PTR __Ptr$3[ebp], eax
; File C:\Program Files (x86)\Microsoft Visual Studio\2019\Community\VC\Tools\MSVC\14.28.29333\include\xstddef

; 289  :     return _Ptr;

  00024	8b 45 ec	 mov	 eax, DWORD PTR __Ptr$3[ebp]
  00027	89 45 e8	 mov	 DWORD PTR $T2[ebp], eax
; File C:\Program Files (x86)\Microsoft Visual Studio\2019\Community\VC\Tools\MSVC\14.28.29333\include\vector

; 310  :         return _Unfancy(this->_Ptr);

  0002a	8b 45 e8	 mov	 eax, DWORD PTR $T2[ebp]
  0002d	89 45 e4	 mov	 DWORD PTR $T1[ebp], eax
; File C:\Program Files (x86)\Microsoft Visual Studio\2019\Community\VC\Tools\MSVC\14.28.29333\include\algorithm

; 306  :     const auto _ULast = _Get_unwrapped(_Last);

  00030	8b 45 e4	 mov	 eax, DWORD PTR $T1[ebp]
  00033	89 45 e0	 mov	 DWORD PTR __ULast$[ebp], eax

; 307  :     for (; _UFirst != _ULast; ++_UFirst) {

  00036	eb 09		 jmp	 SHORT $LN4@for_each
$LN2@for_each:
  00038	8b 45 fc	 mov	 eax, DWORD PTR __UFirst$[ebp]
  0003b	83 c0 04	 add	 eax, 4
  0003e	89 45 fc	 mov	 DWORD PTR __UFirst$[ebp], eax
$LN4@for_each:
  00041	8b 45 fc	 mov	 eax, DWORD PTR __UFirst$[ebp]
  00044	3b 45 e0	 cmp	 eax, DWORD PTR __ULast$[ebp]
  00047	74 0b		 je	 SHORT $LN3@for_each

; 308  :         _Func(*_UFirst);

  00049	8b 45 fc	 mov	 eax, DWORD PTR __UFirst$[ebp]
  0004c	ff 30		 push	 DWORD PTR [eax]
  0004e	ff 55 10	 call	 DWORD PTR __Func$[ebp]
  00051	59		 pop	 ecx

; 309  :     }

  00052	eb e4		 jmp	 SHORT $LN2@for_each
$LN3@for_each:

; 310  : 
; 311  :     return _Func;

  00054	8b 45 10	 mov	 eax, DWORD PTR __Func$[ebp]

; 312  : }

  00057	c9		 leave
  00058	c3		 ret	 0
??$for_each@V?$_Vector_iterator@V?$_Vector_val@U?$_Simple_types@PAVCTextureAnimationCWDecorator@NEffectUpdateDecorator@@@std@@@std@@@std@@P6AXPAVCTextureAnimationCWDecorator@NEffectUpdateDecorator@@@Z@std@@YAP6AXPAVCTextureAnimationCWDecorator@NEffectUpdateDecorator@@@ZV?$_Vector_iterator@V?$_Vector_val@U?$_Simple_types@PAVCTextureAnimationCWDecorator@NEffectUpdateDecorator@@@std@@@std@@@0@1P6AX0@Z@Z ENDP ; std::for_each<std::_Vector_iterator<std::_Vector_val<std::_Simple_types<NEffectUpdateDecorator::CTextureAnimationCWDecorator *> > >,void (__cdecl*)(NEffectUpdateDecorator::CTextureAnimationCWDecorator *)>
_TEXT	ENDS
; Function compile flags: /Odspy
; File C:\Program Files (x86)\Microsoft Visual Studio\2019\Community\VC\Tools\MSVC\14.28.29333\include\algorithm
; File C:\Program Files (x86)\Microsoft Visual Studio\2019\Community\VC\Tools\MSVC\14.28.29333\include\vector
; File C:\Program Files (x86)\Microsoft Visual Studio\2019\Community\VC\Tools\MSVC\14.28.29333\include\xstddef
; File C:\Program Files (x86)\Microsoft Visual Studio\2019\Community\VC\Tools\MSVC\14.28.29333\include\vector
; File C:\Program Files (x86)\Microsoft Visual Studio\2019\Community\VC\Tools\MSVC\14.28.29333\include\algorithm
; File C:\Program Files (x86)\Microsoft Visual Studio\2019\Community\VC\Tools\MSVC\14.28.29333\include\vector
; File C:\Program Files (x86)\Microsoft Visual Studio\2019\Community\VC\Tools\MSVC\14.28.29333\include\xstddef
; File C:\Program Files (x86)\Microsoft Visual Studio\2019\Community\VC\Tools\MSVC\14.28.29333\include\vector
; File C:\Program Files (x86)\Microsoft Visual Studio\2019\Community\VC\Tools\MSVC\14.28.29333\include\algorithm
;	COMDAT ??$for_each@V?$_Vector_iterator@V?$_Vector_val@U?$_Simple_types@PAVCNullDecorator@NEffectUpdateDecorator@@@std@@@std@@@std@@P6AXPAVCNullDecorator@NEffectUpdateDecorator@@@Z@std@@YAP6AXPAVCNullDecorator@NEffectUpdateDecorator@@@ZV?$_Vector_iterator@V?$_Vector_val@U?$_Simple_types@PAVCNullDecorator@NEffectUpdateDecorator@@@std@@@std@@@0@1P6AX0@Z@Z
_TEXT	SEGMENT
__ULast$ = -32						; size = 4
$T1 = -28						; size = 4
$T2 = -24						; size = 4
__Ptr$3 = -20						; size = 4
$T4 = -16						; size = 4
$T5 = -12						; size = 4
__Ptr$6 = -8						; size = 4
__UFirst$ = -4						; size = 4
__First$ = 8						; size = 4
__Last$ = 12						; size = 4
__Func$ = 16						; size = 4
??$for_each@V?$_Vector_iterator@V?$_Vector_val@U?$_Simple_types@PAVCNullDecorator@NEffectUpdateDecorator@@@std@@@std@@@std@@P6AXPAVCNullDecorator@NEffectUpdateDecorator@@@Z@std@@YAP6AXPAVCNullDecorator@NEffectUpdateDecorator@@@ZV?$_Vector_iterator@V?$_Vector_val@U?$_Simple_types@PAVCNullDecorator@NEffectUpdateDecorator@@@std@@@std@@@0@1P6AX0@Z@Z PROC ; std::for_each<std::_Vector_iterator<std::_Vector_val<std::_Simple_types<NEffectUpdateDecorator::CNullDecorator *> > >,void (__cdecl*)(NEffectUpdateDecorator::CNullDecorator *)>, COMDAT

; 303  : _CONSTEXPR20 _Fn for_each(_InIt _First, _InIt _Last, _Fn _Func) { // perform function for each element [_First, _Last)

  00000	55		 push	 ebp
  00001	8b ec		 mov	 ebp, esp
  00003	83 ec 20	 sub	 esp, 32			; 00000020H
; File C:\Program Files (x86)\Microsoft Visual Studio\2019\Community\VC\Tools\MSVC\14.28.29333\include\vector

; 310  :         return _Unfancy(this->_Ptr);

  00006	8b 45 08	 mov	 eax, DWORD PTR __First$[ebp]
  00009	89 45 f8	 mov	 DWORD PTR __Ptr$6[ebp], eax
; File C:\Program Files (x86)\Microsoft Visual Studio\2019\Community\VC\Tools\MSVC\14.28.29333\include\xstddef

; 289  :     return _Ptr;

  0000c	8b 45 f8	 mov	 eax, DWORD PTR __Ptr$6[ebp]
  0000f	89 45 f4	 mov	 DWORD PTR $T5[ebp], eax
; File C:\Program Files (x86)\Microsoft Visual Studio\2019\Community\VC\Tools\MSVC\14.28.29333\include\vector

; 310  :         return _Unfancy(this->_Ptr);

  00012	8b 45 f4	 mov	 eax, DWORD PTR $T5[ebp]
  00015	89 45 f0	 mov	 DWORD PTR $T4[ebp], eax
; File C:\Program Files (x86)\Microsoft Visual Studio\2019\Community\VC\Tools\MSVC\14.28.29333\include\algorithm

; 305  :     auto _UFirst      = _Get_unwrapped(_First);

  00018	8b 45 f0	 mov	 eax, DWORD PTR $T4[ebp]
  0001b	89 45 fc	 mov	 DWORD PTR __UFirst$[ebp], eax
; File C:\Program Files (x86)\Microsoft Visual Studio\2019\Community\VC\Tools\MSVC\14.28.29333\include\vector

; 310  :         return _Unfancy(this->_Ptr);

  0001e	8b 45 0c	 mov	 eax, DWORD PTR __Last$[ebp]
  00021	89 45 ec	 mov	 DWORD PTR __Ptr$3[ebp], eax
; File C:\Program Files (x86)\Microsoft Visual Studio\2019\Community\VC\Tools\MSVC\14.28.29333\include\xstddef

; 289  :     return _Ptr;

  00024	8b 45 ec	 mov	 eax, DWORD PTR __Ptr$3[ebp]
  00027	89 45 e8	 mov	 DWORD PTR $T2[ebp], eax
; File C:\Program Files (x86)\Microsoft Visual Studio\2019\Community\VC\Tools\MSVC\14.28.29333\include\vector

; 310  :         return _Unfancy(this->_Ptr);

  0002a	8b 45 e8	 mov	 eax, DWORD PTR $T2[ebp]
  0002d	89 45 e4	 mov	 DWORD PTR $T1[ebp], eax
; File C:\Program Files (x86)\Microsoft Visual Studio\2019\Community\VC\Tools\MSVC\14.28.29333\include\algorithm

; 306  :     const auto _ULast = _Get_unwrapped(_Last);

  00030	8b 45 e4	 mov	 eax, DWORD PTR $T1[ebp]
  00033	89 45 e0	 mov	 DWORD PTR __ULast$[ebp], eax

; 307  :     for (; _UFirst != _ULast; ++_UFirst) {

  00036	eb 09		 jmp	 SHORT $LN4@for_each
$LN2@for_each:
  00038	8b 45 fc	 mov	 eax, DWORD PTR __UFirst$[ebp]
  0003b	83 c0 04	 add	 eax, 4
  0003e	89 45 fc	 mov	 DWORD PTR __UFirst$[ebp], eax
$LN4@for_each:
  00041	8b 45 fc	 mov	 eax, DWORD PTR __UFirst$[ebp]
  00044	3b 45 e0	 cmp	 eax, DWORD PTR __ULast$[ebp]
  00047	74 0b		 je	 SHORT $LN3@for_each

; 308  :         _Func(*_UFirst);

  00049	8b 45 fc	 mov	 eax, DWORD PTR __UFirst$[ebp]
  0004c	ff 30		 push	 DWORD PTR [eax]
  0004e	ff 55 10	 call	 DWORD PTR __Func$[ebp]
  00051	59		 pop	 ecx

; 309  :     }

  00052	eb e4		 jmp	 SHORT $LN2@for_each
$LN3@for_each:

; 310  : 
; 311  :     return _Func;

  00054	8b 45 10	 mov	 eax, DWORD PTR __Func$[ebp]

; 312  : }

  00057	c9		 leave
  00058	c3		 ret	 0
??$for_each@V?$_Vector_iterator@V?$_Vector_val@U?$_Simple_types@PAVCNullDecorator@NEffectUpdateDecorator@@@std@@@std@@@std@@P6AXPAVCNullDecorator@NEffectUpdateDecorator@@@Z@std@@YAP6AXPAVCNullDecorator@NEffectUpdateDecorator@@@ZV?$_Vector_iterator@V?$_Vector_val@U?$_Simple_types@PAVCNullDecorator@NEffectUpdateDecorator@@@std@@@std@@@0@1P6AX0@Z@Z ENDP ; std::for_each<std::_Vector_iterator<std::_Vector_val<std::_Simple_types<NEffectUpdateDecorator::CNullDecorator *> > >,void (__cdecl*)(NEffectUpdateDecorator::CNullDecorator *)>
_TEXT	ENDS
; Function compile flags: /Odspy
; File C:\Program Files (x86)\Microsoft Visual Studio\2019\Community\VC\Tools\MSVC\14.28.29333\include\algorithm
; File C:\Program Files (x86)\Microsoft Visual Studio\2019\Community\VC\Tools\MSVC\14.28.29333\include\vector
; File C:\Program Files (x86)\Microsoft Visual Studio\2019\Community\VC\Tools\MSVC\14.28.29333\include\xstddef
; File C:\Program Files (x86)\Microsoft Visual Studio\2019\Community\VC\Tools\MSVC\14.28.29333\include\vector
; File C:\Program Files (x86)\Microsoft Visual Studio\2019\Community\VC\Tools\MSVC\14.28.29333\include\algorithm
; File C:\Program Files (x86)\Microsoft Visual Studio\2019\Community\VC\Tools\MSVC\14.28.29333\include\vector
; File C:\Program Files (x86)\Microsoft Visual Studio\2019\Community\VC\Tools\MSVC\14.28.29333\include\xstddef
; File C:\Program Files (x86)\Microsoft Visual Studio\2019\Community\VC\Tools\MSVC\14.28.29333\include\vector
; File C:\Program Files (x86)\Microsoft Visual Studio\2019\Community\VC\Tools\MSVC\14.28.29333\include\algorithm
;	COMDAT ??$for_each@V?$_Vector_iterator@V?$_Vector_val@U?$_Simple_types@PAVCHeaderDecorator@NEffectUpdateDecorator@@@std@@@std@@@std@@P6AXPAVCHeaderDecorator@NEffectUpdateDecorator@@@Z@std@@YAP6AXPAVCHeaderDecorator@NEffectUpdateDecorator@@@ZV?$_Vector_iterator@V?$_Vector_val@U?$_Simple_types@PAVCHeaderDecorator@NEffectUpdateDecorator@@@std@@@std@@@0@1P6AX0@Z@Z
_TEXT	SEGMENT
__ULast$ = -32						; size = 4
$T1 = -28						; size = 4
$T2 = -24						; size = 4
__Ptr$3 = -20						; size = 4
$T4 = -16						; size = 4
$T5 = -12						; size = 4
__Ptr$6 = -8						; size = 4
__UFirst$ = -4						; size = 4
__First$ = 8						; size = 4
__Last$ = 12						; size = 4
__Func$ = 16						; size = 4
??$for_each@V?$_Vector_iterator@V?$_Vector_val@U?$_Simple_types@PAVCHeaderDecorator@NEffectUpdateDecorator@@@std@@@std@@@std@@P6AXPAVCHeaderDecorator@NEffectUpdateDecorator@@@Z@std@@YAP6AXPAVCHeaderDecorator@NEffectUpdateDecorator@@@ZV?$_Vector_iterator@V?$_Vector_val@U?$_Simple_types@PAVCHeaderDecorator@NEffectUpdateDecorator@@@std@@@std@@@0@1P6AX0@Z@Z PROC ; std::for_each<std::_Vector_iterator<std::_Vector_val<std::_Simple_types<NEffectUpdateDecorator::CHeaderDecorator *> > >,void (__cdecl*)(NEffectUpdateDecorator::CHeaderDecorator *)>, COMDAT

; 303  : _CONSTEXPR20 _Fn for_each(_InIt _First, _InIt _Last, _Fn _Func) { // perform function for each element [_First, _Last)

  00000	55		 push	 ebp
  00001	8b ec		 mov	 ebp, esp
  00003	83 ec 20	 sub	 esp, 32			; 00000020H
; File C:\Program Files (x86)\Microsoft Visual Studio\2019\Community\VC\Tools\MSVC\14.28.29333\include\vector

; 310  :         return _Unfancy(this->_Ptr);

  00006	8b 45 08	 mov	 eax, DWORD PTR __First$[ebp]
  00009	89 45 f8	 mov	 DWORD PTR __Ptr$6[ebp], eax
; File C:\Program Files (x86)\Microsoft Visual Studio\2019\Community\VC\Tools\MSVC\14.28.29333\include\xstddef

; 289  :     return _Ptr;

  0000c	8b 45 f8	 mov	 eax, DWORD PTR __Ptr$6[ebp]
  0000f	89 45 f4	 mov	 DWORD PTR $T5[ebp], eax
; File C:\Program Files (x86)\Microsoft Visual Studio\2019\Community\VC\Tools\MSVC\14.28.29333\include\vector

; 310  :         return _Unfancy(this->_Ptr);

  00012	8b 45 f4	 mov	 eax, DWORD PTR $T5[ebp]
  00015	89 45 f0	 mov	 DWORD PTR $T4[ebp], eax
; File C:\Program Files (x86)\Microsoft Visual Studio\2019\Community\VC\Tools\MSVC\14.28.29333\include\algorithm

; 305  :     auto _UFirst      = _Get_unwrapped(_First);

  00018	8b 45 f0	 mov	 eax, DWORD PTR $T4[ebp]
  0001b	89 45 fc	 mov	 DWORD PTR __UFirst$[ebp], eax
; File C:\Program Files (x86)\Microsoft Visual Studio\2019\Community\VC\Tools\MSVC\14.28.29333\include\vector

; 310  :         return _Unfancy(this->_Ptr);

  0001e	8b 45 0c	 mov	 eax, DWORD PTR __Last$[ebp]
  00021	89 45 ec	 mov	 DWORD PTR __Ptr$3[ebp], eax
; File C:\Program Files (x86)\Microsoft Visual Studio\2019\Community\VC\Tools\MSVC\14.28.29333\include\xstddef

; 289  :     return _Ptr;

  00024	8b 45 ec	 mov	 eax, DWORD PTR __Ptr$3[ebp]
  00027	89 45 e8	 mov	 DWORD PTR $T2[ebp], eax
; File C:\Program Files (x86)\Microsoft Visual Studio\2019\Community\VC\Tools\MSVC\14.28.29333\include\vector

; 310  :         return _Unfancy(this->_Ptr);

  0002a	8b 45 e8	 mov	 eax, DWORD PTR $T2[ebp]
  0002d	89 45 e4	 mov	 DWORD PTR $T1[ebp], eax
; File C:\Program Files (x86)\Microsoft Visual Studio\2019\Community\VC\Tools\MSVC\14.28.29333\include\algorithm

; 306  :     const auto _ULast = _Get_unwrapped(_Last);

  00030	8b 45 e4	 mov	 eax, DWORD PTR $T1[ebp]
  00033	89 45 e0	 mov	 DWORD PTR __ULast$[ebp], eax

; 307  :     for (; _UFirst != _ULast; ++_UFirst) {

  00036	eb 09		 jmp	 SHORT $LN4@for_each
$LN2@for_each:
  00038	8b 45 fc	 mov	 eax, DWORD PTR __UFirst$[ebp]
  0003b	83 c0 04	 add	 eax, 4
  0003e	89 45 fc	 mov	 DWORD PTR __UFirst$[ebp], eax
$LN4@for_each:
  00041	8b 45 fc	 mov	 eax, DWORD PTR __UFirst$[ebp]
  00044	3b 45 e0	 cmp	 eax, DWORD PTR __ULast$[ebp]
  00047	74 0b		 je	 SHORT $LN3@for_each

; 308  :         _Func(*_UFirst);

  00049	8b 45 fc	 mov	 eax, DWORD PTR __UFirst$[ebp]
  0004c	ff 30		 push	 DWORD PTR [eax]
  0004e	ff 55 10	 call	 DWORD PTR __Func$[ebp]
  00051	59		 pop	 ecx

; 309  :     }

  00052	eb e4		 jmp	 SHORT $LN2@for_each
$LN3@for_each:

; 310  : 
; 311  :     return _Func;

  00054	8b 45 10	 mov	 eax, DWORD PTR __Func$[ebp]

; 312  : }

  00057	c9		 leave
  00058	c3		 ret	 0
??$for_each@V?$_Vector_iterator@V?$_Vector_val@U?$_Simple_types@PAVCHeaderDecorator@NEffectUpdateDecorator@@@std@@@std@@@std@@P6AXPAVCHeaderDecorator@NEffectUpdateDecorator@@@Z@std@@YAP6AXPAVCHeaderDecorator@NEffectUpdateDecorator@@@ZV?$_Vector_iterator@V?$_Vector_val@U?$_Simple_types@PAVCHeaderDecorator@NEffectUpdateDecorator@@@std@@@std@@@0@1P6AX0@Z@Z ENDP ; std::for_each<std::_Vector_iterator<std::_Vector_val<std::_Simple_types<NEffectUpdateDecorator::CHeaderDecorator *> > >,void (__cdecl*)(NEffectUpdateDecorator::CHeaderDecorator *)>
_TEXT	ENDS
; Function compile flags: /Odspy
;	COMDAT ??_G?$CDynamicPoolEx@VCHeaderDecorator@NEffectUpdateDecorator@@@@UAEPAXI@Z
_TEXT	SEGMENT
_this$ = -4						; size = 4
___flags$ = 8						; size = 4
??_G?$CDynamicPoolEx@VCHeaderDecorator@NEffectUpdateDecorator@@@@UAEPAXI@Z PROC ; CDynamicPoolEx<NEffectUpdateDecorator::CHeaderDecorator>::`scalar deleting destructor', COMDAT
; _this$ = ecx
  00000	55		 push	 ebp
  00001	8b ec		 mov	 ebp, esp
  00003	51		 push	 ecx
  00004	89 4d fc	 mov	 DWORD PTR _this$[ebp], ecx
  00007	8b 4d fc	 mov	 ecx, DWORD PTR _this$[ebp]
  0000a	e8 00 00 00 00	 call	 ??1?$CDynamicPoolEx@VCHeaderDecorator@NEffectUpdateDecorator@@@@UAE@XZ ; CDynamicPoolEx<NEffectUpdateDecorator::CHeaderDecorator>::~CDynamicPoolEx<NEffectUpdateDecorator::CHeaderDecorator>
  0000f	8b 45 08	 mov	 eax, DWORD PTR ___flags$[ebp]
  00012	83 e0 01	 and	 eax, 1
  00015	74 0c		 je	 SHORT $LN2@scalar
  00017	6a 24		 push	 36			; 00000024H
  00019	ff 75 fc	 push	 DWORD PTR _this$[ebp]
  0001c	e8 00 00 00 00	 call	 ??3@YAXPAXI@Z		; operator delete
  00021	59		 pop	 ecx
  00022	59		 pop	 ecx
$LN2@scalar:
  00023	8b 45 fc	 mov	 eax, DWORD PTR _this$[ebp]
  00026	c9		 leave
  00027	c2 04 00	 ret	 4
??_G?$CDynamicPoolEx@VCHeaderDecorator@NEffectUpdateDecorator@@@@UAEPAXI@Z ENDP ; CDynamicPoolEx<NEffectUpdateDecorator::CHeaderDecorator>::`scalar deleting destructor'
_TEXT	ENDS
; Function compile flags: /Odspy
; File C:\Program Files (x86)\Microsoft Visual Studio\2019\Community\VC\Tools\MSVC\14.28.29333\include\vector
; File C:\Program Files (x86)\Microsoft Visual Studio\2019\Community\VC\Tools\MSVC\14.28.29333\include\xmemory
; File C:\Program Files (x86)\Microsoft Visual Studio\2019\Community\VC\Tools\MSVC\14.28.29333\include\vector
; File C:\Program Files (x86)\Microsoft Visual Studio\2019\Community\VC\Tools\MSVC\14.28.29333\include\xmemory
; File C:\Program Files (x86)\Microsoft Visual Studio\2019\Community\VC\Tools\MSVC\14.28.29333\include\vector
; File C:\Program Files (x86)\Microsoft Visual Studio\2019\Community\VC\Tools\MSVC\14.28.29333\include\xmemory
; File C:\Program Files (x86)\Microsoft Visual Studio\2019\Community\VC\Tools\MSVC\14.28.29333\include\vector
;	COMDAT ?_Tidy@?$vector@PAVCHeaderDecorator@NEffectUpdateDecorator@@V?$allocator@PAVCHeaderDecorator@NEffectUpdateDecorator@@@std@@@std@@AAEXXZ
_TEXT	SEGMENT
$T1 = -52						; size = 4
__Ptr$ = -48						; size = 4
__Count$ = -44						; size = 4
$T2 = -40						; size = 4
__First$ = -36						; size = 4
__Last$ = -32						; size = 4
$T3 = -28						; size = 4
$T4 = -24						; size = 4
__Myend$ = -20						; size = 4
__Mylast$ = -16						; size = 4
_this$ = -12						; size = 4
__My_data$ = -8						; size = 4
__Myfirst$ = -4						; size = 4
?_Tidy@?$vector@PAVCHeaderDecorator@NEffectUpdateDecorator@@V?$allocator@PAVCHeaderDecorator@NEffectUpdateDecorator@@@std@@@std@@AAEXXZ PROC ; std::vector<NEffectUpdateDecorator::CHeaderDecorator *,std::allocator<NEffectUpdateDecorator::CHeaderDecorator *> >::_Tidy, COMDAT
; _this$ = ecx

; 1686 :     void _Tidy() noexcept { // free all storage

  00000	55		 push	 ebp
  00001	8b ec		 mov	 ebp, esp
  00003	83 ec 34	 sub	 esp, 52			; 00000034H
  00006	89 4d f4	 mov	 DWORD PTR _this$[ebp], ecx

; 1687 :         auto& _My_data    = _Mypair._Myval2;

  00009	8b 45 f4	 mov	 eax, DWORD PTR _this$[ebp]
  0000c	89 45 f8	 mov	 DWORD PTR __My_data$[ebp], eax

; 1688 :         pointer& _Myfirst = _My_data._Myfirst;

  0000f	8b 45 f8	 mov	 eax, DWORD PTR __My_data$[ebp]
  00012	89 45 fc	 mov	 DWORD PTR __Myfirst$[ebp], eax

; 1689 :         pointer& _Mylast  = _My_data._Mylast;

  00015	8b 45 f8	 mov	 eax, DWORD PTR __My_data$[ebp]
  00018	83 c0 04	 add	 eax, 4
  0001b	89 45 f0	 mov	 DWORD PTR __Mylast$[ebp], eax

; 1690 :         pointer& _Myend   = _My_data._Myend;

  0001e	8b 45 f8	 mov	 eax, DWORD PTR __My_data$[ebp]
  00021	83 c0 08	 add	 eax, 8
  00024	89 45 ec	 mov	 DWORD PTR __Myend$[ebp], eax

; 1691 : 
; 1692 :         _My_data._Orphan_all();
; 1693 : 
; 1694 :         if (_Myfirst) { // destroy and deallocate old array

  00027	8b 45 fc	 mov	 eax, DWORD PTR __Myfirst$[ebp]
  0002a	83 38 00	 cmp	 DWORD PTR [eax], 0
  0002d	74 74		 je	 SHORT $LN3@Tidy

; 1695 :             _Destroy(_Myfirst, _Mylast);

  0002f	8b 45 f0	 mov	 eax, DWORD PTR __Mylast$[ebp]
  00032	8b 00		 mov	 eax, DWORD PTR [eax]
  00034	89 45 e0	 mov	 DWORD PTR __Last$[ebp], eax
  00037	8b 45 fc	 mov	 eax, DWORD PTR __Myfirst$[ebp]
  0003a	8b 00		 mov	 eax, DWORD PTR [eax]
  0003c	89 45 dc	 mov	 DWORD PTR __First$[ebp], eax

; 1733 :         return _Mypair._Get_first();

  0003f	8b 45 f4	 mov	 eax, DWORD PTR _this$[ebp]
; File C:\Program Files (x86)\Microsoft Visual Studio\2019\Community\VC\Tools\MSVC\14.28.29333\include\xmemory

; 1347 :         return *this;

  00042	89 45 e8	 mov	 DWORD PTR $T4[ebp], eax
; File C:\Program Files (x86)\Microsoft Visual Studio\2019\Community\VC\Tools\MSVC\14.28.29333\include\vector

; 1733 :         return _Mypair._Get_first();

  00045	8b 45 e8	 mov	 eax, DWORD PTR $T4[ebp]
  00048	89 45 e4	 mov	 DWORD PTR $T3[ebp], eax

; 1612 :         _Destroy_range(_First, _Last, _Getal());

  0004b	ff 75 e4	 push	 DWORD PTR $T3[ebp]
  0004e	ff 75 e0	 push	 DWORD PTR __Last$[ebp]
  00051	ff 75 dc	 push	 DWORD PTR __First$[ebp]
  00054	e8 00 00 00 00	 call	 ??$_Destroy_range@V?$allocator@PAVCHeaderDecorator@NEffectUpdateDecorator@@@std@@@std@@YAXPAPAVCHeaderDecorator@NEffectUpdateDecorator@@QAPAV12@AAV?$allocator@PAVCHeaderDecorator@NEffectUpdateDecorator@@@0@@Z ; std::_Destroy_range<std::allocator<NEffectUpdateDecorator::CHeaderDecorator *> >
  00059	83 c4 0c	 add	 esp, 12			; 0000000cH

; 1733 :         return _Mypair._Get_first();

  0005c	8b 45 f4	 mov	 eax, DWORD PTR _this$[ebp]
; File C:\Program Files (x86)\Microsoft Visual Studio\2019\Community\VC\Tools\MSVC\14.28.29333\include\xmemory

; 1347 :         return *this;

  0005f	89 45 d8	 mov	 DWORD PTR $T2[ebp], eax
; File C:\Program Files (x86)\Microsoft Visual Studio\2019\Community\VC\Tools\MSVC\14.28.29333\include\vector

; 1733 :         return _Mypair._Get_first();

  00062	8b 45 d8	 mov	 eax, DWORD PTR $T2[ebp]
  00065	89 45 cc	 mov	 DWORD PTR $T1[ebp], eax

; 1696 :             _Getal().deallocate(_Myfirst, static_cast<size_type>(_Myend - _Myfirst));

  00068	8b 45 ec	 mov	 eax, DWORD PTR __Myend$[ebp]
  0006b	8b 4d fc	 mov	 ecx, DWORD PTR __Myfirst$[ebp]
  0006e	8b 00		 mov	 eax, DWORD PTR [eax]
  00070	2b 01		 sub	 eax, DWORD PTR [ecx]
  00072	c1 f8 02	 sar	 eax, 2
  00075	89 45 d4	 mov	 DWORD PTR __Count$[ebp], eax
  00078	8b 45 fc	 mov	 eax, DWORD PTR __Myfirst$[ebp]
  0007b	8b 00		 mov	 eax, DWORD PTR [eax]
  0007d	89 45 d0	 mov	 DWORD PTR __Ptr$[ebp], eax
; File C:\Program Files (x86)\Microsoft Visual Studio\2019\Community\VC\Tools\MSVC\14.28.29333\include\xmemory

; 810  :         _Deallocate<_New_alignof<_Ty>>(_Ptr, sizeof(_Ty) * _Count);

  00080	8b 45 d4	 mov	 eax, DWORD PTR __Count$[ebp]
  00083	c1 e0 02	 shl	 eax, 2
  00086	50		 push	 eax
  00087	ff 75 d0	 push	 DWORD PTR __Ptr$[ebp]
  0008a	e8 00 00 00 00	 call	 ??$_Deallocate@$07$0A@@std@@YAXPAXI@Z ; std::_Deallocate<8,0>
  0008f	59		 pop	 ecx
  00090	59		 pop	 ecx
; File C:\Program Files (x86)\Microsoft Visual Studio\2019\Community\VC\Tools\MSVC\14.28.29333\include\vector

; 1698 :             _Myfirst = pointer();

  00091	8b 45 fc	 mov	 eax, DWORD PTR __Myfirst$[ebp]
  00094	83 20 00	 and	 DWORD PTR [eax], 0

; 1699 :             _Mylast  = pointer();

  00097	8b 45 f0	 mov	 eax, DWORD PTR __Mylast$[ebp]
  0009a	83 20 00	 and	 DWORD PTR [eax], 0

; 1700 :             _Myend   = pointer();

  0009d	8b 45 ec	 mov	 eax, DWORD PTR __Myend$[ebp]
  000a0	83 20 00	 and	 DWORD PTR [eax], 0
$LN3@Tidy:

; 1701 :         }
; 1702 :     }

  000a3	c9		 leave
  000a4	c3		 ret	 0
?_Tidy@?$vector@PAVCHeaderDecorator@NEffectUpdateDecorator@@V?$allocator@PAVCHeaderDecorator@NEffectUpdateDecorator@@@std@@@std@@AAEXXZ ENDP ; std::vector<NEffectUpdateDecorator::CHeaderDecorator *,std::allocator<NEffectUpdateDecorator::CHeaderDecorator *> >::_Tidy
_TEXT	ENDS
; Function compile flags: /Odspy
; File C:\Program Files (x86)\Microsoft Visual Studio\2019\Community\VC\Tools\MSVC\14.28.29333\include\vector
; File C:\Program Files (x86)\Microsoft Visual Studio\2019\Community\VC\Tools\MSVC\14.28.29333\include\xmemory
; File C:\Program Files (x86)\Microsoft Visual Studio\2019\Community\VC\Tools\MSVC\14.28.29333\include\vector
;	COMDAT ?clear@?$vector@PAVCHeaderDecorator@NEffectUpdateDecorator@@V?$allocator@PAVCHeaderDecorator@NEffectUpdateDecorator@@@std@@@std@@QAEXXZ
_TEXT	SEGMENT
__First$ = -32						; size = 4
__Last$ = -28						; size = 4
$T1 = -24						; size = 4
$T2 = -20						; size = 4
__Myfirst$ = -16					; size = 4
__Mylast$ = -12						; size = 4
_this$ = -8						; size = 4
__My_data$ = -4						; size = 4
?clear@?$vector@PAVCHeaderDecorator@NEffectUpdateDecorator@@V?$allocator@PAVCHeaderDecorator@NEffectUpdateDecorator@@@std@@@std@@QAEXXZ PROC ; std::vector<NEffectUpdateDecorator::CHeaderDecorator *,std::allocator<NEffectUpdateDecorator::CHeaderDecorator *> >::clear, COMDAT
; _this$ = ecx

; 1383 :     void clear() noexcept { // erase all

  00000	55		 push	 ebp
  00001	8b ec		 mov	 ebp, esp
  00003	83 ec 20	 sub	 esp, 32			; 00000020H
  00006	89 4d f8	 mov	 DWORD PTR _this$[ebp], ecx

; 1384 :         auto& _My_data    = _Mypair._Myval2;

  00009	8b 45 f8	 mov	 eax, DWORD PTR _this$[ebp]
  0000c	89 45 fc	 mov	 DWORD PTR __My_data$[ebp], eax

; 1385 :         pointer& _Myfirst = _My_data._Myfirst;

  0000f	8b 45 fc	 mov	 eax, DWORD PTR __My_data$[ebp]
  00012	89 45 f0	 mov	 DWORD PTR __Myfirst$[ebp], eax

; 1386 :         pointer& _Mylast  = _My_data._Mylast;

  00015	8b 45 fc	 mov	 eax, DWORD PTR __My_data$[ebp]
  00018	83 c0 04	 add	 eax, 4
  0001b	89 45 f4	 mov	 DWORD PTR __Mylast$[ebp], eax

; 1387 : 
; 1388 :         _My_data._Orphan_all();
; 1389 :         _Destroy(_Myfirst, _Mylast);

  0001e	8b 45 f4	 mov	 eax, DWORD PTR __Mylast$[ebp]
  00021	8b 00		 mov	 eax, DWORD PTR [eax]
  00023	89 45 e4	 mov	 DWORD PTR __Last$[ebp], eax
  00026	8b 45 f0	 mov	 eax, DWORD PTR __Myfirst$[ebp]
  00029	8b 00		 mov	 eax, DWORD PTR [eax]
  0002b	89 45 e0	 mov	 DWORD PTR __First$[ebp], eax

; 1733 :         return _Mypair._Get_first();

  0002e	8b 45 f8	 mov	 eax, DWORD PTR _this$[ebp]
; File C:\Program Files (x86)\Microsoft Visual Studio\2019\Community\VC\Tools\MSVC\14.28.29333\include\xmemory

; 1347 :         return *this;

  00031	89 45 ec	 mov	 DWORD PTR $T2[ebp], eax
; File C:\Program Files (x86)\Microsoft Visual Studio\2019\Community\VC\Tools\MSVC\14.28.29333\include\vector

; 1733 :         return _Mypair._Get_first();

  00034	8b 45 ec	 mov	 eax, DWORD PTR $T2[ebp]
  00037	89 45 e8	 mov	 DWORD PTR $T1[ebp], eax

; 1612 :         _Destroy_range(_First, _Last, _Getal());

  0003a	ff 75 e8	 push	 DWORD PTR $T1[ebp]
  0003d	ff 75 e4	 push	 DWORD PTR __Last$[ebp]
  00040	ff 75 e0	 push	 DWORD PTR __First$[ebp]
  00043	e8 00 00 00 00	 call	 ??$_Destroy_range@V?$allocator@PAVCHeaderDecorator@NEffectUpdateDecorator@@@std@@@std@@YAXPAPAVCHeaderDecorator@NEffectUpdateDecorator@@QAPAV12@AAV?$allocator@PAVCHeaderDecorator@NEffectUpdateDecorator@@@0@@Z ; std::_Destroy_range<std::allocator<NEffectUpdateDecorator::CHeaderDecorator *> >
  00048	83 c4 0c	 add	 esp, 12			; 0000000cH

; 1390 :         _Mylast = _Myfirst;

  0004b	8b 45 f4	 mov	 eax, DWORD PTR __Mylast$[ebp]
  0004e	8b 4d f0	 mov	 ecx, DWORD PTR __Myfirst$[ebp]
  00051	8b 09		 mov	 ecx, DWORD PTR [ecx]
  00053	89 08		 mov	 DWORD PTR [eax], ecx

; 1391 :     }

  00055	c9		 leave
  00056	c3		 ret	 0
?clear@?$vector@PAVCHeaderDecorator@NEffectUpdateDecorator@@V?$allocator@PAVCHeaderDecorator@NEffectUpdateDecorator@@@std@@@std@@QAEXXZ ENDP ; std::vector<NEffectUpdateDecorator::CHeaderDecorator *,std::allocator<NEffectUpdateDecorator::CHeaderDecorator *> >::clear
_TEXT	ENDS
; Function compile flags: /Odspy
; File D:\Metin2 Server Files\mainline\SRC_2014\Metin2Client\eterLib\Pool.h
;	COMDAT ?Delete@?$CDynamicPoolEx@VCHeaderDecorator@NEffectUpdateDecorator@@@@KAXPAVCHeaderDecorator@NEffectUpdateDecorator@@@Z
_TEXT	SEGMENT
_pkData$ = 8						; size = 4
?Delete@?$CDynamicPoolEx@VCHeaderDecorator@NEffectUpdateDecorator@@@@KAXPAVCHeaderDecorator@NEffectUpdateDecorator@@@Z PROC ; CDynamicPoolEx<NEffectUpdateDecorator::CHeaderDecorator>::Delete, COMDAT

; 223  : 		{

  00000	55		 push	 ebp
  00001	8b ec		 mov	 ebp, esp

; 224  : 			::operator delete(pkData);

  00003	ff 75 08	 push	 DWORD PTR _pkData$[ebp]
  00006	e8 00 00 00 00	 call	 ??3@YAXPAX@Z		; operator delete
  0000b	59		 pop	 ecx

; 225  : 		}

  0000c	5d		 pop	 ebp
  0000d	c3		 ret	 0
?Delete@?$CDynamicPoolEx@VCHeaderDecorator@NEffectUpdateDecorator@@@@KAXPAVCHeaderDecorator@NEffectUpdateDecorator@@@Z ENDP ; CDynamicPoolEx<NEffectUpdateDecorator::CHeaderDecorator>::Delete
_TEXT	ENDS
; Function compile flags: /Odspy
; File D:\Metin2 Server Files\mainline\SRC_2014\Metin2Client\eterLib\Pool.h
; File C:\Program Files (x86)\Microsoft Visual Studio\2019\Community\VC\Tools\MSVC\14.28.29333\include\vector
; File C:\Program Files (x86)\Microsoft Visual Studio\2019\Community\VC\Tools\MSVC\14.28.29333\include\xstddef
; File C:\Program Files (x86)\Microsoft Visual Studio\2019\Community\VC\Tools\MSVC\14.28.29333\include\vector
; File C:\Program Files (x86)\Microsoft Visual Studio\2019\Community\VC\Tools\MSVC\14.28.29333\include\xstddef
; File C:\Program Files (x86)\Microsoft Visual Studio\2019\Community\VC\Tools\MSVC\14.28.29333\include\vector
; File D:\Metin2 Server Files\mainline\SRC_2014\Metin2Client\eterLib\Pool.h
;	COMDAT ?Destroy@?$CDynamicPoolEx@VCHeaderDecorator@NEffectUpdateDecorator@@@@QAEXXZ
_TEXT	SEGMENT
$T1 = -44						; size = 4
$T2 = -40						; size = 4
$T3 = -36						; size = 4
$T4 = -32						; size = 4
$T5 = -28						; size = 4
___param0$ = -24					; size = 4
$T6 = -20						; size = 4
___param0$ = -16					; size = 4
__My_data$7 = -12					; size = 4
__My_data$8 = -8					; size = 4
_this$ = -4						; size = 4
?Destroy@?$CDynamicPoolEx@VCHeaderDecorator@NEffectUpdateDecorator@@@@QAEXXZ PROC ; CDynamicPoolEx<NEffectUpdateDecorator::CHeaderDecorator>::Destroy, COMDAT
; _this$ = ecx

; 150  : 		{

  00000	55		 push	 ebp
  00001	8b ec		 mov	 ebp, esp
  00003	83 ec 2c	 sub	 esp, 44			; 0000002cH
  00006	89 4d fc	 mov	 DWORD PTR _this$[ebp], ecx
; File C:\Program Files (x86)\Microsoft Visual Studio\2019\Community\VC\Tools\MSVC\14.28.29333\include\vector

; 1420 :         auto& _My_data = _Mypair._Myval2;

  00009	8b 45 fc	 mov	 eax, DWORD PTR _this$[ebp]
  0000c	83 c0 04	 add	 eax, 4
  0000f	89 45 f8	 mov	 DWORD PTR __My_data$8[ebp], eax
; File C:\Program Files (x86)\Microsoft Visual Studio\2019\Community\VC\Tools\MSVC\14.28.29333\include\xstddef

; 275  :     return __builtin_addressof(_Val);

  00012	8b 45 f8	 mov	 eax, DWORD PTR __My_data$8[ebp]
  00015	89 45 d8	 mov	 DWORD PTR $T2[ebp], eax
; File C:\Program Files (x86)\Microsoft Visual Studio\2019\Community\VC\Tools\MSVC\14.28.29333\include\vector

; 1421 :         return iterator(_My_data._Mylast, _STD addressof(_My_data));

  00018	8b 45 f8	 mov	 eax, DWORD PTR __My_data$8[ebp]
  0001b	8b 40 04	 mov	 eax, DWORD PTR [eax+4]
  0001e	89 45 f0	 mov	 DWORD PTR ___param0$[ebp], eax

; 42   :     _Vector_const_iterator(_Tptr _Parg, const _Container_base* _Pvector) noexcept : _Ptr(_Parg) {

  00021	8b 45 f0	 mov	 eax, DWORD PTR ___param0$[ebp]
  00024	89 45 ec	 mov	 DWORD PTR $T6[ebp], eax

; 1421 :         return iterator(_My_data._Mylast, _STD addressof(_My_data));

  00027	8d 45 ec	 lea	 eax, DWORD PTR $T6[ebp]
  0002a	89 45 e0	 mov	 DWORD PTR $T4[ebp], eax

; 1410 :         auto& _My_data = _Mypair._Myval2;

  0002d	8b 45 fc	 mov	 eax, DWORD PTR _this$[ebp]
  00030	83 c0 04	 add	 eax, 4
  00033	89 45 f4	 mov	 DWORD PTR __My_data$7[ebp], eax
; File C:\Program Files (x86)\Microsoft Visual Studio\2019\Community\VC\Tools\MSVC\14.28.29333\include\xstddef

; 275  :     return __builtin_addressof(_Val);

  00036	8b 45 f4	 mov	 eax, DWORD PTR __My_data$7[ebp]
  00039	89 45 d4	 mov	 DWORD PTR $T1[ebp], eax
; File C:\Program Files (x86)\Microsoft Visual Studio\2019\Community\VC\Tools\MSVC\14.28.29333\include\vector

; 1411 :         return iterator(_My_data._Myfirst, _STD addressof(_My_data));

  0003c	8b 45 f4	 mov	 eax, DWORD PTR __My_data$7[ebp]
  0003f	8b 00		 mov	 eax, DWORD PTR [eax]
  00041	89 45 e8	 mov	 DWORD PTR ___param0$[ebp], eax

; 42   :     _Vector_const_iterator(_Tptr _Parg, const _Container_base* _Pvector) noexcept : _Ptr(_Parg) {

  00044	8b 45 e8	 mov	 eax, DWORD PTR ___param0$[ebp]
  00047	89 45 e4	 mov	 DWORD PTR $T5[ebp], eax

; 1411 :         return iterator(_My_data._Myfirst, _STD addressof(_My_data));

  0004a	8d 45 e4	 lea	 eax, DWORD PTR $T5[ebp]
  0004d	89 45 dc	 mov	 DWORD PTR $T3[ebp], eax
; File D:\Metin2 Server Files\mainline\SRC_2014\Metin2Client\eterLib\Pool.h

; 160  : 			std::for_each(m_kVct_pkData.begin(), m_kVct_pkData.end(), Delete);

  00050	68 00 00 00 00	 push	 OFFSET ?Delete@?$CDynamicPoolEx@VCHeaderDecorator@NEffectUpdateDecorator@@@@KAXPAVCHeaderDecorator@NEffectUpdateDecorator@@@Z ; CDynamicPoolEx<NEffectUpdateDecorator::CHeaderDecorator>::Delete
  00055	8b 45 e0	 mov	 eax, DWORD PTR $T4[ebp]
  00058	ff 30		 push	 DWORD PTR [eax]
  0005a	8b 45 dc	 mov	 eax, DWORD PTR $T3[ebp]
  0005d	ff 30		 push	 DWORD PTR [eax]
  0005f	e8 00 00 00 00	 call	 ??$for_each@V?$_Vector_iterator@V?$_Vector_val@U?$_Simple_types@PAVCHeaderDecorator@NEffectUpdateDecorator@@@std@@@std@@@std@@P6AXPAVCHeaderDecorator@NEffectUpdateDecorator@@@Z@std@@YAP6AXPAVCHeaderDecorator@NEffectUpdateDecorator@@@ZV?$_Vector_iterator@V?$_Vector_val@U?$_Simple_types@PAVCHeaderDecorator@NEffectUpdateDecorator@@@std@@@std@@@0@1P6AX0@Z@Z ; std::for_each<std::_Vector_iterator<std::_Vector_val<std::_Simple_types<NEffectUpdateDecorator::CHeaderDecorator *> > >,void (__cdecl*)(NEffectUpdateDecorator::CHeaderDecorator *)>
  00064	83 c4 0c	 add	 esp, 12			; 0000000cH

; 161  : 			m_kVct_pkData.clear();

  00067	8b 4d fc	 mov	 ecx, DWORD PTR _this$[ebp]
  0006a	83 c1 04	 add	 ecx, 4
  0006d	e8 00 00 00 00	 call	 ?clear@?$vector@PAVCHeaderDecorator@NEffectUpdateDecorator@@V?$allocator@PAVCHeaderDecorator@NEffectUpdateDecorator@@@std@@@std@@QAEXXZ ; std::vector<NEffectUpdateDecorator::CHeaderDecorator *,std::allocator<NEffectUpdateDecorator::CHeaderDecorator *> >::clear

; 162  : 			m_kVct_pkFree.clear();

  00072	8b 4d fc	 mov	 ecx, DWORD PTR _this$[ebp]
  00075	83 c1 10	 add	 ecx, 16			; 00000010H
  00078	e8 00 00 00 00	 call	 ?clear@?$vector@PAVCHeaderDecorator@NEffectUpdateDecorator@@V?$allocator@PAVCHeaderDecorator@NEffectUpdateDecorator@@@std@@@std@@QAEXXZ ; std::vector<NEffectUpdateDecorator::CHeaderDecorator *,std::allocator<NEffectUpdateDecorator::CHeaderDecorator *> >::clear

; 163  : 		}

  0007d	c9		 leave
  0007e	c3		 ret	 0
?Destroy@?$CDynamicPoolEx@VCHeaderDecorator@NEffectUpdateDecorator@@@@QAEXXZ ENDP ; CDynamicPoolEx<NEffectUpdateDecorator::CHeaderDecorator>::Destroy
_TEXT	ENDS
; Function compile flags: /Odspy
; File D:\Metin2 Server Files\mainline\SRC_2014\Metin2Client\eterLib\Pool.h
; File C:\Program Files (x86)\Microsoft Visual Studio\2019\Community\VC\Tools\MSVC\14.28.29333\include\vector
; File D:\Metin2 Server Files\mainline\SRC_2014\Metin2Client\eterLib\Pool.h
; File C:\Program Files (x86)\Microsoft Visual Studio\2019\Community\VC\Tools\MSVC\14.28.29333\include\vector
; File D:\Metin2 Server Files\mainline\SRC_2014\Metin2Client\eterLib\Pool.h
;	COMDAT ??1?$CDynamicPoolEx@VCHeaderDecorator@NEffectUpdateDecorator@@@@UAE@XZ
_TEXT	SEGMENT
_this$ = -16						; size = 4
__$EHRec$ = -12						; size = 12
??1?$CDynamicPoolEx@VCHeaderDecorator@NEffectUpdateDecorator@@@@UAE@XZ PROC ; CDynamicPoolEx<NEffectUpdateDecorator::CHeaderDecorator>::~CDynamicPoolEx<NEffectUpdateDecorator::CHeaderDecorator>, COMDAT
; _this$ = ecx

; 132  : 		{

  00000	55		 push	 ebp
  00001	8b ec		 mov	 ebp, esp
  00003	6a ff		 push	 -1
  00005	68 00 00 00 00	 push	 __ehhandler$??1?$CDynamicPoolEx@VCHeaderDecorator@NEffectUpdateDecorator@@@@UAE@XZ
  0000a	64 a1 00 00 00
	00		 mov	 eax, DWORD PTR fs:0
  00010	50		 push	 eax
  00011	51		 push	 ecx
  00012	a1 00 00 00 00	 mov	 eax, DWORD PTR ___security_cookie
  00017	33 c5		 xor	 eax, ebp
  00019	50		 push	 eax
  0001a	8d 45 f4	 lea	 eax, DWORD PTR __$EHRec$[ebp]
  0001d	64 a3 00 00 00
	00		 mov	 DWORD PTR fs:0, eax
  00023	89 4d f0	 mov	 DWORD PTR _this$[ebp], ecx
  00026	8b 45 f0	 mov	 eax, DWORD PTR _this$[ebp]
  00029	c7 00 00 00 00
	00		 mov	 DWORD PTR [eax], OFFSET ??_7?$CDynamicPoolEx@VCHeaderDecorator@NEffectUpdateDecorator@@@@6B@

; 133  : 			assert(m_kVct_pkFree.size()==m_kVct_pkData.size());
; 134  : 			Destroy();

  0002f	8b 4d f0	 mov	 ecx, DWORD PTR _this$[ebp]
  00032	e8 00 00 00 00	 call	 ?Destroy@?$CDynamicPoolEx@VCHeaderDecorator@NEffectUpdateDecorator@@@@QAEXXZ ; CDynamicPoolEx<NEffectUpdateDecorator::CHeaderDecorator>::Destroy

; 142  : 		}

  00037	8b 4d f0	 mov	 ecx, DWORD PTR _this$[ebp]
  0003a	83 c1 10	 add	 ecx, 16			; 00000010H
; File C:\Program Files (x86)\Microsoft Visual Studio\2019\Community\VC\Tools\MSVC\14.28.29333\include\vector

; 673  :         _Tidy();

  0003d	e8 00 00 00 00	 call	 ?_Tidy@?$vector@PAVCHeaderDecorator@NEffectUpdateDecorator@@V?$allocator@PAVCHeaderDecorator@NEffectUpdateDecorator@@@std@@@std@@AAEXXZ ; std::vector<NEffectUpdateDecorator::CHeaderDecorator *,std::allocator<NEffectUpdateDecorator::CHeaderDecorator *> >::_Tidy
; File D:\Metin2 Server Files\mainline\SRC_2014\Metin2Client\eterLib\Pool.h

; 142  : 		}

  00042	8b 4d f0	 mov	 ecx, DWORD PTR _this$[ebp]
  00045	83 c1 04	 add	 ecx, 4
; File C:\Program Files (x86)\Microsoft Visual Studio\2019\Community\VC\Tools\MSVC\14.28.29333\include\vector

; 673  :         _Tidy();

  00048	e8 00 00 00 00	 call	 ?_Tidy@?$vector@PAVCHeaderDecorator@NEffectUpdateDecorator@@V?$allocator@PAVCHeaderDecorator@NEffectUpdateDecorator@@@std@@@std@@AAEXXZ ; std::vector<NEffectUpdateDecorator::CHeaderDecorator *,std::allocator<NEffectUpdateDecorator::CHeaderDecorator *> >::_Tidy
; File D:\Metin2 Server Files\mainline\SRC_2014\Metin2Client\eterLib\Pool.h

; 142  : 		}

  0004d	8b 4d f4	 mov	 ecx, DWORD PTR __$EHRec$[ebp]
  00050	64 89 0d 00 00
	00 00		 mov	 DWORD PTR fs:0, ecx
  00057	59		 pop	 ecx
  00058	c9		 leave
  00059	c3		 ret	 0
  0005a	cc		 int	 3
  0005b	cc		 int	 3
  0005c	cc		 int	 3
  0005d	cc		 int	 3
  0005e	cc		 int	 3
_TEXT	ENDS
;	COMDAT text$x
text$x	SEGMENT
__ehhandler$??1?$CDynamicPoolEx@VCHeaderDecorator@NEffectUpdateDecorator@@@@UAE@XZ:
  00000	90		 npad	 1
  00001	90		 npad	 1
  00002	8b 54 24 08	 mov	 edx, DWORD PTR [esp+8]
  00006	8d 42 0c	 lea	 eax, DWORD PTR [edx+12]
  00009	8b 4a f8	 mov	 ecx, DWORD PTR [edx-8]
  0000c	33 c8		 xor	 ecx, eax
  0000e	e8 00 00 00 00	 call	 @__security_check_cookie@4
  00013	b8 00 00 00 00	 mov	 eax, OFFSET __ehfuncinfo$??1?$CDynamicPoolEx@VCHeaderDecorator@NEffectUpdateDecorator@@@@UAE@XZ
  00018	e9 00 00 00 00	 jmp	 ___CxxFrameHandler3
text$x	ENDS
??1?$CDynamicPoolEx@VCHeaderDecorator@NEffectUpdateDecorator@@@@UAE@XZ ENDP ; CDynamicPoolEx<NEffectUpdateDecorator::CHeaderDecorator>::~CDynamicPoolEx<NEffectUpdateDecorator::CHeaderDecorator>
; Function compile flags: /Odspy
; File D:\Metin2 Server Files\mainline\SRC_2014\Metin2Client\eterLib\Pool.h
; File C:\Program Files (x86)\Microsoft Visual Studio\2019\Community\VC\Tools\MSVC\14.28.29333\include\vector
; File C:\Program Files (x86)\Microsoft Visual Studio\2019\Community\VC\Tools\MSVC\14.28.29333\include\xmemory
; File C:\Program Files (x86)\Microsoft Visual Studio\2019\Community\VC\Tools\MSVC\14.28.29333\include\vector
; File D:\Metin2 Server Files\mainline\SRC_2014\Metin2Client\eterLib\Pool.h
; File C:\Program Files (x86)\Microsoft Visual Studio\2019\Community\VC\Tools\MSVC\14.28.29333\include\vector
; File C:\Program Files (x86)\Microsoft Visual Studio\2019\Community\VC\Tools\MSVC\14.28.29333\include\xmemory
; File C:\Program Files (x86)\Microsoft Visual Studio\2019\Community\VC\Tools\MSVC\14.28.29333\include\vector
; File D:\Metin2 Server Files\mainline\SRC_2014\Metin2Client\eterLib\Pool.h
;	COMDAT ??0?$CDynamicPoolEx@VCHeaderDecorator@NEffectUpdateDecorator@@@@QAE@XZ
_TEXT	SEGMENT
_this$ = -28						; size = 4
_this$ = -24						; size = 4
_this$ = -20						; size = 4
_this$ = -16						; size = 4
_this$1 = -12						; size = 4
_this$2 = -8						; size = 4
_this$ = -4						; size = 4
??0?$CDynamicPoolEx@VCHeaderDecorator@NEffectUpdateDecorator@@@@QAE@XZ PROC ; CDynamicPoolEx<NEffectUpdateDecorator::CHeaderDecorator>::CDynamicPoolEx<NEffectUpdateDecorator::CHeaderDecorator>, COMDAT
; _this$ = ecx

; 126  : 		CDynamicPoolEx()

  00000	55		 push	 ebp
  00001	8b ec		 mov	 ebp, esp
  00003	83 ec 1c	 sub	 esp, 28			; 0000001cH
  00006	89 4d fc	 mov	 DWORD PTR _this$[ebp], ecx

; 127  : 		{

  00009	8b 45 fc	 mov	 eax, DWORD PTR _this$[ebp]
  0000c	c7 00 00 00 00
	00		 mov	 DWORD PTR [eax], OFFSET ??_7?$CDynamicPoolEx@VCHeaderDecorator@NEffectUpdateDecorator@@@@6B@
  00012	8b 45 fc	 mov	 eax, DWORD PTR _this$[ebp]
  00015	83 c0 04	 add	 eax, 4
  00018	89 45 f0	 mov	 DWORD PTR _this$[ebp], eax
; File C:\Program Files (x86)\Microsoft Visual Studio\2019\Community\VC\Tools\MSVC\14.28.29333\include\vector

; 445  :     vector() noexcept(is_nothrow_default_constructible_v<_Alty>) : _Mypair(_Zero_then_variadic_args_t{}) {

  0001b	8b 45 f0	 mov	 eax, DWORD PTR _this$[ebp]
  0001e	89 45 ec	 mov	 DWORD PTR _this$[ebp], eax
; File C:\Program Files (x86)\Microsoft Visual Studio\2019\Community\VC\Tools\MSVC\14.28.29333\include\xmemory

; 1339 :         : _Ty1(), _Myval2(_STD forward<_Other2>(_Val2)...) {}

  00021	8b 45 ec	 mov	 eax, DWORD PTR _this$[ebp]
  00024	89 45 f8	 mov	 DWORD PTR _this$2[ebp], eax
; File C:\Program Files (x86)\Microsoft Visual Studio\2019\Community\VC\Tools\MSVC\14.28.29333\include\vector

; 375  :     _Vector_val() noexcept : _Myfirst(), _Mylast(), _Myend() {}

  00027	8b 45 f8	 mov	 eax, DWORD PTR _this$2[ebp]
  0002a	83 20 00	 and	 DWORD PTR [eax], 0
  0002d	8b 45 f8	 mov	 eax, DWORD PTR _this$2[ebp]
  00030	83 60 04 00	 and	 DWORD PTR [eax+4], 0
  00034	8b 45 f8	 mov	 eax, DWORD PTR _this$2[ebp]
  00037	83 60 08 00	 and	 DWORD PTR [eax+8], 0
; File D:\Metin2 Server Files\mainline\SRC_2014\Metin2Client\eterLib\Pool.h

; 127  : 		{

  0003b	8b 45 fc	 mov	 eax, DWORD PTR _this$[ebp]
  0003e	83 c0 10	 add	 eax, 16			; 00000010H
  00041	89 45 e8	 mov	 DWORD PTR _this$[ebp], eax
; File C:\Program Files (x86)\Microsoft Visual Studio\2019\Community\VC\Tools\MSVC\14.28.29333\include\vector

; 445  :     vector() noexcept(is_nothrow_default_constructible_v<_Alty>) : _Mypair(_Zero_then_variadic_args_t{}) {

  00044	8b 45 e8	 mov	 eax, DWORD PTR _this$[ebp]
  00047	89 45 e4	 mov	 DWORD PTR _this$[ebp], eax
; File C:\Program Files (x86)\Microsoft Visual Studio\2019\Community\VC\Tools\MSVC\14.28.29333\include\xmemory

; 1339 :         : _Ty1(), _Myval2(_STD forward<_Other2>(_Val2)...) {}

  0004a	8b 45 e4	 mov	 eax, DWORD PTR _this$[ebp]
  0004d	89 45 f4	 mov	 DWORD PTR _this$1[ebp], eax
; File C:\Program Files (x86)\Microsoft Visual Studio\2019\Community\VC\Tools\MSVC\14.28.29333\include\vector

; 375  :     _Vector_val() noexcept : _Myfirst(), _Mylast(), _Myend() {}

  00050	8b 45 f4	 mov	 eax, DWORD PTR _this$1[ebp]
  00053	83 20 00	 and	 DWORD PTR [eax], 0
  00056	8b 45 f4	 mov	 eax, DWORD PTR _this$1[ebp]
  00059	83 60 04 00	 and	 DWORD PTR [eax+4], 0
  0005d	8b 45 f4	 mov	 eax, DWORD PTR _this$1[ebp]
  00060	83 60 08 00	 and	 DWORD PTR [eax+8], 0
; File D:\Metin2 Server Files\mainline\SRC_2014\Metin2Client\eterLib\Pool.h

; 128  : 			m_uInitCapacity=0;

  00064	8b 45 fc	 mov	 eax, DWORD PTR _this$[ebp]
  00067	83 60 1c 00	 and	 DWORD PTR [eax+28], 0

; 129  : 			m_uUsedCapacity=0;

  0006b	8b 45 fc	 mov	 eax, DWORD PTR _this$[ebp]
  0006e	83 60 20 00	 and	 DWORD PTR [eax+32], 0

; 130  : 		}

  00072	8b 45 fc	 mov	 eax, DWORD PTR _this$[ebp]
  00075	c9		 leave
  00076	c3		 ret	 0
??0?$CDynamicPoolEx@VCHeaderDecorator@NEffectUpdateDecorator@@@@QAE@XZ ENDP ; CDynamicPoolEx<NEffectUpdateDecorator::CHeaderDecorator>::CDynamicPoolEx<NEffectUpdateDecorator::CHeaderDecorator>
_TEXT	ENDS
; Function compile flags: /Odspy
;	COMDAT ??_G?$CDynamicPoolEx@VCNullDecorator@NEffectUpdateDecorator@@@@UAEPAXI@Z
_TEXT	SEGMENT
_this$ = -4						; size = 4
___flags$ = 8						; size = 4
??_G?$CDynamicPoolEx@VCNullDecorator@NEffectUpdateDecorator@@@@UAEPAXI@Z PROC ; CDynamicPoolEx<NEffectUpdateDecorator::CNullDecorator>::`scalar deleting destructor', COMDAT
; _this$ = ecx
  00000	55		 push	 ebp
  00001	8b ec		 mov	 ebp, esp
  00003	51		 push	 ecx
  00004	89 4d fc	 mov	 DWORD PTR _this$[ebp], ecx
  00007	8b 4d fc	 mov	 ecx, DWORD PTR _this$[ebp]
  0000a	e8 00 00 00 00	 call	 ??1?$CDynamicPoolEx@VCNullDecorator@NEffectUpdateDecorator@@@@UAE@XZ ; CDynamicPoolEx<NEffectUpdateDecorator::CNullDecorator>::~CDynamicPoolEx<NEffectUpdateDecorator::CNullDecorator>
  0000f	8b 45 08	 mov	 eax, DWORD PTR ___flags$[ebp]
  00012	83 e0 01	 and	 eax, 1
  00015	74 0c		 je	 SHORT $LN2@scalar
  00017	6a 24		 push	 36			; 00000024H
  00019	ff 75 fc	 push	 DWORD PTR _this$[ebp]
  0001c	e8 00 00 00 00	 call	 ??3@YAXPAXI@Z		; operator delete
  00021	59		 pop	 ecx
  00022	59		 pop	 ecx
$LN2@scalar:
  00023	8b 45 fc	 mov	 eax, DWORD PTR _this$[ebp]
  00026	c9		 leave
  00027	c2 04 00	 ret	 4
??_G?$CDynamicPoolEx@VCNullDecorator@NEffectUpdateDecorator@@@@UAEPAXI@Z ENDP ; CDynamicPoolEx<NEffectUpdateDecorator::CNullDecorator>::`scalar deleting destructor'
_TEXT	ENDS
; Function compile flags: /Odspy
; File C:\Program Files (x86)\Microsoft Visual Studio\2019\Community\VC\Tools\MSVC\14.28.29333\include\vector
; File C:\Program Files (x86)\Microsoft Visual Studio\2019\Community\VC\Tools\MSVC\14.28.29333\include\xmemory
; File C:\Program Files (x86)\Microsoft Visual Studio\2019\Community\VC\Tools\MSVC\14.28.29333\include\vector
; File C:\Program Files (x86)\Microsoft Visual Studio\2019\Community\VC\Tools\MSVC\14.28.29333\include\xmemory
; File C:\Program Files (x86)\Microsoft Visual Studio\2019\Community\VC\Tools\MSVC\14.28.29333\include\vector
; File C:\Program Files (x86)\Microsoft Visual Studio\2019\Community\VC\Tools\MSVC\14.28.29333\include\xmemory
; File C:\Program Files (x86)\Microsoft Visual Studio\2019\Community\VC\Tools\MSVC\14.28.29333\include\vector
;	COMDAT ?_Tidy@?$vector@PAVCNullDecorator@NEffectUpdateDecorator@@V?$allocator@PAVCNullDecorator@NEffectUpdateDecorator@@@std@@@std@@AAEXXZ
_TEXT	SEGMENT
$T1 = -52						; size = 4
__Ptr$ = -48						; size = 4
__Count$ = -44						; size = 4
$T2 = -40						; size = 4
__First$ = -36						; size = 4
__Last$ = -32						; size = 4
$T3 = -28						; size = 4
$T4 = -24						; size = 4
__Myend$ = -20						; size = 4
__Mylast$ = -16						; size = 4
_this$ = -12						; size = 4
__My_data$ = -8						; size = 4
__Myfirst$ = -4						; size = 4
?_Tidy@?$vector@PAVCNullDecorator@NEffectUpdateDecorator@@V?$allocator@PAVCNullDecorator@NEffectUpdateDecorator@@@std@@@std@@AAEXXZ PROC ; std::vector<NEffectUpdateDecorator::CNullDecorator *,std::allocator<NEffectUpdateDecorator::CNullDecorator *> >::_Tidy, COMDAT
; _this$ = ecx

; 1686 :     void _Tidy() noexcept { // free all storage

  00000	55		 push	 ebp
  00001	8b ec		 mov	 ebp, esp
  00003	83 ec 34	 sub	 esp, 52			; 00000034H
  00006	89 4d f4	 mov	 DWORD PTR _this$[ebp], ecx

; 1687 :         auto& _My_data    = _Mypair._Myval2;

  00009	8b 45 f4	 mov	 eax, DWORD PTR _this$[ebp]
  0000c	89 45 f8	 mov	 DWORD PTR __My_data$[ebp], eax

; 1688 :         pointer& _Myfirst = _My_data._Myfirst;

  0000f	8b 45 f8	 mov	 eax, DWORD PTR __My_data$[ebp]
  00012	89 45 fc	 mov	 DWORD PTR __Myfirst$[ebp], eax

; 1689 :         pointer& _Mylast  = _My_data._Mylast;

  00015	8b 45 f8	 mov	 eax, DWORD PTR __My_data$[ebp]
  00018	83 c0 04	 add	 eax, 4
  0001b	89 45 f0	 mov	 DWORD PTR __Mylast$[ebp], eax

; 1690 :         pointer& _Myend   = _My_data._Myend;

  0001e	8b 45 f8	 mov	 eax, DWORD PTR __My_data$[ebp]
  00021	83 c0 08	 add	 eax, 8
  00024	89 45 ec	 mov	 DWORD PTR __Myend$[ebp], eax

; 1691 : 
; 1692 :         _My_data._Orphan_all();
; 1693 : 
; 1694 :         if (_Myfirst) { // destroy and deallocate old array

  00027	8b 45 fc	 mov	 eax, DWORD PTR __Myfirst$[ebp]
  0002a	83 38 00	 cmp	 DWORD PTR [eax], 0
  0002d	74 74		 je	 SHORT $LN3@Tidy

; 1695 :             _Destroy(_Myfirst, _Mylast);

  0002f	8b 45 f0	 mov	 eax, DWORD PTR __Mylast$[ebp]
  00032	8b 00		 mov	 eax, DWORD PTR [eax]
  00034	89 45 e0	 mov	 DWORD PTR __Last$[ebp], eax
  00037	8b 45 fc	 mov	 eax, DWORD PTR __Myfirst$[ebp]
  0003a	8b 00		 mov	 eax, DWORD PTR [eax]
  0003c	89 45 dc	 mov	 DWORD PTR __First$[ebp], eax

; 1733 :         return _Mypair._Get_first();

  0003f	8b 45 f4	 mov	 eax, DWORD PTR _this$[ebp]
; File C:\Program Files (x86)\Microsoft Visual Studio\2019\Community\VC\Tools\MSVC\14.28.29333\include\xmemory

; 1347 :         return *this;

  00042	89 45 e8	 mov	 DWORD PTR $T4[ebp], eax
; File C:\Program Files (x86)\Microsoft Visual Studio\2019\Community\VC\Tools\MSVC\14.28.29333\include\vector

; 1733 :         return _Mypair._Get_first();

  00045	8b 45 e8	 mov	 eax, DWORD PTR $T4[ebp]
  00048	89 45 e4	 mov	 DWORD PTR $T3[ebp], eax

; 1612 :         _Destroy_range(_First, _Last, _Getal());

  0004b	ff 75 e4	 push	 DWORD PTR $T3[ebp]
  0004e	ff 75 e0	 push	 DWORD PTR __Last$[ebp]
  00051	ff 75 dc	 push	 DWORD PTR __First$[ebp]
  00054	e8 00 00 00 00	 call	 ??$_Destroy_range@V?$allocator@PAVCNullDecorator@NEffectUpdateDecorator@@@std@@@std@@YAXPAPAVCNullDecorator@NEffectUpdateDecorator@@QAPAV12@AAV?$allocator@PAVCNullDecorator@NEffectUpdateDecorator@@@0@@Z ; std::_Destroy_range<std::allocator<NEffectUpdateDecorator::CNullDecorator *> >
  00059	83 c4 0c	 add	 esp, 12			; 0000000cH

; 1733 :         return _Mypair._Get_first();

  0005c	8b 45 f4	 mov	 eax, DWORD PTR _this$[ebp]
; File C:\Program Files (x86)\Microsoft Visual Studio\2019\Community\VC\Tools\MSVC\14.28.29333\include\xmemory

; 1347 :         return *this;

  0005f	89 45 d8	 mov	 DWORD PTR $T2[ebp], eax
; File C:\Program Files (x86)\Microsoft Visual Studio\2019\Community\VC\Tools\MSVC\14.28.29333\include\vector

; 1733 :         return _Mypair._Get_first();

  00062	8b 45 d8	 mov	 eax, DWORD PTR $T2[ebp]
  00065	89 45 cc	 mov	 DWORD PTR $T1[ebp], eax

; 1696 :             _Getal().deallocate(_Myfirst, static_cast<size_type>(_Myend - _Myfirst));

  00068	8b 45 ec	 mov	 eax, DWORD PTR __Myend$[ebp]
  0006b	8b 4d fc	 mov	 ecx, DWORD PTR __Myfirst$[ebp]
  0006e	8b 00		 mov	 eax, DWORD PTR [eax]
  00070	2b 01		 sub	 eax, DWORD PTR [ecx]
  00072	c1 f8 02	 sar	 eax, 2
  00075	89 45 d4	 mov	 DWORD PTR __Count$[ebp], eax
  00078	8b 45 fc	 mov	 eax, DWORD PTR __Myfirst$[ebp]
  0007b	8b 00		 mov	 eax, DWORD PTR [eax]
  0007d	89 45 d0	 mov	 DWORD PTR __Ptr$[ebp], eax
; File C:\Program Files (x86)\Microsoft Visual Studio\2019\Community\VC\Tools\MSVC\14.28.29333\include\xmemory

; 810  :         _Deallocate<_New_alignof<_Ty>>(_Ptr, sizeof(_Ty) * _Count);

  00080	8b 45 d4	 mov	 eax, DWORD PTR __Count$[ebp]
  00083	c1 e0 02	 shl	 eax, 2
  00086	50		 push	 eax
  00087	ff 75 d0	 push	 DWORD PTR __Ptr$[ebp]
  0008a	e8 00 00 00 00	 call	 ??$_Deallocate@$07$0A@@std@@YAXPAXI@Z ; std::_Deallocate<8,0>
  0008f	59		 pop	 ecx
  00090	59		 pop	 ecx
; File C:\Program Files (x86)\Microsoft Visual Studio\2019\Community\VC\Tools\MSVC\14.28.29333\include\vector

; 1698 :             _Myfirst = pointer();

  00091	8b 45 fc	 mov	 eax, DWORD PTR __Myfirst$[ebp]
  00094	83 20 00	 and	 DWORD PTR [eax], 0

; 1699 :             _Mylast  = pointer();

  00097	8b 45 f0	 mov	 eax, DWORD PTR __Mylast$[ebp]
  0009a	83 20 00	 and	 DWORD PTR [eax], 0

; 1700 :             _Myend   = pointer();

  0009d	8b 45 ec	 mov	 eax, DWORD PTR __Myend$[ebp]
  000a0	83 20 00	 and	 DWORD PTR [eax], 0
$LN3@Tidy:

; 1701 :         }
; 1702 :     }

  000a3	c9		 leave
  000a4	c3		 ret	 0
?_Tidy@?$vector@PAVCNullDecorator@NEffectUpdateDecorator@@V?$allocator@PAVCNullDecorator@NEffectUpdateDecorator@@@std@@@std@@AAEXXZ ENDP ; std::vector<NEffectUpdateDecorator::CNullDecorator *,std::allocator<NEffectUpdateDecorator::CNullDecorator *> >::_Tidy
_TEXT	ENDS
; Function compile flags: /Odspy
; File C:\Program Files (x86)\Microsoft Visual Studio\2019\Community\VC\Tools\MSVC\14.28.29333\include\vector
; File C:\Program Files (x86)\Microsoft Visual Studio\2019\Community\VC\Tools\MSVC\14.28.29333\include\xmemory
; File C:\Program Files (x86)\Microsoft Visual Studio\2019\Community\VC\Tools\MSVC\14.28.29333\include\vector
;	COMDAT ?clear@?$vector@PAVCNullDecorator@NEffectUpdateDecorator@@V?$allocator@PAVCNullDecorator@NEffectUpdateDecorator@@@std@@@std@@QAEXXZ
_TEXT	SEGMENT
__First$ = -32						; size = 4
__Last$ = -28						; size = 4
$T1 = -24						; size = 4
$T2 = -20						; size = 4
__Myfirst$ = -16					; size = 4
__Mylast$ = -12						; size = 4
_this$ = -8						; size = 4
__My_data$ = -4						; size = 4
?clear@?$vector@PAVCNullDecorator@NEffectUpdateDecorator@@V?$allocator@PAVCNullDecorator@NEffectUpdateDecorator@@@std@@@std@@QAEXXZ PROC ; std::vector<NEffectUpdateDecorator::CNullDecorator *,std::allocator<NEffectUpdateDecorator::CNullDecorator *> >::clear, COMDAT
; _this$ = ecx

; 1383 :     void clear() noexcept { // erase all

  00000	55		 push	 ebp
  00001	8b ec		 mov	 ebp, esp
  00003	83 ec 20	 sub	 esp, 32			; 00000020H
  00006	89 4d f8	 mov	 DWORD PTR _this$[ebp], ecx

; 1384 :         auto& _My_data    = _Mypair._Myval2;

  00009	8b 45 f8	 mov	 eax, DWORD PTR _this$[ebp]
  0000c	89 45 fc	 mov	 DWORD PTR __My_data$[ebp], eax

; 1385 :         pointer& _Myfirst = _My_data._Myfirst;

  0000f	8b 45 fc	 mov	 eax, DWORD PTR __My_data$[ebp]
  00012	89 45 f0	 mov	 DWORD PTR __Myfirst$[ebp], eax

; 1386 :         pointer& _Mylast  = _My_data._Mylast;

  00015	8b 45 fc	 mov	 eax, DWORD PTR __My_data$[ebp]
  00018	83 c0 04	 add	 eax, 4
  0001b	89 45 f4	 mov	 DWORD PTR __Mylast$[ebp], eax

; 1387 : 
; 1388 :         _My_data._Orphan_all();
; 1389 :         _Destroy(_Myfirst, _Mylast);

  0001e	8b 45 f4	 mov	 eax, DWORD PTR __Mylast$[ebp]
  00021	8b 00		 mov	 eax, DWORD PTR [eax]
  00023	89 45 e4	 mov	 DWORD PTR __Last$[ebp], eax
  00026	8b 45 f0	 mov	 eax, DWORD PTR __Myfirst$[ebp]
  00029	8b 00		 mov	 eax, DWORD PTR [eax]
  0002b	89 45 e0	 mov	 DWORD PTR __First$[ebp], eax

; 1733 :         return _Mypair._Get_first();

  0002e	8b 45 f8	 mov	 eax, DWORD PTR _this$[ebp]
; File C:\Program Files (x86)\Microsoft Visual Studio\2019\Community\VC\Tools\MSVC\14.28.29333\include\xmemory

; 1347 :         return *this;

  00031	89 45 ec	 mov	 DWORD PTR $T2[ebp], eax
; File C:\Program Files (x86)\Microsoft Visual Studio\2019\Community\VC\Tools\MSVC\14.28.29333\include\vector

; 1733 :         return _Mypair._Get_first();

  00034	8b 45 ec	 mov	 eax, DWORD PTR $T2[ebp]
  00037	89 45 e8	 mov	 DWORD PTR $T1[ebp], eax

; 1612 :         _Destroy_range(_First, _Last, _Getal());

  0003a	ff 75 e8	 push	 DWORD PTR $T1[ebp]
  0003d	ff 75 e4	 push	 DWORD PTR __Last$[ebp]
  00040	ff 75 e0	 push	 DWORD PTR __First$[ebp]
  00043	e8 00 00 00 00	 call	 ??$_Destroy_range@V?$allocator@PAVCNullDecorator@NEffectUpdateDecorator@@@std@@@std@@YAXPAPAVCNullDecorator@NEffectUpdateDecorator@@QAPAV12@AAV?$allocator@PAVCNullDecorator@NEffectUpdateDecorator@@@0@@Z ; std::_Destroy_range<std::allocator<NEffectUpdateDecorator::CNullDecorator *> >
  00048	83 c4 0c	 add	 esp, 12			; 0000000cH

; 1390 :         _Mylast = _Myfirst;

  0004b	8b 45 f4	 mov	 eax, DWORD PTR __Mylast$[ebp]
  0004e	8b 4d f0	 mov	 ecx, DWORD PTR __Myfirst$[ebp]
  00051	8b 09		 mov	 ecx, DWORD PTR [ecx]
  00053	89 08		 mov	 DWORD PTR [eax], ecx

; 1391 :     }

  00055	c9		 leave
  00056	c3		 ret	 0
?clear@?$vector@PAVCNullDecorator@NEffectUpdateDecorator@@V?$allocator@PAVCNullDecorator@NEffectUpdateDecorator@@@std@@@std@@QAEXXZ ENDP ; std::vector<NEffectUpdateDecorator::CNullDecorator *,std::allocator<NEffectUpdateDecorator::CNullDecorator *> >::clear
_TEXT	ENDS
; Function compile flags: /Odspy
; File D:\Metin2 Server Files\mainline\SRC_2014\Metin2Client\eterLib\Pool.h
;	COMDAT ?Delete@?$CDynamicPoolEx@VCNullDecorator@NEffectUpdateDecorator@@@@KAXPAVCNullDecorator@NEffectUpdateDecorator@@@Z
_TEXT	SEGMENT
_pkData$ = 8						; size = 4
?Delete@?$CDynamicPoolEx@VCNullDecorator@NEffectUpdateDecorator@@@@KAXPAVCNullDecorator@NEffectUpdateDecorator@@@Z PROC ; CDynamicPoolEx<NEffectUpdateDecorator::CNullDecorator>::Delete, COMDAT

; 223  : 		{

  00000	55		 push	 ebp
  00001	8b ec		 mov	 ebp, esp

; 224  : 			::operator delete(pkData);

  00003	ff 75 08	 push	 DWORD PTR _pkData$[ebp]
  00006	e8 00 00 00 00	 call	 ??3@YAXPAX@Z		; operator delete
  0000b	59		 pop	 ecx

; 225  : 		}

  0000c	5d		 pop	 ebp
  0000d	c3		 ret	 0
?Delete@?$CDynamicPoolEx@VCNullDecorator@NEffectUpdateDecorator@@@@KAXPAVCNullDecorator@NEffectUpdateDecorator@@@Z ENDP ; CDynamicPoolEx<NEffectUpdateDecorator::CNullDecorator>::Delete
_TEXT	ENDS
; Function compile flags: /Odspy
; File D:\Metin2 Server Files\mainline\SRC_2014\Metin2Client\eterLib\Pool.h
; File C:\Program Files (x86)\Microsoft Visual Studio\2019\Community\VC\Tools\MSVC\14.28.29333\include\vector
; File C:\Program Files (x86)\Microsoft Visual Studio\2019\Community\VC\Tools\MSVC\14.28.29333\include\xstddef
; File C:\Program Files (x86)\Microsoft Visual Studio\2019\Community\VC\Tools\MSVC\14.28.29333\include\vector
; File C:\Program Files (x86)\Microsoft Visual Studio\2019\Community\VC\Tools\MSVC\14.28.29333\include\xstddef
; File C:\Program Files (x86)\Microsoft Visual Studio\2019\Community\VC\Tools\MSVC\14.28.29333\include\vector
; File D:\Metin2 Server Files\mainline\SRC_2014\Metin2Client\eterLib\Pool.h
;	COMDAT ?Destroy@?$CDynamicPoolEx@VCNullDecorator@NEffectUpdateDecorator@@@@QAEXXZ
_TEXT	SEGMENT
$T1 = -44						; size = 4
$T2 = -40						; size = 4
$T3 = -36						; size = 4
$T4 = -32						; size = 4
$T5 = -28						; size = 4
___param0$ = -24					; size = 4
$T6 = -20						; size = 4
___param0$ = -16					; size = 4
__My_data$7 = -12					; size = 4
__My_data$8 = -8					; size = 4
_this$ = -4						; size = 4
?Destroy@?$CDynamicPoolEx@VCNullDecorator@NEffectUpdateDecorator@@@@QAEXXZ PROC ; CDynamicPoolEx<NEffectUpdateDecorator::CNullDecorator>::Destroy, COMDAT
; _this$ = ecx

; 150  : 		{

  00000	55		 push	 ebp
  00001	8b ec		 mov	 ebp, esp
  00003	83 ec 2c	 sub	 esp, 44			; 0000002cH
  00006	89 4d fc	 mov	 DWORD PTR _this$[ebp], ecx
; File C:\Program Files (x86)\Microsoft Visual Studio\2019\Community\VC\Tools\MSVC\14.28.29333\include\vector

; 1420 :         auto& _My_data = _Mypair._Myval2;

  00009	8b 45 fc	 mov	 eax, DWORD PTR _this$[ebp]
  0000c	83 c0 04	 add	 eax, 4
  0000f	89 45 f8	 mov	 DWORD PTR __My_data$8[ebp], eax
; File C:\Program Files (x86)\Microsoft Visual Studio\2019\Community\VC\Tools\MSVC\14.28.29333\include\xstddef

; 275  :     return __builtin_addressof(_Val);

  00012	8b 45 f8	 mov	 eax, DWORD PTR __My_data$8[ebp]
  00015	89 45 d8	 mov	 DWORD PTR $T2[ebp], eax
; File C:\Program Files (x86)\Microsoft Visual Studio\2019\Community\VC\Tools\MSVC\14.28.29333\include\vector

; 1421 :         return iterator(_My_data._Mylast, _STD addressof(_My_data));

  00018	8b 45 f8	 mov	 eax, DWORD PTR __My_data$8[ebp]
  0001b	8b 40 04	 mov	 eax, DWORD PTR [eax+4]
  0001e	89 45 f0	 mov	 DWORD PTR ___param0$[ebp], eax

; 42   :     _Vector_const_iterator(_Tptr _Parg, const _Container_base* _Pvector) noexcept : _Ptr(_Parg) {

  00021	8b 45 f0	 mov	 eax, DWORD PTR ___param0$[ebp]
  00024	89 45 ec	 mov	 DWORD PTR $T6[ebp], eax

; 1421 :         return iterator(_My_data._Mylast, _STD addressof(_My_data));

  00027	8d 45 ec	 lea	 eax, DWORD PTR $T6[ebp]
  0002a	89 45 e0	 mov	 DWORD PTR $T4[ebp], eax

; 1410 :         auto& _My_data = _Mypair._Myval2;

  0002d	8b 45 fc	 mov	 eax, DWORD PTR _this$[ebp]
  00030	83 c0 04	 add	 eax, 4
  00033	89 45 f4	 mov	 DWORD PTR __My_data$7[ebp], eax
; File C:\Program Files (x86)\Microsoft Visual Studio\2019\Community\VC\Tools\MSVC\14.28.29333\include\xstddef

; 275  :     return __builtin_addressof(_Val);

  00036	8b 45 f4	 mov	 eax, DWORD PTR __My_data$7[ebp]
  00039	89 45 d4	 mov	 DWORD PTR $T1[ebp], eax
; File C:\Program Files (x86)\Microsoft Visual Studio\2019\Community\VC\Tools\MSVC\14.28.29333\include\vector

; 1411 :         return iterator(_My_data._Myfirst, _STD addressof(_My_data));

  0003c	8b 45 f4	 mov	 eax, DWORD PTR __My_data$7[ebp]
  0003f	8b 00		 mov	 eax, DWORD PTR [eax]
  00041	89 45 e8	 mov	 DWORD PTR ___param0$[ebp], eax

; 42   :     _Vector_const_iterator(_Tptr _Parg, const _Container_base* _Pvector) noexcept : _Ptr(_Parg) {

  00044	8b 45 e8	 mov	 eax, DWORD PTR ___param0$[ebp]
  00047	89 45 e4	 mov	 DWORD PTR $T5[ebp], eax

; 1411 :         return iterator(_My_data._Myfirst, _STD addressof(_My_data));

  0004a	8d 45 e4	 lea	 eax, DWORD PTR $T5[ebp]
  0004d	89 45 dc	 mov	 DWORD PTR $T3[ebp], eax
; File D:\Metin2 Server Files\mainline\SRC_2014\Metin2Client\eterLib\Pool.h

; 160  : 			std::for_each(m_kVct_pkData.begin(), m_kVct_pkData.end(), Delete);

  00050	68 00 00 00 00	 push	 OFFSET ?Delete@?$CDynamicPoolEx@VCNullDecorator@NEffectUpdateDecorator@@@@KAXPAVCNullDecorator@NEffectUpdateDecorator@@@Z ; CDynamicPoolEx<NEffectUpdateDecorator::CNullDecorator>::Delete
  00055	8b 45 e0	 mov	 eax, DWORD PTR $T4[ebp]
  00058	ff 30		 push	 DWORD PTR [eax]
  0005a	8b 45 dc	 mov	 eax, DWORD PTR $T3[ebp]
  0005d	ff 30		 push	 DWORD PTR [eax]
  0005f	e8 00 00 00 00	 call	 ??$for_each@V?$_Vector_iterator@V?$_Vector_val@U?$_Simple_types@PAVCNullDecorator@NEffectUpdateDecorator@@@std@@@std@@@std@@P6AXPAVCNullDecorator@NEffectUpdateDecorator@@@Z@std@@YAP6AXPAVCNullDecorator@NEffectUpdateDecorator@@@ZV?$_Vector_iterator@V?$_Vector_val@U?$_Simple_types@PAVCNullDecorator@NEffectUpdateDecorator@@@std@@@std@@@0@1P6AX0@Z@Z ; std::for_each<std::_Vector_iterator<std::_Vector_val<std::_Simple_types<NEffectUpdateDecorator::CNullDecorator *> > >,void (__cdecl*)(NEffectUpdateDecorator::CNullDecorator *)>
  00064	83 c4 0c	 add	 esp, 12			; 0000000cH

; 161  : 			m_kVct_pkData.clear();

  00067	8b 4d fc	 mov	 ecx, DWORD PTR _this$[ebp]
  0006a	83 c1 04	 add	 ecx, 4
  0006d	e8 00 00 00 00	 call	 ?clear@?$vector@PAVCNullDecorator@NEffectUpdateDecorator@@V?$allocator@PAVCNullDecorator@NEffectUpdateDecorator@@@std@@@std@@QAEXXZ ; std::vector<NEffectUpdateDecorator::CNullDecorator *,std::allocator<NEffectUpdateDecorator::CNullDecorator *> >::clear

; 162  : 			m_kVct_pkFree.clear();

  00072	8b 4d fc	 mov	 ecx, DWORD PTR _this$[ebp]
  00075	83 c1 10	 add	 ecx, 16			; 00000010H
  00078	e8 00 00 00 00	 call	 ?clear@?$vector@PAVCNullDecorator@NEffectUpdateDecorator@@V?$allocator@PAVCNullDecorator@NEffectUpdateDecorator@@@std@@@std@@QAEXXZ ; std::vector<NEffectUpdateDecorator::CNullDecorator *,std::allocator<NEffectUpdateDecorator::CNullDecorator *> >::clear

; 163  : 		}

  0007d	c9		 leave
  0007e	c3		 ret	 0
?Destroy@?$CDynamicPoolEx@VCNullDecorator@NEffectUpdateDecorator@@@@QAEXXZ ENDP ; CDynamicPoolEx<NEffectUpdateDecorator::CNullDecorator>::Destroy
_TEXT	ENDS
; Function compile flags: /Odspy
; File D:\Metin2 Server Files\mainline\SRC_2014\Metin2Client\eterLib\Pool.h
; File C:\Program Files (x86)\Microsoft Visual Studio\2019\Community\VC\Tools\MSVC\14.28.29333\include\vector
; File D:\Metin2 Server Files\mainline\SRC_2014\Metin2Client\eterLib\Pool.h
; File C:\Program Files (x86)\Microsoft Visual Studio\2019\Community\VC\Tools\MSVC\14.28.29333\include\vector
; File D:\Metin2 Server Files\mainline\SRC_2014\Metin2Client\eterLib\Pool.h
;	COMDAT ??1?$CDynamicPoolEx@VCNullDecorator@NEffectUpdateDecorator@@@@UAE@XZ
_TEXT	SEGMENT
_this$ = -16						; size = 4
__$EHRec$ = -12						; size = 12
??1?$CDynamicPoolEx@VCNullDecorator@NEffectUpdateDecorator@@@@UAE@XZ PROC ; CDynamicPoolEx<NEffectUpdateDecorator::CNullDecorator>::~CDynamicPoolEx<NEffectUpdateDecorator::CNullDecorator>, COMDAT
; _this$ = ecx

; 132  : 		{

  00000	55		 push	 ebp
  00001	8b ec		 mov	 ebp, esp
  00003	6a ff		 push	 -1
  00005	68 00 00 00 00	 push	 __ehhandler$??1?$CDynamicPoolEx@VCNullDecorator@NEffectUpdateDecorator@@@@UAE@XZ
  0000a	64 a1 00 00 00
	00		 mov	 eax, DWORD PTR fs:0
  00010	50		 push	 eax
  00011	51		 push	 ecx
  00012	a1 00 00 00 00	 mov	 eax, DWORD PTR ___security_cookie
  00017	33 c5		 xor	 eax, ebp
  00019	50		 push	 eax
  0001a	8d 45 f4	 lea	 eax, DWORD PTR __$EHRec$[ebp]
  0001d	64 a3 00 00 00
	00		 mov	 DWORD PTR fs:0, eax
  00023	89 4d f0	 mov	 DWORD PTR _this$[ebp], ecx
  00026	8b 45 f0	 mov	 eax, DWORD PTR _this$[ebp]
  00029	c7 00 00 00 00
	00		 mov	 DWORD PTR [eax], OFFSET ??_7?$CDynamicPoolEx@VCNullDecorator@NEffectUpdateDecorator@@@@6B@

; 133  : 			assert(m_kVct_pkFree.size()==m_kVct_pkData.size());
; 134  : 			Destroy();

  0002f	8b 4d f0	 mov	 ecx, DWORD PTR _this$[ebp]
  00032	e8 00 00 00 00	 call	 ?Destroy@?$CDynamicPoolEx@VCNullDecorator@NEffectUpdateDecorator@@@@QAEXXZ ; CDynamicPoolEx<NEffectUpdateDecorator::CNullDecorator>::Destroy

; 142  : 		}

  00037	8b 4d f0	 mov	 ecx, DWORD PTR _this$[ebp]
  0003a	83 c1 10	 add	 ecx, 16			; 00000010H
; File C:\Program Files (x86)\Microsoft Visual Studio\2019\Community\VC\Tools\MSVC\14.28.29333\include\vector

; 673  :         _Tidy();

  0003d	e8 00 00 00 00	 call	 ?_Tidy@?$vector@PAVCNullDecorator@NEffectUpdateDecorator@@V?$allocator@PAVCNullDecorator@NEffectUpdateDecorator@@@std@@@std@@AAEXXZ ; std::vector<NEffectUpdateDecorator::CNullDecorator *,std::allocator<NEffectUpdateDecorator::CNullDecorator *> >::_Tidy
; File D:\Metin2 Server Files\mainline\SRC_2014\Metin2Client\eterLib\Pool.h

; 142  : 		}

  00042	8b 4d f0	 mov	 ecx, DWORD PTR _this$[ebp]
  00045	83 c1 04	 add	 ecx, 4
; File C:\Program Files (x86)\Microsoft Visual Studio\2019\Community\VC\Tools\MSVC\14.28.29333\include\vector

; 673  :         _Tidy();

  00048	e8 00 00 00 00	 call	 ?_Tidy@?$vector@PAVCNullDecorator@NEffectUpdateDecorator@@V?$allocator@PAVCNullDecorator@NEffectUpdateDecorator@@@std@@@std@@AAEXXZ ; std::vector<NEffectUpdateDecorator::CNullDecorator *,std::allocator<NEffectUpdateDecorator::CNullDecorator *> >::_Tidy
; File D:\Metin2 Server Files\mainline\SRC_2014\Metin2Client\eterLib\Pool.h

; 142  : 		}

  0004d	8b 4d f4	 mov	 ecx, DWORD PTR __$EHRec$[ebp]
  00050	64 89 0d 00 00
	00 00		 mov	 DWORD PTR fs:0, ecx
  00057	59		 pop	 ecx
  00058	c9		 leave
  00059	c3		 ret	 0
  0005a	cc		 int	 3
  0005b	cc		 int	 3
  0005c	cc		 int	 3
  0005d	cc		 int	 3
  0005e	cc		 int	 3
_TEXT	ENDS
;	COMDAT text$x
text$x	SEGMENT
__ehhandler$??1?$CDynamicPoolEx@VCNullDecorator@NEffectUpdateDecorator@@@@UAE@XZ:
  00000	90		 npad	 1
  00001	90		 npad	 1
  00002	8b 54 24 08	 mov	 edx, DWORD PTR [esp+8]
  00006	8d 42 0c	 lea	 eax, DWORD PTR [edx+12]
  00009	8b 4a f8	 mov	 ecx, DWORD PTR [edx-8]
  0000c	33 c8		 xor	 ecx, eax
  0000e	e8 00 00 00 00	 call	 @__security_check_cookie@4
  00013	b8 00 00 00 00	 mov	 eax, OFFSET __ehfuncinfo$??1?$CDynamicPoolEx@VCNullDecorator@NEffectUpdateDecorator@@@@UAE@XZ
  00018	e9 00 00 00 00	 jmp	 ___CxxFrameHandler3
text$x	ENDS
??1?$CDynamicPoolEx@VCNullDecorator@NEffectUpdateDecorator@@@@UAE@XZ ENDP ; CDynamicPoolEx<NEffectUpdateDecorator::CNullDecorator>::~CDynamicPoolEx<NEffectUpdateDecorator::CNullDecorator>
; Function compile flags: /Odspy
; File D:\Metin2 Server Files\mainline\SRC_2014\Metin2Client\eterLib\Pool.h
; File C:\Program Files (x86)\Microsoft Visual Studio\2019\Community\VC\Tools\MSVC\14.28.29333\include\vector
; File C:\Program Files (x86)\Microsoft Visual Studio\2019\Community\VC\Tools\MSVC\14.28.29333\include\xmemory
; File C:\Program Files (x86)\Microsoft Visual Studio\2019\Community\VC\Tools\MSVC\14.28.29333\include\vector
; File D:\Metin2 Server Files\mainline\SRC_2014\Metin2Client\eterLib\Pool.h
; File C:\Program Files (x86)\Microsoft Visual Studio\2019\Community\VC\Tools\MSVC\14.28.29333\include\vector
; File C:\Program Files (x86)\Microsoft Visual Studio\2019\Community\VC\Tools\MSVC\14.28.29333\include\xmemory
; File C:\Program Files (x86)\Microsoft Visual Studio\2019\Community\VC\Tools\MSVC\14.28.29333\include\vector
; File D:\Metin2 Server Files\mainline\SRC_2014\Metin2Client\eterLib\Pool.h
;	COMDAT ??0?$CDynamicPoolEx@VCNullDecorator@NEffectUpdateDecorator@@@@QAE@XZ
_TEXT	SEGMENT
_this$ = -28						; size = 4
_this$ = -24						; size = 4
_this$ = -20						; size = 4
_this$ = -16						; size = 4
_this$1 = -12						; size = 4
_this$2 = -8						; size = 4
_this$ = -4						; size = 4
??0?$CDynamicPoolEx@VCNullDecorator@NEffectUpdateDecorator@@@@QAE@XZ PROC ; CDynamicPoolEx<NEffectUpdateDecorator::CNullDecorator>::CDynamicPoolEx<NEffectUpdateDecorator::CNullDecorator>, COMDAT
; _this$ = ecx

; 126  : 		CDynamicPoolEx()

  00000	55		 push	 ebp
  00001	8b ec		 mov	 ebp, esp
  00003	83 ec 1c	 sub	 esp, 28			; 0000001cH
  00006	89 4d fc	 mov	 DWORD PTR _this$[ebp], ecx

; 127  : 		{

  00009	8b 45 fc	 mov	 eax, DWORD PTR _this$[ebp]
  0000c	c7 00 00 00 00
	00		 mov	 DWORD PTR [eax], OFFSET ??_7?$CDynamicPoolEx@VCNullDecorator@NEffectUpdateDecorator@@@@6B@
  00012	8b 45 fc	 mov	 eax, DWORD PTR _this$[ebp]
  00015	83 c0 04	 add	 eax, 4
  00018	89 45 f0	 mov	 DWORD PTR _this$[ebp], eax
; File C:\Program Files (x86)\Microsoft Visual Studio\2019\Community\VC\Tools\MSVC\14.28.29333\include\vector

; 445  :     vector() noexcept(is_nothrow_default_constructible_v<_Alty>) : _Mypair(_Zero_then_variadic_args_t{}) {

  0001b	8b 45 f0	 mov	 eax, DWORD PTR _this$[ebp]
  0001e	89 45 ec	 mov	 DWORD PTR _this$[ebp], eax
; File C:\Program Files (x86)\Microsoft Visual Studio\2019\Community\VC\Tools\MSVC\14.28.29333\include\xmemory

; 1339 :         : _Ty1(), _Myval2(_STD forward<_Other2>(_Val2)...) {}

  00021	8b 45 ec	 mov	 eax, DWORD PTR _this$[ebp]
  00024	89 45 f8	 mov	 DWORD PTR _this$2[ebp], eax
; File C:\Program Files (x86)\Microsoft Visual Studio\2019\Community\VC\Tools\MSVC\14.28.29333\include\vector

; 375  :     _Vector_val() noexcept : _Myfirst(), _Mylast(), _Myend() {}

  00027	8b 45 f8	 mov	 eax, DWORD PTR _this$2[ebp]
  0002a	83 20 00	 and	 DWORD PTR [eax], 0
  0002d	8b 45 f8	 mov	 eax, DWORD PTR _this$2[ebp]
  00030	83 60 04 00	 and	 DWORD PTR [eax+4], 0
  00034	8b 45 f8	 mov	 eax, DWORD PTR _this$2[ebp]
  00037	83 60 08 00	 and	 DWORD PTR [eax+8], 0
; File D:\Metin2 Server Files\mainline\SRC_2014\Metin2Client\eterLib\Pool.h

; 127  : 		{

  0003b	8b 45 fc	 mov	 eax, DWORD PTR _this$[ebp]
  0003e	83 c0 10	 add	 eax, 16			; 00000010H
  00041	89 45 e8	 mov	 DWORD PTR _this$[ebp], eax
; File C:\Program Files (x86)\Microsoft Visual Studio\2019\Community\VC\Tools\MSVC\14.28.29333\include\vector

; 445  :     vector() noexcept(is_nothrow_default_constructible_v<_Alty>) : _Mypair(_Zero_then_variadic_args_t{}) {

  00044	8b 45 e8	 mov	 eax, DWORD PTR _this$[ebp]
  00047	89 45 e4	 mov	 DWORD PTR _this$[ebp], eax
; File C:\Program Files (x86)\Microsoft Visual Studio\2019\Community\VC\Tools\MSVC\14.28.29333\include\xmemory

; 1339 :         : _Ty1(), _Myval2(_STD forward<_Other2>(_Val2)...) {}

  0004a	8b 45 e4	 mov	 eax, DWORD PTR _this$[ebp]
  0004d	89 45 f4	 mov	 DWORD PTR _this$1[ebp], eax
; File C:\Program Files (x86)\Microsoft Visual Studio\2019\Community\VC\Tools\MSVC\14.28.29333\include\vector

; 375  :     _Vector_val() noexcept : _Myfirst(), _Mylast(), _Myend() {}

  00050	8b 45 f4	 mov	 eax, DWORD PTR _this$1[ebp]
  00053	83 20 00	 and	 DWORD PTR [eax], 0
  00056	8b 45 f4	 mov	 eax, DWORD PTR _this$1[ebp]
  00059	83 60 04 00	 and	 DWORD PTR [eax+4], 0
  0005d	8b 45 f4	 mov	 eax, DWORD PTR _this$1[ebp]
  00060	83 60 08 00	 and	 DWORD PTR [eax+8], 0
; File D:\Metin2 Server Files\mainline\SRC_2014\Metin2Client\eterLib\Pool.h

; 128  : 			m_uInitCapacity=0;

  00064	8b 45 fc	 mov	 eax, DWORD PTR _this$[ebp]
  00067	83 60 1c 00	 and	 DWORD PTR [eax+28], 0

; 129  : 			m_uUsedCapacity=0;

  0006b	8b 45 fc	 mov	 eax, DWORD PTR _this$[ebp]
  0006e	83 60 20 00	 and	 DWORD PTR [eax+32], 0

; 130  : 		}

  00072	8b 45 fc	 mov	 eax, DWORD PTR _this$[ebp]
  00075	c9		 leave
  00076	c3		 ret	 0
??0?$CDynamicPoolEx@VCNullDecorator@NEffectUpdateDecorator@@@@QAE@XZ ENDP ; CDynamicPoolEx<NEffectUpdateDecorator::CNullDecorator>::CDynamicPoolEx<NEffectUpdateDecorator::CNullDecorator>
_TEXT	ENDS
; Function compile flags: /Odspy
;	COMDAT ??_G?$CDynamicPoolEx@VCTextureAnimationCWDecorator@NEffectUpdateDecorator@@@@UAEPAXI@Z
_TEXT	SEGMENT
_this$ = -4						; size = 4
___flags$ = 8						; size = 4
??_G?$CDynamicPoolEx@VCTextureAnimationCWDecorator@NEffectUpdateDecorator@@@@UAEPAXI@Z PROC ; CDynamicPoolEx<NEffectUpdateDecorator::CTextureAnimationCWDecorator>::`scalar deleting destructor', COMDAT
; _this$ = ecx
  00000	55		 push	 ebp
  00001	8b ec		 mov	 ebp, esp
  00003	51		 push	 ecx
  00004	89 4d fc	 mov	 DWORD PTR _this$[ebp], ecx
  00007	8b 4d fc	 mov	 ecx, DWORD PTR _this$[ebp]
  0000a	e8 00 00 00 00	 call	 ??1?$CDynamicPoolEx@VCTextureAnimationCWDecorator@NEffectUpdateDecorator@@@@UAE@XZ ; CDynamicPoolEx<NEffectUpdateDecorator::CTextureAnimationCWDecorator>::~CDynamicPoolEx<NEffectUpdateDecorator::CTextureAnimationCWDecorator>
  0000f	8b 45 08	 mov	 eax, DWORD PTR ___flags$[ebp]
  00012	83 e0 01	 and	 eax, 1
  00015	74 0c		 je	 SHORT $LN2@scalar
  00017	6a 24		 push	 36			; 00000024H
  00019	ff 75 fc	 push	 DWORD PTR _this$[ebp]
  0001c	e8 00 00 00 00	 call	 ??3@YAXPAXI@Z		; operator delete
  00021	59		 pop	 ecx
  00022	59		 pop	 ecx
$LN2@scalar:
  00023	8b 45 fc	 mov	 eax, DWORD PTR _this$[ebp]
  00026	c9		 leave
  00027	c2 04 00	 ret	 4
??_G?$CDynamicPoolEx@VCTextureAnimationCWDecorator@NEffectUpdateDecorator@@@@UAEPAXI@Z ENDP ; CDynamicPoolEx<NEffectUpdateDecorator::CTextureAnimationCWDecorator>::`scalar deleting destructor'
_TEXT	ENDS
; Function compile flags: /Odspy
; File C:\Program Files (x86)\Microsoft Visual Studio\2019\Community\VC\Tools\MSVC\14.28.29333\include\vector
; File C:\Program Files (x86)\Microsoft Visual Studio\2019\Community\VC\Tools\MSVC\14.28.29333\include\xmemory
; File C:\Program Files (x86)\Microsoft Visual Studio\2019\Community\VC\Tools\MSVC\14.28.29333\include\vector
; File C:\Program Files (x86)\Microsoft Visual Studio\2019\Community\VC\Tools\MSVC\14.28.29333\include\xmemory
; File C:\Program Files (x86)\Microsoft Visual Studio\2019\Community\VC\Tools\MSVC\14.28.29333\include\vector
; File C:\Program Files (x86)\Microsoft Visual Studio\2019\Community\VC\Tools\MSVC\14.28.29333\include\xmemory
; File C:\Program Files (x86)\Microsoft Visual Studio\2019\Community\VC\Tools\MSVC\14.28.29333\include\vector
;	COMDAT ?_Tidy@?$vector@PAVCTextureAnimationCWDecorator@NEffectUpdateDecorator@@V?$allocator@PAVCTextureAnimationCWDecorator@NEffectUpdateDecorator@@@std@@@std@@AAEXXZ
_TEXT	SEGMENT
$T1 = -52						; size = 4
__Ptr$ = -48						; size = 4
__Count$ = -44						; size = 4
$T2 = -40						; size = 4
__First$ = -36						; size = 4
__Last$ = -32						; size = 4
$T3 = -28						; size = 4
$T4 = -24						; size = 4
__Myend$ = -20						; size = 4
__Mylast$ = -16						; size = 4
_this$ = -12						; size = 4
__My_data$ = -8						; size = 4
__Myfirst$ = -4						; size = 4
?_Tidy@?$vector@PAVCTextureAnimationCWDecorator@NEffectUpdateDecorator@@V?$allocator@PAVCTextureAnimationCWDecorator@NEffectUpdateDecorator@@@std@@@std@@AAEXXZ PROC ; std::vector<NEffectUpdateDecorator::CTextureAnimationCWDecorator *,std::allocator<NEffectUpdateDecorator::CTextureAnimationCWDecorator *> >::_Tidy, COMDAT
; _this$ = ecx

; 1686 :     void _Tidy() noexcept { // free all storage

  00000	55		 push	 ebp
  00001	8b ec		 mov	 ebp, esp
  00003	83 ec 34	 sub	 esp, 52			; 00000034H
  00006	89 4d f4	 mov	 DWORD PTR _this$[ebp], ecx

; 1687 :         auto& _My_data    = _Mypair._Myval2;

  00009	8b 45 f4	 mov	 eax, DWORD PTR _this$[ebp]
  0000c	89 45 f8	 mov	 DWORD PTR __My_data$[ebp], eax

; 1688 :         pointer& _Myfirst = _My_data._Myfirst;

  0000f	8b 45 f8	 mov	 eax, DWORD PTR __My_data$[ebp]
  00012	89 45 fc	 mov	 DWORD PTR __Myfirst$[ebp], eax

; 1689 :         pointer& _Mylast  = _My_data._Mylast;

  00015	8b 45 f8	 mov	 eax, DWORD PTR __My_data$[ebp]
  00018	83 c0 04	 add	 eax, 4
  0001b	89 45 f0	 mov	 DWORD PTR __Mylast$[ebp], eax

; 1690 :         pointer& _Myend   = _My_data._Myend;

  0001e	8b 45 f8	 mov	 eax, DWORD PTR __My_data$[ebp]
  00021	83 c0 08	 add	 eax, 8
  00024	89 45 ec	 mov	 DWORD PTR __Myend$[ebp], eax

; 1691 : 
; 1692 :         _My_data._Orphan_all();
; 1693 : 
; 1694 :         if (_Myfirst) { // destroy and deallocate old array

  00027	8b 45 fc	 mov	 eax, DWORD PTR __Myfirst$[ebp]
  0002a	83 38 00	 cmp	 DWORD PTR [eax], 0
  0002d	74 74		 je	 SHORT $LN3@Tidy

; 1695 :             _Destroy(_Myfirst, _Mylast);

  0002f	8b 45 f0	 mov	 eax, DWORD PTR __Mylast$[ebp]
  00032	8b 00		 mov	 eax, DWORD PTR [eax]
  00034	89 45 e0	 mov	 DWORD PTR __Last$[ebp], eax
  00037	8b 45 fc	 mov	 eax, DWORD PTR __Myfirst$[ebp]
  0003a	8b 00		 mov	 eax, DWORD PTR [eax]
  0003c	89 45 dc	 mov	 DWORD PTR __First$[ebp], eax

; 1733 :         return _Mypair._Get_first();

  0003f	8b 45 f4	 mov	 eax, DWORD PTR _this$[ebp]
; File C:\Program Files (x86)\Microsoft Visual Studio\2019\Community\VC\Tools\MSVC\14.28.29333\include\xmemory

; 1347 :         return *this;

  00042	89 45 e8	 mov	 DWORD PTR $T4[ebp], eax
; File C:\Program Files (x86)\Microsoft Visual Studio\2019\Community\VC\Tools\MSVC\14.28.29333\include\vector

; 1733 :         return _Mypair._Get_first();

  00045	8b 45 e8	 mov	 eax, DWORD PTR $T4[ebp]
  00048	89 45 e4	 mov	 DWORD PTR $T3[ebp], eax

; 1612 :         _Destroy_range(_First, _Last, _Getal());

  0004b	ff 75 e4	 push	 DWORD PTR $T3[ebp]
  0004e	ff 75 e0	 push	 DWORD PTR __Last$[ebp]
  00051	ff 75 dc	 push	 DWORD PTR __First$[ebp]
  00054	e8 00 00 00 00	 call	 ??$_Destroy_range@V?$allocator@PAVCTextureAnimationCWDecorator@NEffectUpdateDecorator@@@std@@@std@@YAXPAPAVCTextureAnimationCWDecorator@NEffectUpdateDecorator@@QAPAV12@AAV?$allocator@PAVCTextureAnimationCWDecorator@NEffectUpdateDecorator@@@0@@Z ; std::_Destroy_range<std::allocator<NEffectUpdateDecorator::CTextureAnimationCWDecorator *> >
  00059	83 c4 0c	 add	 esp, 12			; 0000000cH

; 1733 :         return _Mypair._Get_first();

  0005c	8b 45 f4	 mov	 eax, DWORD PTR _this$[ebp]
; File C:\Program Files (x86)\Microsoft Visual Studio\2019\Community\VC\Tools\MSVC\14.28.29333\include\xmemory

; 1347 :         return *this;

  0005f	89 45 d8	 mov	 DWORD PTR $T2[ebp], eax
; File C:\Program Files (x86)\Microsoft Visual Studio\2019\Community\VC\Tools\MSVC\14.28.29333\include\vector

; 1733 :         return _Mypair._Get_first();

  00062	8b 45 d8	 mov	 eax, DWORD PTR $T2[ebp]
  00065	89 45 cc	 mov	 DWORD PTR $T1[ebp], eax

; 1696 :             _Getal().deallocate(_Myfirst, static_cast<size_type>(_Myend - _Myfirst));

  00068	8b 45 ec	 mov	 eax, DWORD PTR __Myend$[ebp]
  0006b	8b 4d fc	 mov	 ecx, DWORD PTR __Myfirst$[ebp]
  0006e	8b 00		 mov	 eax, DWORD PTR [eax]
  00070	2b 01		 sub	 eax, DWORD PTR [ecx]
  00072	c1 f8 02	 sar	 eax, 2
  00075	89 45 d4	 mov	 DWORD PTR __Count$[ebp], eax
  00078	8b 45 fc	 mov	 eax, DWORD PTR __Myfirst$[ebp]
  0007b	8b 00		 mov	 eax, DWORD PTR [eax]
  0007d	89 45 d0	 mov	 DWORD PTR __Ptr$[ebp], eax
; File C:\Program Files (x86)\Microsoft Visual Studio\2019\Community\VC\Tools\MSVC\14.28.29333\include\xmemory

; 810  :         _Deallocate<_New_alignof<_Ty>>(_Ptr, sizeof(_Ty) * _Count);

  00080	8b 45 d4	 mov	 eax, DWORD PTR __Count$[ebp]
  00083	c1 e0 02	 shl	 eax, 2
  00086	50		 push	 eax
  00087	ff 75 d0	 push	 DWORD PTR __Ptr$[ebp]
  0008a	e8 00 00 00 00	 call	 ??$_Deallocate@$07$0A@@std@@YAXPAXI@Z ; std::_Deallocate<8,0>
  0008f	59		 pop	 ecx
  00090	59		 pop	 ecx
; File C:\Program Files (x86)\Microsoft Visual Studio\2019\Community\VC\Tools\MSVC\14.28.29333\include\vector

; 1698 :             _Myfirst = pointer();

  00091	8b 45 fc	 mov	 eax, DWORD PTR __Myfirst$[ebp]
  00094	83 20 00	 and	 DWORD PTR [eax], 0

; 1699 :             _Mylast  = pointer();

  00097	8b 45 f0	 mov	 eax, DWORD PTR __Mylast$[ebp]
  0009a	83 20 00	 and	 DWORD PTR [eax], 0

; 1700 :             _Myend   = pointer();

  0009d	8b 45 ec	 mov	 eax, DWORD PTR __Myend$[ebp]
  000a0	83 20 00	 and	 DWORD PTR [eax], 0
$LN3@Tidy:

; 1701 :         }
; 1702 :     }

  000a3	c9		 leave
  000a4	c3		 ret	 0
?_Tidy@?$vector@PAVCTextureAnimationCWDecorator@NEffectUpdateDecorator@@V?$allocator@PAVCTextureAnimationCWDecorator@NEffectUpdateDecorator@@@std@@@std@@AAEXXZ ENDP ; std::vector<NEffectUpdateDecorator::CTextureAnimationCWDecorator *,std::allocator<NEffectUpdateDecorator::CTextureAnimationCWDecorator *> >::_Tidy
_TEXT	ENDS
; Function compile flags: /Odspy
; File C:\Program Files (x86)\Microsoft Visual Studio\2019\Community\VC\Tools\MSVC\14.28.29333\include\vector
; File C:\Program Files (x86)\Microsoft Visual Studio\2019\Community\VC\Tools\MSVC\14.28.29333\include\xmemory
; File C:\Program Files (x86)\Microsoft Visual Studio\2019\Community\VC\Tools\MSVC\14.28.29333\include\vector
;	COMDAT ?clear@?$vector@PAVCTextureAnimationCWDecorator@NEffectUpdateDecorator@@V?$allocator@PAVCTextureAnimationCWDecorator@NEffectUpdateDecorator@@@std@@@std@@QAEXXZ
_TEXT	SEGMENT
__First$ = -32						; size = 4
__Last$ = -28						; size = 4
$T1 = -24						; size = 4
$T2 = -20						; size = 4
__Myfirst$ = -16					; size = 4
__Mylast$ = -12						; size = 4
_this$ = -8						; size = 4
__My_data$ = -4						; size = 4
?clear@?$vector@PAVCTextureAnimationCWDecorator@NEffectUpdateDecorator@@V?$allocator@PAVCTextureAnimationCWDecorator@NEffectUpdateDecorator@@@std@@@std@@QAEXXZ PROC ; std::vector<NEffectUpdateDecorator::CTextureAnimationCWDecorator *,std::allocator<NEffectUpdateDecorator::CTextureAnimationCWDecorator *> >::clear, COMDAT
; _this$ = ecx

; 1383 :     void clear() noexcept { // erase all

  00000	55		 push	 ebp
  00001	8b ec		 mov	 ebp, esp
  00003	83 ec 20	 sub	 esp, 32			; 00000020H
  00006	89 4d f8	 mov	 DWORD PTR _this$[ebp], ecx

; 1384 :         auto& _My_data    = _Mypair._Myval2;

  00009	8b 45 f8	 mov	 eax, DWORD PTR _this$[ebp]
  0000c	89 45 fc	 mov	 DWORD PTR __My_data$[ebp], eax

; 1385 :         pointer& _Myfirst = _My_data._Myfirst;

  0000f	8b 45 fc	 mov	 eax, DWORD PTR __My_data$[ebp]
  00012	89 45 f0	 mov	 DWORD PTR __Myfirst$[ebp], eax

; 1386 :         pointer& _Mylast  = _My_data._Mylast;

  00015	8b 45 fc	 mov	 eax, DWORD PTR __My_data$[ebp]
  00018	83 c0 04	 add	 eax, 4
  0001b	89 45 f4	 mov	 DWORD PTR __Mylast$[ebp], eax

; 1387 : 
; 1388 :         _My_data._Orphan_all();
; 1389 :         _Destroy(_Myfirst, _Mylast);

  0001e	8b 45 f4	 mov	 eax, DWORD PTR __Mylast$[ebp]
  00021	8b 00		 mov	 eax, DWORD PTR [eax]
  00023	89 45 e4	 mov	 DWORD PTR __Last$[ebp], eax
  00026	8b 45 f0	 mov	 eax, DWORD PTR __Myfirst$[ebp]
  00029	8b 00		 mov	 eax, DWORD PTR [eax]
  0002b	89 45 e0	 mov	 DWORD PTR __First$[ebp], eax

; 1733 :         return _Mypair._Get_first();

  0002e	8b 45 f8	 mov	 eax, DWORD PTR _this$[ebp]
; File C:\Program Files (x86)\Microsoft Visual Studio\2019\Community\VC\Tools\MSVC\14.28.29333\include\xmemory

; 1347 :         return *this;

  00031	89 45 ec	 mov	 DWORD PTR $T2[ebp], eax
; File C:\Program Files (x86)\Microsoft Visual Studio\2019\Community\VC\Tools\MSVC\14.28.29333\include\vector

; 1733 :         return _Mypair._Get_first();

  00034	8b 45 ec	 mov	 eax, DWORD PTR $T2[ebp]
  00037	89 45 e8	 mov	 DWORD PTR $T1[ebp], eax

; 1612 :         _Destroy_range(_First, _Last, _Getal());

  0003a	ff 75 e8	 push	 DWORD PTR $T1[ebp]
  0003d	ff 75 e4	 push	 DWORD PTR __Last$[ebp]
  00040	ff 75 e0	 push	 DWORD PTR __First$[ebp]
  00043	e8 00 00 00 00	 call	 ??$_Destroy_range@V?$allocator@PAVCTextureAnimationCWDecorator@NEffectUpdateDecorator@@@std@@@std@@YAXPAPAVCTextureAnimationCWDecorator@NEffectUpdateDecorator@@QAPAV12@AAV?$allocator@PAVCTextureAnimationCWDecorator@NEffectUpdateDecorator@@@0@@Z ; std::_Destroy_range<std::allocator<NEffectUpdateDecorator::CTextureAnimationCWDecorator *> >
  00048	83 c4 0c	 add	 esp, 12			; 0000000cH

; 1390 :         _Mylast = _Myfirst;

  0004b	8b 45 f4	 mov	 eax, DWORD PTR __Mylast$[ebp]
  0004e	8b 4d f0	 mov	 ecx, DWORD PTR __Myfirst$[ebp]
  00051	8b 09		 mov	 ecx, DWORD PTR [ecx]
  00053	89 08		 mov	 DWORD PTR [eax], ecx

; 1391 :     }

  00055	c9		 leave
  00056	c3		 ret	 0
?clear@?$vector@PAVCTextureAnimationCWDecorator@NEffectUpdateDecorator@@V?$allocator@PAVCTextureAnimationCWDecorator@NEffectUpdateDecorator@@@std@@@std@@QAEXXZ ENDP ; std::vector<NEffectUpdateDecorator::CTextureAnimationCWDecorator *,std::allocator<NEffectUpdateDecorator::CTextureAnimationCWDecorator *> >::clear
_TEXT	ENDS
; Function compile flags: /Odspy
; File D:\Metin2 Server Files\mainline\SRC_2014\Metin2Client\eterLib\Pool.h
;	COMDAT ?Delete@?$CDynamicPoolEx@VCTextureAnimationCWDecorator@NEffectUpdateDecorator@@@@KAXPAVCTextureAnimationCWDecorator@NEffectUpdateDecorator@@@Z
_TEXT	SEGMENT
_pkData$ = 8						; size = 4
?Delete@?$CDynamicPoolEx@VCTextureAnimationCWDecorator@NEffectUpdateDecorator@@@@KAXPAVCTextureAnimationCWDecorator@NEffectUpdateDecorator@@@Z PROC ; CDynamicPoolEx<NEffectUpdateDecorator::CTextureAnimationCWDecorator>::Delete, COMDAT

; 223  : 		{

  00000	55		 push	 ebp
  00001	8b ec		 mov	 ebp, esp

; 224  : 			::operator delete(pkData);

  00003	ff 75 08	 push	 DWORD PTR _pkData$[ebp]
  00006	e8 00 00 00 00	 call	 ??3@YAXPAX@Z		; operator delete
  0000b	59		 pop	 ecx

; 225  : 		}

  0000c	5d		 pop	 ebp
  0000d	c3		 ret	 0
?Delete@?$CDynamicPoolEx@VCTextureAnimationCWDecorator@NEffectUpdateDecorator@@@@KAXPAVCTextureAnimationCWDecorator@NEffectUpdateDecorator@@@Z ENDP ; CDynamicPoolEx<NEffectUpdateDecorator::CTextureAnimationCWDecorator>::Delete
_TEXT	ENDS
; Function compile flags: /Odspy
; File D:\Metin2 Server Files\mainline\SRC_2014\Metin2Client\eterLib\Pool.h
; File C:\Program Files (x86)\Microsoft Visual Studio\2019\Community\VC\Tools\MSVC\14.28.29333\include\vector
; File C:\Program Files (x86)\Microsoft Visual Studio\2019\Community\VC\Tools\MSVC\14.28.29333\include\xstddef
; File C:\Program Files (x86)\Microsoft Visual Studio\2019\Community\VC\Tools\MSVC\14.28.29333\include\vector
; File C:\Program Files (x86)\Microsoft Visual Studio\2019\Community\VC\Tools\MSVC\14.28.29333\include\xstddef
; File C:\Program Files (x86)\Microsoft Visual Studio\2019\Community\VC\Tools\MSVC\14.28.29333\include\vector
; File D:\Metin2 Server Files\mainline\SRC_2014\Metin2Client\eterLib\Pool.h
;	COMDAT ?Destroy@?$CDynamicPoolEx@VCTextureAnimationCWDecorator@NEffectUpdateDecorator@@@@QAEXXZ
_TEXT	SEGMENT
$T1 = -44						; size = 4
$T2 = -40						; size = 4
$T3 = -36						; size = 4
$T4 = -32						; size = 4
$T5 = -28						; size = 4
___param0$ = -24					; size = 4
$T6 = -20						; size = 4
___param0$ = -16					; size = 4
__My_data$7 = -12					; size = 4
__My_data$8 = -8					; size = 4
_this$ = -4						; size = 4
?Destroy@?$CDynamicPoolEx@VCTextureAnimationCWDecorator@NEffectUpdateDecorator@@@@QAEXXZ PROC ; CDynamicPoolEx<NEffectUpdateDecorator::CTextureAnimationCWDecorator>::Destroy, COMDAT
; _this$ = ecx

; 150  : 		{

  00000	55		 push	 ebp
  00001	8b ec		 mov	 ebp, esp
  00003	83 ec 2c	 sub	 esp, 44			; 0000002cH
  00006	89 4d fc	 mov	 DWORD PTR _this$[ebp], ecx
; File C:\Program Files (x86)\Microsoft Visual Studio\2019\Community\VC\Tools\MSVC\14.28.29333\include\vector

; 1420 :         auto& _My_data = _Mypair._Myval2;

  00009	8b 45 fc	 mov	 eax, DWORD PTR _this$[ebp]
  0000c	83 c0 04	 add	 eax, 4
  0000f	89 45 f8	 mov	 DWORD PTR __My_data$8[ebp], eax
; File C:\Program Files (x86)\Microsoft Visual Studio\2019\Community\VC\Tools\MSVC\14.28.29333\include\xstddef

; 275  :     return __builtin_addressof(_Val);

  00012	8b 45 f8	 mov	 eax, DWORD PTR __My_data$8[ebp]
  00015	89 45 d8	 mov	 DWORD PTR $T2[ebp], eax
; File C:\Program Files (x86)\Microsoft Visual Studio\2019\Community\VC\Tools\MSVC\14.28.29333\include\vector

; 1421 :         return iterator(_My_data._Mylast, _STD addressof(_My_data));

  00018	8b 45 f8	 mov	 eax, DWORD PTR __My_data$8[ebp]
  0001b	8b 40 04	 mov	 eax, DWORD PTR [eax+4]
  0001e	89 45 f0	 mov	 DWORD PTR ___param0$[ebp], eax

; 42   :     _Vector_const_iterator(_Tptr _Parg, const _Container_base* _Pvector) noexcept : _Ptr(_Parg) {

  00021	8b 45 f0	 mov	 eax, DWORD PTR ___param0$[ebp]
  00024	89 45 ec	 mov	 DWORD PTR $T6[ebp], eax

; 1421 :         return iterator(_My_data._Mylast, _STD addressof(_My_data));

  00027	8d 45 ec	 lea	 eax, DWORD PTR $T6[ebp]
  0002a	89 45 e0	 mov	 DWORD PTR $T4[ebp], eax

; 1410 :         auto& _My_data = _Mypair._Myval2;

  0002d	8b 45 fc	 mov	 eax, DWORD PTR _this$[ebp]
  00030	83 c0 04	 add	 eax, 4
  00033	89 45 f4	 mov	 DWORD PTR __My_data$7[ebp], eax
; File C:\Program Files (x86)\Microsoft Visual Studio\2019\Community\VC\Tools\MSVC\14.28.29333\include\xstddef

; 275  :     return __builtin_addressof(_Val);

  00036	8b 45 f4	 mov	 eax, DWORD PTR __My_data$7[ebp]
  00039	89 45 d4	 mov	 DWORD PTR $T1[ebp], eax
; File C:\Program Files (x86)\Microsoft Visual Studio\2019\Community\VC\Tools\MSVC\14.28.29333\include\vector

; 1411 :         return iterator(_My_data._Myfirst, _STD addressof(_My_data));

  0003c	8b 45 f4	 mov	 eax, DWORD PTR __My_data$7[ebp]
  0003f	8b 00		 mov	 eax, DWORD PTR [eax]
  00041	89 45 e8	 mov	 DWORD PTR ___param0$[ebp], eax

; 42   :     _Vector_const_iterator(_Tptr _Parg, const _Container_base* _Pvector) noexcept : _Ptr(_Parg) {

  00044	8b 45 e8	 mov	 eax, DWORD PTR ___param0$[ebp]
  00047	89 45 e4	 mov	 DWORD PTR $T5[ebp], eax

; 1411 :         return iterator(_My_data._Myfirst, _STD addressof(_My_data));

  0004a	8d 45 e4	 lea	 eax, DWORD PTR $T5[ebp]
  0004d	89 45 dc	 mov	 DWORD PTR $T3[ebp], eax
; File D:\Metin2 Server Files\mainline\SRC_2014\Metin2Client\eterLib\Pool.h

; 160  : 			std::for_each(m_kVct_pkData.begin(), m_kVct_pkData.end(), Delete);

  00050	68 00 00 00 00	 push	 OFFSET ?Delete@?$CDynamicPoolEx@VCTextureAnimationCWDecorator@NEffectUpdateDecorator@@@@KAXPAVCTextureAnimationCWDecorator@NEffectUpdateDecorator@@@Z ; CDynamicPoolEx<NEffectUpdateDecorator::CTextureAnimationCWDecorator>::Delete
  00055	8b 45 e0	 mov	 eax, DWORD PTR $T4[ebp]
  00058	ff 30		 push	 DWORD PTR [eax]
  0005a	8b 45 dc	 mov	 eax, DWORD PTR $T3[ebp]
  0005d	ff 30		 push	 DWORD PTR [eax]
  0005f	e8 00 00 00 00	 call	 ??$for_each@V?$_Vector_iterator@V?$_Vector_val@U?$_Simple_types@PAVCTextureAnimationCWDecorator@NEffectUpdateDecorator@@@std@@@std@@@std@@P6AXPAVCTextureAnimationCWDecorator@NEffectUpdateDecorator@@@Z@std@@YAP6AXPAVCTextureAnimationCWDecorator@NEffectUpdateDecorator@@@ZV?$_Vector_iterator@V?$_Vector_val@U?$_Simple_types@PAVCTextureAnimationCWDecorator@NEffectUpdateDecorator@@@std@@@std@@@0@1P6AX0@Z@Z ; std::for_each<std::_Vector_iterator<std::_Vector_val<std::_Simple_types<NEffectUpdateDecorator::CTextureAnimationCWDecorator *> > >,void (__cdecl*)(NEffectUpdateDecorator::CTextureAnimationCWDecorator *)>
  00064	83 c4 0c	 add	 esp, 12			; 0000000cH

; 161  : 			m_kVct_pkData.clear();

  00067	8b 4d fc	 mov	 ecx, DWORD PTR _this$[ebp]
  0006a	83 c1 04	 add	 ecx, 4
  0006d	e8 00 00 00 00	 call	 ?clear@?$vector@PAVCTextureAnimationCWDecorator@NEffectUpdateDecorator@@V?$allocator@PAVCTextureAnimationCWDecorator@NEffectUpdateDecorator@@@std@@@std@@QAEXXZ ; std::vector<NEffectUpdateDecorator::CTextureAnimationCWDecorator *,std::allocator<NEffectUpdateDecorator::CTextureAnimationCWDecorator *> >::clear

; 162  : 			m_kVct_pkFree.clear();

  00072	8b 4d fc	 mov	 ecx, DWORD PTR _this$[ebp]
  00075	83 c1 10	 add	 ecx, 16			; 00000010H
  00078	e8 00 00 00 00	 call	 ?clear@?$vector@PAVCTextureAnimationCWDecorator@NEffectUpdateDecorator@@V?$allocator@PAVCTextureAnimationCWDecorator@NEffectUpdateDecorator@@@std@@@std@@QAEXXZ ; std::vector<NEffectUpdateDecorator::CTextureAnimationCWDecorator *,std::allocator<NEffectUpdateDecorator::CTextureAnimationCWDecorator *> >::clear

; 163  : 		}

  0007d	c9		 leave
  0007e	c3		 ret	 0
?Destroy@?$CDynamicPoolEx@VCTextureAnimationCWDecorator@NEffectUpdateDecorator@@@@QAEXXZ ENDP ; CDynamicPoolEx<NEffectUpdateDecorator::CTextureAnimationCWDecorator>::Destroy
_TEXT	ENDS
; Function compile flags: /Odspy
; File D:\Metin2 Server Files\mainline\SRC_2014\Metin2Client\eterLib\Pool.h
; File C:\Program Files (x86)\Microsoft Visual Studio\2019\Community\VC\Tools\MSVC\14.28.29333\include\vector
; File D:\Metin2 Server Files\mainline\SRC_2014\Metin2Client\eterLib\Pool.h
; File C:\Program Files (x86)\Microsoft Visual Studio\2019\Community\VC\Tools\MSVC\14.28.29333\include\vector
; File D:\Metin2 Server Files\mainline\SRC_2014\Metin2Client\eterLib\Pool.h
;	COMDAT ??1?$CDynamicPoolEx@VCTextureAnimationCWDecorator@NEffectUpdateDecorator@@@@UAE@XZ
_TEXT	SEGMENT
_this$ = -16						; size = 4
__$EHRec$ = -12						; size = 12
??1?$CDynamicPoolEx@VCTextureAnimationCWDecorator@NEffectUpdateDecorator@@@@UAE@XZ PROC ; CDynamicPoolEx<NEffectUpdateDecorator::CTextureAnimationCWDecorator>::~CDynamicPoolEx<NEffectUpdateDecorator::CTextureAnimationCWDecorator>, COMDAT
; _this$ = ecx

; 132  : 		{

  00000	55		 push	 ebp
  00001	8b ec		 mov	 ebp, esp
  00003	6a ff		 push	 -1
  00005	68 00 00 00 00	 push	 __ehhandler$??1?$CDynamicPoolEx@VCTextureAnimationCWDecorator@NEffectUpdateDecorator@@@@UAE@XZ
  0000a	64 a1 00 00 00
	00		 mov	 eax, DWORD PTR fs:0
  00010	50		 push	 eax
  00011	51		 push	 ecx
  00012	a1 00 00 00 00	 mov	 eax, DWORD PTR ___security_cookie
  00017	33 c5		 xor	 eax, ebp
  00019	50		 push	 eax
  0001a	8d 45 f4	 lea	 eax, DWORD PTR __$EHRec$[ebp]
  0001d	64 a3 00 00 00
	00		 mov	 DWORD PTR fs:0, eax
  00023	89 4d f0	 mov	 DWORD PTR _this$[ebp], ecx
  00026	8b 45 f0	 mov	 eax, DWORD PTR _this$[ebp]
  00029	c7 00 00 00 00
	00		 mov	 DWORD PTR [eax], OFFSET ??_7?$CDynamicPoolEx@VCTextureAnimationCWDecorator@NEffectUpdateDecorator@@@@6B@

; 133  : 			assert(m_kVct_pkFree.size()==m_kVct_pkData.size());
; 134  : 			Destroy();

  0002f	8b 4d f0	 mov	 ecx, DWORD PTR _this$[ebp]
  00032	e8 00 00 00 00	 call	 ?Destroy@?$CDynamicPoolEx@VCTextureAnimationCWDecorator@NEffectUpdateDecorator@@@@QAEXXZ ; CDynamicPoolEx<NEffectUpdateDecorator::CTextureAnimationCWDecorator>::Destroy

; 142  : 		}

  00037	8b 4d f0	 mov	 ecx, DWORD PTR _this$[ebp]
  0003a	83 c1 10	 add	 ecx, 16			; 00000010H
; File C:\Program Files (x86)\Microsoft Visual Studio\2019\Community\VC\Tools\MSVC\14.28.29333\include\vector

; 673  :         _Tidy();

  0003d	e8 00 00 00 00	 call	 ?_Tidy@?$vector@PAVCTextureAnimationCWDecorator@NEffectUpdateDecorator@@V?$allocator@PAVCTextureAnimationCWDecorator@NEffectUpdateDecorator@@@std@@@std@@AAEXXZ ; std::vector<NEffectUpdateDecorator::CTextureAnimationCWDecorator *,std::allocator<NEffectUpdateDecorator::CTextureAnimationCWDecorator *> >::_Tidy
; File D:\Metin2 Server Files\mainline\SRC_2014\Metin2Client\eterLib\Pool.h

; 142  : 		}

  00042	8b 4d f0	 mov	 ecx, DWORD PTR _this$[ebp]
  00045	83 c1 04	 add	 ecx, 4
; File C:\Program Files (x86)\Microsoft Visual Studio\2019\Community\VC\Tools\MSVC\14.28.29333\include\vector

; 673  :         _Tidy();

  00048	e8 00 00 00 00	 call	 ?_Tidy@?$vector@PAVCTextureAnimationCWDecorator@NEffectUpdateDecorator@@V?$allocator@PAVCTextureAnimationCWDecorator@NEffectUpdateDecorator@@@std@@@std@@AAEXXZ ; std::vector<NEffectUpdateDecorator::CTextureAnimationCWDecorator *,std::allocator<NEffectUpdateDecorator::CTextureAnimationCWDecorator *> >::_Tidy
; File D:\Metin2 Server Files\mainline\SRC_2014\Metin2Client\eterLib\Pool.h

; 142  : 		}

  0004d	8b 4d f4	 mov	 ecx, DWORD PTR __$EHRec$[ebp]
  00050	64 89 0d 00 00
	00 00		 mov	 DWORD PTR fs:0, ecx
  00057	59		 pop	 ecx
  00058	c9		 leave
  00059	c3		 ret	 0
  0005a	cc		 int	 3
  0005b	cc		 int	 3
  0005c	cc		 int	 3
  0005d	cc		 int	 3
  0005e	cc		 int	 3
_TEXT	ENDS
;	COMDAT text$x
text$x	SEGMENT
__ehhandler$??1?$CDynamicPoolEx@VCTextureAnimationCWDecorator@NEffectUpdateDecorator@@@@UAE@XZ:
  00000	90		 npad	 1
  00001	90		 npad	 1
  00002	8b 54 24 08	 mov	 edx, DWORD PTR [esp+8]
  00006	8d 42 0c	 lea	 eax, DWORD PTR [edx+12]
  00009	8b 4a f8	 mov	 ecx, DWORD PTR [edx-8]
  0000c	33 c8		 xor	 ecx, eax
  0000e	e8 00 00 00 00	 call	 @__security_check_cookie@4
  00013	b8 00 00 00 00	 mov	 eax, OFFSET __ehfuncinfo$??1?$CDynamicPoolEx@VCTextureAnimationCWDecorator@NEffectUpdateDecorator@@@@UAE@XZ
  00018	e9 00 00 00 00	 jmp	 ___CxxFrameHandler3
text$x	ENDS
??1?$CDynamicPoolEx@VCTextureAnimationCWDecorator@NEffectUpdateDecorator@@@@UAE@XZ ENDP ; CDynamicPoolEx<NEffectUpdateDecorator::CTextureAnimationCWDecorator>::~CDynamicPoolEx<NEffectUpdateDecorator::CTextureAnimationCWDecorator>
; Function compile flags: /Odspy
; File D:\Metin2 Server Files\mainline\SRC_2014\Metin2Client\eterLib\Pool.h
; File C:\Program Files (x86)\Microsoft Visual Studio\2019\Community\VC\Tools\MSVC\14.28.29333\include\vector
; File C:\Program Files (x86)\Microsoft Visual Studio\2019\Community\VC\Tools\MSVC\14.28.29333\include\xmemory
; File C:\Program Files (x86)\Microsoft Visual Studio\2019\Community\VC\Tools\MSVC\14.28.29333\include\vector
; File D:\Metin2 Server Files\mainline\SRC_2014\Metin2Client\eterLib\Pool.h
; File C:\Program Files (x86)\Microsoft Visual Studio\2019\Community\VC\Tools\MSVC\14.28.29333\include\vector
; File C:\Program Files (x86)\Microsoft Visual Studio\2019\Community\VC\Tools\MSVC\14.28.29333\include\xmemory
; File C:\Program Files (x86)\Microsoft Visual Studio\2019\Community\VC\Tools\MSVC\14.28.29333\include\vector
; File D:\Metin2 Server Files\mainline\SRC_2014\Metin2Client\eterLib\Pool.h
;	COMDAT ??0?$CDynamicPoolEx@VCTextureAnimationCWDecorator@NEffectUpdateDecorator@@@@QAE@XZ
_TEXT	SEGMENT
_this$ = -28						; size = 4
_this$ = -24						; size = 4
_this$ = -20						; size = 4
_this$ = -16						; size = 4
_this$1 = -12						; size = 4
_this$2 = -8						; size = 4
_this$ = -4						; size = 4
??0?$CDynamicPoolEx@VCTextureAnimationCWDecorator@NEffectUpdateDecorator@@@@QAE@XZ PROC ; CDynamicPoolEx<NEffectUpdateDecorator::CTextureAnimationCWDecorator>::CDynamicPoolEx<NEffectUpdateDecorator::CTextureAnimationCWDecorator>, COMDAT
; _this$ = ecx

; 126  : 		CDynamicPoolEx()

  00000	55		 push	 ebp
  00001	8b ec		 mov	 ebp, esp
  00003	83 ec 1c	 sub	 esp, 28			; 0000001cH
  00006	89 4d fc	 mov	 DWORD PTR _this$[ebp], ecx

; 127  : 		{

  00009	8b 45 fc	 mov	 eax, DWORD PTR _this$[ebp]
  0000c	c7 00 00 00 00
	00		 mov	 DWORD PTR [eax], OFFSET ??_7?$CDynamicPoolEx@VCTextureAnimationCWDecorator@NEffectUpdateDecorator@@@@6B@
  00012	8b 45 fc	 mov	 eax, DWORD PTR _this$[ebp]
  00015	83 c0 04	 add	 eax, 4
  00018	89 45 f0	 mov	 DWORD PTR _this$[ebp], eax
; File C:\Program Files (x86)\Microsoft Visual Studio\2019\Community\VC\Tools\MSVC\14.28.29333\include\vector

; 445  :     vector() noexcept(is_nothrow_default_constructible_v<_Alty>) : _Mypair(_Zero_then_variadic_args_t{}) {

  0001b	8b 45 f0	 mov	 eax, DWORD PTR _this$[ebp]
  0001e	89 45 ec	 mov	 DWORD PTR _this$[ebp], eax
; File C:\Program Files (x86)\Microsoft Visual Studio\2019\Community\VC\Tools\MSVC\14.28.29333\include\xmemory

; 1339 :         : _Ty1(), _Myval2(_STD forward<_Other2>(_Val2)...) {}

  00021	8b 45 ec	 mov	 eax, DWORD PTR _this$[ebp]
  00024	89 45 f8	 mov	 DWORD PTR _this$2[ebp], eax
; File C:\Program Files (x86)\Microsoft Visual Studio\2019\Community\VC\Tools\MSVC\14.28.29333\include\vector

; 375  :     _Vector_val() noexcept : _Myfirst(), _Mylast(), _Myend() {}

  00027	8b 45 f8	 mov	 eax, DWORD PTR _this$2[ebp]
  0002a	83 20 00	 and	 DWORD PTR [eax], 0
  0002d	8b 45 f8	 mov	 eax, DWORD PTR _this$2[ebp]
  00030	83 60 04 00	 and	 DWORD PTR [eax+4], 0
  00034	8b 45 f8	 mov	 eax, DWORD PTR _this$2[ebp]
  00037	83 60 08 00	 and	 DWORD PTR [eax+8], 0
; File D:\Metin2 Server Files\mainline\SRC_2014\Metin2Client\eterLib\Pool.h

; 127  : 		{

  0003b	8b 45 fc	 mov	 eax, DWORD PTR _this$[ebp]
  0003e	83 c0 10	 add	 eax, 16			; 00000010H
  00041	89 45 e8	 mov	 DWORD PTR _this$[ebp], eax
; File C:\Program Files (x86)\Microsoft Visual Studio\2019\Community\VC\Tools\MSVC\14.28.29333\include\vector

; 445  :     vector() noexcept(is_nothrow_default_constructible_v<_Alty>) : _Mypair(_Zero_then_variadic_args_t{}) {

  00044	8b 45 e8	 mov	 eax, DWORD PTR _this$[ebp]
  00047	89 45 e4	 mov	 DWORD PTR _this$[ebp], eax
; File C:\Program Files (x86)\Microsoft Visual Studio\2019\Community\VC\Tools\MSVC\14.28.29333\include\xmemory

; 1339 :         : _Ty1(), _Myval2(_STD forward<_Other2>(_Val2)...) {}

  0004a	8b 45 e4	 mov	 eax, DWORD PTR _this$[ebp]
  0004d	89 45 f4	 mov	 DWORD PTR _this$1[ebp], eax
; File C:\Program Files (x86)\Microsoft Visual Studio\2019\Community\VC\Tools\MSVC\14.28.29333\include\vector

; 375  :     _Vector_val() noexcept : _Myfirst(), _Mylast(), _Myend() {}

  00050	8b 45 f4	 mov	 eax, DWORD PTR _this$1[ebp]
  00053	83 20 00	 and	 DWORD PTR [eax], 0
  00056	8b 45 f4	 mov	 eax, DWORD PTR _this$1[ebp]
  00059	83 60 04 00	 and	 DWORD PTR [eax+4], 0
  0005d	8b 45 f4	 mov	 eax, DWORD PTR _this$1[ebp]
  00060	83 60 08 00	 and	 DWORD PTR [eax+8], 0
; File D:\Metin2 Server Files\mainline\SRC_2014\Metin2Client\eterLib\Pool.h

; 128  : 			m_uInitCapacity=0;

  00064	8b 45 fc	 mov	 eax, DWORD PTR _this$[ebp]
  00067	83 60 1c 00	 and	 DWORD PTR [eax+28], 0

; 129  : 			m_uUsedCapacity=0;

  0006b	8b 45 fc	 mov	 eax, DWORD PTR _this$[ebp]
  0006e	83 60 20 00	 and	 DWORD PTR [eax+32], 0

; 130  : 		}

  00072	8b 45 fc	 mov	 eax, DWORD PTR _this$[ebp]
  00075	c9		 leave
  00076	c3		 ret	 0
??0?$CDynamicPoolEx@VCTextureAnimationCWDecorator@NEffectUpdateDecorator@@@@QAE@XZ ENDP ; CDynamicPoolEx<NEffectUpdateDecorator::CTextureAnimationCWDecorator>::CDynamicPoolEx<NEffectUpdateDecorator::CTextureAnimationCWDecorator>
_TEXT	ENDS
; Function compile flags: /Odspy
;	COMDAT ??_G?$CDynamicPoolEx@VCTextureAnimationCCWDecorator@NEffectUpdateDecorator@@@@UAEPAXI@Z
_TEXT	SEGMENT
_this$ = -4						; size = 4
___flags$ = 8						; size = 4
??_G?$CDynamicPoolEx@VCTextureAnimationCCWDecorator@NEffectUpdateDecorator@@@@UAEPAXI@Z PROC ; CDynamicPoolEx<NEffectUpdateDecorator::CTextureAnimationCCWDecorator>::`scalar deleting destructor', COMDAT
; _this$ = ecx
  00000	55		 push	 ebp
  00001	8b ec		 mov	 ebp, esp
  00003	51		 push	 ecx
  00004	89 4d fc	 mov	 DWORD PTR _this$[ebp], ecx
  00007	8b 4d fc	 mov	 ecx, DWORD PTR _this$[ebp]
  0000a	e8 00 00 00 00	 call	 ??1?$CDynamicPoolEx@VCTextureAnimationCCWDecorator@NEffectUpdateDecorator@@@@UAE@XZ ; CDynamicPoolEx<NEffectUpdateDecorator::CTextureAnimationCCWDecorator>::~CDynamicPoolEx<NEffectUpdateDecorator::CTextureAnimationCCWDecorator>
  0000f	8b 45 08	 mov	 eax, DWORD PTR ___flags$[ebp]
  00012	83 e0 01	 and	 eax, 1
  00015	74 0c		 je	 SHORT $LN2@scalar
  00017	6a 24		 push	 36			; 00000024H
  00019	ff 75 fc	 push	 DWORD PTR _this$[ebp]
  0001c	e8 00 00 00 00	 call	 ??3@YAXPAXI@Z		; operator delete
  00021	59		 pop	 ecx
  00022	59		 pop	 ecx
$LN2@scalar:
  00023	8b 45 fc	 mov	 eax, DWORD PTR _this$[ebp]
  00026	c9		 leave
  00027	c2 04 00	 ret	 4
??_G?$CDynamicPoolEx@VCTextureAnimationCCWDecorator@NEffectUpdateDecorator@@@@UAEPAXI@Z ENDP ; CDynamicPoolEx<NEffectUpdateDecorator::CTextureAnimationCCWDecorator>::`scalar deleting destructor'
_TEXT	ENDS
; Function compile flags: /Odspy
; File C:\Program Files (x86)\Microsoft Visual Studio\2019\Community\VC\Tools\MSVC\14.28.29333\include\vector
; File C:\Program Files (x86)\Microsoft Visual Studio\2019\Community\VC\Tools\MSVC\14.28.29333\include\xmemory
; File C:\Program Files (x86)\Microsoft Visual Studio\2019\Community\VC\Tools\MSVC\14.28.29333\include\vector
; File C:\Program Files (x86)\Microsoft Visual Studio\2019\Community\VC\Tools\MSVC\14.28.29333\include\xmemory
; File C:\Program Files (x86)\Microsoft Visual Studio\2019\Community\VC\Tools\MSVC\14.28.29333\include\vector
; File C:\Program Files (x86)\Microsoft Visual Studio\2019\Community\VC\Tools\MSVC\14.28.29333\include\xmemory
; File C:\Program Files (x86)\Microsoft Visual Studio\2019\Community\VC\Tools\MSVC\14.28.29333\include\vector
;	COMDAT ?_Tidy@?$vector@PAVCTextureAnimationCCWDecorator@NEffectUpdateDecorator@@V?$allocator@PAVCTextureAnimationCCWDecorator@NEffectUpdateDecorator@@@std@@@std@@AAEXXZ
_TEXT	SEGMENT
$T1 = -52						; size = 4
__Ptr$ = -48						; size = 4
__Count$ = -44						; size = 4
$T2 = -40						; size = 4
__First$ = -36						; size = 4
__Last$ = -32						; size = 4
$T3 = -28						; size = 4
$T4 = -24						; size = 4
__Myend$ = -20						; size = 4
__Mylast$ = -16						; size = 4
_this$ = -12						; size = 4
__My_data$ = -8						; size = 4
__Myfirst$ = -4						; size = 4
?_Tidy@?$vector@PAVCTextureAnimationCCWDecorator@NEffectUpdateDecorator@@V?$allocator@PAVCTextureAnimationCCWDecorator@NEffectUpdateDecorator@@@std@@@std@@AAEXXZ PROC ; std::vector<NEffectUpdateDecorator::CTextureAnimationCCWDecorator *,std::allocator<NEffectUpdateDecorator::CTextureAnimationCCWDecorator *> >::_Tidy, COMDAT
; _this$ = ecx

; 1686 :     void _Tidy() noexcept { // free all storage

  00000	55		 push	 ebp
  00001	8b ec		 mov	 ebp, esp
  00003	83 ec 34	 sub	 esp, 52			; 00000034H
  00006	89 4d f4	 mov	 DWORD PTR _this$[ebp], ecx

; 1687 :         auto& _My_data    = _Mypair._Myval2;

  00009	8b 45 f4	 mov	 eax, DWORD PTR _this$[ebp]
  0000c	89 45 f8	 mov	 DWORD PTR __My_data$[ebp], eax

; 1688 :         pointer& _Myfirst = _My_data._Myfirst;

  0000f	8b 45 f8	 mov	 eax, DWORD PTR __My_data$[ebp]
  00012	89 45 fc	 mov	 DWORD PTR __Myfirst$[ebp], eax

; 1689 :         pointer& _Mylast  = _My_data._Mylast;

  00015	8b 45 f8	 mov	 eax, DWORD PTR __My_data$[ebp]
  00018	83 c0 04	 add	 eax, 4
  0001b	89 45 f0	 mov	 DWORD PTR __Mylast$[ebp], eax

; 1690 :         pointer& _Myend   = _My_data._Myend;

  0001e	8b 45 f8	 mov	 eax, DWORD PTR __My_data$[ebp]
  00021	83 c0 08	 add	 eax, 8
  00024	89 45 ec	 mov	 DWORD PTR __Myend$[ebp], eax

; 1691 : 
; 1692 :         _My_data._Orphan_all();
; 1693 : 
; 1694 :         if (_Myfirst) { // destroy and deallocate old array

  00027	8b 45 fc	 mov	 eax, DWORD PTR __Myfirst$[ebp]
  0002a	83 38 00	 cmp	 DWORD PTR [eax], 0
  0002d	74 74		 je	 SHORT $LN3@Tidy

; 1695 :             _Destroy(_Myfirst, _Mylast);

  0002f	8b 45 f0	 mov	 eax, DWORD PTR __Mylast$[ebp]
  00032	8b 00		 mov	 eax, DWORD PTR [eax]
  00034	89 45 e0	 mov	 DWORD PTR __Last$[ebp], eax
  00037	8b 45 fc	 mov	 eax, DWORD PTR __Myfirst$[ebp]
  0003a	8b 00		 mov	 eax, DWORD PTR [eax]
  0003c	89 45 dc	 mov	 DWORD PTR __First$[ebp], eax

; 1733 :         return _Mypair._Get_first();

  0003f	8b 45 f4	 mov	 eax, DWORD PTR _this$[ebp]
; File C:\Program Files (x86)\Microsoft Visual Studio\2019\Community\VC\Tools\MSVC\14.28.29333\include\xmemory

; 1347 :         return *this;

  00042	89 45 e8	 mov	 DWORD PTR $T4[ebp], eax
; File C:\Program Files (x86)\Microsoft Visual Studio\2019\Community\VC\Tools\MSVC\14.28.29333\include\vector

; 1733 :         return _Mypair._Get_first();

  00045	8b 45 e8	 mov	 eax, DWORD PTR $T4[ebp]
  00048	89 45 e4	 mov	 DWORD PTR $T3[ebp], eax

; 1612 :         _Destroy_range(_First, _Last, _Getal());

  0004b	ff 75 e4	 push	 DWORD PTR $T3[ebp]
  0004e	ff 75 e0	 push	 DWORD PTR __Last$[ebp]
  00051	ff 75 dc	 push	 DWORD PTR __First$[ebp]
  00054	e8 00 00 00 00	 call	 ??$_Destroy_range@V?$allocator@PAVCTextureAnimationCCWDecorator@NEffectUpdateDecorator@@@std@@@std@@YAXPAPAVCTextureAnimationCCWDecorator@NEffectUpdateDecorator@@QAPAV12@AAV?$allocator@PAVCTextureAnimationCCWDecorator@NEffectUpdateDecorator@@@0@@Z ; std::_Destroy_range<std::allocator<NEffectUpdateDecorator::CTextureAnimationCCWDecorator *> >
  00059	83 c4 0c	 add	 esp, 12			; 0000000cH

; 1733 :         return _Mypair._Get_first();

  0005c	8b 45 f4	 mov	 eax, DWORD PTR _this$[ebp]
; File C:\Program Files (x86)\Microsoft Visual Studio\2019\Community\VC\Tools\MSVC\14.28.29333\include\xmemory

; 1347 :         return *this;

  0005f	89 45 d8	 mov	 DWORD PTR $T2[ebp], eax
; File C:\Program Files (x86)\Microsoft Visual Studio\2019\Community\VC\Tools\MSVC\14.28.29333\include\vector

; 1733 :         return _Mypair._Get_first();

  00062	8b 45 d8	 mov	 eax, DWORD PTR $T2[ebp]
  00065	89 45 cc	 mov	 DWORD PTR $T1[ebp], eax

; 1696 :             _Getal().deallocate(_Myfirst, static_cast<size_type>(_Myend - _Myfirst));

  00068	8b 45 ec	 mov	 eax, DWORD PTR __Myend$[ebp]
  0006b	8b 4d fc	 mov	 ecx, DWORD PTR __Myfirst$[ebp]
  0006e	8b 00		 mov	 eax, DWORD PTR [eax]
  00070	2b 01		 sub	 eax, DWORD PTR [ecx]
  00072	c1 f8 02	 sar	 eax, 2
  00075	89 45 d4	 mov	 DWORD PTR __Count$[ebp], eax
  00078	8b 45 fc	 mov	 eax, DWORD PTR __Myfirst$[ebp]
  0007b	8b 00		 mov	 eax, DWORD PTR [eax]
  0007d	89 45 d0	 mov	 DWORD PTR __Ptr$[ebp], eax
; File C:\Program Files (x86)\Microsoft Visual Studio\2019\Community\VC\Tools\MSVC\14.28.29333\include\xmemory

; 810  :         _Deallocate<_New_alignof<_Ty>>(_Ptr, sizeof(_Ty) * _Count);

  00080	8b 45 d4	 mov	 eax, DWORD PTR __Count$[ebp]
  00083	c1 e0 02	 shl	 eax, 2
  00086	50		 push	 eax
  00087	ff 75 d0	 push	 DWORD PTR __Ptr$[ebp]
  0008a	e8 00 00 00 00	 call	 ??$_Deallocate@$07$0A@@std@@YAXPAXI@Z ; std::_Deallocate<8,0>
  0008f	59		 pop	 ecx
  00090	59		 pop	 ecx
; File C:\Program Files (x86)\Microsoft Visual Studio\2019\Community\VC\Tools\MSVC\14.28.29333\include\vector

; 1698 :             _Myfirst = pointer();

  00091	8b 45 fc	 mov	 eax, DWORD PTR __Myfirst$[ebp]
  00094	83 20 00	 and	 DWORD PTR [eax], 0

; 1699 :             _Mylast  = pointer();

  00097	8b 45 f0	 mov	 eax, DWORD PTR __Mylast$[ebp]
  0009a	83 20 00	 and	 DWORD PTR [eax], 0

; 1700 :             _Myend   = pointer();

  0009d	8b 45 ec	 mov	 eax, DWORD PTR __Myend$[ebp]
  000a0	83 20 00	 and	 DWORD PTR [eax], 0
$LN3@Tidy:

; 1701 :         }
; 1702 :     }

  000a3	c9		 leave
  000a4	c3		 ret	 0
?_Tidy@?$vector@PAVCTextureAnimationCCWDecorator@NEffectUpdateDecorator@@V?$allocator@PAVCTextureAnimationCCWDecorator@NEffectUpdateDecorator@@@std@@@std@@AAEXXZ ENDP ; std::vector<NEffectUpdateDecorator::CTextureAnimationCCWDecorator *,std::allocator<NEffectUpdateDecorator::CTextureAnimationCCWDecorator *> >::_Tidy
_TEXT	ENDS
; Function compile flags: /Odspy
; File C:\Program Files (x86)\Microsoft Visual Studio\2019\Community\VC\Tools\MSVC\14.28.29333\include\vector
; File C:\Program Files (x86)\Microsoft Visual Studio\2019\Community\VC\Tools\MSVC\14.28.29333\include\xmemory
; File C:\Program Files (x86)\Microsoft Visual Studio\2019\Community\VC\Tools\MSVC\14.28.29333\include\vector
;	COMDAT ?clear@?$vector@PAVCTextureAnimationCCWDecorator@NEffectUpdateDecorator@@V?$allocator@PAVCTextureAnimationCCWDecorator@NEffectUpdateDecorator@@@std@@@std@@QAEXXZ
_TEXT	SEGMENT
__First$ = -32						; size = 4
__Last$ = -28						; size = 4
$T1 = -24						; size = 4
$T2 = -20						; size = 4
__Myfirst$ = -16					; size = 4
__Mylast$ = -12						; size = 4
_this$ = -8						; size = 4
__My_data$ = -4						; size = 4
?clear@?$vector@PAVCTextureAnimationCCWDecorator@NEffectUpdateDecorator@@V?$allocator@PAVCTextureAnimationCCWDecorator@NEffectUpdateDecorator@@@std@@@std@@QAEXXZ PROC ; std::vector<NEffectUpdateDecorator::CTextureAnimationCCWDecorator *,std::allocator<NEffectUpdateDecorator::CTextureAnimationCCWDecorator *> >::clear, COMDAT
; _this$ = ecx

; 1383 :     void clear() noexcept { // erase all

  00000	55		 push	 ebp
  00001	8b ec		 mov	 ebp, esp
  00003	83 ec 20	 sub	 esp, 32			; 00000020H
  00006	89 4d f8	 mov	 DWORD PTR _this$[ebp], ecx

; 1384 :         auto& _My_data    = _Mypair._Myval2;

  00009	8b 45 f8	 mov	 eax, DWORD PTR _this$[ebp]
  0000c	89 45 fc	 mov	 DWORD PTR __My_data$[ebp], eax

; 1385 :         pointer& _Myfirst = _My_data._Myfirst;

  0000f	8b 45 fc	 mov	 eax, DWORD PTR __My_data$[ebp]
  00012	89 45 f0	 mov	 DWORD PTR __Myfirst$[ebp], eax

; 1386 :         pointer& _Mylast  = _My_data._Mylast;

  00015	8b 45 fc	 mov	 eax, DWORD PTR __My_data$[ebp]
  00018	83 c0 04	 add	 eax, 4
  0001b	89 45 f4	 mov	 DWORD PTR __Mylast$[ebp], eax

; 1387 : 
; 1388 :         _My_data._Orphan_all();
; 1389 :         _Destroy(_Myfirst, _Mylast);

  0001e	8b 45 f4	 mov	 eax, DWORD PTR __Mylast$[ebp]
  00021	8b 00		 mov	 eax, DWORD PTR [eax]
  00023	89 45 e4	 mov	 DWORD PTR __Last$[ebp], eax
  00026	8b 45 f0	 mov	 eax, DWORD PTR __Myfirst$[ebp]
  00029	8b 00		 mov	 eax, DWORD PTR [eax]
  0002b	89 45 e0	 mov	 DWORD PTR __First$[ebp], eax

; 1733 :         return _Mypair._Get_first();

  0002e	8b 45 f8	 mov	 eax, DWORD PTR _this$[ebp]
; File C:\Program Files (x86)\Microsoft Visual Studio\2019\Community\VC\Tools\MSVC\14.28.29333\include\xmemory

; 1347 :         return *this;

  00031	89 45 ec	 mov	 DWORD PTR $T2[ebp], eax
; File C:\Program Files (x86)\Microsoft Visual Studio\2019\Community\VC\Tools\MSVC\14.28.29333\include\vector

; 1733 :         return _Mypair._Get_first();

  00034	8b 45 ec	 mov	 eax, DWORD PTR $T2[ebp]
  00037	89 45 e8	 mov	 DWORD PTR $T1[ebp], eax

; 1612 :         _Destroy_range(_First, _Last, _Getal());

  0003a	ff 75 e8	 push	 DWORD PTR $T1[ebp]
  0003d	ff 75 e4	 push	 DWORD PTR __Last$[ebp]
  00040	ff 75 e0	 push	 DWORD PTR __First$[ebp]
  00043	e8 00 00 00 00	 call	 ??$_Destroy_range@V?$allocator@PAVCTextureAnimationCCWDecorator@NEffectUpdateDecorator@@@std@@@std@@YAXPAPAVCTextureAnimationCCWDecorator@NEffectUpdateDecorator@@QAPAV12@AAV?$allocator@PAVCTextureAnimationCCWDecorator@NEffectUpdateDecorator@@@0@@Z ; std::_Destroy_range<std::allocator<NEffectUpdateDecorator::CTextureAnimationCCWDecorator *> >
  00048	83 c4 0c	 add	 esp, 12			; 0000000cH

; 1390 :         _Mylast = _Myfirst;

  0004b	8b 45 f4	 mov	 eax, DWORD PTR __Mylast$[ebp]
  0004e	8b 4d f0	 mov	 ecx, DWORD PTR __Myfirst$[ebp]
  00051	8b 09		 mov	 ecx, DWORD PTR [ecx]
  00053	89 08		 mov	 DWORD PTR [eax], ecx

; 1391 :     }

  00055	c9		 leave
  00056	c3		 ret	 0
?clear@?$vector@PAVCTextureAnimationCCWDecorator@NEffectUpdateDecorator@@V?$allocator@PAVCTextureAnimationCCWDecorator@NEffectUpdateDecorator@@@std@@@std@@QAEXXZ ENDP ; std::vector<NEffectUpdateDecorator::CTextureAnimationCCWDecorator *,std::allocator<NEffectUpdateDecorator::CTextureAnimationCCWDecorator *> >::clear
_TEXT	ENDS
; Function compile flags: /Odspy
; File D:\Metin2 Server Files\mainline\SRC_2014\Metin2Client\eterLib\Pool.h
;	COMDAT ?Delete@?$CDynamicPoolEx@VCTextureAnimationCCWDecorator@NEffectUpdateDecorator@@@@KAXPAVCTextureAnimationCCWDecorator@NEffectUpdateDecorator@@@Z
_TEXT	SEGMENT
_pkData$ = 8						; size = 4
?Delete@?$CDynamicPoolEx@VCTextureAnimationCCWDecorator@NEffectUpdateDecorator@@@@KAXPAVCTextureAnimationCCWDecorator@NEffectUpdateDecorator@@@Z PROC ; CDynamicPoolEx<NEffectUpdateDecorator::CTextureAnimationCCWDecorator>::Delete, COMDAT

; 223  : 		{

  00000	55		 push	 ebp
  00001	8b ec		 mov	 ebp, esp

; 224  : 			::operator delete(pkData);

  00003	ff 75 08	 push	 DWORD PTR _pkData$[ebp]
  00006	e8 00 00 00 00	 call	 ??3@YAXPAX@Z		; operator delete
  0000b	59		 pop	 ecx

; 225  : 		}

  0000c	5d		 pop	 ebp
  0000d	c3		 ret	 0
?Delete@?$CDynamicPoolEx@VCTextureAnimationCCWDecorator@NEffectUpdateDecorator@@@@KAXPAVCTextureAnimationCCWDecorator@NEffectUpdateDecorator@@@Z ENDP ; CDynamicPoolEx<NEffectUpdateDecorator::CTextureAnimationCCWDecorator>::Delete
_TEXT	ENDS
; Function compile flags: /Odspy
; File D:\Metin2 Server Files\mainline\SRC_2014\Metin2Client\eterLib\Pool.h
; File C:\Program Files (x86)\Microsoft Visual Studio\2019\Community\VC\Tools\MSVC\14.28.29333\include\vector
; File C:\Program Files (x86)\Microsoft Visual Studio\2019\Community\VC\Tools\MSVC\14.28.29333\include\xstddef
; File C:\Program Files (x86)\Microsoft Visual Studio\2019\Community\VC\Tools\MSVC\14.28.29333\include\vector
; File C:\Program Files (x86)\Microsoft Visual Studio\2019\Community\VC\Tools\MSVC\14.28.29333\include\xstddef
; File C:\Program Files (x86)\Microsoft Visual Studio\2019\Community\VC\Tools\MSVC\14.28.29333\include\vector
; File D:\Metin2 Server Files\mainline\SRC_2014\Metin2Client\eterLib\Pool.h
;	COMDAT ?Destroy@?$CDynamicPoolEx@VCTextureAnimationCCWDecorator@NEffectUpdateDecorator@@@@QAEXXZ
_TEXT	SEGMENT
$T1 = -44						; size = 4
$T2 = -40						; size = 4
$T3 = -36						; size = 4
$T4 = -32						; size = 4
$T5 = -28						; size = 4
___param0$ = -24					; size = 4
$T6 = -20						; size = 4
___param0$ = -16					; size = 4
__My_data$7 = -12					; size = 4
__My_data$8 = -8					; size = 4
_this$ = -4						; size = 4
?Destroy@?$CDynamicPoolEx@VCTextureAnimationCCWDecorator@NEffectUpdateDecorator@@@@QAEXXZ PROC ; CDynamicPoolEx<NEffectUpdateDecorator::CTextureAnimationCCWDecorator>::Destroy, COMDAT
; _this$ = ecx

; 150  : 		{

  00000	55		 push	 ebp
  00001	8b ec		 mov	 ebp, esp
  00003	83 ec 2c	 sub	 esp, 44			; 0000002cH
  00006	89 4d fc	 mov	 DWORD PTR _this$[ebp], ecx
; File C:\Program Files (x86)\Microsoft Visual Studio\2019\Community\VC\Tools\MSVC\14.28.29333\include\vector

; 1420 :         auto& _My_data = _Mypair._Myval2;

  00009	8b 45 fc	 mov	 eax, DWORD PTR _this$[ebp]
  0000c	83 c0 04	 add	 eax, 4
  0000f	89 45 f8	 mov	 DWORD PTR __My_data$8[ebp], eax
; File C:\Program Files (x86)\Microsoft Visual Studio\2019\Community\VC\Tools\MSVC\14.28.29333\include\xstddef

; 275  :     return __builtin_addressof(_Val);

  00012	8b 45 f8	 mov	 eax, DWORD PTR __My_data$8[ebp]
  00015	89 45 d8	 mov	 DWORD PTR $T2[ebp], eax
; File C:\Program Files (x86)\Microsoft Visual Studio\2019\Community\VC\Tools\MSVC\14.28.29333\include\vector

; 1421 :         return iterator(_My_data._Mylast, _STD addressof(_My_data));

  00018	8b 45 f8	 mov	 eax, DWORD PTR __My_data$8[ebp]
  0001b	8b 40 04	 mov	 eax, DWORD PTR [eax+4]
  0001e	89 45 f0	 mov	 DWORD PTR ___param0$[ebp], eax

; 42   :     _Vector_const_iterator(_Tptr _Parg, const _Container_base* _Pvector) noexcept : _Ptr(_Parg) {

  00021	8b 45 f0	 mov	 eax, DWORD PTR ___param0$[ebp]
  00024	89 45 ec	 mov	 DWORD PTR $T6[ebp], eax

; 1421 :         return iterator(_My_data._Mylast, _STD addressof(_My_data));

  00027	8d 45 ec	 lea	 eax, DWORD PTR $T6[ebp]
  0002a	89 45 e0	 mov	 DWORD PTR $T4[ebp], eax

; 1410 :         auto& _My_data = _Mypair._Myval2;

  0002d	8b 45 fc	 mov	 eax, DWORD PTR _this$[ebp]
  00030	83 c0 04	 add	 eax, 4
  00033	89 45 f4	 mov	 DWORD PTR __My_data$7[ebp], eax
; File C:\Program Files (x86)\Microsoft Visual Studio\2019\Community\VC\Tools\MSVC\14.28.29333\include\xstddef

; 275  :     return __builtin_addressof(_Val);

  00036	8b 45 f4	 mov	 eax, DWORD PTR __My_data$7[ebp]
  00039	89 45 d4	 mov	 DWORD PTR $T1[ebp], eax
; File C:\Program Files (x86)\Microsoft Visual Studio\2019\Community\VC\Tools\MSVC\14.28.29333\include\vector

; 1411 :         return iterator(_My_data._Myfirst, _STD addressof(_My_data));

  0003c	8b 45 f4	 mov	 eax, DWORD PTR __My_data$7[ebp]
  0003f	8b 00		 mov	 eax, DWORD PTR [eax]
  00041	89 45 e8	 mov	 DWORD PTR ___param0$[ebp], eax

; 42   :     _Vector_const_iterator(_Tptr _Parg, const _Container_base* _Pvector) noexcept : _Ptr(_Parg) {

  00044	8b 45 e8	 mov	 eax, DWORD PTR ___param0$[ebp]
  00047	89 45 e4	 mov	 DWORD PTR $T5[ebp], eax

; 1411 :         return iterator(_My_data._Myfirst, _STD addressof(_My_data));

  0004a	8d 45 e4	 lea	 eax, DWORD PTR $T5[ebp]
  0004d	89 45 dc	 mov	 DWORD PTR $T3[ebp], eax
; File D:\Metin2 Server Files\mainline\SRC_2014\Metin2Client\eterLib\Pool.h

; 160  : 			std::for_each(m_kVct_pkData.begin(), m_kVct_pkData.end(), Delete);

  00050	68 00 00 00 00	 push	 OFFSET ?Delete@?$CDynamicPoolEx@VCTextureAnimationCCWDecorator@NEffectUpdateDecorator@@@@KAXPAVCTextureAnimationCCWDecorator@NEffectUpdateDecorator@@@Z ; CDynamicPoolEx<NEffectUpdateDecorator::CTextureAnimationCCWDecorator>::Delete
  00055	8b 45 e0	 mov	 eax, DWORD PTR $T4[ebp]
  00058	ff 30		 push	 DWORD PTR [eax]
  0005a	8b 45 dc	 mov	 eax, DWORD PTR $T3[ebp]
  0005d	ff 30		 push	 DWORD PTR [eax]
  0005f	e8 00 00 00 00	 call	 ??$for_each@V?$_Vector_iterator@V?$_Vector_val@U?$_Simple_types@PAVCTextureAnimationCCWDecorator@NEffectUpdateDecorator@@@std@@@std@@@std@@P6AXPAVCTextureAnimationCCWDecorator@NEffectUpdateDecorator@@@Z@std@@YAP6AXPAVCTextureAnimationCCWDecorator@NEffectUpdateDecorator@@@ZV?$_Vector_iterator@V?$_Vector_val@U?$_Simple_types@PAVCTextureAnimationCCWDecorator@NEffectUpdateDecorator@@@std@@@std@@@0@1P6AX0@Z@Z ; std::for_each<std::_Vector_iterator<std::_Vector_val<std::_Simple_types<NEffectUpdateDecorator::CTextureAnimationCCWDecorator *> > >,void (__cdecl*)(NEffectUpdateDecorator::CTextureAnimationCCWDecorator *)>
  00064	83 c4 0c	 add	 esp, 12			; 0000000cH

; 161  : 			m_kVct_pkData.clear();

  00067	8b 4d fc	 mov	 ecx, DWORD PTR _this$[ebp]
  0006a	83 c1 04	 add	 ecx, 4
  0006d	e8 00 00 00 00	 call	 ?clear@?$vector@PAVCTextureAnimationCCWDecorator@NEffectUpdateDecorator@@V?$allocator@PAVCTextureAnimationCCWDecorator@NEffectUpdateDecorator@@@std@@@std@@QAEXXZ ; std::vector<NEffectUpdateDecorator::CTextureAnimationCCWDecorator *,std::allocator<NEffectUpdateDecorator::CTextureAnimationCCWDecorator *> >::clear

; 162  : 			m_kVct_pkFree.clear();

  00072	8b 4d fc	 mov	 ecx, DWORD PTR _this$[ebp]
  00075	83 c1 10	 add	 ecx, 16			; 00000010H
  00078	e8 00 00 00 00	 call	 ?clear@?$vector@PAVCTextureAnimationCCWDecorator@NEffectUpdateDecorator@@V?$allocator@PAVCTextureAnimationCCWDecorator@NEffectUpdateDecorator@@@std@@@std@@QAEXXZ ; std::vector<NEffectUpdateDecorator::CTextureAnimationCCWDecorator *,std::allocator<NEffectUpdateDecorator::CTextureAnimationCCWDecorator *> >::clear

; 163  : 		}

  0007d	c9		 leave
  0007e	c3		 ret	 0
?Destroy@?$CDynamicPoolEx@VCTextureAnimationCCWDecorator@NEffectUpdateDecorator@@@@QAEXXZ ENDP ; CDynamicPoolEx<NEffectUpdateDecorator::CTextureAnimationCCWDecorator>::Destroy
_TEXT	ENDS
; Function compile flags: /Odspy
; File D:\Metin2 Server Files\mainline\SRC_2014\Metin2Client\eterLib\Pool.h
; File C:\Program Files (x86)\Microsoft Visual Studio\2019\Community\VC\Tools\MSVC\14.28.29333\include\vector
; File D:\Metin2 Server Files\mainline\SRC_2014\Metin2Client\eterLib\Pool.h
; File C:\Program Files (x86)\Microsoft Visual Studio\2019\Community\VC\Tools\MSVC\14.28.29333\include\vector
; File D:\Metin2 Server Files\mainline\SRC_2014\Metin2Client\eterLib\Pool.h
;	COMDAT ??1?$CDynamicPoolEx@VCTextureAnimationCCWDecorator@NEffectUpdateDecorator@@@@UAE@XZ
_TEXT	SEGMENT
_this$ = -16						; size = 4
__$EHRec$ = -12						; size = 12
??1?$CDynamicPoolEx@VCTextureAnimationCCWDecorator@NEffectUpdateDecorator@@@@UAE@XZ PROC ; CDynamicPoolEx<NEffectUpdateDecorator::CTextureAnimationCCWDecorator>::~CDynamicPoolEx<NEffectUpdateDecorator::CTextureAnimationCCWDecorator>, COMDAT
; _this$ = ecx

; 132  : 		{

  00000	55		 push	 ebp
  00001	8b ec		 mov	 ebp, esp
  00003	6a ff		 push	 -1
  00005	68 00 00 00 00	 push	 __ehhandler$??1?$CDynamicPoolEx@VCTextureAnimationCCWDecorator@NEffectUpdateDecorator@@@@UAE@XZ
  0000a	64 a1 00 00 00
	00		 mov	 eax, DWORD PTR fs:0
  00010	50		 push	 eax
  00011	51		 push	 ecx
  00012	a1 00 00 00 00	 mov	 eax, DWORD PTR ___security_cookie
  00017	33 c5		 xor	 eax, ebp
  00019	50		 push	 eax
  0001a	8d 45 f4	 lea	 eax, DWORD PTR __$EHRec$[ebp]
  0001d	64 a3 00 00 00
	00		 mov	 DWORD PTR fs:0, eax
  00023	89 4d f0	 mov	 DWORD PTR _this$[ebp], ecx
  00026	8b 45 f0	 mov	 eax, DWORD PTR _this$[ebp]
  00029	c7 00 00 00 00
	00		 mov	 DWORD PTR [eax], OFFSET ??_7?$CDynamicPoolEx@VCTextureAnimationCCWDecorator@NEffectUpdateDecorator@@@@6B@

; 133  : 			assert(m_kVct_pkFree.size()==m_kVct_pkData.size());
; 134  : 			Destroy();

  0002f	8b 4d f0	 mov	 ecx, DWORD PTR _this$[ebp]
  00032	e8 00 00 00 00	 call	 ?Destroy@?$CDynamicPoolEx@VCTextureAnimationCCWDecorator@NEffectUpdateDecorator@@@@QAEXXZ ; CDynamicPoolEx<NEffectUpdateDecorator::CTextureAnimationCCWDecorator>::Destroy

; 142  : 		}

  00037	8b 4d f0	 mov	 ecx, DWORD PTR _this$[ebp]
  0003a	83 c1 10	 add	 ecx, 16			; 00000010H
; File C:\Program Files (x86)\Microsoft Visual Studio\2019\Community\VC\Tools\MSVC\14.28.29333\include\vector

; 673  :         _Tidy();

  0003d	e8 00 00 00 00	 call	 ?_Tidy@?$vector@PAVCTextureAnimationCCWDecorator@NEffectUpdateDecorator@@V?$allocator@PAVCTextureAnimationCCWDecorator@NEffectUpdateDecorator@@@std@@@std@@AAEXXZ ; std::vector<NEffectUpdateDecorator::CTextureAnimationCCWDecorator *,std::allocator<NEffectUpdateDecorator::CTextureAnimationCCWDecorator *> >::_Tidy
; File D:\Metin2 Server Files\mainline\SRC_2014\Metin2Client\eterLib\Pool.h

; 142  : 		}

  00042	8b 4d f0	 mov	 ecx, DWORD PTR _this$[ebp]
  00045	83 c1 04	 add	 ecx, 4
; File C:\Program Files (x86)\Microsoft Visual Studio\2019\Community\VC\Tools\MSVC\14.28.29333\include\vector

; 673  :         _Tidy();

  00048	e8 00 00 00 00	 call	 ?_Tidy@?$vector@PAVCTextureAnimationCCWDecorator@NEffectUpdateDecorator@@V?$allocator@PAVCTextureAnimationCCWDecorator@NEffectUpdateDecorator@@@std@@@std@@AAEXXZ ; std::vector<NEffectUpdateDecorator::CTextureAnimationCCWDecorator *,std::allocator<NEffectUpdateDecorator::CTextureAnimationCCWDecorator *> >::_Tidy
; File D:\Metin2 Server Files\mainline\SRC_2014\Metin2Client\eterLib\Pool.h

; 142  : 		}

  0004d	8b 4d f4	 mov	 ecx, DWORD PTR __$EHRec$[ebp]
  00050	64 89 0d 00 00
	00 00		 mov	 DWORD PTR fs:0, ecx
  00057	59		 pop	 ecx
  00058	c9		 leave
  00059	c3		 ret	 0
  0005a	cc		 int	 3
  0005b	cc		 int	 3
  0005c	cc		 int	 3
  0005d	cc		 int	 3
  0005e	cc		 int	 3
_TEXT	ENDS
;	COMDAT text$x
text$x	SEGMENT
__ehhandler$??1?$CDynamicPoolEx@VCTextureAnimationCCWDecorator@NEffectUpdateDecorator@@@@UAE@XZ:
  00000	90		 npad	 1
  00001	90		 npad	 1
  00002	8b 54 24 08	 mov	 edx, DWORD PTR [esp+8]
  00006	8d 42 0c	 lea	 eax, DWORD PTR [edx+12]
  00009	8b 4a f8	 mov	 ecx, DWORD PTR [edx-8]
  0000c	33 c8		 xor	 ecx, eax
  0000e	e8 00 00 00 00	 call	 @__security_check_cookie@4
  00013	b8 00 00 00 00	 mov	 eax, OFFSET __ehfuncinfo$??1?$CDynamicPoolEx@VCTextureAnimationCCWDecorator@NEffectUpdateDecorator@@@@UAE@XZ
  00018	e9 00 00 00 00	 jmp	 ___CxxFrameHandler3
text$x	ENDS
??1?$CDynamicPoolEx@VCTextureAnimationCCWDecorator@NEffectUpdateDecorator@@@@UAE@XZ ENDP ; CDynamicPoolEx<NEffectUpdateDecorator::CTextureAnimationCCWDecorator>::~CDynamicPoolEx<NEffectUpdateDecorator::CTextureAnimationCCWDecorator>
; Function compile flags: /Odspy
; File D:\Metin2 Server Files\mainline\SRC_2014\Metin2Client\eterLib\Pool.h
; File C:\Program Files (x86)\Microsoft Visual Studio\2019\Community\VC\Tools\MSVC\14.28.29333\include\vector
; File C:\Program Files (x86)\Microsoft Visual Studio\2019\Community\VC\Tools\MSVC\14.28.29333\include\xmemory
; File C:\Program Files (x86)\Microsoft Visual Studio\2019\Community\VC\Tools\MSVC\14.28.29333\include\vector
; File D:\Metin2 Server Files\mainline\SRC_2014\Metin2Client\eterLib\Pool.h
; File C:\Program Files (x86)\Microsoft Visual Studio\2019\Community\VC\Tools\MSVC\14.28.29333\include\vector
; File C:\Program Files (x86)\Microsoft Visual Studio\2019\Community\VC\Tools\MSVC\14.28.29333\include\xmemory
; File C:\Program Files (x86)\Microsoft Visual Studio\2019\Community\VC\Tools\MSVC\14.28.29333\include\vector
; File D:\Metin2 Server Files\mainline\SRC_2014\Metin2Client\eterLib\Pool.h
;	COMDAT ??0?$CDynamicPoolEx@VCTextureAnimationCCWDecorator@NEffectUpdateDecorator@@@@QAE@XZ
_TEXT	SEGMENT
_this$ = -28						; size = 4
_this$ = -24						; size = 4
_this$ = -20						; size = 4
_this$ = -16						; size = 4
_this$1 = -12						; size = 4
_this$2 = -8						; size = 4
_this$ = -4						; size = 4
??0?$CDynamicPoolEx@VCTextureAnimationCCWDecorator@NEffectUpdateDecorator@@@@QAE@XZ PROC ; CDynamicPoolEx<NEffectUpdateDecorator::CTextureAnimationCCWDecorator>::CDynamicPoolEx<NEffectUpdateDecorator::CTextureAnimationCCWDecorator>, COMDAT
; _this$ = ecx

; 126  : 		CDynamicPoolEx()

  00000	55		 push	 ebp
  00001	8b ec		 mov	 ebp, esp
  00003	83 ec 1c	 sub	 esp, 28			; 0000001cH
  00006	89 4d fc	 mov	 DWORD PTR _this$[ebp], ecx

; 127  : 		{

  00009	8b 45 fc	 mov	 eax, DWORD PTR _this$[ebp]
  0000c	c7 00 00 00 00
	00		 mov	 DWORD PTR [eax], OFFSET ??_7?$CDynamicPoolEx@VCTextureAnimationCCWDecorator@NEffectUpdateDecorator@@@@6B@
  00012	8b 45 fc	 mov	 eax, DWORD PTR _this$[ebp]
  00015	83 c0 04	 add	 eax, 4
  00018	89 45 f0	 mov	 DWORD PTR _this$[ebp], eax
; File C:\Program Files (x86)\Microsoft Visual Studio\2019\Community\VC\Tools\MSVC\14.28.29333\include\vector

; 445  :     vector() noexcept(is_nothrow_default_constructible_v<_Alty>) : _Mypair(_Zero_then_variadic_args_t{}) {

  0001b	8b 45 f0	 mov	 eax, DWORD PTR _this$[ebp]
  0001e	89 45 ec	 mov	 DWORD PTR _this$[ebp], eax
; File C:\Program Files (x86)\Microsoft Visual Studio\2019\Community\VC\Tools\MSVC\14.28.29333\include\xmemory

; 1339 :         : _Ty1(), _Myval2(_STD forward<_Other2>(_Val2)...) {}

  00021	8b 45 ec	 mov	 eax, DWORD PTR _this$[ebp]
  00024	89 45 f8	 mov	 DWORD PTR _this$2[ebp], eax
; File C:\Program Files (x86)\Microsoft Visual Studio\2019\Community\VC\Tools\MSVC\14.28.29333\include\vector

; 375  :     _Vector_val() noexcept : _Myfirst(), _Mylast(), _Myend() {}

  00027	8b 45 f8	 mov	 eax, DWORD PTR _this$2[ebp]
  0002a	83 20 00	 and	 DWORD PTR [eax], 0
  0002d	8b 45 f8	 mov	 eax, DWORD PTR _this$2[ebp]
  00030	83 60 04 00	 and	 DWORD PTR [eax+4], 0
  00034	8b 45 f8	 mov	 eax, DWORD PTR _this$2[ebp]
  00037	83 60 08 00	 and	 DWORD PTR [eax+8], 0
; File D:\Metin2 Server Files\mainline\SRC_2014\Metin2Client\eterLib\Pool.h

; 127  : 		{

  0003b	8b 45 fc	 mov	 eax, DWORD PTR _this$[ebp]
  0003e	83 c0 10	 add	 eax, 16			; 00000010H
  00041	89 45 e8	 mov	 DWORD PTR _this$[ebp], eax
; File C:\Program Files (x86)\Microsoft Visual Studio\2019\Community\VC\Tools\MSVC\14.28.29333\include\vector

; 445  :     vector() noexcept(is_nothrow_default_constructible_v<_Alty>) : _Mypair(_Zero_then_variadic_args_t{}) {

  00044	8b 45 e8	 mov	 eax, DWORD PTR _this$[ebp]
  00047	89 45 e4	 mov	 DWORD PTR _this$[ebp], eax
; File C:\Program Files (x86)\Microsoft Visual Studio\2019\Community\VC\Tools\MSVC\14.28.29333\include\xmemory

; 1339 :         : _Ty1(), _Myval2(_STD forward<_Other2>(_Val2)...) {}

  0004a	8b 45 e4	 mov	 eax, DWORD PTR _this$[ebp]
  0004d	89 45 f4	 mov	 DWORD PTR _this$1[ebp], eax
; File C:\Program Files (x86)\Microsoft Visual Studio\2019\Community\VC\Tools\MSVC\14.28.29333\include\vector

; 375  :     _Vector_val() noexcept : _Myfirst(), _Mylast(), _Myend() {}

  00050	8b 45 f4	 mov	 eax, DWORD PTR _this$1[ebp]
  00053	83 20 00	 and	 DWORD PTR [eax], 0
  00056	8b 45 f4	 mov	 eax, DWORD PTR _this$1[ebp]
  00059	83 60 04 00	 and	 DWORD PTR [eax+4], 0
  0005d	8b 45 f4	 mov	 eax, DWORD PTR _this$1[ebp]
  00060	83 60 08 00	 and	 DWORD PTR [eax+8], 0
; File D:\Metin2 Server Files\mainline\SRC_2014\Metin2Client\eterLib\Pool.h

; 128  : 			m_uInitCapacity=0;

  00064	8b 45 fc	 mov	 eax, DWORD PTR _this$[ebp]
  00067	83 60 1c 00	 and	 DWORD PTR [eax+28], 0

; 129  : 			m_uUsedCapacity=0;

  0006b	8b 45 fc	 mov	 eax, DWORD PTR _this$[ebp]
  0006e	83 60 20 00	 and	 DWORD PTR [eax+32], 0

; 130  : 		}

  00072	8b 45 fc	 mov	 eax, DWORD PTR _this$[ebp]
  00075	c9		 leave
  00076	c3		 ret	 0
??0?$CDynamicPoolEx@VCTextureAnimationCCWDecorator@NEffectUpdateDecorator@@@@QAE@XZ ENDP ; CDynamicPoolEx<NEffectUpdateDecorator::CTextureAnimationCCWDecorator>::CDynamicPoolEx<NEffectUpdateDecorator::CTextureAnimationCCWDecorator>
_TEXT	ENDS
; Function compile flags: /Odspy
;	COMDAT ??_G?$CDynamicPoolEx@VCTextureAnimationRandomDecorator@NEffectUpdateDecorator@@@@UAEPAXI@Z
_TEXT	SEGMENT
_this$ = -4						; size = 4
___flags$ = 8						; size = 4
??_G?$CDynamicPoolEx@VCTextureAnimationRandomDecorator@NEffectUpdateDecorator@@@@UAEPAXI@Z PROC ; CDynamicPoolEx<NEffectUpdateDecorator::CTextureAnimationRandomDecorator>::`scalar deleting destructor', COMDAT
; _this$ = ecx
  00000	55		 push	 ebp
  00001	8b ec		 mov	 ebp, esp
  00003	51		 push	 ecx
  00004	89 4d fc	 mov	 DWORD PTR _this$[ebp], ecx
  00007	8b 4d fc	 mov	 ecx, DWORD PTR _this$[ebp]
  0000a	e8 00 00 00 00	 call	 ??1?$CDynamicPoolEx@VCTextureAnimationRandomDecorator@NEffectUpdateDecorator@@@@UAE@XZ ; CDynamicPoolEx<NEffectUpdateDecorator::CTextureAnimationRandomDecorator>::~CDynamicPoolEx<NEffectUpdateDecorator::CTextureAnimationRandomDecorator>
  0000f	8b 45 08	 mov	 eax, DWORD PTR ___flags$[ebp]
  00012	83 e0 01	 and	 eax, 1
  00015	74 0c		 je	 SHORT $LN2@scalar
  00017	6a 24		 push	 36			; 00000024H
  00019	ff 75 fc	 push	 DWORD PTR _this$[ebp]
  0001c	e8 00 00 00 00	 call	 ??3@YAXPAXI@Z		; operator delete
  00021	59		 pop	 ecx
  00022	59		 pop	 ecx
$LN2@scalar:
  00023	8b 45 fc	 mov	 eax, DWORD PTR _this$[ebp]
  00026	c9		 leave
  00027	c2 04 00	 ret	 4
??_G?$CDynamicPoolEx@VCTextureAnimationRandomDecorator@NEffectUpdateDecorator@@@@UAEPAXI@Z ENDP ; CDynamicPoolEx<NEffectUpdateDecorator::CTextureAnimationRandomDecorator>::`scalar deleting destructor'
_TEXT	ENDS
; Function compile flags: /Odspy
; File C:\Program Files (x86)\Microsoft Visual Studio\2019\Community\VC\Tools\MSVC\14.28.29333\include\vector
; File C:\Program Files (x86)\Microsoft Visual Studio\2019\Community\VC\Tools\MSVC\14.28.29333\include\xmemory
; File C:\Program Files (x86)\Microsoft Visual Studio\2019\Community\VC\Tools\MSVC\14.28.29333\include\vector
; File C:\Program Files (x86)\Microsoft Visual Studio\2019\Community\VC\Tools\MSVC\14.28.29333\include\xmemory
; File C:\Program Files (x86)\Microsoft Visual Studio\2019\Community\VC\Tools\MSVC\14.28.29333\include\vector
; File C:\Program Files (x86)\Microsoft Visual Studio\2019\Community\VC\Tools\MSVC\14.28.29333\include\xmemory
; File C:\Program Files (x86)\Microsoft Visual Studio\2019\Community\VC\Tools\MSVC\14.28.29333\include\vector
;	COMDAT ?_Tidy@?$vector@PAVCTextureAnimationRandomDecorator@NEffectUpdateDecorator@@V?$allocator@PAVCTextureAnimationRandomDecorator@NEffectUpdateDecorator@@@std@@@std@@AAEXXZ
_TEXT	SEGMENT
$T1 = -52						; size = 4
__Ptr$ = -48						; size = 4
__Count$ = -44						; size = 4
$T2 = -40						; size = 4
__First$ = -36						; size = 4
__Last$ = -32						; size = 4
$T3 = -28						; size = 4
$T4 = -24						; size = 4
__Myend$ = -20						; size = 4
__Mylast$ = -16						; size = 4
_this$ = -12						; size = 4
__My_data$ = -8						; size = 4
__Myfirst$ = -4						; size = 4
?_Tidy@?$vector@PAVCTextureAnimationRandomDecorator@NEffectUpdateDecorator@@V?$allocator@PAVCTextureAnimationRandomDecorator@NEffectUpdateDecorator@@@std@@@std@@AAEXXZ PROC ; std::vector<NEffectUpdateDecorator::CTextureAnimationRandomDecorator *,std::allocator<NEffectUpdateDecorator::CTextureAnimationRandomDecorator *> >::_Tidy, COMDAT
; _this$ = ecx

; 1686 :     void _Tidy() noexcept { // free all storage

  00000	55		 push	 ebp
  00001	8b ec		 mov	 ebp, esp
  00003	83 ec 34	 sub	 esp, 52			; 00000034H
  00006	89 4d f4	 mov	 DWORD PTR _this$[ebp], ecx

; 1687 :         auto& _My_data    = _Mypair._Myval2;

  00009	8b 45 f4	 mov	 eax, DWORD PTR _this$[ebp]
  0000c	89 45 f8	 mov	 DWORD PTR __My_data$[ebp], eax

; 1688 :         pointer& _Myfirst = _My_data._Myfirst;

  0000f	8b 45 f8	 mov	 eax, DWORD PTR __My_data$[ebp]
  00012	89 45 fc	 mov	 DWORD PTR __Myfirst$[ebp], eax

; 1689 :         pointer& _Mylast  = _My_data._Mylast;

  00015	8b 45 f8	 mov	 eax, DWORD PTR __My_data$[ebp]
  00018	83 c0 04	 add	 eax, 4
  0001b	89 45 f0	 mov	 DWORD PTR __Mylast$[ebp], eax

; 1690 :         pointer& _Myend   = _My_data._Myend;

  0001e	8b 45 f8	 mov	 eax, DWORD PTR __My_data$[ebp]
  00021	83 c0 08	 add	 eax, 8
  00024	89 45 ec	 mov	 DWORD PTR __Myend$[ebp], eax

; 1691 : 
; 1692 :         _My_data._Orphan_all();
; 1693 : 
; 1694 :         if (_Myfirst) { // destroy and deallocate old array

  00027	8b 45 fc	 mov	 eax, DWORD PTR __Myfirst$[ebp]
  0002a	83 38 00	 cmp	 DWORD PTR [eax], 0
  0002d	74 74		 je	 SHORT $LN3@Tidy

; 1695 :             _Destroy(_Myfirst, _Mylast);

  0002f	8b 45 f0	 mov	 eax, DWORD PTR __Mylast$[ebp]
  00032	8b 00		 mov	 eax, DWORD PTR [eax]
  00034	89 45 e0	 mov	 DWORD PTR __Last$[ebp], eax
  00037	8b 45 fc	 mov	 eax, DWORD PTR __Myfirst$[ebp]
  0003a	8b 00		 mov	 eax, DWORD PTR [eax]
  0003c	89 45 dc	 mov	 DWORD PTR __First$[ebp], eax

; 1733 :         return _Mypair._Get_first();

  0003f	8b 45 f4	 mov	 eax, DWORD PTR _this$[ebp]
; File C:\Program Files (x86)\Microsoft Visual Studio\2019\Community\VC\Tools\MSVC\14.28.29333\include\xmemory

; 1347 :         return *this;

  00042	89 45 e8	 mov	 DWORD PTR $T4[ebp], eax
; File C:\Program Files (x86)\Microsoft Visual Studio\2019\Community\VC\Tools\MSVC\14.28.29333\include\vector

; 1733 :         return _Mypair._Get_first();

  00045	8b 45 e8	 mov	 eax, DWORD PTR $T4[ebp]
  00048	89 45 e4	 mov	 DWORD PTR $T3[ebp], eax

; 1612 :         _Destroy_range(_First, _Last, _Getal());

  0004b	ff 75 e4	 push	 DWORD PTR $T3[ebp]
  0004e	ff 75 e0	 push	 DWORD PTR __Last$[ebp]
  00051	ff 75 dc	 push	 DWORD PTR __First$[ebp]
  00054	e8 00 00 00 00	 call	 ??$_Destroy_range@V?$allocator@PAVCTextureAnimationRandomDecorator@NEffectUpdateDecorator@@@std@@@std@@YAXPAPAVCTextureAnimationRandomDecorator@NEffectUpdateDecorator@@QAPAV12@AAV?$allocator@PAVCTextureAnimationRandomDecorator@NEffectUpdateDecorator@@@0@@Z ; std::_Destroy_range<std::allocator<NEffectUpdateDecorator::CTextureAnimationRandomDecorator *> >
  00059	83 c4 0c	 add	 esp, 12			; 0000000cH

; 1733 :         return _Mypair._Get_first();

  0005c	8b 45 f4	 mov	 eax, DWORD PTR _this$[ebp]
; File C:\Program Files (x86)\Microsoft Visual Studio\2019\Community\VC\Tools\MSVC\14.28.29333\include\xmemory

; 1347 :         return *this;

  0005f	89 45 d8	 mov	 DWORD PTR $T2[ebp], eax
; File C:\Program Files (x86)\Microsoft Visual Studio\2019\Community\VC\Tools\MSVC\14.28.29333\include\vector

; 1733 :         return _Mypair._Get_first();

  00062	8b 45 d8	 mov	 eax, DWORD PTR $T2[ebp]
  00065	89 45 cc	 mov	 DWORD PTR $T1[ebp], eax

; 1696 :             _Getal().deallocate(_Myfirst, static_cast<size_type>(_Myend - _Myfirst));

  00068	8b 45 ec	 mov	 eax, DWORD PTR __Myend$[ebp]
  0006b	8b 4d fc	 mov	 ecx, DWORD PTR __Myfirst$[ebp]
  0006e	8b 00		 mov	 eax, DWORD PTR [eax]
  00070	2b 01		 sub	 eax, DWORD PTR [ecx]
  00072	c1 f8 02	 sar	 eax, 2
  00075	89 45 d4	 mov	 DWORD PTR __Count$[ebp], eax
  00078	8b 45 fc	 mov	 eax, DWORD PTR __Myfirst$[ebp]
  0007b	8b 00		 mov	 eax, DWORD PTR [eax]
  0007d	89 45 d0	 mov	 DWORD PTR __Ptr$[ebp], eax
; File C:\Program Files (x86)\Microsoft Visual Studio\2019\Community\VC\Tools\MSVC\14.28.29333\include\xmemory

; 810  :         _Deallocate<_New_alignof<_Ty>>(_Ptr, sizeof(_Ty) * _Count);

  00080	8b 45 d4	 mov	 eax, DWORD PTR __Count$[ebp]
  00083	c1 e0 02	 shl	 eax, 2
  00086	50		 push	 eax
  00087	ff 75 d0	 push	 DWORD PTR __Ptr$[ebp]
  0008a	e8 00 00 00 00	 call	 ??$_Deallocate@$07$0A@@std@@YAXPAXI@Z ; std::_Deallocate<8,0>
  0008f	59		 pop	 ecx
  00090	59		 pop	 ecx
; File C:\Program Files (x86)\Microsoft Visual Studio\2019\Community\VC\Tools\MSVC\14.28.29333\include\vector

; 1698 :             _Myfirst = pointer();

  00091	8b 45 fc	 mov	 eax, DWORD PTR __Myfirst$[ebp]
  00094	83 20 00	 and	 DWORD PTR [eax], 0

; 1699 :             _Mylast  = pointer();

  00097	8b 45 f0	 mov	 eax, DWORD PTR __Mylast$[ebp]
  0009a	83 20 00	 and	 DWORD PTR [eax], 0

; 1700 :             _Myend   = pointer();

  0009d	8b 45 ec	 mov	 eax, DWORD PTR __Myend$[ebp]
  000a0	83 20 00	 and	 DWORD PTR [eax], 0
$LN3@Tidy:

; 1701 :         }
; 1702 :     }

  000a3	c9		 leave
  000a4	c3		 ret	 0
?_Tidy@?$vector@PAVCTextureAnimationRandomDecorator@NEffectUpdateDecorator@@V?$allocator@PAVCTextureAnimationRandomDecorator@NEffectUpdateDecorator@@@std@@@std@@AAEXXZ ENDP ; std::vector<NEffectUpdateDecorator::CTextureAnimationRandomDecorator *,std::allocator<NEffectUpdateDecorator::CTextureAnimationRandomDecorator *> >::_Tidy
_TEXT	ENDS
; Function compile flags: /Odspy
; File C:\Program Files (x86)\Microsoft Visual Studio\2019\Community\VC\Tools\MSVC\14.28.29333\include\vector
; File C:\Program Files (x86)\Microsoft Visual Studio\2019\Community\VC\Tools\MSVC\14.28.29333\include\xmemory
; File C:\Program Files (x86)\Microsoft Visual Studio\2019\Community\VC\Tools\MSVC\14.28.29333\include\vector
;	COMDAT ?clear@?$vector@PAVCTextureAnimationRandomDecorator@NEffectUpdateDecorator@@V?$allocator@PAVCTextureAnimationRandomDecorator@NEffectUpdateDecorator@@@std@@@std@@QAEXXZ
_TEXT	SEGMENT
__First$ = -32						; size = 4
__Last$ = -28						; size = 4
$T1 = -24						; size = 4
$T2 = -20						; size = 4
__Myfirst$ = -16					; size = 4
__Mylast$ = -12						; size = 4
_this$ = -8						; size = 4
__My_data$ = -4						; size = 4
?clear@?$vector@PAVCTextureAnimationRandomDecorator@NEffectUpdateDecorator@@V?$allocator@PAVCTextureAnimationRandomDecorator@NEffectUpdateDecorator@@@std@@@std@@QAEXXZ PROC ; std::vector<NEffectUpdateDecorator::CTextureAnimationRandomDecorator *,std::allocator<NEffectUpdateDecorator::CTextureAnimationRandomDecorator *> >::clear, COMDAT
; _this$ = ecx

; 1383 :     void clear() noexcept { // erase all

  00000	55		 push	 ebp
  00001	8b ec		 mov	 ebp, esp
  00003	83 ec 20	 sub	 esp, 32			; 00000020H
  00006	89 4d f8	 mov	 DWORD PTR _this$[ebp], ecx

; 1384 :         auto& _My_data    = _Mypair._Myval2;

  00009	8b 45 f8	 mov	 eax, DWORD PTR _this$[ebp]
  0000c	89 45 fc	 mov	 DWORD PTR __My_data$[ebp], eax

; 1385 :         pointer& _Myfirst = _My_data._Myfirst;

  0000f	8b 45 fc	 mov	 eax, DWORD PTR __My_data$[ebp]
  00012	89 45 f0	 mov	 DWORD PTR __Myfirst$[ebp], eax

; 1386 :         pointer& _Mylast  = _My_data._Mylast;

  00015	8b 45 fc	 mov	 eax, DWORD PTR __My_data$[ebp]
  00018	83 c0 04	 add	 eax, 4
  0001b	89 45 f4	 mov	 DWORD PTR __Mylast$[ebp], eax

; 1387 : 
; 1388 :         _My_data._Orphan_all();
; 1389 :         _Destroy(_Myfirst, _Mylast);

  0001e	8b 45 f4	 mov	 eax, DWORD PTR __Mylast$[ebp]
  00021	8b 00		 mov	 eax, DWORD PTR [eax]
  00023	89 45 e4	 mov	 DWORD PTR __Last$[ebp], eax
  00026	8b 45 f0	 mov	 eax, DWORD PTR __Myfirst$[ebp]
  00029	8b 00		 mov	 eax, DWORD PTR [eax]
  0002b	89 45 e0	 mov	 DWORD PTR __First$[ebp], eax

; 1733 :         return _Mypair._Get_first();

  0002e	8b 45 f8	 mov	 eax, DWORD PTR _this$[ebp]
; File C:\Program Files (x86)\Microsoft Visual Studio\2019\Community\VC\Tools\MSVC\14.28.29333\include\xmemory

; 1347 :         return *this;

  00031	89 45 ec	 mov	 DWORD PTR $T2[ebp], eax
; File C:\Program Files (x86)\Microsoft Visual Studio\2019\Community\VC\Tools\MSVC\14.28.29333\include\vector

; 1733 :         return _Mypair._Get_first();

  00034	8b 45 ec	 mov	 eax, DWORD PTR $T2[ebp]
  00037	89 45 e8	 mov	 DWORD PTR $T1[ebp], eax

; 1612 :         _Destroy_range(_First, _Last, _Getal());

  0003a	ff 75 e8	 push	 DWORD PTR $T1[ebp]
  0003d	ff 75 e4	 push	 DWORD PTR __Last$[ebp]
  00040	ff 75 e0	 push	 DWORD PTR __First$[ebp]
  00043	e8 00 00 00 00	 call	 ??$_Destroy_range@V?$allocator@PAVCTextureAnimationRandomDecorator@NEffectUpdateDecorator@@@std@@@std@@YAXPAPAVCTextureAnimationRandomDecorator@NEffectUpdateDecorator@@QAPAV12@AAV?$allocator@PAVCTextureAnimationRandomDecorator@NEffectUpdateDecorator@@@0@@Z ; std::_Destroy_range<std::allocator<NEffectUpdateDecorator::CTextureAnimationRandomDecorator *> >
  00048	83 c4 0c	 add	 esp, 12			; 0000000cH

; 1390 :         _Mylast = _Myfirst;

  0004b	8b 45 f4	 mov	 eax, DWORD PTR __Mylast$[ebp]
  0004e	8b 4d f0	 mov	 ecx, DWORD PTR __Myfirst$[ebp]
  00051	8b 09		 mov	 ecx, DWORD PTR [ecx]
  00053	89 08		 mov	 DWORD PTR [eax], ecx

; 1391 :     }

  00055	c9		 leave
  00056	c3		 ret	 0
?clear@?$vector@PAVCTextureAnimationRandomDecorator@NEffectUpdateDecorator@@V?$allocator@PAVCTextureAnimationRandomDecorator@NEffectUpdateDecorator@@@std@@@std@@QAEXXZ ENDP ; std::vector<NEffectUpdateDecorator::CTextureAnimationRandomDecorator *,std::allocator<NEffectUpdateDecorator::CTextureAnimationRandomDecorator *> >::clear
_TEXT	ENDS
; Function compile flags: /Odspy
; File D:\Metin2 Server Files\mainline\SRC_2014\Metin2Client\eterLib\Pool.h
;	COMDAT ?Delete@?$CDynamicPoolEx@VCTextureAnimationRandomDecorator@NEffectUpdateDecorator@@@@KAXPAVCTextureAnimationRandomDecorator@NEffectUpdateDecorator@@@Z
_TEXT	SEGMENT
_pkData$ = 8						; size = 4
?Delete@?$CDynamicPoolEx@VCTextureAnimationRandomDecorator@NEffectUpdateDecorator@@@@KAXPAVCTextureAnimationRandomDecorator@NEffectUpdateDecorator@@@Z PROC ; CDynamicPoolEx<NEffectUpdateDecorator::CTextureAnimationRandomDecorator>::Delete, COMDAT

; 223  : 		{

  00000	55		 push	 ebp
  00001	8b ec		 mov	 ebp, esp

; 224  : 			::operator delete(pkData);

  00003	ff 75 08	 push	 DWORD PTR _pkData$[ebp]
  00006	e8 00 00 00 00	 call	 ??3@YAXPAX@Z		; operator delete
  0000b	59		 pop	 ecx

; 225  : 		}

  0000c	5d		 pop	 ebp
  0000d	c3		 ret	 0
?Delete@?$CDynamicPoolEx@VCTextureAnimationRandomDecorator@NEffectUpdateDecorator@@@@KAXPAVCTextureAnimationRandomDecorator@NEffectUpdateDecorator@@@Z ENDP ; CDynamicPoolEx<NEffectUpdateDecorator::CTextureAnimationRandomDecorator>::Delete
_TEXT	ENDS
; Function compile flags: /Odspy
; File D:\Metin2 Server Files\mainline\SRC_2014\Metin2Client\eterLib\Pool.h
; File C:\Program Files (x86)\Microsoft Visual Studio\2019\Community\VC\Tools\MSVC\14.28.29333\include\vector
; File C:\Program Files (x86)\Microsoft Visual Studio\2019\Community\VC\Tools\MSVC\14.28.29333\include\xstddef
; File C:\Program Files (x86)\Microsoft Visual Studio\2019\Community\VC\Tools\MSVC\14.28.29333\include\vector
; File C:\Program Files (x86)\Microsoft Visual Studio\2019\Community\VC\Tools\MSVC\14.28.29333\include\xstddef
; File C:\Program Files (x86)\Microsoft Visual Studio\2019\Community\VC\Tools\MSVC\14.28.29333\include\vector
; File D:\Metin2 Server Files\mainline\SRC_2014\Metin2Client\eterLib\Pool.h
;	COMDAT ?Destroy@?$CDynamicPoolEx@VCTextureAnimationRandomDecorator@NEffectUpdateDecorator@@@@QAEXXZ
_TEXT	SEGMENT
$T1 = -44						; size = 4
$T2 = -40						; size = 4
$T3 = -36						; size = 4
$T4 = -32						; size = 4
$T5 = -28						; size = 4
___param0$ = -24					; size = 4
$T6 = -20						; size = 4
___param0$ = -16					; size = 4
__My_data$7 = -12					; size = 4
__My_data$8 = -8					; size = 4
_this$ = -4						; size = 4
?Destroy@?$CDynamicPoolEx@VCTextureAnimationRandomDecorator@NEffectUpdateDecorator@@@@QAEXXZ PROC ; CDynamicPoolEx<NEffectUpdateDecorator::CTextureAnimationRandomDecorator>::Destroy, COMDAT
; _this$ = ecx

; 150  : 		{

  00000	55		 push	 ebp
  00001	8b ec		 mov	 ebp, esp
  00003	83 ec 2c	 sub	 esp, 44			; 0000002cH
  00006	89 4d fc	 mov	 DWORD PTR _this$[ebp], ecx
; File C:\Program Files (x86)\Microsoft Visual Studio\2019\Community\VC\Tools\MSVC\14.28.29333\include\vector

; 1420 :         auto& _My_data = _Mypair._Myval2;

  00009	8b 45 fc	 mov	 eax, DWORD PTR _this$[ebp]
  0000c	83 c0 04	 add	 eax, 4
  0000f	89 45 f8	 mov	 DWORD PTR __My_data$8[ebp], eax
; File C:\Program Files (x86)\Microsoft Visual Studio\2019\Community\VC\Tools\MSVC\14.28.29333\include\xstddef

; 275  :     return __builtin_addressof(_Val);

  00012	8b 45 f8	 mov	 eax, DWORD PTR __My_data$8[ebp]
  00015	89 45 d8	 mov	 DWORD PTR $T2[ebp], eax
; File C:\Program Files (x86)\Microsoft Visual Studio\2019\Community\VC\Tools\MSVC\14.28.29333\include\vector

; 1421 :         return iterator(_My_data._Mylast, _STD addressof(_My_data));

  00018	8b 45 f8	 mov	 eax, DWORD PTR __My_data$8[ebp]
  0001b	8b 40 04	 mov	 eax, DWORD PTR [eax+4]
  0001e	89 45 f0	 mov	 DWORD PTR ___param0$[ebp], eax

; 42   :     _Vector_const_iterator(_Tptr _Parg, const _Container_base* _Pvector) noexcept : _Ptr(_Parg) {

  00021	8b 45 f0	 mov	 eax, DWORD PTR ___param0$[ebp]
  00024	89 45 ec	 mov	 DWORD PTR $T6[ebp], eax

; 1421 :         return iterator(_My_data._Mylast, _STD addressof(_My_data));

  00027	8d 45 ec	 lea	 eax, DWORD PTR $T6[ebp]
  0002a	89 45 e0	 mov	 DWORD PTR $T4[ebp], eax

; 1410 :         auto& _My_data = _Mypair._Myval2;

  0002d	8b 45 fc	 mov	 eax, DWORD PTR _this$[ebp]
  00030	83 c0 04	 add	 eax, 4
  00033	89 45 f4	 mov	 DWORD PTR __My_data$7[ebp], eax
; File C:\Program Files (x86)\Microsoft Visual Studio\2019\Community\VC\Tools\MSVC\14.28.29333\include\xstddef

; 275  :     return __builtin_addressof(_Val);

  00036	8b 45 f4	 mov	 eax, DWORD PTR __My_data$7[ebp]
  00039	89 45 d4	 mov	 DWORD PTR $T1[ebp], eax
; File C:\Program Files (x86)\Microsoft Visual Studio\2019\Community\VC\Tools\MSVC\14.28.29333\include\vector

; 1411 :         return iterator(_My_data._Myfirst, _STD addressof(_My_data));

  0003c	8b 45 f4	 mov	 eax, DWORD PTR __My_data$7[ebp]
  0003f	8b 00		 mov	 eax, DWORD PTR [eax]
  00041	89 45 e8	 mov	 DWORD PTR ___param0$[ebp], eax

; 42   :     _Vector_const_iterator(_Tptr _Parg, const _Container_base* _Pvector) noexcept : _Ptr(_Parg) {

  00044	8b 45 e8	 mov	 eax, DWORD PTR ___param0$[ebp]
  00047	89 45 e4	 mov	 DWORD PTR $T5[ebp], eax

; 1411 :         return iterator(_My_data._Myfirst, _STD addressof(_My_data));

  0004a	8d 45 e4	 lea	 eax, DWORD PTR $T5[ebp]
  0004d	89 45 dc	 mov	 DWORD PTR $T3[ebp], eax
; File D:\Metin2 Server Files\mainline\SRC_2014\Metin2Client\eterLib\Pool.h

; 160  : 			std::for_each(m_kVct_pkData.begin(), m_kVct_pkData.end(), Delete);

  00050	68 00 00 00 00	 push	 OFFSET ?Delete@?$CDynamicPoolEx@VCTextureAnimationRandomDecorator@NEffectUpdateDecorator@@@@KAXPAVCTextureAnimationRandomDecorator@NEffectUpdateDecorator@@@Z ; CDynamicPoolEx<NEffectUpdateDecorator::CTextureAnimationRandomDecorator>::Delete
  00055	8b 45 e0	 mov	 eax, DWORD PTR $T4[ebp]
  00058	ff 30		 push	 DWORD PTR [eax]
  0005a	8b 45 dc	 mov	 eax, DWORD PTR $T3[ebp]
  0005d	ff 30		 push	 DWORD PTR [eax]
  0005f	e8 00 00 00 00	 call	 ??$for_each@V?$_Vector_iterator@V?$_Vector_val@U?$_Simple_types@PAVCTextureAnimationRandomDecorator@NEffectUpdateDecorator@@@std@@@std@@@std@@P6AXPAVCTextureAnimationRandomDecorator@NEffectUpdateDecorator@@@Z@std@@YAP6AXPAVCTextureAnimationRandomDecorator@NEffectUpdateDecorator@@@ZV?$_Vector_iterator@V?$_Vector_val@U?$_Simple_types@PAVCTextureAnimationRandomDecorator@NEffectUpdateDecorator@@@std@@@std@@@0@1P6AX0@Z@Z ; std::for_each<std::_Vector_iterator<std::_Vector_val<std::_Simple_types<NEffectUpdateDecorator::CTextureAnimationRandomDecorator *> > >,void (__cdecl*)(NEffectUpdateDecorator::CTextureAnimationRandomDecorator *)>
  00064	83 c4 0c	 add	 esp, 12			; 0000000cH

; 161  : 			m_kVct_pkData.clear();

  00067	8b 4d fc	 mov	 ecx, DWORD PTR _this$[ebp]
  0006a	83 c1 04	 add	 ecx, 4
  0006d	e8 00 00 00 00	 call	 ?clear@?$vector@PAVCTextureAnimationRandomDecorator@NEffectUpdateDecorator@@V?$allocator@PAVCTextureAnimationRandomDecorator@NEffectUpdateDecorator@@@std@@@std@@QAEXXZ ; std::vector<NEffectUpdateDecorator::CTextureAnimationRandomDecorator *,std::allocator<NEffectUpdateDecorator::CTextureAnimationRandomDecorator *> >::clear

; 162  : 			m_kVct_pkFree.clear();

  00072	8b 4d fc	 mov	 ecx, DWORD PTR _this$[ebp]
  00075	83 c1 10	 add	 ecx, 16			; 00000010H
  00078	e8 00 00 00 00	 call	 ?clear@?$vector@PAVCTextureAnimationRandomDecorator@NEffectUpdateDecorator@@V?$allocator@PAVCTextureAnimationRandomDecorator@NEffectUpdateDecorator@@@std@@@std@@QAEXXZ ; std::vector<NEffectUpdateDecorator::CTextureAnimationRandomDecorator *,std::allocator<NEffectUpdateDecorator::CTextureAnimationRandomDecorator *> >::clear

; 163  : 		}

  0007d	c9		 leave
  0007e	c3		 ret	 0
?Destroy@?$CDynamicPoolEx@VCTextureAnimationRandomDecorator@NEffectUpdateDecorator@@@@QAEXXZ ENDP ; CDynamicPoolEx<NEffectUpdateDecorator::CTextureAnimationRandomDecorator>::Destroy
_TEXT	ENDS
; Function compile flags: /Odspy
; File D:\Metin2 Server Files\mainline\SRC_2014\Metin2Client\eterLib\Pool.h
; File C:\Program Files (x86)\Microsoft Visual Studio\2019\Community\VC\Tools\MSVC\14.28.29333\include\vector
; File D:\Metin2 Server Files\mainline\SRC_2014\Metin2Client\eterLib\Pool.h
; File C:\Program Files (x86)\Microsoft Visual Studio\2019\Community\VC\Tools\MSVC\14.28.29333\include\vector
; File D:\Metin2 Server Files\mainline\SRC_2014\Metin2Client\eterLib\Pool.h
;	COMDAT ??1?$CDynamicPoolEx@VCTextureAnimationRandomDecorator@NEffectUpdateDecorator@@@@UAE@XZ
_TEXT	SEGMENT
_this$ = -16						; size = 4
__$EHRec$ = -12						; size = 12
??1?$CDynamicPoolEx@VCTextureAnimationRandomDecorator@NEffectUpdateDecorator@@@@UAE@XZ PROC ; CDynamicPoolEx<NEffectUpdateDecorator::CTextureAnimationRandomDecorator>::~CDynamicPoolEx<NEffectUpdateDecorator::CTextureAnimationRandomDecorator>, COMDAT
; _this$ = ecx

; 132  : 		{

  00000	55		 push	 ebp
  00001	8b ec		 mov	 ebp, esp
  00003	6a ff		 push	 -1
  00005	68 00 00 00 00	 push	 __ehhandler$??1?$CDynamicPoolEx@VCTextureAnimationRandomDecorator@NEffectUpdateDecorator@@@@UAE@XZ
  0000a	64 a1 00 00 00
	00		 mov	 eax, DWORD PTR fs:0
  00010	50		 push	 eax
  00011	51		 push	 ecx
  00012	a1 00 00 00 00	 mov	 eax, DWORD PTR ___security_cookie
  00017	33 c5		 xor	 eax, ebp
  00019	50		 push	 eax
  0001a	8d 45 f4	 lea	 eax, DWORD PTR __$EHRec$[ebp]
  0001d	64 a3 00 00 00
	00		 mov	 DWORD PTR fs:0, eax
  00023	89 4d f0	 mov	 DWORD PTR _this$[ebp], ecx
  00026	8b 45 f0	 mov	 eax, DWORD PTR _this$[ebp]
  00029	c7 00 00 00 00
	00		 mov	 DWORD PTR [eax], OFFSET ??_7?$CDynamicPoolEx@VCTextureAnimationRandomDecorator@NEffectUpdateDecorator@@@@6B@

; 133  : 			assert(m_kVct_pkFree.size()==m_kVct_pkData.size());
; 134  : 			Destroy();

  0002f	8b 4d f0	 mov	 ecx, DWORD PTR _this$[ebp]
  00032	e8 00 00 00 00	 call	 ?Destroy@?$CDynamicPoolEx@VCTextureAnimationRandomDecorator@NEffectUpdateDecorator@@@@QAEXXZ ; CDynamicPoolEx<NEffectUpdateDecorator::CTextureAnimationRandomDecorator>::Destroy

; 142  : 		}

  00037	8b 4d f0	 mov	 ecx, DWORD PTR _this$[ebp]
  0003a	83 c1 10	 add	 ecx, 16			; 00000010H
; File C:\Program Files (x86)\Microsoft Visual Studio\2019\Community\VC\Tools\MSVC\14.28.29333\include\vector

; 673  :         _Tidy();

  0003d	e8 00 00 00 00	 call	 ?_Tidy@?$vector@PAVCTextureAnimationRandomDecorator@NEffectUpdateDecorator@@V?$allocator@PAVCTextureAnimationRandomDecorator@NEffectUpdateDecorator@@@std@@@std@@AAEXXZ ; std::vector<NEffectUpdateDecorator::CTextureAnimationRandomDecorator *,std::allocator<NEffectUpdateDecorator::CTextureAnimationRandomDecorator *> >::_Tidy
; File D:\Metin2 Server Files\mainline\SRC_2014\Metin2Client\eterLib\Pool.h

; 142  : 		}

  00042	8b 4d f0	 mov	 ecx, DWORD PTR _this$[ebp]
  00045	83 c1 04	 add	 ecx, 4
; File C:\Program Files (x86)\Microsoft Visual Studio\2019\Community\VC\Tools\MSVC\14.28.29333\include\vector

; 673  :         _Tidy();

  00048	e8 00 00 00 00	 call	 ?_Tidy@?$vector@PAVCTextureAnimationRandomDecorator@NEffectUpdateDecorator@@V?$allocator@PAVCTextureAnimationRandomDecorator@NEffectUpdateDecorator@@@std@@@std@@AAEXXZ ; std::vector<NEffectUpdateDecorator::CTextureAnimationRandomDecorator *,std::allocator<NEffectUpdateDecorator::CTextureAnimationRandomDecorator *> >::_Tidy
; File D:\Metin2 Server Files\mainline\SRC_2014\Metin2Client\eterLib\Pool.h

; 142  : 		}

  0004d	8b 4d f4	 mov	 ecx, DWORD PTR __$EHRec$[ebp]
  00050	64 89 0d 00 00
	00 00		 mov	 DWORD PTR fs:0, ecx
  00057	59		 pop	 ecx
  00058	c9		 leave
  00059	c3		 ret	 0
  0005a	cc		 int	 3
  0005b	cc		 int	 3
  0005c	cc		 int	 3
  0005d	cc		 int	 3
  0005e	cc		 int	 3
_TEXT	ENDS
;	COMDAT text$x
text$x	SEGMENT
__ehhandler$??1?$CDynamicPoolEx@VCTextureAnimationRandomDecorator@NEffectUpdateDecorator@@@@UAE@XZ:
  00000	90		 npad	 1
  00001	90		 npad	 1
  00002	8b 54 24 08	 mov	 edx, DWORD PTR [esp+8]
  00006	8d 42 0c	 lea	 eax, DWORD PTR [edx+12]
  00009	8b 4a f8	 mov	 ecx, DWORD PTR [edx-8]
  0000c	33 c8		 xor	 ecx, eax
  0000e	e8 00 00 00 00	 call	 @__security_check_cookie@4
  00013	b8 00 00 00 00	 mov	 eax, OFFSET __ehfuncinfo$??1?$CDynamicPoolEx@VCTextureAnimationRandomDecorator@NEffectUpdateDecorator@@@@UAE@XZ
  00018	e9 00 00 00 00	 jmp	 ___CxxFrameHandler3
text$x	ENDS
??1?$CDynamicPoolEx@VCTextureAnimationRandomDecorator@NEffectUpdateDecorator@@@@UAE@XZ ENDP ; CDynamicPoolEx<NEffectUpdateDecorator::CTextureAnimationRandomDecorator>::~CDynamicPoolEx<NEffectUpdateDecorator::CTextureAnimationRandomDecorator>
; Function compile flags: /Odspy
; File D:\Metin2 Server Files\mainline\SRC_2014\Metin2Client\eterLib\Pool.h
; File C:\Program Files (x86)\Microsoft Visual Studio\2019\Community\VC\Tools\MSVC\14.28.29333\include\vector
; File C:\Program Files (x86)\Microsoft Visual Studio\2019\Community\VC\Tools\MSVC\14.28.29333\include\xmemory
; File C:\Program Files (x86)\Microsoft Visual Studio\2019\Community\VC\Tools\MSVC\14.28.29333\include\vector
; File D:\Metin2 Server Files\mainline\SRC_2014\Metin2Client\eterLib\Pool.h
; File C:\Program Files (x86)\Microsoft Visual Studio\2019\Community\VC\Tools\MSVC\14.28.29333\include\vector
; File C:\Program Files (x86)\Microsoft Visual Studio\2019\Community\VC\Tools\MSVC\14.28.29333\include\xmemory
; File C:\Program Files (x86)\Microsoft Visual Studio\2019\Community\VC\Tools\MSVC\14.28.29333\include\vector
; File D:\Metin2 Server Files\mainline\SRC_2014\Metin2Client\eterLib\Pool.h
;	COMDAT ??0?$CDynamicPoolEx@VCTextureAnimationRandomDecorator@NEffectUpdateDecorator@@@@QAE@XZ
_TEXT	SEGMENT
_this$ = -28						; size = 4
_this$ = -24						; size = 4
_this$ = -20						; size = 4
_this$ = -16						; size = 4
_this$1 = -12						; size = 4
_this$2 = -8						; size = 4
_this$ = -4						; size = 4
??0?$CDynamicPoolEx@VCTextureAnimationRandomDecorator@NEffectUpdateDecorator@@@@QAE@XZ PROC ; CDynamicPoolEx<NEffectUpdateDecorator::CTextureAnimationRandomDecorator>::CDynamicPoolEx<NEffectUpdateDecorator::CTextureAnimationRandomDecorator>, COMDAT
; _this$ = ecx

; 126  : 		CDynamicPoolEx()

  00000	55		 push	 ebp
  00001	8b ec		 mov	 ebp, esp
  00003	83 ec 1c	 sub	 esp, 28			; 0000001cH
  00006	89 4d fc	 mov	 DWORD PTR _this$[ebp], ecx

; 127  : 		{

  00009	8b 45 fc	 mov	 eax, DWORD PTR _this$[ebp]
  0000c	c7 00 00 00 00
	00		 mov	 DWORD PTR [eax], OFFSET ??_7?$CDynamicPoolEx@VCTextureAnimationRandomDecorator@NEffectUpdateDecorator@@@@6B@
  00012	8b 45 fc	 mov	 eax, DWORD PTR _this$[ebp]
  00015	83 c0 04	 add	 eax, 4
  00018	89 45 f0	 mov	 DWORD PTR _this$[ebp], eax
; File C:\Program Files (x86)\Microsoft Visual Studio\2019\Community\VC\Tools\MSVC\14.28.29333\include\vector

; 445  :     vector() noexcept(is_nothrow_default_constructible_v<_Alty>) : _Mypair(_Zero_then_variadic_args_t{}) {

  0001b	8b 45 f0	 mov	 eax, DWORD PTR _this$[ebp]
  0001e	89 45 ec	 mov	 DWORD PTR _this$[ebp], eax
; File C:\Program Files (x86)\Microsoft Visual Studio\2019\Community\VC\Tools\MSVC\14.28.29333\include\xmemory

; 1339 :         : _Ty1(), _Myval2(_STD forward<_Other2>(_Val2)...) {}

  00021	8b 45 ec	 mov	 eax, DWORD PTR _this$[ebp]
  00024	89 45 f8	 mov	 DWORD PTR _this$2[ebp], eax
; File C:\Program Files (x86)\Microsoft Visual Studio\2019\Community\VC\Tools\MSVC\14.28.29333\include\vector

; 375  :     _Vector_val() noexcept : _Myfirst(), _Mylast(), _Myend() {}

  00027	8b 45 f8	 mov	 eax, DWORD PTR _this$2[ebp]
  0002a	83 20 00	 and	 DWORD PTR [eax], 0
  0002d	8b 45 f8	 mov	 eax, DWORD PTR _this$2[ebp]
  00030	83 60 04 00	 and	 DWORD PTR [eax+4], 0
  00034	8b 45 f8	 mov	 eax, DWORD PTR _this$2[ebp]
  00037	83 60 08 00	 and	 DWORD PTR [eax+8], 0
; File D:\Metin2 Server Files\mainline\SRC_2014\Metin2Client\eterLib\Pool.h

; 127  : 		{

  0003b	8b 45 fc	 mov	 eax, DWORD PTR _this$[ebp]
  0003e	83 c0 10	 add	 eax, 16			; 00000010H
  00041	89 45 e8	 mov	 DWORD PTR _this$[ebp], eax
; File C:\Program Files (x86)\Microsoft Visual Studio\2019\Community\VC\Tools\MSVC\14.28.29333\include\vector

; 445  :     vector() noexcept(is_nothrow_default_constructible_v<_Alty>) : _Mypair(_Zero_then_variadic_args_t{}) {

  00044	8b 45 e8	 mov	 eax, DWORD PTR _this$[ebp]
  00047	89 45 e4	 mov	 DWORD PTR _this$[ebp], eax
; File C:\Program Files (x86)\Microsoft Visual Studio\2019\Community\VC\Tools\MSVC\14.28.29333\include\xmemory

; 1339 :         : _Ty1(), _Myval2(_STD forward<_Other2>(_Val2)...) {}

  0004a	8b 45 e4	 mov	 eax, DWORD PTR _this$[ebp]
  0004d	89 45 f4	 mov	 DWORD PTR _this$1[ebp], eax
; File C:\Program Files (x86)\Microsoft Visual Studio\2019\Community\VC\Tools\MSVC\14.28.29333\include\vector

; 375  :     _Vector_val() noexcept : _Myfirst(), _Mylast(), _Myend() {}

  00050	8b 45 f4	 mov	 eax, DWORD PTR _this$1[ebp]
  00053	83 20 00	 and	 DWORD PTR [eax], 0
  00056	8b 45 f4	 mov	 eax, DWORD PTR _this$1[ebp]
  00059	83 60 04 00	 and	 DWORD PTR [eax+4], 0
  0005d	8b 45 f4	 mov	 eax, DWORD PTR _this$1[ebp]
  00060	83 60 08 00	 and	 DWORD PTR [eax+8], 0
; File D:\Metin2 Server Files\mainline\SRC_2014\Metin2Client\eterLib\Pool.h

; 128  : 			m_uInitCapacity=0;

  00064	8b 45 fc	 mov	 eax, DWORD PTR _this$[ebp]
  00067	83 60 1c 00	 and	 DWORD PTR [eax+28], 0

; 129  : 			m_uUsedCapacity=0;

  0006b	8b 45 fc	 mov	 eax, DWORD PTR _this$[ebp]
  0006e	83 60 20 00	 and	 DWORD PTR [eax+32], 0

; 130  : 		}

  00072	8b 45 fc	 mov	 eax, DWORD PTR _this$[ebp]
  00075	c9		 leave
  00076	c3		 ret	 0
??0?$CDynamicPoolEx@VCTextureAnimationRandomDecorator@NEffectUpdateDecorator@@@@QAE@XZ ENDP ; CDynamicPoolEx<NEffectUpdateDecorator::CTextureAnimationRandomDecorator>::CDynamicPoolEx<NEffectUpdateDecorator::CTextureAnimationRandomDecorator>
_TEXT	ENDS
; Function compile flags: /Odspy
;	COMDAT ??_G?$CDynamicPoolEx@VCAirResistanceDecorator@NEffectUpdateDecorator@@@@UAEPAXI@Z
_TEXT	SEGMENT
_this$ = -4						; size = 4
___flags$ = 8						; size = 4
??_G?$CDynamicPoolEx@VCAirResistanceDecorator@NEffectUpdateDecorator@@@@UAEPAXI@Z PROC ; CDynamicPoolEx<NEffectUpdateDecorator::CAirResistanceDecorator>::`scalar deleting destructor', COMDAT
; _this$ = ecx
  00000	55		 push	 ebp
  00001	8b ec		 mov	 ebp, esp
  00003	51		 push	 ecx
  00004	89 4d fc	 mov	 DWORD PTR _this$[ebp], ecx
  00007	8b 4d fc	 mov	 ecx, DWORD PTR _this$[ebp]
  0000a	e8 00 00 00 00	 call	 ??1?$CDynamicPoolEx@VCAirResistanceDecorator@NEffectUpdateDecorator@@@@UAE@XZ ; CDynamicPoolEx<NEffectUpdateDecorator::CAirResistanceDecorator>::~CDynamicPoolEx<NEffectUpdateDecorator::CAirResistanceDecorator>
  0000f	8b 45 08	 mov	 eax, DWORD PTR ___flags$[ebp]
  00012	83 e0 01	 and	 eax, 1
  00015	74 0c		 je	 SHORT $LN2@scalar
  00017	6a 24		 push	 36			; 00000024H
  00019	ff 75 fc	 push	 DWORD PTR _this$[ebp]
  0001c	e8 00 00 00 00	 call	 ??3@YAXPAXI@Z		; operator delete
  00021	59		 pop	 ecx
  00022	59		 pop	 ecx
$LN2@scalar:
  00023	8b 45 fc	 mov	 eax, DWORD PTR _this$[ebp]
  00026	c9		 leave
  00027	c2 04 00	 ret	 4
??_G?$CDynamicPoolEx@VCAirResistanceDecorator@NEffectUpdateDecorator@@@@UAEPAXI@Z ENDP ; CDynamicPoolEx<NEffectUpdateDecorator::CAirResistanceDecorator>::`scalar deleting destructor'
_TEXT	ENDS
; Function compile flags: /Odspy
; File C:\Program Files (x86)\Microsoft Visual Studio\2019\Community\VC\Tools\MSVC\14.28.29333\include\vector
; File C:\Program Files (x86)\Microsoft Visual Studio\2019\Community\VC\Tools\MSVC\14.28.29333\include\xmemory
; File C:\Program Files (x86)\Microsoft Visual Studio\2019\Community\VC\Tools\MSVC\14.28.29333\include\vector
; File C:\Program Files (x86)\Microsoft Visual Studio\2019\Community\VC\Tools\MSVC\14.28.29333\include\xmemory
; File C:\Program Files (x86)\Microsoft Visual Studio\2019\Community\VC\Tools\MSVC\14.28.29333\include\vector
; File C:\Program Files (x86)\Microsoft Visual Studio\2019\Community\VC\Tools\MSVC\14.28.29333\include\xmemory
; File C:\Program Files (x86)\Microsoft Visual Studio\2019\Community\VC\Tools\MSVC\14.28.29333\include\vector
;	COMDAT ?_Tidy@?$vector@PAVCAirResistanceDecorator@NEffectUpdateDecorator@@V?$allocator@PAVCAirResistanceDecorator@NEffectUpdateDecorator@@@std@@@std@@AAEXXZ
_TEXT	SEGMENT
$T1 = -52						; size = 4
__Ptr$ = -48						; size = 4
__Count$ = -44						; size = 4
$T2 = -40						; size = 4
__First$ = -36						; size = 4
__Last$ = -32						; size = 4
$T3 = -28						; size = 4
$T4 = -24						; size = 4
__Myend$ = -20						; size = 4
__Mylast$ = -16						; size = 4
_this$ = -12						; size = 4
__My_data$ = -8						; size = 4
__Myfirst$ = -4						; size = 4
?_Tidy@?$vector@PAVCAirResistanceDecorator@NEffectUpdateDecorator@@V?$allocator@PAVCAirResistanceDecorator@NEffectUpdateDecorator@@@std@@@std@@AAEXXZ PROC ; std::vector<NEffectUpdateDecorator::CAirResistanceDecorator *,std::allocator<NEffectUpdateDecorator::CAirResistanceDecorator *> >::_Tidy, COMDAT
; _this$ = ecx

; 1686 :     void _Tidy() noexcept { // free all storage

  00000	55		 push	 ebp
  00001	8b ec		 mov	 ebp, esp
  00003	83 ec 34	 sub	 esp, 52			; 00000034H
  00006	89 4d f4	 mov	 DWORD PTR _this$[ebp], ecx

; 1687 :         auto& _My_data    = _Mypair._Myval2;

  00009	8b 45 f4	 mov	 eax, DWORD PTR _this$[ebp]
  0000c	89 45 f8	 mov	 DWORD PTR __My_data$[ebp], eax

; 1688 :         pointer& _Myfirst = _My_data._Myfirst;

  0000f	8b 45 f8	 mov	 eax, DWORD PTR __My_data$[ebp]
  00012	89 45 fc	 mov	 DWORD PTR __Myfirst$[ebp], eax

; 1689 :         pointer& _Mylast  = _My_data._Mylast;

  00015	8b 45 f8	 mov	 eax, DWORD PTR __My_data$[ebp]
  00018	83 c0 04	 add	 eax, 4
  0001b	89 45 f0	 mov	 DWORD PTR __Mylast$[ebp], eax

; 1690 :         pointer& _Myend   = _My_data._Myend;

  0001e	8b 45 f8	 mov	 eax, DWORD PTR __My_data$[ebp]
  00021	83 c0 08	 add	 eax, 8
  00024	89 45 ec	 mov	 DWORD PTR __Myend$[ebp], eax

; 1691 : 
; 1692 :         _My_data._Orphan_all();
; 1693 : 
; 1694 :         if (_Myfirst) { // destroy and deallocate old array

  00027	8b 45 fc	 mov	 eax, DWORD PTR __Myfirst$[ebp]
  0002a	83 38 00	 cmp	 DWORD PTR [eax], 0
  0002d	74 74		 je	 SHORT $LN3@Tidy

; 1695 :             _Destroy(_Myfirst, _Mylast);

  0002f	8b 45 f0	 mov	 eax, DWORD PTR __Mylast$[ebp]
  00032	8b 00		 mov	 eax, DWORD PTR [eax]
  00034	89 45 e0	 mov	 DWORD PTR __Last$[ebp], eax
  00037	8b 45 fc	 mov	 eax, DWORD PTR __Myfirst$[ebp]
  0003a	8b 00		 mov	 eax, DWORD PTR [eax]
  0003c	89 45 dc	 mov	 DWORD PTR __First$[ebp], eax

; 1733 :         return _Mypair._Get_first();

  0003f	8b 45 f4	 mov	 eax, DWORD PTR _this$[ebp]
; File C:\Program Files (x86)\Microsoft Visual Studio\2019\Community\VC\Tools\MSVC\14.28.29333\include\xmemory

; 1347 :         return *this;

  00042	89 45 e8	 mov	 DWORD PTR $T4[ebp], eax
; File C:\Program Files (x86)\Microsoft Visual Studio\2019\Community\VC\Tools\MSVC\14.28.29333\include\vector

; 1733 :         return _Mypair._Get_first();

  00045	8b 45 e8	 mov	 eax, DWORD PTR $T4[ebp]
  00048	89 45 e4	 mov	 DWORD PTR $T3[ebp], eax

; 1612 :         _Destroy_range(_First, _Last, _Getal());

  0004b	ff 75 e4	 push	 DWORD PTR $T3[ebp]
  0004e	ff 75 e0	 push	 DWORD PTR __Last$[ebp]
  00051	ff 75 dc	 push	 DWORD PTR __First$[ebp]
  00054	e8 00 00 00 00	 call	 ??$_Destroy_range@V?$allocator@PAVCAirResistanceDecorator@NEffectUpdateDecorator@@@std@@@std@@YAXPAPAVCAirResistanceDecorator@NEffectUpdateDecorator@@QAPAV12@AAV?$allocator@PAVCAirResistanceDecorator@NEffectUpdateDecorator@@@0@@Z ; std::_Destroy_range<std::allocator<NEffectUpdateDecorator::CAirResistanceDecorator *> >
  00059	83 c4 0c	 add	 esp, 12			; 0000000cH

; 1733 :         return _Mypair._Get_first();

  0005c	8b 45 f4	 mov	 eax, DWORD PTR _this$[ebp]
; File C:\Program Files (x86)\Microsoft Visual Studio\2019\Community\VC\Tools\MSVC\14.28.29333\include\xmemory

; 1347 :         return *this;

  0005f	89 45 d8	 mov	 DWORD PTR $T2[ebp], eax
; File C:\Program Files (x86)\Microsoft Visual Studio\2019\Community\VC\Tools\MSVC\14.28.29333\include\vector

; 1733 :         return _Mypair._Get_first();

  00062	8b 45 d8	 mov	 eax, DWORD PTR $T2[ebp]
  00065	89 45 cc	 mov	 DWORD PTR $T1[ebp], eax

; 1696 :             _Getal().deallocate(_Myfirst, static_cast<size_type>(_Myend - _Myfirst));

  00068	8b 45 ec	 mov	 eax, DWORD PTR __Myend$[ebp]
  0006b	8b 4d fc	 mov	 ecx, DWORD PTR __Myfirst$[ebp]
  0006e	8b 00		 mov	 eax, DWORD PTR [eax]
  00070	2b 01		 sub	 eax, DWORD PTR [ecx]
  00072	c1 f8 02	 sar	 eax, 2
  00075	89 45 d4	 mov	 DWORD PTR __Count$[ebp], eax
  00078	8b 45 fc	 mov	 eax, DWORD PTR __Myfirst$[ebp]
  0007b	8b 00		 mov	 eax, DWORD PTR [eax]
  0007d	89 45 d0	 mov	 DWORD PTR __Ptr$[ebp], eax
; File C:\Program Files (x86)\Microsoft Visual Studio\2019\Community\VC\Tools\MSVC\14.28.29333\include\xmemory

; 810  :         _Deallocate<_New_alignof<_Ty>>(_Ptr, sizeof(_Ty) * _Count);

  00080	8b 45 d4	 mov	 eax, DWORD PTR __Count$[ebp]
  00083	c1 e0 02	 shl	 eax, 2
  00086	50		 push	 eax
  00087	ff 75 d0	 push	 DWORD PTR __Ptr$[ebp]
  0008a	e8 00 00 00 00	 call	 ??$_Deallocate@$07$0A@@std@@YAXPAXI@Z ; std::_Deallocate<8,0>
  0008f	59		 pop	 ecx
  00090	59		 pop	 ecx
; File C:\Program Files (x86)\Microsoft Visual Studio\2019\Community\VC\Tools\MSVC\14.28.29333\include\vector

; 1698 :             _Myfirst = pointer();

  00091	8b 45 fc	 mov	 eax, DWORD PTR __Myfirst$[ebp]
  00094	83 20 00	 and	 DWORD PTR [eax], 0

; 1699 :             _Mylast  = pointer();

  00097	8b 45 f0	 mov	 eax, DWORD PTR __Mylast$[ebp]
  0009a	83 20 00	 and	 DWORD PTR [eax], 0

; 1700 :             _Myend   = pointer();

  0009d	8b 45 ec	 mov	 eax, DWORD PTR __Myend$[ebp]
  000a0	83 20 00	 and	 DWORD PTR [eax], 0
$LN3@Tidy:

; 1701 :         }
; 1702 :     }

  000a3	c9		 leave
  000a4	c3		 ret	 0
?_Tidy@?$vector@PAVCAirResistanceDecorator@NEffectUpdateDecorator@@V?$allocator@PAVCAirResistanceDecorator@NEffectUpdateDecorator@@@std@@@std@@AAEXXZ ENDP ; std::vector<NEffectUpdateDecorator::CAirResistanceDecorator *,std::allocator<NEffectUpdateDecorator::CAirResistanceDecorator *> >::_Tidy
_TEXT	ENDS
; Function compile flags: /Odspy
; File C:\Program Files (x86)\Microsoft Visual Studio\2019\Community\VC\Tools\MSVC\14.28.29333\include\vector
; File C:\Program Files (x86)\Microsoft Visual Studio\2019\Community\VC\Tools\MSVC\14.28.29333\include\xmemory
; File C:\Program Files (x86)\Microsoft Visual Studio\2019\Community\VC\Tools\MSVC\14.28.29333\include\vector
;	COMDAT ?clear@?$vector@PAVCAirResistanceDecorator@NEffectUpdateDecorator@@V?$allocator@PAVCAirResistanceDecorator@NEffectUpdateDecorator@@@std@@@std@@QAEXXZ
_TEXT	SEGMENT
__First$ = -32						; size = 4
__Last$ = -28						; size = 4
$T1 = -24						; size = 4
$T2 = -20						; size = 4
__Myfirst$ = -16					; size = 4
__Mylast$ = -12						; size = 4
_this$ = -8						; size = 4
__My_data$ = -4						; size = 4
?clear@?$vector@PAVCAirResistanceDecorator@NEffectUpdateDecorator@@V?$allocator@PAVCAirResistanceDecorator@NEffectUpdateDecorator@@@std@@@std@@QAEXXZ PROC ; std::vector<NEffectUpdateDecorator::CAirResistanceDecorator *,std::allocator<NEffectUpdateDecorator::CAirResistanceDecorator *> >::clear, COMDAT
; _this$ = ecx

; 1383 :     void clear() noexcept { // erase all

  00000	55		 push	 ebp
  00001	8b ec		 mov	 ebp, esp
  00003	83 ec 20	 sub	 esp, 32			; 00000020H
  00006	89 4d f8	 mov	 DWORD PTR _this$[ebp], ecx

; 1384 :         auto& _My_data    = _Mypair._Myval2;

  00009	8b 45 f8	 mov	 eax, DWORD PTR _this$[ebp]
  0000c	89 45 fc	 mov	 DWORD PTR __My_data$[ebp], eax

; 1385 :         pointer& _Myfirst = _My_data._Myfirst;

  0000f	8b 45 fc	 mov	 eax, DWORD PTR __My_data$[ebp]
  00012	89 45 f0	 mov	 DWORD PTR __Myfirst$[ebp], eax

; 1386 :         pointer& _Mylast  = _My_data._Mylast;

  00015	8b 45 fc	 mov	 eax, DWORD PTR __My_data$[ebp]
  00018	83 c0 04	 add	 eax, 4
  0001b	89 45 f4	 mov	 DWORD PTR __Mylast$[ebp], eax

; 1387 : 
; 1388 :         _My_data._Orphan_all();
; 1389 :         _Destroy(_Myfirst, _Mylast);

  0001e	8b 45 f4	 mov	 eax, DWORD PTR __Mylast$[ebp]
  00021	8b 00		 mov	 eax, DWORD PTR [eax]
  00023	89 45 e4	 mov	 DWORD PTR __Last$[ebp], eax
  00026	8b 45 f0	 mov	 eax, DWORD PTR __Myfirst$[ebp]
  00029	8b 00		 mov	 eax, DWORD PTR [eax]
  0002b	89 45 e0	 mov	 DWORD PTR __First$[ebp], eax

; 1733 :         return _Mypair._Get_first();

  0002e	8b 45 f8	 mov	 eax, DWORD PTR _this$[ebp]
; File C:\Program Files (x86)\Microsoft Visual Studio\2019\Community\VC\Tools\MSVC\14.28.29333\include\xmemory

; 1347 :         return *this;

  00031	89 45 ec	 mov	 DWORD PTR $T2[ebp], eax
; File C:\Program Files (x86)\Microsoft Visual Studio\2019\Community\VC\Tools\MSVC\14.28.29333\include\vector

; 1733 :         return _Mypair._Get_first();

  00034	8b 45 ec	 mov	 eax, DWORD PTR $T2[ebp]
  00037	89 45 e8	 mov	 DWORD PTR $T1[ebp], eax

; 1612 :         _Destroy_range(_First, _Last, _Getal());

  0003a	ff 75 e8	 push	 DWORD PTR $T1[ebp]
  0003d	ff 75 e4	 push	 DWORD PTR __Last$[ebp]
  00040	ff 75 e0	 push	 DWORD PTR __First$[ebp]
  00043	e8 00 00 00 00	 call	 ??$_Destroy_range@V?$allocator@PAVCAirResistanceDecorator@NEffectUpdateDecorator@@@std@@@std@@YAXPAPAVCAirResistanceDecorator@NEffectUpdateDecorator@@QAPAV12@AAV?$allocator@PAVCAirResistanceDecorator@NEffectUpdateDecorator@@@0@@Z ; std::_Destroy_range<std::allocator<NEffectUpdateDecorator::CAirResistanceDecorator *> >
  00048	83 c4 0c	 add	 esp, 12			; 0000000cH

; 1390 :         _Mylast = _Myfirst;

  0004b	8b 45 f4	 mov	 eax, DWORD PTR __Mylast$[ebp]
  0004e	8b 4d f0	 mov	 ecx, DWORD PTR __Myfirst$[ebp]
  00051	8b 09		 mov	 ecx, DWORD PTR [ecx]
  00053	89 08		 mov	 DWORD PTR [eax], ecx

; 1391 :     }

  00055	c9		 leave
  00056	c3		 ret	 0
?clear@?$vector@PAVCAirResistanceDecorator@NEffectUpdateDecorator@@V?$allocator@PAVCAirResistanceDecorator@NEffectUpdateDecorator@@@std@@@std@@QAEXXZ ENDP ; std::vector<NEffectUpdateDecorator::CAirResistanceDecorator *,std::allocator<NEffectUpdateDecorator::CAirResistanceDecorator *> >::clear
_TEXT	ENDS
; Function compile flags: /Odspy
; File D:\Metin2 Server Files\mainline\SRC_2014\Metin2Client\eterLib\Pool.h
;	COMDAT ?Delete@?$CDynamicPoolEx@VCAirResistanceDecorator@NEffectUpdateDecorator@@@@KAXPAVCAirResistanceDecorator@NEffectUpdateDecorator@@@Z
_TEXT	SEGMENT
_pkData$ = 8						; size = 4
?Delete@?$CDynamicPoolEx@VCAirResistanceDecorator@NEffectUpdateDecorator@@@@KAXPAVCAirResistanceDecorator@NEffectUpdateDecorator@@@Z PROC ; CDynamicPoolEx<NEffectUpdateDecorator::CAirResistanceDecorator>::Delete, COMDAT

; 223  : 		{

  00000	55		 push	 ebp
  00001	8b ec		 mov	 ebp, esp

; 224  : 			::operator delete(pkData);

  00003	ff 75 08	 push	 DWORD PTR _pkData$[ebp]
  00006	e8 00 00 00 00	 call	 ??3@YAXPAX@Z		; operator delete
  0000b	59		 pop	 ecx

; 225  : 		}

  0000c	5d		 pop	 ebp
  0000d	c3		 ret	 0
?Delete@?$CDynamicPoolEx@VCAirResistanceDecorator@NEffectUpdateDecorator@@@@KAXPAVCAirResistanceDecorator@NEffectUpdateDecorator@@@Z ENDP ; CDynamicPoolEx<NEffectUpdateDecorator::CAirResistanceDecorator>::Delete
_TEXT	ENDS
; Function compile flags: /Odspy
; File D:\Metin2 Server Files\mainline\SRC_2014\Metin2Client\eterLib\Pool.h
; File C:\Program Files (x86)\Microsoft Visual Studio\2019\Community\VC\Tools\MSVC\14.28.29333\include\vector
; File C:\Program Files (x86)\Microsoft Visual Studio\2019\Community\VC\Tools\MSVC\14.28.29333\include\xstddef
; File C:\Program Files (x86)\Microsoft Visual Studio\2019\Community\VC\Tools\MSVC\14.28.29333\include\vector
; File C:\Program Files (x86)\Microsoft Visual Studio\2019\Community\VC\Tools\MSVC\14.28.29333\include\xstddef
; File C:\Program Files (x86)\Microsoft Visual Studio\2019\Community\VC\Tools\MSVC\14.28.29333\include\vector
; File D:\Metin2 Server Files\mainline\SRC_2014\Metin2Client\eterLib\Pool.h
;	COMDAT ?Destroy@?$CDynamicPoolEx@VCAirResistanceDecorator@NEffectUpdateDecorator@@@@QAEXXZ
_TEXT	SEGMENT
$T1 = -44						; size = 4
$T2 = -40						; size = 4
$T3 = -36						; size = 4
$T4 = -32						; size = 4
$T5 = -28						; size = 4
___param0$ = -24					; size = 4
$T6 = -20						; size = 4
___param0$ = -16					; size = 4
__My_data$7 = -12					; size = 4
__My_data$8 = -8					; size = 4
_this$ = -4						; size = 4
?Destroy@?$CDynamicPoolEx@VCAirResistanceDecorator@NEffectUpdateDecorator@@@@QAEXXZ PROC ; CDynamicPoolEx<NEffectUpdateDecorator::CAirResistanceDecorator>::Destroy, COMDAT
; _this$ = ecx

; 150  : 		{

  00000	55		 push	 ebp
  00001	8b ec		 mov	 ebp, esp
  00003	83 ec 2c	 sub	 esp, 44			; 0000002cH
  00006	89 4d fc	 mov	 DWORD PTR _this$[ebp], ecx
; File C:\Program Files (x86)\Microsoft Visual Studio\2019\Community\VC\Tools\MSVC\14.28.29333\include\vector

; 1420 :         auto& _My_data = _Mypair._Myval2;

  00009	8b 45 fc	 mov	 eax, DWORD PTR _this$[ebp]
  0000c	83 c0 04	 add	 eax, 4
  0000f	89 45 f8	 mov	 DWORD PTR __My_data$8[ebp], eax
; File C:\Program Files (x86)\Microsoft Visual Studio\2019\Community\VC\Tools\MSVC\14.28.29333\include\xstddef

; 275  :     return __builtin_addressof(_Val);

  00012	8b 45 f8	 mov	 eax, DWORD PTR __My_data$8[ebp]
  00015	89 45 d8	 mov	 DWORD PTR $T2[ebp], eax
; File C:\Program Files (x86)\Microsoft Visual Studio\2019\Community\VC\Tools\MSVC\14.28.29333\include\vector

; 1421 :         return iterator(_My_data._Mylast, _STD addressof(_My_data));

  00018	8b 45 f8	 mov	 eax, DWORD PTR __My_data$8[ebp]
  0001b	8b 40 04	 mov	 eax, DWORD PTR [eax+4]
  0001e	89 45 f0	 mov	 DWORD PTR ___param0$[ebp], eax

; 42   :     _Vector_const_iterator(_Tptr _Parg, const _Container_base* _Pvector) noexcept : _Ptr(_Parg) {

  00021	8b 45 f0	 mov	 eax, DWORD PTR ___param0$[ebp]
  00024	89 45 ec	 mov	 DWORD PTR $T6[ebp], eax

; 1421 :         return iterator(_My_data._Mylast, _STD addressof(_My_data));

  00027	8d 45 ec	 lea	 eax, DWORD PTR $T6[ebp]
  0002a	89 45 e0	 mov	 DWORD PTR $T4[ebp], eax

; 1410 :         auto& _My_data = _Mypair._Myval2;

  0002d	8b 45 fc	 mov	 eax, DWORD PTR _this$[ebp]
  00030	83 c0 04	 add	 eax, 4
  00033	89 45 f4	 mov	 DWORD PTR __My_data$7[ebp], eax
; File C:\Program Files (x86)\Microsoft Visual Studio\2019\Community\VC\Tools\MSVC\14.28.29333\include\xstddef

; 275  :     return __builtin_addressof(_Val);

  00036	8b 45 f4	 mov	 eax, DWORD PTR __My_data$7[ebp]
  00039	89 45 d4	 mov	 DWORD PTR $T1[ebp], eax
; File C:\Program Files (x86)\Microsoft Visual Studio\2019\Community\VC\Tools\MSVC\14.28.29333\include\vector

; 1411 :         return iterator(_My_data._Myfirst, _STD addressof(_My_data));

  0003c	8b 45 f4	 mov	 eax, DWORD PTR __My_data$7[ebp]
  0003f	8b 00		 mov	 eax, DWORD PTR [eax]
  00041	89 45 e8	 mov	 DWORD PTR ___param0$[ebp], eax

; 42   :     _Vector_const_iterator(_Tptr _Parg, const _Container_base* _Pvector) noexcept : _Ptr(_Parg) {

  00044	8b 45 e8	 mov	 eax, DWORD PTR ___param0$[ebp]
  00047	89 45 e4	 mov	 DWORD PTR $T5[ebp], eax

; 1411 :         return iterator(_My_data._Myfirst, _STD addressof(_My_data));

  0004a	8d 45 e4	 lea	 eax, DWORD PTR $T5[ebp]
  0004d	89 45 dc	 mov	 DWORD PTR $T3[ebp], eax
; File D:\Metin2 Server Files\mainline\SRC_2014\Metin2Client\eterLib\Pool.h

; 160  : 			std::for_each(m_kVct_pkData.begin(), m_kVct_pkData.end(), Delete);

  00050	68 00 00 00 00	 push	 OFFSET ?Delete@?$CDynamicPoolEx@VCAirResistanceDecorator@NEffectUpdateDecorator@@@@KAXPAVCAirResistanceDecorator@NEffectUpdateDecorator@@@Z ; CDynamicPoolEx<NEffectUpdateDecorator::CAirResistanceDecorator>::Delete
  00055	8b 45 e0	 mov	 eax, DWORD PTR $T4[ebp]
  00058	ff 30		 push	 DWORD PTR [eax]
  0005a	8b 45 dc	 mov	 eax, DWORD PTR $T3[ebp]
  0005d	ff 30		 push	 DWORD PTR [eax]
  0005f	e8 00 00 00 00	 call	 ??$for_each@V?$_Vector_iterator@V?$_Vector_val@U?$_Simple_types@PAVCAirResistanceDecorator@NEffectUpdateDecorator@@@std@@@std@@@std@@P6AXPAVCAirResistanceDecorator@NEffectUpdateDecorator@@@Z@std@@YAP6AXPAVCAirResistanceDecorator@NEffectUpdateDecorator@@@ZV?$_Vector_iterator@V?$_Vector_val@U?$_Simple_types@PAVCAirResistanceDecorator@NEffectUpdateDecorator@@@std@@@std@@@0@1P6AX0@Z@Z ; std::for_each<std::_Vector_iterator<std::_Vector_val<std::_Simple_types<NEffectUpdateDecorator::CAirResistanceDecorator *> > >,void (__cdecl*)(NEffectUpdateDecorator::CAirResistanceDecorator *)>
  00064	83 c4 0c	 add	 esp, 12			; 0000000cH

; 161  : 			m_kVct_pkData.clear();

  00067	8b 4d fc	 mov	 ecx, DWORD PTR _this$[ebp]
  0006a	83 c1 04	 add	 ecx, 4
  0006d	e8 00 00 00 00	 call	 ?clear@?$vector@PAVCAirResistanceDecorator@NEffectUpdateDecorator@@V?$allocator@PAVCAirResistanceDecorator@NEffectUpdateDecorator@@@std@@@std@@QAEXXZ ; std::vector<NEffectUpdateDecorator::CAirResistanceDecorator *,std::allocator<NEffectUpdateDecorator::CAirResistanceDecorator *> >::clear

; 162  : 			m_kVct_pkFree.clear();

  00072	8b 4d fc	 mov	 ecx, DWORD PTR _this$[ebp]
  00075	83 c1 10	 add	 ecx, 16			; 00000010H
  00078	e8 00 00 00 00	 call	 ?clear@?$vector@PAVCAirResistanceDecorator@NEffectUpdateDecorator@@V?$allocator@PAVCAirResistanceDecorator@NEffectUpdateDecorator@@@std@@@std@@QAEXXZ ; std::vector<NEffectUpdateDecorator::CAirResistanceDecorator *,std::allocator<NEffectUpdateDecorator::CAirResistanceDecorator *> >::clear

; 163  : 		}

  0007d	c9		 leave
  0007e	c3		 ret	 0
?Destroy@?$CDynamicPoolEx@VCAirResistanceDecorator@NEffectUpdateDecorator@@@@QAEXXZ ENDP ; CDynamicPoolEx<NEffectUpdateDecorator::CAirResistanceDecorator>::Destroy
_TEXT	ENDS
; Function compile flags: /Odspy
; File D:\Metin2 Server Files\mainline\SRC_2014\Metin2Client\eterLib\Pool.h
; File C:\Program Files (x86)\Microsoft Visual Studio\2019\Community\VC\Tools\MSVC\14.28.29333\include\vector
; File D:\Metin2 Server Files\mainline\SRC_2014\Metin2Client\eterLib\Pool.h
; File C:\Program Files (x86)\Microsoft Visual Studio\2019\Community\VC\Tools\MSVC\14.28.29333\include\vector
; File D:\Metin2 Server Files\mainline\SRC_2014\Metin2Client\eterLib\Pool.h
;	COMDAT ??1?$CDynamicPoolEx@VCAirResistanceDecorator@NEffectUpdateDecorator@@@@UAE@XZ
_TEXT	SEGMENT
_this$ = -16						; size = 4
__$EHRec$ = -12						; size = 12
??1?$CDynamicPoolEx@VCAirResistanceDecorator@NEffectUpdateDecorator@@@@UAE@XZ PROC ; CDynamicPoolEx<NEffectUpdateDecorator::CAirResistanceDecorator>::~CDynamicPoolEx<NEffectUpdateDecorator::CAirResistanceDecorator>, COMDAT
; _this$ = ecx

; 132  : 		{

  00000	55		 push	 ebp
  00001	8b ec		 mov	 ebp, esp
  00003	6a ff		 push	 -1
  00005	68 00 00 00 00	 push	 __ehhandler$??1?$CDynamicPoolEx@VCAirResistanceDecorator@NEffectUpdateDecorator@@@@UAE@XZ
  0000a	64 a1 00 00 00
	00		 mov	 eax, DWORD PTR fs:0
  00010	50		 push	 eax
  00011	51		 push	 ecx
  00012	a1 00 00 00 00	 mov	 eax, DWORD PTR ___security_cookie
  00017	33 c5		 xor	 eax, ebp
  00019	50		 push	 eax
  0001a	8d 45 f4	 lea	 eax, DWORD PTR __$EHRec$[ebp]
  0001d	64 a3 00 00 00
	00		 mov	 DWORD PTR fs:0, eax
  00023	89 4d f0	 mov	 DWORD PTR _this$[ebp], ecx
  00026	8b 45 f0	 mov	 eax, DWORD PTR _this$[ebp]
  00029	c7 00 00 00 00
	00		 mov	 DWORD PTR [eax], OFFSET ??_7?$CDynamicPoolEx@VCAirResistanceDecorator@NEffectUpdateDecorator@@@@6B@

; 133  : 			assert(m_kVct_pkFree.size()==m_kVct_pkData.size());
; 134  : 			Destroy();

  0002f	8b 4d f0	 mov	 ecx, DWORD PTR _this$[ebp]
  00032	e8 00 00 00 00	 call	 ?Destroy@?$CDynamicPoolEx@VCAirResistanceDecorator@NEffectUpdateDecorator@@@@QAEXXZ ; CDynamicPoolEx<NEffectUpdateDecorator::CAirResistanceDecorator>::Destroy

; 142  : 		}

  00037	8b 4d f0	 mov	 ecx, DWORD PTR _this$[ebp]
  0003a	83 c1 10	 add	 ecx, 16			; 00000010H
; File C:\Program Files (x86)\Microsoft Visual Studio\2019\Community\VC\Tools\MSVC\14.28.29333\include\vector

; 673  :         _Tidy();

  0003d	e8 00 00 00 00	 call	 ?_Tidy@?$vector@PAVCAirResistanceDecorator@NEffectUpdateDecorator@@V?$allocator@PAVCAirResistanceDecorator@NEffectUpdateDecorator@@@std@@@std@@AAEXXZ ; std::vector<NEffectUpdateDecorator::CAirResistanceDecorator *,std::allocator<NEffectUpdateDecorator::CAirResistanceDecorator *> >::_Tidy
; File D:\Metin2 Server Files\mainline\SRC_2014\Metin2Client\eterLib\Pool.h

; 142  : 		}

  00042	8b 4d f0	 mov	 ecx, DWORD PTR _this$[ebp]
  00045	83 c1 04	 add	 ecx, 4
; File C:\Program Files (x86)\Microsoft Visual Studio\2019\Community\VC\Tools\MSVC\14.28.29333\include\vector

; 673  :         _Tidy();

  00048	e8 00 00 00 00	 call	 ?_Tidy@?$vector@PAVCAirResistanceDecorator@NEffectUpdateDecorator@@V?$allocator@PAVCAirResistanceDecorator@NEffectUpdateDecorator@@@std@@@std@@AAEXXZ ; std::vector<NEffectUpdateDecorator::CAirResistanceDecorator *,std::allocator<NEffectUpdateDecorator::CAirResistanceDecorator *> >::_Tidy
; File D:\Metin2 Server Files\mainline\SRC_2014\Metin2Client\eterLib\Pool.h

; 142  : 		}

  0004d	8b 4d f4	 mov	 ecx, DWORD PTR __$EHRec$[ebp]
  00050	64 89 0d 00 00
	00 00		 mov	 DWORD PTR fs:0, ecx
  00057	59		 pop	 ecx
  00058	c9		 leave
  00059	c3		 ret	 0
  0005a	cc		 int	 3
  0005b	cc		 int	 3
  0005c	cc		 int	 3
  0005d	cc		 int	 3
  0005e	cc		 int	 3
_TEXT	ENDS
;	COMDAT text$x
text$x	SEGMENT
__ehhandler$??1?$CDynamicPoolEx@VCAirResistanceDecorator@NEffectUpdateDecorator@@@@UAE@XZ:
  00000	90		 npad	 1
  00001	90		 npad	 1
  00002	8b 54 24 08	 mov	 edx, DWORD PTR [esp+8]
  00006	8d 42 0c	 lea	 eax, DWORD PTR [edx+12]
  00009	8b 4a f8	 mov	 ecx, DWORD PTR [edx-8]
  0000c	33 c8		 xor	 ecx, eax
  0000e	e8 00 00 00 00	 call	 @__security_check_cookie@4
  00013	b8 00 00 00 00	 mov	 eax, OFFSET __ehfuncinfo$??1?$CDynamicPoolEx@VCAirResistanceDecorator@NEffectUpdateDecorator@@@@UAE@XZ
  00018	e9 00 00 00 00	 jmp	 ___CxxFrameHandler3
text$x	ENDS
??1?$CDynamicPoolEx@VCAirResistanceDecorator@NEffectUpdateDecorator@@@@UAE@XZ ENDP ; CDynamicPoolEx<NEffectUpdateDecorator::CAirResistanceDecorator>::~CDynamicPoolEx<NEffectUpdateDecorator::CAirResistanceDecorator>
; Function compile flags: /Odspy
; File D:\Metin2 Server Files\mainline\SRC_2014\Metin2Client\eterLib\Pool.h
; File C:\Program Files (x86)\Microsoft Visual Studio\2019\Community\VC\Tools\MSVC\14.28.29333\include\vector
; File C:\Program Files (x86)\Microsoft Visual Studio\2019\Community\VC\Tools\MSVC\14.28.29333\include\xmemory
; File C:\Program Files (x86)\Microsoft Visual Studio\2019\Community\VC\Tools\MSVC\14.28.29333\include\vector
; File D:\Metin2 Server Files\mainline\SRC_2014\Metin2Client\eterLib\Pool.h
; File C:\Program Files (x86)\Microsoft Visual Studio\2019\Community\VC\Tools\MSVC\14.28.29333\include\vector
; File C:\Program Files (x86)\Microsoft Visual Studio\2019\Community\VC\Tools\MSVC\14.28.29333\include\xmemory
; File C:\Program Files (x86)\Microsoft Visual Studio\2019\Community\VC\Tools\MSVC\14.28.29333\include\vector
; File D:\Metin2 Server Files\mainline\SRC_2014\Metin2Client\eterLib\Pool.h
;	COMDAT ??0?$CDynamicPoolEx@VCAirResistanceDecorator@NEffectUpdateDecorator@@@@QAE@XZ
_TEXT	SEGMENT
_this$ = -28						; size = 4
_this$ = -24						; size = 4
_this$ = -20						; size = 4
_this$ = -16						; size = 4
_this$1 = -12						; size = 4
_this$2 = -8						; size = 4
_this$ = -4						; size = 4
??0?$CDynamicPoolEx@VCAirResistanceDecorator@NEffectUpdateDecorator@@@@QAE@XZ PROC ; CDynamicPoolEx<NEffectUpdateDecorator::CAirResistanceDecorator>::CDynamicPoolEx<NEffectUpdateDecorator::CAirResistanceDecorator>, COMDAT
; _this$ = ecx

; 126  : 		CDynamicPoolEx()

  00000	55		 push	 ebp
  00001	8b ec		 mov	 ebp, esp
  00003	83 ec 1c	 sub	 esp, 28			; 0000001cH
  00006	89 4d fc	 mov	 DWORD PTR _this$[ebp], ecx

; 127  : 		{

  00009	8b 45 fc	 mov	 eax, DWORD PTR _this$[ebp]
  0000c	c7 00 00 00 00
	00		 mov	 DWORD PTR [eax], OFFSET ??_7?$CDynamicPoolEx@VCAirResistanceDecorator@NEffectUpdateDecorator@@@@6B@
  00012	8b 45 fc	 mov	 eax, DWORD PTR _this$[ebp]
  00015	83 c0 04	 add	 eax, 4
  00018	89 45 f0	 mov	 DWORD PTR _this$[ebp], eax
; File C:\Program Files (x86)\Microsoft Visual Studio\2019\Community\VC\Tools\MSVC\14.28.29333\include\vector

; 445  :     vector() noexcept(is_nothrow_default_constructible_v<_Alty>) : _Mypair(_Zero_then_variadic_args_t{}) {

  0001b	8b 45 f0	 mov	 eax, DWORD PTR _this$[ebp]
  0001e	89 45 ec	 mov	 DWORD PTR _this$[ebp], eax
; File C:\Program Files (x86)\Microsoft Visual Studio\2019\Community\VC\Tools\MSVC\14.28.29333\include\xmemory

; 1339 :         : _Ty1(), _Myval2(_STD forward<_Other2>(_Val2)...) {}

  00021	8b 45 ec	 mov	 eax, DWORD PTR _this$[ebp]
  00024	89 45 f8	 mov	 DWORD PTR _this$2[ebp], eax
; File C:\Program Files (x86)\Microsoft Visual Studio\2019\Community\VC\Tools\MSVC\14.28.29333\include\vector

; 375  :     _Vector_val() noexcept : _Myfirst(), _Mylast(), _Myend() {}

  00027	8b 45 f8	 mov	 eax, DWORD PTR _this$2[ebp]
  0002a	83 20 00	 and	 DWORD PTR [eax], 0
  0002d	8b 45 f8	 mov	 eax, DWORD PTR _this$2[ebp]
  00030	83 60 04 00	 and	 DWORD PTR [eax+4], 0
  00034	8b 45 f8	 mov	 eax, DWORD PTR _this$2[ebp]
  00037	83 60 08 00	 and	 DWORD PTR [eax+8], 0
; File D:\Metin2 Server Files\mainline\SRC_2014\Metin2Client\eterLib\Pool.h

; 127  : 		{

  0003b	8b 45 fc	 mov	 eax, DWORD PTR _this$[ebp]
  0003e	83 c0 10	 add	 eax, 16			; 00000010H
  00041	89 45 e8	 mov	 DWORD PTR _this$[ebp], eax
; File C:\Program Files (x86)\Microsoft Visual Studio\2019\Community\VC\Tools\MSVC\14.28.29333\include\vector

; 445  :     vector() noexcept(is_nothrow_default_constructible_v<_Alty>) : _Mypair(_Zero_then_variadic_args_t{}) {

  00044	8b 45 e8	 mov	 eax, DWORD PTR _this$[ebp]
  00047	89 45 e4	 mov	 DWORD PTR _this$[ebp], eax
; File C:\Program Files (x86)\Microsoft Visual Studio\2019\Community\VC\Tools\MSVC\14.28.29333\include\xmemory

; 1339 :         : _Ty1(), _Myval2(_STD forward<_Other2>(_Val2)...) {}

  0004a	8b 45 e4	 mov	 eax, DWORD PTR _this$[ebp]
  0004d	89 45 f4	 mov	 DWORD PTR _this$1[ebp], eax
; File C:\Program Files (x86)\Microsoft Visual Studio\2019\Community\VC\Tools\MSVC\14.28.29333\include\vector

; 375  :     _Vector_val() noexcept : _Myfirst(), _Mylast(), _Myend() {}

  00050	8b 45 f4	 mov	 eax, DWORD PTR _this$1[ebp]
  00053	83 20 00	 and	 DWORD PTR [eax], 0
  00056	8b 45 f4	 mov	 eax, DWORD PTR _this$1[ebp]
  00059	83 60 04 00	 and	 DWORD PTR [eax+4], 0
  0005d	8b 45 f4	 mov	 eax, DWORD PTR _this$1[ebp]
  00060	83 60 08 00	 and	 DWORD PTR [eax+8], 0
; File D:\Metin2 Server Files\mainline\SRC_2014\Metin2Client\eterLib\Pool.h

; 128  : 			m_uInitCapacity=0;

  00064	8b 45 fc	 mov	 eax, DWORD PTR _this$[ebp]
  00067	83 60 1c 00	 and	 DWORD PTR [eax+28], 0

; 129  : 			m_uUsedCapacity=0;

  0006b	8b 45 fc	 mov	 eax, DWORD PTR _this$[ebp]
  0006e	83 60 20 00	 and	 DWORD PTR [eax+32], 0

; 130  : 		}

  00072	8b 45 fc	 mov	 eax, DWORD PTR _this$[ebp]
  00075	c9		 leave
  00076	c3		 ret	 0
??0?$CDynamicPoolEx@VCAirResistanceDecorator@NEffectUpdateDecorator@@@@QAE@XZ ENDP ; CDynamicPoolEx<NEffectUpdateDecorator::CAirResistanceDecorator>::CDynamicPoolEx<NEffectUpdateDecorator::CAirResistanceDecorator>
_TEXT	ENDS
; Function compile flags: /Odspy
;	COMDAT ??_G?$CDynamicPoolEx@VCGravityDecorator@NEffectUpdateDecorator@@@@UAEPAXI@Z
_TEXT	SEGMENT
_this$ = -4						; size = 4
___flags$ = 8						; size = 4
??_G?$CDynamicPoolEx@VCGravityDecorator@NEffectUpdateDecorator@@@@UAEPAXI@Z PROC ; CDynamicPoolEx<NEffectUpdateDecorator::CGravityDecorator>::`scalar deleting destructor', COMDAT
; _this$ = ecx
  00000	55		 push	 ebp
  00001	8b ec		 mov	 ebp, esp
  00003	51		 push	 ecx
  00004	89 4d fc	 mov	 DWORD PTR _this$[ebp], ecx
  00007	8b 4d fc	 mov	 ecx, DWORD PTR _this$[ebp]
  0000a	e8 00 00 00 00	 call	 ??1?$CDynamicPoolEx@VCGravityDecorator@NEffectUpdateDecorator@@@@UAE@XZ ; CDynamicPoolEx<NEffectUpdateDecorator::CGravityDecorator>::~CDynamicPoolEx<NEffectUpdateDecorator::CGravityDecorator>
  0000f	8b 45 08	 mov	 eax, DWORD PTR ___flags$[ebp]
  00012	83 e0 01	 and	 eax, 1
  00015	74 0c		 je	 SHORT $LN2@scalar
  00017	6a 24		 push	 36			; 00000024H
  00019	ff 75 fc	 push	 DWORD PTR _this$[ebp]
  0001c	e8 00 00 00 00	 call	 ??3@YAXPAXI@Z		; operator delete
  00021	59		 pop	 ecx
  00022	59		 pop	 ecx
$LN2@scalar:
  00023	8b 45 fc	 mov	 eax, DWORD PTR _this$[ebp]
  00026	c9		 leave
  00027	c2 04 00	 ret	 4
??_G?$CDynamicPoolEx@VCGravityDecorator@NEffectUpdateDecorator@@@@UAEPAXI@Z ENDP ; CDynamicPoolEx<NEffectUpdateDecorator::CGravityDecorator>::`scalar deleting destructor'
_TEXT	ENDS
; Function compile flags: /Odspy
; File C:\Program Files (x86)\Microsoft Visual Studio\2019\Community\VC\Tools\MSVC\14.28.29333\include\vector
; File C:\Program Files (x86)\Microsoft Visual Studio\2019\Community\VC\Tools\MSVC\14.28.29333\include\xmemory
; File C:\Program Files (x86)\Microsoft Visual Studio\2019\Community\VC\Tools\MSVC\14.28.29333\include\vector
; File C:\Program Files (x86)\Microsoft Visual Studio\2019\Community\VC\Tools\MSVC\14.28.29333\include\xmemory
; File C:\Program Files (x86)\Microsoft Visual Studio\2019\Community\VC\Tools\MSVC\14.28.29333\include\vector
; File C:\Program Files (x86)\Microsoft Visual Studio\2019\Community\VC\Tools\MSVC\14.28.29333\include\xmemory
; File C:\Program Files (x86)\Microsoft Visual Studio\2019\Community\VC\Tools\MSVC\14.28.29333\include\vector
;	COMDAT ?_Tidy@?$vector@PAVCGravityDecorator@NEffectUpdateDecorator@@V?$allocator@PAVCGravityDecorator@NEffectUpdateDecorator@@@std@@@std@@AAEXXZ
_TEXT	SEGMENT
$T1 = -52						; size = 4
__Ptr$ = -48						; size = 4
__Count$ = -44						; size = 4
$T2 = -40						; size = 4
__First$ = -36						; size = 4
__Last$ = -32						; size = 4
$T3 = -28						; size = 4
$T4 = -24						; size = 4
__Myend$ = -20						; size = 4
__Mylast$ = -16						; size = 4
_this$ = -12						; size = 4
__My_data$ = -8						; size = 4
__Myfirst$ = -4						; size = 4
?_Tidy@?$vector@PAVCGravityDecorator@NEffectUpdateDecorator@@V?$allocator@PAVCGravityDecorator@NEffectUpdateDecorator@@@std@@@std@@AAEXXZ PROC ; std::vector<NEffectUpdateDecorator::CGravityDecorator *,std::allocator<NEffectUpdateDecorator::CGravityDecorator *> >::_Tidy, COMDAT
; _this$ = ecx

; 1686 :     void _Tidy() noexcept { // free all storage

  00000	55		 push	 ebp
  00001	8b ec		 mov	 ebp, esp
  00003	83 ec 34	 sub	 esp, 52			; 00000034H
  00006	89 4d f4	 mov	 DWORD PTR _this$[ebp], ecx

; 1687 :         auto& _My_data    = _Mypair._Myval2;

  00009	8b 45 f4	 mov	 eax, DWORD PTR _this$[ebp]
  0000c	89 45 f8	 mov	 DWORD PTR __My_data$[ebp], eax

; 1688 :         pointer& _Myfirst = _My_data._Myfirst;

  0000f	8b 45 f8	 mov	 eax, DWORD PTR __My_data$[ebp]
  00012	89 45 fc	 mov	 DWORD PTR __Myfirst$[ebp], eax

; 1689 :         pointer& _Mylast  = _My_data._Mylast;

  00015	8b 45 f8	 mov	 eax, DWORD PTR __My_data$[ebp]
  00018	83 c0 04	 add	 eax, 4
  0001b	89 45 f0	 mov	 DWORD PTR __Mylast$[ebp], eax

; 1690 :         pointer& _Myend   = _My_data._Myend;

  0001e	8b 45 f8	 mov	 eax, DWORD PTR __My_data$[ebp]
  00021	83 c0 08	 add	 eax, 8
  00024	89 45 ec	 mov	 DWORD PTR __Myend$[ebp], eax

; 1691 : 
; 1692 :         _My_data._Orphan_all();
; 1693 : 
; 1694 :         if (_Myfirst) { // destroy and deallocate old array

  00027	8b 45 fc	 mov	 eax, DWORD PTR __Myfirst$[ebp]
  0002a	83 38 00	 cmp	 DWORD PTR [eax], 0
  0002d	74 74		 je	 SHORT $LN3@Tidy

; 1695 :             _Destroy(_Myfirst, _Mylast);

  0002f	8b 45 f0	 mov	 eax, DWORD PTR __Mylast$[ebp]
  00032	8b 00		 mov	 eax, DWORD PTR [eax]
  00034	89 45 e0	 mov	 DWORD PTR __Last$[ebp], eax
  00037	8b 45 fc	 mov	 eax, DWORD PTR __Myfirst$[ebp]
  0003a	8b 00		 mov	 eax, DWORD PTR [eax]
  0003c	89 45 dc	 mov	 DWORD PTR __First$[ebp], eax

; 1733 :         return _Mypair._Get_first();

  0003f	8b 45 f4	 mov	 eax, DWORD PTR _this$[ebp]
; File C:\Program Files (x86)\Microsoft Visual Studio\2019\Community\VC\Tools\MSVC\14.28.29333\include\xmemory

; 1347 :         return *this;

  00042	89 45 e8	 mov	 DWORD PTR $T4[ebp], eax
; File C:\Program Files (x86)\Microsoft Visual Studio\2019\Community\VC\Tools\MSVC\14.28.29333\include\vector

; 1733 :         return _Mypair._Get_first();

  00045	8b 45 e8	 mov	 eax, DWORD PTR $T4[ebp]
  00048	89 45 e4	 mov	 DWORD PTR $T3[ebp], eax

; 1612 :         _Destroy_range(_First, _Last, _Getal());

  0004b	ff 75 e4	 push	 DWORD PTR $T3[ebp]
  0004e	ff 75 e0	 push	 DWORD PTR __Last$[ebp]
  00051	ff 75 dc	 push	 DWORD PTR __First$[ebp]
  00054	e8 00 00 00 00	 call	 ??$_Destroy_range@V?$allocator@PAVCGravityDecorator@NEffectUpdateDecorator@@@std@@@std@@YAXPAPAVCGravityDecorator@NEffectUpdateDecorator@@QAPAV12@AAV?$allocator@PAVCGravityDecorator@NEffectUpdateDecorator@@@0@@Z ; std::_Destroy_range<std::allocator<NEffectUpdateDecorator::CGravityDecorator *> >
  00059	83 c4 0c	 add	 esp, 12			; 0000000cH

; 1733 :         return _Mypair._Get_first();

  0005c	8b 45 f4	 mov	 eax, DWORD PTR _this$[ebp]
; File C:\Program Files (x86)\Microsoft Visual Studio\2019\Community\VC\Tools\MSVC\14.28.29333\include\xmemory

; 1347 :         return *this;

  0005f	89 45 d8	 mov	 DWORD PTR $T2[ebp], eax
; File C:\Program Files (x86)\Microsoft Visual Studio\2019\Community\VC\Tools\MSVC\14.28.29333\include\vector

; 1733 :         return _Mypair._Get_first();

  00062	8b 45 d8	 mov	 eax, DWORD PTR $T2[ebp]
  00065	89 45 cc	 mov	 DWORD PTR $T1[ebp], eax

; 1696 :             _Getal().deallocate(_Myfirst, static_cast<size_type>(_Myend - _Myfirst));

  00068	8b 45 ec	 mov	 eax, DWORD PTR __Myend$[ebp]
  0006b	8b 4d fc	 mov	 ecx, DWORD PTR __Myfirst$[ebp]
  0006e	8b 00		 mov	 eax, DWORD PTR [eax]
  00070	2b 01		 sub	 eax, DWORD PTR [ecx]
  00072	c1 f8 02	 sar	 eax, 2
  00075	89 45 d4	 mov	 DWORD PTR __Count$[ebp], eax
  00078	8b 45 fc	 mov	 eax, DWORD PTR __Myfirst$[ebp]
  0007b	8b 00		 mov	 eax, DWORD PTR [eax]
  0007d	89 45 d0	 mov	 DWORD PTR __Ptr$[ebp], eax
; File C:\Program Files (x86)\Microsoft Visual Studio\2019\Community\VC\Tools\MSVC\14.28.29333\include\xmemory

; 810  :         _Deallocate<_New_alignof<_Ty>>(_Ptr, sizeof(_Ty) * _Count);

  00080	8b 45 d4	 mov	 eax, DWORD PTR __Count$[ebp]
  00083	c1 e0 02	 shl	 eax, 2
  00086	50		 push	 eax
  00087	ff 75 d0	 push	 DWORD PTR __Ptr$[ebp]
  0008a	e8 00 00 00 00	 call	 ??$_Deallocate@$07$0A@@std@@YAXPAXI@Z ; std::_Deallocate<8,0>
  0008f	59		 pop	 ecx
  00090	59		 pop	 ecx
; File C:\Program Files (x86)\Microsoft Visual Studio\2019\Community\VC\Tools\MSVC\14.28.29333\include\vector

; 1698 :             _Myfirst = pointer();

  00091	8b 45 fc	 mov	 eax, DWORD PTR __Myfirst$[ebp]
  00094	83 20 00	 and	 DWORD PTR [eax], 0

; 1699 :             _Mylast  = pointer();

  00097	8b 45 f0	 mov	 eax, DWORD PTR __Mylast$[ebp]
  0009a	83 20 00	 and	 DWORD PTR [eax], 0

; 1700 :             _Myend   = pointer();

  0009d	8b 45 ec	 mov	 eax, DWORD PTR __Myend$[ebp]
  000a0	83 20 00	 and	 DWORD PTR [eax], 0
$LN3@Tidy:

; 1701 :         }
; 1702 :     }

  000a3	c9		 leave
  000a4	c3		 ret	 0
?_Tidy@?$vector@PAVCGravityDecorator@NEffectUpdateDecorator@@V?$allocator@PAVCGravityDecorator@NEffectUpdateDecorator@@@std@@@std@@AAEXXZ ENDP ; std::vector<NEffectUpdateDecorator::CGravityDecorator *,std::allocator<NEffectUpdateDecorator::CGravityDecorator *> >::_Tidy
_TEXT	ENDS
; Function compile flags: /Odspy
; File C:\Program Files (x86)\Microsoft Visual Studio\2019\Community\VC\Tools\MSVC\14.28.29333\include\vector
; File C:\Program Files (x86)\Microsoft Visual Studio\2019\Community\VC\Tools\MSVC\14.28.29333\include\xmemory
; File C:\Program Files (x86)\Microsoft Visual Studio\2019\Community\VC\Tools\MSVC\14.28.29333\include\vector
;	COMDAT ?clear@?$vector@PAVCGravityDecorator@NEffectUpdateDecorator@@V?$allocator@PAVCGravityDecorator@NEffectUpdateDecorator@@@std@@@std@@QAEXXZ
_TEXT	SEGMENT
__First$ = -32						; size = 4
__Last$ = -28						; size = 4
$T1 = -24						; size = 4
$T2 = -20						; size = 4
__Myfirst$ = -16					; size = 4
__Mylast$ = -12						; size = 4
_this$ = -8						; size = 4
__My_data$ = -4						; size = 4
?clear@?$vector@PAVCGravityDecorator@NEffectUpdateDecorator@@V?$allocator@PAVCGravityDecorator@NEffectUpdateDecorator@@@std@@@std@@QAEXXZ PROC ; std::vector<NEffectUpdateDecorator::CGravityDecorator *,std::allocator<NEffectUpdateDecorator::CGravityDecorator *> >::clear, COMDAT
; _this$ = ecx

; 1383 :     void clear() noexcept { // erase all

  00000	55		 push	 ebp
  00001	8b ec		 mov	 ebp, esp
  00003	83 ec 20	 sub	 esp, 32			; 00000020H
  00006	89 4d f8	 mov	 DWORD PTR _this$[ebp], ecx

; 1384 :         auto& _My_data    = _Mypair._Myval2;

  00009	8b 45 f8	 mov	 eax, DWORD PTR _this$[ebp]
  0000c	89 45 fc	 mov	 DWORD PTR __My_data$[ebp], eax

; 1385 :         pointer& _Myfirst = _My_data._Myfirst;

  0000f	8b 45 fc	 mov	 eax, DWORD PTR __My_data$[ebp]
  00012	89 45 f0	 mov	 DWORD PTR __Myfirst$[ebp], eax

; 1386 :         pointer& _Mylast  = _My_data._Mylast;

  00015	8b 45 fc	 mov	 eax, DWORD PTR __My_data$[ebp]
  00018	83 c0 04	 add	 eax, 4
  0001b	89 45 f4	 mov	 DWORD PTR __Mylast$[ebp], eax

; 1387 : 
; 1388 :         _My_data._Orphan_all();
; 1389 :         _Destroy(_Myfirst, _Mylast);

  0001e	8b 45 f4	 mov	 eax, DWORD PTR __Mylast$[ebp]
  00021	8b 00		 mov	 eax, DWORD PTR [eax]
  00023	89 45 e4	 mov	 DWORD PTR __Last$[ebp], eax
  00026	8b 45 f0	 mov	 eax, DWORD PTR __Myfirst$[ebp]
  00029	8b 00		 mov	 eax, DWORD PTR [eax]
  0002b	89 45 e0	 mov	 DWORD PTR __First$[ebp], eax

; 1733 :         return _Mypair._Get_first();

  0002e	8b 45 f8	 mov	 eax, DWORD PTR _this$[ebp]
; File C:\Program Files (x86)\Microsoft Visual Studio\2019\Community\VC\Tools\MSVC\14.28.29333\include\xmemory

; 1347 :         return *this;

  00031	89 45 ec	 mov	 DWORD PTR $T2[ebp], eax
; File C:\Program Files (x86)\Microsoft Visual Studio\2019\Community\VC\Tools\MSVC\14.28.29333\include\vector

; 1733 :         return _Mypair._Get_first();

  00034	8b 45 ec	 mov	 eax, DWORD PTR $T2[ebp]
  00037	89 45 e8	 mov	 DWORD PTR $T1[ebp], eax

; 1612 :         _Destroy_range(_First, _Last, _Getal());

  0003a	ff 75 e8	 push	 DWORD PTR $T1[ebp]
  0003d	ff 75 e4	 push	 DWORD PTR __Last$[ebp]
  00040	ff 75 e0	 push	 DWORD PTR __First$[ebp]
  00043	e8 00 00 00 00	 call	 ??$_Destroy_range@V?$allocator@PAVCGravityDecorator@NEffectUpdateDecorator@@@std@@@std@@YAXPAPAVCGravityDecorator@NEffectUpdateDecorator@@QAPAV12@AAV?$allocator@PAVCGravityDecorator@NEffectUpdateDecorator@@@0@@Z ; std::_Destroy_range<std::allocator<NEffectUpdateDecorator::CGravityDecorator *> >
  00048	83 c4 0c	 add	 esp, 12			; 0000000cH

; 1390 :         _Mylast = _Myfirst;

  0004b	8b 45 f4	 mov	 eax, DWORD PTR __Mylast$[ebp]
  0004e	8b 4d f0	 mov	 ecx, DWORD PTR __Myfirst$[ebp]
  00051	8b 09		 mov	 ecx, DWORD PTR [ecx]
  00053	89 08		 mov	 DWORD PTR [eax], ecx

; 1391 :     }

  00055	c9		 leave
  00056	c3		 ret	 0
?clear@?$vector@PAVCGravityDecorator@NEffectUpdateDecorator@@V?$allocator@PAVCGravityDecorator@NEffectUpdateDecorator@@@std@@@std@@QAEXXZ ENDP ; std::vector<NEffectUpdateDecorator::CGravityDecorator *,std::allocator<NEffectUpdateDecorator::CGravityDecorator *> >::clear
_TEXT	ENDS
; Function compile flags: /Odspy
; File D:\Metin2 Server Files\mainline\SRC_2014\Metin2Client\eterLib\Pool.h
;	COMDAT ?Delete@?$CDynamicPoolEx@VCGravityDecorator@NEffectUpdateDecorator@@@@KAXPAVCGravityDecorator@NEffectUpdateDecorator@@@Z
_TEXT	SEGMENT
_pkData$ = 8						; size = 4
?Delete@?$CDynamicPoolEx@VCGravityDecorator@NEffectUpdateDecorator@@@@KAXPAVCGravityDecorator@NEffectUpdateDecorator@@@Z PROC ; CDynamicPoolEx<NEffectUpdateDecorator::CGravityDecorator>::Delete, COMDAT

; 223  : 		{

  00000	55		 push	 ebp
  00001	8b ec		 mov	 ebp, esp

; 224  : 			::operator delete(pkData);

  00003	ff 75 08	 push	 DWORD PTR _pkData$[ebp]
  00006	e8 00 00 00 00	 call	 ??3@YAXPAX@Z		; operator delete
  0000b	59		 pop	 ecx

; 225  : 		}

  0000c	5d		 pop	 ebp
  0000d	c3		 ret	 0
?Delete@?$CDynamicPoolEx@VCGravityDecorator@NEffectUpdateDecorator@@@@KAXPAVCGravityDecorator@NEffectUpdateDecorator@@@Z ENDP ; CDynamicPoolEx<NEffectUpdateDecorator::CGravityDecorator>::Delete
_TEXT	ENDS
; Function compile flags: /Odspy
; File D:\Metin2 Server Files\mainline\SRC_2014\Metin2Client\eterLib\Pool.h
; File C:\Program Files (x86)\Microsoft Visual Studio\2019\Community\VC\Tools\MSVC\14.28.29333\include\vector
; File C:\Program Files (x86)\Microsoft Visual Studio\2019\Community\VC\Tools\MSVC\14.28.29333\include\xstddef
; File C:\Program Files (x86)\Microsoft Visual Studio\2019\Community\VC\Tools\MSVC\14.28.29333\include\vector
; File C:\Program Files (x86)\Microsoft Visual Studio\2019\Community\VC\Tools\MSVC\14.28.29333\include\xstddef
; File C:\Program Files (x86)\Microsoft Visual Studio\2019\Community\VC\Tools\MSVC\14.28.29333\include\vector
; File D:\Metin2 Server Files\mainline\SRC_2014\Metin2Client\eterLib\Pool.h
;	COMDAT ?Destroy@?$CDynamicPoolEx@VCGravityDecorator@NEffectUpdateDecorator@@@@QAEXXZ
_TEXT	SEGMENT
$T1 = -44						; size = 4
$T2 = -40						; size = 4
$T3 = -36						; size = 4
$T4 = -32						; size = 4
$T5 = -28						; size = 4
___param0$ = -24					; size = 4
$T6 = -20						; size = 4
___param0$ = -16					; size = 4
__My_data$7 = -12					; size = 4
__My_data$8 = -8					; size = 4
_this$ = -4						; size = 4
?Destroy@?$CDynamicPoolEx@VCGravityDecorator@NEffectUpdateDecorator@@@@QAEXXZ PROC ; CDynamicPoolEx<NEffectUpdateDecorator::CGravityDecorator>::Destroy, COMDAT
; _this$ = ecx

; 150  : 		{

  00000	55		 push	 ebp
  00001	8b ec		 mov	 ebp, esp
  00003	83 ec 2c	 sub	 esp, 44			; 0000002cH
  00006	89 4d fc	 mov	 DWORD PTR _this$[ebp], ecx
; File C:\Program Files (x86)\Microsoft Visual Studio\2019\Community\VC\Tools\MSVC\14.28.29333\include\vector

; 1420 :         auto& _My_data = _Mypair._Myval2;

  00009	8b 45 fc	 mov	 eax, DWORD PTR _this$[ebp]
  0000c	83 c0 04	 add	 eax, 4
  0000f	89 45 f8	 mov	 DWORD PTR __My_data$8[ebp], eax
; File C:\Program Files (x86)\Microsoft Visual Studio\2019\Community\VC\Tools\MSVC\14.28.29333\include\xstddef

; 275  :     return __builtin_addressof(_Val);

  00012	8b 45 f8	 mov	 eax, DWORD PTR __My_data$8[ebp]
  00015	89 45 d8	 mov	 DWORD PTR $T2[ebp], eax
; File C:\Program Files (x86)\Microsoft Visual Studio\2019\Community\VC\Tools\MSVC\14.28.29333\include\vector

; 1421 :         return iterator(_My_data._Mylast, _STD addressof(_My_data));

  00018	8b 45 f8	 mov	 eax, DWORD PTR __My_data$8[ebp]
  0001b	8b 40 04	 mov	 eax, DWORD PTR [eax+4]
  0001e	89 45 f0	 mov	 DWORD PTR ___param0$[ebp], eax

; 42   :     _Vector_const_iterator(_Tptr _Parg, const _Container_base* _Pvector) noexcept : _Ptr(_Parg) {

  00021	8b 45 f0	 mov	 eax, DWORD PTR ___param0$[ebp]
  00024	89 45 ec	 mov	 DWORD PTR $T6[ebp], eax

; 1421 :         return iterator(_My_data._Mylast, _STD addressof(_My_data));

  00027	8d 45 ec	 lea	 eax, DWORD PTR $T6[ebp]
  0002a	89 45 e0	 mov	 DWORD PTR $T4[ebp], eax

; 1410 :         auto& _My_data = _Mypair._Myval2;

  0002d	8b 45 fc	 mov	 eax, DWORD PTR _this$[ebp]
  00030	83 c0 04	 add	 eax, 4
  00033	89 45 f4	 mov	 DWORD PTR __My_data$7[ebp], eax
; File C:\Program Files (x86)\Microsoft Visual Studio\2019\Community\VC\Tools\MSVC\14.28.29333\include\xstddef

; 275  :     return __builtin_addressof(_Val);

  00036	8b 45 f4	 mov	 eax, DWORD PTR __My_data$7[ebp]
  00039	89 45 d4	 mov	 DWORD PTR $T1[ebp], eax
; File C:\Program Files (x86)\Microsoft Visual Studio\2019\Community\VC\Tools\MSVC\14.28.29333\include\vector

; 1411 :         return iterator(_My_data._Myfirst, _STD addressof(_My_data));

  0003c	8b 45 f4	 mov	 eax, DWORD PTR __My_data$7[ebp]
  0003f	8b 00		 mov	 eax, DWORD PTR [eax]
  00041	89 45 e8	 mov	 DWORD PTR ___param0$[ebp], eax

; 42   :     _Vector_const_iterator(_Tptr _Parg, const _Container_base* _Pvector) noexcept : _Ptr(_Parg) {

  00044	8b 45 e8	 mov	 eax, DWORD PTR ___param0$[ebp]
  00047	89 45 e4	 mov	 DWORD PTR $T5[ebp], eax

; 1411 :         return iterator(_My_data._Myfirst, _STD addressof(_My_data));

  0004a	8d 45 e4	 lea	 eax, DWORD PTR $T5[ebp]
  0004d	89 45 dc	 mov	 DWORD PTR $T3[ebp], eax
; File D:\Metin2 Server Files\mainline\SRC_2014\Metin2Client\eterLib\Pool.h

; 160  : 			std::for_each(m_kVct_pkData.begin(), m_kVct_pkData.end(), Delete);

  00050	68 00 00 00 00	 push	 OFFSET ?Delete@?$CDynamicPoolEx@VCGravityDecorator@NEffectUpdateDecorator@@@@KAXPAVCGravityDecorator@NEffectUpdateDecorator@@@Z ; CDynamicPoolEx<NEffectUpdateDecorator::CGravityDecorator>::Delete
  00055	8b 45 e0	 mov	 eax, DWORD PTR $T4[ebp]
  00058	ff 30		 push	 DWORD PTR [eax]
  0005a	8b 45 dc	 mov	 eax, DWORD PTR $T3[ebp]
  0005d	ff 30		 push	 DWORD PTR [eax]
  0005f	e8 00 00 00 00	 call	 ??$for_each@V?$_Vector_iterator@V?$_Vector_val@U?$_Simple_types@PAVCGravityDecorator@NEffectUpdateDecorator@@@std@@@std@@@std@@P6AXPAVCGravityDecorator@NEffectUpdateDecorator@@@Z@std@@YAP6AXPAVCGravityDecorator@NEffectUpdateDecorator@@@ZV?$_Vector_iterator@V?$_Vector_val@U?$_Simple_types@PAVCGravityDecorator@NEffectUpdateDecorator@@@std@@@std@@@0@1P6AX0@Z@Z ; std::for_each<std::_Vector_iterator<std::_Vector_val<std::_Simple_types<NEffectUpdateDecorator::CGravityDecorator *> > >,void (__cdecl*)(NEffectUpdateDecorator::CGravityDecorator *)>
  00064	83 c4 0c	 add	 esp, 12			; 0000000cH

; 161  : 			m_kVct_pkData.clear();

  00067	8b 4d fc	 mov	 ecx, DWORD PTR _this$[ebp]
  0006a	83 c1 04	 add	 ecx, 4
  0006d	e8 00 00 00 00	 call	 ?clear@?$vector@PAVCGravityDecorator@NEffectUpdateDecorator@@V?$allocator@PAVCGravityDecorator@NEffectUpdateDecorator@@@std@@@std@@QAEXXZ ; std::vector<NEffectUpdateDecorator::CGravityDecorator *,std::allocator<NEffectUpdateDecorator::CGravityDecorator *> >::clear

; 162  : 			m_kVct_pkFree.clear();

  00072	8b 4d fc	 mov	 ecx, DWORD PTR _this$[ebp]
  00075	83 c1 10	 add	 ecx, 16			; 00000010H
  00078	e8 00 00 00 00	 call	 ?clear@?$vector@PAVCGravityDecorator@NEffectUpdateDecorator@@V?$allocator@PAVCGravityDecorator@NEffectUpdateDecorator@@@std@@@std@@QAEXXZ ; std::vector<NEffectUpdateDecorator::CGravityDecorator *,std::allocator<NEffectUpdateDecorator::CGravityDecorator *> >::clear

; 163  : 		}

  0007d	c9		 leave
  0007e	c3		 ret	 0
?Destroy@?$CDynamicPoolEx@VCGravityDecorator@NEffectUpdateDecorator@@@@QAEXXZ ENDP ; CDynamicPoolEx<NEffectUpdateDecorator::CGravityDecorator>::Destroy
_TEXT	ENDS
; Function compile flags: /Odspy
; File D:\Metin2 Server Files\mainline\SRC_2014\Metin2Client\eterLib\Pool.h
; File C:\Program Files (x86)\Microsoft Visual Studio\2019\Community\VC\Tools\MSVC\14.28.29333\include\vector
; File D:\Metin2 Server Files\mainline\SRC_2014\Metin2Client\eterLib\Pool.h
; File C:\Program Files (x86)\Microsoft Visual Studio\2019\Community\VC\Tools\MSVC\14.28.29333\include\vector
; File D:\Metin2 Server Files\mainline\SRC_2014\Metin2Client\eterLib\Pool.h
;	COMDAT ??1?$CDynamicPoolEx@VCGravityDecorator@NEffectUpdateDecorator@@@@UAE@XZ
_TEXT	SEGMENT
_this$ = -16						; size = 4
__$EHRec$ = -12						; size = 12
??1?$CDynamicPoolEx@VCGravityDecorator@NEffectUpdateDecorator@@@@UAE@XZ PROC ; CDynamicPoolEx<NEffectUpdateDecorator::CGravityDecorator>::~CDynamicPoolEx<NEffectUpdateDecorator::CGravityDecorator>, COMDAT
; _this$ = ecx

; 132  : 		{

  00000	55		 push	 ebp
  00001	8b ec		 mov	 ebp, esp
  00003	6a ff		 push	 -1
  00005	68 00 00 00 00	 push	 __ehhandler$??1?$CDynamicPoolEx@VCGravityDecorator@NEffectUpdateDecorator@@@@UAE@XZ
  0000a	64 a1 00 00 00
	00		 mov	 eax, DWORD PTR fs:0
  00010	50		 push	 eax
  00011	51		 push	 ecx
  00012	a1 00 00 00 00	 mov	 eax, DWORD PTR ___security_cookie
  00017	33 c5		 xor	 eax, ebp
  00019	50		 push	 eax
  0001a	8d 45 f4	 lea	 eax, DWORD PTR __$EHRec$[ebp]
  0001d	64 a3 00 00 00
	00		 mov	 DWORD PTR fs:0, eax
  00023	89 4d f0	 mov	 DWORD PTR _this$[ebp], ecx
  00026	8b 45 f0	 mov	 eax, DWORD PTR _this$[ebp]
  00029	c7 00 00 00 00
	00		 mov	 DWORD PTR [eax], OFFSET ??_7?$CDynamicPoolEx@VCGravityDecorator@NEffectUpdateDecorator@@@@6B@

; 133  : 			assert(m_kVct_pkFree.size()==m_kVct_pkData.size());
; 134  : 			Destroy();

  0002f	8b 4d f0	 mov	 ecx, DWORD PTR _this$[ebp]
  00032	e8 00 00 00 00	 call	 ?Destroy@?$CDynamicPoolEx@VCGravityDecorator@NEffectUpdateDecorator@@@@QAEXXZ ; CDynamicPoolEx<NEffectUpdateDecorator::CGravityDecorator>::Destroy

; 142  : 		}

  00037	8b 4d f0	 mov	 ecx, DWORD PTR _this$[ebp]
  0003a	83 c1 10	 add	 ecx, 16			; 00000010H
; File C:\Program Files (x86)\Microsoft Visual Studio\2019\Community\VC\Tools\MSVC\14.28.29333\include\vector

; 673  :         _Tidy();

  0003d	e8 00 00 00 00	 call	 ?_Tidy@?$vector@PAVCGravityDecorator@NEffectUpdateDecorator@@V?$allocator@PAVCGravityDecorator@NEffectUpdateDecorator@@@std@@@std@@AAEXXZ ; std::vector<NEffectUpdateDecorator::CGravityDecorator *,std::allocator<NEffectUpdateDecorator::CGravityDecorator *> >::_Tidy
; File D:\Metin2 Server Files\mainline\SRC_2014\Metin2Client\eterLib\Pool.h

; 142  : 		}

  00042	8b 4d f0	 mov	 ecx, DWORD PTR _this$[ebp]
  00045	83 c1 04	 add	 ecx, 4
; File C:\Program Files (x86)\Microsoft Visual Studio\2019\Community\VC\Tools\MSVC\14.28.29333\include\vector

; 673  :         _Tidy();

  00048	e8 00 00 00 00	 call	 ?_Tidy@?$vector@PAVCGravityDecorator@NEffectUpdateDecorator@@V?$allocator@PAVCGravityDecorator@NEffectUpdateDecorator@@@std@@@std@@AAEXXZ ; std::vector<NEffectUpdateDecorator::CGravityDecorator *,std::allocator<NEffectUpdateDecorator::CGravityDecorator *> >::_Tidy
; File D:\Metin2 Server Files\mainline\SRC_2014\Metin2Client\eterLib\Pool.h

; 142  : 		}

  0004d	8b 4d f4	 mov	 ecx, DWORD PTR __$EHRec$[ebp]
  00050	64 89 0d 00 00
	00 00		 mov	 DWORD PTR fs:0, ecx
  00057	59		 pop	 ecx
  00058	c9		 leave
  00059	c3		 ret	 0
  0005a	cc		 int	 3
  0005b	cc		 int	 3
  0005c	cc		 int	 3
  0005d	cc		 int	 3
  0005e	cc		 int	 3
_TEXT	ENDS
;	COMDAT text$x
text$x	SEGMENT
__ehhandler$??1?$CDynamicPoolEx@VCGravityDecorator@NEffectUpdateDecorator@@@@UAE@XZ:
  00000	90		 npad	 1
  00001	90		 npad	 1
  00002	8b 54 24 08	 mov	 edx, DWORD PTR [esp+8]
  00006	8d 42 0c	 lea	 eax, DWORD PTR [edx+12]
  00009	8b 4a f8	 mov	 ecx, DWORD PTR [edx-8]
  0000c	33 c8		 xor	 ecx, eax
  0000e	e8 00 00 00 00	 call	 @__security_check_cookie@4
  00013	b8 00 00 00 00	 mov	 eax, OFFSET __ehfuncinfo$??1?$CDynamicPoolEx@VCGravityDecorator@NEffectUpdateDecorator@@@@UAE@XZ
  00018	e9 00 00 00 00	 jmp	 ___CxxFrameHandler3
text$x	ENDS
??1?$CDynamicPoolEx@VCGravityDecorator@NEffectUpdateDecorator@@@@UAE@XZ ENDP ; CDynamicPoolEx<NEffectUpdateDecorator::CGravityDecorator>::~CDynamicPoolEx<NEffectUpdateDecorator::CGravityDecorator>
; Function compile flags: /Odspy
; File D:\Metin2 Server Files\mainline\SRC_2014\Metin2Client\eterLib\Pool.h
; File C:\Program Files (x86)\Microsoft Visual Studio\2019\Community\VC\Tools\MSVC\14.28.29333\include\vector
; File C:\Program Files (x86)\Microsoft Visual Studio\2019\Community\VC\Tools\MSVC\14.28.29333\include\xmemory
; File C:\Program Files (x86)\Microsoft Visual Studio\2019\Community\VC\Tools\MSVC\14.28.29333\include\vector
; File D:\Metin2 Server Files\mainline\SRC_2014\Metin2Client\eterLib\Pool.h
; File C:\Program Files (x86)\Microsoft Visual Studio\2019\Community\VC\Tools\MSVC\14.28.29333\include\vector
; File C:\Program Files (x86)\Microsoft Visual Studio\2019\Community\VC\Tools\MSVC\14.28.29333\include\xmemory
; File C:\Program Files (x86)\Microsoft Visual Studio\2019\Community\VC\Tools\MSVC\14.28.29333\include\vector
; File D:\Metin2 Server Files\mainline\SRC_2014\Metin2Client\eterLib\Pool.h
;	COMDAT ??0?$CDynamicPoolEx@VCGravityDecorator@NEffectUpdateDecorator@@@@QAE@XZ
_TEXT	SEGMENT
_this$ = -28						; size = 4
_this$ = -24						; size = 4
_this$ = -20						; size = 4
_this$ = -16						; size = 4
_this$1 = -12						; size = 4
_this$2 = -8						; size = 4
_this$ = -4						; size = 4
??0?$CDynamicPoolEx@VCGravityDecorator@NEffectUpdateDecorator@@@@QAE@XZ PROC ; CDynamicPoolEx<NEffectUpdateDecorator::CGravityDecorator>::CDynamicPoolEx<NEffectUpdateDecorator::CGravityDecorator>, COMDAT
; _this$ = ecx

; 126  : 		CDynamicPoolEx()

  00000	55		 push	 ebp
  00001	8b ec		 mov	 ebp, esp
  00003	83 ec 1c	 sub	 esp, 28			; 0000001cH
  00006	89 4d fc	 mov	 DWORD PTR _this$[ebp], ecx

; 127  : 		{

  00009	8b 45 fc	 mov	 eax, DWORD PTR _this$[ebp]
  0000c	c7 00 00 00 00
	00		 mov	 DWORD PTR [eax], OFFSET ??_7?$CDynamicPoolEx@VCGravityDecorator@NEffectUpdateDecorator@@@@6B@
  00012	8b 45 fc	 mov	 eax, DWORD PTR _this$[ebp]
  00015	83 c0 04	 add	 eax, 4
  00018	89 45 f0	 mov	 DWORD PTR _this$[ebp], eax
; File C:\Program Files (x86)\Microsoft Visual Studio\2019\Community\VC\Tools\MSVC\14.28.29333\include\vector

; 445  :     vector() noexcept(is_nothrow_default_constructible_v<_Alty>) : _Mypair(_Zero_then_variadic_args_t{}) {

  0001b	8b 45 f0	 mov	 eax, DWORD PTR _this$[ebp]
  0001e	89 45 ec	 mov	 DWORD PTR _this$[ebp], eax
; File C:\Program Files (x86)\Microsoft Visual Studio\2019\Community\VC\Tools\MSVC\14.28.29333\include\xmemory

; 1339 :         : _Ty1(), _Myval2(_STD forward<_Other2>(_Val2)...) {}

  00021	8b 45 ec	 mov	 eax, DWORD PTR _this$[ebp]
  00024	89 45 f8	 mov	 DWORD PTR _this$2[ebp], eax
; File C:\Program Files (x86)\Microsoft Visual Studio\2019\Community\VC\Tools\MSVC\14.28.29333\include\vector

; 375  :     _Vector_val() noexcept : _Myfirst(), _Mylast(), _Myend() {}

  00027	8b 45 f8	 mov	 eax, DWORD PTR _this$2[ebp]
  0002a	83 20 00	 and	 DWORD PTR [eax], 0
  0002d	8b 45 f8	 mov	 eax, DWORD PTR _this$2[ebp]
  00030	83 60 04 00	 and	 DWORD PTR [eax+4], 0
  00034	8b 45 f8	 mov	 eax, DWORD PTR _this$2[ebp]
  00037	83 60 08 00	 and	 DWORD PTR [eax+8], 0
; File D:\Metin2 Server Files\mainline\SRC_2014\Metin2Client\eterLib\Pool.h

; 127  : 		{

  0003b	8b 45 fc	 mov	 eax, DWORD PTR _this$[ebp]
  0003e	83 c0 10	 add	 eax, 16			; 00000010H
  00041	89 45 e8	 mov	 DWORD PTR _this$[ebp], eax
; File C:\Program Files (x86)\Microsoft Visual Studio\2019\Community\VC\Tools\MSVC\14.28.29333\include\vector

; 445  :     vector() noexcept(is_nothrow_default_constructible_v<_Alty>) : _Mypair(_Zero_then_variadic_args_t{}) {

  00044	8b 45 e8	 mov	 eax, DWORD PTR _this$[ebp]
  00047	89 45 e4	 mov	 DWORD PTR _this$[ebp], eax
; File C:\Program Files (x86)\Microsoft Visual Studio\2019\Community\VC\Tools\MSVC\14.28.29333\include\xmemory

; 1339 :         : _Ty1(), _Myval2(_STD forward<_Other2>(_Val2)...) {}

  0004a	8b 45 e4	 mov	 eax, DWORD PTR _this$[ebp]
  0004d	89 45 f4	 mov	 DWORD PTR _this$1[ebp], eax
; File C:\Program Files (x86)\Microsoft Visual Studio\2019\Community\VC\Tools\MSVC\14.28.29333\include\vector

; 375  :     _Vector_val() noexcept : _Myfirst(), _Mylast(), _Myend() {}

  00050	8b 45 f4	 mov	 eax, DWORD PTR _this$1[ebp]
  00053	83 20 00	 and	 DWORD PTR [eax], 0
  00056	8b 45 f4	 mov	 eax, DWORD PTR _this$1[ebp]
  00059	83 60 04 00	 and	 DWORD PTR [eax+4], 0
  0005d	8b 45 f4	 mov	 eax, DWORD PTR _this$1[ebp]
  00060	83 60 08 00	 and	 DWORD PTR [eax+8], 0
; File D:\Metin2 Server Files\mainline\SRC_2014\Metin2Client\eterLib\Pool.h

; 128  : 			m_uInitCapacity=0;

  00064	8b 45 fc	 mov	 eax, DWORD PTR _this$[ebp]
  00067	83 60 1c 00	 and	 DWORD PTR [eax+28], 0

; 129  : 			m_uUsedCapacity=0;

  0006b	8b 45 fc	 mov	 eax, DWORD PTR _this$[ebp]
  0006e	83 60 20 00	 and	 DWORD PTR [eax+32], 0

; 130  : 		}

  00072	8b 45 fc	 mov	 eax, DWORD PTR _this$[ebp]
  00075	c9		 leave
  00076	c3		 ret	 0
??0?$CDynamicPoolEx@VCGravityDecorator@NEffectUpdateDecorator@@@@QAE@XZ ENDP ; CDynamicPoolEx<NEffectUpdateDecorator::CGravityDecorator>::CDynamicPoolEx<NEffectUpdateDecorator::CGravityDecorator>
_TEXT	ENDS
; Function compile flags: /Odspy
;	COMDAT ??_G?$CDynamicPoolEx@VCRotationDecorator@NEffectUpdateDecorator@@@@UAEPAXI@Z
_TEXT	SEGMENT
_this$ = -4						; size = 4
___flags$ = 8						; size = 4
??_G?$CDynamicPoolEx@VCRotationDecorator@NEffectUpdateDecorator@@@@UAEPAXI@Z PROC ; CDynamicPoolEx<NEffectUpdateDecorator::CRotationDecorator>::`scalar deleting destructor', COMDAT
; _this$ = ecx
  00000	55		 push	 ebp
  00001	8b ec		 mov	 ebp, esp
  00003	51		 push	 ecx
  00004	89 4d fc	 mov	 DWORD PTR _this$[ebp], ecx
  00007	8b 4d fc	 mov	 ecx, DWORD PTR _this$[ebp]
  0000a	e8 00 00 00 00	 call	 ??1?$CDynamicPoolEx@VCRotationDecorator@NEffectUpdateDecorator@@@@UAE@XZ ; CDynamicPoolEx<NEffectUpdateDecorator::CRotationDecorator>::~CDynamicPoolEx<NEffectUpdateDecorator::CRotationDecorator>
  0000f	8b 45 08	 mov	 eax, DWORD PTR ___flags$[ebp]
  00012	83 e0 01	 and	 eax, 1
  00015	74 0c		 je	 SHORT $LN2@scalar
  00017	6a 24		 push	 36			; 00000024H
  00019	ff 75 fc	 push	 DWORD PTR _this$[ebp]
  0001c	e8 00 00 00 00	 call	 ??3@YAXPAXI@Z		; operator delete
  00021	59		 pop	 ecx
  00022	59		 pop	 ecx
$LN2@scalar:
  00023	8b 45 fc	 mov	 eax, DWORD PTR _this$[ebp]
  00026	c9		 leave
  00027	c2 04 00	 ret	 4
??_G?$CDynamicPoolEx@VCRotationDecorator@NEffectUpdateDecorator@@@@UAEPAXI@Z ENDP ; CDynamicPoolEx<NEffectUpdateDecorator::CRotationDecorator>::`scalar deleting destructor'
_TEXT	ENDS
; Function compile flags: /Odspy
; File C:\Program Files (x86)\Microsoft Visual Studio\2019\Community\VC\Tools\MSVC\14.28.29333\include\vector
; File C:\Program Files (x86)\Microsoft Visual Studio\2019\Community\VC\Tools\MSVC\14.28.29333\include\xmemory
; File C:\Program Files (x86)\Microsoft Visual Studio\2019\Community\VC\Tools\MSVC\14.28.29333\include\vector
; File C:\Program Files (x86)\Microsoft Visual Studio\2019\Community\VC\Tools\MSVC\14.28.29333\include\xmemory
; File C:\Program Files (x86)\Microsoft Visual Studio\2019\Community\VC\Tools\MSVC\14.28.29333\include\vector
; File C:\Program Files (x86)\Microsoft Visual Studio\2019\Community\VC\Tools\MSVC\14.28.29333\include\xmemory
; File C:\Program Files (x86)\Microsoft Visual Studio\2019\Community\VC\Tools\MSVC\14.28.29333\include\vector
;	COMDAT ?_Tidy@?$vector@PAVCRotationDecorator@NEffectUpdateDecorator@@V?$allocator@PAVCRotationDecorator@NEffectUpdateDecorator@@@std@@@std@@AAEXXZ
_TEXT	SEGMENT
$T1 = -52						; size = 4
__Ptr$ = -48						; size = 4
__Count$ = -44						; size = 4
$T2 = -40						; size = 4
__First$ = -36						; size = 4
__Last$ = -32						; size = 4
$T3 = -28						; size = 4
$T4 = -24						; size = 4
__Myend$ = -20						; size = 4
__Mylast$ = -16						; size = 4
_this$ = -12						; size = 4
__My_data$ = -8						; size = 4
__Myfirst$ = -4						; size = 4
?_Tidy@?$vector@PAVCRotationDecorator@NEffectUpdateDecorator@@V?$allocator@PAVCRotationDecorator@NEffectUpdateDecorator@@@std@@@std@@AAEXXZ PROC ; std::vector<NEffectUpdateDecorator::CRotationDecorator *,std::allocator<NEffectUpdateDecorator::CRotationDecorator *> >::_Tidy, COMDAT
; _this$ = ecx

; 1686 :     void _Tidy() noexcept { // free all storage

  00000	55		 push	 ebp
  00001	8b ec		 mov	 ebp, esp
  00003	83 ec 34	 sub	 esp, 52			; 00000034H
  00006	89 4d f4	 mov	 DWORD PTR _this$[ebp], ecx

; 1687 :         auto& _My_data    = _Mypair._Myval2;

  00009	8b 45 f4	 mov	 eax, DWORD PTR _this$[ebp]
  0000c	89 45 f8	 mov	 DWORD PTR __My_data$[ebp], eax

; 1688 :         pointer& _Myfirst = _My_data._Myfirst;

  0000f	8b 45 f8	 mov	 eax, DWORD PTR __My_data$[ebp]
  00012	89 45 fc	 mov	 DWORD PTR __Myfirst$[ebp], eax

; 1689 :         pointer& _Mylast  = _My_data._Mylast;

  00015	8b 45 f8	 mov	 eax, DWORD PTR __My_data$[ebp]
  00018	83 c0 04	 add	 eax, 4
  0001b	89 45 f0	 mov	 DWORD PTR __Mylast$[ebp], eax

; 1690 :         pointer& _Myend   = _My_data._Myend;

  0001e	8b 45 f8	 mov	 eax, DWORD PTR __My_data$[ebp]
  00021	83 c0 08	 add	 eax, 8
  00024	89 45 ec	 mov	 DWORD PTR __Myend$[ebp], eax

; 1691 : 
; 1692 :         _My_data._Orphan_all();
; 1693 : 
; 1694 :         if (_Myfirst) { // destroy and deallocate old array

  00027	8b 45 fc	 mov	 eax, DWORD PTR __Myfirst$[ebp]
  0002a	83 38 00	 cmp	 DWORD PTR [eax], 0
  0002d	74 74		 je	 SHORT $LN3@Tidy

; 1695 :             _Destroy(_Myfirst, _Mylast);

  0002f	8b 45 f0	 mov	 eax, DWORD PTR __Mylast$[ebp]
  00032	8b 00		 mov	 eax, DWORD PTR [eax]
  00034	89 45 e0	 mov	 DWORD PTR __Last$[ebp], eax
  00037	8b 45 fc	 mov	 eax, DWORD PTR __Myfirst$[ebp]
  0003a	8b 00		 mov	 eax, DWORD PTR [eax]
  0003c	89 45 dc	 mov	 DWORD PTR __First$[ebp], eax

; 1733 :         return _Mypair._Get_first();

  0003f	8b 45 f4	 mov	 eax, DWORD PTR _this$[ebp]
; File C:\Program Files (x86)\Microsoft Visual Studio\2019\Community\VC\Tools\MSVC\14.28.29333\include\xmemory

; 1347 :         return *this;

  00042	89 45 e8	 mov	 DWORD PTR $T4[ebp], eax
; File C:\Program Files (x86)\Microsoft Visual Studio\2019\Community\VC\Tools\MSVC\14.28.29333\include\vector

; 1733 :         return _Mypair._Get_first();

  00045	8b 45 e8	 mov	 eax, DWORD PTR $T4[ebp]
  00048	89 45 e4	 mov	 DWORD PTR $T3[ebp], eax

; 1612 :         _Destroy_range(_First, _Last, _Getal());

  0004b	ff 75 e4	 push	 DWORD PTR $T3[ebp]
  0004e	ff 75 e0	 push	 DWORD PTR __Last$[ebp]
  00051	ff 75 dc	 push	 DWORD PTR __First$[ebp]
  00054	e8 00 00 00 00	 call	 ??$_Destroy_range@V?$allocator@PAVCRotationDecorator@NEffectUpdateDecorator@@@std@@@std@@YAXPAPAVCRotationDecorator@NEffectUpdateDecorator@@QAPAV12@AAV?$allocator@PAVCRotationDecorator@NEffectUpdateDecorator@@@0@@Z ; std::_Destroy_range<std::allocator<NEffectUpdateDecorator::CRotationDecorator *> >
  00059	83 c4 0c	 add	 esp, 12			; 0000000cH

; 1733 :         return _Mypair._Get_first();

  0005c	8b 45 f4	 mov	 eax, DWORD PTR _this$[ebp]
; File C:\Program Files (x86)\Microsoft Visual Studio\2019\Community\VC\Tools\MSVC\14.28.29333\include\xmemory

; 1347 :         return *this;

  0005f	89 45 d8	 mov	 DWORD PTR $T2[ebp], eax
; File C:\Program Files (x86)\Microsoft Visual Studio\2019\Community\VC\Tools\MSVC\14.28.29333\include\vector

; 1733 :         return _Mypair._Get_first();

  00062	8b 45 d8	 mov	 eax, DWORD PTR $T2[ebp]
  00065	89 45 cc	 mov	 DWORD PTR $T1[ebp], eax

; 1696 :             _Getal().deallocate(_Myfirst, static_cast<size_type>(_Myend - _Myfirst));

  00068	8b 45 ec	 mov	 eax, DWORD PTR __Myend$[ebp]
  0006b	8b 4d fc	 mov	 ecx, DWORD PTR __Myfirst$[ebp]
  0006e	8b 00		 mov	 eax, DWORD PTR [eax]
  00070	2b 01		 sub	 eax, DWORD PTR [ecx]
  00072	c1 f8 02	 sar	 eax, 2
  00075	89 45 d4	 mov	 DWORD PTR __Count$[ebp], eax
  00078	8b 45 fc	 mov	 eax, DWORD PTR __Myfirst$[ebp]
  0007b	8b 00		 mov	 eax, DWORD PTR [eax]
  0007d	89 45 d0	 mov	 DWORD PTR __Ptr$[ebp], eax
; File C:\Program Files (x86)\Microsoft Visual Studio\2019\Community\VC\Tools\MSVC\14.28.29333\include\xmemory

; 810  :         _Deallocate<_New_alignof<_Ty>>(_Ptr, sizeof(_Ty) * _Count);

  00080	8b 45 d4	 mov	 eax, DWORD PTR __Count$[ebp]
  00083	c1 e0 02	 shl	 eax, 2
  00086	50		 push	 eax
  00087	ff 75 d0	 push	 DWORD PTR __Ptr$[ebp]
  0008a	e8 00 00 00 00	 call	 ??$_Deallocate@$07$0A@@std@@YAXPAXI@Z ; std::_Deallocate<8,0>
  0008f	59		 pop	 ecx
  00090	59		 pop	 ecx
; File C:\Program Files (x86)\Microsoft Visual Studio\2019\Community\VC\Tools\MSVC\14.28.29333\include\vector

; 1698 :             _Myfirst = pointer();

  00091	8b 45 fc	 mov	 eax, DWORD PTR __Myfirst$[ebp]
  00094	83 20 00	 and	 DWORD PTR [eax], 0

; 1699 :             _Mylast  = pointer();

  00097	8b 45 f0	 mov	 eax, DWORD PTR __Mylast$[ebp]
  0009a	83 20 00	 and	 DWORD PTR [eax], 0

; 1700 :             _Myend   = pointer();

  0009d	8b 45 ec	 mov	 eax, DWORD PTR __Myend$[ebp]
  000a0	83 20 00	 and	 DWORD PTR [eax], 0
$LN3@Tidy:

; 1701 :         }
; 1702 :     }

  000a3	c9		 leave
  000a4	c3		 ret	 0
?_Tidy@?$vector@PAVCRotationDecorator@NEffectUpdateDecorator@@V?$allocator@PAVCRotationDecorator@NEffectUpdateDecorator@@@std@@@std@@AAEXXZ ENDP ; std::vector<NEffectUpdateDecorator::CRotationDecorator *,std::allocator<NEffectUpdateDecorator::CRotationDecorator *> >::_Tidy
_TEXT	ENDS
; Function compile flags: /Odspy
; File C:\Program Files (x86)\Microsoft Visual Studio\2019\Community\VC\Tools\MSVC\14.28.29333\include\vector
; File C:\Program Files (x86)\Microsoft Visual Studio\2019\Community\VC\Tools\MSVC\14.28.29333\include\xmemory
; File C:\Program Files (x86)\Microsoft Visual Studio\2019\Community\VC\Tools\MSVC\14.28.29333\include\vector
;	COMDAT ?clear@?$vector@PAVCRotationDecorator@NEffectUpdateDecorator@@V?$allocator@PAVCRotationDecorator@NEffectUpdateDecorator@@@std@@@std@@QAEXXZ
_TEXT	SEGMENT
__First$ = -32						; size = 4
__Last$ = -28						; size = 4
$T1 = -24						; size = 4
$T2 = -20						; size = 4
__Myfirst$ = -16					; size = 4
__Mylast$ = -12						; size = 4
_this$ = -8						; size = 4
__My_data$ = -4						; size = 4
?clear@?$vector@PAVCRotationDecorator@NEffectUpdateDecorator@@V?$allocator@PAVCRotationDecorator@NEffectUpdateDecorator@@@std@@@std@@QAEXXZ PROC ; std::vector<NEffectUpdateDecorator::CRotationDecorator *,std::allocator<NEffectUpdateDecorator::CRotationDecorator *> >::clear, COMDAT
; _this$ = ecx

; 1383 :     void clear() noexcept { // erase all

  00000	55		 push	 ebp
  00001	8b ec		 mov	 ebp, esp
  00003	83 ec 20	 sub	 esp, 32			; 00000020H
  00006	89 4d f8	 mov	 DWORD PTR _this$[ebp], ecx

; 1384 :         auto& _My_data    = _Mypair._Myval2;

  00009	8b 45 f8	 mov	 eax, DWORD PTR _this$[ebp]
  0000c	89 45 fc	 mov	 DWORD PTR __My_data$[ebp], eax

; 1385 :         pointer& _Myfirst = _My_data._Myfirst;

  0000f	8b 45 fc	 mov	 eax, DWORD PTR __My_data$[ebp]
  00012	89 45 f0	 mov	 DWORD PTR __Myfirst$[ebp], eax

; 1386 :         pointer& _Mylast  = _My_data._Mylast;

  00015	8b 45 fc	 mov	 eax, DWORD PTR __My_data$[ebp]
  00018	83 c0 04	 add	 eax, 4
  0001b	89 45 f4	 mov	 DWORD PTR __Mylast$[ebp], eax

; 1387 : 
; 1388 :         _My_data._Orphan_all();
; 1389 :         _Destroy(_Myfirst, _Mylast);

  0001e	8b 45 f4	 mov	 eax, DWORD PTR __Mylast$[ebp]
  00021	8b 00		 mov	 eax, DWORD PTR [eax]
  00023	89 45 e4	 mov	 DWORD PTR __Last$[ebp], eax
  00026	8b 45 f0	 mov	 eax, DWORD PTR __Myfirst$[ebp]
  00029	8b 00		 mov	 eax, DWORD PTR [eax]
  0002b	89 45 e0	 mov	 DWORD PTR __First$[ebp], eax

; 1733 :         return _Mypair._Get_first();

  0002e	8b 45 f8	 mov	 eax, DWORD PTR _this$[ebp]
; File C:\Program Files (x86)\Microsoft Visual Studio\2019\Community\VC\Tools\MSVC\14.28.29333\include\xmemory

; 1347 :         return *this;

  00031	89 45 ec	 mov	 DWORD PTR $T2[ebp], eax
; File C:\Program Files (x86)\Microsoft Visual Studio\2019\Community\VC\Tools\MSVC\14.28.29333\include\vector

; 1733 :         return _Mypair._Get_first();

  00034	8b 45 ec	 mov	 eax, DWORD PTR $T2[ebp]
  00037	89 45 e8	 mov	 DWORD PTR $T1[ebp], eax

; 1612 :         _Destroy_range(_First, _Last, _Getal());

  0003a	ff 75 e8	 push	 DWORD PTR $T1[ebp]
  0003d	ff 75 e4	 push	 DWORD PTR __Last$[ebp]
  00040	ff 75 e0	 push	 DWORD PTR __First$[ebp]
  00043	e8 00 00 00 00	 call	 ??$_Destroy_range@V?$allocator@PAVCRotationDecorator@NEffectUpdateDecorator@@@std@@@std@@YAXPAPAVCRotationDecorator@NEffectUpdateDecorator@@QAPAV12@AAV?$allocator@PAVCRotationDecorator@NEffectUpdateDecorator@@@0@@Z ; std::_Destroy_range<std::allocator<NEffectUpdateDecorator::CRotationDecorator *> >
  00048	83 c4 0c	 add	 esp, 12			; 0000000cH

; 1390 :         _Mylast = _Myfirst;

  0004b	8b 45 f4	 mov	 eax, DWORD PTR __Mylast$[ebp]
  0004e	8b 4d f0	 mov	 ecx, DWORD PTR __Myfirst$[ebp]
  00051	8b 09		 mov	 ecx, DWORD PTR [ecx]
  00053	89 08		 mov	 DWORD PTR [eax], ecx

; 1391 :     }

  00055	c9		 leave
  00056	c3		 ret	 0
?clear@?$vector@PAVCRotationDecorator@NEffectUpdateDecorator@@V?$allocator@PAVCRotationDecorator@NEffectUpdateDecorator@@@std@@@std@@QAEXXZ ENDP ; std::vector<NEffectUpdateDecorator::CRotationDecorator *,std::allocator<NEffectUpdateDecorator::CRotationDecorator *> >::clear
_TEXT	ENDS
; Function compile flags: /Odspy
; File D:\Metin2 Server Files\mainline\SRC_2014\Metin2Client\eterLib\Pool.h
;	COMDAT ?Delete@?$CDynamicPoolEx@VCRotationDecorator@NEffectUpdateDecorator@@@@KAXPAVCRotationDecorator@NEffectUpdateDecorator@@@Z
_TEXT	SEGMENT
_pkData$ = 8						; size = 4
?Delete@?$CDynamicPoolEx@VCRotationDecorator@NEffectUpdateDecorator@@@@KAXPAVCRotationDecorator@NEffectUpdateDecorator@@@Z PROC ; CDynamicPoolEx<NEffectUpdateDecorator::CRotationDecorator>::Delete, COMDAT

; 223  : 		{

  00000	55		 push	 ebp
  00001	8b ec		 mov	 ebp, esp

; 224  : 			::operator delete(pkData);

  00003	ff 75 08	 push	 DWORD PTR _pkData$[ebp]
  00006	e8 00 00 00 00	 call	 ??3@YAXPAX@Z		; operator delete
  0000b	59		 pop	 ecx

; 225  : 		}

  0000c	5d		 pop	 ebp
  0000d	c3		 ret	 0
?Delete@?$CDynamicPoolEx@VCRotationDecorator@NEffectUpdateDecorator@@@@KAXPAVCRotationDecorator@NEffectUpdateDecorator@@@Z ENDP ; CDynamicPoolEx<NEffectUpdateDecorator::CRotationDecorator>::Delete
_TEXT	ENDS
; Function compile flags: /Odspy
; File D:\Metin2 Server Files\mainline\SRC_2014\Metin2Client\eterLib\Pool.h
; File C:\Program Files (x86)\Microsoft Visual Studio\2019\Community\VC\Tools\MSVC\14.28.29333\include\vector
; File C:\Program Files (x86)\Microsoft Visual Studio\2019\Community\VC\Tools\MSVC\14.28.29333\include\xstddef
; File C:\Program Files (x86)\Microsoft Visual Studio\2019\Community\VC\Tools\MSVC\14.28.29333\include\vector
; File C:\Program Files (x86)\Microsoft Visual Studio\2019\Community\VC\Tools\MSVC\14.28.29333\include\xstddef
; File C:\Program Files (x86)\Microsoft Visual Studio\2019\Community\VC\Tools\MSVC\14.28.29333\include\vector
; File D:\Metin2 Server Files\mainline\SRC_2014\Metin2Client\eterLib\Pool.h
;	COMDAT ?Destroy@?$CDynamicPoolEx@VCRotationDecorator@NEffectUpdateDecorator@@@@QAEXXZ
_TEXT	SEGMENT
$T1 = -44						; size = 4
$T2 = -40						; size = 4
$T3 = -36						; size = 4
$T4 = -32						; size = 4
$T5 = -28						; size = 4
___param0$ = -24					; size = 4
$T6 = -20						; size = 4
___param0$ = -16					; size = 4
__My_data$7 = -12					; size = 4
__My_data$8 = -8					; size = 4
_this$ = -4						; size = 4
?Destroy@?$CDynamicPoolEx@VCRotationDecorator@NEffectUpdateDecorator@@@@QAEXXZ PROC ; CDynamicPoolEx<NEffectUpdateDecorator::CRotationDecorator>::Destroy, COMDAT
; _this$ = ecx

; 150  : 		{

  00000	55		 push	 ebp
  00001	8b ec		 mov	 ebp, esp
  00003	83 ec 2c	 sub	 esp, 44			; 0000002cH
  00006	89 4d fc	 mov	 DWORD PTR _this$[ebp], ecx
; File C:\Program Files (x86)\Microsoft Visual Studio\2019\Community\VC\Tools\MSVC\14.28.29333\include\vector

; 1420 :         auto& _My_data = _Mypair._Myval2;

  00009	8b 45 fc	 mov	 eax, DWORD PTR _this$[ebp]
  0000c	83 c0 04	 add	 eax, 4
  0000f	89 45 f8	 mov	 DWORD PTR __My_data$8[ebp], eax
; File C:\Program Files (x86)\Microsoft Visual Studio\2019\Community\VC\Tools\MSVC\14.28.29333\include\xstddef

; 275  :     return __builtin_addressof(_Val);

  00012	8b 45 f8	 mov	 eax, DWORD PTR __My_data$8[ebp]
  00015	89 45 d8	 mov	 DWORD PTR $T2[ebp], eax
; File C:\Program Files (x86)\Microsoft Visual Studio\2019\Community\VC\Tools\MSVC\14.28.29333\include\vector

; 1421 :         return iterator(_My_data._Mylast, _STD addressof(_My_data));

  00018	8b 45 f8	 mov	 eax, DWORD PTR __My_data$8[ebp]
  0001b	8b 40 04	 mov	 eax, DWORD PTR [eax+4]
  0001e	89 45 f0	 mov	 DWORD PTR ___param0$[ebp], eax

; 42   :     _Vector_const_iterator(_Tptr _Parg, const _Container_base* _Pvector) noexcept : _Ptr(_Parg) {

  00021	8b 45 f0	 mov	 eax, DWORD PTR ___param0$[ebp]
  00024	89 45 ec	 mov	 DWORD PTR $T6[ebp], eax

; 1421 :         return iterator(_My_data._Mylast, _STD addressof(_My_data));

  00027	8d 45 ec	 lea	 eax, DWORD PTR $T6[ebp]
  0002a	89 45 e0	 mov	 DWORD PTR $T4[ebp], eax

; 1410 :         auto& _My_data = _Mypair._Myval2;

  0002d	8b 45 fc	 mov	 eax, DWORD PTR _this$[ebp]
  00030	83 c0 04	 add	 eax, 4
  00033	89 45 f4	 mov	 DWORD PTR __My_data$7[ebp], eax
; File C:\Program Files (x86)\Microsoft Visual Studio\2019\Community\VC\Tools\MSVC\14.28.29333\include\xstddef

; 275  :     return __builtin_addressof(_Val);

  00036	8b 45 f4	 mov	 eax, DWORD PTR __My_data$7[ebp]
  00039	89 45 d4	 mov	 DWORD PTR $T1[ebp], eax
; File C:\Program Files (x86)\Microsoft Visual Studio\2019\Community\VC\Tools\MSVC\14.28.29333\include\vector

; 1411 :         return iterator(_My_data._Myfirst, _STD addressof(_My_data));

  0003c	8b 45 f4	 mov	 eax, DWORD PTR __My_data$7[ebp]
  0003f	8b 00		 mov	 eax, DWORD PTR [eax]
  00041	89 45 e8	 mov	 DWORD PTR ___param0$[ebp], eax

; 42   :     _Vector_const_iterator(_Tptr _Parg, const _Container_base* _Pvector) noexcept : _Ptr(_Parg) {

  00044	8b 45 e8	 mov	 eax, DWORD PTR ___param0$[ebp]
  00047	89 45 e4	 mov	 DWORD PTR $T5[ebp], eax

; 1411 :         return iterator(_My_data._Myfirst, _STD addressof(_My_data));

  0004a	8d 45 e4	 lea	 eax, DWORD PTR $T5[ebp]
  0004d	89 45 dc	 mov	 DWORD PTR $T3[ebp], eax
; File D:\Metin2 Server Files\mainline\SRC_2014\Metin2Client\eterLib\Pool.h

; 160  : 			std::for_each(m_kVct_pkData.begin(), m_kVct_pkData.end(), Delete);

  00050	68 00 00 00 00	 push	 OFFSET ?Delete@?$CDynamicPoolEx@VCRotationDecorator@NEffectUpdateDecorator@@@@KAXPAVCRotationDecorator@NEffectUpdateDecorator@@@Z ; CDynamicPoolEx<NEffectUpdateDecorator::CRotationDecorator>::Delete
  00055	8b 45 e0	 mov	 eax, DWORD PTR $T4[ebp]
  00058	ff 30		 push	 DWORD PTR [eax]
  0005a	8b 45 dc	 mov	 eax, DWORD PTR $T3[ebp]
  0005d	ff 30		 push	 DWORD PTR [eax]
  0005f	e8 00 00 00 00	 call	 ??$for_each@V?$_Vector_iterator@V?$_Vector_val@U?$_Simple_types@PAVCRotationDecorator@NEffectUpdateDecorator@@@std@@@std@@@std@@P6AXPAVCRotationDecorator@NEffectUpdateDecorator@@@Z@std@@YAP6AXPAVCRotationDecorator@NEffectUpdateDecorator@@@ZV?$_Vector_iterator@V?$_Vector_val@U?$_Simple_types@PAVCRotationDecorator@NEffectUpdateDecorator@@@std@@@std@@@0@1P6AX0@Z@Z ; std::for_each<std::_Vector_iterator<std::_Vector_val<std::_Simple_types<NEffectUpdateDecorator::CRotationDecorator *> > >,void (__cdecl*)(NEffectUpdateDecorator::CRotationDecorator *)>
  00064	83 c4 0c	 add	 esp, 12			; 0000000cH

; 161  : 			m_kVct_pkData.clear();

  00067	8b 4d fc	 mov	 ecx, DWORD PTR _this$[ebp]
  0006a	83 c1 04	 add	 ecx, 4
  0006d	e8 00 00 00 00	 call	 ?clear@?$vector@PAVCRotationDecorator@NEffectUpdateDecorator@@V?$allocator@PAVCRotationDecorator@NEffectUpdateDecorator@@@std@@@std@@QAEXXZ ; std::vector<NEffectUpdateDecorator::CRotationDecorator *,std::allocator<NEffectUpdateDecorator::CRotationDecorator *> >::clear

; 162  : 			m_kVct_pkFree.clear();

  00072	8b 4d fc	 mov	 ecx, DWORD PTR _this$[ebp]
  00075	83 c1 10	 add	 ecx, 16			; 00000010H
  00078	e8 00 00 00 00	 call	 ?clear@?$vector@PAVCRotationDecorator@NEffectUpdateDecorator@@V?$allocator@PAVCRotationDecorator@NEffectUpdateDecorator@@@std@@@std@@QAEXXZ ; std::vector<NEffectUpdateDecorator::CRotationDecorator *,std::allocator<NEffectUpdateDecorator::CRotationDecorator *> >::clear

; 163  : 		}

  0007d	c9		 leave
  0007e	c3		 ret	 0
?Destroy@?$CDynamicPoolEx@VCRotationDecorator@NEffectUpdateDecorator@@@@QAEXXZ ENDP ; CDynamicPoolEx<NEffectUpdateDecorator::CRotationDecorator>::Destroy
_TEXT	ENDS
; Function compile flags: /Odspy
; File D:\Metin2 Server Files\mainline\SRC_2014\Metin2Client\eterLib\Pool.h
; File C:\Program Files (x86)\Microsoft Visual Studio\2019\Community\VC\Tools\MSVC\14.28.29333\include\vector
; File D:\Metin2 Server Files\mainline\SRC_2014\Metin2Client\eterLib\Pool.h
; File C:\Program Files (x86)\Microsoft Visual Studio\2019\Community\VC\Tools\MSVC\14.28.29333\include\vector
; File D:\Metin2 Server Files\mainline\SRC_2014\Metin2Client\eterLib\Pool.h
;	COMDAT ??1?$CDynamicPoolEx@VCRotationDecorator@NEffectUpdateDecorator@@@@UAE@XZ
_TEXT	SEGMENT
_this$ = -16						; size = 4
__$EHRec$ = -12						; size = 12
??1?$CDynamicPoolEx@VCRotationDecorator@NEffectUpdateDecorator@@@@UAE@XZ PROC ; CDynamicPoolEx<NEffectUpdateDecorator::CRotationDecorator>::~CDynamicPoolEx<NEffectUpdateDecorator::CRotationDecorator>, COMDAT
; _this$ = ecx

; 132  : 		{

  00000	55		 push	 ebp
  00001	8b ec		 mov	 ebp, esp
  00003	6a ff		 push	 -1
  00005	68 00 00 00 00	 push	 __ehhandler$??1?$CDynamicPoolEx@VCRotationDecorator@NEffectUpdateDecorator@@@@UAE@XZ
  0000a	64 a1 00 00 00
	00		 mov	 eax, DWORD PTR fs:0
  00010	50		 push	 eax
  00011	51		 push	 ecx
  00012	a1 00 00 00 00	 mov	 eax, DWORD PTR ___security_cookie
  00017	33 c5		 xor	 eax, ebp
  00019	50		 push	 eax
  0001a	8d 45 f4	 lea	 eax, DWORD PTR __$EHRec$[ebp]
  0001d	64 a3 00 00 00
	00		 mov	 DWORD PTR fs:0, eax
  00023	89 4d f0	 mov	 DWORD PTR _this$[ebp], ecx
  00026	8b 45 f0	 mov	 eax, DWORD PTR _this$[ebp]
  00029	c7 00 00 00 00
	00		 mov	 DWORD PTR [eax], OFFSET ??_7?$CDynamicPoolEx@VCRotationDecorator@NEffectUpdateDecorator@@@@6B@

; 133  : 			assert(m_kVct_pkFree.size()==m_kVct_pkData.size());
; 134  : 			Destroy();

  0002f	8b 4d f0	 mov	 ecx, DWORD PTR _this$[ebp]
  00032	e8 00 00 00 00	 call	 ?Destroy@?$CDynamicPoolEx@VCRotationDecorator@NEffectUpdateDecorator@@@@QAEXXZ ; CDynamicPoolEx<NEffectUpdateDecorator::CRotationDecorator>::Destroy

; 142  : 		}

  00037	8b 4d f0	 mov	 ecx, DWORD PTR _this$[ebp]
  0003a	83 c1 10	 add	 ecx, 16			; 00000010H
; File C:\Program Files (x86)\Microsoft Visual Studio\2019\Community\VC\Tools\MSVC\14.28.29333\include\vector

; 673  :         _Tidy();

  0003d	e8 00 00 00 00	 call	 ?_Tidy@?$vector@PAVCRotationDecorator@NEffectUpdateDecorator@@V?$allocator@PAVCRotationDecorator@NEffectUpdateDecorator@@@std@@@std@@AAEXXZ ; std::vector<NEffectUpdateDecorator::CRotationDecorator *,std::allocator<NEffectUpdateDecorator::CRotationDecorator *> >::_Tidy
; File D:\Metin2 Server Files\mainline\SRC_2014\Metin2Client\eterLib\Pool.h

; 142  : 		}

  00042	8b 4d f0	 mov	 ecx, DWORD PTR _this$[ebp]
  00045	83 c1 04	 add	 ecx, 4
; File C:\Program Files (x86)\Microsoft Visual Studio\2019\Community\VC\Tools\MSVC\14.28.29333\include\vector

; 673  :         _Tidy();

  00048	e8 00 00 00 00	 call	 ?_Tidy@?$vector@PAVCRotationDecorator@NEffectUpdateDecorator@@V?$allocator@PAVCRotationDecorator@NEffectUpdateDecorator@@@std@@@std@@AAEXXZ ; std::vector<NEffectUpdateDecorator::CRotationDecorator *,std::allocator<NEffectUpdateDecorator::CRotationDecorator *> >::_Tidy
; File D:\Metin2 Server Files\mainline\SRC_2014\Metin2Client\eterLib\Pool.h

; 142  : 		}

  0004d	8b 4d f4	 mov	 ecx, DWORD PTR __$EHRec$[ebp]
  00050	64 89 0d 00 00
	00 00		 mov	 DWORD PTR fs:0, ecx
  00057	59		 pop	 ecx
  00058	c9		 leave
  00059	c3		 ret	 0
  0005a	cc		 int	 3
  0005b	cc		 int	 3
  0005c	cc		 int	 3
  0005d	cc		 int	 3
  0005e	cc		 int	 3
_TEXT	ENDS
;	COMDAT text$x
text$x	SEGMENT
__ehhandler$??1?$CDynamicPoolEx@VCRotationDecorator@NEffectUpdateDecorator@@@@UAE@XZ:
  00000	90		 npad	 1
  00001	90		 npad	 1
  00002	8b 54 24 08	 mov	 edx, DWORD PTR [esp+8]
  00006	8d 42 0c	 lea	 eax, DWORD PTR [edx+12]
  00009	8b 4a f8	 mov	 ecx, DWORD PTR [edx-8]
  0000c	33 c8		 xor	 ecx, eax
  0000e	e8 00 00 00 00	 call	 @__security_check_cookie@4
  00013	b8 00 00 00 00	 mov	 eax, OFFSET __ehfuncinfo$??1?$CDynamicPoolEx@VCRotationDecorator@NEffectUpdateDecorator@@@@UAE@XZ
  00018	e9 00 00 00 00	 jmp	 ___CxxFrameHandler3
text$x	ENDS
??1?$CDynamicPoolEx@VCRotationDecorator@NEffectUpdateDecorator@@@@UAE@XZ ENDP ; CDynamicPoolEx<NEffectUpdateDecorator::CRotationDecorator>::~CDynamicPoolEx<NEffectUpdateDecorator::CRotationDecorator>
; Function compile flags: /Odspy
; File D:\Metin2 Server Files\mainline\SRC_2014\Metin2Client\eterLib\Pool.h
; File C:\Program Files (x86)\Microsoft Visual Studio\2019\Community\VC\Tools\MSVC\14.28.29333\include\vector
; File C:\Program Files (x86)\Microsoft Visual Studio\2019\Community\VC\Tools\MSVC\14.28.29333\include\xmemory
; File C:\Program Files (x86)\Microsoft Visual Studio\2019\Community\VC\Tools\MSVC\14.28.29333\include\vector
; File D:\Metin2 Server Files\mainline\SRC_2014\Metin2Client\eterLib\Pool.h
; File C:\Program Files (x86)\Microsoft Visual Studio\2019\Community\VC\Tools\MSVC\14.28.29333\include\vector
; File C:\Program Files (x86)\Microsoft Visual Studio\2019\Community\VC\Tools\MSVC\14.28.29333\include\xmemory
; File C:\Program Files (x86)\Microsoft Visual Studio\2019\Community\VC\Tools\MSVC\14.28.29333\include\vector
; File D:\Metin2 Server Files\mainline\SRC_2014\Metin2Client\eterLib\Pool.h
;	COMDAT ??0?$CDynamicPoolEx@VCRotationDecorator@NEffectUpdateDecorator@@@@QAE@XZ
_TEXT	SEGMENT
_this$ = -28						; size = 4
_this$ = -24						; size = 4
_this$ = -20						; size = 4
_this$ = -16						; size = 4
_this$1 = -12						; size = 4
_this$2 = -8						; size = 4
_this$ = -4						; size = 4
??0?$CDynamicPoolEx@VCRotationDecorator@NEffectUpdateDecorator@@@@QAE@XZ PROC ; CDynamicPoolEx<NEffectUpdateDecorator::CRotationDecorator>::CDynamicPoolEx<NEffectUpdateDecorator::CRotationDecorator>, COMDAT
; _this$ = ecx

; 126  : 		CDynamicPoolEx()

  00000	55		 push	 ebp
  00001	8b ec		 mov	 ebp, esp
  00003	83 ec 1c	 sub	 esp, 28			; 0000001cH
  00006	89 4d fc	 mov	 DWORD PTR _this$[ebp], ecx

; 127  : 		{

  00009	8b 45 fc	 mov	 eax, DWORD PTR _this$[ebp]
  0000c	c7 00 00 00 00
	00		 mov	 DWORD PTR [eax], OFFSET ??_7?$CDynamicPoolEx@VCRotationDecorator@NEffectUpdateDecorator@@@@6B@
  00012	8b 45 fc	 mov	 eax, DWORD PTR _this$[ebp]
  00015	83 c0 04	 add	 eax, 4
  00018	89 45 f0	 mov	 DWORD PTR _this$[ebp], eax
; File C:\Program Files (x86)\Microsoft Visual Studio\2019\Community\VC\Tools\MSVC\14.28.29333\include\vector

; 445  :     vector() noexcept(is_nothrow_default_constructible_v<_Alty>) : _Mypair(_Zero_then_variadic_args_t{}) {

  0001b	8b 45 f0	 mov	 eax, DWORD PTR _this$[ebp]
  0001e	89 45 ec	 mov	 DWORD PTR _this$[ebp], eax
; File C:\Program Files (x86)\Microsoft Visual Studio\2019\Community\VC\Tools\MSVC\14.28.29333\include\xmemory

; 1339 :         : _Ty1(), _Myval2(_STD forward<_Other2>(_Val2)...) {}

  00021	8b 45 ec	 mov	 eax, DWORD PTR _this$[ebp]
  00024	89 45 f8	 mov	 DWORD PTR _this$2[ebp], eax
; File C:\Program Files (x86)\Microsoft Visual Studio\2019\Community\VC\Tools\MSVC\14.28.29333\include\vector

; 375  :     _Vector_val() noexcept : _Myfirst(), _Mylast(), _Myend() {}

  00027	8b 45 f8	 mov	 eax, DWORD PTR _this$2[ebp]
  0002a	83 20 00	 and	 DWORD PTR [eax], 0
  0002d	8b 45 f8	 mov	 eax, DWORD PTR _this$2[ebp]
  00030	83 60 04 00	 and	 DWORD PTR [eax+4], 0
  00034	8b 45 f8	 mov	 eax, DWORD PTR _this$2[ebp]
  00037	83 60 08 00	 and	 DWORD PTR [eax+8], 0
; File D:\Metin2 Server Files\mainline\SRC_2014\Metin2Client\eterLib\Pool.h

; 127  : 		{

  0003b	8b 45 fc	 mov	 eax, DWORD PTR _this$[ebp]
  0003e	83 c0 10	 add	 eax, 16			; 00000010H
  00041	89 45 e8	 mov	 DWORD PTR _this$[ebp], eax
; File C:\Program Files (x86)\Microsoft Visual Studio\2019\Community\VC\Tools\MSVC\14.28.29333\include\vector

; 445  :     vector() noexcept(is_nothrow_default_constructible_v<_Alty>) : _Mypair(_Zero_then_variadic_args_t{}) {

  00044	8b 45 e8	 mov	 eax, DWORD PTR _this$[ebp]
  00047	89 45 e4	 mov	 DWORD PTR _this$[ebp], eax
; File C:\Program Files (x86)\Microsoft Visual Studio\2019\Community\VC\Tools\MSVC\14.28.29333\include\xmemory

; 1339 :         : _Ty1(), _Myval2(_STD forward<_Other2>(_Val2)...) {}

  0004a	8b 45 e4	 mov	 eax, DWORD PTR _this$[ebp]
  0004d	89 45 f4	 mov	 DWORD PTR _this$1[ebp], eax
; File C:\Program Files (x86)\Microsoft Visual Studio\2019\Community\VC\Tools\MSVC\14.28.29333\include\vector

; 375  :     _Vector_val() noexcept : _Myfirst(), _Mylast(), _Myend() {}

  00050	8b 45 f4	 mov	 eax, DWORD PTR _this$1[ebp]
  00053	83 20 00	 and	 DWORD PTR [eax], 0
  00056	8b 45 f4	 mov	 eax, DWORD PTR _this$1[ebp]
  00059	83 60 04 00	 and	 DWORD PTR [eax+4], 0
  0005d	8b 45 f4	 mov	 eax, DWORD PTR _this$1[ebp]
  00060	83 60 08 00	 and	 DWORD PTR [eax+8], 0
; File D:\Metin2 Server Files\mainline\SRC_2014\Metin2Client\eterLib\Pool.h

; 128  : 			m_uInitCapacity=0;

  00064	8b 45 fc	 mov	 eax, DWORD PTR _this$[ebp]
  00067	83 60 1c 00	 and	 DWORD PTR [eax+28], 0

; 129  : 			m_uUsedCapacity=0;

  0006b	8b 45 fc	 mov	 eax, DWORD PTR _this$[ebp]
  0006e	83 60 20 00	 and	 DWORD PTR [eax+32], 0

; 130  : 		}

  00072	8b 45 fc	 mov	 eax, DWORD PTR _this$[ebp]
  00075	c9		 leave
  00076	c3		 ret	 0
??0?$CDynamicPoolEx@VCRotationDecorator@NEffectUpdateDecorator@@@@QAE@XZ ENDP ; CDynamicPoolEx<NEffectUpdateDecorator::CRotationDecorator>::CDynamicPoolEx<NEffectUpdateDecorator::CRotationDecorator>
_TEXT	ENDS
; Function compile flags: /Odspy
; File D:\Metin2 Server Files\mainline\SRC_2014\Metin2Client\UserInterface\PythonItemModule.cpp
;	COMDAT ?itemLoadItemTable@@YAPAU_object@@PAU1@0@Z
_TEXT	SEGMENT
_szFileName$ = -4					; size = 4
_poSelf$ = 8						; size = 4
_poArgs$ = 12						; size = 4
?itemLoadItemTable@@YAPAU_object@@PAU1@0@Z PROC		; itemLoadItemTable, COMDAT

; 495  : {

  00000	55		 push	 ebp
  00001	8b ec		 mov	 ebp, esp
  00003	51		 push	 ecx

; 496  : 	char * szFileName;
; 497  : 	if (!PyTuple_GetString(poArgs, 0, &szFileName))

  00004	8d 45 fc	 lea	 eax, DWORD PTR _szFileName$[ebp]
  00007	50		 push	 eax
  00008	6a 00		 push	 0
  0000a	ff 75 0c	 push	 DWORD PTR _poArgs$[ebp]
  0000d	e8 00 00 00 00	 call	 ?PyTuple_GetString@@YA_NPAU_object@@HPAPAD@Z ; PyTuple_GetString
  00012	83 c4 0c	 add	 esp, 12			; 0000000cH
  00015	0f b6 c0	 movzx	 eax, al
  00018	85 c0		 test	 eax, eax
  0001a	75 07		 jne	 SHORT $LN4@itemLoadIt

; 498  : 		return Py_BadArgument();

  0001c	e8 00 00 00 00	 call	 ?Py_BadArgument@@YAPAU_object@@XZ ; Py_BadArgument
  00021	eb 13		 jmp	 SHORT $LN1@itemLoadIt
$LN4@itemLoadIt:

; 499  : 
; 500  : 	CItemManager::Instance().LoadItemTable(szFileName);

  00023	ff 75 fc	 push	 DWORD PTR _szFileName$[ebp]
  00026	8b 0d 00 00 00
	00		 mov	 ecx, DWORD PTR ?ms_singleton@?$CSingleton@VCItemManager@@@@0PAVCItemManager@@A ; CSingleton<CItemManager>::ms_singleton
  0002c	e8 00 00 00 00	 call	 ?LoadItemTable@CItemManager@@QAE_NPBD@Z ; CItemManager::LoadItemTable

; 501  : 	return Py_BuildNone();

  00031	e8 00 00 00 00	 call	 ?Py_BuildNone@@YAPAU_object@@XZ ; Py_BuildNone
$LN1@itemLoadIt:

; 502  : }

  00036	c9		 leave
  00037	c3		 ret	 0
?itemLoadItemTable@@YAPAU_object@@PAU1@0@Z ENDP		; itemLoadItemTable
_TEXT	ENDS
; Function compile flags: /Odspy
; File D:\Metin2 Server Files\mainline\SRC_2014\Metin2Client\UserInterface\PythonItemModule.cpp
; File D:\Metin2 Server Files\mainline\SRC_2014\Metin2Client\eterBase\Singleton.h
; File D:\Metin2 Server Files\mainline\SRC_2014\Metin2Client\UserInterface\PythonItemModule.cpp
;	COMDAT ?itemPick@@YAPAU_object@@PAU1@0@Z
_TEXT	SEGMENT
_dwItemID$ = -8						; size = 4
$T1 = -4						; size = 4
_poSelf$ = 8						; size = 4
_poArgs$ = 12						; size = 4
?itemPick@@YAPAU_object@@PAU1@0@Z PROC			; itemPick, COMDAT

; 486  : {

  00000	55		 push	 ebp
  00001	8b ec		 mov	 ebp, esp
  00003	51		 push	 ecx
  00004	51		 push	 ecx
; File D:\Metin2 Server Files\mainline\SRC_2014\Metin2Client\eterBase\Singleton.h

; 27   : 		return (*ms_singleton);

  00005	a1 00 00 00 00	 mov	 eax, DWORD PTR ?ms_singleton@?$CSingleton@VCPythonItem@@@@0PAVCPythonItem@@A ; CSingleton<CPythonItem>::ms_singleton
  0000a	89 45 fc	 mov	 DWORD PTR $T1[ebp], eax
; File D:\Metin2 Server Files\mainline\SRC_2014\Metin2Client\UserInterface\PythonItemModule.cpp

; 488  : 	if (CPythonItem::Instance().GetPickedItemID(&dwItemID))

  0000d	8d 45 f8	 lea	 eax, DWORD PTR _dwItemID$[ebp]
  00010	50		 push	 eax
  00011	8b 4d fc	 mov	 ecx, DWORD PTR $T1[ebp]
  00014	e8 00 00 00 00	 call	 ?GetPickedItemID@CPythonItem@@QAE_NPAK@Z ; CPythonItem::GetPickedItemID
  00019	0f b6 c0	 movzx	 eax, al
  0001c	85 c0		 test	 eax, eax
  0001e	74 14		 je	 SHORT $LN2@itemPick

; 489  : 		return Py_BuildValue("i", dwItemID);

  00020	ff 75 f8	 push	 DWORD PTR _dwItemID$[ebp]
  00023	68 00 00 00 00	 push	 OFFSET ??_C@_01KBJDNOO@i@
  00028	ff 15 00 00 00
	00		 call	 DWORD PTR __imp__Py_BuildValue
  0002e	59		 pop	 ecx
  0002f	59		 pop	 ecx
  00030	eb 11		 jmp	 SHORT $LN1@itemPick
  00032	eb 0f		 jmp	 SHORT $LN1@itemPick
$LN2@itemPick:

; 490  : 	else
; 491  : 		return Py_BuildValue("i", -1);

  00034	6a ff		 push	 -1
  00036	68 00 00 00 00	 push	 OFFSET ??_C@_01KBJDNOO@i@
  0003b	ff 15 00 00 00
	00		 call	 DWORD PTR __imp__Py_BuildValue
  00041	59		 pop	 ecx
  00042	59		 pop	 ecx
$LN1@itemPick:

; 492  : }

  00043	c9		 leave
  00044	c3		 ret	 0
?itemPick@@YAPAU_object@@PAU1@0@Z ENDP			; itemPick
_TEXT	ENDS
; Function compile flags: /Odspy
; File D:\Metin2 Server Files\mainline\SRC_2014\Metin2Client\UserInterface\PythonItemModule.cpp
;	COMDAT ?itemDeleteItem@@YAPAU_object@@PAU1@0@Z
_TEXT	SEGMENT
_iVirtualID$ = -4					; size = 4
_poSelf$ = 8						; size = 4
_poArgs$ = 12						; size = 4
?itemDeleteItem@@YAPAU_object@@PAU1@0@Z PROC		; itemDeleteItem, COMDAT

; 476  : {

  00000	55		 push	 ebp
  00001	8b ec		 mov	 ebp, esp
  00003	51		 push	 ecx

; 477  : 	int iVirtualID;
; 478  : 	if (!PyTuple_GetInteger(poArgs, 0, &iVirtualID))

  00004	8d 45 fc	 lea	 eax, DWORD PTR _iVirtualID$[ebp]
  00007	50		 push	 eax
  00008	6a 00		 push	 0
  0000a	ff 75 0c	 push	 DWORD PTR _poArgs$[ebp]
  0000d	e8 00 00 00 00	 call	 ?PyTuple_GetInteger@@YA_NPAU_object@@HPAH@Z ; PyTuple_GetInteger
  00012	83 c4 0c	 add	 esp, 12			; 0000000cH
  00015	0f b6 c0	 movzx	 eax, al
  00018	85 c0		 test	 eax, eax
  0001a	75 07		 jne	 SHORT $LN4@itemDelete

; 479  : 		return Py_BadArgument();

  0001c	e8 00 00 00 00	 call	 ?Py_BadArgument@@YAPAU_object@@XZ ; Py_BadArgument
  00021	eb 13		 jmp	 SHORT $LN1@itemDelete
$LN4@itemDelete:

; 480  : 
; 481  : 	CPythonItem::Instance().DeleteItem(iVirtualID);

  00023	ff 75 fc	 push	 DWORD PTR _iVirtualID$[ebp]
  00026	8b 0d 00 00 00
	00		 mov	 ecx, DWORD PTR ?ms_singleton@?$CSingleton@VCPythonItem@@@@0PAVCPythonItem@@A ; CSingleton<CPythonItem>::ms_singleton
  0002c	e8 00 00 00 00	 call	 ?DeleteItem@CPythonItem@@QAEXK@Z ; CPythonItem::DeleteItem

; 482  : 	return Py_BuildNone();

  00031	e8 00 00 00 00	 call	 ?Py_BuildNone@@YAPAU_object@@XZ ; Py_BuildNone
$LN1@itemDelete:

; 483  : }

  00036	c9		 leave
  00037	c3		 ret	 0
?itemDeleteItem@@YAPAU_object@@PAU1@0@Z ENDP		; itemDeleteItem
_TEXT	ENDS
; Function compile flags: /Odspy
; File D:\Metin2 Server Files\mainline\SRC_2014\Metin2Client\UserInterface\PythonItemModule.cpp
;	COMDAT ?itemCreateItem@@YAPAU_object@@PAU1@0@Z
_TEXT	SEGMENT
_iVirtualID$ = -24					; size = 4
_iVirtualNumber$ = -20					; size = 4
_x$ = -16						; size = 4
_y$ = -12						; size = 4
_z$ = -8						; size = 4
_bDrop$ = -4						; size = 1
_poSelf$ = 8						; size = 4
_poArgs$ = 12						; size = 4
?itemCreateItem@@YAPAU_object@@PAU1@0@Z PROC		; itemCreateItem, COMDAT

; 449  : {

  00000	55		 push	 ebp
  00001	8b ec		 mov	 ebp, esp
  00003	83 ec 18	 sub	 esp, 24			; 00000018H

; 450  : 	int iVirtualID;
; 451  : 	if (!PyTuple_GetInteger(poArgs, 0, &iVirtualID))

  00006	8d 45 e8	 lea	 eax, DWORD PTR _iVirtualID$[ebp]
  00009	50		 push	 eax
  0000a	6a 00		 push	 0
  0000c	ff 75 0c	 push	 DWORD PTR _poArgs$[ebp]
  0000f	e8 00 00 00 00	 call	 ?PyTuple_GetInteger@@YA_NPAU_object@@HPAH@Z ; PyTuple_GetInteger
  00014	83 c4 0c	 add	 esp, 12			; 0000000cH
  00017	0f b6 c0	 movzx	 eax, al
  0001a	85 c0		 test	 eax, eax
  0001c	75 0a		 jne	 SHORT $LN2@itemCreate

; 452  : 		return Py_BadArgument();

  0001e	e8 00 00 00 00	 call	 ?Py_BadArgument@@YAPAU_object@@XZ ; Py_BadArgument
  00023	e9 d1 00 00 00	 jmp	 $LN1@itemCreate
$LN2@itemCreate:

; 453  : 	int iVirtualNumber;
; 454  : 	if (!PyTuple_GetInteger(poArgs, 1, &iVirtualNumber))

  00028	8d 45 ec	 lea	 eax, DWORD PTR _iVirtualNumber$[ebp]
  0002b	50		 push	 eax
  0002c	6a 01		 push	 1
  0002e	ff 75 0c	 push	 DWORD PTR _poArgs$[ebp]
  00031	e8 00 00 00 00	 call	 ?PyTuple_GetInteger@@YA_NPAU_object@@HPAH@Z ; PyTuple_GetInteger
  00036	83 c4 0c	 add	 esp, 12			; 0000000cH
  00039	0f b6 c0	 movzx	 eax, al
  0003c	85 c0		 test	 eax, eax
  0003e	75 0a		 jne	 SHORT $LN3@itemCreate

; 455  : 		return Py_BadArgument();

  00040	e8 00 00 00 00	 call	 ?Py_BadArgument@@YAPAU_object@@XZ ; Py_BadArgument
  00045	e9 af 00 00 00	 jmp	 $LN1@itemCreate
$LN3@itemCreate:

; 456  : 
; 457  : 	float x;
; 458  : 	if (!PyTuple_GetFloat(poArgs, 2, &x))

  0004a	8d 45 f0	 lea	 eax, DWORD PTR _x$[ebp]
  0004d	50		 push	 eax
  0004e	6a 02		 push	 2
  00050	ff 75 0c	 push	 DWORD PTR _poArgs$[ebp]
  00053	e8 00 00 00 00	 call	 ?PyTuple_GetFloat@@YA_NPAU_object@@HPAM@Z ; PyTuple_GetFloat
  00058	83 c4 0c	 add	 esp, 12			; 0000000cH
  0005b	0f b6 c0	 movzx	 eax, al
  0005e	85 c0		 test	 eax, eax
  00060	75 0a		 jne	 SHORT $LN4@itemCreate

; 459  : 		return Py_BadArgument();

  00062	e8 00 00 00 00	 call	 ?Py_BadArgument@@YAPAU_object@@XZ ; Py_BadArgument
  00067	e9 8d 00 00 00	 jmp	 $LN1@itemCreate
$LN4@itemCreate:

; 460  : 	float y;
; 461  : 	if (!PyTuple_GetFloat(poArgs, 3, &y))

  0006c	8d 45 f4	 lea	 eax, DWORD PTR _y$[ebp]
  0006f	50		 push	 eax
  00070	6a 03		 push	 3
  00072	ff 75 0c	 push	 DWORD PTR _poArgs$[ebp]
  00075	e8 00 00 00 00	 call	 ?PyTuple_GetFloat@@YA_NPAU_object@@HPAM@Z ; PyTuple_GetFloat
  0007a	83 c4 0c	 add	 esp, 12			; 0000000cH
  0007d	0f b6 c0	 movzx	 eax, al
  00080	85 c0		 test	 eax, eax
  00082	75 07		 jne	 SHORT $LN5@itemCreate

; 462  : 		return Py_BadArgument();

  00084	e8 00 00 00 00	 call	 ?Py_BadArgument@@YAPAU_object@@XZ ; Py_BadArgument
  00089	eb 6e		 jmp	 SHORT $LN1@itemCreate
$LN5@itemCreate:

; 463  : 	float z;
; 464  : 	if (!PyTuple_GetFloat(poArgs, 4, &z))

  0008b	8d 45 f8	 lea	 eax, DWORD PTR _z$[ebp]
  0008e	50		 push	 eax
  0008f	6a 04		 push	 4
  00091	ff 75 0c	 push	 DWORD PTR _poArgs$[ebp]
  00094	e8 00 00 00 00	 call	 ?PyTuple_GetFloat@@YA_NPAU_object@@HPAM@Z ; PyTuple_GetFloat
  00099	83 c4 0c	 add	 esp, 12			; 0000000cH
  0009c	0f b6 c0	 movzx	 eax, al
  0009f	85 c0		 test	 eax, eax
  000a1	75 07		 jne	 SHORT $LN6@itemCreate

; 465  : 		return Py_BadArgument();

  000a3	e8 00 00 00 00	 call	 ?Py_BadArgument@@YAPAU_object@@XZ ; Py_BadArgument
  000a8	eb 4f		 jmp	 SHORT $LN1@itemCreate
$LN6@itemCreate:

; 466  : 	
; 467  : 	bool bDrop = true;

  000aa	c6 45 fc 01	 mov	 BYTE PTR _bDrop$[ebp], 1

; 468  : 	PyTuple_GetBoolean(poArgs, 5, &bDrop);

  000ae	8d 45 fc	 lea	 eax, DWORD PTR _bDrop$[ebp]
  000b1	50		 push	 eax
  000b2	6a 05		 push	 5
  000b4	ff 75 0c	 push	 DWORD PTR _poArgs$[ebp]
  000b7	e8 00 00 00 00	 call	 ?PyTuple_GetBoolean@@YA_NPAU_object@@HPA_N@Z ; PyTuple_GetBoolean
  000bc	83 c4 0c	 add	 esp, 12			; 0000000cH

; 469  : 
; 470  : 	CPythonItem::Instance().CreateItem(iVirtualID, iVirtualNumber, x, y, z, bDrop);

  000bf	ff 75 fc	 push	 DWORD PTR _bDrop$[ebp]
  000c2	51		 push	 ecx
  000c3	f3 0f 10 45 f8	 movss	 xmm0, DWORD PTR _z$[ebp]
  000c8	f3 0f 11 04 24	 movss	 DWORD PTR [esp], xmm0
  000cd	51		 push	 ecx
  000ce	f3 0f 10 45 f4	 movss	 xmm0, DWORD PTR _y$[ebp]
  000d3	f3 0f 11 04 24	 movss	 DWORD PTR [esp], xmm0
  000d8	51		 push	 ecx
  000d9	f3 0f 10 45 f0	 movss	 xmm0, DWORD PTR _x$[ebp]
  000de	f3 0f 11 04 24	 movss	 DWORD PTR [esp], xmm0
  000e3	ff 75 ec	 push	 DWORD PTR _iVirtualNumber$[ebp]
  000e6	ff 75 e8	 push	 DWORD PTR _iVirtualID$[ebp]
  000e9	8b 0d 00 00 00
	00		 mov	 ecx, DWORD PTR ?ms_singleton@?$CSingleton@VCPythonItem@@@@0PAVCPythonItem@@A ; CSingleton<CPythonItem>::ms_singleton
  000ef	e8 00 00 00 00	 call	 ?CreateItem@CPythonItem@@QAEXKKMMM_N@Z ; CPythonItem::CreateItem

; 471  : 
; 472  : 	return Py_BuildNone();

  000f4	e8 00 00 00 00	 call	 ?Py_BuildNone@@YAPAU_object@@XZ ; Py_BuildNone
$LN1@itemCreate:

; 473  : }

  000f9	c9		 leave
  000fa	c3		 ret	 0
?itemCreateItem@@YAPAU_object@@PAU1@0@Z ENDP		; itemCreateItem
_TEXT	ENDS
; Function compile flags: /Odspy
; File D:\Metin2 Server Files\mainline\SRC_2014\Metin2Client\UserInterface\PythonItemModule.cpp
;	COMDAT ?itemUpdate@@YAPAU_object@@PAU1@0@Z
_TEXT	SEGMENT
_ptMouse$ = -12						; size = 8
_rkApp$ = -4						; size = 4
_poSelf$ = 8						; size = 4
_poArgs$ = 12						; size = 4
?itemUpdate@@YAPAU_object@@PAU1@0@Z PROC		; itemUpdate, COMDAT

; 438  : {

  00000	55		 push	 ebp
  00001	8b ec		 mov	 ebp, esp
  00003	83 ec 0c	 sub	 esp, 12			; 0000000cH

; 439  : 	IAbstractApplication& rkApp=IAbstractApplication::GetSingleton();

  00006	a1 00 00 00 00	 mov	 eax, DWORD PTR ?ms_singleton@?$TAbstractSingleton@VIAbstractApplication@@@@0PAVIAbstractApplication@@A ; TAbstractSingleton<IAbstractApplication>::ms_singleton
  0000b	89 45 fc	 mov	 DWORD PTR _rkApp$[ebp], eax

; 440  : 
; 441  : 	POINT ptMouse;
; 442  : 	rkApp.GetMousePosition(&ptMouse);	

  0000e	8d 45 f4	 lea	 eax, DWORD PTR _ptMouse$[ebp]
  00011	50		 push	 eax
  00012	8b 45 fc	 mov	 eax, DWORD PTR _rkApp$[ebp]
  00015	8b 00		 mov	 eax, DWORD PTR [eax]
  00017	8b 4d fc	 mov	 ecx, DWORD PTR _rkApp$[ebp]
  0001a	ff 50 04	 call	 DWORD PTR [eax+4]

; 443  : 
; 444  : 	CPythonItem::Instance().Update(ptMouse);

  0001d	8d 45 f4	 lea	 eax, DWORD PTR _ptMouse$[ebp]
  00020	50		 push	 eax
  00021	8b 0d 00 00 00
	00		 mov	 ecx, DWORD PTR ?ms_singleton@?$CSingleton@VCPythonItem@@@@0PAVCPythonItem@@A ; CSingleton<CPythonItem>::ms_singleton
  00027	e8 00 00 00 00	 call	 ?Update@CPythonItem@@QAEXABUtagPOINT@@@Z ; CPythonItem::Update

; 445  : 	return Py_BuildNone();

  0002c	e8 00 00 00 00	 call	 ?Py_BuildNone@@YAPAU_object@@XZ ; Py_BuildNone

; 446  : }

  00031	c9		 leave
  00032	c3		 ret	 0
?itemUpdate@@YAPAU_object@@PAU1@0@Z ENDP		; itemUpdate
_TEXT	ENDS
; Function compile flags: /Odspy
; File D:\Metin2 Server Files\mainline\SRC_2014\Metin2Client\UserInterface\PythonItemModule.cpp
;	COMDAT ?itemRender@@YAPAU_object@@PAU1@0@Z
_TEXT	SEGMENT
_poSelf$ = 8						; size = 4
_poArgs$ = 12						; size = 4
?itemRender@@YAPAU_object@@PAU1@0@Z PROC		; itemRender, COMDAT

; 432  : {

  00000	55		 push	 ebp
  00001	8b ec		 mov	 ebp, esp

; 433  : 	CPythonItem::Instance().Render();

  00003	8b 0d 00 00 00
	00		 mov	 ecx, DWORD PTR ?ms_singleton@?$CSingleton@VCPythonItem@@@@0PAVCPythonItem@@A ; CSingleton<CPythonItem>::ms_singleton
  00009	e8 00 00 00 00	 call	 ?Render@CPythonItem@@QAEXXZ ; CPythonItem::Render

; 434  : 	return Py_BuildNone();

  0000e	e8 00 00 00 00	 call	 ?Py_BuildNone@@YAPAU_object@@XZ ; Py_BuildNone

; 435  : }

  00013	5d		 pop	 ebp
  00014	c3		 ret	 0
?itemRender@@YAPAU_object@@PAU1@0@Z ENDP		; itemRender
_TEXT	ENDS
; Function compile flags: /Odspy
; File D:\Metin2 Server Files\mainline\SRC_2014\Metin2Client\UserInterface\PythonItemModule.cpp
; File D:\Metin2 Server Files\mainline\SRC_2014\Metin2Client\eterBase\Singleton.h
; File D:\Metin2 Server Files\mainline\SRC_2014\Metin2Client\UserInterface\PythonItemModule.cpp
;	COMDAT ?itemIsMetin@@YAPAU_object@@PAU1@0@Z
_TEXT	SEGMENT
$T1 = -12						; size = 4
_iItemIndex$ = -8					; size = 4
_pItemData$ = -4					; size = 4
_poSelf$ = 8						; size = 4
_poArgs$ = 12						; size = 4
?itemIsMetin@@YAPAU_object@@PAU1@0@Z PROC		; itemIsMetin, COMDAT

; 413  : {

  00000	55		 push	 ebp
  00001	8b ec		 mov	 ebp, esp
  00003	83 ec 0c	 sub	 esp, 12			; 0000000cH

; 414  : 	int iItemIndex;
; 415  : 	if (!PyTuple_GetInteger(poArgs, 0, &iItemIndex))

  00006	8d 45 f8	 lea	 eax, DWORD PTR _iItemIndex$[ebp]
  00009	50		 push	 eax
  0000a	6a 00		 push	 0
  0000c	ff 75 0c	 push	 DWORD PTR _poArgs$[ebp]
  0000f	e8 00 00 00 00	 call	 ?PyTuple_GetInteger@@YA_NPAU_object@@HPAH@Z ; PyTuple_GetInteger
  00014	83 c4 0c	 add	 esp, 12			; 0000000cH
  00017	0f b6 c0	 movzx	 eax, al
  0001a	85 c0		 test	 eax, eax
  0001c	75 07		 jne	 SHORT $LN6@itemIsMeti

; 416  : 		return Py_BadArgument();

  0001e	e8 00 00 00 00	 call	 ?Py_BadArgument@@YAPAU_object@@XZ ; Py_BadArgument
  00023	eb 64		 jmp	 SHORT $LN1@itemIsMeti
$LN6@itemIsMeti:

; 417  : 
; 418  : 	CItemManager::Instance().SelectItemData(iItemIndex);

  00025	ff 75 f8	 push	 DWORD PTR _iItemIndex$[ebp]
  00028	8b 0d 00 00 00
	00		 mov	 ecx, DWORD PTR ?ms_singleton@?$CSingleton@VCItemManager@@@@0PAVCItemManager@@A ; CSingleton<CItemManager>::ms_singleton
  0002e	e8 00 00 00 00	 call	 ?SelectItemData@CItemManager@@QAEHK@Z ; CItemManager::SelectItemData
; File D:\Metin2 Server Files\mainline\SRC_2014\Metin2Client\eterBase\Singleton.h

; 27   : 		return (*ms_singleton);

  00033	a1 00 00 00 00	 mov	 eax, DWORD PTR ?ms_singleton@?$CSingleton@VCItemManager@@@@0PAVCItemManager@@A ; CSingleton<CItemManager>::ms_singleton
  00038	89 45 f4	 mov	 DWORD PTR $T1[ebp], eax
; File D:\Metin2 Server Files\mainline\SRC_2014\Metin2Client\UserInterface\PythonItemModule.cpp

; 419  : 	CItemData * pItemData = CItemManager::Instance().GetSelectedItemDataPointer();

  0003b	8b 4d f4	 mov	 ecx, DWORD PTR $T1[ebp]
  0003e	e8 00 00 00 00	 call	 ?GetSelectedItemDataPointer@CItemManager@@QAEPAVCItemData@@XZ ; CItemManager::GetSelectedItemDataPointer
  00043	89 45 fc	 mov	 DWORD PTR _pItemData$[ebp], eax

; 420  : 	if (!pItemData)

  00046	83 7d fc 00	 cmp	 DWORD PTR _pItemData$[ebp], 0
  0004a	75 0d		 jne	 SHORT $LN3@itemIsMeti

; 421  : 		return Py_BuildException("Can't find select item data");

  0004c	68 00 00 00 00	 push	 OFFSET ??_C@_0BM@KPLEGEEH@Can?8t?5find?5select?5item?5data@
  00051	e8 00 00 00 00	 call	 ?Py_BuildException@@YAPAU_object@@PBDZZ ; Py_BuildException
  00056	59		 pop	 ecx
  00057	eb 30		 jmp	 SHORT $LN1@itemIsMeti
$LN3@itemIsMeti:

; 422  : 
; 423  : 	if (CItemData::ITEM_TYPE_METIN == pItemData->GetType())

  00059	8b 4d fc	 mov	 ecx, DWORD PTR _pItemData$[ebp]
  0005c	e8 00 00 00 00	 call	 ?GetType@CItemData@@QBEEXZ ; CItemData::GetType
  00061	0f b6 c0	 movzx	 eax, al
  00064	83 f8 0a	 cmp	 eax, 10			; 0000000aH
  00067	75 11		 jne	 SHORT $LN4@itemIsMeti

; 424  : 	{
; 425  : 		return Py_BuildValue("i", TRUE);

  00069	6a 01		 push	 1
  0006b	68 00 00 00 00	 push	 OFFSET ??_C@_01KBJDNOO@i@
  00070	ff 15 00 00 00
	00		 call	 DWORD PTR __imp__Py_BuildValue
  00076	59		 pop	 ecx
  00077	59		 pop	 ecx
  00078	eb 0f		 jmp	 SHORT $LN1@itemIsMeti
$LN4@itemIsMeti:

; 426  : 	}
; 427  : 
; 428  : 	return Py_BuildValue("i", FALSE);

  0007a	6a 00		 push	 0
  0007c	68 00 00 00 00	 push	 OFFSET ??_C@_01KBJDNOO@i@
  00081	ff 15 00 00 00
	00		 call	 DWORD PTR __imp__Py_BuildValue
  00087	59		 pop	 ecx
  00088	59		 pop	 ecx
$LN1@itemIsMeti:

; 429  : }

  00089	c9		 leave
  0008a	c3		 ret	 0
?itemIsMetin@@YAPAU_object@@PAU1@0@Z ENDP		; itemIsMetin
_TEXT	ENDS
; Function compile flags: /Odspy
; File D:\Metin2 Server Files\mainline\SRC_2014\Metin2Client\UserInterface\PythonItemModule.cpp
; File D:\Metin2 Server Files\mainline\SRC_2014\Metin2Client\eterBase\Singleton.h
; File D:\Metin2 Server Files\mainline\SRC_2014\Metin2Client\UserInterface\PythonItemModule.cpp
;	COMDAT ?itemIsKey@@YAPAU_object@@PAU1@0@Z
_TEXT	SEGMENT
$T1 = -12						; size = 4
_iItemIndex$ = -8					; size = 4
_pItemData$ = -4					; size = 4
_poSelf$ = 8						; size = 4
_poArgs$ = 12						; size = 4
?itemIsKey@@YAPAU_object@@PAU1@0@Z PROC			; itemIsKey, COMDAT

; 394  : {

  00000	55		 push	 ebp
  00001	8b ec		 mov	 ebp, esp
  00003	83 ec 0c	 sub	 esp, 12			; 0000000cH

; 395  : 	int iItemIndex;
; 396  : 	if (!PyTuple_GetInteger(poArgs, 0, &iItemIndex))

  00006	8d 45 f8	 lea	 eax, DWORD PTR _iItemIndex$[ebp]
  00009	50		 push	 eax
  0000a	6a 00		 push	 0
  0000c	ff 75 0c	 push	 DWORD PTR _poArgs$[ebp]
  0000f	e8 00 00 00 00	 call	 ?PyTuple_GetInteger@@YA_NPAU_object@@HPAH@Z ; PyTuple_GetInteger
  00014	83 c4 0c	 add	 esp, 12			; 0000000cH
  00017	0f b6 c0	 movzx	 eax, al
  0001a	85 c0		 test	 eax, eax
  0001c	75 07		 jne	 SHORT $LN6@itemIsKey

; 397  : 		return Py_BadArgument();

  0001e	e8 00 00 00 00	 call	 ?Py_BadArgument@@YAPAU_object@@XZ ; Py_BadArgument
  00023	eb 64		 jmp	 SHORT $LN1@itemIsKey
$LN6@itemIsKey:

; 398  : 
; 399  : 	CItemManager::Instance().SelectItemData(iItemIndex);

  00025	ff 75 f8	 push	 DWORD PTR _iItemIndex$[ebp]
  00028	8b 0d 00 00 00
	00		 mov	 ecx, DWORD PTR ?ms_singleton@?$CSingleton@VCItemManager@@@@0PAVCItemManager@@A ; CSingleton<CItemManager>::ms_singleton
  0002e	e8 00 00 00 00	 call	 ?SelectItemData@CItemManager@@QAEHK@Z ; CItemManager::SelectItemData
; File D:\Metin2 Server Files\mainline\SRC_2014\Metin2Client\eterBase\Singleton.h

; 27   : 		return (*ms_singleton);

  00033	a1 00 00 00 00	 mov	 eax, DWORD PTR ?ms_singleton@?$CSingleton@VCItemManager@@@@0PAVCItemManager@@A ; CSingleton<CItemManager>::ms_singleton
  00038	89 45 f4	 mov	 DWORD PTR $T1[ebp], eax
; File D:\Metin2 Server Files\mainline\SRC_2014\Metin2Client\UserInterface\PythonItemModule.cpp

; 400  : 	CItemData * pItemData = CItemManager::Instance().GetSelectedItemDataPointer();

  0003b	8b 4d f4	 mov	 ecx, DWORD PTR $T1[ebp]
  0003e	e8 00 00 00 00	 call	 ?GetSelectedItemDataPointer@CItemManager@@QAEPAVCItemData@@XZ ; CItemManager::GetSelectedItemDataPointer
  00043	89 45 fc	 mov	 DWORD PTR _pItemData$[ebp], eax

; 401  : 	if (!pItemData)

  00046	83 7d fc 00	 cmp	 DWORD PTR _pItemData$[ebp], 0
  0004a	75 0d		 jne	 SHORT $LN3@itemIsKey

; 402  : 		return Py_BuildException("Can't find select item data");

  0004c	68 00 00 00 00	 push	 OFFSET ??_C@_0BM@KPLEGEEH@Can?8t?5find?5select?5item?5data@
  00051	e8 00 00 00 00	 call	 ?Py_BuildException@@YAPAU_object@@PBDZZ ; Py_BuildException
  00056	59		 pop	 ecx
  00057	eb 30		 jmp	 SHORT $LN1@itemIsKey
$LN3@itemIsKey:

; 403  : 
; 404  : 	if (CItemData::ITEM_TYPE_TREASURE_KEY == pItemData->GetType())

  00059	8b 4d fc	 mov	 ecx, DWORD PTR _pItemData$[ebp]
  0005c	e8 00 00 00 00	 call	 ?GetType@CItemData@@QBEEXZ ; CItemData::GetType
  00061	0f b6 c0	 movzx	 eax, al
  00064	83 f8 15	 cmp	 eax, 21			; 00000015H
  00067	75 11		 jne	 SHORT $LN4@itemIsKey

; 405  : 	{
; 406  : 		return Py_BuildValue("i", TRUE);

  00069	6a 01		 push	 1
  0006b	68 00 00 00 00	 push	 OFFSET ??_C@_01KBJDNOO@i@
  00070	ff 15 00 00 00
	00		 call	 DWORD PTR __imp__Py_BuildValue
  00076	59		 pop	 ecx
  00077	59		 pop	 ecx
  00078	eb 0f		 jmp	 SHORT $LN1@itemIsKey
$LN4@itemIsKey:

; 407  : 	}
; 408  : 
; 409  : 	return Py_BuildValue("i", FALSE);

  0007a	6a 00		 push	 0
  0007c	68 00 00 00 00	 push	 OFFSET ??_C@_01KBJDNOO@i@
  00081	ff 15 00 00 00
	00		 call	 DWORD PTR __imp__Py_BuildValue
  00087	59		 pop	 ecx
  00088	59		 pop	 ecx
$LN1@itemIsKey:

; 410  : }

  00089	c9		 leave
  0008a	c3		 ret	 0
?itemIsKey@@YAPAU_object@@PAU1@0@Z ENDP			; itemIsKey
_TEXT	ENDS
; Function compile flags: /Odspy
; File D:\Metin2 Server Files\mainline\SRC_2014\Metin2Client\UserInterface\PythonItemModule.cpp
; File D:\Metin2 Server Files\mainline\SRC_2014\Metin2Client\eterBase\Singleton.h
; File D:\Metin2 Server Files\mainline\SRC_2014\Metin2Client\UserInterface\PythonItemModule.cpp
;	COMDAT ?itemCanAddToQuickSlotItem@@YAPAU_object@@PAU1@0@Z
_TEXT	SEGMENT
$T1 = -12						; size = 4
_iItemIndex$ = -8					; size = 4
_pItemData$ = -4					; size = 4
_poSelf$ = 8						; size = 4
_poArgs$ = 12						; size = 4
?itemCanAddToQuickSlotItem@@YAPAU_object@@PAU1@0@Z PROC	; itemCanAddToQuickSlotItem, COMDAT

; 375  : {

  00000	55		 push	 ebp
  00001	8b ec		 mov	 ebp, esp
  00003	83 ec 0c	 sub	 esp, 12			; 0000000cH

; 376  : 	int iItemIndex;
; 377  : 	if (!PyTuple_GetInteger(poArgs, 0, &iItemIndex))

  00006	8d 45 f8	 lea	 eax, DWORD PTR _iItemIndex$[ebp]
  00009	50		 push	 eax
  0000a	6a 00		 push	 0
  0000c	ff 75 0c	 push	 DWORD PTR _poArgs$[ebp]
  0000f	e8 00 00 00 00	 call	 ?PyTuple_GetInteger@@YA_NPAU_object@@HPAH@Z ; PyTuple_GetInteger
  00014	83 c4 0c	 add	 esp, 12			; 0000000cH
  00017	0f b6 c0	 movzx	 eax, al
  0001a	85 c0		 test	 eax, eax
  0001c	75 07		 jne	 SHORT $LN7@itemCanAdd

; 378  : 		return Py_BadArgument();

  0001e	e8 00 00 00 00	 call	 ?Py_BadArgument@@YAPAU_object@@XZ ; Py_BadArgument
  00023	eb 74		 jmp	 SHORT $LN1@itemCanAdd
$LN7@itemCanAdd:

; 379  : 
; 380  : 	CItemManager::Instance().SelectItemData(iItemIndex);

  00025	ff 75 f8	 push	 DWORD PTR _iItemIndex$[ebp]
  00028	8b 0d 00 00 00
	00		 mov	 ecx, DWORD PTR ?ms_singleton@?$CSingleton@VCItemManager@@@@0PAVCItemManager@@A ; CSingleton<CItemManager>::ms_singleton
  0002e	e8 00 00 00 00	 call	 ?SelectItemData@CItemManager@@QAEHK@Z ; CItemManager::SelectItemData
; File D:\Metin2 Server Files\mainline\SRC_2014\Metin2Client\eterBase\Singleton.h

; 27   : 		return (*ms_singleton);

  00033	a1 00 00 00 00	 mov	 eax, DWORD PTR ?ms_singleton@?$CSingleton@VCItemManager@@@@0PAVCItemManager@@A ; CSingleton<CItemManager>::ms_singleton
  00038	89 45 f4	 mov	 DWORD PTR $T1[ebp], eax
; File D:\Metin2 Server Files\mainline\SRC_2014\Metin2Client\UserInterface\PythonItemModule.cpp

; 381  : 	CItemData * pItemData = CItemManager::Instance().GetSelectedItemDataPointer();

  0003b	8b 4d f4	 mov	 ecx, DWORD PTR $T1[ebp]
  0003e	e8 00 00 00 00	 call	 ?GetSelectedItemDataPointer@CItemManager@@QAEPAVCItemData@@XZ ; CItemManager::GetSelectedItemDataPointer
  00043	89 45 fc	 mov	 DWORD PTR _pItemData$[ebp], eax

; 382  : 	if (!pItemData)

  00046	83 7d fc 00	 cmp	 DWORD PTR _pItemData$[ebp], 0
  0004a	75 0d		 jne	 SHORT $LN3@itemCanAdd

; 383  : 		return Py_BuildException("Can't find select item data");

  0004c	68 00 00 00 00	 push	 OFFSET ??_C@_0BM@KPLEGEEH@Can?8t?5find?5select?5item?5data@
  00051	e8 00 00 00 00	 call	 ?Py_BuildException@@YAPAU_object@@PBDZZ ; Py_BuildException
  00056	59		 pop	 ecx
  00057	eb 40		 jmp	 SHORT $LN1@itemCanAdd
$LN3@itemCanAdd:

; 384  : 
; 385  : 	if (CItemData::ITEM_TYPE_USE == pItemData->GetType() || CItemData::ITEM_TYPE_QUEST == pItemData->GetType())

  00059	8b 4d fc	 mov	 ecx, DWORD PTR _pItemData$[ebp]
  0005c	e8 00 00 00 00	 call	 ?GetType@CItemData@@QBEEXZ ; CItemData::GetType
  00061	0f b6 c0	 movzx	 eax, al
  00064	83 f8 03	 cmp	 eax, 3
  00067	74 10		 je	 SHORT $LN5@itemCanAdd
  00069	8b 4d fc	 mov	 ecx, DWORD PTR _pItemData$[ebp]
  0006c	e8 00 00 00 00	 call	 ?GetType@CItemData@@QBEEXZ ; CItemData::GetType
  00071	0f b6 c0	 movzx	 eax, al
  00074	83 f8 12	 cmp	 eax, 18			; 00000012H
  00077	75 11		 jne	 SHORT $LN4@itemCanAdd
$LN5@itemCanAdd:

; 386  : 	{
; 387  : 		return Py_BuildValue("i", TRUE);

  00079	6a 01		 push	 1
  0007b	68 00 00 00 00	 push	 OFFSET ??_C@_01KBJDNOO@i@
  00080	ff 15 00 00 00
	00		 call	 DWORD PTR __imp__Py_BuildValue
  00086	59		 pop	 ecx
  00087	59		 pop	 ecx
  00088	eb 0f		 jmp	 SHORT $LN1@itemCanAdd
$LN4@itemCanAdd:

; 388  : 	}
; 389  : 
; 390  : 	return Py_BuildValue("i", FALSE);

  0008a	6a 00		 push	 0
  0008c	68 00 00 00 00	 push	 OFFSET ??_C@_01KBJDNOO@i@
  00091	ff 15 00 00 00
	00		 call	 DWORD PTR __imp__Py_BuildValue
  00097	59		 pop	 ecx
  00098	59		 pop	 ecx
$LN1@itemCanAdd:

; 391  : }

  00099	c9		 leave
  0009a	c3		 ret	 0
?itemCanAddToQuickSlotItem@@YAPAU_object@@PAU1@0@Z ENDP	; itemCanAddToQuickSlotItem
_TEXT	ENDS
; Function compile flags: /Odspy
; File D:\Metin2 Server Files\mainline\SRC_2014\Metin2Client\UserInterface\PythonItemModule.cpp
; File D:\Metin2 Server Files\mainline\SRC_2014\Metin2Client\eterBase\Singleton.h
; File D:\Metin2 Server Files\mainline\SRC_2014\Metin2Client\UserInterface\PythonItemModule.cpp
;	COMDAT ?itemIsDetachScroll@@YAPAU_object@@PAU1@0@Z
_TEXT	SEGMENT
_iSubType$ = -20					; size = 4
_iType$ = -16						; size = 4
$T1 = -12						; size = 4
_iItemIndex$ = -8					; size = 4
_pItemData$ = -4					; size = 4
_poSelf$ = 8						; size = 4
_poArgs$ = 12						; size = 4
?itemIsDetachScroll@@YAPAU_object@@PAU1@0@Z PROC	; itemIsDetachScroll, COMDAT

; 353  : {

  00000	55		 push	 ebp
  00001	8b ec		 mov	 ebp, esp
  00003	83 ec 14	 sub	 esp, 20			; 00000014H

; 354  : 	int iItemIndex;
; 355  : 	if (!PyTuple_GetInteger(poArgs, 0, &iItemIndex))

  00006	8d 45 f8	 lea	 eax, DWORD PTR _iItemIndex$[ebp]
  00009	50		 push	 eax
  0000a	6a 00		 push	 0
  0000c	ff 75 0c	 push	 DWORD PTR _poArgs$[ebp]
  0000f	e8 00 00 00 00	 call	 ?PyTuple_GetInteger@@YA_NPAU_object@@HPAH@Z ; PyTuple_GetInteger
  00014	83 c4 0c	 add	 esp, 12			; 0000000cH
  00017	0f b6 c0	 movzx	 eax, al
  0001a	85 c0		 test	 eax, eax
  0001c	75 07		 jne	 SHORT $LN7@itemIsDeta

; 356  : 		return Py_BadArgument();

  0001e	e8 00 00 00 00	 call	 ?Py_BadArgument@@YAPAU_object@@XZ ; Py_BadArgument
  00023	eb 7c		 jmp	 SHORT $LN1@itemIsDeta
$LN7@itemIsDeta:

; 357  : 
; 358  : 	CItemManager::Instance().SelectItemData(iItemIndex);

  00025	ff 75 f8	 push	 DWORD PTR _iItemIndex$[ebp]
  00028	8b 0d 00 00 00
	00		 mov	 ecx, DWORD PTR ?ms_singleton@?$CSingleton@VCItemManager@@@@0PAVCItemManager@@A ; CSingleton<CItemManager>::ms_singleton
  0002e	e8 00 00 00 00	 call	 ?SelectItemData@CItemManager@@QAEHK@Z ; CItemManager::SelectItemData
; File D:\Metin2 Server Files\mainline\SRC_2014\Metin2Client\eterBase\Singleton.h

; 27   : 		return (*ms_singleton);

  00033	a1 00 00 00 00	 mov	 eax, DWORD PTR ?ms_singleton@?$CSingleton@VCItemManager@@@@0PAVCItemManager@@A ; CSingleton<CItemManager>::ms_singleton
  00038	89 45 f4	 mov	 DWORD PTR $T1[ebp], eax
; File D:\Metin2 Server Files\mainline\SRC_2014\Metin2Client\UserInterface\PythonItemModule.cpp

; 359  : 	CItemData * pItemData = CItemManager::Instance().GetSelectedItemDataPointer();

  0003b	8b 4d f4	 mov	 ecx, DWORD PTR $T1[ebp]
  0003e	e8 00 00 00 00	 call	 ?GetSelectedItemDataPointer@CItemManager@@QAEPAVCItemData@@XZ ; CItemManager::GetSelectedItemDataPointer
  00043	89 45 fc	 mov	 DWORD PTR _pItemData$[ebp], eax

; 360  : 	if (!pItemData)

  00046	83 7d fc 00	 cmp	 DWORD PTR _pItemData$[ebp], 0
  0004a	75 0d		 jne	 SHORT $LN3@itemIsDeta

; 361  : 		return Py_BuildException("Can't find select item data");

  0004c	68 00 00 00 00	 push	 OFFSET ??_C@_0BM@KPLEGEEH@Can?8t?5find?5select?5item?5data@
  00051	e8 00 00 00 00	 call	 ?Py_BuildException@@YAPAU_object@@PBDZZ ; Py_BuildException
  00056	59		 pop	 ecx
  00057	eb 48		 jmp	 SHORT $LN1@itemIsDeta
$LN3@itemIsDeta:

; 362  : 
; 363  : 	int iType = pItemData->GetType();

  00059	8b 4d fc	 mov	 ecx, DWORD PTR _pItemData$[ebp]
  0005c	e8 00 00 00 00	 call	 ?GetType@CItemData@@QBEEXZ ; CItemData::GetType
  00061	0f b6 c0	 movzx	 eax, al
  00064	89 45 f0	 mov	 DWORD PTR _iType$[ebp], eax

; 364  : 	int iSubType = pItemData->GetSubType();

  00067	8b 4d fc	 mov	 ecx, DWORD PTR _pItemData$[ebp]
  0006a	e8 00 00 00 00	 call	 ?GetSubType@CItemData@@QBEEXZ ; CItemData::GetSubType
  0006f	0f b6 c0	 movzx	 eax, al
  00072	89 45 ec	 mov	 DWORD PTR _iSubType$[ebp], eax

; 365  : 	if (iType == CItemData::ITEM_TYPE_USE)

  00075	83 7d f0 03	 cmp	 DWORD PTR _iType$[ebp], 3
  00079	75 17		 jne	 SHORT $LN4@itemIsDeta

; 366  : 	if (iSubType == CItemData::USE_DETACHMENT)

  0007b	83 7d ec 0e	 cmp	 DWORD PTR _iSubType$[ebp], 14 ; 0000000eH
  0007f	75 11		 jne	 SHORT $LN4@itemIsDeta

; 367  : 	{
; 368  : 		return Py_BuildValue("i", TRUE);

  00081	6a 01		 push	 1
  00083	68 00 00 00 00	 push	 OFFSET ??_C@_01KBJDNOO@i@
  00088	ff 15 00 00 00
	00		 call	 DWORD PTR __imp__Py_BuildValue
  0008e	59		 pop	 ecx
  0008f	59		 pop	 ecx
  00090	eb 0f		 jmp	 SHORT $LN1@itemIsDeta
$LN4@itemIsDeta:

; 369  : 	}
; 370  : 
; 371  : 	return Py_BuildValue("i", FALSE);

  00092	6a 00		 push	 0
  00094	68 00 00 00 00	 push	 OFFSET ??_C@_01KBJDNOO@i@
  00099	ff 15 00 00 00
	00		 call	 DWORD PTR __imp__Py_BuildValue
  0009f	59		 pop	 ecx
  000a0	59		 pop	 ecx
$LN1@itemIsDeta:

; 372  : }

  000a1	c9		 leave
  000a2	c3		 ret	 0
?itemIsDetachScroll@@YAPAU_object@@PAU1@0@Z ENDP	; itemIsDetachScroll
_TEXT	ENDS
; Function compile flags: /Odspy
; File D:\Metin2 Server Files\mainline\SRC_2014\Metin2Client\UserInterface\PythonItemModule.cpp
; File D:\Metin2 Server Files\mainline\SRC_2014\Metin2Client\eterBase\Singleton.h
; File D:\Metin2 Server Files\mainline\SRC_2014\Metin2Client\UserInterface\PythonItemModule.cpp
;	COMDAT ?itemIsRefineScroll@@YAPAU_object@@PAU1@0@Z
_TEXT	SEGMENT
tv90 = -16						; size = 4
$T1 = -12						; size = 4
_iItemIndex$ = -8					; size = 4
_pItemData$ = -4					; size = 4
_poSelf$ = 8						; size = 4
_poArgs$ = 12						; size = 4
?itemIsRefineScroll@@YAPAU_object@@PAU1@0@Z PROC	; itemIsRefineScroll, COMDAT

; 329  : {

  00000	55		 push	 ebp
  00001	8b ec		 mov	 ebp, esp
  00003	83 ec 10	 sub	 esp, 16			; 00000010H

; 330  : 	int iItemIndex;
; 331  : 	if (!PyTuple_GetInteger(poArgs, 0, &iItemIndex))

  00006	8d 45 f8	 lea	 eax, DWORD PTR _iItemIndex$[ebp]
  00009	50		 push	 eax
  0000a	6a 00		 push	 0
  0000c	ff 75 0c	 push	 DWORD PTR _poArgs$[ebp]
  0000f	e8 00 00 00 00	 call	 ?PyTuple_GetInteger@@YA_NPAU_object@@HPAH@Z ; PyTuple_GetInteger
  00014	83 c4 0c	 add	 esp, 12			; 0000000cH
  00017	0f b6 c0	 movzx	 eax, al
  0001a	85 c0		 test	 eax, eax
  0001c	75 0a		 jne	 SHORT $LN9@itemIsRefi

; 332  : 		return Py_BadArgument();

  0001e	e8 00 00 00 00	 call	 ?Py_BadArgument@@YAPAU_object@@XZ ; Py_BadArgument
  00023	e9 88 00 00 00	 jmp	 $LN1@itemIsRefi
$LN9@itemIsRefi:

; 333  : 
; 334  : 	CItemManager::Instance().SelectItemData(iItemIndex);

  00028	ff 75 f8	 push	 DWORD PTR _iItemIndex$[ebp]
  0002b	8b 0d 00 00 00
	00		 mov	 ecx, DWORD PTR ?ms_singleton@?$CSingleton@VCItemManager@@@@0PAVCItemManager@@A ; CSingleton<CItemManager>::ms_singleton
  00031	e8 00 00 00 00	 call	 ?SelectItemData@CItemManager@@QAEHK@Z ; CItemManager::SelectItemData
; File D:\Metin2 Server Files\mainline\SRC_2014\Metin2Client\eterBase\Singleton.h

; 27   : 		return (*ms_singleton);

  00036	a1 00 00 00 00	 mov	 eax, DWORD PTR ?ms_singleton@?$CSingleton@VCItemManager@@@@0PAVCItemManager@@A ; CSingleton<CItemManager>::ms_singleton
  0003b	89 45 f4	 mov	 DWORD PTR $T1[ebp], eax
; File D:\Metin2 Server Files\mainline\SRC_2014\Metin2Client\UserInterface\PythonItemModule.cpp

; 335  : 	CItemData * pItemData = CItemManager::Instance().GetSelectedItemDataPointer();

  0003e	8b 4d f4	 mov	 ecx, DWORD PTR $T1[ebp]
  00041	e8 00 00 00 00	 call	 ?GetSelectedItemDataPointer@CItemManager@@QAEPAVCItemData@@XZ ; CItemManager::GetSelectedItemDataPointer
  00046	89 45 fc	 mov	 DWORD PTR _pItemData$[ebp], eax

; 336  : 	if (!pItemData)

  00049	83 7d fc 00	 cmp	 DWORD PTR _pItemData$[ebp], 0
  0004d	75 0d		 jne	 SHORT $LN5@itemIsRefi

; 337  : 		return Py_BuildException("Can't find select item data");

  0004f	68 00 00 00 00	 push	 OFFSET ??_C@_0BM@KPLEGEEH@Can?8t?5find?5select?5item?5data@
  00054	e8 00 00 00 00	 call	 ?Py_BuildException@@YAPAU_object@@PBDZZ ; Py_BuildException
  00059	59		 pop	 ecx
  0005a	eb 54		 jmp	 SHORT $LN1@itemIsRefi
$LN5@itemIsRefi:

; 338  : 
; 339  : 	if (pItemData->GetType() != CItemData::ITEM_TYPE_USE)

  0005c	8b 4d fc	 mov	 ecx, DWORD PTR _pItemData$[ebp]
  0005f	e8 00 00 00 00	 call	 ?GetType@CItemData@@QBEEXZ ; CItemData::GetType
  00064	0f b6 c0	 movzx	 eax, al
  00067	83 f8 03	 cmp	 eax, 3
  0006a	74 11		 je	 SHORT $LN6@itemIsRefi

; 340  : 		return Py_BuildValue("i", FALSE);

  0006c	6a 00		 push	 0
  0006e	68 00 00 00 00	 push	 OFFSET ??_C@_01KBJDNOO@i@
  00073	ff 15 00 00 00
	00		 call	 DWORD PTR __imp__Py_BuildValue
  00079	59		 pop	 ecx
  0007a	59		 pop	 ecx
  0007b	eb 33		 jmp	 SHORT $LN1@itemIsRefi
$LN6@itemIsRefi:

; 341  : 	
; 342  : 	switch (pItemData->GetSubType())

  0007d	8b 4d fc	 mov	 ecx, DWORD PTR _pItemData$[ebp]
  00080	e8 00 00 00 00	 call	 ?GetSubType@CItemData@@QBEEXZ ; CItemData::GetSubType
  00085	88 45 f0	 mov	 BYTE PTR tv90[ebp], al
  00088	80 7d f0 02	 cmp	 BYTE PTR tv90[ebp], 2
  0008c	74 02		 je	 SHORT $LN7@itemIsRefi
  0008e	eb 11		 jmp	 SHORT $LN2@itemIsRefi
$LN7@itemIsRefi:

; 343  : 	{
; 344  : 		case CItemData::USE_TUNING:
; 345  : 			return Py_BuildValue("i", TRUE);

  00090	6a 01		 push	 1
  00092	68 00 00 00 00	 push	 OFFSET ??_C@_01KBJDNOO@i@
  00097	ff 15 00 00 00
	00		 call	 DWORD PTR __imp__Py_BuildValue
  0009d	59		 pop	 ecx
  0009e	59		 pop	 ecx
  0009f	eb 0f		 jmp	 SHORT $LN1@itemIsRefi
$LN2@itemIsRefi:

; 346  : 			break;
; 347  : 	}
; 348  : 	
; 349  : 	return Py_BuildValue("i", FALSE);

  000a1	6a 00		 push	 0
  000a3	68 00 00 00 00	 push	 OFFSET ??_C@_01KBJDNOO@i@
  000a8	ff 15 00 00 00
	00		 call	 DWORD PTR __imp__Py_BuildValue
  000ae	59		 pop	 ecx
  000af	59		 pop	 ecx
$LN1@itemIsRefi:

; 350  : }

  000b0	c9		 leave
  000b1	c3		 ret	 0
?itemIsRefineScroll@@YAPAU_object@@PAU1@0@Z ENDP	; itemIsRefineScroll
_TEXT	ENDS
; Function compile flags: /Odspy
; File D:\Metin2 Server Files\mainline\SRC_2014\Metin2Client\UserInterface\PythonItemModule.cpp
; File D:\Metin2 Server Files\mainline\SRC_2014\Metin2Client\eterBase\Singleton.h
; File D:\Metin2 Server Files\mainline\SRC_2014\Metin2Client\UserInterface\PythonItemModule.cpp
;	COMDAT ?itemGetUseType@@YAPAU_object@@PAU1@0@Z
_TEXT	SEGMENT
$T1 = -12						; size = 4
_iItemVID$ = -8						; size = 4
_pItemData$ = -4					; size = 4
_poSelf$ = 8						; size = 4
_poArgs$ = 12						; size = 4
?itemGetUseType@@YAPAU_object@@PAU1@0@Z PROC		; itemGetUseType, COMDAT

; 315  : {

  00000	55		 push	 ebp
  00001	8b ec		 mov	 ebp, esp
  00003	83 ec 0c	 sub	 esp, 12			; 0000000cH

; 316  : 	int iItemVID;
; 317  : 	if (!PyTuple_GetInteger(poArgs, 0, &iItemVID))

  00006	8d 45 f8	 lea	 eax, DWORD PTR _iItemVID$[ebp]
  00009	50		 push	 eax
  0000a	6a 00		 push	 0
  0000c	ff 75 0c	 push	 DWORD PTR _poArgs$[ebp]
  0000f	e8 00 00 00 00	 call	 ?PyTuple_GetInteger@@YA_NPAU_object@@HPAH@Z ; PyTuple_GetInteger
  00014	83 c4 0c	 add	 esp, 12			; 0000000cH
  00017	0f b6 c0	 movzx	 eax, al
  0001a	85 c0		 test	 eax, eax
  0001c	75 07		 jne	 SHORT $LN5@itemGetUse

; 318  : 		return Py_BadArgument();

  0001e	e8 00 00 00 00	 call	 ?Py_BadArgument@@YAPAU_object@@XZ ; Py_BadArgument
  00023	eb 4a		 jmp	 SHORT $LN1@itemGetUse
$LN5@itemGetUse:

; 319  : 
; 320  : 	CItemManager::Instance().SelectItemData(iItemVID);

  00025	ff 75 f8	 push	 DWORD PTR _iItemVID$[ebp]
  00028	8b 0d 00 00 00
	00		 mov	 ecx, DWORD PTR ?ms_singleton@?$CSingleton@VCItemManager@@@@0PAVCItemManager@@A ; CSingleton<CItemManager>::ms_singleton
  0002e	e8 00 00 00 00	 call	 ?SelectItemData@CItemManager@@QAEHK@Z ; CItemManager::SelectItemData
; File D:\Metin2 Server Files\mainline\SRC_2014\Metin2Client\eterBase\Singleton.h

; 27   : 		return (*ms_singleton);

  00033	a1 00 00 00 00	 mov	 eax, DWORD PTR ?ms_singleton@?$CSingleton@VCItemManager@@@@0PAVCItemManager@@A ; CSingleton<CItemManager>::ms_singleton
  00038	89 45 f4	 mov	 DWORD PTR $T1[ebp], eax
; File D:\Metin2 Server Files\mainline\SRC_2014\Metin2Client\UserInterface\PythonItemModule.cpp

; 321  : 	CItemData * pItemData = CItemManager::Instance().GetSelectedItemDataPointer();

  0003b	8b 4d f4	 mov	 ecx, DWORD PTR $T1[ebp]
  0003e	e8 00 00 00 00	 call	 ?GetSelectedItemDataPointer@CItemManager@@QAEPAVCItemData@@XZ ; CItemManager::GetSelectedItemDataPointer
  00043	89 45 fc	 mov	 DWORD PTR _pItemData$[ebp], eax

; 322  : 	if (!pItemData)

  00046	83 7d fc 00	 cmp	 DWORD PTR _pItemData$[ebp], 0
  0004a	75 0d		 jne	 SHORT $LN3@itemGetUse

; 323  : 		return Py_BuildException("Can't find select item data");

  0004c	68 00 00 00 00	 push	 OFFSET ??_C@_0BM@KPLEGEEH@Can?8t?5find?5select?5item?5data@
  00051	e8 00 00 00 00	 call	 ?Py_BuildException@@YAPAU_object@@PBDZZ ; Py_BuildException
  00056	59		 pop	 ecx
  00057	eb 16		 jmp	 SHORT $LN1@itemGetUse
$LN3@itemGetUse:

; 324  : 	
; 325  : 	return Py_BuildValue("s", pItemData->GetUseTypeString());	

  00059	8b 4d fc	 mov	 ecx, DWORD PTR _pItemData$[ebp]
  0005c	e8 00 00 00 00	 call	 ?GetUseTypeString@CItemData@@QBEPBDXZ ; CItemData::GetUseTypeString
  00061	50		 push	 eax
  00062	68 00 00 00 00	 push	 OFFSET ??_C@_01LKDEMHDF@s@
  00067	ff 15 00 00 00
	00		 call	 DWORD PTR __imp__Py_BuildValue
  0006d	59		 pop	 ecx
  0006e	59		 pop	 ecx
$LN1@itemGetUse:

; 326  : }

  0006f	c9		 leave
  00070	c3		 ret	 0
?itemGetUseType@@YAPAU_object@@PAU1@0@Z ENDP		; itemGetUseType
_TEXT	ENDS
; Function compile flags: /Odspy
; File D:\Metin2 Server Files\mainline\SRC_2014\Metin2Client\UserInterface\PythonItemModule.cpp
; File D:\Metin2 Server Files\mainline\SRC_2014\Metin2Client\eterBase\Singleton.h
; File D:\Metin2 Server Files\mainline\SRC_2014\Metin2Client\UserInterface\PythonItemModule.cpp
;	COMDAT ?itemIsEquipmentVID@@YAPAU_object@@PAU1@0@Z
_TEXT	SEGMENT
$T1 = -12						; size = 4
_iItemVID$ = -8						; size = 4
_pItemData$ = -4					; size = 4
_poSelf$ = 8						; size = 4
_poArgs$ = 12						; size = 4
?itemIsEquipmentVID@@YAPAU_object@@PAU1@0@Z PROC	; itemIsEquipmentVID, COMDAT

; 300  : {

  00000	55		 push	 ebp
  00001	8b ec		 mov	 ebp, esp
  00003	83 ec 0c	 sub	 esp, 12			; 0000000cH

; 301  : 	int iItemVID;
; 302  : 	if (!PyTuple_GetInteger(poArgs, 0, &iItemVID))

  00006	8d 45 f8	 lea	 eax, DWORD PTR _iItemVID$[ebp]
  00009	50		 push	 eax
  0000a	6a 00		 push	 0
  0000c	ff 75 0c	 push	 DWORD PTR _poArgs$[ebp]
  0000f	e8 00 00 00 00	 call	 ?PyTuple_GetInteger@@YA_NPAU_object@@HPAH@Z ; PyTuple_GetInteger
  00014	83 c4 0c	 add	 esp, 12			; 0000000cH
  00017	0f b6 c0	 movzx	 eax, al
  0001a	85 c0		 test	 eax, eax
  0001c	75 07		 jne	 SHORT $LN5@itemIsEqui

; 303  : 		return Py_BadArgument();

  0001e	e8 00 00 00 00	 call	 ?Py_BadArgument@@YAPAU_object@@XZ ; Py_BadArgument
  00023	eb 4a		 jmp	 SHORT $LN1@itemIsEqui
$LN5@itemIsEqui:

; 304  : 
; 305  : 	CItemManager::Instance().SelectItemData(iItemVID);

  00025	ff 75 f8	 push	 DWORD PTR _iItemVID$[ebp]
  00028	8b 0d 00 00 00
	00		 mov	 ecx, DWORD PTR ?ms_singleton@?$CSingleton@VCItemManager@@@@0PAVCItemManager@@A ; CSingleton<CItemManager>::ms_singleton
  0002e	e8 00 00 00 00	 call	 ?SelectItemData@CItemManager@@QAEHK@Z ; CItemManager::SelectItemData
; File D:\Metin2 Server Files\mainline\SRC_2014\Metin2Client\eterBase\Singleton.h

; 27   : 		return (*ms_singleton);

  00033	a1 00 00 00 00	 mov	 eax, DWORD PTR ?ms_singleton@?$CSingleton@VCItemManager@@@@0PAVCItemManager@@A ; CSingleton<CItemManager>::ms_singleton
  00038	89 45 f4	 mov	 DWORD PTR $T1[ebp], eax
; File D:\Metin2 Server Files\mainline\SRC_2014\Metin2Client\UserInterface\PythonItemModule.cpp

; 306  : 	CItemData * pItemData = CItemManager::Instance().GetSelectedItemDataPointer();

  0003b	8b 4d f4	 mov	 ecx, DWORD PTR $T1[ebp]
  0003e	e8 00 00 00 00	 call	 ?GetSelectedItemDataPointer@CItemManager@@QAEPAVCItemData@@XZ ; CItemManager::GetSelectedItemDataPointer
  00043	89 45 fc	 mov	 DWORD PTR _pItemData$[ebp], eax

; 307  : 	if (!pItemData)

  00046	83 7d fc 00	 cmp	 DWORD PTR _pItemData$[ebp], 0
  0004a	75 0d		 jne	 SHORT $LN3@itemIsEqui

; 308  : 		return Py_BuildException("Not yet select item data");

  0004c	68 00 00 00 00	 push	 OFFSET ??_C@_0BJ@FJOAFFCG@Not?5yet?5select?5item?5data@
  00051	e8 00 00 00 00	 call	 ?Py_BuildException@@YAPAU_object@@PBDZZ ; Py_BuildException
  00056	59		 pop	 ecx
  00057	eb 16		 jmp	 SHORT $LN1@itemIsEqui
$LN3@itemIsEqui:

; 309  : 
; 310  : 	return Py_BuildValue("i", pItemData->IsEquipment());

  00059	8b 4d fc	 mov	 ecx, DWORD PTR _pItemData$[ebp]
  0005c	e8 00 00 00 00	 call	 ?IsEquipment@CItemData@@QBEHXZ ; CItemData::IsEquipment
  00061	50		 push	 eax
  00062	68 00 00 00 00	 push	 OFFSET ??_C@_01KBJDNOO@i@
  00067	ff 15 00 00 00
	00		 call	 DWORD PTR __imp__Py_BuildValue
  0006d	59		 pop	 ecx
  0006e	59		 pop	 ecx
$LN1@itemIsEqui:

; 311  : }

  0006f	c9		 leave
  00070	c3		 ret	 0
?itemIsEquipmentVID@@YAPAU_object@@PAU1@0@Z ENDP	; itemIsEquipmentVID
_TEXT	ENDS
; Function compile flags: /Odspy
; File D:\Metin2 Server Files\mainline\SRC_2014\Metin2Client\UserInterface\PythonItemModule.cpp
;	COMDAT ?itemDeleteIconInstance@@YAPAU_object@@PAU1@0@Z
_TEXT	SEGMENT
_iHandle$ = -4						; size = 4
_poSelf$ = 8						; size = 4
_poArgs$ = 12						; size = 4
?itemDeleteIconInstance@@YAPAU_object@@PAU1@0@Z PROC	; itemDeleteIconInstance, COMDAT

; 289  : {

  00000	55		 push	 ebp
  00001	8b ec		 mov	 ebp, esp
  00003	51		 push	 ecx

; 290  : 	int iHandle;
; 291  : 	if (!PyTuple_GetInteger(poArgs, 0, &iHandle))

  00004	8d 45 fc	 lea	 eax, DWORD PTR _iHandle$[ebp]
  00007	50		 push	 eax
  00008	6a 00		 push	 0
  0000a	ff 75 0c	 push	 DWORD PTR _poArgs$[ebp]
  0000d	e8 00 00 00 00	 call	 ?PyTuple_GetInteger@@YA_NPAU_object@@HPAH@Z ; PyTuple_GetInteger
  00012	83 c4 0c	 add	 esp, 12			; 0000000cH
  00015	0f b6 c0	 movzx	 eax, al
  00018	85 c0		 test	 eax, eax
  0001a	75 07		 jne	 SHORT $LN2@itemDelete

; 292  : 		return Py_BadArgument();

  0001c	e8 00 00 00 00	 call	 ?Py_BadArgument@@YAPAU_object@@XZ ; Py_BadArgument
  00021	eb 0e		 jmp	 SHORT $LN1@itemDelete
$LN2@itemDelete:

; 293  : 
; 294  : 	CGraphicImageInstance::Delete((CGraphicImageInstance *) iHandle);

  00023	ff 75 fc	 push	 DWORD PTR _iHandle$[ebp]
  00026	e8 00 00 00 00	 call	 ?Delete@CGraphicImageInstance@@SAXPAV1@@Z ; CGraphicImageInstance::Delete
  0002b	59		 pop	 ecx

; 295  : 
; 296  : 	return Py_BuildNone();

  0002c	e8 00 00 00 00	 call	 ?Py_BuildNone@@YAPAU_object@@XZ ; Py_BuildNone
$LN1@itemDelete:

; 297  : }

  00031	c9		 leave
  00032	c3		 ret	 0
?itemDeleteIconInstance@@YAPAU_object@@PAU1@0@Z ENDP	; itemDeleteIconInstance
_TEXT	ENDS
; Function compile flags: /Odspy
; File D:\Metin2 Server Files\mainline\SRC_2014\Metin2Client\UserInterface\PythonItemModule.cpp
; File D:\Metin2 Server Files\mainline\SRC_2014\Metin2Client\eterBase\Singleton.h
; File D:\Metin2 Server Files\mainline\SRC_2014\Metin2Client\UserInterface\PythonItemModule.cpp
;	COMDAT ?itemGetIconInstance@@YAPAU_object@@PAU1@0@Z
_TEXT	SEGMENT
$T1 = -16						; size = 4
_pImageInstance$ = -12					; size = 4
_pImage$ = -8						; size = 4
_pItemData$ = -4					; size = 4
_poSelf$ = 8						; size = 4
_poArgs$ = 12						; size = 4
?itemGetIconInstance@@YAPAU_object@@PAU1@0@Z PROC	; itemGetIconInstance, COMDAT

; 273  : {

  00000	55		 push	 ebp
  00001	8b ec		 mov	 ebp, esp
  00003	83 ec 10	 sub	 esp, 16			; 00000010H
; File D:\Metin2 Server Files\mainline\SRC_2014\Metin2Client\eterBase\Singleton.h

; 27   : 		return (*ms_singleton);

  00006	a1 00 00 00 00	 mov	 eax, DWORD PTR ?ms_singleton@?$CSingleton@VCItemManager@@@@0PAVCItemManager@@A ; CSingleton<CItemManager>::ms_singleton
  0000b	89 45 f0	 mov	 DWORD PTR $T1[ebp], eax
; File D:\Metin2 Server Files\mainline\SRC_2014\Metin2Client\UserInterface\PythonItemModule.cpp

; 274  : 	CItemData * pItemData = CItemManager::Instance().GetSelectedItemDataPointer();

  0000e	8b 4d f0	 mov	 ecx, DWORD PTR $T1[ebp]
  00011	e8 00 00 00 00	 call	 ?GetSelectedItemDataPointer@CItemManager@@QAEPAVCItemData@@XZ ; CItemManager::GetSelectedItemDataPointer
  00016	89 45 fc	 mov	 DWORD PTR _pItemData$[ebp], eax

; 275  : 	if (!pItemData)

  00019	83 7d fc 00	 cmp	 DWORD PTR _pItemData$[ebp], 0
  0001d	75 0d		 jne	 SHORT $LN2@itemGetIco

; 276  : 		return Py_BuildException("Not yet select item data");

  0001f	68 00 00 00 00	 push	 OFFSET ??_C@_0BJ@FJOAFFCG@Not?5yet?5select?5item?5data@
  00024	e8 00 00 00 00	 call	 ?Py_BuildException@@YAPAU_object@@PBDZZ ; Py_BuildException
  00029	59		 pop	 ecx
  0002a	eb 4b		 jmp	 SHORT $LN1@itemGetIco
$LN2@itemGetIco:

; 277  : 
; 278  : 	CGraphicSubImage * pImage = pItemData->GetIconImage();

  0002c	8b 4d fc	 mov	 ecx, DWORD PTR _pItemData$[ebp]
  0002f	e8 00 00 00 00	 call	 ?GetIconImage@CItemData@@QAEPAVCGraphicSubImage@@XZ ; CItemData::GetIconImage
  00034	89 45 f8	 mov	 DWORD PTR _pImage$[ebp], eax

; 279  : 	if (!pImage)

  00037	83 7d f8 00	 cmp	 DWORD PTR _pImage$[ebp], 0
  0003b	75 17		 jne	 SHORT $LN3@itemGetIco

; 280  : 		return Py_BuildException("Cannot get icon image by %d", pItemData->GetIndex());

  0003d	8b 4d fc	 mov	 ecx, DWORD PTR _pItemData$[ebp]
  00040	e8 00 00 00 00	 call	 ?GetIndex@CItemData@@QBEKXZ ; CItemData::GetIndex
  00045	50		 push	 eax
  00046	68 00 00 00 00	 push	 OFFSET ??_C@_0BM@MLEHJLDK@Cannot?5get?5icon?5image?5by?5?$CFd@
  0004b	e8 00 00 00 00	 call	 ?Py_BuildException@@YAPAU_object@@PBDZZ ; Py_BuildException
  00050	59		 pop	 ecx
  00051	59		 pop	 ecx
  00052	eb 23		 jmp	 SHORT $LN1@itemGetIco
$LN3@itemGetIco:

; 281  : 
; 282  : 	CGraphicImageInstance * pImageInstance = CGraphicImageInstance::New();

  00054	e8 00 00 00 00	 call	 ?New@CGraphicImageInstance@@SAPAV1@XZ ; CGraphicImageInstance::New
  00059	89 45 f4	 mov	 DWORD PTR _pImageInstance$[ebp], eax

; 283  : 	pImageInstance->SetImagePointer(pImage);

  0005c	ff 75 f8	 push	 DWORD PTR _pImage$[ebp]
  0005f	8b 4d f4	 mov	 ecx, DWORD PTR _pImageInstance$[ebp]
  00062	e8 00 00 00 00	 call	 ?SetImagePointer@CGraphicImageInstance@@QAEXPAVCGraphicImage@@@Z ; CGraphicImageInstance::SetImagePointer

; 284  : 
; 285  : 	return Py_BuildValue("i", pImageInstance);

  00067	ff 75 f4	 push	 DWORD PTR _pImageInstance$[ebp]
  0006a	68 00 00 00 00	 push	 OFFSET ??_C@_01KBJDNOO@i@
  0006f	ff 15 00 00 00
	00		 call	 DWORD PTR __imp__Py_BuildValue
  00075	59		 pop	 ecx
  00076	59		 pop	 ecx
$LN1@itemGetIco:

; 286  : }

  00077	c9		 leave
  00078	c3		 ret	 0
?itemGetIconInstance@@YAPAU_object@@PAU1@0@Z ENDP	; itemGetIconInstance
_TEXT	ENDS
; Function compile flags: /Odspy
; File D:\Metin2 Server Files\mainline\SRC_2014\Metin2Client\UserInterface\PythonItemModule.cpp
; File D:\Metin2 Server Files\mainline\SRC_2014\Metin2Client\eterBase\Singleton.h
; File D:\Metin2 Server Files\mainline\SRC_2014\Metin2Client\UserInterface\PythonItemModule.cpp
;	COMDAT ?itemGetSocket@@YAPAU_object@@PAU1@0@Z
_TEXT	SEGMENT
_iValueIndex$ = -12					; size = 4
$T1 = -8						; size = 4
_pItemData$ = -4					; size = 4
_poSelf$ = 8						; size = 4
_poArgs$ = 12						; size = 4
?itemGetSocket@@YAPAU_object@@PAU1@0@Z PROC		; itemGetSocket, COMDAT

; 260  : {

  00000	55		 push	 ebp
  00001	8b ec		 mov	 ebp, esp
  00003	83 ec 0c	 sub	 esp, 12			; 0000000cH

; 261  : 	int iValueIndex;
; 262  : 	if (!PyTuple_GetInteger(poArgs, 0, &iValueIndex))

  00006	8d 45 f4	 lea	 eax, DWORD PTR _iValueIndex$[ebp]
  00009	50		 push	 eax
  0000a	6a 00		 push	 0
  0000c	ff 75 0c	 push	 DWORD PTR _poArgs$[ebp]
  0000f	e8 00 00 00 00	 call	 ?PyTuple_GetInteger@@YA_NPAU_object@@HPAH@Z ; PyTuple_GetInteger
  00014	83 c4 0c	 add	 esp, 12			; 0000000cH
  00017	0f b6 c0	 movzx	 eax, al
  0001a	85 c0		 test	 eax, eax
  0001c	75 07		 jne	 SHORT $LN2@itemGetSoc

; 263  : 		return Py_BadArgument();

  0001e	e8 00 00 00 00	 call	 ?Py_BadArgument@@YAPAU_object@@XZ ; Py_BadArgument
  00023	eb 3f		 jmp	 SHORT $LN1@itemGetSoc
$LN2@itemGetSoc:
; File D:\Metin2 Server Files\mainline\SRC_2014\Metin2Client\eterBase\Singleton.h

; 27   : 		return (*ms_singleton);

  00025	a1 00 00 00 00	 mov	 eax, DWORD PTR ?ms_singleton@?$CSingleton@VCItemManager@@@@0PAVCItemManager@@A ; CSingleton<CItemManager>::ms_singleton
  0002a	89 45 f8	 mov	 DWORD PTR $T1[ebp], eax
; File D:\Metin2 Server Files\mainline\SRC_2014\Metin2Client\UserInterface\PythonItemModule.cpp

; 265  : 	CItemData * pItemData = CItemManager::Instance().GetSelectedItemDataPointer();

  0002d	8b 4d f8	 mov	 ecx, DWORD PTR $T1[ebp]
  00030	e8 00 00 00 00	 call	 ?GetSelectedItemDataPointer@CItemManager@@QAEPAVCItemData@@XZ ; CItemManager::GetSelectedItemDataPointer
  00035	89 45 fc	 mov	 DWORD PTR _pItemData$[ebp], eax

; 266  : 	if (!pItemData)

  00038	83 7d fc 00	 cmp	 DWORD PTR _pItemData$[ebp], 0
  0003c	75 0d		 jne	 SHORT $LN3@itemGetSoc

; 267  : 		return Py_BuildException("Not yet select item data");

  0003e	68 00 00 00 00	 push	 OFFSET ??_C@_0BJ@FJOAFFCG@Not?5yet?5select?5item?5data@
  00043	e8 00 00 00 00	 call	 ?Py_BuildException@@YAPAU_object@@PBDZZ ; Py_BuildException
  00048	59		 pop	 ecx
  00049	eb 19		 jmp	 SHORT $LN1@itemGetSoc
$LN3@itemGetSoc:

; 268  : 
; 269  : 	return Py_BuildValue("i", pItemData->GetSocket(iValueIndex));

  0004b	ff 75 f4	 push	 DWORD PTR _iValueIndex$[ebp]
  0004e	8b 4d fc	 mov	 ecx, DWORD PTR _pItemData$[ebp]
  00051	e8 00 00 00 00	 call	 ?GetSocket@CItemData@@QBEJE@Z ; CItemData::GetSocket
  00056	50		 push	 eax
  00057	68 00 00 00 00	 push	 OFFSET ??_C@_01KBJDNOO@i@
  0005c	ff 15 00 00 00
	00		 call	 DWORD PTR __imp__Py_BuildValue
  00062	59		 pop	 ecx
  00063	59		 pop	 ecx
$LN1@itemGetSoc:

; 270  : }

  00064	c9		 leave
  00065	c3		 ret	 0
?itemGetSocket@@YAPAU_object@@PAU1@0@Z ENDP		; itemGetSocket
_TEXT	ENDS
; Function compile flags: /Odspy
; File D:\Metin2 Server Files\mainline\SRC_2014\Metin2Client\UserInterface\PythonItemModule.cpp
; File D:\Metin2 Server Files\mainline\SRC_2014\Metin2Client\eterBase\Singleton.h
; File D:\Metin2 Server Files\mainline\SRC_2014\Metin2Client\UserInterface\PythonItemModule.cpp
;	COMDAT ?itemGetValue@@YAPAU_object@@PAU1@0@Z
_TEXT	SEGMENT
_iValueIndex$ = -12					; size = 4
$T1 = -8						; size = 4
_pItemData$ = -4					; size = 4
_poSelf$ = 8						; size = 4
_poArgs$ = 12						; size = 4
?itemGetValue@@YAPAU_object@@PAU1@0@Z PROC		; itemGetValue, COMDAT

; 247  : {

  00000	55		 push	 ebp
  00001	8b ec		 mov	 ebp, esp
  00003	83 ec 0c	 sub	 esp, 12			; 0000000cH

; 248  : 	int iValueIndex;
; 249  : 	if (!PyTuple_GetInteger(poArgs, 0, &iValueIndex))

  00006	8d 45 f4	 lea	 eax, DWORD PTR _iValueIndex$[ebp]
  00009	50		 push	 eax
  0000a	6a 00		 push	 0
  0000c	ff 75 0c	 push	 DWORD PTR _poArgs$[ebp]
  0000f	e8 00 00 00 00	 call	 ?PyTuple_GetInteger@@YA_NPAU_object@@HPAH@Z ; PyTuple_GetInteger
  00014	83 c4 0c	 add	 esp, 12			; 0000000cH
  00017	0f b6 c0	 movzx	 eax, al
  0001a	85 c0		 test	 eax, eax
  0001c	75 07		 jne	 SHORT $LN2@itemGetVal

; 250  : 		return Py_BadArgument();

  0001e	e8 00 00 00 00	 call	 ?Py_BadArgument@@YAPAU_object@@XZ ; Py_BadArgument
  00023	eb 3f		 jmp	 SHORT $LN1@itemGetVal
$LN2@itemGetVal:
; File D:\Metin2 Server Files\mainline\SRC_2014\Metin2Client\eterBase\Singleton.h

; 27   : 		return (*ms_singleton);

  00025	a1 00 00 00 00	 mov	 eax, DWORD PTR ?ms_singleton@?$CSingleton@VCItemManager@@@@0PAVCItemManager@@A ; CSingleton<CItemManager>::ms_singleton
  0002a	89 45 f8	 mov	 DWORD PTR $T1[ebp], eax
; File D:\Metin2 Server Files\mainline\SRC_2014\Metin2Client\UserInterface\PythonItemModule.cpp

; 252  : 	CItemData * pItemData = CItemManager::Instance().GetSelectedItemDataPointer();

  0002d	8b 4d f8	 mov	 ecx, DWORD PTR $T1[ebp]
  00030	e8 00 00 00 00	 call	 ?GetSelectedItemDataPointer@CItemManager@@QAEPAVCItemData@@XZ ; CItemManager::GetSelectedItemDataPointer
  00035	89 45 fc	 mov	 DWORD PTR _pItemData$[ebp], eax

; 253  : 	if (!pItemData)

  00038	83 7d fc 00	 cmp	 DWORD PTR _pItemData$[ebp], 0
  0003c	75 0d		 jne	 SHORT $LN3@itemGetVal

; 254  : 		return Py_BuildException("Not yet select item data");

  0003e	68 00 00 00 00	 push	 OFFSET ??_C@_0BJ@FJOAFFCG@Not?5yet?5select?5item?5data@
  00043	e8 00 00 00 00	 call	 ?Py_BuildException@@YAPAU_object@@PBDZZ ; Py_BuildException
  00048	59		 pop	 ecx
  00049	eb 19		 jmp	 SHORT $LN1@itemGetVal
$LN3@itemGetVal:

; 255  : 
; 256  : 	return Py_BuildValue("i", pItemData->GetValue(iValueIndex));

  0004b	ff 75 f4	 push	 DWORD PTR _iValueIndex$[ebp]
  0004e	8b 4d fc	 mov	 ecx, DWORD PTR _pItemData$[ebp]
  00051	e8 00 00 00 00	 call	 ?GetValue@CItemData@@QBEJE@Z ; CItemData::GetValue
  00056	50		 push	 eax
  00057	68 00 00 00 00	 push	 OFFSET ??_C@_01KBJDNOO@i@
  0005c	ff 15 00 00 00
	00		 call	 DWORD PTR __imp__Py_BuildValue
  00062	59		 pop	 ecx
  00063	59		 pop	 ecx
$LN1@itemGetVal:

; 257  : }

  00064	c9		 leave
  00065	c3		 ret	 0
?itemGetValue@@YAPAU_object@@PAU1@0@Z ENDP		; itemGetValue
_TEXT	ENDS
; Function compile flags: /Odspy
; File D:\Metin2 Server Files\mainline\SRC_2014\Metin2Client\UserInterface\PythonItemModule.cpp
; File D:\Metin2 Server Files\mainline\SRC_2014\Metin2Client\eterBase\Singleton.h
; File D:\Metin2 Server Files\mainline\SRC_2014\Metin2Client\UserInterface\PythonItemModule.cpp
;	COMDAT ?itemGetAffect@@YAPAU_object@@PAU1@0@Z
_TEXT	SEGMENT
_ItemApply$ = -20					; size = 5
_iValueIndex$ = -12					; size = 4
$T1 = -8						; size = 4
_pItemData$ = -4					; size = 4
_poSelf$ = 8						; size = 4
_poArgs$ = 12						; size = 4
?itemGetAffect@@YAPAU_object@@PAU1@0@Z PROC		; itemGetAffect, COMDAT

; 225  : {

  00000	55		 push	 ebp
  00001	8b ec		 mov	 ebp, esp
  00003	83 ec 14	 sub	 esp, 20			; 00000014H

; 226  : 	int iValueIndex;
; 227  : 	if (!PyTuple_GetInteger(poArgs, 0, &iValueIndex))

  00006	8d 45 f4	 lea	 eax, DWORD PTR _iValueIndex$[ebp]
  00009	50		 push	 eax
  0000a	6a 00		 push	 0
  0000c	ff 75 0c	 push	 DWORD PTR _poArgs$[ebp]
  0000f	e8 00 00 00 00	 call	 ?PyTuple_GetInteger@@YA_NPAU_object@@HPAH@Z ; PyTuple_GetInteger
  00014	83 c4 0c	 add	 esp, 12			; 0000000cH
  00017	0f b6 c0	 movzx	 eax, al
  0001a	85 c0		 test	 eax, eax
  0001c	75 0a		 jne	 SHORT $LN2@itemGetAff

; 228  : 		return Py_BadArgument();

  0001e	e8 00 00 00 00	 call	 ?Py_BadArgument@@YAPAU_object@@XZ ; Py_BadArgument
  00023	e9 8e 00 00 00	 jmp	 $LN1@itemGetAff
$LN2@itemGetAff:
; File D:\Metin2 Server Files\mainline\SRC_2014\Metin2Client\eterBase\Singleton.h

; 27   : 		return (*ms_singleton);

  00028	a1 00 00 00 00	 mov	 eax, DWORD PTR ?ms_singleton@?$CSingleton@VCItemManager@@@@0PAVCItemManager@@A ; CSingleton<CItemManager>::ms_singleton
  0002d	89 45 f8	 mov	 DWORD PTR $T1[ebp], eax
; File D:\Metin2 Server Files\mainline\SRC_2014\Metin2Client\UserInterface\PythonItemModule.cpp

; 230  : 	CItemData * pItemData = CItemManager::Instance().GetSelectedItemDataPointer();

  00030	8b 4d f8	 mov	 ecx, DWORD PTR $T1[ebp]
  00033	e8 00 00 00 00	 call	 ?GetSelectedItemDataPointer@CItemManager@@QAEPAVCItemData@@XZ ; CItemManager::GetSelectedItemDataPointer
  00038	89 45 fc	 mov	 DWORD PTR _pItemData$[ebp], eax

; 231  : 	if (!pItemData)

  0003b	83 7d fc 00	 cmp	 DWORD PTR _pItemData$[ebp], 0
  0003f	75 0d		 jne	 SHORT $LN3@itemGetAff

; 232  : 		return Py_BuildException("Not yet select item data");

  00041	68 00 00 00 00	 push	 OFFSET ??_C@_0BJ@FJOAFFCG@Not?5yet?5select?5item?5data@
  00046	e8 00 00 00 00	 call	 ?Py_BuildException@@YAPAU_object@@PBDZZ ; Py_BuildException
  0004b	59		 pop	 ecx
  0004c	eb 68		 jmp	 SHORT $LN1@itemGetAff
$LN3@itemGetAff:

; 233  : 
; 234  : 	CItemData::TItemApply ItemApply;
; 235  : 	if (!pItemData->GetApply(iValueIndex, &ItemApply))

  0004e	8d 45 ec	 lea	 eax, DWORD PTR _ItemApply$[ebp]
  00051	50		 push	 eax
  00052	ff 75 f4	 push	 DWORD PTR _iValueIndex$[ebp]
  00055	8b 4d fc	 mov	 ecx, DWORD PTR _pItemData$[ebp]
  00058	e8 00 00 00 00	 call	 ?GetApply@CItemData@@QBEHEPAUSItemApply@1@@Z ; CItemData::GetApply
  0005d	85 c0		 test	 eax, eax
  0005f	75 0a		 jne	 SHORT $LN4@itemGetAff

; 236  : 		return Py_BuildException();

  00061	6a 00		 push	 0
  00063	e8 00 00 00 00	 call	 ?Py_BuildException@@YAPAU_object@@PBDZZ ; Py_BuildException
  00068	59		 pop	 ecx
  00069	eb 4b		 jmp	 SHORT $LN1@itemGetAff
$LN4@itemGetAff:

; 237  : 
; 238  : 	if ((CItemData::APPLY_ATT_SPEED == ItemApply.bType) && (CItemData::ITEM_TYPE_WEAPON == pItemData->GetType()) && (CItemData::WEAPON_TWO_HANDED == pItemData->GetSubType()))

  0006b	0f b6 45 ec	 movzx	 eax, BYTE PTR _ItemApply$[ebp]
  0006f	83 f8 07	 cmp	 eax, 7
  00072	75 2c		 jne	 SHORT $LN5@itemGetAff
  00074	8b 4d fc	 mov	 ecx, DWORD PTR _pItemData$[ebp]
  00077	e8 00 00 00 00	 call	 ?GetType@CItemData@@QBEEXZ ; CItemData::GetType
  0007c	0f b6 c0	 movzx	 eax, al
  0007f	83 f8 01	 cmp	 eax, 1
  00082	75 1c		 jne	 SHORT $LN5@itemGetAff
  00084	8b 4d fc	 mov	 ecx, DWORD PTR _pItemData$[ebp]
  00087	e8 00 00 00 00	 call	 ?GetSubType@CItemData@@QBEEXZ ; CItemData::GetSubType
  0008c	0f b6 c0	 movzx	 eax, al
  0008f	83 f8 03	 cmp	 eax, 3
  00092	75 0c		 jne	 SHORT $LN5@itemGetAff

; 239  : 	{
; 240  : 		ItemApply.lValue -= TWOHANDED_WEWAPON_ATT_SPEED_DECREASE_VALUE;

  00094	8b 45 ed	 mov	 eax, DWORD PTR _ItemApply$[ebp+1]
  00097	2b 05 00 00 00
	00		 sub	 eax, DWORD PTR ?TWOHANDED_WEWAPON_ATT_SPEED_DECREASE_VALUE@@3HA ; TWOHANDED_WEWAPON_ATT_SPEED_DECREASE_VALUE
  0009d	89 45 ed	 mov	 DWORD PTR _ItemApply$[ebp+1], eax
$LN5@itemGetAff:

; 241  : 	}
; 242  : 
; 243  : 	return Py_BuildValue("ii", ItemApply.bType, ItemApply.lValue);

  000a0	ff 75 ed	 push	 DWORD PTR _ItemApply$[ebp+1]
  000a3	0f b6 45 ec	 movzx	 eax, BYTE PTR _ItemApply$[ebp]
  000a7	50		 push	 eax
  000a8	68 00 00 00 00	 push	 OFFSET ??_C@_02PDIHAGKM@ii@
  000ad	ff 15 00 00 00
	00		 call	 DWORD PTR __imp__Py_BuildValue
  000b3	83 c4 0c	 add	 esp, 12			; 0000000cH
$LN1@itemGetAff:

; 244  : }

  000b6	c9		 leave
  000b7	c3		 ret	 0
?itemGetAffect@@YAPAU_object@@PAU1@0@Z ENDP		; itemGetAffect
_TEXT	ENDS
; Function compile flags: /Odspy
; File D:\Metin2 Server Files\mainline\SRC_2014\Metin2Client\UserInterface\PythonItemModule.cpp
; File D:\Metin2 Server Files\mainline\SRC_2014\Metin2Client\eterBase\Singleton.h
; File D:\Metin2 Server Files\mainline\SRC_2014\Metin2Client\UserInterface\PythonItemModule.cpp
;	COMDAT ?itemGetLimit@@YAPAU_object@@PAU1@0@Z
_TEXT	SEGMENT
_ItemLimit$ = -20					; size = 5
_iValueIndex$ = -12					; size = 4
$T1 = -8						; size = 4
_pItemData$ = -4					; size = 4
_poSelf$ = 8						; size = 4
_poArgs$ = 12						; size = 4
?itemGetLimit@@YAPAU_object@@PAU1@0@Z PROC		; itemGetLimit, COMDAT

; 208  : {

  00000	55		 push	 ebp
  00001	8b ec		 mov	 ebp, esp
  00003	83 ec 14	 sub	 esp, 20			; 00000014H

; 209  : 	int iValueIndex;
; 210  : 	if (!PyTuple_GetInteger(poArgs, 0, &iValueIndex))

  00006	8d 45 f4	 lea	 eax, DWORD PTR _iValueIndex$[ebp]
  00009	50		 push	 eax
  0000a	6a 00		 push	 0
  0000c	ff 75 0c	 push	 DWORD PTR _poArgs$[ebp]
  0000f	e8 00 00 00 00	 call	 ?PyTuple_GetInteger@@YA_NPAU_object@@HPAH@Z ; PyTuple_GetInteger
  00014	83 c4 0c	 add	 esp, 12			; 0000000cH
  00017	0f b6 c0	 movzx	 eax, al
  0001a	85 c0		 test	 eax, eax
  0001c	75 07		 jne	 SHORT $LN2@itemGetLim

; 211  : 		return Py_BadArgument();

  0001e	e8 00 00 00 00	 call	 ?Py_BadArgument@@YAPAU_object@@XZ ; Py_BadArgument
  00023	eb 59		 jmp	 SHORT $LN1@itemGetLim
$LN2@itemGetLim:
; File D:\Metin2 Server Files\mainline\SRC_2014\Metin2Client\eterBase\Singleton.h

; 27   : 		return (*ms_singleton);

  00025	a1 00 00 00 00	 mov	 eax, DWORD PTR ?ms_singleton@?$CSingleton@VCItemManager@@@@0PAVCItemManager@@A ; CSingleton<CItemManager>::ms_singleton
  0002a	89 45 f8	 mov	 DWORD PTR $T1[ebp], eax
; File D:\Metin2 Server Files\mainline\SRC_2014\Metin2Client\UserInterface\PythonItemModule.cpp

; 213  : 	CItemData * pItemData = CItemManager::Instance().GetSelectedItemDataPointer();

  0002d	8b 4d f8	 mov	 ecx, DWORD PTR $T1[ebp]
  00030	e8 00 00 00 00	 call	 ?GetSelectedItemDataPointer@CItemManager@@QAEPAVCItemData@@XZ ; CItemManager::GetSelectedItemDataPointer
  00035	89 45 fc	 mov	 DWORD PTR _pItemData$[ebp], eax

; 214  : 	if (!pItemData)

  00038	83 7d fc 00	 cmp	 DWORD PTR _pItemData$[ebp], 0
  0003c	75 0d		 jne	 SHORT $LN3@itemGetLim

; 215  : 		return Py_BuildException("Not yet select item data");

  0003e	68 00 00 00 00	 push	 OFFSET ??_C@_0BJ@FJOAFFCG@Not?5yet?5select?5item?5data@
  00043	e8 00 00 00 00	 call	 ?Py_BuildException@@YAPAU_object@@PBDZZ ; Py_BuildException
  00048	59		 pop	 ecx
  00049	eb 33		 jmp	 SHORT $LN1@itemGetLim
$LN3@itemGetLim:

; 216  : 
; 217  : 	CItemData::TItemLimit ItemLimit;
; 218  : 	if (!pItemData->GetLimit(iValueIndex, &ItemLimit))

  0004b	8d 45 ec	 lea	 eax, DWORD PTR _ItemLimit$[ebp]
  0004e	50		 push	 eax
  0004f	ff 75 f4	 push	 DWORD PTR _iValueIndex$[ebp]
  00052	8b 4d fc	 mov	 ecx, DWORD PTR _pItemData$[ebp]
  00055	e8 00 00 00 00	 call	 ?GetLimit@CItemData@@QBEHEPAUSItemLimit@1@@Z ; CItemData::GetLimit
  0005a	85 c0		 test	 eax, eax
  0005c	75 0a		 jne	 SHORT $LN4@itemGetLim

; 219  : 		return Py_BuildException();

  0005e	6a 00		 push	 0
  00060	e8 00 00 00 00	 call	 ?Py_BuildException@@YAPAU_object@@PBDZZ ; Py_BuildException
  00065	59		 pop	 ecx
  00066	eb 16		 jmp	 SHORT $LN1@itemGetLim
$LN4@itemGetLim:

; 220  : 
; 221  : 	return Py_BuildValue("ii", ItemLimit.bType, ItemLimit.lValue);

  00068	ff 75 ed	 push	 DWORD PTR _ItemLimit$[ebp+1]
  0006b	0f b6 45 ec	 movzx	 eax, BYTE PTR _ItemLimit$[ebp]
  0006f	50		 push	 eax
  00070	68 00 00 00 00	 push	 OFFSET ??_C@_02PDIHAGKM@ii@
  00075	ff 15 00 00 00
	00		 call	 DWORD PTR __imp__Py_BuildValue
  0007b	83 c4 0c	 add	 esp, 12			; 0000000cH
$LN1@itemGetLim:

; 222  : }

  0007e	c9		 leave
  0007f	c3		 ret	 0
?itemGetLimit@@YAPAU_object@@PAU1@0@Z ENDP		; itemGetLimit
_TEXT	ENDS
; Function compile flags: /Odspy
; File D:\Metin2 Server Files\mainline\SRC_2014\Metin2Client\UserInterface\PythonItemModule.cpp
; File D:\Metin2 Server Files\mainline\SRC_2014\Metin2Client\eterBase\Singleton.h
; File D:\Metin2 Server Files\mainline\SRC_2014\Metin2Client\UserInterface\PythonItemModule.cpp
;	COMDAT ?itemIs1GoldItem@@YAPAU_object@@PAU1@0@Z
_TEXT	SEGMENT
$T1 = -8						; size = 4
_pItemData$ = -4					; size = 4
_poSelf$ = 8						; size = 4
_poArgs$ = 12						; size = 4
?itemIs1GoldItem@@YAPAU_object@@PAU1@0@Z PROC		; itemIs1GoldItem, COMDAT

; 199  : {

  00000	55		 push	 ebp
  00001	8b ec		 mov	 ebp, esp
  00003	51		 push	 ecx
  00004	51		 push	 ecx
; File D:\Metin2 Server Files\mainline\SRC_2014\Metin2Client\eterBase\Singleton.h

; 27   : 		return (*ms_singleton);

  00005	a1 00 00 00 00	 mov	 eax, DWORD PTR ?ms_singleton@?$CSingleton@VCItemManager@@@@0PAVCItemManager@@A ; CSingleton<CItemManager>::ms_singleton
  0000a	89 45 f8	 mov	 DWORD PTR $T1[ebp], eax
; File D:\Metin2 Server Files\mainline\SRC_2014\Metin2Client\UserInterface\PythonItemModule.cpp

; 200  : 	CItemData * pItemData = CItemManager::Instance().GetSelectedItemDataPointer();

  0000d	8b 4d f8	 mov	 ecx, DWORD PTR $T1[ebp]
  00010	e8 00 00 00 00	 call	 ?GetSelectedItemDataPointer@CItemManager@@QAEPAVCItemData@@XZ ; CItemManager::GetSelectedItemDataPointer
  00015	89 45 fc	 mov	 DWORD PTR _pItemData$[ebp], eax

; 201  : 	if (!pItemData)

  00018	83 7d fc 00	 cmp	 DWORD PTR _pItemData$[ebp], 0
  0001c	75 0d		 jne	 SHORT $LN2@itemIs1Gol

; 202  : 		return Py_BuildException("no selected item data");

  0001e	68 00 00 00 00	 push	 OFFSET ??_C@_0BG@LNOAJHHG@no?5selected?5item?5data@
  00023	e8 00 00 00 00	 call	 ?Py_BuildException@@YAPAU_object@@PBDZZ ; Py_BuildException
  00028	59		 pop	 ecx
  00029	eb 18		 jmp	 SHORT $LN1@itemIs1Gol
$LN2@itemIs1Gol:

; 203  : 
; 204  : 	return Py_BuildValue("i", pItemData->IsFlag(CItemData::ITEM_FLAG_COUNT_PER_1GOLD));

  0002b	6a 08		 push	 8
  0002d	8b 4d fc	 mov	 ecx, DWORD PTR _pItemData$[ebp]
  00030	e8 00 00 00 00	 call	 ?IsFlag@CItemData@@QBEHK@Z ; CItemData::IsFlag
  00035	50		 push	 eax
  00036	68 00 00 00 00	 push	 OFFSET ??_C@_01KBJDNOO@i@
  0003b	ff 15 00 00 00
	00		 call	 DWORD PTR __imp__Py_BuildValue
  00041	59		 pop	 ecx
  00042	59		 pop	 ecx
$LN1@itemIs1Gol:

; 205  : }

  00043	c9		 leave
  00044	c3		 ret	 0
?itemIs1GoldItem@@YAPAU_object@@PAU1@0@Z ENDP		; itemIs1GoldItem
_TEXT	ENDS
; Function compile flags: /Odspy
; File D:\Metin2 Server Files\mainline\SRC_2014\Metin2Client\UserInterface\PythonItemModule.cpp
; File D:\Metin2 Server Files\mainline\SRC_2014\Metin2Client\eterBase\Singleton.h
; File D:\Metin2 Server Files\mainline\SRC_2014\Metin2Client\UserInterface\PythonItemModule.cpp
;	COMDAT ?itemIsWearableFlag@@YAPAU_object@@PAU1@0@Z
_TEXT	SEGMENT
_iFlag$ = -12						; size = 4
$T1 = -8						; size = 4
_pItemData$ = -4					; size = 4
_poSelf$ = 8						; size = 4
_poArgs$ = 12						; size = 4
?itemIsWearableFlag@@YAPAU_object@@PAU1@0@Z PROC	; itemIsWearableFlag, COMDAT

; 186  : {

  00000	55		 push	 ebp
  00001	8b ec		 mov	 ebp, esp
  00003	83 ec 0c	 sub	 esp, 12			; 0000000cH

; 187  : 	int iFlag;
; 188  : 	if (!PyTuple_GetInteger(poArgs, 0, &iFlag))

  00006	8d 45 f4	 lea	 eax, DWORD PTR _iFlag$[ebp]
  00009	50		 push	 eax
  0000a	6a 00		 push	 0
  0000c	ff 75 0c	 push	 DWORD PTR _poArgs$[ebp]
  0000f	e8 00 00 00 00	 call	 ?PyTuple_GetInteger@@YA_NPAU_object@@HPAH@Z ; PyTuple_GetInteger
  00014	83 c4 0c	 add	 esp, 12			; 0000000cH
  00017	0f b6 c0	 movzx	 eax, al
  0001a	85 c0		 test	 eax, eax
  0001c	75 07		 jne	 SHORT $LN2@itemIsWear

; 189  : 		return Py_BadArgument();

  0001e	e8 00 00 00 00	 call	 ?Py_BadArgument@@YAPAU_object@@XZ ; Py_BadArgument
  00023	eb 3f		 jmp	 SHORT $LN1@itemIsWear
$LN2@itemIsWear:
; File D:\Metin2 Server Files\mainline\SRC_2014\Metin2Client\eterBase\Singleton.h

; 27   : 		return (*ms_singleton);

  00025	a1 00 00 00 00	 mov	 eax, DWORD PTR ?ms_singleton@?$CSingleton@VCItemManager@@@@0PAVCItemManager@@A ; CSingleton<CItemManager>::ms_singleton
  0002a	89 45 f8	 mov	 DWORD PTR $T1[ebp], eax
; File D:\Metin2 Server Files\mainline\SRC_2014\Metin2Client\UserInterface\PythonItemModule.cpp

; 191  : 	CItemData * pItemData = CItemManager::Instance().GetSelectedItemDataPointer();

  0002d	8b 4d f8	 mov	 ecx, DWORD PTR $T1[ebp]
  00030	e8 00 00 00 00	 call	 ?GetSelectedItemDataPointer@CItemManager@@QAEPAVCItemData@@XZ ; CItemManager::GetSelectedItemDataPointer
  00035	89 45 fc	 mov	 DWORD PTR _pItemData$[ebp], eax

; 192  : 	if (!pItemData)

  00038	83 7d fc 00	 cmp	 DWORD PTR _pItemData$[ebp], 0
  0003c	75 0d		 jne	 SHORT $LN3@itemIsWear

; 193  : 		return Py_BuildException("no selected item data");

  0003e	68 00 00 00 00	 push	 OFFSET ??_C@_0BG@LNOAJHHG@no?5selected?5item?5data@
  00043	e8 00 00 00 00	 call	 ?Py_BuildException@@YAPAU_object@@PBDZZ ; Py_BuildException
  00048	59		 pop	 ecx
  00049	eb 19		 jmp	 SHORT $LN1@itemIsWear
$LN3@itemIsWear:

; 194  : 
; 195  : 	return Py_BuildValue("i", pItemData->IsWearableFlag(iFlag));

  0004b	ff 75 f4	 push	 DWORD PTR _iFlag$[ebp]
  0004e	8b 4d fc	 mov	 ecx, DWORD PTR _pItemData$[ebp]
  00051	e8 00 00 00 00	 call	 ?IsWearableFlag@CItemData@@QBEHK@Z ; CItemData::IsWearableFlag
  00056	50		 push	 eax
  00057	68 00 00 00 00	 push	 OFFSET ??_C@_01KBJDNOO@i@
  0005c	ff 15 00 00 00
	00		 call	 DWORD PTR __imp__Py_BuildValue
  00062	59		 pop	 ecx
  00063	59		 pop	 ecx
$LN1@itemIsWear:

; 196  : }

  00064	c9		 leave
  00065	c3		 ret	 0
?itemIsWearableFlag@@YAPAU_object@@PAU1@0@Z ENDP	; itemIsWearableFlag
_TEXT	ENDS
; Function compile flags: /Odspy
; File D:\Metin2 Server Files\mainline\SRC_2014\Metin2Client\UserInterface\PythonItemModule.cpp
; File D:\Metin2 Server Files\mainline\SRC_2014\Metin2Client\eterBase\Singleton.h
; File D:\Metin2 Server Files\mainline\SRC_2014\Metin2Client\UserInterface\PythonItemModule.cpp
;	COMDAT ?itemIsFlag@@YAPAU_object@@PAU1@0@Z
_TEXT	SEGMENT
_iFlag$ = -12						; size = 4
$T1 = -8						; size = 4
_pItemData$ = -4					; size = 4
_poSelf$ = 8						; size = 4
_poArgs$ = 12						; size = 4
?itemIsFlag@@YAPAU_object@@PAU1@0@Z PROC		; itemIsFlag, COMDAT

; 173  : {

  00000	55		 push	 ebp
  00001	8b ec		 mov	 ebp, esp
  00003	83 ec 0c	 sub	 esp, 12			; 0000000cH

; 174  : 	int iFlag;
; 175  : 	if (!PyTuple_GetInteger(poArgs, 0, &iFlag))

  00006	8d 45 f4	 lea	 eax, DWORD PTR _iFlag$[ebp]
  00009	50		 push	 eax
  0000a	6a 00		 push	 0
  0000c	ff 75 0c	 push	 DWORD PTR _poArgs$[ebp]
  0000f	e8 00 00 00 00	 call	 ?PyTuple_GetInteger@@YA_NPAU_object@@HPAH@Z ; PyTuple_GetInteger
  00014	83 c4 0c	 add	 esp, 12			; 0000000cH
  00017	0f b6 c0	 movzx	 eax, al
  0001a	85 c0		 test	 eax, eax
  0001c	75 07		 jne	 SHORT $LN2@itemIsFlag

; 176  : 		return Py_BadArgument();

  0001e	e8 00 00 00 00	 call	 ?Py_BadArgument@@YAPAU_object@@XZ ; Py_BadArgument
  00023	eb 3f		 jmp	 SHORT $LN1@itemIsFlag
$LN2@itemIsFlag:
; File D:\Metin2 Server Files\mainline\SRC_2014\Metin2Client\eterBase\Singleton.h

; 27   : 		return (*ms_singleton);

  00025	a1 00 00 00 00	 mov	 eax, DWORD PTR ?ms_singleton@?$CSingleton@VCItemManager@@@@0PAVCItemManager@@A ; CSingleton<CItemManager>::ms_singleton
  0002a	89 45 f8	 mov	 DWORD PTR $T1[ebp], eax
; File D:\Metin2 Server Files\mainline\SRC_2014\Metin2Client\UserInterface\PythonItemModule.cpp

; 178  : 	CItemData * pItemData = CItemManager::Instance().GetSelectedItemDataPointer();

  0002d	8b 4d f8	 mov	 ecx, DWORD PTR $T1[ebp]
  00030	e8 00 00 00 00	 call	 ?GetSelectedItemDataPointer@CItemManager@@QAEPAVCItemData@@XZ ; CItemManager::GetSelectedItemDataPointer
  00035	89 45 fc	 mov	 DWORD PTR _pItemData$[ebp], eax

; 179  : 	if (!pItemData)

  00038	83 7d fc 00	 cmp	 DWORD PTR _pItemData$[ebp], 0
  0003c	75 0d		 jne	 SHORT $LN3@itemIsFlag

; 180  : 		return Py_BuildException("no selected item data");

  0003e	68 00 00 00 00	 push	 OFFSET ??_C@_0BG@LNOAJHHG@no?5selected?5item?5data@
  00043	e8 00 00 00 00	 call	 ?Py_BuildException@@YAPAU_object@@PBDZZ ; Py_BuildException
  00048	59		 pop	 ecx
  00049	eb 19		 jmp	 SHORT $LN1@itemIsFlag
$LN3@itemIsFlag:

; 181  : 
; 182  : 	return Py_BuildValue("i", pItemData->IsFlag(iFlag));

  0004b	ff 75 f4	 push	 DWORD PTR _iFlag$[ebp]
  0004e	8b 4d fc	 mov	 ecx, DWORD PTR _pItemData$[ebp]
  00051	e8 00 00 00 00	 call	 ?IsFlag@CItemData@@QBEHK@Z ; CItemData::IsFlag
  00056	50		 push	 eax
  00057	68 00 00 00 00	 push	 OFFSET ??_C@_01KBJDNOO@i@
  0005c	ff 15 00 00 00
	00		 call	 DWORD PTR __imp__Py_BuildValue
  00062	59		 pop	 ecx
  00063	59		 pop	 ecx
$LN1@itemIsFlag:

; 183  : }

  00064	c9		 leave
  00065	c3		 ret	 0
?itemIsFlag@@YAPAU_object@@PAU1@0@Z ENDP		; itemIsFlag
_TEXT	ENDS
; Function compile flags: /Odspy
; File D:\Metin2 Server Files\mainline\SRC_2014\Metin2Client\UserInterface\PythonItemModule.cpp
; File D:\Metin2 Server Files\mainline\SRC_2014\Metin2Client\eterBase\Singleton.h
; File D:\Metin2 Server Files\mainline\SRC_2014\Metin2Client\UserInterface\PythonItemModule.cpp
;	COMDAT ?itemIsAntiFlag@@YAPAU_object@@PAU1@0@Z
_TEXT	SEGMENT
_iFlag$ = -12						; size = 4
$T1 = -8						; size = 4
_pItemData$ = -4					; size = 4
_poSelf$ = 8						; size = 4
_poArgs$ = 12						; size = 4
?itemIsAntiFlag@@YAPAU_object@@PAU1@0@Z PROC		; itemIsAntiFlag, COMDAT

; 160  : {

  00000	55		 push	 ebp
  00001	8b ec		 mov	 ebp, esp
  00003	83 ec 0c	 sub	 esp, 12			; 0000000cH

; 161  : 	int iFlag;
; 162  : 	if (!PyTuple_GetInteger(poArgs, 0, &iFlag))

  00006	8d 45 f4	 lea	 eax, DWORD PTR _iFlag$[ebp]
  00009	50		 push	 eax
  0000a	6a 00		 push	 0
  0000c	ff 75 0c	 push	 DWORD PTR _poArgs$[ebp]
  0000f	e8 00 00 00 00	 call	 ?PyTuple_GetInteger@@YA_NPAU_object@@HPAH@Z ; PyTuple_GetInteger
  00014	83 c4 0c	 add	 esp, 12			; 0000000cH
  00017	0f b6 c0	 movzx	 eax, al
  0001a	85 c0		 test	 eax, eax
  0001c	75 07		 jne	 SHORT $LN2@itemIsAnti

; 163  : 		return Py_BadArgument();

  0001e	e8 00 00 00 00	 call	 ?Py_BadArgument@@YAPAU_object@@XZ ; Py_BadArgument
  00023	eb 3f		 jmp	 SHORT $LN1@itemIsAnti
$LN2@itemIsAnti:
; File D:\Metin2 Server Files\mainline\SRC_2014\Metin2Client\eterBase\Singleton.h

; 27   : 		return (*ms_singleton);

  00025	a1 00 00 00 00	 mov	 eax, DWORD PTR ?ms_singleton@?$CSingleton@VCItemManager@@@@0PAVCItemManager@@A ; CSingleton<CItemManager>::ms_singleton
  0002a	89 45 f8	 mov	 DWORD PTR $T1[ebp], eax
; File D:\Metin2 Server Files\mainline\SRC_2014\Metin2Client\UserInterface\PythonItemModule.cpp

; 165  : 	CItemData * pItemData = CItemManager::Instance().GetSelectedItemDataPointer();

  0002d	8b 4d f8	 mov	 ecx, DWORD PTR $T1[ebp]
  00030	e8 00 00 00 00	 call	 ?GetSelectedItemDataPointer@CItemManager@@QAEPAVCItemData@@XZ ; CItemManager::GetSelectedItemDataPointer
  00035	89 45 fc	 mov	 DWORD PTR _pItemData$[ebp], eax

; 166  : 	if (!pItemData)

  00038	83 7d fc 00	 cmp	 DWORD PTR _pItemData$[ebp], 0
  0003c	75 0d		 jne	 SHORT $LN3@itemIsAnti

; 167  : 		return Py_BuildException("no selected item data");

  0003e	68 00 00 00 00	 push	 OFFSET ??_C@_0BG@LNOAJHHG@no?5selected?5item?5data@
  00043	e8 00 00 00 00	 call	 ?Py_BuildException@@YAPAU_object@@PBDZZ ; Py_BuildException
  00048	59		 pop	 ecx
  00049	eb 19		 jmp	 SHORT $LN1@itemIsAnti
$LN3@itemIsAnti:

; 168  : 
; 169  : 	return Py_BuildValue("i", pItemData->IsAntiFlag(iFlag));

  0004b	ff 75 f4	 push	 DWORD PTR _iFlag$[ebp]
  0004e	8b 4d fc	 mov	 ecx, DWORD PTR _pItemData$[ebp]
  00051	e8 00 00 00 00	 call	 ?IsAntiFlag@CItemData@@QBEHK@Z ; CItemData::IsAntiFlag
  00056	50		 push	 eax
  00057	68 00 00 00 00	 push	 OFFSET ??_C@_01KBJDNOO@i@
  0005c	ff 15 00 00 00
	00		 call	 DWORD PTR __imp__Py_BuildValue
  00062	59		 pop	 ecx
  00063	59		 pop	 ecx
$LN1@itemIsAnti:

; 170  : }

  00064	c9		 leave
  00065	c3		 ret	 0
?itemIsAntiFlag@@YAPAU_object@@PAU1@0@Z ENDP		; itemIsAntiFlag
_TEXT	ENDS
; Function compile flags: /Odspy
; File D:\Metin2 Server Files\mainline\SRC_2014\Metin2Client\UserInterface\PythonItemModule.cpp
; File D:\Metin2 Server Files\mainline\SRC_2014\Metin2Client\eterBase\Singleton.h
; File D:\Metin2 Server Files\mainline\SRC_2014\Metin2Client\UserInterface\PythonItemModule.cpp
;	COMDAT ?itemGetISellItemPrice@@YAPAU_object@@PAU1@0@Z
_TEXT	SEGMENT
$T1 = -8						; size = 4
_pItemData$ = -4					; size = 4
_poSelf$ = 8						; size = 4
_poArgs$ = 12						; size = 4
?itemGetISellItemPrice@@YAPAU_object@@PAU1@0@Z PROC	; itemGetISellItemPrice, COMDAT

; 149  : {

  00000	55		 push	 ebp
  00001	8b ec		 mov	 ebp, esp
  00003	51		 push	 ecx
  00004	51		 push	 ecx
; File D:\Metin2 Server Files\mainline\SRC_2014\Metin2Client\eterBase\Singleton.h

; 27   : 		return (*ms_singleton);

  00005	a1 00 00 00 00	 mov	 eax, DWORD PTR ?ms_singleton@?$CSingleton@VCItemManager@@@@0PAVCItemManager@@A ; CSingleton<CItemManager>::ms_singleton
  0000a	89 45 f8	 mov	 DWORD PTR $T1[ebp], eax
; File D:\Metin2 Server Files\mainline\SRC_2014\Metin2Client\UserInterface\PythonItemModule.cpp

; 150  : 	CItemData * pItemData = CItemManager::Instance().GetSelectedItemDataPointer();

  0000d	8b 4d f8	 mov	 ecx, DWORD PTR $T1[ebp]
  00010	e8 00 00 00 00	 call	 ?GetSelectedItemDataPointer@CItemManager@@QAEPAVCItemData@@XZ ; CItemManager::GetSelectedItemDataPointer
  00015	89 45 fc	 mov	 DWORD PTR _pItemData$[ebp], eax

; 151  : 	
; 152  : 	if (!pItemData)

  00018	83 7d fc 00	 cmp	 DWORD PTR _pItemData$[ebp], 0
  0001c	75 0d		 jne	 SHORT $LN2@itemGetISe

; 153  : 		return Py_BuildException("no selected item data");

  0001e	68 00 00 00 00	 push	 OFFSET ??_C@_0BG@LNOAJHHG@no?5selected?5item?5data@
  00023	e8 00 00 00 00	 call	 ?Py_BuildException@@YAPAU_object@@PBDZZ ; Py_BuildException
  00028	59		 pop	 ecx
  00029	eb 16		 jmp	 SHORT $LN1@itemGetISe
$LN2@itemGetISe:

; 154  : 
; 155  : 	return Py_BuildValue("i", pItemData->GetISellItemPrice());

  0002b	8b 4d fc	 mov	 ecx, DWORD PTR _pItemData$[ebp]
  0002e	e8 00 00 00 00	 call	 ?GetISellItemPrice@CItemData@@QBEKXZ ; CItemData::GetISellItemPrice
  00033	50		 push	 eax
  00034	68 00 00 00 00	 push	 OFFSET ??_C@_01KBJDNOO@i@
  00039	ff 15 00 00 00
	00		 call	 DWORD PTR __imp__Py_BuildValue
  0003f	59		 pop	 ecx
  00040	59		 pop	 ecx
$LN1@itemGetISe:

; 156  : }

  00041	c9		 leave
  00042	c3		 ret	 0
?itemGetISellItemPrice@@YAPAU_object@@PAU1@0@Z ENDP	; itemGetISellItemPrice
_TEXT	ENDS
; Function compile flags: /Odspy
; File D:\Metin2 Server Files\mainline\SRC_2014\Metin2Client\UserInterface\PythonItemModule.cpp
; File D:\Metin2 Server Files\mainline\SRC_2014\Metin2Client\eterBase\Singleton.h
; File D:\Metin2 Server Files\mainline\SRC_2014\Metin2Client\UserInterface\PythonItemModule.cpp
;	COMDAT ?itemGetIBuyItemPrice@@YAPAU_object@@PAU1@0@Z
_TEXT	SEGMENT
$T1 = -8						; size = 4
_pItemData$ = -4					; size = 4
_poSelf$ = 8						; size = 4
_poArgs$ = 12						; size = 4
?itemGetIBuyItemPrice@@YAPAU_object@@PAU1@0@Z PROC	; itemGetIBuyItemPrice, COMDAT

; 139  : {

  00000	55		 push	 ebp
  00001	8b ec		 mov	 ebp, esp
  00003	51		 push	 ecx
  00004	51		 push	 ecx
; File D:\Metin2 Server Files\mainline\SRC_2014\Metin2Client\eterBase\Singleton.h

; 27   : 		return (*ms_singleton);

  00005	a1 00 00 00 00	 mov	 eax, DWORD PTR ?ms_singleton@?$CSingleton@VCItemManager@@@@0PAVCItemManager@@A ; CSingleton<CItemManager>::ms_singleton
  0000a	89 45 f8	 mov	 DWORD PTR $T1[ebp], eax
; File D:\Metin2 Server Files\mainline\SRC_2014\Metin2Client\UserInterface\PythonItemModule.cpp

; 140  : 	CItemData * pItemData = CItemManager::Instance().GetSelectedItemDataPointer();

  0000d	8b 4d f8	 mov	 ecx, DWORD PTR $T1[ebp]
  00010	e8 00 00 00 00	 call	 ?GetSelectedItemDataPointer@CItemManager@@QAEPAVCItemData@@XZ ; CItemManager::GetSelectedItemDataPointer
  00015	89 45 fc	 mov	 DWORD PTR _pItemData$[ebp], eax

; 141  : 	
; 142  : 	if (!pItemData)

  00018	83 7d fc 00	 cmp	 DWORD PTR _pItemData$[ebp], 0
  0001c	75 0d		 jne	 SHORT $LN2@itemGetIBu

; 143  : 		return Py_BuildException("no selected item data");

  0001e	68 00 00 00 00	 push	 OFFSET ??_C@_0BG@LNOAJHHG@no?5selected?5item?5data@
  00023	e8 00 00 00 00	 call	 ?Py_BuildException@@YAPAU_object@@PBDZZ ; Py_BuildException
  00028	59		 pop	 ecx
  00029	eb 16		 jmp	 SHORT $LN1@itemGetIBu
$LN2@itemGetIBu:

; 144  : 
; 145  : 	return Py_BuildValue("i", pItemData->GetIBuyItemPrice());

  0002b	8b 4d fc	 mov	 ecx, DWORD PTR _pItemData$[ebp]
  0002e	e8 00 00 00 00	 call	 ?GetIBuyItemPrice@CItemData@@QBEKXZ ; CItemData::GetIBuyItemPrice
  00033	50		 push	 eax
  00034	68 00 00 00 00	 push	 OFFSET ??_C@_01KBJDNOO@i@
  00039	ff 15 00 00 00
	00		 call	 DWORD PTR __imp__Py_BuildValue
  0003f	59		 pop	 ecx
  00040	59		 pop	 ecx
$LN1@itemGetIBu:

; 146  : }

  00041	c9		 leave
  00042	c3		 ret	 0
?itemGetIBuyItemPrice@@YAPAU_object@@PAU1@0@Z ENDP	; itemGetIBuyItemPrice
_TEXT	ENDS
; Function compile flags: /Odspy
; File D:\Metin2 Server Files\mainline\SRC_2014\Metin2Client\UserInterface\PythonItemModule.cpp
; File D:\Metin2 Server Files\mainline\SRC_2014\Metin2Client\eterBase\Singleton.h
; File D:\Metin2 Server Files\mainline\SRC_2014\Metin2Client\UserInterface\PythonItemModule.cpp
;	COMDAT ?itemGetItemSubType@@YAPAU_object@@PAU1@0@Z
_TEXT	SEGMENT
$T1 = -8						; size = 4
_pItemData$ = -4					; size = 4
_poSelf$ = 8						; size = 4
_poArgs$ = 12						; size = 4
?itemGetItemSubType@@YAPAU_object@@PAU1@0@Z PROC	; itemGetItemSubType, COMDAT

; 130  : {

  00000	55		 push	 ebp
  00001	8b ec		 mov	 ebp, esp
  00003	51		 push	 ecx
  00004	51		 push	 ecx
; File D:\Metin2 Server Files\mainline\SRC_2014\Metin2Client\eterBase\Singleton.h

; 27   : 		return (*ms_singleton);

  00005	a1 00 00 00 00	 mov	 eax, DWORD PTR ?ms_singleton@?$CSingleton@VCItemManager@@@@0PAVCItemManager@@A ; CSingleton<CItemManager>::ms_singleton
  0000a	89 45 f8	 mov	 DWORD PTR $T1[ebp], eax
; File D:\Metin2 Server Files\mainline\SRC_2014\Metin2Client\UserInterface\PythonItemModule.cpp

; 131  : 	CItemData * pItemData = CItemManager::Instance().GetSelectedItemDataPointer();

  0000d	8b 4d f8	 mov	 ecx, DWORD PTR $T1[ebp]
  00010	e8 00 00 00 00	 call	 ?GetSelectedItemDataPointer@CItemManager@@QAEPAVCItemData@@XZ ; CItemManager::GetSelectedItemDataPointer
  00015	89 45 fc	 mov	 DWORD PTR _pItemData$[ebp], eax

; 132  : 	if (!pItemData)

  00018	83 7d fc 00	 cmp	 DWORD PTR _pItemData$[ebp], 0
  0001c	75 0d		 jne	 SHORT $LN2@itemGetIte

; 133  : 		return Py_BuildException("no selected item data");

  0001e	68 00 00 00 00	 push	 OFFSET ??_C@_0BG@LNOAJHHG@no?5selected?5item?5data@
  00023	e8 00 00 00 00	 call	 ?Py_BuildException@@YAPAU_object@@PBDZZ ; Py_BuildException
  00028	59		 pop	 ecx
  00029	eb 19		 jmp	 SHORT $LN1@itemGetIte
$LN2@itemGetIte:

; 134  : 
; 135  : 	return Py_BuildValue("i", pItemData->GetSubType());

  0002b	8b 4d fc	 mov	 ecx, DWORD PTR _pItemData$[ebp]
  0002e	e8 00 00 00 00	 call	 ?GetSubType@CItemData@@QBEEXZ ; CItemData::GetSubType
  00033	0f b6 c0	 movzx	 eax, al
  00036	50		 push	 eax
  00037	68 00 00 00 00	 push	 OFFSET ??_C@_01KBJDNOO@i@
  0003c	ff 15 00 00 00
	00		 call	 DWORD PTR __imp__Py_BuildValue
  00042	59		 pop	 ecx
  00043	59		 pop	 ecx
$LN1@itemGetIte:

; 136  : }

  00044	c9		 leave
  00045	c3		 ret	 0
?itemGetItemSubType@@YAPAU_object@@PAU1@0@Z ENDP	; itemGetItemSubType
_TEXT	ENDS
; Function compile flags: /Odspy
; File D:\Metin2 Server Files\mainline\SRC_2014\Metin2Client\UserInterface\PythonItemModule.cpp
; File D:\Metin2 Server Files\mainline\SRC_2014\Metin2Client\eterBase\Singleton.h
; File D:\Metin2 Server Files\mainline\SRC_2014\Metin2Client\UserInterface\PythonItemModule.cpp
;	COMDAT ?itemGetItemType@@YAPAU_object@@PAU1@0@Z
_TEXT	SEGMENT
$T1 = -8						; size = 4
_pItemData$ = -4					; size = 4
_poSelf$ = 8						; size = 4
_poArgs$ = 12						; size = 4
?itemGetItemType@@YAPAU_object@@PAU1@0@Z PROC		; itemGetItemType, COMDAT

; 121  : {

  00000	55		 push	 ebp
  00001	8b ec		 mov	 ebp, esp
  00003	51		 push	 ecx
  00004	51		 push	 ecx
; File D:\Metin2 Server Files\mainline\SRC_2014\Metin2Client\eterBase\Singleton.h

; 27   : 		return (*ms_singleton);

  00005	a1 00 00 00 00	 mov	 eax, DWORD PTR ?ms_singleton@?$CSingleton@VCItemManager@@@@0PAVCItemManager@@A ; CSingleton<CItemManager>::ms_singleton
  0000a	89 45 f8	 mov	 DWORD PTR $T1[ebp], eax
; File D:\Metin2 Server Files\mainline\SRC_2014\Metin2Client\UserInterface\PythonItemModule.cpp

; 122  : 	CItemData * pItemData = CItemManager::Instance().GetSelectedItemDataPointer();

  0000d	8b 4d f8	 mov	 ecx, DWORD PTR $T1[ebp]
  00010	e8 00 00 00 00	 call	 ?GetSelectedItemDataPointer@CItemManager@@QAEPAVCItemData@@XZ ; CItemManager::GetSelectedItemDataPointer
  00015	89 45 fc	 mov	 DWORD PTR _pItemData$[ebp], eax

; 123  : 	if (!pItemData)

  00018	83 7d fc 00	 cmp	 DWORD PTR _pItemData$[ebp], 0
  0001c	75 0d		 jne	 SHORT $LN2@itemGetIte

; 124  : 		return Py_BuildException("no selected item data");

  0001e	68 00 00 00 00	 push	 OFFSET ??_C@_0BG@LNOAJHHG@no?5selected?5item?5data@
  00023	e8 00 00 00 00	 call	 ?Py_BuildException@@YAPAU_object@@PBDZZ ; Py_BuildException
  00028	59		 pop	 ecx
  00029	eb 19		 jmp	 SHORT $LN1@itemGetIte
$LN2@itemGetIte:

; 125  : 
; 126  : 	return Py_BuildValue("i", pItemData->GetType());

  0002b	8b 4d fc	 mov	 ecx, DWORD PTR _pItemData$[ebp]
  0002e	e8 00 00 00 00	 call	 ?GetType@CItemData@@QBEEXZ ; CItemData::GetType
  00033	0f b6 c0	 movzx	 eax, al
  00036	50		 push	 eax
  00037	68 00 00 00 00	 push	 OFFSET ??_C@_01KBJDNOO@i@
  0003c	ff 15 00 00 00
	00		 call	 DWORD PTR __imp__Py_BuildValue
  00042	59		 pop	 ecx
  00043	59		 pop	 ecx
$LN1@itemGetIte:

; 127  : }

  00044	c9		 leave
  00045	c3		 ret	 0
?itemGetItemType@@YAPAU_object@@PAU1@0@Z ENDP		; itemGetItemType
_TEXT	ENDS
; Function compile flags: /Odspy
; File D:\Metin2 Server Files\mainline\SRC_2014\Metin2Client\UserInterface\PythonItemModule.cpp
; File D:\Metin2 Server Files\mainline\SRC_2014\Metin2Client\eterBase\Singleton.h
; File D:\Metin2 Server Files\mainline\SRC_2014\Metin2Client\UserInterface\PythonItemModule.cpp
;	COMDAT ?itemGetItemSize@@YAPAU_object@@PAU1@0@Z
_TEXT	SEGMENT
$T1 = -8						; size = 4
_pItemData$ = -4					; size = 4
_poSelf$ = 8						; size = 4
_poArgs$ = 12						; size = 4
?itemGetItemSize@@YAPAU_object@@PAU1@0@Z PROC		; itemGetItemSize, COMDAT

; 112  : {

  00000	55		 push	 ebp
  00001	8b ec		 mov	 ebp, esp
  00003	51		 push	 ecx
  00004	51		 push	 ecx
; File D:\Metin2 Server Files\mainline\SRC_2014\Metin2Client\eterBase\Singleton.h

; 27   : 		return (*ms_singleton);

  00005	a1 00 00 00 00	 mov	 eax, DWORD PTR ?ms_singleton@?$CSingleton@VCItemManager@@@@0PAVCItemManager@@A ; CSingleton<CItemManager>::ms_singleton
  0000a	89 45 f8	 mov	 DWORD PTR $T1[ebp], eax
; File D:\Metin2 Server Files\mainline\SRC_2014\Metin2Client\UserInterface\PythonItemModule.cpp

; 113  : 	CItemData * pItemData = CItemManager::Instance().GetSelectedItemDataPointer();

  0000d	8b 4d f8	 mov	 ecx, DWORD PTR $T1[ebp]
  00010	e8 00 00 00 00	 call	 ?GetSelectedItemDataPointer@CItemManager@@QAEPAVCItemData@@XZ ; CItemManager::GetSelectedItemDataPointer
  00015	89 45 fc	 mov	 DWORD PTR _pItemData$[ebp], eax

; 114  : 	if (!pItemData)

  00018	83 7d fc 00	 cmp	 DWORD PTR _pItemData$[ebp], 0
  0001c	75 0d		 jne	 SHORT $LN2@itemGetIte

; 115  : 		return Py_BuildException("no selected item data");

  0001e	68 00 00 00 00	 push	 OFFSET ??_C@_0BG@LNOAJHHG@no?5selected?5item?5data@
  00023	e8 00 00 00 00	 call	 ?Py_BuildException@@YAPAU_object@@PBDZZ ; Py_BuildException
  00028	59		 pop	 ecx
  00029	eb 1c		 jmp	 SHORT $LN1@itemGetIte
$LN2@itemGetIte:

; 116  : 
; 117  : 	return Py_BuildValue("(ii)", 1, pItemData->GetSize());

  0002b	8b 4d fc	 mov	 ecx, DWORD PTR _pItemData$[ebp]
  0002e	e8 00 00 00 00	 call	 ?GetSize@CItemData@@QBEEXZ ; CItemData::GetSize
  00033	0f b6 c0	 movzx	 eax, al
  00036	50		 push	 eax
  00037	6a 01		 push	 1
  00039	68 00 00 00 00	 push	 OFFSET ??_C@_04INACLLOK@?$CIii?$CJ@
  0003e	ff 15 00 00 00
	00		 call	 DWORD PTR __imp__Py_BuildValue
  00044	83 c4 0c	 add	 esp, 12			; 0000000cH
$LN1@itemGetIte:

; 118  : }

  00047	c9		 leave
  00048	c3		 ret	 0
?itemGetItemSize@@YAPAU_object@@PAU1@0@Z ENDP		; itemGetItemSize
_TEXT	ENDS
; Function compile flags: /Odspy
; File D:\Metin2 Server Files\mainline\SRC_2014\Metin2Client\UserInterface\PythonItemModule.cpp
; File D:\Metin2 Server Files\mainline\SRC_2014\Metin2Client\eterBase\Singleton.h
; File D:\Metin2 Server Files\mainline\SRC_2014\Metin2Client\UserInterface\PythonItemModule.cpp
; File C:\Program Files (x86)\Microsoft Visual Studio\2019\Community\VC\Tools\MSVC\14.28.29333\include\xstring
; File D:\Metin2 Server Files\mainline\SRC_2014\Metin2Client\UserInterface\PythonItemModule.cpp
;	COMDAT ?itemGetIconImageFileName@@YAPAU_object@@PAU1@0@Z
_TEXT	SEGMENT
$T1 = -16						; size = 4
$T2 = -12						; size = 4
_pImage$ = -8						; size = 4
_pItemData$ = -4					; size = 4
_poSelf$ = 8						; size = 4
_poArgs$ = 12						; size = 4
?itemGetIconImageFileName@@YAPAU_object@@PAU1@0@Z PROC	; itemGetIconImageFileName, COMDAT

; 99   : {

  00000	55		 push	 ebp
  00001	8b ec		 mov	 ebp, esp
  00003	83 ec 10	 sub	 esp, 16			; 00000010H
; File D:\Metin2 Server Files\mainline\SRC_2014\Metin2Client\eterBase\Singleton.h

; 27   : 		return (*ms_singleton);

  00006	a1 00 00 00 00	 mov	 eax, DWORD PTR ?ms_singleton@?$CSingleton@VCItemManager@@@@0PAVCItemManager@@A ; CSingleton<CItemManager>::ms_singleton
  0000b	89 45 f4	 mov	 DWORD PTR $T2[ebp], eax
; File D:\Metin2 Server Files\mainline\SRC_2014\Metin2Client\UserInterface\PythonItemModule.cpp

; 100  : 	CItemData * pItemData = CItemManager::Instance().GetSelectedItemDataPointer();

  0000e	8b 4d f4	 mov	 ecx, DWORD PTR $T2[ebp]
  00011	e8 00 00 00 00	 call	 ?GetSelectedItemDataPointer@CItemManager@@QAEPAVCItemData@@XZ ; CItemManager::GetSelectedItemDataPointer
  00016	89 45 fc	 mov	 DWORD PTR _pItemData$[ebp], eax

; 101  : 	if (!pItemData)

  00019	83 7d fc 00	 cmp	 DWORD PTR _pItemData$[ebp], 0
  0001d	75 0d		 jne	 SHORT $LN2@itemGetIco

; 102  : 		return Py_BuildException("no selected item data");

  0001f	68 00 00 00 00	 push	 OFFSET ??_C@_0BG@LNOAJHHG@no?5selected?5item?5data@
  00024	e8 00 00 00 00	 call	 ?Py_BuildException@@YAPAU_object@@PBDZZ ; Py_BuildException
  00029	59		 pop	 ecx
  0002a	eb 43		 jmp	 SHORT $LN1@itemGetIco
$LN2@itemGetIco:

; 103  : 
; 104  : 	CGraphicSubImage * pImage = pItemData->GetIconImage();

  0002c	8b 4d fc	 mov	 ecx, DWORD PTR _pItemData$[ebp]
  0002f	e8 00 00 00 00	 call	 ?GetIconImage@CItemData@@QAEPAVCGraphicSubImage@@XZ ; CItemData::GetIconImage
  00034	89 45 f8	 mov	 DWORD PTR _pImage$[ebp], eax

; 105  : 	if (!pImage)

  00037	83 7d f8 00	 cmp	 DWORD PTR _pImage$[ebp], 0
  0003b	75 14		 jne	 SHORT $LN3@itemGetIco

; 106  : 		return Py_BuildValue("s", "Noname");

  0003d	68 00 00 00 00	 push	 OFFSET ??_C@_06HCBIANPB@Noname@
  00042	68 00 00 00 00	 push	 OFFSET ??_C@_01LKDEMHDF@s@
  00047	ff 15 00 00 00
	00		 call	 DWORD PTR __imp__Py_BuildValue
  0004d	59		 pop	 ecx
  0004e	59		 pop	 ecx
  0004f	eb 1e		 jmp	 SHORT $LN1@itemGetIco
$LN3@itemGetIco:
; File C:\Program Files (x86)\Microsoft Visual Studio\2019\Community\VC\Tools\MSVC\14.28.29333\include\xstring

; 3752 :         return _Mypair._Myval2._Myptr();

  00051	8b 4d f8	 mov	 ecx, DWORD PTR _pImage$[ebp]
  00054	83 c1 0c	 add	 ecx, 12			; 0000000cH
  00057	e8 00 00 00 00	 call	 ?_Myptr@?$_String_val@U?$_Simple_types@D@std@@@std@@QBEPBDXZ ; std::_String_val<std::_Simple_types<char> >::_Myptr
  0005c	89 45 f0	 mov	 DWORD PTR $T1[ebp], eax
; File D:\Metin2 Server Files\mainline\SRC_2014\Metin2Client\UserInterface\PythonItemModule.cpp

; 108  : 	return Py_BuildValue("s", pImage->GetFileName());

  0005f	ff 75 f0	 push	 DWORD PTR $T1[ebp]
  00062	68 00 00 00 00	 push	 OFFSET ??_C@_01LKDEMHDF@s@
  00067	ff 15 00 00 00
	00		 call	 DWORD PTR __imp__Py_BuildValue
  0006d	59		 pop	 ecx
  0006e	59		 pop	 ecx
$LN1@itemGetIco:

; 109  : }

  0006f	c9		 leave
  00070	c3		 ret	 0
?itemGetIconImageFileName@@YAPAU_object@@PAU1@0@Z ENDP	; itemGetIconImageFileName
_TEXT	ENDS
; Function compile flags: /Odspy
; File D:\Metin2 Server Files\mainline\SRC_2014\Metin2Client\UserInterface\PythonItemModule.cpp
; File D:\Metin2 Server Files\mainline\SRC_2014\Metin2Client\eterBase\Singleton.h
; File D:\Metin2 Server Files\mainline\SRC_2014\Metin2Client\UserInterface\PythonItemModule.cpp
;	COMDAT ?itemGetIconImage@@YAPAU_object@@PAU1@0@Z
_TEXT	SEGMENT
$T1 = -8						; size = 4
_pItemData$ = -4					; size = 4
_poSelf$ = 8						; size = 4
_poArgs$ = 12						; size = 4
?itemGetIconImage@@YAPAU_object@@PAU1@0@Z PROC		; itemGetIconImage, COMDAT

; 83   : {

  00000	55		 push	 ebp
  00001	8b ec		 mov	 ebp, esp
  00003	51		 push	 ecx
  00004	51		 push	 ecx
; File D:\Metin2 Server Files\mainline\SRC_2014\Metin2Client\eterBase\Singleton.h

; 27   : 		return (*ms_singleton);

  00005	a1 00 00 00 00	 mov	 eax, DWORD PTR ?ms_singleton@?$CSingleton@VCItemManager@@@@0PAVCItemManager@@A ; CSingleton<CItemManager>::ms_singleton
  0000a	89 45 f8	 mov	 DWORD PTR $T1[ebp], eax
; File D:\Metin2 Server Files\mainline\SRC_2014\Metin2Client\UserInterface\PythonItemModule.cpp

; 84   : 	CItemData * pItemData = CItemManager::Instance().GetSelectedItemDataPointer();

  0000d	8b 4d f8	 mov	 ecx, DWORD PTR $T1[ebp]
  00010	e8 00 00 00 00	 call	 ?GetSelectedItemDataPointer@CItemManager@@QAEPAVCItemData@@XZ ; CItemManager::GetSelectedItemDataPointer
  00015	89 45 fc	 mov	 DWORD PTR _pItemData$[ebp], eax

; 85   : 	if (!pItemData)

  00018	83 7d fc 00	 cmp	 DWORD PTR _pItemData$[ebp], 0
  0001c	75 0d		 jne	 SHORT $LN2@itemGetIco

; 86   : 		return Py_BuildException("no selected item data");

  0001e	68 00 00 00 00	 push	 OFFSET ??_C@_0BG@LNOAJHHG@no?5selected?5item?5data@
  00023	e8 00 00 00 00	 call	 ?Py_BuildException@@YAPAU_object@@PBDZZ ; Py_BuildException
  00028	59		 pop	 ecx
  00029	eb 16		 jmp	 SHORT $LN1@itemGetIco
$LN2@itemGetIco:

; 87   : 
; 88   : //	if (CItemData::ITEM_TYPE_SKILLBOOK == pItemData->GetType())
; 89   : //	{
; 90   : //		char szItemName[64+1];
; 91   : //		_snprintf(szItemName, "d:/ymir work/ui/items/etc/book_%02d.sub", );
; 92   : //		CGraphicImage * pImage = (CGraphicImage *)CResourceManager::Instance().GetResourcePointer(szItemName);
; 93   : //	}
; 94   : 
; 95   : 	return Py_BuildValue("i", pItemData->GetIconImage());

  0002b	8b 4d fc	 mov	 ecx, DWORD PTR _pItemData$[ebp]
  0002e	e8 00 00 00 00	 call	 ?GetIconImage@CItemData@@QAEPAVCGraphicSubImage@@XZ ; CItemData::GetIconImage
  00033	50		 push	 eax
  00034	68 00 00 00 00	 push	 OFFSET ??_C@_01KBJDNOO@i@
  00039	ff 15 00 00 00
	00		 call	 DWORD PTR __imp__Py_BuildValue
  0003f	59		 pop	 ecx
  00040	59		 pop	 ecx
$LN1@itemGetIco:

; 96   : }

  00041	c9		 leave
  00042	c3		 ret	 0
?itemGetIconImage@@YAPAU_object@@PAU1@0@Z ENDP		; itemGetIconImage
_TEXT	ENDS
; Function compile flags: /Odspy
; File D:\Metin2 Server Files\mainline\SRC_2014\Metin2Client\UserInterface\PythonItemModule.cpp
; File D:\Metin2 Server Files\mainline\SRC_2014\Metin2Client\eterBase\Singleton.h
; File D:\Metin2 Server Files\mainline\SRC_2014\Metin2Client\UserInterface\PythonItemModule.cpp
;	COMDAT ?itemGetItemSummary@@YAPAU_object@@PAU1@0@Z
_TEXT	SEGMENT
$T1 = -8						; size = 4
_pItemData$ = -4					; size = 4
_poSelf$ = 8						; size = 4
_poArgs$ = 12						; size = 4
?itemGetItemSummary@@YAPAU_object@@PAU1@0@Z PROC	; itemGetItemSummary, COMDAT

; 74   : {

  00000	55		 push	 ebp
  00001	8b ec		 mov	 ebp, esp
  00003	51		 push	 ecx
  00004	51		 push	 ecx
; File D:\Metin2 Server Files\mainline\SRC_2014\Metin2Client\eterBase\Singleton.h

; 27   : 		return (*ms_singleton);

  00005	a1 00 00 00 00	 mov	 eax, DWORD PTR ?ms_singleton@?$CSingleton@VCItemManager@@@@0PAVCItemManager@@A ; CSingleton<CItemManager>::ms_singleton
  0000a	89 45 f8	 mov	 DWORD PTR $T1[ebp], eax
; File D:\Metin2 Server Files\mainline\SRC_2014\Metin2Client\UserInterface\PythonItemModule.cpp

; 75   : 	CItemData * pItemData = CItemManager::Instance().GetSelectedItemDataPointer();

  0000d	8b 4d f8	 mov	 ecx, DWORD PTR $T1[ebp]
  00010	e8 00 00 00 00	 call	 ?GetSelectedItemDataPointer@CItemManager@@QAEPAVCItemData@@XZ ; CItemManager::GetSelectedItemDataPointer
  00015	89 45 fc	 mov	 DWORD PTR _pItemData$[ebp], eax

; 76   : 	if (!pItemData)

  00018	83 7d fc 00	 cmp	 DWORD PTR _pItemData$[ebp], 0
  0001c	75 0d		 jne	 SHORT $LN2@itemGetIte

; 77   : 		return Py_BuildException("no selected item data");

  0001e	68 00 00 00 00	 push	 OFFSET ??_C@_0BG@LNOAJHHG@no?5selected?5item?5data@
  00023	e8 00 00 00 00	 call	 ?Py_BuildException@@YAPAU_object@@PBDZZ ; Py_BuildException
  00028	59		 pop	 ecx
  00029	eb 16		 jmp	 SHORT $LN1@itemGetIte
$LN2@itemGetIte:

; 78   : 
; 79   : 	return Py_BuildValue("s", pItemData->GetSummary());

  0002b	8b 4d fc	 mov	 ecx, DWORD PTR _pItemData$[ebp]
  0002e	e8 00 00 00 00	 call	 ?GetSummary@CItemData@@QBEPBDXZ ; CItemData::GetSummary
  00033	50		 push	 eax
  00034	68 00 00 00 00	 push	 OFFSET ??_C@_01LKDEMHDF@s@
  00039	ff 15 00 00 00
	00		 call	 DWORD PTR __imp__Py_BuildValue
  0003f	59		 pop	 ecx
  00040	59		 pop	 ecx
$LN1@itemGetIte:

; 80   : }

  00041	c9		 leave
  00042	c3		 ret	 0
?itemGetItemSummary@@YAPAU_object@@PAU1@0@Z ENDP	; itemGetItemSummary
_TEXT	ENDS
; Function compile flags: /Odspy
; File D:\Metin2 Server Files\mainline\SRC_2014\Metin2Client\UserInterface\PythonItemModule.cpp
; File D:\Metin2 Server Files\mainline\SRC_2014\Metin2Client\eterBase\Singleton.h
; File D:\Metin2 Server Files\mainline\SRC_2014\Metin2Client\UserInterface\PythonItemModule.cpp
;	COMDAT ?itemGetItemDescription@@YAPAU_object@@PAU1@0@Z
_TEXT	SEGMENT
$T1 = -8						; size = 4
_pItemData$ = -4					; size = 4
_poSelf$ = 8						; size = 4
_poArgs$ = 12						; size = 4
?itemGetItemDescription@@YAPAU_object@@PAU1@0@Z PROC	; itemGetItemDescription, COMDAT

; 65   : {

  00000	55		 push	 ebp
  00001	8b ec		 mov	 ebp, esp
  00003	51		 push	 ecx
  00004	51		 push	 ecx
; File D:\Metin2 Server Files\mainline\SRC_2014\Metin2Client\eterBase\Singleton.h

; 27   : 		return (*ms_singleton);

  00005	a1 00 00 00 00	 mov	 eax, DWORD PTR ?ms_singleton@?$CSingleton@VCItemManager@@@@0PAVCItemManager@@A ; CSingleton<CItemManager>::ms_singleton
  0000a	89 45 f8	 mov	 DWORD PTR $T1[ebp], eax
; File D:\Metin2 Server Files\mainline\SRC_2014\Metin2Client\UserInterface\PythonItemModule.cpp

; 66   : 	CItemData * pItemData = CItemManager::Instance().GetSelectedItemDataPointer();

  0000d	8b 4d f8	 mov	 ecx, DWORD PTR $T1[ebp]
  00010	e8 00 00 00 00	 call	 ?GetSelectedItemDataPointer@CItemManager@@QAEPAVCItemData@@XZ ; CItemManager::GetSelectedItemDataPointer
  00015	89 45 fc	 mov	 DWORD PTR _pItemData$[ebp], eax

; 67   : 	if (!pItemData)

  00018	83 7d fc 00	 cmp	 DWORD PTR _pItemData$[ebp], 0
  0001c	75 0d		 jne	 SHORT $LN2@itemGetIte

; 68   : 		return Py_BuildException("no selected item data");

  0001e	68 00 00 00 00	 push	 OFFSET ??_C@_0BG@LNOAJHHG@no?5selected?5item?5data@
  00023	e8 00 00 00 00	 call	 ?Py_BuildException@@YAPAU_object@@PBDZZ ; Py_BuildException
  00028	59		 pop	 ecx
  00029	eb 16		 jmp	 SHORT $LN1@itemGetIte
$LN2@itemGetIte:

; 69   : 
; 70   : 	return Py_BuildValue("s", pItemData->GetDescription());

  0002b	8b 4d fc	 mov	 ecx, DWORD PTR _pItemData$[ebp]
  0002e	e8 00 00 00 00	 call	 ?GetDescription@CItemData@@QBEPBDXZ ; CItemData::GetDescription
  00033	50		 push	 eax
  00034	68 00 00 00 00	 push	 OFFSET ??_C@_01LKDEMHDF@s@
  00039	ff 15 00 00 00
	00		 call	 DWORD PTR __imp__Py_BuildValue
  0003f	59		 pop	 ecx
  00040	59		 pop	 ecx
$LN1@itemGetIte:

; 71   : }

  00041	c9		 leave
  00042	c3		 ret	 0
?itemGetItemDescription@@YAPAU_object@@PAU1@0@Z ENDP	; itemGetItemDescription
_TEXT	ENDS
; Function compile flags: /Odspy
; File D:\Metin2 Server Files\mainline\SRC_2014\Metin2Client\UserInterface\PythonItemModule.cpp
; File D:\Metin2 Server Files\mainline\SRC_2014\Metin2Client\eterBase\Singleton.h
; File D:\Metin2 Server Files\mainline\SRC_2014\Metin2Client\UserInterface\PythonItemModule.cpp
;	COMDAT ?itemGetItemName@@YAPAU_object@@PAU1@0@Z
_TEXT	SEGMENT
$T1 = -8						; size = 4
_pItemData$ = -4					; size = 4
_poSelf$ = 8						; size = 4
_poArgs$ = 12						; size = 4
?itemGetItemName@@YAPAU_object@@PAU1@0@Z PROC		; itemGetItemName, COMDAT

; 56   : {

  00000	55		 push	 ebp
  00001	8b ec		 mov	 ebp, esp
  00003	51		 push	 ecx
  00004	51		 push	 ecx
; File D:\Metin2 Server Files\mainline\SRC_2014\Metin2Client\eterBase\Singleton.h

; 27   : 		return (*ms_singleton);

  00005	a1 00 00 00 00	 mov	 eax, DWORD PTR ?ms_singleton@?$CSingleton@VCItemManager@@@@0PAVCItemManager@@A ; CSingleton<CItemManager>::ms_singleton
  0000a	89 45 f8	 mov	 DWORD PTR $T1[ebp], eax
; File D:\Metin2 Server Files\mainline\SRC_2014\Metin2Client\UserInterface\PythonItemModule.cpp

; 57   : 	CItemData * pItemData = CItemManager::Instance().GetSelectedItemDataPointer();

  0000d	8b 4d f8	 mov	 ecx, DWORD PTR $T1[ebp]
  00010	e8 00 00 00 00	 call	 ?GetSelectedItemDataPointer@CItemManager@@QAEPAVCItemData@@XZ ; CItemManager::GetSelectedItemDataPointer
  00015	89 45 fc	 mov	 DWORD PTR _pItemData$[ebp], eax

; 58   : 	if (!pItemData)

  00018	83 7d fc 00	 cmp	 DWORD PTR _pItemData$[ebp], 0
  0001c	75 0d		 jne	 SHORT $LN2@itemGetIte

; 59   : 		return Py_BuildException("no selected item data");

  0001e	68 00 00 00 00	 push	 OFFSET ??_C@_0BG@LNOAJHHG@no?5selected?5item?5data@
  00023	e8 00 00 00 00	 call	 ?Py_BuildException@@YAPAU_object@@PBDZZ ; Py_BuildException
  00028	59		 pop	 ecx
  00029	eb 16		 jmp	 SHORT $LN1@itemGetIte
$LN2@itemGetIte:

; 60   : 
; 61   : 	return Py_BuildValue("s", pItemData->GetName());

  0002b	8b 4d fc	 mov	 ecx, DWORD PTR _pItemData$[ebp]
  0002e	e8 00 00 00 00	 call	 ?GetName@CItemData@@QBEPBDXZ ; CItemData::GetName
  00033	50		 push	 eax
  00034	68 00 00 00 00	 push	 OFFSET ??_C@_01LKDEMHDF@s@
  00039	ff 15 00 00 00
	00		 call	 DWORD PTR __imp__Py_BuildValue
  0003f	59		 pop	 ecx
  00040	59		 pop	 ecx
$LN1@itemGetIte:

; 62   : }

  00041	c9		 leave
  00042	c3		 ret	 0
?itemGetItemName@@YAPAU_object@@PAU1@0@Z ENDP		; itemGetItemName
_TEXT	ENDS
; Function compile flags: /Odspy
; File D:\Metin2 Server Files\mainline\SRC_2014\Metin2Client\UserInterface\PythonItemModule.cpp
; File D:\Metin2 Server Files\mainline\SRC_2014\Metin2Client\eterBase\Singleton.h
; File D:\Metin2 Server Files\mainline\SRC_2014\Metin2Client\UserInterface\PythonItemModule.cpp
;	COMDAT ?itemSelectItem@@YAPAU_object@@PAU1@0@Z
_TEXT	SEGMENT
$T1 = -8						; size = 4
_iIndex$ = -4						; size = 4
_poSelf$ = 8						; size = 4
_poArgs$ = 12						; size = 4
?itemSelectItem@@YAPAU_object@@PAU1@0@Z PROC		; itemSelectItem, COMDAT

; 41   : {

  00000	55		 push	 ebp
  00001	8b ec		 mov	 ebp, esp
  00003	51		 push	 ecx
  00004	51		 push	 ecx

; 42   : 	int iIndex;
; 43   : 	if (!PyTuple_GetInteger(poArgs, 0, &iIndex))

  00005	8d 45 fc	 lea	 eax, DWORD PTR _iIndex$[ebp]
  00008	50		 push	 eax
  00009	6a 00		 push	 0
  0000b	ff 75 0c	 push	 DWORD PTR _poArgs$[ebp]
  0000e	e8 00 00 00 00	 call	 ?PyTuple_GetInteger@@YA_NPAU_object@@HPAH@Z ; PyTuple_GetInteger
  00013	83 c4 0c	 add	 esp, 12			; 0000000cH
  00016	0f b6 c0	 movzx	 eax, al
  00019	85 c0		 test	 eax, eax
  0001b	75 07		 jne	 SHORT $LN2@itemSelect

; 44   : 		return Py_BadArgument();

  0001d	e8 00 00 00 00	 call	 ?Py_BadArgument@@YAPAU_object@@XZ ; Py_BadArgument
  00022	eb 3b		 jmp	 SHORT $LN1@itemSelect
$LN2@itemSelect:
; File D:\Metin2 Server Files\mainline\SRC_2014\Metin2Client\eterBase\Singleton.h

; 27   : 		return (*ms_singleton);

  00024	a1 00 00 00 00	 mov	 eax, DWORD PTR ?ms_singleton@?$CSingleton@VCItemManager@@@@0PAVCItemManager@@A ; CSingleton<CItemManager>::ms_singleton
  00029	89 45 f8	 mov	 DWORD PTR $T1[ebp], eax
; File D:\Metin2 Server Files\mainline\SRC_2014\Metin2Client\UserInterface\PythonItemModule.cpp

; 46   : 	if (!CItemManager::Instance().SelectItemData(iIndex))

  0002c	ff 75 fc	 push	 DWORD PTR _iIndex$[ebp]
  0002f	8b 4d f8	 mov	 ecx, DWORD PTR $T1[ebp]
  00032	e8 00 00 00 00	 call	 ?SelectItemData@CItemManager@@QAEHK@Z ; CItemManager::SelectItemData
  00037	85 c0		 test	 eax, eax
  00039	75 1f		 jne	 SHORT $LN3@itemSelect

; 47   : 	{
; 48   : 		TraceError("Cannot find item by %d", iIndex);

  0003b	ff 75 fc	 push	 DWORD PTR _iIndex$[ebp]
  0003e	68 00 00 00 00	 push	 OFFSET ??_C@_0BH@EOAFOHJK@Cannot?5find?5item?5by?5?$CFd@
  00043	e8 00 00 00 00	 call	 ?TraceError@@YAXPBDZZ	; TraceError
  00048	59		 pop	 ecx
  00049	59		 pop	 ecx

; 49   : 		CItemManager::Instance().SelectItemData(60001);

  0004a	68 61 ea 00 00	 push	 60001			; 0000ea61H
  0004f	8b 0d 00 00 00
	00		 mov	 ecx, DWORD PTR ?ms_singleton@?$CSingleton@VCItemManager@@@@0PAVCItemManager@@A ; CSingleton<CItemManager>::ms_singleton
  00055	e8 00 00 00 00	 call	 ?SelectItemData@CItemManager@@QAEHK@Z ; CItemManager::SelectItemData
$LN3@itemSelect:

; 50   : 	}
; 51   : 
; 52   : 	return Py_BuildNone();

  0005a	e8 00 00 00 00	 call	 ?Py_BuildNone@@YAPAU_object@@XZ ; Py_BuildNone
$LN1@itemSelect:

; 53   : }

  0005f	c9		 leave
  00060	c3		 ret	 0
?itemSelectItem@@YAPAU_object@@PAU1@0@Z ENDP		; itemSelectItem
_TEXT	ENDS
; Function compile flags: /Odspy
; File D:\Metin2 Server Files\mainline\SRC_2014\Metin2Client\UserInterface\PythonItemModule.cpp
; File C:\Program Files (x86)\Microsoft Visual Studio\2019\Community\VC\Tools\MSVC\14.28.29333\include\xstring
; File D:\Metin2 Server Files\mainline\SRC_2014\Metin2Client\UserInterface\PythonItemModule.cpp
;	COMDAT ?itemSetDropSoundFileName@@YAPAU_object@@PAU1@0@Z
_TEXT	SEGMENT
_rkItem$ = -52						; size = 4
_iDropSound$ = -48					; size = 4
_szFileName$ = -44					; size = 4
$T2 = -40						; size = 24
__$ArrayPad$ = -16					; size = 4
__$EHRec$ = -12						; size = 12
_poSelf$ = 8						; size = 4
_poArgs$ = 12						; size = 4
?itemSetDropSoundFileName@@YAPAU_object@@PAU1@0@Z PROC	; itemSetDropSoundFileName, COMDAT

; 26   : {

  00000	55		 push	 ebp
  00001	8b ec		 mov	 ebp, esp
  00003	6a ff		 push	 -1
  00005	68 00 00 00 00	 push	 __ehhandler$?itemSetDropSoundFileName@@YAPAU_object@@PAU1@0@Z
  0000a	64 a1 00 00 00
	00		 mov	 eax, DWORD PTR fs:0
  00010	50		 push	 eax
  00011	83 ec 28	 sub	 esp, 40			; 00000028H
  00014	a1 00 00 00 00	 mov	 eax, DWORD PTR ___security_cookie
  00019	33 c5		 xor	 eax, ebp
  0001b	89 45 f0	 mov	 DWORD PTR __$ArrayPad$[ebp], eax
  0001e	50		 push	 eax
  0001f	8d 45 f4	 lea	 eax, DWORD PTR __$EHRec$[ebp]
  00022	64 a3 00 00 00
	00		 mov	 DWORD PTR fs:0, eax

; 27   : 	int iDropSound;
; 28   : 	if (!PyTuple_GetInteger(poArgs, 0, &iDropSound))

  00028	8d 45 d0	 lea	 eax, DWORD PTR _iDropSound$[ebp]
  0002b	50		 push	 eax
  0002c	6a 00		 push	 0
  0002e	ff 75 0c	 push	 DWORD PTR _poArgs$[ebp]
  00031	e8 00 00 00 00	 call	 ?PyTuple_GetInteger@@YA_NPAU_object@@HPAH@Z ; PyTuple_GetInteger
  00036	83 c4 0c	 add	 esp, 12			; 0000000cH
  00039	0f b6 c0	 movzx	 eax, al
  0003c	85 c0		 test	 eax, eax
  0003e	75 07		 jne	 SHORT $LN2@itemSetDro

; 29   : 		return Py_BadArgument();

  00040	e8 00 00 00 00	 call	 ?Py_BadArgument@@YAPAU_object@@XZ ; Py_BadArgument
  00045	eb 56		 jmp	 SHORT $LN1@itemSetDro
$LN2@itemSetDro:

; 30   : 	
; 31   : 	char* szFileName;
; 32   : 	if (!PyTuple_GetString(poArgs, 1, &szFileName))

  00047	8d 45 d4	 lea	 eax, DWORD PTR _szFileName$[ebp]
  0004a	50		 push	 eax
  0004b	6a 01		 push	 1
  0004d	ff 75 0c	 push	 DWORD PTR _poArgs$[ebp]
  00050	e8 00 00 00 00	 call	 ?PyTuple_GetString@@YA_NPAU_object@@HPAPAD@Z ; PyTuple_GetString
  00055	83 c4 0c	 add	 esp, 12			; 0000000cH
  00058	0f b6 c0	 movzx	 eax, al
  0005b	85 c0		 test	 eax, eax
  0005d	75 07		 jne	 SHORT $LN6@itemSetDro

; 33   : 		return Py_BadArgument();

  0005f	e8 00 00 00 00	 call	 ?Py_BadArgument@@YAPAU_object@@XZ ; Py_BadArgument
  00064	eb 37		 jmp	 SHORT $LN1@itemSetDro
$LN6@itemSetDro:

; 34   : 
; 35   : 	CPythonItem& rkItem=CPythonItem::Instance();

  00066	a1 00 00 00 00	 mov	 eax, DWORD PTR ?ms_singleton@?$CSingleton@VCPythonItem@@@@0PAVCPythonItem@@A ; CSingleton<CPythonItem>::ms_singleton
  0006b	89 45 cc	 mov	 DWORD PTR _rkItem$[ebp], eax

; 36   : 	rkItem.SetDropSoundFileName(iDropSound, szFileName);

  0006e	ff 75 d4	 push	 DWORD PTR _szFileName$[ebp]
  00071	8d 4d d8	 lea	 ecx, DWORD PTR $T2[ebp]
  00074	e8 00 00 00 00	 call	 ??0?$basic_string@DU?$char_traits@D@std@@V?$allocator@D@2@@std@@QAE@QBD@Z ; std::basic_string<char,std::char_traits<char>,std::allocator<char> >::basic_string<char,std::char_traits<char>,std::allocator<char> >
  00079	83 65 fc 00	 and	 DWORD PTR __$EHRec$[ebp+8], 0
  0007d	8d 45 d8	 lea	 eax, DWORD PTR $T2[ebp]
  00080	50		 push	 eax
  00081	ff 75 d0	 push	 DWORD PTR _iDropSound$[ebp]
  00084	8b 4d cc	 mov	 ecx, DWORD PTR _rkItem$[ebp]
  00087	e8 00 00 00 00	 call	 ?SetDropSoundFileName@CPythonItem@@QAEXKABV?$basic_string@DU?$char_traits@D@std@@V?$allocator@D@2@@std@@@Z ; CPythonItem::SetDropSoundFileName
  0008c	83 4d fc ff	 or	 DWORD PTR __$EHRec$[ebp+8], -1
; File C:\Program Files (x86)\Microsoft Visual Studio\2019\Community\VC\Tools\MSVC\14.28.29333\include\xstring

; 2801 :         _Tidy_deallocate();

  00090	8d 4d d8	 lea	 ecx, DWORD PTR $T2[ebp]
  00093	e8 00 00 00 00	 call	 ?_Tidy_deallocate@?$basic_string@DU?$char_traits@D@std@@V?$allocator@D@2@@std@@AAEXXZ ; std::basic_string<char,std::char_traits<char>,std::allocator<char> >::_Tidy_deallocate
; File D:\Metin2 Server Files\mainline\SRC_2014\Metin2Client\UserInterface\PythonItemModule.cpp

; 37   : 	return Py_BuildNone();

  00098	e8 00 00 00 00	 call	 ?Py_BuildNone@@YAPAU_object@@XZ ; Py_BuildNone
$LN1@itemSetDro:

; 38   : }

  0009d	8b 4d f4	 mov	 ecx, DWORD PTR __$EHRec$[ebp]
  000a0	64 89 0d 00 00
	00 00		 mov	 DWORD PTR fs:0, ecx
  000a7	59		 pop	 ecx
  000a8	8b 4d f0	 mov	 ecx, DWORD PTR __$ArrayPad$[ebp]
  000ab	33 cd		 xor	 ecx, ebp
  000ad	e8 00 00 00 00	 call	 @__security_check_cookie@4
  000b2	c9		 leave
  000b3	c3		 ret	 0
_TEXT	ENDS
;	COMDAT text$x
text$x	SEGMENT
__unwindfunclet$?itemSetDropSoundFileName@@YAPAU_object@@PAU1@0@Z$0:
  00000	8d 4d d8	 lea	 ecx, DWORD PTR $T2[ebp]
  00003	e9 00 00 00 00	 jmp	 ??1?$basic_string@DU?$char_traits@D@std@@V?$allocator@D@2@@std@@QAE@XZ ; std::basic_string<char,std::char_traits<char>,std::allocator<char> >::~basic_string<char,std::char_traits<char>,std::allocator<char> >
  00008	cc		 int	 3
  00009	cc		 int	 3
  0000a	cc		 int	 3
  0000b	cc		 int	 3
  0000c	cc		 int	 3
__ehhandler$?itemSetDropSoundFileName@@YAPAU_object@@PAU1@0@Z:
  0000d	90		 npad	 1
  0000e	90		 npad	 1
  0000f	8b 54 24 08	 mov	 edx, DWORD PTR [esp+8]
  00013	8d 42 0c	 lea	 eax, DWORD PTR [edx+12]
  00016	8b 4a d4	 mov	 ecx, DWORD PTR [edx-44]
  00019	33 c8		 xor	 ecx, eax
  0001b	e8 00 00 00 00	 call	 @__security_check_cookie@4
  00020	8b 4a fc	 mov	 ecx, DWORD PTR [edx-4]
  00023	33 c8		 xor	 ecx, eax
  00025	e8 00 00 00 00	 call	 @__security_check_cookie@4
  0002a	b8 00 00 00 00	 mov	 eax, OFFSET __ehfuncinfo$?itemSetDropSoundFileName@@YAPAU_object@@PAU1@0@Z
  0002f	e9 00 00 00 00	 jmp	 ___CxxFrameHandler3
text$x	ENDS
?itemSetDropSoundFileName@@YAPAU_object@@PAU1@0@Z ENDP	; itemSetDropSoundFileName
; Function compile flags: /Odspy
; File D:\Metin2 Server Files\mainline\SRC_2014\Metin2Client\UserInterface\PythonItemModule.cpp
; File C:\Program Files (x86)\Microsoft Visual Studio\2019\Community\VC\Tools\MSVC\14.28.29333\include\xstring
; File D:\Metin2 Server Files\mainline\SRC_2014\Metin2Client\UserInterface\PythonItemModule.cpp
;	COMDAT ?itemSetUseSoundFileName@@YAPAU_object@@PAU1@0@Z
_TEXT	SEGMENT
_rkItem$ = -52						; size = 4
_iUseSound$ = -48					; size = 4
_szFileName$ = -44					; size = 4
$T2 = -40						; size = 24
__$ArrayPad$ = -16					; size = 4
__$EHRec$ = -12						; size = 12
_poSelf$ = 8						; size = 4
_poArgs$ = 12						; size = 4
?itemSetUseSoundFileName@@YAPAU_object@@PAU1@0@Z PROC	; itemSetUseSoundFileName, COMDAT

; 11   : {

  00000	55		 push	 ebp
  00001	8b ec		 mov	 ebp, esp
  00003	6a ff		 push	 -1
  00005	68 00 00 00 00	 push	 __ehhandler$?itemSetUseSoundFileName@@YAPAU_object@@PAU1@0@Z
  0000a	64 a1 00 00 00
	00		 mov	 eax, DWORD PTR fs:0
  00010	50		 push	 eax
  00011	83 ec 28	 sub	 esp, 40			; 00000028H
  00014	a1 00 00 00 00	 mov	 eax, DWORD PTR ___security_cookie
  00019	33 c5		 xor	 eax, ebp
  0001b	89 45 f0	 mov	 DWORD PTR __$ArrayPad$[ebp], eax
  0001e	50		 push	 eax
  0001f	8d 45 f4	 lea	 eax, DWORD PTR __$EHRec$[ebp]
  00022	64 a3 00 00 00
	00		 mov	 DWORD PTR fs:0, eax

; 12   : 	int iUseSound;
; 13   : 	if (!PyTuple_GetInteger(poArgs, 0, &iUseSound))

  00028	8d 45 d0	 lea	 eax, DWORD PTR _iUseSound$[ebp]
  0002b	50		 push	 eax
  0002c	6a 00		 push	 0
  0002e	ff 75 0c	 push	 DWORD PTR _poArgs$[ebp]
  00031	e8 00 00 00 00	 call	 ?PyTuple_GetInteger@@YA_NPAU_object@@HPAH@Z ; PyTuple_GetInteger
  00036	83 c4 0c	 add	 esp, 12			; 0000000cH
  00039	0f b6 c0	 movzx	 eax, al
  0003c	85 c0		 test	 eax, eax
  0003e	75 07		 jne	 SHORT $LN2@itemSetUse

; 14   : 		return Py_BadArgument();

  00040	e8 00 00 00 00	 call	 ?Py_BadArgument@@YAPAU_object@@XZ ; Py_BadArgument
  00045	eb 56		 jmp	 SHORT $LN1@itemSetUse
$LN2@itemSetUse:

; 15   : 	
; 16   : 	char* szFileName;
; 17   : 	if (!PyTuple_GetString(poArgs, 1, &szFileName))

  00047	8d 45 d4	 lea	 eax, DWORD PTR _szFileName$[ebp]
  0004a	50		 push	 eax
  0004b	6a 01		 push	 1
  0004d	ff 75 0c	 push	 DWORD PTR _poArgs$[ebp]
  00050	e8 00 00 00 00	 call	 ?PyTuple_GetString@@YA_NPAU_object@@HPAPAD@Z ; PyTuple_GetString
  00055	83 c4 0c	 add	 esp, 12			; 0000000cH
  00058	0f b6 c0	 movzx	 eax, al
  0005b	85 c0		 test	 eax, eax
  0005d	75 07		 jne	 SHORT $LN6@itemSetUse

; 18   : 		return Py_BadArgument();

  0005f	e8 00 00 00 00	 call	 ?Py_BadArgument@@YAPAU_object@@XZ ; Py_BadArgument
  00064	eb 37		 jmp	 SHORT $LN1@itemSetUse
$LN6@itemSetUse:

; 19   : 
; 20   : 	CPythonItem& rkItem=CPythonItem::Instance();

  00066	a1 00 00 00 00	 mov	 eax, DWORD PTR ?ms_singleton@?$CSingleton@VCPythonItem@@@@0PAVCPythonItem@@A ; CSingleton<CPythonItem>::ms_singleton
  0006b	89 45 cc	 mov	 DWORD PTR _rkItem$[ebp], eax

; 21   : 	rkItem.SetUseSoundFileName(iUseSound, szFileName);

  0006e	ff 75 d4	 push	 DWORD PTR _szFileName$[ebp]
  00071	8d 4d d8	 lea	 ecx, DWORD PTR $T2[ebp]
  00074	e8 00 00 00 00	 call	 ??0?$basic_string@DU?$char_traits@D@std@@V?$allocator@D@2@@std@@QAE@QBD@Z ; std::basic_string<char,std::char_traits<char>,std::allocator<char> >::basic_string<char,std::char_traits<char>,std::allocator<char> >
  00079	83 65 fc 00	 and	 DWORD PTR __$EHRec$[ebp+8], 0
  0007d	8d 45 d8	 lea	 eax, DWORD PTR $T2[ebp]
  00080	50		 push	 eax
  00081	ff 75 d0	 push	 DWORD PTR _iUseSound$[ebp]
  00084	8b 4d cc	 mov	 ecx, DWORD PTR _rkItem$[ebp]
  00087	e8 00 00 00 00	 call	 ?SetUseSoundFileName@CPythonItem@@QAEXKABV?$basic_string@DU?$char_traits@D@std@@V?$allocator@D@2@@std@@@Z ; CPythonItem::SetUseSoundFileName
  0008c	83 4d fc ff	 or	 DWORD PTR __$EHRec$[ebp+8], -1
; File C:\Program Files (x86)\Microsoft Visual Studio\2019\Community\VC\Tools\MSVC\14.28.29333\include\xstring

; 2801 :         _Tidy_deallocate();

  00090	8d 4d d8	 lea	 ecx, DWORD PTR $T2[ebp]
  00093	e8 00 00 00 00	 call	 ?_Tidy_deallocate@?$basic_string@DU?$char_traits@D@std@@V?$allocator@D@2@@std@@AAEXXZ ; std::basic_string<char,std::char_traits<char>,std::allocator<char> >::_Tidy_deallocate
; File D:\Metin2 Server Files\mainline\SRC_2014\Metin2Client\UserInterface\PythonItemModule.cpp

; 22   : 	return Py_BuildNone();

  00098	e8 00 00 00 00	 call	 ?Py_BuildNone@@YAPAU_object@@XZ ; Py_BuildNone
$LN1@itemSetUse:

; 23   : }

  0009d	8b 4d f4	 mov	 ecx, DWORD PTR __$EHRec$[ebp]
  000a0	64 89 0d 00 00
	00 00		 mov	 DWORD PTR fs:0, ecx
  000a7	59		 pop	 ecx
  000a8	8b 4d f0	 mov	 ecx, DWORD PTR __$ArrayPad$[ebp]
  000ab	33 cd		 xor	 ecx, ebp
  000ad	e8 00 00 00 00	 call	 @__security_check_cookie@4
  000b2	c9		 leave
  000b3	c3		 ret	 0
_TEXT	ENDS
;	COMDAT text$x
text$x	SEGMENT
__unwindfunclet$?itemSetUseSoundFileName@@YAPAU_object@@PAU1@0@Z$0:
  00000	8d 4d d8	 lea	 ecx, DWORD PTR $T2[ebp]
  00003	e9 00 00 00 00	 jmp	 ??1?$basic_string@DU?$char_traits@D@std@@V?$allocator@D@2@@std@@QAE@XZ ; std::basic_string<char,std::char_traits<char>,std::allocator<char> >::~basic_string<char,std::char_traits<char>,std::allocator<char> >
  00008	cc		 int	 3
  00009	cc		 int	 3
  0000a	cc		 int	 3
  0000b	cc		 int	 3
  0000c	cc		 int	 3
__ehhandler$?itemSetUseSoundFileName@@YAPAU_object@@PAU1@0@Z:
  0000d	90		 npad	 1
  0000e	90		 npad	 1
  0000f	8b 54 24 08	 mov	 edx, DWORD PTR [esp+8]
  00013	8d 42 0c	 lea	 eax, DWORD PTR [edx+12]
  00016	8b 4a d4	 mov	 ecx, DWORD PTR [edx-44]
  00019	33 c8		 xor	 ecx, eax
  0001b	e8 00 00 00 00	 call	 @__security_check_cookie@4
  00020	8b 4a fc	 mov	 ecx, DWORD PTR [edx-4]
  00023	33 c8		 xor	 ecx, eax
  00025	e8 00 00 00 00	 call	 @__security_check_cookie@4
  0002a	b8 00 00 00 00	 mov	 eax, OFFSET __ehfuncinfo$?itemSetUseSoundFileName@@YAPAU_object@@PAU1@0@Z
  0002f	e9 00 00 00 00	 jmp	 ___CxxFrameHandler3
text$x	ENDS
?itemSetUseSoundFileName@@YAPAU_object@@PAU1@0@Z ENDP	; itemSetUseSoundFileName
; Function compile flags: /Odspy
; File C:\Program Files (x86)\Microsoft Visual Studio\2019\Community\VC\Tools\MSVC\14.28.29333\include\xmemory
;	COMDAT ??$_Allocate_manually_vector_aligned@U_Default_allocate_traits@std@@@std@@YAPAXI@Z
_TEXT	SEGMENT
__Ptr$ = -12						; size = 4
__Block_size$ = -8					; size = 4
__Ptr_container$ = -4					; size = 4
__Bytes$ = 8						; size = 4
??$_Allocate_manually_vector_aligned@U_Default_allocate_traits@std@@@std@@YAPAXI@Z PROC ; std::_Allocate_manually_vector_aligned<std::_Default_allocate_traits>, COMDAT

; 113  : __declspec(allocator) void* _Allocate_manually_vector_aligned(const size_t _Bytes) {

  00000	55		 push	 ebp
  00001	8b ec		 mov	 ebp, esp
  00003	83 ec 0c	 sub	 esp, 12			; 0000000cH

; 114  :     // allocate _Bytes manually aligned to at least _Big_allocation_alignment
; 115  :     const size_t _Block_size = _Non_user_size + _Bytes;

  00006	8b 45 08	 mov	 eax, DWORD PTR __Bytes$[ebp]
  00009	83 c0 23	 add	 eax, 35			; 00000023H
  0000c	89 45 f8	 mov	 DWORD PTR __Block_size$[ebp], eax

; 116  :     if (_Block_size <= _Bytes) {

  0000f	8b 45 f8	 mov	 eax, DWORD PTR __Block_size$[ebp]
  00012	3b 45 08	 cmp	 eax, DWORD PTR __Bytes$[ebp]
  00015	77 05		 ja	 SHORT $LN12@Allocate_m

; 117  :         _Throw_bad_array_new_length(); // add overflow

  00017	e8 00 00 00 00	 call	 ?_Throw_bad_array_new_length@std@@YAXXZ ; std::_Throw_bad_array_new_length
$LN12@Allocate_m:

; 77   :         return ::operator new(_Bytes);

  0001c	ff 75 f8	 push	 DWORD PTR __Block_size$[ebp]
  0001f	e8 00 00 00 00	 call	 ??2@YAPAXI@Z		; operator new
  00024	59		 pop	 ecx

; 118  :     }
; 119  : 
; 120  :     const uintptr_t _Ptr_container = reinterpret_cast<uintptr_t>(_Traits::_Allocate(_Block_size));

  00025	89 45 fc	 mov	 DWORD PTR __Ptr_container$[ebp], eax
$LN4@Allocate_m:

; 121  :     _STL_VERIFY(_Ptr_container != 0, "invalid argument"); // validate even in release since we're doing p[-1]

  00028	83 7d fc 00	 cmp	 DWORD PTR __Ptr_container$[ebp], 0
  0002c	74 02		 je	 SHORT $LN7@Allocate_m
  0002e	eb 09		 jmp	 SHORT $LN2@Allocate_m
$LN7@Allocate_m:
  00030	e8 00 00 00 00	 call	 __invalid_parameter_noinfo_noreturn
  00035	33 c0		 xor	 eax, eax
  00037	75 f7		 jne	 SHORT $LN7@Allocate_m
$LN2@Allocate_m:
  00039	33 c0		 xor	 eax, eax
  0003b	75 eb		 jne	 SHORT $LN4@Allocate_m

; 122  :     void* const _Ptr = reinterpret_cast<void*>((_Ptr_container + _Non_user_size) & ~(_Big_allocation_alignment - 1));

  0003d	8b 45 fc	 mov	 eax, DWORD PTR __Ptr_container$[ebp]
  00040	83 c0 23	 add	 eax, 35			; 00000023H
  00043	83 e0 e0	 and	 eax, -32		; ffffffe0H
  00046	89 45 f4	 mov	 DWORD PTR __Ptr$[ebp], eax

; 123  :     static_cast<uintptr_t*>(_Ptr)[-1] = _Ptr_container;

  00049	6a 04		 push	 4
  0004b	58		 pop	 eax
  0004c	6b c0 ff	 imul	 eax, eax, -1
  0004f	8b 4d f4	 mov	 ecx, DWORD PTR __Ptr$[ebp]
  00052	8b 55 fc	 mov	 edx, DWORD PTR __Ptr_container$[ebp]
  00055	89 14 01	 mov	 DWORD PTR [ecx+eax], edx

; 124  : 
; 125  : #ifdef _DEBUG
; 126  :     static_cast<uintptr_t*>(_Ptr)[-2] = _Big_allocation_sentinel;
; 127  : #endif // _DEBUG
; 128  :     return _Ptr;

  00058	8b 45 f4	 mov	 eax, DWORD PTR __Ptr$[ebp]
$LN11@Allocate_m:

; 129  : }

  0005b	c9		 leave
  0005c	c3		 ret	 0
??$_Allocate_manually_vector_aligned@U_Default_allocate_traits@std@@@std@@YAPAXI@Z ENDP ; std::_Allocate_manually_vector_aligned<std::_Default_allocate_traits>
_TEXT	ENDS
; Function compile flags: /Odspy
; File C:\Program Files (x86)\Microsoft Visual Studio\2019\Community\VC\Tools\MSVC\14.28.29333\include\xmemory
;	COMDAT ??$_Allocate@$07U_Default_allocate_traits@std@@$0A@@std@@YAPAXI@Z
_TEXT	SEGMENT
__Bytes$ = 8						; size = 4
??$_Allocate@$07U_Default_allocate_traits@std@@$0A@@std@@YAPAXI@Z PROC ; std::_Allocate<8,std::_Default_allocate_traits,0>, COMDAT

; 197  : __declspec(allocator) void* _Allocate(const size_t _Bytes) {

  00000	55		 push	 ebp
  00001	8b ec		 mov	 ebp, esp

; 198  :     // allocate _Bytes when !_HAS_ALIGNED_NEW || _Align <= __STDCPP_DEFAULT_NEW_ALIGNMENT__
; 199  : #if defined(_M_IX86) || defined(_M_X64)
; 200  :     if (_Bytes >= _Big_allocation_threshold) { // boost the alignment of big allocations to help autovectorization

  00003	81 7d 08 00 10
	00 00		 cmp	 DWORD PTR __Bytes$[ebp], 4096 ; 00001000H
  0000a	72 0b		 jb	 SHORT $LN2@Allocate

; 201  :         return _Allocate_manually_vector_aligned<_Traits>(_Bytes);

  0000c	ff 75 08	 push	 DWORD PTR __Bytes$[ebp]
  0000f	e8 00 00 00 00	 call	 ??$_Allocate_manually_vector_aligned@U_Default_allocate_traits@std@@@std@@YAPAXI@Z ; std::_Allocate_manually_vector_aligned<std::_Default_allocate_traits>
  00014	59		 pop	 ecx
  00015	eb 13		 jmp	 SHORT $LN1@Allocate
$LN2@Allocate:

; 202  :     }
; 203  : #endif // defined(_M_IX86) || defined(_M_X64)
; 204  : 
; 205  :     if (_Bytes != 0) {

  00017	83 7d 08 00	 cmp	 DWORD PTR __Bytes$[ebp], 0
  0001b	74 0b		 je	 SHORT $LN3@Allocate

; 77   :         return ::operator new(_Bytes);

  0001d	ff 75 08	 push	 DWORD PTR __Bytes$[ebp]
  00020	e8 00 00 00 00	 call	 ??2@YAPAXI@Z		; operator new
  00025	59		 pop	 ecx

; 206  :         return _Traits::_Allocate(_Bytes);

  00026	eb 02		 jmp	 SHORT $LN1@Allocate
$LN3@Allocate:

; 207  :     }
; 208  : 
; 209  :     return nullptr;

  00028	33 c0		 xor	 eax, eax
$LN1@Allocate:

; 210  : }

  0002a	5d		 pop	 ebp
  0002b	c3		 ret	 0
??$_Allocate@$07U_Default_allocate_traits@std@@$0A@@std@@YAPAXI@Z ENDP ; std::_Allocate<8,std::_Default_allocate_traits,0>
_TEXT	ENDS
; Function compile flags: /Odspy
; File C:\Program Files (x86)\Microsoft Visual Studio\2019\Community\VC\Tools\MSVC\14.28.29333\include\xmemory
;	COMDAT ??$_Deallocate@$07$0A@@std@@YAXPAXI@Z
_TEXT	SEGMENT
__$EHRec$ = -12						; size = 12
__Ptr$ = 8						; size = 4
__Bytes$ = 12						; size = 4
??$_Deallocate@$07$0A@@std@@YAXPAXI@Z PROC		; std::_Deallocate<8,0>, COMDAT

; 213  : void _Deallocate(void* _Ptr, size_t _Bytes) noexcept {

  00000	55		 push	 ebp
  00001	8b ec		 mov	 ebp, esp
  00003	6a ff		 push	 -1
  00005	68 00 00 00 00	 push	 __ehhandler$??$_Deallocate@$07$0A@@std@@YAXPAXI@Z
  0000a	64 a1 00 00 00
	00		 mov	 eax, DWORD PTR fs:0
  00010	50		 push	 eax
  00011	a1 00 00 00 00	 mov	 eax, DWORD PTR ___security_cookie
  00016	33 c5		 xor	 eax, ebp
  00018	50		 push	 eax
  00019	8d 45 f4	 lea	 eax, DWORD PTR __$EHRec$[ebp]
  0001c	64 a3 00 00 00
	00		 mov	 DWORD PTR fs:0, eax

; 214  :     // deallocate storage allocated by _Allocate when !_HAS_ALIGNED_NEW || _Align <= __STDCPP_DEFAULT_NEW_ALIGNMENT__
; 215  : #if defined(_M_IX86) || defined(_M_X64)
; 216  :     if (_Bytes >= _Big_allocation_threshold) { // boost the alignment of big allocations to help autovectorization

  00022	81 7d 0c 00 10
	00 00		 cmp	 DWORD PTR __Bytes$[ebp], 4096 ; 00001000H
  00029	72 0f		 jb	 SHORT $LN2@Deallocate

; 217  :         _Adjust_manually_vector_aligned(_Ptr, _Bytes);

  0002b	8d 45 0c	 lea	 eax, DWORD PTR __Bytes$[ebp]
  0002e	50		 push	 eax
  0002f	8d 45 08	 lea	 eax, DWORD PTR __Ptr$[ebp]
  00032	50		 push	 eax
  00033	e8 00 00 00 00	 call	 ?_Adjust_manually_vector_aligned@std@@YAXAAPAXAAI@Z ; std::_Adjust_manually_vector_aligned
  00038	59		 pop	 ecx
  00039	59		 pop	 ecx
$LN2@Deallocate:

; 218  :     }
; 219  : #endif // defined(_M_IX86) || defined(_M_X64)
; 220  : 
; 221  :     ::operator delete(_Ptr, _Bytes);

  0003a	ff 75 0c	 push	 DWORD PTR __Bytes$[ebp]
  0003d	ff 75 08	 push	 DWORD PTR __Ptr$[ebp]
  00040	e8 00 00 00 00	 call	 ??3@YAXPAXI@Z		; operator delete
  00045	59		 pop	 ecx
  00046	59		 pop	 ecx

; 222  : }

  00047	8b 4d f4	 mov	 ecx, DWORD PTR __$EHRec$[ebp]
  0004a	64 89 0d 00 00
	00 00		 mov	 DWORD PTR fs:0, ecx
  00051	59		 pop	 ecx
  00052	c9		 leave
  00053	c3		 ret	 0
  00054	cc		 int	 3
  00055	cc		 int	 3
  00056	cc		 int	 3
  00057	cc		 int	 3
  00058	cc		 int	 3
_TEXT	ENDS
;	COMDAT text$x
text$x	SEGMENT
__ehhandler$??$_Deallocate@$07$0A@@std@@YAXPAXI@Z:
  00000	90		 npad	 1
  00001	90		 npad	 1
  00002	8b 54 24 08	 mov	 edx, DWORD PTR [esp+8]
  00006	8d 42 0c	 lea	 eax, DWORD PTR [edx+12]
  00009	8b 4a fc	 mov	 ecx, DWORD PTR [edx-4]
  0000c	33 c8		 xor	 ecx, eax
  0000e	e8 00 00 00 00	 call	 @__security_check_cookie@4
  00013	b8 00 00 00 00	 mov	 eax, OFFSET __ehfuncinfo$??$_Deallocate@$07$0A@@std@@YAXPAXI@Z
  00018	e9 00 00 00 00	 jmp	 ___CxxFrameHandler3
text$x	ENDS
??$_Deallocate@$07$0A@@std@@YAXPAXI@Z ENDP		; std::_Deallocate<8,0>
; Function compile flags: /Odspy
; File C:\Program Files (x86)\Microsoft Visual Studio\2019\Community\VC\Tools\MSVC\14.28.29333\include\xmemory
; File C:\Program Files (x86)\Microsoft Visual Studio\2019\Community\VC\Tools\MSVC\14.28.29333\include\xstddef
; File C:\Program Files (x86)\Microsoft Visual Studio\2019\Community\VC\Tools\MSVC\14.28.29333\include\vcruntime_new.h
; File C:\Program Files (x86)\Microsoft Visual Studio\2019\Community\VC\Tools\MSVC\14.28.29333\include\type_traits
; File C:\Program Files (x86)\Microsoft Visual Studio\2019\Community\VC\Tools\MSVC\14.28.29333\include\xmemory
;	COMDAT ??$_Construct_in_place@PADABQAD@std@@YAXAAPADABQAD@Z
_TEXT	SEGMENT
$T1 = -12						; size = 4
$T2 = -8						; size = 4
$T3 = -4						; size = 4
__Obj$ = 8						; size = 4
_<_Args_0>$ = 12					; size = 4
??$_Construct_in_place@PADABQAD@std@@YAXAAPADABQAD@Z PROC ; std::_Construct_in_place<char *,char * const &>, COMDAT

; 228  : void _Construct_in_place(_Ty& _Obj, _Types&&... _Args) noexcept(is_nothrow_constructible_v<_Ty, _Types...>) {

  00000	55		 push	 ebp
  00001	8b ec		 mov	 ebp, esp
  00003	83 ec 0c	 sub	 esp, 12			; 0000000cH
; File C:\Program Files (x86)\Microsoft Visual Studio\2019\Community\VC\Tools\MSVC\14.28.29333\include\xstddef

; 275  :     return __builtin_addressof(_Val);

  00006	8b 45 08	 mov	 eax, DWORD PTR __Obj$[ebp]
  00009	89 45 fc	 mov	 DWORD PTR $T3[ebp], eax
; File C:\Program Files (x86)\Microsoft Visual Studio\2019\Community\VC\Tools\MSVC\14.28.29333\include\vcruntime_new.h

; 169  :         return _Where;

  0000c	8b 45 fc	 mov	 eax, DWORD PTR $T3[ebp]
  0000f	89 45 f8	 mov	 DWORD PTR $T2[ebp], eax
; File C:\Program Files (x86)\Microsoft Visual Studio\2019\Community\VC\Tools\MSVC\14.28.29333\include\type_traits

; 1443 :     return static_cast<_Ty&&>(_Arg);

  00012	8b 45 0c	 mov	 eax, DWORD PTR _<_Args_0>$[ebp]
  00015	89 45 f4	 mov	 DWORD PTR $T1[ebp], eax
; File C:\Program Files (x86)\Microsoft Visual Studio\2019\Community\VC\Tools\MSVC\14.28.29333\include\xmemory

; 229  :     ::new (const_cast<void*>(static_cast<const volatile void*>(_STD addressof(_Obj))))

  00018	8b 45 f8	 mov	 eax, DWORD PTR $T2[ebp]
  0001b	8b 4d f4	 mov	 ecx, DWORD PTR $T1[ebp]
  0001e	8b 09		 mov	 ecx, DWORD PTR [ecx]
  00020	89 08		 mov	 DWORD PTR [eax], ecx

; 230  :         _Ty(_STD forward<_Types>(_Args)...);
; 231  : }

  00022	c9		 leave
  00023	c3		 ret	 0
??$_Construct_in_place@PADABQAD@std@@YAXAAPADABQAD@Z ENDP ; std::_Construct_in_place<char *,char * const &>
_TEXT	ENDS
; Function compile flags: /Odspy
; File C:\Program Files (x86)\Microsoft Visual Studio\2019\Community\VC\Tools\MSVC\14.28.29333\include\xstring
; File C:\Program Files (x86)\Microsoft Visual Studio\2019\Community\VC\Tools\MSVC\14.28.29333\include\xmemory
; File C:\Program Files (x86)\Microsoft Visual Studio\2019\Community\VC\Tools\MSVC\14.28.29333\include\xstring
; File C:\Program Files (x86)\Microsoft Visual Studio\2019\Community\VC\Tools\MSVC\14.28.29333\include\xmemory
; File C:\Program Files (x86)\Microsoft Visual Studio\2019\Community\VC\Tools\MSVC\14.28.29333\include\xstring
; File C:\Program Files (x86)\Microsoft Visual Studio\2019\Community\VC\Tools\MSVC\14.28.29333\include\xmemory
; File C:\Program Files (x86)\Microsoft Visual Studio\2019\Community\VC\Tools\MSVC\14.28.29333\include\xstring
; File C:\Program Files (x86)\Microsoft Visual Studio\2019\Community\VC\Tools\MSVC\14.28.29333\include\xstddef
; File C:\Program Files (x86)\Microsoft Visual Studio\2019\Community\VC\Tools\MSVC\14.28.29333\include\xstring
; File C:\Program Files (x86)\Microsoft Visual Studio\2019\Community\VC\Tools\MSVC\14.28.29333\include\xmemory
; File C:\Program Files (x86)\Microsoft Visual Studio\2019\Community\VC\Tools\MSVC\14.28.29333\include\xstring
;	COMDAT ??$_Reallocate_for@V<lambda_9366063389c5f42a00a5088cf24e69de>@@PBD@?$basic_string@DU?$char_traits@D@std@@V?$allocator@D@2@@std@@AAEAAV01@IV<lambda_9366063389c5f42a00a5088cf24e69de>@@PBD@Z
_TEXT	SEGMENT
__Al$ = -40						; size = 4
__Ptr$ = -36						; size = 4
__Ptr$ = -32						; size = 4
$T1 = -28						; size = 4
__Old_capacity$ = -24					; size = 4
$T2 = -20						; size = 4
__New_capacity$ = -16					; size = 4
__New_ptr$ = -12					; size = 4
_this$ = -8						; size = 4
__Overflow_is_possible$3 = -2				; size = 1
$T4 = -1						; size = 1
__New_size$ = 8						; size = 4
__Fn$ = 12						; size = 1
_<_Args_0>$ = 16					; size = 4
??$_Reallocate_for@V<lambda_9366063389c5f42a00a5088cf24e69de>@@PBD@?$basic_string@DU?$char_traits@D@std@@V?$allocator@D@2@@std@@AAEAAV01@IV<lambda_9366063389c5f42a00a5088cf24e69de>@@PBD@Z PROC ; std::basic_string<char,std::char_traits<char>,std::allocator<char> >::_Reallocate_for<<lambda_9366063389c5f42a00a5088cf24e69de>,char const *>, COMDAT
; _this$ = ecx

; 4302 :     basic_string& _Reallocate_for(const size_type _New_size, _Fty _Fn, _ArgTys... _Args) {

  00000	55		 push	 ebp
  00001	8b ec		 mov	 ebp, esp
  00003	83 ec 28	 sub	 esp, 40			; 00000028H
  00006	89 4d f8	 mov	 DWORD PTR _this$[ebp], ecx

; 4303 :         // reallocate to store exactly _New_size elements, new buffer prepared by
; 4304 :         // _Fn(_New_ptr, _New_size, _Args...)
; 4305 :         if (_New_size > max_size()) {

  00009	8b 4d f8	 mov	 ecx, DWORD PTR _this$[ebp]
  0000c	e8 00 00 00 00	 call	 ?max_size@?$basic_string@DU?$char_traits@D@std@@V?$allocator@D@2@@std@@QBEIXZ ; std::basic_string<char,std::char_traits<char>,std::allocator<char> >::max_size
  00011	39 45 08	 cmp	 DWORD PTR __New_size$[ebp], eax
  00014	76 05		 jbe	 SHORT $LN2@Reallocate

; 4306 :             _Xlen_string(); // result too long

  00016	e8 00 00 00 00	 call	 ?_Xlen_string@std@@YAXXZ ; std::_Xlen_string
$LN2@Reallocate:

; 4307 :         }
; 4308 : 
; 4309 :         const size_type _Old_capacity = _Mypair._Myval2._Myres;

  0001b	8b 45 f8	 mov	 eax, DWORD PTR _this$[ebp]
  0001e	8b 40 14	 mov	 eax, DWORD PTR [eax+20]
  00021	89 45 e8	 mov	 DWORD PTR __Old_capacity$[ebp], eax

; 4310 :         const size_type _New_capacity = _Calculate_growth(_New_size);

  00024	ff 75 08	 push	 DWORD PTR __New_size$[ebp]
  00027	8b 4d f8	 mov	 ecx, DWORD PTR _this$[ebp]
  0002a	e8 00 00 00 00	 call	 ?_Calculate_growth@?$basic_string@DU?$char_traits@D@std@@V?$allocator@D@2@@std@@ABEII@Z ; std::basic_string<char,std::char_traits<char>,std::allocator<char> >::_Calculate_growth
  0002f	89 45 f0	 mov	 DWORD PTR __New_capacity$[ebp], eax

; 4409 :         return _Mypair._Get_first();

  00032	8b 45 f8	 mov	 eax, DWORD PTR _this$[ebp]
; File C:\Program Files (x86)\Microsoft Visual Studio\2019\Community\VC\Tools\MSVC\14.28.29333\include\xmemory

; 1347 :         return *this;

  00035	89 45 e4	 mov	 DWORD PTR $T1[ebp], eax
; File C:\Program Files (x86)\Microsoft Visual Studio\2019\Community\VC\Tools\MSVC\14.28.29333\include\xstring

; 4409 :         return _Mypair._Get_first();

  00038	8b 45 e4	 mov	 eax, DWORD PTR $T1[ebp]
  0003b	89 45 d8	 mov	 DWORD PTR __Al$[ebp], eax
; File C:\Program Files (x86)\Microsoft Visual Studio\2019\Community\VC\Tools\MSVC\14.28.29333\include\xmemory

; 56   :     constexpr bool _Overflow_is_possible = _Ty_size > 1;

  0003e	c6 45 fe 00	 mov	 BYTE PTR __Overflow_is_possible$3[ebp], 0
; File C:\Program Files (x86)\Microsoft Visual Studio\2019\Community\VC\Tools\MSVC\14.28.29333\include\xstring

; 4312 :         const pointer _New_ptr        = _Al.allocate(_New_capacity + 1); // throws

  00042	8b 45 f0	 mov	 eax, DWORD PTR __New_capacity$[ebp]
  00045	40		 inc	 eax
; File C:\Program Files (x86)\Microsoft Visual Studio\2019\Community\VC\Tools\MSVC\14.28.29333\include\xmemory

; 814  :         return static_cast<_Ty*>(_Allocate<_New_alignof<_Ty>>(_Get_size_of_n<sizeof(_Ty)>(_Count)));

  00046	50		 push	 eax
  00047	e8 00 00 00 00	 call	 ??$_Allocate@$07U_Default_allocate_traits@std@@$0A@@std@@YAPAXI@Z ; std::_Allocate<8,std::_Default_allocate_traits,0>
  0004c	59		 pop	 ecx
; File C:\Program Files (x86)\Microsoft Visual Studio\2019\Community\VC\Tools\MSVC\14.28.29333\include\xstring

; 4312 :         const pointer _New_ptr        = _Al.allocate(_New_capacity + 1); // throws

  0004d	89 45 f4	 mov	 DWORD PTR __New_ptr$[ebp], eax

; 4313 :         _Mypair._Myval2._Orphan_all();
; 4314 :         _Mypair._Myval2._Mysize = _New_size;

  00050	8b 45 f8	 mov	 eax, DWORD PTR _this$[ebp]
  00053	8b 4d 08	 mov	 ecx, DWORD PTR __New_size$[ebp]
  00056	89 48 10	 mov	 DWORD PTR [eax+16], ecx

; 4315 :         _Mypair._Myval2._Myres  = _New_capacity;

  00059	8b 45 f8	 mov	 eax, DWORD PTR _this$[ebp]
  0005c	8b 4d f0	 mov	 ecx, DWORD PTR __New_capacity$[ebp]
  0005f	89 48 14	 mov	 DWORD PTR [eax+20], ecx

; 4316 :         _Fn(_Unfancy(_New_ptr), _New_size, _Args...);

  00062	8b 45 f4	 mov	 eax, DWORD PTR __New_ptr$[ebp]
  00065	89 45 e0	 mov	 DWORD PTR __Ptr$[ebp], eax
; File C:\Program Files (x86)\Microsoft Visual Studio\2019\Community\VC\Tools\MSVC\14.28.29333\include\xstddef

; 289  :     return _Ptr;

  00068	8b 45 e0	 mov	 eax, DWORD PTR __Ptr$[ebp]
  0006b	89 45 ec	 mov	 DWORD PTR $T2[ebp], eax
; File C:\Program Files (x86)\Microsoft Visual Studio\2019\Community\VC\Tools\MSVC\14.28.29333\include\xstring

; 62   :         _CSTD memcpy(_First1, _First2, _Count * sizeof(_Elem));

  0006e	ff 75 08	 push	 DWORD PTR __New_size$[ebp]
  00071	ff 75 10	 push	 DWORD PTR _<_Args_0>$[ebp]
  00074	ff 75 ec	 push	 DWORD PTR $T2[ebp]
  00077	e8 00 00 00 00	 call	 _memcpy
  0007c	83 c4 0c	 add	 esp, 12			; 0000000cH

; 3056 :                 _Traits::assign(_New_ptr[_Count], _Elem());

  0007f	c6 45 ff 00	 mov	 BYTE PTR $T4[ebp], 0

; 428  :         _Left = _Right;

  00083	8b 45 ec	 mov	 eax, DWORD PTR $T2[ebp]
  00086	03 45 08	 add	 eax, DWORD PTR __New_size$[ebp]
  00089	8a 4d ff	 mov	 cl, BYTE PTR $T4[ebp]
  0008c	88 08		 mov	 BYTE PTR [eax], cl

; 4317 :         if (_BUF_SIZE <= _Old_capacity) {

  0008e	83 7d e8 10	 cmp	 DWORD PTR __Old_capacity$[ebp], 16 ; 00000010H
  00092	72 21		 jb	 SHORT $LN3@Reallocate

; 4318 :             _Al.deallocate(_Mypair._Myval2._Bx._Ptr, _Old_capacity + 1);

  00094	8b 45 f8	 mov	 eax, DWORD PTR _this$[ebp]
  00097	8b 00		 mov	 eax, DWORD PTR [eax]
  00099	89 45 dc	 mov	 DWORD PTR __Ptr$[ebp], eax
  0009c	8b 45 e8	 mov	 eax, DWORD PTR __Old_capacity$[ebp]
  0009f	40		 inc	 eax
; File C:\Program Files (x86)\Microsoft Visual Studio\2019\Community\VC\Tools\MSVC\14.28.29333\include\xmemory

; 810  :         _Deallocate<_New_alignof<_Ty>>(_Ptr, sizeof(_Ty) * _Count);

  000a0	50		 push	 eax
  000a1	ff 75 dc	 push	 DWORD PTR __Ptr$[ebp]
  000a4	e8 00 00 00 00	 call	 ??$_Deallocate@$07$0A@@std@@YAXPAXI@Z ; std::_Deallocate<8,0>
  000a9	59		 pop	 ecx
  000aa	59		 pop	 ecx
; File C:\Program Files (x86)\Microsoft Visual Studio\2019\Community\VC\Tools\MSVC\14.28.29333\include\xstring

; 4319 :             _Mypair._Myval2._Bx._Ptr = _New_ptr;

  000ab	8b 45 f8	 mov	 eax, DWORD PTR _this$[ebp]
  000ae	8b 4d f4	 mov	 ecx, DWORD PTR __New_ptr$[ebp]
  000b1	89 08		 mov	 DWORD PTR [eax], ecx

; 4320 :         } else {

  000b3	eb 0e		 jmp	 SHORT $LN4@Reallocate
$LN3@Reallocate:

; 4321 :             _Construct_in_place(_Mypair._Myval2._Bx._Ptr, _New_ptr);

  000b5	8d 45 f4	 lea	 eax, DWORD PTR __New_ptr$[ebp]
  000b8	50		 push	 eax
  000b9	ff 75 f8	 push	 DWORD PTR _this$[ebp]
  000bc	e8 00 00 00 00	 call	 ??$_Construct_in_place@PADABQAD@std@@YAXAAPADABQAD@Z ; std::_Construct_in_place<char *,char * const &>
  000c1	59		 pop	 ecx
  000c2	59		 pop	 ecx
$LN4@Reallocate:

; 4322 :         }
; 4323 : 
; 4324 :         return *this;

  000c3	8b 45 f8	 mov	 eax, DWORD PTR _this$[ebp]
$LN5@Reallocate:

; 4325 :     }

  000c6	c9		 leave
  000c7	c2 0c 00	 ret	 12			; 0000000cH
??$_Reallocate_for@V<lambda_9366063389c5f42a00a5088cf24e69de>@@PBD@?$basic_string@DU?$char_traits@D@std@@V?$allocator@D@2@@std@@AAEAAV01@IV<lambda_9366063389c5f42a00a5088cf24e69de>@@PBD@Z ENDP ; std::basic_string<char,std::char_traits<char>,std::allocator<char> >::_Reallocate_for<<lambda_9366063389c5f42a00a5088cf24e69de>,char const *>
_TEXT	ENDS
; Function compile flags: /Odspy
; File C:\Program Files (x86)\Microsoft Visual Studio\2019\Community\VC\Tools\MSVC\14.28.29333\include\xmemory
;	COMDAT ??$_Destroy_in_place@PAD@std@@YAXAAPAD@Z
_TEXT	SEGMENT
__Obj$ = 8						; size = 4
??$_Destroy_in_place@PAD@std@@YAXAAPAD@Z PROC		; std::_Destroy_in_place<char *>, COMDAT

; 270  : /* _CONSTEXPR20_DYNALLOC */ void _Destroy_in_place(_Ty& _Obj) noexcept {

  00000	55		 push	 ebp
  00001	8b ec		 mov	 ebp, esp

; 271  : #if _HAS_IF_CONSTEXPR
; 272  :     if constexpr (is_array_v<_Ty>) {
; 273  :         _Destroy_range(_Obj, _Obj + extent_v<_Ty>);
; 274  :     } else
; 275  : #endif // _HAS_IF_CONSTEXPR
; 276  :     {
; 277  :         _Obj.~_Ty();
; 278  :     }
; 279  : }

  00003	5d		 pop	 ebp
  00004	c3		 ret	 0
??$_Destroy_in_place@PAD@std@@YAXAAPAD@Z ENDP		; std::_Destroy_in_place<char *>
_TEXT	ENDS
; Function compile flags: /Odspy
; File D:\Metin2 Server Files\mainline\SRC_2014\Metin2Client\UserInterface\PythonItemModule.cpp
;	COMDAT ?initItem@@YAXXZ
_TEXT	SEGMENT
_poModule$ = -4						; size = 4
?initItem@@YAXXZ PROC					; initItem, COMDAT

; 505  : {

  00000	55		 push	 ebp
  00001	8b ec		 mov	 ebp, esp
  00003	51		 push	 ecx

; 506  : 	static PyMethodDef s_methods[] =
; 507  : 	{	
; 508  : 		{ "SetUseSoundFileName",			itemSetUseSoundFileName,				METH_VARARGS },
; 509  : 		{ "SetDropSoundFileName",			itemSetDropSoundFileName,				METH_VARARGS },
; 510  : 		{ "SelectItem",						itemSelectItem,							METH_VARARGS },
; 511  : 
; 512  : 		{ "GetItemName",					itemGetItemName,						METH_VARARGS },
; 513  : 		{ "GetItemDescription",				itemGetItemDescription,					METH_VARARGS },
; 514  : 		{ "GetItemSummary",					itemGetItemSummary,						METH_VARARGS },
; 515  : 		{ "GetIconImage",					itemGetIconImage,						METH_VARARGS },
; 516  : 		{ "GetIconImageFileName",			itemGetIconImageFileName,				METH_VARARGS },
; 517  : 		{ "GetItemSize",					itemGetItemSize,						METH_VARARGS },
; 518  : 		{ "GetItemType",					itemGetItemType,						METH_VARARGS },
; 519  : 		{ "GetItemSubType",					itemGetItemSubType,						METH_VARARGS },
; 520  : 		{ "GetIBuyItemPrice",				itemGetIBuyItemPrice,					METH_VARARGS },
; 521  : 		{ "GetISellItemPrice",				itemGetISellItemPrice,					METH_VARARGS },
; 522  : 		{ "IsAntiFlag",						itemIsAntiFlag,							METH_VARARGS },
; 523  : 		{ "IsFlag",							itemIsFlag,								METH_VARARGS },
; 524  : 		{ "IsWearableFlag",					itemIsWearableFlag,						METH_VARARGS },
; 525  : 		{ "Is1GoldItem",					itemIs1GoldItem,						METH_VARARGS },
; 526  : 		{ "GetLimit",						itemGetLimit,							METH_VARARGS },
; 527  : 		{ "GetAffect",						itemGetAffect,							METH_VARARGS },
; 528  : 		{ "GetValue",						itemGetValue,							METH_VARARGS },
; 529  : 		{ "GetSocket",						itemGetSocket,							METH_VARARGS },
; 530  : 		{ "GetIconInstance",				itemGetIconInstance,					METH_VARARGS },
; 531  : 		{ "GetUseType",						itemGetUseType,							METH_VARARGS },
; 532  : 		{ "DeleteIconInstance",				itemDeleteIconInstance,					METH_VARARGS },
; 533  : 		{ "IsEquipmentVID",					itemIsEquipmentVID,						METH_VARARGS },		
; 534  : 		{ "IsRefineScroll",					itemIsRefineScroll,						METH_VARARGS },
; 535  : 		{ "IsDetachScroll",					itemIsDetachScroll,						METH_VARARGS },
; 536  : 		{ "IsKey",							itemIsKey,								METH_VARARGS },
; 537  : 		{ "IsMetin",						itemIsMetin,							METH_VARARGS },
; 538  : 		{ "CanAddToQuickSlotItem",			itemCanAddToQuickSlotItem,				METH_VARARGS },
; 539  : 
; 540  : 		{ "Update",							itemUpdate,								METH_VARARGS },
; 541  : 		{ "Render",							itemRender,								METH_VARARGS },
; 542  : 		{ "CreateItem",						itemCreateItem,							METH_VARARGS },
; 543  : 		{ "DeleteItem",						itemDeleteItem,							METH_VARARGS },
; 544  : 		{ "Pick",							itemPick,								METH_VARARGS },
; 545  : 
; 546  : 		{ "LoadItemTable",					itemLoadItemTable,						METH_VARARGS },
; 547  : 
; 548  : 		{ NULL,								NULL,									NULL		 },
; 549  : 	};
; 550  : 
; 551  : 	PyObject * poModule = Py_InitModule("item", s_methods);

  00004	68 f5 03 00 00	 push	 1013			; 000003f5H
  00009	6a 00		 push	 0
  0000b	6a 00		 push	 0
  0000d	68 00 00 00 00	 push	 OFFSET ?s_methods@?1??initItem@@YAXXZ@4PAUPyMethodDef@@A
  00012	68 00 00 00 00	 push	 OFFSET ??_C@_04NHONDGDE@item@
  00017	ff 15 00 00 00
	00		 call	 DWORD PTR __imp__Py_InitModule4
  0001d	83 c4 14	 add	 esp, 20			; 00000014H
  00020	89 45 fc	 mov	 DWORD PTR _poModule$[ebp], eax

; 552  : 
; 553  : 	PyModule_AddIntConstant(poModule, "USESOUND_ACCESSORY",			CPythonItem::USESOUND_ACCESSORY);

  00023	6a 05		 push	 5
  00025	68 00 00 00 00	 push	 OFFSET ??_C@_0BD@MEKMBKPM@USESOUND_ACCESSORY@
  0002a	ff 75 fc	 push	 DWORD PTR _poModule$[ebp]
  0002d	ff 15 00 00 00
	00		 call	 DWORD PTR __imp__PyModule_AddIntConstant
  00033	83 c4 0c	 add	 esp, 12			; 0000000cH

; 554  : 	PyModule_AddIntConstant(poModule, "USESOUND_ARMOR",				CPythonItem::USESOUND_ARMOR);

  00036	6a 02		 push	 2
  00038	68 00 00 00 00	 push	 OFFSET ??_C@_0P@ENGKPPPD@USESOUND_ARMOR@
  0003d	ff 75 fc	 push	 DWORD PTR _poModule$[ebp]
  00040	ff 15 00 00 00
	00		 call	 DWORD PTR __imp__PyModule_AddIntConstant
  00046	83 c4 0c	 add	 esp, 12			; 0000000cH

; 555  : 	PyModule_AddIntConstant(poModule, "USESOUND_BOW",				CPythonItem::USESOUND_BOW);

  00049	6a 04		 push	 4
  0004b	68 00 00 00 00	 push	 OFFSET ??_C@_0N@MDIFIDON@USESOUND_BOW@
  00050	ff 75 fc	 push	 DWORD PTR _poModule$[ebp]
  00053	ff 15 00 00 00
	00		 call	 DWORD PTR __imp__PyModule_AddIntConstant
  00059	83 c4 0c	 add	 esp, 12			; 0000000cH

; 556  : 	PyModule_AddIntConstant(poModule, "USESOUND_DEFAULT",			CPythonItem::USESOUND_DEFAULT);

  0005c	6a 01		 push	 1
  0005e	68 00 00 00 00	 push	 OFFSET ??_C@_0BB@BHHNCGFC@USESOUND_DEFAULT@
  00063	ff 75 fc	 push	 DWORD PTR _poModule$[ebp]
  00066	ff 15 00 00 00
	00		 call	 DWORD PTR __imp__PyModule_AddIntConstant
  0006c	83 c4 0c	 add	 esp, 12			; 0000000cH

; 557  : 	PyModule_AddIntConstant(poModule, "USESOUND_WEAPON",			CPythonItem::USESOUND_WEAPON);

  0006f	6a 03		 push	 3
  00071	68 00 00 00 00	 push	 OFFSET ??_C@_0BA@IJKKKKOO@USESOUND_WEAPON@
  00076	ff 75 fc	 push	 DWORD PTR _poModule$[ebp]
  00079	ff 15 00 00 00
	00		 call	 DWORD PTR __imp__PyModule_AddIntConstant
  0007f	83 c4 0c	 add	 esp, 12			; 0000000cH

; 558  : 	PyModule_AddIntConstant(poModule, "USESOUND_POTION",			CPythonItem::USESOUND_POTION);

  00082	6a 06		 push	 6
  00084	68 00 00 00 00	 push	 OFFSET ??_C@_0BA@GIIHLHOB@USESOUND_POTION@
  00089	ff 75 fc	 push	 DWORD PTR _poModule$[ebp]
  0008c	ff 15 00 00 00
	00		 call	 DWORD PTR __imp__PyModule_AddIntConstant
  00092	83 c4 0c	 add	 esp, 12			; 0000000cH

; 559  : 	PyModule_AddIntConstant(poModule, "USESOUND_PORTAL",			CPythonItem::USESOUND_PORTAL);

  00095	6a 07		 push	 7
  00097	68 00 00 00 00	 push	 OFFSET ??_C@_0BA@HNBMICIL@USESOUND_PORTAL@
  0009c	ff 75 fc	 push	 DWORD PTR _poModule$[ebp]
  0009f	ff 15 00 00 00
	00		 call	 DWORD PTR __imp__PyModule_AddIntConstant
  000a5	83 c4 0c	 add	 esp, 12			; 0000000cH

; 560  : 
; 561  : 	PyModule_AddIntConstant(poModule, "DROPSOUND_ACCESSORY",		CPythonItem::DROPSOUND_ACCESSORY);

  000a8	6a 04		 push	 4
  000aa	68 00 00 00 00	 push	 OFFSET ??_C@_0BE@PBPPNIPJ@DROPSOUND_ACCESSORY@
  000af	ff 75 fc	 push	 DWORD PTR _poModule$[ebp]
  000b2	ff 15 00 00 00
	00		 call	 DWORD PTR __imp__PyModule_AddIntConstant
  000b8	83 c4 0c	 add	 esp, 12			; 0000000cH

; 562  : 	PyModule_AddIntConstant(poModule, "DROPSOUND_ARMOR",			CPythonItem::DROPSOUND_ARMOR);

  000bb	6a 01		 push	 1
  000bd	68 00 00 00 00	 push	 OFFSET ??_C@_0BA@PCCDLKKO@DROPSOUND_ARMOR@
  000c2	ff 75 fc	 push	 DWORD PTR _poModule$[ebp]
  000c5	ff 15 00 00 00
	00		 call	 DWORD PTR __imp__PyModule_AddIntConstant
  000cb	83 c4 0c	 add	 esp, 12			; 0000000cH

; 563  : 	PyModule_AddIntConstant(poModule, "DROPSOUND_BOW",				CPythonItem::DROPSOUND_BOW);

  000ce	6a 03		 push	 3
  000d0	68 00 00 00 00	 push	 OFFSET ??_C@_0O@OOJPAKOO@DROPSOUND_BOW@
  000d5	ff 75 fc	 push	 DWORD PTR _poModule$[ebp]
  000d8	ff 15 00 00 00
	00		 call	 DWORD PTR __imp__PyModule_AddIntConstant
  000de	83 c4 0c	 add	 esp, 12			; 0000000cH

; 564  : 	PyModule_AddIntConstant(poModule, "DROPSOUND_DEFAULT",			CPythonItem::DROPSOUND_DEFAULT);

  000e1	6a 00		 push	 0
  000e3	68 00 00 00 00	 push	 OFFSET ??_C@_0BC@BONOAPBN@DROPSOUND_DEFAULT@
  000e8	ff 75 fc	 push	 DWORD PTR _poModule$[ebp]
  000eb	ff 15 00 00 00
	00		 call	 DWORD PTR __imp__PyModule_AddIntConstant
  000f1	83 c4 0c	 add	 esp, 12			; 0000000cH

; 565  : 	PyModule_AddIntConstant(poModule, "DROPSOUND_WEAPON",			CPythonItem::DROPSOUND_WEAPON);

  000f4	6a 02		 push	 2
  000f6	68 00 00 00 00	 push	 OFFSET ??_C@_0BB@JMMPMOOC@DROPSOUND_WEAPON@
  000fb	ff 75 fc	 push	 DWORD PTR _poModule$[ebp]
  000fe	ff 15 00 00 00
	00		 call	 DWORD PTR __imp__PyModule_AddIntConstant
  00104	83 c4 0c	 add	 esp, 12			; 0000000cH

; 566  : 
; 567  : 	PyModule_AddIntConstant(poModule, "EQUIPMENT_COUNT",			c_Equipment_Count);

  00107	6a 0c		 push	 12			; 0000000cH
  00109	68 00 00 00 00	 push	 OFFSET ??_C@_0BA@KJELJAII@EQUIPMENT_COUNT@
  0010e	ff 75 fc	 push	 DWORD PTR _poModule$[ebp]
  00111	ff 15 00 00 00
	00		 call	 DWORD PTR __imp__PyModule_AddIntConstant
  00117	83 c4 0c	 add	 esp, 12			; 0000000cH

; 568  : 	PyModule_AddIntConstant(poModule, "EQUIPMENT_HEAD",				c_Equipment_Head);

  0011a	6a 5b		 push	 91			; 0000005bH
  0011c	68 00 00 00 00	 push	 OFFSET ??_C@_0P@GCJFHMFC@EQUIPMENT_HEAD@
  00121	ff 75 fc	 push	 DWORD PTR _poModule$[ebp]
  00124	ff 15 00 00 00
	00		 call	 DWORD PTR __imp__PyModule_AddIntConstant
  0012a	83 c4 0c	 add	 esp, 12			; 0000000cH

; 569  : 	PyModule_AddIntConstant(poModule, "EQUIPMENT_BODY",				c_Equipment_Body);

  0012d	6a 5a		 push	 90			; 0000005aH
  0012f	68 00 00 00 00	 push	 OFFSET ??_C@_0P@LODPCKGA@EQUIPMENT_BODY@
  00134	ff 75 fc	 push	 DWORD PTR _poModule$[ebp]
  00137	ff 15 00 00 00
	00		 call	 DWORD PTR __imp__PyModule_AddIntConstant
  0013d	83 c4 0c	 add	 esp, 12			; 0000000cH

; 570  : 	PyModule_AddIntConstant(poModule, "EQUIPMENT_WEAPON",			c_Equipment_Weapon);

  00140	6a 5e		 push	 94			; 0000005eH
  00142	68 00 00 00 00	 push	 OFFSET ??_C@_0BB@IKOPOEMN@EQUIPMENT_WEAPON@
  00147	ff 75 fc	 push	 DWORD PTR _poModule$[ebp]
  0014a	ff 15 00 00 00
	00		 call	 DWORD PTR __imp__PyModule_AddIntConstant
  00150	83 c4 0c	 add	 esp, 12			; 0000000cH

; 571  : 	PyModule_AddIntConstant(poModule, "EQUIPMENT_WRIST",			c_Equipment_Wrist);

  00153	6a 5d		 push	 93			; 0000005dH
  00155	68 00 00 00 00	 push	 OFFSET ??_C@_0BA@KHENFLDC@EQUIPMENT_WRIST@
  0015a	ff 75 fc	 push	 DWORD PTR _poModule$[ebp]
  0015d	ff 15 00 00 00
	00		 call	 DWORD PTR __imp__PyModule_AddIntConstant
  00163	83 c4 0c	 add	 esp, 12			; 0000000cH

; 572  : 	PyModule_AddIntConstant(poModule, "EQUIPMENT_SHOES",			c_Equipment_Shoes);

  00166	6a 5c		 push	 92			; 0000005cH
  00168	68 00 00 00 00	 push	 OFFSET ??_C@_0BA@GEANIANO@EQUIPMENT_SHOES@
  0016d	ff 75 fc	 push	 DWORD PTR _poModule$[ebp]
  00170	ff 15 00 00 00
	00		 call	 DWORD PTR __imp__PyModule_AddIntConstant
  00176	83 c4 0c	 add	 esp, 12			; 0000000cH

; 573  : 	PyModule_AddIntConstant(poModule, "EQUIPMENT_NECK",				c_Equipment_Neck);

  00179	6a 5f		 push	 95			; 0000005fH
  0017b	68 00 00 00 00	 push	 OFFSET ??_C@_0P@GJMJEBFD@EQUIPMENT_NECK@
  00180	ff 75 fc	 push	 DWORD PTR _poModule$[ebp]
  00183	ff 15 00 00 00
	00		 call	 DWORD PTR __imp__PyModule_AddIntConstant
  00189	83 c4 0c	 add	 esp, 12			; 0000000cH

; 574  : 	PyModule_AddIntConstant(poModule, "EQUIPMENT_EAR",				c_Equipment_Ear);

  0018c	6a 60		 push	 96			; 00000060H
  0018e	68 00 00 00 00	 push	 OFFSET ??_C@_0O@KNFMDJEG@EQUIPMENT_EAR@
  00193	ff 75 fc	 push	 DWORD PTR _poModule$[ebp]
  00196	ff 15 00 00 00
	00		 call	 DWORD PTR __imp__PyModule_AddIntConstant
  0019c	83 c4 0c	 add	 esp, 12			; 0000000cH

; 575  : 	PyModule_AddIntConstant(poModule, "EQUIPMENT_UNIQUE1",			c_Equipment_Unique1);

  0019f	6a 61		 push	 97			; 00000061H
  001a1	68 00 00 00 00	 push	 OFFSET ??_C@_0BC@IBOCPGBL@EQUIPMENT_UNIQUE1@
  001a6	ff 75 fc	 push	 DWORD PTR _poModule$[ebp]
  001a9	ff 15 00 00 00
	00		 call	 DWORD PTR __imp__PyModule_AddIntConstant
  001af	83 c4 0c	 add	 esp, 12			; 0000000cH

; 576  : 	PyModule_AddIntConstant(poModule, "EQUIPMENT_UNIQUE2",			c_Equipment_Unique2);

  001b2	6a 62		 push	 98			; 00000062H
  001b4	68 00 00 00 00	 push	 OFFSET ??_C@_0BC@KKMPKFNI@EQUIPMENT_UNIQUE2@
  001b9	ff 75 fc	 push	 DWORD PTR _poModule$[ebp]
  001bc	ff 15 00 00 00
	00		 call	 DWORD PTR __imp__PyModule_AddIntConstant
  001c2	83 c4 0c	 add	 esp, 12			; 0000000cH

; 577  : 	PyModule_AddIntConstant(poModule, "EQUIPMENT_ARROW",			c_Equipment_Arrow);

  001c5	6a 63		 push	 99			; 00000063H
  001c7	68 00 00 00 00	 push	 OFFSET ??_C@_0BA@MLMLGDPN@EQUIPMENT_ARROW@
  001cc	ff 75 fc	 push	 DWORD PTR _poModule$[ebp]
  001cf	ff 15 00 00 00
	00		 call	 DWORD PTR __imp__PyModule_AddIntConstant
  001d5	83 c4 0c	 add	 esp, 12			; 0000000cH

; 578  : 
; 579  : #ifdef ENABLE_NEW_EQUIPMENT_SYSTEM
; 580  : 	PyModule_AddIntConstant(poModule, "EQUIPMENT_RING1",			c_Equipment_Ring1);

  001d8	6a 6f		 push	 111			; 0000006fH
  001da	68 00 00 00 00	 push	 OFFSET ??_C@_0BA@HOMCMAOF@EQUIPMENT_RING1@
  001df	ff 75 fc	 push	 DWORD PTR _poModule$[ebp]
  001e2	ff 15 00 00 00
	00		 call	 DWORD PTR __imp__PyModule_AddIntConstant
  001e8	83 c4 0c	 add	 esp, 12			; 0000000cH

; 581  : 	PyModule_AddIntConstant(poModule, "EQUIPMENT_RING2",			c_Equipment_Ring2);

  001eb	6a 70		 push	 112			; 00000070H
  001ed	68 00 00 00 00	 push	 OFFSET ??_C@_0BA@FFOPJDCG@EQUIPMENT_RING2@
  001f2	ff 75 fc	 push	 DWORD PTR _poModule$[ebp]
  001f5	ff 15 00 00 00
	00		 call	 DWORD PTR __imp__PyModule_AddIntConstant
  001fb	83 c4 0c	 add	 esp, 12			; 0000000cH

; 582  : 	PyModule_AddIntConstant(poModule, "EQUIPMENT_BELT",				c_Equipment_Belt);

  001fe	6a 71		 push	 113			; 00000071H
  00200	68 00 00 00 00	 push	 OFFSET ??_C@_0P@GKDPOFPB@EQUIPMENT_BELT@
  00205	ff 75 fc	 push	 DWORD PTR _poModule$[ebp]
  00208	ff 15 00 00 00
	00		 call	 DWORD PTR __imp__PyModule_AddIntConstant
  0020e	83 c4 0c	 add	 esp, 12			; 0000000cH

; 583  : #endif
; 584  : 
; 585  : 	PyModule_AddIntConstant(poModule, "ITEM_TYPE_NONE",				CItemData::ITEM_TYPE_NONE);

  00211	6a 00		 push	 0
  00213	68 00 00 00 00	 push	 OFFSET ??_C@_0P@EMFHBOCE@ITEM_TYPE_NONE@
  00218	ff 75 fc	 push	 DWORD PTR _poModule$[ebp]
  0021b	ff 15 00 00 00
	00		 call	 DWORD PTR __imp__PyModule_AddIntConstant
  00221	83 c4 0c	 add	 esp, 12			; 0000000cH

; 586  : 	PyModule_AddIntConstant(poModule, "ITEM_TYPE_WEAPON",			CItemData::ITEM_TYPE_WEAPON);

  00224	6a 01		 push	 1
  00226	68 00 00 00 00	 push	 OFFSET ??_C@_0BB@KIJBPCOD@ITEM_TYPE_WEAPON@
  0022b	ff 75 fc	 push	 DWORD PTR _poModule$[ebp]
  0022e	ff 15 00 00 00
	00		 call	 DWORD PTR __imp__PyModule_AddIntConstant
  00234	83 c4 0c	 add	 esp, 12			; 0000000cH

; 587  : 	PyModule_AddIntConstant(poModule, "ITEM_TYPE_ARMOR",			CItemData::ITEM_TYPE_ARMOR);

  00237	6a 02		 push	 2
  00239	68 00 00 00 00	 push	 OFFSET ??_C@_0BA@MCMGEHMH@ITEM_TYPE_ARMOR@
  0023e	ff 75 fc	 push	 DWORD PTR _poModule$[ebp]
  00241	ff 15 00 00 00
	00		 call	 DWORD PTR __imp__PyModule_AddIntConstant
  00247	83 c4 0c	 add	 esp, 12			; 0000000cH

; 588  : 	PyModule_AddIntConstant(poModule, "ITEM_TYPE_USE",				CItemData::ITEM_TYPE_USE);

  0024a	6a 03		 push	 3
  0024c	68 00 00 00 00	 push	 OFFSET ??_C@_0O@EJGIJMHP@ITEM_TYPE_USE@
  00251	ff 75 fc	 push	 DWORD PTR _poModule$[ebp]
  00254	ff 15 00 00 00
	00		 call	 DWORD PTR __imp__PyModule_AddIntConstant
  0025a	83 c4 0c	 add	 esp, 12			; 0000000cH

; 589  : 	PyModule_AddIntConstant(poModule, "ITEM_TYPE_AUTOUSE",			CItemData::ITEM_TYPE_AUTOUSE);

  0025d	6a 04		 push	 4
  0025f	68 00 00 00 00	 push	 OFFSET ??_C@_0BC@PDFOCJLB@ITEM_TYPE_AUTOUSE@
  00264	ff 75 fc	 push	 DWORD PTR _poModule$[ebp]
  00267	ff 15 00 00 00
	00		 call	 DWORD PTR __imp__PyModule_AddIntConstant
  0026d	83 c4 0c	 add	 esp, 12			; 0000000cH

; 590  : 	PyModule_AddIntConstant(poModule, "ITEM_TYPE_MATERIAL",			CItemData::ITEM_TYPE_MATERIAL);

  00270	6a 05		 push	 5
  00272	68 00 00 00 00	 push	 OFFSET ??_C@_0BD@NFIKPBKO@ITEM_TYPE_MATERIAL@
  00277	ff 75 fc	 push	 DWORD PTR _poModule$[ebp]
  0027a	ff 15 00 00 00
	00		 call	 DWORD PTR __imp__PyModule_AddIntConstant
  00280	83 c4 0c	 add	 esp, 12			; 0000000cH

; 591  : 	PyModule_AddIntConstant(poModule, "ITEM_TYPE_SPECIAL",			CItemData::ITEM_TYPE_SPECIAL);

  00283	6a 06		 push	 6
  00285	68 00 00 00 00	 push	 OFFSET ??_C@_0BC@EGCNCIAP@ITEM_TYPE_SPECIAL@
  0028a	ff 75 fc	 push	 DWORD PTR _poModule$[ebp]
  0028d	ff 15 00 00 00
	00		 call	 DWORD PTR __imp__PyModule_AddIntConstant
  00293	83 c4 0c	 add	 esp, 12			; 0000000cH

; 592  : 	PyModule_AddIntConstant(poModule, "ITEM_TYPE_TOOL",				CItemData::ITEM_TYPE_TOOL);

  00296	6a 07		 push	 7
  00298	68 00 00 00 00	 push	 OFFSET ??_C@_0P@LGAHEAHJ@ITEM_TYPE_TOOL@
  0029d	ff 75 fc	 push	 DWORD PTR _poModule$[ebp]
  002a0	ff 15 00 00 00
	00		 call	 DWORD PTR __imp__PyModule_AddIntConstant
  002a6	83 c4 0c	 add	 esp, 12			; 0000000cH

; 593  : 	PyModule_AddIntConstant(poModule, "ITEM_TYPE_LOTTERY",			CItemData::ITEM_TYPE_LOTTERY);

  002a9	6a 08		 push	 8
  002ab	68 00 00 00 00	 push	 OFFSET ??_C@_0BC@LGJDJIG@ITEM_TYPE_LOTTERY@
  002b0	ff 75 fc	 push	 DWORD PTR _poModule$[ebp]
  002b3	ff 15 00 00 00
	00		 call	 DWORD PTR __imp__PyModule_AddIntConstant
  002b9	83 c4 0c	 add	 esp, 12			; 0000000cH

; 594  : 	PyModule_AddIntConstant(poModule, "ITEM_TYPE_ELK",				CItemData::ITEM_TYPE_ELK);

  002bc	6a 09		 push	 9
  002be	68 00 00 00 00	 push	 OFFSET ??_C@_0O@JAIIACCD@ITEM_TYPE_ELK@
  002c3	ff 75 fc	 push	 DWORD PTR _poModule$[ebp]
  002c6	ff 15 00 00 00
	00		 call	 DWORD PTR __imp__PyModule_AddIntConstant
  002cc	83 c4 0c	 add	 esp, 12			; 0000000cH

; 595  : 	PyModule_AddIntConstant(poModule, "ITEM_TYPE_METIN",			CItemData::ITEM_TYPE_METIN);

  002cf	6a 0a		 push	 10			; 0000000aH
  002d1	68 00 00 00 00	 push	 OFFSET ??_C@_0BA@KICPPFNE@ITEM_TYPE_METIN@
  002d6	ff 75 fc	 push	 DWORD PTR _poModule$[ebp]
  002d9	ff 15 00 00 00
	00		 call	 DWORD PTR __imp__PyModule_AddIntConstant
  002df	83 c4 0c	 add	 esp, 12			; 0000000cH

; 596  : 	PyModule_AddIntConstant(poModule, "ITEM_TYPE_CONTAINER",		CItemData::ITEM_TYPE_CONTAINER);

  002e2	6a 0b		 push	 11			; 0000000bH
  002e4	68 00 00 00 00	 push	 OFFSET ??_C@_0BE@JBBPDBJM@ITEM_TYPE_CONTAINER@
  002e9	ff 75 fc	 push	 DWORD PTR _poModule$[ebp]
  002ec	ff 15 00 00 00
	00		 call	 DWORD PTR __imp__PyModule_AddIntConstant
  002f2	83 c4 0c	 add	 esp, 12			; 0000000cH

; 597  : 	PyModule_AddIntConstant(poModule, "ITEM_TYPE_FISH",				CItemData::ITEM_TYPE_FISH);

  002f5	6a 0c		 push	 12			; 0000000cH
  002f7	68 00 00 00 00	 push	 OFFSET ??_C@_0P@PIBMEEFH@ITEM_TYPE_FISH@
  002fc	ff 75 fc	 push	 DWORD PTR _poModule$[ebp]
  002ff	ff 15 00 00 00
	00		 call	 DWORD PTR __imp__PyModule_AddIntConstant
  00305	83 c4 0c	 add	 esp, 12			; 0000000cH

; 598  : 	PyModule_AddIntConstant(poModule, "ITEM_TYPE_ROD",				CItemData::ITEM_TYPE_ROD);

  00308	6a 0d		 push	 13			; 0000000dH
  0030a	68 00 00 00 00	 push	 OFFSET ??_C@_0O@NIJIMPJD@ITEM_TYPE_ROD@
  0030f	ff 75 fc	 push	 DWORD PTR _poModule$[ebp]
  00312	ff 15 00 00 00
	00		 call	 DWORD PTR __imp__PyModule_AddIntConstant
  00318	83 c4 0c	 add	 esp, 12			; 0000000cH

; 599  : 	PyModule_AddIntConstant(poModule, "ITEM_TYPE_RESOURCE",			CItemData::ITEM_TYPE_RESOURCE);

  0031b	6a 0e		 push	 14			; 0000000eH
  0031d	68 00 00 00 00	 push	 OFFSET ??_C@_0BD@KBPLAMLF@ITEM_TYPE_RESOURCE@
  00322	ff 75 fc	 push	 DWORD PTR _poModule$[ebp]
  00325	ff 15 00 00 00
	00		 call	 DWORD PTR __imp__PyModule_AddIntConstant
  0032b	83 c4 0c	 add	 esp, 12			; 0000000cH

; 600  : 	PyModule_AddIntConstant(poModule, "ITEM_TYPE_CAMPFIRE",			CItemData::ITEM_TYPE_CAMPFIRE);

  0032e	6a 0f		 push	 15			; 0000000fH
  00330	68 00 00 00 00	 push	 OFFSET ??_C@_0BD@OGNHPHCL@ITEM_TYPE_CAMPFIRE@
  00335	ff 75 fc	 push	 DWORD PTR _poModule$[ebp]
  00338	ff 15 00 00 00
	00		 call	 DWORD PTR __imp__PyModule_AddIntConstant
  0033e	83 c4 0c	 add	 esp, 12			; 0000000cH

; 601  : 	PyModule_AddIntConstant(poModule, "ITEM_TYPE_UNIQUE",			CItemData::ITEM_TYPE_UNIQUE);

  00341	6a 10		 push	 16			; 00000010H
  00343	68 00 00 00 00	 push	 OFFSET ??_C@_0BB@CPEAMAMA@ITEM_TYPE_UNIQUE@
  00348	ff 75 fc	 push	 DWORD PTR _poModule$[ebp]
  0034b	ff 15 00 00 00
	00		 call	 DWORD PTR __imp__PyModule_AddIntConstant
  00351	83 c4 0c	 add	 esp, 12			; 0000000cH

; 602  : 	PyModule_AddIntConstant(poModule, "ITEM_TYPE_SKILLBOOK",		CItemData::ITEM_TYPE_SKILLBOOK);

  00354	6a 11		 push	 17			; 00000011H
  00356	68 00 00 00 00	 push	 OFFSET ??_C@_0BE@FAMMFDKM@ITEM_TYPE_SKILLBOOK@
  0035b	ff 75 fc	 push	 DWORD PTR _poModule$[ebp]
  0035e	ff 15 00 00 00
	00		 call	 DWORD PTR __imp__PyModule_AddIntConstant
  00364	83 c4 0c	 add	 esp, 12			; 0000000cH

; 603  : 	PyModule_AddIntConstant(poModule, "ITEM_TYPE_QUEST",			CItemData::ITEM_TYPE_QUEST);

  00367	6a 12		 push	 18			; 00000012H
  00369	68 00 00 00 00	 push	 OFFSET ??_C@_0BA@PFOCEMDB@ITEM_TYPE_QUEST@
  0036e	ff 75 fc	 push	 DWORD PTR _poModule$[ebp]
  00371	ff 15 00 00 00
	00		 call	 DWORD PTR __imp__PyModule_AddIntConstant
  00377	83 c4 0c	 add	 esp, 12			; 0000000cH

; 604  : 	PyModule_AddIntConstant(poModule, "ITEM_TYPE_POLYMORPH",		CItemData::ITEM_TYPE_POLYMORPH);

  0037a	6a 13		 push	 19			; 00000013H
  0037c	68 00 00 00 00	 push	 OFFSET ??_C@_0BE@DGPJCLHG@ITEM_TYPE_POLYMORPH@
  00381	ff 75 fc	 push	 DWORD PTR _poModule$[ebp]
  00384	ff 15 00 00 00
	00		 call	 DWORD PTR __imp__PyModule_AddIntConstant
  0038a	83 c4 0c	 add	 esp, 12			; 0000000cH

; 605  : 	PyModule_AddIntConstant(poModule, "ITEM_TYPE_TREASURE_BOX",		CItemData::ITEM_TYPE_TREASURE_BOX);

  0038d	6a 14		 push	 20			; 00000014H
  0038f	68 00 00 00 00	 push	 OFFSET ??_C@_0BH@MPEMDLLF@ITEM_TYPE_TREASURE_BOX@
  00394	ff 75 fc	 push	 DWORD PTR _poModule$[ebp]
  00397	ff 15 00 00 00
	00		 call	 DWORD PTR __imp__PyModule_AddIntConstant
  0039d	83 c4 0c	 add	 esp, 12			; 0000000cH

; 606  : 	PyModule_AddIntConstant(poModule, "ITEM_TYPE_TREASURE_KEY",		CItemData::ITEM_TYPE_TREASURE_KEY);

  003a0	6a 15		 push	 21			; 00000015H
  003a2	68 00 00 00 00	 push	 OFFSET ??_C@_0BH@KGMIMAKI@ITEM_TYPE_TREASURE_KEY@
  003a7	ff 75 fc	 push	 DWORD PTR _poModule$[ebp]
  003aa	ff 15 00 00 00
	00		 call	 DWORD PTR __imp__PyModule_AddIntConstant
  003b0	83 c4 0c	 add	 esp, 12			; 0000000cH

; 607  : 	PyModule_AddIntConstant(poModule, "ITEM_TYPE_PICK",				CItemData::ITEM_TYPE_PICK);

  003b3	6a 18		 push	 24			; 00000018H
  003b5	68 00 00 00 00	 push	 OFFSET ??_C@_0P@CALHNGMG@ITEM_TYPE_PICK@
  003ba	ff 75 fc	 push	 DWORD PTR _poModule$[ebp]
  003bd	ff 15 00 00 00
	00		 call	 DWORD PTR __imp__PyModule_AddIntConstant
  003c3	83 c4 0c	 add	 esp, 12			; 0000000cH

; 608  : 	PyModule_AddIntConstant(poModule, "ITEM_TYPE_BLEND",			CItemData::ITEM_TYPE_BLEND);

  003c6	6a 1b		 push	 27			; 0000001bH
  003c8	68 00 00 00 00	 push	 OFFSET ??_C@_0BA@EDGMOLIF@ITEM_TYPE_BLEND@
  003cd	ff 75 fc	 push	 DWORD PTR _poModule$[ebp]
  003d0	ff 15 00 00 00
	00		 call	 DWORD PTR __imp__PyModule_AddIntConstant
  003d6	83 c4 0c	 add	 esp, 12			; 0000000cH

; 609  : 	PyModule_AddIntConstant(poModule, "ITEM_TYPE_DS",				CItemData::ITEM_TYPE_DS);

  003d9	6a 1d		 push	 29			; 0000001dH
  003db	68 00 00 00 00	 push	 OFFSET ??_C@_0N@BKIJEOLO@ITEM_TYPE_DS@
  003e0	ff 75 fc	 push	 DWORD PTR _poModule$[ebp]
  003e3	ff 15 00 00 00
	00		 call	 DWORD PTR __imp__PyModule_AddIntConstant
  003e9	83 c4 0c	 add	 esp, 12			; 0000000cH

; 610  : 	PyModule_AddIntConstant(poModule, "ITEM_TYPE_SPECIAL_DS",		CItemData::ITEM_TYPE_SPECIAL_DS);

  003ec	6a 1e		 push	 30			; 0000001eH
  003ee	68 00 00 00 00	 push	 OFFSET ??_C@_0BF@GGLFIBNL@ITEM_TYPE_SPECIAL_DS@
  003f3	ff 75 fc	 push	 DWORD PTR _poModule$[ebp]
  003f6	ff 15 00 00 00
	00		 call	 DWORD PTR __imp__PyModule_AddIntConstant
  003fc	83 c4 0c	 add	 esp, 12			; 0000000cH

; 611  : 	PyModule_AddIntConstant(poModule, "ITEM_TYPE_RING",				CItemData::ITEM_TYPE_RING);

  003ff	6a 21		 push	 33			; 00000021H
  00401	68 00 00 00 00	 push	 OFFSET ??_C@_0P@POBKFJPJ@ITEM_TYPE_RING@
  00406	ff 75 fc	 push	 DWORD PTR _poModule$[ebp]
  00409	ff 15 00 00 00
	00		 call	 DWORD PTR __imp__PyModule_AddIntConstant
  0040f	83 c4 0c	 add	 esp, 12			; 0000000cH

; 612  : 	PyModule_AddIntConstant(poModule, "ITEM_TYPE_BELT",				CItemData::ITEM_TYPE_BELT);

  00412	6a 22		 push	 34			; 00000022H
  00414	68 00 00 00 00	 push	 OFFSET ??_C@_0P@LGEHOEDP@ITEM_TYPE_BELT@
  00419	ff 75 fc	 push	 DWORD PTR _poModule$[ebp]
  0041c	ff 15 00 00 00
	00		 call	 DWORD PTR __imp__PyModule_AddIntConstant
  00422	83 c4 0c	 add	 esp, 12			; 0000000cH

; 613  : 
; 614  : 
; 615  : #ifdef ENABLE_COSTUME_SYSTEM
; 616  : 	PyModule_AddIntConstant(poModule, "ITEM_TYPE_COSTUME",			CItemData::ITEM_TYPE_COSTUME);

  00425	6a 1c		 push	 28			; 0000001cH
  00427	68 00 00 00 00	 push	 OFFSET ??_C@_0BC@GOFIPFBN@ITEM_TYPE_COSTUME@
  0042c	ff 75 fc	 push	 DWORD PTR _poModule$[ebp]
  0042f	ff 15 00 00 00
	00		 call	 DWORD PTR __imp__PyModule_AddIntConstant
  00435	83 c4 0c	 add	 esp, 12			; 0000000cH

; 617  : 
; 618  : 	// Item Sub Type
; 619  : 	PyModule_AddIntConstant(poModule, "COSTUME_TYPE_BODY",			CItemData::COSTUME_BODY);

  00438	6a 00		 push	 0
  0043a	68 00 00 00 00	 push	 OFFSET ??_C@_0BC@IBLNMJBH@COSTUME_TYPE_BODY@
  0043f	ff 75 fc	 push	 DWORD PTR _poModule$[ebp]
  00442	ff 15 00 00 00
	00		 call	 DWORD PTR __imp__PyModule_AddIntConstant
  00448	83 c4 0c	 add	 esp, 12			; 0000000cH

; 620  : 	PyModule_AddIntConstant(poModule, "COSTUME_TYPE_HAIR",			CItemData::COSTUME_HAIR);

  0044b	6a 01		 push	 1
  0044d	68 00 00 00 00	 push	 OFFSET ??_C@_0BC@MAPOOMBN@COSTUME_TYPE_HAIR@
  00452	ff 75 fc	 push	 DWORD PTR _poModule$[ebp]
  00455	ff 15 00 00 00
	00		 call	 DWORD PTR __imp__PyModule_AddIntConstant
  0045b	83 c4 0c	 add	 esp, 12			; 0000000cH

; 621  : 
; 622  : 	//     
; 623  : 	PyModule_AddIntConstant(poModule, "COSTUME_SLOT_START",			c_Costume_Slot_Start);

  0045e	6a 6d		 push	 109			; 0000006dH
  00460	68 00 00 00 00	 push	 OFFSET ??_C@_0BD@JCGACLBK@COSTUME_SLOT_START@
  00465	ff 75 fc	 push	 DWORD PTR _poModule$[ebp]
  00468	ff 15 00 00 00
	00		 call	 DWORD PTR __imp__PyModule_AddIntConstant
  0046e	83 c4 0c	 add	 esp, 12			; 0000000cH

; 624  : 	PyModule_AddIntConstant(poModule, "COSTUME_SLOT_COUNT",			c_Costume_Slot_Count);

  00471	6a 02		 push	 2
  00473	68 00 00 00 00	 push	 OFFSET ??_C@_0BD@EMMBBFMO@COSTUME_SLOT_COUNT@
  00478	ff 75 fc	 push	 DWORD PTR _poModule$[ebp]
  0047b	ff 15 00 00 00
	00		 call	 DWORD PTR __imp__PyModule_AddIntConstant
  00481	83 c4 0c	 add	 esp, 12			; 0000000cH

; 625  : 	PyModule_AddIntConstant(poModule, "COSTUME_SLOT_BODY",			c_Costume_Slot_Body);

  00484	6a 6d		 push	 109			; 0000006dH
  00486	68 00 00 00 00	 push	 OFFSET ??_C@_0BC@OBAEGBKN@COSTUME_SLOT_BODY@
  0048b	ff 75 fc	 push	 DWORD PTR _poModule$[ebp]
  0048e	ff 15 00 00 00
	00		 call	 DWORD PTR __imp__PyModule_AddIntConstant
  00494	83 c4 0c	 add	 esp, 12			; 0000000cH

; 626  : 	PyModule_AddIntConstant(poModule, "COSTUME_SLOT_HAIR",			c_Costume_Slot_Hair);

  00497	6a 6e		 push	 110			; 0000006eH
  00499	68 00 00 00 00	 push	 OFFSET ??_C@_0BC@KAEHEEKH@COSTUME_SLOT_HAIR@
  0049e	ff 75 fc	 push	 DWORD PTR _poModule$[ebp]
  004a1	ff 15 00 00 00
	00		 call	 DWORD PTR __imp__PyModule_AddIntConstant
  004a7	83 c4 0c	 add	 esp, 12			; 0000000cH

; 627  : 	PyModule_AddIntConstant(poModule, "COSTUME_SLOT_END",			c_Costume_Slot_End);

  004aa	6a 6f		 push	 111			; 0000006fH
  004ac	68 00 00 00 00	 push	 OFFSET ??_C@_0BB@IEFLAOJF@COSTUME_SLOT_END@
  004b1	ff 75 fc	 push	 DWORD PTR _poModule$[ebp]
  004b4	ff 15 00 00 00
	00		 call	 DWORD PTR __imp__PyModule_AddIntConstant
  004ba	83 c4 0c	 add	 esp, 12			; 0000000cH

; 628  : #endif
; 629  : 
; 630  : #ifdef ENABLE_NEW_EQUIPMENT_SYSTEM
; 631  : 	PyModule_AddIntConstant(poModule, "BELT_INVENTORY_SLOT_START",			c_Belt_Inventory_Slot_Start);

  004bd	68 98 00 00 00	 push	 152			; 00000098H
  004c2	68 00 00 00 00	 push	 OFFSET ??_C@_0BK@JAICDGKA@BELT_INVENTORY_SLOT_START@
  004c7	ff 75 fc	 push	 DWORD PTR _poModule$[ebp]
  004ca	ff 15 00 00 00
	00		 call	 DWORD PTR __imp__PyModule_AddIntConstant
  004d0	83 c4 0c	 add	 esp, 12			; 0000000cH

; 632  : 	PyModule_AddIntConstant(poModule, "BELT_INVENTORY_SLOT_COUNT",			c_Belt_Inventory_Slot_Count);

  004d3	6a 10		 push	 16			; 00000010H
  004d5	68 00 00 00 00	 push	 OFFSET ??_C@_0BK@EOCDAIHE@BELT_INVENTORY_SLOT_COUNT@
  004da	ff 75 fc	 push	 DWORD PTR _poModule$[ebp]
  004dd	ff 15 00 00 00
	00		 call	 DWORD PTR __imp__PyModule_AddIntConstant
  004e3	83 c4 0c	 add	 esp, 12			; 0000000cH

; 633  : 	PyModule_AddIntConstant(poModule, "BELT_INVENTORY_SLOT_END",			c_Belt_Inventory_Slot_End);

  004e6	68 a8 00 00 00	 push	 168			; 000000a8H
  004eb	68 00 00 00 00	 push	 OFFSET ??_C@_0BI@GPHFDCEJ@BELT_INVENTORY_SLOT_END@
  004f0	ff 75 fc	 push	 DWORD PTR _poModule$[ebp]
  004f3	ff 15 00 00 00
	00		 call	 DWORD PTR __imp__PyModule_AddIntConstant
  004f9	83 c4 0c	 add	 esp, 12			; 0000000cH

; 634  : 
; 635  : #endif
; 636  : 
; 637  : 	PyModule_AddIntConstant(poModule, "WEAPON_SWORD",				CItemData::WEAPON_SWORD);

  004fc	6a 00		 push	 0
  004fe	68 00 00 00 00	 push	 OFFSET ??_C@_0N@FCLCNMLC@WEAPON_SWORD@
  00503	ff 75 fc	 push	 DWORD PTR _poModule$[ebp]
  00506	ff 15 00 00 00
	00		 call	 DWORD PTR __imp__PyModule_AddIntConstant
  0050c	83 c4 0c	 add	 esp, 12			; 0000000cH

; 638  : 	PyModule_AddIntConstant(poModule, "WEAPON_DAGGER",				CItemData::WEAPON_DAGGER);

  0050f	6a 01		 push	 1
  00511	68 00 00 00 00	 push	 OFFSET ??_C@_0O@IMDDJKDH@WEAPON_DAGGER@
  00516	ff 75 fc	 push	 DWORD PTR _poModule$[ebp]
  00519	ff 15 00 00 00
	00		 call	 DWORD PTR __imp__PyModule_AddIntConstant
  0051f	83 c4 0c	 add	 esp, 12			; 0000000cH

; 639  : 	PyModule_AddIntConstant(poModule, "WEAPON_BOW",					CItemData::WEAPON_BOW);

  00522	6a 02		 push	 2
  00524	68 00 00 00 00	 push	 OFFSET ??_C@_0L@KDNCAJJM@WEAPON_BOW@
  00529	ff 75 fc	 push	 DWORD PTR _poModule$[ebp]
  0052c	ff 15 00 00 00
	00		 call	 DWORD PTR __imp__PyModule_AddIntConstant
  00532	83 c4 0c	 add	 esp, 12			; 0000000cH

; 640  : 	PyModule_AddIntConstant(poModule, "WEAPON_TWO_HANDED",			CItemData::WEAPON_TWO_HANDED);

  00535	6a 03		 push	 3
  00537	68 00 00 00 00	 push	 OFFSET ??_C@_0BC@OILJBHHK@WEAPON_TWO_HANDED@
  0053c	ff 75 fc	 push	 DWORD PTR _poModule$[ebp]
  0053f	ff 15 00 00 00
	00		 call	 DWORD PTR __imp__PyModule_AddIntConstant
  00545	83 c4 0c	 add	 esp, 12			; 0000000cH

; 641  : 	PyModule_AddIntConstant(poModule, "WEAPON_BELL",				CItemData::WEAPON_BELL);

  00548	6a 04		 push	 4
  0054a	68 00 00 00 00	 push	 OFFSET ??_C@_0M@NKBIKBJK@WEAPON_BELL@
  0054f	ff 75 fc	 push	 DWORD PTR _poModule$[ebp]
  00552	ff 15 00 00 00
	00		 call	 DWORD PTR __imp__PyModule_AddIntConstant
  00558	83 c4 0c	 add	 esp, 12			; 0000000cH

; 642  : 	PyModule_AddIntConstant(poModule, "WEAPON_FAN",					CItemData::WEAPON_FAN);

  0055b	6a 05		 push	 5
  0055d	68 00 00 00 00	 push	 OFFSET ??_C@_0L@LNCOBKNJ@WEAPON_FAN@
  00562	ff 75 fc	 push	 DWORD PTR _poModule$[ebp]
  00565	ff 15 00 00 00
	00		 call	 DWORD PTR __imp__PyModule_AddIntConstant
  0056b	83 c4 0c	 add	 esp, 12			; 0000000cH

; 643  : 	PyModule_AddIntConstant(poModule, "WEAPON_ARROW",				CItemData::WEAPON_ARROW);

  0056e	6a 06		 push	 6
  00570	68 00 00 00 00	 push	 OFFSET ??_C@_0N@DCOAOKB@WEAPON_ARROW@
  00575	ff 75 fc	 push	 DWORD PTR _poModule$[ebp]
  00578	ff 15 00 00 00
	00		 call	 DWORD PTR __imp__PyModule_AddIntConstant
  0057e	83 c4 0c	 add	 esp, 12			; 0000000cH

; 644  : 	PyModule_AddIntConstant(poModule, "WEAPON_NUM_TYPES",			CItemData::WEAPON_NUM_TYPES);

  00581	6a 07		 push	 7
  00583	68 00 00 00 00	 push	 OFFSET ??_C@_0BB@KFDFBDPL@WEAPON_NUM_TYPES@
  00588	ff 75 fc	 push	 DWORD PTR _poModule$[ebp]
  0058b	ff 15 00 00 00
	00		 call	 DWORD PTR __imp__PyModule_AddIntConstant
  00591	83 c4 0c	 add	 esp, 12			; 0000000cH

; 645  : 
; 646  : 	PyModule_AddIntConstant(poModule, "USE_POTION",					CItemData::USE_POTION);

  00594	6a 00		 push	 0
  00596	68 00 00 00 00	 push	 OFFSET ??_C@_0L@DENJCCNI@USE_POTION@
  0059b	ff 75 fc	 push	 DWORD PTR _poModule$[ebp]
  0059e	ff 15 00 00 00
	00		 call	 DWORD PTR __imp__PyModule_AddIntConstant
  005a4	83 c4 0c	 add	 esp, 12			; 0000000cH

; 647  : 	PyModule_AddIntConstant(poModule, "USE_TALISMAN",				CItemData::USE_TALISMAN);

  005a7	6a 01		 push	 1
  005a9	68 00 00 00 00	 push	 OFFSET ??_C@_0N@CINBPLKM@USE_TALISMAN@
  005ae	ff 75 fc	 push	 DWORD PTR _poModule$[ebp]
  005b1	ff 15 00 00 00
	00		 call	 DWORD PTR __imp__PyModule_AddIntConstant
  005b7	83 c4 0c	 add	 esp, 12			; 0000000cH

; 648  : 	PyModule_AddIntConstant(poModule, "USE_TUNING",					CItemData::USE_TUNING);

  005ba	6a 02		 push	 2
  005bc	68 00 00 00 00	 push	 OFFSET ??_C@_0L@JIILHJGL@USE_TUNING@
  005c1	ff 75 fc	 push	 DWORD PTR _poModule$[ebp]
  005c4	ff 15 00 00 00
	00		 call	 DWORD PTR __imp__PyModule_AddIntConstant
  005ca	83 c4 0c	 add	 esp, 12			; 0000000cH

; 649  : 	PyModule_AddIntConstant(poModule, "USE_MOVE",					CItemData::USE_MOVE);

  005cd	6a 03		 push	 3
  005cf	68 00 00 00 00	 push	 OFFSET ??_C@_08JHFKMGGA@USE_MOVE@
  005d4	ff 75 fc	 push	 DWORD PTR _poModule$[ebp]
  005d7	ff 15 00 00 00
	00		 call	 DWORD PTR __imp__PyModule_AddIntConstant
  005dd	83 c4 0c	 add	 esp, 12			; 0000000cH

; 650  : 	PyModule_AddIntConstant(poModule, "USE_TREASURE_BOX",			CItemData::USE_TREASURE_BOX);

  005e0	6a 04		 push	 4
  005e2	68 00 00 00 00	 push	 OFFSET ??_C@_0BB@BBPDKOFG@USE_TREASURE_BOX@
  005e7	ff 75 fc	 push	 DWORD PTR _poModule$[ebp]
  005ea	ff 15 00 00 00
	00		 call	 DWORD PTR __imp__PyModule_AddIntConstant
  005f0	83 c4 0c	 add	 esp, 12			; 0000000cH

; 651  : 	PyModule_AddIntConstant(poModule, "USE_MONEYBAG",				CItemData::USE_MONEYBAG);

  005f3	6a 05		 push	 5
  005f5	68 00 00 00 00	 push	 OFFSET ??_C@_0N@BOHEHPFI@USE_MONEYBAG@
  005fa	ff 75 fc	 push	 DWORD PTR _poModule$[ebp]
  005fd	ff 15 00 00 00
	00		 call	 DWORD PTR __imp__PyModule_AddIntConstant
  00603	83 c4 0c	 add	 esp, 12			; 0000000cH

; 652  : 	PyModule_AddIntConstant(poModule, "USE_BAIT",					CItemData::USE_BAIT);

  00606	6a 06		 push	 6
  00608	68 00 00 00 00	 push	 OFFSET ??_C@_08LBHGOBNP@USE_BAIT@
  0060d	ff 75 fc	 push	 DWORD PTR _poModule$[ebp]
  00610	ff 15 00 00 00
	00		 call	 DWORD PTR __imp__PyModule_AddIntConstant
  00616	83 c4 0c	 add	 esp, 12			; 0000000cH

; 653  : 	PyModule_AddIntConstant(poModule, "USE_ABILITY_UP",				CItemData::USE_ABILITY_UP);

  00619	6a 07		 push	 7
  0061b	68 00 00 00 00	 push	 OFFSET ??_C@_0P@JBLCKFGE@USE_ABILITY_UP@
  00620	ff 75 fc	 push	 DWORD PTR _poModule$[ebp]
  00623	ff 15 00 00 00
	00		 call	 DWORD PTR __imp__PyModule_AddIntConstant
  00629	83 c4 0c	 add	 esp, 12			; 0000000cH

; 654  : 	PyModule_AddIntConstant(poModule, "USE_AFFECT",					CItemData::USE_AFFECT);

  0062c	6a 08		 push	 8
  0062e	68 00 00 00 00	 push	 OFFSET ??_C@_0L@DLLOJMIP@USE_AFFECT@
  00633	ff 75 fc	 push	 DWORD PTR _poModule$[ebp]
  00636	ff 15 00 00 00
	00		 call	 DWORD PTR __imp__PyModule_AddIntConstant
  0063c	83 c4 0c	 add	 esp, 12			; 0000000cH

; 655  : 	PyModule_AddIntConstant(poModule, "USE_CREATE_STONE",			CItemData::USE_CREATE_STONE);

  0063f	6a 09		 push	 9
  00641	68 00 00 00 00	 push	 OFFSET ??_C@_0BB@PBBDNJH@USE_CREATE_STONE@
  00646	ff 75 fc	 push	 DWORD PTR _poModule$[ebp]
  00649	ff 15 00 00 00
	00		 call	 DWORD PTR __imp__PyModule_AddIntConstant
  0064f	83 c4 0c	 add	 esp, 12			; 0000000cH

; 656  : 	PyModule_AddIntConstant(poModule, "USE_SPECIAL",				CItemData::USE_SPECIAL);

  00652	6a 0a		 push	 10			; 0000000aH
  00654	68 00 00 00 00	 push	 OFFSET ??_C@_0M@GHOELJHH@USE_SPECIAL@
  00659	ff 75 fc	 push	 DWORD PTR _poModule$[ebp]
  0065c	ff 15 00 00 00
	00		 call	 DWORD PTR __imp__PyModule_AddIntConstant
  00662	83 c4 0c	 add	 esp, 12			; 0000000cH

; 657  : 	PyModule_AddIntConstant(poModule, "USE_POTION_NODELAY",			CItemData::USE_POTION_NODELAY);

  00665	6a 0b		 push	 11			; 0000000bH
  00667	68 00 00 00 00	 push	 OFFSET ??_C@_0BD@MMDEHJ@USE_POTION_NODELAY@
  0066c	ff 75 fc	 push	 DWORD PTR _poModule$[ebp]
  0066f	ff 15 00 00 00
	00		 call	 DWORD PTR __imp__PyModule_AddIntConstant
  00675	83 c4 0c	 add	 esp, 12			; 0000000cH

; 658  : 	PyModule_AddIntConstant(poModule, "USE_CLEAR",					CItemData::USE_CLEAR);

  00678	6a 0c		 push	 12			; 0000000cH
  0067a	68 00 00 00 00	 push	 OFFSET ??_C@_09PNKHEPEF@USE_CLEAR@
  0067f	ff 75 fc	 push	 DWORD PTR _poModule$[ebp]
  00682	ff 15 00 00 00
	00		 call	 DWORD PTR __imp__PyModule_AddIntConstant
  00688	83 c4 0c	 add	 esp, 12			; 0000000cH

; 659  : 	PyModule_AddIntConstant(poModule, "USE_INVISIBILITY",			CItemData::USE_INVISIBILITY);

  0068b	6a 0d		 push	 13			; 0000000dH
  0068d	68 00 00 00 00	 push	 OFFSET ??_C@_0BB@NCIEFOD@USE_INVISIBILITY@
  00692	ff 75 fc	 push	 DWORD PTR _poModule$[ebp]
  00695	ff 15 00 00 00
	00		 call	 DWORD PTR __imp__PyModule_AddIntConstant
  0069b	83 c4 0c	 add	 esp, 12			; 0000000cH

; 660  : 	PyModule_AddIntConstant(poModule, "USE_DETACHMENT",				CItemData::USE_DETACHMENT);

  0069e	6a 0e		 push	 14			; 0000000eH
  006a0	68 00 00 00 00	 push	 OFFSET ??_C@_0P@MKAMDACK@USE_DETACHMENT@
  006a5	ff 75 fc	 push	 DWORD PTR _poModule$[ebp]
  006a8	ff 15 00 00 00
	00		 call	 DWORD PTR __imp__PyModule_AddIntConstant
  006ae	83 c4 0c	 add	 esp, 12			; 0000000cH

; 661  : 	PyModule_AddIntConstant(poModule, "USE_TIME_CHARGE_PER",		CItemData::USE_TIME_CHARGE_PER);

  006b1	6a 1b		 push	 27			; 0000001bH
  006b3	68 00 00 00 00	 push	 OFFSET ??_C@_0BE@NEAJJELI@USE_TIME_CHARGE_PER@
  006b8	ff 75 fc	 push	 DWORD PTR _poModule$[ebp]
  006bb	ff 15 00 00 00
	00		 call	 DWORD PTR __imp__PyModule_AddIntConstant
  006c1	83 c4 0c	 add	 esp, 12			; 0000000cH

; 662  : 	PyModule_AddIntConstant(poModule, "USE_TIME_CHARGE_FIX",		CItemData::USE_TIME_CHARGE_FIX);

  006c4	6a 1c		 push	 28			; 0000001cH
  006c6	68 00 00 00 00	 push	 OFFSET ??_C@_0BE@FCIOINBF@USE_TIME_CHARGE_FIX@
  006cb	ff 75 fc	 push	 DWORD PTR _poModule$[ebp]
  006ce	ff 15 00 00 00
	00		 call	 DWORD PTR __imp__PyModule_AddIntConstant
  006d4	83 c4 0c	 add	 esp, 12			; 0000000cH

; 663  : 
; 664  : 	PyModule_AddIntConstant(poModule, "MATERIAL_DS_REFINE_NORMAL",	CItemData::MATERIAL_DS_REFINE_NORMAL);

  006d7	6a 05		 push	 5
  006d9	68 00 00 00 00	 push	 OFFSET ??_C@_0BK@FFJFCNLF@MATERIAL_DS_REFINE_NORMAL@
  006de	ff 75 fc	 push	 DWORD PTR _poModule$[ebp]
  006e1	ff 15 00 00 00
	00		 call	 DWORD PTR __imp__PyModule_AddIntConstant
  006e7	83 c4 0c	 add	 esp, 12			; 0000000cH

; 665  : 	PyModule_AddIntConstant(poModule, "MATERIAL_DS_REFINE_BLESSED",	CItemData::MATERIAL_DS_REFINE_BLESSED);

  006ea	6a 06		 push	 6
  006ec	68 00 00 00 00	 push	 OFFSET ??_C@_0BL@HNMOOIKG@MATERIAL_DS_REFINE_BLESSED@
  006f1	ff 75 fc	 push	 DWORD PTR _poModule$[ebp]
  006f4	ff 15 00 00 00
	00		 call	 DWORD PTR __imp__PyModule_AddIntConstant
  006fa	83 c4 0c	 add	 esp, 12			; 0000000cH

; 666  : 	PyModule_AddIntConstant(poModule, "MATERIAL_DS_REFINE_HOLLY",	CItemData::MATERIAL_DS_REFINE_HOLLY);

  006fd	6a 07		 push	 7
  006ff	68 00 00 00 00	 push	 OFFSET ??_C@_0BJ@KCHKGND@MATERIAL_DS_REFINE_HOLLY@
  00704	ff 75 fc	 push	 DWORD PTR _poModule$[ebp]
  00707	ff 15 00 00 00
	00		 call	 DWORD PTR __imp__PyModule_AddIntConstant
  0070d	83 c4 0c	 add	 esp, 12			; 0000000cH

; 667  : 
; 668  : 	PyModule_AddIntConstant(poModule, "METIN_NORMAL",				CItemData::METIN_NORMAL);

  00710	6a 00		 push	 0
  00712	68 00 00 00 00	 push	 OFFSET ??_C@_0N@HOHHHOFD@METIN_NORMAL@
  00717	ff 75 fc	 push	 DWORD PTR _poModule$[ebp]
  0071a	ff 15 00 00 00
	00		 call	 DWORD PTR __imp__PyModule_AddIntConstant
  00720	83 c4 0c	 add	 esp, 12			; 0000000cH

; 669  : 	PyModule_AddIntConstant(poModule, "METIN_GOLD",					CItemData::METIN_GOLD);

  00723	6a 01		 push	 1
  00725	68 00 00 00 00	 push	 OFFSET ??_C@_0L@MFIGJJDC@METIN_GOLD@
  0072a	ff 75 fc	 push	 DWORD PTR _poModule$[ebp]
  0072d	ff 15 00 00 00
	00		 call	 DWORD PTR __imp__PyModule_AddIntConstant
  00733	83 c4 0c	 add	 esp, 12			; 0000000cH

; 670  : 
; 671  : 	PyModule_AddIntConstant(poModule, "LIMIT_NONE",					CItemData::LIMIT_NONE);

  00736	6a 00		 push	 0
  00738	68 00 00 00 00	 push	 OFFSET ??_C@_0L@MKHGBGII@LIMIT_NONE@
  0073d	ff 75 fc	 push	 DWORD PTR _poModule$[ebp]
  00740	ff 15 00 00 00
	00		 call	 DWORD PTR __imp__PyModule_AddIntConstant
  00746	83 c4 0c	 add	 esp, 12			; 0000000cH

; 672  : 	PyModule_AddIntConstant(poModule, "LIMIT_LEVEL",				CItemData::LIMIT_LEVEL);

  00749	6a 01		 push	 1
  0074b	68 00 00 00 00	 push	 OFFSET ??_C@_0M@CNLALLNH@LIMIT_LEVEL@
  00750	ff 75 fc	 push	 DWORD PTR _poModule$[ebp]
  00753	ff 15 00 00 00
	00		 call	 DWORD PTR __imp__PyModule_AddIntConstant
  00759	83 c4 0c	 add	 esp, 12			; 0000000cH

; 673  : 	PyModule_AddIntConstant(poModule, "LIMIT_STR",					CItemData::LIMIT_STR);

  0075c	6a 02		 push	 2
  0075e	68 00 00 00 00	 push	 OFFSET ??_C@_09JOBFCJGA@LIMIT_STR@
  00763	ff 75 fc	 push	 DWORD PTR _poModule$[ebp]
  00766	ff 15 00 00 00
	00		 call	 DWORD PTR __imp__PyModule_AddIntConstant
  0076c	83 c4 0c	 add	 esp, 12			; 0000000cH

; 674  : 	PyModule_AddIntConstant(poModule, "LIMIT_DEX",					CItemData::LIMIT_DEX);

  0076f	6a 03		 push	 3
  00771	68 00 00 00 00	 push	 OFFSET ??_C@_09LENAGHIL@LIMIT_DEX@
  00776	ff 75 fc	 push	 DWORD PTR _poModule$[ebp]
  00779	ff 15 00 00 00
	00		 call	 DWORD PTR __imp__PyModule_AddIntConstant
  0077f	83 c4 0c	 add	 esp, 12			; 0000000cH

; 675  : 	PyModule_AddIntConstant(poModule, "LIMIT_INT",					CItemData::LIMIT_INT);

  00782	6a 04		 push	 4
  00784	68 00 00 00 00	 push	 OFFSET ??_C@_09OGFKBPLL@LIMIT_INT@
  00789	ff 75 fc	 push	 DWORD PTR _poModule$[ebp]
  0078c	ff 15 00 00 00
	00		 call	 DWORD PTR __imp__PyModule_AddIntConstant
  00792	83 c4 0c	 add	 esp, 12			; 0000000cH

; 676  : 	PyModule_AddIntConstant(poModule, "LIMIT_CON",					CItemData::LIMIT_CON);

  00795	6a 05		 push	 5
  00797	68 00 00 00 00	 push	 OFFSET ??_C@_09DIAIGPDD@LIMIT_CON@
  0079c	ff 75 fc	 push	 DWORD PTR _poModule$[ebp]
  0079f	ff 15 00 00 00
	00		 call	 DWORD PTR __imp__PyModule_AddIntConstant
  007a5	83 c4 0c	 add	 esp, 12			; 0000000cH

; 677  : 	PyModule_AddIntConstant(poModule, "LIMIT_PCBANG",				CItemData::LIMIT_PCBANG);

  007a8	6a 06		 push	 6
  007aa	68 00 00 00 00	 push	 OFFSET ??_C@_0N@MIADEJNC@LIMIT_PCBANG@
  007af	ff 75 fc	 push	 DWORD PTR _poModule$[ebp]
  007b2	ff 15 00 00 00
	00		 call	 DWORD PTR __imp__PyModule_AddIntConstant
  007b8	83 c4 0c	 add	 esp, 12			; 0000000cH

; 678  : 	PyModule_AddIntConstant(poModule, "LIMIT_REAL_TIME",			CItemData::LIMIT_REAL_TIME);

  007bb	6a 07		 push	 7
  007bd	68 00 00 00 00	 push	 OFFSET ??_C@_0BA@FCJCAFPM@LIMIT_REAL_TIME@
  007c2	ff 75 fc	 push	 DWORD PTR _poModule$[ebp]
  007c5	ff 15 00 00 00
	00		 call	 DWORD PTR __imp__PyModule_AddIntConstant
  007cb	83 c4 0c	 add	 esp, 12			; 0000000cH

; 679  : 	PyModule_AddIntConstant(poModule, "LIMIT_REAL_TIME_START_FIRST_USE",	CItemData::LIMIT_REAL_TIME_START_FIRST_USE);

  007ce	6a 08		 push	 8
  007d0	68 00 00 00 00	 push	 OFFSET ??_C@_0CA@KECNELOI@LIMIT_REAL_TIME_START_FIRST_USE@
  007d5	ff 75 fc	 push	 DWORD PTR _poModule$[ebp]
  007d8	ff 15 00 00 00
	00		 call	 DWORD PTR __imp__PyModule_AddIntConstant
  007de	83 c4 0c	 add	 esp, 12			; 0000000cH

; 680  : 	PyModule_AddIntConstant(poModule, "LIMIT_TIMER_BASED_ON_WEAR",	CItemData::LIMIT_TIMER_BASED_ON_WEAR);

  007e1	6a 09		 push	 9
  007e3	68 00 00 00 00	 push	 OFFSET ??_C@_0BK@DKGMKHOA@LIMIT_TIMER_BASED_ON_WEAR@
  007e8	ff 75 fc	 push	 DWORD PTR _poModule$[ebp]
  007eb	ff 15 00 00 00
	00		 call	 DWORD PTR __imp__PyModule_AddIntConstant
  007f1	83 c4 0c	 add	 esp, 12			; 0000000cH

; 681  : 	PyModule_AddIntConstant(poModule, "LIMIT_TYPE_MAX_NUM",			CItemData::LIMIT_MAX_NUM);

  007f4	6a 0a		 push	 10			; 0000000aH
  007f6	68 00 00 00 00	 push	 OFFSET ??_C@_0BD@JIAJEJNL@LIMIT_TYPE_MAX_NUM@
  007fb	ff 75 fc	 push	 DWORD PTR _poModule$[ebp]
  007fe	ff 15 00 00 00
	00		 call	 DWORD PTR __imp__PyModule_AddIntConstant
  00804	83 c4 0c	 add	 esp, 12			; 0000000cH

; 682  : 	PyModule_AddIntConstant(poModule, "LIMIT_MAX_NUM",				CItemData::ITEM_LIMIT_MAX_NUM);

  00807	6a 02		 push	 2
  00809	68 00 00 00 00	 push	 OFFSET ??_C@_0O@DPNMMLCK@LIMIT_MAX_NUM@
  0080e	ff 75 fc	 push	 DWORD PTR _poModule$[ebp]
  00811	ff 15 00 00 00
	00		 call	 DWORD PTR __imp__PyModule_AddIntConstant
  00817	83 c4 0c	 add	 esp, 12			; 0000000cH

; 683  : 
; 684  : 	PyModule_AddIntConstant(poModule, "ITEM_ANTIFLAG_FEMALE",		CItemData::ITEM_ANTIFLAG_FEMALE);

  0081a	6a 01		 push	 1
  0081c	68 00 00 00 00	 push	 OFFSET ??_C@_0BF@DFHLBKDO@ITEM_ANTIFLAG_FEMALE@
  00821	ff 75 fc	 push	 DWORD PTR _poModule$[ebp]
  00824	ff 15 00 00 00
	00		 call	 DWORD PTR __imp__PyModule_AddIntConstant
  0082a	83 c4 0c	 add	 esp, 12			; 0000000cH

; 685  : 	PyModule_AddIntConstant(poModule, "ITEM_ANTIFLAG_MALE",			CItemData::ITEM_ANTIFLAG_MALE);

  0082d	6a 02		 push	 2
  0082f	68 00 00 00 00	 push	 OFFSET ??_C@_0BD@DBFGLDPM@ITEM_ANTIFLAG_MALE@
  00834	ff 75 fc	 push	 DWORD PTR _poModule$[ebp]
  00837	ff 15 00 00 00
	00		 call	 DWORD PTR __imp__PyModule_AddIntConstant
  0083d	83 c4 0c	 add	 esp, 12			; 0000000cH

; 686  : 	PyModule_AddIntConstant(poModule, "ITEM_ANTIFLAG_WARRIOR",		CItemData::ITEM_ANTIFLAG_WARRIOR);

  00840	6a 04		 push	 4
  00842	68 00 00 00 00	 push	 OFFSET ??_C@_0BG@OCAOGEDJ@ITEM_ANTIFLAG_WARRIOR@
  00847	ff 75 fc	 push	 DWORD PTR _poModule$[ebp]
  0084a	ff 15 00 00 00
	00		 call	 DWORD PTR __imp__PyModule_AddIntConstant
  00850	83 c4 0c	 add	 esp, 12			; 0000000cH

; 687  : 	PyModule_AddIntConstant(poModule, "ITEM_ANTIFLAG_ASSASSIN",		CItemData::ITEM_ANTIFLAG_ASSASSIN);

  00853	6a 08		 push	 8
  00855	68 00 00 00 00	 push	 OFFSET ??_C@_0BH@NDIALJFO@ITEM_ANTIFLAG_ASSASSIN@
  0085a	ff 75 fc	 push	 DWORD PTR _poModule$[ebp]
  0085d	ff 15 00 00 00
	00		 call	 DWORD PTR __imp__PyModule_AddIntConstant
  00863	83 c4 0c	 add	 esp, 12			; 0000000cH

; 688  : 	PyModule_AddIntConstant(poModule, "ITEM_ANTIFLAG_SURA",			CItemData::ITEM_ANTIFLAG_SURA);

  00866	6a 10		 push	 16			; 00000010H
  00868	68 00 00 00 00	 push	 OFFSET ??_C@_0BD@EDCJBBKJ@ITEM_ANTIFLAG_SURA@
  0086d	ff 75 fc	 push	 DWORD PTR _poModule$[ebp]
  00870	ff 15 00 00 00
	00		 call	 DWORD PTR __imp__PyModule_AddIntConstant
  00876	83 c4 0c	 add	 esp, 12			; 0000000cH

; 689  : 	PyModule_AddIntConstant(poModule, "ITEM_ANTIFLAG_SHAMAN",		CItemData::ITEM_ANTIFLAG_SHAMAN);

  00879	6a 20		 push	 32			; 00000020H
  0087b	68 00 00 00 00	 push	 OFFSET ??_C@_0BF@NIAJKCKI@ITEM_ANTIFLAG_SHAMAN@
  00880	ff 75 fc	 push	 DWORD PTR _poModule$[ebp]
  00883	ff 15 00 00 00
	00		 call	 DWORD PTR __imp__PyModule_AddIntConstant
  00889	83 c4 0c	 add	 esp, 12			; 0000000cH

; 690  : 	PyModule_AddIntConstant(poModule, "ITEM_ANTIFLAG_GET",			CItemData::ITEM_ANTIFLAG_GET);

  0088c	6a 40		 push	 64			; 00000040H
  0088e	68 00 00 00 00	 push	 OFFSET ??_C@_0BC@NECEHGFA@ITEM_ANTIFLAG_GET@
  00893	ff 75 fc	 push	 DWORD PTR _poModule$[ebp]
  00896	ff 15 00 00 00
	00		 call	 DWORD PTR __imp__PyModule_AddIntConstant
  0089c	83 c4 0c	 add	 esp, 12			; 0000000cH

; 691  : 	PyModule_AddIntConstant(poModule, "ITEM_ANTIFLAG_DROP",			CItemData::ITEM_ANTIFLAG_DROP);

  0089f	68 80 00 00 00	 push	 128			; 00000080H
  008a4	68 00 00 00 00	 push	 OFFSET ??_C@_0BD@ELBJHBLB@ITEM_ANTIFLAG_DROP@
  008a9	ff 75 fc	 push	 DWORD PTR _poModule$[ebp]
  008ac	ff 15 00 00 00
	00		 call	 DWORD PTR __imp__PyModule_AddIntConstant
  008b2	83 c4 0c	 add	 esp, 12			; 0000000cH

; 692  : 	PyModule_AddIntConstant(poModule, "ITEM_ANTIFLAG_SELL",			CItemData::ITEM_ANTIFLAG_SELL);

  008b5	68 00 01 00 00	 push	 256			; 00000100H
  008ba	68 00 00 00 00	 push	 OFFSET ??_C@_0BD@LACGLGAB@ITEM_ANTIFLAG_SELL@
  008bf	ff 75 fc	 push	 DWORD PTR _poModule$[ebp]
  008c2	ff 15 00 00 00
	00		 call	 DWORD PTR __imp__PyModule_AddIntConstant
  008c8	83 c4 0c	 add	 esp, 12			; 0000000cH

; 693  : 	PyModule_AddIntConstant(poModule, "ITEM_ANTIFLAG_EMPIRE_A",		CItemData::ITEM_ANTIFLAG_EMPIRE_A);

  008cb	68 00 02 00 00	 push	 512			; 00000200H
  008d0	68 00 00 00 00	 push	 OFFSET ??_C@_0BH@ONMHLBEF@ITEM_ANTIFLAG_EMPIRE_A@
  008d5	ff 75 fc	 push	 DWORD PTR _poModule$[ebp]
  008d8	ff 15 00 00 00
	00		 call	 DWORD PTR __imp__PyModule_AddIntConstant
  008de	83 c4 0c	 add	 esp, 12			; 0000000cH

; 694  : 	PyModule_AddIntConstant(poModule, "ITEM_ANTIFLAG_EMPIRE_B",		CItemData::ITEM_ANTIFLAG_EMPIRE_B);

  008e1	68 00 04 00 00	 push	 1024			; 00000400H
  008e6	68 00 00 00 00	 push	 OFFSET ??_C@_0BH@MGOKOCIG@ITEM_ANTIFLAG_EMPIRE_B@
  008eb	ff 75 fc	 push	 DWORD PTR _poModule$[ebp]
  008ee	ff 15 00 00 00
	00		 call	 DWORD PTR __imp__PyModule_AddIntConstant
  008f4	83 c4 0c	 add	 esp, 12			; 0000000cH

; 695  : 	PyModule_AddIntConstant(poModule, "ITEM_ANTIFLAG_EMPIRE_R",		CItemData::ITEM_ANTIFLAG_EMPIRE_R);

  008f7	68 00 08 00 00	 push	 2048			; 00000800H
  008fc	68 00 00 00 00	 push	 OFFSET ??_C@_0BH@IMCIPANH@ITEM_ANTIFLAG_EMPIRE_R@
  00901	ff 75 fc	 push	 DWORD PTR _poModule$[ebp]
  00904	ff 15 00 00 00
	00		 call	 DWORD PTR __imp__PyModule_AddIntConstant
  0090a	83 c4 0c	 add	 esp, 12			; 0000000cH

; 696  : 	PyModule_AddIntConstant(poModule, "ITEM_ANTIFLAG_SAVE",			CItemData::ITEM_ANTIFLAG_SAVE);

  0090d	68 00 10 00 00	 push	 4096			; 00001000H
  00912	68 00 00 00 00	 push	 OFFSET ??_C@_0BD@PPDHLMLJ@ITEM_ANTIFLAG_SAVE@
  00917	ff 75 fc	 push	 DWORD PTR _poModule$[ebp]
  0091a	ff 15 00 00 00
	00		 call	 DWORD PTR __imp__PyModule_AddIntConstant
  00920	83 c4 0c	 add	 esp, 12			; 0000000cH

; 697  : 	PyModule_AddIntConstant(poModule, "ITEM_ANTIFLAG_GIVE",			CItemData::ITEM_ANTIFLAG_GIVE);

  00923	68 00 20 00 00	 push	 8192			; 00002000H
  00928	68 00 00 00 00	 push	 OFFSET ??_C@_0BD@KPODKFBE@ITEM_ANTIFLAG_GIVE@
  0092d	ff 75 fc	 push	 DWORD PTR _poModule$[ebp]
  00930	ff 15 00 00 00
	00		 call	 DWORD PTR __imp__PyModule_AddIntConstant
  00936	83 c4 0c	 add	 esp, 12			; 0000000cH

; 698  : 	PyModule_AddIntConstant(poModule, "ITEM_ANTIFLAG_PKDROP",		CItemData::ITEM_ANTIFLAG_PKDROP);

  00939	68 00 40 00 00	 push	 16384			; 00004000H
  0093e	68 00 00 00 00	 push	 OFFSET ??_C@_0BF@HBDABAPH@ITEM_ANTIFLAG_PKDROP@
  00943	ff 75 fc	 push	 DWORD PTR _poModule$[ebp]
  00946	ff 15 00 00 00
	00		 call	 DWORD PTR __imp__PyModule_AddIntConstant
  0094c	83 c4 0c	 add	 esp, 12			; 0000000cH

; 699  : 	PyModule_AddIntConstant(poModule, "ITEM_ANTIFLAG_STACK",		CItemData::ITEM_ANTIFLAG_STACK);

  0094f	68 00 80 00 00	 push	 32768			; 00008000H
  00954	68 00 00 00 00	 push	 OFFSET ??_C@_0BE@MAIMKBDM@ITEM_ANTIFLAG_STACK@
  00959	ff 75 fc	 push	 DWORD PTR _poModule$[ebp]
  0095c	ff 15 00 00 00
	00		 call	 DWORD PTR __imp__PyModule_AddIntConstant
  00962	83 c4 0c	 add	 esp, 12			; 0000000cH

; 700  : 	PyModule_AddIntConstant(poModule, "ITEM_ANTIFLAG_MYSHOP",		CItemData::ITEM_ANTIFLAG_MYSHOP);

  00965	68 00 00 01 00	 push	 65536			; 00010000H
  0096a	68 00 00 00 00	 push	 OFFSET ??_C@_0BF@NEEDLCAA@ITEM_ANTIFLAG_MYSHOP@
  0096f	ff 75 fc	 push	 DWORD PTR _poModule$[ebp]
  00972	ff 15 00 00 00
	00		 call	 DWORD PTR __imp__PyModule_AddIntConstant
  00978	83 c4 0c	 add	 esp, 12			; 0000000cH

; 701  : 
; 702  : 	PyModule_AddIntConstant(poModule, "ITEM_FLAG_RARE",				CItemData::ITEM_FLAG_RARE);

  0097b	6a 20		 push	 32			; 00000020H
  0097d	68 00 00 00 00	 push	 OFFSET ??_C@_0P@POCGDPPH@ITEM_FLAG_RARE@
  00982	ff 75 fc	 push	 DWORD PTR _poModule$[ebp]
  00985	ff 15 00 00 00
	00		 call	 DWORD PTR __imp__PyModule_AddIntConstant
  0098b	83 c4 0c	 add	 esp, 12			; 0000000cH

; 703  : 	PyModule_AddIntConstant(poModule, "ITEM_FLAG_UNIQUE",			CItemData::ITEM_FLAG_UNIQUE);

  0098e	6a 40		 push	 64			; 00000040H
  00990	68 00 00 00 00	 push	 OFFSET ??_C@_0BB@PGFIBJHK@ITEM_FLAG_UNIQUE@
  00995	ff 75 fc	 push	 DWORD PTR _poModule$[ebp]
  00998	ff 15 00 00 00
	00		 call	 DWORD PTR __imp__PyModule_AddIntConstant
  0099e	83 c4 0c	 add	 esp, 12			; 0000000cH

; 704  : 	PyModule_AddIntConstant(poModule, "ITEM_FLAG_CONFIRM_WHEN_USE",	CItemData::ITEM_FLAG_CONFIRM_WHEN_USE);

  009a1	68 00 02 00 00	 push	 512			; 00000200H
  009a6	68 00 00 00 00	 push	 OFFSET ??_C@_0BL@IPKGPKMA@ITEM_FLAG_CONFIRM_WHEN_USE@
  009ab	ff 75 fc	 push	 DWORD PTR _poModule$[ebp]
  009ae	ff 15 00 00 00
	00		 call	 DWORD PTR __imp__PyModule_AddIntConstant
  009b4	83 c4 0c	 add	 esp, 12			; 0000000cH

; 705  : 
; 706  : 	PyModule_AddIntConstant(poModule, "ANTIFLAG_FEMALE",			CItemData::ITEM_ANTIFLAG_FEMALE);

  009b7	6a 01		 push	 1
  009b9	68 00 00 00 00	 push	 OFFSET ??_C@_0BA@PLOPKCNG@ANTIFLAG_FEMALE@
  009be	ff 75 fc	 push	 DWORD PTR _poModule$[ebp]
  009c1	ff 15 00 00 00
	00		 call	 DWORD PTR __imp__PyModule_AddIntConstant
  009c7	83 c4 0c	 add	 esp, 12			; 0000000cH

; 707  : 	PyModule_AddIntConstant(poModule, "ANTIFLAG_MALE",				CItemData::ITEM_ANTIFLAG_MALE);

  009ca	6a 02		 push	 2
  009cc	68 00 00 00 00	 push	 OFFSET ??_C@_0O@GCOFJDKL@ANTIFLAG_MALE@
  009d1	ff 75 fc	 push	 DWORD PTR _poModule$[ebp]
  009d4	ff 15 00 00 00
	00		 call	 DWORD PTR __imp__PyModule_AddIntConstant
  009da	83 c4 0c	 add	 esp, 12			; 0000000cH

; 708  : 	PyModule_AddIntConstant(poModule, "ANTIFLAG_WARRIOR",			CItemData::ITEM_ANTIFLAG_WARRIOR);

  009dd	6a 04		 push	 4
  009df	68 00 00 00 00	 push	 OFFSET ??_C@_0BB@EMBBJKML@ANTIFLAG_WARRIOR@
  009e4	ff 75 fc	 push	 DWORD PTR _poModule$[ebp]
  009e7	ff 15 00 00 00
	00		 call	 DWORD PTR __imp__PyModule_AddIntConstant
  009ed	83 c4 0c	 add	 esp, 12			; 0000000cH

; 709  : 	PyModule_AddIntConstant(poModule, "ANTIFLAG_ASSASSIN",			CItemData::ITEM_ANTIFLAG_ASSASSIN);

  009f0	6a 08		 push	 8
  009f2	68 00 00 00 00	 push	 OFFSET ??_C@_0BC@IAJNDFJA@ANTIFLAG_ASSASSIN@
  009f7	ff 75 fc	 push	 DWORD PTR _poModule$[ebp]
  009fa	ff 15 00 00 00
	00		 call	 DWORD PTR __imp__PyModule_AddIntConstant
  00a00	83 c4 0c	 add	 esp, 12			; 0000000cH

; 710  : 	PyModule_AddIntConstant(poModule, "ANTIFLAG_SURA",				CItemData::ITEM_ANTIFLAG_SURA);

  00a03	6a 10		 push	 16			; 00000010H
  00a05	68 00 00 00 00	 push	 OFFSET ??_C@_0O@BAJKDBPO@ANTIFLAG_SURA@
  00a0a	ff 75 fc	 push	 DWORD PTR _poModule$[ebp]
  00a0d	ff 15 00 00 00
	00		 call	 DWORD PTR __imp__PyModule_AddIntConstant
  00a13	83 c4 0c	 add	 esp, 12			; 0000000cH

; 711  : 	PyModule_AddIntConstant(poModule, "ANTIFLAG_SHAMAN",			CItemData::ITEM_ANTIFLAG_SHAMAN);

  00a16	6a 20		 push	 32			; 00000020H
  00a18	68 00 00 00 00	 push	 OFFSET ??_C@_0BA@BGJNBKEA@ANTIFLAG_SHAMAN@
  00a1d	ff 75 fc	 push	 DWORD PTR _poModule$[ebp]
  00a20	ff 15 00 00 00
	00		 call	 DWORD PTR __imp__PyModule_AddIntConstant
  00a26	83 c4 0c	 add	 esp, 12			; 0000000cH

; 712  : 	PyModule_AddIntConstant(poModule, "ANTIFLAG_GET",				CItemData::ITEM_ANTIFLAG_GET);

  00a29	6a 40		 push	 64			; 00000040H
  00a2b	68 00 00 00 00	 push	 OFFSET ??_C@_0N@NEJHBBKC@ANTIFLAG_GET@
  00a30	ff 75 fc	 push	 DWORD PTR _poModule$[ebp]
  00a33	ff 15 00 00 00
	00		 call	 DWORD PTR __imp__PyModule_AddIntConstant
  00a39	83 c4 0c	 add	 esp, 12			; 0000000cH

; 713  : 	PyModule_AddIntConstant(poModule, "ANTIFLAG_DROP",				CItemData::ITEM_ANTIFLAG_DROP);

  00a3c	68 80 00 00 00	 push	 128			; 00000080H
  00a41	68 00 00 00 00	 push	 OFFSET ??_C@_0O@BIKKFBOG@ANTIFLAG_DROP@
  00a46	ff 75 fc	 push	 DWORD PTR _poModule$[ebp]
  00a49	ff 15 00 00 00
	00		 call	 DWORD PTR __imp__PyModule_AddIntConstant
  00a4f	83 c4 0c	 add	 esp, 12			; 0000000cH

; 714  : 	PyModule_AddIntConstant(poModule, "ANTIFLAG_SELL",				CItemData::ITEM_ANTIFLAG_SELL);

  00a52	68 00 01 00 00	 push	 256			; 00000100H
  00a57	68 00 00 00 00	 push	 OFFSET ??_C@_0O@ODJFJGFG@ANTIFLAG_SELL@
  00a5c	ff 75 fc	 push	 DWORD PTR _poModule$[ebp]
  00a5f	ff 15 00 00 00
	00		 call	 DWORD PTR __imp__PyModule_AddIntConstant
  00a65	83 c4 0c	 add	 esp, 12			; 0000000cH

; 715  : 	PyModule_AddIntConstant(poModule, "ANTIFLAG_EMPIRE_A",			CItemData::ITEM_ANTIFLAG_EMPIRE_A);

  00a68	68 00 02 00 00	 push	 512			; 00000200H
  00a6d	68 00 00 00 00	 push	 OFFSET ??_C@_0BC@LONKDNIL@ANTIFLAG_EMPIRE_A@
  00a72	ff 75 fc	 push	 DWORD PTR _poModule$[ebp]
  00a75	ff 15 00 00 00
	00		 call	 DWORD PTR __imp__PyModule_AddIntConstant
  00a7b	83 c4 0c	 add	 esp, 12			; 0000000cH

; 716  : 	PyModule_AddIntConstant(poModule, "ANTIFLAG_EMPIRE_B",			CItemData::ITEM_ANTIFLAG_EMPIRE_B);

  00a7e	68 00 04 00 00	 push	 1024			; 00000400H
  00a83	68 00 00 00 00	 push	 OFFSET ??_C@_0BC@JFPHGOEI@ANTIFLAG_EMPIRE_B@
  00a88	ff 75 fc	 push	 DWORD PTR _poModule$[ebp]
  00a8b	ff 15 00 00 00
	00		 call	 DWORD PTR __imp__PyModule_AddIntConstant
  00a91	83 c4 0c	 add	 esp, 12			; 0000000cH

; 717  : 	PyModule_AddIntConstant(poModule, "ANTIFLAG_EMPIRE_R",			CItemData::ITEM_ANTIFLAG_EMPIRE_R);

  00a94	68 00 08 00 00	 push	 2048			; 00000800H
  00a99	68 00 00 00 00	 push	 OFFSET ??_C@_0BC@NPDFHMBJ@ANTIFLAG_EMPIRE_R@
  00a9e	ff 75 fc	 push	 DWORD PTR _poModule$[ebp]
  00aa1	ff 15 00 00 00
	00		 call	 DWORD PTR __imp__PyModule_AddIntConstant
  00aa7	83 c4 0c	 add	 esp, 12			; 0000000cH

; 718  : 	PyModule_AddIntConstant(poModule, "ANTIFLAG_SAVE",				CItemData::ITEM_ANTIFLAG_SAVE);

  00aaa	68 00 10 00 00	 push	 4096			; 00001000H
  00aaf	68 00 00 00 00	 push	 OFFSET ??_C@_0O@KMIEJMOO@ANTIFLAG_SAVE@
  00ab4	ff 75 fc	 push	 DWORD PTR _poModule$[ebp]
  00ab7	ff 15 00 00 00
	00		 call	 DWORD PTR __imp__PyModule_AddIntConstant
  00abd	83 c4 0c	 add	 esp, 12			; 0000000cH

; 719  : 	PyModule_AddIntConstant(poModule, "ANTIFLAG_GIVE",				CItemData::ITEM_ANTIFLAG_GIVE);

  00ac0	68 00 20 00 00	 push	 8192			; 00002000H
  00ac5	68 00 00 00 00	 push	 OFFSET ??_C@_0O@PMFAIFED@ANTIFLAG_GIVE@
  00aca	ff 75 fc	 push	 DWORD PTR _poModule$[ebp]
  00acd	ff 15 00 00 00
	00		 call	 DWORD PTR __imp__PyModule_AddIntConstant
  00ad3	83 c4 0c	 add	 esp, 12			; 0000000cH

; 720  : 	PyModule_AddIntConstant(poModule, "ANTIFLAG_PKDROP",			CItemData::ITEM_ANTIFLAG_PKDROP);

  00ad6	68 00 40 00 00	 push	 16384			; 00004000H
  00adb	68 00 00 00 00	 push	 OFFSET ??_C@_0BA@LPKEKIBP@ANTIFLAG_PKDROP@
  00ae0	ff 75 fc	 push	 DWORD PTR _poModule$[ebp]
  00ae3	ff 15 00 00 00
	00		 call	 DWORD PTR __imp__PyModule_AddIntConstant
  00ae9	83 c4 0c	 add	 esp, 12			; 0000000cH

; 721  : 	PyModule_AddIntConstant(poModule, "ANTIFLAG_STACK",				CItemData::ITEM_ANTIFLAG_STACK);

  00aec	68 00 80 00 00	 push	 32768			; 00008000H
  00af1	68 00 00 00 00	 push	 OFFSET ??_C@_0P@DFNANGEL@ANTIFLAG_STACK@
  00af6	ff 75 fc	 push	 DWORD PTR _poModule$[ebp]
  00af9	ff 15 00 00 00
	00		 call	 DWORD PTR __imp__PyModule_AddIntConstant
  00aff	83 c4 0c	 add	 esp, 12			; 0000000cH

; 722  : 	PyModule_AddIntConstant(poModule, "ANTIFLAG_MYSHOP",			CItemData::ITEM_ANTIFLAG_MYSHOP);

  00b02	68 00 00 01 00	 push	 65536			; 00010000H
  00b07	68 00 00 00 00	 push	 OFFSET ??_C@_0BA@BKNHAKOI@ANTIFLAG_MYSHOP@
  00b0c	ff 75 fc	 push	 DWORD PTR _poModule$[ebp]
  00b0f	ff 15 00 00 00
	00		 call	 DWORD PTR __imp__PyModule_AddIntConstant
  00b15	83 c4 0c	 add	 esp, 12			; 0000000cH

; 723  : 
; 724  : 	PyModule_AddIntConstant(poModule, "WEARABLE_BODY",				CItemData::WEARABLE_BODY);

  00b18	6a 01		 push	 1
  00b1a	68 00 00 00 00	 push	 OFFSET ??_C@_0O@KOFPKKKF@WEARABLE_BODY@
  00b1f	ff 75 fc	 push	 DWORD PTR _poModule$[ebp]
  00b22	ff 15 00 00 00
	00		 call	 DWORD PTR __imp__PyModule_AddIntConstant
  00b28	83 c4 0c	 add	 esp, 12			; 0000000cH

; 725  : 	PyModule_AddIntConstant(poModule, "WEARABLE_HEAD",				CItemData::WEARABLE_HEAD);

  00b2b	6a 02		 push	 2
  00b2d	68 00 00 00 00	 push	 OFFSET ??_C@_0O@HCPFPMJH@WEARABLE_HEAD@
  00b32	ff 75 fc	 push	 DWORD PTR _poModule$[ebp]
  00b35	ff 15 00 00 00
	00		 call	 DWORD PTR __imp__PyModule_AddIntConstant
  00b3b	83 c4 0c	 add	 esp, 12			; 0000000cH

; 726  : 	PyModule_AddIntConstant(poModule, "WEARABLE_FOOTS",				CItemData::WEARABLE_FOOTS);

  00b3e	6a 04		 push	 4
  00b40	68 00 00 00 00	 push	 OFFSET ??_C@_0P@HDMMFABO@WEARABLE_FOOTS@
  00b45	ff 75 fc	 push	 DWORD PTR _poModule$[ebp]
  00b48	ff 15 00 00 00
	00		 call	 DWORD PTR __imp__PyModule_AddIntConstant
  00b4e	83 c4 0c	 add	 esp, 12			; 0000000cH

; 727  : 	PyModule_AddIntConstant(poModule, "WEARABLE_WRIST",				CItemData::WEARABLE_WRIST);

  00b51	6a 08		 push	 8
  00b53	68 00 00 00 00	 push	 OFFSET ??_C@_0P@EMFDANIN@WEARABLE_WRIST@
  00b58	ff 75 fc	 push	 DWORD PTR _poModule$[ebp]
  00b5b	ff 15 00 00 00
	00		 call	 DWORD PTR __imp__PyModule_AddIntConstant
  00b61	83 c4 0c	 add	 esp, 12			; 0000000cH

; 728  : 	PyModule_AddIntConstant(poModule, "WEARABLE_WEAPON",			CItemData::WEARABLE_WEAPON);

  00b64	6a 10		 push	 16			; 00000010H
  00b66	68 00 00 00 00	 push	 OFFSET ??_C@_0BA@NBNKFEIG@WEARABLE_WEAPON@
  00b6b	ff 75 fc	 push	 DWORD PTR _poModule$[ebp]
  00b6e	ff 15 00 00 00
	00		 call	 DWORD PTR __imp__PyModule_AddIntConstant
  00b74	83 c4 0c	 add	 esp, 12			; 0000000cH

; 729  : 	PyModule_AddIntConstant(poModule, "WEARABLE_NECK",				CItemData::WEARABLE_NECK);

  00b77	6a 20		 push	 32			; 00000020H
  00b79	68 00 00 00 00	 push	 OFFSET ??_C@_0O@HJKJMBJG@WEARABLE_NECK@
  00b7e	ff 75 fc	 push	 DWORD PTR _poModule$[ebp]
  00b81	ff 15 00 00 00
	00		 call	 DWORD PTR __imp__PyModule_AddIntConstant
  00b87	83 c4 0c	 add	 esp, 12			; 0000000cH

; 730  : 	PyModule_AddIntConstant(poModule, "WEARABLE_EAR",				CItemData::WEARABLE_EAR);

  00b8a	6a 40		 push	 64			; 00000040H
  00b8c	68 00 00 00 00	 push	 OFFSET ??_C@_0N@BHKGKGNM@WEARABLE_EAR@
  00b91	ff 75 fc	 push	 DWORD PTR _poModule$[ebp]
  00b94	ff 15 00 00 00
	00		 call	 DWORD PTR __imp__PyModule_AddIntConstant
  00b9a	83 c4 0c	 add	 esp, 12			; 0000000cH

; 731  : 	PyModule_AddIntConstant(poModule, "WEARABLE_UNIQUE",			CItemData::WEARABLE_UNIQUE);

  00b9d	68 80 00 00 00	 push	 128			; 00000080H
  00ba2	68 00 00 00 00	 push	 OFFSET ??_C@_0BA@FGALGGKF@WEARABLE_UNIQUE@
  00ba7	ff 75 fc	 push	 DWORD PTR _poModule$[ebp]
  00baa	ff 15 00 00 00
	00		 call	 DWORD PTR __imp__PyModule_AddIntConstant
  00bb0	83 c4 0c	 add	 esp, 12			; 0000000cH

; 732  : 	PyModule_AddIntConstant(poModule, "WEARABLE_SHIELD",			CItemData::WEARABLE_SHIELD);

  00bb3	68 00 01 00 00	 push	 256			; 00000100H
  00bb8	68 00 00 00 00	 push	 OFFSET ??_C@_0BA@DGBFNJPE@WEARABLE_SHIELD@
  00bbd	ff 75 fc	 push	 DWORD PTR _poModule$[ebp]
  00bc0	ff 15 00 00 00
	00		 call	 DWORD PTR __imp__PyModule_AddIntConstant
  00bc6	83 c4 0c	 add	 esp, 12			; 0000000cH

; 733  : 	PyModule_AddIntConstant(poModule, "WEARABLE_ARROW",				CItemData::WEARABLE_ARROW);

  00bc9	68 00 02 00 00	 push	 512			; 00000200H
  00bce	68 00 00 00 00	 push	 OFFSET ??_C@_0P@CANFDFEC@WEARABLE_ARROW@
  00bd3	ff 75 fc	 push	 DWORD PTR _poModule$[ebp]
  00bd6	ff 15 00 00 00
	00		 call	 DWORD PTR __imp__PyModule_AddIntConstant
  00bdc	83 c4 0c	 add	 esp, 12			; 0000000cH

; 734  : 
; 735  : 	PyModule_AddIntConstant(poModule, "ARMOR_BODY",					CItemData::ARMOR_BODY);

  00bdf	6a 00		 push	 0
  00be1	68 00 00 00 00	 push	 OFFSET ??_C@_0L@FFADCIKH@ARMOR_BODY@
  00be6	ff 75 fc	 push	 DWORD PTR _poModule$[ebp]
  00be9	ff 15 00 00 00
	00		 call	 DWORD PTR __imp__PyModule_AddIntConstant
  00bef	83 c4 0c	 add	 esp, 12			; 0000000cH

; 736  : 	PyModule_AddIntConstant(poModule, "ARMOR_HEAD",					CItemData::ARMOR_HEAD);

  00bf2	6a 01		 push	 1
  00bf4	68 00 00 00 00	 push	 OFFSET ??_C@_0L@IJKJHOJF@ARMOR_HEAD@
  00bf9	ff 75 fc	 push	 DWORD PTR _poModule$[ebp]
  00bfc	ff 15 00 00 00
	00		 call	 DWORD PTR __imp__PyModule_AddIntConstant
  00c02	83 c4 0c	 add	 esp, 12			; 0000000cH

; 737  : 	PyModule_AddIntConstant(poModule, "ARMOR_SHIELD",				CItemData::ARMOR_SHIELD);

  00c05	6a 02		 push	 2
  00c07	68 00 00 00 00	 push	 OFFSET ??_C@_0N@HJFKCCG@ARMOR_SHIELD@
  00c0c	ff 75 fc	 push	 DWORD PTR _poModule$[ebp]
  00c0f	ff 15 00 00 00
	00		 call	 DWORD PTR __imp__PyModule_AddIntConstant
  00c15	83 c4 0c	 add	 esp, 12			; 0000000cH

; 738  : 	PyModule_AddIntConstant(poModule, "ARMOR_WRIST",				CItemData::ARMOR_WRIST);

  00c18	6a 03		 push	 3
  00c1a	68 00 00 00 00	 push	 OFFSET ??_C@_0M@KCKGDACD@ARMOR_WRIST@
  00c1f	ff 75 fc	 push	 DWORD PTR _poModule$[ebp]
  00c22	ff 15 00 00 00
	00		 call	 DWORD PTR __imp__PyModule_AddIntConstant
  00c28	83 c4 0c	 add	 esp, 12			; 0000000cH

; 739  : 	PyModule_AddIntConstant(poModule, "ARMOR_FOOTS",				CItemData::ARMOR_FOOTS);

  00c2b	6a 04		 push	 4
  00c2d	68 00 00 00 00	 push	 OFFSET ??_C@_0M@JNDJGNLA@ARMOR_FOOTS@
  00c32	ff 75 fc	 push	 DWORD PTR _poModule$[ebp]
  00c35	ff 15 00 00 00
	00		 call	 DWORD PTR __imp__PyModule_AddIntConstant
  00c3b	83 c4 0c	 add	 esp, 12			; 0000000cH

; 740  : 	PyModule_AddIntConstant(poModule, "ARMOR_NECK",					CItemData::ARMOR_NECK);

  00c3e	6a 05		 push	 5
  00c40	68 00 00 00 00	 push	 OFFSET ??_C@_0L@ICPFEDJE@ARMOR_NECK@
  00c45	ff 75 fc	 push	 DWORD PTR _poModule$[ebp]
  00c48	ff 15 00 00 00
	00		 call	 DWORD PTR __imp__PyModule_AddIntConstant
  00c4e	83 c4 0c	 add	 esp, 12			; 0000000cH

; 741  : 	PyModule_AddIntConstant(poModule, "ARMOR_EAR",					CItemData::ARMOR_EAR);

  00c51	6a 06		 push	 6
  00c53	68 00 00 00 00	 push	 OFFSET ??_C@_09JPGIMBID@ARMOR_EAR@
  00c58	ff 75 fc	 push	 DWORD PTR _poModule$[ebp]
  00c5b	ff 15 00 00 00
	00		 call	 DWORD PTR __imp__PyModule_AddIntConstant
  00c61	83 c4 0c	 add	 esp, 12			; 0000000cH

; 742  : 	
; 743  : 	PyModule_AddIntConstant(poModule, "ITEM_APPLY_MAX_NUM",			CItemData::ITEM_APPLY_MAX_NUM);

  00c64	6a 03		 push	 3
  00c66	68 00 00 00 00	 push	 OFFSET ??_C@_0BD@POBJPMPE@ITEM_APPLY_MAX_NUM@
  00c6b	ff 75 fc	 push	 DWORD PTR _poModule$[ebp]
  00c6e	ff 15 00 00 00
	00		 call	 DWORD PTR __imp__PyModule_AddIntConstant
  00c74	83 c4 0c	 add	 esp, 12			; 0000000cH

; 744  : 	PyModule_AddIntConstant(poModule, "ITEM_SOCKET_MAX_NUM",		CItemData::ITEM_SOCKET_MAX_NUM);

  00c77	6a 03		 push	 3
  00c79	68 00 00 00 00	 push	 OFFSET ??_C@_0BE@PABFDMOM@ITEM_SOCKET_MAX_NUM@
  00c7e	ff 75 fc	 push	 DWORD PTR _poModule$[ebp]
  00c81	ff 15 00 00 00
	00		 call	 DWORD PTR __imp__PyModule_AddIntConstant
  00c87	83 c4 0c	 add	 esp, 12			; 0000000cH

; 745  : 
; 746  : 	PyModule_AddIntConstant(poModule, "APPLY_NONE",					CItemData::APPLY_NONE);

  00c8a	6a 00		 push	 0
  00c8c	68 00 00 00 00	 push	 OFFSET ??_C@_0L@KOOBDLCP@APPLY_NONE@
  00c91	ff 75 fc	 push	 DWORD PTR _poModule$[ebp]
  00c94	ff 15 00 00 00
	00		 call	 DWORD PTR __imp__PyModule_AddIntConstant
  00c9a	83 c4 0c	 add	 esp, 12			; 0000000cH

; 747  : 	PyModule_AddIntConstant(poModule, "APPLY_STR",					CItemData::APPLY_STR);

  00c9d	6a 05		 push	 5
  00c9f	68 00 00 00 00	 push	 OFFSET ??_C@_09GCJAEOHJ@APPLY_STR@
  00ca4	ff 75 fc	 push	 DWORD PTR _poModule$[ebp]
  00ca7	ff 15 00 00 00
	00		 call	 DWORD PTR __imp__PyModule_AddIntConstant
  00cad	83 c4 0c	 add	 esp, 12			; 0000000cH

; 748  : 	PyModule_AddIntConstant(poModule, "APPLY_DEX",					CItemData::APPLY_DEX);

  00cb0	6a 06		 push	 6
  00cb2	68 00 00 00 00	 push	 OFFSET ??_C@_09EIFFAAJC@APPLY_DEX@
  00cb7	ff 75 fc	 push	 DWORD PTR _poModule$[ebp]
  00cba	ff 15 00 00 00
	00		 call	 DWORD PTR __imp__PyModule_AddIntConstant
  00cc0	83 c4 0c	 add	 esp, 12			; 0000000cH

; 749  : 	PyModule_AddIntConstant(poModule, "APPLY_CON",					CItemData::APPLY_CON);

  00cc3	6a 03		 push	 3
  00cc5	68 00 00 00 00	 push	 OFFSET ??_C@_09MEINAICK@APPLY_CON@
  00cca	ff 75 fc	 push	 DWORD PTR _poModule$[ebp]
  00ccd	ff 15 00 00 00
	00		 call	 DWORD PTR __imp__PyModule_AddIntConstant
  00cd3	83 c4 0c	 add	 esp, 12			; 0000000cH

; 750  : 	PyModule_AddIntConstant(poModule, "APPLY_INT",					CItemData::APPLY_INT);

  00cd6	6a 04		 push	 4
  00cd8	68 00 00 00 00	 push	 OFFSET ??_C@_09BKNPHIKC@APPLY_INT@
  00cdd	ff 75 fc	 push	 DWORD PTR _poModule$[ebp]
  00ce0	ff 15 00 00 00
	00		 call	 DWORD PTR __imp__PyModule_AddIntConstant
  00ce6	83 c4 0c	 add	 esp, 12			; 0000000cH

; 751  : 	PyModule_AddIntConstant(poModule, "APPLY_MAX_HP",				CItemData::APPLY_MAX_HP);

  00ce9	6a 01		 push	 1
  00ceb	68 00 00 00 00	 push	 OFFSET ??_C@_0N@LMMDFALA@APPLY_MAX_HP@
  00cf0	ff 75 fc	 push	 DWORD PTR _poModule$[ebp]
  00cf3	ff 15 00 00 00
	00		 call	 DWORD PTR __imp__PyModule_AddIntConstant
  00cf9	83 c4 0c	 add	 esp, 12			; 0000000cH

; 752  : 	PyModule_AddIntConstant(poModule, "APPLY_MAX_SP",				CItemData::APPLY_MAX_SP);

  00cfc	6a 02		 push	 2
  00cfe	68 00 00 00 00	 push	 OFFSET ??_C@_0N@KMLABMCB@APPLY_MAX_SP@
  00d03	ff 75 fc	 push	 DWORD PTR _poModule$[ebp]
  00d06	ff 15 00 00 00
	00		 call	 DWORD PTR __imp__PyModule_AddIntConstant
  00d0c	83 c4 0c	 add	 esp, 12			; 0000000cH

; 753  : 	PyModule_AddIntConstant(poModule, "APPLY_HP_REGEN",				CItemData::APPLY_HP_REGEN);

  00d0f	6a 0a		 push	 10			; 0000000aH
  00d11	68 00 00 00 00	 push	 OFFSET ??_C@_0P@CBOEJMBC@APPLY_HP_REGEN@
  00d16	ff 75 fc	 push	 DWORD PTR _poModule$[ebp]
  00d19	ff 15 00 00 00
	00		 call	 DWORD PTR __imp__PyModule_AddIntConstant
  00d1f	83 c4 0c	 add	 esp, 12			; 0000000cH

; 754  : 	PyModule_AddIntConstant(poModule, "APPLY_SP_REGEN",				CItemData::APPLY_SP_REGEN);

  00d22	6a 0b		 push	 11			; 0000000bH
  00d24	68 00 00 00 00	 push	 OFFSET ??_C@_0P@PHBEALO@APPLY_SP_REGEN@
  00d29	ff 75 fc	 push	 DWORD PTR _poModule$[ebp]
  00d2c	ff 15 00 00 00
	00		 call	 DWORD PTR __imp__PyModule_AddIntConstant
  00d32	83 c4 0c	 add	 esp, 12			; 0000000cH

; 755  : 	PyModule_AddIntConstant(poModule, "APPLY_DEF_GRADE_BONUS",		CItemData::APPLY_DEF_GRADE_BONUS);

  00d35	6a 36		 push	 54			; 00000036H
  00d37	68 00 00 00 00	 push	 OFFSET ??_C@_0BG@DJGIDNN@APPLY_DEF_GRADE_BONUS@
  00d3c	ff 75 fc	 push	 DWORD PTR _poModule$[ebp]
  00d3f	ff 15 00 00 00
	00		 call	 DWORD PTR __imp__PyModule_AddIntConstant
  00d45	83 c4 0c	 add	 esp, 12			; 0000000cH

; 756  : 	PyModule_AddIntConstant(poModule, "APPLY_ATT_GRADE_BONUS",		CItemData::APPLY_ATT_GRADE_BONUS);

  00d48	6a 35		 push	 53			; 00000035H
  00d4a	68 00 00 00 00	 push	 OFFSET ??_C@_0BG@DIKOCKN@APPLY_ATT_GRADE_BONUS@
  00d4f	ff 75 fc	 push	 DWORD PTR _poModule$[ebp]
  00d52	ff 15 00 00 00
	00		 call	 DWORD PTR __imp__PyModule_AddIntConstant
  00d58	83 c4 0c	 add	 esp, 12			; 0000000cH

; 757  : 	PyModule_AddIntConstant(poModule, "APPLY_ATT_SPEED",			CItemData::APPLY_ATT_SPEED);

  00d5b	6a 07		 push	 7
  00d5d	68 00 00 00 00	 push	 OFFSET ??_C@_0BA@PBNDFNHA@APPLY_ATT_SPEED@
  00d62	ff 75 fc	 push	 DWORD PTR _poModule$[ebp]
  00d65	ff 15 00 00 00
	00		 call	 DWORD PTR __imp__PyModule_AddIntConstant
  00d6b	83 c4 0c	 add	 esp, 12			; 0000000cH

; 758  : 	PyModule_AddIntConstant(poModule, "APPLY_MOV_SPEED",			CItemData::APPLY_MOV_SPEED);

  00d6e	6a 08		 push	 8
  00d70	68 00 00 00 00	 push	 OFFSET ??_C@_0BA@IHFPGGCP@APPLY_MOV_SPEED@
  00d75	ff 75 fc	 push	 DWORD PTR _poModule$[ebp]
  00d78	ff 15 00 00 00
	00		 call	 DWORD PTR __imp__PyModule_AddIntConstant
  00d7e	83 c4 0c	 add	 esp, 12			; 0000000cH

; 759  : 	PyModule_AddIntConstant(poModule, "APPLY_CAST_SPEED",			CItemData::APPLY_CAST_SPEED);

  00d81	6a 09		 push	 9
  00d83	68 00 00 00 00	 push	 OFFSET ??_C@_0BB@IMPHMAIN@APPLY_CAST_SPEED@
  00d88	ff 75 fc	 push	 DWORD PTR _poModule$[ebp]
  00d8b	ff 15 00 00 00
	00		 call	 DWORD PTR __imp__PyModule_AddIntConstant
  00d91	83 c4 0c	 add	 esp, 12			; 0000000cH

; 760  : 	PyModule_AddIntConstant(poModule, "APPLY_MAGIC_ATT_GRADE",		CItemData::APPLY_MAGIC_ATT_GRADE);

  00d94	6a 37		 push	 55			; 00000037H
  00d96	68 00 00 00 00	 push	 OFFSET ??_C@_0BG@JIJNNLOL@APPLY_MAGIC_ATT_GRADE@
  00d9b	ff 75 fc	 push	 DWORD PTR _poModule$[ebp]
  00d9e	ff 15 00 00 00
	00		 call	 DWORD PTR __imp__PyModule_AddIntConstant
  00da4	83 c4 0c	 add	 esp, 12			; 0000000cH

; 761  : 	PyModule_AddIntConstant(poModule, "APPLY_MAGIC_DEF_GRADE",		CItemData::APPLY_MAGIC_DEF_GRADE);

  00da7	6a 38		 push	 56			; 00000038H
  00da9	68 00 00 00 00	 push	 OFFSET ??_C@_0BG@PLJBHAML@APPLY_MAGIC_DEF_GRADE@
  00dae	ff 75 fc	 push	 DWORD PTR _poModule$[ebp]
  00db1	ff 15 00 00 00
	00		 call	 DWORD PTR __imp__PyModule_AddIntConstant
  00db7	83 c4 0c	 add	 esp, 12			; 0000000cH

; 762  : 	PyModule_AddIntConstant(poModule, "APPLY_SKILL",				CItemData::APPLY_SKILL);

  00dba	6a 33		 push	 51			; 00000033H
  00dbc	68 00 00 00 00	 push	 OFFSET ??_C@_0M@CPHNGINI@APPLY_SKILL@
  00dc1	ff 75 fc	 push	 DWORD PTR _poModule$[ebp]
  00dc4	ff 15 00 00 00
	00		 call	 DWORD PTR __imp__PyModule_AddIntConstant
  00dca	83 c4 0c	 add	 esp, 12			; 0000000cH

; 763  :     PyModule_AddIntConstant(poModule, "APPLY_ATTBONUS_ANIMAL",		CItemData::APPLY_ATTBONUS_ANIMAL);

  00dcd	6a 12		 push	 18			; 00000012H
  00dcf	68 00 00 00 00	 push	 OFFSET ??_C@_0BG@FCHNFPKG@APPLY_ATTBONUS_ANIMAL@
  00dd4	ff 75 fc	 push	 DWORD PTR _poModule$[ebp]
  00dd7	ff 15 00 00 00
	00		 call	 DWORD PTR __imp__PyModule_AddIntConstant
  00ddd	83 c4 0c	 add	 esp, 12			; 0000000cH

; 764  :     PyModule_AddIntConstant(poModule, "APPLY_ATTBONUS_UNDEAD",		CItemData::APPLY_ATTBONUS_UNDEAD);

  00de0	6a 15		 push	 21			; 00000015H
  00de2	68 00 00 00 00	 push	 OFFSET ??_C@_0BG@DEBBIBCN@APPLY_ATTBONUS_UNDEAD@
  00de7	ff 75 fc	 push	 DWORD PTR _poModule$[ebp]
  00dea	ff 15 00 00 00
	00		 call	 DWORD PTR __imp__PyModule_AddIntConstant
  00df0	83 c4 0c	 add	 esp, 12			; 0000000cH

; 765  :     PyModule_AddIntConstant(poModule, "APPLY_ATTBONUS_DEVIL", 		CItemData::APPLY_ATTBONUS_DEVIL);

  00df3	6a 16		 push	 22			; 00000016H
  00df5	68 00 00 00 00	 push	 OFFSET ??_C@_0BF@PHBHKMPC@APPLY_ATTBONUS_DEVIL@
  00dfa	ff 75 fc	 push	 DWORD PTR _poModule$[ebp]
  00dfd	ff 15 00 00 00
	00		 call	 DWORD PTR __imp__PyModule_AddIntConstant
  00e03	83 c4 0c	 add	 esp, 12			; 0000000cH

; 766  :     PyModule_AddIntConstant(poModule, "APPLY_ATTBONUS_HUMAN",		CItemData::APPLY_ATTBONUS_HUMAN);

  00e06	6a 11		 push	 17			; 00000011H
  00e08	68 00 00 00 00	 push	 OFFSET ??_C@_0BF@FLAIBIKP@APPLY_ATTBONUS_HUMAN@
  00e0d	ff 75 fc	 push	 DWORD PTR _poModule$[ebp]
  00e10	ff 15 00 00 00
	00		 call	 DWORD PTR __imp__PyModule_AddIntConstant
  00e16	83 c4 0c	 add	 esp, 12			; 0000000cH

; 767  :     PyModule_AddIntConstant(poModule, "APPLY_BOW_DISTANCE", 		CItemData::APPLY_BOW_DISTANCE);

  00e19	6a 34		 push	 52			; 00000034H
  00e1b	68 00 00 00 00	 push	 OFFSET ??_C@_0BD@DGLENODO@APPLY_BOW_DISTANCE@
  00e20	ff 75 fc	 push	 DWORD PTR _poModule$[ebp]
  00e23	ff 15 00 00 00
	00		 call	 DWORD PTR __imp__PyModule_AddIntConstant
  00e29	83 c4 0c	 add	 esp, 12			; 0000000cH

; 768  :     PyModule_AddIntConstant(poModule, "APPLY_RESIST_BOW", 			CItemData::APPLY_RESIST_BOW);

  00e2c	6a 22		 push	 34			; 00000022H
  00e2e	68 00 00 00 00	 push	 OFFSET ??_C@_0BB@KEIAGOOG@APPLY_RESIST_BOW@
  00e33	ff 75 fc	 push	 DWORD PTR _poModule$[ebp]
  00e36	ff 15 00 00 00
	00		 call	 DWORD PTR __imp__PyModule_AddIntConstant
  00e3c	83 c4 0c	 add	 esp, 12			; 0000000cH

; 769  :     PyModule_AddIntConstant(poModule, "APPLY_RESIST_FIRE", 			CItemData::APPLY_RESIST_FIRE);

  00e3f	6a 23		 push	 35			; 00000023H
  00e41	68 00 00 00 00	 push	 OFFSET ??_C@_0BC@BCODEHJE@APPLY_RESIST_FIRE@
  00e46	ff 75 fc	 push	 DWORD PTR _poModule$[ebp]
  00e49	ff 15 00 00 00
	00		 call	 DWORD PTR __imp__PyModule_AddIntConstant
  00e4f	83 c4 0c	 add	 esp, 12			; 0000000cH

; 770  :     PyModule_AddIntConstant(poModule, "APPLY_RESIST_ELEC", 			CItemData::APPLY_RESIST_ELEC);

  00e52	6a 24		 push	 36			; 00000024H
  00e54	68 00 00 00 00	 push	 OFFSET ??_C@_0BC@CNKONPAF@APPLY_RESIST_ELEC@
  00e59	ff 75 fc	 push	 DWORD PTR _poModule$[ebp]
  00e5c	ff 15 00 00 00
	00		 call	 DWORD PTR __imp__PyModule_AddIntConstant
  00e62	83 c4 0c	 add	 esp, 12			; 0000000cH

; 771  :     PyModule_AddIntConstant(poModule, "APPLY_RESIST_MAGIC", 		CItemData::APPLY_RESIST_MAGIC);

  00e65	6a 25		 push	 37			; 00000025H
  00e67	68 00 00 00 00	 push	 OFFSET ??_C@_0BD@BIEOENBH@APPLY_RESIST_MAGIC@
  00e6c	ff 75 fc	 push	 DWORD PTR _poModule$[ebp]
  00e6f	ff 15 00 00 00
	00		 call	 DWORD PTR __imp__PyModule_AddIntConstant
  00e75	83 c4 0c	 add	 esp, 12			; 0000000cH

; 772  :     PyModule_AddIntConstant(poModule, "APPLY_POISON_PCT",			CItemData::APPLY_POISON_PCT);

  00e78	6a 0c		 push	 12			; 0000000cH
  00e7a	68 00 00 00 00	 push	 OFFSET ??_C@_0BB@OFEPEABG@APPLY_POISON_PCT@
  00e7f	ff 75 fc	 push	 DWORD PTR _poModule$[ebp]
  00e82	ff 15 00 00 00
	00		 call	 DWORD PTR __imp__PyModule_AddIntConstant
  00e88	83 c4 0c	 add	 esp, 12			; 0000000cH

; 773  :     PyModule_AddIntConstant(poModule, "APPLY_SLOW_PCT", 			CItemData::APPLY_SLOW_PCT);

  00e8b	6a 0e		 push	 14			; 0000000eH
  00e8d	68 00 00 00 00	 push	 OFFSET ??_C@_0P@EAEIAPML@APPLY_SLOW_PCT@
  00e92	ff 75 fc	 push	 DWORD PTR _poModule$[ebp]
  00e95	ff 15 00 00 00
	00		 call	 DWORD PTR __imp__PyModule_AddIntConstant
  00e9b	83 c4 0c	 add	 esp, 12			; 0000000cH

; 774  :     PyModule_AddIntConstant(poModule, "APPLY_STUN_PCT", 			CItemData::APPLY_STUN_PCT);

  00e9e	6a 0d		 push	 13			; 0000000dH
  00ea0	68 00 00 00 00	 push	 OFFSET ??_C@_0P@IGBLFIG@APPLY_STUN_PCT@
  00ea5	ff 75 fc	 push	 DWORD PTR _poModule$[ebp]
  00ea8	ff 15 00 00 00
	00		 call	 DWORD PTR __imp__PyModule_AddIntConstant
  00eae	83 c4 0c	 add	 esp, 12			; 0000000cH

; 775  : 	PyModule_AddIntConstant(poModule, "APPLY_CRITICAL_PCT",			CItemData::APPLY_CRITICAL_PCT);			// n%   

  00eb1	6a 0f		 push	 15			; 0000000fH
  00eb3	68 00 00 00 00	 push	 OFFSET ??_C@_0BD@DOHBCDEC@APPLY_CRITICAL_PCT@
  00eb8	ff 75 fc	 push	 DWORD PTR _poModule$[ebp]
  00ebb	ff 15 00 00 00
	00		 call	 DWORD PTR __imp__PyModule_AddIntConstant
  00ec1	83 c4 0c	 add	 esp, 12			; 0000000cH

; 776  : 	PyModule_AddIntConstant(poModule, "APPLY_PENETRATE_PCT",		CItemData::APPLY_PENETRATE_PCT);		// n%    

  00ec4	6a 10		 push	 16			; 00000010H
  00ec6	68 00 00 00 00	 push	 OFFSET ??_C@_0BE@MIHOPHBF@APPLY_PENETRATE_PCT@
  00ecb	ff 75 fc	 push	 DWORD PTR _poModule$[ebp]
  00ece	ff 15 00 00 00
	00		 call	 DWORD PTR __imp__PyModule_AddIntConstant
  00ed4	83 c4 0c	 add	 esp, 12			; 0000000cH

; 777  : 	PyModule_AddIntConstant(poModule, "APPLY_ATTBONUS_ORC",			CItemData::APPLY_ATTBONUS_ORC);			//  n%  

  00ed7	6a 13		 push	 19			; 00000013H
  00ed9	68 00 00 00 00	 push	 OFFSET ??_C@_0BD@GHNBCFFK@APPLY_ATTBONUS_ORC@
  00ede	ff 75 fc	 push	 DWORD PTR _poModule$[ebp]
  00ee1	ff 15 00 00 00
	00		 call	 DWORD PTR __imp__PyModule_AddIntConstant
  00ee7	83 c4 0c	 add	 esp, 12			; 0000000cH

; 778  : 	PyModule_AddIntConstant(poModule, "APPLY_ATTBONUS_MILGYO",		CItemData::APPLY_ATTBONUS_MILGYO);		//  n%  

  00eea	6a 14		 push	 20			; 00000014H
  00eec	68 00 00 00 00	 push	 OFFSET ??_C@_0BG@BGJNMLHF@APPLY_ATTBONUS_MILGYO@
  00ef1	ff 75 fc	 push	 DWORD PTR _poModule$[ebp]
  00ef4	ff 15 00 00 00
	00		 call	 DWORD PTR __imp__PyModule_AddIntConstant
  00efa	83 c4 0c	 add	 esp, 12			; 0000000cH

; 779  : 	PyModule_AddIntConstant(poModule, "APPLY_ATTBONUS_UNDEAD",		CItemData::APPLY_ATTBONUS_UNDEAD);		//  n%  

  00efd	6a 15		 push	 21			; 00000015H
  00eff	68 00 00 00 00	 push	 OFFSET ??_C@_0BG@DEBBIBCN@APPLY_ATTBONUS_UNDEAD@
  00f04	ff 75 fc	 push	 DWORD PTR _poModule$[ebp]
  00f07	ff 15 00 00 00
	00		 call	 DWORD PTR __imp__PyModule_AddIntConstant
  00f0d	83 c4 0c	 add	 esp, 12			; 0000000cH

; 780  : 	PyModule_AddIntConstant(poModule, "APPLY_ATTBONUS_DEVIL",		CItemData::APPLY_ATTBONUS_DEVIL);		//  n%  

  00f10	6a 16		 push	 22			; 00000016H
  00f12	68 00 00 00 00	 push	 OFFSET ??_C@_0BF@PHBHKMPC@APPLY_ATTBONUS_DEVIL@
  00f17	ff 75 fc	 push	 DWORD PTR _poModule$[ebp]
  00f1a	ff 15 00 00 00
	00		 call	 DWORD PTR __imp__PyModule_AddIntConstant
  00f20	83 c4 0c	 add	 esp, 12			; 0000000cH

; 781  : 	PyModule_AddIntConstant(poModule, "APPLY_STEAL_HP",				CItemData::APPLY_STEAL_HP);				// n%   10%   

  00f23	6a 17		 push	 23			; 00000017H
  00f25	68 00 00 00 00	 push	 OFFSET ??_C@_0P@IJPDEMHM@APPLY_STEAL_HP@
  00f2a	ff 75 fc	 push	 DWORD PTR _poModule$[ebp]
  00f2d	ff 15 00 00 00
	00		 call	 DWORD PTR __imp__PyModule_AddIntConstant
  00f33	83 c4 0c	 add	 esp, 12			; 0000000cH

; 782  : 	PyModule_AddIntConstant(poModule, "APPLY_STEAL_SP",				CItemData::APPLY_STEAL_SP);				// n%   10%   

  00f36	6a 18		 push	 24			; 00000018H
  00f38	68 00 00 00 00	 push	 OFFSET ??_C@_0P@JJIAAAON@APPLY_STEAL_SP@
  00f3d	ff 75 fc	 push	 DWORD PTR _poModule$[ebp]
  00f40	ff 15 00 00 00
	00		 call	 DWORD PTR __imp__PyModule_AddIntConstant
  00f46	83 c4 0c	 add	 esp, 12			; 0000000cH

; 783  : 	PyModule_AddIntConstant(poModule, "APPLY_MANA_BURN_PCT",		CItemData::APPLY_MANA_BURN_PCT);		// n%    

  00f49	6a 19		 push	 25			; 00000019H
  00f4b	68 00 00 00 00	 push	 OFFSET ??_C@_0BE@MMJAOBJI@APPLY_MANA_BURN_PCT@
  00f50	ff 75 fc	 push	 DWORD PTR _poModule$[ebp]
  00f53	ff 15 00 00 00
	00		 call	 DWORD PTR __imp__PyModule_AddIntConstant
  00f59	83 c4 0c	 add	 esp, 12			; 0000000cH

; 784  : 	PyModule_AddIntConstant(poModule, "APPLY_DAMAGE_SP_RECOVER",	CItemData::APPLY_DAMAGE_SP_RECOVER);	// n%   2 

  00f5c	6a 1a		 push	 26			; 0000001aH
  00f5e	68 00 00 00 00	 push	 OFFSET ??_C@_0BI@CNPFJGMF@APPLY_DAMAGE_SP_RECOVER@
  00f63	ff 75 fc	 push	 DWORD PTR _poModule$[ebp]
  00f66	ff 15 00 00 00
	00		 call	 DWORD PTR __imp__PyModule_AddIntConstant
  00f6c	83 c4 0c	 add	 esp, 12			; 0000000cH

; 785  : 	PyModule_AddIntConstant(poModule, "APPLY_BLOCK",				CItemData::APPLY_BLOCK);				// n%    

  00f6f	6a 1b		 push	 27			; 0000001bH
  00f71	68 00 00 00 00	 push	 OFFSET ??_C@_0M@DEKBOLNA@APPLY_BLOCK@
  00f76	ff 75 fc	 push	 DWORD PTR _poModule$[ebp]
  00f79	ff 15 00 00 00
	00		 call	 DWORD PTR __imp__PyModule_AddIntConstant
  00f7f	83 c4 0c	 add	 esp, 12			; 0000000cH

; 786  : 	PyModule_AddIntConstant(poModule, "APPLY_DODGE",				CItemData::APPLY_DODGE);				// n%    

  00f82	6a 1c		 push	 28			; 0000001cH
  00f84	68 00 00 00 00	 push	 OFFSET ??_C@_0M@OLNDHAEO@APPLY_DODGE@
  00f89	ff 75 fc	 push	 DWORD PTR _poModule$[ebp]
  00f8c	ff 15 00 00 00
	00		 call	 DWORD PTR __imp__PyModule_AddIntConstant
  00f92	83 c4 0c	 add	 esp, 12			; 0000000cH

; 787  : 	PyModule_AddIntConstant(poModule, "APPLY_RESIST_SWORD",			CItemData::APPLY_RESIST_SWORD);			//    n% 

  00f95	6a 1d		 push	 29			; 0000001dH
  00f97	68 00 00 00 00	 push	 OFFSET ??_C@_0BD@FELELOGH@APPLY_RESIST_SWORD@
  00f9c	ff 75 fc	 push	 DWORD PTR _poModule$[ebp]
  00f9f	ff 15 00 00 00
	00		 call	 DWORD PTR __imp__PyModule_AddIntConstant
  00fa5	83 c4 0c	 add	 esp, 12			; 0000000cH

; 788  : 	PyModule_AddIntConstant(poModule, "APPLY_RESIST_TWOHAND",		CItemData::APPLY_RESIST_TWOHAND);		//    n% 

  00fa8	6a 1e		 push	 30			; 0000001eH
  00faa	68 00 00 00 00	 push	 OFFSET ??_C@_0BF@PPDPGLJM@APPLY_RESIST_TWOHAND@
  00faf	ff 75 fc	 push	 DWORD PTR _poModule$[ebp]
  00fb2	ff 15 00 00 00
	00		 call	 DWORD PTR __imp__PyModule_AddIntConstant
  00fb8	83 c4 0c	 add	 esp, 12			; 0000000cH

; 789  : 	PyModule_AddIntConstant(poModule, "APPLY_RESIST_DAGGER",		CItemData::APPLY_RESIST_DAGGER);		//    n% 

  00fbb	6a 1f		 push	 31			; 0000001fH
  00fbd	68 00 00 00 00	 push	 OFFSET ??_C@_0BE@HKIMLKAO@APPLY_RESIST_DAGGER@
  00fc2	ff 75 fc	 push	 DWORD PTR _poModule$[ebp]
  00fc5	ff 15 00 00 00
	00		 call	 DWORD PTR __imp__PyModule_AddIntConstant
  00fcb	83 c4 0c	 add	 esp, 12			; 0000000cH

; 790  : 	PyModule_AddIntConstant(poModule, "APPLY_RESIST_BELL",			CItemData::APPLY_RESIST_BELL);			//    n% 

  00fce	6a 20		 push	 32			; 00000020H
  00fd0	68 00 00 00 00	 push	 OFFSET ??_C@_0BC@GKMPGLNP@APPLY_RESIST_BELL@
  00fd5	ff 75 fc	 push	 DWORD PTR _poModule$[ebp]
  00fd8	ff 15 00 00 00
	00		 call	 DWORD PTR __imp__PyModule_AddIntConstant
  00fde	83 c4 0c	 add	 esp, 12			; 0000000cH

; 791  : 	PyModule_AddIntConstant(poModule, "APPLY_RESIST_FAN",			CItemData::APPLY_RESIST_FAN);			//    n% 

  00fe1	6a 21		 push	 33			; 00000021H
  00fe3	68 00 00 00 00	 push	 OFFSET ??_C@_0BB@LKHMHNKD@APPLY_RESIST_FAN@
  00fe8	ff 75 fc	 push	 DWORD PTR _poModule$[ebp]
  00feb	ff 15 00 00 00
	00		 call	 DWORD PTR __imp__PyModule_AddIntConstant
  00ff1	83 c4 0c	 add	 esp, 12			; 0000000cH

; 792  : 	PyModule_AddIntConstant(poModule, "APPLY_RESIST_WIND",			CItemData::APPLY_RESIST_WIND);			//    n% 

  00ff4	6a 26		 push	 38			; 00000026H
  00ff6	68 00 00 00 00	 push	 OFFSET ??_C@_0BC@EDEEJCPD@APPLY_RESIST_WIND@
  00ffb	ff 75 fc	 push	 DWORD PTR _poModule$[ebp]
  00ffe	ff 15 00 00 00
	00		 call	 DWORD PTR __imp__PyModule_AddIntConstant
  01004	83 c4 0c	 add	 esp, 12			; 0000000cH

; 793  : 	PyModule_AddIntConstant(poModule, "APPLY_REFLECT_MELEE",		CItemData::APPLY_REFLECT_MELEE);		//   n%   

  01007	6a 27		 push	 39			; 00000027H
  01009	68 00 00 00 00	 push	 OFFSET ??_C@_0BE@JKECBGFJ@APPLY_REFLECT_MELEE@
  0100e	ff 75 fc	 push	 DWORD PTR _poModule$[ebp]
  01011	ff 15 00 00 00
	00		 call	 DWORD PTR __imp__PyModule_AddIntConstant
  01017	83 c4 0c	 add	 esp, 12			; 0000000cH

; 794  : 	PyModule_AddIntConstant(poModule, "APPLY_REFLECT_CURSE",		CItemData::APPLY_REFLECT_CURSE);		//     n%  

  0101a	6a 28		 push	 40			; 00000028H
  0101c	68 00 00 00 00	 push	 OFFSET ??_C@_0BE@GIMFBPMF@APPLY_REFLECT_CURSE@
  01021	ff 75 fc	 push	 DWORD PTR _poModule$[ebp]
  01024	ff 15 00 00 00
	00		 call	 DWORD PTR __imp__PyModule_AddIntConstant
  0102a	83 c4 0c	 add	 esp, 12			; 0000000cH

; 795  : 	PyModule_AddIntConstant(poModule, "APPLY_POISON_REDUCE",		CItemData::APPLY_POISON_REDUCE);		//    

  0102d	6a 29		 push	 41			; 00000029H
  0102f	68 00 00 00 00	 push	 OFFSET ??_C@_0BE@CMJGNONM@APPLY_POISON_REDUCE@
  01034	ff 75 fc	 push	 DWORD PTR _poModule$[ebp]
  01037	ff 15 00 00 00
	00		 call	 DWORD PTR __imp__PyModule_AddIntConstant
  0103d	83 c4 0c	 add	 esp, 12			; 0000000cH

; 796  : 	PyModule_AddIntConstant(poModule, "APPLY_KILL_SP_RECOVER",		CItemData::APPLY_KILL_SP_RECOVER);		//   n%   10 

  01040	6a 2a		 push	 42			; 0000002aH
  01042	68 00 00 00 00	 push	 OFFSET ??_C@_0BG@NAAMOKGC@APPLY_KILL_SP_RECOVER@
  01047	ff 75 fc	 push	 DWORD PTR _poModule$[ebp]
  0104a	ff 15 00 00 00
	00		 call	 DWORD PTR __imp__PyModule_AddIntConstant
  01050	83 c4 0c	 add	 esp, 12			; 0000000cH

; 797  : 	PyModule_AddIntConstant(poModule, "APPLY_EXP_DOUBLE_BONUS",		CItemData::APPLY_EXP_DOUBLE_BONUS);		// n%    2

  01053	6a 2b		 push	 43			; 0000002bH
  01055	68 00 00 00 00	 push	 OFFSET ??_C@_0BH@BOFCHNGC@APPLY_EXP_DOUBLE_BONUS@
  0105a	ff 75 fc	 push	 DWORD PTR _poModule$[ebp]
  0105d	ff 15 00 00 00
	00		 call	 DWORD PTR __imp__PyModule_AddIntConstant
  01063	83 c4 0c	 add	 esp, 12			; 0000000cH

; 798  : 	PyModule_AddIntConstant(poModule, "APPLY_GOLD_DOUBLE_BONUS",	CItemData::APPLY_GOLD_DOUBLE_BONUS);	// n%    2

  01066	6a 2c		 push	 44			; 0000002cH
  01068	68 00 00 00 00	 push	 OFFSET ??_C@_0BI@CPGCKKHM@APPLY_GOLD_DOUBLE_BONUS@
  0106d	ff 75 fc	 push	 DWORD PTR _poModule$[ebp]
  01070	ff 15 00 00 00
	00		 call	 DWORD PTR __imp__PyModule_AddIntConstant
  01076	83 c4 0c	 add	 esp, 12			; 0000000cH

; 799  : 	PyModule_AddIntConstant(poModule, "APPLY_ITEM_DROP_BONUS",		CItemData::APPLY_ITEM_DROP_BONUS);		// n%    2

  01079	6a 2d		 push	 45			; 0000002dH
  0107b	68 00 00 00 00	 push	 OFFSET ??_C@_0BG@GJLPLNJK@APPLY_ITEM_DROP_BONUS@
  01080	ff 75 fc	 push	 DWORD PTR _poModule$[ebp]
  01083	ff 15 00 00 00
	00		 call	 DWORD PTR __imp__PyModule_AddIntConstant
  01089	83 c4 0c	 add	 esp, 12			; 0000000cH

; 800  : 	PyModule_AddIntConstant(poModule, "APPLY_POTION_BONUS",			CItemData::APPLY_POTION_BONUS);			//   n%   

  0108c	6a 2e		 push	 46			; 0000002eH
  0108e	68 00 00 00 00	 push	 OFFSET ??_C@_0BD@HAABJCED@APPLY_POTION_BONUS@
  01093	ff 75 fc	 push	 DWORD PTR _poModule$[ebp]
  01096	ff 15 00 00 00
	00		 call	 DWORD PTR __imp__PyModule_AddIntConstant
  0109c	83 c4 0c	 add	 esp, 12			; 0000000cH

; 801  : 	PyModule_AddIntConstant(poModule, "APPLY_KILL_HP_RECOVER",		CItemData::APPLY_KILL_HP_RECOVER);		//    

  0109f	6a 2f		 push	 47			; 0000002fH
  010a1	68 00 00 00 00	 push	 OFFSET ??_C@_0BG@FNNLKJON@APPLY_KILL_HP_RECOVER@
  010a6	ff 75 fc	 push	 DWORD PTR _poModule$[ebp]
  010a9	ff 15 00 00 00
	00		 call	 DWORD PTR __imp__PyModule_AddIntConstant
  010af	83 c4 0c	 add	 esp, 12			; 0000000cH

; 802  : 	PyModule_AddIntConstant(poModule, "APPLY_IMMUNE_STUN",			CItemData::APPLY_IMMUNE_STUN);			//   

  010b2	6a 30		 push	 48			; 00000030H
  010b4	68 00 00 00 00	 push	 OFFSET ??_C@_0BC@GMOGAEGD@APPLY_IMMUNE_STUN@
  010b9	ff 75 fc	 push	 DWORD PTR _poModule$[ebp]
  010bc	ff 15 00 00 00
	00		 call	 DWORD PTR __imp__PyModule_AddIntConstant
  010c2	83 c4 0c	 add	 esp, 12			; 0000000cH

; 803  : 	PyModule_AddIntConstant(poModule, "APPLY_IMMUNE_SLOW",			CItemData::APPLY_IMMUNE_SLOW);			//  

  010c5	6a 31		 push	 49			; 00000031H
  010c7	68 00 00 00 00	 push	 OFFSET ??_C@_0BC@HDPKPEKN@APPLY_IMMUNE_SLOW@
  010cc	ff 75 fc	 push	 DWORD PTR _poModule$[ebp]
  010cf	ff 15 00 00 00
	00		 call	 DWORD PTR __imp__PyModule_AddIntConstant
  010d5	83 c4 0c	 add	 esp, 12			; 0000000cH

; 804  : 	PyModule_AddIntConstant(poModule, "APPLY_IMMUNE_FALL",			CItemData::APPLY_IMMUNE_FALL);			//  

  010d8	6a 32		 push	 50			; 00000032H
  010da	68 00 00 00 00	 push	 OFFSET ??_C@_0BC@ICOAEBEB@APPLY_IMMUNE_FALL@
  010df	ff 75 fc	 push	 DWORD PTR _poModule$[ebp]
  010e2	ff 15 00 00 00
	00		 call	 DWORD PTR __imp__PyModule_AddIntConstant
  010e8	83 c4 0c	 add	 esp, 12			; 0000000cH

; 805  : 	PyModule_AddIntConstant(poModule, "APPLY_MAX_STAMINA",			CItemData::APPLY_MAX_STAMINA);			//   

  010eb	6a 3a		 push	 58			; 0000003aH
  010ed	68 00 00 00 00	 push	 OFFSET ??_C@_0BC@MENAELHN@APPLY_MAX_STAMINA@
  010f2	ff 75 fc	 push	 DWORD PTR _poModule$[ebp]
  010f5	ff 15 00 00 00
	00		 call	 DWORD PTR __imp__PyModule_AddIntConstant
  010fb	83 c4 0c	 add	 esp, 12			; 0000000cH

; 806  : 	PyModule_AddIntConstant(poModule, "APPLY_ATTBONUS_WARRIOR",		CItemData::APPLY_ATT_BONUS_TO_WARRIOR);

  010fe	6a 3b		 push	 59			; 0000003bH
  01100	68 00 00 00 00	 push	 OFFSET ??_C@_0BH@LHKFGIKM@APPLY_ATTBONUS_WARRIOR@
  01105	ff 75 fc	 push	 DWORD PTR _poModule$[ebp]
  01108	ff 15 00 00 00
	00		 call	 DWORD PTR __imp__PyModule_AddIntConstant
  0110e	83 c4 0c	 add	 esp, 12			; 0000000cH

; 807  : 	PyModule_AddIntConstant(poModule, "APPLY_ATTBONUS_ASSASSIN",	CItemData::APPLY_ATT_BONUS_TO_ASSASSIN);

  01111	6a 3c		 push	 60			; 0000003cH
  01113	68 00 00 00 00	 push	 OFFSET ??_C@_0BI@FDLAHFJJ@APPLY_ATTBONUS_ASSASSIN@
  01118	ff 75 fc	 push	 DWORD PTR _poModule$[ebp]
  0111b	ff 15 00 00 00
	00		 call	 DWORD PTR __imp__PyModule_AddIntConstant
  01121	83 c4 0c	 add	 esp, 12			; 0000000cH

; 808  : 	PyModule_AddIntConstant(poModule, "APPLY_ATTBONUS_SURA",		CItemData::APPLY_ATT_BONUS_TO_SURA);

  01124	6a 3d		 push	 61			; 0000003dH
  01126	68 00 00 00 00	 push	 OFFSET ??_C@_0BE@EHJIJMPG@APPLY_ATTBONUS_SURA@
  0112b	ff 75 fc	 push	 DWORD PTR _poModule$[ebp]
  0112e	ff 15 00 00 00
	00		 call	 DWORD PTR __imp__PyModule_AddIntConstant
  01134	83 c4 0c	 add	 esp, 12			; 0000000cH

; 809  : 	PyModule_AddIntConstant(poModule, "APPLY_ATTBONUS_SHAMAN",		CItemData::APPLY_ATT_BONUS_TO_SHAMAN);

  01137	6a 3e		 push	 62			; 0000003eH
  01139	68 00 00 00 00	 push	 OFFSET ??_C@_0BG@HGCDBIBP@APPLY_ATTBONUS_SHAMAN@
  0113e	ff 75 fc	 push	 DWORD PTR _poModule$[ebp]
  01141	ff 15 00 00 00
	00		 call	 DWORD PTR __imp__PyModule_AddIntConstant
  01147	83 c4 0c	 add	 esp, 12			; 0000000cH

; 810  : 	PyModule_AddIntConstant(poModule, "APPLY_ATTBONUS_MONSTER",		CItemData::APPLY_ATT_BONUS_TO_MONSTER);

  0114a	6a 3f		 push	 63			; 0000003fH
  0114c	68 00 00 00 00	 push	 OFFSET ??_C@_0BH@OMHBNPNG@APPLY_ATTBONUS_MONSTER@
  01151	ff 75 fc	 push	 DWORD PTR _poModule$[ebp]
  01154	ff 15 00 00 00
	00		 call	 DWORD PTR __imp__PyModule_AddIntConstant
  0115a	83 c4 0c	 add	 esp, 12			; 0000000cH

; 811  : 	PyModule_AddIntConstant(poModule, "APPLY_MALL_ATTBONUS",		CItemData::APPLY_MALL_ATTBONUS);

  0115d	6a 40		 push	 64			; 00000040H
  0115f	68 00 00 00 00	 push	 OFFSET ??_C@_0BE@INMGAFDB@APPLY_MALL_ATTBONUS@
  01164	ff 75 fc	 push	 DWORD PTR _poModule$[ebp]
  01167	ff 15 00 00 00
	00		 call	 DWORD PTR __imp__PyModule_AddIntConstant
  0116d	83 c4 0c	 add	 esp, 12			; 0000000cH

; 812  : 	PyModule_AddIntConstant(poModule, "APPLY_MALL_DEFBONUS",		CItemData::APPLY_MALL_DEFBONUS);

  01170	6a 41		 push	 65			; 00000041H
  01172	68 00 00 00 00	 push	 OFFSET ??_C@_0BE@IHABPMCM@APPLY_MALL_DEFBONUS@
  01177	ff 75 fc	 push	 DWORD PTR _poModule$[ebp]
  0117a	ff 15 00 00 00
	00		 call	 DWORD PTR __imp__PyModule_AddIntConstant
  01180	83 c4 0c	 add	 esp, 12			; 0000000cH

; 813  : 	PyModule_AddIntConstant(poModule, "APPLY_MALL_EXPBONUS",		CItemData::APPLY_MALL_EXPBONUS);

  01183	6a 42		 push	 66			; 00000042H
  01185	68 00 00 00 00	 push	 OFFSET ??_C@_0BE@HDMKGFGB@APPLY_MALL_EXPBONUS@
  0118a	ff 75 fc	 push	 DWORD PTR _poModule$[ebp]
  0118d	ff 15 00 00 00
	00		 call	 DWORD PTR __imp__PyModule_AddIntConstant
  01193	83 c4 0c	 add	 esp, 12			; 0000000cH

; 814  : 	PyModule_AddIntConstant(poModule, "APPLY_MALL_ITEMBONUS",		CItemData::APPLY_MALL_ITEMBONUS);

  01196	6a 43		 push	 67			; 00000043H
  01198	68 00 00 00 00	 push	 OFFSET ??_C@_0BF@JHCAFPEC@APPLY_MALL_ITEMBONUS@
  0119d	ff 75 fc	 push	 DWORD PTR _poModule$[ebp]
  011a0	ff 15 00 00 00
	00		 call	 DWORD PTR __imp__PyModule_AddIntConstant
  011a6	83 c4 0c	 add	 esp, 12			; 0000000cH

; 815  : 	PyModule_AddIntConstant(poModule, "APPLY_MALL_GOLDBONUS",		CItemData::APPLY_MALL_GOLDBONUS);

  011a9	6a 44		 push	 68			; 00000044H
  011ab	68 00 00 00 00	 push	 OFFSET ??_C@_0BF@CNKLONKF@APPLY_MALL_GOLDBONUS@
  011b0	ff 75 fc	 push	 DWORD PTR _poModule$[ebp]
  011b3	ff 15 00 00 00
	00		 call	 DWORD PTR __imp__PyModule_AddIntConstant
  011b9	83 c4 0c	 add	 esp, 12			; 0000000cH

; 816  : 	PyModule_AddIntConstant(poModule, "APPLY_MAX_HP_PCT",			CItemData::APPLY_MAX_HP_PCT);

  011bc	6a 45		 push	 69			; 00000045H
  011be	68 00 00 00 00	 push	 OFFSET ??_C@_0BB@IOILOHHB@APPLY_MAX_HP_PCT@
  011c3	ff 75 fc	 push	 DWORD PTR _poModule$[ebp]
  011c6	ff 15 00 00 00
	00		 call	 DWORD PTR __imp__PyModule_AddIntConstant
  011cc	83 c4 0c	 add	 esp, 12			; 0000000cH

; 817  : 	PyModule_AddIntConstant(poModule, "APPLY_MAX_SP_PCT",			CItemData::APPLY_MAX_SP_PCT);

  011cf	6a 46		 push	 70			; 00000046H
  011d1	68 00 00 00 00	 push	 OFFSET ??_C@_0BB@OLFCCPEF@APPLY_MAX_SP_PCT@
  011d6	ff 75 fc	 push	 DWORD PTR _poModule$[ebp]
  011d9	ff 15 00 00 00
	00		 call	 DWORD PTR __imp__PyModule_AddIntConstant
  011df	83 c4 0c	 add	 esp, 12			; 0000000cH

; 818  : 	PyModule_AddIntConstant(poModule, "APPLY_SKILL_DAMAGE_BONUS",		CItemData::APPLY_SKILL_DAMAGE_BONUS);

  011e2	6a 47		 push	 71			; 00000047H
  011e4	68 00 00 00 00	 push	 OFFSET ??_C@_0BJ@ILJOEJMP@APPLY_SKILL_DAMAGE_BONUS@
  011e9	ff 75 fc	 push	 DWORD PTR _poModule$[ebp]
  011ec	ff 15 00 00 00
	00		 call	 DWORD PTR __imp__PyModule_AddIntConstant
  011f2	83 c4 0c	 add	 esp, 12			; 0000000cH

; 819  : 	PyModule_AddIntConstant(poModule, "APPLY_NORMAL_HIT_DAMAGE_BONUS",	CItemData::APPLY_NORMAL_HIT_DAMAGE_BONUS);

  011f5	6a 48		 push	 72			; 00000048H
  011f7	68 00 00 00 00	 push	 OFFSET ??_C@_0BO@KJDLNPKH@APPLY_NORMAL_HIT_DAMAGE_BONUS@
  011fc	ff 75 fc	 push	 DWORD PTR _poModule$[ebp]
  011ff	ff 15 00 00 00
	00		 call	 DWORD PTR __imp__PyModule_AddIntConstant
  01205	83 c4 0c	 add	 esp, 12			; 0000000cH

; 820  : 	PyModule_AddIntConstant(poModule, "APPLY_SKILL_DEFEND_BONUS",		CItemData::APPLY_SKILL_DEFEND_BONUS);

  01208	6a 49		 push	 73			; 00000049H
  0120a	68 00 00 00 00	 push	 OFFSET ??_C@_0BJ@MCFLODEL@APPLY_SKILL_DEFEND_BONUS@
  0120f	ff 75 fc	 push	 DWORD PTR _poModule$[ebp]
  01212	ff 15 00 00 00
	00		 call	 DWORD PTR __imp__PyModule_AddIntConstant
  01218	83 c4 0c	 add	 esp, 12			; 0000000cH

; 821  : 	PyModule_AddIntConstant(poModule, "APPLY_NORMAL_HIT_DEFEND_BONUS",	CItemData::APPLY_NORMAL_HIT_DEFEND_BONUS);

  0121b	6a 4a		 push	 74			; 0000004aH
  0121d	68 00 00 00 00	 push	 OFFSET ??_C@_0BO@OAPOHFCD@APPLY_NORMAL_HIT_DEFEND_BONUS@
  01222	ff 75 fc	 push	 DWORD PTR _poModule$[ebp]
  01225	ff 15 00 00 00
	00		 call	 DWORD PTR __imp__PyModule_AddIntConstant
  0122b	83 c4 0c	 add	 esp, 12			; 0000000cH

; 822  : 
; 823  : 	PyModule_AddIntConstant(poModule, "APPLY_PC_BANG_EXP_BONUS",	CItemData::APPLY_PC_BANG_EXP_BONUS);

  0122e	6a 4c		 push	 76			; 0000004cH
  01230	68 00 00 00 00	 push	 OFFSET ??_C@_0BI@MMJMNMDE@APPLY_PC_BANG_EXP_BONUS@
  01235	ff 75 fc	 push	 DWORD PTR _poModule$[ebp]
  01238	ff 15 00 00 00
	00		 call	 DWORD PTR __imp__PyModule_AddIntConstant
  0123e	83 c4 0c	 add	 esp, 12			; 0000000cH

; 824  : 	PyModule_AddIntConstant(poModule, "APPLY_PC_BANG_DROP_BONUS",	CItemData::APPLY_PC_BANG_DROP_BONUS);

  01241	6a 4d		 push	 77			; 0000004dH
  01243	68 00 00 00 00	 push	 OFFSET ??_C@_0BJ@MIHJNNLH@APPLY_PC_BANG_DROP_BONUS@
  01248	ff 75 fc	 push	 DWORD PTR _poModule$[ebp]
  0124b	ff 15 00 00 00
	00		 call	 DWORD PTR __imp__PyModule_AddIntConstant
  01251	83 c4 0c	 add	 esp, 12			; 0000000cH

; 825  : 
; 826  : 	PyModule_AddIntConstant(poModule, "APPLY_RESIST_WARRIOR",	CItemData::APPLY_RESIST_WARRIOR );

  01254	6a 4e		 push	 78			; 0000004eH
  01256	68 00 00 00 00	 push	 OFFSET ??_C@_0BF@DIEIKMOC@APPLY_RESIST_WARRIOR@
  0125b	ff 75 fc	 push	 DWORD PTR _poModule$[ebp]
  0125e	ff 15 00 00 00
	00		 call	 DWORD PTR __imp__PyModule_AddIntConstant
  01264	83 c4 0c	 add	 esp, 12			; 0000000cH

; 827  : 	PyModule_AddIntConstant(poModule, "APPLY_RESIST_ASSASSIN",	CItemData::APPLY_RESIST_ASSASSIN );

  01267	6a 4f		 push	 79			; 0000004fH
  01269	68 00 00 00 00	 push	 OFFSET ??_C@_0BG@MCFLPEMK@APPLY_RESIST_ASSASSIN@
  0126e	ff 75 fc	 push	 DWORD PTR _poModule$[ebp]
  01271	ff 15 00 00 00
	00		 call	 DWORD PTR __imp__PyModule_AddIntConstant
  01277	83 c4 0c	 add	 esp, 12			; 0000000cH

; 828  : 	PyModule_AddIntConstant(poModule, "APPLY_RESIST_SURA",		CItemData::APPLY_RESIST_SURA );

  0127a	6a 50		 push	 80			; 00000050H
  0127c	68 00 00 00 00	 push	 OFFSET ??_C@_0BC@MEEAHCEF@APPLY_RESIST_SURA@
  01281	ff 75 fc	 push	 DWORD PTR _poModule$[ebp]
  01284	ff 15 00 00 00
	00		 call	 DWORD PTR __imp__PyModule_AddIntConstant
  0128a	83 c4 0c	 add	 esp, 12			; 0000000cH

; 829  : 	PyModule_AddIntConstant(poModule, "APPLY_RESIST_SHAMAN",	CItemData::APPLY_RESIST_SHAMAN );

  0128d	6a 51		 push	 81			; 00000051H
  0128f	68 00 00 00 00	 push	 OFFSET ??_C@_0BE@POHJKJMD@APPLY_RESIST_SHAMAN@
  01294	ff 75 fc	 push	 DWORD PTR _poModule$[ebp]
  01297	ff 15 00 00 00
	00		 call	 DWORD PTR __imp__PyModule_AddIntConstant
  0129d	83 c4 0c	 add	 esp, 12			; 0000000cH

; 830  : 	PyModule_AddIntConstant(poModule, "APPLY_ENERGY",	CItemData::APPLY_ENERGY );		// 

  012a0	6a 52		 push	 82			; 00000052H
  012a2	68 00 00 00 00	 push	 OFFSET ??_C@_0N@MOPONLJI@APPLY_ENERGY@
  012a7	ff 75 fc	 push	 DWORD PTR _poModule$[ebp]
  012aa	ff 15 00 00 00
	00		 call	 DWORD PTR __imp__PyModule_AddIntConstant
  012b0	83 c4 0c	 add	 esp, 12			; 0000000cH

; 831  : 	PyModule_AddIntConstant(poModule, "APPLY_COSTUME_ATTR_BONUS",	CItemData::APPLY_COSTUME_ATTR_BONUS );		

  012b3	6a 54		 push	 84			; 00000054H
  012b5	68 00 00 00 00	 push	 OFFSET ??_C@_0BJ@IGOAELFN@APPLY_COSTUME_ATTR_BONUS@
  012ba	ff 75 fc	 push	 DWORD PTR _poModule$[ebp]
  012bd	ff 15 00 00 00
	00		 call	 DWORD PTR __imp__PyModule_AddIntConstant
  012c3	83 c4 0c	 add	 esp, 12			; 0000000cH

; 832  : 
; 833  : 	PyModule_AddIntConstant(poModule, "APPLY_MAGIC_ATTBONUS_PER",	CItemData::APPLY_MAGIC_ATTBONUS_PER );		

  012c6	6a 55		 push	 85			; 00000055H
  012c8	68 00 00 00 00	 push	 OFFSET ??_C@_0BJ@JJJKDKFC@APPLY_MAGIC_ATTBONUS_PER@
  012cd	ff 75 fc	 push	 DWORD PTR _poModule$[ebp]
  012d0	ff 15 00 00 00
	00		 call	 DWORD PTR __imp__PyModule_AddIntConstant
  012d6	83 c4 0c	 add	 esp, 12			; 0000000cH

; 834  : 	PyModule_AddIntConstant(poModule, "APPLY_MELEE_MAGIC_ATTBONUS_PER",	CItemData::APPLY_MELEE_MAGIC_ATTBONUS_PER );		

  012d9	6a 56		 push	 86			; 00000056H
  012db	68 00 00 00 00	 push	 OFFSET ??_C@_0BP@MGKGKJGA@APPLY_MELEE_MAGIC_ATTBONUS_PER@
  012e0	ff 75 fc	 push	 DWORD PTR _poModule$[ebp]
  012e3	ff 15 00 00 00
	00		 call	 DWORD PTR __imp__PyModule_AddIntConstant
  012e9	83 c4 0c	 add	 esp, 12			; 0000000cH

; 835  : 	PyModule_AddIntConstant(poModule, "APPLY_RESIST_ICE",	CItemData::APPLY_RESIST_ICE );		

  012ec	6a 57		 push	 87			; 00000057H
  012ee	68 00 00 00 00	 push	 OFFSET ??_C@_0BB@CGPGAFA@APPLY_RESIST_ICE@
  012f3	ff 75 fc	 push	 DWORD PTR _poModule$[ebp]
  012f6	ff 15 00 00 00
	00		 call	 DWORD PTR __imp__PyModule_AddIntConstant
  012fc	83 c4 0c	 add	 esp, 12			; 0000000cH

; 836  : 	PyModule_AddIntConstant(poModule, "APPLY_RESIST_EARTH",	CItemData::APPLY_RESIST_EARTH );		

  012ff	6a 58		 push	 88			; 00000058H
  01301	68 00 00 00 00	 push	 OFFSET ??_C@_0BD@GENAIBDP@APPLY_RESIST_EARTH@
  01306	ff 75 fc	 push	 DWORD PTR _poModule$[ebp]
  01309	ff 15 00 00 00
	00		 call	 DWORD PTR __imp__PyModule_AddIntConstant
  0130f	83 c4 0c	 add	 esp, 12			; 0000000cH

; 837  : 	PyModule_AddIntConstant(poModule, "APPLY_RESIST_DARK",	CItemData::APPLY_RESIST_DARK );		

  01312	6a 59		 push	 89			; 00000059H
  01314	68 00 00 00 00	 push	 OFFSET ??_C@_0BC@DDBEBBJF@APPLY_RESIST_DARK@
  01319	ff 75 fc	 push	 DWORD PTR _poModule$[ebp]
  0131c	ff 15 00 00 00
	00		 call	 DWORD PTR __imp__PyModule_AddIntConstant
  01322	83 c4 0c	 add	 esp, 12			; 0000000cH

; 838  : 	PyModule_AddIntConstant(poModule, "APPLY_ANTI_CRITICAL_PCT",	CItemData::APPLY_ANTI_CRITICAL_PCT );		

  01325	6a 5a		 push	 90			; 0000005aH
  01327	68 00 00 00 00	 push	 OFFSET ??_C@_0BI@KIMFHHIO@APPLY_ANTI_CRITICAL_PCT@
  0132c	ff 75 fc	 push	 DWORD PTR _poModule$[ebp]
  0132f	ff 15 00 00 00
	00		 call	 DWORD PTR __imp__PyModule_AddIntConstant
  01335	83 c4 0c	 add	 esp, 12			; 0000000cH

; 839  : 	PyModule_AddIntConstant(poModule, "APPLY_ANTI_PENETRATE_PCT",	CItemData::APPLY_ANTI_PENETRATE_PCT );		

  01338	6a 5b		 push	 91			; 0000005bH
  0133a	68 00 00 00 00	 push	 OFFSET ??_C@_0BJ@FKDKMNNK@APPLY_ANTI_PENETRATE_PCT@
  0133f	ff 75 fc	 push	 DWORD PTR _poModule$[ebp]
  01342	ff 15 00 00 00
	00		 call	 DWORD PTR __imp__PyModule_AddIntConstant
  01348	83 c4 0c	 add	 esp, 12			; 0000000cH

; 840  : }

  0134b	c9		 leave
  0134c	c3		 ret	 0
?initItem@@YAXXZ ENDP					; initItem
_TEXT	ENDS
; Function compile flags: /Odspy
;	COMDAT ??1?$_Compressed_pair@V?$allocator@D@std@@V?$_String_val@U?$_Simple_types@D@std@@@2@$00@std@@QAE@XZ
_TEXT	SEGMENT
_this$ = -4						; size = 4
??1?$_Compressed_pair@V?$allocator@D@std@@V?$_String_val@U?$_Simple_types@D@std@@@2@$00@std@@QAE@XZ PROC ; std::_Compressed_pair<std::allocator<char>,std::_String_val<std::_Simple_types<char> >,1>::~_Compressed_pair<std::allocator<char>,std::_String_val<std::_Simple_types<char> >,1>, COMDAT
; _this$ = ecx
  00000	55		 push	 ebp
  00001	8b ec		 mov	 ebp, esp
  00003	51		 push	 ecx
  00004	89 4d fc	 mov	 DWORD PTR _this$[ebp], ecx
  00007	c9		 leave
  00008	c3		 ret	 0
??1?$_Compressed_pair@V?$allocator@D@std@@V?$_String_val@U?$_Simple_types@D@std@@@2@$00@std@@QAE@XZ ENDP ; std::_Compressed_pair<std::allocator<char>,std::_String_val<std::_Simple_types<char> >,1>::~_Compressed_pair<std::allocator<char>,std::_String_val<std::_Simple_types<char> >,1>
_TEXT	ENDS
; Function compile flags: /Odspy
; File C:\Program Files (x86)\Microsoft Visual Studio\2019\Community\VC\Tools\MSVC\14.28.29333\include\xstring
; File C:\Program Files (x86)\Microsoft Visual Studio\2019\Community\VC\Tools\MSVC\14.28.29333\include\xmemory
; File C:\Program Files (x86)\Microsoft Visual Studio\2019\Community\VC\Tools\MSVC\14.28.29333\include\xstring
; File C:\Program Files (x86)\Microsoft Visual Studio\2019\Community\VC\Tools\MSVC\14.28.29333\include\xmemory
; File C:\Program Files (x86)\Microsoft Visual Studio\2019\Community\VC\Tools\MSVC\14.28.29333\include\xstring
;	COMDAT ?_Tidy_deallocate@?$basic_string@DU?$char_traits@D@std@@V?$allocator@D@2@@std@@AAEXXZ
_TEXT	SEGMENT
__Al$1 = -28						; size = 4
__Ptr$2 = -24						; size = 4
__Count$ = -20						; size = 4
$T3 = -16						; size = 4
tv68 = -12						; size = 4
_this$ = -8						; size = 4
$T4 = -2						; size = 1
$T5 = -1						; size = 1
?_Tidy_deallocate@?$basic_string@DU?$char_traits@D@std@@V?$allocator@D@2@@std@@AAEXXZ PROC ; std::basic_string<char,std::char_traits<char>,std::allocator<char> >::_Tidy_deallocate, COMDAT
; _this$ = ecx

; 4383 :     void _Tidy_deallocate() noexcept { // initialize buffer, deallocating any storage

  00000	55		 push	 ebp
  00001	8b ec		 mov	 ebp, esp
  00003	83 ec 1c	 sub	 esp, 28			; 0000001cH
  00006	89 4d f8	 mov	 DWORD PTR _this$[ebp], ecx

; 2227 :         return _BUF_SIZE <= _Myres;

  00009	8b 45 f8	 mov	 eax, DWORD PTR _this$[ebp]
  0000c	83 78 14 10	 cmp	 DWORD PTR [eax+20], 16	; 00000010H
  00010	72 09		 jb	 SHORT $LN9@Tidy_deall
  00012	c7 45 f4 01 00
	00 00		 mov	 DWORD PTR tv68[ebp], 1
  00019	eb 04		 jmp	 SHORT $LN10@Tidy_deall
$LN9@Tidy_deall:
  0001b	83 65 f4 00	 and	 DWORD PTR tv68[ebp], 0
$LN10@Tidy_deall:
  0001f	8a 45 f4	 mov	 al, BYTE PTR tv68[ebp]
  00022	88 45 ff	 mov	 BYTE PTR $T5[ebp], al

; 4384 :         _Mypair._Myval2._Orphan_all();
; 4385 :         if (_Mypair._Myval2._Large_string_engaged()) {

  00025	0f b6 45 ff	 movzx	 eax, BYTE PTR $T5[ebp]
  00029	85 c0		 test	 eax, eax
  0002b	74 34		 je	 SHORT $LN2@Tidy_deall

; 4386 :             const pointer _Ptr = _Mypair._Myval2._Bx._Ptr;

  0002d	8b 45 f8	 mov	 eax, DWORD PTR _this$[ebp]
  00030	8b 00		 mov	 eax, DWORD PTR [eax]
  00032	89 45 e8	 mov	 DWORD PTR __Ptr$2[ebp], eax

; 4409 :         return _Mypair._Get_first();

  00035	8b 45 f8	 mov	 eax, DWORD PTR _this$[ebp]
; File C:\Program Files (x86)\Microsoft Visual Studio\2019\Community\VC\Tools\MSVC\14.28.29333\include\xmemory

; 1347 :         return *this;

  00038	89 45 f0	 mov	 DWORD PTR $T3[ebp], eax
; File C:\Program Files (x86)\Microsoft Visual Studio\2019\Community\VC\Tools\MSVC\14.28.29333\include\xstring

; 4409 :         return _Mypair._Get_first();

  0003b	8b 45 f0	 mov	 eax, DWORD PTR $T3[ebp]
  0003e	89 45 e4	 mov	 DWORD PTR __Al$1[ebp], eax

; 4387 :             auto& _Al          = _Getal();
; 4388 :             _Destroy_in_place(_Mypair._Myval2._Bx._Ptr);

  00041	ff 75 f8	 push	 DWORD PTR _this$[ebp]
  00044	e8 00 00 00 00	 call	 ??$_Destroy_in_place@PAD@std@@YAXAAPAD@Z ; std::_Destroy_in_place<char *>
  00049	59		 pop	 ecx

; 4389 :             _Al.deallocate(_Ptr, _Mypair._Myval2._Myres + 1);

  0004a	8b 45 f8	 mov	 eax, DWORD PTR _this$[ebp]
  0004d	8b 40 14	 mov	 eax, DWORD PTR [eax+20]
  00050	40		 inc	 eax
  00051	89 45 ec	 mov	 DWORD PTR __Count$[ebp], eax
; File C:\Program Files (x86)\Microsoft Visual Studio\2019\Community\VC\Tools\MSVC\14.28.29333\include\xmemory

; 810  :         _Deallocate<_New_alignof<_Ty>>(_Ptr, sizeof(_Ty) * _Count);

  00054	ff 75 ec	 push	 DWORD PTR __Count$[ebp]
  00057	ff 75 e8	 push	 DWORD PTR __Ptr$2[ebp]
  0005a	e8 00 00 00 00	 call	 ??$_Deallocate@$07$0A@@std@@YAXPAXI@Z ; std::_Deallocate<8,0>
  0005f	59		 pop	 ecx
  00060	59		 pop	 ecx
$LN2@Tidy_deall:
; File C:\Program Files (x86)\Microsoft Visual Studio\2019\Community\VC\Tools\MSVC\14.28.29333\include\xstring

; 4392 :         _Mypair._Myval2._Mysize = 0;

  00061	8b 45 f8	 mov	 eax, DWORD PTR _this$[ebp]
  00064	83 60 10 00	 and	 DWORD PTR [eax+16], 0

; 4393 :         _Mypair._Myval2._Myres  = _BUF_SIZE - 1;

  00068	8b 45 f8	 mov	 eax, DWORD PTR _this$[ebp]
  0006b	c7 40 14 0f 00
	00 00		 mov	 DWORD PTR [eax+20], 15	; 0000000fH

; 4394 :         // the _Traits::assign is last so the codegen doesn't think the char write can alias this
; 4395 :         _Traits::assign(_Mypair._Myval2._Bx._Buf[0], _Elem());

  00072	c6 45 fe 00	 mov	 BYTE PTR $T4[ebp], 0
  00076	33 c0		 xor	 eax, eax
  00078	40		 inc	 eax
  00079	6b c0 00	 imul	 eax, eax, 0

; 428  :         _Left = _Right;

  0007c	8b 4d f8	 mov	 ecx, DWORD PTR _this$[ebp]
  0007f	8a 55 fe	 mov	 dl, BYTE PTR $T4[ebp]
  00082	88 14 01	 mov	 BYTE PTR [ecx+eax], dl

; 4396 :     }

  00085	c9		 leave
  00086	c3		 ret	 0
?_Tidy_deallocate@?$basic_string@DU?$char_traits@D@std@@V?$allocator@D@2@@std@@AAEXXZ ENDP ; std::basic_string<char,std::char_traits<char>,std::allocator<char> >::_Tidy_deallocate
_TEXT	ENDS
; Function compile flags: /Odspy
; File C:\Program Files (x86)\Microsoft Visual Studio\2019\Community\VC\Tools\MSVC\14.28.29333\include\xstring
;	COMDAT ?_Tidy_init@?$basic_string@DU?$char_traits@D@std@@V?$allocator@D@2@@std@@AAEXXZ
_TEXT	SEGMENT
_this$ = -8						; size = 4
$T1 = -1						; size = 1
?_Tidy_init@?$basic_string@DU?$char_traits@D@std@@V?$allocator@D@2@@std@@AAEXXZ PROC ; std::basic_string<char,std::char_traits<char>,std::allocator<char> >::_Tidy_init, COMDAT
; _this$ = ecx

; 4376 :     void _Tidy_init() noexcept { // initialize basic_string data members

  00000	55		 push	 ebp
  00001	8b ec		 mov	 ebp, esp
  00003	51		 push	 ecx
  00004	51		 push	 ecx
  00005	89 4d f8	 mov	 DWORD PTR _this$[ebp], ecx

; 4377 :         _Mypair._Myval2._Mysize = 0;

  00008	8b 45 f8	 mov	 eax, DWORD PTR _this$[ebp]
  0000b	83 60 10 00	 and	 DWORD PTR [eax+16], 0

; 4378 :         _Mypair._Myval2._Myres  = _BUF_SIZE - 1;

  0000f	8b 45 f8	 mov	 eax, DWORD PTR _this$[ebp]
  00012	c7 40 14 0f 00
	00 00		 mov	 DWORD PTR [eax+20], 15	; 0000000fH

; 4379 :         // the _Traits::assign is last so the codegen doesn't think the char write can alias this
; 4380 :         _Traits::assign(_Mypair._Myval2._Bx._Buf[0], _Elem());

  00019	c6 45 ff 00	 mov	 BYTE PTR $T1[ebp], 0
  0001d	33 c0		 xor	 eax, eax
  0001f	40		 inc	 eax
  00020	6b c0 00	 imul	 eax, eax, 0

; 428  :         _Left = _Right;

  00023	8b 4d f8	 mov	 ecx, DWORD PTR _this$[ebp]
  00026	8a 55 ff	 mov	 dl, BYTE PTR $T1[ebp]
  00029	88 14 01	 mov	 BYTE PTR [ecx+eax], dl

; 4381 :     }

  0002c	c9		 leave
  0002d	c3		 ret	 0
?_Tidy_init@?$basic_string@DU?$char_traits@D@std@@V?$allocator@D@2@@std@@AAEXXZ ENDP ; std::basic_string<char,std::char_traits<char>,std::allocator<char> >::_Tidy_init
_TEXT	ENDS
; Function compile flags: /Odspy
; File C:\Program Files (x86)\Microsoft Visual Studio\2019\Community\VC\Tools\MSVC\14.28.29333\include\xstring
; File C:\Program Files (x86)\Microsoft Visual Studio\2019\Community\VC\Tools\MSVC\14.28.29333\include\utility
; File C:\Program Files (x86)\Microsoft Visual Studio\2019\Community\VC\Tools\MSVC\14.28.29333\include\xstring
;	COMDAT ?_Calculate_growth@?$basic_string@DU?$char_traits@D@std@@V?$allocator@D@2@@std@@ABEII@Z
_TEXT	SEGMENT
$T1 = -36						; size = 4
$T2 = -32						; size = 4
tv93 = -28						; size = 4
$T3 = -24						; size = 4
_this$ = -20						; size = 4
$T4 = -16						; size = 4
__Masked$5 = -12					; size = 4
__Old$ = -8						; size = 4
__Max$ = -4						; size = 4
__Requested$ = 8					; size = 4
?_Calculate_growth@?$basic_string@DU?$char_traits@D@std@@V?$allocator@D@2@@std@@ABEII@Z PROC ; std::basic_string<char,std::char_traits<char>,std::allocator<char> >::_Calculate_growth, COMDAT
; _this$ = ecx

; 4297 :     _NODISCARD size_type _Calculate_growth(const size_type _Requested) const noexcept {

  00000	55		 push	 ebp
  00001	8b ec		 mov	 ebp, esp
  00003	83 ec 24	 sub	 esp, 36			; 00000024H
  00006	89 4d ec	 mov	 DWORD PTR _this$[ebp], ecx

; 4298 :         return _Calculate_growth(_Requested, _Mypair._Myval2._Myres, max_size());

  00009	8b 4d ec	 mov	 ecx, DWORD PTR _this$[ebp]
  0000c	e8 00 00 00 00	 call	 ?max_size@?$basic_string@DU?$char_traits@D@std@@V?$allocator@D@2@@std@@QBEIXZ ; std::basic_string<char,std::char_traits<char>,std::allocator<char> >::max_size
  00011	89 45 fc	 mov	 DWORD PTR __Max$[ebp], eax
  00014	8b 45 ec	 mov	 eax, DWORD PTR _this$[ebp]
  00017	8b 40 14	 mov	 eax, DWORD PTR [eax+20]
  0001a	89 45 f8	 mov	 DWORD PTR __Old$[ebp], eax

; 4285 :         const size_type _Masked = _Requested | _ALLOC_MASK;

  0001d	8b 45 08	 mov	 eax, DWORD PTR __Requested$[ebp]
  00020	83 c8 0f	 or	 eax, 15			; 0000000fH
  00023	89 45 f4	 mov	 DWORD PTR __Masked$5[ebp], eax

; 4286 :         if (_Masked > _Max) { // the mask overflows, settle for max_size()

  00026	8b 45 f4	 mov	 eax, DWORD PTR __Masked$5[ebp]
  00029	3b 45 fc	 cmp	 eax, DWORD PTR __Max$[ebp]
  0002c	76 08		 jbe	 SHORT $LN29@Calculate_

; 4287 :             return _Max;

  0002e	8b 45 fc	 mov	 eax, DWORD PTR __Max$[ebp]
  00031	89 45 f0	 mov	 DWORD PTR $T4[ebp], eax
  00034	eb 4c		 jmp	 SHORT $LN31@Calculate_
$LN29@Calculate_:

; 4288 :         }
; 4289 : 
; 4290 :         if (_Old > _Max - _Old / 2) { // similarly, geometric overflows

  00036	8b 45 f8	 mov	 eax, DWORD PTR __Old$[ebp]
  00039	d1 e8		 shr	 eax, 1
  0003b	8b 4d fc	 mov	 ecx, DWORD PTR __Max$[ebp]
  0003e	2b c8		 sub	 ecx, eax
  00040	39 4d f8	 cmp	 DWORD PTR __Old$[ebp], ecx
  00043	76 08		 jbe	 SHORT $LN30@Calculate_

; 4291 :             return _Max;

  00045	8b 45 fc	 mov	 eax, DWORD PTR __Max$[ebp]
  00048	89 45 f0	 mov	 DWORD PTR $T4[ebp], eax
  0004b	eb 35		 jmp	 SHORT $LN31@Calculate_
$LN30@Calculate_:

; 4294 :         return (_STD max)(_Masked, _Old + _Old / 2);

  0004d	8b 45 f8	 mov	 eax, DWORD PTR __Old$[ebp]
  00050	d1 e8		 shr	 eax, 1
  00052	03 45 f8	 add	 eax, DWORD PTR __Old$[ebp]
  00055	89 45 e8	 mov	 DWORD PTR $T3[ebp], eax
; File C:\Program Files (x86)\Microsoft Visual Studio\2019\Community\VC\Tools\MSVC\14.28.29333\include\utility

; 44   :     return _Left < _Right ? _Right : _Left;

  00058	8b 45 f4	 mov	 eax, DWORD PTR __Masked$5[ebp]
  0005b	3b 45 e8	 cmp	 eax, DWORD PTR $T3[ebp]
  0005e	73 08		 jae	 SHORT $LN35@Calculate_
  00060	8d 45 e8	 lea	 eax, DWORD PTR $T3[ebp]
  00063	89 45 e4	 mov	 DWORD PTR tv93[ebp], eax
  00066	eb 06		 jmp	 SHORT $LN36@Calculate_
$LN35@Calculate_:
  00068	8d 45 f4	 lea	 eax, DWORD PTR __Masked$5[ebp]
  0006b	89 45 e4	 mov	 DWORD PTR tv93[ebp], eax
$LN36@Calculate_:
  0006e	8b 45 e4	 mov	 eax, DWORD PTR tv93[ebp]
  00071	89 45 e0	 mov	 DWORD PTR $T2[ebp], eax
  00074	8b 45 e0	 mov	 eax, DWORD PTR $T2[ebp]
  00077	89 45 dc	 mov	 DWORD PTR $T1[ebp], eax
; File C:\Program Files (x86)\Microsoft Visual Studio\2019\Community\VC\Tools\MSVC\14.28.29333\include\xstring

; 4294 :         return (_STD max)(_Masked, _Old + _Old / 2);

  0007a	8b 45 dc	 mov	 eax, DWORD PTR $T1[ebp]
  0007d	8b 00		 mov	 eax, DWORD PTR [eax]
  0007f	89 45 f0	 mov	 DWORD PTR $T4[ebp], eax
$LN31@Calculate_:

; 4298 :         return _Calculate_growth(_Requested, _Mypair._Myval2._Myres, max_size());

  00082	8b 45 f0	 mov	 eax, DWORD PTR $T4[ebp]

; 4299 :     }

  00085	c9		 leave
  00086	c2 04 00	 ret	 4
?_Calculate_growth@?$basic_string@DU?$char_traits@D@std@@V?$allocator@D@2@@std@@ABEII@Z ENDP ; std::basic_string<char,std::char_traits<char>,std::allocator<char> >::_Calculate_growth
_TEXT	ENDS
; Function compile flags: /Odspy
; File C:\Program Files (x86)\Microsoft Visual Studio\2019\Community\VC\Tools\MSVC\14.28.29333\include\xstring
; File C:\Program Files (x86)\Microsoft Visual Studio\2019\Community\VC\Tools\MSVC\14.28.29333\include\xmemory
; File C:\Program Files (x86)\Microsoft Visual Studio\2019\Community\VC\Tools\MSVC\14.28.29333\include\xstring
; File C:\Program Files (x86)\Microsoft Visual Studio\2019\Community\VC\Tools\MSVC\14.28.29333\include\xmemory
; File C:\Program Files (x86)\Microsoft Visual Studio\2019\Community\VC\Tools\MSVC\14.28.29333\include\xstring
; File C:\Program Files (x86)\Microsoft Visual Studio\2019\Community\VC\Tools\MSVC\14.28.29333\include\utility
; File C:\Program Files (x86)\Microsoft Visual Studio\2019\Community\VC\Tools\MSVC\14.28.29333\include\xstring
; File C:\Program Files (x86)\Microsoft Visual Studio\2019\Community\VC\Tools\MSVC\14.28.29333\include\limits
; File C:\Program Files (x86)\Microsoft Visual Studio\2019\Community\VC\Tools\MSVC\14.28.29333\include\xstring
; File C:\Program Files (x86)\Microsoft Visual Studio\2019\Community\VC\Tools\MSVC\14.28.29333\include\utility
; File C:\Program Files (x86)\Microsoft Visual Studio\2019\Community\VC\Tools\MSVC\14.28.29333\include\xstring
;	COMDAT ?max_size@?$basic_string@DU?$char_traits@D@std@@V?$allocator@D@2@@std@@QBEIXZ
_TEXT	SEGMENT
$T1 = -60						; size = 4
$T2 = -56						; size = 4
$T3 = -52						; size = 4
$T4 = -48						; size = 4
__Storage_max$ = -44					; size = 4
$T5 = -40						; size = 4
$T6 = -36						; size = 4
$T7 = -32						; size = 4
_this$ = -28						; size = 4
tv70 = -24						; size = 4
$T8 = -20						; size = 4
$T9 = -16						; size = 4
tv67 = -12						; size = 4
__Alloc_max$ = -8					; size = 4
$T10 = -4						; size = 4
?max_size@?$basic_string@DU?$char_traits@D@std@@V?$allocator@D@2@@std@@QBEIXZ PROC ; std::basic_string<char,std::char_traits<char>,std::allocator<char> >::max_size, COMDAT
; _this$ = ecx

; 3773 :     _NODISCARD size_type max_size() const noexcept {

  00000	55		 push	 ebp
  00001	8b ec		 mov	 ebp, esp
  00003	83 ec 3c	 sub	 esp, 60			; 0000003cH
  00006	89 4d e4	 mov	 DWORD PTR _this$[ebp], ecx

; 4413 :         return _Mypair._Get_first();

  00009	8b 45 e4	 mov	 eax, DWORD PTR _this$[ebp]
; File C:\Program Files (x86)\Microsoft Visual Studio\2019\Community\VC\Tools\MSVC\14.28.29333\include\xmemory

; 1351 :         return *this;

  0000c	89 45 e0	 mov	 DWORD PTR $T7[ebp], eax
; File C:\Program Files (x86)\Microsoft Visual Studio\2019\Community\VC\Tools\MSVC\14.28.29333\include\xstring

; 4413 :         return _Mypair._Get_first();

  0000f	8b 45 e0	 mov	 eax, DWORD PTR $T7[ebp]
  00012	89 45 c4	 mov	 DWORD PTR $T1[ebp], eax
; File C:\Program Files (x86)\Microsoft Visual Studio\2019\Community\VC\Tools\MSVC\14.28.29333\include\xmemory

; 710  :         return static_cast<size_t>(-1) / sizeof(value_type);

  00015	83 4d f8 ff	 or	 DWORD PTR __Alloc_max$[ebp], -1
; File C:\Program Files (x86)\Microsoft Visual Studio\2019\Community\VC\Tools\MSVC\14.28.29333\include\xstring

; 3775 :         const size_type _Storage_max = // can always store small string

  00019	c7 45 fc 10 00
	00 00		 mov	 DWORD PTR $T10[ebp], 16	; 00000010H
; File C:\Program Files (x86)\Microsoft Visual Studio\2019\Community\VC\Tools\MSVC\14.28.29333\include\utility

; 44   :     return _Left < _Right ? _Right : _Left;

  00020	8b 45 f8	 mov	 eax, DWORD PTR __Alloc_max$[ebp]
  00023	3b 45 fc	 cmp	 eax, DWORD PTR $T10[ebp]
  00026	73 08		 jae	 SHORT $LN14@max_size
  00028	8d 45 fc	 lea	 eax, DWORD PTR $T10[ebp]
  0002b	89 45 f4	 mov	 DWORD PTR tv67[ebp], eax
  0002e	eb 06		 jmp	 SHORT $LN15@max_size
$LN14@max_size:
  00030	8d 45 f8	 lea	 eax, DWORD PTR __Alloc_max$[ebp]
  00033	89 45 f4	 mov	 DWORD PTR tv67[ebp], eax
$LN15@max_size:
  00036	8b 45 f4	 mov	 eax, DWORD PTR tv67[ebp]
  00039	89 45 dc	 mov	 DWORD PTR $T6[ebp], eax
  0003c	8b 45 dc	 mov	 eax, DWORD PTR $T6[ebp]
  0003f	89 45 d8	 mov	 DWORD PTR $T5[ebp], eax
; File C:\Program Files (x86)\Microsoft Visual Studio\2019\Community\VC\Tools\MSVC\14.28.29333\include\xstring

; 3775 :         const size_type _Storage_max = // can always store small string

  00042	8b 45 d8	 mov	 eax, DWORD PTR $T5[ebp]
  00045	8b 00		 mov	 eax, DWORD PTR [eax]
  00047	89 45 d4	 mov	 DWORD PTR __Storage_max$[ebp], eax

; 3777 :         return (_STD min)(static_cast<size_type>((numeric_limits<difference_type>::max)()),

  0004a	8b 45 d4	 mov	 eax, DWORD PTR __Storage_max$[ebp]
  0004d	48		 dec	 eax
  0004e	89 45 f0	 mov	 DWORD PTR $T9[ebp], eax
; File C:\Program Files (x86)\Microsoft Visual Studio\2019\Community\VC\Tools\MSVC\14.28.29333\include\limits

; 557  :         return INT_MAX;

  00051	c7 45 d0 ff ff
	ff 7f		 mov	 DWORD PTR $T4[ebp], 2147483647 ; 7fffffffH
; File C:\Program Files (x86)\Microsoft Visual Studio\2019\Community\VC\Tools\MSVC\14.28.29333\include\xstring

; 3777 :         return (_STD min)(static_cast<size_type>((numeric_limits<difference_type>::max)()),

  00058	8b 45 d0	 mov	 eax, DWORD PTR $T4[ebp]
  0005b	89 45 ec	 mov	 DWORD PTR $T8[ebp], eax
; File C:\Program Files (x86)\Microsoft Visual Studio\2019\Community\VC\Tools\MSVC\14.28.29333\include\utility

; 68   :     return _Right < _Left ? _Right : _Left;

  0005e	8b 45 f0	 mov	 eax, DWORD PTR $T9[ebp]
  00061	3b 45 ec	 cmp	 eax, DWORD PTR $T8[ebp]
  00064	73 08		 jae	 SHORT $LN22@max_size
  00066	8d 45 f0	 lea	 eax, DWORD PTR $T9[ebp]
  00069	89 45 e8	 mov	 DWORD PTR tv70[ebp], eax
  0006c	eb 06		 jmp	 SHORT $LN23@max_size
$LN22@max_size:
  0006e	8d 45 ec	 lea	 eax, DWORD PTR $T8[ebp]
  00071	89 45 e8	 mov	 DWORD PTR tv70[ebp], eax
$LN23@max_size:
  00074	8b 45 e8	 mov	 eax, DWORD PTR tv70[ebp]
  00077	89 45 cc	 mov	 DWORD PTR $T3[ebp], eax
  0007a	8b 45 cc	 mov	 eax, DWORD PTR $T3[ebp]
  0007d	89 45 c8	 mov	 DWORD PTR $T2[ebp], eax
; File C:\Program Files (x86)\Microsoft Visual Studio\2019\Community\VC\Tools\MSVC\14.28.29333\include\xstring

; 3777 :         return (_STD min)(static_cast<size_type>((numeric_limits<difference_type>::max)()),

  00080	8b 45 c8	 mov	 eax, DWORD PTR $T2[ebp]
  00083	8b 00		 mov	 eax, DWORD PTR [eax]

; 3778 :             _Storage_max - 1 // -1 is for null terminator and/or npos
; 3779 :         );
; 3780 :     }

  00085	c9		 leave
  00086	c3		 ret	 0
?max_size@?$basic_string@DU?$char_traits@D@std@@V?$allocator@D@2@@std@@QBEIXZ ENDP ; std::basic_string<char,std::char_traits<char>,std::allocator<char> >::max_size
_TEXT	ENDS
; Function compile flags: /Odspy
; File C:\Program Files (x86)\Microsoft Visual Studio\2019\Community\VC\Tools\MSVC\14.28.29333\include\xstring
;	COMDAT ?assign@?$basic_string@DU?$char_traits@D@std@@V?$allocator@D@2@@std@@QAEAAV12@QBDI@Z
_TEXT	SEGMENT
$T1 = -16						; size = 1
__Old_ptr$2 = -12					; size = 4
_this$ = -8						; size = 4
$T3 = -1						; size = 1
__Ptr$ = 8						; size = 4
__Count$ = 12						; size = 4
?assign@?$basic_string@DU?$char_traits@D@std@@V?$allocator@D@2@@std@@QAEAAV12@QBDI@Z PROC ; std::basic_string<char,std::char_traits<char>,std::allocator<char> >::assign, COMDAT
; _this$ = ecx

; 3042 :     basic_string& assign(_In_reads_(_Count) const _Elem* const _Ptr, _CRT_GUARDOVERFLOW const size_type _Count) {

  00000	55		 push	 ebp
  00001	8b ec		 mov	 ebp, esp
  00003	83 ec 10	 sub	 esp, 16			; 00000010H
  00006	89 4d f8	 mov	 DWORD PTR _this$[ebp], ecx

; 3043 :         // assign [_Ptr, _Ptr + _Count)
; 3044 :         if (_Count <= _Mypair._Myval2._Myres) {

  00009	8b 45 f8	 mov	 eax, DWORD PTR _this$[ebp]
  0000c	8b 4d 0c	 mov	 ecx, DWORD PTR __Count$[ebp]
  0000f	3b 48 14	 cmp	 ecx, DWORD PTR [eax+20]
  00012	77 39		 ja	 SHORT $LN2@assign

; 3045 :             _Elem* const _Old_ptr   = _Mypair._Myval2._Myptr();

  00014	8b 4d f8	 mov	 ecx, DWORD PTR _this$[ebp]
  00017	e8 00 00 00 00	 call	 ?_Myptr@?$_String_val@U?$_Simple_types@D@std@@@std@@QAEPADXZ ; std::_String_val<std::_Simple_types<char> >::_Myptr
  0001c	89 45 f4	 mov	 DWORD PTR __Old_ptr$2[ebp], eax

; 3046 :             _Mypair._Myval2._Mysize = _Count;

  0001f	8b 45 f8	 mov	 eax, DWORD PTR _this$[ebp]
  00022	8b 4d 0c	 mov	 ecx, DWORD PTR __Count$[ebp]
  00025	89 48 10	 mov	 DWORD PTR [eax+16], ecx

; 119  :         _CSTD memmove(_First1, _First2, _Count * sizeof(_Elem));

  00028	ff 75 0c	 push	 DWORD PTR __Count$[ebp]
  0002b	ff 75 08	 push	 DWORD PTR __Ptr$[ebp]
  0002e	ff 75 f4	 push	 DWORD PTR __Old_ptr$2[ebp]
  00031	e8 00 00 00 00	 call	 _memmove
  00036	83 c4 0c	 add	 esp, 12			; 0000000cH

; 3047 :             _Traits::move(_Old_ptr, _Ptr, _Count);
; 3048 :             _Traits::assign(_Old_ptr[_Count], _Elem());

  00039	c6 45 ff 00	 mov	 BYTE PTR $T3[ebp], 0

; 428  :         _Left = _Right;

  0003d	8b 45 f4	 mov	 eax, DWORD PTR __Old_ptr$2[ebp]
  00040	03 45 0c	 add	 eax, DWORD PTR __Count$[ebp]
  00043	8a 4d ff	 mov	 cl, BYTE PTR $T3[ebp]
  00046	88 08		 mov	 BYTE PTR [eax], cl

; 3049 :             return *this;

  00048	8b 45 f8	 mov	 eax, DWORD PTR _this$[ebp]
  0004b	eb 16		 jmp	 SHORT $LN1@assign
$LN2@assign:

; 3050 :         }
; 3051 : 
; 3052 :         return _Reallocate_for(

  0004d	33 c0		 xor	 eax, eax
  0004f	88 45 f0	 mov	 BYTE PTR $T1[ebp], al
  00052	ff 75 08	 push	 DWORD PTR __Ptr$[ebp]
  00055	ff 75 f0	 push	 DWORD PTR $T1[ebp]
  00058	ff 75 0c	 push	 DWORD PTR __Count$[ebp]
  0005b	8b 4d f8	 mov	 ecx, DWORD PTR _this$[ebp]
  0005e	e8 00 00 00 00	 call	 ??$_Reallocate_for@V<lambda_9366063389c5f42a00a5088cf24e69de>@@PBD@?$basic_string@DU?$char_traits@D@std@@V?$allocator@D@2@@std@@AAEAAV01@IV<lambda_9366063389c5f42a00a5088cf24e69de>@@PBD@Z ; std::basic_string<char,std::char_traits<char>,std::allocator<char> >::_Reallocate_for<<lambda_9366063389c5f42a00a5088cf24e69de>,char const *>
$LN1@assign:

; 3053 :             _Count,
; 3054 :             [](_Elem* const _New_ptr, const size_type _Count, const _Elem* const _Ptr) {
; 3055 :                 _Traits::copy(_New_ptr, _Ptr, _Count);
; 3056 :                 _Traits::assign(_New_ptr[_Count], _Elem());
; 3057 :             },
; 3058 :             _Ptr);
; 3059 :     }

  00063	c9		 leave
  00064	c2 08 00	 ret	 8
?assign@?$basic_string@DU?$char_traits@D@std@@V?$allocator@D@2@@std@@QAEAAV12@QBDI@Z ENDP ; std::basic_string<char,std::char_traits<char>,std::allocator<char> >::assign
_TEXT	ENDS
; Function compile flags: /Odspy
; File C:\Program Files (x86)\Microsoft Visual Studio\2019\Community\VC\Tools\MSVC\14.28.29333\include\xstring
;	COMDAT ??1?$basic_string@DU?$char_traits@D@std@@V?$allocator@D@2@@std@@QAE@XZ
_TEXT	SEGMENT
_this$ = -4						; size = 4
??1?$basic_string@DU?$char_traits@D@std@@V?$allocator@D@2@@std@@QAE@XZ PROC ; std::basic_string<char,std::char_traits<char>,std::allocator<char> >::~basic_string<char,std::char_traits<char>,std::allocator<char> >, COMDAT
; _this$ = ecx

; 2800 :     ~basic_string() noexcept {

  00000	55		 push	 ebp
  00001	8b ec		 mov	 ebp, esp
  00003	51		 push	 ecx
  00004	89 4d fc	 mov	 DWORD PTR _this$[ebp], ecx

; 2801 :         _Tidy_deallocate();

  00007	8b 4d fc	 mov	 ecx, DWORD PTR _this$[ebp]
  0000a	e8 00 00 00 00	 call	 ?_Tidy_deallocate@?$basic_string@DU?$char_traits@D@std@@V?$allocator@D@2@@std@@AAEXXZ ; std::basic_string<char,std::char_traits<char>,std::allocator<char> >::_Tidy_deallocate

; 2802 : #if _ITERATOR_DEBUG_LEVEL != 0
; 2803 :         auto&& _Alproxy          = _GET_PROXY_ALLOCATOR(_Alty, _Getal());
; 2804 :         const auto _To_delete    = _Mypair._Myval2._Myproxy;
; 2805 :         _Mypair._Myval2._Myproxy = nullptr;
; 2806 :         _Delete_plain_internal(_Alproxy, _To_delete);
; 2807 : #endif // _ITERATOR_DEBUG_LEVEL != 0
; 2808 :     }

  0000f	c9		 leave
  00010	c3		 ret	 0
??1?$basic_string@DU?$char_traits@D@std@@V?$allocator@D@2@@std@@QAE@XZ ENDP ; std::basic_string<char,std::char_traits<char>,std::allocator<char> >::~basic_string<char,std::char_traits<char>,std::allocator<char> >
_TEXT	ENDS
; Function compile flags: /Odspy
; File C:\Program Files (x86)\Microsoft Visual Studio\2019\Community\VC\Tools\MSVC\14.28.29333\include\xstring
; File C:\Program Files (x86)\Microsoft Visual Studio\2019\Community\VC\Tools\MSVC\14.28.29333\include\xmemory
; File C:\Program Files (x86)\Microsoft Visual Studio\2019\Community\VC\Tools\MSVC\14.28.29333\include\xstring
; File C:\Program Files (x86)\Microsoft Visual Studio\2019\Community\VC\Tools\MSVC\14.28.29333\include\xmemory
; File C:\Program Files (x86)\Microsoft Visual Studio\2019\Community\VC\Tools\MSVC\14.28.29333\include\xstring
;	COMDAT ??0?$basic_string@DU?$char_traits@D@std@@V?$allocator@D@2@@std@@QAE@QBD@Z
_TEXT	SEGMENT
__Alproxy$ = -40					; size = 4
$T2 = -36						; size = 4
$T3 = -32						; size = 4
_this$ = -28						; size = 4
_this$ = -24						; size = 4
_this$ = -20						; size = 4
_$S6$ = -13						; size = 1
__$EHRec$ = -12						; size = 12
__Ptr$ = 8						; size = 4
??0?$basic_string@DU?$char_traits@D@std@@V?$allocator@D@2@@std@@QAE@QBD@Z PROC ; std::basic_string<char,std::char_traits<char>,std::allocator<char> >::basic_string<char,std::char_traits<char>,std::allocator<char> >, COMDAT
; _this$ = ecx

; 2413 :     basic_string(_In_z_ const _Elem* const _Ptr) : _Mypair(_Zero_then_variadic_args_t{}) {

  00000	55		 push	 ebp
  00001	8b ec		 mov	 ebp, esp
  00003	6a ff		 push	 -1
  00005	68 00 00 00 00	 push	 __ehhandler$??0?$basic_string@DU?$char_traits@D@std@@V?$allocator@D@2@@std@@QAE@QBD@Z
  0000a	64 a1 00 00 00
	00		 mov	 eax, DWORD PTR fs:0
  00010	50		 push	 eax
  00011	83 ec 1c	 sub	 esp, 28			; 0000001cH
  00014	a1 00 00 00 00	 mov	 eax, DWORD PTR ___security_cookie
  00019	33 c5		 xor	 eax, ebp
  0001b	50		 push	 eax
  0001c	8d 45 f4	 lea	 eax, DWORD PTR __$EHRec$[ebp]
  0001f	64 a3 00 00 00
	00		 mov	 DWORD PTR fs:0, eax
  00025	89 4d ec	 mov	 DWORD PTR _this$[ebp], ecx
  00028	8b 45 ec	 mov	 eax, DWORD PTR _this$[ebp]
  0002b	89 45 e4	 mov	 DWORD PTR _this$[ebp], eax
; File C:\Program Files (x86)\Microsoft Visual Studio\2019\Community\VC\Tools\MSVC\14.28.29333\include\xmemory

; 1339 :         : _Ty1(), _Myval2(_STD forward<_Other2>(_Val2)...) {}

  0002e	8b 45 e4	 mov	 eax, DWORD PTR _this$[ebp]
  00031	89 45 e8	 mov	 DWORD PTR _this$[ebp], eax
; File C:\Program Files (x86)\Microsoft Visual Studio\2019\Community\VC\Tools\MSVC\14.28.29333\include\xstring

; 2198 :     _String_val() noexcept : _Bx(), _Mysize(0), _Myres(0) {}

  00034	8b 45 e8	 mov	 eax, DWORD PTR _this$[ebp]
  00037	83 60 10 00	 and	 DWORD PTR [eax+16], 0
  0003b	8b 45 e8	 mov	 eax, DWORD PTR _this$[ebp]
  0003e	83 60 14 00	 and	 DWORD PTR [eax+20], 0

; 2413 :     basic_string(_In_z_ const _Elem* const _Ptr) : _Mypair(_Zero_then_variadic_args_t{}) {

  00042	83 65 fc 00	 and	 DWORD PTR __$EHRec$[ebp+8], 0

; 2414 :         auto&& _Alproxy = _GET_PROXY_ALLOCATOR(_Alty, _Getal());

  00046	8d 45 f3	 lea	 eax, DWORD PTR _$S6$[ebp]
  00049	89 45 d8	 mov	 DWORD PTR __Alproxy$[ebp], eax

; 2415 :         _Container_proxy_ptr<_Alty> _Proxy(_Alproxy, _Mypair._Myval2);
; 2416 :         _Tidy_init();

  0004c	8b 4d ec	 mov	 ecx, DWORD PTR _this$[ebp]
  0004f	e8 00 00 00 00	 call	 ?_Tidy_init@?$basic_string@DU?$char_traits@D@std@@V?$allocator@D@2@@std@@AAEXXZ ; std::basic_string<char,std::char_traits<char>,std::allocator<char> >::_Tidy_init

; 389  :         return _CSTD strlen(reinterpret_cast<const char*>(_First));

  00054	ff 75 08	 push	 DWORD PTR __Ptr$[ebp]
  00057	e8 00 00 00 00	 call	 _strlen
  0005c	59		 pop	 ecx
  0005d	89 45 e0	 mov	 DWORD PTR $T3[ebp], eax
; File C:\Program Files (x86)\Microsoft Visual Studio\2019\Community\VC\Tools\MSVC\14.28.29333\include\xmemory

; 997  :     return _Len;

  00060	8b 45 e0	 mov	 eax, DWORD PTR $T3[ebp]
  00063	89 45 dc	 mov	 DWORD PTR $T2[ebp], eax
; File C:\Program Files (x86)\Microsoft Visual Studio\2019\Community\VC\Tools\MSVC\14.28.29333\include\xstring

; 3062 :         return assign(_Ptr, _Convert_size<size_type>(_Traits::length(_Ptr)));

  00066	ff 75 dc	 push	 DWORD PTR $T2[ebp]
  00069	ff 75 08	 push	 DWORD PTR __Ptr$[ebp]
  0006c	8b 4d ec	 mov	 ecx, DWORD PTR _this$[ebp]
  0006f	e8 00 00 00 00	 call	 ?assign@?$basic_string@DU?$char_traits@D@std@@V?$allocator@D@2@@std@@QAEAAV12@QBDI@Z ; std::basic_string<char,std::char_traits<char>,std::allocator<char> >::assign

; 2417 :         assign(_Ptr);
; 2418 :         _Proxy._Release();
; 2419 :     }

  00074	83 4d fc ff	 or	 DWORD PTR __$EHRec$[ebp+8], -1
  00078	8b 45 ec	 mov	 eax, DWORD PTR _this$[ebp]
  0007b	8b 4d f4	 mov	 ecx, DWORD PTR __$EHRec$[ebp]
  0007e	64 89 0d 00 00
	00 00		 mov	 DWORD PTR fs:0, ecx
  00085	59		 pop	 ecx
  00086	c9		 leave
  00087	c2 04 00	 ret	 4
_TEXT	ENDS
;	COMDAT text$x
text$x	SEGMENT
__unwindfunclet$??0?$basic_string@DU?$char_traits@D@std@@V?$allocator@D@2@@std@@QAE@QBD@Z$0:
  00000	8b 4d ec	 mov	 ecx, DWORD PTR _this$[ebp]
  00003	e9 00 00 00 00	 jmp	 ??1?$_Compressed_pair@V?$allocator@D@std@@V?$_String_val@U?$_Simple_types@D@std@@@2@$00@std@@QAE@XZ
  00008	cc		 int	 3
  00009	cc		 int	 3
  0000a	cc		 int	 3
  0000b	cc		 int	 3
  0000c	cc		 int	 3
__ehhandler$??0?$basic_string@DU?$char_traits@D@std@@V?$allocator@D@2@@std@@QAE@QBD@Z:
  0000d	90		 npad	 1
  0000e	90		 npad	 1
  0000f	8b 54 24 08	 mov	 edx, DWORD PTR [esp+8]
  00013	8d 42 0c	 lea	 eax, DWORD PTR [edx+12]
  00016	8b 4a e0	 mov	 ecx, DWORD PTR [edx-32]
  00019	33 c8		 xor	 ecx, eax
  0001b	e8 00 00 00 00	 call	 @__security_check_cookie@4
  00020	b8 00 00 00 00	 mov	 eax, OFFSET __ehfuncinfo$??0?$basic_string@DU?$char_traits@D@std@@V?$allocator@D@2@@std@@QAE@QBD@Z
  00025	e9 00 00 00 00	 jmp	 ___CxxFrameHandler3
text$x	ENDS
??0?$basic_string@DU?$char_traits@D@std@@V?$allocator@D@2@@std@@QAE@QBD@Z ENDP ; std::basic_string<char,std::char_traits<char>,std::allocator<char> >::basic_string<char,std::char_traits<char>,std::allocator<char> >
; Function compile flags: /Odspy
; File C:\Program Files (x86)\Microsoft Visual Studio\2019\Community\VC\Tools\MSVC\14.28.29333\include\xstring
; File C:\Program Files (x86)\Microsoft Visual Studio\2019\Community\VC\Tools\MSVC\14.28.29333\include\xstddef
; File C:\Program Files (x86)\Microsoft Visual Studio\2019\Community\VC\Tools\MSVC\14.28.29333\include\xstring
;	COMDAT ?_Myptr@?$_String_val@U?$_Simple_types@D@std@@@std@@QBEPBDXZ
_TEXT	SEGMENT
__Ptr$ = -20						; size = 4
__Result$ = -16						; size = 4
tv76 = -12						; size = 4
_this$ = -8						; size = 4
$T1 = -1						; size = 1
?_Myptr@?$_String_val@U?$_Simple_types@D@std@@@std@@QBEPBDXZ PROC ; std::_String_val<std::_Simple_types<char> >::_Myptr, COMDAT
; _this$ = ecx

; 2217 :     const value_type* _Myptr() const noexcept {

  00000	55		 push	 ebp
  00001	8b ec		 mov	 ebp, esp
  00003	83 ec 14	 sub	 esp, 20			; 00000014H
  00006	89 4d f8	 mov	 DWORD PTR _this$[ebp], ecx

; 2218 :         const value_type* _Result = _Bx._Buf;

  00009	8b 45 f8	 mov	 eax, DWORD PTR _this$[ebp]
  0000c	89 45 f0	 mov	 DWORD PTR __Result$[ebp], eax

; 2227 :         return _BUF_SIZE <= _Myres;

  0000f	8b 45 f8	 mov	 eax, DWORD PTR _this$[ebp]
  00012	83 78 14 10	 cmp	 DWORD PTR [eax+20], 16	; 00000010H
  00016	72 09		 jb	 SHORT $LN6@Myptr
  00018	c7 45 f4 01 00
	00 00		 mov	 DWORD PTR tv76[ebp], 1
  0001f	eb 04		 jmp	 SHORT $LN7@Myptr
$LN6@Myptr:
  00021	83 65 f4 00	 and	 DWORD PTR tv76[ebp], 0
$LN7@Myptr:
  00025	8a 45 f4	 mov	 al, BYTE PTR tv76[ebp]
  00028	88 45 ff	 mov	 BYTE PTR $T1[ebp], al

; 2219 :         if (_Large_string_engaged()) {

  0002b	0f b6 45 ff	 movzx	 eax, BYTE PTR $T1[ebp]
  0002f	85 c0		 test	 eax, eax
  00031	74 0e		 je	 SHORT $LN2@Myptr

; 2220 :             _Result = _Unfancy(_Bx._Ptr);

  00033	8b 45 f8	 mov	 eax, DWORD PTR _this$[ebp]
  00036	8b 00		 mov	 eax, DWORD PTR [eax]
  00038	89 45 ec	 mov	 DWORD PTR __Ptr$[ebp], eax
; File C:\Program Files (x86)\Microsoft Visual Studio\2019\Community\VC\Tools\MSVC\14.28.29333\include\xstddef

; 289  :     return _Ptr;

  0003b	8b 45 ec	 mov	 eax, DWORD PTR __Ptr$[ebp]
  0003e	89 45 f0	 mov	 DWORD PTR __Result$[ebp], eax
$LN2@Myptr:
; File C:\Program Files (x86)\Microsoft Visual Studio\2019\Community\VC\Tools\MSVC\14.28.29333\include\xstring

; 2223 :         return _Result;

  00041	8b 45 f0	 mov	 eax, DWORD PTR __Result$[ebp]

; 2224 :     }

  00044	c9		 leave
  00045	c3		 ret	 0
?_Myptr@?$_String_val@U?$_Simple_types@D@std@@@std@@QBEPBDXZ ENDP ; std::_String_val<std::_Simple_types<char> >::_Myptr
_TEXT	ENDS
; Function compile flags: /Odspy
; File C:\Program Files (x86)\Microsoft Visual Studio\2019\Community\VC\Tools\MSVC\14.28.29333\include\xstring
; File C:\Program Files (x86)\Microsoft Visual Studio\2019\Community\VC\Tools\MSVC\14.28.29333\include\xstddef
; File C:\Program Files (x86)\Microsoft Visual Studio\2019\Community\VC\Tools\MSVC\14.28.29333\include\xstring
;	COMDAT ?_Myptr@?$_String_val@U?$_Simple_types@D@std@@@std@@QAEPADXZ
_TEXT	SEGMENT
__Ptr$ = -20						; size = 4
__Result$ = -16						; size = 4
tv76 = -12						; size = 4
_this$ = -8						; size = 4
$T1 = -1						; size = 1
?_Myptr@?$_String_val@U?$_Simple_types@D@std@@@std@@QAEPADXZ PROC ; std::_String_val<std::_Simple_types<char> >::_Myptr, COMDAT
; _this$ = ecx

; 2208 :     value_type* _Myptr() noexcept {

  00000	55		 push	 ebp
  00001	8b ec		 mov	 ebp, esp
  00003	83 ec 14	 sub	 esp, 20			; 00000014H
  00006	89 4d f8	 mov	 DWORD PTR _this$[ebp], ecx

; 2209 :         value_type* _Result = _Bx._Buf;

  00009	8b 45 f8	 mov	 eax, DWORD PTR _this$[ebp]
  0000c	89 45 f0	 mov	 DWORD PTR __Result$[ebp], eax

; 2227 :         return _BUF_SIZE <= _Myres;

  0000f	8b 45 f8	 mov	 eax, DWORD PTR _this$[ebp]
  00012	83 78 14 10	 cmp	 DWORD PTR [eax+20], 16	; 00000010H
  00016	72 09		 jb	 SHORT $LN6@Myptr
  00018	c7 45 f4 01 00
	00 00		 mov	 DWORD PTR tv76[ebp], 1
  0001f	eb 04		 jmp	 SHORT $LN7@Myptr
$LN6@Myptr:
  00021	83 65 f4 00	 and	 DWORD PTR tv76[ebp], 0
$LN7@Myptr:
  00025	8a 45 f4	 mov	 al, BYTE PTR tv76[ebp]
  00028	88 45 ff	 mov	 BYTE PTR $T1[ebp], al

; 2210 :         if (_Large_string_engaged()) {

  0002b	0f b6 45 ff	 movzx	 eax, BYTE PTR $T1[ebp]
  0002f	85 c0		 test	 eax, eax
  00031	74 0e		 je	 SHORT $LN2@Myptr

; 2211 :             _Result = _Unfancy(_Bx._Ptr);

  00033	8b 45 f8	 mov	 eax, DWORD PTR _this$[ebp]
  00036	8b 00		 mov	 eax, DWORD PTR [eax]
  00038	89 45 ec	 mov	 DWORD PTR __Ptr$[ebp], eax
; File C:\Program Files (x86)\Microsoft Visual Studio\2019\Community\VC\Tools\MSVC\14.28.29333\include\xstddef

; 289  :     return _Ptr;

  0003b	8b 45 ec	 mov	 eax, DWORD PTR __Ptr$[ebp]
  0003e	89 45 f0	 mov	 DWORD PTR __Result$[ebp], eax
$LN2@Myptr:
; File C:\Program Files (x86)\Microsoft Visual Studio\2019\Community\VC\Tools\MSVC\14.28.29333\include\xstring

; 2214 :         return _Result;

  00041	8b 45 f0	 mov	 eax, DWORD PTR __Result$[ebp]

; 2215 :     }

  00044	c9		 leave
  00045	c3		 ret	 0
?_Myptr@?$_String_val@U?$_Simple_types@D@std@@@std@@QAEPADXZ ENDP ; std::_String_val<std::_Simple_types<char> >::_Myptr
_TEXT	ENDS
; Function compile flags: /Odspy
; File C:\Program Files (x86)\Microsoft Visual Studio\2019\Community\VC\Tools\MSVC\14.28.29333\include\xstring
;	COMDAT ?_Xlen_string@std@@YAXXZ
_TEXT	SEGMENT
?_Xlen_string@std@@YAXXZ PROC				; std::_Xlen_string, COMDAT

; 2274 : [[noreturn]] inline void _Xlen_string() {

  00000	55		 push	 ebp
  00001	8b ec		 mov	 ebp, esp

; 2275 :     _Xlength_error("string too long");

  00003	68 00 00 00 00	 push	 OFFSET ??_C@_0BA@JFNIOLAK@string?5too?5long@
  00008	e8 00 00 00 00	 call	 ?_Xlength_error@std@@YAXPBD@Z ; std::_Xlength_error
$LN2@Xlen_strin:

; 2276 : }

  0000d	5d		 pop	 ebp
  0000e	c3		 ret	 0
?_Xlen_string@std@@YAXXZ ENDP				; std::_Xlen_string
_TEXT	ENDS
; Function compile flags: /Odspy
; File C:\Program Files (x86)\Microsoft Visual Studio\2019\Community\VC\Tools\MSVC\14.28.29333\include\xmemory
;	COMDAT ?_Adjust_manually_vector_aligned@std@@YAXAAPAXAAI@Z
_TEXT	SEGMENT
__Min_back_shift$ = -16					; size = 4
__Ptr_user$ = -12					; size = 4
__Ptr_container$ = -8					; size = 4
__Back_shift$ = -4					; size = 4
__Ptr$ = 8						; size = 4
__Bytes$ = 12						; size = 4
?_Adjust_manually_vector_aligned@std@@YAXAAPAXAAI@Z PROC ; std::_Adjust_manually_vector_aligned, COMDAT

; 132  : inline void _Adjust_manually_vector_aligned(void*& _Ptr, size_t& _Bytes) {

  00000	55		 push	 ebp
  00001	8b ec		 mov	 ebp, esp
  00003	83 ec 10	 sub	 esp, 16			; 00000010H

; 133  :     // adjust parameters from _Allocate_manually_vector_aligned to pass to operator delete
; 134  :     _Bytes += _Non_user_size;

  00006	8b 45 0c	 mov	 eax, DWORD PTR __Bytes$[ebp]
  00009	8b 00		 mov	 eax, DWORD PTR [eax]
  0000b	83 c0 23	 add	 eax, 35			; 00000023H
  0000e	8b 4d 0c	 mov	 ecx, DWORD PTR __Bytes$[ebp]
  00011	89 01		 mov	 DWORD PTR [ecx], eax

; 135  : 
; 136  :     const uintptr_t* const _Ptr_user = reinterpret_cast<uintptr_t*>(_Ptr);

  00013	8b 45 08	 mov	 eax, DWORD PTR __Ptr$[ebp]
  00016	8b 00		 mov	 eax, DWORD PTR [eax]
  00018	89 45 f4	 mov	 DWORD PTR __Ptr_user$[ebp], eax

; 137  :     const uintptr_t _Ptr_container   = _Ptr_user[-1];

  0001b	6a 04		 push	 4
  0001d	58		 pop	 eax
  0001e	6b c0 ff	 imul	 eax, eax, -1
  00021	8b 4d f4	 mov	 ecx, DWORD PTR __Ptr_user$[ebp]
  00024	8b 04 01	 mov	 eax, DWORD PTR [ecx+eax]
  00027	89 45 f8	 mov	 DWORD PTR __Ptr_container$[ebp], eax

; 138  : 
; 139  :     // If the following asserts, it likely means that we are performing
; 140  :     // an aligned delete on memory coming from an unaligned allocation.
; 141  :     _STL_ASSERT(_Ptr_user[-2] == _Big_allocation_sentinel, "invalid argument");
; 142  : 
; 143  :     // Extra paranoia on aligned allocation/deallocation; ensure _Ptr_container is
; 144  :     // in range [_Min_back_shift, _Non_user_size]
; 145  : #ifdef _DEBUG
; 146  :     constexpr uintptr_t _Min_back_shift = 2 * sizeof(void*);
; 147  : #else // ^^^ _DEBUG ^^^ // vvv !_DEBUG vvv
; 148  :     constexpr uintptr_t _Min_back_shift = sizeof(void*);

  0002a	c7 45 f0 04 00
	00 00		 mov	 DWORD PTR __Min_back_shift$[ebp], 4

; 149  : #endif // _DEBUG
; 150  :     const uintptr_t _Back_shift = reinterpret_cast<uintptr_t>(_Ptr) - _Ptr_container;

  00031	8b 45 08	 mov	 eax, DWORD PTR __Ptr$[ebp]
  00034	8b 00		 mov	 eax, DWORD PTR [eax]
  00036	2b 45 f8	 sub	 eax, DWORD PTR __Ptr_container$[ebp]
  00039	89 45 fc	 mov	 DWORD PTR __Back_shift$[ebp], eax
$LN4@Adjust_man:

; 151  :     _STL_VERIFY(_Back_shift >= _Min_back_shift && _Back_shift <= _Non_user_size, "invalid argument");

  0003c	83 7d fc 04	 cmp	 DWORD PTR __Back_shift$[ebp], 4
  00040	72 08		 jb	 SHORT $LN7@Adjust_man
  00042	83 7d fc 23	 cmp	 DWORD PTR __Back_shift$[ebp], 35 ; 00000023H
  00046	77 02		 ja	 SHORT $LN7@Adjust_man
  00048	eb 09		 jmp	 SHORT $LN2@Adjust_man
$LN7@Adjust_man:
  0004a	e8 00 00 00 00	 call	 __invalid_parameter_noinfo_noreturn
  0004f	33 c0		 xor	 eax, eax
  00051	75 f7		 jne	 SHORT $LN7@Adjust_man
$LN2@Adjust_man:
  00053	33 c0		 xor	 eax, eax
  00055	75 e5		 jne	 SHORT $LN4@Adjust_man

; 152  :     _Ptr = reinterpret_cast<void*>(_Ptr_container);

  00057	8b 45 08	 mov	 eax, DWORD PTR __Ptr$[ebp]
  0005a	8b 4d f8	 mov	 ecx, DWORD PTR __Ptr_container$[ebp]
  0005d	89 08		 mov	 DWORD PTR [eax], ecx
$LN10@Adjust_man:

; 153  : }

  0005f	c9		 leave
  00060	c3		 ret	 0
?_Adjust_manually_vector_aligned@std@@YAXAAPAXAAI@Z ENDP ; std::_Adjust_manually_vector_aligned
_TEXT	ENDS
; Function compile flags: /Odspy
; File C:\Program Files (x86)\Microsoft Visual Studio\2019\Community\VC\Tools\MSVC\14.28.29333\include\exception
;	COMDAT ?_Throw_bad_array_new_length@std@@YAXXZ
_TEXT	SEGMENT
$T1 = -12						; size = 12
?_Throw_bad_array_new_length@std@@YAXXZ PROC		; std::_Throw_bad_array_new_length, COMDAT

; 320  : [[noreturn]] inline void _Throw_bad_array_new_length() {

  00000	55		 push	 ebp
  00001	8b ec		 mov	 ebp, esp
  00003	83 ec 0c	 sub	 esp, 12			; 0000000cH

; 321  :     _THROW(bad_array_new_length{});

  00006	8d 4d f4	 lea	 ecx, DWORD PTR $T1[ebp]
  00009	e8 00 00 00 00	 call	 ??0bad_array_new_length@std@@QAE@XZ ; std::bad_array_new_length::bad_array_new_length
  0000e	68 00 00 00 00	 push	 OFFSET __TI3?AVbad_array_new_length@std@@
  00013	8d 45 f4	 lea	 eax, DWORD PTR $T1[ebp]
  00016	50		 push	 eax
  00017	e8 00 00 00 00	 call	 __CxxThrowException@8
$LN2@Throw_bad_:

; 322  : }

  0001c	c9		 leave
  0001d	c3		 ret	 0
?_Throw_bad_array_new_length@std@@YAXXZ ENDP		; std::_Throw_bad_array_new_length
_TEXT	ENDS
; Function compile flags: /Odspy
; File C:\Program Files (x86)\Microsoft Visual Studio\2019\Community\VC\Tools\MSVC\14.28.29333\include\vcruntime_exception.h
;	COMDAT ??_Gbad_array_new_length@std@@UAEPAXI@Z
_TEXT	SEGMENT
_this$ = -4						; size = 4
___flags$ = 8						; size = 4
??_Gbad_array_new_length@std@@UAEPAXI@Z PROC		; std::bad_array_new_length::`scalar deleting destructor', COMDAT
; _this$ = ecx
  00000	55		 push	 ebp
  00001	8b ec		 mov	 ebp, esp
  00003	51		 push	 ecx
  00004	89 4d fc	 mov	 DWORD PTR _this$[ebp], ecx

; 89   :     {

  00007	8b 45 fc	 mov	 eax, DWORD PTR _this$[ebp]
  0000a	c7 00 00 00 00
	00		 mov	 DWORD PTR [eax], OFFSET ??_7exception@std@@6B@

; 90   :         __std_exception_destroy(&_Data);

  00010	8b 45 fc	 mov	 eax, DWORD PTR _this$[ebp]
  00013	83 c0 04	 add	 eax, 4
  00016	50		 push	 eax
  00017	e8 00 00 00 00	 call	 ___std_exception_destroy
  0001c	59		 pop	 ecx
  0001d	8b 45 08	 mov	 eax, DWORD PTR ___flags$[ebp]
  00020	83 e0 01	 and	 eax, 1
  00023	74 0c		 je	 SHORT $LN2@scalar
  00025	6a 0c		 push	 12			; 0000000cH
  00027	ff 75 fc	 push	 DWORD PTR _this$[ebp]
  0002a	e8 00 00 00 00	 call	 ??3@YAXPAXI@Z		; operator delete
  0002f	59		 pop	 ecx
  00030	59		 pop	 ecx
$LN2@scalar:
  00031	8b 45 fc	 mov	 eax, DWORD PTR _this$[ebp]
  00034	c9		 leave
  00035	c2 04 00	 ret	 4
??_Gbad_array_new_length@std@@UAEPAXI@Z ENDP		; std::bad_array_new_length::`scalar deleting destructor'
_TEXT	ENDS
; Function compile flags: /Odspy
;	COMDAT ??0bad_array_new_length@std@@QAE@ABV01@@Z
_TEXT	SEGMENT
_this$ = -4						; size = 4
___that$ = 8						; size = 4
??0bad_array_new_length@std@@QAE@ABV01@@Z PROC		; std::bad_array_new_length::bad_array_new_length, COMDAT
; _this$ = ecx
  00000	55		 push	 ebp
  00001	8b ec		 mov	 ebp, esp
  00003	51		 push	 ecx
  00004	89 4d fc	 mov	 DWORD PTR _this$[ebp], ecx
  00007	ff 75 08	 push	 DWORD PTR ___that$[ebp]
  0000a	8b 4d fc	 mov	 ecx, DWORD PTR _this$[ebp]
  0000d	e8 00 00 00 00	 call	 ??0exception@std@@QAE@ABV01@@Z ; std::exception::exception
  00012	8b 45 fc	 mov	 eax, DWORD PTR _this$[ebp]
  00015	c7 00 00 00 00
	00		 mov	 DWORD PTR [eax], OFFSET ??_7bad_alloc@std@@6B@
  0001b	8b 45 fc	 mov	 eax, DWORD PTR _this$[ebp]
  0001e	c7 00 00 00 00
	00		 mov	 DWORD PTR [eax], OFFSET ??_7bad_array_new_length@std@@6B@
  00024	8b 45 fc	 mov	 eax, DWORD PTR _this$[ebp]
  00027	c9		 leave
  00028	c2 04 00	 ret	 4
??0bad_array_new_length@std@@QAE@ABV01@@Z ENDP		; std::bad_array_new_length::bad_array_new_length
_TEXT	ENDS
; Function compile flags: /Odspy
; File C:\Program Files (x86)\Microsoft Visual Studio\2019\Community\VC\Tools\MSVC\14.28.29333\include\vcruntime_exception.h
;	COMDAT ??1bad_array_new_length@std@@UAE@XZ
_TEXT	SEGMENT
_this$ = -4						; size = 4
??1bad_array_new_length@std@@UAE@XZ PROC		; std::bad_array_new_length::~bad_array_new_length, COMDAT
; _this$ = ecx
  00000	55		 push	 ebp
  00001	8b ec		 mov	 ebp, esp
  00003	51		 push	 ecx
  00004	89 4d fc	 mov	 DWORD PTR _this$[ebp], ecx

; 89   :     {

  00007	8b 45 fc	 mov	 eax, DWORD PTR _this$[ebp]
  0000a	c7 00 00 00 00
	00		 mov	 DWORD PTR [eax], OFFSET ??_7exception@std@@6B@

; 90   :         __std_exception_destroy(&_Data);

  00010	8b 45 fc	 mov	 eax, DWORD PTR _this$[ebp]
  00013	83 c0 04	 add	 eax, 4
  00016	50		 push	 eax
  00017	e8 00 00 00 00	 call	 ___std_exception_destroy
  0001c	59		 pop	 ecx
  0001d	c9		 leave
  0001e	c3		 ret	 0
??1bad_array_new_length@std@@UAE@XZ ENDP		; std::bad_array_new_length::~bad_array_new_length
_TEXT	ENDS
; Function compile flags: /Odspy
; File C:\Program Files (x86)\Microsoft Visual Studio\2019\Community\VC\Tools\MSVC\14.28.29333\include\vcruntime_exception.h
;	COMDAT ??0bad_array_new_length@std@@QAE@XZ
_TEXT	SEGMENT
_this$ = -4						; size = 4
??0bad_array_new_length@std@@QAE@XZ PROC		; std::bad_array_new_length::bad_array_new_length, COMDAT
; _this$ = ecx

; 141  :     {

  00000	55		 push	 ebp
  00001	8b ec		 mov	 ebp, esp
  00003	51		 push	 ecx
  00004	89 4d fc	 mov	 DWORD PTR _this$[ebp], ecx

; 66   :     {

  00007	8b 45 fc	 mov	 eax, DWORD PTR _this$[ebp]
  0000a	c7 00 00 00 00
	00		 mov	 DWORD PTR [eax], OFFSET ??_7exception@std@@6B@

; 65   :         : _Data()

  00010	33 c0		 xor	 eax, eax
  00012	8b 4d fc	 mov	 ecx, DWORD PTR _this$[ebp]
  00015	83 c1 04	 add	 ecx, 4
  00018	89 01		 mov	 DWORD PTR [ecx], eax
  0001a	89 41 04	 mov	 DWORD PTR [ecx+4], eax

; 67   :         _Data._What = _Message;

  0001d	8b 45 fc	 mov	 eax, DWORD PTR _this$[ebp]
  00020	c7 40 04 00 00
	00 00		 mov	 DWORD PTR [eax+4], OFFSET ??_C@_0BF@KINCDENJ@bad?5array?5new?5length@

; 130  :     {

  00027	8b 45 fc	 mov	 eax, DWORD PTR _this$[ebp]
  0002a	c7 00 00 00 00
	00		 mov	 DWORD PTR [eax], OFFSET ??_7bad_alloc@std@@6B@

; 141  :     {

  00030	8b 45 fc	 mov	 eax, DWORD PTR _this$[ebp]
  00033	c7 00 00 00 00
	00		 mov	 DWORD PTR [eax], OFFSET ??_7bad_array_new_length@std@@6B@

; 142  :     }

  00039	8b 45 fc	 mov	 eax, DWORD PTR _this$[ebp]
  0003c	c9		 leave
  0003d	c3		 ret	 0
??0bad_array_new_length@std@@QAE@XZ ENDP		; std::bad_array_new_length::bad_array_new_length
_TEXT	ENDS
; Function compile flags: /Odspy
; File C:\Program Files (x86)\Microsoft Visual Studio\2019\Community\VC\Tools\MSVC\14.28.29333\include\vcruntime_exception.h
;	COMDAT ??_Gbad_alloc@std@@UAEPAXI@Z
_TEXT	SEGMENT
_this$ = -4						; size = 4
___flags$ = 8						; size = 4
??_Gbad_alloc@std@@UAEPAXI@Z PROC			; std::bad_alloc::`scalar deleting destructor', COMDAT
; _this$ = ecx
  00000	55		 push	 ebp
  00001	8b ec		 mov	 ebp, esp
  00003	51		 push	 ecx
  00004	89 4d fc	 mov	 DWORD PTR _this$[ebp], ecx

; 89   :     {

  00007	8b 45 fc	 mov	 eax, DWORD PTR _this$[ebp]
  0000a	c7 00 00 00 00
	00		 mov	 DWORD PTR [eax], OFFSET ??_7exception@std@@6B@

; 90   :         __std_exception_destroy(&_Data);

  00010	8b 45 fc	 mov	 eax, DWORD PTR _this$[ebp]
  00013	83 c0 04	 add	 eax, 4
  00016	50		 push	 eax
  00017	e8 00 00 00 00	 call	 ___std_exception_destroy
  0001c	59		 pop	 ecx
  0001d	8b 45 08	 mov	 eax, DWORD PTR ___flags$[ebp]
  00020	83 e0 01	 and	 eax, 1
  00023	74 0c		 je	 SHORT $LN2@scalar
  00025	6a 0c		 push	 12			; 0000000cH
  00027	ff 75 fc	 push	 DWORD PTR _this$[ebp]
  0002a	e8 00 00 00 00	 call	 ??3@YAXPAXI@Z		; operator delete
  0002f	59		 pop	 ecx
  00030	59		 pop	 ecx
$LN2@scalar:
  00031	8b 45 fc	 mov	 eax, DWORD PTR _this$[ebp]
  00034	c9		 leave
  00035	c2 04 00	 ret	 4
??_Gbad_alloc@std@@UAEPAXI@Z ENDP			; std::bad_alloc::`scalar deleting destructor'
_TEXT	ENDS
; Function compile flags: /Odspy
;	COMDAT ??0bad_alloc@std@@QAE@ABV01@@Z
_TEXT	SEGMENT
_this$ = -4						; size = 4
___that$ = 8						; size = 4
??0bad_alloc@std@@QAE@ABV01@@Z PROC			; std::bad_alloc::bad_alloc, COMDAT
; _this$ = ecx
  00000	55		 push	 ebp
  00001	8b ec		 mov	 ebp, esp
  00003	51		 push	 ecx
  00004	89 4d fc	 mov	 DWORD PTR _this$[ebp], ecx
  00007	ff 75 08	 push	 DWORD PTR ___that$[ebp]
  0000a	8b 4d fc	 mov	 ecx, DWORD PTR _this$[ebp]
  0000d	e8 00 00 00 00	 call	 ??0exception@std@@QAE@ABV01@@Z ; std::exception::exception
  00012	8b 45 fc	 mov	 eax, DWORD PTR _this$[ebp]
  00015	c7 00 00 00 00
	00		 mov	 DWORD PTR [eax], OFFSET ??_7bad_alloc@std@@6B@
  0001b	8b 45 fc	 mov	 eax, DWORD PTR _this$[ebp]
  0001e	c9		 leave
  0001f	c2 04 00	 ret	 4
??0bad_alloc@std@@QAE@ABV01@@Z ENDP			; std::bad_alloc::bad_alloc
_TEXT	ENDS
; Function compile flags: /Odspy
; File C:\Program Files (x86)\Microsoft Visual Studio\2019\Community\VC\Tools\MSVC\14.28.29333\include\vcruntime_exception.h
;	COMDAT ??_Gexception@std@@UAEPAXI@Z
_TEXT	SEGMENT
_this$ = -4						; size = 4
___flags$ = 8						; size = 4
??_Gexception@std@@UAEPAXI@Z PROC			; std::exception::`scalar deleting destructor', COMDAT
; _this$ = ecx
  00000	55		 push	 ebp
  00001	8b ec		 mov	 ebp, esp
  00003	51		 push	 ecx
  00004	89 4d fc	 mov	 DWORD PTR _this$[ebp], ecx

; 89   :     {

  00007	8b 45 fc	 mov	 eax, DWORD PTR _this$[ebp]
  0000a	c7 00 00 00 00
	00		 mov	 DWORD PTR [eax], OFFSET ??_7exception@std@@6B@

; 90   :         __std_exception_destroy(&_Data);

  00010	8b 45 fc	 mov	 eax, DWORD PTR _this$[ebp]
  00013	83 c0 04	 add	 eax, 4
  00016	50		 push	 eax
  00017	e8 00 00 00 00	 call	 ___std_exception_destroy
  0001c	59		 pop	 ecx
  0001d	8b 45 08	 mov	 eax, DWORD PTR ___flags$[ebp]
  00020	83 e0 01	 and	 eax, 1
  00023	74 0c		 je	 SHORT $LN2@scalar
  00025	6a 0c		 push	 12			; 0000000cH
  00027	ff 75 fc	 push	 DWORD PTR _this$[ebp]
  0002a	e8 00 00 00 00	 call	 ??3@YAXPAXI@Z		; operator delete
  0002f	59		 pop	 ecx
  00030	59		 pop	 ecx
$LN2@scalar:
  00031	8b 45 fc	 mov	 eax, DWORD PTR _this$[ebp]
  00034	c9		 leave
  00035	c2 04 00	 ret	 4
??_Gexception@std@@UAEPAXI@Z ENDP			; std::exception::`scalar deleting destructor'
_TEXT	ENDS
; Function compile flags: /Odspy
; File C:\Program Files (x86)\Microsoft Visual Studio\2019\Community\VC\Tools\MSVC\14.28.29333\include\vcruntime_exception.h
;	COMDAT ?what@exception@std@@UBEPBDXZ
_TEXT	SEGMENT
tv69 = -8						; size = 4
_this$ = -4						; size = 4
?what@exception@std@@UBEPBDXZ PROC			; std::exception::what, COMDAT
; _this$ = ecx

; 94   :     {

  00000	55		 push	 ebp
  00001	8b ec		 mov	 ebp, esp
  00003	51		 push	 ecx
  00004	51		 push	 ecx
  00005	89 4d fc	 mov	 DWORD PTR _this$[ebp], ecx

; 95   :         return _Data._What ? _Data._What : "Unknown exception";

  00008	8b 45 fc	 mov	 eax, DWORD PTR _this$[ebp]
  0000b	83 78 04 00	 cmp	 DWORD PTR [eax+4], 0
  0000f	74 0b		 je	 SHORT $LN3@what
  00011	8b 45 fc	 mov	 eax, DWORD PTR _this$[ebp]
  00014	8b 40 04	 mov	 eax, DWORD PTR [eax+4]
  00017	89 45 f8	 mov	 DWORD PTR tv69[ebp], eax
  0001a	eb 07		 jmp	 SHORT $LN4@what
$LN3@what:
  0001c	c7 45 f8 00 00
	00 00		 mov	 DWORD PTR tv69[ebp], OFFSET ??_C@_0BC@EOODALEL@Unknown?5exception@
$LN4@what:
  00023	8b 45 f8	 mov	 eax, DWORD PTR tv69[ebp]

; 96   :     }

  00026	c9		 leave
  00027	c3		 ret	 0
?what@exception@std@@UBEPBDXZ ENDP			; std::exception::what
_TEXT	ENDS
; Function compile flags: /Odspy
; File C:\Program Files (x86)\Microsoft Visual Studio\2019\Community\VC\Tools\MSVC\14.28.29333\include\vcruntime_exception.h
;	COMDAT ??0exception@std@@QAE@ABV01@@Z
_TEXT	SEGMENT
_this$ = -4						; size = 4
__Other$ = 8						; size = 4
??0exception@std@@QAE@ABV01@@Z PROC			; std::exception::exception, COMDAT
; _this$ = ecx

; 72   :     {

  00000	55		 push	 ebp
  00001	8b ec		 mov	 ebp, esp
  00003	51		 push	 ecx
  00004	89 4d fc	 mov	 DWORD PTR _this$[ebp], ecx
  00007	8b 45 fc	 mov	 eax, DWORD PTR _this$[ebp]
  0000a	c7 00 00 00 00
	00		 mov	 DWORD PTR [eax], OFFSET ??_7exception@std@@6B@

; 71   :         : _Data()

  00010	33 c0		 xor	 eax, eax
  00012	8b 4d fc	 mov	 ecx, DWORD PTR _this$[ebp]
  00015	83 c1 04	 add	 ecx, 4
  00018	89 01		 mov	 DWORD PTR [ecx], eax
  0001a	89 41 04	 mov	 DWORD PTR [ecx+4], eax

; 73   :         __std_exception_copy(&_Other._Data, &_Data);

  0001d	8b 45 fc	 mov	 eax, DWORD PTR _this$[ebp]
  00020	83 c0 04	 add	 eax, 4
  00023	50		 push	 eax
  00024	8b 45 08	 mov	 eax, DWORD PTR __Other$[ebp]
  00027	83 c0 04	 add	 eax, 4
  0002a	50		 push	 eax
  0002b	e8 00 00 00 00	 call	 ___std_exception_copy
  00030	59		 pop	 ecx
  00031	59		 pop	 ecx

; 74   :     }

  00032	8b 45 fc	 mov	 eax, DWORD PTR _this$[ebp]
  00035	c9		 leave
  00036	c2 04 00	 ret	 4
??0exception@std@@QAE@ABV01@@Z ENDP			; std::exception::exception
_TEXT	ENDS
; Function compile flags: /Odspy
; File D:\Metin2 Server Files\mainline\SRC_2014\Metin2Client\UserInterface\PythonItemModule.cpp
;	COMDAT ?__empty_global_delete@@YAXPAXI@Z
_TEXT	SEGMENT
___formal$ = 8						; size = 4
___formal$ = 12						; size = 4
?__empty_global_delete@@YAXPAXI@Z PROC			; __empty_global_delete, COMDAT

  00000	55		 push	 ebp
  00001	8b ec		 mov	 ebp, esp
  00003	5d		 pop	 ebp
  00004	c3		 ret	 0
?__empty_global_delete@@YAXPAXI@Z ENDP			; __empty_global_delete
_TEXT	ENDS
; Function compile flags: /Odspy
; File D:\Metin2 Server Files\mainline\SRC_2014\Metin2Client\UserInterface\PythonItemModule.cpp
;	COMDAT ?__empty_global_delete@@YAXPAX@Z
_TEXT	SEGMENT
___formal$ = 8						; size = 4
?__empty_global_delete@@YAXPAX@Z PROC			; __empty_global_delete, COMDAT

  00000	55		 push	 ebp
  00001	8b ec		 mov	 ebp, esp
  00003	5d		 pop	 ebp
  00004	c3		 ret	 0
?__empty_global_delete@@YAXPAX@Z ENDP			; __empty_global_delete
_TEXT	ENDS
; Function compile flags: /Odspy
;	COMDAT ??_H@YGXPAXIIP6EPAX0@Z@Z
_TEXT	SEGMENT
tv66 = -4						; size = 4
___t$ = 8						; size = 4
___s$ = 12						; size = 4
___n$ = 16						; size = 4
___f$ = 20						; size = 4
??_H@YGXPAXIIP6EPAX0@Z@Z PROC				; `vector constructor iterator', COMDAT
  00000	55		 push	 ebp
  00001	8b ec		 mov	 ebp, esp
  00003	51		 push	 ecx
$LN2@vector:
  00004	8b 45 10	 mov	 eax, DWORD PTR ___n$[ebp]
  00007	89 45 fc	 mov	 DWORD PTR tv66[ebp], eax
  0000a	8b 45 10	 mov	 eax, DWORD PTR ___n$[ebp]
  0000d	48		 dec	 eax
  0000e	89 45 10	 mov	 DWORD PTR ___n$[ebp], eax
  00011	83 7d fc 00	 cmp	 DWORD PTR tv66[ebp], 0
  00015	76 11		 jbe	 SHORT $LN1@vector
  00017	8b 4d 08	 mov	 ecx, DWORD PTR ___t$[ebp]
  0001a	ff 55 14	 call	 DWORD PTR ___f$[ebp]
  0001d	8b 45 08	 mov	 eax, DWORD PTR ___t$[ebp]
  00020	03 45 0c	 add	 eax, DWORD PTR ___s$[ebp]
  00023	89 45 08	 mov	 DWORD PTR ___t$[ebp], eax
  00026	eb dc		 jmp	 SHORT $LN2@vector
$LN1@vector:
  00028	c9		 leave
  00029	c2 10 00	 ret	 16			; 00000010H
??_H@YGXPAXIIP6EPAX0@Z@Z ENDP				; `vector constructor iterator'
_TEXT	ENDS
END
