; Listing generated by Microsoft (R) Optimizing Compiler Version 19.28.29335.0 

	TITLE	D:\Metin2 Server Files\mainline\SRC_2014\Metin2Client\UserInterface\PythonApplicationModule.cpp
	.686P
	.XMM
	include listing.inc
	.model	flat

INCLUDELIB LIBCMT
INCLUDELIB OLDNAMES

PUBLIC	?bVisibleNotice@@3HA				; bVisibleNotice
PUBLIC	?bTestServerFlag@@3HA				; bTestServerFlag
PUBLIC	?TWOHANDED_WEWAPON_ATT_SPEED_DECREASE_VALUE@@3HA ; TWOHANDED_WEWAPON_ATT_SPEED_DECREASE_VALUE
_BSS	SEGMENT
?bTestServerFlag@@3HA DD 01H DUP (?)			; bTestServerFlag
?TWOHANDED_WEWAPON_ATT_SPEED_DECREASE_VALUE@@3HA DD 01H DUP (?) ; TWOHANDED_WEWAPON_ATT_SPEED_DECREASE_VALUE
_BSS	ENDS
_DATA	SEGMENT
?bVisibleNotice@@3HA DD 01H				; bVisibleNotice
_DATA	ENDS
PUBLIC	??_H@YGXPAXIIP6EPAX0@Z@Z			; `vector constructor iterator'
PUBLIC	?__empty_global_delete@@YAXPAX@Z		; __empty_global_delete
PUBLIC	?__empty_global_delete@@YAXPAXI@Z		; __empty_global_delete
PUBLIC	?_Adjust_manually_vector_aligned@std@@YAXAAPAXAAI@Z ; std::_Adjust_manually_vector_aligned
PUBLIC	?_Myptr@?$_String_val@U?$_Simple_types@D@std@@@std@@QBEPBDXZ ; std::_String_val<std::_Simple_types<char> >::_Myptr
PUBLIC	??0?$basic_string@DU?$char_traits@D@std@@V?$allocator@D@2@@std@@QAE@XZ ; std::basic_string<char,std::char_traits<char>,std::allocator<char> >::basic_string<char,std::char_traits<char>,std::allocator<char> >
PUBLIC	??1?$basic_string@DU?$char_traits@D@std@@V?$allocator@D@2@@std@@QAE@XZ ; std::basic_string<char,std::char_traits<char>,std::allocator<char> >::~basic_string<char,std::char_traits<char>,std::allocator<char> >
PUBLIC	?c_str@?$basic_string@DU?$char_traits@D@std@@V?$allocator@D@2@@std@@QBEPBDXZ ; std::basic_string<char,std::char_traits<char>,std::allocator<char> >::c_str
PUBLIC	?_Tidy_init@?$basic_string@DU?$char_traits@D@std@@V?$allocator@D@2@@std@@AAEXXZ ; std::basic_string<char,std::char_traits<char>,std::allocator<char> >::_Tidy_init
PUBLIC	?_Tidy_deallocate@?$basic_string@DU?$char_traits@D@std@@V?$allocator@D@2@@std@@AAEXXZ ; std::basic_string<char,std::char_traits<char>,std::allocator<char> >::_Tidy_deallocate
PUBLIC	?initapp@@YAXXZ					; initapp
PUBLIC	??$_Destroy_in_place@PAD@std@@YAXAAPAD@Z	; std::_Destroy_in_place<char *>
PUBLIC	??$_Deallocate@$07$0A@@std@@YAXPAXI@Z		; std::_Deallocate<8,0>
PUBLIC	??0SCameraSetting@IAbstractApplication@@QAE@XZ	; IAbstractApplication::SCameraSetting::SCameraSetting
PUBLIC	?appShowWebPage@@YAPAU_object@@PAU1@0@Z		; appShowWebPage
PUBLIC	?appMoveWebPage@@YAPAU_object@@PAU1@0@Z		; appMoveWebPage
PUBLIC	?appHideWebPage@@YAPAU_object@@PAU1@0@Z		; appHideWebPage
PUBLIC	?appIsWebPageMode@@YAPAU_object@@PAU1@0@Z	; appIsWebPageMode
PUBLIC	?appEnablePerformanceTime@@YAPAU_object@@PAU1@0@Z ; appEnablePerformanceTime
PUBLIC	?appSetTextTailLivingTime@@YAPAU_object@@PAU1@0@Z ; appSetTextTailLivingTime
PUBLIC	?appSetHairColorEnable@@YAPAU_object@@PAU1@0@Z	; appSetHairColorEnable
PUBLIC	?appSetArmorSpecularEnable@@YAPAU_object@@PAU1@0@Z ; appSetArmorSpecularEnable
PUBLIC	?appSetWeaponSpecularEnable@@YAPAU_object@@PAU1@0@Z ; appSetWeaponSpecularEnable
PUBLIC	?appSetSkillEffectUpgradeEnable@@YAPAU_object@@PAU1@0@Z ; appSetSkillEffectUpgradeEnable
PUBLIC	?SetTwoHandedWeaponAttSpeedDecreaseValue@@YAPAU_object@@PAU1@0@Z ; SetTwoHandedWeaponAttSpeedDecreaseValue
PUBLIC	?appSetRideHorseEnable@@YAPAU_object@@PAU1@0@Z	; appSetRideHorseEnable
PUBLIC	?appSetCameraMaxDistance@@YAPAU_object@@PAU1@0@Z ; appSetCameraMaxDistance
PUBLIC	?appSetControlFP@@YAPAU_object@@PAU1@0@Z	; appSetControlFP
PUBLIC	?appSetSpecularSpeed@@YAPAU_object@@PAU1@0@Z	; appSetSpecularSpeed
PUBLIC	?appSetMinFog@@YAPAU_object@@PAU1@0@Z		; appSetMinFog
PUBLIC	?appSetFrameSkip@@YAPAU_object@@PAU1@0@Z	; appSetFrameSkip
PUBLIC	?appForceSetLocale@@YAPAU_object@@PAU1@0@Z	; appForceSetLocale
PUBLIC	?appGetLocaleServiceName@@YAPAU_object@@PAU1@0@Z ; appGetLocaleServiceName
PUBLIC	?appSetCHEONMA@@YAPAU_object@@PAU1@0@Z		; appSetCHEONMA
PUBLIC	?appIsCHEONMA@@YAPAU_object@@PAU1@0@Z		; appIsCHEONMA
PUBLIC	?appLoadLocaleAddr@@YAPAU_object@@PAU1@0@Z	; appLoadLocaleAddr
PUBLIC	?appLoadLocaleData@@YAPAU_object@@PAU1@0@Z	; appLoadLocaleData
PUBLIC	?appGetLocaleName@@YAPAU_object@@PAU1@0@Z	; appGetLocaleName
PUBLIC	?appGetLocalePath@@YAPAU_object@@PAU1@0@Z	; appGetLocalePath
PUBLIC	?appGetDefaultCodePage@@YAPAU_object@@PAU1@0@Z	; appGetDefaultCodePage
PUBLIC	?appGetImageInfo@@YAPAU_object@@PAU1@0@Z	; appGetImageInfo
PUBLIC	?appIsExistFile@@YAPAU_object@@PAU1@0@Z		; appIsExistFile
PUBLIC	?appGetFileList@@YAPAU_object@@PAU1@0@Z		; appGetFileList
PUBLIC	?appUpdateGame@@YAPAU_object@@PAU1@0@Z		; appUpdateGame
PUBLIC	?appRenderGame@@YAPAU_object@@PAU1@0@Z		; appRenderGame
PUBLIC	?appSetMouseHandler@@YAPAU_object@@PAU1@0@Z	; appSetMouseHandler
PUBLIC	?appCreate@@YAPAU_object@@PAU1@0@Z		; appCreate
PUBLIC	?appLoop@@YAPAU_object@@PAU1@0@Z		; appLoop
PUBLIC	?appGetInfo@@YAPAU_object@@PAU1@0@Z		; appGetInfo
PUBLIC	?appProcess@@YAPAU_object@@PAU1@0@Z		; appProcess
PUBLIC	?appAbort@@YAPAU_object@@PAU1@0@Z		; appAbort
PUBLIC	?appExit@@YAPAU_object@@PAU1@0@Z		; appExit
PUBLIC	?appSetCamera@@YAPAU_object@@PAU1@0@Z		; appSetCamera
PUBLIC	?appGetCamera@@YAPAU_object@@PAU1@0@Z		; appGetCamera
PUBLIC	?appGetCameraPitch@@YAPAU_object@@PAU1@0@Z	; appGetCameraPitch
PUBLIC	?appGetCameraRotation@@YAPAU_object@@PAU1@0@Z	; appGetCameraRotation
PUBLIC	?appGetTime@@YAPAU_object@@PAU1@0@Z		; appGetTime
PUBLIC	?appGetGlobalTime@@YAPAU_object@@PAU1@0@Z	; appGetGlobalTime
PUBLIC	?appGetGlobalTimeStamp@@YAPAU_object@@PAU1@0@Z	; appGetGlobalTimeStamp
PUBLIC	?appGetUpdateFPS@@YAPAU_object@@PAU1@0@Z	; appGetUpdateFPS
PUBLIC	?appGetRenderFPS@@YAPAU_object@@PAU1@0@Z	; appGetRenderFPS
PUBLIC	?appRotateCamera@@YAPAU_object@@PAU1@0@Z	; appRotateCamera
PUBLIC	?appPitchCamera@@YAPAU_object@@PAU1@0@Z		; appPitchCamera
PUBLIC	?appZoomCamera@@YAPAU_object@@PAU1@0@Z		; appZoomCamera
PUBLIC	?appMovieRotateCamera@@YAPAU_object@@PAU1@0@Z	; appMovieRotateCamera
PUBLIC	?appMoviePitchCamera@@YAPAU_object@@PAU1@0@Z	; appMoviePitchCamera
PUBLIC	?appMovieZoomCamera@@YAPAU_object@@PAU1@0@Z	; appMovieZoomCamera
PUBLIC	?appMovieResetCamera@@YAPAU_object@@PAU1@0@Z	; appMovieResetCamera
PUBLIC	?appGetFaceSpeed@@YAPAU_object@@PAU1@0@Z	; appGetFaceSpeed
PUBLIC	?appGetRenderTime@@YAPAU_object@@PAU1@0@Z	; appGetRenderTime
PUBLIC	?appGetUpdateTime@@YAPAU_object@@PAU1@0@Z	; appGetUpdateTime
PUBLIC	?appGetLoad@@YAPAU_object@@PAU1@0@Z		; appGetLoad
PUBLIC	?appGetFaceCount@@YAPAU_object@@PAU1@0@Z	; appGetFaceCount
PUBLIC	?appGetAvaiableTextureMememory@@YAPAU_object@@PAU1@0@Z ; appGetAvaiableTextureMememory
PUBLIC	?appSetFPS@@YAPAU_object@@PAU1@0@Z		; appSetFPS
PUBLIC	?appSetGlobalCenterPosition@@YAPAU_object@@PAU1@0@Z ; appSetGlobalCenterPosition
PUBLIC	?appSetCenterPosition@@YAPAU_object@@PAU1@0@Z	; appSetCenterPosition
PUBLIC	?appGetCursorPosition@@YAPAU_object@@PAU1@0@Z	; appGetCursorPosition
PUBLIC	?appRunPythonFile@@YAPAU_object@@PAU1@0@Z	; appRunPythonFile
PUBLIC	?appIsPressed@@YAPAU_object@@PAU1@0@Z		; appIsPressed
PUBLIC	?appSetCursor@@YAPAU_object@@PAU1@0@Z		; appSetCursor
PUBLIC	?appGetCursor@@YAPAU_object@@PAU1@0@Z		; appGetCursor
PUBLIC	?appShowCursor@@YAPAU_object@@PAU1@0@Z		; appShowCursor
PUBLIC	?appHideCursor@@YAPAU_object@@PAU1@0@Z		; appHideCursor
PUBLIC	?appIsShowCursor@@YAPAU_object@@PAU1@0@Z	; appIsShowCursor
PUBLIC	?appIsLiarCursorOn@@YAPAU_object@@PAU1@0@Z	; appIsLiarCursorOn
PUBLIC	?appSetSoftwareCursor@@YAPAU_object@@PAU1@0@Z	; appSetSoftwareCursor
PUBLIC	?appSetHardwareCursor@@YAPAU_object@@PAU1@0@Z	; appSetHardwareCursor
PUBLIC	?appSetConnectData@@YAPAU_object@@PAU1@0@Z	; appSetConnectData
PUBLIC	?appGetConnectData@@YAPAU_object@@PAU1@0@Z	; appGetConnectData
PUBLIC	?appGetRandom@@YAPAU_object@@PAU1@0@Z		; appGetRandom
PUBLIC	?appGetRotatingDirection@@YAPAU_object@@PAU1@0@Z ; appGetRotatingDirection
PUBLIC	?appGetDegreeDifference@@YAPAU_object@@PAU1@0@Z	; appGetDegreeDifference
PUBLIC	?appSleep@@YAPAU_object@@PAU1@0@Z		; appSleep
PUBLIC	?appSetDefaultFontName@@YAPAU_object@@PAU1@0@Z	; appSetDefaultFontName
PUBLIC	?appSetGuildSymbolPath@@YAPAU_object@@PAU1@0@Z	; appSetGuildSymbolPath
PUBLIC	?appEnableSpecialCameraMode@@YAPAU_object@@PAU1@0@Z ; appEnableSpecialCameraMode
PUBLIC	?appSetCameraSpeed@@YAPAU_object@@PAU1@0@Z	; appSetCameraSpeed
PUBLIC	?appIsFileExist@@YAPAU_object@@PAU1@0@Z		; appIsFileExist
PUBLIC	?appSetCameraSetting@@YAPAU_object@@PAU1@0@Z	; appSetCameraSetting
PUBLIC	?appSaveCameraSetting@@YAPAU_object@@PAU1@0@Z	; appSaveCameraSetting
PUBLIC	?appLoadCameraSetting@@YAPAU_object@@PAU1@0@Z	; appLoadCameraSetting
PUBLIC	?appSetDefaultCamera@@YAPAU_object@@PAU1@0@Z	; appSetDefaultCamera
PUBLIC	?appSetSightRange@@YAPAU_object@@PAU1@0@Z	; appSetSightRange
PUBLIC	?apptestGetAccumulationTime@@YAPAU_object@@PAU1@0@Z ; apptestGetAccumulationTime
PUBLIC	?apptestResetAccumulationTime@@YAPAU_object@@PAU1@0@Z ; apptestResetAccumulationTime
PUBLIC	?apptestSetSpecularColor@@YAPAU_object@@PAU1@0@Z ; apptestSetSpecularColor
PUBLIC	?appSetVisibleNotice@@YAPAU_object@@PAU1@0@Z	; appSetVisibleNotice
PUBLIC	?appIsVisibleNotice@@YAPAU_object@@PAU1@0@Z	; appIsVisibleNotice
PUBLIC	?appEnableTestServerFlag@@YAPAU_object@@PAU1@0@Z ; appEnableTestServerFlag
PUBLIC	?appIsEnableTestServerFlag@@YAPAU_object@@PAU1@0@Z ; appIsEnableTestServerFlag
PUBLIC	??0CTextLineLoader@@QAE@PBD@Z			; CTextLineLoader::CTextLineLoader
PUBLIC	?GetLine@CTextLineLoader@@QAEPBDK@Z		; CTextLineLoader::GetLine
PUBLIC	?appOpenTextFile@@YAPAU_object@@PAU1@0@Z	; appOpenTextFile
PUBLIC	?appCloseTextFile@@YAPAU_object@@PAU1@0@Z	; appCloseTextFile
PUBLIC	?appGetTextFileLineCount@@YAPAU_object@@PAU1@0@Z ; appGetTextFileLineCount
PUBLIC	?appGetTextFileLine@@YAPAU_object@@PAU1@0@Z	; appGetTextFileLine
PUBLIC	?appSetGuildMarkPath@@YAPAU_object@@PAU1@0@Z	; appSetGuildMarkPath
PUBLIC	?appIsDevStage@@YAPAU_object@@PAU1@0@Z		; appIsDevStage
PUBLIC	?appIsTestStage@@YAPAU_object@@PAU1@0@Z		; appIsTestStage
PUBLIC	?appIsLiveStage@@YAPAU_object@@PAU1@0@Z		; appIsLiveStage
PUBLIC	?appLogoOpen@@YAPAU_object@@PAU1@0@Z		; appLogoOpen
PUBLIC	?appLogoUpdate@@YAPAU_object@@PAU1@0@Z		; appLogoUpdate
PUBLIC	?appLogoRender@@YAPAU_object@@PAU1@0@Z		; appLogoRender
PUBLIC	?appLogoClose@@YAPAU_object@@PAU1@0@Z		; appLogoClose
PUBLIC	??0?$CDynamicPoolEx@VCRotationDecorator@NEffectUpdateDecorator@@@@QAE@XZ ; CDynamicPoolEx<NEffectUpdateDecorator::CRotationDecorator>::CDynamicPoolEx<NEffectUpdateDecorator::CRotationDecorator>
PUBLIC	??1?$CDynamicPoolEx@VCRotationDecorator@NEffectUpdateDecorator@@@@UAE@XZ ; CDynamicPoolEx<NEffectUpdateDecorator::CRotationDecorator>::~CDynamicPoolEx<NEffectUpdateDecorator::CRotationDecorator>
PUBLIC	?Destroy@?$CDynamicPoolEx@VCRotationDecorator@NEffectUpdateDecorator@@@@QAEXXZ ; CDynamicPoolEx<NEffectUpdateDecorator::CRotationDecorator>::Destroy
PUBLIC	?Delete@?$CDynamicPoolEx@VCRotationDecorator@NEffectUpdateDecorator@@@@KAXPAVCRotationDecorator@NEffectUpdateDecorator@@@Z ; CDynamicPoolEx<NEffectUpdateDecorator::CRotationDecorator>::Delete
PUBLIC	?clear@?$vector@PAVCRotationDecorator@NEffectUpdateDecorator@@V?$allocator@PAVCRotationDecorator@NEffectUpdateDecorator@@@std@@@std@@QAEXXZ ; std::vector<NEffectUpdateDecorator::CRotationDecorator *,std::allocator<NEffectUpdateDecorator::CRotationDecorator *> >::clear
PUBLIC	?_Tidy@?$vector@PAVCRotationDecorator@NEffectUpdateDecorator@@V?$allocator@PAVCRotationDecorator@NEffectUpdateDecorator@@@std@@@std@@AAEXXZ ; std::vector<NEffectUpdateDecorator::CRotationDecorator *,std::allocator<NEffectUpdateDecorator::CRotationDecorator *> >::_Tidy
PUBLIC	??_G?$CDynamicPoolEx@VCRotationDecorator@NEffectUpdateDecorator@@@@UAEPAXI@Z ; CDynamicPoolEx<NEffectUpdateDecorator::CRotationDecorator>::`scalar deleting destructor'
PUBLIC	??0?$CDynamicPoolEx@VCGravityDecorator@NEffectUpdateDecorator@@@@QAE@XZ ; CDynamicPoolEx<NEffectUpdateDecorator::CGravityDecorator>::CDynamicPoolEx<NEffectUpdateDecorator::CGravityDecorator>
PUBLIC	??1?$CDynamicPoolEx@VCGravityDecorator@NEffectUpdateDecorator@@@@UAE@XZ ; CDynamicPoolEx<NEffectUpdateDecorator::CGravityDecorator>::~CDynamicPoolEx<NEffectUpdateDecorator::CGravityDecorator>
PUBLIC	?Destroy@?$CDynamicPoolEx@VCGravityDecorator@NEffectUpdateDecorator@@@@QAEXXZ ; CDynamicPoolEx<NEffectUpdateDecorator::CGravityDecorator>::Destroy
PUBLIC	?Delete@?$CDynamicPoolEx@VCGravityDecorator@NEffectUpdateDecorator@@@@KAXPAVCGravityDecorator@NEffectUpdateDecorator@@@Z ; CDynamicPoolEx<NEffectUpdateDecorator::CGravityDecorator>::Delete
PUBLIC	?clear@?$vector@PAVCGravityDecorator@NEffectUpdateDecorator@@V?$allocator@PAVCGravityDecorator@NEffectUpdateDecorator@@@std@@@std@@QAEXXZ ; std::vector<NEffectUpdateDecorator::CGravityDecorator *,std::allocator<NEffectUpdateDecorator::CGravityDecorator *> >::clear
PUBLIC	?_Tidy@?$vector@PAVCGravityDecorator@NEffectUpdateDecorator@@V?$allocator@PAVCGravityDecorator@NEffectUpdateDecorator@@@std@@@std@@AAEXXZ ; std::vector<NEffectUpdateDecorator::CGravityDecorator *,std::allocator<NEffectUpdateDecorator::CGravityDecorator *> >::_Tidy
PUBLIC	??_G?$CDynamicPoolEx@VCGravityDecorator@NEffectUpdateDecorator@@@@UAEPAXI@Z ; CDynamicPoolEx<NEffectUpdateDecorator::CGravityDecorator>::`scalar deleting destructor'
PUBLIC	??0?$CDynamicPoolEx@VCAirResistanceDecorator@NEffectUpdateDecorator@@@@QAE@XZ ; CDynamicPoolEx<NEffectUpdateDecorator::CAirResistanceDecorator>::CDynamicPoolEx<NEffectUpdateDecorator::CAirResistanceDecorator>
PUBLIC	??1?$CDynamicPoolEx@VCAirResistanceDecorator@NEffectUpdateDecorator@@@@UAE@XZ ; CDynamicPoolEx<NEffectUpdateDecorator::CAirResistanceDecorator>::~CDynamicPoolEx<NEffectUpdateDecorator::CAirResistanceDecorator>
PUBLIC	?Destroy@?$CDynamicPoolEx@VCAirResistanceDecorator@NEffectUpdateDecorator@@@@QAEXXZ ; CDynamicPoolEx<NEffectUpdateDecorator::CAirResistanceDecorator>::Destroy
PUBLIC	?Delete@?$CDynamicPoolEx@VCAirResistanceDecorator@NEffectUpdateDecorator@@@@KAXPAVCAirResistanceDecorator@NEffectUpdateDecorator@@@Z ; CDynamicPoolEx<NEffectUpdateDecorator::CAirResistanceDecorator>::Delete
PUBLIC	?clear@?$vector@PAVCAirResistanceDecorator@NEffectUpdateDecorator@@V?$allocator@PAVCAirResistanceDecorator@NEffectUpdateDecorator@@@std@@@std@@QAEXXZ ; std::vector<NEffectUpdateDecorator::CAirResistanceDecorator *,std::allocator<NEffectUpdateDecorator::CAirResistanceDecorator *> >::clear
PUBLIC	?_Tidy@?$vector@PAVCAirResistanceDecorator@NEffectUpdateDecorator@@V?$allocator@PAVCAirResistanceDecorator@NEffectUpdateDecorator@@@std@@@std@@AAEXXZ ; std::vector<NEffectUpdateDecorator::CAirResistanceDecorator *,std::allocator<NEffectUpdateDecorator::CAirResistanceDecorator *> >::_Tidy
PUBLIC	??_G?$CDynamicPoolEx@VCAirResistanceDecorator@NEffectUpdateDecorator@@@@UAEPAXI@Z ; CDynamicPoolEx<NEffectUpdateDecorator::CAirResistanceDecorator>::`scalar deleting destructor'
PUBLIC	??0?$CDynamicPoolEx@VCTextureAnimationRandomDecorator@NEffectUpdateDecorator@@@@QAE@XZ ; CDynamicPoolEx<NEffectUpdateDecorator::CTextureAnimationRandomDecorator>::CDynamicPoolEx<NEffectUpdateDecorator::CTextureAnimationRandomDecorator>
PUBLIC	??1?$CDynamicPoolEx@VCTextureAnimationRandomDecorator@NEffectUpdateDecorator@@@@UAE@XZ ; CDynamicPoolEx<NEffectUpdateDecorator::CTextureAnimationRandomDecorator>::~CDynamicPoolEx<NEffectUpdateDecorator::CTextureAnimationRandomDecorator>
PUBLIC	?Destroy@?$CDynamicPoolEx@VCTextureAnimationRandomDecorator@NEffectUpdateDecorator@@@@QAEXXZ ; CDynamicPoolEx<NEffectUpdateDecorator::CTextureAnimationRandomDecorator>::Destroy
PUBLIC	?Delete@?$CDynamicPoolEx@VCTextureAnimationRandomDecorator@NEffectUpdateDecorator@@@@KAXPAVCTextureAnimationRandomDecorator@NEffectUpdateDecorator@@@Z ; CDynamicPoolEx<NEffectUpdateDecorator::CTextureAnimationRandomDecorator>::Delete
PUBLIC	?clear@?$vector@PAVCTextureAnimationRandomDecorator@NEffectUpdateDecorator@@V?$allocator@PAVCTextureAnimationRandomDecorator@NEffectUpdateDecorator@@@std@@@std@@QAEXXZ ; std::vector<NEffectUpdateDecorator::CTextureAnimationRandomDecorator *,std::allocator<NEffectUpdateDecorator::CTextureAnimationRandomDecorator *> >::clear
PUBLIC	?_Tidy@?$vector@PAVCTextureAnimationRandomDecorator@NEffectUpdateDecorator@@V?$allocator@PAVCTextureAnimationRandomDecorator@NEffectUpdateDecorator@@@std@@@std@@AAEXXZ ; std::vector<NEffectUpdateDecorator::CTextureAnimationRandomDecorator *,std::allocator<NEffectUpdateDecorator::CTextureAnimationRandomDecorator *> >::_Tidy
PUBLIC	??_G?$CDynamicPoolEx@VCTextureAnimationRandomDecorator@NEffectUpdateDecorator@@@@UAEPAXI@Z ; CDynamicPoolEx<NEffectUpdateDecorator::CTextureAnimationRandomDecorator>::`scalar deleting destructor'
PUBLIC	??0?$CDynamicPoolEx@VCTextureAnimationCCWDecorator@NEffectUpdateDecorator@@@@QAE@XZ ; CDynamicPoolEx<NEffectUpdateDecorator::CTextureAnimationCCWDecorator>::CDynamicPoolEx<NEffectUpdateDecorator::CTextureAnimationCCWDecorator>
PUBLIC	??1?$CDynamicPoolEx@VCTextureAnimationCCWDecorator@NEffectUpdateDecorator@@@@UAE@XZ ; CDynamicPoolEx<NEffectUpdateDecorator::CTextureAnimationCCWDecorator>::~CDynamicPoolEx<NEffectUpdateDecorator::CTextureAnimationCCWDecorator>
PUBLIC	?Destroy@?$CDynamicPoolEx@VCTextureAnimationCCWDecorator@NEffectUpdateDecorator@@@@QAEXXZ ; CDynamicPoolEx<NEffectUpdateDecorator::CTextureAnimationCCWDecorator>::Destroy
PUBLIC	?Delete@?$CDynamicPoolEx@VCTextureAnimationCCWDecorator@NEffectUpdateDecorator@@@@KAXPAVCTextureAnimationCCWDecorator@NEffectUpdateDecorator@@@Z ; CDynamicPoolEx<NEffectUpdateDecorator::CTextureAnimationCCWDecorator>::Delete
PUBLIC	?clear@?$vector@PAVCTextureAnimationCCWDecorator@NEffectUpdateDecorator@@V?$allocator@PAVCTextureAnimationCCWDecorator@NEffectUpdateDecorator@@@std@@@std@@QAEXXZ ; std::vector<NEffectUpdateDecorator::CTextureAnimationCCWDecorator *,std::allocator<NEffectUpdateDecorator::CTextureAnimationCCWDecorator *> >::clear
PUBLIC	?_Tidy@?$vector@PAVCTextureAnimationCCWDecorator@NEffectUpdateDecorator@@V?$allocator@PAVCTextureAnimationCCWDecorator@NEffectUpdateDecorator@@@std@@@std@@AAEXXZ ; std::vector<NEffectUpdateDecorator::CTextureAnimationCCWDecorator *,std::allocator<NEffectUpdateDecorator::CTextureAnimationCCWDecorator *> >::_Tidy
PUBLIC	??_G?$CDynamicPoolEx@VCTextureAnimationCCWDecorator@NEffectUpdateDecorator@@@@UAEPAXI@Z ; CDynamicPoolEx<NEffectUpdateDecorator::CTextureAnimationCCWDecorator>::`scalar deleting destructor'
PUBLIC	??0?$CDynamicPoolEx@VCTextureAnimationCWDecorator@NEffectUpdateDecorator@@@@QAE@XZ ; CDynamicPoolEx<NEffectUpdateDecorator::CTextureAnimationCWDecorator>::CDynamicPoolEx<NEffectUpdateDecorator::CTextureAnimationCWDecorator>
PUBLIC	??1?$CDynamicPoolEx@VCTextureAnimationCWDecorator@NEffectUpdateDecorator@@@@UAE@XZ ; CDynamicPoolEx<NEffectUpdateDecorator::CTextureAnimationCWDecorator>::~CDynamicPoolEx<NEffectUpdateDecorator::CTextureAnimationCWDecorator>
PUBLIC	?Destroy@?$CDynamicPoolEx@VCTextureAnimationCWDecorator@NEffectUpdateDecorator@@@@QAEXXZ ; CDynamicPoolEx<NEffectUpdateDecorator::CTextureAnimationCWDecorator>::Destroy
PUBLIC	?Delete@?$CDynamicPoolEx@VCTextureAnimationCWDecorator@NEffectUpdateDecorator@@@@KAXPAVCTextureAnimationCWDecorator@NEffectUpdateDecorator@@@Z ; CDynamicPoolEx<NEffectUpdateDecorator::CTextureAnimationCWDecorator>::Delete
PUBLIC	?clear@?$vector@PAVCTextureAnimationCWDecorator@NEffectUpdateDecorator@@V?$allocator@PAVCTextureAnimationCWDecorator@NEffectUpdateDecorator@@@std@@@std@@QAEXXZ ; std::vector<NEffectUpdateDecorator::CTextureAnimationCWDecorator *,std::allocator<NEffectUpdateDecorator::CTextureAnimationCWDecorator *> >::clear
PUBLIC	?_Tidy@?$vector@PAVCTextureAnimationCWDecorator@NEffectUpdateDecorator@@V?$allocator@PAVCTextureAnimationCWDecorator@NEffectUpdateDecorator@@@std@@@std@@AAEXXZ ; std::vector<NEffectUpdateDecorator::CTextureAnimationCWDecorator *,std::allocator<NEffectUpdateDecorator::CTextureAnimationCWDecorator *> >::_Tidy
PUBLIC	??_G?$CDynamicPoolEx@VCTextureAnimationCWDecorator@NEffectUpdateDecorator@@@@UAEPAXI@Z ; CDynamicPoolEx<NEffectUpdateDecorator::CTextureAnimationCWDecorator>::`scalar deleting destructor'
PUBLIC	??0?$CDynamicPoolEx@VCNullDecorator@NEffectUpdateDecorator@@@@QAE@XZ ; CDynamicPoolEx<NEffectUpdateDecorator::CNullDecorator>::CDynamicPoolEx<NEffectUpdateDecorator::CNullDecorator>
PUBLIC	??1?$CDynamicPoolEx@VCNullDecorator@NEffectUpdateDecorator@@@@UAE@XZ ; CDynamicPoolEx<NEffectUpdateDecorator::CNullDecorator>::~CDynamicPoolEx<NEffectUpdateDecorator::CNullDecorator>
PUBLIC	?Destroy@?$CDynamicPoolEx@VCNullDecorator@NEffectUpdateDecorator@@@@QAEXXZ ; CDynamicPoolEx<NEffectUpdateDecorator::CNullDecorator>::Destroy
PUBLIC	?Delete@?$CDynamicPoolEx@VCNullDecorator@NEffectUpdateDecorator@@@@KAXPAVCNullDecorator@NEffectUpdateDecorator@@@Z ; CDynamicPoolEx<NEffectUpdateDecorator::CNullDecorator>::Delete
PUBLIC	?clear@?$vector@PAVCNullDecorator@NEffectUpdateDecorator@@V?$allocator@PAVCNullDecorator@NEffectUpdateDecorator@@@std@@@std@@QAEXXZ ; std::vector<NEffectUpdateDecorator::CNullDecorator *,std::allocator<NEffectUpdateDecorator::CNullDecorator *> >::clear
PUBLIC	?_Tidy@?$vector@PAVCNullDecorator@NEffectUpdateDecorator@@V?$allocator@PAVCNullDecorator@NEffectUpdateDecorator@@@std@@@std@@AAEXXZ ; std::vector<NEffectUpdateDecorator::CNullDecorator *,std::allocator<NEffectUpdateDecorator::CNullDecorator *> >::_Tidy
PUBLIC	??_G?$CDynamicPoolEx@VCNullDecorator@NEffectUpdateDecorator@@@@UAEPAXI@Z ; CDynamicPoolEx<NEffectUpdateDecorator::CNullDecorator>::`scalar deleting destructor'
PUBLIC	??0?$CDynamicPoolEx@VCHeaderDecorator@NEffectUpdateDecorator@@@@QAE@XZ ; CDynamicPoolEx<NEffectUpdateDecorator::CHeaderDecorator>::CDynamicPoolEx<NEffectUpdateDecorator::CHeaderDecorator>
PUBLIC	??1?$CDynamicPoolEx@VCHeaderDecorator@NEffectUpdateDecorator@@@@UAE@XZ ; CDynamicPoolEx<NEffectUpdateDecorator::CHeaderDecorator>::~CDynamicPoolEx<NEffectUpdateDecorator::CHeaderDecorator>
PUBLIC	?Destroy@?$CDynamicPoolEx@VCHeaderDecorator@NEffectUpdateDecorator@@@@QAEXXZ ; CDynamicPoolEx<NEffectUpdateDecorator::CHeaderDecorator>::Destroy
PUBLIC	?Delete@?$CDynamicPoolEx@VCHeaderDecorator@NEffectUpdateDecorator@@@@KAXPAVCHeaderDecorator@NEffectUpdateDecorator@@@Z ; CDynamicPoolEx<NEffectUpdateDecorator::CHeaderDecorator>::Delete
PUBLIC	?clear@?$vector@PAVCHeaderDecorator@NEffectUpdateDecorator@@V?$allocator@PAVCHeaderDecorator@NEffectUpdateDecorator@@@std@@@std@@QAEXXZ ; std::vector<NEffectUpdateDecorator::CHeaderDecorator *,std::allocator<NEffectUpdateDecorator::CHeaderDecorator *> >::clear
PUBLIC	?_Tidy@?$vector@PAVCHeaderDecorator@NEffectUpdateDecorator@@V?$allocator@PAVCHeaderDecorator@NEffectUpdateDecorator@@@std@@@std@@AAEXXZ ; std::vector<NEffectUpdateDecorator::CHeaderDecorator *,std::allocator<NEffectUpdateDecorator::CHeaderDecorator *> >::_Tidy
PUBLIC	??_G?$CDynamicPoolEx@VCHeaderDecorator@NEffectUpdateDecorator@@@@UAEPAXI@Z ; CDynamicPoolEx<NEffectUpdateDecorator::CHeaderDecorator>::`scalar deleting destructor'
PUBLIC	??$for_each@V?$_Vector_iterator@V?$_Vector_val@U?$_Simple_types@PAVCHeaderDecorator@NEffectUpdateDecorator@@@std@@@std@@@std@@P6AXPAVCHeaderDecorator@NEffectUpdateDecorator@@@Z@std@@YAP6AXPAVCHeaderDecorator@NEffectUpdateDecorator@@@ZV?$_Vector_iterator@V?$_Vector_val@U?$_Simple_types@PAVCHeaderDecorator@NEffectUpdateDecorator@@@std@@@std@@@0@1P6AX0@Z@Z ; std::for_each<std::_Vector_iterator<std::_Vector_val<std::_Simple_types<NEffectUpdateDecorator::CHeaderDecorator *> > >,void (__cdecl*)(NEffectUpdateDecorator::CHeaderDecorator *)>
PUBLIC	??$for_each@V?$_Vector_iterator@V?$_Vector_val@U?$_Simple_types@PAVCNullDecorator@NEffectUpdateDecorator@@@std@@@std@@@std@@P6AXPAVCNullDecorator@NEffectUpdateDecorator@@@Z@std@@YAP6AXPAVCNullDecorator@NEffectUpdateDecorator@@@ZV?$_Vector_iterator@V?$_Vector_val@U?$_Simple_types@PAVCNullDecorator@NEffectUpdateDecorator@@@std@@@std@@@0@1P6AX0@Z@Z ; std::for_each<std::_Vector_iterator<std::_Vector_val<std::_Simple_types<NEffectUpdateDecorator::CNullDecorator *> > >,void (__cdecl*)(NEffectUpdateDecorator::CNullDecorator *)>
PUBLIC	??$for_each@V?$_Vector_iterator@V?$_Vector_val@U?$_Simple_types@PAVCTextureAnimationCWDecorator@NEffectUpdateDecorator@@@std@@@std@@@std@@P6AXPAVCTextureAnimationCWDecorator@NEffectUpdateDecorator@@@Z@std@@YAP6AXPAVCTextureAnimationCWDecorator@NEffectUpdateDecorator@@@ZV?$_Vector_iterator@V?$_Vector_val@U?$_Simple_types@PAVCTextureAnimationCWDecorator@NEffectUpdateDecorator@@@std@@@std@@@0@1P6AX0@Z@Z ; std::for_each<std::_Vector_iterator<std::_Vector_val<std::_Simple_types<NEffectUpdateDecorator::CTextureAnimationCWDecorator *> > >,void (__cdecl*)(NEffectUpdateDecorator::CTextureAnimationCWDecorator *)>
PUBLIC	??$for_each@V?$_Vector_iterator@V?$_Vector_val@U?$_Simple_types@PAVCTextureAnimationCCWDecorator@NEffectUpdateDecorator@@@std@@@std@@@std@@P6AXPAVCTextureAnimationCCWDecorator@NEffectUpdateDecorator@@@Z@std@@YAP6AXPAVCTextureAnimationCCWDecorator@NEffectUpdateDecorator@@@ZV?$_Vector_iterator@V?$_Vector_val@U?$_Simple_types@PAVCTextureAnimationCCWDecorator@NEffectUpdateDecorator@@@std@@@std@@@0@1P6AX0@Z@Z ; std::for_each<std::_Vector_iterator<std::_Vector_val<std::_Simple_types<NEffectUpdateDecorator::CTextureAnimationCCWDecorator *> > >,void (__cdecl*)(NEffectUpdateDecorator::CTextureAnimationCCWDecorator *)>
PUBLIC	??$for_each@V?$_Vector_iterator@V?$_Vector_val@U?$_Simple_types@PAVCTextureAnimationRandomDecorator@NEffectUpdateDecorator@@@std@@@std@@@std@@P6AXPAVCTextureAnimationRandomDecorator@NEffectUpdateDecorator@@@Z@std@@YAP6AXPAVCTextureAnimationRandomDecorator@NEffectUpdateDecorator@@@ZV?$_Vector_iterator@V?$_Vector_val@U?$_Simple_types@PAVCTextureAnimationRandomDecorator@NEffectUpdateDecorator@@@std@@@std@@@0@1P6AX0@Z@Z ; std::for_each<std::_Vector_iterator<std::_Vector_val<std::_Simple_types<NEffectUpdateDecorator::CTextureAnimationRandomDecorator *> > >,void (__cdecl*)(NEffectUpdateDecorator::CTextureAnimationRandomDecorator *)>
PUBLIC	??$for_each@V?$_Vector_iterator@V?$_Vector_val@U?$_Simple_types@PAVCAirResistanceDecorator@NEffectUpdateDecorator@@@std@@@std@@@std@@P6AXPAVCAirResistanceDecorator@NEffectUpdateDecorator@@@Z@std@@YAP6AXPAVCAirResistanceDecorator@NEffectUpdateDecorator@@@ZV?$_Vector_iterator@V?$_Vector_val@U?$_Simple_types@PAVCAirResistanceDecorator@NEffectUpdateDecorator@@@std@@@std@@@0@1P6AX0@Z@Z ; std::for_each<std::_Vector_iterator<std::_Vector_val<std::_Simple_types<NEffectUpdateDecorator::CAirResistanceDecorator *> > >,void (__cdecl*)(NEffectUpdateDecorator::CAirResistanceDecorator *)>
PUBLIC	??$for_each@V?$_Vector_iterator@V?$_Vector_val@U?$_Simple_types@PAVCGravityDecorator@NEffectUpdateDecorator@@@std@@@std@@@std@@P6AXPAVCGravityDecorator@NEffectUpdateDecorator@@@Z@std@@YAP6AXPAVCGravityDecorator@NEffectUpdateDecorator@@@ZV?$_Vector_iterator@V?$_Vector_val@U?$_Simple_types@PAVCGravityDecorator@NEffectUpdateDecorator@@@std@@@std@@@0@1P6AX0@Z@Z ; std::for_each<std::_Vector_iterator<std::_Vector_val<std::_Simple_types<NEffectUpdateDecorator::CGravityDecorator *> > >,void (__cdecl*)(NEffectUpdateDecorator::CGravityDecorator *)>
PUBLIC	??$for_each@V?$_Vector_iterator@V?$_Vector_val@U?$_Simple_types@PAVCRotationDecorator@NEffectUpdateDecorator@@@std@@@std@@@std@@P6AXPAVCRotationDecorator@NEffectUpdateDecorator@@@Z@std@@YAP6AXPAVCRotationDecorator@NEffectUpdateDecorator@@@ZV?$_Vector_iterator@V?$_Vector_val@U?$_Simple_types@PAVCRotationDecorator@NEffectUpdateDecorator@@@std@@@std@@@0@1P6AX0@Z@Z ; std::for_each<std::_Vector_iterator<std::_Vector_val<std::_Simple_types<NEffectUpdateDecorator::CRotationDecorator *> > >,void (__cdecl*)(NEffectUpdateDecorator::CRotationDecorator *)>
PUBLIC	??$_Destroy_range@V?$allocator@PAVCHeaderDecorator@NEffectUpdateDecorator@@@std@@@std@@YAXPAPAVCHeaderDecorator@NEffectUpdateDecorator@@QAPAV12@AAV?$allocator@PAVCHeaderDecorator@NEffectUpdateDecorator@@@0@@Z ; std::_Destroy_range<std::allocator<NEffectUpdateDecorator::CHeaderDecorator *> >
PUBLIC	??$_Destroy_range@V?$allocator@PAVCNullDecorator@NEffectUpdateDecorator@@@std@@@std@@YAXPAPAVCNullDecorator@NEffectUpdateDecorator@@QAPAV12@AAV?$allocator@PAVCNullDecorator@NEffectUpdateDecorator@@@0@@Z ; std::_Destroy_range<std::allocator<NEffectUpdateDecorator::CNullDecorator *> >
PUBLIC	??$_Destroy_range@V?$allocator@PAVCTextureAnimationCWDecorator@NEffectUpdateDecorator@@@std@@@std@@YAXPAPAVCTextureAnimationCWDecorator@NEffectUpdateDecorator@@QAPAV12@AAV?$allocator@PAVCTextureAnimationCWDecorator@NEffectUpdateDecorator@@@0@@Z ; std::_Destroy_range<std::allocator<NEffectUpdateDecorator::CTextureAnimationCWDecorator *> >
PUBLIC	??$_Destroy_range@V?$allocator@PAVCTextureAnimationCCWDecorator@NEffectUpdateDecorator@@@std@@@std@@YAXPAPAVCTextureAnimationCCWDecorator@NEffectUpdateDecorator@@QAPAV12@AAV?$allocator@PAVCTextureAnimationCCWDecorator@NEffectUpdateDecorator@@@0@@Z ; std::_Destroy_range<std::allocator<NEffectUpdateDecorator::CTextureAnimationCCWDecorator *> >
PUBLIC	??$_Destroy_range@V?$allocator@PAVCTextureAnimationRandomDecorator@NEffectUpdateDecorator@@@std@@@std@@YAXPAPAVCTextureAnimationRandomDecorator@NEffectUpdateDecorator@@QAPAV12@AAV?$allocator@PAVCTextureAnimationRandomDecorator@NEffectUpdateDecorator@@@0@@Z ; std::_Destroy_range<std::allocator<NEffectUpdateDecorator::CTextureAnimationRandomDecorator *> >
PUBLIC	??$_Destroy_range@V?$allocator@PAVCAirResistanceDecorator@NEffectUpdateDecorator@@@std@@@std@@YAXPAPAVCAirResistanceDecorator@NEffectUpdateDecorator@@QAPAV12@AAV?$allocator@PAVCAirResistanceDecorator@NEffectUpdateDecorator@@@0@@Z ; std::_Destroy_range<std::allocator<NEffectUpdateDecorator::CAirResistanceDecorator *> >
PUBLIC	??$_Destroy_range@V?$allocator@PAVCGravityDecorator@NEffectUpdateDecorator@@@std@@@std@@YAXPAPAVCGravityDecorator@NEffectUpdateDecorator@@QAPAV12@AAV?$allocator@PAVCGravityDecorator@NEffectUpdateDecorator@@@0@@Z ; std::_Destroy_range<std::allocator<NEffectUpdateDecorator::CGravityDecorator *> >
PUBLIC	??$_Destroy_range@V?$allocator@PAVCRotationDecorator@NEffectUpdateDecorator@@@std@@@std@@YAXPAPAVCRotationDecorator@NEffectUpdateDecorator@@QAPAV12@AAV?$allocator@PAVCRotationDecorator@NEffectUpdateDecorator@@@0@@Z ; std::_Destroy_range<std::allocator<NEffectUpdateDecorator::CRotationDecorator *> >
PUBLIC	??_C@_00CNPNBAHC@@				; `string'
PUBLIC	?ms_singleton@?$CSingleton@VCPythonLauncher@@@@0PAVCPythonLauncher@@A ; CSingleton<CPythonLauncher>::ms_singleton
PUBLIC	?ms_singleton@?$CSingleton@VCWindowManager@UI@@@@0PAVCWindowManager@UI@@A ; CSingleton<UI::CWindowManager>::ms_singleton
PUBLIC	?ms_kPool@?$CPooledObject@VCHeaderDecorator@NEffectUpdateDecorator@@@@1V?$CDynamicPoolEx@VCHeaderDecorator@NEffectUpdateDecorator@@@@A ; CPooledObject<NEffectUpdateDecorator::CHeaderDecorator>::ms_kPool
PUBLIC	?ms_kPool@?$CPooledObject@VCNullDecorator@NEffectUpdateDecorator@@@@1V?$CDynamicPoolEx@VCNullDecorator@NEffectUpdateDecorator@@@@A ; CPooledObject<NEffectUpdateDecorator::CNullDecorator>::ms_kPool
PUBLIC	?ms_kPool@?$CPooledObject@VCTextureAnimationCWDecorator@NEffectUpdateDecorator@@@@1V?$CDynamicPoolEx@VCTextureAnimationCWDecorator@NEffectUpdateDecorator@@@@A ; CPooledObject<NEffectUpdateDecorator::CTextureAnimationCWDecorator>::ms_kPool
PUBLIC	?ms_kPool@?$CPooledObject@VCTextureAnimationCCWDecorator@NEffectUpdateDecorator@@@@1V?$CDynamicPoolEx@VCTextureAnimationCCWDecorator@NEffectUpdateDecorator@@@@A ; CPooledObject<NEffectUpdateDecorator::CTextureAnimationCCWDecorator>::ms_kPool
PUBLIC	?ms_kPool@?$CPooledObject@VCTextureAnimationRandomDecorator@NEffectUpdateDecorator@@@@1V?$CDynamicPoolEx@VCTextureAnimationRandomDecorator@NEffectUpdateDecorator@@@@A ; CPooledObject<NEffectUpdateDecorator::CTextureAnimationRandomDecorator>::ms_kPool
PUBLIC	?ms_kPool@?$CPooledObject@VCAirResistanceDecorator@NEffectUpdateDecorator@@@@1V?$CDynamicPoolEx@VCAirResistanceDecorator@NEffectUpdateDecorator@@@@A ; CPooledObject<NEffectUpdateDecorator::CAirResistanceDecorator>::ms_kPool
PUBLIC	?ms_kPool@?$CPooledObject@VCGravityDecorator@NEffectUpdateDecorator@@@@1V?$CDynamicPoolEx@VCGravityDecorator@NEffectUpdateDecorator@@@@A ; CPooledObject<NEffectUpdateDecorator::CGravityDecorator>::ms_kPool
PUBLIC	?ms_kPool@?$CPooledObject@VCRotationDecorator@NEffectUpdateDecorator@@@@1V?$CDynamicPoolEx@VCRotationDecorator@NEffectUpdateDecorator@@@@A ; CPooledObject<NEffectUpdateDecorator::CRotationDecorator>::ms_kPool
PUBLIC	?ms_singleton@?$singleton@VCGuildMarkManager@@@@0PAVCGuildMarkManager@@A ; singleton<CGuildMarkManager>::ms_singleton
PUBLIC	?ms_singleton@?$CSingleton@VCMovieMan@@@@0PAVCMovieMan@@A ; CSingleton<CMovieMan>::ms_singleton
PUBLIC	?ms_singleton@?$CSingleton@VCCameraManager@@@@0PAVCCameraManager@@A ; CSingleton<CCameraManager>::ms_singleton
PUBLIC	??_C@_01KBJDNOO@i@				; `string'
PUBLIC	??_C@_0M@OEKALNFB@RENDER_GAME@			; `string'
PUBLIC	??_C@_01LKDEMHDF@s@				; `string'
PUBLIC	??_C@_02JDPG@rb@				; `string'
PUBLIC	??_C@_02OIKAIHIF@s?$CD@				; `string'
PUBLIC	??_C@_03GLKMLICL@iii@				; `string'
PUBLIC	?ms_singleton@?$CSingleton@VCEterPackManager@@@@0PAVCEterPackManager@@A ; CSingleton<CEterPackManager>::ms_singleton
PUBLIC	??_C@_04EOBPFJGD@ffff@				; `string'
PUBLIC	??_C@_01INIBCBCB@f@				; `string'
PUBLIC	??_C@_02PINLEBJB@fi@				; `string'
PUBLIC	??_C@_02PDIHAGKM@ii@				; `string'
PUBLIC	??_C@_0BH@GNAGLJEE@Wrong?5Cursor?5Name?5?$FL?$CFd?$FN@ ; `string'
PUBLIC	??_C@_02OCDGCAAK@si@				; `string'
PUBLIC	??_C@_04JCAPCJAP@?4tga@				; `string'
PUBLIC	??_C@_0L@OAAOKAFA@IsDevStage@			; `string'
PUBLIC	??_C@_0M@ICBDOOOG@IsTestStage@			; `string'
PUBLIC	??_C@_0M@NJBHEFPA@IsLiveStage@			; `string'
PUBLIC	??_C@_0BG@EOCGHNJF@SetTextTailLivingTime@	; `string'
PUBLIC	??_C@_0BG@DEJFIMMP@EnablePerformanceTime@	; `string'
PUBLIC	??_C@_0BD@PILPKKLH@SetHairColorEnable@		; `string'
PUBLIC	??_C@_0BH@PJOFIHBE@SetArmorSpecularEnable@	; `string'
PUBLIC	??_C@_0BI@ONHBEMJA@SetWeaponSpecularEnable@	; `string'
PUBLIC	??_C@_0BM@CMPMDOBN@SetSkillEffectUpgradeEnable@	; `string'
PUBLIC	??_C@_0CI@KEKBEMLJ@SetTwoHandedWeaponAttSpeedDecre@ ; `string'
PUBLIC	??_C@_0BD@CPFDKOFJ@SetRideHorseEnable@		; `string'
PUBLIC	??_C@_0BF@CEAHHILA@SetCameraMaxDistance@	; `string'
PUBLIC	??_C@_09ILNFAENI@SetMinFog@			; `string'
PUBLIC	??_C@_0N@KCIEBLLG@SetFrameSkip@			; `string'
PUBLIC	??_C@_0N@CLLAGICL@GetImageInfo@			; `string'
PUBLIC	??_C@_07NAJNLNAF@GetInfo@			; `string'
PUBLIC	??_C@_0L@HMEHDBP@UpdateGame@			; `string'
PUBLIC	??_C@_0L@ONMMANJD@RenderGame@			; `string'
PUBLIC	??_C@_04KLCPKPBE@Loop@				; `string'
PUBLIC	??_C@_06MIKANEJK@Create@			; `string'
PUBLIC	??_C@_07MNGBFJEN@Process@			; `string'
PUBLIC	??_C@_04LBABLPF@Exit@				; `string'
PUBLIC	??_C@_05BGKIEECB@Abort@				; `string'
PUBLIC	??_C@_0BA@PPCHHCMN@SetMouseHandler@		; `string'
PUBLIC	??_C@_0M@DHIFKLBN@IsExistFile@			; `string'
PUBLIC	??_C@_0M@KODKGGCI@GetFileList@			; `string'
PUBLIC	??_C@_09IADKBAEN@SetCamera@			; `string'
PUBLIC	??_C@_09KOHPDBNP@GetCamera@			; `string'
PUBLIC	??_C@_0P@LHFPHHJA@GetCameraPitch@		; `string'
PUBLIC	??_C@_0BC@JICDJDCH@GetCameraRotation@		; `string'
PUBLIC	??_C@_07CDIANBOE@GetTime@			; `string'
PUBLIC	??_C@_0O@JKNDJHIN@GetGlobalTime@		; `string'
PUBLIC	??_C@_0BD@HGCMJHC@GetGlobalTimeStamp@		; `string'
PUBLIC	??_C@_0N@JKLFODAC@GetUpdateFPS@			; `string'
PUBLIC	??_C@_0N@EHIMFGIG@GetRenderFPS@			; `string'
PUBLIC	??_C@_0N@HGIDFLAJ@RotateCamera@			; `string'
PUBLIC	??_C@_0M@PKAIAJKC@PitchCamera@			; `string'
PUBLIC	??_C@_0L@BGDDIOFP@ZoomCamera@			; `string'
PUBLIC	??_C@_0BC@FCGIGAKD@MovieRotateCamera@		; `string'
PUBLIC	??_C@_0BB@KFJAAFFB@MoviePitchCamera@		; `string'
PUBLIC	??_C@_0BA@ILLHHFGG@MovieZoomCamera@		; `string'
PUBLIC	??_C@_0BB@PJGDEPJO@MovieResetCamera@		; `string'
PUBLIC	??_C@_0BK@PBNANFFG@GetAvailableTextureMemory@	; `string'
PUBLIC	??_C@_0O@KFOAIOPC@GetRenderTime@		; `string'
PUBLIC	??_C@_0O@EPOIPAHO@GetUpdateTime@		; `string'
PUBLIC	??_C@_07EGHKJKFO@GetLoad@			; `string'
PUBLIC	??_C@_0N@KBJEAIDC@GetFaceSpeed@			; `string'
PUBLIC	??_C@_0N@FGHMKANF@GetFaceCount@			; `string'
PUBLIC	??_C@_06GHJACMIL@SetFPS@			; `string'
PUBLIC	??_C@_0BI@BPPNOEKE@SetGlobalCenterPosition@	; `string'
PUBLIC	??_C@_0BC@MCKFCFLJ@SetCenterPosition@		; `string'
PUBLIC	??_C@_0BC@DJJGDMOB@GetCursorPosition@		; `string'
PUBLIC	??_C@_09CIIBMEDP@GetRandom@			; `string'
PUBLIC	??_C@_0O@NFOAEJMI@RunPythonFile@		; `string'
PUBLIC	??_C@_0O@JGKOEJBF@IsWebPageMode@		; `string'
PUBLIC	??_C@_0M@LMDMBNNG@ShowWebPage@			; `string'
PUBLIC	??_C@_0M@CJKDPGGC@MoveWebPage@			; `string'
PUBLIC	??_C@_0M@HKOOBKOE@HideWebPage@			; `string'
PUBLIC	??_C@_09EJGJNKNL@IsPressed@			; `string'
PUBLIC	??_C@_09PKKOCJGB@SetCursor@			; `string'
PUBLIC	??_C@_09NEOLAIPD@GetCursor@			; `string'
PUBLIC	??_C@_0L@BIENLPGM@ShowCursor@			; `string'
PUBLIC	??_C@_0L@MGJDDPFG@HideCursor@			; `string'
PUBLIC	??_C@_0N@BFHCIAEF@IsShowCursor@			; `string'
PUBLIC	??_C@_0P@FMIDHOAE@IsLiarCursorOn@		; `string'
PUBLIC	??_C@_0BC@IDNDDKLI@SetSoftwareCursor@		; `string'
PUBLIC	??_C@_0BC@KKHIHHDJ@SetHardwareCursor@		; `string'
PUBLIC	??_C@_0P@KJLEKPPL@SetConnectData@		; `string'
PUBLIC	??_C@_0P@GHKKFFNH@GetConnectData@		; `string'
PUBLIC	??_C@_0BF@IMHAMDDH@GetRotatingDirection@	; `string'
PUBLIC	??_C@_0BE@JKNPCCAK@GetDegreeDifference@		; `string'
PUBLIC	??_C@_05PFDOMJEF@Sleep@				; `string'
PUBLIC	??_C@_0BD@CKMKHHJC@SetDefaultFontName@		; `string'
PUBLIC	??_C@_0BD@CENDFAOC@SetGuildSymbolPath@		; `string'
PUBLIC	??_C@_0BI@LNMJCGJN@EnableSpecialCameraMode@	; `string'
PUBLIC	??_C@_0P@NCLIAJKF@SetCameraSpeed@		; `string'
PUBLIC	??_C@_0BC@JPDLAHCD@SaveCameraSetting@		; `string'
PUBLIC	??_C@_0BC@KEOGBKMG@LoadCameraSetting@		; `string'
PUBLIC	??_C@_0BB@IPPGJFKO@SetDefaultCamera@		; `string'
PUBLIC	??_C@_0BB@JANPDNEC@SetCameraSetting@		; `string'
PUBLIC	??_C@_0O@MFMELJAK@SetSightRange@		; `string'
PUBLIC	??_C@_0M@LOHDPEAO@IsFileExist@			; `string'
PUBLIC	??_C@_0N@JAMKKFFG@OpenTextFile@			; `string'
PUBLIC	??_C@_0O@LNEGOIPA@CloseTextFile@		; `string'
PUBLIC	??_C@_0BF@BNHHEKFO@GetTextFileLineCount@	; `string'
PUBLIC	??_C@_0BA@HHNFKANE@GetTextFileLine@		; `string'
PUBLIC	??_C@_0BF@PBACFPCP@GetLocaleServiceName@	; `string'
PUBLIC	??_C@_0O@JDECMIPJ@GetLocaleName@		; `string'
PUBLIC	??_C@_0O@OKMLAHKI@GetLocalePath@		; `string'
PUBLIC	??_C@_0P@KMAINBBA@ForceSetLocale@		; `string'
PUBLIC	??_C@_0P@JHGEFJDO@LoadLocaleAddr@		; `string'
PUBLIC	??_C@_0P@BFJDMEJO@LoadLocaleData@		; `string'
PUBLIC	??_C@_0L@FAIOENFF@SetCHEONMA@			; `string'
PUBLIC	??_C@_09INPKBHN@IsCHEONMA@			; `string'
PUBLIC	??_C@_0BD@CEMKCGHA@GetDefaultCodePage@		; `string'
PUBLIC	??_C@_0N@HDAEMEAH@SetControlFP@			; `string'
PUBLIC	??_C@_0BB@IFMAFIHG@SetSpecularSpeed@		; `string'
PUBLIC	??_C@_0BI@DNKBNLNC@testGetAccumulationTime@	; `string'
PUBLIC	??_C@_0BK@PLDHJGMN@testResetAccumulationTime@	; `string'
PUBLIC	??_C@_0BF@KHKICLKO@testSetSpecularColor@	; `string'
PUBLIC	??_C@_0BB@MMPIECKB@SetVisibleNotice@		; `string'
PUBLIC	??_C@_0BA@NLDNPIOL@IsVisibleNotice@		; `string'
PUBLIC	??_C@_0BF@BOMOCGIP@EnableTestServerFlag@	; `string'
PUBLIC	??_C@_0BH@GBDECBIH@IsEnableTestServerFlag@	; `string'
PUBLIC	??_C@_0BB@DLDOCGLL@SetGuildMarkPath@		; `string'
PUBLIC	??_C@_0N@LIPHBNAO@OnLogoUpdate@			; `string'
PUBLIC	??_C@_0N@ELECBFOK@OnLogoRender@			; `string'
PUBLIC	??_C@_0L@JMMGDKPP@OnLogoOpen@			; `string'
PUBLIC	??_C@_0M@JMIFNMOK@OnLogoClose@			; `string'
PUBLIC	??_C@_03CGOPKBCD@app@				; `string'
PUBLIC	??_C@_09OKOJMLAA@INFO_ITEM@			; `string'
PUBLIC	??_C@_0L@FNNFPLHG@INFO_ACTOR@			; `string'
PUBLIC	??_C@_0M@KLBHMBMD@INFO_EFFECT@			; `string'
PUBLIC	??_C@_0O@FAGLOALJ@INFO_TEXTTAIL@		; `string'
PUBLIC	??_C@_0BG@KEIJCHNJ@DEGREE_DIRECTION_SAME@	; `string'
PUBLIC	??_C@_0BH@LNDFJAFE@DEGREE_DIRECTION_RIGHT@	; `string'
PUBLIC	??_C@_0BG@JGNHHMCM@DEGREE_DIRECTION_LEFT@	; `string'
PUBLIC	??_C@_07CJEJDFBD@VK_LEFT@			; `string'
PUBLIC	??_C@_08LOMCDCA@VK_RIGHT@			; `string'
PUBLIC	??_C@_05PIGLHCBF@VK_UP@				; `string'
PUBLIC	??_C@_07NLENKNCK@VK_DOWN@			; `string'
PUBLIC	??_C@_07OMPILPEG@VK_HOME@			; `string'
PUBLIC	??_C@_06LPJBNMHN@VK_END@			; `string'
PUBLIC	??_C@_09EABNPHOI@VK_DELETE@			; `string'
PUBLIC	??_C@_0L@BOHNMBC@DIK_ESCAPE@			; `string'
PUBLIC	??_C@_07CACBFKLO@DIK_ESC@			; `string'
PUBLIC	??_C@_05GCLPJNBN@DIK_1@				; `string'
PUBLIC	??_C@_05EJJCMONO@DIK_2@				; `string'
PUBLIC	??_C@_05FAIJPPJP@DIK_3@				; `string'
PUBLIC	??_C@_05BPMIGJFI@DIK_4@				; `string'
PUBLIC	??_C@_05GNDFIBJ@DIK_5@				; `string'
PUBLIC	??_C@_05CNPOALNK@DIK_6@				; `string'
PUBLIC	??_C@_05DEOFDKJL@DIK_7@				; `string'
PUBLIC	??_C@_05LDHNCGFE@DIK_8@				; `string'
PUBLIC	??_C@_05KKGGBHBF@DIK_9@				; `string'
PUBLIC	??_C@_05HLKEKMFM@DIK_0@				; `string'
PUBLIC	??_C@_09DOHACMKC@DIK_MINUS@			; `string'
PUBLIC	??_C@_0L@KKCLPAPI@DIK_EQUALS@			; `string'
PUBLIC	??_C@_08HHEEGKBL@DIK_BACK@			; `string'
PUBLIC	??_C@_07MODNCMBL@DIK_TAB@			; `string'
PUBLIC	??_C@_05HECPGLK@DIK_Q@				; `string'
PUBLIC	??_C@_05FBBIFBDM@DIK_W@				; `string'
PUBLIC	??_C@_05CJOMCBOP@DIK_E@				; `string'
PUBLIC	??_C@_05CMGPKFHJ@DIK_R@				; `string'
PUBLIC	??_C@_05HKDFACPP@DIK_T@				; `string'
PUBLIC	??_C@_05MPJLHMLC@DIK_Y@				; `string'
PUBLIC	??_C@_05GDCODDLO@DIK_U@				; `string'
PUBLIC	??_C@_05IFFJGOOD@DIK_I@				; `string'
PUBLIC	??_C@_05NDADMJGF@DIK_O@				; `string'
PUBLIC	??_C@_05BOFJMHPL@DIK_P@				; `string'
PUBLIC	??_C@_0N@EFJDLCEF@DIK_LBRACKET@			; `string'
PUBLIC	??_C@_0N@CBJBCLKG@DIK_RBRACKET@			; `string'
PUBLIC	??_C@_0L@JLNKBJCL@DIK_RETURN@			; `string'
PUBLIC	??_C@_0N@ODLLDAI@DIK_LCONTROL@			; `string'
PUBLIC	??_C@_05ENIAOEOL@DIK_A@				; `string'
PUBLIC	??_C@_05DFHEJEDI@DIK_S@				; `string'
PUBLIC	??_C@_05DAPHBAKO@DIK_D@				; `string'
PUBLIC	??_C@_05CMBHCCM@DIK_F@				; `string'
PUBLIC	??_C@_05BLNKEDGN@DIK_G@				; `string'
PUBLIC	??_C@_05JMECFPKC@DIK_H@				; `string'
PUBLIC	??_C@_05KOHEDNCA@DIK_J@				; `string'
PUBLIC	??_C@_05LHGPAMGB@DIK_K@				; `string'
PUBLIC	??_C@_05PICOJKKG@DIK_L@				; `string'
PUBLIC	??_C@_0O@NEECDLLB@DIK_SEMICOLON@		; `string'
PUBLIC	??_C@_0P@JDEKLKAM@DIK_APOSTROPHE@		; `string'
PUBLIC	??_C@_09MOGGLCIP@DIK_GRAVE@			; `string'
PUBLIC	??_C@_0L@GNGJHMON@DIK_LSHIFT@			; `string'
PUBLIC	??_C@_0O@DGKNNOHE@DIK_BACKSLASH@		; `string'
PUBLIC	??_C@_05OELGCPHB@DIK_Z@				; `string'
PUBLIC	??_C@_05NGIAENPD@DIK_X@				; `string'
PUBLIC	??_C@_05HPLGIGGJ@DIK_C@				; `string'
PUBLIC	??_C@_05EIADGAHN@DIK_V@				; `string'
PUBLIC	??_C@_05GGKNLHCI@DIK_B@				; `string'
PUBLIC	??_C@_05MKBIPICE@DIK_N@				; `string'
PUBLIC	??_C@_05OBDFKLOH@DIK_M@				; `string'
PUBLIC	??_C@_09PDEOJFIH@DIK_COMMA@			; `string'
PUBLIC	??_C@_0L@HHNLMNCM@DIK_PERIOD@			; `string'
PUBLIC	??_C@_09DKJEGHEH@DIK_SLASH@			; `string'
PUBLIC	??_C@_0L@FKIIJLHO@DIK_RSHIFT@			; `string'
PUBLIC	??_C@_0N@DHLLGHHC@DIK_MULTIPLY@			; `string'
PUBLIC	??_C@_08OHCJNNJ@DIK_LALT@			; `string'
PUBLIC	??_C@_09DGAMMAPJ@DIK_SPACE@			; `string'
PUBLIC	??_C@_0M@KEADBGIC@DIK_CAPITAL@			; `string'
PUBLIC	??_C@_06PEIHKKCD@DIK_F1@			; `string'
PUBLIC	??_C@_06NPKKPJOA@DIK_F2@			; `string'
PUBLIC	??_C@_06MGLBMIKB@DIK_F3@			; `string'
PUBLIC	??_C@_06IJPAFOGG@DIK_F4@			; `string'
PUBLIC	??_C@_06JAOLGPCH@DIK_F5@			; `string'
PUBLIC	??_C@_06LLMGDMOE@DIK_F6@			; `string'
PUBLIC	??_C@_06KCNNANKF@DIK_F7@			; `string'
PUBLIC	??_C@_06CFEFBBGK@DIK_F8@			; `string'
PUBLIC	??_C@_06DMFOCACL@DIK_F9@			; `string'
PUBLIC	??_C@_07HNNFMACL@DIK_F10@			; `string'
PUBLIC	??_C@_0M@BAOCLHIM@DIK_NUMLOCK@			; `string'
PUBLIC	??_C@_0L@HPJOFPCB@DIK_SCROLL@			; `string'
PUBLIC	??_C@_0M@NDOIJKED@DIK_NUMPAD7@			; `string'
PUBLIC	??_C@_0M@FEHAIGIM@DIK_NUMPAD8@			; `string'
PUBLIC	??_C@_0M@ENGLLHMN@DIK_NUMPAD9@			; `string'
PUBLIC	??_C@_0N@ECOBCKNF@DIK_SUBTRACT@			; `string'
PUBLIC	??_C@_0M@PIMFMJIA@DIK_NUMPAD4@			; `string'
PUBLIC	??_C@_0M@OBNOPIMB@DIK_NUMPAD5@			; `string'
PUBLIC	??_C@_0M@MKPDKLAC@DIK_NUMPAD6@			; `string'
PUBLIC	??_C@_07PJGLOONL@DIK_ADD@			; `string'
PUBLIC	??_C@_0M@IFLCDNMF@DIK_NUMPAD1@			; `string'
PUBLIC	??_C@_0M@KOJPGOAG@DIK_NUMPAD2@			; `string'
PUBLIC	??_C@_0M@LHIEFPEH@DIK_NUMPAD3@			; `string'
PUBLIC	??_C@_0M@JMKJAMIE@DIK_NUMPAD0@			; `string'
PUBLIC	??_C@_0M@PCNKFDKI@DIK_DECIMAL@			; `string'
PUBLIC	??_C@_07GEMOPBGK@DIK_F11@			; `string'
PUBLIC	??_C@_07EPODKCKJ@DIK_F12@			; `string'
PUBLIC	??_C@_0O@DEOEEHEE@DIK_NEXTTRACK@		; `string'
PUBLIC	??_C@_0BA@OLMCJCJF@DIK_NUMPADENTER@		; `string'
PUBLIC	??_C@_0N@GKDJCKOL@DIK_RCONTROL@			; `string'
PUBLIC	??_C@_08KNIFKFHJ@DIK_MUTE@			; `string'
PUBLIC	??_C@_0P@OJEJDHIP@DIK_CALCULATOR@		; `string'
PUBLIC	??_C@_0O@ECAMOKPG@DIK_PLAYPAUSE@		; `string'
PUBLIC	??_C@_0O@FLFOAKOG@DIK_MEDIASTOP@		; `string'
PUBLIC	??_C@_0P@FKHBCEAD@DIK_VOLUMEDOWN@		; `string'
PUBLIC	??_C@_0N@GPHLGHED@DIK_VOLUMEUP@			; `string'
PUBLIC	??_C@_0M@IEADBFND@DIK_WEBHOME@			; `string'
PUBLIC	??_C@_0BA@ECBGFAAH@DIK_NUMPADCOMMA@		; `string'
PUBLIC	??_C@_0L@HDEGMNOK@DIK_DIVIDE@			; `string'
PUBLIC	??_C@_09PCEGCDIO@DIK_SYSRQ@			; `string'
PUBLIC	??_C@_08NBKCLEDK@DIK_RALT@			; `string'
PUBLIC	??_C@_09COEFGPNN@DIK_PAUSE@			; `string'
PUBLIC	??_C@_08EJDGAFAN@DIK_HOME@			; `string'
PUBLIC	??_C@_06JGABONOM@DIK_UP@			; `string'
PUBLIC	??_C@_08PJJCOFHN@DIK_PGUP@			; `string'
PUBLIC	??_C@_08IMIHIPFI@DIK_LEFT@			; `string'
PUBLIC	??_C@_09OKEHHFIC@DIK_RIGHT@			; `string'
PUBLIC	??_C@_07HLJOPMFK@DIK_END@			; `string'
PUBLIC	??_C@_08HOIDBHGB@DIK_DOWN@			; `string'
PUBLIC	??_C@_08DADHBDOF@DIK_PGDN@			; `string'
PUBLIC	??_C@_0L@MGNAFAII@DIK_INSERT@			; `string'
PUBLIC	??_C@_0L@HICEJOHK@DIK_DELETE@			; `string'
PUBLIC	??_C@_08MNOGKNKK@DIK_LWIN@			; `string'
PUBLIC	??_C@_08BCDGIEEJ@DIK_RWIN@			; `string'
PUBLIC	??_C@_08EEDKKFEB@DIK_APPS@			; `string'
PUBLIC	??_C@_06IOJAGNKJ@NORMAL@			; `string'
PUBLIC	??_C@_06JIJKOHKJ@ATTACK@			; `string'
PUBLIC	??_C@_06JNJLBPLI@TARGET@			; `string'
PUBLIC	??_C@_04LNOLLMNL@TALK@				; `string'
PUBLIC	??_C@_07LGCIEODJ@CANT_GO@			; `string'
PUBLIC	??_C@_04IGIDHFMJ@PICK@				; `string'
PUBLIC	??_C@_04KEJCELCL@DOOR@				; `string'
PUBLIC	??_C@_05HLBMIDNH@CHAIR@				; `string'
PUBLIC	??_C@_05DKLEPMBK@MAGIC@				; `string'
PUBLIC	??_C@_03OOKILKBD@BUY@				; `string'
PUBLIC	??_C@_04MPOIGBFL@SELL@				; `string'
PUBLIC	??_C@_0O@MAJOJEIM@CAMERA_ROTATE@		; `string'
PUBLIC	??_C@_05NILMGENH@HSIZE@				; `string'
PUBLIC	??_C@_05OBGAAHDM@VSIZE@				; `string'
PUBLIC	??_C@_06LKCKECPP@HVSIZE@			; `string'
PUBLIC	??_C@_0BD@BFBNCJCC@CAMERA_TO_POSITIVE@		; `string'
PUBLIC	??_C@_0BD@JPBNJGLJ@CAMERA_TO_NEGATIVE@		; `string'
PUBLIC	??_C@_0M@NJFGNKPE@CAMERA_STOP@			; `string'
PUBLIC	??_C@_0BG@NNONEOJP@ENABLE_COSTUME_SYSTEM@	; `string'
PUBLIC	??_C@_0BF@JNPGDOCA@ENABLE_ENERGY_SYSTEM@	; `string'
PUBLIC	??_C@_0BK@MHKPDOOB@ENABLE_DRAGON_SOUL_SYSTEM@	; `string'
PUBLIC	??_C@_0BM@LNFCINHP@ENABLE_NEW_EQUIPMENT_SYSTEM@	; `string'
PUBLIC	??_C@_0L@GJPKGMAC@USE_OPENID@			; `string'
PUBLIC	??_C@_0M@HKJKCDHH@OPENID_TEST@			; `string'
PUBLIC	??_7?$CDynamicPoolEx@VCRotationDecorator@NEffectUpdateDecorator@@@@6B@ ; CDynamicPoolEx<NEffectUpdateDecorator::CRotationDecorator>::`vftable'
PUBLIC	??_7?$CDynamicPoolEx@VCGravityDecorator@NEffectUpdateDecorator@@@@6B@ ; CDynamicPoolEx<NEffectUpdateDecorator::CGravityDecorator>::`vftable'
PUBLIC	??_7?$CDynamicPoolEx@VCAirResistanceDecorator@NEffectUpdateDecorator@@@@6B@ ; CDynamicPoolEx<NEffectUpdateDecorator::CAirResistanceDecorator>::`vftable'
PUBLIC	??_7?$CDynamicPoolEx@VCTextureAnimationRandomDecorator@NEffectUpdateDecorator@@@@6B@ ; CDynamicPoolEx<NEffectUpdateDecorator::CTextureAnimationRandomDecorator>::`vftable'
PUBLIC	??_7?$CDynamicPoolEx@VCTextureAnimationCCWDecorator@NEffectUpdateDecorator@@@@6B@ ; CDynamicPoolEx<NEffectUpdateDecorator::CTextureAnimationCCWDecorator>::`vftable'
PUBLIC	??_7?$CDynamicPoolEx@VCTextureAnimationCWDecorator@NEffectUpdateDecorator@@@@6B@ ; CDynamicPoolEx<NEffectUpdateDecorator::CTextureAnimationCWDecorator>::`vftable'
PUBLIC	??_7?$CDynamicPoolEx@VCNullDecorator@NEffectUpdateDecorator@@@@6B@ ; CDynamicPoolEx<NEffectUpdateDecorator::CNullDecorator>::`vftable'
PUBLIC	??_7?$CDynamicPoolEx@VCHeaderDecorator@NEffectUpdateDecorator@@@@6B@ ; CDynamicPoolEx<NEffectUpdateDecorator::CHeaderDecorator>::`vftable'
PUBLIC	??_R4?$CDynamicPoolEx@VCHeaderDecorator@NEffectUpdateDecorator@@@@6B@ ; CDynamicPoolEx<NEffectUpdateDecorator::CHeaderDecorator>::`RTTI Complete Object Locator'
PUBLIC	??_R0?AV?$CDynamicPoolEx@VCHeaderDecorator@NEffectUpdateDecorator@@@@@8 ; CDynamicPoolEx<NEffectUpdateDecorator::CHeaderDecorator> `RTTI Type Descriptor'
PUBLIC	??_R3?$CDynamicPoolEx@VCHeaderDecorator@NEffectUpdateDecorator@@@@8 ; CDynamicPoolEx<NEffectUpdateDecorator::CHeaderDecorator>::`RTTI Class Hierarchy Descriptor'
PUBLIC	??_R2?$CDynamicPoolEx@VCHeaderDecorator@NEffectUpdateDecorator@@@@8 ; CDynamicPoolEx<NEffectUpdateDecorator::CHeaderDecorator>::`RTTI Base Class Array'
PUBLIC	??_R1A@?0A@EA@?$CDynamicPoolEx@VCHeaderDecorator@NEffectUpdateDecorator@@@@8 ; CDynamicPoolEx<NEffectUpdateDecorator::CHeaderDecorator>::`RTTI Base Class Descriptor at (0,-1,0,64)'
PUBLIC	??_R4?$CDynamicPoolEx@VCNullDecorator@NEffectUpdateDecorator@@@@6B@ ; CDynamicPoolEx<NEffectUpdateDecorator::CNullDecorator>::`RTTI Complete Object Locator'
PUBLIC	??_R0?AV?$CDynamicPoolEx@VCNullDecorator@NEffectUpdateDecorator@@@@@8 ; CDynamicPoolEx<NEffectUpdateDecorator::CNullDecorator> `RTTI Type Descriptor'
PUBLIC	??_R3?$CDynamicPoolEx@VCNullDecorator@NEffectUpdateDecorator@@@@8 ; CDynamicPoolEx<NEffectUpdateDecorator::CNullDecorator>::`RTTI Class Hierarchy Descriptor'
PUBLIC	??_R2?$CDynamicPoolEx@VCNullDecorator@NEffectUpdateDecorator@@@@8 ; CDynamicPoolEx<NEffectUpdateDecorator::CNullDecorator>::`RTTI Base Class Array'
PUBLIC	??_R1A@?0A@EA@?$CDynamicPoolEx@VCNullDecorator@NEffectUpdateDecorator@@@@8 ; CDynamicPoolEx<NEffectUpdateDecorator::CNullDecorator>::`RTTI Base Class Descriptor at (0,-1,0,64)'
PUBLIC	??_R4?$CDynamicPoolEx@VCTextureAnimationCWDecorator@NEffectUpdateDecorator@@@@6B@ ; CDynamicPoolEx<NEffectUpdateDecorator::CTextureAnimationCWDecorator>::`RTTI Complete Object Locator'
PUBLIC	??_R0?AV?$CDynamicPoolEx@VCTextureAnimationCWDecorator@NEffectUpdateDecorator@@@@@8 ; CDynamicPoolEx<NEffectUpdateDecorator::CTextureAnimationCWDecorator> `RTTI Type Descriptor'
PUBLIC	??_R3?$CDynamicPoolEx@VCTextureAnimationCWDecorator@NEffectUpdateDecorator@@@@8 ; CDynamicPoolEx<NEffectUpdateDecorator::CTextureAnimationCWDecorator>::`RTTI Class Hierarchy Descriptor'
PUBLIC	??_R2?$CDynamicPoolEx@VCTextureAnimationCWDecorator@NEffectUpdateDecorator@@@@8 ; CDynamicPoolEx<NEffectUpdateDecorator::CTextureAnimationCWDecorator>::`RTTI Base Class Array'
PUBLIC	??_R1A@?0A@EA@?$CDynamicPoolEx@VCTextureAnimationCWDecorator@NEffectUpdateDecorator@@@@8 ; CDynamicPoolEx<NEffectUpdateDecorator::CTextureAnimationCWDecorator>::`RTTI Base Class Descriptor at (0,-1,0,64)'
PUBLIC	??_R4?$CDynamicPoolEx@VCTextureAnimationCCWDecorator@NEffectUpdateDecorator@@@@6B@ ; CDynamicPoolEx<NEffectUpdateDecorator::CTextureAnimationCCWDecorator>::`RTTI Complete Object Locator'
PUBLIC	??_R0?AV?$CDynamicPoolEx@VCTextureAnimationCCWDecorator@NEffectUpdateDecorator@@@@@8 ; CDynamicPoolEx<NEffectUpdateDecorator::CTextureAnimationCCWDecorator> `RTTI Type Descriptor'
PUBLIC	??_R3?$CDynamicPoolEx@VCTextureAnimationCCWDecorator@NEffectUpdateDecorator@@@@8 ; CDynamicPoolEx<NEffectUpdateDecorator::CTextureAnimationCCWDecorator>::`RTTI Class Hierarchy Descriptor'
PUBLIC	??_R2?$CDynamicPoolEx@VCTextureAnimationCCWDecorator@NEffectUpdateDecorator@@@@8 ; CDynamicPoolEx<NEffectUpdateDecorator::CTextureAnimationCCWDecorator>::`RTTI Base Class Array'
PUBLIC	??_R1A@?0A@EA@?$CDynamicPoolEx@VCTextureAnimationCCWDecorator@NEffectUpdateDecorator@@@@8 ; CDynamicPoolEx<NEffectUpdateDecorator::CTextureAnimationCCWDecorator>::`RTTI Base Class Descriptor at (0,-1,0,64)'
PUBLIC	??_R4?$CDynamicPoolEx@VCTextureAnimationRandomDecorator@NEffectUpdateDecorator@@@@6B@ ; CDynamicPoolEx<NEffectUpdateDecorator::CTextureAnimationRandomDecorator>::`RTTI Complete Object Locator'
PUBLIC	??_R0?AV?$CDynamicPoolEx@VCTextureAnimationRandomDecorator@NEffectUpdateDecorator@@@@@8 ; CDynamicPoolEx<NEffectUpdateDecorator::CTextureAnimationRandomDecorator> `RTTI Type Descriptor'
PUBLIC	??_R3?$CDynamicPoolEx@VCTextureAnimationRandomDecorator@NEffectUpdateDecorator@@@@8 ; CDynamicPoolEx<NEffectUpdateDecorator::CTextureAnimationRandomDecorator>::`RTTI Class Hierarchy Descriptor'
PUBLIC	??_R2?$CDynamicPoolEx@VCTextureAnimationRandomDecorator@NEffectUpdateDecorator@@@@8 ; CDynamicPoolEx<NEffectUpdateDecorator::CTextureAnimationRandomDecorator>::`RTTI Base Class Array'
PUBLIC	??_R1A@?0A@EA@?$CDynamicPoolEx@VCTextureAnimationRandomDecorator@NEffectUpdateDecorator@@@@8 ; CDynamicPoolEx<NEffectUpdateDecorator::CTextureAnimationRandomDecorator>::`RTTI Base Class Descriptor at (0,-1,0,64)'
PUBLIC	??_R4?$CDynamicPoolEx@VCAirResistanceDecorator@NEffectUpdateDecorator@@@@6B@ ; CDynamicPoolEx<NEffectUpdateDecorator::CAirResistanceDecorator>::`RTTI Complete Object Locator'
PUBLIC	??_R0?AV?$CDynamicPoolEx@VCAirResistanceDecorator@NEffectUpdateDecorator@@@@@8 ; CDynamicPoolEx<NEffectUpdateDecorator::CAirResistanceDecorator> `RTTI Type Descriptor'
PUBLIC	??_R3?$CDynamicPoolEx@VCAirResistanceDecorator@NEffectUpdateDecorator@@@@8 ; CDynamicPoolEx<NEffectUpdateDecorator::CAirResistanceDecorator>::`RTTI Class Hierarchy Descriptor'
PUBLIC	??_R2?$CDynamicPoolEx@VCAirResistanceDecorator@NEffectUpdateDecorator@@@@8 ; CDynamicPoolEx<NEffectUpdateDecorator::CAirResistanceDecorator>::`RTTI Base Class Array'
PUBLIC	??_R1A@?0A@EA@?$CDynamicPoolEx@VCAirResistanceDecorator@NEffectUpdateDecorator@@@@8 ; CDynamicPoolEx<NEffectUpdateDecorator::CAirResistanceDecorator>::`RTTI Base Class Descriptor at (0,-1,0,64)'
PUBLIC	??_R4?$CDynamicPoolEx@VCGravityDecorator@NEffectUpdateDecorator@@@@6B@ ; CDynamicPoolEx<NEffectUpdateDecorator::CGravityDecorator>::`RTTI Complete Object Locator'
PUBLIC	??_R0?AV?$CDynamicPoolEx@VCGravityDecorator@NEffectUpdateDecorator@@@@@8 ; CDynamicPoolEx<NEffectUpdateDecorator::CGravityDecorator> `RTTI Type Descriptor'
PUBLIC	??_R3?$CDynamicPoolEx@VCGravityDecorator@NEffectUpdateDecorator@@@@8 ; CDynamicPoolEx<NEffectUpdateDecorator::CGravityDecorator>::`RTTI Class Hierarchy Descriptor'
PUBLIC	??_R2?$CDynamicPoolEx@VCGravityDecorator@NEffectUpdateDecorator@@@@8 ; CDynamicPoolEx<NEffectUpdateDecorator::CGravityDecorator>::`RTTI Base Class Array'
PUBLIC	??_R1A@?0A@EA@?$CDynamicPoolEx@VCGravityDecorator@NEffectUpdateDecorator@@@@8 ; CDynamicPoolEx<NEffectUpdateDecorator::CGravityDecorator>::`RTTI Base Class Descriptor at (0,-1,0,64)'
PUBLIC	??_R4?$CDynamicPoolEx@VCRotationDecorator@NEffectUpdateDecorator@@@@6B@ ; CDynamicPoolEx<NEffectUpdateDecorator::CRotationDecorator>::`RTTI Complete Object Locator'
PUBLIC	??_R0?AV?$CDynamicPoolEx@VCRotationDecorator@NEffectUpdateDecorator@@@@@8 ; CDynamicPoolEx<NEffectUpdateDecorator::CRotationDecorator> `RTTI Type Descriptor'
PUBLIC	??_R3?$CDynamicPoolEx@VCRotationDecorator@NEffectUpdateDecorator@@@@8 ; CDynamicPoolEx<NEffectUpdateDecorator::CRotationDecorator>::`RTTI Class Hierarchy Descriptor'
PUBLIC	??_R2?$CDynamicPoolEx@VCRotationDecorator@NEffectUpdateDecorator@@@@8 ; CDynamicPoolEx<NEffectUpdateDecorator::CRotationDecorator>::`RTTI Base Class Array'
PUBLIC	??_R1A@?0A@EA@?$CDynamicPoolEx@VCRotationDecorator@NEffectUpdateDecorator@@@@8 ; CDynamicPoolEx<NEffectUpdateDecorator::CRotationDecorator>::`RTTI Base Class Descriptor at (0,-1,0,64)'
PUBLIC	__real@3f800000
PUBLIC	__real@42c80000
PUBLIC	__real@447a0000
PUBLIC	__xmm@80000000800000008000000080000000
EXTRN	??2@YAPAXI@Z:PROC				; operator new
EXTRN	??3@YAXPAX@Z:PROC				; operator delete
EXTRN	??3@YAXPAXI@Z:PROC				; operator delete
EXTRN	_atexit:PROC
EXTRN	___report_rangecheckfailure:PROC
EXTRN	__invalid_parameter_noinfo_noreturn:PROC
EXTRN	_memset:PROC
EXTRN	_strstr:PROC
EXTRN	_strcmp:PROC
EXTRN	_strncpy:PROC
EXTRN	__imp__FindClose@4:PROC
EXTRN	__imp__FindFirstFileA@8:PROC
EXTRN	__imp__FindNextFileA@8:PROC
EXTRN	__imp__Sleep@4:PROC
EXTRN	__controlfp:PROC
EXTRN	_fclose:PROC
EXTRN	_fopen:PROC
EXTRN	_fread:PROC
EXTRN	_fseek:PROC
EXTRN	_ftell:PROC
EXTRN	__access:PROC
EXTRN	__imp__PyInt_AsLong:PROC
EXTRN	__imp__PyString_FromString:PROC
EXTRN	__imp__PyTuple_GetItem:PROC
EXTRN	__imp__PyList_New:PROC
EXTRN	__imp__PyList_Append:PROC
EXTRN	__imp__Py_BuildValue:PROC
EXTRN	__imp__PyModule_AddIntConstant:PROC
EXTRN	__imp__Py_InitModule4:PROC
EXTRN	?PyTuple_GetString@@YA_NPAU_object@@HPAPAD@Z:PROC ; PyTuple_GetString
EXTRN	?PyTuple_GetInteger@@YA_NPAU_object@@HPAH@Z:PROC ; PyTuple_GetInteger
EXTRN	?PyTuple_GetFloat@@YA_NPAU_object@@HPAM@Z:PROC	; PyTuple_GetFloat
EXTRN	?PyTuple_GetObject@@YA_NPAU_object@@HPAPAU1@@Z:PROC ; PyTuple_GetObject
EXTRN	?Py_BuildException@@YAPAU_object@@PBDZZ:PROC	; Py_BuildException
EXTRN	?Py_BuildNone@@YAPAU_object@@XZ:PROC		; Py_BuildNone
EXTRN	?RunFile@CPythonLauncher@@QAE_NPBD@Z:PROC	; CPythonLauncher::RunFile
EXTRN	??0CMemoryTextFileLoader@@QAE@XZ:PROC		; CMemoryTextFileLoader::CMemoryTextFileLoader
EXTRN	??1CMemoryTextFileLoader@@UAE@XZ:PROC		; CMemoryTextFileLoader::~CMemoryTextFileLoader
EXTRN	?Bind@CMemoryTextFileLoader@@QAEXHPBX@Z:PROC	; CMemoryTextFileLoader::Bind
EXTRN	?GetLineCount@CMemoryTextFileLoader@@QAEKXZ:PROC ; CMemoryTextFileLoader::GetLineCount
EXTRN	?GetLineString@CMemoryTextFileLoader@@QAEABV?$basic_string@DU?$char_traits@D@std@@V?$allocator@D@2@@std@@K@Z:PROC ; CMemoryTextFileLoader::GetLineString
EXTRN	??0CMappedFile@@QAE@XZ:PROC			; CMappedFile::CMappedFile
EXTRN	??1CMappedFile@@UAE@XZ:PROC			; CMappedFile::~CMappedFile
EXTRN	?Size@CMappedFile@@QAEKXZ:PROC			; CMappedFile::Size
EXTRN	?GetAvailableTextureMemory@CGraphicBase@@SAKXZ:PROC ; CGraphicBase::GetAvailableTextureMemory
EXTRN	?GetMousePosition@CWindowManager@UI@@QAEXAAJ0@Z:PROC ; UI::CWindowManager::GetMousePosition
EXTRN	?random_range@@YAJJJ@Z:PROC			; random_range
EXTRN	?GetDegreeDifference@@YAMMM@Z:PROC		; GetDegreeDifference
EXTRN	?GetRotatingDirection@@YAHMM@Z:PROC		; GetRotatingDirection
EXTRN	?LocaleService_GetCodePage@@YAIXZ:PROC		; LocaleService_GetCodePage
EXTRN	?LocaleService_GetName@@YAPBDXZ:PROC		; LocaleService_GetName
EXTRN	?LocaleService_GetLocaleName@@YAPBDXZ:PROC	; LocaleService_GetLocaleName
EXTRN	?LocaleService_GetLocalePath@@YAPBDXZ:PROC	; LocaleService_GetLocalePath
EXTRN	?LocaleService_ForceSetLocale@@YAXPBD0@Z:PROC	; LocaleService_ForceSetLocale
EXTRN	?LocaleService_SetCHEONMA@@YAX_N@Z:PROC		; LocaleService_SetCHEONMA
EXTRN	?LocaleService_IsCHEONMA@@YA_NXZ:PROC		; LocaleService_IsCHEONMA
EXTRN	?DefaultFont_SetName@@YAXPBD@Z:PROC		; DefaultFont_SetName
EXTRN	?SetGuildSymbolPath@@YAXPBD@Z:PROC		; SetGuildSymbolPath
EXTRN	?IsPressed@CInputKeyboard@@QAE_NH@Z:PROC	; CInputKeyboard::IsPressed
EXTRN	_tea_decrypt:PROC
EXTRN	?SetMarkPathPrefix@CGuildMarkManager@@QAEXPBD@Z:PROC ; CGuildMarkManager::SetMarkPathPrefix
EXTRN	?PlayLogo@CMovieMan@@QAEXPBD@Z:PROC		; CMovieMan::PlayLogo
EXTRN	?ShowWebPage@CPythonApplication@@QAEXPBDABUtagRECT@@@Z:PROC ; CPythonApplication::ShowWebPage
EXTRN	?MoveWebPage@CPythonApplication@@QAEXABUtagRECT@@@Z:PROC ; CPythonApplication::MoveWebPage
EXTRN	?HideWebPage@CPythonApplication@@QAEXXZ:PROC	; CPythonApplication::HideWebPage
EXTRN	?IsWebPageMode@CPythonApplication@@QAE_NXZ:PROC	; CPythonApplication::IsWebPageMode
EXTRN	?GetInfo@CPythonApplication@@QAEXIPAV?$basic_string@DU?$char_traits@D@std@@V?$allocator@D@2@@std@@@Z:PROC ; CPythonApplication::GetInfo
EXTRN	?Loop@CPythonApplication@@QAEXXZ:PROC		; CPythonApplication::Loop
EXTRN	?Exit@CPythonApplication@@QAEXXZ:PROC		; CPythonApplication::Exit
EXTRN	?Abort@CPythonApplication@@QAEXXZ:PROC		; CPythonApplication::Abort
EXTRN	?SetMinFog@CPythonApplication@@QAEXM@Z:PROC	; CPythonApplication::SetMinFog
EXTRN	?SetFrameSkip@CPythonApplication@@QAEX_N@Z:PROC	; CPythonApplication::SetFrameSkip
EXTRN	?Create@CPythonApplication@@QAE_NPAU_object@@PBDHHH@Z:PROC ; CPythonApplication::Create
EXTRN	?UpdateGame@CPythonApplication@@QAEXXZ:PROC	; CPythonApplication::UpdateGame
EXTRN	?RenderGame@CPythonApplication@@QAEXXZ:PROC	; CPythonApplication::RenderGame
EXTRN	?Process@CPythonApplication@@QAE_NXZ:PROC	; CPythonApplication::Process
EXTRN	?SetCursorNum@CPythonApplication@@QAEHH@Z:PROC	; CPythonApplication::SetCursorNum
EXTRN	?SetCursorVisible@CPythonApplication@@QAEXH_N@Z:PROC ; CPythonApplication::SetCursorVisible
EXTRN	?GetCursorVisible@CPythonApplication@@QAEHXZ:PROC ; CPythonApplication::GetCursorVisible
EXTRN	?GetLiarCursorOn@CPythonApplication@@QAE_NXZ:PROC ; CPythonApplication::GetLiarCursorOn
EXTRN	?SetCursorMode@CPythonApplication@@QAEXH@Z:PROC	; CPythonApplication::SetCursorMode
EXTRN	?SetMouseHandler@CPythonApplication@@QAEXPAU_object@@@Z:PROC ; CPythonApplication::SetMouseHandler
EXTRN	?SetGlobalCenterPosition@CPythonApplication@@QAEXJJ@Z:PROC ; CPythonApplication::SetGlobalCenterPosition
EXTRN	?SetCamera@CPythonApplication@@QAEXMMMM@Z:PROC	; CPythonApplication::SetCamera
EXTRN	?GetCamera@CPythonApplication@@QAEXPAM000@Z:PROC ; CPythonApplication::GetCamera
EXTRN	?RotateCamera@CPythonApplication@@QAEXH@Z:PROC	; CPythonApplication::RotateCamera
EXTRN	?PitchCamera@CPythonApplication@@QAEXH@Z:PROC	; CPythonApplication::PitchCamera
EXTRN	?ZoomCamera@CPythonApplication@@QAEXH@Z:PROC	; CPythonApplication::ZoomCamera
EXTRN	?MovieRotateCamera@CPythonApplication@@QAEXH@Z:PROC ; CPythonApplication::MovieRotateCamera
EXTRN	?MoviePitchCamera@CPythonApplication@@QAEXH@Z:PROC ; CPythonApplication::MoviePitchCamera
EXTRN	?MovieZoomCamera@CPythonApplication@@QAEXH@Z:PROC ; CPythonApplication::MovieZoomCamera
EXTRN	?MovieResetCamera@CPythonApplication@@QAEXXZ:PROC ; CPythonApplication::MovieResetCamera
EXTRN	?GetRotation@CPythonApplication@@QAEMXZ:PROC	; CPythonApplication::GetRotation
EXTRN	?GetPitch@CPythonApplication@@QAEMXZ:PROC	; CPythonApplication::GetPitch
EXTRN	?SetFPS@CPythonApplication@@QAEXH@Z:PROC	; CPythonApplication::SetFPS
EXTRN	?GetServerTime@CPythonApplication@@QAEJXZ:PROC	; CPythonApplication::GetServerTime
EXTRN	?GetServerTimeStamp@CPythonApplication@@QAEJXZ:PROC ; CPythonApplication::GetServerTimeStamp
EXTRN	?SetConnectData@CPythonApplication@@QAEXPBDH@Z:PROC ; CPythonApplication::SetConnectData
EXTRN	?GetConnectData@CPythonApplication@@QAEXAAV?$basic_string@DU?$char_traits@D@std@@V?$allocator@D@2@@std@@AAH@Z:PROC ; CPythonApplication::GetConnectData
EXTRN	?EnableSpecialCameraMode@CPythonApplication@@QAEXXZ:PROC ; CPythonApplication::EnableSpecialCameraMode
EXTRN	?SetCameraSpeed@CPythonApplication@@QAEXH@Z:PROC ; CPythonApplication::SetCameraSpeed
EXTRN	?SaveCameraSetting@CPythonApplication@@QAEXPBD@Z:PROC ; CPythonApplication::SaveCameraSetting
EXTRN	?LoadCameraSetting@CPythonApplication@@QAE_NPBD@Z:PROC ; CPythonApplication::LoadCameraSetting
EXTRN	?SetForceSightRange@CPythonApplication@@QAEXH@Z:PROC ; CPythonApplication::SetForceSightRange
EXTRN	?SetCameraMaxDistance@CCamera@@SAXM@Z:PROC	; CCamera::SetCameraMaxDistance
EXTRN	?SetResistance@CCamera@@QAEXM@Z:PROC		; CCamera::SetResistance
EXTRN	?GetCurrentCamera@CCameraManager@@QAEPAVCCamera@@XZ:PROC ; CCameraManager::GetCurrentCamera
EXTRN	?TextTail_SetLivingTime@@YAXJ@Z:PROC		; TextTail_SetLivingTime
EXTRN	?LoadLocaleData@@YA_NPBD@Z:PROC			; LoadLocaleData
EXTRN	?Get@CEterPackManager@@QAE_NAAVCMappedFile@@PBDPAPBX@Z:PROC ; CEterPackManager::Get
EXTRN	?isExist@CEterPackManager@@QAE_NPBD@Z:PROC	; CEterPackManager::isExist
EXTRN	??_E?$CDynamicPoolEx@VCRotationDecorator@NEffectUpdateDecorator@@@@UAEPAXI@Z:PROC ; CDynamicPoolEx<NEffectUpdateDecorator::CRotationDecorator>::`vector deleting destructor'
EXTRN	??_E?$CDynamicPoolEx@VCGravityDecorator@NEffectUpdateDecorator@@@@UAEPAXI@Z:PROC ; CDynamicPoolEx<NEffectUpdateDecorator::CGravityDecorator>::`vector deleting destructor'
EXTRN	??_E?$CDynamicPoolEx@VCAirResistanceDecorator@NEffectUpdateDecorator@@@@UAEPAXI@Z:PROC ; CDynamicPoolEx<NEffectUpdateDecorator::CAirResistanceDecorator>::`vector deleting destructor'
EXTRN	??_E?$CDynamicPoolEx@VCTextureAnimationRandomDecorator@NEffectUpdateDecorator@@@@UAEPAXI@Z:PROC ; CDynamicPoolEx<NEffectUpdateDecorator::CTextureAnimationRandomDecorator>::`vector deleting destructor'
EXTRN	??_E?$CDynamicPoolEx@VCTextureAnimationCCWDecorator@NEffectUpdateDecorator@@@@UAEPAXI@Z:PROC ; CDynamicPoolEx<NEffectUpdateDecorator::CTextureAnimationCCWDecorator>::`vector deleting destructor'
EXTRN	??_E?$CDynamicPoolEx@VCTextureAnimationCWDecorator@NEffectUpdateDecorator@@@@UAEPAXI@Z:PROC ; CDynamicPoolEx<NEffectUpdateDecorator::CTextureAnimationCWDecorator>::`vector deleting destructor'
EXTRN	??_E?$CDynamicPoolEx@VCNullDecorator@NEffectUpdateDecorator@@@@UAEPAXI@Z:PROC ; CDynamicPoolEx<NEffectUpdateDecorator::CNullDecorator>::`vector deleting destructor'
EXTRN	??_E?$CDynamicPoolEx@VCHeaderDecorator@NEffectUpdateDecorator@@@@UAEPAXI@Z:PROC ; CDynamicPoolEx<NEffectUpdateDecorator::CHeaderDecorator>::`vector deleting destructor'
EXTRN	@__security_check_cookie@4:PROC
EXTRN	___CxxFrameHandler3:PROC
EXTRN	__alloca_probe_16:PROC
EXTRN	??_7type_info@@6B@:QWORD			; type_info::`vftable'
EXTRN	?ms_pInstance@CPythonApplication@@1PAV1@A:DWORD	; CPythonApplication::ms_pInstance
EXTRN	?PERF_CHECKER_RENDER_GAME@@3_NA:BYTE		; PERF_CHECKER_RENDER_GAME
EXTRN	?g_fSpecularColor@@3UD3DXCOLOR@@A:BYTE		; g_fSpecularColor
EXTRN	?HAIR_COLOR_ENABLE@@3HA:DWORD			; HAIR_COLOR_ENABLE
EXTRN	?USE_ARMOR_SPECULAR@@3HA:DWORD			; USE_ARMOR_SPECULAR
EXTRN	?USE_WEAPON_SPECULAR@@3HA:DWORD			; USE_WEAPON_SPECULAR
EXTRN	?SKILL_EFFECT_UPGRADE_ENABLE@@3HA:DWORD		; SKILL_EFFECT_UPGRADE_ENABLE
EXTRN	?RIDE_HORSE_ENABLE@@3HA:DWORD			; RIDE_HORSE_ENABLE
EXTRN	?g_specularSpd@@3NA:QWORD			; g_specularSpd
EXTRN	?g_iAccumulationTime@@3HA:DWORD			; g_iAccumulationTime
EXTRN	___security_cookie:DWORD
EXTRN	__fltused:DWORD
;	COMDAT ?ms_singleton@?$CSingleton@VCPythonLauncher@@@@0PAVCPythonLauncher@@A
_BSS	SEGMENT
?ms_singleton@?$CSingleton@VCPythonLauncher@@@@0PAVCPythonLauncher@@A DD 01H DUP (?) ; CSingleton<CPythonLauncher>::ms_singleton
_BSS	ENDS
;	COMDAT ?ms_singleton@?$CSingleton@VCWindowManager@UI@@@@0PAVCWindowManager@UI@@A
_BSS	SEGMENT
?ms_singleton@?$CSingleton@VCWindowManager@UI@@@@0PAVCWindowManager@UI@@A DD 01H DUP (?) ; CSingleton<UI::CWindowManager>::ms_singleton
_BSS	ENDS
;	COMDAT ?ms_kPool@?$CPooledObject@VCHeaderDecorator@NEffectUpdateDecorator@@@@1V?$CDynamicPoolEx@VCHeaderDecorator@NEffectUpdateDecorator@@@@A
_BSS	SEGMENT
?ms_kPool@?$CPooledObject@VCHeaderDecorator@NEffectUpdateDecorator@@@@1V?$CDynamicPoolEx@VCHeaderDecorator@NEffectUpdateDecorator@@@@A DB 024H DUP (?) ; CPooledObject<NEffectUpdateDecorator::CHeaderDecorator>::ms_kPool
_BSS	ENDS
;	COMDAT ?ms_kPool@?$CPooledObject@VCNullDecorator@NEffectUpdateDecorator@@@@1V?$CDynamicPoolEx@VCNullDecorator@NEffectUpdateDecorator@@@@A
_BSS	SEGMENT
?ms_kPool@?$CPooledObject@VCNullDecorator@NEffectUpdateDecorator@@@@1V?$CDynamicPoolEx@VCNullDecorator@NEffectUpdateDecorator@@@@A DB 024H DUP (?) ; CPooledObject<NEffectUpdateDecorator::CNullDecorator>::ms_kPool
_BSS	ENDS
;	COMDAT ?ms_kPool@?$CPooledObject@VCTextureAnimationCWDecorator@NEffectUpdateDecorator@@@@1V?$CDynamicPoolEx@VCTextureAnimationCWDecorator@NEffectUpdateDecorator@@@@A
_BSS	SEGMENT
?ms_kPool@?$CPooledObject@VCTextureAnimationCWDecorator@NEffectUpdateDecorator@@@@1V?$CDynamicPoolEx@VCTextureAnimationCWDecorator@NEffectUpdateDecorator@@@@A DB 024H DUP (?) ; CPooledObject<NEffectUpdateDecorator::CTextureAnimationCWDecorator>::ms_kPool
_BSS	ENDS
;	COMDAT ?ms_kPool@?$CPooledObject@VCTextureAnimationCCWDecorator@NEffectUpdateDecorator@@@@1V?$CDynamicPoolEx@VCTextureAnimationCCWDecorator@NEffectUpdateDecorator@@@@A
_BSS	SEGMENT
?ms_kPool@?$CPooledObject@VCTextureAnimationCCWDecorator@NEffectUpdateDecorator@@@@1V?$CDynamicPoolEx@VCTextureAnimationCCWDecorator@NEffectUpdateDecorator@@@@A DB 024H DUP (?) ; CPooledObject<NEffectUpdateDecorator::CTextureAnimationCCWDecorator>::ms_kPool
_BSS	ENDS
;	COMDAT ?ms_kPool@?$CPooledObject@VCTextureAnimationRandomDecorator@NEffectUpdateDecorator@@@@1V?$CDynamicPoolEx@VCTextureAnimationRandomDecorator@NEffectUpdateDecorator@@@@A
_BSS	SEGMENT
?ms_kPool@?$CPooledObject@VCTextureAnimationRandomDecorator@NEffectUpdateDecorator@@@@1V?$CDynamicPoolEx@VCTextureAnimationRandomDecorator@NEffectUpdateDecorator@@@@A DB 024H DUP (?) ; CPooledObject<NEffectUpdateDecorator::CTextureAnimationRandomDecorator>::ms_kPool
_BSS	ENDS
;	COMDAT ?ms_kPool@?$CPooledObject@VCAirResistanceDecorator@NEffectUpdateDecorator@@@@1V?$CDynamicPoolEx@VCAirResistanceDecorator@NEffectUpdateDecorator@@@@A
_BSS	SEGMENT
?ms_kPool@?$CPooledObject@VCAirResistanceDecorator@NEffectUpdateDecorator@@@@1V?$CDynamicPoolEx@VCAirResistanceDecorator@NEffectUpdateDecorator@@@@A DB 024H DUP (?) ; CPooledObject<NEffectUpdateDecorator::CAirResistanceDecorator>::ms_kPool
_BSS	ENDS
;	COMDAT ?ms_kPool@?$CPooledObject@VCGravityDecorator@NEffectUpdateDecorator@@@@1V?$CDynamicPoolEx@VCGravityDecorator@NEffectUpdateDecorator@@@@A
_BSS	SEGMENT
?ms_kPool@?$CPooledObject@VCGravityDecorator@NEffectUpdateDecorator@@@@1V?$CDynamicPoolEx@VCGravityDecorator@NEffectUpdateDecorator@@@@A DB 024H DUP (?) ; CPooledObject<NEffectUpdateDecorator::CGravityDecorator>::ms_kPool
_BSS	ENDS
;	COMDAT ?ms_kPool@?$CPooledObject@VCRotationDecorator@NEffectUpdateDecorator@@@@1V?$CDynamicPoolEx@VCRotationDecorator@NEffectUpdateDecorator@@@@A
_BSS	SEGMENT
?ms_kPool@?$CPooledObject@VCRotationDecorator@NEffectUpdateDecorator@@@@1V?$CDynamicPoolEx@VCRotationDecorator@NEffectUpdateDecorator@@@@A DB 024H DUP (?) ; CPooledObject<NEffectUpdateDecorator::CRotationDecorator>::ms_kPool
_BSS	ENDS
;	COMDAT ?ms_singleton@?$singleton@VCGuildMarkManager@@@@0PAVCGuildMarkManager@@A
_BSS	SEGMENT
?ms_singleton@?$singleton@VCGuildMarkManager@@@@0PAVCGuildMarkManager@@A DD 01H DUP (?) ; singleton<CGuildMarkManager>::ms_singleton
_BSS	ENDS
;	COMDAT ?ms_singleton@?$CSingleton@VCMovieMan@@@@0PAVCMovieMan@@A
_BSS	SEGMENT
?ms_singleton@?$CSingleton@VCMovieMan@@@@0PAVCMovieMan@@A DD 01H DUP (?) ; CSingleton<CMovieMan>::ms_singleton
_BSS	ENDS
;	COMDAT ?ms_singleton@?$CSingleton@VCCameraManager@@@@0PAVCCameraManager@@A
_BSS	SEGMENT
?ms_singleton@?$CSingleton@VCCameraManager@@@@0PAVCCameraManager@@A DD 01H DUP (?) ; CSingleton<CCameraManager>::ms_singleton
_BSS	ENDS
;	COMDAT ?ms_singleton@?$CSingleton@VCEterPackManager@@@@0PAVCEterPackManager@@A
_BSS	SEGMENT
?ms_singleton@?$CSingleton@VCEterPackManager@@@@0PAVCEterPackManager@@A DD 01H DUP (?) ; CSingleton<CEterPackManager>::ms_singleton
_BSS	ENDS
;	COMDAT CRT$XCU
CRT$XCU	SEGMENT
??ms_kPool$initializer$@?$CPooledObject@VCHeaderDecorator@NEffectUpdateDecorator@@@@1P6AXXZA@@3P6AXXZA DD FLAT:??__E?ms_kPool@?$CPooledObject@VCHeaderDecorator@NEffectUpdateDecorator@@@@1V?$CDynamicPoolEx@VCHeaderDecorator@NEffectUpdateDecorator@@@@A@@YAXXZ ; ??ms_kPool$initializer$@?$CPooledObject@VCHeaderDecorator@NEffectUpdateDecorator@@@@1P6AXXZA@@3P6AXXZA
CRT$XCU	ENDS
;	COMDAT __xmm@80000000800000008000000080000000
CONST	SEGMENT
__xmm@80000000800000008000000080000000 DB 00H, 00H, 00H, 080H, 00H, 00H, 00H
	DB	080H, 00H, 00H, 00H, 080H, 00H, 00H, 00H, 080H
CONST	ENDS
;	COMDAT __real@447a0000
CONST	SEGMENT
__real@447a0000 DD 0447a0000r			; 1000
CONST	ENDS
;	COMDAT __real@42c80000
CONST	SEGMENT
__real@42c80000 DD 042c80000r			; 100
CONST	ENDS
;	COMDAT __real@3f800000
CONST	SEGMENT
__real@3f800000 DD 03f800000r			; 1
CONST	ENDS
;	COMDAT ??_R1A@?0A@EA@?$CDynamicPoolEx@VCRotationDecorator@NEffectUpdateDecorator@@@@8
rdata$r	SEGMENT
??_R1A@?0A@EA@?$CDynamicPoolEx@VCRotationDecorator@NEffectUpdateDecorator@@@@8 DD FLAT:??_R0?AV?$CDynamicPoolEx@VCRotationDecorator@NEffectUpdateDecorator@@@@@8 ; CDynamicPoolEx<NEffectUpdateDecorator::CRotationDecorator>::`RTTI Base Class Descriptor at (0,-1,0,64)'
	DD	00H
	DD	00H
	DD	0ffffffffH
	DD	00H
	DD	040H
	DD	FLAT:??_R3?$CDynamicPoolEx@VCRotationDecorator@NEffectUpdateDecorator@@@@8
rdata$r	ENDS
;	COMDAT ??_R2?$CDynamicPoolEx@VCRotationDecorator@NEffectUpdateDecorator@@@@8
rdata$r	SEGMENT
??_R2?$CDynamicPoolEx@VCRotationDecorator@NEffectUpdateDecorator@@@@8 DD FLAT:??_R1A@?0A@EA@?$CDynamicPoolEx@VCRotationDecorator@NEffectUpdateDecorator@@@@8 ; CDynamicPoolEx<NEffectUpdateDecorator::CRotationDecorator>::`RTTI Base Class Array'
rdata$r	ENDS
;	COMDAT ??_R3?$CDynamicPoolEx@VCRotationDecorator@NEffectUpdateDecorator@@@@8
rdata$r	SEGMENT
??_R3?$CDynamicPoolEx@VCRotationDecorator@NEffectUpdateDecorator@@@@8 DD 00H ; CDynamicPoolEx<NEffectUpdateDecorator::CRotationDecorator>::`RTTI Class Hierarchy Descriptor'
	DD	00H
	DD	01H
	DD	FLAT:??_R2?$CDynamicPoolEx@VCRotationDecorator@NEffectUpdateDecorator@@@@8
rdata$r	ENDS
;	COMDAT ??_R0?AV?$CDynamicPoolEx@VCRotationDecorator@NEffectUpdateDecorator@@@@@8
data$rs	SEGMENT
??_R0?AV?$CDynamicPoolEx@VCRotationDecorator@NEffectUpdateDecorator@@@@@8 DD FLAT:??_7type_info@@6B@ ; CDynamicPoolEx<NEffectUpdateDecorator::CRotationDecorator> `RTTI Type Descriptor'
	DD	00H
	DB	'.?AV?$CDynamicPoolEx@VCRotationDecorator@NEffectUpdateDe'
	DB	'corator@@@@', 00H
data$rs	ENDS
;	COMDAT ??_R4?$CDynamicPoolEx@VCRotationDecorator@NEffectUpdateDecorator@@@@6B@
rdata$r	SEGMENT
??_R4?$CDynamicPoolEx@VCRotationDecorator@NEffectUpdateDecorator@@@@6B@ DD 00H ; CDynamicPoolEx<NEffectUpdateDecorator::CRotationDecorator>::`RTTI Complete Object Locator'
	DD	00H
	DD	00H
	DD	FLAT:??_R0?AV?$CDynamicPoolEx@VCRotationDecorator@NEffectUpdateDecorator@@@@@8
	DD	FLAT:??_R3?$CDynamicPoolEx@VCRotationDecorator@NEffectUpdateDecorator@@@@8
rdata$r	ENDS
;	COMDAT ??_R1A@?0A@EA@?$CDynamicPoolEx@VCGravityDecorator@NEffectUpdateDecorator@@@@8
rdata$r	SEGMENT
??_R1A@?0A@EA@?$CDynamicPoolEx@VCGravityDecorator@NEffectUpdateDecorator@@@@8 DD FLAT:??_R0?AV?$CDynamicPoolEx@VCGravityDecorator@NEffectUpdateDecorator@@@@@8 ; CDynamicPoolEx<NEffectUpdateDecorator::CGravityDecorator>::`RTTI Base Class Descriptor at (0,-1,0,64)'
	DD	00H
	DD	00H
	DD	0ffffffffH
	DD	00H
	DD	040H
	DD	FLAT:??_R3?$CDynamicPoolEx@VCGravityDecorator@NEffectUpdateDecorator@@@@8
rdata$r	ENDS
;	COMDAT ??_R2?$CDynamicPoolEx@VCGravityDecorator@NEffectUpdateDecorator@@@@8
rdata$r	SEGMENT
??_R2?$CDynamicPoolEx@VCGravityDecorator@NEffectUpdateDecorator@@@@8 DD FLAT:??_R1A@?0A@EA@?$CDynamicPoolEx@VCGravityDecorator@NEffectUpdateDecorator@@@@8 ; CDynamicPoolEx<NEffectUpdateDecorator::CGravityDecorator>::`RTTI Base Class Array'
rdata$r	ENDS
;	COMDAT ??_R3?$CDynamicPoolEx@VCGravityDecorator@NEffectUpdateDecorator@@@@8
rdata$r	SEGMENT
??_R3?$CDynamicPoolEx@VCGravityDecorator@NEffectUpdateDecorator@@@@8 DD 00H ; CDynamicPoolEx<NEffectUpdateDecorator::CGravityDecorator>::`RTTI Class Hierarchy Descriptor'
	DD	00H
	DD	01H
	DD	FLAT:??_R2?$CDynamicPoolEx@VCGravityDecorator@NEffectUpdateDecorator@@@@8
rdata$r	ENDS
;	COMDAT ??_R0?AV?$CDynamicPoolEx@VCGravityDecorator@NEffectUpdateDecorator@@@@@8
data$rs	SEGMENT
??_R0?AV?$CDynamicPoolEx@VCGravityDecorator@NEffectUpdateDecorator@@@@@8 DD FLAT:??_7type_info@@6B@ ; CDynamicPoolEx<NEffectUpdateDecorator::CGravityDecorator> `RTTI Type Descriptor'
	DD	00H
	DB	'.?AV?$CDynamicPoolEx@VCGravityDecorator@NEffectUpdateDec'
	DB	'orator@@@@', 00H
data$rs	ENDS
;	COMDAT ??_R4?$CDynamicPoolEx@VCGravityDecorator@NEffectUpdateDecorator@@@@6B@
rdata$r	SEGMENT
??_R4?$CDynamicPoolEx@VCGravityDecorator@NEffectUpdateDecorator@@@@6B@ DD 00H ; CDynamicPoolEx<NEffectUpdateDecorator::CGravityDecorator>::`RTTI Complete Object Locator'
	DD	00H
	DD	00H
	DD	FLAT:??_R0?AV?$CDynamicPoolEx@VCGravityDecorator@NEffectUpdateDecorator@@@@@8
	DD	FLAT:??_R3?$CDynamicPoolEx@VCGravityDecorator@NEffectUpdateDecorator@@@@8
rdata$r	ENDS
;	COMDAT ??_R1A@?0A@EA@?$CDynamicPoolEx@VCAirResistanceDecorator@NEffectUpdateDecorator@@@@8
rdata$r	SEGMENT
??_R1A@?0A@EA@?$CDynamicPoolEx@VCAirResistanceDecorator@NEffectUpdateDecorator@@@@8 DD FLAT:??_R0?AV?$CDynamicPoolEx@VCAirResistanceDecorator@NEffectUpdateDecorator@@@@@8 ; CDynamicPoolEx<NEffectUpdateDecorator::CAirResistanceDecorator>::`RTTI Base Class Descriptor at (0,-1,0,64)'
	DD	00H
	DD	00H
	DD	0ffffffffH
	DD	00H
	DD	040H
	DD	FLAT:??_R3?$CDynamicPoolEx@VCAirResistanceDecorator@NEffectUpdateDecorator@@@@8
rdata$r	ENDS
;	COMDAT ??_R2?$CDynamicPoolEx@VCAirResistanceDecorator@NEffectUpdateDecorator@@@@8
rdata$r	SEGMENT
??_R2?$CDynamicPoolEx@VCAirResistanceDecorator@NEffectUpdateDecorator@@@@8 DD FLAT:??_R1A@?0A@EA@?$CDynamicPoolEx@VCAirResistanceDecorator@NEffectUpdateDecorator@@@@8 ; CDynamicPoolEx<NEffectUpdateDecorator::CAirResistanceDecorator>::`RTTI Base Class Array'
rdata$r	ENDS
;	COMDAT ??_R3?$CDynamicPoolEx@VCAirResistanceDecorator@NEffectUpdateDecorator@@@@8
rdata$r	SEGMENT
??_R3?$CDynamicPoolEx@VCAirResistanceDecorator@NEffectUpdateDecorator@@@@8 DD 00H ; CDynamicPoolEx<NEffectUpdateDecorator::CAirResistanceDecorator>::`RTTI Class Hierarchy Descriptor'
	DD	00H
	DD	01H
	DD	FLAT:??_R2?$CDynamicPoolEx@VCAirResistanceDecorator@NEffectUpdateDecorator@@@@8
rdata$r	ENDS
;	COMDAT ??_R0?AV?$CDynamicPoolEx@VCAirResistanceDecorator@NEffectUpdateDecorator@@@@@8
data$rs	SEGMENT
??_R0?AV?$CDynamicPoolEx@VCAirResistanceDecorator@NEffectUpdateDecorator@@@@@8 DD FLAT:??_7type_info@@6B@ ; CDynamicPoolEx<NEffectUpdateDecorator::CAirResistanceDecorator> `RTTI Type Descriptor'
	DD	00H
	DB	'.?AV?$CDynamicPoolEx@VCAirResistanceDecorator@NEffectUpd'
	DB	'ateDecorator@@@@', 00H
data$rs	ENDS
;	COMDAT ??_R4?$CDynamicPoolEx@VCAirResistanceDecorator@NEffectUpdateDecorator@@@@6B@
rdata$r	SEGMENT
??_R4?$CDynamicPoolEx@VCAirResistanceDecorator@NEffectUpdateDecorator@@@@6B@ DD 00H ; CDynamicPoolEx<NEffectUpdateDecorator::CAirResistanceDecorator>::`RTTI Complete Object Locator'
	DD	00H
	DD	00H
	DD	FLAT:??_R0?AV?$CDynamicPoolEx@VCAirResistanceDecorator@NEffectUpdateDecorator@@@@@8
	DD	FLAT:??_R3?$CDynamicPoolEx@VCAirResistanceDecorator@NEffectUpdateDecorator@@@@8
rdata$r	ENDS
;	COMDAT ??_R1A@?0A@EA@?$CDynamicPoolEx@VCTextureAnimationRandomDecorator@NEffectUpdateDecorator@@@@8
rdata$r	SEGMENT
??_R1A@?0A@EA@?$CDynamicPoolEx@VCTextureAnimationRandomDecorator@NEffectUpdateDecorator@@@@8 DD FLAT:??_R0?AV?$CDynamicPoolEx@VCTextureAnimationRandomDecorator@NEffectUpdateDecorator@@@@@8 ; CDynamicPoolEx<NEffectUpdateDecorator::CTextureAnimationRandomDecorator>::`RTTI Base Class Descriptor at (0,-1,0,64)'
	DD	00H
	DD	00H
	DD	0ffffffffH
	DD	00H
	DD	040H
	DD	FLAT:??_R3?$CDynamicPoolEx@VCTextureAnimationRandomDecorator@NEffectUpdateDecorator@@@@8
rdata$r	ENDS
;	COMDAT ??_R2?$CDynamicPoolEx@VCTextureAnimationRandomDecorator@NEffectUpdateDecorator@@@@8
rdata$r	SEGMENT
??_R2?$CDynamicPoolEx@VCTextureAnimationRandomDecorator@NEffectUpdateDecorator@@@@8 DD FLAT:??_R1A@?0A@EA@?$CDynamicPoolEx@VCTextureAnimationRandomDecorator@NEffectUpdateDecorator@@@@8 ; CDynamicPoolEx<NEffectUpdateDecorator::CTextureAnimationRandomDecorator>::`RTTI Base Class Array'
rdata$r	ENDS
;	COMDAT ??_R3?$CDynamicPoolEx@VCTextureAnimationRandomDecorator@NEffectUpdateDecorator@@@@8
rdata$r	SEGMENT
??_R3?$CDynamicPoolEx@VCTextureAnimationRandomDecorator@NEffectUpdateDecorator@@@@8 DD 00H ; CDynamicPoolEx<NEffectUpdateDecorator::CTextureAnimationRandomDecorator>::`RTTI Class Hierarchy Descriptor'
	DD	00H
	DD	01H
	DD	FLAT:??_R2?$CDynamicPoolEx@VCTextureAnimationRandomDecorator@NEffectUpdateDecorator@@@@8
rdata$r	ENDS
;	COMDAT ??_R0?AV?$CDynamicPoolEx@VCTextureAnimationRandomDecorator@NEffectUpdateDecorator@@@@@8
data$rs	SEGMENT
??_R0?AV?$CDynamicPoolEx@VCTextureAnimationRandomDecorator@NEffectUpdateDecorator@@@@@8 DD FLAT:??_7type_info@@6B@ ; CDynamicPoolEx<NEffectUpdateDecorator::CTextureAnimationRandomDecorator> `RTTI Type Descriptor'
	DD	00H
	DB	'.?AV?$CDynamicPoolEx@VCTextureAnimationRandomDecorator@N'
	DB	'EffectUpdateDecorator@@@@', 00H
data$rs	ENDS
;	COMDAT ??_R4?$CDynamicPoolEx@VCTextureAnimationRandomDecorator@NEffectUpdateDecorator@@@@6B@
rdata$r	SEGMENT
??_R4?$CDynamicPoolEx@VCTextureAnimationRandomDecorator@NEffectUpdateDecorator@@@@6B@ DD 00H ; CDynamicPoolEx<NEffectUpdateDecorator::CTextureAnimationRandomDecorator>::`RTTI Complete Object Locator'
	DD	00H
	DD	00H
	DD	FLAT:??_R0?AV?$CDynamicPoolEx@VCTextureAnimationRandomDecorator@NEffectUpdateDecorator@@@@@8
	DD	FLAT:??_R3?$CDynamicPoolEx@VCTextureAnimationRandomDecorator@NEffectUpdateDecorator@@@@8
rdata$r	ENDS
;	COMDAT ??_R1A@?0A@EA@?$CDynamicPoolEx@VCTextureAnimationCCWDecorator@NEffectUpdateDecorator@@@@8
rdata$r	SEGMENT
??_R1A@?0A@EA@?$CDynamicPoolEx@VCTextureAnimationCCWDecorator@NEffectUpdateDecorator@@@@8 DD FLAT:??_R0?AV?$CDynamicPoolEx@VCTextureAnimationCCWDecorator@NEffectUpdateDecorator@@@@@8 ; CDynamicPoolEx<NEffectUpdateDecorator::CTextureAnimationCCWDecorator>::`RTTI Base Class Descriptor at (0,-1,0,64)'
	DD	00H
	DD	00H
	DD	0ffffffffH
	DD	00H
	DD	040H
	DD	FLAT:??_R3?$CDynamicPoolEx@VCTextureAnimationCCWDecorator@NEffectUpdateDecorator@@@@8
rdata$r	ENDS
;	COMDAT ??_R2?$CDynamicPoolEx@VCTextureAnimationCCWDecorator@NEffectUpdateDecorator@@@@8
rdata$r	SEGMENT
??_R2?$CDynamicPoolEx@VCTextureAnimationCCWDecorator@NEffectUpdateDecorator@@@@8 DD FLAT:??_R1A@?0A@EA@?$CDynamicPoolEx@VCTextureAnimationCCWDecorator@NEffectUpdateDecorator@@@@8 ; CDynamicPoolEx<NEffectUpdateDecorator::CTextureAnimationCCWDecorator>::`RTTI Base Class Array'
rdata$r	ENDS
;	COMDAT ??_R3?$CDynamicPoolEx@VCTextureAnimationCCWDecorator@NEffectUpdateDecorator@@@@8
rdata$r	SEGMENT
??_R3?$CDynamicPoolEx@VCTextureAnimationCCWDecorator@NEffectUpdateDecorator@@@@8 DD 00H ; CDynamicPoolEx<NEffectUpdateDecorator::CTextureAnimationCCWDecorator>::`RTTI Class Hierarchy Descriptor'
	DD	00H
	DD	01H
	DD	FLAT:??_R2?$CDynamicPoolEx@VCTextureAnimationCCWDecorator@NEffectUpdateDecorator@@@@8
rdata$r	ENDS
;	COMDAT ??_R0?AV?$CDynamicPoolEx@VCTextureAnimationCCWDecorator@NEffectUpdateDecorator@@@@@8
data$rs	SEGMENT
??_R0?AV?$CDynamicPoolEx@VCTextureAnimationCCWDecorator@NEffectUpdateDecorator@@@@@8 DD FLAT:??_7type_info@@6B@ ; CDynamicPoolEx<NEffectUpdateDecorator::CTextureAnimationCCWDecorator> `RTTI Type Descriptor'
	DD	00H
	DB	'.?AV?$CDynamicPoolEx@VCTextureAnimationCCWDecorator@NEff'
	DB	'ectUpdateDecorator@@@@', 00H
data$rs	ENDS
;	COMDAT ??_R4?$CDynamicPoolEx@VCTextureAnimationCCWDecorator@NEffectUpdateDecorator@@@@6B@
rdata$r	SEGMENT
??_R4?$CDynamicPoolEx@VCTextureAnimationCCWDecorator@NEffectUpdateDecorator@@@@6B@ DD 00H ; CDynamicPoolEx<NEffectUpdateDecorator::CTextureAnimationCCWDecorator>::`RTTI Complete Object Locator'
	DD	00H
	DD	00H
	DD	FLAT:??_R0?AV?$CDynamicPoolEx@VCTextureAnimationCCWDecorator@NEffectUpdateDecorator@@@@@8
	DD	FLAT:??_R3?$CDynamicPoolEx@VCTextureAnimationCCWDecorator@NEffectUpdateDecorator@@@@8
rdata$r	ENDS
;	COMDAT ??_R1A@?0A@EA@?$CDynamicPoolEx@VCTextureAnimationCWDecorator@NEffectUpdateDecorator@@@@8
rdata$r	SEGMENT
??_R1A@?0A@EA@?$CDynamicPoolEx@VCTextureAnimationCWDecorator@NEffectUpdateDecorator@@@@8 DD FLAT:??_R0?AV?$CDynamicPoolEx@VCTextureAnimationCWDecorator@NEffectUpdateDecorator@@@@@8 ; CDynamicPoolEx<NEffectUpdateDecorator::CTextureAnimationCWDecorator>::`RTTI Base Class Descriptor at (0,-1,0,64)'
	DD	00H
	DD	00H
	DD	0ffffffffH
	DD	00H
	DD	040H
	DD	FLAT:??_R3?$CDynamicPoolEx@VCTextureAnimationCWDecorator@NEffectUpdateDecorator@@@@8
rdata$r	ENDS
;	COMDAT ??_R2?$CDynamicPoolEx@VCTextureAnimationCWDecorator@NEffectUpdateDecorator@@@@8
rdata$r	SEGMENT
??_R2?$CDynamicPoolEx@VCTextureAnimationCWDecorator@NEffectUpdateDecorator@@@@8 DD FLAT:??_R1A@?0A@EA@?$CDynamicPoolEx@VCTextureAnimationCWDecorator@NEffectUpdateDecorator@@@@8 ; CDynamicPoolEx<NEffectUpdateDecorator::CTextureAnimationCWDecorator>::`RTTI Base Class Array'
rdata$r	ENDS
;	COMDAT ??_R3?$CDynamicPoolEx@VCTextureAnimationCWDecorator@NEffectUpdateDecorator@@@@8
rdata$r	SEGMENT
??_R3?$CDynamicPoolEx@VCTextureAnimationCWDecorator@NEffectUpdateDecorator@@@@8 DD 00H ; CDynamicPoolEx<NEffectUpdateDecorator::CTextureAnimationCWDecorator>::`RTTI Class Hierarchy Descriptor'
	DD	00H
	DD	01H
	DD	FLAT:??_R2?$CDynamicPoolEx@VCTextureAnimationCWDecorator@NEffectUpdateDecorator@@@@8
rdata$r	ENDS
;	COMDAT ??_R0?AV?$CDynamicPoolEx@VCTextureAnimationCWDecorator@NEffectUpdateDecorator@@@@@8
data$rs	SEGMENT
??_R0?AV?$CDynamicPoolEx@VCTextureAnimationCWDecorator@NEffectUpdateDecorator@@@@@8 DD FLAT:??_7type_info@@6B@ ; CDynamicPoolEx<NEffectUpdateDecorator::CTextureAnimationCWDecorator> `RTTI Type Descriptor'
	DD	00H
	DB	'.?AV?$CDynamicPoolEx@VCTextureAnimationCWDecorator@NEffe'
	DB	'ctUpdateDecorator@@@@', 00H
data$rs	ENDS
;	COMDAT ??_R4?$CDynamicPoolEx@VCTextureAnimationCWDecorator@NEffectUpdateDecorator@@@@6B@
rdata$r	SEGMENT
??_R4?$CDynamicPoolEx@VCTextureAnimationCWDecorator@NEffectUpdateDecorator@@@@6B@ DD 00H ; CDynamicPoolEx<NEffectUpdateDecorator::CTextureAnimationCWDecorator>::`RTTI Complete Object Locator'
	DD	00H
	DD	00H
	DD	FLAT:??_R0?AV?$CDynamicPoolEx@VCTextureAnimationCWDecorator@NEffectUpdateDecorator@@@@@8
	DD	FLAT:??_R3?$CDynamicPoolEx@VCTextureAnimationCWDecorator@NEffectUpdateDecorator@@@@8
rdata$r	ENDS
;	COMDAT ??_R1A@?0A@EA@?$CDynamicPoolEx@VCNullDecorator@NEffectUpdateDecorator@@@@8
rdata$r	SEGMENT
??_R1A@?0A@EA@?$CDynamicPoolEx@VCNullDecorator@NEffectUpdateDecorator@@@@8 DD FLAT:??_R0?AV?$CDynamicPoolEx@VCNullDecorator@NEffectUpdateDecorator@@@@@8 ; CDynamicPoolEx<NEffectUpdateDecorator::CNullDecorator>::`RTTI Base Class Descriptor at (0,-1,0,64)'
	DD	00H
	DD	00H
	DD	0ffffffffH
	DD	00H
	DD	040H
	DD	FLAT:??_R3?$CDynamicPoolEx@VCNullDecorator@NEffectUpdateDecorator@@@@8
rdata$r	ENDS
;	COMDAT ??_R2?$CDynamicPoolEx@VCNullDecorator@NEffectUpdateDecorator@@@@8
rdata$r	SEGMENT
??_R2?$CDynamicPoolEx@VCNullDecorator@NEffectUpdateDecorator@@@@8 DD FLAT:??_R1A@?0A@EA@?$CDynamicPoolEx@VCNullDecorator@NEffectUpdateDecorator@@@@8 ; CDynamicPoolEx<NEffectUpdateDecorator::CNullDecorator>::`RTTI Base Class Array'
rdata$r	ENDS
;	COMDAT ??_R3?$CDynamicPoolEx@VCNullDecorator@NEffectUpdateDecorator@@@@8
rdata$r	SEGMENT
??_R3?$CDynamicPoolEx@VCNullDecorator@NEffectUpdateDecorator@@@@8 DD 00H ; CDynamicPoolEx<NEffectUpdateDecorator::CNullDecorator>::`RTTI Class Hierarchy Descriptor'
	DD	00H
	DD	01H
	DD	FLAT:??_R2?$CDynamicPoolEx@VCNullDecorator@NEffectUpdateDecorator@@@@8
rdata$r	ENDS
;	COMDAT ??_R0?AV?$CDynamicPoolEx@VCNullDecorator@NEffectUpdateDecorator@@@@@8
data$rs	SEGMENT
??_R0?AV?$CDynamicPoolEx@VCNullDecorator@NEffectUpdateDecorator@@@@@8 DD FLAT:??_7type_info@@6B@ ; CDynamicPoolEx<NEffectUpdateDecorator::CNullDecorator> `RTTI Type Descriptor'
	DD	00H
	DB	'.?AV?$CDynamicPoolEx@VCNullDecorator@NEffectUpdateDecora'
	DB	'tor@@@@', 00H
data$rs	ENDS
;	COMDAT ??_R4?$CDynamicPoolEx@VCNullDecorator@NEffectUpdateDecorator@@@@6B@
rdata$r	SEGMENT
??_R4?$CDynamicPoolEx@VCNullDecorator@NEffectUpdateDecorator@@@@6B@ DD 00H ; CDynamicPoolEx<NEffectUpdateDecorator::CNullDecorator>::`RTTI Complete Object Locator'
	DD	00H
	DD	00H
	DD	FLAT:??_R0?AV?$CDynamicPoolEx@VCNullDecorator@NEffectUpdateDecorator@@@@@8
	DD	FLAT:??_R3?$CDynamicPoolEx@VCNullDecorator@NEffectUpdateDecorator@@@@8
rdata$r	ENDS
;	COMDAT ??_R1A@?0A@EA@?$CDynamicPoolEx@VCHeaderDecorator@NEffectUpdateDecorator@@@@8
rdata$r	SEGMENT
??_R1A@?0A@EA@?$CDynamicPoolEx@VCHeaderDecorator@NEffectUpdateDecorator@@@@8 DD FLAT:??_R0?AV?$CDynamicPoolEx@VCHeaderDecorator@NEffectUpdateDecorator@@@@@8 ; CDynamicPoolEx<NEffectUpdateDecorator::CHeaderDecorator>::`RTTI Base Class Descriptor at (0,-1,0,64)'
	DD	00H
	DD	00H
	DD	0ffffffffH
	DD	00H
	DD	040H
	DD	FLAT:??_R3?$CDynamicPoolEx@VCHeaderDecorator@NEffectUpdateDecorator@@@@8
rdata$r	ENDS
;	COMDAT ??_R2?$CDynamicPoolEx@VCHeaderDecorator@NEffectUpdateDecorator@@@@8
rdata$r	SEGMENT
??_R2?$CDynamicPoolEx@VCHeaderDecorator@NEffectUpdateDecorator@@@@8 DD FLAT:??_R1A@?0A@EA@?$CDynamicPoolEx@VCHeaderDecorator@NEffectUpdateDecorator@@@@8 ; CDynamicPoolEx<NEffectUpdateDecorator::CHeaderDecorator>::`RTTI Base Class Array'
rdata$r	ENDS
;	COMDAT ??_R3?$CDynamicPoolEx@VCHeaderDecorator@NEffectUpdateDecorator@@@@8
rdata$r	SEGMENT
??_R3?$CDynamicPoolEx@VCHeaderDecorator@NEffectUpdateDecorator@@@@8 DD 00H ; CDynamicPoolEx<NEffectUpdateDecorator::CHeaderDecorator>::`RTTI Class Hierarchy Descriptor'
	DD	00H
	DD	01H
	DD	FLAT:??_R2?$CDynamicPoolEx@VCHeaderDecorator@NEffectUpdateDecorator@@@@8
rdata$r	ENDS
;	COMDAT ??_R0?AV?$CDynamicPoolEx@VCHeaderDecorator@NEffectUpdateDecorator@@@@@8
data$rs	SEGMENT
??_R0?AV?$CDynamicPoolEx@VCHeaderDecorator@NEffectUpdateDecorator@@@@@8 DD FLAT:??_7type_info@@6B@ ; CDynamicPoolEx<NEffectUpdateDecorator::CHeaderDecorator> `RTTI Type Descriptor'
	DD	00H
	DB	'.?AV?$CDynamicPoolEx@VCHeaderDecorator@NEffectUpdateDeco'
	DB	'rator@@@@', 00H
data$rs	ENDS
;	COMDAT ??_R4?$CDynamicPoolEx@VCHeaderDecorator@NEffectUpdateDecorator@@@@6B@
rdata$r	SEGMENT
??_R4?$CDynamicPoolEx@VCHeaderDecorator@NEffectUpdateDecorator@@@@6B@ DD 00H ; CDynamicPoolEx<NEffectUpdateDecorator::CHeaderDecorator>::`RTTI Complete Object Locator'
	DD	00H
	DD	00H
	DD	FLAT:??_R0?AV?$CDynamicPoolEx@VCHeaderDecorator@NEffectUpdateDecorator@@@@@8
	DD	FLAT:??_R3?$CDynamicPoolEx@VCHeaderDecorator@NEffectUpdateDecorator@@@@8
rdata$r	ENDS
;	COMDAT ??_7?$CDynamicPoolEx@VCHeaderDecorator@NEffectUpdateDecorator@@@@6B@
CONST	SEGMENT
??_7?$CDynamicPoolEx@VCHeaderDecorator@NEffectUpdateDecorator@@@@6B@ DD FLAT:??_R4?$CDynamicPoolEx@VCHeaderDecorator@NEffectUpdateDecorator@@@@6B@ ; CDynamicPoolEx<NEffectUpdateDecorator::CHeaderDecorator>::`vftable'
	DD	FLAT:??_E?$CDynamicPoolEx@VCHeaderDecorator@NEffectUpdateDecorator@@@@UAEPAXI@Z
CONST	ENDS
;	COMDAT ??_7?$CDynamicPoolEx@VCNullDecorator@NEffectUpdateDecorator@@@@6B@
CONST	SEGMENT
??_7?$CDynamicPoolEx@VCNullDecorator@NEffectUpdateDecorator@@@@6B@ DD FLAT:??_R4?$CDynamicPoolEx@VCNullDecorator@NEffectUpdateDecorator@@@@6B@ ; CDynamicPoolEx<NEffectUpdateDecorator::CNullDecorator>::`vftable'
	DD	FLAT:??_E?$CDynamicPoolEx@VCNullDecorator@NEffectUpdateDecorator@@@@UAEPAXI@Z
CONST	ENDS
;	COMDAT ??_7?$CDynamicPoolEx@VCTextureAnimationCWDecorator@NEffectUpdateDecorator@@@@6B@
CONST	SEGMENT
??_7?$CDynamicPoolEx@VCTextureAnimationCWDecorator@NEffectUpdateDecorator@@@@6B@ DD FLAT:??_R4?$CDynamicPoolEx@VCTextureAnimationCWDecorator@NEffectUpdateDecorator@@@@6B@ ; CDynamicPoolEx<NEffectUpdateDecorator::CTextureAnimationCWDecorator>::`vftable'
	DD	FLAT:??_E?$CDynamicPoolEx@VCTextureAnimationCWDecorator@NEffectUpdateDecorator@@@@UAEPAXI@Z
CONST	ENDS
;	COMDAT ??_7?$CDynamicPoolEx@VCTextureAnimationCCWDecorator@NEffectUpdateDecorator@@@@6B@
CONST	SEGMENT
??_7?$CDynamicPoolEx@VCTextureAnimationCCWDecorator@NEffectUpdateDecorator@@@@6B@ DD FLAT:??_R4?$CDynamicPoolEx@VCTextureAnimationCCWDecorator@NEffectUpdateDecorator@@@@6B@ ; CDynamicPoolEx<NEffectUpdateDecorator::CTextureAnimationCCWDecorator>::`vftable'
	DD	FLAT:??_E?$CDynamicPoolEx@VCTextureAnimationCCWDecorator@NEffectUpdateDecorator@@@@UAEPAXI@Z
CONST	ENDS
;	COMDAT ??_7?$CDynamicPoolEx@VCTextureAnimationRandomDecorator@NEffectUpdateDecorator@@@@6B@
CONST	SEGMENT
??_7?$CDynamicPoolEx@VCTextureAnimationRandomDecorator@NEffectUpdateDecorator@@@@6B@ DD FLAT:??_R4?$CDynamicPoolEx@VCTextureAnimationRandomDecorator@NEffectUpdateDecorator@@@@6B@ ; CDynamicPoolEx<NEffectUpdateDecorator::CTextureAnimationRandomDecorator>::`vftable'
	DD	FLAT:??_E?$CDynamicPoolEx@VCTextureAnimationRandomDecorator@NEffectUpdateDecorator@@@@UAEPAXI@Z
CONST	ENDS
;	COMDAT ??_7?$CDynamicPoolEx@VCAirResistanceDecorator@NEffectUpdateDecorator@@@@6B@
CONST	SEGMENT
??_7?$CDynamicPoolEx@VCAirResistanceDecorator@NEffectUpdateDecorator@@@@6B@ DD FLAT:??_R4?$CDynamicPoolEx@VCAirResistanceDecorator@NEffectUpdateDecorator@@@@6B@ ; CDynamicPoolEx<NEffectUpdateDecorator::CAirResistanceDecorator>::`vftable'
	DD	FLAT:??_E?$CDynamicPoolEx@VCAirResistanceDecorator@NEffectUpdateDecorator@@@@UAEPAXI@Z
CONST	ENDS
;	COMDAT ??_7?$CDynamicPoolEx@VCGravityDecorator@NEffectUpdateDecorator@@@@6B@
CONST	SEGMENT
??_7?$CDynamicPoolEx@VCGravityDecorator@NEffectUpdateDecorator@@@@6B@ DD FLAT:??_R4?$CDynamicPoolEx@VCGravityDecorator@NEffectUpdateDecorator@@@@6B@ ; CDynamicPoolEx<NEffectUpdateDecorator::CGravityDecorator>::`vftable'
	DD	FLAT:??_E?$CDynamicPoolEx@VCGravityDecorator@NEffectUpdateDecorator@@@@UAEPAXI@Z
CONST	ENDS
;	COMDAT ??_7?$CDynamicPoolEx@VCRotationDecorator@NEffectUpdateDecorator@@@@6B@
CONST	SEGMENT
??_7?$CDynamicPoolEx@VCRotationDecorator@NEffectUpdateDecorator@@@@6B@ DD FLAT:??_R4?$CDynamicPoolEx@VCRotationDecorator@NEffectUpdateDecorator@@@@6B@ ; CDynamicPoolEx<NEffectUpdateDecorator::CRotationDecorator>::`vftable'
	DD	FLAT:??_E?$CDynamicPoolEx@VCRotationDecorator@NEffectUpdateDecorator@@@@UAEPAXI@Z
CONST	ENDS
;	COMDAT ??_C@_0M@HKJKCDHH@OPENID_TEST@
CONST	SEGMENT
??_C@_0M@HKJKCDHH@OPENID_TEST@ DB 'OPENID_TEST', 00H	; `string'
CONST	ENDS
;	COMDAT ??_C@_0L@GJPKGMAC@USE_OPENID@
CONST	SEGMENT
??_C@_0L@GJPKGMAC@USE_OPENID@ DB 'USE_OPENID', 00H	; `string'
CONST	ENDS
;	COMDAT ??_C@_0BM@LNFCINHP@ENABLE_NEW_EQUIPMENT_SYSTEM@
CONST	SEGMENT
??_C@_0BM@LNFCINHP@ENABLE_NEW_EQUIPMENT_SYSTEM@ DB 'ENABLE_NEW_EQUIPMENT_'
	DB	'SYSTEM', 00H				; `string'
CONST	ENDS
;	COMDAT ??_C@_0BK@MHKPDOOB@ENABLE_DRAGON_SOUL_SYSTEM@
CONST	SEGMENT
??_C@_0BK@MHKPDOOB@ENABLE_DRAGON_SOUL_SYSTEM@ DB 'ENABLE_DRAGON_SOUL_SYST'
	DB	'EM', 00H					; `string'
CONST	ENDS
;	COMDAT ??_C@_0BF@JNPGDOCA@ENABLE_ENERGY_SYSTEM@
CONST	SEGMENT
??_C@_0BF@JNPGDOCA@ENABLE_ENERGY_SYSTEM@ DB 'ENABLE_ENERGY_SYSTEM', 00H ; `string'
CONST	ENDS
;	COMDAT ??_C@_0BG@NNONEOJP@ENABLE_COSTUME_SYSTEM@
CONST	SEGMENT
??_C@_0BG@NNONEOJP@ENABLE_COSTUME_SYSTEM@ DB 'ENABLE_COSTUME_SYSTEM', 00H ; `string'
CONST	ENDS
;	COMDAT ??_C@_0M@NJFGNKPE@CAMERA_STOP@
CONST	SEGMENT
??_C@_0M@NJFGNKPE@CAMERA_STOP@ DB 'CAMERA_STOP', 00H	; `string'
CONST	ENDS
;	COMDAT ??_C@_0BD@JPBNJGLJ@CAMERA_TO_NEGATIVE@
CONST	SEGMENT
??_C@_0BD@JPBNJGLJ@CAMERA_TO_NEGATIVE@ DB 'CAMERA_TO_NEGATIVE', 00H ; `string'
CONST	ENDS
;	COMDAT ??_C@_0BD@BFBNCJCC@CAMERA_TO_POSITIVE@
CONST	SEGMENT
??_C@_0BD@BFBNCJCC@CAMERA_TO_POSITIVE@ DB 'CAMERA_TO_POSITIVE', 00H ; `string'
CONST	ENDS
;	COMDAT ??_C@_06LKCKECPP@HVSIZE@
CONST	SEGMENT
??_C@_06LKCKECPP@HVSIZE@ DB 'HVSIZE', 00H		; `string'
CONST	ENDS
;	COMDAT ??_C@_05OBGAAHDM@VSIZE@
CONST	SEGMENT
??_C@_05OBGAAHDM@VSIZE@ DB 'VSIZE', 00H			; `string'
CONST	ENDS
;	COMDAT ??_C@_05NILMGENH@HSIZE@
CONST	SEGMENT
??_C@_05NILMGENH@HSIZE@ DB 'HSIZE', 00H			; `string'
CONST	ENDS
;	COMDAT ??_C@_0O@MAJOJEIM@CAMERA_ROTATE@
CONST	SEGMENT
??_C@_0O@MAJOJEIM@CAMERA_ROTATE@ DB 'CAMERA_ROTATE', 00H ; `string'
CONST	ENDS
;	COMDAT ??_C@_04MPOIGBFL@SELL@
CONST	SEGMENT
??_C@_04MPOIGBFL@SELL@ DB 'SELL', 00H			; `string'
CONST	ENDS
;	COMDAT ??_C@_03OOKILKBD@BUY@
CONST	SEGMENT
??_C@_03OOKILKBD@BUY@ DB 'BUY', 00H			; `string'
CONST	ENDS
;	COMDAT ??_C@_05DKLEPMBK@MAGIC@
CONST	SEGMENT
??_C@_05DKLEPMBK@MAGIC@ DB 'MAGIC', 00H			; `string'
CONST	ENDS
;	COMDAT ??_C@_05HLBMIDNH@CHAIR@
CONST	SEGMENT
??_C@_05HLBMIDNH@CHAIR@ DB 'CHAIR', 00H			; `string'
CONST	ENDS
;	COMDAT ??_C@_04KEJCELCL@DOOR@
CONST	SEGMENT
??_C@_04KEJCELCL@DOOR@ DB 'DOOR', 00H			; `string'
CONST	ENDS
;	COMDAT ??_C@_04IGIDHFMJ@PICK@
CONST	SEGMENT
??_C@_04IGIDHFMJ@PICK@ DB 'PICK', 00H			; `string'
CONST	ENDS
;	COMDAT ??_C@_07LGCIEODJ@CANT_GO@
CONST	SEGMENT
??_C@_07LGCIEODJ@CANT_GO@ DB 'CANT_GO', 00H		; `string'
CONST	ENDS
;	COMDAT ??_C@_04LNOLLMNL@TALK@
CONST	SEGMENT
??_C@_04LNOLLMNL@TALK@ DB 'TALK', 00H			; `string'
CONST	ENDS
;	COMDAT ??_C@_06JNJLBPLI@TARGET@
CONST	SEGMENT
??_C@_06JNJLBPLI@TARGET@ DB 'TARGET', 00H		; `string'
CONST	ENDS
;	COMDAT ??_C@_06JIJKOHKJ@ATTACK@
CONST	SEGMENT
??_C@_06JIJKOHKJ@ATTACK@ DB 'ATTACK', 00H		; `string'
CONST	ENDS
;	COMDAT ??_C@_06IOJAGNKJ@NORMAL@
CONST	SEGMENT
??_C@_06IOJAGNKJ@NORMAL@ DB 'NORMAL', 00H		; `string'
CONST	ENDS
;	COMDAT ??_C@_08EEDKKFEB@DIK_APPS@
CONST	SEGMENT
??_C@_08EEDKKFEB@DIK_APPS@ DB 'DIK_APPS', 00H		; `string'
CONST	ENDS
;	COMDAT ??_C@_08BCDGIEEJ@DIK_RWIN@
CONST	SEGMENT
??_C@_08BCDGIEEJ@DIK_RWIN@ DB 'DIK_RWIN', 00H		; `string'
CONST	ENDS
;	COMDAT ??_C@_08MNOGKNKK@DIK_LWIN@
CONST	SEGMENT
??_C@_08MNOGKNKK@DIK_LWIN@ DB 'DIK_LWIN', 00H		; `string'
CONST	ENDS
;	COMDAT ??_C@_0L@HICEJOHK@DIK_DELETE@
CONST	SEGMENT
??_C@_0L@HICEJOHK@DIK_DELETE@ DB 'DIK_DELETE', 00H	; `string'
CONST	ENDS
;	COMDAT ??_C@_0L@MGNAFAII@DIK_INSERT@
CONST	SEGMENT
??_C@_0L@MGNAFAII@DIK_INSERT@ DB 'DIK_INSERT', 00H	; `string'
CONST	ENDS
;	COMDAT ??_C@_08DADHBDOF@DIK_PGDN@
CONST	SEGMENT
??_C@_08DADHBDOF@DIK_PGDN@ DB 'DIK_PGDN', 00H		; `string'
CONST	ENDS
;	COMDAT ??_C@_08HOIDBHGB@DIK_DOWN@
CONST	SEGMENT
??_C@_08HOIDBHGB@DIK_DOWN@ DB 'DIK_DOWN', 00H		; `string'
CONST	ENDS
;	COMDAT ??_C@_07HLJOPMFK@DIK_END@
CONST	SEGMENT
??_C@_07HLJOPMFK@DIK_END@ DB 'DIK_END', 00H		; `string'
CONST	ENDS
;	COMDAT ??_C@_09OKEHHFIC@DIK_RIGHT@
CONST	SEGMENT
??_C@_09OKEHHFIC@DIK_RIGHT@ DB 'DIK_RIGHT', 00H		; `string'
CONST	ENDS
;	COMDAT ??_C@_08IMIHIPFI@DIK_LEFT@
CONST	SEGMENT
??_C@_08IMIHIPFI@DIK_LEFT@ DB 'DIK_LEFT', 00H		; `string'
CONST	ENDS
;	COMDAT ??_C@_08PJJCOFHN@DIK_PGUP@
CONST	SEGMENT
??_C@_08PJJCOFHN@DIK_PGUP@ DB 'DIK_PGUP', 00H		; `string'
CONST	ENDS
;	COMDAT ??_C@_06JGABONOM@DIK_UP@
CONST	SEGMENT
??_C@_06JGABONOM@DIK_UP@ DB 'DIK_UP', 00H		; `string'
CONST	ENDS
;	COMDAT ??_C@_08EJDGAFAN@DIK_HOME@
CONST	SEGMENT
??_C@_08EJDGAFAN@DIK_HOME@ DB 'DIK_HOME', 00H		; `string'
CONST	ENDS
;	COMDAT ??_C@_09COEFGPNN@DIK_PAUSE@
CONST	SEGMENT
??_C@_09COEFGPNN@DIK_PAUSE@ DB 'DIK_PAUSE', 00H		; `string'
CONST	ENDS
;	COMDAT ??_C@_08NBKCLEDK@DIK_RALT@
CONST	SEGMENT
??_C@_08NBKCLEDK@DIK_RALT@ DB 'DIK_RALT', 00H		; `string'
CONST	ENDS
;	COMDAT ??_C@_09PCEGCDIO@DIK_SYSRQ@
CONST	SEGMENT
??_C@_09PCEGCDIO@DIK_SYSRQ@ DB 'DIK_SYSRQ', 00H		; `string'
CONST	ENDS
;	COMDAT ??_C@_0L@HDEGMNOK@DIK_DIVIDE@
CONST	SEGMENT
??_C@_0L@HDEGMNOK@DIK_DIVIDE@ DB 'DIK_DIVIDE', 00H	; `string'
CONST	ENDS
;	COMDAT ??_C@_0BA@ECBGFAAH@DIK_NUMPADCOMMA@
CONST	SEGMENT
??_C@_0BA@ECBGFAAH@DIK_NUMPADCOMMA@ DB 'DIK_NUMPADCOMMA', 00H ; `string'
CONST	ENDS
;	COMDAT ??_C@_0M@IEADBFND@DIK_WEBHOME@
CONST	SEGMENT
??_C@_0M@IEADBFND@DIK_WEBHOME@ DB 'DIK_WEBHOME', 00H	; `string'
CONST	ENDS
;	COMDAT ??_C@_0N@GPHLGHED@DIK_VOLUMEUP@
CONST	SEGMENT
??_C@_0N@GPHLGHED@DIK_VOLUMEUP@ DB 'DIK_VOLUMEUP', 00H	; `string'
CONST	ENDS
;	COMDAT ??_C@_0P@FKHBCEAD@DIK_VOLUMEDOWN@
CONST	SEGMENT
??_C@_0P@FKHBCEAD@DIK_VOLUMEDOWN@ DB 'DIK_VOLUMEDOWN', 00H ; `string'
CONST	ENDS
;	COMDAT ??_C@_0O@FLFOAKOG@DIK_MEDIASTOP@
CONST	SEGMENT
??_C@_0O@FLFOAKOG@DIK_MEDIASTOP@ DB 'DIK_MEDIASTOP', 00H ; `string'
CONST	ENDS
;	COMDAT ??_C@_0O@ECAMOKPG@DIK_PLAYPAUSE@
CONST	SEGMENT
??_C@_0O@ECAMOKPG@DIK_PLAYPAUSE@ DB 'DIK_PLAYPAUSE', 00H ; `string'
CONST	ENDS
;	COMDAT ??_C@_0P@OJEJDHIP@DIK_CALCULATOR@
CONST	SEGMENT
??_C@_0P@OJEJDHIP@DIK_CALCULATOR@ DB 'DIK_CALCULATOR', 00H ; `string'
CONST	ENDS
;	COMDAT ??_C@_08KNIFKFHJ@DIK_MUTE@
CONST	SEGMENT
??_C@_08KNIFKFHJ@DIK_MUTE@ DB 'DIK_MUTE', 00H		; `string'
CONST	ENDS
;	COMDAT ??_C@_0N@GKDJCKOL@DIK_RCONTROL@
CONST	SEGMENT
??_C@_0N@GKDJCKOL@DIK_RCONTROL@ DB 'DIK_RCONTROL', 00H	; `string'
CONST	ENDS
;	COMDAT ??_C@_0BA@OLMCJCJF@DIK_NUMPADENTER@
CONST	SEGMENT
??_C@_0BA@OLMCJCJF@DIK_NUMPADENTER@ DB 'DIK_NUMPADENTER', 00H ; `string'
CONST	ENDS
;	COMDAT ??_C@_0O@DEOEEHEE@DIK_NEXTTRACK@
CONST	SEGMENT
??_C@_0O@DEOEEHEE@DIK_NEXTTRACK@ DB 'DIK_NEXTTRACK', 00H ; `string'
CONST	ENDS
;	COMDAT ??_C@_07EPODKCKJ@DIK_F12@
CONST	SEGMENT
??_C@_07EPODKCKJ@DIK_F12@ DB 'DIK_F12', 00H		; `string'
CONST	ENDS
;	COMDAT ??_C@_07GEMOPBGK@DIK_F11@
CONST	SEGMENT
??_C@_07GEMOPBGK@DIK_F11@ DB 'DIK_F11', 00H		; `string'
CONST	ENDS
;	COMDAT ??_C@_0M@PCNKFDKI@DIK_DECIMAL@
CONST	SEGMENT
??_C@_0M@PCNKFDKI@DIK_DECIMAL@ DB 'DIK_DECIMAL', 00H	; `string'
CONST	ENDS
;	COMDAT ??_C@_0M@JMKJAMIE@DIK_NUMPAD0@
CONST	SEGMENT
??_C@_0M@JMKJAMIE@DIK_NUMPAD0@ DB 'DIK_NUMPAD0', 00H	; `string'
CONST	ENDS
;	COMDAT ??_C@_0M@LHIEFPEH@DIK_NUMPAD3@
CONST	SEGMENT
??_C@_0M@LHIEFPEH@DIK_NUMPAD3@ DB 'DIK_NUMPAD3', 00H	; `string'
CONST	ENDS
;	COMDAT ??_C@_0M@KOJPGOAG@DIK_NUMPAD2@
CONST	SEGMENT
??_C@_0M@KOJPGOAG@DIK_NUMPAD2@ DB 'DIK_NUMPAD2', 00H	; `string'
CONST	ENDS
;	COMDAT ??_C@_0M@IFLCDNMF@DIK_NUMPAD1@
CONST	SEGMENT
??_C@_0M@IFLCDNMF@DIK_NUMPAD1@ DB 'DIK_NUMPAD1', 00H	; `string'
CONST	ENDS
;	COMDAT ??_C@_07PJGLOONL@DIK_ADD@
CONST	SEGMENT
??_C@_07PJGLOONL@DIK_ADD@ DB 'DIK_ADD', 00H		; `string'
CONST	ENDS
;	COMDAT ??_C@_0M@MKPDKLAC@DIK_NUMPAD6@
CONST	SEGMENT
??_C@_0M@MKPDKLAC@DIK_NUMPAD6@ DB 'DIK_NUMPAD6', 00H	; `string'
CONST	ENDS
;	COMDAT ??_C@_0M@OBNOPIMB@DIK_NUMPAD5@
CONST	SEGMENT
??_C@_0M@OBNOPIMB@DIK_NUMPAD5@ DB 'DIK_NUMPAD5', 00H	; `string'
CONST	ENDS
;	COMDAT ??_C@_0M@PIMFMJIA@DIK_NUMPAD4@
CONST	SEGMENT
??_C@_0M@PIMFMJIA@DIK_NUMPAD4@ DB 'DIK_NUMPAD4', 00H	; `string'
CONST	ENDS
;	COMDAT ??_C@_0N@ECOBCKNF@DIK_SUBTRACT@
CONST	SEGMENT
??_C@_0N@ECOBCKNF@DIK_SUBTRACT@ DB 'DIK_SUBTRACT', 00H	; `string'
CONST	ENDS
;	COMDAT ??_C@_0M@ENGLLHMN@DIK_NUMPAD9@
CONST	SEGMENT
??_C@_0M@ENGLLHMN@DIK_NUMPAD9@ DB 'DIK_NUMPAD9', 00H	; `string'
CONST	ENDS
;	COMDAT ??_C@_0M@FEHAIGIM@DIK_NUMPAD8@
CONST	SEGMENT
??_C@_0M@FEHAIGIM@DIK_NUMPAD8@ DB 'DIK_NUMPAD8', 00H	; `string'
CONST	ENDS
;	COMDAT ??_C@_0M@NDOIJKED@DIK_NUMPAD7@
CONST	SEGMENT
??_C@_0M@NDOIJKED@DIK_NUMPAD7@ DB 'DIK_NUMPAD7', 00H	; `string'
CONST	ENDS
;	COMDAT ??_C@_0L@HPJOFPCB@DIK_SCROLL@
CONST	SEGMENT
??_C@_0L@HPJOFPCB@DIK_SCROLL@ DB 'DIK_SCROLL', 00H	; `string'
CONST	ENDS
;	COMDAT ??_C@_0M@BAOCLHIM@DIK_NUMLOCK@
CONST	SEGMENT
??_C@_0M@BAOCLHIM@DIK_NUMLOCK@ DB 'DIK_NUMLOCK', 00H	; `string'
CONST	ENDS
;	COMDAT ??_C@_07HNNFMACL@DIK_F10@
CONST	SEGMENT
??_C@_07HNNFMACL@DIK_F10@ DB 'DIK_F10', 00H		; `string'
CONST	ENDS
;	COMDAT ??_C@_06DMFOCACL@DIK_F9@
CONST	SEGMENT
??_C@_06DMFOCACL@DIK_F9@ DB 'DIK_F9', 00H		; `string'
CONST	ENDS
;	COMDAT ??_C@_06CFEFBBGK@DIK_F8@
CONST	SEGMENT
??_C@_06CFEFBBGK@DIK_F8@ DB 'DIK_F8', 00H		; `string'
CONST	ENDS
;	COMDAT ??_C@_06KCNNANKF@DIK_F7@
CONST	SEGMENT
??_C@_06KCNNANKF@DIK_F7@ DB 'DIK_F7', 00H		; `string'
CONST	ENDS
;	COMDAT ??_C@_06LLMGDMOE@DIK_F6@
CONST	SEGMENT
??_C@_06LLMGDMOE@DIK_F6@ DB 'DIK_F6', 00H		; `string'
CONST	ENDS
;	COMDAT ??_C@_06JAOLGPCH@DIK_F5@
CONST	SEGMENT
??_C@_06JAOLGPCH@DIK_F5@ DB 'DIK_F5', 00H		; `string'
CONST	ENDS
;	COMDAT ??_C@_06IJPAFOGG@DIK_F4@
CONST	SEGMENT
??_C@_06IJPAFOGG@DIK_F4@ DB 'DIK_F4', 00H		; `string'
CONST	ENDS
;	COMDAT ??_C@_06MGLBMIKB@DIK_F3@
CONST	SEGMENT
??_C@_06MGLBMIKB@DIK_F3@ DB 'DIK_F3', 00H		; `string'
CONST	ENDS
;	COMDAT ??_C@_06NPKKPJOA@DIK_F2@
CONST	SEGMENT
??_C@_06NPKKPJOA@DIK_F2@ DB 'DIK_F2', 00H		; `string'
CONST	ENDS
;	COMDAT ??_C@_06PEIHKKCD@DIK_F1@
CONST	SEGMENT
??_C@_06PEIHKKCD@DIK_F1@ DB 'DIK_F1', 00H		; `string'
CONST	ENDS
;	COMDAT ??_C@_0M@KEADBGIC@DIK_CAPITAL@
CONST	SEGMENT
??_C@_0M@KEADBGIC@DIK_CAPITAL@ DB 'DIK_CAPITAL', 00H	; `string'
CONST	ENDS
;	COMDAT ??_C@_09DGAMMAPJ@DIK_SPACE@
CONST	SEGMENT
??_C@_09DGAMMAPJ@DIK_SPACE@ DB 'DIK_SPACE', 00H		; `string'
CONST	ENDS
;	COMDAT ??_C@_08OHCJNNJ@DIK_LALT@
CONST	SEGMENT
??_C@_08OHCJNNJ@DIK_LALT@ DB 'DIK_LALT', 00H		; `string'
CONST	ENDS
;	COMDAT ??_C@_0N@DHLLGHHC@DIK_MULTIPLY@
CONST	SEGMENT
??_C@_0N@DHLLGHHC@DIK_MULTIPLY@ DB 'DIK_MULTIPLY', 00H	; `string'
CONST	ENDS
;	COMDAT ??_C@_0L@FKIIJLHO@DIK_RSHIFT@
CONST	SEGMENT
??_C@_0L@FKIIJLHO@DIK_RSHIFT@ DB 'DIK_RSHIFT', 00H	; `string'
CONST	ENDS
;	COMDAT ??_C@_09DKJEGHEH@DIK_SLASH@
CONST	SEGMENT
??_C@_09DKJEGHEH@DIK_SLASH@ DB 'DIK_SLASH', 00H		; `string'
CONST	ENDS
;	COMDAT ??_C@_0L@HHNLMNCM@DIK_PERIOD@
CONST	SEGMENT
??_C@_0L@HHNLMNCM@DIK_PERIOD@ DB 'DIK_PERIOD', 00H	; `string'
CONST	ENDS
;	COMDAT ??_C@_09PDEOJFIH@DIK_COMMA@
CONST	SEGMENT
??_C@_09PDEOJFIH@DIK_COMMA@ DB 'DIK_COMMA', 00H		; `string'
CONST	ENDS
;	COMDAT ??_C@_05OBDFKLOH@DIK_M@
CONST	SEGMENT
??_C@_05OBDFKLOH@DIK_M@ DB 'DIK_M', 00H			; `string'
CONST	ENDS
;	COMDAT ??_C@_05MKBIPICE@DIK_N@
CONST	SEGMENT
??_C@_05MKBIPICE@DIK_N@ DB 'DIK_N', 00H			; `string'
CONST	ENDS
;	COMDAT ??_C@_05GGKNLHCI@DIK_B@
CONST	SEGMENT
??_C@_05GGKNLHCI@DIK_B@ DB 'DIK_B', 00H			; `string'
CONST	ENDS
;	COMDAT ??_C@_05EIADGAHN@DIK_V@
CONST	SEGMENT
??_C@_05EIADGAHN@DIK_V@ DB 'DIK_V', 00H			; `string'
CONST	ENDS
;	COMDAT ??_C@_05HPLGIGGJ@DIK_C@
CONST	SEGMENT
??_C@_05HPLGIGGJ@DIK_C@ DB 'DIK_C', 00H			; `string'
CONST	ENDS
;	COMDAT ??_C@_05NGIAENPD@DIK_X@
CONST	SEGMENT
??_C@_05NGIAENPD@DIK_X@ DB 'DIK_X', 00H			; `string'
CONST	ENDS
;	COMDAT ??_C@_05OELGCPHB@DIK_Z@
CONST	SEGMENT
??_C@_05OELGCPHB@DIK_Z@ DB 'DIK_Z', 00H			; `string'
CONST	ENDS
;	COMDAT ??_C@_0O@DGKNNOHE@DIK_BACKSLASH@
CONST	SEGMENT
??_C@_0O@DGKNNOHE@DIK_BACKSLASH@ DB 'DIK_BACKSLASH', 00H ; `string'
CONST	ENDS
;	COMDAT ??_C@_0L@GNGJHMON@DIK_LSHIFT@
CONST	SEGMENT
??_C@_0L@GNGJHMON@DIK_LSHIFT@ DB 'DIK_LSHIFT', 00H	; `string'
CONST	ENDS
;	COMDAT ??_C@_09MOGGLCIP@DIK_GRAVE@
CONST	SEGMENT
??_C@_09MOGGLCIP@DIK_GRAVE@ DB 'DIK_GRAVE', 00H		; `string'
CONST	ENDS
;	COMDAT ??_C@_0P@JDEKLKAM@DIK_APOSTROPHE@
CONST	SEGMENT
??_C@_0P@JDEKLKAM@DIK_APOSTROPHE@ DB 'DIK_APOSTROPHE', 00H ; `string'
CONST	ENDS
;	COMDAT ??_C@_0O@NEECDLLB@DIK_SEMICOLON@
CONST	SEGMENT
??_C@_0O@NEECDLLB@DIK_SEMICOLON@ DB 'DIK_SEMICOLON', 00H ; `string'
CONST	ENDS
;	COMDAT ??_C@_05PICOJKKG@DIK_L@
CONST	SEGMENT
??_C@_05PICOJKKG@DIK_L@ DB 'DIK_L', 00H			; `string'
CONST	ENDS
;	COMDAT ??_C@_05LHGPAMGB@DIK_K@
CONST	SEGMENT
??_C@_05LHGPAMGB@DIK_K@ DB 'DIK_K', 00H			; `string'
CONST	ENDS
;	COMDAT ??_C@_05KOHEDNCA@DIK_J@
CONST	SEGMENT
??_C@_05KOHEDNCA@DIK_J@ DB 'DIK_J', 00H			; `string'
CONST	ENDS
;	COMDAT ??_C@_05JMECFPKC@DIK_H@
CONST	SEGMENT
??_C@_05JMECFPKC@DIK_H@ DB 'DIK_H', 00H			; `string'
CONST	ENDS
;	COMDAT ??_C@_05BLNKEDGN@DIK_G@
CONST	SEGMENT
??_C@_05BLNKEDGN@DIK_G@ DB 'DIK_G', 00H			; `string'
CONST	ENDS
;	COMDAT ??_C@_05CMBHCCM@DIK_F@
CONST	SEGMENT
??_C@_05CMBHCCM@DIK_F@ DB 'DIK_F', 00H			; `string'
CONST	ENDS
;	COMDAT ??_C@_05DAPHBAKO@DIK_D@
CONST	SEGMENT
??_C@_05DAPHBAKO@DIK_D@ DB 'DIK_D', 00H			; `string'
CONST	ENDS
;	COMDAT ??_C@_05DFHEJEDI@DIK_S@
CONST	SEGMENT
??_C@_05DFHEJEDI@DIK_S@ DB 'DIK_S', 00H			; `string'
CONST	ENDS
;	COMDAT ??_C@_05ENIAOEOL@DIK_A@
CONST	SEGMENT
??_C@_05ENIAOEOL@DIK_A@ DB 'DIK_A', 00H			; `string'
CONST	ENDS
;	COMDAT ??_C@_0N@ODLLDAI@DIK_LCONTROL@
CONST	SEGMENT
??_C@_0N@ODLLDAI@DIK_LCONTROL@ DB 'DIK_LCONTROL', 00H	; `string'
CONST	ENDS
;	COMDAT ??_C@_0L@JLNKBJCL@DIK_RETURN@
CONST	SEGMENT
??_C@_0L@JLNKBJCL@DIK_RETURN@ DB 'DIK_RETURN', 00H	; `string'
CONST	ENDS
;	COMDAT ??_C@_0N@CBJBCLKG@DIK_RBRACKET@
CONST	SEGMENT
??_C@_0N@CBJBCLKG@DIK_RBRACKET@ DB 'DIK_RBRACKET', 00H	; `string'
CONST	ENDS
;	COMDAT ??_C@_0N@EFJDLCEF@DIK_LBRACKET@
CONST	SEGMENT
??_C@_0N@EFJDLCEF@DIK_LBRACKET@ DB 'DIK_LBRACKET', 00H	; `string'
CONST	ENDS
;	COMDAT ??_C@_05BOFJMHPL@DIK_P@
CONST	SEGMENT
??_C@_05BOFJMHPL@DIK_P@ DB 'DIK_P', 00H			; `string'
CONST	ENDS
;	COMDAT ??_C@_05NDADMJGF@DIK_O@
CONST	SEGMENT
??_C@_05NDADMJGF@DIK_O@ DB 'DIK_O', 00H			; `string'
CONST	ENDS
;	COMDAT ??_C@_05IFFJGOOD@DIK_I@
CONST	SEGMENT
??_C@_05IFFJGOOD@DIK_I@ DB 'DIK_I', 00H			; `string'
CONST	ENDS
;	COMDAT ??_C@_05GDCODDLO@DIK_U@
CONST	SEGMENT
??_C@_05GDCODDLO@DIK_U@ DB 'DIK_U', 00H			; `string'
CONST	ENDS
;	COMDAT ??_C@_05MPJLHMLC@DIK_Y@
CONST	SEGMENT
??_C@_05MPJLHMLC@DIK_Y@ DB 'DIK_Y', 00H			; `string'
CONST	ENDS
;	COMDAT ??_C@_05HKDFACPP@DIK_T@
CONST	SEGMENT
??_C@_05HKDFACPP@DIK_T@ DB 'DIK_T', 00H			; `string'
CONST	ENDS
;	COMDAT ??_C@_05CMGPKFHJ@DIK_R@
CONST	SEGMENT
??_C@_05CMGPKFHJ@DIK_R@ DB 'DIK_R', 00H			; `string'
CONST	ENDS
;	COMDAT ??_C@_05CJOMCBOP@DIK_E@
CONST	SEGMENT
??_C@_05CJOMCBOP@DIK_E@ DB 'DIK_E', 00H			; `string'
CONST	ENDS
;	COMDAT ??_C@_05FBBIFBDM@DIK_W@
CONST	SEGMENT
??_C@_05FBBIFBDM@DIK_W@ DB 'DIK_W', 00H			; `string'
CONST	ENDS
;	COMDAT ??_C@_05HECPGLK@DIK_Q@
CONST	SEGMENT
??_C@_05HECPGLK@DIK_Q@ DB 'DIK_Q', 00H			; `string'
CONST	ENDS
;	COMDAT ??_C@_07MODNCMBL@DIK_TAB@
CONST	SEGMENT
??_C@_07MODNCMBL@DIK_TAB@ DB 'DIK_TAB', 00H		; `string'
CONST	ENDS
;	COMDAT ??_C@_08HHEEGKBL@DIK_BACK@
CONST	SEGMENT
??_C@_08HHEEGKBL@DIK_BACK@ DB 'DIK_BACK', 00H		; `string'
CONST	ENDS
;	COMDAT ??_C@_0L@KKCLPAPI@DIK_EQUALS@
CONST	SEGMENT
??_C@_0L@KKCLPAPI@DIK_EQUALS@ DB 'DIK_EQUALS', 00H	; `string'
CONST	ENDS
;	COMDAT ??_C@_09DOHACMKC@DIK_MINUS@
CONST	SEGMENT
??_C@_09DOHACMKC@DIK_MINUS@ DB 'DIK_MINUS', 00H		; `string'
CONST	ENDS
;	COMDAT ??_C@_05HLKEKMFM@DIK_0@
CONST	SEGMENT
??_C@_05HLKEKMFM@DIK_0@ DB 'DIK_0', 00H			; `string'
CONST	ENDS
;	COMDAT ??_C@_05KKGGBHBF@DIK_9@
CONST	SEGMENT
??_C@_05KKGGBHBF@DIK_9@ DB 'DIK_9', 00H			; `string'
CONST	ENDS
;	COMDAT ??_C@_05LDHNCGFE@DIK_8@
CONST	SEGMENT
??_C@_05LDHNCGFE@DIK_8@ DB 'DIK_8', 00H			; `string'
CONST	ENDS
;	COMDAT ??_C@_05DEOFDKJL@DIK_7@
CONST	SEGMENT
??_C@_05DEOFDKJL@DIK_7@ DB 'DIK_7', 00H			; `string'
CONST	ENDS
;	COMDAT ??_C@_05CNPOALNK@DIK_6@
CONST	SEGMENT
??_C@_05CNPOALNK@DIK_6@ DB 'DIK_6', 00H			; `string'
CONST	ENDS
;	COMDAT ??_C@_05GNDFIBJ@DIK_5@
CONST	SEGMENT
??_C@_05GNDFIBJ@DIK_5@ DB 'DIK_5', 00H			; `string'
CONST	ENDS
;	COMDAT ??_C@_05BPMIGJFI@DIK_4@
CONST	SEGMENT
??_C@_05BPMIGJFI@DIK_4@ DB 'DIK_4', 00H			; `string'
CONST	ENDS
;	COMDAT ??_C@_05FAIJPPJP@DIK_3@
CONST	SEGMENT
??_C@_05FAIJPPJP@DIK_3@ DB 'DIK_3', 00H			; `string'
CONST	ENDS
;	COMDAT ??_C@_05EJJCMONO@DIK_2@
CONST	SEGMENT
??_C@_05EJJCMONO@DIK_2@ DB 'DIK_2', 00H			; `string'
CONST	ENDS
;	COMDAT ??_C@_05GCLPJNBN@DIK_1@
CONST	SEGMENT
??_C@_05GCLPJNBN@DIK_1@ DB 'DIK_1', 00H			; `string'
CONST	ENDS
;	COMDAT ??_C@_07CACBFKLO@DIK_ESC@
CONST	SEGMENT
??_C@_07CACBFKLO@DIK_ESC@ DB 'DIK_ESC', 00H		; `string'
CONST	ENDS
;	COMDAT ??_C@_0L@BOHNMBC@DIK_ESCAPE@
CONST	SEGMENT
??_C@_0L@BOHNMBC@DIK_ESCAPE@ DB 'DIK_ESCAPE', 00H	; `string'
CONST	ENDS
;	COMDAT ??_C@_09EABNPHOI@VK_DELETE@
CONST	SEGMENT
??_C@_09EABNPHOI@VK_DELETE@ DB 'VK_DELETE', 00H		; `string'
CONST	ENDS
;	COMDAT ??_C@_06LPJBNMHN@VK_END@
CONST	SEGMENT
??_C@_06LPJBNMHN@VK_END@ DB 'VK_END', 00H		; `string'
CONST	ENDS
;	COMDAT ??_C@_07OMPILPEG@VK_HOME@
CONST	SEGMENT
??_C@_07OMPILPEG@VK_HOME@ DB 'VK_HOME', 00H		; `string'
CONST	ENDS
;	COMDAT ??_C@_07NLENKNCK@VK_DOWN@
CONST	SEGMENT
??_C@_07NLENKNCK@VK_DOWN@ DB 'VK_DOWN', 00H		; `string'
CONST	ENDS
;	COMDAT ??_C@_05PIGLHCBF@VK_UP@
CONST	SEGMENT
??_C@_05PIGLHCBF@VK_UP@ DB 'VK_UP', 00H			; `string'
CONST	ENDS
;	COMDAT ??_C@_08LOMCDCA@VK_RIGHT@
CONST	SEGMENT
??_C@_08LOMCDCA@VK_RIGHT@ DB 'VK_RIGHT', 00H		; `string'
CONST	ENDS
;	COMDAT ??_C@_07CJEJDFBD@VK_LEFT@
CONST	SEGMENT
??_C@_07CJEJDFBD@VK_LEFT@ DB 'VK_LEFT', 00H		; `string'
CONST	ENDS
;	COMDAT ??_C@_0BG@JGNHHMCM@DEGREE_DIRECTION_LEFT@
CONST	SEGMENT
??_C@_0BG@JGNHHMCM@DEGREE_DIRECTION_LEFT@ DB 'DEGREE_DIRECTION_LEFT', 00H ; `string'
CONST	ENDS
;	COMDAT ??_C@_0BH@LNDFJAFE@DEGREE_DIRECTION_RIGHT@
CONST	SEGMENT
??_C@_0BH@LNDFJAFE@DEGREE_DIRECTION_RIGHT@ DB 'DEGREE_DIRECTION_RIGHT', 00H ; `string'
CONST	ENDS
;	COMDAT ??_C@_0BG@KEIJCHNJ@DEGREE_DIRECTION_SAME@
CONST	SEGMENT
??_C@_0BG@KEIJCHNJ@DEGREE_DIRECTION_SAME@ DB 'DEGREE_DIRECTION_SAME', 00H ; `string'
CONST	ENDS
;	COMDAT ??_C@_0O@FAGLOALJ@INFO_TEXTTAIL@
CONST	SEGMENT
??_C@_0O@FAGLOALJ@INFO_TEXTTAIL@ DB 'INFO_TEXTTAIL', 00H ; `string'
CONST	ENDS
;	COMDAT ??_C@_0M@KLBHMBMD@INFO_EFFECT@
CONST	SEGMENT
??_C@_0M@KLBHMBMD@INFO_EFFECT@ DB 'INFO_EFFECT', 00H	; `string'
CONST	ENDS
;	COMDAT ??_C@_0L@FNNFPLHG@INFO_ACTOR@
CONST	SEGMENT
??_C@_0L@FNNFPLHG@INFO_ACTOR@ DB 'INFO_ACTOR', 00H	; `string'
CONST	ENDS
;	COMDAT ??_C@_09OKOJMLAA@INFO_ITEM@
CONST	SEGMENT
??_C@_09OKOJMLAA@INFO_ITEM@ DB 'INFO_ITEM', 00H		; `string'
CONST	ENDS
;	COMDAT ??_C@_03CGOPKBCD@app@
CONST	SEGMENT
??_C@_03CGOPKBCD@app@ DB 'app', 00H			; `string'
CONST	ENDS
;	COMDAT ??_C@_0M@JMIFNMOK@OnLogoClose@
CONST	SEGMENT
??_C@_0M@JMIFNMOK@OnLogoClose@ DB 'OnLogoClose', 00H	; `string'
CONST	ENDS
;	COMDAT ??_C@_0L@JMMGDKPP@OnLogoOpen@
CONST	SEGMENT
??_C@_0L@JMMGDKPP@OnLogoOpen@ DB 'OnLogoOpen', 00H	; `string'
CONST	ENDS
;	COMDAT ??_C@_0N@ELECBFOK@OnLogoRender@
CONST	SEGMENT
??_C@_0N@ELECBFOK@OnLogoRender@ DB 'OnLogoRender', 00H	; `string'
CONST	ENDS
;	COMDAT ??_C@_0N@LIPHBNAO@OnLogoUpdate@
CONST	SEGMENT
??_C@_0N@LIPHBNAO@OnLogoUpdate@ DB 'OnLogoUpdate', 00H	; `string'
CONST	ENDS
;	COMDAT ??_C@_0BB@DLDOCGLL@SetGuildMarkPath@
CONST	SEGMENT
??_C@_0BB@DLDOCGLL@SetGuildMarkPath@ DB 'SetGuildMarkPath', 00H ; `string'
CONST	ENDS
;	COMDAT ??_C@_0BH@GBDECBIH@IsEnableTestServerFlag@
CONST	SEGMENT
??_C@_0BH@GBDECBIH@IsEnableTestServerFlag@ DB 'IsEnableTestServerFlag', 00H ; `string'
CONST	ENDS
;	COMDAT ??_C@_0BF@BOMOCGIP@EnableTestServerFlag@
CONST	SEGMENT
??_C@_0BF@BOMOCGIP@EnableTestServerFlag@ DB 'EnableTestServerFlag', 00H ; `string'
CONST	ENDS
;	COMDAT ??_C@_0BA@NLDNPIOL@IsVisibleNotice@
CONST	SEGMENT
??_C@_0BA@NLDNPIOL@IsVisibleNotice@ DB 'IsVisibleNotice', 00H ; `string'
CONST	ENDS
;	COMDAT ??_C@_0BB@MMPIECKB@SetVisibleNotice@
CONST	SEGMENT
??_C@_0BB@MMPIECKB@SetVisibleNotice@ DB 'SetVisibleNotice', 00H ; `string'
CONST	ENDS
;	COMDAT ??_C@_0BF@KHKICLKO@testSetSpecularColor@
CONST	SEGMENT
??_C@_0BF@KHKICLKO@testSetSpecularColor@ DB 'testSetSpecularColor', 00H ; `string'
CONST	ENDS
;	COMDAT ??_C@_0BK@PLDHJGMN@testResetAccumulationTime@
CONST	SEGMENT
??_C@_0BK@PLDHJGMN@testResetAccumulationTime@ DB 'testResetAccumulationTi'
	DB	'me', 00H					; `string'
CONST	ENDS
;	COMDAT ??_C@_0BI@DNKBNLNC@testGetAccumulationTime@
CONST	SEGMENT
??_C@_0BI@DNKBNLNC@testGetAccumulationTime@ DB 'testGetAccumulationTime', 00H ; `string'
CONST	ENDS
;	COMDAT ??_C@_0BB@IFMAFIHG@SetSpecularSpeed@
CONST	SEGMENT
??_C@_0BB@IFMAFIHG@SetSpecularSpeed@ DB 'SetSpecularSpeed', 00H ; `string'
CONST	ENDS
;	COMDAT ??_C@_0N@HDAEMEAH@SetControlFP@
CONST	SEGMENT
??_C@_0N@HDAEMEAH@SetControlFP@ DB 'SetControlFP', 00H	; `string'
CONST	ENDS
;	COMDAT ??_C@_0BD@CEMKCGHA@GetDefaultCodePage@
CONST	SEGMENT
??_C@_0BD@CEMKCGHA@GetDefaultCodePage@ DB 'GetDefaultCodePage', 00H ; `string'
CONST	ENDS
;	COMDAT ??_C@_09INPKBHN@IsCHEONMA@
CONST	SEGMENT
??_C@_09INPKBHN@IsCHEONMA@ DB 'IsCHEONMA', 00H		; `string'
CONST	ENDS
;	COMDAT ??_C@_0L@FAIOENFF@SetCHEONMA@
CONST	SEGMENT
??_C@_0L@FAIOENFF@SetCHEONMA@ DB 'SetCHEONMA', 00H	; `string'
CONST	ENDS
;	COMDAT ??_C@_0P@BFJDMEJO@LoadLocaleData@
CONST	SEGMENT
??_C@_0P@BFJDMEJO@LoadLocaleData@ DB 'LoadLocaleData', 00H ; `string'
CONST	ENDS
;	COMDAT ??_C@_0P@JHGEFJDO@LoadLocaleAddr@
CONST	SEGMENT
??_C@_0P@JHGEFJDO@LoadLocaleAddr@ DB 'LoadLocaleAddr', 00H ; `string'
CONST	ENDS
;	COMDAT ??_C@_0P@KMAINBBA@ForceSetLocale@
CONST	SEGMENT
??_C@_0P@KMAINBBA@ForceSetLocale@ DB 'ForceSetLocale', 00H ; `string'
CONST	ENDS
;	COMDAT ??_C@_0O@OKMLAHKI@GetLocalePath@
CONST	SEGMENT
??_C@_0O@OKMLAHKI@GetLocalePath@ DB 'GetLocalePath', 00H ; `string'
CONST	ENDS
;	COMDAT ??_C@_0O@JDECMIPJ@GetLocaleName@
CONST	SEGMENT
??_C@_0O@JDECMIPJ@GetLocaleName@ DB 'GetLocaleName', 00H ; `string'
CONST	ENDS
;	COMDAT ??_C@_0BF@PBACFPCP@GetLocaleServiceName@
CONST	SEGMENT
??_C@_0BF@PBACFPCP@GetLocaleServiceName@ DB 'GetLocaleServiceName', 00H ; `string'
CONST	ENDS
;	COMDAT ??_C@_0BA@HHNFKANE@GetTextFileLine@
CONST	SEGMENT
??_C@_0BA@HHNFKANE@GetTextFileLine@ DB 'GetTextFileLine', 00H ; `string'
CONST	ENDS
;	COMDAT ??_C@_0BF@BNHHEKFO@GetTextFileLineCount@
CONST	SEGMENT
??_C@_0BF@BNHHEKFO@GetTextFileLineCount@ DB 'GetTextFileLineCount', 00H ; `string'
CONST	ENDS
;	COMDAT ??_C@_0O@LNEGOIPA@CloseTextFile@
CONST	SEGMENT
??_C@_0O@LNEGOIPA@CloseTextFile@ DB 'CloseTextFile', 00H ; `string'
CONST	ENDS
;	COMDAT ??_C@_0N@JAMKKFFG@OpenTextFile@
CONST	SEGMENT
??_C@_0N@JAMKKFFG@OpenTextFile@ DB 'OpenTextFile', 00H	; `string'
CONST	ENDS
;	COMDAT ??_C@_0M@LOHDPEAO@IsFileExist@
CONST	SEGMENT
??_C@_0M@LOHDPEAO@IsFileExist@ DB 'IsFileExist', 00H	; `string'
CONST	ENDS
;	COMDAT ??_C@_0O@MFMELJAK@SetSightRange@
CONST	SEGMENT
??_C@_0O@MFMELJAK@SetSightRange@ DB 'SetSightRange', 00H ; `string'
CONST	ENDS
;	COMDAT ??_C@_0BB@JANPDNEC@SetCameraSetting@
CONST	SEGMENT
??_C@_0BB@JANPDNEC@SetCameraSetting@ DB 'SetCameraSetting', 00H ; `string'
CONST	ENDS
;	COMDAT ??_C@_0BB@IPPGJFKO@SetDefaultCamera@
CONST	SEGMENT
??_C@_0BB@IPPGJFKO@SetDefaultCamera@ DB 'SetDefaultCamera', 00H ; `string'
CONST	ENDS
;	COMDAT ??_C@_0BC@KEOGBKMG@LoadCameraSetting@
CONST	SEGMENT
??_C@_0BC@KEOGBKMG@LoadCameraSetting@ DB 'LoadCameraSetting', 00H ; `string'
CONST	ENDS
;	COMDAT ??_C@_0BC@JPDLAHCD@SaveCameraSetting@
CONST	SEGMENT
??_C@_0BC@JPDLAHCD@SaveCameraSetting@ DB 'SaveCameraSetting', 00H ; `string'
CONST	ENDS
;	COMDAT ??_C@_0P@NCLIAJKF@SetCameraSpeed@
CONST	SEGMENT
??_C@_0P@NCLIAJKF@SetCameraSpeed@ DB 'SetCameraSpeed', 00H ; `string'
CONST	ENDS
;	COMDAT ??_C@_0BI@LNMJCGJN@EnableSpecialCameraMode@
CONST	SEGMENT
??_C@_0BI@LNMJCGJN@EnableSpecialCameraMode@ DB 'EnableSpecialCameraMode', 00H ; `string'
CONST	ENDS
;	COMDAT ??_C@_0BD@CENDFAOC@SetGuildSymbolPath@
CONST	SEGMENT
??_C@_0BD@CENDFAOC@SetGuildSymbolPath@ DB 'SetGuildSymbolPath', 00H ; `string'
CONST	ENDS
;	COMDAT ??_C@_0BD@CKMKHHJC@SetDefaultFontName@
CONST	SEGMENT
??_C@_0BD@CKMKHHJC@SetDefaultFontName@ DB 'SetDefaultFontName', 00H ; `string'
CONST	ENDS
;	COMDAT ??_C@_05PFDOMJEF@Sleep@
CONST	SEGMENT
??_C@_05PFDOMJEF@Sleep@ DB 'Sleep', 00H			; `string'
CONST	ENDS
;	COMDAT ??_C@_0BE@JKNPCCAK@GetDegreeDifference@
CONST	SEGMENT
??_C@_0BE@JKNPCCAK@GetDegreeDifference@ DB 'GetDegreeDifference', 00H ; `string'
CONST	ENDS
;	COMDAT ??_C@_0BF@IMHAMDDH@GetRotatingDirection@
CONST	SEGMENT
??_C@_0BF@IMHAMDDH@GetRotatingDirection@ DB 'GetRotatingDirection', 00H ; `string'
CONST	ENDS
;	COMDAT ??_C@_0P@GHKKFFNH@GetConnectData@
CONST	SEGMENT
??_C@_0P@GHKKFFNH@GetConnectData@ DB 'GetConnectData', 00H ; `string'
CONST	ENDS
;	COMDAT ??_C@_0P@KJLEKPPL@SetConnectData@
CONST	SEGMENT
??_C@_0P@KJLEKPPL@SetConnectData@ DB 'SetConnectData', 00H ; `string'
CONST	ENDS
;	COMDAT ??_C@_0BC@KKHIHHDJ@SetHardwareCursor@
CONST	SEGMENT
??_C@_0BC@KKHIHHDJ@SetHardwareCursor@ DB 'SetHardwareCursor', 00H ; `string'
CONST	ENDS
;	COMDAT ??_C@_0BC@IDNDDKLI@SetSoftwareCursor@
CONST	SEGMENT
??_C@_0BC@IDNDDKLI@SetSoftwareCursor@ DB 'SetSoftwareCursor', 00H ; `string'
CONST	ENDS
;	COMDAT ??_C@_0P@FMIDHOAE@IsLiarCursorOn@
CONST	SEGMENT
??_C@_0P@FMIDHOAE@IsLiarCursorOn@ DB 'IsLiarCursorOn', 00H ; `string'
CONST	ENDS
;	COMDAT ??_C@_0N@BFHCIAEF@IsShowCursor@
CONST	SEGMENT
??_C@_0N@BFHCIAEF@IsShowCursor@ DB 'IsShowCursor', 00H	; `string'
CONST	ENDS
;	COMDAT ??_C@_0L@MGJDDPFG@HideCursor@
CONST	SEGMENT
??_C@_0L@MGJDDPFG@HideCursor@ DB 'HideCursor', 00H	; `string'
CONST	ENDS
;	COMDAT ??_C@_0L@BIENLPGM@ShowCursor@
CONST	SEGMENT
??_C@_0L@BIENLPGM@ShowCursor@ DB 'ShowCursor', 00H	; `string'
CONST	ENDS
;	COMDAT ??_C@_09NEOLAIPD@GetCursor@
CONST	SEGMENT
??_C@_09NEOLAIPD@GetCursor@ DB 'GetCursor', 00H		; `string'
CONST	ENDS
;	COMDAT ??_C@_09PKKOCJGB@SetCursor@
CONST	SEGMENT
??_C@_09PKKOCJGB@SetCursor@ DB 'SetCursor', 00H		; `string'
CONST	ENDS
;	COMDAT ??_C@_09EJGJNKNL@IsPressed@
CONST	SEGMENT
??_C@_09EJGJNKNL@IsPressed@ DB 'IsPressed', 00H		; `string'
CONST	ENDS
;	COMDAT ??_C@_0M@HKOOBKOE@HideWebPage@
CONST	SEGMENT
??_C@_0M@HKOOBKOE@HideWebPage@ DB 'HideWebPage', 00H	; `string'
CONST	ENDS
;	COMDAT ??_C@_0M@CJKDPGGC@MoveWebPage@
CONST	SEGMENT
??_C@_0M@CJKDPGGC@MoveWebPage@ DB 'MoveWebPage', 00H	; `string'
CONST	ENDS
;	COMDAT ??_C@_0M@LMDMBNNG@ShowWebPage@
CONST	SEGMENT
??_C@_0M@LMDMBNNG@ShowWebPage@ DB 'ShowWebPage', 00H	; `string'
CONST	ENDS
;	COMDAT ??_C@_0O@JGKOEJBF@IsWebPageMode@
CONST	SEGMENT
??_C@_0O@JGKOEJBF@IsWebPageMode@ DB 'IsWebPageMode', 00H ; `string'
CONST	ENDS
;	COMDAT ??_C@_0O@NFOAEJMI@RunPythonFile@
CONST	SEGMENT
??_C@_0O@NFOAEJMI@RunPythonFile@ DB 'RunPythonFile', 00H ; `string'
CONST	ENDS
;	COMDAT ??_C@_09CIIBMEDP@GetRandom@
CONST	SEGMENT
??_C@_09CIIBMEDP@GetRandom@ DB 'GetRandom', 00H		; `string'
CONST	ENDS
;	COMDAT ??_C@_0BC@DJJGDMOB@GetCursorPosition@
CONST	SEGMENT
??_C@_0BC@DJJGDMOB@GetCursorPosition@ DB 'GetCursorPosition', 00H ; `string'
CONST	ENDS
;	COMDAT ??_C@_0BC@MCKFCFLJ@SetCenterPosition@
CONST	SEGMENT
??_C@_0BC@MCKFCFLJ@SetCenterPosition@ DB 'SetCenterPosition', 00H ; `string'
CONST	ENDS
;	COMDAT ??_C@_0BI@BPPNOEKE@SetGlobalCenterPosition@
CONST	SEGMENT
??_C@_0BI@BPPNOEKE@SetGlobalCenterPosition@ DB 'SetGlobalCenterPosition', 00H ; `string'
CONST	ENDS
;	COMDAT ??_C@_06GHJACMIL@SetFPS@
CONST	SEGMENT
??_C@_06GHJACMIL@SetFPS@ DB 'SetFPS', 00H		; `string'
CONST	ENDS
;	COMDAT ??_C@_0N@FGHMKANF@GetFaceCount@
CONST	SEGMENT
??_C@_0N@FGHMKANF@GetFaceCount@ DB 'GetFaceCount', 00H	; `string'
CONST	ENDS
;	COMDAT ??_C@_0N@KBJEAIDC@GetFaceSpeed@
CONST	SEGMENT
??_C@_0N@KBJEAIDC@GetFaceSpeed@ DB 'GetFaceSpeed', 00H	; `string'
CONST	ENDS
;	COMDAT ??_C@_07EGHKJKFO@GetLoad@
CONST	SEGMENT
??_C@_07EGHKJKFO@GetLoad@ DB 'GetLoad', 00H		; `string'
CONST	ENDS
;	COMDAT ??_C@_0O@EPOIPAHO@GetUpdateTime@
CONST	SEGMENT
??_C@_0O@EPOIPAHO@GetUpdateTime@ DB 'GetUpdateTime', 00H ; `string'
CONST	ENDS
;	COMDAT ??_C@_0O@KFOAIOPC@GetRenderTime@
CONST	SEGMENT
??_C@_0O@KFOAIOPC@GetRenderTime@ DB 'GetRenderTime', 00H ; `string'
CONST	ENDS
;	COMDAT ??_C@_0BK@PBNANFFG@GetAvailableTextureMemory@
CONST	SEGMENT
??_C@_0BK@PBNANFFG@GetAvailableTextureMemory@ DB 'GetAvailableTextureMemo'
	DB	'ry', 00H					; `string'
CONST	ENDS
;	COMDAT ??_C@_0BB@PJGDEPJO@MovieResetCamera@
CONST	SEGMENT
??_C@_0BB@PJGDEPJO@MovieResetCamera@ DB 'MovieResetCamera', 00H ; `string'
CONST	ENDS
;	COMDAT ??_C@_0BA@ILLHHFGG@MovieZoomCamera@
CONST	SEGMENT
??_C@_0BA@ILLHHFGG@MovieZoomCamera@ DB 'MovieZoomCamera', 00H ; `string'
CONST	ENDS
;	COMDAT ??_C@_0BB@KFJAAFFB@MoviePitchCamera@
CONST	SEGMENT
??_C@_0BB@KFJAAFFB@MoviePitchCamera@ DB 'MoviePitchCamera', 00H ; `string'
CONST	ENDS
;	COMDAT ??_C@_0BC@FCGIGAKD@MovieRotateCamera@
CONST	SEGMENT
??_C@_0BC@FCGIGAKD@MovieRotateCamera@ DB 'MovieRotateCamera', 00H ; `string'
CONST	ENDS
;	COMDAT ??_C@_0L@BGDDIOFP@ZoomCamera@
CONST	SEGMENT
??_C@_0L@BGDDIOFP@ZoomCamera@ DB 'ZoomCamera', 00H	; `string'
CONST	ENDS
;	COMDAT ??_C@_0M@PKAIAJKC@PitchCamera@
CONST	SEGMENT
??_C@_0M@PKAIAJKC@PitchCamera@ DB 'PitchCamera', 00H	; `string'
CONST	ENDS
;	COMDAT ??_C@_0N@HGIDFLAJ@RotateCamera@
CONST	SEGMENT
??_C@_0N@HGIDFLAJ@RotateCamera@ DB 'RotateCamera', 00H	; `string'
CONST	ENDS
;	COMDAT ??_C@_0N@EHIMFGIG@GetRenderFPS@
CONST	SEGMENT
??_C@_0N@EHIMFGIG@GetRenderFPS@ DB 'GetRenderFPS', 00H	; `string'
CONST	ENDS
;	COMDAT ??_C@_0N@JKLFODAC@GetUpdateFPS@
CONST	SEGMENT
??_C@_0N@JKLFODAC@GetUpdateFPS@ DB 'GetUpdateFPS', 00H	; `string'
CONST	ENDS
;	COMDAT ??_C@_0BD@HGCMJHC@GetGlobalTimeStamp@
CONST	SEGMENT
??_C@_0BD@HGCMJHC@GetGlobalTimeStamp@ DB 'GetGlobalTimeStamp', 00H ; `string'
CONST	ENDS
;	COMDAT ??_C@_0O@JKNDJHIN@GetGlobalTime@
CONST	SEGMENT
??_C@_0O@JKNDJHIN@GetGlobalTime@ DB 'GetGlobalTime', 00H ; `string'
CONST	ENDS
;	COMDAT ??_C@_07CDIANBOE@GetTime@
CONST	SEGMENT
??_C@_07CDIANBOE@GetTime@ DB 'GetTime', 00H		; `string'
CONST	ENDS
;	COMDAT ??_C@_0BC@JICDJDCH@GetCameraRotation@
CONST	SEGMENT
??_C@_0BC@JICDJDCH@GetCameraRotation@ DB 'GetCameraRotation', 00H ; `string'
CONST	ENDS
;	COMDAT ??_C@_0P@LHFPHHJA@GetCameraPitch@
CONST	SEGMENT
??_C@_0P@LHFPHHJA@GetCameraPitch@ DB 'GetCameraPitch', 00H ; `string'
CONST	ENDS
;	COMDAT ??_C@_09KOHPDBNP@GetCamera@
CONST	SEGMENT
??_C@_09KOHPDBNP@GetCamera@ DB 'GetCamera', 00H		; `string'
CONST	ENDS
;	COMDAT ??_C@_09IADKBAEN@SetCamera@
CONST	SEGMENT
??_C@_09IADKBAEN@SetCamera@ DB 'SetCamera', 00H		; `string'
CONST	ENDS
;	COMDAT ??_C@_0M@KODKGGCI@GetFileList@
CONST	SEGMENT
??_C@_0M@KODKGGCI@GetFileList@ DB 'GetFileList', 00H	; `string'
CONST	ENDS
;	COMDAT ??_C@_0M@DHIFKLBN@IsExistFile@
CONST	SEGMENT
??_C@_0M@DHIFKLBN@IsExistFile@ DB 'IsExistFile', 00H	; `string'
CONST	ENDS
;	COMDAT ??_C@_0BA@PPCHHCMN@SetMouseHandler@
CONST	SEGMENT
??_C@_0BA@PPCHHCMN@SetMouseHandler@ DB 'SetMouseHandler', 00H ; `string'
CONST	ENDS
;	COMDAT ??_C@_05BGKIEECB@Abort@
CONST	SEGMENT
??_C@_05BGKIEECB@Abort@ DB 'Abort', 00H			; `string'
CONST	ENDS
;	COMDAT ??_C@_04LBABLPF@Exit@
CONST	SEGMENT
??_C@_04LBABLPF@Exit@ DB 'Exit', 00H			; `string'
CONST	ENDS
;	COMDAT ??_C@_07MNGBFJEN@Process@
CONST	SEGMENT
??_C@_07MNGBFJEN@Process@ DB 'Process', 00H		; `string'
CONST	ENDS
;	COMDAT ??_C@_06MIKANEJK@Create@
CONST	SEGMENT
??_C@_06MIKANEJK@Create@ DB 'Create', 00H		; `string'
CONST	ENDS
;	COMDAT ??_C@_04KLCPKPBE@Loop@
CONST	SEGMENT
??_C@_04KLCPKPBE@Loop@ DB 'Loop', 00H			; `string'
CONST	ENDS
;	COMDAT ??_C@_0L@ONMMANJD@RenderGame@
CONST	SEGMENT
??_C@_0L@ONMMANJD@RenderGame@ DB 'RenderGame', 00H	; `string'
CONST	ENDS
;	COMDAT ??_C@_0L@HMEHDBP@UpdateGame@
CONST	SEGMENT
??_C@_0L@HMEHDBP@UpdateGame@ DB 'UpdateGame', 00H	; `string'
CONST	ENDS
;	COMDAT ??_C@_07NAJNLNAF@GetInfo@
CONST	SEGMENT
??_C@_07NAJNLNAF@GetInfo@ DB 'GetInfo', 00H		; `string'
CONST	ENDS
;	COMDAT ??_C@_0N@CLLAGICL@GetImageInfo@
CONST	SEGMENT
??_C@_0N@CLLAGICL@GetImageInfo@ DB 'GetImageInfo', 00H	; `string'
CONST	ENDS
;	COMDAT ??_C@_0N@KCIEBLLG@SetFrameSkip@
CONST	SEGMENT
??_C@_0N@KCIEBLLG@SetFrameSkip@ DB 'SetFrameSkip', 00H	; `string'
CONST	ENDS
;	COMDAT ??_C@_09ILNFAENI@SetMinFog@
CONST	SEGMENT
??_C@_09ILNFAENI@SetMinFog@ DB 'SetMinFog', 00H		; `string'
CONST	ENDS
;	COMDAT ??_C@_0BF@CEAHHILA@SetCameraMaxDistance@
CONST	SEGMENT
??_C@_0BF@CEAHHILA@SetCameraMaxDistance@ DB 'SetCameraMaxDistance', 00H ; `string'
CONST	ENDS
;	COMDAT ??_C@_0BD@CPFDKOFJ@SetRideHorseEnable@
CONST	SEGMENT
??_C@_0BD@CPFDKOFJ@SetRideHorseEnable@ DB 'SetRideHorseEnable', 00H ; `string'
CONST	ENDS
;	COMDAT ??_C@_0CI@KEKBEMLJ@SetTwoHandedWeaponAttSpeedDecre@
CONST	SEGMENT
??_C@_0CI@KEKBEMLJ@SetTwoHandedWeaponAttSpeedDecre@ DB 'SetTwoHandedWeapo'
	DB	'nAttSpeedDecreaseValue', 00H		; `string'
CONST	ENDS
;	COMDAT ??_C@_0BM@CMPMDOBN@SetSkillEffectUpgradeEnable@
CONST	SEGMENT
??_C@_0BM@CMPMDOBN@SetSkillEffectUpgradeEnable@ DB 'SetSkillEffectUpgrade'
	DB	'Enable', 00H				; `string'
CONST	ENDS
;	COMDAT ??_C@_0BI@ONHBEMJA@SetWeaponSpecularEnable@
CONST	SEGMENT
??_C@_0BI@ONHBEMJA@SetWeaponSpecularEnable@ DB 'SetWeaponSpecularEnable', 00H ; `string'
CONST	ENDS
;	COMDAT ??_C@_0BH@PJOFIHBE@SetArmorSpecularEnable@
CONST	SEGMENT
??_C@_0BH@PJOFIHBE@SetArmorSpecularEnable@ DB 'SetArmorSpecularEnable', 00H ; `string'
CONST	ENDS
;	COMDAT ??_C@_0BD@PILPKKLH@SetHairColorEnable@
CONST	SEGMENT
??_C@_0BD@PILPKKLH@SetHairColorEnable@ DB 'SetHairColorEnable', 00H ; `string'
CONST	ENDS
;	COMDAT ??_C@_0BG@DEJFIMMP@EnablePerformanceTime@
CONST	SEGMENT
??_C@_0BG@DEJFIMMP@EnablePerformanceTime@ DB 'EnablePerformanceTime', 00H ; `string'
CONST	ENDS
;	COMDAT ??_C@_0BG@EOCGHNJF@SetTextTailLivingTime@
CONST	SEGMENT
??_C@_0BG@EOCGHNJF@SetTextTailLivingTime@ DB 'SetTextTailLivingTime', 00H ; `string'
CONST	ENDS
;	COMDAT ??_C@_0M@NJBHEFPA@IsLiveStage@
CONST	SEGMENT
??_C@_0M@NJBHEFPA@IsLiveStage@ DB 'IsLiveStage', 00H	; `string'
CONST	ENDS
;	COMDAT ??_C@_0M@ICBDOOOG@IsTestStage@
CONST	SEGMENT
??_C@_0M@ICBDOOOG@IsTestStage@ DB 'IsTestStage', 00H	; `string'
CONST	ENDS
;	COMDAT ??_C@_0L@OAAOKAFA@IsDevStage@
CONST	SEGMENT
??_C@_0L@OAAOKAFA@IsDevStage@ DB 'IsDevStage', 00H	; `string'
CONST	ENDS
;	COMDAT ?s_methods@?1??initapp@@YAXXZ@4PAUPyMethodDef@@A
_DATA	SEGMENT
?s_methods@?1??initapp@@YAXXZ@4PAUPyMethodDef@@A DD FLAT:??_C@_0L@OAAOKAFA@IsDevStage@ ; `initapp'::`2'::s_methods
	DD	FLAT:?appIsDevStage@@YAPAU_object@@PAU1@0@Z
	DD	01H
	ORG $+4
	DD	FLAT:??_C@_0M@ICBDOOOG@IsTestStage@
	DD	FLAT:?appIsTestStage@@YAPAU_object@@PAU1@0@Z
	DD	01H
	ORG $+4
	DD	FLAT:??_C@_0M@NJBHEFPA@IsLiveStage@
	DD	FLAT:?appIsLiveStage@@YAPAU_object@@PAU1@0@Z
	DD	01H
	ORG $+4
	DD	FLAT:??_C@_0BG@EOCGHNJF@SetTextTailLivingTime@
	DD	FLAT:?appSetTextTailLivingTime@@YAPAU_object@@PAU1@0@Z
	DD	01H
	ORG $+4
	DD	FLAT:??_C@_0BG@DEJFIMMP@EnablePerformanceTime@
	DD	FLAT:?appEnablePerformanceTime@@YAPAU_object@@PAU1@0@Z
	DD	01H
	ORG $+4
	DD	FLAT:??_C@_0BD@PILPKKLH@SetHairColorEnable@
	DD	FLAT:?appSetHairColorEnable@@YAPAU_object@@PAU1@0@Z
	DD	01H
	ORG $+4
	DD	FLAT:??_C@_0BH@PJOFIHBE@SetArmorSpecularEnable@
	DD	FLAT:?appSetArmorSpecularEnable@@YAPAU_object@@PAU1@0@Z
	DD	01H
	ORG $+4
	DD	FLAT:??_C@_0BI@ONHBEMJA@SetWeaponSpecularEnable@
	DD	FLAT:?appSetWeaponSpecularEnable@@YAPAU_object@@PAU1@0@Z
	DD	01H
	ORG $+4
	DD	FLAT:??_C@_0BM@CMPMDOBN@SetSkillEffectUpgradeEnable@
	DD	FLAT:?appSetSkillEffectUpgradeEnable@@YAPAU_object@@PAU1@0@Z
	DD	01H
	ORG $+4
	DD	FLAT:??_C@_0CI@KEKBEMLJ@SetTwoHandedWeaponAttSpeedDecre@
	DD	FLAT:?SetTwoHandedWeaponAttSpeedDecreaseValue@@YAPAU_object@@PAU1@0@Z
	DD	01H
	ORG $+4
	DD	FLAT:??_C@_0BD@CPFDKOFJ@SetRideHorseEnable@
	DD	FLAT:?appSetRideHorseEnable@@YAPAU_object@@PAU1@0@Z
	DD	01H
	ORG $+4
	DD	FLAT:??_C@_0BF@CEAHHILA@SetCameraMaxDistance@
	DD	FLAT:?appSetCameraMaxDistance@@YAPAU_object@@PAU1@0@Z
	DD	01H
	ORG $+4
	DD	FLAT:??_C@_09ILNFAENI@SetMinFog@
	DD	FLAT:?appSetMinFog@@YAPAU_object@@PAU1@0@Z
	DD	01H
	ORG $+4
	DD	FLAT:??_C@_0N@KCIEBLLG@SetFrameSkip@
	DD	FLAT:?appSetFrameSkip@@YAPAU_object@@PAU1@0@Z
	DD	01H
	ORG $+4
	DD	FLAT:??_C@_0N@CLLAGICL@GetImageInfo@
	DD	FLAT:?appGetImageInfo@@YAPAU_object@@PAU1@0@Z
	DD	01H
	ORG $+4
	DD	FLAT:??_C@_07NAJNLNAF@GetInfo@
	DD	FLAT:?appGetInfo@@YAPAU_object@@PAU1@0@Z
	DD	01H
	ORG $+4
	DD	FLAT:??_C@_0L@HMEHDBP@UpdateGame@
	DD	FLAT:?appUpdateGame@@YAPAU_object@@PAU1@0@Z
	DD	01H
	ORG $+4
	DD	FLAT:??_C@_0L@ONMMANJD@RenderGame@
	DD	FLAT:?appRenderGame@@YAPAU_object@@PAU1@0@Z
	DD	01H
	ORG $+4
	DD	FLAT:??_C@_04KLCPKPBE@Loop@
	DD	FLAT:?appLoop@@YAPAU_object@@PAU1@0@Z
	DD	01H
	ORG $+4
	DD	FLAT:??_C@_06MIKANEJK@Create@
	DD	FLAT:?appCreate@@YAPAU_object@@PAU1@0@Z
	DD	01H
	ORG $+4
	DD	FLAT:??_C@_07MNGBFJEN@Process@
	DD	FLAT:?appProcess@@YAPAU_object@@PAU1@0@Z
	DD	01H
	ORG $+4
	DD	FLAT:??_C@_04LBABLPF@Exit@
	DD	FLAT:?appExit@@YAPAU_object@@PAU1@0@Z
	DD	01H
	ORG $+4
	DD	FLAT:??_C@_05BGKIEECB@Abort@
	DD	FLAT:?appAbort@@YAPAU_object@@PAU1@0@Z
	DD	01H
	ORG $+4
	DD	FLAT:??_C@_0BA@PPCHHCMN@SetMouseHandler@
	DD	FLAT:?appSetMouseHandler@@YAPAU_object@@PAU1@0@Z
	DD	01H
	ORG $+4
	DD	FLAT:??_C@_0M@DHIFKLBN@IsExistFile@
	DD	FLAT:?appIsExistFile@@YAPAU_object@@PAU1@0@Z
	DD	01H
	ORG $+4
	DD	FLAT:??_C@_0M@KODKGGCI@GetFileList@
	DD	FLAT:?appGetFileList@@YAPAU_object@@PAU1@0@Z
	DD	01H
	ORG $+4
	DD	FLAT:??_C@_09IADKBAEN@SetCamera@
	DD	FLAT:?appSetCamera@@YAPAU_object@@PAU1@0@Z
	DD	01H
	ORG $+4
	DD	FLAT:??_C@_09KOHPDBNP@GetCamera@
	DD	FLAT:?appGetCamera@@YAPAU_object@@PAU1@0@Z
	DD	01H
	ORG $+4
	DD	FLAT:??_C@_0P@LHFPHHJA@GetCameraPitch@
	DD	FLAT:?appGetCameraPitch@@YAPAU_object@@PAU1@0@Z
	DD	01H
	ORG $+4
	DD	FLAT:??_C@_0BC@JICDJDCH@GetCameraRotation@
	DD	FLAT:?appGetCameraRotation@@YAPAU_object@@PAU1@0@Z
	DD	01H
	ORG $+4
	DD	FLAT:??_C@_07CDIANBOE@GetTime@
	DD	FLAT:?appGetTime@@YAPAU_object@@PAU1@0@Z
	DD	01H
	ORG $+4
	DD	FLAT:??_C@_0O@JKNDJHIN@GetGlobalTime@
	DD	FLAT:?appGetGlobalTime@@YAPAU_object@@PAU1@0@Z
	DD	01H
	ORG $+4
	DD	FLAT:??_C@_0BD@HGCMJHC@GetGlobalTimeStamp@
	DD	FLAT:?appGetGlobalTimeStamp@@YAPAU_object@@PAU1@0@Z
	DD	01H
	ORG $+4
	DD	FLAT:??_C@_0N@JKLFODAC@GetUpdateFPS@
	DD	FLAT:?appGetUpdateFPS@@YAPAU_object@@PAU1@0@Z
	DD	01H
	ORG $+4
	DD	FLAT:??_C@_0N@EHIMFGIG@GetRenderFPS@
	DD	FLAT:?appGetRenderFPS@@YAPAU_object@@PAU1@0@Z
	DD	01H
	ORG $+4
	DD	FLAT:??_C@_0N@HGIDFLAJ@RotateCamera@
	DD	FLAT:?appRotateCamera@@YAPAU_object@@PAU1@0@Z
	DD	01H
	ORG $+4
	DD	FLAT:??_C@_0M@PKAIAJKC@PitchCamera@
	DD	FLAT:?appPitchCamera@@YAPAU_object@@PAU1@0@Z
	DD	01H
	ORG $+4
	DD	FLAT:??_C@_0L@BGDDIOFP@ZoomCamera@
	DD	FLAT:?appZoomCamera@@YAPAU_object@@PAU1@0@Z
	DD	01H
	ORG $+4
	DD	FLAT:??_C@_0BC@FCGIGAKD@MovieRotateCamera@
	DD	FLAT:?appMovieRotateCamera@@YAPAU_object@@PAU1@0@Z
	DD	01H
	ORG $+4
	DD	FLAT:??_C@_0BB@KFJAAFFB@MoviePitchCamera@
	DD	FLAT:?appMoviePitchCamera@@YAPAU_object@@PAU1@0@Z
	DD	01H
	ORG $+4
	DD	FLAT:??_C@_0BA@ILLHHFGG@MovieZoomCamera@
	DD	FLAT:?appMovieZoomCamera@@YAPAU_object@@PAU1@0@Z
	DD	01H
	ORG $+4
	DD	FLAT:??_C@_0BB@PJGDEPJO@MovieResetCamera@
	DD	FLAT:?appMovieResetCamera@@YAPAU_object@@PAU1@0@Z
	DD	01H
	ORG $+4
	DD	FLAT:??_C@_0BK@PBNANFFG@GetAvailableTextureMemory@
	DD	FLAT:?appGetAvaiableTextureMememory@@YAPAU_object@@PAU1@0@Z
	DD	01H
	ORG $+4
	DD	FLAT:??_C@_0O@KFOAIOPC@GetRenderTime@
	DD	FLAT:?appGetRenderTime@@YAPAU_object@@PAU1@0@Z
	DD	01H
	ORG $+4
	DD	FLAT:??_C@_0O@EPOIPAHO@GetUpdateTime@
	DD	FLAT:?appGetUpdateTime@@YAPAU_object@@PAU1@0@Z
	DD	01H
	ORG $+4
	DD	FLAT:??_C@_07EGHKJKFO@GetLoad@
	DD	FLAT:?appGetLoad@@YAPAU_object@@PAU1@0@Z
	DD	01H
	ORG $+4
	DD	FLAT:??_C@_0N@KBJEAIDC@GetFaceSpeed@
	DD	FLAT:?appGetFaceSpeed@@YAPAU_object@@PAU1@0@Z
	DD	01H
	ORG $+4
	DD	FLAT:??_C@_0N@FGHMKANF@GetFaceCount@
	DD	FLAT:?appGetFaceCount@@YAPAU_object@@PAU1@0@Z
	DD	01H
	ORG $+4
	DD	FLAT:??_C@_06GHJACMIL@SetFPS@
	DD	FLAT:?appSetFPS@@YAPAU_object@@PAU1@0@Z
	DD	01H
	ORG $+4
	DD	FLAT:??_C@_0BI@BPPNOEKE@SetGlobalCenterPosition@
	DD	FLAT:?appSetGlobalCenterPosition@@YAPAU_object@@PAU1@0@Z
	DD	01H
	ORG $+4
	DD	FLAT:??_C@_0BC@MCKFCFLJ@SetCenterPosition@
	DD	FLAT:?appSetCenterPosition@@YAPAU_object@@PAU1@0@Z
	DD	01H
	ORG $+4
	DD	FLAT:??_C@_0BC@DJJGDMOB@GetCursorPosition@
	DD	FLAT:?appGetCursorPosition@@YAPAU_object@@PAU1@0@Z
	DD	01H
	ORG $+4
	DD	FLAT:??_C@_09CIIBMEDP@GetRandom@
	DD	FLAT:?appGetRandom@@YAPAU_object@@PAU1@0@Z
	DD	01H
	ORG $+4
	DD	FLAT:??_C@_0O@NFOAEJMI@RunPythonFile@
	DD	FLAT:?appRunPythonFile@@YAPAU_object@@PAU1@0@Z
	DD	01H
	ORG $+4
	DD	FLAT:??_C@_0O@JGKOEJBF@IsWebPageMode@
	DD	FLAT:?appIsWebPageMode@@YAPAU_object@@PAU1@0@Z
	DD	01H
	ORG $+4
	DD	FLAT:??_C@_0M@LMDMBNNG@ShowWebPage@
	DD	FLAT:?appShowWebPage@@YAPAU_object@@PAU1@0@Z
	DD	01H
	ORG $+4
	DD	FLAT:??_C@_0M@CJKDPGGC@MoveWebPage@
	DD	FLAT:?appMoveWebPage@@YAPAU_object@@PAU1@0@Z
	DD	01H
	ORG $+4
	DD	FLAT:??_C@_0M@HKOOBKOE@HideWebPage@
	DD	FLAT:?appHideWebPage@@YAPAU_object@@PAU1@0@Z
	DD	01H
	ORG $+4
	DD	FLAT:??_C@_09EJGJNKNL@IsPressed@
	DD	FLAT:?appIsPressed@@YAPAU_object@@PAU1@0@Z
	DD	01H
	ORG $+4
	DD	FLAT:??_C@_09PKKOCJGB@SetCursor@
	DD	FLAT:?appSetCursor@@YAPAU_object@@PAU1@0@Z
	DD	01H
	ORG $+4
	DD	FLAT:??_C@_09NEOLAIPD@GetCursor@
	DD	FLAT:?appGetCursor@@YAPAU_object@@PAU1@0@Z
	DD	01H
	ORG $+4
	DD	FLAT:??_C@_0L@BIENLPGM@ShowCursor@
	DD	FLAT:?appShowCursor@@YAPAU_object@@PAU1@0@Z
	DD	01H
	ORG $+4
	DD	FLAT:??_C@_0L@MGJDDPFG@HideCursor@
	DD	FLAT:?appHideCursor@@YAPAU_object@@PAU1@0@Z
	DD	01H
	ORG $+4
	DD	FLAT:??_C@_0N@BFHCIAEF@IsShowCursor@
	DD	FLAT:?appIsShowCursor@@YAPAU_object@@PAU1@0@Z
	DD	01H
	ORG $+4
	DD	FLAT:??_C@_0P@FMIDHOAE@IsLiarCursorOn@
	DD	FLAT:?appIsLiarCursorOn@@YAPAU_object@@PAU1@0@Z
	DD	01H
	ORG $+4
	DD	FLAT:??_C@_0BC@IDNDDKLI@SetSoftwareCursor@
	DD	FLAT:?appSetSoftwareCursor@@YAPAU_object@@PAU1@0@Z
	DD	01H
	ORG $+4
	DD	FLAT:??_C@_0BC@KKHIHHDJ@SetHardwareCursor@
	DD	FLAT:?appSetHardwareCursor@@YAPAU_object@@PAU1@0@Z
	DD	01H
	ORG $+4
	DD	FLAT:??_C@_0P@KJLEKPPL@SetConnectData@
	DD	FLAT:?appSetConnectData@@YAPAU_object@@PAU1@0@Z
	DD	01H
	ORG $+4
	DD	FLAT:??_C@_0P@GHKKFFNH@GetConnectData@
	DD	FLAT:?appGetConnectData@@YAPAU_object@@PAU1@0@Z
	DD	01H
	ORG $+4
	DD	FLAT:??_C@_0BF@IMHAMDDH@GetRotatingDirection@
	DD	FLAT:?appGetRotatingDirection@@YAPAU_object@@PAU1@0@Z
	DD	01H
	ORG $+4
	DD	FLAT:??_C@_0BE@JKNPCCAK@GetDegreeDifference@
	DD	FLAT:?appGetDegreeDifference@@YAPAU_object@@PAU1@0@Z
	DD	01H
	ORG $+4
	DD	FLAT:??_C@_05PFDOMJEF@Sleep@
	DD	FLAT:?appSleep@@YAPAU_object@@PAU1@0@Z
	DD	01H
	ORG $+4
	DD	FLAT:??_C@_0BD@CKMKHHJC@SetDefaultFontName@
	DD	FLAT:?appSetDefaultFontName@@YAPAU_object@@PAU1@0@Z
	DD	01H
	ORG $+4
	DD	FLAT:??_C@_0BD@CENDFAOC@SetGuildSymbolPath@
	DD	FLAT:?appSetGuildSymbolPath@@YAPAU_object@@PAU1@0@Z
	DD	01H
	ORG $+4
	DD	FLAT:??_C@_0BI@LNMJCGJN@EnableSpecialCameraMode@
	DD	FLAT:?appEnableSpecialCameraMode@@YAPAU_object@@PAU1@0@Z
	DD	01H
	ORG $+4
	DD	FLAT:??_C@_0P@NCLIAJKF@SetCameraSpeed@
	DD	FLAT:?appSetCameraSpeed@@YAPAU_object@@PAU1@0@Z
	DD	01H
	ORG $+4
	DD	FLAT:??_C@_0BC@JPDLAHCD@SaveCameraSetting@
	DD	FLAT:?appSaveCameraSetting@@YAPAU_object@@PAU1@0@Z
	DD	01H
	ORG $+4
	DD	FLAT:??_C@_0BC@KEOGBKMG@LoadCameraSetting@
	DD	FLAT:?appLoadCameraSetting@@YAPAU_object@@PAU1@0@Z
	DD	01H
	ORG $+4
	DD	FLAT:??_C@_0BB@IPPGJFKO@SetDefaultCamera@
	DD	FLAT:?appSetDefaultCamera@@YAPAU_object@@PAU1@0@Z
	DD	01H
	ORG $+4
	DD	FLAT:??_C@_0BB@JANPDNEC@SetCameraSetting@
	DD	FLAT:?appSetCameraSetting@@YAPAU_object@@PAU1@0@Z
	DD	01H
	ORG $+4
	DD	FLAT:??_C@_0O@MFMELJAK@SetSightRange@
	DD	FLAT:?appSetSightRange@@YAPAU_object@@PAU1@0@Z
	DD	01H
	ORG $+4
	DD	FLAT:??_C@_0M@LOHDPEAO@IsFileExist@
	DD	FLAT:?appIsFileExist@@YAPAU_object@@PAU1@0@Z
	DD	01H
	ORG $+4
	DD	FLAT:??_C@_0N@JAMKKFFG@OpenTextFile@
	DD	FLAT:?appOpenTextFile@@YAPAU_object@@PAU1@0@Z
	DD	01H
	ORG $+4
	DD	FLAT:??_C@_0O@LNEGOIPA@CloseTextFile@
	DD	FLAT:?appCloseTextFile@@YAPAU_object@@PAU1@0@Z
	DD	01H
	ORG $+4
	DD	FLAT:??_C@_0BF@BNHHEKFO@GetTextFileLineCount@
	DD	FLAT:?appGetTextFileLineCount@@YAPAU_object@@PAU1@0@Z
	DD	01H
	ORG $+4
	DD	FLAT:??_C@_0BA@HHNFKANE@GetTextFileLine@
	DD	FLAT:?appGetTextFileLine@@YAPAU_object@@PAU1@0@Z
	DD	01H
	ORG $+4
	DD	FLAT:??_C@_0BF@PBACFPCP@GetLocaleServiceName@
	DD	FLAT:?appGetLocaleServiceName@@YAPAU_object@@PAU1@0@Z
	DD	01H
	ORG $+4
	DD	FLAT:??_C@_0O@JDECMIPJ@GetLocaleName@
	DD	FLAT:?appGetLocaleName@@YAPAU_object@@PAU1@0@Z
	DD	01H
	ORG $+4
	DD	FLAT:??_C@_0O@OKMLAHKI@GetLocalePath@
	DD	FLAT:?appGetLocalePath@@YAPAU_object@@PAU1@0@Z
	DD	01H
	ORG $+4
	DD	FLAT:??_C@_0P@KMAINBBA@ForceSetLocale@
	DD	FLAT:?appForceSetLocale@@YAPAU_object@@PAU1@0@Z
	DD	01H
	ORG $+4
	DD	FLAT:??_C@_0P@JHGEFJDO@LoadLocaleAddr@
	DD	FLAT:?appLoadLocaleAddr@@YAPAU_object@@PAU1@0@Z
	DD	01H
	ORG $+4
	DD	FLAT:??_C@_0P@BFJDMEJO@LoadLocaleData@
	DD	FLAT:?appLoadLocaleData@@YAPAU_object@@PAU1@0@Z
	DD	01H
	ORG $+4
	DD	FLAT:??_C@_0L@FAIOENFF@SetCHEONMA@
	DD	FLAT:?appSetCHEONMA@@YAPAU_object@@PAU1@0@Z
	DD	01H
	ORG $+4
	DD	FLAT:??_C@_09INPKBHN@IsCHEONMA@
	DD	FLAT:?appIsCHEONMA@@YAPAU_object@@PAU1@0@Z
	DD	01H
	ORG $+4
	DD	FLAT:??_C@_0BD@CEMKCGHA@GetDefaultCodePage@
	DD	FLAT:?appGetDefaultCodePage@@YAPAU_object@@PAU1@0@Z
	DD	01H
	ORG $+4
	DD	FLAT:??_C@_0N@HDAEMEAH@SetControlFP@
	DD	FLAT:?appSetControlFP@@YAPAU_object@@PAU1@0@Z
	DD	01H
	ORG $+4
	DD	FLAT:??_C@_0BB@IFMAFIHG@SetSpecularSpeed@
	DD	FLAT:?appSetSpecularSpeed@@YAPAU_object@@PAU1@0@Z
	DD	01H
	ORG $+4
	DD	FLAT:??_C@_0BI@DNKBNLNC@testGetAccumulationTime@
	DD	FLAT:?apptestGetAccumulationTime@@YAPAU_object@@PAU1@0@Z
	DD	01H
	ORG $+4
	DD	FLAT:??_C@_0BK@PLDHJGMN@testResetAccumulationTime@
	DD	FLAT:?apptestResetAccumulationTime@@YAPAU_object@@PAU1@0@Z
	DD	01H
	ORG $+4
	DD	FLAT:??_C@_0BF@KHKICLKO@testSetSpecularColor@
	DD	FLAT:?apptestSetSpecularColor@@YAPAU_object@@PAU1@0@Z
	DD	01H
	ORG $+4
	DD	FLAT:??_C@_0BB@MMPIECKB@SetVisibleNotice@
	DD	FLAT:?appSetVisibleNotice@@YAPAU_object@@PAU1@0@Z
	DD	01H
	ORG $+4
	DD	FLAT:??_C@_0BA@NLDNPIOL@IsVisibleNotice@
	DD	FLAT:?appIsVisibleNotice@@YAPAU_object@@PAU1@0@Z
	DD	01H
	ORG $+4
	DD	FLAT:??_C@_0BF@BOMOCGIP@EnableTestServerFlag@
	DD	FLAT:?appEnableTestServerFlag@@YAPAU_object@@PAU1@0@Z
	DD	01H
	ORG $+4
	DD	FLAT:??_C@_0BH@GBDECBIH@IsEnableTestServerFlag@
	DD	FLAT:?appIsEnableTestServerFlag@@YAPAU_object@@PAU1@0@Z
	DD	01H
	ORG $+4
	DD	FLAT:??_C@_0BB@DLDOCGLL@SetGuildMarkPath@
	DD	FLAT:?appSetGuildMarkPath@@YAPAU_object@@PAU1@0@Z
	DD	01H
	ORG $+4
	DD	FLAT:??_C@_0N@LIPHBNAO@OnLogoUpdate@
	DD	FLAT:?appLogoUpdate@@YAPAU_object@@PAU1@0@Z
	DD	01H
	ORG $+4
	DD	FLAT:??_C@_0N@ELECBFOK@OnLogoRender@
	DD	FLAT:?appLogoRender@@YAPAU_object@@PAU1@0@Z
	DD	01H
	ORG $+4
	DD	FLAT:??_C@_0L@JMMGDKPP@OnLogoOpen@
	DD	FLAT:?appLogoOpen@@YAPAU_object@@PAU1@0@Z
	DD	01H
	ORG $+4
	DD	FLAT:??_C@_0M@JMIFNMOK@OnLogoClose@
	DD	FLAT:?appLogoClose@@YAPAU_object@@PAU1@0@Z
	DD	01H
	ORG $+4
	DD	00H
	DD	00H
	ORG $+8
_DATA	ENDS
;	COMDAT ??_C@_04JCAPCJAP@?4tga@
CONST	SEGMENT
??_C@_04JCAPCJAP@?4tga@ DB '.tga', 00H			; `string'
CONST	ENDS
;	COMDAT ??_C@_02OCDGCAAK@si@
CONST	SEGMENT
??_C@_02OCDGCAAK@si@ DB 'si', 00H			; `string'
CONST	ENDS
;	COMDAT ??_C@_0BH@GNAGLJEE@Wrong?5Cursor?5Name?5?$FL?$CFd?$FN@
CONST	SEGMENT
??_C@_0BH@GNAGLJEE@Wrong?5Cursor?5Name?5?$FL?$CFd?$FN@ DB 'Wrong Cursor N'
	DB	'ame [%d]', 00H				; `string'
CONST	ENDS
;	COMDAT ??_C@_02PDIHAGKM@ii@
CONST	SEGMENT
??_C@_02PDIHAGKM@ii@ DB 'ii', 00H			; `string'
CONST	ENDS
;	COMDAT ??_C@_02PINLEBJB@fi@
CONST	SEGMENT
??_C@_02PINLEBJB@fi@ DB 'fi', 00H			; `string'
CONST	ENDS
;	COMDAT ??_C@_01INIBCBCB@f@
CONST	SEGMENT
??_C@_01INIBCBCB@f@ DB 'f', 00H				; `string'
CONST	ENDS
;	COMDAT ??_C@_04EOBPFJGD@ffff@
CONST	SEGMENT
??_C@_04EOBPFJGD@ffff@ DB 'ffff', 00H			; `string'
CONST	ENDS
;	COMDAT ??_C@_03GLKMLICL@iii@
CONST	SEGMENT
??_C@_03GLKMLICL@iii@ DB 'iii', 00H			; `string'
CONST	ENDS
;	COMDAT ??_C@_02OIKAIHIF@s?$CD@
CONST	SEGMENT
??_C@_02OIKAIHIF@s?$CD@ DB 's#', 00H			; `string'
CONST	ENDS
;	COMDAT ??_C@_02JDPG@rb@
CONST	SEGMENT
??_C@_02JDPG@rb@ DB 'rb', 00H				; `string'
CONST	ENDS
;	COMDAT ?key@?1??appLoadLocaleAddr@@YAPAU_object@@PAU2@0@Z@4QBEB
CONST	SEGMENT
?key@?1??appLoadLocaleAddr@@YAPAU_object@@PAU2@0@Z@4QBEB DB 082H ; `appLoadLocaleAddr'::`2'::key
	DB	01bH
	DB	034H
	DB	0aeH
	DB	012H
	DB	03bH
	DB	0fbH
	DB	017H
	DB	0d7H
	DB	02cH
	DB	039H
	DB	0aeH
	DB	041H
	DB	098H
	DB	0f1H
	DB	063H
CONST	ENDS
;	COMDAT ??_C@_01LKDEMHDF@s@
CONST	SEGMENT
??_C@_01LKDEMHDF@s@ DB 's', 00H				; `string'
CONST	ENDS
;	COMDAT ??_C@_0M@OEKALNFB@RENDER_GAME@
CONST	SEGMENT
??_C@_0M@OEKALNFB@RENDER_GAME@ DB 'RENDER_GAME', 00H	; `string'
CONST	ENDS
;	COMDAT ??_C@_01KBJDNOO@i@
CONST	SEGMENT
??_C@_01KBJDNOO@i@ DB 'i', 00H				; `string'
CONST	ENDS
;	COMDAT ??_C@_00CNPNBAHC@@
CONST	SEGMENT
??_C@_00CNPNBAHC@@ DB 00H				; `string'
CONST	ENDS
;	COMDAT xdata$x
xdata$x	SEGMENT
__ehfuncinfo$??1?$CDynamicPoolEx@VCHeaderDecorator@NEffectUpdateDecorator@@@@UAE@XZ DD 019930522H
	DD	00H
	DD	00H
	DD	2 DUP(00H)
	DD	2 DUP(00H)
	DD	00H
	DD	05H
xdata$x	ENDS
;	COMDAT xdata$x
xdata$x	SEGMENT
__ehfuncinfo$??1?$CDynamicPoolEx@VCNullDecorator@NEffectUpdateDecorator@@@@UAE@XZ DD 019930522H
	DD	00H
	DD	00H
	DD	2 DUP(00H)
	DD	2 DUP(00H)
	DD	00H
	DD	05H
xdata$x	ENDS
;	COMDAT xdata$x
xdata$x	SEGMENT
__ehfuncinfo$??1?$CDynamicPoolEx@VCTextureAnimationCWDecorator@NEffectUpdateDecorator@@@@UAE@XZ DD 019930522H
	DD	00H
	DD	00H
	DD	2 DUP(00H)
	DD	2 DUP(00H)
	DD	00H
	DD	05H
xdata$x	ENDS
;	COMDAT xdata$x
xdata$x	SEGMENT
__ehfuncinfo$??1?$CDynamicPoolEx@VCTextureAnimationCCWDecorator@NEffectUpdateDecorator@@@@UAE@XZ DD 019930522H
	DD	00H
	DD	00H
	DD	2 DUP(00H)
	DD	2 DUP(00H)
	DD	00H
	DD	05H
xdata$x	ENDS
;	COMDAT xdata$x
xdata$x	SEGMENT
__ehfuncinfo$??1?$CDynamicPoolEx@VCTextureAnimationRandomDecorator@NEffectUpdateDecorator@@@@UAE@XZ DD 019930522H
	DD	00H
	DD	00H
	DD	2 DUP(00H)
	DD	2 DUP(00H)
	DD	00H
	DD	05H
xdata$x	ENDS
;	COMDAT xdata$x
xdata$x	SEGMENT
__ehfuncinfo$??1?$CDynamicPoolEx@VCAirResistanceDecorator@NEffectUpdateDecorator@@@@UAE@XZ DD 019930522H
	DD	00H
	DD	00H
	DD	2 DUP(00H)
	DD	2 DUP(00H)
	DD	00H
	DD	05H
xdata$x	ENDS
;	COMDAT xdata$x
xdata$x	SEGMENT
__ehfuncinfo$??1?$CDynamicPoolEx@VCGravityDecorator@NEffectUpdateDecorator@@@@UAE@XZ DD 019930522H
	DD	00H
	DD	00H
	DD	2 DUP(00H)
	DD	2 DUP(00H)
	DD	00H
	DD	05H
xdata$x	ENDS
;	COMDAT xdata$x
xdata$x	SEGMENT
__ehfuncinfo$??1?$CDynamicPoolEx@VCRotationDecorator@NEffectUpdateDecorator@@@@UAE@XZ DD 019930522H
	DD	00H
	DD	00H
	DD	2 DUP(00H)
	DD	2 DUP(00H)
	DD	00H
	DD	05H
xdata$x	ENDS
;	COMDAT xdata$x
xdata$x	SEGMENT
__unwindtable$?appOpenTextFile@@YAPAU_object@@PAU1@0@Z DD 0ffffffffH
	DD	FLAT:__unwindfunclet$?appOpenTextFile@@YAPAU_object@@PAU1@0@Z$0
__ehfuncinfo$?appOpenTextFile@@YAPAU_object@@PAU1@0@Z DD 019930522H
	DD	01H
	DD	FLAT:__unwindtable$?appOpenTextFile@@YAPAU_object@@PAU1@0@Z
	DD	2 DUP(00H)
	DD	2 DUP(00H)
	DD	00H
	DD	01H
xdata$x	ENDS
;	COMDAT xdata$x
xdata$x	SEGMENT
__unwindtable$??0CTextLineLoader@@QAE@PBD@Z DD 0ffffffffH
	DD	FLAT:__unwindfunclet$??0CTextLineLoader@@QAE@PBD@Z$0
	DD	00H
	DD	FLAT:__unwindfunclet$??0CTextLineLoader@@QAE@PBD@Z$1
__ehfuncinfo$??0CTextLineLoader@@QAE@PBD@Z DD 019930522H
	DD	02H
	DD	FLAT:__unwindtable$??0CTextLineLoader@@QAE@PBD@Z
	DD	2 DUP(00H)
	DD	2 DUP(00H)
	DD	00H
	DD	01H
xdata$x	ENDS
;	COMDAT xdata$x
xdata$x	SEGMENT
__unwindtable$?appGetConnectData@@YAPAU_object@@PAU1@0@Z DD 0ffffffffH
	DD	FLAT:__unwindfunclet$?appGetConnectData@@YAPAU_object@@PAU1@0@Z$0
__ehfuncinfo$?appGetConnectData@@YAPAU_object@@PAU1@0@Z DD 019930522H
	DD	01H
	DD	FLAT:__unwindtable$?appGetConnectData@@YAPAU_object@@PAU1@0@Z
	DD	2 DUP(00H)
	DD	2 DUP(00H)
	DD	00H
	DD	01H
xdata$x	ENDS
;	COMDAT xdata$x
xdata$x	SEGMENT
__unwindtable$?appGetInfo@@YAPAU_object@@PAU1@0@Z DD 0ffffffffH
	DD	FLAT:__unwindfunclet$?appGetInfo@@YAPAU_object@@PAU1@0@Z$0
__ehfuncinfo$?appGetInfo@@YAPAU_object@@PAU1@0@Z DD 019930522H
	DD	01H
	DD	FLAT:__unwindtable$?appGetInfo@@YAPAU_object@@PAU1@0@Z
	DD	2 DUP(00H)
	DD	2 DUP(00H)
	DD	00H
	DD	01H
xdata$x	ENDS
;	COMDAT xdata$x
xdata$x	SEGMENT
__ehfuncinfo$??$_Deallocate@$07$0A@@std@@YAXPAXI@Z DD 019930522H
	DD	00H
	DD	00H
	DD	2 DUP(00H)
	DD	2 DUP(00H)
	DD	00H
	DD	05H
xdata$x	ENDS
;	COMDAT CRT$XCU
CRT$XCU	SEGMENT
??ms_kPool$initializer$@?$CPooledObject@VCNullDecorator@NEffectUpdateDecorator@@@@1P6AXXZA@@3P6AXXZA DD FLAT:??__E?ms_kPool@?$CPooledObject@VCNullDecorator@NEffectUpdateDecorator@@@@1V?$CDynamicPoolEx@VCNullDecorator@NEffectUpdateDecorator@@@@A@@YAXXZ ; ??ms_kPool$initializer$@?$CPooledObject@VCNullDecorator@NEffectUpdateDecorator@@@@1P6AXXZA@@3P6AXXZA
CRT$XCU	ENDS
;	COMDAT CRT$XCU
CRT$XCU	SEGMENT
??ms_kPool$initializer$@?$CPooledObject@VCTextureAnimationCWDecorator@NEffectUpdateDecorator@@@@1P6AXXZA@@3P6AXXZA DD FLAT:??__E?ms_kPool@?$CPooledObject@VCTextureAnimationCWDecorator@NEffectUpdateDecorator@@@@1V?$CDynamicPoolEx@VCTextureAnimationCWDecorator@NEffectUpdateDecorator@@@@A@@YAXXZ ; ??ms_kPool$initializer$@?$CPooledObject@VCTextureAnimationCWDecorator@NEffectUpdateDecorator@@@@1P6AXXZA@@3P6AXXZA
CRT$XCU	ENDS
;	COMDAT CRT$XCU
CRT$XCU	SEGMENT
??ms_kPool$initializer$@?$CPooledObject@VCTextureAnimationCCWDecorator@NEffectUpdateDecorator@@@@1P6AXXZA@@3P6AXXZA DD FLAT:??__E?ms_kPool@?$CPooledObject@VCTextureAnimationCCWDecorator@NEffectUpdateDecorator@@@@1V?$CDynamicPoolEx@VCTextureAnimationCCWDecorator@NEffectUpdateDecorator@@@@A@@YAXXZ ; ??ms_kPool$initializer$@?$CPooledObject@VCTextureAnimationCCWDecorator@NEffectUpdateDecorator@@@@1P6AXXZA@@3P6AXXZA
CRT$XCU	ENDS
;	COMDAT CRT$XCU
CRT$XCU	SEGMENT
??ms_kPool$initializer$@?$CPooledObject@VCTextureAnimationRandomDecorator@NEffectUpdateDecorator@@@@1P6AXXZA@@3P6AXXZA DD FLAT:??__E?ms_kPool@?$CPooledObject@VCTextureAnimationRandomDecorator@NEffectUpdateDecorator@@@@1V?$CDynamicPoolEx@VCTextureAnimationRandomDecorator@NEffectUpdateDecorator@@@@A@@YAXXZ ; ??ms_kPool$initializer$@?$CPooledObject@VCTextureAnimationRandomDecorator@NEffectUpdateDecorator@@@@1P6AXXZA@@3P6AXXZA
CRT$XCU	ENDS
;	COMDAT CRT$XCU
CRT$XCU	SEGMENT
??ms_kPool$initializer$@?$CPooledObject@VCAirResistanceDecorator@NEffectUpdateDecorator@@@@1P6AXXZA@@3P6AXXZA DD FLAT:??__E?ms_kPool@?$CPooledObject@VCAirResistanceDecorator@NEffectUpdateDecorator@@@@1V?$CDynamicPoolEx@VCAirResistanceDecorator@NEffectUpdateDecorator@@@@A@@YAXXZ ; ??ms_kPool$initializer$@?$CPooledObject@VCAirResistanceDecorator@NEffectUpdateDecorator@@@@1P6AXXZA@@3P6AXXZA
CRT$XCU	ENDS
;	COMDAT CRT$XCU
CRT$XCU	SEGMENT
??ms_kPool$initializer$@?$CPooledObject@VCGravityDecorator@NEffectUpdateDecorator@@@@1P6AXXZA@@3P6AXXZA DD FLAT:??__E?ms_kPool@?$CPooledObject@VCGravityDecorator@NEffectUpdateDecorator@@@@1V?$CDynamicPoolEx@VCGravityDecorator@NEffectUpdateDecorator@@@@A@@YAXXZ ; ??ms_kPool$initializer$@?$CPooledObject@VCGravityDecorator@NEffectUpdateDecorator@@@@1P6AXXZA@@3P6AXXZA
CRT$XCU	ENDS
;	COMDAT CRT$XCU
CRT$XCU	SEGMENT
??ms_kPool$initializer$@?$CPooledObject@VCRotationDecorator@NEffectUpdateDecorator@@@@1P6AXXZA@@3P6AXXZA DD FLAT:??__E?ms_kPool@?$CPooledObject@VCRotationDecorator@NEffectUpdateDecorator@@@@1V?$CDynamicPoolEx@VCRotationDecorator@NEffectUpdateDecorator@@@@A@@YAXXZ ; ??ms_kPool$initializer$@?$CPooledObject@VCRotationDecorator@NEffectUpdateDecorator@@@@1P6AXXZA@@3P6AXXZA
CRT$XCU	ENDS
; Function compile flags: /Odspy
;	COMDAT ??__F?ms_kPool@?$CPooledObject@VCRotationDecorator@NEffectUpdateDecorator@@@@1V?$CDynamicPoolEx@VCRotationDecorator@NEffectUpdateDecorator@@@@A@@YAXXZ
text$yd	SEGMENT
??__F?ms_kPool@?$CPooledObject@VCRotationDecorator@NEffectUpdateDecorator@@@@1V?$CDynamicPoolEx@VCRotationDecorator@NEffectUpdateDecorator@@@@A@@YAXXZ PROC ; `dynamic atexit destructor for 'CPooledObject<NEffectUpdateDecorator::CRotationDecorator>::ms_kPool'', COMDAT
  00000	55		 push	 ebp
  00001	8b ec		 mov	 ebp, esp
  00003	b9 00 00 00 00	 mov	 ecx, OFFSET ?ms_kPool@?$CPooledObject@VCRotationDecorator@NEffectUpdateDecorator@@@@1V?$CDynamicPoolEx@VCRotationDecorator@NEffectUpdateDecorator@@@@A ; CPooledObject<NEffectUpdateDecorator::CRotationDecorator>::ms_kPool
  00008	e8 00 00 00 00	 call	 ??1?$CDynamicPoolEx@VCRotationDecorator@NEffectUpdateDecorator@@@@UAE@XZ ; CDynamicPoolEx<NEffectUpdateDecorator::CRotationDecorator>::~CDynamicPoolEx<NEffectUpdateDecorator::CRotationDecorator>
  0000d	5d		 pop	 ebp
  0000e	c3		 ret	 0
??__F?ms_kPool@?$CPooledObject@VCRotationDecorator@NEffectUpdateDecorator@@@@1V?$CDynamicPoolEx@VCRotationDecorator@NEffectUpdateDecorator@@@@A@@YAXXZ ENDP ; `dynamic atexit destructor for 'CPooledObject<NEffectUpdateDecorator::CRotationDecorator>::ms_kPool''
text$yd	ENDS
; Function compile flags: /Odspy
; File D:\Metin2 Server Files\mainline\SRC_2014\Metin2Client\eterLib\Pool.h
;	COMDAT ??__E?ms_kPool@?$CPooledObject@VCRotationDecorator@NEffectUpdateDecorator@@@@1V?$CDynamicPoolEx@VCRotationDecorator@NEffectUpdateDecorator@@@@A@@YAXXZ
text$di	SEGMENT
??__E?ms_kPool@?$CPooledObject@VCRotationDecorator@NEffectUpdateDecorator@@@@1V?$CDynamicPoolEx@VCRotationDecorator@NEffectUpdateDecorator@@@@A@@YAXXZ PROC ; `dynamic initializer for 'CPooledObject<NEffectUpdateDecorator::CRotationDecorator>::ms_kPool'', COMDAT

; 272  : template <class T> CDynamicPoolEx<T> CPooledObject<T>::ms_kPool;

  00000	55		 push	 ebp
  00001	8b ec		 mov	 ebp, esp
  00003	b9 00 00 00 00	 mov	 ecx, OFFSET ?ms_kPool@?$CPooledObject@VCRotationDecorator@NEffectUpdateDecorator@@@@1V?$CDynamicPoolEx@VCRotationDecorator@NEffectUpdateDecorator@@@@A ; CPooledObject<NEffectUpdateDecorator::CRotationDecorator>::ms_kPool
  00008	e8 00 00 00 00	 call	 ??0?$CDynamicPoolEx@VCRotationDecorator@NEffectUpdateDecorator@@@@QAE@XZ ; CDynamicPoolEx<NEffectUpdateDecorator::CRotationDecorator>::CDynamicPoolEx<NEffectUpdateDecorator::CRotationDecorator>
  0000d	68 00 00 00 00	 push	 OFFSET ??__F?ms_kPool@?$CPooledObject@VCRotationDecorator@NEffectUpdateDecorator@@@@1V?$CDynamicPoolEx@VCRotationDecorator@NEffectUpdateDecorator@@@@A@@YAXXZ ; `dynamic atexit destructor for 'CPooledObject<NEffectUpdateDecorator::CRotationDecorator>::ms_kPool''
  00012	e8 00 00 00 00	 call	 _atexit
  00017	59		 pop	 ecx
  00018	5d		 pop	 ebp
  00019	c3		 ret	 0
??__E?ms_kPool@?$CPooledObject@VCRotationDecorator@NEffectUpdateDecorator@@@@1V?$CDynamicPoolEx@VCRotationDecorator@NEffectUpdateDecorator@@@@A@@YAXXZ ENDP ; `dynamic initializer for 'CPooledObject<NEffectUpdateDecorator::CRotationDecorator>::ms_kPool''
text$di	ENDS
; Function compile flags: /Odspy
;	COMDAT ??__F?ms_kPool@?$CPooledObject@VCGravityDecorator@NEffectUpdateDecorator@@@@1V?$CDynamicPoolEx@VCGravityDecorator@NEffectUpdateDecorator@@@@A@@YAXXZ
text$yd	SEGMENT
??__F?ms_kPool@?$CPooledObject@VCGravityDecorator@NEffectUpdateDecorator@@@@1V?$CDynamicPoolEx@VCGravityDecorator@NEffectUpdateDecorator@@@@A@@YAXXZ PROC ; `dynamic atexit destructor for 'CPooledObject<NEffectUpdateDecorator::CGravityDecorator>::ms_kPool'', COMDAT
  00000	55		 push	 ebp
  00001	8b ec		 mov	 ebp, esp
  00003	b9 00 00 00 00	 mov	 ecx, OFFSET ?ms_kPool@?$CPooledObject@VCGravityDecorator@NEffectUpdateDecorator@@@@1V?$CDynamicPoolEx@VCGravityDecorator@NEffectUpdateDecorator@@@@A ; CPooledObject<NEffectUpdateDecorator::CGravityDecorator>::ms_kPool
  00008	e8 00 00 00 00	 call	 ??1?$CDynamicPoolEx@VCGravityDecorator@NEffectUpdateDecorator@@@@UAE@XZ ; CDynamicPoolEx<NEffectUpdateDecorator::CGravityDecorator>::~CDynamicPoolEx<NEffectUpdateDecorator::CGravityDecorator>
  0000d	5d		 pop	 ebp
  0000e	c3		 ret	 0
??__F?ms_kPool@?$CPooledObject@VCGravityDecorator@NEffectUpdateDecorator@@@@1V?$CDynamicPoolEx@VCGravityDecorator@NEffectUpdateDecorator@@@@A@@YAXXZ ENDP ; `dynamic atexit destructor for 'CPooledObject<NEffectUpdateDecorator::CGravityDecorator>::ms_kPool''
text$yd	ENDS
; Function compile flags: /Odspy
; File D:\Metin2 Server Files\mainline\SRC_2014\Metin2Client\eterLib\Pool.h
;	COMDAT ??__E?ms_kPool@?$CPooledObject@VCGravityDecorator@NEffectUpdateDecorator@@@@1V?$CDynamicPoolEx@VCGravityDecorator@NEffectUpdateDecorator@@@@A@@YAXXZ
text$di	SEGMENT
??__E?ms_kPool@?$CPooledObject@VCGravityDecorator@NEffectUpdateDecorator@@@@1V?$CDynamicPoolEx@VCGravityDecorator@NEffectUpdateDecorator@@@@A@@YAXXZ PROC ; `dynamic initializer for 'CPooledObject<NEffectUpdateDecorator::CGravityDecorator>::ms_kPool'', COMDAT

; 272  : template <class T> CDynamicPoolEx<T> CPooledObject<T>::ms_kPool;

  00000	55		 push	 ebp
  00001	8b ec		 mov	 ebp, esp
  00003	b9 00 00 00 00	 mov	 ecx, OFFSET ?ms_kPool@?$CPooledObject@VCGravityDecorator@NEffectUpdateDecorator@@@@1V?$CDynamicPoolEx@VCGravityDecorator@NEffectUpdateDecorator@@@@A ; CPooledObject<NEffectUpdateDecorator::CGravityDecorator>::ms_kPool
  00008	e8 00 00 00 00	 call	 ??0?$CDynamicPoolEx@VCGravityDecorator@NEffectUpdateDecorator@@@@QAE@XZ ; CDynamicPoolEx<NEffectUpdateDecorator::CGravityDecorator>::CDynamicPoolEx<NEffectUpdateDecorator::CGravityDecorator>
  0000d	68 00 00 00 00	 push	 OFFSET ??__F?ms_kPool@?$CPooledObject@VCGravityDecorator@NEffectUpdateDecorator@@@@1V?$CDynamicPoolEx@VCGravityDecorator@NEffectUpdateDecorator@@@@A@@YAXXZ ; `dynamic atexit destructor for 'CPooledObject<NEffectUpdateDecorator::CGravityDecorator>::ms_kPool''
  00012	e8 00 00 00 00	 call	 _atexit
  00017	59		 pop	 ecx
  00018	5d		 pop	 ebp
  00019	c3		 ret	 0
??__E?ms_kPool@?$CPooledObject@VCGravityDecorator@NEffectUpdateDecorator@@@@1V?$CDynamicPoolEx@VCGravityDecorator@NEffectUpdateDecorator@@@@A@@YAXXZ ENDP ; `dynamic initializer for 'CPooledObject<NEffectUpdateDecorator::CGravityDecorator>::ms_kPool''
text$di	ENDS
; Function compile flags: /Odspy
;	COMDAT ??__F?ms_kPool@?$CPooledObject@VCAirResistanceDecorator@NEffectUpdateDecorator@@@@1V?$CDynamicPoolEx@VCAirResistanceDecorator@NEffectUpdateDecorator@@@@A@@YAXXZ
text$yd	SEGMENT
??__F?ms_kPool@?$CPooledObject@VCAirResistanceDecorator@NEffectUpdateDecorator@@@@1V?$CDynamicPoolEx@VCAirResistanceDecorator@NEffectUpdateDecorator@@@@A@@YAXXZ PROC ; `dynamic atexit destructor for 'CPooledObject<NEffectUpdateDecorator::CAirResistanceDecorator>::ms_kPool'', COMDAT
  00000	55		 push	 ebp
  00001	8b ec		 mov	 ebp, esp
  00003	b9 00 00 00 00	 mov	 ecx, OFFSET ?ms_kPool@?$CPooledObject@VCAirResistanceDecorator@NEffectUpdateDecorator@@@@1V?$CDynamicPoolEx@VCAirResistanceDecorator@NEffectUpdateDecorator@@@@A ; CPooledObject<NEffectUpdateDecorator::CAirResistanceDecorator>::ms_kPool
  00008	e8 00 00 00 00	 call	 ??1?$CDynamicPoolEx@VCAirResistanceDecorator@NEffectUpdateDecorator@@@@UAE@XZ ; CDynamicPoolEx<NEffectUpdateDecorator::CAirResistanceDecorator>::~CDynamicPoolEx<NEffectUpdateDecorator::CAirResistanceDecorator>
  0000d	5d		 pop	 ebp
  0000e	c3		 ret	 0
??__F?ms_kPool@?$CPooledObject@VCAirResistanceDecorator@NEffectUpdateDecorator@@@@1V?$CDynamicPoolEx@VCAirResistanceDecorator@NEffectUpdateDecorator@@@@A@@YAXXZ ENDP ; `dynamic atexit destructor for 'CPooledObject<NEffectUpdateDecorator::CAirResistanceDecorator>::ms_kPool''
text$yd	ENDS
; Function compile flags: /Odspy
; File D:\Metin2 Server Files\mainline\SRC_2014\Metin2Client\eterLib\Pool.h
;	COMDAT ??__E?ms_kPool@?$CPooledObject@VCAirResistanceDecorator@NEffectUpdateDecorator@@@@1V?$CDynamicPoolEx@VCAirResistanceDecorator@NEffectUpdateDecorator@@@@A@@YAXXZ
text$di	SEGMENT
??__E?ms_kPool@?$CPooledObject@VCAirResistanceDecorator@NEffectUpdateDecorator@@@@1V?$CDynamicPoolEx@VCAirResistanceDecorator@NEffectUpdateDecorator@@@@A@@YAXXZ PROC ; `dynamic initializer for 'CPooledObject<NEffectUpdateDecorator::CAirResistanceDecorator>::ms_kPool'', COMDAT

; 272  : template <class T> CDynamicPoolEx<T> CPooledObject<T>::ms_kPool;

  00000	55		 push	 ebp
  00001	8b ec		 mov	 ebp, esp
  00003	b9 00 00 00 00	 mov	 ecx, OFFSET ?ms_kPool@?$CPooledObject@VCAirResistanceDecorator@NEffectUpdateDecorator@@@@1V?$CDynamicPoolEx@VCAirResistanceDecorator@NEffectUpdateDecorator@@@@A ; CPooledObject<NEffectUpdateDecorator::CAirResistanceDecorator>::ms_kPool
  00008	e8 00 00 00 00	 call	 ??0?$CDynamicPoolEx@VCAirResistanceDecorator@NEffectUpdateDecorator@@@@QAE@XZ ; CDynamicPoolEx<NEffectUpdateDecorator::CAirResistanceDecorator>::CDynamicPoolEx<NEffectUpdateDecorator::CAirResistanceDecorator>
  0000d	68 00 00 00 00	 push	 OFFSET ??__F?ms_kPool@?$CPooledObject@VCAirResistanceDecorator@NEffectUpdateDecorator@@@@1V?$CDynamicPoolEx@VCAirResistanceDecorator@NEffectUpdateDecorator@@@@A@@YAXXZ ; `dynamic atexit destructor for 'CPooledObject<NEffectUpdateDecorator::CAirResistanceDecorator>::ms_kPool''
  00012	e8 00 00 00 00	 call	 _atexit
  00017	59		 pop	 ecx
  00018	5d		 pop	 ebp
  00019	c3		 ret	 0
??__E?ms_kPool@?$CPooledObject@VCAirResistanceDecorator@NEffectUpdateDecorator@@@@1V?$CDynamicPoolEx@VCAirResistanceDecorator@NEffectUpdateDecorator@@@@A@@YAXXZ ENDP ; `dynamic initializer for 'CPooledObject<NEffectUpdateDecorator::CAirResistanceDecorator>::ms_kPool''
text$di	ENDS
; Function compile flags: /Odspy
;	COMDAT ??__F?ms_kPool@?$CPooledObject@VCTextureAnimationRandomDecorator@NEffectUpdateDecorator@@@@1V?$CDynamicPoolEx@VCTextureAnimationRandomDecorator@NEffectUpdateDecorator@@@@A@@YAXXZ
text$yd	SEGMENT
??__F?ms_kPool@?$CPooledObject@VCTextureAnimationRandomDecorator@NEffectUpdateDecorator@@@@1V?$CDynamicPoolEx@VCTextureAnimationRandomDecorator@NEffectUpdateDecorator@@@@A@@YAXXZ PROC ; `dynamic atexit destructor for 'CPooledObject<NEffectUpdateDecorator::CTextureAnimationRandomDecorator>::ms_kPool'', COMDAT
  00000	55		 push	 ebp
  00001	8b ec		 mov	 ebp, esp
  00003	b9 00 00 00 00	 mov	 ecx, OFFSET ?ms_kPool@?$CPooledObject@VCTextureAnimationRandomDecorator@NEffectUpdateDecorator@@@@1V?$CDynamicPoolEx@VCTextureAnimationRandomDecorator@NEffectUpdateDecorator@@@@A ; CPooledObject<NEffectUpdateDecorator::CTextureAnimationRandomDecorator>::ms_kPool
  00008	e8 00 00 00 00	 call	 ??1?$CDynamicPoolEx@VCTextureAnimationRandomDecorator@NEffectUpdateDecorator@@@@UAE@XZ ; CDynamicPoolEx<NEffectUpdateDecorator::CTextureAnimationRandomDecorator>::~CDynamicPoolEx<NEffectUpdateDecorator::CTextureAnimationRandomDecorator>
  0000d	5d		 pop	 ebp
  0000e	c3		 ret	 0
??__F?ms_kPool@?$CPooledObject@VCTextureAnimationRandomDecorator@NEffectUpdateDecorator@@@@1V?$CDynamicPoolEx@VCTextureAnimationRandomDecorator@NEffectUpdateDecorator@@@@A@@YAXXZ ENDP ; `dynamic atexit destructor for 'CPooledObject<NEffectUpdateDecorator::CTextureAnimationRandomDecorator>::ms_kPool''
text$yd	ENDS
; Function compile flags: /Odspy
; File D:\Metin2 Server Files\mainline\SRC_2014\Metin2Client\eterLib\Pool.h
;	COMDAT ??__E?ms_kPool@?$CPooledObject@VCTextureAnimationRandomDecorator@NEffectUpdateDecorator@@@@1V?$CDynamicPoolEx@VCTextureAnimationRandomDecorator@NEffectUpdateDecorator@@@@A@@YAXXZ
text$di	SEGMENT
??__E?ms_kPool@?$CPooledObject@VCTextureAnimationRandomDecorator@NEffectUpdateDecorator@@@@1V?$CDynamicPoolEx@VCTextureAnimationRandomDecorator@NEffectUpdateDecorator@@@@A@@YAXXZ PROC ; `dynamic initializer for 'CPooledObject<NEffectUpdateDecorator::CTextureAnimationRandomDecorator>::ms_kPool'', COMDAT

; 272  : template <class T> CDynamicPoolEx<T> CPooledObject<T>::ms_kPool;

  00000	55		 push	 ebp
  00001	8b ec		 mov	 ebp, esp
  00003	b9 00 00 00 00	 mov	 ecx, OFFSET ?ms_kPool@?$CPooledObject@VCTextureAnimationRandomDecorator@NEffectUpdateDecorator@@@@1V?$CDynamicPoolEx@VCTextureAnimationRandomDecorator@NEffectUpdateDecorator@@@@A ; CPooledObject<NEffectUpdateDecorator::CTextureAnimationRandomDecorator>::ms_kPool
  00008	e8 00 00 00 00	 call	 ??0?$CDynamicPoolEx@VCTextureAnimationRandomDecorator@NEffectUpdateDecorator@@@@QAE@XZ ; CDynamicPoolEx<NEffectUpdateDecorator::CTextureAnimationRandomDecorator>::CDynamicPoolEx<NEffectUpdateDecorator::CTextureAnimationRandomDecorator>
  0000d	68 00 00 00 00	 push	 OFFSET ??__F?ms_kPool@?$CPooledObject@VCTextureAnimationRandomDecorator@NEffectUpdateDecorator@@@@1V?$CDynamicPoolEx@VCTextureAnimationRandomDecorator@NEffectUpdateDecorator@@@@A@@YAXXZ ; `dynamic atexit destructor for 'CPooledObject<NEffectUpdateDecorator::CTextureAnimationRandomDecorator>::ms_kPool''
  00012	e8 00 00 00 00	 call	 _atexit
  00017	59		 pop	 ecx
  00018	5d		 pop	 ebp
  00019	c3		 ret	 0
??__E?ms_kPool@?$CPooledObject@VCTextureAnimationRandomDecorator@NEffectUpdateDecorator@@@@1V?$CDynamicPoolEx@VCTextureAnimationRandomDecorator@NEffectUpdateDecorator@@@@A@@YAXXZ ENDP ; `dynamic initializer for 'CPooledObject<NEffectUpdateDecorator::CTextureAnimationRandomDecorator>::ms_kPool''
text$di	ENDS
; Function compile flags: /Odspy
;	COMDAT ??__F?ms_kPool@?$CPooledObject@VCTextureAnimationCCWDecorator@NEffectUpdateDecorator@@@@1V?$CDynamicPoolEx@VCTextureAnimationCCWDecorator@NEffectUpdateDecorator@@@@A@@YAXXZ
text$yd	SEGMENT
??__F?ms_kPool@?$CPooledObject@VCTextureAnimationCCWDecorator@NEffectUpdateDecorator@@@@1V?$CDynamicPoolEx@VCTextureAnimationCCWDecorator@NEffectUpdateDecorator@@@@A@@YAXXZ PROC ; `dynamic atexit destructor for 'CPooledObject<NEffectUpdateDecorator::CTextureAnimationCCWDecorator>::ms_kPool'', COMDAT
  00000	55		 push	 ebp
  00001	8b ec		 mov	 ebp, esp
  00003	b9 00 00 00 00	 mov	 ecx, OFFSET ?ms_kPool@?$CPooledObject@VCTextureAnimationCCWDecorator@NEffectUpdateDecorator@@@@1V?$CDynamicPoolEx@VCTextureAnimationCCWDecorator@NEffectUpdateDecorator@@@@A ; CPooledObject<NEffectUpdateDecorator::CTextureAnimationCCWDecorator>::ms_kPool
  00008	e8 00 00 00 00	 call	 ??1?$CDynamicPoolEx@VCTextureAnimationCCWDecorator@NEffectUpdateDecorator@@@@UAE@XZ ; CDynamicPoolEx<NEffectUpdateDecorator::CTextureAnimationCCWDecorator>::~CDynamicPoolEx<NEffectUpdateDecorator::CTextureAnimationCCWDecorator>
  0000d	5d		 pop	 ebp
  0000e	c3		 ret	 0
??__F?ms_kPool@?$CPooledObject@VCTextureAnimationCCWDecorator@NEffectUpdateDecorator@@@@1V?$CDynamicPoolEx@VCTextureAnimationCCWDecorator@NEffectUpdateDecorator@@@@A@@YAXXZ ENDP ; `dynamic atexit destructor for 'CPooledObject<NEffectUpdateDecorator::CTextureAnimationCCWDecorator>::ms_kPool''
text$yd	ENDS
; Function compile flags: /Odspy
; File D:\Metin2 Server Files\mainline\SRC_2014\Metin2Client\eterLib\Pool.h
;	COMDAT ??__E?ms_kPool@?$CPooledObject@VCTextureAnimationCCWDecorator@NEffectUpdateDecorator@@@@1V?$CDynamicPoolEx@VCTextureAnimationCCWDecorator@NEffectUpdateDecorator@@@@A@@YAXXZ
text$di	SEGMENT
??__E?ms_kPool@?$CPooledObject@VCTextureAnimationCCWDecorator@NEffectUpdateDecorator@@@@1V?$CDynamicPoolEx@VCTextureAnimationCCWDecorator@NEffectUpdateDecorator@@@@A@@YAXXZ PROC ; `dynamic initializer for 'CPooledObject<NEffectUpdateDecorator::CTextureAnimationCCWDecorator>::ms_kPool'', COMDAT

; 272  : template <class T> CDynamicPoolEx<T> CPooledObject<T>::ms_kPool;

  00000	55		 push	 ebp
  00001	8b ec		 mov	 ebp, esp
  00003	b9 00 00 00 00	 mov	 ecx, OFFSET ?ms_kPool@?$CPooledObject@VCTextureAnimationCCWDecorator@NEffectUpdateDecorator@@@@1V?$CDynamicPoolEx@VCTextureAnimationCCWDecorator@NEffectUpdateDecorator@@@@A ; CPooledObject<NEffectUpdateDecorator::CTextureAnimationCCWDecorator>::ms_kPool
  00008	e8 00 00 00 00	 call	 ??0?$CDynamicPoolEx@VCTextureAnimationCCWDecorator@NEffectUpdateDecorator@@@@QAE@XZ ; CDynamicPoolEx<NEffectUpdateDecorator::CTextureAnimationCCWDecorator>::CDynamicPoolEx<NEffectUpdateDecorator::CTextureAnimationCCWDecorator>
  0000d	68 00 00 00 00	 push	 OFFSET ??__F?ms_kPool@?$CPooledObject@VCTextureAnimationCCWDecorator@NEffectUpdateDecorator@@@@1V?$CDynamicPoolEx@VCTextureAnimationCCWDecorator@NEffectUpdateDecorator@@@@A@@YAXXZ ; `dynamic atexit destructor for 'CPooledObject<NEffectUpdateDecorator::CTextureAnimationCCWDecorator>::ms_kPool''
  00012	e8 00 00 00 00	 call	 _atexit
  00017	59		 pop	 ecx
  00018	5d		 pop	 ebp
  00019	c3		 ret	 0
??__E?ms_kPool@?$CPooledObject@VCTextureAnimationCCWDecorator@NEffectUpdateDecorator@@@@1V?$CDynamicPoolEx@VCTextureAnimationCCWDecorator@NEffectUpdateDecorator@@@@A@@YAXXZ ENDP ; `dynamic initializer for 'CPooledObject<NEffectUpdateDecorator::CTextureAnimationCCWDecorator>::ms_kPool''
text$di	ENDS
; Function compile flags: /Odspy
;	COMDAT ??__F?ms_kPool@?$CPooledObject@VCTextureAnimationCWDecorator@NEffectUpdateDecorator@@@@1V?$CDynamicPoolEx@VCTextureAnimationCWDecorator@NEffectUpdateDecorator@@@@A@@YAXXZ
text$yd	SEGMENT
??__F?ms_kPool@?$CPooledObject@VCTextureAnimationCWDecorator@NEffectUpdateDecorator@@@@1V?$CDynamicPoolEx@VCTextureAnimationCWDecorator@NEffectUpdateDecorator@@@@A@@YAXXZ PROC ; `dynamic atexit destructor for 'CPooledObject<NEffectUpdateDecorator::CTextureAnimationCWDecorator>::ms_kPool'', COMDAT
  00000	55		 push	 ebp
  00001	8b ec		 mov	 ebp, esp
  00003	b9 00 00 00 00	 mov	 ecx, OFFSET ?ms_kPool@?$CPooledObject@VCTextureAnimationCWDecorator@NEffectUpdateDecorator@@@@1V?$CDynamicPoolEx@VCTextureAnimationCWDecorator@NEffectUpdateDecorator@@@@A ; CPooledObject<NEffectUpdateDecorator::CTextureAnimationCWDecorator>::ms_kPool
  00008	e8 00 00 00 00	 call	 ??1?$CDynamicPoolEx@VCTextureAnimationCWDecorator@NEffectUpdateDecorator@@@@UAE@XZ ; CDynamicPoolEx<NEffectUpdateDecorator::CTextureAnimationCWDecorator>::~CDynamicPoolEx<NEffectUpdateDecorator::CTextureAnimationCWDecorator>
  0000d	5d		 pop	 ebp
  0000e	c3		 ret	 0
??__F?ms_kPool@?$CPooledObject@VCTextureAnimationCWDecorator@NEffectUpdateDecorator@@@@1V?$CDynamicPoolEx@VCTextureAnimationCWDecorator@NEffectUpdateDecorator@@@@A@@YAXXZ ENDP ; `dynamic atexit destructor for 'CPooledObject<NEffectUpdateDecorator::CTextureAnimationCWDecorator>::ms_kPool''
text$yd	ENDS
; Function compile flags: /Odspy
; File D:\Metin2 Server Files\mainline\SRC_2014\Metin2Client\eterLib\Pool.h
;	COMDAT ??__E?ms_kPool@?$CPooledObject@VCTextureAnimationCWDecorator@NEffectUpdateDecorator@@@@1V?$CDynamicPoolEx@VCTextureAnimationCWDecorator@NEffectUpdateDecorator@@@@A@@YAXXZ
text$di	SEGMENT
??__E?ms_kPool@?$CPooledObject@VCTextureAnimationCWDecorator@NEffectUpdateDecorator@@@@1V?$CDynamicPoolEx@VCTextureAnimationCWDecorator@NEffectUpdateDecorator@@@@A@@YAXXZ PROC ; `dynamic initializer for 'CPooledObject<NEffectUpdateDecorator::CTextureAnimationCWDecorator>::ms_kPool'', COMDAT

; 272  : template <class T> CDynamicPoolEx<T> CPooledObject<T>::ms_kPool;

  00000	55		 push	 ebp
  00001	8b ec		 mov	 ebp, esp
  00003	b9 00 00 00 00	 mov	 ecx, OFFSET ?ms_kPool@?$CPooledObject@VCTextureAnimationCWDecorator@NEffectUpdateDecorator@@@@1V?$CDynamicPoolEx@VCTextureAnimationCWDecorator@NEffectUpdateDecorator@@@@A ; CPooledObject<NEffectUpdateDecorator::CTextureAnimationCWDecorator>::ms_kPool
  00008	e8 00 00 00 00	 call	 ??0?$CDynamicPoolEx@VCTextureAnimationCWDecorator@NEffectUpdateDecorator@@@@QAE@XZ ; CDynamicPoolEx<NEffectUpdateDecorator::CTextureAnimationCWDecorator>::CDynamicPoolEx<NEffectUpdateDecorator::CTextureAnimationCWDecorator>
  0000d	68 00 00 00 00	 push	 OFFSET ??__F?ms_kPool@?$CPooledObject@VCTextureAnimationCWDecorator@NEffectUpdateDecorator@@@@1V?$CDynamicPoolEx@VCTextureAnimationCWDecorator@NEffectUpdateDecorator@@@@A@@YAXXZ ; `dynamic atexit destructor for 'CPooledObject<NEffectUpdateDecorator::CTextureAnimationCWDecorator>::ms_kPool''
  00012	e8 00 00 00 00	 call	 _atexit
  00017	59		 pop	 ecx
  00018	5d		 pop	 ebp
  00019	c3		 ret	 0
??__E?ms_kPool@?$CPooledObject@VCTextureAnimationCWDecorator@NEffectUpdateDecorator@@@@1V?$CDynamicPoolEx@VCTextureAnimationCWDecorator@NEffectUpdateDecorator@@@@A@@YAXXZ ENDP ; `dynamic initializer for 'CPooledObject<NEffectUpdateDecorator::CTextureAnimationCWDecorator>::ms_kPool''
text$di	ENDS
; Function compile flags: /Odspy
;	COMDAT ??__F?ms_kPool@?$CPooledObject@VCNullDecorator@NEffectUpdateDecorator@@@@1V?$CDynamicPoolEx@VCNullDecorator@NEffectUpdateDecorator@@@@A@@YAXXZ
text$yd	SEGMENT
??__F?ms_kPool@?$CPooledObject@VCNullDecorator@NEffectUpdateDecorator@@@@1V?$CDynamicPoolEx@VCNullDecorator@NEffectUpdateDecorator@@@@A@@YAXXZ PROC ; `dynamic atexit destructor for 'CPooledObject<NEffectUpdateDecorator::CNullDecorator>::ms_kPool'', COMDAT
  00000	55		 push	 ebp
  00001	8b ec		 mov	 ebp, esp
  00003	b9 00 00 00 00	 mov	 ecx, OFFSET ?ms_kPool@?$CPooledObject@VCNullDecorator@NEffectUpdateDecorator@@@@1V?$CDynamicPoolEx@VCNullDecorator@NEffectUpdateDecorator@@@@A ; CPooledObject<NEffectUpdateDecorator::CNullDecorator>::ms_kPool
  00008	e8 00 00 00 00	 call	 ??1?$CDynamicPoolEx@VCNullDecorator@NEffectUpdateDecorator@@@@UAE@XZ ; CDynamicPoolEx<NEffectUpdateDecorator::CNullDecorator>::~CDynamicPoolEx<NEffectUpdateDecorator::CNullDecorator>
  0000d	5d		 pop	 ebp
  0000e	c3		 ret	 0
??__F?ms_kPool@?$CPooledObject@VCNullDecorator@NEffectUpdateDecorator@@@@1V?$CDynamicPoolEx@VCNullDecorator@NEffectUpdateDecorator@@@@A@@YAXXZ ENDP ; `dynamic atexit destructor for 'CPooledObject<NEffectUpdateDecorator::CNullDecorator>::ms_kPool''
text$yd	ENDS
; Function compile flags: /Odspy
; File D:\Metin2 Server Files\mainline\SRC_2014\Metin2Client\eterLib\Pool.h
;	COMDAT ??__E?ms_kPool@?$CPooledObject@VCNullDecorator@NEffectUpdateDecorator@@@@1V?$CDynamicPoolEx@VCNullDecorator@NEffectUpdateDecorator@@@@A@@YAXXZ
text$di	SEGMENT
??__E?ms_kPool@?$CPooledObject@VCNullDecorator@NEffectUpdateDecorator@@@@1V?$CDynamicPoolEx@VCNullDecorator@NEffectUpdateDecorator@@@@A@@YAXXZ PROC ; `dynamic initializer for 'CPooledObject<NEffectUpdateDecorator::CNullDecorator>::ms_kPool'', COMDAT

; 272  : template <class T> CDynamicPoolEx<T> CPooledObject<T>::ms_kPool;

  00000	55		 push	 ebp
  00001	8b ec		 mov	 ebp, esp
  00003	b9 00 00 00 00	 mov	 ecx, OFFSET ?ms_kPool@?$CPooledObject@VCNullDecorator@NEffectUpdateDecorator@@@@1V?$CDynamicPoolEx@VCNullDecorator@NEffectUpdateDecorator@@@@A ; CPooledObject<NEffectUpdateDecorator::CNullDecorator>::ms_kPool
  00008	e8 00 00 00 00	 call	 ??0?$CDynamicPoolEx@VCNullDecorator@NEffectUpdateDecorator@@@@QAE@XZ ; CDynamicPoolEx<NEffectUpdateDecorator::CNullDecorator>::CDynamicPoolEx<NEffectUpdateDecorator::CNullDecorator>
  0000d	68 00 00 00 00	 push	 OFFSET ??__F?ms_kPool@?$CPooledObject@VCNullDecorator@NEffectUpdateDecorator@@@@1V?$CDynamicPoolEx@VCNullDecorator@NEffectUpdateDecorator@@@@A@@YAXXZ ; `dynamic atexit destructor for 'CPooledObject<NEffectUpdateDecorator::CNullDecorator>::ms_kPool''
  00012	e8 00 00 00 00	 call	 _atexit
  00017	59		 pop	 ecx
  00018	5d		 pop	 ebp
  00019	c3		 ret	 0
??__E?ms_kPool@?$CPooledObject@VCNullDecorator@NEffectUpdateDecorator@@@@1V?$CDynamicPoolEx@VCNullDecorator@NEffectUpdateDecorator@@@@A@@YAXXZ ENDP ; `dynamic initializer for 'CPooledObject<NEffectUpdateDecorator::CNullDecorator>::ms_kPool''
text$di	ENDS
; Function compile flags: /Odspy
;	COMDAT ??__F?ms_kPool@?$CPooledObject@VCHeaderDecorator@NEffectUpdateDecorator@@@@1V?$CDynamicPoolEx@VCHeaderDecorator@NEffectUpdateDecorator@@@@A@@YAXXZ
text$yd	SEGMENT
??__F?ms_kPool@?$CPooledObject@VCHeaderDecorator@NEffectUpdateDecorator@@@@1V?$CDynamicPoolEx@VCHeaderDecorator@NEffectUpdateDecorator@@@@A@@YAXXZ PROC ; `dynamic atexit destructor for 'CPooledObject<NEffectUpdateDecorator::CHeaderDecorator>::ms_kPool'', COMDAT
  00000	55		 push	 ebp
  00001	8b ec		 mov	 ebp, esp
  00003	b9 00 00 00 00	 mov	 ecx, OFFSET ?ms_kPool@?$CPooledObject@VCHeaderDecorator@NEffectUpdateDecorator@@@@1V?$CDynamicPoolEx@VCHeaderDecorator@NEffectUpdateDecorator@@@@A ; CPooledObject<NEffectUpdateDecorator::CHeaderDecorator>::ms_kPool
  00008	e8 00 00 00 00	 call	 ??1?$CDynamicPoolEx@VCHeaderDecorator@NEffectUpdateDecorator@@@@UAE@XZ ; CDynamicPoolEx<NEffectUpdateDecorator::CHeaderDecorator>::~CDynamicPoolEx<NEffectUpdateDecorator::CHeaderDecorator>
  0000d	5d		 pop	 ebp
  0000e	c3		 ret	 0
??__F?ms_kPool@?$CPooledObject@VCHeaderDecorator@NEffectUpdateDecorator@@@@1V?$CDynamicPoolEx@VCHeaderDecorator@NEffectUpdateDecorator@@@@A@@YAXXZ ENDP ; `dynamic atexit destructor for 'CPooledObject<NEffectUpdateDecorator::CHeaderDecorator>::ms_kPool''
text$yd	ENDS
; Function compile flags: /Odspy
; File D:\Metin2 Server Files\mainline\SRC_2014\Metin2Client\eterLib\Pool.h
;	COMDAT ??__E?ms_kPool@?$CPooledObject@VCHeaderDecorator@NEffectUpdateDecorator@@@@1V?$CDynamicPoolEx@VCHeaderDecorator@NEffectUpdateDecorator@@@@A@@YAXXZ
text$di	SEGMENT
??__E?ms_kPool@?$CPooledObject@VCHeaderDecorator@NEffectUpdateDecorator@@@@1V?$CDynamicPoolEx@VCHeaderDecorator@NEffectUpdateDecorator@@@@A@@YAXXZ PROC ; `dynamic initializer for 'CPooledObject<NEffectUpdateDecorator::CHeaderDecorator>::ms_kPool'', COMDAT

; 272  : template <class T> CDynamicPoolEx<T> CPooledObject<T>::ms_kPool;

  00000	55		 push	 ebp
  00001	8b ec		 mov	 ebp, esp
  00003	b9 00 00 00 00	 mov	 ecx, OFFSET ?ms_kPool@?$CPooledObject@VCHeaderDecorator@NEffectUpdateDecorator@@@@1V?$CDynamicPoolEx@VCHeaderDecorator@NEffectUpdateDecorator@@@@A ; CPooledObject<NEffectUpdateDecorator::CHeaderDecorator>::ms_kPool
  00008	e8 00 00 00 00	 call	 ??0?$CDynamicPoolEx@VCHeaderDecorator@NEffectUpdateDecorator@@@@QAE@XZ ; CDynamicPoolEx<NEffectUpdateDecorator::CHeaderDecorator>::CDynamicPoolEx<NEffectUpdateDecorator::CHeaderDecorator>
  0000d	68 00 00 00 00	 push	 OFFSET ??__F?ms_kPool@?$CPooledObject@VCHeaderDecorator@NEffectUpdateDecorator@@@@1V?$CDynamicPoolEx@VCHeaderDecorator@NEffectUpdateDecorator@@@@A@@YAXXZ ; `dynamic atexit destructor for 'CPooledObject<NEffectUpdateDecorator::CHeaderDecorator>::ms_kPool''
  00012	e8 00 00 00 00	 call	 _atexit
  00017	59		 pop	 ecx
  00018	5d		 pop	 ebp
  00019	c3		 ret	 0
??__E?ms_kPool@?$CPooledObject@VCHeaderDecorator@NEffectUpdateDecorator@@@@1V?$CDynamicPoolEx@VCHeaderDecorator@NEffectUpdateDecorator@@@@A@@YAXXZ ENDP ; `dynamic initializer for 'CPooledObject<NEffectUpdateDecorator::CHeaderDecorator>::ms_kPool''
text$di	ENDS
; Function compile flags: /Odspy
; File C:\Program Files (x86)\Microsoft Visual Studio\2019\Community\VC\Tools\MSVC\14.28.29333\include\xmemory
;	COMDAT ??$_Destroy_range@V?$allocator@PAVCRotationDecorator@NEffectUpdateDecorator@@@std@@@std@@YAXPAPAVCRotationDecorator@NEffectUpdateDecorator@@QAPAV12@AAV?$allocator@PAVCRotationDecorator@NEffectUpdateDecorator@@@0@@Z
_TEXT	SEGMENT
__First$ = 8						; size = 4
__Last$ = 12						; size = 4
__Al$ = 16						; size = 4
??$_Destroy_range@V?$allocator@PAVCRotationDecorator@NEffectUpdateDecorator@@@std@@@std@@YAXPAPAVCRotationDecorator@NEffectUpdateDecorator@@QAPAV12@AAV?$allocator@PAVCRotationDecorator@NEffectUpdateDecorator@@@0@@Z PROC ; std::_Destroy_range<std::allocator<NEffectUpdateDecorator::CRotationDecorator *> >, COMDAT

; 962  :     _Alloc_ptr_t<_Alloc> _First, const _Alloc_ptr_t<_Alloc> _Last, _Alloc& _Al) noexcept {

  00000	55		 push	 ebp
  00001	8b ec		 mov	 ebp, esp

; 963  :     // note that this is an optimization for debug mode codegen; in release mode the BE removes all of this
; 964  :     using _Ty = typename _Alloc::value_type;
; 965  :     if _CONSTEXPR_IF (!conjunction_v<is_trivially_destructible<_Ty>, _Uses_default_destroy<_Alloc, _Ty*>>) {
; 966  :         for (; _First != _Last; ++_First) {
; 967  :             allocator_traits<_Alloc>::destroy(_Al, _Unfancy(_First));
; 968  :         }
; 969  :     }
; 970  : }

  00003	5d		 pop	 ebp
  00004	c3		 ret	 0
??$_Destroy_range@V?$allocator@PAVCRotationDecorator@NEffectUpdateDecorator@@@std@@@std@@YAXPAPAVCRotationDecorator@NEffectUpdateDecorator@@QAPAV12@AAV?$allocator@PAVCRotationDecorator@NEffectUpdateDecorator@@@0@@Z ENDP ; std::_Destroy_range<std::allocator<NEffectUpdateDecorator::CRotationDecorator *> >
_TEXT	ENDS
; Function compile flags: /Odspy
; File C:\Program Files (x86)\Microsoft Visual Studio\2019\Community\VC\Tools\MSVC\14.28.29333\include\xmemory
;	COMDAT ??$_Destroy_range@V?$allocator@PAVCGravityDecorator@NEffectUpdateDecorator@@@std@@@std@@YAXPAPAVCGravityDecorator@NEffectUpdateDecorator@@QAPAV12@AAV?$allocator@PAVCGravityDecorator@NEffectUpdateDecorator@@@0@@Z
_TEXT	SEGMENT
__First$ = 8						; size = 4
__Last$ = 12						; size = 4
__Al$ = 16						; size = 4
??$_Destroy_range@V?$allocator@PAVCGravityDecorator@NEffectUpdateDecorator@@@std@@@std@@YAXPAPAVCGravityDecorator@NEffectUpdateDecorator@@QAPAV12@AAV?$allocator@PAVCGravityDecorator@NEffectUpdateDecorator@@@0@@Z PROC ; std::_Destroy_range<std::allocator<NEffectUpdateDecorator::CGravityDecorator *> >, COMDAT

; 962  :     _Alloc_ptr_t<_Alloc> _First, const _Alloc_ptr_t<_Alloc> _Last, _Alloc& _Al) noexcept {

  00000	55		 push	 ebp
  00001	8b ec		 mov	 ebp, esp

; 963  :     // note that this is an optimization for debug mode codegen; in release mode the BE removes all of this
; 964  :     using _Ty = typename _Alloc::value_type;
; 965  :     if _CONSTEXPR_IF (!conjunction_v<is_trivially_destructible<_Ty>, _Uses_default_destroy<_Alloc, _Ty*>>) {
; 966  :         for (; _First != _Last; ++_First) {
; 967  :             allocator_traits<_Alloc>::destroy(_Al, _Unfancy(_First));
; 968  :         }
; 969  :     }
; 970  : }

  00003	5d		 pop	 ebp
  00004	c3		 ret	 0
??$_Destroy_range@V?$allocator@PAVCGravityDecorator@NEffectUpdateDecorator@@@std@@@std@@YAXPAPAVCGravityDecorator@NEffectUpdateDecorator@@QAPAV12@AAV?$allocator@PAVCGravityDecorator@NEffectUpdateDecorator@@@0@@Z ENDP ; std::_Destroy_range<std::allocator<NEffectUpdateDecorator::CGravityDecorator *> >
_TEXT	ENDS
; Function compile flags: /Odspy
; File C:\Program Files (x86)\Microsoft Visual Studio\2019\Community\VC\Tools\MSVC\14.28.29333\include\xmemory
;	COMDAT ??$_Destroy_range@V?$allocator@PAVCAirResistanceDecorator@NEffectUpdateDecorator@@@std@@@std@@YAXPAPAVCAirResistanceDecorator@NEffectUpdateDecorator@@QAPAV12@AAV?$allocator@PAVCAirResistanceDecorator@NEffectUpdateDecorator@@@0@@Z
_TEXT	SEGMENT
__First$ = 8						; size = 4
__Last$ = 12						; size = 4
__Al$ = 16						; size = 4
??$_Destroy_range@V?$allocator@PAVCAirResistanceDecorator@NEffectUpdateDecorator@@@std@@@std@@YAXPAPAVCAirResistanceDecorator@NEffectUpdateDecorator@@QAPAV12@AAV?$allocator@PAVCAirResistanceDecorator@NEffectUpdateDecorator@@@0@@Z PROC ; std::_Destroy_range<std::allocator<NEffectUpdateDecorator::CAirResistanceDecorator *> >, COMDAT

; 962  :     _Alloc_ptr_t<_Alloc> _First, const _Alloc_ptr_t<_Alloc> _Last, _Alloc& _Al) noexcept {

  00000	55		 push	 ebp
  00001	8b ec		 mov	 ebp, esp

; 963  :     // note that this is an optimization for debug mode codegen; in release mode the BE removes all of this
; 964  :     using _Ty = typename _Alloc::value_type;
; 965  :     if _CONSTEXPR_IF (!conjunction_v<is_trivially_destructible<_Ty>, _Uses_default_destroy<_Alloc, _Ty*>>) {
; 966  :         for (; _First != _Last; ++_First) {
; 967  :             allocator_traits<_Alloc>::destroy(_Al, _Unfancy(_First));
; 968  :         }
; 969  :     }
; 970  : }

  00003	5d		 pop	 ebp
  00004	c3		 ret	 0
??$_Destroy_range@V?$allocator@PAVCAirResistanceDecorator@NEffectUpdateDecorator@@@std@@@std@@YAXPAPAVCAirResistanceDecorator@NEffectUpdateDecorator@@QAPAV12@AAV?$allocator@PAVCAirResistanceDecorator@NEffectUpdateDecorator@@@0@@Z ENDP ; std::_Destroy_range<std::allocator<NEffectUpdateDecorator::CAirResistanceDecorator *> >
_TEXT	ENDS
; Function compile flags: /Odspy
; File C:\Program Files (x86)\Microsoft Visual Studio\2019\Community\VC\Tools\MSVC\14.28.29333\include\xmemory
;	COMDAT ??$_Destroy_range@V?$allocator@PAVCTextureAnimationRandomDecorator@NEffectUpdateDecorator@@@std@@@std@@YAXPAPAVCTextureAnimationRandomDecorator@NEffectUpdateDecorator@@QAPAV12@AAV?$allocator@PAVCTextureAnimationRandomDecorator@NEffectUpdateDecorator@@@0@@Z
_TEXT	SEGMENT
__First$ = 8						; size = 4
__Last$ = 12						; size = 4
__Al$ = 16						; size = 4
??$_Destroy_range@V?$allocator@PAVCTextureAnimationRandomDecorator@NEffectUpdateDecorator@@@std@@@std@@YAXPAPAVCTextureAnimationRandomDecorator@NEffectUpdateDecorator@@QAPAV12@AAV?$allocator@PAVCTextureAnimationRandomDecorator@NEffectUpdateDecorator@@@0@@Z PROC ; std::_Destroy_range<std::allocator<NEffectUpdateDecorator::CTextureAnimationRandomDecorator *> >, COMDAT

; 962  :     _Alloc_ptr_t<_Alloc> _First, const _Alloc_ptr_t<_Alloc> _Last, _Alloc& _Al) noexcept {

  00000	55		 push	 ebp
  00001	8b ec		 mov	 ebp, esp

; 963  :     // note that this is an optimization for debug mode codegen; in release mode the BE removes all of this
; 964  :     using _Ty = typename _Alloc::value_type;
; 965  :     if _CONSTEXPR_IF (!conjunction_v<is_trivially_destructible<_Ty>, _Uses_default_destroy<_Alloc, _Ty*>>) {
; 966  :         for (; _First != _Last; ++_First) {
; 967  :             allocator_traits<_Alloc>::destroy(_Al, _Unfancy(_First));
; 968  :         }
; 969  :     }
; 970  : }

  00003	5d		 pop	 ebp
  00004	c3		 ret	 0
??$_Destroy_range@V?$allocator@PAVCTextureAnimationRandomDecorator@NEffectUpdateDecorator@@@std@@@std@@YAXPAPAVCTextureAnimationRandomDecorator@NEffectUpdateDecorator@@QAPAV12@AAV?$allocator@PAVCTextureAnimationRandomDecorator@NEffectUpdateDecorator@@@0@@Z ENDP ; std::_Destroy_range<std::allocator<NEffectUpdateDecorator::CTextureAnimationRandomDecorator *> >
_TEXT	ENDS
; Function compile flags: /Odspy
; File C:\Program Files (x86)\Microsoft Visual Studio\2019\Community\VC\Tools\MSVC\14.28.29333\include\xmemory
;	COMDAT ??$_Destroy_range@V?$allocator@PAVCTextureAnimationCCWDecorator@NEffectUpdateDecorator@@@std@@@std@@YAXPAPAVCTextureAnimationCCWDecorator@NEffectUpdateDecorator@@QAPAV12@AAV?$allocator@PAVCTextureAnimationCCWDecorator@NEffectUpdateDecorator@@@0@@Z
_TEXT	SEGMENT
__First$ = 8						; size = 4
__Last$ = 12						; size = 4
__Al$ = 16						; size = 4
??$_Destroy_range@V?$allocator@PAVCTextureAnimationCCWDecorator@NEffectUpdateDecorator@@@std@@@std@@YAXPAPAVCTextureAnimationCCWDecorator@NEffectUpdateDecorator@@QAPAV12@AAV?$allocator@PAVCTextureAnimationCCWDecorator@NEffectUpdateDecorator@@@0@@Z PROC ; std::_Destroy_range<std::allocator<NEffectUpdateDecorator::CTextureAnimationCCWDecorator *> >, COMDAT

; 962  :     _Alloc_ptr_t<_Alloc> _First, const _Alloc_ptr_t<_Alloc> _Last, _Alloc& _Al) noexcept {

  00000	55		 push	 ebp
  00001	8b ec		 mov	 ebp, esp

; 963  :     // note that this is an optimization for debug mode codegen; in release mode the BE removes all of this
; 964  :     using _Ty = typename _Alloc::value_type;
; 965  :     if _CONSTEXPR_IF (!conjunction_v<is_trivially_destructible<_Ty>, _Uses_default_destroy<_Alloc, _Ty*>>) {
; 966  :         for (; _First != _Last; ++_First) {
; 967  :             allocator_traits<_Alloc>::destroy(_Al, _Unfancy(_First));
; 968  :         }
; 969  :     }
; 970  : }

  00003	5d		 pop	 ebp
  00004	c3		 ret	 0
??$_Destroy_range@V?$allocator@PAVCTextureAnimationCCWDecorator@NEffectUpdateDecorator@@@std@@@std@@YAXPAPAVCTextureAnimationCCWDecorator@NEffectUpdateDecorator@@QAPAV12@AAV?$allocator@PAVCTextureAnimationCCWDecorator@NEffectUpdateDecorator@@@0@@Z ENDP ; std::_Destroy_range<std::allocator<NEffectUpdateDecorator::CTextureAnimationCCWDecorator *> >
_TEXT	ENDS
; Function compile flags: /Odspy
; File C:\Program Files (x86)\Microsoft Visual Studio\2019\Community\VC\Tools\MSVC\14.28.29333\include\xmemory
;	COMDAT ??$_Destroy_range@V?$allocator@PAVCTextureAnimationCWDecorator@NEffectUpdateDecorator@@@std@@@std@@YAXPAPAVCTextureAnimationCWDecorator@NEffectUpdateDecorator@@QAPAV12@AAV?$allocator@PAVCTextureAnimationCWDecorator@NEffectUpdateDecorator@@@0@@Z
_TEXT	SEGMENT
__First$ = 8						; size = 4
__Last$ = 12						; size = 4
__Al$ = 16						; size = 4
??$_Destroy_range@V?$allocator@PAVCTextureAnimationCWDecorator@NEffectUpdateDecorator@@@std@@@std@@YAXPAPAVCTextureAnimationCWDecorator@NEffectUpdateDecorator@@QAPAV12@AAV?$allocator@PAVCTextureAnimationCWDecorator@NEffectUpdateDecorator@@@0@@Z PROC ; std::_Destroy_range<std::allocator<NEffectUpdateDecorator::CTextureAnimationCWDecorator *> >, COMDAT

; 962  :     _Alloc_ptr_t<_Alloc> _First, const _Alloc_ptr_t<_Alloc> _Last, _Alloc& _Al) noexcept {

  00000	55		 push	 ebp
  00001	8b ec		 mov	 ebp, esp

; 963  :     // note that this is an optimization for debug mode codegen; in release mode the BE removes all of this
; 964  :     using _Ty = typename _Alloc::value_type;
; 965  :     if _CONSTEXPR_IF (!conjunction_v<is_trivially_destructible<_Ty>, _Uses_default_destroy<_Alloc, _Ty*>>) {
; 966  :         for (; _First != _Last; ++_First) {
; 967  :             allocator_traits<_Alloc>::destroy(_Al, _Unfancy(_First));
; 968  :         }
; 969  :     }
; 970  : }

  00003	5d		 pop	 ebp
  00004	c3		 ret	 0
??$_Destroy_range@V?$allocator@PAVCTextureAnimationCWDecorator@NEffectUpdateDecorator@@@std@@@std@@YAXPAPAVCTextureAnimationCWDecorator@NEffectUpdateDecorator@@QAPAV12@AAV?$allocator@PAVCTextureAnimationCWDecorator@NEffectUpdateDecorator@@@0@@Z ENDP ; std::_Destroy_range<std::allocator<NEffectUpdateDecorator::CTextureAnimationCWDecorator *> >
_TEXT	ENDS
; Function compile flags: /Odspy
; File C:\Program Files (x86)\Microsoft Visual Studio\2019\Community\VC\Tools\MSVC\14.28.29333\include\xmemory
;	COMDAT ??$_Destroy_range@V?$allocator@PAVCNullDecorator@NEffectUpdateDecorator@@@std@@@std@@YAXPAPAVCNullDecorator@NEffectUpdateDecorator@@QAPAV12@AAV?$allocator@PAVCNullDecorator@NEffectUpdateDecorator@@@0@@Z
_TEXT	SEGMENT
__First$ = 8						; size = 4
__Last$ = 12						; size = 4
__Al$ = 16						; size = 4
??$_Destroy_range@V?$allocator@PAVCNullDecorator@NEffectUpdateDecorator@@@std@@@std@@YAXPAPAVCNullDecorator@NEffectUpdateDecorator@@QAPAV12@AAV?$allocator@PAVCNullDecorator@NEffectUpdateDecorator@@@0@@Z PROC ; std::_Destroy_range<std::allocator<NEffectUpdateDecorator::CNullDecorator *> >, COMDAT

; 962  :     _Alloc_ptr_t<_Alloc> _First, const _Alloc_ptr_t<_Alloc> _Last, _Alloc& _Al) noexcept {

  00000	55		 push	 ebp
  00001	8b ec		 mov	 ebp, esp

; 963  :     // note that this is an optimization for debug mode codegen; in release mode the BE removes all of this
; 964  :     using _Ty = typename _Alloc::value_type;
; 965  :     if _CONSTEXPR_IF (!conjunction_v<is_trivially_destructible<_Ty>, _Uses_default_destroy<_Alloc, _Ty*>>) {
; 966  :         for (; _First != _Last; ++_First) {
; 967  :             allocator_traits<_Alloc>::destroy(_Al, _Unfancy(_First));
; 968  :         }
; 969  :     }
; 970  : }

  00003	5d		 pop	 ebp
  00004	c3		 ret	 0
??$_Destroy_range@V?$allocator@PAVCNullDecorator@NEffectUpdateDecorator@@@std@@@std@@YAXPAPAVCNullDecorator@NEffectUpdateDecorator@@QAPAV12@AAV?$allocator@PAVCNullDecorator@NEffectUpdateDecorator@@@0@@Z ENDP ; std::_Destroy_range<std::allocator<NEffectUpdateDecorator::CNullDecorator *> >
_TEXT	ENDS
; Function compile flags: /Odspy
; File C:\Program Files (x86)\Microsoft Visual Studio\2019\Community\VC\Tools\MSVC\14.28.29333\include\xmemory
;	COMDAT ??$_Destroy_range@V?$allocator@PAVCHeaderDecorator@NEffectUpdateDecorator@@@std@@@std@@YAXPAPAVCHeaderDecorator@NEffectUpdateDecorator@@QAPAV12@AAV?$allocator@PAVCHeaderDecorator@NEffectUpdateDecorator@@@0@@Z
_TEXT	SEGMENT
__First$ = 8						; size = 4
__Last$ = 12						; size = 4
__Al$ = 16						; size = 4
??$_Destroy_range@V?$allocator@PAVCHeaderDecorator@NEffectUpdateDecorator@@@std@@@std@@YAXPAPAVCHeaderDecorator@NEffectUpdateDecorator@@QAPAV12@AAV?$allocator@PAVCHeaderDecorator@NEffectUpdateDecorator@@@0@@Z PROC ; std::_Destroy_range<std::allocator<NEffectUpdateDecorator::CHeaderDecorator *> >, COMDAT

; 962  :     _Alloc_ptr_t<_Alloc> _First, const _Alloc_ptr_t<_Alloc> _Last, _Alloc& _Al) noexcept {

  00000	55		 push	 ebp
  00001	8b ec		 mov	 ebp, esp

; 963  :     // note that this is an optimization for debug mode codegen; in release mode the BE removes all of this
; 964  :     using _Ty = typename _Alloc::value_type;
; 965  :     if _CONSTEXPR_IF (!conjunction_v<is_trivially_destructible<_Ty>, _Uses_default_destroy<_Alloc, _Ty*>>) {
; 966  :         for (; _First != _Last; ++_First) {
; 967  :             allocator_traits<_Alloc>::destroy(_Al, _Unfancy(_First));
; 968  :         }
; 969  :     }
; 970  : }

  00003	5d		 pop	 ebp
  00004	c3		 ret	 0
??$_Destroy_range@V?$allocator@PAVCHeaderDecorator@NEffectUpdateDecorator@@@std@@@std@@YAXPAPAVCHeaderDecorator@NEffectUpdateDecorator@@QAPAV12@AAV?$allocator@PAVCHeaderDecorator@NEffectUpdateDecorator@@@0@@Z ENDP ; std::_Destroy_range<std::allocator<NEffectUpdateDecorator::CHeaderDecorator *> >
_TEXT	ENDS
; Function compile flags: /Odspy
; File C:\Program Files (x86)\Microsoft Visual Studio\2019\Community\VC\Tools\MSVC\14.28.29333\include\algorithm
; File C:\Program Files (x86)\Microsoft Visual Studio\2019\Community\VC\Tools\MSVC\14.28.29333\include\vector
; File C:\Program Files (x86)\Microsoft Visual Studio\2019\Community\VC\Tools\MSVC\14.28.29333\include\xstddef
; File C:\Program Files (x86)\Microsoft Visual Studio\2019\Community\VC\Tools\MSVC\14.28.29333\include\vector
; File C:\Program Files (x86)\Microsoft Visual Studio\2019\Community\VC\Tools\MSVC\14.28.29333\include\algorithm
; File C:\Program Files (x86)\Microsoft Visual Studio\2019\Community\VC\Tools\MSVC\14.28.29333\include\vector
; File C:\Program Files (x86)\Microsoft Visual Studio\2019\Community\VC\Tools\MSVC\14.28.29333\include\xstddef
; File C:\Program Files (x86)\Microsoft Visual Studio\2019\Community\VC\Tools\MSVC\14.28.29333\include\vector
; File C:\Program Files (x86)\Microsoft Visual Studio\2019\Community\VC\Tools\MSVC\14.28.29333\include\algorithm
;	COMDAT ??$for_each@V?$_Vector_iterator@V?$_Vector_val@U?$_Simple_types@PAVCRotationDecorator@NEffectUpdateDecorator@@@std@@@std@@@std@@P6AXPAVCRotationDecorator@NEffectUpdateDecorator@@@Z@std@@YAP6AXPAVCRotationDecorator@NEffectUpdateDecorator@@@ZV?$_Vector_iterator@V?$_Vector_val@U?$_Simple_types@PAVCRotationDecorator@NEffectUpdateDecorator@@@std@@@std@@@0@1P6AX0@Z@Z
_TEXT	SEGMENT
__ULast$ = -32						; size = 4
$T1 = -28						; size = 4
$T2 = -24						; size = 4
__Ptr$3 = -20						; size = 4
$T4 = -16						; size = 4
$T5 = -12						; size = 4
__Ptr$6 = -8						; size = 4
__UFirst$ = -4						; size = 4
__First$ = 8						; size = 4
__Last$ = 12						; size = 4
__Func$ = 16						; size = 4
??$for_each@V?$_Vector_iterator@V?$_Vector_val@U?$_Simple_types@PAVCRotationDecorator@NEffectUpdateDecorator@@@std@@@std@@@std@@P6AXPAVCRotationDecorator@NEffectUpdateDecorator@@@Z@std@@YAP6AXPAVCRotationDecorator@NEffectUpdateDecorator@@@ZV?$_Vector_iterator@V?$_Vector_val@U?$_Simple_types@PAVCRotationDecorator@NEffectUpdateDecorator@@@std@@@std@@@0@1P6AX0@Z@Z PROC ; std::for_each<std::_Vector_iterator<std::_Vector_val<std::_Simple_types<NEffectUpdateDecorator::CRotationDecorator *> > >,void (__cdecl*)(NEffectUpdateDecorator::CRotationDecorator *)>, COMDAT

; 303  : _CONSTEXPR20 _Fn for_each(_InIt _First, _InIt _Last, _Fn _Func) { // perform function for each element [_First, _Last)

  00000	55		 push	 ebp
  00001	8b ec		 mov	 ebp, esp
  00003	83 ec 20	 sub	 esp, 32			; 00000020H
; File C:\Program Files (x86)\Microsoft Visual Studio\2019\Community\VC\Tools\MSVC\14.28.29333\include\vector

; 310  :         return _Unfancy(this->_Ptr);

  00006	8b 45 08	 mov	 eax, DWORD PTR __First$[ebp]
  00009	89 45 f8	 mov	 DWORD PTR __Ptr$6[ebp], eax
; File C:\Program Files (x86)\Microsoft Visual Studio\2019\Community\VC\Tools\MSVC\14.28.29333\include\xstddef

; 289  :     return _Ptr;

  0000c	8b 45 f8	 mov	 eax, DWORD PTR __Ptr$6[ebp]
  0000f	89 45 f4	 mov	 DWORD PTR $T5[ebp], eax
; File C:\Program Files (x86)\Microsoft Visual Studio\2019\Community\VC\Tools\MSVC\14.28.29333\include\vector

; 310  :         return _Unfancy(this->_Ptr);

  00012	8b 45 f4	 mov	 eax, DWORD PTR $T5[ebp]
  00015	89 45 f0	 mov	 DWORD PTR $T4[ebp], eax
; File C:\Program Files (x86)\Microsoft Visual Studio\2019\Community\VC\Tools\MSVC\14.28.29333\include\algorithm

; 305  :     auto _UFirst      = _Get_unwrapped(_First);

  00018	8b 45 f0	 mov	 eax, DWORD PTR $T4[ebp]
  0001b	89 45 fc	 mov	 DWORD PTR __UFirst$[ebp], eax
; File C:\Program Files (x86)\Microsoft Visual Studio\2019\Community\VC\Tools\MSVC\14.28.29333\include\vector

; 310  :         return _Unfancy(this->_Ptr);

  0001e	8b 45 0c	 mov	 eax, DWORD PTR __Last$[ebp]
  00021	89 45 ec	 mov	 DWORD PTR __Ptr$3[ebp], eax
; File C:\Program Files (x86)\Microsoft Visual Studio\2019\Community\VC\Tools\MSVC\14.28.29333\include\xstddef

; 289  :     return _Ptr;

  00024	8b 45 ec	 mov	 eax, DWORD PTR __Ptr$3[ebp]
  00027	89 45 e8	 mov	 DWORD PTR $T2[ebp], eax
; File C:\Program Files (x86)\Microsoft Visual Studio\2019\Community\VC\Tools\MSVC\14.28.29333\include\vector

; 310  :         return _Unfancy(this->_Ptr);

  0002a	8b 45 e8	 mov	 eax, DWORD PTR $T2[ebp]
  0002d	89 45 e4	 mov	 DWORD PTR $T1[ebp], eax
; File C:\Program Files (x86)\Microsoft Visual Studio\2019\Community\VC\Tools\MSVC\14.28.29333\include\algorithm

; 306  :     const auto _ULast = _Get_unwrapped(_Last);

  00030	8b 45 e4	 mov	 eax, DWORD PTR $T1[ebp]
  00033	89 45 e0	 mov	 DWORD PTR __ULast$[ebp], eax

; 307  :     for (; _UFirst != _ULast; ++_UFirst) {

  00036	eb 09		 jmp	 SHORT $LN4@for_each
$LN2@for_each:
  00038	8b 45 fc	 mov	 eax, DWORD PTR __UFirst$[ebp]
  0003b	83 c0 04	 add	 eax, 4
  0003e	89 45 fc	 mov	 DWORD PTR __UFirst$[ebp], eax
$LN4@for_each:
  00041	8b 45 fc	 mov	 eax, DWORD PTR __UFirst$[ebp]
  00044	3b 45 e0	 cmp	 eax, DWORD PTR __ULast$[ebp]
  00047	74 0b		 je	 SHORT $LN3@for_each

; 308  :         _Func(*_UFirst);

  00049	8b 45 fc	 mov	 eax, DWORD PTR __UFirst$[ebp]
  0004c	ff 30		 push	 DWORD PTR [eax]
  0004e	ff 55 10	 call	 DWORD PTR __Func$[ebp]
  00051	59		 pop	 ecx

; 309  :     }

  00052	eb e4		 jmp	 SHORT $LN2@for_each
$LN3@for_each:

; 310  : 
; 311  :     return _Func;

  00054	8b 45 10	 mov	 eax, DWORD PTR __Func$[ebp]

; 312  : }

  00057	c9		 leave
  00058	c3		 ret	 0
??$for_each@V?$_Vector_iterator@V?$_Vector_val@U?$_Simple_types@PAVCRotationDecorator@NEffectUpdateDecorator@@@std@@@std@@@std@@P6AXPAVCRotationDecorator@NEffectUpdateDecorator@@@Z@std@@YAP6AXPAVCRotationDecorator@NEffectUpdateDecorator@@@ZV?$_Vector_iterator@V?$_Vector_val@U?$_Simple_types@PAVCRotationDecorator@NEffectUpdateDecorator@@@std@@@std@@@0@1P6AX0@Z@Z ENDP ; std::for_each<std::_Vector_iterator<std::_Vector_val<std::_Simple_types<NEffectUpdateDecorator::CRotationDecorator *> > >,void (__cdecl*)(NEffectUpdateDecorator::CRotationDecorator *)>
_TEXT	ENDS
; Function compile flags: /Odspy
; File C:\Program Files (x86)\Microsoft Visual Studio\2019\Community\VC\Tools\MSVC\14.28.29333\include\algorithm
; File C:\Program Files (x86)\Microsoft Visual Studio\2019\Community\VC\Tools\MSVC\14.28.29333\include\vector
; File C:\Program Files (x86)\Microsoft Visual Studio\2019\Community\VC\Tools\MSVC\14.28.29333\include\xstddef
; File C:\Program Files (x86)\Microsoft Visual Studio\2019\Community\VC\Tools\MSVC\14.28.29333\include\vector
; File C:\Program Files (x86)\Microsoft Visual Studio\2019\Community\VC\Tools\MSVC\14.28.29333\include\algorithm
; File C:\Program Files (x86)\Microsoft Visual Studio\2019\Community\VC\Tools\MSVC\14.28.29333\include\vector
; File C:\Program Files (x86)\Microsoft Visual Studio\2019\Community\VC\Tools\MSVC\14.28.29333\include\xstddef
; File C:\Program Files (x86)\Microsoft Visual Studio\2019\Community\VC\Tools\MSVC\14.28.29333\include\vector
; File C:\Program Files (x86)\Microsoft Visual Studio\2019\Community\VC\Tools\MSVC\14.28.29333\include\algorithm
;	COMDAT ??$for_each@V?$_Vector_iterator@V?$_Vector_val@U?$_Simple_types@PAVCGravityDecorator@NEffectUpdateDecorator@@@std@@@std@@@std@@P6AXPAVCGravityDecorator@NEffectUpdateDecorator@@@Z@std@@YAP6AXPAVCGravityDecorator@NEffectUpdateDecorator@@@ZV?$_Vector_iterator@V?$_Vector_val@U?$_Simple_types@PAVCGravityDecorator@NEffectUpdateDecorator@@@std@@@std@@@0@1P6AX0@Z@Z
_TEXT	SEGMENT
__ULast$ = -32						; size = 4
$T1 = -28						; size = 4
$T2 = -24						; size = 4
__Ptr$3 = -20						; size = 4
$T4 = -16						; size = 4
$T5 = -12						; size = 4
__Ptr$6 = -8						; size = 4
__UFirst$ = -4						; size = 4
__First$ = 8						; size = 4
__Last$ = 12						; size = 4
__Func$ = 16						; size = 4
??$for_each@V?$_Vector_iterator@V?$_Vector_val@U?$_Simple_types@PAVCGravityDecorator@NEffectUpdateDecorator@@@std@@@std@@@std@@P6AXPAVCGravityDecorator@NEffectUpdateDecorator@@@Z@std@@YAP6AXPAVCGravityDecorator@NEffectUpdateDecorator@@@ZV?$_Vector_iterator@V?$_Vector_val@U?$_Simple_types@PAVCGravityDecorator@NEffectUpdateDecorator@@@std@@@std@@@0@1P6AX0@Z@Z PROC ; std::for_each<std::_Vector_iterator<std::_Vector_val<std::_Simple_types<NEffectUpdateDecorator::CGravityDecorator *> > >,void (__cdecl*)(NEffectUpdateDecorator::CGravityDecorator *)>, COMDAT

; 303  : _CONSTEXPR20 _Fn for_each(_InIt _First, _InIt _Last, _Fn _Func) { // perform function for each element [_First, _Last)

  00000	55		 push	 ebp
  00001	8b ec		 mov	 ebp, esp
  00003	83 ec 20	 sub	 esp, 32			; 00000020H
; File C:\Program Files (x86)\Microsoft Visual Studio\2019\Community\VC\Tools\MSVC\14.28.29333\include\vector

; 310  :         return _Unfancy(this->_Ptr);

  00006	8b 45 08	 mov	 eax, DWORD PTR __First$[ebp]
  00009	89 45 f8	 mov	 DWORD PTR __Ptr$6[ebp], eax
; File C:\Program Files (x86)\Microsoft Visual Studio\2019\Community\VC\Tools\MSVC\14.28.29333\include\xstddef

; 289  :     return _Ptr;

  0000c	8b 45 f8	 mov	 eax, DWORD PTR __Ptr$6[ebp]
  0000f	89 45 f4	 mov	 DWORD PTR $T5[ebp], eax
; File C:\Program Files (x86)\Microsoft Visual Studio\2019\Community\VC\Tools\MSVC\14.28.29333\include\vector

; 310  :         return _Unfancy(this->_Ptr);

  00012	8b 45 f4	 mov	 eax, DWORD PTR $T5[ebp]
  00015	89 45 f0	 mov	 DWORD PTR $T4[ebp], eax
; File C:\Program Files (x86)\Microsoft Visual Studio\2019\Community\VC\Tools\MSVC\14.28.29333\include\algorithm

; 305  :     auto _UFirst      = _Get_unwrapped(_First);

  00018	8b 45 f0	 mov	 eax, DWORD PTR $T4[ebp]
  0001b	89 45 fc	 mov	 DWORD PTR __UFirst$[ebp], eax
; File C:\Program Files (x86)\Microsoft Visual Studio\2019\Community\VC\Tools\MSVC\14.28.29333\include\vector

; 310  :         return _Unfancy(this->_Ptr);

  0001e	8b 45 0c	 mov	 eax, DWORD PTR __Last$[ebp]
  00021	89 45 ec	 mov	 DWORD PTR __Ptr$3[ebp], eax
; File C:\Program Files (x86)\Microsoft Visual Studio\2019\Community\VC\Tools\MSVC\14.28.29333\include\xstddef

; 289  :     return _Ptr;

  00024	8b 45 ec	 mov	 eax, DWORD PTR __Ptr$3[ebp]
  00027	89 45 e8	 mov	 DWORD PTR $T2[ebp], eax
; File C:\Program Files (x86)\Microsoft Visual Studio\2019\Community\VC\Tools\MSVC\14.28.29333\include\vector

; 310  :         return _Unfancy(this->_Ptr);

  0002a	8b 45 e8	 mov	 eax, DWORD PTR $T2[ebp]
  0002d	89 45 e4	 mov	 DWORD PTR $T1[ebp], eax
; File C:\Program Files (x86)\Microsoft Visual Studio\2019\Community\VC\Tools\MSVC\14.28.29333\include\algorithm

; 306  :     const auto _ULast = _Get_unwrapped(_Last);

  00030	8b 45 e4	 mov	 eax, DWORD PTR $T1[ebp]
  00033	89 45 e0	 mov	 DWORD PTR __ULast$[ebp], eax

; 307  :     for (; _UFirst != _ULast; ++_UFirst) {

  00036	eb 09		 jmp	 SHORT $LN4@for_each
$LN2@for_each:
  00038	8b 45 fc	 mov	 eax, DWORD PTR __UFirst$[ebp]
  0003b	83 c0 04	 add	 eax, 4
  0003e	89 45 fc	 mov	 DWORD PTR __UFirst$[ebp], eax
$LN4@for_each:
  00041	8b 45 fc	 mov	 eax, DWORD PTR __UFirst$[ebp]
  00044	3b 45 e0	 cmp	 eax, DWORD PTR __ULast$[ebp]
  00047	74 0b		 je	 SHORT $LN3@for_each

; 308  :         _Func(*_UFirst);

  00049	8b 45 fc	 mov	 eax, DWORD PTR __UFirst$[ebp]
  0004c	ff 30		 push	 DWORD PTR [eax]
  0004e	ff 55 10	 call	 DWORD PTR __Func$[ebp]
  00051	59		 pop	 ecx

; 309  :     }

  00052	eb e4		 jmp	 SHORT $LN2@for_each
$LN3@for_each:

; 310  : 
; 311  :     return _Func;

  00054	8b 45 10	 mov	 eax, DWORD PTR __Func$[ebp]

; 312  : }

  00057	c9		 leave
  00058	c3		 ret	 0
??$for_each@V?$_Vector_iterator@V?$_Vector_val@U?$_Simple_types@PAVCGravityDecorator@NEffectUpdateDecorator@@@std@@@std@@@std@@P6AXPAVCGravityDecorator@NEffectUpdateDecorator@@@Z@std@@YAP6AXPAVCGravityDecorator@NEffectUpdateDecorator@@@ZV?$_Vector_iterator@V?$_Vector_val@U?$_Simple_types@PAVCGravityDecorator@NEffectUpdateDecorator@@@std@@@std@@@0@1P6AX0@Z@Z ENDP ; std::for_each<std::_Vector_iterator<std::_Vector_val<std::_Simple_types<NEffectUpdateDecorator::CGravityDecorator *> > >,void (__cdecl*)(NEffectUpdateDecorator::CGravityDecorator *)>
_TEXT	ENDS
; Function compile flags: /Odspy
; File C:\Program Files (x86)\Microsoft Visual Studio\2019\Community\VC\Tools\MSVC\14.28.29333\include\algorithm
; File C:\Program Files (x86)\Microsoft Visual Studio\2019\Community\VC\Tools\MSVC\14.28.29333\include\vector
; File C:\Program Files (x86)\Microsoft Visual Studio\2019\Community\VC\Tools\MSVC\14.28.29333\include\xstddef
; File C:\Program Files (x86)\Microsoft Visual Studio\2019\Community\VC\Tools\MSVC\14.28.29333\include\vector
; File C:\Program Files (x86)\Microsoft Visual Studio\2019\Community\VC\Tools\MSVC\14.28.29333\include\algorithm
; File C:\Program Files (x86)\Microsoft Visual Studio\2019\Community\VC\Tools\MSVC\14.28.29333\include\vector
; File C:\Program Files (x86)\Microsoft Visual Studio\2019\Community\VC\Tools\MSVC\14.28.29333\include\xstddef
; File C:\Program Files (x86)\Microsoft Visual Studio\2019\Community\VC\Tools\MSVC\14.28.29333\include\vector
; File C:\Program Files (x86)\Microsoft Visual Studio\2019\Community\VC\Tools\MSVC\14.28.29333\include\algorithm
;	COMDAT ??$for_each@V?$_Vector_iterator@V?$_Vector_val@U?$_Simple_types@PAVCAirResistanceDecorator@NEffectUpdateDecorator@@@std@@@std@@@std@@P6AXPAVCAirResistanceDecorator@NEffectUpdateDecorator@@@Z@std@@YAP6AXPAVCAirResistanceDecorator@NEffectUpdateDecorator@@@ZV?$_Vector_iterator@V?$_Vector_val@U?$_Simple_types@PAVCAirResistanceDecorator@NEffectUpdateDecorator@@@std@@@std@@@0@1P6AX0@Z@Z
_TEXT	SEGMENT
__ULast$ = -32						; size = 4
$T1 = -28						; size = 4
$T2 = -24						; size = 4
__Ptr$3 = -20						; size = 4
$T4 = -16						; size = 4
$T5 = -12						; size = 4
__Ptr$6 = -8						; size = 4
__UFirst$ = -4						; size = 4
__First$ = 8						; size = 4
__Last$ = 12						; size = 4
__Func$ = 16						; size = 4
??$for_each@V?$_Vector_iterator@V?$_Vector_val@U?$_Simple_types@PAVCAirResistanceDecorator@NEffectUpdateDecorator@@@std@@@std@@@std@@P6AXPAVCAirResistanceDecorator@NEffectUpdateDecorator@@@Z@std@@YAP6AXPAVCAirResistanceDecorator@NEffectUpdateDecorator@@@ZV?$_Vector_iterator@V?$_Vector_val@U?$_Simple_types@PAVCAirResistanceDecorator@NEffectUpdateDecorator@@@std@@@std@@@0@1P6AX0@Z@Z PROC ; std::for_each<std::_Vector_iterator<std::_Vector_val<std::_Simple_types<NEffectUpdateDecorator::CAirResistanceDecorator *> > >,void (__cdecl*)(NEffectUpdateDecorator::CAirResistanceDecorator *)>, COMDAT

; 303  : _CONSTEXPR20 _Fn for_each(_InIt _First, _InIt _Last, _Fn _Func) { // perform function for each element [_First, _Last)

  00000	55		 push	 ebp
  00001	8b ec		 mov	 ebp, esp
  00003	83 ec 20	 sub	 esp, 32			; 00000020H
; File C:\Program Files (x86)\Microsoft Visual Studio\2019\Community\VC\Tools\MSVC\14.28.29333\include\vector

; 310  :         return _Unfancy(this->_Ptr);

  00006	8b 45 08	 mov	 eax, DWORD PTR __First$[ebp]
  00009	89 45 f8	 mov	 DWORD PTR __Ptr$6[ebp], eax
; File C:\Program Files (x86)\Microsoft Visual Studio\2019\Community\VC\Tools\MSVC\14.28.29333\include\xstddef

; 289  :     return _Ptr;

  0000c	8b 45 f8	 mov	 eax, DWORD PTR __Ptr$6[ebp]
  0000f	89 45 f4	 mov	 DWORD PTR $T5[ebp], eax
; File C:\Program Files (x86)\Microsoft Visual Studio\2019\Community\VC\Tools\MSVC\14.28.29333\include\vector

; 310  :         return _Unfancy(this->_Ptr);

  00012	8b 45 f4	 mov	 eax, DWORD PTR $T5[ebp]
  00015	89 45 f0	 mov	 DWORD PTR $T4[ebp], eax
; File C:\Program Files (x86)\Microsoft Visual Studio\2019\Community\VC\Tools\MSVC\14.28.29333\include\algorithm

; 305  :     auto _UFirst      = _Get_unwrapped(_First);

  00018	8b 45 f0	 mov	 eax, DWORD PTR $T4[ebp]
  0001b	89 45 fc	 mov	 DWORD PTR __UFirst$[ebp], eax
; File C:\Program Files (x86)\Microsoft Visual Studio\2019\Community\VC\Tools\MSVC\14.28.29333\include\vector

; 310  :         return _Unfancy(this->_Ptr);

  0001e	8b 45 0c	 mov	 eax, DWORD PTR __Last$[ebp]
  00021	89 45 ec	 mov	 DWORD PTR __Ptr$3[ebp], eax
; File C:\Program Files (x86)\Microsoft Visual Studio\2019\Community\VC\Tools\MSVC\14.28.29333\include\xstddef

; 289  :     return _Ptr;

  00024	8b 45 ec	 mov	 eax, DWORD PTR __Ptr$3[ebp]
  00027	89 45 e8	 mov	 DWORD PTR $T2[ebp], eax
; File C:\Program Files (x86)\Microsoft Visual Studio\2019\Community\VC\Tools\MSVC\14.28.29333\include\vector

; 310  :         return _Unfancy(this->_Ptr);

  0002a	8b 45 e8	 mov	 eax, DWORD PTR $T2[ebp]
  0002d	89 45 e4	 mov	 DWORD PTR $T1[ebp], eax
; File C:\Program Files (x86)\Microsoft Visual Studio\2019\Community\VC\Tools\MSVC\14.28.29333\include\algorithm

; 306  :     const auto _ULast = _Get_unwrapped(_Last);

  00030	8b 45 e4	 mov	 eax, DWORD PTR $T1[ebp]
  00033	89 45 e0	 mov	 DWORD PTR __ULast$[ebp], eax

; 307  :     for (; _UFirst != _ULast; ++_UFirst) {

  00036	eb 09		 jmp	 SHORT $LN4@for_each
$LN2@for_each:
  00038	8b 45 fc	 mov	 eax, DWORD PTR __UFirst$[ebp]
  0003b	83 c0 04	 add	 eax, 4
  0003e	89 45 fc	 mov	 DWORD PTR __UFirst$[ebp], eax
$LN4@for_each:
  00041	8b 45 fc	 mov	 eax, DWORD PTR __UFirst$[ebp]
  00044	3b 45 e0	 cmp	 eax, DWORD PTR __ULast$[ebp]
  00047	74 0b		 je	 SHORT $LN3@for_each

; 308  :         _Func(*_UFirst);

  00049	8b 45 fc	 mov	 eax, DWORD PTR __UFirst$[ebp]
  0004c	ff 30		 push	 DWORD PTR [eax]
  0004e	ff 55 10	 call	 DWORD PTR __Func$[ebp]
  00051	59		 pop	 ecx

; 309  :     }

  00052	eb e4		 jmp	 SHORT $LN2@for_each
$LN3@for_each:

; 310  : 
; 311  :     return _Func;

  00054	8b 45 10	 mov	 eax, DWORD PTR __Func$[ebp]

; 312  : }

  00057	c9		 leave
  00058	c3		 ret	 0
??$for_each@V?$_Vector_iterator@V?$_Vector_val@U?$_Simple_types@PAVCAirResistanceDecorator@NEffectUpdateDecorator@@@std@@@std@@@std@@P6AXPAVCAirResistanceDecorator@NEffectUpdateDecorator@@@Z@std@@YAP6AXPAVCAirResistanceDecorator@NEffectUpdateDecorator@@@ZV?$_Vector_iterator@V?$_Vector_val@U?$_Simple_types@PAVCAirResistanceDecorator@NEffectUpdateDecorator@@@std@@@std@@@0@1P6AX0@Z@Z ENDP ; std::for_each<std::_Vector_iterator<std::_Vector_val<std::_Simple_types<NEffectUpdateDecorator::CAirResistanceDecorator *> > >,void (__cdecl*)(NEffectUpdateDecorator::CAirResistanceDecorator *)>
_TEXT	ENDS
; Function compile flags: /Odspy
; File C:\Program Files (x86)\Microsoft Visual Studio\2019\Community\VC\Tools\MSVC\14.28.29333\include\algorithm
; File C:\Program Files (x86)\Microsoft Visual Studio\2019\Community\VC\Tools\MSVC\14.28.29333\include\vector
; File C:\Program Files (x86)\Microsoft Visual Studio\2019\Community\VC\Tools\MSVC\14.28.29333\include\xstddef
; File C:\Program Files (x86)\Microsoft Visual Studio\2019\Community\VC\Tools\MSVC\14.28.29333\include\vector
; File C:\Program Files (x86)\Microsoft Visual Studio\2019\Community\VC\Tools\MSVC\14.28.29333\include\algorithm
; File C:\Program Files (x86)\Microsoft Visual Studio\2019\Community\VC\Tools\MSVC\14.28.29333\include\vector
; File C:\Program Files (x86)\Microsoft Visual Studio\2019\Community\VC\Tools\MSVC\14.28.29333\include\xstddef
; File C:\Program Files (x86)\Microsoft Visual Studio\2019\Community\VC\Tools\MSVC\14.28.29333\include\vector
; File C:\Program Files (x86)\Microsoft Visual Studio\2019\Community\VC\Tools\MSVC\14.28.29333\include\algorithm
;	COMDAT ??$for_each@V?$_Vector_iterator@V?$_Vector_val@U?$_Simple_types@PAVCTextureAnimationRandomDecorator@NEffectUpdateDecorator@@@std@@@std@@@std@@P6AXPAVCTextureAnimationRandomDecorator@NEffectUpdateDecorator@@@Z@std@@YAP6AXPAVCTextureAnimationRandomDecorator@NEffectUpdateDecorator@@@ZV?$_Vector_iterator@V?$_Vector_val@U?$_Simple_types@PAVCTextureAnimationRandomDecorator@NEffectUpdateDecorator@@@std@@@std@@@0@1P6AX0@Z@Z
_TEXT	SEGMENT
__ULast$ = -32						; size = 4
$T1 = -28						; size = 4
$T2 = -24						; size = 4
__Ptr$3 = -20						; size = 4
$T4 = -16						; size = 4
$T5 = -12						; size = 4
__Ptr$6 = -8						; size = 4
__UFirst$ = -4						; size = 4
__First$ = 8						; size = 4
__Last$ = 12						; size = 4
__Func$ = 16						; size = 4
??$for_each@V?$_Vector_iterator@V?$_Vector_val@U?$_Simple_types@PAVCTextureAnimationRandomDecorator@NEffectUpdateDecorator@@@std@@@std@@@std@@P6AXPAVCTextureAnimationRandomDecorator@NEffectUpdateDecorator@@@Z@std@@YAP6AXPAVCTextureAnimationRandomDecorator@NEffectUpdateDecorator@@@ZV?$_Vector_iterator@V?$_Vector_val@U?$_Simple_types@PAVCTextureAnimationRandomDecorator@NEffectUpdateDecorator@@@std@@@std@@@0@1P6AX0@Z@Z PROC ; std::for_each<std::_Vector_iterator<std::_Vector_val<std::_Simple_types<NEffectUpdateDecorator::CTextureAnimationRandomDecorator *> > >,void (__cdecl*)(NEffectUpdateDecorator::CTextureAnimationRandomDecorator *)>, COMDAT

; 303  : _CONSTEXPR20 _Fn for_each(_InIt _First, _InIt _Last, _Fn _Func) { // perform function for each element [_First, _Last)

  00000	55		 push	 ebp
  00001	8b ec		 mov	 ebp, esp
  00003	83 ec 20	 sub	 esp, 32			; 00000020H
; File C:\Program Files (x86)\Microsoft Visual Studio\2019\Community\VC\Tools\MSVC\14.28.29333\include\vector

; 310  :         return _Unfancy(this->_Ptr);

  00006	8b 45 08	 mov	 eax, DWORD PTR __First$[ebp]
  00009	89 45 f8	 mov	 DWORD PTR __Ptr$6[ebp], eax
; File C:\Program Files (x86)\Microsoft Visual Studio\2019\Community\VC\Tools\MSVC\14.28.29333\include\xstddef

; 289  :     return _Ptr;

  0000c	8b 45 f8	 mov	 eax, DWORD PTR __Ptr$6[ebp]
  0000f	89 45 f4	 mov	 DWORD PTR $T5[ebp], eax
; File C:\Program Files (x86)\Microsoft Visual Studio\2019\Community\VC\Tools\MSVC\14.28.29333\include\vector

; 310  :         return _Unfancy(this->_Ptr);

  00012	8b 45 f4	 mov	 eax, DWORD PTR $T5[ebp]
  00015	89 45 f0	 mov	 DWORD PTR $T4[ebp], eax
; File C:\Program Files (x86)\Microsoft Visual Studio\2019\Community\VC\Tools\MSVC\14.28.29333\include\algorithm

; 305  :     auto _UFirst      = _Get_unwrapped(_First);

  00018	8b 45 f0	 mov	 eax, DWORD PTR $T4[ebp]
  0001b	89 45 fc	 mov	 DWORD PTR __UFirst$[ebp], eax
; File C:\Program Files (x86)\Microsoft Visual Studio\2019\Community\VC\Tools\MSVC\14.28.29333\include\vector

; 310  :         return _Unfancy(this->_Ptr);

  0001e	8b 45 0c	 mov	 eax, DWORD PTR __Last$[ebp]
  00021	89 45 ec	 mov	 DWORD PTR __Ptr$3[ebp], eax
; File C:\Program Files (x86)\Microsoft Visual Studio\2019\Community\VC\Tools\MSVC\14.28.29333\include\xstddef

; 289  :     return _Ptr;

  00024	8b 45 ec	 mov	 eax, DWORD PTR __Ptr$3[ebp]
  00027	89 45 e8	 mov	 DWORD PTR $T2[ebp], eax
; File C:\Program Files (x86)\Microsoft Visual Studio\2019\Community\VC\Tools\MSVC\14.28.29333\include\vector

; 310  :         return _Unfancy(this->_Ptr);

  0002a	8b 45 e8	 mov	 eax, DWORD PTR $T2[ebp]
  0002d	89 45 e4	 mov	 DWORD PTR $T1[ebp], eax
; File C:\Program Files (x86)\Microsoft Visual Studio\2019\Community\VC\Tools\MSVC\14.28.29333\include\algorithm

; 306  :     const auto _ULast = _Get_unwrapped(_Last);

  00030	8b 45 e4	 mov	 eax, DWORD PTR $T1[ebp]
  00033	89 45 e0	 mov	 DWORD PTR __ULast$[ebp], eax

; 307  :     for (; _UFirst != _ULast; ++_UFirst) {

  00036	eb 09		 jmp	 SHORT $LN4@for_each
$LN2@for_each:
  00038	8b 45 fc	 mov	 eax, DWORD PTR __UFirst$[ebp]
  0003b	83 c0 04	 add	 eax, 4
  0003e	89 45 fc	 mov	 DWORD PTR __UFirst$[ebp], eax
$LN4@for_each:
  00041	8b 45 fc	 mov	 eax, DWORD PTR __UFirst$[ebp]
  00044	3b 45 e0	 cmp	 eax, DWORD PTR __ULast$[ebp]
  00047	74 0b		 je	 SHORT $LN3@for_each

; 308  :         _Func(*_UFirst);

  00049	8b 45 fc	 mov	 eax, DWORD PTR __UFirst$[ebp]
  0004c	ff 30		 push	 DWORD PTR [eax]
  0004e	ff 55 10	 call	 DWORD PTR __Func$[ebp]
  00051	59		 pop	 ecx

; 309  :     }

  00052	eb e4		 jmp	 SHORT $LN2@for_each
$LN3@for_each:

; 310  : 
; 311  :     return _Func;

  00054	8b 45 10	 mov	 eax, DWORD PTR __Func$[ebp]

; 312  : }

  00057	c9		 leave
  00058	c3		 ret	 0
??$for_each@V?$_Vector_iterator@V?$_Vector_val@U?$_Simple_types@PAVCTextureAnimationRandomDecorator@NEffectUpdateDecorator@@@std@@@std@@@std@@P6AXPAVCTextureAnimationRandomDecorator@NEffectUpdateDecorator@@@Z@std@@YAP6AXPAVCTextureAnimationRandomDecorator@NEffectUpdateDecorator@@@ZV?$_Vector_iterator@V?$_Vector_val@U?$_Simple_types@PAVCTextureAnimationRandomDecorator@NEffectUpdateDecorator@@@std@@@std@@@0@1P6AX0@Z@Z ENDP ; std::for_each<std::_Vector_iterator<std::_Vector_val<std::_Simple_types<NEffectUpdateDecorator::CTextureAnimationRandomDecorator *> > >,void (__cdecl*)(NEffectUpdateDecorator::CTextureAnimationRandomDecorator *)>
_TEXT	ENDS
; Function compile flags: /Odspy
; File C:\Program Files (x86)\Microsoft Visual Studio\2019\Community\VC\Tools\MSVC\14.28.29333\include\algorithm
; File C:\Program Files (x86)\Microsoft Visual Studio\2019\Community\VC\Tools\MSVC\14.28.29333\include\vector
; File C:\Program Files (x86)\Microsoft Visual Studio\2019\Community\VC\Tools\MSVC\14.28.29333\include\xstddef
; File C:\Program Files (x86)\Microsoft Visual Studio\2019\Community\VC\Tools\MSVC\14.28.29333\include\vector
; File C:\Program Files (x86)\Microsoft Visual Studio\2019\Community\VC\Tools\MSVC\14.28.29333\include\algorithm
; File C:\Program Files (x86)\Microsoft Visual Studio\2019\Community\VC\Tools\MSVC\14.28.29333\include\vector
; File C:\Program Files (x86)\Microsoft Visual Studio\2019\Community\VC\Tools\MSVC\14.28.29333\include\xstddef
; File C:\Program Files (x86)\Microsoft Visual Studio\2019\Community\VC\Tools\MSVC\14.28.29333\include\vector
; File C:\Program Files (x86)\Microsoft Visual Studio\2019\Community\VC\Tools\MSVC\14.28.29333\include\algorithm
;	COMDAT ??$for_each@V?$_Vector_iterator@V?$_Vector_val@U?$_Simple_types@PAVCTextureAnimationCCWDecorator@NEffectUpdateDecorator@@@std@@@std@@@std@@P6AXPAVCTextureAnimationCCWDecorator@NEffectUpdateDecorator@@@Z@std@@YAP6AXPAVCTextureAnimationCCWDecorator@NEffectUpdateDecorator@@@ZV?$_Vector_iterator@V?$_Vector_val@U?$_Simple_types@PAVCTextureAnimationCCWDecorator@NEffectUpdateDecorator@@@std@@@std@@@0@1P6AX0@Z@Z
_TEXT	SEGMENT
__ULast$ = -32						; size = 4
$T1 = -28						; size = 4
$T2 = -24						; size = 4
__Ptr$3 = -20						; size = 4
$T4 = -16						; size = 4
$T5 = -12						; size = 4
__Ptr$6 = -8						; size = 4
__UFirst$ = -4						; size = 4
__First$ = 8						; size = 4
__Last$ = 12						; size = 4
__Func$ = 16						; size = 4
??$for_each@V?$_Vector_iterator@V?$_Vector_val@U?$_Simple_types@PAVCTextureAnimationCCWDecorator@NEffectUpdateDecorator@@@std@@@std@@@std@@P6AXPAVCTextureAnimationCCWDecorator@NEffectUpdateDecorator@@@Z@std@@YAP6AXPAVCTextureAnimationCCWDecorator@NEffectUpdateDecorator@@@ZV?$_Vector_iterator@V?$_Vector_val@U?$_Simple_types@PAVCTextureAnimationCCWDecorator@NEffectUpdateDecorator@@@std@@@std@@@0@1P6AX0@Z@Z PROC ; std::for_each<std::_Vector_iterator<std::_Vector_val<std::_Simple_types<NEffectUpdateDecorator::CTextureAnimationCCWDecorator *> > >,void (__cdecl*)(NEffectUpdateDecorator::CTextureAnimationCCWDecorator *)>, COMDAT

; 303  : _CONSTEXPR20 _Fn for_each(_InIt _First, _InIt _Last, _Fn _Func) { // perform function for each element [_First, _Last)

  00000	55		 push	 ebp
  00001	8b ec		 mov	 ebp, esp
  00003	83 ec 20	 sub	 esp, 32			; 00000020H
; File C:\Program Files (x86)\Microsoft Visual Studio\2019\Community\VC\Tools\MSVC\14.28.29333\include\vector

; 310  :         return _Unfancy(this->_Ptr);

  00006	8b 45 08	 mov	 eax, DWORD PTR __First$[ebp]
  00009	89 45 f8	 mov	 DWORD PTR __Ptr$6[ebp], eax
; File C:\Program Files (x86)\Microsoft Visual Studio\2019\Community\VC\Tools\MSVC\14.28.29333\include\xstddef

; 289  :     return _Ptr;

  0000c	8b 45 f8	 mov	 eax, DWORD PTR __Ptr$6[ebp]
  0000f	89 45 f4	 mov	 DWORD PTR $T5[ebp], eax
; File C:\Program Files (x86)\Microsoft Visual Studio\2019\Community\VC\Tools\MSVC\14.28.29333\include\vector

; 310  :         return _Unfancy(this->_Ptr);

  00012	8b 45 f4	 mov	 eax, DWORD PTR $T5[ebp]
  00015	89 45 f0	 mov	 DWORD PTR $T4[ebp], eax
; File C:\Program Files (x86)\Microsoft Visual Studio\2019\Community\VC\Tools\MSVC\14.28.29333\include\algorithm

; 305  :     auto _UFirst      = _Get_unwrapped(_First);

  00018	8b 45 f0	 mov	 eax, DWORD PTR $T4[ebp]
  0001b	89 45 fc	 mov	 DWORD PTR __UFirst$[ebp], eax
; File C:\Program Files (x86)\Microsoft Visual Studio\2019\Community\VC\Tools\MSVC\14.28.29333\include\vector

; 310  :         return _Unfancy(this->_Ptr);

  0001e	8b 45 0c	 mov	 eax, DWORD PTR __Last$[ebp]
  00021	89 45 ec	 mov	 DWORD PTR __Ptr$3[ebp], eax
; File C:\Program Files (x86)\Microsoft Visual Studio\2019\Community\VC\Tools\MSVC\14.28.29333\include\xstddef

; 289  :     return _Ptr;

  00024	8b 45 ec	 mov	 eax, DWORD PTR __Ptr$3[ebp]
  00027	89 45 e8	 mov	 DWORD PTR $T2[ebp], eax
; File C:\Program Files (x86)\Microsoft Visual Studio\2019\Community\VC\Tools\MSVC\14.28.29333\include\vector

; 310  :         return _Unfancy(this->_Ptr);

  0002a	8b 45 e8	 mov	 eax, DWORD PTR $T2[ebp]
  0002d	89 45 e4	 mov	 DWORD PTR $T1[ebp], eax
; File C:\Program Files (x86)\Microsoft Visual Studio\2019\Community\VC\Tools\MSVC\14.28.29333\include\algorithm

; 306  :     const auto _ULast = _Get_unwrapped(_Last);

  00030	8b 45 e4	 mov	 eax, DWORD PTR $T1[ebp]
  00033	89 45 e0	 mov	 DWORD PTR __ULast$[ebp], eax

; 307  :     for (; _UFirst != _ULast; ++_UFirst) {

  00036	eb 09		 jmp	 SHORT $LN4@for_each
$LN2@for_each:
  00038	8b 45 fc	 mov	 eax, DWORD PTR __UFirst$[ebp]
  0003b	83 c0 04	 add	 eax, 4
  0003e	89 45 fc	 mov	 DWORD PTR __UFirst$[ebp], eax
$LN4@for_each:
  00041	8b 45 fc	 mov	 eax, DWORD PTR __UFirst$[ebp]
  00044	3b 45 e0	 cmp	 eax, DWORD PTR __ULast$[ebp]
  00047	74 0b		 je	 SHORT $LN3@for_each

; 308  :         _Func(*_UFirst);

  00049	8b 45 fc	 mov	 eax, DWORD PTR __UFirst$[ebp]
  0004c	ff 30		 push	 DWORD PTR [eax]
  0004e	ff 55 10	 call	 DWORD PTR __Func$[ebp]
  00051	59		 pop	 ecx

; 309  :     }

  00052	eb e4		 jmp	 SHORT $LN2@for_each
$LN3@for_each:

; 310  : 
; 311  :     return _Func;

  00054	8b 45 10	 mov	 eax, DWORD PTR __Func$[ebp]

; 312  : }

  00057	c9		 leave
  00058	c3		 ret	 0
??$for_each@V?$_Vector_iterator@V?$_Vector_val@U?$_Simple_types@PAVCTextureAnimationCCWDecorator@NEffectUpdateDecorator@@@std@@@std@@@std@@P6AXPAVCTextureAnimationCCWDecorator@NEffectUpdateDecorator@@@Z@std@@YAP6AXPAVCTextureAnimationCCWDecorator@NEffectUpdateDecorator@@@ZV?$_Vector_iterator@V?$_Vector_val@U?$_Simple_types@PAVCTextureAnimationCCWDecorator@NEffectUpdateDecorator@@@std@@@std@@@0@1P6AX0@Z@Z ENDP ; std::for_each<std::_Vector_iterator<std::_Vector_val<std::_Simple_types<NEffectUpdateDecorator::CTextureAnimationCCWDecorator *> > >,void (__cdecl*)(NEffectUpdateDecorator::CTextureAnimationCCWDecorator *)>
_TEXT	ENDS
; Function compile flags: /Odspy
; File C:\Program Files (x86)\Microsoft Visual Studio\2019\Community\VC\Tools\MSVC\14.28.29333\include\algorithm
; File C:\Program Files (x86)\Microsoft Visual Studio\2019\Community\VC\Tools\MSVC\14.28.29333\include\vector
; File C:\Program Files (x86)\Microsoft Visual Studio\2019\Community\VC\Tools\MSVC\14.28.29333\include\xstddef
; File C:\Program Files (x86)\Microsoft Visual Studio\2019\Community\VC\Tools\MSVC\14.28.29333\include\vector
; File C:\Program Files (x86)\Microsoft Visual Studio\2019\Community\VC\Tools\MSVC\14.28.29333\include\algorithm
; File C:\Program Files (x86)\Microsoft Visual Studio\2019\Community\VC\Tools\MSVC\14.28.29333\include\vector
; File C:\Program Files (x86)\Microsoft Visual Studio\2019\Community\VC\Tools\MSVC\14.28.29333\include\xstddef
; File C:\Program Files (x86)\Microsoft Visual Studio\2019\Community\VC\Tools\MSVC\14.28.29333\include\vector
; File C:\Program Files (x86)\Microsoft Visual Studio\2019\Community\VC\Tools\MSVC\14.28.29333\include\algorithm
;	COMDAT ??$for_each@V?$_Vector_iterator@V?$_Vector_val@U?$_Simple_types@PAVCTextureAnimationCWDecorator@NEffectUpdateDecorator@@@std@@@std@@@std@@P6AXPAVCTextureAnimationCWDecorator@NEffectUpdateDecorator@@@Z@std@@YAP6AXPAVCTextureAnimationCWDecorator@NEffectUpdateDecorator@@@ZV?$_Vector_iterator@V?$_Vector_val@U?$_Simple_types@PAVCTextureAnimationCWDecorator@NEffectUpdateDecorator@@@std@@@std@@@0@1P6AX0@Z@Z
_TEXT	SEGMENT
__ULast$ = -32						; size = 4
$T1 = -28						; size = 4
$T2 = -24						; size = 4
__Ptr$3 = -20						; size = 4
$T4 = -16						; size = 4
$T5 = -12						; size = 4
__Ptr$6 = -8						; size = 4
__UFirst$ = -4						; size = 4
__First$ = 8						; size = 4
__Last$ = 12						; size = 4
__Func$ = 16						; size = 4
??$for_each@V?$_Vector_iterator@V?$_Vector_val@U?$_Simple_types@PAVCTextureAnimationCWDecorator@NEffectUpdateDecorator@@@std@@@std@@@std@@P6AXPAVCTextureAnimationCWDecorator@NEffectUpdateDecorator@@@Z@std@@YAP6AXPAVCTextureAnimationCWDecorator@NEffectUpdateDecorator@@@ZV?$_Vector_iterator@V?$_Vector_val@U?$_Simple_types@PAVCTextureAnimationCWDecorator@NEffectUpdateDecorator@@@std@@@std@@@0@1P6AX0@Z@Z PROC ; std::for_each<std::_Vector_iterator<std::_Vector_val<std::_Simple_types<NEffectUpdateDecorator::CTextureAnimationCWDecorator *> > >,void (__cdecl*)(NEffectUpdateDecorator::CTextureAnimationCWDecorator *)>, COMDAT

; 303  : _CONSTEXPR20 _Fn for_each(_InIt _First, _InIt _Last, _Fn _Func) { // perform function for each element [_First, _Last)

  00000	55		 push	 ebp
  00001	8b ec		 mov	 ebp, esp
  00003	83 ec 20	 sub	 esp, 32			; 00000020H
; File C:\Program Files (x86)\Microsoft Visual Studio\2019\Community\VC\Tools\MSVC\14.28.29333\include\vector

; 310  :         return _Unfancy(this->_Ptr);

  00006	8b 45 08	 mov	 eax, DWORD PTR __First$[ebp]
  00009	89 45 f8	 mov	 DWORD PTR __Ptr$6[ebp], eax
; File C:\Program Files (x86)\Microsoft Visual Studio\2019\Community\VC\Tools\MSVC\14.28.29333\include\xstddef

; 289  :     return _Ptr;

  0000c	8b 45 f8	 mov	 eax, DWORD PTR __Ptr$6[ebp]
  0000f	89 45 f4	 mov	 DWORD PTR $T5[ebp], eax
; File C:\Program Files (x86)\Microsoft Visual Studio\2019\Community\VC\Tools\MSVC\14.28.29333\include\vector

; 310  :         return _Unfancy(this->_Ptr);

  00012	8b 45 f4	 mov	 eax, DWORD PTR $T5[ebp]
  00015	89 45 f0	 mov	 DWORD PTR $T4[ebp], eax
; File C:\Program Files (x86)\Microsoft Visual Studio\2019\Community\VC\Tools\MSVC\14.28.29333\include\algorithm

; 305  :     auto _UFirst      = _Get_unwrapped(_First);

  00018	8b 45 f0	 mov	 eax, DWORD PTR $T4[ebp]
  0001b	89 45 fc	 mov	 DWORD PTR __UFirst$[ebp], eax
; File C:\Program Files (x86)\Microsoft Visual Studio\2019\Community\VC\Tools\MSVC\14.28.29333\include\vector

; 310  :         return _Unfancy(this->_Ptr);

  0001e	8b 45 0c	 mov	 eax, DWORD PTR __Last$[ebp]
  00021	89 45 ec	 mov	 DWORD PTR __Ptr$3[ebp], eax
; File C:\Program Files (x86)\Microsoft Visual Studio\2019\Community\VC\Tools\MSVC\14.28.29333\include\xstddef

; 289  :     return _Ptr;

  00024	8b 45 ec	 mov	 eax, DWORD PTR __Ptr$3[ebp]
  00027	89 45 e8	 mov	 DWORD PTR $T2[ebp], eax
; File C:\Program Files (x86)\Microsoft Visual Studio\2019\Community\VC\Tools\MSVC\14.28.29333\include\vector

; 310  :         return _Unfancy(this->_Ptr);

  0002a	8b 45 e8	 mov	 eax, DWORD PTR $T2[ebp]
  0002d	89 45 e4	 mov	 DWORD PTR $T1[ebp], eax
; File C:\Program Files (x86)\Microsoft Visual Studio\2019\Community\VC\Tools\MSVC\14.28.29333\include\algorithm

; 306  :     const auto _ULast = _Get_unwrapped(_Last);

  00030	8b 45 e4	 mov	 eax, DWORD PTR $T1[ebp]
  00033	89 45 e0	 mov	 DWORD PTR __ULast$[ebp], eax

; 307  :     for (; _UFirst != _ULast; ++_UFirst) {

  00036	eb 09		 jmp	 SHORT $LN4@for_each
$LN2@for_each:
  00038	8b 45 fc	 mov	 eax, DWORD PTR __UFirst$[ebp]
  0003b	83 c0 04	 add	 eax, 4
  0003e	89 45 fc	 mov	 DWORD PTR __UFirst$[ebp], eax
$LN4@for_each:
  00041	8b 45 fc	 mov	 eax, DWORD PTR __UFirst$[ebp]
  00044	3b 45 e0	 cmp	 eax, DWORD PTR __ULast$[ebp]
  00047	74 0b		 je	 SHORT $LN3@for_each

; 308  :         _Func(*_UFirst);

  00049	8b 45 fc	 mov	 eax, DWORD PTR __UFirst$[ebp]
  0004c	ff 30		 push	 DWORD PTR [eax]
  0004e	ff 55 10	 call	 DWORD PTR __Func$[ebp]
  00051	59		 pop	 ecx

; 309  :     }

  00052	eb e4		 jmp	 SHORT $LN2@for_each
$LN3@for_each:

; 310  : 
; 311  :     return _Func;

  00054	8b 45 10	 mov	 eax, DWORD PTR __Func$[ebp]

; 312  : }

  00057	c9		 leave
  00058	c3		 ret	 0
??$for_each@V?$_Vector_iterator@V?$_Vector_val@U?$_Simple_types@PAVCTextureAnimationCWDecorator@NEffectUpdateDecorator@@@std@@@std@@@std@@P6AXPAVCTextureAnimationCWDecorator@NEffectUpdateDecorator@@@Z@std@@YAP6AXPAVCTextureAnimationCWDecorator@NEffectUpdateDecorator@@@ZV?$_Vector_iterator@V?$_Vector_val@U?$_Simple_types@PAVCTextureAnimationCWDecorator@NEffectUpdateDecorator@@@std@@@std@@@0@1P6AX0@Z@Z ENDP ; std::for_each<std::_Vector_iterator<std::_Vector_val<std::_Simple_types<NEffectUpdateDecorator::CTextureAnimationCWDecorator *> > >,void (__cdecl*)(NEffectUpdateDecorator::CTextureAnimationCWDecorator *)>
_TEXT	ENDS
; Function compile flags: /Odspy
; File C:\Program Files (x86)\Microsoft Visual Studio\2019\Community\VC\Tools\MSVC\14.28.29333\include\algorithm
; File C:\Program Files (x86)\Microsoft Visual Studio\2019\Community\VC\Tools\MSVC\14.28.29333\include\vector
; File C:\Program Files (x86)\Microsoft Visual Studio\2019\Community\VC\Tools\MSVC\14.28.29333\include\xstddef
; File C:\Program Files (x86)\Microsoft Visual Studio\2019\Community\VC\Tools\MSVC\14.28.29333\include\vector
; File C:\Program Files (x86)\Microsoft Visual Studio\2019\Community\VC\Tools\MSVC\14.28.29333\include\algorithm
; File C:\Program Files (x86)\Microsoft Visual Studio\2019\Community\VC\Tools\MSVC\14.28.29333\include\vector
; File C:\Program Files (x86)\Microsoft Visual Studio\2019\Community\VC\Tools\MSVC\14.28.29333\include\xstddef
; File C:\Program Files (x86)\Microsoft Visual Studio\2019\Community\VC\Tools\MSVC\14.28.29333\include\vector
; File C:\Program Files (x86)\Microsoft Visual Studio\2019\Community\VC\Tools\MSVC\14.28.29333\include\algorithm
;	COMDAT ??$for_each@V?$_Vector_iterator@V?$_Vector_val@U?$_Simple_types@PAVCNullDecorator@NEffectUpdateDecorator@@@std@@@std@@@std@@P6AXPAVCNullDecorator@NEffectUpdateDecorator@@@Z@std@@YAP6AXPAVCNullDecorator@NEffectUpdateDecorator@@@ZV?$_Vector_iterator@V?$_Vector_val@U?$_Simple_types@PAVCNullDecorator@NEffectUpdateDecorator@@@std@@@std@@@0@1P6AX0@Z@Z
_TEXT	SEGMENT
__ULast$ = -32						; size = 4
$T1 = -28						; size = 4
$T2 = -24						; size = 4
__Ptr$3 = -20						; size = 4
$T4 = -16						; size = 4
$T5 = -12						; size = 4
__Ptr$6 = -8						; size = 4
__UFirst$ = -4						; size = 4
__First$ = 8						; size = 4
__Last$ = 12						; size = 4
__Func$ = 16						; size = 4
??$for_each@V?$_Vector_iterator@V?$_Vector_val@U?$_Simple_types@PAVCNullDecorator@NEffectUpdateDecorator@@@std@@@std@@@std@@P6AXPAVCNullDecorator@NEffectUpdateDecorator@@@Z@std@@YAP6AXPAVCNullDecorator@NEffectUpdateDecorator@@@ZV?$_Vector_iterator@V?$_Vector_val@U?$_Simple_types@PAVCNullDecorator@NEffectUpdateDecorator@@@std@@@std@@@0@1P6AX0@Z@Z PROC ; std::for_each<std::_Vector_iterator<std::_Vector_val<std::_Simple_types<NEffectUpdateDecorator::CNullDecorator *> > >,void (__cdecl*)(NEffectUpdateDecorator::CNullDecorator *)>, COMDAT

; 303  : _CONSTEXPR20 _Fn for_each(_InIt _First, _InIt _Last, _Fn _Func) { // perform function for each element [_First, _Last)

  00000	55		 push	 ebp
  00001	8b ec		 mov	 ebp, esp
  00003	83 ec 20	 sub	 esp, 32			; 00000020H
; File C:\Program Files (x86)\Microsoft Visual Studio\2019\Community\VC\Tools\MSVC\14.28.29333\include\vector

; 310  :         return _Unfancy(this->_Ptr);

  00006	8b 45 08	 mov	 eax, DWORD PTR __First$[ebp]
  00009	89 45 f8	 mov	 DWORD PTR __Ptr$6[ebp], eax
; File C:\Program Files (x86)\Microsoft Visual Studio\2019\Community\VC\Tools\MSVC\14.28.29333\include\xstddef

; 289  :     return _Ptr;

  0000c	8b 45 f8	 mov	 eax, DWORD PTR __Ptr$6[ebp]
  0000f	89 45 f4	 mov	 DWORD PTR $T5[ebp], eax
; File C:\Program Files (x86)\Microsoft Visual Studio\2019\Community\VC\Tools\MSVC\14.28.29333\include\vector

; 310  :         return _Unfancy(this->_Ptr);

  00012	8b 45 f4	 mov	 eax, DWORD PTR $T5[ebp]
  00015	89 45 f0	 mov	 DWORD PTR $T4[ebp], eax
; File C:\Program Files (x86)\Microsoft Visual Studio\2019\Community\VC\Tools\MSVC\14.28.29333\include\algorithm

; 305  :     auto _UFirst      = _Get_unwrapped(_First);

  00018	8b 45 f0	 mov	 eax, DWORD PTR $T4[ebp]
  0001b	89 45 fc	 mov	 DWORD PTR __UFirst$[ebp], eax
; File C:\Program Files (x86)\Microsoft Visual Studio\2019\Community\VC\Tools\MSVC\14.28.29333\include\vector

; 310  :         return _Unfancy(this->_Ptr);

  0001e	8b 45 0c	 mov	 eax, DWORD PTR __Last$[ebp]
  00021	89 45 ec	 mov	 DWORD PTR __Ptr$3[ebp], eax
; File C:\Program Files (x86)\Microsoft Visual Studio\2019\Community\VC\Tools\MSVC\14.28.29333\include\xstddef

; 289  :     return _Ptr;

  00024	8b 45 ec	 mov	 eax, DWORD PTR __Ptr$3[ebp]
  00027	89 45 e8	 mov	 DWORD PTR $T2[ebp], eax
; File C:\Program Files (x86)\Microsoft Visual Studio\2019\Community\VC\Tools\MSVC\14.28.29333\include\vector

; 310  :         return _Unfancy(this->_Ptr);

  0002a	8b 45 e8	 mov	 eax, DWORD PTR $T2[ebp]
  0002d	89 45 e4	 mov	 DWORD PTR $T1[ebp], eax
; File C:\Program Files (x86)\Microsoft Visual Studio\2019\Community\VC\Tools\MSVC\14.28.29333\include\algorithm

; 306  :     const auto _ULast = _Get_unwrapped(_Last);

  00030	8b 45 e4	 mov	 eax, DWORD PTR $T1[ebp]
  00033	89 45 e0	 mov	 DWORD PTR __ULast$[ebp], eax

; 307  :     for (; _UFirst != _ULast; ++_UFirst) {

  00036	eb 09		 jmp	 SHORT $LN4@for_each
$LN2@for_each:
  00038	8b 45 fc	 mov	 eax, DWORD PTR __UFirst$[ebp]
  0003b	83 c0 04	 add	 eax, 4
  0003e	89 45 fc	 mov	 DWORD PTR __UFirst$[ebp], eax
$LN4@for_each:
  00041	8b 45 fc	 mov	 eax, DWORD PTR __UFirst$[ebp]
  00044	3b 45 e0	 cmp	 eax, DWORD PTR __ULast$[ebp]
  00047	74 0b		 je	 SHORT $LN3@for_each

; 308  :         _Func(*_UFirst);

  00049	8b 45 fc	 mov	 eax, DWORD PTR __UFirst$[ebp]
  0004c	ff 30		 push	 DWORD PTR [eax]
  0004e	ff 55 10	 call	 DWORD PTR __Func$[ebp]
  00051	59		 pop	 ecx

; 309  :     }

  00052	eb e4		 jmp	 SHORT $LN2@for_each
$LN3@for_each:

; 310  : 
; 311  :     return _Func;

  00054	8b 45 10	 mov	 eax, DWORD PTR __Func$[ebp]

; 312  : }

  00057	c9		 leave
  00058	c3		 ret	 0
??$for_each@V?$_Vector_iterator@V?$_Vector_val@U?$_Simple_types@PAVCNullDecorator@NEffectUpdateDecorator@@@std@@@std@@@std@@P6AXPAVCNullDecorator@NEffectUpdateDecorator@@@Z@std@@YAP6AXPAVCNullDecorator@NEffectUpdateDecorator@@@ZV?$_Vector_iterator@V?$_Vector_val@U?$_Simple_types@PAVCNullDecorator@NEffectUpdateDecorator@@@std@@@std@@@0@1P6AX0@Z@Z ENDP ; std::for_each<std::_Vector_iterator<std::_Vector_val<std::_Simple_types<NEffectUpdateDecorator::CNullDecorator *> > >,void (__cdecl*)(NEffectUpdateDecorator::CNullDecorator *)>
_TEXT	ENDS
; Function compile flags: /Odspy
; File C:\Program Files (x86)\Microsoft Visual Studio\2019\Community\VC\Tools\MSVC\14.28.29333\include\algorithm
; File C:\Program Files (x86)\Microsoft Visual Studio\2019\Community\VC\Tools\MSVC\14.28.29333\include\vector
; File C:\Program Files (x86)\Microsoft Visual Studio\2019\Community\VC\Tools\MSVC\14.28.29333\include\xstddef
; File C:\Program Files (x86)\Microsoft Visual Studio\2019\Community\VC\Tools\MSVC\14.28.29333\include\vector
; File C:\Program Files (x86)\Microsoft Visual Studio\2019\Community\VC\Tools\MSVC\14.28.29333\include\algorithm
; File C:\Program Files (x86)\Microsoft Visual Studio\2019\Community\VC\Tools\MSVC\14.28.29333\include\vector
; File C:\Program Files (x86)\Microsoft Visual Studio\2019\Community\VC\Tools\MSVC\14.28.29333\include\xstddef
; File C:\Program Files (x86)\Microsoft Visual Studio\2019\Community\VC\Tools\MSVC\14.28.29333\include\vector
; File C:\Program Files (x86)\Microsoft Visual Studio\2019\Community\VC\Tools\MSVC\14.28.29333\include\algorithm
;	COMDAT ??$for_each@V?$_Vector_iterator@V?$_Vector_val@U?$_Simple_types@PAVCHeaderDecorator@NEffectUpdateDecorator@@@std@@@std@@@std@@P6AXPAVCHeaderDecorator@NEffectUpdateDecorator@@@Z@std@@YAP6AXPAVCHeaderDecorator@NEffectUpdateDecorator@@@ZV?$_Vector_iterator@V?$_Vector_val@U?$_Simple_types@PAVCHeaderDecorator@NEffectUpdateDecorator@@@std@@@std@@@0@1P6AX0@Z@Z
_TEXT	SEGMENT
__ULast$ = -32						; size = 4
$T1 = -28						; size = 4
$T2 = -24						; size = 4
__Ptr$3 = -20						; size = 4
$T4 = -16						; size = 4
$T5 = -12						; size = 4
__Ptr$6 = -8						; size = 4
__UFirst$ = -4						; size = 4
__First$ = 8						; size = 4
__Last$ = 12						; size = 4
__Func$ = 16						; size = 4
??$for_each@V?$_Vector_iterator@V?$_Vector_val@U?$_Simple_types@PAVCHeaderDecorator@NEffectUpdateDecorator@@@std@@@std@@@std@@P6AXPAVCHeaderDecorator@NEffectUpdateDecorator@@@Z@std@@YAP6AXPAVCHeaderDecorator@NEffectUpdateDecorator@@@ZV?$_Vector_iterator@V?$_Vector_val@U?$_Simple_types@PAVCHeaderDecorator@NEffectUpdateDecorator@@@std@@@std@@@0@1P6AX0@Z@Z PROC ; std::for_each<std::_Vector_iterator<std::_Vector_val<std::_Simple_types<NEffectUpdateDecorator::CHeaderDecorator *> > >,void (__cdecl*)(NEffectUpdateDecorator::CHeaderDecorator *)>, COMDAT

; 303  : _CONSTEXPR20 _Fn for_each(_InIt _First, _InIt _Last, _Fn _Func) { // perform function for each element [_First, _Last)

  00000	55		 push	 ebp
  00001	8b ec		 mov	 ebp, esp
  00003	83 ec 20	 sub	 esp, 32			; 00000020H
; File C:\Program Files (x86)\Microsoft Visual Studio\2019\Community\VC\Tools\MSVC\14.28.29333\include\vector

; 310  :         return _Unfancy(this->_Ptr);

  00006	8b 45 08	 mov	 eax, DWORD PTR __First$[ebp]
  00009	89 45 f8	 mov	 DWORD PTR __Ptr$6[ebp], eax
; File C:\Program Files (x86)\Microsoft Visual Studio\2019\Community\VC\Tools\MSVC\14.28.29333\include\xstddef

; 289  :     return _Ptr;

  0000c	8b 45 f8	 mov	 eax, DWORD PTR __Ptr$6[ebp]
  0000f	89 45 f4	 mov	 DWORD PTR $T5[ebp], eax
; File C:\Program Files (x86)\Microsoft Visual Studio\2019\Community\VC\Tools\MSVC\14.28.29333\include\vector

; 310  :         return _Unfancy(this->_Ptr);

  00012	8b 45 f4	 mov	 eax, DWORD PTR $T5[ebp]
  00015	89 45 f0	 mov	 DWORD PTR $T4[ebp], eax
; File C:\Program Files (x86)\Microsoft Visual Studio\2019\Community\VC\Tools\MSVC\14.28.29333\include\algorithm

; 305  :     auto _UFirst      = _Get_unwrapped(_First);

  00018	8b 45 f0	 mov	 eax, DWORD PTR $T4[ebp]
  0001b	89 45 fc	 mov	 DWORD PTR __UFirst$[ebp], eax
; File C:\Program Files (x86)\Microsoft Visual Studio\2019\Community\VC\Tools\MSVC\14.28.29333\include\vector

; 310  :         return _Unfancy(this->_Ptr);

  0001e	8b 45 0c	 mov	 eax, DWORD PTR __Last$[ebp]
  00021	89 45 ec	 mov	 DWORD PTR __Ptr$3[ebp], eax
; File C:\Program Files (x86)\Microsoft Visual Studio\2019\Community\VC\Tools\MSVC\14.28.29333\include\xstddef

; 289  :     return _Ptr;

  00024	8b 45 ec	 mov	 eax, DWORD PTR __Ptr$3[ebp]
  00027	89 45 e8	 mov	 DWORD PTR $T2[ebp], eax
; File C:\Program Files (x86)\Microsoft Visual Studio\2019\Community\VC\Tools\MSVC\14.28.29333\include\vector

; 310  :         return _Unfancy(this->_Ptr);

  0002a	8b 45 e8	 mov	 eax, DWORD PTR $T2[ebp]
  0002d	89 45 e4	 mov	 DWORD PTR $T1[ebp], eax
; File C:\Program Files (x86)\Microsoft Visual Studio\2019\Community\VC\Tools\MSVC\14.28.29333\include\algorithm

; 306  :     const auto _ULast = _Get_unwrapped(_Last);

  00030	8b 45 e4	 mov	 eax, DWORD PTR $T1[ebp]
  00033	89 45 e0	 mov	 DWORD PTR __ULast$[ebp], eax

; 307  :     for (; _UFirst != _ULast; ++_UFirst) {

  00036	eb 09		 jmp	 SHORT $LN4@for_each
$LN2@for_each:
  00038	8b 45 fc	 mov	 eax, DWORD PTR __UFirst$[ebp]
  0003b	83 c0 04	 add	 eax, 4
  0003e	89 45 fc	 mov	 DWORD PTR __UFirst$[ebp], eax
$LN4@for_each:
  00041	8b 45 fc	 mov	 eax, DWORD PTR __UFirst$[ebp]
  00044	3b 45 e0	 cmp	 eax, DWORD PTR __ULast$[ebp]
  00047	74 0b		 je	 SHORT $LN3@for_each

; 308  :         _Func(*_UFirst);

  00049	8b 45 fc	 mov	 eax, DWORD PTR __UFirst$[ebp]
  0004c	ff 30		 push	 DWORD PTR [eax]
  0004e	ff 55 10	 call	 DWORD PTR __Func$[ebp]
  00051	59		 pop	 ecx

; 309  :     }

  00052	eb e4		 jmp	 SHORT $LN2@for_each
$LN3@for_each:

; 310  : 
; 311  :     return _Func;

  00054	8b 45 10	 mov	 eax, DWORD PTR __Func$[ebp]

; 312  : }

  00057	c9		 leave
  00058	c3		 ret	 0
??$for_each@V?$_Vector_iterator@V?$_Vector_val@U?$_Simple_types@PAVCHeaderDecorator@NEffectUpdateDecorator@@@std@@@std@@@std@@P6AXPAVCHeaderDecorator@NEffectUpdateDecorator@@@Z@std@@YAP6AXPAVCHeaderDecorator@NEffectUpdateDecorator@@@ZV?$_Vector_iterator@V?$_Vector_val@U?$_Simple_types@PAVCHeaderDecorator@NEffectUpdateDecorator@@@std@@@std@@@0@1P6AX0@Z@Z ENDP ; std::for_each<std::_Vector_iterator<std::_Vector_val<std::_Simple_types<NEffectUpdateDecorator::CHeaderDecorator *> > >,void (__cdecl*)(NEffectUpdateDecorator::CHeaderDecorator *)>
_TEXT	ENDS
; Function compile flags: /Odspy
;	COMDAT ??_G?$CDynamicPoolEx@VCHeaderDecorator@NEffectUpdateDecorator@@@@UAEPAXI@Z
_TEXT	SEGMENT
_this$ = -4						; size = 4
___flags$ = 8						; size = 4
??_G?$CDynamicPoolEx@VCHeaderDecorator@NEffectUpdateDecorator@@@@UAEPAXI@Z PROC ; CDynamicPoolEx<NEffectUpdateDecorator::CHeaderDecorator>::`scalar deleting destructor', COMDAT
; _this$ = ecx
  00000	55		 push	 ebp
  00001	8b ec		 mov	 ebp, esp
  00003	51		 push	 ecx
  00004	89 4d fc	 mov	 DWORD PTR _this$[ebp], ecx
  00007	8b 4d fc	 mov	 ecx, DWORD PTR _this$[ebp]
  0000a	e8 00 00 00 00	 call	 ??1?$CDynamicPoolEx@VCHeaderDecorator@NEffectUpdateDecorator@@@@UAE@XZ ; CDynamicPoolEx<NEffectUpdateDecorator::CHeaderDecorator>::~CDynamicPoolEx<NEffectUpdateDecorator::CHeaderDecorator>
  0000f	8b 45 08	 mov	 eax, DWORD PTR ___flags$[ebp]
  00012	83 e0 01	 and	 eax, 1
  00015	74 0c		 je	 SHORT $LN2@scalar
  00017	6a 24		 push	 36			; 00000024H
  00019	ff 75 fc	 push	 DWORD PTR _this$[ebp]
  0001c	e8 00 00 00 00	 call	 ??3@YAXPAXI@Z		; operator delete
  00021	59		 pop	 ecx
  00022	59		 pop	 ecx
$LN2@scalar:
  00023	8b 45 fc	 mov	 eax, DWORD PTR _this$[ebp]
  00026	c9		 leave
  00027	c2 04 00	 ret	 4
??_G?$CDynamicPoolEx@VCHeaderDecorator@NEffectUpdateDecorator@@@@UAEPAXI@Z ENDP ; CDynamicPoolEx<NEffectUpdateDecorator::CHeaderDecorator>::`scalar deleting destructor'
_TEXT	ENDS
; Function compile flags: /Odspy
; File C:\Program Files (x86)\Microsoft Visual Studio\2019\Community\VC\Tools\MSVC\14.28.29333\include\vector
; File C:\Program Files (x86)\Microsoft Visual Studio\2019\Community\VC\Tools\MSVC\14.28.29333\include\xmemory
; File C:\Program Files (x86)\Microsoft Visual Studio\2019\Community\VC\Tools\MSVC\14.28.29333\include\vector
; File C:\Program Files (x86)\Microsoft Visual Studio\2019\Community\VC\Tools\MSVC\14.28.29333\include\xmemory
; File C:\Program Files (x86)\Microsoft Visual Studio\2019\Community\VC\Tools\MSVC\14.28.29333\include\vector
; File C:\Program Files (x86)\Microsoft Visual Studio\2019\Community\VC\Tools\MSVC\14.28.29333\include\xmemory
; File C:\Program Files (x86)\Microsoft Visual Studio\2019\Community\VC\Tools\MSVC\14.28.29333\include\vector
;	COMDAT ?_Tidy@?$vector@PAVCHeaderDecorator@NEffectUpdateDecorator@@V?$allocator@PAVCHeaderDecorator@NEffectUpdateDecorator@@@std@@@std@@AAEXXZ
_TEXT	SEGMENT
$T1 = -52						; size = 4
__Ptr$ = -48						; size = 4
__Count$ = -44						; size = 4
$T2 = -40						; size = 4
__First$ = -36						; size = 4
__Last$ = -32						; size = 4
$T3 = -28						; size = 4
$T4 = -24						; size = 4
__Myend$ = -20						; size = 4
__Mylast$ = -16						; size = 4
_this$ = -12						; size = 4
__My_data$ = -8						; size = 4
__Myfirst$ = -4						; size = 4
?_Tidy@?$vector@PAVCHeaderDecorator@NEffectUpdateDecorator@@V?$allocator@PAVCHeaderDecorator@NEffectUpdateDecorator@@@std@@@std@@AAEXXZ PROC ; std::vector<NEffectUpdateDecorator::CHeaderDecorator *,std::allocator<NEffectUpdateDecorator::CHeaderDecorator *> >::_Tidy, COMDAT
; _this$ = ecx

; 1686 :     void _Tidy() noexcept { // free all storage

  00000	55		 push	 ebp
  00001	8b ec		 mov	 ebp, esp
  00003	83 ec 34	 sub	 esp, 52			; 00000034H
  00006	89 4d f4	 mov	 DWORD PTR _this$[ebp], ecx

; 1687 :         auto& _My_data    = _Mypair._Myval2;

  00009	8b 45 f4	 mov	 eax, DWORD PTR _this$[ebp]
  0000c	89 45 f8	 mov	 DWORD PTR __My_data$[ebp], eax

; 1688 :         pointer& _Myfirst = _My_data._Myfirst;

  0000f	8b 45 f8	 mov	 eax, DWORD PTR __My_data$[ebp]
  00012	89 45 fc	 mov	 DWORD PTR __Myfirst$[ebp], eax

; 1689 :         pointer& _Mylast  = _My_data._Mylast;

  00015	8b 45 f8	 mov	 eax, DWORD PTR __My_data$[ebp]
  00018	83 c0 04	 add	 eax, 4
  0001b	89 45 f0	 mov	 DWORD PTR __Mylast$[ebp], eax

; 1690 :         pointer& _Myend   = _My_data._Myend;

  0001e	8b 45 f8	 mov	 eax, DWORD PTR __My_data$[ebp]
  00021	83 c0 08	 add	 eax, 8
  00024	89 45 ec	 mov	 DWORD PTR __Myend$[ebp], eax

; 1691 : 
; 1692 :         _My_data._Orphan_all();
; 1693 : 
; 1694 :         if (_Myfirst) { // destroy and deallocate old array

  00027	8b 45 fc	 mov	 eax, DWORD PTR __Myfirst$[ebp]
  0002a	83 38 00	 cmp	 DWORD PTR [eax], 0
  0002d	74 74		 je	 SHORT $LN3@Tidy

; 1695 :             _Destroy(_Myfirst, _Mylast);

  0002f	8b 45 f0	 mov	 eax, DWORD PTR __Mylast$[ebp]
  00032	8b 00		 mov	 eax, DWORD PTR [eax]
  00034	89 45 e0	 mov	 DWORD PTR __Last$[ebp], eax
  00037	8b 45 fc	 mov	 eax, DWORD PTR __Myfirst$[ebp]
  0003a	8b 00		 mov	 eax, DWORD PTR [eax]
  0003c	89 45 dc	 mov	 DWORD PTR __First$[ebp], eax

; 1733 :         return _Mypair._Get_first();

  0003f	8b 45 f4	 mov	 eax, DWORD PTR _this$[ebp]
; File C:\Program Files (x86)\Microsoft Visual Studio\2019\Community\VC\Tools\MSVC\14.28.29333\include\xmemory

; 1347 :         return *this;

  00042	89 45 e8	 mov	 DWORD PTR $T4[ebp], eax
; File C:\Program Files (x86)\Microsoft Visual Studio\2019\Community\VC\Tools\MSVC\14.28.29333\include\vector

; 1733 :         return _Mypair._Get_first();

  00045	8b 45 e8	 mov	 eax, DWORD PTR $T4[ebp]
  00048	89 45 e4	 mov	 DWORD PTR $T3[ebp], eax

; 1612 :         _Destroy_range(_First, _Last, _Getal());

  0004b	ff 75 e4	 push	 DWORD PTR $T3[ebp]
  0004e	ff 75 e0	 push	 DWORD PTR __Last$[ebp]
  00051	ff 75 dc	 push	 DWORD PTR __First$[ebp]
  00054	e8 00 00 00 00	 call	 ??$_Destroy_range@V?$allocator@PAVCHeaderDecorator@NEffectUpdateDecorator@@@std@@@std@@YAXPAPAVCHeaderDecorator@NEffectUpdateDecorator@@QAPAV12@AAV?$allocator@PAVCHeaderDecorator@NEffectUpdateDecorator@@@0@@Z ; std::_Destroy_range<std::allocator<NEffectUpdateDecorator::CHeaderDecorator *> >
  00059	83 c4 0c	 add	 esp, 12			; 0000000cH

; 1733 :         return _Mypair._Get_first();

  0005c	8b 45 f4	 mov	 eax, DWORD PTR _this$[ebp]
; File C:\Program Files (x86)\Microsoft Visual Studio\2019\Community\VC\Tools\MSVC\14.28.29333\include\xmemory

; 1347 :         return *this;

  0005f	89 45 d8	 mov	 DWORD PTR $T2[ebp], eax
; File C:\Program Files (x86)\Microsoft Visual Studio\2019\Community\VC\Tools\MSVC\14.28.29333\include\vector

; 1733 :         return _Mypair._Get_first();

  00062	8b 45 d8	 mov	 eax, DWORD PTR $T2[ebp]
  00065	89 45 cc	 mov	 DWORD PTR $T1[ebp], eax

; 1696 :             _Getal().deallocate(_Myfirst, static_cast<size_type>(_Myend - _Myfirst));

  00068	8b 45 ec	 mov	 eax, DWORD PTR __Myend$[ebp]
  0006b	8b 4d fc	 mov	 ecx, DWORD PTR __Myfirst$[ebp]
  0006e	8b 00		 mov	 eax, DWORD PTR [eax]
  00070	2b 01		 sub	 eax, DWORD PTR [ecx]
  00072	c1 f8 02	 sar	 eax, 2
  00075	89 45 d4	 mov	 DWORD PTR __Count$[ebp], eax
  00078	8b 45 fc	 mov	 eax, DWORD PTR __Myfirst$[ebp]
  0007b	8b 00		 mov	 eax, DWORD PTR [eax]
  0007d	89 45 d0	 mov	 DWORD PTR __Ptr$[ebp], eax
; File C:\Program Files (x86)\Microsoft Visual Studio\2019\Community\VC\Tools\MSVC\14.28.29333\include\xmemory

; 810  :         _Deallocate<_New_alignof<_Ty>>(_Ptr, sizeof(_Ty) * _Count);

  00080	8b 45 d4	 mov	 eax, DWORD PTR __Count$[ebp]
  00083	c1 e0 02	 shl	 eax, 2
  00086	50		 push	 eax
  00087	ff 75 d0	 push	 DWORD PTR __Ptr$[ebp]
  0008a	e8 00 00 00 00	 call	 ??$_Deallocate@$07$0A@@std@@YAXPAXI@Z ; std::_Deallocate<8,0>
  0008f	59		 pop	 ecx
  00090	59		 pop	 ecx
; File C:\Program Files (x86)\Microsoft Visual Studio\2019\Community\VC\Tools\MSVC\14.28.29333\include\vector

; 1698 :             _Myfirst = pointer();

  00091	8b 45 fc	 mov	 eax, DWORD PTR __Myfirst$[ebp]
  00094	83 20 00	 and	 DWORD PTR [eax], 0

; 1699 :             _Mylast  = pointer();

  00097	8b 45 f0	 mov	 eax, DWORD PTR __Mylast$[ebp]
  0009a	83 20 00	 and	 DWORD PTR [eax], 0

; 1700 :             _Myend   = pointer();

  0009d	8b 45 ec	 mov	 eax, DWORD PTR __Myend$[ebp]
  000a0	83 20 00	 and	 DWORD PTR [eax], 0
$LN3@Tidy:

; 1701 :         }
; 1702 :     }

  000a3	c9		 leave
  000a4	c3		 ret	 0
?_Tidy@?$vector@PAVCHeaderDecorator@NEffectUpdateDecorator@@V?$allocator@PAVCHeaderDecorator@NEffectUpdateDecorator@@@std@@@std@@AAEXXZ ENDP ; std::vector<NEffectUpdateDecorator::CHeaderDecorator *,std::allocator<NEffectUpdateDecorator::CHeaderDecorator *> >::_Tidy
_TEXT	ENDS
; Function compile flags: /Odspy
; File C:\Program Files (x86)\Microsoft Visual Studio\2019\Community\VC\Tools\MSVC\14.28.29333\include\vector
; File C:\Program Files (x86)\Microsoft Visual Studio\2019\Community\VC\Tools\MSVC\14.28.29333\include\xmemory
; File C:\Program Files (x86)\Microsoft Visual Studio\2019\Community\VC\Tools\MSVC\14.28.29333\include\vector
;	COMDAT ?clear@?$vector@PAVCHeaderDecorator@NEffectUpdateDecorator@@V?$allocator@PAVCHeaderDecorator@NEffectUpdateDecorator@@@std@@@std@@QAEXXZ
_TEXT	SEGMENT
__First$ = -32						; size = 4
__Last$ = -28						; size = 4
$T1 = -24						; size = 4
$T2 = -20						; size = 4
__Myfirst$ = -16					; size = 4
__Mylast$ = -12						; size = 4
_this$ = -8						; size = 4
__My_data$ = -4						; size = 4
?clear@?$vector@PAVCHeaderDecorator@NEffectUpdateDecorator@@V?$allocator@PAVCHeaderDecorator@NEffectUpdateDecorator@@@std@@@std@@QAEXXZ PROC ; std::vector<NEffectUpdateDecorator::CHeaderDecorator *,std::allocator<NEffectUpdateDecorator::CHeaderDecorator *> >::clear, COMDAT
; _this$ = ecx

; 1383 :     void clear() noexcept { // erase all

  00000	55		 push	 ebp
  00001	8b ec		 mov	 ebp, esp
  00003	83 ec 20	 sub	 esp, 32			; 00000020H
  00006	89 4d f8	 mov	 DWORD PTR _this$[ebp], ecx

; 1384 :         auto& _My_data    = _Mypair._Myval2;

  00009	8b 45 f8	 mov	 eax, DWORD PTR _this$[ebp]
  0000c	89 45 fc	 mov	 DWORD PTR __My_data$[ebp], eax

; 1385 :         pointer& _Myfirst = _My_data._Myfirst;

  0000f	8b 45 fc	 mov	 eax, DWORD PTR __My_data$[ebp]
  00012	89 45 f0	 mov	 DWORD PTR __Myfirst$[ebp], eax

; 1386 :         pointer& _Mylast  = _My_data._Mylast;

  00015	8b 45 fc	 mov	 eax, DWORD PTR __My_data$[ebp]
  00018	83 c0 04	 add	 eax, 4
  0001b	89 45 f4	 mov	 DWORD PTR __Mylast$[ebp], eax

; 1387 : 
; 1388 :         _My_data._Orphan_all();
; 1389 :         _Destroy(_Myfirst, _Mylast);

  0001e	8b 45 f4	 mov	 eax, DWORD PTR __Mylast$[ebp]
  00021	8b 00		 mov	 eax, DWORD PTR [eax]
  00023	89 45 e4	 mov	 DWORD PTR __Last$[ebp], eax
  00026	8b 45 f0	 mov	 eax, DWORD PTR __Myfirst$[ebp]
  00029	8b 00		 mov	 eax, DWORD PTR [eax]
  0002b	89 45 e0	 mov	 DWORD PTR __First$[ebp], eax

; 1733 :         return _Mypair._Get_first();

  0002e	8b 45 f8	 mov	 eax, DWORD PTR _this$[ebp]
; File C:\Program Files (x86)\Microsoft Visual Studio\2019\Community\VC\Tools\MSVC\14.28.29333\include\xmemory

; 1347 :         return *this;

  00031	89 45 ec	 mov	 DWORD PTR $T2[ebp], eax
; File C:\Program Files (x86)\Microsoft Visual Studio\2019\Community\VC\Tools\MSVC\14.28.29333\include\vector

; 1733 :         return _Mypair._Get_first();

  00034	8b 45 ec	 mov	 eax, DWORD PTR $T2[ebp]
  00037	89 45 e8	 mov	 DWORD PTR $T1[ebp], eax

; 1612 :         _Destroy_range(_First, _Last, _Getal());

  0003a	ff 75 e8	 push	 DWORD PTR $T1[ebp]
  0003d	ff 75 e4	 push	 DWORD PTR __Last$[ebp]
  00040	ff 75 e0	 push	 DWORD PTR __First$[ebp]
  00043	e8 00 00 00 00	 call	 ??$_Destroy_range@V?$allocator@PAVCHeaderDecorator@NEffectUpdateDecorator@@@std@@@std@@YAXPAPAVCHeaderDecorator@NEffectUpdateDecorator@@QAPAV12@AAV?$allocator@PAVCHeaderDecorator@NEffectUpdateDecorator@@@0@@Z ; std::_Destroy_range<std::allocator<NEffectUpdateDecorator::CHeaderDecorator *> >
  00048	83 c4 0c	 add	 esp, 12			; 0000000cH

; 1390 :         _Mylast = _Myfirst;

  0004b	8b 45 f4	 mov	 eax, DWORD PTR __Mylast$[ebp]
  0004e	8b 4d f0	 mov	 ecx, DWORD PTR __Myfirst$[ebp]
  00051	8b 09		 mov	 ecx, DWORD PTR [ecx]
  00053	89 08		 mov	 DWORD PTR [eax], ecx

; 1391 :     }

  00055	c9		 leave
  00056	c3		 ret	 0
?clear@?$vector@PAVCHeaderDecorator@NEffectUpdateDecorator@@V?$allocator@PAVCHeaderDecorator@NEffectUpdateDecorator@@@std@@@std@@QAEXXZ ENDP ; std::vector<NEffectUpdateDecorator::CHeaderDecorator *,std::allocator<NEffectUpdateDecorator::CHeaderDecorator *> >::clear
_TEXT	ENDS
; Function compile flags: /Odspy
; File D:\Metin2 Server Files\mainline\SRC_2014\Metin2Client\eterLib\Pool.h
;	COMDAT ?Delete@?$CDynamicPoolEx@VCHeaderDecorator@NEffectUpdateDecorator@@@@KAXPAVCHeaderDecorator@NEffectUpdateDecorator@@@Z
_TEXT	SEGMENT
_pkData$ = 8						; size = 4
?Delete@?$CDynamicPoolEx@VCHeaderDecorator@NEffectUpdateDecorator@@@@KAXPAVCHeaderDecorator@NEffectUpdateDecorator@@@Z PROC ; CDynamicPoolEx<NEffectUpdateDecorator::CHeaderDecorator>::Delete, COMDAT

; 223  : 		{

  00000	55		 push	 ebp
  00001	8b ec		 mov	 ebp, esp

; 224  : 			::operator delete(pkData);

  00003	ff 75 08	 push	 DWORD PTR _pkData$[ebp]
  00006	e8 00 00 00 00	 call	 ??3@YAXPAX@Z		; operator delete
  0000b	59		 pop	 ecx

; 225  : 		}

  0000c	5d		 pop	 ebp
  0000d	c3		 ret	 0
?Delete@?$CDynamicPoolEx@VCHeaderDecorator@NEffectUpdateDecorator@@@@KAXPAVCHeaderDecorator@NEffectUpdateDecorator@@@Z ENDP ; CDynamicPoolEx<NEffectUpdateDecorator::CHeaderDecorator>::Delete
_TEXT	ENDS
; Function compile flags: /Odspy
; File D:\Metin2 Server Files\mainline\SRC_2014\Metin2Client\eterLib\Pool.h
; File C:\Program Files (x86)\Microsoft Visual Studio\2019\Community\VC\Tools\MSVC\14.28.29333\include\vector
; File C:\Program Files (x86)\Microsoft Visual Studio\2019\Community\VC\Tools\MSVC\14.28.29333\include\xstddef
; File C:\Program Files (x86)\Microsoft Visual Studio\2019\Community\VC\Tools\MSVC\14.28.29333\include\vector
; File C:\Program Files (x86)\Microsoft Visual Studio\2019\Community\VC\Tools\MSVC\14.28.29333\include\xstddef
; File C:\Program Files (x86)\Microsoft Visual Studio\2019\Community\VC\Tools\MSVC\14.28.29333\include\vector
; File D:\Metin2 Server Files\mainline\SRC_2014\Metin2Client\eterLib\Pool.h
;	COMDAT ?Destroy@?$CDynamicPoolEx@VCHeaderDecorator@NEffectUpdateDecorator@@@@QAEXXZ
_TEXT	SEGMENT
$T1 = -44						; size = 4
$T2 = -40						; size = 4
$T3 = -36						; size = 4
$T4 = -32						; size = 4
$T5 = -28						; size = 4
___param0$ = -24					; size = 4
$T6 = -20						; size = 4
___param0$ = -16					; size = 4
__My_data$7 = -12					; size = 4
__My_data$8 = -8					; size = 4
_this$ = -4						; size = 4
?Destroy@?$CDynamicPoolEx@VCHeaderDecorator@NEffectUpdateDecorator@@@@QAEXXZ PROC ; CDynamicPoolEx<NEffectUpdateDecorator::CHeaderDecorator>::Destroy, COMDAT
; _this$ = ecx

; 150  : 		{

  00000	55		 push	 ebp
  00001	8b ec		 mov	 ebp, esp
  00003	83 ec 2c	 sub	 esp, 44			; 0000002cH
  00006	89 4d fc	 mov	 DWORD PTR _this$[ebp], ecx
; File C:\Program Files (x86)\Microsoft Visual Studio\2019\Community\VC\Tools\MSVC\14.28.29333\include\vector

; 1420 :         auto& _My_data = _Mypair._Myval2;

  00009	8b 45 fc	 mov	 eax, DWORD PTR _this$[ebp]
  0000c	83 c0 04	 add	 eax, 4
  0000f	89 45 f8	 mov	 DWORD PTR __My_data$8[ebp], eax
; File C:\Program Files (x86)\Microsoft Visual Studio\2019\Community\VC\Tools\MSVC\14.28.29333\include\xstddef

; 275  :     return __builtin_addressof(_Val);

  00012	8b 45 f8	 mov	 eax, DWORD PTR __My_data$8[ebp]
  00015	89 45 d8	 mov	 DWORD PTR $T2[ebp], eax
; File C:\Program Files (x86)\Microsoft Visual Studio\2019\Community\VC\Tools\MSVC\14.28.29333\include\vector

; 1421 :         return iterator(_My_data._Mylast, _STD addressof(_My_data));

  00018	8b 45 f8	 mov	 eax, DWORD PTR __My_data$8[ebp]
  0001b	8b 40 04	 mov	 eax, DWORD PTR [eax+4]
  0001e	89 45 f0	 mov	 DWORD PTR ___param0$[ebp], eax

; 42   :     _Vector_const_iterator(_Tptr _Parg, const _Container_base* _Pvector) noexcept : _Ptr(_Parg) {

  00021	8b 45 f0	 mov	 eax, DWORD PTR ___param0$[ebp]
  00024	89 45 ec	 mov	 DWORD PTR $T6[ebp], eax

; 1421 :         return iterator(_My_data._Mylast, _STD addressof(_My_data));

  00027	8d 45 ec	 lea	 eax, DWORD PTR $T6[ebp]
  0002a	89 45 e0	 mov	 DWORD PTR $T4[ebp], eax

; 1410 :         auto& _My_data = _Mypair._Myval2;

  0002d	8b 45 fc	 mov	 eax, DWORD PTR _this$[ebp]
  00030	83 c0 04	 add	 eax, 4
  00033	89 45 f4	 mov	 DWORD PTR __My_data$7[ebp], eax
; File C:\Program Files (x86)\Microsoft Visual Studio\2019\Community\VC\Tools\MSVC\14.28.29333\include\xstddef

; 275  :     return __builtin_addressof(_Val);

  00036	8b 45 f4	 mov	 eax, DWORD PTR __My_data$7[ebp]
  00039	89 45 d4	 mov	 DWORD PTR $T1[ebp], eax
; File C:\Program Files (x86)\Microsoft Visual Studio\2019\Community\VC\Tools\MSVC\14.28.29333\include\vector

; 1411 :         return iterator(_My_data._Myfirst, _STD addressof(_My_data));

  0003c	8b 45 f4	 mov	 eax, DWORD PTR __My_data$7[ebp]
  0003f	8b 00		 mov	 eax, DWORD PTR [eax]
  00041	89 45 e8	 mov	 DWORD PTR ___param0$[ebp], eax

; 42   :     _Vector_const_iterator(_Tptr _Parg, const _Container_base* _Pvector) noexcept : _Ptr(_Parg) {

  00044	8b 45 e8	 mov	 eax, DWORD PTR ___param0$[ebp]
  00047	89 45 e4	 mov	 DWORD PTR $T5[ebp], eax

; 1411 :         return iterator(_My_data._Myfirst, _STD addressof(_My_data));

  0004a	8d 45 e4	 lea	 eax, DWORD PTR $T5[ebp]
  0004d	89 45 dc	 mov	 DWORD PTR $T3[ebp], eax
; File D:\Metin2 Server Files\mainline\SRC_2014\Metin2Client\eterLib\Pool.h

; 160  : 			std::for_each(m_kVct_pkData.begin(), m_kVct_pkData.end(), Delete);

  00050	68 00 00 00 00	 push	 OFFSET ?Delete@?$CDynamicPoolEx@VCHeaderDecorator@NEffectUpdateDecorator@@@@KAXPAVCHeaderDecorator@NEffectUpdateDecorator@@@Z ; CDynamicPoolEx<NEffectUpdateDecorator::CHeaderDecorator>::Delete
  00055	8b 45 e0	 mov	 eax, DWORD PTR $T4[ebp]
  00058	ff 30		 push	 DWORD PTR [eax]
  0005a	8b 45 dc	 mov	 eax, DWORD PTR $T3[ebp]
  0005d	ff 30		 push	 DWORD PTR [eax]
  0005f	e8 00 00 00 00	 call	 ??$for_each@V?$_Vector_iterator@V?$_Vector_val@U?$_Simple_types@PAVCHeaderDecorator@NEffectUpdateDecorator@@@std@@@std@@@std@@P6AXPAVCHeaderDecorator@NEffectUpdateDecorator@@@Z@std@@YAP6AXPAVCHeaderDecorator@NEffectUpdateDecorator@@@ZV?$_Vector_iterator@V?$_Vector_val@U?$_Simple_types@PAVCHeaderDecorator@NEffectUpdateDecorator@@@std@@@std@@@0@1P6AX0@Z@Z ; std::for_each<std::_Vector_iterator<std::_Vector_val<std::_Simple_types<NEffectUpdateDecorator::CHeaderDecorator *> > >,void (__cdecl*)(NEffectUpdateDecorator::CHeaderDecorator *)>
  00064	83 c4 0c	 add	 esp, 12			; 0000000cH

; 161  : 			m_kVct_pkData.clear();

  00067	8b 4d fc	 mov	 ecx, DWORD PTR _this$[ebp]
  0006a	83 c1 04	 add	 ecx, 4
  0006d	e8 00 00 00 00	 call	 ?clear@?$vector@PAVCHeaderDecorator@NEffectUpdateDecorator@@V?$allocator@PAVCHeaderDecorator@NEffectUpdateDecorator@@@std@@@std@@QAEXXZ ; std::vector<NEffectUpdateDecorator::CHeaderDecorator *,std::allocator<NEffectUpdateDecorator::CHeaderDecorator *> >::clear

; 162  : 			m_kVct_pkFree.clear();

  00072	8b 4d fc	 mov	 ecx, DWORD PTR _this$[ebp]
  00075	83 c1 10	 add	 ecx, 16			; 00000010H
  00078	e8 00 00 00 00	 call	 ?clear@?$vector@PAVCHeaderDecorator@NEffectUpdateDecorator@@V?$allocator@PAVCHeaderDecorator@NEffectUpdateDecorator@@@std@@@std@@QAEXXZ ; std::vector<NEffectUpdateDecorator::CHeaderDecorator *,std::allocator<NEffectUpdateDecorator::CHeaderDecorator *> >::clear

; 163  : 		}

  0007d	c9		 leave
  0007e	c3		 ret	 0
?Destroy@?$CDynamicPoolEx@VCHeaderDecorator@NEffectUpdateDecorator@@@@QAEXXZ ENDP ; CDynamicPoolEx<NEffectUpdateDecorator::CHeaderDecorator>::Destroy
_TEXT	ENDS
; Function compile flags: /Odspy
; File D:\Metin2 Server Files\mainline\SRC_2014\Metin2Client\eterLib\Pool.h
; File C:\Program Files (x86)\Microsoft Visual Studio\2019\Community\VC\Tools\MSVC\14.28.29333\include\vector
; File D:\Metin2 Server Files\mainline\SRC_2014\Metin2Client\eterLib\Pool.h
; File C:\Program Files (x86)\Microsoft Visual Studio\2019\Community\VC\Tools\MSVC\14.28.29333\include\vector
; File D:\Metin2 Server Files\mainline\SRC_2014\Metin2Client\eterLib\Pool.h
;	COMDAT ??1?$CDynamicPoolEx@VCHeaderDecorator@NEffectUpdateDecorator@@@@UAE@XZ
_TEXT	SEGMENT
_this$ = -16						; size = 4
__$EHRec$ = -12						; size = 12
??1?$CDynamicPoolEx@VCHeaderDecorator@NEffectUpdateDecorator@@@@UAE@XZ PROC ; CDynamicPoolEx<NEffectUpdateDecorator::CHeaderDecorator>::~CDynamicPoolEx<NEffectUpdateDecorator::CHeaderDecorator>, COMDAT
; _this$ = ecx

; 132  : 		{

  00000	55		 push	 ebp
  00001	8b ec		 mov	 ebp, esp
  00003	6a ff		 push	 -1
  00005	68 00 00 00 00	 push	 __ehhandler$??1?$CDynamicPoolEx@VCHeaderDecorator@NEffectUpdateDecorator@@@@UAE@XZ
  0000a	64 a1 00 00 00
	00		 mov	 eax, DWORD PTR fs:0
  00010	50		 push	 eax
  00011	51		 push	 ecx
  00012	a1 00 00 00 00	 mov	 eax, DWORD PTR ___security_cookie
  00017	33 c5		 xor	 eax, ebp
  00019	50		 push	 eax
  0001a	8d 45 f4	 lea	 eax, DWORD PTR __$EHRec$[ebp]
  0001d	64 a3 00 00 00
	00		 mov	 DWORD PTR fs:0, eax
  00023	89 4d f0	 mov	 DWORD PTR _this$[ebp], ecx
  00026	8b 45 f0	 mov	 eax, DWORD PTR _this$[ebp]
  00029	c7 00 00 00 00
	00		 mov	 DWORD PTR [eax], OFFSET ??_7?$CDynamicPoolEx@VCHeaderDecorator@NEffectUpdateDecorator@@@@6B@

; 133  : 			assert(m_kVct_pkFree.size()==m_kVct_pkData.size());
; 134  : 			Destroy();

  0002f	8b 4d f0	 mov	 ecx, DWORD PTR _this$[ebp]
  00032	e8 00 00 00 00	 call	 ?Destroy@?$CDynamicPoolEx@VCHeaderDecorator@NEffectUpdateDecorator@@@@QAEXXZ ; CDynamicPoolEx<NEffectUpdateDecorator::CHeaderDecorator>::Destroy

; 142  : 		}

  00037	8b 4d f0	 mov	 ecx, DWORD PTR _this$[ebp]
  0003a	83 c1 10	 add	 ecx, 16			; 00000010H
; File C:\Program Files (x86)\Microsoft Visual Studio\2019\Community\VC\Tools\MSVC\14.28.29333\include\vector

; 673  :         _Tidy();

  0003d	e8 00 00 00 00	 call	 ?_Tidy@?$vector@PAVCHeaderDecorator@NEffectUpdateDecorator@@V?$allocator@PAVCHeaderDecorator@NEffectUpdateDecorator@@@std@@@std@@AAEXXZ ; std::vector<NEffectUpdateDecorator::CHeaderDecorator *,std::allocator<NEffectUpdateDecorator::CHeaderDecorator *> >::_Tidy
; File D:\Metin2 Server Files\mainline\SRC_2014\Metin2Client\eterLib\Pool.h

; 142  : 		}

  00042	8b 4d f0	 mov	 ecx, DWORD PTR _this$[ebp]
  00045	83 c1 04	 add	 ecx, 4
; File C:\Program Files (x86)\Microsoft Visual Studio\2019\Community\VC\Tools\MSVC\14.28.29333\include\vector

; 673  :         _Tidy();

  00048	e8 00 00 00 00	 call	 ?_Tidy@?$vector@PAVCHeaderDecorator@NEffectUpdateDecorator@@V?$allocator@PAVCHeaderDecorator@NEffectUpdateDecorator@@@std@@@std@@AAEXXZ ; std::vector<NEffectUpdateDecorator::CHeaderDecorator *,std::allocator<NEffectUpdateDecorator::CHeaderDecorator *> >::_Tidy
; File D:\Metin2 Server Files\mainline\SRC_2014\Metin2Client\eterLib\Pool.h

; 142  : 		}

  0004d	8b 4d f4	 mov	 ecx, DWORD PTR __$EHRec$[ebp]
  00050	64 89 0d 00 00
	00 00		 mov	 DWORD PTR fs:0, ecx
  00057	59		 pop	 ecx
  00058	c9		 leave
  00059	c3		 ret	 0
  0005a	cc		 int	 3
  0005b	cc		 int	 3
  0005c	cc		 int	 3
  0005d	cc		 int	 3
  0005e	cc		 int	 3
_TEXT	ENDS
;	COMDAT text$x
text$x	SEGMENT
__ehhandler$??1?$CDynamicPoolEx@VCHeaderDecorator@NEffectUpdateDecorator@@@@UAE@XZ:
  00000	90		 npad	 1
  00001	90		 npad	 1
  00002	8b 54 24 08	 mov	 edx, DWORD PTR [esp+8]
  00006	8d 42 0c	 lea	 eax, DWORD PTR [edx+12]
  00009	8b 4a f8	 mov	 ecx, DWORD PTR [edx-8]
  0000c	33 c8		 xor	 ecx, eax
  0000e	e8 00 00 00 00	 call	 @__security_check_cookie@4
  00013	b8 00 00 00 00	 mov	 eax, OFFSET __ehfuncinfo$??1?$CDynamicPoolEx@VCHeaderDecorator@NEffectUpdateDecorator@@@@UAE@XZ
  00018	e9 00 00 00 00	 jmp	 ___CxxFrameHandler3
text$x	ENDS
??1?$CDynamicPoolEx@VCHeaderDecorator@NEffectUpdateDecorator@@@@UAE@XZ ENDP ; CDynamicPoolEx<NEffectUpdateDecorator::CHeaderDecorator>::~CDynamicPoolEx<NEffectUpdateDecorator::CHeaderDecorator>
; Function compile flags: /Odspy
; File D:\Metin2 Server Files\mainline\SRC_2014\Metin2Client\eterLib\Pool.h
; File C:\Program Files (x86)\Microsoft Visual Studio\2019\Community\VC\Tools\MSVC\14.28.29333\include\vector
; File C:\Program Files (x86)\Microsoft Visual Studio\2019\Community\VC\Tools\MSVC\14.28.29333\include\xmemory
; File C:\Program Files (x86)\Microsoft Visual Studio\2019\Community\VC\Tools\MSVC\14.28.29333\include\vector
; File D:\Metin2 Server Files\mainline\SRC_2014\Metin2Client\eterLib\Pool.h
; File C:\Program Files (x86)\Microsoft Visual Studio\2019\Community\VC\Tools\MSVC\14.28.29333\include\vector
; File C:\Program Files (x86)\Microsoft Visual Studio\2019\Community\VC\Tools\MSVC\14.28.29333\include\xmemory
; File C:\Program Files (x86)\Microsoft Visual Studio\2019\Community\VC\Tools\MSVC\14.28.29333\include\vector
; File D:\Metin2 Server Files\mainline\SRC_2014\Metin2Client\eterLib\Pool.h
;	COMDAT ??0?$CDynamicPoolEx@VCHeaderDecorator@NEffectUpdateDecorator@@@@QAE@XZ
_TEXT	SEGMENT
_this$ = -28						; size = 4
_this$ = -24						; size = 4
_this$ = -20						; size = 4
_this$ = -16						; size = 4
_this$1 = -12						; size = 4
_this$2 = -8						; size = 4
_this$ = -4						; size = 4
??0?$CDynamicPoolEx@VCHeaderDecorator@NEffectUpdateDecorator@@@@QAE@XZ PROC ; CDynamicPoolEx<NEffectUpdateDecorator::CHeaderDecorator>::CDynamicPoolEx<NEffectUpdateDecorator::CHeaderDecorator>, COMDAT
; _this$ = ecx

; 126  : 		CDynamicPoolEx()

  00000	55		 push	 ebp
  00001	8b ec		 mov	 ebp, esp
  00003	83 ec 1c	 sub	 esp, 28			; 0000001cH
  00006	89 4d fc	 mov	 DWORD PTR _this$[ebp], ecx

; 127  : 		{

  00009	8b 45 fc	 mov	 eax, DWORD PTR _this$[ebp]
  0000c	c7 00 00 00 00
	00		 mov	 DWORD PTR [eax], OFFSET ??_7?$CDynamicPoolEx@VCHeaderDecorator@NEffectUpdateDecorator@@@@6B@
  00012	8b 45 fc	 mov	 eax, DWORD PTR _this$[ebp]
  00015	83 c0 04	 add	 eax, 4
  00018	89 45 f0	 mov	 DWORD PTR _this$[ebp], eax
; File C:\Program Files (x86)\Microsoft Visual Studio\2019\Community\VC\Tools\MSVC\14.28.29333\include\vector

; 445  :     vector() noexcept(is_nothrow_default_constructible_v<_Alty>) : _Mypair(_Zero_then_variadic_args_t{}) {

  0001b	8b 45 f0	 mov	 eax, DWORD PTR _this$[ebp]
  0001e	89 45 ec	 mov	 DWORD PTR _this$[ebp], eax
; File C:\Program Files (x86)\Microsoft Visual Studio\2019\Community\VC\Tools\MSVC\14.28.29333\include\xmemory

; 1339 :         : _Ty1(), _Myval2(_STD forward<_Other2>(_Val2)...) {}

  00021	8b 45 ec	 mov	 eax, DWORD PTR _this$[ebp]
  00024	89 45 f8	 mov	 DWORD PTR _this$2[ebp], eax
; File C:\Program Files (x86)\Microsoft Visual Studio\2019\Community\VC\Tools\MSVC\14.28.29333\include\vector

; 375  :     _Vector_val() noexcept : _Myfirst(), _Mylast(), _Myend() {}

  00027	8b 45 f8	 mov	 eax, DWORD PTR _this$2[ebp]
  0002a	83 20 00	 and	 DWORD PTR [eax], 0
  0002d	8b 45 f8	 mov	 eax, DWORD PTR _this$2[ebp]
  00030	83 60 04 00	 and	 DWORD PTR [eax+4], 0
  00034	8b 45 f8	 mov	 eax, DWORD PTR _this$2[ebp]
  00037	83 60 08 00	 and	 DWORD PTR [eax+8], 0
; File D:\Metin2 Server Files\mainline\SRC_2014\Metin2Client\eterLib\Pool.h

; 127  : 		{

  0003b	8b 45 fc	 mov	 eax, DWORD PTR _this$[ebp]
  0003e	83 c0 10	 add	 eax, 16			; 00000010H
  00041	89 45 e8	 mov	 DWORD PTR _this$[ebp], eax
; File C:\Program Files (x86)\Microsoft Visual Studio\2019\Community\VC\Tools\MSVC\14.28.29333\include\vector

; 445  :     vector() noexcept(is_nothrow_default_constructible_v<_Alty>) : _Mypair(_Zero_then_variadic_args_t{}) {

  00044	8b 45 e8	 mov	 eax, DWORD PTR _this$[ebp]
  00047	89 45 e4	 mov	 DWORD PTR _this$[ebp], eax
; File C:\Program Files (x86)\Microsoft Visual Studio\2019\Community\VC\Tools\MSVC\14.28.29333\include\xmemory

; 1339 :         : _Ty1(), _Myval2(_STD forward<_Other2>(_Val2)...) {}

  0004a	8b 45 e4	 mov	 eax, DWORD PTR _this$[ebp]
  0004d	89 45 f4	 mov	 DWORD PTR _this$1[ebp], eax
; File C:\Program Files (x86)\Microsoft Visual Studio\2019\Community\VC\Tools\MSVC\14.28.29333\include\vector

; 375  :     _Vector_val() noexcept : _Myfirst(), _Mylast(), _Myend() {}

  00050	8b 45 f4	 mov	 eax, DWORD PTR _this$1[ebp]
  00053	83 20 00	 and	 DWORD PTR [eax], 0
  00056	8b 45 f4	 mov	 eax, DWORD PTR _this$1[ebp]
  00059	83 60 04 00	 and	 DWORD PTR [eax+4], 0
  0005d	8b 45 f4	 mov	 eax, DWORD PTR _this$1[ebp]
  00060	83 60 08 00	 and	 DWORD PTR [eax+8], 0
; File D:\Metin2 Server Files\mainline\SRC_2014\Metin2Client\eterLib\Pool.h

; 128  : 			m_uInitCapacity=0;

  00064	8b 45 fc	 mov	 eax, DWORD PTR _this$[ebp]
  00067	83 60 1c 00	 and	 DWORD PTR [eax+28], 0

; 129  : 			m_uUsedCapacity=0;

  0006b	8b 45 fc	 mov	 eax, DWORD PTR _this$[ebp]
  0006e	83 60 20 00	 and	 DWORD PTR [eax+32], 0

; 130  : 		}

  00072	8b 45 fc	 mov	 eax, DWORD PTR _this$[ebp]
  00075	c9		 leave
  00076	c3		 ret	 0
??0?$CDynamicPoolEx@VCHeaderDecorator@NEffectUpdateDecorator@@@@QAE@XZ ENDP ; CDynamicPoolEx<NEffectUpdateDecorator::CHeaderDecorator>::CDynamicPoolEx<NEffectUpdateDecorator::CHeaderDecorator>
_TEXT	ENDS
; Function compile flags: /Odspy
;	COMDAT ??_G?$CDynamicPoolEx@VCNullDecorator@NEffectUpdateDecorator@@@@UAEPAXI@Z
_TEXT	SEGMENT
_this$ = -4						; size = 4
___flags$ = 8						; size = 4
??_G?$CDynamicPoolEx@VCNullDecorator@NEffectUpdateDecorator@@@@UAEPAXI@Z PROC ; CDynamicPoolEx<NEffectUpdateDecorator::CNullDecorator>::`scalar deleting destructor', COMDAT
; _this$ = ecx
  00000	55		 push	 ebp
  00001	8b ec		 mov	 ebp, esp
  00003	51		 push	 ecx
  00004	89 4d fc	 mov	 DWORD PTR _this$[ebp], ecx
  00007	8b 4d fc	 mov	 ecx, DWORD PTR _this$[ebp]
  0000a	e8 00 00 00 00	 call	 ??1?$CDynamicPoolEx@VCNullDecorator@NEffectUpdateDecorator@@@@UAE@XZ ; CDynamicPoolEx<NEffectUpdateDecorator::CNullDecorator>::~CDynamicPoolEx<NEffectUpdateDecorator::CNullDecorator>
  0000f	8b 45 08	 mov	 eax, DWORD PTR ___flags$[ebp]
  00012	83 e0 01	 and	 eax, 1
  00015	74 0c		 je	 SHORT $LN2@scalar
  00017	6a 24		 push	 36			; 00000024H
  00019	ff 75 fc	 push	 DWORD PTR _this$[ebp]
  0001c	e8 00 00 00 00	 call	 ??3@YAXPAXI@Z		; operator delete
  00021	59		 pop	 ecx
  00022	59		 pop	 ecx
$LN2@scalar:
  00023	8b 45 fc	 mov	 eax, DWORD PTR _this$[ebp]
  00026	c9		 leave
  00027	c2 04 00	 ret	 4
??_G?$CDynamicPoolEx@VCNullDecorator@NEffectUpdateDecorator@@@@UAEPAXI@Z ENDP ; CDynamicPoolEx<NEffectUpdateDecorator::CNullDecorator>::`scalar deleting destructor'
_TEXT	ENDS
; Function compile flags: /Odspy
; File C:\Program Files (x86)\Microsoft Visual Studio\2019\Community\VC\Tools\MSVC\14.28.29333\include\vector
; File C:\Program Files (x86)\Microsoft Visual Studio\2019\Community\VC\Tools\MSVC\14.28.29333\include\xmemory
; File C:\Program Files (x86)\Microsoft Visual Studio\2019\Community\VC\Tools\MSVC\14.28.29333\include\vector
; File C:\Program Files (x86)\Microsoft Visual Studio\2019\Community\VC\Tools\MSVC\14.28.29333\include\xmemory
; File C:\Program Files (x86)\Microsoft Visual Studio\2019\Community\VC\Tools\MSVC\14.28.29333\include\vector
; File C:\Program Files (x86)\Microsoft Visual Studio\2019\Community\VC\Tools\MSVC\14.28.29333\include\xmemory
; File C:\Program Files (x86)\Microsoft Visual Studio\2019\Community\VC\Tools\MSVC\14.28.29333\include\vector
;	COMDAT ?_Tidy@?$vector@PAVCNullDecorator@NEffectUpdateDecorator@@V?$allocator@PAVCNullDecorator@NEffectUpdateDecorator@@@std@@@std@@AAEXXZ
_TEXT	SEGMENT
$T1 = -52						; size = 4
__Ptr$ = -48						; size = 4
__Count$ = -44						; size = 4
$T2 = -40						; size = 4
__First$ = -36						; size = 4
__Last$ = -32						; size = 4
$T3 = -28						; size = 4
$T4 = -24						; size = 4
__Myend$ = -20						; size = 4
__Mylast$ = -16						; size = 4
_this$ = -12						; size = 4
__My_data$ = -8						; size = 4
__Myfirst$ = -4						; size = 4
?_Tidy@?$vector@PAVCNullDecorator@NEffectUpdateDecorator@@V?$allocator@PAVCNullDecorator@NEffectUpdateDecorator@@@std@@@std@@AAEXXZ PROC ; std::vector<NEffectUpdateDecorator::CNullDecorator *,std::allocator<NEffectUpdateDecorator::CNullDecorator *> >::_Tidy, COMDAT
; _this$ = ecx

; 1686 :     void _Tidy() noexcept { // free all storage

  00000	55		 push	 ebp
  00001	8b ec		 mov	 ebp, esp
  00003	83 ec 34	 sub	 esp, 52			; 00000034H
  00006	89 4d f4	 mov	 DWORD PTR _this$[ebp], ecx

; 1687 :         auto& _My_data    = _Mypair._Myval2;

  00009	8b 45 f4	 mov	 eax, DWORD PTR _this$[ebp]
  0000c	89 45 f8	 mov	 DWORD PTR __My_data$[ebp], eax

; 1688 :         pointer& _Myfirst = _My_data._Myfirst;

  0000f	8b 45 f8	 mov	 eax, DWORD PTR __My_data$[ebp]
  00012	89 45 fc	 mov	 DWORD PTR __Myfirst$[ebp], eax

; 1689 :         pointer& _Mylast  = _My_data._Mylast;

  00015	8b 45 f8	 mov	 eax, DWORD PTR __My_data$[ebp]
  00018	83 c0 04	 add	 eax, 4
  0001b	89 45 f0	 mov	 DWORD PTR __Mylast$[ebp], eax

; 1690 :         pointer& _Myend   = _My_data._Myend;

  0001e	8b 45 f8	 mov	 eax, DWORD PTR __My_data$[ebp]
  00021	83 c0 08	 add	 eax, 8
  00024	89 45 ec	 mov	 DWORD PTR __Myend$[ebp], eax

; 1691 : 
; 1692 :         _My_data._Orphan_all();
; 1693 : 
; 1694 :         if (_Myfirst) { // destroy and deallocate old array

  00027	8b 45 fc	 mov	 eax, DWORD PTR __Myfirst$[ebp]
  0002a	83 38 00	 cmp	 DWORD PTR [eax], 0
  0002d	74 74		 je	 SHORT $LN3@Tidy

; 1695 :             _Destroy(_Myfirst, _Mylast);

  0002f	8b 45 f0	 mov	 eax, DWORD PTR __Mylast$[ebp]
  00032	8b 00		 mov	 eax, DWORD PTR [eax]
  00034	89 45 e0	 mov	 DWORD PTR __Last$[ebp], eax
  00037	8b 45 fc	 mov	 eax, DWORD PTR __Myfirst$[ebp]
  0003a	8b 00		 mov	 eax, DWORD PTR [eax]
  0003c	89 45 dc	 mov	 DWORD PTR __First$[ebp], eax

; 1733 :         return _Mypair._Get_first();

  0003f	8b 45 f4	 mov	 eax, DWORD PTR _this$[ebp]
; File C:\Program Files (x86)\Microsoft Visual Studio\2019\Community\VC\Tools\MSVC\14.28.29333\include\xmemory

; 1347 :         return *this;

  00042	89 45 e8	 mov	 DWORD PTR $T4[ebp], eax
; File C:\Program Files (x86)\Microsoft Visual Studio\2019\Community\VC\Tools\MSVC\14.28.29333\include\vector

; 1733 :         return _Mypair._Get_first();

  00045	8b 45 e8	 mov	 eax, DWORD PTR $T4[ebp]
  00048	89 45 e4	 mov	 DWORD PTR $T3[ebp], eax

; 1612 :         _Destroy_range(_First, _Last, _Getal());

  0004b	ff 75 e4	 push	 DWORD PTR $T3[ebp]
  0004e	ff 75 e0	 push	 DWORD PTR __Last$[ebp]
  00051	ff 75 dc	 push	 DWORD PTR __First$[ebp]
  00054	e8 00 00 00 00	 call	 ??$_Destroy_range@V?$allocator@PAVCNullDecorator@NEffectUpdateDecorator@@@std@@@std@@YAXPAPAVCNullDecorator@NEffectUpdateDecorator@@QAPAV12@AAV?$allocator@PAVCNullDecorator@NEffectUpdateDecorator@@@0@@Z ; std::_Destroy_range<std::allocator<NEffectUpdateDecorator::CNullDecorator *> >
  00059	83 c4 0c	 add	 esp, 12			; 0000000cH

; 1733 :         return _Mypair._Get_first();

  0005c	8b 45 f4	 mov	 eax, DWORD PTR _this$[ebp]
; File C:\Program Files (x86)\Microsoft Visual Studio\2019\Community\VC\Tools\MSVC\14.28.29333\include\xmemory

; 1347 :         return *this;

  0005f	89 45 d8	 mov	 DWORD PTR $T2[ebp], eax
; File C:\Program Files (x86)\Microsoft Visual Studio\2019\Community\VC\Tools\MSVC\14.28.29333\include\vector

; 1733 :         return _Mypair._Get_first();

  00062	8b 45 d8	 mov	 eax, DWORD PTR $T2[ebp]
  00065	89 45 cc	 mov	 DWORD PTR $T1[ebp], eax

; 1696 :             _Getal().deallocate(_Myfirst, static_cast<size_type>(_Myend - _Myfirst));

  00068	8b 45 ec	 mov	 eax, DWORD PTR __Myend$[ebp]
  0006b	8b 4d fc	 mov	 ecx, DWORD PTR __Myfirst$[ebp]
  0006e	8b 00		 mov	 eax, DWORD PTR [eax]
  00070	2b 01		 sub	 eax, DWORD PTR [ecx]
  00072	c1 f8 02	 sar	 eax, 2
  00075	89 45 d4	 mov	 DWORD PTR __Count$[ebp], eax
  00078	8b 45 fc	 mov	 eax, DWORD PTR __Myfirst$[ebp]
  0007b	8b 00		 mov	 eax, DWORD PTR [eax]
  0007d	89 45 d0	 mov	 DWORD PTR __Ptr$[ebp], eax
; File C:\Program Files (x86)\Microsoft Visual Studio\2019\Community\VC\Tools\MSVC\14.28.29333\include\xmemory

; 810  :         _Deallocate<_New_alignof<_Ty>>(_Ptr, sizeof(_Ty) * _Count);

  00080	8b 45 d4	 mov	 eax, DWORD PTR __Count$[ebp]
  00083	c1 e0 02	 shl	 eax, 2
  00086	50		 push	 eax
  00087	ff 75 d0	 push	 DWORD PTR __Ptr$[ebp]
  0008a	e8 00 00 00 00	 call	 ??$_Deallocate@$07$0A@@std@@YAXPAXI@Z ; std::_Deallocate<8,0>
  0008f	59		 pop	 ecx
  00090	59		 pop	 ecx
; File C:\Program Files (x86)\Microsoft Visual Studio\2019\Community\VC\Tools\MSVC\14.28.29333\include\vector

; 1698 :             _Myfirst = pointer();

  00091	8b 45 fc	 mov	 eax, DWORD PTR __Myfirst$[ebp]
  00094	83 20 00	 and	 DWORD PTR [eax], 0

; 1699 :             _Mylast  = pointer();

  00097	8b 45 f0	 mov	 eax, DWORD PTR __Mylast$[ebp]
  0009a	83 20 00	 and	 DWORD PTR [eax], 0

; 1700 :             _Myend   = pointer();

  0009d	8b 45 ec	 mov	 eax, DWORD PTR __Myend$[ebp]
  000a0	83 20 00	 and	 DWORD PTR [eax], 0
$LN3@Tidy:

; 1701 :         }
; 1702 :     }

  000a3	c9		 leave
  000a4	c3		 ret	 0
?_Tidy@?$vector@PAVCNullDecorator@NEffectUpdateDecorator@@V?$allocator@PAVCNullDecorator@NEffectUpdateDecorator@@@std@@@std@@AAEXXZ ENDP ; std::vector<NEffectUpdateDecorator::CNullDecorator *,std::allocator<NEffectUpdateDecorator::CNullDecorator *> >::_Tidy
_TEXT	ENDS
; Function compile flags: /Odspy
; File C:\Program Files (x86)\Microsoft Visual Studio\2019\Community\VC\Tools\MSVC\14.28.29333\include\vector
; File C:\Program Files (x86)\Microsoft Visual Studio\2019\Community\VC\Tools\MSVC\14.28.29333\include\xmemory
; File C:\Program Files (x86)\Microsoft Visual Studio\2019\Community\VC\Tools\MSVC\14.28.29333\include\vector
;	COMDAT ?clear@?$vector@PAVCNullDecorator@NEffectUpdateDecorator@@V?$allocator@PAVCNullDecorator@NEffectUpdateDecorator@@@std@@@std@@QAEXXZ
_TEXT	SEGMENT
__First$ = -32						; size = 4
__Last$ = -28						; size = 4
$T1 = -24						; size = 4
$T2 = -20						; size = 4
__Myfirst$ = -16					; size = 4
__Mylast$ = -12						; size = 4
_this$ = -8						; size = 4
__My_data$ = -4						; size = 4
?clear@?$vector@PAVCNullDecorator@NEffectUpdateDecorator@@V?$allocator@PAVCNullDecorator@NEffectUpdateDecorator@@@std@@@std@@QAEXXZ PROC ; std::vector<NEffectUpdateDecorator::CNullDecorator *,std::allocator<NEffectUpdateDecorator::CNullDecorator *> >::clear, COMDAT
; _this$ = ecx

; 1383 :     void clear() noexcept { // erase all

  00000	55		 push	 ebp
  00001	8b ec		 mov	 ebp, esp
  00003	83 ec 20	 sub	 esp, 32			; 00000020H
  00006	89 4d f8	 mov	 DWORD PTR _this$[ebp], ecx

; 1384 :         auto& _My_data    = _Mypair._Myval2;

  00009	8b 45 f8	 mov	 eax, DWORD PTR _this$[ebp]
  0000c	89 45 fc	 mov	 DWORD PTR __My_data$[ebp], eax

; 1385 :         pointer& _Myfirst = _My_data._Myfirst;

  0000f	8b 45 fc	 mov	 eax, DWORD PTR __My_data$[ebp]
  00012	89 45 f0	 mov	 DWORD PTR __Myfirst$[ebp], eax

; 1386 :         pointer& _Mylast  = _My_data._Mylast;

  00015	8b 45 fc	 mov	 eax, DWORD PTR __My_data$[ebp]
  00018	83 c0 04	 add	 eax, 4
  0001b	89 45 f4	 mov	 DWORD PTR __Mylast$[ebp], eax

; 1387 : 
; 1388 :         _My_data._Orphan_all();
; 1389 :         _Destroy(_Myfirst, _Mylast);

  0001e	8b 45 f4	 mov	 eax, DWORD PTR __Mylast$[ebp]
  00021	8b 00		 mov	 eax, DWORD PTR [eax]
  00023	89 45 e4	 mov	 DWORD PTR __Last$[ebp], eax
  00026	8b 45 f0	 mov	 eax, DWORD PTR __Myfirst$[ebp]
  00029	8b 00		 mov	 eax, DWORD PTR [eax]
  0002b	89 45 e0	 mov	 DWORD PTR __First$[ebp], eax

; 1733 :         return _Mypair._Get_first();

  0002e	8b 45 f8	 mov	 eax, DWORD PTR _this$[ebp]
; File C:\Program Files (x86)\Microsoft Visual Studio\2019\Community\VC\Tools\MSVC\14.28.29333\include\xmemory

; 1347 :         return *this;

  00031	89 45 ec	 mov	 DWORD PTR $T2[ebp], eax
; File C:\Program Files (x86)\Microsoft Visual Studio\2019\Community\VC\Tools\MSVC\14.28.29333\include\vector

; 1733 :         return _Mypair._Get_first();

  00034	8b 45 ec	 mov	 eax, DWORD PTR $T2[ebp]
  00037	89 45 e8	 mov	 DWORD PTR $T1[ebp], eax

; 1612 :         _Destroy_range(_First, _Last, _Getal());

  0003a	ff 75 e8	 push	 DWORD PTR $T1[ebp]
  0003d	ff 75 e4	 push	 DWORD PTR __Last$[ebp]
  00040	ff 75 e0	 push	 DWORD PTR __First$[ebp]
  00043	e8 00 00 00 00	 call	 ??$_Destroy_range@V?$allocator@PAVCNullDecorator@NEffectUpdateDecorator@@@std@@@std@@YAXPAPAVCNullDecorator@NEffectUpdateDecorator@@QAPAV12@AAV?$allocator@PAVCNullDecorator@NEffectUpdateDecorator@@@0@@Z ; std::_Destroy_range<std::allocator<NEffectUpdateDecorator::CNullDecorator *> >
  00048	83 c4 0c	 add	 esp, 12			; 0000000cH

; 1390 :         _Mylast = _Myfirst;

  0004b	8b 45 f4	 mov	 eax, DWORD PTR __Mylast$[ebp]
  0004e	8b 4d f0	 mov	 ecx, DWORD PTR __Myfirst$[ebp]
  00051	8b 09		 mov	 ecx, DWORD PTR [ecx]
  00053	89 08		 mov	 DWORD PTR [eax], ecx

; 1391 :     }

  00055	c9		 leave
  00056	c3		 ret	 0
?clear@?$vector@PAVCNullDecorator@NEffectUpdateDecorator@@V?$allocator@PAVCNullDecorator@NEffectUpdateDecorator@@@std@@@std@@QAEXXZ ENDP ; std::vector<NEffectUpdateDecorator::CNullDecorator *,std::allocator<NEffectUpdateDecorator::CNullDecorator *> >::clear
_TEXT	ENDS
; Function compile flags: /Odspy
; File D:\Metin2 Server Files\mainline\SRC_2014\Metin2Client\eterLib\Pool.h
;	COMDAT ?Delete@?$CDynamicPoolEx@VCNullDecorator@NEffectUpdateDecorator@@@@KAXPAVCNullDecorator@NEffectUpdateDecorator@@@Z
_TEXT	SEGMENT
_pkData$ = 8						; size = 4
?Delete@?$CDynamicPoolEx@VCNullDecorator@NEffectUpdateDecorator@@@@KAXPAVCNullDecorator@NEffectUpdateDecorator@@@Z PROC ; CDynamicPoolEx<NEffectUpdateDecorator::CNullDecorator>::Delete, COMDAT

; 223  : 		{

  00000	55		 push	 ebp
  00001	8b ec		 mov	 ebp, esp

; 224  : 			::operator delete(pkData);

  00003	ff 75 08	 push	 DWORD PTR _pkData$[ebp]
  00006	e8 00 00 00 00	 call	 ??3@YAXPAX@Z		; operator delete
  0000b	59		 pop	 ecx

; 225  : 		}

  0000c	5d		 pop	 ebp
  0000d	c3		 ret	 0
?Delete@?$CDynamicPoolEx@VCNullDecorator@NEffectUpdateDecorator@@@@KAXPAVCNullDecorator@NEffectUpdateDecorator@@@Z ENDP ; CDynamicPoolEx<NEffectUpdateDecorator::CNullDecorator>::Delete
_TEXT	ENDS
; Function compile flags: /Odspy
; File D:\Metin2 Server Files\mainline\SRC_2014\Metin2Client\eterLib\Pool.h
; File C:\Program Files (x86)\Microsoft Visual Studio\2019\Community\VC\Tools\MSVC\14.28.29333\include\vector
; File C:\Program Files (x86)\Microsoft Visual Studio\2019\Community\VC\Tools\MSVC\14.28.29333\include\xstddef
; File C:\Program Files (x86)\Microsoft Visual Studio\2019\Community\VC\Tools\MSVC\14.28.29333\include\vector
; File C:\Program Files (x86)\Microsoft Visual Studio\2019\Community\VC\Tools\MSVC\14.28.29333\include\xstddef
; File C:\Program Files (x86)\Microsoft Visual Studio\2019\Community\VC\Tools\MSVC\14.28.29333\include\vector
; File D:\Metin2 Server Files\mainline\SRC_2014\Metin2Client\eterLib\Pool.h
;	COMDAT ?Destroy@?$CDynamicPoolEx@VCNullDecorator@NEffectUpdateDecorator@@@@QAEXXZ
_TEXT	SEGMENT
$T1 = -44						; size = 4
$T2 = -40						; size = 4
$T3 = -36						; size = 4
$T4 = -32						; size = 4
$T5 = -28						; size = 4
___param0$ = -24					; size = 4
$T6 = -20						; size = 4
___param0$ = -16					; size = 4
__My_data$7 = -12					; size = 4
__My_data$8 = -8					; size = 4
_this$ = -4						; size = 4
?Destroy@?$CDynamicPoolEx@VCNullDecorator@NEffectUpdateDecorator@@@@QAEXXZ PROC ; CDynamicPoolEx<NEffectUpdateDecorator::CNullDecorator>::Destroy, COMDAT
; _this$ = ecx

; 150  : 		{

  00000	55		 push	 ebp
  00001	8b ec		 mov	 ebp, esp
  00003	83 ec 2c	 sub	 esp, 44			; 0000002cH
  00006	89 4d fc	 mov	 DWORD PTR _this$[ebp], ecx
; File C:\Program Files (x86)\Microsoft Visual Studio\2019\Community\VC\Tools\MSVC\14.28.29333\include\vector

; 1420 :         auto& _My_data = _Mypair._Myval2;

  00009	8b 45 fc	 mov	 eax, DWORD PTR _this$[ebp]
  0000c	83 c0 04	 add	 eax, 4
  0000f	89 45 f8	 mov	 DWORD PTR __My_data$8[ebp], eax
; File C:\Program Files (x86)\Microsoft Visual Studio\2019\Community\VC\Tools\MSVC\14.28.29333\include\xstddef

; 275  :     return __builtin_addressof(_Val);

  00012	8b 45 f8	 mov	 eax, DWORD PTR __My_data$8[ebp]
  00015	89 45 d8	 mov	 DWORD PTR $T2[ebp], eax
; File C:\Program Files (x86)\Microsoft Visual Studio\2019\Community\VC\Tools\MSVC\14.28.29333\include\vector

; 1421 :         return iterator(_My_data._Mylast, _STD addressof(_My_data));

  00018	8b 45 f8	 mov	 eax, DWORD PTR __My_data$8[ebp]
  0001b	8b 40 04	 mov	 eax, DWORD PTR [eax+4]
  0001e	89 45 f0	 mov	 DWORD PTR ___param0$[ebp], eax

; 42   :     _Vector_const_iterator(_Tptr _Parg, const _Container_base* _Pvector) noexcept : _Ptr(_Parg) {

  00021	8b 45 f0	 mov	 eax, DWORD PTR ___param0$[ebp]
  00024	89 45 ec	 mov	 DWORD PTR $T6[ebp], eax

; 1421 :         return iterator(_My_data._Mylast, _STD addressof(_My_data));

  00027	8d 45 ec	 lea	 eax, DWORD PTR $T6[ebp]
  0002a	89 45 e0	 mov	 DWORD PTR $T4[ebp], eax

; 1410 :         auto& _My_data = _Mypair._Myval2;

  0002d	8b 45 fc	 mov	 eax, DWORD PTR _this$[ebp]
  00030	83 c0 04	 add	 eax, 4
  00033	89 45 f4	 mov	 DWORD PTR __My_data$7[ebp], eax
; File C:\Program Files (x86)\Microsoft Visual Studio\2019\Community\VC\Tools\MSVC\14.28.29333\include\xstddef

; 275  :     return __builtin_addressof(_Val);

  00036	8b 45 f4	 mov	 eax, DWORD PTR __My_data$7[ebp]
  00039	89 45 d4	 mov	 DWORD PTR $T1[ebp], eax
; File C:\Program Files (x86)\Microsoft Visual Studio\2019\Community\VC\Tools\MSVC\14.28.29333\include\vector

; 1411 :         return iterator(_My_data._Myfirst, _STD addressof(_My_data));

  0003c	8b 45 f4	 mov	 eax, DWORD PTR __My_data$7[ebp]
  0003f	8b 00		 mov	 eax, DWORD PTR [eax]
  00041	89 45 e8	 mov	 DWORD PTR ___param0$[ebp], eax

; 42   :     _Vector_const_iterator(_Tptr _Parg, const _Container_base* _Pvector) noexcept : _Ptr(_Parg) {

  00044	8b 45 e8	 mov	 eax, DWORD PTR ___param0$[ebp]
  00047	89 45 e4	 mov	 DWORD PTR $T5[ebp], eax

; 1411 :         return iterator(_My_data._Myfirst, _STD addressof(_My_data));

  0004a	8d 45 e4	 lea	 eax, DWORD PTR $T5[ebp]
  0004d	89 45 dc	 mov	 DWORD PTR $T3[ebp], eax
; File D:\Metin2 Server Files\mainline\SRC_2014\Metin2Client\eterLib\Pool.h

; 160  : 			std::for_each(m_kVct_pkData.begin(), m_kVct_pkData.end(), Delete);

  00050	68 00 00 00 00	 push	 OFFSET ?Delete@?$CDynamicPoolEx@VCNullDecorator@NEffectUpdateDecorator@@@@KAXPAVCNullDecorator@NEffectUpdateDecorator@@@Z ; CDynamicPoolEx<NEffectUpdateDecorator::CNullDecorator>::Delete
  00055	8b 45 e0	 mov	 eax, DWORD PTR $T4[ebp]
  00058	ff 30		 push	 DWORD PTR [eax]
  0005a	8b 45 dc	 mov	 eax, DWORD PTR $T3[ebp]
  0005d	ff 30		 push	 DWORD PTR [eax]
  0005f	e8 00 00 00 00	 call	 ??$for_each@V?$_Vector_iterator@V?$_Vector_val@U?$_Simple_types@PAVCNullDecorator@NEffectUpdateDecorator@@@std@@@std@@@std@@P6AXPAVCNullDecorator@NEffectUpdateDecorator@@@Z@std@@YAP6AXPAVCNullDecorator@NEffectUpdateDecorator@@@ZV?$_Vector_iterator@V?$_Vector_val@U?$_Simple_types@PAVCNullDecorator@NEffectUpdateDecorator@@@std@@@std@@@0@1P6AX0@Z@Z ; std::for_each<std::_Vector_iterator<std::_Vector_val<std::_Simple_types<NEffectUpdateDecorator::CNullDecorator *> > >,void (__cdecl*)(NEffectUpdateDecorator::CNullDecorator *)>
  00064	83 c4 0c	 add	 esp, 12			; 0000000cH

; 161  : 			m_kVct_pkData.clear();

  00067	8b 4d fc	 mov	 ecx, DWORD PTR _this$[ebp]
  0006a	83 c1 04	 add	 ecx, 4
  0006d	e8 00 00 00 00	 call	 ?clear@?$vector@PAVCNullDecorator@NEffectUpdateDecorator@@V?$allocator@PAVCNullDecorator@NEffectUpdateDecorator@@@std@@@std@@QAEXXZ ; std::vector<NEffectUpdateDecorator::CNullDecorator *,std::allocator<NEffectUpdateDecorator::CNullDecorator *> >::clear

; 162  : 			m_kVct_pkFree.clear();

  00072	8b 4d fc	 mov	 ecx, DWORD PTR _this$[ebp]
  00075	83 c1 10	 add	 ecx, 16			; 00000010H
  00078	e8 00 00 00 00	 call	 ?clear@?$vector@PAVCNullDecorator@NEffectUpdateDecorator@@V?$allocator@PAVCNullDecorator@NEffectUpdateDecorator@@@std@@@std@@QAEXXZ ; std::vector<NEffectUpdateDecorator::CNullDecorator *,std::allocator<NEffectUpdateDecorator::CNullDecorator *> >::clear

; 163  : 		}

  0007d	c9		 leave
  0007e	c3		 ret	 0
?Destroy@?$CDynamicPoolEx@VCNullDecorator@NEffectUpdateDecorator@@@@QAEXXZ ENDP ; CDynamicPoolEx<NEffectUpdateDecorator::CNullDecorator>::Destroy
_TEXT	ENDS
; Function compile flags: /Odspy
; File D:\Metin2 Server Files\mainline\SRC_2014\Metin2Client\eterLib\Pool.h
; File C:\Program Files (x86)\Microsoft Visual Studio\2019\Community\VC\Tools\MSVC\14.28.29333\include\vector
; File D:\Metin2 Server Files\mainline\SRC_2014\Metin2Client\eterLib\Pool.h
; File C:\Program Files (x86)\Microsoft Visual Studio\2019\Community\VC\Tools\MSVC\14.28.29333\include\vector
; File D:\Metin2 Server Files\mainline\SRC_2014\Metin2Client\eterLib\Pool.h
;	COMDAT ??1?$CDynamicPoolEx@VCNullDecorator@NEffectUpdateDecorator@@@@UAE@XZ
_TEXT	SEGMENT
_this$ = -16						; size = 4
__$EHRec$ = -12						; size = 12
??1?$CDynamicPoolEx@VCNullDecorator@NEffectUpdateDecorator@@@@UAE@XZ PROC ; CDynamicPoolEx<NEffectUpdateDecorator::CNullDecorator>::~CDynamicPoolEx<NEffectUpdateDecorator::CNullDecorator>, COMDAT
; _this$ = ecx

; 132  : 		{

  00000	55		 push	 ebp
  00001	8b ec		 mov	 ebp, esp
  00003	6a ff		 push	 -1
  00005	68 00 00 00 00	 push	 __ehhandler$??1?$CDynamicPoolEx@VCNullDecorator@NEffectUpdateDecorator@@@@UAE@XZ
  0000a	64 a1 00 00 00
	00		 mov	 eax, DWORD PTR fs:0
  00010	50		 push	 eax
  00011	51		 push	 ecx
  00012	a1 00 00 00 00	 mov	 eax, DWORD PTR ___security_cookie
  00017	33 c5		 xor	 eax, ebp
  00019	50		 push	 eax
  0001a	8d 45 f4	 lea	 eax, DWORD PTR __$EHRec$[ebp]
  0001d	64 a3 00 00 00
	00		 mov	 DWORD PTR fs:0, eax
  00023	89 4d f0	 mov	 DWORD PTR _this$[ebp], ecx
  00026	8b 45 f0	 mov	 eax, DWORD PTR _this$[ebp]
  00029	c7 00 00 00 00
	00		 mov	 DWORD PTR [eax], OFFSET ??_7?$CDynamicPoolEx@VCNullDecorator@NEffectUpdateDecorator@@@@6B@

; 133  : 			assert(m_kVct_pkFree.size()==m_kVct_pkData.size());
; 134  : 			Destroy();

  0002f	8b 4d f0	 mov	 ecx, DWORD PTR _this$[ebp]
  00032	e8 00 00 00 00	 call	 ?Destroy@?$CDynamicPoolEx@VCNullDecorator@NEffectUpdateDecorator@@@@QAEXXZ ; CDynamicPoolEx<NEffectUpdateDecorator::CNullDecorator>::Destroy

; 142  : 		}

  00037	8b 4d f0	 mov	 ecx, DWORD PTR _this$[ebp]
  0003a	83 c1 10	 add	 ecx, 16			; 00000010H
; File C:\Program Files (x86)\Microsoft Visual Studio\2019\Community\VC\Tools\MSVC\14.28.29333\include\vector

; 673  :         _Tidy();

  0003d	e8 00 00 00 00	 call	 ?_Tidy@?$vector@PAVCNullDecorator@NEffectUpdateDecorator@@V?$allocator@PAVCNullDecorator@NEffectUpdateDecorator@@@std@@@std@@AAEXXZ ; std::vector<NEffectUpdateDecorator::CNullDecorator *,std::allocator<NEffectUpdateDecorator::CNullDecorator *> >::_Tidy
; File D:\Metin2 Server Files\mainline\SRC_2014\Metin2Client\eterLib\Pool.h

; 142  : 		}

  00042	8b 4d f0	 mov	 ecx, DWORD PTR _this$[ebp]
  00045	83 c1 04	 add	 ecx, 4
; File C:\Program Files (x86)\Microsoft Visual Studio\2019\Community\VC\Tools\MSVC\14.28.29333\include\vector

; 673  :         _Tidy();

  00048	e8 00 00 00 00	 call	 ?_Tidy@?$vector@PAVCNullDecorator@NEffectUpdateDecorator@@V?$allocator@PAVCNullDecorator@NEffectUpdateDecorator@@@std@@@std@@AAEXXZ ; std::vector<NEffectUpdateDecorator::CNullDecorator *,std::allocator<NEffectUpdateDecorator::CNullDecorator *> >::_Tidy
; File D:\Metin2 Server Files\mainline\SRC_2014\Metin2Client\eterLib\Pool.h

; 142  : 		}

  0004d	8b 4d f4	 mov	 ecx, DWORD PTR __$EHRec$[ebp]
  00050	64 89 0d 00 00
	00 00		 mov	 DWORD PTR fs:0, ecx
  00057	59		 pop	 ecx
  00058	c9		 leave
  00059	c3		 ret	 0
  0005a	cc		 int	 3
  0005b	cc		 int	 3
  0005c	cc		 int	 3
  0005d	cc		 int	 3
  0005e	cc		 int	 3
_TEXT	ENDS
;	COMDAT text$x
text$x	SEGMENT
__ehhandler$??1?$CDynamicPoolEx@VCNullDecorator@NEffectUpdateDecorator@@@@UAE@XZ:
  00000	90		 npad	 1
  00001	90		 npad	 1
  00002	8b 54 24 08	 mov	 edx, DWORD PTR [esp+8]
  00006	8d 42 0c	 lea	 eax, DWORD PTR [edx+12]
  00009	8b 4a f8	 mov	 ecx, DWORD PTR [edx-8]
  0000c	33 c8		 xor	 ecx, eax
  0000e	e8 00 00 00 00	 call	 @__security_check_cookie@4
  00013	b8 00 00 00 00	 mov	 eax, OFFSET __ehfuncinfo$??1?$CDynamicPoolEx@VCNullDecorator@NEffectUpdateDecorator@@@@UAE@XZ
  00018	e9 00 00 00 00	 jmp	 ___CxxFrameHandler3
text$x	ENDS
??1?$CDynamicPoolEx@VCNullDecorator@NEffectUpdateDecorator@@@@UAE@XZ ENDP ; CDynamicPoolEx<NEffectUpdateDecorator::CNullDecorator>::~CDynamicPoolEx<NEffectUpdateDecorator::CNullDecorator>
; Function compile flags: /Odspy
; File D:\Metin2 Server Files\mainline\SRC_2014\Metin2Client\eterLib\Pool.h
; File C:\Program Files (x86)\Microsoft Visual Studio\2019\Community\VC\Tools\MSVC\14.28.29333\include\vector
; File C:\Program Files (x86)\Microsoft Visual Studio\2019\Community\VC\Tools\MSVC\14.28.29333\include\xmemory
; File C:\Program Files (x86)\Microsoft Visual Studio\2019\Community\VC\Tools\MSVC\14.28.29333\include\vector
; File D:\Metin2 Server Files\mainline\SRC_2014\Metin2Client\eterLib\Pool.h
; File C:\Program Files (x86)\Microsoft Visual Studio\2019\Community\VC\Tools\MSVC\14.28.29333\include\vector
; File C:\Program Files (x86)\Microsoft Visual Studio\2019\Community\VC\Tools\MSVC\14.28.29333\include\xmemory
; File C:\Program Files (x86)\Microsoft Visual Studio\2019\Community\VC\Tools\MSVC\14.28.29333\include\vector
; File D:\Metin2 Server Files\mainline\SRC_2014\Metin2Client\eterLib\Pool.h
;	COMDAT ??0?$CDynamicPoolEx@VCNullDecorator@NEffectUpdateDecorator@@@@QAE@XZ
_TEXT	SEGMENT
_this$ = -28						; size = 4
_this$ = -24						; size = 4
_this$ = -20						; size = 4
_this$ = -16						; size = 4
_this$1 = -12						; size = 4
_this$2 = -8						; size = 4
_this$ = -4						; size = 4
??0?$CDynamicPoolEx@VCNullDecorator@NEffectUpdateDecorator@@@@QAE@XZ PROC ; CDynamicPoolEx<NEffectUpdateDecorator::CNullDecorator>::CDynamicPoolEx<NEffectUpdateDecorator::CNullDecorator>, COMDAT
; _this$ = ecx

; 126  : 		CDynamicPoolEx()

  00000	55		 push	 ebp
  00001	8b ec		 mov	 ebp, esp
  00003	83 ec 1c	 sub	 esp, 28			; 0000001cH
  00006	89 4d fc	 mov	 DWORD PTR _this$[ebp], ecx

; 127  : 		{

  00009	8b 45 fc	 mov	 eax, DWORD PTR _this$[ebp]
  0000c	c7 00 00 00 00
	00		 mov	 DWORD PTR [eax], OFFSET ??_7?$CDynamicPoolEx@VCNullDecorator@NEffectUpdateDecorator@@@@6B@
  00012	8b 45 fc	 mov	 eax, DWORD PTR _this$[ebp]
  00015	83 c0 04	 add	 eax, 4
  00018	89 45 f0	 mov	 DWORD PTR _this$[ebp], eax
; File C:\Program Files (x86)\Microsoft Visual Studio\2019\Community\VC\Tools\MSVC\14.28.29333\include\vector

; 445  :     vector() noexcept(is_nothrow_default_constructible_v<_Alty>) : _Mypair(_Zero_then_variadic_args_t{}) {

  0001b	8b 45 f0	 mov	 eax, DWORD PTR _this$[ebp]
  0001e	89 45 ec	 mov	 DWORD PTR _this$[ebp], eax
; File C:\Program Files (x86)\Microsoft Visual Studio\2019\Community\VC\Tools\MSVC\14.28.29333\include\xmemory

; 1339 :         : _Ty1(), _Myval2(_STD forward<_Other2>(_Val2)...) {}

  00021	8b 45 ec	 mov	 eax, DWORD PTR _this$[ebp]
  00024	89 45 f8	 mov	 DWORD PTR _this$2[ebp], eax
; File C:\Program Files (x86)\Microsoft Visual Studio\2019\Community\VC\Tools\MSVC\14.28.29333\include\vector

; 375  :     _Vector_val() noexcept : _Myfirst(), _Mylast(), _Myend() {}

  00027	8b 45 f8	 mov	 eax, DWORD PTR _this$2[ebp]
  0002a	83 20 00	 and	 DWORD PTR [eax], 0
  0002d	8b 45 f8	 mov	 eax, DWORD PTR _this$2[ebp]
  00030	83 60 04 00	 and	 DWORD PTR [eax+4], 0
  00034	8b 45 f8	 mov	 eax, DWORD PTR _this$2[ebp]
  00037	83 60 08 00	 and	 DWORD PTR [eax+8], 0
; File D:\Metin2 Server Files\mainline\SRC_2014\Metin2Client\eterLib\Pool.h

; 127  : 		{

  0003b	8b 45 fc	 mov	 eax, DWORD PTR _this$[ebp]
  0003e	83 c0 10	 add	 eax, 16			; 00000010H
  00041	89 45 e8	 mov	 DWORD PTR _this$[ebp], eax
; File C:\Program Files (x86)\Microsoft Visual Studio\2019\Community\VC\Tools\MSVC\14.28.29333\include\vector

; 445  :     vector() noexcept(is_nothrow_default_constructible_v<_Alty>) : _Mypair(_Zero_then_variadic_args_t{}) {

  00044	8b 45 e8	 mov	 eax, DWORD PTR _this$[ebp]
  00047	89 45 e4	 mov	 DWORD PTR _this$[ebp], eax
; File C:\Program Files (x86)\Microsoft Visual Studio\2019\Community\VC\Tools\MSVC\14.28.29333\include\xmemory

; 1339 :         : _Ty1(), _Myval2(_STD forward<_Other2>(_Val2)...) {}

  0004a	8b 45 e4	 mov	 eax, DWORD PTR _this$[ebp]
  0004d	89 45 f4	 mov	 DWORD PTR _this$1[ebp], eax
; File C:\Program Files (x86)\Microsoft Visual Studio\2019\Community\VC\Tools\MSVC\14.28.29333\include\vector

; 375  :     _Vector_val() noexcept : _Myfirst(), _Mylast(), _Myend() {}

  00050	8b 45 f4	 mov	 eax, DWORD PTR _this$1[ebp]
  00053	83 20 00	 and	 DWORD PTR [eax], 0
  00056	8b 45 f4	 mov	 eax, DWORD PTR _this$1[ebp]
  00059	83 60 04 00	 and	 DWORD PTR [eax+4], 0
  0005d	8b 45 f4	 mov	 eax, DWORD PTR _this$1[ebp]
  00060	83 60 08 00	 and	 DWORD PTR [eax+8], 0
; File D:\Metin2 Server Files\mainline\SRC_2014\Metin2Client\eterLib\Pool.h

; 128  : 			m_uInitCapacity=0;

  00064	8b 45 fc	 mov	 eax, DWORD PTR _this$[ebp]
  00067	83 60 1c 00	 and	 DWORD PTR [eax+28], 0

; 129  : 			m_uUsedCapacity=0;

  0006b	8b 45 fc	 mov	 eax, DWORD PTR _this$[ebp]
  0006e	83 60 20 00	 and	 DWORD PTR [eax+32], 0

; 130  : 		}

  00072	8b 45 fc	 mov	 eax, DWORD PTR _this$[ebp]
  00075	c9		 leave
  00076	c3		 ret	 0
??0?$CDynamicPoolEx@VCNullDecorator@NEffectUpdateDecorator@@@@QAE@XZ ENDP ; CDynamicPoolEx<NEffectUpdateDecorator::CNullDecorator>::CDynamicPoolEx<NEffectUpdateDecorator::CNullDecorator>
_TEXT	ENDS
; Function compile flags: /Odspy
;	COMDAT ??_G?$CDynamicPoolEx@VCTextureAnimationCWDecorator@NEffectUpdateDecorator@@@@UAEPAXI@Z
_TEXT	SEGMENT
_this$ = -4						; size = 4
___flags$ = 8						; size = 4
??_G?$CDynamicPoolEx@VCTextureAnimationCWDecorator@NEffectUpdateDecorator@@@@UAEPAXI@Z PROC ; CDynamicPoolEx<NEffectUpdateDecorator::CTextureAnimationCWDecorator>::`scalar deleting destructor', COMDAT
; _this$ = ecx
  00000	55		 push	 ebp
  00001	8b ec		 mov	 ebp, esp
  00003	51		 push	 ecx
  00004	89 4d fc	 mov	 DWORD PTR _this$[ebp], ecx
  00007	8b 4d fc	 mov	 ecx, DWORD PTR _this$[ebp]
  0000a	e8 00 00 00 00	 call	 ??1?$CDynamicPoolEx@VCTextureAnimationCWDecorator@NEffectUpdateDecorator@@@@UAE@XZ ; CDynamicPoolEx<NEffectUpdateDecorator::CTextureAnimationCWDecorator>::~CDynamicPoolEx<NEffectUpdateDecorator::CTextureAnimationCWDecorator>
  0000f	8b 45 08	 mov	 eax, DWORD PTR ___flags$[ebp]
  00012	83 e0 01	 and	 eax, 1
  00015	74 0c		 je	 SHORT $LN2@scalar
  00017	6a 24		 push	 36			; 00000024H
  00019	ff 75 fc	 push	 DWORD PTR _this$[ebp]
  0001c	e8 00 00 00 00	 call	 ??3@YAXPAXI@Z		; operator delete
  00021	59		 pop	 ecx
  00022	59		 pop	 ecx
$LN2@scalar:
  00023	8b 45 fc	 mov	 eax, DWORD PTR _this$[ebp]
  00026	c9		 leave
  00027	c2 04 00	 ret	 4
??_G?$CDynamicPoolEx@VCTextureAnimationCWDecorator@NEffectUpdateDecorator@@@@UAEPAXI@Z ENDP ; CDynamicPoolEx<NEffectUpdateDecorator::CTextureAnimationCWDecorator>::`scalar deleting destructor'
_TEXT	ENDS
; Function compile flags: /Odspy
; File C:\Program Files (x86)\Microsoft Visual Studio\2019\Community\VC\Tools\MSVC\14.28.29333\include\vector
; File C:\Program Files (x86)\Microsoft Visual Studio\2019\Community\VC\Tools\MSVC\14.28.29333\include\xmemory
; File C:\Program Files (x86)\Microsoft Visual Studio\2019\Community\VC\Tools\MSVC\14.28.29333\include\vector
; File C:\Program Files (x86)\Microsoft Visual Studio\2019\Community\VC\Tools\MSVC\14.28.29333\include\xmemory
; File C:\Program Files (x86)\Microsoft Visual Studio\2019\Community\VC\Tools\MSVC\14.28.29333\include\vector
; File C:\Program Files (x86)\Microsoft Visual Studio\2019\Community\VC\Tools\MSVC\14.28.29333\include\xmemory
; File C:\Program Files (x86)\Microsoft Visual Studio\2019\Community\VC\Tools\MSVC\14.28.29333\include\vector
;	COMDAT ?_Tidy@?$vector@PAVCTextureAnimationCWDecorator@NEffectUpdateDecorator@@V?$allocator@PAVCTextureAnimationCWDecorator@NEffectUpdateDecorator@@@std@@@std@@AAEXXZ
_TEXT	SEGMENT
$T1 = -52						; size = 4
__Ptr$ = -48						; size = 4
__Count$ = -44						; size = 4
$T2 = -40						; size = 4
__First$ = -36						; size = 4
__Last$ = -32						; size = 4
$T3 = -28						; size = 4
$T4 = -24						; size = 4
__Myend$ = -20						; size = 4
__Mylast$ = -16						; size = 4
_this$ = -12						; size = 4
__My_data$ = -8						; size = 4
__Myfirst$ = -4						; size = 4
?_Tidy@?$vector@PAVCTextureAnimationCWDecorator@NEffectUpdateDecorator@@V?$allocator@PAVCTextureAnimationCWDecorator@NEffectUpdateDecorator@@@std@@@std@@AAEXXZ PROC ; std::vector<NEffectUpdateDecorator::CTextureAnimationCWDecorator *,std::allocator<NEffectUpdateDecorator::CTextureAnimationCWDecorator *> >::_Tidy, COMDAT
; _this$ = ecx

; 1686 :     void _Tidy() noexcept { // free all storage

  00000	55		 push	 ebp
  00001	8b ec		 mov	 ebp, esp
  00003	83 ec 34	 sub	 esp, 52			; 00000034H
  00006	89 4d f4	 mov	 DWORD PTR _this$[ebp], ecx

; 1687 :         auto& _My_data    = _Mypair._Myval2;

  00009	8b 45 f4	 mov	 eax, DWORD PTR _this$[ebp]
  0000c	89 45 f8	 mov	 DWORD PTR __My_data$[ebp], eax

; 1688 :         pointer& _Myfirst = _My_data._Myfirst;

  0000f	8b 45 f8	 mov	 eax, DWORD PTR __My_data$[ebp]
  00012	89 45 fc	 mov	 DWORD PTR __Myfirst$[ebp], eax

; 1689 :         pointer& _Mylast  = _My_data._Mylast;

  00015	8b 45 f8	 mov	 eax, DWORD PTR __My_data$[ebp]
  00018	83 c0 04	 add	 eax, 4
  0001b	89 45 f0	 mov	 DWORD PTR __Mylast$[ebp], eax

; 1690 :         pointer& _Myend   = _My_data._Myend;

  0001e	8b 45 f8	 mov	 eax, DWORD PTR __My_data$[ebp]
  00021	83 c0 08	 add	 eax, 8
  00024	89 45 ec	 mov	 DWORD PTR __Myend$[ebp], eax

; 1691 : 
; 1692 :         _My_data._Orphan_all();
; 1693 : 
; 1694 :         if (_Myfirst) { // destroy and deallocate old array

  00027	8b 45 fc	 mov	 eax, DWORD PTR __Myfirst$[ebp]
  0002a	83 38 00	 cmp	 DWORD PTR [eax], 0
  0002d	74 74		 je	 SHORT $LN3@Tidy

; 1695 :             _Destroy(_Myfirst, _Mylast);

  0002f	8b 45 f0	 mov	 eax, DWORD PTR __Mylast$[ebp]
  00032	8b 00		 mov	 eax, DWORD PTR [eax]
  00034	89 45 e0	 mov	 DWORD PTR __Last$[ebp], eax
  00037	8b 45 fc	 mov	 eax, DWORD PTR __Myfirst$[ebp]
  0003a	8b 00		 mov	 eax, DWORD PTR [eax]
  0003c	89 45 dc	 mov	 DWORD PTR __First$[ebp], eax

; 1733 :         return _Mypair._Get_first();

  0003f	8b 45 f4	 mov	 eax, DWORD PTR _this$[ebp]
; File C:\Program Files (x86)\Microsoft Visual Studio\2019\Community\VC\Tools\MSVC\14.28.29333\include\xmemory

; 1347 :         return *this;

  00042	89 45 e8	 mov	 DWORD PTR $T4[ebp], eax
; File C:\Program Files (x86)\Microsoft Visual Studio\2019\Community\VC\Tools\MSVC\14.28.29333\include\vector

; 1733 :         return _Mypair._Get_first();

  00045	8b 45 e8	 mov	 eax, DWORD PTR $T4[ebp]
  00048	89 45 e4	 mov	 DWORD PTR $T3[ebp], eax

; 1612 :         _Destroy_range(_First, _Last, _Getal());

  0004b	ff 75 e4	 push	 DWORD PTR $T3[ebp]
  0004e	ff 75 e0	 push	 DWORD PTR __Last$[ebp]
  00051	ff 75 dc	 push	 DWORD PTR __First$[ebp]
  00054	e8 00 00 00 00	 call	 ??$_Destroy_range@V?$allocator@PAVCTextureAnimationCWDecorator@NEffectUpdateDecorator@@@std@@@std@@YAXPAPAVCTextureAnimationCWDecorator@NEffectUpdateDecorator@@QAPAV12@AAV?$allocator@PAVCTextureAnimationCWDecorator@NEffectUpdateDecorator@@@0@@Z ; std::_Destroy_range<std::allocator<NEffectUpdateDecorator::CTextureAnimationCWDecorator *> >
  00059	83 c4 0c	 add	 esp, 12			; 0000000cH

; 1733 :         return _Mypair._Get_first();

  0005c	8b 45 f4	 mov	 eax, DWORD PTR _this$[ebp]
; File C:\Program Files (x86)\Microsoft Visual Studio\2019\Community\VC\Tools\MSVC\14.28.29333\include\xmemory

; 1347 :         return *this;

  0005f	89 45 d8	 mov	 DWORD PTR $T2[ebp], eax
; File C:\Program Files (x86)\Microsoft Visual Studio\2019\Community\VC\Tools\MSVC\14.28.29333\include\vector

; 1733 :         return _Mypair._Get_first();

  00062	8b 45 d8	 mov	 eax, DWORD PTR $T2[ebp]
  00065	89 45 cc	 mov	 DWORD PTR $T1[ebp], eax

; 1696 :             _Getal().deallocate(_Myfirst, static_cast<size_type>(_Myend - _Myfirst));

  00068	8b 45 ec	 mov	 eax, DWORD PTR __Myend$[ebp]
  0006b	8b 4d fc	 mov	 ecx, DWORD PTR __Myfirst$[ebp]
  0006e	8b 00		 mov	 eax, DWORD PTR [eax]
  00070	2b 01		 sub	 eax, DWORD PTR [ecx]
  00072	c1 f8 02	 sar	 eax, 2
  00075	89 45 d4	 mov	 DWORD PTR __Count$[ebp], eax
  00078	8b 45 fc	 mov	 eax, DWORD PTR __Myfirst$[ebp]
  0007b	8b 00		 mov	 eax, DWORD PTR [eax]
  0007d	89 45 d0	 mov	 DWORD PTR __Ptr$[ebp], eax
; File C:\Program Files (x86)\Microsoft Visual Studio\2019\Community\VC\Tools\MSVC\14.28.29333\include\xmemory

; 810  :         _Deallocate<_New_alignof<_Ty>>(_Ptr, sizeof(_Ty) * _Count);

  00080	8b 45 d4	 mov	 eax, DWORD PTR __Count$[ebp]
  00083	c1 e0 02	 shl	 eax, 2
  00086	50		 push	 eax
  00087	ff 75 d0	 push	 DWORD PTR __Ptr$[ebp]
  0008a	e8 00 00 00 00	 call	 ??$_Deallocate@$07$0A@@std@@YAXPAXI@Z ; std::_Deallocate<8,0>
  0008f	59		 pop	 ecx
  00090	59		 pop	 ecx
; File C:\Program Files (x86)\Microsoft Visual Studio\2019\Community\VC\Tools\MSVC\14.28.29333\include\vector

; 1698 :             _Myfirst = pointer();

  00091	8b 45 fc	 mov	 eax, DWORD PTR __Myfirst$[ebp]
  00094	83 20 00	 and	 DWORD PTR [eax], 0

; 1699 :             _Mylast  = pointer();

  00097	8b 45 f0	 mov	 eax, DWORD PTR __Mylast$[ebp]
  0009a	83 20 00	 and	 DWORD PTR [eax], 0

; 1700 :             _Myend   = pointer();

  0009d	8b 45 ec	 mov	 eax, DWORD PTR __Myend$[ebp]
  000a0	83 20 00	 and	 DWORD PTR [eax], 0
$LN3@Tidy:

; 1701 :         }
; 1702 :     }

  000a3	c9		 leave
  000a4	c3		 ret	 0
?_Tidy@?$vector@PAVCTextureAnimationCWDecorator@NEffectUpdateDecorator@@V?$allocator@PAVCTextureAnimationCWDecorator@NEffectUpdateDecorator@@@std@@@std@@AAEXXZ ENDP ; std::vector<NEffectUpdateDecorator::CTextureAnimationCWDecorator *,std::allocator<NEffectUpdateDecorator::CTextureAnimationCWDecorator *> >::_Tidy
_TEXT	ENDS
; Function compile flags: /Odspy
; File C:\Program Files (x86)\Microsoft Visual Studio\2019\Community\VC\Tools\MSVC\14.28.29333\include\vector
; File C:\Program Files (x86)\Microsoft Visual Studio\2019\Community\VC\Tools\MSVC\14.28.29333\include\xmemory
; File C:\Program Files (x86)\Microsoft Visual Studio\2019\Community\VC\Tools\MSVC\14.28.29333\include\vector
;	COMDAT ?clear@?$vector@PAVCTextureAnimationCWDecorator@NEffectUpdateDecorator@@V?$allocator@PAVCTextureAnimationCWDecorator@NEffectUpdateDecorator@@@std@@@std@@QAEXXZ
_TEXT	SEGMENT
__First$ = -32						; size = 4
__Last$ = -28						; size = 4
$T1 = -24						; size = 4
$T2 = -20						; size = 4
__Myfirst$ = -16					; size = 4
__Mylast$ = -12						; size = 4
_this$ = -8						; size = 4
__My_data$ = -4						; size = 4
?clear@?$vector@PAVCTextureAnimationCWDecorator@NEffectUpdateDecorator@@V?$allocator@PAVCTextureAnimationCWDecorator@NEffectUpdateDecorator@@@std@@@std@@QAEXXZ PROC ; std::vector<NEffectUpdateDecorator::CTextureAnimationCWDecorator *,std::allocator<NEffectUpdateDecorator::CTextureAnimationCWDecorator *> >::clear, COMDAT
; _this$ = ecx

; 1383 :     void clear() noexcept { // erase all

  00000	55		 push	 ebp
  00001	8b ec		 mov	 ebp, esp
  00003	83 ec 20	 sub	 esp, 32			; 00000020H
  00006	89 4d f8	 mov	 DWORD PTR _this$[ebp], ecx

; 1384 :         auto& _My_data    = _Mypair._Myval2;

  00009	8b 45 f8	 mov	 eax, DWORD PTR _this$[ebp]
  0000c	89 45 fc	 mov	 DWORD PTR __My_data$[ebp], eax

; 1385 :         pointer& _Myfirst = _My_data._Myfirst;

  0000f	8b 45 fc	 mov	 eax, DWORD PTR __My_data$[ebp]
  00012	89 45 f0	 mov	 DWORD PTR __Myfirst$[ebp], eax

; 1386 :         pointer& _Mylast  = _My_data._Mylast;

  00015	8b 45 fc	 mov	 eax, DWORD PTR __My_data$[ebp]
  00018	83 c0 04	 add	 eax, 4
  0001b	89 45 f4	 mov	 DWORD PTR __Mylast$[ebp], eax

; 1387 : 
; 1388 :         _My_data._Orphan_all();
; 1389 :         _Destroy(_Myfirst, _Mylast);

  0001e	8b 45 f4	 mov	 eax, DWORD PTR __Mylast$[ebp]
  00021	8b 00		 mov	 eax, DWORD PTR [eax]
  00023	89 45 e4	 mov	 DWORD PTR __Last$[ebp], eax
  00026	8b 45 f0	 mov	 eax, DWORD PTR __Myfirst$[ebp]
  00029	8b 00		 mov	 eax, DWORD PTR [eax]
  0002b	89 45 e0	 mov	 DWORD PTR __First$[ebp], eax

; 1733 :         return _Mypair._Get_first();

  0002e	8b 45 f8	 mov	 eax, DWORD PTR _this$[ebp]
; File C:\Program Files (x86)\Microsoft Visual Studio\2019\Community\VC\Tools\MSVC\14.28.29333\include\xmemory

; 1347 :         return *this;

  00031	89 45 ec	 mov	 DWORD PTR $T2[ebp], eax
; File C:\Program Files (x86)\Microsoft Visual Studio\2019\Community\VC\Tools\MSVC\14.28.29333\include\vector

; 1733 :         return _Mypair._Get_first();

  00034	8b 45 ec	 mov	 eax, DWORD PTR $T2[ebp]
  00037	89 45 e8	 mov	 DWORD PTR $T1[ebp], eax

; 1612 :         _Destroy_range(_First, _Last, _Getal());

  0003a	ff 75 e8	 push	 DWORD PTR $T1[ebp]
  0003d	ff 75 e4	 push	 DWORD PTR __Last$[ebp]
  00040	ff 75 e0	 push	 DWORD PTR __First$[ebp]
  00043	e8 00 00 00 00	 call	 ??$_Destroy_range@V?$allocator@PAVCTextureAnimationCWDecorator@NEffectUpdateDecorator@@@std@@@std@@YAXPAPAVCTextureAnimationCWDecorator@NEffectUpdateDecorator@@QAPAV12@AAV?$allocator@PAVCTextureAnimationCWDecorator@NEffectUpdateDecorator@@@0@@Z ; std::_Destroy_range<std::allocator<NEffectUpdateDecorator::CTextureAnimationCWDecorator *> >
  00048	83 c4 0c	 add	 esp, 12			; 0000000cH

; 1390 :         _Mylast = _Myfirst;

  0004b	8b 45 f4	 mov	 eax, DWORD PTR __Mylast$[ebp]
  0004e	8b 4d f0	 mov	 ecx, DWORD PTR __Myfirst$[ebp]
  00051	8b 09		 mov	 ecx, DWORD PTR [ecx]
  00053	89 08		 mov	 DWORD PTR [eax], ecx

; 1391 :     }

  00055	c9		 leave
  00056	c3		 ret	 0
?clear@?$vector@PAVCTextureAnimationCWDecorator@NEffectUpdateDecorator@@V?$allocator@PAVCTextureAnimationCWDecorator@NEffectUpdateDecorator@@@std@@@std@@QAEXXZ ENDP ; std::vector<NEffectUpdateDecorator::CTextureAnimationCWDecorator *,std::allocator<NEffectUpdateDecorator::CTextureAnimationCWDecorator *> >::clear
_TEXT	ENDS
; Function compile flags: /Odspy
; File D:\Metin2 Server Files\mainline\SRC_2014\Metin2Client\eterLib\Pool.h
;	COMDAT ?Delete@?$CDynamicPoolEx@VCTextureAnimationCWDecorator@NEffectUpdateDecorator@@@@KAXPAVCTextureAnimationCWDecorator@NEffectUpdateDecorator@@@Z
_TEXT	SEGMENT
_pkData$ = 8						; size = 4
?Delete@?$CDynamicPoolEx@VCTextureAnimationCWDecorator@NEffectUpdateDecorator@@@@KAXPAVCTextureAnimationCWDecorator@NEffectUpdateDecorator@@@Z PROC ; CDynamicPoolEx<NEffectUpdateDecorator::CTextureAnimationCWDecorator>::Delete, COMDAT

; 223  : 		{

  00000	55		 push	 ebp
  00001	8b ec		 mov	 ebp, esp

; 224  : 			::operator delete(pkData);

  00003	ff 75 08	 push	 DWORD PTR _pkData$[ebp]
  00006	e8 00 00 00 00	 call	 ??3@YAXPAX@Z		; operator delete
  0000b	59		 pop	 ecx

; 225  : 		}

  0000c	5d		 pop	 ebp
  0000d	c3		 ret	 0
?Delete@?$CDynamicPoolEx@VCTextureAnimationCWDecorator@NEffectUpdateDecorator@@@@KAXPAVCTextureAnimationCWDecorator@NEffectUpdateDecorator@@@Z ENDP ; CDynamicPoolEx<NEffectUpdateDecorator::CTextureAnimationCWDecorator>::Delete
_TEXT	ENDS
; Function compile flags: /Odspy
; File D:\Metin2 Server Files\mainline\SRC_2014\Metin2Client\eterLib\Pool.h
; File C:\Program Files (x86)\Microsoft Visual Studio\2019\Community\VC\Tools\MSVC\14.28.29333\include\vector
; File C:\Program Files (x86)\Microsoft Visual Studio\2019\Community\VC\Tools\MSVC\14.28.29333\include\xstddef
; File C:\Program Files (x86)\Microsoft Visual Studio\2019\Community\VC\Tools\MSVC\14.28.29333\include\vector
; File C:\Program Files (x86)\Microsoft Visual Studio\2019\Community\VC\Tools\MSVC\14.28.29333\include\xstddef
; File C:\Program Files (x86)\Microsoft Visual Studio\2019\Community\VC\Tools\MSVC\14.28.29333\include\vector
; File D:\Metin2 Server Files\mainline\SRC_2014\Metin2Client\eterLib\Pool.h
;	COMDAT ?Destroy@?$CDynamicPoolEx@VCTextureAnimationCWDecorator@NEffectUpdateDecorator@@@@QAEXXZ
_TEXT	SEGMENT
$T1 = -44						; size = 4
$T2 = -40						; size = 4
$T3 = -36						; size = 4
$T4 = -32						; size = 4
$T5 = -28						; size = 4
___param0$ = -24					; size = 4
$T6 = -20						; size = 4
___param0$ = -16					; size = 4
__My_data$7 = -12					; size = 4
__My_data$8 = -8					; size = 4
_this$ = -4						; size = 4
?Destroy@?$CDynamicPoolEx@VCTextureAnimationCWDecorator@NEffectUpdateDecorator@@@@QAEXXZ PROC ; CDynamicPoolEx<NEffectUpdateDecorator::CTextureAnimationCWDecorator>::Destroy, COMDAT
; _this$ = ecx

; 150  : 		{

  00000	55		 push	 ebp
  00001	8b ec		 mov	 ebp, esp
  00003	83 ec 2c	 sub	 esp, 44			; 0000002cH
  00006	89 4d fc	 mov	 DWORD PTR _this$[ebp], ecx
; File C:\Program Files (x86)\Microsoft Visual Studio\2019\Community\VC\Tools\MSVC\14.28.29333\include\vector

; 1420 :         auto& _My_data = _Mypair._Myval2;

  00009	8b 45 fc	 mov	 eax, DWORD PTR _this$[ebp]
  0000c	83 c0 04	 add	 eax, 4
  0000f	89 45 f8	 mov	 DWORD PTR __My_data$8[ebp], eax
; File C:\Program Files (x86)\Microsoft Visual Studio\2019\Community\VC\Tools\MSVC\14.28.29333\include\xstddef

; 275  :     return __builtin_addressof(_Val);

  00012	8b 45 f8	 mov	 eax, DWORD PTR __My_data$8[ebp]
  00015	89 45 d8	 mov	 DWORD PTR $T2[ebp], eax
; File C:\Program Files (x86)\Microsoft Visual Studio\2019\Community\VC\Tools\MSVC\14.28.29333\include\vector

; 1421 :         return iterator(_My_data._Mylast, _STD addressof(_My_data));

  00018	8b 45 f8	 mov	 eax, DWORD PTR __My_data$8[ebp]
  0001b	8b 40 04	 mov	 eax, DWORD PTR [eax+4]
  0001e	89 45 f0	 mov	 DWORD PTR ___param0$[ebp], eax

; 42   :     _Vector_const_iterator(_Tptr _Parg, const _Container_base* _Pvector) noexcept : _Ptr(_Parg) {

  00021	8b 45 f0	 mov	 eax, DWORD PTR ___param0$[ebp]
  00024	89 45 ec	 mov	 DWORD PTR $T6[ebp], eax

; 1421 :         return iterator(_My_data._Mylast, _STD addressof(_My_data));

  00027	8d 45 ec	 lea	 eax, DWORD PTR $T6[ebp]
  0002a	89 45 e0	 mov	 DWORD PTR $T4[ebp], eax

; 1410 :         auto& _My_data = _Mypair._Myval2;

  0002d	8b 45 fc	 mov	 eax, DWORD PTR _this$[ebp]
  00030	83 c0 04	 add	 eax, 4
  00033	89 45 f4	 mov	 DWORD PTR __My_data$7[ebp], eax
; File C:\Program Files (x86)\Microsoft Visual Studio\2019\Community\VC\Tools\MSVC\14.28.29333\include\xstddef

; 275  :     return __builtin_addressof(_Val);

  00036	8b 45 f4	 mov	 eax, DWORD PTR __My_data$7[ebp]
  00039	89 45 d4	 mov	 DWORD PTR $T1[ebp], eax
; File C:\Program Files (x86)\Microsoft Visual Studio\2019\Community\VC\Tools\MSVC\14.28.29333\include\vector

; 1411 :         return iterator(_My_data._Myfirst, _STD addressof(_My_data));

  0003c	8b 45 f4	 mov	 eax, DWORD PTR __My_data$7[ebp]
  0003f	8b 00		 mov	 eax, DWORD PTR [eax]
  00041	89 45 e8	 mov	 DWORD PTR ___param0$[ebp], eax

; 42   :     _Vector_const_iterator(_Tptr _Parg, const _Container_base* _Pvector) noexcept : _Ptr(_Parg) {

  00044	8b 45 e8	 mov	 eax, DWORD PTR ___param0$[ebp]
  00047	89 45 e4	 mov	 DWORD PTR $T5[ebp], eax

; 1411 :         return iterator(_My_data._Myfirst, _STD addressof(_My_data));

  0004a	8d 45 e4	 lea	 eax, DWORD PTR $T5[ebp]
  0004d	89 45 dc	 mov	 DWORD PTR $T3[ebp], eax
; File D:\Metin2 Server Files\mainline\SRC_2014\Metin2Client\eterLib\Pool.h

; 160  : 			std::for_each(m_kVct_pkData.begin(), m_kVct_pkData.end(), Delete);

  00050	68 00 00 00 00	 push	 OFFSET ?Delete@?$CDynamicPoolEx@VCTextureAnimationCWDecorator@NEffectUpdateDecorator@@@@KAXPAVCTextureAnimationCWDecorator@NEffectUpdateDecorator@@@Z ; CDynamicPoolEx<NEffectUpdateDecorator::CTextureAnimationCWDecorator>::Delete
  00055	8b 45 e0	 mov	 eax, DWORD PTR $T4[ebp]
  00058	ff 30		 push	 DWORD PTR [eax]
  0005a	8b 45 dc	 mov	 eax, DWORD PTR $T3[ebp]
  0005d	ff 30		 push	 DWORD PTR [eax]
  0005f	e8 00 00 00 00	 call	 ??$for_each@V?$_Vector_iterator@V?$_Vector_val@U?$_Simple_types@PAVCTextureAnimationCWDecorator@NEffectUpdateDecorator@@@std@@@std@@@std@@P6AXPAVCTextureAnimationCWDecorator@NEffectUpdateDecorator@@@Z@std@@YAP6AXPAVCTextureAnimationCWDecorator@NEffectUpdateDecorator@@@ZV?$_Vector_iterator@V?$_Vector_val@U?$_Simple_types@PAVCTextureAnimationCWDecorator@NEffectUpdateDecorator@@@std@@@std@@@0@1P6AX0@Z@Z ; std::for_each<std::_Vector_iterator<std::_Vector_val<std::_Simple_types<NEffectUpdateDecorator::CTextureAnimationCWDecorator *> > >,void (__cdecl*)(NEffectUpdateDecorator::CTextureAnimationCWDecorator *)>
  00064	83 c4 0c	 add	 esp, 12			; 0000000cH

; 161  : 			m_kVct_pkData.clear();

  00067	8b 4d fc	 mov	 ecx, DWORD PTR _this$[ebp]
  0006a	83 c1 04	 add	 ecx, 4
  0006d	e8 00 00 00 00	 call	 ?clear@?$vector@PAVCTextureAnimationCWDecorator@NEffectUpdateDecorator@@V?$allocator@PAVCTextureAnimationCWDecorator@NEffectUpdateDecorator@@@std@@@std@@QAEXXZ ; std::vector<NEffectUpdateDecorator::CTextureAnimationCWDecorator *,std::allocator<NEffectUpdateDecorator::CTextureAnimationCWDecorator *> >::clear

; 162  : 			m_kVct_pkFree.clear();

  00072	8b 4d fc	 mov	 ecx, DWORD PTR _this$[ebp]
  00075	83 c1 10	 add	 ecx, 16			; 00000010H
  00078	e8 00 00 00 00	 call	 ?clear@?$vector@PAVCTextureAnimationCWDecorator@NEffectUpdateDecorator@@V?$allocator@PAVCTextureAnimationCWDecorator@NEffectUpdateDecorator@@@std@@@std@@QAEXXZ ; std::vector<NEffectUpdateDecorator::CTextureAnimationCWDecorator *,std::allocator<NEffectUpdateDecorator::CTextureAnimationCWDecorator *> >::clear

; 163  : 		}

  0007d	c9		 leave
  0007e	c3		 ret	 0
?Destroy@?$CDynamicPoolEx@VCTextureAnimationCWDecorator@NEffectUpdateDecorator@@@@QAEXXZ ENDP ; CDynamicPoolEx<NEffectUpdateDecorator::CTextureAnimationCWDecorator>::Destroy
_TEXT	ENDS
; Function compile flags: /Odspy
; File D:\Metin2 Server Files\mainline\SRC_2014\Metin2Client\eterLib\Pool.h
; File C:\Program Files (x86)\Microsoft Visual Studio\2019\Community\VC\Tools\MSVC\14.28.29333\include\vector
; File D:\Metin2 Server Files\mainline\SRC_2014\Metin2Client\eterLib\Pool.h
; File C:\Program Files (x86)\Microsoft Visual Studio\2019\Community\VC\Tools\MSVC\14.28.29333\include\vector
; File D:\Metin2 Server Files\mainline\SRC_2014\Metin2Client\eterLib\Pool.h
;	COMDAT ??1?$CDynamicPoolEx@VCTextureAnimationCWDecorator@NEffectUpdateDecorator@@@@UAE@XZ
_TEXT	SEGMENT
_this$ = -16						; size = 4
__$EHRec$ = -12						; size = 12
??1?$CDynamicPoolEx@VCTextureAnimationCWDecorator@NEffectUpdateDecorator@@@@UAE@XZ PROC ; CDynamicPoolEx<NEffectUpdateDecorator::CTextureAnimationCWDecorator>::~CDynamicPoolEx<NEffectUpdateDecorator::CTextureAnimationCWDecorator>, COMDAT
; _this$ = ecx

; 132  : 		{

  00000	55		 push	 ebp
  00001	8b ec		 mov	 ebp, esp
  00003	6a ff		 push	 -1
  00005	68 00 00 00 00	 push	 __ehhandler$??1?$CDynamicPoolEx@VCTextureAnimationCWDecorator@NEffectUpdateDecorator@@@@UAE@XZ
  0000a	64 a1 00 00 00
	00		 mov	 eax, DWORD PTR fs:0
  00010	50		 push	 eax
  00011	51		 push	 ecx
  00012	a1 00 00 00 00	 mov	 eax, DWORD PTR ___security_cookie
  00017	33 c5		 xor	 eax, ebp
  00019	50		 push	 eax
  0001a	8d 45 f4	 lea	 eax, DWORD PTR __$EHRec$[ebp]
  0001d	64 a3 00 00 00
	00		 mov	 DWORD PTR fs:0, eax
  00023	89 4d f0	 mov	 DWORD PTR _this$[ebp], ecx
  00026	8b 45 f0	 mov	 eax, DWORD PTR _this$[ebp]
  00029	c7 00 00 00 00
	00		 mov	 DWORD PTR [eax], OFFSET ??_7?$CDynamicPoolEx@VCTextureAnimationCWDecorator@NEffectUpdateDecorator@@@@6B@

; 133  : 			assert(m_kVct_pkFree.size()==m_kVct_pkData.size());
; 134  : 			Destroy();

  0002f	8b 4d f0	 mov	 ecx, DWORD PTR _this$[ebp]
  00032	e8 00 00 00 00	 call	 ?Destroy@?$CDynamicPoolEx@VCTextureAnimationCWDecorator@NEffectUpdateDecorator@@@@QAEXXZ ; CDynamicPoolEx<NEffectUpdateDecorator::CTextureAnimationCWDecorator>::Destroy

; 142  : 		}

  00037	8b 4d f0	 mov	 ecx, DWORD PTR _this$[ebp]
  0003a	83 c1 10	 add	 ecx, 16			; 00000010H
; File C:\Program Files (x86)\Microsoft Visual Studio\2019\Community\VC\Tools\MSVC\14.28.29333\include\vector

; 673  :         _Tidy();

  0003d	e8 00 00 00 00	 call	 ?_Tidy@?$vector@PAVCTextureAnimationCWDecorator@NEffectUpdateDecorator@@V?$allocator@PAVCTextureAnimationCWDecorator@NEffectUpdateDecorator@@@std@@@std@@AAEXXZ ; std::vector<NEffectUpdateDecorator::CTextureAnimationCWDecorator *,std::allocator<NEffectUpdateDecorator::CTextureAnimationCWDecorator *> >::_Tidy
; File D:\Metin2 Server Files\mainline\SRC_2014\Metin2Client\eterLib\Pool.h

; 142  : 		}

  00042	8b 4d f0	 mov	 ecx, DWORD PTR _this$[ebp]
  00045	83 c1 04	 add	 ecx, 4
; File C:\Program Files (x86)\Microsoft Visual Studio\2019\Community\VC\Tools\MSVC\14.28.29333\include\vector

; 673  :         _Tidy();

  00048	e8 00 00 00 00	 call	 ?_Tidy@?$vector@PAVCTextureAnimationCWDecorator@NEffectUpdateDecorator@@V?$allocator@PAVCTextureAnimationCWDecorator@NEffectUpdateDecorator@@@std@@@std@@AAEXXZ ; std::vector<NEffectUpdateDecorator::CTextureAnimationCWDecorator *,std::allocator<NEffectUpdateDecorator::CTextureAnimationCWDecorator *> >::_Tidy
; File D:\Metin2 Server Files\mainline\SRC_2014\Metin2Client\eterLib\Pool.h

; 142  : 		}

  0004d	8b 4d f4	 mov	 ecx, DWORD PTR __$EHRec$[ebp]
  00050	64 89 0d 00 00
	00 00		 mov	 DWORD PTR fs:0, ecx
  00057	59		 pop	 ecx
  00058	c9		 leave
  00059	c3		 ret	 0
  0005a	cc		 int	 3
  0005b	cc		 int	 3
  0005c	cc		 int	 3
  0005d	cc		 int	 3
  0005e	cc		 int	 3
_TEXT	ENDS
;	COMDAT text$x
text$x	SEGMENT
__ehhandler$??1?$CDynamicPoolEx@VCTextureAnimationCWDecorator@NEffectUpdateDecorator@@@@UAE@XZ:
  00000	90		 npad	 1
  00001	90		 npad	 1
  00002	8b 54 24 08	 mov	 edx, DWORD PTR [esp+8]
  00006	8d 42 0c	 lea	 eax, DWORD PTR [edx+12]
  00009	8b 4a f8	 mov	 ecx, DWORD PTR [edx-8]
  0000c	33 c8		 xor	 ecx, eax
  0000e	e8 00 00 00 00	 call	 @__security_check_cookie@4
  00013	b8 00 00 00 00	 mov	 eax, OFFSET __ehfuncinfo$??1?$CDynamicPoolEx@VCTextureAnimationCWDecorator@NEffectUpdateDecorator@@@@UAE@XZ
  00018	e9 00 00 00 00	 jmp	 ___CxxFrameHandler3
text$x	ENDS
??1?$CDynamicPoolEx@VCTextureAnimationCWDecorator@NEffectUpdateDecorator@@@@UAE@XZ ENDP ; CDynamicPoolEx<NEffectUpdateDecorator::CTextureAnimationCWDecorator>::~CDynamicPoolEx<NEffectUpdateDecorator::CTextureAnimationCWDecorator>
; Function compile flags: /Odspy
; File D:\Metin2 Server Files\mainline\SRC_2014\Metin2Client\eterLib\Pool.h
; File C:\Program Files (x86)\Microsoft Visual Studio\2019\Community\VC\Tools\MSVC\14.28.29333\include\vector
; File C:\Program Files (x86)\Microsoft Visual Studio\2019\Community\VC\Tools\MSVC\14.28.29333\include\xmemory
; File C:\Program Files (x86)\Microsoft Visual Studio\2019\Community\VC\Tools\MSVC\14.28.29333\include\vector
; File D:\Metin2 Server Files\mainline\SRC_2014\Metin2Client\eterLib\Pool.h
; File C:\Program Files (x86)\Microsoft Visual Studio\2019\Community\VC\Tools\MSVC\14.28.29333\include\vector
; File C:\Program Files (x86)\Microsoft Visual Studio\2019\Community\VC\Tools\MSVC\14.28.29333\include\xmemory
; File C:\Program Files (x86)\Microsoft Visual Studio\2019\Community\VC\Tools\MSVC\14.28.29333\include\vector
; File D:\Metin2 Server Files\mainline\SRC_2014\Metin2Client\eterLib\Pool.h
;	COMDAT ??0?$CDynamicPoolEx@VCTextureAnimationCWDecorator@NEffectUpdateDecorator@@@@QAE@XZ
_TEXT	SEGMENT
_this$ = -28						; size = 4
_this$ = -24						; size = 4
_this$ = -20						; size = 4
_this$ = -16						; size = 4
_this$1 = -12						; size = 4
_this$2 = -8						; size = 4
_this$ = -4						; size = 4
??0?$CDynamicPoolEx@VCTextureAnimationCWDecorator@NEffectUpdateDecorator@@@@QAE@XZ PROC ; CDynamicPoolEx<NEffectUpdateDecorator::CTextureAnimationCWDecorator>::CDynamicPoolEx<NEffectUpdateDecorator::CTextureAnimationCWDecorator>, COMDAT
; _this$ = ecx

; 126  : 		CDynamicPoolEx()

  00000	55		 push	 ebp
  00001	8b ec		 mov	 ebp, esp
  00003	83 ec 1c	 sub	 esp, 28			; 0000001cH
  00006	89 4d fc	 mov	 DWORD PTR _this$[ebp], ecx

; 127  : 		{

  00009	8b 45 fc	 mov	 eax, DWORD PTR _this$[ebp]
  0000c	c7 00 00 00 00
	00		 mov	 DWORD PTR [eax], OFFSET ??_7?$CDynamicPoolEx@VCTextureAnimationCWDecorator@NEffectUpdateDecorator@@@@6B@
  00012	8b 45 fc	 mov	 eax, DWORD PTR _this$[ebp]
  00015	83 c0 04	 add	 eax, 4
  00018	89 45 f0	 mov	 DWORD PTR _this$[ebp], eax
; File C:\Program Files (x86)\Microsoft Visual Studio\2019\Community\VC\Tools\MSVC\14.28.29333\include\vector

; 445  :     vector() noexcept(is_nothrow_default_constructible_v<_Alty>) : _Mypair(_Zero_then_variadic_args_t{}) {

  0001b	8b 45 f0	 mov	 eax, DWORD PTR _this$[ebp]
  0001e	89 45 ec	 mov	 DWORD PTR _this$[ebp], eax
; File C:\Program Files (x86)\Microsoft Visual Studio\2019\Community\VC\Tools\MSVC\14.28.29333\include\xmemory

; 1339 :         : _Ty1(), _Myval2(_STD forward<_Other2>(_Val2)...) {}

  00021	8b 45 ec	 mov	 eax, DWORD PTR _this$[ebp]
  00024	89 45 f8	 mov	 DWORD PTR _this$2[ebp], eax
; File C:\Program Files (x86)\Microsoft Visual Studio\2019\Community\VC\Tools\MSVC\14.28.29333\include\vector

; 375  :     _Vector_val() noexcept : _Myfirst(), _Mylast(), _Myend() {}

  00027	8b 45 f8	 mov	 eax, DWORD PTR _this$2[ebp]
  0002a	83 20 00	 and	 DWORD PTR [eax], 0
  0002d	8b 45 f8	 mov	 eax, DWORD PTR _this$2[ebp]
  00030	83 60 04 00	 and	 DWORD PTR [eax+4], 0
  00034	8b 45 f8	 mov	 eax, DWORD PTR _this$2[ebp]
  00037	83 60 08 00	 and	 DWORD PTR [eax+8], 0
; File D:\Metin2 Server Files\mainline\SRC_2014\Metin2Client\eterLib\Pool.h

; 127  : 		{

  0003b	8b 45 fc	 mov	 eax, DWORD PTR _this$[ebp]
  0003e	83 c0 10	 add	 eax, 16			; 00000010H
  00041	89 45 e8	 mov	 DWORD PTR _this$[ebp], eax
; File C:\Program Files (x86)\Microsoft Visual Studio\2019\Community\VC\Tools\MSVC\14.28.29333\include\vector

; 445  :     vector() noexcept(is_nothrow_default_constructible_v<_Alty>) : _Mypair(_Zero_then_variadic_args_t{}) {

  00044	8b 45 e8	 mov	 eax, DWORD PTR _this$[ebp]
  00047	89 45 e4	 mov	 DWORD PTR _this$[ebp], eax
; File C:\Program Files (x86)\Microsoft Visual Studio\2019\Community\VC\Tools\MSVC\14.28.29333\include\xmemory

; 1339 :         : _Ty1(), _Myval2(_STD forward<_Other2>(_Val2)...) {}

  0004a	8b 45 e4	 mov	 eax, DWORD PTR _this$[ebp]
  0004d	89 45 f4	 mov	 DWORD PTR _this$1[ebp], eax
; File C:\Program Files (x86)\Microsoft Visual Studio\2019\Community\VC\Tools\MSVC\14.28.29333\include\vector

; 375  :     _Vector_val() noexcept : _Myfirst(), _Mylast(), _Myend() {}

  00050	8b 45 f4	 mov	 eax, DWORD PTR _this$1[ebp]
  00053	83 20 00	 and	 DWORD PTR [eax], 0
  00056	8b 45 f4	 mov	 eax, DWORD PTR _this$1[ebp]
  00059	83 60 04 00	 and	 DWORD PTR [eax+4], 0
  0005d	8b 45 f4	 mov	 eax, DWORD PTR _this$1[ebp]
  00060	83 60 08 00	 and	 DWORD PTR [eax+8], 0
; File D:\Metin2 Server Files\mainline\SRC_2014\Metin2Client\eterLib\Pool.h

; 128  : 			m_uInitCapacity=0;

  00064	8b 45 fc	 mov	 eax, DWORD PTR _this$[ebp]
  00067	83 60 1c 00	 and	 DWORD PTR [eax+28], 0

; 129  : 			m_uUsedCapacity=0;

  0006b	8b 45 fc	 mov	 eax, DWORD PTR _this$[ebp]
  0006e	83 60 20 00	 and	 DWORD PTR [eax+32], 0

; 130  : 		}

  00072	8b 45 fc	 mov	 eax, DWORD PTR _this$[ebp]
  00075	c9		 leave
  00076	c3		 ret	 0
??0?$CDynamicPoolEx@VCTextureAnimationCWDecorator@NEffectUpdateDecorator@@@@QAE@XZ ENDP ; CDynamicPoolEx<NEffectUpdateDecorator::CTextureAnimationCWDecorator>::CDynamicPoolEx<NEffectUpdateDecorator::CTextureAnimationCWDecorator>
_TEXT	ENDS
; Function compile flags: /Odspy
;	COMDAT ??_G?$CDynamicPoolEx@VCTextureAnimationCCWDecorator@NEffectUpdateDecorator@@@@UAEPAXI@Z
_TEXT	SEGMENT
_this$ = -4						; size = 4
___flags$ = 8						; size = 4
??_G?$CDynamicPoolEx@VCTextureAnimationCCWDecorator@NEffectUpdateDecorator@@@@UAEPAXI@Z PROC ; CDynamicPoolEx<NEffectUpdateDecorator::CTextureAnimationCCWDecorator>::`scalar deleting destructor', COMDAT
; _this$ = ecx
  00000	55		 push	 ebp
  00001	8b ec		 mov	 ebp, esp
  00003	51		 push	 ecx
  00004	89 4d fc	 mov	 DWORD PTR _this$[ebp], ecx
  00007	8b 4d fc	 mov	 ecx, DWORD PTR _this$[ebp]
  0000a	e8 00 00 00 00	 call	 ??1?$CDynamicPoolEx@VCTextureAnimationCCWDecorator@NEffectUpdateDecorator@@@@UAE@XZ ; CDynamicPoolEx<NEffectUpdateDecorator::CTextureAnimationCCWDecorator>::~CDynamicPoolEx<NEffectUpdateDecorator::CTextureAnimationCCWDecorator>
  0000f	8b 45 08	 mov	 eax, DWORD PTR ___flags$[ebp]
  00012	83 e0 01	 and	 eax, 1
  00015	74 0c		 je	 SHORT $LN2@scalar
  00017	6a 24		 push	 36			; 00000024H
  00019	ff 75 fc	 push	 DWORD PTR _this$[ebp]
  0001c	e8 00 00 00 00	 call	 ??3@YAXPAXI@Z		; operator delete
  00021	59		 pop	 ecx
  00022	59		 pop	 ecx
$LN2@scalar:
  00023	8b 45 fc	 mov	 eax, DWORD PTR _this$[ebp]
  00026	c9		 leave
  00027	c2 04 00	 ret	 4
??_G?$CDynamicPoolEx@VCTextureAnimationCCWDecorator@NEffectUpdateDecorator@@@@UAEPAXI@Z ENDP ; CDynamicPoolEx<NEffectUpdateDecorator::CTextureAnimationCCWDecorator>::`scalar deleting destructor'
_TEXT	ENDS
; Function compile flags: /Odspy
; File C:\Program Files (x86)\Microsoft Visual Studio\2019\Community\VC\Tools\MSVC\14.28.29333\include\vector
; File C:\Program Files (x86)\Microsoft Visual Studio\2019\Community\VC\Tools\MSVC\14.28.29333\include\xmemory
; File C:\Program Files (x86)\Microsoft Visual Studio\2019\Community\VC\Tools\MSVC\14.28.29333\include\vector
; File C:\Program Files (x86)\Microsoft Visual Studio\2019\Community\VC\Tools\MSVC\14.28.29333\include\xmemory
; File C:\Program Files (x86)\Microsoft Visual Studio\2019\Community\VC\Tools\MSVC\14.28.29333\include\vector
; File C:\Program Files (x86)\Microsoft Visual Studio\2019\Community\VC\Tools\MSVC\14.28.29333\include\xmemory
; File C:\Program Files (x86)\Microsoft Visual Studio\2019\Community\VC\Tools\MSVC\14.28.29333\include\vector
;	COMDAT ?_Tidy@?$vector@PAVCTextureAnimationCCWDecorator@NEffectUpdateDecorator@@V?$allocator@PAVCTextureAnimationCCWDecorator@NEffectUpdateDecorator@@@std@@@std@@AAEXXZ
_TEXT	SEGMENT
$T1 = -52						; size = 4
__Ptr$ = -48						; size = 4
__Count$ = -44						; size = 4
$T2 = -40						; size = 4
__First$ = -36						; size = 4
__Last$ = -32						; size = 4
$T3 = -28						; size = 4
$T4 = -24						; size = 4
__Myend$ = -20						; size = 4
__Mylast$ = -16						; size = 4
_this$ = -12						; size = 4
__My_data$ = -8						; size = 4
__Myfirst$ = -4						; size = 4
?_Tidy@?$vector@PAVCTextureAnimationCCWDecorator@NEffectUpdateDecorator@@V?$allocator@PAVCTextureAnimationCCWDecorator@NEffectUpdateDecorator@@@std@@@std@@AAEXXZ PROC ; std::vector<NEffectUpdateDecorator::CTextureAnimationCCWDecorator *,std::allocator<NEffectUpdateDecorator::CTextureAnimationCCWDecorator *> >::_Tidy, COMDAT
; _this$ = ecx

; 1686 :     void _Tidy() noexcept { // free all storage

  00000	55		 push	 ebp
  00001	8b ec		 mov	 ebp, esp
  00003	83 ec 34	 sub	 esp, 52			; 00000034H
  00006	89 4d f4	 mov	 DWORD PTR _this$[ebp], ecx

; 1687 :         auto& _My_data    = _Mypair._Myval2;

  00009	8b 45 f4	 mov	 eax, DWORD PTR _this$[ebp]
  0000c	89 45 f8	 mov	 DWORD PTR __My_data$[ebp], eax

; 1688 :         pointer& _Myfirst = _My_data._Myfirst;

  0000f	8b 45 f8	 mov	 eax, DWORD PTR __My_data$[ebp]
  00012	89 45 fc	 mov	 DWORD PTR __Myfirst$[ebp], eax

; 1689 :         pointer& _Mylast  = _My_data._Mylast;

  00015	8b 45 f8	 mov	 eax, DWORD PTR __My_data$[ebp]
  00018	83 c0 04	 add	 eax, 4
  0001b	89 45 f0	 mov	 DWORD PTR __Mylast$[ebp], eax

; 1690 :         pointer& _Myend   = _My_data._Myend;

  0001e	8b 45 f8	 mov	 eax, DWORD PTR __My_data$[ebp]
  00021	83 c0 08	 add	 eax, 8
  00024	89 45 ec	 mov	 DWORD PTR __Myend$[ebp], eax

; 1691 : 
; 1692 :         _My_data._Orphan_all();
; 1693 : 
; 1694 :         if (_Myfirst) { // destroy and deallocate old array

  00027	8b 45 fc	 mov	 eax, DWORD PTR __Myfirst$[ebp]
  0002a	83 38 00	 cmp	 DWORD PTR [eax], 0
  0002d	74 74		 je	 SHORT $LN3@Tidy

; 1695 :             _Destroy(_Myfirst, _Mylast);

  0002f	8b 45 f0	 mov	 eax, DWORD PTR __Mylast$[ebp]
  00032	8b 00		 mov	 eax, DWORD PTR [eax]
  00034	89 45 e0	 mov	 DWORD PTR __Last$[ebp], eax
  00037	8b 45 fc	 mov	 eax, DWORD PTR __Myfirst$[ebp]
  0003a	8b 00		 mov	 eax, DWORD PTR [eax]
  0003c	89 45 dc	 mov	 DWORD PTR __First$[ebp], eax

; 1733 :         return _Mypair._Get_first();

  0003f	8b 45 f4	 mov	 eax, DWORD PTR _this$[ebp]
; File C:\Program Files (x86)\Microsoft Visual Studio\2019\Community\VC\Tools\MSVC\14.28.29333\include\xmemory

; 1347 :         return *this;

  00042	89 45 e8	 mov	 DWORD PTR $T4[ebp], eax
; File C:\Program Files (x86)\Microsoft Visual Studio\2019\Community\VC\Tools\MSVC\14.28.29333\include\vector

; 1733 :         return _Mypair._Get_first();

  00045	8b 45 e8	 mov	 eax, DWORD PTR $T4[ebp]
  00048	89 45 e4	 mov	 DWORD PTR $T3[ebp], eax

; 1612 :         _Destroy_range(_First, _Last, _Getal());

  0004b	ff 75 e4	 push	 DWORD PTR $T3[ebp]
  0004e	ff 75 e0	 push	 DWORD PTR __Last$[ebp]
  00051	ff 75 dc	 push	 DWORD PTR __First$[ebp]
  00054	e8 00 00 00 00	 call	 ??$_Destroy_range@V?$allocator@PAVCTextureAnimationCCWDecorator@NEffectUpdateDecorator@@@std@@@std@@YAXPAPAVCTextureAnimationCCWDecorator@NEffectUpdateDecorator@@QAPAV12@AAV?$allocator@PAVCTextureAnimationCCWDecorator@NEffectUpdateDecorator@@@0@@Z ; std::_Destroy_range<std::allocator<NEffectUpdateDecorator::CTextureAnimationCCWDecorator *> >
  00059	83 c4 0c	 add	 esp, 12			; 0000000cH

; 1733 :         return _Mypair._Get_first();

  0005c	8b 45 f4	 mov	 eax, DWORD PTR _this$[ebp]
; File C:\Program Files (x86)\Microsoft Visual Studio\2019\Community\VC\Tools\MSVC\14.28.29333\include\xmemory

; 1347 :         return *this;

  0005f	89 45 d8	 mov	 DWORD PTR $T2[ebp], eax
; File C:\Program Files (x86)\Microsoft Visual Studio\2019\Community\VC\Tools\MSVC\14.28.29333\include\vector

; 1733 :         return _Mypair._Get_first();

  00062	8b 45 d8	 mov	 eax, DWORD PTR $T2[ebp]
  00065	89 45 cc	 mov	 DWORD PTR $T1[ebp], eax

; 1696 :             _Getal().deallocate(_Myfirst, static_cast<size_type>(_Myend - _Myfirst));

  00068	8b 45 ec	 mov	 eax, DWORD PTR __Myend$[ebp]
  0006b	8b 4d fc	 mov	 ecx, DWORD PTR __Myfirst$[ebp]
  0006e	8b 00		 mov	 eax, DWORD PTR [eax]
  00070	2b 01		 sub	 eax, DWORD PTR [ecx]
  00072	c1 f8 02	 sar	 eax, 2
  00075	89 45 d4	 mov	 DWORD PTR __Count$[ebp], eax
  00078	8b 45 fc	 mov	 eax, DWORD PTR __Myfirst$[ebp]
  0007b	8b 00		 mov	 eax, DWORD PTR [eax]
  0007d	89 45 d0	 mov	 DWORD PTR __Ptr$[ebp], eax
; File C:\Program Files (x86)\Microsoft Visual Studio\2019\Community\VC\Tools\MSVC\14.28.29333\include\xmemory

; 810  :         _Deallocate<_New_alignof<_Ty>>(_Ptr, sizeof(_Ty) * _Count);

  00080	8b 45 d4	 mov	 eax, DWORD PTR __Count$[ebp]
  00083	c1 e0 02	 shl	 eax, 2
  00086	50		 push	 eax
  00087	ff 75 d0	 push	 DWORD PTR __Ptr$[ebp]
  0008a	e8 00 00 00 00	 call	 ??$_Deallocate@$07$0A@@std@@YAXPAXI@Z ; std::_Deallocate<8,0>
  0008f	59		 pop	 ecx
  00090	59		 pop	 ecx
; File C:\Program Files (x86)\Microsoft Visual Studio\2019\Community\VC\Tools\MSVC\14.28.29333\include\vector

; 1698 :             _Myfirst = pointer();

  00091	8b 45 fc	 mov	 eax, DWORD PTR __Myfirst$[ebp]
  00094	83 20 00	 and	 DWORD PTR [eax], 0

; 1699 :             _Mylast  = pointer();

  00097	8b 45 f0	 mov	 eax, DWORD PTR __Mylast$[ebp]
  0009a	83 20 00	 and	 DWORD PTR [eax], 0

; 1700 :             _Myend   = pointer();

  0009d	8b 45 ec	 mov	 eax, DWORD PTR __Myend$[ebp]
  000a0	83 20 00	 and	 DWORD PTR [eax], 0
$LN3@Tidy:

; 1701 :         }
; 1702 :     }

  000a3	c9		 leave
  000a4	c3		 ret	 0
?_Tidy@?$vector@PAVCTextureAnimationCCWDecorator@NEffectUpdateDecorator@@V?$allocator@PAVCTextureAnimationCCWDecorator@NEffectUpdateDecorator@@@std@@@std@@AAEXXZ ENDP ; std::vector<NEffectUpdateDecorator::CTextureAnimationCCWDecorator *,std::allocator<NEffectUpdateDecorator::CTextureAnimationCCWDecorator *> >::_Tidy
_TEXT	ENDS
; Function compile flags: /Odspy
; File C:\Program Files (x86)\Microsoft Visual Studio\2019\Community\VC\Tools\MSVC\14.28.29333\include\vector
; File C:\Program Files (x86)\Microsoft Visual Studio\2019\Community\VC\Tools\MSVC\14.28.29333\include\xmemory
; File C:\Program Files (x86)\Microsoft Visual Studio\2019\Community\VC\Tools\MSVC\14.28.29333\include\vector
;	COMDAT ?clear@?$vector@PAVCTextureAnimationCCWDecorator@NEffectUpdateDecorator@@V?$allocator@PAVCTextureAnimationCCWDecorator@NEffectUpdateDecorator@@@std@@@std@@QAEXXZ
_TEXT	SEGMENT
__First$ = -32						; size = 4
__Last$ = -28						; size = 4
$T1 = -24						; size = 4
$T2 = -20						; size = 4
__Myfirst$ = -16					; size = 4
__Mylast$ = -12						; size = 4
_this$ = -8						; size = 4
__My_data$ = -4						; size = 4
?clear@?$vector@PAVCTextureAnimationCCWDecorator@NEffectUpdateDecorator@@V?$allocator@PAVCTextureAnimationCCWDecorator@NEffectUpdateDecorator@@@std@@@std@@QAEXXZ PROC ; std::vector<NEffectUpdateDecorator::CTextureAnimationCCWDecorator *,std::allocator<NEffectUpdateDecorator::CTextureAnimationCCWDecorator *> >::clear, COMDAT
; _this$ = ecx

; 1383 :     void clear() noexcept { // erase all

  00000	55		 push	 ebp
  00001	8b ec		 mov	 ebp, esp
  00003	83 ec 20	 sub	 esp, 32			; 00000020H
  00006	89 4d f8	 mov	 DWORD PTR _this$[ebp], ecx

; 1384 :         auto& _My_data    = _Mypair._Myval2;

  00009	8b 45 f8	 mov	 eax, DWORD PTR _this$[ebp]
  0000c	89 45 fc	 mov	 DWORD PTR __My_data$[ebp], eax

; 1385 :         pointer& _Myfirst = _My_data._Myfirst;

  0000f	8b 45 fc	 mov	 eax, DWORD PTR __My_data$[ebp]
  00012	89 45 f0	 mov	 DWORD PTR __Myfirst$[ebp], eax

; 1386 :         pointer& _Mylast  = _My_data._Mylast;

  00015	8b 45 fc	 mov	 eax, DWORD PTR __My_data$[ebp]
  00018	83 c0 04	 add	 eax, 4
  0001b	89 45 f4	 mov	 DWORD PTR __Mylast$[ebp], eax

; 1387 : 
; 1388 :         _My_data._Orphan_all();
; 1389 :         _Destroy(_Myfirst, _Mylast);

  0001e	8b 45 f4	 mov	 eax, DWORD PTR __Mylast$[ebp]
  00021	8b 00		 mov	 eax, DWORD PTR [eax]
  00023	89 45 e4	 mov	 DWORD PTR __Last$[ebp], eax
  00026	8b 45 f0	 mov	 eax, DWORD PTR __Myfirst$[ebp]
  00029	8b 00		 mov	 eax, DWORD PTR [eax]
  0002b	89 45 e0	 mov	 DWORD PTR __First$[ebp], eax

; 1733 :         return _Mypair._Get_first();

  0002e	8b 45 f8	 mov	 eax, DWORD PTR _this$[ebp]
; File C:\Program Files (x86)\Microsoft Visual Studio\2019\Community\VC\Tools\MSVC\14.28.29333\include\xmemory

; 1347 :         return *this;

  00031	89 45 ec	 mov	 DWORD PTR $T2[ebp], eax
; File C:\Program Files (x86)\Microsoft Visual Studio\2019\Community\VC\Tools\MSVC\14.28.29333\include\vector

; 1733 :         return _Mypair._Get_first();

  00034	8b 45 ec	 mov	 eax, DWORD PTR $T2[ebp]
  00037	89 45 e8	 mov	 DWORD PTR $T1[ebp], eax

; 1612 :         _Destroy_range(_First, _Last, _Getal());

  0003a	ff 75 e8	 push	 DWORD PTR $T1[ebp]
  0003d	ff 75 e4	 push	 DWORD PTR __Last$[ebp]
  00040	ff 75 e0	 push	 DWORD PTR __First$[ebp]
  00043	e8 00 00 00 00	 call	 ??$_Destroy_range@V?$allocator@PAVCTextureAnimationCCWDecorator@NEffectUpdateDecorator@@@std@@@std@@YAXPAPAVCTextureAnimationCCWDecorator@NEffectUpdateDecorator@@QAPAV12@AAV?$allocator@PAVCTextureAnimationCCWDecorator@NEffectUpdateDecorator@@@0@@Z ; std::_Destroy_range<std::allocator<NEffectUpdateDecorator::CTextureAnimationCCWDecorator *> >
  00048	83 c4 0c	 add	 esp, 12			; 0000000cH

; 1390 :         _Mylast = _Myfirst;

  0004b	8b 45 f4	 mov	 eax, DWORD PTR __Mylast$[ebp]
  0004e	8b 4d f0	 mov	 ecx, DWORD PTR __Myfirst$[ebp]
  00051	8b 09		 mov	 ecx, DWORD PTR [ecx]
  00053	89 08		 mov	 DWORD PTR [eax], ecx

; 1391 :     }

  00055	c9		 leave
  00056	c3		 ret	 0
?clear@?$vector@PAVCTextureAnimationCCWDecorator@NEffectUpdateDecorator@@V?$allocator@PAVCTextureAnimationCCWDecorator@NEffectUpdateDecorator@@@std@@@std@@QAEXXZ ENDP ; std::vector<NEffectUpdateDecorator::CTextureAnimationCCWDecorator *,std::allocator<NEffectUpdateDecorator::CTextureAnimationCCWDecorator *> >::clear
_TEXT	ENDS
; Function compile flags: /Odspy
; File D:\Metin2 Server Files\mainline\SRC_2014\Metin2Client\eterLib\Pool.h
;	COMDAT ?Delete@?$CDynamicPoolEx@VCTextureAnimationCCWDecorator@NEffectUpdateDecorator@@@@KAXPAVCTextureAnimationCCWDecorator@NEffectUpdateDecorator@@@Z
_TEXT	SEGMENT
_pkData$ = 8						; size = 4
?Delete@?$CDynamicPoolEx@VCTextureAnimationCCWDecorator@NEffectUpdateDecorator@@@@KAXPAVCTextureAnimationCCWDecorator@NEffectUpdateDecorator@@@Z PROC ; CDynamicPoolEx<NEffectUpdateDecorator::CTextureAnimationCCWDecorator>::Delete, COMDAT

; 223  : 		{

  00000	55		 push	 ebp
  00001	8b ec		 mov	 ebp, esp

; 224  : 			::operator delete(pkData);

  00003	ff 75 08	 push	 DWORD PTR _pkData$[ebp]
  00006	e8 00 00 00 00	 call	 ??3@YAXPAX@Z		; operator delete
  0000b	59		 pop	 ecx

; 225  : 		}

  0000c	5d		 pop	 ebp
  0000d	c3		 ret	 0
?Delete@?$CDynamicPoolEx@VCTextureAnimationCCWDecorator@NEffectUpdateDecorator@@@@KAXPAVCTextureAnimationCCWDecorator@NEffectUpdateDecorator@@@Z ENDP ; CDynamicPoolEx<NEffectUpdateDecorator::CTextureAnimationCCWDecorator>::Delete
_TEXT	ENDS
; Function compile flags: /Odspy
; File D:\Metin2 Server Files\mainline\SRC_2014\Metin2Client\eterLib\Pool.h
; File C:\Program Files (x86)\Microsoft Visual Studio\2019\Community\VC\Tools\MSVC\14.28.29333\include\vector
; File C:\Program Files (x86)\Microsoft Visual Studio\2019\Community\VC\Tools\MSVC\14.28.29333\include\xstddef
; File C:\Program Files (x86)\Microsoft Visual Studio\2019\Community\VC\Tools\MSVC\14.28.29333\include\vector
; File C:\Program Files (x86)\Microsoft Visual Studio\2019\Community\VC\Tools\MSVC\14.28.29333\include\xstddef
; File C:\Program Files (x86)\Microsoft Visual Studio\2019\Community\VC\Tools\MSVC\14.28.29333\include\vector
; File D:\Metin2 Server Files\mainline\SRC_2014\Metin2Client\eterLib\Pool.h
;	COMDAT ?Destroy@?$CDynamicPoolEx@VCTextureAnimationCCWDecorator@NEffectUpdateDecorator@@@@QAEXXZ
_TEXT	SEGMENT
$T1 = -44						; size = 4
$T2 = -40						; size = 4
$T3 = -36						; size = 4
$T4 = -32						; size = 4
$T5 = -28						; size = 4
___param0$ = -24					; size = 4
$T6 = -20						; size = 4
___param0$ = -16					; size = 4
__My_data$7 = -12					; size = 4
__My_data$8 = -8					; size = 4
_this$ = -4						; size = 4
?Destroy@?$CDynamicPoolEx@VCTextureAnimationCCWDecorator@NEffectUpdateDecorator@@@@QAEXXZ PROC ; CDynamicPoolEx<NEffectUpdateDecorator::CTextureAnimationCCWDecorator>::Destroy, COMDAT
; _this$ = ecx

; 150  : 		{

  00000	55		 push	 ebp
  00001	8b ec		 mov	 ebp, esp
  00003	83 ec 2c	 sub	 esp, 44			; 0000002cH
  00006	89 4d fc	 mov	 DWORD PTR _this$[ebp], ecx
; File C:\Program Files (x86)\Microsoft Visual Studio\2019\Community\VC\Tools\MSVC\14.28.29333\include\vector

; 1420 :         auto& _My_data = _Mypair._Myval2;

  00009	8b 45 fc	 mov	 eax, DWORD PTR _this$[ebp]
  0000c	83 c0 04	 add	 eax, 4
  0000f	89 45 f8	 mov	 DWORD PTR __My_data$8[ebp], eax
; File C:\Program Files (x86)\Microsoft Visual Studio\2019\Community\VC\Tools\MSVC\14.28.29333\include\xstddef

; 275  :     return __builtin_addressof(_Val);

  00012	8b 45 f8	 mov	 eax, DWORD PTR __My_data$8[ebp]
  00015	89 45 d8	 mov	 DWORD PTR $T2[ebp], eax
; File C:\Program Files (x86)\Microsoft Visual Studio\2019\Community\VC\Tools\MSVC\14.28.29333\include\vector

; 1421 :         return iterator(_My_data._Mylast, _STD addressof(_My_data));

  00018	8b 45 f8	 mov	 eax, DWORD PTR __My_data$8[ebp]
  0001b	8b 40 04	 mov	 eax, DWORD PTR [eax+4]
  0001e	89 45 f0	 mov	 DWORD PTR ___param0$[ebp], eax

; 42   :     _Vector_const_iterator(_Tptr _Parg, const _Container_base* _Pvector) noexcept : _Ptr(_Parg) {

  00021	8b 45 f0	 mov	 eax, DWORD PTR ___param0$[ebp]
  00024	89 45 ec	 mov	 DWORD PTR $T6[ebp], eax

; 1421 :         return iterator(_My_data._Mylast, _STD addressof(_My_data));

  00027	8d 45 ec	 lea	 eax, DWORD PTR $T6[ebp]
  0002a	89 45 e0	 mov	 DWORD PTR $T4[ebp], eax

; 1410 :         auto& _My_data = _Mypair._Myval2;

  0002d	8b 45 fc	 mov	 eax, DWORD PTR _this$[ebp]
  00030	83 c0 04	 add	 eax, 4
  00033	89 45 f4	 mov	 DWORD PTR __My_data$7[ebp], eax
; File C:\Program Files (x86)\Microsoft Visual Studio\2019\Community\VC\Tools\MSVC\14.28.29333\include\xstddef

; 275  :     return __builtin_addressof(_Val);

  00036	8b 45 f4	 mov	 eax, DWORD PTR __My_data$7[ebp]
  00039	89 45 d4	 mov	 DWORD PTR $T1[ebp], eax
; File C:\Program Files (x86)\Microsoft Visual Studio\2019\Community\VC\Tools\MSVC\14.28.29333\include\vector

; 1411 :         return iterator(_My_data._Myfirst, _STD addressof(_My_data));

  0003c	8b 45 f4	 mov	 eax, DWORD PTR __My_data$7[ebp]
  0003f	8b 00		 mov	 eax, DWORD PTR [eax]
  00041	89 45 e8	 mov	 DWORD PTR ___param0$[ebp], eax

; 42   :     _Vector_const_iterator(_Tptr _Parg, const _Container_base* _Pvector) noexcept : _Ptr(_Parg) {

  00044	8b 45 e8	 mov	 eax, DWORD PTR ___param0$[ebp]
  00047	89 45 e4	 mov	 DWORD PTR $T5[ebp], eax

; 1411 :         return iterator(_My_data._Myfirst, _STD addressof(_My_data));

  0004a	8d 45 e4	 lea	 eax, DWORD PTR $T5[ebp]
  0004d	89 45 dc	 mov	 DWORD PTR $T3[ebp], eax
; File D:\Metin2 Server Files\mainline\SRC_2014\Metin2Client\eterLib\Pool.h

; 160  : 			std::for_each(m_kVct_pkData.begin(), m_kVct_pkData.end(), Delete);

  00050	68 00 00 00 00	 push	 OFFSET ?Delete@?$CDynamicPoolEx@VCTextureAnimationCCWDecorator@NEffectUpdateDecorator@@@@KAXPAVCTextureAnimationCCWDecorator@NEffectUpdateDecorator@@@Z ; CDynamicPoolEx<NEffectUpdateDecorator::CTextureAnimationCCWDecorator>::Delete
  00055	8b 45 e0	 mov	 eax, DWORD PTR $T4[ebp]
  00058	ff 30		 push	 DWORD PTR [eax]
  0005a	8b 45 dc	 mov	 eax, DWORD PTR $T3[ebp]
  0005d	ff 30		 push	 DWORD PTR [eax]
  0005f	e8 00 00 00 00	 call	 ??$for_each@V?$_Vector_iterator@V?$_Vector_val@U?$_Simple_types@PAVCTextureAnimationCCWDecorator@NEffectUpdateDecorator@@@std@@@std@@@std@@P6AXPAVCTextureAnimationCCWDecorator@NEffectUpdateDecorator@@@Z@std@@YAP6AXPAVCTextureAnimationCCWDecorator@NEffectUpdateDecorator@@@ZV?$_Vector_iterator@V?$_Vector_val@U?$_Simple_types@PAVCTextureAnimationCCWDecorator@NEffectUpdateDecorator@@@std@@@std@@@0@1P6AX0@Z@Z ; std::for_each<std::_Vector_iterator<std::_Vector_val<std::_Simple_types<NEffectUpdateDecorator::CTextureAnimationCCWDecorator *> > >,void (__cdecl*)(NEffectUpdateDecorator::CTextureAnimationCCWDecorator *)>
  00064	83 c4 0c	 add	 esp, 12			; 0000000cH

; 161  : 			m_kVct_pkData.clear();

  00067	8b 4d fc	 mov	 ecx, DWORD PTR _this$[ebp]
  0006a	83 c1 04	 add	 ecx, 4
  0006d	e8 00 00 00 00	 call	 ?clear@?$vector@PAVCTextureAnimationCCWDecorator@NEffectUpdateDecorator@@V?$allocator@PAVCTextureAnimationCCWDecorator@NEffectUpdateDecorator@@@std@@@std@@QAEXXZ ; std::vector<NEffectUpdateDecorator::CTextureAnimationCCWDecorator *,std::allocator<NEffectUpdateDecorator::CTextureAnimationCCWDecorator *> >::clear

; 162  : 			m_kVct_pkFree.clear();

  00072	8b 4d fc	 mov	 ecx, DWORD PTR _this$[ebp]
  00075	83 c1 10	 add	 ecx, 16			; 00000010H
  00078	e8 00 00 00 00	 call	 ?clear@?$vector@PAVCTextureAnimationCCWDecorator@NEffectUpdateDecorator@@V?$allocator@PAVCTextureAnimationCCWDecorator@NEffectUpdateDecorator@@@std@@@std@@QAEXXZ ; std::vector<NEffectUpdateDecorator::CTextureAnimationCCWDecorator *,std::allocator<NEffectUpdateDecorator::CTextureAnimationCCWDecorator *> >::clear

; 163  : 		}

  0007d	c9		 leave
  0007e	c3		 ret	 0
?Destroy@?$CDynamicPoolEx@VCTextureAnimationCCWDecorator@NEffectUpdateDecorator@@@@QAEXXZ ENDP ; CDynamicPoolEx<NEffectUpdateDecorator::CTextureAnimationCCWDecorator>::Destroy
_TEXT	ENDS
; Function compile flags: /Odspy
; File D:\Metin2 Server Files\mainline\SRC_2014\Metin2Client\eterLib\Pool.h
; File C:\Program Files (x86)\Microsoft Visual Studio\2019\Community\VC\Tools\MSVC\14.28.29333\include\vector
; File D:\Metin2 Server Files\mainline\SRC_2014\Metin2Client\eterLib\Pool.h
; File C:\Program Files (x86)\Microsoft Visual Studio\2019\Community\VC\Tools\MSVC\14.28.29333\include\vector
; File D:\Metin2 Server Files\mainline\SRC_2014\Metin2Client\eterLib\Pool.h
;	COMDAT ??1?$CDynamicPoolEx@VCTextureAnimationCCWDecorator@NEffectUpdateDecorator@@@@UAE@XZ
_TEXT	SEGMENT
_this$ = -16						; size = 4
__$EHRec$ = -12						; size = 12
??1?$CDynamicPoolEx@VCTextureAnimationCCWDecorator@NEffectUpdateDecorator@@@@UAE@XZ PROC ; CDynamicPoolEx<NEffectUpdateDecorator::CTextureAnimationCCWDecorator>::~CDynamicPoolEx<NEffectUpdateDecorator::CTextureAnimationCCWDecorator>, COMDAT
; _this$ = ecx

; 132  : 		{

  00000	55		 push	 ebp
  00001	8b ec		 mov	 ebp, esp
  00003	6a ff		 push	 -1
  00005	68 00 00 00 00	 push	 __ehhandler$??1?$CDynamicPoolEx@VCTextureAnimationCCWDecorator@NEffectUpdateDecorator@@@@UAE@XZ
  0000a	64 a1 00 00 00
	00		 mov	 eax, DWORD PTR fs:0
  00010	50		 push	 eax
  00011	51		 push	 ecx
  00012	a1 00 00 00 00	 mov	 eax, DWORD PTR ___security_cookie
  00017	33 c5		 xor	 eax, ebp
  00019	50		 push	 eax
  0001a	8d 45 f4	 lea	 eax, DWORD PTR __$EHRec$[ebp]
  0001d	64 a3 00 00 00
	00		 mov	 DWORD PTR fs:0, eax
  00023	89 4d f0	 mov	 DWORD PTR _this$[ebp], ecx
  00026	8b 45 f0	 mov	 eax, DWORD PTR _this$[ebp]
  00029	c7 00 00 00 00
	00		 mov	 DWORD PTR [eax], OFFSET ??_7?$CDynamicPoolEx@VCTextureAnimationCCWDecorator@NEffectUpdateDecorator@@@@6B@

; 133  : 			assert(m_kVct_pkFree.size()==m_kVct_pkData.size());
; 134  : 			Destroy();

  0002f	8b 4d f0	 mov	 ecx, DWORD PTR _this$[ebp]
  00032	e8 00 00 00 00	 call	 ?Destroy@?$CDynamicPoolEx@VCTextureAnimationCCWDecorator@NEffectUpdateDecorator@@@@QAEXXZ ; CDynamicPoolEx<NEffectUpdateDecorator::CTextureAnimationCCWDecorator>::Destroy

; 142  : 		}

  00037	8b 4d f0	 mov	 ecx, DWORD PTR _this$[ebp]
  0003a	83 c1 10	 add	 ecx, 16			; 00000010H
; File C:\Program Files (x86)\Microsoft Visual Studio\2019\Community\VC\Tools\MSVC\14.28.29333\include\vector

; 673  :         _Tidy();

  0003d	e8 00 00 00 00	 call	 ?_Tidy@?$vector@PAVCTextureAnimationCCWDecorator@NEffectUpdateDecorator@@V?$allocator@PAVCTextureAnimationCCWDecorator@NEffectUpdateDecorator@@@std@@@std@@AAEXXZ ; std::vector<NEffectUpdateDecorator::CTextureAnimationCCWDecorator *,std::allocator<NEffectUpdateDecorator::CTextureAnimationCCWDecorator *> >::_Tidy
; File D:\Metin2 Server Files\mainline\SRC_2014\Metin2Client\eterLib\Pool.h

; 142  : 		}

  00042	8b 4d f0	 mov	 ecx, DWORD PTR _this$[ebp]
  00045	83 c1 04	 add	 ecx, 4
; File C:\Program Files (x86)\Microsoft Visual Studio\2019\Community\VC\Tools\MSVC\14.28.29333\include\vector

; 673  :         _Tidy();

  00048	e8 00 00 00 00	 call	 ?_Tidy@?$vector@PAVCTextureAnimationCCWDecorator@NEffectUpdateDecorator@@V?$allocator@PAVCTextureAnimationCCWDecorator@NEffectUpdateDecorator@@@std@@@std@@AAEXXZ ; std::vector<NEffectUpdateDecorator::CTextureAnimationCCWDecorator *,std::allocator<NEffectUpdateDecorator::CTextureAnimationCCWDecorator *> >::_Tidy
; File D:\Metin2 Server Files\mainline\SRC_2014\Metin2Client\eterLib\Pool.h

; 142  : 		}

  0004d	8b 4d f4	 mov	 ecx, DWORD PTR __$EHRec$[ebp]
  00050	64 89 0d 00 00
	00 00		 mov	 DWORD PTR fs:0, ecx
  00057	59		 pop	 ecx
  00058	c9		 leave
  00059	c3		 ret	 0
  0005a	cc		 int	 3
  0005b	cc		 int	 3
  0005c	cc		 int	 3
  0005d	cc		 int	 3
  0005e	cc		 int	 3
_TEXT	ENDS
;	COMDAT text$x
text$x	SEGMENT
__ehhandler$??1?$CDynamicPoolEx@VCTextureAnimationCCWDecorator@NEffectUpdateDecorator@@@@UAE@XZ:
  00000	90		 npad	 1
  00001	90		 npad	 1
  00002	8b 54 24 08	 mov	 edx, DWORD PTR [esp+8]
  00006	8d 42 0c	 lea	 eax, DWORD PTR [edx+12]
  00009	8b 4a f8	 mov	 ecx, DWORD PTR [edx-8]
  0000c	33 c8		 xor	 ecx, eax
  0000e	e8 00 00 00 00	 call	 @__security_check_cookie@4
  00013	b8 00 00 00 00	 mov	 eax, OFFSET __ehfuncinfo$??1?$CDynamicPoolEx@VCTextureAnimationCCWDecorator@NEffectUpdateDecorator@@@@UAE@XZ
  00018	e9 00 00 00 00	 jmp	 ___CxxFrameHandler3
text$x	ENDS
??1?$CDynamicPoolEx@VCTextureAnimationCCWDecorator@NEffectUpdateDecorator@@@@UAE@XZ ENDP ; CDynamicPoolEx<NEffectUpdateDecorator::CTextureAnimationCCWDecorator>::~CDynamicPoolEx<NEffectUpdateDecorator::CTextureAnimationCCWDecorator>
; Function compile flags: /Odspy
; File D:\Metin2 Server Files\mainline\SRC_2014\Metin2Client\eterLib\Pool.h
; File C:\Program Files (x86)\Microsoft Visual Studio\2019\Community\VC\Tools\MSVC\14.28.29333\include\vector
; File C:\Program Files (x86)\Microsoft Visual Studio\2019\Community\VC\Tools\MSVC\14.28.29333\include\xmemory
; File C:\Program Files (x86)\Microsoft Visual Studio\2019\Community\VC\Tools\MSVC\14.28.29333\include\vector
; File D:\Metin2 Server Files\mainline\SRC_2014\Metin2Client\eterLib\Pool.h
; File C:\Program Files (x86)\Microsoft Visual Studio\2019\Community\VC\Tools\MSVC\14.28.29333\include\vector
; File C:\Program Files (x86)\Microsoft Visual Studio\2019\Community\VC\Tools\MSVC\14.28.29333\include\xmemory
; File C:\Program Files (x86)\Microsoft Visual Studio\2019\Community\VC\Tools\MSVC\14.28.29333\include\vector
; File D:\Metin2 Server Files\mainline\SRC_2014\Metin2Client\eterLib\Pool.h
;	COMDAT ??0?$CDynamicPoolEx@VCTextureAnimationCCWDecorator@NEffectUpdateDecorator@@@@QAE@XZ
_TEXT	SEGMENT
_this$ = -28						; size = 4
_this$ = -24						; size = 4
_this$ = -20						; size = 4
_this$ = -16						; size = 4
_this$1 = -12						; size = 4
_this$2 = -8						; size = 4
_this$ = -4						; size = 4
??0?$CDynamicPoolEx@VCTextureAnimationCCWDecorator@NEffectUpdateDecorator@@@@QAE@XZ PROC ; CDynamicPoolEx<NEffectUpdateDecorator::CTextureAnimationCCWDecorator>::CDynamicPoolEx<NEffectUpdateDecorator::CTextureAnimationCCWDecorator>, COMDAT
; _this$ = ecx

; 126  : 		CDynamicPoolEx()

  00000	55		 push	 ebp
  00001	8b ec		 mov	 ebp, esp
  00003	83 ec 1c	 sub	 esp, 28			; 0000001cH
  00006	89 4d fc	 mov	 DWORD PTR _this$[ebp], ecx

; 127  : 		{

  00009	8b 45 fc	 mov	 eax, DWORD PTR _this$[ebp]
  0000c	c7 00 00 00 00
	00		 mov	 DWORD PTR [eax], OFFSET ??_7?$CDynamicPoolEx@VCTextureAnimationCCWDecorator@NEffectUpdateDecorator@@@@6B@
  00012	8b 45 fc	 mov	 eax, DWORD PTR _this$[ebp]
  00015	83 c0 04	 add	 eax, 4
  00018	89 45 f0	 mov	 DWORD PTR _this$[ebp], eax
; File C:\Program Files (x86)\Microsoft Visual Studio\2019\Community\VC\Tools\MSVC\14.28.29333\include\vector

; 445  :     vector() noexcept(is_nothrow_default_constructible_v<_Alty>) : _Mypair(_Zero_then_variadic_args_t{}) {

  0001b	8b 45 f0	 mov	 eax, DWORD PTR _this$[ebp]
  0001e	89 45 ec	 mov	 DWORD PTR _this$[ebp], eax
; File C:\Program Files (x86)\Microsoft Visual Studio\2019\Community\VC\Tools\MSVC\14.28.29333\include\xmemory

; 1339 :         : _Ty1(), _Myval2(_STD forward<_Other2>(_Val2)...) {}

  00021	8b 45 ec	 mov	 eax, DWORD PTR _this$[ebp]
  00024	89 45 f8	 mov	 DWORD PTR _this$2[ebp], eax
; File C:\Program Files (x86)\Microsoft Visual Studio\2019\Community\VC\Tools\MSVC\14.28.29333\include\vector

; 375  :     _Vector_val() noexcept : _Myfirst(), _Mylast(), _Myend() {}

  00027	8b 45 f8	 mov	 eax, DWORD PTR _this$2[ebp]
  0002a	83 20 00	 and	 DWORD PTR [eax], 0
  0002d	8b 45 f8	 mov	 eax, DWORD PTR _this$2[ebp]
  00030	83 60 04 00	 and	 DWORD PTR [eax+4], 0
  00034	8b 45 f8	 mov	 eax, DWORD PTR _this$2[ebp]
  00037	83 60 08 00	 and	 DWORD PTR [eax+8], 0
; File D:\Metin2 Server Files\mainline\SRC_2014\Metin2Client\eterLib\Pool.h

; 127  : 		{

  0003b	8b 45 fc	 mov	 eax, DWORD PTR _this$[ebp]
  0003e	83 c0 10	 add	 eax, 16			; 00000010H
  00041	89 45 e8	 mov	 DWORD PTR _this$[ebp], eax
; File C:\Program Files (x86)\Microsoft Visual Studio\2019\Community\VC\Tools\MSVC\14.28.29333\include\vector

; 445  :     vector() noexcept(is_nothrow_default_constructible_v<_Alty>) : _Mypair(_Zero_then_variadic_args_t{}) {

  00044	8b 45 e8	 mov	 eax, DWORD PTR _this$[ebp]
  00047	89 45 e4	 mov	 DWORD PTR _this$[ebp], eax
; File C:\Program Files (x86)\Microsoft Visual Studio\2019\Community\VC\Tools\MSVC\14.28.29333\include\xmemory

; 1339 :         : _Ty1(), _Myval2(_STD forward<_Other2>(_Val2)...) {}

  0004a	8b 45 e4	 mov	 eax, DWORD PTR _this$[ebp]
  0004d	89 45 f4	 mov	 DWORD PTR _this$1[ebp], eax
; File C:\Program Files (x86)\Microsoft Visual Studio\2019\Community\VC\Tools\MSVC\14.28.29333\include\vector

; 375  :     _Vector_val() noexcept : _Myfirst(), _Mylast(), _Myend() {}

  00050	8b 45 f4	 mov	 eax, DWORD PTR _this$1[ebp]
  00053	83 20 00	 and	 DWORD PTR [eax], 0
  00056	8b 45 f4	 mov	 eax, DWORD PTR _this$1[ebp]
  00059	83 60 04 00	 and	 DWORD PTR [eax+4], 0
  0005d	8b 45 f4	 mov	 eax, DWORD PTR _this$1[ebp]
  00060	83 60 08 00	 and	 DWORD PTR [eax+8], 0
; File D:\Metin2 Server Files\mainline\SRC_2014\Metin2Client\eterLib\Pool.h

; 128  : 			m_uInitCapacity=0;

  00064	8b 45 fc	 mov	 eax, DWORD PTR _this$[ebp]
  00067	83 60 1c 00	 and	 DWORD PTR [eax+28], 0

; 129  : 			m_uUsedCapacity=0;

  0006b	8b 45 fc	 mov	 eax, DWORD PTR _this$[ebp]
  0006e	83 60 20 00	 and	 DWORD PTR [eax+32], 0

; 130  : 		}

  00072	8b 45 fc	 mov	 eax, DWORD PTR _this$[ebp]
  00075	c9		 leave
  00076	c3		 ret	 0
??0?$CDynamicPoolEx@VCTextureAnimationCCWDecorator@NEffectUpdateDecorator@@@@QAE@XZ ENDP ; CDynamicPoolEx<NEffectUpdateDecorator::CTextureAnimationCCWDecorator>::CDynamicPoolEx<NEffectUpdateDecorator::CTextureAnimationCCWDecorator>
_TEXT	ENDS
; Function compile flags: /Odspy
;	COMDAT ??_G?$CDynamicPoolEx@VCTextureAnimationRandomDecorator@NEffectUpdateDecorator@@@@UAEPAXI@Z
_TEXT	SEGMENT
_this$ = -4						; size = 4
___flags$ = 8						; size = 4
??_G?$CDynamicPoolEx@VCTextureAnimationRandomDecorator@NEffectUpdateDecorator@@@@UAEPAXI@Z PROC ; CDynamicPoolEx<NEffectUpdateDecorator::CTextureAnimationRandomDecorator>::`scalar deleting destructor', COMDAT
; _this$ = ecx
  00000	55		 push	 ebp
  00001	8b ec		 mov	 ebp, esp
  00003	51		 push	 ecx
  00004	89 4d fc	 mov	 DWORD PTR _this$[ebp], ecx
  00007	8b 4d fc	 mov	 ecx, DWORD PTR _this$[ebp]
  0000a	e8 00 00 00 00	 call	 ??1?$CDynamicPoolEx@VCTextureAnimationRandomDecorator@NEffectUpdateDecorator@@@@UAE@XZ ; CDynamicPoolEx<NEffectUpdateDecorator::CTextureAnimationRandomDecorator>::~CDynamicPoolEx<NEffectUpdateDecorator::CTextureAnimationRandomDecorator>
  0000f	8b 45 08	 mov	 eax, DWORD PTR ___flags$[ebp]
  00012	83 e0 01	 and	 eax, 1
  00015	74 0c		 je	 SHORT $LN2@scalar
  00017	6a 24		 push	 36			; 00000024H
  00019	ff 75 fc	 push	 DWORD PTR _this$[ebp]
  0001c	e8 00 00 00 00	 call	 ??3@YAXPAXI@Z		; operator delete
  00021	59		 pop	 ecx
  00022	59		 pop	 ecx
$LN2@scalar:
  00023	8b 45 fc	 mov	 eax, DWORD PTR _this$[ebp]
  00026	c9		 leave
  00027	c2 04 00	 ret	 4
??_G?$CDynamicPoolEx@VCTextureAnimationRandomDecorator@NEffectUpdateDecorator@@@@UAEPAXI@Z ENDP ; CDynamicPoolEx<NEffectUpdateDecorator::CTextureAnimationRandomDecorator>::`scalar deleting destructor'
_TEXT	ENDS
; Function compile flags: /Odspy
; File C:\Program Files (x86)\Microsoft Visual Studio\2019\Community\VC\Tools\MSVC\14.28.29333\include\vector
; File C:\Program Files (x86)\Microsoft Visual Studio\2019\Community\VC\Tools\MSVC\14.28.29333\include\xmemory
; File C:\Program Files (x86)\Microsoft Visual Studio\2019\Community\VC\Tools\MSVC\14.28.29333\include\vector
; File C:\Program Files (x86)\Microsoft Visual Studio\2019\Community\VC\Tools\MSVC\14.28.29333\include\xmemory
; File C:\Program Files (x86)\Microsoft Visual Studio\2019\Community\VC\Tools\MSVC\14.28.29333\include\vector
; File C:\Program Files (x86)\Microsoft Visual Studio\2019\Community\VC\Tools\MSVC\14.28.29333\include\xmemory
; File C:\Program Files (x86)\Microsoft Visual Studio\2019\Community\VC\Tools\MSVC\14.28.29333\include\vector
;	COMDAT ?_Tidy@?$vector@PAVCTextureAnimationRandomDecorator@NEffectUpdateDecorator@@V?$allocator@PAVCTextureAnimationRandomDecorator@NEffectUpdateDecorator@@@std@@@std@@AAEXXZ
_TEXT	SEGMENT
$T1 = -52						; size = 4
__Ptr$ = -48						; size = 4
__Count$ = -44						; size = 4
$T2 = -40						; size = 4
__First$ = -36						; size = 4
__Last$ = -32						; size = 4
$T3 = -28						; size = 4
$T4 = -24						; size = 4
__Myend$ = -20						; size = 4
__Mylast$ = -16						; size = 4
_this$ = -12						; size = 4
__My_data$ = -8						; size = 4
__Myfirst$ = -4						; size = 4
?_Tidy@?$vector@PAVCTextureAnimationRandomDecorator@NEffectUpdateDecorator@@V?$allocator@PAVCTextureAnimationRandomDecorator@NEffectUpdateDecorator@@@std@@@std@@AAEXXZ PROC ; std::vector<NEffectUpdateDecorator::CTextureAnimationRandomDecorator *,std::allocator<NEffectUpdateDecorator::CTextureAnimationRandomDecorator *> >::_Tidy, COMDAT
; _this$ = ecx

; 1686 :     void _Tidy() noexcept { // free all storage

  00000	55		 push	 ebp
  00001	8b ec		 mov	 ebp, esp
  00003	83 ec 34	 sub	 esp, 52			; 00000034H
  00006	89 4d f4	 mov	 DWORD PTR _this$[ebp], ecx

; 1687 :         auto& _My_data    = _Mypair._Myval2;

  00009	8b 45 f4	 mov	 eax, DWORD PTR _this$[ebp]
  0000c	89 45 f8	 mov	 DWORD PTR __My_data$[ebp], eax

; 1688 :         pointer& _Myfirst = _My_data._Myfirst;

  0000f	8b 45 f8	 mov	 eax, DWORD PTR __My_data$[ebp]
  00012	89 45 fc	 mov	 DWORD PTR __Myfirst$[ebp], eax

; 1689 :         pointer& _Mylast  = _My_data._Mylast;

  00015	8b 45 f8	 mov	 eax, DWORD PTR __My_data$[ebp]
  00018	83 c0 04	 add	 eax, 4
  0001b	89 45 f0	 mov	 DWORD PTR __Mylast$[ebp], eax

; 1690 :         pointer& _Myend   = _My_data._Myend;

  0001e	8b 45 f8	 mov	 eax, DWORD PTR __My_data$[ebp]
  00021	83 c0 08	 add	 eax, 8
  00024	89 45 ec	 mov	 DWORD PTR __Myend$[ebp], eax

; 1691 : 
; 1692 :         _My_data._Orphan_all();
; 1693 : 
; 1694 :         if (_Myfirst) { // destroy and deallocate old array

  00027	8b 45 fc	 mov	 eax, DWORD PTR __Myfirst$[ebp]
  0002a	83 38 00	 cmp	 DWORD PTR [eax], 0
  0002d	74 74		 je	 SHORT $LN3@Tidy

; 1695 :             _Destroy(_Myfirst, _Mylast);

  0002f	8b 45 f0	 mov	 eax, DWORD PTR __Mylast$[ebp]
  00032	8b 00		 mov	 eax, DWORD PTR [eax]
  00034	89 45 e0	 mov	 DWORD PTR __Last$[ebp], eax
  00037	8b 45 fc	 mov	 eax, DWORD PTR __Myfirst$[ebp]
  0003a	8b 00		 mov	 eax, DWORD PTR [eax]
  0003c	89 45 dc	 mov	 DWORD PTR __First$[ebp], eax

; 1733 :         return _Mypair._Get_first();

  0003f	8b 45 f4	 mov	 eax, DWORD PTR _this$[ebp]
; File C:\Program Files (x86)\Microsoft Visual Studio\2019\Community\VC\Tools\MSVC\14.28.29333\include\xmemory

; 1347 :         return *this;

  00042	89 45 e8	 mov	 DWORD PTR $T4[ebp], eax
; File C:\Program Files (x86)\Microsoft Visual Studio\2019\Community\VC\Tools\MSVC\14.28.29333\include\vector

; 1733 :         return _Mypair._Get_first();

  00045	8b 45 e8	 mov	 eax, DWORD PTR $T4[ebp]
  00048	89 45 e4	 mov	 DWORD PTR $T3[ebp], eax

; 1612 :         _Destroy_range(_First, _Last, _Getal());

  0004b	ff 75 e4	 push	 DWORD PTR $T3[ebp]
  0004e	ff 75 e0	 push	 DWORD PTR __Last$[ebp]
  00051	ff 75 dc	 push	 DWORD PTR __First$[ebp]
  00054	e8 00 00 00 00	 call	 ??$_Destroy_range@V?$allocator@PAVCTextureAnimationRandomDecorator@NEffectUpdateDecorator@@@std@@@std@@YAXPAPAVCTextureAnimationRandomDecorator@NEffectUpdateDecorator@@QAPAV12@AAV?$allocator@PAVCTextureAnimationRandomDecorator@NEffectUpdateDecorator@@@0@@Z ; std::_Destroy_range<std::allocator<NEffectUpdateDecorator::CTextureAnimationRandomDecorator *> >
  00059	83 c4 0c	 add	 esp, 12			; 0000000cH

; 1733 :         return _Mypair._Get_first();

  0005c	8b 45 f4	 mov	 eax, DWORD PTR _this$[ebp]
; File C:\Program Files (x86)\Microsoft Visual Studio\2019\Community\VC\Tools\MSVC\14.28.29333\include\xmemory

; 1347 :         return *this;

  0005f	89 45 d8	 mov	 DWORD PTR $T2[ebp], eax
; File C:\Program Files (x86)\Microsoft Visual Studio\2019\Community\VC\Tools\MSVC\14.28.29333\include\vector

; 1733 :         return _Mypair._Get_first();

  00062	8b 45 d8	 mov	 eax, DWORD PTR $T2[ebp]
  00065	89 45 cc	 mov	 DWORD PTR $T1[ebp], eax

; 1696 :             _Getal().deallocate(_Myfirst, static_cast<size_type>(_Myend - _Myfirst));

  00068	8b 45 ec	 mov	 eax, DWORD PTR __Myend$[ebp]
  0006b	8b 4d fc	 mov	 ecx, DWORD PTR __Myfirst$[ebp]
  0006e	8b 00		 mov	 eax, DWORD PTR [eax]
  00070	2b 01		 sub	 eax, DWORD PTR [ecx]
  00072	c1 f8 02	 sar	 eax, 2
  00075	89 45 d4	 mov	 DWORD PTR __Count$[ebp], eax
  00078	8b 45 fc	 mov	 eax, DWORD PTR __Myfirst$[ebp]
  0007b	8b 00		 mov	 eax, DWORD PTR [eax]
  0007d	89 45 d0	 mov	 DWORD PTR __Ptr$[ebp], eax
; File C:\Program Files (x86)\Microsoft Visual Studio\2019\Community\VC\Tools\MSVC\14.28.29333\include\xmemory

; 810  :         _Deallocate<_New_alignof<_Ty>>(_Ptr, sizeof(_Ty) * _Count);

  00080	8b 45 d4	 mov	 eax, DWORD PTR __Count$[ebp]
  00083	c1 e0 02	 shl	 eax, 2
  00086	50		 push	 eax
  00087	ff 75 d0	 push	 DWORD PTR __Ptr$[ebp]
  0008a	e8 00 00 00 00	 call	 ??$_Deallocate@$07$0A@@std@@YAXPAXI@Z ; std::_Deallocate<8,0>
  0008f	59		 pop	 ecx
  00090	59		 pop	 ecx
; File C:\Program Files (x86)\Microsoft Visual Studio\2019\Community\VC\Tools\MSVC\14.28.29333\include\vector

; 1698 :             _Myfirst = pointer();

  00091	8b 45 fc	 mov	 eax, DWORD PTR __Myfirst$[ebp]
  00094	83 20 00	 and	 DWORD PTR [eax], 0

; 1699 :             _Mylast  = pointer();

  00097	8b 45 f0	 mov	 eax, DWORD PTR __Mylast$[ebp]
  0009a	83 20 00	 and	 DWORD PTR [eax], 0

; 1700 :             _Myend   = pointer();

  0009d	8b 45 ec	 mov	 eax, DWORD PTR __Myend$[ebp]
  000a0	83 20 00	 and	 DWORD PTR [eax], 0
$LN3@Tidy:

; 1701 :         }
; 1702 :     }

  000a3	c9		 leave
  000a4	c3		 ret	 0
?_Tidy@?$vector@PAVCTextureAnimationRandomDecorator@NEffectUpdateDecorator@@V?$allocator@PAVCTextureAnimationRandomDecorator@NEffectUpdateDecorator@@@std@@@std@@AAEXXZ ENDP ; std::vector<NEffectUpdateDecorator::CTextureAnimationRandomDecorator *,std::allocator<NEffectUpdateDecorator::CTextureAnimationRandomDecorator *> >::_Tidy
_TEXT	ENDS
; Function compile flags: /Odspy
; File C:\Program Files (x86)\Microsoft Visual Studio\2019\Community\VC\Tools\MSVC\14.28.29333\include\vector
; File C:\Program Files (x86)\Microsoft Visual Studio\2019\Community\VC\Tools\MSVC\14.28.29333\include\xmemory
; File C:\Program Files (x86)\Microsoft Visual Studio\2019\Community\VC\Tools\MSVC\14.28.29333\include\vector
;	COMDAT ?clear@?$vector@PAVCTextureAnimationRandomDecorator@NEffectUpdateDecorator@@V?$allocator@PAVCTextureAnimationRandomDecorator@NEffectUpdateDecorator@@@std@@@std@@QAEXXZ
_TEXT	SEGMENT
__First$ = -32						; size = 4
__Last$ = -28						; size = 4
$T1 = -24						; size = 4
$T2 = -20						; size = 4
__Myfirst$ = -16					; size = 4
__Mylast$ = -12						; size = 4
_this$ = -8						; size = 4
__My_data$ = -4						; size = 4
?clear@?$vector@PAVCTextureAnimationRandomDecorator@NEffectUpdateDecorator@@V?$allocator@PAVCTextureAnimationRandomDecorator@NEffectUpdateDecorator@@@std@@@std@@QAEXXZ PROC ; std::vector<NEffectUpdateDecorator::CTextureAnimationRandomDecorator *,std::allocator<NEffectUpdateDecorator::CTextureAnimationRandomDecorator *> >::clear, COMDAT
; _this$ = ecx

; 1383 :     void clear() noexcept { // erase all

  00000	55		 push	 ebp
  00001	8b ec		 mov	 ebp, esp
  00003	83 ec 20	 sub	 esp, 32			; 00000020H
  00006	89 4d f8	 mov	 DWORD PTR _this$[ebp], ecx

; 1384 :         auto& _My_data    = _Mypair._Myval2;

  00009	8b 45 f8	 mov	 eax, DWORD PTR _this$[ebp]
  0000c	89 45 fc	 mov	 DWORD PTR __My_data$[ebp], eax

; 1385 :         pointer& _Myfirst = _My_data._Myfirst;

  0000f	8b 45 fc	 mov	 eax, DWORD PTR __My_data$[ebp]
  00012	89 45 f0	 mov	 DWORD PTR __Myfirst$[ebp], eax

; 1386 :         pointer& _Mylast  = _My_data._Mylast;

  00015	8b 45 fc	 mov	 eax, DWORD PTR __My_data$[ebp]
  00018	83 c0 04	 add	 eax, 4
  0001b	89 45 f4	 mov	 DWORD PTR __Mylast$[ebp], eax

; 1387 : 
; 1388 :         _My_data._Orphan_all();
; 1389 :         _Destroy(_Myfirst, _Mylast);

  0001e	8b 45 f4	 mov	 eax, DWORD PTR __Mylast$[ebp]
  00021	8b 00		 mov	 eax, DWORD PTR [eax]
  00023	89 45 e4	 mov	 DWORD PTR __Last$[ebp], eax
  00026	8b 45 f0	 mov	 eax, DWORD PTR __Myfirst$[ebp]
  00029	8b 00		 mov	 eax, DWORD PTR [eax]
  0002b	89 45 e0	 mov	 DWORD PTR __First$[ebp], eax

; 1733 :         return _Mypair._Get_first();

  0002e	8b 45 f8	 mov	 eax, DWORD PTR _this$[ebp]
; File C:\Program Files (x86)\Microsoft Visual Studio\2019\Community\VC\Tools\MSVC\14.28.29333\include\xmemory

; 1347 :         return *this;

  00031	89 45 ec	 mov	 DWORD PTR $T2[ebp], eax
; File C:\Program Files (x86)\Microsoft Visual Studio\2019\Community\VC\Tools\MSVC\14.28.29333\include\vector

; 1733 :         return _Mypair._Get_first();

  00034	8b 45 ec	 mov	 eax, DWORD PTR $T2[ebp]
  00037	89 45 e8	 mov	 DWORD PTR $T1[ebp], eax

; 1612 :         _Destroy_range(_First, _Last, _Getal());

  0003a	ff 75 e8	 push	 DWORD PTR $T1[ebp]
  0003d	ff 75 e4	 push	 DWORD PTR __Last$[ebp]
  00040	ff 75 e0	 push	 DWORD PTR __First$[ebp]
  00043	e8 00 00 00 00	 call	 ??$_Destroy_range@V?$allocator@PAVCTextureAnimationRandomDecorator@NEffectUpdateDecorator@@@std@@@std@@YAXPAPAVCTextureAnimationRandomDecorator@NEffectUpdateDecorator@@QAPAV12@AAV?$allocator@PAVCTextureAnimationRandomDecorator@NEffectUpdateDecorator@@@0@@Z ; std::_Destroy_range<std::allocator<NEffectUpdateDecorator::CTextureAnimationRandomDecorator *> >
  00048	83 c4 0c	 add	 esp, 12			; 0000000cH

; 1390 :         _Mylast = _Myfirst;

  0004b	8b 45 f4	 mov	 eax, DWORD PTR __Mylast$[ebp]
  0004e	8b 4d f0	 mov	 ecx, DWORD PTR __Myfirst$[ebp]
  00051	8b 09		 mov	 ecx, DWORD PTR [ecx]
  00053	89 08		 mov	 DWORD PTR [eax], ecx

; 1391 :     }

  00055	c9		 leave
  00056	c3		 ret	 0
?clear@?$vector@PAVCTextureAnimationRandomDecorator@NEffectUpdateDecorator@@V?$allocator@PAVCTextureAnimationRandomDecorator@NEffectUpdateDecorator@@@std@@@std@@QAEXXZ ENDP ; std::vector<NEffectUpdateDecorator::CTextureAnimationRandomDecorator *,std::allocator<NEffectUpdateDecorator::CTextureAnimationRandomDecorator *> >::clear
_TEXT	ENDS
; Function compile flags: /Odspy
; File D:\Metin2 Server Files\mainline\SRC_2014\Metin2Client\eterLib\Pool.h
;	COMDAT ?Delete@?$CDynamicPoolEx@VCTextureAnimationRandomDecorator@NEffectUpdateDecorator@@@@KAXPAVCTextureAnimationRandomDecorator@NEffectUpdateDecorator@@@Z
_TEXT	SEGMENT
_pkData$ = 8						; size = 4
?Delete@?$CDynamicPoolEx@VCTextureAnimationRandomDecorator@NEffectUpdateDecorator@@@@KAXPAVCTextureAnimationRandomDecorator@NEffectUpdateDecorator@@@Z PROC ; CDynamicPoolEx<NEffectUpdateDecorator::CTextureAnimationRandomDecorator>::Delete, COMDAT

; 223  : 		{

  00000	55		 push	 ebp
  00001	8b ec		 mov	 ebp, esp

; 224  : 			::operator delete(pkData);

  00003	ff 75 08	 push	 DWORD PTR _pkData$[ebp]
  00006	e8 00 00 00 00	 call	 ??3@YAXPAX@Z		; operator delete
  0000b	59		 pop	 ecx

; 225  : 		}

  0000c	5d		 pop	 ebp
  0000d	c3		 ret	 0
?Delete@?$CDynamicPoolEx@VCTextureAnimationRandomDecorator@NEffectUpdateDecorator@@@@KAXPAVCTextureAnimationRandomDecorator@NEffectUpdateDecorator@@@Z ENDP ; CDynamicPoolEx<NEffectUpdateDecorator::CTextureAnimationRandomDecorator>::Delete
_TEXT	ENDS
; Function compile flags: /Odspy
; File D:\Metin2 Server Files\mainline\SRC_2014\Metin2Client\eterLib\Pool.h
; File C:\Program Files (x86)\Microsoft Visual Studio\2019\Community\VC\Tools\MSVC\14.28.29333\include\vector
; File C:\Program Files (x86)\Microsoft Visual Studio\2019\Community\VC\Tools\MSVC\14.28.29333\include\xstddef
; File C:\Program Files (x86)\Microsoft Visual Studio\2019\Community\VC\Tools\MSVC\14.28.29333\include\vector
; File C:\Program Files (x86)\Microsoft Visual Studio\2019\Community\VC\Tools\MSVC\14.28.29333\include\xstddef
; File C:\Program Files (x86)\Microsoft Visual Studio\2019\Community\VC\Tools\MSVC\14.28.29333\include\vector
; File D:\Metin2 Server Files\mainline\SRC_2014\Metin2Client\eterLib\Pool.h
;	COMDAT ?Destroy@?$CDynamicPoolEx@VCTextureAnimationRandomDecorator@NEffectUpdateDecorator@@@@QAEXXZ
_TEXT	SEGMENT
$T1 = -44						; size = 4
$T2 = -40						; size = 4
$T3 = -36						; size = 4
$T4 = -32						; size = 4
$T5 = -28						; size = 4
___param0$ = -24					; size = 4
$T6 = -20						; size = 4
___param0$ = -16					; size = 4
__My_data$7 = -12					; size = 4
__My_data$8 = -8					; size = 4
_this$ = -4						; size = 4
?Destroy@?$CDynamicPoolEx@VCTextureAnimationRandomDecorator@NEffectUpdateDecorator@@@@QAEXXZ PROC ; CDynamicPoolEx<NEffectUpdateDecorator::CTextureAnimationRandomDecorator>::Destroy, COMDAT
; _this$ = ecx

; 150  : 		{

  00000	55		 push	 ebp
  00001	8b ec		 mov	 ebp, esp
  00003	83 ec 2c	 sub	 esp, 44			; 0000002cH
  00006	89 4d fc	 mov	 DWORD PTR _this$[ebp], ecx
; File C:\Program Files (x86)\Microsoft Visual Studio\2019\Community\VC\Tools\MSVC\14.28.29333\include\vector

; 1420 :         auto& _My_data = _Mypair._Myval2;

  00009	8b 45 fc	 mov	 eax, DWORD PTR _this$[ebp]
  0000c	83 c0 04	 add	 eax, 4
  0000f	89 45 f8	 mov	 DWORD PTR __My_data$8[ebp], eax
; File C:\Program Files (x86)\Microsoft Visual Studio\2019\Community\VC\Tools\MSVC\14.28.29333\include\xstddef

; 275  :     return __builtin_addressof(_Val);

  00012	8b 45 f8	 mov	 eax, DWORD PTR __My_data$8[ebp]
  00015	89 45 d8	 mov	 DWORD PTR $T2[ebp], eax
; File C:\Program Files (x86)\Microsoft Visual Studio\2019\Community\VC\Tools\MSVC\14.28.29333\include\vector

; 1421 :         return iterator(_My_data._Mylast, _STD addressof(_My_data));

  00018	8b 45 f8	 mov	 eax, DWORD PTR __My_data$8[ebp]
  0001b	8b 40 04	 mov	 eax, DWORD PTR [eax+4]
  0001e	89 45 f0	 mov	 DWORD PTR ___param0$[ebp], eax

; 42   :     _Vector_const_iterator(_Tptr _Parg, const _Container_base* _Pvector) noexcept : _Ptr(_Parg) {

  00021	8b 45 f0	 mov	 eax, DWORD PTR ___param0$[ebp]
  00024	89 45 ec	 mov	 DWORD PTR $T6[ebp], eax

; 1421 :         return iterator(_My_data._Mylast, _STD addressof(_My_data));

  00027	8d 45 ec	 lea	 eax, DWORD PTR $T6[ebp]
  0002a	89 45 e0	 mov	 DWORD PTR $T4[ebp], eax

; 1410 :         auto& _My_data = _Mypair._Myval2;

  0002d	8b 45 fc	 mov	 eax, DWORD PTR _this$[ebp]
  00030	83 c0 04	 add	 eax, 4
  00033	89 45 f4	 mov	 DWORD PTR __My_data$7[ebp], eax
; File C:\Program Files (x86)\Microsoft Visual Studio\2019\Community\VC\Tools\MSVC\14.28.29333\include\xstddef

; 275  :     return __builtin_addressof(_Val);

  00036	8b 45 f4	 mov	 eax, DWORD PTR __My_data$7[ebp]
  00039	89 45 d4	 mov	 DWORD PTR $T1[ebp], eax
; File C:\Program Files (x86)\Microsoft Visual Studio\2019\Community\VC\Tools\MSVC\14.28.29333\include\vector

; 1411 :         return iterator(_My_data._Myfirst, _STD addressof(_My_data));

  0003c	8b 45 f4	 mov	 eax, DWORD PTR __My_data$7[ebp]
  0003f	8b 00		 mov	 eax, DWORD PTR [eax]
  00041	89 45 e8	 mov	 DWORD PTR ___param0$[ebp], eax

; 42   :     _Vector_const_iterator(_Tptr _Parg, const _Container_base* _Pvector) noexcept : _Ptr(_Parg) {

  00044	8b 45 e8	 mov	 eax, DWORD PTR ___param0$[ebp]
  00047	89 45 e4	 mov	 DWORD PTR $T5[ebp], eax

; 1411 :         return iterator(_My_data._Myfirst, _STD addressof(_My_data));

  0004a	8d 45 e4	 lea	 eax, DWORD PTR $T5[ebp]
  0004d	89 45 dc	 mov	 DWORD PTR $T3[ebp], eax
; File D:\Metin2 Server Files\mainline\SRC_2014\Metin2Client\eterLib\Pool.h

; 160  : 			std::for_each(m_kVct_pkData.begin(), m_kVct_pkData.end(), Delete);

  00050	68 00 00 00 00	 push	 OFFSET ?Delete@?$CDynamicPoolEx@VCTextureAnimationRandomDecorator@NEffectUpdateDecorator@@@@KAXPAVCTextureAnimationRandomDecorator@NEffectUpdateDecorator@@@Z ; CDynamicPoolEx<NEffectUpdateDecorator::CTextureAnimationRandomDecorator>::Delete
  00055	8b 45 e0	 mov	 eax, DWORD PTR $T4[ebp]
  00058	ff 30		 push	 DWORD PTR [eax]
  0005a	8b 45 dc	 mov	 eax, DWORD PTR $T3[ebp]
  0005d	ff 30		 push	 DWORD PTR [eax]
  0005f	e8 00 00 00 00	 call	 ??$for_each@V?$_Vector_iterator@V?$_Vector_val@U?$_Simple_types@PAVCTextureAnimationRandomDecorator@NEffectUpdateDecorator@@@std@@@std@@@std@@P6AXPAVCTextureAnimationRandomDecorator@NEffectUpdateDecorator@@@Z@std@@YAP6AXPAVCTextureAnimationRandomDecorator@NEffectUpdateDecorator@@@ZV?$_Vector_iterator@V?$_Vector_val@U?$_Simple_types@PAVCTextureAnimationRandomDecorator@NEffectUpdateDecorator@@@std@@@std@@@0@1P6AX0@Z@Z ; std::for_each<std::_Vector_iterator<std::_Vector_val<std::_Simple_types<NEffectUpdateDecorator::CTextureAnimationRandomDecorator *> > >,void (__cdecl*)(NEffectUpdateDecorator::CTextureAnimationRandomDecorator *)>
  00064	83 c4 0c	 add	 esp, 12			; 0000000cH

; 161  : 			m_kVct_pkData.clear();

  00067	8b 4d fc	 mov	 ecx, DWORD PTR _this$[ebp]
  0006a	83 c1 04	 add	 ecx, 4
  0006d	e8 00 00 00 00	 call	 ?clear@?$vector@PAVCTextureAnimationRandomDecorator@NEffectUpdateDecorator@@V?$allocator@PAVCTextureAnimationRandomDecorator@NEffectUpdateDecorator@@@std@@@std@@QAEXXZ ; std::vector<NEffectUpdateDecorator::CTextureAnimationRandomDecorator *,std::allocator<NEffectUpdateDecorator::CTextureAnimationRandomDecorator *> >::clear

; 162  : 			m_kVct_pkFree.clear();

  00072	8b 4d fc	 mov	 ecx, DWORD PTR _this$[ebp]
  00075	83 c1 10	 add	 ecx, 16			; 00000010H
  00078	e8 00 00 00 00	 call	 ?clear@?$vector@PAVCTextureAnimationRandomDecorator@NEffectUpdateDecorator@@V?$allocator@PAVCTextureAnimationRandomDecorator@NEffectUpdateDecorator@@@std@@@std@@QAEXXZ ; std::vector<NEffectUpdateDecorator::CTextureAnimationRandomDecorator *,std::allocator<NEffectUpdateDecorator::CTextureAnimationRandomDecorator *> >::clear

; 163  : 		}

  0007d	c9		 leave
  0007e	c3		 ret	 0
?Destroy@?$CDynamicPoolEx@VCTextureAnimationRandomDecorator@NEffectUpdateDecorator@@@@QAEXXZ ENDP ; CDynamicPoolEx<NEffectUpdateDecorator::CTextureAnimationRandomDecorator>::Destroy
_TEXT	ENDS
; Function compile flags: /Odspy
; File D:\Metin2 Server Files\mainline\SRC_2014\Metin2Client\eterLib\Pool.h
; File C:\Program Files (x86)\Microsoft Visual Studio\2019\Community\VC\Tools\MSVC\14.28.29333\include\vector
; File D:\Metin2 Server Files\mainline\SRC_2014\Metin2Client\eterLib\Pool.h
; File C:\Program Files (x86)\Microsoft Visual Studio\2019\Community\VC\Tools\MSVC\14.28.29333\include\vector
; File D:\Metin2 Server Files\mainline\SRC_2014\Metin2Client\eterLib\Pool.h
;	COMDAT ??1?$CDynamicPoolEx@VCTextureAnimationRandomDecorator@NEffectUpdateDecorator@@@@UAE@XZ
_TEXT	SEGMENT
_this$ = -16						; size = 4
__$EHRec$ = -12						; size = 12
??1?$CDynamicPoolEx@VCTextureAnimationRandomDecorator@NEffectUpdateDecorator@@@@UAE@XZ PROC ; CDynamicPoolEx<NEffectUpdateDecorator::CTextureAnimationRandomDecorator>::~CDynamicPoolEx<NEffectUpdateDecorator::CTextureAnimationRandomDecorator>, COMDAT
; _this$ = ecx

; 132  : 		{

  00000	55		 push	 ebp
  00001	8b ec		 mov	 ebp, esp
  00003	6a ff		 push	 -1
  00005	68 00 00 00 00	 push	 __ehhandler$??1?$CDynamicPoolEx@VCTextureAnimationRandomDecorator@NEffectUpdateDecorator@@@@UAE@XZ
  0000a	64 a1 00 00 00
	00		 mov	 eax, DWORD PTR fs:0
  00010	50		 push	 eax
  00011	51		 push	 ecx
  00012	a1 00 00 00 00	 mov	 eax, DWORD PTR ___security_cookie
  00017	33 c5		 xor	 eax, ebp
  00019	50		 push	 eax
  0001a	8d 45 f4	 lea	 eax, DWORD PTR __$EHRec$[ebp]
  0001d	64 a3 00 00 00
	00		 mov	 DWORD PTR fs:0, eax
  00023	89 4d f0	 mov	 DWORD PTR _this$[ebp], ecx
  00026	8b 45 f0	 mov	 eax, DWORD PTR _this$[ebp]
  00029	c7 00 00 00 00
	00		 mov	 DWORD PTR [eax], OFFSET ??_7?$CDynamicPoolEx@VCTextureAnimationRandomDecorator@NEffectUpdateDecorator@@@@6B@

; 133  : 			assert(m_kVct_pkFree.size()==m_kVct_pkData.size());
; 134  : 			Destroy();

  0002f	8b 4d f0	 mov	 ecx, DWORD PTR _this$[ebp]
  00032	e8 00 00 00 00	 call	 ?Destroy@?$CDynamicPoolEx@VCTextureAnimationRandomDecorator@NEffectUpdateDecorator@@@@QAEXXZ ; CDynamicPoolEx<NEffectUpdateDecorator::CTextureAnimationRandomDecorator>::Destroy

; 142  : 		}

  00037	8b 4d f0	 mov	 ecx, DWORD PTR _this$[ebp]
  0003a	83 c1 10	 add	 ecx, 16			; 00000010H
; File C:\Program Files (x86)\Microsoft Visual Studio\2019\Community\VC\Tools\MSVC\14.28.29333\include\vector

; 673  :         _Tidy();

  0003d	e8 00 00 00 00	 call	 ?_Tidy@?$vector@PAVCTextureAnimationRandomDecorator@NEffectUpdateDecorator@@V?$allocator@PAVCTextureAnimationRandomDecorator@NEffectUpdateDecorator@@@std@@@std@@AAEXXZ ; std::vector<NEffectUpdateDecorator::CTextureAnimationRandomDecorator *,std::allocator<NEffectUpdateDecorator::CTextureAnimationRandomDecorator *> >::_Tidy
; File D:\Metin2 Server Files\mainline\SRC_2014\Metin2Client\eterLib\Pool.h

; 142  : 		}

  00042	8b 4d f0	 mov	 ecx, DWORD PTR _this$[ebp]
  00045	83 c1 04	 add	 ecx, 4
; File C:\Program Files (x86)\Microsoft Visual Studio\2019\Community\VC\Tools\MSVC\14.28.29333\include\vector

; 673  :         _Tidy();

  00048	e8 00 00 00 00	 call	 ?_Tidy@?$vector@PAVCTextureAnimationRandomDecorator@NEffectUpdateDecorator@@V?$allocator@PAVCTextureAnimationRandomDecorator@NEffectUpdateDecorator@@@std@@@std@@AAEXXZ ; std::vector<NEffectUpdateDecorator::CTextureAnimationRandomDecorator *,std::allocator<NEffectUpdateDecorator::CTextureAnimationRandomDecorator *> >::_Tidy
; File D:\Metin2 Server Files\mainline\SRC_2014\Metin2Client\eterLib\Pool.h

; 142  : 		}

  0004d	8b 4d f4	 mov	 ecx, DWORD PTR __$EHRec$[ebp]
  00050	64 89 0d 00 00
	00 00		 mov	 DWORD PTR fs:0, ecx
  00057	59		 pop	 ecx
  00058	c9		 leave
  00059	c3		 ret	 0
  0005a	cc		 int	 3
  0005b	cc		 int	 3
  0005c	cc		 int	 3
  0005d	cc		 int	 3
  0005e	cc		 int	 3
_TEXT	ENDS
;	COMDAT text$x
text$x	SEGMENT
__ehhandler$??1?$CDynamicPoolEx@VCTextureAnimationRandomDecorator@NEffectUpdateDecorator@@@@UAE@XZ:
  00000	90		 npad	 1
  00001	90		 npad	 1
  00002	8b 54 24 08	 mov	 edx, DWORD PTR [esp+8]
  00006	8d 42 0c	 lea	 eax, DWORD PTR [edx+12]
  00009	8b 4a f8	 mov	 ecx, DWORD PTR [edx-8]
  0000c	33 c8		 xor	 ecx, eax
  0000e	e8 00 00 00 00	 call	 @__security_check_cookie@4
  00013	b8 00 00 00 00	 mov	 eax, OFFSET __ehfuncinfo$??1?$CDynamicPoolEx@VCTextureAnimationRandomDecorator@NEffectUpdateDecorator@@@@UAE@XZ
  00018	e9 00 00 00 00	 jmp	 ___CxxFrameHandler3
text$x	ENDS
??1?$CDynamicPoolEx@VCTextureAnimationRandomDecorator@NEffectUpdateDecorator@@@@UAE@XZ ENDP ; CDynamicPoolEx<NEffectUpdateDecorator::CTextureAnimationRandomDecorator>::~CDynamicPoolEx<NEffectUpdateDecorator::CTextureAnimationRandomDecorator>
; Function compile flags: /Odspy
; File D:\Metin2 Server Files\mainline\SRC_2014\Metin2Client\eterLib\Pool.h
; File C:\Program Files (x86)\Microsoft Visual Studio\2019\Community\VC\Tools\MSVC\14.28.29333\include\vector
; File C:\Program Files (x86)\Microsoft Visual Studio\2019\Community\VC\Tools\MSVC\14.28.29333\include\xmemory
; File C:\Program Files (x86)\Microsoft Visual Studio\2019\Community\VC\Tools\MSVC\14.28.29333\include\vector
; File D:\Metin2 Server Files\mainline\SRC_2014\Metin2Client\eterLib\Pool.h
; File C:\Program Files (x86)\Microsoft Visual Studio\2019\Community\VC\Tools\MSVC\14.28.29333\include\vector
; File C:\Program Files (x86)\Microsoft Visual Studio\2019\Community\VC\Tools\MSVC\14.28.29333\include\xmemory
; File C:\Program Files (x86)\Microsoft Visual Studio\2019\Community\VC\Tools\MSVC\14.28.29333\include\vector
; File D:\Metin2 Server Files\mainline\SRC_2014\Metin2Client\eterLib\Pool.h
;	COMDAT ??0?$CDynamicPoolEx@VCTextureAnimationRandomDecorator@NEffectUpdateDecorator@@@@QAE@XZ
_TEXT	SEGMENT
_this$ = -28						; size = 4
_this$ = -24						; size = 4
_this$ = -20						; size = 4
_this$ = -16						; size = 4
_this$1 = -12						; size = 4
_this$2 = -8						; size = 4
_this$ = -4						; size = 4
??0?$CDynamicPoolEx@VCTextureAnimationRandomDecorator@NEffectUpdateDecorator@@@@QAE@XZ PROC ; CDynamicPoolEx<NEffectUpdateDecorator::CTextureAnimationRandomDecorator>::CDynamicPoolEx<NEffectUpdateDecorator::CTextureAnimationRandomDecorator>, COMDAT
; _this$ = ecx

; 126  : 		CDynamicPoolEx()

  00000	55		 push	 ebp
  00001	8b ec		 mov	 ebp, esp
  00003	83 ec 1c	 sub	 esp, 28			; 0000001cH
  00006	89 4d fc	 mov	 DWORD PTR _this$[ebp], ecx

; 127  : 		{

  00009	8b 45 fc	 mov	 eax, DWORD PTR _this$[ebp]
  0000c	c7 00 00 00 00
	00		 mov	 DWORD PTR [eax], OFFSET ??_7?$CDynamicPoolEx@VCTextureAnimationRandomDecorator@NEffectUpdateDecorator@@@@6B@
  00012	8b 45 fc	 mov	 eax, DWORD PTR _this$[ebp]
  00015	83 c0 04	 add	 eax, 4
  00018	89 45 f0	 mov	 DWORD PTR _this$[ebp], eax
; File C:\Program Files (x86)\Microsoft Visual Studio\2019\Community\VC\Tools\MSVC\14.28.29333\include\vector

; 445  :     vector() noexcept(is_nothrow_default_constructible_v<_Alty>) : _Mypair(_Zero_then_variadic_args_t{}) {

  0001b	8b 45 f0	 mov	 eax, DWORD PTR _this$[ebp]
  0001e	89 45 ec	 mov	 DWORD PTR _this$[ebp], eax
; File C:\Program Files (x86)\Microsoft Visual Studio\2019\Community\VC\Tools\MSVC\14.28.29333\include\xmemory

; 1339 :         : _Ty1(), _Myval2(_STD forward<_Other2>(_Val2)...) {}

  00021	8b 45 ec	 mov	 eax, DWORD PTR _this$[ebp]
  00024	89 45 f8	 mov	 DWORD PTR _this$2[ebp], eax
; File C:\Program Files (x86)\Microsoft Visual Studio\2019\Community\VC\Tools\MSVC\14.28.29333\include\vector

; 375  :     _Vector_val() noexcept : _Myfirst(), _Mylast(), _Myend() {}

  00027	8b 45 f8	 mov	 eax, DWORD PTR _this$2[ebp]
  0002a	83 20 00	 and	 DWORD PTR [eax], 0
  0002d	8b 45 f8	 mov	 eax, DWORD PTR _this$2[ebp]
  00030	83 60 04 00	 and	 DWORD PTR [eax+4], 0
  00034	8b 45 f8	 mov	 eax, DWORD PTR _this$2[ebp]
  00037	83 60 08 00	 and	 DWORD PTR [eax+8], 0
; File D:\Metin2 Server Files\mainline\SRC_2014\Metin2Client\eterLib\Pool.h

; 127  : 		{

  0003b	8b 45 fc	 mov	 eax, DWORD PTR _this$[ebp]
  0003e	83 c0 10	 add	 eax, 16			; 00000010H
  00041	89 45 e8	 mov	 DWORD PTR _this$[ebp], eax
; File C:\Program Files (x86)\Microsoft Visual Studio\2019\Community\VC\Tools\MSVC\14.28.29333\include\vector

; 445  :     vector() noexcept(is_nothrow_default_constructible_v<_Alty>) : _Mypair(_Zero_then_variadic_args_t{}) {

  00044	8b 45 e8	 mov	 eax, DWORD PTR _this$[ebp]
  00047	89 45 e4	 mov	 DWORD PTR _this$[ebp], eax
; File C:\Program Files (x86)\Microsoft Visual Studio\2019\Community\VC\Tools\MSVC\14.28.29333\include\xmemory

; 1339 :         : _Ty1(), _Myval2(_STD forward<_Other2>(_Val2)...) {}

  0004a	8b 45 e4	 mov	 eax, DWORD PTR _this$[ebp]
  0004d	89 45 f4	 mov	 DWORD PTR _this$1[ebp], eax
; File C:\Program Files (x86)\Microsoft Visual Studio\2019\Community\VC\Tools\MSVC\14.28.29333\include\vector

; 375  :     _Vector_val() noexcept : _Myfirst(), _Mylast(), _Myend() {}

  00050	8b 45 f4	 mov	 eax, DWORD PTR _this$1[ebp]
  00053	83 20 00	 and	 DWORD PTR [eax], 0
  00056	8b 45 f4	 mov	 eax, DWORD PTR _this$1[ebp]
  00059	83 60 04 00	 and	 DWORD PTR [eax+4], 0
  0005d	8b 45 f4	 mov	 eax, DWORD PTR _this$1[ebp]
  00060	83 60 08 00	 and	 DWORD PTR [eax+8], 0
; File D:\Metin2 Server Files\mainline\SRC_2014\Metin2Client\eterLib\Pool.h

; 128  : 			m_uInitCapacity=0;

  00064	8b 45 fc	 mov	 eax, DWORD PTR _this$[ebp]
  00067	83 60 1c 00	 and	 DWORD PTR [eax+28], 0

; 129  : 			m_uUsedCapacity=0;

  0006b	8b 45 fc	 mov	 eax, DWORD PTR _this$[ebp]
  0006e	83 60 20 00	 and	 DWORD PTR [eax+32], 0

; 130  : 		}

  00072	8b 45 fc	 mov	 eax, DWORD PTR _this$[ebp]
  00075	c9		 leave
  00076	c3		 ret	 0
??0?$CDynamicPoolEx@VCTextureAnimationRandomDecorator@NEffectUpdateDecorator@@@@QAE@XZ ENDP ; CDynamicPoolEx<NEffectUpdateDecorator::CTextureAnimationRandomDecorator>::CDynamicPoolEx<NEffectUpdateDecorator::CTextureAnimationRandomDecorator>
_TEXT	ENDS
; Function compile flags: /Odspy
;	COMDAT ??_G?$CDynamicPoolEx@VCAirResistanceDecorator@NEffectUpdateDecorator@@@@UAEPAXI@Z
_TEXT	SEGMENT
_this$ = -4						; size = 4
___flags$ = 8						; size = 4
??_G?$CDynamicPoolEx@VCAirResistanceDecorator@NEffectUpdateDecorator@@@@UAEPAXI@Z PROC ; CDynamicPoolEx<NEffectUpdateDecorator::CAirResistanceDecorator>::`scalar deleting destructor', COMDAT
; _this$ = ecx
  00000	55		 push	 ebp
  00001	8b ec		 mov	 ebp, esp
  00003	51		 push	 ecx
  00004	89 4d fc	 mov	 DWORD PTR _this$[ebp], ecx
  00007	8b 4d fc	 mov	 ecx, DWORD PTR _this$[ebp]
  0000a	e8 00 00 00 00	 call	 ??1?$CDynamicPoolEx@VCAirResistanceDecorator@NEffectUpdateDecorator@@@@UAE@XZ ; CDynamicPoolEx<NEffectUpdateDecorator::CAirResistanceDecorator>::~CDynamicPoolEx<NEffectUpdateDecorator::CAirResistanceDecorator>
  0000f	8b 45 08	 mov	 eax, DWORD PTR ___flags$[ebp]
  00012	83 e0 01	 and	 eax, 1
  00015	74 0c		 je	 SHORT $LN2@scalar
  00017	6a 24		 push	 36			; 00000024H
  00019	ff 75 fc	 push	 DWORD PTR _this$[ebp]
  0001c	e8 00 00 00 00	 call	 ??3@YAXPAXI@Z		; operator delete
  00021	59		 pop	 ecx
  00022	59		 pop	 ecx
$LN2@scalar:
  00023	8b 45 fc	 mov	 eax, DWORD PTR _this$[ebp]
  00026	c9		 leave
  00027	c2 04 00	 ret	 4
??_G?$CDynamicPoolEx@VCAirResistanceDecorator@NEffectUpdateDecorator@@@@UAEPAXI@Z ENDP ; CDynamicPoolEx<NEffectUpdateDecorator::CAirResistanceDecorator>::`scalar deleting destructor'
_TEXT	ENDS
; Function compile flags: /Odspy
; File C:\Program Files (x86)\Microsoft Visual Studio\2019\Community\VC\Tools\MSVC\14.28.29333\include\vector
; File C:\Program Files (x86)\Microsoft Visual Studio\2019\Community\VC\Tools\MSVC\14.28.29333\include\xmemory
; File C:\Program Files (x86)\Microsoft Visual Studio\2019\Community\VC\Tools\MSVC\14.28.29333\include\vector
; File C:\Program Files (x86)\Microsoft Visual Studio\2019\Community\VC\Tools\MSVC\14.28.29333\include\xmemory
; File C:\Program Files (x86)\Microsoft Visual Studio\2019\Community\VC\Tools\MSVC\14.28.29333\include\vector
; File C:\Program Files (x86)\Microsoft Visual Studio\2019\Community\VC\Tools\MSVC\14.28.29333\include\xmemory
; File C:\Program Files (x86)\Microsoft Visual Studio\2019\Community\VC\Tools\MSVC\14.28.29333\include\vector
;	COMDAT ?_Tidy@?$vector@PAVCAirResistanceDecorator@NEffectUpdateDecorator@@V?$allocator@PAVCAirResistanceDecorator@NEffectUpdateDecorator@@@std@@@std@@AAEXXZ
_TEXT	SEGMENT
$T1 = -52						; size = 4
__Ptr$ = -48						; size = 4
__Count$ = -44						; size = 4
$T2 = -40						; size = 4
__First$ = -36						; size = 4
__Last$ = -32						; size = 4
$T3 = -28						; size = 4
$T4 = -24						; size = 4
__Myend$ = -20						; size = 4
__Mylast$ = -16						; size = 4
_this$ = -12						; size = 4
__My_data$ = -8						; size = 4
__Myfirst$ = -4						; size = 4
?_Tidy@?$vector@PAVCAirResistanceDecorator@NEffectUpdateDecorator@@V?$allocator@PAVCAirResistanceDecorator@NEffectUpdateDecorator@@@std@@@std@@AAEXXZ PROC ; std::vector<NEffectUpdateDecorator::CAirResistanceDecorator *,std::allocator<NEffectUpdateDecorator::CAirResistanceDecorator *> >::_Tidy, COMDAT
; _this$ = ecx

; 1686 :     void _Tidy() noexcept { // free all storage

  00000	55		 push	 ebp
  00001	8b ec		 mov	 ebp, esp
  00003	83 ec 34	 sub	 esp, 52			; 00000034H
  00006	89 4d f4	 mov	 DWORD PTR _this$[ebp], ecx

; 1687 :         auto& _My_data    = _Mypair._Myval2;

  00009	8b 45 f4	 mov	 eax, DWORD PTR _this$[ebp]
  0000c	89 45 f8	 mov	 DWORD PTR __My_data$[ebp], eax

; 1688 :         pointer& _Myfirst = _My_data._Myfirst;

  0000f	8b 45 f8	 mov	 eax, DWORD PTR __My_data$[ebp]
  00012	89 45 fc	 mov	 DWORD PTR __Myfirst$[ebp], eax

; 1689 :         pointer& _Mylast  = _My_data._Mylast;

  00015	8b 45 f8	 mov	 eax, DWORD PTR __My_data$[ebp]
  00018	83 c0 04	 add	 eax, 4
  0001b	89 45 f0	 mov	 DWORD PTR __Mylast$[ebp], eax

; 1690 :         pointer& _Myend   = _My_data._Myend;

  0001e	8b 45 f8	 mov	 eax, DWORD PTR __My_data$[ebp]
  00021	83 c0 08	 add	 eax, 8
  00024	89 45 ec	 mov	 DWORD PTR __Myend$[ebp], eax

; 1691 : 
; 1692 :         _My_data._Orphan_all();
; 1693 : 
; 1694 :         if (_Myfirst) { // destroy and deallocate old array

  00027	8b 45 fc	 mov	 eax, DWORD PTR __Myfirst$[ebp]
  0002a	83 38 00	 cmp	 DWORD PTR [eax], 0
  0002d	74 74		 je	 SHORT $LN3@Tidy

; 1695 :             _Destroy(_Myfirst, _Mylast);

  0002f	8b 45 f0	 mov	 eax, DWORD PTR __Mylast$[ebp]
  00032	8b 00		 mov	 eax, DWORD PTR [eax]
  00034	89 45 e0	 mov	 DWORD PTR __Last$[ebp], eax
  00037	8b 45 fc	 mov	 eax, DWORD PTR __Myfirst$[ebp]
  0003a	8b 00		 mov	 eax, DWORD PTR [eax]
  0003c	89 45 dc	 mov	 DWORD PTR __First$[ebp], eax

; 1733 :         return _Mypair._Get_first();

  0003f	8b 45 f4	 mov	 eax, DWORD PTR _this$[ebp]
; File C:\Program Files (x86)\Microsoft Visual Studio\2019\Community\VC\Tools\MSVC\14.28.29333\include\xmemory

; 1347 :         return *this;

  00042	89 45 e8	 mov	 DWORD PTR $T4[ebp], eax
; File C:\Program Files (x86)\Microsoft Visual Studio\2019\Community\VC\Tools\MSVC\14.28.29333\include\vector

; 1733 :         return _Mypair._Get_first();

  00045	8b 45 e8	 mov	 eax, DWORD PTR $T4[ebp]
  00048	89 45 e4	 mov	 DWORD PTR $T3[ebp], eax

; 1612 :         _Destroy_range(_First, _Last, _Getal());

  0004b	ff 75 e4	 push	 DWORD PTR $T3[ebp]
  0004e	ff 75 e0	 push	 DWORD PTR __Last$[ebp]
  00051	ff 75 dc	 push	 DWORD PTR __First$[ebp]
  00054	e8 00 00 00 00	 call	 ??$_Destroy_range@V?$allocator@PAVCAirResistanceDecorator@NEffectUpdateDecorator@@@std@@@std@@YAXPAPAVCAirResistanceDecorator@NEffectUpdateDecorator@@QAPAV12@AAV?$allocator@PAVCAirResistanceDecorator@NEffectUpdateDecorator@@@0@@Z ; std::_Destroy_range<std::allocator<NEffectUpdateDecorator::CAirResistanceDecorator *> >
  00059	83 c4 0c	 add	 esp, 12			; 0000000cH

; 1733 :         return _Mypair._Get_first();

  0005c	8b 45 f4	 mov	 eax, DWORD PTR _this$[ebp]
; File C:\Program Files (x86)\Microsoft Visual Studio\2019\Community\VC\Tools\MSVC\14.28.29333\include\xmemory

; 1347 :         return *this;

  0005f	89 45 d8	 mov	 DWORD PTR $T2[ebp], eax
; File C:\Program Files (x86)\Microsoft Visual Studio\2019\Community\VC\Tools\MSVC\14.28.29333\include\vector

; 1733 :         return _Mypair._Get_first();

  00062	8b 45 d8	 mov	 eax, DWORD PTR $T2[ebp]
  00065	89 45 cc	 mov	 DWORD PTR $T1[ebp], eax

; 1696 :             _Getal().deallocate(_Myfirst, static_cast<size_type>(_Myend - _Myfirst));

  00068	8b 45 ec	 mov	 eax, DWORD PTR __Myend$[ebp]
  0006b	8b 4d fc	 mov	 ecx, DWORD PTR __Myfirst$[ebp]
  0006e	8b 00		 mov	 eax, DWORD PTR [eax]
  00070	2b 01		 sub	 eax, DWORD PTR [ecx]
  00072	c1 f8 02	 sar	 eax, 2
  00075	89 45 d4	 mov	 DWORD PTR __Count$[ebp], eax
  00078	8b 45 fc	 mov	 eax, DWORD PTR __Myfirst$[ebp]
  0007b	8b 00		 mov	 eax, DWORD PTR [eax]
  0007d	89 45 d0	 mov	 DWORD PTR __Ptr$[ebp], eax
; File C:\Program Files (x86)\Microsoft Visual Studio\2019\Community\VC\Tools\MSVC\14.28.29333\include\xmemory

; 810  :         _Deallocate<_New_alignof<_Ty>>(_Ptr, sizeof(_Ty) * _Count);

  00080	8b 45 d4	 mov	 eax, DWORD PTR __Count$[ebp]
  00083	c1 e0 02	 shl	 eax, 2
  00086	50		 push	 eax
  00087	ff 75 d0	 push	 DWORD PTR __Ptr$[ebp]
  0008a	e8 00 00 00 00	 call	 ??$_Deallocate@$07$0A@@std@@YAXPAXI@Z ; std::_Deallocate<8,0>
  0008f	59		 pop	 ecx
  00090	59		 pop	 ecx
; File C:\Program Files (x86)\Microsoft Visual Studio\2019\Community\VC\Tools\MSVC\14.28.29333\include\vector

; 1698 :             _Myfirst = pointer();

  00091	8b 45 fc	 mov	 eax, DWORD PTR __Myfirst$[ebp]
  00094	83 20 00	 and	 DWORD PTR [eax], 0

; 1699 :             _Mylast  = pointer();

  00097	8b 45 f0	 mov	 eax, DWORD PTR __Mylast$[ebp]
  0009a	83 20 00	 and	 DWORD PTR [eax], 0

; 1700 :             _Myend   = pointer();

  0009d	8b 45 ec	 mov	 eax, DWORD PTR __Myend$[ebp]
  000a0	83 20 00	 and	 DWORD PTR [eax], 0
$LN3@Tidy:

; 1701 :         }
; 1702 :     }

  000a3	c9		 leave
  000a4	c3		 ret	 0
?_Tidy@?$vector@PAVCAirResistanceDecorator@NEffectUpdateDecorator@@V?$allocator@PAVCAirResistanceDecorator@NEffectUpdateDecorator@@@std@@@std@@AAEXXZ ENDP ; std::vector<NEffectUpdateDecorator::CAirResistanceDecorator *,std::allocator<NEffectUpdateDecorator::CAirResistanceDecorator *> >::_Tidy
_TEXT	ENDS
; Function compile flags: /Odspy
; File C:\Program Files (x86)\Microsoft Visual Studio\2019\Community\VC\Tools\MSVC\14.28.29333\include\vector
; File C:\Program Files (x86)\Microsoft Visual Studio\2019\Community\VC\Tools\MSVC\14.28.29333\include\xmemory
; File C:\Program Files (x86)\Microsoft Visual Studio\2019\Community\VC\Tools\MSVC\14.28.29333\include\vector
;	COMDAT ?clear@?$vector@PAVCAirResistanceDecorator@NEffectUpdateDecorator@@V?$allocator@PAVCAirResistanceDecorator@NEffectUpdateDecorator@@@std@@@std@@QAEXXZ
_TEXT	SEGMENT
__First$ = -32						; size = 4
__Last$ = -28						; size = 4
$T1 = -24						; size = 4
$T2 = -20						; size = 4
__Myfirst$ = -16					; size = 4
__Mylast$ = -12						; size = 4
_this$ = -8						; size = 4
__My_data$ = -4						; size = 4
?clear@?$vector@PAVCAirResistanceDecorator@NEffectUpdateDecorator@@V?$allocator@PAVCAirResistanceDecorator@NEffectUpdateDecorator@@@std@@@std@@QAEXXZ PROC ; std::vector<NEffectUpdateDecorator::CAirResistanceDecorator *,std::allocator<NEffectUpdateDecorator::CAirResistanceDecorator *> >::clear, COMDAT
; _this$ = ecx

; 1383 :     void clear() noexcept { // erase all

  00000	55		 push	 ebp
  00001	8b ec		 mov	 ebp, esp
  00003	83 ec 20	 sub	 esp, 32			; 00000020H
  00006	89 4d f8	 mov	 DWORD PTR _this$[ebp], ecx

; 1384 :         auto& _My_data    = _Mypair._Myval2;

  00009	8b 45 f8	 mov	 eax, DWORD PTR _this$[ebp]
  0000c	89 45 fc	 mov	 DWORD PTR __My_data$[ebp], eax

; 1385 :         pointer& _Myfirst = _My_data._Myfirst;

  0000f	8b 45 fc	 mov	 eax, DWORD PTR __My_data$[ebp]
  00012	89 45 f0	 mov	 DWORD PTR __Myfirst$[ebp], eax

; 1386 :         pointer& _Mylast  = _My_data._Mylast;

  00015	8b 45 fc	 mov	 eax, DWORD PTR __My_data$[ebp]
  00018	83 c0 04	 add	 eax, 4
  0001b	89 45 f4	 mov	 DWORD PTR __Mylast$[ebp], eax

; 1387 : 
; 1388 :         _My_data._Orphan_all();
; 1389 :         _Destroy(_Myfirst, _Mylast);

  0001e	8b 45 f4	 mov	 eax, DWORD PTR __Mylast$[ebp]
  00021	8b 00		 mov	 eax, DWORD PTR [eax]
  00023	89 45 e4	 mov	 DWORD PTR __Last$[ebp], eax
  00026	8b 45 f0	 mov	 eax, DWORD PTR __Myfirst$[ebp]
  00029	8b 00		 mov	 eax, DWORD PTR [eax]
  0002b	89 45 e0	 mov	 DWORD PTR __First$[ebp], eax

; 1733 :         return _Mypair._Get_first();

  0002e	8b 45 f8	 mov	 eax, DWORD PTR _this$[ebp]
; File C:\Program Files (x86)\Microsoft Visual Studio\2019\Community\VC\Tools\MSVC\14.28.29333\include\xmemory

; 1347 :         return *this;

  00031	89 45 ec	 mov	 DWORD PTR $T2[ebp], eax
; File C:\Program Files (x86)\Microsoft Visual Studio\2019\Community\VC\Tools\MSVC\14.28.29333\include\vector

; 1733 :         return _Mypair._Get_first();

  00034	8b 45 ec	 mov	 eax, DWORD PTR $T2[ebp]
  00037	89 45 e8	 mov	 DWORD PTR $T1[ebp], eax

; 1612 :         _Destroy_range(_First, _Last, _Getal());

  0003a	ff 75 e8	 push	 DWORD PTR $T1[ebp]
  0003d	ff 75 e4	 push	 DWORD PTR __Last$[ebp]
  00040	ff 75 e0	 push	 DWORD PTR __First$[ebp]
  00043	e8 00 00 00 00	 call	 ??$_Destroy_range@V?$allocator@PAVCAirResistanceDecorator@NEffectUpdateDecorator@@@std@@@std@@YAXPAPAVCAirResistanceDecorator@NEffectUpdateDecorator@@QAPAV12@AAV?$allocator@PAVCAirResistanceDecorator@NEffectUpdateDecorator@@@0@@Z ; std::_Destroy_range<std::allocator<NEffectUpdateDecorator::CAirResistanceDecorator *> >
  00048	83 c4 0c	 add	 esp, 12			; 0000000cH

; 1390 :         _Mylast = _Myfirst;

  0004b	8b 45 f4	 mov	 eax, DWORD PTR __Mylast$[ebp]
  0004e	8b 4d f0	 mov	 ecx, DWORD PTR __Myfirst$[ebp]
  00051	8b 09		 mov	 ecx, DWORD PTR [ecx]
  00053	89 08		 mov	 DWORD PTR [eax], ecx

; 1391 :     }

  00055	c9		 leave
  00056	c3		 ret	 0
?clear@?$vector@PAVCAirResistanceDecorator@NEffectUpdateDecorator@@V?$allocator@PAVCAirResistanceDecorator@NEffectUpdateDecorator@@@std@@@std@@QAEXXZ ENDP ; std::vector<NEffectUpdateDecorator::CAirResistanceDecorator *,std::allocator<NEffectUpdateDecorator::CAirResistanceDecorator *> >::clear
_TEXT	ENDS
; Function compile flags: /Odspy
; File D:\Metin2 Server Files\mainline\SRC_2014\Metin2Client\eterLib\Pool.h
;	COMDAT ?Delete@?$CDynamicPoolEx@VCAirResistanceDecorator@NEffectUpdateDecorator@@@@KAXPAVCAirResistanceDecorator@NEffectUpdateDecorator@@@Z
_TEXT	SEGMENT
_pkData$ = 8						; size = 4
?Delete@?$CDynamicPoolEx@VCAirResistanceDecorator@NEffectUpdateDecorator@@@@KAXPAVCAirResistanceDecorator@NEffectUpdateDecorator@@@Z PROC ; CDynamicPoolEx<NEffectUpdateDecorator::CAirResistanceDecorator>::Delete, COMDAT

; 223  : 		{

  00000	55		 push	 ebp
  00001	8b ec		 mov	 ebp, esp

; 224  : 			::operator delete(pkData);

  00003	ff 75 08	 push	 DWORD PTR _pkData$[ebp]
  00006	e8 00 00 00 00	 call	 ??3@YAXPAX@Z		; operator delete
  0000b	59		 pop	 ecx

; 225  : 		}

  0000c	5d		 pop	 ebp
  0000d	c3		 ret	 0
?Delete@?$CDynamicPoolEx@VCAirResistanceDecorator@NEffectUpdateDecorator@@@@KAXPAVCAirResistanceDecorator@NEffectUpdateDecorator@@@Z ENDP ; CDynamicPoolEx<NEffectUpdateDecorator::CAirResistanceDecorator>::Delete
_TEXT	ENDS
; Function compile flags: /Odspy
; File D:\Metin2 Server Files\mainline\SRC_2014\Metin2Client\eterLib\Pool.h
; File C:\Program Files (x86)\Microsoft Visual Studio\2019\Community\VC\Tools\MSVC\14.28.29333\include\vector
; File C:\Program Files (x86)\Microsoft Visual Studio\2019\Community\VC\Tools\MSVC\14.28.29333\include\xstddef
; File C:\Program Files (x86)\Microsoft Visual Studio\2019\Community\VC\Tools\MSVC\14.28.29333\include\vector
; File C:\Program Files (x86)\Microsoft Visual Studio\2019\Community\VC\Tools\MSVC\14.28.29333\include\xstddef
; File C:\Program Files (x86)\Microsoft Visual Studio\2019\Community\VC\Tools\MSVC\14.28.29333\include\vector
; File D:\Metin2 Server Files\mainline\SRC_2014\Metin2Client\eterLib\Pool.h
;	COMDAT ?Destroy@?$CDynamicPoolEx@VCAirResistanceDecorator@NEffectUpdateDecorator@@@@QAEXXZ
_TEXT	SEGMENT
$T1 = -44						; size = 4
$T2 = -40						; size = 4
$T3 = -36						; size = 4
$T4 = -32						; size = 4
$T5 = -28						; size = 4
___param0$ = -24					; size = 4
$T6 = -20						; size = 4
___param0$ = -16					; size = 4
__My_data$7 = -12					; size = 4
__My_data$8 = -8					; size = 4
_this$ = -4						; size = 4
?Destroy@?$CDynamicPoolEx@VCAirResistanceDecorator@NEffectUpdateDecorator@@@@QAEXXZ PROC ; CDynamicPoolEx<NEffectUpdateDecorator::CAirResistanceDecorator>::Destroy, COMDAT
; _this$ = ecx

; 150  : 		{

  00000	55		 push	 ebp
  00001	8b ec		 mov	 ebp, esp
  00003	83 ec 2c	 sub	 esp, 44			; 0000002cH
  00006	89 4d fc	 mov	 DWORD PTR _this$[ebp], ecx
; File C:\Program Files (x86)\Microsoft Visual Studio\2019\Community\VC\Tools\MSVC\14.28.29333\include\vector

; 1420 :         auto& _My_data = _Mypair._Myval2;

  00009	8b 45 fc	 mov	 eax, DWORD PTR _this$[ebp]
  0000c	83 c0 04	 add	 eax, 4
  0000f	89 45 f8	 mov	 DWORD PTR __My_data$8[ebp], eax
; File C:\Program Files (x86)\Microsoft Visual Studio\2019\Community\VC\Tools\MSVC\14.28.29333\include\xstddef

; 275  :     return __builtin_addressof(_Val);

  00012	8b 45 f8	 mov	 eax, DWORD PTR __My_data$8[ebp]
  00015	89 45 d8	 mov	 DWORD PTR $T2[ebp], eax
; File C:\Program Files (x86)\Microsoft Visual Studio\2019\Community\VC\Tools\MSVC\14.28.29333\include\vector

; 1421 :         return iterator(_My_data._Mylast, _STD addressof(_My_data));

  00018	8b 45 f8	 mov	 eax, DWORD PTR __My_data$8[ebp]
  0001b	8b 40 04	 mov	 eax, DWORD PTR [eax+4]
  0001e	89 45 f0	 mov	 DWORD PTR ___param0$[ebp], eax

; 42   :     _Vector_const_iterator(_Tptr _Parg, const _Container_base* _Pvector) noexcept : _Ptr(_Parg) {

  00021	8b 45 f0	 mov	 eax, DWORD PTR ___param0$[ebp]
  00024	89 45 ec	 mov	 DWORD PTR $T6[ebp], eax

; 1421 :         return iterator(_My_data._Mylast, _STD addressof(_My_data));

  00027	8d 45 ec	 lea	 eax, DWORD PTR $T6[ebp]
  0002a	89 45 e0	 mov	 DWORD PTR $T4[ebp], eax

; 1410 :         auto& _My_data = _Mypair._Myval2;

  0002d	8b 45 fc	 mov	 eax, DWORD PTR _this$[ebp]
  00030	83 c0 04	 add	 eax, 4
  00033	89 45 f4	 mov	 DWORD PTR __My_data$7[ebp], eax
; File C:\Program Files (x86)\Microsoft Visual Studio\2019\Community\VC\Tools\MSVC\14.28.29333\include\xstddef

; 275  :     return __builtin_addressof(_Val);

  00036	8b 45 f4	 mov	 eax, DWORD PTR __My_data$7[ebp]
  00039	89 45 d4	 mov	 DWORD PTR $T1[ebp], eax
; File C:\Program Files (x86)\Microsoft Visual Studio\2019\Community\VC\Tools\MSVC\14.28.29333\include\vector

; 1411 :         return iterator(_My_data._Myfirst, _STD addressof(_My_data));

  0003c	8b 45 f4	 mov	 eax, DWORD PTR __My_data$7[ebp]
  0003f	8b 00		 mov	 eax, DWORD PTR [eax]
  00041	89 45 e8	 mov	 DWORD PTR ___param0$[ebp], eax

; 42   :     _Vector_const_iterator(_Tptr _Parg, const _Container_base* _Pvector) noexcept : _Ptr(_Parg) {

  00044	8b 45 e8	 mov	 eax, DWORD PTR ___param0$[ebp]
  00047	89 45 e4	 mov	 DWORD PTR $T5[ebp], eax

; 1411 :         return iterator(_My_data._Myfirst, _STD addressof(_My_data));

  0004a	8d 45 e4	 lea	 eax, DWORD PTR $T5[ebp]
  0004d	89 45 dc	 mov	 DWORD PTR $T3[ebp], eax
; File D:\Metin2 Server Files\mainline\SRC_2014\Metin2Client\eterLib\Pool.h

; 160  : 			std::for_each(m_kVct_pkData.begin(), m_kVct_pkData.end(), Delete);

  00050	68 00 00 00 00	 push	 OFFSET ?Delete@?$CDynamicPoolEx@VCAirResistanceDecorator@NEffectUpdateDecorator@@@@KAXPAVCAirResistanceDecorator@NEffectUpdateDecorator@@@Z ; CDynamicPoolEx<NEffectUpdateDecorator::CAirResistanceDecorator>::Delete
  00055	8b 45 e0	 mov	 eax, DWORD PTR $T4[ebp]
  00058	ff 30		 push	 DWORD PTR [eax]
  0005a	8b 45 dc	 mov	 eax, DWORD PTR $T3[ebp]
  0005d	ff 30		 push	 DWORD PTR [eax]
  0005f	e8 00 00 00 00	 call	 ??$for_each@V?$_Vector_iterator@V?$_Vector_val@U?$_Simple_types@PAVCAirResistanceDecorator@NEffectUpdateDecorator@@@std@@@std@@@std@@P6AXPAVCAirResistanceDecorator@NEffectUpdateDecorator@@@Z@std@@YAP6AXPAVCAirResistanceDecorator@NEffectUpdateDecorator@@@ZV?$_Vector_iterator@V?$_Vector_val@U?$_Simple_types@PAVCAirResistanceDecorator@NEffectUpdateDecorator@@@std@@@std@@@0@1P6AX0@Z@Z ; std::for_each<std::_Vector_iterator<std::_Vector_val<std::_Simple_types<NEffectUpdateDecorator::CAirResistanceDecorator *> > >,void (__cdecl*)(NEffectUpdateDecorator::CAirResistanceDecorator *)>
  00064	83 c4 0c	 add	 esp, 12			; 0000000cH

; 161  : 			m_kVct_pkData.clear();

  00067	8b 4d fc	 mov	 ecx, DWORD PTR _this$[ebp]
  0006a	83 c1 04	 add	 ecx, 4
  0006d	e8 00 00 00 00	 call	 ?clear@?$vector@PAVCAirResistanceDecorator@NEffectUpdateDecorator@@V?$allocator@PAVCAirResistanceDecorator@NEffectUpdateDecorator@@@std@@@std@@QAEXXZ ; std::vector<NEffectUpdateDecorator::CAirResistanceDecorator *,std::allocator<NEffectUpdateDecorator::CAirResistanceDecorator *> >::clear

; 162  : 			m_kVct_pkFree.clear();

  00072	8b 4d fc	 mov	 ecx, DWORD PTR _this$[ebp]
  00075	83 c1 10	 add	 ecx, 16			; 00000010H
  00078	e8 00 00 00 00	 call	 ?clear@?$vector@PAVCAirResistanceDecorator@NEffectUpdateDecorator@@V?$allocator@PAVCAirResistanceDecorator@NEffectUpdateDecorator@@@std@@@std@@QAEXXZ ; std::vector<NEffectUpdateDecorator::CAirResistanceDecorator *,std::allocator<NEffectUpdateDecorator::CAirResistanceDecorator *> >::clear

; 163  : 		}

  0007d	c9		 leave
  0007e	c3		 ret	 0
?Destroy@?$CDynamicPoolEx@VCAirResistanceDecorator@NEffectUpdateDecorator@@@@QAEXXZ ENDP ; CDynamicPoolEx<NEffectUpdateDecorator::CAirResistanceDecorator>::Destroy
_TEXT	ENDS
; Function compile flags: /Odspy
; File D:\Metin2 Server Files\mainline\SRC_2014\Metin2Client\eterLib\Pool.h
; File C:\Program Files (x86)\Microsoft Visual Studio\2019\Community\VC\Tools\MSVC\14.28.29333\include\vector
; File D:\Metin2 Server Files\mainline\SRC_2014\Metin2Client\eterLib\Pool.h
; File C:\Program Files (x86)\Microsoft Visual Studio\2019\Community\VC\Tools\MSVC\14.28.29333\include\vector
; File D:\Metin2 Server Files\mainline\SRC_2014\Metin2Client\eterLib\Pool.h
;	COMDAT ??1?$CDynamicPoolEx@VCAirResistanceDecorator@NEffectUpdateDecorator@@@@UAE@XZ
_TEXT	SEGMENT
_this$ = -16						; size = 4
__$EHRec$ = -12						; size = 12
??1?$CDynamicPoolEx@VCAirResistanceDecorator@NEffectUpdateDecorator@@@@UAE@XZ PROC ; CDynamicPoolEx<NEffectUpdateDecorator::CAirResistanceDecorator>::~CDynamicPoolEx<NEffectUpdateDecorator::CAirResistanceDecorator>, COMDAT
; _this$ = ecx

; 132  : 		{

  00000	55		 push	 ebp
  00001	8b ec		 mov	 ebp, esp
  00003	6a ff		 push	 -1
  00005	68 00 00 00 00	 push	 __ehhandler$??1?$CDynamicPoolEx@VCAirResistanceDecorator@NEffectUpdateDecorator@@@@UAE@XZ
  0000a	64 a1 00 00 00
	00		 mov	 eax, DWORD PTR fs:0
  00010	50		 push	 eax
  00011	51		 push	 ecx
  00012	a1 00 00 00 00	 mov	 eax, DWORD PTR ___security_cookie
  00017	33 c5		 xor	 eax, ebp
  00019	50		 push	 eax
  0001a	8d 45 f4	 lea	 eax, DWORD PTR __$EHRec$[ebp]
  0001d	64 a3 00 00 00
	00		 mov	 DWORD PTR fs:0, eax
  00023	89 4d f0	 mov	 DWORD PTR _this$[ebp], ecx
  00026	8b 45 f0	 mov	 eax, DWORD PTR _this$[ebp]
  00029	c7 00 00 00 00
	00		 mov	 DWORD PTR [eax], OFFSET ??_7?$CDynamicPoolEx@VCAirResistanceDecorator@NEffectUpdateDecorator@@@@6B@

; 133  : 			assert(m_kVct_pkFree.size()==m_kVct_pkData.size());
; 134  : 			Destroy();

  0002f	8b 4d f0	 mov	 ecx, DWORD PTR _this$[ebp]
  00032	e8 00 00 00 00	 call	 ?Destroy@?$CDynamicPoolEx@VCAirResistanceDecorator@NEffectUpdateDecorator@@@@QAEXXZ ; CDynamicPoolEx<NEffectUpdateDecorator::CAirResistanceDecorator>::Destroy

; 142  : 		}

  00037	8b 4d f0	 mov	 ecx, DWORD PTR _this$[ebp]
  0003a	83 c1 10	 add	 ecx, 16			; 00000010H
; File C:\Program Files (x86)\Microsoft Visual Studio\2019\Community\VC\Tools\MSVC\14.28.29333\include\vector

; 673  :         _Tidy();

  0003d	e8 00 00 00 00	 call	 ?_Tidy@?$vector@PAVCAirResistanceDecorator@NEffectUpdateDecorator@@V?$allocator@PAVCAirResistanceDecorator@NEffectUpdateDecorator@@@std@@@std@@AAEXXZ ; std::vector<NEffectUpdateDecorator::CAirResistanceDecorator *,std::allocator<NEffectUpdateDecorator::CAirResistanceDecorator *> >::_Tidy
; File D:\Metin2 Server Files\mainline\SRC_2014\Metin2Client\eterLib\Pool.h

; 142  : 		}

  00042	8b 4d f0	 mov	 ecx, DWORD PTR _this$[ebp]
  00045	83 c1 04	 add	 ecx, 4
; File C:\Program Files (x86)\Microsoft Visual Studio\2019\Community\VC\Tools\MSVC\14.28.29333\include\vector

; 673  :         _Tidy();

  00048	e8 00 00 00 00	 call	 ?_Tidy@?$vector@PAVCAirResistanceDecorator@NEffectUpdateDecorator@@V?$allocator@PAVCAirResistanceDecorator@NEffectUpdateDecorator@@@std@@@std@@AAEXXZ ; std::vector<NEffectUpdateDecorator::CAirResistanceDecorator *,std::allocator<NEffectUpdateDecorator::CAirResistanceDecorator *> >::_Tidy
; File D:\Metin2 Server Files\mainline\SRC_2014\Metin2Client\eterLib\Pool.h

; 142  : 		}

  0004d	8b 4d f4	 mov	 ecx, DWORD PTR __$EHRec$[ebp]
  00050	64 89 0d 00 00
	00 00		 mov	 DWORD PTR fs:0, ecx
  00057	59		 pop	 ecx
  00058	c9		 leave
  00059	c3		 ret	 0
  0005a	cc		 int	 3
  0005b	cc		 int	 3
  0005c	cc		 int	 3
  0005d	cc		 int	 3
  0005e	cc		 int	 3
_TEXT	ENDS
;	COMDAT text$x
text$x	SEGMENT
__ehhandler$??1?$CDynamicPoolEx@VCAirResistanceDecorator@NEffectUpdateDecorator@@@@UAE@XZ:
  00000	90		 npad	 1
  00001	90		 npad	 1
  00002	8b 54 24 08	 mov	 edx, DWORD PTR [esp+8]
  00006	8d 42 0c	 lea	 eax, DWORD PTR [edx+12]
  00009	8b 4a f8	 mov	 ecx, DWORD PTR [edx-8]
  0000c	33 c8		 xor	 ecx, eax
  0000e	e8 00 00 00 00	 call	 @__security_check_cookie@4
  00013	b8 00 00 00 00	 mov	 eax, OFFSET __ehfuncinfo$??1?$CDynamicPoolEx@VCAirResistanceDecorator@NEffectUpdateDecorator@@@@UAE@XZ
  00018	e9 00 00 00 00	 jmp	 ___CxxFrameHandler3
text$x	ENDS
??1?$CDynamicPoolEx@VCAirResistanceDecorator@NEffectUpdateDecorator@@@@UAE@XZ ENDP ; CDynamicPoolEx<NEffectUpdateDecorator::CAirResistanceDecorator>::~CDynamicPoolEx<NEffectUpdateDecorator::CAirResistanceDecorator>
; Function compile flags: /Odspy
; File D:\Metin2 Server Files\mainline\SRC_2014\Metin2Client\eterLib\Pool.h
; File C:\Program Files (x86)\Microsoft Visual Studio\2019\Community\VC\Tools\MSVC\14.28.29333\include\vector
; File C:\Program Files (x86)\Microsoft Visual Studio\2019\Community\VC\Tools\MSVC\14.28.29333\include\xmemory
; File C:\Program Files (x86)\Microsoft Visual Studio\2019\Community\VC\Tools\MSVC\14.28.29333\include\vector
; File D:\Metin2 Server Files\mainline\SRC_2014\Metin2Client\eterLib\Pool.h
; File C:\Program Files (x86)\Microsoft Visual Studio\2019\Community\VC\Tools\MSVC\14.28.29333\include\vector
; File C:\Program Files (x86)\Microsoft Visual Studio\2019\Community\VC\Tools\MSVC\14.28.29333\include\xmemory
; File C:\Program Files (x86)\Microsoft Visual Studio\2019\Community\VC\Tools\MSVC\14.28.29333\include\vector
; File D:\Metin2 Server Files\mainline\SRC_2014\Metin2Client\eterLib\Pool.h
;	COMDAT ??0?$CDynamicPoolEx@VCAirResistanceDecorator@NEffectUpdateDecorator@@@@QAE@XZ
_TEXT	SEGMENT
_this$ = -28						; size = 4
_this$ = -24						; size = 4
_this$ = -20						; size = 4
_this$ = -16						; size = 4
_this$1 = -12						; size = 4
_this$2 = -8						; size = 4
_this$ = -4						; size = 4
??0?$CDynamicPoolEx@VCAirResistanceDecorator@NEffectUpdateDecorator@@@@QAE@XZ PROC ; CDynamicPoolEx<NEffectUpdateDecorator::CAirResistanceDecorator>::CDynamicPoolEx<NEffectUpdateDecorator::CAirResistanceDecorator>, COMDAT
; _this$ = ecx

; 126  : 		CDynamicPoolEx()

  00000	55		 push	 ebp
  00001	8b ec		 mov	 ebp, esp
  00003	83 ec 1c	 sub	 esp, 28			; 0000001cH
  00006	89 4d fc	 mov	 DWORD PTR _this$[ebp], ecx

; 127  : 		{

  00009	8b 45 fc	 mov	 eax, DWORD PTR _this$[ebp]
  0000c	c7 00 00 00 00
	00		 mov	 DWORD PTR [eax], OFFSET ??_7?$CDynamicPoolEx@VCAirResistanceDecorator@NEffectUpdateDecorator@@@@6B@
  00012	8b 45 fc	 mov	 eax, DWORD PTR _this$[ebp]
  00015	83 c0 04	 add	 eax, 4
  00018	89 45 f0	 mov	 DWORD PTR _this$[ebp], eax
; File C:\Program Files (x86)\Microsoft Visual Studio\2019\Community\VC\Tools\MSVC\14.28.29333\include\vector

; 445  :     vector() noexcept(is_nothrow_default_constructible_v<_Alty>) : _Mypair(_Zero_then_variadic_args_t{}) {

  0001b	8b 45 f0	 mov	 eax, DWORD PTR _this$[ebp]
  0001e	89 45 ec	 mov	 DWORD PTR _this$[ebp], eax
; File C:\Program Files (x86)\Microsoft Visual Studio\2019\Community\VC\Tools\MSVC\14.28.29333\include\xmemory

; 1339 :         : _Ty1(), _Myval2(_STD forward<_Other2>(_Val2)...) {}

  00021	8b 45 ec	 mov	 eax, DWORD PTR _this$[ebp]
  00024	89 45 f8	 mov	 DWORD PTR _this$2[ebp], eax
; File C:\Program Files (x86)\Microsoft Visual Studio\2019\Community\VC\Tools\MSVC\14.28.29333\include\vector

; 375  :     _Vector_val() noexcept : _Myfirst(), _Mylast(), _Myend() {}

  00027	8b 45 f8	 mov	 eax, DWORD PTR _this$2[ebp]
  0002a	83 20 00	 and	 DWORD PTR [eax], 0
  0002d	8b 45 f8	 mov	 eax, DWORD PTR _this$2[ebp]
  00030	83 60 04 00	 and	 DWORD PTR [eax+4], 0
  00034	8b 45 f8	 mov	 eax, DWORD PTR _this$2[ebp]
  00037	83 60 08 00	 and	 DWORD PTR [eax+8], 0
; File D:\Metin2 Server Files\mainline\SRC_2014\Metin2Client\eterLib\Pool.h

; 127  : 		{

  0003b	8b 45 fc	 mov	 eax, DWORD PTR _this$[ebp]
  0003e	83 c0 10	 add	 eax, 16			; 00000010H
  00041	89 45 e8	 mov	 DWORD PTR _this$[ebp], eax
; File C:\Program Files (x86)\Microsoft Visual Studio\2019\Community\VC\Tools\MSVC\14.28.29333\include\vector

; 445  :     vector() noexcept(is_nothrow_default_constructible_v<_Alty>) : _Mypair(_Zero_then_variadic_args_t{}) {

  00044	8b 45 e8	 mov	 eax, DWORD PTR _this$[ebp]
  00047	89 45 e4	 mov	 DWORD PTR _this$[ebp], eax
; File C:\Program Files (x86)\Microsoft Visual Studio\2019\Community\VC\Tools\MSVC\14.28.29333\include\xmemory

; 1339 :         : _Ty1(), _Myval2(_STD forward<_Other2>(_Val2)...) {}

  0004a	8b 45 e4	 mov	 eax, DWORD PTR _this$[ebp]
  0004d	89 45 f4	 mov	 DWORD PTR _this$1[ebp], eax
; File C:\Program Files (x86)\Microsoft Visual Studio\2019\Community\VC\Tools\MSVC\14.28.29333\include\vector

; 375  :     _Vector_val() noexcept : _Myfirst(), _Mylast(), _Myend() {}

  00050	8b 45 f4	 mov	 eax, DWORD PTR _this$1[ebp]
  00053	83 20 00	 and	 DWORD PTR [eax], 0
  00056	8b 45 f4	 mov	 eax, DWORD PTR _this$1[ebp]
  00059	83 60 04 00	 and	 DWORD PTR [eax+4], 0
  0005d	8b 45 f4	 mov	 eax, DWORD PTR _this$1[ebp]
  00060	83 60 08 00	 and	 DWORD PTR [eax+8], 0
; File D:\Metin2 Server Files\mainline\SRC_2014\Metin2Client\eterLib\Pool.h

; 128  : 			m_uInitCapacity=0;

  00064	8b 45 fc	 mov	 eax, DWORD PTR _this$[ebp]
  00067	83 60 1c 00	 and	 DWORD PTR [eax+28], 0

; 129  : 			m_uUsedCapacity=0;

  0006b	8b 45 fc	 mov	 eax, DWORD PTR _this$[ebp]
  0006e	83 60 20 00	 and	 DWORD PTR [eax+32], 0

; 130  : 		}

  00072	8b 45 fc	 mov	 eax, DWORD PTR _this$[ebp]
  00075	c9		 leave
  00076	c3		 ret	 0
??0?$CDynamicPoolEx@VCAirResistanceDecorator@NEffectUpdateDecorator@@@@QAE@XZ ENDP ; CDynamicPoolEx<NEffectUpdateDecorator::CAirResistanceDecorator>::CDynamicPoolEx<NEffectUpdateDecorator::CAirResistanceDecorator>
_TEXT	ENDS
; Function compile flags: /Odspy
;	COMDAT ??_G?$CDynamicPoolEx@VCGravityDecorator@NEffectUpdateDecorator@@@@UAEPAXI@Z
_TEXT	SEGMENT
_this$ = -4						; size = 4
___flags$ = 8						; size = 4
??_G?$CDynamicPoolEx@VCGravityDecorator@NEffectUpdateDecorator@@@@UAEPAXI@Z PROC ; CDynamicPoolEx<NEffectUpdateDecorator::CGravityDecorator>::`scalar deleting destructor', COMDAT
; _this$ = ecx
  00000	55		 push	 ebp
  00001	8b ec		 mov	 ebp, esp
  00003	51		 push	 ecx
  00004	89 4d fc	 mov	 DWORD PTR _this$[ebp], ecx
  00007	8b 4d fc	 mov	 ecx, DWORD PTR _this$[ebp]
  0000a	e8 00 00 00 00	 call	 ??1?$CDynamicPoolEx@VCGravityDecorator@NEffectUpdateDecorator@@@@UAE@XZ ; CDynamicPoolEx<NEffectUpdateDecorator::CGravityDecorator>::~CDynamicPoolEx<NEffectUpdateDecorator::CGravityDecorator>
  0000f	8b 45 08	 mov	 eax, DWORD PTR ___flags$[ebp]
  00012	83 e0 01	 and	 eax, 1
  00015	74 0c		 je	 SHORT $LN2@scalar
  00017	6a 24		 push	 36			; 00000024H
  00019	ff 75 fc	 push	 DWORD PTR _this$[ebp]
  0001c	e8 00 00 00 00	 call	 ??3@YAXPAXI@Z		; operator delete
  00021	59		 pop	 ecx
  00022	59		 pop	 ecx
$LN2@scalar:
  00023	8b 45 fc	 mov	 eax, DWORD PTR _this$[ebp]
  00026	c9		 leave
  00027	c2 04 00	 ret	 4
??_G?$CDynamicPoolEx@VCGravityDecorator@NEffectUpdateDecorator@@@@UAEPAXI@Z ENDP ; CDynamicPoolEx<NEffectUpdateDecorator::CGravityDecorator>::`scalar deleting destructor'
_TEXT	ENDS
; Function compile flags: /Odspy
; File C:\Program Files (x86)\Microsoft Visual Studio\2019\Community\VC\Tools\MSVC\14.28.29333\include\vector
; File C:\Program Files (x86)\Microsoft Visual Studio\2019\Community\VC\Tools\MSVC\14.28.29333\include\xmemory
; File C:\Program Files (x86)\Microsoft Visual Studio\2019\Community\VC\Tools\MSVC\14.28.29333\include\vector
; File C:\Program Files (x86)\Microsoft Visual Studio\2019\Community\VC\Tools\MSVC\14.28.29333\include\xmemory
; File C:\Program Files (x86)\Microsoft Visual Studio\2019\Community\VC\Tools\MSVC\14.28.29333\include\vector
; File C:\Program Files (x86)\Microsoft Visual Studio\2019\Community\VC\Tools\MSVC\14.28.29333\include\xmemory
; File C:\Program Files (x86)\Microsoft Visual Studio\2019\Community\VC\Tools\MSVC\14.28.29333\include\vector
;	COMDAT ?_Tidy@?$vector@PAVCGravityDecorator@NEffectUpdateDecorator@@V?$allocator@PAVCGravityDecorator@NEffectUpdateDecorator@@@std@@@std@@AAEXXZ
_TEXT	SEGMENT
$T1 = -52						; size = 4
__Ptr$ = -48						; size = 4
__Count$ = -44						; size = 4
$T2 = -40						; size = 4
__First$ = -36						; size = 4
__Last$ = -32						; size = 4
$T3 = -28						; size = 4
$T4 = -24						; size = 4
__Myend$ = -20						; size = 4
__Mylast$ = -16						; size = 4
_this$ = -12						; size = 4
__My_data$ = -8						; size = 4
__Myfirst$ = -4						; size = 4
?_Tidy@?$vector@PAVCGravityDecorator@NEffectUpdateDecorator@@V?$allocator@PAVCGravityDecorator@NEffectUpdateDecorator@@@std@@@std@@AAEXXZ PROC ; std::vector<NEffectUpdateDecorator::CGravityDecorator *,std::allocator<NEffectUpdateDecorator::CGravityDecorator *> >::_Tidy, COMDAT
; _this$ = ecx

; 1686 :     void _Tidy() noexcept { // free all storage

  00000	55		 push	 ebp
  00001	8b ec		 mov	 ebp, esp
  00003	83 ec 34	 sub	 esp, 52			; 00000034H
  00006	89 4d f4	 mov	 DWORD PTR _this$[ebp], ecx

; 1687 :         auto& _My_data    = _Mypair._Myval2;

  00009	8b 45 f4	 mov	 eax, DWORD PTR _this$[ebp]
  0000c	89 45 f8	 mov	 DWORD PTR __My_data$[ebp], eax

; 1688 :         pointer& _Myfirst = _My_data._Myfirst;

  0000f	8b 45 f8	 mov	 eax, DWORD PTR __My_data$[ebp]
  00012	89 45 fc	 mov	 DWORD PTR __Myfirst$[ebp], eax

; 1689 :         pointer& _Mylast  = _My_data._Mylast;

  00015	8b 45 f8	 mov	 eax, DWORD PTR __My_data$[ebp]
  00018	83 c0 04	 add	 eax, 4
  0001b	89 45 f0	 mov	 DWORD PTR __Mylast$[ebp], eax

; 1690 :         pointer& _Myend   = _My_data._Myend;

  0001e	8b 45 f8	 mov	 eax, DWORD PTR __My_data$[ebp]
  00021	83 c0 08	 add	 eax, 8
  00024	89 45 ec	 mov	 DWORD PTR __Myend$[ebp], eax

; 1691 : 
; 1692 :         _My_data._Orphan_all();
; 1693 : 
; 1694 :         if (_Myfirst) { // destroy and deallocate old array

  00027	8b 45 fc	 mov	 eax, DWORD PTR __Myfirst$[ebp]
  0002a	83 38 00	 cmp	 DWORD PTR [eax], 0
  0002d	74 74		 je	 SHORT $LN3@Tidy

; 1695 :             _Destroy(_Myfirst, _Mylast);

  0002f	8b 45 f0	 mov	 eax, DWORD PTR __Mylast$[ebp]
  00032	8b 00		 mov	 eax, DWORD PTR [eax]
  00034	89 45 e0	 mov	 DWORD PTR __Last$[ebp], eax
  00037	8b 45 fc	 mov	 eax, DWORD PTR __Myfirst$[ebp]
  0003a	8b 00		 mov	 eax, DWORD PTR [eax]
  0003c	89 45 dc	 mov	 DWORD PTR __First$[ebp], eax

; 1733 :         return _Mypair._Get_first();

  0003f	8b 45 f4	 mov	 eax, DWORD PTR _this$[ebp]
; File C:\Program Files (x86)\Microsoft Visual Studio\2019\Community\VC\Tools\MSVC\14.28.29333\include\xmemory

; 1347 :         return *this;

  00042	89 45 e8	 mov	 DWORD PTR $T4[ebp], eax
; File C:\Program Files (x86)\Microsoft Visual Studio\2019\Community\VC\Tools\MSVC\14.28.29333\include\vector

; 1733 :         return _Mypair._Get_first();

  00045	8b 45 e8	 mov	 eax, DWORD PTR $T4[ebp]
  00048	89 45 e4	 mov	 DWORD PTR $T3[ebp], eax

; 1612 :         _Destroy_range(_First, _Last, _Getal());

  0004b	ff 75 e4	 push	 DWORD PTR $T3[ebp]
  0004e	ff 75 e0	 push	 DWORD PTR __Last$[ebp]
  00051	ff 75 dc	 push	 DWORD PTR __First$[ebp]
  00054	e8 00 00 00 00	 call	 ??$_Destroy_range@V?$allocator@PAVCGravityDecorator@NEffectUpdateDecorator@@@std@@@std@@YAXPAPAVCGravityDecorator@NEffectUpdateDecorator@@QAPAV12@AAV?$allocator@PAVCGravityDecorator@NEffectUpdateDecorator@@@0@@Z ; std::_Destroy_range<std::allocator<NEffectUpdateDecorator::CGravityDecorator *> >
  00059	83 c4 0c	 add	 esp, 12			; 0000000cH

; 1733 :         return _Mypair._Get_first();

  0005c	8b 45 f4	 mov	 eax, DWORD PTR _this$[ebp]
; File C:\Program Files (x86)\Microsoft Visual Studio\2019\Community\VC\Tools\MSVC\14.28.29333\include\xmemory

; 1347 :         return *this;

  0005f	89 45 d8	 mov	 DWORD PTR $T2[ebp], eax
; File C:\Program Files (x86)\Microsoft Visual Studio\2019\Community\VC\Tools\MSVC\14.28.29333\include\vector

; 1733 :         return _Mypair._Get_first();

  00062	8b 45 d8	 mov	 eax, DWORD PTR $T2[ebp]
  00065	89 45 cc	 mov	 DWORD PTR $T1[ebp], eax

; 1696 :             _Getal().deallocate(_Myfirst, static_cast<size_type>(_Myend - _Myfirst));

  00068	8b 45 ec	 mov	 eax, DWORD PTR __Myend$[ebp]
  0006b	8b 4d fc	 mov	 ecx, DWORD PTR __Myfirst$[ebp]
  0006e	8b 00		 mov	 eax, DWORD PTR [eax]
  00070	2b 01		 sub	 eax, DWORD PTR [ecx]
  00072	c1 f8 02	 sar	 eax, 2
  00075	89 45 d4	 mov	 DWORD PTR __Count$[ebp], eax
  00078	8b 45 fc	 mov	 eax, DWORD PTR __Myfirst$[ebp]
  0007b	8b 00		 mov	 eax, DWORD PTR [eax]
  0007d	89 45 d0	 mov	 DWORD PTR __Ptr$[ebp], eax
; File C:\Program Files (x86)\Microsoft Visual Studio\2019\Community\VC\Tools\MSVC\14.28.29333\include\xmemory

; 810  :         _Deallocate<_New_alignof<_Ty>>(_Ptr, sizeof(_Ty) * _Count);

  00080	8b 45 d4	 mov	 eax, DWORD PTR __Count$[ebp]
  00083	c1 e0 02	 shl	 eax, 2
  00086	50		 push	 eax
  00087	ff 75 d0	 push	 DWORD PTR __Ptr$[ebp]
  0008a	e8 00 00 00 00	 call	 ??$_Deallocate@$07$0A@@std@@YAXPAXI@Z ; std::_Deallocate<8,0>
  0008f	59		 pop	 ecx
  00090	59		 pop	 ecx
; File C:\Program Files (x86)\Microsoft Visual Studio\2019\Community\VC\Tools\MSVC\14.28.29333\include\vector

; 1698 :             _Myfirst = pointer();

  00091	8b 45 fc	 mov	 eax, DWORD PTR __Myfirst$[ebp]
  00094	83 20 00	 and	 DWORD PTR [eax], 0

; 1699 :             _Mylast  = pointer();

  00097	8b 45 f0	 mov	 eax, DWORD PTR __Mylast$[ebp]
  0009a	83 20 00	 and	 DWORD PTR [eax], 0

; 1700 :             _Myend   = pointer();

  0009d	8b 45 ec	 mov	 eax, DWORD PTR __Myend$[ebp]
  000a0	83 20 00	 and	 DWORD PTR [eax], 0
$LN3@Tidy:

; 1701 :         }
; 1702 :     }

  000a3	c9		 leave
  000a4	c3		 ret	 0
?_Tidy@?$vector@PAVCGravityDecorator@NEffectUpdateDecorator@@V?$allocator@PAVCGravityDecorator@NEffectUpdateDecorator@@@std@@@std@@AAEXXZ ENDP ; std::vector<NEffectUpdateDecorator::CGravityDecorator *,std::allocator<NEffectUpdateDecorator::CGravityDecorator *> >::_Tidy
_TEXT	ENDS
; Function compile flags: /Odspy
; File C:\Program Files (x86)\Microsoft Visual Studio\2019\Community\VC\Tools\MSVC\14.28.29333\include\vector
; File C:\Program Files (x86)\Microsoft Visual Studio\2019\Community\VC\Tools\MSVC\14.28.29333\include\xmemory
; File C:\Program Files (x86)\Microsoft Visual Studio\2019\Community\VC\Tools\MSVC\14.28.29333\include\vector
;	COMDAT ?clear@?$vector@PAVCGravityDecorator@NEffectUpdateDecorator@@V?$allocator@PAVCGravityDecorator@NEffectUpdateDecorator@@@std@@@std@@QAEXXZ
_TEXT	SEGMENT
__First$ = -32						; size = 4
__Last$ = -28						; size = 4
$T1 = -24						; size = 4
$T2 = -20						; size = 4
__Myfirst$ = -16					; size = 4
__Mylast$ = -12						; size = 4
_this$ = -8						; size = 4
__My_data$ = -4						; size = 4
?clear@?$vector@PAVCGravityDecorator@NEffectUpdateDecorator@@V?$allocator@PAVCGravityDecorator@NEffectUpdateDecorator@@@std@@@std@@QAEXXZ PROC ; std::vector<NEffectUpdateDecorator::CGravityDecorator *,std::allocator<NEffectUpdateDecorator::CGravityDecorator *> >::clear, COMDAT
; _this$ = ecx

; 1383 :     void clear() noexcept { // erase all

  00000	55		 push	 ebp
  00001	8b ec		 mov	 ebp, esp
  00003	83 ec 20	 sub	 esp, 32			; 00000020H
  00006	89 4d f8	 mov	 DWORD PTR _this$[ebp], ecx

; 1384 :         auto& _My_data    = _Mypair._Myval2;

  00009	8b 45 f8	 mov	 eax, DWORD PTR _this$[ebp]
  0000c	89 45 fc	 mov	 DWORD PTR __My_data$[ebp], eax

; 1385 :         pointer& _Myfirst = _My_data._Myfirst;

  0000f	8b 45 fc	 mov	 eax, DWORD PTR __My_data$[ebp]
  00012	89 45 f0	 mov	 DWORD PTR __Myfirst$[ebp], eax

; 1386 :         pointer& _Mylast  = _My_data._Mylast;

  00015	8b 45 fc	 mov	 eax, DWORD PTR __My_data$[ebp]
  00018	83 c0 04	 add	 eax, 4
  0001b	89 45 f4	 mov	 DWORD PTR __Mylast$[ebp], eax

; 1387 : 
; 1388 :         _My_data._Orphan_all();
; 1389 :         _Destroy(_Myfirst, _Mylast);

  0001e	8b 45 f4	 mov	 eax, DWORD PTR __Mylast$[ebp]
  00021	8b 00		 mov	 eax, DWORD PTR [eax]
  00023	89 45 e4	 mov	 DWORD PTR __Last$[ebp], eax
  00026	8b 45 f0	 mov	 eax, DWORD PTR __Myfirst$[ebp]
  00029	8b 00		 mov	 eax, DWORD PTR [eax]
  0002b	89 45 e0	 mov	 DWORD PTR __First$[ebp], eax

; 1733 :         return _Mypair._Get_first();

  0002e	8b 45 f8	 mov	 eax, DWORD PTR _this$[ebp]
; File C:\Program Files (x86)\Microsoft Visual Studio\2019\Community\VC\Tools\MSVC\14.28.29333\include\xmemory

; 1347 :         return *this;

  00031	89 45 ec	 mov	 DWORD PTR $T2[ebp], eax
; File C:\Program Files (x86)\Microsoft Visual Studio\2019\Community\VC\Tools\MSVC\14.28.29333\include\vector

; 1733 :         return _Mypair._Get_first();

  00034	8b 45 ec	 mov	 eax, DWORD PTR $T2[ebp]
  00037	89 45 e8	 mov	 DWORD PTR $T1[ebp], eax

; 1612 :         _Destroy_range(_First, _Last, _Getal());

  0003a	ff 75 e8	 push	 DWORD PTR $T1[ebp]
  0003d	ff 75 e4	 push	 DWORD PTR __Last$[ebp]
  00040	ff 75 e0	 push	 DWORD PTR __First$[ebp]
  00043	e8 00 00 00 00	 call	 ??$_Destroy_range@V?$allocator@PAVCGravityDecorator@NEffectUpdateDecorator@@@std@@@std@@YAXPAPAVCGravityDecorator@NEffectUpdateDecorator@@QAPAV12@AAV?$allocator@PAVCGravityDecorator@NEffectUpdateDecorator@@@0@@Z ; std::_Destroy_range<std::allocator<NEffectUpdateDecorator::CGravityDecorator *> >
  00048	83 c4 0c	 add	 esp, 12			; 0000000cH

; 1390 :         _Mylast = _Myfirst;

  0004b	8b 45 f4	 mov	 eax, DWORD PTR __Mylast$[ebp]
  0004e	8b 4d f0	 mov	 ecx, DWORD PTR __Myfirst$[ebp]
  00051	8b 09		 mov	 ecx, DWORD PTR [ecx]
  00053	89 08		 mov	 DWORD PTR [eax], ecx

; 1391 :     }

  00055	c9		 leave
  00056	c3		 ret	 0
?clear@?$vector@PAVCGravityDecorator@NEffectUpdateDecorator@@V?$allocator@PAVCGravityDecorator@NEffectUpdateDecorator@@@std@@@std@@QAEXXZ ENDP ; std::vector<NEffectUpdateDecorator::CGravityDecorator *,std::allocator<NEffectUpdateDecorator::CGravityDecorator *> >::clear
_TEXT	ENDS
; Function compile flags: /Odspy
; File D:\Metin2 Server Files\mainline\SRC_2014\Metin2Client\eterLib\Pool.h
;	COMDAT ?Delete@?$CDynamicPoolEx@VCGravityDecorator@NEffectUpdateDecorator@@@@KAXPAVCGravityDecorator@NEffectUpdateDecorator@@@Z
_TEXT	SEGMENT
_pkData$ = 8						; size = 4
?Delete@?$CDynamicPoolEx@VCGravityDecorator@NEffectUpdateDecorator@@@@KAXPAVCGravityDecorator@NEffectUpdateDecorator@@@Z PROC ; CDynamicPoolEx<NEffectUpdateDecorator::CGravityDecorator>::Delete, COMDAT

; 223  : 		{

  00000	55		 push	 ebp
  00001	8b ec		 mov	 ebp, esp

; 224  : 			::operator delete(pkData);

  00003	ff 75 08	 push	 DWORD PTR _pkData$[ebp]
  00006	e8 00 00 00 00	 call	 ??3@YAXPAX@Z		; operator delete
  0000b	59		 pop	 ecx

; 225  : 		}

  0000c	5d		 pop	 ebp
  0000d	c3		 ret	 0
?Delete@?$CDynamicPoolEx@VCGravityDecorator@NEffectUpdateDecorator@@@@KAXPAVCGravityDecorator@NEffectUpdateDecorator@@@Z ENDP ; CDynamicPoolEx<NEffectUpdateDecorator::CGravityDecorator>::Delete
_TEXT	ENDS
; Function compile flags: /Odspy
; File D:\Metin2 Server Files\mainline\SRC_2014\Metin2Client\eterLib\Pool.h
; File C:\Program Files (x86)\Microsoft Visual Studio\2019\Community\VC\Tools\MSVC\14.28.29333\include\vector
; File C:\Program Files (x86)\Microsoft Visual Studio\2019\Community\VC\Tools\MSVC\14.28.29333\include\xstddef
; File C:\Program Files (x86)\Microsoft Visual Studio\2019\Community\VC\Tools\MSVC\14.28.29333\include\vector
; File C:\Program Files (x86)\Microsoft Visual Studio\2019\Community\VC\Tools\MSVC\14.28.29333\include\xstddef
; File C:\Program Files (x86)\Microsoft Visual Studio\2019\Community\VC\Tools\MSVC\14.28.29333\include\vector
; File D:\Metin2 Server Files\mainline\SRC_2014\Metin2Client\eterLib\Pool.h
;	COMDAT ?Destroy@?$CDynamicPoolEx@VCGravityDecorator@NEffectUpdateDecorator@@@@QAEXXZ
_TEXT	SEGMENT
$T1 = -44						; size = 4
$T2 = -40						; size = 4
$T3 = -36						; size = 4
$T4 = -32						; size = 4
$T5 = -28						; size = 4
___param0$ = -24					; size = 4
$T6 = -20						; size = 4
___param0$ = -16					; size = 4
__My_data$7 = -12					; size = 4
__My_data$8 = -8					; size = 4
_this$ = -4						; size = 4
?Destroy@?$CDynamicPoolEx@VCGravityDecorator@NEffectUpdateDecorator@@@@QAEXXZ PROC ; CDynamicPoolEx<NEffectUpdateDecorator::CGravityDecorator>::Destroy, COMDAT
; _this$ = ecx

; 150  : 		{

  00000	55		 push	 ebp
  00001	8b ec		 mov	 ebp, esp
  00003	83 ec 2c	 sub	 esp, 44			; 0000002cH
  00006	89 4d fc	 mov	 DWORD PTR _this$[ebp], ecx
; File C:\Program Files (x86)\Microsoft Visual Studio\2019\Community\VC\Tools\MSVC\14.28.29333\include\vector

; 1420 :         auto& _My_data = _Mypair._Myval2;

  00009	8b 45 fc	 mov	 eax, DWORD PTR _this$[ebp]
  0000c	83 c0 04	 add	 eax, 4
  0000f	89 45 f8	 mov	 DWORD PTR __My_data$8[ebp], eax
; File C:\Program Files (x86)\Microsoft Visual Studio\2019\Community\VC\Tools\MSVC\14.28.29333\include\xstddef

; 275  :     return __builtin_addressof(_Val);

  00012	8b 45 f8	 mov	 eax, DWORD PTR __My_data$8[ebp]
  00015	89 45 d8	 mov	 DWORD PTR $T2[ebp], eax
; File C:\Program Files (x86)\Microsoft Visual Studio\2019\Community\VC\Tools\MSVC\14.28.29333\include\vector

; 1421 :         return iterator(_My_data._Mylast, _STD addressof(_My_data));

  00018	8b 45 f8	 mov	 eax, DWORD PTR __My_data$8[ebp]
  0001b	8b 40 04	 mov	 eax, DWORD PTR [eax+4]
  0001e	89 45 f0	 mov	 DWORD PTR ___param0$[ebp], eax

; 42   :     _Vector_const_iterator(_Tptr _Parg, const _Container_base* _Pvector) noexcept : _Ptr(_Parg) {

  00021	8b 45 f0	 mov	 eax, DWORD PTR ___param0$[ebp]
  00024	89 45 ec	 mov	 DWORD PTR $T6[ebp], eax

; 1421 :         return iterator(_My_data._Mylast, _STD addressof(_My_data));

  00027	8d 45 ec	 lea	 eax, DWORD PTR $T6[ebp]
  0002a	89 45 e0	 mov	 DWORD PTR $T4[ebp], eax

; 1410 :         auto& _My_data = _Mypair._Myval2;

  0002d	8b 45 fc	 mov	 eax, DWORD PTR _this$[ebp]
  00030	83 c0 04	 add	 eax, 4
  00033	89 45 f4	 mov	 DWORD PTR __My_data$7[ebp], eax
; File C:\Program Files (x86)\Microsoft Visual Studio\2019\Community\VC\Tools\MSVC\14.28.29333\include\xstddef

; 275  :     return __builtin_addressof(_Val);

  00036	8b 45 f4	 mov	 eax, DWORD PTR __My_data$7[ebp]
  00039	89 45 d4	 mov	 DWORD PTR $T1[ebp], eax
; File C:\Program Files (x86)\Microsoft Visual Studio\2019\Community\VC\Tools\MSVC\14.28.29333\include\vector

; 1411 :         return iterator(_My_data._Myfirst, _STD addressof(_My_data));

  0003c	8b 45 f4	 mov	 eax, DWORD PTR __My_data$7[ebp]
  0003f	8b 00		 mov	 eax, DWORD PTR [eax]
  00041	89 45 e8	 mov	 DWORD PTR ___param0$[ebp], eax

; 42   :     _Vector_const_iterator(_Tptr _Parg, const _Container_base* _Pvector) noexcept : _Ptr(_Parg) {

  00044	8b 45 e8	 mov	 eax, DWORD PTR ___param0$[ebp]
  00047	89 45 e4	 mov	 DWORD PTR $T5[ebp], eax

; 1411 :         return iterator(_My_data._Myfirst, _STD addressof(_My_data));

  0004a	8d 45 e4	 lea	 eax, DWORD PTR $T5[ebp]
  0004d	89 45 dc	 mov	 DWORD PTR $T3[ebp], eax
; File D:\Metin2 Server Files\mainline\SRC_2014\Metin2Client\eterLib\Pool.h

; 160  : 			std::for_each(m_kVct_pkData.begin(), m_kVct_pkData.end(), Delete);

  00050	68 00 00 00 00	 push	 OFFSET ?Delete@?$CDynamicPoolEx@VCGravityDecorator@NEffectUpdateDecorator@@@@KAXPAVCGravityDecorator@NEffectUpdateDecorator@@@Z ; CDynamicPoolEx<NEffectUpdateDecorator::CGravityDecorator>::Delete
  00055	8b 45 e0	 mov	 eax, DWORD PTR $T4[ebp]
  00058	ff 30		 push	 DWORD PTR [eax]
  0005a	8b 45 dc	 mov	 eax, DWORD PTR $T3[ebp]
  0005d	ff 30		 push	 DWORD PTR [eax]
  0005f	e8 00 00 00 00	 call	 ??$for_each@V?$_Vector_iterator@V?$_Vector_val@U?$_Simple_types@PAVCGravityDecorator@NEffectUpdateDecorator@@@std@@@std@@@std@@P6AXPAVCGravityDecorator@NEffectUpdateDecorator@@@Z@std@@YAP6AXPAVCGravityDecorator@NEffectUpdateDecorator@@@ZV?$_Vector_iterator@V?$_Vector_val@U?$_Simple_types@PAVCGravityDecorator@NEffectUpdateDecorator@@@std@@@std@@@0@1P6AX0@Z@Z ; std::for_each<std::_Vector_iterator<std::_Vector_val<std::_Simple_types<NEffectUpdateDecorator::CGravityDecorator *> > >,void (__cdecl*)(NEffectUpdateDecorator::CGravityDecorator *)>
  00064	83 c4 0c	 add	 esp, 12			; 0000000cH

; 161  : 			m_kVct_pkData.clear();

  00067	8b 4d fc	 mov	 ecx, DWORD PTR _this$[ebp]
  0006a	83 c1 04	 add	 ecx, 4
  0006d	e8 00 00 00 00	 call	 ?clear@?$vector@PAVCGravityDecorator@NEffectUpdateDecorator@@V?$allocator@PAVCGravityDecorator@NEffectUpdateDecorator@@@std@@@std@@QAEXXZ ; std::vector<NEffectUpdateDecorator::CGravityDecorator *,std::allocator<NEffectUpdateDecorator::CGravityDecorator *> >::clear

; 162  : 			m_kVct_pkFree.clear();

  00072	8b 4d fc	 mov	 ecx, DWORD PTR _this$[ebp]
  00075	83 c1 10	 add	 ecx, 16			; 00000010H
  00078	e8 00 00 00 00	 call	 ?clear@?$vector@PAVCGravityDecorator@NEffectUpdateDecorator@@V?$allocator@PAVCGravityDecorator@NEffectUpdateDecorator@@@std@@@std@@QAEXXZ ; std::vector<NEffectUpdateDecorator::CGravityDecorator *,std::allocator<NEffectUpdateDecorator::CGravityDecorator *> >::clear

; 163  : 		}

  0007d	c9		 leave
  0007e	c3		 ret	 0
?Destroy@?$CDynamicPoolEx@VCGravityDecorator@NEffectUpdateDecorator@@@@QAEXXZ ENDP ; CDynamicPoolEx<NEffectUpdateDecorator::CGravityDecorator>::Destroy
_TEXT	ENDS
; Function compile flags: /Odspy
; File D:\Metin2 Server Files\mainline\SRC_2014\Metin2Client\eterLib\Pool.h
; File C:\Program Files (x86)\Microsoft Visual Studio\2019\Community\VC\Tools\MSVC\14.28.29333\include\vector
; File D:\Metin2 Server Files\mainline\SRC_2014\Metin2Client\eterLib\Pool.h
; File C:\Program Files (x86)\Microsoft Visual Studio\2019\Community\VC\Tools\MSVC\14.28.29333\include\vector
; File D:\Metin2 Server Files\mainline\SRC_2014\Metin2Client\eterLib\Pool.h
;	COMDAT ??1?$CDynamicPoolEx@VCGravityDecorator@NEffectUpdateDecorator@@@@UAE@XZ
_TEXT	SEGMENT
_this$ = -16						; size = 4
__$EHRec$ = -12						; size = 12
??1?$CDynamicPoolEx@VCGravityDecorator@NEffectUpdateDecorator@@@@UAE@XZ PROC ; CDynamicPoolEx<NEffectUpdateDecorator::CGravityDecorator>::~CDynamicPoolEx<NEffectUpdateDecorator::CGravityDecorator>, COMDAT
; _this$ = ecx

; 132  : 		{

  00000	55		 push	 ebp
  00001	8b ec		 mov	 ebp, esp
  00003	6a ff		 push	 -1
  00005	68 00 00 00 00	 push	 __ehhandler$??1?$CDynamicPoolEx@VCGravityDecorator@NEffectUpdateDecorator@@@@UAE@XZ
  0000a	64 a1 00 00 00
	00		 mov	 eax, DWORD PTR fs:0
  00010	50		 push	 eax
  00011	51		 push	 ecx
  00012	a1 00 00 00 00	 mov	 eax, DWORD PTR ___security_cookie
  00017	33 c5		 xor	 eax, ebp
  00019	50		 push	 eax
  0001a	8d 45 f4	 lea	 eax, DWORD PTR __$EHRec$[ebp]
  0001d	64 a3 00 00 00
	00		 mov	 DWORD PTR fs:0, eax
  00023	89 4d f0	 mov	 DWORD PTR _this$[ebp], ecx
  00026	8b 45 f0	 mov	 eax, DWORD PTR _this$[ebp]
  00029	c7 00 00 00 00
	00		 mov	 DWORD PTR [eax], OFFSET ??_7?$CDynamicPoolEx@VCGravityDecorator@NEffectUpdateDecorator@@@@6B@

; 133  : 			assert(m_kVct_pkFree.size()==m_kVct_pkData.size());
; 134  : 			Destroy();

  0002f	8b 4d f0	 mov	 ecx, DWORD PTR _this$[ebp]
  00032	e8 00 00 00 00	 call	 ?Destroy@?$CDynamicPoolEx@VCGravityDecorator@NEffectUpdateDecorator@@@@QAEXXZ ; CDynamicPoolEx<NEffectUpdateDecorator::CGravityDecorator>::Destroy

; 142  : 		}

  00037	8b 4d f0	 mov	 ecx, DWORD PTR _this$[ebp]
  0003a	83 c1 10	 add	 ecx, 16			; 00000010H
; File C:\Program Files (x86)\Microsoft Visual Studio\2019\Community\VC\Tools\MSVC\14.28.29333\include\vector

; 673  :         _Tidy();

  0003d	e8 00 00 00 00	 call	 ?_Tidy@?$vector@PAVCGravityDecorator@NEffectUpdateDecorator@@V?$allocator@PAVCGravityDecorator@NEffectUpdateDecorator@@@std@@@std@@AAEXXZ ; std::vector<NEffectUpdateDecorator::CGravityDecorator *,std::allocator<NEffectUpdateDecorator::CGravityDecorator *> >::_Tidy
; File D:\Metin2 Server Files\mainline\SRC_2014\Metin2Client\eterLib\Pool.h

; 142  : 		}

  00042	8b 4d f0	 mov	 ecx, DWORD PTR _this$[ebp]
  00045	83 c1 04	 add	 ecx, 4
; File C:\Program Files (x86)\Microsoft Visual Studio\2019\Community\VC\Tools\MSVC\14.28.29333\include\vector

; 673  :         _Tidy();

  00048	e8 00 00 00 00	 call	 ?_Tidy@?$vector@PAVCGravityDecorator@NEffectUpdateDecorator@@V?$allocator@PAVCGravityDecorator@NEffectUpdateDecorator@@@std@@@std@@AAEXXZ ; std::vector<NEffectUpdateDecorator::CGravityDecorator *,std::allocator<NEffectUpdateDecorator::CGravityDecorator *> >::_Tidy
; File D:\Metin2 Server Files\mainline\SRC_2014\Metin2Client\eterLib\Pool.h

; 142  : 		}

  0004d	8b 4d f4	 mov	 ecx, DWORD PTR __$EHRec$[ebp]
  00050	64 89 0d 00 00
	00 00		 mov	 DWORD PTR fs:0, ecx
  00057	59		 pop	 ecx
  00058	c9		 leave
  00059	c3		 ret	 0
  0005a	cc		 int	 3
  0005b	cc		 int	 3
  0005c	cc		 int	 3
  0005d	cc		 int	 3
  0005e	cc		 int	 3
_TEXT	ENDS
;	COMDAT text$x
text$x	SEGMENT
__ehhandler$??1?$CDynamicPoolEx@VCGravityDecorator@NEffectUpdateDecorator@@@@UAE@XZ:
  00000	90		 npad	 1
  00001	90		 npad	 1
  00002	8b 54 24 08	 mov	 edx, DWORD PTR [esp+8]
  00006	8d 42 0c	 lea	 eax, DWORD PTR [edx+12]
  00009	8b 4a f8	 mov	 ecx, DWORD PTR [edx-8]
  0000c	33 c8		 xor	 ecx, eax
  0000e	e8 00 00 00 00	 call	 @__security_check_cookie@4
  00013	b8 00 00 00 00	 mov	 eax, OFFSET __ehfuncinfo$??1?$CDynamicPoolEx@VCGravityDecorator@NEffectUpdateDecorator@@@@UAE@XZ
  00018	e9 00 00 00 00	 jmp	 ___CxxFrameHandler3
text$x	ENDS
??1?$CDynamicPoolEx@VCGravityDecorator@NEffectUpdateDecorator@@@@UAE@XZ ENDP ; CDynamicPoolEx<NEffectUpdateDecorator::CGravityDecorator>::~CDynamicPoolEx<NEffectUpdateDecorator::CGravityDecorator>
; Function compile flags: /Odspy
; File D:\Metin2 Server Files\mainline\SRC_2014\Metin2Client\eterLib\Pool.h
; File C:\Program Files (x86)\Microsoft Visual Studio\2019\Community\VC\Tools\MSVC\14.28.29333\include\vector
; File C:\Program Files (x86)\Microsoft Visual Studio\2019\Community\VC\Tools\MSVC\14.28.29333\include\xmemory
; File C:\Program Files (x86)\Microsoft Visual Studio\2019\Community\VC\Tools\MSVC\14.28.29333\include\vector
; File D:\Metin2 Server Files\mainline\SRC_2014\Metin2Client\eterLib\Pool.h
; File C:\Program Files (x86)\Microsoft Visual Studio\2019\Community\VC\Tools\MSVC\14.28.29333\include\vector
; File C:\Program Files (x86)\Microsoft Visual Studio\2019\Community\VC\Tools\MSVC\14.28.29333\include\xmemory
; File C:\Program Files (x86)\Microsoft Visual Studio\2019\Community\VC\Tools\MSVC\14.28.29333\include\vector
; File D:\Metin2 Server Files\mainline\SRC_2014\Metin2Client\eterLib\Pool.h
;	COMDAT ??0?$CDynamicPoolEx@VCGravityDecorator@NEffectUpdateDecorator@@@@QAE@XZ
_TEXT	SEGMENT
_this$ = -28						; size = 4
_this$ = -24						; size = 4
_this$ = -20						; size = 4
_this$ = -16						; size = 4
_this$1 = -12						; size = 4
_this$2 = -8						; size = 4
_this$ = -4						; size = 4
??0?$CDynamicPoolEx@VCGravityDecorator@NEffectUpdateDecorator@@@@QAE@XZ PROC ; CDynamicPoolEx<NEffectUpdateDecorator::CGravityDecorator>::CDynamicPoolEx<NEffectUpdateDecorator::CGravityDecorator>, COMDAT
; _this$ = ecx

; 126  : 		CDynamicPoolEx()

  00000	55		 push	 ebp
  00001	8b ec		 mov	 ebp, esp
  00003	83 ec 1c	 sub	 esp, 28			; 0000001cH
  00006	89 4d fc	 mov	 DWORD PTR _this$[ebp], ecx

; 127  : 		{

  00009	8b 45 fc	 mov	 eax, DWORD PTR _this$[ebp]
  0000c	c7 00 00 00 00
	00		 mov	 DWORD PTR [eax], OFFSET ??_7?$CDynamicPoolEx@VCGravityDecorator@NEffectUpdateDecorator@@@@6B@
  00012	8b 45 fc	 mov	 eax, DWORD PTR _this$[ebp]
  00015	83 c0 04	 add	 eax, 4
  00018	89 45 f0	 mov	 DWORD PTR _this$[ebp], eax
; File C:\Program Files (x86)\Microsoft Visual Studio\2019\Community\VC\Tools\MSVC\14.28.29333\include\vector

; 445  :     vector() noexcept(is_nothrow_default_constructible_v<_Alty>) : _Mypair(_Zero_then_variadic_args_t{}) {

  0001b	8b 45 f0	 mov	 eax, DWORD PTR _this$[ebp]
  0001e	89 45 ec	 mov	 DWORD PTR _this$[ebp], eax
; File C:\Program Files (x86)\Microsoft Visual Studio\2019\Community\VC\Tools\MSVC\14.28.29333\include\xmemory

; 1339 :         : _Ty1(), _Myval2(_STD forward<_Other2>(_Val2)...) {}

  00021	8b 45 ec	 mov	 eax, DWORD PTR _this$[ebp]
  00024	89 45 f8	 mov	 DWORD PTR _this$2[ebp], eax
; File C:\Program Files (x86)\Microsoft Visual Studio\2019\Community\VC\Tools\MSVC\14.28.29333\include\vector

; 375  :     _Vector_val() noexcept : _Myfirst(), _Mylast(), _Myend() {}

  00027	8b 45 f8	 mov	 eax, DWORD PTR _this$2[ebp]
  0002a	83 20 00	 and	 DWORD PTR [eax], 0
  0002d	8b 45 f8	 mov	 eax, DWORD PTR _this$2[ebp]
  00030	83 60 04 00	 and	 DWORD PTR [eax+4], 0
  00034	8b 45 f8	 mov	 eax, DWORD PTR _this$2[ebp]
  00037	83 60 08 00	 and	 DWORD PTR [eax+8], 0
; File D:\Metin2 Server Files\mainline\SRC_2014\Metin2Client\eterLib\Pool.h

; 127  : 		{

  0003b	8b 45 fc	 mov	 eax, DWORD PTR _this$[ebp]
  0003e	83 c0 10	 add	 eax, 16			; 00000010H
  00041	89 45 e8	 mov	 DWORD PTR _this$[ebp], eax
; File C:\Program Files (x86)\Microsoft Visual Studio\2019\Community\VC\Tools\MSVC\14.28.29333\include\vector

; 445  :     vector() noexcept(is_nothrow_default_constructible_v<_Alty>) : _Mypair(_Zero_then_variadic_args_t{}) {

  00044	8b 45 e8	 mov	 eax, DWORD PTR _this$[ebp]
  00047	89 45 e4	 mov	 DWORD PTR _this$[ebp], eax
; File C:\Program Files (x86)\Microsoft Visual Studio\2019\Community\VC\Tools\MSVC\14.28.29333\include\xmemory

; 1339 :         : _Ty1(), _Myval2(_STD forward<_Other2>(_Val2)...) {}

  0004a	8b 45 e4	 mov	 eax, DWORD PTR _this$[ebp]
  0004d	89 45 f4	 mov	 DWORD PTR _this$1[ebp], eax
; File C:\Program Files (x86)\Microsoft Visual Studio\2019\Community\VC\Tools\MSVC\14.28.29333\include\vector

; 375  :     _Vector_val() noexcept : _Myfirst(), _Mylast(), _Myend() {}

  00050	8b 45 f4	 mov	 eax, DWORD PTR _this$1[ebp]
  00053	83 20 00	 and	 DWORD PTR [eax], 0
  00056	8b 45 f4	 mov	 eax, DWORD PTR _this$1[ebp]
  00059	83 60 04 00	 and	 DWORD PTR [eax+4], 0
  0005d	8b 45 f4	 mov	 eax, DWORD PTR _this$1[ebp]
  00060	83 60 08 00	 and	 DWORD PTR [eax+8], 0
; File D:\Metin2 Server Files\mainline\SRC_2014\Metin2Client\eterLib\Pool.h

; 128  : 			m_uInitCapacity=0;

  00064	8b 45 fc	 mov	 eax, DWORD PTR _this$[ebp]
  00067	83 60 1c 00	 and	 DWORD PTR [eax+28], 0

; 129  : 			m_uUsedCapacity=0;

  0006b	8b 45 fc	 mov	 eax, DWORD PTR _this$[ebp]
  0006e	83 60 20 00	 and	 DWORD PTR [eax+32], 0

; 130  : 		}

  00072	8b 45 fc	 mov	 eax, DWORD PTR _this$[ebp]
  00075	c9		 leave
  00076	c3		 ret	 0
??0?$CDynamicPoolEx@VCGravityDecorator@NEffectUpdateDecorator@@@@QAE@XZ ENDP ; CDynamicPoolEx<NEffectUpdateDecorator::CGravityDecorator>::CDynamicPoolEx<NEffectUpdateDecorator::CGravityDecorator>
_TEXT	ENDS
; Function compile flags: /Odspy
;	COMDAT ??_G?$CDynamicPoolEx@VCRotationDecorator@NEffectUpdateDecorator@@@@UAEPAXI@Z
_TEXT	SEGMENT
_this$ = -4						; size = 4
___flags$ = 8						; size = 4
??_G?$CDynamicPoolEx@VCRotationDecorator@NEffectUpdateDecorator@@@@UAEPAXI@Z PROC ; CDynamicPoolEx<NEffectUpdateDecorator::CRotationDecorator>::`scalar deleting destructor', COMDAT
; _this$ = ecx
  00000	55		 push	 ebp
  00001	8b ec		 mov	 ebp, esp
  00003	51		 push	 ecx
  00004	89 4d fc	 mov	 DWORD PTR _this$[ebp], ecx
  00007	8b 4d fc	 mov	 ecx, DWORD PTR _this$[ebp]
  0000a	e8 00 00 00 00	 call	 ??1?$CDynamicPoolEx@VCRotationDecorator@NEffectUpdateDecorator@@@@UAE@XZ ; CDynamicPoolEx<NEffectUpdateDecorator::CRotationDecorator>::~CDynamicPoolEx<NEffectUpdateDecorator::CRotationDecorator>
  0000f	8b 45 08	 mov	 eax, DWORD PTR ___flags$[ebp]
  00012	83 e0 01	 and	 eax, 1
  00015	74 0c		 je	 SHORT $LN2@scalar
  00017	6a 24		 push	 36			; 00000024H
  00019	ff 75 fc	 push	 DWORD PTR _this$[ebp]
  0001c	e8 00 00 00 00	 call	 ??3@YAXPAXI@Z		; operator delete
  00021	59		 pop	 ecx
  00022	59		 pop	 ecx
$LN2@scalar:
  00023	8b 45 fc	 mov	 eax, DWORD PTR _this$[ebp]
  00026	c9		 leave
  00027	c2 04 00	 ret	 4
??_G?$CDynamicPoolEx@VCRotationDecorator@NEffectUpdateDecorator@@@@UAEPAXI@Z ENDP ; CDynamicPoolEx<NEffectUpdateDecorator::CRotationDecorator>::`scalar deleting destructor'
_TEXT	ENDS
; Function compile flags: /Odspy
; File C:\Program Files (x86)\Microsoft Visual Studio\2019\Community\VC\Tools\MSVC\14.28.29333\include\vector
; File C:\Program Files (x86)\Microsoft Visual Studio\2019\Community\VC\Tools\MSVC\14.28.29333\include\xmemory
; File C:\Program Files (x86)\Microsoft Visual Studio\2019\Community\VC\Tools\MSVC\14.28.29333\include\vector
; File C:\Program Files (x86)\Microsoft Visual Studio\2019\Community\VC\Tools\MSVC\14.28.29333\include\xmemory
; File C:\Program Files (x86)\Microsoft Visual Studio\2019\Community\VC\Tools\MSVC\14.28.29333\include\vector
; File C:\Program Files (x86)\Microsoft Visual Studio\2019\Community\VC\Tools\MSVC\14.28.29333\include\xmemory
; File C:\Program Files (x86)\Microsoft Visual Studio\2019\Community\VC\Tools\MSVC\14.28.29333\include\vector
;	COMDAT ?_Tidy@?$vector@PAVCRotationDecorator@NEffectUpdateDecorator@@V?$allocator@PAVCRotationDecorator@NEffectUpdateDecorator@@@std@@@std@@AAEXXZ
_TEXT	SEGMENT
$T1 = -52						; size = 4
__Ptr$ = -48						; size = 4
__Count$ = -44						; size = 4
$T2 = -40						; size = 4
__First$ = -36						; size = 4
__Last$ = -32						; size = 4
$T3 = -28						; size = 4
$T4 = -24						; size = 4
__Myend$ = -20						; size = 4
__Mylast$ = -16						; size = 4
_this$ = -12						; size = 4
__My_data$ = -8						; size = 4
__Myfirst$ = -4						; size = 4
?_Tidy@?$vector@PAVCRotationDecorator@NEffectUpdateDecorator@@V?$allocator@PAVCRotationDecorator@NEffectUpdateDecorator@@@std@@@std@@AAEXXZ PROC ; std::vector<NEffectUpdateDecorator::CRotationDecorator *,std::allocator<NEffectUpdateDecorator::CRotationDecorator *> >::_Tidy, COMDAT
; _this$ = ecx

; 1686 :     void _Tidy() noexcept { // free all storage

  00000	55		 push	 ebp
  00001	8b ec		 mov	 ebp, esp
  00003	83 ec 34	 sub	 esp, 52			; 00000034H
  00006	89 4d f4	 mov	 DWORD PTR _this$[ebp], ecx

; 1687 :         auto& _My_data    = _Mypair._Myval2;

  00009	8b 45 f4	 mov	 eax, DWORD PTR _this$[ebp]
  0000c	89 45 f8	 mov	 DWORD PTR __My_data$[ebp], eax

; 1688 :         pointer& _Myfirst = _My_data._Myfirst;

  0000f	8b 45 f8	 mov	 eax, DWORD PTR __My_data$[ebp]
  00012	89 45 fc	 mov	 DWORD PTR __Myfirst$[ebp], eax

; 1689 :         pointer& _Mylast  = _My_data._Mylast;

  00015	8b 45 f8	 mov	 eax, DWORD PTR __My_data$[ebp]
  00018	83 c0 04	 add	 eax, 4
  0001b	89 45 f0	 mov	 DWORD PTR __Mylast$[ebp], eax

; 1690 :         pointer& _Myend   = _My_data._Myend;

  0001e	8b 45 f8	 mov	 eax, DWORD PTR __My_data$[ebp]
  00021	83 c0 08	 add	 eax, 8
  00024	89 45 ec	 mov	 DWORD PTR __Myend$[ebp], eax

; 1691 : 
; 1692 :         _My_data._Orphan_all();
; 1693 : 
; 1694 :         if (_Myfirst) { // destroy and deallocate old array

  00027	8b 45 fc	 mov	 eax, DWORD PTR __Myfirst$[ebp]
  0002a	83 38 00	 cmp	 DWORD PTR [eax], 0
  0002d	74 74		 je	 SHORT $LN3@Tidy

; 1695 :             _Destroy(_Myfirst, _Mylast);

  0002f	8b 45 f0	 mov	 eax, DWORD PTR __Mylast$[ebp]
  00032	8b 00		 mov	 eax, DWORD PTR [eax]
  00034	89 45 e0	 mov	 DWORD PTR __Last$[ebp], eax
  00037	8b 45 fc	 mov	 eax, DWORD PTR __Myfirst$[ebp]
  0003a	8b 00		 mov	 eax, DWORD PTR [eax]
  0003c	89 45 dc	 mov	 DWORD PTR __First$[ebp], eax

; 1733 :         return _Mypair._Get_first();

  0003f	8b 45 f4	 mov	 eax, DWORD PTR _this$[ebp]
; File C:\Program Files (x86)\Microsoft Visual Studio\2019\Community\VC\Tools\MSVC\14.28.29333\include\xmemory

; 1347 :         return *this;

  00042	89 45 e8	 mov	 DWORD PTR $T4[ebp], eax
; File C:\Program Files (x86)\Microsoft Visual Studio\2019\Community\VC\Tools\MSVC\14.28.29333\include\vector

; 1733 :         return _Mypair._Get_first();

  00045	8b 45 e8	 mov	 eax, DWORD PTR $T4[ebp]
  00048	89 45 e4	 mov	 DWORD PTR $T3[ebp], eax

; 1612 :         _Destroy_range(_First, _Last, _Getal());

  0004b	ff 75 e4	 push	 DWORD PTR $T3[ebp]
  0004e	ff 75 e0	 push	 DWORD PTR __Last$[ebp]
  00051	ff 75 dc	 push	 DWORD PTR __First$[ebp]
  00054	e8 00 00 00 00	 call	 ??$_Destroy_range@V?$allocator@PAVCRotationDecorator@NEffectUpdateDecorator@@@std@@@std@@YAXPAPAVCRotationDecorator@NEffectUpdateDecorator@@QAPAV12@AAV?$allocator@PAVCRotationDecorator@NEffectUpdateDecorator@@@0@@Z ; std::_Destroy_range<std::allocator<NEffectUpdateDecorator::CRotationDecorator *> >
  00059	83 c4 0c	 add	 esp, 12			; 0000000cH

; 1733 :         return _Mypair._Get_first();

  0005c	8b 45 f4	 mov	 eax, DWORD PTR _this$[ebp]
; File C:\Program Files (x86)\Microsoft Visual Studio\2019\Community\VC\Tools\MSVC\14.28.29333\include\xmemory

; 1347 :         return *this;

  0005f	89 45 d8	 mov	 DWORD PTR $T2[ebp], eax
; File C:\Program Files (x86)\Microsoft Visual Studio\2019\Community\VC\Tools\MSVC\14.28.29333\include\vector

; 1733 :         return _Mypair._Get_first();

  00062	8b 45 d8	 mov	 eax, DWORD PTR $T2[ebp]
  00065	89 45 cc	 mov	 DWORD PTR $T1[ebp], eax

; 1696 :             _Getal().deallocate(_Myfirst, static_cast<size_type>(_Myend - _Myfirst));

  00068	8b 45 ec	 mov	 eax, DWORD PTR __Myend$[ebp]
  0006b	8b 4d fc	 mov	 ecx, DWORD PTR __Myfirst$[ebp]
  0006e	8b 00		 mov	 eax, DWORD PTR [eax]
  00070	2b 01		 sub	 eax, DWORD PTR [ecx]
  00072	c1 f8 02	 sar	 eax, 2
  00075	89 45 d4	 mov	 DWORD PTR __Count$[ebp], eax
  00078	8b 45 fc	 mov	 eax, DWORD PTR __Myfirst$[ebp]
  0007b	8b 00		 mov	 eax, DWORD PTR [eax]
  0007d	89 45 d0	 mov	 DWORD PTR __Ptr$[ebp], eax
; File C:\Program Files (x86)\Microsoft Visual Studio\2019\Community\VC\Tools\MSVC\14.28.29333\include\xmemory

; 810  :         _Deallocate<_New_alignof<_Ty>>(_Ptr, sizeof(_Ty) * _Count);

  00080	8b 45 d4	 mov	 eax, DWORD PTR __Count$[ebp]
  00083	c1 e0 02	 shl	 eax, 2
  00086	50		 push	 eax
  00087	ff 75 d0	 push	 DWORD PTR __Ptr$[ebp]
  0008a	e8 00 00 00 00	 call	 ??$_Deallocate@$07$0A@@std@@YAXPAXI@Z ; std::_Deallocate<8,0>
  0008f	59		 pop	 ecx
  00090	59		 pop	 ecx
; File C:\Program Files (x86)\Microsoft Visual Studio\2019\Community\VC\Tools\MSVC\14.28.29333\include\vector

; 1698 :             _Myfirst = pointer();

  00091	8b 45 fc	 mov	 eax, DWORD PTR __Myfirst$[ebp]
  00094	83 20 00	 and	 DWORD PTR [eax], 0

; 1699 :             _Mylast  = pointer();

  00097	8b 45 f0	 mov	 eax, DWORD PTR __Mylast$[ebp]
  0009a	83 20 00	 and	 DWORD PTR [eax], 0

; 1700 :             _Myend   = pointer();

  0009d	8b 45 ec	 mov	 eax, DWORD PTR __Myend$[ebp]
  000a0	83 20 00	 and	 DWORD PTR [eax], 0
$LN3@Tidy:

; 1701 :         }
; 1702 :     }

  000a3	c9		 leave
  000a4	c3		 ret	 0
?_Tidy@?$vector@PAVCRotationDecorator@NEffectUpdateDecorator@@V?$allocator@PAVCRotationDecorator@NEffectUpdateDecorator@@@std@@@std@@AAEXXZ ENDP ; std::vector<NEffectUpdateDecorator::CRotationDecorator *,std::allocator<NEffectUpdateDecorator::CRotationDecorator *> >::_Tidy
_TEXT	ENDS
; Function compile flags: /Odspy
; File C:\Program Files (x86)\Microsoft Visual Studio\2019\Community\VC\Tools\MSVC\14.28.29333\include\vector
; File C:\Program Files (x86)\Microsoft Visual Studio\2019\Community\VC\Tools\MSVC\14.28.29333\include\xmemory
; File C:\Program Files (x86)\Microsoft Visual Studio\2019\Community\VC\Tools\MSVC\14.28.29333\include\vector
;	COMDAT ?clear@?$vector@PAVCRotationDecorator@NEffectUpdateDecorator@@V?$allocator@PAVCRotationDecorator@NEffectUpdateDecorator@@@std@@@std@@QAEXXZ
_TEXT	SEGMENT
__First$ = -32						; size = 4
__Last$ = -28						; size = 4
$T1 = -24						; size = 4
$T2 = -20						; size = 4
__Myfirst$ = -16					; size = 4
__Mylast$ = -12						; size = 4
_this$ = -8						; size = 4
__My_data$ = -4						; size = 4
?clear@?$vector@PAVCRotationDecorator@NEffectUpdateDecorator@@V?$allocator@PAVCRotationDecorator@NEffectUpdateDecorator@@@std@@@std@@QAEXXZ PROC ; std::vector<NEffectUpdateDecorator::CRotationDecorator *,std::allocator<NEffectUpdateDecorator::CRotationDecorator *> >::clear, COMDAT
; _this$ = ecx

; 1383 :     void clear() noexcept { // erase all

  00000	55		 push	 ebp
  00001	8b ec		 mov	 ebp, esp
  00003	83 ec 20	 sub	 esp, 32			; 00000020H
  00006	89 4d f8	 mov	 DWORD PTR _this$[ebp], ecx

; 1384 :         auto& _My_data    = _Mypair._Myval2;

  00009	8b 45 f8	 mov	 eax, DWORD PTR _this$[ebp]
  0000c	89 45 fc	 mov	 DWORD PTR __My_data$[ebp], eax

; 1385 :         pointer& _Myfirst = _My_data._Myfirst;

  0000f	8b 45 fc	 mov	 eax, DWORD PTR __My_data$[ebp]
  00012	89 45 f0	 mov	 DWORD PTR __Myfirst$[ebp], eax

; 1386 :         pointer& _Mylast  = _My_data._Mylast;

  00015	8b 45 fc	 mov	 eax, DWORD PTR __My_data$[ebp]
  00018	83 c0 04	 add	 eax, 4
  0001b	89 45 f4	 mov	 DWORD PTR __Mylast$[ebp], eax

; 1387 : 
; 1388 :         _My_data._Orphan_all();
; 1389 :         _Destroy(_Myfirst, _Mylast);

  0001e	8b 45 f4	 mov	 eax, DWORD PTR __Mylast$[ebp]
  00021	8b 00		 mov	 eax, DWORD PTR [eax]
  00023	89 45 e4	 mov	 DWORD PTR __Last$[ebp], eax
  00026	8b 45 f0	 mov	 eax, DWORD PTR __Myfirst$[ebp]
  00029	8b 00		 mov	 eax, DWORD PTR [eax]
  0002b	89 45 e0	 mov	 DWORD PTR __First$[ebp], eax

; 1733 :         return _Mypair._Get_first();

  0002e	8b 45 f8	 mov	 eax, DWORD PTR _this$[ebp]
; File C:\Program Files (x86)\Microsoft Visual Studio\2019\Community\VC\Tools\MSVC\14.28.29333\include\xmemory

; 1347 :         return *this;

  00031	89 45 ec	 mov	 DWORD PTR $T2[ebp], eax
; File C:\Program Files (x86)\Microsoft Visual Studio\2019\Community\VC\Tools\MSVC\14.28.29333\include\vector

; 1733 :         return _Mypair._Get_first();

  00034	8b 45 ec	 mov	 eax, DWORD PTR $T2[ebp]
  00037	89 45 e8	 mov	 DWORD PTR $T1[ebp], eax

; 1612 :         _Destroy_range(_First, _Last, _Getal());

  0003a	ff 75 e8	 push	 DWORD PTR $T1[ebp]
  0003d	ff 75 e4	 push	 DWORD PTR __Last$[ebp]
  00040	ff 75 e0	 push	 DWORD PTR __First$[ebp]
  00043	e8 00 00 00 00	 call	 ??$_Destroy_range@V?$allocator@PAVCRotationDecorator@NEffectUpdateDecorator@@@std@@@std@@YAXPAPAVCRotationDecorator@NEffectUpdateDecorator@@QAPAV12@AAV?$allocator@PAVCRotationDecorator@NEffectUpdateDecorator@@@0@@Z ; std::_Destroy_range<std::allocator<NEffectUpdateDecorator::CRotationDecorator *> >
  00048	83 c4 0c	 add	 esp, 12			; 0000000cH

; 1390 :         _Mylast = _Myfirst;

  0004b	8b 45 f4	 mov	 eax, DWORD PTR __Mylast$[ebp]
  0004e	8b 4d f0	 mov	 ecx, DWORD PTR __Myfirst$[ebp]
  00051	8b 09		 mov	 ecx, DWORD PTR [ecx]
  00053	89 08		 mov	 DWORD PTR [eax], ecx

; 1391 :     }

  00055	c9		 leave
  00056	c3		 ret	 0
?clear@?$vector@PAVCRotationDecorator@NEffectUpdateDecorator@@V?$allocator@PAVCRotationDecorator@NEffectUpdateDecorator@@@std@@@std@@QAEXXZ ENDP ; std::vector<NEffectUpdateDecorator::CRotationDecorator *,std::allocator<NEffectUpdateDecorator::CRotationDecorator *> >::clear
_TEXT	ENDS
; Function compile flags: /Odspy
; File D:\Metin2 Server Files\mainline\SRC_2014\Metin2Client\eterLib\Pool.h
;	COMDAT ?Delete@?$CDynamicPoolEx@VCRotationDecorator@NEffectUpdateDecorator@@@@KAXPAVCRotationDecorator@NEffectUpdateDecorator@@@Z
_TEXT	SEGMENT
_pkData$ = 8						; size = 4
?Delete@?$CDynamicPoolEx@VCRotationDecorator@NEffectUpdateDecorator@@@@KAXPAVCRotationDecorator@NEffectUpdateDecorator@@@Z PROC ; CDynamicPoolEx<NEffectUpdateDecorator::CRotationDecorator>::Delete, COMDAT

; 223  : 		{

  00000	55		 push	 ebp
  00001	8b ec		 mov	 ebp, esp

; 224  : 			::operator delete(pkData);

  00003	ff 75 08	 push	 DWORD PTR _pkData$[ebp]
  00006	e8 00 00 00 00	 call	 ??3@YAXPAX@Z		; operator delete
  0000b	59		 pop	 ecx

; 225  : 		}

  0000c	5d		 pop	 ebp
  0000d	c3		 ret	 0
?Delete@?$CDynamicPoolEx@VCRotationDecorator@NEffectUpdateDecorator@@@@KAXPAVCRotationDecorator@NEffectUpdateDecorator@@@Z ENDP ; CDynamicPoolEx<NEffectUpdateDecorator::CRotationDecorator>::Delete
_TEXT	ENDS
; Function compile flags: /Odspy
; File D:\Metin2 Server Files\mainline\SRC_2014\Metin2Client\eterLib\Pool.h
; File C:\Program Files (x86)\Microsoft Visual Studio\2019\Community\VC\Tools\MSVC\14.28.29333\include\vector
; File C:\Program Files (x86)\Microsoft Visual Studio\2019\Community\VC\Tools\MSVC\14.28.29333\include\xstddef
; File C:\Program Files (x86)\Microsoft Visual Studio\2019\Community\VC\Tools\MSVC\14.28.29333\include\vector
; File C:\Program Files (x86)\Microsoft Visual Studio\2019\Community\VC\Tools\MSVC\14.28.29333\include\xstddef
; File C:\Program Files (x86)\Microsoft Visual Studio\2019\Community\VC\Tools\MSVC\14.28.29333\include\vector
; File D:\Metin2 Server Files\mainline\SRC_2014\Metin2Client\eterLib\Pool.h
;	COMDAT ?Destroy@?$CDynamicPoolEx@VCRotationDecorator@NEffectUpdateDecorator@@@@QAEXXZ
_TEXT	SEGMENT
$T1 = -44						; size = 4
$T2 = -40						; size = 4
$T3 = -36						; size = 4
$T4 = -32						; size = 4
$T5 = -28						; size = 4
___param0$ = -24					; size = 4
$T6 = -20						; size = 4
___param0$ = -16					; size = 4
__My_data$7 = -12					; size = 4
__My_data$8 = -8					; size = 4
_this$ = -4						; size = 4
?Destroy@?$CDynamicPoolEx@VCRotationDecorator@NEffectUpdateDecorator@@@@QAEXXZ PROC ; CDynamicPoolEx<NEffectUpdateDecorator::CRotationDecorator>::Destroy, COMDAT
; _this$ = ecx

; 150  : 		{

  00000	55		 push	 ebp
  00001	8b ec		 mov	 ebp, esp
  00003	83 ec 2c	 sub	 esp, 44			; 0000002cH
  00006	89 4d fc	 mov	 DWORD PTR _this$[ebp], ecx
; File C:\Program Files (x86)\Microsoft Visual Studio\2019\Community\VC\Tools\MSVC\14.28.29333\include\vector

; 1420 :         auto& _My_data = _Mypair._Myval2;

  00009	8b 45 fc	 mov	 eax, DWORD PTR _this$[ebp]
  0000c	83 c0 04	 add	 eax, 4
  0000f	89 45 f8	 mov	 DWORD PTR __My_data$8[ebp], eax
; File C:\Program Files (x86)\Microsoft Visual Studio\2019\Community\VC\Tools\MSVC\14.28.29333\include\xstddef

; 275  :     return __builtin_addressof(_Val);

  00012	8b 45 f8	 mov	 eax, DWORD PTR __My_data$8[ebp]
  00015	89 45 d8	 mov	 DWORD PTR $T2[ebp], eax
; File C:\Program Files (x86)\Microsoft Visual Studio\2019\Community\VC\Tools\MSVC\14.28.29333\include\vector

; 1421 :         return iterator(_My_data._Mylast, _STD addressof(_My_data));

  00018	8b 45 f8	 mov	 eax, DWORD PTR __My_data$8[ebp]
  0001b	8b 40 04	 mov	 eax, DWORD PTR [eax+4]
  0001e	89 45 f0	 mov	 DWORD PTR ___param0$[ebp], eax

; 42   :     _Vector_const_iterator(_Tptr _Parg, const _Container_base* _Pvector) noexcept : _Ptr(_Parg) {

  00021	8b 45 f0	 mov	 eax, DWORD PTR ___param0$[ebp]
  00024	89 45 ec	 mov	 DWORD PTR $T6[ebp], eax

; 1421 :         return iterator(_My_data._Mylast, _STD addressof(_My_data));

  00027	8d 45 ec	 lea	 eax, DWORD PTR $T6[ebp]
  0002a	89 45 e0	 mov	 DWORD PTR $T4[ebp], eax

; 1410 :         auto& _My_data = _Mypair._Myval2;

  0002d	8b 45 fc	 mov	 eax, DWORD PTR _this$[ebp]
  00030	83 c0 04	 add	 eax, 4
  00033	89 45 f4	 mov	 DWORD PTR __My_data$7[ebp], eax
; File C:\Program Files (x86)\Microsoft Visual Studio\2019\Community\VC\Tools\MSVC\14.28.29333\include\xstddef

; 275  :     return __builtin_addressof(_Val);

  00036	8b 45 f4	 mov	 eax, DWORD PTR __My_data$7[ebp]
  00039	89 45 d4	 mov	 DWORD PTR $T1[ebp], eax
; File C:\Program Files (x86)\Microsoft Visual Studio\2019\Community\VC\Tools\MSVC\14.28.29333\include\vector

; 1411 :         return iterator(_My_data._Myfirst, _STD addressof(_My_data));

  0003c	8b 45 f4	 mov	 eax, DWORD PTR __My_data$7[ebp]
  0003f	8b 00		 mov	 eax, DWORD PTR [eax]
  00041	89 45 e8	 mov	 DWORD PTR ___param0$[ebp], eax

; 42   :     _Vector_const_iterator(_Tptr _Parg, const _Container_base* _Pvector) noexcept : _Ptr(_Parg) {

  00044	8b 45 e8	 mov	 eax, DWORD PTR ___param0$[ebp]
  00047	89 45 e4	 mov	 DWORD PTR $T5[ebp], eax

; 1411 :         return iterator(_My_data._Myfirst, _STD addressof(_My_data));

  0004a	8d 45 e4	 lea	 eax, DWORD PTR $T5[ebp]
  0004d	89 45 dc	 mov	 DWORD PTR $T3[ebp], eax
; File D:\Metin2 Server Files\mainline\SRC_2014\Metin2Client\eterLib\Pool.h

; 160  : 			std::for_each(m_kVct_pkData.begin(), m_kVct_pkData.end(), Delete);

  00050	68 00 00 00 00	 push	 OFFSET ?Delete@?$CDynamicPoolEx@VCRotationDecorator@NEffectUpdateDecorator@@@@KAXPAVCRotationDecorator@NEffectUpdateDecorator@@@Z ; CDynamicPoolEx<NEffectUpdateDecorator::CRotationDecorator>::Delete
  00055	8b 45 e0	 mov	 eax, DWORD PTR $T4[ebp]
  00058	ff 30		 push	 DWORD PTR [eax]
  0005a	8b 45 dc	 mov	 eax, DWORD PTR $T3[ebp]
  0005d	ff 30		 push	 DWORD PTR [eax]
  0005f	e8 00 00 00 00	 call	 ??$for_each@V?$_Vector_iterator@V?$_Vector_val@U?$_Simple_types@PAVCRotationDecorator@NEffectUpdateDecorator@@@std@@@std@@@std@@P6AXPAVCRotationDecorator@NEffectUpdateDecorator@@@Z@std@@YAP6AXPAVCRotationDecorator@NEffectUpdateDecorator@@@ZV?$_Vector_iterator@V?$_Vector_val@U?$_Simple_types@PAVCRotationDecorator@NEffectUpdateDecorator@@@std@@@std@@@0@1P6AX0@Z@Z ; std::for_each<std::_Vector_iterator<std::_Vector_val<std::_Simple_types<NEffectUpdateDecorator::CRotationDecorator *> > >,void (__cdecl*)(NEffectUpdateDecorator::CRotationDecorator *)>
  00064	83 c4 0c	 add	 esp, 12			; 0000000cH

; 161  : 			m_kVct_pkData.clear();

  00067	8b 4d fc	 mov	 ecx, DWORD PTR _this$[ebp]
  0006a	83 c1 04	 add	 ecx, 4
  0006d	e8 00 00 00 00	 call	 ?clear@?$vector@PAVCRotationDecorator@NEffectUpdateDecorator@@V?$allocator@PAVCRotationDecorator@NEffectUpdateDecorator@@@std@@@std@@QAEXXZ ; std::vector<NEffectUpdateDecorator::CRotationDecorator *,std::allocator<NEffectUpdateDecorator::CRotationDecorator *> >::clear

; 162  : 			m_kVct_pkFree.clear();

  00072	8b 4d fc	 mov	 ecx, DWORD PTR _this$[ebp]
  00075	83 c1 10	 add	 ecx, 16			; 00000010H
  00078	e8 00 00 00 00	 call	 ?clear@?$vector@PAVCRotationDecorator@NEffectUpdateDecorator@@V?$allocator@PAVCRotationDecorator@NEffectUpdateDecorator@@@std@@@std@@QAEXXZ ; std::vector<NEffectUpdateDecorator::CRotationDecorator *,std::allocator<NEffectUpdateDecorator::CRotationDecorator *> >::clear

; 163  : 		}

  0007d	c9		 leave
  0007e	c3		 ret	 0
?Destroy@?$CDynamicPoolEx@VCRotationDecorator@NEffectUpdateDecorator@@@@QAEXXZ ENDP ; CDynamicPoolEx<NEffectUpdateDecorator::CRotationDecorator>::Destroy
_TEXT	ENDS
; Function compile flags: /Odspy
; File D:\Metin2 Server Files\mainline\SRC_2014\Metin2Client\eterLib\Pool.h
; File C:\Program Files (x86)\Microsoft Visual Studio\2019\Community\VC\Tools\MSVC\14.28.29333\include\vector
; File D:\Metin2 Server Files\mainline\SRC_2014\Metin2Client\eterLib\Pool.h
; File C:\Program Files (x86)\Microsoft Visual Studio\2019\Community\VC\Tools\MSVC\14.28.29333\include\vector
; File D:\Metin2 Server Files\mainline\SRC_2014\Metin2Client\eterLib\Pool.h
;	COMDAT ??1?$CDynamicPoolEx@VCRotationDecorator@NEffectUpdateDecorator@@@@UAE@XZ
_TEXT	SEGMENT
_this$ = -16						; size = 4
__$EHRec$ = -12						; size = 12
??1?$CDynamicPoolEx@VCRotationDecorator@NEffectUpdateDecorator@@@@UAE@XZ PROC ; CDynamicPoolEx<NEffectUpdateDecorator::CRotationDecorator>::~CDynamicPoolEx<NEffectUpdateDecorator::CRotationDecorator>, COMDAT
; _this$ = ecx

; 132  : 		{

  00000	55		 push	 ebp
  00001	8b ec		 mov	 ebp, esp
  00003	6a ff		 push	 -1
  00005	68 00 00 00 00	 push	 __ehhandler$??1?$CDynamicPoolEx@VCRotationDecorator@NEffectUpdateDecorator@@@@UAE@XZ
  0000a	64 a1 00 00 00
	00		 mov	 eax, DWORD PTR fs:0
  00010	50		 push	 eax
  00011	51		 push	 ecx
  00012	a1 00 00 00 00	 mov	 eax, DWORD PTR ___security_cookie
  00017	33 c5		 xor	 eax, ebp
  00019	50		 push	 eax
  0001a	8d 45 f4	 lea	 eax, DWORD PTR __$EHRec$[ebp]
  0001d	64 a3 00 00 00
	00		 mov	 DWORD PTR fs:0, eax
  00023	89 4d f0	 mov	 DWORD PTR _this$[ebp], ecx
  00026	8b 45 f0	 mov	 eax, DWORD PTR _this$[ebp]
  00029	c7 00 00 00 00
	00		 mov	 DWORD PTR [eax], OFFSET ??_7?$CDynamicPoolEx@VCRotationDecorator@NEffectUpdateDecorator@@@@6B@

; 133  : 			assert(m_kVct_pkFree.size()==m_kVct_pkData.size());
; 134  : 			Destroy();

  0002f	8b 4d f0	 mov	 ecx, DWORD PTR _this$[ebp]
  00032	e8 00 00 00 00	 call	 ?Destroy@?$CDynamicPoolEx@VCRotationDecorator@NEffectUpdateDecorator@@@@QAEXXZ ; CDynamicPoolEx<NEffectUpdateDecorator::CRotationDecorator>::Destroy

; 142  : 		}

  00037	8b 4d f0	 mov	 ecx, DWORD PTR _this$[ebp]
  0003a	83 c1 10	 add	 ecx, 16			; 00000010H
; File C:\Program Files (x86)\Microsoft Visual Studio\2019\Community\VC\Tools\MSVC\14.28.29333\include\vector

; 673  :         _Tidy();

  0003d	e8 00 00 00 00	 call	 ?_Tidy@?$vector@PAVCRotationDecorator@NEffectUpdateDecorator@@V?$allocator@PAVCRotationDecorator@NEffectUpdateDecorator@@@std@@@std@@AAEXXZ ; std::vector<NEffectUpdateDecorator::CRotationDecorator *,std::allocator<NEffectUpdateDecorator::CRotationDecorator *> >::_Tidy
; File D:\Metin2 Server Files\mainline\SRC_2014\Metin2Client\eterLib\Pool.h

; 142  : 		}

  00042	8b 4d f0	 mov	 ecx, DWORD PTR _this$[ebp]
  00045	83 c1 04	 add	 ecx, 4
; File C:\Program Files (x86)\Microsoft Visual Studio\2019\Community\VC\Tools\MSVC\14.28.29333\include\vector

; 673  :         _Tidy();

  00048	e8 00 00 00 00	 call	 ?_Tidy@?$vector@PAVCRotationDecorator@NEffectUpdateDecorator@@V?$allocator@PAVCRotationDecorator@NEffectUpdateDecorator@@@std@@@std@@AAEXXZ ; std::vector<NEffectUpdateDecorator::CRotationDecorator *,std::allocator<NEffectUpdateDecorator::CRotationDecorator *> >::_Tidy
; File D:\Metin2 Server Files\mainline\SRC_2014\Metin2Client\eterLib\Pool.h

; 142  : 		}

  0004d	8b 4d f4	 mov	 ecx, DWORD PTR __$EHRec$[ebp]
  00050	64 89 0d 00 00
	00 00		 mov	 DWORD PTR fs:0, ecx
  00057	59		 pop	 ecx
  00058	c9		 leave
  00059	c3		 ret	 0
  0005a	cc		 int	 3
  0005b	cc		 int	 3
  0005c	cc		 int	 3
  0005d	cc		 int	 3
  0005e	cc		 int	 3
_TEXT	ENDS
;	COMDAT text$x
text$x	SEGMENT
__ehhandler$??1?$CDynamicPoolEx@VCRotationDecorator@NEffectUpdateDecorator@@@@UAE@XZ:
  00000	90		 npad	 1
  00001	90		 npad	 1
  00002	8b 54 24 08	 mov	 edx, DWORD PTR [esp+8]
  00006	8d 42 0c	 lea	 eax, DWORD PTR [edx+12]
  00009	8b 4a f8	 mov	 ecx, DWORD PTR [edx-8]
  0000c	33 c8		 xor	 ecx, eax
  0000e	e8 00 00 00 00	 call	 @__security_check_cookie@4
  00013	b8 00 00 00 00	 mov	 eax, OFFSET __ehfuncinfo$??1?$CDynamicPoolEx@VCRotationDecorator@NEffectUpdateDecorator@@@@UAE@XZ
  00018	e9 00 00 00 00	 jmp	 ___CxxFrameHandler3
text$x	ENDS
??1?$CDynamicPoolEx@VCRotationDecorator@NEffectUpdateDecorator@@@@UAE@XZ ENDP ; CDynamicPoolEx<NEffectUpdateDecorator::CRotationDecorator>::~CDynamicPoolEx<NEffectUpdateDecorator::CRotationDecorator>
; Function compile flags: /Odspy
; File D:\Metin2 Server Files\mainline\SRC_2014\Metin2Client\eterLib\Pool.h
; File C:\Program Files (x86)\Microsoft Visual Studio\2019\Community\VC\Tools\MSVC\14.28.29333\include\vector
; File C:\Program Files (x86)\Microsoft Visual Studio\2019\Community\VC\Tools\MSVC\14.28.29333\include\xmemory
; File C:\Program Files (x86)\Microsoft Visual Studio\2019\Community\VC\Tools\MSVC\14.28.29333\include\vector
; File D:\Metin2 Server Files\mainline\SRC_2014\Metin2Client\eterLib\Pool.h
; File C:\Program Files (x86)\Microsoft Visual Studio\2019\Community\VC\Tools\MSVC\14.28.29333\include\vector
; File C:\Program Files (x86)\Microsoft Visual Studio\2019\Community\VC\Tools\MSVC\14.28.29333\include\xmemory
; File C:\Program Files (x86)\Microsoft Visual Studio\2019\Community\VC\Tools\MSVC\14.28.29333\include\vector
; File D:\Metin2 Server Files\mainline\SRC_2014\Metin2Client\eterLib\Pool.h
;	COMDAT ??0?$CDynamicPoolEx@VCRotationDecorator@NEffectUpdateDecorator@@@@QAE@XZ
_TEXT	SEGMENT
_this$ = -28						; size = 4
_this$ = -24						; size = 4
_this$ = -20						; size = 4
_this$ = -16						; size = 4
_this$1 = -12						; size = 4
_this$2 = -8						; size = 4
_this$ = -4						; size = 4
??0?$CDynamicPoolEx@VCRotationDecorator@NEffectUpdateDecorator@@@@QAE@XZ PROC ; CDynamicPoolEx<NEffectUpdateDecorator::CRotationDecorator>::CDynamicPoolEx<NEffectUpdateDecorator::CRotationDecorator>, COMDAT
; _this$ = ecx

; 126  : 		CDynamicPoolEx()

  00000	55		 push	 ebp
  00001	8b ec		 mov	 ebp, esp
  00003	83 ec 1c	 sub	 esp, 28			; 0000001cH
  00006	89 4d fc	 mov	 DWORD PTR _this$[ebp], ecx

; 127  : 		{

  00009	8b 45 fc	 mov	 eax, DWORD PTR _this$[ebp]
  0000c	c7 00 00 00 00
	00		 mov	 DWORD PTR [eax], OFFSET ??_7?$CDynamicPoolEx@VCRotationDecorator@NEffectUpdateDecorator@@@@6B@
  00012	8b 45 fc	 mov	 eax, DWORD PTR _this$[ebp]
  00015	83 c0 04	 add	 eax, 4
  00018	89 45 f0	 mov	 DWORD PTR _this$[ebp], eax
; File C:\Program Files (x86)\Microsoft Visual Studio\2019\Community\VC\Tools\MSVC\14.28.29333\include\vector

; 445  :     vector() noexcept(is_nothrow_default_constructible_v<_Alty>) : _Mypair(_Zero_then_variadic_args_t{}) {

  0001b	8b 45 f0	 mov	 eax, DWORD PTR _this$[ebp]
  0001e	89 45 ec	 mov	 DWORD PTR _this$[ebp], eax
; File C:\Program Files (x86)\Microsoft Visual Studio\2019\Community\VC\Tools\MSVC\14.28.29333\include\xmemory

; 1339 :         : _Ty1(), _Myval2(_STD forward<_Other2>(_Val2)...) {}

  00021	8b 45 ec	 mov	 eax, DWORD PTR _this$[ebp]
  00024	89 45 f8	 mov	 DWORD PTR _this$2[ebp], eax
; File C:\Program Files (x86)\Microsoft Visual Studio\2019\Community\VC\Tools\MSVC\14.28.29333\include\vector

; 375  :     _Vector_val() noexcept : _Myfirst(), _Mylast(), _Myend() {}

  00027	8b 45 f8	 mov	 eax, DWORD PTR _this$2[ebp]
  0002a	83 20 00	 and	 DWORD PTR [eax], 0
  0002d	8b 45 f8	 mov	 eax, DWORD PTR _this$2[ebp]
  00030	83 60 04 00	 and	 DWORD PTR [eax+4], 0
  00034	8b 45 f8	 mov	 eax, DWORD PTR _this$2[ebp]
  00037	83 60 08 00	 and	 DWORD PTR [eax+8], 0
; File D:\Metin2 Server Files\mainline\SRC_2014\Metin2Client\eterLib\Pool.h

; 127  : 		{

  0003b	8b 45 fc	 mov	 eax, DWORD PTR _this$[ebp]
  0003e	83 c0 10	 add	 eax, 16			; 00000010H
  00041	89 45 e8	 mov	 DWORD PTR _this$[ebp], eax
; File C:\Program Files (x86)\Microsoft Visual Studio\2019\Community\VC\Tools\MSVC\14.28.29333\include\vector

; 445  :     vector() noexcept(is_nothrow_default_constructible_v<_Alty>) : _Mypair(_Zero_then_variadic_args_t{}) {

  00044	8b 45 e8	 mov	 eax, DWORD PTR _this$[ebp]
  00047	89 45 e4	 mov	 DWORD PTR _this$[ebp], eax
; File C:\Program Files (x86)\Microsoft Visual Studio\2019\Community\VC\Tools\MSVC\14.28.29333\include\xmemory

; 1339 :         : _Ty1(), _Myval2(_STD forward<_Other2>(_Val2)...) {}

  0004a	8b 45 e4	 mov	 eax, DWORD PTR _this$[ebp]
  0004d	89 45 f4	 mov	 DWORD PTR _this$1[ebp], eax
; File C:\Program Files (x86)\Microsoft Visual Studio\2019\Community\VC\Tools\MSVC\14.28.29333\include\vector

; 375  :     _Vector_val() noexcept : _Myfirst(), _Mylast(), _Myend() {}

  00050	8b 45 f4	 mov	 eax, DWORD PTR _this$1[ebp]
  00053	83 20 00	 and	 DWORD PTR [eax], 0
  00056	8b 45 f4	 mov	 eax, DWORD PTR _this$1[ebp]
  00059	83 60 04 00	 and	 DWORD PTR [eax+4], 0
  0005d	8b 45 f4	 mov	 eax, DWORD PTR _this$1[ebp]
  00060	83 60 08 00	 and	 DWORD PTR [eax+8], 0
; File D:\Metin2 Server Files\mainline\SRC_2014\Metin2Client\eterLib\Pool.h

; 128  : 			m_uInitCapacity=0;

  00064	8b 45 fc	 mov	 eax, DWORD PTR _this$[ebp]
  00067	83 60 1c 00	 and	 DWORD PTR [eax+28], 0

; 129  : 			m_uUsedCapacity=0;

  0006b	8b 45 fc	 mov	 eax, DWORD PTR _this$[ebp]
  0006e	83 60 20 00	 and	 DWORD PTR [eax+32], 0

; 130  : 		}

  00072	8b 45 fc	 mov	 eax, DWORD PTR _this$[ebp]
  00075	c9		 leave
  00076	c3		 ret	 0
??0?$CDynamicPoolEx@VCRotationDecorator@NEffectUpdateDecorator@@@@QAE@XZ ENDP ; CDynamicPoolEx<NEffectUpdateDecorator::CRotationDecorator>::CDynamicPoolEx<NEffectUpdateDecorator::CRotationDecorator>
_TEXT	ENDS
; Function compile flags: /Odspy
; File D:\Metin2 Server Files\mainline\SRC_2014\Metin2Client\UserInterface\PythonApplicationModule.cpp
;	COMDAT ?appLogoClose@@YAPAU_object@@PAU1@0@Z
_TEXT	SEGMENT
_poSelf$ = 8						; size = 4
_poArgs$ = 12						; size = 4
?appLogoClose@@YAPAU_object@@PAU1@0@Z PROC		; appLogoClose, COMDAT

; 1190 : {

  00000	55		 push	 ebp
  00001	8b ec		 mov	 ebp, esp

; 1191 : 	//CPythonApplication::Instance().OnLogoClose();
; 1192 : 	return Py_BuildNone();

  00003	e8 00 00 00 00	 call	 ?Py_BuildNone@@YAPAU_object@@XZ ; Py_BuildNone

; 1193 : }

  00008	5d		 pop	 ebp
  00009	c3		 ret	 0
?appLogoClose@@YAPAU_object@@PAU1@0@Z ENDP		; appLogoClose
_TEXT	ENDS
; Function compile flags: /Odspy
; File D:\Metin2 Server Files\mainline\SRC_2014\Metin2Client\UserInterface\PythonApplicationModule.cpp
;	COMDAT ?appLogoRender@@YAPAU_object@@PAU1@0@Z
_TEXT	SEGMENT
_poSelf$ = 8						; size = 4
_poArgs$ = 12						; size = 4
?appLogoRender@@YAPAU_object@@PAU1@0@Z PROC		; appLogoRender, COMDAT

; 1184 : {

  00000	55		 push	 ebp
  00001	8b ec		 mov	 ebp, esp

; 1185 : 	//CPythonApplication::Instance().OnLogoRender();
; 1186 : 	return Py_BuildNone();

  00003	e8 00 00 00 00	 call	 ?Py_BuildNone@@YAPAU_object@@XZ ; Py_BuildNone

; 1187 : }

  00008	5d		 pop	 ebp
  00009	c3		 ret	 0
?appLogoRender@@YAPAU_object@@PAU1@0@Z ENDP		; appLogoRender
_TEXT	ENDS
; Function compile flags: /Odspy
; File D:\Metin2 Server Files\mainline\SRC_2014\Metin2Client\UserInterface\PythonApplicationModule.cpp
;	COMDAT ?appLogoUpdate@@YAPAU_object@@PAU1@0@Z
_TEXT	SEGMENT
_nIsRun$ = -4						; size = 4
_poSelf$ = 8						; size = 4
_poArgs$ = 12						; size = 4
?appLogoUpdate@@YAPAU_object@@PAU1@0@Z PROC		; appLogoUpdate, COMDAT

; 1178 : {

  00000	55		 push	 ebp
  00001	8b ec		 mov	 ebp, esp
  00003	51		 push	 ecx

; 1179 : 	int nIsRun = 0; //CPythonApplication::Instance().OnLogoUpdate();

  00004	83 65 fc 00	 and	 DWORD PTR _nIsRun$[ebp], 0

; 1180 : 	return Py_BuildValue("i", nIsRun);

  00008	ff 75 fc	 push	 DWORD PTR _nIsRun$[ebp]
  0000b	68 00 00 00 00	 push	 OFFSET ??_C@_01KBJDNOO@i@
  00010	ff 15 00 00 00
	00		 call	 DWORD PTR __imp__Py_BuildValue
  00016	59		 pop	 ecx
  00017	59		 pop	 ecx

; 1181 : }

  00018	c9		 leave
  00019	c3		 ret	 0
?appLogoUpdate@@YAPAU_object@@PAU1@0@Z ENDP		; appLogoUpdate
_TEXT	ENDS
; Function compile flags: /Odspy
; File D:\Metin2 Server Files\mainline\SRC_2014\Metin2Client\UserInterface\PythonApplicationModule.cpp
;	COMDAT ?appLogoOpen@@YAPAU_object@@PAU1@0@Z
_TEXT	SEGMENT
_nIsSuccess$ = -8					; size = 4
_szName$ = -4						; size = 4
_poSelf$ = 8						; size = 4
_poArgs$ = 12						; size = 4
?appLogoOpen@@YAPAU_object@@PAU1@0@Z PROC		; appLogoOpen, COMDAT

; 1166 : {

  00000	55		 push	 ebp
  00001	8b ec		 mov	 ebp, esp
  00003	51		 push	 ecx
  00004	51		 push	 ecx

; 1167 : 	char* szName;
; 1168 : 	if (!PyTuple_GetString(poArgs, 0, &szName))

  00005	8d 45 fc	 lea	 eax, DWORD PTR _szName$[ebp]
  00008	50		 push	 eax
  00009	6a 00		 push	 0
  0000b	ff 75 0c	 push	 DWORD PTR _poArgs$[ebp]
  0000e	e8 00 00 00 00	 call	 ?PyTuple_GetString@@YA_NPAU_object@@HPAPAD@Z ; PyTuple_GetString
  00013	83 c4 0c	 add	 esp, 12			; 0000000cH
  00016	0f b6 c0	 movzx	 eax, al
  00019	85 c0		 test	 eax, eax
  0001b	75 0a		 jne	 SHORT $LN2@appLogoOpe

; 1169 : 		return Py_BuildException();

  0001d	6a 00		 push	 0
  0001f	e8 00 00 00 00	 call	 ?Py_BuildException@@YAPAU_object@@PBDZZ ; Py_BuildException
  00024	59		 pop	 ecx
  00025	eb 25		 jmp	 SHORT $LN1@appLogoOpe
$LN2@appLogoOpe:

; 1170 : 
; 1171 : 	int nIsSuccess = 1; //CPythonApplication::Instance().OnLogoOpen(szName);

  00027	c7 45 f8 01 00
	00 00		 mov	 DWORD PTR _nIsSuccess$[ebp], 1

; 1172 : 	CMovieMan::Instance().PlayLogo(szName);

  0002e	ff 75 fc	 push	 DWORD PTR _szName$[ebp]
  00031	8b 0d 00 00 00
	00		 mov	 ecx, DWORD PTR ?ms_singleton@?$CSingleton@VCMovieMan@@@@0PAVCMovieMan@@A ; CSingleton<CMovieMan>::ms_singleton
  00037	e8 00 00 00 00	 call	 ?PlayLogo@CMovieMan@@QAEXPBD@Z ; CMovieMan::PlayLogo

; 1173 : 
; 1174 : 	return Py_BuildValue("i", nIsSuccess);

  0003c	ff 75 f8	 push	 DWORD PTR _nIsSuccess$[ebp]
  0003f	68 00 00 00 00	 push	 OFFSET ??_C@_01KBJDNOO@i@
  00044	ff 15 00 00 00
	00		 call	 DWORD PTR __imp__Py_BuildValue
  0004a	59		 pop	 ecx
  0004b	59		 pop	 ecx
$LN1@appLogoOpe:

; 1175 : }

  0004c	c9		 leave
  0004d	c3		 ret	 0
?appLogoOpen@@YAPAU_object@@PAU1@0@Z ENDP		; appLogoOpen
_TEXT	ENDS
; Function compile flags: /Odspy
; File D:\Metin2 Server Files\mainline\SRC_2014\Metin2Client\UserInterface\PythonApplicationModule.cpp
;	COMDAT ?appIsLiveStage@@YAPAU_object@@PAU1@0@Z
_TEXT	SEGMENT
_nIsLiveStage$ = -4					; size = 4
_poSelf$ = 8						; size = 4
_poArgs$ = 12						; size = 4
?appIsLiveStage@@YAPAU_object@@PAU1@0@Z PROC		; appIsLiveStage, COMDAT

; 1157 : {

  00000	55		 push	 ebp
  00001	8b ec		 mov	 ebp, esp
  00003	51		 push	 ecx

; 1158 : 	int nIsLiveStage = 0;

  00004	83 65 fc 00	 and	 DWORD PTR _nIsLiveStage$[ebp], 0

; 1159 : #if !defined(LOCALE_SERVICE_STAGE_TEST) && !defined(LOCALE_SERVICE_STAGE_DEVELOPMENT)
; 1160 : 	nIsLiveStage = 1;

  00008	c7 45 fc 01 00
	00 00		 mov	 DWORD PTR _nIsLiveStage$[ebp], 1

; 1161 : #endif
; 1162 : 	return Py_BuildValue("i", nIsLiveStage);

  0000f	ff 75 fc	 push	 DWORD PTR _nIsLiveStage$[ebp]
  00012	68 00 00 00 00	 push	 OFFSET ??_C@_01KBJDNOO@i@
  00017	ff 15 00 00 00
	00		 call	 DWORD PTR __imp__Py_BuildValue
  0001d	59		 pop	 ecx
  0001e	59		 pop	 ecx

; 1163 : }

  0001f	c9		 leave
  00020	c3		 ret	 0
?appIsLiveStage@@YAPAU_object@@PAU1@0@Z ENDP		; appIsLiveStage
_TEXT	ENDS
; Function compile flags: /Odspy
; File D:\Metin2 Server Files\mainline\SRC_2014\Metin2Client\UserInterface\PythonApplicationModule.cpp
;	COMDAT ?appIsTestStage@@YAPAU_object@@PAU1@0@Z
_TEXT	SEGMENT
_nIsTestStage$ = -4					; size = 4
_poSelf$ = 8						; size = 4
_poArgs$ = 12						; size = 4
?appIsTestStage@@YAPAU_object@@PAU1@0@Z PROC		; appIsTestStage, COMDAT

; 1148 : {

  00000	55		 push	 ebp
  00001	8b ec		 mov	 ebp, esp
  00003	51		 push	 ecx

; 1149 : 	int nIsTestStage = 0;

  00004	83 65 fc 00	 and	 DWORD PTR _nIsTestStage$[ebp], 0

; 1150 : #if defined(LOCALE_SERVICE_STAGE_TEST)
; 1151 : 	nIsTestStage = 1;
; 1152 : #endif
; 1153 : 	return Py_BuildValue("i", nIsTestStage);

  00008	ff 75 fc	 push	 DWORD PTR _nIsTestStage$[ebp]
  0000b	68 00 00 00 00	 push	 OFFSET ??_C@_01KBJDNOO@i@
  00010	ff 15 00 00 00
	00		 call	 DWORD PTR __imp__Py_BuildValue
  00016	59		 pop	 ecx
  00017	59		 pop	 ecx

; 1154 : }

  00018	c9		 leave
  00019	c3		 ret	 0
?appIsTestStage@@YAPAU_object@@PAU1@0@Z ENDP		; appIsTestStage
_TEXT	ENDS
; Function compile flags: /Odspy
; File D:\Metin2 Server Files\mainline\SRC_2014\Metin2Client\UserInterface\PythonApplicationModule.cpp
;	COMDAT ?appIsDevStage@@YAPAU_object@@PAU1@0@Z
_TEXT	SEGMENT
_nIsDevelopmentStage$ = -4				; size = 4
_poSelf$ = 8						; size = 4
_poArgs$ = 12						; size = 4
?appIsDevStage@@YAPAU_object@@PAU1@0@Z PROC		; appIsDevStage, COMDAT

; 1139 : {

  00000	55		 push	 ebp
  00001	8b ec		 mov	 ebp, esp
  00003	51		 push	 ecx

; 1140 : 	int nIsDevelopmentStage = 0;

  00004	83 65 fc 00	 and	 DWORD PTR _nIsDevelopmentStage$[ebp], 0

; 1141 : #if defined(LOCALE_SERVICE_STAGE_DEVELOPMENT)
; 1142 : 	nIsDevelopmentStage = 1;
; 1143 : #endif
; 1144 : 	return Py_BuildValue("i", nIsDevelopmentStage);

  00008	ff 75 fc	 push	 DWORD PTR _nIsDevelopmentStage$[ebp]
  0000b	68 00 00 00 00	 push	 OFFSET ??_C@_01KBJDNOO@i@
  00010	ff 15 00 00 00
	00		 call	 DWORD PTR __imp__Py_BuildValue
  00016	59		 pop	 ecx
  00017	59		 pop	 ecx

; 1145 : }

  00018	c9		 leave
  00019	c3		 ret	 0
?appIsDevStage@@YAPAU_object@@PAU1@0@Z ENDP		; appIsDevStage
_TEXT	ENDS
; Function compile flags: /Odspy
; File D:\Metin2 Server Files\mainline\SRC_2014\Metin2Client\UserInterface\PythonApplicationModule.cpp
; File C:\Program Files (x86)\Windows Kits\10\Include\10.0.18362.0\ucrt\string.h
; File D:\Metin2 Server Files\mainline\SRC_2014\Metin2Client\UserInterface\PythonApplicationModule.cpp
;	COMDAT ?appSetGuildMarkPath@@YAPAU_object@@PAU1@0@Z
_TEXT	SEGMENT
__String$ = -128					; size = 4
$T1 = -124						; size = 4
_extPos$2 = -120					; size = 4
_ext$ = -116						; size = 4
_path$ = -112						; size = 4
_newPath$ = -108					; size = 256
__$ArrayPad$ = 148					; size = 4
_poSelf$ = 160						; size = 4
_poArgs$ = 164						; size = 4
?appSetGuildMarkPath@@YAPAU_object@@PAU1@0@Z PROC	; appSetGuildMarkPath, COMDAT

; 1117 : {

  00000	55		 push	 ebp
  00001	8d ac 24 68 ff
	ff ff		 lea	 ebp, DWORD PTR [esp-152]
  00008	81 ec 18 01 00
	00		 sub	 esp, 280		; 00000118H
  0000e	a1 00 00 00 00	 mov	 eax, DWORD PTR ___security_cookie
  00013	33 c5		 xor	 eax, ebp
  00015	89 85 94 00 00
	00		 mov	 DWORD PTR __$ArrayPad$[ebp], eax

; 1118 : 	char * path;
; 1119 : 	if (!PyTuple_GetString(poArgs, 0, &path))

  0001b	8d 45 90	 lea	 eax, DWORD PTR _path$[ebp]
  0001e	50		 push	 eax
  0001f	6a 00		 push	 0
  00021	ff b5 a4 00 00
	00		 push	 DWORD PTR _poArgs$[ebp]
  00027	e8 00 00 00 00	 call	 ?PyTuple_GetString@@YA_NPAU_object@@HPAPAD@Z ; PyTuple_GetString
  0002c	83 c4 0c	 add	 esp, 12			; 0000000cH
  0002f	0f b6 c0	 movzx	 eax, al
  00032	85 c0		 test	 eax, eax
  00034	75 0d		 jne	 SHORT $LN2@appSetGuil

; 1120 : 		return Py_BuildException();

  00036	6a 00		 push	 0
  00038	e8 00 00 00 00	 call	 ?Py_BuildException@@YAPAU_object@@PBDZZ ; Py_BuildException
  0003d	59		 pop	 ecx
  0003e	e9 81 00 00 00	 jmp	 $LN5@appSetGuil
$LN2@appSetGuil:

; 1123 :     char * ext = strstr(path, ".tga");

  00043	8b 45 90	 mov	 eax, DWORD PTR _path$[ebp]
  00046	89 45 80	 mov	 DWORD PTR __String$[ebp], eax
; File C:\Program Files (x86)\Windows Kits\10\Include\10.0.18362.0\ucrt\string.h

; 524  :         return const_cast<char*>(strstr(static_cast<char const*>(_String), _SubString));

  00049	68 00 00 00 00	 push	 OFFSET ??_C@_04JCAPCJAP@?4tga@
  0004e	ff 75 80	 push	 DWORD PTR __String$[ebp]
  00051	e8 00 00 00 00	 call	 _strstr
  00056	59		 pop	 ecx
  00057	59		 pop	 ecx
; File D:\Metin2 Server Files\mainline\SRC_2014\Metin2Client\UserInterface\PythonApplicationModule.cpp

; 1123 :     char * ext = strstr(path, ".tga");

  00058	89 45 8c	 mov	 DWORD PTR _ext$[ebp], eax

; 1124 : 
; 1125 :     if (ext)

  0005b	83 7d 8c 00	 cmp	 DWORD PTR _ext$[ebp], 0
  0005f	74 3b		 je	 SHORT $LN3@appSetGuil

; 1126 :     {
; 1127 : 		int extPos = ext - path;

  00061	8b 45 8c	 mov	 eax, DWORD PTR _ext$[ebp]
  00064	2b 45 90	 sub	 eax, DWORD PTR _path$[ebp]
  00067	89 45 88	 mov	 DWORD PTR _extPos$2[ebp], eax

; 1128 :         strncpy(newPath, path, extPos);

  0006a	ff 75 88	 push	 DWORD PTR _extPos$2[ebp]
  0006d	ff 75 90	 push	 DWORD PTR _path$[ebp]
  00070	8d 45 94	 lea	 eax, DWORD PTR _newPath$[ebp]
  00073	50		 push	 eax
  00074	e8 00 00 00 00	 call	 _strncpy
  00079	83 c4 0c	 add	 esp, 12			; 0000000cH

; 1129 :         newPath[extPos] = '\0';

  0007c	8b 45 88	 mov	 eax, DWORD PTR _extPos$2[ebp]
  0007f	89 45 84	 mov	 DWORD PTR $T1[ebp], eax
  00082	81 7d 84 00 01
	00 00		 cmp	 DWORD PTR $T1[ebp], 256	; 00000100H
  00089	73 02		 jae	 SHORT $LN6@appSetGuil
  0008b	eb 05		 jmp	 SHORT $LN7@appSetGuil
$LN6@appSetGuil:
  0008d	e8 00 00 00 00	 call	 ___report_rangecheckfailure
$LN7@appSetGuil:
  00092	8b 45 84	 mov	 eax, DWORD PTR $T1[ebp]
  00095	c6 44 05 94 00	 mov	 BYTE PTR _newPath$[ebp+eax], 0

; 1130 :     }

  0009a	eb 14		 jmp	 SHORT $LN10@appSetGuil
$LN3@appSetGuil:

; 1131 :     else
; 1132 :         strncpy(newPath, path, sizeof(newPath)-1);

  0009c	68 ff 00 00 00	 push	 255			; 000000ffH
  000a1	ff 75 90	 push	 DWORD PTR _path$[ebp]
  000a4	8d 45 94	 lea	 eax, DWORD PTR _newPath$[ebp]
  000a7	50		 push	 eax
  000a8	e8 00 00 00 00	 call	 _strncpy
  000ad	83 c4 0c	 add	 esp, 12			; 0000000cH
$LN10@appSetGuil:

; 1133 : 	
; 1134 : 	CGuildMarkManager::Instance().SetMarkPathPrefix(newPath);

  000b0	8d 45 94	 lea	 eax, DWORD PTR _newPath$[ebp]
  000b3	50		 push	 eax
  000b4	8b 0d 00 00 00
	00		 mov	 ecx, DWORD PTR ?ms_singleton@?$singleton@VCGuildMarkManager@@@@0PAVCGuildMarkManager@@A ; singleton<CGuildMarkManager>::ms_singleton
  000ba	e8 00 00 00 00	 call	 ?SetMarkPathPrefix@CGuildMarkManager@@QAEXPBD@Z ; CGuildMarkManager::SetMarkPathPrefix

; 1135 : 	return Py_BuildNone();

  000bf	e8 00 00 00 00	 call	 ?Py_BuildNone@@YAPAU_object@@XZ ; Py_BuildNone
$LN5@appSetGuil:

; 1136 : }

  000c4	8b 8d 94 00 00
	00		 mov	 ecx, DWORD PTR __$ArrayPad$[ebp]
  000ca	33 cd		 xor	 ecx, ebp
  000cc	e8 00 00 00 00	 call	 @__security_check_cookie@4
  000d1	81 c5 98 00 00
	00		 add	 ebp, 152		; 00000098H
  000d7	c9		 leave
  000d8	c3		 ret	 0
?appSetGuildMarkPath@@YAPAU_object@@PAU1@0@Z ENDP	; appSetGuildMarkPath
_TEXT	ENDS
; Function compile flags: /Odspy
; File D:\Metin2 Server Files\mainline\SRC_2014\Metin2Client\UserInterface\PythonApplicationModule.cpp
;	COMDAT ?appGetTextFileLine@@YAPAU_object@@PAU1@0@Z
_TEXT	SEGMENT
_pTextFileLoader$ = -12					; size = 4
_iLineIndex$ = -8					; size = 4
_iHandle$ = -4						; size = 4
_poSelf$ = 8						; size = 4
_poArgs$ = 12						; size = 4
?appGetTextFileLine@@YAPAU_object@@PAU1@0@Z PROC	; appGetTextFileLine, COMDAT

; 1104 : {

  00000	55		 push	 ebp
  00001	8b ec		 mov	 ebp, esp
  00003	83 ec 0c	 sub	 esp, 12			; 0000000cH

; 1105 : 	int iHandle;
; 1106 : 	if (!PyTuple_GetInteger(poArgs, 0, &iHandle))

  00006	8d 45 fc	 lea	 eax, DWORD PTR _iHandle$[ebp]
  00009	50		 push	 eax
  0000a	6a 00		 push	 0
  0000c	ff 75 0c	 push	 DWORD PTR _poArgs$[ebp]
  0000f	e8 00 00 00 00	 call	 ?PyTuple_GetInteger@@YA_NPAU_object@@HPAH@Z ; PyTuple_GetInteger
  00014	83 c4 0c	 add	 esp, 12			; 0000000cH
  00017	0f b6 c0	 movzx	 eax, al
  0001a	85 c0		 test	 eax, eax
  0001c	75 0a		 jne	 SHORT $LN2@appGetText

; 1107 : 		return Py_BuildException();

  0001e	6a 00		 push	 0
  00020	e8 00 00 00 00	 call	 ?Py_BuildException@@YAPAU_object@@PBDZZ ; Py_BuildException
  00025	59		 pop	 ecx
  00026	eb 41		 jmp	 SHORT $LN1@appGetText
$LN2@appGetText:

; 1108 : 	int iLineIndex;
; 1109 : 	if (!PyTuple_GetInteger(poArgs, 1, &iLineIndex))

  00028	8d 45 f8	 lea	 eax, DWORD PTR _iLineIndex$[ebp]
  0002b	50		 push	 eax
  0002c	6a 01		 push	 1
  0002e	ff 75 0c	 push	 DWORD PTR _poArgs$[ebp]
  00031	e8 00 00 00 00	 call	 ?PyTuple_GetInteger@@YA_NPAU_object@@HPAH@Z ; PyTuple_GetInteger
  00036	83 c4 0c	 add	 esp, 12			; 0000000cH
  00039	0f b6 c0	 movzx	 eax, al
  0003c	85 c0		 test	 eax, eax
  0003e	75 0a		 jne	 SHORT $LN3@appGetText

; 1110 : 		return Py_BuildException();

  00040	6a 00		 push	 0
  00042	e8 00 00 00 00	 call	 ?Py_BuildException@@YAPAU_object@@PBDZZ ; Py_BuildException
  00047	59		 pop	 ecx
  00048	eb 1f		 jmp	 SHORT $LN1@appGetText
$LN3@appGetText:

; 1111 : 
; 1112 : 	CTextLineLoader * pTextFileLoader = (CTextLineLoader *)iHandle;

  0004a	8b 45 fc	 mov	 eax, DWORD PTR _iHandle$[ebp]
  0004d	89 45 f4	 mov	 DWORD PTR _pTextFileLoader$[ebp], eax

; 1113 : 	return Py_BuildValue("s", pTextFileLoader->GetLine(iLineIndex));

  00050	ff 75 f8	 push	 DWORD PTR _iLineIndex$[ebp]
  00053	8b 4d f4	 mov	 ecx, DWORD PTR _pTextFileLoader$[ebp]
  00056	e8 00 00 00 00	 call	 ?GetLine@CTextLineLoader@@QAEPBDK@Z ; CTextLineLoader::GetLine
  0005b	50		 push	 eax
  0005c	68 00 00 00 00	 push	 OFFSET ??_C@_01LKDEMHDF@s@
  00061	ff 15 00 00 00
	00		 call	 DWORD PTR __imp__Py_BuildValue
  00067	59		 pop	 ecx
  00068	59		 pop	 ecx
$LN1@appGetText:

; 1114 : }

  00069	c9		 leave
  0006a	c3		 ret	 0
?appGetTextFileLine@@YAPAU_object@@PAU1@0@Z ENDP	; appGetTextFileLine
_TEXT	ENDS
; Function compile flags: /Odspy
; File D:\Metin2 Server Files\mainline\SRC_2014\Metin2Client\UserInterface\PythonApplicationModule.cpp
;	COMDAT ?appGetTextFileLineCount@@YAPAU_object@@PAU1@0@Z
_TEXT	SEGMENT
$T1 = -12						; size = 4
_pTextFileLoader$ = -8					; size = 4
_iHandle$ = -4						; size = 4
_poSelf$ = 8						; size = 4
_poArgs$ = 12						; size = 4
?appGetTextFileLineCount@@YAPAU_object@@PAU1@0@Z PROC	; appGetTextFileLineCount, COMDAT

; 1094 : {

  00000	55		 push	 ebp
  00001	8b ec		 mov	 ebp, esp
  00003	83 ec 0c	 sub	 esp, 12			; 0000000cH

; 1095 : 	int iHandle;
; 1096 : 	if (!PyTuple_GetInteger(poArgs, 0, &iHandle))

  00006	8d 45 fc	 lea	 eax, DWORD PTR _iHandle$[ebp]
  00009	50		 push	 eax
  0000a	6a 00		 push	 0
  0000c	ff 75 0c	 push	 DWORD PTR _poArgs$[ebp]
  0000f	e8 00 00 00 00	 call	 ?PyTuple_GetInteger@@YA_NPAU_object@@HPAH@Z ; PyTuple_GetInteger
  00014	83 c4 0c	 add	 esp, 12			; 0000000cH
  00017	0f b6 c0	 movzx	 eax, al
  0001a	85 c0		 test	 eax, eax
  0001c	75 0a		 jne	 SHORT $LN2@appGetText

; 1097 : 		return Py_BuildException();

  0001e	6a 00		 push	 0
  00020	e8 00 00 00 00	 call	 ?Py_BuildException@@YAPAU_object@@PBDZZ ; Py_BuildException
  00025	59		 pop	 ecx
  00026	eb 21		 jmp	 SHORT $LN1@appGetText
$LN2@appGetText:

; 1098 : 
; 1099 : 	CTextLineLoader * pTextFileLoader = (CTextLineLoader *)iHandle;

  00028	8b 45 fc	 mov	 eax, DWORD PTR _iHandle$[ebp]
  0002b	89 45 f8	 mov	 DWORD PTR _pTextFileLoader$[ebp], eax

; 1055 : 			return m_kTextFileLoader.GetLineCount();

  0002e	8b 4d f8	 mov	 ecx, DWORD PTR _pTextFileLoader$[ebp]
  00031	e8 00 00 00 00	 call	 ?GetLineCount@CMemoryTextFileLoader@@QAEKXZ ; CMemoryTextFileLoader::GetLineCount
  00036	89 45 f4	 mov	 DWORD PTR $T1[ebp], eax

; 1100 : 	return Py_BuildValue("i", pTextFileLoader->GetLineCount());

  00039	ff 75 f4	 push	 DWORD PTR $T1[ebp]
  0003c	68 00 00 00 00	 push	 OFFSET ??_C@_01KBJDNOO@i@
  00041	ff 15 00 00 00
	00		 call	 DWORD PTR __imp__Py_BuildValue
  00047	59		 pop	 ecx
  00048	59		 pop	 ecx
$LN1@appGetText:

; 1101 : }

  00049	c9		 leave
  0004a	c3		 ret	 0
?appGetTextFileLineCount@@YAPAU_object@@PAU1@0@Z ENDP	; appGetTextFileLineCount
_TEXT	ENDS
; Function compile flags: /Odspy
; File D:\Metin2 Server Files\mainline\SRC_2014\Metin2Client\UserInterface\PythonApplicationModule.cpp
;	COMDAT ?appCloseTextFile@@YAPAU_object@@PAU1@0@Z
_TEXT	SEGMENT
$T1 = -20						; size = 4
_pTextFileLoader$ = -16					; size = 4
_iHandle$ = -12						; size = 4
tv76 = -8						; size = 4
$T2 = -4						; size = 4
_poSelf$ = 8						; size = 4
_poArgs$ = 12						; size = 4
?appCloseTextFile@@YAPAU_object@@PAU1@0@Z PROC		; appCloseTextFile, COMDAT

; 1082 : {

  00000	55		 push	 ebp
  00001	8b ec		 mov	 ebp, esp
  00003	83 ec 14	 sub	 esp, 20			; 00000014H

; 1083 : 	int iHandle;
; 1084 : 	if (!PyTuple_GetInteger(poArgs, 0, &iHandle))

  00006	8d 45 f4	 lea	 eax, DWORD PTR _iHandle$[ebp]
  00009	50		 push	 eax
  0000a	6a 00		 push	 0
  0000c	ff 75 0c	 push	 DWORD PTR _poArgs$[ebp]
  0000f	e8 00 00 00 00	 call	 ?PyTuple_GetInteger@@YA_NPAU_object@@HPAH@Z ; PyTuple_GetInteger
  00014	83 c4 0c	 add	 esp, 12			; 0000000cH
  00017	0f b6 c0	 movzx	 eax, al
  0001a	85 c0		 test	 eax, eax
  0001c	75 0a		 jne	 SHORT $LN2@appCloseTe

; 1085 : 		return Py_BuildException();

  0001e	6a 00		 push	 0
  00020	e8 00 00 00 00	 call	 ?Py_BuildException@@YAPAU_object@@PBDZZ ; Py_BuildException
  00025	59		 pop	 ecx
  00026	eb 45		 jmp	 SHORT $LN1@appCloseTe
$LN2@appCloseTe:

; 1086 : 
; 1087 : 	CTextLineLoader * pTextFileLoader = (CTextLineLoader *)iHandle;

  00028	8b 45 f4	 mov	 eax, DWORD PTR _iHandle$[ebp]
  0002b	89 45 f0	 mov	 DWORD PTR _pTextFileLoader$[ebp], eax

; 1088 : 	delete pTextFileLoader;

  0002e	8b 45 f0	 mov	 eax, DWORD PTR _pTextFileLoader$[ebp]
  00031	89 45 fc	 mov	 DWORD PTR $T2[ebp], eax
  00034	83 7d fc 00	 cmp	 DWORD PTR $T2[ebp], 0
  00038	74 2a		 je	 SHORT $LN4@appCloseTe
  0003a	8b 45 ec	 mov	 eax, DWORD PTR $T1[ebp]
  0003d	89 45 f8	 mov	 DWORD PTR tv76[ebp], eax
  00040	8b 4d fc	 mov	 ecx, DWORD PTR $T2[ebp]
  00043	e8 00 00 00 00	 call	 ??1CMemoryTextFileLoader@@UAE@XZ ; CMemoryTextFileLoader::~CMemoryTextFileLoader
  00048	33 c0		 xor	 eax, eax
  0004a	40		 inc	 eax
  0004b	83 e0 01	 and	 eax, 1
  0004e	74 0c		 je	 SHORT $LN7@appCloseTe
  00050	6a 10		 push	 16			; 00000010H
  00052	ff 75 fc	 push	 DWORD PTR $T2[ebp]
  00055	e8 00 00 00 00	 call	 ??3@YAXPAXI@Z		; operator delete
  0005a	59		 pop	 ecx
  0005b	59		 pop	 ecx
$LN7@appCloseTe:
  0005c	8b 45 fc	 mov	 eax, DWORD PTR $T2[ebp]
  0005f	89 45 f8	 mov	 DWORD PTR tv76[ebp], eax
  00062	eb 04		 jmp	 SHORT $LN5@appCloseTe
$LN4@appCloseTe:
  00064	83 65 f8 00	 and	 DWORD PTR tv76[ebp], 0
$LN5@appCloseTe:

; 1089 : 
; 1090 : 	return Py_BuildNone();

  00068	e8 00 00 00 00	 call	 ?Py_BuildNone@@YAPAU_object@@XZ ; Py_BuildNone
$LN1@appCloseTe:

; 1091 : }

  0006d	c9		 leave
  0006e	c3		 ret	 0
?appCloseTextFile@@YAPAU_object@@PAU1@0@Z ENDP		; appCloseTextFile
_TEXT	ENDS
; Function compile flags: /Odspy
; File D:\Metin2 Server Files\mainline\SRC_2014\Metin2Client\UserInterface\PythonApplicationModule.cpp
;	COMDAT ?appOpenTextFile@@YAPAU_object@@PAU1@0@Z
_TEXT	SEGMENT
_pTextLineLoader$ = -32					; size = 4
$T2 = -28						; size = 4
_szFileName$ = -24					; size = 4
tv84 = -20						; size = 4
$T3 = -16						; size = 4
__$EHRec$ = -12						; size = 12
_poSelf$ = 8						; size = 4
_poArgs$ = 12						; size = 4
?appOpenTextFile@@YAPAU_object@@PAU1@0@Z PROC		; appOpenTextFile, COMDAT

; 1071 : {

  00000	55		 push	 ebp
  00001	8b ec		 mov	 ebp, esp
  00003	6a ff		 push	 -1
  00005	68 00 00 00 00	 push	 __ehhandler$?appOpenTextFile@@YAPAU_object@@PAU1@0@Z
  0000a	64 a1 00 00 00
	00		 mov	 eax, DWORD PTR fs:0
  00010	50		 push	 eax
  00011	83 ec 14	 sub	 esp, 20			; 00000014H
  00014	a1 00 00 00 00	 mov	 eax, DWORD PTR ___security_cookie
  00019	33 c5		 xor	 eax, ebp
  0001b	50		 push	 eax
  0001c	8d 45 f4	 lea	 eax, DWORD PTR __$EHRec$[ebp]
  0001f	64 a3 00 00 00
	00		 mov	 DWORD PTR fs:0, eax

; 1072 : 	char * szFileName;
; 1073 : 	if (!PyTuple_GetString(poArgs, 0, &szFileName))

  00025	8d 45 e8	 lea	 eax, DWORD PTR _szFileName$[ebp]
  00028	50		 push	 eax
  00029	6a 00		 push	 0
  0002b	ff 75 0c	 push	 DWORD PTR _poArgs$[ebp]
  0002e	e8 00 00 00 00	 call	 ?PyTuple_GetString@@YA_NPAU_object@@HPAPAD@Z ; PyTuple_GetString
  00033	83 c4 0c	 add	 esp, 12			; 0000000cH
  00036	0f b6 c0	 movzx	 eax, al
  00039	85 c0		 test	 eax, eax
  0003b	75 0a		 jne	 SHORT $LN2@appOpenTex

; 1074 : 		return Py_BuildException();

  0003d	6a 00		 push	 0
  0003f	e8 00 00 00 00	 call	 ?Py_BuildException@@YAPAU_object@@PBDZZ ; Py_BuildException
  00044	59		 pop	 ecx
  00045	eb 49		 jmp	 SHORT $LN1@appOpenTex
$LN2@appOpenTex:

; 1075 : 
; 1076 : 	CTextLineLoader * pTextLineLoader = new CTextLineLoader(szFileName);

  00047	6a 10		 push	 16			; 00000010H
  00049	e8 00 00 00 00	 call	 ??2@YAPAXI@Z		; operator new
  0004e	59		 pop	 ecx
  0004f	89 45 f0	 mov	 DWORD PTR $T3[ebp], eax
  00052	83 65 fc 00	 and	 DWORD PTR __$EHRec$[ebp+8], 0
  00056	83 7d f0 00	 cmp	 DWORD PTR $T3[ebp], 0
  0005a	74 10		 je	 SHORT $LN4@appOpenTex
  0005c	ff 75 e8	 push	 DWORD PTR _szFileName$[ebp]
  0005f	8b 4d f0	 mov	 ecx, DWORD PTR $T3[ebp]
  00062	e8 00 00 00 00	 call	 ??0CTextLineLoader@@QAE@PBD@Z ; CTextLineLoader::CTextLineLoader
  00067	89 45 ec	 mov	 DWORD PTR tv84[ebp], eax
  0006a	eb 04		 jmp	 SHORT $LN5@appOpenTex
$LN4@appOpenTex:
  0006c	83 65 ec 00	 and	 DWORD PTR tv84[ebp], 0
$LN5@appOpenTex:
  00070	8b 45 ec	 mov	 eax, DWORD PTR tv84[ebp]
  00073	89 45 e4	 mov	 DWORD PTR $T2[ebp], eax
  00076	83 4d fc ff	 or	 DWORD PTR __$EHRec$[ebp+8], -1
  0007a	8b 45 e4	 mov	 eax, DWORD PTR $T2[ebp]
  0007d	89 45 e0	 mov	 DWORD PTR _pTextLineLoader$[ebp], eax

; 1077 : 
; 1078 : 	return Py_BuildValue("i", (int)pTextLineLoader);

  00080	ff 75 e0	 push	 DWORD PTR _pTextLineLoader$[ebp]
  00083	68 00 00 00 00	 push	 OFFSET ??_C@_01KBJDNOO@i@
  00088	ff 15 00 00 00
	00		 call	 DWORD PTR __imp__Py_BuildValue
  0008e	59		 pop	 ecx
  0008f	59		 pop	 ecx
$LN1@appOpenTex:

; 1079 : }

  00090	8b 4d f4	 mov	 ecx, DWORD PTR __$EHRec$[ebp]
  00093	64 89 0d 00 00
	00 00		 mov	 DWORD PTR fs:0, ecx
  0009a	59		 pop	 ecx
  0009b	c9		 leave
  0009c	c3		 ret	 0
_TEXT	ENDS
;	COMDAT text$x
text$x	SEGMENT
__unwindfunclet$?appOpenTextFile@@YAPAU_object@@PAU1@0@Z$0:
  00000	6a 10		 push	 16			; 00000010H
  00002	ff 75 f0	 push	 DWORD PTR $T3[ebp]
  00005	e8 00 00 00 00	 call	 ??3@YAXPAXI@Z		; operator delete
  0000a	59		 pop	 ecx
  0000b	59		 pop	 ecx
  0000c	c3		 ret	 0
  0000d	cc		 int	 3
  0000e	cc		 int	 3
  0000f	cc		 int	 3
  00010	cc		 int	 3
  00011	cc		 int	 3
__ehhandler$?appOpenTextFile@@YAPAU_object@@PAU1@0@Z:
  00012	90		 npad	 1
  00013	90		 npad	 1
  00014	8b 54 24 08	 mov	 edx, DWORD PTR [esp+8]
  00018	8d 42 0c	 lea	 eax, DWORD PTR [edx+12]
  0001b	8b 4a e8	 mov	 ecx, DWORD PTR [edx-24]
  0001e	33 c8		 xor	 ecx, eax
  00020	e8 00 00 00 00	 call	 @__security_check_cookie@4
  00025	b8 00 00 00 00	 mov	 eax, OFFSET __ehfuncinfo$?appOpenTextFile@@YAPAU_object@@PAU1@0@Z
  0002a	e9 00 00 00 00	 jmp	 ___CxxFrameHandler3
text$x	ENDS
?appOpenTextFile@@YAPAU_object@@PAU1@0@Z ENDP		; appOpenTextFile
; Function compile flags: /Odspy
; File D:\Metin2 Server Files\mainline\SRC_2014\Metin2Client\UserInterface\PythonApplicationModule.cpp
; File C:\Program Files (x86)\Microsoft Visual Studio\2019\Community\VC\Tools\MSVC\14.28.29333\include\xstring
; File D:\Metin2 Server Files\mainline\SRC_2014\Metin2Client\UserInterface\PythonApplicationModule.cpp
;	COMDAT ?GetLine@CTextLineLoader@@QAEPBDK@Z
_TEXT	SEGMENT
$T1 = -12						; size = 4
_this$ = -8						; size = 4
_this$ = -4						; size = 4
_dwIndex$ = 8						; size = 4
?GetLine@CTextLineLoader@@QAEPBDK@Z PROC		; CTextLineLoader::GetLine, COMDAT
; _this$ = ecx

; 1059 : 		{

  00000	55		 push	 ebp
  00001	8b ec		 mov	 ebp, esp
  00003	83 ec 0c	 sub	 esp, 12			; 0000000cH
  00006	89 4d fc	 mov	 DWORD PTR _this$[ebp], ecx

; 1055 : 			return m_kTextFileLoader.GetLineCount();

  00009	8b 4d fc	 mov	 ecx, DWORD PTR _this$[ebp]
  0000c	e8 00 00 00 00	 call	 ?GetLineCount@CMemoryTextFileLoader@@QAEKXZ ; CMemoryTextFileLoader::GetLineCount

; 1060 : 			if (dwIndex >= GetLineCount())

  00011	39 45 08	 cmp	 DWORD PTR _dwIndex$[ebp], eax
  00014	72 07		 jb	 SHORT $LN2@GetLine

; 1061 : 				return "";

  00016	b8 00 00 00 00	 mov	 eax, OFFSET ??_C@_00CNPNBAHC@@
  0001b	eb 1c		 jmp	 SHORT $LN1@GetLine
$LN2@GetLine:

; 1063 : 			return m_kTextFileLoader.GetLineString(dwIndex).c_str();

  0001d	ff 75 08	 push	 DWORD PTR _dwIndex$[ebp]
  00020	8b 4d fc	 mov	 ecx, DWORD PTR _this$[ebp]
  00023	e8 00 00 00 00	 call	 ?GetLineString@CMemoryTextFileLoader@@QAEABV?$basic_string@DU?$char_traits@D@std@@V?$allocator@D@2@@std@@K@Z ; CMemoryTextFileLoader::GetLineString
  00028	89 45 f8	 mov	 DWORD PTR _this$[ebp], eax
; File C:\Program Files (x86)\Microsoft Visual Studio\2019\Community\VC\Tools\MSVC\14.28.29333\include\xstring

; 3752 :         return _Mypair._Myval2._Myptr();

  0002b	8b 4d f8	 mov	 ecx, DWORD PTR _this$[ebp]
  0002e	e8 00 00 00 00	 call	 ?_Myptr@?$_String_val@U?$_Simple_types@D@std@@@std@@QBEPBDXZ ; std::_String_val<std::_Simple_types<char> >::_Myptr
  00033	89 45 f4	 mov	 DWORD PTR $T1[ebp], eax
; File D:\Metin2 Server Files\mainline\SRC_2014\Metin2Client\UserInterface\PythonApplicationModule.cpp

; 1063 : 			return m_kTextFileLoader.GetLineString(dwIndex).c_str();

  00036	8b 45 f4	 mov	 eax, DWORD PTR $T1[ebp]
$LN1@GetLine:

; 1064 : 		}

  00039	c9		 leave
  0003a	c2 04 00	 ret	 4
?GetLine@CTextLineLoader@@QAEPBDK@Z ENDP		; CTextLineLoader::GetLine
_TEXT	ENDS
; Function compile flags: /Odspy
; File D:\Metin2 Server Files\mainline\SRC_2014\Metin2Client\UserInterface\PythonApplicationModule.cpp
; File D:\Metin2 Server Files\mainline\SRC_2014\Metin2Client\eterBase\Singleton.h
; File D:\Metin2 Server Files\mainline\SRC_2014\Metin2Client\UserInterface\PythonApplicationModule.cpp
;	COMDAT ??0CTextLineLoader@@QAE@PBD@Z
_TEXT	SEGMENT
_pvData$ = -24						; size = 4
$T2 = -20						; size = 4
_this$ = -16						; size = 4
__$EHRec$ = -12						; size = 12
_kFile$ = 0						; size = 324
__$ArrayPad$ = 324					; size = 4
_c_szFileName$ = 336					; size = 4
??0CTextLineLoader@@QAE@PBD@Z PROC			; CTextLineLoader::CTextLineLoader, COMDAT
; _this$ = ecx

; 1043 : 		CTextLineLoader(const char * c_szFileName)

  00000	55		 push	 ebp
  00001	8d ac 24 b8 fe
	ff ff		 lea	 ebp, DWORD PTR [esp-328]
  00008	81 ec 48 01 00
	00		 sub	 esp, 328		; 00000148H
  0000e	6a ff		 push	 -1
  00010	68 00 00 00 00	 push	 __ehhandler$??0CTextLineLoader@@QAE@PBD@Z
  00015	64 a1 00 00 00
	00		 mov	 eax, DWORD PTR fs:0
  0001b	50		 push	 eax
  0001c	83 ec 0c	 sub	 esp, 12			; 0000000cH
  0001f	a1 00 00 00 00	 mov	 eax, DWORD PTR ___security_cookie
  00024	33 c5		 xor	 eax, ebp
  00026	89 85 44 01 00
	00		 mov	 DWORD PTR __$ArrayPad$[ebp], eax
  0002c	50		 push	 eax
  0002d	8d 45 f4	 lea	 eax, DWORD PTR __$EHRec$[ebp]
  00030	64 a3 00 00 00
	00		 mov	 DWORD PTR fs:0, eax
  00036	89 4d f0	 mov	 DWORD PTR _this$[ebp], ecx
  00039	8b 4d f0	 mov	 ecx, DWORD PTR _this$[ebp]
  0003c	e8 00 00 00 00	 call	 ??0CMemoryTextFileLoader@@QAE@XZ ; CMemoryTextFileLoader::CMemoryTextFileLoader
  00041	83 65 fc 00	 and	 DWORD PTR __$EHRec$[ebp+8], 0

; 1044 : 		{
; 1045 : 			const VOID* pvData;
; 1046 : 			CMappedFile kFile;

  00045	8d 4d 00	 lea	 ecx, DWORD PTR _kFile$[ebp]
  00048	e8 00 00 00 00	 call	 ??0CMappedFile@@QAE@XZ	; CMappedFile::CMappedFile
  0004d	c6 45 fc 01	 mov	 BYTE PTR __$EHRec$[ebp+8], 1
; File D:\Metin2 Server Files\mainline\SRC_2014\Metin2Client\eterBase\Singleton.h

; 27   : 		return (*ms_singleton);

  00051	a1 00 00 00 00	 mov	 eax, DWORD PTR ?ms_singleton@?$CSingleton@VCEterPackManager@@@@0PAVCEterPackManager@@A ; CSingleton<CEterPackManager>::ms_singleton
  00056	89 45 ec	 mov	 DWORD PTR $T2[ebp], eax
; File D:\Metin2 Server Files\mainline\SRC_2014\Metin2Client\UserInterface\PythonApplicationModule.cpp

; 1047 : 			if (!CEterPackManager::Instance().Get(kFile, c_szFileName, &pvData))

  00059	8d 45 e8	 lea	 eax, DWORD PTR _pvData$[ebp]
  0005c	50		 push	 eax
  0005d	ff b5 50 01 00
	00		 push	 DWORD PTR _c_szFileName$[ebp]
  00063	8d 45 00	 lea	 eax, DWORD PTR _kFile$[ebp]
  00066	50		 push	 eax
  00067	8b 4d ec	 mov	 ecx, DWORD PTR $T2[ebp]
  0006a	e8 00 00 00 00	 call	 ?Get@CEterPackManager@@QAE_NAAVCMappedFile@@PBDPAPBX@Z ; CEterPackManager::Get
  0006f	0f b6 c0	 movzx	 eax, al
  00072	85 c0		 test	 eax, eax
  00074	75 0e		 jne	 SHORT $LN2@CTextLineL

; 1048 : 				return;

  00076	c6 45 fc 00	 mov	 BYTE PTR __$EHRec$[ebp+8], 0
  0007a	8d 4d 00	 lea	 ecx, DWORD PTR _kFile$[ebp]
  0007d	e8 00 00 00 00	 call	 ??1CMappedFile@@UAE@XZ	; CMappedFile::~CMappedFile
  00082	eb 20		 jmp	 SHORT $LN1@CTextLineL
$LN2@CTextLineL:

; 1049 : 
; 1050 : 			m_kTextFileLoader.Bind(kFile.Size(), pvData);

  00084	ff 75 e8	 push	 DWORD PTR _pvData$[ebp]
  00087	8d 4d 00	 lea	 ecx, DWORD PTR _kFile$[ebp]
  0008a	e8 00 00 00 00	 call	 ?Size@CMappedFile@@QAEKXZ ; CMappedFile::Size
  0008f	50		 push	 eax
  00090	8b 4d f0	 mov	 ecx, DWORD PTR _this$[ebp]
  00093	e8 00 00 00 00	 call	 ?Bind@CMemoryTextFileLoader@@QAEXHPBX@Z ; CMemoryTextFileLoader::Bind

; 1051 : 		}

  00098	c6 45 fc 00	 mov	 BYTE PTR __$EHRec$[ebp+8], 0
  0009c	8d 4d 00	 lea	 ecx, DWORD PTR _kFile$[ebp]
  0009f	e8 00 00 00 00	 call	 ??1CMappedFile@@UAE@XZ	; CMappedFile::~CMappedFile
$LN1@CTextLineL:
  000a4	83 4d fc ff	 or	 DWORD PTR __$EHRec$[ebp+8], -1
  000a8	8b 45 f0	 mov	 eax, DWORD PTR _this$[ebp]
  000ab	8b 4d f4	 mov	 ecx, DWORD PTR __$EHRec$[ebp]
  000ae	64 89 0d 00 00
	00 00		 mov	 DWORD PTR fs:0, ecx
  000b5	59		 pop	 ecx
  000b6	8b 8d 44 01 00
	00		 mov	 ecx, DWORD PTR __$ArrayPad$[ebp]
  000bc	33 cd		 xor	 ecx, ebp
  000be	e8 00 00 00 00	 call	 @__security_check_cookie@4
  000c3	81 c5 48 01 00
	00		 add	 ebp, 328		; 00000148H
  000c9	c9		 leave
  000ca	c2 04 00	 ret	 4
_TEXT	ENDS
;	COMDAT text$x
text$x	SEGMENT
__unwindfunclet$??0CTextLineLoader@@QAE@PBD@Z$0:
  00000	8b 4d f0	 mov	 ecx, DWORD PTR _this$[ebp]
  00003	e9 00 00 00 00	 jmp	 ??1CMemoryTextFileLoader@@UAE@XZ ; CMemoryTextFileLoader::~CMemoryTextFileLoader
__unwindfunclet$??0CTextLineLoader@@QAE@PBD@Z$1:
  00008	8d 4d 00	 lea	 ecx, DWORD PTR _kFile$[ebp]
  0000b	e9 00 00 00 00	 jmp	 ??1CMappedFile@@UAE@XZ	; CMappedFile::~CMappedFile
  00010	cc		 int	 3
  00011	cc		 int	 3
  00012	cc		 int	 3
  00013	cc		 int	 3
  00014	cc		 int	 3
__ehhandler$??0CTextLineLoader@@QAE@PBD@Z:
  00015	90		 npad	 1
  00016	90		 npad	 1
  00017	8b 54 24 08	 mov	 edx, DWORD PTR [esp+8]
  0001b	8d 42 0c	 lea	 eax, DWORD PTR [edx+12]
  0001e	8b 4a f0	 mov	 ecx, DWORD PTR [edx-16]
  00021	33 c8		 xor	 ecx, eax
  00023	e8 00 00 00 00	 call	 @__security_check_cookie@4
  00028	8b 8a 50 01 00
	00		 mov	 ecx, DWORD PTR [edx+336]
  0002e	33 c8		 xor	 ecx, eax
  00030	e8 00 00 00 00	 call	 @__security_check_cookie@4
  00035	b8 00 00 00 00	 mov	 eax, OFFSET __ehfuncinfo$??0CTextLineLoader@@QAE@PBD@Z
  0003a	e9 00 00 00 00	 jmp	 ___CxxFrameHandler3
text$x	ENDS
??0CTextLineLoader@@QAE@PBD@Z ENDP			; CTextLineLoader::CTextLineLoader
; Function compile flags: /Odspy
; File D:\Metin2 Server Files\mainline\SRC_2014\Metin2Client\UserInterface\PythonApplicationModule.cpp
;	COMDAT ?appIsEnableTestServerFlag@@YAPAU_object@@PAU1@0@Z
_TEXT	SEGMENT
_poSelf$ = 8						; size = 4
_poArgs$ = 12						; size = 4
?appIsEnableTestServerFlag@@YAPAU_object@@PAU1@0@Z PROC	; appIsEnableTestServerFlag, COMDAT

; 1036 : {

  00000	55		 push	 ebp
  00001	8b ec		 mov	 ebp, esp

; 1037 : 	return Py_BuildValue("i", bTestServerFlag);

  00003	ff 35 00 00 00
	00		 push	 DWORD PTR ?bTestServerFlag@@3HA ; bTestServerFlag
  00009	68 00 00 00 00	 push	 OFFSET ??_C@_01KBJDNOO@i@
  0000e	ff 15 00 00 00
	00		 call	 DWORD PTR __imp__Py_BuildValue
  00014	59		 pop	 ecx
  00015	59		 pop	 ecx

; 1038 : }

  00016	5d		 pop	 ebp
  00017	c3		 ret	 0
?appIsEnableTestServerFlag@@YAPAU_object@@PAU1@0@Z ENDP	; appIsEnableTestServerFlag
_TEXT	ENDS
; Function compile flags: /Odspy
; File D:\Metin2 Server Files\mainline\SRC_2014\Metin2Client\UserInterface\PythonApplicationModule.cpp
;	COMDAT ?appEnableTestServerFlag@@YAPAU_object@@PAU1@0@Z
_TEXT	SEGMENT
_poSelf$ = 8						; size = 4
_poArgs$ = 12						; size = 4
?appEnableTestServerFlag@@YAPAU_object@@PAU1@0@Z PROC	; appEnableTestServerFlag, COMDAT

; 1030 : {

  00000	55		 push	 ebp
  00001	8b ec		 mov	 ebp, esp

; 1031 : 	bTestServerFlag = TRUE;

  00003	c7 05 00 00 00
	00 01 00 00 00	 mov	 DWORD PTR ?bTestServerFlag@@3HA, 1 ; bTestServerFlag

; 1032 : 	return Py_BuildNone();

  0000d	e8 00 00 00 00	 call	 ?Py_BuildNone@@YAPAU_object@@XZ ; Py_BuildNone

; 1033 : }

  00012	5d		 pop	 ebp
  00013	c3		 ret	 0
?appEnableTestServerFlag@@YAPAU_object@@PAU1@0@Z ENDP	; appEnableTestServerFlag
_TEXT	ENDS
; Function compile flags: /Odspy
; File D:\Metin2 Server Files\mainline\SRC_2014\Metin2Client\UserInterface\PythonApplicationModule.cpp
;	COMDAT ?appIsVisibleNotice@@YAPAU_object@@PAU1@0@Z
_TEXT	SEGMENT
_poSelf$ = 8						; size = 4
_poArgs$ = 12						; size = 4
?appIsVisibleNotice@@YAPAU_object@@PAU1@0@Z PROC	; appIsVisibleNotice, COMDAT

; 1025 : {

  00000	55		 push	 ebp
  00001	8b ec		 mov	 ebp, esp

; 1026 : 	return Py_BuildValue("i", bVisibleNotice);

  00003	ff 35 00 00 00
	00		 push	 DWORD PTR ?bVisibleNotice@@3HA ; bVisibleNotice
  00009	68 00 00 00 00	 push	 OFFSET ??_C@_01KBJDNOO@i@
  0000e	ff 15 00 00 00
	00		 call	 DWORD PTR __imp__Py_BuildValue
  00014	59		 pop	 ecx
  00015	59		 pop	 ecx

; 1027 : }

  00016	5d		 pop	 ebp
  00017	c3		 ret	 0
?appIsVisibleNotice@@YAPAU_object@@PAU1@0@Z ENDP	; appIsVisibleNotice
_TEXT	ENDS
; Function compile flags: /Odspy
; File D:\Metin2 Server Files\mainline\SRC_2014\Metin2Client\UserInterface\PythonApplicationModule.cpp
;	COMDAT ?appSetVisibleNotice@@YAPAU_object@@PAU1@0@Z
_TEXT	SEGMENT
_iFlag$ = -4						; size = 4
_poSelf$ = 8						; size = 4
_poArgs$ = 12						; size = 4
?appSetVisibleNotice@@YAPAU_object@@PAU1@0@Z PROC	; appSetVisibleNotice, COMDAT

; 1016 : {

  00000	55		 push	 ebp
  00001	8b ec		 mov	 ebp, esp
  00003	51		 push	 ecx

; 1017 : 	int iFlag;
; 1018 : 	if (!PyTuple_GetInteger(poArgs, 0, &iFlag))

  00004	8d 45 fc	 lea	 eax, DWORD PTR _iFlag$[ebp]
  00007	50		 push	 eax
  00008	6a 00		 push	 0
  0000a	ff 75 0c	 push	 DWORD PTR _poArgs$[ebp]
  0000d	e8 00 00 00 00	 call	 ?PyTuple_GetInteger@@YA_NPAU_object@@HPAH@Z ; PyTuple_GetInteger
  00012	83 c4 0c	 add	 esp, 12			; 0000000cH
  00015	0f b6 c0	 movzx	 eax, al
  00018	85 c0		 test	 eax, eax
  0001a	75 0a		 jne	 SHORT $LN2@appSetVisi

; 1019 : 		return Py_BuildException();

  0001c	6a 00		 push	 0
  0001e	e8 00 00 00 00	 call	 ?Py_BuildException@@YAPAU_object@@PBDZZ ; Py_BuildException
  00023	59		 pop	 ecx
  00024	eb 0d		 jmp	 SHORT $LN1@appSetVisi
$LN2@appSetVisi:

; 1020 : 	bVisibleNotice = iFlag;

  00026	8b 45 fc	 mov	 eax, DWORD PTR _iFlag$[ebp]
  00029	a3 00 00 00 00	 mov	 DWORD PTR ?bVisibleNotice@@3HA, eax ; bVisibleNotice

; 1021 : 	return Py_BuildNone();

  0002e	e8 00 00 00 00	 call	 ?Py_BuildNone@@YAPAU_object@@XZ ; Py_BuildNone
$LN1@appSetVisi:

; 1022 : }

  00033	c9		 leave
  00034	c3		 ret	 0
?appSetVisibleNotice@@YAPAU_object@@PAU1@0@Z ENDP	; appSetVisibleNotice
_TEXT	ENDS
; Function compile flags: /Odspy
; File D:\Metin2 Server Files\mainline\SRC_2014\Metin2Client\UserInterface\PythonApplicationModule.cpp
; File D:\Metin2 Server Files\mainline\SRC_2014\M2Data\include\d3dx8math.inl
; File D:\Metin2 Server Files\mainline\SRC_2014\Metin2Client\UserInterface\PythonApplicationModule.cpp
;	COMDAT ?apptestSetSpecularColor@@YAPAU_object@@PAU1@0@Z
_TEXT	SEGMENT
$T1 = -40						; size = 16
_fb$ = -24						; size = 4
_fg$ = -20						; size = 4
_fr$ = -16						; size = 4
_fb$ = -12						; size = 4
_fg$ = -8						; size = 4
_fr$ = -4						; size = 4
_poSelf$ = 8						; size = 4
_poArgs$ = 12						; size = 4
?apptestSetSpecularColor@@YAPAU_object@@PAU1@0@Z PROC	; apptestSetSpecularColor, COMDAT

; 1001 : {

  00000	55		 push	 ebp
  00001	8b ec		 mov	 ebp, esp
  00003	83 ec 28	 sub	 esp, 40			; 00000028H
  00006	56		 push	 esi
  00007	57		 push	 edi

; 1002 : 	float fr;
; 1003 : 	if (!PyTuple_GetFloat(poArgs, 0, &fr))

  00008	8d 45 fc	 lea	 eax, DWORD PTR _fr$[ebp]
  0000b	50		 push	 eax
  0000c	6a 00		 push	 0
  0000e	ff 75 0c	 push	 DWORD PTR _poArgs$[ebp]
  00011	e8 00 00 00 00	 call	 ?PyTuple_GetFloat@@YA_NPAU_object@@HPAM@Z ; PyTuple_GetFloat
  00016	83 c4 0c	 add	 esp, 12			; 0000000cH
  00019	0f b6 c0	 movzx	 eax, al
  0001c	85 c0		 test	 eax, eax
  0001e	75 0d		 jne	 SHORT $LN2@apptestSet

; 1004 : 		return Py_BuildException();

  00020	6a 00		 push	 0
  00022	e8 00 00 00 00	 call	 ?Py_BuildException@@YAPAU_object@@PBDZZ ; Py_BuildException
  00027	59		 pop	 ecx
  00028	e9 9e 00 00 00	 jmp	 $LN1@apptestSet
$LN2@apptestSet:

; 1005 : 	float fg;
; 1006 : 	if (!PyTuple_GetFloat(poArgs, 1, &fg))

  0002d	8d 45 f8	 lea	 eax, DWORD PTR _fg$[ebp]
  00030	50		 push	 eax
  00031	6a 01		 push	 1
  00033	ff 75 0c	 push	 DWORD PTR _poArgs$[ebp]
  00036	e8 00 00 00 00	 call	 ?PyTuple_GetFloat@@YA_NPAU_object@@HPAM@Z ; PyTuple_GetFloat
  0003b	83 c4 0c	 add	 esp, 12			; 0000000cH
  0003e	0f b6 c0	 movzx	 eax, al
  00041	85 c0		 test	 eax, eax
  00043	75 0a		 jne	 SHORT $LN3@apptestSet

; 1007 : 		return Py_BuildException();

  00045	6a 00		 push	 0
  00047	e8 00 00 00 00	 call	 ?Py_BuildException@@YAPAU_object@@PBDZZ ; Py_BuildException
  0004c	59		 pop	 ecx
  0004d	eb 7c		 jmp	 SHORT $LN1@apptestSet
$LN3@apptestSet:

; 1008 : 	float fb;
; 1009 : 	if (!PyTuple_GetFloat(poArgs, 2, &fb))

  0004f	8d 45 f4	 lea	 eax, DWORD PTR _fb$[ebp]
  00052	50		 push	 eax
  00053	6a 02		 push	 2
  00055	ff 75 0c	 push	 DWORD PTR _poArgs$[ebp]
  00058	e8 00 00 00 00	 call	 ?PyTuple_GetFloat@@YA_NPAU_object@@HPAM@Z ; PyTuple_GetFloat
  0005d	83 c4 0c	 add	 esp, 12			; 0000000cH
  00060	0f b6 c0	 movzx	 eax, al
  00063	85 c0		 test	 eax, eax
  00065	75 0a		 jne	 SHORT $LN4@apptestSet

; 1010 : 		return Py_BuildException();

  00067	6a 00		 push	 0
  00069	e8 00 00 00 00	 call	 ?Py_BuildException@@YAPAU_object@@PBDZZ ; Py_BuildException
  0006e	59		 pop	 ecx
  0006f	eb 5a		 jmp	 SHORT $LN1@apptestSet
$LN4@apptestSet:

; 1011 : 	g_fSpecularColor = D3DXCOLOR(fr, fg, fb, 1.0f);

  00071	f3 0f 10 45 fc	 movss	 xmm0, DWORD PTR _fr$[ebp]
  00076	f3 0f 11 45 f0	 movss	 DWORD PTR _fr$[ebp], xmm0
  0007b	f3 0f 10 45 f8	 movss	 xmm0, DWORD PTR _fg$[ebp]
  00080	f3 0f 11 45 ec	 movss	 DWORD PTR _fg$[ebp], xmm0
  00085	f3 0f 10 45 f4	 movss	 xmm0, DWORD PTR _fb$[ebp]
  0008a	f3 0f 11 45 e8	 movss	 DWORD PTR _fb$[ebp], xmm0
; File D:\Metin2 Server Files\mainline\SRC_2014\M2Data\include\d3dx8math.inl

; 920  :     r = fr;

  0008f	f3 0f 10 45 f0	 movss	 xmm0, DWORD PTR _fr$[ebp]
  00094	f3 0f 11 45 d8	 movss	 DWORD PTR $T1[ebp], xmm0

; 921  :     g = fg;

  00099	f3 0f 10 45 ec	 movss	 xmm0, DWORD PTR _fg$[ebp]
  0009e	f3 0f 11 45 dc	 movss	 DWORD PTR $T1[ebp+4], xmm0

; 922  :     b = fb;

  000a3	f3 0f 10 45 e8	 movss	 xmm0, DWORD PTR _fb$[ebp]
  000a8	f3 0f 11 45 e0	 movss	 DWORD PTR $T1[ebp+8], xmm0

; 923  :     a = fa;

  000ad	f3 0f 10 05 00
	00 00 00	 movss	 xmm0, DWORD PTR __real@3f800000
  000b5	f3 0f 11 45 e4	 movss	 DWORD PTR $T1[ebp+12], xmm0
; File D:\Metin2 Server Files\mainline\SRC_2014\Metin2Client\UserInterface\PythonApplicationModule.cpp

; 1011 : 	g_fSpecularColor = D3DXCOLOR(fr, fg, fb, 1.0f);

  000ba	8d 75 d8	 lea	 esi, DWORD PTR $T1[ebp]
  000bd	bf 00 00 00 00	 mov	 edi, OFFSET ?g_fSpecularColor@@3UD3DXCOLOR@@A ; g_fSpecularColor
  000c2	a5		 movsd
  000c3	a5		 movsd
  000c4	a5		 movsd
  000c5	a5		 movsd

; 1012 : 	return Py_BuildNone();

  000c6	e8 00 00 00 00	 call	 ?Py_BuildNone@@YAPAU_object@@XZ ; Py_BuildNone
$LN1@apptestSet:

; 1013 : }

  000cb	5f		 pop	 edi
  000cc	5e		 pop	 esi
  000cd	c9		 leave
  000ce	c3		 ret	 0
?apptestSetSpecularColor@@YAPAU_object@@PAU1@0@Z ENDP	; apptestSetSpecularColor
_TEXT	ENDS
; Function compile flags: /Odspy
; File D:\Metin2 Server Files\mainline\SRC_2014\Metin2Client\UserInterface\PythonApplicationModule.cpp
;	COMDAT ?apptestResetAccumulationTime@@YAPAU_object@@PAU1@0@Z
_TEXT	SEGMENT
_poSelf$ = 8						; size = 4
_poArgs$ = 12						; size = 4
?apptestResetAccumulationTime@@YAPAU_object@@PAU1@0@Z PROC ; apptestResetAccumulationTime, COMDAT

; 995  : {

  00000	55		 push	 ebp
  00001	8b ec		 mov	 ebp, esp

; 996  : 	g_iAccumulationTime = 0;

  00003	83 25 00 00 00
	00 00		 and	 DWORD PTR ?g_iAccumulationTime@@3HA, 0 ; g_iAccumulationTime

; 997  : 	return Py_BuildNone();

  0000a	e8 00 00 00 00	 call	 ?Py_BuildNone@@YAPAU_object@@XZ ; Py_BuildNone

; 998  : }

  0000f	5d		 pop	 ebp
  00010	c3		 ret	 0
?apptestResetAccumulationTime@@YAPAU_object@@PAU1@0@Z ENDP ; apptestResetAccumulationTime
_TEXT	ENDS
; Function compile flags: /Odspy
; File D:\Metin2 Server Files\mainline\SRC_2014\Metin2Client\UserInterface\PythonApplicationModule.cpp
;	COMDAT ?apptestGetAccumulationTime@@YAPAU_object@@PAU1@0@Z
_TEXT	SEGMENT
_poSelf$ = 8						; size = 4
_poArgs$ = 12						; size = 4
?apptestGetAccumulationTime@@YAPAU_object@@PAU1@0@Z PROC ; apptestGetAccumulationTime, COMDAT

; 990  : {

  00000	55		 push	 ebp
  00001	8b ec		 mov	 ebp, esp

; 991  : 	return Py_BuildValue("i", g_iAccumulationTime);

  00003	ff 35 00 00 00
	00		 push	 DWORD PTR ?g_iAccumulationTime@@3HA ; g_iAccumulationTime
  00009	68 00 00 00 00	 push	 OFFSET ??_C@_01KBJDNOO@i@
  0000e	ff 15 00 00 00
	00		 call	 DWORD PTR __imp__Py_BuildValue
  00014	59		 pop	 ecx
  00015	59		 pop	 ecx

; 992  : }

  00016	5d		 pop	 ebp
  00017	c3		 ret	 0
?apptestGetAccumulationTime@@YAPAU_object@@PAU1@0@Z ENDP ; apptestGetAccumulationTime
_TEXT	ENDS
; Function compile flags: /Odspy
; File D:\Metin2 Server Files\mainline\SRC_2014\Metin2Client\UserInterface\PythonApplicationModule.cpp
;	COMDAT ?appSetSightRange@@YAPAU_object@@PAU1@0@Z
_TEXT	SEGMENT
_iRange$ = -4						; size = 4
_poSelf$ = 8						; size = 4
_poArgs$ = 12						; size = 4
?appSetSightRange@@YAPAU_object@@PAU1@0@Z PROC		; appSetSightRange, COMDAT

; 978  : {

  00000	55		 push	 ebp
  00001	8b ec		 mov	 ebp, esp
  00003	51		 push	 ecx

; 979  : 	int iRange;
; 980  : 	if (!PyTuple_GetInteger(poArgs, 0, &iRange))

  00004	8d 45 fc	 lea	 eax, DWORD PTR _iRange$[ebp]
  00007	50		 push	 eax
  00008	6a 00		 push	 0
  0000a	ff 75 0c	 push	 DWORD PTR _poArgs$[ebp]
  0000d	e8 00 00 00 00	 call	 ?PyTuple_GetInteger@@YA_NPAU_object@@HPAH@Z ; PyTuple_GetInteger
  00012	83 c4 0c	 add	 esp, 12			; 0000000cH
  00015	0f b6 c0	 movzx	 eax, al
  00018	85 c0		 test	 eax, eax
  0001a	75 0a		 jne	 SHORT $LN4@appSetSigh

; 981  : 		return Py_BuildException();

  0001c	6a 00		 push	 0
  0001e	e8 00 00 00 00	 call	 ?Py_BuildException@@YAPAU_object@@PBDZZ ; Py_BuildException
  00023	59		 pop	 ecx
  00024	eb 13		 jmp	 SHORT $LN1@appSetSigh
$LN4@appSetSigh:

; 982  : 
; 983  : 	CPythonApplication::Instance().SetForceSightRange(iRange);

  00026	ff 75 fc	 push	 DWORD PTR _iRange$[ebp]
  00029	8b 0d 00 00 00
	00		 mov	 ecx, DWORD PTR ?ms_pInstance@CPythonApplication@@1PAV1@A ; CPythonApplication::ms_pInstance
  0002f	e8 00 00 00 00	 call	 ?SetForceSightRange@CPythonApplication@@QAEXH@Z ; CPythonApplication::SetForceSightRange

; 984  : 	return Py_BuildNone();

  00034	e8 00 00 00 00	 call	 ?Py_BuildNone@@YAPAU_object@@XZ ; Py_BuildNone
$LN1@appSetSigh:

; 985  : }

  00039	c9		 leave
  0003a	c3		 ret	 0
?appSetSightRange@@YAPAU_object@@PAU1@0@Z ENDP		; appSetSightRange
_TEXT	ENDS
; Function compile flags: /Odspy
; File D:\Metin2 Server Files\mainline\SRC_2014\Metin2Client\UserInterface\PythonApplicationModule.cpp
;	COMDAT ?appSetDefaultCamera@@YAPAU_object@@PAU1@0@Z
_TEXT	SEGMENT
tv70 = -4						; size = 4
_poSelf$ = 8						; size = 4
_poArgs$ = 12						; size = 4
?appSetDefaultCamera@@YAPAU_object@@PAU1@0@Z PROC	; appSetDefaultCamera, COMDAT

; 972  : {

  00000	55		 push	 ebp
  00001	8b ec		 mov	 ebp, esp
  00003	51		 push	 ecx

; 973  : 	CPythonApplication::Instance().SetDefaultCamera();

  00004	a1 00 00 00 00	 mov	 eax, DWORD PTR ?ms_pInstance@CPythonApplication@@1PAV1@A ; CPythonApplication::ms_pInstance
  00009	83 c0 20	 add	 eax, 32			; 00000020H
  0000c	89 45 fc	 mov	 DWORD PTR tv70[ebp], eax
  0000f	8b 45 fc	 mov	 eax, DWORD PTR tv70[ebp]
  00012	8b 00		 mov	 eax, DWORD PTR [eax]
  00014	8b 4d fc	 mov	 ecx, DWORD PTR tv70[ebp]
  00017	ff 50 24	 call	 DWORD PTR [eax+36]

; 974  : 	return Py_BuildNone();

  0001a	e8 00 00 00 00	 call	 ?Py_BuildNone@@YAPAU_object@@XZ ; Py_BuildNone

; 975  : }

  0001f	c9		 leave
  00020	c3		 ret	 0
?appSetDefaultCamera@@YAPAU_object@@PAU1@0@Z ENDP	; appSetDefaultCamera
_TEXT	ENDS
; Function compile flags: /Odspy
; File D:\Metin2 Server Files\mainline\SRC_2014\Metin2Client\UserInterface\PythonApplicationModule.cpp
; File D:\Metin2 Server Files\mainline\SRC_2014\Metin2Client\UserInterface\PythonApplication.h
; File D:\Metin2 Server Files\mainline\SRC_2014\Metin2Client\UserInterface\PythonApplicationModule.cpp
;	COMDAT ?appLoadCameraSetting@@YAPAU_object@@PAU1@0@Z
_TEXT	SEGMENT
$T1 = -12						; size = 4
_szFileName$ = -8					; size = 4
_bResult$ = -1						; size = 1
_poSelf$ = 8						; size = 4
_poArgs$ = 12						; size = 4
?appLoadCameraSetting@@YAPAU_object@@PAU1@0@Z PROC	; appLoadCameraSetting, COMDAT

; 962  : {

  00000	55		 push	 ebp
  00001	8b ec		 mov	 ebp, esp
  00003	83 ec 0c	 sub	 esp, 12			; 0000000cH

; 963  : 	char * szFileName;
; 964  : 	if (!PyTuple_GetString(poArgs, 0, &szFileName))

  00006	8d 45 f8	 lea	 eax, DWORD PTR _szFileName$[ebp]
  00009	50		 push	 eax
  0000a	6a 00		 push	 0
  0000c	ff 75 0c	 push	 DWORD PTR _poArgs$[ebp]
  0000f	e8 00 00 00 00	 call	 ?PyTuple_GetString@@YA_NPAU_object@@HPAPAD@Z ; PyTuple_GetString
  00014	83 c4 0c	 add	 esp, 12			; 0000000cH
  00017	0f b6 c0	 movzx	 eax, al
  0001a	85 c0		 test	 eax, eax
  0001c	75 0a		 jne	 SHORT $LN2@appLoadCam

; 965  : 		return Py_BuildException();

  0001e	6a 00		 push	 0
  00020	e8 00 00 00 00	 call	 ?Py_BuildException@@YAPAU_object@@PBDZZ ; Py_BuildException
  00025	59		 pop	 ecx
  00026	eb 28		 jmp	 SHORT $LN1@appLoadCam
$LN2@appLoadCam:
; File D:\Metin2 Server Files\mainline\SRC_2014\Metin2Client\UserInterface\PythonApplication.h

; 143  : 			return *ms_pInstance;

  00028	a1 00 00 00 00	 mov	 eax, DWORD PTR ?ms_pInstance@CPythonApplication@@1PAV1@A ; CPythonApplication::ms_pInstance
  0002d	89 45 f4	 mov	 DWORD PTR $T1[ebp], eax
; File D:\Metin2 Server Files\mainline\SRC_2014\Metin2Client\UserInterface\PythonApplicationModule.cpp

; 967  : 	bool bResult = CPythonApplication::Instance().LoadCameraSetting(szFileName);

  00030	ff 75 f8	 push	 DWORD PTR _szFileName$[ebp]
  00033	8b 4d f4	 mov	 ecx, DWORD PTR $T1[ebp]
  00036	e8 00 00 00 00	 call	 ?LoadCameraSetting@CPythonApplication@@QAE_NPBD@Z ; CPythonApplication::LoadCameraSetting
  0003b	88 45 ff	 mov	 BYTE PTR _bResult$[ebp], al

; 968  : 	return Py_BuildValue("i", bResult);

  0003e	0f b6 45 ff	 movzx	 eax, BYTE PTR _bResult$[ebp]
  00042	50		 push	 eax
  00043	68 00 00 00 00	 push	 OFFSET ??_C@_01KBJDNOO@i@
  00048	ff 15 00 00 00
	00		 call	 DWORD PTR __imp__Py_BuildValue
  0004e	59		 pop	 ecx
  0004f	59		 pop	 ecx
$LN1@appLoadCam:

; 969  : }

  00050	c9		 leave
  00051	c3		 ret	 0
?appLoadCameraSetting@@YAPAU_object@@PAU1@0@Z ENDP	; appLoadCameraSetting
_TEXT	ENDS
; Function compile flags: /Odspy
; File D:\Metin2 Server Files\mainline\SRC_2014\Metin2Client\UserInterface\PythonApplicationModule.cpp
;	COMDAT ?appSaveCameraSetting@@YAPAU_object@@PAU1@0@Z
_TEXT	SEGMENT
_szFileName$ = -4					; size = 4
_poSelf$ = 8						; size = 4
_poArgs$ = 12						; size = 4
?appSaveCameraSetting@@YAPAU_object@@PAU1@0@Z PROC	; appSaveCameraSetting, COMDAT

; 952  : {

  00000	55		 push	 ebp
  00001	8b ec		 mov	 ebp, esp
  00003	51		 push	 ecx

; 953  : 	char * szFileName;
; 954  : 	if (!PyTuple_GetString(poArgs, 0, &szFileName))

  00004	8d 45 fc	 lea	 eax, DWORD PTR _szFileName$[ebp]
  00007	50		 push	 eax
  00008	6a 00		 push	 0
  0000a	ff 75 0c	 push	 DWORD PTR _poArgs$[ebp]
  0000d	e8 00 00 00 00	 call	 ?PyTuple_GetString@@YA_NPAU_object@@HPAPAD@Z ; PyTuple_GetString
  00012	83 c4 0c	 add	 esp, 12			; 0000000cH
  00015	0f b6 c0	 movzx	 eax, al
  00018	85 c0		 test	 eax, eax
  0001a	75 0a		 jne	 SHORT $LN4@appSaveCam

; 955  : 		return Py_BuildException();

  0001c	6a 00		 push	 0
  0001e	e8 00 00 00 00	 call	 ?Py_BuildException@@YAPAU_object@@PBDZZ ; Py_BuildException
  00023	59		 pop	 ecx
  00024	eb 13		 jmp	 SHORT $LN1@appSaveCam
$LN4@appSaveCam:

; 956  : 
; 957  : 	CPythonApplication::Instance().SaveCameraSetting(szFileName);

  00026	ff 75 fc	 push	 DWORD PTR _szFileName$[ebp]
  00029	8b 0d 00 00 00
	00		 mov	 ecx, DWORD PTR ?ms_pInstance@CPythonApplication@@1PAV1@A ; CPythonApplication::ms_pInstance
  0002f	e8 00 00 00 00	 call	 ?SaveCameraSetting@CPythonApplication@@QAEXPBD@Z ; CPythonApplication::SaveCameraSetting

; 958  : 	return Py_BuildNone();

  00034	e8 00 00 00 00	 call	 ?Py_BuildNone@@YAPAU_object@@XZ ; Py_BuildNone
$LN1@appSaveCam:

; 959  : }

  00039	c9		 leave
  0003a	c3		 ret	 0
?appSaveCameraSetting@@YAPAU_object@@PAU1@0@Z ENDP	; appSaveCameraSetting
_TEXT	ENDS
; Function compile flags: /Odspy
; File D:\Metin2 Server Files\mainline\SRC_2014\Metin2Client\UserInterface\PythonApplicationModule.cpp
;	COMDAT ?appSetCameraSetting@@YAPAU_object@@PAU1@0@Z
_TEXT	SEGMENT
_iPitch$ = -68						; size = 4
_iRotation$ = -64					; size = 4
_iZoom$ = -60						; size = 4
_iz$ = -56						; size = 4
_iy$ = -52						; size = 4
_ix$ = -48						; size = 4
tv175 = -44						; size = 4
_CameraSetting$ = -40					; size = 36
__$ArrayPad$ = -4					; size = 4
_poSelf$ = 8						; size = 4
_poArgs$ = 12						; size = 4
?appSetCameraSetting@@YAPAU_object@@PAU1@0@Z PROC	; appSetCameraSetting, COMDAT

; 918  : {

  00000	55		 push	 ebp
  00001	8b ec		 mov	 ebp, esp
  00003	83 ec 44	 sub	 esp, 68			; 00000044H
  00006	a1 00 00 00 00	 mov	 eax, DWORD PTR ___security_cookie
  0000b	33 c5		 xor	 eax, ebp
  0000d	89 45 fc	 mov	 DWORD PTR __$ArrayPad$[ebp], eax

; 919  : 	int ix;
; 920  : 	if (!PyTuple_GetInteger(poArgs, 0, &ix))

  00010	8d 45 d0	 lea	 eax, DWORD PTR _ix$[ebp]
  00013	50		 push	 eax
  00014	6a 00		 push	 0
  00016	ff 75 0c	 push	 DWORD PTR _poArgs$[ebp]
  00019	e8 00 00 00 00	 call	 ?PyTuple_GetInteger@@YA_NPAU_object@@HPAH@Z ; PyTuple_GetInteger
  0001e	83 c4 0c	 add	 esp, 12			; 0000000cH
  00021	0f b6 c0	 movzx	 eax, al
  00024	85 c0		 test	 eax, eax
  00026	75 0d		 jne	 SHORT $LN2@appSetCame

; 921  : 		return Py_BuildException();

  00028	6a 00		 push	 0
  0002a	e8 00 00 00 00	 call	 ?Py_BuildException@@YAPAU_object@@PBDZZ ; Py_BuildException
  0002f	59		 pop	 ecx
  00030	e9 29 01 00 00	 jmp	 $LN1@appSetCame
$LN2@appSetCame:

; 922  : 	int iy;
; 923  : 	if (!PyTuple_GetInteger(poArgs, 1, &iy))

  00035	8d 45 cc	 lea	 eax, DWORD PTR _iy$[ebp]
  00038	50		 push	 eax
  00039	6a 01		 push	 1
  0003b	ff 75 0c	 push	 DWORD PTR _poArgs$[ebp]
  0003e	e8 00 00 00 00	 call	 ?PyTuple_GetInteger@@YA_NPAU_object@@HPAH@Z ; PyTuple_GetInteger
  00043	83 c4 0c	 add	 esp, 12			; 0000000cH
  00046	0f b6 c0	 movzx	 eax, al
  00049	85 c0		 test	 eax, eax
  0004b	75 0d		 jne	 SHORT $LN3@appSetCame

; 924  : 		return Py_BuildException();

  0004d	6a 00		 push	 0
  0004f	e8 00 00 00 00	 call	 ?Py_BuildException@@YAPAU_object@@PBDZZ ; Py_BuildException
  00054	59		 pop	 ecx
  00055	e9 04 01 00 00	 jmp	 $LN1@appSetCame
$LN3@appSetCame:

; 925  : 	int iz;
; 926  : 	if (!PyTuple_GetInteger(poArgs, 2, &iz))

  0005a	8d 45 c8	 lea	 eax, DWORD PTR _iz$[ebp]
  0005d	50		 push	 eax
  0005e	6a 02		 push	 2
  00060	ff 75 0c	 push	 DWORD PTR _poArgs$[ebp]
  00063	e8 00 00 00 00	 call	 ?PyTuple_GetInteger@@YA_NPAU_object@@HPAH@Z ; PyTuple_GetInteger
  00068	83 c4 0c	 add	 esp, 12			; 0000000cH
  0006b	0f b6 c0	 movzx	 eax, al
  0006e	85 c0		 test	 eax, eax
  00070	75 0d		 jne	 SHORT $LN4@appSetCame

; 927  : 		return Py_BuildException();

  00072	6a 00		 push	 0
  00074	e8 00 00 00 00	 call	 ?Py_BuildException@@YAPAU_object@@PBDZZ ; Py_BuildException
  00079	59		 pop	 ecx
  0007a	e9 df 00 00 00	 jmp	 $LN1@appSetCame
$LN4@appSetCame:

; 928  : 
; 929  : 	int iZoom;
; 930  : 	if (!PyTuple_GetInteger(poArgs, 3, &iZoom))

  0007f	8d 45 c4	 lea	 eax, DWORD PTR _iZoom$[ebp]
  00082	50		 push	 eax
  00083	6a 03		 push	 3
  00085	ff 75 0c	 push	 DWORD PTR _poArgs$[ebp]
  00088	e8 00 00 00 00	 call	 ?PyTuple_GetInteger@@YA_NPAU_object@@HPAH@Z ; PyTuple_GetInteger
  0008d	83 c4 0c	 add	 esp, 12			; 0000000cH
  00090	0f b6 c0	 movzx	 eax, al
  00093	85 c0		 test	 eax, eax
  00095	75 0d		 jne	 SHORT $LN5@appSetCame

; 931  : 		return Py_BuildException();

  00097	6a 00		 push	 0
  00099	e8 00 00 00 00	 call	 ?Py_BuildException@@YAPAU_object@@PBDZZ ; Py_BuildException
  0009e	59		 pop	 ecx
  0009f	e9 ba 00 00 00	 jmp	 $LN1@appSetCame
$LN5@appSetCame:

; 932  : 	int iRotation;
; 933  : 	if (!PyTuple_GetInteger(poArgs, 4, &iRotation))

  000a4	8d 45 c0	 lea	 eax, DWORD PTR _iRotation$[ebp]
  000a7	50		 push	 eax
  000a8	6a 04		 push	 4
  000aa	ff 75 0c	 push	 DWORD PTR _poArgs$[ebp]
  000ad	e8 00 00 00 00	 call	 ?PyTuple_GetInteger@@YA_NPAU_object@@HPAH@Z ; PyTuple_GetInteger
  000b2	83 c4 0c	 add	 esp, 12			; 0000000cH
  000b5	0f b6 c0	 movzx	 eax, al
  000b8	85 c0		 test	 eax, eax
  000ba	75 0d		 jne	 SHORT $LN6@appSetCame

; 934  : 		return Py_BuildException();

  000bc	6a 00		 push	 0
  000be	e8 00 00 00 00	 call	 ?Py_BuildException@@YAPAU_object@@PBDZZ ; Py_BuildException
  000c3	59		 pop	 ecx
  000c4	e9 95 00 00 00	 jmp	 $LN1@appSetCame
$LN6@appSetCame:

; 935  : 	int iPitch;
; 936  : 	if (!PyTuple_GetInteger(poArgs, 5, &iPitch))

  000c9	8d 45 bc	 lea	 eax, DWORD PTR _iPitch$[ebp]
  000cc	50		 push	 eax
  000cd	6a 05		 push	 5
  000cf	ff 75 0c	 push	 DWORD PTR _poArgs$[ebp]
  000d2	e8 00 00 00 00	 call	 ?PyTuple_GetInteger@@YA_NPAU_object@@HPAH@Z ; PyTuple_GetInteger
  000d7	83 c4 0c	 add	 esp, 12			; 0000000cH
  000da	0f b6 c0	 movzx	 eax, al
  000dd	85 c0		 test	 eax, eax
  000df	75 0a		 jne	 SHORT $LN7@appSetCame

; 937  : 		return Py_BuildException();

  000e1	6a 00		 push	 0
  000e3	e8 00 00 00 00	 call	 ?Py_BuildException@@YAPAU_object@@PBDZZ ; Py_BuildException
  000e8	59		 pop	 ecx
  000e9	eb 73		 jmp	 SHORT $LN1@appSetCame
$LN7@appSetCame:

; 938  : 
; 939  : 	CPythonApplication::SCameraSetting CameraSetting;

  000eb	8d 4d d8	 lea	 ecx, DWORD PTR _CameraSetting$[ebp]
  000ee	e8 00 00 00 00	 call	 ??0SCameraSetting@IAbstractApplication@@QAE@XZ ; IAbstractApplication::SCameraSetting::SCameraSetting

; 940  : 	ZeroMemory(&CameraSetting, sizeof(CameraSetting));

  000f3	6a 24		 push	 36			; 00000024H
  000f5	6a 00		 push	 0
  000f7	8d 45 d8	 lea	 eax, DWORD PTR _CameraSetting$[ebp]
  000fa	50		 push	 eax
  000fb	e8 00 00 00 00	 call	 _memset
  00100	83 c4 0c	 add	 esp, 12			; 0000000cH

; 941  : 	CameraSetting.v3CenterPosition.x = float(ix);

  00103	f3 0f 2a 45 d0	 cvtsi2ss xmm0, DWORD PTR _ix$[ebp]
  00108	f3 0f 11 45 d8	 movss	 DWORD PTR _CameraSetting$[ebp], xmm0

; 942  : 	CameraSetting.v3CenterPosition.y = float(iy);

  0010d	f3 0f 2a 45 cc	 cvtsi2ss xmm0, DWORD PTR _iy$[ebp]
  00112	f3 0f 11 45 dc	 movss	 DWORD PTR _CameraSetting$[ebp+4], xmm0

; 943  : 	CameraSetting.v3CenterPosition.z = float(iz);

  00117	f3 0f 2a 45 c8	 cvtsi2ss xmm0, DWORD PTR _iz$[ebp]
  0011c	f3 0f 11 45 e0	 movss	 DWORD PTR _CameraSetting$[ebp+8], xmm0

; 944  : 	CameraSetting.fZoom = float(iZoom);

  00121	f3 0f 2a 45 c4	 cvtsi2ss xmm0, DWORD PTR _iZoom$[ebp]
  00126	f3 0f 11 45 f8	 movss	 DWORD PTR _CameraSetting$[ebp+32], xmm0

; 945  : 	CameraSetting.fRotation = float(iRotation);

  0012b	f3 0f 2a 45 c0	 cvtsi2ss xmm0, DWORD PTR _iRotation$[ebp]
  00130	f3 0f 11 45 f0	 movss	 DWORD PTR _CameraSetting$[ebp+24], xmm0

; 946  : 	CameraSetting.fPitch = float(iPitch);

  00135	f3 0f 2a 45 bc	 cvtsi2ss xmm0, DWORD PTR _iPitch$[ebp]
  0013a	f3 0f 11 45 f4	 movss	 DWORD PTR _CameraSetting$[ebp+28], xmm0

; 947  : 	CPythonApplication::Instance().SetEventCamera(CameraSetting);

  0013f	a1 00 00 00 00	 mov	 eax, DWORD PTR ?ms_pInstance@CPythonApplication@@1PAV1@A ; CPythonApplication::ms_pInstance
  00144	83 c0 20	 add	 eax, 32			; 00000020H
  00147	89 45 d4	 mov	 DWORD PTR tv175[ebp], eax
  0014a	8d 45 d8	 lea	 eax, DWORD PTR _CameraSetting$[ebp]
  0014d	50		 push	 eax
  0014e	8b 45 d4	 mov	 eax, DWORD PTR tv175[ebp]
  00151	8b 00		 mov	 eax, DWORD PTR [eax]
  00153	8b 4d d4	 mov	 ecx, DWORD PTR tv175[ebp]
  00156	ff 50 1c	 call	 DWORD PTR [eax+28]

; 948  : 	return Py_BuildNone();

  00159	e8 00 00 00 00	 call	 ?Py_BuildNone@@YAPAU_object@@XZ ; Py_BuildNone
$LN1@appSetCame:

; 949  : }

  0015e	8b 4d fc	 mov	 ecx, DWORD PTR __$ArrayPad$[ebp]
  00161	33 cd		 xor	 ecx, ebp
  00163	e8 00 00 00 00	 call	 @__security_check_cookie@4
  00168	c9		 leave
  00169	c3		 ret	 0
?appSetCameraSetting@@YAPAU_object@@PAU1@0@Z ENDP	; appSetCameraSetting
_TEXT	ENDS
; Function compile flags: /Odspy
; File D:\Metin2 Server Files\mainline\SRC_2014\Metin2Client\UserInterface\PythonApplicationModule.cpp
;	COMDAT ?appIsFileExist@@YAPAU_object@@PAU1@0@Z
_TEXT	SEGMENT
_szFileName$ = -8					; size = 4
tv77 = -4						; size = 4
_poSelf$ = 8						; size = 4
_poArgs$ = 12						; size = 4
?appIsFileExist@@YAPAU_object@@PAU1@0@Z PROC		; appIsFileExist, COMDAT

; 909  : {

  00000	55		 push	 ebp
  00001	8b ec		 mov	 ebp, esp
  00003	51		 push	 ecx
  00004	51		 push	 ecx

; 910  : 	char * szFileName;
; 911  : 	if (!PyTuple_GetString(poArgs, 0, &szFileName))

  00005	8d 45 f8	 lea	 eax, DWORD PTR _szFileName$[ebp]
  00008	50		 push	 eax
  00009	6a 00		 push	 0
  0000b	ff 75 0c	 push	 DWORD PTR _poArgs$[ebp]
  0000e	e8 00 00 00 00	 call	 ?PyTuple_GetString@@YA_NPAU_object@@HPAPAD@Z ; PyTuple_GetString
  00013	83 c4 0c	 add	 esp, 12			; 0000000cH
  00016	0f b6 c0	 movzx	 eax, al
  00019	85 c0		 test	 eax, eax
  0001b	75 0a		 jne	 SHORT $LN2@appIsFileE

; 912  : 		return Py_BuildException();

  0001d	6a 00		 push	 0
  0001f	e8 00 00 00 00	 call	 ?Py_BuildException@@YAPAU_object@@PBDZZ ; Py_BuildException
  00024	59		 pop	 ecx
  00025	eb 2e		 jmp	 SHORT $LN1@appIsFileE
$LN2@appIsFileE:

; 913  : 
; 914  : 	return Py_BuildValue("i", -1 != _access(szFileName, 0));

  00027	6a 00		 push	 0
  00029	ff 75 f8	 push	 DWORD PTR _szFileName$[ebp]
  0002c	e8 00 00 00 00	 call	 __access
  00031	59		 pop	 ecx
  00032	59		 pop	 ecx
  00033	83 f8 ff	 cmp	 eax, -1
  00036	74 09		 je	 SHORT $LN4@appIsFileE
  00038	c7 45 fc 01 00
	00 00		 mov	 DWORD PTR tv77[ebp], 1
  0003f	eb 04		 jmp	 SHORT $LN5@appIsFileE
$LN4@appIsFileE:
  00041	83 65 fc 00	 and	 DWORD PTR tv77[ebp], 0
$LN5@appIsFileE:
  00045	ff 75 fc	 push	 DWORD PTR tv77[ebp]
  00048	68 00 00 00 00	 push	 OFFSET ??_C@_01KBJDNOO@i@
  0004d	ff 15 00 00 00
	00		 call	 DWORD PTR __imp__Py_BuildValue
  00053	59		 pop	 ecx
  00054	59		 pop	 ecx
$LN1@appIsFileE:

; 915  : }

  00055	c9		 leave
  00056	c3		 ret	 0
?appIsFileExist@@YAPAU_object@@PAU1@0@Z ENDP		; appIsFileExist
_TEXT	ENDS
; Function compile flags: /Odspy
; File D:\Metin2 Server Files\mainline\SRC_2014\Metin2Client\UserInterface\PythonApplicationModule.cpp
; File D:\Metin2 Server Files\mainline\SRC_2014\Metin2Client\eterBase\Singleton.h
; File D:\Metin2 Server Files\mainline\SRC_2014\Metin2Client\UserInterface\PythonApplicationModule.cpp
;	COMDAT ?appSetCameraSpeed@@YAPAU_object@@PAU1@0@Z
_TEXT	SEGMENT
$T1 = -12						; size = 4
_pCamera$ = -8						; size = 4
_iPercentage$ = -4					; size = 4
_poSelf$ = 8						; size = 4
_poArgs$ = 12						; size = 4
?appSetCameraSpeed@@YAPAU_object@@PAU1@0@Z PROC		; appSetCameraSpeed, COMDAT

; 895  : {

  00000	55		 push	 ebp
  00001	8b ec		 mov	 ebp, esp
  00003	83 ec 0c	 sub	 esp, 12			; 0000000cH

; 896  : 	int iPercentage;
; 897  : 	if (!PyTuple_GetInteger(poArgs, 0, &iPercentage))

  00006	8d 45 fc	 lea	 eax, DWORD PTR _iPercentage$[ebp]
  00009	50		 push	 eax
  0000a	6a 00		 push	 0
  0000c	ff 75 0c	 push	 DWORD PTR _poArgs$[ebp]
  0000f	e8 00 00 00 00	 call	 ?PyTuple_GetInteger@@YA_NPAU_object@@HPAH@Z ; PyTuple_GetInteger
  00014	83 c4 0c	 add	 esp, 12			; 0000000cH
  00017	0f b6 c0	 movzx	 eax, al
  0001a	85 c0		 test	 eax, eax
  0001c	75 0a		 jne	 SHORT $LN2@appSetCame

; 898  : 		return Py_BuildException();

  0001e	6a 00		 push	 0
  00020	e8 00 00 00 00	 call	 ?Py_BuildException@@YAPAU_object@@PBDZZ ; Py_BuildException
  00025	59		 pop	 ecx
  00026	eb 47		 jmp	 SHORT $LN1@appSetCame
$LN2@appSetCame:

; 899  : 
; 900  : 	CPythonApplication::Instance().SetCameraSpeed(iPercentage);

  00028	ff 75 fc	 push	 DWORD PTR _iPercentage$[ebp]
  0002b	8b 0d 00 00 00
	00		 mov	 ecx, DWORD PTR ?ms_pInstance@CPythonApplication@@1PAV1@A ; CPythonApplication::ms_pInstance
  00031	e8 00 00 00 00	 call	 ?SetCameraSpeed@CPythonApplication@@QAEXH@Z ; CPythonApplication::SetCameraSpeed
; File D:\Metin2 Server Files\mainline\SRC_2014\Metin2Client\eterBase\Singleton.h

; 27   : 		return (*ms_singleton);

  00036	a1 00 00 00 00	 mov	 eax, DWORD PTR ?ms_singleton@?$CSingleton@VCCameraManager@@@@0PAVCCameraManager@@A ; CSingleton<CCameraManager>::ms_singleton
  0003b	89 45 f4	 mov	 DWORD PTR $T1[ebp], eax
; File D:\Metin2 Server Files\mainline\SRC_2014\Metin2Client\UserInterface\PythonApplicationModule.cpp

; 902  : 	CCamera * pCamera = CCameraManager::Instance().GetCurrentCamera();

  0003e	8b 4d f4	 mov	 ecx, DWORD PTR $T1[ebp]
  00041	e8 00 00 00 00	 call	 ?GetCurrentCamera@CCameraManager@@QAEPAVCCamera@@XZ ; CCameraManager::GetCurrentCamera
  00046	89 45 f8	 mov	 DWORD PTR _pCamera$[ebp], eax

; 903  : 	if (pCamera)

  00049	83 7d f8 00	 cmp	 DWORD PTR _pCamera$[ebp], 0
  0004d	74 1b		 je	 SHORT $LN3@appSetCame

; 904  : 		pCamera->SetResistance(float(iPercentage) / 100.0f);

  0004f	f3 0f 2a 45 fc	 cvtsi2ss xmm0, DWORD PTR _iPercentage$[ebp]
  00054	f3 0f 5e 05 00
	00 00 00	 divss	 xmm0, DWORD PTR __real@42c80000
  0005c	51		 push	 ecx
  0005d	f3 0f 11 04 24	 movss	 DWORD PTR [esp], xmm0
  00062	8b 4d f8	 mov	 ecx, DWORD PTR _pCamera$[ebp]
  00065	e8 00 00 00 00	 call	 ?SetResistance@CCamera@@QAEXM@Z ; CCamera::SetResistance
$LN3@appSetCame:

; 905  : 	return Py_BuildNone();

  0006a	e8 00 00 00 00	 call	 ?Py_BuildNone@@YAPAU_object@@XZ ; Py_BuildNone
$LN1@appSetCame:

; 906  : }

  0006f	c9		 leave
  00070	c3		 ret	 0
?appSetCameraSpeed@@YAPAU_object@@PAU1@0@Z ENDP		; appSetCameraSpeed
_TEXT	ENDS
; Function compile flags: /Odspy
; File D:\Metin2 Server Files\mainline\SRC_2014\Metin2Client\UserInterface\PythonApplicationModule.cpp
;	COMDAT ?appEnableSpecialCameraMode@@YAPAU_object@@PAU1@0@Z
_TEXT	SEGMENT
_poSelf$ = 8						; size = 4
_poArgs$ = 12						; size = 4
?appEnableSpecialCameraMode@@YAPAU_object@@PAU1@0@Z PROC ; appEnableSpecialCameraMode, COMDAT

; 889  : {

  00000	55		 push	 ebp
  00001	8b ec		 mov	 ebp, esp

; 890  : 	CPythonApplication::Instance().EnableSpecialCameraMode();

  00003	8b 0d 00 00 00
	00		 mov	 ecx, DWORD PTR ?ms_pInstance@CPythonApplication@@1PAV1@A ; CPythonApplication::ms_pInstance
  00009	e8 00 00 00 00	 call	 ?EnableSpecialCameraMode@CPythonApplication@@QAEXXZ ; CPythonApplication::EnableSpecialCameraMode

; 891  : 	return Py_BuildNone();

  0000e	e8 00 00 00 00	 call	 ?Py_BuildNone@@YAPAU_object@@XZ ; Py_BuildNone

; 892  : }

  00013	5d		 pop	 ebp
  00014	c3		 ret	 0
?appEnableSpecialCameraMode@@YAPAU_object@@PAU1@0@Z ENDP ; appEnableSpecialCameraMode
_TEXT	ENDS
; Function compile flags: /Odspy
; File D:\Metin2 Server Files\mainline\SRC_2014\Metin2Client\UserInterface\PythonApplicationModule.cpp
;	COMDAT ?appSetGuildSymbolPath@@YAPAU_object@@PAU1@0@Z
_TEXT	SEGMENT
_szPathName$ = -4					; size = 4
_poSelf$ = 8						; size = 4
_poArgs$ = 12						; size = 4
?appSetGuildSymbolPath@@YAPAU_object@@PAU1@0@Z PROC	; appSetGuildSymbolPath, COMDAT

; 878  : {

  00000	55		 push	 ebp
  00001	8b ec		 mov	 ebp, esp
  00003	51		 push	 ecx

; 879  : 	char * szPathName;
; 880  : 	if (!PyTuple_GetString(poArgs, 0, &szPathName))

  00004	8d 45 fc	 lea	 eax, DWORD PTR _szPathName$[ebp]
  00007	50		 push	 eax
  00008	6a 00		 push	 0
  0000a	ff 75 0c	 push	 DWORD PTR _poArgs$[ebp]
  0000d	e8 00 00 00 00	 call	 ?PyTuple_GetString@@YA_NPAU_object@@HPAPAD@Z ; PyTuple_GetString
  00012	83 c4 0c	 add	 esp, 12			; 0000000cH
  00015	0f b6 c0	 movzx	 eax, al
  00018	85 c0		 test	 eax, eax
  0001a	75 0a		 jne	 SHORT $LN2@appSetGuil

; 881  : 		return Py_BuildException();

  0001c	6a 00		 push	 0
  0001e	e8 00 00 00 00	 call	 ?Py_BuildException@@YAPAU_object@@PBDZZ ; Py_BuildException
  00023	59		 pop	 ecx
  00024	eb 0e		 jmp	 SHORT $LN1@appSetGuil
$LN2@appSetGuil:

; 882  : 
; 883  : 	SetGuildSymbolPath(szPathName);

  00026	ff 75 fc	 push	 DWORD PTR _szPathName$[ebp]
  00029	e8 00 00 00 00	 call	 ?SetGuildSymbolPath@@YAXPBD@Z ; SetGuildSymbolPath
  0002e	59		 pop	 ecx

; 884  : 
; 885  : 	return Py_BuildNone();

  0002f	e8 00 00 00 00	 call	 ?Py_BuildNone@@YAPAU_object@@XZ ; Py_BuildNone
$LN1@appSetGuil:

; 886  : }

  00034	c9		 leave
  00035	c3		 ret	 0
?appSetGuildSymbolPath@@YAPAU_object@@PAU1@0@Z ENDP	; appSetGuildSymbolPath
_TEXT	ENDS
; Function compile flags: /Odspy
; File D:\Metin2 Server Files\mainline\SRC_2014\Metin2Client\UserInterface\PythonApplicationModule.cpp
;	COMDAT ?appSetDefaultFontName@@YAPAU_object@@PAU1@0@Z
_TEXT	SEGMENT
_szFontName$ = -4					; size = 4
_poSelf$ = 8						; size = 4
_poArgs$ = 12						; size = 4
?appSetDefaultFontName@@YAPAU_object@@PAU1@0@Z PROC	; appSetDefaultFontName, COMDAT

; 865  : {

  00000	55		 push	 ebp
  00001	8b ec		 mov	 ebp, esp
  00003	51		 push	 ecx

; 866  : 	char * szFontName;
; 867  : 	if (!PyTuple_GetString(poArgs, 0, &szFontName))

  00004	8d 45 fc	 lea	 eax, DWORD PTR _szFontName$[ebp]
  00007	50		 push	 eax
  00008	6a 00		 push	 0
  0000a	ff 75 0c	 push	 DWORD PTR _poArgs$[ebp]
  0000d	e8 00 00 00 00	 call	 ?PyTuple_GetString@@YA_NPAU_object@@HPAPAD@Z ; PyTuple_GetString
  00012	83 c4 0c	 add	 esp, 12			; 0000000cH
  00015	0f b6 c0	 movzx	 eax, al
  00018	85 c0		 test	 eax, eax
  0001a	75 0a		 jne	 SHORT $LN2@appSetDefa

; 868  : 		return Py_BuildException();

  0001c	6a 00		 push	 0
  0001e	e8 00 00 00 00	 call	 ?Py_BuildException@@YAPAU_object@@PBDZZ ; Py_BuildException
  00023	59		 pop	 ecx
  00024	eb 0e		 jmp	 SHORT $LN1@appSetDefa
$LN2@appSetDefa:

; 869  : 
; 870  : 	// DEFAULT_FONT
; 871  : 	DefaultFont_SetName(szFontName);

  00026	ff 75 fc	 push	 DWORD PTR _szFontName$[ebp]
  00029	e8 00 00 00 00	 call	 ?DefaultFont_SetName@@YAXPBD@Z ; DefaultFont_SetName
  0002e	59		 pop	 ecx

; 872  : 	// END_OF_DEFAULT_FONT
; 873  : 
; 874  : 	return Py_BuildNone();

  0002f	e8 00 00 00 00	 call	 ?Py_BuildNone@@YAPAU_object@@XZ ; Py_BuildNone
$LN1@appSetDefa:

; 875  : }

  00034	c9		 leave
  00035	c3		 ret	 0
?appSetDefaultFontName@@YAPAU_object@@PAU1@0@Z ENDP	; appSetDefaultFontName
_TEXT	ENDS
; Function compile flags: /Odspy
; File D:\Metin2 Server Files\mainline\SRC_2014\Metin2Client\UserInterface\PythonApplicationModule.cpp
;	COMDAT ?appSleep@@YAPAU_object@@PAU1@0@Z
_TEXT	SEGMENT
_iTime$ = -4						; size = 4
_poSelf$ = 8						; size = 4
_poArgs$ = 12						; size = 4
?appSleep@@YAPAU_object@@PAU1@0@Z PROC			; appSleep, COMDAT

; 854  : {

  00000	55		 push	 ebp
  00001	8b ec		 mov	 ebp, esp
  00003	51		 push	 ecx

; 855  : 	int	iTime;
; 856  : 	if (!PyTuple_GetInteger(poArgs, 0, &iTime))

  00004	8d 45 fc	 lea	 eax, DWORD PTR _iTime$[ebp]
  00007	50		 push	 eax
  00008	6a 00		 push	 0
  0000a	ff 75 0c	 push	 DWORD PTR _poArgs$[ebp]
  0000d	e8 00 00 00 00	 call	 ?PyTuple_GetInteger@@YA_NPAU_object@@HPAH@Z ; PyTuple_GetInteger
  00012	83 c4 0c	 add	 esp, 12			; 0000000cH
  00015	0f b6 c0	 movzx	 eax, al
  00018	85 c0		 test	 eax, eax
  0001a	75 0a		 jne	 SHORT $LN2@appSleep

; 857  : 		return Py_BuildException();

  0001c	6a 00		 push	 0
  0001e	e8 00 00 00 00	 call	 ?Py_BuildException@@YAPAU_object@@PBDZZ ; Py_BuildException
  00023	59		 pop	 ecx
  00024	eb 0e		 jmp	 SHORT $LN1@appSleep
$LN2@appSleep:

; 858  : 
; 859  : 	Sleep(iTime);

  00026	ff 75 fc	 push	 DWORD PTR _iTime$[ebp]
  00029	ff 15 00 00 00
	00		 call	 DWORD PTR __imp__Sleep@4

; 860  : 
; 861  : 	return Py_BuildNone();

  0002f	e8 00 00 00 00	 call	 ?Py_BuildNone@@YAPAU_object@@XZ ; Py_BuildNone
$LN1@appSleep:

; 862  : }

  00034	c9		 leave
  00035	c3		 ret	 0
?appSleep@@YAPAU_object@@PAU1@0@Z ENDP			; appSleep
_TEXT	ENDS
; Function compile flags: /Odspy
; File D:\Metin2 Server Files\mainline\SRC_2014\Metin2Client\UserInterface\PythonApplicationModule.cpp
;	COMDAT ?appGetDegreeDifference@@YAPAU_object@@PAU1@0@Z
_TEXT	SEGMENT
_fSource$ = -8						; size = 4
_fTarget$ = -4						; size = 4
_poSelf$ = 8						; size = 4
_poArgs$ = 12						; size = 4
?appGetDegreeDifference@@YAPAU_object@@PAU1@0@Z PROC	; appGetDegreeDifference, COMDAT

; 842  : {

  00000	55		 push	 ebp
  00001	8b ec		 mov	 ebp, esp
  00003	51		 push	 ecx
  00004	51		 push	 ecx

; 843  : 	float fSource;
; 844  : 	if (!PyTuple_GetFloat(poArgs, 0, &fSource))

  00005	8d 45 f8	 lea	 eax, DWORD PTR _fSource$[ebp]
  00008	50		 push	 eax
  00009	6a 00		 push	 0
  0000b	ff 75 0c	 push	 DWORD PTR _poArgs$[ebp]
  0000e	e8 00 00 00 00	 call	 ?PyTuple_GetFloat@@YA_NPAU_object@@HPAM@Z ; PyTuple_GetFloat
  00013	83 c4 0c	 add	 esp, 12			; 0000000cH
  00016	0f b6 c0	 movzx	 eax, al
  00019	85 c0		 test	 eax, eax
  0001b	75 0a		 jne	 SHORT $LN2@appGetDegr

; 845  : 		return Py_BuildException();

  0001d	6a 00		 push	 0
  0001f	e8 00 00 00 00	 call	 ?Py_BuildException@@YAPAU_object@@PBDZZ ; Py_BuildException
  00024	59		 pop	 ecx
  00025	eb 52		 jmp	 SHORT $LN1@appGetDegr
$LN2@appGetDegr:

; 846  : 	float fTarget;
; 847  : 	if (!PyTuple_GetFloat(poArgs, 1, &fTarget))

  00027	8d 45 fc	 lea	 eax, DWORD PTR _fTarget$[ebp]
  0002a	50		 push	 eax
  0002b	6a 01		 push	 1
  0002d	ff 75 0c	 push	 DWORD PTR _poArgs$[ebp]
  00030	e8 00 00 00 00	 call	 ?PyTuple_GetFloat@@YA_NPAU_object@@HPAM@Z ; PyTuple_GetFloat
  00035	83 c4 0c	 add	 esp, 12			; 0000000cH
  00038	0f b6 c0	 movzx	 eax, al
  0003b	85 c0		 test	 eax, eax
  0003d	75 0a		 jne	 SHORT $LN3@appGetDegr

; 848  : 		return Py_BuildException();

  0003f	6a 00		 push	 0
  00041	e8 00 00 00 00	 call	 ?Py_BuildException@@YAPAU_object@@PBDZZ ; Py_BuildException
  00046	59		 pop	 ecx
  00047	eb 30		 jmp	 SHORT $LN1@appGetDegr
$LN3@appGetDegr:

; 849  : 
; 850  : 	return Py_BuildValue("f", GetDegreeDifference(fSource, fTarget));

  00049	51		 push	 ecx
  0004a	f3 0f 10 45 fc	 movss	 xmm0, DWORD PTR _fTarget$[ebp]
  0004f	f3 0f 11 04 24	 movss	 DWORD PTR [esp], xmm0
  00054	51		 push	 ecx
  00055	f3 0f 10 45 f8	 movss	 xmm0, DWORD PTR _fSource$[ebp]
  0005a	f3 0f 11 04 24	 movss	 DWORD PTR [esp], xmm0
  0005f	e8 00 00 00 00	 call	 ?GetDegreeDifference@@YAMMM@Z ; GetDegreeDifference
  00064	59		 pop	 ecx
  00065	59		 pop	 ecx
  00066	51		 push	 ecx
  00067	51		 push	 ecx
  00068	dd 1c 24	 fstp	 QWORD PTR [esp]
  0006b	68 00 00 00 00	 push	 OFFSET ??_C@_01INIBCBCB@f@
  00070	ff 15 00 00 00
	00		 call	 DWORD PTR __imp__Py_BuildValue
  00076	83 c4 0c	 add	 esp, 12			; 0000000cH
$LN1@appGetDegr:

; 851  : }

  00079	c9		 leave
  0007a	c3		 ret	 0
?appGetDegreeDifference@@YAPAU_object@@PAU1@0@Z ENDP	; appGetDegreeDifference
_TEXT	ENDS
; Function compile flags: /Odspy
; File D:\Metin2 Server Files\mainline\SRC_2014\Metin2Client\UserInterface\PythonApplicationModule.cpp
;	COMDAT ?appGetRotatingDirection@@YAPAU_object@@PAU1@0@Z
_TEXT	SEGMENT
_fSource$ = -8						; size = 4
_fTarget$ = -4						; size = 4
_poSelf$ = 8						; size = 4
_poArgs$ = 12						; size = 4
?appGetRotatingDirection@@YAPAU_object@@PAU1@0@Z PROC	; appGetRotatingDirection, COMDAT

; 830  : {

  00000	55		 push	 ebp
  00001	8b ec		 mov	 ebp, esp
  00003	51		 push	 ecx
  00004	51		 push	 ecx

; 831  : 	float fSource;
; 832  : 	if (!PyTuple_GetFloat(poArgs, 0, &fSource))

  00005	8d 45 f8	 lea	 eax, DWORD PTR _fSource$[ebp]
  00008	50		 push	 eax
  00009	6a 00		 push	 0
  0000b	ff 75 0c	 push	 DWORD PTR _poArgs$[ebp]
  0000e	e8 00 00 00 00	 call	 ?PyTuple_GetFloat@@YA_NPAU_object@@HPAM@Z ; PyTuple_GetFloat
  00013	83 c4 0c	 add	 esp, 12			; 0000000cH
  00016	0f b6 c0	 movzx	 eax, al
  00019	85 c0		 test	 eax, eax
  0001b	75 0a		 jne	 SHORT $LN2@appGetRota

; 833  : 		return Py_BuildException();

  0001d	6a 00		 push	 0
  0001f	e8 00 00 00 00	 call	 ?Py_BuildException@@YAPAU_object@@PBDZZ ; Py_BuildException
  00024	59		 pop	 ecx
  00025	eb 4d		 jmp	 SHORT $LN1@appGetRota
$LN2@appGetRota:

; 834  : 	float fTarget;
; 835  : 	if (!PyTuple_GetFloat(poArgs, 1, &fTarget))

  00027	8d 45 fc	 lea	 eax, DWORD PTR _fTarget$[ebp]
  0002a	50		 push	 eax
  0002b	6a 01		 push	 1
  0002d	ff 75 0c	 push	 DWORD PTR _poArgs$[ebp]
  00030	e8 00 00 00 00	 call	 ?PyTuple_GetFloat@@YA_NPAU_object@@HPAM@Z ; PyTuple_GetFloat
  00035	83 c4 0c	 add	 esp, 12			; 0000000cH
  00038	0f b6 c0	 movzx	 eax, al
  0003b	85 c0		 test	 eax, eax
  0003d	75 0a		 jne	 SHORT $LN3@appGetRota

; 836  : 		return Py_BuildException();

  0003f	6a 00		 push	 0
  00041	e8 00 00 00 00	 call	 ?Py_BuildException@@YAPAU_object@@PBDZZ ; Py_BuildException
  00046	59		 pop	 ecx
  00047	eb 2b		 jmp	 SHORT $LN1@appGetRota
$LN3@appGetRota:

; 837  : 
; 838  : 	return Py_BuildValue("i", GetRotatingDirection(fSource, fTarget));

  00049	51		 push	 ecx
  0004a	f3 0f 10 45 fc	 movss	 xmm0, DWORD PTR _fTarget$[ebp]
  0004f	f3 0f 11 04 24	 movss	 DWORD PTR [esp], xmm0
  00054	51		 push	 ecx
  00055	f3 0f 10 45 f8	 movss	 xmm0, DWORD PTR _fSource$[ebp]
  0005a	f3 0f 11 04 24	 movss	 DWORD PTR [esp], xmm0
  0005f	e8 00 00 00 00	 call	 ?GetRotatingDirection@@YAHMM@Z ; GetRotatingDirection
  00064	59		 pop	 ecx
  00065	59		 pop	 ecx
  00066	50		 push	 eax
  00067	68 00 00 00 00	 push	 OFFSET ??_C@_01KBJDNOO@i@
  0006c	ff 15 00 00 00
	00		 call	 DWORD PTR __imp__Py_BuildValue
  00072	59		 pop	 ecx
  00073	59		 pop	 ecx
$LN1@appGetRota:

; 839  : }

  00074	c9		 leave
  00075	c3		 ret	 0
?appGetRotatingDirection@@YAPAU_object@@PAU1@0@Z ENDP	; appGetRotatingDirection
_TEXT	ENDS
; Function compile flags: /Odspy
; File D:\Metin2 Server Files\mainline\SRC_2014\Metin2Client\UserInterface\PythonApplicationModule.cpp
;	COMDAT ?appGetRandom@@YAPAU_object@@PAU1@0@Z
_TEXT	SEGMENT
_tmp$1 = -12						; size = 4
_from$ = -8						; size = 4
_to$ = -4						; size = 4
_poSelf$ = 8						; size = 4
_poArgs$ = 12						; size = 4
?appGetRandom@@YAPAU_object@@PAU1@0@Z PROC		; appGetRandom, COMDAT

; 810  : {

  00000	55		 push	 ebp
  00001	8b ec		 mov	 ebp, esp
  00003	83 ec 0c	 sub	 esp, 12			; 0000000cH

; 811  : 	int from;
; 812  : 	if (!PyTuple_GetInteger(poArgs, 0, &from))

  00006	8d 45 f8	 lea	 eax, DWORD PTR _from$[ebp]
  00009	50		 push	 eax
  0000a	6a 00		 push	 0
  0000c	ff 75 0c	 push	 DWORD PTR _poArgs$[ebp]
  0000f	e8 00 00 00 00	 call	 ?PyTuple_GetInteger@@YA_NPAU_object@@HPAH@Z ; PyTuple_GetInteger
  00014	83 c4 0c	 add	 esp, 12			; 0000000cH
  00017	0f b6 c0	 movzx	 eax, al
  0001a	85 c0		 test	 eax, eax
  0001c	75 0a		 jne	 SHORT $LN2@appGetRand

; 813  : 		return Py_BuildException();

  0001e	6a 00		 push	 0
  00020	e8 00 00 00 00	 call	 ?Py_BuildException@@YAPAU_object@@PBDZZ ; Py_BuildException
  00025	59		 pop	 ecx
  00026	eb 57		 jmp	 SHORT $LN1@appGetRand
$LN2@appGetRand:

; 814  : 
; 815  : 	int	to;
; 816  : 	if (!PyTuple_GetInteger(poArgs, 1, &to))

  00028	8d 45 fc	 lea	 eax, DWORD PTR _to$[ebp]
  0002b	50		 push	 eax
  0002c	6a 01		 push	 1
  0002e	ff 75 0c	 push	 DWORD PTR _poArgs$[ebp]
  00031	e8 00 00 00 00	 call	 ?PyTuple_GetInteger@@YA_NPAU_object@@HPAH@Z ; PyTuple_GetInteger
  00036	83 c4 0c	 add	 esp, 12			; 0000000cH
  00039	0f b6 c0	 movzx	 eax, al
  0003c	85 c0		 test	 eax, eax
  0003e	75 0a		 jne	 SHORT $LN3@appGetRand

; 817  : 		return Py_BuildException();

  00040	6a 00		 push	 0
  00042	e8 00 00 00 00	 call	 ?Py_BuildException@@YAPAU_object@@PBDZZ ; Py_BuildException
  00047	59		 pop	 ecx
  00048	eb 35		 jmp	 SHORT $LN1@appGetRand
$LN3@appGetRand:

; 818  : 
; 819  : 	if (from > to)

  0004a	8b 45 f8	 mov	 eax, DWORD PTR _from$[ebp]
  0004d	3b 45 fc	 cmp	 eax, DWORD PTR _to$[ebp]
  00050	7e 12		 jle	 SHORT $LN4@appGetRand

; 820  : 	{
; 821  : 		int tmp = from;

  00052	8b 45 f8	 mov	 eax, DWORD PTR _from$[ebp]
  00055	89 45 f4	 mov	 DWORD PTR _tmp$1[ebp], eax

; 822  : 		from = to;

  00058	8b 45 fc	 mov	 eax, DWORD PTR _to$[ebp]
  0005b	89 45 f8	 mov	 DWORD PTR _from$[ebp], eax

; 823  : 		to = tmp;

  0005e	8b 45 f4	 mov	 eax, DWORD PTR _tmp$1[ebp]
  00061	89 45 fc	 mov	 DWORD PTR _to$[ebp], eax
$LN4@appGetRand:

; 824  : 	}
; 825  : 
; 826  : 	return Py_BuildValue("i", random_range(from, to));

  00064	ff 75 fc	 push	 DWORD PTR _to$[ebp]
  00067	ff 75 f8	 push	 DWORD PTR _from$[ebp]
  0006a	e8 00 00 00 00	 call	 ?random_range@@YAJJJ@Z	; random_range
  0006f	59		 pop	 ecx
  00070	59		 pop	 ecx
  00071	50		 push	 eax
  00072	68 00 00 00 00	 push	 OFFSET ??_C@_01KBJDNOO@i@
  00077	ff 15 00 00 00
	00		 call	 DWORD PTR __imp__Py_BuildValue
  0007d	59		 pop	 ecx
  0007e	59		 pop	 ecx
$LN1@appGetRand:

; 827  : }

  0007f	c9		 leave
  00080	c3		 ret	 0
?appGetRandom@@YAPAU_object@@PAU1@0@Z ENDP		; appGetRandom
_TEXT	ENDS
; Function compile flags: /Odspy
; File D:\Metin2 Server Files\mainline\SRC_2014\Metin2Client\UserInterface\PythonApplicationModule.cpp
; File C:\Program Files (x86)\Microsoft Visual Studio\2019\Community\VC\Tools\MSVC\14.28.29333\include\xstring
; File D:\Metin2 Server Files\mainline\SRC_2014\Metin2Client\UserInterface\PythonApplicationModule.cpp
;	COMDAT ?appGetConnectData@@YAPAU_object@@PAU1@0@Z
_TEXT	SEGMENT
$T2 = -48						; size = 4
_iPort$ = -44						; size = 4
_strIP$ = -40						; size = 24
__$ArrayPad$ = -16					; size = 4
__$EHRec$ = -12						; size = 12
_poSelf$ = 8						; size = 4
_poArgs$ = 12						; size = 4
?appGetConnectData@@YAPAU_object@@PAU1@0@Z PROC		; appGetConnectData, COMDAT

; 800  : {

  00000	55		 push	 ebp
  00001	8b ec		 mov	 ebp, esp
  00003	6a ff		 push	 -1
  00005	68 00 00 00 00	 push	 __ehhandler$?appGetConnectData@@YAPAU_object@@PAU1@0@Z
  0000a	64 a1 00 00 00
	00		 mov	 eax, DWORD PTR fs:0
  00010	50		 push	 eax
  00011	83 ec 24	 sub	 esp, 36			; 00000024H
  00014	a1 00 00 00 00	 mov	 eax, DWORD PTR ___security_cookie
  00019	33 c5		 xor	 eax, ebp
  0001b	89 45 f0	 mov	 DWORD PTR __$ArrayPad$[ebp], eax
  0001e	50		 push	 eax
  0001f	8d 45 f4	 lea	 eax, DWORD PTR __$EHRec$[ebp]
  00022	64 a3 00 00 00
	00		 mov	 DWORD PTR fs:0, eax

; 801  : 	std::string strIP;

  00028	8d 4d d8	 lea	 ecx, DWORD PTR _strIP$[ebp]
  0002b	e8 00 00 00 00	 call	 ??0?$basic_string@DU?$char_traits@D@std@@V?$allocator@D@2@@std@@QAE@XZ ; std::basic_string<char,std::char_traits<char>,std::allocator<char> >::basic_string<char,std::char_traits<char>,std::allocator<char> >
  00030	83 65 fc 00	 and	 DWORD PTR __$EHRec$[ebp+8], 0

; 802  : 	int iPort;
; 803  : 
; 804  : 	CPythonApplication::Instance().GetConnectData(strIP, iPort);

  00034	8d 45 d4	 lea	 eax, DWORD PTR _iPort$[ebp]
  00037	50		 push	 eax
  00038	8d 45 d8	 lea	 eax, DWORD PTR _strIP$[ebp]
  0003b	50		 push	 eax
  0003c	8b 0d 00 00 00
	00		 mov	 ecx, DWORD PTR ?ms_pInstance@CPythonApplication@@1PAV1@A ; CPythonApplication::ms_pInstance
  00042	e8 00 00 00 00	 call	 ?GetConnectData@CPythonApplication@@QAEXAAV?$basic_string@DU?$char_traits@D@std@@V?$allocator@D@2@@std@@AAH@Z ; CPythonApplication::GetConnectData

; 806  : 	return Py_BuildValue("si", strIP.c_str(), iPort);

  00047	ff 75 d4	 push	 DWORD PTR _iPort$[ebp]
  0004a	8d 4d d8	 lea	 ecx, DWORD PTR _strIP$[ebp]
  0004d	e8 00 00 00 00	 call	 ?c_str@?$basic_string@DU?$char_traits@D@std@@V?$allocator@D@2@@std@@QBEPBDXZ ; std::basic_string<char,std::char_traits<char>,std::allocator<char> >::c_str
  00052	50		 push	 eax
  00053	68 00 00 00 00	 push	 OFFSET ??_C@_02OCDGCAAK@si@
  00058	ff 15 00 00 00
	00		 call	 DWORD PTR __imp__Py_BuildValue
  0005e	83 c4 0c	 add	 esp, 12			; 0000000cH
  00061	89 45 d0	 mov	 DWORD PTR $T2[ebp], eax
  00064	83 4d fc ff	 or	 DWORD PTR __$EHRec$[ebp+8], -1
; File C:\Program Files (x86)\Microsoft Visual Studio\2019\Community\VC\Tools\MSVC\14.28.29333\include\xstring

; 2801 :         _Tidy_deallocate();

  00068	8d 4d d8	 lea	 ecx, DWORD PTR _strIP$[ebp]
  0006b	e8 00 00 00 00	 call	 ?_Tidy_deallocate@?$basic_string@DU?$char_traits@D@std@@V?$allocator@D@2@@std@@AAEXXZ ; std::basic_string<char,std::char_traits<char>,std::allocator<char> >::_Tidy_deallocate
; File D:\Metin2 Server Files\mainline\SRC_2014\Metin2Client\UserInterface\PythonApplicationModule.cpp

; 806  : 	return Py_BuildValue("si", strIP.c_str(), iPort);

  00070	8b 45 d0	 mov	 eax, DWORD PTR $T2[ebp]

; 807  : }

  00073	8b 4d f4	 mov	 ecx, DWORD PTR __$EHRec$[ebp]
  00076	64 89 0d 00 00
	00 00		 mov	 DWORD PTR fs:0, ecx
  0007d	59		 pop	 ecx
  0007e	8b 4d f0	 mov	 ecx, DWORD PTR __$ArrayPad$[ebp]
  00081	33 cd		 xor	 ecx, ebp
  00083	e8 00 00 00 00	 call	 @__security_check_cookie@4
  00088	c9		 leave
  00089	c3		 ret	 0
_TEXT	ENDS
;	COMDAT text$x
text$x	SEGMENT
__unwindfunclet$?appGetConnectData@@YAPAU_object@@PAU1@0@Z$0:
  00000	8d 4d d8	 lea	 ecx, DWORD PTR _strIP$[ebp]
  00003	e9 00 00 00 00	 jmp	 ??1?$basic_string@DU?$char_traits@D@std@@V?$allocator@D@2@@std@@QAE@XZ ; std::basic_string<char,std::char_traits<char>,std::allocator<char> >::~basic_string<char,std::char_traits<char>,std::allocator<char> >
  00008	cc		 int	 3
  00009	cc		 int	 3
  0000a	cc		 int	 3
  0000b	cc		 int	 3
  0000c	cc		 int	 3
__ehhandler$?appGetConnectData@@YAPAU_object@@PAU1@0@Z:
  0000d	90		 npad	 1
  0000e	90		 npad	 1
  0000f	8b 54 24 08	 mov	 edx, DWORD PTR [esp+8]
  00013	8d 42 0c	 lea	 eax, DWORD PTR [edx+12]
  00016	8b 4a d8	 mov	 ecx, DWORD PTR [edx-40]
  00019	33 c8		 xor	 ecx, eax
  0001b	e8 00 00 00 00	 call	 @__security_check_cookie@4
  00020	8b 4a fc	 mov	 ecx, DWORD PTR [edx-4]
  00023	33 c8		 xor	 ecx, eax
  00025	e8 00 00 00 00	 call	 @__security_check_cookie@4
  0002a	b8 00 00 00 00	 mov	 eax, OFFSET __ehfuncinfo$?appGetConnectData@@YAPAU_object@@PAU1@0@Z
  0002f	e9 00 00 00 00	 jmp	 ___CxxFrameHandler3
text$x	ENDS
?appGetConnectData@@YAPAU_object@@PAU1@0@Z ENDP		; appGetConnectData
; Function compile flags: /Odspy
; File D:\Metin2 Server Files\mainline\SRC_2014\Metin2Client\UserInterface\PythonApplicationModule.cpp
;	COMDAT ?appSetConnectData@@YAPAU_object@@PAU1@0@Z
_TEXT	SEGMENT
_szIP$ = -8						; size = 4
_iPort$ = -4						; size = 4
_poSelf$ = 8						; size = 4
_poArgs$ = 12						; size = 4
?appSetConnectData@@YAPAU_object@@PAU1@0@Z PROC		; appSetConnectData, COMDAT

; 785  : {

  00000	55		 push	 ebp
  00001	8b ec		 mov	 ebp, esp
  00003	51		 push	 ecx
  00004	51		 push	 ecx

; 786  : 	char * szIP;
; 787  : 	if (!PyTuple_GetString(poArgs, 0, &szIP))

  00005	8d 45 f8	 lea	 eax, DWORD PTR _szIP$[ebp]
  00008	50		 push	 eax
  00009	6a 00		 push	 0
  0000b	ff 75 0c	 push	 DWORD PTR _poArgs$[ebp]
  0000e	e8 00 00 00 00	 call	 ?PyTuple_GetString@@YA_NPAU_object@@HPAPAD@Z ; PyTuple_GetString
  00013	83 c4 0c	 add	 esp, 12			; 0000000cH
  00016	0f b6 c0	 movzx	 eax, al
  00019	85 c0		 test	 eax, eax
  0001b	75 0a		 jne	 SHORT $LN2@appSetConn

; 788  : 		return Py_BuildException();

  0001d	6a 00		 push	 0
  0001f	e8 00 00 00 00	 call	 ?Py_BuildException@@YAPAU_object@@PBDZZ ; Py_BuildException
  00024	59		 pop	 ecx
  00025	eb 38		 jmp	 SHORT $LN1@appSetConn
$LN2@appSetConn:

; 789  : 
; 790  : 	int	iPort;
; 791  : 	if (!PyTuple_GetInteger(poArgs, 1, &iPort))

  00027	8d 45 fc	 lea	 eax, DWORD PTR _iPort$[ebp]
  0002a	50		 push	 eax
  0002b	6a 01		 push	 1
  0002d	ff 75 0c	 push	 DWORD PTR _poArgs$[ebp]
  00030	e8 00 00 00 00	 call	 ?PyTuple_GetInteger@@YA_NPAU_object@@HPAH@Z ; PyTuple_GetInteger
  00035	83 c4 0c	 add	 esp, 12			; 0000000cH
  00038	0f b6 c0	 movzx	 eax, al
  0003b	85 c0		 test	 eax, eax
  0003d	75 0a		 jne	 SHORT $LN5@appSetConn

; 792  : 		return Py_BuildException();

  0003f	6a 00		 push	 0
  00041	e8 00 00 00 00	 call	 ?Py_BuildException@@YAPAU_object@@PBDZZ ; Py_BuildException
  00046	59		 pop	 ecx
  00047	eb 16		 jmp	 SHORT $LN1@appSetConn
$LN5@appSetConn:

; 793  : 
; 794  : 	CPythonApplication::Instance().SetConnectData(szIP, iPort);

  00049	ff 75 fc	 push	 DWORD PTR _iPort$[ebp]
  0004c	ff 75 f8	 push	 DWORD PTR _szIP$[ebp]
  0004f	8b 0d 00 00 00
	00		 mov	 ecx, DWORD PTR ?ms_pInstance@CPythonApplication@@1PAV1@A ; CPythonApplication::ms_pInstance
  00055	e8 00 00 00 00	 call	 ?SetConnectData@CPythonApplication@@QAEXPBDH@Z ; CPythonApplication::SetConnectData

; 795  : 
; 796  : 	return Py_BuildNone();

  0005a	e8 00 00 00 00	 call	 ?Py_BuildNone@@YAPAU_object@@XZ ; Py_BuildNone
$LN1@appSetConn:

; 797  : }

  0005f	c9		 leave
  00060	c3		 ret	 0
?appSetConnectData@@YAPAU_object@@PAU1@0@Z ENDP		; appSetConnectData
_TEXT	ENDS
; Function compile flags: /Odspy
; File D:\Metin2 Server Files\mainline\SRC_2014\Metin2Client\UserInterface\PythonApplicationModule.cpp
;	COMDAT ?appSetHardwareCursor@@YAPAU_object@@PAU1@0@Z
_TEXT	SEGMENT
_poSelf$ = 8						; size = 4
_poArgs$ = 12						; size = 4
?appSetHardwareCursor@@YAPAU_object@@PAU1@0@Z PROC	; appSetHardwareCursor, COMDAT

; 779  : {

  00000	55		 push	 ebp
  00001	8b ec		 mov	 ebp, esp

; 780  : 	CPythonApplication::Instance().SetCursorMode(CPythonApplication::CURSOR_MODE_HARDWARE);

  00003	6a 00		 push	 0
  00005	8b 0d 00 00 00
	00		 mov	 ecx, DWORD PTR ?ms_pInstance@CPythonApplication@@1PAV1@A ; CPythonApplication::ms_pInstance
  0000b	e8 00 00 00 00	 call	 ?SetCursorMode@CPythonApplication@@QAEXH@Z ; CPythonApplication::SetCursorMode

; 781  : 	return Py_BuildNone();

  00010	e8 00 00 00 00	 call	 ?Py_BuildNone@@YAPAU_object@@XZ ; Py_BuildNone

; 782  : }

  00015	5d		 pop	 ebp
  00016	c3		 ret	 0
?appSetHardwareCursor@@YAPAU_object@@PAU1@0@Z ENDP	; appSetHardwareCursor
_TEXT	ENDS
; Function compile flags: /Odspy
; File D:\Metin2 Server Files\mainline\SRC_2014\Metin2Client\UserInterface\PythonApplicationModule.cpp
;	COMDAT ?appSetSoftwareCursor@@YAPAU_object@@PAU1@0@Z
_TEXT	SEGMENT
_poSelf$ = 8						; size = 4
_poArgs$ = 12						; size = 4
?appSetSoftwareCursor@@YAPAU_object@@PAU1@0@Z PROC	; appSetSoftwareCursor, COMDAT

; 773  : {

  00000	55		 push	 ebp
  00001	8b ec		 mov	 ebp, esp

; 774  : 	CPythonApplication::Instance().SetCursorMode(CPythonApplication::CURSOR_MODE_SOFTWARE);

  00003	6a 01		 push	 1
  00005	8b 0d 00 00 00
	00		 mov	 ecx, DWORD PTR ?ms_pInstance@CPythonApplication@@1PAV1@A ; CPythonApplication::ms_pInstance
  0000b	e8 00 00 00 00	 call	 ?SetCursorMode@CPythonApplication@@QAEXH@Z ; CPythonApplication::SetCursorMode

; 775  : 	return Py_BuildNone();

  00010	e8 00 00 00 00	 call	 ?Py_BuildNone@@YAPAU_object@@XZ ; Py_BuildNone

; 776  : }

  00015	5d		 pop	 ebp
  00016	c3		 ret	 0
?appSetSoftwareCursor@@YAPAU_object@@PAU1@0@Z ENDP	; appSetSoftwareCursor
_TEXT	ENDS
; Function compile flags: /Odspy
; File D:\Metin2 Server Files\mainline\SRC_2014\Metin2Client\UserInterface\PythonApplicationModule.cpp
; File D:\Metin2 Server Files\mainline\SRC_2014\Metin2Client\UserInterface\PythonApplication.h
; File D:\Metin2 Server Files\mainline\SRC_2014\Metin2Client\UserInterface\PythonApplicationModule.cpp
;	COMDAT ?appIsLiarCursorOn@@YAPAU_object@@PAU1@0@Z
_TEXT	SEGMENT
$T1 = -8						; size = 4
tv70 = -4						; size = 4
_poSelf$ = 8						; size = 4
_poArgs$ = 12						; size = 4
?appIsLiarCursorOn@@YAPAU_object@@PAU1@0@Z PROC		; appIsLiarCursorOn, COMDAT

; 768  : {

  00000	55		 push	 ebp
  00001	8b ec		 mov	 ebp, esp
  00003	51		 push	 ecx
  00004	51		 push	 ecx
; File D:\Metin2 Server Files\mainline\SRC_2014\Metin2Client\UserInterface\PythonApplication.h

; 143  : 			return *ms_pInstance;

  00005	a1 00 00 00 00	 mov	 eax, DWORD PTR ?ms_pInstance@CPythonApplication@@1PAV1@A ; CPythonApplication::ms_pInstance
  0000a	89 45 f8	 mov	 DWORD PTR $T1[ebp], eax
; File D:\Metin2 Server Files\mainline\SRC_2014\Metin2Client\UserInterface\PythonApplicationModule.cpp

; 769  : 	return Py_BuildValue("i", TRUE == CPythonApplication::Instance().GetLiarCursorOn());

  0000d	8b 4d f8	 mov	 ecx, DWORD PTR $T1[ebp]
  00010	e8 00 00 00 00	 call	 ?GetLiarCursorOn@CPythonApplication@@QAE_NXZ ; CPythonApplication::GetLiarCursorOn
  00015	0f b6 c0	 movzx	 eax, al
  00018	83 f8 01	 cmp	 eax, 1
  0001b	75 09		 jne	 SHORT $LN3@appIsLiarC
  0001d	c7 45 fc 01 00
	00 00		 mov	 DWORD PTR tv70[ebp], 1
  00024	eb 04		 jmp	 SHORT $LN4@appIsLiarC
$LN3@appIsLiarC:
  00026	83 65 fc 00	 and	 DWORD PTR tv70[ebp], 0
$LN4@appIsLiarC:
  0002a	ff 75 fc	 push	 DWORD PTR tv70[ebp]
  0002d	68 00 00 00 00	 push	 OFFSET ??_C@_01KBJDNOO@i@
  00032	ff 15 00 00 00
	00		 call	 DWORD PTR __imp__Py_BuildValue
  00038	59		 pop	 ecx
  00039	59		 pop	 ecx

; 770  : }

  0003a	c9		 leave
  0003b	c3		 ret	 0
?appIsLiarCursorOn@@YAPAU_object@@PAU1@0@Z ENDP		; appIsLiarCursorOn
_TEXT	ENDS
; Function compile flags: /Odspy
; File D:\Metin2 Server Files\mainline\SRC_2014\Metin2Client\UserInterface\PythonApplicationModule.cpp
; File D:\Metin2 Server Files\mainline\SRC_2014\Metin2Client\UserInterface\PythonApplication.h
; File D:\Metin2 Server Files\mainline\SRC_2014\Metin2Client\UserInterface\PythonApplicationModule.cpp
;	COMDAT ?appIsShowCursor@@YAPAU_object@@PAU1@0@Z
_TEXT	SEGMENT
$T1 = -8						; size = 4
tv69 = -4						; size = 4
_poSelf$ = 8						; size = 4
_poArgs$ = 12						; size = 4
?appIsShowCursor@@YAPAU_object@@PAU1@0@Z PROC		; appIsShowCursor, COMDAT

; 763  : {

  00000	55		 push	 ebp
  00001	8b ec		 mov	 ebp, esp
  00003	51		 push	 ecx
  00004	51		 push	 ecx
; File D:\Metin2 Server Files\mainline\SRC_2014\Metin2Client\UserInterface\PythonApplication.h

; 143  : 			return *ms_pInstance;

  00005	a1 00 00 00 00	 mov	 eax, DWORD PTR ?ms_pInstance@CPythonApplication@@1PAV1@A ; CPythonApplication::ms_pInstance
  0000a	89 45 f8	 mov	 DWORD PTR $T1[ebp], eax
; File D:\Metin2 Server Files\mainline\SRC_2014\Metin2Client\UserInterface\PythonApplicationModule.cpp

; 764  : 	return Py_BuildValue("i", TRUE == CPythonApplication::Instance().GetCursorVisible());

  0000d	8b 4d f8	 mov	 ecx, DWORD PTR $T1[ebp]
  00010	e8 00 00 00 00	 call	 ?GetCursorVisible@CPythonApplication@@QAEHXZ ; CPythonApplication::GetCursorVisible
  00015	83 f8 01	 cmp	 eax, 1
  00018	75 09		 jne	 SHORT $LN3@appIsShowC
  0001a	c7 45 fc 01 00
	00 00		 mov	 DWORD PTR tv69[ebp], 1
  00021	eb 04		 jmp	 SHORT $LN4@appIsShowC
$LN3@appIsShowC:
  00023	83 65 fc 00	 and	 DWORD PTR tv69[ebp], 0
$LN4@appIsShowC:
  00027	ff 75 fc	 push	 DWORD PTR tv69[ebp]
  0002a	68 00 00 00 00	 push	 OFFSET ??_C@_01KBJDNOO@i@
  0002f	ff 15 00 00 00
	00		 call	 DWORD PTR __imp__Py_BuildValue
  00035	59		 pop	 ecx
  00036	59		 pop	 ecx

; 765  : }

  00037	c9		 leave
  00038	c3		 ret	 0
?appIsShowCursor@@YAPAU_object@@PAU1@0@Z ENDP		; appIsShowCursor
_TEXT	ENDS
; Function compile flags: /Odspy
; File D:\Metin2 Server Files\mainline\SRC_2014\Metin2Client\UserInterface\PythonApplicationModule.cpp
;	COMDAT ?appHideCursor@@YAPAU_object@@PAU1@0@Z
_TEXT	SEGMENT
_poSelf$ = 8						; size = 4
_poArgs$ = 12						; size = 4
?appHideCursor@@YAPAU_object@@PAU1@0@Z PROC		; appHideCursor, COMDAT

; 756  : {

  00000	55		 push	 ebp
  00001	8b ec		 mov	 ebp, esp

; 757  : 	CPythonApplication::Instance().SetCursorVisible(FALSE);

  00003	6a 00		 push	 0
  00005	6a 00		 push	 0
  00007	8b 0d 00 00 00
	00		 mov	 ecx, DWORD PTR ?ms_pInstance@CPythonApplication@@1PAV1@A ; CPythonApplication::ms_pInstance
  0000d	e8 00 00 00 00	 call	 ?SetCursorVisible@CPythonApplication@@QAEXH_N@Z ; CPythonApplication::SetCursorVisible

; 758  : 
; 759  : 	return Py_BuildNone();

  00012	e8 00 00 00 00	 call	 ?Py_BuildNone@@YAPAU_object@@XZ ; Py_BuildNone

; 760  : }

  00017	5d		 pop	 ebp
  00018	c3		 ret	 0
?appHideCursor@@YAPAU_object@@PAU1@0@Z ENDP		; appHideCursor
_TEXT	ENDS
; Function compile flags: /Odspy
; File D:\Metin2 Server Files\mainline\SRC_2014\Metin2Client\UserInterface\PythonApplicationModule.cpp
;	COMDAT ?appShowCursor@@YAPAU_object@@PAU1@0@Z
_TEXT	SEGMENT
_poSelf$ = 8						; size = 4
_poArgs$ = 12						; size = 4
?appShowCursor@@YAPAU_object@@PAU1@0@Z PROC		; appShowCursor, COMDAT

; 749  : {

  00000	55		 push	 ebp
  00001	8b ec		 mov	 ebp, esp

; 750  : 	CPythonApplication::Instance().SetCursorVisible(TRUE);

  00003	6a 00		 push	 0
  00005	6a 01		 push	 1
  00007	8b 0d 00 00 00
	00		 mov	 ecx, DWORD PTR ?ms_pInstance@CPythonApplication@@1PAV1@A ; CPythonApplication::ms_pInstance
  0000d	e8 00 00 00 00	 call	 ?SetCursorVisible@CPythonApplication@@QAEXH_N@Z ; CPythonApplication::SetCursorVisible

; 751  : 
; 752  : 	return Py_BuildNone();

  00012	e8 00 00 00 00	 call	 ?Py_BuildNone@@YAPAU_object@@XZ ; Py_BuildNone

; 753  : }

  00017	5d		 pop	 ebp
  00018	c3		 ret	 0
?appShowCursor@@YAPAU_object@@PAU1@0@Z ENDP		; appShowCursor
_TEXT	ENDS
; Function compile flags: /Odspy
; File D:\Metin2 Server Files\mainline\SRC_2014\Metin2Client\UserInterface\PythonApplicationModule.cpp
; File D:\Metin2 Server Files\mainline\SRC_2014\Metin2Client\UserInterface\PythonApplication.h
; File D:\Metin2 Server Files\mainline\SRC_2014\Metin2Client\UserInterface\PythonApplicationModule.cpp
;	COMDAT ?appGetCursor@@YAPAU_object@@PAU1@0@Z
_TEXT	SEGMENT
$T1 = -8						; size = 4
$T2 = -4						; size = 4
_poSelf$ = 8						; size = 4
_poArgs$ = 12						; size = 4
?appGetCursor@@YAPAU_object@@PAU1@0@Z PROC		; appGetCursor, COMDAT

; 744  : {

  00000	55		 push	 ebp
  00001	8b ec		 mov	 ebp, esp
  00003	51		 push	 ecx
  00004	51		 push	 ecx
; File D:\Metin2 Server Files\mainline\SRC_2014\Metin2Client\UserInterface\PythonApplication.h

; 143  : 			return *ms_pInstance;

  00005	a1 00 00 00 00	 mov	 eax, DWORD PTR ?ms_pInstance@CPythonApplication@@1PAV1@A ; CPythonApplication::ms_pInstance
  0000a	89 45 fc	 mov	 DWORD PTR $T2[ebp], eax

; 178  : 		int GetCursorNum() { return m_iCursorNum; }

  0000d	8b 45 fc	 mov	 eax, DWORD PTR $T2[ebp]
  00010	8b 80 7c eb 01
	00		 mov	 eax, DWORD PTR [eax+125820]
  00016	89 45 f8	 mov	 DWORD PTR $T1[ebp], eax
; File D:\Metin2 Server Files\mainline\SRC_2014\Metin2Client\UserInterface\PythonApplicationModule.cpp

; 745  : 	return Py_BuildValue("i", CPythonApplication::Instance().GetCursorNum());

  00019	ff 75 f8	 push	 DWORD PTR $T1[ebp]
  0001c	68 00 00 00 00	 push	 OFFSET ??_C@_01KBJDNOO@i@
  00021	ff 15 00 00 00
	00		 call	 DWORD PTR __imp__Py_BuildValue
  00027	59		 pop	 ecx
  00028	59		 pop	 ecx

; 746  : }

  00029	c9		 leave
  0002a	c3		 ret	 0
?appGetCursor@@YAPAU_object@@PAU1@0@Z ENDP		; appGetCursor
_TEXT	ENDS
; Function compile flags: /Odspy
; File D:\Metin2 Server Files\mainline\SRC_2014\Metin2Client\UserInterface\PythonApplicationModule.cpp
; File D:\Metin2 Server Files\mainline\SRC_2014\Metin2Client\UserInterface\PythonApplication.h
; File D:\Metin2 Server Files\mainline\SRC_2014\Metin2Client\UserInterface\PythonApplicationModule.cpp
;	COMDAT ?appSetCursor@@YAPAU_object@@PAU1@0@Z
_TEXT	SEGMENT
$T1 = -8						; size = 4
_iCursorNum$ = -4					; size = 4
_poSelf$ = 8						; size = 4
_poArgs$ = 12						; size = 4
?appSetCursor@@YAPAU_object@@PAU1@0@Z PROC		; appSetCursor, COMDAT

; 724  : {

  00000	55		 push	 ebp
  00001	8b ec		 mov	 ebp, esp
  00003	51		 push	 ecx
  00004	51		 push	 ecx

; 725  : /*
; 726  : 	char * szName;
; 727  : 	if (!PyTuple_GetString(poArgs, 0, &szName))
; 728  : 		return Py_BuildException();
; 729  : 
; 730  : 	if (!CPythonApplication::Instance().SetHardwareCursor(szName))
; 731  : 		return Py_BuildException("Wrong Cursor Name [%s]", szName);
; 732  : */
; 733  : 	int iCursorNum;
; 734  : 	if (!PyTuple_GetInteger(poArgs, 0, &iCursorNum))

  00005	8d 45 fc	 lea	 eax, DWORD PTR _iCursorNum$[ebp]
  00008	50		 push	 eax
  00009	6a 00		 push	 0
  0000b	ff 75 0c	 push	 DWORD PTR _poArgs$[ebp]
  0000e	e8 00 00 00 00	 call	 ?PyTuple_GetInteger@@YA_NPAU_object@@HPAH@Z ; PyTuple_GetInteger
  00013	83 c4 0c	 add	 esp, 12			; 0000000cH
  00016	0f b6 c0	 movzx	 eax, al
  00019	85 c0		 test	 eax, eax
  0001b	75 0a		 jne	 SHORT $LN2@appSetCurs

; 735  : 		return Py_BuildException();

  0001d	6a 00		 push	 0
  0001f	e8 00 00 00 00	 call	 ?Py_BuildException@@YAPAU_object@@PBDZZ ; Py_BuildException
  00024	59		 pop	 ecx
  00025	eb 2d		 jmp	 SHORT $LN1@appSetCurs
$LN2@appSetCurs:
; File D:\Metin2 Server Files\mainline\SRC_2014\Metin2Client\UserInterface\PythonApplication.h

; 143  : 			return *ms_pInstance;

  00027	a1 00 00 00 00	 mov	 eax, DWORD PTR ?ms_pInstance@CPythonApplication@@1PAV1@A ; CPythonApplication::ms_pInstance
  0002c	89 45 f8	 mov	 DWORD PTR $T1[ebp], eax
; File D:\Metin2 Server Files\mainline\SRC_2014\Metin2Client\UserInterface\PythonApplicationModule.cpp

; 737  : 	if (!CPythonApplication::Instance().SetCursorNum(iCursorNum))

  0002f	ff 75 fc	 push	 DWORD PTR _iCursorNum$[ebp]
  00032	8b 4d f8	 mov	 ecx, DWORD PTR $T1[ebp]
  00035	e8 00 00 00 00	 call	 ?SetCursorNum@CPythonApplication@@QAEHH@Z ; CPythonApplication::SetCursorNum
  0003a	85 c0		 test	 eax, eax
  0003c	75 11		 jne	 SHORT $LN3@appSetCurs

; 738  : 		return Py_BuildException("Wrong Cursor Name [%d]", iCursorNum);

  0003e	ff 75 fc	 push	 DWORD PTR _iCursorNum$[ebp]
  00041	68 00 00 00 00	 push	 OFFSET ??_C@_0BH@GNAGLJEE@Wrong?5Cursor?5Name?5?$FL?$CFd?$FN@
  00046	e8 00 00 00 00	 call	 ?Py_BuildException@@YAPAU_object@@PBDZZ ; Py_BuildException
  0004b	59		 pop	 ecx
  0004c	59		 pop	 ecx
  0004d	eb 05		 jmp	 SHORT $LN1@appSetCurs
$LN3@appSetCurs:

; 739  : 
; 740  : 	return Py_BuildNone();

  0004f	e8 00 00 00 00	 call	 ?Py_BuildNone@@YAPAU_object@@XZ ; Py_BuildNone
$LN1@appSetCurs:

; 741  : }

  00054	c9		 leave
  00055	c3		 ret	 0
?appSetCursor@@YAPAU_object@@PAU1@0@Z ENDP		; appSetCursor
_TEXT	ENDS
; Function compile flags: /Odspy
; File D:\Metin2 Server Files\mainline\SRC_2014\Metin2Client\UserInterface\PythonApplicationModule.cpp
; File D:\Metin2 Server Files\mainline\SRC_2014\Metin2Client\UserInterface\PythonApplication.h
; File D:\Metin2 Server Files\mainline\SRC_2014\Metin2Client\UserInterface\PythonApplicationModule.cpp
;	COMDAT ?appIsPressed@@YAPAU_object@@PAU1@0@Z
_TEXT	SEGMENT
$T1 = -8						; size = 4
_iKey$ = -4						; size = 4
_poSelf$ = 8						; size = 4
_poArgs$ = 12						; size = 4
?appIsPressed@@YAPAU_object@@PAU1@0@Z PROC		; appIsPressed, COMDAT

; 715  : {

  00000	55		 push	 ebp
  00001	8b ec		 mov	 ebp, esp
  00003	51		 push	 ecx
  00004	51		 push	 ecx

; 716  : 	int iKey;
; 717  : 	if (!PyTuple_GetInteger(poArgs, 0, &iKey))

  00005	8d 45 fc	 lea	 eax, DWORD PTR _iKey$[ebp]
  00008	50		 push	 eax
  00009	6a 00		 push	 0
  0000b	ff 75 0c	 push	 DWORD PTR _poArgs$[ebp]
  0000e	e8 00 00 00 00	 call	 ?PyTuple_GetInteger@@YA_NPAU_object@@HPAH@Z ; PyTuple_GetInteger
  00013	83 c4 0c	 add	 esp, 12			; 0000000cH
  00016	0f b6 c0	 movzx	 eax, al
  00019	85 c0		 test	 eax, eax
  0001b	75 0a		 jne	 SHORT $LN2@appIsPress

; 718  : 		return Py_BuildException();

  0001d	6a 00		 push	 0
  0001f	e8 00 00 00 00	 call	 ?Py_BuildException@@YAPAU_object@@PBDZZ ; Py_BuildException
  00024	59		 pop	 ecx
  00025	eb 27		 jmp	 SHORT $LN1@appIsPress
$LN2@appIsPress:
; File D:\Metin2 Server Files\mainline\SRC_2014\Metin2Client\UserInterface\PythonApplication.h

; 143  : 			return *ms_pInstance;

  00027	a1 00 00 00 00	 mov	 eax, DWORD PTR ?ms_pInstance@CPythonApplication@@1PAV1@A ; CPythonApplication::ms_pInstance
  0002c	89 45 f8	 mov	 DWORD PTR $T1[ebp], eax
; File D:\Metin2 Server Files\mainline\SRC_2014\Metin2Client\UserInterface\PythonApplicationModule.cpp

; 720  : 	return Py_BuildValue("i", CPythonApplication::Instance().IsPressed(iKey));

  0002f	ff 75 fc	 push	 DWORD PTR _iKey$[ebp]
  00032	8b 4d f8	 mov	 ecx, DWORD PTR $T1[ebp]
  00035	83 c1 1c	 add	 ecx, 28			; 0000001cH
  00038	e8 00 00 00 00	 call	 ?IsPressed@CInputKeyboard@@QAE_NH@Z ; CInputKeyboard::IsPressed
  0003d	0f b6 c0	 movzx	 eax, al
  00040	50		 push	 eax
  00041	68 00 00 00 00	 push	 OFFSET ??_C@_01KBJDNOO@i@
  00046	ff 15 00 00 00
	00		 call	 DWORD PTR __imp__Py_BuildValue
  0004c	59		 pop	 ecx
  0004d	59		 pop	 ecx
$LN1@appIsPress:

; 721  : }

  0004e	c9		 leave
  0004f	c3		 ret	 0
?appIsPressed@@YAPAU_object@@PAU1@0@Z ENDP		; appIsPressed
_TEXT	ENDS
; Function compile flags: /Odspy
; File D:\Metin2 Server Files\mainline\SRC_2014\Metin2Client\UserInterface\PythonApplicationModule.cpp
; File D:\Metin2 Server Files\mainline\SRC_2014\Metin2Client\eterBase\Singleton.h
; File D:\Metin2 Server Files\mainline\SRC_2014\Metin2Client\UserInterface\PythonApplicationModule.cpp
;	COMDAT ?appRunPythonFile@@YAPAU_object@@PAU1@0@Z
_TEXT	SEGMENT
$T1 = -12						; size = 4
_szFileName$ = -8					; size = 4
_ret$ = -1						; size = 1
_poSelf$ = 8						; size = 4
_poArgs$ = 12						; size = 4
?appRunPythonFile@@YAPAU_object@@PAU1@0@Z PROC		; appRunPythonFile, COMDAT

; 705  : {

  00000	55		 push	 ebp
  00001	8b ec		 mov	 ebp, esp
  00003	83 ec 0c	 sub	 esp, 12			; 0000000cH

; 706  : 	char *szFileName;
; 707  : 	if (!PyTuple_GetString(poArgs, 0, &szFileName))

  00006	8d 45 f8	 lea	 eax, DWORD PTR _szFileName$[ebp]
  00009	50		 push	 eax
  0000a	6a 00		 push	 0
  0000c	ff 75 0c	 push	 DWORD PTR _poArgs$[ebp]
  0000f	e8 00 00 00 00	 call	 ?PyTuple_GetString@@YA_NPAU_object@@HPAPAD@Z ; PyTuple_GetString
  00014	83 c4 0c	 add	 esp, 12			; 0000000cH
  00017	0f b6 c0	 movzx	 eax, al
  0001a	85 c0		 test	 eax, eax
  0001c	75 0a		 jne	 SHORT $LN2@appRunPyth

; 708  : 		return Py_BuildException();

  0001e	6a 00		 push	 0
  00020	e8 00 00 00 00	 call	 ?Py_BuildException@@YAPAU_object@@PBDZZ ; Py_BuildException
  00025	59		 pop	 ecx
  00026	eb 28		 jmp	 SHORT $LN1@appRunPyth
$LN2@appRunPyth:
; File D:\Metin2 Server Files\mainline\SRC_2014\Metin2Client\eterBase\Singleton.h

; 27   : 		return (*ms_singleton);

  00028	a1 00 00 00 00	 mov	 eax, DWORD PTR ?ms_singleton@?$CSingleton@VCPythonLauncher@@@@0PAVCPythonLauncher@@A ; CSingleton<CPythonLauncher>::ms_singleton
  0002d	89 45 f4	 mov	 DWORD PTR $T1[ebp], eax
; File D:\Metin2 Server Files\mainline\SRC_2014\Metin2Client\UserInterface\PythonApplicationModule.cpp

; 710  : 	bool ret = CPythonLauncher::Instance().RunFile(szFileName);

  00030	ff 75 f8	 push	 DWORD PTR _szFileName$[ebp]
  00033	8b 4d f4	 mov	 ecx, DWORD PTR $T1[ebp]
  00036	e8 00 00 00 00	 call	 ?RunFile@CPythonLauncher@@QAE_NPBD@Z ; CPythonLauncher::RunFile
  0003b	88 45 ff	 mov	 BYTE PTR _ret$[ebp], al

; 711  : 	return Py_BuildValue("i", ret);

  0003e	0f b6 45 ff	 movzx	 eax, BYTE PTR _ret$[ebp]
  00042	50		 push	 eax
  00043	68 00 00 00 00	 push	 OFFSET ??_C@_01KBJDNOO@i@
  00048	ff 15 00 00 00
	00		 call	 DWORD PTR __imp__Py_BuildValue
  0004e	59		 pop	 ecx
  0004f	59		 pop	 ecx
$LN1@appRunPyth:

; 712  : }

  00050	c9		 leave
  00051	c3		 ret	 0
?appRunPythonFile@@YAPAU_object@@PAU1@0@Z ENDP		; appRunPythonFile
_TEXT	ENDS
; Function compile flags: /Odspy
; File D:\Metin2 Server Files\mainline\SRC_2014\Metin2Client\UserInterface\PythonApplicationModule.cpp
;	COMDAT ?appGetCursorPosition@@YAPAU_object@@PAU1@0@Z
_TEXT	SEGMENT
_lx$ = -12						; size = 4
_ly$ = -8						; size = 4
_rkWndMgr$ = -4						; size = 4
_poSelf$ = 8						; size = 4
_poArgs$ = 12						; size = 4
?appGetCursorPosition@@YAPAU_object@@PAU1@0@Z PROC	; appGetCursorPosition, COMDAT

; 696  : {

  00000	55		 push	 ebp
  00001	8b ec		 mov	 ebp, esp
  00003	83 ec 0c	 sub	 esp, 12			; 0000000cH

; 697  : 	long lx, ly;
; 698  : 	UI::CWindowManager& rkWndMgr=UI::CWindowManager::Instance();

  00006	a1 00 00 00 00	 mov	 eax, DWORD PTR ?ms_singleton@?$CSingleton@VCWindowManager@UI@@@@0PAVCWindowManager@UI@@A ; CSingleton<UI::CWindowManager>::ms_singleton
  0000b	89 45 fc	 mov	 DWORD PTR _rkWndMgr$[ebp], eax

; 699  : 	rkWndMgr.GetMousePosition(lx, ly);

  0000e	8d 45 f8	 lea	 eax, DWORD PTR _ly$[ebp]
  00011	50		 push	 eax
  00012	8d 45 f4	 lea	 eax, DWORD PTR _lx$[ebp]
  00015	50		 push	 eax
  00016	8b 4d fc	 mov	 ecx, DWORD PTR _rkWndMgr$[ebp]
  00019	e8 00 00 00 00	 call	 ?GetMousePosition@CWindowManager@UI@@QAEXAAJ0@Z ; UI::CWindowManager::GetMousePosition

; 700  : 
; 701  : 	return Py_BuildValue("ii", lx, ly);

  0001e	ff 75 f8	 push	 DWORD PTR _ly$[ebp]
  00021	ff 75 f4	 push	 DWORD PTR _lx$[ebp]
  00024	68 00 00 00 00	 push	 OFFSET ??_C@_02PDIHAGKM@ii@
  00029	ff 15 00 00 00
	00		 call	 DWORD PTR __imp__Py_BuildValue
  0002f	83 c4 0c	 add	 esp, 12			; 0000000cH

; 702  : }

  00032	c9		 leave
  00033	c3		 ret	 0
?appGetCursorPosition@@YAPAU_object@@PAU1@0@Z ENDP	; appGetCursorPosition
_TEXT	ENDS
; Function compile flags: /Odspy
; File D:\Metin2 Server Files\mainline\SRC_2014\Metin2Client\UserInterface\PythonApplicationModule.cpp
;	COMDAT ?appSetCenterPosition@@YAPAU_object@@PAU1@0@Z
_TEXT	SEGMENT
_fx$ = -16						; size = 4
_fy$ = -12						; size = 4
_fz$ = -8						; size = 4
tv94 = -4						; size = 4
_poSelf$ = 8						; size = 4
_poArgs$ = 12						; size = 4
?appSetCenterPosition@@YAPAU_object@@PAU1@0@Z PROC	; appSetCenterPosition, COMDAT

; 678  : {

  00000	55		 push	 ebp
  00001	8b ec		 mov	 ebp, esp
  00003	83 ec 10	 sub	 esp, 16			; 00000010H

; 679  : 	float fx;
; 680  : 	if (!PyTuple_GetFloat(poArgs, 0, &fx))

  00006	8d 45 f0	 lea	 eax, DWORD PTR _fx$[ebp]
  00009	50		 push	 eax
  0000a	6a 00		 push	 0
  0000c	ff 75 0c	 push	 DWORD PTR _poArgs$[ebp]
  0000f	e8 00 00 00 00	 call	 ?PyTuple_GetFloat@@YA_NPAU_object@@HPAM@Z ; PyTuple_GetFloat
  00014	83 c4 0c	 add	 esp, 12			; 0000000cH
  00017	0f b6 c0	 movzx	 eax, al
  0001a	85 c0		 test	 eax, eax
  0001c	75 0d		 jne	 SHORT $LN2@appSetCent

; 681  : 		return Py_BuildException();

  0001e	6a 00		 push	 0
  00020	e8 00 00 00 00	 call	 ?Py_BuildException@@YAPAU_object@@PBDZZ ; Py_BuildException
  00025	59		 pop	 ecx
  00026	e9 87 00 00 00	 jmp	 $LN1@appSetCent
$LN2@appSetCent:

; 682  : 
; 683  : 	float fy;
; 684  : 	if (!PyTuple_GetFloat(poArgs, 1, &fy))

  0002b	8d 45 f4	 lea	 eax, DWORD PTR _fy$[ebp]
  0002e	50		 push	 eax
  0002f	6a 01		 push	 1
  00031	ff 75 0c	 push	 DWORD PTR _poArgs$[ebp]
  00034	e8 00 00 00 00	 call	 ?PyTuple_GetFloat@@YA_NPAU_object@@HPAM@Z ; PyTuple_GetFloat
  00039	83 c4 0c	 add	 esp, 12			; 0000000cH
  0003c	0f b6 c0	 movzx	 eax, al
  0003f	85 c0		 test	 eax, eax
  00041	75 0a		 jne	 SHORT $LN3@appSetCent

; 685  : 		return Py_BuildException();

  00043	6a 00		 push	 0
  00045	e8 00 00 00 00	 call	 ?Py_BuildException@@YAPAU_object@@PBDZZ ; Py_BuildException
  0004a	59		 pop	 ecx
  0004b	eb 65		 jmp	 SHORT $LN1@appSetCent
$LN3@appSetCent:

; 686  : 
; 687  : 	float fz;
; 688  : 	if (!PyTuple_GetFloat(poArgs, 2, &fz))

  0004d	8d 45 f8	 lea	 eax, DWORD PTR _fz$[ebp]
  00050	50		 push	 eax
  00051	6a 02		 push	 2
  00053	ff 75 0c	 push	 DWORD PTR _poArgs$[ebp]
  00056	e8 00 00 00 00	 call	 ?PyTuple_GetFloat@@YA_NPAU_object@@HPAM@Z ; PyTuple_GetFloat
  0005b	83 c4 0c	 add	 esp, 12			; 0000000cH
  0005e	0f b6 c0	 movzx	 eax, al
  00061	85 c0		 test	 eax, eax
  00063	75 0a		 jne	 SHORT $LN4@appSetCent

; 689  : 		return Py_BuildException();

  00065	6a 00		 push	 0
  00067	e8 00 00 00 00	 call	 ?Py_BuildException@@YAPAU_object@@PBDZZ ; Py_BuildException
  0006c	59		 pop	 ecx
  0006d	eb 43		 jmp	 SHORT $LN1@appSetCent
$LN4@appSetCent:

; 690  : 
; 691  : 	CPythonApplication::Instance().SetCenterPosition(fx, -fy, fz);

  0006f	a1 00 00 00 00	 mov	 eax, DWORD PTR ?ms_pInstance@CPythonApplication@@1PAV1@A ; CPythonApplication::ms_pInstance
  00074	83 c0 20	 add	 eax, 32			; 00000020H
  00077	89 45 fc	 mov	 DWORD PTR tv94[ebp], eax
  0007a	51		 push	 ecx
  0007b	f3 0f 10 45 f8	 movss	 xmm0, DWORD PTR _fz$[ebp]
  00080	f3 0f 11 04 24	 movss	 DWORD PTR [esp], xmm0
  00085	f3 0f 10 45 f4	 movss	 xmm0, DWORD PTR _fy$[ebp]
  0008a	0f 57 05 00 00
	00 00		 xorps	 xmm0, DWORD PTR __xmm@80000000800000008000000080000000
  00091	51		 push	 ecx
  00092	f3 0f 11 04 24	 movss	 DWORD PTR [esp], xmm0
  00097	51		 push	 ecx
  00098	f3 0f 10 45 f0	 movss	 xmm0, DWORD PTR _fx$[ebp]
  0009d	f3 0f 11 04 24	 movss	 DWORD PTR [esp], xmm0
  000a2	8b 45 fc	 mov	 eax, DWORD PTR tv94[ebp]
  000a5	8b 00		 mov	 eax, DWORD PTR [eax]
  000a7	8b 4d fc	 mov	 ecx, DWORD PTR tv94[ebp]
  000aa	ff 50 18	 call	 DWORD PTR [eax+24]

; 692  : 	return Py_BuildNone();

  000ad	e8 00 00 00 00	 call	 ?Py_BuildNone@@YAPAU_object@@XZ ; Py_BuildNone
$LN1@appSetCent:

; 693  : }

  000b2	c9		 leave
  000b3	c3		 ret	 0
?appSetCenterPosition@@YAPAU_object@@PAU1@0@Z ENDP	; appSetCenterPosition
_TEXT	ENDS
; Function compile flags: /Odspy
; File D:\Metin2 Server Files\mainline\SRC_2014\Metin2Client\UserInterface\PythonApplicationModule.cpp
;	COMDAT ?appSetGlobalCenterPosition@@YAPAU_object@@PAU1@0@Z
_TEXT	SEGMENT
_x$ = -8						; size = 4
_y$ = -4						; size = 4
_poSelf$ = 8						; size = 4
_poArgs$ = 12						; size = 4
?appSetGlobalCenterPosition@@YAPAU_object@@PAU1@0@Z PROC ; appSetGlobalCenterPosition, COMDAT

; 663  : {

  00000	55		 push	 ebp
  00001	8b ec		 mov	 ebp, esp
  00003	51		 push	 ecx
  00004	51		 push	 ecx

; 664  : 	int x;
; 665  : 	if (!PyTuple_GetInteger(poArgs, 0, &x))

  00005	8d 45 f8	 lea	 eax, DWORD PTR _x$[ebp]
  00008	50		 push	 eax
  00009	6a 00		 push	 0
  0000b	ff 75 0c	 push	 DWORD PTR _poArgs$[ebp]
  0000e	e8 00 00 00 00	 call	 ?PyTuple_GetInteger@@YA_NPAU_object@@HPAH@Z ; PyTuple_GetInteger
  00013	83 c4 0c	 add	 esp, 12			; 0000000cH
  00016	0f b6 c0	 movzx	 eax, al
  00019	85 c0		 test	 eax, eax
  0001b	75 0a		 jne	 SHORT $LN2@appSetGlob

; 666  : 		return Py_BuildException();

  0001d	6a 00		 push	 0
  0001f	e8 00 00 00 00	 call	 ?Py_BuildException@@YAPAU_object@@PBDZZ ; Py_BuildException
  00024	59		 pop	 ecx
  00025	eb 38		 jmp	 SHORT $LN1@appSetGlob
$LN2@appSetGlob:

; 667  : 
; 668  : 	int y;
; 669  : 	if (!PyTuple_GetInteger(poArgs, 1, &y))

  00027	8d 45 fc	 lea	 eax, DWORD PTR _y$[ebp]
  0002a	50		 push	 eax
  0002b	6a 01		 push	 1
  0002d	ff 75 0c	 push	 DWORD PTR _poArgs$[ebp]
  00030	e8 00 00 00 00	 call	 ?PyTuple_GetInteger@@YA_NPAU_object@@HPAH@Z ; PyTuple_GetInteger
  00035	83 c4 0c	 add	 esp, 12			; 0000000cH
  00038	0f b6 c0	 movzx	 eax, al
  0003b	85 c0		 test	 eax, eax
  0003d	75 0a		 jne	 SHORT $LN5@appSetGlob

; 670  : 		return Py_BuildException();

  0003f	6a 00		 push	 0
  00041	e8 00 00 00 00	 call	 ?Py_BuildException@@YAPAU_object@@PBDZZ ; Py_BuildException
  00046	59		 pop	 ecx
  00047	eb 16		 jmp	 SHORT $LN1@appSetGlob
$LN5@appSetGlob:

; 671  : 
; 672  : 	CPythonApplication::Instance().SetGlobalCenterPosition(x, y);

  00049	ff 75 fc	 push	 DWORD PTR _y$[ebp]
  0004c	ff 75 f8	 push	 DWORD PTR _x$[ebp]
  0004f	8b 0d 00 00 00
	00		 mov	 ecx, DWORD PTR ?ms_pInstance@CPythonApplication@@1PAV1@A ; CPythonApplication::ms_pInstance
  00055	e8 00 00 00 00	 call	 ?SetGlobalCenterPosition@CPythonApplication@@QAEXJJ@Z ; CPythonApplication::SetGlobalCenterPosition

; 673  : 	return Py_BuildNone();

  0005a	e8 00 00 00 00	 call	 ?Py_BuildNone@@YAPAU_object@@XZ ; Py_BuildNone
$LN1@appSetGlob:

; 674  : }

  0005f	c9		 leave
  00060	c3		 ret	 0
?appSetGlobalCenterPosition@@YAPAU_object@@PAU1@0@Z ENDP ; appSetGlobalCenterPosition
_TEXT	ENDS
; Function compile flags: /Odspy
; File D:\Metin2 Server Files\mainline\SRC_2014\Metin2Client\UserInterface\PythonApplicationModule.cpp
;	COMDAT ?appSetFPS@@YAPAU_object@@PAU1@0@Z
_TEXT	SEGMENT
_iFPS$ = -4						; size = 4
_poSelf$ = 8						; size = 4
_poArgs$ = 12						; size = 4
?appSetFPS@@YAPAU_object@@PAU1@0@Z PROC			; appSetFPS, COMDAT

; 652  : {

  00000	55		 push	 ebp
  00001	8b ec		 mov	 ebp, esp
  00003	51		 push	 ecx

; 653  : 	int	iFPS;
; 654  : 	if (!PyTuple_GetInteger(poArgs, 0, &iFPS))

  00004	8d 45 fc	 lea	 eax, DWORD PTR _iFPS$[ebp]
  00007	50		 push	 eax
  00008	6a 00		 push	 0
  0000a	ff 75 0c	 push	 DWORD PTR _poArgs$[ebp]
  0000d	e8 00 00 00 00	 call	 ?PyTuple_GetInteger@@YA_NPAU_object@@HPAH@Z ; PyTuple_GetInteger
  00012	83 c4 0c	 add	 esp, 12			; 0000000cH
  00015	0f b6 c0	 movzx	 eax, al
  00018	85 c0		 test	 eax, eax
  0001a	75 0a		 jne	 SHORT $LN4@appSetFPS

; 655  : 		return Py_BuildException();

  0001c	6a 00		 push	 0
  0001e	e8 00 00 00 00	 call	 ?Py_BuildException@@YAPAU_object@@PBDZZ ; Py_BuildException
  00023	59		 pop	 ecx
  00024	eb 13		 jmp	 SHORT $LN1@appSetFPS
$LN4@appSetFPS:

; 656  : 
; 657  : 	CPythonApplication::Instance().SetFPS(iFPS);

  00026	ff 75 fc	 push	 DWORD PTR _iFPS$[ebp]
  00029	8b 0d 00 00 00
	00		 mov	 ecx, DWORD PTR ?ms_pInstance@CPythonApplication@@1PAV1@A ; CPythonApplication::ms_pInstance
  0002f	e8 00 00 00 00	 call	 ?SetFPS@CPythonApplication@@QAEXH@Z ; CPythonApplication::SetFPS

; 658  : 
; 659  : 	return Py_BuildNone();

  00034	e8 00 00 00 00	 call	 ?Py_BuildNone@@YAPAU_object@@XZ ; Py_BuildNone
$LN1@appSetFPS:

; 660  : }

  00039	c9		 leave
  0003a	c3		 ret	 0
?appSetFPS@@YAPAU_object@@PAU1@0@Z ENDP			; appSetFPS
_TEXT	ENDS
; Function compile flags: /Odspy
; File D:\Metin2 Server Files\mainline\SRC_2014\Metin2Client\UserInterface\PythonApplicationModule.cpp
;	COMDAT ?appGetAvaiableTextureMememory@@YAPAU_object@@PAU1@0@Z
_TEXT	SEGMENT
_poSelf$ = 8						; size = 4
_poArgs$ = 12						; size = 4
?appGetAvaiableTextureMememory@@YAPAU_object@@PAU1@0@Z PROC ; appGetAvaiableTextureMememory, COMDAT

; 647  : {											

  00000	55		 push	 ebp
  00001	8b ec		 mov	 ebp, esp

; 648  : 	return Py_BuildValue("i", CGraphicBase::GetAvailableTextureMemory());

  00003	e8 00 00 00 00	 call	 ?GetAvailableTextureMemory@CGraphicBase@@SAKXZ ; CGraphicBase::GetAvailableTextureMemory
  00008	50		 push	 eax
  00009	68 00 00 00 00	 push	 OFFSET ??_C@_01KBJDNOO@i@
  0000e	ff 15 00 00 00
	00		 call	 DWORD PTR __imp__Py_BuildValue
  00014	59		 pop	 ecx
  00015	59		 pop	 ecx

; 649  : }

  00016	5d		 pop	 ebp
  00017	c3		 ret	 0
?appGetAvaiableTextureMememory@@YAPAU_object@@PAU1@0@Z ENDP ; appGetAvaiableTextureMememory
_TEXT	ENDS
; Function compile flags: /Odspy
; File D:\Metin2 Server Files\mainline\SRC_2014\Metin2Client\UserInterface\PythonApplicationModule.cpp
; File D:\Metin2 Server Files\mainline\SRC_2014\Metin2Client\UserInterface\PythonApplication.h
; File D:\Metin2 Server Files\mainline\SRC_2014\Metin2Client\UserInterface\PythonApplicationModule.cpp
;	COMDAT ?appGetFaceCount@@YAPAU_object@@PAU1@0@Z
_TEXT	SEGMENT
$T1 = -8						; size = 4
$T2 = -4						; size = 4
_poSelf$ = 8						; size = 4
_poArgs$ = 12						; size = 4
?appGetFaceCount@@YAPAU_object@@PAU1@0@Z PROC		; appGetFaceCount, COMDAT

; 642  : {

  00000	55		 push	 ebp
  00001	8b ec		 mov	 ebp, esp
  00003	51		 push	 ecx
  00004	51		 push	 ecx
; File D:\Metin2 Server Files\mainline\SRC_2014\Metin2Client\UserInterface\PythonApplication.h

; 143  : 			return *ms_pInstance;

  00005	a1 00 00 00 00	 mov	 eax, DWORD PTR ?ms_pInstance@CPythonApplication@@1PAV1@A ; CPythonApplication::ms_pInstance
  0000a	89 45 fc	 mov	 DWORD PTR $T2[ebp], eax

; 217  : 		DWORD GetFaceCount()	{ return m_dwFaceCount; }

  0000d	8b 45 fc	 mov	 eax, DWORD PTR $T2[ebp]
  00010	8b 80 24 eb 01
	00		 mov	 eax, DWORD PTR [eax+125732]
  00016	89 45 f8	 mov	 DWORD PTR $T1[ebp], eax
; File D:\Metin2 Server Files\mainline\SRC_2014\Metin2Client\UserInterface\PythonApplicationModule.cpp

; 643  : 	return Py_BuildValue("i", CPythonApplication::Instance().GetFaceCount());

  00019	ff 75 f8	 push	 DWORD PTR $T1[ebp]
  0001c	68 00 00 00 00	 push	 OFFSET ??_C@_01KBJDNOO@i@
  00021	ff 15 00 00 00
	00		 call	 DWORD PTR __imp__Py_BuildValue
  00027	59		 pop	 ecx
  00028	59		 pop	 ecx

; 644  : }

  00029	c9		 leave
  0002a	c3		 ret	 0
?appGetFaceCount@@YAPAU_object@@PAU1@0@Z ENDP		; appGetFaceCount
_TEXT	ENDS
; Function compile flags: /Odspy
; File D:\Metin2 Server Files\mainline\SRC_2014\Metin2Client\UserInterface\PythonApplicationModule.cpp
; File D:\Metin2 Server Files\mainline\SRC_2014\Metin2Client\UserInterface\PythonApplication.h
; File D:\Metin2 Server Files\mainline\SRC_2014\Metin2Client\UserInterface\PythonApplicationModule.cpp
;	COMDAT ?appGetLoad@@YAPAU_object@@PAU1@0@Z
_TEXT	SEGMENT
$T1 = -8						; size = 4
$T2 = -4						; size = 4
_poSelf$ = 8						; size = 4
_poArgs$ = 12						; size = 4
?appGetLoad@@YAPAU_object@@PAU1@0@Z PROC		; appGetLoad, COMDAT

; 638  : {

  00000	55		 push	 ebp
  00001	8b ec		 mov	 ebp, esp
  00003	51		 push	 ecx
  00004	51		 push	 ecx
; File D:\Metin2 Server Files\mainline\SRC_2014\Metin2Client\UserInterface\PythonApplication.h

; 143  : 			return *ms_pInstance;

  00005	a1 00 00 00 00	 mov	 eax, DWORD PTR ?ms_pInstance@CPythonApplication@@1PAV1@A ; CPythonApplication::ms_pInstance
  0000a	89 45 fc	 mov	 DWORD PTR $T2[ebp], eax

; 216  : 		DWORD GetLoad()			{ return m_dwLoad; }

  0000d	8b 45 fc	 mov	 eax, DWORD PTR $T2[ebp]
  00010	8b 80 38 ea 01
	00		 mov	 eax, DWORD PTR [eax+125496]
  00016	89 45 f8	 mov	 DWORD PTR $T1[ebp], eax
; File D:\Metin2 Server Files\mainline\SRC_2014\Metin2Client\UserInterface\PythonApplicationModule.cpp

; 639  : 	return Py_BuildValue("i", CPythonApplication::Instance().GetLoad());

  00019	ff 75 f8	 push	 DWORD PTR $T1[ebp]
  0001c	68 00 00 00 00	 push	 OFFSET ??_C@_01KBJDNOO@i@
  00021	ff 15 00 00 00
	00		 call	 DWORD PTR __imp__Py_BuildValue
  00027	59		 pop	 ecx
  00028	59		 pop	 ecx

; 640  : }

  00029	c9		 leave
  0002a	c3		 ret	 0
?appGetLoad@@YAPAU_object@@PAU1@0@Z ENDP		; appGetLoad
_TEXT	ENDS
; Function compile flags: /Odspy
; File D:\Metin2 Server Files\mainline\SRC_2014\Metin2Client\UserInterface\PythonApplicationModule.cpp
; File D:\Metin2 Server Files\mainline\SRC_2014\Metin2Client\UserInterface\PythonApplication.h
; File D:\Metin2 Server Files\mainline\SRC_2014\Metin2Client\UserInterface\PythonApplicationModule.cpp
;	COMDAT ?appGetUpdateTime@@YAPAU_object@@PAU1@0@Z
_TEXT	SEGMENT
$T1 = -8						; size = 4
$T2 = -4						; size = 4
_poSelf$ = 8						; size = 4
_poArgs$ = 12						; size = 4
?appGetUpdateTime@@YAPAU_object@@PAU1@0@Z PROC		; appGetUpdateTime, COMDAT

; 633  : {

  00000	55		 push	 ebp
  00001	8b ec		 mov	 ebp, esp
  00003	51		 push	 ecx
  00004	51		 push	 ecx
; File D:\Metin2 Server Files\mainline\SRC_2014\Metin2Client\UserInterface\PythonApplication.h

; 143  : 			return *ms_pInstance;

  00005	a1 00 00 00 00	 mov	 eax, DWORD PTR ?ms_pInstance@CPythonApplication@@1PAV1@A ; CPythonApplication::ms_pInstance
  0000a	89 45 fc	 mov	 DWORD PTR $T2[ebp], eax

; 213  : 		DWORD GetCurUpdateTime()	{ return m_dwCurUpdateTime; }

  0000d	8b 45 fc	 mov	 eax, DWORD PTR $T2[ebp]
  00010	8b 80 34 ea 01
	00		 mov	 eax, DWORD PTR [eax+125492]
  00016	89 45 f8	 mov	 DWORD PTR $T1[ebp], eax
; File D:\Metin2 Server Files\mainline\SRC_2014\Metin2Client\UserInterface\PythonApplicationModule.cpp

; 634  : 	return Py_BuildValue("i", CPythonApplication::Instance().GetCurUpdateTime());

  00019	ff 75 f8	 push	 DWORD PTR $T1[ebp]
  0001c	68 00 00 00 00	 push	 OFFSET ??_C@_01KBJDNOO@i@
  00021	ff 15 00 00 00
	00		 call	 DWORD PTR __imp__Py_BuildValue
  00027	59		 pop	 ecx
  00028	59		 pop	 ecx

; 635  : }

  00029	c9		 leave
  0002a	c3		 ret	 0
?appGetUpdateTime@@YAPAU_object@@PAU1@0@Z ENDP		; appGetUpdateTime
_TEXT	ENDS
; Function compile flags: /Odspy
; File D:\Metin2 Server Files\mainline\SRC_2014\Metin2Client\UserInterface\PythonApplicationModule.cpp
; File D:\Metin2 Server Files\mainline\SRC_2014\Metin2Client\UserInterface\PythonApplication.h
; File D:\Metin2 Server Files\mainline\SRC_2014\Metin2Client\UserInterface\PythonApplicationModule.cpp
;	COMDAT ?appGetRenderTime@@YAPAU_object@@PAU1@0@Z
_TEXT	SEGMENT
$T1 = -16						; size = 4
$T2 = -12						; size = 4
$T3 = -8						; size = 4
$T4 = -4						; size = 4
_poSelf$ = 8						; size = 4
_poArgs$ = 12						; size = 4
?appGetRenderTime@@YAPAU_object@@PAU1@0@Z PROC		; appGetRenderTime, COMDAT

; 626  : {

  00000	55		 push	 ebp
  00001	8b ec		 mov	 ebp, esp
  00003	83 ec 10	 sub	 esp, 16			; 00000010H
; File D:\Metin2 Server Files\mainline\SRC_2014\Metin2Client\UserInterface\PythonApplication.h

; 143  : 			return *ms_pInstance;

  00006	a1 00 00 00 00	 mov	 eax, DWORD PTR ?ms_pInstance@CPythonApplication@@1PAV1@A ; CPythonApplication::ms_pInstance
  0000b	89 45 fc	 mov	 DWORD PTR $T4[ebp], eax

; 212  : 		DWORD GetCurRenderTime()	{ return m_dwCurRenderTime; }

  0000e	8b 45 fc	 mov	 eax, DWORD PTR $T4[ebp]
  00011	8b 80 30 ea 01
	00		 mov	 eax, DWORD PTR [eax+125488]
  00017	89 45 f4	 mov	 DWORD PTR $T2[ebp], eax

; 143  : 			return *ms_pInstance;

  0001a	a1 00 00 00 00	 mov	 eax, DWORD PTR ?ms_pInstance@CPythonApplication@@1PAV1@A ; CPythonApplication::ms_pInstance
  0001f	89 45 f8	 mov	 DWORD PTR $T3[ebp], eax

; 211  : 		float GetAveRenderTime()	{ return m_fAveRenderTime; }

  00022	8b 45 f8	 mov	 eax, DWORD PTR $T3[ebp]
  00025	f3 0f 10 80 2c
	ea 01 00	 movss	 xmm0, DWORD PTR [eax+125484]
  0002d	f3 0f 11 45 f0	 movss	 DWORD PTR $T1[ebp], xmm0
; File D:\Metin2 Server Files\mainline\SRC_2014\Metin2Client\UserInterface\PythonApplicationModule.cpp

; 627  : 	return Py_BuildValue("fi", 

  00032	ff 75 f4	 push	 DWORD PTR $T2[ebp]
  00035	f3 0f 5a 45 f0	 cvtss2sd xmm0, DWORD PTR $T1[ebp]
  0003a	51		 push	 ecx
  0003b	51		 push	 ecx
  0003c	f2 0f 11 04 24	 movsd	 QWORD PTR [esp], xmm0
  00041	68 00 00 00 00	 push	 OFFSET ??_C@_02PINLEBJB@fi@
  00046	ff 15 00 00 00
	00		 call	 DWORD PTR __imp__Py_BuildValue
  0004c	83 c4 10	 add	 esp, 16			; 00000010H

; 628  : 		CPythonApplication::Instance().GetAveRenderTime(),
; 629  : 		CPythonApplication::Instance().GetCurRenderTime());
; 630  : }

  0004f	c9		 leave
  00050	c3		 ret	 0
?appGetRenderTime@@YAPAU_object@@PAU1@0@Z ENDP		; appGetRenderTime
_TEXT	ENDS
; Function compile flags: /Odspy
; File D:\Metin2 Server Files\mainline\SRC_2014\Metin2Client\UserInterface\PythonApplicationModule.cpp
; File D:\Metin2 Server Files\mainline\SRC_2014\Metin2Client\UserInterface\PythonApplication.h
; File D:\Metin2 Server Files\mainline\SRC_2014\Metin2Client\UserInterface\PythonApplicationModule.cpp
;	COMDAT ?appGetFaceSpeed@@YAPAU_object@@PAU1@0@Z
_TEXT	SEGMENT
$T1 = -8						; size = 4
$T2 = -4						; size = 4
_poSelf$ = 8						; size = 4
_poArgs$ = 12						; size = 4
?appGetFaceSpeed@@YAPAU_object@@PAU1@0@Z PROC		; appGetFaceSpeed, COMDAT

; 621  : {

  00000	55		 push	 ebp
  00001	8b ec		 mov	 ebp, esp
  00003	51		 push	 ecx
  00004	51		 push	 ecx
; File D:\Metin2 Server Files\mainline\SRC_2014\Metin2Client\UserInterface\PythonApplication.h

; 143  : 			return *ms_pInstance;

  00005	a1 00 00 00 00	 mov	 eax, DWORD PTR ?ms_pInstance@CPythonApplication@@1PAV1@A ; CPythonApplication::ms_pInstance
  0000a	89 45 fc	 mov	 DWORD PTR $T2[ebp], eax

; 210  : 		float GetFaceSpeed()		{ return m_fFaceSpd; }

  0000d	8b 45 fc	 mov	 eax, DWORD PTR $T2[ebp]
  00010	f3 0f 10 80 08
	eb 01 00	 movss	 xmm0, DWORD PTR [eax+125704]
  00018	f3 0f 11 45 f8	 movss	 DWORD PTR $T1[ebp], xmm0
; File D:\Metin2 Server Files\mainline\SRC_2014\Metin2Client\UserInterface\PythonApplicationModule.cpp

; 622  : 	return Py_BuildValue("f", CPythonApplication::Instance().GetFaceSpeed());

  0001d	f3 0f 5a 45 f8	 cvtss2sd xmm0, DWORD PTR $T1[ebp]
  00022	51		 push	 ecx
  00023	51		 push	 ecx
  00024	f2 0f 11 04 24	 movsd	 QWORD PTR [esp], xmm0
  00029	68 00 00 00 00	 push	 OFFSET ??_C@_01INIBCBCB@f@
  0002e	ff 15 00 00 00
	00		 call	 DWORD PTR __imp__Py_BuildValue
  00034	83 c4 0c	 add	 esp, 12			; 0000000cH

; 623  : }

  00037	c9		 leave
  00038	c3		 ret	 0
?appGetFaceSpeed@@YAPAU_object@@PAU1@0@Z ENDP		; appGetFaceSpeed
_TEXT	ENDS
; Function compile flags: /Odspy
; File D:\Metin2 Server Files\mainline\SRC_2014\Metin2Client\UserInterface\PythonApplicationModule.cpp
;	COMDAT ?appMovieResetCamera@@YAPAU_object@@PAU1@0@Z
_TEXT	SEGMENT
_poSelf$ = 8						; size = 4
_poArgs$ = 12						; size = 4
?appMovieResetCamera@@YAPAU_object@@PAU1@0@Z PROC	; appMovieResetCamera, COMDAT

; 615  : {

  00000	55		 push	 ebp
  00001	8b ec		 mov	 ebp, esp

; 616  : 	CPythonApplication::Instance().MovieResetCamera();

  00003	8b 0d 00 00 00
	00		 mov	 ecx, DWORD PTR ?ms_pInstance@CPythonApplication@@1PAV1@A ; CPythonApplication::ms_pInstance
  00009	e8 00 00 00 00	 call	 ?MovieResetCamera@CPythonApplication@@QAEXXZ ; CPythonApplication::MovieResetCamera

; 617  : 	return Py_BuildNone();

  0000e	e8 00 00 00 00	 call	 ?Py_BuildNone@@YAPAU_object@@XZ ; Py_BuildNone

; 618  : }

  00013	5d		 pop	 ebp
  00014	c3		 ret	 0
?appMovieResetCamera@@YAPAU_object@@PAU1@0@Z ENDP	; appMovieResetCamera
_TEXT	ENDS
; Function compile flags: /Odspy
; File D:\Metin2 Server Files\mainline\SRC_2014\Metin2Client\UserInterface\PythonApplicationModule.cpp
;	COMDAT ?appMovieZoomCamera@@YAPAU_object@@PAU1@0@Z
_TEXT	SEGMENT
_iDirection$ = -4					; size = 4
_poSelf$ = 8						; size = 4
_poArgs$ = 12						; size = 4
?appMovieZoomCamera@@YAPAU_object@@PAU1@0@Z PROC	; appMovieZoomCamera, COMDAT

; 606  : {

  00000	55		 push	 ebp
  00001	8b ec		 mov	 ebp, esp
  00003	51		 push	 ecx

; 607  : 	int iDirection;
; 608  : 	if (!PyTuple_GetInteger(poArgs, 0, &iDirection))

  00004	8d 45 fc	 lea	 eax, DWORD PTR _iDirection$[ebp]
  00007	50		 push	 eax
  00008	6a 00		 push	 0
  0000a	ff 75 0c	 push	 DWORD PTR _poArgs$[ebp]
  0000d	e8 00 00 00 00	 call	 ?PyTuple_GetInteger@@YA_NPAU_object@@HPAH@Z ; PyTuple_GetInteger
  00012	83 c4 0c	 add	 esp, 12			; 0000000cH
  00015	0f b6 c0	 movzx	 eax, al
  00018	85 c0		 test	 eax, eax
  0001a	75 0a		 jne	 SHORT $LN4@appMovieZo

; 609  : 		return Py_BuildException();

  0001c	6a 00		 push	 0
  0001e	e8 00 00 00 00	 call	 ?Py_BuildException@@YAPAU_object@@PBDZZ ; Py_BuildException
  00023	59		 pop	 ecx
  00024	eb 13		 jmp	 SHORT $LN1@appMovieZo
$LN4@appMovieZo:

; 610  : 	CPythonApplication::Instance().MovieZoomCamera(iDirection);

  00026	ff 75 fc	 push	 DWORD PTR _iDirection$[ebp]
  00029	8b 0d 00 00 00
	00		 mov	 ecx, DWORD PTR ?ms_pInstance@CPythonApplication@@1PAV1@A ; CPythonApplication::ms_pInstance
  0002f	e8 00 00 00 00	 call	 ?MovieZoomCamera@CPythonApplication@@QAEXH@Z ; CPythonApplication::MovieZoomCamera

; 611  : 	return Py_BuildNone();

  00034	e8 00 00 00 00	 call	 ?Py_BuildNone@@YAPAU_object@@XZ ; Py_BuildNone
$LN1@appMovieZo:

; 612  : }

  00039	c9		 leave
  0003a	c3		 ret	 0
?appMovieZoomCamera@@YAPAU_object@@PAU1@0@Z ENDP	; appMovieZoomCamera
_TEXT	ENDS
; Function compile flags: /Odspy
; File D:\Metin2 Server Files\mainline\SRC_2014\Metin2Client\UserInterface\PythonApplicationModule.cpp
;	COMDAT ?appMoviePitchCamera@@YAPAU_object@@PAU1@0@Z
_TEXT	SEGMENT
_iDirection$ = -4					; size = 4
_poSelf$ = 8						; size = 4
_poArgs$ = 12						; size = 4
?appMoviePitchCamera@@YAPAU_object@@PAU1@0@Z PROC	; appMoviePitchCamera, COMDAT

; 597  : {

  00000	55		 push	 ebp
  00001	8b ec		 mov	 ebp, esp
  00003	51		 push	 ecx

; 598  : 	int iDirection;
; 599  : 	if (!PyTuple_GetInteger(poArgs, 0, &iDirection))

  00004	8d 45 fc	 lea	 eax, DWORD PTR _iDirection$[ebp]
  00007	50		 push	 eax
  00008	6a 00		 push	 0
  0000a	ff 75 0c	 push	 DWORD PTR _poArgs$[ebp]
  0000d	e8 00 00 00 00	 call	 ?PyTuple_GetInteger@@YA_NPAU_object@@HPAH@Z ; PyTuple_GetInteger
  00012	83 c4 0c	 add	 esp, 12			; 0000000cH
  00015	0f b6 c0	 movzx	 eax, al
  00018	85 c0		 test	 eax, eax
  0001a	75 0a		 jne	 SHORT $LN4@appMoviePi

; 600  : 		return Py_BuildException();

  0001c	6a 00		 push	 0
  0001e	e8 00 00 00 00	 call	 ?Py_BuildException@@YAPAU_object@@PBDZZ ; Py_BuildException
  00023	59		 pop	 ecx
  00024	eb 13		 jmp	 SHORT $LN1@appMoviePi
$LN4@appMoviePi:

; 601  : 	CPythonApplication::Instance().MoviePitchCamera(iDirection);

  00026	ff 75 fc	 push	 DWORD PTR _iDirection$[ebp]
  00029	8b 0d 00 00 00
	00		 mov	 ecx, DWORD PTR ?ms_pInstance@CPythonApplication@@1PAV1@A ; CPythonApplication::ms_pInstance
  0002f	e8 00 00 00 00	 call	 ?MoviePitchCamera@CPythonApplication@@QAEXH@Z ; CPythonApplication::MoviePitchCamera

; 602  : 	return Py_BuildNone();

  00034	e8 00 00 00 00	 call	 ?Py_BuildNone@@YAPAU_object@@XZ ; Py_BuildNone
$LN1@appMoviePi:

; 603  : }

  00039	c9		 leave
  0003a	c3		 ret	 0
?appMoviePitchCamera@@YAPAU_object@@PAU1@0@Z ENDP	; appMoviePitchCamera
_TEXT	ENDS
; Function compile flags: /Odspy
; File D:\Metin2 Server Files\mainline\SRC_2014\Metin2Client\UserInterface\PythonApplicationModule.cpp
;	COMDAT ?appMovieRotateCamera@@YAPAU_object@@PAU1@0@Z
_TEXT	SEGMENT
_iDirection$ = -4					; size = 4
_poSelf$ = 8						; size = 4
_poArgs$ = 12						; size = 4
?appMovieRotateCamera@@YAPAU_object@@PAU1@0@Z PROC	; appMovieRotateCamera, COMDAT

; 588  : {

  00000	55		 push	 ebp
  00001	8b ec		 mov	 ebp, esp
  00003	51		 push	 ecx

; 589  : 	int iDirection;
; 590  : 	if (!PyTuple_GetInteger(poArgs, 0, &iDirection))

  00004	8d 45 fc	 lea	 eax, DWORD PTR _iDirection$[ebp]
  00007	50		 push	 eax
  00008	6a 00		 push	 0
  0000a	ff 75 0c	 push	 DWORD PTR _poArgs$[ebp]
  0000d	e8 00 00 00 00	 call	 ?PyTuple_GetInteger@@YA_NPAU_object@@HPAH@Z ; PyTuple_GetInteger
  00012	83 c4 0c	 add	 esp, 12			; 0000000cH
  00015	0f b6 c0	 movzx	 eax, al
  00018	85 c0		 test	 eax, eax
  0001a	75 0a		 jne	 SHORT $LN4@appMovieRo

; 591  : 		return Py_BuildException();

  0001c	6a 00		 push	 0
  0001e	e8 00 00 00 00	 call	 ?Py_BuildException@@YAPAU_object@@PBDZZ ; Py_BuildException
  00023	59		 pop	 ecx
  00024	eb 13		 jmp	 SHORT $LN1@appMovieRo
$LN4@appMovieRo:

; 592  : 	CPythonApplication::Instance().MovieRotateCamera(iDirection);

  00026	ff 75 fc	 push	 DWORD PTR _iDirection$[ebp]
  00029	8b 0d 00 00 00
	00		 mov	 ecx, DWORD PTR ?ms_pInstance@CPythonApplication@@1PAV1@A ; CPythonApplication::ms_pInstance
  0002f	e8 00 00 00 00	 call	 ?MovieRotateCamera@CPythonApplication@@QAEXH@Z ; CPythonApplication::MovieRotateCamera

; 593  : 	return Py_BuildNone();

  00034	e8 00 00 00 00	 call	 ?Py_BuildNone@@YAPAU_object@@XZ ; Py_BuildNone
$LN1@appMovieRo:

; 594  : }

  00039	c9		 leave
  0003a	c3		 ret	 0
?appMovieRotateCamera@@YAPAU_object@@PAU1@0@Z ENDP	; appMovieRotateCamera
_TEXT	ENDS
; Function compile flags: /Odspy
; File D:\Metin2 Server Files\mainline\SRC_2014\Metin2Client\UserInterface\PythonApplicationModule.cpp
;	COMDAT ?appZoomCamera@@YAPAU_object@@PAU1@0@Z
_TEXT	SEGMENT
_iDirection$ = -4					; size = 4
_poSelf$ = 8						; size = 4
_poArgs$ = 12						; size = 4
?appZoomCamera@@YAPAU_object@@PAU1@0@Z PROC		; appZoomCamera, COMDAT

; 579  : {

  00000	55		 push	 ebp
  00001	8b ec		 mov	 ebp, esp
  00003	51		 push	 ecx

; 580  : 	int iDirection;
; 581  : 	if (!PyTuple_GetInteger(poArgs, 0, &iDirection))

  00004	8d 45 fc	 lea	 eax, DWORD PTR _iDirection$[ebp]
  00007	50		 push	 eax
  00008	6a 00		 push	 0
  0000a	ff 75 0c	 push	 DWORD PTR _poArgs$[ebp]
  0000d	e8 00 00 00 00	 call	 ?PyTuple_GetInteger@@YA_NPAU_object@@HPAH@Z ; PyTuple_GetInteger
  00012	83 c4 0c	 add	 esp, 12			; 0000000cH
  00015	0f b6 c0	 movzx	 eax, al
  00018	85 c0		 test	 eax, eax
  0001a	75 0a		 jne	 SHORT $LN4@appZoomCam

; 582  : 		return Py_BuildException();

  0001c	6a 00		 push	 0
  0001e	e8 00 00 00 00	 call	 ?Py_BuildException@@YAPAU_object@@PBDZZ ; Py_BuildException
  00023	59		 pop	 ecx
  00024	eb 13		 jmp	 SHORT $LN1@appZoomCam
$LN4@appZoomCam:

; 583  : 	CPythonApplication::Instance().ZoomCamera(iDirection);

  00026	ff 75 fc	 push	 DWORD PTR _iDirection$[ebp]
  00029	8b 0d 00 00 00
	00		 mov	 ecx, DWORD PTR ?ms_pInstance@CPythonApplication@@1PAV1@A ; CPythonApplication::ms_pInstance
  0002f	e8 00 00 00 00	 call	 ?ZoomCamera@CPythonApplication@@QAEXH@Z ; CPythonApplication::ZoomCamera

; 584  : 	return Py_BuildNone();

  00034	e8 00 00 00 00	 call	 ?Py_BuildNone@@YAPAU_object@@XZ ; Py_BuildNone
$LN1@appZoomCam:

; 585  : }

  00039	c9		 leave
  0003a	c3		 ret	 0
?appZoomCamera@@YAPAU_object@@PAU1@0@Z ENDP		; appZoomCamera
_TEXT	ENDS
; Function compile flags: /Odspy
; File D:\Metin2 Server Files\mainline\SRC_2014\Metin2Client\UserInterface\PythonApplicationModule.cpp
;	COMDAT ?appPitchCamera@@YAPAU_object@@PAU1@0@Z
_TEXT	SEGMENT
_iDirection$ = -4					; size = 4
_poSelf$ = 8						; size = 4
_poArgs$ = 12						; size = 4
?appPitchCamera@@YAPAU_object@@PAU1@0@Z PROC		; appPitchCamera, COMDAT

; 570  : {

  00000	55		 push	 ebp
  00001	8b ec		 mov	 ebp, esp
  00003	51		 push	 ecx

; 571  : 	int iDirection;
; 572  : 	if (!PyTuple_GetInteger(poArgs, 0, &iDirection))

  00004	8d 45 fc	 lea	 eax, DWORD PTR _iDirection$[ebp]
  00007	50		 push	 eax
  00008	6a 00		 push	 0
  0000a	ff 75 0c	 push	 DWORD PTR _poArgs$[ebp]
  0000d	e8 00 00 00 00	 call	 ?PyTuple_GetInteger@@YA_NPAU_object@@HPAH@Z ; PyTuple_GetInteger
  00012	83 c4 0c	 add	 esp, 12			; 0000000cH
  00015	0f b6 c0	 movzx	 eax, al
  00018	85 c0		 test	 eax, eax
  0001a	75 0a		 jne	 SHORT $LN4@appPitchCa

; 573  : 		return Py_BuildException();

  0001c	6a 00		 push	 0
  0001e	e8 00 00 00 00	 call	 ?Py_BuildException@@YAPAU_object@@PBDZZ ; Py_BuildException
  00023	59		 pop	 ecx
  00024	eb 13		 jmp	 SHORT $LN1@appPitchCa
$LN4@appPitchCa:

; 574  : 	CPythonApplication::Instance().PitchCamera(iDirection);

  00026	ff 75 fc	 push	 DWORD PTR _iDirection$[ebp]
  00029	8b 0d 00 00 00
	00		 mov	 ecx, DWORD PTR ?ms_pInstance@CPythonApplication@@1PAV1@A ; CPythonApplication::ms_pInstance
  0002f	e8 00 00 00 00	 call	 ?PitchCamera@CPythonApplication@@QAEXH@Z ; CPythonApplication::PitchCamera

; 575  : 	return Py_BuildNone();

  00034	e8 00 00 00 00	 call	 ?Py_BuildNone@@YAPAU_object@@XZ ; Py_BuildNone
$LN1@appPitchCa:

; 576  : }

  00039	c9		 leave
  0003a	c3		 ret	 0
?appPitchCamera@@YAPAU_object@@PAU1@0@Z ENDP		; appPitchCamera
_TEXT	ENDS
; Function compile flags: /Odspy
; File D:\Metin2 Server Files\mainline\SRC_2014\Metin2Client\UserInterface\PythonApplicationModule.cpp
;	COMDAT ?appRotateCamera@@YAPAU_object@@PAU1@0@Z
_TEXT	SEGMENT
_iDirection$ = -4					; size = 4
_poSelf$ = 8						; size = 4
_poArgs$ = 12						; size = 4
?appRotateCamera@@YAPAU_object@@PAU1@0@Z PROC		; appRotateCamera, COMDAT

; 561  : {

  00000	55		 push	 ebp
  00001	8b ec		 mov	 ebp, esp
  00003	51		 push	 ecx

; 562  : 	int iDirection;
; 563  : 	if (!PyTuple_GetInteger(poArgs, 0, &iDirection))

  00004	8d 45 fc	 lea	 eax, DWORD PTR _iDirection$[ebp]
  00007	50		 push	 eax
  00008	6a 00		 push	 0
  0000a	ff 75 0c	 push	 DWORD PTR _poArgs$[ebp]
  0000d	e8 00 00 00 00	 call	 ?PyTuple_GetInteger@@YA_NPAU_object@@HPAH@Z ; PyTuple_GetInteger
  00012	83 c4 0c	 add	 esp, 12			; 0000000cH
  00015	0f b6 c0	 movzx	 eax, al
  00018	85 c0		 test	 eax, eax
  0001a	75 0a		 jne	 SHORT $LN4@appRotateC

; 564  : 		return Py_BuildException();

  0001c	6a 00		 push	 0
  0001e	e8 00 00 00 00	 call	 ?Py_BuildException@@YAPAU_object@@PBDZZ ; Py_BuildException
  00023	59		 pop	 ecx
  00024	eb 13		 jmp	 SHORT $LN1@appRotateC
$LN4@appRotateC:

; 565  : 	CPythonApplication::Instance().RotateCamera(iDirection);

  00026	ff 75 fc	 push	 DWORD PTR _iDirection$[ebp]
  00029	8b 0d 00 00 00
	00		 mov	 ecx, DWORD PTR ?ms_pInstance@CPythonApplication@@1PAV1@A ; CPythonApplication::ms_pInstance
  0002f	e8 00 00 00 00	 call	 ?RotateCamera@CPythonApplication@@QAEXH@Z ; CPythonApplication::RotateCamera

; 566  : 	return Py_BuildNone();

  00034	e8 00 00 00 00	 call	 ?Py_BuildNone@@YAPAU_object@@XZ ; Py_BuildNone
$LN1@appRotateC:

; 567  : }

  00039	c9		 leave
  0003a	c3		 ret	 0
?appRotateCamera@@YAPAU_object@@PAU1@0@Z ENDP		; appRotateCamera
_TEXT	ENDS
; Function compile flags: /Odspy
; File D:\Metin2 Server Files\mainline\SRC_2014\Metin2Client\UserInterface\PythonApplicationModule.cpp
; File D:\Metin2 Server Files\mainline\SRC_2014\Metin2Client\UserInterface\PythonApplication.h
; File D:\Metin2 Server Files\mainline\SRC_2014\Metin2Client\UserInterface\PythonApplicationModule.cpp
;	COMDAT ?appGetRenderFPS@@YAPAU_object@@PAU1@0@Z
_TEXT	SEGMENT
$T1 = -8						; size = 4
$T2 = -4						; size = 4
_poSelf$ = 8						; size = 4
_poArgs$ = 12						; size = 4
?appGetRenderFPS@@YAPAU_object@@PAU1@0@Z PROC		; appGetRenderFPS, COMDAT

; 556  : {

  00000	55		 push	 ebp
  00001	8b ec		 mov	 ebp, esp
  00003	51		 push	 ecx
  00004	51		 push	 ecx
; File D:\Metin2 Server Files\mainline\SRC_2014\Metin2Client\UserInterface\PythonApplication.h

; 143  : 			return *ms_pInstance;

  00005	a1 00 00 00 00	 mov	 eax, DWORD PTR ?ms_pInstance@CPythonApplication@@1PAV1@A ; CPythonApplication::ms_pInstance
  0000a	89 45 fc	 mov	 DWORD PTR $T2[ebp], eax

; 215  : 		DWORD GetRenderFPS()		{ return m_dwRenderFPS; }

  0000d	8b 45 fc	 mov	 eax, DWORD PTR $T2[ebp]
  00010	8b 80 20 eb 01
	00		 mov	 eax, DWORD PTR [eax+125728]
  00016	89 45 f8	 mov	 DWORD PTR $T1[ebp], eax
; File D:\Metin2 Server Files\mainline\SRC_2014\Metin2Client\UserInterface\PythonApplicationModule.cpp

; 557  : 	return Py_BuildValue("i", CPythonApplication::Instance().GetRenderFPS());

  00019	ff 75 f8	 push	 DWORD PTR $T1[ebp]
  0001c	68 00 00 00 00	 push	 OFFSET ??_C@_01KBJDNOO@i@
  00021	ff 15 00 00 00
	00		 call	 DWORD PTR __imp__Py_BuildValue
  00027	59		 pop	 ecx
  00028	59		 pop	 ecx

; 558  : }

  00029	c9		 leave
  0002a	c3		 ret	 0
?appGetRenderFPS@@YAPAU_object@@PAU1@0@Z ENDP		; appGetRenderFPS
_TEXT	ENDS
; Function compile flags: /Odspy
; File D:\Metin2 Server Files\mainline\SRC_2014\Metin2Client\UserInterface\PythonApplicationModule.cpp
; File D:\Metin2 Server Files\mainline\SRC_2014\Metin2Client\UserInterface\PythonApplication.h
; File D:\Metin2 Server Files\mainline\SRC_2014\Metin2Client\UserInterface\PythonApplicationModule.cpp
;	COMDAT ?appGetUpdateFPS@@YAPAU_object@@PAU1@0@Z
_TEXT	SEGMENT
$T1 = -8						; size = 4
$T2 = -4						; size = 4
_poSelf$ = 8						; size = 4
_poArgs$ = 12						; size = 4
?appGetUpdateFPS@@YAPAU_object@@PAU1@0@Z PROC		; appGetUpdateFPS, COMDAT

; 551  : {

  00000	55		 push	 ebp
  00001	8b ec		 mov	 ebp, esp
  00003	51		 push	 ecx
  00004	51		 push	 ecx
; File D:\Metin2 Server Files\mainline\SRC_2014\Metin2Client\UserInterface\PythonApplication.h

; 143  : 			return *ms_pInstance;

  00005	a1 00 00 00 00	 mov	 eax, DWORD PTR ?ms_pInstance@CPythonApplication@@1PAV1@A ; CPythonApplication::ms_pInstance
  0000a	89 45 fc	 mov	 DWORD PTR $T2[ebp], eax

; 214  : 		DWORD GetUpdateFPS()		{ return m_dwUpdateFPS; }

  0000d	8b 45 fc	 mov	 eax, DWORD PTR $T2[ebp]
  00010	8b 80 1c eb 01
	00		 mov	 eax, DWORD PTR [eax+125724]
  00016	89 45 f8	 mov	 DWORD PTR $T1[ebp], eax
; File D:\Metin2 Server Files\mainline\SRC_2014\Metin2Client\UserInterface\PythonApplicationModule.cpp

; 552  : 	return Py_BuildValue("i", CPythonApplication::Instance().GetUpdateFPS());

  00019	ff 75 f8	 push	 DWORD PTR $T1[ebp]
  0001c	68 00 00 00 00	 push	 OFFSET ??_C@_01KBJDNOO@i@
  00021	ff 15 00 00 00
	00		 call	 DWORD PTR __imp__Py_BuildValue
  00027	59		 pop	 ecx
  00028	59		 pop	 ecx

; 553  : }

  00029	c9		 leave
  0002a	c3		 ret	 0
?appGetUpdateFPS@@YAPAU_object@@PAU1@0@Z ENDP		; appGetUpdateFPS
_TEXT	ENDS
; Function compile flags: /Odspy
; File D:\Metin2 Server Files\mainline\SRC_2014\Metin2Client\UserInterface\PythonApplicationModule.cpp
; File D:\Metin2 Server Files\mainline\SRC_2014\Metin2Client\UserInterface\PythonApplication.h
; File D:\Metin2 Server Files\mainline\SRC_2014\Metin2Client\UserInterface\PythonApplicationModule.cpp
;	COMDAT ?appGetGlobalTimeStamp@@YAPAU_object@@PAU1@0@Z
_TEXT	SEGMENT
$T1 = -4						; size = 4
_poSelf$ = 8						; size = 4
_poArgs$ = 12						; size = 4
?appGetGlobalTimeStamp@@YAPAU_object@@PAU1@0@Z PROC	; appGetGlobalTimeStamp, COMDAT

; 546  : {

  00000	55		 push	 ebp
  00001	8b ec		 mov	 ebp, esp
  00003	51		 push	 ecx
; File D:\Metin2 Server Files\mainline\SRC_2014\Metin2Client\UserInterface\PythonApplication.h

; 143  : 			return *ms_pInstance;

  00004	a1 00 00 00 00	 mov	 eax, DWORD PTR ?ms_pInstance@CPythonApplication@@1PAV1@A ; CPythonApplication::ms_pInstance
  00009	89 45 fc	 mov	 DWORD PTR $T1[ebp], eax
; File D:\Metin2 Server Files\mainline\SRC_2014\Metin2Client\UserInterface\PythonApplicationModule.cpp

; 547  : 	return Py_BuildValue("i", CPythonApplication::Instance().GetServerTimeStamp());

  0000c	8b 4d fc	 mov	 ecx, DWORD PTR $T1[ebp]
  0000f	e8 00 00 00 00	 call	 ?GetServerTimeStamp@CPythonApplication@@QAEJXZ ; CPythonApplication::GetServerTimeStamp
  00014	50		 push	 eax
  00015	68 00 00 00 00	 push	 OFFSET ??_C@_01KBJDNOO@i@
  0001a	ff 15 00 00 00
	00		 call	 DWORD PTR __imp__Py_BuildValue
  00020	59		 pop	 ecx
  00021	59		 pop	 ecx

; 548  : }

  00022	c9		 leave
  00023	c3		 ret	 0
?appGetGlobalTimeStamp@@YAPAU_object@@PAU1@0@Z ENDP	; appGetGlobalTimeStamp
_TEXT	ENDS
; Function compile flags: /Odspy
; File D:\Metin2 Server Files\mainline\SRC_2014\Metin2Client\UserInterface\PythonApplicationModule.cpp
; File D:\Metin2 Server Files\mainline\SRC_2014\Metin2Client\UserInterface\PythonApplication.h
; File D:\Metin2 Server Files\mainline\SRC_2014\Metin2Client\UserInterface\PythonApplicationModule.cpp
;	COMDAT ?appGetGlobalTime@@YAPAU_object@@PAU1@0@Z
_TEXT	SEGMENT
$T1 = -4						; size = 4
_poSelf$ = 8						; size = 4
_poArgs$ = 12						; size = 4
?appGetGlobalTime@@YAPAU_object@@PAU1@0@Z PROC		; appGetGlobalTime, COMDAT

; 541  : {

  00000	55		 push	 ebp
  00001	8b ec		 mov	 ebp, esp
  00003	51		 push	 ecx
; File D:\Metin2 Server Files\mainline\SRC_2014\Metin2Client\UserInterface\PythonApplication.h

; 143  : 			return *ms_pInstance;

  00004	a1 00 00 00 00	 mov	 eax, DWORD PTR ?ms_pInstance@CPythonApplication@@1PAV1@A ; CPythonApplication::ms_pInstance
  00009	89 45 fc	 mov	 DWORD PTR $T1[ebp], eax
; File D:\Metin2 Server Files\mainline\SRC_2014\Metin2Client\UserInterface\PythonApplicationModule.cpp

; 542  : 	return Py_BuildValue("i", CPythonApplication::Instance().GetServerTime());

  0000c	8b 4d fc	 mov	 ecx, DWORD PTR $T1[ebp]
  0000f	e8 00 00 00 00	 call	 ?GetServerTime@CPythonApplication@@QAEJXZ ; CPythonApplication::GetServerTime
  00014	50		 push	 eax
  00015	68 00 00 00 00	 push	 OFFSET ??_C@_01KBJDNOO@i@
  0001a	ff 15 00 00 00
	00		 call	 DWORD PTR __imp__Py_BuildValue
  00020	59		 pop	 ecx
  00021	59		 pop	 ecx

; 543  : }

  00022	c9		 leave
  00023	c3		 ret	 0
?appGetGlobalTime@@YAPAU_object@@PAU1@0@Z ENDP		; appGetGlobalTime
_TEXT	ENDS
; Function compile flags: /Odspy
; File D:\Metin2 Server Files\mainline\SRC_2014\Metin2Client\UserInterface\PythonApplicationModule.cpp
;	COMDAT ?appGetTime@@YAPAU_object@@PAU1@0@Z
_TEXT	SEGMENT
tv71 = -4						; size = 4
_poSelf$ = 8						; size = 4
_poArgs$ = 12						; size = 4
?appGetTime@@YAPAU_object@@PAU1@0@Z PROC		; appGetTime, COMDAT

; 536  : {

  00000	55		 push	 ebp
  00001	8b ec		 mov	 ebp, esp
  00003	51		 push	 ecx

; 537  : 	return Py_BuildValue("f", CPythonApplication::Instance().GetGlobalTime());

  00004	a1 00 00 00 00	 mov	 eax, DWORD PTR ?ms_pInstance@CPythonApplication@@1PAV1@A ; CPythonApplication::ms_pInstance
  00009	83 c0 20	 add	 eax, 32			; 00000020H
  0000c	89 45 fc	 mov	 DWORD PTR tv71[ebp], eax
  0000f	8b 45 fc	 mov	 eax, DWORD PTR tv71[ebp]
  00012	8b 00		 mov	 eax, DWORD PTR [eax]
  00014	8b 4d fc	 mov	 ecx, DWORD PTR tv71[ebp]
  00017	ff 50 08	 call	 DWORD PTR [eax+8]
  0001a	51		 push	 ecx
  0001b	51		 push	 ecx
  0001c	dd 1c 24	 fstp	 QWORD PTR [esp]
  0001f	68 00 00 00 00	 push	 OFFSET ??_C@_01INIBCBCB@f@
  00024	ff 15 00 00 00
	00		 call	 DWORD PTR __imp__Py_BuildValue
  0002a	83 c4 0c	 add	 esp, 12			; 0000000cH

; 538  : }

  0002d	c9		 leave
  0002e	c3		 ret	 0
?appGetTime@@YAPAU_object@@PAU1@0@Z ENDP		; appGetTime
_TEXT	ENDS
; Function compile flags: /Odspy
; File D:\Metin2 Server Files\mainline\SRC_2014\Metin2Client\UserInterface\PythonApplicationModule.cpp
; File D:\Metin2 Server Files\mainline\SRC_2014\Metin2Client\UserInterface\PythonApplication.h
; File D:\Metin2 Server Files\mainline\SRC_2014\Metin2Client\UserInterface\PythonApplicationModule.cpp
;	COMDAT ?appGetCameraRotation@@YAPAU_object@@PAU1@0@Z
_TEXT	SEGMENT
$T1 = -4						; size = 4
_poSelf$ = 8						; size = 4
_poArgs$ = 12						; size = 4
?appGetCameraRotation@@YAPAU_object@@PAU1@0@Z PROC	; appGetCameraRotation, COMDAT

; 531  : {

  00000	55		 push	 ebp
  00001	8b ec		 mov	 ebp, esp
  00003	51		 push	 ecx
; File D:\Metin2 Server Files\mainline\SRC_2014\Metin2Client\UserInterface\PythonApplication.h

; 143  : 			return *ms_pInstance;

  00004	a1 00 00 00 00	 mov	 eax, DWORD PTR ?ms_pInstance@CPythonApplication@@1PAV1@A ; CPythonApplication::ms_pInstance
  00009	89 45 fc	 mov	 DWORD PTR $T1[ebp], eax
; File D:\Metin2 Server Files\mainline\SRC_2014\Metin2Client\UserInterface\PythonApplicationModule.cpp

; 532  : 	return Py_BuildValue("f", CPythonApplication::Instance().GetRotation());

  0000c	8b 4d fc	 mov	 ecx, DWORD PTR $T1[ebp]
  0000f	e8 00 00 00 00	 call	 ?GetRotation@CPythonApplication@@QAEMXZ ; CPythonApplication::GetRotation
  00014	51		 push	 ecx
  00015	51		 push	 ecx
  00016	dd 1c 24	 fstp	 QWORD PTR [esp]
  00019	68 00 00 00 00	 push	 OFFSET ??_C@_01INIBCBCB@f@
  0001e	ff 15 00 00 00
	00		 call	 DWORD PTR __imp__Py_BuildValue
  00024	83 c4 0c	 add	 esp, 12			; 0000000cH

; 533  : }

  00027	c9		 leave
  00028	c3		 ret	 0
?appGetCameraRotation@@YAPAU_object@@PAU1@0@Z ENDP	; appGetCameraRotation
_TEXT	ENDS
; Function compile flags: /Odspy
; File D:\Metin2 Server Files\mainline\SRC_2014\Metin2Client\UserInterface\PythonApplicationModule.cpp
; File D:\Metin2 Server Files\mainline\SRC_2014\Metin2Client\UserInterface\PythonApplication.h
; File D:\Metin2 Server Files\mainline\SRC_2014\Metin2Client\UserInterface\PythonApplicationModule.cpp
;	COMDAT ?appGetCameraPitch@@YAPAU_object@@PAU1@0@Z
_TEXT	SEGMENT
$T1 = -4						; size = 4
_poSelf$ = 8						; size = 4
_poArgs$ = 12						; size = 4
?appGetCameraPitch@@YAPAU_object@@PAU1@0@Z PROC		; appGetCameraPitch, COMDAT

; 526  : {

  00000	55		 push	 ebp
  00001	8b ec		 mov	 ebp, esp
  00003	51		 push	 ecx
; File D:\Metin2 Server Files\mainline\SRC_2014\Metin2Client\UserInterface\PythonApplication.h

; 143  : 			return *ms_pInstance;

  00004	a1 00 00 00 00	 mov	 eax, DWORD PTR ?ms_pInstance@CPythonApplication@@1PAV1@A ; CPythonApplication::ms_pInstance
  00009	89 45 fc	 mov	 DWORD PTR $T1[ebp], eax
; File D:\Metin2 Server Files\mainline\SRC_2014\Metin2Client\UserInterface\PythonApplicationModule.cpp

; 527  : 	return Py_BuildValue("f", CPythonApplication::Instance().GetPitch());

  0000c	8b 4d fc	 mov	 ecx, DWORD PTR $T1[ebp]
  0000f	e8 00 00 00 00	 call	 ?GetPitch@CPythonApplication@@QAEMXZ ; CPythonApplication::GetPitch
  00014	51		 push	 ecx
  00015	51		 push	 ecx
  00016	dd 1c 24	 fstp	 QWORD PTR [esp]
  00019	68 00 00 00 00	 push	 OFFSET ??_C@_01INIBCBCB@f@
  0001e	ff 15 00 00 00
	00		 call	 DWORD PTR __imp__Py_BuildValue
  00024	83 c4 0c	 add	 esp, 12			; 0000000cH

; 528  : }

  00027	c9		 leave
  00028	c3		 ret	 0
?appGetCameraPitch@@YAPAU_object@@PAU1@0@Z ENDP		; appGetCameraPitch
_TEXT	ENDS
; Function compile flags: /Odspy
; File D:\Metin2 Server Files\mainline\SRC_2014\Metin2Client\UserInterface\PythonApplicationModule.cpp
;	COMDAT ?appGetCamera@@YAPAU_object@@PAU1@0@Z
_TEXT	SEGMENT
_Distance$ = -16					; size = 4
_Pitch$ = -12						; size = 4
_Rotation$ = -8						; size = 4
_DestinationHeight$ = -4				; size = 4
_poSelf$ = 8						; size = 4
_poArgs$ = 12						; size = 4
?appGetCamera@@YAPAU_object@@PAU1@0@Z PROC		; appGetCamera, COMDAT

; 518  : {

  00000	55		 push	 ebp
  00001	8b ec		 mov	 ebp, esp
  00003	83 ec 10	 sub	 esp, 16			; 00000010H

; 519  : 	float Distance, Pitch, Rotation, DestinationHeight;
; 520  :     CPythonApplication::Instance().GetCamera(&Distance, &Pitch, &Rotation, &DestinationHeight);

  00006	8d 45 fc	 lea	 eax, DWORD PTR _DestinationHeight$[ebp]
  00009	50		 push	 eax
  0000a	8d 45 f8	 lea	 eax, DWORD PTR _Rotation$[ebp]
  0000d	50		 push	 eax
  0000e	8d 45 f4	 lea	 eax, DWORD PTR _Pitch$[ebp]
  00011	50		 push	 eax
  00012	8d 45 f0	 lea	 eax, DWORD PTR _Distance$[ebp]
  00015	50		 push	 eax
  00016	8b 0d 00 00 00
	00		 mov	 ecx, DWORD PTR ?ms_pInstance@CPythonApplication@@1PAV1@A ; CPythonApplication::ms_pInstance
  0001c	e8 00 00 00 00	 call	 ?GetCamera@CPythonApplication@@QAEXPAM000@Z ; CPythonApplication::GetCamera

; 521  : 
; 522  : 	return Py_BuildValue("ffff", Distance, Pitch, Rotation, DestinationHeight);

  00021	f3 0f 5a 45 fc	 cvtss2sd xmm0, DWORD PTR _DestinationHeight$[ebp]
  00026	51		 push	 ecx
  00027	51		 push	 ecx
  00028	f2 0f 11 04 24	 movsd	 QWORD PTR [esp], xmm0
  0002d	f3 0f 5a 45 f8	 cvtss2sd xmm0, DWORD PTR _Rotation$[ebp]
  00032	51		 push	 ecx
  00033	51		 push	 ecx
  00034	f2 0f 11 04 24	 movsd	 QWORD PTR [esp], xmm0
  00039	f3 0f 5a 45 f4	 cvtss2sd xmm0, DWORD PTR _Pitch$[ebp]
  0003e	51		 push	 ecx
  0003f	51		 push	 ecx
  00040	f2 0f 11 04 24	 movsd	 QWORD PTR [esp], xmm0
  00045	f3 0f 5a 45 f0	 cvtss2sd xmm0, DWORD PTR _Distance$[ebp]
  0004a	51		 push	 ecx
  0004b	51		 push	 ecx
  0004c	f2 0f 11 04 24	 movsd	 QWORD PTR [esp], xmm0
  00051	68 00 00 00 00	 push	 OFFSET ??_C@_04EOBPFJGD@ffff@
  00056	ff 15 00 00 00
	00		 call	 DWORD PTR __imp__Py_BuildValue
  0005c	83 c4 24	 add	 esp, 36			; 00000024H

; 523  : }

  0005f	c9		 leave
  00060	c3		 ret	 0
?appGetCamera@@YAPAU_object@@PAU1@0@Z ENDP		; appGetCamera
_TEXT	ENDS
; Function compile flags: /Odspy
; File D:\Metin2 Server Files\mainline\SRC_2014\Metin2Client\UserInterface\PythonApplicationModule.cpp
;	COMDAT ?appSetCamera@@YAPAU_object@@PAU1@0@Z
_TEXT	SEGMENT
_Distance$ = -16					; size = 4
_Pitch$ = -12						; size = 4
_Rotation$ = -8						; size = 4
_fDestinationHeight$ = -4				; size = 4
_poSelf$ = 8						; size = 4
_poArgs$ = 12						; size = 4
?appSetCamera@@YAPAU_object@@PAU1@0@Z PROC		; appSetCamera, COMDAT

; 496  : {

  00000	55		 push	 ebp
  00001	8b ec		 mov	 ebp, esp
  00003	83 ec 10	 sub	 esp, 16			; 00000010H

; 497  : 	float Distance;
; 498  : 	if (!PyTuple_GetFloat(poArgs, 0, &Distance))

  00006	8d 45 f0	 lea	 eax, DWORD PTR _Distance$[ebp]
  00009	50		 push	 eax
  0000a	6a 00		 push	 0
  0000c	ff 75 0c	 push	 DWORD PTR _poArgs$[ebp]
  0000f	e8 00 00 00 00	 call	 ?PyTuple_GetFloat@@YA_NPAU_object@@HPAM@Z ; PyTuple_GetFloat
  00014	83 c4 0c	 add	 esp, 12			; 0000000cH
  00017	0f b6 c0	 movzx	 eax, al
  0001a	85 c0		 test	 eax, eax
  0001c	75 0d		 jne	 SHORT $LN2@appSetCame

; 499  : 		return Py_BuildException();

  0001e	6a 00		 push	 0
  00020	e8 00 00 00 00	 call	 ?Py_BuildException@@YAPAU_object@@PBDZZ ; Py_BuildException
  00025	59		 pop	 ecx
  00026	e9 a5 00 00 00	 jmp	 $LN1@appSetCame
$LN2@appSetCame:

; 500  : 
; 501  : 	float Pitch;
; 502  : 	if (!PyTuple_GetFloat(poArgs, 1, &Pitch))

  0002b	8d 45 f4	 lea	 eax, DWORD PTR _Pitch$[ebp]
  0002e	50		 push	 eax
  0002f	6a 01		 push	 1
  00031	ff 75 0c	 push	 DWORD PTR _poArgs$[ebp]
  00034	e8 00 00 00 00	 call	 ?PyTuple_GetFloat@@YA_NPAU_object@@HPAM@Z ; PyTuple_GetFloat
  00039	83 c4 0c	 add	 esp, 12			; 0000000cH
  0003c	0f b6 c0	 movzx	 eax, al
  0003f	85 c0		 test	 eax, eax
  00041	75 0d		 jne	 SHORT $LN3@appSetCame

; 503  : 		return Py_BuildException();

  00043	6a 00		 push	 0
  00045	e8 00 00 00 00	 call	 ?Py_BuildException@@YAPAU_object@@PBDZZ ; Py_BuildException
  0004a	59		 pop	 ecx
  0004b	e9 80 00 00 00	 jmp	 $LN1@appSetCame
$LN3@appSetCame:

; 504  : 
; 505  : 	float Rotation;
; 506  : 	if (!PyTuple_GetFloat(poArgs, 2, &Rotation))

  00050	8d 45 f8	 lea	 eax, DWORD PTR _Rotation$[ebp]
  00053	50		 push	 eax
  00054	6a 02		 push	 2
  00056	ff 75 0c	 push	 DWORD PTR _poArgs$[ebp]
  00059	e8 00 00 00 00	 call	 ?PyTuple_GetFloat@@YA_NPAU_object@@HPAM@Z ; PyTuple_GetFloat
  0005e	83 c4 0c	 add	 esp, 12			; 0000000cH
  00061	0f b6 c0	 movzx	 eax, al
  00064	85 c0		 test	 eax, eax
  00066	75 0a		 jne	 SHORT $LN4@appSetCame

; 507  : 		return Py_BuildException();

  00068	6a 00		 push	 0
  0006a	e8 00 00 00 00	 call	 ?Py_BuildException@@YAPAU_object@@PBDZZ ; Py_BuildException
  0006f	59		 pop	 ecx
  00070	eb 5e		 jmp	 SHORT $LN1@appSetCame
$LN4@appSetCame:

; 508  : 
; 509  : 	float fDestinationHeight;
; 510  : 	if (!PyTuple_GetFloat(poArgs, 3, &fDestinationHeight))

  00072	8d 45 fc	 lea	 eax, DWORD PTR _fDestinationHeight$[ebp]
  00075	50		 push	 eax
  00076	6a 03		 push	 3
  00078	ff 75 0c	 push	 DWORD PTR _poArgs$[ebp]
  0007b	e8 00 00 00 00	 call	 ?PyTuple_GetFloat@@YA_NPAU_object@@HPAM@Z ; PyTuple_GetFloat
  00080	83 c4 0c	 add	 esp, 12			; 0000000cH
  00083	0f b6 c0	 movzx	 eax, al
  00086	85 c0		 test	 eax, eax
  00088	75 0a		 jne	 SHORT $LN5@appSetCame

; 511  : 		return Py_BuildException();

  0008a	6a 00		 push	 0
  0008c	e8 00 00 00 00	 call	 ?Py_BuildException@@YAPAU_object@@PBDZZ ; Py_BuildException
  00091	59		 pop	 ecx
  00092	eb 3c		 jmp	 SHORT $LN1@appSetCame
$LN5@appSetCame:

; 512  : 
; 513  : 	CPythonApplication::Instance().SetCamera(Distance, Pitch, Rotation, fDestinationHeight);

  00094	51		 push	 ecx
  00095	f3 0f 10 45 fc	 movss	 xmm0, DWORD PTR _fDestinationHeight$[ebp]
  0009a	f3 0f 11 04 24	 movss	 DWORD PTR [esp], xmm0
  0009f	51		 push	 ecx
  000a0	f3 0f 10 45 f8	 movss	 xmm0, DWORD PTR _Rotation$[ebp]
  000a5	f3 0f 11 04 24	 movss	 DWORD PTR [esp], xmm0
  000aa	51		 push	 ecx
  000ab	f3 0f 10 45 f4	 movss	 xmm0, DWORD PTR _Pitch$[ebp]
  000b0	f3 0f 11 04 24	 movss	 DWORD PTR [esp], xmm0
  000b5	51		 push	 ecx
  000b6	f3 0f 10 45 f0	 movss	 xmm0, DWORD PTR _Distance$[ebp]
  000bb	f3 0f 11 04 24	 movss	 DWORD PTR [esp], xmm0
  000c0	8b 0d 00 00 00
	00		 mov	 ecx, DWORD PTR ?ms_pInstance@CPythonApplication@@1PAV1@A ; CPythonApplication::ms_pInstance
  000c6	e8 00 00 00 00	 call	 ?SetCamera@CPythonApplication@@QAEXMMMM@Z ; CPythonApplication::SetCamera

; 514  : 	return Py_BuildNone();

  000cb	e8 00 00 00 00	 call	 ?Py_BuildNone@@YAPAU_object@@XZ ; Py_BuildNone
$LN1@appSetCame:

; 515  : }

  000d0	c9		 leave
  000d1	c3		 ret	 0
?appSetCamera@@YAPAU_object@@PAU1@0@Z ENDP		; appSetCamera
_TEXT	ENDS
; Function compile flags: /Odspy
; File D:\Metin2 Server Files\mainline\SRC_2014\Metin2Client\UserInterface\PythonApplicationModule.cpp
;	COMDAT ?appExit@@YAPAU_object@@PAU1@0@Z
_TEXT	SEGMENT
_poSelf$ = 8						; size = 4
_poArgs$ = 12						; size = 4
?appExit@@YAPAU_object@@PAU1@0@Z PROC			; appExit, COMDAT

; 490  : {

  00000	55		 push	 ebp
  00001	8b ec		 mov	 ebp, esp

; 491  : 	CPythonApplication::Instance().Exit();

  00003	8b 0d 00 00 00
	00		 mov	 ecx, DWORD PTR ?ms_pInstance@CPythonApplication@@1PAV1@A ; CPythonApplication::ms_pInstance
  00009	e8 00 00 00 00	 call	 ?Exit@CPythonApplication@@QAEXXZ ; CPythonApplication::Exit

; 492  : 	return Py_BuildNone();

  0000e	e8 00 00 00 00	 call	 ?Py_BuildNone@@YAPAU_object@@XZ ; Py_BuildNone

; 493  : }

  00013	5d		 pop	 ebp
  00014	c3		 ret	 0
?appExit@@YAPAU_object@@PAU1@0@Z ENDP			; appExit
_TEXT	ENDS
; Function compile flags: /Odspy
; File D:\Metin2 Server Files\mainline\SRC_2014\Metin2Client\UserInterface\PythonApplicationModule.cpp
;	COMDAT ?appAbort@@YAPAU_object@@PAU1@0@Z
_TEXT	SEGMENT
_poSelf$ = 8						; size = 4
_poArgs$ = 12						; size = 4
?appAbort@@YAPAU_object@@PAU1@0@Z PROC			; appAbort, COMDAT

; 484  : {

  00000	55		 push	 ebp
  00001	8b ec		 mov	 ebp, esp

; 485  : 	CPythonApplication::Instance().Abort();

  00003	8b 0d 00 00 00
	00		 mov	 ecx, DWORD PTR ?ms_pInstance@CPythonApplication@@1PAV1@A ; CPythonApplication::ms_pInstance
  00009	e8 00 00 00 00	 call	 ?Abort@CPythonApplication@@QAEXXZ ; CPythonApplication::Abort

; 486  : 	return Py_BuildNone();

  0000e	e8 00 00 00 00	 call	 ?Py_BuildNone@@YAPAU_object@@XZ ; Py_BuildNone

; 487  : }

  00013	5d		 pop	 ebp
  00014	c3		 ret	 0
?appAbort@@YAPAU_object@@PAU1@0@Z ENDP			; appAbort
_TEXT	ENDS
; Function compile flags: /Odspy
; File D:\Metin2 Server Files\mainline\SRC_2014\Metin2Client\UserInterface\PythonApplicationModule.cpp
; File D:\Metin2 Server Files\mainline\SRC_2014\Metin2Client\UserInterface\PythonApplication.h
; File D:\Metin2 Server Files\mainline\SRC_2014\Metin2Client\UserInterface\PythonApplicationModule.cpp
;	COMDAT ?appProcess@@YAPAU_object@@PAU1@0@Z
_TEXT	SEGMENT
$T1 = -4						; size = 4
_poSelf$ = 8						; size = 4
_poArgs$ = 12						; size = 4
?appProcess@@YAPAU_object@@PAU1@0@Z PROC		; appProcess, COMDAT

; 476  : {

  00000	55		 push	 ebp
  00001	8b ec		 mov	 ebp, esp
  00003	51		 push	 ecx
; File D:\Metin2 Server Files\mainline\SRC_2014\Metin2Client\UserInterface\PythonApplication.h

; 143  : 			return *ms_pInstance;

  00004	a1 00 00 00 00	 mov	 eax, DWORD PTR ?ms_pInstance@CPythonApplication@@1PAV1@A ; CPythonApplication::ms_pInstance
  00009	89 45 fc	 mov	 DWORD PTR $T1[ebp], eax
; File D:\Metin2 Server Files\mainline\SRC_2014\Metin2Client\UserInterface\PythonApplicationModule.cpp

; 477  : 	if (CPythonApplication::Instance().Process())

  0000c	8b 4d fc	 mov	 ecx, DWORD PTR $T1[ebp]
  0000f	e8 00 00 00 00	 call	 ?Process@CPythonApplication@@QAE_NXZ ; CPythonApplication::Process
  00014	0f b6 c0	 movzx	 eax, al
  00017	85 c0		 test	 eax, eax
  00019	74 11		 je	 SHORT $LN2@appProcess

; 478  : 		return Py_BuildValue("i", 1);

  0001b	6a 01		 push	 1
  0001d	68 00 00 00 00	 push	 OFFSET ??_C@_01KBJDNOO@i@
  00022	ff 15 00 00 00
	00		 call	 DWORD PTR __imp__Py_BuildValue
  00028	59		 pop	 ecx
  00029	59		 pop	 ecx
  0002a	eb 0f		 jmp	 SHORT $LN1@appProcess
$LN2@appProcess:

; 479  : 
; 480  : 	return Py_BuildValue("i", 0);

  0002c	6a 00		 push	 0
  0002e	68 00 00 00 00	 push	 OFFSET ??_C@_01KBJDNOO@i@
  00033	ff 15 00 00 00
	00		 call	 DWORD PTR __imp__Py_BuildValue
  00039	59		 pop	 ecx
  0003a	59		 pop	 ecx
$LN1@appProcess:

; 481  : }

  0003b	c9		 leave
  0003c	c3		 ret	 0
?appProcess@@YAPAU_object@@PAU1@0@Z ENDP		; appProcess
_TEXT	ENDS
; Function compile flags: /Odspy
; File D:\Metin2 Server Files\mainline\SRC_2014\Metin2Client\UserInterface\PythonApplicationModule.cpp
; File C:\Program Files (x86)\Microsoft Visual Studio\2019\Community\VC\Tools\MSVC\14.28.29333\include\xstring
; File D:\Metin2 Server Files\mainline\SRC_2014\Metin2Client\UserInterface\PythonApplicationModule.cpp
;	COMDAT ?appGetInfo@@YAPAU_object@@PAU1@0@Z
_TEXT	SEGMENT
$T2 = -48						; size = 4
_nInfo$ = -44						; size = 4
_stInfo$ = -40						; size = 24
__$ArrayPad$ = -16					; size = 4
__$EHRec$ = -12						; size = 12
_poSelf$ = 8						; size = 4
_poArgs$ = 12						; size = 4
?appGetInfo@@YAPAU_object@@PAU1@0@Z PROC		; appGetInfo, COMDAT

; 465  : {

  00000	55		 push	 ebp
  00001	8b ec		 mov	 ebp, esp
  00003	6a ff		 push	 -1
  00005	68 00 00 00 00	 push	 __ehhandler$?appGetInfo@@YAPAU_object@@PAU1@0@Z
  0000a	64 a1 00 00 00
	00		 mov	 eax, DWORD PTR fs:0
  00010	50		 push	 eax
  00011	83 ec 24	 sub	 esp, 36			; 00000024H
  00014	a1 00 00 00 00	 mov	 eax, DWORD PTR ___security_cookie
  00019	33 c5		 xor	 eax, ebp
  0001b	89 45 f0	 mov	 DWORD PTR __$ArrayPad$[ebp], eax
  0001e	50		 push	 eax
  0001f	8d 45 f4	 lea	 eax, DWORD PTR __$EHRec$[ebp]
  00022	64 a3 00 00 00
	00		 mov	 DWORD PTR fs:0, eax

; 466  : 	int nInfo;
; 467  : 	if (!PyTuple_GetInteger(poArgs, 0, &nInfo))

  00028	8d 45 d4	 lea	 eax, DWORD PTR _nInfo$[ebp]
  0002b	50		 push	 eax
  0002c	6a 00		 push	 0
  0002e	ff 75 0c	 push	 DWORD PTR _poArgs$[ebp]
  00031	e8 00 00 00 00	 call	 ?PyTuple_GetInteger@@YA_NPAU_object@@HPAH@Z ; PyTuple_GetInteger
  00036	83 c4 0c	 add	 esp, 12			; 0000000cH
  00039	0f b6 c0	 movzx	 eax, al
  0003c	85 c0		 test	 eax, eax
  0003e	75 0a		 jne	 SHORT $LN2@appGetInfo

; 468  : 		return Py_BuildException();

  00040	6a 00		 push	 0
  00042	e8 00 00 00 00	 call	 ?Py_BuildException@@YAPAU_object@@PBDZZ ; Py_BuildException
  00047	59		 pop	 ecx
  00048	eb 46		 jmp	 SHORT $LN1@appGetInfo
$LN2@appGetInfo:

; 469  : 
; 470  : 	std::string stInfo;

  0004a	8d 4d d8	 lea	 ecx, DWORD PTR _stInfo$[ebp]
  0004d	e8 00 00 00 00	 call	 ??0?$basic_string@DU?$char_traits@D@std@@V?$allocator@D@2@@std@@QAE@XZ ; std::basic_string<char,std::char_traits<char>,std::allocator<char> >::basic_string<char,std::char_traits<char>,std::allocator<char> >
  00052	83 65 fc 00	 and	 DWORD PTR __$EHRec$[ebp+8], 0

; 471  : 	CPythonApplication::Instance().GetInfo(nInfo, &stInfo);

  00056	8d 45 d8	 lea	 eax, DWORD PTR _stInfo$[ebp]
  00059	50		 push	 eax
  0005a	ff 75 d4	 push	 DWORD PTR _nInfo$[ebp]
  0005d	8b 0d 00 00 00
	00		 mov	 ecx, DWORD PTR ?ms_pInstance@CPythonApplication@@1PAV1@A ; CPythonApplication::ms_pInstance
  00063	e8 00 00 00 00	 call	 ?GetInfo@CPythonApplication@@QAEXIPAV?$basic_string@DU?$char_traits@D@std@@V?$allocator@D@2@@std@@@Z ; CPythonApplication::GetInfo

; 472  : 	return Py_BuildValue("s", stInfo.c_str());

  00068	8d 4d d8	 lea	 ecx, DWORD PTR _stInfo$[ebp]
  0006b	e8 00 00 00 00	 call	 ?c_str@?$basic_string@DU?$char_traits@D@std@@V?$allocator@D@2@@std@@QBEPBDXZ ; std::basic_string<char,std::char_traits<char>,std::allocator<char> >::c_str
  00070	50		 push	 eax
  00071	68 00 00 00 00	 push	 OFFSET ??_C@_01LKDEMHDF@s@
  00076	ff 15 00 00 00
	00		 call	 DWORD PTR __imp__Py_BuildValue
  0007c	59		 pop	 ecx
  0007d	59		 pop	 ecx
  0007e	89 45 d0	 mov	 DWORD PTR $T2[ebp], eax
  00081	83 4d fc ff	 or	 DWORD PTR __$EHRec$[ebp+8], -1
; File C:\Program Files (x86)\Microsoft Visual Studio\2019\Community\VC\Tools\MSVC\14.28.29333\include\xstring

; 2801 :         _Tidy_deallocate();

  00085	8d 4d d8	 lea	 ecx, DWORD PTR _stInfo$[ebp]
  00088	e8 00 00 00 00	 call	 ?_Tidy_deallocate@?$basic_string@DU?$char_traits@D@std@@V?$allocator@D@2@@std@@AAEXXZ ; std::basic_string<char,std::char_traits<char>,std::allocator<char> >::_Tidy_deallocate
; File D:\Metin2 Server Files\mainline\SRC_2014\Metin2Client\UserInterface\PythonApplicationModule.cpp

; 472  : 	return Py_BuildValue("s", stInfo.c_str());

  0008d	8b 45 d0	 mov	 eax, DWORD PTR $T2[ebp]
$LN1@appGetInfo:

; 473  : }

  00090	8b 4d f4	 mov	 ecx, DWORD PTR __$EHRec$[ebp]
  00093	64 89 0d 00 00
	00 00		 mov	 DWORD PTR fs:0, ecx
  0009a	59		 pop	 ecx
  0009b	8b 4d f0	 mov	 ecx, DWORD PTR __$ArrayPad$[ebp]
  0009e	33 cd		 xor	 ecx, ebp
  000a0	e8 00 00 00 00	 call	 @__security_check_cookie@4
  000a5	c9		 leave
  000a6	c3		 ret	 0
_TEXT	ENDS
;	COMDAT text$x
text$x	SEGMENT
__unwindfunclet$?appGetInfo@@YAPAU_object@@PAU1@0@Z$0:
  00000	8d 4d d8	 lea	 ecx, DWORD PTR _stInfo$[ebp]
  00003	e9 00 00 00 00	 jmp	 ??1?$basic_string@DU?$char_traits@D@std@@V?$allocator@D@2@@std@@QAE@XZ ; std::basic_string<char,std::char_traits<char>,std::allocator<char> >::~basic_string<char,std::char_traits<char>,std::allocator<char> >
  00008	cc		 int	 3
  00009	cc		 int	 3
  0000a	cc		 int	 3
  0000b	cc		 int	 3
  0000c	cc		 int	 3
__ehhandler$?appGetInfo@@YAPAU_object@@PAU1@0@Z:
  0000d	90		 npad	 1
  0000e	90		 npad	 1
  0000f	8b 54 24 08	 mov	 edx, DWORD PTR [esp+8]
  00013	8d 42 0c	 lea	 eax, DWORD PTR [edx+12]
  00016	8b 4a d8	 mov	 ecx, DWORD PTR [edx-40]
  00019	33 c8		 xor	 ecx, eax
  0001b	e8 00 00 00 00	 call	 @__security_check_cookie@4
  00020	8b 4a fc	 mov	 ecx, DWORD PTR [edx-4]
  00023	33 c8		 xor	 ecx, eax
  00025	e8 00 00 00 00	 call	 @__security_check_cookie@4
  0002a	b8 00 00 00 00	 mov	 eax, OFFSET __ehfuncinfo$?appGetInfo@@YAPAU_object@@PAU1@0@Z
  0002f	e9 00 00 00 00	 jmp	 ___CxxFrameHandler3
text$x	ENDS
?appGetInfo@@YAPAU_object@@PAU1@0@Z ENDP		; appGetInfo
; Function compile flags: /Odspy
; File D:\Metin2 Server Files\mainline\SRC_2014\Metin2Client\UserInterface\PythonApplicationModule.cpp
;	COMDAT ?appLoop@@YAPAU_object@@PAU1@0@Z
_TEXT	SEGMENT
_poSelf$ = 8						; size = 4
_poArgs$ = 12						; size = 4
?appLoop@@YAPAU_object@@PAU1@0@Z PROC			; appLoop, COMDAT

; 458  : {

  00000	55		 push	 ebp
  00001	8b ec		 mov	 ebp, esp

; 459  : 	CPythonApplication::Instance().Loop();

  00003	8b 0d 00 00 00
	00		 mov	 ecx, DWORD PTR ?ms_pInstance@CPythonApplication@@1PAV1@A ; CPythonApplication::ms_pInstance
  00009	e8 00 00 00 00	 call	 ?Loop@CPythonApplication@@QAEXXZ ; CPythonApplication::Loop

; 460  : 		
; 461  : 	return Py_BuildNone();

  0000e	e8 00 00 00 00	 call	 ?Py_BuildNone@@YAPAU_object@@XZ ; Py_BuildNone

; 462  : }

  00013	5d		 pop	 ebp
  00014	c3		 ret	 0
?appLoop@@YAPAU_object@@PAU1@0@Z ENDP			; appLoop
_TEXT	ENDS
; Function compile flags: /Odspy
; File D:\Metin2 Server Files\mainline\SRC_2014\Metin2Client\UserInterface\PythonApplicationModule.cpp
;	COMDAT ?appCreate@@YAPAU_object@@PAU1@0@Z
_TEXT	SEGMENT
_rkApp$ = -20						; size = 4
_szName$ = -16						; size = 4
_width$ = -12						; size = 4
_height$ = -8						; size = 4
_Windowed$ = -4						; size = 4
_poSelf$ = 8						; size = 4
_poArgs$ = 12						; size = 4
?appCreate@@YAPAU_object@@PAU1@0@Z PROC			; appCreate, COMDAT

; 430  : {		

  00000	55		 push	 ebp
  00001	8b ec		 mov	 ebp, esp
  00003	83 ec 14	 sub	 esp, 20			; 00000014H

; 431  : 	char* szName;
; 432  : 	if (!PyTuple_GetString(poArgs, 0, &szName))

  00006	8d 45 f0	 lea	 eax, DWORD PTR _szName$[ebp]
  00009	50		 push	 eax
  0000a	6a 00		 push	 0
  0000c	ff 75 0c	 push	 DWORD PTR _poArgs$[ebp]
  0000f	e8 00 00 00 00	 call	 ?PyTuple_GetString@@YA_NPAU_object@@HPAPAD@Z ; PyTuple_GetString
  00014	83 c4 0c	 add	 esp, 12			; 0000000cH
  00017	0f b6 c0	 movzx	 eax, al
  0001a	85 c0		 test	 eax, eax
  0001c	75 0d		 jne	 SHORT $LN2@appCreate

; 433  : 		return Py_BuildException();

  0001e	6a 00		 push	 0
  00020	e8 00 00 00 00	 call	 ?Py_BuildException@@YAPAU_object@@PBDZZ ; Py_BuildException
  00025	59		 pop	 ecx
  00026	e9 95 00 00 00	 jmp	 $LN1@appCreate
$LN2@appCreate:

; 434  : 
; 435  : 	int width;
; 436  : 	if (!PyTuple_GetInteger(poArgs, 1, &width))

  0002b	8d 45 f4	 lea	 eax, DWORD PTR _width$[ebp]
  0002e	50		 push	 eax
  0002f	6a 01		 push	 1
  00031	ff 75 0c	 push	 DWORD PTR _poArgs$[ebp]
  00034	e8 00 00 00 00	 call	 ?PyTuple_GetInteger@@YA_NPAU_object@@HPAH@Z ; PyTuple_GetInteger
  00039	83 c4 0c	 add	 esp, 12			; 0000000cH
  0003c	0f b6 c0	 movzx	 eax, al
  0003f	85 c0		 test	 eax, eax
  00041	75 0a		 jne	 SHORT $LN3@appCreate

; 437  : 		return Py_BuildException();

  00043	6a 00		 push	 0
  00045	e8 00 00 00 00	 call	 ?Py_BuildException@@YAPAU_object@@PBDZZ ; Py_BuildException
  0004a	59		 pop	 ecx
  0004b	eb 73		 jmp	 SHORT $LN1@appCreate
$LN3@appCreate:

; 438  : 
; 439  : 	int height;
; 440  : 	if (!PyTuple_GetInteger(poArgs, 2, &height))

  0004d	8d 45 f8	 lea	 eax, DWORD PTR _height$[ebp]
  00050	50		 push	 eax
  00051	6a 02		 push	 2
  00053	ff 75 0c	 push	 DWORD PTR _poArgs$[ebp]
  00056	e8 00 00 00 00	 call	 ?PyTuple_GetInteger@@YA_NPAU_object@@HPAH@Z ; PyTuple_GetInteger
  0005b	83 c4 0c	 add	 esp, 12			; 0000000cH
  0005e	0f b6 c0	 movzx	 eax, al
  00061	85 c0		 test	 eax, eax
  00063	75 0a		 jne	 SHORT $LN4@appCreate

; 441  : 		return Py_BuildException();

  00065	6a 00		 push	 0
  00067	e8 00 00 00 00	 call	 ?Py_BuildException@@YAPAU_object@@PBDZZ ; Py_BuildException
  0006c	59		 pop	 ecx
  0006d	eb 51		 jmp	 SHORT $LN1@appCreate
$LN4@appCreate:

; 442  : 
; 443  : 	int Windowed;
; 444  : 	if (!PyTuple_GetInteger(poArgs, 3, &Windowed))

  0006f	8d 45 fc	 lea	 eax, DWORD PTR _Windowed$[ebp]
  00072	50		 push	 eax
  00073	6a 03		 push	 3
  00075	ff 75 0c	 push	 DWORD PTR _poArgs$[ebp]
  00078	e8 00 00 00 00	 call	 ?PyTuple_GetInteger@@YA_NPAU_object@@HPAH@Z ; PyTuple_GetInteger
  0007d	83 c4 0c	 add	 esp, 12			; 0000000cH
  00080	0f b6 c0	 movzx	 eax, al
  00083	85 c0		 test	 eax, eax
  00085	75 0a		 jne	 SHORT $LN8@appCreate

; 445  : 		return Py_BuildException();

  00087	6a 00		 push	 0
  00089	e8 00 00 00 00	 call	 ?Py_BuildException@@YAPAU_object@@PBDZZ ; Py_BuildException
  0008e	59		 pop	 ecx
  0008f	eb 2f		 jmp	 SHORT $LN1@appCreate
$LN8@appCreate:

; 446  : 
; 447  : 	CPythonApplication& rkApp=CPythonApplication::Instance();

  00091	a1 00 00 00 00	 mov	 eax, DWORD PTR ?ms_pInstance@CPythonApplication@@1PAV1@A ; CPythonApplication::ms_pInstance
  00096	89 45 ec	 mov	 DWORD PTR _rkApp$[ebp], eax

; 448  : 	if (!rkApp.Create(poSelf, szName, width, height, Windowed))

  00099	ff 75 fc	 push	 DWORD PTR _Windowed$[ebp]
  0009c	ff 75 f8	 push	 DWORD PTR _height$[ebp]
  0009f	ff 75 f4	 push	 DWORD PTR _width$[ebp]
  000a2	ff 75 f0	 push	 DWORD PTR _szName$[ebp]
  000a5	ff 75 08	 push	 DWORD PTR _poSelf$[ebp]
  000a8	8b 4d ec	 mov	 ecx, DWORD PTR _rkApp$[ebp]
  000ab	e8 00 00 00 00	 call	 ?Create@CPythonApplication@@QAE_NPAU_object@@PBDHHH@Z ; CPythonApplication::Create
  000b0	0f b6 c0	 movzx	 eax, al
  000b3	85 c0		 test	 eax, eax
  000b5	75 04		 jne	 SHORT $LN6@appCreate

; 449  : 	{
; 450  : 		//return Py_BuildNone();			
; 451  : 		return NULL;

  000b7	33 c0		 xor	 eax, eax
  000b9	eb 05		 jmp	 SHORT $LN1@appCreate
$LN6@appCreate:

; 452  : 	}
; 453  : 
; 454  : 	return Py_BuildNone();

  000bb	e8 00 00 00 00	 call	 ?Py_BuildNone@@YAPAU_object@@XZ ; Py_BuildNone
$LN1@appCreate:

; 455  : }

  000c0	c9		 leave
  000c1	c3		 ret	 0
?appCreate@@YAPAU_object@@PAU1@0@Z ENDP			; appCreate
_TEXT	ENDS
; Function compile flags: /Odspy
; File D:\Metin2 Server Files\mainline\SRC_2014\Metin2Client\UserInterface\PythonApplicationModule.cpp
;	COMDAT ?appSetMouseHandler@@YAPAU_object@@PAU1@0@Z
_TEXT	SEGMENT
_poHandler$ = -4					; size = 4
_poSelf$ = 8						; size = 4
_poArgs$ = 12						; size = 4
?appSetMouseHandler@@YAPAU_object@@PAU1@0@Z PROC	; appSetMouseHandler, COMDAT

; 420  : {

  00000	55		 push	 ebp
  00001	8b ec		 mov	 ebp, esp
  00003	51		 push	 ecx

; 421  : 	PyObject* poHandler;
; 422  : 	if (!PyTuple_GetObject(poArgs, 0, &poHandler))

  00004	8d 45 fc	 lea	 eax, DWORD PTR _poHandler$[ebp]
  00007	50		 push	 eax
  00008	6a 00		 push	 0
  0000a	ff 75 0c	 push	 DWORD PTR _poArgs$[ebp]
  0000d	e8 00 00 00 00	 call	 ?PyTuple_GetObject@@YA_NPAU_object@@HPAPAU1@@Z ; PyTuple_GetObject
  00012	83 c4 0c	 add	 esp, 12			; 0000000cH
  00015	0f b6 c0	 movzx	 eax, al
  00018	85 c0		 test	 eax, eax
  0001a	75 0a		 jne	 SHORT $LN4@appSetMous

; 423  : 		return Py_BuildException();

  0001c	6a 00		 push	 0
  0001e	e8 00 00 00 00	 call	 ?Py_BuildException@@YAPAU_object@@PBDZZ ; Py_BuildException
  00023	59		 pop	 ecx
  00024	eb 13		 jmp	 SHORT $LN1@appSetMous
$LN4@appSetMous:

; 424  : 
; 425  : 	CPythonApplication::Instance().SetMouseHandler(poHandler);

  00026	ff 75 fc	 push	 DWORD PTR _poHandler$[ebp]
  00029	8b 0d 00 00 00
	00		 mov	 ecx, DWORD PTR ?ms_pInstance@CPythonApplication@@1PAV1@A ; CPythonApplication::ms_pInstance
  0002f	e8 00 00 00 00	 call	 ?SetMouseHandler@CPythonApplication@@QAEXPAU_object@@@Z ; CPythonApplication::SetMouseHandler

; 426  : 	return Py_BuildNone();

  00034	e8 00 00 00 00	 call	 ?Py_BuildNone@@YAPAU_object@@XZ ; Py_BuildNone
$LN1@appSetMous:

; 427  : }

  00039	c9		 leave
  0003a	c3		 ret	 0
?appSetMouseHandler@@YAPAU_object@@PAU1@0@Z ENDP	; appSetMouseHandler
_TEXT	ENDS
; Function compile flags: /Odspy
; File D:\Metin2 Server Files\mainline\SRC_2014\Metin2Client\UserInterface\PythonApplicationModule.cpp
;	COMDAT ?appRenderGame@@YAPAU_object@@PAU1@0@Z
_TEXT	SEGMENT
_poSelf$ = 8						; size = 4
_poArgs$ = 12						; size = 4
?appRenderGame@@YAPAU_object@@PAU1@0@Z PROC		; appRenderGame, COMDAT

; 412  : {

  00000	55		 push	 ebp
  00001	8b ec		 mov	 ebp, esp

; 413  : 	CPythonApplication::Instance().RenderGame();

  00003	8b 0d 00 00 00
	00		 mov	 ecx, DWORD PTR ?ms_pInstance@CPythonApplication@@1PAV1@A ; CPythonApplication::ms_pInstance
  00009	e8 00 00 00 00	 call	 ?RenderGame@CPythonApplication@@QAEXXZ ; CPythonApplication::RenderGame

; 414  : 	return Py_BuildNone();

  0000e	e8 00 00 00 00	 call	 ?Py_BuildNone@@YAPAU_object@@XZ ; Py_BuildNone

; 415  : }

  00013	5d		 pop	 ebp
  00014	c3		 ret	 0
?appRenderGame@@YAPAU_object@@PAU1@0@Z ENDP		; appRenderGame
_TEXT	ENDS
; Function compile flags: /Odspy
; File D:\Metin2 Server Files\mainline\SRC_2014\Metin2Client\UserInterface\PythonApplicationModule.cpp
;	COMDAT ?appUpdateGame@@YAPAU_object@@PAU1@0@Z
_TEXT	SEGMENT
_poSelf$ = 8						; size = 4
_poArgs$ = 12						; size = 4
?appUpdateGame@@YAPAU_object@@PAU1@0@Z PROC		; appUpdateGame, COMDAT

; 406  : {

  00000	55		 push	 ebp
  00001	8b ec		 mov	 ebp, esp

; 407  : 	CPythonApplication::Instance().UpdateGame();

  00003	8b 0d 00 00 00
	00		 mov	 ecx, DWORD PTR ?ms_pInstance@CPythonApplication@@1PAV1@A ; CPythonApplication::ms_pInstance
  00009	e8 00 00 00 00	 call	 ?UpdateGame@CPythonApplication@@QAEXXZ ; CPythonApplication::UpdateGame

; 408  : 	return Py_BuildNone();

  0000e	e8 00 00 00 00	 call	 ?Py_BuildNone@@YAPAU_object@@XZ ; Py_BuildNone

; 409  : }

  00013	5d		 pop	 ebp
  00014	c3		 ret	 0
?appUpdateGame@@YAPAU_object@@PAU1@0@Z ENDP		; appUpdateGame
_TEXT	ENDS
; Function compile flags: /Odspy
; File D:\Metin2 Server Files\mainline\SRC_2014\Metin2Client\UserInterface\PythonApplicationModule.cpp
;	COMDAT ?appGetFileList@@YAPAU_object@@PAU1@0@Z
_TEXT	SEGMENT
_poFileName$1 = -128					; size = 4
_szFilter$ = -124					; size = 4
_poList$ = -120						; size = 4
_hFind$ = -116						; size = 4
_wfd$ = -112						; size = 320
__$ArrayPad$ = 208					; size = 4
_poSelf$ = 220						; size = 4
_poArgs$ = 224						; size = 4
?appGetFileList@@YAPAU_object@@PAU1@0@Z PROC		; appGetFileList, COMDAT

; 377  : {

  00000	55		 push	 ebp
  00001	8d ac 24 2c ff
	ff ff		 lea	 ebp, DWORD PTR [esp-212]
  00008	81 ec 54 01 00
	00		 sub	 esp, 340		; 00000154H
  0000e	a1 00 00 00 00	 mov	 eax, DWORD PTR ___security_cookie
  00013	33 c5		 xor	 eax, ebp
  00015	89 85 d0 00 00
	00		 mov	 DWORD PTR __$ArrayPad$[ebp], eax

; 378  : 	char* szFilter;
; 379  : 	if (!PyTuple_GetString(poArgs, 0, &szFilter))

  0001b	8d 45 84	 lea	 eax, DWORD PTR _szFilter$[ebp]
  0001e	50		 push	 eax
  0001f	6a 00		 push	 0
  00021	ff b5 e0 00 00
	00		 push	 DWORD PTR _poArgs$[ebp]
  00027	e8 00 00 00 00	 call	 ?PyTuple_GetString@@YA_NPAU_object@@HPAPAD@Z ; PyTuple_GetString
  0002c	83 c4 0c	 add	 esp, 12			; 0000000cH
  0002f	0f b6 c0	 movzx	 eax, al
  00032	85 c0		 test	 eax, eax
  00034	75 0a		 jne	 SHORT $LN5@appGetFile

; 380  : 		return Py_BuildException();

  00036	6a 00		 push	 0
  00038	e8 00 00 00 00	 call	 ?Py_BuildException@@YAPAU_object@@PBDZZ ; Py_BuildException
  0003d	59		 pop	 ecx
  0003e	eb 6e		 jmp	 SHORT $LN1@appGetFile
$LN5@appGetFile:

; 381  : 
; 382  : 	PyObject* poList=PyList_New(0);

  00040	6a 00		 push	 0
  00042	ff 15 00 00 00
	00		 call	 DWORD PTR __imp__PyList_New
  00048	59		 pop	 ecx
  00049	89 45 88	 mov	 DWORD PTR _poList$[ebp], eax

; 383  : 
; 384  : 	WIN32_FIND_DATA wfd;
; 385  : 	memset(&wfd, 0, sizeof(wfd));

  0004c	68 40 01 00 00	 push	 320			; 00000140H
  00051	6a 00		 push	 0
  00053	8d 45 90	 lea	 eax, DWORD PTR _wfd$[ebp]
  00056	50		 push	 eax
  00057	e8 00 00 00 00	 call	 _memset
  0005c	83 c4 0c	 add	 esp, 12			; 0000000cH

; 386  : 
; 387  : 	HANDLE hFind = FindFirstFile(szFilter, &wfd);

  0005f	8d 45 90	 lea	 eax, DWORD PTR _wfd$[ebp]
  00062	50		 push	 eax
  00063	ff 75 84	 push	 DWORD PTR _szFilter$[ebp]
  00066	ff 15 00 00 00
	00		 call	 DWORD PTR __imp__FindFirstFileA@8
  0006c	89 45 8c	 mov	 DWORD PTR _hFind$[ebp], eax

; 388  : 	if (hFind != INVALID_HANDLE_VALUE)

  0006f	83 7d 8c ff	 cmp	 DWORD PTR _hFind$[ebp], -1
  00073	74 36		 je	 SHORT $LN6@appGetFile
$LN4@appGetFile:

; 389  : 	{	
; 390  : 		do
; 391  : 		{
; 392  : 			PyObject* poFileName=PyString_FromString(wfd.cFileName) ;

  00075	8d 45 bc	 lea	 eax, DWORD PTR _wfd$[ebp+44]
  00078	50		 push	 eax
  00079	ff 15 00 00 00
	00		 call	 DWORD PTR __imp__PyString_FromString
  0007f	59		 pop	 ecx
  00080	89 45 80	 mov	 DWORD PTR _poFileName$1[ebp], eax

; 393  : 			PyList_Append(poList, poFileName);

  00083	ff 75 80	 push	 DWORD PTR _poFileName$1[ebp]
  00086	ff 75 88	 push	 DWORD PTR _poList$[ebp]
  00089	ff 15 00 00 00
	00		 call	 DWORD PTR __imp__PyList_Append
  0008f	59		 pop	 ecx
  00090	59		 pop	 ecx

; 394  : 		} 			
; 395  : 		while (FindNextFile(hFind, &wfd));

  00091	8d 45 90	 lea	 eax, DWORD PTR _wfd$[ebp]
  00094	50		 push	 eax
  00095	ff 75 8c	 push	 DWORD PTR _hFind$[ebp]
  00098	ff 15 00 00 00
	00		 call	 DWORD PTR __imp__FindNextFileA@8
  0009e	85 c0		 test	 eax, eax
  000a0	75 d3		 jne	 SHORT $LN4@appGetFile

; 396  : 		
; 397  : 
; 398  : 		FindClose(hFind);

  000a2	ff 75 8c	 push	 DWORD PTR _hFind$[ebp]
  000a5	ff 15 00 00 00
	00		 call	 DWORD PTR __imp__FindClose@4
$LN6@appGetFile:

; 399  : 	}
; 400  : 
; 401  : 	return poList;

  000ab	8b 45 88	 mov	 eax, DWORD PTR _poList$[ebp]
$LN1@appGetFile:

; 402  : }

  000ae	8b 8d d0 00 00
	00		 mov	 ecx, DWORD PTR __$ArrayPad$[ebp]
  000b4	33 cd		 xor	 ecx, ebp
  000b6	e8 00 00 00 00	 call	 @__security_check_cookie@4
  000bb	81 c5 d4 00 00
	00		 add	 ebp, 212		; 000000d4H
  000c1	c9		 leave
  000c2	c3		 ret	 0
?appGetFileList@@YAPAU_object@@PAU1@0@Z ENDP		; appGetFileList
_TEXT	ENDS
; Function compile flags: /Odspy
; File D:\Metin2 Server Files\mainline\SRC_2014\Metin2Client\UserInterface\PythonApplicationModule.cpp
; File D:\Metin2 Server Files\mainline\SRC_2014\Metin2Client\eterBase\Singleton.h
; File D:\Metin2 Server Files\mainline\SRC_2014\Metin2Client\UserInterface\PythonApplicationModule.cpp
;	COMDAT ?appIsExistFile@@YAPAU_object@@PAU1@0@Z
_TEXT	SEGMENT
$T1 = -12						; size = 4
_szFileName$ = -8					; size = 4
_isExist$ = -1						; size = 1
_poSelf$ = 8						; size = 4
_poArgs$ = 12						; size = 4
?appIsExistFile@@YAPAU_object@@PAU1@0@Z PROC		; appIsExistFile, COMDAT

; 366  : {

  00000	55		 push	 ebp
  00001	8b ec		 mov	 ebp, esp
  00003	83 ec 0c	 sub	 esp, 12			; 0000000cH

; 367  : 	char* szFileName;
; 368  : 	if (!PyTuple_GetString(poArgs, 0, &szFileName))

  00006	8d 45 f8	 lea	 eax, DWORD PTR _szFileName$[ebp]
  00009	50		 push	 eax
  0000a	6a 00		 push	 0
  0000c	ff 75 0c	 push	 DWORD PTR _poArgs$[ebp]
  0000f	e8 00 00 00 00	 call	 ?PyTuple_GetString@@YA_NPAU_object@@HPAPAD@Z ; PyTuple_GetString
  00014	83 c4 0c	 add	 esp, 12			; 0000000cH
  00017	0f b6 c0	 movzx	 eax, al
  0001a	85 c0		 test	 eax, eax
  0001c	75 0a		 jne	 SHORT $LN2@appIsExist

; 369  : 		return Py_BuildException();

  0001e	6a 00		 push	 0
  00020	e8 00 00 00 00	 call	 ?Py_BuildException@@YAPAU_object@@PBDZZ ; Py_BuildException
  00025	59		 pop	 ecx
  00026	eb 28		 jmp	 SHORT $LN1@appIsExist
$LN2@appIsExist:
; File D:\Metin2 Server Files\mainline\SRC_2014\Metin2Client\eterBase\Singleton.h

; 27   : 		return (*ms_singleton);

  00028	a1 00 00 00 00	 mov	 eax, DWORD PTR ?ms_singleton@?$CSingleton@VCEterPackManager@@@@0PAVCEterPackManager@@A ; CSingleton<CEterPackManager>::ms_singleton
  0002d	89 45 f4	 mov	 DWORD PTR $T1[ebp], eax
; File D:\Metin2 Server Files\mainline\SRC_2014\Metin2Client\UserInterface\PythonApplicationModule.cpp

; 371  : 	bool isExist=CEterPackManager::Instance().isExist(szFileName);

  00030	ff 75 f8	 push	 DWORD PTR _szFileName$[ebp]
  00033	8b 4d f4	 mov	 ecx, DWORD PTR $T1[ebp]
  00036	e8 00 00 00 00	 call	 ?isExist@CEterPackManager@@QAE_NPBD@Z ; CEterPackManager::isExist
  0003b	88 45 ff	 mov	 BYTE PTR _isExist$[ebp], al

; 372  : 
; 373  : 	return Py_BuildValue("i", isExist);

  0003e	0f b6 45 ff	 movzx	 eax, BYTE PTR _isExist$[ebp]
  00042	50		 push	 eax
  00043	68 00 00 00 00	 push	 OFFSET ??_C@_01KBJDNOO@i@
  00048	ff 15 00 00 00
	00		 call	 DWORD PTR __imp__Py_BuildValue
  0004e	59		 pop	 ecx
  0004f	59		 pop	 ecx
$LN1@appIsExist:

; 374  : }

  00050	c9		 leave
  00051	c3		 ret	 0
?appIsExistFile@@YAPAU_object@@PAU1@0@Z ENDP		; appIsExistFile
_TEXT	ENDS
; Function compile flags: /Odspy
; File D:\Metin2 Server Files\mainline\SRC_2014\Metin2Client\UserInterface\PythonApplicationModule.cpp
;	COMDAT ?appGetImageInfo@@YAPAU_object@@PAU1@0@Z
_TEXT	SEGMENT
_szFileName$ = -4					; size = 4
_poSelf$ = 8						; size = 4
_poArgs$ = 12						; size = 4
?appGetImageInfo@@YAPAU_object@@PAU1@0@Z PROC		; appGetImageInfo, COMDAT

; 325  : {

  00000	55		 push	 ebp
  00001	8b ec		 mov	 ebp, esp
  00003	51		 push	 ecx

; 326  : 	char* szFileName;
; 327  : 	if (!PyTuple_GetString(poArgs, 0, &szFileName))

  00004	8d 45 fc	 lea	 eax, DWORD PTR _szFileName$[ebp]
  00007	50		 push	 eax
  00008	6a 00		 push	 0
  0000a	ff 75 0c	 push	 DWORD PTR _poArgs$[ebp]
  0000d	e8 00 00 00 00	 call	 ?PyTuple_GetString@@YA_NPAU_object@@HPAPAD@Z ; PyTuple_GetString
  00012	83 c4 0c	 add	 esp, 12			; 0000000cH
  00015	0f b6 c0	 movzx	 eax, al
  00018	85 c0		 test	 eax, eax
  0001a	75 0a		 jne	 SHORT $LN2@appGetImag

; 328  : 		return Py_BuildException();

  0001c	6a 00		 push	 0
  0001e	e8 00 00 00 00	 call	 ?Py_BuildException@@YAPAU_object@@PBDZZ ; Py_BuildException
  00023	59		 pop	 ecx
  00024	eb 14		 jmp	 SHORT $LN1@appGetImag
$LN2@appGetImag:

; 329  : 
; 330  : 	return Py_BuildValue("iii", 0, 0, 0);

  00026	6a 00		 push	 0
  00028	6a 00		 push	 0
  0002a	6a 00		 push	 0
  0002c	68 00 00 00 00	 push	 OFFSET ??_C@_03GLKMLICL@iii@
  00031	ff 15 00 00 00
	00		 call	 DWORD PTR __imp__Py_BuildValue
  00037	83 c4 10	 add	 esp, 16			; 00000010H
$LN1@appGetImag:

; 331  : }

  0003a	c9		 leave
  0003b	c3		 ret	 0
?appGetImageInfo@@YAPAU_object@@PAU1@0@Z ENDP		; appGetImageInfo
_TEXT	ENDS
; Function compile flags: /Odspy
; File D:\Metin2 Server Files\mainline\SRC_2014\Metin2Client\UserInterface\PythonApplicationModule.cpp
;	COMDAT ?appGetDefaultCodePage@@YAPAU_object@@PAU1@0@Z
_TEXT	SEGMENT
_poSelf$ = 8						; size = 4
_poArgs$ = 12						; size = 4
?appGetDefaultCodePage@@YAPAU_object@@PAU1@0@Z PROC	; appGetDefaultCodePage, COMDAT

; 318  : {

  00000	55		 push	 ebp
  00001	8b ec		 mov	 ebp, esp

; 319  : 	return Py_BuildValue("i", LocaleService_GetCodePage());

  00003	e8 00 00 00 00	 call	 ?LocaleService_GetCodePage@@YAIXZ ; LocaleService_GetCodePage
  00008	50		 push	 eax
  00009	68 00 00 00 00	 push	 OFFSET ??_C@_01KBJDNOO@i@
  0000e	ff 15 00 00 00
	00		 call	 DWORD PTR __imp__Py_BuildValue
  00014	59		 pop	 ecx
  00015	59		 pop	 ecx

; 320  : }

  00016	5d		 pop	 ebp
  00017	c3		 ret	 0
?appGetDefaultCodePage@@YAPAU_object@@PAU1@0@Z ENDP	; appGetDefaultCodePage
_TEXT	ENDS
; Function compile flags: /Odspy
; File D:\Metin2 Server Files\mainline\SRC_2014\Metin2Client\UserInterface\PythonApplicationModule.cpp
;	COMDAT ?appGetLocalePath@@YAPAU_object@@PAU1@0@Z
_TEXT	SEGMENT
_poSelf$ = 8						; size = 4
_poArgs$ = 12						; size = 4
?appGetLocalePath@@YAPAU_object@@PAU1@0@Z PROC		; appGetLocalePath, COMDAT

; 312  : {

  00000	55		 push	 ebp
  00001	8b ec		 mov	 ebp, esp

; 313  : 	return Py_BuildValue("s", LocaleService_GetLocalePath());

  00003	e8 00 00 00 00	 call	 ?LocaleService_GetLocalePath@@YAPBDXZ ; LocaleService_GetLocalePath
  00008	50		 push	 eax
  00009	68 00 00 00 00	 push	 OFFSET ??_C@_01LKDEMHDF@s@
  0000e	ff 15 00 00 00
	00		 call	 DWORD PTR __imp__Py_BuildValue
  00014	59		 pop	 ecx
  00015	59		 pop	 ecx

; 314  : }

  00016	5d		 pop	 ebp
  00017	c3		 ret	 0
?appGetLocalePath@@YAPAU_object@@PAU1@0@Z ENDP		; appGetLocalePath
_TEXT	ENDS
; Function compile flags: /Odspy
; File D:\Metin2 Server Files\mainline\SRC_2014\Metin2Client\UserInterface\PythonApplicationModule.cpp
;	COMDAT ?appGetLocaleName@@YAPAU_object@@PAU1@0@Z
_TEXT	SEGMENT
_poSelf$ = 8						; size = 4
_poArgs$ = 12						; size = 4
?appGetLocaleName@@YAPAU_object@@PAU1@0@Z PROC		; appGetLocaleName, COMDAT

; 307  : {

  00000	55		 push	 ebp
  00001	8b ec		 mov	 ebp, esp

; 308  : 	return Py_BuildValue("s", LocaleService_GetLocaleName());

  00003	e8 00 00 00 00	 call	 ?LocaleService_GetLocaleName@@YAPBDXZ ; LocaleService_GetLocaleName
  00008	50		 push	 eax
  00009	68 00 00 00 00	 push	 OFFSET ??_C@_01LKDEMHDF@s@
  0000e	ff 15 00 00 00
	00		 call	 DWORD PTR __imp__Py_BuildValue
  00014	59		 pop	 ecx
  00015	59		 pop	 ecx

; 309  : }

  00016	5d		 pop	 ebp
  00017	c3		 ret	 0
?appGetLocaleName@@YAPAU_object@@PAU1@0@Z ENDP		; appGetLocaleName
_TEXT	ENDS
; Function compile flags: /Odspy
; File D:\Metin2 Server Files\mainline\SRC_2014\Metin2Client\UserInterface\PythonApplicationModule.cpp
;	COMDAT ?appLoadLocaleData@@YAPAU_object@@PAU1@0@Z
_TEXT	SEGMENT
_localePath$ = -4					; size = 4
_poSelf$ = 8						; size = 4
_poArgs$ = 12						; size = 4
?appLoadLocaleData@@YAPAU_object@@PAU1@0@Z PROC		; appLoadLocaleData, COMDAT

; 298  : {

  00000	55		 push	 ebp
  00001	8b ec		 mov	 ebp, esp
  00003	51		 push	 ecx

; 299  : 	char* localePath;
; 300  : 	if (!PyTuple_GetString(poArgs, 0, &localePath))

  00004	8d 45 fc	 lea	 eax, DWORD PTR _localePath$[ebp]
  00007	50		 push	 eax
  00008	6a 00		 push	 0
  0000a	ff 75 0c	 push	 DWORD PTR _poArgs$[ebp]
  0000d	e8 00 00 00 00	 call	 ?PyTuple_GetString@@YA_NPAU_object@@HPAPAD@Z ; PyTuple_GetString
  00012	83 c4 0c	 add	 esp, 12			; 0000000cH
  00015	0f b6 c0	 movzx	 eax, al
  00018	85 c0		 test	 eax, eax
  0001a	75 0a		 jne	 SHORT $LN2@appLoadLoc

; 301  : 		return Py_BuildException();

  0001c	6a 00		 push	 0
  0001e	e8 00 00 00 00	 call	 ?Py_BuildException@@YAPAU_object@@PBDZZ ; Py_BuildException
  00023	59		 pop	 ecx
  00024	eb 1a		 jmp	 SHORT $LN1@appLoadLoc
$LN2@appLoadLoc:

; 302  : 
; 303  : 	return Py_BuildValue("i", LoadLocaleData(localePath));

  00026	ff 75 fc	 push	 DWORD PTR _localePath$[ebp]
  00029	e8 00 00 00 00	 call	 ?LoadLocaleData@@YA_NPBD@Z ; LoadLocaleData
  0002e	59		 pop	 ecx
  0002f	0f b6 c0	 movzx	 eax, al
  00032	50		 push	 eax
  00033	68 00 00 00 00	 push	 OFFSET ??_C@_01KBJDNOO@i@
  00038	ff 15 00 00 00
	00		 call	 DWORD PTR __imp__Py_BuildValue
  0003e	59		 pop	 ecx
  0003f	59		 pop	 ecx
$LN1@appLoadLoc:

; 304  : }

  00040	c9		 leave
  00041	c3		 ret	 0
?appLoadLocaleData@@YAPAU_object@@PAU1@0@Z ENDP		; appLoadLocaleData
_TEXT	ENDS
; Function compile flags: /Odspy
; File D:\Metin2 Server Files\mainline\SRC_2014\Metin2Client\UserInterface\PythonApplicationModule.cpp
;	COMDAT ?appLoadLocaleAddr@@YAPAU_object@@PAU1@0@Z
_TEXT	SEGMENT
_ret$ = -40						; size = 4
_retSize$ = -36						; size = 4
tv128 = -32						; size = 4
tv85 = -28						; size = 4
_addrPath$ = -24					; size = 4
_enc$ = -20						; size = 4
_buf$ = -16						; size = 4
_size$ = -12						; size = 4
_fp$ = -8						; size = 4
__$ArrayPad$ = -4					; size = 4
_poSelf$ = 8						; size = 4
_poArgs$ = 12						; size = 4
?appLoadLocaleAddr@@YAPAU_object@@PAU1@0@Z PROC		; appLoadLocaleAddr, COMDAT

; 265  : {

  00000	55		 push	 ebp
  00001	8b ec		 mov	 ebp, esp
  00003	83 ec 28	 sub	 esp, 40			; 00000028H
  00006	a1 00 00 00 00	 mov	 eax, DWORD PTR ___security_cookie
  0000b	33 c5		 xor	 eax, ebp
  0000d	89 45 fc	 mov	 DWORD PTR __$ArrayPad$[ebp], eax

; 266  : 	char* addrPath;
; 267  : 	if (!PyTuple_GetString(poArgs, 0, &addrPath))

  00010	8d 45 e8	 lea	 eax, DWORD PTR _addrPath$[ebp]
  00013	50		 push	 eax
  00014	6a 00		 push	 0
  00016	ff 75 0c	 push	 DWORD PTR _poArgs$[ebp]
  00019	e8 00 00 00 00	 call	 ?PyTuple_GetString@@YA_NPAU_object@@HPAPAD@Z ; PyTuple_GetString
  0001e	83 c4 0c	 add	 esp, 12			; 0000000cH
  00021	0f b6 c0	 movzx	 eax, al
  00024	85 c0		 test	 eax, eax
  00026	75 0d		 jne	 SHORT $LN2@appLoadLoc

; 268  : 		return Py_BuildException();

  00028	6a 00		 push	 0
  0002a	e8 00 00 00 00	 call	 ?Py_BuildException@@YAPAU_object@@PBDZZ ; Py_BuildException
  0002f	59		 pop	 ecx
  00030	e9 c8 00 00 00	 jmp	 $LN1@appLoadLoc
$LN2@appLoadLoc:

; 269  : 
; 270  : 	FILE* fp = fopen(addrPath, "rb");

  00035	68 00 00 00 00	 push	 OFFSET ??_C@_02JDPG@rb@
  0003a	ff 75 e8	 push	 DWORD PTR _addrPath$[ebp]
  0003d	e8 00 00 00 00	 call	 _fopen
  00042	59		 pop	 ecx
  00043	59		 pop	 ecx
  00044	89 45 f8	 mov	 DWORD PTR _fp$[ebp], eax

; 271  : 	if (!fp)

  00047	83 7d f8 00	 cmp	 DWORD PTR _fp$[ebp], 0
  0004b	75 0d		 jne	 SHORT $LN3@appLoadLoc

; 272  : 		return Py_BuildException();

  0004d	6a 00		 push	 0
  0004f	e8 00 00 00 00	 call	 ?Py_BuildException@@YAPAU_object@@PBDZZ ; Py_BuildException
  00054	59		 pop	 ecx
  00055	e9 a3 00 00 00	 jmp	 $LN1@appLoadLoc
$LN3@appLoadLoc:

; 273  : 
; 274  : 	fseek(fp, 0, SEEK_END);

  0005a	6a 02		 push	 2
  0005c	6a 00		 push	 0
  0005e	ff 75 f8	 push	 DWORD PTR _fp$[ebp]
  00061	e8 00 00 00 00	 call	 _fseek
  00066	83 c4 0c	 add	 esp, 12			; 0000000cH

; 275  : 
; 276  : 	int size = ftell(fp);

  00069	ff 75 f8	 push	 DWORD PTR _fp$[ebp]
  0006c	e8 00 00 00 00	 call	 _ftell
  00071	59		 pop	 ecx
  00072	89 45 f4	 mov	 DWORD PTR _size$[ebp], eax

; 277  : 	char* enc = (char*)_alloca(size);

  00075	8b 45 f4	 mov	 eax, DWORD PTR _size$[ebp]
  00078	e8 00 00 00 00	 call	 __alloca_probe_16
  0007d	89 65 e4	 mov	 DWORD PTR tv85[ebp], esp
  00080	8b 45 e4	 mov	 eax, DWORD PTR tv85[ebp]
  00083	89 45 ec	 mov	 DWORD PTR _enc$[ebp], eax

; 278  : 	fseek(fp, 0, SEEK_SET);

  00086	6a 00		 push	 0
  00088	6a 00		 push	 0
  0008a	ff 75 f8	 push	 DWORD PTR _fp$[ebp]
  0008d	e8 00 00 00 00	 call	 _fseek
  00092	83 c4 0c	 add	 esp, 12			; 0000000cH

; 279  : 	fread(enc, size, 1, fp);

  00095	ff 75 f8	 push	 DWORD PTR _fp$[ebp]
  00098	6a 01		 push	 1
  0009a	ff 75 f4	 push	 DWORD PTR _size$[ebp]
  0009d	ff 75 ec	 push	 DWORD PTR _enc$[ebp]
  000a0	e8 00 00 00 00	 call	 _fread
  000a5	83 c4 10	 add	 esp, 16			; 00000010H

; 280  : 	fclose(fp);

  000a8	ff 75 f8	 push	 DWORD PTR _fp$[ebp]
  000ab	e8 00 00 00 00	 call	 _fclose
  000b0	59		 pop	 ecx

; 281  : 
; 282  : 	static const unsigned char key[16] = {
; 283  : 		0x82, 0x1b, 0x34, 0xae,
; 284  : 		0x12, 0x3b, 0xfb, 0x17,
; 285  : 		0xd7, 0x2c, 0x39, 0xae,
; 286  : 		0x41, 0x98, 0xf1, 0x63
; 287  : 	};
; 288  : 
; 289  : 	char* buf = (char*)_alloca(size);

  000b1	8b 45 f4	 mov	 eax, DWORD PTR _size$[ebp]
  000b4	e8 00 00 00 00	 call	 __alloca_probe_16
  000b9	89 65 e0	 mov	 DWORD PTR tv128[ebp], esp
  000bc	8b 45 e0	 mov	 eax, DWORD PTR tv128[ebp]
  000bf	89 45 f0	 mov	 DWORD PTR _buf$[ebp], eax

; 290  : 	//int decSize = 
; 291  : 	tea_decrypt((unsigned long*)buf, (const unsigned long*)enc, (const unsigned long*)key, size);

  000c2	ff 75 f4	 push	 DWORD PTR _size$[ebp]
  000c5	68 00 00 00 00	 push	 OFFSET ?key@?1??appLoadLocaleAddr@@YAPAU_object@@PAU2@0@Z@4QBEB
  000ca	ff 75 ec	 push	 DWORD PTR _enc$[ebp]
  000cd	ff 75 f0	 push	 DWORD PTR _buf$[ebp]
  000d0	e8 00 00 00 00	 call	 _tea_decrypt
  000d5	83 c4 10	 add	 esp, 16			; 00000010H

; 292  : 	unsigned int retSize = *(unsigned int*)buf;

  000d8	8b 45 f0	 mov	 eax, DWORD PTR _buf$[ebp]
  000db	8b 00		 mov	 eax, DWORD PTR [eax]
  000dd	89 45 dc	 mov	 DWORD PTR _retSize$[ebp], eax

; 293  : 	char* ret = buf + sizeof(unsigned int);

  000e0	8b 45 f0	 mov	 eax, DWORD PTR _buf$[ebp]
  000e3	83 c0 04	 add	 eax, 4
  000e6	89 45 d8	 mov	 DWORD PTR _ret$[ebp], eax

; 294  : 	return Py_BuildValue("s#", ret, retSize);

  000e9	ff 75 dc	 push	 DWORD PTR _retSize$[ebp]
  000ec	ff 75 d8	 push	 DWORD PTR _ret$[ebp]
  000ef	68 00 00 00 00	 push	 OFFSET ??_C@_02OIKAIHIF@s?$CD@
  000f4	ff 15 00 00 00
	00		 call	 DWORD PTR __imp__Py_BuildValue
  000fa	83 c4 0c	 add	 esp, 12			; 0000000cH
$LN1@appLoadLoc:

; 295  : }

  000fd	8d 65 d8	 lea	 esp, DWORD PTR [ebp-40]
  00100	8b 4d fc	 mov	 ecx, DWORD PTR __$ArrayPad$[ebp]
  00103	33 cd		 xor	 ecx, ebp
  00105	e8 00 00 00 00	 call	 @__security_check_cookie@4
  0010a	c9		 leave
  0010b	c3		 ret	 0
?appLoadLocaleAddr@@YAPAU_object@@PAU1@0@Z ENDP		; appLoadLocaleAddr
_TEXT	ENDS
; Function compile flags: /Odspy
; File D:\Metin2 Server Files\mainline\SRC_2014\Metin2Client\UserInterface\PythonApplicationModule.cpp
;	COMDAT ?appIsCHEONMA@@YAPAU_object@@PAU1@0@Z
_TEXT	SEGMENT
_poSelf$ = 8						; size = 4
_poArgs$ = 12						; size = 4
?appIsCHEONMA@@YAPAU_object@@PAU1@0@Z PROC		; appIsCHEONMA, COMDAT

; 258  : {

  00000	55		 push	 ebp
  00001	8b ec		 mov	 ebp, esp

; 259  : 	return Py_BuildValue("i", LocaleService_IsCHEONMA());

  00003	e8 00 00 00 00	 call	 ?LocaleService_IsCHEONMA@@YA_NXZ ; LocaleService_IsCHEONMA
  00008	0f b6 c0	 movzx	 eax, al
  0000b	50		 push	 eax
  0000c	68 00 00 00 00	 push	 OFFSET ??_C@_01KBJDNOO@i@
  00011	ff 15 00 00 00
	00		 call	 DWORD PTR __imp__Py_BuildValue
  00017	59		 pop	 ecx
  00018	59		 pop	 ecx

; 260  : }

  00019	5d		 pop	 ebp
  0001a	c3		 ret	 0
?appIsCHEONMA@@YAPAU_object@@PAU1@0@Z ENDP		; appIsCHEONMA
_TEXT	ENDS
; Function compile flags: /Odspy
; File D:\Metin2 Server Files\mainline\SRC_2014\Metin2Client\UserInterface\PythonApplicationModule.cpp
;	COMDAT ?appSetCHEONMA@@YAPAU_object@@PAU1@0@Z
_TEXT	SEGMENT
_enable$ = -8						; size = 4
tv80 = -4						; size = 4
_poSelf$ = 8						; size = 4
_poArgs$ = 12						; size = 4
?appSetCHEONMA@@YAPAU_object@@PAU1@0@Z PROC		; appSetCHEONMA, COMDAT

; 248  : {

  00000	55		 push	 ebp
  00001	8b ec		 mov	 ebp, esp
  00003	51		 push	 ecx
  00004	51		 push	 ecx

; 249  : 	int enable;
; 250  : 	if (!PyTuple_GetInteger(poArgs, 0, &enable))

  00005	8d 45 f8	 lea	 eax, DWORD PTR _enable$[ebp]
  00008	50		 push	 eax
  00009	6a 00		 push	 0
  0000b	ff 75 0c	 push	 DWORD PTR _poArgs$[ebp]
  0000e	e8 00 00 00 00	 call	 ?PyTuple_GetInteger@@YA_NPAU_object@@HPAH@Z ; PyTuple_GetInteger
  00013	83 c4 0c	 add	 esp, 12			; 0000000cH
  00016	0f b6 c0	 movzx	 eax, al
  00019	85 c0		 test	 eax, eax
  0001b	75 0a		 jne	 SHORT $LN2@appSetCHEO

; 251  : 		return Py_BuildException();

  0001d	6a 00		 push	 0
  0001f	e8 00 00 00 00	 call	 ?Py_BuildException@@YAPAU_object@@PBDZZ ; Py_BuildException
  00024	59		 pop	 ecx
  00025	eb 1e		 jmp	 SHORT $LN1@appSetCHEO
$LN2@appSetCHEO:

; 252  : 	
; 253  : 	LocaleService_SetCHEONMA(enable ? true : false);

  00027	83 7d f8 00	 cmp	 DWORD PTR _enable$[ebp], 0
  0002b	74 06		 je	 SHORT $LN4@appSetCHEO
  0002d	c6 45 fc 01	 mov	 BYTE PTR tv80[ebp], 1
  00031	eb 04		 jmp	 SHORT $LN5@appSetCHEO
$LN4@appSetCHEO:
  00033	c6 45 fc 00	 mov	 BYTE PTR tv80[ebp], 0
$LN5@appSetCHEO:
  00037	ff 75 fc	 push	 DWORD PTR tv80[ebp]
  0003a	e8 00 00 00 00	 call	 ?LocaleService_SetCHEONMA@@YAX_N@Z ; LocaleService_SetCHEONMA
  0003f	59		 pop	 ecx

; 254  : 	return Py_BuildNone();

  00040	e8 00 00 00 00	 call	 ?Py_BuildNone@@YAPAU_object@@XZ ; Py_BuildNone
$LN1@appSetCHEO:

; 255  : }

  00045	c9		 leave
  00046	c3		 ret	 0
?appSetCHEONMA@@YAPAU_object@@PAU1@0@Z ENDP		; appSetCHEONMA
_TEXT	ENDS
; Function compile flags: /Odspy
; File D:\Metin2 Server Files\mainline\SRC_2014\Metin2Client\UserInterface\PythonApplicationModule.cpp
;	COMDAT ?appGetLocaleServiceName@@YAPAU_object@@PAU1@0@Z
_TEXT	SEGMENT
_poSelf$ = 8						; size = 4
_poArgs$ = 12						; size = 4
?appGetLocaleServiceName@@YAPAU_object@@PAU1@0@Z PROC	; appGetLocaleServiceName, COMDAT

; 240  : {

  00000	55		 push	 ebp
  00001	8b ec		 mov	 ebp, esp

; 241  : 	return Py_BuildValue("s", LocaleService_GetName());

  00003	e8 00 00 00 00	 call	 ?LocaleService_GetName@@YAPBDXZ ; LocaleService_GetName
  00008	50		 push	 eax
  00009	68 00 00 00 00	 push	 OFFSET ??_C@_01LKDEMHDF@s@
  0000e	ff 15 00 00 00
	00		 call	 DWORD PTR __imp__Py_BuildValue
  00014	59		 pop	 ecx
  00015	59		 pop	 ecx

; 242  : }

  00016	5d		 pop	 ebp
  00017	c3		 ret	 0
?appGetLocaleServiceName@@YAPAU_object@@PAU1@0@Z ENDP	; appGetLocaleServiceName
_TEXT	ENDS
; Function compile flags: /Odspy
; File D:\Metin2 Server Files\mainline\SRC_2014\Metin2Client\UserInterface\PythonApplicationModule.cpp
;	COMDAT ?appForceSetLocale@@YAPAU_object@@PAU1@0@Z
_TEXT	SEGMENT
_szName$ = -8						; size = 4
_szLocalePath$ = -4					; size = 4
_poSelf$ = 8						; size = 4
_poArgs$ = 12						; size = 4
?appForceSetLocale@@YAPAU_object@@PAU1@0@Z PROC		; appForceSetLocale, COMDAT

; 225  : {

  00000	55		 push	 ebp
  00001	8b ec		 mov	 ebp, esp
  00003	51		 push	 ecx
  00004	51		 push	 ecx

; 226  : 	char* szName;
; 227  : 	if (!PyTuple_GetString(poArgs, 0, &szName))

  00005	8d 45 f8	 lea	 eax, DWORD PTR _szName$[ebp]
  00008	50		 push	 eax
  00009	6a 00		 push	 0
  0000b	ff 75 0c	 push	 DWORD PTR _poArgs$[ebp]
  0000e	e8 00 00 00 00	 call	 ?PyTuple_GetString@@YA_NPAU_object@@HPAPAD@Z ; PyTuple_GetString
  00013	83 c4 0c	 add	 esp, 12			; 0000000cH
  00016	0f b6 c0	 movzx	 eax, al
  00019	85 c0		 test	 eax, eax
  0001b	75 0a		 jne	 SHORT $LN2@appForceSe

; 228  : 		return Py_BuildException();

  0001d	6a 00		 push	 0
  0001f	e8 00 00 00 00	 call	 ?Py_BuildException@@YAPAU_object@@PBDZZ ; Py_BuildException
  00024	59		 pop	 ecx
  00025	eb 34		 jmp	 SHORT $LN1@appForceSe
$LN2@appForceSe:

; 229  : 
; 230  : 	char* szLocalePath;
; 231  : 	if (!PyTuple_GetString(poArgs, 1, &szLocalePath))

  00027	8d 45 fc	 lea	 eax, DWORD PTR _szLocalePath$[ebp]
  0002a	50		 push	 eax
  0002b	6a 01		 push	 1
  0002d	ff 75 0c	 push	 DWORD PTR _poArgs$[ebp]
  00030	e8 00 00 00 00	 call	 ?PyTuple_GetString@@YA_NPAU_object@@HPAPAD@Z ; PyTuple_GetString
  00035	83 c4 0c	 add	 esp, 12			; 0000000cH
  00038	0f b6 c0	 movzx	 eax, al
  0003b	85 c0		 test	 eax, eax
  0003d	75 0a		 jne	 SHORT $LN3@appForceSe

; 232  : 		return Py_BuildException();

  0003f	6a 00		 push	 0
  00041	e8 00 00 00 00	 call	 ?Py_BuildException@@YAPAU_object@@PBDZZ ; Py_BuildException
  00046	59		 pop	 ecx
  00047	eb 12		 jmp	 SHORT $LN1@appForceSe
$LN3@appForceSe:

; 233  : 	
; 234  : 	LocaleService_ForceSetLocale(szName, szLocalePath);

  00049	ff 75 fc	 push	 DWORD PTR _szLocalePath$[ebp]
  0004c	ff 75 f8	 push	 DWORD PTR _szName$[ebp]
  0004f	e8 00 00 00 00	 call	 ?LocaleService_ForceSetLocale@@YAXPBD0@Z ; LocaleService_ForceSetLocale
  00054	59		 pop	 ecx
  00055	59		 pop	 ecx

; 235  : 
; 236  : 	return Py_BuildNone();

  00056	e8 00 00 00 00	 call	 ?Py_BuildNone@@YAPAU_object@@XZ ; Py_BuildNone
$LN1@appForceSe:

; 237  : }

  0005b	c9		 leave
  0005c	c3		 ret	 0
?appForceSetLocale@@YAPAU_object@@PAU1@0@Z ENDP		; appForceSetLocale
_TEXT	ENDS
; Function compile flags: /Odspy
; File D:\Metin2 Server Files\mainline\SRC_2014\Metin2Client\UserInterface\PythonApplicationModule.cpp
;	COMDAT ?appSetFrameSkip@@YAPAU_object@@PAU1@0@Z
_TEXT	SEGMENT
_nFrameSkip$ = -8					; size = 4
tv82 = -4						; size = 4
_poSelf$ = 8						; size = 4
_poArgs$ = 12						; size = 4
?appSetFrameSkip@@YAPAU_object@@PAU1@0@Z PROC		; appSetFrameSkip, COMDAT

; 213  : {

  00000	55		 push	 ebp
  00001	8b ec		 mov	 ebp, esp
  00003	51		 push	 ecx
  00004	51		 push	 ecx

; 214  : 	int nFrameSkip;
; 215  : 	if (!PyTuple_GetInteger(poArgs, 0, &nFrameSkip))

  00005	8d 45 f8	 lea	 eax, DWORD PTR _nFrameSkip$[ebp]
  00008	50		 push	 eax
  00009	6a 00		 push	 0
  0000b	ff 75 0c	 push	 DWORD PTR _poArgs$[ebp]
  0000e	e8 00 00 00 00	 call	 ?PyTuple_GetInteger@@YA_NPAU_object@@HPAH@Z ; PyTuple_GetInteger
  00013	83 c4 0c	 add	 esp, 12			; 0000000cH
  00016	0f b6 c0	 movzx	 eax, al
  00019	85 c0		 test	 eax, eax
  0001b	75 0a		 jne	 SHORT $LN2@appSetFram

; 216  : 		return Py_BuildException();

  0001d	6a 00		 push	 0
  0001f	e8 00 00 00 00	 call	 ?Py_BuildException@@YAPAU_object@@PBDZZ ; Py_BuildException
  00024	59		 pop	 ecx
  00025	eb 23		 jmp	 SHORT $LN1@appSetFram
$LN2@appSetFram:

; 217  : 
; 218  : 	CPythonApplication::Instance().SetFrameSkip(nFrameSkip ? true : false);

  00027	83 7d f8 00	 cmp	 DWORD PTR _nFrameSkip$[ebp], 0
  0002b	74 06		 je	 SHORT $LN4@appSetFram
  0002d	c6 45 fc 01	 mov	 BYTE PTR tv82[ebp], 1
  00031	eb 04		 jmp	 SHORT $LN6@appSetFram
$LN4@appSetFram:
  00033	c6 45 fc 00	 mov	 BYTE PTR tv82[ebp], 0
$LN6@appSetFram:
  00037	ff 75 fc	 push	 DWORD PTR tv82[ebp]
  0003a	8b 0d 00 00 00
	00		 mov	 ecx, DWORD PTR ?ms_pInstance@CPythonApplication@@1PAV1@A ; CPythonApplication::ms_pInstance
  00040	e8 00 00 00 00	 call	 ?SetFrameSkip@CPythonApplication@@QAEX_N@Z ; CPythonApplication::SetFrameSkip

; 219  : 	return Py_BuildNone();

  00045	e8 00 00 00 00	 call	 ?Py_BuildNone@@YAPAU_object@@XZ ; Py_BuildNone
$LN1@appSetFram:

; 220  : }

  0004a	c9		 leave
  0004b	c3		 ret	 0
?appSetFrameSkip@@YAPAU_object@@PAU1@0@Z ENDP		; appSetFrameSkip
_TEXT	ENDS
; Function compile flags: /Odspy
; File D:\Metin2 Server Files\mainline\SRC_2014\Metin2Client\UserInterface\PythonApplicationModule.cpp
;	COMDAT ?appSetMinFog@@YAPAU_object@@PAU1@0@Z
_TEXT	SEGMENT
_fMinFog$ = -4						; size = 4
_poSelf$ = 8						; size = 4
_poArgs$ = 12						; size = 4
?appSetMinFog@@YAPAU_object@@PAU1@0@Z PROC		; appSetMinFog, COMDAT

; 203  : {

  00000	55		 push	 ebp
  00001	8b ec		 mov	 ebp, esp
  00003	51		 push	 ecx

; 204  : 	float fMinFog;
; 205  : 	if (!PyTuple_GetFloat(poArgs, 0, &fMinFog))

  00004	8d 45 fc	 lea	 eax, DWORD PTR _fMinFog$[ebp]
  00007	50		 push	 eax
  00008	6a 00		 push	 0
  0000a	ff 75 0c	 push	 DWORD PTR _poArgs$[ebp]
  0000d	e8 00 00 00 00	 call	 ?PyTuple_GetFloat@@YA_NPAU_object@@HPAM@Z ; PyTuple_GetFloat
  00012	83 c4 0c	 add	 esp, 12			; 0000000cH
  00015	0f b6 c0	 movzx	 eax, al
  00018	85 c0		 test	 eax, eax
  0001a	75 0a		 jne	 SHORT $LN2@appSetMinF

; 206  : 		return Py_BuildException();

  0001c	6a 00		 push	 0
  0001e	e8 00 00 00 00	 call	 ?Py_BuildException@@YAPAU_object@@PBDZZ ; Py_BuildException
  00023	59		 pop	 ecx
  00024	eb 1b		 jmp	 SHORT $LN1@appSetMinF
$LN2@appSetMinF:

; 207  : 
; 208  : 	CPythonApplication::Instance().SetMinFog(fMinFog);

  00026	51		 push	 ecx
  00027	f3 0f 10 45 fc	 movss	 xmm0, DWORD PTR _fMinFog$[ebp]
  0002c	f3 0f 11 04 24	 movss	 DWORD PTR [esp], xmm0
  00031	8b 0d 00 00 00
	00		 mov	 ecx, DWORD PTR ?ms_pInstance@CPythonApplication@@1PAV1@A ; CPythonApplication::ms_pInstance
  00037	e8 00 00 00 00	 call	 ?SetMinFog@CPythonApplication@@QAEXM@Z ; CPythonApplication::SetMinFog

; 209  : 	return Py_BuildNone();

  0003c	e8 00 00 00 00	 call	 ?Py_BuildNone@@YAPAU_object@@XZ ; Py_BuildNone
$LN1@appSetMinF:

; 210  : }

  00041	c9		 leave
  00042	c3		 ret	 0
?appSetMinFog@@YAPAU_object@@PAU1@0@Z ENDP		; appSetMinFog
_TEXT	ENDS
; Function compile flags: /Odspy
; File D:\Metin2 Server Files\mainline\SRC_2014\Metin2Client\UserInterface\PythonApplicationModule.cpp
;	COMDAT ?appSetSpecularSpeed@@YAPAU_object@@PAU1@0@Z
_TEXT	SEGMENT
_fSpeed$ = -4						; size = 4
_poSelf$ = 8						; size = 4
_poArgs$ = 12						; size = 4
?appSetSpecularSpeed@@YAPAU_object@@PAU1@0@Z PROC	; appSetSpecularSpeed, COMDAT

; 192  : {

  00000	55		 push	 ebp
  00001	8b ec		 mov	 ebp, esp
  00003	51		 push	 ecx

; 193  : 	float fSpeed;
; 194  : 	if (!PyTuple_GetFloat(poArgs, 0, &fSpeed))

  00004	8d 45 fc	 lea	 eax, DWORD PTR _fSpeed$[ebp]
  00007	50		 push	 eax
  00008	6a 00		 push	 0
  0000a	ff 75 0c	 push	 DWORD PTR _poArgs$[ebp]
  0000d	e8 00 00 00 00	 call	 ?PyTuple_GetFloat@@YA_NPAU_object@@HPAM@Z ; PyTuple_GetFloat
  00012	83 c4 0c	 add	 esp, 12			; 0000000cH
  00015	0f b6 c0	 movzx	 eax, al
  00018	85 c0		 test	 eax, eax
  0001a	75 0a		 jne	 SHORT $LN2@appSetSpec

; 195  : 		return Py_BuildException();

  0001c	6a 00		 push	 0
  0001e	e8 00 00 00 00	 call	 ?Py_BuildException@@YAPAU_object@@PBDZZ ; Py_BuildException
  00023	59		 pop	 ecx
  00024	eb 12		 jmp	 SHORT $LN1@appSetSpec
$LN2@appSetSpec:

; 196  : 
; 197  : 	g_specularSpd = fSpeed;

  00026	f3 0f 5a 45 fc	 cvtss2sd xmm0, DWORD PTR _fSpeed$[ebp]
  0002b	f2 0f 11 05 00
	00 00 00	 movsd	 QWORD PTR ?g_specularSpd@@3NA, xmm0

; 198  : 
; 199  : 	return Py_BuildNone();

  00033	e8 00 00 00 00	 call	 ?Py_BuildNone@@YAPAU_object@@XZ ; Py_BuildNone
$LN1@appSetSpec:

; 200  : }

  00038	c9		 leave
  00039	c3		 ret	 0
?appSetSpecularSpeed@@YAPAU_object@@PAU1@0@Z ENDP	; appSetSpecularSpeed
_TEXT	ENDS
; Function compile flags: /Odspy
; File D:\Metin2 Server Files\mainline\SRC_2014\Metin2Client\UserInterface\PythonApplicationModule.cpp
;	COMDAT ?appSetControlFP@@YAPAU_object@@PAU1@0@Z
_TEXT	SEGMENT
_poSelf$ = 8						; size = 4
_poArgs$ = 12						; size = 4
?appSetControlFP@@YAPAU_object@@PAU1@0@Z PROC		; appSetControlFP, COMDAT

; 186  : {

  00000	55		 push	 ebp
  00001	8b ec		 mov	 ebp, esp

; 187  : 	_controlfp( _PC_24, _MCW_PC );

  00003	68 00 00 03 00	 push	 196608			; 00030000H
  00008	68 00 00 02 00	 push	 131072			; 00020000H
  0000d	e8 00 00 00 00	 call	 __controlfp
  00012	59		 pop	 ecx
  00013	59		 pop	 ecx

; 188  : 	return Py_BuildNone();

  00014	e8 00 00 00 00	 call	 ?Py_BuildNone@@YAPAU_object@@XZ ; Py_BuildNone

; 189  : }

  00019	5d		 pop	 ebp
  0001a	c3		 ret	 0
?appSetControlFP@@YAPAU_object@@PAU1@0@Z ENDP		; appSetControlFP
_TEXT	ENDS
; Function compile flags: /Odspy
; File D:\Metin2 Server Files\mainline\SRC_2014\Metin2Client\UserInterface\PythonApplicationModule.cpp
;	COMDAT ?appSetCameraMaxDistance@@YAPAU_object@@PAU1@0@Z
_TEXT	SEGMENT
_fMax$ = -4						; size = 4
_poSelf$ = 8						; size = 4
_poArgs$ = 12						; size = 4
?appSetCameraMaxDistance@@YAPAU_object@@PAU1@0@Z PROC	; appSetCameraMaxDistance, COMDAT

; 176  : {

  00000	55		 push	 ebp
  00001	8b ec		 mov	 ebp, esp
  00003	51		 push	 ecx

; 177  : 	float fMax;
; 178  : 	if (!PyTuple_GetFloat(poArgs, 0, &fMax))

  00004	8d 45 fc	 lea	 eax, DWORD PTR _fMax$[ebp]
  00007	50		 push	 eax
  00008	6a 00		 push	 0
  0000a	ff 75 0c	 push	 DWORD PTR _poArgs$[ebp]
  0000d	e8 00 00 00 00	 call	 ?PyTuple_GetFloat@@YA_NPAU_object@@HPAM@Z ; PyTuple_GetFloat
  00012	83 c4 0c	 add	 esp, 12			; 0000000cH
  00015	0f b6 c0	 movzx	 eax, al
  00018	85 c0		 test	 eax, eax
  0001a	75 0a		 jne	 SHORT $LN2@appSetCame

; 179  : 		return Py_BuildException();

  0001c	6a 00		 push	 0
  0001e	e8 00 00 00 00	 call	 ?Py_BuildException@@YAPAU_object@@PBDZZ ; Py_BuildException
  00023	59		 pop	 ecx
  00024	eb 16		 jmp	 SHORT $LN1@appSetCame
$LN2@appSetCame:

; 180  : 
; 181  : 	CCamera::SetCameraMaxDistance(fMax);

  00026	51		 push	 ecx
  00027	f3 0f 10 45 fc	 movss	 xmm0, DWORD PTR _fMax$[ebp]
  0002c	f3 0f 11 04 24	 movss	 DWORD PTR [esp], xmm0
  00031	e8 00 00 00 00	 call	 ?SetCameraMaxDistance@CCamera@@SAXM@Z ; CCamera::SetCameraMaxDistance
  00036	59		 pop	 ecx

; 182  : 	return Py_BuildNone();

  00037	e8 00 00 00 00	 call	 ?Py_BuildNone@@YAPAU_object@@XZ ; Py_BuildNone
$LN1@appSetCame:

; 183  : }

  0003c	c9		 leave
  0003d	c3		 ret	 0
?appSetCameraMaxDistance@@YAPAU_object@@PAU1@0@Z ENDP	; appSetCameraMaxDistance
_TEXT	ENDS
; Function compile flags: /Odspy
; File D:\Metin2 Server Files\mainline\SRC_2014\Metin2Client\UserInterface\PythonApplicationModule.cpp
;	COMDAT ?appSetRideHorseEnable@@YAPAU_object@@PAU1@0@Z
_TEXT	SEGMENT
_nEnable$ = -4						; size = 4
_poSelf$ = 8						; size = 4
_poArgs$ = 12						; size = 4
?appSetRideHorseEnable@@YAPAU_object@@PAU1@0@Z PROC	; appSetRideHorseEnable, COMDAT

; 165  : {

  00000	55		 push	 ebp
  00001	8b ec		 mov	 ebp, esp
  00003	51		 push	 ecx

; 166  : 	int nEnable;
; 167  : 	if (!PyTuple_GetInteger(poArgs, 0, &nEnable))

  00004	8d 45 fc	 lea	 eax, DWORD PTR _nEnable$[ebp]
  00007	50		 push	 eax
  00008	6a 00		 push	 0
  0000a	ff 75 0c	 push	 DWORD PTR _poArgs$[ebp]
  0000d	e8 00 00 00 00	 call	 ?PyTuple_GetInteger@@YA_NPAU_object@@HPAH@Z ; PyTuple_GetInteger
  00012	83 c4 0c	 add	 esp, 12			; 0000000cH
  00015	0f b6 c0	 movzx	 eax, al
  00018	85 c0		 test	 eax, eax
  0001a	75 0a		 jne	 SHORT $LN2@appSetRide

; 168  : 		return Py_BuildException();

  0001c	6a 00		 push	 0
  0001e	e8 00 00 00 00	 call	 ?Py_BuildException@@YAPAU_object@@PBDZZ ; Py_BuildException
  00023	59		 pop	 ecx
  00024	eb 0d		 jmp	 SHORT $LN1@appSetRide
$LN2@appSetRide:

; 169  : 
; 170  : 	RIDE_HORSE_ENABLE=nEnable;

  00026	8b 45 fc	 mov	 eax, DWORD PTR _nEnable$[ebp]
  00029	a3 00 00 00 00	 mov	 DWORD PTR ?RIDE_HORSE_ENABLE@@3HA, eax ; RIDE_HORSE_ENABLE

; 171  : 
; 172  : 	return Py_BuildNone();

  0002e	e8 00 00 00 00	 call	 ?Py_BuildNone@@YAPAU_object@@XZ ; Py_BuildNone
$LN1@appSetRide:

; 173  : }

  00033	c9		 leave
  00034	c3		 ret	 0
?appSetRideHorseEnable@@YAPAU_object@@PAU1@0@Z ENDP	; appSetRideHorseEnable
_TEXT	ENDS
; Function compile flags: /Odspy
; File D:\Metin2 Server Files\mainline\SRC_2014\Metin2Client\UserInterface\PythonApplicationModule.cpp
;	COMDAT ?SetTwoHandedWeaponAttSpeedDecreaseValue@@YAPAU_object@@PAU1@0@Z
_TEXT	SEGMENT
_iValue$ = -4						; size = 4
_poSelf$ = 8						; size = 4
_poArgs$ = 12						; size = 4
?SetTwoHandedWeaponAttSpeedDecreaseValue@@YAPAU_object@@PAU1@0@Z PROC ; SetTwoHandedWeaponAttSpeedDecreaseValue, COMDAT

; 154  : {

  00000	55		 push	 ebp
  00001	8b ec		 mov	 ebp, esp
  00003	51		 push	 ecx

; 155  : 	int iValue;
; 156  : 	if (!PyTuple_GetInteger(poArgs, 0, &iValue))

  00004	8d 45 fc	 lea	 eax, DWORD PTR _iValue$[ebp]
  00007	50		 push	 eax
  00008	6a 00		 push	 0
  0000a	ff 75 0c	 push	 DWORD PTR _poArgs$[ebp]
  0000d	e8 00 00 00 00	 call	 ?PyTuple_GetInteger@@YA_NPAU_object@@HPAH@Z ; PyTuple_GetInteger
  00012	83 c4 0c	 add	 esp, 12			; 0000000cH
  00015	0f b6 c0	 movzx	 eax, al
  00018	85 c0		 test	 eax, eax
  0001a	75 0a		 jne	 SHORT $LN2@SetTwoHand

; 157  : 		return Py_BuildException();

  0001c	6a 00		 push	 0
  0001e	e8 00 00 00 00	 call	 ?Py_BuildException@@YAPAU_object@@PBDZZ ; Py_BuildException
  00023	59		 pop	 ecx
  00024	eb 0d		 jmp	 SHORT $LN1@SetTwoHand
$LN2@SetTwoHand:

; 158  : 
; 159  : 	TWOHANDED_WEWAPON_ATT_SPEED_DECREASE_VALUE = iValue;

  00026	8b 45 fc	 mov	 eax, DWORD PTR _iValue$[ebp]
  00029	a3 00 00 00 00	 mov	 DWORD PTR ?TWOHANDED_WEWAPON_ATT_SPEED_DECREASE_VALUE@@3HA, eax ; TWOHANDED_WEWAPON_ATT_SPEED_DECREASE_VALUE

; 160  : 
; 161  : 	return Py_BuildNone();

  0002e	e8 00 00 00 00	 call	 ?Py_BuildNone@@YAPAU_object@@XZ ; Py_BuildNone
$LN1@SetTwoHand:

; 162  : }

  00033	c9		 leave
  00034	c3		 ret	 0
?SetTwoHandedWeaponAttSpeedDecreaseValue@@YAPAU_object@@PAU1@0@Z ENDP ; SetTwoHandedWeaponAttSpeedDecreaseValue
_TEXT	ENDS
; Function compile flags: /Odspy
; File D:\Metin2 Server Files\mainline\SRC_2014\Metin2Client\UserInterface\PythonApplicationModule.cpp
;	COMDAT ?appSetSkillEffectUpgradeEnable@@YAPAU_object@@PAU1@0@Z
_TEXT	SEGMENT
_nEnable$ = -4						; size = 4
_poSelf$ = 8						; size = 4
_poArgs$ = 12						; size = 4
?appSetSkillEffectUpgradeEnable@@YAPAU_object@@PAU1@0@Z PROC ; appSetSkillEffectUpgradeEnable, COMDAT

; 143  : {

  00000	55		 push	 ebp
  00001	8b ec		 mov	 ebp, esp
  00003	51		 push	 ecx

; 144  : 	int nEnable;
; 145  : 	if (!PyTuple_GetInteger(poArgs, 0, &nEnable))

  00004	8d 45 fc	 lea	 eax, DWORD PTR _nEnable$[ebp]
  00007	50		 push	 eax
  00008	6a 00		 push	 0
  0000a	ff 75 0c	 push	 DWORD PTR _poArgs$[ebp]
  0000d	e8 00 00 00 00	 call	 ?PyTuple_GetInteger@@YA_NPAU_object@@HPAH@Z ; PyTuple_GetInteger
  00012	83 c4 0c	 add	 esp, 12			; 0000000cH
  00015	0f b6 c0	 movzx	 eax, al
  00018	85 c0		 test	 eax, eax
  0001a	75 0a		 jne	 SHORT $LN2@appSetSkil

; 146  : 		return Py_BuildException();

  0001c	6a 00		 push	 0
  0001e	e8 00 00 00 00	 call	 ?Py_BuildException@@YAPAU_object@@PBDZZ ; Py_BuildException
  00023	59		 pop	 ecx
  00024	eb 0d		 jmp	 SHORT $LN1@appSetSkil
$LN2@appSetSkil:

; 147  : 
; 148  : 	SKILL_EFFECT_UPGRADE_ENABLE=nEnable;

  00026	8b 45 fc	 mov	 eax, DWORD PTR _nEnable$[ebp]
  00029	a3 00 00 00 00	 mov	 DWORD PTR ?SKILL_EFFECT_UPGRADE_ENABLE@@3HA, eax ; SKILL_EFFECT_UPGRADE_ENABLE

; 149  : 
; 150  : 	return Py_BuildNone();

  0002e	e8 00 00 00 00	 call	 ?Py_BuildNone@@YAPAU_object@@XZ ; Py_BuildNone
$LN1@appSetSkil:

; 151  : }

  00033	c9		 leave
  00034	c3		 ret	 0
?appSetSkillEffectUpgradeEnable@@YAPAU_object@@PAU1@0@Z ENDP ; appSetSkillEffectUpgradeEnable
_TEXT	ENDS
; Function compile flags: /Odspy
; File D:\Metin2 Server Files\mainline\SRC_2014\Metin2Client\UserInterface\PythonApplicationModule.cpp
;	COMDAT ?appSetWeaponSpecularEnable@@YAPAU_object@@PAU1@0@Z
_TEXT	SEGMENT
_nEnable$ = -4						; size = 4
_poSelf$ = 8						; size = 4
_poArgs$ = 12						; size = 4
?appSetWeaponSpecularEnable@@YAPAU_object@@PAU1@0@Z PROC ; appSetWeaponSpecularEnable, COMDAT

; 132  : {

  00000	55		 push	 ebp
  00001	8b ec		 mov	 ebp, esp
  00003	51		 push	 ecx

; 133  : 	int nEnable;
; 134  : 	if (!PyTuple_GetInteger(poArgs, 0, &nEnable))

  00004	8d 45 fc	 lea	 eax, DWORD PTR _nEnable$[ebp]
  00007	50		 push	 eax
  00008	6a 00		 push	 0
  0000a	ff 75 0c	 push	 DWORD PTR _poArgs$[ebp]
  0000d	e8 00 00 00 00	 call	 ?PyTuple_GetInteger@@YA_NPAU_object@@HPAH@Z ; PyTuple_GetInteger
  00012	83 c4 0c	 add	 esp, 12			; 0000000cH
  00015	0f b6 c0	 movzx	 eax, al
  00018	85 c0		 test	 eax, eax
  0001a	75 0a		 jne	 SHORT $LN2@appSetWeap

; 135  : 		return Py_BuildException();

  0001c	6a 00		 push	 0
  0001e	e8 00 00 00 00	 call	 ?Py_BuildException@@YAPAU_object@@PBDZZ ; Py_BuildException
  00023	59		 pop	 ecx
  00024	eb 0d		 jmp	 SHORT $LN1@appSetWeap
$LN2@appSetWeap:

; 136  : 
; 137  : 	USE_WEAPON_SPECULAR=nEnable;

  00026	8b 45 fc	 mov	 eax, DWORD PTR _nEnable$[ebp]
  00029	a3 00 00 00 00	 mov	 DWORD PTR ?USE_WEAPON_SPECULAR@@3HA, eax ; USE_WEAPON_SPECULAR

; 138  : 
; 139  : 	return Py_BuildNone();

  0002e	e8 00 00 00 00	 call	 ?Py_BuildNone@@YAPAU_object@@XZ ; Py_BuildNone
$LN1@appSetWeap:

; 140  : }

  00033	c9		 leave
  00034	c3		 ret	 0
?appSetWeaponSpecularEnable@@YAPAU_object@@PAU1@0@Z ENDP ; appSetWeaponSpecularEnable
_TEXT	ENDS
; Function compile flags: /Odspy
; File D:\Metin2 Server Files\mainline\SRC_2014\Metin2Client\UserInterface\PythonApplicationModule.cpp
;	COMDAT ?appSetArmorSpecularEnable@@YAPAU_object@@PAU1@0@Z
_TEXT	SEGMENT
_nEnable$ = -4						; size = 4
_poSelf$ = 8						; size = 4
_poArgs$ = 12						; size = 4
?appSetArmorSpecularEnable@@YAPAU_object@@PAU1@0@Z PROC	; appSetArmorSpecularEnable, COMDAT

; 121  : {

  00000	55		 push	 ebp
  00001	8b ec		 mov	 ebp, esp
  00003	51		 push	 ecx

; 122  : 	int nEnable;
; 123  : 	if (!PyTuple_GetInteger(poArgs, 0, &nEnable))

  00004	8d 45 fc	 lea	 eax, DWORD PTR _nEnable$[ebp]
  00007	50		 push	 eax
  00008	6a 00		 push	 0
  0000a	ff 75 0c	 push	 DWORD PTR _poArgs$[ebp]
  0000d	e8 00 00 00 00	 call	 ?PyTuple_GetInteger@@YA_NPAU_object@@HPAH@Z ; PyTuple_GetInteger
  00012	83 c4 0c	 add	 esp, 12			; 0000000cH
  00015	0f b6 c0	 movzx	 eax, al
  00018	85 c0		 test	 eax, eax
  0001a	75 0a		 jne	 SHORT $LN2@appSetArmo

; 124  : 		return Py_BuildException();

  0001c	6a 00		 push	 0
  0001e	e8 00 00 00 00	 call	 ?Py_BuildException@@YAPAU_object@@PBDZZ ; Py_BuildException
  00023	59		 pop	 ecx
  00024	eb 0d		 jmp	 SHORT $LN1@appSetArmo
$LN2@appSetArmo:

; 125  : 
; 126  : 	USE_ARMOR_SPECULAR=nEnable;

  00026	8b 45 fc	 mov	 eax, DWORD PTR _nEnable$[ebp]
  00029	a3 00 00 00 00	 mov	 DWORD PTR ?USE_ARMOR_SPECULAR@@3HA, eax ; USE_ARMOR_SPECULAR

; 127  : 
; 128  : 	return Py_BuildNone();

  0002e	e8 00 00 00 00	 call	 ?Py_BuildNone@@YAPAU_object@@XZ ; Py_BuildNone
$LN1@appSetArmo:

; 129  : }

  00033	c9		 leave
  00034	c3		 ret	 0
?appSetArmorSpecularEnable@@YAPAU_object@@PAU1@0@Z ENDP	; appSetArmorSpecularEnable
_TEXT	ENDS
; Function compile flags: /Odspy
; File D:\Metin2 Server Files\mainline\SRC_2014\Metin2Client\UserInterface\PythonApplicationModule.cpp
;	COMDAT ?appSetHairColorEnable@@YAPAU_object@@PAU1@0@Z
_TEXT	SEGMENT
_nEnable$ = -4						; size = 4
_poSelf$ = 8						; size = 4
_poArgs$ = 12						; size = 4
?appSetHairColorEnable@@YAPAU_object@@PAU1@0@Z PROC	; appSetHairColorEnable, COMDAT

; 110  : {

  00000	55		 push	 ebp
  00001	8b ec		 mov	 ebp, esp
  00003	51		 push	 ecx

; 111  : 	int nEnable;
; 112  : 	if (!PyTuple_GetInteger(poArgs, 0, &nEnable))

  00004	8d 45 fc	 lea	 eax, DWORD PTR _nEnable$[ebp]
  00007	50		 push	 eax
  00008	6a 00		 push	 0
  0000a	ff 75 0c	 push	 DWORD PTR _poArgs$[ebp]
  0000d	e8 00 00 00 00	 call	 ?PyTuple_GetInteger@@YA_NPAU_object@@HPAH@Z ; PyTuple_GetInteger
  00012	83 c4 0c	 add	 esp, 12			; 0000000cH
  00015	0f b6 c0	 movzx	 eax, al
  00018	85 c0		 test	 eax, eax
  0001a	75 0a		 jne	 SHORT $LN2@appSetHair

; 113  : 		return Py_BuildException();

  0001c	6a 00		 push	 0
  0001e	e8 00 00 00 00	 call	 ?Py_BuildException@@YAPAU_object@@PBDZZ ; Py_BuildException
  00023	59		 pop	 ecx
  00024	eb 0d		 jmp	 SHORT $LN1@appSetHair
$LN2@appSetHair:

; 114  : 
; 115  : 	HAIR_COLOR_ENABLE=nEnable;

  00026	8b 45 fc	 mov	 eax, DWORD PTR _nEnable$[ebp]
  00029	a3 00 00 00 00	 mov	 DWORD PTR ?HAIR_COLOR_ENABLE@@3HA, eax ; HAIR_COLOR_ENABLE

; 116  : 
; 117  : 	return Py_BuildNone();

  0002e	e8 00 00 00 00	 call	 ?Py_BuildNone@@YAPAU_object@@XZ ; Py_BuildNone
$LN1@appSetHair:

; 118  : }

  00033	c9		 leave
  00034	c3		 ret	 0
?appSetHairColorEnable@@YAPAU_object@@PAU1@0@Z ENDP	; appSetHairColorEnable
_TEXT	ENDS
; Function compile flags: /Odspy
; File D:\Metin2 Server Files\mainline\SRC_2014\Metin2Client\UserInterface\PythonApplicationModule.cpp
;	COMDAT ?appSetTextTailLivingTime@@YAPAU_object@@PAU1@0@Z
_TEXT	SEGMENT
_livingTime$ = -4					; size = 4
_poSelf$ = 8						; size = 4
_poArgs$ = 12						; size = 4
?appSetTextTailLivingTime@@YAPAU_object@@PAU1@0@Z PROC	; appSetTextTailLivingTime, COMDAT

; 98   : {

  00000	55		 push	 ebp
  00001	8b ec		 mov	 ebp, esp
  00003	51		 push	 ecx

; 99   : 	float livingTime;
; 100  : 	if (!PyTuple_GetFloat(poArgs, 0, &livingTime))

  00004	8d 45 fc	 lea	 eax, DWORD PTR _livingTime$[ebp]
  00007	50		 push	 eax
  00008	6a 00		 push	 0
  0000a	ff 75 0c	 push	 DWORD PTR _poArgs$[ebp]
  0000d	e8 00 00 00 00	 call	 ?PyTuple_GetFloat@@YA_NPAU_object@@HPAM@Z ; PyTuple_GetFloat
  00012	83 c4 0c	 add	 esp, 12			; 0000000cH
  00015	0f b6 c0	 movzx	 eax, al
  00018	85 c0		 test	 eax, eax
  0001a	75 0a		 jne	 SHORT $LN2@appSetText

; 101  : 		return Py_BuildException();

  0001c	6a 00		 push	 0
  0001e	e8 00 00 00 00	 call	 ?Py_BuildException@@YAPAU_object@@PBDZZ ; Py_BuildException
  00023	59		 pop	 ecx
  00024	eb 1d		 jmp	 SHORT $LN1@appSetText
$LN2@appSetText:

; 102  : 
; 103  : 	TextTail_SetLivingTime(livingTime*1000);

  00026	f3 0f 10 45 fc	 movss	 xmm0, DWORD PTR _livingTime$[ebp]
  0002b	f3 0f 59 05 00
	00 00 00	 mulss	 xmm0, DWORD PTR __real@447a0000
  00033	f3 0f 2c c0	 cvttss2si eax, xmm0
  00037	50		 push	 eax
  00038	e8 00 00 00 00	 call	 ?TextTail_SetLivingTime@@YAXJ@Z ; TextTail_SetLivingTime
  0003d	59		 pop	 ecx

; 104  : 
; 105  : 	return Py_BuildNone();

  0003e	e8 00 00 00 00	 call	 ?Py_BuildNone@@YAPAU_object@@XZ ; Py_BuildNone
$LN1@appSetText:

; 106  : }

  00043	c9		 leave
  00044	c3		 ret	 0
?appSetTextTailLivingTime@@YAPAU_object@@PAU1@0@Z ENDP	; appSetTextTailLivingTime
_TEXT	ENDS
; Function compile flags: /Odspy
; File D:\Metin2 Server Files\mainline\SRC_2014\Metin2Client\UserInterface\PythonApplicationModule.cpp
;	COMDAT ?appEnablePerformanceTime@@YAPAU_object@@PAU1@0@Z
_TEXT	SEGMENT
_szMode$ = -12						; size = 4
_nEnable$ = -8						; size = 4
_isEnable$ = -2						; size = 1
tv81 = -1						; size = 1
_poSelf$ = 8						; size = 4
_poArgs$ = 12						; size = 4
?appEnablePerformanceTime@@YAPAU_object@@PAU1@0@Z PROC	; appEnablePerformanceTime, COMDAT

; 68   : {

  00000	55		 push	 ebp
  00001	8b ec		 mov	 ebp, esp
  00003	83 ec 0c	 sub	 esp, 12			; 0000000cH

; 69   : 	char* szMode;
; 70   : 	if (!PyTuple_GetString(poArgs, 0, &szMode))

  00006	8d 45 f4	 lea	 eax, DWORD PTR _szMode$[ebp]
  00009	50		 push	 eax
  0000a	6a 00		 push	 0
  0000c	ff 75 0c	 push	 DWORD PTR _poArgs$[ebp]
  0000f	e8 00 00 00 00	 call	 ?PyTuple_GetString@@YA_NPAU_object@@HPAPAD@Z ; PyTuple_GetString
  00014	83 c4 0c	 add	 esp, 12			; 0000000cH
  00017	0f b6 c0	 movzx	 eax, al
  0001a	85 c0		 test	 eax, eax
  0001c	75 0a		 jne	 SHORT $LN2@appEnableP

; 71   : 		return Py_BuildException();

  0001e	6a 00		 push	 0
  00020	e8 00 00 00 00	 call	 ?Py_BuildException@@YAPAU_object@@PBDZZ ; Py_BuildException
  00025	59		 pop	 ecx
  00026	eb 58		 jmp	 SHORT $LN1@appEnableP
$LN2@appEnableP:

; 72   : 
; 73   : 	int nEnable;
; 74   : 	if (!PyTuple_GetInteger(poArgs, 1, &nEnable))

  00028	8d 45 f8	 lea	 eax, DWORD PTR _nEnable$[ebp]
  0002b	50		 push	 eax
  0002c	6a 01		 push	 1
  0002e	ff 75 0c	 push	 DWORD PTR _poArgs$[ebp]
  00031	e8 00 00 00 00	 call	 ?PyTuple_GetInteger@@YA_NPAU_object@@HPAH@Z ; PyTuple_GetInteger
  00036	83 c4 0c	 add	 esp, 12			; 0000000cH
  00039	0f b6 c0	 movzx	 eax, al
  0003c	85 c0		 test	 eax, eax
  0003e	75 0a		 jne	 SHORT $LN3@appEnableP

; 75   : 		return Py_BuildException();

  00040	6a 00		 push	 0
  00042	e8 00 00 00 00	 call	 ?Py_BuildException@@YAPAU_object@@PBDZZ ; Py_BuildException
  00047	59		 pop	 ecx
  00048	eb 36		 jmp	 SHORT $LN1@appEnableP
$LN3@appEnableP:

; 76   : 
; 77   : 	bool isEnable=nEnable ? true : false;

  0004a	83 7d f8 00	 cmp	 DWORD PTR _nEnable$[ebp], 0
  0004e	74 06		 je	 SHORT $LN6@appEnableP
  00050	c6 45 ff 01	 mov	 BYTE PTR tv81[ebp], 1
  00054	eb 04		 jmp	 SHORT $LN7@appEnableP
$LN6@appEnableP:
  00056	c6 45 ff 00	 mov	 BYTE PTR tv81[ebp], 0
$LN7@appEnableP:
  0005a	8a 45 ff	 mov	 al, BYTE PTR tv81[ebp]
  0005d	88 45 fe	 mov	 BYTE PTR _isEnable$[ebp], al

; 78   : 
; 79   : 	if (strcmp(szMode, "RENDER_GAME")==0)

  00060	68 00 00 00 00	 push	 OFFSET ??_C@_0M@OEKALNFB@RENDER_GAME@
  00065	ff 75 f4	 push	 DWORD PTR _szMode$[ebp]
  00068	e8 00 00 00 00	 call	 _strcmp
  0006d	59		 pop	 ecx
  0006e	59		 pop	 ecx
  0006f	85 c0		 test	 eax, eax
  00071	75 08		 jne	 SHORT $LN4@appEnableP

; 80   : 		PERF_CHECKER_RENDER_GAME = isEnable;

  00073	8a 45 fe	 mov	 al, BYTE PTR _isEnable$[ebp]
  00076	a2 00 00 00 00	 mov	 BYTE PTR ?PERF_CHECKER_RENDER_GAME@@3_NA, al ; PERF_CHECKER_RENDER_GAME
$LN4@appEnableP:

; 81   : 	
; 82   : 	return Py_BuildNone();

  0007b	e8 00 00 00 00	 call	 ?Py_BuildNone@@YAPAU_object@@XZ ; Py_BuildNone
$LN1@appEnableP:

; 83   : }

  00080	c9		 leave
  00081	c3		 ret	 0
?appEnablePerformanceTime@@YAPAU_object@@PAU1@0@Z ENDP	; appEnablePerformanceTime
_TEXT	ENDS
; Function compile flags: /Odspy
; File D:\Metin2 Server Files\mainline\SRC_2014\Metin2Client\UserInterface\PythonApplicationModule.cpp
; File D:\Metin2 Server Files\mainline\SRC_2014\Metin2Client\UserInterface\PythonApplication.h
; File D:\Metin2 Server Files\mainline\SRC_2014\Metin2Client\UserInterface\PythonApplicationModule.cpp
;	COMDAT ?appIsWebPageMode@@YAPAU_object@@PAU1@0@Z
_TEXT	SEGMENT
$T1 = -4						; size = 4
_poSelf$ = 8						; size = 4
_poArgs$ = 12						; size = 4
?appIsWebPageMode@@YAPAU_object@@PAU1@0@Z PROC		; appIsWebPageMode, COMDAT

; 63   : {

  00000	55		 push	 ebp
  00001	8b ec		 mov	 ebp, esp
  00003	51		 push	 ecx
; File D:\Metin2 Server Files\mainline\SRC_2014\Metin2Client\UserInterface\PythonApplication.h

; 143  : 			return *ms_pInstance;

  00004	a1 00 00 00 00	 mov	 eax, DWORD PTR ?ms_pInstance@CPythonApplication@@1PAV1@A ; CPythonApplication::ms_pInstance
  00009	89 45 fc	 mov	 DWORD PTR $T1[ebp], eax
; File D:\Metin2 Server Files\mainline\SRC_2014\Metin2Client\UserInterface\PythonApplicationModule.cpp

; 64   : 	return Py_BuildValue("i", CPythonApplication::Instance().IsWebPageMode());

  0000c	8b 4d fc	 mov	 ecx, DWORD PTR $T1[ebp]
  0000f	e8 00 00 00 00	 call	 ?IsWebPageMode@CPythonApplication@@QAE_NXZ ; CPythonApplication::IsWebPageMode
  00014	0f b6 c0	 movzx	 eax, al
  00017	50		 push	 eax
  00018	68 00 00 00 00	 push	 OFFSET ??_C@_01KBJDNOO@i@
  0001d	ff 15 00 00 00
	00		 call	 DWORD PTR __imp__Py_BuildValue
  00023	59		 pop	 ecx
  00024	59		 pop	 ecx

; 65   : }

  00025	c9		 leave
  00026	c3		 ret	 0
?appIsWebPageMode@@YAPAU_object@@PAU1@0@Z ENDP		; appIsWebPageMode
_TEXT	ENDS
; Function compile flags: /Odspy
; File D:\Metin2 Server Files\mainline\SRC_2014\Metin2Client\UserInterface\PythonApplicationModule.cpp
;	COMDAT ?appHideWebPage@@YAPAU_object@@PAU1@0@Z
_TEXT	SEGMENT
_poSelf$ = 8						; size = 4
_poArgs$ = 12						; size = 4
?appHideWebPage@@YAPAU_object@@PAU1@0@Z PROC		; appHideWebPage, COMDAT

; 56   : {

  00000	55		 push	 ebp
  00001	8b ec		 mov	 ebp, esp

; 57   : 	CPythonApplication::Instance().HideWebPage();

  00003	8b 0d 00 00 00
	00		 mov	 ecx, DWORD PTR ?ms_pInstance@CPythonApplication@@1PAV1@A ; CPythonApplication::ms_pInstance
  00009	e8 00 00 00 00	 call	 ?HideWebPage@CPythonApplication@@QAEXXZ ; CPythonApplication::HideWebPage

; 58   : 	return Py_BuildNone();

  0000e	e8 00 00 00 00	 call	 ?Py_BuildNone@@YAPAU_object@@XZ ; Py_BuildNone

; 59   : }

  00013	5d		 pop	 ebp
  00014	c3		 ret	 0
?appHideWebPage@@YAPAU_object@@PAU1@0@Z ENDP		; appHideWebPage
_TEXT	ENDS
; Function compile flags: /Odspy
; File D:\Metin2 Server Files\mainline\SRC_2014\Metin2Client\UserInterface\PythonApplicationModule.cpp
;	COMDAT ?appMoveWebPage@@YAPAU_object@@PAU1@0@Z
_TEXT	SEGMENT
_poRect$ = -24						; size = 4
_rcWebPage$ = -20					; size = 16
__$ArrayPad$ = -4					; size = 4
_poSelf$ = 8						; size = 4
_poArgs$ = 12						; size = 4
?appMoveWebPage@@YAPAU_object@@PAU1@0@Z PROC		; appMoveWebPage, COMDAT

; 40   : {

  00000	55		 push	 ebp
  00001	8b ec		 mov	 ebp, esp
  00003	83 ec 18	 sub	 esp, 24			; 00000018H
  00006	a1 00 00 00 00	 mov	 eax, DWORD PTR ___security_cookie
  0000b	33 c5		 xor	 eax, ebp
  0000d	89 45 fc	 mov	 DWORD PTR __$ArrayPad$[ebp], eax

; 41   : 	PyObject* poRect=PyTuple_GetItem(poArgs, 0);

  00010	6a 00		 push	 0
  00012	ff 75 0c	 push	 DWORD PTR _poArgs$[ebp]
  00015	ff 15 00 00 00
	00		 call	 DWORD PTR __imp__PyTuple_GetItem
  0001b	59		 pop	 ecx
  0001c	59		 pop	 ecx
  0001d	89 45 e8	 mov	 DWORD PTR _poRect$[ebp], eax

; 42   : 	if (!PyTuple_Check(poRect))

  00020	8b 45 e8	 mov	 eax, DWORD PTR _poRect$[ebp]
  00023	8b 40 04	 mov	 eax, DWORD PTR [eax+4]
  00026	8b 40 54	 mov	 eax, DWORD PTR [eax+84]
  00029	25 00 00 00 04	 and	 eax, 67108864		; 04000000H
  0002e	75 0a		 jne	 SHORT $LN2@appMoveWeb

; 43   : 		return Py_BuildException();	

  00030	6a 00		 push	 0
  00032	e8 00 00 00 00	 call	 ?Py_BuildException@@YAPAU_object@@PBDZZ ; Py_BuildException
  00037	59		 pop	 ecx
  00038	eb 74		 jmp	 SHORT $LN1@appMoveWeb
$LN2@appMoveWeb:

; 44   : 
; 45   : 	RECT rcWebPage;
; 46   : 	rcWebPage.left=PyInt_AsLong(PyTuple_GetItem(poRect, 0));

  0003a	6a 00		 push	 0
  0003c	ff 75 e8	 push	 DWORD PTR _poRect$[ebp]
  0003f	ff 15 00 00 00
	00		 call	 DWORD PTR __imp__PyTuple_GetItem
  00045	59		 pop	 ecx
  00046	59		 pop	 ecx
  00047	50		 push	 eax
  00048	ff 15 00 00 00
	00		 call	 DWORD PTR __imp__PyInt_AsLong
  0004e	59		 pop	 ecx
  0004f	89 45 ec	 mov	 DWORD PTR _rcWebPage$[ebp], eax

; 47   : 	rcWebPage.top=PyInt_AsLong(PyTuple_GetItem(poRect, 1));

  00052	6a 01		 push	 1
  00054	ff 75 e8	 push	 DWORD PTR _poRect$[ebp]
  00057	ff 15 00 00 00
	00		 call	 DWORD PTR __imp__PyTuple_GetItem
  0005d	59		 pop	 ecx
  0005e	59		 pop	 ecx
  0005f	50		 push	 eax
  00060	ff 15 00 00 00
	00		 call	 DWORD PTR __imp__PyInt_AsLong
  00066	59		 pop	 ecx
  00067	89 45 f0	 mov	 DWORD PTR _rcWebPage$[ebp+4], eax

; 48   : 	rcWebPage.right=PyInt_AsLong(PyTuple_GetItem(poRect, 2));

  0006a	6a 02		 push	 2
  0006c	ff 75 e8	 push	 DWORD PTR _poRect$[ebp]
  0006f	ff 15 00 00 00
	00		 call	 DWORD PTR __imp__PyTuple_GetItem
  00075	59		 pop	 ecx
  00076	59		 pop	 ecx
  00077	50		 push	 eax
  00078	ff 15 00 00 00
	00		 call	 DWORD PTR __imp__PyInt_AsLong
  0007e	59		 pop	 ecx
  0007f	89 45 f4	 mov	 DWORD PTR _rcWebPage$[ebp+8], eax

; 49   : 	rcWebPage.bottom=PyInt_AsLong(PyTuple_GetItem(poRect, 3));

  00082	6a 03		 push	 3
  00084	ff 75 e8	 push	 DWORD PTR _poRect$[ebp]
  00087	ff 15 00 00 00
	00		 call	 DWORD PTR __imp__PyTuple_GetItem
  0008d	59		 pop	 ecx
  0008e	59		 pop	 ecx
  0008f	50		 push	 eax
  00090	ff 15 00 00 00
	00		 call	 DWORD PTR __imp__PyInt_AsLong
  00096	59		 pop	 ecx
  00097	89 45 f8	 mov	 DWORD PTR _rcWebPage$[ebp+12], eax

; 50   : 
; 51   : 	CPythonApplication::Instance().MoveWebPage(rcWebPage);

  0009a	8d 45 ec	 lea	 eax, DWORD PTR _rcWebPage$[ebp]
  0009d	50		 push	 eax
  0009e	8b 0d 00 00 00
	00		 mov	 ecx, DWORD PTR ?ms_pInstance@CPythonApplication@@1PAV1@A ; CPythonApplication::ms_pInstance
  000a4	e8 00 00 00 00	 call	 ?MoveWebPage@CPythonApplication@@QAEXABUtagRECT@@@Z ; CPythonApplication::MoveWebPage

; 52   : 	return Py_BuildNone();

  000a9	e8 00 00 00 00	 call	 ?Py_BuildNone@@YAPAU_object@@XZ ; Py_BuildNone
$LN1@appMoveWeb:

; 53   : }

  000ae	8b 4d fc	 mov	 ecx, DWORD PTR __$ArrayPad$[ebp]
  000b1	33 cd		 xor	 ecx, ebp
  000b3	e8 00 00 00 00	 call	 @__security_check_cookie@4
  000b8	c9		 leave
  000b9	c3		 ret	 0
?appMoveWebPage@@YAPAU_object@@PAU1@0@Z ENDP		; appMoveWebPage
_TEXT	ENDS
; Function compile flags: /Odspy
; File D:\Metin2 Server Files\mainline\SRC_2014\Metin2Client\UserInterface\PythonApplicationModule.cpp
;	COMDAT ?appShowWebPage@@YAPAU_object@@PAU1@0@Z
_TEXT	SEGMENT
_szWebPage$ = -28					; size = 4
_poRect$ = -24						; size = 4
_rcWebPage$ = -20					; size = 16
__$ArrayPad$ = -4					; size = 4
_poSelf$ = 8						; size = 4
_poArgs$ = 12						; size = 4
?appShowWebPage@@YAPAU_object@@PAU1@0@Z PROC		; appShowWebPage, COMDAT

; 17   : {

  00000	55		 push	 ebp
  00001	8b ec		 mov	 ebp, esp
  00003	83 ec 1c	 sub	 esp, 28			; 0000001cH
  00006	a1 00 00 00 00	 mov	 eax, DWORD PTR ___security_cookie
  0000b	33 c5		 xor	 eax, ebp
  0000d	89 45 fc	 mov	 DWORD PTR __$ArrayPad$[ebp], eax

; 18   : 	char* szWebPage;
; 19   : 	if (!PyTuple_GetString(poArgs, 0, &szWebPage))

  00010	8d 45 e4	 lea	 eax, DWORD PTR _szWebPage$[ebp]
  00013	50		 push	 eax
  00014	6a 00		 push	 0
  00016	ff 75 0c	 push	 DWORD PTR _poArgs$[ebp]
  00019	e8 00 00 00 00	 call	 ?PyTuple_GetString@@YA_NPAU_object@@HPAPAD@Z ; PyTuple_GetString
  0001e	83 c4 0c	 add	 esp, 12			; 0000000cH
  00021	0f b6 c0	 movzx	 eax, al
  00024	85 c0		 test	 eax, eax
  00026	75 0d		 jne	 SHORT $LN2@appShowWeb

; 20   : 		return Py_BuildException();

  00028	6a 00		 push	 0
  0002a	e8 00 00 00 00	 call	 ?Py_BuildException@@YAPAU_object@@PBDZZ ; Py_BuildException
  0002f	59		 pop	 ecx
  00030	e9 a1 00 00 00	 jmp	 $LN1@appShowWeb
$LN2@appShowWeb:

; 21   : 
; 22   : 	PyObject* poRect=PyTuple_GetItem(poArgs, 1);

  00035	6a 01		 push	 1
  00037	ff 75 0c	 push	 DWORD PTR _poArgs$[ebp]
  0003a	ff 15 00 00 00
	00		 call	 DWORD PTR __imp__PyTuple_GetItem
  00040	59		 pop	 ecx
  00041	59		 pop	 ecx
  00042	89 45 e8	 mov	 DWORD PTR _poRect$[ebp], eax

; 23   : 	if (!PyTuple_Check(poRect))

  00045	8b 45 e8	 mov	 eax, DWORD PTR _poRect$[ebp]
  00048	8b 40 04	 mov	 eax, DWORD PTR [eax+4]
  0004b	8b 40 54	 mov	 eax, DWORD PTR [eax+84]
  0004e	25 00 00 00 04	 and	 eax, 67108864		; 04000000H
  00053	75 0a		 jne	 SHORT $LN3@appShowWeb

; 24   : 		return Py_BuildException();	

  00055	6a 00		 push	 0
  00057	e8 00 00 00 00	 call	 ?Py_BuildException@@YAPAU_object@@PBDZZ ; Py_BuildException
  0005c	59		 pop	 ecx
  0005d	eb 77		 jmp	 SHORT $LN1@appShowWeb
$LN3@appShowWeb:

; 25   : 
; 26   : 	RECT rcWebPage;
; 27   : 	rcWebPage.left=PyInt_AsLong(PyTuple_GetItem(poRect, 0));

  0005f	6a 00		 push	 0
  00061	ff 75 e8	 push	 DWORD PTR _poRect$[ebp]
  00064	ff 15 00 00 00
	00		 call	 DWORD PTR __imp__PyTuple_GetItem
  0006a	59		 pop	 ecx
  0006b	59		 pop	 ecx
  0006c	50		 push	 eax
  0006d	ff 15 00 00 00
	00		 call	 DWORD PTR __imp__PyInt_AsLong
  00073	59		 pop	 ecx
  00074	89 45 ec	 mov	 DWORD PTR _rcWebPage$[ebp], eax

; 28   : 	rcWebPage.top=PyInt_AsLong(PyTuple_GetItem(poRect, 1));

  00077	6a 01		 push	 1
  00079	ff 75 e8	 push	 DWORD PTR _poRect$[ebp]
  0007c	ff 15 00 00 00
	00		 call	 DWORD PTR __imp__PyTuple_GetItem
  00082	59		 pop	 ecx
  00083	59		 pop	 ecx
  00084	50		 push	 eax
  00085	ff 15 00 00 00
	00		 call	 DWORD PTR __imp__PyInt_AsLong
  0008b	59		 pop	 ecx
  0008c	89 45 f0	 mov	 DWORD PTR _rcWebPage$[ebp+4], eax

; 29   : 	rcWebPage.right=PyInt_AsLong(PyTuple_GetItem(poRect, 2));

  0008f	6a 02		 push	 2
  00091	ff 75 e8	 push	 DWORD PTR _poRect$[ebp]
  00094	ff 15 00 00 00
	00		 call	 DWORD PTR __imp__PyTuple_GetItem
  0009a	59		 pop	 ecx
  0009b	59		 pop	 ecx
  0009c	50		 push	 eax
  0009d	ff 15 00 00 00
	00		 call	 DWORD PTR __imp__PyInt_AsLong
  000a3	59		 pop	 ecx
  000a4	89 45 f4	 mov	 DWORD PTR _rcWebPage$[ebp+8], eax

; 30   : 	rcWebPage.bottom=PyInt_AsLong(PyTuple_GetItem(poRect, 3));

  000a7	6a 03		 push	 3
  000a9	ff 75 e8	 push	 DWORD PTR _poRect$[ebp]
  000ac	ff 15 00 00 00
	00		 call	 DWORD PTR __imp__PyTuple_GetItem
  000b2	59		 pop	 ecx
  000b3	59		 pop	 ecx
  000b4	50		 push	 eax
  000b5	ff 15 00 00 00
	00		 call	 DWORD PTR __imp__PyInt_AsLong
  000bb	59		 pop	 ecx
  000bc	89 45 f8	 mov	 DWORD PTR _rcWebPage$[ebp+12], eax

; 31   : 
; 32   : 	CPythonApplication::Instance().ShowWebPage(

  000bf	8d 45 ec	 lea	 eax, DWORD PTR _rcWebPage$[ebp]
  000c2	50		 push	 eax
  000c3	ff 75 e4	 push	 DWORD PTR _szWebPage$[ebp]
  000c6	8b 0d 00 00 00
	00		 mov	 ecx, DWORD PTR ?ms_pInstance@CPythonApplication@@1PAV1@A ; CPythonApplication::ms_pInstance
  000cc	e8 00 00 00 00	 call	 ?ShowWebPage@CPythonApplication@@QAEXPBDABUtagRECT@@@Z ; CPythonApplication::ShowWebPage

; 33   : 		szWebPage,
; 34   : 		rcWebPage		
; 35   : 	);
; 36   : 	return Py_BuildNone();

  000d1	e8 00 00 00 00	 call	 ?Py_BuildNone@@YAPAU_object@@XZ ; Py_BuildNone
$LN1@appShowWeb:

; 37   : }

  000d6	8b 4d fc	 mov	 ecx, DWORD PTR __$ArrayPad$[ebp]
  000d9	33 cd		 xor	 ecx, ebp
  000db	e8 00 00 00 00	 call	 @__security_check_cookie@4
  000e0	c9		 leave
  000e1	c3		 ret	 0
?appShowWebPage@@YAPAU_object@@PAU1@0@Z ENDP		; appShowWebPage
_TEXT	ENDS
; Function compile flags: /Odspy
; File D:\Metin2 Server Files\mainline\SRC_2014\Metin2Client\UserInterface\AbstractApplication.h
; File D:\Metin2 Server Files\mainline\SRC_2014\M2Data\include\d3dx8math.inl
; File D:\Metin2 Server Files\mainline\SRC_2014\Metin2Client\UserInterface\AbstractApplication.h
;	COMDAT ??0SCameraSetting@IAbstractApplication@@QAE@XZ
_TEXT	SEGMENT
_this$ = -12						; size = 4
_this$ = -8						; size = 4
_this$ = -4						; size = 4
??0SCameraSetting@IAbstractApplication@@QAE@XZ PROC	; IAbstractApplication::SCameraSetting::SCameraSetting, COMDAT
; _this$ = ecx

; 28   : 								fZoom(0.0f) {}

  00000	55		 push	 ebp
  00001	8b ec		 mov	 ebp, esp
  00003	83 ec 0c	 sub	 esp, 12			; 0000000cH
  00006	89 4d fc	 mov	 DWORD PTR _this$[ebp], ecx

; 15   : 		};
; 16   : 
; 17   : 		struct SCameraSetting
; 18   : 		{
; 19   : 			D3DXVECTOR3				v3CenterPosition;
; 20   : 			SCameraPos				kCmrPos;
; 21   : 			float					fRotation;
; 22   : 			float					fPitch;
; 23   : 			float					fZoom;
; 24   : 
; 25   : 			SCameraSetting() :	v3CenterPosition(0.0f, 0.0f, 0.0f),

  00009	8b 45 fc	 mov	 eax, DWORD PTR _this$[ebp]
  0000c	89 45 f8	 mov	 DWORD PTR _this$[ebp], eax
; File D:\Metin2 Server Files\mainline\SRC_2014\M2Data\include\d3dx8math.inl

; 180  :     x = fx;

  0000f	8b 45 f8	 mov	 eax, DWORD PTR _this$[ebp]
  00012	0f 57 c0	 xorps	 xmm0, xmm0
  00015	f3 0f 11 00	 movss	 DWORD PTR [eax], xmm0

; 181  :     y = fy;

  00019	8b 45 f8	 mov	 eax, DWORD PTR _this$[ebp]
  0001c	0f 57 c0	 xorps	 xmm0, xmm0
  0001f	f3 0f 11 40 04	 movss	 DWORD PTR [eax+4], xmm0

; 182  :     z = fz;

  00024	8b 45 f8	 mov	 eax, DWORD PTR _this$[ebp]
  00027	0f 57 c0	 xorps	 xmm0, xmm0
  0002a	f3 0f 11 40 08	 movss	 DWORD PTR [eax+8], xmm0
; File D:\Metin2 Server Files\mainline\SRC_2014\Metin2Client\UserInterface\AbstractApplication.h

; 28   : 								fZoom(0.0f) {}

  0002f	8b 45 fc	 mov	 eax, DWORD PTR _this$[ebp]
  00032	83 c0 0c	 add	 eax, 12			; 0000000cH
  00035	89 45 f4	 mov	 DWORD PTR _this$[ebp], eax

; 14   : 			SCameraPos() : m_fUpDir(0.0f), m_fViewDir(0.0f), m_fCrossDir(0.0f) {}

  00038	8b 45 f4	 mov	 eax, DWORD PTR _this$[ebp]
  0003b	0f 57 c0	 xorps	 xmm0, xmm0
  0003e	f3 0f 11 00	 movss	 DWORD PTR [eax], xmm0
  00042	8b 45 f4	 mov	 eax, DWORD PTR _this$[ebp]
  00045	0f 57 c0	 xorps	 xmm0, xmm0
  00048	f3 0f 11 40 04	 movss	 DWORD PTR [eax+4], xmm0
  0004d	8b 45 f4	 mov	 eax, DWORD PTR _this$[ebp]
  00050	0f 57 c0	 xorps	 xmm0, xmm0
  00053	f3 0f 11 40 08	 movss	 DWORD PTR [eax+8], xmm0

; 26   : 								fRotation(0.0f),

  00058	8b 45 fc	 mov	 eax, DWORD PTR _this$[ebp]
  0005b	0f 57 c0	 xorps	 xmm0, xmm0
  0005e	f3 0f 11 40 18	 movss	 DWORD PTR [eax+24], xmm0

; 27   : 								fPitch(0.0f),

  00063	8b 45 fc	 mov	 eax, DWORD PTR _this$[ebp]
  00066	0f 57 c0	 xorps	 xmm0, xmm0
  00069	f3 0f 11 40 1c	 movss	 DWORD PTR [eax+28], xmm0

; 28   : 								fZoom(0.0f) {}

  0006e	8b 45 fc	 mov	 eax, DWORD PTR _this$[ebp]
  00071	0f 57 c0	 xorps	 xmm0, xmm0
  00074	f3 0f 11 40 20	 movss	 DWORD PTR [eax+32], xmm0
  00079	8b 45 fc	 mov	 eax, DWORD PTR _this$[ebp]
  0007c	c9		 leave
  0007d	c3		 ret	 0
??0SCameraSetting@IAbstractApplication@@QAE@XZ ENDP	; IAbstractApplication::SCameraSetting::SCameraSetting
_TEXT	ENDS
; Function compile flags: /Odspy
; File C:\Program Files (x86)\Microsoft Visual Studio\2019\Community\VC\Tools\MSVC\14.28.29333\include\xmemory
;	COMDAT ??$_Deallocate@$07$0A@@std@@YAXPAXI@Z
_TEXT	SEGMENT
__$EHRec$ = -12						; size = 12
__Ptr$ = 8						; size = 4
__Bytes$ = 12						; size = 4
??$_Deallocate@$07$0A@@std@@YAXPAXI@Z PROC		; std::_Deallocate<8,0>, COMDAT

; 213  : void _Deallocate(void* _Ptr, size_t _Bytes) noexcept {

  00000	55		 push	 ebp
  00001	8b ec		 mov	 ebp, esp
  00003	6a ff		 push	 -1
  00005	68 00 00 00 00	 push	 __ehhandler$??$_Deallocate@$07$0A@@std@@YAXPAXI@Z
  0000a	64 a1 00 00 00
	00		 mov	 eax, DWORD PTR fs:0
  00010	50		 push	 eax
  00011	a1 00 00 00 00	 mov	 eax, DWORD PTR ___security_cookie
  00016	33 c5		 xor	 eax, ebp
  00018	50		 push	 eax
  00019	8d 45 f4	 lea	 eax, DWORD PTR __$EHRec$[ebp]
  0001c	64 a3 00 00 00
	00		 mov	 DWORD PTR fs:0, eax

; 214  :     // deallocate storage allocated by _Allocate when !_HAS_ALIGNED_NEW || _Align <= __STDCPP_DEFAULT_NEW_ALIGNMENT__
; 215  : #if defined(_M_IX86) || defined(_M_X64)
; 216  :     if (_Bytes >= _Big_allocation_threshold) { // boost the alignment of big allocations to help autovectorization

  00022	81 7d 0c 00 10
	00 00		 cmp	 DWORD PTR __Bytes$[ebp], 4096 ; 00001000H
  00029	72 0f		 jb	 SHORT $LN2@Deallocate

; 217  :         _Adjust_manually_vector_aligned(_Ptr, _Bytes);

  0002b	8d 45 0c	 lea	 eax, DWORD PTR __Bytes$[ebp]
  0002e	50		 push	 eax
  0002f	8d 45 08	 lea	 eax, DWORD PTR __Ptr$[ebp]
  00032	50		 push	 eax
  00033	e8 00 00 00 00	 call	 ?_Adjust_manually_vector_aligned@std@@YAXAAPAXAAI@Z ; std::_Adjust_manually_vector_aligned
  00038	59		 pop	 ecx
  00039	59		 pop	 ecx
$LN2@Deallocate:

; 218  :     }
; 219  : #endif // defined(_M_IX86) || defined(_M_X64)
; 220  : 
; 221  :     ::operator delete(_Ptr, _Bytes);

  0003a	ff 75 0c	 push	 DWORD PTR __Bytes$[ebp]
  0003d	ff 75 08	 push	 DWORD PTR __Ptr$[ebp]
  00040	e8 00 00 00 00	 call	 ??3@YAXPAXI@Z		; operator delete
  00045	59		 pop	 ecx
  00046	59		 pop	 ecx

; 222  : }

  00047	8b 4d f4	 mov	 ecx, DWORD PTR __$EHRec$[ebp]
  0004a	64 89 0d 00 00
	00 00		 mov	 DWORD PTR fs:0, ecx
  00051	59		 pop	 ecx
  00052	c9		 leave
  00053	c3		 ret	 0
  00054	cc		 int	 3
  00055	cc		 int	 3
  00056	cc		 int	 3
  00057	cc		 int	 3
  00058	cc		 int	 3
_TEXT	ENDS
;	COMDAT text$x
text$x	SEGMENT
__ehhandler$??$_Deallocate@$07$0A@@std@@YAXPAXI@Z:
  00000	90		 npad	 1
  00001	90		 npad	 1
  00002	8b 54 24 08	 mov	 edx, DWORD PTR [esp+8]
  00006	8d 42 0c	 lea	 eax, DWORD PTR [edx+12]
  00009	8b 4a fc	 mov	 ecx, DWORD PTR [edx-4]
  0000c	33 c8		 xor	 ecx, eax
  0000e	e8 00 00 00 00	 call	 @__security_check_cookie@4
  00013	b8 00 00 00 00	 mov	 eax, OFFSET __ehfuncinfo$??$_Deallocate@$07$0A@@std@@YAXPAXI@Z
  00018	e9 00 00 00 00	 jmp	 ___CxxFrameHandler3
text$x	ENDS
??$_Deallocate@$07$0A@@std@@YAXPAXI@Z ENDP		; std::_Deallocate<8,0>
; Function compile flags: /Odspy
; File C:\Program Files (x86)\Microsoft Visual Studio\2019\Community\VC\Tools\MSVC\14.28.29333\include\xmemory
;	COMDAT ??$_Destroy_in_place@PAD@std@@YAXAAPAD@Z
_TEXT	SEGMENT
__Obj$ = 8						; size = 4
??$_Destroy_in_place@PAD@std@@YAXAAPAD@Z PROC		; std::_Destroy_in_place<char *>, COMDAT

; 270  : /* _CONSTEXPR20_DYNALLOC */ void _Destroy_in_place(_Ty& _Obj) noexcept {

  00000	55		 push	 ebp
  00001	8b ec		 mov	 ebp, esp

; 271  : #if _HAS_IF_CONSTEXPR
; 272  :     if constexpr (is_array_v<_Ty>) {
; 273  :         _Destroy_range(_Obj, _Obj + extent_v<_Ty>);
; 274  :     } else
; 275  : #endif // _HAS_IF_CONSTEXPR
; 276  :     {
; 277  :         _Obj.~_Ty();
; 278  :     }
; 279  : }

  00003	5d		 pop	 ebp
  00004	c3		 ret	 0
??$_Destroy_in_place@PAD@std@@YAXAAPAD@Z ENDP		; std::_Destroy_in_place<char *>
_TEXT	ENDS
; Function compile flags: /Odspy
; File D:\Metin2 Server Files\mainline\SRC_2014\Metin2Client\UserInterface\PythonApplicationModule.cpp
;	COMDAT ?initapp@@YAXXZ
_TEXT	SEGMENT
_poModule$ = -4						; size = 4
?initapp@@YAXXZ PROC					; initapp, COMDAT

; 1196 : {

  00000	55		 push	 ebp
  00001	8b ec		 mov	 ebp, esp
  00003	51		 push	 ecx

; 1197 : 	static PyMethodDef s_methods[] =
; 1198 : 	{	
; 1199 : 		{ "IsDevStage",					appIsDevStage,					METH_VARARGS },
; 1200 : 		{ "IsTestStage",				appIsTestStage,					METH_VARARGS },
; 1201 : 		{ "IsLiveStage",				appIsLiveStage,					METH_VARARGS },
; 1202 : 
; 1203 : 		// TEXTTAIL_LIVINGTIME_CONTROL
; 1204 : 		{ "SetTextTailLivingTime",		appSetTextTailLivingTime,		METH_VARARGS },
; 1205 : 		// END_OF_TEXTTAIL_LIVINGTIME_CONTROL
; 1206 : 		
; 1207 : 		{ "EnablePerformanceTime",		appEnablePerformanceTime,		METH_VARARGS },
; 1208 : 		{ "SetHairColorEnable",			appSetHairColorEnable,			METH_VARARGS },
; 1209 : 		
; 1210 : 		{ "SetArmorSpecularEnable",		appSetArmorSpecularEnable,		METH_VARARGS },
; 1211 : 		{ "SetWeaponSpecularEnable",	appSetWeaponSpecularEnable,		METH_VARARGS },
; 1212 : 		{ "SetSkillEffectUpgradeEnable",appSetSkillEffectUpgradeEnable,	METH_VARARGS },
; 1213 : 		{ "SetTwoHandedWeaponAttSpeedDecreaseValue", SetTwoHandedWeaponAttSpeedDecreaseValue, METH_VARARGS },
; 1214 : 		{ "SetRideHorseEnable",			appSetRideHorseEnable,			METH_VARARGS },
; 1215 : 
; 1216 : 		{ "SetCameraMaxDistance",		appSetCameraMaxDistance,		METH_VARARGS },
; 1217 : 		{ "SetMinFog",					appSetMinFog,					METH_VARARGS },
; 1218 : 		{ "SetFrameSkip",				appSetFrameSkip,				METH_VARARGS },
; 1219 : 		{ "GetImageInfo",				appGetImageInfo,				METH_VARARGS },
; 1220 : 		{ "GetInfo",					appGetInfo,						METH_VARARGS },
; 1221 : 		{ "UpdateGame",					appUpdateGame,					METH_VARARGS },
; 1222 : 		{ "RenderGame",					appRenderGame,					METH_VARARGS },
; 1223 : 		{ "Loop",						appLoop,						METH_VARARGS },
; 1224 : 		{ "Create",						appCreate,						METH_VARARGS },
; 1225 : 		{ "Process",					appProcess,						METH_VARARGS },
; 1226 : 		{ "Exit",						appExit,						METH_VARARGS },
; 1227 : 		{ "Abort",						appAbort,						METH_VARARGS },
; 1228 : 		{ "SetMouseHandler",			appSetMouseHandler,				METH_VARARGS },		
; 1229 : 		{ "IsExistFile",				appIsExistFile,					METH_VARARGS },
; 1230 : 		{ "GetFileList",				appGetFileList,					METH_VARARGS },
; 1231 : 
; 1232 : 		{ "SetCamera",					appSetCamera,					METH_VARARGS },
; 1233 : 		{ "GetCamera",					appGetCamera,					METH_VARARGS },
; 1234 : 		{ "GetCameraPitch",				appGetCameraPitch,				METH_VARARGS },
; 1235 : 		{ "GetCameraRotation",			appGetCameraRotation,			METH_VARARGS },
; 1236 : 		{ "GetTime",					appGetTime,						METH_VARARGS },
; 1237 : 		{ "GetGlobalTime",				appGetGlobalTime,				METH_VARARGS },
; 1238 : 		{ "GetGlobalTimeStamp",			appGetGlobalTimeStamp,			METH_VARARGS },
; 1239 : 		{ "GetUpdateFPS",				appGetUpdateFPS,				METH_VARARGS },
; 1240 : 		{ "GetRenderFPS",				appGetRenderFPS,				METH_VARARGS },
; 1241 : 		{ "RotateCamera",				appRotateCamera,				METH_VARARGS },
; 1242 : 		{ "PitchCamera",				appPitchCamera,					METH_VARARGS },
; 1243 : 		{ "ZoomCamera",					appZoomCamera,					METH_VARARGS },
; 1244 : 		{ "MovieRotateCamera",			appMovieRotateCamera,			METH_VARARGS },
; 1245 : 		{ "MoviePitchCamera",			appMoviePitchCamera,			METH_VARARGS },
; 1246 : 		{ "MovieZoomCamera",			appMovieZoomCamera,				METH_VARARGS },
; 1247 : 		{ "MovieResetCamera",			appMovieResetCamera,			METH_VARARGS },
; 1248 : 
; 1249 : 		{ "GetAvailableTextureMemory",	appGetAvaiableTextureMememory,	METH_VARARGS },
; 1250 : 		{ "GetRenderTime",				appGetRenderTime,				METH_VARARGS },
; 1251 : 		{ "GetUpdateTime",				appGetUpdateTime,				METH_VARARGS },
; 1252 : 		{ "GetLoad",					appGetLoad,						METH_VARARGS },
; 1253 : 		{ "GetFaceSpeed",				appGetFaceSpeed,				METH_VARARGS },
; 1254 : 		{ "GetFaceCount",				appGetFaceCount,				METH_VARARGS },
; 1255 : 		{ "SetFPS",						appSetFPS,						METH_VARARGS },
; 1256 : 		{ "SetGlobalCenterPosition",	appSetGlobalCenterPosition,		METH_VARARGS },
; 1257 : 		{ "SetCenterPosition",			appSetCenterPosition,			METH_VARARGS },
; 1258 : 		{ "GetCursorPosition",			appGetCursorPosition,			METH_VARARGS },
; 1259 : 
; 1260 : 		{ "GetRandom",					appGetRandom,					METH_VARARGS },
; 1261 : 		{ "RunPythonFile",				appRunPythonFile,				METH_VARARGS },
; 1262 : 		{ "IsWebPageMode",				appIsWebPageMode,				METH_VARARGS },		
; 1263 : 		{ "ShowWebPage",				appShowWebPage,					METH_VARARGS },		
; 1264 : 		{ "MoveWebPage",				appMoveWebPage,					METH_VARARGS },		
; 1265 : 		{ "HideWebPage",				appHideWebPage,					METH_VARARGS },	
; 1266 : 		{ "IsPressed",					appIsPressed,					METH_VARARGS },
; 1267 : 		{ "SetCursor",					appSetCursor,					METH_VARARGS },
; 1268 : 		{ "GetCursor",					appGetCursor,					METH_VARARGS },
; 1269 : 		{ "ShowCursor",					appShowCursor,					METH_VARARGS },
; 1270 : 		{ "HideCursor",					appHideCursor,					METH_VARARGS },
; 1271 : 		{ "IsShowCursor",				appIsShowCursor,				METH_VARARGS },
; 1272 : 		{ "IsLiarCursorOn",				appIsLiarCursorOn,				METH_VARARGS },
; 1273 : 		{ "SetSoftwareCursor",			appSetSoftwareCursor,			METH_VARARGS },
; 1274 : 		{ "SetHardwareCursor",			appSetHardwareCursor,			METH_VARARGS },
; 1275 : 
; 1276 : 		{ "SetConnectData",				appSetConnectData,				METH_VARARGS },
; 1277 : 		{ "GetConnectData",				appGetConnectData,				METH_VARARGS },
; 1278 : 
; 1279 : 		{ "GetRotatingDirection",		appGetRotatingDirection,		METH_VARARGS },
; 1280 : 		{ "GetDegreeDifference",		appGetDegreeDifference,			METH_VARARGS },
; 1281 : 		{ "Sleep",						appSleep,						METH_VARARGS },
; 1282 : 		{ "SetDefaultFontName",			appSetDefaultFontName,			METH_VARARGS },
; 1283 : 		{ "SetGuildSymbolPath",			appSetGuildSymbolPath,			METH_VARARGS },
; 1284 : 
; 1285 : 		{ "EnableSpecialCameraMode",	appEnableSpecialCameraMode,		METH_VARARGS },
; 1286 : 		{ "SetCameraSpeed",				appSetCameraSpeed,				METH_VARARGS },
; 1287 : 
; 1288 : 		{ "SaveCameraSetting",			appSaveCameraSetting,			METH_VARARGS },
; 1289 : 		{ "LoadCameraSetting",			appLoadCameraSetting,			METH_VARARGS },
; 1290 : 		{ "SetDefaultCamera",			appSetDefaultCamera,			METH_VARARGS },
; 1291 : 		{ "SetCameraSetting",			appSetCameraSetting,			METH_VARARGS },
; 1292 : 
; 1293 : 		{ "SetSightRange",				appSetSightRange,				METH_VARARGS },
; 1294 : 
; 1295 : 		{ "IsFileExist",				appIsFileExist,					METH_VARARGS },
; 1296 : 		{ "OpenTextFile",				appOpenTextFile,				METH_VARARGS },
; 1297 : 		{ "CloseTextFile",				appCloseTextFile,				METH_VARARGS },
; 1298 : 		{ "GetTextFileLineCount",		appGetTextFileLineCount,		METH_VARARGS },
; 1299 : 		{ "GetTextFileLine",			appGetTextFileLine,				METH_VARARGS },
; 1300 : 
; 1301 : 		// LOCALE
; 1302 : 		{ "GetLocaleServiceName",		appGetLocaleServiceName,		METH_VARARGS },
; 1303 : 		{ "GetLocaleName",				appGetLocaleName,				METH_VARARGS },
; 1304 : 		{ "GetLocalePath",				appGetLocalePath,				METH_VARARGS },
; 1305 : 		{ "ForceSetLocale",				appForceSetLocale,				METH_VARARGS },
; 1306 : 		// END_OF_LOCALE
; 1307 : 
; 1308 : 		// CHEONMA
; 1309 : 		{ "LoadLocaleAddr",				appLoadLocaleAddr,				METH_VARARGS },
; 1310 : 		{ "LoadLocaleData",				appLoadLocaleData,				METH_VARARGS },
; 1311 : 		{ "SetCHEONMA",					appSetCHEONMA,					METH_VARARGS },
; 1312 : 		{ "IsCHEONMA",					appIsCHEONMA,					METH_VARARGS },
; 1313 : 		// END_OF_CHEONMA
; 1314 : 		
; 1315 : 		{ "GetDefaultCodePage",			appGetDefaultCodePage,			METH_VARARGS },
; 1316 : 		{ "SetControlFP",				appSetControlFP,				METH_VARARGS },
; 1317 : 		{ "SetSpecularSpeed",			appSetSpecularSpeed,			METH_VARARGS },
; 1318 : 
; 1319 : 		{ "testGetAccumulationTime",	apptestGetAccumulationTime,		METH_VARARGS },
; 1320 : 		{ "testResetAccumulationTime",	apptestResetAccumulationTime,	METH_VARARGS },
; 1321 : 		{ "testSetSpecularColor",		apptestSetSpecularColor,		METH_VARARGS },
; 1322 : 
; 1323 : 		{ "SetVisibleNotice",			appSetVisibleNotice,			METH_VARARGS },
; 1324 : 		{ "IsVisibleNotice",			appIsVisibleNotice,				METH_VARARGS },
; 1325 : 		{ "EnableTestServerFlag",		appEnableTestServerFlag,		METH_VARARGS },
; 1326 : 		{ "IsEnableTestServerFlag",		appIsEnableTestServerFlag,		METH_VARARGS },
; 1327 : 
; 1328 : 		{ "SetGuildMarkPath",			appSetGuildMarkPath,			METH_VARARGS },
; 1329 : 
; 1330 : 		{ "OnLogoUpdate",				appLogoUpdate,					METH_VARARGS },
; 1331 : 		{ "OnLogoRender",				appLogoRender,					METH_VARARGS },
; 1332 : 		{ "OnLogoOpen",					appLogoOpen,					METH_VARARGS },
; 1333 : 		{ "OnLogoClose",				appLogoClose,					METH_VARARGS },
; 1334 : 	
; 1335 : 
; 1336 : 		{ NULL, NULL },
; 1337 : 	};
; 1338 : 
; 1339 : 	PyObject * poModule = Py_InitModule("app", s_methods);

  00004	68 f5 03 00 00	 push	 1013			; 000003f5H
  00009	6a 00		 push	 0
  0000b	6a 00		 push	 0
  0000d	68 00 00 00 00	 push	 OFFSET ?s_methods@?1??initapp@@YAXXZ@4PAUPyMethodDef@@A
  00012	68 00 00 00 00	 push	 OFFSET ??_C@_03CGOPKBCD@app@
  00017	ff 15 00 00 00
	00		 call	 DWORD PTR __imp__Py_InitModule4
  0001d	83 c4 14	 add	 esp, 20			; 00000014H
  00020	89 45 fc	 mov	 DWORD PTR _poModule$[ebp], eax

; 1340 : 
; 1341 : 	PyModule_AddIntConstant(poModule, "INFO_ITEM",		CPythonApplication::INFO_ITEM);

  00023	6a 02		 push	 2
  00025	68 00 00 00 00	 push	 OFFSET ??_C@_09OKOJMLAA@INFO_ITEM@
  0002a	ff 75 fc	 push	 DWORD PTR _poModule$[ebp]
  0002d	ff 15 00 00 00
	00		 call	 DWORD PTR __imp__PyModule_AddIntConstant
  00033	83 c4 0c	 add	 esp, 12			; 0000000cH

; 1342 : 	PyModule_AddIntConstant(poModule, "INFO_ACTOR",		CPythonApplication::INFO_ACTOR);

  00036	6a 00		 push	 0
  00038	68 00 00 00 00	 push	 OFFSET ??_C@_0L@FNNFPLHG@INFO_ACTOR@
  0003d	ff 75 fc	 push	 DWORD PTR _poModule$[ebp]
  00040	ff 15 00 00 00
	00		 call	 DWORD PTR __imp__PyModule_AddIntConstant
  00046	83 c4 0c	 add	 esp, 12			; 0000000cH

; 1343 : 	PyModule_AddIntConstant(poModule, "INFO_EFFECT",	CPythonApplication::INFO_EFFECT);

  00049	6a 01		 push	 1
  0004b	68 00 00 00 00	 push	 OFFSET ??_C@_0M@KLBHMBMD@INFO_EFFECT@
  00050	ff 75 fc	 push	 DWORD PTR _poModule$[ebp]
  00053	ff 15 00 00 00
	00		 call	 DWORD PTR __imp__PyModule_AddIntConstant
  00059	83 c4 0c	 add	 esp, 12			; 0000000cH

; 1344 : 	PyModule_AddIntConstant(poModule, "INFO_TEXTTAIL",	CPythonApplication::INFO_TEXTTAIL);

  0005c	6a 03		 push	 3
  0005e	68 00 00 00 00	 push	 OFFSET ??_C@_0O@FAGLOALJ@INFO_TEXTTAIL@
  00063	ff 75 fc	 push	 DWORD PTR _poModule$[ebp]
  00066	ff 15 00 00 00
	00		 call	 DWORD PTR __imp__PyModule_AddIntConstant
  0006c	83 c4 0c	 add	 esp, 12			; 0000000cH

; 1345 : 
; 1346 : 	PyModule_AddIntConstant(poModule, "DEGREE_DIRECTION_SAME",		DEGREE_DIRECTION_SAME);

  0006f	6a 00		 push	 0
  00071	68 00 00 00 00	 push	 OFFSET ??_C@_0BG@KEIJCHNJ@DEGREE_DIRECTION_SAME@
  00076	ff 75 fc	 push	 DWORD PTR _poModule$[ebp]
  00079	ff 15 00 00 00
	00		 call	 DWORD PTR __imp__PyModule_AddIntConstant
  0007f	83 c4 0c	 add	 esp, 12			; 0000000cH

; 1347 : 	PyModule_AddIntConstant(poModule, "DEGREE_DIRECTION_RIGHT",		DEGREE_DIRECTION_RIGHT);

  00082	6a 01		 push	 1
  00084	68 00 00 00 00	 push	 OFFSET ??_C@_0BH@LNDFJAFE@DEGREE_DIRECTION_RIGHT@
  00089	ff 75 fc	 push	 DWORD PTR _poModule$[ebp]
  0008c	ff 15 00 00 00
	00		 call	 DWORD PTR __imp__PyModule_AddIntConstant
  00092	83 c4 0c	 add	 esp, 12			; 0000000cH

; 1348 : 	PyModule_AddIntConstant(poModule, "DEGREE_DIRECTION_LEFT",		DEGREE_DIRECTION_LEFT);

  00095	6a 02		 push	 2
  00097	68 00 00 00 00	 push	 OFFSET ??_C@_0BG@JGNHHMCM@DEGREE_DIRECTION_LEFT@
  0009c	ff 75 fc	 push	 DWORD PTR _poModule$[ebp]
  0009f	ff 15 00 00 00
	00		 call	 DWORD PTR __imp__PyModule_AddIntConstant
  000a5	83 c4 0c	 add	 esp, 12			; 0000000cH

; 1349 : 
; 1350 : 	PyModule_AddIntConstant(poModule, "VK_LEFT",	     VK_LEFT);

  000a8	6a 25		 push	 37			; 00000025H
  000aa	68 00 00 00 00	 push	 OFFSET ??_C@_07CJEJDFBD@VK_LEFT@
  000af	ff 75 fc	 push	 DWORD PTR _poModule$[ebp]
  000b2	ff 15 00 00 00
	00		 call	 DWORD PTR __imp__PyModule_AddIntConstant
  000b8	83 c4 0c	 add	 esp, 12			; 0000000cH

; 1351 : 	PyModule_AddIntConstant(poModule, "VK_RIGHT",	     VK_RIGHT);

  000bb	6a 27		 push	 39			; 00000027H
  000bd	68 00 00 00 00	 push	 OFFSET ??_C@_08LOMCDCA@VK_RIGHT@
  000c2	ff 75 fc	 push	 DWORD PTR _poModule$[ebp]
  000c5	ff 15 00 00 00
	00		 call	 DWORD PTR __imp__PyModule_AddIntConstant
  000cb	83 c4 0c	 add	 esp, 12			; 0000000cH

; 1352 : 	PyModule_AddIntConstant(poModule, "VK_UP",		     VK_UP);

  000ce	6a 26		 push	 38			; 00000026H
  000d0	68 00 00 00 00	 push	 OFFSET ??_C@_05PIGLHCBF@VK_UP@
  000d5	ff 75 fc	 push	 DWORD PTR _poModule$[ebp]
  000d8	ff 15 00 00 00
	00		 call	 DWORD PTR __imp__PyModule_AddIntConstant
  000de	83 c4 0c	 add	 esp, 12			; 0000000cH

; 1353 : 	PyModule_AddIntConstant(poModule, "VK_DOWN",	     VK_DOWN);

  000e1	6a 28		 push	 40			; 00000028H
  000e3	68 00 00 00 00	 push	 OFFSET ??_C@_07NLENKNCK@VK_DOWN@
  000e8	ff 75 fc	 push	 DWORD PTR _poModule$[ebp]
  000eb	ff 15 00 00 00
	00		 call	 DWORD PTR __imp__PyModule_AddIntConstant
  000f1	83 c4 0c	 add	 esp, 12			; 0000000cH

; 1354 : 	PyModule_AddIntConstant(poModule, "VK_HOME",	     VK_HOME);

  000f4	6a 24		 push	 36			; 00000024H
  000f6	68 00 00 00 00	 push	 OFFSET ??_C@_07OMPILPEG@VK_HOME@
  000fb	ff 75 fc	 push	 DWORD PTR _poModule$[ebp]
  000fe	ff 15 00 00 00
	00		 call	 DWORD PTR __imp__PyModule_AddIntConstant
  00104	83 c4 0c	 add	 esp, 12			; 0000000cH

; 1355 : 	PyModule_AddIntConstant(poModule, "VK_END",          VK_END);

  00107	6a 23		 push	 35			; 00000023H
  00109	68 00 00 00 00	 push	 OFFSET ??_C@_06LPJBNMHN@VK_END@
  0010e	ff 75 fc	 push	 DWORD PTR _poModule$[ebp]
  00111	ff 15 00 00 00
	00		 call	 DWORD PTR __imp__PyModule_AddIntConstant
  00117	83 c4 0c	 add	 esp, 12			; 0000000cH

; 1356 : 	PyModule_AddIntConstant(poModule, "VK_DELETE",	     VK_DELETE);

  0011a	6a 2e		 push	 46			; 0000002eH
  0011c	68 00 00 00 00	 push	 OFFSET ??_C@_09EABNPHOI@VK_DELETE@
  00121	ff 75 fc	 push	 DWORD PTR _poModule$[ebp]
  00124	ff 15 00 00 00
	00		 call	 DWORD PTR __imp__PyModule_AddIntConstant
  0012a	83 c4 0c	 add	 esp, 12			; 0000000cH

; 1357 : 
; 1358 : 	PyModule_AddIntConstant(poModule, "DIK_ESCAPE",      DIK_ESCAPE);

  0012d	6a 01		 push	 1
  0012f	68 00 00 00 00	 push	 OFFSET ??_C@_0L@BOHNMBC@DIK_ESCAPE@
  00134	ff 75 fc	 push	 DWORD PTR _poModule$[ebp]
  00137	ff 15 00 00 00
	00		 call	 DWORD PTR __imp__PyModule_AddIntConstant
  0013d	83 c4 0c	 add	 esp, 12			; 0000000cH

; 1359 : 	PyModule_AddIntConstant(poModule, "DIK_ESC",         DIK_ESCAPE);	//  

  00140	6a 01		 push	 1
  00142	68 00 00 00 00	 push	 OFFSET ??_C@_07CACBFKLO@DIK_ESC@
  00147	ff 75 fc	 push	 DWORD PTR _poModule$[ebp]
  0014a	ff 15 00 00 00
	00		 call	 DWORD PTR __imp__PyModule_AddIntConstant
  00150	83 c4 0c	 add	 esp, 12			; 0000000cH

; 1360 : 	PyModule_AddIntConstant(poModule, "DIK_1",           DIK_1);

  00153	6a 02		 push	 2
  00155	68 00 00 00 00	 push	 OFFSET ??_C@_05GCLPJNBN@DIK_1@
  0015a	ff 75 fc	 push	 DWORD PTR _poModule$[ebp]
  0015d	ff 15 00 00 00
	00		 call	 DWORD PTR __imp__PyModule_AddIntConstant
  00163	83 c4 0c	 add	 esp, 12			; 0000000cH

; 1361 : 	PyModule_AddIntConstant(poModule, "DIK_2",           DIK_2);

  00166	6a 03		 push	 3
  00168	68 00 00 00 00	 push	 OFFSET ??_C@_05EJJCMONO@DIK_2@
  0016d	ff 75 fc	 push	 DWORD PTR _poModule$[ebp]
  00170	ff 15 00 00 00
	00		 call	 DWORD PTR __imp__PyModule_AddIntConstant
  00176	83 c4 0c	 add	 esp, 12			; 0000000cH

; 1362 : 	PyModule_AddIntConstant(poModule, "DIK_3",           DIK_3);

  00179	6a 04		 push	 4
  0017b	68 00 00 00 00	 push	 OFFSET ??_C@_05FAIJPPJP@DIK_3@
  00180	ff 75 fc	 push	 DWORD PTR _poModule$[ebp]
  00183	ff 15 00 00 00
	00		 call	 DWORD PTR __imp__PyModule_AddIntConstant
  00189	83 c4 0c	 add	 esp, 12			; 0000000cH

; 1363 : 	PyModule_AddIntConstant(poModule, "DIK_4",           DIK_4);

  0018c	6a 05		 push	 5
  0018e	68 00 00 00 00	 push	 OFFSET ??_C@_05BPMIGJFI@DIK_4@
  00193	ff 75 fc	 push	 DWORD PTR _poModule$[ebp]
  00196	ff 15 00 00 00
	00		 call	 DWORD PTR __imp__PyModule_AddIntConstant
  0019c	83 c4 0c	 add	 esp, 12			; 0000000cH

; 1364 : 	PyModule_AddIntConstant(poModule, "DIK_5",           DIK_5);

  0019f	6a 06		 push	 6
  001a1	68 00 00 00 00	 push	 OFFSET ??_C@_05GNDFIBJ@DIK_5@
  001a6	ff 75 fc	 push	 DWORD PTR _poModule$[ebp]
  001a9	ff 15 00 00 00
	00		 call	 DWORD PTR __imp__PyModule_AddIntConstant
  001af	83 c4 0c	 add	 esp, 12			; 0000000cH

; 1365 : 	PyModule_AddIntConstant(poModule, "DIK_6",           DIK_6);

  001b2	6a 07		 push	 7
  001b4	68 00 00 00 00	 push	 OFFSET ??_C@_05CNPOALNK@DIK_6@
  001b9	ff 75 fc	 push	 DWORD PTR _poModule$[ebp]
  001bc	ff 15 00 00 00
	00		 call	 DWORD PTR __imp__PyModule_AddIntConstant
  001c2	83 c4 0c	 add	 esp, 12			; 0000000cH

; 1366 : 	PyModule_AddIntConstant(poModule, "DIK_7",           DIK_7);

  001c5	6a 08		 push	 8
  001c7	68 00 00 00 00	 push	 OFFSET ??_C@_05DEOFDKJL@DIK_7@
  001cc	ff 75 fc	 push	 DWORD PTR _poModule$[ebp]
  001cf	ff 15 00 00 00
	00		 call	 DWORD PTR __imp__PyModule_AddIntConstant
  001d5	83 c4 0c	 add	 esp, 12			; 0000000cH

; 1367 : 	PyModule_AddIntConstant(poModule, "DIK_8",           DIK_8);

  001d8	6a 09		 push	 9
  001da	68 00 00 00 00	 push	 OFFSET ??_C@_05LDHNCGFE@DIK_8@
  001df	ff 75 fc	 push	 DWORD PTR _poModule$[ebp]
  001e2	ff 15 00 00 00
	00		 call	 DWORD PTR __imp__PyModule_AddIntConstant
  001e8	83 c4 0c	 add	 esp, 12			; 0000000cH

; 1368 : 	PyModule_AddIntConstant(poModule, "DIK_9",           DIK_9);

  001eb	6a 0a		 push	 10			; 0000000aH
  001ed	68 00 00 00 00	 push	 OFFSET ??_C@_05KKGGBHBF@DIK_9@
  001f2	ff 75 fc	 push	 DWORD PTR _poModule$[ebp]
  001f5	ff 15 00 00 00
	00		 call	 DWORD PTR __imp__PyModule_AddIntConstant
  001fb	83 c4 0c	 add	 esp, 12			; 0000000cH

; 1369 : 	PyModule_AddIntConstant(poModule, "DIK_0",           DIK_0);

  001fe	6a 0b		 push	 11			; 0000000bH
  00200	68 00 00 00 00	 push	 OFFSET ??_C@_05HLKEKMFM@DIK_0@
  00205	ff 75 fc	 push	 DWORD PTR _poModule$[ebp]
  00208	ff 15 00 00 00
	00		 call	 DWORD PTR __imp__PyModule_AddIntConstant
  0020e	83 c4 0c	 add	 esp, 12			; 0000000cH

; 1370 : 	PyModule_AddIntConstant(poModule, "DIK_MINUS",       DIK_MINUS);        /* - on main keyboard */

  00211	6a 0c		 push	 12			; 0000000cH
  00213	68 00 00 00 00	 push	 OFFSET ??_C@_09DOHACMKC@DIK_MINUS@
  00218	ff 75 fc	 push	 DWORD PTR _poModule$[ebp]
  0021b	ff 15 00 00 00
	00		 call	 DWORD PTR __imp__PyModule_AddIntConstant
  00221	83 c4 0c	 add	 esp, 12			; 0000000cH

; 1371 : 	PyModule_AddIntConstant(poModule, "DIK_EQUALS",      DIK_EQUALS);         

  00224	6a 0d		 push	 13			; 0000000dH
  00226	68 00 00 00 00	 push	 OFFSET ??_C@_0L@KKCLPAPI@DIK_EQUALS@
  0022b	ff 75 fc	 push	 DWORD PTR _poModule$[ebp]
  0022e	ff 15 00 00 00
	00		 call	 DWORD PTR __imp__PyModule_AddIntConstant
  00234	83 c4 0c	 add	 esp, 12			; 0000000cH

; 1372 : 	PyModule_AddIntConstant(poModule, "DIK_BACK",        DIK_BACK);           /* backspace */

  00237	6a 0e		 push	 14			; 0000000eH
  00239	68 00 00 00 00	 push	 OFFSET ??_C@_08HHEEGKBL@DIK_BACK@
  0023e	ff 75 fc	 push	 DWORD PTR _poModule$[ebp]
  00241	ff 15 00 00 00
	00		 call	 DWORD PTR __imp__PyModule_AddIntConstant
  00247	83 c4 0c	 add	 esp, 12			; 0000000cH

; 1373 : 	PyModule_AddIntConstant(poModule, "DIK_TAB",         DIK_TAB);            

  0024a	6a 0f		 push	 15			; 0000000fH
  0024c	68 00 00 00 00	 push	 OFFSET ??_C@_07MODNCMBL@DIK_TAB@
  00251	ff 75 fc	 push	 DWORD PTR _poModule$[ebp]
  00254	ff 15 00 00 00
	00		 call	 DWORD PTR __imp__PyModule_AddIntConstant
  0025a	83 c4 0c	 add	 esp, 12			; 0000000cH

; 1374 : 	PyModule_AddIntConstant(poModule, "DIK_Q",           DIK_Q);

  0025d	6a 10		 push	 16			; 00000010H
  0025f	68 00 00 00 00	 push	 OFFSET ??_C@_05HECPGLK@DIK_Q@
  00264	ff 75 fc	 push	 DWORD PTR _poModule$[ebp]
  00267	ff 15 00 00 00
	00		 call	 DWORD PTR __imp__PyModule_AddIntConstant
  0026d	83 c4 0c	 add	 esp, 12			; 0000000cH

; 1375 : 	PyModule_AddIntConstant(poModule, "DIK_W",           DIK_W);

  00270	6a 11		 push	 17			; 00000011H
  00272	68 00 00 00 00	 push	 OFFSET ??_C@_05FBBIFBDM@DIK_W@
  00277	ff 75 fc	 push	 DWORD PTR _poModule$[ebp]
  0027a	ff 15 00 00 00
	00		 call	 DWORD PTR __imp__PyModule_AddIntConstant
  00280	83 c4 0c	 add	 esp, 12			; 0000000cH

; 1376 : 	PyModule_AddIntConstant(poModule, "DIK_E",           DIK_E);

  00283	6a 12		 push	 18			; 00000012H
  00285	68 00 00 00 00	 push	 OFFSET ??_C@_05CJOMCBOP@DIK_E@
  0028a	ff 75 fc	 push	 DWORD PTR _poModule$[ebp]
  0028d	ff 15 00 00 00
	00		 call	 DWORD PTR __imp__PyModule_AddIntConstant
  00293	83 c4 0c	 add	 esp, 12			; 0000000cH

; 1377 : 	PyModule_AddIntConstant(poModule, "DIK_R",           DIK_R);

  00296	6a 13		 push	 19			; 00000013H
  00298	68 00 00 00 00	 push	 OFFSET ??_C@_05CMGPKFHJ@DIK_R@
  0029d	ff 75 fc	 push	 DWORD PTR _poModule$[ebp]
  002a0	ff 15 00 00 00
	00		 call	 DWORD PTR __imp__PyModule_AddIntConstant
  002a6	83 c4 0c	 add	 esp, 12			; 0000000cH

; 1378 : 	PyModule_AddIntConstant(poModule, "DIK_T",           DIK_T);

  002a9	6a 14		 push	 20			; 00000014H
  002ab	68 00 00 00 00	 push	 OFFSET ??_C@_05HKDFACPP@DIK_T@
  002b0	ff 75 fc	 push	 DWORD PTR _poModule$[ebp]
  002b3	ff 15 00 00 00
	00		 call	 DWORD PTR __imp__PyModule_AddIntConstant
  002b9	83 c4 0c	 add	 esp, 12			; 0000000cH

; 1379 : 	PyModule_AddIntConstant(poModule, "DIK_Y",           DIK_Y);

  002bc	6a 15		 push	 21			; 00000015H
  002be	68 00 00 00 00	 push	 OFFSET ??_C@_05MPJLHMLC@DIK_Y@
  002c3	ff 75 fc	 push	 DWORD PTR _poModule$[ebp]
  002c6	ff 15 00 00 00
	00		 call	 DWORD PTR __imp__PyModule_AddIntConstant
  002cc	83 c4 0c	 add	 esp, 12			; 0000000cH

; 1380 : 	PyModule_AddIntConstant(poModule, "DIK_U",           DIK_U);

  002cf	6a 16		 push	 22			; 00000016H
  002d1	68 00 00 00 00	 push	 OFFSET ??_C@_05GDCODDLO@DIK_U@
  002d6	ff 75 fc	 push	 DWORD PTR _poModule$[ebp]
  002d9	ff 15 00 00 00
	00		 call	 DWORD PTR __imp__PyModule_AddIntConstant
  002df	83 c4 0c	 add	 esp, 12			; 0000000cH

; 1381 : 	PyModule_AddIntConstant(poModule, "DIK_I",           DIK_I);

  002e2	6a 17		 push	 23			; 00000017H
  002e4	68 00 00 00 00	 push	 OFFSET ??_C@_05IFFJGOOD@DIK_I@
  002e9	ff 75 fc	 push	 DWORD PTR _poModule$[ebp]
  002ec	ff 15 00 00 00
	00		 call	 DWORD PTR __imp__PyModule_AddIntConstant
  002f2	83 c4 0c	 add	 esp, 12			; 0000000cH

; 1382 : 	PyModule_AddIntConstant(poModule, "DIK_O",           DIK_O);

  002f5	6a 18		 push	 24			; 00000018H
  002f7	68 00 00 00 00	 push	 OFFSET ??_C@_05NDADMJGF@DIK_O@
  002fc	ff 75 fc	 push	 DWORD PTR _poModule$[ebp]
  002ff	ff 15 00 00 00
	00		 call	 DWORD PTR __imp__PyModule_AddIntConstant
  00305	83 c4 0c	 add	 esp, 12			; 0000000cH

; 1383 : 	PyModule_AddIntConstant(poModule, "DIK_P",           DIK_P);

  00308	6a 19		 push	 25			; 00000019H
  0030a	68 00 00 00 00	 push	 OFFSET ??_C@_05BOFJMHPL@DIK_P@
  0030f	ff 75 fc	 push	 DWORD PTR _poModule$[ebp]
  00312	ff 15 00 00 00
	00		 call	 DWORD PTR __imp__PyModule_AddIntConstant
  00318	83 c4 0c	 add	 esp, 12			; 0000000cH

; 1384 : 	PyModule_AddIntConstant(poModule, "DIK_LBRACKET",    DIK_LBRACKET);       

  0031b	6a 1a		 push	 26			; 0000001aH
  0031d	68 00 00 00 00	 push	 OFFSET ??_C@_0N@EFJDLCEF@DIK_LBRACKET@
  00322	ff 75 fc	 push	 DWORD PTR _poModule$[ebp]
  00325	ff 15 00 00 00
	00		 call	 DWORD PTR __imp__PyModule_AddIntConstant
  0032b	83 c4 0c	 add	 esp, 12			; 0000000cH

; 1385 : 	PyModule_AddIntConstant(poModule, "DIK_RBRACKET",    DIK_RBRACKET);       

  0032e	6a 1b		 push	 27			; 0000001bH
  00330	68 00 00 00 00	 push	 OFFSET ??_C@_0N@CBJBCLKG@DIK_RBRACKET@
  00335	ff 75 fc	 push	 DWORD PTR _poModule$[ebp]
  00338	ff 15 00 00 00
	00		 call	 DWORD PTR __imp__PyModule_AddIntConstant
  0033e	83 c4 0c	 add	 esp, 12			; 0000000cH

; 1386 : 	PyModule_AddIntConstant(poModule, "DIK_RETURN",      DIK_RETURN);         /* Enter on main keyboard */

  00341	6a 1c		 push	 28			; 0000001cH
  00343	68 00 00 00 00	 push	 OFFSET ??_C@_0L@JLNKBJCL@DIK_RETURN@
  00348	ff 75 fc	 push	 DWORD PTR _poModule$[ebp]
  0034b	ff 15 00 00 00
	00		 call	 DWORD PTR __imp__PyModule_AddIntConstant
  00351	83 c4 0c	 add	 esp, 12			; 0000000cH

; 1387 : 	PyModule_AddIntConstant(poModule, "DIK_LCONTROL",    DIK_LCONTROL);       

  00354	6a 1d		 push	 29			; 0000001dH
  00356	68 00 00 00 00	 push	 OFFSET ??_C@_0N@ODLLDAI@DIK_LCONTROL@
  0035b	ff 75 fc	 push	 DWORD PTR _poModule$[ebp]
  0035e	ff 15 00 00 00
	00		 call	 DWORD PTR __imp__PyModule_AddIntConstant
  00364	83 c4 0c	 add	 esp, 12			; 0000000cH

; 1388 : 	PyModule_AddIntConstant(poModule, "DIK_A",           DIK_A);

  00367	6a 1e		 push	 30			; 0000001eH
  00369	68 00 00 00 00	 push	 OFFSET ??_C@_05ENIAOEOL@DIK_A@
  0036e	ff 75 fc	 push	 DWORD PTR _poModule$[ebp]
  00371	ff 15 00 00 00
	00		 call	 DWORD PTR __imp__PyModule_AddIntConstant
  00377	83 c4 0c	 add	 esp, 12			; 0000000cH

; 1389 : 	PyModule_AddIntConstant(poModule, "DIK_S",           DIK_S);

  0037a	6a 1f		 push	 31			; 0000001fH
  0037c	68 00 00 00 00	 push	 OFFSET ??_C@_05DFHEJEDI@DIK_S@
  00381	ff 75 fc	 push	 DWORD PTR _poModule$[ebp]
  00384	ff 15 00 00 00
	00		 call	 DWORD PTR __imp__PyModule_AddIntConstant
  0038a	83 c4 0c	 add	 esp, 12			; 0000000cH

; 1390 : 	PyModule_AddIntConstant(poModule, "DIK_D",           DIK_D);

  0038d	6a 20		 push	 32			; 00000020H
  0038f	68 00 00 00 00	 push	 OFFSET ??_C@_05DAPHBAKO@DIK_D@
  00394	ff 75 fc	 push	 DWORD PTR _poModule$[ebp]
  00397	ff 15 00 00 00
	00		 call	 DWORD PTR __imp__PyModule_AddIntConstant
  0039d	83 c4 0c	 add	 esp, 12			; 0000000cH

; 1391 : 	PyModule_AddIntConstant(poModule, "DIK_F",           DIK_F);

  003a0	6a 21		 push	 33			; 00000021H
  003a2	68 00 00 00 00	 push	 OFFSET ??_C@_05CMBHCCM@DIK_F@
  003a7	ff 75 fc	 push	 DWORD PTR _poModule$[ebp]
  003aa	ff 15 00 00 00
	00		 call	 DWORD PTR __imp__PyModule_AddIntConstant
  003b0	83 c4 0c	 add	 esp, 12			; 0000000cH

; 1392 : 	PyModule_AddIntConstant(poModule, "DIK_G",           DIK_G);

  003b3	6a 22		 push	 34			; 00000022H
  003b5	68 00 00 00 00	 push	 OFFSET ??_C@_05BLNKEDGN@DIK_G@
  003ba	ff 75 fc	 push	 DWORD PTR _poModule$[ebp]
  003bd	ff 15 00 00 00
	00		 call	 DWORD PTR __imp__PyModule_AddIntConstant
  003c3	83 c4 0c	 add	 esp, 12			; 0000000cH

; 1393 : 	PyModule_AddIntConstant(poModule, "DIK_H",           DIK_H);

  003c6	6a 23		 push	 35			; 00000023H
  003c8	68 00 00 00 00	 push	 OFFSET ??_C@_05JMECFPKC@DIK_H@
  003cd	ff 75 fc	 push	 DWORD PTR _poModule$[ebp]
  003d0	ff 15 00 00 00
	00		 call	 DWORD PTR __imp__PyModule_AddIntConstant
  003d6	83 c4 0c	 add	 esp, 12			; 0000000cH

; 1394 : 	PyModule_AddIntConstant(poModule, "DIK_J",           DIK_J);

  003d9	6a 24		 push	 36			; 00000024H
  003db	68 00 00 00 00	 push	 OFFSET ??_C@_05KOHEDNCA@DIK_J@
  003e0	ff 75 fc	 push	 DWORD PTR _poModule$[ebp]
  003e3	ff 15 00 00 00
	00		 call	 DWORD PTR __imp__PyModule_AddIntConstant
  003e9	83 c4 0c	 add	 esp, 12			; 0000000cH

; 1395 : 	PyModule_AddIntConstant(poModule, "DIK_K",           DIK_K);

  003ec	6a 25		 push	 37			; 00000025H
  003ee	68 00 00 00 00	 push	 OFFSET ??_C@_05LHGPAMGB@DIK_K@
  003f3	ff 75 fc	 push	 DWORD PTR _poModule$[ebp]
  003f6	ff 15 00 00 00
	00		 call	 DWORD PTR __imp__PyModule_AddIntConstant
  003fc	83 c4 0c	 add	 esp, 12			; 0000000cH

; 1396 : 	PyModule_AddIntConstant(poModule, "DIK_L",           DIK_L);

  003ff	6a 26		 push	 38			; 00000026H
  00401	68 00 00 00 00	 push	 OFFSET ??_C@_05PICOJKKG@DIK_L@
  00406	ff 75 fc	 push	 DWORD PTR _poModule$[ebp]
  00409	ff 15 00 00 00
	00		 call	 DWORD PTR __imp__PyModule_AddIntConstant
  0040f	83 c4 0c	 add	 esp, 12			; 0000000cH

; 1397 : 	PyModule_AddIntConstant(poModule, "DIK_SEMICOLON",   DIK_SEMICOLON);      

  00412	6a 27		 push	 39			; 00000027H
  00414	68 00 00 00 00	 push	 OFFSET ??_C@_0O@NEECDLLB@DIK_SEMICOLON@
  00419	ff 75 fc	 push	 DWORD PTR _poModule$[ebp]
  0041c	ff 15 00 00 00
	00		 call	 DWORD PTR __imp__PyModule_AddIntConstant
  00422	83 c4 0c	 add	 esp, 12			; 0000000cH

; 1398 : 	PyModule_AddIntConstant(poModule, "DIK_APOSTROPHE",  DIK_APOSTROPHE);     

  00425	6a 28		 push	 40			; 00000028H
  00427	68 00 00 00 00	 push	 OFFSET ??_C@_0P@JDEKLKAM@DIK_APOSTROPHE@
  0042c	ff 75 fc	 push	 DWORD PTR _poModule$[ebp]
  0042f	ff 15 00 00 00
	00		 call	 DWORD PTR __imp__PyModule_AddIntConstant
  00435	83 c4 0c	 add	 esp, 12			; 0000000cH

; 1399 : 	PyModule_AddIntConstant(poModule, "DIK_GRAVE",       DIK_GRAVE);          /* accent grave */

  00438	6a 29		 push	 41			; 00000029H
  0043a	68 00 00 00 00	 push	 OFFSET ??_C@_09MOGGLCIP@DIK_GRAVE@
  0043f	ff 75 fc	 push	 DWORD PTR _poModule$[ebp]
  00442	ff 15 00 00 00
	00		 call	 DWORD PTR __imp__PyModule_AddIntConstant
  00448	83 c4 0c	 add	 esp, 12			; 0000000cH

; 1400 : 	PyModule_AddIntConstant(poModule, "DIK_LSHIFT",      DIK_LSHIFT);         

  0044b	6a 2a		 push	 42			; 0000002aH
  0044d	68 00 00 00 00	 push	 OFFSET ??_C@_0L@GNGJHMON@DIK_LSHIFT@
  00452	ff 75 fc	 push	 DWORD PTR _poModule$[ebp]
  00455	ff 15 00 00 00
	00		 call	 DWORD PTR __imp__PyModule_AddIntConstant
  0045b	83 c4 0c	 add	 esp, 12			; 0000000cH

; 1401 : 	PyModule_AddIntConstant(poModule, "DIK_BACKSLASH",   DIK_BACKSLASH);      

  0045e	6a 2b		 push	 43			; 0000002bH
  00460	68 00 00 00 00	 push	 OFFSET ??_C@_0O@DGKNNOHE@DIK_BACKSLASH@
  00465	ff 75 fc	 push	 DWORD PTR _poModule$[ebp]
  00468	ff 15 00 00 00
	00		 call	 DWORD PTR __imp__PyModule_AddIntConstant
  0046e	83 c4 0c	 add	 esp, 12			; 0000000cH

; 1402 : 	PyModule_AddIntConstant(poModule, "DIK_Z",           DIK_Z);

  00471	6a 2c		 push	 44			; 0000002cH
  00473	68 00 00 00 00	 push	 OFFSET ??_C@_05OELGCPHB@DIK_Z@
  00478	ff 75 fc	 push	 DWORD PTR _poModule$[ebp]
  0047b	ff 15 00 00 00
	00		 call	 DWORD PTR __imp__PyModule_AddIntConstant
  00481	83 c4 0c	 add	 esp, 12			; 0000000cH

; 1403 : 	PyModule_AddIntConstant(poModule, "DIK_X",           DIK_X);

  00484	6a 2d		 push	 45			; 0000002dH
  00486	68 00 00 00 00	 push	 OFFSET ??_C@_05NGIAENPD@DIK_X@
  0048b	ff 75 fc	 push	 DWORD PTR _poModule$[ebp]
  0048e	ff 15 00 00 00
	00		 call	 DWORD PTR __imp__PyModule_AddIntConstant
  00494	83 c4 0c	 add	 esp, 12			; 0000000cH

; 1404 : 	PyModule_AddIntConstant(poModule, "DIK_C",           DIK_C);

  00497	6a 2e		 push	 46			; 0000002eH
  00499	68 00 00 00 00	 push	 OFFSET ??_C@_05HPLGIGGJ@DIK_C@
  0049e	ff 75 fc	 push	 DWORD PTR _poModule$[ebp]
  004a1	ff 15 00 00 00
	00		 call	 DWORD PTR __imp__PyModule_AddIntConstant
  004a7	83 c4 0c	 add	 esp, 12			; 0000000cH

; 1405 : 	PyModule_AddIntConstant(poModule, "DIK_V",           DIK_V);

  004aa	6a 2f		 push	 47			; 0000002fH
  004ac	68 00 00 00 00	 push	 OFFSET ??_C@_05EIADGAHN@DIK_V@
  004b1	ff 75 fc	 push	 DWORD PTR _poModule$[ebp]
  004b4	ff 15 00 00 00
	00		 call	 DWORD PTR __imp__PyModule_AddIntConstant
  004ba	83 c4 0c	 add	 esp, 12			; 0000000cH

; 1406 : 	PyModule_AddIntConstant(poModule, "DIK_B",           DIK_B);

  004bd	6a 30		 push	 48			; 00000030H
  004bf	68 00 00 00 00	 push	 OFFSET ??_C@_05GGKNLHCI@DIK_B@
  004c4	ff 75 fc	 push	 DWORD PTR _poModule$[ebp]
  004c7	ff 15 00 00 00
	00		 call	 DWORD PTR __imp__PyModule_AddIntConstant
  004cd	83 c4 0c	 add	 esp, 12			; 0000000cH

; 1407 : 	PyModule_AddIntConstant(poModule, "DIK_N",           DIK_N);

  004d0	6a 31		 push	 49			; 00000031H
  004d2	68 00 00 00 00	 push	 OFFSET ??_C@_05MKBIPICE@DIK_N@
  004d7	ff 75 fc	 push	 DWORD PTR _poModule$[ebp]
  004da	ff 15 00 00 00
	00		 call	 DWORD PTR __imp__PyModule_AddIntConstant
  004e0	83 c4 0c	 add	 esp, 12			; 0000000cH

; 1408 : 	PyModule_AddIntConstant(poModule, "DIK_M",           DIK_M);

  004e3	6a 32		 push	 50			; 00000032H
  004e5	68 00 00 00 00	 push	 OFFSET ??_C@_05OBDFKLOH@DIK_M@
  004ea	ff 75 fc	 push	 DWORD PTR _poModule$[ebp]
  004ed	ff 15 00 00 00
	00		 call	 DWORD PTR __imp__PyModule_AddIntConstant
  004f3	83 c4 0c	 add	 esp, 12			; 0000000cH

; 1409 : 	PyModule_AddIntConstant(poModule, "DIK_COMMA",       DIK_COMMA);          

  004f6	6a 33		 push	 51			; 00000033H
  004f8	68 00 00 00 00	 push	 OFFSET ??_C@_09PDEOJFIH@DIK_COMMA@
  004fd	ff 75 fc	 push	 DWORD PTR _poModule$[ebp]
  00500	ff 15 00 00 00
	00		 call	 DWORD PTR __imp__PyModule_AddIntConstant
  00506	83 c4 0c	 add	 esp, 12			; 0000000cH

; 1410 : 	PyModule_AddIntConstant(poModule, "DIK_PERIOD",      DIK_PERIOD);         /* . on main keyboard */

  00509	6a 34		 push	 52			; 00000034H
  0050b	68 00 00 00 00	 push	 OFFSET ??_C@_0L@HHNLMNCM@DIK_PERIOD@
  00510	ff 75 fc	 push	 DWORD PTR _poModule$[ebp]
  00513	ff 15 00 00 00
	00		 call	 DWORD PTR __imp__PyModule_AddIntConstant
  00519	83 c4 0c	 add	 esp, 12			; 0000000cH

; 1411 : 	PyModule_AddIntConstant(poModule, "DIK_SLASH",       DIK_SLASH);          /* / on main keyboard */

  0051c	6a 35		 push	 53			; 00000035H
  0051e	68 00 00 00 00	 push	 OFFSET ??_C@_09DKJEGHEH@DIK_SLASH@
  00523	ff 75 fc	 push	 DWORD PTR _poModule$[ebp]
  00526	ff 15 00 00 00
	00		 call	 DWORD PTR __imp__PyModule_AddIntConstant
  0052c	83 c4 0c	 add	 esp, 12			; 0000000cH

; 1412 : 	PyModule_AddIntConstant(poModule, "DIK_RSHIFT",      DIK_RSHIFT);         

  0052f	6a 36		 push	 54			; 00000036H
  00531	68 00 00 00 00	 push	 OFFSET ??_C@_0L@FKIIJLHO@DIK_RSHIFT@
  00536	ff 75 fc	 push	 DWORD PTR _poModule$[ebp]
  00539	ff 15 00 00 00
	00		 call	 DWORD PTR __imp__PyModule_AddIntConstant
  0053f	83 c4 0c	 add	 esp, 12			; 0000000cH

; 1413 : 	PyModule_AddIntConstant(poModule, "DIK_MULTIPLY",    DIK_MULTIPLY);       /* * on numeric keypad */

  00542	6a 37		 push	 55			; 00000037H
  00544	68 00 00 00 00	 push	 OFFSET ??_C@_0N@DHLLGHHC@DIK_MULTIPLY@
  00549	ff 75 fc	 push	 DWORD PTR _poModule$[ebp]
  0054c	ff 15 00 00 00
	00		 call	 DWORD PTR __imp__PyModule_AddIntConstant
  00552	83 c4 0c	 add	 esp, 12			; 0000000cH

; 1414 : 	PyModule_AddIntConstant(poModule, "DIK_LALT",        DIK_LMENU);          /* left Alt */

  00555	6a 38		 push	 56			; 00000038H
  00557	68 00 00 00 00	 push	 OFFSET ??_C@_08OHCJNNJ@DIK_LALT@
  0055c	ff 75 fc	 push	 DWORD PTR _poModule$[ebp]
  0055f	ff 15 00 00 00
	00		 call	 DWORD PTR __imp__PyModule_AddIntConstant
  00565	83 c4 0c	 add	 esp, 12			; 0000000cH

; 1415 : 	PyModule_AddIntConstant(poModule, "DIK_SPACE",       DIK_SPACE);          

  00568	6a 39		 push	 57			; 00000039H
  0056a	68 00 00 00 00	 push	 OFFSET ??_C@_09DGAMMAPJ@DIK_SPACE@
  0056f	ff 75 fc	 push	 DWORD PTR _poModule$[ebp]
  00572	ff 15 00 00 00
	00		 call	 DWORD PTR __imp__PyModule_AddIntConstant
  00578	83 c4 0c	 add	 esp, 12			; 0000000cH

; 1416 : 	PyModule_AddIntConstant(poModule, "DIK_CAPITAL",     DIK_CAPITAL);        

  0057b	6a 3a		 push	 58			; 0000003aH
  0057d	68 00 00 00 00	 push	 OFFSET ??_C@_0M@KEADBGIC@DIK_CAPITAL@
  00582	ff 75 fc	 push	 DWORD PTR _poModule$[ebp]
  00585	ff 15 00 00 00
	00		 call	 DWORD PTR __imp__PyModule_AddIntConstant
  0058b	83 c4 0c	 add	 esp, 12			; 0000000cH

; 1417 : 	PyModule_AddIntConstant(poModule, "DIK_F1",          DIK_F1);

  0058e	6a 3b		 push	 59			; 0000003bH
  00590	68 00 00 00 00	 push	 OFFSET ??_C@_06PEIHKKCD@DIK_F1@
  00595	ff 75 fc	 push	 DWORD PTR _poModule$[ebp]
  00598	ff 15 00 00 00
	00		 call	 DWORD PTR __imp__PyModule_AddIntConstant
  0059e	83 c4 0c	 add	 esp, 12			; 0000000cH

; 1418 : 	PyModule_AddIntConstant(poModule, "DIK_F2",          DIK_F2);

  005a1	6a 3c		 push	 60			; 0000003cH
  005a3	68 00 00 00 00	 push	 OFFSET ??_C@_06NPKKPJOA@DIK_F2@
  005a8	ff 75 fc	 push	 DWORD PTR _poModule$[ebp]
  005ab	ff 15 00 00 00
	00		 call	 DWORD PTR __imp__PyModule_AddIntConstant
  005b1	83 c4 0c	 add	 esp, 12			; 0000000cH

; 1419 : 	PyModule_AddIntConstant(poModule, "DIK_F3",          DIK_F3);

  005b4	6a 3d		 push	 61			; 0000003dH
  005b6	68 00 00 00 00	 push	 OFFSET ??_C@_06MGLBMIKB@DIK_F3@
  005bb	ff 75 fc	 push	 DWORD PTR _poModule$[ebp]
  005be	ff 15 00 00 00
	00		 call	 DWORD PTR __imp__PyModule_AddIntConstant
  005c4	83 c4 0c	 add	 esp, 12			; 0000000cH

; 1420 : 	PyModule_AddIntConstant(poModule, "DIK_F4",          DIK_F4);

  005c7	6a 3e		 push	 62			; 0000003eH
  005c9	68 00 00 00 00	 push	 OFFSET ??_C@_06IJPAFOGG@DIK_F4@
  005ce	ff 75 fc	 push	 DWORD PTR _poModule$[ebp]
  005d1	ff 15 00 00 00
	00		 call	 DWORD PTR __imp__PyModule_AddIntConstant
  005d7	83 c4 0c	 add	 esp, 12			; 0000000cH

; 1421 : 	PyModule_AddIntConstant(poModule, "DIK_F5",          DIK_F5);

  005da	6a 3f		 push	 63			; 0000003fH
  005dc	68 00 00 00 00	 push	 OFFSET ??_C@_06JAOLGPCH@DIK_F5@
  005e1	ff 75 fc	 push	 DWORD PTR _poModule$[ebp]
  005e4	ff 15 00 00 00
	00		 call	 DWORD PTR __imp__PyModule_AddIntConstant
  005ea	83 c4 0c	 add	 esp, 12			; 0000000cH

; 1422 : 	PyModule_AddIntConstant(poModule, "DIK_F6",          DIK_F6);

  005ed	6a 40		 push	 64			; 00000040H
  005ef	68 00 00 00 00	 push	 OFFSET ??_C@_06LLMGDMOE@DIK_F6@
  005f4	ff 75 fc	 push	 DWORD PTR _poModule$[ebp]
  005f7	ff 15 00 00 00
	00		 call	 DWORD PTR __imp__PyModule_AddIntConstant
  005fd	83 c4 0c	 add	 esp, 12			; 0000000cH

; 1423 : 	PyModule_AddIntConstant(poModule, "DIK_F7",          DIK_F7);

  00600	6a 41		 push	 65			; 00000041H
  00602	68 00 00 00 00	 push	 OFFSET ??_C@_06KCNNANKF@DIK_F7@
  00607	ff 75 fc	 push	 DWORD PTR _poModule$[ebp]
  0060a	ff 15 00 00 00
	00		 call	 DWORD PTR __imp__PyModule_AddIntConstant
  00610	83 c4 0c	 add	 esp, 12			; 0000000cH

; 1424 : 	PyModule_AddIntConstant(poModule, "DIK_F8",          DIK_F8);

  00613	6a 42		 push	 66			; 00000042H
  00615	68 00 00 00 00	 push	 OFFSET ??_C@_06CFEFBBGK@DIK_F8@
  0061a	ff 75 fc	 push	 DWORD PTR _poModule$[ebp]
  0061d	ff 15 00 00 00
	00		 call	 DWORD PTR __imp__PyModule_AddIntConstant
  00623	83 c4 0c	 add	 esp, 12			; 0000000cH

; 1425 : 	PyModule_AddIntConstant(poModule, "DIK_F9",          DIK_F9);

  00626	6a 43		 push	 67			; 00000043H
  00628	68 00 00 00 00	 push	 OFFSET ??_C@_06DMFOCACL@DIK_F9@
  0062d	ff 75 fc	 push	 DWORD PTR _poModule$[ebp]
  00630	ff 15 00 00 00
	00		 call	 DWORD PTR __imp__PyModule_AddIntConstant
  00636	83 c4 0c	 add	 esp, 12			; 0000000cH

; 1426 : 	PyModule_AddIntConstant(poModule, "DIK_F10",         DIK_F10);

  00639	6a 44		 push	 68			; 00000044H
  0063b	68 00 00 00 00	 push	 OFFSET ??_C@_07HNNFMACL@DIK_F10@
  00640	ff 75 fc	 push	 DWORD PTR _poModule$[ebp]
  00643	ff 15 00 00 00
	00		 call	 DWORD PTR __imp__PyModule_AddIntConstant
  00649	83 c4 0c	 add	 esp, 12			; 0000000cH

; 1427 : 	PyModule_AddIntConstant(poModule, "DIK_NUMLOCK",     DIK_NUMLOCK);

  0064c	6a 45		 push	 69			; 00000045H
  0064e	68 00 00 00 00	 push	 OFFSET ??_C@_0M@BAOCLHIM@DIK_NUMLOCK@
  00653	ff 75 fc	 push	 DWORD PTR _poModule$[ebp]
  00656	ff 15 00 00 00
	00		 call	 DWORD PTR __imp__PyModule_AddIntConstant
  0065c	83 c4 0c	 add	 esp, 12			; 0000000cH

; 1428 : 	PyModule_AddIntConstant(poModule, "DIK_SCROLL",      DIK_SCROLL);         /* Scroll Lock */

  0065f	6a 46		 push	 70			; 00000046H
  00661	68 00 00 00 00	 push	 OFFSET ??_C@_0L@HPJOFPCB@DIK_SCROLL@
  00666	ff 75 fc	 push	 DWORD PTR _poModule$[ebp]
  00669	ff 15 00 00 00
	00		 call	 DWORD PTR __imp__PyModule_AddIntConstant
  0066f	83 c4 0c	 add	 esp, 12			; 0000000cH

; 1429 : 	PyModule_AddIntConstant(poModule, "DIK_NUMPAD7",     DIK_NUMPAD7);        

  00672	6a 47		 push	 71			; 00000047H
  00674	68 00 00 00 00	 push	 OFFSET ??_C@_0M@NDOIJKED@DIK_NUMPAD7@
  00679	ff 75 fc	 push	 DWORD PTR _poModule$[ebp]
  0067c	ff 15 00 00 00
	00		 call	 DWORD PTR __imp__PyModule_AddIntConstant
  00682	83 c4 0c	 add	 esp, 12			; 0000000cH

; 1430 : 	PyModule_AddIntConstant(poModule, "DIK_NUMPAD8",     DIK_NUMPAD8);        

  00685	6a 48		 push	 72			; 00000048H
  00687	68 00 00 00 00	 push	 OFFSET ??_C@_0M@FEHAIGIM@DIK_NUMPAD8@
  0068c	ff 75 fc	 push	 DWORD PTR _poModule$[ebp]
  0068f	ff 15 00 00 00
	00		 call	 DWORD PTR __imp__PyModule_AddIntConstant
  00695	83 c4 0c	 add	 esp, 12			; 0000000cH

; 1431 : 	PyModule_AddIntConstant(poModule, "DIK_NUMPAD9",     DIK_NUMPAD9);        

  00698	6a 49		 push	 73			; 00000049H
  0069a	68 00 00 00 00	 push	 OFFSET ??_C@_0M@ENGLLHMN@DIK_NUMPAD9@
  0069f	ff 75 fc	 push	 DWORD PTR _poModule$[ebp]
  006a2	ff 15 00 00 00
	00		 call	 DWORD PTR __imp__PyModule_AddIntConstant
  006a8	83 c4 0c	 add	 esp, 12			; 0000000cH

; 1432 : 	PyModule_AddIntConstant(poModule, "DIK_SUBTRACT",    DIK_SUBTRACT);       /* - on numeric keypad */

  006ab	6a 4a		 push	 74			; 0000004aH
  006ad	68 00 00 00 00	 push	 OFFSET ??_C@_0N@ECOBCKNF@DIK_SUBTRACT@
  006b2	ff 75 fc	 push	 DWORD PTR _poModule$[ebp]
  006b5	ff 15 00 00 00
	00		 call	 DWORD PTR __imp__PyModule_AddIntConstant
  006bb	83 c4 0c	 add	 esp, 12			; 0000000cH

; 1433 : 	PyModule_AddIntConstant(poModule, "DIK_NUMPAD4",     DIK_NUMPAD4);        

  006be	6a 4b		 push	 75			; 0000004bH
  006c0	68 00 00 00 00	 push	 OFFSET ??_C@_0M@PIMFMJIA@DIK_NUMPAD4@
  006c5	ff 75 fc	 push	 DWORD PTR _poModule$[ebp]
  006c8	ff 15 00 00 00
	00		 call	 DWORD PTR __imp__PyModule_AddIntConstant
  006ce	83 c4 0c	 add	 esp, 12			; 0000000cH

; 1434 : 	PyModule_AddIntConstant(poModule, "DIK_NUMPAD5",     DIK_NUMPAD5);        

  006d1	6a 4c		 push	 76			; 0000004cH
  006d3	68 00 00 00 00	 push	 OFFSET ??_C@_0M@OBNOPIMB@DIK_NUMPAD5@
  006d8	ff 75 fc	 push	 DWORD PTR _poModule$[ebp]
  006db	ff 15 00 00 00
	00		 call	 DWORD PTR __imp__PyModule_AddIntConstant
  006e1	83 c4 0c	 add	 esp, 12			; 0000000cH

; 1435 : 	PyModule_AddIntConstant(poModule, "DIK_NUMPAD6",     DIK_NUMPAD6);        

  006e4	6a 4d		 push	 77			; 0000004dH
  006e6	68 00 00 00 00	 push	 OFFSET ??_C@_0M@MKPDKLAC@DIK_NUMPAD6@
  006eb	ff 75 fc	 push	 DWORD PTR _poModule$[ebp]
  006ee	ff 15 00 00 00
	00		 call	 DWORD PTR __imp__PyModule_AddIntConstant
  006f4	83 c4 0c	 add	 esp, 12			; 0000000cH

; 1436 : 	PyModule_AddIntConstant(poModule, "DIK_ADD",         DIK_ADD);            /* + on numeric keypad */

  006f7	6a 4e		 push	 78			; 0000004eH
  006f9	68 00 00 00 00	 push	 OFFSET ??_C@_07PJGLOONL@DIK_ADD@
  006fe	ff 75 fc	 push	 DWORD PTR _poModule$[ebp]
  00701	ff 15 00 00 00
	00		 call	 DWORD PTR __imp__PyModule_AddIntConstant
  00707	83 c4 0c	 add	 esp, 12			; 0000000cH

; 1437 : 	PyModule_AddIntConstant(poModule, "DIK_NUMPAD1",     DIK_NUMPAD1);        

  0070a	6a 4f		 push	 79			; 0000004fH
  0070c	68 00 00 00 00	 push	 OFFSET ??_C@_0M@IFLCDNMF@DIK_NUMPAD1@
  00711	ff 75 fc	 push	 DWORD PTR _poModule$[ebp]
  00714	ff 15 00 00 00
	00		 call	 DWORD PTR __imp__PyModule_AddIntConstant
  0071a	83 c4 0c	 add	 esp, 12			; 0000000cH

; 1438 : 	PyModule_AddIntConstant(poModule, "DIK_NUMPAD2",     DIK_NUMPAD2);        

  0071d	6a 50		 push	 80			; 00000050H
  0071f	68 00 00 00 00	 push	 OFFSET ??_C@_0M@KOJPGOAG@DIK_NUMPAD2@
  00724	ff 75 fc	 push	 DWORD PTR _poModule$[ebp]
  00727	ff 15 00 00 00
	00		 call	 DWORD PTR __imp__PyModule_AddIntConstant
  0072d	83 c4 0c	 add	 esp, 12			; 0000000cH

; 1439 : 	PyModule_AddIntConstant(poModule, "DIK_NUMPAD3",     DIK_NUMPAD3);        

  00730	6a 51		 push	 81			; 00000051H
  00732	68 00 00 00 00	 push	 OFFSET ??_C@_0M@LHIEFPEH@DIK_NUMPAD3@
  00737	ff 75 fc	 push	 DWORD PTR _poModule$[ebp]
  0073a	ff 15 00 00 00
	00		 call	 DWORD PTR __imp__PyModule_AddIntConstant
  00740	83 c4 0c	 add	 esp, 12			; 0000000cH

; 1440 : 	PyModule_AddIntConstant(poModule, "DIK_NUMPAD0",     DIK_NUMPAD0);        

  00743	6a 52		 push	 82			; 00000052H
  00745	68 00 00 00 00	 push	 OFFSET ??_C@_0M@JMKJAMIE@DIK_NUMPAD0@
  0074a	ff 75 fc	 push	 DWORD PTR _poModule$[ebp]
  0074d	ff 15 00 00 00
	00		 call	 DWORD PTR __imp__PyModule_AddIntConstant
  00753	83 c4 0c	 add	 esp, 12			; 0000000cH

; 1441 : 	PyModule_AddIntConstant(poModule, "DIK_DECIMAL",     DIK_DECIMAL);        /* . on numeric keypad */

  00756	6a 53		 push	 83			; 00000053H
  00758	68 00 00 00 00	 push	 OFFSET ??_C@_0M@PCNKFDKI@DIK_DECIMAL@
  0075d	ff 75 fc	 push	 DWORD PTR _poModule$[ebp]
  00760	ff 15 00 00 00
	00		 call	 DWORD PTR __imp__PyModule_AddIntConstant
  00766	83 c4 0c	 add	 esp, 12			; 0000000cH

; 1442 : 	PyModule_AddIntConstant(poModule, "DIK_F11",         DIK_F11);            

  00769	6a 57		 push	 87			; 00000057H
  0076b	68 00 00 00 00	 push	 OFFSET ??_C@_07GEMOPBGK@DIK_F11@
  00770	ff 75 fc	 push	 DWORD PTR _poModule$[ebp]
  00773	ff 15 00 00 00
	00		 call	 DWORD PTR __imp__PyModule_AddIntConstant
  00779	83 c4 0c	 add	 esp, 12			; 0000000cH

; 1443 : 	PyModule_AddIntConstant(poModule, "DIK_F12",         DIK_F12);            

  0077c	6a 58		 push	 88			; 00000058H
  0077e	68 00 00 00 00	 push	 OFFSET ??_C@_07EPODKCKJ@DIK_F12@
  00783	ff 75 fc	 push	 DWORD PTR _poModule$[ebp]
  00786	ff 15 00 00 00
	00		 call	 DWORD PTR __imp__PyModule_AddIntConstant
  0078c	83 c4 0c	 add	 esp, 12			; 0000000cH

; 1444 : 	PyModule_AddIntConstant(poModule, "DIK_NEXTTRACK",   DIK_NEXTTRACK);      /* Next Track */

  0078f	68 99 00 00 00	 push	 153			; 00000099H
  00794	68 00 00 00 00	 push	 OFFSET ??_C@_0O@DEOEEHEE@DIK_NEXTTRACK@
  00799	ff 75 fc	 push	 DWORD PTR _poModule$[ebp]
  0079c	ff 15 00 00 00
	00		 call	 DWORD PTR __imp__PyModule_AddIntConstant
  007a2	83 c4 0c	 add	 esp, 12			; 0000000cH

; 1445 : 	PyModule_AddIntConstant(poModule, "DIK_NUMPADENTER", DIK_NUMPADENTER);    /* Enter on numeric keypad */

  007a5	68 9c 00 00 00	 push	 156			; 0000009cH
  007aa	68 00 00 00 00	 push	 OFFSET ??_C@_0BA@OLMCJCJF@DIK_NUMPADENTER@
  007af	ff 75 fc	 push	 DWORD PTR _poModule$[ebp]
  007b2	ff 15 00 00 00
	00		 call	 DWORD PTR __imp__PyModule_AddIntConstant
  007b8	83 c4 0c	 add	 esp, 12			; 0000000cH

; 1446 : 	PyModule_AddIntConstant(poModule, "DIK_RCONTROL",    DIK_RCONTROL);       

  007bb	68 9d 00 00 00	 push	 157			; 0000009dH
  007c0	68 00 00 00 00	 push	 OFFSET ??_C@_0N@GKDJCKOL@DIK_RCONTROL@
  007c5	ff 75 fc	 push	 DWORD PTR _poModule$[ebp]
  007c8	ff 15 00 00 00
	00		 call	 DWORD PTR __imp__PyModule_AddIntConstant
  007ce	83 c4 0c	 add	 esp, 12			; 0000000cH

; 1447 : 	PyModule_AddIntConstant(poModule, "DIK_MUTE",        DIK_MUTE);           /* Mute */

  007d1	68 a0 00 00 00	 push	 160			; 000000a0H
  007d6	68 00 00 00 00	 push	 OFFSET ??_C@_08KNIFKFHJ@DIK_MUTE@
  007db	ff 75 fc	 push	 DWORD PTR _poModule$[ebp]
  007de	ff 15 00 00 00
	00		 call	 DWORD PTR __imp__PyModule_AddIntConstant
  007e4	83 c4 0c	 add	 esp, 12			; 0000000cH

; 1448 : 	PyModule_AddIntConstant(poModule, "DIK_CALCULATOR",  DIK_CALCULATOR);     /* Calculator */

  007e7	68 a1 00 00 00	 push	 161			; 000000a1H
  007ec	68 00 00 00 00	 push	 OFFSET ??_C@_0P@OJEJDHIP@DIK_CALCULATOR@
  007f1	ff 75 fc	 push	 DWORD PTR _poModule$[ebp]
  007f4	ff 15 00 00 00
	00		 call	 DWORD PTR __imp__PyModule_AddIntConstant
  007fa	83 c4 0c	 add	 esp, 12			; 0000000cH

; 1449 : 	PyModule_AddIntConstant(poModule, "DIK_PLAYPAUSE",   DIK_PLAYPAUSE);      /* Play / Pause */

  007fd	68 a2 00 00 00	 push	 162			; 000000a2H
  00802	68 00 00 00 00	 push	 OFFSET ??_C@_0O@ECAMOKPG@DIK_PLAYPAUSE@
  00807	ff 75 fc	 push	 DWORD PTR _poModule$[ebp]
  0080a	ff 15 00 00 00
	00		 call	 DWORD PTR __imp__PyModule_AddIntConstant
  00810	83 c4 0c	 add	 esp, 12			; 0000000cH

; 1450 : 	PyModule_AddIntConstant(poModule, "DIK_MEDIASTOP",   DIK_MEDIASTOP);      /* Media Stop */

  00813	68 a4 00 00 00	 push	 164			; 000000a4H
  00818	68 00 00 00 00	 push	 OFFSET ??_C@_0O@FLFOAKOG@DIK_MEDIASTOP@
  0081d	ff 75 fc	 push	 DWORD PTR _poModule$[ebp]
  00820	ff 15 00 00 00
	00		 call	 DWORD PTR __imp__PyModule_AddIntConstant
  00826	83 c4 0c	 add	 esp, 12			; 0000000cH

; 1451 : 	PyModule_AddIntConstant(poModule, "DIK_VOLUMEDOWN",  DIK_VOLUMEDOWN);     /* Volume - */

  00829	68 ae 00 00 00	 push	 174			; 000000aeH
  0082e	68 00 00 00 00	 push	 OFFSET ??_C@_0P@FKHBCEAD@DIK_VOLUMEDOWN@
  00833	ff 75 fc	 push	 DWORD PTR _poModule$[ebp]
  00836	ff 15 00 00 00
	00		 call	 DWORD PTR __imp__PyModule_AddIntConstant
  0083c	83 c4 0c	 add	 esp, 12			; 0000000cH

; 1452 : 	PyModule_AddIntConstant(poModule, "DIK_VOLUMEUP",    DIK_VOLUMEUP);       /* Volume + */

  0083f	68 b0 00 00 00	 push	 176			; 000000b0H
  00844	68 00 00 00 00	 push	 OFFSET ??_C@_0N@GPHLGHED@DIK_VOLUMEUP@
  00849	ff 75 fc	 push	 DWORD PTR _poModule$[ebp]
  0084c	ff 15 00 00 00
	00		 call	 DWORD PTR __imp__PyModule_AddIntConstant
  00852	83 c4 0c	 add	 esp, 12			; 0000000cH

; 1453 : 	PyModule_AddIntConstant(poModule, "DIK_WEBHOME",     DIK_WEBHOME);        /* Web home */

  00855	68 b2 00 00 00	 push	 178			; 000000b2H
  0085a	68 00 00 00 00	 push	 OFFSET ??_C@_0M@IEADBFND@DIK_WEBHOME@
  0085f	ff 75 fc	 push	 DWORD PTR _poModule$[ebp]
  00862	ff 15 00 00 00
	00		 call	 DWORD PTR __imp__PyModule_AddIntConstant
  00868	83 c4 0c	 add	 esp, 12			; 0000000cH

; 1454 : 	PyModule_AddIntConstant(poModule, "DIK_NUMPADCOMMA", DIK_NUMPADCOMMA);    /* , on numeric keypad (NEC PC98) */

  0086b	68 b3 00 00 00	 push	 179			; 000000b3H
  00870	68 00 00 00 00	 push	 OFFSET ??_C@_0BA@ECBGFAAH@DIK_NUMPADCOMMA@
  00875	ff 75 fc	 push	 DWORD PTR _poModule$[ebp]
  00878	ff 15 00 00 00
	00		 call	 DWORD PTR __imp__PyModule_AddIntConstant
  0087e	83 c4 0c	 add	 esp, 12			; 0000000cH

; 1455 : 	PyModule_AddIntConstant(poModule, "DIK_DIVIDE",      DIK_DIVIDE);         /* / on numeric keypad */

  00881	68 b5 00 00 00	 push	 181			; 000000b5H
  00886	68 00 00 00 00	 push	 OFFSET ??_C@_0L@HDEGMNOK@DIK_DIVIDE@
  0088b	ff 75 fc	 push	 DWORD PTR _poModule$[ebp]
  0088e	ff 15 00 00 00
	00		 call	 DWORD PTR __imp__PyModule_AddIntConstant
  00894	83 c4 0c	 add	 esp, 12			; 0000000cH

; 1456 : 	PyModule_AddIntConstant(poModule, "DIK_SYSRQ",       DIK_SYSRQ);          

  00897	68 b7 00 00 00	 push	 183			; 000000b7H
  0089c	68 00 00 00 00	 push	 OFFSET ??_C@_09PCEGCDIO@DIK_SYSRQ@
  008a1	ff 75 fc	 push	 DWORD PTR _poModule$[ebp]
  008a4	ff 15 00 00 00
	00		 call	 DWORD PTR __imp__PyModule_AddIntConstant
  008aa	83 c4 0c	 add	 esp, 12			; 0000000cH

; 1457 : 	PyModule_AddIntConstant(poModule, "DIK_RALT",        DIK_RMENU);          /* right Alt */

  008ad	68 b8 00 00 00	 push	 184			; 000000b8H
  008b2	68 00 00 00 00	 push	 OFFSET ??_C@_08NBKCLEDK@DIK_RALT@
  008b7	ff 75 fc	 push	 DWORD PTR _poModule$[ebp]
  008ba	ff 15 00 00 00
	00		 call	 DWORD PTR __imp__PyModule_AddIntConstant
  008c0	83 c4 0c	 add	 esp, 12			; 0000000cH

; 1458 : 	PyModule_AddIntConstant(poModule, "DIK_PAUSE",       DIK_PAUSE);          /* Pause */

  008c3	68 c5 00 00 00	 push	 197			; 000000c5H
  008c8	68 00 00 00 00	 push	 OFFSET ??_C@_09COEFGPNN@DIK_PAUSE@
  008cd	ff 75 fc	 push	 DWORD PTR _poModule$[ebp]
  008d0	ff 15 00 00 00
	00		 call	 DWORD PTR __imp__PyModule_AddIntConstant
  008d6	83 c4 0c	 add	 esp, 12			; 0000000cH

; 1459 : 	PyModule_AddIntConstant(poModule, "DIK_HOME",        DIK_HOME);           /* Home on arrow keypad */

  008d9	68 c7 00 00 00	 push	 199			; 000000c7H
  008de	68 00 00 00 00	 push	 OFFSET ??_C@_08EJDGAFAN@DIK_HOME@
  008e3	ff 75 fc	 push	 DWORD PTR _poModule$[ebp]
  008e6	ff 15 00 00 00
	00		 call	 DWORD PTR __imp__PyModule_AddIntConstant
  008ec	83 c4 0c	 add	 esp, 12			; 0000000cH

; 1460 : 	PyModule_AddIntConstant(poModule, "DIK_UP",          DIK_UP);             /* UpArrow on arrow keypad */

  008ef	68 c8 00 00 00	 push	 200			; 000000c8H
  008f4	68 00 00 00 00	 push	 OFFSET ??_C@_06JGABONOM@DIK_UP@
  008f9	ff 75 fc	 push	 DWORD PTR _poModule$[ebp]
  008fc	ff 15 00 00 00
	00		 call	 DWORD PTR __imp__PyModule_AddIntConstant
  00902	83 c4 0c	 add	 esp, 12			; 0000000cH

; 1461 : 	PyModule_AddIntConstant(poModule, "DIK_PGUP",        DIK_PRIOR);          /* PgUp on arrow keypad */

  00905	68 c9 00 00 00	 push	 201			; 000000c9H
  0090a	68 00 00 00 00	 push	 OFFSET ??_C@_08PJJCOFHN@DIK_PGUP@
  0090f	ff 75 fc	 push	 DWORD PTR _poModule$[ebp]
  00912	ff 15 00 00 00
	00		 call	 DWORD PTR __imp__PyModule_AddIntConstant
  00918	83 c4 0c	 add	 esp, 12			; 0000000cH

; 1462 : 	PyModule_AddIntConstant(poModule, "DIK_LEFT",        DIK_LEFT);           /* LeftArrow on arrow keypad */

  0091b	68 cb 00 00 00	 push	 203			; 000000cbH
  00920	68 00 00 00 00	 push	 OFFSET ??_C@_08IMIHIPFI@DIK_LEFT@
  00925	ff 75 fc	 push	 DWORD PTR _poModule$[ebp]
  00928	ff 15 00 00 00
	00		 call	 DWORD PTR __imp__PyModule_AddIntConstant
  0092e	83 c4 0c	 add	 esp, 12			; 0000000cH

; 1463 : 	PyModule_AddIntConstant(poModule, "DIK_RIGHT",       DIK_RIGHT);          /* RightArrow on arrow keypad */

  00931	68 cd 00 00 00	 push	 205			; 000000cdH
  00936	68 00 00 00 00	 push	 OFFSET ??_C@_09OKEHHFIC@DIK_RIGHT@
  0093b	ff 75 fc	 push	 DWORD PTR _poModule$[ebp]
  0093e	ff 15 00 00 00
	00		 call	 DWORD PTR __imp__PyModule_AddIntConstant
  00944	83 c4 0c	 add	 esp, 12			; 0000000cH

; 1464 : 	PyModule_AddIntConstant(poModule, "DIK_END",         DIK_END);            /* End on arrow keypad */

  00947	68 cf 00 00 00	 push	 207			; 000000cfH
  0094c	68 00 00 00 00	 push	 OFFSET ??_C@_07HLJOPMFK@DIK_END@
  00951	ff 75 fc	 push	 DWORD PTR _poModule$[ebp]
  00954	ff 15 00 00 00
	00		 call	 DWORD PTR __imp__PyModule_AddIntConstant
  0095a	83 c4 0c	 add	 esp, 12			; 0000000cH

; 1465 : 	PyModule_AddIntConstant(poModule, "DIK_DOWN",        DIK_DOWN);           /* DownArrow on arrow keypad */

  0095d	68 d0 00 00 00	 push	 208			; 000000d0H
  00962	68 00 00 00 00	 push	 OFFSET ??_C@_08HOIDBHGB@DIK_DOWN@
  00967	ff 75 fc	 push	 DWORD PTR _poModule$[ebp]
  0096a	ff 15 00 00 00
	00		 call	 DWORD PTR __imp__PyModule_AddIntConstant
  00970	83 c4 0c	 add	 esp, 12			; 0000000cH

; 1466 : 	PyModule_AddIntConstant(poModule, "DIK_PGDN",        DIK_NEXT);           /* PgDn on arrow keypad */

  00973	68 d1 00 00 00	 push	 209			; 000000d1H
  00978	68 00 00 00 00	 push	 OFFSET ??_C@_08DADHBDOF@DIK_PGDN@
  0097d	ff 75 fc	 push	 DWORD PTR _poModule$[ebp]
  00980	ff 15 00 00 00
	00		 call	 DWORD PTR __imp__PyModule_AddIntConstant
  00986	83 c4 0c	 add	 esp, 12			; 0000000cH

; 1467 : 	PyModule_AddIntConstant(poModule, "DIK_INSERT",      DIK_INSERT);         /* Insert on arrow keypad */

  00989	68 d2 00 00 00	 push	 210			; 000000d2H
  0098e	68 00 00 00 00	 push	 OFFSET ??_C@_0L@MGNAFAII@DIK_INSERT@
  00993	ff 75 fc	 push	 DWORD PTR _poModule$[ebp]
  00996	ff 15 00 00 00
	00		 call	 DWORD PTR __imp__PyModule_AddIntConstant
  0099c	83 c4 0c	 add	 esp, 12			; 0000000cH

; 1468 : 	PyModule_AddIntConstant(poModule, "DIK_DELETE",      DIK_DELETE);         /* Delete on arrow keypad */

  0099f	68 d3 00 00 00	 push	 211			; 000000d3H
  009a4	68 00 00 00 00	 push	 OFFSET ??_C@_0L@HICEJOHK@DIK_DELETE@
  009a9	ff 75 fc	 push	 DWORD PTR _poModule$[ebp]
  009ac	ff 15 00 00 00
	00		 call	 DWORD PTR __imp__PyModule_AddIntConstant
  009b2	83 c4 0c	 add	 esp, 12			; 0000000cH

; 1469 : 	PyModule_AddIntConstant(poModule, "DIK_LWIN",        DIK_LWIN);           /* Left Windows key */

  009b5	68 db 00 00 00	 push	 219			; 000000dbH
  009ba	68 00 00 00 00	 push	 OFFSET ??_C@_08MNOGKNKK@DIK_LWIN@
  009bf	ff 75 fc	 push	 DWORD PTR _poModule$[ebp]
  009c2	ff 15 00 00 00
	00		 call	 DWORD PTR __imp__PyModule_AddIntConstant
  009c8	83 c4 0c	 add	 esp, 12			; 0000000cH

; 1470 : 	PyModule_AddIntConstant(poModule, "DIK_RWIN",        DIK_RWIN);           /* Right Windows key */

  009cb	68 dc 00 00 00	 push	 220			; 000000dcH
  009d0	68 00 00 00 00	 push	 OFFSET ??_C@_08BCDGIEEJ@DIK_RWIN@
  009d5	ff 75 fc	 push	 DWORD PTR _poModule$[ebp]
  009d8	ff 15 00 00 00
	00		 call	 DWORD PTR __imp__PyModule_AddIntConstant
  009de	83 c4 0c	 add	 esp, 12			; 0000000cH

; 1471 : 	PyModule_AddIntConstant(poModule, "DIK_APPS",        DIK_APPS);           /* AppMenu key */

  009e1	68 dd 00 00 00	 push	 221			; 000000ddH
  009e6	68 00 00 00 00	 push	 OFFSET ??_C@_08EEDKKFEB@DIK_APPS@
  009eb	ff 75 fc	 push	 DWORD PTR _poModule$[ebp]
  009ee	ff 15 00 00 00
	00		 call	 DWORD PTR __imp__PyModule_AddIntConstant
  009f4	83 c4 0c	 add	 esp, 12			; 0000000cH

; 1472 : 
; 1473 : 	// Cursor
; 1474 : 	PyModule_AddIntConstant(poModule, "NORMAL",			CPythonApplication::CURSOR_SHAPE_NORMAL);

  009f7	6a 00		 push	 0
  009f9	68 00 00 00 00	 push	 OFFSET ??_C@_06IOJAGNKJ@NORMAL@
  009fe	ff 75 fc	 push	 DWORD PTR _poModule$[ebp]
  00a01	ff 15 00 00 00
	00		 call	 DWORD PTR __imp__PyModule_AddIntConstant
  00a07	83 c4 0c	 add	 esp, 12			; 0000000cH

; 1475 : 	PyModule_AddIntConstant(poModule, "ATTACK",			CPythonApplication::CURSOR_SHAPE_ATTACK);

  00a0a	6a 01		 push	 1
  00a0c	68 00 00 00 00	 push	 OFFSET ??_C@_06JIJKOHKJ@ATTACK@
  00a11	ff 75 fc	 push	 DWORD PTR _poModule$[ebp]
  00a14	ff 15 00 00 00
	00		 call	 DWORD PTR __imp__PyModule_AddIntConstant
  00a1a	83 c4 0c	 add	 esp, 12			; 0000000cH

; 1476 : 	PyModule_AddIntConstant(poModule, "TARGET",			CPythonApplication::CURSOR_SHAPE_TARGET);

  00a1d	6a 02		 push	 2
  00a1f	68 00 00 00 00	 push	 OFFSET ??_C@_06JNJLBPLI@TARGET@
  00a24	ff 75 fc	 push	 DWORD PTR _poModule$[ebp]
  00a27	ff 15 00 00 00
	00		 call	 DWORD PTR __imp__PyModule_AddIntConstant
  00a2d	83 c4 0c	 add	 esp, 12			; 0000000cH

; 1477 : 	PyModule_AddIntConstant(poModule, "TALK",			CPythonApplication::CURSOR_SHAPE_TALK);

  00a30	6a 03		 push	 3
  00a32	68 00 00 00 00	 push	 OFFSET ??_C@_04LNOLLMNL@TALK@
  00a37	ff 75 fc	 push	 DWORD PTR _poModule$[ebp]
  00a3a	ff 15 00 00 00
	00		 call	 DWORD PTR __imp__PyModule_AddIntConstant
  00a40	83 c4 0c	 add	 esp, 12			; 0000000cH

; 1478 : 	PyModule_AddIntConstant(poModule, "CANT_GO",		CPythonApplication::CURSOR_SHAPE_CANT_GO);

  00a43	6a 04		 push	 4
  00a45	68 00 00 00 00	 push	 OFFSET ??_C@_07LGCIEODJ@CANT_GO@
  00a4a	ff 75 fc	 push	 DWORD PTR _poModule$[ebp]
  00a4d	ff 15 00 00 00
	00		 call	 DWORD PTR __imp__PyModule_AddIntConstant
  00a53	83 c4 0c	 add	 esp, 12			; 0000000cH

; 1479 : 	PyModule_AddIntConstant(poModule, "PICK",			CPythonApplication::CURSOR_SHAPE_PICK);

  00a56	6a 05		 push	 5
  00a58	68 00 00 00 00	 push	 OFFSET ??_C@_04IGIDHFMJ@PICK@
  00a5d	ff 75 fc	 push	 DWORD PTR _poModule$[ebp]
  00a60	ff 15 00 00 00
	00		 call	 DWORD PTR __imp__PyModule_AddIntConstant
  00a66	83 c4 0c	 add	 esp, 12			; 0000000cH

; 1480 : 
; 1481 : 	PyModule_AddIntConstant(poModule, "DOOR",			CPythonApplication::CURSOR_SHAPE_DOOR);

  00a69	6a 06		 push	 6
  00a6b	68 00 00 00 00	 push	 OFFSET ??_C@_04KEJCELCL@DOOR@
  00a70	ff 75 fc	 push	 DWORD PTR _poModule$[ebp]
  00a73	ff 15 00 00 00
	00		 call	 DWORD PTR __imp__PyModule_AddIntConstant
  00a79	83 c4 0c	 add	 esp, 12			; 0000000cH

; 1482 : 	PyModule_AddIntConstant(poModule, "CHAIR",			CPythonApplication::CURSOR_SHAPE_CHAIR);

  00a7c	6a 07		 push	 7
  00a7e	68 00 00 00 00	 push	 OFFSET ??_C@_05HLBMIDNH@CHAIR@
  00a83	ff 75 fc	 push	 DWORD PTR _poModule$[ebp]
  00a86	ff 15 00 00 00
	00		 call	 DWORD PTR __imp__PyModule_AddIntConstant
  00a8c	83 c4 0c	 add	 esp, 12			; 0000000cH

; 1483 : 	PyModule_AddIntConstant(poModule, "MAGIC",			CPythonApplication::CURSOR_SHAPE_MAGIC);

  00a8f	6a 08		 push	 8
  00a91	68 00 00 00 00	 push	 OFFSET ??_C@_05DKLEPMBK@MAGIC@
  00a96	ff 75 fc	 push	 DWORD PTR _poModule$[ebp]
  00a99	ff 15 00 00 00
	00		 call	 DWORD PTR __imp__PyModule_AddIntConstant
  00a9f	83 c4 0c	 add	 esp, 12			; 0000000cH

; 1484 : 	PyModule_AddIntConstant(poModule, "BUY",			CPythonApplication::CURSOR_SHAPE_BUY);

  00aa2	6a 09		 push	 9
  00aa4	68 00 00 00 00	 push	 OFFSET ??_C@_03OOKILKBD@BUY@
  00aa9	ff 75 fc	 push	 DWORD PTR _poModule$[ebp]
  00aac	ff 15 00 00 00
	00		 call	 DWORD PTR __imp__PyModule_AddIntConstant
  00ab2	83 c4 0c	 add	 esp, 12			; 0000000cH

; 1485 : 	PyModule_AddIntConstant(poModule, "SELL",			CPythonApplication::CURSOR_SHAPE_SELL);

  00ab5	6a 0a		 push	 10			; 0000000aH
  00ab7	68 00 00 00 00	 push	 OFFSET ??_C@_04MPOIGBFL@SELL@
  00abc	ff 75 fc	 push	 DWORD PTR _poModule$[ebp]
  00abf	ff 15 00 00 00
	00		 call	 DWORD PTR __imp__PyModule_AddIntConstant
  00ac5	83 c4 0c	 add	 esp, 12			; 0000000cH

; 1486 : 
; 1487 : 	PyModule_AddIntConstant(poModule, "CAMERA_ROTATE",	CPythonApplication::CURSOR_SHAPE_CAMERA_ROTATE);

  00ac8	6a 0b		 push	 11			; 0000000bH
  00aca	68 00 00 00 00	 push	 OFFSET ??_C@_0O@MAJOJEIM@CAMERA_ROTATE@
  00acf	ff 75 fc	 push	 DWORD PTR _poModule$[ebp]
  00ad2	ff 15 00 00 00
	00		 call	 DWORD PTR __imp__PyModule_AddIntConstant
  00ad8	83 c4 0c	 add	 esp, 12			; 0000000cH

; 1488 : 	PyModule_AddIntConstant(poModule, "HSIZE",			CPythonApplication::CURSOR_SHAPE_HSIZE);

  00adb	6a 0c		 push	 12			; 0000000cH
  00add	68 00 00 00 00	 push	 OFFSET ??_C@_05NILMGENH@HSIZE@
  00ae2	ff 75 fc	 push	 DWORD PTR _poModule$[ebp]
  00ae5	ff 15 00 00 00
	00		 call	 DWORD PTR __imp__PyModule_AddIntConstant
  00aeb	83 c4 0c	 add	 esp, 12			; 0000000cH

; 1489 : 	PyModule_AddIntConstant(poModule, "VSIZE",			CPythonApplication::CURSOR_SHAPE_VSIZE);

  00aee	6a 0d		 push	 13			; 0000000dH
  00af0	68 00 00 00 00	 push	 OFFSET ??_C@_05OBGAAHDM@VSIZE@
  00af5	ff 75 fc	 push	 DWORD PTR _poModule$[ebp]
  00af8	ff 15 00 00 00
	00		 call	 DWORD PTR __imp__PyModule_AddIntConstant
  00afe	83 c4 0c	 add	 esp, 12			; 0000000cH

; 1490 : 	PyModule_AddIntConstant(poModule, "HVSIZE",			CPythonApplication::CURSOR_SHAPE_HVSIZE);

  00b01	6a 0e		 push	 14			; 0000000eH
  00b03	68 00 00 00 00	 push	 OFFSET ??_C@_06LKCKECPP@HVSIZE@
  00b08	ff 75 fc	 push	 DWORD PTR _poModule$[ebp]
  00b0b	ff 15 00 00 00
	00		 call	 DWORD PTR __imp__PyModule_AddIntConstant
  00b11	83 c4 0c	 add	 esp, 12			; 0000000cH

; 1491 : 
; 1492 : 	PyModule_AddIntConstant(poModule, "CAMERA_TO_POSITIVE",		CPythonApplication::CAMERA_TO_POSITIVE);

  00b14	6a 01		 push	 1
  00b16	68 00 00 00 00	 push	 OFFSET ??_C@_0BD@BFBNCJCC@CAMERA_TO_POSITIVE@
  00b1b	ff 75 fc	 push	 DWORD PTR _poModule$[ebp]
  00b1e	ff 15 00 00 00
	00		 call	 DWORD PTR __imp__PyModule_AddIntConstant
  00b24	83 c4 0c	 add	 esp, 12			; 0000000cH

; 1493 : 	PyModule_AddIntConstant(poModule, "CAMERA_TO_NEGATIVE",		CPythonApplication::CAMERA_TO_NEGITIVE);

  00b27	6a ff		 push	 -1
  00b29	68 00 00 00 00	 push	 OFFSET ??_C@_0BD@JPBNJGLJ@CAMERA_TO_NEGATIVE@
  00b2e	ff 75 fc	 push	 DWORD PTR _poModule$[ebp]
  00b31	ff 15 00 00 00
	00		 call	 DWORD PTR __imp__PyModule_AddIntConstant
  00b37	83 c4 0c	 add	 esp, 12			; 0000000cH

; 1494 : 	PyModule_AddIntConstant(poModule, "CAMERA_STOP",			CPythonApplication::CAMERA_STOP);

  00b3a	6a 00		 push	 0
  00b3c	68 00 00 00 00	 push	 OFFSET ??_C@_0M@NJFGNKPE@CAMERA_STOP@
  00b41	ff 75 fc	 push	 DWORD PTR _poModule$[ebp]
  00b44	ff 15 00 00 00
	00		 call	 DWORD PTR __imp__PyModule_AddIntConstant
  00b4a	83 c4 0c	 add	 esp, 12			; 0000000cH

; 1495 : 
; 1496 : #ifdef ENABLE_COSTUME_SYSTEM
; 1497 : 	PyModule_AddIntConstant(poModule, "ENABLE_COSTUME_SYSTEM",	1);

  00b4d	6a 01		 push	 1
  00b4f	68 00 00 00 00	 push	 OFFSET ??_C@_0BG@NNONEOJP@ENABLE_COSTUME_SYSTEM@
  00b54	ff 75 fc	 push	 DWORD PTR _poModule$[ebp]
  00b57	ff 15 00 00 00
	00		 call	 DWORD PTR __imp__PyModule_AddIntConstant
  00b5d	83 c4 0c	 add	 esp, 12			; 0000000cH

; 1498 : #else
; 1499 : 	PyModule_AddIntConstant(poModule, "ENABLE_COSTUME_SYSTEM",	0);
; 1500 : #endif
; 1501 : 
; 1502 : #ifdef ENABLE_ENERGY_SYSTEM
; 1503 : 	PyModule_AddIntConstant(poModule, "ENABLE_ENERGY_SYSTEM",	1);

  00b60	6a 01		 push	 1
  00b62	68 00 00 00 00	 push	 OFFSET ??_C@_0BF@JNPGDOCA@ENABLE_ENERGY_SYSTEM@
  00b67	ff 75 fc	 push	 DWORD PTR _poModule$[ebp]
  00b6a	ff 15 00 00 00
	00		 call	 DWORD PTR __imp__PyModule_AddIntConstant
  00b70	83 c4 0c	 add	 esp, 12			; 0000000cH

; 1504 : #else
; 1505 : 	PyModule_AddIntConstant(poModule, "ENABLE_ENERGY_SYSTEM",	0);
; 1506 : #endif
; 1507 : 
; 1508 : #ifdef ENABLE_DRAGON_SOUL_SYSTEM
; 1509 : 	PyModule_AddIntConstant(poModule, "ENABLE_DRAGON_SOUL_SYSTEM",	1);
; 1510 : #else
; 1511 : 	PyModule_AddIntConstant(poModule, "ENABLE_DRAGON_SOUL_SYSTEM",	0);

  00b73	6a 00		 push	 0
  00b75	68 00 00 00 00	 push	 OFFSET ??_C@_0BK@MHKPDOOB@ENABLE_DRAGON_SOUL_SYSTEM@
  00b7a	ff 75 fc	 push	 DWORD PTR _poModule$[ebp]
  00b7d	ff 15 00 00 00
	00		 call	 DWORD PTR __imp__PyModule_AddIntConstant
  00b83	83 c4 0c	 add	 esp, 12			; 0000000cH

; 1512 : #endif
; 1513 : 
; 1514 : #ifdef ENABLE_NEW_EQUIPMENT_SYSTEM
; 1515 : 	PyModule_AddIntConstant(poModule, "ENABLE_NEW_EQUIPMENT_SYSTEM",	1);

  00b86	6a 01		 push	 1
  00b88	68 00 00 00 00	 push	 OFFSET ??_C@_0BM@LNFCINHP@ENABLE_NEW_EQUIPMENT_SYSTEM@
  00b8d	ff 75 fc	 push	 DWORD PTR _poModule$[ebp]
  00b90	ff 15 00 00 00
	00		 call	 DWORD PTR __imp__PyModule_AddIntConstant
  00b96	83 c4 0c	 add	 esp, 12			; 0000000cH

; 1516 : #else
; 1517 : 	PyModule_AddIntConstant(poModule, "ENABLE_NEW_EQUIPMENT_SYSTEM",	0);
; 1518 : #endif
; 1519 : 
; 1520 : #ifdef USE_OPENID
; 1521 : 	PyModule_AddIntConstant(poModule, "USE_OPENID",	1);
; 1522 : 	if (openid_test)
; 1523 : 		PyModule_AddIntConstant(poModule, "OPENID_TEST",	1);
; 1524 : 	else
; 1525 : 		PyModule_AddIntConstant(poModule, "OPENID_TEST",	0);
; 1526 : #else
; 1527 : 	PyModule_AddIntConstant(poModule, "USE_OPENID",	0);

  00b99	6a 00		 push	 0
  00b9b	68 00 00 00 00	 push	 OFFSET ??_C@_0L@GJPKGMAC@USE_OPENID@
  00ba0	ff 75 fc	 push	 DWORD PTR _poModule$[ebp]
  00ba3	ff 15 00 00 00
	00		 call	 DWORD PTR __imp__PyModule_AddIntConstant
  00ba9	83 c4 0c	 add	 esp, 12			; 0000000cH

; 1528 : 	PyModule_AddIntConstant(poModule, "OPENID_TEST",	0);

  00bac	6a 00		 push	 0
  00bae	68 00 00 00 00	 push	 OFFSET ??_C@_0M@HKJKCDHH@OPENID_TEST@
  00bb3	ff 75 fc	 push	 DWORD PTR _poModule$[ebp]
  00bb6	ff 15 00 00 00
	00		 call	 DWORD PTR __imp__PyModule_AddIntConstant
  00bbc	83 c4 0c	 add	 esp, 12			; 0000000cH

; 1529 : #endif /* USE_OPENID */
; 1530 : }

  00bbf	c9		 leave
  00bc0	c3		 ret	 0
?initapp@@YAXXZ ENDP					; initapp
_TEXT	ENDS
; Function compile flags: /Odspy
; File C:\Program Files (x86)\Microsoft Visual Studio\2019\Community\VC\Tools\MSVC\14.28.29333\include\xstring
; File C:\Program Files (x86)\Microsoft Visual Studio\2019\Community\VC\Tools\MSVC\14.28.29333\include\xmemory
; File C:\Program Files (x86)\Microsoft Visual Studio\2019\Community\VC\Tools\MSVC\14.28.29333\include\xstring
; File C:\Program Files (x86)\Microsoft Visual Studio\2019\Community\VC\Tools\MSVC\14.28.29333\include\xmemory
; File C:\Program Files (x86)\Microsoft Visual Studio\2019\Community\VC\Tools\MSVC\14.28.29333\include\xstring
;	COMDAT ?_Tidy_deallocate@?$basic_string@DU?$char_traits@D@std@@V?$allocator@D@2@@std@@AAEXXZ
_TEXT	SEGMENT
__Al$1 = -28						; size = 4
__Ptr$2 = -24						; size = 4
__Count$ = -20						; size = 4
$T3 = -16						; size = 4
tv68 = -12						; size = 4
_this$ = -8						; size = 4
$T4 = -2						; size = 1
$T5 = -1						; size = 1
?_Tidy_deallocate@?$basic_string@DU?$char_traits@D@std@@V?$allocator@D@2@@std@@AAEXXZ PROC ; std::basic_string<char,std::char_traits<char>,std::allocator<char> >::_Tidy_deallocate, COMDAT
; _this$ = ecx

; 4383 :     void _Tidy_deallocate() noexcept { // initialize buffer, deallocating any storage

  00000	55		 push	 ebp
  00001	8b ec		 mov	 ebp, esp
  00003	83 ec 1c	 sub	 esp, 28			; 0000001cH
  00006	89 4d f8	 mov	 DWORD PTR _this$[ebp], ecx

; 2227 :         return _BUF_SIZE <= _Myres;

  00009	8b 45 f8	 mov	 eax, DWORD PTR _this$[ebp]
  0000c	83 78 14 10	 cmp	 DWORD PTR [eax+20], 16	; 00000010H
  00010	72 09		 jb	 SHORT $LN9@Tidy_deall
  00012	c7 45 f4 01 00
	00 00		 mov	 DWORD PTR tv68[ebp], 1
  00019	eb 04		 jmp	 SHORT $LN10@Tidy_deall
$LN9@Tidy_deall:
  0001b	83 65 f4 00	 and	 DWORD PTR tv68[ebp], 0
$LN10@Tidy_deall:
  0001f	8a 45 f4	 mov	 al, BYTE PTR tv68[ebp]
  00022	88 45 ff	 mov	 BYTE PTR $T5[ebp], al

; 4384 :         _Mypair._Myval2._Orphan_all();
; 4385 :         if (_Mypair._Myval2._Large_string_engaged()) {

  00025	0f b6 45 ff	 movzx	 eax, BYTE PTR $T5[ebp]
  00029	85 c0		 test	 eax, eax
  0002b	74 34		 je	 SHORT $LN2@Tidy_deall

; 4386 :             const pointer _Ptr = _Mypair._Myval2._Bx._Ptr;

  0002d	8b 45 f8	 mov	 eax, DWORD PTR _this$[ebp]
  00030	8b 00		 mov	 eax, DWORD PTR [eax]
  00032	89 45 e8	 mov	 DWORD PTR __Ptr$2[ebp], eax

; 4409 :         return _Mypair._Get_first();

  00035	8b 45 f8	 mov	 eax, DWORD PTR _this$[ebp]
; File C:\Program Files (x86)\Microsoft Visual Studio\2019\Community\VC\Tools\MSVC\14.28.29333\include\xmemory

; 1347 :         return *this;

  00038	89 45 f0	 mov	 DWORD PTR $T3[ebp], eax
; File C:\Program Files (x86)\Microsoft Visual Studio\2019\Community\VC\Tools\MSVC\14.28.29333\include\xstring

; 4409 :         return _Mypair._Get_first();

  0003b	8b 45 f0	 mov	 eax, DWORD PTR $T3[ebp]
  0003e	89 45 e4	 mov	 DWORD PTR __Al$1[ebp], eax

; 4387 :             auto& _Al          = _Getal();
; 4388 :             _Destroy_in_place(_Mypair._Myval2._Bx._Ptr);

  00041	ff 75 f8	 push	 DWORD PTR _this$[ebp]
  00044	e8 00 00 00 00	 call	 ??$_Destroy_in_place@PAD@std@@YAXAAPAD@Z ; std::_Destroy_in_place<char *>
  00049	59		 pop	 ecx

; 4389 :             _Al.deallocate(_Ptr, _Mypair._Myval2._Myres + 1);

  0004a	8b 45 f8	 mov	 eax, DWORD PTR _this$[ebp]
  0004d	8b 40 14	 mov	 eax, DWORD PTR [eax+20]
  00050	40		 inc	 eax
  00051	89 45 ec	 mov	 DWORD PTR __Count$[ebp], eax
; File C:\Program Files (x86)\Microsoft Visual Studio\2019\Community\VC\Tools\MSVC\14.28.29333\include\xmemory

; 810  :         _Deallocate<_New_alignof<_Ty>>(_Ptr, sizeof(_Ty) * _Count);

  00054	ff 75 ec	 push	 DWORD PTR __Count$[ebp]
  00057	ff 75 e8	 push	 DWORD PTR __Ptr$2[ebp]
  0005a	e8 00 00 00 00	 call	 ??$_Deallocate@$07$0A@@std@@YAXPAXI@Z ; std::_Deallocate<8,0>
  0005f	59		 pop	 ecx
  00060	59		 pop	 ecx
$LN2@Tidy_deall:
; File C:\Program Files (x86)\Microsoft Visual Studio\2019\Community\VC\Tools\MSVC\14.28.29333\include\xstring

; 4392 :         _Mypair._Myval2._Mysize = 0;

  00061	8b 45 f8	 mov	 eax, DWORD PTR _this$[ebp]
  00064	83 60 10 00	 and	 DWORD PTR [eax+16], 0

; 4393 :         _Mypair._Myval2._Myres  = _BUF_SIZE - 1;

  00068	8b 45 f8	 mov	 eax, DWORD PTR _this$[ebp]
  0006b	c7 40 14 0f 00
	00 00		 mov	 DWORD PTR [eax+20], 15	; 0000000fH

; 4394 :         // the _Traits::assign is last so the codegen doesn't think the char write can alias this
; 4395 :         _Traits::assign(_Mypair._Myval2._Bx._Buf[0], _Elem());

  00072	c6 45 fe 00	 mov	 BYTE PTR $T4[ebp], 0
  00076	33 c0		 xor	 eax, eax
  00078	40		 inc	 eax
  00079	6b c0 00	 imul	 eax, eax, 0

; 428  :         _Left = _Right;

  0007c	8b 4d f8	 mov	 ecx, DWORD PTR _this$[ebp]
  0007f	8a 55 fe	 mov	 dl, BYTE PTR $T4[ebp]
  00082	88 14 01	 mov	 BYTE PTR [ecx+eax], dl

; 4396 :     }

  00085	c9		 leave
  00086	c3		 ret	 0
?_Tidy_deallocate@?$basic_string@DU?$char_traits@D@std@@V?$allocator@D@2@@std@@AAEXXZ ENDP ; std::basic_string<char,std::char_traits<char>,std::allocator<char> >::_Tidy_deallocate
_TEXT	ENDS
; Function compile flags: /Odspy
; File C:\Program Files (x86)\Microsoft Visual Studio\2019\Community\VC\Tools\MSVC\14.28.29333\include\xstring
;	COMDAT ?_Tidy_init@?$basic_string@DU?$char_traits@D@std@@V?$allocator@D@2@@std@@AAEXXZ
_TEXT	SEGMENT
_this$ = -8						; size = 4
$T1 = -1						; size = 1
?_Tidy_init@?$basic_string@DU?$char_traits@D@std@@V?$allocator@D@2@@std@@AAEXXZ PROC ; std::basic_string<char,std::char_traits<char>,std::allocator<char> >::_Tidy_init, COMDAT
; _this$ = ecx

; 4376 :     void _Tidy_init() noexcept { // initialize basic_string data members

  00000	55		 push	 ebp
  00001	8b ec		 mov	 ebp, esp
  00003	51		 push	 ecx
  00004	51		 push	 ecx
  00005	89 4d f8	 mov	 DWORD PTR _this$[ebp], ecx

; 4377 :         _Mypair._Myval2._Mysize = 0;

  00008	8b 45 f8	 mov	 eax, DWORD PTR _this$[ebp]
  0000b	83 60 10 00	 and	 DWORD PTR [eax+16], 0

; 4378 :         _Mypair._Myval2._Myres  = _BUF_SIZE - 1;

  0000f	8b 45 f8	 mov	 eax, DWORD PTR _this$[ebp]
  00012	c7 40 14 0f 00
	00 00		 mov	 DWORD PTR [eax+20], 15	; 0000000fH

; 4379 :         // the _Traits::assign is last so the codegen doesn't think the char write can alias this
; 4380 :         _Traits::assign(_Mypair._Myval2._Bx._Buf[0], _Elem());

  00019	c6 45 ff 00	 mov	 BYTE PTR $T1[ebp], 0
  0001d	33 c0		 xor	 eax, eax
  0001f	40		 inc	 eax
  00020	6b c0 00	 imul	 eax, eax, 0

; 428  :         _Left = _Right;

  00023	8b 4d f8	 mov	 ecx, DWORD PTR _this$[ebp]
  00026	8a 55 ff	 mov	 dl, BYTE PTR $T1[ebp]
  00029	88 14 01	 mov	 BYTE PTR [ecx+eax], dl

; 4381 :     }

  0002c	c9		 leave
  0002d	c3		 ret	 0
?_Tidy_init@?$basic_string@DU?$char_traits@D@std@@V?$allocator@D@2@@std@@AAEXXZ ENDP ; std::basic_string<char,std::char_traits<char>,std::allocator<char> >::_Tidy_init
_TEXT	ENDS
; Function compile flags: /Odspy
; File C:\Program Files (x86)\Microsoft Visual Studio\2019\Community\VC\Tools\MSVC\14.28.29333\include\xstring
; File C:\Program Files (x86)\Microsoft Visual Studio\2019\Community\VC\Tools\MSVC\14.28.29333\include\xstddef
; File C:\Program Files (x86)\Microsoft Visual Studio\2019\Community\VC\Tools\MSVC\14.28.29333\include\xstring
;	COMDAT ?c_str@?$basic_string@DU?$char_traits@D@std@@V?$allocator@D@2@@std@@QBEPBDXZ
_TEXT	SEGMENT
$T1 = -28						; size = 4
__Ptr$ = -24						; size = 4
_this$ = -20						; size = 4
__Result$2 = -16					; size = 4
tv80 = -12						; size = 4
_this$ = -8						; size = 4
$T3 = -1						; size = 1
?c_str@?$basic_string@DU?$char_traits@D@std@@V?$allocator@D@2@@std@@QBEPBDXZ PROC ; std::basic_string<char,std::char_traits<char>,std::allocator<char> >::c_str, COMDAT
; _this$ = ecx

; 3751 :     _NODISCARD _Ret_z_ const _Elem* c_str() const noexcept {

  00000	55		 push	 ebp
  00001	8b ec		 mov	 ebp, esp
  00003	83 ec 1c	 sub	 esp, 28			; 0000001cH
  00006	89 4d ec	 mov	 DWORD PTR _this$[ebp], ecx

; 3752 :         return _Mypair._Myval2._Myptr();

  00009	8b 45 ec	 mov	 eax, DWORD PTR _this$[ebp]
  0000c	89 45 f8	 mov	 DWORD PTR _this$[ebp], eax

; 2218 :         const value_type* _Result = _Bx._Buf;

  0000f	8b 45 f8	 mov	 eax, DWORD PTR _this$[ebp]
  00012	89 45 f0	 mov	 DWORD PTR __Result$2[ebp], eax

; 2227 :         return _BUF_SIZE <= _Myres;

  00015	8b 45 f8	 mov	 eax, DWORD PTR _this$[ebp]
  00018	83 78 14 10	 cmp	 DWORD PTR [eax+20], 16	; 00000010H
  0001c	72 09		 jb	 SHORT $LN9@c_str
  0001e	c7 45 f4 01 00
	00 00		 mov	 DWORD PTR tv80[ebp], 1
  00025	eb 04		 jmp	 SHORT $LN10@c_str
$LN9@c_str:
  00027	83 65 f4 00	 and	 DWORD PTR tv80[ebp], 0
$LN10@c_str:
  0002b	8a 45 f4	 mov	 al, BYTE PTR tv80[ebp]
  0002e	88 45 ff	 mov	 BYTE PTR $T3[ebp], al

; 2219 :         if (_Large_string_engaged()) {

  00031	0f b6 45 ff	 movzx	 eax, BYTE PTR $T3[ebp]
  00035	85 c0		 test	 eax, eax
  00037	74 0e		 je	 SHORT $LN4@c_str

; 2220 :             _Result = _Unfancy(_Bx._Ptr);

  00039	8b 45 f8	 mov	 eax, DWORD PTR _this$[ebp]
  0003c	8b 00		 mov	 eax, DWORD PTR [eax]
  0003e	89 45 e8	 mov	 DWORD PTR __Ptr$[ebp], eax
; File C:\Program Files (x86)\Microsoft Visual Studio\2019\Community\VC\Tools\MSVC\14.28.29333\include\xstddef

; 289  :     return _Ptr;

  00041	8b 45 e8	 mov	 eax, DWORD PTR __Ptr$[ebp]
  00044	89 45 f0	 mov	 DWORD PTR __Result$2[ebp], eax
$LN4@c_str:
; File C:\Program Files (x86)\Microsoft Visual Studio\2019\Community\VC\Tools\MSVC\14.28.29333\include\xstring

; 2223 :         return _Result;

  00047	8b 45 f0	 mov	 eax, DWORD PTR __Result$2[ebp]
  0004a	89 45 e4	 mov	 DWORD PTR $T1[ebp], eax

; 3752 :         return _Mypair._Myval2._Myptr();

  0004d	8b 45 e4	 mov	 eax, DWORD PTR $T1[ebp]

; 3753 :     }

  00050	c9		 leave
  00051	c3		 ret	 0
?c_str@?$basic_string@DU?$char_traits@D@std@@V?$allocator@D@2@@std@@QBEPBDXZ ENDP ; std::basic_string<char,std::char_traits<char>,std::allocator<char> >::c_str
_TEXT	ENDS
; Function compile flags: /Odspy
; File C:\Program Files (x86)\Microsoft Visual Studio\2019\Community\VC\Tools\MSVC\14.28.29333\include\xstring
;	COMDAT ??1?$basic_string@DU?$char_traits@D@std@@V?$allocator@D@2@@std@@QAE@XZ
_TEXT	SEGMENT
_this$ = -4						; size = 4
??1?$basic_string@DU?$char_traits@D@std@@V?$allocator@D@2@@std@@QAE@XZ PROC ; std::basic_string<char,std::char_traits<char>,std::allocator<char> >::~basic_string<char,std::char_traits<char>,std::allocator<char> >, COMDAT
; _this$ = ecx

; 2800 :     ~basic_string() noexcept {

  00000	55		 push	 ebp
  00001	8b ec		 mov	 ebp, esp
  00003	51		 push	 ecx
  00004	89 4d fc	 mov	 DWORD PTR _this$[ebp], ecx

; 2801 :         _Tidy_deallocate();

  00007	8b 4d fc	 mov	 ecx, DWORD PTR _this$[ebp]
  0000a	e8 00 00 00 00	 call	 ?_Tidy_deallocate@?$basic_string@DU?$char_traits@D@std@@V?$allocator@D@2@@std@@AAEXXZ ; std::basic_string<char,std::char_traits<char>,std::allocator<char> >::_Tidy_deallocate

; 2802 : #if _ITERATOR_DEBUG_LEVEL != 0
; 2803 :         auto&& _Alproxy          = _GET_PROXY_ALLOCATOR(_Alty, _Getal());
; 2804 :         const auto _To_delete    = _Mypair._Myval2._Myproxy;
; 2805 :         _Mypair._Myval2._Myproxy = nullptr;
; 2806 :         _Delete_plain_internal(_Alproxy, _To_delete);
; 2807 : #endif // _ITERATOR_DEBUG_LEVEL != 0
; 2808 :     }

  0000f	c9		 leave
  00010	c3		 ret	 0
??1?$basic_string@DU?$char_traits@D@std@@V?$allocator@D@2@@std@@QAE@XZ ENDP ; std::basic_string<char,std::char_traits<char>,std::allocator<char> >::~basic_string<char,std::char_traits<char>,std::allocator<char> >
_TEXT	ENDS
; Function compile flags: /Odspy
; File C:\Program Files (x86)\Microsoft Visual Studio\2019\Community\VC\Tools\MSVC\14.28.29333\include\xstring
; File C:\Program Files (x86)\Microsoft Visual Studio\2019\Community\VC\Tools\MSVC\14.28.29333\include\xmemory
; File C:\Program Files (x86)\Microsoft Visual Studio\2019\Community\VC\Tools\MSVC\14.28.29333\include\xstring
;	COMDAT ??0?$basic_string@DU?$char_traits@D@std@@V?$allocator@D@2@@std@@QAE@XZ
_TEXT	SEGMENT
_this$ = -12						; size = 4
_this$ = -8						; size = 4
_this$ = -4						; size = 4
??0?$basic_string@DU?$char_traits@D@std@@V?$allocator@D@2@@std@@QAE@XZ PROC ; std::basic_string<char,std::char_traits<char>,std::allocator<char> >::basic_string<char,std::char_traits<char>,std::allocator<char> >, COMDAT
; _this$ = ecx

; 2365 :     basic_string() noexcept(is_nothrow_default_constructible_v<_Alty>) : _Mypair(_Zero_then_variadic_args_t{}) {

  00000	55		 push	 ebp
  00001	8b ec		 mov	 ebp, esp
  00003	83 ec 0c	 sub	 esp, 12			; 0000000cH
  00006	89 4d fc	 mov	 DWORD PTR _this$[ebp], ecx
  00009	8b 45 fc	 mov	 eax, DWORD PTR _this$[ebp]
  0000c	89 45 f4	 mov	 DWORD PTR _this$[ebp], eax
; File C:\Program Files (x86)\Microsoft Visual Studio\2019\Community\VC\Tools\MSVC\14.28.29333\include\xmemory

; 1339 :         : _Ty1(), _Myval2(_STD forward<_Other2>(_Val2)...) {}

  0000f	8b 45 f4	 mov	 eax, DWORD PTR _this$[ebp]
  00012	89 45 f8	 mov	 DWORD PTR _this$[ebp], eax
; File C:\Program Files (x86)\Microsoft Visual Studio\2019\Community\VC\Tools\MSVC\14.28.29333\include\xstring

; 2198 :     _String_val() noexcept : _Bx(), _Mysize(0), _Myres(0) {}

  00015	8b 45 f8	 mov	 eax, DWORD PTR _this$[ebp]
  00018	83 60 10 00	 and	 DWORD PTR [eax+16], 0
  0001c	8b 45 f8	 mov	 eax, DWORD PTR _this$[ebp]
  0001f	83 60 14 00	 and	 DWORD PTR [eax+20], 0

; 2366 :         _Mypair._Myval2._Alloc_proxy(_GET_PROXY_ALLOCATOR(_Alty, _Getal()));
; 2367 :         _Tidy_init();

  00023	8b 4d fc	 mov	 ecx, DWORD PTR _this$[ebp]
  00026	e8 00 00 00 00	 call	 ?_Tidy_init@?$basic_string@DU?$char_traits@D@std@@V?$allocator@D@2@@std@@AAEXXZ ; std::basic_string<char,std::char_traits<char>,std::allocator<char> >::_Tidy_init

; 2368 :     }

  0002b	8b 45 fc	 mov	 eax, DWORD PTR _this$[ebp]
  0002e	c9		 leave
  0002f	c3		 ret	 0
??0?$basic_string@DU?$char_traits@D@std@@V?$allocator@D@2@@std@@QAE@XZ ENDP ; std::basic_string<char,std::char_traits<char>,std::allocator<char> >::basic_string<char,std::char_traits<char>,std::allocator<char> >
_TEXT	ENDS
; Function compile flags: /Odspy
; File C:\Program Files (x86)\Microsoft Visual Studio\2019\Community\VC\Tools\MSVC\14.28.29333\include\xstring
; File C:\Program Files (x86)\Microsoft Visual Studio\2019\Community\VC\Tools\MSVC\14.28.29333\include\xstddef
; File C:\Program Files (x86)\Microsoft Visual Studio\2019\Community\VC\Tools\MSVC\14.28.29333\include\xstring
;	COMDAT ?_Myptr@?$_String_val@U?$_Simple_types@D@std@@@std@@QBEPBDXZ
_TEXT	SEGMENT
__Ptr$ = -20						; size = 4
__Result$ = -16						; size = 4
tv76 = -12						; size = 4
_this$ = -8						; size = 4
$T1 = -1						; size = 1
?_Myptr@?$_String_val@U?$_Simple_types@D@std@@@std@@QBEPBDXZ PROC ; std::_String_val<std::_Simple_types<char> >::_Myptr, COMDAT
; _this$ = ecx

; 2217 :     const value_type* _Myptr() const noexcept {

  00000	55		 push	 ebp
  00001	8b ec		 mov	 ebp, esp
  00003	83 ec 14	 sub	 esp, 20			; 00000014H
  00006	89 4d f8	 mov	 DWORD PTR _this$[ebp], ecx

; 2218 :         const value_type* _Result = _Bx._Buf;

  00009	8b 45 f8	 mov	 eax, DWORD PTR _this$[ebp]
  0000c	89 45 f0	 mov	 DWORD PTR __Result$[ebp], eax

; 2227 :         return _BUF_SIZE <= _Myres;

  0000f	8b 45 f8	 mov	 eax, DWORD PTR _this$[ebp]
  00012	83 78 14 10	 cmp	 DWORD PTR [eax+20], 16	; 00000010H
  00016	72 09		 jb	 SHORT $LN6@Myptr
  00018	c7 45 f4 01 00
	00 00		 mov	 DWORD PTR tv76[ebp], 1
  0001f	eb 04		 jmp	 SHORT $LN7@Myptr
$LN6@Myptr:
  00021	83 65 f4 00	 and	 DWORD PTR tv76[ebp], 0
$LN7@Myptr:
  00025	8a 45 f4	 mov	 al, BYTE PTR tv76[ebp]
  00028	88 45 ff	 mov	 BYTE PTR $T1[ebp], al

; 2219 :         if (_Large_string_engaged()) {

  0002b	0f b6 45 ff	 movzx	 eax, BYTE PTR $T1[ebp]
  0002f	85 c0		 test	 eax, eax
  00031	74 0e		 je	 SHORT $LN2@Myptr

; 2220 :             _Result = _Unfancy(_Bx._Ptr);

  00033	8b 45 f8	 mov	 eax, DWORD PTR _this$[ebp]
  00036	8b 00		 mov	 eax, DWORD PTR [eax]
  00038	89 45 ec	 mov	 DWORD PTR __Ptr$[ebp], eax
; File C:\Program Files (x86)\Microsoft Visual Studio\2019\Community\VC\Tools\MSVC\14.28.29333\include\xstddef

; 289  :     return _Ptr;

  0003b	8b 45 ec	 mov	 eax, DWORD PTR __Ptr$[ebp]
  0003e	89 45 f0	 mov	 DWORD PTR __Result$[ebp], eax
$LN2@Myptr:
; File C:\Program Files (x86)\Microsoft Visual Studio\2019\Community\VC\Tools\MSVC\14.28.29333\include\xstring

; 2223 :         return _Result;

  00041	8b 45 f0	 mov	 eax, DWORD PTR __Result$[ebp]

; 2224 :     }

  00044	c9		 leave
  00045	c3		 ret	 0
?_Myptr@?$_String_val@U?$_Simple_types@D@std@@@std@@QBEPBDXZ ENDP ; std::_String_val<std::_Simple_types<char> >::_Myptr
_TEXT	ENDS
; Function compile flags: /Odspy
; File C:\Program Files (x86)\Microsoft Visual Studio\2019\Community\VC\Tools\MSVC\14.28.29333\include\xmemory
;	COMDAT ?_Adjust_manually_vector_aligned@std@@YAXAAPAXAAI@Z
_TEXT	SEGMENT
__Min_back_shift$ = -16					; size = 4
__Ptr_user$ = -12					; size = 4
__Ptr_container$ = -8					; size = 4
__Back_shift$ = -4					; size = 4
__Ptr$ = 8						; size = 4
__Bytes$ = 12						; size = 4
?_Adjust_manually_vector_aligned@std@@YAXAAPAXAAI@Z PROC ; std::_Adjust_manually_vector_aligned, COMDAT

; 132  : inline void _Adjust_manually_vector_aligned(void*& _Ptr, size_t& _Bytes) {

  00000	55		 push	 ebp
  00001	8b ec		 mov	 ebp, esp
  00003	83 ec 10	 sub	 esp, 16			; 00000010H

; 133  :     // adjust parameters from _Allocate_manually_vector_aligned to pass to operator delete
; 134  :     _Bytes += _Non_user_size;

  00006	8b 45 0c	 mov	 eax, DWORD PTR __Bytes$[ebp]
  00009	8b 00		 mov	 eax, DWORD PTR [eax]
  0000b	83 c0 23	 add	 eax, 35			; 00000023H
  0000e	8b 4d 0c	 mov	 ecx, DWORD PTR __Bytes$[ebp]
  00011	89 01		 mov	 DWORD PTR [ecx], eax

; 135  : 
; 136  :     const uintptr_t* const _Ptr_user = reinterpret_cast<uintptr_t*>(_Ptr);

  00013	8b 45 08	 mov	 eax, DWORD PTR __Ptr$[ebp]
  00016	8b 00		 mov	 eax, DWORD PTR [eax]
  00018	89 45 f4	 mov	 DWORD PTR __Ptr_user$[ebp], eax

; 137  :     const uintptr_t _Ptr_container   = _Ptr_user[-1];

  0001b	6a 04		 push	 4
  0001d	58		 pop	 eax
  0001e	6b c0 ff	 imul	 eax, eax, -1
  00021	8b 4d f4	 mov	 ecx, DWORD PTR __Ptr_user$[ebp]
  00024	8b 04 01	 mov	 eax, DWORD PTR [ecx+eax]
  00027	89 45 f8	 mov	 DWORD PTR __Ptr_container$[ebp], eax

; 138  : 
; 139  :     // If the following asserts, it likely means that we are performing
; 140  :     // an aligned delete on memory coming from an unaligned allocation.
; 141  :     _STL_ASSERT(_Ptr_user[-2] == _Big_allocation_sentinel, "invalid argument");
; 142  : 
; 143  :     // Extra paranoia on aligned allocation/deallocation; ensure _Ptr_container is
; 144  :     // in range [_Min_back_shift, _Non_user_size]
; 145  : #ifdef _DEBUG
; 146  :     constexpr uintptr_t _Min_back_shift = 2 * sizeof(void*);
; 147  : #else // ^^^ _DEBUG ^^^ // vvv !_DEBUG vvv
; 148  :     constexpr uintptr_t _Min_back_shift = sizeof(void*);

  0002a	c7 45 f0 04 00
	00 00		 mov	 DWORD PTR __Min_back_shift$[ebp], 4

; 149  : #endif // _DEBUG
; 150  :     const uintptr_t _Back_shift = reinterpret_cast<uintptr_t>(_Ptr) - _Ptr_container;

  00031	8b 45 08	 mov	 eax, DWORD PTR __Ptr$[ebp]
  00034	8b 00		 mov	 eax, DWORD PTR [eax]
  00036	2b 45 f8	 sub	 eax, DWORD PTR __Ptr_container$[ebp]
  00039	89 45 fc	 mov	 DWORD PTR __Back_shift$[ebp], eax
$LN4@Adjust_man:

; 151  :     _STL_VERIFY(_Back_shift >= _Min_back_shift && _Back_shift <= _Non_user_size, "invalid argument");

  0003c	83 7d fc 04	 cmp	 DWORD PTR __Back_shift$[ebp], 4
  00040	72 08		 jb	 SHORT $LN7@Adjust_man
  00042	83 7d fc 23	 cmp	 DWORD PTR __Back_shift$[ebp], 35 ; 00000023H
  00046	77 02		 ja	 SHORT $LN7@Adjust_man
  00048	eb 09		 jmp	 SHORT $LN2@Adjust_man
$LN7@Adjust_man:
  0004a	e8 00 00 00 00	 call	 __invalid_parameter_noinfo_noreturn
  0004f	33 c0		 xor	 eax, eax
  00051	75 f7		 jne	 SHORT $LN7@Adjust_man
$LN2@Adjust_man:
  00053	33 c0		 xor	 eax, eax
  00055	75 e5		 jne	 SHORT $LN4@Adjust_man

; 152  :     _Ptr = reinterpret_cast<void*>(_Ptr_container);

  00057	8b 45 08	 mov	 eax, DWORD PTR __Ptr$[ebp]
  0005a	8b 4d f8	 mov	 ecx, DWORD PTR __Ptr_container$[ebp]
  0005d	89 08		 mov	 DWORD PTR [eax], ecx
$LN10@Adjust_man:

; 153  : }

  0005f	c9		 leave
  00060	c3		 ret	 0
?_Adjust_manually_vector_aligned@std@@YAXAAPAXAAI@Z ENDP ; std::_Adjust_manually_vector_aligned
_TEXT	ENDS
; Function compile flags: /Odspy
; File D:\Metin2 Server Files\mainline\SRC_2014\Metin2Client\UserInterface\PythonApplicationModule.cpp
;	COMDAT ?__empty_global_delete@@YAXPAXI@Z
_TEXT	SEGMENT
___formal$ = 8						; size = 4
___formal$ = 12						; size = 4
?__empty_global_delete@@YAXPAXI@Z PROC			; __empty_global_delete, COMDAT

  00000	55		 push	 ebp
  00001	8b ec		 mov	 ebp, esp
  00003	5d		 pop	 ebp
  00004	c3		 ret	 0
?__empty_global_delete@@YAXPAXI@Z ENDP			; __empty_global_delete
_TEXT	ENDS
; Function compile flags: /Odspy
; File D:\Metin2 Server Files\mainline\SRC_2014\Metin2Client\UserInterface\PythonApplicationModule.cpp
;	COMDAT ?__empty_global_delete@@YAXPAX@Z
_TEXT	SEGMENT
___formal$ = 8						; size = 4
?__empty_global_delete@@YAXPAX@Z PROC			; __empty_global_delete, COMDAT

  00000	55		 push	 ebp
  00001	8b ec		 mov	 ebp, esp
  00003	5d		 pop	 ebp
  00004	c3		 ret	 0
?__empty_global_delete@@YAXPAX@Z ENDP			; __empty_global_delete
_TEXT	ENDS
; Function compile flags: /Odspy
;	COMDAT ??_H@YGXPAXIIP6EPAX0@Z@Z
_TEXT	SEGMENT
tv66 = -4						; size = 4
___t$ = 8						; size = 4
___s$ = 12						; size = 4
___n$ = 16						; size = 4
___f$ = 20						; size = 4
??_H@YGXPAXIIP6EPAX0@Z@Z PROC				; `vector constructor iterator', COMDAT
  00000	55		 push	 ebp
  00001	8b ec		 mov	 ebp, esp
  00003	51		 push	 ecx
$LN2@vector:
  00004	8b 45 10	 mov	 eax, DWORD PTR ___n$[ebp]
  00007	89 45 fc	 mov	 DWORD PTR tv66[ebp], eax
  0000a	8b 45 10	 mov	 eax, DWORD PTR ___n$[ebp]
  0000d	48		 dec	 eax
  0000e	89 45 10	 mov	 DWORD PTR ___n$[ebp], eax
  00011	83 7d fc 00	 cmp	 DWORD PTR tv66[ebp], 0
  00015	76 11		 jbe	 SHORT $LN1@vector
  00017	8b 4d 08	 mov	 ecx, DWORD PTR ___t$[ebp]
  0001a	ff 55 14	 call	 DWORD PTR ___f$[ebp]
  0001d	8b 45 08	 mov	 eax, DWORD PTR ___t$[ebp]
  00020	03 45 0c	 add	 eax, DWORD PTR ___s$[ebp]
  00023	89 45 08	 mov	 DWORD PTR ___t$[ebp], eax
  00026	eb dc		 jmp	 SHORT $LN2@vector
$LN1@vector:
  00028	c9		 leave
  00029	c2 10 00	 ret	 16			; 00000010H
??_H@YGXPAXIIP6EPAX0@Z@Z ENDP				; `vector constructor iterator'
_TEXT	ENDS
END
