; Listing generated by Microsoft (R) Optimizing Compiler Version 19.28.29335.0 

	TITLE	D:\Metin2 Server Files\mainline\SRC_2014\Metin2Client\UserInterface\PythonExchangeModule.cpp
	.686P
	.XMM
	include listing.inc
	.model	flat

INCLUDELIB LIBCMT
INCLUDELIB OLDNAMES

PUBLIC	??_H@YGXPAXIIP6EPAX0@Z@Z			; `vector constructor iterator'
PUBLIC	?initTrade@@YAXXZ				; initTrade
PUBLIC	?exchangeInitTrading@@YAPAU_object@@PAU1@0@Z	; exchangeInitTrading
PUBLIC	?exchangeisTrading@@YAPAU_object@@PAU1@0@Z	; exchangeisTrading
PUBLIC	?exchangeGetElkFromSelf@@YAPAU_object@@PAU1@0@Z	; exchangeGetElkFromSelf
PUBLIC	?exchangeGetElkFromTarget@@YAPAU_object@@PAU1@0@Z ; exchangeGetElkFromTarget
PUBLIC	?exchangeGetAcceptFromSelf@@YAPAU_object@@PAU1@0@Z ; exchangeGetAcceptFromSelf
PUBLIC	?exchangeGetAcceptFromTarget@@YAPAU_object@@PAU1@0@Z ; exchangeGetAcceptFromTarget
PUBLIC	?exchangeGetItemVnumFromSelf@@YAPAU_object@@PAU1@0@Z ; exchangeGetItemVnumFromSelf
PUBLIC	?exchangeGetItemVnumFromTarget@@YAPAU_object@@PAU1@0@Z ; exchangeGetItemVnumFromTarget
PUBLIC	?exchangeGetItemCountFromSelf@@YAPAU_object@@PAU1@0@Z ; exchangeGetItemCountFromSelf
PUBLIC	?exchangeGetItemCountFromTarget@@YAPAU_object@@PAU1@0@Z ; exchangeGetItemCountFromTarget
PUBLIC	?exchangeGetNameFromSelf@@YAPAU_object@@PAU1@0@Z ; exchangeGetNameFromSelf
PUBLIC	?exchangeGetNameFromTarget@@YAPAU_object@@PAU1@0@Z ; exchangeGetNameFromTarget
PUBLIC	?exchangeGetItemMetinSocketFromTarget@@YAPAU_object@@PAU1@0@Z ; exchangeGetItemMetinSocketFromTarget
PUBLIC	?exchangeGetItemMetinSocketFromSelf@@YAPAU_object@@PAU1@0@Z ; exchangeGetItemMetinSocketFromSelf
PUBLIC	?exchangeGetItemAttributeFromTarget@@YAPAU_object@@PAU1@0@Z ; exchangeGetItemAttributeFromTarget
PUBLIC	?exchangeGetItemAttributeFromSelf@@YAPAU_object@@PAU1@0@Z ; exchangeGetItemAttributeFromSelf
PUBLIC	?exchangeGetElkMode@@YAPAU_object@@PAU1@0@Z	; exchangeGetElkMode
PUBLIC	?exchangeSetElkMode@@YAPAU_object@@PAU1@0@Z	; exchangeSetElkMode
PUBLIC	?ms_singleton@?$CSingleton@VCPythonExchange@@@@0PAVCPythonExchange@@A ; CSingleton<CPythonExchange>::ms_singleton
PUBLIC	??_C@_01KBJDNOO@i@				; `string'
PUBLIC	??_C@_01LKDEMHDF@s@				; `string'
PUBLIC	??_C@_02PDIHAGKM@ii@				; `string'
PUBLIC	??_C@_01OJONOECF@b@				; `string'
PUBLIC	??_C@_0M@IAKFCGCD@InitTrading@			; `string'
PUBLIC	??_C@_09NDPDNFKM@isTrading@			; `string'
PUBLIC	??_C@_0P@FLKEMEBG@GetElkFromSelf@		; `string'
PUBLIC	??_C@_0BB@LMIEGPPN@GetElkFromTarget@		; `string'
PUBLIC	??_C@_0BE@IGEBIKPO@GetItemVnumFromSelf@		; `string'
PUBLIC	??_C@_0BG@LLEHKHGL@GetItemVnumFromTarget@	; `string'
PUBLIC	??_C@_0BF@MADFKIJK@GetItemCountFromSelf@	; `string'
PUBLIC	??_C@_0BH@GPLGAOFI@GetItemCountFromTarget@	; `string'
PUBLIC	??_C@_0BC@EFOHFOPD@GetAcceptFromSelf@		; `string'
PUBLIC	??_C@_0BE@IPFHAMEN@GetAcceptFromTarget@		; `string'
PUBLIC	??_C@_0BA@JBODFEMD@GetNameFromSelf@		; `string'
PUBLIC	??_C@_0BC@LAMEAHKE@GetNameFromTarget@		; `string'
PUBLIC	??_C@_0BN@FJAFLLEI@GetItemMetinSocketFromTarget@ ; `string'
PUBLIC	??_C@_0BL@OPELCAOA@GetItemMetinSocketFromSelf@	; `string'
PUBLIC	??_C@_0BL@CDOBAGEH@GetItemAttributeFromTarget@	; `string'
PUBLIC	??_C@_0BJ@LGADFCHN@GetItemAttributeFromSelf@	; `string'
PUBLIC	??_C@_0L@CKKAINKA@GetElkMode@			; `string'
PUBLIC	??_C@_0L@DEIPDKOJ@SetElkMode@			; `string'
PUBLIC	??_C@_08EPHOCFK@exchange@			; `string'
PUBLIC	??_C@_0BG@LKADPLLF@EXCHANGE_ITEM_MAX_NUM@	; `string'
EXTRN	__imp__Py_BuildValue:PROC
EXTRN	__imp__PyModule_AddIntConstant:PROC
EXTRN	__imp__Py_InitModule4:PROC
EXTRN	?PyTuple_GetInteger@@YA_NPAU_object@@HPAH@Z:PROC ; PyTuple_GetInteger
EXTRN	?Py_BuildException@@YAPAU_object@@PBDZZ:PROC	; Py_BuildException
EXTRN	?Py_BuildNone@@YAPAU_object@@XZ:PROC		; Py_BuildNone
EXTRN	?End@CPythonExchange@@QAEXXZ:PROC		; CPythonExchange::End
EXTRN	?isTrading@CPythonExchange@@QAE_NXZ:PROC	; CPythonExchange::isTrading
EXTRN	?GetNameFromSelf@CPythonExchange@@QAEPADXZ:PROC	; CPythonExchange::GetNameFromSelf
EXTRN	?GetNameFromTarget@CPythonExchange@@QAEPADXZ:PROC ; CPythonExchange::GetNameFromTarget
EXTRN	?GetElkFromTarget@CPythonExchange@@QAEKXZ:PROC	; CPythonExchange::GetElkFromTarget
EXTRN	?GetElkFromSelf@CPythonExchange@@QAEKXZ:PROC	; CPythonExchange::GetElkFromSelf
EXTRN	?GetItemVnumFromTarget@CPythonExchange@@QAEKE@Z:PROC ; CPythonExchange::GetItemVnumFromTarget
EXTRN	?GetItemVnumFromSelf@CPythonExchange@@QAEKE@Z:PROC ; CPythonExchange::GetItemVnumFromSelf
EXTRN	?GetItemCountFromTarget@CPythonExchange@@QAEEE@Z:PROC ; CPythonExchange::GetItemCountFromTarget
EXTRN	?GetItemCountFromSelf@CPythonExchange@@QAEEE@Z:PROC ; CPythonExchange::GetItemCountFromSelf
EXTRN	?GetItemMetinSocketFromTarget@CPythonExchange@@QAEKEH@Z:PROC ; CPythonExchange::GetItemMetinSocketFromTarget
EXTRN	?GetItemMetinSocketFromSelf@CPythonExchange@@QAEKEH@Z:PROC ; CPythonExchange::GetItemMetinSocketFromSelf
EXTRN	?GetItemAttributeFromTarget@CPythonExchange@@QAEXEHPAEPAF@Z:PROC ; CPythonExchange::GetItemAttributeFromTarget
EXTRN	?GetItemAttributeFromSelf@CPythonExchange@@QAEXEHPAEPAF@Z:PROC ; CPythonExchange::GetItemAttributeFromSelf
EXTRN	?GetAcceptFromTarget@CPythonExchange@@QAE_NXZ:PROC ; CPythonExchange::GetAcceptFromTarget
EXTRN	?GetAcceptFromSelf@CPythonExchange@@QAE_NXZ:PROC ; CPythonExchange::GetAcceptFromSelf
EXTRN	?GetElkMode@CPythonExchange@@QAE_NXZ:PROC	; CPythonExchange::GetElkMode
EXTRN	?SetElkMode@CPythonExchange@@QAEX_N@Z:PROC	; CPythonExchange::SetElkMode
;	COMDAT ?ms_singleton@?$CSingleton@VCPythonExchange@@@@0PAVCPythonExchange@@A
_BSS	SEGMENT
?ms_singleton@?$CSingleton@VCPythonExchange@@@@0PAVCPythonExchange@@A DD 01H DUP (?) ; CSingleton<CPythonExchange>::ms_singleton
_BSS	ENDS
;	COMDAT ??_C@_0BG@LKADPLLF@EXCHANGE_ITEM_MAX_NUM@
CONST	SEGMENT
??_C@_0BG@LKADPLLF@EXCHANGE_ITEM_MAX_NUM@ DB 'EXCHANGE_ITEM_MAX_NUM', 00H ; `string'
CONST	ENDS
;	COMDAT ??_C@_08EPHOCFK@exchange@
CONST	SEGMENT
??_C@_08EPHOCFK@exchange@ DB 'exchange', 00H		; `string'
CONST	ENDS
;	COMDAT ??_C@_0L@DEIPDKOJ@SetElkMode@
CONST	SEGMENT
??_C@_0L@DEIPDKOJ@SetElkMode@ DB 'SetElkMode', 00H	; `string'
CONST	ENDS
;	COMDAT ??_C@_0L@CKKAINKA@GetElkMode@
CONST	SEGMENT
??_C@_0L@CKKAINKA@GetElkMode@ DB 'GetElkMode', 00H	; `string'
CONST	ENDS
;	COMDAT ??_C@_0BJ@LGADFCHN@GetItemAttributeFromSelf@
CONST	SEGMENT
??_C@_0BJ@LGADFCHN@GetItemAttributeFromSelf@ DB 'GetItemAttributeFromSelf'
	DB	00H						; `string'
CONST	ENDS
;	COMDAT ??_C@_0BL@CDOBAGEH@GetItemAttributeFromTarget@
CONST	SEGMENT
??_C@_0BL@CDOBAGEH@GetItemAttributeFromTarget@ DB 'GetItemAttributeFromTa'
	DB	'rget', 00H					; `string'
CONST	ENDS
;	COMDAT ??_C@_0BL@OPELCAOA@GetItemMetinSocketFromSelf@
CONST	SEGMENT
??_C@_0BL@OPELCAOA@GetItemMetinSocketFromSelf@ DB 'GetItemMetinSocketFrom'
	DB	'Self', 00H					; `string'
CONST	ENDS
;	COMDAT ??_C@_0BN@FJAFLLEI@GetItemMetinSocketFromTarget@
CONST	SEGMENT
??_C@_0BN@FJAFLLEI@GetItemMetinSocketFromTarget@ DB 'GetItemMetinSocketFr'
	DB	'omTarget', 00H				; `string'
CONST	ENDS
;	COMDAT ??_C@_0BC@LAMEAHKE@GetNameFromTarget@
CONST	SEGMENT
??_C@_0BC@LAMEAHKE@GetNameFromTarget@ DB 'GetNameFromTarget', 00H ; `string'
CONST	ENDS
;	COMDAT ??_C@_0BA@JBODFEMD@GetNameFromSelf@
CONST	SEGMENT
??_C@_0BA@JBODFEMD@GetNameFromSelf@ DB 'GetNameFromSelf', 00H ; `string'
CONST	ENDS
;	COMDAT ??_C@_0BE@IPFHAMEN@GetAcceptFromTarget@
CONST	SEGMENT
??_C@_0BE@IPFHAMEN@GetAcceptFromTarget@ DB 'GetAcceptFromTarget', 00H ; `string'
CONST	ENDS
;	COMDAT ??_C@_0BC@EFOHFOPD@GetAcceptFromSelf@
CONST	SEGMENT
??_C@_0BC@EFOHFOPD@GetAcceptFromSelf@ DB 'GetAcceptFromSelf', 00H ; `string'
CONST	ENDS
;	COMDAT ??_C@_0BH@GPLGAOFI@GetItemCountFromTarget@
CONST	SEGMENT
??_C@_0BH@GPLGAOFI@GetItemCountFromTarget@ DB 'GetItemCountFromTarget', 00H ; `string'
CONST	ENDS
;	COMDAT ??_C@_0BF@MADFKIJK@GetItemCountFromSelf@
CONST	SEGMENT
??_C@_0BF@MADFKIJK@GetItemCountFromSelf@ DB 'GetItemCountFromSelf', 00H ; `string'
CONST	ENDS
;	COMDAT ??_C@_0BG@LLEHKHGL@GetItemVnumFromTarget@
CONST	SEGMENT
??_C@_0BG@LLEHKHGL@GetItemVnumFromTarget@ DB 'GetItemVnumFromTarget', 00H ; `string'
CONST	ENDS
;	COMDAT ??_C@_0BE@IGEBIKPO@GetItemVnumFromSelf@
CONST	SEGMENT
??_C@_0BE@IGEBIKPO@GetItemVnumFromSelf@ DB 'GetItemVnumFromSelf', 00H ; `string'
CONST	ENDS
;	COMDAT ??_C@_0BB@LMIEGPPN@GetElkFromTarget@
CONST	SEGMENT
??_C@_0BB@LMIEGPPN@GetElkFromTarget@ DB 'GetElkFromTarget', 00H ; `string'
CONST	ENDS
;	COMDAT ??_C@_0P@FLKEMEBG@GetElkFromSelf@
CONST	SEGMENT
??_C@_0P@FLKEMEBG@GetElkFromSelf@ DB 'GetElkFromSelf', 00H ; `string'
CONST	ENDS
;	COMDAT ??_C@_09NDPDNFKM@isTrading@
CONST	SEGMENT
??_C@_09NDPDNFKM@isTrading@ DB 'isTrading', 00H		; `string'
CONST	ENDS
;	COMDAT ??_C@_0M@IAKFCGCD@InitTrading@
CONST	SEGMENT
??_C@_0M@IAKFCGCD@InitTrading@ DB 'InitTrading', 00H	; `string'
CONST	ENDS
;	COMDAT ?s_methods@?1??initTrade@@YAXXZ@4PAUPyMethodDef@@A
_DATA	SEGMENT
?s_methods@?1??initTrade@@YAXXZ@4PAUPyMethodDef@@A DD FLAT:??_C@_0M@IAKFCGCD@InitTrading@ ; `initTrade'::`2'::s_methods
	DD	FLAT:?exchangeInitTrading@@YAPAU_object@@PAU1@0@Z
	DD	01H
	ORG $+4
	DD	FLAT:??_C@_09NDPDNFKM@isTrading@
	DD	FLAT:?exchangeisTrading@@YAPAU_object@@PAU1@0@Z
	DD	01H
	ORG $+4
	DD	FLAT:??_C@_0P@FLKEMEBG@GetElkFromSelf@
	DD	FLAT:?exchangeGetElkFromSelf@@YAPAU_object@@PAU1@0@Z
	DD	01H
	ORG $+4
	DD	FLAT:??_C@_0BB@LMIEGPPN@GetElkFromTarget@
	DD	FLAT:?exchangeGetElkFromTarget@@YAPAU_object@@PAU1@0@Z
	DD	01H
	ORG $+4
	DD	FLAT:??_C@_0BE@IGEBIKPO@GetItemVnumFromSelf@
	DD	FLAT:?exchangeGetItemVnumFromSelf@@YAPAU_object@@PAU1@0@Z
	DD	01H
	ORG $+4
	DD	FLAT:??_C@_0BG@LLEHKHGL@GetItemVnumFromTarget@
	DD	FLAT:?exchangeGetItemVnumFromTarget@@YAPAU_object@@PAU1@0@Z
	DD	01H
	ORG $+4
	DD	FLAT:??_C@_0BF@MADFKIJK@GetItemCountFromSelf@
	DD	FLAT:?exchangeGetItemCountFromSelf@@YAPAU_object@@PAU1@0@Z
	DD	01H
	ORG $+4
	DD	FLAT:??_C@_0BH@GPLGAOFI@GetItemCountFromTarget@
	DD	FLAT:?exchangeGetItemCountFromTarget@@YAPAU_object@@PAU1@0@Z
	DD	01H
	ORG $+4
	DD	FLAT:??_C@_0BC@EFOHFOPD@GetAcceptFromSelf@
	DD	FLAT:?exchangeGetAcceptFromSelf@@YAPAU_object@@PAU1@0@Z
	DD	01H
	ORG $+4
	DD	FLAT:??_C@_0BE@IPFHAMEN@GetAcceptFromTarget@
	DD	FLAT:?exchangeGetAcceptFromTarget@@YAPAU_object@@PAU1@0@Z
	DD	01H
	ORG $+4
	DD	FLAT:??_C@_0BA@JBODFEMD@GetNameFromSelf@
	DD	FLAT:?exchangeGetNameFromSelf@@YAPAU_object@@PAU1@0@Z
	DD	01H
	ORG $+4
	DD	FLAT:??_C@_0BC@LAMEAHKE@GetNameFromTarget@
	DD	FLAT:?exchangeGetNameFromTarget@@YAPAU_object@@PAU1@0@Z
	DD	01H
	ORG $+4
	DD	FLAT:??_C@_0BN@FJAFLLEI@GetItemMetinSocketFromTarget@
	DD	FLAT:?exchangeGetItemMetinSocketFromTarget@@YAPAU_object@@PAU1@0@Z
	DD	01H
	ORG $+4
	DD	FLAT:??_C@_0BL@OPELCAOA@GetItemMetinSocketFromSelf@
	DD	FLAT:?exchangeGetItemMetinSocketFromSelf@@YAPAU_object@@PAU1@0@Z
	DD	01H
	ORG $+4
	DD	FLAT:??_C@_0BL@CDOBAGEH@GetItemAttributeFromTarget@
	DD	FLAT:?exchangeGetItemAttributeFromTarget@@YAPAU_object@@PAU1@0@Z
	DD	01H
	ORG $+4
	DD	FLAT:??_C@_0BJ@LGADFCHN@GetItemAttributeFromSelf@
	DD	FLAT:?exchangeGetItemAttributeFromSelf@@YAPAU_object@@PAU1@0@Z
	DD	01H
	ORG $+4
	DD	FLAT:??_C@_0L@CKKAINKA@GetElkMode@
	DD	FLAT:?exchangeGetElkMode@@YAPAU_object@@PAU1@0@Z
	DD	01H
	ORG $+4
	DD	FLAT:??_C@_0L@DEIPDKOJ@SetElkMode@
	DD	FLAT:?exchangeSetElkMode@@YAPAU_object@@PAU1@0@Z
	DD	01H
	ORG $+4
	DD	00H
	DD	00H
	ORG $+8
_DATA	ENDS
;	COMDAT ??_C@_01OJONOECF@b@
CONST	SEGMENT
??_C@_01OJONOECF@b@ DB 'b', 00H				; `string'
CONST	ENDS
;	COMDAT ??_C@_02PDIHAGKM@ii@
CONST	SEGMENT
??_C@_02PDIHAGKM@ii@ DB 'ii', 00H			; `string'
CONST	ENDS
;	COMDAT ??_C@_01LKDEMHDF@s@
CONST	SEGMENT
??_C@_01LKDEMHDF@s@ DB 's', 00H				; `string'
CONST	ENDS
;	COMDAT ??_C@_01KBJDNOO@i@
CONST	SEGMENT
??_C@_01KBJDNOO@i@ DB 'i', 00H				; `string'
CONST	ENDS
; Function compile flags: /Odspy
; File D:\Metin2 Server Files\mainline\SRC_2014\Metin2Client\UserInterface\PythonExchangeModule.cpp
;	COMDAT ?exchangeSetElkMode@@YAPAU_object@@PAU1@0@Z
_TEXT	SEGMENT
_elk_mode$ = -8						; size = 4
tv82 = -4						; size = 4
_poTarget$ = 8						; size = 4
_poArgs$ = 12						; size = 4
?exchangeSetElkMode@@YAPAU_object@@PAU1@0@Z PROC	; exchangeSetElkMode, COMDAT

; 145  : {

  00000	55		 push	 ebp
  00001	8b ec		 mov	 ebp, esp
  00003	51		 push	 ecx
  00004	51		 push	 ecx

; 146  : 	int elk_mode;
; 147  : 
; 148  : 	if (!PyTuple_GetInteger(poArgs, 0, &elk_mode))

  00005	8d 45 f8	 lea	 eax, DWORD PTR _elk_mode$[ebp]
  00008	50		 push	 eax
  00009	6a 00		 push	 0
  0000b	ff 75 0c	 push	 DWORD PTR _poArgs$[ebp]
  0000e	e8 00 00 00 00	 call	 ?PyTuple_GetInteger@@YA_NPAU_object@@HPAH@Z ; PyTuple_GetInteger
  00013	83 c4 0c	 add	 esp, 12			; 0000000cH
  00016	0f b6 c0	 movzx	 eax, al
  00019	85 c0		 test	 eax, eax
  0001b	75 0a		 jne	 SHORT $LN2@exchangeSe

; 149  : 		return Py_BuildException();

  0001d	6a 00		 push	 0
  0001f	e8 00 00 00 00	 call	 ?Py_BuildException@@YAPAU_object@@PBDZZ ; Py_BuildException
  00024	59		 pop	 ecx
  00025	eb 23		 jmp	 SHORT $LN1@exchangeSe
$LN2@exchangeSe:

; 150  : 
; 151  : 	CPythonExchange::Instance().SetElkMode(elk_mode ? true : false);

  00027	83 7d f8 00	 cmp	 DWORD PTR _elk_mode$[ebp], 0
  0002b	74 06		 je	 SHORT $LN4@exchangeSe
  0002d	c6 45 fc 01	 mov	 BYTE PTR tv82[ebp], 1
  00031	eb 04		 jmp	 SHORT $LN6@exchangeSe
$LN4@exchangeSe:
  00033	c6 45 fc 00	 mov	 BYTE PTR tv82[ebp], 0
$LN6@exchangeSe:
  00037	ff 75 fc	 push	 DWORD PTR tv82[ebp]
  0003a	8b 0d 00 00 00
	00		 mov	 ecx, DWORD PTR ?ms_singleton@?$CSingleton@VCPythonExchange@@@@0PAVCPythonExchange@@A ; CSingleton<CPythonExchange>::ms_singleton
  00040	e8 00 00 00 00	 call	 ?SetElkMode@CPythonExchange@@QAEX_N@Z ; CPythonExchange::SetElkMode

; 152  : 	return Py_BuildNone();

  00045	e8 00 00 00 00	 call	 ?Py_BuildNone@@YAPAU_object@@XZ ; Py_BuildNone
$LN1@exchangeSe:

; 153  : }

  0004a	c9		 leave
  0004b	c3		 ret	 0
?exchangeSetElkMode@@YAPAU_object@@PAU1@0@Z ENDP	; exchangeSetElkMode
_TEXT	ENDS
; Function compile flags: /Odspy
; File D:\Metin2 Server Files\mainline\SRC_2014\Metin2Client\UserInterface\PythonExchangeModule.cpp
; File D:\Metin2 Server Files\mainline\SRC_2014\Metin2Client\eterBase\Singleton.h
; File D:\Metin2 Server Files\mainline\SRC_2014\Metin2Client\UserInterface\PythonExchangeModule.cpp
;	COMDAT ?exchangeGetElkMode@@YAPAU_object@@PAU1@0@Z
_TEXT	SEGMENT
$T1 = -4						; size = 4
_poTarget$ = 8						; size = 4
_poArgs$ = 12						; size = 4
?exchangeGetElkMode@@YAPAU_object@@PAU1@0@Z PROC	; exchangeGetElkMode, COMDAT

; 140  : {

  00000	55		 push	 ebp
  00001	8b ec		 mov	 ebp, esp
  00003	51		 push	 ecx
; File D:\Metin2 Server Files\mainline\SRC_2014\Metin2Client\eterBase\Singleton.h

; 27   : 		return (*ms_singleton);

  00004	a1 00 00 00 00	 mov	 eax, DWORD PTR ?ms_singleton@?$CSingleton@VCPythonExchange@@@@0PAVCPythonExchange@@A ; CSingleton<CPythonExchange>::ms_singleton
  00009	89 45 fc	 mov	 DWORD PTR $T1[ebp], eax
; File D:\Metin2 Server Files\mainline\SRC_2014\Metin2Client\UserInterface\PythonExchangeModule.cpp

; 141  : 	return Py_BuildValue("b", CPythonExchange::Instance().GetElkMode());

  0000c	8b 4d fc	 mov	 ecx, DWORD PTR $T1[ebp]
  0000f	e8 00 00 00 00	 call	 ?GetElkMode@CPythonExchange@@QAE_NXZ ; CPythonExchange::GetElkMode
  00014	0f b6 c0	 movzx	 eax, al
  00017	50		 push	 eax
  00018	68 00 00 00 00	 push	 OFFSET ??_C@_01OJONOECF@b@
  0001d	ff 15 00 00 00
	00		 call	 DWORD PTR __imp__Py_BuildValue
  00023	59		 pop	 ecx
  00024	59		 pop	 ecx

; 142  : }

  00025	c9		 leave
  00026	c3		 ret	 0
?exchangeGetElkMode@@YAPAU_object@@PAU1@0@Z ENDP	; exchangeGetElkMode
_TEXT	ENDS
; Function compile flags: /Odspy
; File D:\Metin2 Server Files\mainline\SRC_2014\Metin2Client\UserInterface\PythonExchangeModule.cpp
;	COMDAT ?exchangeGetItemAttributeFromSelf@@YAPAU_object@@PAU1@0@Z
_TEXT	SEGMENT
_pos$ = -16						; size = 4
_iAttrSlotPos$ = -12					; size = 4
_sValue$ = -8						; size = 2
_byType$ = -1						; size = 1
_poTarget$ = 8						; size = 4
_poArgs$ = 12						; size = 4
?exchangeGetItemAttributeFromSelf@@YAPAU_object@@PAU1@0@Z PROC ; exchangeGetItemAttributeFromSelf, COMDAT

; 124  : {

  00000	55		 push	 ebp
  00001	8b ec		 mov	 ebp, esp
  00003	83 ec 10	 sub	 esp, 16			; 00000010H

; 125  : 	int pos;
; 126  : 	if (!PyTuple_GetInteger(poArgs, 0, &pos))

  00006	8d 45 f0	 lea	 eax, DWORD PTR _pos$[ebp]
  00009	50		 push	 eax
  0000a	6a 00		 push	 0
  0000c	ff 75 0c	 push	 DWORD PTR _poArgs$[ebp]
  0000f	e8 00 00 00 00	 call	 ?PyTuple_GetInteger@@YA_NPAU_object@@HPAH@Z ; PyTuple_GetInteger
  00014	83 c4 0c	 add	 esp, 12			; 0000000cH
  00017	0f b6 c0	 movzx	 eax, al
  0001a	85 c0		 test	 eax, eax
  0001c	75 0a		 jne	 SHORT $LN2@exchangeGe

; 127  : 		return Py_BuildException();

  0001e	6a 00		 push	 0
  00020	e8 00 00 00 00	 call	 ?Py_BuildException@@YAPAU_object@@PBDZZ ; Py_BuildException
  00025	59		 pop	 ecx
  00026	eb 53		 jmp	 SHORT $LN1@exchangeGe
$LN2@exchangeGe:

; 128  : 	int iAttrSlotPos;
; 129  : 	if (!PyTuple_GetInteger(poArgs, 1, &iAttrSlotPos))

  00028	8d 45 f4	 lea	 eax, DWORD PTR _iAttrSlotPos$[ebp]
  0002b	50		 push	 eax
  0002c	6a 01		 push	 1
  0002e	ff 75 0c	 push	 DWORD PTR _poArgs$[ebp]
  00031	e8 00 00 00 00	 call	 ?PyTuple_GetInteger@@YA_NPAU_object@@HPAH@Z ; PyTuple_GetInteger
  00036	83 c4 0c	 add	 esp, 12			; 0000000cH
  00039	0f b6 c0	 movzx	 eax, al
  0003c	85 c0		 test	 eax, eax
  0003e	75 0a		 jne	 SHORT $LN5@exchangeGe

; 130  : 		return Py_BuildException();

  00040	6a 00		 push	 0
  00042	e8 00 00 00 00	 call	 ?Py_BuildException@@YAPAU_object@@PBDZZ ; Py_BuildException
  00047	59		 pop	 ecx
  00048	eb 31		 jmp	 SHORT $LN1@exchangeGe
$LN5@exchangeGe:

; 131  : 
; 132  : 	BYTE byType;
; 133  : 	short sValue;
; 134  : 	CPythonExchange::Instance().GetItemAttributeFromSelf(pos, iAttrSlotPos, &byType, &sValue);

  0004a	8d 45 f8	 lea	 eax, DWORD PTR _sValue$[ebp]
  0004d	50		 push	 eax
  0004e	8d 45 ff	 lea	 eax, DWORD PTR _byType$[ebp]
  00051	50		 push	 eax
  00052	ff 75 f4	 push	 DWORD PTR _iAttrSlotPos$[ebp]
  00055	ff 75 f0	 push	 DWORD PTR _pos$[ebp]
  00058	8b 0d 00 00 00
	00		 mov	 ecx, DWORD PTR ?ms_singleton@?$CSingleton@VCPythonExchange@@@@0PAVCPythonExchange@@A ; CSingleton<CPythonExchange>::ms_singleton
  0005e	e8 00 00 00 00	 call	 ?GetItemAttributeFromSelf@CPythonExchange@@QAEXEHPAEPAF@Z ; CPythonExchange::GetItemAttributeFromSelf

; 135  : 
; 136  : 	return Py_BuildValue("ii", byType, sValue);

  00063	0f bf 45 f8	 movsx	 eax, WORD PTR _sValue$[ebp]
  00067	50		 push	 eax
  00068	0f b6 45 ff	 movzx	 eax, BYTE PTR _byType$[ebp]
  0006c	50		 push	 eax
  0006d	68 00 00 00 00	 push	 OFFSET ??_C@_02PDIHAGKM@ii@
  00072	ff 15 00 00 00
	00		 call	 DWORD PTR __imp__Py_BuildValue
  00078	83 c4 0c	 add	 esp, 12			; 0000000cH
$LN1@exchangeGe:

; 137  : }

  0007b	c9		 leave
  0007c	c3		 ret	 0
?exchangeGetItemAttributeFromSelf@@YAPAU_object@@PAU1@0@Z ENDP ; exchangeGetItemAttributeFromSelf
_TEXT	ENDS
; Function compile flags: /Odspy
; File D:\Metin2 Server Files\mainline\SRC_2014\Metin2Client\UserInterface\PythonExchangeModule.cpp
;	COMDAT ?exchangeGetItemAttributeFromTarget@@YAPAU_object@@PAU1@0@Z
_TEXT	SEGMENT
_pos$ = -16						; size = 4
_iAttrSlotPos$ = -12					; size = 4
_sValue$ = -8						; size = 2
_byType$ = -1						; size = 1
_poTarget$ = 8						; size = 4
_poArgs$ = 12						; size = 4
?exchangeGetItemAttributeFromTarget@@YAPAU_object@@PAU1@0@Z PROC ; exchangeGetItemAttributeFromTarget, COMDAT

; 108  : {

  00000	55		 push	 ebp
  00001	8b ec		 mov	 ebp, esp
  00003	83 ec 10	 sub	 esp, 16			; 00000010H

; 109  : 	int pos;
; 110  : 	if (!PyTuple_GetInteger(poArgs, 0, &pos))

  00006	8d 45 f0	 lea	 eax, DWORD PTR _pos$[ebp]
  00009	50		 push	 eax
  0000a	6a 00		 push	 0
  0000c	ff 75 0c	 push	 DWORD PTR _poArgs$[ebp]
  0000f	e8 00 00 00 00	 call	 ?PyTuple_GetInteger@@YA_NPAU_object@@HPAH@Z ; PyTuple_GetInteger
  00014	83 c4 0c	 add	 esp, 12			; 0000000cH
  00017	0f b6 c0	 movzx	 eax, al
  0001a	85 c0		 test	 eax, eax
  0001c	75 0a		 jne	 SHORT $LN2@exchangeGe

; 111  : 		return Py_BuildException();

  0001e	6a 00		 push	 0
  00020	e8 00 00 00 00	 call	 ?Py_BuildException@@YAPAU_object@@PBDZZ ; Py_BuildException
  00025	59		 pop	 ecx
  00026	eb 53		 jmp	 SHORT $LN1@exchangeGe
$LN2@exchangeGe:

; 112  : 	int iAttrSlotPos;
; 113  : 	if (!PyTuple_GetInteger(poArgs, 1, &iAttrSlotPos))

  00028	8d 45 f4	 lea	 eax, DWORD PTR _iAttrSlotPos$[ebp]
  0002b	50		 push	 eax
  0002c	6a 01		 push	 1
  0002e	ff 75 0c	 push	 DWORD PTR _poArgs$[ebp]
  00031	e8 00 00 00 00	 call	 ?PyTuple_GetInteger@@YA_NPAU_object@@HPAH@Z ; PyTuple_GetInteger
  00036	83 c4 0c	 add	 esp, 12			; 0000000cH
  00039	0f b6 c0	 movzx	 eax, al
  0003c	85 c0		 test	 eax, eax
  0003e	75 0a		 jne	 SHORT $LN5@exchangeGe

; 114  : 		return Py_BuildException();

  00040	6a 00		 push	 0
  00042	e8 00 00 00 00	 call	 ?Py_BuildException@@YAPAU_object@@PBDZZ ; Py_BuildException
  00047	59		 pop	 ecx
  00048	eb 31		 jmp	 SHORT $LN1@exchangeGe
$LN5@exchangeGe:

; 115  : 
; 116  : 	BYTE byType;
; 117  : 	short sValue;
; 118  : 	CPythonExchange::Instance().GetItemAttributeFromTarget(pos, iAttrSlotPos, &byType, &sValue);

  0004a	8d 45 f8	 lea	 eax, DWORD PTR _sValue$[ebp]
  0004d	50		 push	 eax
  0004e	8d 45 ff	 lea	 eax, DWORD PTR _byType$[ebp]
  00051	50		 push	 eax
  00052	ff 75 f4	 push	 DWORD PTR _iAttrSlotPos$[ebp]
  00055	ff 75 f0	 push	 DWORD PTR _pos$[ebp]
  00058	8b 0d 00 00 00
	00		 mov	 ecx, DWORD PTR ?ms_singleton@?$CSingleton@VCPythonExchange@@@@0PAVCPythonExchange@@A ; CSingleton<CPythonExchange>::ms_singleton
  0005e	e8 00 00 00 00	 call	 ?GetItemAttributeFromTarget@CPythonExchange@@QAEXEHPAEPAF@Z ; CPythonExchange::GetItemAttributeFromTarget

; 119  : 
; 120  : 	return Py_BuildValue("ii", byType, sValue);

  00063	0f bf 45 f8	 movsx	 eax, WORD PTR _sValue$[ebp]
  00067	50		 push	 eax
  00068	0f b6 45 ff	 movzx	 eax, BYTE PTR _byType$[ebp]
  0006c	50		 push	 eax
  0006d	68 00 00 00 00	 push	 OFFSET ??_C@_02PDIHAGKM@ii@
  00072	ff 15 00 00 00
	00		 call	 DWORD PTR __imp__Py_BuildValue
  00078	83 c4 0c	 add	 esp, 12			; 0000000cH
$LN1@exchangeGe:

; 121  : }

  0007b	c9		 leave
  0007c	c3		 ret	 0
?exchangeGetItemAttributeFromTarget@@YAPAU_object@@PAU1@0@Z ENDP ; exchangeGetItemAttributeFromTarget
_TEXT	ENDS
; Function compile flags: /Odspy
; File D:\Metin2 Server Files\mainline\SRC_2014\Metin2Client\UserInterface\PythonExchangeModule.cpp
; File D:\Metin2 Server Files\mainline\SRC_2014\Metin2Client\eterBase\Singleton.h
; File D:\Metin2 Server Files\mainline\SRC_2014\Metin2Client\UserInterface\PythonExchangeModule.cpp
;	COMDAT ?exchangeGetItemMetinSocketFromSelf@@YAPAU_object@@PAU1@0@Z
_TEXT	SEGMENT
$T1 = -12						; size = 4
_pos$ = -8						; size = 4
_iMetinSocketPos$ = -4					; size = 4
_poTarget$ = 8						; size = 4
_poArgs$ = 12						; size = 4
?exchangeGetItemMetinSocketFromSelf@@YAPAU_object@@PAU1@0@Z PROC ; exchangeGetItemMetinSocketFromSelf, COMDAT

; 97   : {

  00000	55		 push	 ebp
  00001	8b ec		 mov	 ebp, esp
  00003	83 ec 0c	 sub	 esp, 12			; 0000000cH

; 98   : 	int pos;
; 99   : 	if (!PyTuple_GetInteger(poArgs, 0, &pos))

  00006	8d 45 f8	 lea	 eax, DWORD PTR _pos$[ebp]
  00009	50		 push	 eax
  0000a	6a 00		 push	 0
  0000c	ff 75 0c	 push	 DWORD PTR _poArgs$[ebp]
  0000f	e8 00 00 00 00	 call	 ?PyTuple_GetInteger@@YA_NPAU_object@@HPAH@Z ; PyTuple_GetInteger
  00014	83 c4 0c	 add	 esp, 12			; 0000000cH
  00017	0f b6 c0	 movzx	 eax, al
  0001a	85 c0		 test	 eax, eax
  0001c	75 0a		 jne	 SHORT $LN2@exchangeGe

; 100  : 		return Py_BuildException();

  0001e	6a 00		 push	 0
  00020	e8 00 00 00 00	 call	 ?Py_BuildException@@YAPAU_object@@PBDZZ ; Py_BuildException
  00025	59		 pop	 ecx
  00026	eb 46		 jmp	 SHORT $LN1@exchangeGe
$LN2@exchangeGe:

; 101  : 	int iMetinSocketPos;
; 102  : 	if (!PyTuple_GetInteger(poArgs, 1, &iMetinSocketPos))

  00028	8d 45 fc	 lea	 eax, DWORD PTR _iMetinSocketPos$[ebp]
  0002b	50		 push	 eax
  0002c	6a 01		 push	 1
  0002e	ff 75 0c	 push	 DWORD PTR _poArgs$[ebp]
  00031	e8 00 00 00 00	 call	 ?PyTuple_GetInteger@@YA_NPAU_object@@HPAH@Z ; PyTuple_GetInteger
  00036	83 c4 0c	 add	 esp, 12			; 0000000cH
  00039	0f b6 c0	 movzx	 eax, al
  0003c	85 c0		 test	 eax, eax
  0003e	75 0a		 jne	 SHORT $LN3@exchangeGe

; 103  : 		return Py_BuildException();

  00040	6a 00		 push	 0
  00042	e8 00 00 00 00	 call	 ?Py_BuildException@@YAPAU_object@@PBDZZ ; Py_BuildException
  00047	59		 pop	 ecx
  00048	eb 24		 jmp	 SHORT $LN1@exchangeGe
$LN3@exchangeGe:
; File D:\Metin2 Server Files\mainline\SRC_2014\Metin2Client\eterBase\Singleton.h

; 27   : 		return (*ms_singleton);

  0004a	a1 00 00 00 00	 mov	 eax, DWORD PTR ?ms_singleton@?$CSingleton@VCPythonExchange@@@@0PAVCPythonExchange@@A ; CSingleton<CPythonExchange>::ms_singleton
  0004f	89 45 f4	 mov	 DWORD PTR $T1[ebp], eax
; File D:\Metin2 Server Files\mainline\SRC_2014\Metin2Client\UserInterface\PythonExchangeModule.cpp

; 104  : 	return Py_BuildValue("i", CPythonExchange::Instance().GetItemMetinSocketFromSelf(pos, iMetinSocketPos));

  00052	ff 75 fc	 push	 DWORD PTR _iMetinSocketPos$[ebp]
  00055	ff 75 f8	 push	 DWORD PTR _pos$[ebp]
  00058	8b 4d f4	 mov	 ecx, DWORD PTR $T1[ebp]
  0005b	e8 00 00 00 00	 call	 ?GetItemMetinSocketFromSelf@CPythonExchange@@QAEKEH@Z ; CPythonExchange::GetItemMetinSocketFromSelf
  00060	50		 push	 eax
  00061	68 00 00 00 00	 push	 OFFSET ??_C@_01KBJDNOO@i@
  00066	ff 15 00 00 00
	00		 call	 DWORD PTR __imp__Py_BuildValue
  0006c	59		 pop	 ecx
  0006d	59		 pop	 ecx
$LN1@exchangeGe:

; 105  : }

  0006e	c9		 leave
  0006f	c3		 ret	 0
?exchangeGetItemMetinSocketFromSelf@@YAPAU_object@@PAU1@0@Z ENDP ; exchangeGetItemMetinSocketFromSelf
_TEXT	ENDS
; Function compile flags: /Odspy
; File D:\Metin2 Server Files\mainline\SRC_2014\Metin2Client\UserInterface\PythonExchangeModule.cpp
; File D:\Metin2 Server Files\mainline\SRC_2014\Metin2Client\eterBase\Singleton.h
; File D:\Metin2 Server Files\mainline\SRC_2014\Metin2Client\UserInterface\PythonExchangeModule.cpp
;	COMDAT ?exchangeGetItemMetinSocketFromTarget@@YAPAU_object@@PAU1@0@Z
_TEXT	SEGMENT
$T1 = -12						; size = 4
_pos$ = -8						; size = 4
_iMetinSocketPos$ = -4					; size = 4
_poTarget$ = 8						; size = 4
_poArgs$ = 12						; size = 4
?exchangeGetItemMetinSocketFromTarget@@YAPAU_object@@PAU1@0@Z PROC ; exchangeGetItemMetinSocketFromTarget, COMDAT

; 86   : {

  00000	55		 push	 ebp
  00001	8b ec		 mov	 ebp, esp
  00003	83 ec 0c	 sub	 esp, 12			; 0000000cH

; 87   : 	int pos;
; 88   : 	if (!PyTuple_GetInteger(poArgs, 0, &pos))

  00006	8d 45 f8	 lea	 eax, DWORD PTR _pos$[ebp]
  00009	50		 push	 eax
  0000a	6a 00		 push	 0
  0000c	ff 75 0c	 push	 DWORD PTR _poArgs$[ebp]
  0000f	e8 00 00 00 00	 call	 ?PyTuple_GetInteger@@YA_NPAU_object@@HPAH@Z ; PyTuple_GetInteger
  00014	83 c4 0c	 add	 esp, 12			; 0000000cH
  00017	0f b6 c0	 movzx	 eax, al
  0001a	85 c0		 test	 eax, eax
  0001c	75 0a		 jne	 SHORT $LN2@exchangeGe

; 89   : 		return Py_BuildException();

  0001e	6a 00		 push	 0
  00020	e8 00 00 00 00	 call	 ?Py_BuildException@@YAPAU_object@@PBDZZ ; Py_BuildException
  00025	59		 pop	 ecx
  00026	eb 46		 jmp	 SHORT $LN1@exchangeGe
$LN2@exchangeGe:

; 90   : 	int iMetinSocketPos;
; 91   : 	if (!PyTuple_GetInteger(poArgs, 1, &iMetinSocketPos))

  00028	8d 45 fc	 lea	 eax, DWORD PTR _iMetinSocketPos$[ebp]
  0002b	50		 push	 eax
  0002c	6a 01		 push	 1
  0002e	ff 75 0c	 push	 DWORD PTR _poArgs$[ebp]
  00031	e8 00 00 00 00	 call	 ?PyTuple_GetInteger@@YA_NPAU_object@@HPAH@Z ; PyTuple_GetInteger
  00036	83 c4 0c	 add	 esp, 12			; 0000000cH
  00039	0f b6 c0	 movzx	 eax, al
  0003c	85 c0		 test	 eax, eax
  0003e	75 0a		 jne	 SHORT $LN3@exchangeGe

; 92   : 		return Py_BuildException();

  00040	6a 00		 push	 0
  00042	e8 00 00 00 00	 call	 ?Py_BuildException@@YAPAU_object@@PBDZZ ; Py_BuildException
  00047	59		 pop	 ecx
  00048	eb 24		 jmp	 SHORT $LN1@exchangeGe
$LN3@exchangeGe:
; File D:\Metin2 Server Files\mainline\SRC_2014\Metin2Client\eterBase\Singleton.h

; 27   : 		return (*ms_singleton);

  0004a	a1 00 00 00 00	 mov	 eax, DWORD PTR ?ms_singleton@?$CSingleton@VCPythonExchange@@@@0PAVCPythonExchange@@A ; CSingleton<CPythonExchange>::ms_singleton
  0004f	89 45 f4	 mov	 DWORD PTR $T1[ebp], eax
; File D:\Metin2 Server Files\mainline\SRC_2014\Metin2Client\UserInterface\PythonExchangeModule.cpp

; 93   : 	return Py_BuildValue("i", CPythonExchange::Instance().GetItemMetinSocketFromTarget(pos, iMetinSocketPos));

  00052	ff 75 fc	 push	 DWORD PTR _iMetinSocketPos$[ebp]
  00055	ff 75 f8	 push	 DWORD PTR _pos$[ebp]
  00058	8b 4d f4	 mov	 ecx, DWORD PTR $T1[ebp]
  0005b	e8 00 00 00 00	 call	 ?GetItemMetinSocketFromTarget@CPythonExchange@@QAEKEH@Z ; CPythonExchange::GetItemMetinSocketFromTarget
  00060	50		 push	 eax
  00061	68 00 00 00 00	 push	 OFFSET ??_C@_01KBJDNOO@i@
  00066	ff 15 00 00 00
	00		 call	 DWORD PTR __imp__Py_BuildValue
  0006c	59		 pop	 ecx
  0006d	59		 pop	 ecx
$LN1@exchangeGe:

; 94   : }

  0006e	c9		 leave
  0006f	c3		 ret	 0
?exchangeGetItemMetinSocketFromTarget@@YAPAU_object@@PAU1@0@Z ENDP ; exchangeGetItemMetinSocketFromTarget
_TEXT	ENDS
; Function compile flags: /Odspy
; File D:\Metin2 Server Files\mainline\SRC_2014\Metin2Client\UserInterface\PythonExchangeModule.cpp
; File D:\Metin2 Server Files\mainline\SRC_2014\Metin2Client\eterBase\Singleton.h
; File D:\Metin2 Server Files\mainline\SRC_2014\Metin2Client\UserInterface\PythonExchangeModule.cpp
;	COMDAT ?exchangeGetNameFromTarget@@YAPAU_object@@PAU1@0@Z
_TEXT	SEGMENT
$T1 = -4						; size = 4
_poTarget$ = 8						; size = 4
_poArgs$ = 12						; size = 4
?exchangeGetNameFromTarget@@YAPAU_object@@PAU1@0@Z PROC	; exchangeGetNameFromTarget, COMDAT

; 81   : {

  00000	55		 push	 ebp
  00001	8b ec		 mov	 ebp, esp
  00003	51		 push	 ecx
; File D:\Metin2 Server Files\mainline\SRC_2014\Metin2Client\eterBase\Singleton.h

; 27   : 		return (*ms_singleton);

  00004	a1 00 00 00 00	 mov	 eax, DWORD PTR ?ms_singleton@?$CSingleton@VCPythonExchange@@@@0PAVCPythonExchange@@A ; CSingleton<CPythonExchange>::ms_singleton
  00009	89 45 fc	 mov	 DWORD PTR $T1[ebp], eax
; File D:\Metin2 Server Files\mainline\SRC_2014\Metin2Client\UserInterface\PythonExchangeModule.cpp

; 82   : 	return Py_BuildValue("s", CPythonExchange::Instance().GetNameFromTarget());

  0000c	8b 4d fc	 mov	 ecx, DWORD PTR $T1[ebp]
  0000f	e8 00 00 00 00	 call	 ?GetNameFromTarget@CPythonExchange@@QAEPADXZ ; CPythonExchange::GetNameFromTarget
  00014	50		 push	 eax
  00015	68 00 00 00 00	 push	 OFFSET ??_C@_01LKDEMHDF@s@
  0001a	ff 15 00 00 00
	00		 call	 DWORD PTR __imp__Py_BuildValue
  00020	59		 pop	 ecx
  00021	59		 pop	 ecx

; 83   : }

  00022	c9		 leave
  00023	c3		 ret	 0
?exchangeGetNameFromTarget@@YAPAU_object@@PAU1@0@Z ENDP	; exchangeGetNameFromTarget
_TEXT	ENDS
; Function compile flags: /Odspy
; File D:\Metin2 Server Files\mainline\SRC_2014\Metin2Client\UserInterface\PythonExchangeModule.cpp
; File D:\Metin2 Server Files\mainline\SRC_2014\Metin2Client\eterBase\Singleton.h
; File D:\Metin2 Server Files\mainline\SRC_2014\Metin2Client\UserInterface\PythonExchangeModule.cpp
;	COMDAT ?exchangeGetNameFromSelf@@YAPAU_object@@PAU1@0@Z
_TEXT	SEGMENT
$T1 = -4						; size = 4
_poTarget$ = 8						; size = 4
_poArgs$ = 12						; size = 4
?exchangeGetNameFromSelf@@YAPAU_object@@PAU1@0@Z PROC	; exchangeGetNameFromSelf, COMDAT

; 76   : {

  00000	55		 push	 ebp
  00001	8b ec		 mov	 ebp, esp
  00003	51		 push	 ecx
; File D:\Metin2 Server Files\mainline\SRC_2014\Metin2Client\eterBase\Singleton.h

; 27   : 		return (*ms_singleton);

  00004	a1 00 00 00 00	 mov	 eax, DWORD PTR ?ms_singleton@?$CSingleton@VCPythonExchange@@@@0PAVCPythonExchange@@A ; CSingleton<CPythonExchange>::ms_singleton
  00009	89 45 fc	 mov	 DWORD PTR $T1[ebp], eax
; File D:\Metin2 Server Files\mainline\SRC_2014\Metin2Client\UserInterface\PythonExchangeModule.cpp

; 77   : 	return Py_BuildValue("s", CPythonExchange::Instance().GetNameFromSelf());

  0000c	8b 4d fc	 mov	 ecx, DWORD PTR $T1[ebp]
  0000f	e8 00 00 00 00	 call	 ?GetNameFromSelf@CPythonExchange@@QAEPADXZ ; CPythonExchange::GetNameFromSelf
  00014	50		 push	 eax
  00015	68 00 00 00 00	 push	 OFFSET ??_C@_01LKDEMHDF@s@
  0001a	ff 15 00 00 00
	00		 call	 DWORD PTR __imp__Py_BuildValue
  00020	59		 pop	 ecx
  00021	59		 pop	 ecx

; 78   : }

  00022	c9		 leave
  00023	c3		 ret	 0
?exchangeGetNameFromSelf@@YAPAU_object@@PAU1@0@Z ENDP	; exchangeGetNameFromSelf
_TEXT	ENDS
; Function compile flags: /Odspy
; File D:\Metin2 Server Files\mainline\SRC_2014\Metin2Client\UserInterface\PythonExchangeModule.cpp
; File D:\Metin2 Server Files\mainline\SRC_2014\Metin2Client\eterBase\Singleton.h
; File D:\Metin2 Server Files\mainline\SRC_2014\Metin2Client\UserInterface\PythonExchangeModule.cpp
;	COMDAT ?exchangeGetItemCountFromTarget@@YAPAU_object@@PAU1@0@Z
_TEXT	SEGMENT
$T1 = -8						; size = 4
_pos$ = -4						; size = 4
_poTarget$ = 8						; size = 4
_poArgs$ = 12						; size = 4
?exchangeGetItemCountFromTarget@@YAPAU_object@@PAU1@0@Z PROC ; exchangeGetItemCountFromTarget, COMDAT

; 66   : {

  00000	55		 push	 ebp
  00001	8b ec		 mov	 ebp, esp
  00003	51		 push	 ecx
  00004	51		 push	 ecx

; 67   : 	int pos;
; 68   : 
; 69   : 	if (!PyTuple_GetInteger(poArgs, 0, &pos))

  00005	8d 45 fc	 lea	 eax, DWORD PTR _pos$[ebp]
  00008	50		 push	 eax
  00009	6a 00		 push	 0
  0000b	ff 75 0c	 push	 DWORD PTR _poArgs$[ebp]
  0000e	e8 00 00 00 00	 call	 ?PyTuple_GetInteger@@YA_NPAU_object@@HPAH@Z ; PyTuple_GetInteger
  00013	83 c4 0c	 add	 esp, 12			; 0000000cH
  00016	0f b6 c0	 movzx	 eax, al
  00019	85 c0		 test	 eax, eax
  0001b	75 0a		 jne	 SHORT $LN2@exchangeGe

; 70   : 		return Py_BuildException();

  0001d	6a 00		 push	 0
  0001f	e8 00 00 00 00	 call	 ?Py_BuildException@@YAPAU_object@@PBDZZ ; Py_BuildException
  00024	59		 pop	 ecx
  00025	eb 24		 jmp	 SHORT $LN1@exchangeGe
$LN2@exchangeGe:
; File D:\Metin2 Server Files\mainline\SRC_2014\Metin2Client\eterBase\Singleton.h

; 27   : 		return (*ms_singleton);

  00027	a1 00 00 00 00	 mov	 eax, DWORD PTR ?ms_singleton@?$CSingleton@VCPythonExchange@@@@0PAVCPythonExchange@@A ; CSingleton<CPythonExchange>::ms_singleton
  0002c	89 45 f8	 mov	 DWORD PTR $T1[ebp], eax
; File D:\Metin2 Server Files\mainline\SRC_2014\Metin2Client\UserInterface\PythonExchangeModule.cpp

; 72   : 	return Py_BuildValue("i", CPythonExchange::Instance().GetItemCountFromTarget((char) pos));

  0002f	ff 75 fc	 push	 DWORD PTR _pos$[ebp]
  00032	8b 4d f8	 mov	 ecx, DWORD PTR $T1[ebp]
  00035	e8 00 00 00 00	 call	 ?GetItemCountFromTarget@CPythonExchange@@QAEEE@Z ; CPythonExchange::GetItemCountFromTarget
  0003a	0f b6 c0	 movzx	 eax, al
  0003d	50		 push	 eax
  0003e	68 00 00 00 00	 push	 OFFSET ??_C@_01KBJDNOO@i@
  00043	ff 15 00 00 00
	00		 call	 DWORD PTR __imp__Py_BuildValue
  00049	59		 pop	 ecx
  0004a	59		 pop	 ecx
$LN1@exchangeGe:

; 73   : }

  0004b	c9		 leave
  0004c	c3		 ret	 0
?exchangeGetItemCountFromTarget@@YAPAU_object@@PAU1@0@Z ENDP ; exchangeGetItemCountFromTarget
_TEXT	ENDS
; Function compile flags: /Odspy
; File D:\Metin2 Server Files\mainline\SRC_2014\Metin2Client\UserInterface\PythonExchangeModule.cpp
; File D:\Metin2 Server Files\mainline\SRC_2014\Metin2Client\eterBase\Singleton.h
; File D:\Metin2 Server Files\mainline\SRC_2014\Metin2Client\UserInterface\PythonExchangeModule.cpp
;	COMDAT ?exchangeGetItemCountFromSelf@@YAPAU_object@@PAU1@0@Z
_TEXT	SEGMENT
$T1 = -8						; size = 4
_pos$ = -4						; size = 4
_poSelf$ = 8						; size = 4
_poArgs$ = 12						; size = 4
?exchangeGetItemCountFromSelf@@YAPAU_object@@PAU1@0@Z PROC ; exchangeGetItemCountFromSelf, COMDAT

; 56   : {

  00000	55		 push	 ebp
  00001	8b ec		 mov	 ebp, esp
  00003	51		 push	 ecx
  00004	51		 push	 ecx

; 57   : 	int pos;
; 58   : 
; 59   : 	if (!PyTuple_GetInteger(poArgs, 0, &pos))

  00005	8d 45 fc	 lea	 eax, DWORD PTR _pos$[ebp]
  00008	50		 push	 eax
  00009	6a 00		 push	 0
  0000b	ff 75 0c	 push	 DWORD PTR _poArgs$[ebp]
  0000e	e8 00 00 00 00	 call	 ?PyTuple_GetInteger@@YA_NPAU_object@@HPAH@Z ; PyTuple_GetInteger
  00013	83 c4 0c	 add	 esp, 12			; 0000000cH
  00016	0f b6 c0	 movzx	 eax, al
  00019	85 c0		 test	 eax, eax
  0001b	75 0a		 jne	 SHORT $LN2@exchangeGe

; 60   : 		return Py_BuildException();

  0001d	6a 00		 push	 0
  0001f	e8 00 00 00 00	 call	 ?Py_BuildException@@YAPAU_object@@PBDZZ ; Py_BuildException
  00024	59		 pop	 ecx
  00025	eb 24		 jmp	 SHORT $LN1@exchangeGe
$LN2@exchangeGe:
; File D:\Metin2 Server Files\mainline\SRC_2014\Metin2Client\eterBase\Singleton.h

; 27   : 		return (*ms_singleton);

  00027	a1 00 00 00 00	 mov	 eax, DWORD PTR ?ms_singleton@?$CSingleton@VCPythonExchange@@@@0PAVCPythonExchange@@A ; CSingleton<CPythonExchange>::ms_singleton
  0002c	89 45 f8	 mov	 DWORD PTR $T1[ebp], eax
; File D:\Metin2 Server Files\mainline\SRC_2014\Metin2Client\UserInterface\PythonExchangeModule.cpp

; 62   : 	return Py_BuildValue("i", CPythonExchange::Instance().GetItemCountFromSelf((char) pos));

  0002f	ff 75 fc	 push	 DWORD PTR _pos$[ebp]
  00032	8b 4d f8	 mov	 ecx, DWORD PTR $T1[ebp]
  00035	e8 00 00 00 00	 call	 ?GetItemCountFromSelf@CPythonExchange@@QAEEE@Z ; CPythonExchange::GetItemCountFromSelf
  0003a	0f b6 c0	 movzx	 eax, al
  0003d	50		 push	 eax
  0003e	68 00 00 00 00	 push	 OFFSET ??_C@_01KBJDNOO@i@
  00043	ff 15 00 00 00
	00		 call	 DWORD PTR __imp__Py_BuildValue
  00049	59		 pop	 ecx
  0004a	59		 pop	 ecx
$LN1@exchangeGe:

; 63   : }

  0004b	c9		 leave
  0004c	c3		 ret	 0
?exchangeGetItemCountFromSelf@@YAPAU_object@@PAU1@0@Z ENDP ; exchangeGetItemCountFromSelf
_TEXT	ENDS
; Function compile flags: /Odspy
; File D:\Metin2 Server Files\mainline\SRC_2014\Metin2Client\UserInterface\PythonExchangeModule.cpp
; File D:\Metin2 Server Files\mainline\SRC_2014\Metin2Client\eterBase\Singleton.h
; File D:\Metin2 Server Files\mainline\SRC_2014\Metin2Client\UserInterface\PythonExchangeModule.cpp
;	COMDAT ?exchangeGetItemVnumFromTarget@@YAPAU_object@@PAU1@0@Z
_TEXT	SEGMENT
$T1 = -8						; size = 4
_pos$ = -4						; size = 4
_poTarget$ = 8						; size = 4
_poArgs$ = 12						; size = 4
?exchangeGetItemVnumFromTarget@@YAPAU_object@@PAU1@0@Z PROC ; exchangeGetItemVnumFromTarget, COMDAT

; 46   : {

  00000	55		 push	 ebp
  00001	8b ec		 mov	 ebp, esp
  00003	51		 push	 ecx
  00004	51		 push	 ecx

; 47   : 	int pos;
; 48   : 
; 49   : 	if (!PyTuple_GetInteger(poArgs, 0, &pos))

  00005	8d 45 fc	 lea	 eax, DWORD PTR _pos$[ebp]
  00008	50		 push	 eax
  00009	6a 00		 push	 0
  0000b	ff 75 0c	 push	 DWORD PTR _poArgs$[ebp]
  0000e	e8 00 00 00 00	 call	 ?PyTuple_GetInteger@@YA_NPAU_object@@HPAH@Z ; PyTuple_GetInteger
  00013	83 c4 0c	 add	 esp, 12			; 0000000cH
  00016	0f b6 c0	 movzx	 eax, al
  00019	85 c0		 test	 eax, eax
  0001b	75 0a		 jne	 SHORT $LN2@exchangeGe

; 50   : 		return Py_BuildException();

  0001d	6a 00		 push	 0
  0001f	e8 00 00 00 00	 call	 ?Py_BuildException@@YAPAU_object@@PBDZZ ; Py_BuildException
  00024	59		 pop	 ecx
  00025	eb 21		 jmp	 SHORT $LN1@exchangeGe
$LN2@exchangeGe:
; File D:\Metin2 Server Files\mainline\SRC_2014\Metin2Client\eterBase\Singleton.h

; 27   : 		return (*ms_singleton);

  00027	a1 00 00 00 00	 mov	 eax, DWORD PTR ?ms_singleton@?$CSingleton@VCPythonExchange@@@@0PAVCPythonExchange@@A ; CSingleton<CPythonExchange>::ms_singleton
  0002c	89 45 f8	 mov	 DWORD PTR $T1[ebp], eax
; File D:\Metin2 Server Files\mainline\SRC_2014\Metin2Client\UserInterface\PythonExchangeModule.cpp

; 52   : 	return Py_BuildValue("i", CPythonExchange::Instance().GetItemVnumFromTarget((char) pos));

  0002f	ff 75 fc	 push	 DWORD PTR _pos$[ebp]
  00032	8b 4d f8	 mov	 ecx, DWORD PTR $T1[ebp]
  00035	e8 00 00 00 00	 call	 ?GetItemVnumFromTarget@CPythonExchange@@QAEKE@Z ; CPythonExchange::GetItemVnumFromTarget
  0003a	50		 push	 eax
  0003b	68 00 00 00 00	 push	 OFFSET ??_C@_01KBJDNOO@i@
  00040	ff 15 00 00 00
	00		 call	 DWORD PTR __imp__Py_BuildValue
  00046	59		 pop	 ecx
  00047	59		 pop	 ecx
$LN1@exchangeGe:

; 53   : }

  00048	c9		 leave
  00049	c3		 ret	 0
?exchangeGetItemVnumFromTarget@@YAPAU_object@@PAU1@0@Z ENDP ; exchangeGetItemVnumFromTarget
_TEXT	ENDS
; Function compile flags: /Odspy
; File D:\Metin2 Server Files\mainline\SRC_2014\Metin2Client\UserInterface\PythonExchangeModule.cpp
; File D:\Metin2 Server Files\mainline\SRC_2014\Metin2Client\eterBase\Singleton.h
; File D:\Metin2 Server Files\mainline\SRC_2014\Metin2Client\UserInterface\PythonExchangeModule.cpp
;	COMDAT ?exchangeGetItemVnumFromSelf@@YAPAU_object@@PAU1@0@Z
_TEXT	SEGMENT
$T1 = -8						; size = 4
_pos$ = -4						; size = 4
_poSelf$ = 8						; size = 4
_poArgs$ = 12						; size = 4
?exchangeGetItemVnumFromSelf@@YAPAU_object@@PAU1@0@Z PROC ; exchangeGetItemVnumFromSelf, COMDAT

; 36   : {

  00000	55		 push	 ebp
  00001	8b ec		 mov	 ebp, esp
  00003	51		 push	 ecx
  00004	51		 push	 ecx

; 37   : 	int pos;
; 38   : 
; 39   : 	if (!PyTuple_GetInteger(poArgs, 0, &pos))

  00005	8d 45 fc	 lea	 eax, DWORD PTR _pos$[ebp]
  00008	50		 push	 eax
  00009	6a 00		 push	 0
  0000b	ff 75 0c	 push	 DWORD PTR _poArgs$[ebp]
  0000e	e8 00 00 00 00	 call	 ?PyTuple_GetInteger@@YA_NPAU_object@@HPAH@Z ; PyTuple_GetInteger
  00013	83 c4 0c	 add	 esp, 12			; 0000000cH
  00016	0f b6 c0	 movzx	 eax, al
  00019	85 c0		 test	 eax, eax
  0001b	75 0a		 jne	 SHORT $LN2@exchangeGe

; 40   : 		return Py_BuildException();

  0001d	6a 00		 push	 0
  0001f	e8 00 00 00 00	 call	 ?Py_BuildException@@YAPAU_object@@PBDZZ ; Py_BuildException
  00024	59		 pop	 ecx
  00025	eb 21		 jmp	 SHORT $LN1@exchangeGe
$LN2@exchangeGe:
; File D:\Metin2 Server Files\mainline\SRC_2014\Metin2Client\eterBase\Singleton.h

; 27   : 		return (*ms_singleton);

  00027	a1 00 00 00 00	 mov	 eax, DWORD PTR ?ms_singleton@?$CSingleton@VCPythonExchange@@@@0PAVCPythonExchange@@A ; CSingleton<CPythonExchange>::ms_singleton
  0002c	89 45 f8	 mov	 DWORD PTR $T1[ebp], eax
; File D:\Metin2 Server Files\mainline\SRC_2014\Metin2Client\UserInterface\PythonExchangeModule.cpp

; 42   : 	return Py_BuildValue("i", CPythonExchange::Instance().GetItemVnumFromSelf((char) pos));

  0002f	ff 75 fc	 push	 DWORD PTR _pos$[ebp]
  00032	8b 4d f8	 mov	 ecx, DWORD PTR $T1[ebp]
  00035	e8 00 00 00 00	 call	 ?GetItemVnumFromSelf@CPythonExchange@@QAEKE@Z ; CPythonExchange::GetItemVnumFromSelf
  0003a	50		 push	 eax
  0003b	68 00 00 00 00	 push	 OFFSET ??_C@_01KBJDNOO@i@
  00040	ff 15 00 00 00
	00		 call	 DWORD PTR __imp__Py_BuildValue
  00046	59		 pop	 ecx
  00047	59		 pop	 ecx
$LN1@exchangeGe:

; 43   : }

  00048	c9		 leave
  00049	c3		 ret	 0
?exchangeGetItemVnumFromSelf@@YAPAU_object@@PAU1@0@Z ENDP ; exchangeGetItemVnumFromSelf
_TEXT	ENDS
; Function compile flags: /Odspy
; File D:\Metin2 Server Files\mainline\SRC_2014\Metin2Client\UserInterface\PythonExchangeModule.cpp
; File D:\Metin2 Server Files\mainline\SRC_2014\Metin2Client\eterBase\Singleton.h
; File D:\Metin2 Server Files\mainline\SRC_2014\Metin2Client\UserInterface\PythonExchangeModule.cpp
;	COMDAT ?exchangeGetAcceptFromTarget@@YAPAU_object@@PAU1@0@Z
_TEXT	SEGMENT
$T1 = -4						; size = 4
_poSelf$ = 8						; size = 4
_poArgs$ = 12						; size = 4
?exchangeGetAcceptFromTarget@@YAPAU_object@@PAU1@0@Z PROC ; exchangeGetAcceptFromTarget, COMDAT

; 31   : {

  00000	55		 push	 ebp
  00001	8b ec		 mov	 ebp, esp
  00003	51		 push	 ecx
; File D:\Metin2 Server Files\mainline\SRC_2014\Metin2Client\eterBase\Singleton.h

; 27   : 		return (*ms_singleton);

  00004	a1 00 00 00 00	 mov	 eax, DWORD PTR ?ms_singleton@?$CSingleton@VCPythonExchange@@@@0PAVCPythonExchange@@A ; CSingleton<CPythonExchange>::ms_singleton
  00009	89 45 fc	 mov	 DWORD PTR $T1[ebp], eax
; File D:\Metin2 Server Files\mainline\SRC_2014\Metin2Client\UserInterface\PythonExchangeModule.cpp

; 32   : 	return Py_BuildValue("i", CPythonExchange::Instance().GetAcceptFromTarget());

  0000c	8b 4d fc	 mov	 ecx, DWORD PTR $T1[ebp]
  0000f	e8 00 00 00 00	 call	 ?GetAcceptFromTarget@CPythonExchange@@QAE_NXZ ; CPythonExchange::GetAcceptFromTarget
  00014	0f b6 c0	 movzx	 eax, al
  00017	50		 push	 eax
  00018	68 00 00 00 00	 push	 OFFSET ??_C@_01KBJDNOO@i@
  0001d	ff 15 00 00 00
	00		 call	 DWORD PTR __imp__Py_BuildValue
  00023	59		 pop	 ecx
  00024	59		 pop	 ecx

; 33   : }

  00025	c9		 leave
  00026	c3		 ret	 0
?exchangeGetAcceptFromTarget@@YAPAU_object@@PAU1@0@Z ENDP ; exchangeGetAcceptFromTarget
_TEXT	ENDS
; Function compile flags: /Odspy
; File D:\Metin2 Server Files\mainline\SRC_2014\Metin2Client\UserInterface\PythonExchangeModule.cpp
; File D:\Metin2 Server Files\mainline\SRC_2014\Metin2Client\eterBase\Singleton.h
; File D:\Metin2 Server Files\mainline\SRC_2014\Metin2Client\UserInterface\PythonExchangeModule.cpp
;	COMDAT ?exchangeGetAcceptFromSelf@@YAPAU_object@@PAU1@0@Z
_TEXT	SEGMENT
$T1 = -4						; size = 4
_poSelf$ = 8						; size = 4
_poArgs$ = 12						; size = 4
?exchangeGetAcceptFromSelf@@YAPAU_object@@PAU1@0@Z PROC	; exchangeGetAcceptFromSelf, COMDAT

; 26   : {

  00000	55		 push	 ebp
  00001	8b ec		 mov	 ebp, esp
  00003	51		 push	 ecx
; File D:\Metin2 Server Files\mainline\SRC_2014\Metin2Client\eterBase\Singleton.h

; 27   : 		return (*ms_singleton);

  00004	a1 00 00 00 00	 mov	 eax, DWORD PTR ?ms_singleton@?$CSingleton@VCPythonExchange@@@@0PAVCPythonExchange@@A ; CSingleton<CPythonExchange>::ms_singleton
  00009	89 45 fc	 mov	 DWORD PTR $T1[ebp], eax
; File D:\Metin2 Server Files\mainline\SRC_2014\Metin2Client\UserInterface\PythonExchangeModule.cpp

; 27   : 	return Py_BuildValue("i", CPythonExchange::Instance().GetAcceptFromSelf());

  0000c	8b 4d fc	 mov	 ecx, DWORD PTR $T1[ebp]
  0000f	e8 00 00 00 00	 call	 ?GetAcceptFromSelf@CPythonExchange@@QAE_NXZ ; CPythonExchange::GetAcceptFromSelf
  00014	0f b6 c0	 movzx	 eax, al
  00017	50		 push	 eax
  00018	68 00 00 00 00	 push	 OFFSET ??_C@_01KBJDNOO@i@
  0001d	ff 15 00 00 00
	00		 call	 DWORD PTR __imp__Py_BuildValue
  00023	59		 pop	 ecx
  00024	59		 pop	 ecx

; 28   : }

  00025	c9		 leave
  00026	c3		 ret	 0
?exchangeGetAcceptFromSelf@@YAPAU_object@@PAU1@0@Z ENDP	; exchangeGetAcceptFromSelf
_TEXT	ENDS
; Function compile flags: /Odspy
; File D:\Metin2 Server Files\mainline\SRC_2014\Metin2Client\UserInterface\PythonExchangeModule.cpp
; File D:\Metin2 Server Files\mainline\SRC_2014\Metin2Client\eterBase\Singleton.h
; File D:\Metin2 Server Files\mainline\SRC_2014\Metin2Client\UserInterface\PythonExchangeModule.cpp
;	COMDAT ?exchangeGetElkFromTarget@@YAPAU_object@@PAU1@0@Z
_TEXT	SEGMENT
$T1 = -4						; size = 4
_poSelf$ = 8						; size = 4
_poArgs$ = 12						; size = 4
?exchangeGetElkFromTarget@@YAPAU_object@@PAU1@0@Z PROC	; exchangeGetElkFromTarget, COMDAT

; 21   : {

  00000	55		 push	 ebp
  00001	8b ec		 mov	 ebp, esp
  00003	51		 push	 ecx
; File D:\Metin2 Server Files\mainline\SRC_2014\Metin2Client\eterBase\Singleton.h

; 27   : 		return (*ms_singleton);

  00004	a1 00 00 00 00	 mov	 eax, DWORD PTR ?ms_singleton@?$CSingleton@VCPythonExchange@@@@0PAVCPythonExchange@@A ; CSingleton<CPythonExchange>::ms_singleton
  00009	89 45 fc	 mov	 DWORD PTR $T1[ebp], eax
; File D:\Metin2 Server Files\mainline\SRC_2014\Metin2Client\UserInterface\PythonExchangeModule.cpp

; 22   : 	return Py_BuildValue("i", CPythonExchange::Instance().GetElkFromTarget());

  0000c	8b 4d fc	 mov	 ecx, DWORD PTR $T1[ebp]
  0000f	e8 00 00 00 00	 call	 ?GetElkFromTarget@CPythonExchange@@QAEKXZ ; CPythonExchange::GetElkFromTarget
  00014	50		 push	 eax
  00015	68 00 00 00 00	 push	 OFFSET ??_C@_01KBJDNOO@i@
  0001a	ff 15 00 00 00
	00		 call	 DWORD PTR __imp__Py_BuildValue
  00020	59		 pop	 ecx
  00021	59		 pop	 ecx

; 23   : }

  00022	c9		 leave
  00023	c3		 ret	 0
?exchangeGetElkFromTarget@@YAPAU_object@@PAU1@0@Z ENDP	; exchangeGetElkFromTarget
_TEXT	ENDS
; Function compile flags: /Odspy
; File D:\Metin2 Server Files\mainline\SRC_2014\Metin2Client\UserInterface\PythonExchangeModule.cpp
; File D:\Metin2 Server Files\mainline\SRC_2014\Metin2Client\eterBase\Singleton.h
; File D:\Metin2 Server Files\mainline\SRC_2014\Metin2Client\UserInterface\PythonExchangeModule.cpp
;	COMDAT ?exchangeGetElkFromSelf@@YAPAU_object@@PAU1@0@Z
_TEXT	SEGMENT
$T1 = -4						; size = 4
_poSelf$ = 8						; size = 4
_poArgs$ = 12						; size = 4
?exchangeGetElkFromSelf@@YAPAU_object@@PAU1@0@Z PROC	; exchangeGetElkFromSelf, COMDAT

; 16   : {

  00000	55		 push	 ebp
  00001	8b ec		 mov	 ebp, esp
  00003	51		 push	 ecx
; File D:\Metin2 Server Files\mainline\SRC_2014\Metin2Client\eterBase\Singleton.h

; 27   : 		return (*ms_singleton);

  00004	a1 00 00 00 00	 mov	 eax, DWORD PTR ?ms_singleton@?$CSingleton@VCPythonExchange@@@@0PAVCPythonExchange@@A ; CSingleton<CPythonExchange>::ms_singleton
  00009	89 45 fc	 mov	 DWORD PTR $T1[ebp], eax
; File D:\Metin2 Server Files\mainline\SRC_2014\Metin2Client\UserInterface\PythonExchangeModule.cpp

; 17   : 	return Py_BuildValue("i", CPythonExchange::Instance().GetElkFromSelf());

  0000c	8b 4d fc	 mov	 ecx, DWORD PTR $T1[ebp]
  0000f	e8 00 00 00 00	 call	 ?GetElkFromSelf@CPythonExchange@@QAEKXZ ; CPythonExchange::GetElkFromSelf
  00014	50		 push	 eax
  00015	68 00 00 00 00	 push	 OFFSET ??_C@_01KBJDNOO@i@
  0001a	ff 15 00 00 00
	00		 call	 DWORD PTR __imp__Py_BuildValue
  00020	59		 pop	 ecx
  00021	59		 pop	 ecx

; 18   : }

  00022	c9		 leave
  00023	c3		 ret	 0
?exchangeGetElkFromSelf@@YAPAU_object@@PAU1@0@Z ENDP	; exchangeGetElkFromSelf
_TEXT	ENDS
; Function compile flags: /Odspy
; File D:\Metin2 Server Files\mainline\SRC_2014\Metin2Client\UserInterface\PythonExchangeModule.cpp
; File D:\Metin2 Server Files\mainline\SRC_2014\Metin2Client\eterBase\Singleton.h
; File D:\Metin2 Server Files\mainline\SRC_2014\Metin2Client\UserInterface\PythonExchangeModule.cpp
;	COMDAT ?exchangeisTrading@@YAPAU_object@@PAU1@0@Z
_TEXT	SEGMENT
$T1 = -4						; size = 4
_poSelf$ = 8						; size = 4
_poArgs$ = 12						; size = 4
?exchangeisTrading@@YAPAU_object@@PAU1@0@Z PROC		; exchangeisTrading, COMDAT

; 11   : {

  00000	55		 push	 ebp
  00001	8b ec		 mov	 ebp, esp
  00003	51		 push	 ecx
; File D:\Metin2 Server Files\mainline\SRC_2014\Metin2Client\eterBase\Singleton.h

; 27   : 		return (*ms_singleton);

  00004	a1 00 00 00 00	 mov	 eax, DWORD PTR ?ms_singleton@?$CSingleton@VCPythonExchange@@@@0PAVCPythonExchange@@A ; CSingleton<CPythonExchange>::ms_singleton
  00009	89 45 fc	 mov	 DWORD PTR $T1[ebp], eax
; File D:\Metin2 Server Files\mainline\SRC_2014\Metin2Client\UserInterface\PythonExchangeModule.cpp

; 12   : 	return Py_BuildValue("i", CPythonExchange::Instance().isTrading());

  0000c	8b 4d fc	 mov	 ecx, DWORD PTR $T1[ebp]
  0000f	e8 00 00 00 00	 call	 ?isTrading@CPythonExchange@@QAE_NXZ ; CPythonExchange::isTrading
  00014	0f b6 c0	 movzx	 eax, al
  00017	50		 push	 eax
  00018	68 00 00 00 00	 push	 OFFSET ??_C@_01KBJDNOO@i@
  0001d	ff 15 00 00 00
	00		 call	 DWORD PTR __imp__Py_BuildValue
  00023	59		 pop	 ecx
  00024	59		 pop	 ecx

; 13   : }

  00025	c9		 leave
  00026	c3		 ret	 0
?exchangeisTrading@@YAPAU_object@@PAU1@0@Z ENDP		; exchangeisTrading
_TEXT	ENDS
; Function compile flags: /Odspy
; File D:\Metin2 Server Files\mainline\SRC_2014\Metin2Client\UserInterface\PythonExchangeModule.cpp
;	COMDAT ?exchangeInitTrading@@YAPAU_object@@PAU1@0@Z
_TEXT	SEGMENT
_poSelf$ = 8						; size = 4
_poArgs$ = 12						; size = 4
?exchangeInitTrading@@YAPAU_object@@PAU1@0@Z PROC	; exchangeInitTrading, COMDAT

; 5    : {

  00000	55		 push	 ebp
  00001	8b ec		 mov	 ebp, esp

; 6    : 	CPythonExchange::Instance().End();

  00003	8b 0d 00 00 00
	00		 mov	 ecx, DWORD PTR ?ms_singleton@?$CSingleton@VCPythonExchange@@@@0PAVCPythonExchange@@A ; CSingleton<CPythonExchange>::ms_singleton
  00009	e8 00 00 00 00	 call	 ?End@CPythonExchange@@QAEXXZ ; CPythonExchange::End

; 7    : 	return Py_BuildNone();

  0000e	e8 00 00 00 00	 call	 ?Py_BuildNone@@YAPAU_object@@XZ ; Py_BuildNone

; 8    : }

  00013	5d		 pop	 ebp
  00014	c3		 ret	 0
?exchangeInitTrading@@YAPAU_object@@PAU1@0@Z ENDP	; exchangeInitTrading
_TEXT	ENDS
; Function compile flags: /Odspy
; File D:\Metin2 Server Files\mainline\SRC_2014\Metin2Client\UserInterface\PythonExchangeModule.cpp
;	COMDAT ?initTrade@@YAXXZ
_TEXT	SEGMENT
_poModule$ = -4						; size = 4
?initTrade@@YAXXZ PROC					; initTrade, COMDAT

; 156  : {

  00000	55		 push	 ebp
  00001	8b ec		 mov	 ebp, esp
  00003	51		 push	 ecx

; 157  : 	static PyMethodDef s_methods[] = 
; 158  : 	{
; 159  : 		{"InitTrading",					exchangeInitTrading,				METH_VARARGS},
; 160  : 		{"isTrading",					exchangeisTrading,					METH_VARARGS},
; 161  : 
; 162  : 		{"GetElkFromSelf",				exchangeGetElkFromSelf,				METH_VARARGS},
; 163  : 		{"GetElkFromTarget",			exchangeGetElkFromTarget,			METH_VARARGS},
; 164  : 
; 165  : 		{"GetItemVnumFromSelf",			exchangeGetItemVnumFromSelf,		METH_VARARGS},
; 166  : 		{"GetItemVnumFromTarget",		exchangeGetItemVnumFromTarget,		METH_VARARGS},
; 167  : 
; 168  : 		{"GetItemCountFromSelf",		exchangeGetItemCountFromSelf,		METH_VARARGS},
; 169  : 		{"GetItemCountFromTarget",		exchangeGetItemCountFromTarget,		METH_VARARGS},
; 170  : 
; 171  : 		{"GetAcceptFromSelf",			exchangeGetAcceptFromSelf,			METH_VARARGS},
; 172  : 		{"GetAcceptFromTarget",			exchangeGetAcceptFromTarget,		METH_VARARGS},
; 173  : 
; 174  : 		{"GetNameFromSelf",				exchangeGetNameFromSelf,			METH_VARARGS},
; 175  : 		{"GetNameFromTarget",			exchangeGetNameFromTarget,			METH_VARARGS},
; 176  : 
; 177  : 		{"GetItemMetinSocketFromTarget",	exchangeGetItemMetinSocketFromTarget,	METH_VARARGS},
; 178  : 		{"GetItemMetinSocketFromSelf",		exchangeGetItemMetinSocketFromSelf,		METH_VARARGS},
; 179  : 
; 180  : 		{"GetItemAttributeFromTarget",	exchangeGetItemAttributeFromTarget,	METH_VARARGS},
; 181  : 		{"GetItemAttributeFromSelf",	exchangeGetItemAttributeFromSelf,	METH_VARARGS},
; 182  : 
; 183  : 		{"GetElkMode",					exchangeGetElkMode,					METH_VARARGS},
; 184  : 		{"SetElkMode",					exchangeSetElkMode,					METH_VARARGS},
; 185  : 
; 186  : 		{NULL, NULL},
; 187  : 	};
; 188  : 
; 189  : 	PyObject * poModule = Py_InitModule("exchange", s_methods);

  00004	68 f5 03 00 00	 push	 1013			; 000003f5H
  00009	6a 00		 push	 0
  0000b	6a 00		 push	 0
  0000d	68 00 00 00 00	 push	 OFFSET ?s_methods@?1??initTrade@@YAXXZ@4PAUPyMethodDef@@A
  00012	68 00 00 00 00	 push	 OFFSET ??_C@_08EPHOCFK@exchange@
  00017	ff 15 00 00 00
	00		 call	 DWORD PTR __imp__Py_InitModule4
  0001d	83 c4 14	 add	 esp, 20			; 00000014H
  00020	89 45 fc	 mov	 DWORD PTR _poModule$[ebp], eax

; 190  : 	PyModule_AddIntConstant(poModule, "EXCHANGE_ITEM_MAX_NUM", CPythonExchange::EXCHANGE_ITEM_MAX_NUM);

  00023	6a 0c		 push	 12			; 0000000cH
  00025	68 00 00 00 00	 push	 OFFSET ??_C@_0BG@LKADPLLF@EXCHANGE_ITEM_MAX_NUM@
  0002a	ff 75 fc	 push	 DWORD PTR _poModule$[ebp]
  0002d	ff 15 00 00 00
	00		 call	 DWORD PTR __imp__PyModule_AddIntConstant
  00033	83 c4 0c	 add	 esp, 12			; 0000000cH

; 191  : }

  00036	c9		 leave
  00037	c3		 ret	 0
?initTrade@@YAXXZ ENDP					; initTrade
_TEXT	ENDS
; Function compile flags: /Odspy
;	COMDAT ??_H@YGXPAXIIP6EPAX0@Z@Z
_TEXT	SEGMENT
tv66 = -4						; size = 4
___t$ = 8						; size = 4
___s$ = 12						; size = 4
___n$ = 16						; size = 4
___f$ = 20						; size = 4
??_H@YGXPAXIIP6EPAX0@Z@Z PROC				; `vector constructor iterator', COMDAT
  00000	55		 push	 ebp
  00001	8b ec		 mov	 ebp, esp
  00003	51		 push	 ecx
$LN2@vector:
  00004	8b 45 10	 mov	 eax, DWORD PTR ___n$[ebp]
  00007	89 45 fc	 mov	 DWORD PTR tv66[ebp], eax
  0000a	8b 45 10	 mov	 eax, DWORD PTR ___n$[ebp]
  0000d	48		 dec	 eax
  0000e	89 45 10	 mov	 DWORD PTR ___n$[ebp], eax
  00011	83 7d fc 00	 cmp	 DWORD PTR tv66[ebp], 0
  00015	76 11		 jbe	 SHORT $LN1@vector
  00017	8b 4d 08	 mov	 ecx, DWORD PTR ___t$[ebp]
  0001a	ff 55 14	 call	 DWORD PTR ___f$[ebp]
  0001d	8b 45 08	 mov	 eax, DWORD PTR ___t$[ebp]
  00020	03 45 0c	 add	 eax, DWORD PTR ___s$[ebp]
  00023	89 45 08	 mov	 DWORD PTR ___t$[ebp], eax
  00026	eb dc		 jmp	 SHORT $LN2@vector
$LN1@vector:
  00028	c9		 leave
  00029	c2 10 00	 ret	 16			; 00000010H
??_H@YGXPAXIIP6EPAX0@Z@Z ENDP				; `vector constructor iterator'
_TEXT	ENDS
END
