; Listing generated by Microsoft (R) Optimizing Compiler Version 19.28.29335.0 

	TITLE	D:\Metin2 Server Files\mainline\SRC_2014\Metin2Client\UserInterface\PythonNetworkStreamModule.cpp
	.686P
	.XMM
	include listing.inc
	.model	flat

INCLUDELIB LIBCMT
INCLUDELIB OLDNAMES

PUBLIC	??_H@YGXPAXIIP6EPAX0@Z@Z			; `vector constructor iterator'
PUBLIC	??0exception@std@@QAE@ABV01@@Z			; std::exception::exception
PUBLIC	?what@exception@std@@UBEPBDXZ			; std::exception::what
PUBLIC	??_Gexception@std@@UAEPAXI@Z			; std::exception::`scalar deleting destructor'
PUBLIC	??0bad_alloc@std@@QAE@ABV01@@Z			; std::bad_alloc::bad_alloc
PUBLIC	??_Gbad_alloc@std@@UAEPAXI@Z			; std::bad_alloc::`scalar deleting destructor'
PUBLIC	??0bad_array_new_length@std@@QAE@XZ		; std::bad_array_new_length::bad_array_new_length
PUBLIC	??1bad_array_new_length@std@@UAE@XZ		; std::bad_array_new_length::~bad_array_new_length
PUBLIC	??0bad_array_new_length@std@@QAE@ABV01@@Z	; std::bad_array_new_length::bad_array_new_length
PUBLIC	??_Gbad_array_new_length@std@@UAEPAXI@Z		; std::bad_array_new_length::`scalar deleting destructor'
PUBLIC	?_Throw_bad_array_new_length@std@@YAXXZ		; std::_Throw_bad_array_new_length
PUBLIC	?_Adjust_manually_vector_aligned@std@@YAXAAPAXAAI@Z ; std::_Adjust_manually_vector_aligned
PUBLIC	?_Xlen_string@std@@YAXXZ			; std::_Xlen_string
PUBLIC	?_Myptr@?$_String_val@U?$_Simple_types@D@std@@@std@@QAEPADXZ ; std::_String_val<std::_Simple_types<char> >::_Myptr
PUBLIC	?_Myptr@?$_String_val@U?$_Simple_types@D@std@@@std@@QBEPBDXZ ; std::_String_val<std::_Simple_types<char> >::_Myptr
PUBLIC	??0?$basic_string@DU?$char_traits@D@std@@V?$allocator@D@2@@std@@QAE@ABV01@@Z ; std::basic_string<char,std::char_traits<char>,std::allocator<char> >::basic_string<char,std::char_traits<char>,std::allocator<char> >
PUBLIC	??0?$basic_string@DU?$char_traits@D@std@@V?$allocator@D@2@@std@@QAE@XZ ; std::basic_string<char,std::char_traits<char>,std::allocator<char> >::basic_string<char,std::char_traits<char>,std::allocator<char> >
PUBLIC	??0?$basic_string@DU?$char_traits@D@std@@V?$allocator@D@2@@std@@QAE@QBD@Z ; std::basic_string<char,std::char_traits<char>,std::allocator<char> >::basic_string<char,std::char_traits<char>,std::allocator<char> >
PUBLIC	??0?$basic_string@DU?$char_traits@D@std@@V?$allocator@D@2@@std@@QAE@$$QAV01@@Z ; std::basic_string<char,std::char_traits<char>,std::allocator<char> >::basic_string<char,std::char_traits<char>,std::allocator<char> >
PUBLIC	?_Construct_lv_contents@?$basic_string@DU?$char_traits@D@std@@V?$allocator@D@2@@std@@AAEXABV12@@Z ; std::basic_string<char,std::char_traits<char>,std::allocator<char> >::_Construct_lv_contents
PUBLIC	??1?$basic_string@DU?$char_traits@D@std@@V?$allocator@D@2@@std@@QAE@XZ ; std::basic_string<char,std::char_traits<char>,std::allocator<char> >::~basic_string<char,std::char_traits<char>,std::allocator<char> >
PUBLIC	?assign@?$basic_string@DU?$char_traits@D@std@@V?$allocator@D@2@@std@@QAEAAV12@QBDI@Z ; std::basic_string<char,std::char_traits<char>,std::allocator<char> >::assign
PUBLIC	?c_str@?$basic_string@DU?$char_traits@D@std@@V?$allocator@D@2@@std@@QBEPBDXZ ; std::basic_string<char,std::char_traits<char>,std::allocator<char> >::c_str
PUBLIC	?max_size@?$basic_string@DU?$char_traits@D@std@@V?$allocator@D@2@@std@@QBEIXZ ; std::basic_string<char,std::char_traits<char>,std::allocator<char> >::max_size
PUBLIC	?_Calculate_growth@?$basic_string@DU?$char_traits@D@std@@V?$allocator@D@2@@std@@ABEII@Z ; std::basic_string<char,std::char_traits<char>,std::allocator<char> >::_Calculate_growth
PUBLIC	?_Tidy_init@?$basic_string@DU?$char_traits@D@std@@V?$allocator@D@2@@std@@AAEXXZ ; std::basic_string<char,std::char_traits<char>,std::allocator<char> >::_Tidy_init
PUBLIC	?_Tidy_deallocate@?$basic_string@DU?$char_traits@D@std@@V?$allocator@D@2@@std@@AAEXXZ ; std::basic_string<char,std::char_traits<char>,std::allocator<char> >::_Tidy_deallocate
PUBLIC	??1?$_Compressed_pair@V?$allocator@D@std@@V?$_String_val@U?$_Simple_types@D@std@@@2@$00@std@@QAE@XZ ; std::_Compressed_pair<std::allocator<char>,std::_String_val<std::_Simple_types<char> >,1>::~_Compressed_pair<std::allocator<char>,std::_String_val<std::_Simple_types<char> >,1>
PUBLIC	?deallocate@?$allocator@K@std@@QAEXQAKI@Z	; std::allocator<unsigned long>::deallocate
PUBLIC	??1?$vector@KV?$allocator@K@std@@@std@@QAE@XZ	; std::vector<unsigned long,std::allocator<unsigned long> >::~vector<unsigned long,std::allocator<unsigned long> >
PUBLIC	?clear@?$vector@KV?$allocator@K@std@@@std@@QAEXXZ ; std::vector<unsigned long,std::allocator<unsigned long> >::clear
PUBLIC	?_Destroy@?$vector@KV?$allocator@K@std@@@std@@AAEXPAK0@Z ; std::vector<unsigned long,std::allocator<unsigned long> >::_Destroy
PUBLIC	?_Calculate_growth@?$vector@KV?$allocator@K@std@@@std@@ABEII@Z ; std::vector<unsigned long,std::allocator<unsigned long> >::_Calculate_growth
PUBLIC	?_Change_array@?$vector@KV?$allocator@K@std@@@std@@AAEXQAKII@Z ; std::vector<unsigned long,std::allocator<unsigned long> >::_Change_array
PUBLIC	?_Tidy@?$vector@KV?$allocator@K@std@@@std@@AAEXXZ ; std::vector<unsigned long,std::allocator<unsigned long> >::_Tidy
PUBLIC	?_Xlength@?$vector@KV?$allocator@K@std@@@std@@CAXXZ ; std::vector<unsigned long,std::allocator<unsigned long> >::_Xlength
PUBLIC	?initnet@@YAXXZ					; initnet
PUBLIC	??$_Destroy_in_place@PAD@std@@YAXAAPAD@Z	; std::_Destroy_in_place<char *>
PUBLIC	??$_Reallocate_for@V<lambda_9366063389c5f42a00a5088cf24e69de>@@PBD@?$basic_string@DU?$char_traits@D@std@@V?$allocator@D@2@@std@@AAEAAV01@IV<lambda_9366063389c5f42a00a5088cf24e69de>@@PBD@Z ; std::basic_string<char,std::char_traits<char>,std::allocator<char> >::_Reallocate_for<<lambda_9366063389c5f42a00a5088cf24e69de>,char const *>
PUBLIC	??$_Construct_in_place@PADABQAD@std@@YAXAAPADABQAD@Z ; std::_Construct_in_place<char *,char * const &>
PUBLIC	??$_Deallocate@$07$0A@@std@@YAXPAXI@Z		; std::_Deallocate<8,0>
PUBLIC	??$_Allocate@$07U_Default_allocate_traits@std@@$0A@@std@@YAPAXI@Z ; std::_Allocate<8,std::_Default_allocate_traits,0>
PUBLIC	??$_Allocate_manually_vector_aligned@U_Default_allocate_traits@std@@@std@@YAPAXI@Z ; std::_Allocate_manually_vector_aligned<std::_Default_allocate_traits>
PUBLIC	??0?$list@V?$basic_string@DU?$char_traits@D@std@@V?$allocator@D@2@@std@@V?$allocator@V?$basic_string@DU?$char_traits@D@std@@V?$allocator@D@2@@std@@@2@@std@@QAE@XZ ; std::list<std::basic_string<char,std::char_traits<char>,std::allocator<char> >,std::allocator<std::basic_string<char,std::char_traits<char>,std::allocator<char> > > >::list<std::basic_string<char,std::char_traits<char>,std::allocator<char> >,std::allocator<std::basic_string<char,std::char_traits<char>,std::allocator<char> > > >
PUBLIC	?_Unchecked_erase@?$list@V?$basic_string@DU?$char_traits@D@std@@V?$allocator@D@2@@std@@V?$allocator@V?$basic_string@DU?$char_traits@D@std@@V?$allocator@D@2@@std@@@2@@std@@AAEPAU?$_List_node@V?$basic_string@DU?$char_traits@D@std@@V?$allocator@D@2@@std@@PAX@2@QAU32@@Z ; std::list<std::basic_string<char,std::char_traits<char>,std::allocator<char> >,std::allocator<std::basic_string<char,std::char_traits<char>,std::allocator<char> > > >::_Unchecked_erase
PUBLIC	?_Tidy@?$list@V?$basic_string@DU?$char_traits@D@std@@V?$allocator@D@2@@std@@V?$allocator@V?$basic_string@DU?$char_traits@D@std@@V?$allocator@D@2@@std@@@2@@std@@AAEXXZ ; std::list<std::basic_string<char,std::char_traits<char>,std::allocator<char> >,std::allocator<std::basic_string<char,std::char_traits<char>,std::allocator<char> > > >::_Tidy
PUBLIC	?_Alloc_sentinel_and_proxy@?$list@V?$basic_string@DU?$char_traits@D@std@@V?$allocator@D@2@@std@@V?$allocator@V?$basic_string@DU?$char_traits@D@std@@V?$allocator@D@2@@std@@@2@@std@@AAEXXZ ; std::list<std::basic_string<char,std::char_traits<char>,std::allocator<char> >,std::allocator<std::basic_string<char,std::char_traits<char>,std::allocator<char> > > >::_Alloc_sentinel_and_proxy
PUBLIC	?netGetBettingGuildWarValue@@YAPAU_object@@PAU1@0@Z ; netGetBettingGuildWarValue
PUBLIC	?netSetServerInfo@@YAPAU_object@@PAU1@0@Z	; netSetServerInfo
PUBLIC	?netGetServerInfo@@YAPAU_object@@PAU1@0@Z	; netGetServerInfo
PUBLIC	?netPreserveServerCommand@@YAPAU_object@@PAU1@0@Z ; netPreserveServerCommand
PUBLIC	?netGetPreservedServerCommand@@YAPAU_object@@PAU1@0@Z ; netGetPreservedServerCommand
PUBLIC	?netStartGame@@YAPAU_object@@PAU1@0@Z		; netStartGame
PUBLIC	?netIsTest@@YAPAU_object@@PAU1@0@Z		; netIsTest
PUBLIC	?netWarp@@YAPAU_object@@PAU1@0@Z		; netWarp
PUBLIC	?netLoadInsultList@@YAPAU_object@@PAU1@0@Z	; netLoadInsultList
PUBLIC	?netUploadMark@@YAPAU_object@@PAU1@0@Z		; netUploadMark
PUBLIC	?netUploadSymbol@@YAPAU_object@@PAU1@0@Z	; netUploadSymbol
PUBLIC	?netGetGuildID@@YAPAU_object@@PAU1@0@Z		; netGetGuildID
PUBLIC	?netGetEmpireID@@YAPAU_object@@PAU1@0@Z		; netGetEmpireID
PUBLIC	?netGetMainActorVID@@YAPAU_object@@PAU1@0@Z	; netGetMainActorVID
PUBLIC	?netGetMainActorRace@@YAPAU_object@@PAU1@0@Z	; netGetMainActorRace
PUBLIC	?netGetMainActorEmpire@@YAPAU_object@@PAU1@0@Z	; netGetMainActorEmpire
PUBLIC	?netGetMainActorSkillGroup@@YAPAU_object@@PAU1@0@Z ; netGetMainActorSkillGroup
PUBLIC	?netIsSelectedEmpire@@YAPAU_object@@PAU1@0@Z	; netIsSelectedEmpire
PUBLIC	?netGetAccountCharacterSlotDataInteger@@YAPAU_object@@PAU1@0@Z ; netGetAccountCharacterSlotDataInteger
PUBLIC	?netGetAccountCharacterSlotDataString@@YAPAU_object@@PAU1@0@Z ; netGetAccountCharacterSlotDataString
PUBLIC	?netGetFieldMusicFileName@@YAPAU_object@@PAU1@0@Z ; netGetFieldMusicFileName
PUBLIC	?netGetFieldMusicVolume@@YAPAU_object@@PAU1@0@Z	; netGetFieldMusicVolume
PUBLIC	?netSetPhaseWindow@@YAPAU_object@@PAU1@0@Z	; netSetPhaseWindow
PUBLIC	?netClearPhaseWindow@@YAPAU_object@@PAU1@0@Z	; netClearPhaseWindow
PUBLIC	?netSetServerCommandParserWindow@@YAPAU_object@@PAU1@0@Z ; netSetServerCommandParserWindow
PUBLIC	?netSetAccountConnectorHandler@@YAPAU_object@@PAU1@0@Z ; netSetAccountConnectorHandler
PUBLIC	?netSetHandler@@YAPAU_object@@PAU1@0@Z		; netSetHandler
PUBLIC	?netSetTCPRecvBufferSize@@YAPAU_object@@PAU1@0@Z ; netSetTCPRecvBufferSize
PUBLIC	?netSetTCPSendBufferSize@@YAPAU_object@@PAU1@0@Z ; netSetTCPSendBufferSize
PUBLIC	?netSetUDPRecvBufferSize@@YAPAU_object@@PAU1@0@Z ; netSetUDPRecvBufferSize
PUBLIC	?netSetMarkServer@@YAPAU_object@@PAU1@0@Z	; netSetMarkServer
PUBLIC	?netConnectTCP@@YAPAU_object@@PAU1@0@Z		; netConnectTCP
PUBLIC	?netConnectUDP@@YAPAU_object@@PAU1@0@Z		; netConnectUDP
PUBLIC	?netConnectToAccountServer@@YAPAU_object@@PAU1@0@Z ; netConnectToAccountServer
PUBLIC	?netSetLoginInfo@@YAPAU_object@@PAU1@0@Z	; netSetLoginInfo
PUBLIC	?netSetOfflinePhase@@YAPAU_object@@PAU1@0@Z	; netSetOfflinePhase
PUBLIC	?netSendSelectEmpirePacket@@YAPAU_object@@PAU1@0@Z ; netSendSelectEmpirePacket
PUBLIC	?netSendLoginPacket@@YAPAU_object@@PAU1@0@Z	; netSendLoginPacket
PUBLIC	?netSendChinaMatrixCardPacket@@YAPAU_object@@PAU1@0@Z ; netSendChinaMatrixCardPacket
PUBLIC	?netSendRunupMatrixCardPacket@@YAPAU_object@@PAU1@0@Z ; netSendRunupMatrixCardPacket
PUBLIC	?netSendNEWCIBNPasspodAnswerPacket@@YAPAU_object@@PAU1@0@Z ; netSendNEWCIBNPasspodAnswerPacket
PUBLIC	?netDirectEnter@@YAPAU_object@@PAU1@0@Z		; netDirectEnter
PUBLIC	?netSendSelectCharacterPacket@@YAPAU_object@@PAU1@0@Z ; netSendSelectCharacterPacket
PUBLIC	?netSendChangeNamePacket@@YAPAU_object@@PAU1@0@Z ; netSendChangeNamePacket
PUBLIC	?netEnableChatInsultFilter@@YAPAU_object@@PAU1@0@Z ; netEnableChatInsultFilter
PUBLIC	?netIsChatInsultIn@@YAPAU_object@@PAU1@0@Z	; netIsChatInsultIn
PUBLIC	?netIsInsultIn@@YAPAU_object@@PAU1@0@Z		; netIsInsultIn
PUBLIC	?netSendWhisperPacket@@YAPAU_object@@PAU1@0@Z	; netSendWhisperPacket
PUBLIC	?netSendMobileMessagePacket@@YAPAU_object@@PAU1@0@Z ; netSendMobileMessagePacket
PUBLIC	?netSendCharacterPositionPacket@@YAPAU_object@@PAU1@0@Z ; netSendCharacterPositionPacket
PUBLIC	?netSendChatPacket@@YAPAU_object@@PAU1@0@Z	; netSendChatPacket
PUBLIC	?netSendEmoticon@@YAPAU_object@@PAU1@0@Z	; netSendEmoticon
PUBLIC	?netSendCreateCharacterPacket@@YAPAU_object@@PAU1@0@Z ; netSendCreateCharacterPacket
PUBLIC	?netSendDestroyCharacterPacket@@YAPAU_object@@PAU1@0@Z ; netSendDestroyCharacterPacket
PUBLIC	?netSendEnterGamePacket@@YAPAU_object@@PAU1@0@Z	; netSendEnterGamePacket
PUBLIC	?netOnClickPacket@@YAPAU_object@@PAU1@0@Z	; netOnClickPacket
PUBLIC	?netSendItemUsePacket@@YAPAU_object@@PAU1@0@Z	; netSendItemUsePacket
PUBLIC	?netSendItemUseToItemPacket@@YAPAU_object@@PAU1@0@Z ; netSendItemUseToItemPacket
PUBLIC	?netSendItemDropPacket@@YAPAU_object@@PAU1@0@Z	; netSendItemDropPacket
PUBLIC	?netSendItemDropPacketNew@@YAPAU_object@@PAU1@0@Z ; netSendItemDropPacketNew
PUBLIC	?netSendElkDropPacket@@YAPAU_object@@PAU1@0@Z	; netSendElkDropPacket
PUBLIC	?netSendGoldDropPacketNew@@YAPAU_object@@PAU1@0@Z ; netSendGoldDropPacketNew
PUBLIC	?netSendItemMovePacket@@YAPAU_object@@PAU1@0@Z	; netSendItemMovePacket
PUBLIC	?netSendItemPickUpPacket@@YAPAU_object@@PAU1@0@Z ; netSendItemPickUpPacket
PUBLIC	?netSendGiveItemPacket@@YAPAU_object@@PAU1@0@Z	; netSendGiveItemPacket
PUBLIC	?netSendShopEndPacket@@YAPAU_object@@PAU1@0@Z	; netSendShopEndPacket
PUBLIC	?netSendShopBuyPacket@@YAPAU_object@@PAU1@0@Z	; netSendShopBuyPacket
PUBLIC	?netSendShopSellPacket@@YAPAU_object@@PAU1@0@Z	; netSendShopSellPacket
PUBLIC	?netSendShopSellPacketNew@@YAPAU_object@@PAU1@0@Z ; netSendShopSellPacketNew
PUBLIC	?netSendExchangeStartPacket@@YAPAU_object@@PAU1@0@Z ; netSendExchangeStartPacket
PUBLIC	?netSendExchangeElkAddPacket@@YAPAU_object@@PAU1@0@Z ; netSendExchangeElkAddPacket
PUBLIC	?netSendExchangeItemAddPacket@@YAPAU_object@@PAU1@0@Z ; netSendExchangeItemAddPacket
PUBLIC	?netSendExchangeItemDelPacket@@YAPAU_object@@PAU1@0@Z ; netSendExchangeItemDelPacket
PUBLIC	?netSendExchangeAcceptPacket@@YAPAU_object@@PAU1@0@Z ; netSendExchangeAcceptPacket
PUBLIC	?netSendExchangeExitPacket@@YAPAU_object@@PAU1@0@Z ; netSendExchangeExitPacket
PUBLIC	?netExitApplication@@YAPAU_object@@PAU1@0@Z	; netExitApplication
PUBLIC	?netExitGame@@YAPAU_object@@PAU1@0@Z		; netExitGame
PUBLIC	?netLogOutGame@@YAPAU_object@@PAU1@0@Z		; netLogOutGame
PUBLIC	?netDisconnect@@YAPAU_object@@PAU1@0@Z		; netDisconnect
PUBLIC	?netIsConnect@@YAPAU_object@@PAU1@0@Z		; netIsConnect
PUBLIC	?netToggleGameDebugInfo@@YAPAU_object@@PAU1@0@Z	; netToggleGameDebugInfo
PUBLIC	?netRegisterEmoticonString@@YAPAU_object@@PAU1@0@Z ; netRegisterEmoticonString
PUBLIC	?netSendMessengerAddByVIDPacket@@YAPAU_object@@PAU1@0@Z ; netSendMessengerAddByVIDPacket
PUBLIC	?netSendMessengerAddByNamePacket@@YAPAU_object@@PAU1@0@Z ; netSendMessengerAddByNamePacket
PUBLIC	?netSendMessengerRemovePacket@@YAPAU_object@@PAU1@0@Z ; netSendMessengerRemovePacket
PUBLIC	?netSendPartyInvitePacket@@YAPAU_object@@PAU1@0@Z ; netSendPartyInvitePacket
PUBLIC	?netSendPartyInviteAnswerPacket@@YAPAU_object@@PAU1@0@Z ; netSendPartyInviteAnswerPacket
PUBLIC	?netSendPartyExitPacket@@YAPAU_object@@PAU1@0@Z	; netSendPartyExitPacket
PUBLIC	?netSendPartyRemovePacket@@YAPAU_object@@PAU1@0@Z ; netSendPartyRemovePacket
PUBLIC	?netSendPartySetStatePacket@@YAPAU_object@@PAU1@0@Z ; netSendPartySetStatePacket
PUBLIC	?netSendPartyUseSkillPacket@@YAPAU_object@@PAU1@0@Z ; netSendPartyUseSkillPacket
PUBLIC	?netSendPartyParameterPacket@@YAPAU_object@@PAU1@0@Z ; netSendPartyParameterPacket
PUBLIC	?netSendSafeboxSaveMoneyPacket@@YAPAU_object@@PAU1@0@Z ; netSendSafeboxSaveMoneyPacket
PUBLIC	?netSendSafeboxWithdrawMoneyPacket@@YAPAU_object@@PAU1@0@Z ; netSendSafeboxWithdrawMoneyPacket
PUBLIC	?netSendSafeboxCheckinPacket@@YAPAU_object@@PAU1@0@Z ; netSendSafeboxCheckinPacket
PUBLIC	?netSendSafeboxCheckoutPacket@@YAPAU_object@@PAU1@0@Z ; netSendSafeboxCheckoutPacket
PUBLIC	?netSendSafeboxItemMovePacket@@YAPAU_object@@PAU1@0@Z ; netSendSafeboxItemMovePacket
PUBLIC	?netSendMallCheckoutPacket@@YAPAU_object@@PAU1@0@Z ; netSendMallCheckoutPacket
PUBLIC	?netSendAnswerMakeGuildPacket@@YAPAU_object@@PAU1@0@Z ; netSendAnswerMakeGuildPacket
PUBLIC	?netSendQuestInputStringPacket@@YAPAU_object@@PAU1@0@Z ; netSendQuestInputStringPacket
PUBLIC	?netSendQuestConfirmPacket@@YAPAU_object@@PAU1@0@Z ; netSendQuestConfirmPacket
PUBLIC	?netSendGuildAddMemberPacket@@YAPAU_object@@PAU1@0@Z ; netSendGuildAddMemberPacket
PUBLIC	?netSendGuildRemoveMemberPacket@@YAPAU_object@@PAU1@0@Z ; netSendGuildRemoveMemberPacket
PUBLIC	?netSendGuildChangeGradeNamePacket@@YAPAU_object@@PAU1@0@Z ; netSendGuildChangeGradeNamePacket
PUBLIC	?netSendGuildChangeGradeAuthorityPacket@@YAPAU_object@@PAU1@0@Z ; netSendGuildChangeGradeAuthorityPacket
PUBLIC	?netSendGuildOfferPacket@@YAPAU_object@@PAU1@0@Z ; netSendGuildOfferPacket
PUBLIC	?netSnedGuildPostCommentPacket@@YAPAU_object@@PAU1@0@Z ; netSnedGuildPostCommentPacket
PUBLIC	?netSnedGuildDeleteCommentPacket@@YAPAU_object@@PAU1@0@Z ; netSnedGuildDeleteCommentPacket
PUBLIC	?netSendGuildRefreshCommentsPacket@@YAPAU_object@@PAU1@0@Z ; netSendGuildRefreshCommentsPacket
PUBLIC	?netSendGuildChangeMemberGradePacket@@YAPAU_object@@PAU1@0@Z ; netSendGuildChangeMemberGradePacket
PUBLIC	?netSendGuildUseSkillPacket@@YAPAU_object@@PAU1@0@Z ; netSendGuildUseSkillPacket
PUBLIC	?netSendGuildChangeMemberGeneralPacket@@YAPAU_object@@PAU1@0@Z ; netSendGuildChangeMemberGeneralPacket
PUBLIC	?netSendGuildInviteAnswerPacket@@YAPAU_object@@PAU1@0@Z ; netSendGuildInviteAnswerPacket
PUBLIC	?netSendGuildChargeGSPPacket@@YAPAU_object@@PAU1@0@Z ; netSendGuildChargeGSPPacket
PUBLIC	?netSendGuildDepositMoneyPacket@@YAPAU_object@@PAU1@0@Z ; netSendGuildDepositMoneyPacket
PUBLIC	?netSendGuildWithdrawMoneyPacket@@YAPAU_object@@PAU1@0@Z ; netSendGuildWithdrawMoneyPacket
PUBLIC	?netSendRequestRefineInfoPacket@@YAPAU_object@@PAU1@0@Z ; netSendRequestRefineInfoPacket
PUBLIC	?netSendRefinePacket@@YAPAU_object@@PAU1@0@Z	; netSendRefinePacket
PUBLIC	?netSendSelectItemPacket@@YAPAU_object@@PAU1@0@Z ; netSendSelectItemPacket
PUBLIC	?netSetPacketSequenceMode@@YAPAU_object@@PAU1@0@Z ; netSetPacketSequenceMode
PUBLIC	?netSetEmpireLanguageMode@@YAPAU_object@@PAU1@0@Z ; netSetEmpireLanguageMode
PUBLIC	?netSetSkillGroupFake@@YAPAU_object@@PAU1@0@Z	; netSetSkillGroupFake
PUBLIC	?netSendGuildSymbol@@YAPAU_object@@PAU1@0@Z	; netSendGuildSymbol
PUBLIC	?netDisconnectUploader@@YAPAU_object@@PAU1@0@Z	; netDisconnectUploader
PUBLIC	?netRecvGuildSymbol@@YAPAU_object@@PAU1@0@Z	; netRecvGuildSymbol
PUBLIC	?netRegisterErrorLog@@YAPAU_object@@PAU1@0@Z	; netRegisterErrorLog
PUBLIC	??$_Emplace@V?$basic_string@DU?$char_traits@D@std@@V?$allocator@D@2@@std@@@?$list@V?$basic_string@DU?$char_traits@D@std@@V?$allocator@D@2@@std@@V?$allocator@V?$basic_string@DU?$char_traits@D@std@@V?$allocator@D@2@@std@@@2@@std@@QAEPAU?$_List_node@V?$basic_string@DU?$char_traits@D@std@@V?$allocator@D@2@@std@@PAX@1@QAU21@$$QAV?$basic_string@DU?$char_traits@D@std@@V?$allocator@D@2@@1@@Z ; std::list<std::basic_string<char,std::char_traits<char>,std::allocator<char> >,std::allocator<std::basic_string<char,std::char_traits<char>,std::allocator<char> > > >::_Emplace<std::basic_string<char,std::char_traits<char>,std::allocator<char> > >
PUBLIC	??$emplace_back@ABK@?$vector@KV?$allocator@K@std@@@std@@QAEXABK@Z ; std::vector<unsigned long,std::allocator<unsigned long> >::emplace_back<unsigned long const &>
PUBLIC	??$_Emplace_back_with_unused_capacity@ABK@?$vector@KV?$allocator@K@std@@@std@@AAEXABK@Z ; std::vector<unsigned long,std::allocator<unsigned long> >::_Emplace_back_with_unused_capacity<unsigned long const &>
PUBLIC	??$_Emplace_reallocate@ABK@?$vector@KV?$allocator@K@std@@@std@@QAEPAKQAKABK@Z ; std::vector<unsigned long,std::allocator<unsigned long> >::_Emplace_reallocate<unsigned long const &>
PUBLIC	??$_Construct_in_place@PAU?$_List_node@V?$basic_string@DU?$char_traits@D@std@@V?$allocator@D@2@@std@@PAX@std@@AAPAU12@@std@@YAXAAPAU?$_List_node@V?$basic_string@DU?$char_traits@D@std@@V?$allocator@D@2@@std@@PAX@0@0@Z ; std::_Construct_in_place<std::_List_node<std::basic_string<char,std::char_traits<char>,std::allocator<char> >,void *> *,std::_List_node<std::basic_string<char,std::char_traits<char>,std::allocator<char> >,void *> * &>
PUBLIC	??$_Free_non_head@V?$allocator@U?$_List_node@V?$basic_string@DU?$char_traits@D@std@@V?$allocator@D@2@@std@@PAX@std@@@std@@@?$_List_node@V?$basic_string@DU?$char_traits@D@std@@V?$allocator@D@2@@std@@PAX@std@@SAXAAV?$allocator@U?$_List_node@V?$basic_string@DU?$char_traits@D@std@@V?$allocator@D@2@@std@@PAX@std@@@1@PAU01@@Z ; std::_List_node<std::basic_string<char,std::char_traits<char>,std::allocator<char> >,void *>::_Free_non_head<std::allocator<std::_List_node<std::basic_string<char,std::char_traits<char>,std::allocator<char> >,void *> > >
PUBLIC	??$_Freenode0@V?$allocator@U?$_List_node@V?$basic_string@DU?$char_traits@D@std@@V?$allocator@D@2@@std@@PAX@std@@@std@@@?$_List_node@V?$basic_string@DU?$char_traits@D@std@@V?$allocator@D@2@@std@@PAX@std@@SAXAAV?$allocator@U?$_List_node@V?$basic_string@DU?$char_traits@D@std@@V?$allocator@D@2@@std@@PAX@std@@@1@PAU01@@Z ; std::_List_node<std::basic_string<char,std::char_traits<char>,std::allocator<char> >,void *>::_Freenode0<std::allocator<std::_List_node<std::basic_string<char,std::char_traits<char>,std::allocator<char> >,void *> > >
PUBLIC	??$_Freenode@V?$allocator@U?$_List_node@V?$basic_string@DU?$char_traits@D@std@@V?$allocator@D@2@@std@@PAX@std@@@std@@@?$_List_node@V?$basic_string@DU?$char_traits@D@std@@V?$allocator@D@2@@std@@PAX@std@@SAXAAV?$allocator@U?$_List_node@V?$basic_string@DU?$char_traits@D@std@@V?$allocator@D@2@@std@@PAX@std@@@1@PAU01@@Z ; std::_List_node<std::basic_string<char,std::char_traits<char>,std::allocator<char> >,void *>::_Freenode<std::allocator<std::_List_node<std::basic_string<char,std::char_traits<char>,std::allocator<char> >,void *> > >
PUBLIC	??$_Destroy_range@V?$allocator@K@std@@@std@@YAXPAKQAKAAV?$allocator@K@0@@Z ; std::_Destroy_range<std::allocator<unsigned long> >
PUBLIC	?_Allocate@?$_Alloc_construct_ptr@V?$allocator@U?$_List_node@V?$basic_string@DU?$char_traits@D@std@@V?$allocator@D@2@@std@@PAX@std@@@std@@@std@@QAEXXZ ; std::_Alloc_construct_ptr<std::allocator<std::_List_node<std::basic_string<char,std::char_traits<char>,std::allocator<char> >,void *> > >::_Allocate
PUBLIC	??1?$_Alloc_construct_ptr@V?$allocator@U?$_List_node@V?$basic_string@DU?$char_traits@D@std@@V?$allocator@D@2@@std@@PAX@std@@@std@@@std@@QAE@XZ ; std::_Alloc_construct_ptr<std::allocator<std::_List_node<std::basic_string<char,std::char_traits<char>,std::allocator<char> >,void *> > >::~_Alloc_construct_ptr<std::allocator<std::_List_node<std::basic_string<char,std::char_traits<char>,std::allocator<char> >,void *> > >
PUBLIC	??1?$_List_node_emplace_op2@V?$allocator@U?$_List_node@V?$basic_string@DU?$char_traits@D@std@@V?$allocator@D@2@@std@@PAX@std@@@std@@@std@@QAE@XZ ; std::_List_node_emplace_op2<std::allocator<std::_List_node<std::basic_string<char,std::char_traits<char>,std::allocator<char> >,void *> > >::~_List_node_emplace_op2<std::allocator<std::_List_node<std::basic_string<char,std::char_traits<char>,std::allocator<char> >,void *> > >
PUBLIC	?_Transfer_before@?$_List_node_emplace_op2@V?$allocator@U?$_List_node@V?$basic_string@DU?$char_traits@D@std@@V?$allocator@D@2@@std@@PAX@std@@@std@@@std@@QAEPAU?$_List_node@V?$basic_string@DU?$char_traits@D@std@@V?$allocator@D@2@@std@@PAX@2@QAU32@@Z ; std::_List_node_emplace_op2<std::allocator<std::_List_node<std::basic_string<char,std::char_traits<char>,std::allocator<char> >,void *> > >::_Transfer_before
PUBLIC	??$?0V?$basic_string@DU?$char_traits@D@std@@V?$allocator@D@2@@std@@@?$_List_node_emplace_op2@V?$allocator@U?$_List_node@V?$basic_string@DU?$char_traits@D@std@@V?$allocator@D@2@@std@@PAX@std@@@std@@@std@@QAE@AAV?$allocator@U?$_List_node@V?$basic_string@DU?$char_traits@D@std@@V?$allocator@D@2@@std@@PAX@std@@@1@$$QAV?$basic_string@DU?$char_traits@D@std@@V?$allocator@D@2@@1@@Z ; std::_List_node_emplace_op2<std::allocator<std::_List_node<std::basic_string<char,std::char_traits<char>,std::allocator<char> >,void *> > >::_List_node_emplace_op2<std::allocator<std::_List_node<std::basic_string<char,std::char_traits<char>,std::allocator<char> >,void *> > ><std::basic_string<char,std::char_traits<char>,std::allocator<char> > >
PUBLIC	??$_Destroy_in_place@PAU?$_List_node@V?$basic_string@DU?$char_traits@D@std@@V?$allocator@D@2@@std@@PAX@std@@@std@@YAXAAPAU?$_List_node@V?$basic_string@DU?$char_traits@D@std@@V?$allocator@D@2@@std@@PAX@0@@Z ; std::_Destroy_in_place<std::_List_node<std::basic_string<char,std::char_traits<char>,std::allocator<char> >,void *> *>
PUBLIC	??$_Construct_in_place@PAU?$_List_node@V?$basic_string@DU?$char_traits@D@std@@V?$allocator@D@2@@std@@PAX@std@@ABQAU12@@std@@YAXAAPAU?$_List_node@V?$basic_string@DU?$char_traits@D@std@@V?$allocator@D@2@@std@@PAX@0@ABQAU10@@Z ; std::_Construct_in_place<std::_List_node<std::basic_string<char,std::char_traits<char>,std::allocator<char> >,void *> *,std::_List_node<std::basic_string<char,std::char_traits<char>,std::allocator<char> >,void *> * const &>
PUBLIC	??$_Uninitialized_move@PAKV?$allocator@K@std@@@std@@YAPAKQAK0PAKAAV?$allocator@K@0@@Z ; std::_Uninitialized_move<unsigned long *,std::allocator<unsigned long> >
PUBLIC	??$_Copy_memmove@PAKPAK@std@@YAPAKPAK00@Z	; std::_Copy_memmove<unsigned long *,unsigned long *>
PUBLIC	??_7exception@std@@6B@				; std::exception::`vftable'
PUBLIC	??_C@_0BC@EOODALEL@Unknown?5exception@		; `string'
PUBLIC	??_7bad_alloc@std@@6B@				; std::bad_alloc::`vftable'
PUBLIC	??_7bad_array_new_length@std@@6B@		; std::bad_array_new_length::`vftable'
PUBLIC	??_C@_0BF@KINCDENJ@bad?5array?5new?5length@	; `string'
PUBLIC	__TI3?AVbad_array_new_length@std@@
PUBLIC	__CTA3?AVbad_array_new_length@std@@
PUBLIC	??_R0?AVbad_array_new_length@std@@@8		; std::bad_array_new_length `RTTI Type Descriptor'
PUBLIC	__CT??_R0?AVbad_array_new_length@std@@@8??0bad_array_new_length@std@@QAE@ABV01@@Z12
PUBLIC	??_R0?AVbad_alloc@std@@@8			; std::bad_alloc `RTTI Type Descriptor'
PUBLIC	__CT??_R0?AVbad_alloc@std@@@8??0bad_alloc@std@@QAE@ABV01@@Z12
PUBLIC	??_R0?AVexception@std@@@8			; std::exception `RTTI Type Descriptor'
PUBLIC	__CT??_R0?AVexception@std@@@8??0exception@std@@QAE@ABV01@@Z12
PUBLIC	??_C@_0BA@JFNIOLAK@string?5too?5long@		; `string'
PUBLIC	??_C@_00CNPNBAHC@@				; `string'
PUBLIC	??_C@_0BA@FOIKENOD@vector?5too?5long@		; `string'
PUBLIC	??_R4exception@std@@6B@				; std::exception::`RTTI Complete Object Locator'
PUBLIC	??_R3exception@std@@8				; std::exception::`RTTI Class Hierarchy Descriptor'
PUBLIC	??_R2exception@std@@8				; std::exception::`RTTI Base Class Array'
PUBLIC	??_R1A@?0A@EA@exception@std@@8			; std::exception::`RTTI Base Class Descriptor at (0,-1,0,64)'
PUBLIC	??_R4bad_alloc@std@@6B@				; std::bad_alloc::`RTTI Complete Object Locator'
PUBLIC	??_R3bad_alloc@std@@8				; std::bad_alloc::`RTTI Class Hierarchy Descriptor'
PUBLIC	??_R2bad_alloc@std@@8				; std::bad_alloc::`RTTI Base Class Array'
PUBLIC	??_R1A@?0A@EA@bad_alloc@std@@8			; std::bad_alloc::`RTTI Base Class Descriptor at (0,-1,0,64)'
PUBLIC	??_R4bad_array_new_length@std@@6B@		; std::bad_array_new_length::`RTTI Complete Object Locator'
PUBLIC	??_R3bad_array_new_length@std@@8		; std::bad_array_new_length::`RTTI Class Hierarchy Descriptor'
PUBLIC	??_R2bad_array_new_length@std@@8		; std::bad_array_new_length::`RTTI Base Class Array'
PUBLIC	??_R1A@?0A@EA@bad_array_new_length@std@@8	; std::bad_array_new_length::`RTTI Base Class Descriptor at (0,-1,0,64)'
PUBLIC	?ms_singleton@?$CSingleton@VCPythonNetworkStream@@@@0PAVCPythonNetworkStream@@A ; CSingleton<CPythonNetworkStream>::ms_singleton
PUBLIC	?ms_singleton@?$CSingleton@VCAccountConnector@@@@0PAVCAccountConnector@@A ; CSingleton<CAccountConnector>::ms_singleton
PUBLIC	?ms_singleton@?$CSingleton@VCPythonGuild@@@@0PAVCPythonGuild@@A ; CSingleton<CPythonGuild>::ms_singleton
PUBLIC	?ms_singleton@?$TAbstractSingleton@VIAbstractPlayer@@@@0PAVIAbstractPlayer@@A ; TAbstractSingleton<IAbstractPlayer>::ms_singleton
PUBLIC	?g_kList_strCommand@@3V?$list@V?$basic_string@DU?$char_traits@D@std@@V?$allocator@D@2@@std@@V?$allocator@V?$basic_string@DU?$char_traits@D@std@@V?$allocator@D@2@@std@@@2@@std@@A ; g_kList_strCommand
PUBLIC	??_C@_01KBJDNOO@i@				; `string'
PUBLIC	??_C@_01LKDEMHDF@s@				; `string'
PUBLIC	??_C@_01INIBCBCB@f@				; `string'
PUBLIC	??_C@_0EE@CPCFCFHF@netSendGuildRemoveMemberPacket?$CI@ ; `string'
PUBLIC	?ms_singleton@?$CSingleton@VCGuildMarkUploader@@@@0PAVCGuildMarkUploader@@A ; CSingleton<CGuildMarkUploader>::ms_singleton
PUBLIC	?ms_singleton@?$CSingleton@VCGuildMarkDownloader@@@@0PAVCGuildMarkDownloader@@A ; CSingleton<CGuildMarkDownloader>::ms_singleton
PUBLIC	??_C@_0BI@HFMJEOAC@GetBettingGuildWarValue@	; `string'
PUBLIC	??_C@_0BH@LKCAJGCH@EnableChatInsultFilter@	; `string'
PUBLIC	??_C@_0O@JMAHAJJH@SetServerInfo@		; `string'
PUBLIC	??_C@_0O@ODBJLKOA@GetServerInfo@		; `string'
PUBLIC	??_C@_0BG@NJCKCHAI@PreserveServerCommand@	; `string'
PUBLIC	??_C@_0BK@PJDKKIPH@GetPreservedServerCommand@	; `string'
PUBLIC	??_C@_09CFNAMFEF@StartGame@			; `string'
PUBLIC	??_C@_04EIDOEOJH@Warp@				; `string'
PUBLIC	??_C@_06OCDJGLIF@IsTest@			; `string'
PUBLIC	??_C@_0O@OFMEOEDD@SetMarkServer@		; `string'
PUBLIC	??_C@_0P@EPNPIBON@IsChatInsultIn@		; `string'
PUBLIC	??_C@_0L@CJJGFLBC@IsInsultIn@			; `string'
PUBLIC	??_C@_0P@NAIDDMMD@LoadInsultList@		; `string'
PUBLIC	??_C@_0L@JEGFHCJL@UploadMark@			; `string'
PUBLIC	??_C@_0N@OBKBFHKO@UploadSymbol@			; `string'
PUBLIC	??_C@_0L@EAKBLDCO@GetGuildID@			; `string'
PUBLIC	??_C@_0M@GGDMINDM@GetEmpireID@			; `string'
PUBLIC	??_C@_0BA@BPHKBGOL@GetMainActorVID@		; `string'
PUBLIC	??_C@_0BB@ICEJKPHA@GetMainActorRace@		; `string'
PUBLIC	??_C@_0BD@JOIEFGML@GetMainActorEmpire@		; `string'
PUBLIC	??_C@_0BH@GCCMJIJB@GetMainActorSkillGroup@	; `string'
PUBLIC	??_C@_0CD@PJJNPONG@GetAccountCharacterSlotDataInte@ ; `string'
PUBLIC	??_C@_0CC@DLIFIOE@GetAccountCharacterSlotDataStri@ ; `string'
PUBLIC	??_C@_0BG@NAMIDKHD@GetFieldMusicFileName@	; `string'
PUBLIC	??_C@_0BE@MHKBLINM@GetFieldMusicVolume@		; `string'
PUBLIC	??_C@_0BE@BCCLDKB@ToggleGameDebugInfo@		; `string'
PUBLIC	??_C@_0N@GLEGMFLM@SetLoginInfo@			; `string'
PUBLIC	??_C@_0P@EKNNFAK@SetPhaseWindow@		; `string'
PUBLIC	??_C@_0BB@NNDKGCIK@ClearPhaseWindow@		; `string'
PUBLIC	??_C@_0BN@KOOLAHFA@SetServerCommandParserWindow@ ; `string'
PUBLIC	??_C@_0BL@NJAILJBB@SetAccountConnectorHandler@	; `string'
PUBLIC	??_C@_0L@EELFNDHB@SetHandler@			; `string'
PUBLIC	??_C@_0BF@KAEIEPML@SetTCPRecvBufferSize@	; `string'
PUBLIC	??_C@_0BF@LOLMIHDO@SetTCPSendBufferSize@	; `string'
PUBLIC	??_C@_0BF@GPIIIFGB@SetUDPRecvBufferSize@	; `string'
PUBLIC	??_C@_0M@PAACKIAL@DirectEnter@			; `string'
PUBLIC	??_C@_0L@LPFGMFBP@LogOutGame@			; `string'
PUBLIC	??_C@_08ENBHLCHD@ExitGame@			; `string'
PUBLIC	??_C@_0BA@ILFBLEPH@ExitApplication@		; `string'
PUBLIC	??_C@_0L@HNEKCIDO@ConnectTCP@			; `string'
PUBLIC	??_C@_0L@MALJFJNO@ConnectUDP@			; `string'
PUBLIC	??_C@_0BH@CIOLKAIG@ConnectToAccountServer@	; `string'
PUBLIC	??_C@_0BA@CNDIKGCL@SendLoginPacket@		; `string'
PUBLIC	??_C@_0BK@GJKBNMLJ@SendChinaMatrixCardPacket@	; `string'
PUBLIC	??_C@_0BK@KNELICML@SendRunupMatrixCardPacket@	; `string'
PUBLIC	??_C@_0BP@JFBAGMPA@SendNEWCIBNPasspodAnswerPacket@ ; `string'
PUBLIC	??_C@_0BH@IIELEKKA@SendSelectEmpirePacket@	; `string'
PUBLIC	??_C@_0BK@MIKAHKDI@SendSelectCharacterPacket@	; `string'
PUBLIC	??_C@_0BF@ODLJDBF@SendChangeNamePacket@		; `string'
PUBLIC	??_C@_0BK@NPKEAJJ@SendCreateCharacterPacket@	; `string'
PUBLIC	??_C@_0BL@PMHPNGGJ@SendDestroyCharacterPacket@	; `string'
PUBLIC	??_C@_0BE@NBECPFPH@SendEnterGamePacket@		; `string'
PUBLIC	??_C@_0BC@NHAKBOCP@SendItemUsePacket@		; `string'
PUBLIC	??_C@_0BI@OBDMDOIB@SendItemUseToItemPacket@	; `string'
PUBLIC	??_C@_0BD@ICCAOJBA@SendItemDropPacket@		; `string'
PUBLIC	??_C@_0BG@PNFNACGL@SendItemDropPacketNew@	; `string'
PUBLIC	??_C@_0BC@NEDFAOHK@SendElkDropPacket@		; `string'
PUBLIC	??_C@_0BG@ONKCIEDE@SendGoldDropPacketNew@	; `string'
PUBLIC	??_C@_0BD@BPAFBGKI@SendItemMovePacket@		; `string'
PUBLIC	??_C@_0BF@PJHEIMI@SendItemPickUpPacket@		; `string'
PUBLIC	??_C@_0BD@FMAJCJM@SendGiveItemPacket@		; `string'
PUBLIC	??_C@_0BA@NKMDDBDL@SetOfflinePhase@		; `string'
PUBLIC	??_C@_0L@CMGJAGDM@Disconnect@			; `string'
PUBLIC	??_C@_09HENONEEN@IsConnect@			; `string'
PUBLIC	??_C@_0P@FJOINOIH@SendChatPacket@		; `string'
PUBLIC	??_C@_0N@BJHGOHPC@SendEmoticon@			; `string'
PUBLIC	??_C@_0BC@KNMEABPD@SendWhisperPacket@		; `string'
PUBLIC	??_C@_0BI@BFCIMAOL@SendMobileMessagePacket@	; `string'
PUBLIC	??_C@_0BM@KAMAKIKL@SendCharacterPositionPacket@	; `string'
PUBLIC	??_C@_0BC@HEOMKCAE@SendShopEndPacket@		; `string'
PUBLIC	??_C@_0BC@FPBLEBCL@SendShopBuyPacket@		; `string'
PUBLIC	??_C@_0BD@BFMEHPEE@SendShopSellPacket@		; `string'
PUBLIC	??_C@_0BG@BGJEIPGN@SendShopSellPacketNew@	; `string'
PUBLIC	??_C@_0BI@BGNKGFKO@SendExchangeStartPacket@	; `string'
PUBLIC	??_C@_0BK@IIFDLCNA@SendExchangeItemAddPacket@	; `string'
PUBLIC	??_C@_0BK@KKOEHGGC@SendExchangeItemDelPacket@	; `string'
PUBLIC	??_C@_0BJ@CGGGIOGM@SendExchangeElkAddPacket@	; `string'
PUBLIC	??_C@_0BJ@OFKJBLDC@SendExchangeAcceptPacket@	; `string'
PUBLIC	??_C@_0BH@NCONKHHB@SendExchangeExitPacket@	; `string'
PUBLIC	??_C@_0BC@FMJHAGEI@SendOnClickPacket@		; `string'
PUBLIC	??_C@_0BH@MCKLKDJM@RegisterEmoticonString@	; `string'
PUBLIC	??_C@_0BM@CFLPIFFM@SendMessengerAddByVIDPacket@	; `string'
PUBLIC	??_C@_0BN@MPMOLLL@SendMessengerAddByNamePacket@	; `string'
PUBLIC	??_C@_0BK@GIIDGGBB@SendMessengerRemovePacket@	; `string'
PUBLIC	??_C@_0BG@IFGKMOED@SendPartyInvitePacket@	; `string'
PUBLIC	??_C@_0BM@PFAFFBJO@SendPartyInviteAnswerPacket@	; `string'
PUBLIC	??_C@_0BE@JHFPDGFP@SendPartyExitPacket@		; `string'
PUBLIC	??_C@_0BG@JAJGIHK@SendPartyRemovePacket@	; `string'
PUBLIC	??_C@_0BI@LNEGCCFH@SendPartySetStatePacket@	; `string'
PUBLIC	??_C@_0BI@EONDHFJL@SendPartyUseSkillPacket@	; `string'
PUBLIC	??_C@_0BJ@JGBOMHFI@SendPartyParameterPacket@	; `string'
PUBLIC	??_C@_0BL@CAAOLIHO@SendSafeboxSaveMoneyPacket@	; `string'
PUBLIC	??_C@_0BP@MLAJADAA@SendSafeboxWithdrawMoneyPacket@ ; `string'
PUBLIC	??_C@_0BJ@HNJCKALG@SendSafeboxCheckinPacket@	; `string'
PUBLIC	??_C@_0BK@LJAMACPE@SendSafeboxCheckoutPacket@	; `string'
PUBLIC	??_C@_0BK@JMMAEJFJ@SendSafeboxItemMovePacket@	; `string'
PUBLIC	??_C@_0BH@BDNDNKGE@SendMallCheckoutPacket@	; `string'
PUBLIC	??_C@_0BK@HLNHPAPM@SendAnswerMakeGuildPacket@	; `string'
PUBLIC	??_C@_0BL@BJLFPMAE@SendQuestInputStringPacket@	; `string'
PUBLIC	??_C@_0BH@HMDNFHNB@SendQuestConfirmPacket@	; `string'
PUBLIC	??_C@_0BJ@MFJNIJIJ@SendGuildAddMemberPacket@	; `string'
PUBLIC	??_C@_0BM@GAJEHHNG@SendGuildRemoveMemberPacket@	; `string'
PUBLIC	??_C@_0BP@ODLEJFMG@SendGuildChangeGradeNamePacket@ ; `string'
PUBLIC	??_C@_0CE@EFLFPPCO@SendGuildChangeGradeAuthorityPa@ ; `string'
PUBLIC	??_C@_0BF@OAFAHAKB@SendGuildOfferPacket@	; `string'
PUBLIC	??_C@_0BL@JLEHIONL@SendGuildPostCommentPacket@	; `string'
PUBLIC	??_C@_0BN@MBNLMFLO@SendGuildDeleteCommentPacket@ ; `string'
PUBLIC	??_C@_0BP@BKEOCNGM@SendGuildRefreshCommentsPacket@ ; `string'
PUBLIC	??_C@_0CB@KOIDGNFC@SendGuildChangeMemberGradePacke@ ; `string'
PUBLIC	??_C@_0BI@HICDMLJH@SendGuildUseSkillPacket@	; `string'
PUBLIC	??_C@_0CD@BMLIKMKL@SendGuildChangeMemberGeneralPac@ ; `string'
PUBLIC	??_C@_0BM@KLBFEJBI@SendGuildInviteAnswerPacket@	; `string'
PUBLIC	??_C@_0BJ@LKJGDIEE@SendGuildChargeGSPPacket@	; `string'
PUBLIC	??_C@_0BM@HDHMFNNO@SendGuildDepositMoneyPacket@	; `string'
PUBLIC	??_C@_0BN@BPJGBHPL@SendGuildWithdrawMoneyPacket@ ; `string'
PUBLIC	??_C@_0BM@NLIMKJKK@SendRequestRefineInfoPacket@	; `string'
PUBLIC	??_C@_0BB@MBCAEHJO@SendRefinePacket@		; `string'
PUBLIC	??_C@_0BF@HEJDCMFH@SendSelectItemPacket@	; `string'
PUBLIC	??_C@_0BG@HLIDKLKJ@SetPacketSequenceMode@	; `string'
PUBLIC	??_C@_0BG@KCIMJDEA@SetEmpireLanguageMode@	; `string'
PUBLIC	??_C@_0BC@NOAKHLIH@SetSkillGroupFake@		; `string'
PUBLIC	??_C@_0BA@EGLEIBFB@SendGuildSymbol@		; `string'
PUBLIC	??_C@_0BD@PIFKMNDO@DisconnectUploader@		; `string'
PUBLIC	??_C@_0BA@ILHNHDAK@RecvGuildSymbol@		; `string'
PUBLIC	??_C@_0BB@CABIEEGM@RegisterErrorLog@		; `string'
PUBLIC	??_C@_03NBFOK@net@				; `string'
PUBLIC	??_C@_0L@LILDODAP@ERROR_NONE@			; `string'
PUBLIC	??_C@_0BK@BILAANNF@ERROR_CONNECT_MARK_SERVER@	; `string'
PUBLIC	??_C@_0BA@NEJKKBEJ@ERROR_LOAD_MARK@		; `string'
PUBLIC	??_C@_0BB@FEGLKDMB@ERROR_MARK_WIDTH@		; `string'
PUBLIC	??_C@_0BC@GOIIBBEJ@ERROR_MARK_HEIGHT@		; `string'
PUBLIC	??_C@_0CB@BOPIDGGI@ERROR_MARK_UPLOAD_NEED_RECONNEC@ ; `string'
PUBLIC	??_C@_0CA@JMHMMKLO@ERROR_MARK_CHECK_NEED_RECONNECT@ ; `string'
PUBLIC	??_C@_0BD@JBLBGAIB@PHASE_WINDOW_LOGIN@		; `string'
PUBLIC	??_C@_0BE@EBCKEIDN@PHASE_WINDOW_SELECT@		; `string'
PUBLIC	??_C@_0BE@PAOFIFBD@PHASE_WINDOW_CREATE@		; `string'
PUBLIC	??_C@_0BC@PFELHICG@PHASE_WINDOW_LOAD@		; `string'
PUBLIC	??_C@_0BC@HCEFPGCB@PHASE_WINDOW_GAME@		; `string'
PUBLIC	??_C@_0BE@IIMEMMI@PHASE_WINDOW_EMPIRE@		; `string'
PUBLIC	??_C@_0BC@BCDCNNFP@PHASE_WINDOW_LOGO@		; `string'
PUBLIC	??_C@_0BK@HDGGAJBJ@ACCOUNT_CHARACTER_SLOT_ID@	; `string'
PUBLIC	??_C@_0BM@JCGOOLCL@ACCOUNT_CHARACTER_SLOT_NAME@	; `string'
PUBLIC	??_C@_0BM@DNOALMKC@ACCOUNT_CHARACTER_SLOT_RACE@	; `string'
PUBLIC	??_C@_0BN@MPLCEAPH@ACCOUNT_CHARACTER_SLOT_LEVEL@ ; `string'
PUBLIC	??_C@_0BL@MPBHOFJE@ACCOUNT_CHARACTER_SLOT_STR@	; `string'
PUBLIC	??_C@_0BL@OFNCKLHP@ACCOUNT_CHARACTER_SLOT_DEX@	; `string'
PUBLIC	??_C@_0BL@LHFINDEP@ACCOUNT_CHARACTER_SLOT_INT@	; `string'
PUBLIC	??_C@_0BL@PICCMPNB@ACCOUNT_CHARACTER_SLOT_HTH@	; `string'
PUBLIC	??_C@_0CA@KFILFMPG@ACCOUNT_CHARACTER_SLOT_PLAYTIME@ ; `string'
PUBLIC	??_C@_0BM@JNGCLJJM@ACCOUNT_CHARACTER_SLOT_FORM@	; `string'
PUBLIC	??_C@_0BM@CNLCDDNB@ACCOUNT_CHARACTER_SLOT_ADDR@	; `string'
PUBLIC	??_C@_0BM@OJMCHCKG@ACCOUNT_CHARACTER_SLOT_PORT@	; `string'
PUBLIC	??_C@_0CA@GFKKICFN@ACCOUNT_CHARACTER_SLOT_GUILD_ID@ ; `string'
PUBLIC	??_C@_0CC@HMBBCNEO@ACCOUNT_CHARACTER_SLOT_GUILD_NA@ ; `string'
PUBLIC	??_C@_0CI@NIHCCHJE@ACCOUNT_CHARACTER_SLOT_CHANGE_N@ ; `string'
PUBLIC	??_C@_0BM@BPKEDCMB@ACCOUNT_CHARACTER_SLOT_HAIR@	; `string'
PUBLIC	??_C@_0BH@IJCJGIEO@SERVER_COMMAND_LOG_OUT@	; `string'
PUBLIC	??_C@_0CK@IDBHOJE@SERVER_COMMAND_RETURN_TO_SELECT@ ; `string'
PUBLIC	??_C@_0BE@FCDHFIHM@SERVER_COMMAND_QUIT@		; `string'
PUBLIC	??_C@_08FEHCOLFL@EMPIRE_A@			; `string'
PUBLIC	??_C@_08HPFPLIJI@EMPIRE_B@			; `string'
PUBLIC	??_C@_08GGEEIJNJ@EMPIRE_C@			; `string'
PUBLIC	??_C@_0BK@IMPJEABP@DS_SUB_HEADER_REFINE_FAIL@	; `string'
PUBLIC	??_C@_0CF@NHMIOPGD@DS_SUB_HEADER_REFINE_FAIL_MAX_R@ ; `string'
PUBLIC	??_C@_0CL@CHMHFOOJ@DS_SUB_HEADER_REFINE_FAIL_INVAL@ ; `string'
PUBLIC	??_C@_0CL@DKLCPNME@DS_SUB_HEADER_REFINE_FAIL_NOT_E@ ; `string'
PUBLIC	??_C@_0CO@HIKHGDBM@DS_SUB_HEADER_REFINE_FAIL_NOT_E@ ; `string'
PUBLIC	??_C@_0CM@PJCLJBCJ@DS_SUB_HEADER_REFINE_FAIL_TOO_M@ ; `string'
PUBLIC	??_C@_0BN@OJONLPHM@DS_SUB_HEADER_REFINE_SUCCEED@ ; `string'
PUBLIC	??_C@_0O@NKNMEGII@list?5too?5long@		; `string'
EXTRN	??2@YAPAXI@Z:PROC				; operator new
EXTRN	??3@YAXPAXI@Z:PROC				; operator delete
EXTRN	_atexit:PROC
EXTRN	__invalid_parameter_noinfo_noreturn:PROC
EXTRN	_memcpy:PROC
EXTRN	_memmove:PROC
EXTRN	_strlen:PROC
EXTRN	___std_exception_copy:PROC
EXTRN	___std_exception_destroy:PROC
EXTRN	??_Eexception@std@@UAEPAXI@Z:PROC		; std::exception::`vector deleting destructor'
EXTRN	??_Ebad_alloc@std@@UAEPAXI@Z:PROC		; std::bad_alloc::`vector deleting destructor'
EXTRN	??_Ebad_array_new_length@std@@UAEPAXI@Z:PROC	; std::bad_array_new_length::`vector deleting destructor'
EXTRN	?_Xlength_error@std@@YAXPBD@Z:PROC		; std::_Xlength_error
EXTRN	?TraceError@@YAXPBDZZ:PROC			; TraceError
EXTRN	__imp__PyTuple_Size:PROC
EXTRN	__imp__Py_BuildValue:PROC
EXTRN	__imp__PyModule_AddIntConstant:PROC
EXTRN	__imp__Py_InitModule4:PROC
EXTRN	?PyTuple_GetString@@YA_NPAU_object@@HPAPAD@Z:PROC ; PyTuple_GetString
EXTRN	?PyTuple_GetInteger@@YA_NPAU_object@@HPAE@Z:PROC ; PyTuple_GetInteger
EXTRN	?PyTuple_GetInteger@@YA_NPAU_object@@HPAH@Z:PROC ; PyTuple_GetInteger
EXTRN	?PyTuple_GetInteger@@YA_NPAU_object@@HPAG@Z:PROC ; PyTuple_GetInteger
EXTRN	?PyTuple_GetByte@@YA_NPAU_object@@HPAE@Z:PROC	; PyTuple_GetByte
EXTRN	?PyTuple_GetObject@@YA_NPAU_object@@HPAPAU1@@Z:PROC ; PyTuple_GetObject
EXTRN	?Py_BuildException@@YAPAU_object@@PBDZZ:PROC	; Py_BuildException
EXTRN	?Py_BuildNone@@YAPAU_object@@XZ:PROC		; Py_BuildNone
EXTRN	??0CNetworkAddress@@QAE@XZ:PROC			; CNetworkAddress::CNetworkAddress
EXTRN	??1CNetworkAddress@@QAE@XZ:PROC			; CNetworkAddress::~CNetworkAddress
EXTRN	?Set@CNetworkAddress@@QAE_NPBDH@Z:PROC		; CNetworkAddress::Set
EXTRN	?SetRecvBufferSize@CNetworkStream@@QAEXH@Z:PROC	; CNetworkStream::SetRecvBufferSize
EXTRN	?SetSendBufferSize@CNetworkStream@@QAEXH@Z:PROC	; CNetworkStream::SetSendBufferSize
EXTRN	?Disconnect@CNetworkStream@@QAEXXZ:PROC		; CNetworkStream::Disconnect
EXTRN	?IsOnline@CNetworkStream@@QAE_NXZ:PROC		; CNetworkStream::IsOnline
EXTRN	?SetPacketSequenceMode@CNetworkStream@@QAEX_N@Z:PROC ; CNetworkStream::SetPacketSequenceMode
EXTRN	?StartGame@CPythonNetworkStream@@QAEXXZ:PROC	; CPythonNetworkStream::StartGame
EXTRN	?Warp@CPythonNetworkStream@@QAEXJJ@Z:PROC	; CPythonNetworkStream::Warp
EXTRN	?SendEmoticon@CPythonNetworkStream@@QAEXI@Z:PROC ; CPythonNetworkStream::SendEmoticon
EXTRN	?ExitApplication@CPythonNetworkStream@@QAEXXZ:PROC ; CPythonNetworkStream::ExitApplication
EXTRN	?ExitGame@CPythonNetworkStream@@QAEXXZ:PROC	; CPythonNetworkStream::ExitGame
EXTRN	?LogOutGame@CPythonNetworkStream@@QAEXXZ:PROC	; CPythonNetworkStream::LogOutGame
EXTRN	?EnableChatInsultFilter@CPythonNetworkStream@@QAEX_N@Z:PROC ; CPythonNetworkStream::EnableChatInsultFilter
EXTRN	?IsChatInsultIn@CPythonNetworkStream@@QAE_NPBD@Z:PROC ; CPythonNetworkStream::IsChatInsultIn
EXTRN	?IsInsultIn@CPythonNetworkStream@@QAE_NPBD@Z:PROC ; CPythonNetworkStream::IsInsultIn
EXTRN	?GetGuildID@CPythonNetworkStream@@QAEKXZ:PROC	; CPythonNetworkStream::GetGuildID
EXTRN	?UploadMark@CPythonNetworkStream@@QAEIPBD@Z:PROC ; CPythonNetworkStream::UploadMark
EXTRN	?UploadSymbol@CPythonNetworkStream@@QAEIPBD@Z:PROC ; CPythonNetworkStream::UploadSymbol
EXTRN	?LoadInsultList@CPythonNetworkStream@@QAE_NPBD@Z:PROC ; CPythonNetworkStream::LoadInsultList
EXTRN	?GetAccountCharacterSlotDatau@CPythonNetworkStream@@QAEIII@Z:PROC ; CPythonNetworkStream::GetAccountCharacterSlotDatau
EXTRN	?GetAccountCharacterSlotDataz@CPythonNetworkStream@@QAEPBDII@Z:PROC ; CPythonNetworkStream::GetAccountCharacterSlotDataz
EXTRN	?GetFieldMusicFileName@CPythonNetworkStream@@QAEPBDXZ:PROC ; CPythonNetworkStream::GetFieldMusicFileName
EXTRN	?GetFieldMusicVolume@CPythonNetworkStream@@QAEMXZ:PROC ; CPythonNetworkStream::GetFieldMusicVolume
EXTRN	?IsSelectedEmpire@CPythonNetworkStream@@QAE_NXZ:PROC ; CPythonNetworkStream::IsSelectedEmpire
EXTRN	?ToggleGameDebugInfo@CPythonNetworkStream@@QAEXXZ:PROC ; CPythonNetworkStream::ToggleGameDebugInfo
EXTRN	?SetMarkServer@CPythonNetworkStream@@QAEXPBDI@Z:PROC ; CPythonNetworkStream::SetMarkServer
EXTRN	?ConnectLoginServer@CPythonNetworkStream@@QAEXPBDI@Z:PROC ; CPythonNetworkStream::ConnectLoginServer
EXTRN	?ConnectGameServer@CPythonNetworkStream@@QAEXI@Z:PROC ; CPythonNetworkStream::ConnectGameServer
EXTRN	?SetLoginInfo@CPythonNetworkStream@@QAEXPBD0@Z:PROC ; CPythonNetworkStream::SetLoginInfo
EXTRN	?SetHandler@CPythonNetworkStream@@QAEXPAU_object@@@Z:PROC ; CPythonNetworkStream::SetHandler
EXTRN	?SetPhaseWindow@CPythonNetworkStream@@QAEXIPAU_object@@@Z:PROC ; CPythonNetworkStream::SetPhaseWindow
EXTRN	?ClearPhaseWindow@CPythonNetworkStream@@QAEXIPAU_object@@@Z:PROC ; CPythonNetworkStream::ClearPhaseWindow
EXTRN	?SetServerCommandParserWindow@CPythonNetworkStream@@QAEXPAU_object@@@Z:PROC ; CPythonNetworkStream::SetServerCommandParserWindow
EXTRN	?SendCharacterPositionPacket@CPythonNetworkStream@@QAE_NE@Z:PROC ; CPythonNetworkStream::SendCharacterPositionPacket
EXTRN	?SendItemUsePacket@CPythonNetworkStream@@QAE_NUSItemPos@@@Z:PROC ; CPythonNetworkStream::SendItemUsePacket
EXTRN	?SendItemUseToItemPacket@CPythonNetworkStream@@QAE_NUSItemPos@@0@Z:PROC ; CPythonNetworkStream::SendItemUseToItemPacket
EXTRN	?SendItemDropPacket@CPythonNetworkStream@@QAE_NUSItemPos@@K@Z:PROC ; CPythonNetworkStream::SendItemDropPacket
EXTRN	?SendItemDropPacketNew@CPythonNetworkStream@@QAE_NUSItemPos@@KK@Z:PROC ; CPythonNetworkStream::SendItemDropPacketNew
EXTRN	?SendItemMovePacket@CPythonNetworkStream@@QAE_NUSItemPos@@0E@Z:PROC ; CPythonNetworkStream::SendItemMovePacket
EXTRN	?SendItemPickUpPacket@CPythonNetworkStream@@QAE_NK@Z:PROC ; CPythonNetworkStream::SendItemPickUpPacket
EXTRN	?SendShopEndPacket@CPythonNetworkStream@@QAE_NXZ:PROC ; CPythonNetworkStream::SendShopEndPacket
EXTRN	?SendShopBuyPacket@CPythonNetworkStream@@QAE_NE@Z:PROC ; CPythonNetworkStream::SendShopBuyPacket
EXTRN	?SendShopSellPacket@CPythonNetworkStream@@QAE_NE@Z:PROC ; CPythonNetworkStream::SendShopSellPacket
EXTRN	?SendShopSellPacketNew@CPythonNetworkStream@@QAE_NEE@Z:PROC ; CPythonNetworkStream::SendShopSellPacketNew
EXTRN	?SendExchangeStartPacket@CPythonNetworkStream@@QAE_NK@Z:PROC ; CPythonNetworkStream::SendExchangeStartPacket
EXTRN	?SendExchangeItemAddPacket@CPythonNetworkStream@@QAE_NUSItemPos@@E@Z:PROC ; CPythonNetworkStream::SendExchangeItemAddPacket
EXTRN	?SendExchangeElkAddPacket@CPythonNetworkStream@@QAE_NK@Z:PROC ; CPythonNetworkStream::SendExchangeElkAddPacket
EXTRN	?SendExchangeItemDelPacket@CPythonNetworkStream@@QAE_NE@Z:PROC ; CPythonNetworkStream::SendExchangeItemDelPacket
EXTRN	?SendExchangeAcceptPacket@CPythonNetworkStream@@QAE_NXZ:PROC ; CPythonNetworkStream::SendExchangeAcceptPacket
EXTRN	?SendExchangeExitPacket@CPythonNetworkStream@@QAE_NXZ:PROC ; CPythonNetworkStream::SendExchangeExitPacket
EXTRN	?SendAnswerMakeGuildPacket@CPythonNetworkStream@@QAE_NPBD@Z:PROC ; CPythonNetworkStream::SendAnswerMakeGuildPacket
EXTRN	?SendQuestInputStringPacket@CPythonNetworkStream@@QAE_NPBD@Z:PROC ; CPythonNetworkStream::SendQuestInputStringPacket
EXTRN	?SendQuestConfirmPacket@CPythonNetworkStream@@QAE_NEK@Z:PROC ; CPythonNetworkStream::SendQuestConfirmPacket
EXTRN	?SendOnClickPacket@CPythonNetworkStream@@QAE_NK@Z:PROC ; CPythonNetworkStream::SendOnClickPacket
EXTRN	?RegisterEmoticonString@CPythonNetworkStream@@QAEXPBD@Z:PROC ; CPythonNetworkStream::RegisterEmoticonString
EXTRN	?SendPartyInvitePacket@CPythonNetworkStream@@QAE_NK@Z:PROC ; CPythonNetworkStream::SendPartyInvitePacket
EXTRN	?SendPartyInviteAnswerPacket@CPythonNetworkStream@@QAE_NKE@Z:PROC ; CPythonNetworkStream::SendPartyInviteAnswerPacket
EXTRN	?SendPartyRemovePacket@CPythonNetworkStream@@QAE_NK@Z:PROC ; CPythonNetworkStream::SendPartyRemovePacket
EXTRN	?SendPartySetStatePacket@CPythonNetworkStream@@QAE_NKEE@Z:PROC ; CPythonNetworkStream::SendPartySetStatePacket
EXTRN	?SendPartyUseSkillPacket@CPythonNetworkStream@@QAE_NEK@Z:PROC ; CPythonNetworkStream::SendPartyUseSkillPacket
EXTRN	?SendPartyParameterPacket@CPythonNetworkStream@@QAE_NE@Z:PROC ; CPythonNetworkStream::SendPartyParameterPacket
EXTRN	?SendSafeBoxMoneyPacket@CPythonNetworkStream@@QAE_NEK@Z:PROC ; CPythonNetworkStream::SendSafeBoxMoneyPacket
EXTRN	?SendSafeBoxCheckinPacket@CPythonNetworkStream@@QAE_NUSItemPos@@E@Z:PROC ; CPythonNetworkStream::SendSafeBoxCheckinPacket
EXTRN	?SendSafeBoxCheckoutPacket@CPythonNetworkStream@@QAE_NEUSItemPos@@@Z:PROC ; CPythonNetworkStream::SendSafeBoxCheckoutPacket
EXTRN	?SendSafeBoxItemMovePacket@CPythonNetworkStream@@QAE_NEEE@Z:PROC ; CPythonNetworkStream::SendSafeBoxItemMovePacket
EXTRN	?SendMallCheckoutPacket@CPythonNetworkStream@@QAE_NEUSItemPos@@@Z:PROC ; CPythonNetworkStream::SendMallCheckoutPacket
EXTRN	?SendGuildAddMemberPacket@CPythonNetworkStream@@QAE_NK@Z:PROC ; CPythonNetworkStream::SendGuildAddMemberPacket
EXTRN	?SendGuildRemoveMemberPacket@CPythonNetworkStream@@QAE_NK@Z:PROC ; CPythonNetworkStream::SendGuildRemoveMemberPacket
EXTRN	?SendGuildChangeGradeNamePacket@CPythonNetworkStream@@QAE_NEPBD@Z:PROC ; CPythonNetworkStream::SendGuildChangeGradeNamePacket
EXTRN	?SendGuildChangeGradeAuthorityPacket@CPythonNetworkStream@@QAE_NEE@Z:PROC ; CPythonNetworkStream::SendGuildChangeGradeAuthorityPacket
EXTRN	?SendGuildOfferPacket@CPythonNetworkStream@@QAE_NK@Z:PROC ; CPythonNetworkStream::SendGuildOfferPacket
EXTRN	?SendGuildPostCommentPacket@CPythonNetworkStream@@QAE_NPBD@Z:PROC ; CPythonNetworkStream::SendGuildPostCommentPacket
EXTRN	?SendGuildDeleteCommentPacket@CPythonNetworkStream@@QAE_NK@Z:PROC ; CPythonNetworkStream::SendGuildDeleteCommentPacket
EXTRN	?SendGuildRefreshCommentsPacket@CPythonNetworkStream@@QAE_NK@Z:PROC ; CPythonNetworkStream::SendGuildRefreshCommentsPacket
EXTRN	?SendGuildChangeMemberGradePacket@CPythonNetworkStream@@QAE_NKE@Z:PROC ; CPythonNetworkStream::SendGuildChangeMemberGradePacket
EXTRN	?SendGuildUseSkillPacket@CPythonNetworkStream@@QAE_NKK@Z:PROC ; CPythonNetworkStream::SendGuildUseSkillPacket
EXTRN	?SendGuildChangeMemberGeneralPacket@CPythonNetworkStream@@QAE_NKE@Z:PROC ; CPythonNetworkStream::SendGuildChangeMemberGeneralPacket
EXTRN	?SendGuildInviteAnswerPacket@CPythonNetworkStream@@QAE_NKE@Z:PROC ; CPythonNetworkStream::SendGuildInviteAnswerPacket
EXTRN	?SendGuildChargeGSPPacket@CPythonNetworkStream@@QAE_NK@Z:PROC ; CPythonNetworkStream::SendGuildChargeGSPPacket
EXTRN	?SendGuildDepositMoneyPacket@CPythonNetworkStream@@QAE_NK@Z:PROC ; CPythonNetworkStream::SendGuildDepositMoneyPacket
EXTRN	?SendGuildWithdrawMoneyPacket@CPythonNetworkStream@@QAE_NK@Z:PROC ; CPythonNetworkStream::SendGuildWithdrawMoneyPacket
EXTRN	?SendGiveItemPacket@CPythonNetworkStream@@QAE_NKUSItemPos@@H@Z:PROC ; CPythonNetworkStream::SendGiveItemPacket
EXTRN	?SendRefinePacket@CPythonNetworkStream@@QAE_NEE@Z:PROC ; CPythonNetworkStream::SendRefinePacket
EXTRN	?SendSelectItemPacket@CPythonNetworkStream@@QAE_NK@Z:PROC ; CPythonNetworkStream::SendSelectItemPacket
EXTRN	?GetMainActorVID@CPythonNetworkStream@@QAEKXZ:PROC ; CPythonNetworkStream::GetMainActorVID
EXTRN	?GetMainActorRace@CPythonNetworkStream@@QAEKXZ:PROC ; CPythonNetworkStream::GetMainActorRace
EXTRN	?GetMainActorEmpire@CPythonNetworkStream@@QAEKXZ:PROC ; CPythonNetworkStream::GetMainActorEmpire
EXTRN	?GetMainActorSkillGroup@CPythonNetworkStream@@QAEKXZ:PROC ; CPythonNetworkStream::GetMainActorSkillGroup
EXTRN	?GetEmpireID@CPythonNetworkStream@@QAEKXZ:PROC	; CPythonNetworkStream::GetEmpireID
EXTRN	?__TEST_SetSkillGroupFake@CPythonNetworkStream@@QAEXH@Z:PROC ; CPythonNetworkStream::__TEST_SetSkillGroupFake
EXTRN	?SetOffLinePhase@CPythonNetworkStream@@QAEXXZ:PROC ; CPythonNetworkStream::SetOffLinePhase
EXTRN	?SendLoginPacket@CPythonNetworkStream@@QAE_NPBD0@Z:PROC ; CPythonNetworkStream::SendLoginPacket
EXTRN	?SendEnterGame@CPythonNetworkStream@@QAE_NXZ:PROC ; CPythonNetworkStream::SendEnterGame
EXTRN	?SendSelectEmpirePacket@CPythonNetworkStream@@QAE_NK@Z:PROC ; CPythonNetworkStream::SendSelectEmpirePacket
EXTRN	?SendSelectCharacterPacket@CPythonNetworkStream@@QAE_NE@Z:PROC ; CPythonNetworkStream::SendSelectCharacterPacket
EXTRN	?SendChangeNamePacket@CPythonNetworkStream@@QAE_NEPBD@Z:PROC ; CPythonNetworkStream::SendChangeNamePacket
EXTRN	?SendCreateCharacterPacket@CPythonNetworkStream@@QAE_NEPBDEEEEEE@Z:PROC ; CPythonNetworkStream::SendCreateCharacterPacket
EXTRN	?SendDestroyCharacterPacket@CPythonNetworkStream@@QAE_NEPBD@Z:PROC ; CPythonNetworkStream::SendDestroyCharacterPacket
EXTRN	?SendChatPacket@CPythonNetworkStream@@QAE_NPBDE@Z:PROC ; CPythonNetworkStream::SendChatPacket
EXTRN	?SendWhisperPacket@CPythonNetworkStream@@QAE_NPBD0@Z:PROC ; CPythonNetworkStream::SendWhisperPacket
EXTRN	?SendMobileMessagePacket@CPythonNetworkStream@@QAE_NPBD0@Z:PROC ; CPythonNetworkStream::SendMobileMessagePacket
EXTRN	?SendMessengerAddByVIDPacket@CPythonNetworkStream@@QAE_NK@Z:PROC ; CPythonNetworkStream::SendMessengerAddByVIDPacket
EXTRN	?SendMessengerAddByNamePacket@CPythonNetworkStream@@QAE_NPBD@Z:PROC ; CPythonNetworkStream::SendMessengerAddByNamePacket
EXTRN	?SendMessengerRemovePacket@CPythonNetworkStream@@QAE_NPBD0@Z:PROC ; CPythonNetworkStream::SendMessengerRemovePacket
EXTRN	?EXPORT_GetBettingGuildWarValue@CPythonNetworkStream@@QAEKPBD@Z:PROC ; CPythonNetworkStream::EXPORT_GetBettingGuildWarValue
EXTRN	?SetHandler@CAccountConnector@@QAEXPAU_object@@@Z:PROC ; CAccountConnector::SetHandler
EXTRN	?SetLoginInfo@CAccountConnector@@QAEXPBD0@Z:PROC ; CAccountConnector::SetLoginInfo
EXTRN	?SendChinaMatrixCardPacket@CAccountConnector@@QAE_NPBD@Z:PROC ; CAccountConnector::SendChinaMatrixCardPacket
EXTRN	?SendRunupMatrixCardPacket@CAccountConnector@@QAE_NPBD@Z:PROC ; CAccountConnector::SendRunupMatrixCardPacket
EXTRN	?SendNEWCIBNPasspodAnswerPacket@CAccountConnector@@QAE_NPBD@Z:PROC ; CAccountConnector::SendNEWCIBNPasspodAnswerPacket
EXTRN	?Connect@CAccountConnector@@QAE_NPBDH0H@Z:PROC	; CAccountConnector::Connect
EXTRN	?GetMemberDataPtrByName@CPythonGuild@@QAEHPBDPAPAUSGuildMemberData@1@@Z:PROC ; CPythonGuild::GetMemberDataPtrByName
EXTRN	?ConnectToRecvSymbol@CGuildMarkDownloader@@QAE_NABVCNetworkAddress@@KKABV?$vector@KV?$allocator@K@std@@@std@@@Z:PROC ; CGuildMarkDownloader::ConnectToRecvSymbol
EXTRN	@__security_check_cookie@4:PROC
EXTRN	__CxxThrowException@8:PROC
EXTRN	___CxxFrameHandler3:PROC
EXTRN	??_7type_info@@6B@:QWORD			; type_info::`vftable'
EXTRN	?__IS_TEST_SERVER_MODE__@@3_NA:BYTE		; __IS_TEST_SERVER_MODE__
EXTRN	?gs_bEmpireLanuageEnable@@3HA:DWORD		; gs_bEmpireLanuageEnable
EXTRN	___security_cookie:DWORD
EXTRN	__fltused:DWORD
;	COMDAT ?ms_singleton@?$CSingleton@VCPythonNetworkStream@@@@0PAVCPythonNetworkStream@@A
_BSS	SEGMENT
?ms_singleton@?$CSingleton@VCPythonNetworkStream@@@@0PAVCPythonNetworkStream@@A DD 01H DUP (?) ; CSingleton<CPythonNetworkStream>::ms_singleton
_BSS	ENDS
;	COMDAT ?ms_singleton@?$CSingleton@VCAccountConnector@@@@0PAVCAccountConnector@@A
_BSS	SEGMENT
?ms_singleton@?$CSingleton@VCAccountConnector@@@@0PAVCAccountConnector@@A DD 01H DUP (?) ; CSingleton<CAccountConnector>::ms_singleton
_BSS	ENDS
;	COMDAT ?ms_singleton@?$CSingleton@VCPythonGuild@@@@0PAVCPythonGuild@@A
_BSS	SEGMENT
?ms_singleton@?$CSingleton@VCPythonGuild@@@@0PAVCPythonGuild@@A DD 01H DUP (?) ; CSingleton<CPythonGuild>::ms_singleton
_BSS	ENDS
;	COMDAT ?ms_singleton@?$TAbstractSingleton@VIAbstractPlayer@@@@0PAVIAbstractPlayer@@A
_BSS	SEGMENT
?ms_singleton@?$TAbstractSingleton@VIAbstractPlayer@@@@0PAVIAbstractPlayer@@A DD 01H DUP (?) ; TAbstractSingleton<IAbstractPlayer>::ms_singleton
_BSS	ENDS
_BSS	SEGMENT
?gs_stServerInfo@@3V?$basic_string@DU?$char_traits@D@std@@V?$allocator@D@2@@std@@A DB 018H DUP (?) ; gs_stServerInfo
?g_kList_strCommand@@3V?$list@V?$basic_string@DU?$char_traits@D@std@@V?$allocator@D@2@@std@@V?$allocator@V?$basic_string@DU?$char_traits@D@std@@V?$allocator@D@2@@std@@@2@@std@@A DQ 01H DUP (?) ; g_kList_strCommand
_BSS	ENDS
;	COMDAT ?ms_singleton@?$CSingleton@VCGuildMarkUploader@@@@0PAVCGuildMarkUploader@@A
_BSS	SEGMENT
?ms_singleton@?$CSingleton@VCGuildMarkUploader@@@@0PAVCGuildMarkUploader@@A DD 01H DUP (?) ; CSingleton<CGuildMarkUploader>::ms_singleton
_BSS	ENDS
;	COMDAT ?ms_singleton@?$CSingleton@VCGuildMarkDownloader@@@@0PAVCGuildMarkDownloader@@A
_BSS	SEGMENT
?ms_singleton@?$CSingleton@VCGuildMarkDownloader@@@@0PAVCGuildMarkDownloader@@A DD 01H DUP (?) ; CSingleton<CGuildMarkDownloader>::ms_singleton
_BSS	ENDS
CRT$XCU	SEGMENT
?gs_stServerInfo$initializer$@@3P6AXXZA DD FLAT:??__Egs_stServerInfo@@YAXXZ ; gs_stServerInfo$initializer$
CRT$XCU	ENDS
;	COMDAT ??_C@_0O@NKNMEGII@list?5too?5long@
CONST	SEGMENT
??_C@_0O@NKNMEGII@list?5too?5long@ DB 'list too long', 00H ; `string'
CONST	ENDS
;	COMDAT ??_C@_0BN@OJONLPHM@DS_SUB_HEADER_REFINE_SUCCEED@
CONST	SEGMENT
??_C@_0BN@OJONLPHM@DS_SUB_HEADER_REFINE_SUCCEED@ DB 'DS_SUB_HEADER_REFINE'
	DB	'_SUCCEED', 00H				; `string'
CONST	ENDS
;	COMDAT ??_C@_0CM@PJCLJBCJ@DS_SUB_HEADER_REFINE_FAIL_TOO_M@
CONST	SEGMENT
??_C@_0CM@PJCLJBCJ@DS_SUB_HEADER_REFINE_FAIL_TOO_M@ DB 'DS_SUB_HEADER_REF'
	DB	'INE_FAIL_TOO_MUCH_MATERIAL', 00H		; `string'
CONST	ENDS
;	COMDAT ??_C@_0CO@HIKHGDBM@DS_SUB_HEADER_REFINE_FAIL_NOT_E@
CONST	SEGMENT
??_C@_0CO@HIKHGDBM@DS_SUB_HEADER_REFINE_FAIL_NOT_E@ DB 'DS_SUB_HEADER_REF'
	DB	'INE_FAIL_NOT_ENOUGH_MATERIAL', 00H		; `string'
CONST	ENDS
;	COMDAT ??_C@_0CL@DKLCPNME@DS_SUB_HEADER_REFINE_FAIL_NOT_E@
CONST	SEGMENT
??_C@_0CL@DKLCPNME@DS_SUB_HEADER_REFINE_FAIL_NOT_E@ DB 'DS_SUB_HEADER_REF'
	DB	'INE_FAIL_NOT_ENOUGH_MONEY', 00H		; `string'
CONST	ENDS
;	COMDAT ??_C@_0CL@CHMHFOOJ@DS_SUB_HEADER_REFINE_FAIL_INVAL@
CONST	SEGMENT
??_C@_0CL@CHMHFOOJ@DS_SUB_HEADER_REFINE_FAIL_INVAL@ DB 'DS_SUB_HEADER_REF'
	DB	'INE_FAIL_INVALID_MATERIAL', 00H		; `string'
CONST	ENDS
;	COMDAT ??_C@_0CF@NHMIOPGD@DS_SUB_HEADER_REFINE_FAIL_MAX_R@
CONST	SEGMENT
??_C@_0CF@NHMIOPGD@DS_SUB_HEADER_REFINE_FAIL_MAX_R@ DB 'DS_SUB_HEADER_REF'
	DB	'INE_FAIL_MAX_REFINE', 00H			; `string'
CONST	ENDS
;	COMDAT ??_C@_0BK@IMPJEABP@DS_SUB_HEADER_REFINE_FAIL@
CONST	SEGMENT
??_C@_0BK@IMPJEABP@DS_SUB_HEADER_REFINE_FAIL@ DB 'DS_SUB_HEADER_REFINE_FA'
	DB	'IL', 00H					; `string'
CONST	ENDS
;	COMDAT ??_C@_08GGEEIJNJ@EMPIRE_C@
CONST	SEGMENT
??_C@_08GGEEIJNJ@EMPIRE_C@ DB 'EMPIRE_C', 00H		; `string'
CONST	ENDS
;	COMDAT ??_C@_08HPFPLIJI@EMPIRE_B@
CONST	SEGMENT
??_C@_08HPFPLIJI@EMPIRE_B@ DB 'EMPIRE_B', 00H		; `string'
CONST	ENDS
;	COMDAT ??_C@_08FEHCOLFL@EMPIRE_A@
CONST	SEGMENT
??_C@_08FEHCOLFL@EMPIRE_A@ DB 'EMPIRE_A', 00H		; `string'
CONST	ENDS
;	COMDAT ??_C@_0BE@FCDHFIHM@SERVER_COMMAND_QUIT@
CONST	SEGMENT
??_C@_0BE@FCDHFIHM@SERVER_COMMAND_QUIT@ DB 'SERVER_COMMAND_QUIT', 00H ; `string'
CONST	ENDS
;	COMDAT ??_C@_0CK@IDBHOJE@SERVER_COMMAND_RETURN_TO_SELECT@
CONST	SEGMENT
??_C@_0CK@IDBHOJE@SERVER_COMMAND_RETURN_TO_SELECT@ DB 'SERVER_COMMAND_RET'
	DB	'URN_TO_SELECT_CHARACTER', 00H		; `string'
CONST	ENDS
;	COMDAT ??_C@_0BH@IJCJGIEO@SERVER_COMMAND_LOG_OUT@
CONST	SEGMENT
??_C@_0BH@IJCJGIEO@SERVER_COMMAND_LOG_OUT@ DB 'SERVER_COMMAND_LOG_OUT', 00H ; `string'
CONST	ENDS
;	COMDAT ??_C@_0BM@BPKEDCMB@ACCOUNT_CHARACTER_SLOT_HAIR@
CONST	SEGMENT
??_C@_0BM@BPKEDCMB@ACCOUNT_CHARACTER_SLOT_HAIR@ DB 'ACCOUNT_CHARACTER_SLO'
	DB	'T_HAIR', 00H				; `string'
CONST	ENDS
;	COMDAT ??_C@_0CI@NIHCCHJE@ACCOUNT_CHARACTER_SLOT_CHANGE_N@
CONST	SEGMENT
??_C@_0CI@NIHCCHJE@ACCOUNT_CHARACTER_SLOT_CHANGE_N@ DB 'ACCOUNT_CHARACTER'
	DB	'_SLOT_CHANGE_NAME_FLAG', 00H		; `string'
CONST	ENDS
;	COMDAT ??_C@_0CC@HMBBCNEO@ACCOUNT_CHARACTER_SLOT_GUILD_NA@
CONST	SEGMENT
??_C@_0CC@HMBBCNEO@ACCOUNT_CHARACTER_SLOT_GUILD_NA@ DB 'ACCOUNT_CHARACTER'
	DB	'_SLOT_GUILD_NAME', 00H			; `string'
CONST	ENDS
;	COMDAT ??_C@_0CA@GFKKICFN@ACCOUNT_CHARACTER_SLOT_GUILD_ID@
CONST	SEGMENT
??_C@_0CA@GFKKICFN@ACCOUNT_CHARACTER_SLOT_GUILD_ID@ DB 'ACCOUNT_CHARACTER'
	DB	'_SLOT_GUILD_ID', 00H			; `string'
CONST	ENDS
;	COMDAT ??_C@_0BM@OJMCHCKG@ACCOUNT_CHARACTER_SLOT_PORT@
CONST	SEGMENT
??_C@_0BM@OJMCHCKG@ACCOUNT_CHARACTER_SLOT_PORT@ DB 'ACCOUNT_CHARACTER_SLO'
	DB	'T_PORT', 00H				; `string'
CONST	ENDS
;	COMDAT ??_C@_0BM@CNLCDDNB@ACCOUNT_CHARACTER_SLOT_ADDR@
CONST	SEGMENT
??_C@_0BM@CNLCDDNB@ACCOUNT_CHARACTER_SLOT_ADDR@ DB 'ACCOUNT_CHARACTER_SLO'
	DB	'T_ADDR', 00H				; `string'
CONST	ENDS
;	COMDAT ??_C@_0BM@JNGCLJJM@ACCOUNT_CHARACTER_SLOT_FORM@
CONST	SEGMENT
??_C@_0BM@JNGCLJJM@ACCOUNT_CHARACTER_SLOT_FORM@ DB 'ACCOUNT_CHARACTER_SLO'
	DB	'T_FORM', 00H				; `string'
CONST	ENDS
;	COMDAT ??_C@_0CA@KFILFMPG@ACCOUNT_CHARACTER_SLOT_PLAYTIME@
CONST	SEGMENT
??_C@_0CA@KFILFMPG@ACCOUNT_CHARACTER_SLOT_PLAYTIME@ DB 'ACCOUNT_CHARACTER'
	DB	'_SLOT_PLAYTIME', 00H			; `string'
CONST	ENDS
;	COMDAT ??_C@_0BL@PICCMPNB@ACCOUNT_CHARACTER_SLOT_HTH@
CONST	SEGMENT
??_C@_0BL@PICCMPNB@ACCOUNT_CHARACTER_SLOT_HTH@ DB 'ACCOUNT_CHARACTER_SLOT'
	DB	'_HTH', 00H					; `string'
CONST	ENDS
;	COMDAT ??_C@_0BL@LHFINDEP@ACCOUNT_CHARACTER_SLOT_INT@
CONST	SEGMENT
??_C@_0BL@LHFINDEP@ACCOUNT_CHARACTER_SLOT_INT@ DB 'ACCOUNT_CHARACTER_SLOT'
	DB	'_INT', 00H					; `string'
CONST	ENDS
;	COMDAT ??_C@_0BL@OFNCKLHP@ACCOUNT_CHARACTER_SLOT_DEX@
CONST	SEGMENT
??_C@_0BL@OFNCKLHP@ACCOUNT_CHARACTER_SLOT_DEX@ DB 'ACCOUNT_CHARACTER_SLOT'
	DB	'_DEX', 00H					; `string'
CONST	ENDS
;	COMDAT ??_C@_0BL@MPBHOFJE@ACCOUNT_CHARACTER_SLOT_STR@
CONST	SEGMENT
??_C@_0BL@MPBHOFJE@ACCOUNT_CHARACTER_SLOT_STR@ DB 'ACCOUNT_CHARACTER_SLOT'
	DB	'_STR', 00H					; `string'
CONST	ENDS
;	COMDAT ??_C@_0BN@MPLCEAPH@ACCOUNT_CHARACTER_SLOT_LEVEL@
CONST	SEGMENT
??_C@_0BN@MPLCEAPH@ACCOUNT_CHARACTER_SLOT_LEVEL@ DB 'ACCOUNT_CHARACTER_SL'
	DB	'OT_LEVEL', 00H				; `string'
CONST	ENDS
;	COMDAT ??_C@_0BM@DNOALMKC@ACCOUNT_CHARACTER_SLOT_RACE@
CONST	SEGMENT
??_C@_0BM@DNOALMKC@ACCOUNT_CHARACTER_SLOT_RACE@ DB 'ACCOUNT_CHARACTER_SLO'
	DB	'T_RACE', 00H				; `string'
CONST	ENDS
;	COMDAT ??_C@_0BM@JCGOOLCL@ACCOUNT_CHARACTER_SLOT_NAME@
CONST	SEGMENT
??_C@_0BM@JCGOOLCL@ACCOUNT_CHARACTER_SLOT_NAME@ DB 'ACCOUNT_CHARACTER_SLO'
	DB	'T_NAME', 00H				; `string'
CONST	ENDS
;	COMDAT ??_C@_0BK@HDGGAJBJ@ACCOUNT_CHARACTER_SLOT_ID@
CONST	SEGMENT
??_C@_0BK@HDGGAJBJ@ACCOUNT_CHARACTER_SLOT_ID@ DB 'ACCOUNT_CHARACTER_SLOT_'
	DB	'ID', 00H					; `string'
CONST	ENDS
;	COMDAT ??_C@_0BC@BCDCNNFP@PHASE_WINDOW_LOGO@
CONST	SEGMENT
??_C@_0BC@BCDCNNFP@PHASE_WINDOW_LOGO@ DB 'PHASE_WINDOW_LOGO', 00H ; `string'
CONST	ENDS
;	COMDAT ??_C@_0BE@IIMEMMI@PHASE_WINDOW_EMPIRE@
CONST	SEGMENT
??_C@_0BE@IIMEMMI@PHASE_WINDOW_EMPIRE@ DB 'PHASE_WINDOW_EMPIRE', 00H ; `string'
CONST	ENDS
;	COMDAT ??_C@_0BC@HCEFPGCB@PHASE_WINDOW_GAME@
CONST	SEGMENT
??_C@_0BC@HCEFPGCB@PHASE_WINDOW_GAME@ DB 'PHASE_WINDOW_GAME', 00H ; `string'
CONST	ENDS
;	COMDAT ??_C@_0BC@PFELHICG@PHASE_WINDOW_LOAD@
CONST	SEGMENT
??_C@_0BC@PFELHICG@PHASE_WINDOW_LOAD@ DB 'PHASE_WINDOW_LOAD', 00H ; `string'
CONST	ENDS
;	COMDAT ??_C@_0BE@PAOFIFBD@PHASE_WINDOW_CREATE@
CONST	SEGMENT
??_C@_0BE@PAOFIFBD@PHASE_WINDOW_CREATE@ DB 'PHASE_WINDOW_CREATE', 00H ; `string'
CONST	ENDS
;	COMDAT ??_C@_0BE@EBCKEIDN@PHASE_WINDOW_SELECT@
CONST	SEGMENT
??_C@_0BE@EBCKEIDN@PHASE_WINDOW_SELECT@ DB 'PHASE_WINDOW_SELECT', 00H ; `string'
CONST	ENDS
;	COMDAT ??_C@_0BD@JBLBGAIB@PHASE_WINDOW_LOGIN@
CONST	SEGMENT
??_C@_0BD@JBLBGAIB@PHASE_WINDOW_LOGIN@ DB 'PHASE_WINDOW_LOGIN', 00H ; `string'
CONST	ENDS
;	COMDAT ??_C@_0CA@JMHMMKLO@ERROR_MARK_CHECK_NEED_RECONNECT@
CONST	SEGMENT
??_C@_0CA@JMHMMKLO@ERROR_MARK_CHECK_NEED_RECONNECT@ DB 'ERROR_MARK_CHECK_'
	DB	'NEED_RECONNECT', 00H			; `string'
CONST	ENDS
;	COMDAT ??_C@_0CB@BOPIDGGI@ERROR_MARK_UPLOAD_NEED_RECONNEC@
CONST	SEGMENT
??_C@_0CB@BOPIDGGI@ERROR_MARK_UPLOAD_NEED_RECONNEC@ DB 'ERROR_MARK_UPLOAD'
	DB	'_NEED_RECONNECT', 00H			; `string'
CONST	ENDS
;	COMDAT ??_C@_0BC@GOIIBBEJ@ERROR_MARK_HEIGHT@
CONST	SEGMENT
??_C@_0BC@GOIIBBEJ@ERROR_MARK_HEIGHT@ DB 'ERROR_MARK_HEIGHT', 00H ; `string'
CONST	ENDS
;	COMDAT ??_C@_0BB@FEGLKDMB@ERROR_MARK_WIDTH@
CONST	SEGMENT
??_C@_0BB@FEGLKDMB@ERROR_MARK_WIDTH@ DB 'ERROR_MARK_WIDTH', 00H ; `string'
CONST	ENDS
;	COMDAT ??_C@_0BA@NEJKKBEJ@ERROR_LOAD_MARK@
CONST	SEGMENT
??_C@_0BA@NEJKKBEJ@ERROR_LOAD_MARK@ DB 'ERROR_LOAD_MARK', 00H ; `string'
CONST	ENDS
;	COMDAT ??_C@_0BK@BILAANNF@ERROR_CONNECT_MARK_SERVER@
CONST	SEGMENT
??_C@_0BK@BILAANNF@ERROR_CONNECT_MARK_SERVER@ DB 'ERROR_CONNECT_MARK_SERV'
	DB	'ER', 00H					; `string'
CONST	ENDS
;	COMDAT ??_C@_0L@LILDODAP@ERROR_NONE@
CONST	SEGMENT
??_C@_0L@LILDODAP@ERROR_NONE@ DB 'ERROR_NONE', 00H	; `string'
CONST	ENDS
;	COMDAT ??_C@_03NBFOK@net@
CONST	SEGMENT
??_C@_03NBFOK@net@ DB 'net', 00H			; `string'
CONST	ENDS
;	COMDAT ??_C@_0BB@CABIEEGM@RegisterErrorLog@
CONST	SEGMENT
??_C@_0BB@CABIEEGM@RegisterErrorLog@ DB 'RegisterErrorLog', 00H ; `string'
CONST	ENDS
;	COMDAT ??_C@_0BA@ILHNHDAK@RecvGuildSymbol@
CONST	SEGMENT
??_C@_0BA@ILHNHDAK@RecvGuildSymbol@ DB 'RecvGuildSymbol', 00H ; `string'
CONST	ENDS
;	COMDAT ??_C@_0BD@PIFKMNDO@DisconnectUploader@
CONST	SEGMENT
??_C@_0BD@PIFKMNDO@DisconnectUploader@ DB 'DisconnectUploader', 00H ; `string'
CONST	ENDS
;	COMDAT ??_C@_0BA@EGLEIBFB@SendGuildSymbol@
CONST	SEGMENT
??_C@_0BA@EGLEIBFB@SendGuildSymbol@ DB 'SendGuildSymbol', 00H ; `string'
CONST	ENDS
;	COMDAT ??_C@_0BC@NOAKHLIH@SetSkillGroupFake@
CONST	SEGMENT
??_C@_0BC@NOAKHLIH@SetSkillGroupFake@ DB 'SetSkillGroupFake', 00H ; `string'
CONST	ENDS
;	COMDAT ??_C@_0BG@KCIMJDEA@SetEmpireLanguageMode@
CONST	SEGMENT
??_C@_0BG@KCIMJDEA@SetEmpireLanguageMode@ DB 'SetEmpireLanguageMode', 00H ; `string'
CONST	ENDS
;	COMDAT ??_C@_0BG@HLIDKLKJ@SetPacketSequenceMode@
CONST	SEGMENT
??_C@_0BG@HLIDKLKJ@SetPacketSequenceMode@ DB 'SetPacketSequenceMode', 00H ; `string'
CONST	ENDS
;	COMDAT ??_C@_0BF@HEJDCMFH@SendSelectItemPacket@
CONST	SEGMENT
??_C@_0BF@HEJDCMFH@SendSelectItemPacket@ DB 'SendSelectItemPacket', 00H ; `string'
CONST	ENDS
;	COMDAT ??_C@_0BB@MBCAEHJO@SendRefinePacket@
CONST	SEGMENT
??_C@_0BB@MBCAEHJO@SendRefinePacket@ DB 'SendRefinePacket', 00H ; `string'
CONST	ENDS
;	COMDAT ??_C@_0BM@NLIMKJKK@SendRequestRefineInfoPacket@
CONST	SEGMENT
??_C@_0BM@NLIMKJKK@SendRequestRefineInfoPacket@ DB 'SendRequestRefineInfo'
	DB	'Packet', 00H				; `string'
CONST	ENDS
;	COMDAT ??_C@_0BN@BPJGBHPL@SendGuildWithdrawMoneyPacket@
CONST	SEGMENT
??_C@_0BN@BPJGBHPL@SendGuildWithdrawMoneyPacket@ DB 'SendGuildWithdrawMon'
	DB	'eyPacket', 00H				; `string'
CONST	ENDS
;	COMDAT ??_C@_0BM@HDHMFNNO@SendGuildDepositMoneyPacket@
CONST	SEGMENT
??_C@_0BM@HDHMFNNO@SendGuildDepositMoneyPacket@ DB 'SendGuildDepositMoney'
	DB	'Packet', 00H				; `string'
CONST	ENDS
;	COMDAT ??_C@_0BJ@LKJGDIEE@SendGuildChargeGSPPacket@
CONST	SEGMENT
??_C@_0BJ@LKJGDIEE@SendGuildChargeGSPPacket@ DB 'SendGuildChargeGSPPacket'
	DB	00H						; `string'
CONST	ENDS
;	COMDAT ??_C@_0BM@KLBFEJBI@SendGuildInviteAnswerPacket@
CONST	SEGMENT
??_C@_0BM@KLBFEJBI@SendGuildInviteAnswerPacket@ DB 'SendGuildInviteAnswer'
	DB	'Packet', 00H				; `string'
CONST	ENDS
;	COMDAT ??_C@_0CD@BMLIKMKL@SendGuildChangeMemberGeneralPac@
CONST	SEGMENT
??_C@_0CD@BMLIKMKL@SendGuildChangeMemberGeneralPac@ DB 'SendGuildChangeMe'
	DB	'mberGeneralPacket', 00H			; `string'
CONST	ENDS
;	COMDAT ??_C@_0BI@HICDMLJH@SendGuildUseSkillPacket@
CONST	SEGMENT
??_C@_0BI@HICDMLJH@SendGuildUseSkillPacket@ DB 'SendGuildUseSkillPacket', 00H ; `string'
CONST	ENDS
;	COMDAT ??_C@_0CB@KOIDGNFC@SendGuildChangeMemberGradePacke@
CONST	SEGMENT
??_C@_0CB@KOIDGNFC@SendGuildChangeMemberGradePacke@ DB 'SendGuildChangeMe'
	DB	'mberGradePacket', 00H			; `string'
CONST	ENDS
;	COMDAT ??_C@_0BP@BKEOCNGM@SendGuildRefreshCommentsPacket@
CONST	SEGMENT
??_C@_0BP@BKEOCNGM@SendGuildRefreshCommentsPacket@ DB 'SendGuildRefreshCo'
	DB	'mmentsPacket', 00H				; `string'
CONST	ENDS
;	COMDAT ??_C@_0BN@MBNLMFLO@SendGuildDeleteCommentPacket@
CONST	SEGMENT
??_C@_0BN@MBNLMFLO@SendGuildDeleteCommentPacket@ DB 'SendGuildDeleteComme'
	DB	'ntPacket', 00H				; `string'
CONST	ENDS
;	COMDAT ??_C@_0BL@JLEHIONL@SendGuildPostCommentPacket@
CONST	SEGMENT
??_C@_0BL@JLEHIONL@SendGuildPostCommentPacket@ DB 'SendGuildPostCommentPa'
	DB	'cket', 00H					; `string'
CONST	ENDS
;	COMDAT ??_C@_0BF@OAFAHAKB@SendGuildOfferPacket@
CONST	SEGMENT
??_C@_0BF@OAFAHAKB@SendGuildOfferPacket@ DB 'SendGuildOfferPacket', 00H ; `string'
CONST	ENDS
;	COMDAT ??_C@_0CE@EFLFPPCO@SendGuildChangeGradeAuthorityPa@
CONST	SEGMENT
??_C@_0CE@EFLFPPCO@SendGuildChangeGradeAuthorityPa@ DB 'SendGuildChangeGr'
	DB	'adeAuthorityPacket', 00H			; `string'
CONST	ENDS
;	COMDAT ??_C@_0BP@ODLEJFMG@SendGuildChangeGradeNamePacket@
CONST	SEGMENT
??_C@_0BP@ODLEJFMG@SendGuildChangeGradeNamePacket@ DB 'SendGuildChangeGra'
	DB	'deNamePacket', 00H				; `string'
CONST	ENDS
;	COMDAT ??_C@_0BM@GAJEHHNG@SendGuildRemoveMemberPacket@
CONST	SEGMENT
??_C@_0BM@GAJEHHNG@SendGuildRemoveMemberPacket@ DB 'SendGuildRemoveMember'
	DB	'Packet', 00H				; `string'
CONST	ENDS
;	COMDAT ??_C@_0BJ@MFJNIJIJ@SendGuildAddMemberPacket@
CONST	SEGMENT
??_C@_0BJ@MFJNIJIJ@SendGuildAddMemberPacket@ DB 'SendGuildAddMemberPacket'
	DB	00H						; `string'
CONST	ENDS
;	COMDAT ??_C@_0BH@HMDNFHNB@SendQuestConfirmPacket@
CONST	SEGMENT
??_C@_0BH@HMDNFHNB@SendQuestConfirmPacket@ DB 'SendQuestConfirmPacket', 00H ; `string'
CONST	ENDS
;	COMDAT ??_C@_0BL@BJLFPMAE@SendQuestInputStringPacket@
CONST	SEGMENT
??_C@_0BL@BJLFPMAE@SendQuestInputStringPacket@ DB 'SendQuestInputStringPa'
	DB	'cket', 00H					; `string'
CONST	ENDS
;	COMDAT ??_C@_0BK@HLNHPAPM@SendAnswerMakeGuildPacket@
CONST	SEGMENT
??_C@_0BK@HLNHPAPM@SendAnswerMakeGuildPacket@ DB 'SendAnswerMakeGuildPack'
	DB	'et', 00H					; `string'
CONST	ENDS
;	COMDAT ??_C@_0BH@BDNDNKGE@SendMallCheckoutPacket@
CONST	SEGMENT
??_C@_0BH@BDNDNKGE@SendMallCheckoutPacket@ DB 'SendMallCheckoutPacket', 00H ; `string'
CONST	ENDS
;	COMDAT ??_C@_0BK@JMMAEJFJ@SendSafeboxItemMovePacket@
CONST	SEGMENT
??_C@_0BK@JMMAEJFJ@SendSafeboxItemMovePacket@ DB 'SendSafeboxItemMovePack'
	DB	'et', 00H					; `string'
CONST	ENDS
;	COMDAT ??_C@_0BK@LJAMACPE@SendSafeboxCheckoutPacket@
CONST	SEGMENT
??_C@_0BK@LJAMACPE@SendSafeboxCheckoutPacket@ DB 'SendSafeboxCheckoutPack'
	DB	'et', 00H					; `string'
CONST	ENDS
;	COMDAT ??_C@_0BJ@HNJCKALG@SendSafeboxCheckinPacket@
CONST	SEGMENT
??_C@_0BJ@HNJCKALG@SendSafeboxCheckinPacket@ DB 'SendSafeboxCheckinPacket'
	DB	00H						; `string'
CONST	ENDS
;	COMDAT ??_C@_0BP@MLAJADAA@SendSafeboxWithdrawMoneyPacket@
CONST	SEGMENT
??_C@_0BP@MLAJADAA@SendSafeboxWithdrawMoneyPacket@ DB 'SendSafeboxWithdra'
	DB	'wMoneyPacket', 00H				; `string'
CONST	ENDS
;	COMDAT ??_C@_0BL@CAAOLIHO@SendSafeboxSaveMoneyPacket@
CONST	SEGMENT
??_C@_0BL@CAAOLIHO@SendSafeboxSaveMoneyPacket@ DB 'SendSafeboxSaveMoneyPa'
	DB	'cket', 00H					; `string'
CONST	ENDS
;	COMDAT ??_C@_0BJ@JGBOMHFI@SendPartyParameterPacket@
CONST	SEGMENT
??_C@_0BJ@JGBOMHFI@SendPartyParameterPacket@ DB 'SendPartyParameterPacket'
	DB	00H						; `string'
CONST	ENDS
;	COMDAT ??_C@_0BI@EONDHFJL@SendPartyUseSkillPacket@
CONST	SEGMENT
??_C@_0BI@EONDHFJL@SendPartyUseSkillPacket@ DB 'SendPartyUseSkillPacket', 00H ; `string'
CONST	ENDS
;	COMDAT ??_C@_0BI@LNEGCCFH@SendPartySetStatePacket@
CONST	SEGMENT
??_C@_0BI@LNEGCCFH@SendPartySetStatePacket@ DB 'SendPartySetStatePacket', 00H ; `string'
CONST	ENDS
;	COMDAT ??_C@_0BG@JAJGIHK@SendPartyRemovePacket@
CONST	SEGMENT
??_C@_0BG@JAJGIHK@SendPartyRemovePacket@ DB 'SendPartyRemovePacket', 00H ; `string'
CONST	ENDS
;	COMDAT ??_C@_0BE@JHFPDGFP@SendPartyExitPacket@
CONST	SEGMENT
??_C@_0BE@JHFPDGFP@SendPartyExitPacket@ DB 'SendPartyExitPacket', 00H ; `string'
CONST	ENDS
;	COMDAT ??_C@_0BM@PFAFFBJO@SendPartyInviteAnswerPacket@
CONST	SEGMENT
??_C@_0BM@PFAFFBJO@SendPartyInviteAnswerPacket@ DB 'SendPartyInviteAnswer'
	DB	'Packet', 00H				; `string'
CONST	ENDS
;	COMDAT ??_C@_0BG@IFGKMOED@SendPartyInvitePacket@
CONST	SEGMENT
??_C@_0BG@IFGKMOED@SendPartyInvitePacket@ DB 'SendPartyInvitePacket', 00H ; `string'
CONST	ENDS
;	COMDAT ??_C@_0BK@GIIDGGBB@SendMessengerRemovePacket@
CONST	SEGMENT
??_C@_0BK@GIIDGGBB@SendMessengerRemovePacket@ DB 'SendMessengerRemovePack'
	DB	'et', 00H					; `string'
CONST	ENDS
;	COMDAT ??_C@_0BN@MPMOLLL@SendMessengerAddByNamePacket@
CONST	SEGMENT
??_C@_0BN@MPMOLLL@SendMessengerAddByNamePacket@ DB 'SendMessengerAddByNam'
	DB	'ePacket', 00H				; `string'
CONST	ENDS
;	COMDAT ??_C@_0BM@CFLPIFFM@SendMessengerAddByVIDPacket@
CONST	SEGMENT
??_C@_0BM@CFLPIFFM@SendMessengerAddByVIDPacket@ DB 'SendMessengerAddByVID'
	DB	'Packet', 00H				; `string'
CONST	ENDS
;	COMDAT ??_C@_0BH@MCKLKDJM@RegisterEmoticonString@
CONST	SEGMENT
??_C@_0BH@MCKLKDJM@RegisterEmoticonString@ DB 'RegisterEmoticonString', 00H ; `string'
CONST	ENDS
;	COMDAT ??_C@_0BC@FMJHAGEI@SendOnClickPacket@
CONST	SEGMENT
??_C@_0BC@FMJHAGEI@SendOnClickPacket@ DB 'SendOnClickPacket', 00H ; `string'
CONST	ENDS
;	COMDAT ??_C@_0BH@NCONKHHB@SendExchangeExitPacket@
CONST	SEGMENT
??_C@_0BH@NCONKHHB@SendExchangeExitPacket@ DB 'SendExchangeExitPacket', 00H ; `string'
CONST	ENDS
;	COMDAT ??_C@_0BJ@OFKJBLDC@SendExchangeAcceptPacket@
CONST	SEGMENT
??_C@_0BJ@OFKJBLDC@SendExchangeAcceptPacket@ DB 'SendExchangeAcceptPacket'
	DB	00H						; `string'
CONST	ENDS
;	COMDAT ??_C@_0BJ@CGGGIOGM@SendExchangeElkAddPacket@
CONST	SEGMENT
??_C@_0BJ@CGGGIOGM@SendExchangeElkAddPacket@ DB 'SendExchangeElkAddPacket'
	DB	00H						; `string'
CONST	ENDS
;	COMDAT ??_C@_0BK@KKOEHGGC@SendExchangeItemDelPacket@
CONST	SEGMENT
??_C@_0BK@KKOEHGGC@SendExchangeItemDelPacket@ DB 'SendExchangeItemDelPack'
	DB	'et', 00H					; `string'
CONST	ENDS
;	COMDAT ??_C@_0BK@IIFDLCNA@SendExchangeItemAddPacket@
CONST	SEGMENT
??_C@_0BK@IIFDLCNA@SendExchangeItemAddPacket@ DB 'SendExchangeItemAddPack'
	DB	'et', 00H					; `string'
CONST	ENDS
;	COMDAT ??_C@_0BI@BGNKGFKO@SendExchangeStartPacket@
CONST	SEGMENT
??_C@_0BI@BGNKGFKO@SendExchangeStartPacket@ DB 'SendExchangeStartPacket', 00H ; `string'
CONST	ENDS
;	COMDAT ??_C@_0BG@BGJEIPGN@SendShopSellPacketNew@
CONST	SEGMENT
??_C@_0BG@BGJEIPGN@SendShopSellPacketNew@ DB 'SendShopSellPacketNew', 00H ; `string'
CONST	ENDS
;	COMDAT ??_C@_0BD@BFMEHPEE@SendShopSellPacket@
CONST	SEGMENT
??_C@_0BD@BFMEHPEE@SendShopSellPacket@ DB 'SendShopSellPacket', 00H ; `string'
CONST	ENDS
;	COMDAT ??_C@_0BC@FPBLEBCL@SendShopBuyPacket@
CONST	SEGMENT
??_C@_0BC@FPBLEBCL@SendShopBuyPacket@ DB 'SendShopBuyPacket', 00H ; `string'
CONST	ENDS
;	COMDAT ??_C@_0BC@HEOMKCAE@SendShopEndPacket@
CONST	SEGMENT
??_C@_0BC@HEOMKCAE@SendShopEndPacket@ DB 'SendShopEndPacket', 00H ; `string'
CONST	ENDS
;	COMDAT ??_C@_0BM@KAMAKIKL@SendCharacterPositionPacket@
CONST	SEGMENT
??_C@_0BM@KAMAKIKL@SendCharacterPositionPacket@ DB 'SendCharacterPosition'
	DB	'Packet', 00H				; `string'
CONST	ENDS
;	COMDAT ??_C@_0BI@BFCIMAOL@SendMobileMessagePacket@
CONST	SEGMENT
??_C@_0BI@BFCIMAOL@SendMobileMessagePacket@ DB 'SendMobileMessagePacket', 00H ; `string'
CONST	ENDS
;	COMDAT ??_C@_0BC@KNMEABPD@SendWhisperPacket@
CONST	SEGMENT
??_C@_0BC@KNMEABPD@SendWhisperPacket@ DB 'SendWhisperPacket', 00H ; `string'
CONST	ENDS
;	COMDAT ??_C@_0N@BJHGOHPC@SendEmoticon@
CONST	SEGMENT
??_C@_0N@BJHGOHPC@SendEmoticon@ DB 'SendEmoticon', 00H	; `string'
CONST	ENDS
;	COMDAT ??_C@_0P@FJOINOIH@SendChatPacket@
CONST	SEGMENT
??_C@_0P@FJOINOIH@SendChatPacket@ DB 'SendChatPacket', 00H ; `string'
CONST	ENDS
;	COMDAT ??_C@_09HENONEEN@IsConnect@
CONST	SEGMENT
??_C@_09HENONEEN@IsConnect@ DB 'IsConnect', 00H		; `string'
CONST	ENDS
;	COMDAT ??_C@_0L@CMGJAGDM@Disconnect@
CONST	SEGMENT
??_C@_0L@CMGJAGDM@Disconnect@ DB 'Disconnect', 00H	; `string'
CONST	ENDS
;	COMDAT ??_C@_0BA@NKMDDBDL@SetOfflinePhase@
CONST	SEGMENT
??_C@_0BA@NKMDDBDL@SetOfflinePhase@ DB 'SetOfflinePhase', 00H ; `string'
CONST	ENDS
;	COMDAT ??_C@_0BD@FMAJCJM@SendGiveItemPacket@
CONST	SEGMENT
??_C@_0BD@FMAJCJM@SendGiveItemPacket@ DB 'SendGiveItemPacket', 00H ; `string'
CONST	ENDS
;	COMDAT ??_C@_0BF@PJHEIMI@SendItemPickUpPacket@
CONST	SEGMENT
??_C@_0BF@PJHEIMI@SendItemPickUpPacket@ DB 'SendItemPickUpPacket', 00H ; `string'
CONST	ENDS
;	COMDAT ??_C@_0BD@BPAFBGKI@SendItemMovePacket@
CONST	SEGMENT
??_C@_0BD@BPAFBGKI@SendItemMovePacket@ DB 'SendItemMovePacket', 00H ; `string'
CONST	ENDS
;	COMDAT ??_C@_0BG@ONKCIEDE@SendGoldDropPacketNew@
CONST	SEGMENT
??_C@_0BG@ONKCIEDE@SendGoldDropPacketNew@ DB 'SendGoldDropPacketNew', 00H ; `string'
CONST	ENDS
;	COMDAT ??_C@_0BC@NEDFAOHK@SendElkDropPacket@
CONST	SEGMENT
??_C@_0BC@NEDFAOHK@SendElkDropPacket@ DB 'SendElkDropPacket', 00H ; `string'
CONST	ENDS
;	COMDAT ??_C@_0BG@PNFNACGL@SendItemDropPacketNew@
CONST	SEGMENT
??_C@_0BG@PNFNACGL@SendItemDropPacketNew@ DB 'SendItemDropPacketNew', 00H ; `string'
CONST	ENDS
;	COMDAT ??_C@_0BD@ICCAOJBA@SendItemDropPacket@
CONST	SEGMENT
??_C@_0BD@ICCAOJBA@SendItemDropPacket@ DB 'SendItemDropPacket', 00H ; `string'
CONST	ENDS
;	COMDAT ??_C@_0BI@OBDMDOIB@SendItemUseToItemPacket@
CONST	SEGMENT
??_C@_0BI@OBDMDOIB@SendItemUseToItemPacket@ DB 'SendItemUseToItemPacket', 00H ; `string'
CONST	ENDS
;	COMDAT ??_C@_0BC@NHAKBOCP@SendItemUsePacket@
CONST	SEGMENT
??_C@_0BC@NHAKBOCP@SendItemUsePacket@ DB 'SendItemUsePacket', 00H ; `string'
CONST	ENDS
;	COMDAT ??_C@_0BE@NBECPFPH@SendEnterGamePacket@
CONST	SEGMENT
??_C@_0BE@NBECPFPH@SendEnterGamePacket@ DB 'SendEnterGamePacket', 00H ; `string'
CONST	ENDS
;	COMDAT ??_C@_0BL@PMHPNGGJ@SendDestroyCharacterPacket@
CONST	SEGMENT
??_C@_0BL@PMHPNGGJ@SendDestroyCharacterPacket@ DB 'SendDestroyCharacterPa'
	DB	'cket', 00H					; `string'
CONST	ENDS
;	COMDAT ??_C@_0BK@NPKEAJJ@SendCreateCharacterPacket@
CONST	SEGMENT
??_C@_0BK@NPKEAJJ@SendCreateCharacterPacket@ DB 'SendCreateCharacterPacke'
	DB	't', 00H					; `string'
CONST	ENDS
;	COMDAT ??_C@_0BF@ODLJDBF@SendChangeNamePacket@
CONST	SEGMENT
??_C@_0BF@ODLJDBF@SendChangeNamePacket@ DB 'SendChangeNamePacket', 00H ; `string'
CONST	ENDS
;	COMDAT ??_C@_0BK@MIKAHKDI@SendSelectCharacterPacket@
CONST	SEGMENT
??_C@_0BK@MIKAHKDI@SendSelectCharacterPacket@ DB 'SendSelectCharacterPack'
	DB	'et', 00H					; `string'
CONST	ENDS
;	COMDAT ??_C@_0BH@IIELEKKA@SendSelectEmpirePacket@
CONST	SEGMENT
??_C@_0BH@IIELEKKA@SendSelectEmpirePacket@ DB 'SendSelectEmpirePacket', 00H ; `string'
CONST	ENDS
;	COMDAT ??_C@_0BP@JFBAGMPA@SendNEWCIBNPasspodAnswerPacket@
CONST	SEGMENT
??_C@_0BP@JFBAGMPA@SendNEWCIBNPasspodAnswerPacket@ DB 'SendNEWCIBNPasspod'
	DB	'AnswerPacket', 00H				; `string'
CONST	ENDS
;	COMDAT ??_C@_0BK@KNELICML@SendRunupMatrixCardPacket@
CONST	SEGMENT
??_C@_0BK@KNELICML@SendRunupMatrixCardPacket@ DB 'SendRunupMatrixCardPack'
	DB	'et', 00H					; `string'
CONST	ENDS
;	COMDAT ??_C@_0BK@GJKBNMLJ@SendChinaMatrixCardPacket@
CONST	SEGMENT
??_C@_0BK@GJKBNMLJ@SendChinaMatrixCardPacket@ DB 'SendChinaMatrixCardPack'
	DB	'et', 00H					; `string'
CONST	ENDS
;	COMDAT ??_C@_0BA@CNDIKGCL@SendLoginPacket@
CONST	SEGMENT
??_C@_0BA@CNDIKGCL@SendLoginPacket@ DB 'SendLoginPacket', 00H ; `string'
CONST	ENDS
;	COMDAT ??_C@_0BH@CIOLKAIG@ConnectToAccountServer@
CONST	SEGMENT
??_C@_0BH@CIOLKAIG@ConnectToAccountServer@ DB 'ConnectToAccountServer', 00H ; `string'
CONST	ENDS
;	COMDAT ??_C@_0L@MALJFJNO@ConnectUDP@
CONST	SEGMENT
??_C@_0L@MALJFJNO@ConnectUDP@ DB 'ConnectUDP', 00H	; `string'
CONST	ENDS
;	COMDAT ??_C@_0L@HNEKCIDO@ConnectTCP@
CONST	SEGMENT
??_C@_0L@HNEKCIDO@ConnectTCP@ DB 'ConnectTCP', 00H	; `string'
CONST	ENDS
;	COMDAT ??_C@_0BA@ILFBLEPH@ExitApplication@
CONST	SEGMENT
??_C@_0BA@ILFBLEPH@ExitApplication@ DB 'ExitApplication', 00H ; `string'
CONST	ENDS
;	COMDAT ??_C@_08ENBHLCHD@ExitGame@
CONST	SEGMENT
??_C@_08ENBHLCHD@ExitGame@ DB 'ExitGame', 00H		; `string'
CONST	ENDS
;	COMDAT ??_C@_0L@LPFGMFBP@LogOutGame@
CONST	SEGMENT
??_C@_0L@LPFGMFBP@LogOutGame@ DB 'LogOutGame', 00H	; `string'
CONST	ENDS
;	COMDAT ??_C@_0M@PAACKIAL@DirectEnter@
CONST	SEGMENT
??_C@_0M@PAACKIAL@DirectEnter@ DB 'DirectEnter', 00H	; `string'
CONST	ENDS
;	COMDAT ??_C@_0BF@GPIIIFGB@SetUDPRecvBufferSize@
CONST	SEGMENT
??_C@_0BF@GPIIIFGB@SetUDPRecvBufferSize@ DB 'SetUDPRecvBufferSize', 00H ; `string'
CONST	ENDS
;	COMDAT ??_C@_0BF@LOLMIHDO@SetTCPSendBufferSize@
CONST	SEGMENT
??_C@_0BF@LOLMIHDO@SetTCPSendBufferSize@ DB 'SetTCPSendBufferSize', 00H ; `string'
CONST	ENDS
;	COMDAT ??_C@_0BF@KAEIEPML@SetTCPRecvBufferSize@
CONST	SEGMENT
??_C@_0BF@KAEIEPML@SetTCPRecvBufferSize@ DB 'SetTCPRecvBufferSize', 00H ; `string'
CONST	ENDS
;	COMDAT ??_C@_0L@EELFNDHB@SetHandler@
CONST	SEGMENT
??_C@_0L@EELFNDHB@SetHandler@ DB 'SetHandler', 00H	; `string'
CONST	ENDS
;	COMDAT ??_C@_0BL@NJAILJBB@SetAccountConnectorHandler@
CONST	SEGMENT
??_C@_0BL@NJAILJBB@SetAccountConnectorHandler@ DB 'SetAccountConnectorHan'
	DB	'dler', 00H					; `string'
CONST	ENDS
;	COMDAT ??_C@_0BN@KOOLAHFA@SetServerCommandParserWindow@
CONST	SEGMENT
??_C@_0BN@KOOLAHFA@SetServerCommandParserWindow@ DB 'SetServerCommandPars'
	DB	'erWindow', 00H				; `string'
CONST	ENDS
;	COMDAT ??_C@_0BB@NNDKGCIK@ClearPhaseWindow@
CONST	SEGMENT
??_C@_0BB@NNDKGCIK@ClearPhaseWindow@ DB 'ClearPhaseWindow', 00H ; `string'
CONST	ENDS
;	COMDAT ??_C@_0P@EKNNFAK@SetPhaseWindow@
CONST	SEGMENT
??_C@_0P@EKNNFAK@SetPhaseWindow@ DB 'SetPhaseWindow', 00H ; `string'
CONST	ENDS
;	COMDAT ??_C@_0N@GLEGMFLM@SetLoginInfo@
CONST	SEGMENT
??_C@_0N@GLEGMFLM@SetLoginInfo@ DB 'SetLoginInfo', 00H	; `string'
CONST	ENDS
;	COMDAT ??_C@_0BE@BCCLDKB@ToggleGameDebugInfo@
CONST	SEGMENT
??_C@_0BE@BCCLDKB@ToggleGameDebugInfo@ DB 'ToggleGameDebugInfo', 00H ; `string'
CONST	ENDS
;	COMDAT ??_C@_0BE@MHKBLINM@GetFieldMusicVolume@
CONST	SEGMENT
??_C@_0BE@MHKBLINM@GetFieldMusicVolume@ DB 'GetFieldMusicVolume', 00H ; `string'
CONST	ENDS
;	COMDAT ??_C@_0BG@NAMIDKHD@GetFieldMusicFileName@
CONST	SEGMENT
??_C@_0BG@NAMIDKHD@GetFieldMusicFileName@ DB 'GetFieldMusicFileName', 00H ; `string'
CONST	ENDS
;	COMDAT ??_C@_0CC@DLIFIOE@GetAccountCharacterSlotDataStri@
CONST	SEGMENT
??_C@_0CC@DLIFIOE@GetAccountCharacterSlotDataStri@ DB 'GetAccountCharacte'
	DB	'rSlotDataString', 00H			; `string'
CONST	ENDS
;	COMDAT ??_C@_0CD@PJJNPONG@GetAccountCharacterSlotDataInte@
CONST	SEGMENT
??_C@_0CD@PJJNPONG@GetAccountCharacterSlotDataInte@ DB 'GetAccountCharact'
	DB	'erSlotDataInteger', 00H			; `string'
CONST	ENDS
;	COMDAT ??_C@_0BH@GCCMJIJB@GetMainActorSkillGroup@
CONST	SEGMENT
??_C@_0BH@GCCMJIJB@GetMainActorSkillGroup@ DB 'GetMainActorSkillGroup', 00H ; `string'
CONST	ENDS
;	COMDAT ??_C@_0BD@JOIEFGML@GetMainActorEmpire@
CONST	SEGMENT
??_C@_0BD@JOIEFGML@GetMainActorEmpire@ DB 'GetMainActorEmpire', 00H ; `string'
CONST	ENDS
;	COMDAT ??_C@_0BB@ICEJKPHA@GetMainActorRace@
CONST	SEGMENT
??_C@_0BB@ICEJKPHA@GetMainActorRace@ DB 'GetMainActorRace', 00H ; `string'
CONST	ENDS
;	COMDAT ??_C@_0BA@BPHKBGOL@GetMainActorVID@
CONST	SEGMENT
??_C@_0BA@BPHKBGOL@GetMainActorVID@ DB 'GetMainActorVID', 00H ; `string'
CONST	ENDS
;	COMDAT ??_C@_0M@GGDMINDM@GetEmpireID@
CONST	SEGMENT
??_C@_0M@GGDMINDM@GetEmpireID@ DB 'GetEmpireID', 00H	; `string'
CONST	ENDS
;	COMDAT ??_C@_0L@EAKBLDCO@GetGuildID@
CONST	SEGMENT
??_C@_0L@EAKBLDCO@GetGuildID@ DB 'GetGuildID', 00H	; `string'
CONST	ENDS
;	COMDAT ??_C@_0N@OBKBFHKO@UploadSymbol@
CONST	SEGMENT
??_C@_0N@OBKBFHKO@UploadSymbol@ DB 'UploadSymbol', 00H	; `string'
CONST	ENDS
;	COMDAT ??_C@_0L@JEGFHCJL@UploadMark@
CONST	SEGMENT
??_C@_0L@JEGFHCJL@UploadMark@ DB 'UploadMark', 00H	; `string'
CONST	ENDS
;	COMDAT ??_C@_0P@NAIDDMMD@LoadInsultList@
CONST	SEGMENT
??_C@_0P@NAIDDMMD@LoadInsultList@ DB 'LoadInsultList', 00H ; `string'
CONST	ENDS
;	COMDAT ??_C@_0L@CJJGFLBC@IsInsultIn@
CONST	SEGMENT
??_C@_0L@CJJGFLBC@IsInsultIn@ DB 'IsInsultIn', 00H	; `string'
CONST	ENDS
;	COMDAT ??_C@_0P@EPNPIBON@IsChatInsultIn@
CONST	SEGMENT
??_C@_0P@EPNPIBON@IsChatInsultIn@ DB 'IsChatInsultIn', 00H ; `string'
CONST	ENDS
;	COMDAT ??_C@_0O@OFMEOEDD@SetMarkServer@
CONST	SEGMENT
??_C@_0O@OFMEOEDD@SetMarkServer@ DB 'SetMarkServer', 00H ; `string'
CONST	ENDS
;	COMDAT ??_C@_06OCDJGLIF@IsTest@
CONST	SEGMENT
??_C@_06OCDJGLIF@IsTest@ DB 'IsTest', 00H		; `string'
CONST	ENDS
;	COMDAT ??_C@_04EIDOEOJH@Warp@
CONST	SEGMENT
??_C@_04EIDOEOJH@Warp@ DB 'Warp', 00H			; `string'
CONST	ENDS
;	COMDAT ??_C@_09CFNAMFEF@StartGame@
CONST	SEGMENT
??_C@_09CFNAMFEF@StartGame@ DB 'StartGame', 00H		; `string'
CONST	ENDS
;	COMDAT ??_C@_0BK@PJDKKIPH@GetPreservedServerCommand@
CONST	SEGMENT
??_C@_0BK@PJDKKIPH@GetPreservedServerCommand@ DB 'GetPreservedServerComma'
	DB	'nd', 00H					; `string'
CONST	ENDS
;	COMDAT ??_C@_0BG@NJCKCHAI@PreserveServerCommand@
CONST	SEGMENT
??_C@_0BG@NJCKCHAI@PreserveServerCommand@ DB 'PreserveServerCommand', 00H ; `string'
CONST	ENDS
;	COMDAT ??_C@_0O@ODBJLKOA@GetServerInfo@
CONST	SEGMENT
??_C@_0O@ODBJLKOA@GetServerInfo@ DB 'GetServerInfo', 00H ; `string'
CONST	ENDS
;	COMDAT ??_C@_0O@JMAHAJJH@SetServerInfo@
CONST	SEGMENT
??_C@_0O@JMAHAJJH@SetServerInfo@ DB 'SetServerInfo', 00H ; `string'
CONST	ENDS
;	COMDAT ??_C@_0BH@LKCAJGCH@EnableChatInsultFilter@
CONST	SEGMENT
??_C@_0BH@LKCAJGCH@EnableChatInsultFilter@ DB 'EnableChatInsultFilter', 00H ; `string'
CONST	ENDS
;	COMDAT ??_C@_0BI@HFMJEOAC@GetBettingGuildWarValue@
CONST	SEGMENT
??_C@_0BI@HFMJEOAC@GetBettingGuildWarValue@ DB 'GetBettingGuildWarValue', 00H ; `string'
CONST	ENDS
;	COMDAT ?s_methods@?1??initnet@@YAXXZ@4PAUPyMethodDef@@A
_DATA	SEGMENT
?s_methods@?1??initnet@@YAXXZ@4PAUPyMethodDef@@A DD FLAT:??_C@_0BI@HFMJEOAC@GetBettingGuildWarValue@ ; `initnet'::`2'::s_methods
	DD	FLAT:?netGetBettingGuildWarValue@@YAPAU_object@@PAU1@0@Z
	DD	01H
	ORG $+4
	DD	FLAT:??_C@_0BH@LKCAJGCH@EnableChatInsultFilter@
	DD	FLAT:?netEnableChatInsultFilter@@YAPAU_object@@PAU1@0@Z
	DD	01H
	ORG $+4
	DD	FLAT:??_C@_0O@JMAHAJJH@SetServerInfo@
	DD	FLAT:?netSetServerInfo@@YAPAU_object@@PAU1@0@Z
	DD	01H
	ORG $+4
	DD	FLAT:??_C@_0O@ODBJLKOA@GetServerInfo@
	DD	FLAT:?netGetServerInfo@@YAPAU_object@@PAU1@0@Z
	DD	01H
	ORG $+4
	DD	FLAT:??_C@_0BG@NJCKCHAI@PreserveServerCommand@
	DD	FLAT:?netPreserveServerCommand@@YAPAU_object@@PAU1@0@Z
	DD	01H
	ORG $+4
	DD	FLAT:??_C@_0BK@PJDKKIPH@GetPreservedServerCommand@
	DD	FLAT:?netGetPreservedServerCommand@@YAPAU_object@@PAU1@0@Z
	DD	01H
	ORG $+4
	DD	FLAT:??_C@_09CFNAMFEF@StartGame@
	DD	FLAT:?netStartGame@@YAPAU_object@@PAU1@0@Z
	DD	01H
	ORG $+4
	DD	FLAT:??_C@_04EIDOEOJH@Warp@
	DD	FLAT:?netWarp@@YAPAU_object@@PAU1@0@Z
	DD	01H
	ORG $+4
	DD	FLAT:??_C@_06OCDJGLIF@IsTest@
	DD	FLAT:?netIsTest@@YAPAU_object@@PAU1@0@Z
	DD	01H
	ORG $+4
	DD	FLAT:??_C@_0O@OFMEOEDD@SetMarkServer@
	DD	FLAT:?netSetMarkServer@@YAPAU_object@@PAU1@0@Z
	DD	01H
	ORG $+4
	DD	FLAT:??_C@_0P@EPNPIBON@IsChatInsultIn@
	DD	FLAT:?netIsChatInsultIn@@YAPAU_object@@PAU1@0@Z
	DD	01H
	ORG $+4
	DD	FLAT:??_C@_0L@CJJGFLBC@IsInsultIn@
	DD	FLAT:?netIsInsultIn@@YAPAU_object@@PAU1@0@Z
	DD	01H
	ORG $+4
	DD	FLAT:??_C@_0P@NAIDDMMD@LoadInsultList@
	DD	FLAT:?netLoadInsultList@@YAPAU_object@@PAU1@0@Z
	DD	01H
	ORG $+4
	DD	FLAT:??_C@_0L@JEGFHCJL@UploadMark@
	DD	FLAT:?netUploadMark@@YAPAU_object@@PAU1@0@Z
	DD	01H
	ORG $+4
	DD	FLAT:??_C@_0N@OBKBFHKO@UploadSymbol@
	DD	FLAT:?netUploadSymbol@@YAPAU_object@@PAU1@0@Z
	DD	01H
	ORG $+4
	DD	FLAT:??_C@_0L@EAKBLDCO@GetGuildID@
	DD	FLAT:?netGetGuildID@@YAPAU_object@@PAU1@0@Z
	DD	01H
	ORG $+4
	DD	FLAT:??_C@_0M@GGDMINDM@GetEmpireID@
	DD	FLAT:?netGetEmpireID@@YAPAU_object@@PAU1@0@Z
	DD	01H
	ORG $+4
	DD	FLAT:??_C@_0BA@BPHKBGOL@GetMainActorVID@
	DD	FLAT:?netGetMainActorVID@@YAPAU_object@@PAU1@0@Z
	DD	01H
	ORG $+4
	DD	FLAT:??_C@_0BB@ICEJKPHA@GetMainActorRace@
	DD	FLAT:?netGetMainActorRace@@YAPAU_object@@PAU1@0@Z
	DD	01H
	ORG $+4
	DD	FLAT:??_C@_0BD@JOIEFGML@GetMainActorEmpire@
	DD	FLAT:?netGetMainActorEmpire@@YAPAU_object@@PAU1@0@Z
	DD	01H
	ORG $+4
	DD	FLAT:??_C@_0BH@GCCMJIJB@GetMainActorSkillGroup@
	DD	FLAT:?netGetMainActorSkillGroup@@YAPAU_object@@PAU1@0@Z
	DD	01H
	ORG $+4
	DD	FLAT:??_C@_0CD@PJJNPONG@GetAccountCharacterSlotDataInte@
	DD	FLAT:?netGetAccountCharacterSlotDataInteger@@YAPAU_object@@PAU1@0@Z
	DD	01H
	ORG $+4
	DD	FLAT:??_C@_0CC@DLIFIOE@GetAccountCharacterSlotDataStri@
	DD	FLAT:?netGetAccountCharacterSlotDataString@@YAPAU_object@@PAU1@0@Z
	DD	01H
	ORG $+4
	DD	FLAT:??_C@_0BG@NAMIDKHD@GetFieldMusicFileName@
	DD	FLAT:?netGetFieldMusicFileName@@YAPAU_object@@PAU1@0@Z
	DD	01H
	ORG $+4
	DD	FLAT:??_C@_0BE@MHKBLINM@GetFieldMusicVolume@
	DD	FLAT:?netGetFieldMusicVolume@@YAPAU_object@@PAU1@0@Z
	DD	01H
	ORG $+4
	DD	FLAT:??_C@_0BE@BCCLDKB@ToggleGameDebugInfo@
	DD	FLAT:?netToggleGameDebugInfo@@YAPAU_object@@PAU1@0@Z
	DD	01H
	ORG $+4
	DD	FLAT:??_C@_0N@GLEGMFLM@SetLoginInfo@
	DD	FLAT:?netSetLoginInfo@@YAPAU_object@@PAU1@0@Z
	DD	01H
	ORG $+4
	DD	FLAT:??_C@_0P@EKNNFAK@SetPhaseWindow@
	DD	FLAT:?netSetPhaseWindow@@YAPAU_object@@PAU1@0@Z
	DD	01H
	ORG $+4
	DD	FLAT:??_C@_0BB@NNDKGCIK@ClearPhaseWindow@
	DD	FLAT:?netClearPhaseWindow@@YAPAU_object@@PAU1@0@Z
	DD	01H
	ORG $+4
	DD	FLAT:??_C@_0BN@KOOLAHFA@SetServerCommandParserWindow@
	DD	FLAT:?netSetServerCommandParserWindow@@YAPAU_object@@PAU1@0@Z
	DD	01H
	ORG $+4
	DD	FLAT:??_C@_0BL@NJAILJBB@SetAccountConnectorHandler@
	DD	FLAT:?netSetAccountConnectorHandler@@YAPAU_object@@PAU1@0@Z
	DD	01H
	ORG $+4
	DD	FLAT:??_C@_0L@EELFNDHB@SetHandler@
	DD	FLAT:?netSetHandler@@YAPAU_object@@PAU1@0@Z
	DD	01H
	ORG $+4
	DD	FLAT:??_C@_0BF@KAEIEPML@SetTCPRecvBufferSize@
	DD	FLAT:?netSetTCPRecvBufferSize@@YAPAU_object@@PAU1@0@Z
	DD	01H
	ORG $+4
	DD	FLAT:??_C@_0BF@LOLMIHDO@SetTCPSendBufferSize@
	DD	FLAT:?netSetTCPSendBufferSize@@YAPAU_object@@PAU1@0@Z
	DD	01H
	ORG $+4
	DD	FLAT:??_C@_0BF@GPIIIFGB@SetUDPRecvBufferSize@
	DD	FLAT:?netSetUDPRecvBufferSize@@YAPAU_object@@PAU1@0@Z
	DD	01H
	ORG $+4
	DD	FLAT:??_C@_0M@PAACKIAL@DirectEnter@
	DD	FLAT:?netDirectEnter@@YAPAU_object@@PAU1@0@Z
	DD	01H
	ORG $+4
	DD	FLAT:??_C@_0L@LPFGMFBP@LogOutGame@
	DD	FLAT:?netLogOutGame@@YAPAU_object@@PAU1@0@Z
	DD	01H
	ORG $+4
	DD	FLAT:??_C@_08ENBHLCHD@ExitGame@
	DD	FLAT:?netExitGame@@YAPAU_object@@PAU1@0@Z
	DD	01H
	ORG $+4
	DD	FLAT:??_C@_0BA@ILFBLEPH@ExitApplication@
	DD	FLAT:?netExitApplication@@YAPAU_object@@PAU1@0@Z
	DD	01H
	ORG $+4
	DD	FLAT:??_C@_0L@HNEKCIDO@ConnectTCP@
	DD	FLAT:?netConnectTCP@@YAPAU_object@@PAU1@0@Z
	DD	01H
	ORG $+4
	DD	FLAT:??_C@_0L@MALJFJNO@ConnectUDP@
	DD	FLAT:?netConnectUDP@@YAPAU_object@@PAU1@0@Z
	DD	01H
	ORG $+4
	DD	FLAT:??_C@_0BH@CIOLKAIG@ConnectToAccountServer@
	DD	FLAT:?netConnectToAccountServer@@YAPAU_object@@PAU1@0@Z
	DD	01H
	ORG $+4
	DD	FLAT:??_C@_0BA@CNDIKGCL@SendLoginPacket@
	DD	FLAT:?netSendLoginPacket@@YAPAU_object@@PAU1@0@Z
	DD	01H
	ORG $+4
	DD	FLAT:??_C@_0BK@GJKBNMLJ@SendChinaMatrixCardPacket@
	DD	FLAT:?netSendChinaMatrixCardPacket@@YAPAU_object@@PAU1@0@Z
	DD	01H
	ORG $+4
	DD	FLAT:??_C@_0BK@KNELICML@SendRunupMatrixCardPacket@
	DD	FLAT:?netSendRunupMatrixCardPacket@@YAPAU_object@@PAU1@0@Z
	DD	01H
	ORG $+4
	DD	FLAT:??_C@_0BP@JFBAGMPA@SendNEWCIBNPasspodAnswerPacket@
	DD	FLAT:?netSendNEWCIBNPasspodAnswerPacket@@YAPAU_object@@PAU1@0@Z
	DD	01H
	ORG $+4
	DD	FLAT:??_C@_0BH@IIELEKKA@SendSelectEmpirePacket@
	DD	FLAT:?netSendSelectEmpirePacket@@YAPAU_object@@PAU1@0@Z
	DD	01H
	ORG $+4
	DD	FLAT:??_C@_0BK@MIKAHKDI@SendSelectCharacterPacket@
	DD	FLAT:?netSendSelectCharacterPacket@@YAPAU_object@@PAU1@0@Z
	DD	01H
	ORG $+4
	DD	FLAT:??_C@_0BF@ODLJDBF@SendChangeNamePacket@
	DD	FLAT:?netSendChangeNamePacket@@YAPAU_object@@PAU1@0@Z
	DD	01H
	ORG $+4
	DD	FLAT:??_C@_0BK@NPKEAJJ@SendCreateCharacterPacket@
	DD	FLAT:?netSendCreateCharacterPacket@@YAPAU_object@@PAU1@0@Z
	DD	01H
	ORG $+4
	DD	FLAT:??_C@_0BL@PMHPNGGJ@SendDestroyCharacterPacket@
	DD	FLAT:?netSendDestroyCharacterPacket@@YAPAU_object@@PAU1@0@Z
	DD	01H
	ORG $+4
	DD	FLAT:??_C@_0BE@NBECPFPH@SendEnterGamePacket@
	DD	FLAT:?netSendEnterGamePacket@@YAPAU_object@@PAU1@0@Z
	DD	01H
	ORG $+4
	DD	FLAT:??_C@_0BC@NHAKBOCP@SendItemUsePacket@
	DD	FLAT:?netSendItemUsePacket@@YAPAU_object@@PAU1@0@Z
	DD	01H
	ORG $+4
	DD	FLAT:??_C@_0BI@OBDMDOIB@SendItemUseToItemPacket@
	DD	FLAT:?netSendItemUseToItemPacket@@YAPAU_object@@PAU1@0@Z
	DD	01H
	ORG $+4
	DD	FLAT:??_C@_0BD@ICCAOJBA@SendItemDropPacket@
	DD	FLAT:?netSendItemDropPacket@@YAPAU_object@@PAU1@0@Z
	DD	01H
	ORG $+4
	DD	FLAT:??_C@_0BG@PNFNACGL@SendItemDropPacketNew@
	DD	FLAT:?netSendItemDropPacketNew@@YAPAU_object@@PAU1@0@Z
	DD	01H
	ORG $+4
	DD	FLAT:??_C@_0BC@NEDFAOHK@SendElkDropPacket@
	DD	FLAT:?netSendElkDropPacket@@YAPAU_object@@PAU1@0@Z
	DD	01H
	ORG $+4
	DD	FLAT:??_C@_0BG@ONKCIEDE@SendGoldDropPacketNew@
	DD	FLAT:?netSendGoldDropPacketNew@@YAPAU_object@@PAU1@0@Z
	DD	01H
	ORG $+4
	DD	FLAT:??_C@_0BD@BPAFBGKI@SendItemMovePacket@
	DD	FLAT:?netSendItemMovePacket@@YAPAU_object@@PAU1@0@Z
	DD	01H
	ORG $+4
	DD	FLAT:??_C@_0BF@PJHEIMI@SendItemPickUpPacket@
	DD	FLAT:?netSendItemPickUpPacket@@YAPAU_object@@PAU1@0@Z
	DD	01H
	ORG $+4
	DD	FLAT:??_C@_0BD@FMAJCJM@SendGiveItemPacket@
	DD	FLAT:?netSendGiveItemPacket@@YAPAU_object@@PAU1@0@Z
	DD	01H
	ORG $+4
	DD	FLAT:??_C@_0BA@NKMDDBDL@SetOfflinePhase@
	DD	FLAT:?netSetOfflinePhase@@YAPAU_object@@PAU1@0@Z
	DD	01H
	ORG $+4
	DD	FLAT:??_C@_0L@CMGJAGDM@Disconnect@
	DD	FLAT:?netDisconnect@@YAPAU_object@@PAU1@0@Z
	DD	01H
	ORG $+4
	DD	FLAT:??_C@_09HENONEEN@IsConnect@
	DD	FLAT:?netIsConnect@@YAPAU_object@@PAU1@0@Z
	DD	01H
	ORG $+4
	DD	FLAT:??_C@_0P@FJOINOIH@SendChatPacket@
	DD	FLAT:?netSendChatPacket@@YAPAU_object@@PAU1@0@Z
	DD	01H
	ORG $+4
	DD	FLAT:??_C@_0N@BJHGOHPC@SendEmoticon@
	DD	FLAT:?netSendEmoticon@@YAPAU_object@@PAU1@0@Z
	DD	01H
	ORG $+4
	DD	FLAT:??_C@_0BC@KNMEABPD@SendWhisperPacket@
	DD	FLAT:?netSendWhisperPacket@@YAPAU_object@@PAU1@0@Z
	DD	01H
	ORG $+4
	DD	FLAT:??_C@_0BI@BFCIMAOL@SendMobileMessagePacket@
	DD	FLAT:?netSendMobileMessagePacket@@YAPAU_object@@PAU1@0@Z
	DD	01H
	ORG $+4
	DD	FLAT:??_C@_0BM@KAMAKIKL@SendCharacterPositionPacket@
	DD	FLAT:?netSendCharacterPositionPacket@@YAPAU_object@@PAU1@0@Z
	DD	01H
	ORG $+4
	DD	FLAT:??_C@_0BC@HEOMKCAE@SendShopEndPacket@
	DD	FLAT:?netSendShopEndPacket@@YAPAU_object@@PAU1@0@Z
	DD	01H
	ORG $+4
	DD	FLAT:??_C@_0BC@FPBLEBCL@SendShopBuyPacket@
	DD	FLAT:?netSendShopBuyPacket@@YAPAU_object@@PAU1@0@Z
	DD	01H
	ORG $+4
	DD	FLAT:??_C@_0BD@BFMEHPEE@SendShopSellPacket@
	DD	FLAT:?netSendShopSellPacket@@YAPAU_object@@PAU1@0@Z
	DD	01H
	ORG $+4
	DD	FLAT:??_C@_0BG@BGJEIPGN@SendShopSellPacketNew@
	DD	FLAT:?netSendShopSellPacketNew@@YAPAU_object@@PAU1@0@Z
	DD	01H
	ORG $+4
	DD	FLAT:??_C@_0BI@BGNKGFKO@SendExchangeStartPacket@
	DD	FLAT:?netSendExchangeStartPacket@@YAPAU_object@@PAU1@0@Z
	DD	01H
	ORG $+4
	DD	FLAT:??_C@_0BK@IIFDLCNA@SendExchangeItemAddPacket@
	DD	FLAT:?netSendExchangeItemAddPacket@@YAPAU_object@@PAU1@0@Z
	DD	01H
	ORG $+4
	DD	FLAT:??_C@_0BK@KKOEHGGC@SendExchangeItemDelPacket@
	DD	FLAT:?netSendExchangeItemDelPacket@@YAPAU_object@@PAU1@0@Z
	DD	01H
	ORG $+4
	DD	FLAT:??_C@_0BJ@CGGGIOGM@SendExchangeElkAddPacket@
	DD	FLAT:?netSendExchangeElkAddPacket@@YAPAU_object@@PAU1@0@Z
	DD	01H
	ORG $+4
	DD	FLAT:??_C@_0BJ@OFKJBLDC@SendExchangeAcceptPacket@
	DD	FLAT:?netSendExchangeAcceptPacket@@YAPAU_object@@PAU1@0@Z
	DD	01H
	ORG $+4
	DD	FLAT:??_C@_0BH@NCONKHHB@SendExchangeExitPacket@
	DD	FLAT:?netSendExchangeExitPacket@@YAPAU_object@@PAU1@0@Z
	DD	01H
	ORG $+4
	DD	FLAT:??_C@_0BC@FMJHAGEI@SendOnClickPacket@
	DD	FLAT:?netOnClickPacket@@YAPAU_object@@PAU1@0@Z
	DD	01H
	ORG $+4
	DD	FLAT:??_C@_0BH@MCKLKDJM@RegisterEmoticonString@
	DD	FLAT:?netRegisterEmoticonString@@YAPAU_object@@PAU1@0@Z
	DD	01H
	ORG $+4
	DD	FLAT:??_C@_0BM@CFLPIFFM@SendMessengerAddByVIDPacket@
	DD	FLAT:?netSendMessengerAddByVIDPacket@@YAPAU_object@@PAU1@0@Z
	DD	01H
	ORG $+4
	DD	FLAT:??_C@_0BN@MPMOLLL@SendMessengerAddByNamePacket@
	DD	FLAT:?netSendMessengerAddByNamePacket@@YAPAU_object@@PAU1@0@Z
	DD	01H
	ORG $+4
	DD	FLAT:??_C@_0BK@GIIDGGBB@SendMessengerRemovePacket@
	DD	FLAT:?netSendMessengerRemovePacket@@YAPAU_object@@PAU1@0@Z
	DD	01H
	ORG $+4
	DD	FLAT:??_C@_0BG@IFGKMOED@SendPartyInvitePacket@
	DD	FLAT:?netSendPartyInvitePacket@@YAPAU_object@@PAU1@0@Z
	DD	01H
	ORG $+4
	DD	FLAT:??_C@_0BM@PFAFFBJO@SendPartyInviteAnswerPacket@
	DD	FLAT:?netSendPartyInviteAnswerPacket@@YAPAU_object@@PAU1@0@Z
	DD	01H
	ORG $+4
	DD	FLAT:??_C@_0BE@JHFPDGFP@SendPartyExitPacket@
	DD	FLAT:?netSendPartyExitPacket@@YAPAU_object@@PAU1@0@Z
	DD	01H
	ORG $+4
	DD	FLAT:??_C@_0BG@JAJGIHK@SendPartyRemovePacket@
	DD	FLAT:?netSendPartyRemovePacket@@YAPAU_object@@PAU1@0@Z
	DD	01H
	ORG $+4
	DD	FLAT:??_C@_0BI@LNEGCCFH@SendPartySetStatePacket@
	DD	FLAT:?netSendPartySetStatePacket@@YAPAU_object@@PAU1@0@Z
	DD	01H
	ORG $+4
	DD	FLAT:??_C@_0BI@EONDHFJL@SendPartyUseSkillPacket@
	DD	FLAT:?netSendPartyUseSkillPacket@@YAPAU_object@@PAU1@0@Z
	DD	01H
	ORG $+4
	DD	FLAT:??_C@_0BJ@JGBOMHFI@SendPartyParameterPacket@
	DD	FLAT:?netSendPartyParameterPacket@@YAPAU_object@@PAU1@0@Z
	DD	01H
	ORG $+4
	DD	FLAT:??_C@_0BL@CAAOLIHO@SendSafeboxSaveMoneyPacket@
	DD	FLAT:?netSendSafeboxSaveMoneyPacket@@YAPAU_object@@PAU1@0@Z
	DD	01H
	ORG $+4
	DD	FLAT:??_C@_0BP@MLAJADAA@SendSafeboxWithdrawMoneyPacket@
	DD	FLAT:?netSendSafeboxWithdrawMoneyPacket@@YAPAU_object@@PAU1@0@Z
	DD	01H
	ORG $+4
	DD	FLAT:??_C@_0BJ@HNJCKALG@SendSafeboxCheckinPacket@
	DD	FLAT:?netSendSafeboxCheckinPacket@@YAPAU_object@@PAU1@0@Z
	DD	01H
	ORG $+4
	DD	FLAT:??_C@_0BK@LJAMACPE@SendSafeboxCheckoutPacket@
	DD	FLAT:?netSendSafeboxCheckoutPacket@@YAPAU_object@@PAU1@0@Z
	DD	01H
	ORG $+4
	DD	FLAT:??_C@_0BK@JMMAEJFJ@SendSafeboxItemMovePacket@
	DD	FLAT:?netSendSafeboxItemMovePacket@@YAPAU_object@@PAU1@0@Z
	DD	01H
	ORG $+4
	DD	FLAT:??_C@_0BH@BDNDNKGE@SendMallCheckoutPacket@
	DD	FLAT:?netSendMallCheckoutPacket@@YAPAU_object@@PAU1@0@Z
	DD	01H
	ORG $+4
	DD	FLAT:??_C@_0BK@HLNHPAPM@SendAnswerMakeGuildPacket@
	DD	FLAT:?netSendAnswerMakeGuildPacket@@YAPAU_object@@PAU1@0@Z
	DD	01H
	ORG $+4
	DD	FLAT:??_C@_0BL@BJLFPMAE@SendQuestInputStringPacket@
	DD	FLAT:?netSendQuestInputStringPacket@@YAPAU_object@@PAU1@0@Z
	DD	01H
	ORG $+4
	DD	FLAT:??_C@_0BH@HMDNFHNB@SendQuestConfirmPacket@
	DD	FLAT:?netSendQuestConfirmPacket@@YAPAU_object@@PAU1@0@Z
	DD	01H
	ORG $+4
	DD	FLAT:??_C@_0BJ@MFJNIJIJ@SendGuildAddMemberPacket@
	DD	FLAT:?netSendGuildAddMemberPacket@@YAPAU_object@@PAU1@0@Z
	DD	01H
	ORG $+4
	DD	FLAT:??_C@_0BM@GAJEHHNG@SendGuildRemoveMemberPacket@
	DD	FLAT:?netSendGuildRemoveMemberPacket@@YAPAU_object@@PAU1@0@Z
	DD	01H
	ORG $+4
	DD	FLAT:??_C@_0BP@ODLEJFMG@SendGuildChangeGradeNamePacket@
	DD	FLAT:?netSendGuildChangeGradeNamePacket@@YAPAU_object@@PAU1@0@Z
	DD	01H
	ORG $+4
	DD	FLAT:??_C@_0CE@EFLFPPCO@SendGuildChangeGradeAuthorityPa@
	DD	FLAT:?netSendGuildChangeGradeAuthorityPacket@@YAPAU_object@@PAU1@0@Z
	DD	01H
	ORG $+4
	DD	FLAT:??_C@_0BF@OAFAHAKB@SendGuildOfferPacket@
	DD	FLAT:?netSendGuildOfferPacket@@YAPAU_object@@PAU1@0@Z
	DD	01H
	ORG $+4
	DD	FLAT:??_C@_0BL@JLEHIONL@SendGuildPostCommentPacket@
	DD	FLAT:?netSnedGuildPostCommentPacket@@YAPAU_object@@PAU1@0@Z
	DD	01H
	ORG $+4
	DD	FLAT:??_C@_0BN@MBNLMFLO@SendGuildDeleteCommentPacket@
	DD	FLAT:?netSnedGuildDeleteCommentPacket@@YAPAU_object@@PAU1@0@Z
	DD	01H
	ORG $+4
	DD	FLAT:??_C@_0BP@BKEOCNGM@SendGuildRefreshCommentsPacket@
	DD	FLAT:?netSendGuildRefreshCommentsPacket@@YAPAU_object@@PAU1@0@Z
	DD	01H
	ORG $+4
	DD	FLAT:??_C@_0CB@KOIDGNFC@SendGuildChangeMemberGradePacke@
	DD	FLAT:?netSendGuildChangeMemberGradePacket@@YAPAU_object@@PAU1@0@Z
	DD	01H
	ORG $+4
	DD	FLAT:??_C@_0BI@HICDMLJH@SendGuildUseSkillPacket@
	DD	FLAT:?netSendGuildUseSkillPacket@@YAPAU_object@@PAU1@0@Z
	DD	01H
	ORG $+4
	DD	FLAT:??_C@_0CD@BMLIKMKL@SendGuildChangeMemberGeneralPac@
	DD	FLAT:?netSendGuildChangeMemberGeneralPacket@@YAPAU_object@@PAU1@0@Z
	DD	01H
	ORG $+4
	DD	FLAT:??_C@_0BM@KLBFEJBI@SendGuildInviteAnswerPacket@
	DD	FLAT:?netSendGuildInviteAnswerPacket@@YAPAU_object@@PAU1@0@Z
	DD	01H
	ORG $+4
	DD	FLAT:??_C@_0BJ@LKJGDIEE@SendGuildChargeGSPPacket@
	DD	FLAT:?netSendGuildChargeGSPPacket@@YAPAU_object@@PAU1@0@Z
	DD	01H
	ORG $+4
	DD	FLAT:??_C@_0BM@HDHMFNNO@SendGuildDepositMoneyPacket@
	DD	FLAT:?netSendGuildDepositMoneyPacket@@YAPAU_object@@PAU1@0@Z
	DD	01H
	ORG $+4
	DD	FLAT:??_C@_0BN@BPJGBHPL@SendGuildWithdrawMoneyPacket@
	DD	FLAT:?netSendGuildWithdrawMoneyPacket@@YAPAU_object@@PAU1@0@Z
	DD	01H
	ORG $+4
	DD	FLAT:??_C@_0BM@NLIMKJKK@SendRequestRefineInfoPacket@
	DD	FLAT:?netSendRequestRefineInfoPacket@@YAPAU_object@@PAU1@0@Z
	DD	01H
	ORG $+4
	DD	FLAT:??_C@_0BB@MBCAEHJO@SendRefinePacket@
	DD	FLAT:?netSendRefinePacket@@YAPAU_object@@PAU1@0@Z
	DD	01H
	ORG $+4
	DD	FLAT:??_C@_0BF@HEJDCMFH@SendSelectItemPacket@
	DD	FLAT:?netSendSelectItemPacket@@YAPAU_object@@PAU1@0@Z
	DD	01H
	ORG $+4
	DD	FLAT:??_C@_0BG@HLIDKLKJ@SetPacketSequenceMode@
	DD	FLAT:?netSetPacketSequenceMode@@YAPAU_object@@PAU1@0@Z
	DD	01H
	ORG $+4
	DD	FLAT:??_C@_0BG@KCIMJDEA@SetEmpireLanguageMode@
	DD	FLAT:?netSetEmpireLanguageMode@@YAPAU_object@@PAU1@0@Z
	DD	01H
	ORG $+4
	DD	FLAT:??_C@_0BC@NOAKHLIH@SetSkillGroupFake@
	DD	FLAT:?netSetSkillGroupFake@@YAPAU_object@@PAU1@0@Z
	DD	01H
	ORG $+4
	DD	FLAT:??_C@_0BA@EGLEIBFB@SendGuildSymbol@
	DD	FLAT:?netSendGuildSymbol@@YAPAU_object@@PAU1@0@Z
	DD	01H
	ORG $+4
	DD	FLAT:??_C@_0BD@PIFKMNDO@DisconnectUploader@
	DD	FLAT:?netDisconnectUploader@@YAPAU_object@@PAU1@0@Z
	DD	01H
	ORG $+4
	DD	FLAT:??_C@_0BA@ILHNHDAK@RecvGuildSymbol@
	DD	FLAT:?netRecvGuildSymbol@@YAPAU_object@@PAU1@0@Z
	DD	01H
	ORG $+4
	DD	FLAT:??_C@_0BB@CABIEEGM@RegisterErrorLog@
	DD	FLAT:?netRegisterErrorLog@@YAPAU_object@@PAU1@0@Z
	DD	01H
	ORG $+4
	DD	00H
	DD	00H
	DD	00H
	ORG $+4
_DATA	ENDS
;	COMDAT ??_C@_0EE@CPCFCFHF@netSendGuildRemoveMemberPacket?$CI@
CONST	SEGMENT
??_C@_0EE@CPCFCFHF@netSendGuildRemoveMemberPacket?$CI@ DB 'netSendGuildRe'
	DB	'moveMemberPacket(szKey=%s) - Can''t Find Guild Member', 0aH, 00H ; `string'
CONST	ENDS
;	COMDAT ??_C@_01INIBCBCB@f@
CONST	SEGMENT
??_C@_01INIBCBCB@f@ DB 'f', 00H				; `string'
CONST	ENDS
;	COMDAT ??_C@_01LKDEMHDF@s@
CONST	SEGMENT
??_C@_01LKDEMHDF@s@ DB 's', 00H				; `string'
CONST	ENDS
;	COMDAT ??_C@_01KBJDNOO@i@
CONST	SEGMENT
??_C@_01KBJDNOO@i@ DB 'i', 00H				; `string'
CONST	ENDS
;	COMDAT ??_R1A@?0A@EA@bad_array_new_length@std@@8
rdata$r	SEGMENT
??_R1A@?0A@EA@bad_array_new_length@std@@8 DD FLAT:??_R0?AVbad_array_new_length@std@@@8 ; std::bad_array_new_length::`RTTI Base Class Descriptor at (0,-1,0,64)'
	DD	02H
	DD	00H
	DD	0ffffffffH
	DD	00H
	DD	040H
	DD	FLAT:??_R3bad_array_new_length@std@@8
rdata$r	ENDS
;	COMDAT ??_R2bad_array_new_length@std@@8
rdata$r	SEGMENT
??_R2bad_array_new_length@std@@8 DD FLAT:??_R1A@?0A@EA@bad_array_new_length@std@@8 ; std::bad_array_new_length::`RTTI Base Class Array'
	DD	FLAT:??_R1A@?0A@EA@bad_alloc@std@@8
	DD	FLAT:??_R1A@?0A@EA@exception@std@@8
rdata$r	ENDS
;	COMDAT ??_R3bad_array_new_length@std@@8
rdata$r	SEGMENT
??_R3bad_array_new_length@std@@8 DD 00H			; std::bad_array_new_length::`RTTI Class Hierarchy Descriptor'
	DD	00H
	DD	03H
	DD	FLAT:??_R2bad_array_new_length@std@@8
rdata$r	ENDS
;	COMDAT ??_R4bad_array_new_length@std@@6B@
rdata$r	SEGMENT
??_R4bad_array_new_length@std@@6B@ DD 00H		; std::bad_array_new_length::`RTTI Complete Object Locator'
	DD	00H
	DD	00H
	DD	FLAT:??_R0?AVbad_array_new_length@std@@@8
	DD	FLAT:??_R3bad_array_new_length@std@@8
rdata$r	ENDS
;	COMDAT ??_R1A@?0A@EA@bad_alloc@std@@8
rdata$r	SEGMENT
??_R1A@?0A@EA@bad_alloc@std@@8 DD FLAT:??_R0?AVbad_alloc@std@@@8 ; std::bad_alloc::`RTTI Base Class Descriptor at (0,-1,0,64)'
	DD	01H
	DD	00H
	DD	0ffffffffH
	DD	00H
	DD	040H
	DD	FLAT:??_R3bad_alloc@std@@8
rdata$r	ENDS
;	COMDAT ??_R2bad_alloc@std@@8
rdata$r	SEGMENT
??_R2bad_alloc@std@@8 DD FLAT:??_R1A@?0A@EA@bad_alloc@std@@8 ; std::bad_alloc::`RTTI Base Class Array'
	DD	FLAT:??_R1A@?0A@EA@exception@std@@8
rdata$r	ENDS
;	COMDAT ??_R3bad_alloc@std@@8
rdata$r	SEGMENT
??_R3bad_alloc@std@@8 DD 00H				; std::bad_alloc::`RTTI Class Hierarchy Descriptor'
	DD	00H
	DD	02H
	DD	FLAT:??_R2bad_alloc@std@@8
rdata$r	ENDS
;	COMDAT ??_R4bad_alloc@std@@6B@
rdata$r	SEGMENT
??_R4bad_alloc@std@@6B@ DD 00H				; std::bad_alloc::`RTTI Complete Object Locator'
	DD	00H
	DD	00H
	DD	FLAT:??_R0?AVbad_alloc@std@@@8
	DD	FLAT:??_R3bad_alloc@std@@8
rdata$r	ENDS
;	COMDAT ??_R1A@?0A@EA@exception@std@@8
rdata$r	SEGMENT
??_R1A@?0A@EA@exception@std@@8 DD FLAT:??_R0?AVexception@std@@@8 ; std::exception::`RTTI Base Class Descriptor at (0,-1,0,64)'
	DD	00H
	DD	00H
	DD	0ffffffffH
	DD	00H
	DD	040H
	DD	FLAT:??_R3exception@std@@8
rdata$r	ENDS
;	COMDAT ??_R2exception@std@@8
rdata$r	SEGMENT
??_R2exception@std@@8 DD FLAT:??_R1A@?0A@EA@exception@std@@8 ; std::exception::`RTTI Base Class Array'
rdata$r	ENDS
;	COMDAT ??_R3exception@std@@8
rdata$r	SEGMENT
??_R3exception@std@@8 DD 00H				; std::exception::`RTTI Class Hierarchy Descriptor'
	DD	00H
	DD	01H
	DD	FLAT:??_R2exception@std@@8
rdata$r	ENDS
;	COMDAT ??_R4exception@std@@6B@
rdata$r	SEGMENT
??_R4exception@std@@6B@ DD 00H				; std::exception::`RTTI Complete Object Locator'
	DD	00H
	DD	00H
	DD	FLAT:??_R0?AVexception@std@@@8
	DD	FLAT:??_R3exception@std@@8
rdata$r	ENDS
;	COMDAT ??_C@_0BA@FOIKENOD@vector?5too?5long@
CONST	SEGMENT
??_C@_0BA@FOIKENOD@vector?5too?5long@ DB 'vector too long', 00H ; `string'
CONST	ENDS
;	COMDAT ??_C@_00CNPNBAHC@@
CONST	SEGMENT
??_C@_00CNPNBAHC@@ DB 00H				; `string'
CONST	ENDS
;	COMDAT ??_C@_0BA@JFNIOLAK@string?5too?5long@
CONST	SEGMENT
??_C@_0BA@JFNIOLAK@string?5too?5long@ DB 'string too long', 00H ; `string'
CONST	ENDS
;	COMDAT __CT??_R0?AVexception@std@@@8??0exception@std@@QAE@ABV01@@Z12
xdata$x	SEGMENT
__CT??_R0?AVexception@std@@@8??0exception@std@@QAE@ABV01@@Z12 DD 00H
	DD	FLAT:??_R0?AVexception@std@@@8
	DD	00H
	DD	0ffffffffH
	ORG $+4
	DD	0cH
	DD	FLAT:??0exception@std@@QAE@ABV01@@Z
xdata$x	ENDS
;	COMDAT ??_R0?AVexception@std@@@8
data$r	SEGMENT
??_R0?AVexception@std@@@8 DD FLAT:??_7type_info@@6B@	; std::exception `RTTI Type Descriptor'
	DD	00H
	DB	'.?AVexception@std@@', 00H
data$r	ENDS
;	COMDAT __CT??_R0?AVbad_alloc@std@@@8??0bad_alloc@std@@QAE@ABV01@@Z12
xdata$x	SEGMENT
__CT??_R0?AVbad_alloc@std@@@8??0bad_alloc@std@@QAE@ABV01@@Z12 DD 010H
	DD	FLAT:??_R0?AVbad_alloc@std@@@8
	DD	00H
	DD	0ffffffffH
	ORG $+4
	DD	0cH
	DD	FLAT:??0bad_alloc@std@@QAE@ABV01@@Z
xdata$x	ENDS
;	COMDAT ??_R0?AVbad_alloc@std@@@8
data$r	SEGMENT
??_R0?AVbad_alloc@std@@@8 DD FLAT:??_7type_info@@6B@	; std::bad_alloc `RTTI Type Descriptor'
	DD	00H
	DB	'.?AVbad_alloc@std@@', 00H
data$r	ENDS
;	COMDAT __CT??_R0?AVbad_array_new_length@std@@@8??0bad_array_new_length@std@@QAE@ABV01@@Z12
xdata$x	SEGMENT
__CT??_R0?AVbad_array_new_length@std@@@8??0bad_array_new_length@std@@QAE@ABV01@@Z12 DD 00H
	DD	FLAT:??_R0?AVbad_array_new_length@std@@@8
	DD	00H
	DD	0ffffffffH
	ORG $+4
	DD	0cH
	DD	FLAT:??0bad_array_new_length@std@@QAE@ABV01@@Z
xdata$x	ENDS
;	COMDAT ??_R0?AVbad_array_new_length@std@@@8
data$r	SEGMENT
??_R0?AVbad_array_new_length@std@@@8 DD FLAT:??_7type_info@@6B@ ; std::bad_array_new_length `RTTI Type Descriptor'
	DD	00H
	DB	'.?AVbad_array_new_length@std@@', 00H
data$r	ENDS
;	COMDAT __CTA3?AVbad_array_new_length@std@@
xdata$x	SEGMENT
__CTA3?AVbad_array_new_length@std@@ DD 03H
	DD	FLAT:__CT??_R0?AVbad_array_new_length@std@@@8??0bad_array_new_length@std@@QAE@ABV01@@Z12
	DD	FLAT:__CT??_R0?AVbad_alloc@std@@@8??0bad_alloc@std@@QAE@ABV01@@Z12
	DD	FLAT:__CT??_R0?AVexception@std@@@8??0exception@std@@QAE@ABV01@@Z12
xdata$x	ENDS
;	COMDAT __TI3?AVbad_array_new_length@std@@
xdata$x	SEGMENT
__TI3?AVbad_array_new_length@std@@ DD 00H
	DD	FLAT:??1bad_array_new_length@std@@UAE@XZ
	DD	00H
	DD	FLAT:__CTA3?AVbad_array_new_length@std@@
xdata$x	ENDS
;	COMDAT ??_C@_0BF@KINCDENJ@bad?5array?5new?5length@
CONST	SEGMENT
??_C@_0BF@KINCDENJ@bad?5array?5new?5length@ DB 'bad array new length', 00H ; `string'
CONST	ENDS
;	COMDAT ??_7bad_array_new_length@std@@6B@
CONST	SEGMENT
??_7bad_array_new_length@std@@6B@ DD FLAT:??_R4bad_array_new_length@std@@6B@ ; std::bad_array_new_length::`vftable'
	DD	FLAT:??_Ebad_array_new_length@std@@UAEPAXI@Z
	DD	FLAT:?what@exception@std@@UBEPBDXZ
CONST	ENDS
;	COMDAT ??_7bad_alloc@std@@6B@
CONST	SEGMENT
??_7bad_alloc@std@@6B@ DD FLAT:??_R4bad_alloc@std@@6B@	; std::bad_alloc::`vftable'
	DD	FLAT:??_Ebad_alloc@std@@UAEPAXI@Z
	DD	FLAT:?what@exception@std@@UBEPBDXZ
CONST	ENDS
;	COMDAT ??_C@_0BC@EOODALEL@Unknown?5exception@
CONST	SEGMENT
??_C@_0BC@EOODALEL@Unknown?5exception@ DB 'Unknown exception', 00H ; `string'
CONST	ENDS
;	COMDAT ??_7exception@std@@6B@
CONST	SEGMENT
??_7exception@std@@6B@ DD FLAT:??_R4exception@std@@6B@	; std::exception::`vftable'
	DD	FLAT:??_Eexception@std@@UAEPAXI@Z
	DD	FLAT:?what@exception@std@@UBEPBDXZ
CONST	ENDS
;	COMDAT xdata$x
xdata$x	SEGMENT
__unwindtable$??$?0V?$basic_string@DU?$char_traits@D@std@@V?$allocator@D@2@@std@@@?$_List_node_emplace_op2@V?$allocator@U?$_List_node@V?$basic_string@DU?$char_traits@D@std@@V?$allocator@D@2@@std@@PAX@std@@@std@@@std@@QAE@AAV?$allocator@U?$_List_node@V?$basic_string@DU?$char_traits@D@std@@V?$allocator@D@2@@std@@PAX@std@@@1@$$QAV?$basic_string@DU?$char_traits@D@std@@V?$allocator@D@2@@1@@Z DD 0ffffffffH
	DD	FLAT:__unwindfunclet$??$?0V?$basic_string@DU?$char_traits@D@std@@V?$allocator@D@2@@std@@@?$_List_node_emplace_op2@V?$allocator@U?$_List_node@V?$basic_string@DU?$char_traits@D@std@@V?$allocator@D@2@@std@@PAX@std@@@std@@@std@@QAE@AAV?$allocator@U?$_List_node@V?$basic_string@DU?$char_traits@D@std@@V?$allocator@D@2@@std@@PAX@std@@@1@$$QAV?$basic_string@DU?$char_traits@D@std@@V?$allocator@D@2@@1@@Z$0
__ehfuncinfo$??$?0V?$basic_string@DU?$char_traits@D@std@@V?$allocator@D@2@@std@@@?$_List_node_emplace_op2@V?$allocator@U?$_List_node@V?$basic_string@DU?$char_traits@D@std@@V?$allocator@D@2@@std@@PAX@std@@@std@@@std@@QAE@AAV?$allocator@U?$_List_node@V?$basic_string@DU?$char_traits@D@std@@V?$allocator@D@2@@std@@PAX@std@@@1@$$QAV?$basic_string@DU?$char_traits@D@std@@V?$allocator@D@2@@1@@Z DD 019930522H
	DD	01H
	DD	FLAT:__unwindtable$??$?0V?$basic_string@DU?$char_traits@D@std@@V?$allocator@D@2@@std@@@?$_List_node_emplace_op2@V?$allocator@U?$_List_node@V?$basic_string@DU?$char_traits@D@std@@V?$allocator@D@2@@std@@PAX@std@@@std@@@std@@QAE@AAV?$allocator@U?$_List_node@V?$basic_string@DU?$char_traits@D@std@@V?$allocator@D@2@@std@@PAX@std@@@1@$$QAV?$basic_string@DU?$char_traits@D@std@@V?$allocator@D@2@@1@@Z
	DD	2 DUP(00H)
	DD	2 DUP(00H)
	DD	00H
	DD	01H
xdata$x	ENDS
;	COMDAT xdata$x
xdata$x	SEGMENT
__catchsym$??$_Emplace_reallocate@ABK@?$vector@KV?$allocator@K@std@@@std@@QAEPAKQAKABK@Z$32 DD 040H
	DD	00H
	DD	00H
	DD	FLAT:__catch$??$_Emplace_reallocate@ABK@?$vector@KV?$allocator@K@std@@@std@@QAEPAKQAKABK@Z$0
__unwindtable$??$_Emplace_reallocate@ABK@?$vector@KV?$allocator@K@std@@@std@@QAEPAKQAKABK@Z DD 0ffffffffH
	DD	00H
	DD	0ffffffffH
	DD	00H
__tryblocktable$??$_Emplace_reallocate@ABK@?$vector@KV?$allocator@K@std@@@std@@QAEPAKQAKABK@Z DD 00H
	DD	00H
	DD	01H
	DD	01H
	DD	FLAT:__catchsym$??$_Emplace_reallocate@ABK@?$vector@KV?$allocator@K@std@@@std@@QAEPAKQAKABK@Z$32
__ehfuncinfo$??$_Emplace_reallocate@ABK@?$vector@KV?$allocator@K@std@@@std@@QAEPAKQAKABK@Z DD 019930522H
	DD	02H
	DD	FLAT:__unwindtable$??$_Emplace_reallocate@ABK@?$vector@KV?$allocator@K@std@@@std@@QAEPAKQAKABK@Z
	DD	01H
	DD	FLAT:__tryblocktable$??$_Emplace_reallocate@ABK@?$vector@KV?$allocator@K@std@@@std@@QAEPAKQAKABK@Z
	DD	2 DUP(00H)
	DD	00H
	DD	01H
xdata$x	ENDS
;	COMDAT xdata$x
xdata$x	SEGMENT
__unwindtable$?netRecvGuildSymbol@@YAPAU_object@@PAU1@0@Z DD 0ffffffffH
	DD	FLAT:__unwindfunclet$?netRecvGuildSymbol@@YAPAU_object@@PAU1@0@Z$0
	DD	00H
	DD	FLAT:__unwindfunclet$?netRecvGuildSymbol@@YAPAU_object@@PAU1@0@Z$1
__ehfuncinfo$?netRecvGuildSymbol@@YAPAU_object@@PAU1@0@Z DD 019930522H
	DD	02H
	DD	FLAT:__unwindtable$?netRecvGuildSymbol@@YAPAU_object@@PAU1@0@Z
	DD	2 DUP(00H)
	DD	2 DUP(00H)
	DD	00H
	DD	01H
xdata$x	ENDS
;	COMDAT xdata$x
xdata$x	SEGMENT
__unwindtable$?netSendGuildSymbol@@YAPAU_object@@PAU1@0@Z DD 0ffffffffH
	DD	FLAT:__unwindfunclet$?netSendGuildSymbol@@YAPAU_object@@PAU1@0@Z$0
__ehfuncinfo$?netSendGuildSymbol@@YAPAU_object@@PAU1@0@Z DD 019930522H
	DD	01H
	DD	FLAT:__unwindtable$?netSendGuildSymbol@@YAPAU_object@@PAU1@0@Z
	DD	2 DUP(00H)
	DD	2 DUP(00H)
	DD	00H
	DD	01H
xdata$x	ENDS
;	COMDAT xdata$x
xdata$x	SEGMENT
__unwindtable$?netPreserveServerCommand@@YAPAU_object@@PAU1@0@Z DD 0ffffffffH
	DD	FLAT:__unwindfunclet$?netPreserveServerCommand@@YAPAU_object@@PAU1@0@Z$0
__ehfuncinfo$?netPreserveServerCommand@@YAPAU_object@@PAU1@0@Z DD 019930522H
	DD	01H
	DD	FLAT:__unwindtable$?netPreserveServerCommand@@YAPAU_object@@PAU1@0@Z
	DD	2 DUP(00H)
	DD	2 DUP(00H)
	DD	00H
	DD	01H
xdata$x	ENDS
;	COMDAT xdata$x
xdata$x	SEGMENT
__ehfuncinfo$??$_Deallocate@$07$0A@@std@@YAXPAXI@Z DD 019930522H
	DD	00H
	DD	00H
	DD	2 DUP(00H)
	DD	2 DUP(00H)
	DD	00H
	DD	05H
xdata$x	ENDS
;	COMDAT xdata$x
xdata$x	SEGMENT
__unwindtable$??0?$basic_string@DU?$char_traits@D@std@@V?$allocator@D@2@@std@@QAE@QBD@Z DD 0ffffffffH
	DD	FLAT:__unwindfunclet$??0?$basic_string@DU?$char_traits@D@std@@V?$allocator@D@2@@std@@QAE@QBD@Z$0
__ehfuncinfo$??0?$basic_string@DU?$char_traits@D@std@@V?$allocator@D@2@@std@@QAE@QBD@Z DD 019930522H
	DD	01H
	DD	FLAT:__unwindtable$??0?$basic_string@DU?$char_traits@D@std@@V?$allocator@D@2@@std@@QAE@QBD@Z
	DD	2 DUP(00H)
	DD	2 DUP(00H)
	DD	00H
	DD	01H
xdata$x	ENDS
;	COMDAT xdata$x
xdata$x	SEGMENT
__unwindtable$??0?$basic_string@DU?$char_traits@D@std@@V?$allocator@D@2@@std@@QAE@ABV01@@Z DD 0ffffffffH
	DD	FLAT:__unwindfunclet$??0?$basic_string@DU?$char_traits@D@std@@V?$allocator@D@2@@std@@QAE@ABV01@@Z$0
__ehfuncinfo$??0?$basic_string@DU?$char_traits@D@std@@V?$allocator@D@2@@std@@QAE@ABV01@@Z DD 019930522H
	DD	01H
	DD	FLAT:__unwindtable$??0?$basic_string@DU?$char_traits@D@std@@V?$allocator@D@2@@std@@QAE@ABV01@@Z
	DD	2 DUP(00H)
	DD	2 DUP(00H)
	DD	00H
	DD	01H
xdata$x	ENDS
CRT$XCU	SEGMENT
?g_kList_strCommand$initializer$@@3P6AXXZA DD FLAT:??__Eg_kList_strCommand@@YAXXZ ; g_kList_strCommand$initializer$
CRT$XCU	ENDS
; Function compile flags: /Odspy
; File C:\Program Files (x86)\Microsoft Visual Studio\2019\Community\VC\Tools\MSVC\14.28.29333\include\xutility
;	COMDAT ??$_Copy_memmove@PAKPAK@std@@YAPAKPAK00@Z
_TEXT	SEGMENT
__Last_ch$ = -16					; size = 4
__Count$ = -12						; size = 4
__Dest_ch$ = -8						; size = 4
__First_ch$ = -4					; size = 4
__First$ = 8						; size = 4
__Last$ = 12						; size = 4
__Dest$ = 16						; size = 4
??$_Copy_memmove@PAKPAK@std@@YAPAKPAK00@Z PROC		; std::_Copy_memmove<unsigned long *,unsigned long *>, COMDAT

; 4360 : _OutIt _Copy_memmove(_InIt _First, _InIt _Last, _OutIt _Dest) {

  00000	55		 push	 ebp
  00001	8b ec		 mov	 ebp, esp
  00003	83 ec 10	 sub	 esp, 16			; 00000010H

; 4361 :     const char* const _First_ch = const_cast<const char*>(reinterpret_cast<const volatile char*>(_First));

  00006	8b 45 08	 mov	 eax, DWORD PTR __First$[ebp]
  00009	89 45 fc	 mov	 DWORD PTR __First_ch$[ebp], eax

; 4362 :     const char* const _Last_ch  = const_cast<const char*>(reinterpret_cast<const volatile char*>(_Last));

  0000c	8b 45 0c	 mov	 eax, DWORD PTR __Last$[ebp]
  0000f	89 45 f0	 mov	 DWORD PTR __Last_ch$[ebp], eax

; 4363 :     char* const _Dest_ch        = const_cast<char*>(reinterpret_cast<volatile char*>(_Dest));

  00012	8b 45 10	 mov	 eax, DWORD PTR __Dest$[ebp]
  00015	89 45 f8	 mov	 DWORD PTR __Dest_ch$[ebp], eax

; 4364 :     const auto _Count           = static_cast<size_t>(_Last_ch - _First_ch);

  00018	8b 45 f0	 mov	 eax, DWORD PTR __Last_ch$[ebp]
  0001b	2b 45 fc	 sub	 eax, DWORD PTR __First_ch$[ebp]
  0001e	89 45 f4	 mov	 DWORD PTR __Count$[ebp], eax

; 4365 :     _CSTD memmove(_Dest_ch, _First_ch, _Count);

  00021	ff 75 f4	 push	 DWORD PTR __Count$[ebp]
  00024	ff 75 fc	 push	 DWORD PTR __First_ch$[ebp]
  00027	ff 75 f8	 push	 DWORD PTR __Dest_ch$[ebp]
  0002a	e8 00 00 00 00	 call	 _memmove
  0002f	83 c4 0c	 add	 esp, 12			; 0000000cH

; 4366 :     return reinterpret_cast<_OutIt>(_Dest_ch + _Count);

  00032	8b 45 f8	 mov	 eax, DWORD PTR __Dest_ch$[ebp]
  00035	03 45 f4	 add	 eax, DWORD PTR __Count$[ebp]

; 4367 : }

  00038	c9		 leave
  00039	c3		 ret	 0
??$_Copy_memmove@PAKPAK@std@@YAPAKPAK00@Z ENDP		; std::_Copy_memmove<unsigned long *,unsigned long *>
_TEXT	ENDS
; Function compile flags: /Odspy
; File C:\Program Files (x86)\Microsoft Visual Studio\2019\Community\VC\Tools\MSVC\14.28.29333\include\xmemory
; File C:\Program Files (x86)\Microsoft Visual Studio\2019\Community\VC\Tools\MSVC\14.28.29333\include\xstddef
; File C:\Program Files (x86)\Microsoft Visual Studio\2019\Community\VC\Tools\MSVC\14.28.29333\include\xmemory
;	COMDAT ??$_Uninitialized_move@PAKV?$allocator@K@std@@@std@@YAPAKQAK0PAKAAV?$allocator@K@0@@Z
_TEXT	SEGMENT
$T1 = -12						; size = 4
__UFirst$ = -8						; size = 4
__ULast$ = -4						; size = 4
__First$ = 8						; size = 4
__Last$ = 12						; size = 4
__Dest$ = 16						; size = 4
__Al$ = 20						; size = 4
??$_Uninitialized_move@PAKV?$allocator@K@std@@@std@@YAPAKQAK0PAKAAV?$allocator@K@0@@Z PROC ; std::_Uninitialized_move<unsigned long *,std::allocator<unsigned long> >, COMDAT

; 1685 :     const _InIt _First, const _InIt _Last, _Alloc_ptr_t<_Alloc> _Dest, _Alloc& _Al) {

  00000	55		 push	 ebp
  00001	8b ec		 mov	 ebp, esp
  00003	83 ec 0c	 sub	 esp, 12			; 0000000cH

; 1686 :     // move [_First, _Last) to raw _Dest, using _Al
; 1687 :     // note: only called internally from elsewhere in the STL
; 1688 :     using _Ptrval     = typename _Alloc::value_type*;
; 1689 :     auto _UFirst      = _Get_unwrapped(_First);

  00006	8b 45 08	 mov	 eax, DWORD PTR __First$[ebp]
  00009	89 45 f8	 mov	 DWORD PTR __UFirst$[ebp], eax

; 1690 :     const auto _ULast = _Get_unwrapped(_Last);

  0000c	8b 45 0c	 mov	 eax, DWORD PTR __Last$[ebp]
  0000f	89 45 fc	 mov	 DWORD PTR __ULast$[ebp], eax
; File C:\Program Files (x86)\Microsoft Visual Studio\2019\Community\VC\Tools\MSVC\14.28.29333\include\xstddef

; 289  :     return _Ptr;

  00012	8b 45 10	 mov	 eax, DWORD PTR __Dest$[ebp]
  00015	89 45 f4	 mov	 DWORD PTR $T1[ebp], eax
; File C:\Program Files (x86)\Microsoft Visual Studio\2019\Community\VC\Tools\MSVC\14.28.29333\include\xmemory

; 1693 :         _Copy_memmove(_UFirst, _ULast, _Unfancy(_Dest));

  00018	ff 75 f4	 push	 DWORD PTR $T1[ebp]
  0001b	ff 75 fc	 push	 DWORD PTR __ULast$[ebp]
  0001e	ff 75 f8	 push	 DWORD PTR __UFirst$[ebp]
  00021	e8 00 00 00 00	 call	 ??$_Copy_memmove@PAKPAK@std@@YAPAKPAK00@Z ; std::_Copy_memmove<unsigned long *,unsigned long *>
  00026	83 c4 0c	 add	 esp, 12			; 0000000cH

; 1694 :         return _Dest + (_ULast - _UFirst);

  00029	8b 45 fc	 mov	 eax, DWORD PTR __ULast$[ebp]
  0002c	2b 45 f8	 sub	 eax, DWORD PTR __UFirst$[ebp]
  0002f	c1 f8 02	 sar	 eax, 2
  00032	8b 4d 10	 mov	 ecx, DWORD PTR __Dest$[ebp]
  00035	8d 04 81	 lea	 eax, DWORD PTR [ecx+eax*4]

; 1695 :     } else {
; 1696 :         _Uninitialized_backout_al<_Alloc> _Backout{_Dest, _Al};
; 1697 :         for (; _UFirst != _ULast; ++_UFirst) {
; 1698 :             _Backout._Emplace_back(_STD move(*_UFirst));
; 1699 :         }
; 1700 : 
; 1701 :         return _Backout._Release();
; 1702 :     }
; 1703 : }

  00038	c9		 leave
  00039	c3		 ret	 0
??$_Uninitialized_move@PAKV?$allocator@K@std@@@std@@YAPAKQAK0PAKAAV?$allocator@K@0@@Z ENDP ; std::_Uninitialized_move<unsigned long *,std::allocator<unsigned long> >
_TEXT	ENDS
; Function compile flags: /Odspy
; File C:\Program Files (x86)\Microsoft Visual Studio\2019\Community\VC\Tools\MSVC\14.28.29333\include\xmemory
; File C:\Program Files (x86)\Microsoft Visual Studio\2019\Community\VC\Tools\MSVC\14.28.29333\include\xstddef
; File C:\Program Files (x86)\Microsoft Visual Studio\2019\Community\VC\Tools\MSVC\14.28.29333\include\vcruntime_new.h
; File C:\Program Files (x86)\Microsoft Visual Studio\2019\Community\VC\Tools\MSVC\14.28.29333\include\type_traits
; File C:\Program Files (x86)\Microsoft Visual Studio\2019\Community\VC\Tools\MSVC\14.28.29333\include\xmemory
;	COMDAT ??$_Construct_in_place@PAU?$_List_node@V?$basic_string@DU?$char_traits@D@std@@V?$allocator@D@2@@std@@PAX@std@@ABQAU12@@std@@YAXAAPAU?$_List_node@V?$basic_string@DU?$char_traits@D@std@@V?$allocator@D@2@@std@@PAX@0@ABQAU10@@Z
_TEXT	SEGMENT
$T1 = -12						; size = 4
$T2 = -8						; size = 4
$T3 = -4						; size = 4
__Obj$ = 8						; size = 4
_<_Args_0>$ = 12					; size = 4
??$_Construct_in_place@PAU?$_List_node@V?$basic_string@DU?$char_traits@D@std@@V?$allocator@D@2@@std@@PAX@std@@ABQAU12@@std@@YAXAAPAU?$_List_node@V?$basic_string@DU?$char_traits@D@std@@V?$allocator@D@2@@std@@PAX@0@ABQAU10@@Z PROC ; std::_Construct_in_place<std::_List_node<std::basic_string<char,std::char_traits<char>,std::allocator<char> >,void *> *,std::_List_node<std::basic_string<char,std::char_traits<char>,std::allocator<char> >,void *> * const &>, COMDAT

; 228  : void _Construct_in_place(_Ty& _Obj, _Types&&... _Args) noexcept(is_nothrow_constructible_v<_Ty, _Types...>) {

  00000	55		 push	 ebp
  00001	8b ec		 mov	 ebp, esp
  00003	83 ec 0c	 sub	 esp, 12			; 0000000cH
; File C:\Program Files (x86)\Microsoft Visual Studio\2019\Community\VC\Tools\MSVC\14.28.29333\include\xstddef

; 275  :     return __builtin_addressof(_Val);

  00006	8b 45 08	 mov	 eax, DWORD PTR __Obj$[ebp]
  00009	89 45 fc	 mov	 DWORD PTR $T3[ebp], eax
; File C:\Program Files (x86)\Microsoft Visual Studio\2019\Community\VC\Tools\MSVC\14.28.29333\include\vcruntime_new.h

; 169  :         return _Where;

  0000c	8b 45 fc	 mov	 eax, DWORD PTR $T3[ebp]
  0000f	89 45 f8	 mov	 DWORD PTR $T2[ebp], eax
; File C:\Program Files (x86)\Microsoft Visual Studio\2019\Community\VC\Tools\MSVC\14.28.29333\include\type_traits

; 1443 :     return static_cast<_Ty&&>(_Arg);

  00012	8b 45 0c	 mov	 eax, DWORD PTR _<_Args_0>$[ebp]
  00015	89 45 f4	 mov	 DWORD PTR $T1[ebp], eax
; File C:\Program Files (x86)\Microsoft Visual Studio\2019\Community\VC\Tools\MSVC\14.28.29333\include\xmemory

; 229  :     ::new (const_cast<void*>(static_cast<const volatile void*>(_STD addressof(_Obj))))

  00018	8b 45 f8	 mov	 eax, DWORD PTR $T2[ebp]
  0001b	8b 4d f4	 mov	 ecx, DWORD PTR $T1[ebp]
  0001e	8b 09		 mov	 ecx, DWORD PTR [ecx]
  00020	89 08		 mov	 DWORD PTR [eax], ecx

; 230  :         _Ty(_STD forward<_Types>(_Args)...);
; 231  : }

  00022	c9		 leave
  00023	c3		 ret	 0
??$_Construct_in_place@PAU?$_List_node@V?$basic_string@DU?$char_traits@D@std@@V?$allocator@D@2@@std@@PAX@std@@ABQAU12@@std@@YAXAAPAU?$_List_node@V?$basic_string@DU?$char_traits@D@std@@V?$allocator@D@2@@std@@PAX@0@ABQAU10@@Z ENDP ; std::_Construct_in_place<std::_List_node<std::basic_string<char,std::char_traits<char>,std::allocator<char> >,void *> *,std::_List_node<std::basic_string<char,std::char_traits<char>,std::allocator<char> >,void *> * const &>
_TEXT	ENDS
; Function compile flags: /Odspy
; File C:\Program Files (x86)\Microsoft Visual Studio\2019\Community\VC\Tools\MSVC\14.28.29333\include\xmemory
;	COMDAT ??$_Destroy_in_place@PAU?$_List_node@V?$basic_string@DU?$char_traits@D@std@@V?$allocator@D@2@@std@@PAX@std@@@std@@YAXAAPAU?$_List_node@V?$basic_string@DU?$char_traits@D@std@@V?$allocator@D@2@@std@@PAX@0@@Z
_TEXT	SEGMENT
__Obj$ = 8						; size = 4
??$_Destroy_in_place@PAU?$_List_node@V?$basic_string@DU?$char_traits@D@std@@V?$allocator@D@2@@std@@PAX@std@@@std@@YAXAAPAU?$_List_node@V?$basic_string@DU?$char_traits@D@std@@V?$allocator@D@2@@std@@PAX@0@@Z PROC ; std::_Destroy_in_place<std::_List_node<std::basic_string<char,std::char_traits<char>,std::allocator<char> >,void *> *>, COMDAT

; 270  : /* _CONSTEXPR20_DYNALLOC */ void _Destroy_in_place(_Ty& _Obj) noexcept {

  00000	55		 push	 ebp
  00001	8b ec		 mov	 ebp, esp

; 271  : #if _HAS_IF_CONSTEXPR
; 272  :     if constexpr (is_array_v<_Ty>) {
; 273  :         _Destroy_range(_Obj, _Obj + extent_v<_Ty>);
; 274  :     } else
; 275  : #endif // _HAS_IF_CONSTEXPR
; 276  :     {
; 277  :         _Obj.~_Ty();
; 278  :     }
; 279  : }

  00003	5d		 pop	 ebp
  00004	c3		 ret	 0
??$_Destroy_in_place@PAU?$_List_node@V?$basic_string@DU?$char_traits@D@std@@V?$allocator@D@2@@std@@PAX@std@@@std@@YAXAAPAU?$_List_node@V?$basic_string@DU?$char_traits@D@std@@V?$allocator@D@2@@std@@PAX@0@@Z ENDP ; std::_Destroy_in_place<std::_List_node<std::basic_string<char,std::char_traits<char>,std::allocator<char> >,void *> *>
_TEXT	ENDS
; Function compile flags: /Odspy
; File C:\Program Files (x86)\Microsoft Visual Studio\2019\Community\VC\Tools\MSVC\14.28.29333\include\list
; File C:\Program Files (x86)\Microsoft Visual Studio\2019\Community\VC\Tools\MSVC\14.28.29333\include\xmemory
; File C:\Program Files (x86)\Microsoft Visual Studio\2019\Community\VC\Tools\MSVC\14.28.29333\include\list
; File C:\Program Files (x86)\Microsoft Visual Studio\2019\Community\VC\Tools\MSVC\14.28.29333\include\type_traits
; File C:\Program Files (x86)\Microsoft Visual Studio\2019\Community\VC\Tools\MSVC\14.28.29333\include\list
; File C:\Program Files (x86)\Microsoft Visual Studio\2019\Community\VC\Tools\MSVC\14.28.29333\include\xstddef
; File C:\Program Files (x86)\Microsoft Visual Studio\2019\Community\VC\Tools\MSVC\14.28.29333\include\list
; File C:\Program Files (x86)\Microsoft Visual Studio\2019\Community\VC\Tools\MSVC\14.28.29333\include\vcruntime_new.h
; File C:\Program Files (x86)\Microsoft Visual Studio\2019\Community\VC\Tools\MSVC\14.28.29333\include\type_traits
; File C:\Program Files (x86)\Microsoft Visual Studio\2019\Community\VC\Tools\MSVC\14.28.29333\include\xmemory
; File C:\Program Files (x86)\Microsoft Visual Studio\2019\Community\VC\Tools\MSVC\14.28.29333\include\list
;	COMDAT ??$?0V?$basic_string@DU?$char_traits@D@std@@V?$allocator@D@2@@std@@@?$_List_node_emplace_op2@V?$allocator@U?$_List_node@V?$basic_string@DU?$char_traits@D@std@@V?$allocator@D@2@@std@@PAX@std@@@std@@@std@@QAE@AAV?$allocator@U?$_List_node@V?$basic_string@DU?$char_traits@D@std@@V?$allocator@D@2@@std@@PAX@std@@@1@$$QAV?$basic_string@DU?$char_traits@D@std@@V?$allocator@D@2@@1@@Z
_TEXT	SEGMENT
___formal$ = -40					; size = 4
$T2 = -36						; size = 4
$T3 = -32						; size = 4
$T4 = -28						; size = 4
$T5 = -24						; size = 4
__Val$ = -20						; size = 4
_this$ = -16						; size = 4
__$EHRec$ = -12						; size = 12
__Al_$ = 8						; size = 4
_<_Vals_0>$ = 12					; size = 4
??$?0V?$basic_string@DU?$char_traits@D@std@@V?$allocator@D@2@@std@@@?$_List_node_emplace_op2@V?$allocator@U?$_List_node@V?$basic_string@DU?$char_traits@D@std@@V?$allocator@D@2@@std@@PAX@std@@@std@@@std@@QAE@AAV?$allocator@U?$_List_node@V?$basic_string@DU?$char_traits@D@std@@V?$allocator@D@2@@std@@PAX@std@@@1@$$QAV?$basic_string@DU?$char_traits@D@std@@V?$allocator@D@2@@1@@Z PROC ; std::_List_node_emplace_op2<std::allocator<std::_List_node<std::basic_string<char,std::char_traits<char>,std::allocator<char> >,void *> > >::_List_node_emplace_op2<std::allocator<std::_List_node<std::basic_string<char,std::char_traits<char>,std::allocator<char> >,void *> > ><std::basic_string<char,std::char_traits<char>,std::allocator<char> > >, COMDAT
; _this$ = ecx

; 585  :     explicit _List_node_emplace_op2(_Alnode& _Al_, _Valtys&&... _Vals) : _Alloc_construct_ptr<_Alnode>(_Al_) {

  00000	55		 push	 ebp
  00001	8b ec		 mov	 ebp, esp
  00003	6a ff		 push	 -1
  00005	68 00 00 00 00	 push	 __ehhandler$??$?0V?$basic_string@DU?$char_traits@D@std@@V?$allocator@D@2@@std@@@?$_List_node_emplace_op2@V?$allocator@U?$_List_node@V?$basic_string@DU?$char_traits@D@std@@V?$allocator@D@2@@std@@PAX@std@@@std@@@std@@QAE@AAV?$allocator@U?$_List_node@V?$basic_string@DU?$char_traits@D@std@@V?$allocator@D@2@@std@@PAX@std@@@1@$$QAV?$basic_string@DU?$char_traits@D@std@@V?$allocator@D@2@@1@@Z
  0000a	64 a1 00 00 00
	00		 mov	 eax, DWORD PTR fs:0
  00010	50		 push	 eax
  00011	83 ec 1c	 sub	 esp, 28			; 0000001cH
  00014	a1 00 00 00 00	 mov	 eax, DWORD PTR ___security_cookie
  00019	33 c5		 xor	 eax, ebp
  0001b	50		 push	 eax
  0001c	8d 45 f4	 lea	 eax, DWORD PTR __$EHRec$[ebp]
  0001f	64 a3 00 00 00
	00		 mov	 DWORD PTR fs:0, eax
  00025	89 4d f0	 mov	 DWORD PTR _this$[ebp], ecx
; File C:\Program Files (x86)\Microsoft Visual Studio\2019\Community\VC\Tools\MSVC\14.28.29333\include\xmemory

; 1045 :     explicit _Alloc_construct_ptr(_Alloc& _Al_) : _Al(_Al_), _Ptr(nullptr) {}

  00028	8b 45 f0	 mov	 eax, DWORD PTR _this$[ebp]
  0002b	8b 4d 08	 mov	 ecx, DWORD PTR __Al_$[ebp]
  0002e	89 08		 mov	 DWORD PTR [eax], ecx
  00030	8b 45 f0	 mov	 eax, DWORD PTR _this$[ebp]
  00033	83 60 04 00	 and	 DWORD PTR [eax+4], 0
; File C:\Program Files (x86)\Microsoft Visual Studio\2019\Community\VC\Tools\MSVC\14.28.29333\include\list

; 585  :     explicit _List_node_emplace_op2(_Alnode& _Al_, _Valtys&&... _Vals) : _Alloc_construct_ptr<_Alnode>(_Al_) {

  00037	83 65 fc 00	 and	 DWORD PTR __$EHRec$[ebp+8], 0

; 586  :         this->_Allocate();

  0003b	8b 4d f0	 mov	 ecx, DWORD PTR _this$[ebp]
  0003e	e8 00 00 00 00	 call	 ?_Allocate@?$_Alloc_construct_ptr@V?$allocator@U?$_List_node@V?$basic_string@DU?$char_traits@D@std@@V?$allocator@D@2@@std@@PAX@std@@@std@@@std@@QAEXXZ ; std::_Alloc_construct_ptr<std::allocator<std::_List_node<std::basic_string<char,std::char_traits<char>,std::allocator<char> >,void *> > >::_Allocate
; File C:\Program Files (x86)\Microsoft Visual Studio\2019\Community\VC\Tools\MSVC\14.28.29333\include\type_traits

; 1443 :     return static_cast<_Ty&&>(_Arg);

  00043	8b 45 0c	 mov	 eax, DWORD PTR _<_Vals_0>$[ebp]
  00046	89 45 e4	 mov	 DWORD PTR $T4[ebp], eax
; File C:\Program Files (x86)\Microsoft Visual Studio\2019\Community\VC\Tools\MSVC\14.28.29333\include\list

; 587  :         _Alnode_traits::construct(this->_Al, _STD addressof(this->_Ptr->_Myval), _STD forward<_Valtys>(_Vals)...);

  00049	8b 45 f0	 mov	 eax, DWORD PTR _this$[ebp]
  0004c	8b 40 04	 mov	 eax, DWORD PTR [eax+4]
  0004f	83 c0 08	 add	 eax, 8
  00052	89 45 ec	 mov	 DWORD PTR __Val$[ebp], eax
; File C:\Program Files (x86)\Microsoft Visual Studio\2019\Community\VC\Tools\MSVC\14.28.29333\include\xstddef

; 275  :     return __builtin_addressof(_Val);

  00055	8b 45 ec	 mov	 eax, DWORD PTR __Val$[ebp]
  00058	89 45 e8	 mov	 DWORD PTR $T5[ebp], eax
; File C:\Program Files (x86)\Microsoft Visual Studio\2019\Community\VC\Tools\MSVC\14.28.29333\include\list

; 587  :         _Alnode_traits::construct(this->_Al, _STD addressof(this->_Ptr->_Myval), _STD forward<_Valtys>(_Vals)...);

  0005b	8b 45 f0	 mov	 eax, DWORD PTR _this$[ebp]
  0005e	8b 00		 mov	 eax, DWORD PTR [eax]
  00060	89 45 d8	 mov	 DWORD PTR ___formal$[ebp], eax
; File C:\Program Files (x86)\Microsoft Visual Studio\2019\Community\VC\Tools\MSVC\14.28.29333\include\vcruntime_new.h

; 169  :         return _Where;

  00063	8b 45 e8	 mov	 eax, DWORD PTR $T5[ebp]
  00066	89 45 dc	 mov	 DWORD PTR $T2[ebp], eax
; File C:\Program Files (x86)\Microsoft Visual Studio\2019\Community\VC\Tools\MSVC\14.28.29333\include\type_traits

; 1443 :     return static_cast<_Ty&&>(_Arg);

  00069	8b 45 e4	 mov	 eax, DWORD PTR $T4[ebp]
  0006c	89 45 e0	 mov	 DWORD PTR $T3[ebp], eax
; File C:\Program Files (x86)\Microsoft Visual Studio\2019\Community\VC\Tools\MSVC\14.28.29333\include\xmemory

; 701  :         ::new (const_cast<void*>(static_cast<const volatile void*>(_Ptr))) _Objty(_STD forward<_Types>(_Args)...);

  0006f	ff 75 e0	 push	 DWORD PTR $T3[ebp]
  00072	8b 4d dc	 mov	 ecx, DWORD PTR $T2[ebp]
  00075	e8 00 00 00 00	 call	 ??0?$basic_string@DU?$char_traits@D@std@@V?$allocator@D@2@@std@@QAE@$$QAV01@@Z ; std::basic_string<char,std::char_traits<char>,std::allocator<char> >::basic_string<char,std::char_traits<char>,std::allocator<char> >
; File C:\Program Files (x86)\Microsoft Visual Studio\2019\Community\VC\Tools\MSVC\14.28.29333\include\list

; 588  :     }

  0007a	83 4d fc ff	 or	 DWORD PTR __$EHRec$[ebp+8], -1
  0007e	8b 45 f0	 mov	 eax, DWORD PTR _this$[ebp]
  00081	8b 4d f4	 mov	 ecx, DWORD PTR __$EHRec$[ebp]
  00084	64 89 0d 00 00
	00 00		 mov	 DWORD PTR fs:0, ecx
  0008b	59		 pop	 ecx
  0008c	c9		 leave
  0008d	c2 08 00	 ret	 8
_TEXT	ENDS
;	COMDAT text$x
text$x	SEGMENT
__unwindfunclet$??$?0V?$basic_string@DU?$char_traits@D@std@@V?$allocator@D@2@@std@@@?$_List_node_emplace_op2@V?$allocator@U?$_List_node@V?$basic_string@DU?$char_traits@D@std@@V?$allocator@D@2@@std@@PAX@std@@@std@@@std@@QAE@AAV?$allocator@U?$_List_node@V?$basic_string@DU?$char_traits@D@std@@V?$allocator@D@2@@std@@PAX@std@@@1@$$QAV?$basic_string@DU?$char_traits@D@std@@V?$allocator@D@2@@1@@Z$0:
  00000	8b 4d f0	 mov	 ecx, DWORD PTR _this$[ebp]
  00003	e9 00 00 00 00	 jmp	 ??1?$_Alloc_construct_ptr@V?$allocator@U?$_List_node@V?$basic_string@DU?$char_traits@D@std@@V?$allocator@D@2@@std@@PAX@std@@@std@@@std@@QAE@XZ ; std::_Alloc_construct_ptr<std::allocator<std::_List_node<std::basic_string<char,std::char_traits<char>,std::allocator<char> >,void *> > >::~_Alloc_construct_ptr<std::allocator<std::_List_node<std::basic_string<char,std::char_traits<char>,std::allocator<char> >,void *> > >
  00008	cc		 int	 3
  00009	cc		 int	 3
  0000a	cc		 int	 3
  0000b	cc		 int	 3
  0000c	cc		 int	 3
__ehhandler$??$?0V?$basic_string@DU?$char_traits@D@std@@V?$allocator@D@2@@std@@@?$_List_node_emplace_op2@V?$allocator@U?$_List_node@V?$basic_string@DU?$char_traits@D@std@@V?$allocator@D@2@@std@@PAX@std@@@std@@@std@@QAE@AAV?$allocator@U?$_List_node@V?$basic_string@DU?$char_traits@D@std@@V?$allocator@D@2@@std@@PAX@std@@@1@$$QAV?$basic_string@DU?$char_traits@D@std@@V?$allocator@D@2@@1@@Z:
  0000d	90		 npad	 1
  0000e	90		 npad	 1
  0000f	8b 54 24 08	 mov	 edx, DWORD PTR [esp+8]
  00013	8d 42 0c	 lea	 eax, DWORD PTR [edx+12]
  00016	8b 4a e0	 mov	 ecx, DWORD PTR [edx-32]
  00019	33 c8		 xor	 ecx, eax
  0001b	e8 00 00 00 00	 call	 @__security_check_cookie@4
  00020	b8 00 00 00 00	 mov	 eax, OFFSET __ehfuncinfo$??$?0V?$basic_string@DU?$char_traits@D@std@@V?$allocator@D@2@@std@@@?$_List_node_emplace_op2@V?$allocator@U?$_List_node@V?$basic_string@DU?$char_traits@D@std@@V?$allocator@D@2@@std@@PAX@std@@@std@@@std@@QAE@AAV?$allocator@U?$_List_node@V?$basic_string@DU?$char_traits@D@std@@V?$allocator@D@2@@std@@PAX@std@@@1@$$QAV?$basic_string@DU?$char_traits@D@std@@V?$allocator@D@2@@1@@Z
  00025	e9 00 00 00 00	 jmp	 ___CxxFrameHandler3
text$x	ENDS
??$?0V?$basic_string@DU?$char_traits@D@std@@V?$allocator@D@2@@std@@@?$_List_node_emplace_op2@V?$allocator@U?$_List_node@V?$basic_string@DU?$char_traits@D@std@@V?$allocator@D@2@@std@@PAX@std@@@std@@@std@@QAE@AAV?$allocator@U?$_List_node@V?$basic_string@DU?$char_traits@D@std@@V?$allocator@D@2@@std@@PAX@std@@@1@$$QAV?$basic_string@DU?$char_traits@D@std@@V?$allocator@D@2@@1@@Z ENDP ; std::_List_node_emplace_op2<std::allocator<std::_List_node<std::basic_string<char,std::char_traits<char>,std::allocator<char> >,void *> > >::_List_node_emplace_op2<std::allocator<std::_List_node<std::basic_string<char,std::char_traits<char>,std::allocator<char> >,void *> > ><std::basic_string<char,std::char_traits<char>,std::allocator<char> > >
; Function compile flags: /Odspy
; File C:\Program Files (x86)\Microsoft Visual Studio\2019\Community\VC\Tools\MSVC\14.28.29333\include\list
;	COMDAT ?_Transfer_before@?$_List_node_emplace_op2@V?$allocator@U?$_List_node@V?$basic_string@DU?$char_traits@D@std@@V?$allocator@D@2@@std@@PAX@std@@@std@@@std@@QAEPAU?$_List_node@V?$basic_string@DU?$char_traits@D@std@@V?$allocator@D@2@@std@@PAX@2@QAU32@@Z
_TEXT	SEGMENT
__Insert_after$ = -12					; size = 4
__Result$ = -8						; size = 4
_this$ = -4						; size = 4
__Insert_before$ = 8					; size = 4
?_Transfer_before@?$_List_node_emplace_op2@V?$allocator@U?$_List_node@V?$basic_string@DU?$char_traits@D@std@@V?$allocator@D@2@@std@@PAX@std@@@std@@@std@@QAEPAU?$_List_node@V?$basic_string@DU?$char_traits@D@std@@V?$allocator@D@2@@std@@PAX@2@QAU32@@Z PROC ; std::_List_node_emplace_op2<std::allocator<std::_List_node<std::basic_string<char,std::char_traits<char>,std::allocator<char> >,void *> > >::_Transfer_before, COMDAT
; _this$ = ecx

; 599  :     pointer _Transfer_before(const pointer _Insert_before) noexcept {

  00000	55		 push	 ebp
  00001	8b ec		 mov	 ebp, esp
  00003	83 ec 0c	 sub	 esp, 12			; 0000000cH
  00006	89 4d fc	 mov	 DWORD PTR _this$[ebp], ecx

; 600  :         const pointer _Insert_after = _Insert_before->_Prev;

  00009	8b 45 08	 mov	 eax, DWORD PTR __Insert_before$[ebp]
  0000c	8b 40 04	 mov	 eax, DWORD PTR [eax+4]
  0000f	89 45 f4	 mov	 DWORD PTR __Insert_after$[ebp], eax

; 601  :         _Construct_in_place(this->_Ptr->_Next, _Insert_before);

  00012	8d 45 08	 lea	 eax, DWORD PTR __Insert_before$[ebp]
  00015	50		 push	 eax
  00016	8b 45 fc	 mov	 eax, DWORD PTR _this$[ebp]
  00019	ff 70 04	 push	 DWORD PTR [eax+4]
  0001c	e8 00 00 00 00	 call	 ??$_Construct_in_place@PAU?$_List_node@V?$basic_string@DU?$char_traits@D@std@@V?$allocator@D@2@@std@@PAX@std@@ABQAU12@@std@@YAXAAPAU?$_List_node@V?$basic_string@DU?$char_traits@D@std@@V?$allocator@D@2@@std@@PAX@0@ABQAU10@@Z ; std::_Construct_in_place<std::_List_node<std::basic_string<char,std::char_traits<char>,std::allocator<char> >,void *> *,std::_List_node<std::basic_string<char,std::char_traits<char>,std::allocator<char> >,void *> * const &>
  00021	59		 pop	 ecx
  00022	59		 pop	 ecx

; 602  :         _Construct_in_place(this->_Ptr->_Prev, _Insert_after);

  00023	8d 45 f4	 lea	 eax, DWORD PTR __Insert_after$[ebp]
  00026	50		 push	 eax
  00027	8b 45 fc	 mov	 eax, DWORD PTR _this$[ebp]
  0002a	8b 40 04	 mov	 eax, DWORD PTR [eax+4]
  0002d	83 c0 04	 add	 eax, 4
  00030	50		 push	 eax
  00031	e8 00 00 00 00	 call	 ??$_Construct_in_place@PAU?$_List_node@V?$basic_string@DU?$char_traits@D@std@@V?$allocator@D@2@@std@@PAX@std@@ABQAU12@@std@@YAXAAPAU?$_List_node@V?$basic_string@DU?$char_traits@D@std@@V?$allocator@D@2@@std@@PAX@0@ABQAU10@@Z ; std::_Construct_in_place<std::_List_node<std::basic_string<char,std::char_traits<char>,std::allocator<char> >,void *> *,std::_List_node<std::basic_string<char,std::char_traits<char>,std::allocator<char> >,void *> * const &>
  00036	59		 pop	 ecx
  00037	59		 pop	 ecx

; 603  :         const auto _Result    = this->_Ptr;

  00038	8b 45 fc	 mov	 eax, DWORD PTR _this$[ebp]
  0003b	8b 40 04	 mov	 eax, DWORD PTR [eax+4]
  0003e	89 45 f8	 mov	 DWORD PTR __Result$[ebp], eax

; 604  :         this->_Ptr            = pointer{};

  00041	8b 45 fc	 mov	 eax, DWORD PTR _this$[ebp]
  00044	83 60 04 00	 and	 DWORD PTR [eax+4], 0

; 605  :         _Insert_before->_Prev = _Result;

  00048	8b 45 08	 mov	 eax, DWORD PTR __Insert_before$[ebp]
  0004b	8b 4d f8	 mov	 ecx, DWORD PTR __Result$[ebp]
  0004e	89 48 04	 mov	 DWORD PTR [eax+4], ecx

; 606  :         _Insert_after->_Next  = _Result;

  00051	8b 45 f4	 mov	 eax, DWORD PTR __Insert_after$[ebp]
  00054	8b 4d f8	 mov	 ecx, DWORD PTR __Result$[ebp]
  00057	89 08		 mov	 DWORD PTR [eax], ecx

; 607  :         return _Result;

  00059	8b 45 f8	 mov	 eax, DWORD PTR __Result$[ebp]

; 608  :     }

  0005c	c9		 leave
  0005d	c2 04 00	 ret	 4
?_Transfer_before@?$_List_node_emplace_op2@V?$allocator@U?$_List_node@V?$basic_string@DU?$char_traits@D@std@@V?$allocator@D@2@@std@@PAX@std@@@std@@@std@@QAEPAU?$_List_node@V?$basic_string@DU?$char_traits@D@std@@V?$allocator@D@2@@std@@PAX@2@QAU32@@Z ENDP ; std::_List_node_emplace_op2<std::allocator<std::_List_node<std::basic_string<char,std::char_traits<char>,std::allocator<char> >,void *> > >::_Transfer_before
_TEXT	ENDS
; Function compile flags: /Odspy
; File C:\Program Files (x86)\Microsoft Visual Studio\2019\Community\VC\Tools\MSVC\14.28.29333\include\list
; File C:\Program Files (x86)\Microsoft Visual Studio\2019\Community\VC\Tools\MSVC\14.28.29333\include\xstddef
; File C:\Program Files (x86)\Microsoft Visual Studio\2019\Community\VC\Tools\MSVC\14.28.29333\include\list
; File C:\Program Files (x86)\Microsoft Visual Studio\2019\Community\VC\Tools\MSVC\14.28.29333\include\xstring
; File C:\Program Files (x86)\Microsoft Visual Studio\2019\Community\VC\Tools\MSVC\14.28.29333\include\list
;	COMDAT ??1?$_List_node_emplace_op2@V?$allocator@U?$_List_node@V?$basic_string@DU?$char_traits@D@std@@V?$allocator@D@2@@std@@PAX@std@@@std@@@std@@QAE@XZ
_TEXT	SEGMENT
___formal$ = -16					; size = 4
__Val$ = -12						; size = 4
$T1 = -8						; size = 4
_this$ = -4						; size = 4
??1?$_List_node_emplace_op2@V?$allocator@U?$_List_node@V?$basic_string@DU?$char_traits@D@std@@V?$allocator@D@2@@std@@PAX@std@@@std@@@std@@QAE@XZ PROC ; std::_List_node_emplace_op2<std::allocator<std::_List_node<std::basic_string<char,std::char_traits<char>,std::allocator<char> >,void *> > >::~_List_node_emplace_op2<std::allocator<std::_List_node<std::basic_string<char,std::char_traits<char>,std::allocator<char> >,void *> > >, COMDAT
; _this$ = ecx

; 590  :     ~_List_node_emplace_op2() {

  00000	55		 push	 ebp
  00001	8b ec		 mov	 ebp, esp
  00003	83 ec 10	 sub	 esp, 16			; 00000010H
  00006	89 4d fc	 mov	 DWORD PTR _this$[ebp], ecx

; 591  :         if (this->_Ptr != pointer{}) {

  00009	8b 45 fc	 mov	 eax, DWORD PTR _this$[ebp]
  0000c	83 78 04 00	 cmp	 DWORD PTR [eax+4], 0
  00010	74 35		 je	 SHORT $LN1@List_node_

; 592  :             _Alnode_traits::destroy(this->_Al, _STD addressof(this->_Ptr->_Myval));

  00012	8b 45 fc	 mov	 eax, DWORD PTR _this$[ebp]
  00015	8b 40 04	 mov	 eax, DWORD PTR [eax+4]
  00018	83 c0 08	 add	 eax, 8
  0001b	89 45 f4	 mov	 DWORD PTR __Val$[ebp], eax
; File C:\Program Files (x86)\Microsoft Visual Studio\2019\Community\VC\Tools\MSVC\14.28.29333\include\xstddef

; 275  :     return __builtin_addressof(_Val);

  0001e	8b 45 f4	 mov	 eax, DWORD PTR __Val$[ebp]
  00021	89 45 f8	 mov	 DWORD PTR $T1[ebp], eax
; File C:\Program Files (x86)\Microsoft Visual Studio\2019\Community\VC\Tools\MSVC\14.28.29333\include\list

; 592  :             _Alnode_traits::destroy(this->_Al, _STD addressof(this->_Ptr->_Myval));

  00024	8b 45 fc	 mov	 eax, DWORD PTR _this$[ebp]
  00027	8b 00		 mov	 eax, DWORD PTR [eax]
  00029	89 45 f0	 mov	 DWORD PTR ___formal$[ebp], eax
; File C:\Program Files (x86)\Microsoft Visual Studio\2019\Community\VC\Tools\MSVC\14.28.29333\include\xstring

; 2801 :         _Tidy_deallocate();

  0002c	8b 4d f8	 mov	 ecx, DWORD PTR $T1[ebp]
  0002f	e8 00 00 00 00	 call	 ?_Tidy_deallocate@?$basic_string@DU?$char_traits@D@std@@V?$allocator@D@2@@std@@AAEXXZ ; std::basic_string<char,std::char_traits<char>,std::allocator<char> >::_Tidy_deallocate
  00034	33 c0		 xor	 eax, eax
  00036	83 e0 01	 and	 eax, 1
  00039	74 0c		 je	 SHORT $LN1@List_node_
  0003b	6a 18		 push	 24			; 00000018H
  0003d	ff 75 f8	 push	 DWORD PTR $T1[ebp]
  00040	e8 00 00 00 00	 call	 ??3@YAXPAXI@Z		; operator delete
  00045	59		 pop	 ecx
  00046	59		 pop	 ecx
$LN1@List_node_:
; File C:\Program Files (x86)\Microsoft Visual Studio\2019\Community\VC\Tools\MSVC\14.28.29333\include\list

; 594  :     }

  00047	8b 4d fc	 mov	 ecx, DWORD PTR _this$[ebp]
  0004a	e8 00 00 00 00	 call	 ??1?$_Alloc_construct_ptr@V?$allocator@U?$_List_node@V?$basic_string@DU?$char_traits@D@std@@V?$allocator@D@2@@std@@PAX@std@@@std@@@std@@QAE@XZ ; std::_Alloc_construct_ptr<std::allocator<std::_List_node<std::basic_string<char,std::char_traits<char>,std::allocator<char> >,void *> > >::~_Alloc_construct_ptr<std::allocator<std::_List_node<std::basic_string<char,std::char_traits<char>,std::allocator<char> >,void *> > >
  0004f	c9		 leave
  00050	c3		 ret	 0
??1?$_List_node_emplace_op2@V?$allocator@U?$_List_node@V?$basic_string@DU?$char_traits@D@std@@V?$allocator@D@2@@std@@PAX@std@@@std@@@std@@QAE@XZ ENDP ; std::_List_node_emplace_op2<std::allocator<std::_List_node<std::basic_string<char,std::char_traits<char>,std::allocator<char> >,void *> > >::~_List_node_emplace_op2<std::allocator<std::_List_node<std::basic_string<char,std::char_traits<char>,std::allocator<char> >,void *> > >
_TEXT	ENDS
; Function compile flags: /Odspy
; File C:\Program Files (x86)\Microsoft Visual Studio\2019\Community\VC\Tools\MSVC\14.28.29333\include\xmemory
;	COMDAT ??1?$_Alloc_construct_ptr@V?$allocator@U?$_List_node@V?$basic_string@DU?$char_traits@D@std@@V?$allocator@D@2@@std@@PAX@std@@@std@@@std@@QAE@XZ
_TEXT	SEGMENT
_this$ = -12						; size = 4
__Ptr$ = -8						; size = 4
_this$ = -4						; size = 4
??1?$_Alloc_construct_ptr@V?$allocator@U?$_List_node@V?$basic_string@DU?$char_traits@D@std@@V?$allocator@D@2@@std@@PAX@std@@@std@@@std@@QAE@XZ PROC ; std::_Alloc_construct_ptr<std::allocator<std::_List_node<std::basic_string<char,std::char_traits<char>,std::allocator<char> >,void *> > >::~_Alloc_construct_ptr<std::allocator<std::_List_node<std::basic_string<char,std::char_traits<char>,std::allocator<char> >,void *> > >, COMDAT
; _this$ = ecx

; 1056 :     ~_Alloc_construct_ptr() { // if this instance is engaged, deallocate storage

  00000	55		 push	 ebp
  00001	8b ec		 mov	 ebp, esp
  00003	83 ec 0c	 sub	 esp, 12			; 0000000cH
  00006	89 4d fc	 mov	 DWORD PTR _this$[ebp], ecx

; 1057 :         if (_Ptr) {

  00009	8b 45 fc	 mov	 eax, DWORD PTR _this$[ebp]
  0000c	83 78 04 00	 cmp	 DWORD PTR [eax+4], 0
  00010	74 22		 je	 SHORT $LN3@Alloc_cons

; 1058 :             _Al.deallocate(_Ptr, 1);

  00012	8b 45 fc	 mov	 eax, DWORD PTR _this$[ebp]
  00015	8b 40 04	 mov	 eax, DWORD PTR [eax+4]
  00018	89 45 f8	 mov	 DWORD PTR __Ptr$[ebp], eax
  0001b	8b 45 fc	 mov	 eax, DWORD PTR _this$[ebp]
  0001e	8b 00		 mov	 eax, DWORD PTR [eax]
  00020	89 45 f4	 mov	 DWORD PTR _this$[ebp], eax

; 810  :         _Deallocate<_New_alignof<_Ty>>(_Ptr, sizeof(_Ty) * _Count);

  00023	33 c0		 xor	 eax, eax
  00025	40		 inc	 eax
  00026	c1 e0 05	 shl	 eax, 5
  00029	50		 push	 eax
  0002a	ff 75 f8	 push	 DWORD PTR __Ptr$[ebp]
  0002d	e8 00 00 00 00	 call	 ??$_Deallocate@$07$0A@@std@@YAXPAXI@Z ; std::_Deallocate<8,0>
  00032	59		 pop	 ecx
  00033	59		 pop	 ecx
$LN3@Alloc_cons:

; 1059 :         }
; 1060 :     }

  00034	c9		 leave
  00035	c3		 ret	 0
??1?$_Alloc_construct_ptr@V?$allocator@U?$_List_node@V?$basic_string@DU?$char_traits@D@std@@V?$allocator@D@2@@std@@PAX@std@@@std@@@std@@QAE@XZ ENDP ; std::_Alloc_construct_ptr<std::allocator<std::_List_node<std::basic_string<char,std::char_traits<char>,std::allocator<char> >,void *> > >::~_Alloc_construct_ptr<std::allocator<std::_List_node<std::basic_string<char,std::char_traits<char>,std::allocator<char> >,void *> > >
_TEXT	ENDS
; Function compile flags: /Odspy
; File C:\Program Files (x86)\Microsoft Visual Studio\2019\Community\VC\Tools\MSVC\14.28.29333\include\xmemory
;	COMDAT ?_Allocate@?$_Alloc_construct_ptr@V?$allocator@U?$_List_node@V?$basic_string@DU?$char_traits@D@std@@V?$allocator@D@2@@std@@PAX@std@@@std@@@std@@QAEXXZ
_TEXT	SEGMENT
__Max_possible$1 = -24					; size = 4
_this$ = -20						; size = 4
$T2 = -16						; size = 4
$T3 = -12						; size = 4
_this$ = -8						; size = 4
__Overflow_is_possible$4 = -1				; size = 1
?_Allocate@?$_Alloc_construct_ptr@V?$allocator@U?$_List_node@V?$basic_string@DU?$char_traits@D@std@@V?$allocator@D@2@@std@@PAX@std@@@std@@@std@@QAEXXZ PROC ; std::_Alloc_construct_ptr<std::allocator<std::_List_node<std::basic_string<char,std::char_traits<char>,std::allocator<char> >,void *> > >::_Allocate, COMDAT
; _this$ = ecx

; 1051 :     void _Allocate() { // disengage *this, then allocate a new memory block

  00000	55		 push	 ebp
  00001	8b ec		 mov	 ebp, esp
  00003	83 ec 18	 sub	 esp, 24			; 00000018H
  00006	89 4d f8	 mov	 DWORD PTR _this$[ebp], ecx

; 1052 :         _Ptr = nullptr; // if allocate throws, prevents double-free

  00009	8b 45 f8	 mov	 eax, DWORD PTR _this$[ebp]
  0000c	83 60 04 00	 and	 DWORD PTR [eax+4], 0

; 1053 :         _Ptr = _Al.allocate(1);

  00010	8b 45 f8	 mov	 eax, DWORD PTR _this$[ebp]
  00013	8b 00		 mov	 eax, DWORD PTR [eax]
  00015	89 45 ec	 mov	 DWORD PTR _this$[ebp], eax

; 56   :     constexpr bool _Overflow_is_possible = _Ty_size > 1;

  00018	c6 45 ff 01	 mov	 BYTE PTR __Overflow_is_possible$4[ebp], 1

; 57   : 
; 58   :     if _CONSTEXPR_IF (_Overflow_is_possible) {
; 59   :         constexpr size_t _Max_possible = static_cast<size_t>(-1) / _Ty_size;

  0001c	c7 45 e8 ff ff
	ff 07		 mov	 DWORD PTR __Max_possible$1[ebp], 134217727 ; 07ffffffH

; 60   :         if (_Count > _Max_possible) {

  00023	33 c0		 xor	 eax, eax
  00025	40		 inc	 eax
  00026	3d ff ff ff 07	 cmp	 eax, 134217727		; 07ffffffH
  0002b	76 05		 jbe	 SHORT $LN6@Allocate

; 61   :             _Throw_bad_array_new_length(); // multiply overflow

  0002d	e8 00 00 00 00	 call	 ?_Throw_bad_array_new_length@std@@YAXXZ ; std::_Throw_bad_array_new_length
$LN6@Allocate:

; 62   :         }
; 63   :     }
; 64   : 
; 65   :     return _Count * _Ty_size;

  00032	33 c0		 xor	 eax, eax
  00034	40		 inc	 eax
  00035	c1 e0 05	 shl	 eax, 5
  00038	89 45 f4	 mov	 DWORD PTR $T3[ebp], eax

; 814  :         return static_cast<_Ty*>(_Allocate<_New_alignof<_Ty>>(_Get_size_of_n<sizeof(_Ty)>(_Count)));

  0003b	ff 75 f4	 push	 DWORD PTR $T3[ebp]
  0003e	e8 00 00 00 00	 call	 ??$_Allocate@$07U_Default_allocate_traits@std@@$0A@@std@@YAPAXI@Z ; std::_Allocate<8,std::_Default_allocate_traits,0>
  00043	59		 pop	 ecx
  00044	89 45 f0	 mov	 DWORD PTR $T2[ebp], eax

; 1053 :         _Ptr = _Al.allocate(1);

  00047	8b 45 f8	 mov	 eax, DWORD PTR _this$[ebp]
  0004a	8b 4d f0	 mov	 ecx, DWORD PTR $T2[ebp]
  0004d	89 48 04	 mov	 DWORD PTR [eax+4], ecx
$LN9@Allocate:

; 1054 :     }

  00050	c9		 leave
  00051	c3		 ret	 0
?_Allocate@?$_Alloc_construct_ptr@V?$allocator@U?$_List_node@V?$basic_string@DU?$char_traits@D@std@@V?$allocator@D@2@@std@@PAX@std@@@std@@@std@@QAEXXZ ENDP ; std::_Alloc_construct_ptr<std::allocator<std::_List_node<std::basic_string<char,std::char_traits<char>,std::allocator<char> >,void *> > >::_Allocate
_TEXT	ENDS
; Function compile flags: /Odspy
; File C:\Program Files (x86)\Microsoft Visual Studio\2019\Community\VC\Tools\MSVC\14.28.29333\include\xmemory
;	COMDAT ??$_Destroy_range@V?$allocator@K@std@@@std@@YAXPAKQAKAAV?$allocator@K@0@@Z
_TEXT	SEGMENT
__First$ = 8						; size = 4
__Last$ = 12						; size = 4
__Al$ = 16						; size = 4
??$_Destroy_range@V?$allocator@K@std@@@std@@YAXPAKQAKAAV?$allocator@K@0@@Z PROC ; std::_Destroy_range<std::allocator<unsigned long> >, COMDAT

; 962  :     _Alloc_ptr_t<_Alloc> _First, const _Alloc_ptr_t<_Alloc> _Last, _Alloc& _Al) noexcept {

  00000	55		 push	 ebp
  00001	8b ec		 mov	 ebp, esp

; 963  :     // note that this is an optimization for debug mode codegen; in release mode the BE removes all of this
; 964  :     using _Ty = typename _Alloc::value_type;
; 965  :     if _CONSTEXPR_IF (!conjunction_v<is_trivially_destructible<_Ty>, _Uses_default_destroy<_Alloc, _Ty*>>) {
; 966  :         for (; _First != _Last; ++_First) {
; 967  :             allocator_traits<_Alloc>::destroy(_Al, _Unfancy(_First));
; 968  :         }
; 969  :     }
; 970  : }

  00003	5d		 pop	 ebp
  00004	c3		 ret	 0
??$_Destroy_range@V?$allocator@K@std@@@std@@YAXPAKQAKAAV?$allocator@K@0@@Z ENDP ; std::_Destroy_range<std::allocator<unsigned long> >
_TEXT	ENDS
; Function compile flags: /Odspy
; File C:\Program Files (x86)\Microsoft Visual Studio\2019\Community\VC\Tools\MSVC\14.28.29333\include\list
; File C:\Program Files (x86)\Microsoft Visual Studio\2019\Community\VC\Tools\MSVC\14.28.29333\include\xstddef
; File C:\Program Files (x86)\Microsoft Visual Studio\2019\Community\VC\Tools\MSVC\14.28.29333\include\xstring
; File C:\Program Files (x86)\Microsoft Visual Studio\2019\Community\VC\Tools\MSVC\14.28.29333\include\list
;	COMDAT ??$_Freenode@V?$allocator@U?$_List_node@V?$basic_string@DU?$char_traits@D@std@@V?$allocator@D@2@@std@@PAX@std@@@std@@@?$_List_node@V?$basic_string@DU?$char_traits@D@std@@V?$allocator@D@2@@std@@PAX@std@@SAXAAV?$allocator@U?$_List_node@V?$basic_string@DU?$char_traits@D@std@@V?$allocator@D@2@@std@@PAX@std@@@1@PAU01@@Z
_TEXT	SEGMENT
$T1 = -4						; size = 4
__Al$ = 8						; size = 4
__Ptr$ = 12						; size = 4
??$_Freenode@V?$allocator@U?$_List_node@V?$basic_string@DU?$char_traits@D@std@@V?$allocator@D@2@@std@@PAX@std@@@std@@@?$_List_node@V?$basic_string@DU?$char_traits@D@std@@V?$allocator@D@2@@std@@PAX@std@@SAXAAV?$allocator@U?$_List_node@V?$basic_string@DU?$char_traits@D@std@@V?$allocator@D@2@@std@@PAX@std@@@1@PAU01@@Z PROC ; std::_List_node<std::basic_string<char,std::char_traits<char>,std::allocator<char> >,void *>::_Freenode<std::allocator<std::_List_node<std::basic_string<char,std::char_traits<char>,std::allocator<char> >,void *> > >, COMDAT

; 316  :     static void _Freenode(_Alnode& _Al, _Nodeptr _Ptr) noexcept { // destroy all members in _Ptr and deallocate with _Al

  00000	55		 push	 ebp
  00001	8b ec		 mov	 ebp, esp
  00003	51		 push	 ecx

; 317  :         allocator_traits<_Alnode>::destroy(_Al, _STD addressof(_Ptr->_Myval));

  00004	8b 45 0c	 mov	 eax, DWORD PTR __Ptr$[ebp]
  00007	83 c0 08	 add	 eax, 8
; File C:\Program Files (x86)\Microsoft Visual Studio\2019\Community\VC\Tools\MSVC\14.28.29333\include\xstddef

; 275  :     return __builtin_addressof(_Val);

  0000a	89 45 fc	 mov	 DWORD PTR $T1[ebp], eax
; File C:\Program Files (x86)\Microsoft Visual Studio\2019\Community\VC\Tools\MSVC\14.28.29333\include\xstring

; 2801 :         _Tidy_deallocate();

  0000d	8b 4d fc	 mov	 ecx, DWORD PTR $T1[ebp]
  00010	e8 00 00 00 00	 call	 ?_Tidy_deallocate@?$basic_string@DU?$char_traits@D@std@@V?$allocator@D@2@@std@@AAEXXZ ; std::basic_string<char,std::char_traits<char>,std::allocator<char> >::_Tidy_deallocate
  00015	33 c0		 xor	 eax, eax
  00017	83 e0 01	 and	 eax, 1
  0001a	74 0c		 je	 SHORT $LN6@Freenode
  0001c	6a 18		 push	 24			; 00000018H
  0001e	ff 75 fc	 push	 DWORD PTR $T1[ebp]
  00021	e8 00 00 00 00	 call	 ??3@YAXPAXI@Z		; operator delete
  00026	59		 pop	 ecx
  00027	59		 pop	 ecx
$LN6@Freenode:
; File C:\Program Files (x86)\Microsoft Visual Studio\2019\Community\VC\Tools\MSVC\14.28.29333\include\list

; 318  :         _Freenode0(_Al, _Ptr);

  00028	ff 75 0c	 push	 DWORD PTR __Ptr$[ebp]
  0002b	ff 75 08	 push	 DWORD PTR __Al$[ebp]
  0002e	e8 00 00 00 00	 call	 ??$_Freenode0@V?$allocator@U?$_List_node@V?$basic_string@DU?$char_traits@D@std@@V?$allocator@D@2@@std@@PAX@std@@@std@@@?$_List_node@V?$basic_string@DU?$char_traits@D@std@@V?$allocator@D@2@@std@@PAX@std@@SAXAAV?$allocator@U?$_List_node@V?$basic_string@DU?$char_traits@D@std@@V?$allocator@D@2@@std@@PAX@std@@@1@PAU01@@Z ; std::_List_node<std::basic_string<char,std::char_traits<char>,std::allocator<char> >,void *>::_Freenode0<std::allocator<std::_List_node<std::basic_string<char,std::char_traits<char>,std::allocator<char> >,void *> > >
  00033	59		 pop	 ecx
  00034	59		 pop	 ecx

; 319  :     }

  00035	c9		 leave
  00036	c3		 ret	 0
??$_Freenode@V?$allocator@U?$_List_node@V?$basic_string@DU?$char_traits@D@std@@V?$allocator@D@2@@std@@PAX@std@@@std@@@?$_List_node@V?$basic_string@DU?$char_traits@D@std@@V?$allocator@D@2@@std@@PAX@std@@SAXAAV?$allocator@U?$_List_node@V?$basic_string@DU?$char_traits@D@std@@V?$allocator@D@2@@std@@PAX@std@@@1@PAU01@@Z ENDP ; std::_List_node<std::basic_string<char,std::char_traits<char>,std::allocator<char> >,void *>::_Freenode<std::allocator<std::_List_node<std::basic_string<char,std::char_traits<char>,std::allocator<char> >,void *> > >
_TEXT	ENDS
; Function compile flags: /Odspy
; File C:\Program Files (x86)\Microsoft Visual Studio\2019\Community\VC\Tools\MSVC\14.28.29333\include\list
; File C:\Program Files (x86)\Microsoft Visual Studio\2019\Community\VC\Tools\MSVC\14.28.29333\include\xmemory
; File C:\Program Files (x86)\Microsoft Visual Studio\2019\Community\VC\Tools\MSVC\14.28.29333\include\list
;	COMDAT ??$_Freenode0@V?$allocator@U?$_List_node@V?$basic_string@DU?$char_traits@D@std@@V?$allocator@D@2@@std@@PAX@std@@@std@@@?$_List_node@V?$basic_string@DU?$char_traits@D@std@@V?$allocator@D@2@@std@@PAX@std@@SAXAAV?$allocator@U?$_List_node@V?$basic_string@DU?$char_traits@D@std@@V?$allocator@D@2@@std@@PAX@std@@@1@PAU01@@Z
_TEXT	SEGMENT
__Al$ = 8						; size = 4
__Ptr$ = 12						; size = 4
??$_Freenode0@V?$allocator@U?$_List_node@V?$basic_string@DU?$char_traits@D@std@@V?$allocator@D@2@@std@@PAX@std@@@std@@@?$_List_node@V?$basic_string@DU?$char_traits@D@std@@V?$allocator@D@2@@std@@PAX@std@@SAXAAV?$allocator@U?$_List_node@V?$basic_string@DU?$char_traits@D@std@@V?$allocator@D@2@@std@@PAX@std@@@1@PAU01@@Z PROC ; std::_List_node<std::basic_string<char,std::char_traits<char>,std::allocator<char> >,void *>::_Freenode0<std::allocator<std::_List_node<std::basic_string<char,std::char_traits<char>,std::allocator<char> >,void *> > >, COMDAT

; 307  :     static void _Freenode0(_Alnode& _Al, _Nodeptr _Ptr) noexcept {

  00000	55		 push	 ebp
  00001	8b ec		 mov	 ebp, esp

; 308  :         // destroy pointer members in _Ptr and deallocate with _Al
; 309  :         static_assert(is_same_v<typename _Alnode::value_type, _List_node>, "Bad _Freenode0 call");
; 310  :         _Destroy_in_place(_Ptr->_Next);

  00003	ff 75 0c	 push	 DWORD PTR __Ptr$[ebp]
  00006	e8 00 00 00 00	 call	 ??$_Destroy_in_place@PAU?$_List_node@V?$basic_string@DU?$char_traits@D@std@@V?$allocator@D@2@@std@@PAX@std@@@std@@YAXAAPAU?$_List_node@V?$basic_string@DU?$char_traits@D@std@@V?$allocator@D@2@@std@@PAX@0@@Z ; std::_Destroy_in_place<std::_List_node<std::basic_string<char,std::char_traits<char>,std::allocator<char> >,void *> *>
  0000b	59		 pop	 ecx

; 311  :         _Destroy_in_place(_Ptr->_Prev);

  0000c	8b 45 0c	 mov	 eax, DWORD PTR __Ptr$[ebp]
  0000f	83 c0 04	 add	 eax, 4
  00012	50		 push	 eax
  00013	e8 00 00 00 00	 call	 ??$_Destroy_in_place@PAU?$_List_node@V?$basic_string@DU?$char_traits@D@std@@V?$allocator@D@2@@std@@PAX@std@@@std@@YAXAAPAU?$_List_node@V?$basic_string@DU?$char_traits@D@std@@V?$allocator@D@2@@std@@PAX@0@@Z ; std::_Destroy_in_place<std::_List_node<std::basic_string<char,std::char_traits<char>,std::allocator<char> >,void *> *>
  00018	59		 pop	 ecx
; File C:\Program Files (x86)\Microsoft Visual Studio\2019\Community\VC\Tools\MSVC\14.28.29333\include\xmemory

; 696  :         _Deallocate<_New_alignof<value_type>>(_Ptr, sizeof(value_type) * _Count);

  00019	33 c0		 xor	 eax, eax
  0001b	40		 inc	 eax
  0001c	c1 e0 05	 shl	 eax, 5
  0001f	50		 push	 eax
  00020	ff 75 0c	 push	 DWORD PTR __Ptr$[ebp]
  00023	e8 00 00 00 00	 call	 ??$_Deallocate@$07$0A@@std@@YAXPAXI@Z ; std::_Deallocate<8,0>
  00028	59		 pop	 ecx
  00029	59		 pop	 ecx
; File C:\Program Files (x86)\Microsoft Visual Studio\2019\Community\VC\Tools\MSVC\14.28.29333\include\list

; 313  :     }

  0002a	5d		 pop	 ebp
  0002b	c3		 ret	 0
??$_Freenode0@V?$allocator@U?$_List_node@V?$basic_string@DU?$char_traits@D@std@@V?$allocator@D@2@@std@@PAX@std@@@std@@@?$_List_node@V?$basic_string@DU?$char_traits@D@std@@V?$allocator@D@2@@std@@PAX@std@@SAXAAV?$allocator@U?$_List_node@V?$basic_string@DU?$char_traits@D@std@@V?$allocator@D@2@@std@@PAX@std@@@1@PAU01@@Z ENDP ; std::_List_node<std::basic_string<char,std::char_traits<char>,std::allocator<char> >,void *>::_Freenode0<std::allocator<std::_List_node<std::basic_string<char,std::char_traits<char>,std::allocator<char> >,void *> > >
_TEXT	ENDS
; Function compile flags: /Odspy
; File C:\Program Files (x86)\Microsoft Visual Studio\2019\Community\VC\Tools\MSVC\14.28.29333\include\list
;	COMDAT ??$_Free_non_head@V?$allocator@U?$_List_node@V?$basic_string@DU?$char_traits@D@std@@V?$allocator@D@2@@std@@PAX@std@@@std@@@?$_List_node@V?$basic_string@DU?$char_traits@D@std@@V?$allocator@D@2@@std@@PAX@std@@SAXAAV?$allocator@U?$_List_node@V?$basic_string@DU?$char_traits@D@std@@V?$allocator@D@2@@std@@PAX@std@@@1@PAU01@@Z
_TEXT	SEGMENT
__Pnext$1 = -8						; size = 4
__Pnode$ = -4						; size = 4
__Al$ = 8						; size = 4
__Head$ = 12						; size = 4
??$_Free_non_head@V?$allocator@U?$_List_node@V?$basic_string@DU?$char_traits@D@std@@V?$allocator@D@2@@std@@PAX@std@@@std@@@?$_List_node@V?$basic_string@DU?$char_traits@D@std@@V?$allocator@D@2@@std@@PAX@std@@SAXAAV?$allocator@U?$_List_node@V?$basic_string@DU?$char_traits@D@std@@V?$allocator@D@2@@std@@PAX@std@@@1@PAU01@@Z PROC ; std::_List_node<std::basic_string<char,std::char_traits<char>,std::allocator<char> >,void *>::_Free_non_head<std::allocator<std::_List_node<std::basic_string<char,std::char_traits<char>,std::allocator<char> >,void *> > >, COMDAT

; 323  :         _Alnode& _Al, _Nodeptr _Head) noexcept { // free a list starting at _First and terminated at nullptr

  00000	55		 push	 ebp
  00001	8b ec		 mov	 ebp, esp
  00003	51		 push	 ecx
  00004	51		 push	 ecx

; 324  :         _Head->_Prev->_Next = nullptr;

  00005	8b 45 0c	 mov	 eax, DWORD PTR __Head$[ebp]
  00008	8b 40 04	 mov	 eax, DWORD PTR [eax+4]
  0000b	83 20 00	 and	 DWORD PTR [eax], 0

; 325  : 
; 326  :         auto _Pnode = _Head->_Next;

  0000e	8b 45 0c	 mov	 eax, DWORD PTR __Head$[ebp]
  00011	8b 00		 mov	 eax, DWORD PTR [eax]
  00013	89 45 fc	 mov	 DWORD PTR __Pnode$[ebp], eax

; 327  :         for (_Nodeptr _Pnext; _Pnode; _Pnode = _Pnext) {

  00016	eb 06		 jmp	 SHORT $LN4@Free_non_h
$LN2@Free_non_h:
  00018	8b 45 f8	 mov	 eax, DWORD PTR __Pnext$1[ebp]
  0001b	89 45 fc	 mov	 DWORD PTR __Pnode$[ebp], eax
$LN4@Free_non_h:
  0001e	83 7d fc 00	 cmp	 DWORD PTR __Pnode$[ebp], 0
  00022	74 17		 je	 SHORT $LN5@Free_non_h

; 328  :             _Pnext = _Pnode->_Next;

  00024	8b 45 fc	 mov	 eax, DWORD PTR __Pnode$[ebp]
  00027	8b 00		 mov	 eax, DWORD PTR [eax]
  00029	89 45 f8	 mov	 DWORD PTR __Pnext$1[ebp], eax

; 329  :             _Freenode(_Al, _Pnode);

  0002c	ff 75 fc	 push	 DWORD PTR __Pnode$[ebp]
  0002f	ff 75 08	 push	 DWORD PTR __Al$[ebp]
  00032	e8 00 00 00 00	 call	 ??$_Freenode@V?$allocator@U?$_List_node@V?$basic_string@DU?$char_traits@D@std@@V?$allocator@D@2@@std@@PAX@std@@@std@@@?$_List_node@V?$basic_string@DU?$char_traits@D@std@@V?$allocator@D@2@@std@@PAX@std@@SAXAAV?$allocator@U?$_List_node@V?$basic_string@DU?$char_traits@D@std@@V?$allocator@D@2@@std@@PAX@std@@@1@PAU01@@Z ; std::_List_node<std::basic_string<char,std::char_traits<char>,std::allocator<char> >,void *>::_Freenode<std::allocator<std::_List_node<std::basic_string<char,std::char_traits<char>,std::allocator<char> >,void *> > >
  00037	59		 pop	 ecx
  00038	59		 pop	 ecx

; 330  :         }

  00039	eb dd		 jmp	 SHORT $LN2@Free_non_h
$LN5@Free_non_h:

; 331  :     }

  0003b	c9		 leave
  0003c	c3		 ret	 0
??$_Free_non_head@V?$allocator@U?$_List_node@V?$basic_string@DU?$char_traits@D@std@@V?$allocator@D@2@@std@@PAX@std@@@std@@@?$_List_node@V?$basic_string@DU?$char_traits@D@std@@V?$allocator@D@2@@std@@PAX@std@@SAXAAV?$allocator@U?$_List_node@V?$basic_string@DU?$char_traits@D@std@@V?$allocator@D@2@@std@@PAX@std@@@1@PAU01@@Z ENDP ; std::_List_node<std::basic_string<char,std::char_traits<char>,std::allocator<char> >,void *>::_Free_non_head<std::allocator<std::_List_node<std::basic_string<char,std::char_traits<char>,std::allocator<char> >,void *> > >
_TEXT	ENDS
; Function compile flags: /Odspy
; File C:\Program Files (x86)\Microsoft Visual Studio\2019\Community\VC\Tools\MSVC\14.28.29333\include\xmemory
; File C:\Program Files (x86)\Microsoft Visual Studio\2019\Community\VC\Tools\MSVC\14.28.29333\include\xstddef
; File C:\Program Files (x86)\Microsoft Visual Studio\2019\Community\VC\Tools\MSVC\14.28.29333\include\vcruntime_new.h
; File C:\Program Files (x86)\Microsoft Visual Studio\2019\Community\VC\Tools\MSVC\14.28.29333\include\type_traits
; File C:\Program Files (x86)\Microsoft Visual Studio\2019\Community\VC\Tools\MSVC\14.28.29333\include\xmemory
;	COMDAT ??$_Construct_in_place@PAU?$_List_node@V?$basic_string@DU?$char_traits@D@std@@V?$allocator@D@2@@std@@PAX@std@@AAPAU12@@std@@YAXAAPAU?$_List_node@V?$basic_string@DU?$char_traits@D@std@@V?$allocator@D@2@@std@@PAX@0@0@Z
_TEXT	SEGMENT
$T1 = -12						; size = 4
$T2 = -8						; size = 4
$T3 = -4						; size = 4
__Obj$ = 8						; size = 4
_<_Args_0>$ = 12					; size = 4
??$_Construct_in_place@PAU?$_List_node@V?$basic_string@DU?$char_traits@D@std@@V?$allocator@D@2@@std@@PAX@std@@AAPAU12@@std@@YAXAAPAU?$_List_node@V?$basic_string@DU?$char_traits@D@std@@V?$allocator@D@2@@std@@PAX@0@0@Z PROC ; std::_Construct_in_place<std::_List_node<std::basic_string<char,std::char_traits<char>,std::allocator<char> >,void *> *,std::_List_node<std::basic_string<char,std::char_traits<char>,std::allocator<char> >,void *> * &>, COMDAT

; 228  : void _Construct_in_place(_Ty& _Obj, _Types&&... _Args) noexcept(is_nothrow_constructible_v<_Ty, _Types...>) {

  00000	55		 push	 ebp
  00001	8b ec		 mov	 ebp, esp
  00003	83 ec 0c	 sub	 esp, 12			; 0000000cH
; File C:\Program Files (x86)\Microsoft Visual Studio\2019\Community\VC\Tools\MSVC\14.28.29333\include\xstddef

; 275  :     return __builtin_addressof(_Val);

  00006	8b 45 08	 mov	 eax, DWORD PTR __Obj$[ebp]
  00009	89 45 fc	 mov	 DWORD PTR $T3[ebp], eax
; File C:\Program Files (x86)\Microsoft Visual Studio\2019\Community\VC\Tools\MSVC\14.28.29333\include\vcruntime_new.h

; 169  :         return _Where;

  0000c	8b 45 fc	 mov	 eax, DWORD PTR $T3[ebp]
  0000f	89 45 f8	 mov	 DWORD PTR $T2[ebp], eax
; File C:\Program Files (x86)\Microsoft Visual Studio\2019\Community\VC\Tools\MSVC\14.28.29333\include\type_traits

; 1443 :     return static_cast<_Ty&&>(_Arg);

  00012	8b 45 0c	 mov	 eax, DWORD PTR _<_Args_0>$[ebp]
  00015	89 45 f4	 mov	 DWORD PTR $T1[ebp], eax
; File C:\Program Files (x86)\Microsoft Visual Studio\2019\Community\VC\Tools\MSVC\14.28.29333\include\xmemory

; 229  :     ::new (const_cast<void*>(static_cast<const volatile void*>(_STD addressof(_Obj))))

  00018	8b 45 f8	 mov	 eax, DWORD PTR $T2[ebp]
  0001b	8b 4d f4	 mov	 ecx, DWORD PTR $T1[ebp]
  0001e	8b 09		 mov	 ecx, DWORD PTR [ecx]
  00020	89 08		 mov	 DWORD PTR [eax], ecx

; 230  :         _Ty(_STD forward<_Types>(_Args)...);
; 231  : }

  00022	c9		 leave
  00023	c3		 ret	 0
??$_Construct_in_place@PAU?$_List_node@V?$basic_string@DU?$char_traits@D@std@@V?$allocator@D@2@@std@@PAX@std@@AAPAU12@@std@@YAXAAPAU?$_List_node@V?$basic_string@DU?$char_traits@D@std@@V?$allocator@D@2@@std@@PAX@0@0@Z ENDP ; std::_Construct_in_place<std::_List_node<std::basic_string<char,std::char_traits<char>,std::allocator<char> >,void *> *,std::_List_node<std::basic_string<char,std::char_traits<char>,std::allocator<char> >,void *> * &>
_TEXT	ENDS
; Function compile flags: /Odspy
; File C:\Program Files (x86)\Microsoft Visual Studio\2019\Community\VC\Tools\MSVC\14.28.29333\include\vector
; File C:\Program Files (x86)\Microsoft Visual Studio\2019\Community\VC\Tools\MSVC\14.28.29333\include\xmemory
; File C:\Program Files (x86)\Microsoft Visual Studio\2019\Community\VC\Tools\MSVC\14.28.29333\include\vector
; File C:\Program Files (x86)\Microsoft Visual Studio\2019\Community\VC\Tools\MSVC\14.28.29333\include\xmemory
; File C:\Program Files (x86)\Microsoft Visual Studio\2019\Community\VC\Tools\MSVC\14.28.29333\include\vector
; File C:\Program Files (x86)\Microsoft Visual Studio\2019\Community\VC\Tools\MSVC\14.28.29333\include\xmemory
; File C:\Program Files (x86)\Microsoft Visual Studio\2019\Community\VC\Tools\MSVC\14.28.29333\include\limits
; File C:\Program Files (x86)\Microsoft Visual Studio\2019\Community\VC\Tools\MSVC\14.28.29333\include\vector
; File C:\Program Files (x86)\Microsoft Visual Studio\2019\Community\VC\Tools\MSVC\14.28.29333\include\utility
; File C:\Program Files (x86)\Microsoft Visual Studio\2019\Community\VC\Tools\MSVC\14.28.29333\include\vector
; File C:\Program Files (x86)\Microsoft Visual Studio\2019\Community\VC\Tools\MSVC\14.28.29333\include\xmemory
; File C:\Program Files (x86)\Microsoft Visual Studio\2019\Community\VC\Tools\MSVC\14.28.29333\include\vector
; File C:\Program Files (x86)\Microsoft Visual Studio\2019\Community\VC\Tools\MSVC\14.28.29333\include\type_traits
; File C:\Program Files (x86)\Microsoft Visual Studio\2019\Community\VC\Tools\MSVC\14.28.29333\include\vector
; File C:\Program Files (x86)\Microsoft Visual Studio\2019\Community\VC\Tools\MSVC\14.28.29333\include\xstddef
; File C:\Program Files (x86)\Microsoft Visual Studio\2019\Community\VC\Tools\MSVC\14.28.29333\include\vcruntime_new.h
; File C:\Program Files (x86)\Microsoft Visual Studio\2019\Community\VC\Tools\MSVC\14.28.29333\include\type_traits
; File C:\Program Files (x86)\Microsoft Visual Studio\2019\Community\VC\Tools\MSVC\14.28.29333\include\xmemory
; File C:\Program Files (x86)\Microsoft Visual Studio\2019\Community\VC\Tools\MSVC\14.28.29333\include\vector
; File C:\Program Files (x86)\Microsoft Visual Studio\2019\Community\VC\Tools\MSVC\14.28.29333\include\xmemory
; File C:\Program Files (x86)\Microsoft Visual Studio\2019\Community\VC\Tools\MSVC\14.28.29333\include\vector
; File C:\Program Files (x86)\Microsoft Visual Studio\2019\Community\VC\Tools\MSVC\14.28.29333\include\xmemory
; File C:\Program Files (x86)\Microsoft Visual Studio\2019\Community\VC\Tools\MSVC\14.28.29333\include\vector
; File C:\Program Files (x86)\Microsoft Visual Studio\2019\Community\VC\Tools\MSVC\14.28.29333\include\xmemory
; File C:\Program Files (x86)\Microsoft Visual Studio\2019\Community\VC\Tools\MSVC\14.28.29333\include\vector
;	COMDAT ??$_Emplace_reallocate@ABK@?$vector@KV?$allocator@K@std@@@std@@QAEPAKQAKABK@Z
_TEXT	SEGMENT
__Max_possible$2 = -68					; size = 4
$T3 = -64						; size = 4
__Al$ = -60						; size = 4
__Last$ = -56						; size = 4
$T4 = -52						; size = 4
$T5 = -48						; size = 4
__First$ = -44						; size = 4
$T6 = -40						; size = 4
$T7 = -36						; size = 4
__First$ = -32						; size = 4
__Last$ = -28						; size = 4
$T8 = -24						; size = 4
$T9 = -20						; size = 4
__$EHRec$ = -16						; size = 16
$T10 = 0						; size = 4
$T11 = 4						; size = 4
$T12 = 8						; size = 4
$T13 = 12						; size = 4
$T14 = 16						; size = 4
$T15 = 20						; size = 4
$T16 = 24						; size = 4
$T17 = 28						; size = 4
$T18 = 32						; size = 4
$T19 = 36						; size = 4
$T20 = 40						; size = 4
__Newsize$ = 44						; size = 4
__Constructed_last$ = 48				; size = 4
__Oldsize$ = 52						; size = 4
tv172 = 56						; size = 4
$T21 = 60						; size = 4
$T22 = 64						; size = 4
__My_data$ = 68						; size = 4
__Constructed_first$ = 72				; size = 4
___formal$ = 76						; size = 1
__Overflow_is_possible$23 = 83				; size = 1
__Newcapacity$ = 84					; size = 4
__Mylast$ = 88						; size = 4
__Myfirst$ = 92						; size = 4
__Whereoff$ = 96					; size = 4
$T24 = 103						; size = 1
_this$ = 104						; size = 4
__Newvec$ = 108						; size = 4
__Whereptr$ = 120					; size = 4
_<_Val_0>$ = 124					; size = 4
??$_Emplace_reallocate@ABK@?$vector@KV?$allocator@K@std@@@std@@QAEPAKQAKABK@Z PROC ; std::vector<unsigned long,std::allocator<unsigned long> >::_Emplace_reallocate<unsigned long const &>, COMDAT
; _this$ = ecx

; 725  :     pointer _Emplace_reallocate(const pointer _Whereptr, _Valty&&... _Val) {

  00000	55		 push	 ebp
  00001	8d 6c 24 90	 lea	 ebp, DWORD PTR [esp-112]
  00005	83 ec 70	 sub	 esp, 112		; 00000070H
  00008	6a ff		 push	 -1
  0000a	68 00 00 00 00	 push	 __ehhandler$??$_Emplace_reallocate@ABK@?$vector@KV?$allocator@K@std@@@std@@QAEPAKQAKABK@Z
  0000f	64 a1 00 00 00
	00		 mov	 eax, DWORD PTR fs:0
  00015	50		 push	 eax
  00016	51		 push	 ecx
  00017	83 ec 34	 sub	 esp, 52			; 00000034H
  0001a	53		 push	 ebx
  0001b	56		 push	 esi
  0001c	57		 push	 edi
  0001d	a1 00 00 00 00	 mov	 eax, DWORD PTR ___security_cookie
  00022	33 c5		 xor	 eax, ebp
  00024	50		 push	 eax
  00025	8d 45 f4	 lea	 eax, DWORD PTR __$EHRec$[ebp+4]
  00028	64 a3 00 00 00
	00		 mov	 DWORD PTR fs:0, eax
  0002e	89 65 f0	 mov	 DWORD PTR __$EHRec$[ebp], esp
  00031	89 4d 68	 mov	 DWORD PTR _this$[ebp], ecx

; 1733 :         return _Mypair._Get_first();

  00034	8b 45 68	 mov	 eax, DWORD PTR _this$[ebp]
; File C:\Program Files (x86)\Microsoft Visual Studio\2019\Community\VC\Tools\MSVC\14.28.29333\include\xmemory

; 1347 :         return *this;

  00037	89 45 28	 mov	 DWORD PTR $T20[ebp], eax
; File C:\Program Files (x86)\Microsoft Visual Studio\2019\Community\VC\Tools\MSVC\14.28.29333\include\vector

; 1733 :         return _Mypair._Get_first();

  0003a	8b 45 28	 mov	 eax, DWORD PTR $T20[ebp]
  0003d	89 45 c4	 mov	 DWORD PTR __Al$[ebp], eax

; 726  :         // reallocate and insert by perfectly forwarding _Val at _Whereptr
; 727  :         _Alty& _Al        = _Getal();
; 728  :         auto& _My_data    = _Mypair._Myval2;

  00040	8b 45 68	 mov	 eax, DWORD PTR _this$[ebp]
  00043	89 45 44	 mov	 DWORD PTR __My_data$[ebp], eax

; 729  :         pointer& _Myfirst = _My_data._Myfirst;

  00046	8b 45 44	 mov	 eax, DWORD PTR __My_data$[ebp]
  00049	89 45 5c	 mov	 DWORD PTR __Myfirst$[ebp], eax

; 730  :         pointer& _Mylast  = _My_data._Mylast;

  0004c	8b 45 44	 mov	 eax, DWORD PTR __My_data$[ebp]
  0004f	83 c0 04	 add	 eax, 4
  00052	89 45 58	 mov	 DWORD PTR __Mylast$[ebp], eax

; 731  : 
; 732  :         _STL_INTERNAL_CHECK(_Mylast == _My_data._Myend); // check that we have no unused capacity
; 733  : 
; 734  :         const auto _Whereoff = static_cast<size_type>(_Whereptr - _Myfirst);

  00055	8b 45 5c	 mov	 eax, DWORD PTR __Myfirst$[ebp]
  00058	8b 4d 78	 mov	 ecx, DWORD PTR __Whereptr$[ebp]
  0005b	2b 08		 sub	 ecx, DWORD PTR [eax]
  0005d	c1 f9 02	 sar	 ecx, 2
  00060	89 4d 60	 mov	 DWORD PTR __Whereoff$[ebp], ecx

; 735  :         const auto _Oldsize  = static_cast<size_type>(_Mylast - _Myfirst);

  00063	8b 45 58	 mov	 eax, DWORD PTR __Mylast$[ebp]
  00066	8b 4d 5c	 mov	 ecx, DWORD PTR __Myfirst$[ebp]
  00069	8b 00		 mov	 eax, DWORD PTR [eax]
  0006b	2b 01		 sub	 eax, DWORD PTR [ecx]
  0006d	c1 f8 02	 sar	 eax, 2
  00070	89 45 34	 mov	 DWORD PTR __Oldsize$[ebp], eax

; 1737 :         return _Mypair._Get_first();

  00073	8b 45 68	 mov	 eax, DWORD PTR _this$[ebp]
; File C:\Program Files (x86)\Microsoft Visual Studio\2019\Community\VC\Tools\MSVC\14.28.29333\include\xmemory

; 1351 :         return *this;

  00076	89 45 24	 mov	 DWORD PTR $T19[ebp], eax
; File C:\Program Files (x86)\Microsoft Visual Studio\2019\Community\VC\Tools\MSVC\14.28.29333\include\vector

; 1737 :         return _Mypair._Get_first();

  00079	8b 45 24	 mov	 eax, DWORD PTR $T19[ebp]
  0007c	89 45 c0	 mov	 DWORD PTR $T3[ebp], eax
; File C:\Program Files (x86)\Microsoft Visual Studio\2019\Community\VC\Tools\MSVC\14.28.29333\include\xmemory

; 710  :         return static_cast<size_t>(-1) / sizeof(value_type);

  0007f	c7 45 40 ff ff
	ff 3f		 mov	 DWORD PTR $T22[ebp], 1073741823 ; 3fffffffH
; File C:\Program Files (x86)\Microsoft Visual Studio\2019\Community\VC\Tools\MSVC\14.28.29333\include\limits

; 557  :         return INT_MAX;

  00086	c7 45 20 ff ff
	ff 7f		 mov	 DWORD PTR $T18[ebp], 2147483647 ; 7fffffffH
; File C:\Program Files (x86)\Microsoft Visual Studio\2019\Community\VC\Tools\MSVC\14.28.29333\include\vector

; 1488 :         return (_STD min)(

  0008d	8b 45 20	 mov	 eax, DWORD PTR $T18[ebp]
  00090	89 45 3c	 mov	 DWORD PTR $T21[ebp], eax
; File C:\Program Files (x86)\Microsoft Visual Studio\2019\Community\VC\Tools\MSVC\14.28.29333\include\utility

; 68   :     return _Right < _Left ? _Right : _Left;

  00093	8b 45 40	 mov	 eax, DWORD PTR $T22[ebp]
  00096	3b 45 3c	 cmp	 eax, DWORD PTR $T21[ebp]
  00099	73 08		 jae	 SHORT $LN34@Emplace_re
  0009b	8d 45 40	 lea	 eax, DWORD PTR $T22[ebp]
  0009e	89 45 38	 mov	 DWORD PTR tv172[ebp], eax
  000a1	eb 06		 jmp	 SHORT $LN35@Emplace_re
$LN34@Emplace_re:
  000a3	8d 45 3c	 lea	 eax, DWORD PTR $T21[ebp]
  000a6	89 45 38	 mov	 DWORD PTR tv172[ebp], eax
$LN35@Emplace_re:
  000a9	8b 45 38	 mov	 eax, DWORD PTR tv172[ebp]
  000ac	89 45 1c	 mov	 DWORD PTR $T17[ebp], eax
  000af	8b 45 1c	 mov	 eax, DWORD PTR $T17[ebp]
  000b2	89 45 18	 mov	 DWORD PTR $T16[ebp], eax
; File C:\Program Files (x86)\Microsoft Visual Studio\2019\Community\VC\Tools\MSVC\14.28.29333\include\vector

; 1488 :         return (_STD min)(

  000b5	8b 45 18	 mov	 eax, DWORD PTR $T16[ebp]
  000b8	8b 00		 mov	 eax, DWORD PTR [eax]
  000ba	89 45 14	 mov	 DWORD PTR $T15[ebp], eax

; 736  : 
; 737  :         if (_Oldsize == max_size()) {

  000bd	8b 45 34	 mov	 eax, DWORD PTR __Oldsize$[ebp]
  000c0	3b 45 14	 cmp	 eax, DWORD PTR $T15[ebp]
  000c3	75 05		 jne	 SHORT $LN2@Emplace_re

; 738  :             _Xlength();

  000c5	e8 00 00 00 00	 call	 ?_Xlength@?$vector@KV?$allocator@K@std@@@std@@CAXXZ ; std::vector<unsigned long,std::allocator<unsigned long> >::_Xlength
$LN2@Emplace_re:

; 739  :         }
; 740  : 
; 741  :         const size_type _Newsize     = _Oldsize + 1;

  000ca	8b 45 34	 mov	 eax, DWORD PTR __Oldsize$[ebp]
  000cd	40		 inc	 eax
  000ce	89 45 2c	 mov	 DWORD PTR __Newsize$[ebp], eax

; 742  :         const size_type _Newcapacity = _Calculate_growth(_Newsize);

  000d1	ff 75 2c	 push	 DWORD PTR __Newsize$[ebp]
  000d4	8b 4d 68	 mov	 ecx, DWORD PTR _this$[ebp]
  000d7	e8 00 00 00 00	 call	 ?_Calculate_growth@?$vector@KV?$allocator@K@std@@@std@@ABEII@Z ; std::vector<unsigned long,std::allocator<unsigned long> >::_Calculate_growth
  000dc	89 45 54	 mov	 DWORD PTR __Newcapacity$[ebp], eax
; File C:\Program Files (x86)\Microsoft Visual Studio\2019\Community\VC\Tools\MSVC\14.28.29333\include\xmemory

; 56   :     constexpr bool _Overflow_is_possible = _Ty_size > 1;

  000df	c6 45 53 01	 mov	 BYTE PTR __Overflow_is_possible$23[ebp], 1

; 57   : 
; 58   :     if _CONSTEXPR_IF (_Overflow_is_possible) {
; 59   :         constexpr size_t _Max_possible = static_cast<size_t>(-1) / _Ty_size;

  000e3	c7 45 bc ff ff
	ff 3f		 mov	 DWORD PTR __Max_possible$2[ebp], 1073741823 ; 3fffffffH

; 60   :         if (_Count > _Max_possible) {

  000ea	81 7d 54 ff ff
	ff 3f		 cmp	 DWORD PTR __Newcapacity$[ebp], 1073741823 ; 3fffffffH
  000f1	76 05		 jbe	 SHORT $LN67@Emplace_re

; 61   :             _Throw_bad_array_new_length(); // multiply overflow

  000f3	e8 00 00 00 00	 call	 ?_Throw_bad_array_new_length@std@@YAXXZ ; std::_Throw_bad_array_new_length
$LN67@Emplace_re:

; 62   :         }
; 63   :     }
; 64   : 
; 65   :     return _Count * _Ty_size;

  000f8	8b 45 54	 mov	 eax, DWORD PTR __Newcapacity$[ebp]
  000fb	c1 e0 02	 shl	 eax, 2
  000fe	89 45 10	 mov	 DWORD PTR $T14[ebp], eax

; 814  :         return static_cast<_Ty*>(_Allocate<_New_alignof<_Ty>>(_Get_size_of_n<sizeof(_Ty)>(_Count)));

  00101	ff 75 10	 push	 DWORD PTR $T14[ebp]
  00104	e8 00 00 00 00	 call	 ??$_Allocate@$07U_Default_allocate_traits@std@@$0A@@std@@YAPAXI@Z ; std::_Allocate<8,std::_Default_allocate_traits,0>
  00109	59		 pop	 ecx
  0010a	89 45 6c	 mov	 DWORD PTR __Newvec$[ebp], eax
; File C:\Program Files (x86)\Microsoft Visual Studio\2019\Community\VC\Tools\MSVC\14.28.29333\include\vector

; 745  :         const pointer _Constructed_last = _Newvec + _Whereoff + 1;

  0010d	8b 45 60	 mov	 eax, DWORD PTR __Whereoff$[ebp]
  00110	8b 4d 6c	 mov	 ecx, DWORD PTR __Newvec$[ebp]
  00113	8d 44 81 04	 lea	 eax, DWORD PTR [ecx+eax*4+4]
  00117	89 45 30	 mov	 DWORD PTR __Constructed_last$[ebp], eax

; 746  :         pointer _Constructed_first      = _Constructed_last;

  0011a	8b 45 30	 mov	 eax, DWORD PTR __Constructed_last$[ebp]
  0011d	89 45 48	 mov	 DWORD PTR __Constructed_first$[ebp], eax

; 747  : 
; 748  :         _TRY_BEGIN

  00120	83 65 fc 00	 and	 DWORD PTR __$EHRec$[ebp+12], 0
; File C:\Program Files (x86)\Microsoft Visual Studio\2019\Community\VC\Tools\MSVC\14.28.29333\include\type_traits

; 1443 :     return static_cast<_Ty&&>(_Arg);

  00124	8b 45 7c	 mov	 eax, DWORD PTR _<_Val_0>$[ebp]
  00127	89 45 08	 mov	 DWORD PTR $T12[ebp], eax
; File C:\Program Files (x86)\Microsoft Visual Studio\2019\Community\VC\Tools\MSVC\14.28.29333\include\vector

; 749  :         _Alty_traits::construct(_Al, _Unfancy(_Newvec + _Whereoff), _STD forward<_Valty>(_Val)...);

  0012a	8b 45 60	 mov	 eax, DWORD PTR __Whereoff$[ebp]
  0012d	8b 4d 6c	 mov	 ecx, DWORD PTR __Newvec$[ebp]
  00130	8d 04 81	 lea	 eax, DWORD PTR [ecx+eax*4]
; File C:\Program Files (x86)\Microsoft Visual Studio\2019\Community\VC\Tools\MSVC\14.28.29333\include\xstddef

; 289  :     return _Ptr;

  00133	89 45 0c	 mov	 DWORD PTR $T13[ebp], eax
; File C:\Program Files (x86)\Microsoft Visual Studio\2019\Community\VC\Tools\MSVC\14.28.29333\include\vcruntime_new.h

; 169  :         return _Where;

  00136	8b 45 0c	 mov	 eax, DWORD PTR $T13[ebp]
  00139	89 45 04	 mov	 DWORD PTR $T11[ebp], eax
; File C:\Program Files (x86)\Microsoft Visual Studio\2019\Community\VC\Tools\MSVC\14.28.29333\include\type_traits

; 1443 :     return static_cast<_Ty&&>(_Arg);

  0013c	8b 45 08	 mov	 eax, DWORD PTR $T12[ebp]
  0013f	89 45 00	 mov	 DWORD PTR $T10[ebp], eax
; File C:\Program Files (x86)\Microsoft Visual Studio\2019\Community\VC\Tools\MSVC\14.28.29333\include\xmemory

; 701  :         ::new (const_cast<void*>(static_cast<const volatile void*>(_Ptr))) _Objty(_STD forward<_Types>(_Args)...);

  00142	8b 45 04	 mov	 eax, DWORD PTR $T11[ebp]
  00145	8b 4d 00	 mov	 ecx, DWORD PTR $T10[ebp]
  00148	8b 09		 mov	 ecx, DWORD PTR [ecx]
  0014a	89 08		 mov	 DWORD PTR [eax], ecx
; File C:\Program Files (x86)\Microsoft Visual Studio\2019\Community\VC\Tools\MSVC\14.28.29333\include\vector

; 750  :         _Constructed_first = _Newvec + _Whereoff;

  0014c	8b 45 60	 mov	 eax, DWORD PTR __Whereoff$[ebp]
  0014f	8b 4d 6c	 mov	 ecx, DWORD PTR __Newvec$[ebp]
  00152	8d 04 81	 lea	 eax, DWORD PTR [ecx+eax*4]
  00155	89 45 48	 mov	 DWORD PTR __Constructed_first$[ebp], eax

; 751  : 
; 752  :         if (_Whereptr == _Mylast) { // at back, provide strong guarantee

  00158	8b 45 58	 mov	 eax, DWORD PTR __Mylast$[ebp]
  0015b	8b 4d 78	 mov	 ecx, DWORD PTR __Whereptr$[ebp]
  0015e	3b 08		 cmp	 ecx, DWORD PTR [eax]
  00160	75 3d		 jne	 SHORT $LN4@Emplace_re

; 753  :             _Umove_if_noexcept(_Myfirst, _Mylast, _Newvec);

  00162	8b 45 58	 mov	 eax, DWORD PTR __Mylast$[ebp]
  00165	8b 00		 mov	 eax, DWORD PTR [eax]
  00167	89 45 e4	 mov	 DWORD PTR __Last$[ebp], eax
  0016a	8b 45 5c	 mov	 eax, DWORD PTR __Myfirst$[ebp]
  0016d	8b 00		 mov	 eax, DWORD PTR [eax]
  0016f	89 45 e0	 mov	 DWORD PTR __First$[ebp], eax

; 1607 :         _Umove_if_noexcept1(_First, _Last, _Dest,

  00172	33 c0		 xor	 eax, eax
  00174	88 45 67	 mov	 BYTE PTR $T24[ebp], al
  00177	8a 45 67	 mov	 al, BYTE PTR $T24[ebp]
  0017a	88 45 4c	 mov	 BYTE PTR ___formal$[ebp], al

; 1733 :         return _Mypair._Get_first();

  0017d	8b 45 68	 mov	 eax, DWORD PTR _this$[ebp]
; File C:\Program Files (x86)\Microsoft Visual Studio\2019\Community\VC\Tools\MSVC\14.28.29333\include\xmemory

; 1347 :         return *this;

  00180	89 45 ec	 mov	 DWORD PTR $T9[ebp], eax
; File C:\Program Files (x86)\Microsoft Visual Studio\2019\Community\VC\Tools\MSVC\14.28.29333\include\vector

; 1733 :         return _Mypair._Get_first();

  00183	8b 45 ec	 mov	 eax, DWORD PTR $T9[ebp]
  00186	89 45 e8	 mov	 DWORD PTR $T8[ebp], eax

; 1597 :         _Uninitialized_move(_First, _Last, _Dest, _Getal());

  00189	ff 75 e8	 push	 DWORD PTR $T8[ebp]
  0018c	ff 75 6c	 push	 DWORD PTR __Newvec$[ebp]
  0018f	ff 75 e4	 push	 DWORD PTR __Last$[ebp]
  00192	ff 75 e0	 push	 DWORD PTR __First$[ebp]
  00195	e8 00 00 00 00	 call	 ??$_Uninitialized_move@PAKV?$allocator@K@std@@@std@@YAPAKQAK0PAKAAV?$allocator@K@0@@Z ; std::_Uninitialized_move<unsigned long *,std::allocator<unsigned long> >
  0019a	83 c4 10	 add	 esp, 16			; 00000010H

; 754  :         } else { // provide basic guarantee

  0019d	eb 5e		 jmp	 SHORT $LN5@Emplace_re
$LN4@Emplace_re:

; 755  :             _Umove(_Myfirst, _Whereptr, _Newvec);

  0019f	8b 45 5c	 mov	 eax, DWORD PTR __Myfirst$[ebp]
  001a2	8b 00		 mov	 eax, DWORD PTR [eax]
  001a4	89 45 d4	 mov	 DWORD PTR __First$[ebp], eax

; 1733 :         return _Mypair._Get_first();

  001a7	8b 45 68	 mov	 eax, DWORD PTR _this$[ebp]
; File C:\Program Files (x86)\Microsoft Visual Studio\2019\Community\VC\Tools\MSVC\14.28.29333\include\xmemory

; 1347 :         return *this;

  001aa	89 45 dc	 mov	 DWORD PTR $T7[ebp], eax
; File C:\Program Files (x86)\Microsoft Visual Studio\2019\Community\VC\Tools\MSVC\14.28.29333\include\vector

; 1733 :         return _Mypair._Get_first();

  001ad	8b 45 dc	 mov	 eax, DWORD PTR $T7[ebp]
  001b0	89 45 d8	 mov	 DWORD PTR $T6[ebp], eax

; 1592 :         return _Uninitialized_move(_First, _Last, _Dest, _Getal());

  001b3	ff 75 d8	 push	 DWORD PTR $T6[ebp]
  001b6	ff 75 6c	 push	 DWORD PTR __Newvec$[ebp]
  001b9	ff 75 78	 push	 DWORD PTR __Whereptr$[ebp]
  001bc	ff 75 d4	 push	 DWORD PTR __First$[ebp]
  001bf	e8 00 00 00 00	 call	 ??$_Uninitialized_move@PAKV?$allocator@K@std@@@std@@YAPAKQAK0PAKAAV?$allocator@K@0@@Z ; std::_Uninitialized_move<unsigned long *,std::allocator<unsigned long> >
  001c4	83 c4 10	 add	 esp, 16			; 00000010H

; 756  :             _Constructed_first = _Newvec;

  001c7	8b 45 6c	 mov	 eax, DWORD PTR __Newvec$[ebp]
  001ca	89 45 48	 mov	 DWORD PTR __Constructed_first$[ebp], eax

; 757  :             _Umove(_Whereptr, _Mylast, _Newvec + _Whereoff + 1);

  001cd	8b 45 58	 mov	 eax, DWORD PTR __Mylast$[ebp]
  001d0	8b 00		 mov	 eax, DWORD PTR [eax]
  001d2	89 45 c8	 mov	 DWORD PTR __Last$[ebp], eax

; 1733 :         return _Mypair._Get_first();

  001d5	8b 45 68	 mov	 eax, DWORD PTR _this$[ebp]
; File C:\Program Files (x86)\Microsoft Visual Studio\2019\Community\VC\Tools\MSVC\14.28.29333\include\xmemory

; 1347 :         return *this;

  001d8	89 45 d0	 mov	 DWORD PTR $T5[ebp], eax
; File C:\Program Files (x86)\Microsoft Visual Studio\2019\Community\VC\Tools\MSVC\14.28.29333\include\vector

; 1733 :         return _Mypair._Get_first();

  001db	8b 45 d0	 mov	 eax, DWORD PTR $T5[ebp]
  001de	89 45 cc	 mov	 DWORD PTR $T4[ebp], eax

; 1592 :         return _Uninitialized_move(_First, _Last, _Dest, _Getal());

  001e1	ff 75 cc	 push	 DWORD PTR $T4[ebp]

; 757  :             _Umove(_Whereptr, _Mylast, _Newvec + _Whereoff + 1);

  001e4	8b 45 60	 mov	 eax, DWORD PTR __Whereoff$[ebp]
  001e7	8b 4d 6c	 mov	 ecx, DWORD PTR __Newvec$[ebp]
  001ea	8d 44 81 04	 lea	 eax, DWORD PTR [ecx+eax*4+4]

; 1592 :         return _Uninitialized_move(_First, _Last, _Dest, _Getal());

  001ee	50		 push	 eax
  001ef	ff 75 c8	 push	 DWORD PTR __Last$[ebp]
  001f2	ff 75 78	 push	 DWORD PTR __Whereptr$[ebp]
  001f5	e8 00 00 00 00	 call	 ??$_Uninitialized_move@PAKV?$allocator@K@std@@@std@@YAPAKQAK0PAKAAV?$allocator@K@0@@Z ; std::_Uninitialized_move<unsigned long *,std::allocator<unsigned long> >
  001fa	83 c4 10	 add	 esp, 16			; 00000010H
$LN5@Emplace_re:

; 757  :             _Umove(_Whereptr, _Mylast, _Newvec + _Whereoff + 1);

  001fd	eb 2b		 jmp	 SHORT $LN7@Emplace_re
__catch$??$_Emplace_reallocate@ABK@?$vector@KV?$allocator@K@std@@@std@@QAEPAKQAKABK@Z$0:

; 758  :         }
; 759  :         _CATCH_ALL
; 760  :         _Destroy(_Constructed_first, _Constructed_last);

  001ff	ff 75 30	 push	 DWORD PTR __Constructed_last$[ebp]
  00202	ff 75 48	 push	 DWORD PTR __Constructed_first$[ebp]
  00205	8b 4d 68	 mov	 ecx, DWORD PTR _this$[ebp]
  00208	e8 00 00 00 00	 call	 ?_Destroy@?$vector@KV?$allocator@K@std@@@std@@AAEXPAK0@Z ; std::vector<unsigned long,std::allocator<unsigned long> >::_Destroy

; 761  :         _Al.deallocate(_Newvec, _Newcapacity);

  0020d	ff 75 54	 push	 DWORD PTR __Newcapacity$[ebp]
  00210	ff 75 6c	 push	 DWORD PTR __Newvec$[ebp]
  00213	8b 4d c4	 mov	 ecx, DWORD PTR __Al$[ebp]
  00216	e8 00 00 00 00	 call	 ?deallocate@?$allocator@K@std@@QAEXQAKI@Z ; std::allocator<unsigned long>::deallocate

; 762  :         _RERAISE;

  0021b	6a 00		 push	 0
  0021d	6a 00		 push	 0
  0021f	e8 00 00 00 00	 call	 __CxxThrowException@8

; 763  :         _CATCH_END

  00224	b8 00 00 00 00	 mov	 eax, $LN10@Emplace_re
  00229	c3		 ret	 0
$LN7@Emplace_re:
  0022a	83 4d fc ff	 or	 DWORD PTR __$EHRec$[ebp+12], -1
  0022e	eb 04		 jmp	 SHORT __tryend$??$_Emplace_reallocate@ABK@?$vector@KV?$allocator@K@std@@@std@@QAEPAKQAKABK@Z$1
$LN10@Emplace_re:
; File C:\Program Files (x86)\Microsoft Visual Studio\2019\Community\VC\Tools\MSVC\14.28.29333\include\xmemory
  00230	83 4d fc ff	 or	 DWORD PTR __$EHRec$[ebp+12], -1
__tryend$??$_Emplace_reallocate@ABK@?$vector@KV?$allocator@K@std@@@std@@QAEPAKQAKABK@Z$1:
; File C:\Program Files (x86)\Microsoft Visual Studio\2019\Community\VC\Tools\MSVC\14.28.29333\include\vector

; 764  : 
; 765  :         _Change_array(_Newvec, _Newsize, _Newcapacity);

  00234	ff 75 54	 push	 DWORD PTR __Newcapacity$[ebp]
  00237	ff 75 2c	 push	 DWORD PTR __Newsize$[ebp]
  0023a	ff 75 6c	 push	 DWORD PTR __Newvec$[ebp]
  0023d	8b 4d 68	 mov	 ecx, DWORD PTR _this$[ebp]
  00240	e8 00 00 00 00	 call	 ?_Change_array@?$vector@KV?$allocator@K@std@@@std@@AAEXQAKII@Z ; std::vector<unsigned long,std::allocator<unsigned long> >::_Change_array

; 766  :         return _Newvec + _Whereoff;

  00245	8b 45 60	 mov	 eax, DWORD PTR __Whereoff$[ebp]
  00248	8b 4d 6c	 mov	 ecx, DWORD PTR __Newvec$[ebp]
  0024b	8d 04 81	 lea	 eax, DWORD PTR [ecx+eax*4]
$LN70@Emplace_re:

; 767  :     }

  0024e	8b 4d f4	 mov	 ecx, DWORD PTR __$EHRec$[ebp+4]
  00251	64 89 0d 00 00
	00 00		 mov	 DWORD PTR fs:0, ecx
  00258	59		 pop	 ecx
  00259	5f		 pop	 edi
  0025a	5e		 pop	 esi
  0025b	5b		 pop	 ebx
  0025c	83 c5 70	 add	 ebp, 112		; 00000070H
  0025f	c9		 leave
  00260	c2 08 00	 ret	 8
  00263	cc		 int	 3
  00264	cc		 int	 3
  00265	cc		 int	 3
  00266	cc		 int	 3
  00267	cc		 int	 3
_TEXT	ENDS
;	COMDAT text$x
text$x	SEGMENT
__ehhandler$??$_Emplace_reallocate@ABK@?$vector@KV?$allocator@K@std@@@std@@QAEPAKQAKABK@Z:
  00000	90		 npad	 1
  00001	90		 npad	 1
  00002	8b 54 24 08	 mov	 edx, DWORD PTR [esp+8]
  00006	8d 42 0c	 lea	 eax, DWORD PTR [edx+12]
  00009	8b 4a b8	 mov	 ecx, DWORD PTR [edx-72]
  0000c	33 c8		 xor	 ecx, eax
  0000e	e8 00 00 00 00	 call	 @__security_check_cookie@4
  00013	b8 00 00 00 00	 mov	 eax, OFFSET __ehfuncinfo$??$_Emplace_reallocate@ABK@?$vector@KV?$allocator@K@std@@@std@@QAEPAKQAKABK@Z
  00018	e9 00 00 00 00	 jmp	 ___CxxFrameHandler3
text$x	ENDS
??$_Emplace_reallocate@ABK@?$vector@KV?$allocator@K@std@@@std@@QAEPAKQAKABK@Z ENDP ; std::vector<unsigned long,std::allocator<unsigned long> >::_Emplace_reallocate<unsigned long const &>
; Function compile flags: /Odspy
; File C:\Program Files (x86)\Microsoft Visual Studio\2019\Community\VC\Tools\MSVC\14.28.29333\include\vector
; File C:\Program Files (x86)\Microsoft Visual Studio\2019\Community\VC\Tools\MSVC\14.28.29333\include\type_traits
; File C:\Program Files (x86)\Microsoft Visual Studio\2019\Community\VC\Tools\MSVC\14.28.29333\include\vector
; File C:\Program Files (x86)\Microsoft Visual Studio\2019\Community\VC\Tools\MSVC\14.28.29333\include\xstddef
; File C:\Program Files (x86)\Microsoft Visual Studio\2019\Community\VC\Tools\MSVC\14.28.29333\include\vector
; File C:\Program Files (x86)\Microsoft Visual Studio\2019\Community\VC\Tools\MSVC\14.28.29333\include\xmemory
; File C:\Program Files (x86)\Microsoft Visual Studio\2019\Community\VC\Tools\MSVC\14.28.29333\include\vector
; File C:\Program Files (x86)\Microsoft Visual Studio\2019\Community\VC\Tools\MSVC\14.28.29333\include\vcruntime_new.h
; File C:\Program Files (x86)\Microsoft Visual Studio\2019\Community\VC\Tools\MSVC\14.28.29333\include\type_traits
; File C:\Program Files (x86)\Microsoft Visual Studio\2019\Community\VC\Tools\MSVC\14.28.29333\include\xmemory
; File C:\Program Files (x86)\Microsoft Visual Studio\2019\Community\VC\Tools\MSVC\14.28.29333\include\vector
;	COMDAT ??$_Emplace_back_with_unused_capacity@ABK@?$vector@KV?$allocator@K@std@@@std@@AAEXABK@Z
_TEXT	SEGMENT
__Result$ = -44						; size = 4
$T1 = -40						; size = 4
$T2 = -36						; size = 4
$T3 = -32						; size = 4
$T4 = -28						; size = 4
$T5 = -24						; size = 4
$T6 = -20						; size = 4
__Ptr$ = -16						; size = 4
__My_data$ = -12					; size = 4
_this$ = -8						; size = 4
__Mylast$ = -4						; size = 4
_<_Val_0>$ = 8						; size = 4
??$_Emplace_back_with_unused_capacity@ABK@?$vector@KV?$allocator@K@std@@@std@@AAEXABK@Z PROC ; std::vector<unsigned long,std::allocator<unsigned long> >::_Emplace_back_with_unused_capacity<unsigned long const &>, COMDAT
; _this$ = ecx

; 682  :     decltype(auto) _Emplace_back_with_unused_capacity(_Valty&&... _Val) {

  00000	55		 push	 ebp
  00001	8b ec		 mov	 ebp, esp
  00003	83 ec 2c	 sub	 esp, 44			; 0000002cH
  00006	89 4d f8	 mov	 DWORD PTR _this$[ebp], ecx

; 683  :         // insert by perfectly forwarding into element at end, provide strong guarantee
; 684  :         auto& _My_data   = _Mypair._Myval2;

  00009	8b 45 f8	 mov	 eax, DWORD PTR _this$[ebp]
  0000c	89 45 f4	 mov	 DWORD PTR __My_data$[ebp], eax

; 685  :         pointer& _Mylast = _My_data._Mylast;

  0000f	8b 45 f4	 mov	 eax, DWORD PTR __My_data$[ebp]
  00012	83 c0 04	 add	 eax, 4
  00015	89 45 fc	 mov	 DWORD PTR __Mylast$[ebp], eax
; File C:\Program Files (x86)\Microsoft Visual Studio\2019\Community\VC\Tools\MSVC\14.28.29333\include\type_traits

; 1443 :     return static_cast<_Ty&&>(_Arg);

  00018	8b 45 08	 mov	 eax, DWORD PTR _<_Val_0>$[ebp]
  0001b	89 45 e4	 mov	 DWORD PTR $T4[ebp], eax
; File C:\Program Files (x86)\Microsoft Visual Studio\2019\Community\VC\Tools\MSVC\14.28.29333\include\vector

; 687  :         _Alty_traits::construct(_Getal(), _Unfancy(_Mylast), _STD forward<_Valty>(_Val)...);

  0001e	8b 45 fc	 mov	 eax, DWORD PTR __Mylast$[ebp]
  00021	8b 00		 mov	 eax, DWORD PTR [eax]
  00023	89 45 f0	 mov	 DWORD PTR __Ptr$[ebp], eax
; File C:\Program Files (x86)\Microsoft Visual Studio\2019\Community\VC\Tools\MSVC\14.28.29333\include\xstddef

; 289  :     return _Ptr;

  00026	8b 45 f0	 mov	 eax, DWORD PTR __Ptr$[ebp]
  00029	89 45 e8	 mov	 DWORD PTR $T5[ebp], eax
; File C:\Program Files (x86)\Microsoft Visual Studio\2019\Community\VC\Tools\MSVC\14.28.29333\include\vector

; 1733 :         return _Mypair._Get_first();

  0002c	8b 45 f8	 mov	 eax, DWORD PTR _this$[ebp]
; File C:\Program Files (x86)\Microsoft Visual Studio\2019\Community\VC\Tools\MSVC\14.28.29333\include\xmemory

; 1347 :         return *this;

  0002f	89 45 ec	 mov	 DWORD PTR $T6[ebp], eax
; File C:\Program Files (x86)\Microsoft Visual Studio\2019\Community\VC\Tools\MSVC\14.28.29333\include\vector

; 1733 :         return _Mypair._Get_first();

  00032	8b 45 ec	 mov	 eax, DWORD PTR $T6[ebp]
  00035	89 45 d8	 mov	 DWORD PTR $T1[ebp], eax
; File C:\Program Files (x86)\Microsoft Visual Studio\2019\Community\VC\Tools\MSVC\14.28.29333\include\vcruntime_new.h

; 169  :         return _Where;

  00038	8b 45 e8	 mov	 eax, DWORD PTR $T5[ebp]
  0003b	89 45 e0	 mov	 DWORD PTR $T3[ebp], eax
; File C:\Program Files (x86)\Microsoft Visual Studio\2019\Community\VC\Tools\MSVC\14.28.29333\include\type_traits

; 1443 :     return static_cast<_Ty&&>(_Arg);

  0003e	8b 45 e4	 mov	 eax, DWORD PTR $T4[ebp]
  00041	89 45 dc	 mov	 DWORD PTR $T2[ebp], eax
; File C:\Program Files (x86)\Microsoft Visual Studio\2019\Community\VC\Tools\MSVC\14.28.29333\include\xmemory

; 701  :         ::new (const_cast<void*>(static_cast<const volatile void*>(_Ptr))) _Objty(_STD forward<_Types>(_Args)...);

  00044	8b 45 e0	 mov	 eax, DWORD PTR $T3[ebp]
  00047	8b 4d dc	 mov	 ecx, DWORD PTR $T2[ebp]
  0004a	8b 09		 mov	 ecx, DWORD PTR [ecx]
  0004c	89 08		 mov	 DWORD PTR [eax], ecx
; File C:\Program Files (x86)\Microsoft Visual Studio\2019\Community\VC\Tools\MSVC\14.28.29333\include\vector

; 689  :         _Ty& _Result = *_Mylast;

  0004e	8b 45 fc	 mov	 eax, DWORD PTR __Mylast$[ebp]
  00051	8b 00		 mov	 eax, DWORD PTR [eax]
  00053	89 45 d4	 mov	 DWORD PTR __Result$[ebp], eax

; 690  :         ++_Mylast;

  00056	8b 45 fc	 mov	 eax, DWORD PTR __Mylast$[ebp]
  00059	8b 00		 mov	 eax, DWORD PTR [eax]
  0005b	83 c0 04	 add	 eax, 4
  0005e	8b 4d fc	 mov	 ecx, DWORD PTR __Mylast$[ebp]
  00061	89 01		 mov	 DWORD PTR [ecx], eax

; 691  : #if _HAS_CXX17
; 692  :         return _Result;
; 693  : #else // ^^^ _HAS_CXX17 ^^^ // vvv !_HAS_CXX17 vvv
; 694  :         (void) _Result;
; 695  : #endif // _HAS_CXX17
; 696  :     }

  00063	c9		 leave
  00064	c2 04 00	 ret	 4
??$_Emplace_back_with_unused_capacity@ABK@?$vector@KV?$allocator@K@std@@@std@@AAEXABK@Z ENDP ; std::vector<unsigned long,std::allocator<unsigned long> >::_Emplace_back_with_unused_capacity<unsigned long const &>
_TEXT	ENDS
; Function compile flags: /Odspy
; File C:\Program Files (x86)\Microsoft Visual Studio\2019\Community\VC\Tools\MSVC\14.28.29333\include\vector
; File C:\Program Files (x86)\Microsoft Visual Studio\2019\Community\VC\Tools\MSVC\14.28.29333\include\type_traits
; File C:\Program Files (x86)\Microsoft Visual Studio\2019\Community\VC\Tools\MSVC\14.28.29333\include\vector
; File C:\Program Files (x86)\Microsoft Visual Studio\2019\Community\VC\Tools\MSVC\14.28.29333\include\type_traits
; File C:\Program Files (x86)\Microsoft Visual Studio\2019\Community\VC\Tools\MSVC\14.28.29333\include\vector
;	COMDAT ??$emplace_back@ABK@?$vector@KV?$allocator@K@std@@@std@@QAEXABK@Z
_TEXT	SEGMENT
__Result$ = -24						; size = 4
$T1 = -20						; size = 4
$T2 = -16						; size = 4
__Mylast$ = -12						; size = 4
__My_data$ = -8						; size = 4
_this$ = -4						; size = 4
_<_Val_0>$ = 8						; size = 4
??$emplace_back@ABK@?$vector@KV?$allocator@K@std@@@std@@QAEXABK@Z PROC ; std::vector<unsigned long,std::allocator<unsigned long> >::emplace_back<unsigned long const &>, COMDAT
; _this$ = ecx

; 700  :     decltype(auto) emplace_back(_Valty&&... _Val) {

  00000	55		 push	 ebp
  00001	8b ec		 mov	 ebp, esp
  00003	83 ec 18	 sub	 esp, 24			; 00000018H
  00006	89 4d fc	 mov	 DWORD PTR _this$[ebp], ecx

; 701  :         // insert by perfectly forwarding into element at end, provide strong guarantee
; 702  :         auto& _My_data   = _Mypair._Myval2;

  00009	8b 45 fc	 mov	 eax, DWORD PTR _this$[ebp]
  0000c	89 45 f8	 mov	 DWORD PTR __My_data$[ebp], eax

; 703  :         pointer& _Mylast = _My_data._Mylast;

  0000f	8b 45 f8	 mov	 eax, DWORD PTR __My_data$[ebp]
  00012	83 c0 04	 add	 eax, 4
  00015	89 45 f4	 mov	 DWORD PTR __Mylast$[ebp], eax

; 704  :         if (_Mylast != _My_data._Myend) {

  00018	8b 45 f4	 mov	 eax, DWORD PTR __Mylast$[ebp]
  0001b	8b 4d f8	 mov	 ecx, DWORD PTR __My_data$[ebp]
  0001e	8b 00		 mov	 eax, DWORD PTR [eax]
  00020	3b 41 08	 cmp	 eax, DWORD PTR [ecx+8]
  00023	74 13		 je	 SHORT $LN2@emplace_ba
; File C:\Program Files (x86)\Microsoft Visual Studio\2019\Community\VC\Tools\MSVC\14.28.29333\include\type_traits

; 1443 :     return static_cast<_Ty&&>(_Arg);

  00025	8b 45 08	 mov	 eax, DWORD PTR _<_Val_0>$[ebp]
  00028	89 45 f0	 mov	 DWORD PTR $T2[ebp], eax
; File C:\Program Files (x86)\Microsoft Visual Studio\2019\Community\VC\Tools\MSVC\14.28.29333\include\vector

; 705  :             return _Emplace_back_with_unused_capacity(_STD forward<_Valty>(_Val)...);

  0002b	ff 75 f0	 push	 DWORD PTR $T2[ebp]
  0002e	8b 4d fc	 mov	 ecx, DWORD PTR _this$[ebp]
  00031	e8 00 00 00 00	 call	 ??$_Emplace_back_with_unused_capacity@ABK@?$vector@KV?$allocator@K@std@@@std@@AAEXABK@Z ; std::vector<unsigned long,std::allocator<unsigned long> >::_Emplace_back_with_unused_capacity<unsigned long const &>
  00036	eb 19		 jmp	 SHORT $LN1@emplace_ba
$LN2@emplace_ba:
; File C:\Program Files (x86)\Microsoft Visual Studio\2019\Community\VC\Tools\MSVC\14.28.29333\include\type_traits

; 1443 :     return static_cast<_Ty&&>(_Arg);

  00038	8b 45 08	 mov	 eax, DWORD PTR _<_Val_0>$[ebp]
  0003b	89 45 ec	 mov	 DWORD PTR $T1[ebp], eax
; File C:\Program Files (x86)\Microsoft Visual Studio\2019\Community\VC\Tools\MSVC\14.28.29333\include\vector

; 708  :         _Ty& _Result = *_Emplace_reallocate(_Mylast, _STD forward<_Valty>(_Val)...);

  0003e	ff 75 ec	 push	 DWORD PTR $T1[ebp]
  00041	8b 45 f4	 mov	 eax, DWORD PTR __Mylast$[ebp]
  00044	ff 30		 push	 DWORD PTR [eax]
  00046	8b 4d fc	 mov	 ecx, DWORD PTR _this$[ebp]
  00049	e8 00 00 00 00	 call	 ??$_Emplace_reallocate@ABK@?$vector@KV?$allocator@K@std@@@std@@QAEPAKQAKABK@Z ; std::vector<unsigned long,std::allocator<unsigned long> >::_Emplace_reallocate<unsigned long const &>
  0004e	89 45 e8	 mov	 DWORD PTR __Result$[ebp], eax
$LN1@emplace_ba:

; 709  : #if _HAS_CXX17
; 710  :         return _Result;
; 711  : #else // ^^^ _HAS_CXX17 ^^^ // vvv !_HAS_CXX17 vvv
; 712  :         (void) _Result;
; 713  : #endif // _HAS_CXX17
; 714  :     }

  00051	c9		 leave
  00052	c2 04 00	 ret	 4
??$emplace_back@ABK@?$vector@KV?$allocator@K@std@@@std@@QAEXABK@Z ENDP ; std::vector<unsigned long,std::allocator<unsigned long> >::emplace_back<unsigned long const &>
_TEXT	ENDS
; Function compile flags: /Odspy
; File C:\Program Files (x86)\Microsoft Visual Studio\2019\Community\VC\Tools\MSVC\14.28.29333\include\list
; File C:\Program Files (x86)\Microsoft Visual Studio\2019\Community\VC\Tools\MSVC\14.28.29333\include\xmemory
; File C:\Program Files (x86)\Microsoft Visual Studio\2019\Community\VC\Tools\MSVC\14.28.29333\include\list
; File C:\Program Files (x86)\Microsoft Visual Studio\2019\Community\VC\Tools\MSVC\14.28.29333\include\xmemory
; File C:\Program Files (x86)\Microsoft Visual Studio\2019\Community\VC\Tools\MSVC\14.28.29333\include\limits
; File C:\Program Files (x86)\Microsoft Visual Studio\2019\Community\VC\Tools\MSVC\14.28.29333\include\list
; File C:\Program Files (x86)\Microsoft Visual Studio\2019\Community\VC\Tools\MSVC\14.28.29333\include\utility
; File C:\Program Files (x86)\Microsoft Visual Studio\2019\Community\VC\Tools\MSVC\14.28.29333\include\list
; File C:\Program Files (x86)\Microsoft Visual Studio\2019\Community\VC\Tools\MSVC\14.28.29333\include\xmemory
; File C:\Program Files (x86)\Microsoft Visual Studio\2019\Community\VC\Tools\MSVC\14.28.29333\include\list
; File C:\Program Files (x86)\Microsoft Visual Studio\2019\Community\VC\Tools\MSVC\14.28.29333\include\type_traits
; File C:\Program Files (x86)\Microsoft Visual Studio\2019\Community\VC\Tools\MSVC\14.28.29333\include\list
;	COMDAT ??$_Emplace@V?$basic_string@DU?$char_traits@D@std@@V?$allocator@D@2@@std@@@?$list@V?$basic_string@DU?$char_traits@D@std@@V?$allocator@D@2@@std@@V?$allocator@V?$basic_string@DU?$char_traits@D@std@@V?$allocator@D@2@@std@@@2@@std@@QAEPAU?$_List_node@V?$basic_string@DU?$char_traits@D@std@@V?$allocator@D@2@@std@@PAX@1@QAU21@$$QAV?$basic_string@DU?$char_traits@D@std@@V?$allocator@D@2@@1@@Z
_TEXT	SEGMENT
__Op$ = -76						; size = 8
$T1 = -68						; size = 4
$T2 = -64						; size = 4
$T3 = -60						; size = 4
$T4 = -56						; size = 4
$T5 = -52						; size = 4
$T6 = -48						; size = 4
$T7 = -44						; size = 4
$T8 = -40						; size = 4
$T9 = -36						; size = 4
$T10 = -32						; size = 4
tv80 = -28						; size = 4
tv82 = -24						; size = 4
tv94 = -20						; size = 4
$T11 = -16						; size = 4
$T12 = -12						; size = 4
__Mysize$ = -8						; size = 4
_this$ = -4						; size = 4
__Where$ = 8						; size = 4
_<_Val_0>$ = 12						; size = 4
??$_Emplace@V?$basic_string@DU?$char_traits@D@std@@V?$allocator@D@2@@std@@@?$list@V?$basic_string@DU?$char_traits@D@std@@V?$allocator@D@2@@std@@V?$allocator@V?$basic_string@DU?$char_traits@D@std@@V?$allocator@D@2@@std@@@2@@std@@QAEPAU?$_List_node@V?$basic_string@DU?$char_traits@D@std@@V?$allocator@D@2@@std@@PAX@1@QAU21@$$QAV?$basic_string@DU?$char_traits@D@std@@V?$allocator@D@2@@1@@Z PROC ; std::list<std::basic_string<char,std::char_traits<char>,std::allocator<char> >,std::allocator<std::basic_string<char,std::char_traits<char>,std::allocator<char> > > >::_Emplace<std::basic_string<char,std::char_traits<char>,std::allocator<char> > >, COMDAT
; _this$ = ecx

; 1012 :     _Nodeptr _Emplace(const _Nodeptr _Where, _Valty&&... _Val) { // insert element at _Where

  00000	55		 push	 ebp
  00001	8b ec		 mov	 ebp, esp
  00003	83 ec 4c	 sub	 esp, 76			; 0000004cH
  00006	89 4d fc	 mov	 DWORD PTR _this$[ebp], ecx

; 1013 :         size_type& _Mysize = _Mypair._Myval2._Mysize;

  00009	8b 45 fc	 mov	 eax, DWORD PTR _this$[ebp]
  0000c	83 c0 04	 add	 eax, 4
  0000f	89 45 f8	 mov	 DWORD PTR __Mysize$[ebp], eax

; 1791 :         return _Mypair._Get_first();

  00012	8b 45 fc	 mov	 eax, DWORD PTR _this$[ebp]
; File C:\Program Files (x86)\Microsoft Visual Studio\2019\Community\VC\Tools\MSVC\14.28.29333\include\xmemory

; 1351 :         return *this;

  00015	89 45 e0	 mov	 DWORD PTR $T10[ebp], eax
; File C:\Program Files (x86)\Microsoft Visual Studio\2019\Community\VC\Tools\MSVC\14.28.29333\include\list

; 1791 :         return _Mypair._Get_first();

  00018	8b 45 e0	 mov	 eax, DWORD PTR $T10[ebp]
  0001b	89 45 c4	 mov	 DWORD PTR $T3[ebp], eax
; File C:\Program Files (x86)\Microsoft Visual Studio\2019\Community\VC\Tools\MSVC\14.28.29333\include\xmemory

; 710  :         return static_cast<size_t>(-1) / sizeof(value_type);

  0001e	c7 45 f4 ff ff
	ff 07		 mov	 DWORD PTR $T12[ebp], 134217727 ; 07ffffffH
; File C:\Program Files (x86)\Microsoft Visual Studio\2019\Community\VC\Tools\MSVC\14.28.29333\include\limits

; 557  :         return INT_MAX;

  00025	c7 45 dc ff ff
	ff 7f		 mov	 DWORD PTR $T9[ebp], 2147483647 ; 7fffffffH
; File C:\Program Files (x86)\Microsoft Visual Studio\2019\Community\VC\Tools\MSVC\14.28.29333\include\list

; 1195 :         return (_STD min)(

  0002c	8b 45 dc	 mov	 eax, DWORD PTR $T9[ebp]
  0002f	89 45 f0	 mov	 DWORD PTR $T11[ebp], eax
; File C:\Program Files (x86)\Microsoft Visual Studio\2019\Community\VC\Tools\MSVC\14.28.29333\include\utility

; 68   :     return _Right < _Left ? _Right : _Left;

  00032	8b 45 f4	 mov	 eax, DWORD PTR $T12[ebp]
  00035	3b 45 f0	 cmp	 eax, DWORD PTR $T11[ebp]
  00038	73 08		 jae	 SHORT $LN22@Emplace
  0003a	8d 45 f4	 lea	 eax, DWORD PTR $T12[ebp]
  0003d	89 45 ec	 mov	 DWORD PTR tv94[ebp], eax
  00040	eb 06		 jmp	 SHORT $LN23@Emplace
$LN22@Emplace:
  00042	8d 45 f0	 lea	 eax, DWORD PTR $T11[ebp]
  00045	89 45 ec	 mov	 DWORD PTR tv94[ebp], eax
$LN23@Emplace:
  00048	8b 45 ec	 mov	 eax, DWORD PTR tv94[ebp]
  0004b	89 45 d8	 mov	 DWORD PTR $T8[ebp], eax
  0004e	8b 45 d8	 mov	 eax, DWORD PTR $T8[ebp]
  00051	89 45 d4	 mov	 DWORD PTR $T7[ebp], eax
; File C:\Program Files (x86)\Microsoft Visual Studio\2019\Community\VC\Tools\MSVC\14.28.29333\include\list

; 1195 :         return (_STD min)(

  00054	8b 45 d4	 mov	 eax, DWORD PTR $T7[ebp]
  00057	8b 00		 mov	 eax, DWORD PTR [eax]
  00059	89 45 d0	 mov	 DWORD PTR $T6[ebp], eax

; 1014 :         if (_Mysize == max_size()) {

  0005c	8b 45 f8	 mov	 eax, DWORD PTR __Mysize$[ebp]
  0005f	8b 00		 mov	 eax, DWORD PTR [eax]
  00061	3b 45 d0	 cmp	 eax, DWORD PTR $T6[ebp]
  00064	75 0a		 jne	 SHORT $LN2@Emplace

; 1015 :             _Xlength_error("list too long");

  00066	68 00 00 00 00	 push	 OFFSET ??_C@_0O@NKNMEGII@list?5too?5long@
  0006b	e8 00 00 00 00	 call	 ?_Xlength_error@std@@YAXPBD@Z ; std::_Xlength_error
$LN2@Emplace:

; 1018 :         _List_node_emplace_op2<_Alnode> _Op{_Getal(), _STD forward<_Valty>(_Val)...};

  00070	8b 45 c0	 mov	 eax, DWORD PTR $T2[ebp]
  00073	89 45 e4	 mov	 DWORD PTR tv80[ebp], eax

; 1787 :         return _Mypair._Get_first();

  00076	8b 45 fc	 mov	 eax, DWORD PTR _this$[ebp]
; File C:\Program Files (x86)\Microsoft Visual Studio\2019\Community\VC\Tools\MSVC\14.28.29333\include\xmemory

; 1347 :         return *this;

  00079	89 45 cc	 mov	 DWORD PTR $T5[ebp], eax
; File C:\Program Files (x86)\Microsoft Visual Studio\2019\Community\VC\Tools\MSVC\14.28.29333\include\list

; 1787 :         return _Mypair._Get_first();

  0007c	8b 45 cc	 mov	 eax, DWORD PTR $T5[ebp]
  0007f	89 45 e4	 mov	 DWORD PTR tv80[ebp], eax

; 1018 :         _List_node_emplace_op2<_Alnode> _Op{_Getal(), _STD forward<_Valty>(_Val)...};

  00082	8b 45 bc	 mov	 eax, DWORD PTR $T1[ebp]
  00085	89 45 e8	 mov	 DWORD PTR tv82[ebp], eax
; File C:\Program Files (x86)\Microsoft Visual Studio\2019\Community\VC\Tools\MSVC\14.28.29333\include\type_traits

; 1443 :     return static_cast<_Ty&&>(_Arg);

  00088	8b 45 0c	 mov	 eax, DWORD PTR _<_Val_0>$[ebp]
  0008b	89 45 e8	 mov	 DWORD PTR tv82[ebp], eax
; File C:\Program Files (x86)\Microsoft Visual Studio\2019\Community\VC\Tools\MSVC\14.28.29333\include\list

; 1018 :         _List_node_emplace_op2<_Alnode> _Op{_Getal(), _STD forward<_Valty>(_Val)...};

  0008e	ff 75 e8	 push	 DWORD PTR tv82[ebp]
  00091	ff 75 e4	 push	 DWORD PTR tv80[ebp]
  00094	8d 4d b4	 lea	 ecx, DWORD PTR __Op$[ebp]
  00097	e8 00 00 00 00	 call	 ??$?0V?$basic_string@DU?$char_traits@D@std@@V?$allocator@D@2@@std@@@?$_List_node_emplace_op2@V?$allocator@U?$_List_node@V?$basic_string@DU?$char_traits@D@std@@V?$allocator@D@2@@std@@PAX@std@@@std@@@std@@QAE@AAV?$allocator@U?$_List_node@V?$basic_string@DU?$char_traits@D@std@@V?$allocator@D@2@@std@@PAX@std@@@1@$$QAV?$basic_string@DU?$char_traits@D@std@@V?$allocator@D@2@@1@@Z ; std::_List_node_emplace_op2<std::allocator<std::_List_node<std::basic_string<char,std::char_traits<char>,std::allocator<char> >,void *> > >::_List_node_emplace_op2<std::allocator<std::_List_node<std::basic_string<char,std::char_traits<char>,std::allocator<char> >,void *> > ><std::basic_string<char,std::char_traits<char>,std::allocator<char> > >

; 1019 :         ++_Mysize;

  0009c	8b 45 f8	 mov	 eax, DWORD PTR __Mysize$[ebp]
  0009f	8b 00		 mov	 eax, DWORD PTR [eax]
  000a1	40		 inc	 eax
  000a2	8b 4d f8	 mov	 ecx, DWORD PTR __Mysize$[ebp]
  000a5	89 01		 mov	 DWORD PTR [ecx], eax

; 1020 :         return _Op._Transfer_before(_Where);

  000a7	ff 75 08	 push	 DWORD PTR __Where$[ebp]
  000aa	8d 4d b4	 lea	 ecx, DWORD PTR __Op$[ebp]
  000ad	e8 00 00 00 00	 call	 ?_Transfer_before@?$_List_node_emplace_op2@V?$allocator@U?$_List_node@V?$basic_string@DU?$char_traits@D@std@@V?$allocator@D@2@@std@@PAX@std@@@std@@@std@@QAEPAU?$_List_node@V?$basic_string@DU?$char_traits@D@std@@V?$allocator@D@2@@std@@PAX@2@QAU32@@Z ; std::_List_node_emplace_op2<std::allocator<std::_List_node<std::basic_string<char,std::char_traits<char>,std::allocator<char> >,void *> > >::_Transfer_before
  000b2	89 45 c8	 mov	 DWORD PTR $T4[ebp], eax
  000b5	8d 4d b4	 lea	 ecx, DWORD PTR __Op$[ebp]
  000b8	e8 00 00 00 00	 call	 ??1?$_List_node_emplace_op2@V?$allocator@U?$_List_node@V?$basic_string@DU?$char_traits@D@std@@V?$allocator@D@2@@std@@PAX@std@@@std@@@std@@QAE@XZ ; std::_List_node_emplace_op2<std::allocator<std::_List_node<std::basic_string<char,std::char_traits<char>,std::allocator<char> >,void *> > >::~_List_node_emplace_op2<std::allocator<std::_List_node<std::basic_string<char,std::char_traits<char>,std::allocator<char> >,void *> > >
  000bd	8b 45 c8	 mov	 eax, DWORD PTR $T4[ebp]
$LN3@Emplace:

; 1021 :     }

  000c0	c9		 leave
  000c1	c2 08 00	 ret	 8
??$_Emplace@V?$basic_string@DU?$char_traits@D@std@@V?$allocator@D@2@@std@@@?$list@V?$basic_string@DU?$char_traits@D@std@@V?$allocator@D@2@@std@@V?$allocator@V?$basic_string@DU?$char_traits@D@std@@V?$allocator@D@2@@std@@@2@@std@@QAEPAU?$_List_node@V?$basic_string@DU?$char_traits@D@std@@V?$allocator@D@2@@std@@PAX@1@QAU21@$$QAV?$basic_string@DU?$char_traits@D@std@@V?$allocator@D@2@@1@@Z ENDP ; std::list<std::basic_string<char,std::char_traits<char>,std::allocator<char> >,std::allocator<std::basic_string<char,std::char_traits<char>,std::allocator<char> > > >::_Emplace<std::basic_string<char,std::char_traits<char>,std::allocator<char> > >
_TEXT	ENDS
; Function compile flags: /Odspy
; File D:\Metin2 Server Files\mainline\SRC_2014\Metin2Client\UserInterface\PythonNetworkStreamModule.cpp
;	COMDAT ?netRegisterErrorLog@@YAPAU_object@@PAU1@0@Z
_TEXT	SEGMENT
_szLog$ = -4						; size = 4
_poSelf$ = 8						; size = 4
_poArgs$ = 12						; size = 4
?netRegisterErrorLog@@YAPAU_object@@PAU1@0@Z PROC	; netRegisterErrorLog, COMDAT

; 1703 : {

  00000	55		 push	 ebp
  00001	8b ec		 mov	 ebp, esp
  00003	51		 push	 ecx

; 1704 : 	char * szLog;
; 1705 : 	if (!PyTuple_GetString(poArgs, 0, &szLog))

  00004	8d 45 fc	 lea	 eax, DWORD PTR _szLog$[ebp]
  00007	50		 push	 eax
  00008	6a 00		 push	 0
  0000a	ff 75 0c	 push	 DWORD PTR _poArgs$[ebp]
  0000d	e8 00 00 00 00	 call	 ?PyTuple_GetString@@YA_NPAU_object@@HPAPAD@Z ; PyTuple_GetString
  00012	83 c4 0c	 add	 esp, 12			; 0000000cH
  00015	0f b6 c0	 movzx	 eax, al
  00018	85 c0		 test	 eax, eax
  0001a	75 0a		 jne	 SHORT $LN2@netRegiste

; 1706 : 		return Py_BuildException();

  0001c	6a 00		 push	 0
  0001e	e8 00 00 00 00	 call	 ?Py_BuildException@@YAPAU_object@@PBDZZ ; Py_BuildException
  00023	59		 pop	 ecx
  00024	eb 05		 jmp	 SHORT $LN1@netRegiste
$LN2@netRegiste:

; 1707 : 
; 1708 : 	return Py_BuildNone();

  00026	e8 00 00 00 00	 call	 ?Py_BuildNone@@YAPAU_object@@XZ ; Py_BuildNone
$LN1@netRegiste:

; 1709 : }

  0002b	c9		 leave
  0002c	c3		 ret	 0
?netRegisterErrorLog@@YAPAU_object@@PAU1@0@Z ENDP	; netRegisterErrorLog
_TEXT	ENDS
; Function compile flags: /Odspy
; File D:\Metin2 Server Files\mainline\SRC_2014\Metin2Client\UserInterface\PythonNetworkStreamModule.cpp
; File C:\Program Files (x86)\Microsoft Visual Studio\2019\Community\VC\Tools\MSVC\14.28.29333\include\vector
; File C:\Program Files (x86)\Microsoft Visual Studio\2019\Community\VC\Tools\MSVC\14.28.29333\include\xmemory
; File C:\Program Files (x86)\Microsoft Visual Studio\2019\Community\VC\Tools\MSVC\14.28.29333\include\vector
; File D:\Metin2 Server Files\mainline\SRC_2014\Metin2Client\UserInterface\PythonNetworkStreamModule.cpp
; File C:\Program Files (x86)\Microsoft Visual Studio\2019\Community\VC\Tools\MSVC\14.28.29333\include\vector
; File D:\Metin2 Server Files\mainline\SRC_2014\Metin2Client\UserInterface\PythonNetworkStreamModule.cpp
; File C:\Program Files (x86)\Microsoft Visual Studio\2019\Community\VC\Tools\MSVC\14.28.29333\include\vector
; File D:\Metin2 Server Files\mainline\SRC_2014\Metin2Client\UserInterface\PythonNetworkStreamModule.cpp
;	COMDAT ?netRecvGuildSymbol@@YAPAU_object@@PAU1@0@Z
_TEXT	SEGMENT
_kVec_dwGuildID$ = -76					; size = 12
$T2 = -64						; size = 4
_rkGuildMarkDownloader$ = -60				; size = 4
$T3 = -56						; size = 4
_iGuildID$ = -52					; size = 4
_this$ = -48						; size = 4
_szIP$ = -44						; size = 4
_iPort$ = -40						; size = 4
_this$4 = -36						; size = 4
_kAddress$ = -32					; size = 16
__$ArrayPad$ = -16					; size = 4
__$EHRec$ = -12						; size = 12
_poSelf$ = 8						; size = 4
_poArgs$ = 12						; size = 4
?netRecvGuildSymbol@@YAPAU_object@@PAU1@0@Z PROC	; netRecvGuildSymbol, COMDAT

; 1675 : {

  00000	55		 push	 ebp
  00001	8b ec		 mov	 ebp, esp
  00003	6a ff		 push	 -1
  00005	68 00 00 00 00	 push	 __ehhandler$?netRecvGuildSymbol@@YAPAU_object@@PAU1@0@Z
  0000a	64 a1 00 00 00
	00		 mov	 eax, DWORD PTR fs:0
  00010	50		 push	 eax
  00011	83 ec 40	 sub	 esp, 64			; 00000040H
  00014	a1 00 00 00 00	 mov	 eax, DWORD PTR ___security_cookie
  00019	33 c5		 xor	 eax, ebp
  0001b	89 45 f0	 mov	 DWORD PTR __$ArrayPad$[ebp], eax
  0001e	50		 push	 eax
  0001f	8d 45 f4	 lea	 eax, DWORD PTR __$EHRec$[ebp]
  00022	64 a3 00 00 00
	00		 mov	 DWORD PTR fs:0, eax

; 1676 : 	char * szIP;
; 1677 : 	if (!PyTuple_GetString(poArgs, 0, &szIP))

  00028	8d 45 d4	 lea	 eax, DWORD PTR _szIP$[ebp]
  0002b	50		 push	 eax
  0002c	6a 00		 push	 0
  0002e	ff 75 0c	 push	 DWORD PTR _poArgs$[ebp]
  00031	e8 00 00 00 00	 call	 ?PyTuple_GetString@@YA_NPAU_object@@HPAPAD@Z ; PyTuple_GetString
  00036	83 c4 0c	 add	 esp, 12			; 0000000cH
  00039	0f b6 c0	 movzx	 eax, al
  0003c	85 c0		 test	 eax, eax
  0003e	75 0d		 jne	 SHORT $LN2@netRecvGui

; 1678 : 		return Py_BuildException();

  00040	6a 00		 push	 0
  00042	e8 00 00 00 00	 call	 ?Py_BuildException@@YAPAU_object@@PBDZZ ; Py_BuildException
  00047	59		 pop	 ecx
  00048	e9 e1 00 00 00	 jmp	 $LN1@netRecvGui
$LN2@netRecvGui:

; 1679 : 	int iPort;
; 1680 : 	if (!PyTuple_GetInteger(poArgs, 1, &iPort))

  0004d	8d 45 d8	 lea	 eax, DWORD PTR _iPort$[ebp]
  00050	50		 push	 eax
  00051	6a 01		 push	 1
  00053	ff 75 0c	 push	 DWORD PTR _poArgs$[ebp]
  00056	e8 00 00 00 00	 call	 ?PyTuple_GetInteger@@YA_NPAU_object@@HPAH@Z ; PyTuple_GetInteger
  0005b	83 c4 0c	 add	 esp, 12			; 0000000cH
  0005e	0f b6 c0	 movzx	 eax, al
  00061	85 c0		 test	 eax, eax
  00063	75 0d		 jne	 SHORT $LN3@netRecvGui

; 1681 : 		return Py_BuildException();

  00065	6a 00		 push	 0
  00067	e8 00 00 00 00	 call	 ?Py_BuildException@@YAPAU_object@@PBDZZ ; Py_BuildException
  0006c	59		 pop	 ecx
  0006d	e9 bc 00 00 00	 jmp	 $LN1@netRecvGui
$LN3@netRecvGui:

; 1682 : 	int iGuildID;
; 1683 : 	if (!PyTuple_GetInteger(poArgs, 2, &iGuildID))

  00072	8d 45 cc	 lea	 eax, DWORD PTR _iGuildID$[ebp]
  00075	50		 push	 eax
  00076	6a 02		 push	 2
  00078	ff 75 0c	 push	 DWORD PTR _poArgs$[ebp]
  0007b	e8 00 00 00 00	 call	 ?PyTuple_GetInteger@@YA_NPAU_object@@HPAH@Z ; PyTuple_GetInteger
  00080	83 c4 0c	 add	 esp, 12			; 0000000cH
  00083	0f b6 c0	 movzx	 eax, al
  00086	85 c0		 test	 eax, eax
  00088	75 0d		 jne	 SHORT $LN4@netRecvGui

; 1684 : 		return Py_BuildException();

  0008a	6a 00		 push	 0
  0008c	e8 00 00 00 00	 call	 ?Py_BuildException@@YAPAU_object@@PBDZZ ; Py_BuildException
  00091	59		 pop	 ecx
  00092	e9 97 00 00 00	 jmp	 $LN1@netRecvGui
$LN4@netRecvGui:

; 1685 : 
; 1686 : 	CNetworkAddress kAddress;

  00097	8d 4d e0	 lea	 ecx, DWORD PTR _kAddress$[ebp]
  0009a	e8 00 00 00 00	 call	 ??0CNetworkAddress@@QAE@XZ ; CNetworkAddress::CNetworkAddress
  0009f	83 65 fc 00	 and	 DWORD PTR __$EHRec$[ebp+8], 0

; 1687 : 	kAddress.Set(szIP, iPort);

  000a3	ff 75 d8	 push	 DWORD PTR _iPort$[ebp]
  000a6	ff 75 d4	 push	 DWORD PTR _szIP$[ebp]
  000a9	8d 4d e0	 lea	 ecx, DWORD PTR _kAddress$[ebp]
  000ac	e8 00 00 00 00	 call	 ?Set@CNetworkAddress@@QAE_NPBDH@Z ; CNetworkAddress::Set
; File C:\Program Files (x86)\Microsoft Visual Studio\2019\Community\VC\Tools\MSVC\14.28.29333\include\vector

; 445  :     vector() noexcept(is_nothrow_default_constructible_v<_Alty>) : _Mypair(_Zero_then_variadic_args_t{}) {

  000b1	8d 45 b4	 lea	 eax, DWORD PTR _kVec_dwGuildID$[ebp]
  000b4	89 45 d0	 mov	 DWORD PTR _this$[ebp], eax
; File C:\Program Files (x86)\Microsoft Visual Studio\2019\Community\VC\Tools\MSVC\14.28.29333\include\xmemory

; 1339 :         : _Ty1(), _Myval2(_STD forward<_Other2>(_Val2)...) {}

  000b7	8b 45 d0	 mov	 eax, DWORD PTR _this$[ebp]
  000ba	89 45 dc	 mov	 DWORD PTR _this$4[ebp], eax
; File C:\Program Files (x86)\Microsoft Visual Studio\2019\Community\VC\Tools\MSVC\14.28.29333\include\vector

; 375  :     _Vector_val() noexcept : _Myfirst(), _Mylast(), _Myend() {}

  000bd	8b 45 dc	 mov	 eax, DWORD PTR _this$4[ebp]
  000c0	83 20 00	 and	 DWORD PTR [eax], 0
  000c3	8b 45 dc	 mov	 eax, DWORD PTR _this$4[ebp]
  000c6	83 60 04 00	 and	 DWORD PTR [eax+4], 0
  000ca	8b 45 dc	 mov	 eax, DWORD PTR _this$4[ebp]
  000cd	83 60 08 00	 and	 DWORD PTR [eax+8], 0
; File D:\Metin2 Server Files\mainline\SRC_2014\Metin2Client\UserInterface\PythonNetworkStreamModule.cpp

; 1689 : 	std::vector<DWORD> kVec_dwGuildID;

  000d1	c6 45 fc 01	 mov	 BYTE PTR __$EHRec$[ebp+8], 1

; 1690 : 	kVec_dwGuildID.clear();

  000d5	8d 4d b4	 lea	 ecx, DWORD PTR _kVec_dwGuildID$[ebp]
  000d8	e8 00 00 00 00	 call	 ?clear@?$vector@KV?$allocator@K@std@@@std@@QAEXXZ ; std::vector<unsigned long,std::allocator<unsigned long> >::clear

; 1691 : 	kVec_dwGuildID.push_back(iGuildID);

  000dd	8b 45 cc	 mov	 eax, DWORD PTR _iGuildID$[ebp]
  000e0	89 45 c8	 mov	 DWORD PTR $T3[ebp], eax
; File C:\Program Files (x86)\Microsoft Visual Studio\2019\Community\VC\Tools\MSVC\14.28.29333\include\vector

; 717  :         emplace_back(_Val);

  000e3	8d 45 c8	 lea	 eax, DWORD PTR $T3[ebp]
  000e6	50		 push	 eax
  000e7	8d 4d b4	 lea	 ecx, DWORD PTR _kVec_dwGuildID$[ebp]
  000ea	e8 00 00 00 00	 call	 ??$emplace_back@ABK@?$vector@KV?$allocator@K@std@@@std@@QAEXABK@Z ; std::vector<unsigned long,std::allocator<unsigned long> >::emplace_back<unsigned long const &>
; File D:\Metin2 Server Files\mainline\SRC_2014\Metin2Client\UserInterface\PythonNetworkStreamModule.cpp

; 1693 : 	CGuildMarkDownloader& rkGuildMarkDownloader=CGuildMarkDownloader::Instance();

  000ef	a1 00 00 00 00	 mov	 eax, DWORD PTR ?ms_singleton@?$CSingleton@VCGuildMarkDownloader@@@@0PAVCGuildMarkDownloader@@A ; CSingleton<CGuildMarkDownloader>::ms_singleton
  000f4	89 45 c4	 mov	 DWORD PTR _rkGuildMarkDownloader$[ebp], eax

; 1694 : 	if (!rkGuildMarkDownloader.ConnectToRecvSymbol(kAddress, 0, 0, kVec_dwGuildID))

  000f7	8d 45 b4	 lea	 eax, DWORD PTR _kVec_dwGuildID$[ebp]
  000fa	50		 push	 eax
  000fb	6a 00		 push	 0
  000fd	6a 00		 push	 0
  000ff	8d 45 e0	 lea	 eax, DWORD PTR _kAddress$[ebp]
  00102	50		 push	 eax
  00103	8b 4d c4	 mov	 ecx, DWORD PTR _rkGuildMarkDownloader$[ebp]
  00106	e8 00 00 00 00	 call	 ?ConnectToRecvSymbol@CGuildMarkDownloader@@QAE_NABVCNetworkAddress@@KKABV?$vector@KV?$allocator@K@std@@@std@@@Z ; CGuildMarkDownloader::ConnectToRecvSymbol

; 1699 : 	return Py_BuildNone();

  0010b	e8 00 00 00 00	 call	 ?Py_BuildNone@@YAPAU_object@@XZ ; Py_BuildNone
  00110	89 45 c0	 mov	 DWORD PTR $T2[ebp], eax
  00113	c6 45 fc 00	 mov	 BYTE PTR __$EHRec$[ebp+8], 0
; File C:\Program Files (x86)\Microsoft Visual Studio\2019\Community\VC\Tools\MSVC\14.28.29333\include\vector

; 673  :         _Tidy();

  00117	8d 4d b4	 lea	 ecx, DWORD PTR _kVec_dwGuildID$[ebp]
  0011a	e8 00 00 00 00	 call	 ?_Tidy@?$vector@KV?$allocator@K@std@@@std@@AAEXXZ ; std::vector<unsigned long,std::allocator<unsigned long> >::_Tidy
; File D:\Metin2 Server Files\mainline\SRC_2014\Metin2Client\UserInterface\PythonNetworkStreamModule.cpp

; 1699 : 	return Py_BuildNone();

  0011f	83 4d fc ff	 or	 DWORD PTR __$EHRec$[ebp+8], -1
  00123	8d 4d e0	 lea	 ecx, DWORD PTR _kAddress$[ebp]
  00126	e8 00 00 00 00	 call	 ??1CNetworkAddress@@QAE@XZ ; CNetworkAddress::~CNetworkAddress
  0012b	8b 45 c0	 mov	 eax, DWORD PTR $T2[ebp]
$LN1@netRecvGui:

; 1700 : }

  0012e	8b 4d f4	 mov	 ecx, DWORD PTR __$EHRec$[ebp]
  00131	64 89 0d 00 00
	00 00		 mov	 DWORD PTR fs:0, ecx
  00138	59		 pop	 ecx
  00139	8b 4d f0	 mov	 ecx, DWORD PTR __$ArrayPad$[ebp]
  0013c	33 cd		 xor	 ecx, ebp
  0013e	e8 00 00 00 00	 call	 @__security_check_cookie@4
  00143	c9		 leave
  00144	c3		 ret	 0
_TEXT	ENDS
;	COMDAT text$x
text$x	SEGMENT
__unwindfunclet$?netRecvGuildSymbol@@YAPAU_object@@PAU1@0@Z$0:
  00000	8d 4d e0	 lea	 ecx, DWORD PTR _kAddress$[ebp]
  00003	e9 00 00 00 00	 jmp	 ??1CNetworkAddress@@QAE@XZ ; CNetworkAddress::~CNetworkAddress
__unwindfunclet$?netRecvGuildSymbol@@YAPAU_object@@PAU1@0@Z$1:
  00008	8d 4d b4	 lea	 ecx, DWORD PTR _kVec_dwGuildID$[ebp]
  0000b	e9 00 00 00 00	 jmp	 ??1?$vector@KV?$allocator@K@std@@@std@@QAE@XZ ; std::vector<unsigned long,std::allocator<unsigned long> >::~vector<unsigned long,std::allocator<unsigned long> >
  00010	cc		 int	 3
  00011	cc		 int	 3
  00012	cc		 int	 3
  00013	cc		 int	 3
  00014	cc		 int	 3
__ehhandler$?netRecvGuildSymbol@@YAPAU_object@@PAU1@0@Z:
  00015	90		 npad	 1
  00016	90		 npad	 1
  00017	8b 54 24 08	 mov	 edx, DWORD PTR [esp+8]
  0001b	8d 42 0c	 lea	 eax, DWORD PTR [edx+12]
  0001e	8b 4a bc	 mov	 ecx, DWORD PTR [edx-68]
  00021	33 c8		 xor	 ecx, eax
  00023	e8 00 00 00 00	 call	 @__security_check_cookie@4
  00028	8b 4a fc	 mov	 ecx, DWORD PTR [edx-4]
  0002b	33 c8		 xor	 ecx, eax
  0002d	e8 00 00 00 00	 call	 @__security_check_cookie@4
  00032	b8 00 00 00 00	 mov	 eax, OFFSET __ehfuncinfo$?netRecvGuildSymbol@@YAPAU_object@@PAU1@0@Z
  00037	e9 00 00 00 00	 jmp	 ___CxxFrameHandler3
text$x	ENDS
?netRecvGuildSymbol@@YAPAU_object@@PAU1@0@Z ENDP	; netRecvGuildSymbol
; Function compile flags: /Odspy
; File D:\Metin2 Server Files\mainline\SRC_2014\Metin2Client\UserInterface\PythonNetworkStreamModule.cpp
;	COMDAT ?netDisconnectUploader@@YAPAU_object@@PAU1@0@Z
_TEXT	SEGMENT
_rkGuildMarkUploader$ = -4				; size = 4
_poSelf$ = 8						; size = 4
_poArgs$ = 12						; size = 4
?netDisconnectUploader@@YAPAU_object@@PAU1@0@Z PROC	; netDisconnectUploader, COMDAT

; 1668 : {

  00000	55		 push	 ebp
  00001	8b ec		 mov	 ebp, esp
  00003	51		 push	 ecx

; 1669 : 	CGuildMarkUploader& rkGuildMarkUploader=CGuildMarkUploader::Instance();

  00004	a1 00 00 00 00	 mov	 eax, DWORD PTR ?ms_singleton@?$CSingleton@VCGuildMarkUploader@@@@0PAVCGuildMarkUploader@@A ; CSingleton<CGuildMarkUploader>::ms_singleton
  00009	89 45 fc	 mov	 DWORD PTR _rkGuildMarkUploader$[ebp], eax

; 1670 : 	rkGuildMarkUploader.Disconnect();
; 1671 : 	return Py_BuildNone();

  0000c	e8 00 00 00 00	 call	 ?Py_BuildNone@@YAPAU_object@@XZ ; Py_BuildNone

; 1672 : }

  00011	c9		 leave
  00012	c3		 ret	 0
?netDisconnectUploader@@YAPAU_object@@PAU1@0@Z ENDP	; netDisconnectUploader
_TEXT	ENDS
; Function compile flags: /Odspy
; File D:\Metin2 Server Files\mainline\SRC_2014\Metin2Client\UserInterface\PythonNetworkStreamModule.cpp
;	COMDAT ?netSendGuildSymbol@@YAPAU_object@@PAU1@0@Z
_TEXT	SEGMENT
_rkGuildMarkUploader$ = -56				; size = 4
_iGuildID$ = -52					; size = 4
_szFileName$ = -48					; size = 4
$T2 = -44						; size = 4
_szIP$ = -40						; size = 4
_iPort$ = -36						; size = 4
_kAddress$ = -32					; size = 16
__$ArrayPad$ = -16					; size = 4
__$EHRec$ = -12						; size = 12
_poSelf$ = 8						; size = 4
_poArgs$ = 12						; size = 4
?netSendGuildSymbol@@YAPAU_object@@PAU1@0@Z PROC	; netSendGuildSymbol, COMDAT

; 1639 : {

  00000	55		 push	 ebp
  00001	8b ec		 mov	 ebp, esp
  00003	6a ff		 push	 -1
  00005	68 00 00 00 00	 push	 __ehhandler$?netSendGuildSymbol@@YAPAU_object@@PAU1@0@Z
  0000a	64 a1 00 00 00
	00		 mov	 eax, DWORD PTR fs:0
  00010	50		 push	 eax
  00011	83 ec 2c	 sub	 esp, 44			; 0000002cH
  00014	a1 00 00 00 00	 mov	 eax, DWORD PTR ___security_cookie
  00019	33 c5		 xor	 eax, ebp
  0001b	89 45 f0	 mov	 DWORD PTR __$ArrayPad$[ebp], eax
  0001e	50		 push	 eax
  0001f	8d 45 f4	 lea	 eax, DWORD PTR __$EHRec$[ebp]
  00022	64 a3 00 00 00
	00		 mov	 DWORD PTR fs:0, eax

; 1640 : 	char * szIP;
; 1641 : 	if (!PyTuple_GetString(poArgs, 0, &szIP))

  00028	8d 45 d8	 lea	 eax, DWORD PTR _szIP$[ebp]
  0002b	50		 push	 eax
  0002c	6a 00		 push	 0
  0002e	ff 75 0c	 push	 DWORD PTR _poArgs$[ebp]
  00031	e8 00 00 00 00	 call	 ?PyTuple_GetString@@YA_NPAU_object@@HPAPAD@Z ; PyTuple_GetString
  00036	83 c4 0c	 add	 esp, 12			; 0000000cH
  00039	0f b6 c0	 movzx	 eax, al
  0003c	85 c0		 test	 eax, eax
  0003e	75 0d		 jne	 SHORT $LN2@netSendGui

; 1642 : 		return Py_BuildException();

  00040	6a 00		 push	 0
  00042	e8 00 00 00 00	 call	 ?Py_BuildException@@YAPAU_object@@PBDZZ ; Py_BuildException
  00047	59		 pop	 ecx
  00048	e9 9f 00 00 00	 jmp	 $LN1@netSendGui
$LN2@netSendGui:

; 1643 : 	int iPort;
; 1644 : 	if (!PyTuple_GetInteger(poArgs, 1, &iPort))

  0004d	8d 45 dc	 lea	 eax, DWORD PTR _iPort$[ebp]
  00050	50		 push	 eax
  00051	6a 01		 push	 1
  00053	ff 75 0c	 push	 DWORD PTR _poArgs$[ebp]
  00056	e8 00 00 00 00	 call	 ?PyTuple_GetInteger@@YA_NPAU_object@@HPAH@Z ; PyTuple_GetInteger
  0005b	83 c4 0c	 add	 esp, 12			; 0000000cH
  0005e	0f b6 c0	 movzx	 eax, al
  00061	85 c0		 test	 eax, eax
  00063	75 0a		 jne	 SHORT $LN3@netSendGui

; 1645 : 		return Py_BuildException();

  00065	6a 00		 push	 0
  00067	e8 00 00 00 00	 call	 ?Py_BuildException@@YAPAU_object@@PBDZZ ; Py_BuildException
  0006c	59		 pop	 ecx
  0006d	eb 7d		 jmp	 SHORT $LN1@netSendGui
$LN3@netSendGui:

; 1646 : 	char * szFileName;
; 1647 : 	if (!PyTuple_GetString(poArgs, 2, &szFileName))

  0006f	8d 45 d0	 lea	 eax, DWORD PTR _szFileName$[ebp]
  00072	50		 push	 eax
  00073	6a 02		 push	 2
  00075	ff 75 0c	 push	 DWORD PTR _poArgs$[ebp]
  00078	e8 00 00 00 00	 call	 ?PyTuple_GetString@@YA_NPAU_object@@HPAPAD@Z ; PyTuple_GetString
  0007d	83 c4 0c	 add	 esp, 12			; 0000000cH
  00080	0f b6 c0	 movzx	 eax, al
  00083	85 c0		 test	 eax, eax
  00085	75 0a		 jne	 SHORT $LN4@netSendGui

; 1648 : 		return Py_BuildException();

  00087	6a 00		 push	 0
  00089	e8 00 00 00 00	 call	 ?Py_BuildException@@YAPAU_object@@PBDZZ ; Py_BuildException
  0008e	59		 pop	 ecx
  0008f	eb 5b		 jmp	 SHORT $LN1@netSendGui
$LN4@netSendGui:

; 1649 : 	int iGuildID;
; 1650 : 	if (!PyTuple_GetInteger(poArgs, 3, &iGuildID))

  00091	8d 45 cc	 lea	 eax, DWORD PTR _iGuildID$[ebp]
  00094	50		 push	 eax
  00095	6a 03		 push	 3
  00097	ff 75 0c	 push	 DWORD PTR _poArgs$[ebp]
  0009a	e8 00 00 00 00	 call	 ?PyTuple_GetInteger@@YA_NPAU_object@@HPAH@Z ; PyTuple_GetInteger
  0009f	83 c4 0c	 add	 esp, 12			; 0000000cH
  000a2	0f b6 c0	 movzx	 eax, al
  000a5	85 c0		 test	 eax, eax
  000a7	75 0a		 jne	 SHORT $LN5@netSendGui

; 1651 : 		return Py_BuildException();

  000a9	6a 00		 push	 0
  000ab	e8 00 00 00 00	 call	 ?Py_BuildException@@YAPAU_object@@PBDZZ ; Py_BuildException
  000b0	59		 pop	 ecx
  000b1	eb 39		 jmp	 SHORT $LN1@netSendGui
$LN5@netSendGui:

; 1652 : 
; 1653 : 	CNetworkAddress kAddress;

  000b3	8d 4d e0	 lea	 ecx, DWORD PTR _kAddress$[ebp]
  000b6	e8 00 00 00 00	 call	 ??0CNetworkAddress@@QAE@XZ ; CNetworkAddress::CNetworkAddress
  000bb	83 65 fc 00	 and	 DWORD PTR __$EHRec$[ebp+8], 0

; 1654 : 	kAddress.Set(szIP, iPort);

  000bf	ff 75 dc	 push	 DWORD PTR _iPort$[ebp]
  000c2	ff 75 d8	 push	 DWORD PTR _szIP$[ebp]
  000c5	8d 4d e0	 lea	 ecx, DWORD PTR _kAddress$[ebp]
  000c8	e8 00 00 00 00	 call	 ?Set@CNetworkAddress@@QAE_NPBDH@Z ; CNetworkAddress::Set

; 1655 : 
; 1656 : 	UINT uiError;
; 1657 : 
; 1658 : 	CGuildMarkUploader& rkGuildMarkUploader=CGuildMarkUploader::Instance();

  000cd	a1 00 00 00 00	 mov	 eax, DWORD PTR ?ms_singleton@?$CSingleton@VCGuildMarkUploader@@@@0PAVCGuildMarkUploader@@A ; CSingleton<CGuildMarkUploader>::ms_singleton
  000d2	89 45 c8	 mov	 DWORD PTR _rkGuildMarkUploader$[ebp], eax

; 1659 : 	if (!rkGuildMarkUploader.ConnectToSendSymbol(kAddress, 0, 0, iGuildID, szFileName, &uiError))
; 1660 : 	{
; 1661 : 		assert(!"Failed connecting to send symbol");
; 1662 : 	}
; 1663 : 
; 1664 : 	return Py_BuildNone();

  000d5	e8 00 00 00 00	 call	 ?Py_BuildNone@@YAPAU_object@@XZ ; Py_BuildNone
  000da	89 45 d4	 mov	 DWORD PTR $T2[ebp], eax
  000dd	83 4d fc ff	 or	 DWORD PTR __$EHRec$[ebp+8], -1
  000e1	8d 4d e0	 lea	 ecx, DWORD PTR _kAddress$[ebp]
  000e4	e8 00 00 00 00	 call	 ??1CNetworkAddress@@QAE@XZ ; CNetworkAddress::~CNetworkAddress
  000e9	8b 45 d4	 mov	 eax, DWORD PTR $T2[ebp]
$LN1@netSendGui:

; 1665 : }

  000ec	8b 4d f4	 mov	 ecx, DWORD PTR __$EHRec$[ebp]
  000ef	64 89 0d 00 00
	00 00		 mov	 DWORD PTR fs:0, ecx
  000f6	59		 pop	 ecx
  000f7	8b 4d f0	 mov	 ecx, DWORD PTR __$ArrayPad$[ebp]
  000fa	33 cd		 xor	 ecx, ebp
  000fc	e8 00 00 00 00	 call	 @__security_check_cookie@4
  00101	c9		 leave
  00102	c3		 ret	 0
_TEXT	ENDS
;	COMDAT text$x
text$x	SEGMENT
__unwindfunclet$?netSendGuildSymbol@@YAPAU_object@@PAU1@0@Z$0:
  00000	8d 4d e0	 lea	 ecx, DWORD PTR _kAddress$[ebp]
  00003	e9 00 00 00 00	 jmp	 ??1CNetworkAddress@@QAE@XZ ; CNetworkAddress::~CNetworkAddress
  00008	cc		 int	 3
  00009	cc		 int	 3
  0000a	cc		 int	 3
  0000b	cc		 int	 3
  0000c	cc		 int	 3
__ehhandler$?netSendGuildSymbol@@YAPAU_object@@PAU1@0@Z:
  0000d	90		 npad	 1
  0000e	90		 npad	 1
  0000f	8b 54 24 08	 mov	 edx, DWORD PTR [esp+8]
  00013	8d 42 0c	 lea	 eax, DWORD PTR [edx+12]
  00016	8b 4a d0	 mov	 ecx, DWORD PTR [edx-48]
  00019	33 c8		 xor	 ecx, eax
  0001b	e8 00 00 00 00	 call	 @__security_check_cookie@4
  00020	8b 4a fc	 mov	 ecx, DWORD PTR [edx-4]
  00023	33 c8		 xor	 ecx, eax
  00025	e8 00 00 00 00	 call	 @__security_check_cookie@4
  0002a	b8 00 00 00 00	 mov	 eax, OFFSET __ehfuncinfo$?netSendGuildSymbol@@YAPAU_object@@PAU1@0@Z
  0002f	e9 00 00 00 00	 jmp	 ___CxxFrameHandler3
text$x	ENDS
?netSendGuildSymbol@@YAPAU_object@@PAU1@0@Z ENDP	; netSendGuildSymbol
; Function compile flags: /Odspy
; File D:\Metin2 Server Files\mainline\SRC_2014\Metin2Client\UserInterface\PythonNetworkStreamModule.cpp
;	COMDAT ?netSetSkillGroupFake@@YAPAU_object@@PAU1@0@Z
_TEXT	SEGMENT
_rns$ = -8						; size = 4
_iIndex$ = -4						; size = 4
_poSelf$ = 8						; size = 4
_poArgs$ = 12						; size = 4
?netSetSkillGroupFake@@YAPAU_object@@PAU1@0@Z PROC	; netSetSkillGroupFake, COMDAT

; 1624 : {

  00000	55		 push	 ebp
  00001	8b ec		 mov	 ebp, esp
  00003	51		 push	 ecx
  00004	51		 push	 ecx

; 1625 : 	int iIndex;
; 1626 : 	if (!PyTuple_GetInteger(poArgs, 0, &iIndex))

  00005	8d 45 fc	 lea	 eax, DWORD PTR _iIndex$[ebp]
  00008	50		 push	 eax
  00009	6a 00		 push	 0
  0000b	ff 75 0c	 push	 DWORD PTR _poArgs$[ebp]
  0000e	e8 00 00 00 00	 call	 ?PyTuple_GetInteger@@YA_NPAU_object@@HPAH@Z ; PyTuple_GetInteger
  00013	83 c4 0c	 add	 esp, 12			; 0000000cH
  00016	0f b6 c0	 movzx	 eax, al
  00019	85 c0		 test	 eax, eax
  0001b	75 0a		 jne	 SHORT $LN4@netSetSkil

; 1627 : 		return Py_BuildException();

  0001d	6a 00		 push	 0
  0001f	e8 00 00 00 00	 call	 ?Py_BuildException@@YAPAU_object@@PBDZZ ; Py_BuildException
  00024	59		 pop	 ecx
  00025	eb 18		 jmp	 SHORT $LN1@netSetSkil
$LN4@netSetSkil:

; 1628 : 
; 1629 : 	CPythonNetworkStream& rns=CPythonNetworkStream::Instance();

  00027	a1 00 00 00 00	 mov	 eax, DWORD PTR ?ms_singleton@?$CSingleton@VCPythonNetworkStream@@@@0PAVCPythonNetworkStream@@A ; CSingleton<CPythonNetworkStream>::ms_singleton
  0002c	89 45 f8	 mov	 DWORD PTR _rns$[ebp], eax

; 1630 : 	rns.__TEST_SetSkillGroupFake(iIndex);

  0002f	ff 75 fc	 push	 DWORD PTR _iIndex$[ebp]
  00032	8b 4d f8	 mov	 ecx, DWORD PTR _rns$[ebp]
  00035	e8 00 00 00 00	 call	 ?__TEST_SetSkillGroupFake@CPythonNetworkStream@@QAEXH@Z ; CPythonNetworkStream::__TEST_SetSkillGroupFake

; 1631 : 
; 1632 : 	return Py_BuildNone();

  0003a	e8 00 00 00 00	 call	 ?Py_BuildNone@@YAPAU_object@@XZ ; Py_BuildNone
$LN1@netSetSkil:

; 1633 : }

  0003f	c9		 leave
  00040	c3		 ret	 0
?netSetSkillGroupFake@@YAPAU_object@@PAU1@0@Z ENDP	; netSetSkillGroupFake
_TEXT	ENDS
; Function compile flags: /Odspy
; File D:\Metin2 Server Files\mainline\SRC_2014\Metin2Client\UserInterface\PythonNetworkStreamModule.cpp
;	COMDAT ?netSetEmpireLanguageMode@@YAPAU_object@@PAU1@0@Z
_TEXT	SEGMENT
_iMode$ = -4						; size = 4
_poSelf$ = 8						; size = 4
_poArgs$ = 12						; size = 4
?netSetEmpireLanguageMode@@YAPAU_object@@PAU1@0@Z PROC	; netSetEmpireLanguageMode, COMDAT

; 1612 : {

  00000	55		 push	 ebp
  00001	8b ec		 mov	 ebp, esp
  00003	51		 push	 ecx

; 1613 : 	int iMode;
; 1614 : 	if (!PyTuple_GetInteger(poArgs, 0, &iMode))

  00004	8d 45 fc	 lea	 eax, DWORD PTR _iMode$[ebp]
  00007	50		 push	 eax
  00008	6a 00		 push	 0
  0000a	ff 75 0c	 push	 DWORD PTR _poArgs$[ebp]
  0000d	e8 00 00 00 00	 call	 ?PyTuple_GetInteger@@YA_NPAU_object@@HPAH@Z ; PyTuple_GetInteger
  00012	83 c4 0c	 add	 esp, 12			; 0000000cH
  00015	0f b6 c0	 movzx	 eax, al
  00018	85 c0		 test	 eax, eax
  0001a	75 0a		 jne	 SHORT $LN2@netSetEmpi

; 1615 : 		return Py_BuildException();

  0001c	6a 00		 push	 0
  0001e	e8 00 00 00 00	 call	 ?Py_BuildException@@YAPAU_object@@PBDZZ ; Py_BuildException
  00023	59		 pop	 ecx
  00024	eb 0d		 jmp	 SHORT $LN1@netSetEmpi
$LN2@netSetEmpi:

; 1616 : 
; 1617 : 	//CPythonNetworkStream& rns=CPythonNetworkStream::Instance();
; 1618 : 	gs_bEmpireLanuageEnable = iMode;

  00026	8b 45 fc	 mov	 eax, DWORD PTR _iMode$[ebp]
  00029	a3 00 00 00 00	 mov	 DWORD PTR ?gs_bEmpireLanuageEnable@@3HA, eax ; gs_bEmpireLanuageEnable

; 1619 : 
; 1620 : 	return Py_BuildNone();

  0002e	e8 00 00 00 00	 call	 ?Py_BuildNone@@YAPAU_object@@XZ ; Py_BuildNone
$LN1@netSetEmpi:

; 1621 : }

  00033	c9		 leave
  00034	c3		 ret	 0
?netSetEmpireLanguageMode@@YAPAU_object@@PAU1@0@Z ENDP	; netSetEmpireLanguageMode
_TEXT	ENDS
; Function compile flags: /Odspy
; File D:\Metin2 Server Files\mainline\SRC_2014\Metin2Client\UserInterface\PythonNetworkStreamModule.cpp
;	COMDAT ?netSetPacketSequenceMode@@YAPAU_object@@PAU1@0@Z
_TEXT	SEGMENT
_rkAccountConnector$ = -8				; size = 4
_rns$ = -4						; size = 4
_poSelf$ = 8						; size = 4
_poArgs$ = 12						; size = 4
?netSetPacketSequenceMode@@YAPAU_object@@PAU1@0@Z PROC	; netSetPacketSequenceMode, COMDAT

; 1602 : {

  00000	55		 push	 ebp
  00001	8b ec		 mov	 ebp, esp
  00003	51		 push	 ecx
  00004	51		 push	 ecx

; 1603 : 	CPythonNetworkStream& rns=CPythonNetworkStream::Instance();

  00005	a1 00 00 00 00	 mov	 eax, DWORD PTR ?ms_singleton@?$CSingleton@VCPythonNetworkStream@@@@0PAVCPythonNetworkStream@@A ; CSingleton<CPythonNetworkStream>::ms_singleton
  0000a	89 45 fc	 mov	 DWORD PTR _rns$[ebp], eax

; 1604 : 	CAccountConnector & rkAccountConnector = CAccountConnector::Instance();

  0000d	a1 00 00 00 00	 mov	 eax, DWORD PTR ?ms_singleton@?$CSingleton@VCAccountConnector@@@@0PAVCAccountConnector@@A ; CSingleton<CAccountConnector>::ms_singleton
  00012	89 45 f8	 mov	 DWORD PTR _rkAccountConnector$[ebp], eax

; 1605 : 	rns.SetPacketSequenceMode(true);

  00015	6a 01		 push	 1
  00017	8b 4d fc	 mov	 ecx, DWORD PTR _rns$[ebp]
  0001a	e8 00 00 00 00	 call	 ?SetPacketSequenceMode@CNetworkStream@@QAEX_N@Z ; CNetworkStream::SetPacketSequenceMode

; 1606 : 	rkAccountConnector.SetPacketSequenceMode(true);

  0001f	6a 01		 push	 1
  00021	8b 4d f8	 mov	 ecx, DWORD PTR _rkAccountConnector$[ebp]
  00024	e8 00 00 00 00	 call	 ?SetPacketSequenceMode@CNetworkStream@@QAEX_N@Z ; CNetworkStream::SetPacketSequenceMode

; 1607 : 
; 1608 : 	return Py_BuildNone();

  00029	e8 00 00 00 00	 call	 ?Py_BuildNone@@YAPAU_object@@XZ ; Py_BuildNone

; 1609 : }

  0002e	c9		 leave
  0002f	c3		 ret	 0
?netSetPacketSequenceMode@@YAPAU_object@@PAU1@0@Z ENDP	; netSetPacketSequenceMode
_TEXT	ENDS
; Function compile flags: /Odspy
; File D:\Metin2 Server Files\mainline\SRC_2014\Metin2Client\UserInterface\PythonNetworkStreamModule.cpp
;	COMDAT ?netSendSelectItemPacket@@YAPAU_object@@PAU1@0@Z
_TEXT	SEGMENT
_rns$ = -8						; size = 4
_iItemPos$ = -4						; size = 4
_poSelf$ = 8						; size = 4
_poArgs$ = 12						; size = 4
?netSendSelectItemPacket@@YAPAU_object@@PAU1@0@Z PROC	; netSendSelectItemPacket, COMDAT

; 1590 : {

  00000	55		 push	 ebp
  00001	8b ec		 mov	 ebp, esp
  00003	51		 push	 ecx
  00004	51		 push	 ecx

; 1591 : 	int iItemPos;
; 1592 : 	if (!PyTuple_GetInteger(poArgs, 0, &iItemPos))

  00005	8d 45 fc	 lea	 eax, DWORD PTR _iItemPos$[ebp]
  00008	50		 push	 eax
  00009	6a 00		 push	 0
  0000b	ff 75 0c	 push	 DWORD PTR _poArgs$[ebp]
  0000e	e8 00 00 00 00	 call	 ?PyTuple_GetInteger@@YA_NPAU_object@@HPAH@Z ; PyTuple_GetInteger
  00013	83 c4 0c	 add	 esp, 12			; 0000000cH
  00016	0f b6 c0	 movzx	 eax, al
  00019	85 c0		 test	 eax, eax
  0001b	75 0a		 jne	 SHORT $LN4@netSendSel

; 1593 : 		return Py_BuildException();

  0001d	6a 00		 push	 0
  0001f	e8 00 00 00 00	 call	 ?Py_BuildException@@YAPAU_object@@PBDZZ ; Py_BuildException
  00024	59		 pop	 ecx
  00025	eb 18		 jmp	 SHORT $LN1@netSendSel
$LN4@netSendSel:

; 1594 : 
; 1595 : 	CPythonNetworkStream& rns=CPythonNetworkStream::Instance();

  00027	a1 00 00 00 00	 mov	 eax, DWORD PTR ?ms_singleton@?$CSingleton@VCPythonNetworkStream@@@@0PAVCPythonNetworkStream@@A ; CSingleton<CPythonNetworkStream>::ms_singleton
  0002c	89 45 f8	 mov	 DWORD PTR _rns$[ebp], eax

; 1596 : 	rns.SendSelectItemPacket(iItemPos);

  0002f	ff 75 fc	 push	 DWORD PTR _iItemPos$[ebp]
  00032	8b 4d f8	 mov	 ecx, DWORD PTR _rns$[ebp]
  00035	e8 00 00 00 00	 call	 ?SendSelectItemPacket@CPythonNetworkStream@@QAE_NK@Z ; CPythonNetworkStream::SendSelectItemPacket

; 1597 : 
; 1598 : 	return Py_BuildNone();

  0003a	e8 00 00 00 00	 call	 ?Py_BuildNone@@YAPAU_object@@XZ ; Py_BuildNone
$LN1@netSendSel:

; 1599 : }

  0003f	c9		 leave
  00040	c3		 ret	 0
?netSendSelectItemPacket@@YAPAU_object@@PAU1@0@Z ENDP	; netSendSelectItemPacket
_TEXT	ENDS
; Function compile flags: /Odspy
; File D:\Metin2 Server Files\mainline\SRC_2014\Metin2Client\UserInterface\PythonNetworkStreamModule.cpp
;	COMDAT ?netSendRefinePacket@@YAPAU_object@@PAU1@0@Z
_TEXT	SEGMENT
_rns$ = -12						; size = 4
_iSlotIndex$ = -8					; size = 4
_iType$ = -4						; size = 4
_poSelf$ = 8						; size = 4
_poArgs$ = 12						; size = 4
?netSendRefinePacket@@YAPAU_object@@PAU1@0@Z PROC	; netSendRefinePacket, COMDAT

; 1575 : {

  00000	55		 push	 ebp
  00001	8b ec		 mov	 ebp, esp
  00003	83 ec 0c	 sub	 esp, 12			; 0000000cH

; 1576 : 	int iSlotIndex;
; 1577 : 	if (!PyTuple_GetInteger(poArgs, 0, &iSlotIndex))

  00006	8d 45 f8	 lea	 eax, DWORD PTR _iSlotIndex$[ebp]
  00009	50		 push	 eax
  0000a	6a 00		 push	 0
  0000c	ff 75 0c	 push	 DWORD PTR _poArgs$[ebp]
  0000f	e8 00 00 00 00	 call	 ?PyTuple_GetInteger@@YA_NPAU_object@@HPAH@Z ; PyTuple_GetInteger
  00014	83 c4 0c	 add	 esp, 12			; 0000000cH
  00017	0f b6 c0	 movzx	 eax, al
  0001a	85 c0		 test	 eax, eax
  0001c	75 0a		 jne	 SHORT $LN2@netSendRef

; 1578 : 		return Py_BuildException();

  0001e	6a 00		 push	 0
  00020	e8 00 00 00 00	 call	 ?Py_BuildException@@YAPAU_object@@PBDZZ ; Py_BuildException
  00025	59		 pop	 ecx
  00026	eb 3d		 jmp	 SHORT $LN1@netSendRef
$LN2@netSendRef:

; 1579 : 	int iType;
; 1580 : 	if (!PyTuple_GetInteger(poArgs, 1, &iType))

  00028	8d 45 fc	 lea	 eax, DWORD PTR _iType$[ebp]
  0002b	50		 push	 eax
  0002c	6a 01		 push	 1
  0002e	ff 75 0c	 push	 DWORD PTR _poArgs$[ebp]
  00031	e8 00 00 00 00	 call	 ?PyTuple_GetInteger@@YA_NPAU_object@@HPAH@Z ; PyTuple_GetInteger
  00036	83 c4 0c	 add	 esp, 12			; 0000000cH
  00039	0f b6 c0	 movzx	 eax, al
  0003c	85 c0		 test	 eax, eax
  0003e	75 0a		 jne	 SHORT $LN5@netSendRef

; 1581 : 		return Py_BuildException();

  00040	6a 00		 push	 0
  00042	e8 00 00 00 00	 call	 ?Py_BuildException@@YAPAU_object@@PBDZZ ; Py_BuildException
  00047	59		 pop	 ecx
  00048	eb 1b		 jmp	 SHORT $LN1@netSendRef
$LN5@netSendRef:

; 1582 : 
; 1583 : 	CPythonNetworkStream& rns=CPythonNetworkStream::Instance();

  0004a	a1 00 00 00 00	 mov	 eax, DWORD PTR ?ms_singleton@?$CSingleton@VCPythonNetworkStream@@@@0PAVCPythonNetworkStream@@A ; CSingleton<CPythonNetworkStream>::ms_singleton
  0004f	89 45 f4	 mov	 DWORD PTR _rns$[ebp], eax

; 1584 : 	rns.SendRefinePacket(iSlotIndex, iType);

  00052	ff 75 fc	 push	 DWORD PTR _iType$[ebp]
  00055	ff 75 f8	 push	 DWORD PTR _iSlotIndex$[ebp]
  00058	8b 4d f4	 mov	 ecx, DWORD PTR _rns$[ebp]
  0005b	e8 00 00 00 00	 call	 ?SendRefinePacket@CPythonNetworkStream@@QAE_NEE@Z ; CPythonNetworkStream::SendRefinePacket

; 1585 : 
; 1586 : 	return Py_BuildNone();

  00060	e8 00 00 00 00	 call	 ?Py_BuildNone@@YAPAU_object@@XZ ; Py_BuildNone
$LN1@netSendRef:

; 1587 : }

  00065	c9		 leave
  00066	c3		 ret	 0
?netSendRefinePacket@@YAPAU_object@@PAU1@0@Z ENDP	; netSendRefinePacket
_TEXT	ENDS
; Function compile flags: /Odspy
; File D:\Metin2 Server Files\mainline\SRC_2014\Metin2Client\UserInterface\PythonNetworkStreamModule.cpp
;	COMDAT ?netSendRequestRefineInfoPacket@@YAPAU_object@@PAU1@0@Z
_TEXT	SEGMENT
_iSlotIndex$ = -4					; size = 4
_poSelf$ = 8						; size = 4
_poArgs$ = 12						; size = 4
?netSendRequestRefineInfoPacket@@YAPAU_object@@PAU1@0@Z PROC ; netSendRequestRefineInfoPacket, COMDAT

; 1562 : {

  00000	55		 push	 ebp
  00001	8b ec		 mov	 ebp, esp
  00003	51		 push	 ecx

; 1563 : 	int iSlotIndex;
; 1564 : 	if (!PyTuple_GetInteger(poArgs, 0, &iSlotIndex))

  00004	8d 45 fc	 lea	 eax, DWORD PTR _iSlotIndex$[ebp]
  00007	50		 push	 eax
  00008	6a 00		 push	 0
  0000a	ff 75 0c	 push	 DWORD PTR _poArgs$[ebp]
  0000d	e8 00 00 00 00	 call	 ?PyTuple_GetInteger@@YA_NPAU_object@@HPAH@Z ; PyTuple_GetInteger
  00012	83 c4 0c	 add	 esp, 12			; 0000000cH
  00015	0f b6 c0	 movzx	 eax, al
  00018	85 c0		 test	 eax, eax
  0001a	75 0a		 jne	 SHORT $LN2@netSendReq

; 1565 : 		return Py_BuildException();

  0001c	6a 00		 push	 0
  0001e	e8 00 00 00 00	 call	 ?Py_BuildException@@YAPAU_object@@PBDZZ ; Py_BuildException
  00023	59		 pop	 ecx
  00024	eb 05		 jmp	 SHORT $LN1@netSendReq
$LN2@netSendReq:

; 1566 : 
; 1567 : //	CPythonNetworkStream& rns=CPythonNetworkStream::Instance();
; 1568 : //	rns.SendRequestRefineInfoPacket(iSlotIndex);
; 1569 : 	assert(!"netSendRequestRefineInfoPacket -     ");
; 1570 : 
; 1571 : 	return Py_BuildNone();

  00026	e8 00 00 00 00	 call	 ?Py_BuildNone@@YAPAU_object@@XZ ; Py_BuildNone
$LN1@netSendReq:

; 1572 : }

  0002b	c9		 leave
  0002c	c3		 ret	 0
?netSendRequestRefineInfoPacket@@YAPAU_object@@PAU1@0@Z ENDP ; netSendRequestRefineInfoPacket
_TEXT	ENDS
; Function compile flags: /Odspy
; File D:\Metin2 Server Files\mainline\SRC_2014\Metin2Client\UserInterface\PythonNetworkStreamModule.cpp
;	COMDAT ?netSendGuildWithdrawMoneyPacket@@YAPAU_object@@PAU1@0@Z
_TEXT	SEGMENT
_rns$ = -8						; size = 4
_iGSP$ = -4						; size = 4
_poSelf$ = 8						; size = 4
_poArgs$ = 12						; size = 4
?netSendGuildWithdrawMoneyPacket@@YAPAU_object@@PAU1@0@Z PROC ; netSendGuildWithdrawMoneyPacket, COMDAT

; 1550 : {

  00000	55		 push	 ebp
  00001	8b ec		 mov	 ebp, esp
  00003	51		 push	 ecx
  00004	51		 push	 ecx

; 1551 : 	int iGSP;
; 1552 : 	if (!PyTuple_GetInteger(poArgs, 0, &iGSP))

  00005	8d 45 fc	 lea	 eax, DWORD PTR _iGSP$[ebp]
  00008	50		 push	 eax
  00009	6a 00		 push	 0
  0000b	ff 75 0c	 push	 DWORD PTR _poArgs$[ebp]
  0000e	e8 00 00 00 00	 call	 ?PyTuple_GetInteger@@YA_NPAU_object@@HPAH@Z ; PyTuple_GetInteger
  00013	83 c4 0c	 add	 esp, 12			; 0000000cH
  00016	0f b6 c0	 movzx	 eax, al
  00019	85 c0		 test	 eax, eax
  0001b	75 0a		 jne	 SHORT $LN4@netSendGui

; 1553 : 		return Py_BuildException();

  0001d	6a 00		 push	 0
  0001f	e8 00 00 00 00	 call	 ?Py_BuildException@@YAPAU_object@@PBDZZ ; Py_BuildException
  00024	59		 pop	 ecx
  00025	eb 18		 jmp	 SHORT $LN1@netSendGui
$LN4@netSendGui:

; 1554 : 
; 1555 : 	CPythonNetworkStream& rns=CPythonNetworkStream::Instance();

  00027	a1 00 00 00 00	 mov	 eax, DWORD PTR ?ms_singleton@?$CSingleton@VCPythonNetworkStream@@@@0PAVCPythonNetworkStream@@A ; CSingleton<CPythonNetworkStream>::ms_singleton
  0002c	89 45 f8	 mov	 DWORD PTR _rns$[ebp], eax

; 1556 : 	rns.SendGuildWithdrawMoneyPacket(iGSP);

  0002f	ff 75 fc	 push	 DWORD PTR _iGSP$[ebp]
  00032	8b 4d f8	 mov	 ecx, DWORD PTR _rns$[ebp]
  00035	e8 00 00 00 00	 call	 ?SendGuildWithdrawMoneyPacket@CPythonNetworkStream@@QAE_NK@Z ; CPythonNetworkStream::SendGuildWithdrawMoneyPacket

; 1557 : 
; 1558 : 	return Py_BuildNone();

  0003a	e8 00 00 00 00	 call	 ?Py_BuildNone@@YAPAU_object@@XZ ; Py_BuildNone
$LN1@netSendGui:

; 1559 : }

  0003f	c9		 leave
  00040	c3		 ret	 0
?netSendGuildWithdrawMoneyPacket@@YAPAU_object@@PAU1@0@Z ENDP ; netSendGuildWithdrawMoneyPacket
_TEXT	ENDS
; Function compile flags: /Odspy
; File D:\Metin2 Server Files\mainline\SRC_2014\Metin2Client\UserInterface\PythonNetworkStreamModule.cpp
;	COMDAT ?netSendGuildDepositMoneyPacket@@YAPAU_object@@PAU1@0@Z
_TEXT	SEGMENT
_rns$ = -8						; size = 4
_iGSP$ = -4						; size = 4
_poSelf$ = 8						; size = 4
_poArgs$ = 12						; size = 4
?netSendGuildDepositMoneyPacket@@YAPAU_object@@PAU1@0@Z PROC ; netSendGuildDepositMoneyPacket, COMDAT

; 1538 : {

  00000	55		 push	 ebp
  00001	8b ec		 mov	 ebp, esp
  00003	51		 push	 ecx
  00004	51		 push	 ecx

; 1539 : 	int iGSP;
; 1540 : 	if (!PyTuple_GetInteger(poArgs, 0, &iGSP))

  00005	8d 45 fc	 lea	 eax, DWORD PTR _iGSP$[ebp]
  00008	50		 push	 eax
  00009	6a 00		 push	 0
  0000b	ff 75 0c	 push	 DWORD PTR _poArgs$[ebp]
  0000e	e8 00 00 00 00	 call	 ?PyTuple_GetInteger@@YA_NPAU_object@@HPAH@Z ; PyTuple_GetInteger
  00013	83 c4 0c	 add	 esp, 12			; 0000000cH
  00016	0f b6 c0	 movzx	 eax, al
  00019	85 c0		 test	 eax, eax
  0001b	75 0a		 jne	 SHORT $LN4@netSendGui

; 1541 : 		return Py_BuildException();

  0001d	6a 00		 push	 0
  0001f	e8 00 00 00 00	 call	 ?Py_BuildException@@YAPAU_object@@PBDZZ ; Py_BuildException
  00024	59		 pop	 ecx
  00025	eb 18		 jmp	 SHORT $LN1@netSendGui
$LN4@netSendGui:

; 1542 : 
; 1543 : 	CPythonNetworkStream& rns=CPythonNetworkStream::Instance();

  00027	a1 00 00 00 00	 mov	 eax, DWORD PTR ?ms_singleton@?$CSingleton@VCPythonNetworkStream@@@@0PAVCPythonNetworkStream@@A ; CSingleton<CPythonNetworkStream>::ms_singleton
  0002c	89 45 f8	 mov	 DWORD PTR _rns$[ebp], eax

; 1544 : 	rns.SendGuildDepositMoneyPacket(iGSP);

  0002f	ff 75 fc	 push	 DWORD PTR _iGSP$[ebp]
  00032	8b 4d f8	 mov	 ecx, DWORD PTR _rns$[ebp]
  00035	e8 00 00 00 00	 call	 ?SendGuildDepositMoneyPacket@CPythonNetworkStream@@QAE_NK@Z ; CPythonNetworkStream::SendGuildDepositMoneyPacket

; 1545 : 
; 1546 : 	return Py_BuildNone();

  0003a	e8 00 00 00 00	 call	 ?Py_BuildNone@@YAPAU_object@@XZ ; Py_BuildNone
$LN1@netSendGui:

; 1547 : }

  0003f	c9		 leave
  00040	c3		 ret	 0
?netSendGuildDepositMoneyPacket@@YAPAU_object@@PAU1@0@Z ENDP ; netSendGuildDepositMoneyPacket
_TEXT	ENDS
; Function compile flags: /Odspy
; File D:\Metin2 Server Files\mainline\SRC_2014\Metin2Client\UserInterface\PythonNetworkStreamModule.cpp
;	COMDAT ?netSendGuildChargeGSPPacket@@YAPAU_object@@PAU1@0@Z
_TEXT	SEGMENT
_rns$ = -8						; size = 4
_iGSP$ = -4						; size = 4
_poSelf$ = 8						; size = 4
_poArgs$ = 12						; size = 4
?netSendGuildChargeGSPPacket@@YAPAU_object@@PAU1@0@Z PROC ; netSendGuildChargeGSPPacket, COMDAT

; 1526 : {

  00000	55		 push	 ebp
  00001	8b ec		 mov	 ebp, esp
  00003	51		 push	 ecx
  00004	51		 push	 ecx

; 1527 : 	int iGSP;
; 1528 : 	if (!PyTuple_GetInteger(poArgs, 0, &iGSP))

  00005	8d 45 fc	 lea	 eax, DWORD PTR _iGSP$[ebp]
  00008	50		 push	 eax
  00009	6a 00		 push	 0
  0000b	ff 75 0c	 push	 DWORD PTR _poArgs$[ebp]
  0000e	e8 00 00 00 00	 call	 ?PyTuple_GetInteger@@YA_NPAU_object@@HPAH@Z ; PyTuple_GetInteger
  00013	83 c4 0c	 add	 esp, 12			; 0000000cH
  00016	0f b6 c0	 movzx	 eax, al
  00019	85 c0		 test	 eax, eax
  0001b	75 0a		 jne	 SHORT $LN4@netSendGui

; 1529 : 		return Py_BuildException();

  0001d	6a 00		 push	 0
  0001f	e8 00 00 00 00	 call	 ?Py_BuildException@@YAPAU_object@@PBDZZ ; Py_BuildException
  00024	59		 pop	 ecx
  00025	eb 18		 jmp	 SHORT $LN1@netSendGui
$LN4@netSendGui:

; 1530 : 
; 1531 : 	CPythonNetworkStream& rns=CPythonNetworkStream::Instance();

  00027	a1 00 00 00 00	 mov	 eax, DWORD PTR ?ms_singleton@?$CSingleton@VCPythonNetworkStream@@@@0PAVCPythonNetworkStream@@A ; CSingleton<CPythonNetworkStream>::ms_singleton
  0002c	89 45 f8	 mov	 DWORD PTR _rns$[ebp], eax

; 1532 : 	rns.SendGuildChargeGSPPacket(iGSP);

  0002f	ff 75 fc	 push	 DWORD PTR _iGSP$[ebp]
  00032	8b 4d f8	 mov	 ecx, DWORD PTR _rns$[ebp]
  00035	e8 00 00 00 00	 call	 ?SendGuildChargeGSPPacket@CPythonNetworkStream@@QAE_NK@Z ; CPythonNetworkStream::SendGuildChargeGSPPacket

; 1533 : 
; 1534 : 	return Py_BuildNone();

  0003a	e8 00 00 00 00	 call	 ?Py_BuildNone@@YAPAU_object@@XZ ; Py_BuildNone
$LN1@netSendGui:

; 1535 : }

  0003f	c9		 leave
  00040	c3		 ret	 0
?netSendGuildChargeGSPPacket@@YAPAU_object@@PAU1@0@Z ENDP ; netSendGuildChargeGSPPacket
_TEXT	ENDS
; Function compile flags: /Odspy
; File D:\Metin2 Server Files\mainline\SRC_2014\Metin2Client\UserInterface\PythonNetworkStreamModule.cpp
;	COMDAT ?netSendGuildInviteAnswerPacket@@YAPAU_object@@PAU1@0@Z
_TEXT	SEGMENT
_rns$ = -12						; size = 4
_iGuildID$ = -8						; size = 4
_iAnswer$ = -4						; size = 4
_poSelf$ = 8						; size = 4
_poArgs$ = 12						; size = 4
?netSendGuildInviteAnswerPacket@@YAPAU_object@@PAU1@0@Z PROC ; netSendGuildInviteAnswerPacket, COMDAT

; 1511 : {

  00000	55		 push	 ebp
  00001	8b ec		 mov	 ebp, esp
  00003	83 ec 0c	 sub	 esp, 12			; 0000000cH

; 1512 : 	int iGuildID;
; 1513 : 	if (!PyTuple_GetInteger(poArgs, 0, &iGuildID))

  00006	8d 45 f8	 lea	 eax, DWORD PTR _iGuildID$[ebp]
  00009	50		 push	 eax
  0000a	6a 00		 push	 0
  0000c	ff 75 0c	 push	 DWORD PTR _poArgs$[ebp]
  0000f	e8 00 00 00 00	 call	 ?PyTuple_GetInteger@@YA_NPAU_object@@HPAH@Z ; PyTuple_GetInteger
  00014	83 c4 0c	 add	 esp, 12			; 0000000cH
  00017	0f b6 c0	 movzx	 eax, al
  0001a	85 c0		 test	 eax, eax
  0001c	75 0a		 jne	 SHORT $LN2@netSendGui

; 1514 : 		return Py_BuildException();

  0001e	6a 00		 push	 0
  00020	e8 00 00 00 00	 call	 ?Py_BuildException@@YAPAU_object@@PBDZZ ; Py_BuildException
  00025	59		 pop	 ecx
  00026	eb 3d		 jmp	 SHORT $LN1@netSendGui
$LN2@netSendGui:

; 1515 : 	int iAnswer;
; 1516 : 	if (!PyTuple_GetInteger(poArgs, 1, &iAnswer))

  00028	8d 45 fc	 lea	 eax, DWORD PTR _iAnswer$[ebp]
  0002b	50		 push	 eax
  0002c	6a 01		 push	 1
  0002e	ff 75 0c	 push	 DWORD PTR _poArgs$[ebp]
  00031	e8 00 00 00 00	 call	 ?PyTuple_GetInteger@@YA_NPAU_object@@HPAH@Z ; PyTuple_GetInteger
  00036	83 c4 0c	 add	 esp, 12			; 0000000cH
  00039	0f b6 c0	 movzx	 eax, al
  0003c	85 c0		 test	 eax, eax
  0003e	75 0a		 jne	 SHORT $LN5@netSendGui

; 1517 : 		return Py_BuildException();

  00040	6a 00		 push	 0
  00042	e8 00 00 00 00	 call	 ?Py_BuildException@@YAPAU_object@@PBDZZ ; Py_BuildException
  00047	59		 pop	 ecx
  00048	eb 1b		 jmp	 SHORT $LN1@netSendGui
$LN5@netSendGui:

; 1518 : 
; 1519 : 	CPythonNetworkStream& rns=CPythonNetworkStream::Instance();

  0004a	a1 00 00 00 00	 mov	 eax, DWORD PTR ?ms_singleton@?$CSingleton@VCPythonNetworkStream@@@@0PAVCPythonNetworkStream@@A ; CSingleton<CPythonNetworkStream>::ms_singleton
  0004f	89 45 f4	 mov	 DWORD PTR _rns$[ebp], eax

; 1520 : 	rns.SendGuildInviteAnswerPacket(iGuildID, iAnswer);

  00052	ff 75 fc	 push	 DWORD PTR _iAnswer$[ebp]
  00055	ff 75 f8	 push	 DWORD PTR _iGuildID$[ebp]
  00058	8b 4d f4	 mov	 ecx, DWORD PTR _rns$[ebp]
  0005b	e8 00 00 00 00	 call	 ?SendGuildInviteAnswerPacket@CPythonNetworkStream@@QAE_NKE@Z ; CPythonNetworkStream::SendGuildInviteAnswerPacket

; 1521 : 
; 1522 : 	return Py_BuildNone();

  00060	e8 00 00 00 00	 call	 ?Py_BuildNone@@YAPAU_object@@XZ ; Py_BuildNone
$LN1@netSendGui:

; 1523 : }

  00065	c9		 leave
  00066	c3		 ret	 0
?netSendGuildInviteAnswerPacket@@YAPAU_object@@PAU1@0@Z ENDP ; netSendGuildInviteAnswerPacket
_TEXT	ENDS
; Function compile flags: /Odspy
; File D:\Metin2 Server Files\mainline\SRC_2014\Metin2Client\UserInterface\PythonNetworkStreamModule.cpp
;	COMDAT ?netSendGuildChangeMemberGeneralPacket@@YAPAU_object@@PAU1@0@Z
_TEXT	SEGMENT
_rns$ = -12						; size = 4
_iPID$ = -8						; size = 4
_iFlag$ = -4						; size = 4
_poSelf$ = 8						; size = 4
_poArgs$ = 12						; size = 4
?netSendGuildChangeMemberGeneralPacket@@YAPAU_object@@PAU1@0@Z PROC ; netSendGuildChangeMemberGeneralPacket, COMDAT

; 1496 : {

