; Listing generated by Microsoft (R) Optimizing Compiler Version 19.28.29335.0 

	TITLE	D:\Metin2 Server Files\mainline\SRC_2014\Metin2Client\UserInterface\PythonMessenger.cpp
	.686P
	.XMM
	include listing.inc
	.model	flat

INCLUDELIB LIBCMT
INCLUDELIB OLDNAMES

CONST	SEGMENT
?piecewise_construct@std@@3Upiecewise_construct_t@1@B	ORG $+1 ; std::piecewise_construct
CONST	ENDS
PUBLIC	??0exception@std@@QAE@ABV01@@Z			; std::exception::exception
PUBLIC	?what@exception@std@@UBEPBDXZ			; std::exception::what
PUBLIC	??_Gexception@std@@UAEPAXI@Z			; std::exception::`scalar deleting destructor'
PUBLIC	??0bad_alloc@std@@QAE@ABV01@@Z			; std::bad_alloc::bad_alloc
PUBLIC	??_Gbad_alloc@std@@UAEPAXI@Z			; std::bad_alloc::`scalar deleting destructor'
PUBLIC	??0bad_array_new_length@std@@QAE@XZ		; std::bad_array_new_length::bad_array_new_length
PUBLIC	??1bad_array_new_length@std@@UAE@XZ		; std::bad_array_new_length::~bad_array_new_length
PUBLIC	??0bad_array_new_length@std@@QAE@ABV01@@Z	; std::bad_array_new_length::bad_array_new_length
PUBLIC	??_Gbad_array_new_length@std@@UAEPAXI@Z		; std::bad_array_new_length::`scalar deleting destructor'
PUBLIC	?_Throw_bad_array_new_length@std@@YAXXZ		; std::_Throw_bad_array_new_length
PUBLIC	?_Adjust_manually_vector_aligned@std@@YAXAAPAXAAI@Z ; std::_Adjust_manually_vector_aligned
PUBLIC	?_Xlen_string@std@@YAXXZ			; std::_Xlen_string
PUBLIC	?_Myptr@?$_String_val@U?$_Simple_types@D@std@@@std@@QAEPADXZ ; std::_String_val<std::_Simple_types<char> >::_Myptr
PUBLIC	??0?$basic_string@DU?$char_traits@D@std@@V?$allocator@D@2@@std@@QAE@QBD@Z ; std::basic_string<char,std::char_traits<char>,std::allocator<char> >::basic_string<char,std::char_traits<char>,std::allocator<char> >
PUBLIC	??0?$basic_string@DU?$char_traits@D@std@@V?$allocator@D@2@@std@@QAE@$$QAV01@@Z ; std::basic_string<char,std::char_traits<char>,std::allocator<char> >::basic_string<char,std::char_traits<char>,std::allocator<char> >
PUBLIC	??1?$basic_string@DU?$char_traits@D@std@@V?$allocator@D@2@@std@@QAE@XZ ; std::basic_string<char,std::char_traits<char>,std::allocator<char> >::~basic_string<char,std::char_traits<char>,std::allocator<char> >
PUBLIC	?assign@?$basic_string@DU?$char_traits@D@std@@V?$allocator@D@2@@std@@QAEAAV12@QBDI@Z ; std::basic_string<char,std::char_traits<char>,std::allocator<char> >::assign
PUBLIC	?c_str@?$basic_string@DU?$char_traits@D@std@@V?$allocator@D@2@@std@@QBEPBDXZ ; std::basic_string<char,std::char_traits<char>,std::allocator<char> >::c_str
PUBLIC	?max_size@?$basic_string@DU?$char_traits@D@std@@V?$allocator@D@2@@std@@QBEIXZ ; std::basic_string<char,std::char_traits<char>,std::allocator<char> >::max_size
PUBLIC	?compare@?$basic_string@DU?$char_traits@D@std@@V?$allocator@D@2@@std@@QBEHABV12@@Z ; std::basic_string<char,std::char_traits<char>,std::allocator<char> >::compare
PUBLIC	?_Calculate_growth@?$basic_string@DU?$char_traits@D@std@@V?$allocator@D@2@@std@@ABEII@Z ; std::basic_string<char,std::char_traits<char>,std::allocator<char> >::_Calculate_growth
PUBLIC	?_Tidy_init@?$basic_string@DU?$char_traits@D@std@@V?$allocator@D@2@@std@@AAEXXZ ; std::basic_string<char,std::char_traits<char>,std::allocator<char> >::_Tidy_init
PUBLIC	?_Tidy_deallocate@?$basic_string@DU?$char_traits@D@std@@V?$allocator@D@2@@std@@AAEXXZ ; std::basic_string<char,std::char_traits<char>,std::allocator<char> >::_Tidy_deallocate
PUBLIC	??1?$_Compressed_pair@V?$allocator@D@std@@V?$_String_val@U?$_Simple_types@D@std@@@2@$00@std@@QAE@XZ ; std::_Compressed_pair<std::allocator<char>,std::_String_val<std::_Simple_types<char> >,1>::~_Compressed_pair<std::allocator<char>,std::_String_val<std::_Simple_types<char> >,1>
PUBLIC	?_Throw_tree_length_error@std@@YAXXZ		; std::_Throw_tree_length_error
PUBLIC	?initMessenger@@YAXXZ				; initMessenger
PUBLIC	??$_Destroy_in_place@PAD@std@@YAXAAPAD@Z	; std::_Destroy_in_place<char *>
PUBLIC	??$_Reallocate_for@V<lambda_9366063389c5f42a00a5088cf24e69de>@@PBD@?$basic_string@DU?$char_traits@D@std@@V?$allocator@D@2@@std@@AAEAAV01@IV<lambda_9366063389c5f42a00a5088cf24e69de>@@PBD@Z ; std::basic_string<char,std::char_traits<char>,std::allocator<char> >::_Reallocate_for<<lambda_9366063389c5f42a00a5088cf24e69de>,char const *>
PUBLIC	??$_Construct_in_place@PADABQAD@std@@YAXAAPADABQAD@Z ; std::_Construct_in_place<char *,char * const &>
PUBLIC	??$_Deallocate@$07$0A@@std@@YAXPAXI@Z		; std::_Deallocate<8,0>
PUBLIC	??$_Allocate@$07U_Default_allocate_traits@std@@$0A@@std@@YAPAXI@Z ; std::_Allocate<8,std::_Default_allocate_traits,0>
PUBLIC	??$_Allocate_manually_vector_aligned@U_Default_allocate_traits@std@@@std@@YAPAXI@Z ; std::_Allocate_manually_vector_aligned<std::_Default_allocate_traits>
PUBLIC	??1?$CSingleton@VCPythonMessenger@@@@UAE@XZ	; CSingleton<CPythonMessenger>::~CSingleton<CPythonMessenger>
PUBLIC	??_G?$CSingleton@VCPythonMessenger@@@@UAEPAXI@Z	; CSingleton<CPythonMessenger>::`scalar deleting destructor'
PUBLIC	??0CPythonMessenger@@QAE@XZ			; CPythonMessenger::CPythonMessenger
PUBLIC	??1CPythonMessenger@@UAE@XZ			; CPythonMessenger::~CPythonMessenger
PUBLIC	?Destroy@CPythonMessenger@@QAEXXZ		; CPythonMessenger::Destroy
PUBLIC	?RemoveFriend@CPythonMessenger@@QAEXPBD@Z	; CPythonMessenger::RemoveFriend
PUBLIC	?OnFriendLogin@CPythonMessenger@@QAEXPBD@Z	; CPythonMessenger::OnFriendLogin
PUBLIC	?OnFriendLogout@CPythonMessenger@@QAEXPBD@Z	; CPythonMessenger::OnFriendLogout
PUBLIC	?SetMobile@CPythonMessenger@@QAEXPBDE@Z		; CPythonMessenger::SetMobile
PUBLIC	?IsFriendByKey@CPythonMessenger@@QAEHPBD@Z	; CPythonMessenger::IsFriendByKey
PUBLIC	?IsFriendByName@CPythonMessenger@@QAEHPBD@Z	; CPythonMessenger::IsFriendByName
PUBLIC	?AppendGuildMember@CPythonMessenger@@QAEXPBD@Z	; CPythonMessenger::AppendGuildMember
PUBLIC	?RemoveGuildMember@CPythonMessenger@@QAEXPBD@Z	; CPythonMessenger::RemoveGuildMember
PUBLIC	?RemoveAllGuildMember@CPythonMessenger@@QAEXXZ	; CPythonMessenger::RemoveAllGuildMember
PUBLIC	?LoginGuildMember@CPythonMessenger@@QAEXPBD@Z	; CPythonMessenger::LoginGuildMember
PUBLIC	?LogoutGuildMember@CPythonMessenger@@QAEXPBD@Z	; CPythonMessenger::LogoutGuildMember
PUBLIC	?RefreshGuildMember@CPythonMessenger@@QAEXXZ	; CPythonMessenger::RefreshGuildMember
PUBLIC	?SetMessengerHandler@CPythonMessenger@@QAEXPAU_object@@@Z ; CPythonMessenger::SetMessengerHandler
PUBLIC	??0?$_Tree@V?$_Tset_traits@V?$basic_string@DU?$char_traits@D@std@@V?$allocator@D@2@@std@@U?$less@V?$basic_string@DU?$char_traits@D@std@@V?$allocator@D@2@@std@@@2@V?$allocator@V?$basic_string@DU?$char_traits@D@std@@V?$allocator@D@2@@std@@@2@$0A@@std@@@std@@QAE@ABU?$less@V?$basic_string@DU?$char_traits@D@std@@V?$allocator@D@2@@std@@@1@@Z ; std::_Tree<std::_Tset_traits<std::basic_string<char,std::char_traits<char>,std::allocator<char> >,std::less<std::basic_string<char,std::char_traits<char>,std::allocator<char> > >,std::allocator<std::basic_string<char,std::char_traits<char>,std::allocator<char> > >,0> >::_Tree<std::_Tset_traits<std::basic_string<char,std::char_traits<char>,std::allocator<char> >,std::less<std::basic_string<char,std::char_traits<char>,std::allocator<char> > >,std::allocator<std::basic_string<char,std::char_traits<char>,std::allocator<char> > >,0> >
PUBLIC	??1?$_Tree@V?$_Tset_traits@V?$basic_string@DU?$char_traits@D@std@@V?$allocator@D@2@@std@@U?$less@V?$basic_string@DU?$char_traits@D@std@@V?$allocator@D@2@@std@@@2@V?$allocator@V?$basic_string@DU?$char_traits@D@std@@V?$allocator@D@2@@std@@@2@$0A@@std@@@std@@QAE@XZ ; std::_Tree<std::_Tset_traits<std::basic_string<char,std::char_traits<char>,std::allocator<char> >,std::less<std::basic_string<char,std::char_traits<char>,std::allocator<char> > >,std::allocator<std::basic_string<char,std::char_traits<char>,std::allocator<char> > >,0> >::~_Tree<std::_Tset_traits<std::basic_string<char,std::char_traits<char>,std::allocator<char> >,std::less<std::basic_string<char,std::char_traits<char>,std::allocator<char> > >,std::allocator<std::basic_string<char,std::char_traits<char>,std::allocator<char> > >,0> >
PUBLIC	?max_size@?$_Tree@V?$_Tset_traits@V?$basic_string@DU?$char_traits@D@std@@V?$allocator@D@2@@std@@U?$less@V?$basic_string@DU?$char_traits@D@std@@V?$allocator@D@2@@std@@@2@V?$allocator@V?$basic_string@DU?$char_traits@D@std@@V?$allocator@D@2@@std@@@2@$0A@@std@@@std@@QBEIXZ ; std::_Tree<std::_Tset_traits<std::basic_string<char,std::char_traits<char>,std::allocator<char> >,std::less<std::basic_string<char,std::char_traits<char>,std::allocator<char> > >,std::allocator<std::basic_string<char,std::char_traits<char>,std::allocator<char> > >,0> >::max_size
PUBLIC	?_Erase_unchecked@?$_Tree@V?$_Tset_traits@V?$basic_string@DU?$char_traits@D@std@@V?$allocator@D@2@@std@@U?$less@V?$basic_string@DU?$char_traits@D@std@@V?$allocator@D@2@@std@@@2@V?$allocator@V?$basic_string@DU?$char_traits@D@std@@V?$allocator@D@2@@std@@@2@$0A@@std@@@std@@AAEPAU?$_Tree_node@V?$basic_string@DU?$char_traits@D@std@@V?$allocator@D@2@@std@@PAX@2@V?$_Tree_unchecked_const_iterator@V?$_Tree_val@U?$_Tree_simple_types@V?$basic_string@DU?$char_traits@D@std@@V?$allocator@D@2@@std@@@std@@@std@@U_Iterator_base0@2@@2@@Z ; std::_Tree<std::_Tset_traits<std::basic_string<char,std::char_traits<char>,std::allocator<char> >,std::less<std::basic_string<char,std::char_traits<char>,std::allocator<char> > >,std::allocator<std::basic_string<char,std::char_traits<char>,std::allocator<char> > >,0> >::_Erase_unchecked
PUBLIC	?_Erase_unchecked@?$_Tree@V?$_Tset_traits@V?$basic_string@DU?$char_traits@D@std@@V?$allocator@D@2@@std@@U?$less@V?$basic_string@DU?$char_traits@D@std@@V?$allocator@D@2@@std@@@2@V?$allocator@V?$basic_string@DU?$char_traits@D@std@@V?$allocator@D@2@@std@@@2@$0A@@std@@@std@@AAEPAU?$_Tree_node@V?$basic_string@DU?$char_traits@D@std@@V?$allocator@D@2@@std@@PAX@2@V?$_Tree_unchecked_const_iterator@V?$_Tree_val@U?$_Tree_simple_types@V?$basic_string@DU?$char_traits@D@std@@V?$allocator@D@2@@std@@@std@@@std@@U_Iterator_base0@2@@2@0@Z ; std::_Tree<std::_Tset_traits<std::basic_string<char,std::char_traits<char>,std::allocator<char> >,std::less<std::basic_string<char,std::char_traits<char>,std::allocator<char> > >,std::allocator<std::basic_string<char,std::char_traits<char>,std::allocator<char> > >,0> >::_Erase_unchecked
PUBLIC	?erase@?$_Tree@V?$_Tset_traits@V?$basic_string@DU?$char_traits@D@std@@V?$allocator@D@2@@std@@U?$less@V?$basic_string@DU?$char_traits@D@std@@V?$allocator@D@2@@std@@@2@V?$allocator@V?$basic_string@DU?$char_traits@D@std@@V?$allocator@D@2@@std@@@2@$0A@@std@@@std@@QAEIABV?$basic_string@DU?$char_traits@D@std@@V?$allocator@D@2@@2@@Z ; std::_Tree<std::_Tset_traits<std::basic_string<char,std::char_traits<char>,std::allocator<char> >,std::less<std::basic_string<char,std::char_traits<char>,std::allocator<char> > >,std::allocator<std::basic_string<char,std::char_traits<char>,std::allocator<char> > >,0> >::erase
PUBLIC	?clear@?$_Tree@V?$_Tset_traits@V?$basic_string@DU?$char_traits@D@std@@V?$allocator@D@2@@std@@U?$less@V?$basic_string@DU?$char_traits@D@std@@V?$allocator@D@2@@std@@@2@V?$allocator@V?$basic_string@DU?$char_traits@D@std@@V?$allocator@D@2@@std@@@2@$0A@@std@@@std@@QAEXXZ ; std::_Tree<std::_Tset_traits<std::basic_string<char,std::char_traits<char>,std::allocator<char> >,std::less<std::basic_string<char,std::char_traits<char>,std::allocator<char> > >,std::allocator<std::basic_string<char,std::char_traits<char>,std::allocator<char> > >,0> >::clear
PUBLIC	?_Check_grow_by_1@?$_Tree@V?$_Tset_traits@V?$basic_string@DU?$char_traits@D@std@@V?$allocator@D@2@@std@@U?$less@V?$basic_string@DU?$char_traits@D@std@@V?$allocator@D@2@@std@@@2@V?$allocator@V?$basic_string@DU?$char_traits@D@std@@V?$allocator@D@2@@std@@@2@$0A@@std@@@std@@IAEXXZ ; std::_Tree<std::_Tset_traits<std::basic_string<char,std::char_traits<char>,std::allocator<char> >,std::less<std::basic_string<char,std::char_traits<char>,std::allocator<char> > >,std::allocator<std::basic_string<char,std::char_traits<char>,std::allocator<char> > >,0> >::_Check_grow_by_1
PUBLIC	?_Alloc_sentinel_and_proxy@?$_Tree@V?$_Tset_traits@V?$basic_string@DU?$char_traits@D@std@@V?$allocator@D@2@@std@@U?$less@V?$basic_string@DU?$char_traits@D@std@@V?$allocator@D@2@@std@@@2@V?$allocator@V?$basic_string@DU?$char_traits@D@std@@V?$allocator@D@2@@std@@@2@$0A@@std@@@std@@IAEXXZ ; std::_Tree<std::_Tset_traits<std::basic_string<char,std::char_traits<char>,std::allocator<char> >,std::less<std::basic_string<char,std::char_traits<char>,std::allocator<char> > >,std::allocator<std::basic_string<char,std::char_traits<char>,std::allocator<char> > >,0> >::_Alloc_sentinel_and_proxy
PUBLIC	?_Lrotate@?$_Tree_val@U?$_Tree_simple_types@V?$basic_string@DU?$char_traits@D@std@@V?$allocator@D@2@@std@@@std@@@std@@QAEXPAU?$_Tree_node@V?$basic_string@DU?$char_traits@D@std@@V?$allocator@D@2@@std@@PAX@2@@Z ; std::_Tree_val<std::_Tree_simple_types<std::basic_string<char,std::char_traits<char>,std::allocator<char> > > >::_Lrotate
PUBLIC	?_Rrotate@?$_Tree_val@U?$_Tree_simple_types@V?$basic_string@DU?$char_traits@D@std@@V?$allocator@D@2@@std@@@std@@@std@@QAEXPAU?$_Tree_node@V?$basic_string@DU?$char_traits@D@std@@V?$allocator@D@2@@std@@PAX@2@@Z ; std::_Tree_val<std::_Tree_simple_types<std::basic_string<char,std::char_traits<char>,std::allocator<char> > > >::_Rrotate
PUBLIC	?_Extract@?$_Tree_val@U?$_Tree_simple_types@V?$basic_string@DU?$char_traits@D@std@@V?$allocator@D@2@@std@@@std@@@std@@QAEPAU?$_Tree_node@V?$basic_string@DU?$char_traits@D@std@@V?$allocator@D@2@@std@@PAX@2@V?$_Tree_unchecked_const_iterator@V?$_Tree_val@U?$_Tree_simple_types@V?$basic_string@DU?$char_traits@D@std@@V?$allocator@D@2@@std@@@std@@@std@@U_Iterator_base0@2@@2@@Z ; std::_Tree_val<std::_Tree_simple_types<std::basic_string<char,std::char_traits<char>,std::allocator<char> > > >::_Extract
PUBLIC	?_Insert_node@?$_Tree_val@U?$_Tree_simple_types@V?$basic_string@DU?$char_traits@D@std@@V?$allocator@D@2@@std@@@std@@@std@@QAEPAU?$_Tree_node@V?$basic_string@DU?$char_traits@D@std@@V?$allocator@D@2@@std@@PAX@2@U?$_Tree_id@PAU?$_Tree_node@V?$basic_string@DU?$char_traits@D@std@@V?$allocator@D@2@@std@@PAX@std@@@2@QAU32@@Z ; std::_Tree_val<std::_Tree_simple_types<std::basic_string<char,std::char_traits<char>,std::allocator<char> > > >::_Insert_node
PUBLIC	??1?$set@V?$basic_string@DU?$char_traits@D@std@@V?$allocator@D@2@@std@@U?$less@V?$basic_string@DU?$char_traits@D@std@@V?$allocator@D@2@@std@@@2@V?$allocator@V?$basic_string@DU?$char_traits@D@std@@V?$allocator@D@2@@std@@@2@@std@@QAE@XZ ; std::set<std::basic_string<char,std::char_traits<char>,std::allocator<char> >,std::less<std::basic_string<char,std::char_traits<char>,std::allocator<char> > >,std::allocator<std::basic_string<char,std::char_traits<char>,std::allocator<char> > > >::~set<std::basic_string<char,std::char_traits<char>,std::allocator<char> >,std::less<std::basic_string<char,std::char_traits<char>,std::allocator<char> > >,std::allocator<std::basic_string<char,std::char_traits<char>,std::allocator<char> > > >
PUBLIC	??0?$_Tree@V?$_Tmap_traits@V?$basic_string@DU?$char_traits@D@std@@V?$allocator@D@2@@std@@EU?$less@V?$basic_string@DU?$char_traits@D@std@@V?$allocator@D@2@@std@@@2@V?$allocator@U?$pair@$$CBV?$basic_string@DU?$char_traits@D@std@@V?$allocator@D@2@@std@@E@std@@@2@$0A@@std@@@std@@QAE@ABU?$less@V?$basic_string@DU?$char_traits@D@std@@V?$allocator@D@2@@std@@@1@@Z ; std::_Tree<std::_Tmap_traits<std::basic_string<char,std::char_traits<char>,std::allocator<char> >,unsigned char,std::less<std::basic_string<char,std::char_traits<char>,std::allocator<char> > >,std::allocator<std::pair<std::basic_string<char,std::char_traits<char>,std::allocator<char> > const ,unsigned char> >,0> >::_Tree<std::_Tmap_traits<std::basic_string<char,std::char_traits<char>,std::allocator<char> >,unsigned char,std::less<std::basic_string<char,std::char_traits<char>,std::allocator<char> > >,std::allocator<std::pair<std::basic_string<char,std::char_traits<char>,std::allocator<char> > const ,unsigned char> >,0> >
PUBLIC	??1?$_Tree@V?$_Tmap_traits@V?$basic_string@DU?$char_traits@D@std@@V?$allocator@D@2@@std@@EU?$less@V?$basic_string@DU?$char_traits@D@std@@V?$allocator@D@2@@std@@@2@V?$allocator@U?$pair@$$CBV?$basic_string@DU?$char_traits@D@std@@V?$allocator@D@2@@std@@E@std@@@2@$0A@@std@@@std@@QAE@XZ ; std::_Tree<std::_Tmap_traits<std::basic_string<char,std::char_traits<char>,std::allocator<char> >,unsigned char,std::less<std::basic_string<char,std::char_traits<char>,std::allocator<char> > >,std::allocator<std::pair<std::basic_string<char,std::char_traits<char>,std::allocator<char> > const ,unsigned char> >,0> >::~_Tree<std::_Tmap_traits<std::basic_string<char,std::char_traits<char>,std::allocator<char> >,unsigned char,std::less<std::basic_string<char,std::char_traits<char>,std::allocator<char> > >,std::allocator<std::pair<std::basic_string<char,std::char_traits<char>,std::allocator<char> > const ,unsigned char> >,0> >
PUBLIC	?begin@?$_Tree@V?$_Tmap_traits@V?$basic_string@DU?$char_traits@D@std@@V?$allocator@D@2@@std@@EU?$less@V?$basic_string@DU?$char_traits@D@std@@V?$allocator@D@2@@std@@@2@V?$allocator@U?$pair@$$CBV?$basic_string@DU?$char_traits@D@std@@V?$allocator@D@2@@std@@E@std@@@2@$0A@@std@@@std@@QAE?AV?$_Tree_iterator@V?$_Tree_val@U?$_Tree_simple_types@U?$pair@$$CBV?$basic_string@DU?$char_traits@D@std@@V?$allocator@D@2@@std@@E@std@@@std@@@std@@@2@XZ ; std::_Tree<std::_Tmap_traits<std::basic_string<char,std::char_traits<char>,std::allocator<char> >,unsigned char,std::less<std::basic_string<char,std::char_traits<char>,std::allocator<char> > >,std::allocator<std::pair<std::basic_string<char,std::char_traits<char>,std::allocator<char> > const ,unsigned char> >,0> >::begin
PUBLIC	?max_size@?$_Tree@V?$_Tmap_traits@V?$basic_string@DU?$char_traits@D@std@@V?$allocator@D@2@@std@@EU?$less@V?$basic_string@DU?$char_traits@D@std@@V?$allocator@D@2@@std@@@2@V?$allocator@U?$pair@$$CBV?$basic_string@DU?$char_traits@D@std@@V?$allocator@D@2@@std@@E@std@@@2@$0A@@std@@@std@@QBEIXZ ; std::_Tree<std::_Tmap_traits<std::basic_string<char,std::char_traits<char>,std::allocator<char> >,unsigned char,std::less<std::basic_string<char,std::char_traits<char>,std::allocator<char> > >,std::allocator<std::pair<std::basic_string<char,std::char_traits<char>,std::allocator<char> > const ,unsigned char> >,0> >::max_size
PUBLIC	?_Erase_unchecked@?$_Tree@V?$_Tmap_traits@V?$basic_string@DU?$char_traits@D@std@@V?$allocator@D@2@@std@@EU?$less@V?$basic_string@DU?$char_traits@D@std@@V?$allocator@D@2@@std@@@2@V?$allocator@U?$pair@$$CBV?$basic_string@DU?$char_traits@D@std@@V?$allocator@D@2@@std@@E@std@@@2@$0A@@std@@@std@@AAEPAU?$_Tree_node@U?$pair@$$CBV?$basic_string@DU?$char_traits@D@std@@V?$allocator@D@2@@std@@E@std@@PAX@2@V?$_Tree_unchecked_const_iterator@V?$_Tree_val@U?$_Tree_simple_types@U?$pair@$$CBV?$basic_string@DU?$char_traits@D@std@@V?$allocator@D@2@@std@@E@std@@@std@@@std@@U_Iterator_base0@2@@2@@Z ; std::_Tree<std::_Tmap_traits<std::basic_string<char,std::char_traits<char>,std::allocator<char> >,unsigned char,std::less<std::basic_string<char,std::char_traits<char>,std::allocator<char> > >,std::allocator<std::pair<std::basic_string<char,std::char_traits<char>,std::allocator<char> > const ,unsigned char> >,0> >::_Erase_unchecked
PUBLIC	?_Erase_unchecked@?$_Tree@V?$_Tmap_traits@V?$basic_string@DU?$char_traits@D@std@@V?$allocator@D@2@@std@@EU?$less@V?$basic_string@DU?$char_traits@D@std@@V?$allocator@D@2@@std@@@2@V?$allocator@U?$pair@$$CBV?$basic_string@DU?$char_traits@D@std@@V?$allocator@D@2@@std@@E@std@@@2@$0A@@std@@@std@@AAEPAU?$_Tree_node@U?$pair@$$CBV?$basic_string@DU?$char_traits@D@std@@V?$allocator@D@2@@std@@E@std@@PAX@2@V?$_Tree_unchecked_const_iterator@V?$_Tree_val@U?$_Tree_simple_types@U?$pair@$$CBV?$basic_string@DU?$char_traits@D@std@@V?$allocator@D@2@@std@@E@std@@@std@@@std@@U_Iterator_base0@2@@2@0@Z ; std::_Tree<std::_Tmap_traits<std::basic_string<char,std::char_traits<char>,std::allocator<char> >,unsigned char,std::less<std::basic_string<char,std::char_traits<char>,std::allocator<char> > >,std::allocator<std::pair<std::basic_string<char,std::char_traits<char>,std::allocator<char> > const ,unsigned char> >,0> >::_Erase_unchecked
PUBLIC	?erase@?$_Tree@V?$_Tmap_traits@V?$basic_string@DU?$char_traits@D@std@@V?$allocator@D@2@@std@@EU?$less@V?$basic_string@DU?$char_traits@D@std@@V?$allocator@D@2@@std@@@2@V?$allocator@U?$pair@$$CBV?$basic_string@DU?$char_traits@D@std@@V?$allocator@D@2@@std@@E@std@@@2@$0A@@std@@@std@@QAEIABV?$basic_string@DU?$char_traits@D@std@@V?$allocator@D@2@@2@@Z ; std::_Tree<std::_Tmap_traits<std::basic_string<char,std::char_traits<char>,std::allocator<char> >,unsigned char,std::less<std::basic_string<char,std::char_traits<char>,std::allocator<char> > >,std::allocator<std::pair<std::basic_string<char,std::char_traits<char>,std::allocator<char> > const ,unsigned char> >,0> >::erase
PUBLIC	?clear@?$_Tree@V?$_Tmap_traits@V?$basic_string@DU?$char_traits@D@std@@V?$allocator@D@2@@std@@EU?$less@V?$basic_string@DU?$char_traits@D@std@@V?$allocator@D@2@@std@@@2@V?$allocator@U?$pair@$$CBV?$basic_string@DU?$char_traits@D@std@@V?$allocator@D@2@@std@@E@std@@@2@$0A@@std@@@std@@QAEXXZ ; std::_Tree<std::_Tmap_traits<std::basic_string<char,std::char_traits<char>,std::allocator<char> >,unsigned char,std::less<std::basic_string<char,std::char_traits<char>,std::allocator<char> > >,std::allocator<std::pair<std::basic_string<char,std::char_traits<char>,std::allocator<char> > const ,unsigned char> >,0> >::clear
PUBLIC	?_Check_grow_by_1@?$_Tree@V?$_Tmap_traits@V?$basic_string@DU?$char_traits@D@std@@V?$allocator@D@2@@std@@EU?$less@V?$basic_string@DU?$char_traits@D@std@@V?$allocator@D@2@@std@@@2@V?$allocator@U?$pair@$$CBV?$basic_string@DU?$char_traits@D@std@@V?$allocator@D@2@@std@@E@std@@@2@$0A@@std@@@std@@IAEXXZ ; std::_Tree<std::_Tmap_traits<std::basic_string<char,std::char_traits<char>,std::allocator<char> >,unsigned char,std::less<std::basic_string<char,std::char_traits<char>,std::allocator<char> > >,std::allocator<std::pair<std::basic_string<char,std::char_traits<char>,std::allocator<char> > const ,unsigned char> >,0> >::_Check_grow_by_1
PUBLIC	?_Alloc_sentinel_and_proxy@?$_Tree@V?$_Tmap_traits@V?$basic_string@DU?$char_traits@D@std@@V?$allocator@D@2@@std@@EU?$less@V?$basic_string@DU?$char_traits@D@std@@V?$allocator@D@2@@std@@@2@V?$allocator@U?$pair@$$CBV?$basic_string@DU?$char_traits@D@std@@V?$allocator@D@2@@std@@E@std@@@2@$0A@@std@@@std@@IAEXXZ ; std::_Tree<std::_Tmap_traits<std::basic_string<char,std::char_traits<char>,std::allocator<char> >,unsigned char,std::less<std::basic_string<char,std::char_traits<char>,std::allocator<char> > >,std::allocator<std::pair<std::basic_string<char,std::char_traits<char>,std::allocator<char> > const ,unsigned char> >,0> >::_Alloc_sentinel_and_proxy
PUBLIC	?_Lrotate@?$_Tree_val@U?$_Tree_simple_types@U?$pair@$$CBV?$basic_string@DU?$char_traits@D@std@@V?$allocator@D@2@@std@@E@std@@@std@@@std@@QAEXPAU?$_Tree_node@U?$pair@$$CBV?$basic_string@DU?$char_traits@D@std@@V?$allocator@D@2@@std@@E@std@@PAX@2@@Z ; std::_Tree_val<std::_Tree_simple_types<std::pair<std::basic_string<char,std::char_traits<char>,std::allocator<char> > const ,unsigned char> > >::_Lrotate
PUBLIC	?_Rrotate@?$_Tree_val@U?$_Tree_simple_types@U?$pair@$$CBV?$basic_string@DU?$char_traits@D@std@@V?$allocator@D@2@@std@@E@std@@@std@@@std@@QAEXPAU?$_Tree_node@U?$pair@$$CBV?$basic_string@DU?$char_traits@D@std@@V?$allocator@D@2@@std@@E@std@@PAX@2@@Z ; std::_Tree_val<std::_Tree_simple_types<std::pair<std::basic_string<char,std::char_traits<char>,std::allocator<char> > const ,unsigned char> > >::_Rrotate
PUBLIC	?_Extract@?$_Tree_val@U?$_Tree_simple_types@U?$pair@$$CBV?$basic_string@DU?$char_traits@D@std@@V?$allocator@D@2@@std@@E@std@@@std@@@std@@QAEPAU?$_Tree_node@U?$pair@$$CBV?$basic_string@DU?$char_traits@D@std@@V?$allocator@D@2@@std@@E@std@@PAX@2@V?$_Tree_unchecked_const_iterator@V?$_Tree_val@U?$_Tree_simple_types@U?$pair@$$CBV?$basic_string@DU?$char_traits@D@std@@V?$allocator@D@2@@std@@E@std@@@std@@@std@@U_Iterator_base0@2@@2@@Z ; std::_Tree_val<std::_Tree_simple_types<std::pair<std::basic_string<char,std::char_traits<char>,std::allocator<char> > const ,unsigned char> > >::_Extract
PUBLIC	?_Insert_node@?$_Tree_val@U?$_Tree_simple_types@U?$pair@$$CBV?$basic_string@DU?$char_traits@D@std@@V?$allocator@D@2@@std@@E@std@@@std@@@std@@QAEPAU?$_Tree_node@U?$pair@$$CBV?$basic_string@DU?$char_traits@D@std@@V?$allocator@D@2@@std@@E@std@@PAX@2@U?$_Tree_id@PAU?$_Tree_node@U?$pair@$$CBV?$basic_string@DU?$char_traits@D@std@@V?$allocator@D@2@@std@@E@std@@PAX@std@@@2@QAU32@@Z ; std::_Tree_val<std::_Tree_simple_types<std::pair<std::basic_string<char,std::char_traits<char>,std::allocator<char> > const ,unsigned char> > >::_Insert_node
PUBLIC	??_GCPythonMessenger@@UAEPAXI@Z			; CPythonMessenger::`scalar deleting destructor'
PUBLIC	??E?$_Tree_unchecked_const_iterator@V?$_Tree_val@U?$_Tree_simple_types@V?$basic_string@DU?$char_traits@D@std@@V?$allocator@D@2@@std@@@std@@@std@@U_Iterator_base0@2@@std@@QAEAAV01@XZ ; std::_Tree_unchecked_const_iterator<std::_Tree_val<std::_Tree_simple_types<std::basic_string<char,std::char_traits<char>,std::allocator<char> > > >,std::_Iterator_base0>::operator++
PUBLIC	??$_Eqrange@V?$basic_string@DU?$char_traits@D@std@@V?$allocator@D@2@@std@@@?$_Tree@V?$_Tset_traits@V?$basic_string@DU?$char_traits@D@std@@V?$allocator@D@2@@std@@U?$less@V?$basic_string@DU?$char_traits@D@std@@V?$allocator@D@2@@std@@@2@V?$allocator@V?$basic_string@DU?$char_traits@D@std@@V?$allocator@D@2@@std@@@2@$0A@@std@@@std@@IBE?AU?$pair@PAU?$_Tree_node@V?$basic_string@DU?$char_traits@D@std@@V?$allocator@D@2@@std@@PAX@std@@PAU12@@1@ABV?$basic_string@DU?$char_traits@D@std@@V?$allocator@D@2@@1@@Z ; std::_Tree<std::_Tset_traits<std::basic_string<char,std::char_traits<char>,std::allocator<char> >,std::less<std::basic_string<char,std::char_traits<char>,std::allocator<char> > >,std::allocator<std::basic_string<char,std::char_traits<char>,std::allocator<char> > >,0> >::_Eqrange<std::basic_string<char,std::char_traits<char>,std::allocator<char> > >
PUBLIC	??$insert@$0A@$0A@@?$_Tree@V?$_Tset_traits@V?$basic_string@DU?$char_traits@D@std@@V?$allocator@D@2@@std@@U?$less@V?$basic_string@DU?$char_traits@D@std@@V?$allocator@D@2@@std@@@2@V?$allocator@V?$basic_string@DU?$char_traits@D@std@@V?$allocator@D@2@@std@@@2@$0A@@std@@@std@@QAE?AU?$pair@V?$_Tree_const_iterator@V?$_Tree_val@U?$_Tree_simple_types@V?$basic_string@DU?$char_traits@D@std@@V?$allocator@D@2@@std@@@std@@@std@@@std@@_N@1@$$QAV?$basic_string@DU?$char_traits@D@std@@V?$allocator@D@2@@1@@Z ; std::_Tree<std::_Tset_traits<std::basic_string<char,std::char_traits<char>,std::allocator<char> >,std::less<std::basic_string<char,std::char_traits<char>,std::allocator<char> > >,std::allocator<std::basic_string<char,std::char_traits<char>,std::allocator<char> > >,0> >::insert<0,0>
PUBLIC	??E?$_Tree_unchecked_const_iterator@V?$_Tree_val@U?$_Tree_simple_types@U?$pair@$$CBV?$basic_string@DU?$char_traits@D@std@@V?$allocator@D@2@@std@@E@std@@@std@@@std@@U_Iterator_base0@2@@std@@QAEAAV01@XZ ; std::_Tree_unchecked_const_iterator<std::_Tree_val<std::_Tree_simple_types<std::pair<std::basic_string<char,std::char_traits<char>,std::allocator<char> > const ,unsigned char> > >,std::_Iterator_base0>::operator++
PUBLIC	??$_Eqrange@V?$basic_string@DU?$char_traits@D@std@@V?$allocator@D@2@@std@@@?$_Tree@V?$_Tmap_traits@V?$basic_string@DU?$char_traits@D@std@@V?$allocator@D@2@@std@@EU?$less@V?$basic_string@DU?$char_traits@D@std@@V?$allocator@D@2@@std@@@2@V?$allocator@U?$pair@$$CBV?$basic_string@DU?$char_traits@D@std@@V?$allocator@D@2@@std@@E@std@@@2@$0A@@std@@@std@@IBE?AU?$pair@PAU?$_Tree_node@U?$pair@$$CBV?$basic_string@DU?$char_traits@D@std@@V?$allocator@D@2@@std@@E@std@@PAX@std@@PAU12@@1@ABV?$basic_string@DU?$char_traits@D@std@@V?$allocator@D@2@@1@@Z ; std::_Tree<std::_Tmap_traits<std::basic_string<char,std::char_traits<char>,std::allocator<char> >,unsigned char,std::less<std::basic_string<char,std::char_traits<char>,std::allocator<char> > >,std::allocator<std::pair<std::basic_string<char,std::char_traits<char>,std::allocator<char> > const ,unsigned char> >,0> >::_Eqrange<std::basic_string<char,std::char_traits<char>,std::allocator<char> > >
PUBLIC	?messengerRemoveFriend@@YAPAU_object@@PAU1@0@Z	; messengerRemoveFriend
PUBLIC	?messengerIsFriendByName@@YAPAU_object@@PAU1@0@Z ; messengerIsFriendByName
PUBLIC	?messengerDestroy@@YAPAU_object@@PAU1@0@Z	; messengerDestroy
PUBLIC	?messengerRefreshGuildMember@@YAPAU_object@@PAU1@0@Z ; messengerRefreshGuildMember
PUBLIC	?messengerSetMessengerHandler@@YAPAU_object@@PAU1@0@Z ; messengerSetMessengerHandler
PUBLIC	??$_Try_emplace@V?$basic_string@DU?$char_traits@D@std@@V?$allocator@D@2@@std@@$$V@?$map@V?$basic_string@DU?$char_traits@D@std@@V?$allocator@D@2@@std@@EU?$less@V?$basic_string@DU?$char_traits@D@std@@V?$allocator@D@2@@std@@@2@V?$allocator@U?$pair@$$CBV?$basic_string@DU?$char_traits@D@std@@V?$allocator@D@2@@std@@E@std@@@2@@std@@AAE?AU?$pair@PAU?$_Tree_node@U?$pair@$$CBV?$basic_string@DU?$char_traits@D@std@@V?$allocator@D@2@@std@@E@std@@PAX@std@@_N@1@$$QAV?$basic_string@DU?$char_traits@D@std@@V?$allocator@D@2@@1@@Z ; std::map<std::basic_string<char,std::char_traits<char>,std::allocator<char> >,unsigned char,std::less<std::basic_string<char,std::char_traits<char>,std::allocator<char> > >,std::allocator<std::pair<std::basic_string<char,std::char_traits<char>,std::allocator<char> > const ,unsigned char> > >::_Try_emplace<std::basic_string<char,std::char_traits<char>,std::allocator<char> > >
PUBLIC	??$_Find@V?$basic_string@DU?$char_traits@D@std@@V?$allocator@D@2@@std@@@?$_Tree@V?$_Tmap_traits@V?$basic_string@DU?$char_traits@D@std@@V?$allocator@D@2@@std@@EU?$less@V?$basic_string@DU?$char_traits@D@std@@V?$allocator@D@2@@std@@@2@V?$allocator@U?$pair@$$CBV?$basic_string@DU?$char_traits@D@std@@V?$allocator@D@2@@std@@E@std@@@2@$0A@@std@@@std@@ABEPAU?$_Tree_node@U?$pair@$$CBV?$basic_string@DU?$char_traits@D@std@@V?$allocator@D@2@@std@@E@std@@PAX@1@ABV?$basic_string@DU?$char_traits@D@std@@V?$allocator@D@2@@1@@Z ; std::_Tree<std::_Tmap_traits<std::basic_string<char,std::char_traits<char>,std::allocator<char> >,unsigned char,std::less<std::basic_string<char,std::char_traits<char>,std::allocator<char> > >,std::allocator<std::pair<std::basic_string<char,std::char_traits<char>,std::allocator<char> > const ,unsigned char> >,0> >::_Find<std::basic_string<char,std::char_traits<char>,std::allocator<char> > >
PUBLIC	??$_Erase_tree@V?$allocator@U?$_Tree_node@U?$pair@$$CBV?$basic_string@DU?$char_traits@D@std@@V?$allocator@D@2@@std@@E@std@@PAX@std@@@std@@@?$_Tree_val@U?$_Tree_simple_types@U?$pair@$$CBV?$basic_string@DU?$char_traits@D@std@@V?$allocator@D@2@@std@@E@std@@@std@@@std@@QAEXAAV?$allocator@U?$_Tree_node@U?$pair@$$CBV?$basic_string@DU?$char_traits@D@std@@V?$allocator@D@2@@std@@E@std@@PAX@std@@@1@PAU?$_Tree_node@U?$pair@$$CBV?$basic_string@DU?$char_traits@D@std@@V?$allocator@D@2@@std@@E@std@@PAX@1@@Z ; std::_Tree_val<std::_Tree_simple_types<std::pair<std::basic_string<char,std::char_traits<char>,std::allocator<char> > const ,unsigned char> > >::_Erase_tree<std::allocator<std::_Tree_node<std::pair<std::basic_string<char,std::char_traits<char>,std::allocator<char> > const ,unsigned char>,void *> > >
PUBLIC	??$distance@V?$_Tree_unchecked_const_iterator@V?$_Tree_val@U?$_Tree_simple_types@U?$pair@$$CBV?$basic_string@DU?$char_traits@D@std@@V?$allocator@D@2@@std@@E@std@@@std@@@std@@U_Iterator_base0@2@@std@@@std@@YAHV?$_Tree_unchecked_const_iterator@V?$_Tree_val@U?$_Tree_simple_types@U?$pair@$$CBV?$basic_string@DU?$char_traits@D@std@@V?$allocator@D@2@@std@@E@std@@@std@@@std@@U_Iterator_base0@2@@0@0@Z ; std::distance<std::_Tree_unchecked_const_iterator<std::_Tree_val<std::_Tree_simple_types<std::pair<std::basic_string<char,std::char_traits<char>,std::allocator<char> > const ,unsigned char> > >,std::_Iterator_base0> >
PUBLIC	??$_Find@V?$basic_string@DU?$char_traits@D@std@@V?$allocator@D@2@@std@@@?$_Tree@V?$_Tset_traits@V?$basic_string@DU?$char_traits@D@std@@V?$allocator@D@2@@std@@U?$less@V?$basic_string@DU?$char_traits@D@std@@V?$allocator@D@2@@std@@@2@V?$allocator@V?$basic_string@DU?$char_traits@D@std@@V?$allocator@D@2@@std@@@2@$0A@@std@@@std@@ABEPAU?$_Tree_node@V?$basic_string@DU?$char_traits@D@std@@V?$allocator@D@2@@std@@PAX@1@ABV?$basic_string@DU?$char_traits@D@std@@V?$allocator@D@2@@1@@Z ; std::_Tree<std::_Tset_traits<std::basic_string<char,std::char_traits<char>,std::allocator<char> >,std::less<std::basic_string<char,std::char_traits<char>,std::allocator<char> > >,std::allocator<std::basic_string<char,std::char_traits<char>,std::allocator<char> > >,0> >::_Find<std::basic_string<char,std::char_traits<char>,std::allocator<char> > >
PUBLIC	??$_Erase_tree@V?$allocator@U?$_Tree_node@V?$basic_string@DU?$char_traits@D@std@@V?$allocator@D@2@@std@@PAX@std@@@std@@@?$_Tree_val@U?$_Tree_simple_types@V?$basic_string@DU?$char_traits@D@std@@V?$allocator@D@2@@std@@@std@@@std@@QAEXAAV?$allocator@U?$_Tree_node@V?$basic_string@DU?$char_traits@D@std@@V?$allocator@D@2@@std@@PAX@std@@@1@PAU?$_Tree_node@V?$basic_string@DU?$char_traits@D@std@@V?$allocator@D@2@@std@@PAX@1@@Z ; std::_Tree_val<std::_Tree_simple_types<std::basic_string<char,std::char_traits<char>,std::allocator<char> > > >::_Erase_tree<std::allocator<std::_Tree_node<std::basic_string<char,std::char_traits<char>,std::allocator<char> >,void *> > >
PUBLIC	??$distance@V?$_Tree_unchecked_const_iterator@V?$_Tree_val@U?$_Tree_simple_types@V?$basic_string@DU?$char_traits@D@std@@V?$allocator@D@2@@std@@@std@@@std@@U_Iterator_base0@2@@std@@@std@@YAHV?$_Tree_unchecked_const_iterator@V?$_Tree_val@U?$_Tree_simple_types@V?$basic_string@DU?$char_traits@D@std@@V?$allocator@D@2@@std@@@std@@@std@@U_Iterator_base0@2@@0@0@Z ; std::distance<std::_Tree_unchecked_const_iterator<std::_Tree_val<std::_Tree_simple_types<std::basic_string<char,std::char_traits<char>,std::allocator<char> > > >,std::_Iterator_base0> >
PUBLIC	??$_Buyheadnode@V?$allocator@U?$_Tree_node@U?$pair@$$CBV?$basic_string@DU?$char_traits@D@std@@V?$allocator@D@2@@std@@E@std@@PAX@std@@@std@@@?$_Tree_node@U?$pair@$$CBV?$basic_string@DU?$char_traits@D@std@@V?$allocator@D@2@@std@@E@std@@PAX@std@@SAPAU01@AAV?$allocator@U?$_Tree_node@U?$pair@$$CBV?$basic_string@DU?$char_traits@D@std@@V?$allocator@D@2@@std@@E@std@@PAX@std@@@1@@Z ; std::_Tree_node<std::pair<std::basic_string<char,std::char_traits<char>,std::allocator<char> > const ,unsigned char>,void *>::_Buyheadnode<std::allocator<std::_Tree_node<std::pair<std::basic_string<char,std::char_traits<char>,std::allocator<char> > const ,unsigned char>,void *> > >
PUBLIC	??$_Freenode@V?$allocator@U?$_Tree_node@U?$pair@$$CBV?$basic_string@DU?$char_traits@D@std@@V?$allocator@D@2@@std@@E@std@@PAX@std@@@std@@@?$_Tree_node@U?$pair@$$CBV?$basic_string@DU?$char_traits@D@std@@V?$allocator@D@2@@std@@E@std@@PAX@std@@SAXAAV?$allocator@U?$_Tree_node@U?$pair@$$CBV?$basic_string@DU?$char_traits@D@std@@V?$allocator@D@2@@std@@E@std@@PAX@std@@@1@PAU01@@Z ; std::_Tree_node<std::pair<std::basic_string<char,std::char_traits<char>,std::allocator<char> > const ,unsigned char>,void *>::_Freenode<std::allocator<std::_Tree_node<std::pair<std::basic_string<char,std::char_traits<char>,std::allocator<char> > const ,unsigned char>,void *> > >
PUBLIC	??$_Buyheadnode@V?$allocator@U?$_Tree_node@V?$basic_string@DU?$char_traits@D@std@@V?$allocator@D@2@@std@@PAX@std@@@std@@@?$_Tree_node@V?$basic_string@DU?$char_traits@D@std@@V?$allocator@D@2@@std@@PAX@std@@SAPAU01@AAV?$allocator@U?$_Tree_node@V?$basic_string@DU?$char_traits@D@std@@V?$allocator@D@2@@std@@PAX@std@@@1@@Z ; std::_Tree_node<std::basic_string<char,std::char_traits<char>,std::allocator<char> >,void *>::_Buyheadnode<std::allocator<std::_Tree_node<std::basic_string<char,std::char_traits<char>,std::allocator<char> >,void *> > >
PUBLIC	??$_Freenode@V?$allocator@U?$_Tree_node@V?$basic_string@DU?$char_traits@D@std@@V?$allocator@D@2@@std@@PAX@std@@@std@@@?$_Tree_node@V?$basic_string@DU?$char_traits@D@std@@V?$allocator@D@2@@std@@PAX@std@@SAXAAV?$allocator@U?$_Tree_node@V?$basic_string@DU?$char_traits@D@std@@V?$allocator@D@2@@std@@PAX@std@@@1@PAU01@@Z ; std::_Tree_node<std::basic_string<char,std::char_traits<char>,std::allocator<char> >,void *>::_Freenode<std::allocator<std::_Tree_node<std::basic_string<char,std::char_traits<char>,std::allocator<char> >,void *> > >
PUBLIC	??$_Emplace@V?$basic_string@DU?$char_traits@D@std@@V?$allocator@D@2@@std@@@?$_Tree@V?$_Tset_traits@V?$basic_string@DU?$char_traits@D@std@@V?$allocator@D@2@@std@@U?$less@V?$basic_string@DU?$char_traits@D@std@@V?$allocator@D@2@@std@@@2@V?$allocator@V?$basic_string@DU?$char_traits@D@std@@V?$allocator@D@2@@std@@@2@$0A@@std@@@std@@IAE?AU?$pair@PAU?$_Tree_node@V?$basic_string@DU?$char_traits@D@std@@V?$allocator@D@2@@std@@PAX@std@@_N@1@$$QAV?$basic_string@DU?$char_traits@D@std@@V?$allocator@D@2@@1@@Z ; std::_Tree<std::_Tset_traits<std::basic_string<char,std::char_traits<char>,std::allocator<char> >,std::less<std::basic_string<char,std::char_traits<char>,std::allocator<char> > >,std::allocator<std::basic_string<char,std::char_traits<char>,std::allocator<char> > >,0> >::_Emplace<std::basic_string<char,std::char_traits<char>,std::allocator<char> > >
PUBLIC	??$_Find_lower_bound@V?$basic_string@DU?$char_traits@D@std@@V?$allocator@D@2@@std@@@?$_Tree@V?$_Tmap_traits@V?$basic_string@DU?$char_traits@D@std@@V?$allocator@D@2@@std@@EU?$less@V?$basic_string@DU?$char_traits@D@std@@V?$allocator@D@2@@std@@@2@V?$allocator@U?$pair@$$CBV?$basic_string@DU?$char_traits@D@std@@V?$allocator@D@2@@std@@E@std@@@2@$0A@@std@@@std@@IBE?AU?$_Tree_find_result@PAU?$_Tree_node@U?$pair@$$CBV?$basic_string@DU?$char_traits@D@std@@V?$allocator@D@2@@std@@E@std@@PAX@std@@@1@ABV?$basic_string@DU?$char_traits@D@std@@V?$allocator@D@2@@1@@Z ; std::_Tree<std::_Tmap_traits<std::basic_string<char,std::char_traits<char>,std::allocator<char> >,unsigned char,std::less<std::basic_string<char,std::char_traits<char>,std::allocator<char> > >,std::allocator<std::pair<std::basic_string<char,std::char_traits<char>,std::allocator<char> > const ,unsigned char> >,0> >::_Find_lower_bound<std::basic_string<char,std::char_traits<char>,std::allocator<char> > >
PUBLIC	??$_Lower_bound_duplicate@V?$basic_string@DU?$char_traits@D@std@@V?$allocator@D@2@@std@@@?$_Tree@V?$_Tmap_traits@V?$basic_string@DU?$char_traits@D@std@@V?$allocator@D@2@@std@@EU?$less@V?$basic_string@DU?$char_traits@D@std@@V?$allocator@D@2@@std@@@2@V?$allocator@U?$pair@$$CBV?$basic_string@DU?$char_traits@D@std@@V?$allocator@D@2@@std@@E@std@@@2@$0A@@std@@@std@@IBE_NQAU?$_Tree_node@U?$pair@$$CBV?$basic_string@DU?$char_traits@D@std@@V?$allocator@D@2@@std@@E@std@@PAX@1@ABV?$basic_string@DU?$char_traits@D@std@@V?$allocator@D@2@@1@@Z ; std::_Tree<std::_Tmap_traits<std::basic_string<char,std::char_traits<char>,std::allocator<char> >,unsigned char,std::less<std::basic_string<char,std::char_traits<char>,std::allocator<char> > >,std::allocator<std::pair<std::basic_string<char,std::char_traits<char>,std::allocator<char> > const ,unsigned char> >,0> >::_Lower_bound_duplicate<std::basic_string<char,std::char_traits<char>,std::allocator<char> > >
PUBLIC	?_Allocate@?$_Alloc_construct_ptr@V?$allocator@U?$_Tree_node@U?$pair@$$CBV?$basic_string@DU?$char_traits@D@std@@V?$allocator@D@2@@std@@E@std@@PAX@std@@@std@@@std@@QAEXXZ ; std::_Alloc_construct_ptr<std::allocator<std::_Tree_node<std::pair<std::basic_string<char,std::char_traits<char>,std::allocator<char> > const ,unsigned char>,void *> > >::_Allocate
PUBLIC	??1?$_Alloc_construct_ptr@V?$allocator@U?$_Tree_node@U?$pair@$$CBV?$basic_string@DU?$char_traits@D@std@@V?$allocator@D@2@@std@@E@std@@PAX@std@@@std@@@std@@QAE@XZ ; std::_Alloc_construct_ptr<std::allocator<std::_Tree_node<std::pair<std::basic_string<char,std::char_traits<char>,std::allocator<char> > const ,unsigned char>,void *> > >::~_Alloc_construct_ptr<std::allocator<std::_Tree_node<std::pair<std::basic_string<char,std::char_traits<char>,std::allocator<char> > const ,unsigned char>,void *> > >
PUBLIC	??1?$_Tree_temp_node_alloc@V?$allocator@U?$_Tree_node@U?$pair@$$CBV?$basic_string@DU?$char_traits@D@std@@V?$allocator@D@2@@std@@E@std@@PAX@std@@@std@@@std@@QAE@XZ ; std::_Tree_temp_node_alloc<std::allocator<std::_Tree_node<std::pair<std::basic_string<char,std::char_traits<char>,std::allocator<char> > const ,unsigned char>,void *> > >::~_Tree_temp_node_alloc<std::allocator<std::_Tree_node<std::pair<std::basic_string<char,std::char_traits<char>,std::allocator<char> > const ,unsigned char>,void *> > >
PUBLIC	??1?$_Tree_temp_node@V?$allocator@U?$_Tree_node@U?$pair@$$CBV?$basic_string@DU?$char_traits@D@std@@V?$allocator@D@2@@std@@E@std@@PAX@std@@@std@@@std@@QAE@XZ ; std::_Tree_temp_node<std::allocator<std::_Tree_node<std::pair<std::basic_string<char,std::char_traits<char>,std::allocator<char> > const ,unsigned char>,void *> > >::~_Tree_temp_node<std::allocator<std::_Tree_node<std::pair<std::basic_string<char,std::char_traits<char>,std::allocator<char> > const ,unsigned char>,void *> > >
PUBLIC	??$?0ABUpiecewise_construct_t@std@@V?$tuple@$$QAV?$basic_string@DU?$char_traits@D@std@@V?$allocator@D@2@@std@@@1@V?$tuple@$$V@1@@?$_Tree_temp_node@V?$allocator@U?$_Tree_node@U?$pair@$$CBV?$basic_string@DU?$char_traits@D@std@@V?$allocator@D@2@@std@@E@std@@PAX@std@@@std@@@std@@QAE@AAV?$allocator@U?$_Tree_node@U?$pair@$$CBV?$basic_string@DU?$char_traits@D@std@@V?$allocator@D@2@@std@@E@std@@PAX@std@@@1@PAU?$_Tree_node@U?$pair@$$CBV?$basic_string@DU?$char_traits@D@std@@V?$allocator@D@2@@std@@E@std@@PAX@1@ABUpiecewise_construct_t@1@$$QAV?$tuple@$$QAV?$basic_string@DU?$char_traits@D@std@@V?$allocator@D@2@@std@@@1@$$QAV?$tuple@$$V@1@@Z ; std::_Tree_temp_node<std::allocator<std::_Tree_node<std::pair<std::basic_string<char,std::char_traits<char>,std::allocator<char> > const ,unsigned char>,void *> > >::_Tree_temp_node<std::allocator<std::_Tree_node<std::pair<std::basic_string<char,std::char_traits<char>,std::allocator<char> > const ,unsigned char>,void *> > ><std::piecewise_construct_t const &,std::tuple<std::basic_string<char,std::char_traits<char>,std::allocator<char> > &&>,std::tuple<> >
PUBLIC	??$_Freenode0@V?$allocator@U?$_Tree_node@U?$pair@$$CBV?$basic_string@DU?$char_traits@D@std@@V?$allocator@D@2@@std@@E@std@@PAX@std@@@std@@@?$_Tree_node@U?$pair@$$CBV?$basic_string@DU?$char_traits@D@std@@V?$allocator@D@2@@std@@E@std@@PAX@std@@SAXAAV?$allocator@U?$_Tree_node@U?$pair@$$CBV?$basic_string@DU?$char_traits@D@std@@V?$allocator@D@2@@std@@E@std@@PAX@std@@@1@PAU01@@Z ; std::_Tree_node<std::pair<std::basic_string<char,std::char_traits<char>,std::allocator<char> > const ,unsigned char>,void *>::_Freenode0<std::allocator<std::_Tree_node<std::pair<std::basic_string<char,std::char_traits<char>,std::allocator<char> > const ,unsigned char>,void *> > >
PUBLIC	??$_Find_lower_bound@V?$basic_string@DU?$char_traits@D@std@@V?$allocator@D@2@@std@@@?$_Tree@V?$_Tset_traits@V?$basic_string@DU?$char_traits@D@std@@V?$allocator@D@2@@std@@U?$less@V?$basic_string@DU?$char_traits@D@std@@V?$allocator@D@2@@std@@@2@V?$allocator@V?$basic_string@DU?$char_traits@D@std@@V?$allocator@D@2@@std@@@2@$0A@@std@@@std@@IBE?AU?$_Tree_find_result@PAU?$_Tree_node@V?$basic_string@DU?$char_traits@D@std@@V?$allocator@D@2@@std@@PAX@std@@@1@ABV?$basic_string@DU?$char_traits@D@std@@V?$allocator@D@2@@1@@Z ; std::_Tree<std::_Tset_traits<std::basic_string<char,std::char_traits<char>,std::allocator<char> >,std::less<std::basic_string<char,std::char_traits<char>,std::allocator<char> > >,std::allocator<std::basic_string<char,std::char_traits<char>,std::allocator<char> > >,0> >::_Find_lower_bound<std::basic_string<char,std::char_traits<char>,std::allocator<char> > >
PUBLIC	??$_Freenode0@V?$allocator@U?$_Tree_node@V?$basic_string@DU?$char_traits@D@std@@V?$allocator@D@2@@std@@PAX@std@@@std@@@?$_Tree_node@V?$basic_string@DU?$char_traits@D@std@@V?$allocator@D@2@@std@@PAX@std@@SAXAAV?$allocator@U?$_Tree_node@V?$basic_string@DU?$char_traits@D@std@@V?$allocator@D@2@@std@@PAX@std@@@1@PAU01@@Z ; std::_Tree_node<std::basic_string<char,std::char_traits<char>,std::allocator<char> >,void *>::_Freenode0<std::allocator<std::_Tree_node<std::basic_string<char,std::char_traits<char>,std::allocator<char> >,void *> > >
PUBLIC	??$_Construct_in_place@PAU?$_Tree_node@U?$pair@$$CBV?$basic_string@DU?$char_traits@D@std@@V?$allocator@D@2@@std@@E@std@@PAX@std@@ABQAU12@@std@@YAXAAPAU?$_Tree_node@U?$pair@$$CBV?$basic_string@DU?$char_traits@D@std@@V?$allocator@D@2@@std@@E@std@@PAX@0@ABQAU10@@Z ; std::_Construct_in_place<std::_Tree_node<std::pair<std::basic_string<char,std::char_traits<char>,std::allocator<char> > const ,unsigned char>,void *> *,std::_Tree_node<std::pair<std::basic_string<char,std::char_traits<char>,std::allocator<char> > const ,unsigned char>,void *> * const &>
PUBLIC	??$_Construct_in_place@PAU?$_Tree_node@V?$basic_string@DU?$char_traits@D@std@@V?$allocator@D@2@@std@@PAX@std@@ABQAU12@@std@@YAXAAPAU?$_Tree_node@V?$basic_string@DU?$char_traits@D@std@@V?$allocator@D@2@@std@@PAX@0@ABQAU10@@Z ; std::_Construct_in_place<std::_Tree_node<std::basic_string<char,std::char_traits<char>,std::allocator<char> >,void *> *,std::_Tree_node<std::basic_string<char,std::char_traits<char>,std::allocator<char> >,void *> * const &>
PUBLIC	??$_Destroy_in_place@PAU?$_Tree_node@U?$pair@$$CBV?$basic_string@DU?$char_traits@D@std@@V?$allocator@D@2@@std@@E@std@@PAX@std@@@std@@YAXAAPAU?$_Tree_node@U?$pair@$$CBV?$basic_string@DU?$char_traits@D@std@@V?$allocator@D@2@@std@@E@std@@PAX@0@@Z ; std::_Destroy_in_place<std::_Tree_node<std::pair<std::basic_string<char,std::char_traits<char>,std::allocator<char> > const ,unsigned char>,void *> *>
PUBLIC	??$?MDU?$char_traits@D@std@@V?$allocator@D@1@@std@@YA_NABV?$basic_string@DU?$char_traits@D@std@@V?$allocator@D@2@@0@0@Z ; std::operator<<char,std::char_traits<char>,std::allocator<char> >
PUBLIC	?_Allocate@?$_Alloc_construct_ptr@V?$allocator@U?$_Tree_node@V?$basic_string@DU?$char_traits@D@std@@V?$allocator@D@2@@std@@PAX@std@@@std@@@std@@QAEXXZ ; std::_Alloc_construct_ptr<std::allocator<std::_Tree_node<std::basic_string<char,std::char_traits<char>,std::allocator<char> >,void *> > >::_Allocate
PUBLIC	??1?$_Alloc_construct_ptr@V?$allocator@U?$_Tree_node@V?$basic_string@DU?$char_traits@D@std@@V?$allocator@D@2@@std@@PAX@std@@@std@@@std@@QAE@XZ ; std::_Alloc_construct_ptr<std::allocator<std::_Tree_node<std::basic_string<char,std::char_traits<char>,std::allocator<char> >,void *> > >::~_Alloc_construct_ptr<std::allocator<std::_Tree_node<std::basic_string<char,std::char_traits<char>,std::allocator<char> >,void *> > >
PUBLIC	??1?$_Tree_temp_node@V?$allocator@U?$_Tree_node@V?$basic_string@DU?$char_traits@D@std@@V?$allocator@D@2@@std@@PAX@std@@@std@@@std@@QAE@XZ ; std::_Tree_temp_node<std::allocator<std::_Tree_node<std::basic_string<char,std::char_traits<char>,std::allocator<char> >,void *> > >::~_Tree_temp_node<std::allocator<std::_Tree_node<std::basic_string<char,std::char_traits<char>,std::allocator<char> >,void *> > >
PUBLIC	??$?0V?$basic_string@DU?$char_traits@D@std@@V?$allocator@D@2@@std@@@?$_Tree_temp_node@V?$allocator@U?$_Tree_node@V?$basic_string@DU?$char_traits@D@std@@V?$allocator@D@2@@std@@PAX@std@@@std@@@std@@QAE@AAV?$allocator@U?$_Tree_node@V?$basic_string@DU?$char_traits@D@std@@V?$allocator@D@2@@std@@PAX@std@@@1@PAU?$_Tree_node@V?$basic_string@DU?$char_traits@D@std@@V?$allocator@D@2@@std@@PAX@1@$$QAV?$basic_string@DU?$char_traits@D@std@@V?$allocator@D@2@@1@@Z ; std::_Tree_temp_node<std::allocator<std::_Tree_node<std::basic_string<char,std::char_traits<char>,std::allocator<char> >,void *> > >::_Tree_temp_node<std::allocator<std::_Tree_node<std::basic_string<char,std::char_traits<char>,std::allocator<char> >,void *> > ><std::basic_string<char,std::char_traits<char>,std::allocator<char> > >
PUBLIC	??$construct@U?$pair@$$CBV?$basic_string@DU?$char_traits@D@std@@V?$allocator@D@2@@std@@E@std@@ABUpiecewise_construct_t@2@V?$tuple@$$QAV?$basic_string@DU?$char_traits@D@std@@V?$allocator@D@2@@std@@@2@V?$tuple@$$V@2@@?$_Default_allocator_traits@V?$allocator@U?$_Tree_node@U?$pair@$$CBV?$basic_string@DU?$char_traits@D@std@@V?$allocator@D@2@@std@@E@std@@PAX@std@@@std@@@std@@SAXAAV?$allocator@U?$_Tree_node@U?$pair@$$CBV?$basic_string@DU?$char_traits@D@std@@V?$allocator@D@2@@std@@E@std@@PAX@std@@@1@QAU?$pair@$$CBV?$basic_string@DU?$char_traits@D@std@@V?$allocator@D@2@@std@@E@1@ABUpiecewise_construct_t@1@$$QAV?$tuple@$$QAV?$basic_string@DU?$char_traits@D@std@@V?$allocator@D@2@@std@@@1@$$QAV?$tuple@$$V@1@@Z ; std::_Default_allocator_traits<std::allocator<std::_Tree_node<std::pair<std::basic_string<char,std::char_traits<char>,std::allocator<char> > const ,unsigned char>,void *> > >::construct<std::pair<std::basic_string<char,std::char_traits<char>,std::allocator<char> > const ,unsigned char>,std::piecewise_construct_t const &,std::tuple<std::basic_string<char,std::char_traits<char>,std::allocator<char> > &&>,std::tuple<> >
PUBLIC	??$_Construct_in_place@PAU?$_Tree_node@U?$pair@$$CBV?$basic_string@DU?$char_traits@D@std@@V?$allocator@D@2@@std@@E@std@@PAX@std@@AAPAU12@@std@@YAXAAPAU?$_Tree_node@U?$pair@$$CBV?$basic_string@DU?$char_traits@D@std@@V?$allocator@D@2@@std@@E@std@@PAX@0@0@Z ; std::_Construct_in_place<std::_Tree_node<std::pair<std::basic_string<char,std::char_traits<char>,std::allocator<char> > const ,unsigned char>,void *> *,std::_Tree_node<std::pair<std::basic_string<char,std::char_traits<char>,std::allocator<char> > const ,unsigned char>,void *> * &>
PUBLIC	??$_Destroy_in_place@PAU?$_Tree_node@V?$basic_string@DU?$char_traits@D@std@@V?$allocator@D@2@@std@@PAX@std@@@std@@YAXAAPAU?$_Tree_node@V?$basic_string@DU?$char_traits@D@std@@V?$allocator@D@2@@std@@PAX@0@@Z ; std::_Destroy_in_place<std::_Tree_node<std::basic_string<char,std::char_traits<char>,std::allocator<char> >,void *> *>
PUBLIC	??$_Construct_in_place@PAU?$_Tree_node@V?$basic_string@DU?$char_traits@D@std@@V?$allocator@D@2@@std@@PAX@std@@AAPAU12@@std@@YAXAAPAU?$_Tree_node@V?$basic_string@DU?$char_traits@D@std@@V?$allocator@D@2@@std@@PAX@0@0@Z ; std::_Construct_in_place<std::_Tree_node<std::basic_string<char,std::char_traits<char>,std::allocator<char> >,void *> *,std::_Tree_node<std::basic_string<char,std::char_traits<char>,std::allocator<char> >,void *> * &>
PUBLIC	??$?0$$QAV?$basic_string@DU?$char_traits@D@std@@V?$allocator@D@2@@std@@$$Z$$V@?$pair@$$CBV?$basic_string@DU?$char_traits@D@std@@V?$allocator@D@2@@std@@E@std@@QAE@Upiecewise_construct_t@1@V?$tuple@$$QAV?$basic_string@DU?$char_traits@D@std@@V?$allocator@D@2@@std@@@1@V?$tuple@$$V@1@@Z ; std::pair<std::basic_string<char,std::char_traits<char>,std::allocator<char> > const ,unsigned char>::pair<std::basic_string<char,std::char_traits<char>,std::allocator<char> > const ,unsigned char><std::basic_string<char,std::char_traits<char>,std::allocator<char> > &&>
PUBLIC	??_7exception@std@@6B@				; std::exception::`vftable'
PUBLIC	??_C@_0BC@EOODALEL@Unknown?5exception@		; `string'
PUBLIC	??_7bad_alloc@std@@6B@				; std::bad_alloc::`vftable'
PUBLIC	??_7bad_array_new_length@std@@6B@		; std::bad_array_new_length::`vftable'
PUBLIC	??_C@_0BF@KINCDENJ@bad?5array?5new?5length@	; `string'
PUBLIC	__TI3?AVbad_array_new_length@std@@
PUBLIC	__CTA3?AVbad_array_new_length@std@@
PUBLIC	??_R0?AVbad_array_new_length@std@@@8		; std::bad_array_new_length `RTTI Type Descriptor'
PUBLIC	__CT??_R0?AVbad_array_new_length@std@@@8??0bad_array_new_length@std@@QAE@ABV01@@Z12
PUBLIC	??_R0?AVbad_alloc@std@@@8			; std::bad_alloc `RTTI Type Descriptor'
PUBLIC	__CT??_R0?AVbad_alloc@std@@@8??0bad_alloc@std@@QAE@ABV01@@Z12
PUBLIC	??_R0?AVexception@std@@@8			; std::exception `RTTI Type Descriptor'
PUBLIC	__CT??_R0?AVexception@std@@@8??0exception@std@@QAE@ABV01@@Z12
PUBLIC	??_C@_0BA@JFNIOLAK@string?5too?5long@		; `string'
PUBLIC	??_C@_0BB@GCADKGJO@map?1set?5too?5long@		; `string'
PUBLIC	??_R4exception@std@@6B@				; std::exception::`RTTI Complete Object Locator'
PUBLIC	??_R3exception@std@@8				; std::exception::`RTTI Class Hierarchy Descriptor'
PUBLIC	??_R2exception@std@@8				; std::exception::`RTTI Base Class Array'
PUBLIC	??_R1A@?0A@EA@exception@std@@8			; std::exception::`RTTI Base Class Descriptor at (0,-1,0,64)'
PUBLIC	??_R4bad_alloc@std@@6B@				; std::bad_alloc::`RTTI Complete Object Locator'
PUBLIC	??_R3bad_alloc@std@@8				; std::bad_alloc::`RTTI Class Hierarchy Descriptor'
PUBLIC	??_R2bad_alloc@std@@8				; std::bad_alloc::`RTTI Base Class Array'
PUBLIC	??_R1A@?0A@EA@bad_alloc@std@@8			; std::bad_alloc::`RTTI Base Class Descriptor at (0,-1,0,64)'
PUBLIC	??_R4bad_array_new_length@std@@6B@		; std::bad_array_new_length::`RTTI Complete Object Locator'
PUBLIC	??_R3bad_array_new_length@std@@8		; std::bad_array_new_length::`RTTI Class Hierarchy Descriptor'
PUBLIC	??_R2bad_array_new_length@std@@8		; std::bad_array_new_length::`RTTI Base Class Array'
PUBLIC	??_R1A@?0A@EA@bad_array_new_length@std@@8	; std::bad_array_new_length::`RTTI Base Class Descriptor at (0,-1,0,64)'
PUBLIC	?ms_singleton@?$CSingleton@VCPythonMessenger@@@@0PAVCPythonMessenger@@A ; CSingleton<CPythonMessenger>::ms_singleton
PUBLIC	??_7?$CSingleton@VCPythonMessenger@@@@6B@	; CSingleton<CPythonMessenger>::`vftable'
PUBLIC	??_7CPythonMessenger@@6B@			; CPythonMessenger::`vftable'
PUBLIC	??_C@_04JMLDJNEM@?$CIis?$CJ@			; `string'
PUBLIC	??_C@_07MIJIJENI@OnLogin@			; `string'
PUBLIC	??_C@_08PGILGNMN@OnLogout@			; `string'
PUBLIC	??_C@_05ELCKKMAN@?$CIisi?$CJ@			; `string'
PUBLIC	??_C@_08PNFJANDK@OnMobile@			; `string'
PUBLIC	??_C@_0N@JKGCBAC@OnRemoveList@			; `string'
PUBLIC	??_C@_03LIHNMIHG@?$CIi?$CJ@			; `string'
PUBLIC	??_C@_0BA@EBIIGMFE@OnRemoveAllList@		; `string'
PUBLIC	??_C@_01KBJDNOO@i@				; `string'
PUBLIC	??_C@_0N@DDIBAGBA@RemoveFriend@			; `string'
PUBLIC	??_C@_0P@MIIAENPB@IsFriendByName@		; `string'
PUBLIC	??_C@_07BDCAJABG@Destroy@			; `string'
PUBLIC	??_C@_0BD@OFJPBLFD@RefreshGuildMember@		; `string'
PUBLIC	??_C@_0BE@HJGPMMFC@SetMessengerHandler@		; `string'
PUBLIC	??_C@_09FKBIAKKH@messenger@			; `string'
PUBLIC	??_R4CPythonMessenger@@6B@			; CPythonMessenger::`RTTI Complete Object Locator'
PUBLIC	??_R0?AVCPythonMessenger@@@8			; CPythonMessenger `RTTI Type Descriptor'
PUBLIC	??_R3CPythonMessenger@@8			; CPythonMessenger::`RTTI Class Hierarchy Descriptor'
PUBLIC	??_R2CPythonMessenger@@8			; CPythonMessenger::`RTTI Base Class Array'
PUBLIC	??_R1A@?0A@EA@CPythonMessenger@@8		; CPythonMessenger::`RTTI Base Class Descriptor at (0,-1,0,64)'
PUBLIC	??_R1A@?0A@EA@?$CSingleton@VCPythonMessenger@@@@8 ; CSingleton<CPythonMessenger>::`RTTI Base Class Descriptor at (0,-1,0,64)'
PUBLIC	??_R0?AV?$CSingleton@VCPythonMessenger@@@@@8	; CSingleton<CPythonMessenger> `RTTI Type Descriptor'
PUBLIC	??_R3?$CSingleton@VCPythonMessenger@@@@8	; CSingleton<CPythonMessenger>::`RTTI Class Hierarchy Descriptor'
PUBLIC	??_R2?$CSingleton@VCPythonMessenger@@@@8	; CSingleton<CPythonMessenger>::`RTTI Base Class Array'
PUBLIC	??_R4?$CSingleton@VCPythonMessenger@@@@6B@	; CSingleton<CPythonMessenger>::`RTTI Complete Object Locator'
EXTRN	??2@YAPAXI@Z:PROC				; operator new
EXTRN	??3@YAXPAXI@Z:PROC				; operator delete
EXTRN	__invalid_parameter_noinfo_noreturn:PROC
EXTRN	_memcmp:PROC
EXTRN	_memcpy:PROC
EXTRN	_memmove:PROC
EXTRN	_strlen:PROC
EXTRN	___std_exception_copy:PROC
EXTRN	___std_exception_destroy:PROC
EXTRN	??_Eexception@std@@UAEPAXI@Z:PROC		; std::exception::`vector deleting destructor'
EXTRN	??_Ebad_alloc@std@@UAEPAXI@Z:PROC		; std::bad_alloc::`vector deleting destructor'
EXTRN	??_Ebad_array_new_length@std@@UAEPAXI@Z:PROC	; std::bad_array_new_length::`vector deleting destructor'
EXTRN	?_Xlength_error@std@@YAXPBD@Z:PROC		; std::_Xlength_error
EXTRN	__imp__Py_BuildValue:PROC
EXTRN	__imp__Py_InitModule4:PROC
EXTRN	?PyTuple_GetString@@YA_NPAU_object@@HPAPAD@Z:PROC ; PyTuple_GetString
EXTRN	?PyTuple_GetObject@@YA_NPAU_object@@HPAPAU1@@Z:PROC ; PyTuple_GetObject
EXTRN	?PyCallClassMemberFunc@@YA_NPAU_object@@PBD0@Z:PROC ; PyCallClassMemberFunc
EXTRN	?Py_BuildException@@YAPAU_object@@PBDZZ:PROC	; Py_BuildException
EXTRN	?Py_BuildNone@@YAPAU_object@@XZ:PROC		; Py_BuildNone
EXTRN	??_E?$CSingleton@VCPythonMessenger@@@@UAEPAXI@Z:PROC ; CSingleton<CPythonMessenger>::`vector deleting destructor'
EXTRN	??_ECPythonMessenger@@UAEPAXI@Z:PROC		; CPythonMessenger::`vector deleting destructor'
EXTRN	@__security_check_cookie@4:PROC
EXTRN	__CxxThrowException@8:PROC
EXTRN	___CxxFrameHandler3:PROC
EXTRN	??_7type_info@@6B@:QWORD			; type_info::`vftable'
EXTRN	___security_cookie:DWORD
;	COMDAT ?ms_singleton@?$CSingleton@VCPythonMessenger@@@@0PAVCPythonMessenger@@A
_BSS	SEGMENT
?ms_singleton@?$CSingleton@VCPythonMessenger@@@@0PAVCPythonMessenger@@A DD 01H DUP (?) ; CSingleton<CPythonMessenger>::ms_singleton
_BSS	ENDS
;	COMDAT ??_R4?$CSingleton@VCPythonMessenger@@@@6B@
rdata$r	SEGMENT
??_R4?$CSingleton@VCPythonMessenger@@@@6B@ DD 00H	; CSingleton<CPythonMessenger>::`RTTI Complete Object Locator'
	DD	00H
	DD	00H
	DD	FLAT:??_R0?AV?$CSingleton@VCPythonMessenger@@@@@8
	DD	FLAT:??_R3?$CSingleton@VCPythonMessenger@@@@8
rdata$r	ENDS
;	COMDAT ??_R2?$CSingleton@VCPythonMessenger@@@@8
rdata$r	SEGMENT
??_R2?$CSingleton@VCPythonMessenger@@@@8 DD FLAT:??_R1A@?0A@EA@?$CSingleton@VCPythonMessenger@@@@8 ; CSingleton<CPythonMessenger>::`RTTI Base Class Array'
rdata$r	ENDS
;	COMDAT ??_R3?$CSingleton@VCPythonMessenger@@@@8
rdata$r	SEGMENT
??_R3?$CSingleton@VCPythonMessenger@@@@8 DD 00H		; CSingleton<CPythonMessenger>::`RTTI Class Hierarchy Descriptor'
	DD	00H
	DD	01H
	DD	FLAT:??_R2?$CSingleton@VCPythonMessenger@@@@8
rdata$r	ENDS
;	COMDAT ??_R0?AV?$CSingleton@VCPythonMessenger@@@@@8
data$rs	SEGMENT
??_R0?AV?$CSingleton@VCPythonMessenger@@@@@8 DD FLAT:??_7type_info@@6B@ ; CSingleton<CPythonMessenger> `RTTI Type Descriptor'
	DD	00H
	DB	'.?AV?$CSingleton@VCPythonMessenger@@@@', 00H
data$rs	ENDS
;	COMDAT ??_R1A@?0A@EA@?$CSingleton@VCPythonMessenger@@@@8
rdata$r	SEGMENT
??_R1A@?0A@EA@?$CSingleton@VCPythonMessenger@@@@8 DD FLAT:??_R0?AV?$CSingleton@VCPythonMessenger@@@@@8 ; CSingleton<CPythonMessenger>::`RTTI Base Class Descriptor at (0,-1,0,64)'
	DD	00H
	DD	00H
	DD	0ffffffffH
	DD	00H
	DD	040H
	DD	FLAT:??_R3?$CSingleton@VCPythonMessenger@@@@8
rdata$r	ENDS
;	COMDAT ??_R1A@?0A@EA@CPythonMessenger@@8
rdata$r	SEGMENT
??_R1A@?0A@EA@CPythonMessenger@@8 DD FLAT:??_R0?AVCPythonMessenger@@@8 ; CPythonMessenger::`RTTI Base Class Descriptor at (0,-1,0,64)'
	DD	01H
	DD	00H
	DD	0ffffffffH
	DD	00H
	DD	040H
	DD	FLAT:??_R3CPythonMessenger@@8
rdata$r	ENDS
;	COMDAT ??_R2CPythonMessenger@@8
rdata$r	SEGMENT
??_R2CPythonMessenger@@8 DD FLAT:??_R1A@?0A@EA@CPythonMessenger@@8 ; CPythonMessenger::`RTTI Base Class Array'
	DD	FLAT:??_R1A@?0A@EA@?$CSingleton@VCPythonMessenger@@@@8
rdata$r	ENDS
;	COMDAT ??_R3CPythonMessenger@@8
rdata$r	SEGMENT
??_R3CPythonMessenger@@8 DD 00H				; CPythonMessenger::`RTTI Class Hierarchy Descriptor'
	DD	00H
	DD	02H
	DD	FLAT:??_R2CPythonMessenger@@8
rdata$r	ENDS
;	COMDAT ??_R0?AVCPythonMessenger@@@8
data$rs	SEGMENT
??_R0?AVCPythonMessenger@@@8 DD FLAT:??_7type_info@@6B@	; CPythonMessenger `RTTI Type Descriptor'
	DD	00H
	DB	'.?AVCPythonMessenger@@', 00H
data$rs	ENDS
;	COMDAT ??_R4CPythonMessenger@@6B@
rdata$r	SEGMENT
??_R4CPythonMessenger@@6B@ DD 00H			; CPythonMessenger::`RTTI Complete Object Locator'
	DD	00H
	DD	00H
	DD	FLAT:??_R0?AVCPythonMessenger@@@8
	DD	FLAT:??_R3CPythonMessenger@@8
rdata$r	ENDS
;	COMDAT ??_C@_09FKBIAKKH@messenger@
CONST	SEGMENT
??_C@_09FKBIAKKH@messenger@ DB 'messenger', 00H		; `string'
CONST	ENDS
;	COMDAT ??_C@_0BE@HJGPMMFC@SetMessengerHandler@
CONST	SEGMENT
??_C@_0BE@HJGPMMFC@SetMessengerHandler@ DB 'SetMessengerHandler', 00H ; `string'
CONST	ENDS
;	COMDAT ??_C@_0BD@OFJPBLFD@RefreshGuildMember@
CONST	SEGMENT
??_C@_0BD@OFJPBLFD@RefreshGuildMember@ DB 'RefreshGuildMember', 00H ; `string'
CONST	ENDS
;	COMDAT ??_C@_07BDCAJABG@Destroy@
CONST	SEGMENT
??_C@_07BDCAJABG@Destroy@ DB 'Destroy', 00H		; `string'
CONST	ENDS
;	COMDAT ??_C@_0P@MIIAENPB@IsFriendByName@
CONST	SEGMENT
??_C@_0P@MIIAENPB@IsFriendByName@ DB 'IsFriendByName', 00H ; `string'
CONST	ENDS
;	COMDAT ??_C@_0N@DDIBAGBA@RemoveFriend@
CONST	SEGMENT
??_C@_0N@DDIBAGBA@RemoveFriend@ DB 'RemoveFriend', 00H	; `string'
CONST	ENDS
;	COMDAT ?s_methods@?1??initMessenger@@YAXXZ@4PAUPyMethodDef@@A
_DATA	SEGMENT
?s_methods@?1??initMessenger@@YAXXZ@4PAUPyMethodDef@@A DD FLAT:??_C@_0N@DDIBAGBA@RemoveFriend@ ; `initMessenger'::`2'::s_methods
	DD	FLAT:?messengerRemoveFriend@@YAPAU_object@@PAU1@0@Z
	DD	01H
	ORG $+4
	DD	FLAT:??_C@_0P@MIIAENPB@IsFriendByName@
	DD	FLAT:?messengerIsFriendByName@@YAPAU_object@@PAU1@0@Z
	DD	01H
	ORG $+4
	DD	FLAT:??_C@_07BDCAJABG@Destroy@
	DD	FLAT:?messengerDestroy@@YAPAU_object@@PAU1@0@Z
	DD	01H
	ORG $+4
	DD	FLAT:??_C@_0BD@OFJPBLFD@RefreshGuildMember@
	DD	FLAT:?messengerRefreshGuildMember@@YAPAU_object@@PAU1@0@Z
	DD	01H
	ORG $+4
	DD	FLAT:??_C@_0BE@HJGPMMFC@SetMessengerHandler@
	DD	FLAT:?messengerSetMessengerHandler@@YAPAU_object@@PAU1@0@Z
	DD	01H
	ORG $+4
	DD	00H
	DD	00H
	DD	00H
	ORG $+4
_DATA	ENDS
;	COMDAT ??_C@_01KBJDNOO@i@
CONST	SEGMENT
??_C@_01KBJDNOO@i@ DB 'i', 00H				; `string'
CONST	ENDS
;	COMDAT ??_C@_0BA@EBIIGMFE@OnRemoveAllList@
CONST	SEGMENT
??_C@_0BA@EBIIGMFE@OnRemoveAllList@ DB 'OnRemoveAllList', 00H ; `string'
CONST	ENDS
;	COMDAT ??_C@_03LIHNMIHG@?$CIi?$CJ@
CONST	SEGMENT
??_C@_03LIHNMIHG@?$CIi?$CJ@ DB '(i)', 00H		; `string'
CONST	ENDS
;	COMDAT ??_C@_0N@JKGCBAC@OnRemoveList@
CONST	SEGMENT
??_C@_0N@JKGCBAC@OnRemoveList@ DB 'OnRemoveList', 00H	; `string'
CONST	ENDS
;	COMDAT ??_C@_08PNFJANDK@OnMobile@
CONST	SEGMENT
??_C@_08PNFJANDK@OnMobile@ DB 'OnMobile', 00H		; `string'
CONST	ENDS
;	COMDAT ??_C@_05ELCKKMAN@?$CIisi?$CJ@
CONST	SEGMENT
??_C@_05ELCKKMAN@?$CIisi?$CJ@ DB '(isi)', 00H		; `string'
CONST	ENDS
;	COMDAT ??_C@_08PGILGNMN@OnLogout@
CONST	SEGMENT
??_C@_08PGILGNMN@OnLogout@ DB 'OnLogout', 00H		; `string'
CONST	ENDS
;	COMDAT ??_C@_07MIJIJENI@OnLogin@
CONST	SEGMENT
??_C@_07MIJIJENI@OnLogin@ DB 'OnLogin', 00H		; `string'
CONST	ENDS
;	COMDAT ??_C@_04JMLDJNEM@?$CIis?$CJ@
CONST	SEGMENT
??_C@_04JMLDJNEM@?$CIis?$CJ@ DB '(is)', 00H		; `string'
CONST	ENDS
;	COMDAT ??_7CPythonMessenger@@6B@
CONST	SEGMENT
??_7CPythonMessenger@@6B@ DD FLAT:??_R4CPythonMessenger@@6B@ ; CPythonMessenger::`vftable'
	DD	FLAT:??_ECPythonMessenger@@UAEPAXI@Z
CONST	ENDS
;	COMDAT ??_7?$CSingleton@VCPythonMessenger@@@@6B@
CONST	SEGMENT
??_7?$CSingleton@VCPythonMessenger@@@@6B@ DD FLAT:??_R4?$CSingleton@VCPythonMessenger@@@@6B@ ; CSingleton<CPythonMessenger>::`vftable'
	DD	FLAT:??_E?$CSingleton@VCPythonMessenger@@@@UAEPAXI@Z
CONST	ENDS
;	COMDAT ??_R1A@?0A@EA@bad_array_new_length@std@@8
rdata$r	SEGMENT
??_R1A@?0A@EA@bad_array_new_length@std@@8 DD FLAT:??_R0?AVbad_array_new_length@std@@@8 ; std::bad_array_new_length::`RTTI Base Class Descriptor at (0,-1,0,64)'
	DD	02H
	DD	00H
	DD	0ffffffffH
	DD	00H
	DD	040H
	DD	FLAT:??_R3bad_array_new_length@std@@8
rdata$r	ENDS
;	COMDAT ??_R2bad_array_new_length@std@@8
rdata$r	SEGMENT
??_R2bad_array_new_length@std@@8 DD FLAT:??_R1A@?0A@EA@bad_array_new_length@std@@8 ; std::bad_array_new_length::`RTTI Base Class Array'
	DD	FLAT:??_R1A@?0A@EA@bad_alloc@std@@8
	DD	FLAT:??_R1A@?0A@EA@exception@std@@8
rdata$r	ENDS
;	COMDAT ??_R3bad_array_new_length@std@@8
rdata$r	SEGMENT
??_R3bad_array_new_length@std@@8 DD 00H			; std::bad_array_new_length::`RTTI Class Hierarchy Descriptor'
	DD	00H
	DD	03H
	DD	FLAT:??_R2bad_array_new_length@std@@8
rdata$r	ENDS
;	COMDAT ??_R4bad_array_new_length@std@@6B@
rdata$r	SEGMENT
??_R4bad_array_new_length@std@@6B@ DD 00H		; std::bad_array_new_length::`RTTI Complete Object Locator'
	DD	00H
	DD	00H
	DD	FLAT:??_R0?AVbad_array_new_length@std@@@8
	DD	FLAT:??_R3bad_array_new_length@std@@8
rdata$r	ENDS
;	COMDAT ??_R1A@?0A@EA@bad_alloc@std@@8
rdata$r	SEGMENT
??_R1A@?0A@EA@bad_alloc@std@@8 DD FLAT:??_R0?AVbad_alloc@std@@@8 ; std::bad_alloc::`RTTI Base Class Descriptor at (0,-1,0,64)'
	DD	01H
	DD	00H
	DD	0ffffffffH
	DD	00H
	DD	040H
	DD	FLAT:??_R3bad_alloc@std@@8
rdata$r	ENDS
;	COMDAT ??_R2bad_alloc@std@@8
rdata$r	SEGMENT
??_R2bad_alloc@std@@8 DD FLAT:??_R1A@?0A@EA@bad_alloc@std@@8 ; std::bad_alloc::`RTTI Base Class Array'
	DD	FLAT:??_R1A@?0A@EA@exception@std@@8
rdata$r	ENDS
;	COMDAT ??_R3bad_alloc@std@@8
rdata$r	SEGMENT
??_R3bad_alloc@std@@8 DD 00H				; std::bad_alloc::`RTTI Class Hierarchy Descriptor'
	DD	00H
	DD	02H
	DD	FLAT:??_R2bad_alloc@std@@8
rdata$r	ENDS
;	COMDAT ??_R4bad_alloc@std@@6B@
rdata$r	SEGMENT
??_R4bad_alloc@std@@6B@ DD 00H				; std::bad_alloc::`RTTI Complete Object Locator'
	DD	00H
	DD	00H
	DD	FLAT:??_R0?AVbad_alloc@std@@@8
	DD	FLAT:??_R3bad_alloc@std@@8
rdata$r	ENDS
;	COMDAT ??_R1A@?0A@EA@exception@std@@8
rdata$r	SEGMENT
??_R1A@?0A@EA@exception@std@@8 DD FLAT:??_R0?AVexception@std@@@8 ; std::exception::`RTTI Base Class Descriptor at (0,-1,0,64)'
	DD	00H
	DD	00H
	DD	0ffffffffH
	DD	00H
	DD	040H
	DD	FLAT:??_R3exception@std@@8
rdata$r	ENDS
;	COMDAT ??_R2exception@std@@8
rdata$r	SEGMENT
??_R2exception@std@@8 DD FLAT:??_R1A@?0A@EA@exception@std@@8 ; std::exception::`RTTI Base Class Array'
rdata$r	ENDS
;	COMDAT ??_R3exception@std@@8
rdata$r	SEGMENT
??_R3exception@std@@8 DD 00H				; std::exception::`RTTI Class Hierarchy Descriptor'
	DD	00H
	DD	01H
	DD	FLAT:??_R2exception@std@@8
rdata$r	ENDS
;	COMDAT ??_R4exception@std@@6B@
rdata$r	SEGMENT
??_R4exception@std@@6B@ DD 00H				; std::exception::`RTTI Complete Object Locator'
	DD	00H
	DD	00H
	DD	FLAT:??_R0?AVexception@std@@@8
	DD	FLAT:??_R3exception@std@@8
rdata$r	ENDS
;	COMDAT ??_C@_0BB@GCADKGJO@map?1set?5too?5long@
CONST	SEGMENT
??_C@_0BB@GCADKGJO@map?1set?5too?5long@ DB 'map/set too long', 00H ; `string'
CONST	ENDS
;	COMDAT ??_C@_0BA@JFNIOLAK@string?5too?5long@
CONST	SEGMENT
??_C@_0BA@JFNIOLAK@string?5too?5long@ DB 'string too long', 00H ; `string'
CONST	ENDS
;	COMDAT __CT??_R0?AVexception@std@@@8??0exception@std@@QAE@ABV01@@Z12
xdata$x	SEGMENT
__CT??_R0?AVexception@std@@@8??0exception@std@@QAE@ABV01@@Z12 DD 00H
	DD	FLAT:??_R0?AVexception@std@@@8
	DD	00H
	DD	0ffffffffH
	ORG $+4
	DD	0cH
	DD	FLAT:??0exception@std@@QAE@ABV01@@Z
xdata$x	ENDS
;	COMDAT ??_R0?AVexception@std@@@8
data$r	SEGMENT
??_R0?AVexception@std@@@8 DD FLAT:??_7type_info@@6B@	; std::exception `RTTI Type Descriptor'
	DD	00H
	DB	'.?AVexception@std@@', 00H
data$r	ENDS
;	COMDAT __CT??_R0?AVbad_alloc@std@@@8??0bad_alloc@std@@QAE@ABV01@@Z12
xdata$x	SEGMENT
__CT??_R0?AVbad_alloc@std@@@8??0bad_alloc@std@@QAE@ABV01@@Z12 DD 010H
	DD	FLAT:??_R0?AVbad_alloc@std@@@8
	DD	00H
	DD	0ffffffffH
	ORG $+4
	DD	0cH
	DD	FLAT:??0bad_alloc@std@@QAE@ABV01@@Z
xdata$x	ENDS
;	COMDAT ??_R0?AVbad_alloc@std@@@8
data$r	SEGMENT
??_R0?AVbad_alloc@std@@@8 DD FLAT:??_7type_info@@6B@	; std::bad_alloc `RTTI Type Descriptor'
	DD	00H
	DB	'.?AVbad_alloc@std@@', 00H
data$r	ENDS
;	COMDAT __CT??_R0?AVbad_array_new_length@std@@@8??0bad_array_new_length@std@@QAE@ABV01@@Z12
xdata$x	SEGMENT
__CT??_R0?AVbad_array_new_length@std@@@8??0bad_array_new_length@std@@QAE@ABV01@@Z12 DD 00H
	DD	FLAT:??_R0?AVbad_array_new_length@std@@@8
	DD	00H
	DD	0ffffffffH
	ORG $+4
	DD	0cH
	DD	FLAT:??0bad_array_new_length@std@@QAE@ABV01@@Z
xdata$x	ENDS
;	COMDAT ??_R0?AVbad_array_new_length@std@@@8
data$r	SEGMENT
??_R0?AVbad_array_new_length@std@@@8 DD FLAT:??_7type_info@@6B@ ; std::bad_array_new_length `RTTI Type Descriptor'
	DD	00H
	DB	'.?AVbad_array_new_length@std@@', 00H
data$r	ENDS
;	COMDAT __CTA3?AVbad_array_new_length@std@@
xdata$x	SEGMENT
__CTA3?AVbad_array_new_length@std@@ DD 03H
	DD	FLAT:__CT??_R0?AVbad_array_new_length@std@@@8??0bad_array_new_length@std@@QAE@ABV01@@Z12
	DD	FLAT:__CT??_R0?AVbad_alloc@std@@@8??0bad_alloc@std@@QAE@ABV01@@Z12
	DD	FLAT:__CT??_R0?AVexception@std@@@8??0exception@std@@QAE@ABV01@@Z12
xdata$x	ENDS
;	COMDAT __TI3?AVbad_array_new_length@std@@
xdata$x	SEGMENT
__TI3?AVbad_array_new_length@std@@ DD 00H
	DD	FLAT:??1bad_array_new_length@std@@UAE@XZ
	DD	00H
	DD	FLAT:__CTA3?AVbad_array_new_length@std@@
xdata$x	ENDS
;	COMDAT ??_C@_0BF@KINCDENJ@bad?5array?5new?5length@
CONST	SEGMENT
??_C@_0BF@KINCDENJ@bad?5array?5new?5length@ DB 'bad array new length', 00H ; `string'
CONST	ENDS
;	COMDAT ??_7bad_array_new_length@std@@6B@
CONST	SEGMENT
??_7bad_array_new_length@std@@6B@ DD FLAT:??_R4bad_array_new_length@std@@6B@ ; std::bad_array_new_length::`vftable'
	DD	FLAT:??_Ebad_array_new_length@std@@UAEPAXI@Z
	DD	FLAT:?what@exception@std@@UBEPBDXZ
CONST	ENDS
;	COMDAT ??_7bad_alloc@std@@6B@
CONST	SEGMENT
??_7bad_alloc@std@@6B@ DD FLAT:??_R4bad_alloc@std@@6B@	; std::bad_alloc::`vftable'
	DD	FLAT:??_Ebad_alloc@std@@UAEPAXI@Z
	DD	FLAT:?what@exception@std@@UBEPBDXZ
CONST	ENDS
;	COMDAT ??_C@_0BC@EOODALEL@Unknown?5exception@
CONST	SEGMENT
??_C@_0BC@EOODALEL@Unknown?5exception@ DB 'Unknown exception', 00H ; `string'
CONST	ENDS
;	COMDAT ??_7exception@std@@6B@
CONST	SEGMENT
??_7exception@std@@6B@ DD FLAT:??_R4exception@std@@6B@	; std::exception::`vftable'
	DD	FLAT:??_Eexception@std@@UAEPAXI@Z
	DD	FLAT:?what@exception@std@@UBEPBDXZ
CONST	ENDS
;	COMDAT xdata$x
xdata$x	SEGMENT
__unwindtable$??$?0V?$basic_string@DU?$char_traits@D@std@@V?$allocator@D@2@@std@@@?$_Tree_temp_node@V?$allocator@U?$_Tree_node@V?$basic_string@DU?$char_traits@D@std@@V?$allocator@D@2@@std@@PAX@std@@@std@@@std@@QAE@AAV?$allocator@U?$_Tree_node@V?$basic_string@DU?$char_traits@D@std@@V?$allocator@D@2@@std@@PAX@std@@@1@PAU?$_Tree_node@V?$basic_string@DU?$char_traits@D@std@@V?$allocator@D@2@@std@@PAX@1@$$QAV?$basic_string@DU?$char_traits@D@std@@V?$allocator@D@2@@1@@Z DD 0ffffffffH
	DD	FLAT:__unwindfunclet$??$?0V?$basic_string@DU?$char_traits@D@std@@V?$allocator@D@2@@std@@@?$_Tree_temp_node@V?$allocator@U?$_Tree_node@V?$basic_string@DU?$char_traits@D@std@@V?$allocator@D@2@@std@@PAX@std@@@std@@@std@@QAE@AAV?$allocator@U?$_Tree_node@V?$basic_string@DU?$char_traits@D@std@@V?$allocator@D@2@@std@@PAX@std@@@1@PAU?$_Tree_node@V?$basic_string@DU?$char_traits@D@std@@V?$allocator@D@2@@std@@PAX@1@$$QAV?$basic_string@DU?$char_traits@D@std@@V?$allocator@D@2@@1@@Z$1
__ehfuncinfo$??$?0V?$basic_string@DU?$char_traits@D@std@@V?$allocator@D@2@@std@@@?$_Tree_temp_node@V?$allocator@U?$_Tree_node@V?$basic_string@DU?$char_traits@D@std@@V?$allocator@D@2@@std@@PAX@std@@@std@@@std@@QAE@AAV?$allocator@U?$_Tree_node@V?$basic_string@DU?$char_traits@D@std@@V?$allocator@D@2@@std@@PAX@std@@@1@PAU?$_Tree_node@V?$basic_string@DU?$char_traits@D@std@@V?$allocator@D@2@@std@@PAX@1@$$QAV?$basic_string@DU?$char_traits@D@std@@V?$allocator@D@2@@1@@Z DD 019930522H
	DD	01H
	DD	FLAT:__unwindtable$??$?0V?$basic_string@DU?$char_traits@D@std@@V?$allocator@D@2@@std@@@?$_Tree_temp_node@V?$allocator@U?$_Tree_node@V?$basic_string@DU?$char_traits@D@std@@V?$allocator@D@2@@std@@PAX@std@@@std@@@std@@QAE@AAV?$allocator@U?$_Tree_node@V?$basic_string@DU?$char_traits@D@std@@V?$allocator@D@2@@std@@PAX@std@@@1@PAU?$_Tree_node@V?$basic_string@DU?$char_traits@D@std@@V?$allocator@D@2@@std@@PAX@1@$$QAV?$basic_string@DU?$char_traits@D@std@@V?$allocator@D@2@@1@@Z
	DD	2 DUP(00H)
	DD	2 DUP(00H)
	DD	00H
	DD	01H
xdata$x	ENDS
;	COMDAT xdata$x
xdata$x	SEGMENT
__unwindtable$??$?0ABUpiecewise_construct_t@std@@V?$tuple@$$QAV?$basic_string@DU?$char_traits@D@std@@V?$allocator@D@2@@std@@@1@V?$tuple@$$V@1@@?$_Tree_temp_node@V?$allocator@U?$_Tree_node@U?$pair@$$CBV?$basic_string@DU?$char_traits@D@std@@V?$allocator@D@2@@std@@E@std@@PAX@std@@@std@@@std@@QAE@AAV?$allocator@U?$_Tree_node@U?$pair@$$CBV?$basic_string@DU?$char_traits@D@std@@V?$allocator@D@2@@std@@E@std@@PAX@std@@@1@PAU?$_Tree_node@U?$pair@$$CBV?$basic_string@DU?$char_traits@D@std@@V?$allocator@D@2@@std@@E@std@@PAX@1@ABUpiecewise_construct_t@1@$$QAV?$tuple@$$QAV?$basic_string@DU?$char_traits@D@std@@V?$allocator@D@2@@std@@@1@$$QAV?$tuple@$$V@1@@Z DD 0ffffffffH
	DD	FLAT:__unwindfunclet$??$?0ABUpiecewise_construct_t@std@@V?$tuple@$$QAV?$basic_string@DU?$char_traits@D@std@@V?$allocator@D@2@@std@@@1@V?$tuple@$$V@1@@?$_Tree_temp_node@V?$allocator@U?$_Tree_node@U?$pair@$$CBV?$basic_string@DU?$char_traits@D@std@@V?$allocator@D@2@@std@@E@std@@PAX@std@@@std@@@std@@QAE@AAV?$allocator@U?$_Tree_node@U?$pair@$$CBV?$basic_string@DU?$char_traits@D@std@@V?$allocator@D@2@@std@@E@std@@PAX@std@@@1@PAU?$_Tree_node@U?$pair@$$CBV?$basic_string@DU?$char_traits@D@std@@V?$allocator@D@2@@std@@E@std@@PAX@1@ABUpiecewise_construct_t@1@$$QAV?$tuple@$$QAV?$basic_string@DU?$char_traits@D@std@@V?$allocator@D@2@@std@@@1@$$QAV?$tuple@$$V@1@@Z$1
	DD	0ffffffffH
	DD	FLAT:__unwindfunclet$??$?0ABUpiecewise_construct_t@std@@V?$tuple@$$QAV?$basic_string@DU?$char_traits@D@std@@V?$allocator@D@2@@std@@@1@V?$tuple@$$V@1@@?$_Tree_temp_node@V?$allocator@U?$_Tree_node@U?$pair@$$CBV?$basic_string@DU?$char_traits@D@std@@V?$allocator@D@2@@std@@E@std@@PAX@std@@@std@@@std@@QAE@AAV?$allocator@U?$_Tree_node@U?$pair@$$CBV?$basic_string@DU?$char_traits@D@std@@V?$allocator@D@2@@std@@E@std@@PAX@std@@@1@PAU?$_Tree_node@U?$pair@$$CBV?$basic_string@DU?$char_traits@D@std@@V?$allocator@D@2@@std@@E@std@@PAX@1@ABUpiecewise_construct_t@1@$$QAV?$tuple@$$QAV?$basic_string@DU?$char_traits@D@std@@V?$allocator@D@2@@std@@@1@$$QAV?$tuple@$$V@1@@Z$0
__ehfuncinfo$??$?0ABUpiecewise_construct_t@std@@V?$tuple@$$QAV?$basic_string@DU?$char_traits@D@std@@V?$allocator@D@2@@std@@@1@V?$tuple@$$V@1@@?$_Tree_temp_node@V?$allocator@U?$_Tree_node@U?$pair@$$CBV?$basic_string@DU?$char_traits@D@std@@V?$allocator@D@2@@std@@E@std@@PAX@std@@@std@@@std@@QAE@AAV?$allocator@U?$_Tree_node@U?$pair@$$CBV?$basic_string@DU?$char_traits@D@std@@V?$allocator@D@2@@std@@E@std@@PAX@std@@@1@PAU?$_Tree_node@U?$pair@$$CBV?$basic_string@DU?$char_traits@D@std@@V?$allocator@D@2@@std@@E@std@@PAX@1@ABUpiecewise_construct_t@1@$$QAV?$tuple@$$QAV?$basic_string@DU?$char_traits@D@std@@V?$allocator@D@2@@std@@@1@$$QAV?$tuple@$$V@1@@Z DD 019930522H
	DD	02H
	DD	FLAT:__unwindtable$??$?0ABUpiecewise_construct_t@std@@V?$tuple@$$QAV?$basic_string@DU?$char_traits@D@std@@V?$allocator@D@2@@std@@@1@V?$tuple@$$V@1@@?$_Tree_temp_node@V?$allocator@U?$_Tree_node@U?$pair@$$CBV?$basic_string@DU?$char_traits@D@std@@V?$allocator@D@2@@std@@E@std@@PAX@std@@@std@@@std@@QAE@AAV?$allocator@U?$_Tree_node@U?$pair@$$CBV?$basic_string@DU?$char_traits@D@std@@V?$allocator@D@2@@std@@E@std@@PAX@std@@@1@PAU?$_Tree_node@U?$pair@$$CBV?$basic_string@DU?$char_traits@D@std@@V?$allocator@D@2@@std@@E@std@@PAX@1@ABUpiecewise_construct_t@1@$$QAV?$tuple@$$QAV?$basic_string@DU?$char_traits@D@std@@V?$allocator@D@2@@std@@@1@$$QAV?$tuple@$$V@1@@Z
	DD	2 DUP(00H)
	DD	2 DUP(00H)
	DD	00H
	DD	01H
xdata$x	ENDS
;	COMDAT xdata$x
xdata$x	SEGMENT
__unwindtable$?LogoutGuildMember@CPythonMessenger@@QAEXPBD@Z DD 0ffffffffH
	DD	FLAT:__unwindfunclet$?LogoutGuildMember@CPythonMessenger@@QAEXPBD@Z$0
__ehfuncinfo$?LogoutGuildMember@CPythonMessenger@@QAEXPBD@Z DD 019930522H
	DD	01H
	DD	FLAT:__unwindtable$?LogoutGuildMember@CPythonMessenger@@QAEXPBD@Z
	DD	2 DUP(00H)
	DD	2 DUP(00H)
	DD	00H
	DD	01H
xdata$x	ENDS
;	COMDAT xdata$x
xdata$x	SEGMENT
__unwindtable$?LoginGuildMember@CPythonMessenger@@QAEXPBD@Z DD 0ffffffffH
	DD	FLAT:__unwindfunclet$?LoginGuildMember@CPythonMessenger@@QAEXPBD@Z$0
__ehfuncinfo$?LoginGuildMember@CPythonMessenger@@QAEXPBD@Z DD 019930522H
	DD	01H
	DD	FLAT:__unwindtable$?LoginGuildMember@CPythonMessenger@@QAEXPBD@Z
	DD	2 DUP(00H)
	DD	2 DUP(00H)
	DD	00H
	DD	01H
xdata$x	ENDS
;	COMDAT xdata$x
xdata$x	SEGMENT
__unwindtable$?RemoveGuildMember@CPythonMessenger@@QAEXPBD@Z DD 0ffffffffH
	DD	FLAT:__unwindfunclet$?RemoveGuildMember@CPythonMessenger@@QAEXPBD@Z$0
__ehfuncinfo$?RemoveGuildMember@CPythonMessenger@@QAEXPBD@Z DD 019930522H
	DD	01H
	DD	FLAT:__unwindtable$?RemoveGuildMember@CPythonMessenger@@QAEXPBD@Z
	DD	2 DUP(00H)
	DD	2 DUP(00H)
	DD	00H
	DD	01H
xdata$x	ENDS
;	COMDAT xdata$x
xdata$x	SEGMENT
__unwindtable$?AppendGuildMember@CPythonMessenger@@QAEXPBD@Z DD 0ffffffffH
	DD	FLAT:__unwindfunclet$?AppendGuildMember@CPythonMessenger@@QAEXPBD@Z$0
__ehfuncinfo$?AppendGuildMember@CPythonMessenger@@QAEXPBD@Z DD 019930522H
	DD	01H
	DD	FLAT:__unwindtable$?AppendGuildMember@CPythonMessenger@@QAEXPBD@Z
	DD	2 DUP(00H)
	DD	2 DUP(00H)
	DD	00H
	DD	01H
xdata$x	ENDS
;	COMDAT xdata$x
xdata$x	SEGMENT
__unwindtable$?IsFriendByKey@CPythonMessenger@@QAEHPBD@Z DD 0ffffffffH
	DD	FLAT:__unwindfunclet$?IsFriendByKey@CPythonMessenger@@QAEHPBD@Z$0
__ehfuncinfo$?IsFriendByKey@CPythonMessenger@@QAEHPBD@Z DD 019930522H
	DD	01H
	DD	FLAT:__unwindtable$?IsFriendByKey@CPythonMessenger@@QAEHPBD@Z
	DD	2 DUP(00H)
	DD	2 DUP(00H)
	DD	00H
	DD	01H
xdata$x	ENDS
;	COMDAT xdata$x
xdata$x	SEGMENT
__unwindtable$?SetMobile@CPythonMessenger@@QAEXPBDE@Z DD 0ffffffffH
	DD	FLAT:__unwindfunclet$?SetMobile@CPythonMessenger@@QAEXPBDE@Z$0
__ehfuncinfo$?SetMobile@CPythonMessenger@@QAEXPBDE@Z DD 019930522H
	DD	01H
	DD	FLAT:__unwindtable$?SetMobile@CPythonMessenger@@QAEXPBDE@Z
	DD	2 DUP(00H)
	DD	2 DUP(00H)
	DD	00H
	DD	01H
xdata$x	ENDS
;	COMDAT xdata$x
xdata$x	SEGMENT
__unwindtable$?OnFriendLogout@CPythonMessenger@@QAEXPBD@Z DD 0ffffffffH
	DD	FLAT:__unwindfunclet$?OnFriendLogout@CPythonMessenger@@QAEXPBD@Z$0
__ehfuncinfo$?OnFriendLogout@CPythonMessenger@@QAEXPBD@Z DD 019930522H
	DD	01H
	DD	FLAT:__unwindtable$?OnFriendLogout@CPythonMessenger@@QAEXPBD@Z
	DD	2 DUP(00H)
	DD	2 DUP(00H)
	DD	00H
	DD	01H
xdata$x	ENDS
;	COMDAT xdata$x
xdata$x	SEGMENT
__unwindtable$?OnFriendLogin@CPythonMessenger@@QAEXPBD@Z DD 0ffffffffH
	DD	FLAT:__unwindfunclet$?OnFriendLogin@CPythonMessenger@@QAEXPBD@Z$0
__ehfuncinfo$?OnFriendLogin@CPythonMessenger@@QAEXPBD@Z DD 019930522H
	DD	01H
	DD	FLAT:__unwindtable$?OnFriendLogin@CPythonMessenger@@QAEXPBD@Z
	DD	2 DUP(00H)
	DD	2 DUP(00H)
	DD	00H
	DD	01H
xdata$x	ENDS
;	COMDAT xdata$x
xdata$x	SEGMENT
__unwindtable$?RemoveFriend@CPythonMessenger@@QAEXPBD@Z DD 0ffffffffH
	DD	FLAT:__unwindfunclet$?RemoveFriend@CPythonMessenger@@QAEXPBD@Z$0
__ehfuncinfo$?RemoveFriend@CPythonMessenger@@QAEXPBD@Z DD 019930522H
	DD	01H
	DD	FLAT:__unwindtable$?RemoveFriend@CPythonMessenger@@QAEXPBD@Z
	DD	2 DUP(00H)
	DD	2 DUP(00H)
	DD	00H
	DD	01H
xdata$x	ENDS
;	COMDAT xdata$x
xdata$x	SEGMENT
__unwindtable$??0CPythonMessenger@@QAE@XZ DD 0ffffffffH
	DD	FLAT:__unwindfunclet$??0CPythonMessenger@@QAE@XZ$0
	DD	00H
	DD	FLAT:__unwindfunclet$??0CPythonMessenger@@QAE@XZ$1
__ehfuncinfo$??0CPythonMessenger@@QAE@XZ DD 019930522H
	DD	02H
	DD	FLAT:__unwindtable$??0CPythonMessenger@@QAE@XZ
	DD	2 DUP(00H)
	DD	2 DUP(00H)
	DD	00H
	DD	01H
xdata$x	ENDS
;	COMDAT xdata$x
xdata$x	SEGMENT
__ehfuncinfo$??$_Deallocate@$07$0A@@std@@YAXPAXI@Z DD 019930522H
	DD	00H
	DD	00H
	DD	2 DUP(00H)
	DD	2 DUP(00H)
	DD	00H
	DD	05H
xdata$x	ENDS
;	COMDAT xdata$x
xdata$x	SEGMENT
__unwindtable$??0?$basic_string@DU?$char_traits@D@std@@V?$allocator@D@2@@std@@QAE@QBD@Z DD 0ffffffffH
	DD	FLAT:__unwindfunclet$??0?$basic_string@DU?$char_traits@D@std@@V?$allocator@D@2@@std@@QAE@QBD@Z$0
__ehfuncinfo$??0?$basic_string@DU?$char_traits@D@std@@V?$allocator@D@2@@std@@QAE@QBD@Z DD 019930522H
	DD	01H
	DD	FLAT:__unwindtable$??0?$basic_string@DU?$char_traits@D@std@@V?$allocator@D@2@@std@@QAE@QBD@Z
	DD	2 DUP(00H)
	DD	2 DUP(00H)
	DD	00H
	DD	01H
xdata$x	ENDS
; Function compile flags: /Odspy
; File C:\Program Files (x86)\Microsoft Visual Studio\2019\Community\VC\Tools\MSVC\14.28.29333\include\tuple
; File C:\Program Files (x86)\Microsoft Visual Studio\2019\Community\VC\Tools\MSVC\14.28.29333\include\type_traits
; File C:\Program Files (x86)\Microsoft Visual Studio\2019\Community\VC\Tools\MSVC\14.28.29333\include\tuple
;	COMDAT ??$?0$$QAV?$basic_string@DU?$char_traits@D@std@@V?$allocator@D@2@@std@@$$Z$$V@?$pair@$$CBV?$basic_string@DU?$char_traits@D@std@@V?$allocator@D@2@@std@@E@std@@QAE@Upiecewise_construct_t@1@V?$tuple@$$QAV?$basic_string@DU?$char_traits@D@std@@V?$allocator@D@2@@std@@@1@V?$tuple@$$V@1@@Z
_TEXT	SEGMENT
$T1 = -24						; size = 4
$T2 = -20						; size = 4
_this$ = -16						; size = 4
___formal$ = -12					; size = 1
___formal$ = -8						; size = 1
$T3 = -2						; size = 1
$T4 = -1						; size = 1
___formal$ = 8						; size = 1
__Val1$ = 12						; size = 4
__Val2$ = 16						; size = 1
??$?0$$QAV?$basic_string@DU?$char_traits@D@std@@V?$allocator@D@2@@std@@$$Z$$V@?$pair@$$CBV?$basic_string@DU?$char_traits@D@std@@V?$allocator@D@2@@std@@E@std@@QAE@Upiecewise_construct_t@1@V?$tuple@$$QAV?$basic_string@DU?$char_traits@D@std@@V?$allocator@D@2@@std@@@1@V?$tuple@$$V@1@@Z PROC ; std::pair<std::basic_string<char,std::char_traits<char>,std::allocator<char> > const ,unsigned char>::pair<std::basic_string<char,std::char_traits<char>,std::allocator<char> > const ,unsigned char><std::basic_string<char,std::char_traits<char>,std::allocator<char> > &&>, COMDAT
; _this$ = ecx

; 986  :     : pair(_Val1, _Val2, index_sequence_for<_Types1...>{}, index_sequence_for<_Types2...>{}) {}

  00000	55		 push	 ebp
  00001	8b ec		 mov	 ebp, esp
  00003	83 ec 18	 sub	 esp, 24			; 00000018H
  00006	89 4d f0	 mov	 DWORD PTR _this$[ebp], ecx
  00009	33 c0		 xor	 eax, eax
  0000b	88 45 ff	 mov	 BYTE PTR $T4[ebp], al
  0000e	33 c0		 xor	 eax, eax
  00010	88 45 fe	 mov	 BYTE PTR $T3[ebp], al
  00013	8a 45 ff	 mov	 al, BYTE PTR $T4[ebp]
  00016	88 45 f8	 mov	 BYTE PTR ___formal$[ebp], al
  00019	8a 45 fe	 mov	 al, BYTE PTR $T3[ebp]
  0001c	88 45 f4	 mov	 BYTE PTR ___formal$[ebp], al
; File C:\Program Files (x86)\Microsoft Visual Studio\2019\Community\VC\Tools\MSVC\14.28.29333\include\type_traits

; 1455 :     return static_cast<remove_reference_t<_Ty>&&>(_Arg);

  0001f	8d 45 0c	 lea	 eax, DWORD PTR __Val1$[ebp]
  00022	89 45 ec	 mov	 DWORD PTR $T2[ebp], eax
; File C:\Program Files (x86)\Microsoft Visual Studio\2019\Community\VC\Tools\MSVC\14.28.29333\include\tuple

; 790  :     return static_cast<_Ty&&>(static_cast<_Ttype&>(_Tuple)._Myfirst._Val);

  00025	8b 45 ec	 mov	 eax, DWORD PTR $T2[ebp]
  00028	8b 00		 mov	 eax, DWORD PTR [eax]
  0002a	89 45 e8	 mov	 DWORD PTR $T1[ebp], eax

; 980  :     : first(_STD get<_Indexes1>(_STD move(_Val1))...), second(_STD get<_Indexes2>(_STD move(_Val2))...) {}

  0002d	ff 75 e8	 push	 DWORD PTR $T1[ebp]
  00030	8b 4d f0	 mov	 ecx, DWORD PTR _this$[ebp]
  00033	e8 00 00 00 00	 call	 ??0?$basic_string@DU?$char_traits@D@std@@V?$allocator@D@2@@std@@QAE@$$QAV01@@Z ; std::basic_string<char,std::char_traits<char>,std::allocator<char> >::basic_string<char,std::char_traits<char>,std::allocator<char> >
  00038	8b 45 f0	 mov	 eax, DWORD PTR _this$[ebp]
  0003b	c6 40 18 00	 mov	 BYTE PTR [eax+24], 0

; 986  :     : pair(_Val1, _Val2, index_sequence_for<_Types1...>{}, index_sequence_for<_Types2...>{}) {}

  0003f	8b 45 f0	 mov	 eax, DWORD PTR _this$[ebp]
  00042	c9		 leave
  00043	c2 0c 00	 ret	 12			; 0000000cH
??$?0$$QAV?$basic_string@DU?$char_traits@D@std@@V?$allocator@D@2@@std@@$$Z$$V@?$pair@$$CBV?$basic_string@DU?$char_traits@D@std@@V?$allocator@D@2@@std@@E@std@@QAE@Upiecewise_construct_t@1@V?$tuple@$$QAV?$basic_string@DU?$char_traits@D@std@@V?$allocator@D@2@@std@@@1@V?$tuple@$$V@1@@Z ENDP ; std::pair<std::basic_string<char,std::char_traits<char>,std::allocator<char> > const ,unsigned char>::pair<std::basic_string<char,std::char_traits<char>,std::allocator<char> > const ,unsigned char><std::basic_string<char,std::char_traits<char>,std::allocator<char> > &&>
_TEXT	ENDS
; Function compile flags: /Odspy
; File C:\Program Files (x86)\Microsoft Visual Studio\2019\Community\VC\Tools\MSVC\14.28.29333\include\xmemory
; File C:\Program Files (x86)\Microsoft Visual Studio\2019\Community\VC\Tools\MSVC\14.28.29333\include\xstddef
; File C:\Program Files (x86)\Microsoft Visual Studio\2019\Community\VC\Tools\MSVC\14.28.29333\include\vcruntime_new.h
; File C:\Program Files (x86)\Microsoft Visual Studio\2019\Community\VC\Tools\MSVC\14.28.29333\include\type_traits
; File C:\Program Files (x86)\Microsoft Visual Studio\2019\Community\VC\Tools\MSVC\14.28.29333\include\xmemory
;	COMDAT ??$_Construct_in_place@PAU?$_Tree_node@V?$basic_string@DU?$char_traits@D@std@@V?$allocator@D@2@@std@@PAX@std@@AAPAU12@@std@@YAXAAPAU?$_Tree_node@V?$basic_string@DU?$char_traits@D@std@@V?$allocator@D@2@@std@@PAX@0@0@Z
_TEXT	SEGMENT
$T1 = -12						; size = 4
$T2 = -8						; size = 4
$T3 = -4						; size = 4
__Obj$ = 8						; size = 4
_<_Args_0>$ = 12					; size = 4
??$_Construct_in_place@PAU?$_Tree_node@V?$basic_string@DU?$char_traits@D@std@@V?$allocator@D@2@@std@@PAX@std@@AAPAU12@@std@@YAXAAPAU?$_Tree_node@V?$basic_string@DU?$char_traits@D@std@@V?$allocator@D@2@@std@@PAX@0@0@Z PROC ; std::_Construct_in_place<std::_Tree_node<std::basic_string<char,std::char_traits<char>,std::allocator<char> >,void *> *,std::_Tree_node<std::basic_string<char,std::char_traits<char>,std::allocator<char> >,void *> * &>, COMDAT

; 228  : void _Construct_in_place(_Ty& _Obj, _Types&&... _Args) noexcept(is_nothrow_constructible_v<_Ty, _Types...>) {

  00000	55		 push	 ebp
  00001	8b ec		 mov	 ebp, esp
  00003	83 ec 0c	 sub	 esp, 12			; 0000000cH
; File C:\Program Files (x86)\Microsoft Visual Studio\2019\Community\VC\Tools\MSVC\14.28.29333\include\xstddef

; 275  :     return __builtin_addressof(_Val);

  00006	8b 45 08	 mov	 eax, DWORD PTR __Obj$[ebp]
  00009	89 45 fc	 mov	 DWORD PTR $T3[ebp], eax
; File C:\Program Files (x86)\Microsoft Visual Studio\2019\Community\VC\Tools\MSVC\14.28.29333\include\vcruntime_new.h

; 169  :         return _Where;

  0000c	8b 45 fc	 mov	 eax, DWORD PTR $T3[ebp]
  0000f	89 45 f8	 mov	 DWORD PTR $T2[ebp], eax
; File C:\Program Files (x86)\Microsoft Visual Studio\2019\Community\VC\Tools\MSVC\14.28.29333\include\type_traits

; 1443 :     return static_cast<_Ty&&>(_Arg);

  00012	8b 45 0c	 mov	 eax, DWORD PTR _<_Args_0>$[ebp]
  00015	89 45 f4	 mov	 DWORD PTR $T1[ebp], eax
; File C:\Program Files (x86)\Microsoft Visual Studio\2019\Community\VC\Tools\MSVC\14.28.29333\include\xmemory

; 229  :     ::new (const_cast<void*>(static_cast<const volatile void*>(_STD addressof(_Obj))))

  00018	8b 45 f8	 mov	 eax, DWORD PTR $T2[ebp]
  0001b	8b 4d f4	 mov	 ecx, DWORD PTR $T1[ebp]
  0001e	8b 09		 mov	 ecx, DWORD PTR [ecx]
  00020	89 08		 mov	 DWORD PTR [eax], ecx

; 230  :         _Ty(_STD forward<_Types>(_Args)...);
; 231  : }

  00022	c9		 leave
  00023	c3		 ret	 0
??$_Construct_in_place@PAU?$_Tree_node@V?$basic_string@DU?$char_traits@D@std@@V?$allocator@D@2@@std@@PAX@std@@AAPAU12@@std@@YAXAAPAU?$_Tree_node@V?$basic_string@DU?$char_traits@D@std@@V?$allocator@D@2@@std@@PAX@0@0@Z ENDP ; std::_Construct_in_place<std::_Tree_node<std::basic_string<char,std::char_traits<char>,std::allocator<char> >,void *> *,std::_Tree_node<std::basic_string<char,std::char_traits<char>,std::allocator<char> >,void *> * &>
_TEXT	ENDS
; Function compile flags: /Odspy
; File C:\Program Files (x86)\Microsoft Visual Studio\2019\Community\VC\Tools\MSVC\14.28.29333\include\xmemory
;	COMDAT ??$_Destroy_in_place@PAU?$_Tree_node@V?$basic_string@DU?$char_traits@D@std@@V?$allocator@D@2@@std@@PAX@std@@@std@@YAXAAPAU?$_Tree_node@V?$basic_string@DU?$char_traits@D@std@@V?$allocator@D@2@@std@@PAX@0@@Z
_TEXT	SEGMENT
__Obj$ = 8						; size = 4
??$_Destroy_in_place@PAU?$_Tree_node@V?$basic_string@DU?$char_traits@D@std@@V?$allocator@D@2@@std@@PAX@std@@@std@@YAXAAPAU?$_Tree_node@V?$basic_string@DU?$char_traits@D@std@@V?$allocator@D@2@@std@@PAX@0@@Z PROC ; std::_Destroy_in_place<std::_Tree_node<std::basic_string<char,std::char_traits<char>,std::allocator<char> >,void *> *>, COMDAT

; 270  : /* _CONSTEXPR20_DYNALLOC */ void _Destroy_in_place(_Ty& _Obj) noexcept {

  00000	55		 push	 ebp
  00001	8b ec		 mov	 ebp, esp

; 271  : #if _HAS_IF_CONSTEXPR
; 272  :     if constexpr (is_array_v<_Ty>) {
; 273  :         _Destroy_range(_Obj, _Obj + extent_v<_Ty>);
; 274  :     } else
; 275  : #endif // _HAS_IF_CONSTEXPR
; 276  :     {
; 277  :         _Obj.~_Ty();
; 278  :     }
; 279  : }

  00003	5d		 pop	 ebp
  00004	c3		 ret	 0
??$_Destroy_in_place@PAU?$_Tree_node@V?$basic_string@DU?$char_traits@D@std@@V?$allocator@D@2@@std@@PAX@std@@@std@@YAXAAPAU?$_Tree_node@V?$basic_string@DU?$char_traits@D@std@@V?$allocator@D@2@@std@@PAX@0@@Z ENDP ; std::_Destroy_in_place<std::_Tree_node<std::basic_string<char,std::char_traits<char>,std::allocator<char> >,void *> *>
_TEXT	ENDS
; Function compile flags: /Odspy
; File C:\Program Files (x86)\Microsoft Visual Studio\2019\Community\VC\Tools\MSVC\14.28.29333\include\xmemory
; File C:\Program Files (x86)\Microsoft Visual Studio\2019\Community\VC\Tools\MSVC\14.28.29333\include\xstddef
; File C:\Program Files (x86)\Microsoft Visual Studio\2019\Community\VC\Tools\MSVC\14.28.29333\include\vcruntime_new.h
; File C:\Program Files (x86)\Microsoft Visual Studio\2019\Community\VC\Tools\MSVC\14.28.29333\include\type_traits
; File C:\Program Files (x86)\Microsoft Visual Studio\2019\Community\VC\Tools\MSVC\14.28.29333\include\xmemory
;	COMDAT ??$_Construct_in_place@PAU?$_Tree_node@U?$pair@$$CBV?$basic_string@DU?$char_traits@D@std@@V?$allocator@D@2@@std@@E@std@@PAX@std@@AAPAU12@@std@@YAXAAPAU?$_Tree_node@U?$pair@$$CBV?$basic_string@DU?$char_traits@D@std@@V?$allocator@D@2@@std@@E@std@@PAX@0@0@Z
_TEXT	SEGMENT
$T1 = -12						; size = 4
$T2 = -8						; size = 4
$T3 = -4						; size = 4
__Obj$ = 8						; size = 4
_<_Args_0>$ = 12					; size = 4
??$_Construct_in_place@PAU?$_Tree_node@U?$pair@$$CBV?$basic_string@DU?$char_traits@D@std@@V?$allocator@D@2@@std@@E@std@@PAX@std@@AAPAU12@@std@@YAXAAPAU?$_Tree_node@U?$pair@$$CBV?$basic_string@DU?$char_traits@D@std@@V?$allocator@D@2@@std@@E@std@@PAX@0@0@Z PROC ; std::_Construct_in_place<std::_Tree_node<std::pair<std::basic_string<char,std::char_traits<char>,std::allocator<char> > const ,unsigned char>,void *> *,std::_Tree_node<std::pair<std::basic_string<char,std::char_traits<char>,std::allocator<char> > const ,unsigned char>,void *> * &>, COMDAT

; 228  : void _Construct_in_place(_Ty& _Obj, _Types&&... _Args) noexcept(is_nothrow_constructible_v<_Ty, _Types...>) {

  00000	55		 push	 ebp
  00001	8b ec		 mov	 ebp, esp
  00003	83 ec 0c	 sub	 esp, 12			; 0000000cH
; File C:\Program Files (x86)\Microsoft Visual Studio\2019\Community\VC\Tools\MSVC\14.28.29333\include\xstddef

; 275  :     return __builtin_addressof(_Val);

  00006	8b 45 08	 mov	 eax, DWORD PTR __Obj$[ebp]
  00009	89 45 fc	 mov	 DWORD PTR $T3[ebp], eax
; File C:\Program Files (x86)\Microsoft Visual Studio\2019\Community\VC\Tools\MSVC\14.28.29333\include\vcruntime_new.h

; 169  :         return _Where;

  0000c	8b 45 fc	 mov	 eax, DWORD PTR $T3[ebp]
  0000f	89 45 f8	 mov	 DWORD PTR $T2[ebp], eax
; File C:\Program Files (x86)\Microsoft Visual Studio\2019\Community\VC\Tools\MSVC\14.28.29333\include\type_traits

; 1443 :     return static_cast<_Ty&&>(_Arg);

  00012	8b 45 0c	 mov	 eax, DWORD PTR _<_Args_0>$[ebp]
  00015	89 45 f4	 mov	 DWORD PTR $T1[ebp], eax
; File C:\Program Files (x86)\Microsoft Visual Studio\2019\Community\VC\Tools\MSVC\14.28.29333\include\xmemory

; 229  :     ::new (const_cast<void*>(static_cast<const volatile void*>(_STD addressof(_Obj))))

  00018	8b 45 f8	 mov	 eax, DWORD PTR $T2[ebp]
  0001b	8b 4d f4	 mov	 ecx, DWORD PTR $T1[ebp]
  0001e	8b 09		 mov	 ecx, DWORD PTR [ecx]
  00020	89 08		 mov	 DWORD PTR [eax], ecx

; 230  :         _Ty(_STD forward<_Types>(_Args)...);
; 231  : }

  00022	c9		 leave
  00023	c3		 ret	 0
??$_Construct_in_place@PAU?$_Tree_node@U?$pair@$$CBV?$basic_string@DU?$char_traits@D@std@@V?$allocator@D@2@@std@@E@std@@PAX@std@@AAPAU12@@std@@YAXAAPAU?$_Tree_node@U?$pair@$$CBV?$basic_string@DU?$char_traits@D@std@@V?$allocator@D@2@@std@@E@std@@PAX@0@0@Z ENDP ; std::_Construct_in_place<std::_Tree_node<std::pair<std::basic_string<char,std::char_traits<char>,std::allocator<char> > const ,unsigned char>,void *> *,std::_Tree_node<std::pair<std::basic_string<char,std::char_traits<char>,std::allocator<char> > const ,unsigned char>,void *> * &>
_TEXT	ENDS
; Function compile flags: /Odspy
; File C:\Program Files (x86)\Microsoft Visual Studio\2019\Community\VC\Tools\MSVC\14.28.29333\include\xmemory
; File C:\Program Files (x86)\Microsoft Visual Studio\2019\Community\VC\Tools\MSVC\14.28.29333\include\vcruntime_new.h
; File C:\Program Files (x86)\Microsoft Visual Studio\2019\Community\VC\Tools\MSVC\14.28.29333\include\type_traits
; File C:\Program Files (x86)\Microsoft Visual Studio\2019\Community\VC\Tools\MSVC\14.28.29333\include\xmemory
; File C:\Program Files (x86)\Microsoft Visual Studio\2019\Community\VC\Tools\MSVC\14.28.29333\include\type_traits
; File C:\Program Files (x86)\Microsoft Visual Studio\2019\Community\VC\Tools\MSVC\14.28.29333\include\xmemory
; File D:\Metin2 Server Files\mainline\SRC_2014\Metin2Client\UserInterface\PythonMessenger.cpp
; File C:\Program Files (x86)\Microsoft Visual Studio\2019\Community\VC\Tools\MSVC\14.28.29333\include\type_traits
; File C:\Program Files (x86)\Microsoft Visual Studio\2019\Community\VC\Tools\MSVC\14.28.29333\include\xmemory
;	COMDAT ??$construct@U?$pair@$$CBV?$basic_string@DU?$char_traits@D@std@@V?$allocator@D@2@@std@@E@std@@ABUpiecewise_construct_t@2@V?$tuple@$$QAV?$basic_string@DU?$char_traits@D@std@@V?$allocator@D@2@@std@@@2@V?$tuple@$$V@2@@?$_Default_allocator_traits@V?$allocator@U?$_Tree_node@U?$pair@$$CBV?$basic_string@DU?$char_traits@D@std@@V?$allocator@D@2@@std@@E@std@@PAX@std@@@std@@@std@@SAXAAV?$allocator@U?$_Tree_node@U?$pair@$$CBV?$basic_string@DU?$char_traits@D@std@@V?$allocator@D@2@@std@@E@std@@PAX@std@@@1@QAU?$pair@$$CBV?$basic_string@DU?$char_traits@D@std@@V?$allocator@D@2@@std@@E@1@ABUpiecewise_construct_t@1@$$QAV?$tuple@$$QAV?$basic_string@DU?$char_traits@D@std@@V?$allocator@D@2@@std@@@1@$$QAV?$tuple@$$V@1@@Z
_TEXT	SEGMENT
_this$ = -24						; size = 4
$T1 = -20						; size = 4
$T2 = -16						; size = 4
$T3 = -12						; size = 4
_this$ = -8						; size = 4
$T4 = -4						; size = 4
___formal$ = 8						; size = 4
__Ptr$ = 12						; size = 4
_<_Args_0>$ = 16					; size = 4
_<_Args_1>$ = 20					; size = 4
_<_Args_2>$ = 24					; size = 4
??$construct@U?$pair@$$CBV?$basic_string@DU?$char_traits@D@std@@V?$allocator@D@2@@std@@E@std@@ABUpiecewise_construct_t@2@V?$tuple@$$QAV?$basic_string@DU?$char_traits@D@std@@V?$allocator@D@2@@std@@@2@V?$tuple@$$V@2@@?$_Default_allocator_traits@V?$allocator@U?$_Tree_node@U?$pair@$$CBV?$basic_string@DU?$char_traits@D@std@@V?$allocator@D@2@@std@@E@std@@PAX@std@@@std@@@std@@SAXAAV?$allocator@U?$_Tree_node@U?$pair@$$CBV?$basic_string@DU?$char_traits@D@std@@V?$allocator@D@2@@std@@E@std@@PAX@std@@@1@QAU?$pair@$$CBV?$basic_string@DU?$char_traits@D@std@@V?$allocator@D@2@@std@@E@1@ABUpiecewise_construct_t@1@$$QAV?$tuple@$$QAV?$basic_string@DU?$char_traits@D@std@@V?$allocator@D@2@@std@@@1@$$QAV?$tuple@$$V@1@@Z PROC ; std::_Default_allocator_traits<std::allocator<std::_Tree_node<std::pair<std::basic_string<char,std::char_traits<char>,std::allocator<char> > const ,unsigned char>,void *> > >::construct<std::pair<std::basic_string<char,std::char_traits<char>,std::allocator<char> > const ,unsigned char>,std::piecewise_construct_t const &,std::tuple<std::basic_string<char,std::char_traits<char>,std::allocator<char> > &&>,std::tuple<> >, COMDAT

; 700  :     static void construct(_Alloc&, _Objty* const _Ptr, _Types&&... _Args) {

  00000	55		 push	 ebp
  00001	8b ec		 mov	 ebp, esp
  00003	83 ec 18	 sub	 esp, 24			; 00000018H
; File C:\Program Files (x86)\Microsoft Visual Studio\2019\Community\VC\Tools\MSVC\14.28.29333\include\vcruntime_new.h

; 169  :         return _Where;

  00006	8b 45 0c	 mov	 eax, DWORD PTR __Ptr$[ebp]
  00009	89 45 f0	 mov	 DWORD PTR $T2[ebp], eax
; File C:\Program Files (x86)\Microsoft Visual Studio\2019\Community\VC\Tools\MSVC\14.28.29333\include\type_traits

; 1443 :     return static_cast<_Ty&&>(_Arg);

  0000c	8b 45 18	 mov	 eax, DWORD PTR _<_Args_2>$[ebp]
  0000f	89 45 ec	 mov	 DWORD PTR $T1[ebp], eax
; File C:\Program Files (x86)\Microsoft Visual Studio\2019\Community\VC\Tools\MSVC\14.28.29333\include\xmemory

; 701  :         ::new (const_cast<void*>(static_cast<const volatile void*>(_Ptr))) _Objty(_STD forward<_Types>(_Args)...);

  00012	51		 push	 ecx
  00013	89 65 e8	 mov	 DWORD PTR _this$[ebp], esp
; File C:\Program Files (x86)\Microsoft Visual Studio\2019\Community\VC\Tools\MSVC\14.28.29333\include\type_traits

; 1443 :     return static_cast<_Ty&&>(_Arg);

  00016	8b 45 14	 mov	 eax, DWORD PTR _<_Args_1>$[ebp]
  00019	89 45 fc	 mov	 DWORD PTR $T4[ebp], eax
; File C:\Program Files (x86)\Microsoft Visual Studio\2019\Community\VC\Tools\MSVC\14.28.29333\include\xmemory

; 701  :         ::new (const_cast<void*>(static_cast<const volatile void*>(_Ptr))) _Objty(_STD forward<_Types>(_Args)...);

  0001c	51		 push	 ecx
  0001d	89 65 f8	 mov	 DWORD PTR _this$[ebp], esp
; File D:\Metin2 Server Files\mainline\SRC_2014\Metin2Client\UserInterface\PythonMessenger.cpp

  00020	8b 45 fc	 mov	 eax, DWORD PTR $T4[ebp]
  00023	8b 00		 mov	 eax, DWORD PTR [eax]
  00025	8b 4d f8	 mov	 ecx, DWORD PTR _this$[ebp]
  00028	89 01		 mov	 DWORD PTR [ecx], eax
; File C:\Program Files (x86)\Microsoft Visual Studio\2019\Community\VC\Tools\MSVC\14.28.29333\include\type_traits

; 1443 :     return static_cast<_Ty&&>(_Arg);

  0002a	8b 45 10	 mov	 eax, DWORD PTR _<_Args_0>$[ebp]
  0002d	89 45 f4	 mov	 DWORD PTR $T3[ebp], eax
; File C:\Program Files (x86)\Microsoft Visual Studio\2019\Community\VC\Tools\MSVC\14.28.29333\include\xmemory

; 701  :         ::new (const_cast<void*>(static_cast<const volatile void*>(_Ptr))) _Objty(_STD forward<_Types>(_Args)...);

  00030	8b 45 f4	 mov	 eax, DWORD PTR $T3[ebp]
  00033	0f b6 00	 movzx	 eax, BYTE PTR [eax]
  00036	50		 push	 eax
  00037	8b 4d f0	 mov	 ecx, DWORD PTR $T2[ebp]
  0003a	e8 00 00 00 00	 call	 ??$?0$$QAV?$basic_string@DU?$char_traits@D@std@@V?$allocator@D@2@@std@@$$Z$$V@?$pair@$$CBV?$basic_string@DU?$char_traits@D@std@@V?$allocator@D@2@@std@@E@std@@QAE@Upiecewise_construct_t@1@V?$tuple@$$QAV?$basic_string@DU?$char_traits@D@std@@V?$allocator@D@2@@std@@@1@V?$tuple@$$V@1@@Z ; std::pair<std::basic_string<char,std::char_traits<char>,std::allocator<char> > const ,unsigned char>::pair<std::basic_string<char,std::char_traits<char>,std::allocator<char> > const ,unsigned char><std::basic_string<char,std::char_traits<char>,std::allocator<char> > &&>

; 702  :     }

  0003f	c9		 leave
  00040	c3		 ret	 0
??$construct@U?$pair@$$CBV?$basic_string@DU?$char_traits@D@std@@V?$allocator@D@2@@std@@E@std@@ABUpiecewise_construct_t@2@V?$tuple@$$QAV?$basic_string@DU?$char_traits@D@std@@V?$allocator@D@2@@std@@@2@V?$tuple@$$V@2@@?$_Default_allocator_traits@V?$allocator@U?$_Tree_node@U?$pair@$$CBV?$basic_string@DU?$char_traits@D@std@@V?$allocator@D@2@@std@@E@std@@PAX@std@@@std@@@std@@SAXAAV?$allocator@U?$_Tree_node@U?$pair@$$CBV?$basic_string@DU?$char_traits@D@std@@V?$allocator@D@2@@std@@E@std@@PAX@std@@@1@QAU?$pair@$$CBV?$basic_string@DU?$char_traits@D@std@@V?$allocator@D@2@@std@@E@1@ABUpiecewise_construct_t@1@$$QAV?$tuple@$$QAV?$basic_string@DU?$char_traits@D@std@@V?$allocator@D@2@@std@@@1@$$QAV?$tuple@$$V@1@@Z ENDP ; std::_Default_allocator_traits<std::allocator<std::_Tree_node<std::pair<std::basic_string<char,std::char_traits<char>,std::allocator<char> > const ,unsigned char>,void *> > >::construct<std::pair<std::basic_string<char,std::char_traits<char>,std::allocator<char> > const ,unsigned char>,std::piecewise_construct_t const &,std::tuple<std::basic_string<char,std::char_traits<char>,std::allocator<char> > &&>,std::tuple<> >
_TEXT	ENDS
; Function compile flags: /Odspy
; File C:\Program Files (x86)\Microsoft Visual Studio\2019\Community\VC\Tools\MSVC\14.28.29333\include\xtree
; File C:\Program Files (x86)\Microsoft Visual Studio\2019\Community\VC\Tools\MSVC\14.28.29333\include\xmemory
; File C:\Program Files (x86)\Microsoft Visual Studio\2019\Community\VC\Tools\MSVC\14.28.29333\include\xtree
; File C:\Program Files (x86)\Microsoft Visual Studio\2019\Community\VC\Tools\MSVC\14.28.29333\include\type_traits
; File C:\Program Files (x86)\Microsoft Visual Studio\2019\Community\VC\Tools\MSVC\14.28.29333\include\xtree
; File C:\Program Files (x86)\Microsoft Visual Studio\2019\Community\VC\Tools\MSVC\14.28.29333\include\xstddef
; File C:\Program Files (x86)\Microsoft Visual Studio\2019\Community\VC\Tools\MSVC\14.28.29333\include\xtree
; File C:\Program Files (x86)\Microsoft Visual Studio\2019\Community\VC\Tools\MSVC\14.28.29333\include\vcruntime_new.h
; File C:\Program Files (x86)\Microsoft Visual Studio\2019\Community\VC\Tools\MSVC\14.28.29333\include\type_traits
; File C:\Program Files (x86)\Microsoft Visual Studio\2019\Community\VC\Tools\MSVC\14.28.29333\include\xmemory
; File C:\Program Files (x86)\Microsoft Visual Studio\2019\Community\VC\Tools\MSVC\14.28.29333\include\xtree
;	COMDAT ??$?0V?$basic_string@DU?$char_traits@D@std@@V?$allocator@D@2@@std@@@?$_Tree_temp_node@V?$allocator@U?$_Tree_node@V?$basic_string@DU?$char_traits@D@std@@V?$allocator@D@2@@std@@PAX@std@@@std@@@std@@QAE@AAV?$allocator@U?$_Tree_node@V?$basic_string@DU?$char_traits@D@std@@V?$allocator@D@2@@std@@PAX@std@@@1@PAU?$_Tree_node@V?$basic_string@DU?$char_traits@D@std@@V?$allocator@D@2@@std@@PAX@1@$$QAV?$basic_string@DU?$char_traits@D@std@@V?$allocator@D@2@@1@@Z
_TEXT	SEGMENT
___formal$ = -40					; size = 4
$T2 = -36						; size = 4
$T3 = -32						; size = 4
$T4 = -28						; size = 4
$T5 = -24						; size = 4
__Val$ = -20						; size = 4
_this$ = -16						; size = 4
__$EHRec$ = -12						; size = 12
__Al_$ = 8						; size = 4
__Myhead$ = 12						; size = 4
_<_Vals_0>$ = 16					; size = 4
??$?0V?$basic_string@DU?$char_traits@D@std@@V?$allocator@D@2@@std@@@?$_Tree_temp_node@V?$allocator@U?$_Tree_node@V?$basic_string@DU?$char_traits@D@std@@V?$allocator@D@2@@std@@PAX@std@@@std@@@std@@QAE@AAV?$allocator@U?$_Tree_node@V?$basic_string@DU?$char_traits@D@std@@V?$allocator@D@2@@std@@PAX@std@@@1@PAU?$_Tree_node@V?$basic_string@DU?$char_traits@D@std@@V?$allocator@D@2@@std@@PAX@1@$$QAV?$basic_string@DU?$char_traits@D@std@@V?$allocator@D@2@@1@@Z PROC ; std::_Tree_temp_node<std::allocator<std::_Tree_node<std::basic_string<char,std::char_traits<char>,std::allocator<char> >,void *> > >::_Tree_temp_node<std::allocator<std::_Tree_node<std::basic_string<char,std::char_traits<char>,std::allocator<char> >,void *> > ><std::basic_string<char,std::char_traits<char>,std::allocator<char> > >, COMDAT
; _this$ = ecx

; 805  :         : _Tree_temp_node_alloc<_Alnode>(_Al_) {

  00000	55		 push	 ebp
  00001	8b ec		 mov	 ebp, esp
  00003	6a ff		 push	 -1
  00005	68 00 00 00 00	 push	 __ehhandler$??$?0V?$basic_string@DU?$char_traits@D@std@@V?$allocator@D@2@@std@@@?$_Tree_temp_node@V?$allocator@U?$_Tree_node@V?$basic_string@DU?$char_traits@D@std@@V?$allocator@D@2@@std@@PAX@std@@@std@@@std@@QAE@AAV?$allocator@U?$_Tree_node@V?$basic_string@DU?$char_traits@D@std@@V?$allocator@D@2@@std@@PAX@std@@@1@PAU?$_Tree_node@V?$basic_string@DU?$char_traits@D@std@@V?$allocator@D@2@@std@@PAX@1@$$QAV?$basic_string@DU?$char_traits@D@std@@V?$allocator@D@2@@1@@Z
  0000a	64 a1 00 00 00
	00		 mov	 eax, DWORD PTR fs:0
  00010	50		 push	 eax
  00011	83 ec 1c	 sub	 esp, 28			; 0000001cH
  00014	a1 00 00 00 00	 mov	 eax, DWORD PTR ___security_cookie
  00019	33 c5		 xor	 eax, ebp
  0001b	50		 push	 eax
  0001c	8d 45 f4	 lea	 eax, DWORD PTR __$EHRec$[ebp]
  0001f	64 a3 00 00 00
	00		 mov	 DWORD PTR fs:0, eax
  00025	89 4d f0	 mov	 DWORD PTR _this$[ebp], ecx
; File C:\Program Files (x86)\Microsoft Visual Studio\2019\Community\VC\Tools\MSVC\14.28.29333\include\xmemory

; 1045 :     explicit _Alloc_construct_ptr(_Alloc& _Al_) : _Al(_Al_), _Ptr(nullptr) {}

  00028	8b 45 f0	 mov	 eax, DWORD PTR _this$[ebp]
  0002b	8b 4d 08	 mov	 ecx, DWORD PTR __Al_$[ebp]
  0002e	89 08		 mov	 DWORD PTR [eax], ecx
  00030	8b 45 f0	 mov	 eax, DWORD PTR _this$[ebp]
  00033	83 60 04 00	 and	 DWORD PTR [eax+4], 0
; File C:\Program Files (x86)\Microsoft Visual Studio\2019\Community\VC\Tools\MSVC\14.28.29333\include\xtree

; 784  :     explicit _Tree_temp_node_alloc(_Alnode& _Al_) : _Alloc_construct_ptr<_Alnode>(_Al_) {

  00037	83 65 fc 00	 and	 DWORD PTR __$EHRec$[ebp+8], 0

; 785  :         _Alloc_construct_ptr<_Alnode>::_Allocate();

  0003b	8b 4d f0	 mov	 ecx, DWORD PTR _this$[ebp]
  0003e	e8 00 00 00 00	 call	 ?_Allocate@?$_Alloc_construct_ptr@V?$allocator@U?$_Tree_node@V?$basic_string@DU?$char_traits@D@std@@V?$allocator@D@2@@std@@PAX@std@@@std@@@std@@QAEXXZ ; std::_Alloc_construct_ptr<std::allocator<std::_Tree_node<std::basic_string<char,std::char_traits<char>,std::allocator<char> >,void *> > >::_Allocate

; 786  :     }

  00043	83 4d fc ff	 or	 DWORD PTR __$EHRec$[ebp+8], -1
; File C:\Program Files (x86)\Microsoft Visual Studio\2019\Community\VC\Tools\MSVC\14.28.29333\include\type_traits

; 1443 :     return static_cast<_Ty&&>(_Arg);

  00047	8b 45 10	 mov	 eax, DWORD PTR _<_Vals_0>$[ebp]
  0004a	89 45 e4	 mov	 DWORD PTR $T4[ebp], eax
; File C:\Program Files (x86)\Microsoft Visual Studio\2019\Community\VC\Tools\MSVC\14.28.29333\include\xtree

; 806  :         _Alnode_traits::construct(this->_Al, _STD addressof(this->_Ptr->_Myval), _STD forward<_Valtys>(_Vals)...);

  0004d	8b 45 f0	 mov	 eax, DWORD PTR _this$[ebp]
  00050	8b 40 04	 mov	 eax, DWORD PTR [eax+4]
  00053	83 c0 10	 add	 eax, 16			; 00000010H
  00056	89 45 ec	 mov	 DWORD PTR __Val$[ebp], eax
; File C:\Program Files (x86)\Microsoft Visual Studio\2019\Community\VC\Tools\MSVC\14.28.29333\include\xstddef

; 275  :     return __builtin_addressof(_Val);

  00059	8b 45 ec	 mov	 eax, DWORD PTR __Val$[ebp]
  0005c	89 45 e8	 mov	 DWORD PTR $T5[ebp], eax
; File C:\Program Files (x86)\Microsoft Visual Studio\2019\Community\VC\Tools\MSVC\14.28.29333\include\xtree

; 806  :         _Alnode_traits::construct(this->_Al, _STD addressof(this->_Ptr->_Myval), _STD forward<_Valtys>(_Vals)...);

  0005f	8b 45 f0	 mov	 eax, DWORD PTR _this$[ebp]
  00062	8b 00		 mov	 eax, DWORD PTR [eax]
  00064	89 45 d8	 mov	 DWORD PTR ___formal$[ebp], eax
; File C:\Program Files (x86)\Microsoft Visual Studio\2019\Community\VC\Tools\MSVC\14.28.29333\include\vcruntime_new.h

; 169  :         return _Where;

  00067	8b 45 e8	 mov	 eax, DWORD PTR $T5[ebp]
  0006a	89 45 dc	 mov	 DWORD PTR $T2[ebp], eax
; File C:\Program Files (x86)\Microsoft Visual Studio\2019\Community\VC\Tools\MSVC\14.28.29333\include\type_traits

; 1443 :     return static_cast<_Ty&&>(_Arg);

  0006d	8b 45 e4	 mov	 eax, DWORD PTR $T4[ebp]
  00070	89 45 e0	 mov	 DWORD PTR $T3[ebp], eax
; File C:\Program Files (x86)\Microsoft Visual Studio\2019\Community\VC\Tools\MSVC\14.28.29333\include\xmemory

; 701  :         ::new (const_cast<void*>(static_cast<const volatile void*>(_Ptr))) _Objty(_STD forward<_Types>(_Args)...);

  00073	ff 75 e0	 push	 DWORD PTR $T3[ebp]
  00076	8b 4d dc	 mov	 ecx, DWORD PTR $T2[ebp]
  00079	e8 00 00 00 00	 call	 ??0?$basic_string@DU?$char_traits@D@std@@V?$allocator@D@2@@std@@QAE@$$QAV01@@Z ; std::basic_string<char,std::char_traits<char>,std::allocator<char> >::basic_string<char,std::char_traits<char>,std::allocator<char> >
; File C:\Program Files (x86)\Microsoft Visual Studio\2019\Community\VC\Tools\MSVC\14.28.29333\include\xtree

; 807  :         _Construct_in_place(this->_Ptr->_Left, _Myhead);

  0007e	8d 45 0c	 lea	 eax, DWORD PTR __Myhead$[ebp]
  00081	50		 push	 eax
  00082	8b 45 f0	 mov	 eax, DWORD PTR _this$[ebp]
  00085	ff 70 04	 push	 DWORD PTR [eax+4]
  00088	e8 00 00 00 00	 call	 ??$_Construct_in_place@PAU?$_Tree_node@V?$basic_string@DU?$char_traits@D@std@@V?$allocator@D@2@@std@@PAX@std@@AAPAU12@@std@@YAXAAPAU?$_Tree_node@V?$basic_string@DU?$char_traits@D@std@@V?$allocator@D@2@@std@@PAX@0@0@Z ; std::_Construct_in_place<std::_Tree_node<std::basic_string<char,std::char_traits<char>,std::allocator<char> >,void *> *,std::_Tree_node<std::basic_string<char,std::char_traits<char>,std::allocator<char> >,void *> * &>
  0008d	59		 pop	 ecx
  0008e	59		 pop	 ecx

; 808  :         _Construct_in_place(this->_Ptr->_Parent, _Myhead);

  0008f	8d 45 0c	 lea	 eax, DWORD PTR __Myhead$[ebp]
  00092	50		 push	 eax
  00093	8b 45 f0	 mov	 eax, DWORD PTR _this$[ebp]
  00096	8b 40 04	 mov	 eax, DWORD PTR [eax+4]
  00099	83 c0 04	 add	 eax, 4
  0009c	50		 push	 eax
  0009d	e8 00 00 00 00	 call	 ??$_Construct_in_place@PAU?$_Tree_node@V?$basic_string@DU?$char_traits@D@std@@V?$allocator@D@2@@std@@PAX@std@@AAPAU12@@std@@YAXAAPAU?$_Tree_node@V?$basic_string@DU?$char_traits@D@std@@V?$allocator@D@2@@std@@PAX@0@0@Z ; std::_Construct_in_place<std::_Tree_node<std::basic_string<char,std::char_traits<char>,std::allocator<char> >,void *> *,std::_Tree_node<std::basic_string<char,std::char_traits<char>,std::allocator<char> >,void *> * &>
  000a2	59		 pop	 ecx
  000a3	59		 pop	 ecx

; 809  :         _Construct_in_place(this->_Ptr->_Right, _Myhead);

  000a4	8d 45 0c	 lea	 eax, DWORD PTR __Myhead$[ebp]
  000a7	50		 push	 eax
  000a8	8b 45 f0	 mov	 eax, DWORD PTR _this$[ebp]
  000ab	8b 40 04	 mov	 eax, DWORD PTR [eax+4]
  000ae	83 c0 08	 add	 eax, 8
  000b1	50		 push	 eax
  000b2	e8 00 00 00 00	 call	 ??$_Construct_in_place@PAU?$_Tree_node@V?$basic_string@DU?$char_traits@D@std@@V?$allocator@D@2@@std@@PAX@std@@AAPAU12@@std@@YAXAAPAU?$_Tree_node@V?$basic_string@DU?$char_traits@D@std@@V?$allocator@D@2@@std@@PAX@0@0@Z ; std::_Construct_in_place<std::_Tree_node<std::basic_string<char,std::char_traits<char>,std::allocator<char> >,void *> *,std::_Tree_node<std::basic_string<char,std::char_traits<char>,std::allocator<char> >,void *> * &>
  000b7	59		 pop	 ecx
  000b8	59		 pop	 ecx

; 810  :         this->_Ptr->_Color = _Red;

  000b9	8b 45 f0	 mov	 eax, DWORD PTR _this$[ebp]
  000bc	8b 40 04	 mov	 eax, DWORD PTR [eax+4]
  000bf	c6 40 0c 00	 mov	 BYTE PTR [eax+12], 0

; 811  :         this->_Ptr->_Isnil = false;

  000c3	8b 45 f0	 mov	 eax, DWORD PTR _this$[ebp]
  000c6	8b 40 04	 mov	 eax, DWORD PTR [eax+4]
  000c9	c6 40 0d 00	 mov	 BYTE PTR [eax+13], 0

; 812  :     }

  000cd	8b 45 f0	 mov	 eax, DWORD PTR _this$[ebp]
  000d0	8b 4d f4	 mov	 ecx, DWORD PTR __$EHRec$[ebp]
  000d3	64 89 0d 00 00
	00 00		 mov	 DWORD PTR fs:0, ecx
  000da	59		 pop	 ecx
  000db	c9		 leave
  000dc	c2 0c 00	 ret	 12			; 0000000cH
_TEXT	ENDS
;	COMDAT text$x
text$x	SEGMENT
__unwindfunclet$??$?0V?$basic_string@DU?$char_traits@D@std@@V?$allocator@D@2@@std@@@?$_Tree_temp_node@V?$allocator@U?$_Tree_node@V?$basic_string@DU?$char_traits@D@std@@V?$allocator@D@2@@std@@PAX@std@@@std@@@std@@QAE@AAV?$allocator@U?$_Tree_node@V?$basic_string@DU?$char_traits@D@std@@V?$allocator@D@2@@std@@PAX@std@@@1@PAU?$_Tree_node@V?$basic_string@DU?$char_traits@D@std@@V?$allocator@D@2@@std@@PAX@1@$$QAV?$basic_string@DU?$char_traits@D@std@@V?$allocator@D@2@@1@@Z$1:
  00000	8b 4d f0	 mov	 ecx, DWORD PTR _this$[ebp]
  00003	e9 00 00 00 00	 jmp	 ??1?$_Alloc_construct_ptr@V?$allocator@U?$_Tree_node@V?$basic_string@DU?$char_traits@D@std@@V?$allocator@D@2@@std@@PAX@std@@@std@@@std@@QAE@XZ ; std::_Alloc_construct_ptr<std::allocator<std::_Tree_node<std::basic_string<char,std::char_traits<char>,std::allocator<char> >,void *> > >::~_Alloc_construct_ptr<std::allocator<std::_Tree_node<std::basic_string<char,std::char_traits<char>,std::allocator<char> >,void *> > >
  00008	cc		 int	 3
  00009	cc		 int	 3
  0000a	cc		 int	 3
  0000b	cc		 int	 3
  0000c	cc		 int	 3
__ehhandler$??$?0V?$basic_string@DU?$char_traits@D@std@@V?$allocator@D@2@@std@@@?$_Tree_temp_node@V?$allocator@U?$_Tree_node@V?$basic_string@DU?$char_traits@D@std@@V?$allocator@D@2@@std@@PAX@std@@@std@@@std@@QAE@AAV?$allocator@U?$_Tree_node@V?$basic_string@DU?$char_traits@D@std@@V?$allocator@D@2@@std@@PAX@std@@@1@PAU?$_Tree_node@V?$basic_string@DU?$char_traits@D@std@@V?$allocator@D@2@@std@@PAX@1@$$QAV?$basic_string@DU?$char_traits@D@std@@V?$allocator@D@2@@1@@Z:
  0000d	90		 npad	 1
  0000e	90		 npad	 1
  0000f	8b 54 24 08	 mov	 edx, DWORD PTR [esp+8]
  00013	8d 42 0c	 lea	 eax, DWORD PTR [edx+12]
  00016	8b 4a e0	 mov	 ecx, DWORD PTR [edx-32]
  00019	33 c8		 xor	 ecx, eax
  0001b	e8 00 00 00 00	 call	 @__security_check_cookie@4
  00020	b8 00 00 00 00	 mov	 eax, OFFSET __ehfuncinfo$??$?0V?$basic_string@DU?$char_traits@D@std@@V?$allocator@D@2@@std@@@?$_Tree_temp_node@V?$allocator@U?$_Tree_node@V?$basic_string@DU?$char_traits@D@std@@V?$allocator@D@2@@std@@PAX@std@@@std@@@std@@QAE@AAV?$allocator@U?$_Tree_node@V?$basic_string@DU?$char_traits@D@std@@V?$allocator@D@2@@std@@PAX@std@@@1@PAU?$_Tree_node@V?$basic_string@DU?$char_traits@D@std@@V?$allocator@D@2@@std@@PAX@1@$$QAV?$basic_string@DU?$char_traits@D@std@@V?$allocator@D@2@@1@@Z
  00025	e9 00 00 00 00	 jmp	 ___CxxFrameHandler3
text$x	ENDS
??$?0V?$basic_string@DU?$char_traits@D@std@@V?$allocator@D@2@@std@@@?$_Tree_temp_node@V?$allocator@U?$_Tree_node@V?$basic_string@DU?$char_traits@D@std@@V?$allocator@D@2@@std@@PAX@std@@@std@@@std@@QAE@AAV?$allocator@U?$_Tree_node@V?$basic_string@DU?$char_traits@D@std@@V?$allocator@D@2@@std@@PAX@std@@@1@PAU?$_Tree_node@V?$basic_string@DU?$char_traits@D@std@@V?$allocator@D@2@@std@@PAX@1@$$QAV?$basic_string@DU?$char_traits@D@std@@V?$allocator@D@2@@1@@Z ENDP ; std::_Tree_temp_node<std::allocator<std::_Tree_node<std::basic_string<char,std::char_traits<char>,std::allocator<char> >,void *> > >::_Tree_temp_node<std::allocator<std::_Tree_node<std::basic_string<char,std::char_traits<char>,std::allocator<char> >,void *> > ><std::basic_string<char,std::char_traits<char>,std::allocator<char> > >
; Function compile flags: /Odspy
; File C:\Program Files (x86)\Microsoft Visual Studio\2019\Community\VC\Tools\MSVC\14.28.29333\include\xtree
; File C:\Program Files (x86)\Microsoft Visual Studio\2019\Community\VC\Tools\MSVC\14.28.29333\include\xstddef
; File C:\Program Files (x86)\Microsoft Visual Studio\2019\Community\VC\Tools\MSVC\14.28.29333\include\xtree
; File C:\Program Files (x86)\Microsoft Visual Studio\2019\Community\VC\Tools\MSVC\14.28.29333\include\xstring
; File C:\Program Files (x86)\Microsoft Visual Studio\2019\Community\VC\Tools\MSVC\14.28.29333\include\xtree
;	COMDAT ??1?$_Tree_temp_node@V?$allocator@U?$_Tree_node@V?$basic_string@DU?$char_traits@D@std@@V?$allocator@D@2@@std@@PAX@std@@@std@@@std@@QAE@XZ
_TEXT	SEGMENT
___formal$ = -16					; size = 4
__Val$ = -12						; size = 4
$T1 = -8						; size = 4
_this$ = -4						; size = 4
??1?$_Tree_temp_node@V?$allocator@U?$_Tree_node@V?$basic_string@DU?$char_traits@D@std@@V?$allocator@D@2@@std@@PAX@std@@@std@@@std@@QAE@XZ PROC ; std::_Tree_temp_node<std::allocator<std::_Tree_node<std::basic_string<char,std::char_traits<char>,std::allocator<char> >,void *> > >::~_Tree_temp_node<std::allocator<std::_Tree_node<std::basic_string<char,std::char_traits<char>,std::allocator<char> >,void *> > >, COMDAT
; _this$ = ecx

; 817  :     ~_Tree_temp_node() {

  00000	55		 push	 ebp
  00001	8b ec		 mov	 ebp, esp
  00003	83 ec 10	 sub	 esp, 16			; 00000010H
  00006	89 4d fc	 mov	 DWORD PTR _this$[ebp], ecx

; 818  :         if (this->_Ptr) {

  00009	8b 45 fc	 mov	 eax, DWORD PTR _this$[ebp]
  0000c	83 78 04 00	 cmp	 DWORD PTR [eax+4], 0
  00010	74 61		 je	 SHORT $LN25@Tree_temp_

; 819  :             _Destroy_in_place(this->_Ptr->_Left);

  00012	8b 45 fc	 mov	 eax, DWORD PTR _this$[ebp]
  00015	ff 70 04	 push	 DWORD PTR [eax+4]
  00018	e8 00 00 00 00	 call	 ??$_Destroy_in_place@PAU?$_Tree_node@V?$basic_string@DU?$char_traits@D@std@@V?$allocator@D@2@@std@@PAX@std@@@std@@YAXAAPAU?$_Tree_node@V?$basic_string@DU?$char_traits@D@std@@V?$allocator@D@2@@std@@PAX@0@@Z ; std::_Destroy_in_place<std::_Tree_node<std::basic_string<char,std::char_traits<char>,std::allocator<char> >,void *> *>
  0001d	59		 pop	 ecx

; 820  :             _Destroy_in_place(this->_Ptr->_Parent);

  0001e	8b 45 fc	 mov	 eax, DWORD PTR _this$[ebp]
  00021	8b 40 04	 mov	 eax, DWORD PTR [eax+4]
  00024	83 c0 04	 add	 eax, 4
  00027	50		 push	 eax
  00028	e8 00 00 00 00	 call	 ??$_Destroy_in_place@PAU?$_Tree_node@V?$basic_string@DU?$char_traits@D@std@@V?$allocator@D@2@@std@@PAX@std@@@std@@YAXAAPAU?$_Tree_node@V?$basic_string@DU?$char_traits@D@std@@V?$allocator@D@2@@std@@PAX@0@@Z ; std::_Destroy_in_place<std::_Tree_node<std::basic_string<char,std::char_traits<char>,std::allocator<char> >,void *> *>
  0002d	59		 pop	 ecx

; 821  :             _Destroy_in_place(this->_Ptr->_Right);

  0002e	8b 45 fc	 mov	 eax, DWORD PTR _this$[ebp]
  00031	8b 40 04	 mov	 eax, DWORD PTR [eax+4]
  00034	83 c0 08	 add	 eax, 8
  00037	50		 push	 eax
  00038	e8 00 00 00 00	 call	 ??$_Destroy_in_place@PAU?$_Tree_node@V?$basic_string@DU?$char_traits@D@std@@V?$allocator@D@2@@std@@PAX@std@@@std@@YAXAAPAU?$_Tree_node@V?$basic_string@DU?$char_traits@D@std@@V?$allocator@D@2@@std@@PAX@0@@Z ; std::_Destroy_in_place<std::_Tree_node<std::basic_string<char,std::char_traits<char>,std::allocator<char> >,void *> *>
  0003d	59		 pop	 ecx

; 822  :             _Alnode_traits::destroy(this->_Al, _STD addressof(this->_Ptr->_Myval));

  0003e	8b 45 fc	 mov	 eax, DWORD PTR _this$[ebp]
  00041	8b 40 04	 mov	 eax, DWORD PTR [eax+4]
  00044	83 c0 10	 add	 eax, 16			; 00000010H
  00047	89 45 f4	 mov	 DWORD PTR __Val$[ebp], eax
; File C:\Program Files (x86)\Microsoft Visual Studio\2019\Community\VC\Tools\MSVC\14.28.29333\include\xstddef

; 275  :     return __builtin_addressof(_Val);

  0004a	8b 45 f4	 mov	 eax, DWORD PTR __Val$[ebp]
  0004d	89 45 f8	 mov	 DWORD PTR $T1[ebp], eax
; File C:\Program Files (x86)\Microsoft Visual Studio\2019\Community\VC\Tools\MSVC\14.28.29333\include\xtree

; 822  :             _Alnode_traits::destroy(this->_Al, _STD addressof(this->_Ptr->_Myval));

  00050	8b 45 fc	 mov	 eax, DWORD PTR _this$[ebp]
  00053	8b 00		 mov	 eax, DWORD PTR [eax]
  00055	89 45 f0	 mov	 DWORD PTR ___formal$[ebp], eax
; File C:\Program Files (x86)\Microsoft Visual Studio\2019\Community\VC\Tools\MSVC\14.28.29333\include\xstring

; 2801 :         _Tidy_deallocate();

  00058	8b 4d f8	 mov	 ecx, DWORD PTR $T1[ebp]
  0005b	e8 00 00 00 00	 call	 ?_Tidy_deallocate@?$basic_string@DU?$char_traits@D@std@@V?$allocator@D@2@@std@@AAEXXZ ; std::basic_string<char,std::char_traits<char>,std::allocator<char> >::_Tidy_deallocate
  00060	33 c0		 xor	 eax, eax
  00062	83 e0 01	 and	 eax, 1
  00065	74 0c		 je	 SHORT $LN25@Tree_temp_
  00067	6a 18		 push	 24			; 00000018H
  00069	ff 75 f8	 push	 DWORD PTR $T1[ebp]
  0006c	e8 00 00 00 00	 call	 ??3@YAXPAXI@Z		; operator delete
  00071	59		 pop	 ecx
  00072	59		 pop	 ecx
$LN25@Tree_temp_:
  00073	8b 4d fc	 mov	 ecx, DWORD PTR _this$[ebp]
  00076	e8 00 00 00 00	 call	 ??1?$_Alloc_construct_ptr@V?$allocator@U?$_Tree_node@V?$basic_string@DU?$char_traits@D@std@@V?$allocator@D@2@@std@@PAX@std@@@std@@@std@@QAE@XZ ; std::_Alloc_construct_ptr<std::allocator<std::_Tree_node<std::basic_string<char,std::char_traits<char>,std::allocator<char> >,void *> > >::~_Alloc_construct_ptr<std::allocator<std::_Tree_node<std::basic_string<char,std::char_traits<char>,std::allocator<char> >,void *> > >
; File C:\Program Files (x86)\Microsoft Visual Studio\2019\Community\VC\Tools\MSVC\14.28.29333\include\xtree

; 824  :     }

  0007b	c9		 leave
  0007c	c3		 ret	 0
??1?$_Tree_temp_node@V?$allocator@U?$_Tree_node@V?$basic_string@DU?$char_traits@D@std@@V?$allocator@D@2@@std@@PAX@std@@@std@@@std@@QAE@XZ ENDP ; std::_Tree_temp_node<std::allocator<std::_Tree_node<std::basic_string<char,std::char_traits<char>,std::allocator<char> >,void *> > >::~_Tree_temp_node<std::allocator<std::_Tree_node<std::basic_string<char,std::char_traits<char>,std::allocator<char> >,void *> > >
_TEXT	ENDS
; Function compile flags: /Odspy
; File C:\Program Files (x86)\Microsoft Visual Studio\2019\Community\VC\Tools\MSVC\14.28.29333\include\xmemory
;	COMDAT ??1?$_Alloc_construct_ptr@V?$allocator@U?$_Tree_node@V?$basic_string@DU?$char_traits@D@std@@V?$allocator@D@2@@std@@PAX@std@@@std@@@std@@QAE@XZ
_TEXT	SEGMENT
_this$ = -12						; size = 4
__Ptr$ = -8						; size = 4
_this$ = -4						; size = 4
??1?$_Alloc_construct_ptr@V?$allocator@U?$_Tree_node@V?$basic_string@DU?$char_traits@D@std@@V?$allocator@D@2@@std@@PAX@std@@@std@@@std@@QAE@XZ PROC ; std::_Alloc_construct_ptr<std::allocator<std::_Tree_node<std::basic_string<char,std::char_traits<char>,std::allocator<char> >,void *> > >::~_Alloc_construct_ptr<std::allocator<std::_Tree_node<std::basic_string<char,std::char_traits<char>,std::allocator<char> >,void *> > >, COMDAT
; _this$ = ecx

; 1056 :     ~_Alloc_construct_ptr() { // if this instance is engaged, deallocate storage

  00000	55		 push	 ebp
  00001	8b ec		 mov	 ebp, esp
  00003	83 ec 0c	 sub	 esp, 12			; 0000000cH
  00006	89 4d fc	 mov	 DWORD PTR _this$[ebp], ecx

; 1057 :         if (_Ptr) {

  00009	8b 45 fc	 mov	 eax, DWORD PTR _this$[ebp]
  0000c	83 78 04 00	 cmp	 DWORD PTR [eax+4], 0
  00010	74 22		 je	 SHORT $LN3@Alloc_cons

; 1058 :             _Al.deallocate(_Ptr, 1);

  00012	8b 45 fc	 mov	 eax, DWORD PTR _this$[ebp]
  00015	8b 40 04	 mov	 eax, DWORD PTR [eax+4]
  00018	89 45 f8	 mov	 DWORD PTR __Ptr$[ebp], eax
  0001b	8b 45 fc	 mov	 eax, DWORD PTR _this$[ebp]
  0001e	8b 00		 mov	 eax, DWORD PTR [eax]
  00020	89 45 f4	 mov	 DWORD PTR _this$[ebp], eax

; 810  :         _Deallocate<_New_alignof<_Ty>>(_Ptr, sizeof(_Ty) * _Count);

  00023	33 c0		 xor	 eax, eax
  00025	40		 inc	 eax
  00026	6b c0 28	 imul	 eax, eax, 40
  00029	50		 push	 eax
  0002a	ff 75 f8	 push	 DWORD PTR __Ptr$[ebp]
  0002d	e8 00 00 00 00	 call	 ??$_Deallocate@$07$0A@@std@@YAXPAXI@Z ; std::_Deallocate<8,0>
  00032	59		 pop	 ecx
  00033	59		 pop	 ecx
$LN3@Alloc_cons:

; 1059 :         }
; 1060 :     }

  00034	c9		 leave
  00035	c3		 ret	 0
??1?$_Alloc_construct_ptr@V?$allocator@U?$_Tree_node@V?$basic_string@DU?$char_traits@D@std@@V?$allocator@D@2@@std@@PAX@std@@@std@@@std@@QAE@XZ ENDP ; std::_Alloc_construct_ptr<std::allocator<std::_Tree_node<std::basic_string<char,std::char_traits<char>,std::allocator<char> >,void *> > >::~_Alloc_construct_ptr<std::allocator<std::_Tree_node<std::basic_string<char,std::char_traits<char>,std::allocator<char> >,void *> > >
_TEXT	ENDS
; Function compile flags: /Odspy
; File C:\Program Files (x86)\Microsoft Visual Studio\2019\Community\VC\Tools\MSVC\14.28.29333\include\xmemory
;	COMDAT ?_Allocate@?$_Alloc_construct_ptr@V?$allocator@U?$_Tree_node@V?$basic_string@DU?$char_traits@D@std@@V?$allocator@D@2@@std@@PAX@std@@@std@@@std@@QAEXXZ
_TEXT	SEGMENT
__Max_possible$1 = -24					; size = 4
_this$ = -20						; size = 4
$T2 = -16						; size = 4
$T3 = -12						; size = 4
_this$ = -8						; size = 4
__Overflow_is_possible$4 = -1				; size = 1
?_Allocate@?$_Alloc_construct_ptr@V?$allocator@U?$_Tree_node@V?$basic_string@DU?$char_traits@D@std@@V?$allocator@D@2@@std@@PAX@std@@@std@@@std@@QAEXXZ PROC ; std::_Alloc_construct_ptr<std::allocator<std::_Tree_node<std::basic_string<char,std::char_traits<char>,std::allocator<char> >,void *> > >::_Allocate, COMDAT
; _this$ = ecx

; 1051 :     void _Allocate() { // disengage *this, then allocate a new memory block

  00000	55		 push	 ebp
  00001	8b ec		 mov	 ebp, esp
  00003	83 ec 18	 sub	 esp, 24			; 00000018H
  00006	89 4d f8	 mov	 DWORD PTR _this$[ebp], ecx

; 1052 :         _Ptr = nullptr; // if allocate throws, prevents double-free

  00009	8b 45 f8	 mov	 eax, DWORD PTR _this$[ebp]
  0000c	83 60 04 00	 and	 DWORD PTR [eax+4], 0

; 1053 :         _Ptr = _Al.allocate(1);

  00010	8b 45 f8	 mov	 eax, DWORD PTR _this$[ebp]
  00013	8b 00		 mov	 eax, DWORD PTR [eax]
  00015	89 45 ec	 mov	 DWORD PTR _this$[ebp], eax

; 56   :     constexpr bool _Overflow_is_possible = _Ty_size > 1;

  00018	c6 45 ff 01	 mov	 BYTE PTR __Overflow_is_possible$4[ebp], 1

; 57   : 
; 58   :     if _CONSTEXPR_IF (_Overflow_is_possible) {
; 59   :         constexpr size_t _Max_possible = static_cast<size_t>(-1) / _Ty_size;

  0001c	c7 45 e8 66 66
	66 06		 mov	 DWORD PTR __Max_possible$1[ebp], 107374182 ; 06666666H

; 60   :         if (_Count > _Max_possible) {

  00023	33 c0		 xor	 eax, eax
  00025	40		 inc	 eax
  00026	3d 66 66 66 06	 cmp	 eax, 107374182		; 06666666H
  0002b	76 05		 jbe	 SHORT $LN6@Allocate

; 61   :             _Throw_bad_array_new_length(); // multiply overflow

  0002d	e8 00 00 00 00	 call	 ?_Throw_bad_array_new_length@std@@YAXXZ ; std::_Throw_bad_array_new_length
$LN6@Allocate:

; 62   :         }
; 63   :     }
; 64   : 
; 65   :     return _Count * _Ty_size;

  00032	33 c0		 xor	 eax, eax
  00034	40		 inc	 eax
  00035	6b c0 28	 imul	 eax, eax, 40
  00038	89 45 f4	 mov	 DWORD PTR $T3[ebp], eax

; 814  :         return static_cast<_Ty*>(_Allocate<_New_alignof<_Ty>>(_Get_size_of_n<sizeof(_Ty)>(_Count)));

  0003b	ff 75 f4	 push	 DWORD PTR $T3[ebp]
  0003e	e8 00 00 00 00	 call	 ??$_Allocate@$07U_Default_allocate_traits@std@@$0A@@std@@YAPAXI@Z ; std::_Allocate<8,std::_Default_allocate_traits,0>
  00043	59		 pop	 ecx
  00044	89 45 f0	 mov	 DWORD PTR $T2[ebp], eax

; 1053 :         _Ptr = _Al.allocate(1);

  00047	8b 45 f8	 mov	 eax, DWORD PTR _this$[ebp]
  0004a	8b 4d f0	 mov	 ecx, DWORD PTR $T2[ebp]
  0004d	89 48 04	 mov	 DWORD PTR [eax+4], ecx
$LN9@Allocate:

; 1054 :     }

  00050	c9		 leave
  00051	c3		 ret	 0
?_Allocate@?$_Alloc_construct_ptr@V?$allocator@U?$_Tree_node@V?$basic_string@DU?$char_traits@D@std@@V?$allocator@D@2@@std@@PAX@std@@@std@@@std@@QAEXXZ ENDP ; std::_Alloc_construct_ptr<std::allocator<std::_Tree_node<std::basic_string<char,std::char_traits<char>,std::allocator<char> >,void *> > >::_Allocate
_TEXT	ENDS
; Function compile flags: /Odspy
; File C:\Program Files (x86)\Microsoft Visual Studio\2019\Community\VC\Tools\MSVC\14.28.29333\include\xstring
;	COMDAT ??$?MDU?$char_traits@D@std@@V?$allocator@D@1@@std@@YA_NABV?$basic_string@DU?$char_traits@D@std@@V?$allocator@D@2@@0@0@Z
_TEXT	SEGMENT
tv68 = -4						; size = 4
__Left$ = 8						; size = 4
__Right$ = 12						; size = 4
??$?MDU?$char_traits@D@std@@V?$allocator@D@1@@std@@YA_NABV?$basic_string@DU?$char_traits@D@std@@V?$allocator@D@2@@0@0@Z PROC ; std::operator<<char,std::char_traits<char>,std::allocator<char> >, COMDAT

; 4586 :     const basic_string<_Elem, _Traits, _Alloc>& _Left, const basic_string<_Elem, _Traits, _Alloc>& _Right) noexcept {

  00000	55		 push	 ebp
  00001	8b ec		 mov	 ebp, esp
  00003	51		 push	 ecx

; 4587 :     return _Left.compare(_Right) < 0;

  00004	ff 75 0c	 push	 DWORD PTR __Right$[ebp]
  00007	8b 4d 08	 mov	 ecx, DWORD PTR __Left$[ebp]
  0000a	e8 00 00 00 00	 call	 ?compare@?$basic_string@DU?$char_traits@D@std@@V?$allocator@D@2@@std@@QBEHABV12@@Z ; std::basic_string<char,std::char_traits<char>,std::allocator<char> >::compare
  0000f	85 c0		 test	 eax, eax
  00011	7d 09		 jge	 SHORT $LN3@operator
  00013	c7 45 fc 01 00
	00 00		 mov	 DWORD PTR tv68[ebp], 1
  0001a	eb 04		 jmp	 SHORT $LN4@operator
$LN3@operator:
  0001c	83 65 fc 00	 and	 DWORD PTR tv68[ebp], 0
$LN4@operator:
  00020	8a 45 fc	 mov	 al, BYTE PTR tv68[ebp]

; 4588 : }

  00023	c9		 leave
  00024	c3		 ret	 0
??$?MDU?$char_traits@D@std@@V?$allocator@D@1@@std@@YA_NABV?$basic_string@DU?$char_traits@D@std@@V?$allocator@D@2@@0@0@Z ENDP ; std::operator<<char,std::char_traits<char>,std::allocator<char> >
_TEXT	ENDS
; Function compile flags: /Odspy
; File C:\Program Files (x86)\Microsoft Visual Studio\2019\Community\VC\Tools\MSVC\14.28.29333\include\xmemory
;	COMDAT ??$_Destroy_in_place@PAU?$_Tree_node@U?$pair@$$CBV?$basic_string@DU?$char_traits@D@std@@V?$allocator@D@2@@std@@E@std@@PAX@std@@@std@@YAXAAPAU?$_Tree_node@U?$pair@$$CBV?$basic_string@DU?$char_traits@D@std@@V?$allocator@D@2@@std@@E@std@@PAX@0@@Z
_TEXT	SEGMENT
__Obj$ = 8						; size = 4
??$_Destroy_in_place@PAU?$_Tree_node@U?$pair@$$CBV?$basic_string@DU?$char_traits@D@std@@V?$allocator@D@2@@std@@E@std@@PAX@std@@@std@@YAXAAPAU?$_Tree_node@U?$pair@$$CBV?$basic_string@DU?$char_traits@D@std@@V?$allocator@D@2@@std@@E@std@@PAX@0@@Z PROC ; std::_Destroy_in_place<std::_Tree_node<std::pair<std::basic_string<char,std::char_traits<char>,std::allocator<char> > const ,unsigned char>,void *> *>, COMDAT

; 270  : /* _CONSTEXPR20_DYNALLOC */ void _Destroy_in_place(_Ty& _Obj) noexcept {

  00000	55		 push	 ebp
  00001	8b ec		 mov	 ebp, esp

; 271  : #if _HAS_IF_CONSTEXPR
; 272  :     if constexpr (is_array_v<_Ty>) {
; 273  :         _Destroy_range(_Obj, _Obj + extent_v<_Ty>);
; 274  :     } else
; 275  : #endif // _HAS_IF_CONSTEXPR
; 276  :     {
; 277  :         _Obj.~_Ty();
; 278  :     }
; 279  : }

  00003	5d		 pop	 ebp
  00004	c3		 ret	 0
??$_Destroy_in_place@PAU?$_Tree_node@U?$pair@$$CBV?$basic_string@DU?$char_traits@D@std@@V?$allocator@D@2@@std@@E@std@@PAX@std@@@std@@YAXAAPAU?$_Tree_node@U?$pair@$$CBV?$basic_string@DU?$char_traits@D@std@@V?$allocator@D@2@@std@@E@std@@PAX@0@@Z ENDP ; std::_Destroy_in_place<std::_Tree_node<std::pair<std::basic_string<char,std::char_traits<char>,std::allocator<char> > const ,unsigned char>,void *> *>
_TEXT	ENDS
; Function compile flags: /Odspy
; File C:\Program Files (x86)\Microsoft Visual Studio\2019\Community\VC\Tools\MSVC\14.28.29333\include\xmemory
; File C:\Program Files (x86)\Microsoft Visual Studio\2019\Community\VC\Tools\MSVC\14.28.29333\include\xstddef
; File C:\Program Files (x86)\Microsoft Visual Studio\2019\Community\VC\Tools\MSVC\14.28.29333\include\vcruntime_new.h
; File C:\Program Files (x86)\Microsoft Visual Studio\2019\Community\VC\Tools\MSVC\14.28.29333\include\type_traits
; File C:\Program Files (x86)\Microsoft Visual Studio\2019\Community\VC\Tools\MSVC\14.28.29333\include\xmemory
;	COMDAT ??$_Construct_in_place@PAU?$_Tree_node@V?$basic_string@DU?$char_traits@D@std@@V?$allocator@D@2@@std@@PAX@std@@ABQAU12@@std@@YAXAAPAU?$_Tree_node@V?$basic_string@DU?$char_traits@D@std@@V?$allocator@D@2@@std@@PAX@0@ABQAU10@@Z
_TEXT	SEGMENT
$T1 = -12						; size = 4
$T2 = -8						; size = 4
$T3 = -4						; size = 4
__Obj$ = 8						; size = 4
_<_Args_0>$ = 12					; size = 4
??$_Construct_in_place@PAU?$_Tree_node@V?$basic_string@DU?$char_traits@D@std@@V?$allocator@D@2@@std@@PAX@std@@ABQAU12@@std@@YAXAAPAU?$_Tree_node@V?$basic_string@DU?$char_traits@D@std@@V?$allocator@D@2@@std@@PAX@0@ABQAU10@@Z PROC ; std::_Construct_in_place<std::_Tree_node<std::basic_string<char,std::char_traits<char>,std::allocator<char> >,void *> *,std::_Tree_node<std::basic_string<char,std::char_traits<char>,std::allocator<char> >,void *> * const &>, COMDAT

; 228  : void _Construct_in_place(_Ty& _Obj, _Types&&... _Args) noexcept(is_nothrow_constructible_v<_Ty, _Types...>) {

  00000	55		 push	 ebp
  00001	8b ec		 mov	 ebp, esp
  00003	83 ec 0c	 sub	 esp, 12			; 0000000cH
; File C:\Program Files (x86)\Microsoft Visual Studio\2019\Community\VC\Tools\MSVC\14.28.29333\include\xstddef

; 275  :     return __builtin_addressof(_Val);

  00006	8b 45 08	 mov	 eax, DWORD PTR __Obj$[ebp]
  00009	89 45 fc	 mov	 DWORD PTR $T3[ebp], eax
; File C:\Program Files (x86)\Microsoft Visual Studio\2019\Community\VC\Tools\MSVC\14.28.29333\include\vcruntime_new.h

; 169  :         return _Where;

  0000c	8b 45 fc	 mov	 eax, DWORD PTR $T3[ebp]
  0000f	89 45 f8	 mov	 DWORD PTR $T2[ebp], eax
; File C:\Program Files (x86)\Microsoft Visual Studio\2019\Community\VC\Tools\MSVC\14.28.29333\include\type_traits

; 1443 :     return static_cast<_Ty&&>(_Arg);

  00012	8b 45 0c	 mov	 eax, DWORD PTR _<_Args_0>$[ebp]
  00015	89 45 f4	 mov	 DWORD PTR $T1[ebp], eax
; File C:\Program Files (x86)\Microsoft Visual Studio\2019\Community\VC\Tools\MSVC\14.28.29333\include\xmemory

; 229  :     ::new (const_cast<void*>(static_cast<const volatile void*>(_STD addressof(_Obj))))

  00018	8b 45 f8	 mov	 eax, DWORD PTR $T2[ebp]
  0001b	8b 4d f4	 mov	 ecx, DWORD PTR $T1[ebp]
  0001e	8b 09		 mov	 ecx, DWORD PTR [ecx]
  00020	89 08		 mov	 DWORD PTR [eax], ecx

; 230  :         _Ty(_STD forward<_Types>(_Args)...);
; 231  : }

  00022	c9		 leave
  00023	c3		 ret	 0
??$_Construct_in_place@PAU?$_Tree_node@V?$basic_string@DU?$char_traits@D@std@@V?$allocator@D@2@@std@@PAX@std@@ABQAU12@@std@@YAXAAPAU?$_Tree_node@V?$basic_string@DU?$char_traits@D@std@@V?$allocator@D@2@@std@@PAX@0@ABQAU10@@Z ENDP ; std::_Construct_in_place<std::_Tree_node<std::basic_string<char,std::char_traits<char>,std::allocator<char> >,void *> *,std::_Tree_node<std::basic_string<char,std::char_traits<char>,std::allocator<char> >,void *> * const &>
_TEXT	ENDS
; Function compile flags: /Odspy
; File C:\Program Files (x86)\Microsoft Visual Studio\2019\Community\VC\Tools\MSVC\14.28.29333\include\xmemory
; File C:\Program Files (x86)\Microsoft Visual Studio\2019\Community\VC\Tools\MSVC\14.28.29333\include\xstddef
; File C:\Program Files (x86)\Microsoft Visual Studio\2019\Community\VC\Tools\MSVC\14.28.29333\include\vcruntime_new.h
; File C:\Program Files (x86)\Microsoft Visual Studio\2019\Community\VC\Tools\MSVC\14.28.29333\include\type_traits
; File C:\Program Files (x86)\Microsoft Visual Studio\2019\Community\VC\Tools\MSVC\14.28.29333\include\xmemory
;	COMDAT ??$_Construct_in_place@PAU?$_Tree_node@U?$pair@$$CBV?$basic_string@DU?$char_traits@D@std@@V?$allocator@D@2@@std@@E@std@@PAX@std@@ABQAU12@@std@@YAXAAPAU?$_Tree_node@U?$pair@$$CBV?$basic_string@DU?$char_traits@D@std@@V?$allocator@D@2@@std@@E@std@@PAX@0@ABQAU10@@Z
_TEXT	SEGMENT
$T1 = -12						; size = 4
$T2 = -8						; size = 4
$T3 = -4						; size = 4
__Obj$ = 8						; size = 4
_<_Args_0>$ = 12					; size = 4
??$_Construct_in_place@PAU?$_Tree_node@U?$pair@$$CBV?$basic_string@DU?$char_traits@D@std@@V?$allocator@D@2@@std@@E@std@@PAX@std@@ABQAU12@@std@@YAXAAPAU?$_Tree_node@U?$pair@$$CBV?$basic_string@DU?$char_traits@D@std@@V?$allocator@D@2@@std@@E@std@@PAX@0@ABQAU10@@Z PROC ; std::_Construct_in_place<std::_Tree_node<std::pair<std::basic_string<char,std::char_traits<char>,std::allocator<char> > const ,unsigned char>,void *> *,std::_Tree_node<std::pair<std::basic_string<char,std::char_traits<char>,std::allocator<char> > const ,unsigned char>,void *> * const &>, COMDAT

; 228  : void _Construct_in_place(_Ty& _Obj, _Types&&... _Args) noexcept(is_nothrow_constructible_v<_Ty, _Types...>) {

  00000	55		 push	 ebp
  00001	8b ec		 mov	 ebp, esp
  00003	83 ec 0c	 sub	 esp, 12			; 0000000cH
; File C:\Program Files (x86)\Microsoft Visual Studio\2019\Community\VC\Tools\MSVC\14.28.29333\include\xstddef

; 275  :     return __builtin_addressof(_Val);

  00006	8b 45 08	 mov	 eax, DWORD PTR __Obj$[ebp]
  00009	89 45 fc	 mov	 DWORD PTR $T3[ebp], eax
; File C:\Program Files (x86)\Microsoft Visual Studio\2019\Community\VC\Tools\MSVC\14.28.29333\include\vcruntime_new.h

; 169  :         return _Where;

  0000c	8b 45 fc	 mov	 eax, DWORD PTR $T3[ebp]
  0000f	89 45 f8	 mov	 DWORD PTR $T2[ebp], eax
; File C:\Program Files (x86)\Microsoft Visual Studio\2019\Community\VC\Tools\MSVC\14.28.29333\include\type_traits

; 1443 :     return static_cast<_Ty&&>(_Arg);

  00012	8b 45 0c	 mov	 eax, DWORD PTR _<_Args_0>$[ebp]
  00015	89 45 f4	 mov	 DWORD PTR $T1[ebp], eax
; File C:\Program Files (x86)\Microsoft Visual Studio\2019\Community\VC\Tools\MSVC\14.28.29333\include\xmemory

; 229  :     ::new (const_cast<void*>(static_cast<const volatile void*>(_STD addressof(_Obj))))

  00018	8b 45 f8	 mov	 eax, DWORD PTR $T2[ebp]
  0001b	8b 4d f4	 mov	 ecx, DWORD PTR $T1[ebp]
  0001e	8b 09		 mov	 ecx, DWORD PTR [ecx]
  00020	89 08		 mov	 DWORD PTR [eax], ecx

; 230  :         _Ty(_STD forward<_Types>(_Args)...);
; 231  : }

  00022	c9		 leave
  00023	c3		 ret	 0
??$_Construct_in_place@PAU?$_Tree_node@U?$pair@$$CBV?$basic_string@DU?$char_traits@D@std@@V?$allocator@D@2@@std@@E@std@@PAX@std@@ABQAU12@@std@@YAXAAPAU?$_Tree_node@U?$pair@$$CBV?$basic_string@DU?$char_traits@D@std@@V?$allocator@D@2@@std@@E@std@@PAX@0@ABQAU10@@Z ENDP ; std::_Construct_in_place<std::_Tree_node<std::pair<std::basic_string<char,std::char_traits<char>,std::allocator<char> > const ,unsigned char>,void *> *,std::_Tree_node<std::pair<std::basic_string<char,std::char_traits<char>,std::allocator<char> > const ,unsigned char>,void *> * const &>
_TEXT	ENDS
; Function compile flags: /Odspy
; File C:\Program Files (x86)\Microsoft Visual Studio\2019\Community\VC\Tools\MSVC\14.28.29333\include\xtree
; File C:\Program Files (x86)\Microsoft Visual Studio\2019\Community\VC\Tools\MSVC\14.28.29333\include\xmemory
; File C:\Program Files (x86)\Microsoft Visual Studio\2019\Community\VC\Tools\MSVC\14.28.29333\include\xtree
;	COMDAT ??$_Freenode0@V?$allocator@U?$_Tree_node@V?$basic_string@DU?$char_traits@D@std@@V?$allocator@D@2@@std@@PAX@std@@@std@@@?$_Tree_node@V?$basic_string@DU?$char_traits@D@std@@V?$allocator@D@2@@std@@PAX@std@@SAXAAV?$allocator@U?$_Tree_node@V?$basic_string@DU?$char_traits@D@std@@V?$allocator@D@2@@std@@PAX@std@@@1@PAU01@@Z
_TEXT	SEGMENT
__Al$ = 8						; size = 4
__Ptr$ = 12						; size = 4
??$_Freenode0@V?$allocator@U?$_Tree_node@V?$basic_string@DU?$char_traits@D@std@@V?$allocator@D@2@@std@@PAX@std@@@std@@@?$_Tree_node@V?$basic_string@DU?$char_traits@D@std@@V?$allocator@D@2@@std@@PAX@std@@SAXAAV?$allocator@U?$_Tree_node@V?$basic_string@DU?$char_traits@D@std@@V?$allocator@D@2@@std@@PAX@std@@@1@PAU01@@Z PROC ; std::_Tree_node<std::basic_string<char,std::char_traits<char>,std::allocator<char> >,void *>::_Freenode0<std::allocator<std::_Tree_node<std::basic_string<char,std::char_traits<char>,std::allocator<char> >,void *> > >, COMDAT

; 368  :     static void _Freenode0(_Alloc& _Al, _Nodeptr _Ptr) noexcept {

  00000	55		 push	 ebp
  00001	8b ec		 mov	 ebp, esp

; 369  :         static_assert(is_same_v<typename _Alloc::value_type, _Tree_node>, "Bad _Freenode0 call");
; 370  :         _Destroy_in_place(_Ptr->_Left);

  00003	ff 75 0c	 push	 DWORD PTR __Ptr$[ebp]
  00006	e8 00 00 00 00	 call	 ??$_Destroy_in_place@PAU?$_Tree_node@V?$basic_string@DU?$char_traits@D@std@@V?$allocator@D@2@@std@@PAX@std@@@std@@YAXAAPAU?$_Tree_node@V?$basic_string@DU?$char_traits@D@std@@V?$allocator@D@2@@std@@PAX@0@@Z ; std::_Destroy_in_place<std::_Tree_node<std::basic_string<char,std::char_traits<char>,std::allocator<char> >,void *> *>
  0000b	59		 pop	 ecx

; 371  :         _Destroy_in_place(_Ptr->_Parent);

  0000c	8b 45 0c	 mov	 eax, DWORD PTR __Ptr$[ebp]
  0000f	83 c0 04	 add	 eax, 4
  00012	50		 push	 eax
  00013	e8 00 00 00 00	 call	 ??$_Destroy_in_place@PAU?$_Tree_node@V?$basic_string@DU?$char_traits@D@std@@V?$allocator@D@2@@std@@PAX@std@@@std@@YAXAAPAU?$_Tree_node@V?$basic_string@DU?$char_traits@D@std@@V?$allocator@D@2@@std@@PAX@0@@Z ; std::_Destroy_in_place<std::_Tree_node<std::basic_string<char,std::char_traits<char>,std::allocator<char> >,void *> *>
  00018	59		 pop	 ecx

; 372  :         _Destroy_in_place(_Ptr->_Right);

  00019	8b 45 0c	 mov	 eax, DWORD PTR __Ptr$[ebp]
  0001c	83 c0 08	 add	 eax, 8
  0001f	50		 push	 eax
  00020	e8 00 00 00 00	 call	 ??$_Destroy_in_place@PAU?$_Tree_node@V?$basic_string@DU?$char_traits@D@std@@V?$allocator@D@2@@std@@PAX@std@@@std@@YAXAAPAU?$_Tree_node@V?$basic_string@DU?$char_traits@D@std@@V?$allocator@D@2@@std@@PAX@0@@Z ; std::_Destroy_in_place<std::_Tree_node<std::basic_string<char,std::char_traits<char>,std::allocator<char> >,void *> *>
  00025	59		 pop	 ecx
; File C:\Program Files (x86)\Microsoft Visual Studio\2019\Community\VC\Tools\MSVC\14.28.29333\include\xmemory

; 696  :         _Deallocate<_New_alignof<value_type>>(_Ptr, sizeof(value_type) * _Count);

  00026	33 c0		 xor	 eax, eax
  00028	40		 inc	 eax
  00029	6b c0 28	 imul	 eax, eax, 40
  0002c	50		 push	 eax
  0002d	ff 75 0c	 push	 DWORD PTR __Ptr$[ebp]
  00030	e8 00 00 00 00	 call	 ??$_Deallocate@$07$0A@@std@@YAXPAXI@Z ; std::_Deallocate<8,0>
  00035	59		 pop	 ecx
  00036	59		 pop	 ecx
; File C:\Program Files (x86)\Microsoft Visual Studio\2019\Community\VC\Tools\MSVC\14.28.29333\include\xtree

; 374  :     }

  00037	5d		 pop	 ebp
  00038	c3		 ret	 0
??$_Freenode0@V?$allocator@U?$_Tree_node@V?$basic_string@DU?$char_traits@D@std@@V?$allocator@D@2@@std@@PAX@std@@@std@@@?$_Tree_node@V?$basic_string@DU?$char_traits@D@std@@V?$allocator@D@2@@std@@PAX@std@@SAXAAV?$allocator@U?$_Tree_node@V?$basic_string@DU?$char_traits@D@std@@V?$allocator@D@2@@std@@PAX@std@@@1@PAU01@@Z ENDP ; std::_Tree_node<std::basic_string<char,std::char_traits<char>,std::allocator<char> >,void *>::_Freenode0<std::allocator<std::_Tree_node<std::basic_string<char,std::char_traits<char>,std::allocator<char> >,void *> > >
_TEXT	ENDS
; Function compile flags: /Odspy
; File C:\Program Files (x86)\Microsoft Visual Studio\2019\Community\VC\Tools\MSVC\14.28.29333\include\xtree
; File C:\Program Files (x86)\Microsoft Visual Studio\2019\Community\VC\Tools\MSVC\14.28.29333\include\xstddef
; File C:\Program Files (x86)\Microsoft Visual Studio\2019\Community\VC\Tools\MSVC\14.28.29333\include\xtree
; File C:\Program Files (x86)\Microsoft Visual Studio\2019\Community\VC\Tools\MSVC\14.28.29333\include\xmemory
; File C:\Program Files (x86)\Microsoft Visual Studio\2019\Community\VC\Tools\MSVC\14.28.29333\include\xtree
; File C:\Program Files (x86)\Microsoft Visual Studio\2019\Community\VC\Tools\MSVC\14.28.29333\include\xstddef
; File C:\Program Files (x86)\Microsoft Visual Studio\2019\Community\VC\Tools\MSVC\14.28.29333\include\xtree
; File C:\Program Files (x86)\Microsoft Visual Studio\2019\Community\VC\Tools\MSVC\14.28.29333\include\xstddef
; File C:\Program Files (x86)\Microsoft Visual Studio\2019\Community\VC\Tools\MSVC\14.28.29333\include\xtree
;	COMDAT ??$_Find_lower_bound@V?$basic_string@DU?$char_traits@D@std@@V?$allocator@D@2@@std@@@?$_Tree@V?$_Tset_traits@V?$basic_string@DU?$char_traits@D@std@@V?$allocator@D@2@@std@@U?$less@V?$basic_string@DU?$char_traits@D@std@@V?$allocator@D@2@@std@@@2@V?$allocator@V?$basic_string@DU?$char_traits@D@std@@V?$allocator@D@2@@std@@@2@$0A@@std@@@std@@IBE?AU?$_Tree_find_result@PAU?$_Tree_node@V?$basic_string@DU?$char_traits@D@std@@V?$allocator@D@2@@std@@PAX@std@@@1@ABV?$basic_string@DU?$char_traits@D@std@@V?$allocator@D@2@@1@@Z
_TEXT	SEGMENT
__Result$ = -36						; size = 12
$T1 = -24						; size = 4
$T2 = -20						; size = 4
$T3 = -16						; size = 4
_this$ = -12						; size = 4
__Scary$ = -8						; size = 4
__Trynode$ = -4						; size = 4
___$ReturnUdt$ = 8					; size = 4
__Keyval$ = 12						; size = 4
??$_Find_lower_bound@V?$basic_string@DU?$char_traits@D@std@@V?$allocator@D@2@@std@@@?$_Tree@V?$_Tset_traits@V?$basic_string@DU?$char_traits@D@std@@V?$allocator@D@2@@std@@U?$less@V?$basic_string@DU?$char_traits@D@std@@V?$allocator@D@2@@std@@@2@V?$allocator@V?$basic_string@DU?$char_traits@D@std@@V?$allocator@D@2@@std@@@2@$0A@@std@@@std@@IBE?AU?$_Tree_find_result@PAU?$_Tree_node@V?$basic_string@DU?$char_traits@D@std@@V?$allocator@D@2@@std@@PAX@std@@@1@ABV?$basic_string@DU?$char_traits@D@std@@V?$allocator@D@2@@1@@Z PROC ; std::_Tree<std::_Tset_traits<std::basic_string<char,std::char_traits<char>,std::allocator<char> >,std::less<std::basic_string<char,std::char_traits<char>,std::allocator<char> > >,std::allocator<std::basic_string<char,std::char_traits<char>,std::allocator<char> > >,0> >::_Find_lower_bound<std::basic_string<char,std::char_traits<char>,std::allocator<char> > >, COMDAT
; _this$ = ecx

; 1699 :     _Tree_find_result<_Nodeptr> _Find_lower_bound(const _Keyty& _Keyval) const {

  00000	55		 push	 ebp
  00001	8b ec		 mov	 ebp, esp
  00003	83 ec 24	 sub	 esp, 36			; 00000024H
  00006	56		 push	 esi
  00007	57		 push	 edi
  00008	89 4d f4	 mov	 DWORD PTR _this$[ebp], ecx

; 2051 :         return _STD addressof(_Mypair._Myval2._Myval2);

  0000b	8b 45 f4	 mov	 eax, DWORD PTR _this$[ebp]
; File C:\Program Files (x86)\Microsoft Visual Studio\2019\Community\VC\Tools\MSVC\14.28.29333\include\xstddef

; 275  :     return __builtin_addressof(_Val);

  0000e	89 45 f0	 mov	 DWORD PTR $T3[ebp], eax
; File C:\Program Files (x86)\Microsoft Visual Studio\2019\Community\VC\Tools\MSVC\14.28.29333\include\xtree

; 2051 :         return _STD addressof(_Mypair._Myval2._Myval2);

  00011	8b 45 f0	 mov	 eax, DWORD PTR $T3[ebp]
  00014	89 45 f8	 mov	 DWORD PTR __Scary$[ebp], eax

; 1700 :         const auto _Scary = _Get_scary();
; 1701 :         _Tree_find_result<_Nodeptr> _Result{{_Scary->_Myhead->_Parent, _Tree_child::_Right}, _Scary->_Myhead};

  00017	8b 45 f8	 mov	 eax, DWORD PTR __Scary$[ebp]
  0001a	8b 00		 mov	 eax, DWORD PTR [eax]
  0001c	8b 40 04	 mov	 eax, DWORD PTR [eax+4]
  0001f	89 45 dc	 mov	 DWORD PTR __Result$[ebp], eax
  00022	83 65 e0 00	 and	 DWORD PTR __Result$[ebp+4], 0
  00026	8b 45 f8	 mov	 eax, DWORD PTR __Scary$[ebp]
  00029	8b 00		 mov	 eax, DWORD PTR [eax]
  0002b	89 45 e4	 mov	 DWORD PTR __Result$[ebp+8], eax

; 1702 :         _Nodeptr _Trynode = _Result._Location._Parent;

  0002e	8b 45 dc	 mov	 eax, DWORD PTR __Result$[ebp]
  00031	89 45 fc	 mov	 DWORD PTR __Trynode$[ebp], eax
$LN2@Find_lower:

; 1703 :         while (!_Trynode->_Isnil) {

  00034	8b 45 fc	 mov	 eax, DWORD PTR __Trynode$[ebp]
  00037	0f be 40 0d	 movsx	 eax, BYTE PTR [eax+13]
  0003b	85 c0		 test	 eax, eax
  0003d	75 50		 jne	 SHORT $LN3@Find_lower

; 1704 :             _Result._Location._Parent = _Trynode;

  0003f	8b 45 fc	 mov	 eax, DWORD PTR __Trynode$[ebp]
  00042	89 45 dc	 mov	 DWORD PTR __Result$[ebp], eax

; 2035 :         return _Mypair._Get_first();

  00045	8b 45 f4	 mov	 eax, DWORD PTR _this$[ebp]
; File C:\Program Files (x86)\Microsoft Visual Studio\2019\Community\VC\Tools\MSVC\14.28.29333\include\xmemory

; 1351 :         return *this;

  00048	89 45 ec	 mov	 DWORD PTR $T2[ebp], eax
; File C:\Program Files (x86)\Microsoft Visual Studio\2019\Community\VC\Tools\MSVC\14.28.29333\include\xtree

; 2035 :         return _Mypair._Get_first();

  0004b	8b 45 ec	 mov	 eax, DWORD PTR $T2[ebp]
  0004e	89 45 e8	 mov	 DWORD PTR $T1[ebp], eax
; File C:\Program Files (x86)\Microsoft Visual Studio\2019\Community\VC\Tools\MSVC\14.28.29333\include\xstddef

; 127  :         return _Left < _Right;

  00051	ff 75 0c	 push	 DWORD PTR __Keyval$[ebp]
; File C:\Program Files (x86)\Microsoft Visual Studio\2019\Community\VC\Tools\MSVC\14.28.29333\include\xtree

; 1705 :             if (_DEBUG_LT_PRED(_Getcomp(), _Traits::_Kfn(_Trynode->_Myval), _Keyval)) {

  00054	8b 45 fc	 mov	 eax, DWORD PTR __Trynode$[ebp]
  00057	83 c0 10	 add	 eax, 16			; 00000010H
; File C:\Program Files (x86)\Microsoft Visual Studio\2019\Community\VC\Tools\MSVC\14.28.29333\include\xstddef

; 127  :         return _Left < _Right;

  0005a	50		 push	 eax
  0005b	e8 00 00 00 00	 call	 ??$?MDU?$char_traits@D@std@@V?$allocator@D@1@@std@@YA_NABV?$basic_string@DU?$char_traits@D@std@@V?$allocator@D@2@@0@0@Z ; std::operator<<char,std::char_traits<char>,std::allocator<char> >
  00060	59		 pop	 ecx
  00061	59		 pop	 ecx
; File C:\Program Files (x86)\Microsoft Visual Studio\2019\Community\VC\Tools\MSVC\14.28.29333\include\xtree

; 1705 :             if (_DEBUG_LT_PRED(_Getcomp(), _Traits::_Kfn(_Trynode->_Myval), _Keyval)) {

  00062	0f b6 c0	 movzx	 eax, al
  00065	85 c0		 test	 eax, eax
  00067	74 0f		 je	 SHORT $LN4@Find_lower

; 1706 :                 _Result._Location._Child = _Tree_child::_Right;

  00069	83 65 e0 00	 and	 DWORD PTR __Result$[ebp+4], 0

; 1707 :                 _Trynode                 = _Trynode->_Right;

  0006d	8b 45 fc	 mov	 eax, DWORD PTR __Trynode$[ebp]
  00070	8b 40 08	 mov	 eax, DWORD PTR [eax+8]
  00073	89 45 fc	 mov	 DWORD PTR __Trynode$[ebp], eax

; 1708 :             } else {

  00076	eb 15		 jmp	 SHORT $LN5@Find_lower
$LN4@Find_lower:

; 1709 :                 _Result._Location._Child = _Tree_child::_Left;

  00078	c7 45 e0 01 00
	00 00		 mov	 DWORD PTR __Result$[ebp+4], 1

; 1710 :                 _Result._Bound           = _Trynode;

  0007f	8b 45 fc	 mov	 eax, DWORD PTR __Trynode$[ebp]
  00082	89 45 e4	 mov	 DWORD PTR __Result$[ebp+8], eax

; 1711 :                 _Trynode                 = _Trynode->_Left;

  00085	8b 45 fc	 mov	 eax, DWORD PTR __Trynode$[ebp]
  00088	8b 00		 mov	 eax, DWORD PTR [eax]
  0008a	89 45 fc	 mov	 DWORD PTR __Trynode$[ebp], eax
$LN5@Find_lower:

; 1712 :             }
; 1713 :         }

  0008d	eb a5		 jmp	 SHORT $LN2@Find_lower
$LN3@Find_lower:

; 1714 : 
; 1715 :         return _Result;

  0008f	8d 75 dc	 lea	 esi, DWORD PTR __Result$[ebp]
  00092	8b 7d 08	 mov	 edi, DWORD PTR ___$ReturnUdt$[ebp]
  00095	a5		 movsd
  00096	a5		 movsd
  00097	a5		 movsd
  00098	8b 45 08	 mov	 eax, DWORD PTR ___$ReturnUdt$[ebp]

; 1716 :     }

  0009b	5f		 pop	 edi
  0009c	5e		 pop	 esi
  0009d	c9		 leave
  0009e	c2 08 00	 ret	 8
??$_Find_lower_bound@V?$basic_string@DU?$char_traits@D@std@@V?$allocator@D@2@@std@@@?$_Tree@V?$_Tset_traits@V?$basic_string@DU?$char_traits@D@std@@V?$allocator@D@2@@std@@U?$less@V?$basic_string@DU?$char_traits@D@std@@V?$allocator@D@2@@std@@@2@V?$allocator@V?$basic_string@DU?$char_traits@D@std@@V?$allocator@D@2@@std@@@2@$0A@@std@@@std@@IBE?AU?$_Tree_find_result@PAU?$_Tree_node@V?$basic_string@DU?$char_traits@D@std@@V?$allocator@D@2@@std@@PAX@std@@@1@ABV?$basic_string@DU?$char_traits@D@std@@V?$allocator@D@2@@1@@Z ENDP ; std::_Tree<std::_Tset_traits<std::basic_string<char,std::char_traits<char>,std::allocator<char> >,std::less<std::basic_string<char,std::char_traits<char>,std::allocator<char> > >,std::allocator<std::basic_string<char,std::char_traits<char>,std::allocator<char> > >,0> >::_Find_lower_bound<std::basic_string<char,std::char_traits<char>,std::allocator<char> > >
_TEXT	ENDS
; Function compile flags: /Odspy
; File C:\Program Files (x86)\Microsoft Visual Studio\2019\Community\VC\Tools\MSVC\14.28.29333\include\xtree
; File C:\Program Files (x86)\Microsoft Visual Studio\2019\Community\VC\Tools\MSVC\14.28.29333\include\xmemory
; File C:\Program Files (x86)\Microsoft Visual Studio\2019\Community\VC\Tools\MSVC\14.28.29333\include\xtree
;	COMDAT ??$_Freenode0@V?$allocator@U?$_Tree_node@U?$pair@$$CBV?$basic_string@DU?$char_traits@D@std@@V?$allocator@D@2@@std@@E@std@@PAX@std@@@std@@@?$_Tree_node@U?$pair@$$CBV?$basic_string@DU?$char_traits@D@std@@V?$allocator@D@2@@std@@E@std@@PAX@std@@SAXAAV?$allocator@U?$_Tree_node@U?$pair@$$CBV?$basic_string@DU?$char_traits@D@std@@V?$allocator@D@2@@std@@E@std@@PAX@std@@@1@PAU01@@Z
_TEXT	SEGMENT
__Al$ = 8						; size = 4
__Ptr$ = 12						; size = 4
??$_Freenode0@V?$allocator@U?$_Tree_node@U?$pair@$$CBV?$basic_string@DU?$char_traits@D@std@@V?$allocator@D@2@@std@@E@std@@PAX@std@@@std@@@?$_Tree_node@U?$pair@$$CBV?$basic_string@DU?$char_traits@D@std@@V?$allocator@D@2@@std@@E@std@@PAX@std@@SAXAAV?$allocator@U?$_Tree_node@U?$pair@$$CBV?$basic_string@DU?$char_traits@D@std@@V?$allocator@D@2@@std@@E@std@@PAX@std@@@1@PAU01@@Z PROC ; std::_Tree_node<std::pair<std::basic_string<char,std::char_traits<char>,std::allocator<char> > const ,unsigned char>,void *>::_Freenode0<std::allocator<std::_Tree_node<std::pair<std::basic_string<char,std::char_traits<char>,std::allocator<char> > const ,unsigned char>,void *> > >, COMDAT

; 368  :     static void _Freenode0(_Alloc& _Al, _Nodeptr _Ptr) noexcept {

  00000	55		 push	 ebp
  00001	8b ec		 mov	 ebp, esp

; 369  :         static_assert(is_same_v<typename _Alloc::value_type, _Tree_node>, "Bad _Freenode0 call");
; 370  :         _Destroy_in_place(_Ptr->_Left);

  00003	ff 75 0c	 push	 DWORD PTR __Ptr$[ebp]
  00006	e8 00 00 00 00	 call	 ??$_Destroy_in_place@PAU?$_Tree_node@U?$pair@$$CBV?$basic_string@DU?$char_traits@D@std@@V?$allocator@D@2@@std@@E@std@@PAX@std@@@std@@YAXAAPAU?$_Tree_node@U?$pair@$$CBV?$basic_string@DU?$char_traits@D@std@@V?$allocator@D@2@@std@@E@std@@PAX@0@@Z ; std::_Destroy_in_place<std::_Tree_node<std::pair<std::basic_string<char,std::char_traits<char>,std::allocator<char> > const ,unsigned char>,void *> *>
  0000b	59		 pop	 ecx

; 371  :         _Destroy_in_place(_Ptr->_Parent);

  0000c	8b 45 0c	 mov	 eax, DWORD PTR __Ptr$[ebp]
  0000f	83 c0 04	 add	 eax, 4
  00012	50		 push	 eax
  00013	e8 00 00 00 00	 call	 ??$_Destroy_in_place@PAU?$_Tree_node@U?$pair@$$CBV?$basic_string@DU?$char_traits@D@std@@V?$allocator@D@2@@std@@E@std@@PAX@std@@@std@@YAXAAPAU?$_Tree_node@U?$pair@$$CBV?$basic_string@DU?$char_traits@D@std@@V?$allocator@D@2@@std@@E@std@@PAX@0@@Z ; std::_Destroy_in_place<std::_Tree_node<std::pair<std::basic_string<char,std::char_traits<char>,std::allocator<char> > const ,unsigned char>,void *> *>
  00018	59		 pop	 ecx

; 372  :         _Destroy_in_place(_Ptr->_Right);

  00019	8b 45 0c	 mov	 eax, DWORD PTR __Ptr$[ebp]
  0001c	83 c0 08	 add	 eax, 8
  0001f	50		 push	 eax
  00020	e8 00 00 00 00	 call	 ??$_Destroy_in_place@PAU?$_Tree_node@U?$pair@$$CBV?$basic_string@DU?$char_traits@D@std@@V?$allocator@D@2@@std@@E@std@@PAX@std@@@std@@YAXAAPAU?$_Tree_node@U?$pair@$$CBV?$basic_string@DU?$char_traits@D@std@@V?$allocator@D@2@@std@@E@std@@PAX@0@@Z ; std::_Destroy_in_place<std::_Tree_node<std::pair<std::basic_string<char,std::char_traits<char>,std::allocator<char> > const ,unsigned char>,void *> *>
  00025	59		 pop	 ecx
; File C:\Program Files (x86)\Microsoft Visual Studio\2019\Community\VC\Tools\MSVC\14.28.29333\include\xmemory

; 696  :         _Deallocate<_New_alignof<value_type>>(_Ptr, sizeof(value_type) * _Count);

  00026	33 c0		 xor	 eax, eax
  00028	40		 inc	 eax
  00029	6b c0 2c	 imul	 eax, eax, 44
  0002c	50		 push	 eax
  0002d	ff 75 0c	 push	 DWORD PTR __Ptr$[ebp]
  00030	e8 00 00 00 00	 call	 ??$_Deallocate@$07$0A@@std@@YAXPAXI@Z ; std::_Deallocate<8,0>
  00035	59		 pop	 ecx
  00036	59		 pop	 ecx
; File C:\Program Files (x86)\Microsoft Visual Studio\2019\Community\VC\Tools\MSVC\14.28.29333\include\xtree

; 374  :     }

  00037	5d		 pop	 ebp
  00038	c3		 ret	 0
??$_Freenode0@V?$allocator@U?$_Tree_node@U?$pair@$$CBV?$basic_string@DU?$char_traits@D@std@@V?$allocator@D@2@@std@@E@std@@PAX@std@@@std@@@?$_Tree_node@U?$pair@$$CBV?$basic_string@DU?$char_traits@D@std@@V?$allocator@D@2@@std@@E@std@@PAX@std@@SAXAAV?$allocator@U?$_Tree_node@U?$pair@$$CBV?$basic_string@DU?$char_traits@D@std@@V?$allocator@D@2@@std@@E@std@@PAX@std@@@1@PAU01@@Z ENDP ; std::_Tree_node<std::pair<std::basic_string<char,std::char_traits<char>,std::allocator<char> > const ,unsigned char>,void *>::_Freenode0<std::allocator<std::_Tree_node<std::pair<std::basic_string<char,std::char_traits<char>,std::allocator<char> > const ,unsigned char>,void *> > >
_TEXT	ENDS
; Function compile flags: /Odspy
; File C:\Program Files (x86)\Microsoft Visual Studio\2019\Community\VC\Tools\MSVC\14.28.29333\include\xtree
; File C:\Program Files (x86)\Microsoft Visual Studio\2019\Community\VC\Tools\MSVC\14.28.29333\include\xmemory
; File C:\Program Files (x86)\Microsoft Visual Studio\2019\Community\VC\Tools\MSVC\14.28.29333\include\xtree
; File C:\Program Files (x86)\Microsoft Visual Studio\2019\Community\VC\Tools\MSVC\14.28.29333\include\type_traits
; File C:\Program Files (x86)\Microsoft Visual Studio\2019\Community\VC\Tools\MSVC\14.28.29333\include\xtree
; File C:\Program Files (x86)\Microsoft Visual Studio\2019\Community\VC\Tools\MSVC\14.28.29333\include\xstddef
; File C:\Program Files (x86)\Microsoft Visual Studio\2019\Community\VC\Tools\MSVC\14.28.29333\include\xtree
;	COMDAT ??$?0ABUpiecewise_construct_t@std@@V?$tuple@$$QAV?$basic_string@DU?$char_traits@D@std@@V?$allocator@D@2@@std@@@1@V?$tuple@$$V@1@@?$_Tree_temp_node@V?$allocator@U?$_Tree_node@U?$pair@$$CBV?$basic_string@DU?$char_traits@D@std@@V?$allocator@D@2@@std@@E@std@@PAX@std@@@std@@@std@@QAE@AAV?$allocator@U?$_Tree_node@U?$pair@$$CBV?$basic_string@DU?$char_traits@D@std@@V?$allocator@D@2@@std@@E@std@@PAX@std@@@1@PAU?$_Tree_node@U?$pair@$$CBV?$basic_string@DU?$char_traits@D@std@@V?$allocator@D@2@@std@@E@std@@PAX@1@ABUpiecewise_construct_t@1@$$QAV?$tuple@$$QAV?$basic_string@DU?$char_traits@D@std@@V?$allocator@D@2@@std@@@1@$$QAV?$tuple@$$V@1@@Z
_TEXT	SEGMENT
$T2 = -36						; size = 4
$T3 = -32						; size = 4
$T4 = -28						; size = 4
$T5 = -24						; size = 4
__Val$ = -20						; size = 4
_this$ = -16						; size = 4
__$EHRec$ = -12						; size = 12
__Al_$ = 8						; size = 4
__Myhead$ = 12						; size = 4
_<_Vals_0>$ = 16					; size = 4
_<_Vals_1>$ = 20					; size = 4
_<_Vals_2>$ = 24					; size = 4
??$?0ABUpiecewise_construct_t@std@@V?$tuple@$$QAV?$basic_string@DU?$char_traits@D@std@@V?$allocator@D@2@@std@@@1@V?$tuple@$$V@1@@?$_Tree_temp_node@V?$allocator@U?$_Tree_node@U?$pair@$$CBV?$basic_string@DU?$char_traits@D@std@@V?$allocator@D@2@@std@@E@std@@PAX@std@@@std@@@std@@QAE@AAV?$allocator@U?$_Tree_node@U?$pair@$$CBV?$basic_string@DU?$char_traits@D@std@@V?$allocator@D@2@@std@@E@std@@PAX@std@@@1@PAU?$_Tree_node@U?$pair@$$CBV?$basic_string@DU?$char_traits@D@std@@V?$allocator@D@2@@std@@E@std@@PAX@1@ABUpiecewise_construct_t@1@$$QAV?$tuple@$$QAV?$basic_string@DU?$char_traits@D@std@@V?$allocator@D@2@@std@@@1@$$QAV?$tuple@$$V@1@@Z PROC ; std::_Tree_temp_node<std::allocator<std::_Tree_node<std::pair<std::basic_string<char,std::char_traits<char>,std::allocator<char> > const ,unsigned char>,void *> > >::_Tree_temp_node<std::allocator<std::_Tree_node<std::pair<std::basic_string<char,std::char_traits<char>,std::allocator<char> > const ,unsigned char>,void *> > ><std::piecewise_construct_t const &,std::tuple<std::basic_string<char,std::char_traits<char>,std::allocator<char> > &&>,std::tuple<> >, COMDAT
; _this$ = ecx

; 805  :         : _Tree_temp_node_alloc<_Alnode>(_Al_) {

  00000	55		 push	 ebp
  00001	8b ec		 mov	 ebp, esp
  00003	6a ff		 push	 -1
  00005	68 00 00 00 00	 push	 __ehhandler$??$?0ABUpiecewise_construct_t@std@@V?$tuple@$$QAV?$basic_string@DU?$char_traits@D@std@@V?$allocator@D@2@@std@@@1@V?$tuple@$$V@1@@?$_Tree_temp_node@V?$allocator@U?$_Tree_node@U?$pair@$$CBV?$basic_string@DU?$char_traits@D@std@@V?$allocator@D@2@@std@@E@std@@PAX@std@@@std@@@std@@QAE@AAV?$allocator@U?$_Tree_node@U?$pair@$$CBV?$basic_string@DU?$char_traits@D@std@@V?$allocator@D@2@@std@@E@std@@PAX@std@@@1@PAU?$_Tree_node@U?$pair@$$CBV?$basic_string@DU?$char_traits@D@std@@V?$allocator@D@2@@std@@E@std@@PAX@1@ABUpiecewise_construct_t@1@$$QAV?$tuple@$$QAV?$basic_string@DU?$char_traits@D@std@@V?$allocator@D@2@@std@@@1@$$QAV?$tuple@$$V@1@@Z
  0000a	64 a1 00 00 00
	00		 mov	 eax, DWORD PTR fs:0
  00010	50		 push	 eax
  00011	83 ec 18	 sub	 esp, 24			; 00000018H
  00014	a1 00 00 00 00	 mov	 eax, DWORD PTR ___security_cookie
  00019	33 c5		 xor	 eax, ebp
  0001b	50		 push	 eax
  0001c	8d 45 f4	 lea	 eax, DWORD PTR __$EHRec$[ebp]
  0001f	64 a3 00 00 00
	00		 mov	 DWORD PTR fs:0, eax
  00025	89 4d f0	 mov	 DWORD PTR _this$[ebp], ecx
; File C:\Program Files (x86)\Microsoft Visual Studio\2019\Community\VC\Tools\MSVC\14.28.29333\include\xmemory

; 1045 :     explicit _Alloc_construct_ptr(_Alloc& _Al_) : _Al(_Al_), _Ptr(nullptr) {}

  00028	8b 45 f0	 mov	 eax, DWORD PTR _this$[ebp]
  0002b	8b 4d 08	 mov	 ecx, DWORD PTR __Al_$[ebp]
  0002e	89 08		 mov	 DWORD PTR [eax], ecx
  00030	8b 45 f0	 mov	 eax, DWORD PTR _this$[ebp]
  00033	83 60 04 00	 and	 DWORD PTR [eax+4], 0
; File C:\Program Files (x86)\Microsoft Visual Studio\2019\Community\VC\Tools\MSVC\14.28.29333\include\xtree

; 784  :     explicit _Tree_temp_node_alloc(_Alnode& _Al_) : _Alloc_construct_ptr<_Alnode>(_Al_) {

  00037	83 65 fc 00	 and	 DWORD PTR __$EHRec$[ebp+8], 0

; 785  :         _Alloc_construct_ptr<_Alnode>::_Allocate();

  0003b	8b 4d f0	 mov	 ecx, DWORD PTR _this$[ebp]
  0003e	e8 00 00 00 00	 call	 ?_Allocate@?$_Alloc_construct_ptr@V?$allocator@U?$_Tree_node@U?$pair@$$CBV?$basic_string@DU?$char_traits@D@std@@V?$allocator@D@2@@std@@E@std@@PAX@std@@@std@@@std@@QAEXXZ ; std::_Alloc_construct_ptr<std::allocator<std::_Tree_node<std::pair<std::basic_string<char,std::char_traits<char>,std::allocator<char> > const ,unsigned char>,void *> > >::_Allocate

; 805  :         : _Tree_temp_node_alloc<_Alnode>(_Al_) {

  00043	c7 45 fc 01 00
	00 00		 mov	 DWORD PTR __$EHRec$[ebp+8], 1
; File C:\Program Files (x86)\Microsoft Visual Studio\2019\Community\VC\Tools\MSVC\14.28.29333\include\type_traits

; 1443 :     return static_cast<_Ty&&>(_Arg);

  0004a	8b 45 18	 mov	 eax, DWORD PTR _<_Vals_2>$[ebp]
  0004d	89 45 e8	 mov	 DWORD PTR $T5[ebp], eax
  00050	8b 45 14	 mov	 eax, DWORD PTR _<_Vals_1>$[ebp]
  00053	89 45 e4	 mov	 DWORD PTR $T4[ebp], eax
  00056	8b 45 10	 mov	 eax, DWORD PTR _<_Vals_0>$[ebp]
  00059	89 45 e0	 mov	 DWORD PTR $T3[ebp], eax
; File C:\Program Files (x86)\Microsoft Visual Studio\2019\Community\VC\Tools\MSVC\14.28.29333\include\xtree

; 806  :         _Alnode_traits::construct(this->_Al, _STD addressof(this->_Ptr->_Myval), _STD forward<_Valtys>(_Vals)...);

  0005c	8b 45 f0	 mov	 eax, DWORD PTR _this$[ebp]
  0005f	8b 40 04	 mov	 eax, DWORD PTR [eax+4]
  00062	83 c0 10	 add	 eax, 16			; 00000010H
  00065	89 45 ec	 mov	 DWORD PTR __Val$[ebp], eax
; File C:\Program Files (x86)\Microsoft Visual Studio\2019\Community\VC\Tools\MSVC\14.28.29333\include\xstddef

; 275  :     return __builtin_addressof(_Val);

  00068	8b 45 ec	 mov	 eax, DWORD PTR __Val$[ebp]
  0006b	89 45 dc	 mov	 DWORD PTR $T2[ebp], eax
; File C:\Program Files (x86)\Microsoft Visual Studio\2019\Community\VC\Tools\MSVC\14.28.29333\include\xtree

; 806  :         _Alnode_traits::construct(this->_Al, _STD addressof(this->_Ptr->_Myval), _STD forward<_Valtys>(_Vals)...);

  0006e	ff 75 e8	 push	 DWORD PTR $T5[ebp]
  00071	ff 75 e4	 push	 DWORD PTR $T4[ebp]
  00074	ff 75 e0	 push	 DWORD PTR $T3[ebp]
  00077	ff 75 dc	 push	 DWORD PTR $T2[ebp]
  0007a	8b 45 f0	 mov	 eax, DWORD PTR _this$[ebp]
  0007d	ff 30		 push	 DWORD PTR [eax]
  0007f	e8 00 00 00 00	 call	 ??$construct@U?$pair@$$CBV?$basic_string@DU?$char_traits@D@std@@V?$allocator@D@2@@std@@E@std@@ABUpiecewise_construct_t@2@V?$tuple@$$QAV?$basic_string@DU?$char_traits@D@std@@V?$allocator@D@2@@std@@@2@V?$tuple@$$V@2@@?$_Default_allocator_traits@V?$allocator@U?$_Tree_node@U?$pair@$$CBV?$basic_string@DU?$char_traits@D@std@@V?$allocator@D@2@@std@@E@std@@PAX@std@@@std@@@std@@SAXAAV?$allocator@U?$_Tree_node@U?$pair@$$CBV?$basic_string@DU?$char_traits@D@std@@V?$allocator@D@2@@std@@E@std@@PAX@std@@@1@QAU?$pair@$$CBV?$basic_string@DU?$char_traits@D@std@@V?$allocator@D@2@@std@@E@1@ABUpiecewise_construct_t@1@$$QAV?$tuple@$$QAV?$basic_string@DU?$char_traits@D@std@@V?$allocator@D@2@@std@@@1@$$QAV?$tuple@$$V@1@@Z ; std::_Default_allocator_traits<std::allocator<std::_Tree_node<std::pair<std::basic_string<char,std::char_traits<char>,std::allocator<char> > const ,unsigned char>,void *> > >::construct<std::pair<std::basic_string<char,std::char_traits<char>,std::allocator<char> > const ,unsigned char>,std::piecewise_construct_t const &,std::tuple<std::basic_string<char,std::char_traits<char>,std::allocator<char> > &&>,std::tuple<> >
  00084	83 c4 14	 add	 esp, 20			; 00000014H

; 807  :         _Construct_in_place(this->_Ptr->_Left, _Myhead);

  00087	8d 45 0c	 lea	 eax, DWORD PTR __Myhead$[ebp]
  0008a	50		 push	 eax
  0008b	8b 45 f0	 mov	 eax, DWORD PTR _this$[ebp]
  0008e	ff 70 04	 push	 DWORD PTR [eax+4]
  00091	e8 00 00 00 00	 call	 ??$_Construct_in_place@PAU?$_Tree_node@U?$pair@$$CBV?$basic_string@DU?$char_traits@D@std@@V?$allocator@D@2@@std@@E@std@@PAX@std@@AAPAU12@@std@@YAXAAPAU?$_Tree_node@U?$pair@$$CBV?$basic_string@DU?$char_traits@D@std@@V?$allocator@D@2@@std@@E@std@@PAX@0@0@Z ; std::_Construct_in_place<std::_Tree_node<std::pair<std::basic_string<char,std::char_traits<char>,std::allocator<char> > const ,unsigned char>,void *> *,std::_Tree_node<std::pair<std::basic_string<char,std::char_traits<char>,std::allocator<char> > const ,unsigned char>,void *> * &>
  00096	59		 pop	 ecx
  00097	59		 pop	 ecx

; 808  :         _Construct_in_place(this->_Ptr->_Parent, _Myhead);

  00098	8d 45 0c	 lea	 eax, DWORD PTR __Myhead$[ebp]
  0009b	50		 push	 eax
  0009c	8b 45 f0	 mov	 eax, DWORD PTR _this$[ebp]
  0009f	8b 40 04	 mov	 eax, DWORD PTR [eax+4]
  000a2	83 c0 04	 add	 eax, 4
  000a5	50		 push	 eax
  000a6	e8 00 00 00 00	 call	 ??$_Construct_in_place@PAU?$_Tree_node@U?$pair@$$CBV?$basic_string@DU?$char_traits@D@std@@V?$allocator@D@2@@std@@E@std@@PAX@std@@AAPAU12@@std@@YAXAAPAU?$_Tree_node@U?$pair@$$CBV?$basic_string@DU?$char_traits@D@std@@V?$allocator@D@2@@std@@E@std@@PAX@0@0@Z ; std::_Construct_in_place<std::_Tree_node<std::pair<std::basic_string<char,std::char_traits<char>,std::allocator<char> > const ,unsigned char>,void *> *,std::_Tree_node<std::pair<std::basic_string<char,std::char_traits<char>,std::allocator<char> > const ,unsigned char>,void *> * &>
  000ab	59		 pop	 ecx
  000ac	59		 pop	 ecx

; 809  :         _Construct_in_place(this->_Ptr->_Right, _Myhead);

  000ad	8d 45 0c	 lea	 eax, DWORD PTR __Myhead$[ebp]
  000b0	50		 push	 eax
  000b1	8b 45 f0	 mov	 eax, DWORD PTR _this$[ebp]
  000b4	8b 40 04	 mov	 eax, DWORD PTR [eax+4]
  000b7	83 c0 08	 add	 eax, 8
  000ba	50		 push	 eax
  000bb	e8 00 00 00 00	 call	 ??$_Construct_in_place@PAU?$_Tree_node@U?$pair@$$CBV?$basic_string@DU?$char_traits@D@std@@V?$allocator@D@2@@std@@E@std@@PAX@std@@AAPAU12@@std@@YAXAAPAU?$_Tree_node@U?$pair@$$CBV?$basic_string@DU?$char_traits@D@std@@V?$allocator@D@2@@std@@E@std@@PAX@0@0@Z ; std::_Construct_in_place<std::_Tree_node<std::pair<std::basic_string<char,std::char_traits<char>,std::allocator<char> > const ,unsigned char>,void *> *,std::_Tree_node<std::pair<std::basic_string<char,std::char_traits<char>,std::allocator<char> > const ,unsigned char>,void *> * &>
  000c0	59		 pop	 ecx
  000c1	59		 pop	 ecx

; 810  :         this->_Ptr->_Color = _Red;

  000c2	8b 45 f0	 mov	 eax, DWORD PTR _this$[ebp]
  000c5	8b 40 04	 mov	 eax, DWORD PTR [eax+4]
  000c8	c6 40 0c 00	 mov	 BYTE PTR [eax+12], 0

; 811  :         this->_Ptr->_Isnil = false;

  000cc	8b 45 f0	 mov	 eax, DWORD PTR _this$[ebp]
  000cf	8b 40 04	 mov	 eax, DWORD PTR [eax+4]
  000d2	c6 40 0d 00	 mov	 BYTE PTR [eax+13], 0

; 812  :     }

  000d6	83 4d fc ff	 or	 DWORD PTR __$EHRec$[ebp+8], -1
  000da	8b 45 f0	 mov	 eax, DWORD PTR _this$[ebp]
  000dd	8b 4d f4	 mov	 ecx, DWORD PTR __$EHRec$[ebp]
  000e0	64 89 0d 00 00
	00 00		 mov	 DWORD PTR fs:0, ecx
  000e7	59		 pop	 ecx
  000e8	c9		 leave
  000e9	c2 14 00	 ret	 20			; 00000014H
_TEXT	ENDS
;	COMDAT text$x
text$x	SEGMENT
__unwindfunclet$??$?0ABUpiecewise_construct_t@std@@V?$tuple@$$QAV?$basic_string@DU?$char_traits@D@std@@V?$allocator@D@2@@std@@@1@V?$tuple@$$V@1@@?$_Tree_temp_node@V?$allocator@U?$_Tree_node@U?$pair@$$CBV?$basic_string@DU?$char_traits@D@std@@V?$allocator@D@2@@std@@E@std@@PAX@std@@@std@@@std@@QAE@AAV?$allocator@U?$_Tree_node@U?$pair@$$CBV?$basic_string@DU?$char_traits@D@std@@V?$allocator@D@2@@std@@E@std@@PAX@std@@@1@PAU?$_Tree_node@U?$pair@$$CBV?$basic_string@DU?$char_traits@D@std@@V?$allocator@D@2@@std@@E@std@@PAX@1@ABUpiecewise_construct_t@1@$$QAV?$tuple@$$QAV?$basic_string@DU?$char_traits@D@std@@V?$allocator@D@2@@std@@@1@$$QAV?$tuple@$$V@1@@Z$1:
  00000	8b 4d f0	 mov	 ecx, DWORD PTR _this$[ebp]
  00003	e9 00 00 00 00	 jmp	 ??1?$_Alloc_construct_ptr@V?$allocator@U?$_Tree_node@U?$pair@$$CBV?$basic_string@DU?$char_traits@D@std@@V?$allocator@D@2@@std@@E@std@@PAX@std@@@std@@@std@@QAE@XZ ; std::_Alloc_construct_ptr<std::allocator<std::_Tree_node<std::pair<std::basic_string<char,std::char_traits<char>,std::allocator<char> > const ,unsigned char>,void *> > >::~_Alloc_construct_ptr<std::allocator<std::_Tree_node<std::pair<std::basic_string<char,std::char_traits<char>,std::allocator<char> > const ,unsigned char>,void *> > >
__unwindfunclet$??$?0ABUpiecewise_construct_t@std@@V?$tuple@$$QAV?$basic_string@DU?$char_traits@D@std@@V?$allocator@D@2@@std@@@1@V?$tuple@$$V@1@@?$_Tree_temp_node@V?$allocator@U?$_Tree_node@U?$pair@$$CBV?$basic_string@DU?$char_traits@D@std@@V?$allocator@D@2@@std@@E@std@@PAX@std@@@std@@@std@@QAE@AAV?$allocator@U?$_Tree_node@U?$pair@$$CBV?$basic_string@DU?$char_traits@D@std@@V?$allocator@D@2@@std@@E@std@@PAX@std@@@1@PAU?$_Tree_node@U?$pair@$$CBV?$basic_string@DU?$char_traits@D@std@@V?$allocator@D@2@@std@@E@std@@PAX@1@ABUpiecewise_construct_t@1@$$QAV?$tuple@$$QAV?$basic_string@DU?$char_traits@D@std@@V?$allocator@D@2@@std@@@1@$$QAV?$tuple@$$V@1@@Z$0:
  00008	8b 4d f0	 mov	 ecx, DWORD PTR _this$[ebp]
  0000b	e9 00 00 00 00	 jmp	 ??1?$_Tree_temp_node_alloc@V?$allocator@U?$_Tree_node@U?$pair@$$CBV?$basic_string@DU?$char_traits@D@std@@V?$allocator@D@2@@std@@E@std@@PAX@std@@@std@@@std@@QAE@XZ
  00010	cc		 int	 3
  00011	cc		 int	 3
  00012	cc		 int	 3
  00013	cc		 int	 3
  00014	cc		 int	 3
__ehhandler$??$?0ABUpiecewise_construct_t@std@@V?$tuple@$$QAV?$basic_string@DU?$char_traits@D@std@@V?$allocator@D@2@@std@@@1@V?$tuple@$$V@1@@?$_Tree_temp_node@V?$allocator@U?$_Tree_node@U?$pair@$$CBV?$basic_string@DU?$char_traits@D@std@@V?$allocator@D@2@@std@@E@std@@PAX@std@@@std@@@std@@QAE@AAV?$allocator@U?$_Tree_node@U?$pair@$$CBV?$basic_string@DU?$char_traits@D@std@@V?$allocator@D@2@@std@@E@std@@PAX@std@@@1@PAU?$_Tree_node@U?$pair@$$CBV?$basic_string@DU?$char_traits@D@std@@V?$allocator@D@2@@std@@E@std@@PAX@1@ABUpiecewise_construct_t@1@$$QAV?$tuple@$$QAV?$basic_string@DU?$char_traits@D@std@@V?$allocator@D@2@@std@@@1@$$QAV?$tuple@$$V@1@@Z:
  00015	90		 npad	 1
  00016	90		 npad	 1
  00017	8b 54 24 08	 mov	 edx, DWORD PTR [esp+8]
  0001b	8d 42 0c	 lea	 eax, DWORD PTR [edx+12]
  0001e	8b 4a e4	 mov	 ecx, DWORD PTR [edx-28]
  00021	33 c8		 xor	 ecx, eax
  00023	e8 00 00 00 00	 call	 @__security_check_cookie@4
  00028	b8 00 00 00 00	 mov	 eax, OFFSET __ehfuncinfo$??$?0ABUpiecewise_construct_t@std@@V?$tuple@$$QAV?$basic_string@DU?$char_traits@D@std@@V?$allocator@D@2@@std@@@1@V?$tuple@$$V@1@@?$_Tree_temp_node@V?$allocator@U?$_Tree_node@U?$pair@$$CBV?$basic_string@DU?$char_traits@D@std@@V?$allocator@D@2@@std@@E@std@@PAX@std@@@std@@@std@@QAE@AAV?$allocator@U?$_Tree_node@U?$pair@$$CBV?$basic_string@DU?$char_traits@D@std@@V?$allocator@D@2@@std@@E@std@@PAX@std@@@1@PAU?$_Tree_node@U?$pair@$$CBV?$basic_string@DU?$char_traits@D@std@@V?$allocator@D@2@@std@@E@std@@PAX@1@ABUpiecewise_construct_t@1@$$QAV?$tuple@$$QAV?$basic_string@DU?$char_traits@D@std@@V?$allocator@D@2@@std@@@1@$$QAV?$tuple@$$V@1@@Z
  0002d	e9 00 00 00 00	 jmp	 ___CxxFrameHandler3
text$x	ENDS
??$?0ABUpiecewise_construct_t@std@@V?$tuple@$$QAV?$basic_string@DU?$char_traits@D@std@@V?$allocator@D@2@@std@@@1@V?$tuple@$$V@1@@?$_Tree_temp_node@V?$allocator@U?$_Tree_node@U?$pair@$$CBV?$basic_string@DU?$char_traits@D@std@@V?$allocator@D@2@@std@@E@std@@PAX@std@@@std@@@std@@QAE@AAV?$allocator@U?$_Tree_node@U?$pair@$$CBV?$basic_string@DU?$char_traits@D@std@@V?$allocator@D@2@@std@@E@std@@PAX@std@@@1@PAU?$_Tree_node@U?$pair@$$CBV?$basic_string@DU?$char_traits@D@std@@V?$allocator@D@2@@std@@E@std@@PAX@1@ABUpiecewise_construct_t@1@$$QAV?$tuple@$$QAV?$basic_string@DU?$char_traits@D@std@@V?$allocator@D@2@@std@@@1@$$QAV?$tuple@$$V@1@@Z ENDP ; std::_Tree_temp_node<std::allocator<std::_Tree_node<std::pair<std::basic_string<char,std::char_traits<char>,std::allocator<char> > const ,unsigned char>,void *> > >::_Tree_temp_node<std::allocator<std::_Tree_node<std::pair<std::basic_string<char,std::char_traits<char>,std::allocator<char> > const ,unsigned char>,void *> > ><std::piecewise_construct_t const &,std::tuple<std::basic_string<char,std::char_traits<char>,std::allocator<char> > &&>,std::tuple<> >
; Function compile flags: /Odspy
; File C:\Program Files (x86)\Microsoft Visual Studio\2019\Community\VC\Tools\MSVC\14.28.29333\include\xtree
; File C:\Program Files (x86)\Microsoft Visual Studio\2019\Community\VC\Tools\MSVC\14.28.29333\include\xstddef
; File C:\Program Files (x86)\Microsoft Visual Studio\2019\Community\VC\Tools\MSVC\14.28.29333\include\xtree
; File C:\Program Files (x86)\Microsoft Visual Studio\2019\Community\VC\Tools\MSVC\14.28.29333\include\xstring
; File C:\Program Files (x86)\Microsoft Visual Studio\2019\Community\VC\Tools\MSVC\14.28.29333\include\xtree
;	COMDAT ??1?$_Tree_temp_node@V?$allocator@U?$_Tree_node@U?$pair@$$CBV?$basic_string@DU?$char_traits@D@std@@V?$allocator@D@2@@std@@E@std@@PAX@std@@@std@@@std@@QAE@XZ
_TEXT	SEGMENT
___formal$ = -16					; size = 4
__Val$ = -12						; size = 4
$T1 = -8						; size = 4
_this$ = -4						; size = 4
??1?$_Tree_temp_node@V?$allocator@U?$_Tree_node@U?$pair@$$CBV?$basic_string@DU?$char_traits@D@std@@V?$allocator@D@2@@std@@E@std@@PAX@std@@@std@@@std@@QAE@XZ PROC ; std::_Tree_temp_node<std::allocator<std::_Tree_node<std::pair<std::basic_string<char,std::char_traits<char>,std::allocator<char> > const ,unsigned char>,void *> > >::~_Tree_temp_node<std::allocator<std::_Tree_node<std::pair<std::basic_string<char,std::char_traits<char>,std::allocator<char> > const ,unsigned char>,void *> > >, COMDAT
; _this$ = ecx

; 817  :     ~_Tree_temp_node() {

  00000	55		 push	 ebp
  00001	8b ec		 mov	 ebp, esp
  00003	83 ec 10	 sub	 esp, 16			; 00000010H
  00006	89 4d fc	 mov	 DWORD PTR _this$[ebp], ecx

; 818  :         if (this->_Ptr) {

  00009	8b 45 fc	 mov	 eax, DWORD PTR _this$[ebp]
  0000c	83 78 04 00	 cmp	 DWORD PTR [eax+4], 0
  00010	74 61		 je	 SHORT $LN28@Tree_temp_

; 819  :             _Destroy_in_place(this->_Ptr->_Left);

  00012	8b 45 fc	 mov	 eax, DWORD PTR _this$[ebp]
  00015	ff 70 04	 push	 DWORD PTR [eax+4]
  00018	e8 00 00 00 00	 call	 ??$_Destroy_in_place@PAU?$_Tree_node@U?$pair@$$CBV?$basic_string@DU?$char_traits@D@std@@V?$allocator@D@2@@std@@E@std@@PAX@std@@@std@@YAXAAPAU?$_Tree_node@U?$pair@$$CBV?$basic_string@DU?$char_traits@D@std@@V?$allocator@D@2@@std@@E@std@@PAX@0@@Z ; std::_Destroy_in_place<std::_Tree_node<std::pair<std::basic_string<char,std::char_traits<char>,std::allocator<char> > const ,unsigned char>,void *> *>
  0001d	59		 pop	 ecx

; 820  :             _Destroy_in_place(this->_Ptr->_Parent);

  0001e	8b 45 fc	 mov	 eax, DWORD PTR _this$[ebp]
  00021	8b 40 04	 mov	 eax, DWORD PTR [eax+4]
  00024	83 c0 04	 add	 eax, 4
  00027	50		 push	 eax
  00028	e8 00 00 00 00	 call	 ??$_Destroy_in_place@PAU?$_Tree_node@U?$pair@$$CBV?$basic_string@DU?$char_traits@D@std@@V?$allocator@D@2@@std@@E@std@@PAX@std@@@std@@YAXAAPAU?$_Tree_node@U?$pair@$$CBV?$basic_string@DU?$char_traits@D@std@@V?$allocator@D@2@@std@@E@std@@PAX@0@@Z ; std::_Destroy_in_place<std::_Tree_node<std::pair<std::basic_string<char,std::char_traits<char>,std::allocator<char> > const ,unsigned char>,void *> *>
  0002d	59		 pop	 ecx

; 821  :             _Destroy_in_place(this->_Ptr->_Right);

  0002e	8b 45 fc	 mov	 eax, DWORD PTR _this$[ebp]
  00031	8b 40 04	 mov	 eax, DWORD PTR [eax+4]
  00034	83 c0 08	 add	 eax, 8
  00037	50		 push	 eax
  00038	e8 00 00 00 00	 call	 ??$_Destroy_in_place@PAU?$_Tree_node@U?$pair@$$CBV?$basic_string@DU?$char_traits@D@std@@V?$allocator@D@2@@std@@E@std@@PAX@std@@@std@@YAXAAPAU?$_Tree_node@U?$pair@$$CBV?$basic_string@DU?$char_traits@D@std@@V?$allocator@D@2@@std@@E@std@@PAX@0@@Z ; std::_Destroy_in_place<std::_Tree_node<std::pair<std::basic_string<char,std::char_traits<char>,std::allocator<char> > const ,unsigned char>,void *> *>
  0003d	59		 pop	 ecx

; 822  :             _Alnode_traits::destroy(this->_Al, _STD addressof(this->_Ptr->_Myval));

  0003e	8b 45 fc	 mov	 eax, DWORD PTR _this$[ebp]
  00041	8b 40 04	 mov	 eax, DWORD PTR [eax+4]
  00044	83 c0 10	 add	 eax, 16			; 00000010H
  00047	89 45 f4	 mov	 DWORD PTR __Val$[ebp], eax
; File C:\Program Files (x86)\Microsoft Visual Studio\2019\Community\VC\Tools\MSVC\14.28.29333\include\xstddef

; 275  :     return __builtin_addressof(_Val);

  0004a	8b 45 f4	 mov	 eax, DWORD PTR __Val$[ebp]
  0004d	89 45 f8	 mov	 DWORD PTR $T1[ebp], eax
; File C:\Program Files (x86)\Microsoft Visual Studio\2019\Community\VC\Tools\MSVC\14.28.29333\include\xtree

; 822  :             _Alnode_traits::destroy(this->_Al, _STD addressof(this->_Ptr->_Myval));

  00050	8b 45 fc	 mov	 eax, DWORD PTR _this$[ebp]
  00053	8b 00		 mov	 eax, DWORD PTR [eax]
  00055	89 45 f0	 mov	 DWORD PTR ___formal$[ebp], eax
; File C:\Program Files (x86)\Microsoft Visual Studio\2019\Community\VC\Tools\MSVC\14.28.29333\include\xstring

; 2801 :         _Tidy_deallocate();

  00058	8b 4d f8	 mov	 ecx, DWORD PTR $T1[ebp]
  0005b	e8 00 00 00 00	 call	 ?_Tidy_deallocate@?$basic_string@DU?$char_traits@D@std@@V?$allocator@D@2@@std@@AAEXXZ ; std::basic_string<char,std::char_traits<char>,std::allocator<char> >::_Tidy_deallocate
  00060	33 c0		 xor	 eax, eax
  00062	83 e0 01	 and	 eax, 1
  00065	74 0c		 je	 SHORT $LN28@Tree_temp_
  00067	6a 1c		 push	 28			; 0000001cH
  00069	ff 75 f8	 push	 DWORD PTR $T1[ebp]
  0006c	e8 00 00 00 00	 call	 ??3@YAXPAXI@Z		; operator delete
  00071	59		 pop	 ecx
  00072	59		 pop	 ecx
$LN28@Tree_temp_:
  00073	8b 4d fc	 mov	 ecx, DWORD PTR _this$[ebp]
  00076	e8 00 00 00 00	 call	 ??1?$_Alloc_construct_ptr@V?$allocator@U?$_Tree_node@U?$pair@$$CBV?$basic_string@DU?$char_traits@D@std@@V?$allocator@D@2@@std@@E@std@@PAX@std@@@std@@@std@@QAE@XZ ; std::_Alloc_construct_ptr<std::allocator<std::_Tree_node<std::pair<std::basic_string<char,std::char_traits<char>,std::allocator<char> > const ,unsigned char>,void *> > >::~_Alloc_construct_ptr<std::allocator<std::_Tree_node<std::pair<std::basic_string<char,std::char_traits<char>,std::allocator<char> > const ,unsigned char>,void *> > >
; File C:\Program Files (x86)\Microsoft Visual Studio\2019\Community\VC\Tools\MSVC\14.28.29333\include\xtree

; 824  :     }

  0007b	c9		 leave
  0007c	c3		 ret	 0
??1?$_Tree_temp_node@V?$allocator@U?$_Tree_node@U?$pair@$$CBV?$basic_string@DU?$char_traits@D@std@@V?$allocator@D@2@@std@@E@std@@PAX@std@@@std@@@std@@QAE@XZ ENDP ; std::_Tree_temp_node<std::allocator<std::_Tree_node<std::pair<std::basic_string<char,std::char_traits<char>,std::allocator<char> > const ,unsigned char>,void *> > >::~_Tree_temp_node<std::allocator<std::_Tree_node<std::pair<std::basic_string<char,std::char_traits<char>,std::allocator<char> > const ,unsigned char>,void *> > >
_TEXT	ENDS
; Function compile flags: /Odspy
;	COMDAT ??1?$_Tree_temp_node_alloc@V?$allocator@U?$_Tree_node@U?$pair@$$CBV?$basic_string@DU?$char_traits@D@std@@V?$allocator@D@2@@std@@E@std@@PAX@std@@@std@@@std@@QAE@XZ
_TEXT	SEGMENT
_this$ = -4						; size = 4
??1?$_Tree_temp_node_alloc@V?$allocator@U?$_Tree_node@U?$pair@$$CBV?$basic_string@DU?$char_traits@D@std@@V?$allocator@D@2@@std@@E@std@@PAX@std@@@std@@@std@@QAE@XZ PROC ; std::_Tree_temp_node_alloc<std::allocator<std::_Tree_node<std::pair<std::basic_string<char,std::char_traits<char>,std::allocator<char> > const ,unsigned char>,void *> > >::~_Tree_temp_node_alloc<std::allocator<std::_Tree_node<std::pair<std::basic_string<char,std::char_traits<char>,std::allocator<char> > const ,unsigned char>,void *> > >, COMDAT
; _this$ = ecx
  00000	55		 push	 ebp
  00001	8b ec		 mov	 ebp, esp
  00003	51		 push	 ecx
  00004	89 4d fc	 mov	 DWORD PTR _this$[ebp], ecx
  00007	8b 4d fc	 mov	 ecx, DWORD PTR _this$[ebp]
  0000a	e8 00 00 00 00	 call	 ??1?$_Alloc_construct_ptr@V?$allocator@U?$_Tree_node@U?$pair@$$CBV?$basic_string@DU?$char_traits@D@std@@V?$allocator@D@2@@std@@E@std@@PAX@std@@@std@@@std@@QAE@XZ ; std::_Alloc_construct_ptr<std::allocator<std::_Tree_node<std::pair<std::basic_string<char,std::char_traits<char>,std::allocator<char> > const ,unsigned char>,void *> > >::~_Alloc_construct_ptr<std::allocator<std::_Tree_node<std::pair<std::basic_string<char,std::char_traits<char>,std::allocator<char> > const ,unsigned char>,void *> > >
  0000f	c9		 leave
  00010	c3		 ret	 0
??1?$_Tree_temp_node_alloc@V?$allocator@U?$_Tree_node@U?$pair@$$CBV?$basic_string@DU?$char_traits@D@std@@V?$allocator@D@2@@std@@E@std@@PAX@std@@@std@@@std@@QAE@XZ ENDP ; std::_Tree_temp_node_alloc<std::allocator<std::_Tree_node<std::pair<std::basic_string<char,std::char_traits<char>,std::allocator<char> > const ,unsigned char>,void *> > >::~_Tree_temp_node_alloc<std::allocator<std::_Tree_node<std::pair<std::basic_string<char,std::char_traits<char>,std::allocator<char> > const ,unsigned char>,void *> > >
_TEXT	ENDS
; Function compile flags: /Odspy
; File C:\Program Files (x86)\Microsoft Visual Studio\2019\Community\VC\Tools\MSVC\14.28.29333\include\xmemory
;	COMDAT ??1?$_Alloc_construct_ptr@V?$allocator@U?$_Tree_node@U?$pair@$$CBV?$basic_string@DU?$char_traits@D@std@@V?$allocator@D@2@@std@@E@std@@PAX@std@@@std@@@std@@QAE@XZ
_TEXT	SEGMENT
_this$ = -12						; size = 4
__Ptr$ = -8						; size = 4
_this$ = -4						; size = 4
??1?$_Alloc_construct_ptr@V?$allocator@U?$_Tree_node@U?$pair@$$CBV?$basic_string@DU?$char_traits@D@std@@V?$allocator@D@2@@std@@E@std@@PAX@std@@@std@@@std@@QAE@XZ PROC ; std::_Alloc_construct_ptr<std::allocator<std::_Tree_node<std::pair<std::basic_string<char,std::char_traits<char>,std::allocator<char> > const ,unsigned char>,void *> > >::~_Alloc_construct_ptr<std::allocator<std::_Tree_node<std::pair<std::basic_string<char,std::char_traits<char>,std::allocator<char> > const ,unsigned char>,void *> > >, COMDAT
; _this$ = ecx

; 1056 :     ~_Alloc_construct_ptr() { // if this instance is engaged, deallocate storage

  00000	55		 push	 ebp
  00001	8b ec		 mov	 ebp, esp
  00003	83 ec 0c	 sub	 esp, 12			; 0000000cH
  00006	89 4d fc	 mov	 DWORD PTR _this$[ebp], ecx

; 1057 :         if (_Ptr) {

  00009	8b 45 fc	 mov	 eax, DWORD PTR _this$[ebp]
  0000c	83 78 04 00	 cmp	 DWORD PTR [eax+4], 0
  00010	74 22		 je	 SHORT $LN3@Alloc_cons

; 1058 :             _Al.deallocate(_Ptr, 1);

  00012	8b 45 fc	 mov	 eax, DWORD PTR _this$[ebp]
  00015	8b 40 04	 mov	 eax, DWORD PTR [eax+4]
  00018	89 45 f8	 mov	 DWORD PTR __Ptr$[ebp], eax
  0001b	8b 45 fc	 mov	 eax, DWORD PTR _this$[ebp]
  0001e	8b 00		 mov	 eax, DWORD PTR [eax]
  00020	89 45 f4	 mov	 DWORD PTR _this$[ebp], eax

; 810  :         _Deallocate<_New_alignof<_Ty>>(_Ptr, sizeof(_Ty) * _Count);

  00023	33 c0		 xor	 eax, eax
  00025	40		 inc	 eax
  00026	6b c0 2c	 imul	 eax, eax, 44
  00029	50		 push	 eax
  0002a	ff 75 f8	 push	 DWORD PTR __Ptr$[ebp]
  0002d	e8 00 00 00 00	 call	 ??$_Deallocate@$07$0A@@std@@YAXPAXI@Z ; std::_Deallocate<8,0>
  00032	59		 pop	 ecx
  00033	59		 pop	 ecx
$LN3@Alloc_cons:

; 1059 :         }
; 1060 :     }

  00034	c9		 leave
  00035	c3		 ret	 0
??1?$_Alloc_construct_ptr@V?$allocator@U?$_Tree_node@U?$pair@$$CBV?$basic_string@DU?$char_traits@D@std@@V?$allocator@D@2@@std@@E@std@@PAX@std@@@std@@@std@@QAE@XZ ENDP ; std::_Alloc_construct_ptr<std::allocator<std::_Tree_node<std::pair<std::basic_string<char,std::char_traits<char>,std::allocator<char> > const ,unsigned char>,void *> > >::~_Alloc_construct_ptr<std::allocator<std::_Tree_node<std::pair<std::basic_string<char,std::char_traits<char>,std::allocator<char> > const ,unsigned char>,void *> > >
_TEXT	ENDS
; Function compile flags: /Odspy
; File C:\Program Files (x86)\Microsoft Visual Studio\2019\Community\VC\Tools\MSVC\14.28.29333\include\xmemory
;	COMDAT ?_Allocate@?$_Alloc_construct_ptr@V?$allocator@U?$_Tree_node@U?$pair@$$CBV?$basic_string@DU?$char_traits@D@std@@V?$allocator@D@2@@std@@E@std@@PAX@std@@@std@@@std@@QAEXXZ
_TEXT	SEGMENT
__Max_possible$1 = -24					; size = 4
_this$ = -20						; size = 4
$T2 = -16						; size = 4
$T3 = -12						; size = 4
_this$ = -8						; size = 4
__Overflow_is_possible$4 = -1				; size = 1
?_Allocate@?$_Alloc_construct_ptr@V?$allocator@U?$_Tree_node@U?$pair@$$CBV?$basic_string@DU?$char_traits@D@std@@V?$allocator@D@2@@std@@E@std@@PAX@std@@@std@@@std@@QAEXXZ PROC ; std::_Alloc_construct_ptr<std::allocator<std::_Tree_node<std::pair<std::basic_string<char,std::char_traits<char>,std::allocator<char> > const ,unsigned char>,void *> > >::_Allocate, COMDAT
; _this$ = ecx

; 1051 :     void _Allocate() { // disengage *this, then allocate a new memory block

  00000	55		 push	 ebp
  00001	8b ec		 mov	 ebp, esp
  00003	83 ec 18	 sub	 esp, 24			; 00000018H
  00006	89 4d f8	 mov	 DWORD PTR _this$[ebp], ecx

; 1052 :         _Ptr = nullptr; // if allocate throws, prevents double-free

  00009	8b 45 f8	 mov	 eax, DWORD PTR _this$[ebp]
  0000c	83 60 04 00	 and	 DWORD PTR [eax+4], 0

; 1053 :         _Ptr = _Al.allocate(1);

  00010	8b 45 f8	 mov	 eax, DWORD PTR _this$[ebp]
  00013	8b 00		 mov	 eax, DWORD PTR [eax]
  00015	89 45 ec	 mov	 DWORD PTR _this$[ebp], eax

; 56   :     constexpr bool _Overflow_is_possible = _Ty_size > 1;

  00018	c6 45 ff 01	 mov	 BYTE PTR __Overflow_is_possible$4[ebp], 1

; 57   : 
; 58   :     if _CONSTEXPR_IF (_Overflow_is_possible) {
; 59   :         constexpr size_t _Max_possible = static_cast<size_t>(-1) / _Ty_size;

  0001c	c7 45 e8 5d 74
	d1 05		 mov	 DWORD PTR __Max_possible$1[ebp], 97612893 ; 05d1745dH

; 60   :         if (_Count > _Max_possible) {

  00023	33 c0		 xor	 eax, eax
  00025	40		 inc	 eax
  00026	3d 5d 74 d1 05	 cmp	 eax, 97612893		; 05d1745dH
  0002b	76 05		 jbe	 SHORT $LN6@Allocate

; 61   :             _Throw_bad_array_new_length(); // multiply overflow

  0002d	e8 00 00 00 00	 call	 ?_Throw_bad_array_new_length@std@@YAXXZ ; std::_Throw_bad_array_new_length
$LN6@Allocate:

; 62   :         }
; 63   :     }
; 64   : 
; 65   :     return _Count * _Ty_size;

  00032	33 c0		 xor	 eax, eax
  00034	40		 inc	 eax
  00035	6b c0 2c	 imul	 eax, eax, 44
  00038	89 45 f4	 mov	 DWORD PTR $T3[ebp], eax

; 814  :         return static_cast<_Ty*>(_Allocate<_New_alignof<_Ty>>(_Get_size_of_n<sizeof(_Ty)>(_Count)));

  0003b	ff 75 f4	 push	 DWORD PTR $T3[ebp]
  0003e	e8 00 00 00 00	 call	 ??$_Allocate@$07U_Default_allocate_traits@std@@$0A@@std@@YAPAXI@Z ; std::_Allocate<8,std::_Default_allocate_traits,0>
  00043	59		 pop	 ecx
  00044	89 45 f0	 mov	 DWORD PTR $T2[ebp], eax

; 1053 :         _Ptr = _Al.allocate(1);

  00047	8b 45 f8	 mov	 eax, DWORD PTR _this$[ebp]
  0004a	8b 4d f0	 mov	 ecx, DWORD PTR $T2[ebp]
  0004d	89 48 04	 mov	 DWORD PTR [eax+4], ecx
$LN9@Allocate:

; 1054 :     }

  00050	c9		 leave
  00051	c3		 ret	 0
?_Allocate@?$_Alloc_construct_ptr@V?$allocator@U?$_Tree_node@U?$pair@$$CBV?$basic_string@DU?$char_traits@D@std@@V?$allocator@D@2@@std@@E@std@@PAX@std@@@std@@@std@@QAEXXZ ENDP ; std::_Alloc_construct_ptr<std::allocator<std::_Tree_node<std::pair<std::basic_string<char,std::char_traits<char>,std::allocator<char> > const ,unsigned char>,void *> > >::_Allocate
_TEXT	ENDS
; Function compile flags: /Odspy
; File C:\Program Files (x86)\Microsoft Visual Studio\2019\Community\VC\Tools\MSVC\14.28.29333\include\xtree
; File C:\Program Files (x86)\Microsoft Visual Studio\2019\Community\VC\Tools\MSVC\14.28.29333\include\xmemory
; File C:\Program Files (x86)\Microsoft Visual Studio\2019\Community\VC\Tools\MSVC\14.28.29333\include\xtree
; File C:\Program Files (x86)\Microsoft Visual Studio\2019\Community\VC\Tools\MSVC\14.28.29333\include\map
; File C:\Program Files (x86)\Microsoft Visual Studio\2019\Community\VC\Tools\MSVC\14.28.29333\include\xstddef
; File C:\Program Files (x86)\Microsoft Visual Studio\2019\Community\VC\Tools\MSVC\14.28.29333\include\xtree
;	COMDAT ??$_Lower_bound_duplicate@V?$basic_string@DU?$char_traits@D@std@@V?$allocator@D@2@@std@@@?$_Tree@V?$_Tmap_traits@V?$basic_string@DU?$char_traits@D@std@@V?$allocator@D@2@@std@@EU?$less@V?$basic_string@DU?$char_traits@D@std@@V?$allocator@D@2@@std@@@2@V?$allocator@U?$pair@$$CBV?$basic_string@DU?$char_traits@D@std@@V?$allocator@D@2@@std@@E@std@@@2@$0A@@std@@@std@@IBE_NQAU?$_Tree_node@U?$pair@$$CBV?$basic_string@DU?$char_traits@D@std@@V?$allocator@D@2@@std@@E@std@@PAX@1@ABV?$basic_string@DU?$char_traits@D@std@@V?$allocator@D@2@@1@@Z
_TEXT	SEGMENT
$T1 = -16						; size = 4
$T2 = -12						; size = 4
_this$ = -8						; size = 4
tv78 = -4						; size = 4
__Bound$ = 8						; size = 4
__Keyval$ = 12						; size = 4
??$_Lower_bound_duplicate@V?$basic_string@DU?$char_traits@D@std@@V?$allocator@D@2@@std@@@?$_Tree@V?$_Tmap_traits@V?$basic_string@DU?$char_traits@D@std@@V?$allocator@D@2@@std@@EU?$less@V?$basic_string@DU?$char_traits@D@std@@V?$allocator@D@2@@std@@@2@V?$allocator@U?$pair@$$CBV?$basic_string@DU?$char_traits@D@std@@V?$allocator@D@2@@std@@E@std@@@2@$0A@@std@@@std@@IBE_NQAU?$_Tree_node@U?$pair@$$CBV?$basic_string@DU?$char_traits@D@std@@V?$allocator@D@2@@std@@E@std@@PAX@1@ABV?$basic_string@DU?$char_traits@D@std@@V?$allocator@D@2@@1@@Z PROC ; std::_Tree<std::_Tmap_traits<std::basic_string<char,std::char_traits<char>,std::allocator<char> >,unsigned char,std::less<std::basic_string<char,std::char_traits<char>,std::allocator<char> > >,std::allocator<std::pair<std::basic_string<char,std::char_traits<char>,std::allocator<char> > const ,unsigned char> >,0> >::_Lower_bound_duplicate<std::basic_string<char,std::char_traits<char>,std::allocator<char> > >, COMDAT
; _this$ = ecx

; 1694 :     bool _Lower_bound_duplicate(const _Nodeptr _Bound, const _Keyty& _Keyval) const {

  00000	55		 push	 ebp
  00001	8b ec		 mov	 ebp, esp
  00003	83 ec 10	 sub	 esp, 16			; 00000010H
  00006	89 4d f8	 mov	 DWORD PTR _this$[ebp], ecx

; 1695 :         return !_Bound->_Isnil && !_DEBUG_LT_PRED(_Getcomp(), _Keyval, _Traits::_Kfn(_Bound->_Myval));

  00009	8b 45 08	 mov	 eax, DWORD PTR __Bound$[ebp]
  0000c	0f be 40 0d	 movsx	 eax, BYTE PTR [eax+13]
  00010	85 c0		 test	 eax, eax
  00012	75 2d		 jne	 SHORT $LN3@Lower_boun

; 2035 :         return _Mypair._Get_first();

  00014	8b 45 f8	 mov	 eax, DWORD PTR _this$[ebp]
; File C:\Program Files (x86)\Microsoft Visual Studio\2019\Community\VC\Tools\MSVC\14.28.29333\include\xmemory

; 1351 :         return *this;

  00017	89 45 f4	 mov	 DWORD PTR $T2[ebp], eax
; File C:\Program Files (x86)\Microsoft Visual Studio\2019\Community\VC\Tools\MSVC\14.28.29333\include\xtree

; 2035 :         return _Mypair._Get_first();

  0001a	8b 45 f4	 mov	 eax, DWORD PTR $T2[ebp]
  0001d	89 45 f0	 mov	 DWORD PTR $T1[ebp], eax
; File C:\Program Files (x86)\Microsoft Visual Studio\2019\Community\VC\Tools\MSVC\14.28.29333\include\map

; 69   :         return _Val.first;

  00020	8b 45 08	 mov	 eax, DWORD PTR __Bound$[ebp]
  00023	83 c0 10	 add	 eax, 16			; 00000010H
; File C:\Program Files (x86)\Microsoft Visual Studio\2019\Community\VC\Tools\MSVC\14.28.29333\include\xstddef

; 127  :         return _Left < _Right;

  00026	50		 push	 eax
  00027	ff 75 0c	 push	 DWORD PTR __Keyval$[ebp]
  0002a	e8 00 00 00 00	 call	 ??$?MDU?$char_traits@D@std@@V?$allocator@D@1@@std@@YA_NABV?$basic_string@DU?$char_traits@D@std@@V?$allocator@D@2@@0@0@Z ; std::operator<<char,std::char_traits<char>,std::allocator<char> >
  0002f	59		 pop	 ecx
  00030	59		 pop	 ecx
; File C:\Program Files (x86)\Microsoft Visual Studio\2019\Community\VC\Tools\MSVC\14.28.29333\include\xtree

; 1695 :         return !_Bound->_Isnil && !_DEBUG_LT_PRED(_Getcomp(), _Keyval, _Traits::_Kfn(_Bound->_Myval));

  00031	0f b6 c0	 movzx	 eax, al
  00034	85 c0		 test	 eax, eax
  00036	75 09		 jne	 SHORT $LN3@Lower_boun
  00038	c7 45 fc 01 00
	00 00		 mov	 DWORD PTR tv78[ebp], 1
  0003f	eb 04		 jmp	 SHORT $LN4@Lower_boun
$LN3@Lower_boun:
  00041	83 65 fc 00	 and	 DWORD PTR tv78[ebp], 0
$LN4@Lower_boun:
  00045	8a 45 fc	 mov	 al, BYTE PTR tv78[ebp]

; 1696 :     }

  00048	c9		 leave
  00049	c2 08 00	 ret	 8
??$_Lower_bound_duplicate@V?$basic_string@DU?$char_traits@D@std@@V?$allocator@D@2@@std@@@?$_Tree@V?$_Tmap_traits@V?$basic_string@DU?$char_traits@D@std@@V?$allocator@D@2@@std@@EU?$less@V?$basic_string@DU?$char_traits@D@std@@V?$allocator@D@2@@std@@@2@V?$allocator@U?$pair@$$CBV?$basic_string@DU?$char_traits@D@std@@V?$allocator@D@2@@std@@E@std@@@2@$0A@@std@@@std@@IBE_NQAU?$_Tree_node@U?$pair@$$CBV?$basic_string@DU?$char_traits@D@std@@V?$allocator@D@2@@std@@E@std@@PAX@1@ABV?$basic_string@DU?$char_traits@D@std@@V?$allocator@D@2@@1@@Z ENDP ; std::_Tree<std::_Tmap_traits<std::basic_string<char,std::char_traits<char>,std::allocator<char> >,unsigned char,std::less<std::basic_string<char,std::char_traits<char>,std::allocator<char> > >,std::allocator<std::pair<std::basic_string<char,std::char_traits<char>,std::allocator<char> > const ,unsigned char> >,0> >::_Lower_bound_duplicate<std::basic_string<char,std::char_traits<char>,std::allocator<char> > >
_TEXT	ENDS
; Function compile flags: /Odspy
; File C:\Program Files (x86)\Microsoft Visual Studio\2019\Community\VC\Tools\MSVC\14.28.29333\include\xtree
; File C:\Program Files (x86)\Microsoft Visual Studio\2019\Community\VC\Tools\MSVC\14.28.29333\include\xstddef
; File C:\Program Files (x86)\Microsoft Visual Studio\2019\Community\VC\Tools\MSVC\14.28.29333\include\xtree
; File C:\Program Files (x86)\Microsoft Visual Studio\2019\Community\VC\Tools\MSVC\14.28.29333\include\xmemory
; File C:\Program Files (x86)\Microsoft Visual Studio\2019\Community\VC\Tools\MSVC\14.28.29333\include\xtree
; File C:\Program Files (x86)\Microsoft Visual Studio\2019\Community\VC\Tools\MSVC\14.28.29333\include\xstddef
; File C:\Program Files (x86)\Microsoft Visual Studio\2019\Community\VC\Tools\MSVC\14.28.29333\include\map
; File C:\Program Files (x86)\Microsoft Visual Studio\2019\Community\VC\Tools\MSVC\14.28.29333\include\xstddef
; File C:\Program Files (x86)\Microsoft Visual Studio\2019\Community\VC\Tools\MSVC\14.28.29333\include\xtree
;	COMDAT ??$_Find_lower_bound@V?$basic_string@DU?$char_traits@D@std@@V?$allocator@D@2@@std@@@?$_Tree@V?$_Tmap_traits@V?$basic_string@DU?$char_traits@D@std@@V?$allocator@D@2@@std@@EU?$less@V?$basic_string@DU?$char_traits@D@std@@V?$allocator@D@2@@std@@@2@V?$allocator@U?$pair@$$CBV?$basic_string@DU?$char_traits@D@std@@V?$allocator@D@2@@std@@E@std@@@2@$0A@@std@@@std@@IBE?AU?$_Tree_find_result@PAU?$_Tree_node@U?$pair@$$CBV?$basic_string@DU?$char_traits@D@std@@V?$allocator@D@2@@std@@E@std@@PAX@std@@@1@ABV?$basic_string@DU?$char_traits@D@std@@V?$allocator@D@2@@1@@Z
_TEXT	SEGMENT
__Result$ = -36						; size = 12
$T1 = -24						; size = 4
$T2 = -20						; size = 4
$T3 = -16						; size = 4
_this$ = -12						; size = 4
__Scary$ = -8						; size = 4
__Trynode$ = -4						; size = 4
___$ReturnUdt$ = 8					; size = 4
__Keyval$ = 12						; size = 4
??$_Find_lower_bound@V?$basic_string@DU?$char_traits@D@std@@V?$allocator@D@2@@std@@@?$_Tree@V?$_Tmap_traits@V?$basic_string@DU?$char_traits@D@std@@V?$allocator@D@2@@std@@EU?$less@V?$basic_string@DU?$char_traits@D@std@@V?$allocator@D@2@@std@@@2@V?$allocator@U?$pair@$$CBV?$basic_string@DU?$char_traits@D@std@@V?$allocator@D@2@@std@@E@std@@@2@$0A@@std@@@std@@IBE?AU?$_Tree_find_result@PAU?$_Tree_node@U?$pair@$$CBV?$basic_string@DU?$char_traits@D@std@@V?$allocator@D@2@@std@@E@std@@PAX@std@@@1@ABV?$basic_string@DU?$char_traits@D@std@@V?$allocator@D@2@@1@@Z PROC ; std::_Tree<std::_Tmap_traits<std::basic_string<char,std::char_traits<char>,std::allocator<char> >,unsigned char,std::less<std::basic_string<char,std::char_traits<char>,std::allocator<char> > >,std::allocator<std::pair<std::basic_string<char,std::char_traits<char>,std::allocator<char> > const ,unsigned char> >,0> >::_Find_lower_bound<std::basic_string<char,std::char_traits<char>,std::allocator<char> > >, COMDAT
; _this$ = ecx

; 1699 :     _Tree_find_result<_Nodeptr> _Find_lower_bound(const _Keyty& _Keyval) const {

  00000	55		 push	 ebp
  00001	8b ec		 mov	 ebp, esp
  00003	83 ec 24	 sub	 esp, 36			; 00000024H
  00006	56		 push	 esi
  00007	57		 push	 edi
  00008	89 4d f4	 mov	 DWORD PTR _this$[ebp], ecx

; 2051 :         return _STD addressof(_Mypair._Myval2._Myval2);

  0000b	8b 45 f4	 mov	 eax, DWORD PTR _this$[ebp]
; File C:\Program Files (x86)\Microsoft Visual Studio\2019\Community\VC\Tools\MSVC\14.28.29333\include\xstddef

; 275  :     return __builtin_addressof(_Val);

  0000e	89 45 f0	 mov	 DWORD PTR $T3[ebp], eax
; File C:\Program Files (x86)\Microsoft Visual Studio\2019\Community\VC\Tools\MSVC\14.28.29333\include\xtree

; 2051 :         return _STD addressof(_Mypair._Myval2._Myval2);

  00011	8b 45 f0	 mov	 eax, DWORD PTR $T3[ebp]
  00014	89 45 f8	 mov	 DWORD PTR __Scary$[ebp], eax

; 1700 :         const auto _Scary = _Get_scary();
; 1701 :         _Tree_find_result<_Nodeptr> _Result{{_Scary->_Myhead->_Parent, _Tree_child::_Right}, _Scary->_Myhead};

  00017	8b 45 f8	 mov	 eax, DWORD PTR __Scary$[ebp]
  0001a	8b 00		 mov	 eax, DWORD PTR [eax]
  0001c	8b 40 04	 mov	 eax, DWORD PTR [eax+4]
  0001f	89 45 dc	 mov	 DWORD PTR __Result$[ebp], eax
  00022	83 65 e0 00	 and	 DWORD PTR __Result$[ebp+4], 0
  00026	8b 45 f8	 mov	 eax, DWORD PTR __Scary$[ebp]
  00029	8b 00		 mov	 eax, DWORD PTR [eax]
  0002b	89 45 e4	 mov	 DWORD PTR __Result$[ebp+8], eax

; 1702 :         _Nodeptr _Trynode = _Result._Location._Parent;

  0002e	8b 45 dc	 mov	 eax, DWORD PTR __Result$[ebp]
  00031	89 45 fc	 mov	 DWORD PTR __Trynode$[ebp], eax
$LN2@Find_lower:

; 1703 :         while (!_Trynode->_Isnil) {

  00034	8b 45 fc	 mov	 eax, DWORD PTR __Trynode$[ebp]
  00037	0f be 40 0d	 movsx	 eax, BYTE PTR [eax+13]
  0003b	85 c0		 test	 eax, eax
  0003d	75 50		 jne	 SHORT $LN3@Find_lower

; 1704 :             _Result._Location._Parent = _Trynode;

  0003f	8b 45 fc	 mov	 eax, DWORD PTR __Trynode$[ebp]
  00042	89 45 dc	 mov	 DWORD PTR __Result$[ebp], eax

; 2035 :         return _Mypair._Get_first();

  00045	8b 45 f4	 mov	 eax, DWORD PTR _this$[ebp]
; File C:\Program Files (x86)\Microsoft Visual Studio\2019\Community\VC\Tools\MSVC\14.28.29333\include\xmemory

; 1351 :         return *this;

  00048	89 45 ec	 mov	 DWORD PTR $T2[ebp], eax
; File C:\Program Files (x86)\Microsoft Visual Studio\2019\Community\VC\Tools\MSVC\14.28.29333\include\xtree

; 2035 :         return _Mypair._Get_first();

  0004b	8b 45 ec	 mov	 eax, DWORD PTR $T2[ebp]
  0004e	89 45 e8	 mov	 DWORD PTR $T1[ebp], eax
; File C:\Program Files (x86)\Microsoft Visual Studio\2019\Community\VC\Tools\MSVC\14.28.29333\include\xstddef

; 127  :         return _Left < _Right;

  00051	ff 75 0c	 push	 DWORD PTR __Keyval$[ebp]
; File C:\Program Files (x86)\Microsoft Visual Studio\2019\Community\VC\Tools\MSVC\14.28.29333\include\map

; 69   :         return _Val.first;

  00054	8b 45 fc	 mov	 eax, DWORD PTR __Trynode$[ebp]
  00057	83 c0 10	 add	 eax, 16			; 00000010H
; File C:\Program Files (x86)\Microsoft Visual Studio\2019\Community\VC\Tools\MSVC\14.28.29333\include\xstddef

; 127  :         return _Left < _Right;

  0005a	50		 push	 eax
  0005b	e8 00 00 00 00	 call	 ??$?MDU?$char_traits@D@std@@V?$allocator@D@1@@std@@YA_NABV?$basic_string@DU?$char_traits@D@std@@V?$allocator@D@2@@0@0@Z ; std::operator<<char,std::char_traits<char>,std::allocator<char> >
  00060	59		 pop	 ecx
  00061	59		 pop	 ecx
; File C:\Program Files (x86)\Microsoft Visual Studio\2019\Community\VC\Tools\MSVC\14.28.29333\include\xtree

; 1705 :             if (_DEBUG_LT_PRED(_Getcomp(), _Traits::_Kfn(_Trynode->_Myval), _Keyval)) {

  00062	0f b6 c0	 movzx	 eax, al
  00065	85 c0		 test	 eax, eax
  00067	74 0f		 je	 SHORT $LN4@Find_lower

; 1706 :                 _Result._Location._Child = _Tree_child::_Right;

  00069	83 65 e0 00	 and	 DWORD PTR __Result$[ebp+4], 0

; 1707 :                 _Trynode                 = _Trynode->_Right;

  0006d	8b 45 fc	 mov	 eax, DWORD PTR __Trynode$[ebp]
  00070	8b 40 08	 mov	 eax, DWORD PTR [eax+8]
  00073	89 45 fc	 mov	 DWORD PTR __Trynode$[ebp], eax

; 1708 :             } else {

  00076	eb 15		 jmp	 SHORT $LN5@Find_lower
$LN4@Find_lower:

; 1709 :                 _Result._Location._Child = _Tree_child::_Left;

  00078	c7 45 e0 01 00
	00 00		 mov	 DWORD PTR __Result$[ebp+4], 1

; 1710 :                 _Result._Bound           = _Trynode;

  0007f	8b 45 fc	 mov	 eax, DWORD PTR __Trynode$[ebp]
  00082	89 45 e4	 mov	 DWORD PTR __Result$[ebp+8], eax

; 1711 :                 _Trynode                 = _Trynode->_Left;

  00085	8b 45 fc	 mov	 eax, DWORD PTR __Trynode$[ebp]
  00088	8b 00		 mov	 eax, DWORD PTR [eax]
  0008a	89 45 fc	 mov	 DWORD PTR __Trynode$[ebp], eax
$LN5@Find_lower:

; 1712 :             }
; 1713 :         }

  0008d	eb a5		 jmp	 SHORT $LN2@Find_lower
$LN3@Find_lower:

; 1714 : 
; 1715 :         return _Result;

  0008f	8d 75 dc	 lea	 esi, DWORD PTR __Result$[ebp]
  00092	8b 7d 08	 mov	 edi, DWORD PTR ___$ReturnUdt$[ebp]
  00095	a5		 movsd
  00096	a5		 movsd
  00097	a5		 movsd
  00098	8b 45 08	 mov	 eax, DWORD PTR ___$ReturnUdt$[ebp]

; 1716 :     }

  0009b	5f		 pop	 edi
  0009c	5e		 pop	 esi
  0009d	c9		 leave
  0009e	c2 08 00	 ret	 8
??$_Find_lower_bound@V?$basic_string@DU?$char_traits@D@std@@V?$allocator@D@2@@std@@@?$_Tree@V?$_Tmap_traits@V?$basic_string@DU?$char_traits@D@std@@V?$allocator@D@2@@std@@EU?$less@V?$basic_string@DU?$char_traits@D@std@@V?$allocator@D@2@@std@@@2@V?$allocator@U?$pair@$$CBV?$basic_string@DU?$char_traits@D@std@@V?$allocator@D@2@@std@@E@std@@@2@$0A@@std@@@std@@IBE?AU?$_Tree_find_result@PAU?$_Tree_node@U?$pair@$$CBV?$basic_string@DU?$char_traits@D@std@@V?$allocator@D@2@@std@@E@std@@PAX@std@@@1@ABV?$basic_string@DU?$char_traits@D@std@@V?$allocator@D@2@@1@@Z ENDP ; std::_Tree<std::_Tmap_traits<std::basic_string<char,std::char_traits<char>,std::allocator<char> >,unsigned char,std::less<std::basic_string<char,std::char_traits<char>,std::allocator<char> > >,std::allocator<std::pair<std::basic_string<char,std::char_traits<char>,std::allocator<char> > const ,unsigned char> >,0> >::_Find_lower_bound<std::basic_string<char,std::char_traits<char>,std::allocator<char> > >
_TEXT	ENDS
; Function compile flags: /Odspy
; File C:\Program Files (x86)\Microsoft Visual Studio\2019\Community\VC\Tools\MSVC\14.28.29333\include\xtree
; File C:\Program Files (x86)\Microsoft Visual Studio\2019\Community\VC\Tools\MSVC\14.28.29333\include\xstddef
; File C:\Program Files (x86)\Microsoft Visual Studio\2019\Community\VC\Tools\MSVC\14.28.29333\include\xtree
; File C:\Program Files (x86)\Microsoft Visual Studio\2019\Community\VC\Tools\MSVC\14.28.29333\include\xmemory
; File C:\Program Files (x86)\Microsoft Visual Studio\2019\Community\VC\Tools\MSVC\14.28.29333\include\xtree
; File C:\Program Files (x86)\Microsoft Visual Studio\2019\Community\VC\Tools\MSVC\14.28.29333\include\xmemory
; File C:\Program Files (x86)\Microsoft Visual Studio\2019\Community\VC\Tools\MSVC\14.28.29333\include\xtree
; File C:\Program Files (x86)\Microsoft Visual Studio\2019\Community\VC\Tools\MSVC\14.28.29333\include\xstddef
; File C:\Program Files (x86)\Microsoft Visual Studio\2019\Community\VC\Tools\MSVC\14.28.29333\include\xtree
; File C:\Program Files (x86)\Microsoft Visual Studio\2019\Community\VC\Tools\MSVC\14.28.29333\include\type_traits
; File C:\Program Files (x86)\Microsoft Visual Studio\2019\Community\VC\Tools\MSVC\14.28.29333\include\utility
; File C:\Program Files (x86)\Microsoft Visual Studio\2019\Community\VC\Tools\MSVC\14.28.29333\include\type_traits
; File C:\Program Files (x86)\Microsoft Visual Studio\2019\Community\VC\Tools\MSVC\14.28.29333\include\utility
; File C:\Program Files (x86)\Microsoft Visual Studio\2019\Community\VC\Tools\MSVC\14.28.29333\include\xtree
; File C:\Program Files (x86)\Microsoft Visual Studio\2019\Community\VC\Tools\MSVC\14.28.29333\include\type_traits
; File C:\Program Files (x86)\Microsoft Visual Studio\2019\Community\VC\Tools\MSVC\14.28.29333\include\xtree
; File C:\Program Files (x86)\Microsoft Visual Studio\2019\Community\VC\Tools\MSVC\14.28.29333\include\xmemory
; File C:\Program Files (x86)\Microsoft Visual Studio\2019\Community\VC\Tools\MSVC\14.28.29333\include\xtree
; File C:\Program Files (x86)\Microsoft Visual Studio\2019\Community\VC\Tools\MSVC\14.28.29333\include\xmemory
; File C:\Program Files (x86)\Microsoft Visual Studio\2019\Community\VC\Tools\MSVC\14.28.29333\include\utility
; File C:\Program Files (x86)\Microsoft Visual Studio\2019\Community\VC\Tools\MSVC\14.28.29333\include\xmemory
; File C:\Program Files (x86)\Microsoft Visual Studio\2019\Community\VC\Tools\MSVC\14.28.29333\include\xtree
; File C:\Program Files (x86)\Microsoft Visual Studio\2019\Community\VC\Tools\MSVC\14.28.29333\include\type_traits
; File C:\Program Files (x86)\Microsoft Visual Studio\2019\Community\VC\Tools\MSVC\14.28.29333\include\utility
; File C:\Program Files (x86)\Microsoft Visual Studio\2019\Community\VC\Tools\MSVC\14.28.29333\include\type_traits
; File C:\Program Files (x86)\Microsoft Visual Studio\2019\Community\VC\Tools\MSVC\14.28.29333\include\utility
; File C:\Program Files (x86)\Microsoft Visual Studio\2019\Community\VC\Tools\MSVC\14.28.29333\include\xtree
;	COMDAT ??$_Emplace@V?$basic_string@DU?$char_traits@D@std@@V?$allocator@D@2@@std@@@?$_Tree@V?$_Tset_traits@V?$basic_string@DU?$char_traits@D@std@@V?$allocator@D@2@@std@@U?$less@V?$basic_string@DU?$char_traits@D@std@@V?$allocator@D@2@@std@@@2@V?$allocator@V?$basic_string@DU?$char_traits@D@std@@V?$allocator@D@2@@std@@@2@$0A@@std@@@std@@IAE?AU?$pair@PAU?$_Tree_node@V?$basic_string@DU?$char_traits@D@std@@V?$allocator@D@2@@std@@PAX@std@@_N@1@$$QAV?$basic_string@DU?$char_traits@D@std@@V?$allocator@D@2@@1@@Z
_TEXT	SEGMENT
$T1 = -124						; size = 12
__Loc$ = -112						; size = 12
$T2 = -100						; size = 8
$T3 = -92						; size = 4
$T4 = -88						; size = 4
$T5 = -84						; size = 4
$T6 = -80						; size = 4
__Inserted$ = -76					; size = 4
$T7 = -72						; size = 4
__Old_val$8 = -68					; size = 4
$T9 = -64						; size = 4
$T10 = -60						; size = 4
$T11 = -56						; size = 4
$T12 = -52						; size = 4
$T13 = -48						; size = 4
$T14 = -44						; size = 4
$T15 = -40						; size = 4
$T16 = -36						; size = 4
$T17 = -32						; size = 4
__Scary$ = -28						; size = 4
__Val$ = -24						; size = 4
tv65 = -20						; size = 4
__Keyval$18 = -16					; size = 4
__Bound$ = -12						; size = 4
_this$ = -8						; size = 4
$T19 = -2						; size = 1
$T20 = -1						; size = 1
___$ReturnUdt$ = 8					; size = 4
_<_Vals_0>$ = 12					; size = 4
??$_Emplace@V?$basic_string@DU?$char_traits@D@std@@V?$allocator@D@2@@std@@@?$_Tree@V?$_Tset_traits@V?$basic_string@DU?$char_traits@D@std@@V?$allocator@D@2@@std@@U?$less@V?$basic_string@DU?$char_traits@D@std@@V?$allocator@D@2@@std@@@2@V?$allocator@V?$basic_string@DU?$char_traits@D@std@@V?$allocator@D@2@@std@@@2@$0A@@std@@@std@@IAE?AU?$pair@PAU?$_Tree_node@V?$basic_string@DU?$char_traits@D@std@@V?$allocator@D@2@@std@@PAX@std@@_N@1@$$QAV?$basic_string@DU?$char_traits@D@std@@V?$allocator@D@2@@1@@Z PROC ; std::_Tree<std::_Tset_traits<std::basic_string<char,std::char_traits<char>,std::allocator<char> >,std::less<std::basic_string<char,std::char_traits<char>,std::allocator<char> > >,std::allocator<std::basic_string<char,std::char_traits<char>,std::allocator<char> > >,0> >::_Emplace<std::basic_string<char,std::char_traits<char>,std::allocator<char> > >, COMDAT
; _this$ = ecx

; 1002 :     pair<_Nodeptr, bool> _Emplace(_Valtys&&... _Vals) {

  00000	55		 push	 ebp
  00001	8b ec		 mov	 ebp, esp
  00003	83 ec 7c	 sub	 esp, 124		; 0000007cH
  00006	56		 push	 esi
  00007	57		 push	 edi
  00008	89 4d f8	 mov	 DWORD PTR _this$[ebp], ecx

; 2047 :         return _STD addressof(_Mypair._Myval2._Myval2);

  0000b	8b 45 f8	 mov	 eax, DWORD PTR _this$[ebp]
; File C:\Program Files (x86)\Microsoft Visual Studio\2019\Community\VC\Tools\MSVC\14.28.29333\include\xstddef

; 275  :     return __builtin_addressof(_Val);

  0000e	89 45 e0	 mov	 DWORD PTR $T17[ebp], eax
; File C:\Program Files (x86)\Microsoft Visual Studio\2019\Community\VC\Tools\MSVC\14.28.29333\include\xtree

; 2047 :         return _STD addressof(_Mypair._Myval2._Myval2);

  00011	8b 45 e0	 mov	 eax, DWORD PTR $T17[ebp]
  00014	89 45 e4	 mov	 DWORD PTR __Scary$[ebp], eax
; File C:\Program Files (x86)\Microsoft Visual Studio\2019\Community\VC\Tools\MSVC\14.28.29333\include\xmemory

; 1974 :         return _Val;

  00017	8b 45 0c	 mov	 eax, DWORD PTR _<_Vals_0>$[ebp]
  0001a	89 45 f0	 mov	 DWORD PTR __Keyval$18[ebp], eax
; File C:\Program Files (x86)\Microsoft Visual Studio\2019\Community\VC\Tools\MSVC\14.28.29333\include\xtree

; 1009 :             _Loc                = _Find_lower_bound(_Keyval);

  0001d	ff 75 f0	 push	 DWORD PTR __Keyval$18[ebp]
  00020	8d 45 84	 lea	 eax, DWORD PTR $T1[ebp]
  00023	50		 push	 eax
  00024	8b 4d f8	 mov	 ecx, DWORD PTR _this$[ebp]
  00027	e8 00 00 00 00	 call	 ??$_Find_lower_bound@V?$basic_string@DU?$char_traits@D@std@@V?$allocator@D@2@@std@@@?$_Tree@V?$_Tset_traits@V?$basic_string@DU?$char_traits@D@std@@V?$allocator@D@2@@std@@U?$less@V?$basic_string@DU?$char_traits@D@std@@V?$allocator@D@2@@std@@@2@V?$allocator@V?$basic_string@DU?$char_traits@D@std@@V?$allocator@D@2@@std@@@2@$0A@@std@@@std@@IBE?AU?$_Tree_find_result@PAU?$_Tree_node@V?$basic_string@DU?$char_traits@D@std@@V?$allocator@D@2@@std@@PAX@std@@@1@ABV?$basic_string@DU?$char_traits@D@std@@V?$allocator@D@2@@1@@Z ; std::_Tree<std::_Tset_traits<std::basic_string<char,std::char_traits<char>,std::allocator<char> >,std::less<std::basic_string<char,std::char_traits<char>,std::allocator<char> > >,std::allocator<std::basic_string<char,std::char_traits<char>,std::allocator<char> > >,0> >::_Find_lower_bound<std::basic_string<char,std::char_traits<char>,std::allocator<char> > >
  0002c	8b f0		 mov	 esi, eax
  0002e	8d 7d 90	 lea	 edi, DWORD PTR __Loc$[ebp]
  00031	a5		 movsd
  00032	a5		 movsd
  00033	a5		 movsd

; 1010 :             if (_Lower_bound_duplicate(_Loc._Bound, _Keyval)) {

  00034	8b 45 98	 mov	 eax, DWORD PTR __Loc$[ebp+8]
  00037	89 45 f4	 mov	 DWORD PTR __Bound$[ebp], eax

; 1695 :         return !_Bound->_Isnil && !_DEBUG_LT_PRED(_Getcomp(), _Keyval, _Traits::_Kfn(_Bound->_Myval));

  0003a	8b 45 f4	 mov	 eax, DWORD PTR __Bound$[ebp]
  0003d	0f be 40 0d	 movsx	 eax, BYTE PTR [eax+13]
  00041	85 c0		 test	 eax, eax
  00043	75 2d		 jne	 SHORT $LN38@Emplace

; 2035 :         return _Mypair._Get_first();

  00045	8b 45 f8	 mov	 eax, DWORD PTR _this$[ebp]
; File C:\Program Files (x86)\Microsoft Visual Studio\2019\Community\VC\Tools\MSVC\14.28.29333\include\xmemory

; 1351 :         return *this;

  00048	89 45 dc	 mov	 DWORD PTR $T16[ebp], eax
; File C:\Program Files (x86)\Microsoft Visual Studio\2019\Community\VC\Tools\MSVC\14.28.29333\include\xtree

; 2035 :         return _Mypair._Get_first();

  0004b	8b 45 dc	 mov	 eax, DWORD PTR $T16[ebp]
  0004e	89 45 a4	 mov	 DWORD PTR $T3[ebp], eax

; 1695 :         return !_Bound->_Isnil && !_DEBUG_LT_PRED(_Getcomp(), _Keyval, _Traits::_Kfn(_Bound->_Myval));

  00051	8b 45 f4	 mov	 eax, DWORD PTR __Bound$[ebp]
  00054	83 c0 10	 add	 eax, 16			; 00000010H
; File C:\Program Files (x86)\Microsoft Visual Studio\2019\Community\VC\Tools\MSVC\14.28.29333\include\xstddef

; 127  :         return _Left < _Right;

  00057	50		 push	 eax
  00058	ff 75 f0	 push	 DWORD PTR __Keyval$18[ebp]
  0005b	e8 00 00 00 00	 call	 ??$?MDU?$char_traits@D@std@@V?$allocator@D@1@@std@@YA_NABV?$basic_string@DU?$char_traits@D@std@@V?$allocator@D@2@@0@0@Z ; std::operator<<char,std::char_traits<char>,std::allocator<char> >
  00060	59		 pop	 ecx
  00061	59		 pop	 ecx
; File C:\Program Files (x86)\Microsoft Visual Studio\2019\Community\VC\Tools\MSVC\14.28.29333\include\xtree

; 1695 :         return !_Bound->_Isnil && !_DEBUG_LT_PRED(_Getcomp(), _Keyval, _Traits::_Kfn(_Bound->_Myval));

  00062	0f b6 c0	 movzx	 eax, al
  00065	85 c0		 test	 eax, eax
  00067	75 09		 jne	 SHORT $LN38@Emplace
  00069	c7 45 ec 01 00
	00 00		 mov	 DWORD PTR tv65[ebp], 1
  00070	eb 04		 jmp	 SHORT $LN36@Emplace
$LN38@Emplace:
  00072	83 65 ec 00	 and	 DWORD PTR tv65[ebp], 0
$LN36@Emplace:

; 1010 :             if (_Lower_bound_duplicate(_Loc._Bound, _Keyval)) {

  00076	0f b6 45 ec	 movzx	 eax, BYTE PTR tv65[ebp]
  0007a	85 c0		 test	 eax, eax
  0007c	74 2d		 je	 SHORT $LN2@Emplace

; 1011 :                 return {_Loc._Bound, false};

  0007e	c6 45 ff 00	 mov	 BYTE PTR $T20[ebp], 0
; File C:\Program Files (x86)\Microsoft Visual Studio\2019\Community\VC\Tools\MSVC\14.28.29333\include\type_traits

; 1443 :     return static_cast<_Ty&&>(_Arg);

  00082	8d 45 98	 lea	 eax, DWORD PTR __Loc$[ebp+8]
  00085	89 45 d8	 mov	 DWORD PTR $T15[ebp], eax
; File C:\Program Files (x86)\Microsoft Visual Studio\2019\Community\VC\Tools\MSVC\14.28.29333\include\utility

; 190  :         : first(_STD forward<_Other1>(_Val1)), second(_STD forward<_Other2>(_Val2)) {}

  00088	8b 45 08	 mov	 eax, DWORD PTR ___$ReturnUdt$[ebp]
  0008b	8b 4d d8	 mov	 ecx, DWORD PTR $T15[ebp]
  0008e	8b 09		 mov	 ecx, DWORD PTR [ecx]
  00090	89 08		 mov	 DWORD PTR [eax], ecx
; File C:\Program Files (x86)\Microsoft Visual Studio\2019\Community\VC\Tools\MSVC\14.28.29333\include\type_traits

; 1443 :     return static_cast<_Ty&&>(_Arg);

  00092	8d 45 ff	 lea	 eax, DWORD PTR $T20[ebp]
  00095	89 45 d4	 mov	 DWORD PTR $T14[ebp], eax
; File C:\Program Files (x86)\Microsoft Visual Studio\2019\Community\VC\Tools\MSVC\14.28.29333\include\utility

; 190  :         : first(_STD forward<_Other1>(_Val1)), second(_STD forward<_Other2>(_Val2)) {}

  00098	8b 45 08	 mov	 eax, DWORD PTR ___$ReturnUdt$[ebp]
  0009b	8b 4d d4	 mov	 ecx, DWORD PTR $T14[ebp]
  0009e	8a 09		 mov	 cl, BYTE PTR [ecx]
  000a0	88 48 04	 mov	 BYTE PTR [eax+4], cl
; File C:\Program Files (x86)\Microsoft Visual Studio\2019\Community\VC\Tools\MSVC\14.28.29333\include\xtree

; 1011 :                 return {_Loc._Bound, false};

  000a3	8b 45 08	 mov	 eax, DWORD PTR ___$ReturnUdt$[ebp]
  000a6	e9 9d 00 00 00	 jmp	 $LN1@Emplace
$LN2@Emplace:

; 1012 :             }
; 1013 : 
; 1014 :             _Check_grow_by_1();

  000ab	8b 4d f8	 mov	 ecx, DWORD PTR _this$[ebp]
  000ae	e8 00 00 00 00	 call	 ?_Check_grow_by_1@?$_Tree@V?$_Tset_traits@V?$basic_string@DU?$char_traits@D@std@@V?$allocator@D@2@@std@@U?$less@V?$basic_string@DU?$char_traits@D@std@@V?$allocator@D@2@@std@@@2@V?$allocator@V?$basic_string@DU?$char_traits@D@std@@V?$allocator@D@2@@std@@@2@$0A@@std@@@std@@IAEXXZ ; std::_Tree<std::_Tset_traits<std::basic_string<char,std::char_traits<char>,std::allocator<char> >,std::less<std::basic_string<char,std::char_traits<char>,std::allocator<char> > >,std::allocator<std::basic_string<char,std::char_traits<char>,std::allocator<char> > >,0> >::_Check_grow_by_1
; File C:\Program Files (x86)\Microsoft Visual Studio\2019\Community\VC\Tools\MSVC\14.28.29333\include\type_traits

; 1443 :     return static_cast<_Ty&&>(_Arg);

  000b3	8b 45 0c	 mov	 eax, DWORD PTR _<_Vals_0>$[ebp]
  000b6	89 45 cc	 mov	 DWORD PTR $T12[ebp], eax
; File C:\Program Files (x86)\Microsoft Visual Studio\2019\Community\VC\Tools\MSVC\14.28.29333\include\xtree

; 2039 :         return _Mypair._Myval2._Get_first();

  000b9	8b 45 f8	 mov	 eax, DWORD PTR _this$[ebp]
; File C:\Program Files (x86)\Microsoft Visual Studio\2019\Community\VC\Tools\MSVC\14.28.29333\include\xmemory

; 1347 :         return *this;

  000bc	89 45 d0	 mov	 DWORD PTR $T13[ebp], eax
; File C:\Program Files (x86)\Microsoft Visual Studio\2019\Community\VC\Tools\MSVC\14.28.29333\include\xtree

; 2039 :         return _Mypair._Myval2._Get_first();

  000bf	8b 45 d0	 mov	 eax, DWORD PTR $T13[ebp]
  000c2	89 45 c8	 mov	 DWORD PTR $T11[ebp], eax

; 1015 :             _Inserted = _Tree_temp_node<_Alnode>(_Getal(), _Scary->_Myhead, _STD forward<_Valtys>(_Vals)...)._Release();

  000c5	ff 75 cc	 push	 DWORD PTR $T12[ebp]
  000c8	8b 45 e4	 mov	 eax, DWORD PTR __Scary$[ebp]
  000cb	ff 30		 push	 DWORD PTR [eax]
  000cd	ff 75 c8	 push	 DWORD PTR $T11[ebp]
  000d0	8d 4d 9c	 lea	 ecx, DWORD PTR $T2[ebp]
  000d3	e8 00 00 00 00	 call	 ??$?0V?$basic_string@DU?$char_traits@D@std@@V?$allocator@D@2@@std@@@?$_Tree_temp_node@V?$allocator@U?$_Tree_node@V?$basic_string@DU?$char_traits@D@std@@V?$allocator@D@2@@std@@PAX@std@@@std@@@std@@QAE@AAV?$allocator@U?$_Tree_node@V?$basic_string@DU?$char_traits@D@std@@V?$allocator@D@2@@std@@PAX@std@@@1@PAU?$_Tree_node@V?$basic_string@DU?$char_traits@D@std@@V?$allocator@D@2@@std@@PAX@1@$$QAV?$basic_string@DU?$char_traits@D@std@@V?$allocator@D@2@@1@@Z ; std::_Tree_temp_node<std::allocator<std::_Tree_node<std::basic_string<char,std::char_traits<char>,std::allocator<char> >,void *> > >::_Tree_temp_node<std::allocator<std::_Tree_node<std::basic_string<char,std::char_traits<char>,std::allocator<char> >,void *> > ><std::basic_string<char,std::char_traits<char>,std::allocator<char> > >
  000d8	89 45 c4	 mov	 DWORD PTR $T10[ebp], eax
; File C:\Program Files (x86)\Microsoft Visual Studio\2019\Community\VC\Tools\MSVC\14.28.29333\include\xmemory

; 1048 :         return _STD exchange(_Ptr, nullptr);

  000db	83 65 c0 00	 and	 DWORD PTR $T9[ebp], 0
  000df	8b 45 c4	 mov	 eax, DWORD PTR $T10[ebp]
  000e2	83 c0 04	 add	 eax, 4
  000e5	89 45 e8	 mov	 DWORD PTR __Val$[ebp], eax
; File C:\Program Files (x86)\Microsoft Visual Studio\2019\Community\VC\Tools\MSVC\14.28.29333\include\utility

; 598  :     _Ty _Old_val = static_cast<_Ty&&>(_Val);

  000e8	8b 45 e8	 mov	 eax, DWORD PTR __Val$[ebp]
  000eb	8b 00		 mov	 eax, DWORD PTR [eax]
  000ed	89 45 bc	 mov	 DWORD PTR __Old_val$8[ebp], eax

; 599  :     _Val         = static_cast<_Other&&>(_New_val);

  000f0	8b 45 e8	 mov	 eax, DWORD PTR __Val$[ebp]
  000f3	8b 4d c0	 mov	 ecx, DWORD PTR $T9[ebp]
  000f6	89 08		 mov	 DWORD PTR [eax], ecx

; 600  :     return _Old_val;

  000f8	8b 45 bc	 mov	 eax, DWORD PTR __Old_val$8[ebp]
  000fb	89 45 b8	 mov	 DWORD PTR $T7[ebp], eax
; File C:\Program Files (x86)\Microsoft Visual Studio\2019\Community\VC\Tools\MSVC\14.28.29333\include\xmemory

; 1048 :         return _STD exchange(_Ptr, nullptr);

  000fe	8b 45 b8	 mov	 eax, DWORD PTR $T7[ebp]
  00101	89 45 b4	 mov	 DWORD PTR __Inserted$[ebp], eax
; File C:\Program Files (x86)\Microsoft Visual Studio\2019\Community\VC\Tools\MSVC\14.28.29333\include\xtree

; 1015 :             _Inserted = _Tree_temp_node<_Alnode>(_Getal(), _Scary->_Myhead, _STD forward<_Valtys>(_Vals)...)._Release();

  00104	8d 4d 9c	 lea	 ecx, DWORD PTR $T2[ebp]
  00107	e8 00 00 00 00	 call	 ??1?$_Tree_temp_node@V?$allocator@U?$_Tree_node@V?$basic_string@DU?$char_traits@D@std@@V?$allocator@D@2@@std@@PAX@std@@@std@@@std@@QAE@XZ ; std::_Tree_temp_node<std::allocator<std::_Tree_node<std::basic_string<char,std::char_traits<char>,std::allocator<char> >,void *> > >::~_Tree_temp_node<std::allocator<std::_Tree_node<std::basic_string<char,std::char_traits<char>,std::allocator<char> >,void *> > >

; 1034 :         return {_Scary->_Insert_node(_Loc._Location, _Inserted), true};

  0010c	ff 75 b4	 push	 DWORD PTR __Inserted$[ebp]
  0010f	ff 75 94	 push	 DWORD PTR __Loc$[ebp+4]
  00112	ff 75 90	 push	 DWORD PTR __Loc$[ebp]
  00115	8b 4d e4	 mov	 ecx, DWORD PTR __Scary$[ebp]
  00118	e8 00 00 00 00	 call	 ?_Insert_node@?$_Tree_val@U?$_Tree_simple_types@V?$basic_string@DU?$char_traits@D@std@@V?$allocator@D@2@@std@@@std@@@std@@QAEPAU?$_Tree_node@V?$basic_string@DU?$char_traits@D@std@@V?$allocator@D@2@@std@@PAX@2@U?$_Tree_id@PAU?$_Tree_node@V?$basic_string@DU?$char_traits@D@std@@V?$allocator@D@2@@std@@PAX@std@@@2@QAU32@@Z ; std::_Tree_val<std::_Tree_simple_types<std::basic_string<char,std::char_traits<char>,std::allocator<char> > > >::_Insert_node
  0011d	89 45 b0	 mov	 DWORD PTR $T6[ebp], eax
  00120	c6 45 fe 01	 mov	 BYTE PTR $T19[ebp], 1
; File C:\Program Files (x86)\Microsoft Visual Studio\2019\Community\VC\Tools\MSVC\14.28.29333\include\type_traits

; 1443 :     return static_cast<_Ty&&>(_Arg);

  00124	8d 45 b0	 lea	 eax, DWORD PTR $T6[ebp]
  00127	89 45 ac	 mov	 DWORD PTR $T5[ebp], eax
; File C:\Program Files (x86)\Microsoft Visual Studio\2019\Community\VC\Tools\MSVC\14.28.29333\include\utility

; 190  :         : first(_STD forward<_Other1>(_Val1)), second(_STD forward<_Other2>(_Val2)) {}

  0012a	8b 45 08	 mov	 eax, DWORD PTR ___$ReturnUdt$[ebp]
  0012d	8b 4d ac	 mov	 ecx, DWORD PTR $T5[ebp]
  00130	8b 09		 mov	 ecx, DWORD PTR [ecx]
  00132	89 08		 mov	 DWORD PTR [eax], ecx
; File C:\Program Files (x86)\Microsoft Visual Studio\2019\Community\VC\Tools\MSVC\14.28.29333\include\type_traits

; 1443 :     return static_cast<_Ty&&>(_Arg);

  00134	8d 45 fe	 lea	 eax, DWORD PTR $T19[ebp]
  00137	89 45 a8	 mov	 DWORD PTR $T4[ebp], eax
; File C:\Program Files (x86)\Microsoft Visual Studio\2019\Community\VC\Tools\MSVC\14.28.29333\include\utility

; 190  :         : first(_STD forward<_Other1>(_Val1)), second(_STD forward<_Other2>(_Val2)) {}

  0013a	8b 45 08	 mov	 eax, DWORD PTR ___$ReturnUdt$[ebp]
  0013d	8b 4d a8	 mov	 ecx, DWORD PTR $T4[ebp]
  00140	8a 09		 mov	 cl, BYTE PTR [ecx]
  00142	88 48 04	 mov	 BYTE PTR [eax+4], cl
; File C:\Program Files (x86)\Microsoft Visual Studio\2019\Community\VC\Tools\MSVC\14.28.29333\include\xtree

; 1034 :         return {_Scary->_Insert_node(_Loc._Location, _Inserted), true};

  00145	8b 45 08	 mov	 eax, DWORD PTR ___$ReturnUdt$[ebp]
$LN1@Emplace:

; 1035 :     }

  00148	5f		 pop	 edi
  00149	5e		 pop	 esi
  0014a	c9		 leave
  0014b	c2 08 00	 ret	 8
??$_Emplace@V?$basic_string@DU?$char_traits@D@std@@V?$allocator@D@2@@std@@@?$_Tree@V?$_Tset_traits@V?$basic_string@DU?$char_traits@D@std@@V?$allocator@D@2@@std@@U?$less@V?$basic_string@DU?$char_traits@D@std@@V?$allocator@D@2@@std@@@2@V?$allocator@V?$basic_string@DU?$char_traits@D@std@@V?$allocator@D@2@@std@@@2@$0A@@std@@@std@@IAE?AU?$pair@PAU?$_Tree_node@V?$basic_string@DU?$char_traits@D@std@@V?$allocator@D@2@@std@@PAX@std@@_N@1@$$QAV?$basic_string@DU?$char_traits@D@std@@V?$allocator@D@2@@1@@Z ENDP ; std::_Tree<std::_Tset_traits<std::basic_string<char,std::char_traits<char>,std::allocator<char> >,std::less<std::basic_string<char,std::char_traits<char>,std::allocator<char> > >,std::allocator<std::basic_string<char,std::char_traits<char>,std::allocator<char> > >,0> >::_Emplace<std::basic_string<char,std::char_traits<char>,std::allocator<char> > >
_TEXT	ENDS
; Function compile flags: /Odspy
; File C:\Program Files (x86)\Microsoft Visual Studio\2019\Community\VC\Tools\MSVC\14.28.29333\include\xtree
; File C:\Program Files (x86)\Microsoft Visual Studio\2019\Community\VC\Tools\MSVC\14.28.29333\include\xstddef
; File C:\Program Files (x86)\Microsoft Visual Studio\2019\Community\VC\Tools\MSVC\14.28.29333\include\xstring
; File C:\Program Files (x86)\Microsoft Visual Studio\2019\Community\VC\Tools\MSVC\14.28.29333\include\xtree
;	COMDAT ??$_Freenode@V?$allocator@U?$_Tree_node@V?$basic_string@DU?$char_traits@D@std@@V?$allocator@D@2@@std@@PAX@std@@@std@@@?$_Tree_node@V?$basic_string@DU?$char_traits@D@std@@V?$allocator@D@2@@std@@PAX@std@@SAXAAV?$allocator@U?$_Tree_node@V?$basic_string@DU?$char_traits@D@std@@V?$allocator@D@2@@std@@PAX@std@@@1@PAU01@@Z
_TEXT	SEGMENT
$T1 = -4						; size = 4
__Al$ = 8						; size = 4
__Ptr$ = 12						; size = 4
??$_Freenode@V?$allocator@U?$_Tree_node@V?$basic_string@DU?$char_traits@D@std@@V?$allocator@D@2@@std@@PAX@std@@@std@@@?$_Tree_node@V?$basic_string@DU?$char_traits@D@std@@V?$allocator@D@2@@std@@PAX@std@@SAXAAV?$allocator@U?$_Tree_node@V?$basic_string@DU?$char_traits@D@std@@V?$allocator@D@2@@std@@PAX@std@@@1@PAU01@@Z PROC ; std::_Tree_node<std::basic_string<char,std::char_traits<char>,std::allocator<char> >,void *>::_Freenode<std::allocator<std::_Tree_node<std::basic_string<char,std::char_traits<char>,std::allocator<char> >,void *> > >, COMDAT

; 377  :     static void _Freenode(_Alloc& _Al, _Nodeptr _Ptr) noexcept {

  00000	55		 push	 ebp
  00001	8b ec		 mov	 ebp, esp
  00003	51		 push	 ecx

; 378  :         static_assert(is_same_v<typename _Alloc::value_type, _Tree_node>, "Bad _Freenode call");
; 379  :         allocator_traits<_Alloc>::destroy(_Al, _STD addressof(_Ptr->_Myval));

  00004	8b 45 0c	 mov	 eax, DWORD PTR __Ptr$[ebp]
  00007	83 c0 10	 add	 eax, 16			; 00000010H
; File C:\Program Files (x86)\Microsoft Visual Studio\2019\Community\VC\Tools\MSVC\14.28.29333\include\xstddef

; 275  :     return __builtin_addressof(_Val);

  0000a	89 45 fc	 mov	 DWORD PTR $T1[ebp], eax
; File C:\Program Files (x86)\Microsoft Visual Studio\2019\Community\VC\Tools\MSVC\14.28.29333\include\xstring

; 2801 :         _Tidy_deallocate();

  0000d	8b 4d fc	 mov	 ecx, DWORD PTR $T1[ebp]
  00010	e8 00 00 00 00	 call	 ?_Tidy_deallocate@?$basic_string@DU?$char_traits@D@std@@V?$allocator@D@2@@std@@AAEXXZ ; std::basic_string<char,std::char_traits<char>,std::allocator<char> >::_Tidy_deallocate
  00015	33 c0		 xor	 eax, eax
  00017	83 e0 01	 and	 eax, 1
  0001a	74 0c		 je	 SHORT $LN6@Freenode
  0001c	6a 18		 push	 24			; 00000018H
  0001e	ff 75 fc	 push	 DWORD PTR $T1[ebp]
  00021	e8 00 00 00 00	 call	 ??3@YAXPAXI@Z		; operator delete
  00026	59		 pop	 ecx
  00027	59		 pop	 ecx
$LN6@Freenode:
; File C:\Program Files (x86)\Microsoft Visual Studio\2019\Community\VC\Tools\MSVC\14.28.29333\include\xtree

; 380  :         _Freenode0(_Al, _Ptr);

  00028	ff 75 0c	 push	 DWORD PTR __Ptr$[ebp]
  0002b	ff 75 08	 push	 DWORD PTR __Al$[ebp]
  0002e	e8 00 00 00 00	 call	 ??$_Freenode0@V?$allocator@U?$_Tree_node@V?$basic_string@DU?$char_traits@D@std@@V?$allocator@D@2@@std@@PAX@std@@@std@@@?$_Tree_node@V?$basic_string@DU?$char_traits@D@std@@V?$allocator@D@2@@std@@PAX@std@@SAXAAV?$allocator@U?$_Tree_node@V?$basic_string@DU?$char_traits@D@std@@V?$allocator@D@2@@std@@PAX@std@@@1@PAU01@@Z ; std::_Tree_node<std::basic_string<char,std::char_traits<char>,std::allocator<char> >,void *>::_Freenode0<std::allocator<std::_Tree_node<std::basic_string<char,std::char_traits<char>,std::allocator<char> >,void *> > >
  00033	59		 pop	 ecx
  00034	59		 pop	 ecx

; 381  :     }

  00035	c9		 leave
  00036	c3		 ret	 0
??$_Freenode@V?$allocator@U?$_Tree_node@V?$basic_string@DU?$char_traits@D@std@@V?$allocator@D@2@@std@@PAX@std@@@std@@@?$_Tree_node@V?$basic_string@DU?$char_traits@D@std@@V?$allocator@D@2@@std@@PAX@std@@SAXAAV?$allocator@U?$_Tree_node@V?$basic_string@DU?$char_traits@D@std@@V?$allocator@D@2@@std@@PAX@std@@@1@PAU01@@Z ENDP ; std::_Tree_node<std::basic_string<char,std::char_traits<char>,std::allocator<char> >,void *>::_Freenode<std::allocator<std::_Tree_node<std::basic_string<char,std::char_traits<char>,std::allocator<char> >,void *> > >
_TEXT	ENDS
; Function compile flags: /Odspy
; File C:\Program Files (x86)\Microsoft Visual Studio\2019\Community\VC\Tools\MSVC\14.28.29333\include\xtree
; File C:\Program Files (x86)\Microsoft Visual Studio\2019\Community\VC\Tools\MSVC\14.28.29333\include\xmemory
; File C:\Program Files (x86)\Microsoft Visual Studio\2019\Community\VC\Tools\MSVC\14.28.29333\include\xtree
;	COMDAT ??$_Buyheadnode@V?$allocator@U?$_Tree_node@V?$basic_string@DU?$char_traits@D@std@@V?$allocator@D@2@@std@@PAX@std@@@std@@@?$_Tree_node@V?$basic_string@DU?$char_traits@D@std@@V?$allocator@D@2@@std@@PAX@std@@SAPAU01@AAV?$allocator@U?$_Tree_node@V?$basic_string@DU?$char_traits@D@std@@V?$allocator@D@2@@std@@PAX@std@@@1@@Z
_TEXT	SEGMENT
__Max_possible$1 = -20					; size = 4
$T2 = -16						; size = 4
$T3 = -12						; size = 4
__Pnode$ = -8						; size = 4
__Overflow_is_possible$4 = -1				; size = 1
__Al$ = 8						; size = 4
??$_Buyheadnode@V?$allocator@U?$_Tree_node@V?$basic_string@DU?$char_traits@D@std@@V?$allocator@D@2@@std@@PAX@std@@@std@@@?$_Tree_node@V?$basic_string@DU?$char_traits@D@std@@V?$allocator@D@2@@std@@PAX@std@@SAPAU01@AAV?$allocator@U?$_Tree_node@V?$basic_string@DU?$char_traits@D@std@@V?$allocator@D@2@@std@@PAX@std@@@1@@Z PROC ; std::_Tree_node<std::basic_string<char,std::char_traits<char>,std::allocator<char> >,void *>::_Buyheadnode<std::allocator<std::_Tree_node<std::basic_string<char,std::char_traits<char>,std::allocator<char> >,void *> > >, COMDAT

; 341  :     static _Nodeptr _Buyheadnode(_Alloc& _Al) {

  00000	55		 push	 ebp
  00001	8b ec		 mov	 ebp, esp
  00003	83 ec 14	 sub	 esp, 20			; 00000014H
; File C:\Program Files (x86)\Microsoft Visual Studio\2019\Community\VC\Tools\MSVC\14.28.29333\include\xmemory

; 56   :     constexpr bool _Overflow_is_possible = _Ty_size > 1;

  00006	c6 45 ff 01	 mov	 BYTE PTR __Overflow_is_possible$4[ebp], 1

; 57   : 
; 58   :     if _CONSTEXPR_IF (_Overflow_is_possible) {
; 59   :         constexpr size_t _Max_possible = static_cast<size_t>(-1) / _Ty_size;

  0000a	c7 45 ec 66 66
	66 06		 mov	 DWORD PTR __Max_possible$1[ebp], 107374182 ; 06666666H

; 60   :         if (_Count > _Max_possible) {

  00011	33 c0		 xor	 eax, eax
  00013	40		 inc	 eax
  00014	3d 66 66 66 06	 cmp	 eax, 107374182		; 06666666H
  00019	76 05		 jbe	 SHORT $LN6@Buyheadnod

; 61   :             _Throw_bad_array_new_length(); // multiply overflow

  0001b	e8 00 00 00 00	 call	 ?_Throw_bad_array_new_length@std@@YAXXZ ; std::_Throw_bad_array_new_length
$LN6@Buyheadnod:

; 62   :         }
; 63   :     }
; 64   : 
; 65   :     return _Count * _Ty_size;

  00020	33 c0		 xor	 eax, eax
  00022	40		 inc	 eax
  00023	6b c0 28	 imul	 eax, eax, 40
  00026	89 45 f4	 mov	 DWORD PTR $T3[ebp], eax

; 814  :         return static_cast<_Ty*>(_Allocate<_New_alignof<_Ty>>(_Get_size_of_n<sizeof(_Ty)>(_Count)));

  00029	ff 75 f4	 push	 DWORD PTR $T3[ebp]
  0002c	e8 00 00 00 00	 call	 ??$_Allocate@$07U_Default_allocate_traits@std@@$0A@@std@@YAPAXI@Z ; std::_Allocate<8,std::_Default_allocate_traits,0>
  00031	59		 pop	 ecx
  00032	89 45 f0	 mov	 DWORD PTR $T2[ebp], eax
; File C:\Program Files (x86)\Microsoft Visual Studio\2019\Community\VC\Tools\MSVC\14.28.29333\include\xtree

; 343  :         const auto _Pnode = _Al.allocate(1);

  00035	8b 45 f0	 mov	 eax, DWORD PTR $T2[ebp]
  00038	89 45 f8	 mov	 DWORD PTR __Pnode$[ebp], eax

; 344  :         _Construct_in_place(_Pnode->_Left, _Pnode);

  0003b	8d 45 f8	 lea	 eax, DWORD PTR __Pnode$[ebp]
  0003e	50		 push	 eax
  0003f	ff 75 f8	 push	 DWORD PTR __Pnode$[ebp]
  00042	e8 00 00 00 00	 call	 ??$_Construct_in_place@PAU?$_Tree_node@V?$basic_string@DU?$char_traits@D@std@@V?$allocator@D@2@@std@@PAX@std@@ABQAU12@@std@@YAXAAPAU?$_Tree_node@V?$basic_string@DU?$char_traits@D@std@@V?$allocator@D@2@@std@@PAX@0@ABQAU10@@Z ; std::_Construct_in_place<std::_Tree_node<std::basic_string<char,std::char_traits<char>,std::allocator<char> >,void *> *,std::_Tree_node<std::basic_string<char,std::char_traits<char>,std::allocator<char> >,void *> * const &>
  00047	59		 pop	 ecx
  00048	59		 pop	 ecx

; 345  :         _Construct_in_place(_Pnode->_Parent, _Pnode);

  00049	8d 45 f8	 lea	 eax, DWORD PTR __Pnode$[ebp]
  0004c	50		 push	 eax
  0004d	8b 45 f8	 mov	 eax, DWORD PTR __Pnode$[ebp]
  00050	83 c0 04	 add	 eax, 4
  00053	50		 push	 eax
  00054	e8 00 00 00 00	 call	 ??$_Construct_in_place@PAU?$_Tree_node@V?$basic_string@DU?$char_traits@D@std@@V?$allocator@D@2@@std@@PAX@std@@ABQAU12@@std@@YAXAAPAU?$_Tree_node@V?$basic_string@DU?$char_traits@D@std@@V?$allocator@D@2@@std@@PAX@0@ABQAU10@@Z ; std::_Construct_in_place<std::_Tree_node<std::basic_string<char,std::char_traits<char>,std::allocator<char> >,void *> *,std::_Tree_node<std::basic_string<char,std::char_traits<char>,std::allocator<char> >,void *> * const &>
  00059	59		 pop	 ecx
  0005a	59		 pop	 ecx

; 346  :         _Construct_in_place(_Pnode->_Right, _Pnode);

  0005b	8d 45 f8	 lea	 eax, DWORD PTR __Pnode$[ebp]
  0005e	50		 push	 eax
  0005f	8b 45 f8	 mov	 eax, DWORD PTR __Pnode$[ebp]
  00062	83 c0 08	 add	 eax, 8
  00065	50		 push	 eax
  00066	e8 00 00 00 00	 call	 ??$_Construct_in_place@PAU?$_Tree_node@V?$basic_string@DU?$char_traits@D@std@@V?$allocator@D@2@@std@@PAX@std@@ABQAU12@@std@@YAXAAPAU?$_Tree_node@V?$basic_string@DU?$char_traits@D@std@@V?$allocator@D@2@@std@@PAX@0@ABQAU10@@Z ; std::_Construct_in_place<std::_Tree_node<std::basic_string<char,std::char_traits<char>,std::allocator<char> >,void *> *,std::_Tree_node<std::basic_string<char,std::char_traits<char>,std::allocator<char> >,void *> * const &>
  0006b	59		 pop	 ecx
  0006c	59		 pop	 ecx

; 347  :         _Pnode->_Color = _Black;

  0006d	8b 45 f8	 mov	 eax, DWORD PTR __Pnode$[ebp]
  00070	c6 40 0c 01	 mov	 BYTE PTR [eax+12], 1

; 348  :         _Pnode->_Isnil = true;

  00074	8b 45 f8	 mov	 eax, DWORD PTR __Pnode$[ebp]
  00077	c6 40 0d 01	 mov	 BYTE PTR [eax+13], 1

; 349  :         return _Pnode;

  0007b	8b 45 f8	 mov	 eax, DWORD PTR __Pnode$[ebp]
$LN9@Buyheadnod:

; 350  :     }

  0007e	c9		 leave
  0007f	c3		 ret	 0
??$_Buyheadnode@V?$allocator@U?$_Tree_node@V?$basic_string@DU?$char_traits@D@std@@V?$allocator@D@2@@std@@PAX@std@@@std@@@?$_Tree_node@V?$basic_string@DU?$char_traits@D@std@@V?$allocator@D@2@@std@@PAX@std@@SAPAU01@AAV?$allocator@U?$_Tree_node@V?$basic_string@DU?$char_traits@D@std@@V?$allocator@D@2@@std@@PAX@std@@@1@@Z ENDP ; std::_Tree_node<std::basic_string<char,std::char_traits<char>,std::allocator<char> >,void *>::_Buyheadnode<std::allocator<std::_Tree_node<std::basic_string<char,std::char_traits<char>,std::allocator<char> >,void *> > >
_TEXT	ENDS
; Function compile flags: /Odspy
; File C:\Program Files (x86)\Microsoft Visual Studio\2019\Community\VC\Tools\MSVC\14.28.29333\include\xtree
; File C:\Program Files (x86)\Microsoft Visual Studio\2019\Community\VC\Tools\MSVC\14.28.29333\include\xstddef
; File C:\Program Files (x86)\Microsoft Visual Studio\2019\Community\VC\Tools\MSVC\14.28.29333\include\xstring
; File C:\Program Files (x86)\Microsoft Visual Studio\2019\Community\VC\Tools\MSVC\14.28.29333\include\xtree
;	COMDAT ??$_Freenode@V?$allocator@U?$_Tree_node@U?$pair@$$CBV?$basic_string@DU?$char_traits@D@std@@V?$allocator@D@2@@std@@E@std@@PAX@std@@@std@@@?$_Tree_node@U?$pair@$$CBV?$basic_string@DU?$char_traits@D@std@@V?$allocator@D@2@@std@@E@std@@PAX@std@@SAXAAV?$allocator@U?$_Tree_node@U?$pair@$$CBV?$basic_string@DU?$char_traits@D@std@@V?$allocator@D@2@@std@@E@std@@PAX@std@@@1@PAU01@@Z
_TEXT	SEGMENT
$T1 = -4						; size = 4
__Al$ = 8						; size = 4
__Ptr$ = 12						; size = 4
??$_Freenode@V?$allocator@U?$_Tree_node@U?$pair@$$CBV?$basic_string@DU?$char_traits@D@std@@V?$allocator@D@2@@std@@E@std@@PAX@std@@@std@@@?$_Tree_node@U?$pair@$$CBV?$basic_string@DU?$char_traits@D@std@@V?$allocator@D@2@@std@@E@std@@PAX@std@@SAXAAV?$allocator@U?$_Tree_node@U?$pair@$$CBV?$basic_string@DU?$char_traits@D@std@@V?$allocator@D@2@@std@@E@std@@PAX@std@@@1@PAU01@@Z PROC ; std::_Tree_node<std::pair<std::basic_string<char,std::char_traits<char>,std::allocator<char> > const ,unsigned char>,void *>::_Freenode<std::allocator<std::_Tree_node<std::pair<std::basic_string<char,std::char_traits<char>,std::allocator<char> > const ,unsigned char>,void *> > >, COMDAT

; 377  :     static void _Freenode(_Alloc& _Al, _Nodeptr _Ptr) noexcept {

  00000	55		 push	 ebp
  00001	8b ec		 mov	 ebp, esp
  00003	51		 push	 ecx

; 378  :         static_assert(is_same_v<typename _Alloc::value_type, _Tree_node>, "Bad _Freenode call");
; 379  :         allocator_traits<_Alloc>::destroy(_Al, _STD addressof(_Ptr->_Myval));

  00004	8b 45 0c	 mov	 eax, DWORD PTR __Ptr$[ebp]
  00007	83 c0 10	 add	 eax, 16			; 00000010H
; File C:\Program Files (x86)\Microsoft Visual Studio\2019\Community\VC\Tools\MSVC\14.28.29333\include\xstddef

; 275  :     return __builtin_addressof(_Val);

  0000a	89 45 fc	 mov	 DWORD PTR $T1[ebp], eax
; File C:\Program Files (x86)\Microsoft Visual Studio\2019\Community\VC\Tools\MSVC\14.28.29333\include\xstring

; 2801 :         _Tidy_deallocate();

  0000d	8b 4d fc	 mov	 ecx, DWORD PTR $T1[ebp]
  00010	e8 00 00 00 00	 call	 ?_Tidy_deallocate@?$basic_string@DU?$char_traits@D@std@@V?$allocator@D@2@@std@@AAEXXZ ; std::basic_string<char,std::char_traits<char>,std::allocator<char> >::_Tidy_deallocate
  00015	33 c0		 xor	 eax, eax
  00017	83 e0 01	 and	 eax, 1
  0001a	74 0c		 je	 SHORT $LN6@Freenode
  0001c	6a 1c		 push	 28			; 0000001cH
  0001e	ff 75 fc	 push	 DWORD PTR $T1[ebp]
  00021	e8 00 00 00 00	 call	 ??3@YAXPAXI@Z		; operator delete
  00026	59		 pop	 ecx
  00027	59		 pop	 ecx
$LN6@Freenode:
; File C:\Program Files (x86)\Microsoft Visual Studio\2019\Community\VC\Tools\MSVC\14.28.29333\include\xtree

; 380  :         _Freenode0(_Al, _Ptr);

  00028	ff 75 0c	 push	 DWORD PTR __Ptr$[ebp]
  0002b	ff 75 08	 push	 DWORD PTR __Al$[ebp]
  0002e	e8 00 00 00 00	 call	 ??$_Freenode0@V?$allocator@U?$_Tree_node@U?$pair@$$CBV?$basic_string@DU?$char_traits@D@std@@V?$allocator@D@2@@std@@E@std@@PAX@std@@@std@@@?$_Tree_node@U?$pair@$$CBV?$basic_string@DU?$char_traits@D@std@@V?$allocator@D@2@@std@@E@std@@PAX@std@@SAXAAV?$allocator@U?$_Tree_node@U?$pair@$$CBV?$basic_string@DU?$char_traits@D@std@@V?$allocator@D@2@@std@@E@std@@PAX@std@@@1@PAU01@@Z ; std::_Tree_node<std::pair<std::basic_string<char,std::char_traits<char>,std::allocator<char> > const ,unsigned char>,void *>::_Freenode0<std::allocator<std::_Tree_node<std::pair<std::basic_string<char,std::char_traits<char>,std::allocator<char> > const ,unsigned char>,void *> > >
  00033	59		 pop	 ecx
  00034	59		 pop	 ecx

; 381  :     }

  00035	c9		 leave
  00036	c3		 ret	 0
??$_Freenode@V?$allocator@U?$_Tree_node@U?$pair@$$CBV?$basic_string@DU?$char_traits@D@std@@V?$allocator@D@2@@std@@E@std@@PAX@std@@@std@@@?$_Tree_node@U?$pair@$$CBV?$basic_string@DU?$char_traits@D@std@@V?$allocator@D@2@@std@@E@std@@PAX@std@@SAXAAV?$allocator@U?$_Tree_node@U?$pair@$$CBV?$basic_string@DU?$char_traits@D@std@@V?$allocator@D@2@@std@@E@std@@PAX@std@@@1@PAU01@@Z ENDP ; std::_Tree_node<std::pair<std::basic_string<char,std::char_traits<char>,std::allocator<char> > const ,unsigned char>,void *>::_Freenode<std::allocator<std::_Tree_node<std::pair<std::basic_string<char,std::char_traits<char>,std::allocator<char> > const ,unsigned char>,void *> > >
_TEXT	ENDS
; Function compile flags: /Odspy
; File C:\Program Files (x86)\Microsoft Visual Studio\2019\Community\VC\Tools\MSVC\14.28.29333\include\xtree
; File C:\Program Files (x86)\Microsoft Visual Studio\2019\Community\VC\Tools\MSVC\14.28.29333\include\xmemory
; File C:\Program Files (x86)\Microsoft Visual Studio\2019\Community\VC\Tools\MSVC\14.28.29333\include\xtree
;	COMDAT ??$_Buyheadnode@V?$allocator@U?$_Tree_node@U?$pair@$$CBV?$basic_string@DU?$char_traits@D@std@@V?$allocator@D@2@@std@@E@std@@PAX@std@@@std@@@?$_Tree_node@U?$pair@$$CBV?$basic_string@DU?$char_traits@D@std@@V?$allocator@D@2@@std@@E@std@@PAX@std@@SAPAU01@AAV?$allocator@U?$_Tree_node@U?$pair@$$CBV?$basic_string@DU?$char_traits@D@std@@V?$allocator@D@2@@std@@E@std@@PAX@std@@@1@@Z
_TEXT	SEGMENT
__Max_possible$1 = -20					; size = 4
$T2 = -16						; size = 4
$T3 = -12						; size = 4
__Pnode$ = -8						; size = 4
__Overflow_is_possible$4 = -1				; size = 1
__Al$ = 8						; size = 4
??$_Buyheadnode@V?$allocator@U?$_Tree_node@U?$pair@$$CBV?$basic_string@DU?$char_traits@D@std@@V?$allocator@D@2@@std@@E@std@@PAX@std@@@std@@@?$_Tree_node@U?$pair@$$CBV?$basic_string@DU?$char_traits@D@std@@V?$allocator@D@2@@std@@E@std@@PAX@std@@SAPAU01@AAV?$allocator@U?$_Tree_node@U?$pair@$$CBV?$basic_string@DU?$char_traits@D@std@@V?$allocator@D@2@@std@@E@std@@PAX@std@@@1@@Z PROC ; std::_Tree_node<std::pair<std::basic_string<char,std::char_traits<char>,std::allocator<char> > const ,unsigned char>,void *>::_Buyheadnode<std::allocator<std::_Tree_node<std::pair<std::basic_string<char,std::char_traits<char>,std::allocator<char> > const ,unsigned char>,void *> > >, COMDAT

; 341  :     static _Nodeptr _Buyheadnode(_Alloc& _Al) {

  00000	55		 push	 ebp
  00001	8b ec		 mov	 ebp, esp
  00003	83 ec 14	 sub	 esp, 20			; 00000014H
; File C:\Program Files (x86)\Microsoft Visual Studio\2019\Community\VC\Tools\MSVC\14.28.29333\include\xmemory

; 56   :     constexpr bool _Overflow_is_possible = _Ty_size > 1;

  00006	c6 45 ff 01	 mov	 BYTE PTR __Overflow_is_possible$4[ebp], 1

; 57   : 
; 58   :     if _CONSTEXPR_IF (_Overflow_is_possible) {
; 59   :         constexpr size_t _Max_possible = static_cast<size_t>(-1) / _Ty_size;

  0000a	c7 45 ec 5d 74
	d1 05		 mov	 DWORD PTR __Max_possible$1[ebp], 97612893 ; 05d1745dH

; 60   :         if (_Count > _Max_possible) {

  00011	33 c0		 xor	 eax, eax
  00013	40		 inc	 eax
  00014	3d 5d 74 d1 05	 cmp	 eax, 97612893		; 05d1745dH
  00019	76 05		 jbe	 SHORT $LN6@Buyheadnod

; 61   :             _Throw_bad_array_new_length(); // multiply overflow

  0001b	e8 00 00 00 00	 call	 ?_Throw_bad_array_new_length@std@@YAXXZ ; std::_Throw_bad_array_new_length
$LN6@Buyheadnod:

; 62   :         }
; 63   :     }
; 64   : 
; 65   :     return _Count * _Ty_size;

  00020	33 c0		 xor	 eax, eax
  00022	40		 inc	 eax
  00023	6b c0 2c	 imul	 eax, eax, 44
  00026	89 45 f4	 mov	 DWORD PTR $T3[ebp], eax

; 814  :         return static_cast<_Ty*>(_Allocate<_New_alignof<_Ty>>(_Get_size_of_n<sizeof(_Ty)>(_Count)));

  00029	ff 75 f4	 push	 DWORD PTR $T3[ebp]
  0002c	e8 00 00 00 00	 call	 ??$_Allocate@$07U_Default_allocate_traits@std@@$0A@@std@@YAPAXI@Z ; std::_Allocate<8,std::_Default_allocate_traits,0>
  00031	59		 pop	 ecx
  00032	89 45 f0	 mov	 DWORD PTR $T2[ebp], eax
; File C:\Program Files (x86)\Microsoft Visual Studio\2019\Community\VC\Tools\MSVC\14.28.29333\include\xtree

; 343  :         const auto _Pnode = _Al.allocate(1);

  00035	8b 45 f0	 mov	 eax, DWORD PTR $T2[ebp]
  00038	89 45 f8	 mov	 DWORD PTR __Pnode$[ebp], eax

; 344  :         _Construct_in_place(_Pnode->_Left, _Pnode);

  0003b	8d 45 f8	 lea	 eax, DWORD PTR __Pnode$[ebp]
  0003e	50		 push	 eax
  0003f	ff 75 f8	 push	 DWORD PTR __Pnode$[ebp]
  00042	e8 00 00 00 00	 call	 ??$_Construct_in_place@PAU?$_Tree_node@U?$pair@$$CBV?$basic_string@DU?$char_traits@D@std@@V?$allocator@D@2@@std@@E@std@@PAX@std@@ABQAU12@@std@@YAXAAPAU?$_Tree_node@U?$pair@$$CBV?$basic_string@DU?$char_traits@D@std@@V?$allocator@D@2@@std@@E@std@@PAX@0@ABQAU10@@Z ; std::_Construct_in_place<std::_Tree_node<std::pair<std::basic_string<char,std::char_traits<char>,std::allocator<char> > const ,unsigned char>,void *> *,std::_Tree_node<std::pair<std::basic_string<char,std::char_traits<char>,std::allocator<char> > const ,unsigned char>,void *> * const &>
  00047	59		 pop	 ecx
  00048	59		 pop	 ecx

; 345  :         _Construct_in_place(_Pnode->_Parent, _Pnode);

  00049	8d 45 f8	 lea	 eax, DWORD PTR __Pnode$[ebp]
  0004c	50		 push	 eax
  0004d	8b 45 f8	 mov	 eax, DWORD PTR __Pnode$[ebp]
  00050	83 c0 04	 add	 eax, 4
  00053	50		 push	 eax
  00054	e8 00 00 00 00	 call	 ??$_Construct_in_place@PAU?$_Tree_node@U?$pair@$$CBV?$basic_string@DU?$char_traits@D@std@@V?$allocator@D@2@@std@@E@std@@PAX@std@@ABQAU12@@std@@YAXAAPAU?$_Tree_node@U?$pair@$$CBV?$basic_string@DU?$char_traits@D@std@@V?$allocator@D@2@@std@@E@std@@PAX@0@ABQAU10@@Z ; std::_Construct_in_place<std::_Tree_node<std::pair<std::basic_string<char,std::char_traits<char>,std::allocator<char> > const ,unsigned char>,void *> *,std::_Tree_node<std::pair<std::basic_string<char,std::char_traits<char>,std::allocator<char> > const ,unsigned char>,void *> * const &>
  00059	59		 pop	 ecx
  0005a	59		 pop	 ecx

; 346  :         _Construct_in_place(_Pnode->_Right, _Pnode);

  0005b	8d 45 f8	 lea	 eax, DWORD PTR __Pnode$[ebp]
  0005e	50		 push	 eax
  0005f	8b 45 f8	 mov	 eax, DWORD PTR __Pnode$[ebp]
  00062	83 c0 08	 add	 eax, 8
  00065	50		 push	 eax
  00066	e8 00 00 00 00	 call	 ??$_Construct_in_place@PAU?$_Tree_node@U?$pair@$$CBV?$basic_string@DU?$char_traits@D@std@@V?$allocator@D@2@@std@@E@std@@PAX@std@@ABQAU12@@std@@YAXAAPAU?$_Tree_node@U?$pair@$$CBV?$basic_string@DU?$char_traits@D@std@@V?$allocator@D@2@@std@@E@std@@PAX@0@ABQAU10@@Z ; std::_Construct_in_place<std::_Tree_node<std::pair<std::basic_string<char,std::char_traits<char>,std::allocator<char> > const ,unsigned char>,void *> *,std::_Tree_node<std::pair<std::basic_string<char,std::char_traits<char>,std::allocator<char> > const ,unsigned char>,void *> * const &>
  0006b	59		 pop	 ecx
  0006c	59		 pop	 ecx

; 347  :         _Pnode->_Color = _Black;

  0006d	8b 45 f8	 mov	 eax, DWORD PTR __Pnode$[ebp]
  00070	c6 40 0c 01	 mov	 BYTE PTR [eax+12], 1

; 348  :         _Pnode->_Isnil = true;

  00074	8b 45 f8	 mov	 eax, DWORD PTR __Pnode$[ebp]
  00077	c6 40 0d 01	 mov	 BYTE PTR [eax+13], 1

; 349  :         return _Pnode;

  0007b	8b 45 f8	 mov	 eax, DWORD PTR __Pnode$[ebp]
$LN9@Buyheadnod:

; 350  :     }

  0007e	c9		 leave
  0007f	c3		 ret	 0
??$_Buyheadnode@V?$allocator@U?$_Tree_node@U?$pair@$$CBV?$basic_string@DU?$char_traits@D@std@@V?$allocator@D@2@@std@@E@std@@PAX@std@@@std@@@?$_Tree_node@U?$pair@$$CBV?$basic_string@DU?$char_traits@D@std@@V?$allocator@D@2@@std@@E@std@@PAX@std@@SAPAU01@AAV?$allocator@U?$_Tree_node@U?$pair@$$CBV?$basic_string@DU?$char_traits@D@std@@V?$allocator@D@2@@std@@E@std@@PAX@std@@@1@@Z ENDP ; std::_Tree_node<std::pair<std::basic_string<char,std::char_traits<char>,std::allocator<char> > const ,unsigned char>,void *>::_Buyheadnode<std::allocator<std::_Tree_node<std::pair<std::basic_string<char,std::char_traits<char>,std::allocator<char> > const ,unsigned char>,void *> > >
_TEXT	ENDS
; Function compile flags: /Odspy
; File C:\Program Files (x86)\Microsoft Visual Studio\2019\Community\VC\Tools\MSVC\14.28.29333\include\xutility
; File C:\Program Files (x86)\Microsoft Visual Studio\2019\Community\VC\Tools\MSVC\14.28.29333\include\xtree
; File C:\Program Files (x86)\Microsoft Visual Studio\2019\Community\VC\Tools\MSVC\14.28.29333\include\xutility
;	COMDAT ??$distance@V?$_Tree_unchecked_const_iterator@V?$_Tree_val@U?$_Tree_simple_types@V?$basic_string@DU?$char_traits@D@std@@V?$allocator@D@2@@std@@@std@@@std@@U_Iterator_base0@2@@std@@@std@@YAHV?$_Tree_unchecked_const_iterator@V?$_Tree_val@U?$_Tree_simple_types@V?$basic_string@DU?$char_traits@D@std@@V?$allocator@D@2@@std@@@std@@@std@@U_Iterator_base0@2@@0@0@Z
_TEXT	SEGMENT
__ULast$1 = -24						; size = 4
tv95 = -20						; size = 4
tv87 = -16						; size = 4
__UFirst$2 = -12					; size = 4
__Off$3 = -8						; size = 4
$T4 = -2						; size = 1
$T5 = -1						; size = 1
__First$ = 8						; size = 4
__Last$ = 12						; size = 4
??$distance@V?$_Tree_unchecked_const_iterator@V?$_Tree_val@U?$_Tree_simple_types@V?$basic_string@DU?$char_traits@D@std@@V?$allocator@D@2@@std@@@std@@@std@@U_Iterator_base0@2@@std@@@std@@YAHV?$_Tree_unchecked_const_iterator@V?$_Tree_val@U?$_Tree_simple_types@V?$basic_string@DU?$char_traits@D@std@@V?$allocator@D@2@@std@@@std@@@std@@U_Iterator_base0@2@@0@0@Z PROC ; std::distance<std::_Tree_unchecked_const_iterator<std::_Tree_val<std::_Tree_simple_types<std::basic_string<char,std::char_traits<char>,std::allocator<char> > > >,std::_Iterator_base0> >, COMDAT

; 1792 : _NODISCARD _CONSTEXPR17 _Iter_diff_t<_InIt> distance(_InIt _First, _InIt _Last) {

  00000	55		 push	 ebp
  00001	8b ec		 mov	 ebp, esp
  00003	83 ec 18	 sub	 esp, 24			; 00000018H

; 1793 :     if constexpr (_Is_random_iter_v<_InIt>) {
; 1794 :         return _Last - _First; // assume the iterator will do debug checking
; 1795 :     } else {
; 1796 :         _Adl_verify_range(_First, _Last);
; 1797 :         auto _UFirst             = _Get_unwrapped(_First);

  00006	8b 45 08	 mov	 eax, DWORD PTR __First$[ebp]
  00009	89 45 f4	 mov	 DWORD PTR __UFirst$2[ebp], eax

; 1798 :         const auto _ULast        = _Get_unwrapped(_Last);

  0000c	8b 45 0c	 mov	 eax, DWORD PTR __Last$[ebp]
  0000f	89 45 e8	 mov	 DWORD PTR __ULast$1[ebp], eax

; 1799 :         _Iter_diff_t<_InIt> _Off = 0;

  00012	83 65 f8 00	 and	 DWORD PTR __Off$3[ebp], 0
  00016	eb 08		 jmp	 SHORT $LN4@distance
$LN2@distance:

; 1800 :         for (; _UFirst != _ULast; ++_UFirst) {

  00018	8d 4d f4	 lea	 ecx, DWORD PTR __UFirst$2[ebp]
  0001b	e8 00 00 00 00	 call	 ??E?$_Tree_unchecked_const_iterator@V?$_Tree_val@U?$_Tree_simple_types@V?$basic_string@DU?$char_traits@D@std@@V?$allocator@D@2@@std@@@std@@@std@@U_Iterator_base0@2@@std@@QAEAAV01@XZ ; std::_Tree_unchecked_const_iterator<std::_Tree_val<std::_Tree_simple_types<std::basic_string<char,std::char_traits<char>,std::allocator<char> > > >,std::_Iterator_base0>::operator++
$LN4@distance:
; File C:\Program Files (x86)\Microsoft Visual Studio\2019\Community\VC\Tools\MSVC\14.28.29333\include\xtree

; 98   :         return _Ptr == _Right._Ptr;

  00020	8b 45 f4	 mov	 eax, DWORD PTR __UFirst$2[ebp]
  00023	3b 45 e8	 cmp	 eax, DWORD PTR __ULast$1[ebp]
  00026	75 09		 jne	 SHORT $LN31@distance
  00028	c7 45 f0 01 00
	00 00		 mov	 DWORD PTR tv87[ebp], 1
  0002f	eb 04		 jmp	 SHORT $LN32@distance
$LN31@distance:
  00031	83 65 f0 00	 and	 DWORD PTR tv87[ebp], 0
$LN32@distance:
  00035	8a 45 f0	 mov	 al, BYTE PTR tv87[ebp]
  00038	88 45 ff	 mov	 BYTE PTR $T5[ebp], al

; 102  :         return !(*this == _Right);

  0003b	0f b6 45 ff	 movzx	 eax, BYTE PTR $T5[ebp]
  0003f	85 c0		 test	 eax, eax
  00041	75 09		 jne	 SHORT $LN26@distance
  00043	c7 45 ec 01 00
	00 00		 mov	 DWORD PTR tv95[ebp], 1
  0004a	eb 04		 jmp	 SHORT $LN27@distance
$LN26@distance:
  0004c	83 65 ec 00	 and	 DWORD PTR tv95[ebp], 0
$LN27@distance:
  00050	8a 45 ec	 mov	 al, BYTE PTR tv95[ebp]
  00053	88 45 fe	 mov	 BYTE PTR $T4[ebp], al
; File C:\Program Files (x86)\Microsoft Visual Studio\2019\Community\VC\Tools\MSVC\14.28.29333\include\xutility

; 1800 :         for (; _UFirst != _ULast; ++_UFirst) {

  00056	0f b6 45 fe	 movzx	 eax, BYTE PTR $T4[ebp]
  0005a	85 c0		 test	 eax, eax
  0005c	74 09		 je	 SHORT $LN3@distance

; 1801 :             ++_Off;

  0005e	8b 45 f8	 mov	 eax, DWORD PTR __Off$3[ebp]
  00061	40		 inc	 eax
  00062	89 45 f8	 mov	 DWORD PTR __Off$3[ebp], eax

; 1802 :         }

  00065	eb b1		 jmp	 SHORT $LN2@distance
$LN3@distance:

; 1803 : 
; 1804 :         return _Off;

  00067	8b 45 f8	 mov	 eax, DWORD PTR __Off$3[ebp]

; 1805 :     }
; 1806 : }

  0006a	c9		 leave
  0006b	c3		 ret	 0
??$distance@V?$_Tree_unchecked_const_iterator@V?$_Tree_val@U?$_Tree_simple_types@V?$basic_string@DU?$char_traits@D@std@@V?$allocator@D@2@@std@@@std@@@std@@U_Iterator_base0@2@@std@@@std@@YAHV?$_Tree_unchecked_const_iterator@V?$_Tree_val@U?$_Tree_simple_types@V?$basic_string@DU?$char_traits@D@std@@V?$allocator@D@2@@std@@@std@@@std@@U_Iterator_base0@2@@0@0@Z ENDP ; std::distance<std::_Tree_unchecked_const_iterator<std::_Tree_val<std::_Tree_simple_types<std::basic_string<char,std::char_traits<char>,std::allocator<char> > > >,std::_Iterator_base0> >
_TEXT	ENDS
; Function compile flags: /Odspy
; File C:\Program Files (x86)\Microsoft Visual Studio\2019\Community\VC\Tools\MSVC\14.28.29333\include\xtree
; File C:\Program Files (x86)\Microsoft Visual Studio\2019\Community\VC\Tools\MSVC\14.28.29333\include\utility
; File C:\Program Files (x86)\Microsoft Visual Studio\2019\Community\VC\Tools\MSVC\14.28.29333\include\xtree
;	COMDAT ??$_Erase_tree@V?$allocator@U?$_Tree_node@V?$basic_string@DU?$char_traits@D@std@@V?$allocator@D@2@@std@@PAX@std@@@std@@@?$_Tree_val@U?$_Tree_simple_types@V?$basic_string@DU?$char_traits@D@std@@V?$allocator@D@2@@std@@@std@@@std@@QAEXAAV?$allocator@U?$_Tree_node@V?$basic_string@DU?$char_traits@D@std@@V?$allocator@D@2@@std@@PAX@std@@@1@PAU?$_Tree_node@V?$basic_string@DU?$char_traits@D@std@@V?$allocator@D@2@@std@@PAX@1@@Z
_TEXT	SEGMENT
$T1 = -16						; size = 4
__Old_val$2 = -12					; size = 4
__New_val$ = -8						; size = 4
_this$ = -4						; size = 4
__Al$ = 8						; size = 4
__Rootnode$ = 12					; size = 4
??$_Erase_tree@V?$allocator@U?$_Tree_node@V?$basic_string@DU?$char_traits@D@std@@V?$allocator@D@2@@std@@PAX@std@@@std@@@?$_Tree_val@U?$_Tree_simple_types@V?$basic_string@DU?$char_traits@D@std@@V?$allocator@D@2@@std@@@std@@@std@@QAEXAAV?$allocator@U?$_Tree_node@V?$basic_string@DU?$char_traits@D@std@@V?$allocator@D@2@@std@@PAX@std@@@1@PAU?$_Tree_node@V?$basic_string@DU?$char_traits@D@std@@V?$allocator@D@2@@std@@PAX@1@@Z PROC ; std::_Tree_val<std::_Tree_simple_types<std::basic_string<char,std::char_traits<char>,std::allocator<char> > > >::_Erase_tree<std::allocator<std::_Tree_node<std::basic_string<char,std::char_traits<char>,std::allocator<char> >,void *> > >, COMDAT
; _this$ = ecx

; 742  :     void _Erase_tree(_Alnode& _Al, _Nodeptr _Rootnode) noexcept {

  00000	55		 push	 ebp
  00001	8b ec		 mov	 ebp, esp
  00003	83 ec 10	 sub	 esp, 16			; 00000010H
  00006	89 4d fc	 mov	 DWORD PTR _this$[ebp], ecx
$LN2@Erase_tree:

; 743  :         while (!_Rootnode->_Isnil) { // free subtrees, then node

  00009	8b 45 0c	 mov	 eax, DWORD PTR __Rootnode$[ebp]
  0000c	0f be 40 0d	 movsx	 eax, BYTE PTR [eax+13]
  00010	85 c0		 test	 eax, eax
  00012	75 3a		 jne	 SHORT $LN4@Erase_tree

; 744  :             _Erase_tree(_Al, _Rootnode->_Right);

  00014	8b 45 0c	 mov	 eax, DWORD PTR __Rootnode$[ebp]
  00017	ff 70 08	 push	 DWORD PTR [eax+8]
  0001a	ff 75 08	 push	 DWORD PTR __Al$[ebp]
  0001d	8b 4d fc	 mov	 ecx, DWORD PTR _this$[ebp]
  00020	e8 00 00 00 00	 call	 ??$_Erase_tree@V?$allocator@U?$_Tree_node@V?$basic_string@DU?$char_traits@D@std@@V?$allocator@D@2@@std@@PAX@std@@@std@@@?$_Tree_val@U?$_Tree_simple_types@V?$basic_string@DU?$char_traits@D@std@@V?$allocator@D@2@@std@@@std@@@std@@QAEXAAV?$allocator@U?$_Tree_node@V?$basic_string@DU?$char_traits@D@std@@V?$allocator@D@2@@std@@PAX@std@@@1@PAU?$_Tree_node@V?$basic_string@DU?$char_traits@D@std@@V?$allocator@D@2@@std@@PAX@1@@Z ; std::_Tree_val<std::_Tree_simple_types<std::basic_string<char,std::char_traits<char>,std::allocator<char> > > >::_Erase_tree<std::allocator<std::_Tree_node<std::basic_string<char,std::char_traits<char>,std::allocator<char> >,void *> > >

; 745  :             _Alnode::value_type::_Freenode(_Al, _STD exchange(_Rootnode, _Rootnode->_Left));

  00025	8b 45 0c	 mov	 eax, DWORD PTR __Rootnode$[ebp]
  00028	89 45 f8	 mov	 DWORD PTR __New_val$[ebp], eax
; File C:\Program Files (x86)\Microsoft Visual Studio\2019\Community\VC\Tools\MSVC\14.28.29333\include\utility

; 598  :     _Ty _Old_val = static_cast<_Ty&&>(_Val);

  0002b	8b 45 0c	 mov	 eax, DWORD PTR __Rootnode$[ebp]
  0002e	89 45 f4	 mov	 DWORD PTR __Old_val$2[ebp], eax

; 599  :     _Val         = static_cast<_Other&&>(_New_val);

  00031	8b 45 f8	 mov	 eax, DWORD PTR __New_val$[ebp]
  00034	8b 00		 mov	 eax, DWORD PTR [eax]
  00036	89 45 0c	 mov	 DWORD PTR __Rootnode$[ebp], eax

; 600  :     return _Old_val;

  00039	8b 45 f4	 mov	 eax, DWORD PTR __Old_val$2[ebp]
  0003c	89 45 f0	 mov	 DWORD PTR $T1[ebp], eax
; File C:\Program Files (x86)\Microsoft Visual Studio\2019\Community\VC\Tools\MSVC\14.28.29333\include\xtree

; 745  :             _Alnode::value_type::_Freenode(_Al, _STD exchange(_Rootnode, _Rootnode->_Left));

  0003f	ff 75 f0	 push	 DWORD PTR $T1[ebp]
  00042	ff 75 08	 push	 DWORD PTR __Al$[ebp]
  00045	e8 00 00 00 00	 call	 ??$_Freenode@V?$allocator@U?$_Tree_node@V?$basic_string@DU?$char_traits@D@std@@V?$allocator@D@2@@std@@PAX@std@@@std@@@?$_Tree_node@V?$basic_string@DU?$char_traits@D@std@@V?$allocator@D@2@@std@@PAX@std@@SAXAAV?$allocator@U?$_Tree_node@V?$basic_string@DU?$char_traits@D@std@@V?$allocator@D@2@@std@@PAX@std@@@1@PAU01@@Z ; std::_Tree_node<std::basic_string<char,std::char_traits<char>,std::allocator<char> >,void *>::_Freenode<std::allocator<std::_Tree_node<std::basic_string<char,std::char_traits<char>,std::allocator<char> >,void *> > >
  0004a	59		 pop	 ecx
  0004b	59		 pop	 ecx

; 746  :         }

  0004c	eb bb		 jmp	 SHORT $LN2@Erase_tree
$LN4@Erase_tree:

; 747  :     }

  0004e	c9		 leave
  0004f	c2 08 00	 ret	 8
??$_Erase_tree@V?$allocator@U?$_Tree_node@V?$basic_string@DU?$char_traits@D@std@@V?$allocator@D@2@@std@@PAX@std@@@std@@@?$_Tree_val@U?$_Tree_simple_types@V?$basic_string@DU?$char_traits@D@std@@V?$allocator@D@2@@std@@@std@@@std@@QAEXAAV?$allocator@U?$_Tree_node@V?$basic_string@DU?$char_traits@D@std@@V?$allocator@D@2@@std@@PAX@std@@@1@PAU?$_Tree_node@V?$basic_string@DU?$char_traits@D@std@@V?$allocator@D@2@@std@@PAX@1@@Z ENDP ; std::_Tree_val<std::_Tree_simple_types<std::basic_string<char,std::char_traits<char>,std::allocator<char> > > >::_Erase_tree<std::allocator<std::_Tree_node<std::basic_string<char,std::char_traits<char>,std::allocator<char> >,void *> > >
_TEXT	ENDS
; Function compile flags: /Odspy
; File C:\Program Files (x86)\Microsoft Visual Studio\2019\Community\VC\Tools\MSVC\14.28.29333\include\xtree
; File C:\Program Files (x86)\Microsoft Visual Studio\2019\Community\VC\Tools\MSVC\14.28.29333\include\xmemory
; File C:\Program Files (x86)\Microsoft Visual Studio\2019\Community\VC\Tools\MSVC\14.28.29333\include\xtree
; File C:\Program Files (x86)\Microsoft Visual Studio\2019\Community\VC\Tools\MSVC\14.28.29333\include\xstddef
; File C:\Program Files (x86)\Microsoft Visual Studio\2019\Community\VC\Tools\MSVC\14.28.29333\include\xtree
; File C:\Program Files (x86)\Microsoft Visual Studio\2019\Community\VC\Tools\MSVC\14.28.29333\include\xstddef
; File C:\Program Files (x86)\Microsoft Visual Studio\2019\Community\VC\Tools\MSVC\14.28.29333\include\xtree
;	COMDAT ??$_Find@V?$basic_string@DU?$char_traits@D@std@@V?$allocator@D@2@@std@@@?$_Tree@V?$_Tset_traits@V?$basic_string@DU?$char_traits@D@std@@V?$allocator@D@2@@std@@U?$less@V?$basic_string@DU?$char_traits@D@std@@V?$allocator@D@2@@std@@@2@V?$allocator@V?$basic_string@DU?$char_traits@D@std@@V?$allocator@D@2@@std@@@2@$0A@@std@@@std@@ABEPAU?$_Tree_node@V?$basic_string@DU?$char_traits@D@std@@V?$allocator@D@2@@std@@PAX@1@ABV?$basic_string@DU?$char_traits@D@std@@V?$allocator@D@2@@1@@Z
_TEXT	SEGMENT
__Loc$ = -40						; size = 12
$T1 = -28						; size = 4
$T2 = -24						; size = 4
$T3 = -20						; size = 4
$T4 = -16						; size = 4
tv78 = -12						; size = 4
__Bound$ = -8						; size = 4
_this$ = -4						; size = 4
__Keyval$ = 8						; size = 4
??$_Find@V?$basic_string@DU?$char_traits@D@std@@V?$allocator@D@2@@std@@@?$_Tree@V?$_Tset_traits@V?$basic_string@DU?$char_traits@D@std@@V?$allocator@D@2@@std@@U?$less@V?$basic_string@DU?$char_traits@D@std@@V?$allocator@D@2@@std@@@2@V?$allocator@V?$basic_string@DU?$char_traits@D@std@@V?$allocator@D@2@@std@@@2@$0A@@std@@@std@@ABEPAU?$_Tree_node@V?$basic_string@DU?$char_traits@D@std@@V?$allocator@D@2@@std@@PAX@1@ABV?$basic_string@DU?$char_traits@D@std@@V?$allocator@D@2@@1@@Z PROC ; std::_Tree<std::_Tset_traits<std::basic_string<char,std::char_traits<char>,std::allocator<char> >,std::less<std::basic_string<char,std::char_traits<char>,std::allocator<char> > >,std::allocator<std::basic_string<char,std::char_traits<char>,std::allocator<char> > >,0> >::_Find<std::basic_string<char,std::char_traits<char>,std::allocator<char> > >, COMDAT
; _this$ = ecx

; 1457 :     _NODISCARD _Nodeptr _Find(const _Other& _Keyval) const {

  00000	55		 push	 ebp
  00001	8b ec		 mov	 ebp, esp
  00003	83 ec 28	 sub	 esp, 40			; 00000028H
  00006	89 4d fc	 mov	 DWORD PTR _this$[ebp], ecx

; 1458 :         const _Tree_find_result<_Nodeptr> _Loc = _Find_lower_bound(_Keyval);

  00009	ff 75 08	 push	 DWORD PTR __Keyval$[ebp]
  0000c	8d 45 d8	 lea	 eax, DWORD PTR __Loc$[ebp]
  0000f	50		 push	 eax
  00010	8b 4d fc	 mov	 ecx, DWORD PTR _this$[ebp]
  00013	e8 00 00 00 00	 call	 ??$_Find_lower_bound@V?$basic_string@DU?$char_traits@D@std@@V?$allocator@D@2@@std@@@?$_Tree@V?$_Tset_traits@V?$basic_string@DU?$char_traits@D@std@@V?$allocator@D@2@@std@@U?$less@V?$basic_string@DU?$char_traits@D@std@@V?$allocator@D@2@@std@@@2@V?$allocator@V?$basic_string@DU?$char_traits@D@std@@V?$allocator@D@2@@std@@@2@$0A@@std@@@std@@IBE?AU?$_Tree_find_result@PAU?$_Tree_node@V?$basic_string@DU?$char_traits@D@std@@V?$allocator@D@2@@std@@PAX@std@@@1@ABV?$basic_string@DU?$char_traits@D@std@@V?$allocator@D@2@@1@@Z ; std::_Tree<std::_Tset_traits<std::basic_string<char,std::char_traits<char>,std::allocator<char> >,std::less<std::basic_string<char,std::char_traits<char>,std::allocator<char> > >,std::allocator<std::basic_string<char,std::char_traits<char>,std::allocator<char> > >,0> >::_Find_lower_bound<std::basic_string<char,std::char_traits<char>,std::allocator<char> > >

; 1459 :         if (_Lower_bound_duplicate(_Loc._Bound, _Keyval)) {

  00018	8b 45 e0	 mov	 eax, DWORD PTR __Loc$[ebp+8]
  0001b	89 45 f8	 mov	 DWORD PTR __Bound$[ebp], eax

; 1695 :         return !_Bound->_Isnil && !_DEBUG_LT_PRED(_Getcomp(), _Keyval, _Traits::_Kfn(_Bound->_Myval));

  0001e	8b 45 f8	 mov	 eax, DWORD PTR __Bound$[ebp]
  00021	0f be 40 0d	 movsx	 eax, BYTE PTR [eax+13]
  00025	85 c0		 test	 eax, eax
  00027	75 2d		 jne	 SHORT $LN28@Find

; 2035 :         return _Mypair._Get_first();

  00029	8b 45 fc	 mov	 eax, DWORD PTR _this$[ebp]
; File C:\Program Files (x86)\Microsoft Visual Studio\2019\Community\VC\Tools\MSVC\14.28.29333\include\xmemory

; 1351 :         return *this;

  0002c	89 45 f0	 mov	 DWORD PTR $T4[ebp], eax
; File C:\Program Files (x86)\Microsoft Visual Studio\2019\Community\VC\Tools\MSVC\14.28.29333\include\xtree

; 2035 :         return _Mypair._Get_first();

  0002f	8b 45 f0	 mov	 eax, DWORD PTR $T4[ebp]
  00032	89 45 e4	 mov	 DWORD PTR $T1[ebp], eax

; 1695 :         return !_Bound->_Isnil && !_DEBUG_LT_PRED(_Getcomp(), _Keyval, _Traits::_Kfn(_Bound->_Myval));

  00035	8b 45 f8	 mov	 eax, DWORD PTR __Bound$[ebp]
  00038	83 c0 10	 add	 eax, 16			; 00000010H
; File C:\Program Files (x86)\Microsoft Visual Studio\2019\Community\VC\Tools\MSVC\14.28.29333\include\xstddef

; 127  :         return _Left < _Right;

  0003b	50		 push	 eax
  0003c	ff 75 08	 push	 DWORD PTR __Keyval$[ebp]
  0003f	e8 00 00 00 00	 call	 ??$?MDU?$char_traits@D@std@@V?$allocator@D@1@@std@@YA_NABV?$basic_string@DU?$char_traits@D@std@@V?$allocator@D@2@@0@0@Z ; std::operator<<char,std::char_traits<char>,std::allocator<char> >
  00044	59		 pop	 ecx
  00045	59		 pop	 ecx
; File C:\Program Files (x86)\Microsoft Visual Studio\2019\Community\VC\Tools\MSVC\14.28.29333\include\xtree

; 1695 :         return !_Bound->_Isnil && !_DEBUG_LT_PRED(_Getcomp(), _Keyval, _Traits::_Kfn(_Bound->_Myval));

  00046	0f b6 c0	 movzx	 eax, al
  00049	85 c0		 test	 eax, eax
  0004b	75 09		 jne	 SHORT $LN28@Find
  0004d	c7 45 f4 01 00
	00 00		 mov	 DWORD PTR tv78[ebp], 1
  00054	eb 04		 jmp	 SHORT $LN26@Find
$LN28@Find:
  00056	83 65 f4 00	 and	 DWORD PTR tv78[ebp], 0
$LN26@Find:

; 1459 :         if (_Lower_bound_duplicate(_Loc._Bound, _Keyval)) {

  0005a	0f b6 45 f4	 movzx	 eax, BYTE PTR tv78[ebp]
  0005e	85 c0		 test	 eax, eax
  00060	74 05		 je	 SHORT $LN2@Find

; 1460 :             return _Loc._Bound;

  00062	8b 45 e0	 mov	 eax, DWORD PTR __Loc$[ebp+8]
  00065	eb 11		 jmp	 SHORT $LN1@Find
$LN2@Find:

; 2051 :         return _STD addressof(_Mypair._Myval2._Myval2);

  00067	8b 45 fc	 mov	 eax, DWORD PTR _this$[ebp]
; File C:\Program Files (x86)\Microsoft Visual Studio\2019\Community\VC\Tools\MSVC\14.28.29333\include\xstddef

; 275  :     return __builtin_addressof(_Val);

  0006a	89 45 ec	 mov	 DWORD PTR $T3[ebp], eax
; File C:\Program Files (x86)\Microsoft Visual Studio\2019\Community\VC\Tools\MSVC\14.28.29333\include\xtree

; 2051 :         return _STD addressof(_Mypair._Myval2._Myval2);

  0006d	8b 45 ec	 mov	 eax, DWORD PTR $T3[ebp]
  00070	89 45 e8	 mov	 DWORD PTR $T2[ebp], eax

; 1461 :         }
; 1462 : 
; 1463 :         return _Get_scary()->_Myhead;

  00073	8b 45 e8	 mov	 eax, DWORD PTR $T2[ebp]
  00076	8b 00		 mov	 eax, DWORD PTR [eax]
$LN1@Find:

; 1464 :     }

  00078	c9		 leave
  00079	c2 04 00	 ret	 4
??$_Find@V?$basic_string@DU?$char_traits@D@std@@V?$allocator@D@2@@std@@@?$_Tree@V?$_Tset_traits@V?$basic_string@DU?$char_traits@D@std@@V?$allocator@D@2@@std@@U?$less@V?$basic_string@DU?$char_traits@D@std@@V?$allocator@D@2@@std@@@2@V?$allocator@V?$basic_string@DU?$char_traits@D@std@@V?$allocator@D@2@@std@@@2@$0A@@std@@@std@@ABEPAU?$_Tree_node@V?$basic_string@DU?$char_traits@D@std@@V?$allocator@D@2@@std@@PAX@1@ABV?$basic_string@DU?$char_traits@D@std@@V?$allocator@D@2@@1@@Z ENDP ; std::_Tree<std::_Tset_traits<std::basic_string<char,std::char_traits<char>,std::allocator<char> >,std::less<std::basic_string<char,std::char_traits<char>,std::allocator<char> > >,std::allocator<std::basic_string<char,std::char_traits<char>,std::allocator<char> > >,0> >::_Find<std::basic_string<char,std::char_traits<char>,std::allocator<char> > >
_TEXT	ENDS
; Function compile flags: /Odspy
; File C:\Program Files (x86)\Microsoft Visual Studio\2019\Community\VC\Tools\MSVC\14.28.29333\include\xutility
; File C:\Program Files (x86)\Microsoft Visual Studio\2019\Community\VC\Tools\MSVC\14.28.29333\include\xtree
; File C:\Program Files (x86)\Microsoft Visual Studio\2019\Community\VC\Tools\MSVC\14.28.29333\include\xutility
;	COMDAT ??$distance@V?$_Tree_unchecked_const_iterator@V?$_Tree_val@U?$_Tree_simple_types@U?$pair@$$CBV?$basic_string@DU?$char_traits@D@std@@V?$allocator@D@2@@std@@E@std@@@std@@@std@@U_Iterator_base0@2@@std@@@std@@YAHV?$_Tree_unchecked_const_iterator@V?$_Tree_val@U?$_Tree_simple_types@U?$pair@$$CBV?$basic_string@DU?$char_traits@D@std@@V?$allocator@D@2@@std@@E@std@@@std@@@std@@U_Iterator_base0@2@@0@0@Z
_TEXT	SEGMENT
__ULast$1 = -24						; size = 4
tv95 = -20						; size = 4
tv87 = -16						; size = 4
__UFirst$2 = -12					; size = 4
__Off$3 = -8						; size = 4
$T4 = -2						; size = 1
$T5 = -1						; size = 1
__First$ = 8						; size = 4
__Last$ = 12						; size = 4
??$distance@V?$_Tree_unchecked_const_iterator@V?$_Tree_val@U?$_Tree_simple_types@U?$pair@$$CBV?$basic_string@DU?$char_traits@D@std@@V?$allocator@D@2@@std@@E@std@@@std@@@std@@U_Iterator_base0@2@@std@@@std@@YAHV?$_Tree_unchecked_const_iterator@V?$_Tree_val@U?$_Tree_simple_types@U?$pair@$$CBV?$basic_string@DU?$char_traits@D@std@@V?$allocator@D@2@@std@@E@std@@@std@@@std@@U_Iterator_base0@2@@0@0@Z PROC ; std::distance<std::_Tree_unchecked_const_iterator<std::_Tree_val<std::_Tree_simple_types<std::pair<std::basic_string<char,std::char_traits<char>,std::allocator<char> > const ,unsigned char> > >,std::_Iterator_base0> >, COMDAT

; 1792 : _NODISCARD _CONSTEXPR17 _Iter_diff_t<_InIt> distance(_InIt _First, _InIt _Last) {

  00000	55		 push	 ebp
  00001	8b ec		 mov	 ebp, esp
  00003	83 ec 18	 sub	 esp, 24			; 00000018H

; 1793 :     if constexpr (_Is_random_iter_v<_InIt>) {
; 1794 :         return _Last - _First; // assume the iterator will do debug checking
; 1795 :     } else {
; 1796 :         _Adl_verify_range(_First, _Last);
; 1797 :         auto _UFirst             = _Get_unwrapped(_First);

  00006	8b 45 08	 mov	 eax, DWORD PTR __First$[ebp]
  00009	89 45 f4	 mov	 DWORD PTR __UFirst$2[ebp], eax

; 1798 :         const auto _ULast        = _Get_unwrapped(_Last);

  0000c	8b 45 0c	 mov	 eax, DWORD PTR __Last$[ebp]
  0000f	89 45 e8	 mov	 DWORD PTR __ULast$1[ebp], eax

; 1799 :         _Iter_diff_t<_InIt> _Off = 0;

  00012	83 65 f8 00	 and	 DWORD PTR __Off$3[ebp], 0
  00016	eb 08		 jmp	 SHORT $LN4@distance
$LN2@distance:

; 1800 :         for (; _UFirst != _ULast; ++_UFirst) {

  00018	8d 4d f4	 lea	 ecx, DWORD PTR __UFirst$2[ebp]
  0001b	e8 00 00 00 00	 call	 ??E?$_Tree_unchecked_const_iterator@V?$_Tree_val@U?$_Tree_simple_types@U?$pair@$$CBV?$basic_string@DU?$char_traits@D@std@@V?$allocator@D@2@@std@@E@std@@@std@@@std@@U_Iterator_base0@2@@std@@QAEAAV01@XZ ; std::_Tree_unchecked_const_iterator<std::_Tree_val<std::_Tree_simple_types<std::pair<std::basic_string<char,std::char_traits<char>,std::allocator<char> > const ,unsigned char> > >,std::_Iterator_base0>::operator++
$LN4@distance:
; File C:\Program Files (x86)\Microsoft Visual Studio\2019\Community\VC\Tools\MSVC\14.28.29333\include\xtree

; 98   :         return _Ptr == _Right._Ptr;

  00020	8b 45 f4	 mov	 eax, DWORD PTR __UFirst$2[ebp]
  00023	3b 45 e8	 cmp	 eax, DWORD PTR __ULast$1[ebp]
  00026	75 09		 jne	 SHORT $LN31@distance
  00028	c7 45 f0 01 00
	00 00		 mov	 DWORD PTR tv87[ebp], 1
  0002f	eb 04		 jmp	 SHORT $LN32@distance
$LN31@distance:
  00031	83 65 f0 00	 and	 DWORD PTR tv87[ebp], 0
$LN32@distance:
  00035	8a 45 f0	 mov	 al, BYTE PTR tv87[ebp]
  00038	88 45 ff	 mov	 BYTE PTR $T5[ebp], al

; 102  :         return !(*this == _Right);

  0003b	0f b6 45 ff	 movzx	 eax, BYTE PTR $T5[ebp]
  0003f	85 c0		 test	 eax, eax
  00041	75 09		 jne	 SHORT $LN26@distance
  00043	c7 45 ec 01 00
	00 00		 mov	 DWORD PTR tv95[ebp], 1
  0004a	eb 04		 jmp	 SHORT $LN27@distance
$LN26@distance:
  0004c	83 65 ec 00	 and	 DWORD PTR tv95[ebp], 0
$LN27@distance:
  00050	8a 45 ec	 mov	 al, BYTE PTR tv95[ebp]
  00053	88 45 fe	 mov	 BYTE PTR $T4[ebp], al
; File C:\Program Files (x86)\Microsoft Visual Studio\2019\Community\VC\Tools\MSVC\14.28.29333\include\xutility

; 1800 :         for (; _UFirst != _ULast; ++_UFirst) {

  00056	0f b6 45 fe	 movzx	 eax, BYTE PTR $T4[ebp]
  0005a	85 c0		 test	 eax, eax
  0005c	74 09		 je	 SHORT $LN3@distance

; 1801 :             ++_Off;

  0005e	8b 45 f8	 mov	 eax, DWORD PTR __Off$3[ebp]
  00061	40		 inc	 eax
  00062	89 45 f8	 mov	 DWORD PTR __Off$3[ebp], eax

; 1802 :         }

  00065	eb b1		 jmp	 SHORT $LN2@distance
$LN3@distance:

; 1803 : 
; 1804 :         return _Off;

  00067	8b 45 f8	 mov	 eax, DWORD PTR __Off$3[ebp]

; 1805 :     }
; 1806 : }

  0006a	c9		 leave
  0006b	c3		 ret	 0
??$distance@V?$_Tree_unchecked_const_iterator@V?$_Tree_val@U?$_Tree_simple_types@U?$pair@$$CBV?$basic_string@DU?$char_traits@D@std@@V?$allocator@D@2@@std@@E@std@@@std@@@std@@U_Iterator_base0@2@@std@@@std@@YAHV?$_Tree_unchecked_const_iterator@V?$_Tree_val@U?$_Tree_simple_types@U?$pair@$$CBV?$basic_string@DU?$char_traits@D@std@@V?$allocator@D@2@@std@@E@std@@@std@@@std@@U_Iterator_base0@2@@0@0@Z ENDP ; std::distance<std::_Tree_unchecked_const_iterator<std::_Tree_val<std::_Tree_simple_types<std::pair<std::basic_string<char,std::char_traits<char>,std::allocator<char> > const ,unsigned char> > >,std::_Iterator_base0> >
_TEXT	ENDS
; Function compile flags: /Odspy
; File C:\Program Files (x86)\Microsoft Visual Studio\2019\Community\VC\Tools\MSVC\14.28.29333\include\xtree
; File C:\Program Files (x86)\Microsoft Visual Studio\2019\Community\VC\Tools\MSVC\14.28.29333\include\utility
; File C:\Program Files (x86)\Microsoft Visual Studio\2019\Community\VC\Tools\MSVC\14.28.29333\include\xtree
;	COMDAT ??$_Erase_tree@V?$allocator@U?$_Tree_node@U?$pair@$$CBV?$basic_string@DU?$char_traits@D@std@@V?$allocator@D@2@@std@@E@std@@PAX@std@@@std@@@?$_Tree_val@U?$_Tree_simple_types@U?$pair@$$CBV?$basic_string@DU?$char_traits@D@std@@V?$allocator@D@2@@std@@E@std@@@std@@@std@@QAEXAAV?$allocator@U?$_Tree_node@U?$pair@$$CBV?$basic_string@DU?$char_traits@D@std@@V?$allocator@D@2@@std@@E@std@@PAX@std@@@1@PAU?$_Tree_node@U?$pair@$$CBV?$basic_string@DU?$char_traits@D@std@@V?$allocator@D@2@@std@@E@std@@PAX@1@@Z
_TEXT	SEGMENT
$T1 = -16						; size = 4
__Old_val$2 = -12					; size = 4
__New_val$ = -8						; size = 4
_this$ = -4						; size = 4
__Al$ = 8						; size = 4
__Rootnode$ = 12					; size = 4
??$_Erase_tree@V?$allocator@U?$_Tree_node@U?$pair@$$CBV?$basic_string@DU?$char_traits@D@std@@V?$allocator@D@2@@std@@E@std@@PAX@std@@@std@@@?$_Tree_val@U?$_Tree_simple_types@U?$pair@$$CBV?$basic_string@DU?$char_traits@D@std@@V?$allocator@D@2@@std@@E@std@@@std@@@std@@QAEXAAV?$allocator@U?$_Tree_node@U?$pair@$$CBV?$basic_string@DU?$char_traits@D@std@@V?$allocator@D@2@@std@@E@std@@PAX@std@@@1@PAU?$_Tree_node@U?$pair@$$CBV?$basic_string@DU?$char_traits@D@std@@V?$allocator@D@2@@std@@E@std@@PAX@1@@Z PROC ; std::_Tree_val<std::_Tree_simple_types<std::pair<std::basic_string<char,std::char_traits<char>,std::allocator<char> > const ,unsigned char> > >::_Erase_tree<std::allocator<std::_Tree_node<std::pair<std::basic_string<char,std::char_traits<char>,std::allocator<char> > const ,unsigned char>,void *> > >, COMDAT
; _this$ = ecx

; 742  :     void _Erase_tree(_Alnode& _Al, _Nodeptr _Rootnode) noexcept {

  00000	55		 push	 ebp
  00001	8b ec		 mov	 ebp, esp
  00003	83 ec 10	 sub	 esp, 16			; 00000010H
  00006	89 4d fc	 mov	 DWORD PTR _this$[ebp], ecx
$LN2@Erase_tree:

; 743  :         while (!_Rootnode->_Isnil) { // free subtrees, then node

  00009	8b 45 0c	 mov	 eax, DWORD PTR __Rootnode$[ebp]
  0000c	0f be 40 0d	 movsx	 eax, BYTE PTR [eax+13]
  00010	85 c0		 test	 eax, eax
  00012	75 3a		 jne	 SHORT $LN4@Erase_tree

; 744  :             _Erase_tree(_Al, _Rootnode->_Right);

  00014	8b 45 0c	 mov	 eax, DWORD PTR __Rootnode$[ebp]
  00017	ff 70 08	 push	 DWORD PTR [eax+8]
  0001a	ff 75 08	 push	 DWORD PTR __Al$[ebp]
  0001d	8b 4d fc	 mov	 ecx, DWORD PTR _this$[ebp]
  00020	e8 00 00 00 00	 call	 ??$_Erase_tree@V?$allocator@U?$_Tree_node@U?$pair@$$CBV?$basic_string@DU?$char_traits@D@std@@V?$allocator@D@2@@std@@E@std@@PAX@std@@@std@@@?$_Tree_val@U?$_Tree_simple_types@U?$pair@$$CBV?$basic_string@DU?$char_traits@D@std@@V?$allocator@D@2@@std@@E@std@@@std@@@std@@QAEXAAV?$allocator@U?$_Tree_node@U?$pair@$$CBV?$basic_string@DU?$char_traits@D@std@@V?$allocator@D@2@@std@@E@std@@PAX@std@@@1@PAU?$_Tree_node@U?$pair@$$CBV?$basic_string@DU?$char_traits@D@std@@V?$allocator@D@2@@std@@E@std@@PAX@1@@Z ; std::_Tree_val<std::_Tree_simple_types<std::pair<std::basic_string<char,std::char_traits<char>,std::allocator<char> > const ,unsigned char> > >::_Erase_tree<std::allocator<std::_Tree_node<std::pair<std::basic_string<char,std::char_traits<char>,std::allocator<char> > const ,unsigned char>,void *> > >

; 745  :             _Alnode::value_type::_Freenode(_Al, _STD exchange(_Rootnode, _Rootnode->_Left));

  00025	8b 45 0c	 mov	 eax, DWORD PTR __Rootnode$[ebp]
  00028	89 45 f8	 mov	 DWORD PTR __New_val$[ebp], eax
; File C:\Program Files (x86)\Microsoft Visual Studio\2019\Community\VC\Tools\MSVC\14.28.29333\include\utility

; 598  :     _Ty _Old_val = static_cast<_Ty&&>(_Val);

  0002b	8b 45 0c	 mov	 eax, DWORD PTR __Rootnode$[ebp]
  0002e	89 45 f4	 mov	 DWORD PTR __Old_val$2[ebp], eax

; 599  :     _Val         = static_cast<_Other&&>(_New_val);

  00031	8b 45 f8	 mov	 eax, DWORD PTR __New_val$[ebp]
  00034	8b 00		 mov	 eax, DWORD PTR [eax]
  00036	89 45 0c	 mov	 DWORD PTR __Rootnode$[ebp], eax

; 600  :     return _Old_val;

  00039	8b 45 f4	 mov	 eax, DWORD PTR __Old_val$2[ebp]
  0003c	89 45 f0	 mov	 DWORD PTR $T1[ebp], eax
; File C:\Program Files (x86)\Microsoft Visual Studio\2019\Community\VC\Tools\MSVC\14.28.29333\include\xtree

; 745  :             _Alnode::value_type::_Freenode(_Al, _STD exchange(_Rootnode, _Rootnode->_Left));

  0003f	ff 75 f0	 push	 DWORD PTR $T1[ebp]
  00042	ff 75 08	 push	 DWORD PTR __Al$[ebp]
  00045	e8 00 00 00 00	 call	 ??$_Freenode@V?$allocator@U?$_Tree_node@U?$pair@$$CBV?$basic_string@DU?$char_traits@D@std@@V?$allocator@D@2@@std@@E@std@@PAX@std@@@std@@@?$_Tree_node@U?$pair@$$CBV?$basic_string@DU?$char_traits@D@std@@V?$allocator@D@2@@std@@E@std@@PAX@std@@SAXAAV?$allocator@U?$_Tree_node@U?$pair@$$CBV?$basic_string@DU?$char_traits@D@std@@V?$allocator@D@2@@std@@E@std@@PAX@std@@@1@PAU01@@Z ; std::_Tree_node<std::pair<std::basic_string<char,std::char_traits<char>,std::allocator<char> > const ,unsigned char>,void *>::_Freenode<std::allocator<std::_Tree_node<std::pair<std::basic_string<char,std::char_traits<char>,std::allocator<char> > const ,unsigned char>,void *> > >
  0004a	59		 pop	 ecx
  0004b	59		 pop	 ecx

; 746  :         }

  0004c	eb bb		 jmp	 SHORT $LN2@Erase_tree
$LN4@Erase_tree:

; 747  :     }

  0004e	c9		 leave
  0004f	c2 08 00	 ret	 8
??$_Erase_tree@V?$allocator@U?$_Tree_node@U?$pair@$$CBV?$basic_string@DU?$char_traits@D@std@@V?$allocator@D@2@@std@@E@std@@PAX@std@@@std@@@?$_Tree_val@U?$_Tree_simple_types@U?$pair@$$CBV?$basic_string@DU?$char_traits@D@std@@V?$allocator@D@2@@std@@E@std@@@std@@@std@@QAEXAAV?$allocator@U?$_Tree_node@U?$pair@$$CBV?$basic_string@DU?$char_traits@D@std@@V?$allocator@D@2@@std@@E@std@@PAX@std@@@1@PAU?$_Tree_node@U?$pair@$$CBV?$basic_string@DU?$char_traits@D@std@@V?$allocator@D@2@@std@@E@std@@PAX@1@@Z ENDP ; std::_Tree_val<std::_Tree_simple_types<std::pair<std::basic_string<char,std::char_traits<char>,std::allocator<char> > const ,unsigned char> > >::_Erase_tree<std::allocator<std::_Tree_node<std::pair<std::basic_string<char,std::char_traits<char>,std::allocator<char> > const ,unsigned char>,void *> > >
_TEXT	ENDS
; Function compile flags: /Odspy
; File C:\Program Files (x86)\Microsoft Visual Studio\2019\Community\VC\Tools\MSVC\14.28.29333\include\xtree
; File C:\Program Files (x86)\Microsoft Visual Studio\2019\Community\VC\Tools\MSVC\14.28.29333\include\xstddef
; File C:\Program Files (x86)\Microsoft Visual Studio\2019\Community\VC\Tools\MSVC\14.28.29333\include\xtree
;	COMDAT ??$_Find@V?$basic_string@DU?$char_traits@D@std@@V?$allocator@D@2@@std@@@?$_Tree@V?$_Tmap_traits@V?$basic_string@DU?$char_traits@D@std@@V?$allocator@D@2@@std@@EU?$less@V?$basic_string@DU?$char_traits@D@std@@V?$allocator@D@2@@std@@@2@V?$allocator@U?$pair@$$CBV?$basic_string@DU?$char_traits@D@std@@V?$allocator@D@2@@std@@E@std@@@2@$0A@@std@@@std@@ABEPAU?$_Tree_node@U?$pair@$$CBV?$basic_string@DU?$char_traits@D@std@@V?$allocator@D@2@@std@@E@std@@PAX@1@ABV?$basic_string@DU?$char_traits@D@std@@V?$allocator@D@2@@1@@Z
_TEXT	SEGMENT
__Loc$ = -24						; size = 12
$T1 = -12						; size = 4
$T2 = -8						; size = 4
_this$ = -4						; size = 4
__Keyval$ = 8						; size = 4
??$_Find@V?$basic_string@DU?$char_traits@D@std@@V?$allocator@D@2@@std@@@?$_Tree@V?$_Tmap_traits@V?$basic_string@DU?$char_traits@D@std@@V?$allocator@D@2@@std@@EU?$less@V?$basic_string@DU?$char_traits@D@std@@V?$allocator@D@2@@std@@@2@V?$allocator@U?$pair@$$CBV?$basic_string@DU?$char_traits@D@std@@V?$allocator@D@2@@std@@E@std@@@2@$0A@@std@@@std@@ABEPAU?$_Tree_node@U?$pair@$$CBV?$basic_string@DU?$char_traits@D@std@@V?$allocator@D@2@@std@@E@std@@PAX@1@ABV?$basic_string@DU?$char_traits@D@std@@V?$allocator@D@2@@1@@Z PROC ; std::_Tree<std::_Tmap_traits<std::basic_string<char,std::char_traits<char>,std::allocator<char> >,unsigned char,std::less<std::basic_string<char,std::char_traits<char>,std::allocator<char> > >,std::allocator<std::pair<std::basic_string<char,std::char_traits<char>,std::allocator<char> > const ,unsigned char> >,0> >::_Find<std::basic_string<char,std::char_traits<char>,std::allocator<char> > >, COMDAT
; _this$ = ecx

; 1457 :     _NODISCARD _Nodeptr _Find(const _Other& _Keyval) const {

  00000	55		 push	 ebp
  00001	8b ec		 mov	 ebp, esp
  00003	83 ec 18	 sub	 esp, 24			; 00000018H
  00006	89 4d fc	 mov	 DWORD PTR _this$[ebp], ecx

; 1458 :         const _Tree_find_result<_Nodeptr> _Loc = _Find_lower_bound(_Keyval);

  00009	ff 75 08	 push	 DWORD PTR __Keyval$[ebp]
  0000c	8d 45 e8	 lea	 eax, DWORD PTR __Loc$[ebp]
  0000f	50		 push	 eax
  00010	8b 4d fc	 mov	 ecx, DWORD PTR _this$[ebp]
  00013	e8 00 00 00 00	 call	 ??$_Find_lower_bound@V?$basic_string@DU?$char_traits@D@std@@V?$allocator@D@2@@std@@@?$_Tree@V?$_Tmap_traits@V?$basic_string@DU?$char_traits@D@std@@V?$allocator@D@2@@std@@EU?$less@V?$basic_string@DU?$char_traits@D@std@@V?$allocator@D@2@@std@@@2@V?$allocator@U?$pair@$$CBV?$basic_string@DU?$char_traits@D@std@@V?$allocator@D@2@@std@@E@std@@@2@$0A@@std@@@std@@IBE?AU?$_Tree_find_result@PAU?$_Tree_node@U?$pair@$$CBV?$basic_string@DU?$char_traits@D@std@@V?$allocator@D@2@@std@@E@std@@PAX@std@@@1@ABV?$basic_string@DU?$char_traits@D@std@@V?$allocator@D@2@@1@@Z ; std::_Tree<std::_Tmap_traits<std::basic_string<char,std::char_traits<char>,std::allocator<char> >,unsigned char,std::less<std::basic_string<char,std::char_traits<char>,std::allocator<char> > >,std::allocator<std::pair<std::basic_string<char,std::char_traits<char>,std::allocator<char> > const ,unsigned char> >,0> >::_Find_lower_bound<std::basic_string<char,std::char_traits<char>,std::allocator<char> > >

; 1459 :         if (_Lower_bound_duplicate(_Loc._Bound, _Keyval)) {

  00018	ff 75 08	 push	 DWORD PTR __Keyval$[ebp]
  0001b	ff 75 f0	 push	 DWORD PTR __Loc$[ebp+8]
  0001e	8b 4d fc	 mov	 ecx, DWORD PTR _this$[ebp]
  00021	e8 00 00 00 00	 call	 ??$_Lower_bound_duplicate@V?$basic_string@DU?$char_traits@D@std@@V?$allocator@D@2@@std@@@?$_Tree@V?$_Tmap_traits@V?$basic_string@DU?$char_traits@D@std@@V?$allocator@D@2@@std@@EU?$less@V?$basic_string@DU?$char_traits@D@std@@V?$allocator@D@2@@std@@@2@V?$allocator@U?$pair@$$CBV?$basic_string@DU?$char_traits@D@std@@V?$allocator@D@2@@std@@E@std@@@2@$0A@@std@@@std@@IBE_NQAU?$_Tree_node@U?$pair@$$CBV?$basic_string@DU?$char_traits@D@std@@V?$allocator@D@2@@std@@E@std@@PAX@1@ABV?$basic_string@DU?$char_traits@D@std@@V?$allocator@D@2@@1@@Z ; std::_Tree<std::_Tmap_traits<std::basic_string<char,std::char_traits<char>,std::allocator<char> >,unsigned char,std::less<std::basic_string<char,std::char_traits<char>,std::allocator<char> > >,std::allocator<std::pair<std::basic_string<char,std::char_traits<char>,std::allocator<char> > const ,unsigned char> >,0> >::_Lower_bound_duplicate<std::basic_string<char,std::char_traits<char>,std::allocator<char> > >
  00026	0f b6 c0	 movzx	 eax, al
  00029	85 c0		 test	 eax, eax
  0002b	74 05		 je	 SHORT $LN2@Find

; 1460 :             return _Loc._Bound;

  0002d	8b 45 f0	 mov	 eax, DWORD PTR __Loc$[ebp+8]
  00030	eb 11		 jmp	 SHORT $LN1@Find
$LN2@Find:

; 2051 :         return _STD addressof(_Mypair._Myval2._Myval2);

  00032	8b 45 fc	 mov	 eax, DWORD PTR _this$[ebp]
; File C:\Program Files (x86)\Microsoft Visual Studio\2019\Community\VC\Tools\MSVC\14.28.29333\include\xstddef

; 275  :     return __builtin_addressof(_Val);

  00035	89 45 f8	 mov	 DWORD PTR $T2[ebp], eax
; File C:\Program Files (x86)\Microsoft Visual Studio\2019\Community\VC\Tools\MSVC\14.28.29333\include\xtree

; 2051 :         return _STD addressof(_Mypair._Myval2._Myval2);

  00038	8b 45 f8	 mov	 eax, DWORD PTR $T2[ebp]
  0003b	89 45 f4	 mov	 DWORD PTR $T1[ebp], eax

; 1461 :         }
; 1462 : 
; 1463 :         return _Get_scary()->_Myhead;

  0003e	8b 45 f4	 mov	 eax, DWORD PTR $T1[ebp]
  00041	8b 00		 mov	 eax, DWORD PTR [eax]
$LN1@Find:

; 1464 :     }

  00043	c9		 leave
  00044	c2 04 00	 ret	 4
??$_Find@V?$basic_string@DU?$char_traits@D@std@@V?$allocator@D@2@@std@@@?$_Tree@V?$_Tmap_traits@V?$basic_string@DU?$char_traits@D@std@@V?$allocator@D@2@@std@@EU?$less@V?$basic_string@DU?$char_traits@D@std@@V?$allocator@D@2@@std@@@2@V?$allocator@U?$pair@$$CBV?$basic_string@DU?$char_traits@D@std@@V?$allocator@D@2@@std@@E@std@@@2@$0A@@std@@@std@@ABEPAU?$_Tree_node@U?$pair@$$CBV?$basic_string@DU?$char_traits@D@std@@V?$allocator@D@2@@std@@E@std@@PAX@1@ABV?$basic_string@DU?$char_traits@D@std@@V?$allocator@D@2@@1@@Z ENDP ; std::_Tree<std::_Tmap_traits<std::basic_string<char,std::char_traits<char>,std::allocator<char> >,unsigned char,std::less<std::basic_string<char,std::char_traits<char>,std::allocator<char> > >,std::allocator<std::pair<std::basic_string<char,std::char_traits<char>,std::allocator<char> > const ,unsigned char> >,0> >::_Find<std::basic_string<char,std::char_traits<char>,std::allocator<char> > >
_TEXT	ENDS
; Function compile flags: /Odspy
; File C:\Program Files (x86)\Microsoft Visual Studio\2019\Community\VC\Tools\MSVC\14.28.29333\include\map
; File C:\Program Files (x86)\Microsoft Visual Studio\2019\Community\VC\Tools\MSVC\14.28.29333\include\type_traits
; File C:\Program Files (x86)\Microsoft Visual Studio\2019\Community\VC\Tools\MSVC\14.28.29333\include\utility
; File C:\Program Files (x86)\Microsoft Visual Studio\2019\Community\VC\Tools\MSVC\14.28.29333\include\type_traits
; File C:\Program Files (x86)\Microsoft Visual Studio\2019\Community\VC\Tools\MSVC\14.28.29333\include\utility
; File C:\Program Files (x86)\Microsoft Visual Studio\2019\Community\VC\Tools\MSVC\14.28.29333\include\map
; File C:\Program Files (x86)\Microsoft Visual Studio\2019\Community\VC\Tools\MSVC\14.28.29333\include\xtree
; File C:\Program Files (x86)\Microsoft Visual Studio\2019\Community\VC\Tools\MSVC\14.28.29333\include\xstddef
; File C:\Program Files (x86)\Microsoft Visual Studio\2019\Community\VC\Tools\MSVC\14.28.29333\include\xtree
; File C:\Program Files (x86)\Microsoft Visual Studio\2019\Community\VC\Tools\MSVC\14.28.29333\include\tuple
; File C:\Program Files (x86)\Microsoft Visual Studio\2019\Community\VC\Tools\MSVC\14.28.29333\include\type_traits
; File C:\Program Files (x86)\Microsoft Visual Studio\2019\Community\VC\Tools\MSVC\14.28.29333\include\tuple
; File C:\Program Files (x86)\Microsoft Visual Studio\2019\Community\VC\Tools\MSVC\14.28.29333\include\type_traits
; File C:\Program Files (x86)\Microsoft Visual Studio\2019\Community\VC\Tools\MSVC\14.28.29333\include\tuple
; File C:\Program Files (x86)\Microsoft Visual Studio\2019\Community\VC\Tools\MSVC\14.28.29333\include\xtree
; File C:\Program Files (x86)\Microsoft Visual Studio\2019\Community\VC\Tools\MSVC\14.28.29333\include\xmemory
; File C:\Program Files (x86)\Microsoft Visual Studio\2019\Community\VC\Tools\MSVC\14.28.29333\include\xtree
; File C:\Program Files (x86)\Microsoft Visual Studio\2019\Community\VC\Tools\MSVC\14.28.29333\include\map
; File C:\Program Files (x86)\Microsoft Visual Studio\2019\Community\VC\Tools\MSVC\14.28.29333\include\xmemory
; File C:\Program Files (x86)\Microsoft Visual Studio\2019\Community\VC\Tools\MSVC\14.28.29333\include\utility
; File C:\Program Files (x86)\Microsoft Visual Studio\2019\Community\VC\Tools\MSVC\14.28.29333\include\xmemory
; File C:\Program Files (x86)\Microsoft Visual Studio\2019\Community\VC\Tools\MSVC\14.28.29333\include\map
; File C:\Program Files (x86)\Microsoft Visual Studio\2019\Community\VC\Tools\MSVC\14.28.29333\include\type_traits
; File C:\Program Files (x86)\Microsoft Visual Studio\2019\Community\VC\Tools\MSVC\14.28.29333\include\utility
; File C:\Program Files (x86)\Microsoft Visual Studio\2019\Community\VC\Tools\MSVC\14.28.29333\include\type_traits
; File C:\Program Files (x86)\Microsoft Visual Studio\2019\Community\VC\Tools\MSVC\14.28.29333\include\utility
; File C:\Program Files (x86)\Microsoft Visual Studio\2019\Community\VC\Tools\MSVC\14.28.29333\include\map
;	COMDAT ??$_Try_emplace@V?$basic_string@DU?$char_traits@D@std@@V?$allocator@D@2@@std@@$$V@?$map@V?$basic_string@DU?$char_traits@D@std@@V?$allocator@D@2@@std@@EU?$less@V?$basic_string@DU?$char_traits@D@std@@V?$allocator@D@2@@std@@@2@V?$allocator@U?$pair@$$CBV?$basic_string@DU?$char_traits@D@std@@V?$allocator@D@2@@std@@E@std@@@2@@std@@AAE?AU?$pair@PAU?$_Tree_node@U?$pair@$$CBV?$basic_string@DU?$char_traits@D@std@@V?$allocator@D@2@@std@@E@std@@PAX@std@@_N@1@$$QAV?$basic_string@DU?$char_traits@D@std@@V?$allocator@D@2@@1@@Z
_TEXT	SEGMENT
$T1 = -128						; size = 8
__Loc$ = -120						; size = 12
$T2 = -108						; size = 4
$T3 = -104						; size = 4
$T4 = -100						; size = 4
__Inserted$ = -96					; size = 4
$T5 = -92						; size = 4
__Old_val$6 = -88					; size = 4
$T7 = -84						; size = 4
$T8 = -80						; size = 4
$T9 = -76						; size = 4
$T10 = -72						; size = 4
$T11 = -68						; size = 4
$T12 = -64						; size = 4
$T13 = -60						; size = 4
$T14 = -56						; size = 4
_this$15 = -52						; size = 4
$T16 = -48						; size = 4
$T17 = -44						; size = 4
$T18 = -40						; size = 4
$T19 = -36						; size = 4
$T20 = -32						; size = 4
$T21 = -28						; size = 4
$T22 = -24						; size = 4
__Scary$ = -20						; size = 4
__Val$ = -16						; size = 4
$T23 = -9						; size = 1
_this$ = -8						; size = 4
$T24 = -2						; size = 1
$T25 = -1						; size = 1
___$ReturnUdt$ = 8					; size = 4
__Keyval$ = 12						; size = 4
??$_Try_emplace@V?$basic_string@DU?$char_traits@D@std@@V?$allocator@D@2@@std@@$$V@?$map@V?$basic_string@DU?$char_traits@D@std@@V?$allocator@D@2@@std@@EU?$less@V?$basic_string@DU?$char_traits@D@std@@V?$allocator@D@2@@std@@@2@V?$allocator@U?$pair@$$CBV?$basic_string@DU?$char_traits@D@std@@V?$allocator@D@2@@std@@E@std@@@2@@std@@AAE?AU?$pair@PAU?$_Tree_node@U?$pair@$$CBV?$basic_string@DU?$char_traits@D@std@@V?$allocator@D@2@@std@@E@std@@PAX@std@@_N@1@$$QAV?$basic_string@DU?$char_traits@D@std@@V?$allocator@D@2@@1@@Z PROC ; std::map<std::basic_string<char,std::char_traits<char>,std::allocator<char> >,unsigned char,std::less<std::basic_string<char,std::char_traits<char>,std::allocator<char> > >,std::allocator<std::pair<std::basic_string<char,std::char_traits<char>,std::allocator<char> > const ,unsigned char> > >::_Try_emplace<std::basic_string<char,std::char_traits<char>,std::allocator<char> > >, COMDAT
; _this$ = ecx

; 175  :     pair<_Nodeptr, bool> _Try_emplace(_Keyty&& _Keyval, _Mappedty&&... _Mapval) {

  00000	55		 push	 ebp
  00001	8b ec		 mov	 ebp, esp
  00003	81 ec 80 00 00
	00		 sub	 esp, 128		; 00000080H
  00009	89 4d f8	 mov	 DWORD PTR _this$[ebp], ecx

; 176  :         const auto _Loc = _Mybase::_Find_lower_bound(_Keyval);

  0000c	ff 75 0c	 push	 DWORD PTR __Keyval$[ebp]
  0000f	8d 45 88	 lea	 eax, DWORD PTR __Loc$[ebp]
  00012	50		 push	 eax
  00013	8b 4d f8	 mov	 ecx, DWORD PTR _this$[ebp]
  00016	e8 00 00 00 00	 call	 ??$_Find_lower_bound@V?$basic_string@DU?$char_traits@D@std@@V?$allocator@D@2@@std@@@?$_Tree@V?$_Tmap_traits@V?$basic_string@DU?$char_traits@D@std@@V?$allocator@D@2@@std@@EU?$less@V?$basic_string@DU?$char_traits@D@std@@V?$allocator@D@2@@std@@@2@V?$allocator@U?$pair@$$CBV?$basic_string@DU?$char_traits@D@std@@V?$allocator@D@2@@std@@E@std@@@2@$0A@@std@@@std@@IBE?AU?$_Tree_find_result@PAU?$_Tree_node@U?$pair@$$CBV?$basic_string@DU?$char_traits@D@std@@V?$allocator@D@2@@std@@E@std@@PAX@std@@@1@ABV?$basic_string@DU?$char_traits@D@std@@V?$allocator@D@2@@1@@Z ; std::_Tree<std::_Tmap_traits<std::basic_string<char,std::char_traits<char>,std::allocator<char> >,unsigned char,std::less<std::basic_string<char,std::char_traits<char>,std::allocator<char> > >,std::allocator<std::pair<std::basic_string<char,std::char_traits<char>,std::allocator<char> > const ,unsigned char> >,0> >::_Find_lower_bound<std::basic_string<char,std::char_traits<char>,std::allocator<char> > >

; 177  :         if (_Mybase::_Lower_bound_duplicate(_Loc._Bound, _Keyval)) {

  0001b	ff 75 0c	 push	 DWORD PTR __Keyval$[ebp]
  0001e	ff 75 90	 push	 DWORD PTR __Loc$[ebp+8]
  00021	8b 4d f8	 mov	 ecx, DWORD PTR _this$[ebp]
  00024	e8 00 00 00 00	 call	 ??$_Lower_bound_duplicate@V?$basic_string@DU?$char_traits@D@std@@V?$allocator@D@2@@std@@@?$_Tree@V?$_Tmap_traits@V?$basic_string@DU?$char_traits@D@std@@V?$allocator@D@2@@std@@EU?$less@V?$basic_string@DU?$char_traits@D@std@@V?$allocator@D@2@@std@@@2@V?$allocator@U?$pair@$$CBV?$basic_string@DU?$char_traits@D@std@@V?$allocator@D@2@@std@@E@std@@@2@$0A@@std@@@std@@IBE_NQAU?$_Tree_node@U?$pair@$$CBV?$basic_string@DU?$char_traits@D@std@@V?$allocator@D@2@@std@@E@std@@PAX@1@ABV?$basic_string@DU?$char_traits@D@std@@V?$allocator@D@2@@1@@Z ; std::_Tree<std::_Tmap_traits<std::basic_string<char,std::char_traits<char>,std::allocator<char> >,unsigned char,std::less<std::basic_string<char,std::char_traits<char>,std::allocator<char> > >,std::allocator<std::pair<std::basic_string<char,std::char_traits<char>,std::allocator<char> > const ,unsigned char> >,0> >::_Lower_bound_duplicate<std::basic_string<char,std::char_traits<char>,std::allocator<char> > >
  00029	0f b6 c0	 movzx	 eax, al
  0002c	85 c0		 test	 eax, eax
  0002e	74 2d		 je	 SHORT $LN2@Try_emplac

; 178  :             return {_Loc._Bound, false};

  00030	c6 45 ff 00	 mov	 BYTE PTR $T25[ebp], 0
; File C:\Program Files (x86)\Microsoft Visual Studio\2019\Community\VC\Tools\MSVC\14.28.29333\include\type_traits

; 1443 :     return static_cast<_Ty&&>(_Arg);

  00034	8d 45 90	 lea	 eax, DWORD PTR __Loc$[ebp+8]
  00037	89 45 e8	 mov	 DWORD PTR $T22[ebp], eax
; File C:\Program Files (x86)\Microsoft Visual Studio\2019\Community\VC\Tools\MSVC\14.28.29333\include\utility

; 190  :         : first(_STD forward<_Other1>(_Val1)), second(_STD forward<_Other2>(_Val2)) {}

  0003a	8b 45 08	 mov	 eax, DWORD PTR ___$ReturnUdt$[ebp]
  0003d	8b 4d e8	 mov	 ecx, DWORD PTR $T22[ebp]
  00040	8b 09		 mov	 ecx, DWORD PTR [ecx]
  00042	89 08		 mov	 DWORD PTR [eax], ecx
; File C:\Program Files (x86)\Microsoft Visual Studio\2019\Community\VC\Tools\MSVC\14.28.29333\include\type_traits

; 1443 :     return static_cast<_Ty&&>(_Arg);

  00044	8d 45 ff	 lea	 eax, DWORD PTR $T25[ebp]
  00047	89 45 e4	 mov	 DWORD PTR $T21[ebp], eax
; File C:\Program Files (x86)\Microsoft Visual Studio\2019\Community\VC\Tools\MSVC\14.28.29333\include\utility

; 190  :         : first(_STD forward<_Other1>(_Val1)), second(_STD forward<_Other2>(_Val2)) {}

  0004a	8b 45 08	 mov	 eax, DWORD PTR ___$ReturnUdt$[ebp]
  0004d	8b 4d e4	 mov	 ecx, DWORD PTR $T21[ebp]
  00050	8a 09		 mov	 cl, BYTE PTR [ecx]
  00052	88 48 04	 mov	 BYTE PTR [eax+4], cl
; File C:\Program Files (x86)\Microsoft Visual Studio\2019\Community\VC\Tools\MSVC\14.28.29333\include\map

; 178  :             return {_Loc._Bound, false};

  00055	8b 45 08	 mov	 eax, DWORD PTR ___$ReturnUdt$[ebp]
  00058	e9 e3 00 00 00	 jmp	 $LN1@Try_emplac
$LN2@Try_emplac:

; 179  :         }
; 180  : 
; 181  :         _Mybase::_Check_grow_by_1();

  0005d	8b 4d f8	 mov	 ecx, DWORD PTR _this$[ebp]
  00060	e8 00 00 00 00	 call	 ?_Check_grow_by_1@?$_Tree@V?$_Tmap_traits@V?$basic_string@DU?$char_traits@D@std@@V?$allocator@D@2@@std@@EU?$less@V?$basic_string@DU?$char_traits@D@std@@V?$allocator@D@2@@std@@@2@V?$allocator@U?$pair@$$CBV?$basic_string@DU?$char_traits@D@std@@V?$allocator@D@2@@std@@E@std@@@2@$0A@@std@@@std@@IAEXXZ ; std::_Tree<std::_Tmap_traits<std::basic_string<char,std::char_traits<char>,std::allocator<char> >,unsigned char,std::less<std::basic_string<char,std::char_traits<char>,std::allocator<char> > >,std::allocator<std::pair<std::basic_string<char,std::char_traits<char>,std::allocator<char> > const ,unsigned char> >,0> >::_Check_grow_by_1
; File C:\Program Files (x86)\Microsoft Visual Studio\2019\Community\VC\Tools\MSVC\14.28.29333\include\xtree

; 2047 :         return _STD addressof(_Mypair._Myval2._Myval2);

  00065	8b 45 f8	 mov	 eax, DWORD PTR _this$[ebp]
; File C:\Program Files (x86)\Microsoft Visual Studio\2019\Community\VC\Tools\MSVC\14.28.29333\include\xstddef

; 275  :     return __builtin_addressof(_Val);

  00068	89 45 e0	 mov	 DWORD PTR $T20[ebp], eax
; File C:\Program Files (x86)\Microsoft Visual Studio\2019\Community\VC\Tools\MSVC\14.28.29333\include\xtree

; 2047 :         return _STD addressof(_Mypair._Myval2._Myval2);

  0006b	8b 45 e0	 mov	 eax, DWORD PTR $T20[ebp]
  0006e	89 45 ec	 mov	 DWORD PTR __Scary$[ebp], eax
; File C:\Program Files (x86)\Microsoft Visual Studio\2019\Community\VC\Tools\MSVC\14.28.29333\include\tuple

; 854  :     return tuple<_Types&&...>(_STD forward<_Types>(_Args)...);

  00071	8d 45 f7	 lea	 eax, DWORD PTR $T23[ebp]
  00074	89 45 bc	 mov	 DWORD PTR $T11[ebp], eax
; File C:\Program Files (x86)\Microsoft Visual Studio\2019\Community\VC\Tools\MSVC\14.28.29333\include\type_traits

; 1443 :     return static_cast<_Ty&&>(_Arg);

  00077	8b 45 0c	 mov	 eax, DWORD PTR __Keyval$[ebp]
  0007a	89 45 dc	 mov	 DWORD PTR $T19[ebp], eax
  0007d	8b 45 dc	 mov	 eax, DWORD PTR $T19[ebp]
  00080	89 45 d8	 mov	 DWORD PTR $T18[ebp], eax
  00083	8b 45 d8	 mov	 eax, DWORD PTR $T18[ebp]
  00086	89 45 d4	 mov	 DWORD PTR $T17[ebp], eax
  00089	8b 45 d4	 mov	 eax, DWORD PTR $T17[ebp]
  0008c	89 45 d0	 mov	 DWORD PTR $T16[ebp], eax
; File C:\Program Files (x86)\Microsoft Visual Studio\2019\Community\VC\Tools\MSVC\14.28.29333\include\tuple

; 245  :         : _Mybase(_Exact_args_t{}, _STD forward<_Rest2>(_Rest_arg)...), _Myfirst(_STD forward<_This2>(_This_arg)) {}

  0008f	8d 45 c4	 lea	 eax, DWORD PTR $T13[ebp]
  00092	89 45 cc	 mov	 DWORD PTR _this$15[ebp], eax
; File C:\Program Files (x86)\Microsoft Visual Studio\2019\Community\VC\Tools\MSVC\14.28.29333\include\type_traits

; 1443 :     return static_cast<_Ty&&>(_Arg);

  00095	8b 45 d0	 mov	 eax, DWORD PTR $T16[ebp]
  00098	89 45 c8	 mov	 DWORD PTR $T14[ebp], eax
; File C:\Program Files (x86)\Microsoft Visual Studio\2019\Community\VC\Tools\MSVC\14.28.29333\include\tuple

; 163  :     constexpr _Tuple_val(_Other&& _Arg) : _Val(_STD forward<_Other>(_Arg)) {}

  0009b	8b 45 cc	 mov	 eax, DWORD PTR _this$15[ebp]
  0009e	8b 4d c8	 mov	 ecx, DWORD PTR $T14[ebp]
  000a1	89 08		 mov	 DWORD PTR [eax], ecx

; 854  :     return tuple<_Types&&...>(_STD forward<_Types>(_Args)...);

  000a3	8d 45 c4	 lea	 eax, DWORD PTR $T13[ebp]
  000a6	89 45 b8	 mov	 DWORD PTR $T10[ebp], eax
; File C:\Program Files (x86)\Microsoft Visual Studio\2019\Community\VC\Tools\MSVC\14.28.29333\include\xtree

; 2039 :         return _Mypair._Myval2._Get_first();

  000a9	8b 45 f8	 mov	 eax, DWORD PTR _this$[ebp]
; File C:\Program Files (x86)\Microsoft Visual Studio\2019\Community\VC\Tools\MSVC\14.28.29333\include\xmemory

; 1347 :         return *this;

  000ac	89 45 c0	 mov	 DWORD PTR $T12[ebp], eax
; File C:\Program Files (x86)\Microsoft Visual Studio\2019\Community\VC\Tools\MSVC\14.28.29333\include\xtree

; 2039 :         return _Mypair._Myval2._Get_first();

  000af	8b 45 c0	 mov	 eax, DWORD PTR $T12[ebp]
  000b2	89 45 b4	 mov	 DWORD PTR $T9[ebp], eax
; File C:\Program Files (x86)\Microsoft Visual Studio\2019\Community\VC\Tools\MSVC\14.28.29333\include\map

; 184  :         const auto _Inserted = _Tree_temp_node<_Alnode>(_Mybase::_Getal(), _Scary->_Myhead, piecewise_construct,

  000b5	ff 75 bc	 push	 DWORD PTR $T11[ebp]
  000b8	ff 75 b8	 push	 DWORD PTR $T10[ebp]
  000bb	68 00 00 00 00	 push	 OFFSET ?piecewise_construct@std@@3Upiecewise_construct_t@1@B
  000c0	8b 45 ec	 mov	 eax, DWORD PTR __Scary$[ebp]
  000c3	ff 30		 push	 DWORD PTR [eax]
  000c5	ff 75 b4	 push	 DWORD PTR $T9[ebp]
  000c8	8d 4d 80	 lea	 ecx, DWORD PTR $T1[ebp]
  000cb	e8 00 00 00 00	 call	 ??$?0ABUpiecewise_construct_t@std@@V?$tuple@$$QAV?$basic_string@DU?$char_traits@D@std@@V?$allocator@D@2@@std@@@1@V?$tuple@$$V@1@@?$_Tree_temp_node@V?$allocator@U?$_Tree_node@U?$pair@$$CBV?$basic_string@DU?$char_traits@D@std@@V?$allocator@D@2@@std@@E@std@@PAX@std@@@std@@@std@@QAE@AAV?$allocator@U?$_Tree_node@U?$pair@$$CBV?$basic_string@DU?$char_traits@D@std@@V?$allocator@D@2@@std@@E@std@@PAX@std@@@1@PAU?$_Tree_node@U?$pair@$$CBV?$basic_string@DU?$char_traits@D@std@@V?$allocator@D@2@@std@@E@std@@PAX@1@ABUpiecewise_construct_t@1@$$QAV?$tuple@$$QAV?$basic_string@DU?$char_traits@D@std@@V?$allocator@D@2@@std@@@1@$$QAV?$tuple@$$V@1@@Z ; std::_Tree_temp_node<std::allocator<std::_Tree_node<std::pair<std::basic_string<char,std::char_traits<char>,std::allocator<char> > const ,unsigned char>,void *> > >::_Tree_temp_node<std::allocator<std::_Tree_node<std::pair<std::basic_string<char,std::char_traits<char>,std::allocator<char> > const ,unsigned char>,void *> > ><std::piecewise_construct_t const &,std::tuple<std::basic_string<char,std::char_traits<char>,std::allocator<char> > &&>,std::tuple<> >
  000d0	89 45 b0	 mov	 DWORD PTR $T8[ebp], eax
; File C:\Program Files (x86)\Microsoft Visual Studio\2019\Community\VC\Tools\MSVC\14.28.29333\include\xmemory

; 1048 :         return _STD exchange(_Ptr, nullptr);

  000d3	83 65 ac 00	 and	 DWORD PTR $T7[ebp], 0
  000d7	8b 45 b0	 mov	 eax, DWORD PTR $T8[ebp]
  000da	83 c0 04	 add	 eax, 4
  000dd	89 45 f0	 mov	 DWORD PTR __Val$[ebp], eax
; File C:\Program Files (x86)\Microsoft Visual Studio\2019\Community\VC\Tools\MSVC\14.28.29333\include\utility

; 598  :     _Ty _Old_val = static_cast<_Ty&&>(_Val);

  000e0	8b 45 f0	 mov	 eax, DWORD PTR __Val$[ebp]
  000e3	8b 00		 mov	 eax, DWORD PTR [eax]
  000e5	89 45 a8	 mov	 DWORD PTR __Old_val$6[ebp], eax

; 599  :     _Val         = static_cast<_Other&&>(_New_val);

  000e8	8b 45 f0	 mov	 eax, DWORD PTR __Val$[ebp]
  000eb	8b 4d ac	 mov	 ecx, DWORD PTR $T7[ebp]
  000ee	89 08		 mov	 DWORD PTR [eax], ecx

; 600  :     return _Old_val;

  000f0	8b 45 a8	 mov	 eax, DWORD PTR __Old_val$6[ebp]
  000f3	89 45 a4	 mov	 DWORD PTR $T5[ebp], eax
; File C:\Program Files (x86)\Microsoft Visual Studio\2019\Community\VC\Tools\MSVC\14.28.29333\include\xmemory

; 1048 :         return _STD exchange(_Ptr, nullptr);

  000f6	8b 45 a4	 mov	 eax, DWORD PTR $T5[ebp]
  000f9	89 45 a0	 mov	 DWORD PTR __Inserted$[ebp], eax
; File C:\Program Files (x86)\Microsoft Visual Studio\2019\Community\VC\Tools\MSVC\14.28.29333\include\map

; 184  :         const auto _Inserted = _Tree_temp_node<_Alnode>(_Mybase::_Getal(), _Scary->_Myhead, piecewise_construct,

  000fc	8d 4d 80	 lea	 ecx, DWORD PTR $T1[ebp]
  000ff	e8 00 00 00 00	 call	 ??1?$_Tree_temp_node@V?$allocator@U?$_Tree_node@U?$pair@$$CBV?$basic_string@DU?$char_traits@D@std@@V?$allocator@D@2@@std@@E@std@@PAX@std@@@std@@@std@@QAE@XZ ; std::_Tree_temp_node<std::allocator<std::_Tree_node<std::pair<std::basic_string<char,std::char_traits<char>,std::allocator<char> > const ,unsigned char>,void *> > >::~_Tree_temp_node<std::allocator<std::_Tree_node<std::pair<std::basic_string<char,std::char_traits<char>,std::allocator<char> > const ,unsigned char>,void *> > >

; 190  :         return {_Scary->_Insert_node(_Loc._Location, _Inserted), true};

  00104	ff 75 a0	 push	 DWORD PTR __Inserted$[ebp]
  00107	ff 75 8c	 push	 DWORD PTR __Loc$[ebp+4]
  0010a	ff 75 88	 push	 DWORD PTR __Loc$[ebp]
  0010d	8b 4d ec	 mov	 ecx, DWORD PTR __Scary$[ebp]
  00110	e8 00 00 00 00	 call	 ?_Insert_node@?$_Tree_val@U?$_Tree_simple_types@U?$pair@$$CBV?$basic_string@DU?$char_traits@D@std@@V?$allocator@D@2@@std@@E@std@@@std@@@std@@QAEPAU?$_Tree_node@U?$pair@$$CBV?$basic_string@DU?$char_traits@D@std@@V?$allocator@D@2@@std@@E@std@@PAX@2@U?$_Tree_id@PAU?$_Tree_node@U?$pair@$$CBV?$basic_string@DU?$char_traits@D@std@@V?$allocator@D@2@@std@@E@std@@PAX@std@@@2@QAU32@@Z ; std::_Tree_val<std::_Tree_simple_types<std::pair<std::basic_string<char,std::char_traits<char>,std::allocator<char> > const ,unsigned char> > >::_Insert_node
  00115	89 45 9c	 mov	 DWORD PTR $T4[ebp], eax
  00118	c6 45 fe 01	 mov	 BYTE PTR $T24[ebp], 1
; File C:\Program Files (x86)\Microsoft Visual Studio\2019\Community\VC\Tools\MSVC\14.28.29333\include\type_traits

; 1443 :     return static_cast<_Ty&&>(_Arg);

  0011c	8d 45 9c	 lea	 eax, DWORD PTR $T4[ebp]
  0011f	89 45 98	 mov	 DWORD PTR $T3[ebp], eax
; File C:\Program Files (x86)\Microsoft Visual Studio\2019\Community\VC\Tools\MSVC\14.28.29333\include\utility

; 190  :         : first(_STD forward<_Other1>(_Val1)), second(_STD forward<_Other2>(_Val2)) {}

  00122	8b 45 08	 mov	 eax, DWORD PTR ___$ReturnUdt$[ebp]
  00125	8b 4d 98	 mov	 ecx, DWORD PTR $T3[ebp]
  00128	8b 09		 mov	 ecx, DWORD PTR [ecx]
  0012a	89 08		 mov	 DWORD PTR [eax], ecx
; File C:\Program Files (x86)\Microsoft Visual Studio\2019\Community\VC\Tools\MSVC\14.28.29333\include\type_traits

; 1443 :     return static_cast<_Ty&&>(_Arg);

  0012c	8d 45 fe	 lea	 eax, DWORD PTR $T24[ebp]
  0012f	89 45 94	 mov	 DWORD PTR $T2[ebp], eax
; File C:\Program Files (x86)\Microsoft Visual Studio\2019\Community\VC\Tools\MSVC\14.28.29333\include\utility

; 190  :         : first(_STD forward<_Other1>(_Val1)), second(_STD forward<_Other2>(_Val2)) {}

  00132	8b 45 08	 mov	 eax, DWORD PTR ___$ReturnUdt$[ebp]
  00135	8b 4d 94	 mov	 ecx, DWORD PTR $T2[ebp]
  00138	8a 09		 mov	 cl, BYTE PTR [ecx]
  0013a	88 48 04	 mov	 BYTE PTR [eax+4], cl
; File C:\Program Files (x86)\Microsoft Visual Studio\2019\Community\VC\Tools\MSVC\14.28.29333\include\map

; 190  :         return {_Scary->_Insert_node(_Loc._Location, _Inserted), true};

  0013d	8b 45 08	 mov	 eax, DWORD PTR ___$ReturnUdt$[ebp]
$LN1@Try_emplac:

; 191  :     }

  00140	c9		 leave
  00141	c2 08 00	 ret	 8
??$_Try_emplace@V?$basic_string@DU?$char_traits@D@std@@V?$allocator@D@2@@std@@$$V@?$map@V?$basic_string@DU?$char_traits@D@std@@V?$allocator@D@2@@std@@EU?$less@V?$basic_string@DU?$char_traits@D@std@@V?$allocator@D@2@@std@@@2@V?$allocator@U?$pair@$$CBV?$basic_string@DU?$char_traits@D@std@@V?$allocator@D@2@@std@@E@std@@@2@@std@@AAE?AU?$pair@PAU?$_Tree_node@U?$pair@$$CBV?$basic_string@DU?$char_traits@D@std@@V?$allocator@D@2@@std@@E@std@@PAX@std@@_N@1@$$QAV?$basic_string@DU?$char_traits@D@std@@V?$allocator@D@2@@1@@Z ENDP ; std::map<std::basic_string<char,std::char_traits<char>,std::allocator<char> >,unsigned char,std::less<std::basic_string<char,std::char_traits<char>,std::allocator<char> > >,std::allocator<std::pair<std::basic_string<char,std::char_traits<char>,std::allocator<char> > const ,unsigned char> > >::_Try_emplace<std::basic_string<char,std::char_traits<char>,std::allocator<char> > >
_TEXT	ENDS
; Function compile flags: /Odspy
; File D:\Metin2 Server Files\mainline\SRC_2014\Metin2Client\UserInterface\PythonMessenger.cpp
;	COMDAT ?messengerSetMessengerHandler@@YAPAU_object@@PAU1@0@Z
_TEXT	SEGMENT
_poEventHandler$ = -4					; size = 4
_poSelf$ = 8						; size = 4
_poArgs$ = 12						; size = 4
?messengerSetMessengerHandler@@YAPAU_object@@PAU1@0@Z PROC ; messengerSetMessengerHandler, COMDAT

; 146  : {

  00000	55		 push	 ebp
  00001	8b ec		 mov	 ebp, esp
  00003	51		 push	 ecx

; 147  : 	PyObject * poEventHandler;
; 148  : 	if (!PyTuple_GetObject(poArgs, 0, &poEventHandler))

  00004	8d 45 fc	 lea	 eax, DWORD PTR _poEventHandler$[ebp]
  00007	50		 push	 eax
  00008	6a 00		 push	 0
  0000a	ff 75 0c	 push	 DWORD PTR _poArgs$[ebp]
  0000d	e8 00 00 00 00	 call	 ?PyTuple_GetObject@@YA_NPAU_object@@HPAPAU1@@Z ; PyTuple_GetObject
  00012	83 c4 0c	 add	 esp, 12			; 0000000cH
  00015	0f b6 c0	 movzx	 eax, al
  00018	85 c0		 test	 eax, eax
  0001a	75 0a		 jne	 SHORT $LN4@messengerS

; 149  : 		return Py_BuildException();

  0001c	6a 00		 push	 0
  0001e	e8 00 00 00 00	 call	 ?Py_BuildException@@YAPAU_object@@PBDZZ ; Py_BuildException
  00023	59		 pop	 ecx
  00024	eb 13		 jmp	 SHORT $LN1@messengerS
$LN4@messengerS:

; 150  : 
; 151  : 	CPythonMessenger::Instance().SetMessengerHandler(poEventHandler);

  00026	ff 75 fc	 push	 DWORD PTR _poEventHandler$[ebp]
  00029	8b 0d 00 00 00
	00		 mov	 ecx, DWORD PTR ?ms_singleton@?$CSingleton@VCPythonMessenger@@@@0PAVCPythonMessenger@@A ; CSingleton<CPythonMessenger>::ms_singleton
  0002f	e8 00 00 00 00	 call	 ?SetMessengerHandler@CPythonMessenger@@QAEXPAU_object@@@Z ; CPythonMessenger::SetMessengerHandler

; 152  : 	return Py_BuildNone();

  00034	e8 00 00 00 00	 call	 ?Py_BuildNone@@YAPAU_object@@XZ ; Py_BuildNone
$LN1@messengerS:

; 153  : }

  00039	c9		 leave
  0003a	c3		 ret	 0
?messengerSetMessengerHandler@@YAPAU_object@@PAU1@0@Z ENDP ; messengerSetMessengerHandler
_TEXT	ENDS
; Function compile flags: /Odspy
; File D:\Metin2 Server Files\mainline\SRC_2014\Metin2Client\UserInterface\PythonMessenger.cpp
;	COMDAT ?messengerRefreshGuildMember@@YAPAU_object@@PAU1@0@Z
_TEXT	SEGMENT
_poSelf$ = 8						; size = 4
_poArgs$ = 12						; size = 4
?messengerRefreshGuildMember@@YAPAU_object@@PAU1@0@Z PROC ; messengerRefreshGuildMember, COMDAT

; 140  : {

  00000	55		 push	 ebp
  00001	8b ec		 mov	 ebp, esp

; 141  : 	CPythonMessenger::Instance().RefreshGuildMember();

  00003	8b 0d 00 00 00
	00		 mov	 ecx, DWORD PTR ?ms_singleton@?$CSingleton@VCPythonMessenger@@@@0PAVCPythonMessenger@@A ; CSingleton<CPythonMessenger>::ms_singleton
  00009	e8 00 00 00 00	 call	 ?RefreshGuildMember@CPythonMessenger@@QAEXXZ ; CPythonMessenger::RefreshGuildMember

; 142  : 	return Py_BuildNone();

  0000e	e8 00 00 00 00	 call	 ?Py_BuildNone@@YAPAU_object@@XZ ; Py_BuildNone

; 143  : }

  00013	5d		 pop	 ebp
  00014	c3		 ret	 0
?messengerRefreshGuildMember@@YAPAU_object@@PAU1@0@Z ENDP ; messengerRefreshGuildMember
_TEXT	ENDS
; Function compile flags: /Odspy
; File D:\Metin2 Server Files\mainline\SRC_2014\Metin2Client\UserInterface\PythonMessenger.cpp
;	COMDAT ?messengerDestroy@@YAPAU_object@@PAU1@0@Z
_TEXT	SEGMENT
_poSelf$ = 8						; size = 4
_poArgs$ = 12						; size = 4
?messengerDestroy@@YAPAU_object@@PAU1@0@Z PROC		; messengerDestroy, COMDAT

; 134  : {

  00000	55		 push	 ebp
  00001	8b ec		 mov	 ebp, esp

; 135  : 	CPythonMessenger::Instance().Destroy();

  00003	8b 0d 00 00 00
	00		 mov	 ecx, DWORD PTR ?ms_singleton@?$CSingleton@VCPythonMessenger@@@@0PAVCPythonMessenger@@A ; CSingleton<CPythonMessenger>::ms_singleton
  00009	e8 00 00 00 00	 call	 ?Destroy@CPythonMessenger@@QAEXXZ ; CPythonMessenger::Destroy

; 136  : 	return Py_BuildNone();

  0000e	e8 00 00 00 00	 call	 ?Py_BuildNone@@YAPAU_object@@XZ ; Py_BuildNone

; 137  : }

  00013	5d		 pop	 ebp
  00014	c3		 ret	 0
?messengerDestroy@@YAPAU_object@@PAU1@0@Z ENDP		; messengerDestroy
_TEXT	ENDS
; Function compile flags: /Odspy
; File D:\Metin2 Server Files\mainline\SRC_2014\Metin2Client\UserInterface\PythonMessenger.cpp
; File D:\Metin2 Server Files\mainline\SRC_2014\Metin2Client\eterBase\Singleton.h
; File D:\Metin2 Server Files\mainline\SRC_2014\Metin2Client\UserInterface\PythonMessenger.cpp
;	COMDAT ?messengerIsFriendByName@@YAPAU_object@@PAU1@0@Z
_TEXT	SEGMENT
$T1 = -8						; size = 4
_szName$ = -4						; size = 4
_poSelf$ = 8						; size = 4
_poArgs$ = 12						; size = 4
?messengerIsFriendByName@@YAPAU_object@@PAU1@0@Z PROC	; messengerIsFriendByName, COMDAT

; 125  : {

  00000	55		 push	 ebp
  00001	8b ec		 mov	 ebp, esp
  00003	51		 push	 ecx
  00004	51		 push	 ecx

; 126  : 	char * szName;
; 127  : 	if (!PyTuple_GetString(poArgs, 0, &szName))

  00005	8d 45 fc	 lea	 eax, DWORD PTR _szName$[ebp]
  00008	50		 push	 eax
  00009	6a 00		 push	 0
  0000b	ff 75 0c	 push	 DWORD PTR _poArgs$[ebp]
  0000e	e8 00 00 00 00	 call	 ?PyTuple_GetString@@YA_NPAU_object@@HPAPAD@Z ; PyTuple_GetString
  00013	83 c4 0c	 add	 esp, 12			; 0000000cH
  00016	0f b6 c0	 movzx	 eax, al
  00019	85 c0		 test	 eax, eax
  0001b	75 0a		 jne	 SHORT $LN2@messengerI

; 128  : 		return Py_BuildException();

  0001d	6a 00		 push	 0
  0001f	e8 00 00 00 00	 call	 ?Py_BuildException@@YAPAU_object@@PBDZZ ; Py_BuildException
  00024	59		 pop	 ecx
  00025	eb 21		 jmp	 SHORT $LN1@messengerI
$LN2@messengerI:
; File D:\Metin2 Server Files\mainline\SRC_2014\Metin2Client\eterBase\Singleton.h

; 27   : 		return (*ms_singleton);

  00027	a1 00 00 00 00	 mov	 eax, DWORD PTR ?ms_singleton@?$CSingleton@VCPythonMessenger@@@@0PAVCPythonMessenger@@A ; CSingleton<CPythonMessenger>::ms_singleton
  0002c	89 45 f8	 mov	 DWORD PTR $T1[ebp], eax
; File D:\Metin2 Server Files\mainline\SRC_2014\Metin2Client\UserInterface\PythonMessenger.cpp

; 130  : 	return Py_BuildValue("i", CPythonMessenger::Instance().IsFriendByName(szName));

  0002f	ff 75 fc	 push	 DWORD PTR _szName$[ebp]
  00032	8b 4d f8	 mov	 ecx, DWORD PTR $T1[ebp]
  00035	e8 00 00 00 00	 call	 ?IsFriendByName@CPythonMessenger@@QAEHPBD@Z ; CPythonMessenger::IsFriendByName
  0003a	50		 push	 eax
  0003b	68 00 00 00 00	 push	 OFFSET ??_C@_01KBJDNOO@i@
  00040	ff 15 00 00 00
	00		 call	 DWORD PTR __imp__Py_BuildValue
  00046	59		 pop	 ecx
  00047	59		 pop	 ecx
$LN1@messengerI:

; 131  : }

  00048	c9		 leave
  00049	c3		 ret	 0
?messengerIsFriendByName@@YAPAU_object@@PAU1@0@Z ENDP	; messengerIsFriendByName
_TEXT	ENDS
; Function compile flags: /Odspy
; File D:\Metin2 Server Files\mainline\SRC_2014\Metin2Client\UserInterface\PythonMessenger.cpp
;	COMDAT ?messengerRemoveFriend@@YAPAU_object@@PAU1@0@Z
_TEXT	SEGMENT
_szKey$ = -4						; size = 4
_poSelf$ = 8						; size = 4
_poArgs$ = 12						; size = 4
?messengerRemoveFriend@@YAPAU_object@@PAU1@0@Z PROC	; messengerRemoveFriend, COMDAT

; 115  : {

  00000	55		 push	 ebp
  00001	8b ec		 mov	 ebp, esp
  00003	51		 push	 ecx

; 116  : 	char * szKey;
; 117  : 	if (!PyTuple_GetString(poArgs, 0, &szKey))

  00004	8d 45 fc	 lea	 eax, DWORD PTR _szKey$[ebp]
  00007	50		 push	 eax
  00008	6a 00		 push	 0
  0000a	ff 75 0c	 push	 DWORD PTR _poArgs$[ebp]
  0000d	e8 00 00 00 00	 call	 ?PyTuple_GetString@@YA_NPAU_object@@HPAPAD@Z ; PyTuple_GetString
  00012	83 c4 0c	 add	 esp, 12			; 0000000cH
  00015	0f b6 c0	 movzx	 eax, al
  00018	85 c0		 test	 eax, eax
  0001a	75 0a		 jne	 SHORT $LN4@messengerR

; 118  : 		return Py_BuildException();

  0001c	6a 00		 push	 0
  0001e	e8 00 00 00 00	 call	 ?Py_BuildException@@YAPAU_object@@PBDZZ ; Py_BuildException
  00023	59		 pop	 ecx
  00024	eb 13		 jmp	 SHORT $LN1@messengerR
$LN4@messengerR:

; 119  : 
; 120  : 	CPythonMessenger::Instance().RemoveFriend(szKey);

  00026	ff 75 fc	 push	 DWORD PTR _szKey$[ebp]
  00029	8b 0d 00 00 00
	00		 mov	 ecx, DWORD PTR ?ms_singleton@?$CSingleton@VCPythonMessenger@@@@0PAVCPythonMessenger@@A ; CSingleton<CPythonMessenger>::ms_singleton
  0002f	e8 00 00 00 00	 call	 ?RemoveFriend@CPythonMessenger@@QAEXPBD@Z ; CPythonMessenger::RemoveFriend

; 121  : 	return Py_BuildNone();

  00034	e8 00 00 00 00	 call	 ?Py_BuildNone@@YAPAU_object@@XZ ; Py_BuildNone
$LN1@messengerR:

; 122  : }

  00039	c9		 leave
  0003a	c3		 ret	 0
?messengerRemoveFriend@@YAPAU_object@@PAU1@0@Z ENDP	; messengerRemoveFriend
_TEXT	ENDS
; Function compile flags: /Odspy
; File C:\Program Files (x86)\Microsoft Visual Studio\2019\Community\VC\Tools\MSVC\14.28.29333\include\xtree
; File C:\Program Files (x86)\Microsoft Visual Studio\2019\Community\VC\Tools\MSVC\14.28.29333\include\xstddef
; File C:\Program Files (x86)\Microsoft Visual Studio\2019\Community\VC\Tools\MSVC\14.28.29333\include\xtree
; File C:\Program Files (x86)\Microsoft Visual Studio\2019\Community\VC\Tools\MSVC\14.28.29333\include\xmemory
; File C:\Program Files (x86)\Microsoft Visual Studio\2019\Community\VC\Tools\MSVC\14.28.29333\include\xtree
; File C:\Program Files (x86)\Microsoft Visual Studio\2019\Community\VC\Tools\MSVC\14.28.29333\include\map
; File C:\Program Files (x86)\Microsoft Visual Studio\2019\Community\VC\Tools\MSVC\14.28.29333\include\xtree
; File C:\Program Files (x86)\Microsoft Visual Studio\2019\Community\VC\Tools\MSVC\14.28.29333\include\xstddef
; File C:\Program Files (x86)\Microsoft Visual Studio\2019\Community\VC\Tools\MSVC\14.28.29333\include\xtree
; File C:\Program Files (x86)\Microsoft Visual Studio\2019\Community\VC\Tools\MSVC\14.28.29333\include\xstddef
; File C:\Program Files (x86)\Microsoft Visual Studio\2019\Community\VC\Tools\MSVC\14.28.29333\include\xtree
; File C:\Program Files (x86)\Microsoft Visual Studio\2019\Community\VC\Tools\MSVC\14.28.29333\include\xmemory
; File C:\Program Files (x86)\Microsoft Visual Studio\2019\Community\VC\Tools\MSVC\14.28.29333\include\xtree
; File C:\Program Files (x86)\Microsoft Visual Studio\2019\Community\VC\Tools\MSVC\14.28.29333\include\map
; File C:\Program Files (x86)\Microsoft Visual Studio\2019\Community\VC\Tools\MSVC\14.28.29333\include\xstddef
; File C:\Program Files (x86)\Microsoft Visual Studio\2019\Community\VC\Tools\MSVC\14.28.29333\include\xtree
; File C:\Program Files (x86)\Microsoft Visual Studio\2019\Community\VC\Tools\MSVC\14.28.29333\include\type_traits
; File C:\Program Files (x86)\Microsoft Visual Studio\2019\Community\VC\Tools\MSVC\14.28.29333\include\utility
; File C:\Program Files (x86)\Microsoft Visual Studio\2019\Community\VC\Tools\MSVC\14.28.29333\include\type_traits
; File C:\Program Files (x86)\Microsoft Visual Studio\2019\Community\VC\Tools\MSVC\14.28.29333\include\utility
; File C:\Program Files (x86)\Microsoft Visual Studio\2019\Community\VC\Tools\MSVC\14.28.29333\include\xtree
;	COMDAT ??$_Eqrange@V?$basic_string@DU?$char_traits@D@std@@V?$allocator@D@2@@std@@@?$_Tree@V?$_Tmap_traits@V?$basic_string@DU?$char_traits@D@std@@V?$allocator@D@2@@std@@EU?$less@V?$basic_string@DU?$char_traits@D@std@@V?$allocator@D@2@@std@@@2@V?$allocator@U?$pair@$$CBV?$basic_string@DU?$char_traits@D@std@@V?$allocator@D@2@@std@@E@std@@@2@$0A@@std@@@std@@IBE?AU?$pair@PAU?$_Tree_node@U?$pair@$$CBV?$basic_string@DU?$char_traits@D@std@@V?$allocator@D@2@@std@@E@std@@PAX@std@@PAU12@@1@ABV?$basic_string@DU?$char_traits@D@std@@V?$allocator@D@2@@1@@Z
_TEXT	SEGMENT
$T1 = -56						; size = 4
__Comp$ = -52						; size = 4
$T2 = -48						; size = 4
$T3 = -44						; size = 4
$T4 = -40						; size = 4
$T5 = -36						; size = 4
$T6 = -32						; size = 4
__Lonode$ = -28						; size = 4
tv133 = -24						; size = 4
__Nodekey$7 = -20					; size = 4
_this$ = -16						; size = 4
__Scary$ = -12						; size = 4
__Hinode$ = -8						; size = 4
__Pnode$ = -4						; size = 4
___$ReturnUdt$ = 8					; size = 4
__Keyval$ = 12						; size = 4
??$_Eqrange@V?$basic_string@DU?$char_traits@D@std@@V?$allocator@D@2@@std@@@?$_Tree@V?$_Tmap_traits@V?$basic_string@DU?$char_traits@D@std@@V?$allocator@D@2@@std@@EU?$less@V?$basic_string@DU?$char_traits@D@std@@V?$allocator@D@2@@std@@@2@V?$allocator@U?$pair@$$CBV?$basic_string@DU?$char_traits@D@std@@V?$allocator@D@2@@std@@E@std@@@2@$0A@@std@@@std@@IBE?AU?$pair@PAU?$_Tree_node@U?$pair@$$CBV?$basic_string@DU?$char_traits@D@std@@V?$allocator@D@2@@std@@E@std@@PAX@std@@PAU12@@1@ABV?$basic_string@DU?$char_traits@D@std@@V?$allocator@D@2@@1@@Z PROC ; std::_Tree<std::_Tmap_traits<std::basic_string<char,std::char_traits<char>,std::allocator<char> >,unsigned char,std::less<std::basic_string<char,std::char_traits<char>,std::allocator<char> > >,std::allocator<std::pair<std::basic_string<char,std::char_traits<char>,std::allocator<char> > const ,unsigned char> >,0> >::_Eqrange<std::basic_string<char,std::char_traits<char>,std::allocator<char> > >, COMDAT
; _this$ = ecx

; 1783 :         noexcept(_Nothrow_compare<key_compare, key_type, _Other>&& _Nothrow_compare<key_compare, _Other, key_type>) {

  00000	55		 push	 ebp
  00001	8b ec		 mov	 ebp, esp
  00003	83 ec 38	 sub	 esp, 56			; 00000038H
  00006	89 4d f0	 mov	 DWORD PTR _this$[ebp], ecx

; 2051 :         return _STD addressof(_Mypair._Myval2._Myval2);

  00009	8b 45 f0	 mov	 eax, DWORD PTR _this$[ebp]
; File C:\Program Files (x86)\Microsoft Visual Studio\2019\Community\VC\Tools\MSVC\14.28.29333\include\xstddef

; 275  :     return __builtin_addressof(_Val);

  0000c	89 45 e0	 mov	 DWORD PTR $T6[ebp], eax
; File C:\Program Files (x86)\Microsoft Visual Studio\2019\Community\VC\Tools\MSVC\14.28.29333\include\xtree

; 2051 :         return _STD addressof(_Mypair._Myval2._Myval2);

  0000f	8b 45 e0	 mov	 eax, DWORD PTR $T6[ebp]
  00012	89 45 f4	 mov	 DWORD PTR __Scary$[ebp], eax

; 2035 :         return _Mypair._Get_first();

  00015	8b 45 f0	 mov	 eax, DWORD PTR _this$[ebp]
; File C:\Program Files (x86)\Microsoft Visual Studio\2019\Community\VC\Tools\MSVC\14.28.29333\include\xmemory

; 1351 :         return *this;

  00018	89 45 dc	 mov	 DWORD PTR $T5[ebp], eax
; File C:\Program Files (x86)\Microsoft Visual Studio\2019\Community\VC\Tools\MSVC\14.28.29333\include\xtree

; 2035 :         return _Mypair._Get_first();

  0001b	8b 45 dc	 mov	 eax, DWORD PTR $T5[ebp]
  0001e	89 45 cc	 mov	 DWORD PTR __Comp$[ebp], eax

; 1784 :         // find range of nodes equivalent to _Keyval
; 1785 :         const auto _Scary = _Get_scary();
; 1786 :         const auto& _Comp = _Getcomp();
; 1787 :         _Nodeptr _Pnode   = _Scary->_Myhead->_Parent;

  00021	8b 45 f4	 mov	 eax, DWORD PTR __Scary$[ebp]
  00024	8b 00		 mov	 eax, DWORD PTR [eax]
  00026	8b 40 04	 mov	 eax, DWORD PTR [eax+4]
  00029	89 45 fc	 mov	 DWORD PTR __Pnode$[ebp], eax

; 1788 :         _Nodeptr _Lonode  = _Scary->_Myhead; // end() if search fails

  0002c	8b 45 f4	 mov	 eax, DWORD PTR __Scary$[ebp]
  0002f	8b 00		 mov	 eax, DWORD PTR [eax]
  00031	89 45 e4	 mov	 DWORD PTR __Lonode$[ebp], eax

; 1789 :         _Nodeptr _Hinode  = _Scary->_Myhead; // end() if search fails

  00034	8b 45 f4	 mov	 eax, DWORD PTR __Scary$[ebp]
  00037	8b 00		 mov	 eax, DWORD PTR [eax]
  00039	89 45 f8	 mov	 DWORD PTR __Hinode$[ebp], eax
$LN2@Eqrange:

; 1790 : 
; 1791 :         while (!_Pnode->_Isnil) {

  0003c	8b 45 fc	 mov	 eax, DWORD PTR __Pnode$[ebp]
  0003f	0f be 40 0d	 movsx	 eax, BYTE PTR [eax+13]
  00043	85 c0		 test	 eax, eax
  00045	75 5d		 jne	 SHORT $LN3@Eqrange
; File C:\Program Files (x86)\Microsoft Visual Studio\2019\Community\VC\Tools\MSVC\14.28.29333\include\map

; 69   :         return _Val.first;

  00047	8b 45 fc	 mov	 eax, DWORD PTR __Pnode$[ebp]
  0004a	83 c0 10	 add	 eax, 16			; 00000010H
; File C:\Program Files (x86)\Microsoft Visual Studio\2019\Community\VC\Tools\MSVC\14.28.29333\include\xtree

; 1792 :             const auto& _Nodekey = _Traits::_Kfn(_Pnode->_Myval);

  0004d	89 45 ec	 mov	 DWORD PTR __Nodekey$7[ebp], eax
; File C:\Program Files (x86)\Microsoft Visual Studio\2019\Community\VC\Tools\MSVC\14.28.29333\include\xstddef

; 127  :         return _Left < _Right;

  00050	ff 75 0c	 push	 DWORD PTR __Keyval$[ebp]
  00053	ff 75 ec	 push	 DWORD PTR __Nodekey$7[ebp]
  00056	e8 00 00 00 00	 call	 ??$?MDU?$char_traits@D@std@@V?$allocator@D@1@@std@@YA_NABV?$basic_string@DU?$char_traits@D@std@@V?$allocator@D@2@@0@0@Z ; std::operator<<char,std::char_traits<char>,std::allocator<char> >
  0005b	59		 pop	 ecx
  0005c	59		 pop	 ecx
; File C:\Program Files (x86)\Microsoft Visual Studio\2019\Community\VC\Tools\MSVC\14.28.29333\include\xtree

; 1793 :             if (_DEBUG_LT_PRED(_Comp, _Nodekey, _Keyval)) {

  0005d	0f b6 c0	 movzx	 eax, al
  00060	85 c0		 test	 eax, eax
  00062	74 0b		 je	 SHORT $LN6@Eqrange

; 1794 :                 _Pnode = _Pnode->_Right; // descend right subtree

  00064	8b 45 fc	 mov	 eax, DWORD PTR __Pnode$[ebp]
  00067	8b 40 08	 mov	 eax, DWORD PTR [eax+8]
  0006a	89 45 fc	 mov	 DWORD PTR __Pnode$[ebp], eax

; 1795 :             } else { // _Pnode not less than _Keyval, remember it

  0006d	eb 33		 jmp	 SHORT $LN7@Eqrange
$LN6@Eqrange:

; 1796 :                 if (_Hinode->_Isnil && _DEBUG_LT_PRED(_Comp, _Keyval, _Nodekey)) {

  0006f	8b 45 f8	 mov	 eax, DWORD PTR __Hinode$[ebp]
  00072	0f be 40 0d	 movsx	 eax, BYTE PTR [eax+13]
  00076	85 c0		 test	 eax, eax
  00078	74 1a		 je	 SHORT $LN8@Eqrange
; File C:\Program Files (x86)\Microsoft Visual Studio\2019\Community\VC\Tools\MSVC\14.28.29333\include\xstddef

; 127  :         return _Left < _Right;

  0007a	ff 75 ec	 push	 DWORD PTR __Nodekey$7[ebp]
  0007d	ff 75 0c	 push	 DWORD PTR __Keyval$[ebp]
  00080	e8 00 00 00 00	 call	 ??$?MDU?$char_traits@D@std@@V?$allocator@D@1@@std@@YA_NABV?$basic_string@DU?$char_traits@D@std@@V?$allocator@D@2@@0@0@Z ; std::operator<<char,std::char_traits<char>,std::allocator<char> >
  00085	59		 pop	 ecx
  00086	59		 pop	 ecx
; File C:\Program Files (x86)\Microsoft Visual Studio\2019\Community\VC\Tools\MSVC\14.28.29333\include\xtree

; 1796 :                 if (_Hinode->_Isnil && _DEBUG_LT_PRED(_Comp, _Keyval, _Nodekey)) {

  00087	0f b6 c0	 movzx	 eax, al
  0008a	85 c0		 test	 eax, eax
  0008c	74 06		 je	 SHORT $LN8@Eqrange

; 1797 :                     _Hinode = _Pnode; // _Pnode greater, remember it

  0008e	8b 45 fc	 mov	 eax, DWORD PTR __Pnode$[ebp]
  00091	89 45 f8	 mov	 DWORD PTR __Hinode$[ebp], eax
$LN8@Eqrange:

; 1798 :                 }
; 1799 : 
; 1800 :                 _Lonode = _Pnode;

  00094	8b 45 fc	 mov	 eax, DWORD PTR __Pnode$[ebp]
  00097	89 45 e4	 mov	 DWORD PTR __Lonode$[ebp], eax

; 1801 :                 _Pnode  = _Pnode->_Left; // descend left subtree

  0009a	8b 45 fc	 mov	 eax, DWORD PTR __Pnode$[ebp]
  0009d	8b 00		 mov	 eax, DWORD PTR [eax]
  0009f	89 45 fc	 mov	 DWORD PTR __Pnode$[ebp], eax
$LN7@Eqrange:

; 1802 :             }
; 1803 :         }

  000a2	eb 98		 jmp	 SHORT $LN2@Eqrange
$LN3@Eqrange:

; 1804 : 
; 1805 :         _Pnode = _Hinode->_Isnil ? _Scary->_Myhead->_Parent : _Hinode->_Left; // continue scan for upper bound

  000a4	8b 45 f8	 mov	 eax, DWORD PTR __Hinode$[ebp]
  000a7	0f be 40 0d	 movsx	 eax, BYTE PTR [eax+13]
  000ab	85 c0		 test	 eax, eax
  000ad	74 0d		 je	 SHORT $LN12@Eqrange
  000af	8b 45 f4	 mov	 eax, DWORD PTR __Scary$[ebp]
  000b2	8b 00		 mov	 eax, DWORD PTR [eax]
  000b4	8b 40 04	 mov	 eax, DWORD PTR [eax+4]
  000b7	89 45 e8	 mov	 DWORD PTR tv133[ebp], eax
  000ba	eb 08		 jmp	 SHORT $LN13@Eqrange
$LN12@Eqrange:
  000bc	8b 45 f8	 mov	 eax, DWORD PTR __Hinode$[ebp]
  000bf	8b 00		 mov	 eax, DWORD PTR [eax]
  000c1	89 45 e8	 mov	 DWORD PTR tv133[ebp], eax
$LN13@Eqrange:
  000c4	8b 45 e8	 mov	 eax, DWORD PTR tv133[ebp]
  000c7	89 45 fc	 mov	 DWORD PTR __Pnode$[ebp], eax
$LN4@Eqrange:

; 1806 :         while (!_Pnode->_Isnil) {

  000ca	8b 45 fc	 mov	 eax, DWORD PTR __Pnode$[ebp]
  000cd	0f be 40 0d	 movsx	 eax, BYTE PTR [eax+13]
  000d1	85 c0		 test	 eax, eax
  000d3	75 3f		 jne	 SHORT $LN5@Eqrange

; 2035 :         return _Mypair._Get_first();

  000d5	8b 45 f0	 mov	 eax, DWORD PTR _this$[ebp]
; File C:\Program Files (x86)\Microsoft Visual Studio\2019\Community\VC\Tools\MSVC\14.28.29333\include\xmemory

; 1351 :         return *this;

  000d8	89 45 d8	 mov	 DWORD PTR $T4[ebp], eax
; File C:\Program Files (x86)\Microsoft Visual Studio\2019\Community\VC\Tools\MSVC\14.28.29333\include\xtree

; 2035 :         return _Mypair._Get_first();

  000db	8b 45 d8	 mov	 eax, DWORD PTR $T4[ebp]
  000de	89 45 c8	 mov	 DWORD PTR $T1[ebp], eax
; File C:\Program Files (x86)\Microsoft Visual Studio\2019\Community\VC\Tools\MSVC\14.28.29333\include\map

; 69   :         return _Val.first;

  000e1	8b 45 fc	 mov	 eax, DWORD PTR __Pnode$[ebp]
  000e4	83 c0 10	 add	 eax, 16			; 00000010H
; File C:\Program Files (x86)\Microsoft Visual Studio\2019\Community\VC\Tools\MSVC\14.28.29333\include\xstddef

; 127  :         return _Left < _Right;

  000e7	50		 push	 eax
  000e8	ff 75 0c	 push	 DWORD PTR __Keyval$[ebp]
  000eb	e8 00 00 00 00	 call	 ??$?MDU?$char_traits@D@std@@V?$allocator@D@1@@std@@YA_NABV?$basic_string@DU?$char_traits@D@std@@V?$allocator@D@2@@0@0@Z ; std::operator<<char,std::char_traits<char>,std::allocator<char> >
  000f0	59		 pop	 ecx
  000f1	59		 pop	 ecx
; File C:\Program Files (x86)\Microsoft Visual Studio\2019\Community\VC\Tools\MSVC\14.28.29333\include\xtree

; 1807 :             if (_DEBUG_LT_PRED(_Getcomp(), _Keyval, _Traits::_Kfn(_Pnode->_Myval))) {

  000f2	0f b6 c0	 movzx	 eax, al
  000f5	85 c0		 test	 eax, eax
  000f7	74 10		 je	 SHORT $LN9@Eqrange

; 1808 :                 // _Pnode greater than _Keyval, remember it
; 1809 :                 _Hinode = _Pnode;

  000f9	8b 45 fc	 mov	 eax, DWORD PTR __Pnode$[ebp]
  000fc	89 45 f8	 mov	 DWORD PTR __Hinode$[ebp], eax

; 1810 :                 _Pnode  = _Pnode->_Left; // descend left subtree

  000ff	8b 45 fc	 mov	 eax, DWORD PTR __Pnode$[ebp]
  00102	8b 00		 mov	 eax, DWORD PTR [eax]
  00104	89 45 fc	 mov	 DWORD PTR __Pnode$[ebp], eax

; 1811 :             } else {

  00107	eb 09		 jmp	 SHORT $LN10@Eqrange
$LN9@Eqrange:

; 1812 :                 _Pnode = _Pnode->_Right; // descend right subtree

  00109	8b 45 fc	 mov	 eax, DWORD PTR __Pnode$[ebp]
  0010c	8b 40 08	 mov	 eax, DWORD PTR [eax+8]
  0010f	89 45 fc	 mov	 DWORD PTR __Pnode$[ebp], eax
$LN10@Eqrange:

; 1813 :             }
; 1814 :         }

  00112	eb b6		 jmp	 SHORT $LN4@Eqrange
$LN5@Eqrange:
; File C:\Program Files (x86)\Microsoft Visual Studio\2019\Community\VC\Tools\MSVC\14.28.29333\include\type_traits

; 1443 :     return static_cast<_Ty&&>(_Arg);

  00114	8d 45 e4	 lea	 eax, DWORD PTR __Lonode$[ebp]
  00117	89 45 d4	 mov	 DWORD PTR $T3[ebp], eax
; File C:\Program Files (x86)\Microsoft Visual Studio\2019\Community\VC\Tools\MSVC\14.28.29333\include\utility

; 190  :         : first(_STD forward<_Other1>(_Val1)), second(_STD forward<_Other2>(_Val2)) {}

  0011a	8b 45 08	 mov	 eax, DWORD PTR ___$ReturnUdt$[ebp]
  0011d	8b 4d d4	 mov	 ecx, DWORD PTR $T3[ebp]
  00120	8b 09		 mov	 ecx, DWORD PTR [ecx]
  00122	89 08		 mov	 DWORD PTR [eax], ecx
; File C:\Program Files (x86)\Microsoft Visual Studio\2019\Community\VC\Tools\MSVC\14.28.29333\include\type_traits

; 1443 :     return static_cast<_Ty&&>(_Arg);

  00124	8d 45 f8	 lea	 eax, DWORD PTR __Hinode$[ebp]
  00127	89 45 d0	 mov	 DWORD PTR $T2[ebp], eax
; File C:\Program Files (x86)\Microsoft Visual Studio\2019\Community\VC\Tools\MSVC\14.28.29333\include\utility

; 190  :         : first(_STD forward<_Other1>(_Val1)), second(_STD forward<_Other2>(_Val2)) {}

  0012a	8b 45 08	 mov	 eax, DWORD PTR ___$ReturnUdt$[ebp]
  0012d	8b 4d d0	 mov	 ecx, DWORD PTR $T2[ebp]
  00130	8b 09		 mov	 ecx, DWORD PTR [ecx]
  00132	89 48 04	 mov	 DWORD PTR [eax+4], ecx
; File C:\Program Files (x86)\Microsoft Visual Studio\2019\Community\VC\Tools\MSVC\14.28.29333\include\xtree

; 1816 :         return {_Lonode, _Hinode};

  00135	8b 45 08	 mov	 eax, DWORD PTR ___$ReturnUdt$[ebp]

; 1817 :     }

  00138	c9		 leave
  00139	c2 08 00	 ret	 8
??$_Eqrange@V?$basic_string@DU?$char_traits@D@std@@V?$allocator@D@2@@std@@@?$_Tree@V?$_Tmap_traits@V?$basic_string@DU?$char_traits@D@std@@V?$allocator@D@2@@std@@EU?$less@V?$basic_string@DU?$char_traits@D@std@@V?$allocator@D@2@@std@@@2@V?$allocator@U?$pair@$$CBV?$basic_string@DU?$char_traits@D@std@@V?$allocator@D@2@@std@@E@std@@@2@$0A@@std@@@std@@IBE?AU?$pair@PAU?$_Tree_node@U?$pair@$$CBV?$basic_string@DU?$char_traits@D@std@@V?$allocator@D@2@@std@@E@std@@PAX@std@@PAU12@@1@ABV?$basic_string@DU?$char_traits@D@std@@V?$allocator@D@2@@1@@Z ENDP ; std::_Tree<std::_Tmap_traits<std::basic_string<char,std::char_traits<char>,std::allocator<char> >,unsigned char,std::less<std::basic_string<char,std::char_traits<char>,std::allocator<char> > >,std::allocator<std::pair<std::basic_string<char,std::char_traits<char>,std::allocator<char> > const ,unsigned char> >,0> >::_Eqrange<std::basic_string<char,std::char_traits<char>,std::allocator<char> > >
_TEXT	ENDS
; Function compile flags: /Odspy
; File C:\Program Files (x86)\Microsoft Visual Studio\2019\Community\VC\Tools\MSVC\14.28.29333\include\xtree
;	COMDAT ??E?$_Tree_unchecked_const_iterator@V?$_Tree_val@U?$_Tree_simple_types@U?$pair@$$CBV?$basic_string@DU?$char_traits@D@std@@V?$allocator@D@2@@std@@E@std@@@std@@@std@@U_Iterator_base0@2@@std@@QAEAAV01@XZ
_TEXT	SEGMENT
$T1 = -16						; size = 4
__Pnode$ = -12						; size = 4
__Pnode$2 = -8						; size = 4
_this$ = -4						; size = 4
??E?$_Tree_unchecked_const_iterator@V?$_Tree_val@U?$_Tree_simple_types@U?$pair@$$CBV?$basic_string@DU?$char_traits@D@std@@V?$allocator@D@2@@std@@E@std@@@std@@@std@@U_Iterator_base0@2@@std@@QAEAAV01@XZ PROC ; std::_Tree_unchecked_const_iterator<std::_Tree_val<std::_Tree_simple_types<std::pair<std::basic_string<char,std::char_traits<char>,std::allocator<char> > const ,unsigned char> > >,std::_Iterator_base0>::operator++, COMDAT
; _this$ = ecx

; 51   :     _Tree_unchecked_const_iterator& operator++() noexcept {

  00000	55		 push	 ebp
  00001	8b ec		 mov	 ebp, esp
  00003	83 ec 10	 sub	 esp, 16			; 00000010H
  00006	89 4d fc	 mov	 DWORD PTR _this$[ebp], ecx

; 52   :         if (_Ptr->_Right->_Isnil) { // climb looking for right subtree

  00009	8b 45 fc	 mov	 eax, DWORD PTR _this$[ebp]
  0000c	8b 00		 mov	 eax, DWORD PTR [eax]
  0000e	8b 40 08	 mov	 eax, DWORD PTR [eax+8]
  00011	0f be 40 0d	 movsx	 eax, BYTE PTR [eax+13]
  00015	85 c0		 test	 eax, eax
  00017	74 37		 je	 SHORT $LN4@operator
$LN2@operator:

; 53   :             _Nodeptr _Pnode;
; 54   :             while (!(_Pnode = _Ptr->_Parent)->_Isnil && _Ptr == _Pnode->_Right) {

  00019	8b 45 fc	 mov	 eax, DWORD PTR _this$[ebp]
  0001c	8b 00		 mov	 eax, DWORD PTR [eax]
  0001e	8b 40 04	 mov	 eax, DWORD PTR [eax+4]
  00021	89 45 f8	 mov	 DWORD PTR __Pnode$2[ebp], eax
  00024	8b 45 f8	 mov	 eax, DWORD PTR __Pnode$2[ebp]
  00027	0f be 40 0d	 movsx	 eax, BYTE PTR [eax+13]
  0002b	85 c0		 test	 eax, eax
  0002d	75 17		 jne	 SHORT $LN3@operator
  0002f	8b 45 fc	 mov	 eax, DWORD PTR _this$[ebp]
  00032	8b 4d f8	 mov	 ecx, DWORD PTR __Pnode$2[ebp]
  00035	8b 00		 mov	 eax, DWORD PTR [eax]
  00037	3b 41 08	 cmp	 eax, DWORD PTR [ecx+8]
  0003a	75 0a		 jne	 SHORT $LN3@operator

; 55   :                 _Ptr = _Pnode; // ==> parent while right subtree

  0003c	8b 45 fc	 mov	 eax, DWORD PTR _this$[ebp]
  0003f	8b 4d f8	 mov	 ecx, DWORD PTR __Pnode$2[ebp]
  00042	89 08		 mov	 DWORD PTR [eax], ecx

; 56   :             }

  00044	eb d3		 jmp	 SHORT $LN2@operator
$LN3@operator:

; 57   : 
; 58   :             _Ptr = _Pnode; // ==> parent (head if end())

  00046	8b 45 fc	 mov	 eax, DWORD PTR _this$[ebp]
  00049	8b 4d f8	 mov	 ecx, DWORD PTR __Pnode$2[ebp]
  0004c	89 08		 mov	 DWORD PTR [eax], ecx

; 59   :         } else {

  0004e	eb 30		 jmp	 SHORT $LN5@operator
$LN4@operator:

; 60   :             _Ptr = _Mytree::_Min(_Ptr->_Right); // ==> smallest of right subtree

  00050	8b 45 fc	 mov	 eax, DWORD PTR _this$[ebp]
  00053	8b 00		 mov	 eax, DWORD PTR [eax]
  00055	8b 40 08	 mov	 eax, DWORD PTR [eax+8]
  00058	89 45 f4	 mov	 DWORD PTR __Pnode$[ebp], eax
$LN8@operator:

; 451  :         while (!_Pnode->_Left->_Isnil) {

  0005b	8b 45 f4	 mov	 eax, DWORD PTR __Pnode$[ebp]
  0005e	8b 00		 mov	 eax, DWORD PTR [eax]
  00060	0f be 40 0d	 movsx	 eax, BYTE PTR [eax+13]
  00064	85 c0		 test	 eax, eax
  00066	75 0a		 jne	 SHORT $LN9@operator

; 452  :             _Pnode = _Pnode->_Left;

  00068	8b 45 f4	 mov	 eax, DWORD PTR __Pnode$[ebp]
  0006b	8b 00		 mov	 eax, DWORD PTR [eax]
  0006d	89 45 f4	 mov	 DWORD PTR __Pnode$[ebp], eax

; 453  :         }

  00070	eb e9		 jmp	 SHORT $LN8@operator
$LN9@operator:

; 454  : 
; 455  :         return _Pnode;

  00072	8b 45 f4	 mov	 eax, DWORD PTR __Pnode$[ebp]
  00075	89 45 f0	 mov	 DWORD PTR $T1[ebp], eax

; 60   :             _Ptr = _Mytree::_Min(_Ptr->_Right); // ==> smallest of right subtree

  00078	8b 45 fc	 mov	 eax, DWORD PTR _this$[ebp]
  0007b	8b 4d f0	 mov	 ecx, DWORD PTR $T1[ebp]
  0007e	89 08		 mov	 DWORD PTR [eax], ecx
$LN5@operator:

; 61   :         }
; 62   : 
; 63   :         return *this;

  00080	8b 45 fc	 mov	 eax, DWORD PTR _this$[ebp]

; 64   :     }

  00083	c9		 leave
  00084	c3		 ret	 0
??E?$_Tree_unchecked_const_iterator@V?$_Tree_val@U?$_Tree_simple_types@U?$pair@$$CBV?$basic_string@DU?$char_traits@D@std@@V?$allocator@D@2@@std@@E@std@@@std@@@std@@U_Iterator_base0@2@@std@@QAEAAV01@XZ ENDP ; std::_Tree_unchecked_const_iterator<std::_Tree_val<std::_Tree_simple_types<std::pair<std::basic_string<char,std::char_traits<char>,std::allocator<char> > const ,unsigned char> > >,std::_Iterator_base0>::operator++
_TEXT	ENDS
; Function compile flags: /Odspy
; File C:\Program Files (x86)\Microsoft Visual Studio\2019\Community\VC\Tools\MSVC\14.28.29333\include\xtree
; File C:\Program Files (x86)\Microsoft Visual Studio\2019\Community\VC\Tools\MSVC\14.28.29333\include\type_traits
; File C:\Program Files (x86)\Microsoft Visual Studio\2019\Community\VC\Tools\MSVC\14.28.29333\include\xtree
; File C:\Program Files (x86)\Microsoft Visual Studio\2019\Community\VC\Tools\MSVC\14.28.29333\include\xstddef
; File C:\Program Files (x86)\Microsoft Visual Studio\2019\Community\VC\Tools\MSVC\14.28.29333\include\xtree
; File C:\Program Files (x86)\Microsoft Visual Studio\2019\Community\VC\Tools\MSVC\14.28.29333\include\type_traits
; File C:\Program Files (x86)\Microsoft Visual Studio\2019\Community\VC\Tools\MSVC\14.28.29333\include\utility
; File C:\Program Files (x86)\Microsoft Visual Studio\2019\Community\VC\Tools\MSVC\14.28.29333\include\type_traits
; File C:\Program Files (x86)\Microsoft Visual Studio\2019\Community\VC\Tools\MSVC\14.28.29333\include\utility
; File C:\Program Files (x86)\Microsoft Visual Studio\2019\Community\VC\Tools\MSVC\14.28.29333\include\xtree
;	COMDAT ??$insert@$0A@$0A@@?$_Tree@V?$_Tset_traits@V?$basic_string@DU?$char_traits@D@std@@V?$allocator@D@2@@std@@U?$less@V?$basic_string@DU?$char_traits@D@std@@V?$allocator@D@2@@std@@@2@V?$allocator@V?$basic_string@DU?$char_traits@D@std@@V?$allocator@D@2@@std@@@2@$0A@@std@@@std@@QAE?AU?$pair@V?$_Tree_const_iterator@V?$_Tree_val@U?$_Tree_simple_types@V?$basic_string@DU?$char_traits@D@std@@V?$allocator@D@2@@std@@@std@@@std@@@std@@_N@1@$$QAV?$basic_string@DU?$char_traits@D@std@@V?$allocator@D@2@@1@@Z
_TEXT	SEGMENT
__Result$ = -40						; size = 8
$T1 = -32						; size = 4
$T2 = -28						; size = 4
$T3 = -24						; size = 4
$T4 = -20						; size = 4
___param0$ = -16					; size = 4
$T5 = -12						; size = 4
$T6 = -8						; size = 4
_this$ = -4						; size = 4
___$ReturnUdt$ = 8					; size = 4
__Val$ = 12						; size = 4
??$insert@$0A@$0A@@?$_Tree@V?$_Tset_traits@V?$basic_string@DU?$char_traits@D@std@@V?$allocator@D@2@@std@@U?$less@V?$basic_string@DU?$char_traits@D@std@@V?$allocator@D@2@@std@@@2@V?$allocator@V?$basic_string@DU?$char_traits@D@std@@V?$allocator@D@2@@std@@@2@$0A@@std@@@std@@QAE?AU?$pair@V?$_Tree_const_iterator@V?$_Tree_val@U?$_Tree_simple_types@V?$basic_string@DU?$char_traits@D@std@@V?$allocator@D@2@@std@@@std@@@std@@@std@@_N@1@$$QAV?$basic_string@DU?$char_traits@D@std@@V?$allocator@D@2@@1@@Z PROC ; std::_Tree<std::_Tset_traits<std::basic_string<char,std::char_traits<char>,std::allocator<char> >,std::less<std::basic_string<char,std::char_traits<char>,std::allocator<char> > >,std::allocator<std::basic_string<char,std::char_traits<char>,std::allocator<char> > >,0> >::insert<0,0>, COMDAT
; _this$ = ecx

; 1343 :     pair<iterator, bool> insert(value_type&& _Val) {

  00000	55		 push	 ebp
  00001	8b ec		 mov	 ebp, esp
  00003	83 ec 28	 sub	 esp, 40			; 00000028H
  00006	89 4d fc	 mov	 DWORD PTR _this$[ebp], ecx
; File C:\Program Files (x86)\Microsoft Visual Studio\2019\Community\VC\Tools\MSVC\14.28.29333\include\type_traits

; 1455 :     return static_cast<remove_reference_t<_Ty>&&>(_Arg);

  00009	8b 45 0c	 mov	 eax, DWORD PTR __Val$[ebp]
  0000c	89 45 f8	 mov	 DWORD PTR $T6[ebp], eax
; File C:\Program Files (x86)\Microsoft Visual Studio\2019\Community\VC\Tools\MSVC\14.28.29333\include\xtree

; 1344 :         const auto _Result = _Emplace(_STD move(_Val));

  0000f	ff 75 f8	 push	 DWORD PTR $T6[ebp]
  00012	8d 45 d8	 lea	 eax, DWORD PTR __Result$[ebp]
  00015	50		 push	 eax
  00016	8b 4d fc	 mov	 ecx, DWORD PTR _this$[ebp]
  00019	e8 00 00 00 00	 call	 ??$_Emplace@V?$basic_string@DU?$char_traits@D@std@@V?$allocator@D@2@@std@@@?$_Tree@V?$_Tset_traits@V?$basic_string@DU?$char_traits@D@std@@V?$allocator@D@2@@std@@U?$less@V?$basic_string@DU?$char_traits@D@std@@V?$allocator@D@2@@std@@@2@V?$allocator@V?$basic_string@DU?$char_traits@D@std@@V?$allocator@D@2@@std@@@2@$0A@@std@@@std@@IAE?AU?$pair@PAU?$_Tree_node@V?$basic_string@DU?$char_traits@D@std@@V?$allocator@D@2@@std@@PAX@std@@_N@1@$$QAV?$basic_string@DU?$char_traits@D@std@@V?$allocator@D@2@@1@@Z ; std::_Tree<std::_Tset_traits<std::basic_string<char,std::char_traits<char>,std::allocator<char> >,std::less<std::basic_string<char,std::char_traits<char>,std::allocator<char> > >,std::allocator<std::basic_string<char,std::char_traits<char>,std::allocator<char> > >,0> >::_Emplace<std::basic_string<char,std::char_traits<char>,std::allocator<char> > >

; 2047 :         return _STD addressof(_Mypair._Myval2._Myval2);

  0001e	8b 45 fc	 mov	 eax, DWORD PTR _this$[ebp]
; File C:\Program Files (x86)\Microsoft Visual Studio\2019\Community\VC\Tools\MSVC\14.28.29333\include\xstddef

; 275  :     return __builtin_addressof(_Val);

  00021	89 45 f4	 mov	 DWORD PTR $T5[ebp], eax
; File C:\Program Files (x86)\Microsoft Visual Studio\2019\Community\VC\Tools\MSVC\14.28.29333\include\xtree

; 2047 :         return _STD addressof(_Mypair._Myval2._Myval2);

  00024	8b 45 f4	 mov	 eax, DWORD PTR $T5[ebp]
  00027	89 45 e0	 mov	 DWORD PTR $T1[ebp], eax

; 1345 :         return {iterator(_Result.first, _Get_scary()), _Result.second};

  0002a	8b 45 d8	 mov	 eax, DWORD PTR __Result$[ebp]
  0002d	89 45 f0	 mov	 DWORD PTR ___param0$[ebp], eax

; 39   :     _Tree_unchecked_const_iterator(_Nodeptr _Pnode, const _Mytree* _Plist) noexcept : _Ptr(_Pnode) {

  00030	8b 45 f0	 mov	 eax, DWORD PTR ___param0$[ebp]
  00033	89 45 ec	 mov	 DWORD PTR $T4[ebp], eax
; File C:\Program Files (x86)\Microsoft Visual Studio\2019\Community\VC\Tools\MSVC\14.28.29333\include\type_traits

; 1443 :     return static_cast<_Ty&&>(_Arg);

  00036	8d 45 ec	 lea	 eax, DWORD PTR $T4[ebp]
  00039	89 45 e8	 mov	 DWORD PTR $T3[ebp], eax
; File C:\Program Files (x86)\Microsoft Visual Studio\2019\Community\VC\Tools\MSVC\14.28.29333\include\utility

; 190  :         : first(_STD forward<_Other1>(_Val1)), second(_STD forward<_Other2>(_Val2)) {}

  0003c	8b 45 e8	 mov	 eax, DWORD PTR $T3[ebp]
  0003f	8b 00		 mov	 eax, DWORD PTR [eax]
  00041	8b 4d 08	 mov	 ecx, DWORD PTR ___$ReturnUdt$[ebp]
  00044	89 01		 mov	 DWORD PTR [ecx], eax
; File C:\Program Files (x86)\Microsoft Visual Studio\2019\Community\VC\Tools\MSVC\14.28.29333\include\type_traits

; 1443 :     return static_cast<_Ty&&>(_Arg);

  00046	8d 45 dc	 lea	 eax, DWORD PTR __Result$[ebp+4]
  00049	89 45 e4	 mov	 DWORD PTR $T2[ebp], eax
; File C:\Program Files (x86)\Microsoft Visual Studio\2019\Community\VC\Tools\MSVC\14.28.29333\include\utility

; 190  :         : first(_STD forward<_Other1>(_Val1)), second(_STD forward<_Other2>(_Val2)) {}

  0004c	8b 45 08	 mov	 eax, DWORD PTR ___$ReturnUdt$[ebp]
  0004f	8b 4d e4	 mov	 ecx, DWORD PTR $T2[ebp]
  00052	8a 09		 mov	 cl, BYTE PTR [ecx]
  00054	88 48 04	 mov	 BYTE PTR [eax+4], cl
; File C:\Program Files (x86)\Microsoft Visual Studio\2019\Community\VC\Tools\MSVC\14.28.29333\include\xtree

; 1345 :         return {iterator(_Result.first, _Get_scary()), _Result.second};

  00057	8b 45 08	 mov	 eax, DWORD PTR ___$ReturnUdt$[ebp]

; 1346 :     }

  0005a	c9		 leave
  0005b	c2 08 00	 ret	 8
??$insert@$0A@$0A@@?$_Tree@V?$_Tset_traits@V?$basic_string@DU?$char_traits@D@std@@V?$allocator@D@2@@std@@U?$less@V?$basic_string@DU?$char_traits@D@std@@V?$allocator@D@2@@std@@@2@V?$allocator@V?$basic_string@DU?$char_traits@D@std@@V?$allocator@D@2@@std@@@2@$0A@@std@@@std@@QAE?AU?$pair@V?$_Tree_const_iterator@V?$_Tree_val@U?$_Tree_simple_types@V?$basic_string@DU?$char_traits@D@std@@V?$allocator@D@2@@std@@@std@@@std@@@std@@_N@1@$$QAV?$basic_string@DU?$char_traits@D@std@@V?$allocator@D@2@@1@@Z ENDP ; std::_Tree<std::_Tset_traits<std::basic_string<char,std::char_traits<char>,std::allocator<char> >,std::less<std::basic_string<char,std::char_traits<char>,std::allocator<char> > >,std::allocator<std::basic_string<char,std::char_traits<char>,std::allocator<char> > >,0> >::insert<0,0>
_TEXT	ENDS
; Function compile flags: /Odspy
; File C:\Program Files (x86)\Microsoft Visual Studio\2019\Community\VC\Tools\MSVC\14.28.29333\include\xtree
; File C:\Program Files (x86)\Microsoft Visual Studio\2019\Community\VC\Tools\MSVC\14.28.29333\include\xstddef
; File C:\Program Files (x86)\Microsoft Visual Studio\2019\Community\VC\Tools\MSVC\14.28.29333\include\xtree
; File C:\Program Files (x86)\Microsoft Visual Studio\2019\Community\VC\Tools\MSVC\14.28.29333\include\xmemory
; File C:\Program Files (x86)\Microsoft Visual Studio\2019\Community\VC\Tools\MSVC\14.28.29333\include\xtree
; File C:\Program Files (x86)\Microsoft Visual Studio\2019\Community\VC\Tools\MSVC\14.28.29333\include\xstddef
; File C:\Program Files (x86)\Microsoft Visual Studio\2019\Community\VC\Tools\MSVC\14.28.29333\include\xtree
; File C:\Program Files (x86)\Microsoft Visual Studio\2019\Community\VC\Tools\MSVC\14.28.29333\include\xstddef
; File C:\Program Files (x86)\Microsoft Visual Studio\2019\Community\VC\Tools\MSVC\14.28.29333\include\xtree
; File C:\Program Files (x86)\Microsoft Visual Studio\2019\Community\VC\Tools\MSVC\14.28.29333\include\xmemory
; File C:\Program Files (x86)\Microsoft Visual Studio\2019\Community\VC\Tools\MSVC\14.28.29333\include\xtree
; File C:\Program Files (x86)\Microsoft Visual Studio\2019\Community\VC\Tools\MSVC\14.28.29333\include\xstddef
; File C:\Program Files (x86)\Microsoft Visual Studio\2019\Community\VC\Tools\MSVC\14.28.29333\include\xtree
; File C:\Program Files (x86)\Microsoft Visual Studio\2019\Community\VC\Tools\MSVC\14.28.29333\include\type_traits
; File C:\Program Files (x86)\Microsoft Visual Studio\2019\Community\VC\Tools\MSVC\14.28.29333\include\utility
; File C:\Program Files (x86)\Microsoft Visual Studio\2019\Community\VC\Tools\MSVC\14.28.29333\include\type_traits
; File C:\Program Files (x86)\Microsoft Visual Studio\2019\Community\VC\Tools\MSVC\14.28.29333\include\utility
; File C:\Program Files (x86)\Microsoft Visual Studio\2019\Community\VC\Tools\MSVC\14.28.29333\include\xtree
;	COMDAT ??$_Eqrange@V?$basic_string@DU?$char_traits@D@std@@V?$allocator@D@2@@std@@@?$_Tree@V?$_Tset_traits@V?$basic_string@DU?$char_traits@D@std@@V?$allocator@D@2@@std@@U?$less@V?$basic_string@DU?$char_traits@D@std@@V?$allocator@D@2@@std@@@2@V?$allocator@V?$basic_string@DU?$char_traits@D@std@@V?$allocator@D@2@@std@@@2@$0A@@std@@@std@@IBE?AU?$pair@PAU?$_Tree_node@V?$basic_string@DU?$char_traits@D@std@@V?$allocator@D@2@@std@@PAX@std@@PAU12@@1@ABV?$basic_string@DU?$char_traits@D@std@@V?$allocator@D@2@@1@@Z
_TEXT	SEGMENT
$T1 = -56						; size = 4
__Comp$ = -52						; size = 4
$T2 = -48						; size = 4
$T3 = -44						; size = 4
$T4 = -40						; size = 4
$T5 = -36						; size = 4
$T6 = -32						; size = 4
__Lonode$ = -28						; size = 4
tv133 = -24						; size = 4
__Nodekey$7 = -20					; size = 4
_this$ = -16						; size = 4
__Scary$ = -12						; size = 4
__Hinode$ = -8						; size = 4
__Pnode$ = -4						; size = 4
___$ReturnUdt$ = 8					; size = 4
__Keyval$ = 12						; size = 4
??$_Eqrange@V?$basic_string@DU?$char_traits@D@std@@V?$allocator@D@2@@std@@@?$_Tree@V?$_Tset_traits@V?$basic_string@DU?$char_traits@D@std@@V?$allocator@D@2@@std@@U?$less@V?$basic_string@DU?$char_traits@D@std@@V?$allocator@D@2@@std@@@2@V?$allocator@V?$basic_string@DU?$char_traits@D@std@@V?$allocator@D@2@@std@@@2@$0A@@std@@@std@@IBE?AU?$pair@PAU?$_Tree_node@V?$basic_string@DU?$char_traits@D@std@@V?$allocator@D@2@@std@@PAX@std@@PAU12@@1@ABV?$basic_string@DU?$char_traits@D@std@@V?$allocator@D@2@@1@@Z PROC ; std::_Tree<std::_Tset_traits<std::basic_string<char,std::char_traits<char>,std::allocator<char> >,std::less<std::basic_string<char,std::char_traits<char>,std::allocator<char> > >,std::allocator<std::basic_string<char,std::char_traits<char>,std::allocator<char> > >,0> >::_Eqrange<std::basic_string<char,std::char_traits<char>,std::allocator<char> > >, COMDAT
; _this$ = ecx

; 1783 :         noexcept(_Nothrow_compare<key_compare, key_type, _Other>&& _Nothrow_compare<key_compare, _Other, key_type>) {

  00000	55		 push	 ebp
  00001	8b ec		 mov	 ebp, esp
  00003	83 ec 38	 sub	 esp, 56			; 00000038H
  00006	89 4d f0	 mov	 DWORD PTR _this$[ebp], ecx

; 2051 :         return _STD addressof(_Mypair._Myval2._Myval2);

  00009	8b 45 f0	 mov	 eax, DWORD PTR _this$[ebp]
; File C:\Program Files (x86)\Microsoft Visual Studio\2019\Community\VC\Tools\MSVC\14.28.29333\include\xstddef

; 275  :     return __builtin_addressof(_Val);

  0000c	89 45 e0	 mov	 DWORD PTR $T6[ebp], eax
; File C:\Program Files (x86)\Microsoft Visual Studio\2019\Community\VC\Tools\MSVC\14.28.29333\include\xtree

; 2051 :         return _STD addressof(_Mypair._Myval2._Myval2);

  0000f	8b 45 e0	 mov	 eax, DWORD PTR $T6[ebp]
  00012	89 45 f4	 mov	 DWORD PTR __Scary$[ebp], eax

; 2035 :         return _Mypair._Get_first();

  00015	8b 45 f0	 mov	 eax, DWORD PTR _this$[ebp]
; File C:\Program Files (x86)\Microsoft Visual Studio\2019\Community\VC\Tools\MSVC\14.28.29333\include\xmemory

; 1351 :         return *this;

  00018	89 45 dc	 mov	 DWORD PTR $T5[ebp], eax
; File C:\Program Files (x86)\Microsoft Visual Studio\2019\Community\VC\Tools\MSVC\14.28.29333\include\xtree

; 2035 :         return _Mypair._Get_first();

  0001b	8b 45 dc	 mov	 eax, DWORD PTR $T5[ebp]
  0001e	89 45 cc	 mov	 DWORD PTR __Comp$[ebp], eax

; 1784 :         // find range of nodes equivalent to _Keyval
; 1785 :         const auto _Scary = _Get_scary();
; 1786 :         const auto& _Comp = _Getcomp();
; 1787 :         _Nodeptr _Pnode   = _Scary->_Myhead->_Parent;

  00021	8b 45 f4	 mov	 eax, DWORD PTR __Scary$[ebp]
  00024	8b 00		 mov	 eax, DWORD PTR [eax]
  00026	8b 40 04	 mov	 eax, DWORD PTR [eax+4]
  00029	89 45 fc	 mov	 DWORD PTR __Pnode$[ebp], eax

; 1788 :         _Nodeptr _Lonode  = _Scary->_Myhead; // end() if search fails

  0002c	8b 45 f4	 mov	 eax, DWORD PTR __Scary$[ebp]
  0002f	8b 00		 mov	 eax, DWORD PTR [eax]
  00031	89 45 e4	 mov	 DWORD PTR __Lonode$[ebp], eax

; 1789 :         _Nodeptr _Hinode  = _Scary->_Myhead; // end() if search fails

  00034	8b 45 f4	 mov	 eax, DWORD PTR __Scary$[ebp]
  00037	8b 00		 mov	 eax, DWORD PTR [eax]
  00039	89 45 f8	 mov	 DWORD PTR __Hinode$[ebp], eax
$LN2@Eqrange:

; 1790 : 
; 1791 :         while (!_Pnode->_Isnil) {

  0003c	8b 45 fc	 mov	 eax, DWORD PTR __Pnode$[ebp]
  0003f	0f be 40 0d	 movsx	 eax, BYTE PTR [eax+13]
  00043	85 c0		 test	 eax, eax
  00045	75 5d		 jne	 SHORT $LN3@Eqrange

; 1792 :             const auto& _Nodekey = _Traits::_Kfn(_Pnode->_Myval);

  00047	8b 45 fc	 mov	 eax, DWORD PTR __Pnode$[ebp]
  0004a	83 c0 10	 add	 eax, 16			; 00000010H
  0004d	89 45 ec	 mov	 DWORD PTR __Nodekey$7[ebp], eax
; File C:\Program Files (x86)\Microsoft Visual Studio\2019\Community\VC\Tools\MSVC\14.28.29333\include\xstddef

; 127  :         return _Left < _Right;

  00050	ff 75 0c	 push	 DWORD PTR __Keyval$[ebp]
  00053	ff 75 ec	 push	 DWORD PTR __Nodekey$7[ebp]
  00056	e8 00 00 00 00	 call	 ??$?MDU?$char_traits@D@std@@V?$allocator@D@1@@std@@YA_NABV?$basic_string@DU?$char_traits@D@std@@V?$allocator@D@2@@0@0@Z ; std::operator<<char,std::char_traits<char>,std::allocator<char> >
  0005b	59		 pop	 ecx
  0005c	59		 pop	 ecx
; File C:\Program Files (x86)\Microsoft Visual Studio\2019\Community\VC\Tools\MSVC\14.28.29333\include\xtree

; 1793 :             if (_DEBUG_LT_PRED(_Comp, _Nodekey, _Keyval)) {

  0005d	0f b6 c0	 movzx	 eax, al
  00060	85 c0		 test	 eax, eax
  00062	74 0b		 je	 SHORT $LN6@Eqrange

; 1794 :                 _Pnode = _Pnode->_Right; // descend right subtree

  00064	8b 45 fc	 mov	 eax, DWORD PTR __Pnode$[ebp]
  00067	8b 40 08	 mov	 eax, DWORD PTR [eax+8]
  0006a	89 45 fc	 mov	 DWORD PTR __Pnode$[ebp], eax

; 1795 :             } else { // _Pnode not less than _Keyval, remember it

  0006d	eb 33		 jmp	 SHORT $LN7@Eqrange
$LN6@Eqrange:

; 1796 :                 if (_Hinode->_Isnil && _DEBUG_LT_PRED(_Comp, _Keyval, _Nodekey)) {

  0006f	8b 45 f8	 mov	 eax, DWORD PTR __Hinode$[ebp]
  00072	0f be 40 0d	 movsx	 eax, BYTE PTR [eax+13]
  00076	85 c0		 test	 eax, eax
  00078	74 1a		 je	 SHORT $LN8@Eqrange
; File C:\Program Files (x86)\Microsoft Visual Studio\2019\Community\VC\Tools\MSVC\14.28.29333\include\xstddef

; 127  :         return _Left < _Right;

  0007a	ff 75 ec	 push	 DWORD PTR __Nodekey$7[ebp]
  0007d	ff 75 0c	 push	 DWORD PTR __Keyval$[ebp]
  00080	e8 00 00 00 00	 call	 ??$?MDU?$char_traits@D@std@@V?$allocator@D@1@@std@@YA_NABV?$basic_string@DU?$char_traits@D@std@@V?$allocator@D@2@@0@0@Z ; std::operator<<char,std::char_traits<char>,std::allocator<char> >
  00085	59		 pop	 ecx
  00086	59		 pop	 ecx
; File C:\Program Files (x86)\Microsoft Visual Studio\2019\Community\VC\Tools\MSVC\14.28.29333\include\xtree

; 1796 :                 if (_Hinode->_Isnil && _DEBUG_LT_PRED(_Comp, _Keyval, _Nodekey)) {

  00087	0f b6 c0	 movzx	 eax, al
  0008a	85 c0		 test	 eax, eax
  0008c	74 06		 je	 SHORT $LN8@Eqrange

; 1797 :                     _Hinode = _Pnode; // _Pnode greater, remember it

  0008e	8b 45 fc	 mov	 eax, DWORD PTR __Pnode$[ebp]
  00091	89 45 f8	 mov	 DWORD PTR __Hinode$[ebp], eax
$LN8@Eqrange:

; 1798 :                 }
; 1799 : 
; 1800 :                 _Lonode = _Pnode;

  00094	8b 45 fc	 mov	 eax, DWORD PTR __Pnode$[ebp]
  00097	89 45 e4	 mov	 DWORD PTR __Lonode$[ebp], eax

; 1801 :                 _Pnode  = _Pnode->_Left; // descend left subtree

  0009a	8b 45 fc	 mov	 eax, DWORD PTR __Pnode$[ebp]
  0009d	8b 00		 mov	 eax, DWORD PTR [eax]
  0009f	89 45 fc	 mov	 DWORD PTR __Pnode$[ebp], eax
$LN7@Eqrange:

; 1802 :             }
; 1803 :         }

  000a2	eb 98		 jmp	 SHORT $LN2@Eqrange
$LN3@Eqrange:

; 1804 : 
; 1805 :         _Pnode = _Hinode->_Isnil ? _Scary->_Myhead->_Parent : _Hinode->_Left; // continue scan for upper bound

  000a4	8b 45 f8	 mov	 eax, DWORD PTR __Hinode$[ebp]
  000a7	0f be 40 0d	 movsx	 eax, BYTE PTR [eax+13]
  000ab	85 c0		 test	 eax, eax
  000ad	74 0d		 je	 SHORT $LN12@Eqrange
  000af	8b 45 f4	 mov	 eax, DWORD PTR __Scary$[ebp]
  000b2	8b 00		 mov	 eax, DWORD PTR [eax]
  000b4	8b 40 04	 mov	 eax, DWORD PTR [eax+4]
  000b7	89 45 e8	 mov	 DWORD PTR tv133[ebp], eax
  000ba	eb 08		 jmp	 SHORT $LN13@Eqrange
$LN12@Eqrange:
  000bc	8b 45 f8	 mov	 eax, DWORD PTR __Hinode$[ebp]
  000bf	8b 00		 mov	 eax, DWORD PTR [eax]
  000c1	89 45 e8	 mov	 DWORD PTR tv133[ebp], eax
$LN13@Eqrange:
  000c4	8b 45 e8	 mov	 eax, DWORD PTR tv133[ebp]
  000c7	89 45 fc	 mov	 DWORD PTR __Pnode$[ebp], eax
$LN4@Eqrange:

; 1806 :         while (!_Pnode->_Isnil) {

  000ca	8b 45 fc	 mov	 eax, DWORD PTR __Pnode$[ebp]
  000cd	0f be 40 0d	 movsx	 eax, BYTE PTR [eax+13]
  000d1	85 c0		 test	 eax, eax
  000d3	75 3f		 jne	 SHORT $LN5@Eqrange

; 2035 :         return _Mypair._Get_first();

  000d5	8b 45 f0	 mov	 eax, DWORD PTR _this$[ebp]
; File C:\Program Files (x86)\Microsoft Visual Studio\2019\Community\VC\Tools\MSVC\14.28.29333\include\xmemory

; 1351 :         return *this;

  000d8	89 45 d8	 mov	 DWORD PTR $T4[ebp], eax
; File C:\Program Files (x86)\Microsoft Visual Studio\2019\Community\VC\Tools\MSVC\14.28.29333\include\xtree

; 2035 :         return _Mypair._Get_first();

  000db	8b 45 d8	 mov	 eax, DWORD PTR $T4[ebp]
  000de	89 45 c8	 mov	 DWORD PTR $T1[ebp], eax

; 1807 :             if (_DEBUG_LT_PRED(_Getcomp(), _Keyval, _Traits::_Kfn(_Pnode->_Myval))) {

  000e1	8b 45 fc	 mov	 eax, DWORD PTR __Pnode$[ebp]
  000e4	83 c0 10	 add	 eax, 16			; 00000010H
; File C:\Program Files (x86)\Microsoft Visual Studio\2019\Community\VC\Tools\MSVC\14.28.29333\include\xstddef

; 127  :         return _Left < _Right;

  000e7	50		 push	 eax
  000e8	ff 75 0c	 push	 DWORD PTR __Keyval$[ebp]
  000eb	e8 00 00 00 00	 call	 ??$?MDU?$char_traits@D@std@@V?$allocator@D@1@@std@@YA_NABV?$basic_string@DU?$char_traits@D@std@@V?$allocator@D@2@@0@0@Z ; std::operator<<char,std::char_traits<char>,std::allocator<char> >
  000f0	59		 pop	 ecx
  000f1	59		 pop	 ecx
; File C:\Program Files (x86)\Microsoft Visual Studio\2019\Community\VC\Tools\MSVC\14.28.29333\include\xtree

; 1807 :             if (_DEBUG_LT_PRED(_Getcomp(), _Keyval, _Traits::_Kfn(_Pnode->_Myval))) {

  000f2	0f b6 c0	 movzx	 eax, al
  000f5	85 c0		 test	 eax, eax
  000f7	74 10		 je	 SHORT $LN9@Eqrange

; 1808 :                 // _Pnode greater than _Keyval, remember it
; 1809 :                 _Hinode = _Pnode;

  000f9	8b 45 fc	 mov	 eax, DWORD PTR __Pnode$[ebp]
  000fc	89 45 f8	 mov	 DWORD PTR __Hinode$[ebp], eax

; 1810 :                 _Pnode  = _Pnode->_Left; // descend left subtree

  000ff	8b 45 fc	 mov	 eax, DWORD PTR __Pnode$[ebp]
  00102	8b 00		 mov	 eax, DWORD PTR [eax]
  00104	89 45 fc	 mov	 DWORD PTR __Pnode$[ebp], eax

; 1811 :             } else {

  00107	eb 09		 jmp	 SHORT $LN10@Eqrange
$LN9@Eqrange:

; 1812 :                 _Pnode = _Pnode->_Right; // descend right subtree

  00109	8b 45 fc	 mov	 eax, DWORD PTR __Pnode$[ebp]
  0010c	8b 40 08	 mov	 eax, DWORD PTR [eax+8]
  0010f	89 45 fc	 mov	 DWORD PTR __Pnode$[ebp], eax
$LN10@Eqrange:

; 1813 :             }
; 1814 :         }

  00112	eb b6		 jmp	 SHORT $LN4@Eqrange
$LN5@Eqrange:
; File C:\Program Files (x86)\Microsoft Visual Studio\2019\Community\VC\Tools\MSVC\14.28.29333\include\type_traits

; 1443 :     return static_cast<_Ty&&>(_Arg);

  00114	8d 45 e4	 lea	 eax, DWORD PTR __Lonode$[ebp]
  00117	89 45 d4	 mov	 DWORD PTR $T3[ebp], eax
; File C:\Program Files (x86)\Microsoft Visual Studio\2019\Community\VC\Tools\MSVC\14.28.29333\include\utility

; 190  :         : first(_STD forward<_Other1>(_Val1)), second(_STD forward<_Other2>(_Val2)) {}

  0011a	8b 45 08	 mov	 eax, DWORD PTR ___$ReturnUdt$[ebp]
  0011d	8b 4d d4	 mov	 ecx, DWORD PTR $T3[ebp]
  00120	8b 09		 mov	 ecx, DWORD PTR [ecx]
  00122	89 08		 mov	 DWORD PTR [eax], ecx
; File C:\Program Files (x86)\Microsoft Visual Studio\2019\Community\VC\Tools\MSVC\14.28.29333\include\type_traits

; 1443 :     return static_cast<_Ty&&>(_Arg);

  00124	8d 45 f8	 lea	 eax, DWORD PTR __Hinode$[ebp]
  00127	89 45 d0	 mov	 DWORD PTR $T2[ebp], eax
; File C:\Program Files (x86)\Microsoft Visual Studio\2019\Community\VC\Tools\MSVC\14.28.29333\include\utility

; 190  :         : first(_STD forward<_Other1>(_Val1)), second(_STD forward<_Other2>(_Val2)) {}

  0012a	8b 45 08	 mov	 eax, DWORD PTR ___$ReturnUdt$[ebp]
  0012d	8b 4d d0	 mov	 ecx, DWORD PTR $T2[ebp]
  00130	8b 09		 mov	 ecx, DWORD PTR [ecx]
  00132	89 48 04	 mov	 DWORD PTR [eax+4], ecx
; File C:\Program Files (x86)\Microsoft Visual Studio\2019\Community\VC\Tools\MSVC\14.28.29333\include\xtree

; 1816 :         return {_Lonode, _Hinode};

  00135	8b 45 08	 mov	 eax, DWORD PTR ___$ReturnUdt$[ebp]

; 1817 :     }

  00138	c9		 leave
  00139	c2 08 00	 ret	 8
??$_Eqrange@V?$basic_string@DU?$char_traits@D@std@@V?$allocator@D@2@@std@@@?$_Tree@V?$_Tset_traits@V?$basic_string@DU?$char_traits@D@std@@V?$allocator@D@2@@std@@U?$less@V?$basic_string@DU?$char_traits@D@std@@V?$allocator@D@2@@std@@@2@V?$allocator@V?$basic_string@DU?$char_traits@D@std@@V?$allocator@D@2@@std@@@2@$0A@@std@@@std@@IBE?AU?$pair@PAU?$_Tree_node@V?$basic_string@DU?$char_traits@D@std@@V?$allocator@D@2@@std@@PAX@std@@PAU12@@1@ABV?$basic_string@DU?$char_traits@D@std@@V?$allocator@D@2@@1@@Z ENDP ; std::_Tree<std::_Tset_traits<std::basic_string<char,std::char_traits<char>,std::allocator<char> >,std::less<std::basic_string<char,std::char_traits<char>,std::allocator<char> > >,std::allocator<std::basic_string<char,std::char_traits<char>,std::allocator<char> > >,0> >::_Eqrange<std::basic_string<char,std::char_traits<char>,std::allocator<char> > >
_TEXT	ENDS
; Function compile flags: /Odspy
; File C:\Program Files (x86)\Microsoft Visual Studio\2019\Community\VC\Tools\MSVC\14.28.29333\include\xtree
;	COMDAT ??E?$_Tree_unchecked_const_iterator@V?$_Tree_val@U?$_Tree_simple_types@V?$basic_string@DU?$char_traits@D@std@@V?$allocator@D@2@@std@@@std@@@std@@U_Iterator_base0@2@@std@@QAEAAV01@XZ
_TEXT	SEGMENT
$T1 = -16						; size = 4
__Pnode$ = -12						; size = 4
__Pnode$2 = -8						; size = 4
_this$ = -4						; size = 4
??E?$_Tree_unchecked_const_iterator@V?$_Tree_val@U?$_Tree_simple_types@V?$basic_string@DU?$char_traits@D@std@@V?$allocator@D@2@@std@@@std@@@std@@U_Iterator_base0@2@@std@@QAEAAV01@XZ PROC ; std::_Tree_unchecked_const_iterator<std::_Tree_val<std::_Tree_simple_types<std::basic_string<char,std::char_traits<char>,std::allocator<char> > > >,std::_Iterator_base0>::operator++, COMDAT
; _this$ = ecx

; 51   :     _Tree_unchecked_const_iterator& operator++() noexcept {

  00000	55		 push	 ebp
  00001	8b ec		 mov	 ebp, esp
  00003	83 ec 10	 sub	 esp, 16			; 00000010H
  00006	89 4d fc	 mov	 DWORD PTR _this$[ebp], ecx

; 52   :         if (_Ptr->_Right->_Isnil) { // climb looking for right subtree

  00009	8b 45 fc	 mov	 eax, DWORD PTR _this$[ebp]
  0000c	8b 00		 mov	 eax, DWORD PTR [eax]
  0000e	8b 40 08	 mov	 eax, DWORD PTR [eax+8]
  00011	0f be 40 0d	 movsx	 eax, BYTE PTR [eax+13]
  00015	85 c0		 test	 eax, eax
  00017	74 37		 je	 SHORT $LN4@operator
$LN2@operator:

; 53   :             _Nodeptr _Pnode;
; 54   :             while (!(_Pnode = _Ptr->_Parent)->_Isnil && _Ptr == _Pnode->_Right) {

  00019	8b 45 fc	 mov	 eax, DWORD PTR _this$[ebp]
  0001c	8b 00		 mov	 eax, DWORD PTR [eax]
  0001e	8b 40 04	 mov	 eax, DWORD PTR [eax+4]
  00021	89 45 f8	 mov	 DWORD PTR __Pnode$2[ebp], eax
  00024	8b 45 f8	 mov	 eax, DWORD PTR __Pnode$2[ebp]
  00027	0f be 40 0d	 movsx	 eax, BYTE PTR [eax+13]
  0002b	85 c0		 test	 eax, eax
  0002d	75 17		 jne	 SHORT $LN3@operator
  0002f	8b 45 fc	 mov	 eax, DWORD PTR _this$[ebp]
  00032	8b 4d f8	 mov	 ecx, DWORD PTR __Pnode$2[ebp]
  00035	8b 00		 mov	 eax, DWORD PTR [eax]
  00037	3b 41 08	 cmp	 eax, DWORD PTR [ecx+8]
  0003a	75 0a		 jne	 SHORT $LN3@operator

; 55   :                 _Ptr = _Pnode; // ==> parent while right subtree

  0003c	8b 45 fc	 mov	 eax, DWORD PTR _this$[ebp]
  0003f	8b 4d f8	 mov	 ecx, DWORD PTR __Pnode$2[ebp]
  00042	89 08		 mov	 DWORD PTR [eax], ecx

; 56   :             }

  00044	eb d3		 jmp	 SHORT $LN2@operator
$LN3@operator:

; 57   : 
; 58   :             _Ptr = _Pnode; // ==> parent (head if end())

  00046	8b 45 fc	 mov	 eax, DWORD PTR _this$[ebp]
  00049	8b 4d f8	 mov	 ecx, DWORD PTR __Pnode$2[ebp]
  0004c	89 08		 mov	 DWORD PTR [eax], ecx

; 59   :         } else {

  0004e	eb 30		 jmp	 SHORT $LN5@operator
$LN4@operator:

; 60   :             _Ptr = _Mytree::_Min(_Ptr->_Right); // ==> smallest of right subtree

  00050	8b 45 fc	 mov	 eax, DWORD PTR _this$[ebp]
  00053	8b 00		 mov	 eax, DWORD PTR [eax]
  00055	8b 40 08	 mov	 eax, DWORD PTR [eax+8]
  00058	89 45 f4	 mov	 DWORD PTR __Pnode$[ebp], eax
$LN8@operator:

; 451  :         while (!_Pnode->_Left->_Isnil) {

  0005b	8b 45 f4	 mov	 eax, DWORD PTR __Pnode$[ebp]
  0005e	8b 00		 mov	 eax, DWORD PTR [eax]
  00060	0f be 40 0d	 movsx	 eax, BYTE PTR [eax+13]
  00064	85 c0		 test	 eax, eax
  00066	75 0a		 jne	 SHORT $LN9@operator

; 452  :             _Pnode = _Pnode->_Left;

  00068	8b 45 f4	 mov	 eax, DWORD PTR __Pnode$[ebp]
  0006b	8b 00		 mov	 eax, DWORD PTR [eax]
  0006d	89 45 f4	 mov	 DWORD PTR __Pnode$[ebp], eax

; 453  :         }

  00070	eb e9		 jmp	 SHORT $LN8@operator
$LN9@operator:

; 454  : 
; 455  :         return _Pnode;

  00072	8b 45 f4	 mov	 eax, DWORD PTR __Pnode$[ebp]
  00075	89 45 f0	 mov	 DWORD PTR $T1[ebp], eax

; 60   :             _Ptr = _Mytree::_Min(_Ptr->_Right); // ==> smallest of right subtree

  00078	8b 45 fc	 mov	 eax, DWORD PTR _this$[ebp]
  0007b	8b 4d f0	 mov	 ecx, DWORD PTR $T1[ebp]
  0007e	89 08		 mov	 DWORD PTR [eax], ecx
$LN5@operator:

; 61   :         }
; 62   : 
; 63   :         return *this;

  00080	8b 45 fc	 mov	 eax, DWORD PTR _this$[ebp]

; 64   :     }

  00083	c9		 leave
  00084	c3		 ret	 0
??E?$_Tree_unchecked_const_iterator@V?$_Tree_val@U?$_Tree_simple_types@V?$basic_string@DU?$char_traits@D@std@@V?$allocator@D@2@@std@@@std@@@std@@U_Iterator_base0@2@@std@@QAEAAV01@XZ ENDP ; std::_Tree_unchecked_const_iterator<std::_Tree_val<std::_Tree_simple_types<std::basic_string<char,std::char_traits<char>,std::allocator<char> > > >,std::_Iterator_base0>::operator++
_TEXT	ENDS
; Function compile flags: /Odspy
;	COMDAT ??_GCPythonMessenger@@UAEPAXI@Z
_TEXT	SEGMENT
_this$ = -4						; size = 4
___flags$ = 8						; size = 4
??_GCPythonMessenger@@UAEPAXI@Z PROC			; CPythonMessenger::`scalar deleting destructor', COMDAT
; _this$ = ecx
  00000	55		 push	 ebp
  00001	8b ec		 mov	 ebp, esp
  00003	51		 push	 ecx
  00004	89 4d fc	 mov	 DWORD PTR _this$[ebp], ecx
  00007	8b 4d fc	 mov	 ecx, DWORD PTR _this$[ebp]
  0000a	e8 00 00 00 00	 call	 ??1CPythonMessenger@@UAE@XZ ; CPythonMessenger::~CPythonMessenger
  0000f	8b 45 08	 mov	 eax, DWORD PTR ___flags$[ebp]
  00012	83 e0 01	 and	 eax, 1
  00015	74 0c		 je	 SHORT $LN2@scalar
  00017	6a 18		 push	 24			; 00000018H
  00019	ff 75 fc	 push	 DWORD PTR _this$[ebp]
  0001c	e8 00 00 00 00	 call	 ??3@YAXPAXI@Z		; operator delete
  00021	59		 pop	 ecx
  00022	59		 pop	 ecx
$LN2@scalar:
  00023	8b 45 fc	 mov	 eax, DWORD PTR _this$[ebp]
  00026	c9		 leave
  00027	c2 04 00	 ret	 4
??_GCPythonMessenger@@UAEPAXI@Z ENDP			; CPythonMessenger::`scalar deleting destructor'
_TEXT	ENDS
; Function compile flags: /Odspy
; File C:\Program Files (x86)\Microsoft Visual Studio\2019\Community\VC\Tools\MSVC\14.28.29333\include\xtree
;	COMDAT ?_Insert_node@?$_Tree_val@U?$_Tree_simple_types@U?$pair@$$CBV?$basic_string@DU?$char_traits@D@std@@V?$allocator@D@2@@std@@E@std@@@std@@@std@@QAEPAU?$_Tree_node@U?$pair@$$CBV?$basic_string@DU?$char_traits@D@std@@V?$allocator@D@2@@std@@E@std@@PAX@2@U?$_Tree_id@PAU?$_Tree_node@U?$pair@$$CBV?$basic_string@DU?$char_traits@D@std@@V?$allocator@D@2@@std@@E@std@@PAX@std@@@2@QAU32@@Z
_TEXT	SEGMENT
__Parent_sibling$1 = -20				; size = 4
__Parent_sibling$2 = -16				; size = 4
_this$ = -12						; size = 4
__Head$ = -8						; size = 4
__Pnode$3 = -4						; size = 4
__Loc$ = 8						; size = 8
__Newnode$ = 16						; size = 4
?_Insert_node@?$_Tree_val@U?$_Tree_simple_types@U?$pair@$$CBV?$basic_string@DU?$char_traits@D@std@@V?$allocator@D@2@@std@@E@std@@@std@@@std@@QAEPAU?$_Tree_node@U?$pair@$$CBV?$basic_string@DU?$char_traits@D@std@@V?$allocator@D@2@@std@@E@std@@PAX@2@U?$_Tree_id@PAU?$_Tree_node@U?$pair@$$CBV?$basic_string@DU?$char_traits@D@std@@V?$allocator@D@2@@std@@E@std@@PAX@std@@@2@QAU32@@Z PROC ; std::_Tree_val<std::_Tree_simple_types<std::pair<std::basic_string<char,std::char_traits<char>,std::allocator<char> > const ,unsigned char> > >::_Insert_node, COMDAT
; _this$ = ecx

; 644  :     _Nodeptr _Insert_node(const _Tree_id<_Nodeptr> _Loc, const _Nodeptr _Newnode) noexcept {

  00000	55		 push	 ebp
  00001	8b ec		 mov	 ebp, esp
  00003	83 ec 14	 sub	 esp, 20			; 00000014H
  00006	89 4d f4	 mov	 DWORD PTR _this$[ebp], ecx

; 645  :         ++_Mysize;

  00009	8b 45 f4	 mov	 eax, DWORD PTR _this$[ebp]
  0000c	8b 40 04	 mov	 eax, DWORD PTR [eax+4]
  0000f	40		 inc	 eax
  00010	8b 4d f4	 mov	 ecx, DWORD PTR _this$[ebp]
  00013	89 41 04	 mov	 DWORD PTR [ecx+4], eax

; 646  :         const auto _Head  = _Myhead;

  00016	8b 45 f4	 mov	 eax, DWORD PTR _this$[ebp]
  00019	8b 00		 mov	 eax, DWORD PTR [eax]
  0001b	89 45 f8	 mov	 DWORD PTR __Head$[ebp], eax

; 647  :         _Newnode->_Parent = _Loc._Parent;

  0001e	8b 45 10	 mov	 eax, DWORD PTR __Newnode$[ebp]
  00021	8b 4d 08	 mov	 ecx, DWORD PTR __Loc$[ebp]
  00024	89 48 04	 mov	 DWORD PTR [eax+4], ecx

; 648  :         if (_Loc._Parent == _Head) { // first node in tree, just set head values

  00027	8b 45 08	 mov	 eax, DWORD PTR __Loc$[ebp]
  0002a	3b 45 f8	 cmp	 eax, DWORD PTR __Head$[ebp]
  0002d	75 29		 jne	 SHORT $LN5@Insert_nod

; 649  :             _Head->_Left     = _Newnode;

  0002f	8b 45 f8	 mov	 eax, DWORD PTR __Head$[ebp]
  00032	8b 4d 10	 mov	 ecx, DWORD PTR __Newnode$[ebp]
  00035	89 08		 mov	 DWORD PTR [eax], ecx

; 650  :             _Head->_Parent   = _Newnode;

  00037	8b 45 f8	 mov	 eax, DWORD PTR __Head$[ebp]
  0003a	8b 4d 10	 mov	 ecx, DWORD PTR __Newnode$[ebp]
  0003d	89 48 04	 mov	 DWORD PTR [eax+4], ecx

; 651  :             _Head->_Right    = _Newnode;

  00040	8b 45 f8	 mov	 eax, DWORD PTR __Head$[ebp]
  00043	8b 4d 10	 mov	 ecx, DWORD PTR __Newnode$[ebp]
  00046	89 48 08	 mov	 DWORD PTR [eax+8], ecx

; 652  :             _Newnode->_Color = _Black; // the root is black

  00049	8b 45 10	 mov	 eax, DWORD PTR __Newnode$[ebp]
  0004c	c6 40 0c 01	 mov	 BYTE PTR [eax+12], 1

; 653  :             return _Newnode;

  00050	8b 45 10	 mov	 eax, DWORD PTR __Newnode$[ebp]
  00053	e9 a3 01 00 00	 jmp	 $LN18@Insert_nod
$LN5@Insert_nod:

; 654  :         }
; 655  : 
; 656  :         _STL_INTERNAL_CHECK(_Loc._Child != _Tree_child::_Unused);
; 657  :         if (_Loc._Child == _Tree_child::_Right) { // add to right of _Loc._Parent

  00058	83 7d 0c 00	 cmp	 DWORD PTR __Loc$[ebp+4], 0
  0005c	75 1f		 jne	 SHORT $LN6@Insert_nod

; 658  :             _STL_INTERNAL_CHECK(_Loc._Parent->_Right->_Isnil);
; 659  :             _Loc._Parent->_Right = _Newnode;

  0005e	8b 45 08	 mov	 eax, DWORD PTR __Loc$[ebp]
  00061	8b 4d 10	 mov	 ecx, DWORD PTR __Newnode$[ebp]
  00064	89 48 08	 mov	 DWORD PTR [eax+8], ecx

; 660  :             if (_Loc._Parent == _Head->_Right) { // remember rightmost node

  00067	8b 45 f8	 mov	 eax, DWORD PTR __Head$[ebp]
  0006a	8b 4d 08	 mov	 ecx, DWORD PTR __Loc$[ebp]
  0006d	3b 48 08	 cmp	 ecx, DWORD PTR [eax+8]
  00070	75 09		 jne	 SHORT $LN8@Insert_nod

; 661  :                 _Head->_Right = _Newnode;

  00072	8b 45 f8	 mov	 eax, DWORD PTR __Head$[ebp]
  00075	8b 4d 10	 mov	 ecx, DWORD PTR __Newnode$[ebp]
  00078	89 48 08	 mov	 DWORD PTR [eax+8], ecx
$LN8@Insert_nod:

; 662  :             }
; 663  :         } else { // add to left of _Loc._Parent

  0007b	eb 1a		 jmp	 SHORT $LN7@Insert_nod
$LN6@Insert_nod:

; 664  :             _STL_INTERNAL_CHECK(_Loc._Parent->_Left->_Isnil);
; 665  :             _Loc._Parent->_Left = _Newnode;

  0007d	8b 45 08	 mov	 eax, DWORD PTR __Loc$[ebp]
  00080	8b 4d 10	 mov	 ecx, DWORD PTR __Newnode$[ebp]
  00083	89 08		 mov	 DWORD PTR [eax], ecx

; 666  :             if (_Loc._Parent == _Head->_Left) { // remember leftmost node

  00085	8b 45 f8	 mov	 eax, DWORD PTR __Head$[ebp]
  00088	8b 4d 08	 mov	 ecx, DWORD PTR __Loc$[ebp]
  0008b	3b 08		 cmp	 ecx, DWORD PTR [eax]
  0008d	75 08		 jne	 SHORT $LN7@Insert_nod

; 667  :                 _Head->_Left = _Newnode;

  0008f	8b 45 f8	 mov	 eax, DWORD PTR __Head$[ebp]
  00092	8b 4d 10	 mov	 ecx, DWORD PTR __Newnode$[ebp]
  00095	89 08		 mov	 DWORD PTR [eax], ecx
$LN7@Insert_nod:

; 668  :             }
; 669  :         }
; 670  : 
; 671  :         for (_Nodeptr _Pnode = _Newnode; _Pnode->_Parent->_Color == _Red;) {

  00097	8b 45 10	 mov	 eax, DWORD PTR __Newnode$[ebp]
  0009a	89 45 fc	 mov	 DWORD PTR __Pnode$3[ebp], eax
$LN4@Insert_nod:
  0009d	8b 45 fc	 mov	 eax, DWORD PTR __Pnode$3[ebp]
  000a0	8b 40 04	 mov	 eax, DWORD PTR [eax+4]
  000a3	0f be 40 0c	 movsx	 eax, BYTE PTR [eax+12]
  000a7	85 c0		 test	 eax, eax
  000a9	0f 85 3f 01 00
	00		 jne	 $LN3@Insert_nod

; 672  :             if (_Pnode->_Parent == _Pnode->_Parent->_Parent->_Left) { // fixup red-red in left subtree

  000af	8b 45 fc	 mov	 eax, DWORD PTR __Pnode$3[ebp]
  000b2	8b 40 04	 mov	 eax, DWORD PTR [eax+4]
  000b5	8b 40 04	 mov	 eax, DWORD PTR [eax+4]
  000b8	8b 4d fc	 mov	 ecx, DWORD PTR __Pnode$3[ebp]
  000bb	8b 49 04	 mov	 ecx, DWORD PTR [ecx+4]
  000be	3b 08		 cmp	 ecx, DWORD PTR [eax]
  000c0	0f 85 95 00 00
	00		 jne	 $LN10@Insert_nod

; 673  :                 const auto _Parent_sibling = _Pnode->_Parent->_Parent->_Right;

  000c6	8b 45 fc	 mov	 eax, DWORD PTR __Pnode$3[ebp]
  000c9	8b 40 04	 mov	 eax, DWORD PTR [eax+4]
  000cc	8b 40 04	 mov	 eax, DWORD PTR [eax+4]
  000cf	8b 40 08	 mov	 eax, DWORD PTR [eax+8]
  000d2	89 45 f0	 mov	 DWORD PTR __Parent_sibling$2[ebp], eax

; 674  :                 if (_Parent_sibling->_Color == _Red) { // parent's sibling has two red children, blacken both

  000d5	8b 45 f0	 mov	 eax, DWORD PTR __Parent_sibling$2[ebp]
  000d8	0f be 40 0c	 movsx	 eax, BYTE PTR [eax+12]
  000dc	85 c0		 test	 eax, eax
  000de	75 2c		 jne	 SHORT $LN12@Insert_nod

; 675  :                     _Pnode->_Parent->_Color          = _Black;

  000e0	8b 45 fc	 mov	 eax, DWORD PTR __Pnode$3[ebp]
  000e3	8b 40 04	 mov	 eax, DWORD PTR [eax+4]
  000e6	c6 40 0c 01	 mov	 BYTE PTR [eax+12], 1

; 676  :                     _Parent_sibling->_Color          = _Black;

  000ea	8b 45 f0	 mov	 eax, DWORD PTR __Parent_sibling$2[ebp]
  000ed	c6 40 0c 01	 mov	 BYTE PTR [eax+12], 1

; 677  :                     _Pnode->_Parent->_Parent->_Color = _Red;

  000f1	8b 45 fc	 mov	 eax, DWORD PTR __Pnode$3[ebp]
  000f4	8b 40 04	 mov	 eax, DWORD PTR [eax+4]
  000f7	8b 40 04	 mov	 eax, DWORD PTR [eax+4]
  000fa	c6 40 0c 00	 mov	 BYTE PTR [eax+12], 0

; 678  :                     _Pnode                           = _Pnode->_Parent->_Parent;

  000fe	8b 45 fc	 mov	 eax, DWORD PTR __Pnode$3[ebp]
  00101	8b 40 04	 mov	 eax, DWORD PTR [eax+4]
  00104	8b 40 04	 mov	 eax, DWORD PTR [eax+4]
  00107	89 45 fc	 mov	 DWORD PTR __Pnode$3[ebp], eax

; 679  :                 } else { // parent's sibling has red and black children

  0010a	eb 4a		 jmp	 SHORT $LN13@Insert_nod
$LN12@Insert_nod:

; 680  :                     if (_Pnode == _Pnode->_Parent->_Right) { // rotate right child to left

  0010c	8b 45 fc	 mov	 eax, DWORD PTR __Pnode$3[ebp]
  0010f	8b 40 04	 mov	 eax, DWORD PTR [eax+4]
  00112	8b 4d fc	 mov	 ecx, DWORD PTR __Pnode$3[ebp]
  00115	3b 48 08	 cmp	 ecx, DWORD PTR [eax+8]
  00118	75 14		 jne	 SHORT $LN14@Insert_nod

; 681  :                         _Pnode = _Pnode->_Parent;

  0011a	8b 45 fc	 mov	 eax, DWORD PTR __Pnode$3[ebp]
  0011d	8b 40 04	 mov	 eax, DWORD PTR [eax+4]
  00120	89 45 fc	 mov	 DWORD PTR __Pnode$3[ebp], eax

; 682  :                         _Lrotate(_Pnode);

  00123	ff 75 fc	 push	 DWORD PTR __Pnode$3[ebp]
  00126	8b 4d f4	 mov	 ecx, DWORD PTR _this$[ebp]
  00129	e8 00 00 00 00	 call	 ?_Lrotate@?$_Tree_val@U?$_Tree_simple_types@U?$pair@$$CBV?$basic_string@DU?$char_traits@D@std@@V?$allocator@D@2@@std@@E@std@@@std@@@std@@QAEXPAU?$_Tree_node@U?$pair@$$CBV?$basic_string@DU?$char_traits@D@std@@V?$allocator@D@2@@std@@E@std@@PAX@2@@Z ; std::_Tree_val<std::_Tree_simple_types<std::pair<std::basic_string<char,std::char_traits<char>,std::allocator<char> > const ,unsigned char> > >::_Lrotate
$LN14@Insert_nod:

; 683  :                     }
; 684  : 
; 685  :                     _Pnode->_Parent->_Color          = _Black; // propagate red up

  0012e	8b 45 fc	 mov	 eax, DWORD PTR __Pnode$3[ebp]
  00131	8b 40 04	 mov	 eax, DWORD PTR [eax+4]
  00134	c6 40 0c 01	 mov	 BYTE PTR [eax+12], 1

; 686  :                     _Pnode->_Parent->_Parent->_Color = _Red;

  00138	8b 45 fc	 mov	 eax, DWORD PTR __Pnode$3[ebp]
  0013b	8b 40 04	 mov	 eax, DWORD PTR [eax+4]
  0013e	8b 40 04	 mov	 eax, DWORD PTR [eax+4]
  00141	c6 40 0c 00	 mov	 BYTE PTR [eax+12], 0

; 687  :                     _Rrotate(_Pnode->_Parent->_Parent);

  00145	8b 45 fc	 mov	 eax, DWORD PTR __Pnode$3[ebp]
  00148	8b 40 04	 mov	 eax, DWORD PTR [eax+4]
  0014b	ff 70 04	 push	 DWORD PTR [eax+4]
  0014e	8b 4d f4	 mov	 ecx, DWORD PTR _this$[ebp]
  00151	e8 00 00 00 00	 call	 ?_Rrotate@?$_Tree_val@U?$_Tree_simple_types@U?$pair@$$CBV?$basic_string@DU?$char_traits@D@std@@V?$allocator@D@2@@std@@E@std@@@std@@@std@@QAEXPAU?$_Tree_node@U?$pair@$$CBV?$basic_string@DU?$char_traits@D@std@@V?$allocator@D@2@@std@@E@std@@PAX@2@@Z ; std::_Tree_val<std::_Tree_simple_types<std::pair<std::basic_string<char,std::char_traits<char>,std::allocator<char> > const ,unsigned char> > >::_Rrotate
$LN13@Insert_nod:

; 688  :                 }
; 689  :             } else { // fixup red-red in right subtree

  00156	e9 8e 00 00 00	 jmp	 $LN11@Insert_nod
$LN10@Insert_nod:

; 690  :                 const auto _Parent_sibling = _Pnode->_Parent->_Parent->_Left;

  0015b	8b 45 fc	 mov	 eax, DWORD PTR __Pnode$3[ebp]
  0015e	8b 40 04	 mov	 eax, DWORD PTR [eax+4]
  00161	8b 40 04	 mov	 eax, DWORD PTR [eax+4]
  00164	8b 00		 mov	 eax, DWORD PTR [eax]
  00166	89 45 ec	 mov	 DWORD PTR __Parent_sibling$1[ebp], eax

; 691  :                 if (_Parent_sibling->_Color == _Red) { // parent's sibling has two red children, blacken both

  00169	8b 45 ec	 mov	 eax, DWORD PTR __Parent_sibling$1[ebp]
  0016c	0f be 40 0c	 movsx	 eax, BYTE PTR [eax+12]
  00170	85 c0		 test	 eax, eax
  00172	75 2c		 jne	 SHORT $LN15@Insert_nod

; 692  :                     _Pnode->_Parent->_Color          = _Black;

  00174	8b 45 fc	 mov	 eax, DWORD PTR __Pnode$3[ebp]
  00177	8b 40 04	 mov	 eax, DWORD PTR [eax+4]
  0017a	c6 40 0c 01	 mov	 BYTE PTR [eax+12], 1

; 693  :                     _Parent_sibling->_Color          = _Black;

  0017e	8b 45 ec	 mov	 eax, DWORD PTR __Parent_sibling$1[ebp]
  00181	c6 40 0c 01	 mov	 BYTE PTR [eax+12], 1

; 694  :                     _Pnode->_Parent->_Parent->_Color = _Red;

  00185	8b 45 fc	 mov	 eax, DWORD PTR __Pnode$3[ebp]
  00188	8b 40 04	 mov	 eax, DWORD PTR [eax+4]
  0018b	8b 40 04	 mov	 eax, DWORD PTR [eax+4]
  0018e	c6 40 0c 00	 mov	 BYTE PTR [eax+12], 0

; 695  :                     _Pnode                           = _Pnode->_Parent->_Parent;

  00192	8b 45 fc	 mov	 eax, DWORD PTR __Pnode$3[ebp]
  00195	8b 40 04	 mov	 eax, DWORD PTR [eax+4]
  00198	8b 40 04	 mov	 eax, DWORD PTR [eax+4]
  0019b	89 45 fc	 mov	 DWORD PTR __Pnode$3[ebp], eax

; 696  :                 } else { // parent's sibling has red and black children

  0019e	eb 49		 jmp	 SHORT $LN11@Insert_nod
$LN15@Insert_nod:

; 697  :                     if (_Pnode == _Pnode->_Parent->_Left) { // rotate left child to right

  001a0	8b 45 fc	 mov	 eax, DWORD PTR __Pnode$3[ebp]
  001a3	8b 40 04	 mov	 eax, DWORD PTR [eax+4]
  001a6	8b 4d fc	 mov	 ecx, DWORD PTR __Pnode$3[ebp]
  001a9	3b 08		 cmp	 ecx, DWORD PTR [eax]
  001ab	75 14		 jne	 SHORT $LN17@Insert_nod

; 698  :                         _Pnode = _Pnode->_Parent;

  001ad	8b 45 fc	 mov	 eax, DWORD PTR __Pnode$3[ebp]
  001b0	8b 40 04	 mov	 eax, DWORD PTR [eax+4]
  001b3	89 45 fc	 mov	 DWORD PTR __Pnode$3[ebp], eax

; 699  :                         _Rrotate(_Pnode);

  001b6	ff 75 fc	 push	 DWORD PTR __Pnode$3[ebp]
  001b9	8b 4d f4	 mov	 ecx, DWORD PTR _this$[ebp]
  001bc	e8 00 00 00 00	 call	 ?_Rrotate@?$_Tree_val@U?$_Tree_simple_types@U?$pair@$$CBV?$basic_string@DU?$char_traits@D@std@@V?$allocator@D@2@@std@@E@std@@@std@@@std@@QAEXPAU?$_Tree_node@U?$pair@$$CBV?$basic_string@DU?$char_traits@D@std@@V?$allocator@D@2@@std@@E@std@@PAX@2@@Z ; std::_Tree_val<std::_Tree_simple_types<std::pair<std::basic_string<char,std::char_traits<char>,std::allocator<char> > const ,unsigned char> > >::_Rrotate
$LN17@Insert_nod:

; 700  :                     }
; 701  : 
; 702  :                     _Pnode->_Parent->_Color          = _Black; // propagate red up

  001c1	8b 45 fc	 mov	 eax, DWORD PTR __Pnode$3[ebp]
  001c4	8b 40 04	 mov	 eax, DWORD PTR [eax+4]
  001c7	c6 40 0c 01	 mov	 BYTE PTR [eax+12], 1

; 703  :                     _Pnode->_Parent->_Parent->_Color = _Red;

  001cb	8b 45 fc	 mov	 eax, DWORD PTR __Pnode$3[ebp]
  001ce	8b 40 04	 mov	 eax, DWORD PTR [eax+4]
  001d1	8b 40 04	 mov	 eax, DWORD PTR [eax+4]
  001d4	c6 40 0c 00	 mov	 BYTE PTR [eax+12], 0

; 704  :                     _Lrotate(_Pnode->_Parent->_Parent);

  001d8	8b 45 fc	 mov	 eax, DWORD PTR __Pnode$3[ebp]
  001db	8b 40 04	 mov	 eax, DWORD PTR [eax+4]
  001de	ff 70 04	 push	 DWORD PTR [eax+4]
  001e1	8b 4d f4	 mov	 ecx, DWORD PTR _this$[ebp]
  001e4	e8 00 00 00 00	 call	 ?_Lrotate@?$_Tree_val@U?$_Tree_simple_types@U?$pair@$$CBV?$basic_string@DU?$char_traits@D@std@@V?$allocator@D@2@@std@@E@std@@@std@@@std@@QAEXPAU?$_Tree_node@U?$pair@$$CBV?$basic_string@DU?$char_traits@D@std@@V?$allocator@D@2@@std@@E@std@@PAX@2@@Z ; std::_Tree_val<std::_Tree_simple_types<std::pair<std::basic_string<char,std::char_traits<char>,std::allocator<char> > const ,unsigned char> > >::_Lrotate
$LN11@Insert_nod:

; 705  :                 }
; 706  :             }
; 707  :         }

  001e9	e9 af fe ff ff	 jmp	 $LN4@Insert_nod
$LN3@Insert_nod:

; 708  : 
; 709  :         _Head->_Parent->_Color = _Black; // root is always black

  001ee	8b 45 f8	 mov	 eax, DWORD PTR __Head$[ebp]
  001f1	8b 40 04	 mov	 eax, DWORD PTR [eax+4]
  001f4	c6 40 0c 01	 mov	 BYTE PTR [eax+12], 1

; 710  :         return _Newnode;

  001f8	8b 45 10	 mov	 eax, DWORD PTR __Newnode$[ebp]
$LN18@Insert_nod:

; 711  :     }

  001fb	c9		 leave
  001fc	c2 0c 00	 ret	 12			; 0000000cH
?_Insert_node@?$_Tree_val@U?$_Tree_simple_types@U?$pair@$$CBV?$basic_string@DU?$char_traits@D@std@@V?$allocator@D@2@@std@@E@std@@@std@@@std@@QAEPAU?$_Tree_node@U?$pair@$$CBV?$basic_string@DU?$char_traits@D@std@@V?$allocator@D@2@@std@@E@std@@PAX@2@U?$_Tree_id@PAU?$_Tree_node@U?$pair@$$CBV?$basic_string@DU?$char_traits@D@std@@V?$allocator@D@2@@std@@E@std@@PAX@std@@@2@QAU32@@Z ENDP ; std::_Tree_val<std::_Tree_simple_types<std::pair<std::basic_string<char,std::char_traits<char>,std::allocator<char> > const ,unsigned char> > >::_Insert_node
_TEXT	ENDS
; Function compile flags: /Odspy
; File C:\Program Files (x86)\Microsoft Visual Studio\2019\Community\VC\Tools\MSVC\14.28.29333\include\xtree
; File C:\Program Files (x86)\Microsoft Visual Studio\2019\Community\VC\Tools\MSVC\14.28.29333\include\type_traits
; File C:\Program Files (x86)\Microsoft Visual Studio\2019\Community\VC\Tools\MSVC\14.28.29333\include\utility
; File C:\Program Files (x86)\Microsoft Visual Studio\2019\Community\VC\Tools\MSVC\14.28.29333\include\type_traits
; File C:\Program Files (x86)\Microsoft Visual Studio\2019\Community\VC\Tools\MSVC\14.28.29333\include\utility
; File C:\Program Files (x86)\Microsoft Visual Studio\2019\Community\VC\Tools\MSVC\14.28.29333\include\type_traits
; File C:\Program Files (x86)\Microsoft Visual Studio\2019\Community\VC\Tools\MSVC\14.28.29333\include\utility
; File C:\Program Files (x86)\Microsoft Visual Studio\2019\Community\VC\Tools\MSVC\14.28.29333\include\xtree
;	COMDAT ?_Extract@?$_Tree_val@U?$_Tree_simple_types@U?$pair@$$CBV?$basic_string@DU?$char_traits@D@std@@V?$allocator@D@2@@std@@E@std@@@std@@@std@@QAEPAU?$_Tree_node@U?$pair@$$CBV?$basic_string@DU?$char_traits@D@std@@V?$allocator@D@2@@std@@E@std@@PAX@2@V?$_Tree_unchecked_const_iterator@V?$_Tree_val@U?$_Tree_simple_types@U?$pair@$$CBV?$basic_string@DU?$char_traits@D@std@@V?$allocator@D@2@@std@@E@std@@@std@@@std@@U_Iterator_base0@2@@2@@Z
_TEXT	SEGMENT
$T1 = -68						; size = 4
$T2 = -64						; size = 4
$T3 = -60						; size = 4
$T4 = -56						; size = 4
$T5 = -52						; size = 4
__Right$ = -48						; size = 4
__Left$ = -44						; size = 4
tv144 = -40						; size = 4
tv133 = -36						; size = 4
__Pnode$ = -32						; size = 4
__Pnode$ = -28						; size = 4
_this$ = -24						; size = 4
__Erasednode$ = -20					; size = 4
__Fixnode$ = -16					; size = 4
__Fixnodeparent$ = -12					; size = 4
__Pnode$ = -8						; size = 4
__Tmp$6 = -1						; size = 1
__Where$ = 8						; size = 4
?_Extract@?$_Tree_val@U?$_Tree_simple_types@U?$pair@$$CBV?$basic_string@DU?$char_traits@D@std@@V?$allocator@D@2@@std@@E@std@@@std@@@std@@QAEPAU?$_Tree_node@U?$pair@$$CBV?$basic_string@DU?$char_traits@D@std@@V?$allocator@D@2@@std@@E@std@@PAX@2@V?$_Tree_unchecked_const_iterator@V?$_Tree_val@U?$_Tree_simple_types@U?$pair@$$CBV?$basic_string@DU?$char_traits@D@std@@V?$allocator@D@2@@std@@E@std@@@std@@@std@@U_Iterator_base0@2@@2@@Z PROC ; std::_Tree_val<std::_Tree_simple_types<std::pair<std::basic_string<char,std::char_traits<char>,std::allocator<char> > const ,unsigned char> > >::_Extract, COMDAT
; _this$ = ecx

; 502  :     _Nodeptr _Extract(_Unchecked_const_iterator _Where) noexcept {

  00000	55		 push	 ebp
  00001	8b ec		 mov	 ebp, esp
  00003	83 ec 44	 sub	 esp, 68			; 00000044H
  00006	89 4d e8	 mov	 DWORD PTR _this$[ebp], ecx

; 503  :         _Nodeptr _Erasednode = _Where._Ptr; // node to erase

  00009	8b 45 08	 mov	 eax, DWORD PTR __Where$[ebp]
  0000c	89 45 ec	 mov	 DWORD PTR __Erasednode$[ebp], eax

; 504  :         ++_Where; // save successor iterator for return

  0000f	8d 4d 08	 lea	 ecx, DWORD PTR __Where$[ebp]
  00012	e8 00 00 00 00	 call	 ??E?$_Tree_unchecked_const_iterator@V?$_Tree_val@U?$_Tree_simple_types@U?$pair@$$CBV?$basic_string@DU?$char_traits@D@std@@V?$allocator@D@2@@std@@E@std@@@std@@@std@@U_Iterator_base0@2@@std@@QAEAAV01@XZ ; std::_Tree_unchecked_const_iterator<std::_Tree_val<std::_Tree_simple_types<std::pair<std::basic_string<char,std::char_traits<char>,std::allocator<char> > const ,unsigned char> > >,std::_Iterator_base0>::operator++

; 505  : 
; 506  :         _Nodeptr _Fixnode; // the node to recolor as needed
; 507  :         _Nodeptr _Fixnodeparent; // parent of _Fixnode (which may be nil)
; 508  :         _Nodeptr _Pnode = _Erasednode;

  00017	8b 45 ec	 mov	 eax, DWORD PTR __Erasednode$[ebp]
  0001a	89 45 f8	 mov	 DWORD PTR __Pnode$[ebp], eax

; 509  : 
; 510  :         if (_Pnode->_Left->_Isnil) {

  0001d	8b 45 f8	 mov	 eax, DWORD PTR __Pnode$[ebp]
  00020	8b 00		 mov	 eax, DWORD PTR [eax]
  00022	0f be 40 0d	 movsx	 eax, BYTE PTR [eax+13]
  00026	85 c0		 test	 eax, eax
  00028	74 0b		 je	 SHORT $LN5@Extract

; 511  :             _Fixnode = _Pnode->_Right; // stitch up right subtree

  0002a	8b 45 f8	 mov	 eax, DWORD PTR __Pnode$[ebp]
  0002d	8b 40 08	 mov	 eax, DWORD PTR [eax+8]
  00030	89 45 f0	 mov	 DWORD PTR __Fixnode$[ebp], eax
  00033	eb 27		 jmp	 SHORT $LN6@Extract
$LN5@Extract:

; 512  :         } else if (_Pnode->_Right->_Isnil) {

  00035	8b 45 f8	 mov	 eax, DWORD PTR __Pnode$[ebp]
  00038	8b 40 08	 mov	 eax, DWORD PTR [eax+8]
  0003b	0f be 40 0d	 movsx	 eax, BYTE PTR [eax+13]
  0003f	85 c0		 test	 eax, eax
  00041	74 0a		 je	 SHORT $LN7@Extract

; 513  :             _Fixnode = _Pnode->_Left; // stitch up left subtree

  00043	8b 45 f8	 mov	 eax, DWORD PTR __Pnode$[ebp]
  00046	8b 00		 mov	 eax, DWORD PTR [eax]
  00048	89 45 f0	 mov	 DWORD PTR __Fixnode$[ebp], eax

; 514  :         } else { // two subtrees, must lift successor node to replace erased

  0004b	eb 0f		 jmp	 SHORT $LN6@Extract
$LN7@Extract:

; 515  :             _Pnode   = _Where._Ptr; // _Pnode is successor node

  0004d	8b 45 08	 mov	 eax, DWORD PTR __Where$[ebp]
  00050	89 45 f8	 mov	 DWORD PTR __Pnode$[ebp], eax

; 516  :             _Fixnode = _Pnode->_Right; // _Fixnode is only subtree

  00053	8b 45 f8	 mov	 eax, DWORD PTR __Pnode$[ebp]
  00056	8b 40 08	 mov	 eax, DWORD PTR [eax+8]
  00059	89 45 f0	 mov	 DWORD PTR __Fixnode$[ebp], eax
$LN6@Extract:

; 517  :         }
; 518  : 
; 519  :         if (_Pnode == _Erasednode) { // at most one subtree, relink it

  0005c	8b 45 f8	 mov	 eax, DWORD PTR __Pnode$[ebp]
  0005f	3b 45 ec	 cmp	 eax, DWORD PTR __Erasednode$[ebp]
  00062	0f 85 01 01 00
	00		 jne	 $LN9@Extract

; 520  :             _Fixnodeparent = _Erasednode->_Parent;

  00068	8b 45 ec	 mov	 eax, DWORD PTR __Erasednode$[ebp]
  0006b	8b 40 04	 mov	 eax, DWORD PTR [eax+4]
  0006e	89 45 f4	 mov	 DWORD PTR __Fixnodeparent$[ebp], eax

; 521  :             if (!_Fixnode->_Isnil) {

  00071	8b 45 f0	 mov	 eax, DWORD PTR __Fixnode$[ebp]
  00074	0f be 40 0d	 movsx	 eax, BYTE PTR [eax+13]
  00078	85 c0		 test	 eax, eax
  0007a	75 09		 jne	 SHORT $LN11@Extract

; 522  :                 _Fixnode->_Parent = _Fixnodeparent; // link up

  0007c	8b 45 f0	 mov	 eax, DWORD PTR __Fixnode$[ebp]
  0007f	8b 4d f4	 mov	 ecx, DWORD PTR __Fixnodeparent$[ebp]
  00082	89 48 04	 mov	 DWORD PTR [eax+4], ecx
$LN11@Extract:

; 523  :             }
; 524  : 
; 525  :             if (_Myhead->_Parent == _Erasednode) {

  00085	8b 45 e8	 mov	 eax, DWORD PTR _this$[ebp]
  00088	8b 00		 mov	 eax, DWORD PTR [eax]
  0008a	8b 40 04	 mov	 eax, DWORD PTR [eax+4]
  0008d	3b 45 ec	 cmp	 eax, DWORD PTR __Erasednode$[ebp]
  00090	75 0d		 jne	 SHORT $LN12@Extract

; 526  :                 _Myhead->_Parent = _Fixnode; // link down from root

  00092	8b 45 e8	 mov	 eax, DWORD PTR _this$[ebp]
  00095	8b 00		 mov	 eax, DWORD PTR [eax]
  00097	8b 4d f0	 mov	 ecx, DWORD PTR __Fixnode$[ebp]
  0009a	89 48 04	 mov	 DWORD PTR [eax+4], ecx
  0009d	eb 1d		 jmp	 SHORT $LN13@Extract
$LN12@Extract:

; 527  :             } else if (_Fixnodeparent->_Left == _Erasednode) {

  0009f	8b 45 f4	 mov	 eax, DWORD PTR __Fixnodeparent$[ebp]
  000a2	8b 00		 mov	 eax, DWORD PTR [eax]
  000a4	3b 45 ec	 cmp	 eax, DWORD PTR __Erasednode$[ebp]
  000a7	75 0a		 jne	 SHORT $LN14@Extract

; 528  :                 _Fixnodeparent->_Left = _Fixnode; // link down to left

  000a9	8b 45 f4	 mov	 eax, DWORD PTR __Fixnodeparent$[ebp]
  000ac	8b 4d f0	 mov	 ecx, DWORD PTR __Fixnode$[ebp]
  000af	89 08		 mov	 DWORD PTR [eax], ecx

; 529  :             } else {

  000b1	eb 09		 jmp	 SHORT $LN13@Extract
$LN14@Extract:

; 530  :                 _Fixnodeparent->_Right = _Fixnode; // link down to right

  000b3	8b 45 f4	 mov	 eax, DWORD PTR __Fixnodeparent$[ebp]
  000b6	8b 4d f0	 mov	 ecx, DWORD PTR __Fixnode$[ebp]
  000b9	89 48 08	 mov	 DWORD PTR [eax+8], ecx
$LN13@Extract:

; 531  :             }
; 532  : 
; 533  :             if (_Myhead->_Left == _Erasednode) {

  000bc	8b 45 e8	 mov	 eax, DWORD PTR _this$[ebp]
  000bf	8b 00		 mov	 eax, DWORD PTR [eax]
  000c1	8b 00		 mov	 eax, DWORD PTR [eax]
  000c3	3b 45 ec	 cmp	 eax, DWORD PTR __Erasednode$[ebp]
  000c6	75 46		 jne	 SHORT $LN16@Extract

; 534  :                 _Myhead->_Left = _Fixnode->_Isnil ? _Fixnodeparent // smallest is parent of erased node

  000c8	8b 45 f0	 mov	 eax, DWORD PTR __Fixnode$[ebp]
  000cb	0f be 40 0d	 movsx	 eax, BYTE PTR [eax+13]
  000cf	85 c0		 test	 eax, eax
  000d1	74 08		 je	 SHORT $LN42@Extract
  000d3	8b 45 f4	 mov	 eax, DWORD PTR __Fixnodeparent$[ebp]
  000d6	89 45 dc	 mov	 DWORD PTR tv133[ebp], eax
  000d9	eb 29		 jmp	 SHORT $LN43@Extract
$LN42@Extract:
  000db	8b 45 f0	 mov	 eax, DWORD PTR __Fixnode$[ebp]
  000de	89 45 e4	 mov	 DWORD PTR __Pnode$[ebp], eax
  000e1	8b 45 c0	 mov	 eax, DWORD PTR $T2[ebp]
  000e4	89 45 dc	 mov	 DWORD PTR tv133[ebp], eax
$LN59@Extract:

; 451  :         while (!_Pnode->_Left->_Isnil) {

  000e7	8b 45 e4	 mov	 eax, DWORD PTR __Pnode$[ebp]
  000ea	8b 00		 mov	 eax, DWORD PTR [eax]
  000ec	0f be 40 0d	 movsx	 eax, BYTE PTR [eax+13]
  000f0	85 c0		 test	 eax, eax
  000f2	75 0a		 jne	 SHORT $LN60@Extract

; 452  :             _Pnode = _Pnode->_Left;

  000f4	8b 45 e4	 mov	 eax, DWORD PTR __Pnode$[ebp]
  000f7	8b 00		 mov	 eax, DWORD PTR [eax]
  000f9	89 45 e4	 mov	 DWORD PTR __Pnode$[ebp], eax

; 453  :         }

  000fc	eb e9		 jmp	 SHORT $LN59@Extract
$LN60@Extract:

; 454  : 
; 455  :         return _Pnode;

  000fe	8b 45 e4	 mov	 eax, DWORD PTR __Pnode$[ebp]
  00101	89 45 dc	 mov	 DWORD PTR tv133[ebp], eax
$LN43@Extract:

; 534  :                 _Myhead->_Left = _Fixnode->_Isnil ? _Fixnodeparent // smallest is parent of erased node

  00104	8b 45 e8	 mov	 eax, DWORD PTR _this$[ebp]
  00107	8b 00		 mov	 eax, DWORD PTR [eax]
  00109	8b 4d dc	 mov	 ecx, DWORD PTR tv133[ebp]
  0010c	89 08		 mov	 DWORD PTR [eax], ecx
$LN16@Extract:

; 535  :                                                   : _Min(_Fixnode); // smallest in relinked subtree
; 536  :             }
; 537  : 
; 538  :             if (_Myhead->_Right == _Erasednode) {

  0010e	8b 45 e8	 mov	 eax, DWORD PTR _this$[ebp]
  00111	8b 00		 mov	 eax, DWORD PTR [eax]
  00113	8b 40 08	 mov	 eax, DWORD PTR [eax+8]
  00116	3b 45 ec	 cmp	 eax, DWORD PTR __Erasednode$[ebp]
  00119	75 49		 jne	 SHORT $LN17@Extract

; 539  :                 _Myhead->_Right = _Fixnode->_Isnil ? _Fixnodeparent // largest is parent of erased node

  0011b	8b 45 f0	 mov	 eax, DWORD PTR __Fixnode$[ebp]
  0011e	0f be 40 0d	 movsx	 eax, BYTE PTR [eax+13]
  00122	85 c0		 test	 eax, eax
  00124	74 08		 je	 SHORT $LN44@Extract
  00126	8b 45 f4	 mov	 eax, DWORD PTR __Fixnodeparent$[ebp]
  00129	89 45 d8	 mov	 DWORD PTR tv144[ebp], eax
  0012c	eb 2b		 jmp	 SHORT $LN45@Extract
$LN44@Extract:
  0012e	8b 45 f0	 mov	 eax, DWORD PTR __Fixnode$[ebp]
  00131	89 45 e0	 mov	 DWORD PTR __Pnode$[ebp], eax
  00134	8b 45 bc	 mov	 eax, DWORD PTR $T1[ebp]
  00137	89 45 d8	 mov	 DWORD PTR tv144[ebp], eax
$LN64@Extract:

; 443  :         while (!_Pnode->_Right->_Isnil) {

  0013a	8b 45 e0	 mov	 eax, DWORD PTR __Pnode$[ebp]
  0013d	8b 40 08	 mov	 eax, DWORD PTR [eax+8]
  00140	0f be 40 0d	 movsx	 eax, BYTE PTR [eax+13]
  00144	85 c0		 test	 eax, eax
  00146	75 0b		 jne	 SHORT $LN65@Extract

; 444  :             _Pnode = _Pnode->_Right;

  00148	8b 45 e0	 mov	 eax, DWORD PTR __Pnode$[ebp]
  0014b	8b 40 08	 mov	 eax, DWORD PTR [eax+8]
  0014e	89 45 e0	 mov	 DWORD PTR __Pnode$[ebp], eax

; 445  :         }

  00151	eb e7		 jmp	 SHORT $LN64@Extract
$LN65@Extract:

; 446  : 
; 447  :         return _Pnode;

  00153	8b 45 e0	 mov	 eax, DWORD PTR __Pnode$[ebp]
  00156	89 45 d8	 mov	 DWORD PTR tv144[ebp], eax
$LN45@Extract:

; 539  :                 _Myhead->_Right = _Fixnode->_Isnil ? _Fixnodeparent // largest is parent of erased node

  00159	8b 45 e8	 mov	 eax, DWORD PTR _this$[ebp]
  0015c	8b 00		 mov	 eax, DWORD PTR [eax]
  0015e	8b 4d d8	 mov	 ecx, DWORD PTR tv144[ebp]
  00161	89 48 08	 mov	 DWORD PTR [eax+8], ecx
$LN17@Extract:

; 540  :                                                    : _Max(_Fixnode); // largest in relinked subtree
; 541  :             }
; 542  :         } else { // erased has two subtrees, _Pnode is successor to erased

  00164	e9 f1 00 00 00	 jmp	 $LN10@Extract
$LN9@Extract:

; 543  :             _Erasednode->_Left->_Parent = _Pnode; // link left up

  00169	8b 45 ec	 mov	 eax, DWORD PTR __Erasednode$[ebp]
  0016c	8b 00		 mov	 eax, DWORD PTR [eax]
  0016e	8b 4d f8	 mov	 ecx, DWORD PTR __Pnode$[ebp]
  00171	89 48 04	 mov	 DWORD PTR [eax+4], ecx

; 544  :             _Pnode->_Left               = _Erasednode->_Left; // link successor down

  00174	8b 45 f8	 mov	 eax, DWORD PTR __Pnode$[ebp]
  00177	8b 4d ec	 mov	 ecx, DWORD PTR __Erasednode$[ebp]
  0017a	8b 09		 mov	 ecx, DWORD PTR [ecx]
  0017c	89 08		 mov	 DWORD PTR [eax], ecx

; 545  : 
; 546  :             if (_Pnode == _Erasednode->_Right) {

  0017e	8b 45 ec	 mov	 eax, DWORD PTR __Erasednode$[ebp]
  00181	8b 4d f8	 mov	 ecx, DWORD PTR __Pnode$[ebp]
  00184	3b 48 08	 cmp	 ecx, DWORD PTR [eax+8]
  00187	75 08		 jne	 SHORT $LN18@Extract

; 547  :                 _Fixnodeparent = _Pnode; // successor is next to erased

  00189	8b 45 f8	 mov	 eax, DWORD PTR __Pnode$[ebp]
  0018c	89 45 f4	 mov	 DWORD PTR __Fixnodeparent$[ebp], eax

; 548  :             } else { // successor further down, link in place of erased

  0018f	eb 3d		 jmp	 SHORT $LN19@Extract
$LN18@Extract:

; 549  :                 _Fixnodeparent = _Pnode->_Parent; // parent is successor's

  00191	8b 45 f8	 mov	 eax, DWORD PTR __Pnode$[ebp]
  00194	8b 40 04	 mov	 eax, DWORD PTR [eax+4]
  00197	89 45 f4	 mov	 DWORD PTR __Fixnodeparent$[ebp], eax

; 550  :                 if (!_Fixnode->_Isnil) {

  0019a	8b 45 f0	 mov	 eax, DWORD PTR __Fixnode$[ebp]
  0019d	0f be 40 0d	 movsx	 eax, BYTE PTR [eax+13]
  001a1	85 c0		 test	 eax, eax
  001a3	75 09		 jne	 SHORT $LN20@Extract

; 551  :                     _Fixnode->_Parent = _Fixnodeparent; // link fix up

  001a5	8b 45 f0	 mov	 eax, DWORD PTR __Fixnode$[ebp]
  001a8	8b 4d f4	 mov	 ecx, DWORD PTR __Fixnodeparent$[ebp]
  001ab	89 48 04	 mov	 DWORD PTR [eax+4], ecx
$LN20@Extract:

; 552  :                 }
; 553  : 
; 554  :                 _Fixnodeparent->_Left        = _Fixnode; // link fix down

  001ae	8b 45 f4	 mov	 eax, DWORD PTR __Fixnodeparent$[ebp]
  001b1	8b 4d f0	 mov	 ecx, DWORD PTR __Fixnode$[ebp]
  001b4	89 08		 mov	 DWORD PTR [eax], ecx

; 555  :                 _Pnode->_Right               = _Erasednode->_Right; // link next down

  001b6	8b 45 f8	 mov	 eax, DWORD PTR __Pnode$[ebp]
  001b9	8b 4d ec	 mov	 ecx, DWORD PTR __Erasednode$[ebp]
  001bc	8b 49 08	 mov	 ecx, DWORD PTR [ecx+8]
  001bf	89 48 08	 mov	 DWORD PTR [eax+8], ecx

; 556  :                 _Erasednode->_Right->_Parent = _Pnode; // right up

  001c2	8b 45 ec	 mov	 eax, DWORD PTR __Erasednode$[ebp]
  001c5	8b 40 08	 mov	 eax, DWORD PTR [eax+8]
  001c8	8b 4d f8	 mov	 ecx, DWORD PTR __Pnode$[ebp]
  001cb	89 48 04	 mov	 DWORD PTR [eax+4], ecx
$LN19@Extract:

; 557  :             }
; 558  : 
; 559  :             if (_Myhead->_Parent == _Erasednode) {

  001ce	8b 45 e8	 mov	 eax, DWORD PTR _this$[ebp]
  001d1	8b 00		 mov	 eax, DWORD PTR [eax]
  001d3	8b 40 04	 mov	 eax, DWORD PTR [eax+4]
  001d6	3b 45 ec	 cmp	 eax, DWORD PTR __Erasednode$[ebp]
  001d9	75 0d		 jne	 SHORT $LN21@Extract

; 560  :                 _Myhead->_Parent = _Pnode; // link down from root

  001db	8b 45 e8	 mov	 eax, DWORD PTR _this$[ebp]
  001de	8b 00		 mov	 eax, DWORD PTR [eax]
  001e0	8b 4d f8	 mov	 ecx, DWORD PTR __Pnode$[ebp]
  001e3	89 48 04	 mov	 DWORD PTR [eax+4], ecx
  001e6	eb 26		 jmp	 SHORT $LN22@Extract
$LN21@Extract:

; 561  :             } else if (_Erasednode->_Parent->_Left == _Erasednode) {

  001e8	8b 45 ec	 mov	 eax, DWORD PTR __Erasednode$[ebp]
  001eb	8b 40 04	 mov	 eax, DWORD PTR [eax+4]
  001ee	8b 00		 mov	 eax, DWORD PTR [eax]
  001f0	3b 45 ec	 cmp	 eax, DWORD PTR __Erasednode$[ebp]
  001f3	75 0d		 jne	 SHORT $LN23@Extract

; 562  :                 _Erasednode->_Parent->_Left = _Pnode; // link down to left

  001f5	8b 45 ec	 mov	 eax, DWORD PTR __Erasednode$[ebp]
  001f8	8b 40 04	 mov	 eax, DWORD PTR [eax+4]
  001fb	8b 4d f8	 mov	 ecx, DWORD PTR __Pnode$[ebp]
  001fe	89 08		 mov	 DWORD PTR [eax], ecx

; 563  :             } else {

  00200	eb 0c		 jmp	 SHORT $LN22@Extract
$LN23@Extract:

; 564  :                 _Erasednode->_Parent->_Right = _Pnode; // link down to right

  00202	8b 45 ec	 mov	 eax, DWORD PTR __Erasednode$[ebp]
  00205	8b 40 04	 mov	 eax, DWORD PTR [eax+4]
  00208	8b 4d f8	 mov	 ecx, DWORD PTR __Pnode$[ebp]
  0020b	89 48 08	 mov	 DWORD PTR [eax+8], ecx
$LN22@Extract:

; 565  :             }
; 566  : 
; 567  :             _Pnode->_Parent = _Erasednode->_Parent; // link successor up

  0020e	8b 45 f8	 mov	 eax, DWORD PTR __Pnode$[ebp]
  00211	8b 4d ec	 mov	 ecx, DWORD PTR __Erasednode$[ebp]
  00214	8b 49 04	 mov	 ecx, DWORD PTR [ecx+4]
  00217	89 48 04	 mov	 DWORD PTR [eax+4], ecx

; 568  :             _STD swap(_Pnode->_Color, _Erasednode->_Color); // recolor it

  0021a	8b 45 ec	 mov	 eax, DWORD PTR __Erasednode$[ebp]
  0021d	83 c0 0c	 add	 eax, 12			; 0000000cH
  00220	89 45 d0	 mov	 DWORD PTR __Right$[ebp], eax
  00223	8b 45 f8	 mov	 eax, DWORD PTR __Pnode$[ebp]
  00226	83 c0 0c	 add	 eax, 12			; 0000000cH
  00229	89 45 d4	 mov	 DWORD PTR __Left$[ebp], eax
; File C:\Program Files (x86)\Microsoft Visual Studio\2019\Community\VC\Tools\MSVC\14.28.29333\include\type_traits

; 1455 :     return static_cast<remove_reference_t<_Ty>&&>(_Arg);

  0022c	8b 45 d4	 mov	 eax, DWORD PTR __Left$[ebp]
  0022f	89 45 cc	 mov	 DWORD PTR $T5[ebp], eax
; File C:\Program Files (x86)\Microsoft Visual Studio\2019\Community\VC\Tools\MSVC\14.28.29333\include\utility

; 104  :     _Ty _Tmp = _STD move(_Left);

  00232	8b 45 cc	 mov	 eax, DWORD PTR $T5[ebp]
  00235	8a 00		 mov	 al, BYTE PTR [eax]
  00237	88 45 ff	 mov	 BYTE PTR __Tmp$6[ebp], al
; File C:\Program Files (x86)\Microsoft Visual Studio\2019\Community\VC\Tools\MSVC\14.28.29333\include\type_traits

; 1455 :     return static_cast<remove_reference_t<_Ty>&&>(_Arg);

  0023a	8b 45 d0	 mov	 eax, DWORD PTR __Right$[ebp]
  0023d	89 45 c8	 mov	 DWORD PTR $T4[ebp], eax
; File C:\Program Files (x86)\Microsoft Visual Studio\2019\Community\VC\Tools\MSVC\14.28.29333\include\utility

; 105  :     _Left    = _STD move(_Right);

  00240	8b 45 d4	 mov	 eax, DWORD PTR __Left$[ebp]
  00243	8b 4d c8	 mov	 ecx, DWORD PTR $T4[ebp]
  00246	8a 09		 mov	 cl, BYTE PTR [ecx]
  00248	88 08		 mov	 BYTE PTR [eax], cl
; File C:\Program Files (x86)\Microsoft Visual Studio\2019\Community\VC\Tools\MSVC\14.28.29333\include\type_traits

; 1455 :     return static_cast<remove_reference_t<_Ty>&&>(_Arg);

  0024a	8d 45 ff	 lea	 eax, DWORD PTR __Tmp$6[ebp]
  0024d	89 45 c4	 mov	 DWORD PTR $T3[ebp], eax
; File C:\Program Files (x86)\Microsoft Visual Studio\2019\Community\VC\Tools\MSVC\14.28.29333\include\utility

; 106  :     _Right   = _STD move(_Tmp);

  00250	8b 45 d0	 mov	 eax, DWORD PTR __Right$[ebp]
  00253	8b 4d c4	 mov	 ecx, DWORD PTR $T3[ebp]
  00256	8a 09		 mov	 cl, BYTE PTR [ecx]
  00258	88 08		 mov	 BYTE PTR [eax], cl
$LN10@Extract:
; File C:\Program Files (x86)\Microsoft Visual Studio\2019\Community\VC\Tools\MSVC\14.28.29333\include\xtree

; 571  :         if (_Erasednode->_Color == _Black) { // erasing black link, must recolor/rebalance tree

  0025a	8b 45 ec	 mov	 eax, DWORD PTR __Erasednode$[ebp]
  0025d	0f be 40 0c	 movsx	 eax, BYTE PTR [eax+12]
  00261	83 f8 01	 cmp	 eax, 1
  00264	0f 85 f4 01 00
	00		 jne	 $LN25@Extract

; 572  :             for (; _Fixnode != _Myhead->_Parent && _Fixnode->_Color == _Black; _Fixnodeparent = _Fixnode->_Parent) {

  0026a	eb 09		 jmp	 SHORT $LN4@Extract
$LN2@Extract:
  0026c	8b 45 f0	 mov	 eax, DWORD PTR __Fixnode$[ebp]
  0026f	8b 40 04	 mov	 eax, DWORD PTR [eax+4]
  00272	89 45 f4	 mov	 DWORD PTR __Fixnodeparent$[ebp], eax
$LN4@Extract:
  00275	8b 45 e8	 mov	 eax, DWORD PTR _this$[ebp]
  00278	8b 00		 mov	 eax, DWORD PTR [eax]
  0027a	8b 4d f0	 mov	 ecx, DWORD PTR __Fixnode$[ebp]
  0027d	3b 48 04	 cmp	 ecx, DWORD PTR [eax+4]
  00280	0f 84 d1 01 00
	00		 je	 $LN3@Extract
  00286	8b 45 f0	 mov	 eax, DWORD PTR __Fixnode$[ebp]
  00289	0f be 40 0c	 movsx	 eax, BYTE PTR [eax+12]
  0028d	83 f8 01	 cmp	 eax, 1
  00290	0f 85 c1 01 00
	00		 jne	 $LN3@Extract

; 573  :                 if (_Fixnode == _Fixnodeparent->_Left) { // fixup left subtree

  00296	8b 45 f4	 mov	 eax, DWORD PTR __Fixnodeparent$[ebp]
  00299	8b 4d f0	 mov	 ecx, DWORD PTR __Fixnode$[ebp]
  0029c	3b 08		 cmp	 ecx, DWORD PTR [eax]
  0029e	0f 85 dd 00 00
	00		 jne	 $LN26@Extract

; 574  :                     _Pnode = _Fixnodeparent->_Right;

  002a4	8b 45 f4	 mov	 eax, DWORD PTR __Fixnodeparent$[ebp]
  002a7	8b 40 08	 mov	 eax, DWORD PTR [eax+8]
  002aa	89 45 f8	 mov	 DWORD PTR __Pnode$[ebp], eax

; 575  :                     if (_Pnode->_Color == _Red) { // rotate red up from right subtree

  002ad	8b 45 f8	 mov	 eax, DWORD PTR __Pnode$[ebp]
  002b0	0f be 40 0c	 movsx	 eax, BYTE PTR [eax+12]
  002b4	85 c0		 test	 eax, eax
  002b6	75 22		 jne	 SHORT $LN28@Extract

; 576  :                         _Pnode->_Color         = _Black;

  002b8	8b 45 f8	 mov	 eax, DWORD PTR __Pnode$[ebp]
  002bb	c6 40 0c 01	 mov	 BYTE PTR [eax+12], 1

; 577  :                         _Fixnodeparent->_Color = _Red;

  002bf	8b 45 f4	 mov	 eax, DWORD PTR __Fixnodeparent$[ebp]
  002c2	c6 40 0c 00	 mov	 BYTE PTR [eax+12], 0

; 578  :                         _Lrotate(_Fixnodeparent);

  002c6	ff 75 f4	 push	 DWORD PTR __Fixnodeparent$[ebp]
  002c9	8b 4d e8	 mov	 ecx, DWORD PTR _this$[ebp]
  002cc	e8 00 00 00 00	 call	 ?_Lrotate@?$_Tree_val@U?$_Tree_simple_types@U?$pair@$$CBV?$basic_string@DU?$char_traits@D@std@@V?$allocator@D@2@@std@@E@std@@@std@@@std@@QAEXPAU?$_Tree_node@U?$pair@$$CBV?$basic_string@DU?$char_traits@D@std@@V?$allocator@D@2@@std@@E@std@@PAX@2@@Z ; std::_Tree_val<std::_Tree_simple_types<std::pair<std::basic_string<char,std::char_traits<char>,std::allocator<char> > const ,unsigned char> > >::_Lrotate

; 579  :                         _Pnode = _Fixnodeparent->_Right;

  002d1	8b 45 f4	 mov	 eax, DWORD PTR __Fixnodeparent$[ebp]
  002d4	8b 40 08	 mov	 eax, DWORD PTR [eax+8]
  002d7	89 45 f8	 mov	 DWORD PTR __Pnode$[ebp], eax
$LN28@Extract:

; 580  :                     }
; 581  : 
; 582  :                     if (_Pnode->_Isnil) {

  002da	8b 45 f8	 mov	 eax, DWORD PTR __Pnode$[ebp]
  002dd	0f be 40 0d	 movsx	 eax, BYTE PTR [eax+13]
  002e1	85 c0		 test	 eax, eax
  002e3	74 0b		 je	 SHORT $LN29@Extract

; 583  :                         _Fixnode = _Fixnodeparent; // shouldn't happen

  002e5	8b 45 f4	 mov	 eax, DWORD PTR __Fixnodeparent$[ebp]
  002e8	89 45 f0	 mov	 DWORD PTR __Fixnode$[ebp], eax

; 584  :                     } else if (_Pnode->_Left->_Color == _Black

  002eb	e9 8c 00 00 00	 jmp	 $LN30@Extract
$LN29@Extract:

; 585  :                                && _Pnode->_Right->_Color == _Black) { // redden right subtree with black children

  002f0	8b 45 f8	 mov	 eax, DWORD PTR __Pnode$[ebp]
  002f3	8b 00		 mov	 eax, DWORD PTR [eax]
  002f5	0f be 40 0c	 movsx	 eax, BYTE PTR [eax+12]
  002f9	83 f8 01	 cmp	 eax, 1
  002fc	75 1e		 jne	 SHORT $LN31@Extract
  002fe	8b 45 f8	 mov	 eax, DWORD PTR __Pnode$[ebp]
  00301	8b 40 08	 mov	 eax, DWORD PTR [eax+8]
  00304	0f be 40 0c	 movsx	 eax, BYTE PTR [eax+12]
  00308	83 f8 01	 cmp	 eax, 1
  0030b	75 0f		 jne	 SHORT $LN31@Extract

; 586  :                         _Pnode->_Color = _Red;

  0030d	8b 45 f8	 mov	 eax, DWORD PTR __Pnode$[ebp]
  00310	c6 40 0c 00	 mov	 BYTE PTR [eax+12], 0

; 587  :                         _Fixnode       = _Fixnodeparent;

  00314	8b 45 f4	 mov	 eax, DWORD PTR __Fixnodeparent$[ebp]
  00317	89 45 f0	 mov	 DWORD PTR __Fixnode$[ebp], eax

; 588  :                     } else { // must rearrange right subtree

  0031a	eb 60		 jmp	 SHORT $LN30@Extract
$LN31@Extract:

; 589  :                         if (_Pnode->_Right->_Color == _Black) { // rotate red up from left sub-subtree

  0031c	8b 45 f8	 mov	 eax, DWORD PTR __Pnode$[ebp]
  0031f	8b 40 08	 mov	 eax, DWORD PTR [eax+8]
  00322	0f be 40 0c	 movsx	 eax, BYTE PTR [eax+12]
  00326	83 f8 01	 cmp	 eax, 1
  00329	75 24		 jne	 SHORT $LN33@Extract

; 590  :                             _Pnode->_Left->_Color = _Black;

  0032b	8b 45 f8	 mov	 eax, DWORD PTR __Pnode$[ebp]
  0032e	8b 00		 mov	 eax, DWORD PTR [eax]
  00330	c6 40 0c 01	 mov	 BYTE PTR [eax+12], 1

; 591  :                             _Pnode->_Color        = _Red;

  00334	8b 45 f8	 mov	 eax, DWORD PTR __Pnode$[ebp]
  00337	c6 40 0c 00	 mov	 BYTE PTR [eax+12], 0

; 592  :                             _Rrotate(_Pnode);

  0033b	ff 75 f8	 push	 DWORD PTR __Pnode$[ebp]
  0033e	8b 4d e8	 mov	 ecx, DWORD PTR _this$[ebp]
  00341	e8 00 00 00 00	 call	 ?_Rrotate@?$_Tree_val@U?$_Tree_simple_types@U?$pair@$$CBV?$basic_string@DU?$char_traits@D@std@@V?$allocator@D@2@@std@@E@std@@@std@@@std@@QAEXPAU?$_Tree_node@U?$pair@$$CBV?$basic_string@DU?$char_traits@D@std@@V?$allocator@D@2@@std@@E@std@@PAX@2@@Z ; std::_Tree_val<std::_Tree_simple_types<std::pair<std::basic_string<char,std::char_traits<char>,std::allocator<char> > const ,unsigned char> > >::_Rrotate

; 593  :                             _Pnode = _Fixnodeparent->_Right;

  00346	8b 45 f4	 mov	 eax, DWORD PTR __Fixnodeparent$[ebp]
  00349	8b 40 08	 mov	 eax, DWORD PTR [eax+8]
  0034c	89 45 f8	 mov	 DWORD PTR __Pnode$[ebp], eax
$LN33@Extract:

; 594  :                         }
; 595  : 
; 596  :                         _Pnode->_Color         = _Fixnodeparent->_Color;

  0034f	8b 45 f8	 mov	 eax, DWORD PTR __Pnode$[ebp]
  00352	8b 4d f4	 mov	 ecx, DWORD PTR __Fixnodeparent$[ebp]
  00355	8a 49 0c	 mov	 cl, BYTE PTR [ecx+12]
  00358	88 48 0c	 mov	 BYTE PTR [eax+12], cl

; 597  :                         _Fixnodeparent->_Color = _Black;

  0035b	8b 45 f4	 mov	 eax, DWORD PTR __Fixnodeparent$[ebp]
  0035e	c6 40 0c 01	 mov	 BYTE PTR [eax+12], 1

; 598  :                         _Pnode->_Right->_Color = _Black;

  00362	8b 45 f8	 mov	 eax, DWORD PTR __Pnode$[ebp]
  00365	8b 40 08	 mov	 eax, DWORD PTR [eax+8]
  00368	c6 40 0c 01	 mov	 BYTE PTR [eax+12], 1

; 599  :                         _Lrotate(_Fixnodeparent);

  0036c	ff 75 f4	 push	 DWORD PTR __Fixnodeparent$[ebp]
  0036f	8b 4d e8	 mov	 ecx, DWORD PTR _this$[ebp]
  00372	e8 00 00 00 00	 call	 ?_Lrotate@?$_Tree_val@U?$_Tree_simple_types@U?$pair@$$CBV?$basic_string@DU?$char_traits@D@std@@V?$allocator@D@2@@std@@E@std@@@std@@@std@@QAEXPAU?$_Tree_node@U?$pair@$$CBV?$basic_string@DU?$char_traits@D@std@@V?$allocator@D@2@@std@@E@std@@PAX@2@@Z ; std::_Tree_val<std::_Tree_simple_types<std::pair<std::basic_string<char,std::char_traits<char>,std::allocator<char> > const ,unsigned char> > >::_Lrotate

; 600  :                         break; // tree now recolored/rebalanced

  00377	e9 db 00 00 00	 jmp	 $LN3@Extract
$LN30@Extract:

; 601  :                     }
; 602  :                 } else { // fixup right subtree

  0037c	e9 d1 00 00 00	 jmp	 $LN27@Extract
$LN26@Extract:

; 603  :                     _Pnode = _Fixnodeparent->_Left;

  00381	8b 45 f4	 mov	 eax, DWORD PTR __Fixnodeparent$[ebp]
  00384	8b 00		 mov	 eax, DWORD PTR [eax]
  00386	89 45 f8	 mov	 DWORD PTR __Pnode$[ebp], eax

; 604  :                     if (_Pnode->_Color == _Red) { // rotate red up from left subtree

  00389	8b 45 f8	 mov	 eax, DWORD PTR __Pnode$[ebp]
  0038c	0f be 40 0c	 movsx	 eax, BYTE PTR [eax+12]
  00390	85 c0		 test	 eax, eax
  00392	75 21		 jne	 SHORT $LN34@Extract

; 605  :                         _Pnode->_Color         = _Black;

  00394	8b 45 f8	 mov	 eax, DWORD PTR __Pnode$[ebp]
  00397	c6 40 0c 01	 mov	 BYTE PTR [eax+12], 1

; 606  :                         _Fixnodeparent->_Color = _Red;

  0039b	8b 45 f4	 mov	 eax, DWORD PTR __Fixnodeparent$[ebp]
  0039e	c6 40 0c 00	 mov	 BYTE PTR [eax+12], 0

; 607  :                         _Rrotate(_Fixnodeparent);

  003a2	ff 75 f4	 push	 DWORD PTR __Fixnodeparent$[ebp]
  003a5	8b 4d e8	 mov	 ecx, DWORD PTR _this$[ebp]
  003a8	e8 00 00 00 00	 call	 ?_Rrotate@?$_Tree_val@U?$_Tree_simple_types@U?$pair@$$CBV?$basic_string@DU?$char_traits@D@std@@V?$allocator@D@2@@std@@E@std@@@std@@@std@@QAEXPAU?$_Tree_node@U?$pair@$$CBV?$basic_string@DU?$char_traits@D@std@@V?$allocator@D@2@@std@@E@std@@PAX@2@@Z ; std::_Tree_val<std::_Tree_simple_types<std::pair<std::basic_string<char,std::char_traits<char>,std::allocator<char> > const ,unsigned char> > >::_Rrotate

; 608  :                         _Pnode = _Fixnodeparent->_Left;

  003ad	8b 45 f4	 mov	 eax, DWORD PTR __Fixnodeparent$[ebp]
  003b0	8b 00		 mov	 eax, DWORD PTR [eax]
  003b2	89 45 f8	 mov	 DWORD PTR __Pnode$[ebp], eax
$LN34@Extract:

; 609  :                     }
; 610  : 
; 611  :                     if (_Pnode->_Isnil) {

  003b5	8b 45 f8	 mov	 eax, DWORD PTR __Pnode$[ebp]
  003b8	0f be 40 0d	 movsx	 eax, BYTE PTR [eax+13]
  003bc	85 c0		 test	 eax, eax
  003be	74 0b		 je	 SHORT $LN35@Extract

; 612  :                         _Fixnode = _Fixnodeparent; // shouldn't happen

  003c0	8b 45 f4	 mov	 eax, DWORD PTR __Fixnodeparent$[ebp]
  003c3	89 45 f0	 mov	 DWORD PTR __Fixnode$[ebp], eax

; 613  :                     } else if (_Pnode->_Right->_Color == _Black

  003c6	e9 87 00 00 00	 jmp	 $LN27@Extract
$LN35@Extract:

; 614  :                                && _Pnode->_Left->_Color == _Black) { // redden left subtree with black children

  003cb	8b 45 f8	 mov	 eax, DWORD PTR __Pnode$[ebp]
  003ce	8b 40 08	 mov	 eax, DWORD PTR [eax+8]
  003d1	0f be 40 0c	 movsx	 eax, BYTE PTR [eax+12]
  003d5	83 f8 01	 cmp	 eax, 1
  003d8	75 1d		 jne	 SHORT $LN37@Extract
  003da	8b 45 f8	 mov	 eax, DWORD PTR __Pnode$[ebp]
  003dd	8b 00		 mov	 eax, DWORD PTR [eax]
  003df	0f be 40 0c	 movsx	 eax, BYTE PTR [eax+12]
  003e3	83 f8 01	 cmp	 eax, 1
  003e6	75 0f		 jne	 SHORT $LN37@Extract

; 615  :                         _Pnode->_Color = _Red;

  003e8	8b 45 f8	 mov	 eax, DWORD PTR __Pnode$[ebp]
  003eb	c6 40 0c 00	 mov	 BYTE PTR [eax+12], 0

; 616  :                         _Fixnode       = _Fixnodeparent;

  003ef	8b 45 f4	 mov	 eax, DWORD PTR __Fixnodeparent$[ebp]
  003f2	89 45 f0	 mov	 DWORD PTR __Fixnode$[ebp], eax

; 617  :                     } else { // must rearrange left subtree

  003f5	eb 5b		 jmp	 SHORT $LN27@Extract
$LN37@Extract:

; 618  :                         if (_Pnode->_Left->_Color == _Black) { // rotate red up from right sub-subtree

  003f7	8b 45 f8	 mov	 eax, DWORD PTR __Pnode$[ebp]
  003fa	8b 00		 mov	 eax, DWORD PTR [eax]
  003fc	0f be 40 0c	 movsx	 eax, BYTE PTR [eax+12]
  00400	83 f8 01	 cmp	 eax, 1
  00403	75 24		 jne	 SHORT $LN39@Extract

; 619  :                             _Pnode->_Right->_Color = _Black;

  00405	8b 45 f8	 mov	 eax, DWORD PTR __Pnode$[ebp]
  00408	8b 40 08	 mov	 eax, DWORD PTR [eax+8]
  0040b	c6 40 0c 01	 mov	 BYTE PTR [eax+12], 1

; 620  :                             _Pnode->_Color         = _Red;

  0040f	8b 45 f8	 mov	 eax, DWORD PTR __Pnode$[ebp]
  00412	c6 40 0c 00	 mov	 BYTE PTR [eax+12], 0

; 621  :                             _Lrotate(_Pnode);

  00416	ff 75 f8	 push	 DWORD PTR __Pnode$[ebp]
  00419	8b 4d e8	 mov	 ecx, DWORD PTR _this$[ebp]
  0041c	e8 00 00 00 00	 call	 ?_Lrotate@?$_Tree_val@U?$_Tree_simple_types@U?$pair@$$CBV?$basic_string@DU?$char_traits@D@std@@V?$allocator@D@2@@std@@E@std@@@std@@@std@@QAEXPAU?$_Tree_node@U?$pair@$$CBV?$basic_string@DU?$char_traits@D@std@@V?$allocator@D@2@@std@@E@std@@PAX@2@@Z ; std::_Tree_val<std::_Tree_simple_types<std::pair<std::basic_string<char,std::char_traits<char>,std::allocator<char> > const ,unsigned char> > >::_Lrotate

; 622  :                             _Pnode = _Fixnodeparent->_Left;

  00421	8b 45 f4	 mov	 eax, DWORD PTR __Fixnodeparent$[ebp]
  00424	8b 00		 mov	 eax, DWORD PTR [eax]
  00426	89 45 f8	 mov	 DWORD PTR __Pnode$[ebp], eax
$LN39@Extract:

; 623  :                         }
; 624  : 
; 625  :                         _Pnode->_Color         = _Fixnodeparent->_Color;

  00429	8b 45 f8	 mov	 eax, DWORD PTR __Pnode$[ebp]
  0042c	8b 4d f4	 mov	 ecx, DWORD PTR __Fixnodeparent$[ebp]
  0042f	8a 49 0c	 mov	 cl, BYTE PTR [ecx+12]
  00432	88 48 0c	 mov	 BYTE PTR [eax+12], cl

; 626  :                         _Fixnodeparent->_Color = _Black;

  00435	8b 45 f4	 mov	 eax, DWORD PTR __Fixnodeparent$[ebp]
  00438	c6 40 0c 01	 mov	 BYTE PTR [eax+12], 1

; 627  :                         _Pnode->_Left->_Color  = _Black;

  0043c	8b 45 f8	 mov	 eax, DWORD PTR __Pnode$[ebp]
  0043f	8b 00		 mov	 eax, DWORD PTR [eax]
  00441	c6 40 0c 01	 mov	 BYTE PTR [eax+12], 1

; 628  :                         _Rrotate(_Fixnodeparent);

  00445	ff 75 f4	 push	 DWORD PTR __Fixnodeparent$[ebp]
  00448	8b 4d e8	 mov	 ecx, DWORD PTR _this$[ebp]
  0044b	e8 00 00 00 00	 call	 ?_Rrotate@?$_Tree_val@U?$_Tree_simple_types@U?$pair@$$CBV?$basic_string@DU?$char_traits@D@std@@V?$allocator@D@2@@std@@E@std@@@std@@@std@@QAEXPAU?$_Tree_node@U?$pair@$$CBV?$basic_string@DU?$char_traits@D@std@@V?$allocator@D@2@@std@@E@std@@PAX@2@@Z ; std::_Tree_val<std::_Tree_simple_types<std::pair<std::basic_string<char,std::char_traits<char>,std::allocator<char> > const ,unsigned char> > >::_Rrotate

; 629  :                         break; // tree now recolored/rebalanced

  00450	eb 05		 jmp	 SHORT $LN3@Extract
$LN27@Extract:

; 630  :                     }
; 631  :                 }
; 632  :             }

  00452	e9 15 fe ff ff	 jmp	 $LN2@Extract
$LN3@Extract:

; 633  : 
; 634  :             _Fixnode->_Color = _Black; // stopping node is black

  00457	8b 45 f0	 mov	 eax, DWORD PTR __Fixnode$[ebp]
  0045a	c6 40 0c 01	 mov	 BYTE PTR [eax+12], 1
$LN25@Extract:

; 635  :         }
; 636  : 
; 637  :         if (0 < _Mysize) {

  0045e	8b 45 e8	 mov	 eax, DWORD PTR _this$[ebp]
  00461	83 78 04 00	 cmp	 DWORD PTR [eax+4], 0
  00465	76 0d		 jbe	 SHORT $LN40@Extract

; 638  :             --_Mysize;

  00467	8b 45 e8	 mov	 eax, DWORD PTR _this$[ebp]
  0046a	8b 40 04	 mov	 eax, DWORD PTR [eax+4]
  0046d	48		 dec	 eax
  0046e	8b 4d e8	 mov	 ecx, DWORD PTR _this$[ebp]
  00471	89 41 04	 mov	 DWORD PTR [ecx+4], eax
$LN40@Extract:

; 639  :         }
; 640  : 
; 641  :         return _Erasednode;

  00474	8b 45 ec	 mov	 eax, DWORD PTR __Erasednode$[ebp]

; 642  :     }

  00477	c9		 leave
  00478	c2 04 00	 ret	 4
?_Extract@?$_Tree_val@U?$_Tree_simple_types@U?$pair@$$CBV?$basic_string@DU?$char_traits@D@std@@V?$allocator@D@2@@std@@E@std@@@std@@@std@@QAEPAU?$_Tree_node@U?$pair@$$CBV?$basic_string@DU?$char_traits@D@std@@V?$allocator@D@2@@std@@E@std@@PAX@2@V?$_Tree_unchecked_const_iterator@V?$_Tree_val@U?$_Tree_simple_types@U?$pair@$$CBV?$basic_string@DU?$char_traits@D@std@@V?$allocator@D@2@@std@@E@std@@@std@@@std@@U_Iterator_base0@2@@2@@Z ENDP ; std::_Tree_val<std::_Tree_simple_types<std::pair<std::basic_string<char,std::char_traits<char>,std::allocator<char> > const ,unsigned char> > >::_Extract
_TEXT	ENDS
; Function compile flags: /Odspy
; File C:\Program Files (x86)\Microsoft Visual Studio\2019\Community\VC\Tools\MSVC\14.28.29333\include\xtree
;	COMDAT ?_Rrotate@?$_Tree_val@U?$_Tree_simple_types@U?$pair@$$CBV?$basic_string@DU?$char_traits@D@std@@V?$allocator@D@2@@std@@E@std@@@std@@@std@@QAEXPAU?$_Tree_node@U?$pair@$$CBV?$basic_string@DU?$char_traits@D@std@@V?$allocator@D@2@@std@@E@std@@PAX@2@@Z
_TEXT	SEGMENT
_this$ = -8						; size = 4
__Pnode$ = -4						; size = 4
__Wherenode$ = 8					; size = 4
?_Rrotate@?$_Tree_val@U?$_Tree_simple_types@U?$pair@$$CBV?$basic_string@DU?$char_traits@D@std@@V?$allocator@D@2@@std@@E@std@@@std@@@std@@QAEXPAU?$_Tree_node@U?$pair@$$CBV?$basic_string@DU?$char_traits@D@std@@V?$allocator@D@2@@std@@E@std@@PAX@2@@Z PROC ; std::_Tree_val<std::_Tree_simple_types<std::pair<std::basic_string<char,std::char_traits<char>,std::allocator<char> > const ,unsigned char> > >::_Rrotate, COMDAT
; _this$ = ecx

; 480  :     void _Rrotate(_Nodeptr _Wherenode) noexcept { // promote left node to root of subtree

  00000	55		 push	 ebp
  00001	8b ec		 mov	 ebp, esp
  00003	51		 push	 ecx
  00004	51		 push	 ecx
  00005	89 4d f8	 mov	 DWORD PTR _this$[ebp], ecx

; 481  :         _Nodeptr _Pnode   = _Wherenode->_Left;

  00008	8b 45 08	 mov	 eax, DWORD PTR __Wherenode$[ebp]
  0000b	8b 00		 mov	 eax, DWORD PTR [eax]
  0000d	89 45 fc	 mov	 DWORD PTR __Pnode$[ebp], eax

; 482  :         _Wherenode->_Left = _Pnode->_Right;

  00010	8b 45 08	 mov	 eax, DWORD PTR __Wherenode$[ebp]
  00013	8b 4d fc	 mov	 ecx, DWORD PTR __Pnode$[ebp]
  00016	8b 49 08	 mov	 ecx, DWORD PTR [ecx+8]
  00019	89 08		 mov	 DWORD PTR [eax], ecx

; 483  : 
; 484  :         if (!_Pnode->_Right->_Isnil) {

  0001b	8b 45 fc	 mov	 eax, DWORD PTR __Pnode$[ebp]
  0001e	8b 40 08	 mov	 eax, DWORD PTR [eax+8]
  00021	0f be 40 0d	 movsx	 eax, BYTE PTR [eax+13]
  00025	85 c0		 test	 eax, eax
  00027	75 0c		 jne	 SHORT $LN2@Rrotate

; 485  :             _Pnode->_Right->_Parent = _Wherenode;

  00029	8b 45 fc	 mov	 eax, DWORD PTR __Pnode$[ebp]
  0002c	8b 40 08	 mov	 eax, DWORD PTR [eax+8]
  0002f	8b 4d 08	 mov	 ecx, DWORD PTR __Wherenode$[ebp]
  00032	89 48 04	 mov	 DWORD PTR [eax+4], ecx
$LN2@Rrotate:

; 486  :         }
; 487  : 
; 488  :         _Pnode->_Parent = _Wherenode->_Parent;

  00035	8b 45 fc	 mov	 eax, DWORD PTR __Pnode$[ebp]
  00038	8b 4d 08	 mov	 ecx, DWORD PTR __Wherenode$[ebp]
  0003b	8b 49 04	 mov	 ecx, DWORD PTR [ecx+4]
  0003e	89 48 04	 mov	 DWORD PTR [eax+4], ecx

; 489  : 
; 490  :         if (_Wherenode == _Myhead->_Parent) {

  00041	8b 45 f8	 mov	 eax, DWORD PTR _this$[ebp]
  00044	8b 00		 mov	 eax, DWORD PTR [eax]
  00046	8b 4d 08	 mov	 ecx, DWORD PTR __Wherenode$[ebp]
  00049	3b 48 04	 cmp	 ecx, DWORD PTR [eax+4]
  0004c	75 0d		 jne	 SHORT $LN3@Rrotate

; 491  :             _Myhead->_Parent = _Pnode;

  0004e	8b 45 f8	 mov	 eax, DWORD PTR _this$[ebp]
  00051	8b 00		 mov	 eax, DWORD PTR [eax]
  00053	8b 4d fc	 mov	 ecx, DWORD PTR __Pnode$[ebp]
  00056	89 48 04	 mov	 DWORD PTR [eax+4], ecx
  00059	eb 27		 jmp	 SHORT $LN4@Rrotate
$LN3@Rrotate:

; 492  :         } else if (_Wherenode == _Wherenode->_Parent->_Right) {

  0005b	8b 45 08	 mov	 eax, DWORD PTR __Wherenode$[ebp]
  0005e	8b 40 04	 mov	 eax, DWORD PTR [eax+4]
  00061	8b 4d 08	 mov	 ecx, DWORD PTR __Wherenode$[ebp]
  00064	3b 48 08	 cmp	 ecx, DWORD PTR [eax+8]
  00067	75 0e		 jne	 SHORT $LN5@Rrotate

; 493  :             _Wherenode->_Parent->_Right = _Pnode;

  00069	8b 45 08	 mov	 eax, DWORD PTR __Wherenode$[ebp]
  0006c	8b 40 04	 mov	 eax, DWORD PTR [eax+4]
  0006f	8b 4d fc	 mov	 ecx, DWORD PTR __Pnode$[ebp]
  00072	89 48 08	 mov	 DWORD PTR [eax+8], ecx

; 494  :         } else {

  00075	eb 0b		 jmp	 SHORT $LN4@Rrotate
$LN5@Rrotate:

; 495  :             _Wherenode->_Parent->_Left = _Pnode;

  00077	8b 45 08	 mov	 eax, DWORD PTR __Wherenode$[ebp]
  0007a	8b 40 04	 mov	 eax, DWORD PTR [eax+4]
  0007d	8b 4d fc	 mov	 ecx, DWORD PTR __Pnode$[ebp]
  00080	89 08		 mov	 DWORD PTR [eax], ecx
$LN4@Rrotate:

; 496  :         }
; 497  : 
; 498  :         _Pnode->_Right      = _Wherenode;

  00082	8b 45 fc	 mov	 eax, DWORD PTR __Pnode$[ebp]
  00085	8b 4d 08	 mov	 ecx, DWORD PTR __Wherenode$[ebp]
  00088	89 48 08	 mov	 DWORD PTR [eax+8], ecx

; 499  :         _Wherenode->_Parent = _Pnode;

  0008b	8b 45 08	 mov	 eax, DWORD PTR __Wherenode$[ebp]
  0008e	8b 4d fc	 mov	 ecx, DWORD PTR __Pnode$[ebp]
  00091	89 48 04	 mov	 DWORD PTR [eax+4], ecx

; 500  :     }

  00094	c9		 leave
  00095	c2 04 00	 ret	 4
?_Rrotate@?$_Tree_val@U?$_Tree_simple_types@U?$pair@$$CBV?$basic_string@DU?$char_traits@D@std@@V?$allocator@D@2@@std@@E@std@@@std@@@std@@QAEXPAU?$_Tree_node@U?$pair@$$CBV?$basic_string@DU?$char_traits@D@std@@V?$allocator@D@2@@std@@E@std@@PAX@2@@Z ENDP ; std::_Tree_val<std::_Tree_simple_types<std::pair<std::basic_string<char,std::char_traits<char>,std::allocator<char> > const ,unsigned char> > >::_Rrotate
_TEXT	ENDS
; Function compile flags: /Odspy
; File C:\Program Files (x86)\Microsoft Visual Studio\2019\Community\VC\Tools\MSVC\14.28.29333\include\xtree
;	COMDAT ?_Lrotate@?$_Tree_val@U?$_Tree_simple_types@U?$pair@$$CBV?$basic_string@DU?$char_traits@D@std@@V?$allocator@D@2@@std@@E@std@@@std@@@std@@QAEXPAU?$_Tree_node@U?$pair@$$CBV?$basic_string@DU?$char_traits@D@std@@V?$allocator@D@2@@std@@E@std@@PAX@2@@Z
_TEXT	SEGMENT
_this$ = -8						; size = 4
__Pnode$ = -4						; size = 4
__Wherenode$ = 8					; size = 4
?_Lrotate@?$_Tree_val@U?$_Tree_simple_types@U?$pair@$$CBV?$basic_string@DU?$char_traits@D@std@@V?$allocator@D@2@@std@@E@std@@@std@@@std@@QAEXPAU?$_Tree_node@U?$pair@$$CBV?$basic_string@DU?$char_traits@D@std@@V?$allocator@D@2@@std@@E@std@@PAX@2@@Z PROC ; std::_Tree_val<std::_Tree_simple_types<std::pair<std::basic_string<char,std::char_traits<char>,std::allocator<char> > const ,unsigned char> > >::_Lrotate, COMDAT
; _this$ = ecx

; 458  :     void _Lrotate(_Nodeptr _Wherenode) noexcept { // promote right node to root of subtree

  00000	55		 push	 ebp
  00001	8b ec		 mov	 ebp, esp
  00003	51		 push	 ecx
  00004	51		 push	 ecx
  00005	89 4d f8	 mov	 DWORD PTR _this$[ebp], ecx

; 459  :         _Nodeptr _Pnode    = _Wherenode->_Right;

  00008	8b 45 08	 mov	 eax, DWORD PTR __Wherenode$[ebp]
  0000b	8b 40 08	 mov	 eax, DWORD PTR [eax+8]
  0000e	89 45 fc	 mov	 DWORD PTR __Pnode$[ebp], eax

; 460  :         _Wherenode->_Right = _Pnode->_Left;

  00011	8b 45 08	 mov	 eax, DWORD PTR __Wherenode$[ebp]
  00014	8b 4d fc	 mov	 ecx, DWORD PTR __Pnode$[ebp]
  00017	8b 09		 mov	 ecx, DWORD PTR [ecx]
  00019	89 48 08	 mov	 DWORD PTR [eax+8], ecx

; 461  : 
; 462  :         if (!_Pnode->_Left->_Isnil) {

  0001c	8b 45 fc	 mov	 eax, DWORD PTR __Pnode$[ebp]
  0001f	8b 00		 mov	 eax, DWORD PTR [eax]
  00021	0f be 40 0d	 movsx	 eax, BYTE PTR [eax+13]
  00025	85 c0		 test	 eax, eax
  00027	75 0b		 jne	 SHORT $LN2@Lrotate

; 463  :             _Pnode->_Left->_Parent = _Wherenode;

  00029	8b 45 fc	 mov	 eax, DWORD PTR __Pnode$[ebp]
  0002c	8b 00		 mov	 eax, DWORD PTR [eax]
  0002e	8b 4d 08	 mov	 ecx, DWORD PTR __Wherenode$[ebp]
  00031	89 48 04	 mov	 DWORD PTR [eax+4], ecx
$LN2@Lrotate:

; 464  :         }
; 465  : 
; 466  :         _Pnode->_Parent = _Wherenode->_Parent;

  00034	8b 45 fc	 mov	 eax, DWORD PTR __Pnode$[ebp]
  00037	8b 4d 08	 mov	 ecx, DWORD PTR __Wherenode$[ebp]
  0003a	8b 49 04	 mov	 ecx, DWORD PTR [ecx+4]
  0003d	89 48 04	 mov	 DWORD PTR [eax+4], ecx

; 467  : 
; 468  :         if (_Wherenode == _Myhead->_Parent) {

  00040	8b 45 f8	 mov	 eax, DWORD PTR _this$[ebp]
  00043	8b 00		 mov	 eax, DWORD PTR [eax]
  00045	8b 4d 08	 mov	 ecx, DWORD PTR __Wherenode$[ebp]
  00048	3b 48 04	 cmp	 ecx, DWORD PTR [eax+4]
  0004b	75 0d		 jne	 SHORT $LN3@Lrotate

; 469  :             _Myhead->_Parent = _Pnode;

  0004d	8b 45 f8	 mov	 eax, DWORD PTR _this$[ebp]
  00050	8b 00		 mov	 eax, DWORD PTR [eax]
  00052	8b 4d fc	 mov	 ecx, DWORD PTR __Pnode$[ebp]
  00055	89 48 04	 mov	 DWORD PTR [eax+4], ecx
  00058	eb 26		 jmp	 SHORT $LN4@Lrotate
$LN3@Lrotate:

; 470  :         } else if (_Wherenode == _Wherenode->_Parent->_Left) {

  0005a	8b 45 08	 mov	 eax, DWORD PTR __Wherenode$[ebp]
  0005d	8b 40 04	 mov	 eax, DWORD PTR [eax+4]
  00060	8b 4d 08	 mov	 ecx, DWORD PTR __Wherenode$[ebp]
  00063	3b 08		 cmp	 ecx, DWORD PTR [eax]
  00065	75 0d		 jne	 SHORT $LN5@Lrotate

; 471  :             _Wherenode->_Parent->_Left = _Pnode;

  00067	8b 45 08	 mov	 eax, DWORD PTR __Wherenode$[ebp]
  0006a	8b 40 04	 mov	 eax, DWORD PTR [eax+4]
  0006d	8b 4d fc	 mov	 ecx, DWORD PTR __Pnode$[ebp]
  00070	89 08		 mov	 DWORD PTR [eax], ecx

; 472  :         } else {

  00072	eb 0c		 jmp	 SHORT $LN4@Lrotate
$LN5@Lrotate:

; 473  :             _Wherenode->_Parent->_Right = _Pnode;

  00074	8b 45 08	 mov	 eax, DWORD PTR __Wherenode$[ebp]
  00077	8b 40 04	 mov	 eax, DWORD PTR [eax+4]
  0007a	8b 4d fc	 mov	 ecx, DWORD PTR __Pnode$[ebp]
  0007d	89 48 08	 mov	 DWORD PTR [eax+8], ecx
$LN4@Lrotate:

; 474  :         }
; 475  : 
; 476  :         _Pnode->_Left       = _Wherenode;

  00080	8b 45 fc	 mov	 eax, DWORD PTR __Pnode$[ebp]
  00083	8b 4d 08	 mov	 ecx, DWORD PTR __Wherenode$[ebp]
  00086	89 08		 mov	 DWORD PTR [eax], ecx

; 477  :         _Wherenode->_Parent = _Pnode;

  00088	8b 45 08	 mov	 eax, DWORD PTR __Wherenode$[ebp]
  0008b	8b 4d fc	 mov	 ecx, DWORD PTR __Pnode$[ebp]
  0008e	89 48 04	 mov	 DWORD PTR [eax+4], ecx

; 478  :     }

  00091	c9		 leave
  00092	c2 04 00	 ret	 4
?_Lrotate@?$_Tree_val@U?$_Tree_simple_types@U?$pair@$$CBV?$basic_string@DU?$char_traits@D@std@@V?$allocator@D@2@@std@@E@std@@@std@@@std@@QAEXPAU?$_Tree_node@U?$pair@$$CBV?$basic_string@DU?$char_traits@D@std@@V?$allocator@D@2@@std@@E@std@@PAX@2@@Z ENDP ; std::_Tree_val<std::_Tree_simple_types<std::pair<std::basic_string<char,std::char_traits<char>,std::allocator<char> > const ,unsigned char> > >::_Lrotate
_TEXT	ENDS
; Function compile flags: /Odspy
; File C:\Program Files (x86)\Microsoft Visual Studio\2019\Community\VC\Tools\MSVC\14.28.29333\include\xtree
; File C:\Program Files (x86)\Microsoft Visual Studio\2019\Community\VC\Tools\MSVC\14.28.29333\include\xstddef
; File C:\Program Files (x86)\Microsoft Visual Studio\2019\Community\VC\Tools\MSVC\14.28.29333\include\xtree
; File C:\Program Files (x86)\Microsoft Visual Studio\2019\Community\VC\Tools\MSVC\14.28.29333\include\xmemory
; File C:\Program Files (x86)\Microsoft Visual Studio\2019\Community\VC\Tools\MSVC\14.28.29333\include\xtree
;	COMDAT ?_Alloc_sentinel_and_proxy@?$_Tree@V?$_Tmap_traits@V?$basic_string@DU?$char_traits@D@std@@V?$allocator@D@2@@std@@EU?$less@V?$basic_string@DU?$char_traits@D@std@@V?$allocator@D@2@@std@@@2@V?$allocator@U?$pair@$$CBV?$basic_string@DU?$char_traits@D@std@@V?$allocator@D@2@@std@@E@std@@@2@$0A@@std@@@std@@IAEXXZ
_TEXT	SEGMENT
__Alproxy$ = -28					; size = 4
__Scary$ = -24						; size = 4
$T1 = -20						; size = 4
$T2 = -16						; size = 4
$T3 = -12						; size = 4
_this$ = -8						; size = 4
_$S12$ = -1						; size = 1
?_Alloc_sentinel_and_proxy@?$_Tree@V?$_Tmap_traits@V?$basic_string@DU?$char_traits@D@std@@V?$allocator@D@2@@std@@EU?$less@V?$basic_string@DU?$char_traits@D@std@@V?$allocator@D@2@@std@@@2@V?$allocator@U?$pair@$$CBV?$basic_string@DU?$char_traits@D@std@@V?$allocator@D@2@@std@@E@std@@@2@$0A@@std@@@std@@IAEXXZ PROC ; std::_Tree<std::_Tmap_traits<std::basic_string<char,std::char_traits<char>,std::allocator<char> >,unsigned char,std::less<std::basic_string<char,std::char_traits<char>,std::allocator<char> > >,std::allocator<std::pair<std::basic_string<char,std::char_traits<char>,std::allocator<char> > const ,unsigned char> >,0> >::_Alloc_sentinel_and_proxy, COMDAT
; _this$ = ecx

; 2017 :     void _Alloc_sentinel_and_proxy() {

  00000	55		 push	 ebp
  00001	8b ec		 mov	 ebp, esp
  00003	83 ec 1c	 sub	 esp, 28			; 0000001cH
  00006	89 4d f8	 mov	 DWORD PTR _this$[ebp], ecx

; 2047 :         return _STD addressof(_Mypair._Myval2._Myval2);

  00009	8b 45 f8	 mov	 eax, DWORD PTR _this$[ebp]
; File C:\Program Files (x86)\Microsoft Visual Studio\2019\Community\VC\Tools\MSVC\14.28.29333\include\xstddef

; 275  :     return __builtin_addressof(_Val);

  0000c	89 45 f4	 mov	 DWORD PTR $T3[ebp], eax
; File C:\Program Files (x86)\Microsoft Visual Studio\2019\Community\VC\Tools\MSVC\14.28.29333\include\xtree

; 2047 :         return _STD addressof(_Mypair._Myval2._Myval2);

  0000f	8b 45 f4	 mov	 eax, DWORD PTR $T3[ebp]
  00012	89 45 e8	 mov	 DWORD PTR __Scary$[ebp], eax

; 2018 :         const auto _Scary = _Get_scary();
; 2019 :         auto&& _Alproxy   = _GET_PROXY_ALLOCATOR(_Alnode, _Getal());

  00015	8d 45 ff	 lea	 eax, DWORD PTR _$S12$[ebp]
  00018	89 45 e4	 mov	 DWORD PTR __Alproxy$[ebp], eax

; 2039 :         return _Mypair._Myval2._Get_first();

  0001b	8b 45 f8	 mov	 eax, DWORD PTR _this$[ebp]
; File C:\Program Files (x86)\Microsoft Visual Studio\2019\Community\VC\Tools\MSVC\14.28.29333\include\xmemory

; 1347 :         return *this;

  0001e	89 45 f0	 mov	 DWORD PTR $T2[ebp], eax
; File C:\Program Files (x86)\Microsoft Visual Studio\2019\Community\VC\Tools\MSVC\14.28.29333\include\xtree

; 2039 :         return _Mypair._Myval2._Get_first();

  00021	8b 45 f0	 mov	 eax, DWORD PTR $T2[ebp]
  00024	89 45 ec	 mov	 DWORD PTR $T1[ebp], eax

; 2020 :         _Container_proxy_ptr<_Alnode> _Proxy(_Alproxy, *_Scary);
; 2021 :         _Scary->_Myhead = _Node::_Buyheadnode(_Getal());

  00027	ff 75 ec	 push	 DWORD PTR $T1[ebp]
  0002a	e8 00 00 00 00	 call	 ??$_Buyheadnode@V?$allocator@U?$_Tree_node@U?$pair@$$CBV?$basic_string@DU?$char_traits@D@std@@V?$allocator@D@2@@std@@E@std@@PAX@std@@@std@@@?$_Tree_node@U?$pair@$$CBV?$basic_string@DU?$char_traits@D@std@@V?$allocator@D@2@@std@@E@std@@PAX@std@@SAPAU01@AAV?$allocator@U?$_Tree_node@U?$pair@$$CBV?$basic_string@DU?$char_traits@D@std@@V?$allocator@D@2@@std@@E@std@@PAX@std@@@1@@Z ; std::_Tree_node<std::pair<std::basic_string<char,std::char_traits<char>,std::allocator<char> > const ,unsigned char>,void *>::_Buyheadnode<std::allocator<std::_Tree_node<std::pair<std::basic_string<char,std::char_traits<char>,std::allocator<char> > const ,unsigned char>,void *> > >
  0002f	59		 pop	 ecx
  00030	8b 4d e8	 mov	 ecx, DWORD PTR __Scary$[ebp]
  00033	89 01		 mov	 DWORD PTR [ecx], eax

; 2022 :         _Proxy._Release();
; 2023 :     }

  00035	c9		 leave
  00036	c3		 ret	 0
?_Alloc_sentinel_and_proxy@?$_Tree@V?$_Tmap_traits@V?$basic_string@DU?$char_traits@D@std@@V?$allocator@D@2@@std@@EU?$less@V?$basic_string@DU?$char_traits@D@std@@V?$allocator@D@2@@std@@@2@V?$allocator@U?$pair@$$CBV?$basic_string@DU?$char_traits@D@std@@V?$allocator@D@2@@std@@E@std@@@2@$0A@@std@@@std@@IAEXXZ ENDP ; std::_Tree<std::_Tmap_traits<std::basic_string<char,std::char_traits<char>,std::allocator<char> >,unsigned char,std::less<std::basic_string<char,std::char_traits<char>,std::allocator<char> > >,std::allocator<std::pair<std::basic_string<char,std::char_traits<char>,std::allocator<char> > const ,unsigned char> >,0> >::_Alloc_sentinel_and_proxy
_TEXT	ENDS
; Function compile flags: /Odspy
; File C:\Program Files (x86)\Microsoft Visual Studio\2019\Community\VC\Tools\MSVC\14.28.29333\include\xtree
; File C:\Program Files (x86)\Microsoft Visual Studio\2019\Community\VC\Tools\MSVC\14.28.29333\include\xstddef
; File C:\Program Files (x86)\Microsoft Visual Studio\2019\Community\VC\Tools\MSVC\14.28.29333\include\xtree
;	COMDAT ?_Check_grow_by_1@?$_Tree@V?$_Tmap_traits@V?$basic_string@DU?$char_traits@D@std@@V?$allocator@D@2@@std@@EU?$less@V?$basic_string@DU?$char_traits@D@std@@V?$allocator@D@2@@std@@@2@V?$allocator@U?$pair@$$CBV?$basic_string@DU?$char_traits@D@std@@V?$allocator@D@2@@std@@E@std@@@2@$0A@@std@@@std@@IAEXXZ
_TEXT	SEGMENT
$T1 = -12						; size = 4
$T2 = -8						; size = 4
_this$ = -4						; size = 4
?_Check_grow_by_1@?$_Tree@V?$_Tmap_traits@V?$basic_string@DU?$char_traits@D@std@@V?$allocator@D@2@@std@@EU?$less@V?$basic_string@DU?$char_traits@D@std@@V?$allocator@D@2@@std@@@2@V?$allocator@U?$pair@$$CBV?$basic_string@DU?$char_traits@D@std@@V?$allocator@D@2@@std@@E@std@@@2@$0A@@std@@@std@@IAEXXZ PROC ; std::_Tree<std::_Tmap_traits<std::basic_string<char,std::char_traits<char>,std::allocator<char> >,unsigned char,std::less<std::basic_string<char,std::char_traits<char>,std::allocator<char> > >,std::allocator<std::pair<std::basic_string<char,std::char_traits<char>,std::allocator<char> > const ,unsigned char> >,0> >::_Check_grow_by_1, COMDAT
; _this$ = ecx

; 1718 :     void _Check_grow_by_1() {

  00000	55		 push	 ebp
  00001	8b ec		 mov	 ebp, esp
  00003	83 ec 0c	 sub	 esp, 12			; 0000000cH
  00006	89 4d fc	 mov	 DWORD PTR _this$[ebp], ecx

; 2047 :         return _STD addressof(_Mypair._Myval2._Myval2);

  00009	8b 45 fc	 mov	 eax, DWORD PTR _this$[ebp]
; File C:\Program Files (x86)\Microsoft Visual Studio\2019\Community\VC\Tools\MSVC\14.28.29333\include\xstddef

; 275  :     return __builtin_addressof(_Val);

  0000c	89 45 f8	 mov	 DWORD PTR $T2[ebp], eax
; File C:\Program Files (x86)\Microsoft Visual Studio\2019\Community\VC\Tools\MSVC\14.28.29333\include\xtree

; 2047 :         return _STD addressof(_Mypair._Myval2._Myval2);

  0000f	8b 45 f8	 mov	 eax, DWORD PTR $T2[ebp]
  00012	89 45 f4	 mov	 DWORD PTR $T1[ebp], eax

; 1719 :         if (max_size() == _Get_scary()->_Mysize) {

  00015	8b 4d fc	 mov	 ecx, DWORD PTR _this$[ebp]
  00018	e8 00 00 00 00	 call	 ?max_size@?$_Tree@V?$_Tmap_traits@V?$basic_string@DU?$char_traits@D@std@@V?$allocator@D@2@@std@@EU?$less@V?$basic_string@DU?$char_traits@D@std@@V?$allocator@D@2@@std@@@2@V?$allocator@U?$pair@$$CBV?$basic_string@DU?$char_traits@D@std@@V?$allocator@D@2@@std@@E@std@@@2@$0A@@std@@@std@@QBEIXZ ; std::_Tree<std::_Tmap_traits<std::basic_string<char,std::char_traits<char>,std::allocator<char> >,unsigned char,std::less<std::basic_string<char,std::char_traits<char>,std::allocator<char> > >,std::allocator<std::pair<std::basic_string<char,std::char_traits<char>,std::allocator<char> > const ,unsigned char> >,0> >::max_size
  0001d	8b 4d f4	 mov	 ecx, DWORD PTR $T1[ebp]
  00020	3b 41 04	 cmp	 eax, DWORD PTR [ecx+4]
  00023	75 05		 jne	 SHORT $LN3@Check_grow

; 1720 :             _Throw_tree_length_error();

  00025	e8 00 00 00 00	 call	 ?_Throw_tree_length_error@std@@YAXXZ ; std::_Throw_tree_length_error
$LN3@Check_grow:

; 1721 :         }
; 1722 :     }

  0002a	c9		 leave
  0002b	c3		 ret	 0
?_Check_grow_by_1@?$_Tree@V?$_Tmap_traits@V?$basic_string@DU?$char_traits@D@std@@V?$allocator@D@2@@std@@EU?$less@V?$basic_string@DU?$char_traits@D@std@@V?$allocator@D@2@@std@@@2@V?$allocator@U?$pair@$$CBV?$basic_string@DU?$char_traits@D@std@@V?$allocator@D@2@@std@@E@std@@@2@$0A@@std@@@std@@IAEXXZ ENDP ; std::_Tree<std::_Tmap_traits<std::basic_string<char,std::char_traits<char>,std::allocator<char> >,unsigned char,std::less<std::basic_string<char,std::char_traits<char>,std::allocator<char> > >,std::allocator<std::pair<std::basic_string<char,std::char_traits<char>,std::allocator<char> > const ,unsigned char> >,0> >::_Check_grow_by_1
_TEXT	ENDS
; Function compile flags: /Odspy
; File C:\Program Files (x86)\Microsoft Visual Studio\2019\Community\VC\Tools\MSVC\14.28.29333\include\xtree
; File C:\Program Files (x86)\Microsoft Visual Studio\2019\Community\VC\Tools\MSVC\14.28.29333\include\xstddef
; File C:\Program Files (x86)\Microsoft Visual Studio\2019\Community\VC\Tools\MSVC\14.28.29333\include\xtree
; File C:\Program Files (x86)\Microsoft Visual Studio\2019\Community\VC\Tools\MSVC\14.28.29333\include\xmemory
; File C:\Program Files (x86)\Microsoft Visual Studio\2019\Community\VC\Tools\MSVC\14.28.29333\include\xtree
;	COMDAT ?clear@?$_Tree@V?$_Tmap_traits@V?$basic_string@DU?$char_traits@D@std@@V?$allocator@D@2@@std@@EU?$less@V?$basic_string@DU?$char_traits@D@std@@V?$allocator@D@2@@std@@@2@V?$allocator@U?$pair@$$CBV?$basic_string@DU?$char_traits@D@std@@V?$allocator@D@2@@std@@E@std@@@2@$0A@@std@@@std@@QAEXXZ
_TEXT	SEGMENT
$T1 = -24						; size = 4
$T2 = -20						; size = 4
$T3 = -16						; size = 4
_this$ = -12						; size = 4
__Scary$ = -8						; size = 4
__Head$ = -4						; size = 4
?clear@?$_Tree@V?$_Tmap_traits@V?$basic_string@DU?$char_traits@D@std@@V?$allocator@D@2@@std@@EU?$less@V?$basic_string@DU?$char_traits@D@std@@V?$allocator@D@2@@std@@@2@V?$allocator@U?$pair@$$CBV?$basic_string@DU?$char_traits@D@std@@V?$allocator@D@2@@std@@E@std@@@2@$0A@@std@@@std@@QAEXXZ PROC ; std::_Tree<std::_Tmap_traits<std::basic_string<char,std::char_traits<char>,std::allocator<char> >,unsigned char,std::less<std::basic_string<char,std::char_traits<char>,std::allocator<char> > >,std::allocator<std::pair<std::basic_string<char,std::char_traits<char>,std::allocator<char> > const ,unsigned char> >,0> >::clear, COMDAT
; _this$ = ecx

; 1444 :     void clear() noexcept {

  00000	55		 push	 ebp
  00001	8b ec		 mov	 ebp, esp
  00003	83 ec 18	 sub	 esp, 24			; 00000018H
  00006	89 4d f4	 mov	 DWORD PTR _this$[ebp], ecx

; 2047 :         return _STD addressof(_Mypair._Myval2._Myval2);

  00009	8b 45 f4	 mov	 eax, DWORD PTR _this$[ebp]
; File C:\Program Files (x86)\Microsoft Visual Studio\2019\Community\VC\Tools\MSVC\14.28.29333\include\xstddef

; 275  :     return __builtin_addressof(_Val);

  0000c	89 45 f0	 mov	 DWORD PTR $T3[ebp], eax
; File C:\Program Files (x86)\Microsoft Visual Studio\2019\Community\VC\Tools\MSVC\14.28.29333\include\xtree

; 2047 :         return _STD addressof(_Mypair._Myval2._Myval2);

  0000f	8b 45 f0	 mov	 eax, DWORD PTR $T3[ebp]
  00012	89 45 f8	 mov	 DWORD PTR __Scary$[ebp], eax

; 1445 :         const auto _Scary = _Get_scary();
; 1446 :         _Scary->_Orphan_ptr(nullptr);
; 1447 :         auto _Head = _Scary->_Myhead;

  00015	8b 45 f8	 mov	 eax, DWORD PTR __Scary$[ebp]
  00018	8b 00		 mov	 eax, DWORD PTR [eax]
  0001a	89 45 fc	 mov	 DWORD PTR __Head$[ebp], eax

; 2039 :         return _Mypair._Myval2._Get_first();

  0001d	8b 45 f4	 mov	 eax, DWORD PTR _this$[ebp]
; File C:\Program Files (x86)\Microsoft Visual Studio\2019\Community\VC\Tools\MSVC\14.28.29333\include\xmemory

; 1347 :         return *this;

  00020	89 45 ec	 mov	 DWORD PTR $T2[ebp], eax
; File C:\Program Files (x86)\Microsoft Visual Studio\2019\Community\VC\Tools\MSVC\14.28.29333\include\xtree

; 2039 :         return _Mypair._Myval2._Get_first();

  00023	8b 45 ec	 mov	 eax, DWORD PTR $T2[ebp]
  00026	89 45 e8	 mov	 DWORD PTR $T1[ebp], eax

; 1448 :         _Scary->_Erase_tree(_Getal(), _Head->_Parent);

  00029	8b 45 fc	 mov	 eax, DWORD PTR __Head$[ebp]
  0002c	ff 70 04	 push	 DWORD PTR [eax+4]
  0002f	ff 75 e8	 push	 DWORD PTR $T1[ebp]
  00032	8b 4d f8	 mov	 ecx, DWORD PTR __Scary$[ebp]
  00035	e8 00 00 00 00	 call	 ??$_Erase_tree@V?$allocator@U?$_Tree_node@U?$pair@$$CBV?$basic_string@DU?$char_traits@D@std@@V?$allocator@D@2@@std@@E@std@@PAX@std@@@std@@@?$_Tree_val@U?$_Tree_simple_types@U?$pair@$$CBV?$basic_string@DU?$char_traits@D@std@@V?$allocator@D@2@@std@@E@std@@@std@@@std@@QAEXAAV?$allocator@U?$_Tree_node@U?$pair@$$CBV?$basic_string@DU?$char_traits@D@std@@V?$allocator@D@2@@std@@E@std@@PAX@std@@@1@PAU?$_Tree_node@U?$pair@$$CBV?$basic_string@DU?$char_traits@D@std@@V?$allocator@D@2@@std@@E@std@@PAX@1@@Z ; std::_Tree_val<std::_Tree_simple_types<std::pair<std::basic_string<char,std::char_traits<char>,std::allocator<char> > const ,unsigned char> > >::_Erase_tree<std::allocator<std::_Tree_node<std::pair<std::basic_string<char,std::char_traits<char>,std::allocator<char> > const ,unsigned char>,void *> > >

; 1449 :         _Head->_Parent  = _Head;

  0003a	8b 45 fc	 mov	 eax, DWORD PTR __Head$[ebp]
  0003d	8b 4d fc	 mov	 ecx, DWORD PTR __Head$[ebp]
  00040	89 48 04	 mov	 DWORD PTR [eax+4], ecx

; 1450 :         _Head->_Left    = _Head;

  00043	8b 45 fc	 mov	 eax, DWORD PTR __Head$[ebp]
  00046	8b 4d fc	 mov	 ecx, DWORD PTR __Head$[ebp]
  00049	89 08		 mov	 DWORD PTR [eax], ecx

; 1451 :         _Head->_Right   = _Head;

  0004b	8b 45 fc	 mov	 eax, DWORD PTR __Head$[ebp]
  0004e	8b 4d fc	 mov	 ecx, DWORD PTR __Head$[ebp]
  00051	89 48 08	 mov	 DWORD PTR [eax+8], ecx

; 1452 :         _Scary->_Mysize = 0;

  00054	8b 45 f8	 mov	 eax, DWORD PTR __Scary$[ebp]
  00057	83 60 04 00	 and	 DWORD PTR [eax+4], 0

; 1453 :     }

  0005b	c9		 leave
  0005c	c3		 ret	 0
?clear@?$_Tree@V?$_Tmap_traits@V?$basic_string@DU?$char_traits@D@std@@V?$allocator@D@2@@std@@EU?$less@V?$basic_string@DU?$char_traits@D@std@@V?$allocator@D@2@@std@@@2@V?$allocator@U?$pair@$$CBV?$basic_string@DU?$char_traits@D@std@@V?$allocator@D@2@@std@@E@std@@@2@$0A@@std@@@std@@QAEXXZ ENDP ; std::_Tree<std::_Tmap_traits<std::basic_string<char,std::char_traits<char>,std::allocator<char> >,unsigned char,std::less<std::basic_string<char,std::char_traits<char>,std::allocator<char> > >,std::allocator<std::pair<std::basic_string<char,std::char_traits<char>,std::allocator<char> > const ,unsigned char> >,0> >::clear
_TEXT	ENDS
; Function compile flags: /Odspy
; File C:\Program Files (x86)\Microsoft Visual Studio\2019\Community\VC\Tools\MSVC\14.28.29333\include\xtree
;	COMDAT ?erase@?$_Tree@V?$_Tmap_traits@V?$basic_string@DU?$char_traits@D@std@@V?$allocator@D@2@@std@@EU?$less@V?$basic_string@DU?$char_traits@D@std@@V?$allocator@D@2@@std@@@2@V?$allocator@U?$pair@$$CBV?$basic_string@DU?$char_traits@D@std@@V?$allocator@D@2@@std@@E@std@@@2@$0A@@std@@@std@@QAEIABV?$basic_string@DU?$char_traits@D@std@@V?$allocator@D@2@@2@@Z
_TEXT	SEGMENT
__Where$ = -32						; size = 8
__Num$ = -24						; size = 4
__Pnode$ = -20						; size = 4
__Pnode$ = -16						; size = 4
_this$ = -12						; size = 4
__First$ = -8						; size = 4
__Last$ = -4						; size = 4
__Keyval$ = 8						; size = 4
?erase@?$_Tree@V?$_Tmap_traits@V?$basic_string@DU?$char_traits@D@std@@V?$allocator@D@2@@std@@EU?$less@V?$basic_string@DU?$char_traits@D@std@@V?$allocator@D@2@@std@@@2@V?$allocator@U?$pair@$$CBV?$basic_string@DU?$char_traits@D@std@@V?$allocator@D@2@@std@@E@std@@@2@$0A@@std@@@std@@QAEIABV?$basic_string@DU?$char_traits@D@std@@V?$allocator@D@2@@2@@Z PROC ; std::_Tree<std::_Tmap_traits<std::basic_string<char,std::char_traits<char>,std::allocator<char> >,unsigned char,std::less<std::basic_string<char,std::char_traits<char>,std::allocator<char> > >,std::allocator<std::pair<std::basic_string<char,std::char_traits<char>,std::allocator<char> > const ,unsigned char> >,0> >::erase, COMDAT
; _this$ = ecx

; 1435 :     size_type erase(const key_type& _Keyval) noexcept(noexcept(_Eqrange(_Keyval))) /* strengthened */ {

  00000	55		 push	 ebp
  00001	8b ec		 mov	 ebp, esp
  00003	83 ec 20	 sub	 esp, 32			; 00000020H
  00006	89 4d f4	 mov	 DWORD PTR _this$[ebp], ecx

; 1436 :         const auto _Where = _Eqrange(_Keyval);

  00009	ff 75 08	 push	 DWORD PTR __Keyval$[ebp]
  0000c	8d 45 e0	 lea	 eax, DWORD PTR __Where$[ebp]
  0000f	50		 push	 eax
  00010	8b 4d f4	 mov	 ecx, DWORD PTR _this$[ebp]
  00013	e8 00 00 00 00	 call	 ??$_Eqrange@V?$basic_string@DU?$char_traits@D@std@@V?$allocator@D@2@@std@@@?$_Tree@V?$_Tmap_traits@V?$basic_string@DU?$char_traits@D@std@@V?$allocator@D@2@@std@@EU?$less@V?$basic_string@DU?$char_traits@D@std@@V?$allocator@D@2@@std@@@2@V?$allocator@U?$pair@$$CBV?$basic_string@DU?$char_traits@D@std@@V?$allocator@D@2@@std@@E@std@@@2@$0A@@std@@@std@@IBE?AU?$pair@PAU?$_Tree_node@U?$pair@$$CBV?$basic_string@DU?$char_traits@D@std@@V?$allocator@D@2@@std@@E@std@@PAX@std@@PAU12@@1@ABV?$basic_string@DU?$char_traits@D@std@@V?$allocator@D@2@@1@@Z ; std::_Tree<std::_Tmap_traits<std::basic_string<char,std::char_traits<char>,std::allocator<char> >,unsigned char,std::less<std::basic_string<char,std::char_traits<char>,std::allocator<char> > >,std::allocator<std::pair<std::basic_string<char,std::char_traits<char>,std::allocator<char> > const ,unsigned char> >,0> >::_Eqrange<std::basic_string<char,std::char_traits<char>,std::allocator<char> > >

; 1437 :         const _Unchecked_const_iterator _First(_Where.first, nullptr);

  00018	8b 45 e0	 mov	 eax, DWORD PTR __Where$[ebp]
  0001b	89 45 f0	 mov	 DWORD PTR __Pnode$[ebp], eax

; 39   :     _Tree_unchecked_const_iterator(_Nodeptr _Pnode, const _Mytree* _Plist) noexcept : _Ptr(_Pnode) {

  0001e	8b 45 f0	 mov	 eax, DWORD PTR __Pnode$[ebp]
  00021	89 45 f8	 mov	 DWORD PTR __First$[ebp], eax

; 1438 :         const _Unchecked_const_iterator _Last(_Where.second, nullptr);

  00024	8b 45 e4	 mov	 eax, DWORD PTR __Where$[ebp+4]
  00027	89 45 ec	 mov	 DWORD PTR __Pnode$[ebp], eax

; 39   :     _Tree_unchecked_const_iterator(_Nodeptr _Pnode, const _Mytree* _Plist) noexcept : _Ptr(_Pnode) {

  0002a	8b 45 ec	 mov	 eax, DWORD PTR __Pnode$[ebp]
  0002d	89 45 fc	 mov	 DWORD PTR __Last$[ebp], eax

; 1439 :         const auto _Num = static_cast<size_type>(_STD distance(_First, _Last));

  00030	ff 75 fc	 push	 DWORD PTR __Last$[ebp]
  00033	ff 75 f8	 push	 DWORD PTR __First$[ebp]
  00036	e8 00 00 00 00	 call	 ??$distance@V?$_Tree_unchecked_const_iterator@V?$_Tree_val@U?$_Tree_simple_types@U?$pair@$$CBV?$basic_string@DU?$char_traits@D@std@@V?$allocator@D@2@@std@@E@std@@@std@@@std@@U_Iterator_base0@2@@std@@@std@@YAHV?$_Tree_unchecked_const_iterator@V?$_Tree_val@U?$_Tree_simple_types@U?$pair@$$CBV?$basic_string@DU?$char_traits@D@std@@V?$allocator@D@2@@std@@E@std@@@std@@@std@@U_Iterator_base0@2@@0@0@Z ; std::distance<std::_Tree_unchecked_const_iterator<std::_Tree_val<std::_Tree_simple_types<std::pair<std::basic_string<char,std::char_traits<char>,std::allocator<char> > const ,unsigned char> > >,std::_Iterator_base0> >
  0003b	59		 pop	 ecx
  0003c	59		 pop	 ecx
  0003d	89 45 e8	 mov	 DWORD PTR __Num$[ebp], eax

; 1440 :         _Erase_unchecked(_First, _Last);

  00040	ff 75 fc	 push	 DWORD PTR __Last$[ebp]
  00043	ff 75 f8	 push	 DWORD PTR __First$[ebp]
  00046	8b 4d f4	 mov	 ecx, DWORD PTR _this$[ebp]
  00049	e8 00 00 00 00	 call	 ?_Erase_unchecked@?$_Tree@V?$_Tmap_traits@V?$basic_string@DU?$char_traits@D@std@@V?$allocator@D@2@@std@@EU?$less@V?$basic_string@DU?$char_traits@D@std@@V?$allocator@D@2@@std@@@2@V?$allocator@U?$pair@$$CBV?$basic_string@DU?$char_traits@D@std@@V?$allocator@D@2@@std@@E@std@@@2@$0A@@std@@@std@@AAEPAU?$_Tree_node@U?$pair@$$CBV?$basic_string@DU?$char_traits@D@std@@V?$allocator@D@2@@std@@E@std@@PAX@2@V?$_Tree_unchecked_const_iterator@V?$_Tree_val@U?$_Tree_simple_types@U?$pair@$$CBV?$basic_string@DU?$char_traits@D@std@@V?$allocator@D@2@@std@@E@std@@@std@@@std@@U_Iterator_base0@2@@2@0@Z ; std::_Tree<std::_Tmap_traits<std::basic_string<char,std::char_traits<char>,std::allocator<char> >,unsigned char,std::less<std::basic_string<char,std::char_traits<char>,std::allocator<char> > >,std::allocator<std::pair<std::basic_string<char,std::char_traits<char>,std::allocator<char> > const ,unsigned char> >,0> >::_Erase_unchecked

; 1441 :         return _Num;

  0004e	8b 45 e8	 mov	 eax, DWORD PTR __Num$[ebp]

; 1442 :     }

  00051	c9		 leave
  00052	c2 04 00	 ret	 4
?erase@?$_Tree@V?$_Tmap_traits@V?$basic_string@DU?$char_traits@D@std@@V?$allocator@D@2@@std@@EU?$less@V?$basic_string@DU?$char_traits@D@std@@V?$allocator@D@2@@std@@@2@V?$allocator@U?$pair@$$CBV?$basic_string@DU?$char_traits@D@std@@V?$allocator@D@2@@std@@E@std@@@2@$0A@@std@@@std@@QAEIABV?$basic_string@DU?$char_traits@D@std@@V?$allocator@D@2@@2@@Z ENDP ; std::_Tree<std::_Tmap_traits<std::basic_string<char,std::char_traits<char>,std::allocator<char> >,unsigned char,std::less<std::basic_string<char,std::char_traits<char>,std::allocator<char> > >,std::allocator<std::pair<std::basic_string<char,std::char_traits<char>,std::allocator<char> > const ,unsigned char> >,0> >::erase
_TEXT	ENDS
; Function compile flags: /Odspy
; File C:\Program Files (x86)\Microsoft Visual Studio\2019\Community\VC\Tools\MSVC\14.28.29333\include\xtree
; File C:\Program Files (x86)\Microsoft Visual Studio\2019\Community\VC\Tools\MSVC\14.28.29333\include\xstddef
; File C:\Program Files (x86)\Microsoft Visual Studio\2019\Community\VC\Tools\MSVC\14.28.29333\include\xtree
;	COMDAT ?_Erase_unchecked@?$_Tree@V?$_Tmap_traits@V?$basic_string@DU?$char_traits@D@std@@V?$allocator@D@2@@std@@EU?$less@V?$basic_string@DU?$char_traits@D@std@@V?$allocator@D@2@@std@@@2@V?$allocator@U?$pair@$$CBV?$basic_string@DU?$char_traits@D@std@@V?$allocator@D@2@@std@@E@std@@@2@$0A@@std@@@std@@AAEPAU?$_Tree_node@U?$pair@$$CBV?$basic_string@DU?$char_traits@D@std@@V?$allocator@D@2@@std@@E@std@@PAX@2@V?$_Tree_unchecked_const_iterator@V?$_Tree_val@U?$_Tree_simple_types@U?$pair@$$CBV?$basic_string@DU?$char_traits@D@std@@V?$allocator@D@2@@std@@E@std@@@std@@@std@@U_Iterator_base0@2@@2@0@Z
_TEXT	SEGMENT
$T1 = -48						; size = 4
$T2 = -44						; size = 4
__Tmp$3 = -40						; size = 4
__Begin$ = -36						; size = 4
___param0$ = -32					; size = 4
$T4 = -28						; size = 4
$T5 = -24						; size = 4
tv153 = -20						; size = 4
tv136 = -16						; size = 4
tv129 = -12						; size = 4
_this$ = -8						; size = 4
$T6 = -3						; size = 1
$T7 = -2						; size = 1
$T8 = -1						; size = 1
__First$ = 8						; size = 4
__Last$ = 12						; size = 4
?_Erase_unchecked@?$_Tree@V?$_Tmap_traits@V?$basic_string@DU?$char_traits@D@std@@V?$allocator@D@2@@std@@EU?$less@V?$basic_string@DU?$char_traits@D@std@@V?$allocator@D@2@@std@@@2@V?$allocator@U?$pair@$$CBV?$basic_string@DU?$char_traits@D@std@@V?$allocator@D@2@@std@@E@std@@@2@$0A@@std@@@std@@AAEPAU?$_Tree_node@U?$pair@$$CBV?$basic_string@DU?$char_traits@D@std@@V?$allocator@D@2@@std@@E@std@@PAX@2@V?$_Tree_unchecked_const_iterator@V?$_Tree_val@U?$_Tree_simple_types@U?$pair@$$CBV?$basic_string@DU?$char_traits@D@std@@V?$allocator@D@2@@std@@E@std@@@std@@@std@@U_Iterator_base0@2@@2@0@Z PROC ; std::_Tree<std::_Tmap_traits<std::basic_string<char,std::char_traits<char>,std::allocator<char> >,unsigned char,std::less<std::basic_string<char,std::char_traits<char>,std::allocator<char> > >,std::allocator<std::pair<std::basic_string<char,std::char_traits<char>,std::allocator<char> > const ,unsigned char> >,0> >::_Erase_unchecked, COMDAT
; _this$ = ecx

; 1395 :     _Nodeptr _Erase_unchecked(_Unchecked_const_iterator _First, _Unchecked_const_iterator _Last) noexcept {

  00000	55		 push	 ebp
  00001	8b ec		 mov	 ebp, esp
  00003	83 ec 30	 sub	 esp, 48			; 00000030H
  00006	89 4d f8	 mov	 DWORD PTR _this$[ebp], ecx

; 2047 :         return _STD addressof(_Mypair._Myval2._Myval2);

  00009	8b 45 f8	 mov	 eax, DWORD PTR _this$[ebp]
; File C:\Program Files (x86)\Microsoft Visual Studio\2019\Community\VC\Tools\MSVC\14.28.29333\include\xstddef

; 275  :     return __builtin_addressof(_Val);

  0000c	89 45 e8	 mov	 DWORD PTR $T5[ebp], eax
; File C:\Program Files (x86)\Microsoft Visual Studio\2019\Community\VC\Tools\MSVC\14.28.29333\include\xtree

; 2047 :         return _STD addressof(_Mypair._Myval2._Myval2);

  0000f	8b 45 e8	 mov	 eax, DWORD PTR $T5[ebp]
  00012	89 45 e4	 mov	 DWORD PTR $T4[ebp], eax

; 1259 :         return _Unchecked_iterator(_Get_scary()->_Myhead->_Left, nullptr);

  00015	8b 45 e4	 mov	 eax, DWORD PTR $T4[ebp]
  00018	8b 00		 mov	 eax, DWORD PTR [eax]
  0001a	8b 00		 mov	 eax, DWORD PTR [eax]
  0001c	89 45 e0	 mov	 DWORD PTR ___param0$[ebp], eax

; 39   :     _Tree_unchecked_const_iterator(_Nodeptr _Pnode, const _Mytree* _Plist) noexcept : _Ptr(_Pnode) {

  0001f	8b 45 e0	 mov	 eax, DWORD PTR ___param0$[ebp]
  00022	89 45 dc	 mov	 DWORD PTR __Begin$[ebp], eax

; 98   :         return _Ptr == _Right._Ptr;

  00025	8b 45 08	 mov	 eax, DWORD PTR __First$[ebp]
  00028	3b 45 dc	 cmp	 eax, DWORD PTR __Begin$[ebp]
  0002b	75 09		 jne	 SHORT $LN26@Erase_unch
  0002d	c7 45 f4 01 00
	00 00		 mov	 DWORD PTR tv129[ebp], 1
  00034	eb 04		 jmp	 SHORT $LN27@Erase_unch
$LN26@Erase_unch:
  00036	83 65 f4 00	 and	 DWORD PTR tv129[ebp], 0
$LN27@Erase_unch:
  0003a	8a 45 f4	 mov	 al, BYTE PTR tv129[ebp]
  0003d	88 45 ff	 mov	 BYTE PTR $T8[ebp], al

; 1396 :         const auto _Begin = _Unchecked_begin();
; 1397 :         if (_First == _Begin && _Last._Ptr->_Isnil) {

  00040	0f b6 45 ff	 movzx	 eax, BYTE PTR $T8[ebp]
  00044	85 c0		 test	 eax, eax
  00046	74 18		 je	 SHORT $LN2@Erase_unch
  00048	8b 45 0c	 mov	 eax, DWORD PTR __Last$[ebp]
  0004b	0f be 40 0d	 movsx	 eax, BYTE PTR [eax+13]
  0004f	85 c0		 test	 eax, eax
  00051	74 0d		 je	 SHORT $LN2@Erase_unch

; 1398 :             // erase all
; 1399 :             clear();

  00053	8b 4d f8	 mov	 ecx, DWORD PTR _this$[ebp]
  00056	e8 00 00 00 00	 call	 ?clear@?$_Tree@V?$_Tmap_traits@V?$basic_string@DU?$char_traits@D@std@@V?$allocator@D@2@@std@@EU?$less@V?$basic_string@DU?$char_traits@D@std@@V?$allocator@D@2@@std@@@2@V?$allocator@U?$pair@$$CBV?$basic_string@DU?$char_traits@D@std@@V?$allocator@D@2@@std@@E@std@@@2@$0A@@std@@@std@@QAEXXZ ; std::_Tree<std::_Tmap_traits<std::basic_string<char,std::char_traits<char>,std::allocator<char> >,unsigned char,std::less<std::basic_string<char,std::char_traits<char>,std::allocator<char> > >,std::allocator<std::pair<std::basic_string<char,std::char_traits<char>,std::allocator<char> > const ,unsigned char> >,0> >::clear

; 1400 :             return _Last._Ptr;

  0005b	8b 45 0c	 mov	 eax, DWORD PTR __Last$[ebp]
  0005e	eb 6a		 jmp	 SHORT $LN5@Erase_unch
$LN2@Erase_unch:

; 98   :         return _Ptr == _Right._Ptr;

  00060	8b 45 08	 mov	 eax, DWORD PTR __First$[ebp]
  00063	3b 45 0c	 cmp	 eax, DWORD PTR __Last$[ebp]
  00066	75 09		 jne	 SHORT $LN94@Erase_unch
  00068	c7 45 f0 01 00
	00 00		 mov	 DWORD PTR tv136[ebp], 1
  0006f	eb 04		 jmp	 SHORT $LN95@Erase_unch
$LN94@Erase_unch:
  00071	83 65 f0 00	 and	 DWORD PTR tv136[ebp], 0
$LN95@Erase_unch:
  00075	8a 45 f0	 mov	 al, BYTE PTR tv136[ebp]
  00078	88 45 fe	 mov	 BYTE PTR $T7[ebp], al

; 102  :         return !(*this == _Right);

  0007b	0f b6 45 fe	 movzx	 eax, BYTE PTR $T7[ebp]
  0007f	85 c0		 test	 eax, eax
  00081	75 09		 jne	 SHORT $LN89@Erase_unch
  00083	c7 45 ec 01 00
	00 00		 mov	 DWORD PTR tv153[ebp], 1
  0008a	eb 04		 jmp	 SHORT $LN90@Erase_unch
$LN89@Erase_unch:
  0008c	83 65 ec 00	 and	 DWORD PTR tv153[ebp], 0
$LN90@Erase_unch:
  00090	8a 45 ec	 mov	 al, BYTE PTR tv153[ebp]
  00093	88 45 fd	 mov	 BYTE PTR $T6[ebp], al

; 1401 :         }
; 1402 : 
; 1403 :         // partial erase, one at a time
; 1404 :         while (_First != _Last) {

  00096	0f b6 45 fd	 movzx	 eax, BYTE PTR $T6[ebp]
  0009a	85 c0		 test	 eax, eax
  0009c	74 29		 je	 SHORT $LN3@Erase_unch

; 67   :         _Tree_unchecked_const_iterator _Tmp = *this;

  0009e	8b 45 08	 mov	 eax, DWORD PTR __First$[ebp]
  000a1	89 45 d8	 mov	 DWORD PTR __Tmp$3[ebp], eax

; 68   :         ++*this;

  000a4	8d 4d 08	 lea	 ecx, DWORD PTR __First$[ebp]
  000a7	e8 00 00 00 00	 call	 ??E?$_Tree_unchecked_const_iterator@V?$_Tree_val@U?$_Tree_simple_types@U?$pair@$$CBV?$basic_string@DU?$char_traits@D@std@@V?$allocator@D@2@@std@@E@std@@@std@@@std@@U_Iterator_base0@2@@std@@QAEAAV01@XZ ; std::_Tree_unchecked_const_iterator<std::_Tree_val<std::_Tree_simple_types<std::pair<std::basic_string<char,std::char_traits<char>,std::allocator<char> > const ,unsigned char> > >,std::_Iterator_base0>::operator++

; 69   :         return _Tmp;

  000ac	8b 45 d8	 mov	 eax, DWORD PTR __Tmp$3[ebp]
  000af	89 45 d4	 mov	 DWORD PTR $T2[ebp], eax
  000b2	8d 45 d4	 lea	 eax, DWORD PTR $T2[ebp]
  000b5	89 45 d0	 mov	 DWORD PTR $T1[ebp], eax

; 1405 :             _Erase_unchecked(_First++);

  000b8	8b 45 d0	 mov	 eax, DWORD PTR $T1[ebp]
  000bb	ff 30		 push	 DWORD PTR [eax]
  000bd	8b 4d f8	 mov	 ecx, DWORD PTR _this$[ebp]
  000c0	e8 00 00 00 00	 call	 ?_Erase_unchecked@?$_Tree@V?$_Tmap_traits@V?$basic_string@DU?$char_traits@D@std@@V?$allocator@D@2@@std@@EU?$less@V?$basic_string@DU?$char_traits@D@std@@V?$allocator@D@2@@std@@@2@V?$allocator@U?$pair@$$CBV?$basic_string@DU?$char_traits@D@std@@V?$allocator@D@2@@std@@E@std@@@2@$0A@@std@@@std@@AAEPAU?$_Tree_node@U?$pair@$$CBV?$basic_string@DU?$char_traits@D@std@@V?$allocator@D@2@@std@@E@std@@PAX@2@V?$_Tree_unchecked_const_iterator@V?$_Tree_val@U?$_Tree_simple_types@U?$pair@$$CBV?$basic_string@DU?$char_traits@D@std@@V?$allocator@D@2@@std@@E@std@@@std@@@std@@U_Iterator_base0@2@@2@@Z ; std::_Tree<std::_Tmap_traits<std::basic_string<char,std::char_traits<char>,std::allocator<char> >,unsigned char,std::less<std::basic_string<char,std::char_traits<char>,std::allocator<char> > >,std::allocator<std::pair<std::basic_string<char,std::char_traits<char>,std::allocator<char> > const ,unsigned char> >,0> >::_Erase_unchecked

; 1406 :         }

  000c5	eb 99		 jmp	 SHORT $LN2@Erase_unch
$LN3@Erase_unch:

; 1407 : 
; 1408 :         return _Last._Ptr;

  000c7	8b 45 0c	 mov	 eax, DWORD PTR __Last$[ebp]
$LN5@Erase_unch:

; 1409 :     }

  000ca	c9		 leave
  000cb	c2 08 00	 ret	 8
?_Erase_unchecked@?$_Tree@V?$_Tmap_traits@V?$basic_string@DU?$char_traits@D@std@@V?$allocator@D@2@@std@@EU?$less@V?$basic_string@DU?$char_traits@D@std@@V?$allocator@D@2@@std@@@2@V?$allocator@U?$pair@$$CBV?$basic_string@DU?$char_traits@D@std@@V?$allocator@D@2@@std@@E@std@@@2@$0A@@std@@@std@@AAEPAU?$_Tree_node@U?$pair@$$CBV?$basic_string@DU?$char_traits@D@std@@V?$allocator@D@2@@std@@E@std@@PAX@2@V?$_Tree_unchecked_const_iterator@V?$_Tree_val@U?$_Tree_simple_types@U?$pair@$$CBV?$basic_string@DU?$char_traits@D@std@@V?$allocator@D@2@@std@@E@std@@@std@@@std@@U_Iterator_base0@2@@2@0@Z ENDP ; std::_Tree<std::_Tmap_traits<std::basic_string<char,std::char_traits<char>,std::allocator<char> >,unsigned char,std::less<std::basic_string<char,std::char_traits<char>,std::allocator<char> > >,std::allocator<std::pair<std::basic_string<char,std::char_traits<char>,std::allocator<char> > const ,unsigned char> >,0> >::_Erase_unchecked
_TEXT	ENDS
; Function compile flags: /Odspy
; File C:\Program Files (x86)\Microsoft Visual Studio\2019\Community\VC\Tools\MSVC\14.28.29333\include\xtree
; File C:\Program Files (x86)\Microsoft Visual Studio\2019\Community\VC\Tools\MSVC\14.28.29333\include\xstddef
; File C:\Program Files (x86)\Microsoft Visual Studio\2019\Community\VC\Tools\MSVC\14.28.29333\include\xtree
; File C:\Program Files (x86)\Microsoft Visual Studio\2019\Community\VC\Tools\MSVC\14.28.29333\include\xmemory
; File C:\Program Files (x86)\Microsoft Visual Studio\2019\Community\VC\Tools\MSVC\14.28.29333\include\xtree
;	COMDAT ?_Erase_unchecked@?$_Tree@V?$_Tmap_traits@V?$basic_string@DU?$char_traits@D@std@@V?$allocator@D@2@@std@@EU?$less@V?$basic_string@DU?$char_traits@D@std@@V?$allocator@D@2@@std@@@2@V?$allocator@U?$pair@$$CBV?$basic_string@DU?$char_traits@D@std@@V?$allocator@D@2@@std@@E@std@@@2@$0A@@std@@@std@@AAEPAU?$_Tree_node@U?$pair@$$CBV?$basic_string@DU?$char_traits@D@std@@V?$allocator@D@2@@std@@E@std@@PAX@2@V?$_Tree_unchecked_const_iterator@V?$_Tree_val@U?$_Tree_simple_types@U?$pair@$$CBV?$basic_string@DU?$char_traits@D@std@@V?$allocator@D@2@@std@@E@std@@@std@@@std@@U_Iterator_base0@2@@2@@Z
_TEXT	SEGMENT
$T1 = -28						; size = 4
__Erasednode$ = -24					; size = 4
$T2 = -20						; size = 4
__Scary$ = -16						; size = 4
$T3 = -12						; size = 4
__Successor$ = -8					; size = 4
_this$ = -4						; size = 4
__Where$ = 8						; size = 4
?_Erase_unchecked@?$_Tree@V?$_Tmap_traits@V?$basic_string@DU?$char_traits@D@std@@V?$allocator@D@2@@std@@EU?$less@V?$basic_string@DU?$char_traits@D@std@@V?$allocator@D@2@@std@@@2@V?$allocator@U?$pair@$$CBV?$basic_string@DU?$char_traits@D@std@@V?$allocator@D@2@@std@@E@std@@@2@$0A@@std@@@std@@AAEPAU?$_Tree_node@U?$pair@$$CBV?$basic_string@DU?$char_traits@D@std@@V?$allocator@D@2@@std@@E@std@@PAX@2@V?$_Tree_unchecked_const_iterator@V?$_Tree_val@U?$_Tree_simple_types@U?$pair@$$CBV?$basic_string@DU?$char_traits@D@std@@V?$allocator@D@2@@std@@E@std@@@std@@@std@@U_Iterator_base0@2@@2@@Z PROC ; std::_Tree<std::_Tmap_traits<std::basic_string<char,std::char_traits<char>,std::allocator<char> >,unsigned char,std::less<std::basic_string<char,std::char_traits<char>,std::allocator<char> > >,std::allocator<std::pair<std::basic_string<char,std::char_traits<char>,std::allocator<char> > const ,unsigned char> >,0> >::_Erase_unchecked, COMDAT
; _this$ = ecx

; 1385 :     _Nodeptr _Erase_unchecked(_Unchecked_const_iterator _Where) noexcept {

  00000	55		 push	 ebp
  00001	8b ec		 mov	 ebp, esp
  00003	83 ec 1c	 sub	 esp, 28			; 0000001cH
  00006	89 4d fc	 mov	 DWORD PTR _this$[ebp], ecx

; 2047 :         return _STD addressof(_Mypair._Myval2._Myval2);

  00009	8b 45 fc	 mov	 eax, DWORD PTR _this$[ebp]
; File C:\Program Files (x86)\Microsoft Visual Studio\2019\Community\VC\Tools\MSVC\14.28.29333\include\xstddef

; 275  :     return __builtin_addressof(_Val);

  0000c	89 45 f4	 mov	 DWORD PTR $T3[ebp], eax
; File C:\Program Files (x86)\Microsoft Visual Studio\2019\Community\VC\Tools\MSVC\14.28.29333\include\xtree

; 2047 :         return _STD addressof(_Mypair._Myval2._Myval2);

  0000f	8b 45 f4	 mov	 eax, DWORD PTR $T3[ebp]
  00012	89 45 f0	 mov	 DWORD PTR __Scary$[ebp], eax

; 1386 :         const auto _Scary                    = _Get_scary();
; 1387 :         _Unchecked_const_iterator _Successor = _Where;

  00015	8b 45 08	 mov	 eax, DWORD PTR __Where$[ebp]
  00018	89 45 f8	 mov	 DWORD PTR __Successor$[ebp], eax

; 1388 :         ++_Successor; // save successor iterator for return

  0001b	8d 4d f8	 lea	 ecx, DWORD PTR __Successor$[ebp]
  0001e	e8 00 00 00 00	 call	 ??E?$_Tree_unchecked_const_iterator@V?$_Tree_val@U?$_Tree_simple_types@U?$pair@$$CBV?$basic_string@DU?$char_traits@D@std@@V?$allocator@D@2@@std@@E@std@@@std@@@std@@U_Iterator_base0@2@@std@@QAEAAV01@XZ ; std::_Tree_unchecked_const_iterator<std::_Tree_val<std::_Tree_simple_types<std::pair<std::basic_string<char,std::char_traits<char>,std::allocator<char> > const ,unsigned char> > >,std::_Iterator_base0>::operator++

; 1389 :         _Nodeptr _Erasednode = _Scary->_Extract(_Where); // node to erase

  00023	ff 75 08	 push	 DWORD PTR __Where$[ebp]
  00026	8b 4d f0	 mov	 ecx, DWORD PTR __Scary$[ebp]
  00029	e8 00 00 00 00	 call	 ?_Extract@?$_Tree_val@U?$_Tree_simple_types@U?$pair@$$CBV?$basic_string@DU?$char_traits@D@std@@V?$allocator@D@2@@std@@E@std@@@std@@@std@@QAEPAU?$_Tree_node@U?$pair@$$CBV?$basic_string@DU?$char_traits@D@std@@V?$allocator@D@2@@std@@E@std@@PAX@2@V?$_Tree_unchecked_const_iterator@V?$_Tree_val@U?$_Tree_simple_types@U?$pair@$$CBV?$basic_string@DU?$char_traits@D@std@@V?$allocator@D@2@@std@@E@std@@@std@@@std@@U_Iterator_base0@2@@2@@Z ; std::_Tree_val<std::_Tree_simple_types<std::pair<std::basic_string<char,std::char_traits<char>,std::allocator<char> > const ,unsigned char> > >::_Extract
  0002e	89 45 e8	 mov	 DWORD PTR __Erasednode$[ebp], eax

; 2039 :         return _Mypair._Myval2._Get_first();

  00031	8b 45 fc	 mov	 eax, DWORD PTR _this$[ebp]
; File C:\Program Files (x86)\Microsoft Visual Studio\2019\Community\VC\Tools\MSVC\14.28.29333\include\xmemory

; 1347 :         return *this;

  00034	89 45 ec	 mov	 DWORD PTR $T2[ebp], eax
; File C:\Program Files (x86)\Microsoft Visual Studio\2019\Community\VC\Tools\MSVC\14.28.29333\include\xtree

; 2039 :         return _Mypair._Myval2._Get_first();

  00037	8b 45 ec	 mov	 eax, DWORD PTR $T2[ebp]
  0003a	89 45 e4	 mov	 DWORD PTR $T1[ebp], eax

; 1390 :         _Scary->_Orphan_ptr(_Erasednode);
; 1391 :         _Node::_Freenode(_Getal(), _Erasednode); // delete erased node

  0003d	ff 75 e8	 push	 DWORD PTR __Erasednode$[ebp]
  00040	ff 75 e4	 push	 DWORD PTR $T1[ebp]
  00043	e8 00 00 00 00	 call	 ??$_Freenode@V?$allocator@U?$_Tree_node@U?$pair@$$CBV?$basic_string@DU?$char_traits@D@std@@V?$allocator@D@2@@std@@E@std@@PAX@std@@@std@@@?$_Tree_node@U?$pair@$$CBV?$basic_string@DU?$char_traits@D@std@@V?$allocator@D@2@@std@@E@std@@PAX@std@@SAXAAV?$allocator@U?$_Tree_node@U?$pair@$$CBV?$basic_string@DU?$char_traits@D@std@@V?$allocator@D@2@@std@@E@std@@PAX@std@@@1@PAU01@@Z ; std::_Tree_node<std::pair<std::basic_string<char,std::char_traits<char>,std::allocator<char> > const ,unsigned char>,void *>::_Freenode<std::allocator<std::_Tree_node<std::pair<std::basic_string<char,std::char_traits<char>,std::allocator<char> > const ,unsigned char>,void *> > >
  00048	59		 pop	 ecx
  00049	59		 pop	 ecx

; 1392 :         return _Successor._Ptr; // return successor nodeptr

  0004a	8b 45 f8	 mov	 eax, DWORD PTR __Successor$[ebp]

; 1393 :     }

  0004d	c9		 leave
  0004e	c2 04 00	 ret	 4
?_Erase_unchecked@?$_Tree@V?$_Tmap_traits@V?$basic_string@DU?$char_traits@D@std@@V?$allocator@D@2@@std@@EU?$less@V?$basic_string@DU?$char_traits@D@std@@V?$allocator@D@2@@std@@@2@V?$allocator@U?$pair@$$CBV?$basic_string@DU?$char_traits@D@std@@V?$allocator@D@2@@std@@E@std@@@2@$0A@@std@@@std@@AAEPAU?$_Tree_node@U?$pair@$$CBV?$basic_string@DU?$char_traits@D@std@@V?$allocator@D@2@@std@@E@std@@PAX@2@V?$_Tree_unchecked_const_iterator@V?$_Tree_val@U?$_Tree_simple_types@U?$pair@$$CBV?$basic_string@DU?$char_traits@D@std@@V?$allocator@D@2@@std@@E@std@@@std@@@std@@U_Iterator_base0@2@@2@@Z ENDP ; std::_Tree<std::_Tmap_traits<std::basic_string<char,std::char_traits<char>,std::allocator<char> >,unsigned char,std::less<std::basic_string<char,std::char_traits<char>,std::allocator<char> > >,std::allocator<std::pair<std::basic_string<char,std::char_traits<char>,std::allocator<char> > const ,unsigned char> >,0> >::_Erase_unchecked
_TEXT	ENDS
; Function compile flags: /Odspy
; File C:\Program Files (x86)\Microsoft Visual Studio\2019\Community\VC\Tools\MSVC\14.28.29333\include\xtree
; File C:\Program Files (x86)\Microsoft Visual Studio\2019\Community\VC\Tools\MSVC\14.28.29333\include\xmemory
; File C:\Program Files (x86)\Microsoft Visual Studio\2019\Community\VC\Tools\MSVC\14.28.29333\include\xtree
; File C:\Program Files (x86)\Microsoft Visual Studio\2019\Community\VC\Tools\MSVC\14.28.29333\include\xmemory
; File C:\Program Files (x86)\Microsoft Visual Studio\2019\Community\VC\Tools\MSVC\14.28.29333\include\limits
; File C:\Program Files (x86)\Microsoft Visual Studio\2019\Community\VC\Tools\MSVC\14.28.29333\include\xtree
; File C:\Program Files (x86)\Microsoft Visual Studio\2019\Community\VC\Tools\MSVC\14.28.29333\include\utility
; File C:\Program Files (x86)\Microsoft Visual Studio\2019\Community\VC\Tools\MSVC\14.28.29333\include\xtree
;	COMDAT ?max_size@?$_Tree@V?$_Tmap_traits@V?$basic_string@DU?$char_traits@D@std@@V?$allocator@D@2@@std@@EU?$less@V?$basic_string@DU?$char_traits@D@std@@V?$allocator@D@2@@std@@@2@V?$allocator@U?$pair@$$CBV?$basic_string@DU?$char_traits@D@std@@V?$allocator@D@2@@std@@E@std@@@2@$0A@@std@@@std@@QBEIXZ
_TEXT	SEGMENT
$T1 = -36						; size = 4
$T2 = -32						; size = 4
$T3 = -28						; size = 4
$T4 = -24						; size = 4
$T5 = -20						; size = 4
_this$ = -16						; size = 4
tv68 = -12						; size = 4
$T6 = -8						; size = 4
$T7 = -4						; size = 4
?max_size@?$_Tree@V?$_Tmap_traits@V?$basic_string@DU?$char_traits@D@std@@V?$allocator@D@2@@std@@EU?$less@V?$basic_string@DU?$char_traits@D@std@@V?$allocator@D@2@@std@@@2@V?$allocator@U?$pair@$$CBV?$basic_string@DU?$char_traits@D@std@@V?$allocator@D@2@@std@@E@std@@@2@$0A@@std@@@std@@QBEIXZ PROC ; std::_Tree<std::_Tmap_traits<std::basic_string<char,std::char_traits<char>,std::allocator<char> >,unsigned char,std::less<std::basic_string<char,std::char_traits<char>,std::allocator<char> > >,std::allocator<std::pair<std::basic_string<char,std::char_traits<char>,std::allocator<char> > const ,unsigned char> >,0> >::max_size, COMDAT
; _this$ = ecx

; 1310 :     _NODISCARD size_type max_size() const noexcept {

  00000	55		 push	 ebp
  00001	8b ec		 mov	 ebp, esp
  00003	83 ec 24	 sub	 esp, 36			; 00000024H
  00006	89 4d f0	 mov	 DWORD PTR _this$[ebp], ecx

; 2043 :         return _Mypair._Myval2._Get_first();

  00009	8b 45 f0	 mov	 eax, DWORD PTR _this$[ebp]
; File C:\Program Files (x86)\Microsoft Visual Studio\2019\Community\VC\Tools\MSVC\14.28.29333\include\xmemory

; 1351 :         return *this;

  0000c	89 45 ec	 mov	 DWORD PTR $T5[ebp], eax
; File C:\Program Files (x86)\Microsoft Visual Studio\2019\Community\VC\Tools\MSVC\14.28.29333\include\xtree

; 2043 :         return _Mypair._Myval2._Get_first();

  0000f	8b 45 ec	 mov	 eax, DWORD PTR $T5[ebp]
  00012	89 45 dc	 mov	 DWORD PTR $T1[ebp], eax
; File C:\Program Files (x86)\Microsoft Visual Studio\2019\Community\VC\Tools\MSVC\14.28.29333\include\xmemory

; 710  :         return static_cast<size_t>(-1) / sizeof(value_type);

  00015	c7 45 fc 5d 74
	d1 05		 mov	 DWORD PTR $T7[ebp], 97612893 ; 05d1745dH
; File C:\Program Files (x86)\Microsoft Visual Studio\2019\Community\VC\Tools\MSVC\14.28.29333\include\limits

; 557  :         return INT_MAX;

  0001c	c7 45 e8 ff ff
	ff 7f		 mov	 DWORD PTR $T4[ebp], 2147483647 ; 7fffffffH
; File C:\Program Files (x86)\Microsoft Visual Studio\2019\Community\VC\Tools\MSVC\14.28.29333\include\xtree

; 1311 :         return (_STD min)(

  00023	8b 45 e8	 mov	 eax, DWORD PTR $T4[ebp]
  00026	89 45 f8	 mov	 DWORD PTR $T6[ebp], eax
; File C:\Program Files (x86)\Microsoft Visual Studio\2019\Community\VC\Tools\MSVC\14.28.29333\include\utility

; 68   :     return _Right < _Left ? _Right : _Left;

  00029	8b 45 fc	 mov	 eax, DWORD PTR $T7[ebp]
  0002c	3b 45 f8	 cmp	 eax, DWORD PTR $T6[ebp]
  0002f	73 08		 jae	 SHORT $LN17@max_size
  00031	8d 45 fc	 lea	 eax, DWORD PTR $T7[ebp]
  00034	89 45 f4	 mov	 DWORD PTR tv68[ebp], eax
  00037	eb 06		 jmp	 SHORT $LN18@max_size
$LN17@max_size:
  00039	8d 45 f8	 lea	 eax, DWORD PTR $T6[ebp]
  0003c	89 45 f4	 mov	 DWORD PTR tv68[ebp], eax
$LN18@max_size:
  0003f	8b 45 f4	 mov	 eax, DWORD PTR tv68[ebp]
  00042	89 45 e4	 mov	 DWORD PTR $T3[ebp], eax
  00045	8b 45 e4	 mov	 eax, DWORD PTR $T3[ebp]
  00048	89 45 e0	 mov	 DWORD PTR $T2[ebp], eax
; File C:\Program Files (x86)\Microsoft Visual Studio\2019\Community\VC\Tools\MSVC\14.28.29333\include\xtree

; 1311 :         return (_STD min)(

  0004b	8b 45 e0	 mov	 eax, DWORD PTR $T2[ebp]
  0004e	8b 00		 mov	 eax, DWORD PTR [eax]

; 1312 :             static_cast<size_type>((numeric_limits<difference_type>::max)()), _Alnode_traits::max_size(_Getal()));
; 1313 :     }

  00050	c9		 leave
  00051	c3		 ret	 0
?max_size@?$_Tree@V?$_Tmap_traits@V?$basic_string@DU?$char_traits@D@std@@V?$allocator@D@2@@std@@EU?$less@V?$basic_string@DU?$char_traits@D@std@@V?$allocator@D@2@@std@@@2@V?$allocator@U?$pair@$$CBV?$basic_string@DU?$char_traits@D@std@@V?$allocator@D@2@@std@@E@std@@@2@$0A@@std@@@std@@QBEIXZ ENDP ; std::_Tree<std::_Tmap_traits<std::basic_string<char,std::char_traits<char>,std::allocator<char> >,unsigned char,std::less<std::basic_string<char,std::char_traits<char>,std::allocator<char> > >,std::allocator<std::pair<std::basic_string<char,std::char_traits<char>,std::allocator<char> > const ,unsigned char> >,0> >::max_size
_TEXT	ENDS
; Function compile flags: /Odspy
; File C:\Program Files (x86)\Microsoft Visual Studio\2019\Community\VC\Tools\MSVC\14.28.29333\include\xtree
; File C:\Program Files (x86)\Microsoft Visual Studio\2019\Community\VC\Tools\MSVC\14.28.29333\include\xstddef
; File C:\Program Files (x86)\Microsoft Visual Studio\2019\Community\VC\Tools\MSVC\14.28.29333\include\xtree
;	COMDAT ?begin@?$_Tree@V?$_Tmap_traits@V?$basic_string@DU?$char_traits@D@std@@V?$allocator@D@2@@std@@EU?$less@V?$basic_string@DU?$char_traits@D@std@@V?$allocator@D@2@@std@@@2@V?$allocator@U?$pair@$$CBV?$basic_string@DU?$char_traits@D@std@@V?$allocator@D@2@@std@@E@std@@@2@$0A@@std@@@std@@QAE?AV?$_Tree_iterator@V?$_Tree_val@U?$_Tree_simple_types@U?$pair@$$CBV?$basic_string@DU?$char_traits@D@std@@V?$allocator@D@2@@std@@E@std@@@std@@@std@@@2@XZ
_TEXT	SEGMENT
___param0$ = -16					; size = 4
__Scary$ = -12						; size = 4
$T1 = -8						; size = 4
_this$ = -4						; size = 4
___$ReturnUdt$ = 8					; size = 4
?begin@?$_Tree@V?$_Tmap_traits@V?$basic_string@DU?$char_traits@D@std@@V?$allocator@D@2@@std@@EU?$less@V?$basic_string@DU?$char_traits@D@std@@V?$allocator@D@2@@std@@@2@V?$allocator@U?$pair@$$CBV?$basic_string@DU?$char_traits@D@std@@V?$allocator@D@2@@std@@E@std@@@2@$0A@@std@@@std@@QAE?AV?$_Tree_iterator@V?$_Tree_val@U?$_Tree_simple_types@U?$pair@$$CBV?$basic_string@DU?$char_traits@D@std@@V?$allocator@D@2@@std@@E@std@@@std@@@std@@@2@XZ PROC ; std::_Tree<std::_Tmap_traits<std::basic_string<char,std::char_traits<char>,std::allocator<char> >,unsigned char,std::less<std::basic_string<char,std::char_traits<char>,std::allocator<char> > >,std::allocator<std::pair<std::basic_string<char,std::char_traits<char>,std::allocator<char> > const ,unsigned char> >,0> >::begin, COMDAT
; _this$ = ecx

; 1238 :     _NODISCARD iterator begin() noexcept {

  00000	55		 push	 ebp
  00001	8b ec		 mov	 ebp, esp
  00003	83 ec 10	 sub	 esp, 16			; 00000010H
  00006	89 4d fc	 mov	 DWORD PTR _this$[ebp], ecx

; 2047 :         return _STD addressof(_Mypair._Myval2._Myval2);

  00009	8b 45 fc	 mov	 eax, DWORD PTR _this$[ebp]
; File C:\Program Files (x86)\Microsoft Visual Studio\2019\Community\VC\Tools\MSVC\14.28.29333\include\xstddef

; 275  :     return __builtin_addressof(_Val);

  0000c	89 45 f8	 mov	 DWORD PTR $T1[ebp], eax
; File C:\Program Files (x86)\Microsoft Visual Studio\2019\Community\VC\Tools\MSVC\14.28.29333\include\xtree

; 2047 :         return _STD addressof(_Mypair._Myval2._Myval2);

  0000f	8b 45 f8	 mov	 eax, DWORD PTR $T1[ebp]
  00012	89 45 f4	 mov	 DWORD PTR __Scary$[ebp], eax

; 1239 :         const auto _Scary = _Get_scary();
; 1240 :         return iterator(_Scary->_Myhead->_Left, _Scary);

  00015	8b 45 f4	 mov	 eax, DWORD PTR __Scary$[ebp]
  00018	8b 00		 mov	 eax, DWORD PTR [eax]
  0001a	8b 00		 mov	 eax, DWORD PTR [eax]
  0001c	89 45 f0	 mov	 DWORD PTR ___param0$[ebp], eax

; 39   :     _Tree_unchecked_const_iterator(_Nodeptr _Pnode, const _Mytree* _Plist) noexcept : _Ptr(_Pnode) {

  0001f	8b 45 08	 mov	 eax, DWORD PTR ___$ReturnUdt$[ebp]
  00022	8b 4d f0	 mov	 ecx, DWORD PTR ___param0$[ebp]
  00025	89 08		 mov	 DWORD PTR [eax], ecx

; 1239 :         const auto _Scary = _Get_scary();
; 1240 :         return iterator(_Scary->_Myhead->_Left, _Scary);

  00027	8b 45 08	 mov	 eax, DWORD PTR ___$ReturnUdt$[ebp]

; 1241 :     }

  0002a	c9		 leave
  0002b	c2 04 00	 ret	 4
?begin@?$_Tree@V?$_Tmap_traits@V?$basic_string@DU?$char_traits@D@std@@V?$allocator@D@2@@std@@EU?$less@V?$basic_string@DU?$char_traits@D@std@@V?$allocator@D@2@@std@@@2@V?$allocator@U?$pair@$$CBV?$basic_string@DU?$char_traits@D@std@@V?$allocator@D@2@@std@@E@std@@@2@$0A@@std@@@std@@QAE?AV?$_Tree_iterator@V?$_Tree_val@U?$_Tree_simple_types@U?$pair@$$CBV?$basic_string@DU?$char_traits@D@std@@V?$allocator@D@2@@std@@E@std@@@std@@@std@@@2@XZ ENDP ; std::_Tree<std::_Tmap_traits<std::basic_string<char,std::char_traits<char>,std::allocator<char> >,unsigned char,std::less<std::basic_string<char,std::char_traits<char>,std::allocator<char> > >,std::allocator<std::pair<std::basic_string<char,std::char_traits<char>,std::allocator<char> > const ,unsigned char> >,0> >::begin
_TEXT	ENDS
; Function compile flags: /Odspy
; File C:\Program Files (x86)\Microsoft Visual Studio\2019\Community\VC\Tools\MSVC\14.28.29333\include\xtree
; File C:\Program Files (x86)\Microsoft Visual Studio\2019\Community\VC\Tools\MSVC\14.28.29333\include\xstddef
; File C:\Program Files (x86)\Microsoft Visual Studio\2019\Community\VC\Tools\MSVC\14.28.29333\include\xtree
; File C:\Program Files (x86)\Microsoft Visual Studio\2019\Community\VC\Tools\MSVC\14.28.29333\include\xmemory
; File C:\Program Files (x86)\Microsoft Visual Studio\2019\Community\VC\Tools\MSVC\14.28.29333\include\xtree
;	COMDAT ??1?$_Tree@V?$_Tmap_traits@V?$basic_string@DU?$char_traits@D@std@@V?$allocator@D@2@@std@@EU?$less@V?$basic_string@DU?$char_traits@D@std@@V?$allocator@D@2@@std@@@2@V?$allocator@U?$pair@$$CBV?$basic_string@DU?$char_traits@D@std@@V?$allocator@D@2@@std@@E@std@@@2@$0A@@std@@@std@@QAE@XZ
_TEXT	SEGMENT
$T1 = -20						; size = 4
$T2 = -16						; size = 4
$T3 = -12						; size = 4
_this$ = -8						; size = 4
__Scary$ = -4						; size = 4
??1?$_Tree@V?$_Tmap_traits@V?$basic_string@DU?$char_traits@D@std@@V?$allocator@D@2@@std@@EU?$less@V?$basic_string@DU?$char_traits@D@std@@V?$allocator@D@2@@std@@@2@V?$allocator@U?$pair@$$CBV?$basic_string@DU?$char_traits@D@std@@V?$allocator@D@2@@std@@E@std@@@2@$0A@@std@@@std@@QAE@XZ PROC ; std::_Tree<std::_Tmap_traits<std::basic_string<char,std::char_traits<char>,std::allocator<char> >,unsigned char,std::less<std::basic_string<char,std::char_traits<char>,std::allocator<char> > >,std::allocator<std::pair<std::basic_string<char,std::char_traits<char>,std::allocator<char> > const ,unsigned char> >,0> >::~_Tree<std::_Tmap_traits<std::basic_string<char,std::char_traits<char>,std::allocator<char> >,unsigned char,std::less<std::basic_string<char,std::char_traits<char>,std::allocator<char> > >,std::allocator<std::pair<std::basic_string<char,std::char_traits<char>,std::allocator<char> > const ,unsigned char> >,0> >, COMDAT
; _this$ = ecx

; 1189 :     ~_Tree() noexcept {

  00000	55		 push	 ebp
  00001	8b ec		 mov	 ebp, esp
  00003	83 ec 14	 sub	 esp, 20			; 00000014H
  00006	89 4d f8	 mov	 DWORD PTR _this$[ebp], ecx

; 2047 :         return _STD addressof(_Mypair._Myval2._Myval2);

  00009	8b 45 f8	 mov	 eax, DWORD PTR _this$[ebp]
; File C:\Program Files (x86)\Microsoft Visual Studio\2019\Community\VC\Tools\MSVC\14.28.29333\include\xstddef

; 275  :     return __builtin_addressof(_Val);

  0000c	89 45 f0	 mov	 DWORD PTR $T2[ebp], eax
; File C:\Program Files (x86)\Microsoft Visual Studio\2019\Community\VC\Tools\MSVC\14.28.29333\include\xtree

; 2047 :         return _STD addressof(_Mypair._Myval2._Myval2);

  0000f	8b 45 f0	 mov	 eax, DWORD PTR $T2[ebp]
  00012	89 45 fc	 mov	 DWORD PTR __Scary$[ebp], eax

; 2039 :         return _Mypair._Myval2._Get_first();

  00015	8b 45 f8	 mov	 eax, DWORD PTR _this$[ebp]
; File C:\Program Files (x86)\Microsoft Visual Studio\2019\Community\VC\Tools\MSVC\14.28.29333\include\xmemory

; 1347 :         return *this;

  00018	89 45 ec	 mov	 DWORD PTR $T1[ebp], eax
; File C:\Program Files (x86)\Microsoft Visual Studio\2019\Community\VC\Tools\MSVC\14.28.29333\include\xtree

; 2039 :         return _Mypair._Myval2._Get_first();

  0001b	8b 45 ec	 mov	 eax, DWORD PTR $T1[ebp]
  0001e	89 45 f4	 mov	 DWORD PTR $T3[ebp], eax

; 752  :         _Erase_tree(_Al, _Myhead->_Parent);

  00021	8b 45 fc	 mov	 eax, DWORD PTR __Scary$[ebp]
  00024	8b 00		 mov	 eax, DWORD PTR [eax]
  00026	ff 70 04	 push	 DWORD PTR [eax+4]
  00029	ff 75 f4	 push	 DWORD PTR $T3[ebp]
  0002c	8b 4d fc	 mov	 ecx, DWORD PTR __Scary$[ebp]
  0002f	e8 00 00 00 00	 call	 ??$_Erase_tree@V?$allocator@U?$_Tree_node@U?$pair@$$CBV?$basic_string@DU?$char_traits@D@std@@V?$allocator@D@2@@std@@E@std@@PAX@std@@@std@@@?$_Tree_val@U?$_Tree_simple_types@U?$pair@$$CBV?$basic_string@DU?$char_traits@D@std@@V?$allocator@D@2@@std@@E@std@@@std@@@std@@QAEXAAV?$allocator@U?$_Tree_node@U?$pair@$$CBV?$basic_string@DU?$char_traits@D@std@@V?$allocator@D@2@@std@@E@std@@PAX@std@@@1@PAU?$_Tree_node@U?$pair@$$CBV?$basic_string@DU?$char_traits@D@std@@V?$allocator@D@2@@std@@E@std@@PAX@1@@Z ; std::_Tree_val<std::_Tree_simple_types<std::pair<std::basic_string<char,std::char_traits<char>,std::allocator<char> > const ,unsigned char> > >::_Erase_tree<std::allocator<std::_Tree_node<std::pair<std::basic_string<char,std::char_traits<char>,std::allocator<char> > const ,unsigned char>,void *> > >

; 753  :         _Alnode::value_type::_Freenode0(_Al, _Myhead);

  00034	8b 45 fc	 mov	 eax, DWORD PTR __Scary$[ebp]
  00037	ff 30		 push	 DWORD PTR [eax]
  00039	ff 75 f4	 push	 DWORD PTR $T3[ebp]
  0003c	e8 00 00 00 00	 call	 ??$_Freenode0@V?$allocator@U?$_Tree_node@U?$pair@$$CBV?$basic_string@DU?$char_traits@D@std@@V?$allocator@D@2@@std@@E@std@@PAX@std@@@std@@@?$_Tree_node@U?$pair@$$CBV?$basic_string@DU?$char_traits@D@std@@V?$allocator@D@2@@std@@E@std@@PAX@std@@SAXAAV?$allocator@U?$_Tree_node@U?$pair@$$CBV?$basic_string@DU?$char_traits@D@std@@V?$allocator@D@2@@std@@E@std@@PAX@std@@@1@PAU01@@Z ; std::_Tree_node<std::pair<std::basic_string<char,std::char_traits<char>,std::allocator<char> > const ,unsigned char>,void *>::_Freenode0<std::allocator<std::_Tree_node<std::pair<std::basic_string<char,std::char_traits<char>,std::allocator<char> > const ,unsigned char>,void *> > >
  00041	59		 pop	 ecx
  00042	59		 pop	 ecx

; 1190 :         const auto _Scary = _Get_scary();
; 1191 :         _Scary->_Erase_head(_Getal());
; 1192 : #if _ITERATOR_DEBUG_LEVEL != 0 // TRANSITION, ABI
; 1193 :         auto&& _Alproxy = _GET_PROXY_ALLOCATOR(_Alnode, _Getal());
; 1194 :         _Delete_plain_internal(_Alproxy, _Scary->_Myproxy);
; 1195 : #endif // _ITERATOR_DEBUG_LEVEL != 0
; 1196 :     }

  00043	c9		 leave
  00044	c3		 ret	 0
??1?$_Tree@V?$_Tmap_traits@V?$basic_string@DU?$char_traits@D@std@@V?$allocator@D@2@@std@@EU?$less@V?$basic_string@DU?$char_traits@D@std@@V?$allocator@D@2@@std@@@2@V?$allocator@U?$pair@$$CBV?$basic_string@DU?$char_traits@D@std@@V?$allocator@D@2@@std@@E@std@@@2@$0A@@std@@@std@@QAE@XZ ENDP ; std::_Tree<std::_Tmap_traits<std::basic_string<char,std::char_traits<char>,std::allocator<char> >,unsigned char,std::less<std::basic_string<char,std::char_traits<char>,std::allocator<char> > >,std::allocator<std::pair<std::basic_string<char,std::char_traits<char>,std::allocator<char> > const ,unsigned char> >,0> >::~_Tree<std::_Tmap_traits<std::basic_string<char,std::char_traits<char>,std::allocator<char> >,unsigned char,std::less<std::basic_string<char,std::char_traits<char>,std::allocator<char> > >,std::allocator<std::pair<std::basic_string<char,std::char_traits<char>,std::allocator<char> > const ,unsigned char> >,0> >
_TEXT	ENDS
; Function compile flags: /Odspy
; File C:\Program Files (x86)\Microsoft Visual Studio\2019\Community\VC\Tools\MSVC\14.28.29333\include\xtree
; File C:\Program Files (x86)\Microsoft Visual Studio\2019\Community\VC\Tools\MSVC\14.28.29333\include\type_traits
; File C:\Program Files (x86)\Microsoft Visual Studio\2019\Community\VC\Tools\MSVC\14.28.29333\include\xmemory
; File C:\Program Files (x86)\Microsoft Visual Studio\2019\Community\VC\Tools\MSVC\14.28.29333\include\xtree
;	COMDAT ??0?$_Tree@V?$_Tmap_traits@V?$basic_string@DU?$char_traits@D@std@@V?$allocator@D@2@@std@@EU?$less@V?$basic_string@DU?$char_traits@D@std@@V?$allocator@D@2@@std@@@2@V?$allocator@U?$pair@$$CBV?$basic_string@DU?$char_traits@D@std@@V?$allocator@D@2@@std@@E@std@@@2@$0A@@std@@@std@@QAE@ABU?$less@V?$basic_string@DU?$char_traits@D@std@@V?$allocator@D@2@@std@@@1@@Z
_TEXT	SEGMENT
_this$ = -28						; size = 4
_this$ = -24						; size = 4
$T1 = -20						; size = 4
_this$2 = -16						; size = 4
_this$ = -12						; size = 4
___formal$ = -8						; size = 1
$T3 = -1						; size = 1
__Parg$ = 8						; size = 4
??0?$_Tree@V?$_Tmap_traits@V?$basic_string@DU?$char_traits@D@std@@V?$allocator@D@2@@std@@EU?$less@V?$basic_string@DU?$char_traits@D@std@@V?$allocator@D@2@@std@@@2@V?$allocator@U?$pair@$$CBV?$basic_string@DU?$char_traits@D@std@@V?$allocator@D@2@@std@@E@std@@@2@$0A@@std@@@std@@QAE@ABU?$less@V?$basic_string@DU?$char_traits@D@std@@V?$allocator@D@2@@std@@@1@@Z PROC ; std::_Tree<std::_Tmap_traits<std::basic_string<char,std::char_traits<char>,std::allocator<char> >,unsigned char,std::less<std::basic_string<char,std::char_traits<char>,std::allocator<char> > >,std::allocator<std::pair<std::basic_string<char,std::char_traits<char>,std::allocator<char> > const ,unsigned char> >,0> >::_Tree<std::_Tmap_traits<std::basic_string<char,std::char_traits<char>,std::allocator<char> >,unsigned char,std::less<std::basic_string<char,std::char_traits<char>,std::allocator<char> > >,std::allocator<std::pair<std::basic_string<char,std::char_traits<char>,std::allocator<char> > const ,unsigned char> >,0> >, COMDAT
; _this$ = ecx

; 885  :     _Tree(const key_compare& _Parg) : _Mypair(_One_then_variadic_args_t{}, _Parg, _Zero_then_variadic_args_t{}) {

  00000	55		 push	 ebp
  00001	8b ec		 mov	 ebp, esp
  00003	83 ec 1c	 sub	 esp, 28			; 0000001cH
  00006	89 4d f4	 mov	 DWORD PTR _this$[ebp], ecx
  00009	8b 45 f4	 mov	 eax, DWORD PTR _this$[ebp]
  0000c	89 45 e8	 mov	 DWORD PTR _this$[ebp], eax
; File C:\Program Files (x86)\Microsoft Visual Studio\2019\Community\VC\Tools\MSVC\14.28.29333\include\type_traits

; 1443 :     return static_cast<_Ty&&>(_Arg);

  0000f	8d 45 ff	 lea	 eax, DWORD PTR $T3[ebp]
  00012	89 45 ec	 mov	 DWORD PTR $T1[ebp], eax
; File C:\Program Files (x86)\Microsoft Visual Studio\2019\Community\VC\Tools\MSVC\14.28.29333\include\xmemory

; 1344 :         : _Ty1(_STD forward<_Other1>(_Val1)), _Myval2(_STD forward<_Other2>(_Val2)...) {}

  00015	8b 45 ec	 mov	 eax, DWORD PTR $T1[ebp]
  00018	8a 00		 mov	 al, BYTE PTR [eax]
  0001a	88 45 f8	 mov	 BYTE PTR ___formal$[ebp], al
  0001d	8b 45 e8	 mov	 eax, DWORD PTR _this$[ebp]
  00020	89 45 e4	 mov	 DWORD PTR _this$[ebp], eax

; 1339 :         : _Ty1(), _Myval2(_STD forward<_Other2>(_Val2)...) {}

  00023	8b 45 e4	 mov	 eax, DWORD PTR _this$[ebp]
  00026	89 45 f0	 mov	 DWORD PTR _this$2[ebp], eax
; File C:\Program Files (x86)\Microsoft Visual Studio\2019\Community\VC\Tools\MSVC\14.28.29333\include\xtree

; 435  :     _Tree_val() noexcept : _Myhead(), _Mysize(0) {}

  00029	8b 45 f0	 mov	 eax, DWORD PTR _this$2[ebp]
  0002c	83 20 00	 and	 DWORD PTR [eax], 0
  0002f	8b 45 f0	 mov	 eax, DWORD PTR _this$2[ebp]
  00032	83 60 04 00	 and	 DWORD PTR [eax+4], 0

; 886  :         _Alloc_sentinel_and_proxy();

  00036	8b 4d f4	 mov	 ecx, DWORD PTR _this$[ebp]
  00039	e8 00 00 00 00	 call	 ?_Alloc_sentinel_and_proxy@?$_Tree@V?$_Tmap_traits@V?$basic_string@DU?$char_traits@D@std@@V?$allocator@D@2@@std@@EU?$less@V?$basic_string@DU?$char_traits@D@std@@V?$allocator@D@2@@std@@@2@V?$allocator@U?$pair@$$CBV?$basic_string@DU?$char_traits@D@std@@V?$allocator@D@2@@std@@E@std@@@2@$0A@@std@@@std@@IAEXXZ ; std::_Tree<std::_Tmap_traits<std::basic_string<char,std::char_traits<char>,std::allocator<char> >,unsigned char,std::less<std::basic_string<char,std::char_traits<char>,std::allocator<char> > >,std::allocator<std::pair<std::basic_string<char,std::char_traits<char>,std::allocator<char> > const ,unsigned char> >,0> >::_Alloc_sentinel_and_proxy

; 887  :     }

  0003e	8b 45 f4	 mov	 eax, DWORD PTR _this$[ebp]
  00041	c9		 leave
  00042	c2 04 00	 ret	 4
??0?$_Tree@V?$_Tmap_traits@V?$basic_string@DU?$char_traits@D@std@@V?$allocator@D@2@@std@@EU?$less@V?$basic_string@DU?$char_traits@D@std@@V?$allocator@D@2@@std@@@2@V?$allocator@U?$pair@$$CBV?$basic_string@DU?$char_traits@D@std@@V?$allocator@D@2@@std@@E@std@@@2@$0A@@std@@@std@@QAE@ABU?$less@V?$basic_string@DU?$char_traits@D@std@@V?$allocator@D@2@@std@@@1@@Z ENDP ; std::_Tree<std::_Tmap_traits<std::basic_string<char,std::char_traits<char>,std::allocator<char> >,unsigned char,std::less<std::basic_string<char,std::char_traits<char>,std::allocator<char> > >,std::allocator<std::pair<std::basic_string<char,std::char_traits<char>,std::allocator<char> > const ,unsigned char> >,0> >::_Tree<std::_Tmap_traits<std::basic_string<char,std::char_traits<char>,std::allocator<char> >,unsigned char,std::less<std::basic_string<char,std::char_traits<char>,std::allocator<char> > >,std::allocator<std::pair<std::basic_string<char,std::char_traits<char>,std::allocator<char> > const ,unsigned char> >,0> >
_TEXT	ENDS
; Function compile flags: /Odspy
;	COMDAT ??1?$set@V?$basic_string@DU?$char_traits@D@std@@V?$allocator@D@2@@std@@U?$less@V?$basic_string@DU?$char_traits@D@std@@V?$allocator@D@2@@std@@@2@V?$allocator@V?$basic_string@DU?$char_traits@D@std@@V?$allocator@D@2@@std@@@2@@std@@QAE@XZ
_TEXT	SEGMENT
_this$ = -4						; size = 4
??1?$set@V?$basic_string@DU?$char_traits@D@std@@V?$allocator@D@2@@std@@U?$less@V?$basic_string@DU?$char_traits@D@std@@V?$allocator@D@2@@std@@@2@V?$allocator@V?$basic_string@DU?$char_traits@D@std@@V?$allocator@D@2@@std@@@2@@std@@QAE@XZ PROC ; std::set<std::basic_string<char,std::char_traits<char>,std::allocator<char> >,std::less<std::basic_string<char,std::char_traits<char>,std::allocator<char> > >,std::allocator<std::basic_string<char,std::char_traits<char>,std::allocator<char> > > >::~set<std::basic_string<char,std::char_traits<char>,std::allocator<char> >,std::less<std::basic_string<char,std::char_traits<char>,std::allocator<char> > >,std::allocator<std::basic_string<char,std::char_traits<char>,std::allocator<char> > > >, COMDAT
; _this$ = ecx
  00000	55		 push	 ebp
  00001	8b ec		 mov	 ebp, esp
  00003	51		 push	 ecx
  00004	89 4d fc	 mov	 DWORD PTR _this$[ebp], ecx
  00007	8b 4d fc	 mov	 ecx, DWORD PTR _this$[ebp]
  0000a	e8 00 00 00 00	 call	 ??1?$_Tree@V?$_Tset_traits@V?$basic_string@DU?$char_traits@D@std@@V?$allocator@D@2@@std@@U?$less@V?$basic_string@DU?$char_traits@D@std@@V?$allocator@D@2@@std@@@2@V?$allocator@V?$basic_string@DU?$char_traits@D@std@@V?$allocator@D@2@@std@@@2@$0A@@std@@@std@@QAE@XZ ; std::_Tree<std::_Tset_traits<std::basic_string<char,std::char_traits<char>,std::allocator<char> >,std::less<std::basic_string<char,std::char_traits<char>,std::allocator<char> > >,std::allocator<std::basic_string<char,std::char_traits<char>,std::allocator<char> > >,0> >::~_Tree<std::_Tset_traits<std::basic_string<char,std::char_traits<char>,std::allocator<char> >,std::less<std::basic_string<char,std::char_traits<char>,std::allocator<char> > >,std::allocator<std::basic_string<char,std::char_traits<char>,std::allocator<char> > >,0> >
  0000f	c9		 leave
  00010	c3		 ret	 0
??1?$set@V?$basic_string@DU?$char_traits@D@std@@V?$allocator@D@2@@std@@U?$less@V?$basic_string@DU?$char_traits@D@std@@V?$allocator@D@2@@std@@@2@V?$allocator@V?$basic_string@DU?$char_traits@D@std@@V?$allocator@D@2@@std@@@2@@std@@QAE@XZ ENDP ; std::set<std::basic_string<char,std::char_traits<char>,std::allocator<char> >,std::less<std::basic_string<char,std::char_traits<char>,std::allocator<char> > >,std::allocator<std::basic_string<char,std::char_traits<char>,std::allocator<char> > > >::~set<std::basic_string<char,std::char_traits<char>,std::allocator<char> >,std::less<std::basic_string<char,std::char_traits<char>,std::allocator<char> > >,std::allocator<std::basic_string<char,std::char_traits<char>,std::allocator<char> > > >
_TEXT	ENDS
; Function compile flags: /Odspy
; File C:\Program Files (x86)\Microsoft Visual Studio\2019\Community\VC\Tools\MSVC\14.28.29333\include\xtree
;	COMDAT ?_Insert_node@?$_Tree_val@U?$_Tree_simple_types@V?$basic_string@DU?$char_traits@D@std@@V?$allocator@D@2@@std@@@std@@@std@@QAEPAU?$_Tree_node@V?$basic_string@DU?$char_traits@D@std@@V?$allocator@D@2@@std@@PAX@2@U?$_Tree_id@PAU?$_Tree_node@V?$basic_string@DU?$char_traits@D@std@@V?$allocator@D@2@@std@@PAX@std@@@2@QAU32@@Z
_TEXT	SEGMENT
__Parent_sibling$1 = -20				; size = 4
__Parent_sibling$2 = -16				; size = 4
_this$ = -12						; size = 4
__Head$ = -8						; size = 4
__Pnode$3 = -4						; size = 4
__Loc$ = 8						; size = 8
__Newnode$ = 16						; size = 4
?_Insert_node@?$_Tree_val@U?$_Tree_simple_types@V?$basic_string@DU?$char_traits@D@std@@V?$allocator@D@2@@std@@@std@@@std@@QAEPAU?$_Tree_node@V?$basic_string@DU?$char_traits@D@std@@V?$allocator@D@2@@std@@PAX@2@U?$_Tree_id@PAU?$_Tree_node@V?$basic_string@DU?$char_traits@D@std@@V?$allocator@D@2@@std@@PAX@std@@@2@QAU32@@Z PROC ; std::_Tree_val<std::_Tree_simple_types<std::basic_string<char,std::char_traits<char>,std::allocator<char> > > >::_Insert_node, COMDAT
; _this$ = ecx

; 644  :     _Nodeptr _Insert_node(const _Tree_id<_Nodeptr> _Loc, const _Nodeptr _Newnode) noexcept {

  00000	55		 push	 ebp
  00001	8b ec		 mov	 ebp, esp
  00003	83 ec 14	 sub	 esp, 20			; 00000014H
  00006	89 4d f4	 mov	 DWORD PTR _this$[ebp], ecx

; 645  :         ++_Mysize;

  00009	8b 45 f4	 mov	 eax, DWORD PTR _this$[ebp]
  0000c	8b 40 04	 mov	 eax, DWORD PTR [eax+4]
  0000f	40		 inc	 eax
  00010	8b 4d f4	 mov	 ecx, DWORD PTR _this$[ebp]
  00013	89 41 04	 mov	 DWORD PTR [ecx+4], eax

; 646  :         const auto _Head  = _Myhead;

  00016	8b 45 f4	 mov	 eax, DWORD PTR _this$[ebp]
  00019	8b 00		 mov	 eax, DWORD PTR [eax]
  0001b	89 45 f8	 mov	 DWORD PTR __Head$[ebp], eax

; 647  :         _Newnode->_Parent = _Loc._Parent;

  0001e	8b 45 10	 mov	 eax, DWORD PTR __Newnode$[ebp]
  00021	8b 4d 08	 mov	 ecx, DWORD PTR __Loc$[ebp]
  00024	89 48 04	 mov	 DWORD PTR [eax+4], ecx

; 648  :         if (_Loc._Parent == _Head) { // first node in tree, just set head values

  00027	8b 45 08	 mov	 eax, DWORD PTR __Loc$[ebp]
  0002a	3b 45 f8	 cmp	 eax, DWORD PTR __Head$[ebp]
  0002d	75 29		 jne	 SHORT $LN5@Insert_nod

; 649  :             _Head->_Left     = _Newnode;

  0002f	8b 45 f8	 mov	 eax, DWORD PTR __Head$[ebp]
  00032	8b 4d 10	 mov	 ecx, DWORD PTR __Newnode$[ebp]
  00035	89 08		 mov	 DWORD PTR [eax], ecx

; 650  :             _Head->_Parent   = _Newnode;

  00037	8b 45 f8	 mov	 eax, DWORD PTR __Head$[ebp]
  0003a	8b 4d 10	 mov	 ecx, DWORD PTR __Newnode$[ebp]
  0003d	89 48 04	 mov	 DWORD PTR [eax+4], ecx

; 651  :             _Head->_Right    = _Newnode;

  00040	8b 45 f8	 mov	 eax, DWORD PTR __Head$[ebp]
  00043	8b 4d 10	 mov	 ecx, DWORD PTR __Newnode$[ebp]
  00046	89 48 08	 mov	 DWORD PTR [eax+8], ecx

; 652  :             _Newnode->_Color = _Black; // the root is black

  00049	8b 45 10	 mov	 eax, DWORD PTR __Newnode$[ebp]
  0004c	c6 40 0c 01	 mov	 BYTE PTR [eax+12], 1

; 653  :             return _Newnode;

  00050	8b 45 10	 mov	 eax, DWORD PTR __Newnode$[ebp]
  00053	e9 a3 01 00 00	 jmp	 $LN18@Insert_nod
$LN5@Insert_nod:

; 654  :         }
; 655  : 
; 656  :         _STL_INTERNAL_CHECK(_Loc._Child != _Tree_child::_Unused);
; 657  :         if (_Loc._Child == _Tree_child::_Right) { // add to right of _Loc._Parent

  00058	83 7d 0c 00	 cmp	 DWORD PTR __Loc$[ebp+4], 0
  0005c	75 1f		 jne	 SHORT $LN6@Insert_nod

; 658  :             _STL_INTERNAL_CHECK(_Loc._Parent->_Right->_Isnil);
; 659  :             _Loc._Parent->_Right = _Newnode;

  0005e	8b 45 08	 mov	 eax, DWORD PTR __Loc$[ebp]
  00061	8b 4d 10	 mov	 ecx, DWORD PTR __Newnode$[ebp]
  00064	89 48 08	 mov	 DWORD PTR [eax+8], ecx

; 660  :             if (_Loc._Parent == _Head->_Right) { // remember rightmost node

  00067	8b 45 f8	 mov	 eax, DWORD PTR __Head$[ebp]
  0006a	8b 4d 08	 mov	 ecx, DWORD PTR __Loc$[ebp]
  0006d	3b 48 08	 cmp	 ecx, DWORD PTR [eax+8]
  00070	75 09		 jne	 SHORT $LN8@Insert_nod

; 661  :                 _Head->_Right = _Newnode;

  00072	8b 45 f8	 mov	 eax, DWORD PTR __Head$[ebp]
  00075	8b 4d 10	 mov	 ecx, DWORD PTR __Newnode$[ebp]
  00078	89 48 08	 mov	 DWORD PTR [eax+8], ecx
$LN8@Insert_nod:

; 662  :             }
; 663  :         } else { // add to left of _Loc._Parent

  0007b	eb 1a		 jmp	 SHORT $LN7@Insert_nod
$LN6@Insert_nod:

; 664  :             _STL_INTERNAL_CHECK(_Loc._Parent->_Left->_Isnil);
; 665  :             _Loc._Parent->_Left = _Newnode;

  0007d	8b 45 08	 mov	 eax, DWORD PTR __Loc$[ebp]
  00080	8b 4d 10	 mov	 ecx, DWORD PTR __Newnode$[ebp]
  00083	89 08		 mov	 DWORD PTR [eax], ecx

; 666  :             if (_Loc._Parent == _Head->_Left) { // remember leftmost node

  00085	8b 45 f8	 mov	 eax, DWORD PTR __Head$[ebp]
  00088	8b 4d 08	 mov	 ecx, DWORD PTR __Loc$[ebp]
  0008b	3b 08		 cmp	 ecx, DWORD PTR [eax]
  0008d	75 08		 jne	 SHORT $LN7@Insert_nod

; 667  :                 _Head->_Left = _Newnode;

  0008f	8b 45 f8	 mov	 eax, DWORD PTR __Head$[ebp]
  00092	8b 4d 10	 mov	 ecx, DWORD PTR __Newnode$[ebp]
  00095	89 08		 mov	 DWORD PTR [eax], ecx
$LN7@Insert_nod:

; 668  :             }
; 669  :         }
; 670  : 
; 671  :         for (_Nodeptr _Pnode = _Newnode; _Pnode->_Parent->_Color == _Red;) {

  00097	8b 45 10	 mov	 eax, DWORD PTR __Newnode$[ebp]
  0009a	89 45 fc	 mov	 DWORD PTR __Pnode$3[ebp], eax
$LN4@Insert_nod:
  0009d	8b 45 fc	 mov	 eax, DWORD PTR __Pnode$3[ebp]
  000a0	8b 40 04	 mov	 eax, DWORD PTR [eax+4]
  000a3	0f be 40 0c	 movsx	 eax, BYTE PTR [eax+12]
  000a7	85 c0		 test	 eax, eax
  000a9	0f 85 3f 01 00
	00		 jne	 $LN3@Insert_nod

; 672  :             if (_Pnode->_Parent == _Pnode->_Parent->_Parent->_Left) { // fixup red-red in left subtree

  000af	8b 45 fc	 mov	 eax, DWORD PTR __Pnode$3[ebp]
  000b2	8b 40 04	 mov	 eax, DWORD PTR [eax+4]
  000b5	8b 40 04	 mov	 eax, DWORD PTR [eax+4]
  000b8	8b 4d fc	 mov	 ecx, DWORD PTR __Pnode$3[ebp]
  000bb	8b 49 04	 mov	 ecx, DWORD PTR [ecx+4]
  000be	3b 08		 cmp	 ecx, DWORD PTR [eax]
  000c0	0f 85 95 00 00
	00		 jne	 $LN10@Insert_nod

; 673  :                 const auto _Parent_sibling = _Pnode->_Parent->_Parent->_Right;

  000c6	8b 45 fc	 mov	 eax, DWORD PTR __Pnode$3[ebp]
  000c9	8b 40 04	 mov	 eax, DWORD PTR [eax+4]
  000cc	8b 40 04	 mov	 eax, DWORD PTR [eax+4]
  000cf	8b 40 08	 mov	 eax, DWORD PTR [eax+8]
  000d2	89 45 f0	 mov	 DWORD PTR __Parent_sibling$2[ebp], eax

; 674  :                 if (_Parent_sibling->_Color == _Red) { // parent's sibling has two red children, blacken both

  000d5	8b 45 f0	 mov	 eax, DWORD PTR __Parent_sibling$2[ebp]
  000d8	0f be 40 0c	 movsx	 eax, BYTE PTR [eax+12]
  000dc	85 c0		 test	 eax, eax
  000de	75 2c		 jne	 SHORT $LN12@Insert_nod

; 675  :                     _Pnode->_Parent->_Color          = _Black;

  000e0	8b 45 fc	 mov	 eax, DWORD PTR __Pnode$3[ebp]
  000e3	8b 40 04	 mov	 eax, DWORD PTR [eax+4]
  000e6	c6 40 0c 01	 mov	 BYTE PTR [eax+12], 1

; 676  :                     _Parent_sibling->_Color          = _Black;

  000ea	8b 45 f0	 mov	 eax, DWORD PTR __Parent_sibling$2[ebp]
  000ed	c6 40 0c 01	 mov	 BYTE PTR [eax+12], 1

; 677  :                     _Pnode->_Parent->_Parent->_Color = _Red;

  000f1	8b 45 fc	 mov	 eax, DWORD PTR __Pnode$3[ebp]
  000f4	8b 40 04	 mov	 eax, DWORD PTR [eax+4]
  000f7	8b 40 04	 mov	 eax, DWORD PTR [eax+4]
  000fa	c6 40 0c 00	 mov	 BYTE PTR [eax+12], 0

; 678  :                     _Pnode                           = _Pnode->_Parent->_Parent;

  000fe	8b 45 fc	 mov	 eax, DWORD PTR __Pnode$3[ebp]
  00101	8b 40 04	 mov	 eax, DWORD PTR [eax+4]
  00104	8b 40 04	 mov	 eax, DWORD PTR [eax+4]
  00107	89 45 fc	 mov	 DWORD PTR __Pnode$3[ebp], eax

; 679  :                 } else { // parent's sibling has red and black children

  0010a	eb 4a		 jmp	 SHORT $LN13@Insert_nod
$LN12@Insert_nod:

; 680  :                     if (_Pnode == _Pnode->_Parent->_Right) { // rotate right child to left

  0010c	8b 45 fc	 mov	 eax, DWORD PTR __Pnode$3[ebp]
  0010f	8b 40 04	 mov	 eax, DWORD PTR [eax+4]
  00112	8b 4d fc	 mov	 ecx, DWORD PTR __Pnode$3[ebp]
  00115	3b 48 08	 cmp	 ecx, DWORD PTR [eax+8]
  00118	75 14		 jne	 SHORT $LN14@Insert_nod

; 681  :                         _Pnode = _Pnode->_Parent;

  0011a	8b 45 fc	 mov	 eax, DWORD PTR __Pnode$3[ebp]
  0011d	8b 40 04	 mov	 eax, DWORD PTR [eax+4]
  00120	89 45 fc	 mov	 DWORD PTR __Pnode$3[ebp], eax

; 682  :                         _Lrotate(_Pnode);

  00123	ff 75 fc	 push	 DWORD PTR __Pnode$3[ebp]
  00126	8b 4d f4	 mov	 ecx, DWORD PTR _this$[ebp]
  00129	e8 00 00 00 00	 call	 ?_Lrotate@?$_Tree_val@U?$_Tree_simple_types@V?$basic_string@DU?$char_traits@D@std@@V?$allocator@D@2@@std@@@std@@@std@@QAEXPAU?$_Tree_node@V?$basic_string@DU?$char_traits@D@std@@V?$allocator@D@2@@std@@PAX@2@@Z ; std::_Tree_val<std::_Tree_simple_types<std::basic_string<char,std::char_traits<char>,std::allocator<char> > > >::_Lrotate
$LN14@Insert_nod:

; 683  :                     }
; 684  : 
; 685  :                     _Pnode->_Parent->_Color          = _Black; // propagate red up

  0012e	8b 45 fc	 mov	 eax, DWORD PTR __Pnode$3[ebp]
  00131	8b 40 04	 mov	 eax, DWORD PTR [eax+4]
  00134	c6 40 0c 01	 mov	 BYTE PTR [eax+12], 1

; 686  :                     _Pnode->_Parent->_Parent->_Color = _Red;

  00138	8b 45 fc	 mov	 eax, DWORD PTR __Pnode$3[ebp]
  0013b	8b 40 04	 mov	 eax, DWORD PTR [eax+4]
  0013e	8b 40 04	 mov	 eax, DWORD PTR [eax+4]
  00141	c6 40 0c 00	 mov	 BYTE PTR [eax+12], 0

; 687  :                     _Rrotate(_Pnode->_Parent->_Parent);

  00145	8b 45 fc	 mov	 eax, DWORD PTR __Pnode$3[ebp]
  00148	8b 40 04	 mov	 eax, DWORD PTR [eax+4]
  0014b	ff 70 04	 push	 DWORD PTR [eax+4]
  0014e	8b 4d f4	 mov	 ecx, DWORD PTR _this$[ebp]
  00151	e8 00 00 00 00	 call	 ?_Rrotate@?$_Tree_val@U?$_Tree_simple_types@V?$basic_string@DU?$char_traits@D@std@@V?$allocator@D@2@@std@@@std@@@std@@QAEXPAU?$_Tree_node@V?$basic_string@DU?$char_traits@D@std@@V?$allocator@D@2@@std@@PAX@2@@Z ; std::_Tree_val<std::_Tree_simple_types<std::basic_string<char,std::char_traits<char>,std::allocator<char> > > >::_Rrotate
$LN13@Insert_nod:

; 688  :                 }
; 689  :             } else { // fixup red-red in right subtree

  00156	e9 8e 00 00 00	 jmp	 $LN11@Insert_nod
$LN10@Insert_nod:

; 690  :                 const auto _Parent_sibling = _Pnode->_Parent->_Parent->_Left;

  0015b	8b 45 fc	 mov	 eax, DWORD PTR __Pnode$3[ebp]
  0015e	8b 40 04	 mov	 eax, DWORD PTR [eax+4]
  00161	8b 40 04	 mov	 eax, DWORD PTR [eax+4]
  00164	8b 00		 mov	 eax, DWORD PTR [eax]
  00166	89 45 ec	 mov	 DWORD PTR __Parent_sibling$1[ebp], eax

; 691  :                 if (_Parent_sibling->_Color == _Red) { // parent's sibling has two red children, blacken both

  00169	8b 45 ec	 mov	 eax, DWORD PTR __Parent_sibling$1[ebp]
  0016c	0f be 40 0c	 movsx	 eax, BYTE PTR [eax+12]
  00170	85 c0		 test	 eax, eax
  00172	75 2c		 jne	 SHORT $LN15@Insert_nod

; 692  :                     _Pnode->_Parent->_Color          = _Black;

  00174	8b 45 fc	 mov	 eax, DWORD PTR __Pnode$3[ebp]
  00177	8b 40 04	 mov	 eax, DWORD PTR [eax+4]
  0017a	c6 40 0c 01	 mov	 BYTE PTR [eax+12], 1

; 693  :                     _Parent_sibling->_Color          = _Black;

  0017e	8b 45 ec	 mov	 eax, DWORD PTR __Parent_sibling$1[ebp]
  00181	c6 40 0c 01	 mov	 BYTE PTR [eax+12], 1

; 694  :                     _Pnode->_Parent->_Parent->_Color = _Red;

  00185	8b 45 fc	 mov	 eax, DWORD PTR __Pnode$3[ebp]
  00188	8b 40 04	 mov	 eax, DWORD PTR [eax+4]
  0018b	8b 40 04	 mov	 eax, DWORD PTR [eax+4]
  0018e	c6 40 0c 00	 mov	 BYTE PTR [eax+12], 0

; 695  :                     _Pnode                           = _Pnode->_Parent->_Parent;

  00192	8b 45 fc	 mov	 eax, DWORD PTR __Pnode$3[ebp]
  00195	8b 40 04	 mov	 eax, DWORD PTR [eax+4]
  00198	8b 40 04	 mov	 eax, DWORD PTR [eax+4]
  0019b	89 45 fc	 mov	 DWORD PTR __Pnode$3[ebp], eax

; 696  :                 } else { // parent's sibling has red and black children

  0019e	eb 49		 jmp	 SHORT $LN11@Insert_nod
$LN15@Insert_nod:

; 697  :                     if (_Pnode == _Pnode->_Parent->_Left) { // rotate left child to right

  001a0	8b 45 fc	 mov	 eax, DWORD PTR __Pnode$3[ebp]
  001a3	8b 40 04	 mov	 eax, DWORD PTR [eax+4]
  001a6	8b 4d fc	 mov	 ecx, DWORD PTR __Pnode$3[ebp]
  001a9	3b 08		 cmp	 ecx, DWORD PTR [eax]
  001ab	75 14		 jne	 SHORT $LN17@Insert_nod

; 698  :                         _Pnode = _Pnode->_Parent;

  001ad	8b 45 fc	 mov	 eax, DWORD PTR __Pnode$3[ebp]
  001b0	8b 40 04	 mov	 eax, DWORD PTR [eax+4]
  001b3	89 45 fc	 mov	 DWORD PTR __Pnode$3[ebp], eax

; 699  :                         _Rrotate(_Pnode);

  001b6	ff 75 fc	 push	 DWORD PTR __Pnode$3[ebp]
  001b9	8b 4d f4	 mov	 ecx, DWORD PTR _this$[ebp]
  001bc	e8 00 00 00 00	 call	 ?_Rrotate@?$_Tree_val@U?$_Tree_simple_types@V?$basic_string@DU?$char_traits@D@std@@V?$allocator@D@2@@std@@@std@@@std@@QAEXPAU?$_Tree_node@V?$basic_string@DU?$char_traits@D@std@@V?$allocator@D@2@@std@@PAX@2@@Z ; std::_Tree_val<std::_Tree_simple_types<std::basic_string<char,std::char_traits<char>,std::allocator<char> > > >::_Rrotate
$LN17@Insert_nod:

; 700  :                     }
; 701  : 
; 702  :                     _Pnode->_Parent->_Color          = _Black; // propagate red up

  001c1	8b 45 fc	 mov	 eax, DWORD PTR __Pnode$3[ebp]
  001c4	8b 40 04	 mov	 eax, DWORD PTR [eax+4]
  001c7	c6 40 0c 01	 mov	 BYTE PTR [eax+12], 1

; 703  :                     _Pnode->_Parent->_Parent->_Color = _Red;

  001cb	8b 45 fc	 mov	 eax, DWORD PTR __Pnode$3[ebp]
  001ce	8b 40 04	 mov	 eax, DWORD PTR [eax+4]
  001d1	8b 40 04	 mov	 eax, DWORD PTR [eax+4]
  001d4	c6 40 0c 00	 mov	 BYTE PTR [eax+12], 0

; 704  :                     _Lrotate(_Pnode->_Parent->_Parent);

  001d8	8b 45 fc	 mov	 eax, DWORD PTR __Pnode$3[ebp]
  001db	8b 40 04	 mov	 eax, DWORD PTR [eax+4]
  001de	ff 70 04	 push	 DWORD PTR [eax+4]
  001e1	8b 4d f4	 mov	 ecx, DWORD PTR _this$[ebp]
  001e4	e8 00 00 00 00	 call	 ?_Lrotate@?$_Tree_val@U?$_Tree_simple_types@V?$basic_string@DU?$char_traits@D@std@@V?$allocator@D@2@@std@@@std@@@std@@QAEXPAU?$_Tree_node@V?$basic_string@DU?$char_traits@D@std@@V?$allocator@D@2@@std@@PAX@2@@Z ; std::_Tree_val<std::_Tree_simple_types<std::basic_string<char,std::char_traits<char>,std::allocator<char> > > >::_Lrotate
$LN11@Insert_nod:

; 705  :                 }
; 706  :             }
; 707  :         }

  001e9	e9 af fe ff ff	 jmp	 $LN4@Insert_nod
$LN3@Insert_nod:

; 708  : 
; 709  :         _Head->_Parent->_Color = _Black; // root is always black

  001ee	8b 45 f8	 mov	 eax, DWORD PTR __Head$[ebp]
  001f1	8b 40 04	 mov	 eax, DWORD PTR [eax+4]
  001f4	c6 40 0c 01	 mov	 BYTE PTR [eax+12], 1

; 710  :         return _Newnode;

  001f8	8b 45 10	 mov	 eax, DWORD PTR __Newnode$[ebp]
$LN18@Insert_nod:

; 711  :     }

  001fb	c9		 leave
  001fc	c2 0c 00	 ret	 12			; 0000000cH
?_Insert_node@?$_Tree_val@U?$_Tree_simple_types@V?$basic_string@DU?$char_traits@D@std@@V?$allocator@D@2@@std@@@std@@@std@@QAEPAU?$_Tree_node@V?$basic_string@DU?$char_traits@D@std@@V?$allocator@D@2@@std@@PAX@2@U?$_Tree_id@PAU?$_Tree_node@V?$basic_string@DU?$char_traits@D@std@@V?$allocator@D@2@@std@@PAX@std@@@2@QAU32@@Z ENDP ; std::_Tree_val<std::_Tree_simple_types<std::basic_string<char,std::char_traits<char>,std::allocator<char> > > >::_Insert_node
_TEXT	ENDS
; Function compile flags: /Odspy
; File C:\Program Files (x86)\Microsoft Visual Studio\2019\Community\VC\Tools\MSVC\14.28.29333\include\xtree
; File C:\Program Files (x86)\Microsoft Visual Studio\2019\Community\VC\Tools\MSVC\14.28.29333\include\type_traits
; File C:\Program Files (x86)\Microsoft Visual Studio\2019\Community\VC\Tools\MSVC\14.28.29333\include\utility
; File C:\Program Files (x86)\Microsoft Visual Studio\2019\Community\VC\Tools\MSVC\14.28.29333\include\type_traits
; File C:\Program Files (x86)\Microsoft Visual Studio\2019\Community\VC\Tools\MSVC\14.28.29333\include\utility
; File C:\Program Files (x86)\Microsoft Visual Studio\2019\Community\VC\Tools\MSVC\14.28.29333\include\type_traits
; File C:\Program Files (x86)\Microsoft Visual Studio\2019\Community\VC\Tools\MSVC\14.28.29333\include\utility
; File C:\Program Files (x86)\Microsoft Visual Studio\2019\Community\VC\Tools\MSVC\14.28.29333\include\xtree
;	COMDAT ?_Extract@?$_Tree_val@U?$_Tree_simple_types@V?$basic_string@DU?$char_traits@D@std@@V?$allocator@D@2@@std@@@std@@@std@@QAEPAU?$_Tree_node@V?$basic_string@DU?$char_traits@D@std@@V?$allocator@D@2@@std@@PAX@2@V?$_Tree_unchecked_const_iterator@V?$_Tree_val@U?$_Tree_simple_types@V?$basic_string@DU?$char_traits@D@std@@V?$allocator@D@2@@std@@@std@@@std@@U_Iterator_base0@2@@2@@Z
_TEXT	SEGMENT
$T1 = -68						; size = 4
$T2 = -64						; size = 4
$T3 = -60						; size = 4
$T4 = -56						; size = 4
$T5 = -52						; size = 4
__Right$ = -48						; size = 4
__Left$ = -44						; size = 4
tv144 = -40						; size = 4
tv133 = -36						; size = 4
__Pnode$ = -32						; size = 4
__Pnode$ = -28						; size = 4
_this$ = -24						; size = 4
__Erasednode$ = -20					; size = 4
__Fixnode$ = -16					; size = 4
__Fixnodeparent$ = -12					; size = 4
__Pnode$ = -8						; size = 4
__Tmp$6 = -1						; size = 1
__Where$ = 8						; size = 4
?_Extract@?$_Tree_val@U?$_Tree_simple_types@V?$basic_string@DU?$char_traits@D@std@@V?$allocator@D@2@@std@@@std@@@std@@QAEPAU?$_Tree_node@V?$basic_string@DU?$char_traits@D@std@@V?$allocator@D@2@@std@@PAX@2@V?$_Tree_unchecked_const_iterator@V?$_Tree_val@U?$_Tree_simple_types@V?$basic_string@DU?$char_traits@D@std@@V?$allocator@D@2@@std@@@std@@@std@@U_Iterator_base0@2@@2@@Z PROC ; std::_Tree_val<std::_Tree_simple_types<std::basic_string<char,std::char_traits<char>,std::allocator<char> > > >::_Extract, COMDAT
; _this$ = ecx

; 502  :     _Nodeptr _Extract(_Unchecked_const_iterator _Where) noexcept {

  00000	55		 push	 ebp
  00001	8b ec		 mov	 ebp, esp
  00003	83 ec 44	 sub	 esp, 68			; 00000044H
  00006	89 4d e8	 mov	 DWORD PTR _this$[ebp], ecx

; 503  :         _Nodeptr _Erasednode = _Where._Ptr; // node to erase

  00009	8b 45 08	 mov	 eax, DWORD PTR __Where$[ebp]
  0000c	89 45 ec	 mov	 DWORD PTR __Erasednode$[ebp], eax

; 504  :         ++_Where; // save successor iterator for return

  0000f	8d 4d 08	 lea	 ecx, DWORD PTR __Where$[ebp]
  00012	e8 00 00 00 00	 call	 ??E?$_Tree_unchecked_const_iterator@V?$_Tree_val@U?$_Tree_simple_types@V?$basic_string@DU?$char_traits@D@std@@V?$allocator@D@2@@std@@@std@@@std@@U_Iterator_base0@2@@std@@QAEAAV01@XZ ; std::_Tree_unchecked_const_iterator<std::_Tree_val<std::_Tree_simple_types<std::basic_string<char,std::char_traits<char>,std::allocator<char> > > >,std::_Iterator_base0>::operator++

; 505  : 
; 506  :         _Nodeptr _Fixnode; // the node to recolor as needed
; 507  :         _Nodeptr _Fixnodeparent; // parent of _Fixnode (which may be nil)
; 508  :         _Nodeptr _Pnode = _Erasednode;

  00017	8b 45 ec	 mov	 eax, DWORD PTR __Erasednode$[ebp]
  0001a	89 45 f8	 mov	 DWORD PTR __Pnode$[ebp], eax

; 509  : 
; 510  :         if (_Pnode->_Left->_Isnil) {

  0001d	8b 45 f8	 mov	 eax, DWORD PTR __Pnode$[ebp]
  00020	8b 00		 mov	 eax, DWORD PTR [eax]
  00022	0f be 40 0d	 movsx	 eax, BYTE PTR [eax+13]
  00026	85 c0		 test	 eax, eax
  00028	74 0b		 je	 SHORT $LN5@Extract

; 511  :             _Fixnode = _Pnode->_Right; // stitch up right subtree

  0002a	8b 45 f8	 mov	 eax, DWORD PTR __Pnode$[ebp]
  0002d	8b 40 08	 mov	 eax, DWORD PTR [eax+8]
  00030	89 45 f0	 mov	 DWORD PTR __Fixnode$[ebp], eax
  00033	eb 27		 jmp	 SHORT $LN6@Extract
$LN5@Extract:

; 512  :         } else if (_Pnode->_Right->_Isnil) {

  00035	8b 45 f8	 mov	 eax, DWORD PTR __Pnode$[ebp]
  00038	8b 40 08	 mov	 eax, DWORD PTR [eax+8]
  0003b	0f be 40 0d	 movsx	 eax, BYTE PTR [eax+13]
  0003f	85 c0		 test	 eax, eax
  00041	74 0a		 je	 SHORT $LN7@Extract

; 513  :             _Fixnode = _Pnode->_Left; // stitch up left subtree

  00043	8b 45 f8	 mov	 eax, DWORD PTR __Pnode$[ebp]
  00046	8b 00		 mov	 eax, DWORD PTR [eax]
  00048	89 45 f0	 mov	 DWORD PTR __Fixnode$[ebp], eax

; 514  :         } else { // two subtrees, must lift successor node to replace erased

  0004b	eb 0f		 jmp	 SHORT $LN6@Extract
$LN7@Extract:

; 515  :             _Pnode   = _Where._Ptr; // _Pnode is successor node

  0004d	8b 45 08	 mov	 eax, DWORD PTR __Where$[ebp]
  00050	89 45 f8	 mov	 DWORD PTR __Pnode$[ebp], eax

; 516  :             _Fixnode = _Pnode->_Right; // _Fixnode is only subtree

  00053	8b 45 f8	 mov	 eax, DWORD PTR __Pnode$[ebp]
  00056	8b 40 08	 mov	 eax, DWORD PTR [eax+8]
  00059	89 45 f0	 mov	 DWORD PTR __Fixnode$[ebp], eax
$LN6@Extract:

; 517  :         }
; 518  : 
; 519  :         if (_Pnode == _Erasednode) { // at most one subtree, relink it

  0005c	8b 45 f8	 mov	 eax, DWORD PTR __Pnode$[ebp]
  0005f	3b 45 ec	 cmp	 eax, DWORD PTR __Erasednode$[ebp]
  00062	0f 85 01 01 00
	00		 jne	 $LN9@Extract

; 520  :             _Fixnodeparent = _Erasednode->_Parent;

  00068	8b 45 ec	 mov	 eax, DWORD PTR __Erasednode$[ebp]
  0006b	8b 40 04	 mov	 eax, DWORD PTR [eax+4]
  0006e	89 45 f4	 mov	 DWORD PTR __Fixnodeparent$[ebp], eax

; 521  :             if (!_Fixnode->_Isnil) {

  00071	8b 45 f0	 mov	 eax, DWORD PTR __Fixnode$[ebp]
  00074	0f be 40 0d	 movsx	 eax, BYTE PTR [eax+13]
  00078	85 c0		 test	 eax, eax
  0007a	75 09		 jne	 SHORT $LN11@Extract

; 522  :                 _Fixnode->_Parent = _Fixnodeparent; // link up

  0007c	8b 45 f0	 mov	 eax, DWORD PTR __Fixnode$[ebp]
  0007f	8b 4d f4	 mov	 ecx, DWORD PTR __Fixnodeparent$[ebp]
  00082	89 48 04	 mov	 DWORD PTR [eax+4], ecx
$LN11@Extract:

; 523  :             }
; 524  : 
; 525  :             if (_Myhead->_Parent == _Erasednode) {

  00085	8b 45 e8	 mov	 eax, DWORD PTR _this$[ebp]
  00088	8b 00		 mov	 eax, DWORD PTR [eax]
  0008a	8b 40 04	 mov	 eax, DWORD PTR [eax+4]
  0008d	3b 45 ec	 cmp	 eax, DWORD PTR __Erasednode$[ebp]
  00090	75 0d		 jne	 SHORT $LN12@Extract

; 526  :                 _Myhead->_Parent = _Fixnode; // link down from root

  00092	8b 45 e8	 mov	 eax, DWORD PTR _this$[ebp]
  00095	8b 00		 mov	 eax, DWORD PTR [eax]
  00097	8b 4d f0	 mov	 ecx, DWORD PTR __Fixnode$[ebp]
  0009a	89 48 04	 mov	 DWORD PTR [eax+4], ecx
  0009d	eb 1d		 jmp	 SHORT $LN13@Extract
$LN12@Extract:

; 527  :             } else if (_Fixnodeparent->_Left == _Erasednode) {

  0009f	8b 45 f4	 mov	 eax, DWORD PTR __Fixnodeparent$[ebp]
  000a2	8b 00		 mov	 eax, DWORD PTR [eax]
  000a4	3b 45 ec	 cmp	 eax, DWORD PTR __Erasednode$[ebp]
  000a7	75 0a		 jne	 SHORT $LN14@Extract

; 528  :                 _Fixnodeparent->_Left = _Fixnode; // link down to left

  000a9	8b 45 f4	 mov	 eax, DWORD PTR __Fixnodeparent$[ebp]
  000ac	8b 4d f0	 mov	 ecx, DWORD PTR __Fixnode$[ebp]
  000af	89 08		 mov	 DWORD PTR [eax], ecx

; 529  :             } else {

  000b1	eb 09		 jmp	 SHORT $LN13@Extract
$LN14@Extract:

; 530  :                 _Fixnodeparent->_Right = _Fixnode; // link down to right

  000b3	8b 45 f4	 mov	 eax, DWORD PTR __Fixnodeparent$[ebp]
  000b6	8b 4d f0	 mov	 ecx, DWORD PTR __Fixnode$[ebp]
  000b9	89 48 08	 mov	 DWORD PTR [eax+8], ecx
$LN13@Extract:

; 531  :             }
; 532  : 
; 533  :             if (_Myhead->_Left == _Erasednode) {

  000bc	8b 45 e8	 mov	 eax, DWORD PTR _this$[ebp]
  000bf	8b 00		 mov	 eax, DWORD PTR [eax]
  000c1	8b 00		 mov	 eax, DWORD PTR [eax]
  000c3	3b 45 ec	 cmp	 eax, DWORD PTR __Erasednode$[ebp]
  000c6	75 46		 jne	 SHORT $LN16@Extract

; 534  :                 _Myhead->_Left = _Fixnode->_Isnil ? _Fixnodeparent // smallest is parent of erased node

  000c8	8b 45 f0	 mov	 eax, DWORD PTR __Fixnode$[ebp]
  000cb	0f be 40 0d	 movsx	 eax, BYTE PTR [eax+13]
  000cf	85 c0		 test	 eax, eax
  000d1	74 08		 je	 SHORT $LN42@Extract
  000d3	8b 45 f4	 mov	 eax, DWORD PTR __Fixnodeparent$[ebp]
  000d6	89 45 dc	 mov	 DWORD PTR tv133[ebp], eax
  000d9	eb 29		 jmp	 SHORT $LN43@Extract
$LN42@Extract:
  000db	8b 45 f0	 mov	 eax, DWORD PTR __Fixnode$[ebp]
  000de	89 45 e4	 mov	 DWORD PTR __Pnode$[ebp], eax
  000e1	8b 45 c0	 mov	 eax, DWORD PTR $T2[ebp]
  000e4	89 45 dc	 mov	 DWORD PTR tv133[ebp], eax
$LN59@Extract:

; 451  :         while (!_Pnode->_Left->_Isnil) {

  000e7	8b 45 e4	 mov	 eax, DWORD PTR __Pnode$[ebp]
  000ea	8b 00		 mov	 eax, DWORD PTR [eax]
  000ec	0f be 40 0d	 movsx	 eax, BYTE PTR [eax+13]
  000f0	85 c0		 test	 eax, eax
  000f2	75 0a		 jne	 SHORT $LN60@Extract

; 452  :             _Pnode = _Pnode->_Left;

  000f4	8b 45 e4	 mov	 eax, DWORD PTR __Pnode$[ebp]
  000f7	8b 00		 mov	 eax, DWORD PTR [eax]
  000f9	89 45 e4	 mov	 DWORD PTR __Pnode$[ebp], eax

; 453  :         }

  000fc	eb e9		 jmp	 SHORT $LN59@Extract
$LN60@Extract:

; 454  : 
; 455  :         return _Pnode;

  000fe	8b 45 e4	 mov	 eax, DWORD PTR __Pnode$[ebp]
  00101	89 45 dc	 mov	 DWORD PTR tv133[ebp], eax
$LN43@Extract:

; 534  :                 _Myhead->_Left = _Fixnode->_Isnil ? _Fixnodeparent // smallest is parent of erased node

  00104	8b 45 e8	 mov	 eax, DWORD PTR _this$[ebp]
  00107	8b 00		 mov	 eax, DWORD PTR [eax]
  00109	8b 4d dc	 mov	 ecx, DWORD PTR tv133[ebp]
  0010c	89 08		 mov	 DWORD PTR [eax], ecx
$LN16@Extract:

; 535  :                                                   : _Min(_Fixnode); // smallest in relinked subtree
; 536  :             }
; 537  : 
; 538  :             if (_Myhead->_Right == _Erasednode) {

  0010e	8b 45 e8	 mov	 eax, DWORD PTR _this$[ebp]
  00111	8b 00		 mov	 eax, DWORD PTR [eax]
  00113	8b 40 08	 mov	 eax, DWORD PTR [eax+8]
  00116	3b 45 ec	 cmp	 eax, DWORD PTR __Erasednode$[ebp]
  00119	75 49		 jne	 SHORT $LN17@Extract

; 539  :                 _Myhead->_Right = _Fixnode->_Isnil ? _Fixnodeparent // largest is parent of erased node

  0011b	8b 45 f0	 mov	 eax, DWORD PTR __Fixnode$[ebp]
  0011e	0f be 40 0d	 movsx	 eax, BYTE PTR [eax+13]
  00122	85 c0		 test	 eax, eax
  00124	74 08		 je	 SHORT $LN44@Extract
  00126	8b 45 f4	 mov	 eax, DWORD PTR __Fixnodeparent$[ebp]
  00129	89 45 d8	 mov	 DWORD PTR tv144[ebp], eax
  0012c	eb 2b		 jmp	 SHORT $LN45@Extract
$LN44@Extract:
  0012e	8b 45 f0	 mov	 eax, DWORD PTR __Fixnode$[ebp]
  00131	89 45 e0	 mov	 DWORD PTR __Pnode$[ebp], eax
  00134	8b 45 bc	 mov	 eax, DWORD PTR $T1[ebp]
  00137	89 45 d8	 mov	 DWORD PTR tv144[ebp], eax
$LN64@Extract:

; 443  :         while (!_Pnode->_Right->_Isnil) {

  0013a	8b 45 e0	 mov	 eax, DWORD PTR __Pnode$[ebp]
  0013d	8b 40 08	 mov	 eax, DWORD PTR [eax+8]
  00140	0f be 40 0d	 movsx	 eax, BYTE PTR [eax+13]
  00144	85 c0		 test	 eax, eax
  00146	75 0b		 jne	 SHORT $LN65@Extract

; 444  :             _Pnode = _Pnode->_Right;

  00148	8b 45 e0	 mov	 eax, DWORD PTR __Pnode$[ebp]
  0014b	8b 40 08	 mov	 eax, DWORD PTR [eax+8]
  0014e	89 45 e0	 mov	 DWORD PTR __Pnode$[ebp], eax

; 445  :         }

  00151	eb e7		 jmp	 SHORT $LN64@Extract
$LN65@Extract:

; 446  : 
; 447  :         return _Pnode;

  00153	8b 45 e0	 mov	 eax, DWORD PTR __Pnode$[ebp]
  00156	89 45 d8	 mov	 DWORD PTR tv144[ebp], eax
$LN45@Extract:

; 539  :                 _Myhead->_Right = _Fixnode->_Isnil ? _Fixnodeparent // largest is parent of erased node

  00159	8b 45 e8	 mov	 eax, DWORD PTR _this$[ebp]
  0015c	8b 00		 mov	 eax, DWORD PTR [eax]
  0015e	8b 4d d8	 mov	 ecx, DWORD PTR tv144[ebp]
  00161	89 48 08	 mov	 DWORD PTR [eax+8], ecx
$LN17@Extract:

; 540  :                                                    : _Max(_Fixnode); // largest in relinked subtree
; 541  :             }
; 542  :         } else { // erased has two subtrees, _Pnode is successor to erased

  00164	e9 f1 00 00 00	 jmp	 $LN10@Extract
$LN9@Extract:

; 543  :             _Erasednode->_Left->_Parent = _Pnode; // link left up

  00169	8b 45 ec	 mov	 eax, DWORD PTR __Erasednode$[ebp]
  0016c	8b 00		 mov	 eax, DWORD PTR [eax]
  0016e	8b 4d f8	 mov	 ecx, DWORD PTR __Pnode$[ebp]
  00171	89 48 04	 mov	 DWORD PTR [eax+4], ecx

; 544  :             _Pnode->_Left               = _Erasednode->_Left; // link successor down

  00174	8b 45 f8	 mov	 eax, DWORD PTR __Pnode$[ebp]
  00177	8b 4d ec	 mov	 ecx, DWORD PTR __Erasednode$[ebp]
  0017a	8b 09		 mov	 ecx, DWORD PTR [ecx]
  0017c	89 08		 mov	 DWORD PTR [eax], ecx

; 545  : 
; 546  :             if (_Pnode == _Erasednode->_Right) {

  0017e	8b 45 ec	 mov	 eax, DWORD PTR __Erasednode$[ebp]
  00181	8b 4d f8	 mov	 ecx, DWORD PTR __Pnode$[ebp]
  00184	3b 48 08	 cmp	 ecx, DWORD PTR [eax+8]
  00187	75 08		 jne	 SHORT $LN18@Extract

; 547  :                 _Fixnodeparent = _Pnode; // successor is next to erased

  00189	8b 45 f8	 mov	 eax, DWORD PTR __Pnode$[ebp]
  0018c	89 45 f4	 mov	 DWORD PTR __Fixnodeparent$[ebp], eax

; 548  :             } else { // successor further down, link in place of erased

  0018f	eb 3d		 jmp	 SHORT $LN19@Extract
$LN18@Extract:

; 549  :                 _Fixnodeparent = _Pnode->_Parent; // parent is successor's

  00191	8b 45 f8	 mov	 eax, DWORD PTR __Pnode$[ebp]
  00194	8b 40 04	 mov	 eax, DWORD PTR [eax+4]
  00197	89 45 f4	 mov	 DWORD PTR __Fixnodeparent$[ebp], eax

; 550  :                 if (!_Fixnode->_Isnil) {

  0019a	8b 45 f0	 mov	 eax, DWORD PTR __Fixnode$[ebp]
  0019d	0f be 40 0d	 movsx	 eax, BYTE PTR [eax+13]
  001a1	85 c0		 test	 eax, eax
  001a3	75 09		 jne	 SHORT $LN20@Extract

; 551  :                     _Fixnode->_Parent = _Fixnodeparent; // link fix up

  001a5	8b 45 f0	 mov	 eax, DWORD PTR __Fixnode$[ebp]
  001a8	8b 4d f4	 mov	 ecx, DWORD PTR __Fixnodeparent$[ebp]
  001ab	89 48 04	 mov	 DWORD PTR [eax+4], ecx
$LN20@Extract:

; 552  :                 }
; 553  : 
; 554  :                 _Fixnodeparent->_Left        = _Fixnode; // link fix down

  001ae	8b 45 f4	 mov	 eax, DWORD PTR __Fixnodeparent$[ebp]
  001b1	8b 4d f0	 mov	 ecx, DWORD PTR __Fixnode$[ebp]
  001b4	89 08		 mov	 DWORD PTR [eax], ecx

; 555  :                 _Pnode->_Right               = _Erasednode->_Right; // link next down

  001b6	8b 45 f8	 mov	 eax, DWORD PTR __Pnode$[ebp]
  001b9	8b 4d ec	 mov	 ecx, DWORD PTR __Erasednode$[ebp]
  001bc	8b 49 08	 mov	 ecx, DWORD PTR [ecx+8]
  001bf	89 48 08	 mov	 DWORD PTR [eax+8], ecx

; 556  :                 _Erasednode->_Right->_Parent = _Pnode; // right up

  001c2	8b 45 ec	 mov	 eax, DWORD PTR __Erasednode$[ebp]
  001c5	8b 40 08	 mov	 eax, DWORD PTR [eax+8]
  001c8	8b 4d f8	 mov	 ecx, DWORD PTR __Pnode$[ebp]
  001cb	89 48 04	 mov	 DWORD PTR [eax+4], ecx
$LN19@Extract:

; 557  :             }
; 558  : 
; 559  :             if (_Myhead->_Parent == _Erasednode) {

  001ce	8b 45 e8	 mov	 eax, DWORD PTR _this$[ebp]
  001d1	8b 00		 mov	 eax, DWORD PTR [eax]
  001d3	8b 40 04	 mov	 eax, DWORD PTR [eax+4]
  001d6	3b 45 ec	 cmp	 eax, DWORD PTR __Erasednode$[ebp]
  001d9	75 0d		 jne	 SHORT $LN21@Extract

; 560  :                 _Myhead->_Parent = _Pnode; // link down from root

  001db	8b 45 e8	 mov	 eax, DWORD PTR _this$[ebp]
  001de	8b 00		 mov	 eax, DWORD PTR [eax]
  001e0	8b 4d f8	 mov	 ecx, DWORD PTR __Pnode$[ebp]
  001e3	89 48 04	 mov	 DWORD PTR [eax+4], ecx
  001e6	eb 26		 jmp	 SHORT $LN22@Extract
$LN21@Extract:

; 561  :             } else if (_Erasednode->_Parent->_Left == _Erasednode) {

  001e8	8b 45 ec	 mov	 eax, DWORD PTR __Erasednode$[ebp]
  001eb	8b 40 04	 mov	 eax, DWORD PTR [eax+4]
  001ee	8b 00		 mov	 eax, DWORD PTR [eax]
  001f0	3b 45 ec	 cmp	 eax, DWORD PTR __Erasednode$[ebp]
  001f3	75 0d		 jne	 SHORT $LN23@Extract

; 562  :                 _Erasednode->_Parent->_Left = _Pnode; // link down to left

  001f5	8b 45 ec	 mov	 eax, DWORD PTR __Erasednode$[ebp]
  001f8	8b 40 04	 mov	 eax, DWORD PTR [eax+4]
  001fb	8b 4d f8	 mov	 ecx, DWORD PTR __Pnode$[ebp]
  001fe	89 08		 mov	 DWORD PTR [eax], ecx

; 563  :             } else {

  00200	eb 0c		 jmp	 SHORT $LN22@Extract
$LN23@Extract:

; 564  :                 _Erasednode->_Parent->_Right = _Pnode; // link down to right

  00202	8b 45 ec	 mov	 eax, DWORD PTR __Erasednode$[ebp]
  00205	8b 40 04	 mov	 eax, DWORD PTR [eax+4]
  00208	8b 4d f8	 mov	 ecx, DWORD PTR __Pnode$[ebp]
  0020b	89 48 08	 mov	 DWORD PTR [eax+8], ecx
$LN22@Extract:

; 565  :             }
; 566  : 
; 567  :             _Pnode->_Parent = _Erasednode->_Parent; // link successor up

  0020e	8b 45 f8	 mov	 eax, DWORD PTR __Pnode$[ebp]
  00211	8b 4d ec	 mov	 ecx, DWORD PTR __Erasednode$[ebp]
  00214	8b 49 04	 mov	 ecx, DWORD PTR [ecx+4]
  00217	89 48 04	 mov	 DWORD PTR [eax+4], ecx

; 568  :             _STD swap(_Pnode->_Color, _Erasednode->_Color); // recolor it

  0021a	8b 45 ec	 mov	 eax, DWORD PTR __Erasednode$[ebp]
  0021d	83 c0 0c	 add	 eax, 12			; 0000000cH
  00220	89 45 d0	 mov	 DWORD PTR __Right$[ebp], eax
  00223	8b 45 f8	 mov	 eax, DWORD PTR __Pnode$[ebp]
  00226	83 c0 0c	 add	 eax, 12			; 0000000cH
  00229	89 45 d4	 mov	 DWORD PTR __Left$[ebp], eax
; File C:\Program Files (x86)\Microsoft Visual Studio\2019\Community\VC\Tools\MSVC\14.28.29333\include\type_traits

; 1455 :     return static_cast<remove_reference_t<_Ty>&&>(_Arg);

  0022c	8b 45 d4	 mov	 eax, DWORD PTR __Left$[ebp]
  0022f	89 45 cc	 mov	 DWORD PTR $T5[ebp], eax
; File C:\Program Files (x86)\Microsoft Visual Studio\2019\Community\VC\Tools\MSVC\14.28.29333\include\utility

; 104  :     _Ty _Tmp = _STD move(_Left);

  00232	8b 45 cc	 mov	 eax, DWORD PTR $T5[ebp]
  00235	8a 00		 mov	 al, BYTE PTR [eax]
  00237	88 45 ff	 mov	 BYTE PTR __Tmp$6[ebp], al
; File C:\Program Files (x86)\Microsoft Visual Studio\2019\Community\VC\Tools\MSVC\14.28.29333\include\type_traits

; 1455 :     return static_cast<remove_reference_t<_Ty>&&>(_Arg);

  0023a	8b 45 d0	 mov	 eax, DWORD PTR __Right$[ebp]
  0023d	89 45 c8	 mov	 DWORD PTR $T4[ebp], eax
; File C:\Program Files (x86)\Microsoft Visual Studio\2019\Community\VC\Tools\MSVC\14.28.29333\include\utility

; 105  :     _Left    = _STD move(_Right);

  00240	8b 45 d4	 mov	 eax, DWORD PTR __Left$[ebp]
  00243	8b 4d c8	 mov	 ecx, DWORD PTR $T4[ebp]
  00246	8a 09		 mov	 cl, BYTE PTR [ecx]
  00248	88 08		 mov	 BYTE PTR [eax], cl
; File C:\Program Files (x86)\Microsoft Visual Studio\2019\Community\VC\Tools\MSVC\14.28.29333\include\type_traits

; 1455 :     return static_cast<remove_reference_t<_Ty>&&>(_Arg);

  0024a	8d 45 ff	 lea	 eax, DWORD PTR __Tmp$6[ebp]
  0024d	89 45 c4	 mov	 DWORD PTR $T3[ebp], eax
; File C:\Program Files (x86)\Microsoft Visual Studio\2019\Community\VC\Tools\MSVC\14.28.29333\include\utility

; 106  :     _Right   = _STD move(_Tmp);

  00250	8b 45 d0	 mov	 eax, DWORD PTR __Right$[ebp]
  00253	8b 4d c4	 mov	 ecx, DWORD PTR $T3[ebp]
  00256	8a 09		 mov	 cl, BYTE PTR [ecx]
  00258	88 08		 mov	 BYTE PTR [eax], cl
$LN10@Extract:
; File C:\Program Files (x86)\Microsoft Visual Studio\2019\Community\VC\Tools\MSVC\14.28.29333\include\xtree

; 571  :         if (_Erasednode->_Color == _Black) { // erasing black link, must recolor/rebalance tree

  0025a	8b 45 ec	 mov	 eax, DWORD PTR __Erasednode$[ebp]
  0025d	0f be 40 0c	 movsx	 eax, BYTE PTR [eax+12]
  00261	83 f8 01	 cmp	 eax, 1
  00264	0f 85 f4 01 00
	00		 jne	 $LN25@Extract

; 572  :             for (; _Fixnode != _Myhead->_Parent && _Fixnode->_Color == _Black; _Fixnodeparent = _Fixnode->_Parent) {

  0026a	eb 09		 jmp	 SHORT $LN4@Extract
$LN2@Extract:
  0026c	8b 45 f0	 mov	 eax, DWORD PTR __Fixnode$[ebp]
  0026f	8b 40 04	 mov	 eax, DWORD PTR [eax+4]
  00272	89 45 f4	 mov	 DWORD PTR __Fixnodeparent$[ebp], eax
$LN4@Extract:
  00275	8b 45 e8	 mov	 eax, DWORD PTR _this$[ebp]
  00278	8b 00		 mov	 eax, DWORD PTR [eax]
  0027a	8b 4d f0	 mov	 ecx, DWORD PTR __Fixnode$[ebp]
  0027d	3b 48 04	 cmp	 ecx, DWORD PTR [eax+4]
  00280	0f 84 d1 01 00
	00		 je	 $LN3@Extract
  00286	8b 45 f0	 mov	 eax, DWORD PTR __Fixnode$[ebp]
  00289	0f be 40 0c	 movsx	 eax, BYTE PTR [eax+12]
  0028d	83 f8 01	 cmp	 eax, 1
  00290	0f 85 c1 01 00
	00		 jne	 $LN3@Extract

; 573  :                 if (_Fixnode == _Fixnodeparent->_Left) { // fixup left subtree

  00296	8b 45 f4	 mov	 eax, DWORD PTR __Fixnodeparent$[ebp]
  00299	8b 4d f0	 mov	 ecx, DWORD PTR __Fixnode$[ebp]
  0029c	3b 08		 cmp	 ecx, DWORD PTR [eax]
  0029e	0f 85 dd 00 00
	00		 jne	 $LN26@Extract

; 574  :                     _Pnode = _Fixnodeparent->_Right;

  002a4	8b 45 f4	 mov	 eax, DWORD PTR __Fixnodeparent$[ebp]
  002a7	8b 40 08	 mov	 eax, DWORD PTR [eax+8]
  002aa	89 45 f8	 mov	 DWORD PTR __Pnode$[ebp], eax

; 575  :                     if (_Pnode->_Color == _Red) { // rotate red up from right subtree

  002ad	8b 45 f8	 mov	 eax, DWORD PTR __Pnode$[ebp]
  002b0	0f be 40 0c	 movsx	 eax, BYTE PTR [eax+12]
  002b4	85 c0		 test	 eax, eax
  002b6	75 22		 jne	 SHORT $LN28@Extract

; 576  :                         _Pnode->_Color         = _Black;

  002b8	8b 45 f8	 mov	 eax, DWORD PTR __Pnode$[ebp]
  002bb	c6 40 0c 01	 mov	 BYTE PTR [eax+12], 1

; 577  :                         _Fixnodeparent->_Color = _Red;

  002bf	8b 45 f4	 mov	 eax, DWORD PTR __Fixnodeparent$[ebp]
  002c2	c6 40 0c 00	 mov	 BYTE PTR [eax+12], 0

; 578  :                         _Lrotate(_Fixnodeparent);

  002c6	ff 75 f4	 push	 DWORD PTR __Fixnodeparent$[ebp]
  002c9	8b 4d e8	 mov	 ecx, DWORD PTR _this$[ebp]
  002cc	e8 00 00 00 00	 call	 ?_Lrotate@?$_Tree_val@U?$_Tree_simple_types@V?$basic_string@DU?$char_traits@D@std@@V?$allocator@D@2@@std@@@std@@@std@@QAEXPAU?$_Tree_node@V?$basic_string@DU?$char_traits@D@std@@V?$allocator@D@2@@std@@PAX@2@@Z ; std::_Tree_val<std::_Tree_simple_types<std::basic_string<char,std::char_traits<char>,std::allocator<char> > > >::_Lrotate

; 579  :                         _Pnode = _Fixnodeparent->_Right;

  002d1	8b 45 f4	 mov	 eax, DWORD PTR __Fixnodeparent$[ebp]
  002d4	8b 40 08	 mov	 eax, DWORD PTR [eax+8]
  002d7	89 45 f8	 mov	 DWORD PTR __Pnode$[ebp], eax
$LN28@Extract:

; 580  :                     }
; 581  : 
; 582  :                     if (_Pnode->_Isnil) {

  002da	8b 45 f8	 mov	 eax, DWORD PTR __Pnode$[ebp]
  002dd	0f be 40 0d	 movsx	 eax, BYTE PTR [eax+13]
  002e1	85 c0		 test	 eax, eax
  002e3	74 0b		 je	 SHORT $LN29@Extract

; 583  :                         _Fixnode = _Fixnodeparent; // shouldn't happen

  002e5	8b 45 f4	 mov	 eax, DWORD PTR __Fixnodeparent$[ebp]
  002e8	89 45 f0	 mov	 DWORD PTR __Fixnode$[ebp], eax

; 584  :                     } else if (_Pnode->_Left->_Color == _Black

  002eb	e9 8c 00 00 00	 jmp	 $LN30@Extract
$LN29@Extract:

; 585  :                                && _Pnode->_Right->_Color == _Black) { // redden right subtree with black children

  002f0	8b 45 f8	 mov	 eax, DWORD PTR __Pnode$[ebp]
  002f3	8b 00		 mov	 eax, DWORD PTR [eax]
  002f5	0f be 40 0c	 movsx	 eax, BYTE PTR [eax+12]
  002f9	83 f8 01	 cmp	 eax, 1
  002fc	75 1e		 jne	 SHORT $LN31@Extract
  002fe	8b 45 f8	 mov	 eax, DWORD PTR __Pnode$[ebp]
  00301	8b 40 08	 mov	 eax, DWORD PTR [eax+8]
  00304	0f be 40 0c	 movsx	 eax, BYTE PTR [eax+12]
  00308	83 f8 01	 cmp	 eax, 1
  0030b	75 0f		 jne	 SHORT $LN31@Extract

; 586  :                         _Pnode->_Color = _Red;

  0030d	8b 45 f8	 mov	 eax, DWORD PTR __Pnode$[ebp]
  00310	c6 40 0c 00	 mov	 BYTE PTR [eax+12], 0

; 587  :                         _Fixnode       = _Fixnodeparent;

  00314	8b 45 f4	 mov	 eax, DWORD PTR __Fixnodeparent$[ebp]
  00317	89 45 f0	 mov	 DWORD PTR __Fixnode$[ebp], eax

; 588  :                     } else { // must rearrange right subtree

  0031a	eb 60		 jmp	 SHORT $LN30@Extract
$LN31@Extract:

; 589  :                         if (_Pnode->_Right->_Color == _Black) { // rotate red up from left sub-subtree

  0031c	8b 45 f8	 mov	 eax, DWORD PTR __Pnode$[ebp]
  0031f	8b 40 08	 mov	 eax, DWORD PTR [eax+8]
  00322	0f be 40 0c	 movsx	 eax, BYTE PTR [eax+12]
  00326	83 f8 01	 cmp	 eax, 1
  00329	75 24		 jne	 SHORT $LN33@Extract

; 590  :                             _Pnode->_Left->_Color = _Black;

  0032b	8b 45 f8	 mov	 eax, DWORD PTR __Pnode$[ebp]
  0032e	8b 00		 mov	 eax, DWORD PTR [eax]
  00330	c6 40 0c 01	 mov	 BYTE PTR [eax+12], 1

; 591  :                             _Pnode->_Color        = _Red;

  00334	8b 45 f8	 mov	 eax, DWORD PTR __Pnode$[ebp]
  00337	c6 40 0c 00	 mov	 BYTE PTR [eax+12], 0

; 592  :                             _Rrotate(_Pnode);

  0033b	ff 75 f8	 push	 DWORD PTR __Pnode$[ebp]
  0033e	8b 4d e8	 mov	 ecx, DWORD PTR _this$[ebp]
  00341	e8 00 00 00 00	 call	 ?_Rrotate@?$_Tree_val@U?$_Tree_simple_types@V?$basic_string@DU?$char_traits@D@std@@V?$allocator@D@2@@std@@@std@@@std@@QAEXPAU?$_Tree_node@V?$basic_string@DU?$char_traits@D@std@@V?$allocator@D@2@@std@@PAX@2@@Z ; std::_Tree_val<std::_Tree_simple_types<std::basic_string<char,std::char_traits<char>,std::allocator<char> > > >::_Rrotate

; 593  :                             _Pnode = _Fixnodeparent->_Right;

  00346	8b 45 f4	 mov	 eax, DWORD PTR __Fixnodeparent$[ebp]
  00349	8b 40 08	 mov	 eax, DWORD PTR [eax+8]
  0034c	89 45 f8	 mov	 DWORD PTR __Pnode$[ebp], eax
$LN33@Extract:

; 594  :                         }
; 595  : 
; 596  :                         _Pnode->_Color         = _Fixnodeparent->_Color;

  0034f	8b 45 f8	 mov	 eax, DWORD PTR __Pnode$[ebp]
  00352	8b 4d f4	 mov	 ecx, DWORD PTR __Fixnodeparent$[ebp]
  00355	8a 49 0c	 mov	 cl, BYTE PTR [ecx+12]
  00358	88 48 0c	 mov	 BYTE PTR [eax+12], cl

; 597  :                         _Fixnodeparent->_Color = _Black;

  0035b	8b 45 f4	 mov	 eax, DWORD PTR __Fixnodeparent$[ebp]
  0035e	c6 40 0c 01	 mov	 BYTE PTR [eax+12], 1

; 598  :                         _Pnode->_Right->_Color = _Black;

  00362	8b 45 f8	 mov	 eax, DWORD PTR __Pnode$[ebp]
  00365	8b 40 08	 mov	 eax, DWORD PTR [eax+8]
  00368	c6 40 0c 01	 mov	 BYTE PTR [eax+12], 1

; 599  :                         _Lrotate(_Fixnodeparent);

  0036c	ff 75 f4	 push	 DWORD PTR __Fixnodeparent$[ebp]
  0036f	8b 4d e8	 mov	 ecx, DWORD PTR _this$[ebp]
  00372	e8 00 00 00 00	 call	 ?_Lrotate@?$_Tree_val@U?$_Tree_simple_types@V?$basic_string@DU?$char_traits@D@std@@V?$allocator@D@2@@std@@@std@@@std@@QAEXPAU?$_Tree_node@V?$basic_string@DU?$char_traits@D@std@@V?$allocator@D@2@@std@@PAX@2@@Z ; std::_Tree_val<std::_Tree_simple_types<std::basic_string<char,std::char_traits<char>,std::allocator<char> > > >::_Lrotate

; 600  :                         break; // tree now recolored/rebalanced

  00377	e9 db 00 00 00	 jmp	 $LN3@Extract
$LN30@Extract:

; 601  :                     }
; 602  :                 } else { // fixup right subtree

  0037c	e9 d1 00 00 00	 jmp	 $LN27@Extract
$LN26@Extract:

; 603  :                     _Pnode = _Fixnodeparent->_Left;

  00381	8b 45 f4	 mov	 eax, DWORD PTR __Fixnodeparent$[ebp]
  00384	8b 00		 mov	 eax, DWORD PTR [eax]
  00386	89 45 f8	 mov	 DWORD PTR __Pnode$[ebp], eax

; 604  :                     if (_Pnode->_Color == _Red) { // rotate red up from left subtree

  00389	8b 45 f8	 mov	 eax, DWORD PTR __Pnode$[ebp]
  0038c	0f be 40 0c	 movsx	 eax, BYTE PTR [eax+12]
  00390	85 c0		 test	 eax, eax
  00392	75 21		 jne	 SHORT $LN34@Extract

; 605  :                         _Pnode->_Color         = _Black;

  00394	8b 45 f8	 mov	 eax, DWORD PTR __Pnode$[ebp]
  00397	c6 40 0c 01	 mov	 BYTE PTR [eax+12], 1

; 606  :                         _Fixnodeparent->_Color = _Red;

  0039b	8b 45 f4	 mov	 eax, DWORD PTR __Fixnodeparent$[ebp]
  0039e	c6 40 0c 00	 mov	 BYTE PTR [eax+12], 0

; 607  :                         _Rrotate(_Fixnodeparent);

  003a2	ff 75 f4	 push	 DWORD PTR __Fixnodeparent$[ebp]
  003a5	8b 4d e8	 mov	 ecx, DWORD PTR _this$[ebp]
  003a8	e8 00 00 00 00	 call	 ?_Rrotate@?$_Tree_val@U?$_Tree_simple_types@V?$basic_string@DU?$char_traits@D@std@@V?$allocator@D@2@@std@@@std@@@std@@QAEXPAU?$_Tree_node@V?$basic_string@DU?$char_traits@D@std@@V?$allocator@D@2@@std@@PAX@2@@Z ; std::_Tree_val<std::_Tree_simple_types<std::basic_string<char,std::char_traits<char>,std::allocator<char> > > >::_Rrotate

; 608  :                         _Pnode = _Fixnodeparent->_Left;

  003ad	8b 45 f4	 mov	 eax, DWORD PTR __Fixnodeparent$[ebp]
  003b0	8b 00		 mov	 eax, DWORD PTR [eax]
  003b2	89 45 f8	 mov	 DWORD PTR __Pnode$[ebp], eax
$LN34@Extract:

; 609  :                     }
; 610  : 
; 611  :                     if (_Pnode->_Isnil) {

  003b5	8b 45 f8	 mov	 eax, DWORD PTR __Pnode$[ebp]
  003b8	0f be 40 0d	 movsx	 eax, BYTE PTR [eax+13]
  003bc	85 c0		 test	 eax, eax
  003be	74 0b		 je	 SHORT $LN35@Extract

; 612  :                         _Fixnode = _Fixnodeparent; // shouldn't happen

  003c0	8b 45 f4	 mov	 eax, DWORD PTR __Fixnodeparent$[ebp]
  003c3	89 45 f0	 mov	 DWORD PTR __Fixnode$[ebp], eax

; 613  :                     } else if (_Pnode->_Right->_Color == _Black

  003c6	e9 87 00 00 00	 jmp	 $LN27@Extract
$LN35@Extract:

; 614  :                                && _Pnode->_Left->_Color == _Black) { // redden left subtree with black children

  003cb	8b 45 f8	 mov	 eax, DWORD PTR __Pnode$[ebp]
  003ce	8b 40 08	 mov	 eax, DWORD PTR [eax+8]
  003d1	0f be 40 0c	 movsx	 eax, BYTE PTR [eax+12]
  003d5	83 f8 01	 cmp	 eax, 1
  003d8	75 1d		 jne	 SHORT $LN37@Extract
  003da	8b 45 f8	 mov	 eax, DWORD PTR __Pnode$[ebp]
  003dd	8b 00		 mov	 eax, DWORD PTR [eax]
  003df	0f be 40 0c	 movsx	 eax, BYTE PTR [eax+12]
  003e3	83 f8 01	 cmp	 eax, 1
  003e6	75 0f		 jne	 SHORT $LN37@Extract

; 615  :                         _Pnode->_Color = _Red;

  003e8	8b 45 f8	 mov	 eax, DWORD PTR __Pnode$[ebp]
  003eb	c6 40 0c 00	 mov	 BYTE PTR [eax+12], 0

; 616  :                         _Fixnode       = _Fixnodeparent;

  003ef	8b 45 f4	 mov	 eax, DWORD PTR __Fixnodeparent$[ebp]
  003f2	89 45 f0	 mov	 DWORD PTR __Fixnode$[ebp], eax

; 617  :                     } else { // must rearrange left subtree

  003f5	eb 5b		 jmp	 SHORT $LN27@Extract
$LN37@Extract:

; 618  :                         if (_Pnode->_Left->_Color == _Black) { // rotate red up from right sub-subtree

  003f7	8b 45 f8	 mov	 eax, DWORD PTR __Pnode$[ebp]
  003fa	8b 00		 mov	 eax, DWORD PTR [eax]
  003fc	0f be 40 0c	 movsx	 eax, BYTE PTR [eax+12]
  00400	83 f8 01	 cmp	 eax, 1
  00403	75 24		 jne	 SHORT $LN39@Extract

; 619  :                             _Pnode->_Right->_Color = _Black;

  00405	8b 45 f8	 mov	 eax, DWORD PTR __Pnode$[ebp]
  00408	8b 40 08	 mov	 eax, DWORD PTR [eax+8]
  0040b	c6 40 0c 01	 mov	 BYTE PTR [eax+12], 1

; 620  :                             _Pnode->_Color         = _Red;

  0040f	8b 45 f8	 mov	 eax, DWORD PTR __Pnode$[ebp]
  00412	c6 40 0c 00	 mov	 BYTE PTR [eax+12], 0

; 621  :                             _Lrotate(_Pnode);

  00416	ff 75 f8	 push	 DWORD PTR __Pnode$[ebp]
  00419	8b 4d e8	 mov	 ecx, DWORD PTR _this$[ebp]
  0041c	e8 00 00 00 00	 call	 ?_Lrotate@?$_Tree_val@U?$_Tree_simple_types@V?$basic_string@DU?$char_traits@D@std@@V?$allocator@D@2@@std@@@std@@@std@@QAEXPAU?$_Tree_node@V?$basic_string@DU?$char_traits@D@std@@V?$allocator@D@2@@std@@PAX@2@@Z ; std::_Tree_val<std::_Tree_simple_types<std::basic_string<char,std::char_traits<char>,std::allocator<char> > > >::_Lrotate

; 622  :                             _Pnode = _Fixnodeparent->_Left;

  00421	8b 45 f4	 mov	 eax, DWORD PTR __Fixnodeparent$[ebp]
  00424	8b 00		 mov	 eax, DWORD PTR [eax]
  00426	89 45 f8	 mov	 DWORD PTR __Pnode$[ebp], eax
$LN39@Extract:

; 623  :                         }
; 624  : 
; 625  :                         _Pnode->_Color         = _Fixnodeparent->_Color;

  00429	8b 45 f8	 mov	 eax, DWORD PTR __Pnode$[ebp]
  0042c	8b 4d f4	 mov	 ecx, DWORD PTR __Fixnodeparent$[ebp]
  0042f	8a 49 0c	 mov	 cl, BYTE PTR [ecx+12]
  00432	88 48 0c	 mov	 BYTE PTR [eax+12], cl

; 626  :                         _Fixnodeparent->_Color = _Black;

  00435	8b 45 f4	 mov	 eax, DWORD PTR __Fixnodeparent$[ebp]
  00438	c6 40 0c 01	 mov	 BYTE PTR [eax+12], 1

; 627  :                         _Pnode->_Left->_Color  = _Black;

  0043c	8b 45 f8	 mov	 eax, DWORD PTR __Pnode$[ebp]
  0043f	8b 00		 mov	 eax, DWORD PTR [eax]
  00441	c6 40 0c 01	 mov	 BYTE PTR [eax+12], 1

; 628  :                         _Rrotate(_Fixnodeparent);

  00445	ff 75 f4	 push	 DWORD PTR __Fixnodeparent$[ebp]
  00448	8b 4d e8	 mov	 ecx, DWORD PTR _this$[ebp]
  0044b	e8 00 00 00 00	 call	 ?_Rrotate@?$_Tree_val@U?$_Tree_simple_types@V?$basic_string@DU?$char_traits@D@std@@V?$allocator@D@2@@std@@@std@@@std@@QAEXPAU?$_Tree_node@V?$basic_string@DU?$char_traits@D@std@@V?$allocator@D@2@@std@@PAX@2@@Z ; std::_Tree_val<std::_Tree_simple_types<std::basic_string<char,std::char_traits<char>,std::allocator<char> > > >::_Rrotate

; 629  :                         break; // tree now recolored/rebalanced

  00450	eb 05		 jmp	 SHORT $LN3@Extract
$LN27@Extract:

; 630  :                     }
; 631  :                 }
; 632  :             }

  00452	e9 15 fe ff ff	 jmp	 $LN2@Extract
$LN3@Extract:

; 633  : 
; 634  :             _Fixnode->_Color = _Black; // stopping node is black

  00457	8b 45 f0	 mov	 eax, DWORD PTR __Fixnode$[ebp]
  0045a	c6 40 0c 01	 mov	 BYTE PTR [eax+12], 1
$LN25@Extract:

; 635  :         }
; 636  : 
; 637  :         if (0 < _Mysize) {

  0045e	8b 45 e8	 mov	 eax, DWORD PTR _this$[ebp]
  00461	83 78 04 00	 cmp	 DWORD PTR [eax+4], 0
  00465	76 0d		 jbe	 SHORT $LN40@Extract

; 638  :             --_Mysize;

  00467	8b 45 e8	 mov	 eax, DWORD PTR _this$[ebp]
  0046a	8b 40 04	 mov	 eax, DWORD PTR [eax+4]
  0046d	48		 dec	 eax
  0046e	8b 4d e8	 mov	 ecx, DWORD PTR _this$[ebp]
  00471	89 41 04	 mov	 DWORD PTR [ecx+4], eax
$LN40@Extract:

; 639  :         }
; 640  : 
; 641  :         return _Erasednode;

  00474	8b 45 ec	 mov	 eax, DWORD PTR __Erasednode$[ebp]

; 642  :     }

  00477	c9		 leave
  00478	c2 04 00	 ret	 4
?_Extract@?$_Tree_val@U?$_Tree_simple_types@V?$basic_string@DU?$char_traits@D@std@@V?$allocator@D@2@@std@@@std@@@std@@QAEPAU?$_Tree_node@V?$basic_string@DU?$char_traits@D@std@@V?$allocator@D@2@@std@@PAX@2@V?$_Tree_unchecked_const_iterator@V?$_Tree_val@U?$_Tree_simple_types@V?$basic_string@DU?$char_traits@D@std@@V?$allocator@D@2@@std@@@std@@@std@@U_Iterator_base0@2@@2@@Z ENDP ; std::_Tree_val<std::_Tree_simple_types<std::basic_string<char,std::char_traits<char>,std::allocator<char> > > >::_Extract
_TEXT	ENDS
; Function compile flags: /Odspy
; File C:\Program Files (x86)\Microsoft Visual Studio\2019\Community\VC\Tools\MSVC\14.28.29333\include\xtree
;	COMDAT ?_Rrotate@?$_Tree_val@U?$_Tree_simple_types@V?$basic_string@DU?$char_traits@D@std@@V?$allocator@D@2@@std@@@std@@@std@@QAEXPAU?$_Tree_node@V?$basic_string@DU?$char_traits@D@std@@V?$allocator@D@2@@std@@PAX@2@@Z
_TEXT	SEGMENT
_this$ = -8						; size = 4
__Pnode$ = -4						; size = 4
__Wherenode$ = 8					; size = 4
?_Rrotate@?$_Tree_val@U?$_Tree_simple_types@V?$basic_string@DU?$char_traits@D@std@@V?$allocator@D@2@@std@@@std@@@std@@QAEXPAU?$_Tree_node@V?$basic_string@DU?$char_traits@D@std@@V?$allocator@D@2@@std@@PAX@2@@Z PROC ; std::_Tree_val<std::_Tree_simple_types<std::basic_string<char,std::char_traits<char>,std::allocator<char> > > >::_Rrotate, COMDAT
; _this$ = ecx

; 480  :     void _Rrotate(_Nodeptr _Wherenode) noexcept { // promote left node to root of subtree

  00000	55		 push	 ebp
  00001	8b ec		 mov	 ebp, esp
  00003	51		 push	 ecx
  00004	51		 push	 ecx
  00005	89 4d f8	 mov	 DWORD PTR _this$[ebp], ecx

; 481  :         _Nodeptr _Pnode   = _Wherenode->_Left;

  00008	8b 45 08	 mov	 eax, DWORD PTR __Wherenode$[ebp]
  0000b	8b 00		 mov	 eax, DWORD PTR [eax]
  0000d	89 45 fc	 mov	 DWORD PTR __Pnode$[ebp], eax

; 482  :         _Wherenode->_Left = _Pnode->_Right;

  00010	8b 45 08	 mov	 eax, DWORD PTR __Wherenode$[ebp]
  00013	8b 4d fc	 mov	 ecx, DWORD PTR __Pnode$[ebp]
  00016	8b 49 08	 mov	 ecx, DWORD PTR [ecx+8]
  00019	89 08		 mov	 DWORD PTR [eax], ecx

; 483  : 
; 484  :         if (!_Pnode->_Right->_Isnil) {

  0001b	8b 45 fc	 mov	 eax, DWORD PTR __Pnode$[ebp]
  0001e	8b 40 08	 mov	 eax, DWORD PTR [eax+8]
  00021	0f be 40 0d	 movsx	 eax, BYTE PTR [eax+13]
  00025	85 c0		 test	 eax, eax
  00027	75 0c		 jne	 SHORT $LN2@Rrotate

; 485  :             _Pnode->_Right->_Parent = _Wherenode;

  00029	8b 45 fc	 mov	 eax, DWORD PTR __Pnode$[ebp]
  0002c	8b 40 08	 mov	 eax, DWORD PTR [eax+8]
  0002f	8b 4d 08	 mov	 ecx, DWORD PTR __Wherenode$[ebp]
  00032	89 48 04	 mov	 DWORD PTR [eax+4], ecx
$LN2@Rrotate:

; 486  :         }
; 487  : 
; 488  :         _Pnode->_Parent = _Wherenode->_Parent;

  00035	8b 45 fc	 mov	 eax, DWORD PTR __Pnode$[ebp]
  00038	8b 4d 08	 mov	 ecx, DWORD PTR __Wherenode$[ebp]
  0003b	8b 49 04	 mov	 ecx, DWORD PTR [ecx+4]
  0003e	89 48 04	 mov	 DWORD PTR [eax+4], ecx

; 489  : 
; 490  :         if (_Wherenode == _Myhead->_Parent) {

  00041	8b 45 f8	 mov	 eax, DWORD PTR _this$[ebp]
  00044	8b 00		 mov	 eax, DWORD PTR [eax]
  00046	8b 4d 08	 mov	 ecx, DWORD PTR __Wherenode$[ebp]
  00049	3b 48 04	 cmp	 ecx, DWORD PTR [eax+4]
  0004c	75 0d		 jne	 SHORT $LN3@Rrotate

; 491  :             _Myhead->_Parent = _Pnode;

  0004e	8b 45 f8	 mov	 eax, DWORD PTR _this$[ebp]
  00051	8b 00		 mov	 eax, DWORD PTR [eax]
  00053	8b 4d fc	 mov	 ecx, DWORD PTR __Pnode$[ebp]
  00056	89 48 04	 mov	 DWORD PTR [eax+4], ecx
  00059	eb 27		 jmp	 SHORT $LN4@Rrotate
$LN3@Rrotate:

; 492  :         } else if (_Wherenode == _Wherenode->_Parent->_Right) {

  0005b	8b 45 08	 mov	 eax, DWORD PTR __Wherenode$[ebp]
  0005e	8b 40 04	 mov	 eax, DWORD PTR [eax+4]
  00061	8b 4d 08	 mov	 ecx, DWORD PTR __Wherenode$[ebp]
  00064	3b 48 08	 cmp	 ecx, DWORD PTR [eax+8]
  00067	75 0e		 jne	 SHORT $LN5@Rrotate

; 493  :             _Wherenode->_Parent->_Right = _Pnode;

  00069	8b 45 08	 mov	 eax, DWORD PTR __Wherenode$[ebp]
  0006c	8b 40 04	 mov	 eax, DWORD PTR [eax+4]
  0006f	8b 4d fc	 mov	 ecx, DWORD PTR __Pnode$[ebp]
  00072	89 48 08	 mov	 DWORD PTR [eax+8], ecx

; 494  :         } else {

  00075	eb 0b		 jmp	 SHORT $LN4@Rrotate
$LN5@Rrotate:

; 495  :             _Wherenode->_Parent->_Left = _Pnode;

  00077	8b 45 08	 mov	 eax, DWORD PTR __Wherenode$[ebp]
  0007a	8b 40 04	 mov	 eax, DWORD PTR [eax+4]
  0007d	8b 4d fc	 mov	 ecx, DWORD PTR __Pnode$[ebp]
  00080	89 08		 mov	 DWORD PTR [eax], ecx
$LN4@Rrotate:

; 496  :         }
; 497  : 
; 498  :         _Pnode->_Right      = _Wherenode;

  00082	8b 45 fc	 mov	 eax, DWORD PTR __Pnode$[ebp]
  00085	8b 4d 08	 mov	 ecx, DWORD PTR __Wherenode$[ebp]
  00088	89 48 08	 mov	 DWORD PTR [eax+8], ecx

; 499  :         _Wherenode->_Parent = _Pnode;

  0008b	8b 45 08	 mov	 eax, DWORD PTR __Wherenode$[ebp]
  0008e	8b 4d fc	 mov	 ecx, DWORD PTR __Pnode$[ebp]
  00091	89 48 04	 mov	 DWORD PTR [eax+4], ecx

; 500  :     }

  00094	c9		 leave
  00095	c2 04 00	 ret	 4
?_Rrotate@?$_Tree_val@U?$_Tree_simple_types@V?$basic_string@DU?$char_traits@D@std@@V?$allocator@D@2@@std@@@std@@@std@@QAEXPAU?$_Tree_node@V?$basic_string@DU?$char_traits@D@std@@V?$allocator@D@2@@std@@PAX@2@@Z ENDP ; std::_Tree_val<std::_Tree_simple_types<std::basic_string<char,std::char_traits<char>,std::allocator<char> > > >::_Rrotate
_TEXT	ENDS
; Function compile flags: /Odspy
; File C:\Program Files (x86)\Microsoft Visual Studio\2019\Community\VC\Tools\MSVC\14.28.29333\include\xtree
;	COMDAT ?_Lrotate@?$_Tree_val@U?$_Tree_simple_types@V?$basic_string@DU?$char_traits@D@std@@V?$allocator@D@2@@std@@@std@@@std@@QAEXPAU?$_Tree_node@V?$basic_string@DU?$char_traits@D@std@@V?$allocator@D@2@@std@@PAX@2@@Z
_TEXT	SEGMENT
_this$ = -8						; size = 4
__Pnode$ = -4						; size = 4
__Wherenode$ = 8					; size = 4
?_Lrotate@?$_Tree_val@U?$_Tree_simple_types@V?$basic_string@DU?$char_traits@D@std@@V?$allocator@D@2@@std@@@std@@@std@@QAEXPAU?$_Tree_node@V?$basic_string@DU?$char_traits@D@std@@V?$allocator@D@2@@std@@PAX@2@@Z PROC ; std::_Tree_val<std::_Tree_simple_types<std::basic_string<char,std::char_traits<char>,std::allocator<char> > > >::_Lrotate, COMDAT
; _this$ = ecx

; 458  :     void _Lrotate(_Nodeptr _Wherenode) noexcept { // promote right node to root of subtree

  00000	55		 push	 ebp
  00001	8b ec		 mov	 ebp, esp
  00003	51		 push	 ecx
  00004	51		 push	 ecx
  00005	89 4d f8	 mov	 DWORD PTR _this$[ebp], ecx

; 459  :         _Nodeptr _Pnode    = _Wherenode->_Right;

  00008	8b 45 08	 mov	 eax, DWORD PTR __Wherenode$[ebp]
  0000b	8b 40 08	 mov	 eax, DWORD PTR [eax+8]
  0000e	89 45 fc	 mov	 DWORD PTR __Pnode$[ebp], eax

; 460  :         _Wherenode->_Right = _Pnode->_Left;

  00011	8b 45 08	 mov	 eax, DWORD PTR __Wherenode$[ebp]
  00014	8b 4d fc	 mov	 ecx, DWORD PTR __Pnode$[ebp]
  00017	8b 09		 mov	 ecx, DWORD PTR [ecx]
  00019	89 48 08	 mov	 DWORD PTR [eax+8], ecx

; 461  : 
; 462  :         if (!_Pnode->_Left->_Isnil) {

  0001c	8b 45 fc	 mov	 eax, DWORD PTR __Pnode$[ebp]
  0001f	8b 00		 mov	 eax, DWORD PTR [eax]
  00021	0f be 40 0d	 movsx	 eax, BYTE PTR [eax+13]
  00025	85 c0		 test	 eax, eax
  00027	75 0b		 jne	 SHORT $LN2@Lrotate

; 463  :             _Pnode->_Left->_Parent = _Wherenode;

  00029	8b 45 fc	 mov	 eax, DWORD PTR __Pnode$[ebp]
  0002c	8b 00		 mov	 eax, DWORD PTR [eax]
  0002e	8b 4d 08	 mov	 ecx, DWORD PTR __Wherenode$[ebp]
  00031	89 48 04	 mov	 DWORD PTR [eax+4], ecx
$LN2@Lrotate:

; 464  :         }
; 465  : 
; 466  :         _Pnode->_Parent = _Wherenode->_Parent;

  00034	8b 45 fc	 mov	 eax, DWORD PTR __Pnode$[ebp]
  00037	8b 4d 08	 mov	 ecx, DWORD PTR __Wherenode$[ebp]
  0003a	8b 49 04	 mov	 ecx, DWORD PTR [ecx+4]
  0003d	89 48 04	 mov	 DWORD PTR [eax+4], ecx

; 467  : 
; 468  :         if (_Wherenode == _Myhead->_Parent) {

  00040	8b 45 f8	 mov	 eax, DWORD PTR _this$[ebp]
  00043	8b 00		 mov	 eax, DWORD PTR [eax]
  00045	8b 4d 08	 mov	 ecx, DWORD PTR __Wherenode$[ebp]
  00048	3b 48 04	 cmp	 ecx, DWORD PTR [eax+4]
  0004b	75 0d		 jne	 SHORT $LN3@Lrotate

; 469  :             _Myhead->_Parent = _Pnode;

  0004d	8b 45 f8	 mov	 eax, DWORD PTR _this$[ebp]
  00050	8b 00		 mov	 eax, DWORD PTR [eax]
  00052	8b 4d fc	 mov	 ecx, DWORD PTR __Pnode$[ebp]
  00055	89 48 04	 mov	 DWORD PTR [eax+4], ecx
  00058	eb 26		 jmp	 SHORT $LN4@Lrotate
$LN3@Lrotate:

; 470  :         } else if (_Wherenode == _Wherenode->_Parent->_Left) {

  0005a	8b 45 08	 mov	 eax, DWORD PTR __Wherenode$[ebp]
  0005d	8b 40 04	 mov	 eax, DWORD PTR [eax+4]
  00060	8b 4d 08	 mov	 ecx, DWORD PTR __Wherenode$[ebp]
  00063	3b 08		 cmp	 ecx, DWORD PTR [eax]
  00065	75 0d		 jne	 SHORT $LN5@Lrotate

; 471  :             _Wherenode->_Parent->_Left = _Pnode;

  00067	8b 45 08	 mov	 eax, DWORD PTR __Wherenode$[ebp]
  0006a	8b 40 04	 mov	 eax, DWORD PTR [eax+4]
  0006d	8b 4d fc	 mov	 ecx, DWORD PTR __Pnode$[ebp]
  00070	89 08		 mov	 DWORD PTR [eax], ecx

; 472  :         } else {

  00072	eb 0c		 jmp	 SHORT $LN4@Lrotate
$LN5@Lrotate:

; 473  :             _Wherenode->_Parent->_Right = _Pnode;

  00074	8b 45 08	 mov	 eax, DWORD PTR __Wherenode$[ebp]
  00077	8b 40 04	 mov	 eax, DWORD PTR [eax+4]
  0007a	8b 4d fc	 mov	 ecx, DWORD PTR __Pnode$[ebp]
  0007d	89 48 08	 mov	 DWORD PTR [eax+8], ecx
$LN4@Lrotate:

; 474  :         }
; 475  : 
; 476  :         _Pnode->_Left       = _Wherenode;

  00080	8b 45 fc	 mov	 eax, DWORD PTR __Pnode$[ebp]
  00083	8b 4d 08	 mov	 ecx, DWORD PTR __Wherenode$[ebp]
  00086	89 08		 mov	 DWORD PTR [eax], ecx

; 477  :         _Wherenode->_Parent = _Pnode;

  00088	8b 45 08	 mov	 eax, DWORD PTR __Wherenode$[ebp]
  0008b	8b 4d fc	 mov	 ecx, DWORD PTR __Pnode$[ebp]
  0008e	89 48 04	 mov	 DWORD PTR [eax+4], ecx

; 478  :     }

  00091	c9		 leave
  00092	c2 04 00	 ret	 4
?_Lrotate@?$_Tree_val@U?$_Tree_simple_types@V?$basic_string@DU?$char_traits@D@std@@V?$allocator@D@2@@std@@@std@@@std@@QAEXPAU?$_Tree_node@V?$basic_string@DU?$char_traits@D@std@@V?$allocator@D@2@@std@@PAX@2@@Z ENDP ; std::_Tree_val<std::_Tree_simple_types<std::basic_string<char,std::char_traits<char>,std::allocator<char> > > >::_Lrotate
_TEXT	ENDS
; Function compile flags: /Odspy
; File C:\Program Files (x86)\Microsoft Visual Studio\2019\Community\VC\Tools\MSVC\14.28.29333\include\xtree
; File C:\Program Files (x86)\Microsoft Visual Studio\2019\Community\VC\Tools\MSVC\14.28.29333\include\xstddef
; File C:\Program Files (x86)\Microsoft Visual Studio\2019\Community\VC\Tools\MSVC\14.28.29333\include\xtree
; File C:\Program Files (x86)\Microsoft Visual Studio\2019\Community\VC\Tools\MSVC\14.28.29333\include\xmemory
; File C:\Program Files (x86)\Microsoft Visual Studio\2019\Community\VC\Tools\MSVC\14.28.29333\include\xtree
;	COMDAT ?_Alloc_sentinel_and_proxy@?$_Tree@V?$_Tset_traits@V?$basic_string@DU?$char_traits@D@std@@V?$allocator@D@2@@std@@U?$less@V?$basic_string@DU?$char_traits@D@std@@V?$allocator@D@2@@std@@@2@V?$allocator@V?$basic_string@DU?$char_traits@D@std@@V?$allocator@D@2@@std@@@2@$0A@@std@@@std@@IAEXXZ
_TEXT	SEGMENT
__Alproxy$ = -28					; size = 4
__Scary$ = -24						; size = 4
$T1 = -20						; size = 4
$T2 = -16						; size = 4
$T3 = -12						; size = 4
_this$ = -8						; size = 4
_$S13$ = -1						; size = 1
?_Alloc_sentinel_and_proxy@?$_Tree@V?$_Tset_traits@V?$basic_string@DU?$char_traits@D@std@@V?$allocator@D@2@@std@@U?$less@V?$basic_string@DU?$char_traits@D@std@@V?$allocator@D@2@@std@@@2@V?$allocator@V?$basic_string@DU?$char_traits@D@std@@V?$allocator@D@2@@std@@@2@$0A@@std@@@std@@IAEXXZ PROC ; std::_Tree<std::_Tset_traits<std::basic_string<char,std::char_traits<char>,std::allocator<char> >,std::less<std::basic_string<char,std::char_traits<char>,std::allocator<char> > >,std::allocator<std::basic_string<char,std::char_traits<char>,std::allocator<char> > >,0> >::_Alloc_sentinel_and_proxy, COMDAT
; _this$ = ecx

; 2017 :     void _Alloc_sentinel_and_proxy() {

  00000	55		 push	 ebp
  00001	8b ec		 mov	 ebp, esp
  00003	83 ec 1c	 sub	 esp, 28			; 0000001cH
  00006	89 4d f8	 mov	 DWORD PTR _this$[ebp], ecx

; 2047 :         return _STD addressof(_Mypair._Myval2._Myval2);

  00009	8b 45 f8	 mov	 eax, DWORD PTR _this$[ebp]
; File C:\Program Files (x86)\Microsoft Visual Studio\2019\Community\VC\Tools\MSVC\14.28.29333\include\xstddef

; 275  :     return __builtin_addressof(_Val);

  0000c	89 45 f4	 mov	 DWORD PTR $T3[ebp], eax
; File C:\Program Files (x86)\Microsoft Visual Studio\2019\Community\VC\Tools\MSVC\14.28.29333\include\xtree

; 2047 :         return _STD addressof(_Mypair._Myval2._Myval2);

  0000f	8b 45 f4	 mov	 eax, DWORD PTR $T3[ebp]
  00012	89 45 e8	 mov	 DWORD PTR __Scary$[ebp], eax

; 2018 :         const auto _Scary = _Get_scary();
; 2019 :         auto&& _Alproxy   = _GET_PROXY_ALLOCATOR(_Alnode, _Getal());

  00015	8d 45 ff	 lea	 eax, DWORD PTR _$S13$[ebp]
  00018	89 45 e4	 mov	 DWORD PTR __Alproxy$[ebp], eax

; 2039 :         return _Mypair._Myval2._Get_first();

  0001b	8b 45 f8	 mov	 eax, DWORD PTR _this$[ebp]
; File C:\Program Files (x86)\Microsoft Visual Studio\2019\Community\VC\Tools\MSVC\14.28.29333\include\xmemory

; 1347 :         return *this;

  0001e	89 45 f0	 mov	 DWORD PTR $T2[ebp], eax
; File C:\Program Files (x86)\Microsoft Visual Studio\2019\Community\VC\Tools\MSVC\14.28.29333\include\xtree

; 2039 :         return _Mypair._Myval2._Get_first();

  00021	8b 45 f0	 mov	 eax, DWORD PTR $T2[ebp]
  00024	89 45 ec	 mov	 DWORD PTR $T1[ebp], eax

; 2020 :         _Container_proxy_ptr<_Alnode> _Proxy(_Alproxy, *_Scary);
; 2021 :         _Scary->_Myhead = _Node::_Buyheadnode(_Getal());

  00027	ff 75 ec	 push	 DWORD PTR $T1[ebp]
  0002a	e8 00 00 00 00	 call	 ??$_Buyheadnode@V?$allocator@U?$_Tree_node@V?$basic_string@DU?$char_traits@D@std@@V?$allocator@D@2@@std@@PAX@std@@@std@@@?$_Tree_node@V?$basic_string@DU?$char_traits@D@std@@V?$allocator@D@2@@std@@PAX@std@@SAPAU01@AAV?$allocator@U?$_Tree_node@V?$basic_string@DU?$char_traits@D@std@@V?$allocator@D@2@@std@@PAX@std@@@1@@Z ; std::_Tree_node<std::basic_string<char,std::char_traits<char>,std::allocator<char> >,void *>::_Buyheadnode<std::allocator<std::_Tree_node<std::basic_string<char,std::char_traits<char>,std::allocator<char> >,void *> > >
  0002f	59		 pop	 ecx
  00030	8b 4d e8	 mov	 ecx, DWORD PTR __Scary$[ebp]
  00033	89 01		 mov	 DWORD PTR [ecx], eax

; 2022 :         _Proxy._Release();
; 2023 :     }

  00035	c9		 leave
  00036	c3		 ret	 0
?_Alloc_sentinel_and_proxy@?$_Tree@V?$_Tset_traits@V?$basic_string@DU?$char_traits@D@std@@V?$allocator@D@2@@std@@U?$less@V?$basic_string@DU?$char_traits@D@std@@V?$allocator@D@2@@std@@@2@V?$allocator@V?$basic_string@DU?$char_traits@D@std@@V?$allocator@D@2@@std@@@2@$0A@@std@@@std@@IAEXXZ ENDP ; std::_Tree<std::_Tset_traits<std::basic_string<char,std::char_traits<char>,std::allocator<char> >,std::less<std::basic_string<char,std::char_traits<char>,std::allocator<char> > >,std::allocator<std::basic_string<char,std::char_traits<char>,std::allocator<char> > >,0> >::_Alloc_sentinel_and_proxy
_TEXT	ENDS
; Function compile flags: /Odspy
; File C:\Program Files (x86)\Microsoft Visual Studio\2019\Community\VC\Tools\MSVC\14.28.29333\include\xtree
; File C:\Program Files (x86)\Microsoft Visual Studio\2019\Community\VC\Tools\MSVC\14.28.29333\include\xstddef
; File C:\Program Files (x86)\Microsoft Visual Studio\2019\Community\VC\Tools\MSVC\14.28.29333\include\xtree
;	COMDAT ?_Check_grow_by_1@?$_Tree@V?$_Tset_traits@V?$basic_string@DU?$char_traits@D@std@@V?$allocator@D@2@@std@@U?$less@V?$basic_string@DU?$char_traits@D@std@@V?$allocator@D@2@@std@@@2@V?$allocator@V?$basic_string@DU?$char_traits@D@std@@V?$allocator@D@2@@std@@@2@$0A@@std@@@std@@IAEXXZ
_TEXT	SEGMENT
$T1 = -12						; size = 4
$T2 = -8						; size = 4
_this$ = -4						; size = 4
?_Check_grow_by_1@?$_Tree@V?$_Tset_traits@V?$basic_string@DU?$char_traits@D@std@@V?$allocator@D@2@@std@@U?$less@V?$basic_string@DU?$char_traits@D@std@@V?$allocator@D@2@@std@@@2@V?$allocator@V?$basic_string@DU?$char_traits@D@std@@V?$allocator@D@2@@std@@@2@$0A@@std@@@std@@IAEXXZ PROC ; std::_Tree<std::_Tset_traits<std::basic_string<char,std::char_traits<char>,std::allocator<char> >,std::less<std::basic_string<char,std::char_traits<char>,std::allocator<char> > >,std::allocator<std::basic_string<char,std::char_traits<char>,std::allocator<char> > >,0> >::_Check_grow_by_1, COMDAT
; _this$ = ecx

; 1718 :     void _Check_grow_by_1() {

  00000	55		 push	 ebp
  00001	8b ec		 mov	 ebp, esp
  00003	83 ec 0c	 sub	 esp, 12			; 0000000cH
  00006	89 4d fc	 mov	 DWORD PTR _this$[ebp], ecx

; 2047 :         return _STD addressof(_Mypair._Myval2._Myval2);

  00009	8b 45 fc	 mov	 eax, DWORD PTR _this$[ebp]
; File C:\Program Files (x86)\Microsoft Visual Studio\2019\Community\VC\Tools\MSVC\14.28.29333\include\xstddef

; 275  :     return __builtin_addressof(_Val);

  0000c	89 45 f8	 mov	 DWORD PTR $T2[ebp], eax
; File C:\Program Files (x86)\Microsoft Visual Studio\2019\Community\VC\Tools\MSVC\14.28.29333\include\xtree

; 2047 :         return _STD addressof(_Mypair._Myval2._Myval2);

  0000f	8b 45 f8	 mov	 eax, DWORD PTR $T2[ebp]
  00012	89 45 f4	 mov	 DWORD PTR $T1[ebp], eax

; 1719 :         if (max_size() == _Get_scary()->_Mysize) {

  00015	8b 4d fc	 mov	 ecx, DWORD PTR _this$[ebp]
  00018	e8 00 00 00 00	 call	 ?max_size@?$_Tree@V?$_Tset_traits@V?$basic_string@DU?$char_traits@D@std@@V?$allocator@D@2@@std@@U?$less@V?$basic_string@DU?$char_traits@D@std@@V?$allocator@D@2@@std@@@2@V?$allocator@V?$basic_string@DU?$char_traits@D@std@@V?$allocator@D@2@@std@@@2@$0A@@std@@@std@@QBEIXZ ; std::_Tree<std::_Tset_traits<std::basic_string<char,std::char_traits<char>,std::allocator<char> >,std::less<std::basic_string<char,std::char_traits<char>,std::allocator<char> > >,std::allocator<std::basic_string<char,std::char_traits<char>,std::allocator<char> > >,0> >::max_size
  0001d	8b 4d f4	 mov	 ecx, DWORD PTR $T1[ebp]
  00020	3b 41 04	 cmp	 eax, DWORD PTR [ecx+4]
  00023	75 05		 jne	 SHORT $LN3@Check_grow

; 1720 :             _Throw_tree_length_error();

  00025	e8 00 00 00 00	 call	 ?_Throw_tree_length_error@std@@YAXXZ ; std::_Throw_tree_length_error
$LN3@Check_grow:

; 1721 :         }
; 1722 :     }

  0002a	c9		 leave
  0002b	c3		 ret	 0
?_Check_grow_by_1@?$_Tree@V?$_Tset_traits@V?$basic_string@DU?$char_traits@D@std@@V?$allocator@D@2@@std@@U?$less@V?$basic_string@DU?$char_traits@D@std@@V?$allocator@D@2@@std@@@2@V?$allocator@V?$basic_string@DU?$char_traits@D@std@@V?$allocator@D@2@@std@@@2@$0A@@std@@@std@@IAEXXZ ENDP ; std::_Tree<std::_Tset_traits<std::basic_string<char,std::char_traits<char>,std::allocator<char> >,std::less<std::basic_string<char,std::char_traits<char>,std::allocator<char> > >,std::allocator<std::basic_string<char,std::char_traits<char>,std::allocator<char> > >,0> >::_Check_grow_by_1
_TEXT	ENDS
; Function compile flags: /Odspy
; File C:\Program Files (x86)\Microsoft Visual Studio\2019\Community\VC\Tools\MSVC\14.28.29333\include\xtree
; File C:\Program Files (x86)\Microsoft Visual Studio\2019\Community\VC\Tools\MSVC\14.28.29333\include\xstddef
; File C:\Program Files (x86)\Microsoft Visual Studio\2019\Community\VC\Tools\MSVC\14.28.29333\include\xtree
; File C:\Program Files (x86)\Microsoft Visual Studio\2019\Community\VC\Tools\MSVC\14.28.29333\include\xmemory
; File C:\Program Files (x86)\Microsoft Visual Studio\2019\Community\VC\Tools\MSVC\14.28.29333\include\xtree
;	COMDAT ?clear@?$_Tree@V?$_Tset_traits@V?$basic_string@DU?$char_traits@D@std@@V?$allocator@D@2@@std@@U?$less@V?$basic_string@DU?$char_traits@D@std@@V?$allocator@D@2@@std@@@2@V?$allocator@V?$basic_string@DU?$char_traits@D@std@@V?$allocator@D@2@@std@@@2@$0A@@std@@@std@@QAEXXZ
_TEXT	SEGMENT
$T1 = -24						; size = 4
$T2 = -20						; size = 4
$T3 = -16						; size = 4
_this$ = -12						; size = 4
__Scary$ = -8						; size = 4
__Head$ = -4						; size = 4
?clear@?$_Tree@V?$_Tset_traits@V?$basic_string@DU?$char_traits@D@std@@V?$allocator@D@2@@std@@U?$less@V?$basic_string@DU?$char_traits@D@std@@V?$allocator@D@2@@std@@@2@V?$allocator@V?$basic_string@DU?$char_traits@D@std@@V?$allocator@D@2@@std@@@2@$0A@@std@@@std@@QAEXXZ PROC ; std::_Tree<std::_Tset_traits<std::basic_string<char,std::char_traits<char>,std::allocator<char> >,std::less<std::basic_string<char,std::char_traits<char>,std::allocator<char> > >,std::allocator<std::basic_string<char,std::char_traits<char>,std::allocator<char> > >,0> >::clear, COMDAT
; _this$ = ecx

; 1444 :     void clear() noexcept {

  00000	55		 push	 ebp
  00001	8b ec		 mov	 ebp, esp
  00003	83 ec 18	 sub	 esp, 24			; 00000018H
  00006	89 4d f4	 mov	 DWORD PTR _this$[ebp], ecx

; 2047 :         return _STD addressof(_Mypair._Myval2._Myval2);

  00009	8b 45 f4	 mov	 eax, DWORD PTR _this$[ebp]
; File C:\Program Files (x86)\Microsoft Visual Studio\2019\Community\VC\Tools\MSVC\14.28.29333\include\xstddef

; 275  :     return __builtin_addressof(_Val);

  0000c	89 45 f0	 mov	 DWORD PTR $T3[ebp], eax
; File C:\Program Files (x86)\Microsoft Visual Studio\2019\Community\VC\Tools\MSVC\14.28.29333\include\xtree

; 2047 :         return _STD addressof(_Mypair._Myval2._Myval2);

  0000f	8b 45 f0	 mov	 eax, DWORD PTR $T3[ebp]
  00012	89 45 f8	 mov	 DWORD PTR __Scary$[ebp], eax

; 1445 :         const auto _Scary = _Get_scary();
; 1446 :         _Scary->_Orphan_ptr(nullptr);
; 1447 :         auto _Head = _Scary->_Myhead;

  00015	8b 45 f8	 mov	 eax, DWORD PTR __Scary$[ebp]
  00018	8b 00		 mov	 eax, DWORD PTR [eax]
  0001a	89 45 fc	 mov	 DWORD PTR __Head$[ebp], eax

; 2039 :         return _Mypair._Myval2._Get_first();

  0001d	8b 45 f4	 mov	 eax, DWORD PTR _this$[ebp]
; File C:\Program Files (x86)\Microsoft Visual Studio\2019\Community\VC\Tools\MSVC\14.28.29333\include\xmemory

; 1347 :         return *this;

  00020	89 45 ec	 mov	 DWORD PTR $T2[ebp], eax
; File C:\Program Files (x86)\Microsoft Visual Studio\2019\Community\VC\Tools\MSVC\14.28.29333\include\xtree

; 2039 :         return _Mypair._Myval2._Get_first();

  00023	8b 45 ec	 mov	 eax, DWORD PTR $T2[ebp]
  00026	89 45 e8	 mov	 DWORD PTR $T1[ebp], eax

; 1448 :         _Scary->_Erase_tree(_Getal(), _Head->_Parent);

  00029	8b 45 fc	 mov	 eax, DWORD PTR __Head$[ebp]
  0002c	ff 70 04	 push	 DWORD PTR [eax+4]
  0002f	ff 75 e8	 push	 DWORD PTR $T1[ebp]
  00032	8b 4d f8	 mov	 ecx, DWORD PTR __Scary$[ebp]
  00035	e8 00 00 00 00	 call	 ??$_Erase_tree@V?$allocator@U?$_Tree_node@V?$basic_string@DU?$char_traits@D@std@@V?$allocator@D@2@@std@@PAX@std@@@std@@@?$_Tree_val@U?$_Tree_simple_types@V?$basic_string@DU?$char_traits@D@std@@V?$allocator@D@2@@std@@@std@@@std@@QAEXAAV?$allocator@U?$_Tree_node@V?$basic_string@DU?$char_traits@D@std@@V?$allocator@D@2@@std@@PAX@std@@@1@PAU?$_Tree_node@V?$basic_string@DU?$char_traits@D@std@@V?$allocator@D@2@@std@@PAX@1@@Z ; std::_Tree_val<std::_Tree_simple_types<std::basic_string<char,std::char_traits<char>,std::allocator<char> > > >::_Erase_tree<std::allocator<std::_Tree_node<std::basic_string<char,std::char_traits<char>,std::allocator<char> >,void *> > >

; 1449 :         _Head->_Parent  = _Head;

  0003a	8b 45 fc	 mov	 eax, DWORD PTR __Head$[ebp]
  0003d	8b 4d fc	 mov	 ecx, DWORD PTR __Head$[ebp]
  00040	89 48 04	 mov	 DWORD PTR [eax+4], ecx

; 1450 :         _Head->_Left    = _Head;

  00043	8b 45 fc	 mov	 eax, DWORD PTR __Head$[ebp]
  00046	8b 4d fc	 mov	 ecx, DWORD PTR __Head$[ebp]
  00049	89 08		 mov	 DWORD PTR [eax], ecx

; 1451 :         _Head->_Right   = _Head;

  0004b	8b 45 fc	 mov	 eax, DWORD PTR __Head$[ebp]
  0004e	8b 4d fc	 mov	 ecx, DWORD PTR __Head$[ebp]
  00051	89 48 08	 mov	 DWORD PTR [eax+8], ecx

; 1452 :         _Scary->_Mysize = 0;

  00054	8b 45 f8	 mov	 eax, DWORD PTR __Scary$[ebp]
  00057	83 60 04 00	 and	 DWORD PTR [eax+4], 0

; 1453 :     }

  0005b	c9		 leave
  0005c	c3		 ret	 0
?clear@?$_Tree@V?$_Tset_traits@V?$basic_string@DU?$char_traits@D@std@@V?$allocator@D@2@@std@@U?$less@V?$basic_string@DU?$char_traits@D@std@@V?$allocator@D@2@@std@@@2@V?$allocator@V?$basic_string@DU?$char_traits@D@std@@V?$allocator@D@2@@std@@@2@$0A@@std@@@std@@QAEXXZ ENDP ; std::_Tree<std::_Tset_traits<std::basic_string<char,std::char_traits<char>,std::allocator<char> >,std::less<std::basic_string<char,std::char_traits<char>,std::allocator<char> > >,std::allocator<std::basic_string<char,std::char_traits<char>,std::allocator<char> > >,0> >::clear
_TEXT	ENDS
; Function compile flags: /Odspy
; File C:\Program Files (x86)\Microsoft Visual Studio\2019\Community\VC\Tools\MSVC\14.28.29333\include\xtree
;	COMDAT ?erase@?$_Tree@V?$_Tset_traits@V?$basic_string@DU?$char_traits@D@std@@V?$allocator@D@2@@std@@U?$less@V?$basic_string@DU?$char_traits@D@std@@V?$allocator@D@2@@std@@@2@V?$allocator@V?$basic_string@DU?$char_traits@D@std@@V?$allocator@D@2@@std@@@2@$0A@@std@@@std@@QAEIABV?$basic_string@DU?$char_traits@D@std@@V?$allocator@D@2@@2@@Z
_TEXT	SEGMENT
__Where$ = -32						; size = 8
__Num$ = -24						; size = 4
__Pnode$ = -20						; size = 4
__Pnode$ = -16						; size = 4
_this$ = -12						; size = 4
__First$ = -8						; size = 4
__Last$ = -4						; size = 4
__Keyval$ = 8						; size = 4
?erase@?$_Tree@V?$_Tset_traits@V?$basic_string@DU?$char_traits@D@std@@V?$allocator@D@2@@std@@U?$less@V?$basic_string@DU?$char_traits@D@std@@V?$allocator@D@2@@std@@@2@V?$allocator@V?$basic_string@DU?$char_traits@D@std@@V?$allocator@D@2@@std@@@2@$0A@@std@@@std@@QAEIABV?$basic_string@DU?$char_traits@D@std@@V?$allocator@D@2@@2@@Z PROC ; std::_Tree<std::_Tset_traits<std::basic_string<char,std::char_traits<char>,std::allocator<char> >,std::less<std::basic_string<char,std::char_traits<char>,std::allocator<char> > >,std::allocator<std::basic_string<char,std::char_traits<char>,std::allocator<char> > >,0> >::erase, COMDAT
; _this$ = ecx

; 1435 :     size_type erase(const key_type& _Keyval) noexcept(noexcept(_Eqrange(_Keyval))) /* strengthened */ {

  00000	55		 push	 ebp
  00001	8b ec		 mov	 ebp, esp
  00003	83 ec 20	 sub	 esp, 32			; 00000020H
  00006	89 4d f4	 mov	 DWORD PTR _this$[ebp], ecx

; 1436 :         const auto _Where = _Eqrange(_Keyval);

  00009	ff 75 08	 push	 DWORD PTR __Keyval$[ebp]
  0000c	8d 45 e0	 lea	 eax, DWORD PTR __Where$[ebp]
  0000f	50		 push	 eax
  00010	8b 4d f4	 mov	 ecx, DWORD PTR _this$[ebp]
  00013	e8 00 00 00 00	 call	 ??$_Eqrange@V?$basic_string@DU?$char_traits@D@std@@V?$allocator@D@2@@std@@@?$_Tree@V?$_Tset_traits@V?$basic_string@DU?$char_traits@D@std@@V?$allocator@D@2@@std@@U?$less@V?$basic_string@DU?$char_traits@D@std@@V?$allocator@D@2@@std@@@2@V?$allocator@V?$basic_string@DU?$char_traits@D@std@@V?$allocator@D@2@@std@@@2@$0A@@std@@@std@@IBE?AU?$pair@PAU?$_Tree_node@V?$basic_string@DU?$char_traits@D@std@@V?$allocator@D@2@@std@@PAX@std@@PAU12@@1@ABV?$basic_string@DU?$char_traits@D@std@@V?$allocator@D@2@@1@@Z ; std::_Tree<std::_Tset_traits<std::basic_string<char,std::char_traits<char>,std::allocator<char> >,std::less<std::basic_string<char,std::char_traits<char>,std::allocator<char> > >,std::allocator<std::basic_string<char,std::char_traits<char>,std::allocator<char> > >,0> >::_Eqrange<std::basic_string<char,std::char_traits<char>,std::allocator<char> > >

; 1437 :         const _Unchecked_const_iterator _First(_Where.first, nullptr);

  00018	8b 45 e0	 mov	 eax, DWORD PTR __Where$[ebp]
  0001b	89 45 f0	 mov	 DWORD PTR __Pnode$[ebp], eax

; 39   :     _Tree_unchecked_const_iterator(_Nodeptr _Pnode, const _Mytree* _Plist) noexcept : _Ptr(_Pnode) {

  0001e	8b 45 f0	 mov	 eax, DWORD PTR __Pnode$[ebp]
  00021	89 45 f8	 mov	 DWORD PTR __First$[ebp], eax

; 1438 :         const _Unchecked_const_iterator _Last(_Where.second, nullptr);

  00024	8b 45 e4	 mov	 eax, DWORD PTR __Where$[ebp+4]
  00027	89 45 ec	 mov	 DWORD PTR __Pnode$[ebp], eax

; 39   :     _Tree_unchecked_const_iterator(_Nodeptr _Pnode, const _Mytree* _Plist) noexcept : _Ptr(_Pnode) {

  0002a	8b 45 ec	 mov	 eax, DWORD PTR __Pnode$[ebp]
  0002d	89 45 fc	 mov	 DWORD PTR __Last$[ebp], eax

; 1439 :         const auto _Num = static_cast<size_type>(_STD distance(_First, _Last));

  00030	ff 75 fc	 push	 DWORD PTR __Last$[ebp]
  00033	ff 75 f8	 push	 DWORD PTR __First$[ebp]
  00036	e8 00 00 00 00	 call	 ??$distance@V?$_Tree_unchecked_const_iterator@V?$_Tree_val@U?$_Tree_simple_types@V?$basic_string@DU?$char_traits@D@std@@V?$allocator@D@2@@std@@@std@@@std@@U_Iterator_base0@2@@std@@@std@@YAHV?$_Tree_unchecked_const_iterator@V?$_Tree_val@U?$_Tree_simple_types@V?$basic_string@DU?$char_traits@D@std@@V?$allocator@D@2@@std@@@std@@@std@@U_Iterator_base0@2@@0@0@Z ; std::distance<std::_Tree_unchecked_const_iterator<std::_Tree_val<std::_Tree_simple_types<std::basic_string<char,std::char_traits<char>,std::allocator<char> > > >,std::_Iterator_base0> >
  0003b	59		 pop	 ecx
  0003c	59		 pop	 ecx
  0003d	89 45 e8	 mov	 DWORD PTR __Num$[ebp], eax

; 1440 :         _Erase_unchecked(_First, _Last);

  00040	ff 75 fc	 push	 DWORD PTR __Last$[ebp]
  00043	ff 75 f8	 push	 DWORD PTR __First$[ebp]
  00046	8b 4d f4	 mov	 ecx, DWORD PTR _this$[ebp]
  00049	e8 00 00 00 00	 call	 ?_Erase_unchecked@?$_Tree@V?$_Tset_traits@V?$basic_string@DU?$char_traits@D@std@@V?$allocator@D@2@@std@@U?$less@V?$basic_string@DU?$char_traits@D@std@@V?$allocator@D@2@@std@@@2@V?$allocator@V?$basic_string@DU?$char_traits@D@std@@V?$allocator@D@2@@std@@@2@$0A@@std@@@std@@AAEPAU?$_Tree_node@V?$basic_string@DU?$char_traits@D@std@@V?$allocator@D@2@@std@@PAX@2@V?$_Tree_unchecked_const_iterator@V?$_Tree_val@U?$_Tree_simple_types@V?$basic_string@DU?$char_traits@D@std@@V?$allocator@D@2@@std@@@std@@@std@@U_Iterator_base0@2@@2@0@Z ; std::_Tree<std::_Tset_traits<std::basic_string<char,std::char_traits<char>,std::allocator<char> >,std::less<std::basic_string<char,std::char_traits<char>,std::allocator<char> > >,std::allocator<std::basic_string<char,std::char_traits<char>,std::allocator<char> > >,0> >::_Erase_unchecked

; 1441 :         return _Num;

  0004e	8b 45 e8	 mov	 eax, DWORD PTR __Num$[ebp]

; 1442 :     }

  00051	c9		 leave
  00052	c2 04 00	 ret	 4
?erase@?$_Tree@V?$_Tset_traits@V?$basic_string@DU?$char_traits@D@std@@V?$allocator@D@2@@std@@U?$less@V?$basic_string@DU?$char_traits@D@std@@V?$allocator@D@2@@std@@@2@V?$allocator@V?$basic_string@DU?$char_traits@D@std@@V?$allocator@D@2@@std@@@2@$0A@@std@@@std@@QAEIABV?$basic_string@DU?$char_traits@D@std@@V?$allocator@D@2@@2@@Z ENDP ; std::_Tree<std::_Tset_traits<std::basic_string<char,std::char_traits<char>,std::allocator<char> >,std::less<std::basic_string<char,std::char_traits<char>,std::allocator<char> > >,std::allocator<std::basic_string<char,std::char_traits<char>,std::allocator<char> > >,0> >::erase
_TEXT	ENDS
; Function compile flags: /Odspy
; File C:\Program Files (x86)\Microsoft Visual Studio\2019\Community\VC\Tools\MSVC\14.28.29333\include\xtree
; File C:\Program Files (x86)\Microsoft Visual Studio\2019\Community\VC\Tools\MSVC\14.28.29333\include\xstddef
; File C:\Program Files (x86)\Microsoft Visual Studio\2019\Community\VC\Tools\MSVC\14.28.29333\include\xtree
;	COMDAT ?_Erase_unchecked@?$_Tree@V?$_Tset_traits@V?$basic_string@DU?$char_traits@D@std@@V?$allocator@D@2@@std@@U?$less@V?$basic_string@DU?$char_traits@D@std@@V?$allocator@D@2@@std@@@2@V?$allocator@V?$basic_string@DU?$char_traits@D@std@@V?$allocator@D@2@@std@@@2@$0A@@std@@@std@@AAEPAU?$_Tree_node@V?$basic_string@DU?$char_traits@D@std@@V?$allocator@D@2@@std@@PAX@2@V?$_Tree_unchecked_const_iterator@V?$_Tree_val@U?$_Tree_simple_types@V?$basic_string@DU?$char_traits@D@std@@V?$allocator@D@2@@std@@@std@@@std@@U_Iterator_base0@2@@2@0@Z
_TEXT	SEGMENT
$T1 = -48						; size = 4
$T2 = -44						; size = 4
__Tmp$3 = -40						; size = 4
__Begin$ = -36						; size = 4
__Pnode$ = -32						; size = 4
$T4 = -28						; size = 4
$T5 = -24						; size = 4
tv145 = -20						; size = 4
tv139 = -16						; size = 4
tv93 = -12						; size = 4
_this$ = -8						; size = 4
$T6 = -3						; size = 1
$T7 = -2						; size = 1
$T8 = -1						; size = 1
__First$ = 8						; size = 4
__Last$ = 12						; size = 4
?_Erase_unchecked@?$_Tree@V?$_Tset_traits@V?$basic_string@DU?$char_traits@D@std@@V?$allocator@D@2@@std@@U?$less@V?$basic_string@DU?$char_traits@D@std@@V?$allocator@D@2@@std@@@2@V?$allocator@V?$basic_string@DU?$char_traits@D@std@@V?$allocator@D@2@@std@@@2@$0A@@std@@@std@@AAEPAU?$_Tree_node@V?$basic_string@DU?$char_traits@D@std@@V?$allocator@D@2@@std@@PAX@2@V?$_Tree_unchecked_const_iterator@V?$_Tree_val@U?$_Tree_simple_types@V?$basic_string@DU?$char_traits@D@std@@V?$allocator@D@2@@std@@@std@@@std@@U_Iterator_base0@2@@2@0@Z PROC ; std::_Tree<std::_Tset_traits<std::basic_string<char,std::char_traits<char>,std::allocator<char> >,std::less<std::basic_string<char,std::char_traits<char>,std::allocator<char> > >,std::allocator<std::basic_string<char,std::char_traits<char>,std::allocator<char> > >,0> >::_Erase_unchecked, COMDAT
; _this$ = ecx

; 1395 :     _Nodeptr _Erase_unchecked(_Unchecked_const_iterator _First, _Unchecked_const_iterator _Last) noexcept {

  00000	55		 push	 ebp
  00001	8b ec		 mov	 ebp, esp
  00003	83 ec 30	 sub	 esp, 48			; 00000030H
  00006	89 4d f8	 mov	 DWORD PTR _this$[ebp], ecx

; 2047 :         return _STD addressof(_Mypair._Myval2._Myval2);

  00009	8b 45 f8	 mov	 eax, DWORD PTR _this$[ebp]
; File C:\Program Files (x86)\Microsoft Visual Studio\2019\Community\VC\Tools\MSVC\14.28.29333\include\xstddef

; 275  :     return __builtin_addressof(_Val);

  0000c	89 45 e8	 mov	 DWORD PTR $T5[ebp], eax
; File C:\Program Files (x86)\Microsoft Visual Studio\2019\Community\VC\Tools\MSVC\14.28.29333\include\xtree

; 2047 :         return _STD addressof(_Mypair._Myval2._Myval2);

  0000f	8b 45 e8	 mov	 eax, DWORD PTR $T5[ebp]
  00012	89 45 e4	 mov	 DWORD PTR $T4[ebp], eax

; 1259 :         return _Unchecked_iterator(_Get_scary()->_Myhead->_Left, nullptr);

  00015	8b 45 e4	 mov	 eax, DWORD PTR $T4[ebp]
  00018	8b 00		 mov	 eax, DWORD PTR [eax]
  0001a	8b 00		 mov	 eax, DWORD PTR [eax]
  0001c	89 45 e0	 mov	 DWORD PTR __Pnode$[ebp], eax

; 39   :     _Tree_unchecked_const_iterator(_Nodeptr _Pnode, const _Mytree* _Plist) noexcept : _Ptr(_Pnode) {

  0001f	8b 45 e0	 mov	 eax, DWORD PTR __Pnode$[ebp]
  00022	89 45 dc	 mov	 DWORD PTR __Begin$[ebp], eax

; 98   :         return _Ptr == _Right._Ptr;

  00025	8b 45 08	 mov	 eax, DWORD PTR __First$[ebp]
  00028	3b 45 dc	 cmp	 eax, DWORD PTR __Begin$[ebp]
  0002b	75 09		 jne	 SHORT $LN23@Erase_unch
  0002d	c7 45 f4 01 00
	00 00		 mov	 DWORD PTR tv93[ebp], 1
  00034	eb 04		 jmp	 SHORT $LN24@Erase_unch
$LN23@Erase_unch:
  00036	83 65 f4 00	 and	 DWORD PTR tv93[ebp], 0
$LN24@Erase_unch:
  0003a	8a 45 f4	 mov	 al, BYTE PTR tv93[ebp]
  0003d	88 45 ff	 mov	 BYTE PTR $T8[ebp], al

; 1396 :         const auto _Begin = _Unchecked_begin();
; 1397 :         if (_First == _Begin && _Last._Ptr->_Isnil) {

  00040	0f b6 45 ff	 movzx	 eax, BYTE PTR $T8[ebp]
  00044	85 c0		 test	 eax, eax
  00046	74 18		 je	 SHORT $LN2@Erase_unch
  00048	8b 45 0c	 mov	 eax, DWORD PTR __Last$[ebp]
  0004b	0f be 40 0d	 movsx	 eax, BYTE PTR [eax+13]
  0004f	85 c0		 test	 eax, eax
  00051	74 0d		 je	 SHORT $LN2@Erase_unch

; 1398 :             // erase all
; 1399 :             clear();

  00053	8b 4d f8	 mov	 ecx, DWORD PTR _this$[ebp]
  00056	e8 00 00 00 00	 call	 ?clear@?$_Tree@V?$_Tset_traits@V?$basic_string@DU?$char_traits@D@std@@V?$allocator@D@2@@std@@U?$less@V?$basic_string@DU?$char_traits@D@std@@V?$allocator@D@2@@std@@@2@V?$allocator@V?$basic_string@DU?$char_traits@D@std@@V?$allocator@D@2@@std@@@2@$0A@@std@@@std@@QAEXXZ ; std::_Tree<std::_Tset_traits<std::basic_string<char,std::char_traits<char>,std::allocator<char> >,std::less<std::basic_string<char,std::char_traits<char>,std::allocator<char> > >,std::allocator<std::basic_string<char,std::char_traits<char>,std::allocator<char> > >,0> >::clear

; 1400 :             return _Last._Ptr;

  0005b	8b 45 0c	 mov	 eax, DWORD PTR __Last$[ebp]
  0005e	eb 6a		 jmp	 SHORT $LN5@Erase_unch
$LN2@Erase_unch:

; 98   :         return _Ptr == _Right._Ptr;

  00060	8b 45 08	 mov	 eax, DWORD PTR __First$[ebp]
  00063	3b 45 0c	 cmp	 eax, DWORD PTR __Last$[ebp]
  00066	75 09		 jne	 SHORT $LN88@Erase_unch
  00068	c7 45 f0 01 00
	00 00		 mov	 DWORD PTR tv139[ebp], 1
  0006f	eb 04		 jmp	 SHORT $LN89@Erase_unch
$LN88@Erase_unch:
  00071	83 65 f0 00	 and	 DWORD PTR tv139[ebp], 0
$LN89@Erase_unch:
  00075	8a 45 f0	 mov	 al, BYTE PTR tv139[ebp]
  00078	88 45 fe	 mov	 BYTE PTR $T7[ebp], al

; 102  :         return !(*this == _Right);

  0007b	0f b6 45 fe	 movzx	 eax, BYTE PTR $T7[ebp]
  0007f	85 c0		 test	 eax, eax
  00081	75 09		 jne	 SHORT $LN83@Erase_unch
  00083	c7 45 ec 01 00
	00 00		 mov	 DWORD PTR tv145[ebp], 1
  0008a	eb 04		 jmp	 SHORT $LN84@Erase_unch
$LN83@Erase_unch:
  0008c	83 65 ec 00	 and	 DWORD PTR tv145[ebp], 0
$LN84@Erase_unch:
  00090	8a 45 ec	 mov	 al, BYTE PTR tv145[ebp]
  00093	88 45 fd	 mov	 BYTE PTR $T6[ebp], al

; 1401 :         }
; 1402 : 
; 1403 :         // partial erase, one at a time
; 1404 :         while (_First != _Last) {

  00096	0f b6 45 fd	 movzx	 eax, BYTE PTR $T6[ebp]
  0009a	85 c0		 test	 eax, eax
  0009c	74 29		 je	 SHORT $LN3@Erase_unch

; 67   :         _Tree_unchecked_const_iterator _Tmp = *this;

  0009e	8b 45 08	 mov	 eax, DWORD PTR __First$[ebp]
  000a1	89 45 d8	 mov	 DWORD PTR __Tmp$3[ebp], eax

; 68   :         ++*this;

  000a4	8d 4d 08	 lea	 ecx, DWORD PTR __First$[ebp]
  000a7	e8 00 00 00 00	 call	 ??E?$_Tree_unchecked_const_iterator@V?$_Tree_val@U?$_Tree_simple_types@V?$basic_string@DU?$char_traits@D@std@@V?$allocator@D@2@@std@@@std@@@std@@U_Iterator_base0@2@@std@@QAEAAV01@XZ ; std::_Tree_unchecked_const_iterator<std::_Tree_val<std::_Tree_simple_types<std::basic_string<char,std::char_traits<char>,std::allocator<char> > > >,std::_Iterator_base0>::operator++

; 69   :         return _Tmp;

  000ac	8b 45 d8	 mov	 eax, DWORD PTR __Tmp$3[ebp]
  000af	89 45 d4	 mov	 DWORD PTR $T2[ebp], eax
  000b2	8d 45 d4	 lea	 eax, DWORD PTR $T2[ebp]
  000b5	89 45 d0	 mov	 DWORD PTR $T1[ebp], eax

; 1405 :             _Erase_unchecked(_First++);

  000b8	8b 45 d0	 mov	 eax, DWORD PTR $T1[ebp]
  000bb	ff 30		 push	 DWORD PTR [eax]
  000bd	8b 4d f8	 mov	 ecx, DWORD PTR _this$[ebp]
  000c0	e8 00 00 00 00	 call	 ?_Erase_unchecked@?$_Tree@V?$_Tset_traits@V?$basic_string@DU?$char_traits@D@std@@V?$allocator@D@2@@std@@U?$less@V?$basic_string@DU?$char_traits@D@std@@V?$allocator@D@2@@std@@@2@V?$allocator@V?$basic_string@DU?$char_traits@D@std@@V?$allocator@D@2@@std@@@2@$0A@@std@@@std@@AAEPAU?$_Tree_node@V?$basic_string@DU?$char_traits@D@std@@V?$allocator@D@2@@std@@PAX@2@V?$_Tree_unchecked_const_iterator@V?$_Tree_val@U?$_Tree_simple_types@V?$basic_string@DU?$char_traits@D@std@@V?$allocator@D@2@@std@@@std@@@std@@U_Iterator_base0@2@@2@@Z ; std::_Tree<std::_Tset_traits<std::basic_string<char,std::char_traits<char>,std::allocator<char> >,std::less<std::basic_string<char,std::char_traits<char>,std::allocator<char> > >,std::allocator<std::basic_string<char,std::char_traits<char>,std::allocator<char> > >,0> >::_Erase_unchecked

; 1406 :         }

  000c5	eb 99		 jmp	 SHORT $LN2@Erase_unch
$LN3@Erase_unch:

; 1407 : 
; 1408 :         return _Last._Ptr;

  000c7	8b 45 0c	 mov	 eax, DWORD PTR __Last$[ebp]
$LN5@Erase_unch:

; 1409 :     }

  000ca	c9		 leave
  000cb	c2 08 00	 ret	 8
?_Erase_unchecked@?$_Tree@V?$_Tset_traits@V?$basic_string@DU?$char_traits@D@std@@V?$allocator@D@2@@std@@U?$less@V?$basic_string@DU?$char_traits@D@std@@V?$allocator@D@2@@std@@@2@V?$allocator@V?$basic_string@DU?$char_traits@D@std@@V?$allocator@D@2@@std@@@2@$0A@@std@@@std@@AAEPAU?$_Tree_node@V?$basic_string@DU?$char_traits@D@std@@V?$allocator@D@2@@std@@PAX@2@V?$_Tree_unchecked_const_iterator@V?$_Tree_val@U?$_Tree_simple_types@V?$basic_string@DU?$char_traits@D@std@@V?$allocator@D@2@@std@@@std@@@std@@U_Iterator_base0@2@@2@0@Z ENDP ; std::_Tree<std::_Tset_traits<std::basic_string<char,std::char_traits<char>,std::allocator<char> >,std::less<std::basic_string<char,std::char_traits<char>,std::allocator<char> > >,std::allocator<std::basic_string<char,std::char_traits<char>,std::allocator<char> > >,0> >::_Erase_unchecked
_TEXT	ENDS
; Function compile flags: /Odspy
; File C:\Program Files (x86)\Microsoft Visual Studio\2019\Community\VC\Tools\MSVC\14.28.29333\include\xtree
; File C:\Program Files (x86)\Microsoft Visual Studio\2019\Community\VC\Tools\MSVC\14.28.29333\include\xstddef
; File C:\Program Files (x86)\Microsoft Visual Studio\2019\Community\VC\Tools\MSVC\14.28.29333\include\xtree
; File C:\Program Files (x86)\Microsoft Visual Studio\2019\Community\VC\Tools\MSVC\14.28.29333\include\xmemory
; File C:\Program Files (x86)\Microsoft Visual Studio\2019\Community\VC\Tools\MSVC\14.28.29333\include\xtree
;	COMDAT ?_Erase_unchecked@?$_Tree@V?$_Tset_traits@V?$basic_string@DU?$char_traits@D@std@@V?$allocator@D@2@@std@@U?$less@V?$basic_string@DU?$char_traits@D@std@@V?$allocator@D@2@@std@@@2@V?$allocator@V?$basic_string@DU?$char_traits@D@std@@V?$allocator@D@2@@std@@@2@$0A@@std@@@std@@AAEPAU?$_Tree_node@V?$basic_string@DU?$char_traits@D@std@@V?$allocator@D@2@@std@@PAX@2@V?$_Tree_unchecked_const_iterator@V?$_Tree_val@U?$_Tree_simple_types@V?$basic_string@DU?$char_traits@D@std@@V?$allocator@D@2@@std@@@std@@@std@@U_Iterator_base0@2@@2@@Z
_TEXT	SEGMENT
$T1 = -28						; size = 4
__Erasednode$ = -24					; size = 4
$T2 = -20						; size = 4
__Scary$ = -16						; size = 4
$T3 = -12						; size = 4
__Successor$ = -8					; size = 4
_this$ = -4						; size = 4
__Where$ = 8						; size = 4
?_Erase_unchecked@?$_Tree@V?$_Tset_traits@V?$basic_string@DU?$char_traits@D@std@@V?$allocator@D@2@@std@@U?$less@V?$basic_string@DU?$char_traits@D@std@@V?$allocator@D@2@@std@@@2@V?$allocator@V?$basic_string@DU?$char_traits@D@std@@V?$allocator@D@2@@std@@@2@$0A@@std@@@std@@AAEPAU?$_Tree_node@V?$basic_string@DU?$char_traits@D@std@@V?$allocator@D@2@@std@@PAX@2@V?$_Tree_unchecked_const_iterator@V?$_Tree_val@U?$_Tree_simple_types@V?$basic_string@DU?$char_traits@D@std@@V?$allocator@D@2@@std@@@std@@@std@@U_Iterator_base0@2@@2@@Z PROC ; std::_Tree<std::_Tset_traits<std::basic_string<char,std::char_traits<char>,std::allocator<char> >,std::less<std::basic_string<char,std::char_traits<char>,std::allocator<char> > >,std::allocator<std::basic_string<char,std::char_traits<char>,std::allocator<char> > >,0> >::_Erase_unchecked, COMDAT
; _this$ = ecx

; 1385 :     _Nodeptr _Erase_unchecked(_Unchecked_const_iterator _Where) noexcept {

  00000	55		 push	 ebp
  00001	8b ec		 mov	 ebp, esp
  00003	83 ec 1c	 sub	 esp, 28			; 0000001cH
  00006	89 4d fc	 mov	 DWORD PTR _this$[ebp], ecx

; 2047 :         return _STD addressof(_Mypair._Myval2._Myval2);

  00009	8b 45 fc	 mov	 eax, DWORD PTR _this$[ebp]
; File C:\Program Files (x86)\Microsoft Visual Studio\2019\Community\VC\Tools\MSVC\14.28.29333\include\xstddef

; 275  :     return __builtin_addressof(_Val);

  0000c	89 45 f4	 mov	 DWORD PTR $T3[ebp], eax
; File C:\Program Files (x86)\Microsoft Visual Studio\2019\Community\VC\Tools\MSVC\14.28.29333\include\xtree

; 2047 :         return _STD addressof(_Mypair._Myval2._Myval2);

  0000f	8b 45 f4	 mov	 eax, DWORD PTR $T3[ebp]
  00012	89 45 f0	 mov	 DWORD PTR __Scary$[ebp], eax

; 1386 :         const auto _Scary                    = _Get_scary();
; 1387 :         _Unchecked_const_iterator _Successor = _Where;

  00015	8b 45 08	 mov	 eax, DWORD PTR __Where$[ebp]
  00018	89 45 f8	 mov	 DWORD PTR __Successor$[ebp], eax

; 1388 :         ++_Successor; // save successor iterator for return

  0001b	8d 4d f8	 lea	 ecx, DWORD PTR __Successor$[ebp]
  0001e	e8 00 00 00 00	 call	 ??E?$_Tree_unchecked_const_iterator@V?$_Tree_val@U?$_Tree_simple_types@V?$basic_string@DU?$char_traits@D@std@@V?$allocator@D@2@@std@@@std@@@std@@U_Iterator_base0@2@@std@@QAEAAV01@XZ ; std::_Tree_unchecked_const_iterator<std::_Tree_val<std::_Tree_simple_types<std::basic_string<char,std::char_traits<char>,std::allocator<char> > > >,std::_Iterator_base0>::operator++

; 1389 :         _Nodeptr _Erasednode = _Scary->_Extract(_Where); // node to erase

  00023	ff 75 08	 push	 DWORD PTR __Where$[ebp]
  00026	8b 4d f0	 mov	 ecx, DWORD PTR __Scary$[ebp]
  00029	e8 00 00 00 00	 call	 ?_Extract@?$_Tree_val@U?$_Tree_simple_types@V?$basic_string@DU?$char_traits@D@std@@V?$allocator@D@2@@std@@@std@@@std@@QAEPAU?$_Tree_node@V?$basic_string@DU?$char_traits@D@std@@V?$allocator@D@2@@std@@PAX@2@V?$_Tree_unchecked_const_iterator@V?$_Tree_val@U?$_Tree_simple_types@V?$basic_string@DU?$char_traits@D@std@@V?$allocator@D@2@@std@@@std@@@std@@U_Iterator_base0@2@@2@@Z ; std::_Tree_val<std::_Tree_simple_types<std::basic_string<char,std::char_traits<char>,std::allocator<char> > > >::_Extract
  0002e	89 45 e8	 mov	 DWORD PTR __Erasednode$[ebp], eax

; 2039 :         return _Mypair._Myval2._Get_first();

  00031	8b 45 fc	 mov	 eax, DWORD PTR _this$[ebp]
; File C:\Program Files (x86)\Microsoft Visual Studio\2019\Community\VC\Tools\MSVC\14.28.29333\include\xmemory

; 1347 :         return *this;

  00034	89 45 ec	 mov	 DWORD PTR $T2[ebp], eax
; File C:\Program Files (x86)\Microsoft Visual Studio\2019\Community\VC\Tools\MSVC\14.28.29333\include\xtree

; 2039 :         return _Mypair._Myval2._Get_first();

  00037	8b 45 ec	 mov	 eax, DWORD PTR $T2[ebp]
  0003a	89 45 e4	 mov	 DWORD PTR $T1[ebp], eax

; 1390 :         _Scary->_Orphan_ptr(_Erasednode);
; 1391 :         _Node::_Freenode(_Getal(), _Erasednode); // delete erased node

  0003d	ff 75 e8	 push	 DWORD PTR __Erasednode$[ebp]
  00040	ff 75 e4	 push	 DWORD PTR $T1[ebp]
  00043	e8 00 00 00 00	 call	 ??$_Freenode@V?$allocator@U?$_Tree_node@V?$basic_string@DU?$char_traits@D@std@@V?$allocator@D@2@@std@@PAX@std@@@std@@@?$_Tree_node@V?$basic_string@DU?$char_traits@D@std@@V?$allocator@D@2@@std@@PAX@std@@SAXAAV?$allocator@U?$_Tree_node@V?$basic_string@DU?$char_traits@D@std@@V?$allocator@D@2@@std@@PAX@std@@@1@PAU01@@Z ; std::_Tree_node<std::basic_string<char,std::char_traits<char>,std::allocator<char> >,void *>::_Freenode<std::allocator<std::_Tree_node<std::basic_string<char,std::char_traits<char>,std::allocator<char> >,void *> > >
  00048	59		 pop	 ecx
  00049	59		 pop	 ecx

; 1392 :         return _Successor._Ptr; // return successor nodeptr

  0004a	8b 45 f8	 mov	 eax, DWORD PTR __Successor$[ebp]

; 1393 :     }

  0004d	c9		 leave
  0004e	c2 04 00	 ret	 4
?_Erase_unchecked@?$_Tree@V?$_Tset_traits@V?$basic_string@DU?$char_traits@D@std@@V?$allocator@D@2@@std@@U?$less@V?$basic_string@DU?$char_traits@D@std@@V?$allocator@D@2@@std@@@2@V?$allocator@V?$basic_string@DU?$char_traits@D@std@@V?$allocator@D@2@@std@@@2@$0A@@std@@@std@@AAEPAU?$_Tree_node@V?$basic_string@DU?$char_traits@D@std@@V?$allocator@D@2@@std@@PAX@2@V?$_Tree_unchecked_const_iterator@V?$_Tree_val@U?$_Tree_simple_types@V?$basic_string@DU?$char_traits@D@std@@V?$allocator@D@2@@std@@@std@@@std@@U_Iterator_base0@2@@2@@Z ENDP ; std::_Tree<std::_Tset_traits<std::basic_string<char,std::char_traits<char>,std::allocator<char> >,std::less<std::basic_string<char,std::char_traits<char>,std::allocator<char> > >,std::allocator<std::basic_string<char,std::char_traits<char>,std::allocator<char> > >,0> >::_Erase_unchecked
_TEXT	ENDS
; Function compile flags: /Odspy
; File C:\Program Files (x86)\Microsoft Visual Studio\2019\Community\VC\Tools\MSVC\14.28.29333\include\xtree
; File C:\Program Files (x86)\Microsoft Visual Studio\2019\Community\VC\Tools\MSVC\14.28.29333\include\xmemory
; File C:\Program Files (x86)\Microsoft Visual Studio\2019\Community\VC\Tools\MSVC\14.28.29333\include\xtree
; File C:\Program Files (x86)\Microsoft Visual Studio\2019\Community\VC\Tools\MSVC\14.28.29333\include\xmemory
; File C:\Program Files (x86)\Microsoft Visual Studio\2019\Community\VC\Tools\MSVC\14.28.29333\include\limits
; File C:\Program Files (x86)\Microsoft Visual Studio\2019\Community\VC\Tools\MSVC\14.28.29333\include\xtree
; File C:\Program Files (x86)\Microsoft Visual Studio\2019\Community\VC\Tools\MSVC\14.28.29333\include\utility
; File C:\Program Files (x86)\Microsoft Visual Studio\2019\Community\VC\Tools\MSVC\14.28.29333\include\xtree
;	COMDAT ?max_size@?$_Tree@V?$_Tset_traits@V?$basic_string@DU?$char_traits@D@std@@V?$allocator@D@2@@std@@U?$less@V?$basic_string@DU?$char_traits@D@std@@V?$allocator@D@2@@std@@@2@V?$allocator@V?$basic_string@DU?$char_traits@D@std@@V?$allocator@D@2@@std@@@2@$0A@@std@@@std@@QBEIXZ
_TEXT	SEGMENT
$T1 = -36						; size = 4
$T2 = -32						; size = 4
$T3 = -28						; size = 4
$T4 = -24						; size = 4
$T5 = -20						; size = 4
_this$ = -16						; size = 4
tv68 = -12						; size = 4
$T6 = -8						; size = 4
$T7 = -4						; size = 4
?max_size@?$_Tree@V?$_Tset_traits@V?$basic_string@DU?$char_traits@D@std@@V?$allocator@D@2@@std@@U?$less@V?$basic_string@DU?$char_traits@D@std@@V?$allocator@D@2@@std@@@2@V?$allocator@V?$basic_string@DU?$char_traits@D@std@@V?$allocator@D@2@@std@@@2@$0A@@std@@@std@@QBEIXZ PROC ; std::_Tree<std::_Tset_traits<std::basic_string<char,std::char_traits<char>,std::allocator<char> >,std::less<std::basic_string<char,std::char_traits<char>,std::allocator<char> > >,std::allocator<std::basic_string<char,std::char_traits<char>,std::allocator<char> > >,0> >::max_size, COMDAT
; _this$ = ecx

; 1310 :     _NODISCARD size_type max_size() const noexcept {

  00000	55		 push	 ebp
  00001	8b ec		 mov	 ebp, esp
  00003	83 ec 24	 sub	 esp, 36			; 00000024H
  00006	89 4d f0	 mov	 DWORD PTR _this$[ebp], ecx

; 2043 :         return _Mypair._Myval2._Get_first();

  00009	8b 45 f0	 mov	 eax, DWORD PTR _this$[ebp]
; File C:\Program Files (x86)\Microsoft Visual Studio\2019\Community\VC\Tools\MSVC\14.28.29333\include\xmemory

; 1351 :         return *this;

  0000c	89 45 ec	 mov	 DWORD PTR $T5[ebp], eax
; File C:\Program Files (x86)\Microsoft Visual Studio\2019\Community\VC\Tools\MSVC\14.28.29333\include\xtree

; 2043 :         return _Mypair._Myval2._Get_first();

  0000f	8b 45 ec	 mov	 eax, DWORD PTR $T5[ebp]
  00012	89 45 dc	 mov	 DWORD PTR $T1[ebp], eax
; File C:\Program Files (x86)\Microsoft Visual Studio\2019\Community\VC\Tools\MSVC\14.28.29333\include\xmemory

; 710  :         return static_cast<size_t>(-1) / sizeof(value_type);

  00015	c7 45 fc 66 66
	66 06		 mov	 DWORD PTR $T7[ebp], 107374182 ; 06666666H
; File C:\Program Files (x86)\Microsoft Visual Studio\2019\Community\VC\Tools\MSVC\14.28.29333\include\limits

; 557  :         return INT_MAX;

  0001c	c7 45 e8 ff ff
	ff 7f		 mov	 DWORD PTR $T4[ebp], 2147483647 ; 7fffffffH
; File C:\Program Files (x86)\Microsoft Visual Studio\2019\Community\VC\Tools\MSVC\14.28.29333\include\xtree

; 1311 :         return (_STD min)(

  00023	8b 45 e8	 mov	 eax, DWORD PTR $T4[ebp]
  00026	89 45 f8	 mov	 DWORD PTR $T6[ebp], eax
; File C:\Program Files (x86)\Microsoft Visual Studio\2019\Community\VC\Tools\MSVC\14.28.29333\include\utility

; 68   :     return _Right < _Left ? _Right : _Left;

  00029	8b 45 fc	 mov	 eax, DWORD PTR $T7[ebp]
  0002c	3b 45 f8	 cmp	 eax, DWORD PTR $T6[ebp]
  0002f	73 08		 jae	 SHORT $LN17@max_size
  00031	8d 45 fc	 lea	 eax, DWORD PTR $T7[ebp]
  00034	89 45 f4	 mov	 DWORD PTR tv68[ebp], eax
  00037	eb 06		 jmp	 SHORT $LN18@max_size
$LN17@max_size:
  00039	8d 45 f8	 lea	 eax, DWORD PTR $T6[ebp]
  0003c	89 45 f4	 mov	 DWORD PTR tv68[ebp], eax
$LN18@max_size:
  0003f	8b 45 f4	 mov	 eax, DWORD PTR tv68[ebp]
  00042	89 45 e4	 mov	 DWORD PTR $T3[ebp], eax
  00045	8b 45 e4	 mov	 eax, DWORD PTR $T3[ebp]
  00048	89 45 e0	 mov	 DWORD PTR $T2[ebp], eax
; File C:\Program Files (x86)\Microsoft Visual Studio\2019\Community\VC\Tools\MSVC\14.28.29333\include\xtree

; 1311 :         return (_STD min)(

  0004b	8b 45 e0	 mov	 eax, DWORD PTR $T2[ebp]
  0004e	8b 00		 mov	 eax, DWORD PTR [eax]

; 1312 :             static_cast<size_type>((numeric_limits<difference_type>::max)()), _Alnode_traits::max_size(_Getal()));
; 1313 :     }

  00050	c9		 leave
  00051	c3		 ret	 0
?max_size@?$_Tree@V?$_Tset_traits@V?$basic_string@DU?$char_traits@D@std@@V?$allocator@D@2@@std@@U?$less@V?$basic_string@DU?$char_traits@D@std@@V?$allocator@D@2@@std@@@2@V?$allocator@V?$basic_string@DU?$char_traits@D@std@@V?$allocator@D@2@@std@@@2@$0A@@std@@@std@@QBEIXZ ENDP ; std::_Tree<std::_Tset_traits<std::basic_string<char,std::char_traits<char>,std::allocator<char> >,std::less<std::basic_string<char,std::char_traits<char>,std::allocator<char> > >,std::allocator<std::basic_string<char,std::char_traits<char>,std::allocator<char> > >,0> >::max_size
_TEXT	ENDS
; Function compile flags: /Odspy
; File C:\Program Files (x86)\Microsoft Visual Studio\2019\Community\VC\Tools\MSVC\14.28.29333\include\xtree
; File C:\Program Files (x86)\Microsoft Visual Studio\2019\Community\VC\Tools\MSVC\14.28.29333\include\xstddef
; File C:\Program Files (x86)\Microsoft Visual Studio\2019\Community\VC\Tools\MSVC\14.28.29333\include\xtree
; File C:\Program Files (x86)\Microsoft Visual Studio\2019\Community\VC\Tools\MSVC\14.28.29333\include\xmemory
; File C:\Program Files (x86)\Microsoft Visual Studio\2019\Community\VC\Tools\MSVC\14.28.29333\include\xtree
;	COMDAT ??1?$_Tree@V?$_Tset_traits@V?$basic_string@DU?$char_traits@D@std@@V?$allocator@D@2@@std@@U?$less@V?$basic_string@DU?$char_traits@D@std@@V?$allocator@D@2@@std@@@2@V?$allocator@V?$basic_string@DU?$char_traits@D@std@@V?$allocator@D@2@@std@@@2@$0A@@std@@@std@@QAE@XZ
_TEXT	SEGMENT
$T1 = -20						; size = 4
$T2 = -16						; size = 4
$T3 = -12						; size = 4
_this$ = -8						; size = 4
__Scary$ = -4						; size = 4
??1?$_Tree@V?$_Tset_traits@V?$basic_string@DU?$char_traits@D@std@@V?$allocator@D@2@@std@@U?$less@V?$basic_string@DU?$char_traits@D@std@@V?$allocator@D@2@@std@@@2@V?$allocator@V?$basic_string@DU?$char_traits@D@std@@V?$allocator@D@2@@std@@@2@$0A@@std@@@std@@QAE@XZ PROC ; std::_Tree<std::_Tset_traits<std::basic_string<char,std::char_traits<char>,std::allocator<char> >,std::less<std::basic_string<char,std::char_traits<char>,std::allocator<char> > >,std::allocator<std::basic_string<char,std::char_traits<char>,std::allocator<char> > >,0> >::~_Tree<std::_Tset_traits<std::basic_string<char,std::char_traits<char>,std::allocator<char> >,std::less<std::basic_string<char,std::char_traits<char>,std::allocator<char> > >,std::allocator<std::basic_string<char,std::char_traits<char>,std::allocator<char> > >,0> >, COMDAT
; _this$ = ecx

; 1189 :     ~_Tree() noexcept {

  00000	55		 push	 ebp
  00001	8b ec		 mov	 ebp, esp
  00003	83 ec 14	 sub	 esp, 20			; 00000014H
  00006	89 4d f8	 mov	 DWORD PTR _this$[ebp], ecx

; 2047 :         return _STD addressof(_Mypair._Myval2._Myval2);

  00009	8b 45 f8	 mov	 eax, DWORD PTR _this$[ebp]
; File C:\Program Files (x86)\Microsoft Visual Studio\2019\Community\VC\Tools\MSVC\14.28.29333\include\xstddef

; 275  :     return __builtin_addressof(_Val);

  0000c	89 45 f0	 mov	 DWORD PTR $T2[ebp], eax
; File C:\Program Files (x86)\Microsoft Visual Studio\2019\Community\VC\Tools\MSVC\14.28.29333\include\xtree

; 2047 :         return _STD addressof(_Mypair._Myval2._Myval2);

  0000f	8b 45 f0	 mov	 eax, DWORD PTR $T2[ebp]
  00012	89 45 fc	 mov	 DWORD PTR __Scary$[ebp], eax

; 2039 :         return _Mypair._Myval2._Get_first();

  00015	8b 45 f8	 mov	 eax, DWORD PTR _this$[ebp]
; File C:\Program Files (x86)\Microsoft Visual Studio\2019\Community\VC\Tools\MSVC\14.28.29333\include\xmemory

; 1347 :         return *this;

  00018	89 45 ec	 mov	 DWORD PTR $T1[ebp], eax
; File C:\Program Files (x86)\Microsoft Visual Studio\2019\Community\VC\Tools\MSVC\14.28.29333\include\xtree

; 2039 :         return _Mypair._Myval2._Get_first();

  0001b	8b 45 ec	 mov	 eax, DWORD PTR $T1[ebp]
  0001e	89 45 f4	 mov	 DWORD PTR $T3[ebp], eax

; 752  :         _Erase_tree(_Al, _Myhead->_Parent);

  00021	8b 45 fc	 mov	 eax, DWORD PTR __Scary$[ebp]
  00024	8b 00		 mov	 eax, DWORD PTR [eax]
  00026	ff 70 04	 push	 DWORD PTR [eax+4]
  00029	ff 75 f4	 push	 DWORD PTR $T3[ebp]
  0002c	8b 4d fc	 mov	 ecx, DWORD PTR __Scary$[ebp]
  0002f	e8 00 00 00 00	 call	 ??$_Erase_tree@V?$allocator@U?$_Tree_node@V?$basic_string@DU?$char_traits@D@std@@V?$allocator@D@2@@std@@PAX@std@@@std@@@?$_Tree_val@U?$_Tree_simple_types@V?$basic_string@DU?$char_traits@D@std@@V?$allocator@D@2@@std@@@std@@@std@@QAEXAAV?$allocator@U?$_Tree_node@V?$basic_string@DU?$char_traits@D@std@@V?$allocator@D@2@@std@@PAX@std@@@1@PAU?$_Tree_node@V?$basic_string@DU?$char_traits@D@std@@V?$allocator@D@2@@std@@PAX@1@@Z ; std::_Tree_val<std::_Tree_simple_types<std::basic_string<char,std::char_traits<char>,std::allocator<char> > > >::_Erase_tree<std::allocator<std::_Tree_node<std::basic_string<char,std::char_traits<char>,std::allocator<char> >,void *> > >

; 753  :         _Alnode::value_type::_Freenode0(_Al, _Myhead);

  00034	8b 45 fc	 mov	 eax, DWORD PTR __Scary$[ebp]
  00037	ff 30		 push	 DWORD PTR [eax]
  00039	ff 75 f4	 push	 DWORD PTR $T3[ebp]
  0003c	e8 00 00 00 00	 call	 ??$_Freenode0@V?$allocator@U?$_Tree_node@V?$basic_string@DU?$char_traits@D@std@@V?$allocator@D@2@@std@@PAX@std@@@std@@@?$_Tree_node@V?$basic_string@DU?$char_traits@D@std@@V?$allocator@D@2@@std@@PAX@std@@SAXAAV?$allocator@U?$_Tree_node@V?$basic_string@DU?$char_traits@D@std@@V?$allocator@D@2@@std@@PAX@std@@@1@PAU01@@Z ; std::_Tree_node<std::basic_string<char,std::char_traits<char>,std::allocator<char> >,void *>::_Freenode0<std::allocator<std::_Tree_node<std::basic_string<char,std::char_traits<char>,std::allocator<char> >,void *> > >
  00041	59		 pop	 ecx
  00042	59		 pop	 ecx

; 1190 :         const auto _Scary = _Get_scary();
; 1191 :         _Scary->_Erase_head(_Getal());
; 1192 : #if _ITERATOR_DEBUG_LEVEL != 0 // TRANSITION, ABI
; 1193 :         auto&& _Alproxy = _GET_PROXY_ALLOCATOR(_Alnode, _Getal());
; 1194 :         _Delete_plain_internal(_Alproxy, _Scary->_Myproxy);
; 1195 : #endif // _ITERATOR_DEBUG_LEVEL != 0
; 1196 :     }

  00043	c9		 leave
  00044	c3		 ret	 0
??1?$_Tree@V?$_Tset_traits@V?$basic_string@DU?$char_traits@D@std@@V?$allocator@D@2@@std@@U?$less@V?$basic_string@DU?$char_traits@D@std@@V?$allocator@D@2@@std@@@2@V?$allocator@V?$basic_string@DU?$char_traits@D@std@@V?$allocator@D@2@@std@@@2@$0A@@std@@@std@@QAE@XZ ENDP ; std::_Tree<std::_Tset_traits<std::basic_string<char,std::char_traits<char>,std::allocator<char> >,std::less<std::basic_string<char,std::char_traits<char>,std::allocator<char> > >,std::allocator<std::basic_string<char,std::char_traits<char>,std::allocator<char> > >,0> >::~_Tree<std::_Tset_traits<std::basic_string<char,std::char_traits<char>,std::allocator<char> >,std::less<std::basic_string<char,std::char_traits<char>,std::allocator<char> > >,std::allocator<std::basic_string<char,std::char_traits<char>,std::allocator<char> > >,0> >
_TEXT	ENDS
; Function compile flags: /Odspy
; File C:\Program Files (x86)\Microsoft Visual Studio\2019\Community\VC\Tools\MSVC\14.28.29333\include\xtree
; File C:\Program Files (x86)\Microsoft Visual Studio\2019\Community\VC\Tools\MSVC\14.28.29333\include\type_traits
; File C:\Program Files (x86)\Microsoft Visual Studio\2019\Community\VC\Tools\MSVC\14.28.29333\include\xmemory
; File C:\Program Files (x86)\Microsoft Visual Studio\2019\Community\VC\Tools\MSVC\14.28.29333\include\xtree
;	COMDAT ??0?$_Tree@V?$_Tset_traits@V?$basic_string@DU?$char_traits@D@std@@V?$allocator@D@2@@std@@U?$less@V?$basic_string@DU?$char_traits@D@std@@V?$allocator@D@2@@std@@@2@V?$allocator@V?$basic_string@DU?$char_traits@D@std@@V?$allocator@D@2@@std@@@2@$0A@@std@@@std@@QAE@ABU?$less@V?$basic_string@DU?$char_traits@D@std@@V?$allocator@D@2@@std@@@1@@Z
_TEXT	SEGMENT
_this$ = -28						; size = 4
_this$ = -24						; size = 4
$T1 = -20						; size = 4
_this$2 = -16						; size = 4
_this$ = -12						; size = 4
___formal$ = -8						; size = 1
$T3 = -1						; size = 1
__Parg$ = 8						; size = 4
??0?$_Tree@V?$_Tset_traits@V?$basic_string@DU?$char_traits@D@std@@V?$allocator@D@2@@std@@U?$less@V?$basic_string@DU?$char_traits@D@std@@V?$allocator@D@2@@std@@@2@V?$allocator@V?$basic_string@DU?$char_traits@D@std@@V?$allocator@D@2@@std@@@2@$0A@@std@@@std@@QAE@ABU?$less@V?$basic_string@DU?$char_traits@D@std@@V?$allocator@D@2@@std@@@1@@Z PROC ; std::_Tree<std::_Tset_traits<std::basic_string<char,std::char_traits<char>,std::allocator<char> >,std::less<std::basic_string<char,std::char_traits<char>,std::allocator<char> > >,std::allocator<std::basic_string<char,std::char_traits<char>,std::allocator<char> > >,0> >::_Tree<std::_Tset_traits<std::basic_string<char,std::char_traits<char>,std::allocator<char> >,std::less<std::basic_string<char,std::char_traits<char>,std::allocator<char> > >,std::allocator<std::basic_string<char,std::char_traits<char>,std::allocator<char> > >,0> >, COMDAT
; _this$ = ecx

; 885  :     _Tree(const key_compare& _Parg) : _Mypair(_One_then_variadic_args_t{}, _Parg, _Zero_then_variadic_args_t{}) {

  00000	55		 push	 ebp
  00001	8b ec		 mov	 ebp, esp
  00003	83 ec 1c	 sub	 esp, 28			; 0000001cH
  00006	89 4d f4	 mov	 DWORD PTR _this$[ebp], ecx
  00009	8b 45 f4	 mov	 eax, DWORD PTR _this$[ebp]
  0000c	89 45 e8	 mov	 DWORD PTR _this$[ebp], eax
; File C:\Program Files (x86)\Microsoft Visual Studio\2019\Community\VC\Tools\MSVC\14.28.29333\include\type_traits

; 1443 :     return static_cast<_Ty&&>(_Arg);

  0000f	8d 45 ff	 lea	 eax, DWORD PTR $T3[ebp]
  00012	89 45 ec	 mov	 DWORD PTR $T1[ebp], eax
; File C:\Program Files (x86)\Microsoft Visual Studio\2019\Community\VC\Tools\MSVC\14.28.29333\include\xmemory

; 1344 :         : _Ty1(_STD forward<_Other1>(_Val1)), _Myval2(_STD forward<_Other2>(_Val2)...) {}

  00015	8b 45 ec	 mov	 eax, DWORD PTR $T1[ebp]
  00018	8a 00		 mov	 al, BYTE PTR [eax]
  0001a	88 45 f8	 mov	 BYTE PTR ___formal$[ebp], al
  0001d	8b 45 e8	 mov	 eax, DWORD PTR _this$[ebp]
  00020	89 45 e4	 mov	 DWORD PTR _this$[ebp], eax

; 1339 :         : _Ty1(), _Myval2(_STD forward<_Other2>(_Val2)...) {}

  00023	8b 45 e4	 mov	 eax, DWORD PTR _this$[ebp]
  00026	89 45 f0	 mov	 DWORD PTR _this$2[ebp], eax
; File C:\Program Files (x86)\Microsoft Visual Studio\2019\Community\VC\Tools\MSVC\14.28.29333\include\xtree

; 435  :     _Tree_val() noexcept : _Myhead(), _Mysize(0) {}

  00029	8b 45 f0	 mov	 eax, DWORD PTR _this$2[ebp]
  0002c	83 20 00	 and	 DWORD PTR [eax], 0
  0002f	8b 45 f0	 mov	 eax, DWORD PTR _this$2[ebp]
  00032	83 60 04 00	 and	 DWORD PTR [eax+4], 0

; 886  :         _Alloc_sentinel_and_proxy();

  00036	8b 4d f4	 mov	 ecx, DWORD PTR _this$[ebp]
  00039	e8 00 00 00 00	 call	 ?_Alloc_sentinel_and_proxy@?$_Tree@V?$_Tset_traits@V?$basic_string@DU?$char_traits@D@std@@V?$allocator@D@2@@std@@U?$less@V?$basic_string@DU?$char_traits@D@std@@V?$allocator@D@2@@std@@@2@V?$allocator@V?$basic_string@DU?$char_traits@D@std@@V?$allocator@D@2@@std@@@2@$0A@@std@@@std@@IAEXXZ ; std::_Tree<std::_Tset_traits<std::basic_string<char,std::char_traits<char>,std::allocator<char> >,std::less<std::basic_string<char,std::char_traits<char>,std::allocator<char> > >,std::allocator<std::basic_string<char,std::char_traits<char>,std::allocator<char> > >,0> >::_Alloc_sentinel_and_proxy

; 887  :     }

  0003e	8b 45 f4	 mov	 eax, DWORD PTR _this$[ebp]
  00041	c9		 leave
  00042	c2 04 00	 ret	 4
??0?$_Tree@V?$_Tset_traits@V?$basic_string@DU?$char_traits@D@std@@V?$allocator@D@2@@std@@U?$less@V?$basic_string@DU?$char_traits@D@std@@V?$allocator@D@2@@std@@@2@V?$allocator@V?$basic_string@DU?$char_traits@D@std@@V?$allocator@D@2@@std@@@2@$0A@@std@@@std@@QAE@ABU?$less@V?$basic_string@DU?$char_traits@D@std@@V?$allocator@D@2@@std@@@1@@Z ENDP ; std::_Tree<std::_Tset_traits<std::basic_string<char,std::char_traits<char>,std::allocator<char> >,std::less<std::basic_string<char,std::char_traits<char>,std::allocator<char> > >,std::allocator<std::basic_string<char,std::char_traits<char>,std::allocator<char> > >,0> >::_Tree<std::_Tset_traits<std::basic_string<char,std::char_traits<char>,std::allocator<char> >,std::less<std::basic_string<char,std::char_traits<char>,std::allocator<char> > >,std::allocator<std::basic_string<char,std::char_traits<char>,std::allocator<char> > >,0> >
_TEXT	ENDS
; Function compile flags: /Odspy
; File D:\Metin2 Server Files\mainline\SRC_2014\Metin2Client\UserInterface\PythonMessenger.cpp
;	COMDAT ?SetMessengerHandler@CPythonMessenger@@QAEXPAU_object@@@Z
_TEXT	SEGMENT
_this$ = -4						; size = 4
_poHandler$ = 8						; size = 4
?SetMessengerHandler@CPythonMessenger@@QAEXPAU_object@@@Z PROC ; CPythonMessenger::SetMessengerHandler, COMDAT
; _this$ = ecx

; 99   : {

  00000	55		 push	 ebp
  00001	8b ec		 mov	 ebp, esp
  00003	51		 push	 ecx
  00004	89 4d fc	 mov	 DWORD PTR _this$[ebp], ecx

; 100  : 	m_poMessengerHandler = poHandler;

  00007	8b 45 fc	 mov	 eax, DWORD PTR _this$[ebp]
  0000a	8b 4d 08	 mov	 ecx, DWORD PTR _poHandler$[ebp]
  0000d	89 48 14	 mov	 DWORD PTR [eax+20], ecx

; 101  : }

  00010	c9		 leave
  00011	c2 04 00	 ret	 4
?SetMessengerHandler@CPythonMessenger@@QAEXPAU_object@@@Z ENDP ; CPythonMessenger::SetMessengerHandler
_TEXT	ENDS
; Function compile flags: /Odspy
; File D:\Metin2 Server Files\mainline\SRC_2014\Metin2Client\UserInterface\PythonMessenger.cpp
; File C:\Program Files (x86)\Microsoft Visual Studio\2019\Community\VC\Tools\MSVC\14.28.29333\include\xtree
; File C:\Program Files (x86)\Microsoft Visual Studio\2019\Community\VC\Tools\MSVC\14.28.29333\include\xstddef
; File C:\Program Files (x86)\Microsoft Visual Studio\2019\Community\VC\Tools\MSVC\14.28.29333\include\xtree
; File D:\Metin2 Server Files\mainline\SRC_2014\Metin2Client\UserInterface\PythonMessenger.cpp
; File C:\Program Files (x86)\Microsoft Visual Studio\2019\Community\VC\Tools\MSVC\14.28.29333\include\xtree
; File C:\Program Files (x86)\Microsoft Visual Studio\2019\Community\VC\Tools\MSVC\14.28.29333\include\xstddef
; File C:\Program Files (x86)\Microsoft Visual Studio\2019\Community\VC\Tools\MSVC\14.28.29333\include\xutility
; File C:\Program Files (x86)\Microsoft Visual Studio\2019\Community\VC\Tools\MSVC\14.28.29333\include\xtree
; File D:\Metin2 Server Files\mainline\SRC_2014\Metin2Client\UserInterface\PythonMessenger.cpp
; File C:\Program Files (x86)\Microsoft Visual Studio\2019\Community\VC\Tools\MSVC\14.28.29333\include\xtree
; File C:\Program Files (x86)\Microsoft Visual Studio\2019\Community\VC\Tools\MSVC\14.28.29333\include\xstddef
; File C:\Program Files (x86)\Microsoft Visual Studio\2019\Community\VC\Tools\MSVC\14.28.29333\include\xutility
; File C:\Program Files (x86)\Microsoft Visual Studio\2019\Community\VC\Tools\MSVC\14.28.29333\include\xtree
; File D:\Metin2 Server Files\mainline\SRC_2014\Metin2Client\UserInterface\PythonMessenger.cpp
; File C:\Program Files (x86)\Microsoft Visual Studio\2019\Community\VC\Tools\MSVC\14.28.29333\include\xtree
; File C:\Program Files (x86)\Microsoft Visual Studio\2019\Community\VC\Tools\MSVC\14.28.29333\include\xstddef
; File C:\Program Files (x86)\Microsoft Visual Studio\2019\Community\VC\Tools\MSVC\14.28.29333\include\xutility
; File C:\Program Files (x86)\Microsoft Visual Studio\2019\Community\VC\Tools\MSVC\14.28.29333\include\xtree
; File D:\Metin2 Server Files\mainline\SRC_2014\Metin2Client\UserInterface\PythonMessenger.cpp
;	COMDAT ?RefreshGuildMember@CPythonMessenger@@QAEXXZ
_TEXT	SEGMENT
$T1 = -100						; size = 4
$T2 = -96						; size = 4
$T3 = -92						; size = 4
$T4 = -88						; size = 4
$T5 = -84						; size = 4
$T6 = -80						; size = 4
$T7 = -76						; size = 4
$T8 = -72						; size = 4
$T9 = -68						; size = 4
$T10 = -64						; size = 4
$T11 = -60						; size = 4
$T12 = -56						; size = 4
$T13 = -52						; size = 4
$T14 = -48						; size = 4
$T15 = -44						; size = 4
$T16 = -40						; size = 4
$T17 = -36						; size = 4
___param0$ = -32					; size = 4
__Scary$18 = -28					; size = 4
$T19 = -24						; size = 4
tv193 = -20						; size = 4
tv220 = -16						; size = 4
_this$ = -12						; size = 4
_itor$20 = -8						; size = 4
$T21 = -2						; size = 1
$T22 = -1						; size = 1
?RefreshGuildMember@CPythonMessenger@@QAEXXZ PROC	; CPythonMessenger::RefreshGuildMember, COMDAT
; _this$ = ecx

; 82   : {

  00000	55		 push	 ebp
  00001	8b ec		 mov	 ebp, esp
  00003	83 ec 64	 sub	 esp, 100		; 00000064H
  00006	89 4d f4	 mov	 DWORD PTR _this$[ebp], ecx

; 83   : 	for (TGuildMemberStateMap::iterator itor = m_GuildMemberStateMap.begin(); itor != m_GuildMemberStateMap.end(); ++itor)

  00009	8d 45 f8	 lea	 eax, DWORD PTR _itor$20[ebp]
  0000c	50		 push	 eax
  0000d	8b 4d f4	 mov	 ecx, DWORD PTR _this$[ebp]
  00010	83 c1 0c	 add	 ecx, 12			; 0000000cH
  00013	e8 00 00 00 00	 call	 ?begin@?$_Tree@V?$_Tmap_traits@V?$basic_string@DU?$char_traits@D@std@@V?$allocator@D@2@@std@@EU?$less@V?$basic_string@DU?$char_traits@D@std@@V?$allocator@D@2@@std@@@2@V?$allocator@U?$pair@$$CBV?$basic_string@DU?$char_traits@D@std@@V?$allocator@D@2@@std@@E@std@@@2@$0A@@std@@@std@@QAE?AV?$_Tree_iterator@V?$_Tree_val@U?$_Tree_simple_types@U?$pair@$$CBV?$basic_string@DU?$char_traits@D@std@@V?$allocator@D@2@@std@@E@std@@@std@@@std@@@2@XZ ; std::_Tree<std::_Tmap_traits<std::basic_string<char,std::char_traits<char>,std::allocator<char> >,unsigned char,std::less<std::basic_string<char,std::char_traits<char>,std::allocator<char> > >,std::allocator<std::pair<std::basic_string<char,std::char_traits<char>,std::allocator<char> > const ,unsigned char> >,0> >::begin
  00018	eb 08		 jmp	 SHORT $LN4@RefreshGui
$LN2@RefreshGui:
; File C:\Program Files (x86)\Microsoft Visual Studio\2019\Community\VC\Tools\MSVC\14.28.29333\include\xtree

; 198  :         _Mybase::operator++();

  0001a	8d 4d f8	 lea	 ecx, DWORD PTR _itor$20[ebp]
  0001d	e8 00 00 00 00	 call	 ??E?$_Tree_unchecked_const_iterator@V?$_Tree_val@U?$_Tree_simple_types@U?$pair@$$CBV?$basic_string@DU?$char_traits@D@std@@V?$allocator@D@2@@std@@E@std@@@std@@@std@@U_Iterator_base0@2@@std@@QAEAAV01@XZ ; std::_Tree_unchecked_const_iterator<std::_Tree_val<std::_Tree_simple_types<std::pair<std::basic_string<char,std::char_traits<char>,std::allocator<char> > const ,unsigned char> > >,std::_Iterator_base0>::operator++
$LN4@RefreshGui:

; 2047 :         return _STD addressof(_Mypair._Myval2._Myval2);

  00022	8b 45 f4	 mov	 eax, DWORD PTR _this$[ebp]
  00025	83 c0 0c	 add	 eax, 12			; 0000000cH
; File C:\Program Files (x86)\Microsoft Visual Studio\2019\Community\VC\Tools\MSVC\14.28.29333\include\xstddef

; 275  :     return __builtin_addressof(_Val);

  00028	89 45 e8	 mov	 DWORD PTR $T19[ebp], eax
; File C:\Program Files (x86)\Microsoft Visual Studio\2019\Community\VC\Tools\MSVC\14.28.29333\include\xtree

; 2047 :         return _STD addressof(_Mypair._Myval2._Myval2);

  0002b	8b 45 e8	 mov	 eax, DWORD PTR $T19[ebp]
  0002e	89 45 e4	 mov	 DWORD PTR __Scary$18[ebp], eax

; 1250 :         return iterator(_Scary->_Myhead, _Scary);

  00031	8b 45 e4	 mov	 eax, DWORD PTR __Scary$18[ebp]
  00034	8b 00		 mov	 eax, DWORD PTR [eax]
  00036	89 45 e0	 mov	 DWORD PTR ___param0$[ebp], eax

; 39   :     _Tree_unchecked_const_iterator(_Nodeptr _Pnode, const _Mytree* _Plist) noexcept : _Ptr(_Pnode) {

  00039	8b 45 e0	 mov	 eax, DWORD PTR ___param0$[ebp]
  0003c	89 45 dc	 mov	 DWORD PTR $T17[ebp], eax

; 1250 :         return iterator(_Scary->_Myhead, _Scary);

  0003f	8d 45 dc	 lea	 eax, DWORD PTR $T17[ebp]
  00042	89 45 d8	 mov	 DWORD PTR $T16[ebp], eax

; 232  :         return this->_Ptr == _Right._Ptr;

  00045	8b 45 d8	 mov	 eax, DWORD PTR $T16[ebp]
  00048	8b 4d f8	 mov	 ecx, DWORD PTR _itor$20[ebp]
  0004b	3b 08		 cmp	 ecx, DWORD PTR [eax]
  0004d	75 09		 jne	 SHORT $LN75@RefreshGui
  0004f	c7 45 f0 01 00
	00 00		 mov	 DWORD PTR tv220[ebp], 1
  00056	eb 04		 jmp	 SHORT $LN76@RefreshGui
$LN75@RefreshGui:
  00058	83 65 f0 00	 and	 DWORD PTR tv220[ebp], 0
$LN76@RefreshGui:
  0005c	8a 45 f0	 mov	 al, BYTE PTR tv220[ebp]
  0005f	88 45 ff	 mov	 BYTE PTR $T22[ebp], al

; 236  :         return !(*this == _Right);

  00062	0f b6 45 ff	 movzx	 eax, BYTE PTR $T22[ebp]
  00066	85 c0		 test	 eax, eax
  00068	75 09		 jne	 SHORT $LN70@RefreshGui
  0006a	c7 45 ec 01 00
	00 00		 mov	 DWORD PTR tv193[ebp], 1
  00071	eb 04		 jmp	 SHORT $LN71@RefreshGui
$LN70@RefreshGui:
  00073	83 65 ec 00	 and	 DWORD PTR tv193[ebp], 0
$LN71@RefreshGui:
  00077	8a 45 ec	 mov	 al, BYTE PTR tv193[ebp]
  0007a	88 45 fe	 mov	 BYTE PTR $T21[ebp], al
; File D:\Metin2 Server Files\mainline\SRC_2014\Metin2Client\UserInterface\PythonMessenger.cpp

; 83   : 	for (TGuildMemberStateMap::iterator itor = m_GuildMemberStateMap.begin(); itor != m_GuildMemberStateMap.end(); ++itor)

  0007d	0f b6 45 fe	 movzx	 eax, BYTE PTR $T21[ebp]
  00081	85 c0		 test	 eax, eax
  00083	0f 84 cf 00 00
	00		 je	 $LN1@RefreshGui
; File C:\Program Files (x86)\Microsoft Visual Studio\2019\Community\VC\Tools\MSVC\14.28.29333\include\xtree

; 185  :         return this->_Ptr->_Myval;

  00089	8b 45 f8	 mov	 eax, DWORD PTR _itor$20[ebp]
  0008c	83 c0 10	 add	 eax, 16			; 00000010H
  0008f	89 45 d4	 mov	 DWORD PTR $T15[ebp], eax

; 273  :         return const_cast<reference>(_Mybase::operator*());

  00092	8b 45 d4	 mov	 eax, DWORD PTR $T15[ebp]
  00095	89 45 d0	 mov	 DWORD PTR $T14[ebp], eax
; File C:\Program Files (x86)\Microsoft Visual Studio\2019\Community\VC\Tools\MSVC\14.28.29333\include\xstddef

; 275  :     return __builtin_addressof(_Val);

  00098	8b 45 d0	 mov	 eax, DWORD PTR $T14[ebp]
  0009b	89 45 cc	 mov	 DWORD PTR $T13[ebp], eax
; File C:\Program Files (x86)\Microsoft Visual Studio\2019\Community\VC\Tools\MSVC\14.28.29333\include\xutility

; 151  :         return _STD addressof(_Val);

  0009e	8b 45 cc	 mov	 eax, DWORD PTR $T13[ebp]
  000a1	89 45 c8	 mov	 DWORD PTR $T12[ebp], eax
; File C:\Program Files (x86)\Microsoft Visual Studio\2019\Community\VC\Tools\MSVC\14.28.29333\include\xtree

; 277  :         return pointer_traits<pointer>::pointer_to(**this);

  000a4	8b 45 c8	 mov	 eax, DWORD PTR $T12[ebp]
  000a7	89 45 c4	 mov	 DWORD PTR $T11[ebp], eax
; File D:\Metin2 Server Files\mainline\SRC_2014\Metin2Client\UserInterface\PythonMessenger.cpp

; 85   : 		if (itor->second)

  000aa	8b 45 c4	 mov	 eax, DWORD PTR $T11[ebp]
  000ad	0f b6 40 18	 movzx	 eax, BYTE PTR [eax+24]
  000b1	85 c0		 test	 eax, eax
  000b3	74 50		 je	 SHORT $LN5@RefreshGui
; File C:\Program Files (x86)\Microsoft Visual Studio\2019\Community\VC\Tools\MSVC\14.28.29333\include\xtree

; 185  :         return this->_Ptr->_Myval;

  000b5	8b 45 f8	 mov	 eax, DWORD PTR _itor$20[ebp]
  000b8	83 c0 10	 add	 eax, 16			; 00000010H
  000bb	89 45 c0	 mov	 DWORD PTR $T10[ebp], eax

; 273  :         return const_cast<reference>(_Mybase::operator*());

  000be	8b 45 c0	 mov	 eax, DWORD PTR $T10[ebp]
  000c1	89 45 bc	 mov	 DWORD PTR $T9[ebp], eax
; File C:\Program Files (x86)\Microsoft Visual Studio\2019\Community\VC\Tools\MSVC\14.28.29333\include\xstddef

; 275  :     return __builtin_addressof(_Val);

  000c4	8b 45 bc	 mov	 eax, DWORD PTR $T9[ebp]
  000c7	89 45 b8	 mov	 DWORD PTR $T8[ebp], eax
; File C:\Program Files (x86)\Microsoft Visual Studio\2019\Community\VC\Tools\MSVC\14.28.29333\include\xutility

; 151  :         return _STD addressof(_Val);

  000ca	8b 45 b8	 mov	 eax, DWORD PTR $T8[ebp]
  000cd	89 45 b4	 mov	 DWORD PTR $T7[ebp], eax
; File C:\Program Files (x86)\Microsoft Visual Studio\2019\Community\VC\Tools\MSVC\14.28.29333\include\xtree

; 277  :         return pointer_traits<pointer>::pointer_to(**this);

  000d0	8b 45 b4	 mov	 eax, DWORD PTR $T7[ebp]
  000d3	89 45 b0	 mov	 DWORD PTR $T6[ebp], eax
; File D:\Metin2 Server Files\mainline\SRC_2014\Metin2Client\UserInterface\PythonMessenger.cpp

; 86   : 			PyCallClassMemberFunc(m_poMessengerHandler, "OnLogin", Py_BuildValue("(is)", MESSENGER_GRUOP_INDEX_GUILD, (itor->first).c_str()));

  000d6	8b 4d b0	 mov	 ecx, DWORD PTR $T6[ebp]
  000d9	e8 00 00 00 00	 call	 ?c_str@?$basic_string@DU?$char_traits@D@std@@V?$allocator@D@2@@std@@QBEPBDXZ ; std::basic_string<char,std::char_traits<char>,std::allocator<char> >::c_str
  000de	50		 push	 eax
  000df	6a 01		 push	 1
  000e1	68 00 00 00 00	 push	 OFFSET ??_C@_04JMLDJNEM@?$CIis?$CJ@
  000e6	ff 15 00 00 00
	00		 call	 DWORD PTR __imp__Py_BuildValue
  000ec	83 c4 0c	 add	 esp, 12			; 0000000cH
  000ef	50		 push	 eax
  000f0	68 00 00 00 00	 push	 OFFSET ??_C@_07MIJIJENI@OnLogin@
  000f5	8b 45 f4	 mov	 eax, DWORD PTR _this$[ebp]
  000f8	ff 70 14	 push	 DWORD PTR [eax+20]
  000fb	e8 00 00 00 00	 call	 ?PyCallClassMemberFunc@@YA_NPAU_object@@PBD0@Z ; PyCallClassMemberFunc
  00100	83 c4 0c	 add	 esp, 12			; 0000000cH
  00103	eb 4e		 jmp	 SHORT $LN6@RefreshGui
$LN5@RefreshGui:
; File C:\Program Files (x86)\Microsoft Visual Studio\2019\Community\VC\Tools\MSVC\14.28.29333\include\xtree

; 185  :         return this->_Ptr->_Myval;

  00105	8b 45 f8	 mov	 eax, DWORD PTR _itor$20[ebp]
  00108	83 c0 10	 add	 eax, 16			; 00000010H
  0010b	89 45 ac	 mov	 DWORD PTR $T5[ebp], eax

; 273  :         return const_cast<reference>(_Mybase::operator*());

  0010e	8b 45 ac	 mov	 eax, DWORD PTR $T5[ebp]
  00111	89 45 a8	 mov	 DWORD PTR $T4[ebp], eax
; File C:\Program Files (x86)\Microsoft Visual Studio\2019\Community\VC\Tools\MSVC\14.28.29333\include\xstddef

; 275  :     return __builtin_addressof(_Val);

  00114	8b 45 a8	 mov	 eax, DWORD PTR $T4[ebp]
  00117	89 45 a4	 mov	 DWORD PTR $T3[ebp], eax
; File C:\Program Files (x86)\Microsoft Visual Studio\2019\Community\VC\Tools\MSVC\14.28.29333\include\xutility

; 151  :         return _STD addressof(_Val);

  0011a	8b 45 a4	 mov	 eax, DWORD PTR $T3[ebp]
  0011d	89 45 a0	 mov	 DWORD PTR $T2[ebp], eax
; File C:\Program Files (x86)\Microsoft Visual Studio\2019\Community\VC\Tools\MSVC\14.28.29333\include\xtree

; 277  :         return pointer_traits<pointer>::pointer_to(**this);

  00120	8b 45 a0	 mov	 eax, DWORD PTR $T2[ebp]
  00123	89 45 9c	 mov	 DWORD PTR $T1[ebp], eax
; File D:\Metin2 Server Files\mainline\SRC_2014\Metin2Client\UserInterface\PythonMessenger.cpp

; 88   : 			PyCallClassMemberFunc(m_poMessengerHandler, "OnLogout", Py_BuildValue("(is)", MESSENGER_GRUOP_INDEX_GUILD, (itor->first).c_str()));

  00126	8b 4d 9c	 mov	 ecx, DWORD PTR $T1[ebp]
  00129	e8 00 00 00 00	 call	 ?c_str@?$basic_string@DU?$char_traits@D@std@@V?$allocator@D@2@@std@@QBEPBDXZ ; std::basic_string<char,std::char_traits<char>,std::allocator<char> >::c_str
  0012e	50		 push	 eax
  0012f	6a 01		 push	 1
  00131	68 00 00 00 00	 push	 OFFSET ??_C@_04JMLDJNEM@?$CIis?$CJ@
  00136	ff 15 00 00 00
	00		 call	 DWORD PTR __imp__Py_BuildValue
  0013c	83 c4 0c	 add	 esp, 12			; 0000000cH
  0013f	50		 push	 eax
  00140	68 00 00 00 00	 push	 OFFSET ??_C@_08PGILGNMN@OnLogout@
  00145	8b 45 f4	 mov	 eax, DWORD PTR _this$[ebp]
  00148	ff 70 14	 push	 DWORD PTR [eax+20]
  0014b	e8 00 00 00 00	 call	 ?PyCallClassMemberFunc@@YA_NPAU_object@@PBD0@Z ; PyCallClassMemberFunc
  00150	83 c4 0c	 add	 esp, 12			; 0000000cH
$LN6@RefreshGui:

; 89   : 	}

  00153	e9 c2 fe ff ff	 jmp	 $LN2@RefreshGui
$LN1@RefreshGui:

; 90   : }

  00158	c9		 leave
  00159	c3		 ret	 0
?RefreshGuildMember@CPythonMessenger@@QAEXXZ ENDP	; CPythonMessenger::RefreshGuildMember
_TEXT	ENDS
; Function compile flags: /Odspy
; File D:\Metin2 Server Files\mainline\SRC_2014\Metin2Client\UserInterface\PythonMessenger.cpp
; File C:\Program Files (x86)\Microsoft Visual Studio\2019\Community\VC\Tools\MSVC\14.28.29333\include\type_traits
; File C:\Program Files (x86)\Microsoft Visual Studio\2019\Community\VC\Tools\MSVC\14.28.29333\include\map
; File D:\Metin2 Server Files\mainline\SRC_2014\Metin2Client\UserInterface\PythonMessenger.cpp
; File C:\Program Files (x86)\Microsoft Visual Studio\2019\Community\VC\Tools\MSVC\14.28.29333\include\map
; File D:\Metin2 Server Files\mainline\SRC_2014\Metin2Client\UserInterface\PythonMessenger.cpp
; File C:\Program Files (x86)\Microsoft Visual Studio\2019\Community\VC\Tools\MSVC\14.28.29333\include\xstring
; File D:\Metin2 Server Files\mainline\SRC_2014\Metin2Client\UserInterface\PythonMessenger.cpp
;	COMDAT ?LogoutGuildMember@CPythonMessenger@@QAEXPBD@Z
_TEXT	SEGMENT
$T2 = -56						; size = 8
$T3 = -48						; size = 4
_this$ = -44						; size = 4
$T4 = -40						; size = 24
__$ArrayPad$ = -16					; size = 4
__$EHRec$ = -12						; size = 12
_c_szName$ = 8						; size = 4
?LogoutGuildMember@CPythonMessenger@@QAEXPBD@Z PROC	; CPythonMessenger::LogoutGuildMember, COMDAT
; _this$ = ecx

; 75   : {

  00000	55		 push	 ebp
  00001	8b ec		 mov	 ebp, esp
  00003	6a ff		 push	 -1
  00005	68 00 00 00 00	 push	 __ehhandler$?LogoutGuildMember@CPythonMessenger@@QAEXPBD@Z
  0000a	64 a1 00 00 00
	00		 mov	 eax, DWORD PTR fs:0
  00010	50		 push	 eax
  00011	83 ec 2c	 sub	 esp, 44			; 0000002cH
  00014	a1 00 00 00 00	 mov	 eax, DWORD PTR ___security_cookie
  00019	33 c5		 xor	 eax, ebp
  0001b	89 45 f0	 mov	 DWORD PTR __$ArrayPad$[ebp], eax
  0001e	50		 push	 eax
  0001f	8d 45 f4	 lea	 eax, DWORD PTR __$EHRec$[ebp]
  00022	64 a3 00 00 00
	00		 mov	 DWORD PTR fs:0, eax
  00028	89 4d d4	 mov	 DWORD PTR _this$[ebp], ecx

; 76   : 	m_GuildMemberStateMap[c_szName] = 0;

  0002b	ff 75 08	 push	 DWORD PTR _c_szName$[ebp]
  0002e	8d 4d d8	 lea	 ecx, DWORD PTR $T4[ebp]
  00031	e8 00 00 00 00	 call	 ??0?$basic_string@DU?$char_traits@D@std@@V?$allocator@D@2@@std@@QAE@QBD@Z ; std::basic_string<char,std::char_traits<char>,std::allocator<char> >::basic_string<char,std::char_traits<char>,std::allocator<char> >
  00036	83 65 fc 00	 and	 DWORD PTR __$EHRec$[ebp+8], 0
; File C:\Program Files (x86)\Microsoft Visual Studio\2019\Community\VC\Tools\MSVC\14.28.29333\include\type_traits

; 1455 :     return static_cast<remove_reference_t<_Ty>&&>(_Arg);

  0003a	8d 45 d8	 lea	 eax, DWORD PTR $T4[ebp]
  0003d	89 45 d0	 mov	 DWORD PTR $T3[ebp], eax
; File C:\Program Files (x86)\Microsoft Visual Studio\2019\Community\VC\Tools\MSVC\14.28.29333\include\map

; 154  :         return _Try_emplace(_STD move(_Keyval)).first->_Myval.second;

  00040	ff 75 d0	 push	 DWORD PTR $T3[ebp]
  00043	8d 45 c8	 lea	 eax, DWORD PTR $T2[ebp]
  00046	50		 push	 eax
; File D:\Metin2 Server Files\mainline\SRC_2014\Metin2Client\UserInterface\PythonMessenger.cpp

; 76   : 	m_GuildMemberStateMap[c_szName] = 0;

  00047	8b 4d d4	 mov	 ecx, DWORD PTR _this$[ebp]
  0004a	83 c1 0c	 add	 ecx, 12			; 0000000cH
; File C:\Program Files (x86)\Microsoft Visual Studio\2019\Community\VC\Tools\MSVC\14.28.29333\include\map

; 154  :         return _Try_emplace(_STD move(_Keyval)).first->_Myval.second;

  0004d	e8 00 00 00 00	 call	 ??$_Try_emplace@V?$basic_string@DU?$char_traits@D@std@@V?$allocator@D@2@@std@@$$V@?$map@V?$basic_string@DU?$char_traits@D@std@@V?$allocator@D@2@@std@@EU?$less@V?$basic_string@DU?$char_traits@D@std@@V?$allocator@D@2@@std@@@2@V?$allocator@U?$pair@$$CBV?$basic_string@DU?$char_traits@D@std@@V?$allocator@D@2@@std@@E@std@@@2@@std@@AAE?AU?$pair@PAU?$_Tree_node@U?$pair@$$CBV?$basic_string@DU?$char_traits@D@std@@V?$allocator@D@2@@std@@E@std@@PAX@std@@_N@1@$$QAV?$basic_string@DU?$char_traits@D@std@@V?$allocator@D@2@@1@@Z ; std::map<std::basic_string<char,std::char_traits<char>,std::allocator<char> >,unsigned char,std::less<std::basic_string<char,std::char_traits<char>,std::allocator<char> > >,std::allocator<std::pair<std::basic_string<char,std::char_traits<char>,std::allocator<char> > const ,unsigned char> > >::_Try_emplace<std::basic_string<char,std::char_traits<char>,std::allocator<char> > >
; File D:\Metin2 Server Files\mainline\SRC_2014\Metin2Client\UserInterface\PythonMessenger.cpp

; 76   : 	m_GuildMemberStateMap[c_szName] = 0;

  00052	8b 00		 mov	 eax, DWORD PTR [eax]
  00054	c6 40 28 00	 mov	 BYTE PTR [eax+40], 0
  00058	83 4d fc ff	 or	 DWORD PTR __$EHRec$[ebp+8], -1
; File C:\Program Files (x86)\Microsoft Visual Studio\2019\Community\VC\Tools\MSVC\14.28.29333\include\xstring

; 2801 :         _Tidy_deallocate();

  0005c	8d 4d d8	 lea	 ecx, DWORD PTR $T4[ebp]
  0005f	e8 00 00 00 00	 call	 ?_Tidy_deallocate@?$basic_string@DU?$char_traits@D@std@@V?$allocator@D@2@@std@@AAEXXZ ; std::basic_string<char,std::char_traits<char>,std::allocator<char> >::_Tidy_deallocate
; File D:\Metin2 Server Files\mainline\SRC_2014\Metin2Client\UserInterface\PythonMessenger.cpp

; 77   : 	if (m_poMessengerHandler)

  00064	8b 45 d4	 mov	 eax, DWORD PTR _this$[ebp]
  00067	83 78 14 00	 cmp	 DWORD PTR [eax+20], 0
  0006b	74 27		 je	 SHORT $LN1@LogoutGuil

; 78   : 		PyCallClassMemberFunc(m_poMessengerHandler, "OnLogout", Py_BuildValue("(is)", MESSENGER_GRUOP_INDEX_GUILD, c_szName));

  0006d	ff 75 08	 push	 DWORD PTR _c_szName$[ebp]
  00070	6a 01		 push	 1
  00072	68 00 00 00 00	 push	 OFFSET ??_C@_04JMLDJNEM@?$CIis?$CJ@
  00077	ff 15 00 00 00
	00		 call	 DWORD PTR __imp__Py_BuildValue
  0007d	83 c4 0c	 add	 esp, 12			; 0000000cH
  00080	50		 push	 eax
  00081	68 00 00 00 00	 push	 OFFSET ??_C@_08PGILGNMN@OnLogout@
  00086	8b 45 d4	 mov	 eax, DWORD PTR _this$[ebp]
  00089	ff 70 14	 push	 DWORD PTR [eax+20]
  0008c	e8 00 00 00 00	 call	 ?PyCallClassMemberFunc@@YA_NPAU_object@@PBD0@Z ; PyCallClassMemberFunc
  00091	83 c4 0c	 add	 esp, 12			; 0000000cH
$LN1@LogoutGuil:

; 79   : }

  00094	8b 4d f4	 mov	 ecx, DWORD PTR __$EHRec$[ebp]
  00097	64 89 0d 00 00
	00 00		 mov	 DWORD PTR fs:0, ecx
  0009e	59		 pop	 ecx
  0009f	8b 4d f0	 mov	 ecx, DWORD PTR __$ArrayPad$[ebp]
  000a2	33 cd		 xor	 ecx, ebp
  000a4	e8 00 00 00 00	 call	 @__security_check_cookie@4
  000a9	c9		 leave
  000aa	c2 04 00	 ret	 4
_TEXT	ENDS
;	COMDAT text$x
text$x	SEGMENT
__unwindfunclet$?LogoutGuildMember@CPythonMessenger@@QAEXPBD@Z$0:
  00000	8d 4d d8	 lea	 ecx, DWORD PTR $T4[ebp]
  00003	e9 00 00 00 00	 jmp	 ??1?$basic_string@DU?$char_traits@D@std@@V?$allocator@D@2@@std@@QAE@XZ ; std::basic_string<char,std::char_traits<char>,std::allocator<char> >::~basic_string<char,std::char_traits<char>,std::allocator<char> >
  00008	cc		 int	 3
  00009	cc		 int	 3
  0000a	cc		 int	 3
  0000b	cc		 int	 3
  0000c	cc		 int	 3
__ehhandler$?LogoutGuildMember@CPythonMessenger@@QAEXPBD@Z:
  0000d	90		 npad	 1
  0000e	90		 npad	 1
  0000f	8b 54 24 08	 mov	 edx, DWORD PTR [esp+8]
  00013	8d 42 0c	 lea	 eax, DWORD PTR [edx+12]
  00016	8b 4a d0	 mov	 ecx, DWORD PTR [edx-48]
  00019	33 c8		 xor	 ecx, eax
  0001b	e8 00 00 00 00	 call	 @__security_check_cookie@4
  00020	8b 4a fc	 mov	 ecx, DWORD PTR [edx-4]
  00023	33 c8		 xor	 ecx, eax
  00025	e8 00 00 00 00	 call	 @__security_check_cookie@4
  0002a	b8 00 00 00 00	 mov	 eax, OFFSET __ehfuncinfo$?LogoutGuildMember@CPythonMessenger@@QAEXPBD@Z
  0002f	e9 00 00 00 00	 jmp	 ___CxxFrameHandler3
text$x	ENDS
?LogoutGuildMember@CPythonMessenger@@QAEXPBD@Z ENDP	; CPythonMessenger::LogoutGuildMember
; Function compile flags: /Odspy
; File D:\Metin2 Server Files\mainline\SRC_2014\Metin2Client\UserInterface\PythonMessenger.cpp
; File C:\Program Files (x86)\Microsoft Visual Studio\2019\Community\VC\Tools\MSVC\14.28.29333\include\type_traits
; File C:\Program Files (x86)\Microsoft Visual Studio\2019\Community\VC\Tools\MSVC\14.28.29333\include\map
; File D:\Metin2 Server Files\mainline\SRC_2014\Metin2Client\UserInterface\PythonMessenger.cpp
; File C:\Program Files (x86)\Microsoft Visual Studio\2019\Community\VC\Tools\MSVC\14.28.29333\include\map
; File D:\Metin2 Server Files\mainline\SRC_2014\Metin2Client\UserInterface\PythonMessenger.cpp
; File C:\Program Files (x86)\Microsoft Visual Studio\2019\Community\VC\Tools\MSVC\14.28.29333\include\xstring
; File D:\Metin2 Server Files\mainline\SRC_2014\Metin2Client\UserInterface\PythonMessenger.cpp
;	COMDAT ?LoginGuildMember@CPythonMessenger@@QAEXPBD@Z
_TEXT	SEGMENT
$T2 = -56						; size = 8
$T3 = -48						; size = 4
_this$ = -44						; size = 4
$T4 = -40						; size = 24
__$ArrayPad$ = -16					; size = 4
__$EHRec$ = -12						; size = 12
_c_szName$ = 8						; size = 4
?LoginGuildMember@CPythonMessenger@@QAEXPBD@Z PROC	; CPythonMessenger::LoginGuildMember, COMDAT
; _this$ = ecx

; 68   : {

  00000	55		 push	 ebp
  00001	8b ec		 mov	 ebp, esp
  00003	6a ff		 push	 -1
  00005	68 00 00 00 00	 push	 __ehhandler$?LoginGuildMember@CPythonMessenger@@QAEXPBD@Z
  0000a	64 a1 00 00 00
	00		 mov	 eax, DWORD PTR fs:0
  00010	50		 push	 eax
  00011	83 ec 2c	 sub	 esp, 44			; 0000002cH
  00014	a1 00 00 00 00	 mov	 eax, DWORD PTR ___security_cookie
  00019	33 c5		 xor	 eax, ebp
  0001b	89 45 f0	 mov	 DWORD PTR __$ArrayPad$[ebp], eax
  0001e	50		 push	 eax
  0001f	8d 45 f4	 lea	 eax, DWORD PTR __$EHRec$[ebp]
  00022	64 a3 00 00 00
	00		 mov	 DWORD PTR fs:0, eax
  00028	89 4d d4	 mov	 DWORD PTR _this$[ebp], ecx

; 69   : 	m_GuildMemberStateMap[c_szName] = 1;

  0002b	ff 75 08	 push	 DWORD PTR _c_szName$[ebp]
  0002e	8d 4d d8	 lea	 ecx, DWORD PTR $T4[ebp]
  00031	e8 00 00 00 00	 call	 ??0?$basic_string@DU?$char_traits@D@std@@V?$allocator@D@2@@std@@QAE@QBD@Z ; std::basic_string<char,std::char_traits<char>,std::allocator<char> >::basic_string<char,std::char_traits<char>,std::allocator<char> >
  00036	83 65 fc 00	 and	 DWORD PTR __$EHRec$[ebp+8], 0
; File C:\Program Files (x86)\Microsoft Visual Studio\2019\Community\VC\Tools\MSVC\14.28.29333\include\type_traits

; 1455 :     return static_cast<remove_reference_t<_Ty>&&>(_Arg);

  0003a	8d 45 d8	 lea	 eax, DWORD PTR $T4[ebp]
  0003d	89 45 d0	 mov	 DWORD PTR $T3[ebp], eax
; File C:\Program Files (x86)\Microsoft Visual Studio\2019\Community\VC\Tools\MSVC\14.28.29333\include\map

; 154  :         return _Try_emplace(_STD move(_Keyval)).first->_Myval.second;

  00040	ff 75 d0	 push	 DWORD PTR $T3[ebp]
  00043	8d 45 c8	 lea	 eax, DWORD PTR $T2[ebp]
  00046	50		 push	 eax
; File D:\Metin2 Server Files\mainline\SRC_2014\Metin2Client\UserInterface\PythonMessenger.cpp

; 69   : 	m_GuildMemberStateMap[c_szName] = 1;

  00047	8b 4d d4	 mov	 ecx, DWORD PTR _this$[ebp]
  0004a	83 c1 0c	 add	 ecx, 12			; 0000000cH
; File C:\Program Files (x86)\Microsoft Visual Studio\2019\Community\VC\Tools\MSVC\14.28.29333\include\map

; 154  :         return _Try_emplace(_STD move(_Keyval)).first->_Myval.second;

  0004d	e8 00 00 00 00	 call	 ??$_Try_emplace@V?$basic_string@DU?$char_traits@D@std@@V?$allocator@D@2@@std@@$$V@?$map@V?$basic_string@DU?$char_traits@D@std@@V?$allocator@D@2@@std@@EU?$less@V?$basic_string@DU?$char_traits@D@std@@V?$allocator@D@2@@std@@@2@V?$allocator@U?$pair@$$CBV?$basic_string@DU?$char_traits@D@std@@V?$allocator@D@2@@std@@E@std@@@2@@std@@AAE?AU?$pair@PAU?$_Tree_node@U?$pair@$$CBV?$basic_string@DU?$char_traits@D@std@@V?$allocator@D@2@@std@@E@std@@PAX@std@@_N@1@$$QAV?$basic_string@DU?$char_traits@D@std@@V?$allocator@D@2@@1@@Z ; std::map<std::basic_string<char,std::char_traits<char>,std::allocator<char> >,unsigned char,std::less<std::basic_string<char,std::char_traits<char>,std::allocator<char> > >,std::allocator<std::pair<std::basic_string<char,std::char_traits<char>,std::allocator<char> > const ,unsigned char> > >::_Try_emplace<std::basic_string<char,std::char_traits<char>,std::allocator<char> > >
; File D:\Metin2 Server Files\mainline\SRC_2014\Metin2Client\UserInterface\PythonMessenger.cpp

; 69   : 	m_GuildMemberStateMap[c_szName] = 1;

  00052	8b 00		 mov	 eax, DWORD PTR [eax]
  00054	c6 40 28 01	 mov	 BYTE PTR [eax+40], 1
  00058	83 4d fc ff	 or	 DWORD PTR __$EHRec$[ebp+8], -1
; File C:\Program Files (x86)\Microsoft Visual Studio\2019\Community\VC\Tools\MSVC\14.28.29333\include\xstring

; 2801 :         _Tidy_deallocate();

  0005c	8d 4d d8	 lea	 ecx, DWORD PTR $T4[ebp]
  0005f	e8 00 00 00 00	 call	 ?_Tidy_deallocate@?$basic_string@DU?$char_traits@D@std@@V?$allocator@D@2@@std@@AAEXXZ ; std::basic_string<char,std::char_traits<char>,std::allocator<char> >::_Tidy_deallocate
; File D:\Metin2 Server Files\mainline\SRC_2014\Metin2Client\UserInterface\PythonMessenger.cpp

; 70   : 	if (m_poMessengerHandler)

  00064	8b 45 d4	 mov	 eax, DWORD PTR _this$[ebp]
  00067	83 78 14 00	 cmp	 DWORD PTR [eax+20], 0
  0006b	74 27		 je	 SHORT $LN1@LoginGuild

; 71   : 		PyCallClassMemberFunc(m_poMessengerHandler, "OnLogin", Py_BuildValue("(is)", MESSENGER_GRUOP_INDEX_GUILD, c_szName));

  0006d	ff 75 08	 push	 DWORD PTR _c_szName$[ebp]
  00070	6a 01		 push	 1
  00072	68 00 00 00 00	 push	 OFFSET ??_C@_04JMLDJNEM@?$CIis?$CJ@
  00077	ff 15 00 00 00
	00		 call	 DWORD PTR __imp__Py_BuildValue
  0007d	83 c4 0c	 add	 esp, 12			; 0000000cH
  00080	50		 push	 eax
  00081	68 00 00 00 00	 push	 OFFSET ??_C@_07MIJIJENI@OnLogin@
  00086	8b 45 d4	 mov	 eax, DWORD PTR _this$[ebp]
  00089	ff 70 14	 push	 DWORD PTR [eax+20]
  0008c	e8 00 00 00 00	 call	 ?PyCallClassMemberFunc@@YA_NPAU_object@@PBD0@Z ; PyCallClassMemberFunc
  00091	83 c4 0c	 add	 esp, 12			; 0000000cH
$LN1@LoginGuild:

; 72   : }

  00094	8b 4d f4	 mov	 ecx, DWORD PTR __$EHRec$[ebp]
  00097	64 89 0d 00 00
	00 00		 mov	 DWORD PTR fs:0, ecx
  0009e	59		 pop	 ecx
  0009f	8b 4d f0	 mov	 ecx, DWORD PTR __$ArrayPad$[ebp]
  000a2	33 cd		 xor	 ecx, ebp
  000a4	e8 00 00 00 00	 call	 @__security_check_cookie@4
  000a9	c9		 leave
  000aa	c2 04 00	 ret	 4
_TEXT	ENDS
;	COMDAT text$x
text$x	SEGMENT
__unwindfunclet$?LoginGuildMember@CPythonMessenger@@QAEXPBD@Z$0:
  00000	8d 4d d8	 lea	 ecx, DWORD PTR $T4[ebp]
  00003	e9 00 00 00 00	 jmp	 ??1?$basic_string@DU?$char_traits@D@std@@V?$allocator@D@2@@std@@QAE@XZ ; std::basic_string<char,std::char_traits<char>,std::allocator<char> >::~basic_string<char,std::char_traits<char>,std::allocator<char> >
  00008	cc		 int	 3
  00009	cc		 int	 3
  0000a	cc		 int	 3
  0000b	cc		 int	 3
  0000c	cc		 int	 3
__ehhandler$?LoginGuildMember@CPythonMessenger@@QAEXPBD@Z:
  0000d	90		 npad	 1
  0000e	90		 npad	 1
  0000f	8b 54 24 08	 mov	 edx, DWORD PTR [esp+8]
  00013	8d 42 0c	 lea	 eax, DWORD PTR [edx+12]
  00016	8b 4a d0	 mov	 ecx, DWORD PTR [edx-48]
  00019	33 c8		 xor	 ecx, eax
  0001b	e8 00 00 00 00	 call	 @__security_check_cookie@4
  00020	8b 4a fc	 mov	 ecx, DWORD PTR [edx-4]
  00023	33 c8		 xor	 ecx, eax
  00025	e8 00 00 00 00	 call	 @__security_check_cookie@4
  0002a	b8 00 00 00 00	 mov	 eax, OFFSET __ehfuncinfo$?LoginGuildMember@CPythonMessenger@@QAEXPBD@Z
  0002f	e9 00 00 00 00	 jmp	 ___CxxFrameHandler3
text$x	ENDS
?LoginGuildMember@CPythonMessenger@@QAEXPBD@Z ENDP	; CPythonMessenger::LoginGuildMember
; Function compile flags: /Odspy
; File D:\Metin2 Server Files\mainline\SRC_2014\Metin2Client\UserInterface\PythonMessenger.cpp
;	COMDAT ?RemoveAllGuildMember@CPythonMessenger@@QAEXXZ
_TEXT	SEGMENT
_this$ = -4						; size = 4
?RemoveAllGuildMember@CPythonMessenger@@QAEXXZ PROC	; CPythonMessenger::RemoveAllGuildMember, COMDAT
; _this$ = ecx

; 60   : {

  00000	55		 push	 ebp
  00001	8b ec		 mov	 ebp, esp
  00003	51		 push	 ecx
  00004	89 4d fc	 mov	 DWORD PTR _this$[ebp], ecx

; 61   : 	m_GuildMemberStateMap.clear();

  00007	8b 4d fc	 mov	 ecx, DWORD PTR _this$[ebp]
  0000a	83 c1 0c	 add	 ecx, 12			; 0000000cH
  0000d	e8 00 00 00 00	 call	 ?clear@?$_Tree@V?$_Tmap_traits@V?$basic_string@DU?$char_traits@D@std@@V?$allocator@D@2@@std@@EU?$less@V?$basic_string@DU?$char_traits@D@std@@V?$allocator@D@2@@std@@@2@V?$allocator@U?$pair@$$CBV?$basic_string@DU?$char_traits@D@std@@V?$allocator@D@2@@std@@E@std@@@2@$0A@@std@@@std@@QAEXXZ ; std::_Tree<std::_Tmap_traits<std::basic_string<char,std::char_traits<char>,std::allocator<char> >,unsigned char,std::less<std::basic_string<char,std::char_traits<char>,std::allocator<char> > >,std::allocator<std::pair<std::basic_string<char,std::char_traits<char>,std::allocator<char> > const ,unsigned char> >,0> >::clear

; 62   : 
; 63   : 	if (m_poMessengerHandler)

  00012	8b 45 fc	 mov	 eax, DWORD PTR _this$[ebp]
  00015	83 78 14 00	 cmp	 DWORD PTR [eax+20], 0
  00019	74 23		 je	 SHORT $LN1@RemoveAllG

; 64   : 		PyCallClassMemberFunc(m_poMessengerHandler, "OnRemoveAllList", Py_BuildValue("(i)", MESSENGER_GRUOP_INDEX_GUILD));

  0001b	6a 01		 push	 1
  0001d	68 00 00 00 00	 push	 OFFSET ??_C@_03LIHNMIHG@?$CIi?$CJ@
  00022	ff 15 00 00 00
	00		 call	 DWORD PTR __imp__Py_BuildValue
  00028	59		 pop	 ecx
  00029	59		 pop	 ecx
  0002a	50		 push	 eax
  0002b	68 00 00 00 00	 push	 OFFSET ??_C@_0BA@EBIIGMFE@OnRemoveAllList@
  00030	8b 45 fc	 mov	 eax, DWORD PTR _this$[ebp]
  00033	ff 70 14	 push	 DWORD PTR [eax+20]
  00036	e8 00 00 00 00	 call	 ?PyCallClassMemberFunc@@YA_NPAU_object@@PBD0@Z ; PyCallClassMemberFunc
  0003b	83 c4 0c	 add	 esp, 12			; 0000000cH
$LN1@RemoveAllG:

; 65   : }

  0003e	c9		 leave
  0003f	c3		 ret	 0
?RemoveAllGuildMember@CPythonMessenger@@QAEXXZ ENDP	; CPythonMessenger::RemoveAllGuildMember
_TEXT	ENDS
; Function compile flags: /Odspy
; File D:\Metin2 Server Files\mainline\SRC_2014\Metin2Client\UserInterface\PythonMessenger.cpp
; File C:\Program Files (x86)\Microsoft Visual Studio\2019\Community\VC\Tools\MSVC\14.28.29333\include\xstring
; File D:\Metin2 Server Files\mainline\SRC_2014\Metin2Client\UserInterface\PythonMessenger.cpp
;	COMDAT ?RemoveGuildMember@CPythonMessenger@@QAEXPBD@Z
_TEXT	SEGMENT
_this$ = -44						; size = 4
$T2 = -40						; size = 24
__$ArrayPad$ = -16					; size = 4
__$EHRec$ = -12						; size = 12
_c_szName$ = 8						; size = 4
?RemoveGuildMember@CPythonMessenger@@QAEXPBD@Z PROC	; CPythonMessenger::RemoveGuildMember, COMDAT
; _this$ = ecx

; 52   : {

  00000	55		 push	 ebp
  00001	8b ec		 mov	 ebp, esp
  00003	6a ff		 push	 -1
  00005	68 00 00 00 00	 push	 __ehhandler$?RemoveGuildMember@CPythonMessenger@@QAEXPBD@Z
  0000a	64 a1 00 00 00
	00		 mov	 eax, DWORD PTR fs:0
  00010	50		 push	 eax
  00011	83 ec 20	 sub	 esp, 32			; 00000020H
  00014	a1 00 00 00 00	 mov	 eax, DWORD PTR ___security_cookie
  00019	33 c5		 xor	 eax, ebp
  0001b	89 45 f0	 mov	 DWORD PTR __$ArrayPad$[ebp], eax
  0001e	50		 push	 eax
  0001f	8d 45 f4	 lea	 eax, DWORD PTR __$EHRec$[ebp]
  00022	64 a3 00 00 00
	00		 mov	 DWORD PTR fs:0, eax
  00028	89 4d d4	 mov	 DWORD PTR _this$[ebp], ecx

; 53   : 	m_GuildMemberStateMap.erase(c_szName);

  0002b	ff 75 08	 push	 DWORD PTR _c_szName$[ebp]
  0002e	8d 4d d8	 lea	 ecx, DWORD PTR $T2[ebp]
  00031	e8 00 00 00 00	 call	 ??0?$basic_string@DU?$char_traits@D@std@@V?$allocator@D@2@@std@@QAE@QBD@Z ; std::basic_string<char,std::char_traits<char>,std::allocator<char> >::basic_string<char,std::char_traits<char>,std::allocator<char> >
  00036	83 65 fc 00	 and	 DWORD PTR __$EHRec$[ebp+8], 0
  0003a	8d 45 d8	 lea	 eax, DWORD PTR $T2[ebp]
  0003d	50		 push	 eax
  0003e	8b 4d d4	 mov	 ecx, DWORD PTR _this$[ebp]
  00041	83 c1 0c	 add	 ecx, 12			; 0000000cH
  00044	e8 00 00 00 00	 call	 ?erase@?$_Tree@V?$_Tmap_traits@V?$basic_string@DU?$char_traits@D@std@@V?$allocator@D@2@@std@@EU?$less@V?$basic_string@DU?$char_traits@D@std@@V?$allocator@D@2@@std@@@2@V?$allocator@U?$pair@$$CBV?$basic_string@DU?$char_traits@D@std@@V?$allocator@D@2@@std@@E@std@@@2@$0A@@std@@@std@@QAEIABV?$basic_string@DU?$char_traits@D@std@@V?$allocator@D@2@@2@@Z ; std::_Tree<std::_Tmap_traits<std::basic_string<char,std::char_traits<char>,std::allocator<char> >,unsigned char,std::less<std::basic_string<char,std::char_traits<char>,std::allocator<char> > >,std::allocator<std::pair<std::basic_string<char,std::char_traits<char>,std::allocator<char> > const ,unsigned char> >,0> >::erase
  00049	83 4d fc ff	 or	 DWORD PTR __$EHRec$[ebp+8], -1
; File C:\Program Files (x86)\Microsoft Visual Studio\2019\Community\VC\Tools\MSVC\14.28.29333\include\xstring

; 2801 :         _Tidy_deallocate();

  0004d	8d 4d d8	 lea	 ecx, DWORD PTR $T2[ebp]
  00050	e8 00 00 00 00	 call	 ?_Tidy_deallocate@?$basic_string@DU?$char_traits@D@std@@V?$allocator@D@2@@std@@AAEXXZ ; std::basic_string<char,std::char_traits<char>,std::allocator<char> >::_Tidy_deallocate
; File D:\Metin2 Server Files\mainline\SRC_2014\Metin2Client\UserInterface\PythonMessenger.cpp

; 55   : 	if (m_poMessengerHandler)

  00055	8b 45 d4	 mov	 eax, DWORD PTR _this$[ebp]
  00058	83 78 14 00	 cmp	 DWORD PTR [eax+20], 0
  0005c	74 27		 je	 SHORT $LN1@RemoveGuil

; 56   : 		PyCallClassMemberFunc(m_poMessengerHandler, "OnRemoveList", Py_BuildValue("(is)", MESSENGER_GRUOP_INDEX_GUILD, c_szName));

  0005e	ff 75 08	 push	 DWORD PTR _c_szName$[ebp]
  00061	6a 01		 push	 1
  00063	68 00 00 00 00	 push	 OFFSET ??_C@_04JMLDJNEM@?$CIis?$CJ@
  00068	ff 15 00 00 00
	00		 call	 DWORD PTR __imp__Py_BuildValue
  0006e	83 c4 0c	 add	 esp, 12			; 0000000cH
  00071	50		 push	 eax
  00072	68 00 00 00 00	 push	 OFFSET ??_C@_0N@JKGCBAC@OnRemoveList@
  00077	8b 45 d4	 mov	 eax, DWORD PTR _this$[ebp]
  0007a	ff 70 14	 push	 DWORD PTR [eax+20]
  0007d	e8 00 00 00 00	 call	 ?PyCallClassMemberFunc@@YA_NPAU_object@@PBD0@Z ; PyCallClassMemberFunc
  00082	83 c4 0c	 add	 esp, 12			; 0000000cH
$LN1@RemoveGuil:

; 57   : }

  00085	8b 4d f4	 mov	 ecx, DWORD PTR __$EHRec$[ebp]
  00088	64 89 0d 00 00
	00 00		 mov	 DWORD PTR fs:0, ecx
  0008f	59		 pop	 ecx
  00090	8b 4d f0	 mov	 ecx, DWORD PTR __$ArrayPad$[ebp]
  00093	33 cd		 xor	 ecx, ebp
  00095	e8 00 00 00 00	 call	 @__security_check_cookie@4
  0009a	c9		 leave
  0009b	c2 04 00	 ret	 4
_TEXT	ENDS
;	COMDAT text$x
text$x	SEGMENT
__unwindfunclet$?RemoveGuildMember@CPythonMessenger@@QAEXPBD@Z$0:
  00000	8d 4d d8	 lea	 ecx, DWORD PTR $T2[ebp]
  00003	e9 00 00 00 00	 jmp	 ??1?$basic_string@DU?$char_traits@D@std@@V?$allocator@D@2@@std@@QAE@XZ ; std::basic_string<char,std::char_traits<char>,std::allocator<char> >::~basic_string<char,std::char_traits<char>,std::allocator<char> >
  00008	cc		 int	 3
  00009	cc		 int	 3
  0000a	cc		 int	 3
  0000b	cc		 int	 3
  0000c	cc		 int	 3
__ehhandler$?RemoveGuildMember@CPythonMessenger@@QAEXPBD@Z:
  0000d	90		 npad	 1
  0000e	90		 npad	 1
  0000f	8b 54 24 08	 mov	 edx, DWORD PTR [esp+8]
  00013	8d 42 0c	 lea	 eax, DWORD PTR [edx+12]
  00016	8b 4a dc	 mov	 ecx, DWORD PTR [edx-36]
  00019	33 c8		 xor	 ecx, eax
  0001b	e8 00 00 00 00	 call	 @__security_check_cookie@4
  00020	8b 4a fc	 mov	 ecx, DWORD PTR [edx-4]
  00023	33 c8		 xor	 ecx, eax
  00025	e8 00 00 00 00	 call	 @__security_check_cookie@4
  0002a	b8 00 00 00 00	 mov	 eax, OFFSET __ehfuncinfo$?RemoveGuildMember@CPythonMessenger@@QAEXPBD@Z
  0002f	e9 00 00 00 00	 jmp	 ___CxxFrameHandler3
text$x	ENDS
?RemoveGuildMember@CPythonMessenger@@QAEXPBD@Z ENDP	; CPythonMessenger::RemoveGuildMember
; Function compile flags: /Odspy
; File D:\Metin2 Server Files\mainline\SRC_2014\Metin2Client\UserInterface\PythonMessenger.cpp
; File C:\Program Files (x86)\Microsoft Visual Studio\2019\Community\VC\Tools\MSVC\14.28.29333\include\xtree
; File C:\Program Files (x86)\Microsoft Visual Studio\2019\Community\VC\Tools\MSVC\14.28.29333\include\xstddef
; File C:\Program Files (x86)\Microsoft Visual Studio\2019\Community\VC\Tools\MSVC\14.28.29333\include\xtree
; File C:\Program Files (x86)\Microsoft Visual Studio\2019\Community\VC\Tools\MSVC\14.28.29333\include\xstddef
; File C:\Program Files (x86)\Microsoft Visual Studio\2019\Community\VC\Tools\MSVC\14.28.29333\include\xtree
; File D:\Metin2 Server Files\mainline\SRC_2014\Metin2Client\UserInterface\PythonMessenger.cpp
; File C:\Program Files (x86)\Microsoft Visual Studio\2019\Community\VC\Tools\MSVC\14.28.29333\include\xstring
; File D:\Metin2 Server Files\mainline\SRC_2014\Metin2Client\UserInterface\PythonMessenger.cpp
;	COMDAT ?AppendGuildMember@CPythonMessenger@@QAEXPBD@Z
_TEXT	SEGMENT
$T2 = -96						; size = 4
$T3 = -92						; size = 4
$T4 = -88						; size = 4
$T5 = -84						; size = 4
___param0$ = -80					; size = 4
__Scary$6 = -76						; size = 4
$T7 = -72						; size = 4
___param0$ = -68					; size = 4
$T8 = -64						; size = 4
tv178 = -60						; size = 4
tv220 = -56						; size = 4
_this$ = -52						; size = 4
_this$ = -48						; size = 4
$T9 = -42						; size = 1
$T10 = -41						; size = 1
$T11 = -40						; size = 24
__$ArrayPad$ = -16					; size = 4
__$EHRec$ = -12						; size = 12
_c_szName$ = 8						; size = 4
?AppendGuildMember@CPythonMessenger@@QAEXPBD@Z PROC	; CPythonMessenger::AppendGuildMember, COMDAT
; _this$ = ecx

; 44   : {

  00000	55		 push	 ebp
  00001	8b ec		 mov	 ebp, esp
  00003	6a ff		 push	 -1
  00005	68 00 00 00 00	 push	 __ehhandler$?AppendGuildMember@CPythonMessenger@@QAEXPBD@Z
  0000a	64 a1 00 00 00
	00		 mov	 eax, DWORD PTR fs:0
  00010	50		 push	 eax
  00011	83 ec 54	 sub	 esp, 84			; 00000054H
  00014	a1 00 00 00 00	 mov	 eax, DWORD PTR ___security_cookie
  00019	33 c5		 xor	 eax, ebp
  0001b	89 45 f0	 mov	 DWORD PTR __$ArrayPad$[ebp], eax
  0001e	50		 push	 eax
  0001f	8d 45 f4	 lea	 eax, DWORD PTR __$EHRec$[ebp]
  00022	64 a3 00 00 00
	00		 mov	 DWORD PTR fs:0, eax
  00028	89 4d d0	 mov	 DWORD PTR _this$[ebp], ecx

; 45   : 	if (m_GuildMemberStateMap.end() != m_GuildMemberStateMap.find(c_szName))

  0002b	ff 75 08	 push	 DWORD PTR _c_szName$[ebp]
  0002e	8d 4d d8	 lea	 ecx, DWORD PTR $T11[ebp]
  00031	e8 00 00 00 00	 call	 ??0?$basic_string@DU?$char_traits@D@std@@V?$allocator@D@2@@std@@QAE@QBD@Z ; std::basic_string<char,std::char_traits<char>,std::allocator<char> >::basic_string<char,std::char_traits<char>,std::allocator<char> >
  00036	83 65 fc 00	 and	 DWORD PTR __$EHRec$[ebp+8], 0
  0003a	8b 45 d0	 mov	 eax, DWORD PTR _this$[ebp]
  0003d	83 c0 0c	 add	 eax, 12			; 0000000cH
  00040	89 45 cc	 mov	 DWORD PTR _this$[ebp], eax
; File C:\Program Files (x86)\Microsoft Visual Studio\2019\Community\VC\Tools\MSVC\14.28.29333\include\xtree

; 2047 :         return _STD addressof(_Mypair._Myval2._Myval2);

  00043	8b 45 cc	 mov	 eax, DWORD PTR _this$[ebp]
; File C:\Program Files (x86)\Microsoft Visual Studio\2019\Community\VC\Tools\MSVC\14.28.29333\include\xstddef

; 275  :     return __builtin_addressof(_Val);

  00046	89 45 c0	 mov	 DWORD PTR $T8[ebp], eax
; File C:\Program Files (x86)\Microsoft Visual Studio\2019\Community\VC\Tools\MSVC\14.28.29333\include\xtree

; 2047 :         return _STD addressof(_Mypair._Myval2._Myval2);

  00049	8b 45 c0	 mov	 eax, DWORD PTR $T8[ebp]
  0004c	89 45 a0	 mov	 DWORD PTR $T2[ebp], eax

; 1468 :         return iterator(_Find(_Keyval), _Get_scary());

  0004f	8d 45 d8	 lea	 eax, DWORD PTR $T11[ebp]
  00052	50		 push	 eax
  00053	8b 4d cc	 mov	 ecx, DWORD PTR _this$[ebp]
  00056	e8 00 00 00 00	 call	 ??$_Find@V?$basic_string@DU?$char_traits@D@std@@V?$allocator@D@2@@std@@@?$_Tree@V?$_Tmap_traits@V?$basic_string@DU?$char_traits@D@std@@V?$allocator@D@2@@std@@EU?$less@V?$basic_string@DU?$char_traits@D@std@@V?$allocator@D@2@@std@@@2@V?$allocator@U?$pair@$$CBV?$basic_string@DU?$char_traits@D@std@@V?$allocator@D@2@@std@@E@std@@@2@$0A@@std@@@std@@ABEPAU?$_Tree_node@U?$pair@$$CBV?$basic_string@DU?$char_traits@D@std@@V?$allocator@D@2@@std@@E@std@@PAX@1@ABV?$basic_string@DU?$char_traits@D@std@@V?$allocator@D@2@@1@@Z ; std::_Tree<std::_Tmap_traits<std::basic_string<char,std::char_traits<char>,std::allocator<char> >,unsigned char,std::less<std::basic_string<char,std::char_traits<char>,std::allocator<char> > >,std::allocator<std::pair<std::basic_string<char,std::char_traits<char>,std::allocator<char> > const ,unsigned char> >,0> >::_Find<std::basic_string<char,std::char_traits<char>,std::allocator<char> > >
  0005b	89 45 bc	 mov	 DWORD PTR ___param0$[ebp], eax

; 39   :     _Tree_unchecked_const_iterator(_Nodeptr _Pnode, const _Mytree* _Plist) noexcept : _Ptr(_Pnode) {

  0005e	8b 45 bc	 mov	 eax, DWORD PTR ___param0$[ebp]
  00061	89 45 a4	 mov	 DWORD PTR $T3[ebp], eax

; 2047 :         return _STD addressof(_Mypair._Myval2._Myval2);

  00064	8b 45 d0	 mov	 eax, DWORD PTR _this$[ebp]
  00067	83 c0 0c	 add	 eax, 12			; 0000000cH
; File C:\Program Files (x86)\Microsoft Visual Studio\2019\Community\VC\Tools\MSVC\14.28.29333\include\xstddef

; 275  :     return __builtin_addressof(_Val);

  0006a	89 45 b8	 mov	 DWORD PTR $T7[ebp], eax
; File C:\Program Files (x86)\Microsoft Visual Studio\2019\Community\VC\Tools\MSVC\14.28.29333\include\xtree

; 2047 :         return _STD addressof(_Mypair._Myval2._Myval2);

  0006d	8b 45 b8	 mov	 eax, DWORD PTR $T7[ebp]
  00070	89 45 b4	 mov	 DWORD PTR __Scary$6[ebp], eax

; 1250 :         return iterator(_Scary->_Myhead, _Scary);

  00073	8b 45 b4	 mov	 eax, DWORD PTR __Scary$6[ebp]
  00076	8b 00		 mov	 eax, DWORD PTR [eax]
  00078	89 45 b0	 mov	 DWORD PTR ___param0$[ebp], eax

; 39   :     _Tree_unchecked_const_iterator(_Nodeptr _Pnode, const _Mytree* _Plist) noexcept : _Ptr(_Pnode) {

  0007b	8b 45 b0	 mov	 eax, DWORD PTR ___param0$[ebp]
  0007e	89 45 ac	 mov	 DWORD PTR $T5[ebp], eax

; 1250 :         return iterator(_Scary->_Myhead, _Scary);

  00081	8d 45 ac	 lea	 eax, DWORD PTR $T5[ebp]
  00084	89 45 a8	 mov	 DWORD PTR $T4[ebp], eax

; 232  :         return this->_Ptr == _Right._Ptr;

  00087	8b 45 a8	 mov	 eax, DWORD PTR $T4[ebp]
  0008a	8b 00		 mov	 eax, DWORD PTR [eax]
  0008c	3b 45 a4	 cmp	 eax, DWORD PTR $T3[ebp]
  0008f	75 09		 jne	 SHORT $LN105@AppendGuil
  00091	c7 45 c8 01 00
	00 00		 mov	 DWORD PTR tv220[ebp], 1
  00098	eb 04		 jmp	 SHORT $LN106@AppendGuil
$LN105@AppendGuil:
  0009a	83 65 c8 00	 and	 DWORD PTR tv220[ebp], 0
$LN106@AppendGuil:
  0009e	8a 45 c8	 mov	 al, BYTE PTR tv220[ebp]
  000a1	88 45 d7	 mov	 BYTE PTR $T10[ebp], al

; 236  :         return !(*this == _Right);

  000a4	0f b6 45 d7	 movzx	 eax, BYTE PTR $T10[ebp]
  000a8	85 c0		 test	 eax, eax
  000aa	75 09		 jne	 SHORT $LN100@AppendGuil
  000ac	c7 45 c4 01 00
	00 00		 mov	 DWORD PTR tv178[ebp], 1
  000b3	eb 04		 jmp	 SHORT $LN101@AppendGuil
$LN100@AppendGuil:
  000b5	83 65 c4 00	 and	 DWORD PTR tv178[ebp], 0
$LN101@AppendGuil:
  000b9	8a 45 c4	 mov	 al, BYTE PTR tv178[ebp]
  000bc	88 45 d6	 mov	 BYTE PTR $T9[ebp], al
; File D:\Metin2 Server Files\mainline\SRC_2014\Metin2Client\UserInterface\PythonMessenger.cpp

; 45   : 	if (m_GuildMemberStateMap.end() != m_GuildMemberStateMap.find(c_szName))

  000bf	83 4d fc ff	 or	 DWORD PTR __$EHRec$[ebp+8], -1
; File C:\Program Files (x86)\Microsoft Visual Studio\2019\Community\VC\Tools\MSVC\14.28.29333\include\xstring

; 2801 :         _Tidy_deallocate();

  000c3	8d 4d d8	 lea	 ecx, DWORD PTR $T11[ebp]
  000c6	e8 00 00 00 00	 call	 ?_Tidy_deallocate@?$basic_string@DU?$char_traits@D@std@@V?$allocator@D@2@@std@@AAEXXZ ; std::basic_string<char,std::char_traits<char>,std::allocator<char> >::_Tidy_deallocate
; File D:\Metin2 Server Files\mainline\SRC_2014\Metin2Client\UserInterface\PythonMessenger.cpp

; 45   : 	if (m_GuildMemberStateMap.end() != m_GuildMemberStateMap.find(c_szName))

  000cb	0f b6 45 d6	 movzx	 eax, BYTE PTR $T9[ebp]
  000cf	85 c0		 test	 eax, eax
  000d1	74 02		 je	 SHORT $LN2@AppendGuil

; 46   : 		return;

  000d3	eb 0b		 jmp	 SHORT $LN1@AppendGuil
$LN2@AppendGuil:

; 47   : 
; 48   : 	LogoutGuildMember(c_szName);

  000d5	ff 75 08	 push	 DWORD PTR _c_szName$[ebp]
  000d8	8b 4d d0	 mov	 ecx, DWORD PTR _this$[ebp]
  000db	e8 00 00 00 00	 call	 ?LogoutGuildMember@CPythonMessenger@@QAEXPBD@Z ; CPythonMessenger::LogoutGuildMember
$LN1@AppendGuil:

; 49   : }

  000e0	8b 4d f4	 mov	 ecx, DWORD PTR __$EHRec$[ebp]
  000e3	64 89 0d 00 00
	00 00		 mov	 DWORD PTR fs:0, ecx
  000ea	59		 pop	 ecx
  000eb	8b 4d f0	 mov	 ecx, DWORD PTR __$ArrayPad$[ebp]
  000ee	33 cd		 xor	 ecx, ebp
  000f0	e8 00 00 00 00	 call	 @__security_check_cookie@4
  000f5	c9		 leave
  000f6	c2 04 00	 ret	 4
_TEXT	ENDS
;	COMDAT text$x
text$x	SEGMENT
__unwindfunclet$?AppendGuildMember@CPythonMessenger@@QAEXPBD@Z$0:
  00000	8d 4d d8	 lea	 ecx, DWORD PTR $T11[ebp]
  00003	e9 00 00 00 00	 jmp	 ??1?$basic_string@DU?$char_traits@D@std@@V?$allocator@D@2@@std@@QAE@XZ ; std::basic_string<char,std::char_traits<char>,std::allocator<char> >::~basic_string<char,std::char_traits<char>,std::allocator<char> >
  00008	cc		 int	 3
  00009	cc		 int	 3
  0000a	cc		 int	 3
  0000b	cc		 int	 3
  0000c	cc		 int	 3
__ehhandler$?AppendGuildMember@CPythonMessenger@@QAEXPBD@Z:
  0000d	90		 npad	 1
  0000e	90		 npad	 1
  0000f	8b 54 24 08	 mov	 edx, DWORD PTR [esp+8]
  00013	8d 42 0c	 lea	 eax, DWORD PTR [edx+12]
  00016	8b 4a a8	 mov	 ecx, DWORD PTR [edx-88]
  00019	33 c8		 xor	 ecx, eax
  0001b	e8 00 00 00 00	 call	 @__security_check_cookie@4
  00020	8b 4a fc	 mov	 ecx, DWORD PTR [edx-4]
  00023	33 c8		 xor	 ecx, eax
  00025	e8 00 00 00 00	 call	 @__security_check_cookie@4
  0002a	b8 00 00 00 00	 mov	 eax, OFFSET __ehfuncinfo$?AppendGuildMember@CPythonMessenger@@QAEXPBD@Z
  0002f	e9 00 00 00 00	 jmp	 ___CxxFrameHandler3
text$x	ENDS
?AppendGuildMember@CPythonMessenger@@QAEXPBD@Z ENDP	; CPythonMessenger::AppendGuildMember
; Function compile flags: /Odspy
; File D:\Metin2 Server Files\mainline\SRC_2014\Metin2Client\UserInterface\PythonMessenger.cpp
;	COMDAT ?IsFriendByName@CPythonMessenger@@QAEHPBD@Z
_TEXT	SEGMENT
_this$ = -4						; size = 4
_c_szName$ = 8						; size = 4
?IsFriendByName@CPythonMessenger@@QAEHPBD@Z PROC	; CPythonMessenger::IsFriendByName, COMDAT
; _this$ = ecx

; 39   : {

  00000	55		 push	 ebp
  00001	8b ec		 mov	 ebp, esp
  00003	51		 push	 ecx
  00004	89 4d fc	 mov	 DWORD PTR _this$[ebp], ecx

; 40   : 	return IsFriendByKey(c_szName);

  00007	ff 75 08	 push	 DWORD PTR _c_szName$[ebp]
  0000a	8b 4d fc	 mov	 ecx, DWORD PTR _this$[ebp]
  0000d	e8 00 00 00 00	 call	 ?IsFriendByKey@CPythonMessenger@@QAEHPBD@Z ; CPythonMessenger::IsFriendByKey

; 41   : }

  00012	c9		 leave
  00013	c2 04 00	 ret	 4
?IsFriendByName@CPythonMessenger@@QAEHPBD@Z ENDP	; CPythonMessenger::IsFriendByName
_TEXT	ENDS
; Function compile flags: /Odspy
; File D:\Metin2 Server Files\mainline\SRC_2014\Metin2Client\UserInterface\PythonMessenger.cpp
; File C:\Program Files (x86)\Microsoft Visual Studio\2019\Community\VC\Tools\MSVC\14.28.29333\include\xtree
; File C:\Program Files (x86)\Microsoft Visual Studio\2019\Community\VC\Tools\MSVC\14.28.29333\include\xstddef
; File C:\Program Files (x86)\Microsoft Visual Studio\2019\Community\VC\Tools\MSVC\14.28.29333\include\xtree
; File C:\Program Files (x86)\Microsoft Visual Studio\2019\Community\VC\Tools\MSVC\14.28.29333\include\xstddef
; File C:\Program Files (x86)\Microsoft Visual Studio\2019\Community\VC\Tools\MSVC\14.28.29333\include\xtree
; File D:\Metin2 Server Files\mainline\SRC_2014\Metin2Client\UserInterface\PythonMessenger.cpp
; File C:\Program Files (x86)\Microsoft Visual Studio\2019\Community\VC\Tools\MSVC\14.28.29333\include\xstring
; File D:\Metin2 Server Files\mainline\SRC_2014\Metin2Client\UserInterface\PythonMessenger.cpp
;	COMDAT ?IsFriendByKey@CPythonMessenger@@QAEHPBD@Z
_TEXT	SEGMENT
$T2 = -100						; size = 4
$T3 = -96						; size = 4
$T4 = -92						; size = 4
$T5 = -88						; size = 4
$T6 = -84						; size = 4
___param0$ = -80					; size = 4
__Scary$7 = -76						; size = 4
$T8 = -72						; size = 4
___param0$ = -68					; size = 4
$T9 = -64						; size = 4
tv159 = -60						; size = 4
tv202 = -56						; size = 4
_this$ = -52						; size = 4
_this$ = -48						; size = 4
$T10 = -42						; size = 1
$T11 = -41						; size = 1
$T12 = -40						; size = 24
__$ArrayPad$ = -16					; size = 4
__$EHRec$ = -12						; size = 12
_c_szKey$ = 8						; size = 4
?IsFriendByKey@CPythonMessenger@@QAEHPBD@Z PROC		; CPythonMessenger::IsFriendByKey, COMDAT
; _this$ = ecx

; 34   : {

  00000	55		 push	 ebp
  00001	8b ec		 mov	 ebp, esp
  00003	6a ff		 push	 -1
  00005	68 00 00 00 00	 push	 __ehhandler$?IsFriendByKey@CPythonMessenger@@QAEHPBD@Z
  0000a	64 a1 00 00 00
	00		 mov	 eax, DWORD PTR fs:0
  00010	50		 push	 eax
  00011	83 ec 58	 sub	 esp, 88			; 00000058H
  00014	a1 00 00 00 00	 mov	 eax, DWORD PTR ___security_cookie
  00019	33 c5		 xor	 eax, ebp
  0001b	89 45 f0	 mov	 DWORD PTR __$ArrayPad$[ebp], eax
  0001e	50		 push	 eax
  0001f	8d 45 f4	 lea	 eax, DWORD PTR __$EHRec$[ebp]
  00022	64 a3 00 00 00
	00		 mov	 DWORD PTR fs:0, eax
  00028	89 4d cc	 mov	 DWORD PTR _this$[ebp], ecx

; 35   : 	return m_FriendNameMap.end() != m_FriendNameMap.find(c_szKey);

  0002b	ff 75 08	 push	 DWORD PTR _c_szKey$[ebp]
  0002e	8d 4d d8	 lea	 ecx, DWORD PTR $T12[ebp]
  00031	e8 00 00 00 00	 call	 ??0?$basic_string@DU?$char_traits@D@std@@V?$allocator@D@2@@std@@QAE@QBD@Z ; std::basic_string<char,std::char_traits<char>,std::allocator<char> >::basic_string<char,std::char_traits<char>,std::allocator<char> >
  00036	83 65 fc 00	 and	 DWORD PTR __$EHRec$[ebp+8], 0
  0003a	8b 45 cc	 mov	 eax, DWORD PTR _this$[ebp]
  0003d	83 c0 04	 add	 eax, 4
  00040	89 45 d0	 mov	 DWORD PTR _this$[ebp], eax
; File C:\Program Files (x86)\Microsoft Visual Studio\2019\Community\VC\Tools\MSVC\14.28.29333\include\xtree

; 2047 :         return _STD addressof(_Mypair._Myval2._Myval2);

  00043	8b 45 d0	 mov	 eax, DWORD PTR _this$[ebp]
; File C:\Program Files (x86)\Microsoft Visual Studio\2019\Community\VC\Tools\MSVC\14.28.29333\include\xstddef

; 275  :     return __builtin_addressof(_Val);

  00046	89 45 c0	 mov	 DWORD PTR $T9[ebp], eax
; File C:\Program Files (x86)\Microsoft Visual Studio\2019\Community\VC\Tools\MSVC\14.28.29333\include\xtree

; 2047 :         return _STD addressof(_Mypair._Myval2._Myval2);

  00049	8b 45 c0	 mov	 eax, DWORD PTR $T9[ebp]
  0004c	89 45 9c	 mov	 DWORD PTR $T2[ebp], eax

; 1468 :         return iterator(_Find(_Keyval), _Get_scary());

  0004f	8d 45 d8	 lea	 eax, DWORD PTR $T12[ebp]
  00052	50		 push	 eax
  00053	8b 4d d0	 mov	 ecx, DWORD PTR _this$[ebp]
  00056	e8 00 00 00 00	 call	 ??$_Find@V?$basic_string@DU?$char_traits@D@std@@V?$allocator@D@2@@std@@@?$_Tree@V?$_Tset_traits@V?$basic_string@DU?$char_traits@D@std@@V?$allocator@D@2@@std@@U?$less@V?$basic_string@DU?$char_traits@D@std@@V?$allocator@D@2@@std@@@2@V?$allocator@V?$basic_string@DU?$char_traits@D@std@@V?$allocator@D@2@@std@@@2@$0A@@std@@@std@@ABEPAU?$_Tree_node@V?$basic_string@DU?$char_traits@D@std@@V?$allocator@D@2@@std@@PAX@1@ABV?$basic_string@DU?$char_traits@D@std@@V?$allocator@D@2@@1@@Z ; std::_Tree<std::_Tset_traits<std::basic_string<char,std::char_traits<char>,std::allocator<char> >,std::less<std::basic_string<char,std::char_traits<char>,std::allocator<char> > >,std::allocator<std::basic_string<char,std::char_traits<char>,std::allocator<char> > >,0> >::_Find<std::basic_string<char,std::char_traits<char>,std::allocator<char> > >
  0005b	89 45 bc	 mov	 DWORD PTR ___param0$[ebp], eax

; 39   :     _Tree_unchecked_const_iterator(_Nodeptr _Pnode, const _Mytree* _Plist) noexcept : _Ptr(_Pnode) {

  0005e	8b 45 bc	 mov	 eax, DWORD PTR ___param0$[ebp]
  00061	89 45 a4	 mov	 DWORD PTR $T4[ebp], eax

; 2047 :         return _STD addressof(_Mypair._Myval2._Myval2);

  00064	8b 45 cc	 mov	 eax, DWORD PTR _this$[ebp]
  00067	83 c0 04	 add	 eax, 4
; File C:\Program Files (x86)\Microsoft Visual Studio\2019\Community\VC\Tools\MSVC\14.28.29333\include\xstddef

; 275  :     return __builtin_addressof(_Val);

  0006a	89 45 b8	 mov	 DWORD PTR $T8[ebp], eax
; File C:\Program Files (x86)\Microsoft Visual Studio\2019\Community\VC\Tools\MSVC\14.28.29333\include\xtree

; 2047 :         return _STD addressof(_Mypair._Myval2._Myval2);

  0006d	8b 45 b8	 mov	 eax, DWORD PTR $T8[ebp]
  00070	89 45 b4	 mov	 DWORD PTR __Scary$7[ebp], eax

; 1250 :         return iterator(_Scary->_Myhead, _Scary);

  00073	8b 45 b4	 mov	 eax, DWORD PTR __Scary$7[ebp]
  00076	8b 00		 mov	 eax, DWORD PTR [eax]
  00078	89 45 b0	 mov	 DWORD PTR ___param0$[ebp], eax

; 39   :     _Tree_unchecked_const_iterator(_Nodeptr _Pnode, const _Mytree* _Plist) noexcept : _Ptr(_Pnode) {

  0007b	8b 45 b0	 mov	 eax, DWORD PTR ___param0$[ebp]
  0007e	89 45 ac	 mov	 DWORD PTR $T6[ebp], eax

; 1250 :         return iterator(_Scary->_Myhead, _Scary);

  00081	8d 45 ac	 lea	 eax, DWORD PTR $T6[ebp]
  00084	89 45 a8	 mov	 DWORD PTR $T5[ebp], eax

; 232  :         return this->_Ptr == _Right._Ptr;

  00087	8b 45 a8	 mov	 eax, DWORD PTR $T5[ebp]
  0008a	8b 00		 mov	 eax, DWORD PTR [eax]
  0008c	3b 45 a4	 cmp	 eax, DWORD PTR $T4[ebp]
  0008f	75 09		 jne	 SHORT $LN98@IsFriendBy
  00091	c7 45 c8 01 00
	00 00		 mov	 DWORD PTR tv202[ebp], 1
  00098	eb 04		 jmp	 SHORT $LN99@IsFriendBy
$LN98@IsFriendBy:
  0009a	83 65 c8 00	 and	 DWORD PTR tv202[ebp], 0
$LN99@IsFriendBy:
  0009e	8a 45 c8	 mov	 al, BYTE PTR tv202[ebp]
  000a1	88 45 d7	 mov	 BYTE PTR $T11[ebp], al

; 236  :         return !(*this == _Right);

  000a4	0f b6 45 d7	 movzx	 eax, BYTE PTR $T11[ebp]
  000a8	85 c0		 test	 eax, eax
  000aa	75 09		 jne	 SHORT $LN93@IsFriendBy
  000ac	c7 45 c4 01 00
	00 00		 mov	 DWORD PTR tv159[ebp], 1
  000b3	eb 04		 jmp	 SHORT $LN94@IsFriendBy
$LN93@IsFriendBy:
  000b5	83 65 c4 00	 and	 DWORD PTR tv159[ebp], 0
$LN94@IsFriendBy:
  000b9	8a 45 c4	 mov	 al, BYTE PTR tv159[ebp]
  000bc	88 45 d6	 mov	 BYTE PTR $T10[ebp], al
; File D:\Metin2 Server Files\mainline\SRC_2014\Metin2Client\UserInterface\PythonMessenger.cpp

; 35   : 	return m_FriendNameMap.end() != m_FriendNameMap.find(c_szKey);

  000bf	0f b6 45 d6	 movzx	 eax, BYTE PTR $T10[ebp]
  000c3	89 45 a0	 mov	 DWORD PTR $T3[ebp], eax
  000c6	83 4d fc ff	 or	 DWORD PTR __$EHRec$[ebp+8], -1
; File C:\Program Files (x86)\Microsoft Visual Studio\2019\Community\VC\Tools\MSVC\14.28.29333\include\xstring

; 2801 :         _Tidy_deallocate();

  000ca	8d 4d d8	 lea	 ecx, DWORD PTR $T12[ebp]
  000cd	e8 00 00 00 00	 call	 ?_Tidy_deallocate@?$basic_string@DU?$char_traits@D@std@@V?$allocator@D@2@@std@@AAEXXZ ; std::basic_string<char,std::char_traits<char>,std::allocator<char> >::_Tidy_deallocate
; File D:\Metin2 Server Files\mainline\SRC_2014\Metin2Client\UserInterface\PythonMessenger.cpp

; 35   : 	return m_FriendNameMap.end() != m_FriendNameMap.find(c_szKey);

  000d2	8b 45 a0	 mov	 eax, DWORD PTR $T3[ebp]

; 36   : }

  000d5	8b 4d f4	 mov	 ecx, DWORD PTR __$EHRec$[ebp]
  000d8	64 89 0d 00 00
	00 00		 mov	 DWORD PTR fs:0, ecx
  000df	59		 pop	 ecx
  000e0	8b 4d f0	 mov	 ecx, DWORD PTR __$ArrayPad$[ebp]
  000e3	33 cd		 xor	 ecx, ebp
  000e5	e8 00 00 00 00	 call	 @__security_check_cookie@4
  000ea	c9		 leave
  000eb	c2 04 00	 ret	 4
_TEXT	ENDS
;	COMDAT text$x
text$x	SEGMENT
__unwindfunclet$?IsFriendByKey@CPythonMessenger@@QAEHPBD@Z$0:
  00000	8d 4d d8	 lea	 ecx, DWORD PTR $T12[ebp]
  00003	e9 00 00 00 00	 jmp	 ??1?$basic_string@DU?$char_traits@D@std@@V?$allocator@D@2@@std@@QAE@XZ ; std::basic_string<char,std::char_traits<char>,std::allocator<char> >::~basic_string<char,std::char_traits<char>,std::allocator<char> >
  00008	cc		 int	 3
  00009	cc		 int	 3
  0000a	cc		 int	 3
  0000b	cc		 int	 3
  0000c	cc		 int	 3
__ehhandler$?IsFriendByKey@CPythonMessenger@@QAEHPBD@Z:
  0000d	90		 npad	 1
  0000e	90		 npad	 1
  0000f	8b 54 24 08	 mov	 edx, DWORD PTR [esp+8]
  00013	8d 42 0c	 lea	 eax, DWORD PTR [edx+12]
  00016	8b 4a a4	 mov	 ecx, DWORD PTR [edx-92]
  00019	33 c8		 xor	 ecx, eax
  0001b	e8 00 00 00 00	 call	 @__security_check_cookie@4
  00020	8b 4a fc	 mov	 ecx, DWORD PTR [edx-4]
  00023	33 c8		 xor	 ecx, eax
  00025	e8 00 00 00 00	 call	 @__security_check_cookie@4
  0002a	b8 00 00 00 00	 mov	 eax, OFFSET __ehfuncinfo$?IsFriendByKey@CPythonMessenger@@QAEHPBD@Z
  0002f	e9 00 00 00 00	 jmp	 ___CxxFrameHandler3
text$x	ENDS
?IsFriendByKey@CPythonMessenger@@QAEHPBD@Z ENDP		; CPythonMessenger::IsFriendByKey
; Function compile flags: /Odspy
; File D:\Metin2 Server Files\mainline\SRC_2014\Metin2Client\UserInterface\PythonMessenger.cpp
; File C:\Program Files (x86)\Microsoft Visual Studio\2019\Community\VC\Tools\MSVC\14.28.29333\include\xstring
; File D:\Metin2 Server Files\mainline\SRC_2014\Metin2Client\UserInterface\PythonMessenger.cpp
;	COMDAT ?SetMobile@CPythonMessenger@@QAEXPBDE@Z
_TEXT	SEGMENT
$T2 = -52						; size = 8
_this$ = -44						; size = 4
$T3 = -40						; size = 24
__$ArrayPad$ = -16					; size = 4
__$EHRec$ = -12						; size = 12
_c_szKey$ = 8						; size = 4
_byState$ = 12						; size = 1
?SetMobile@CPythonMessenger@@QAEXPBDE@Z PROC		; CPythonMessenger::SetMobile, COMDAT
; _this$ = ecx

; 26   : {

  00000	55		 push	 ebp
  00001	8b ec		 mov	 ebp, esp
  00003	6a ff		 push	 -1
  00005	68 00 00 00 00	 push	 __ehhandler$?SetMobile@CPythonMessenger@@QAEXPBDE@Z
  0000a	64 a1 00 00 00
	00		 mov	 eax, DWORD PTR fs:0
  00010	50		 push	 eax
  00011	83 ec 28	 sub	 esp, 40			; 00000028H
  00014	a1 00 00 00 00	 mov	 eax, DWORD PTR ___security_cookie
  00019	33 c5		 xor	 eax, ebp
  0001b	89 45 f0	 mov	 DWORD PTR __$ArrayPad$[ebp], eax
  0001e	50		 push	 eax
  0001f	8d 45 f4	 lea	 eax, DWORD PTR __$EHRec$[ebp]
  00022	64 a3 00 00 00
	00		 mov	 DWORD PTR fs:0, eax
  00028	89 4d d4	 mov	 DWORD PTR _this$[ebp], ecx

; 27   : 	m_FriendNameMap.insert(c_szKey);

  0002b	ff 75 08	 push	 DWORD PTR _c_szKey$[ebp]
  0002e	8d 4d d8	 lea	 ecx, DWORD PTR $T3[ebp]
  00031	e8 00 00 00 00	 call	 ??0?$basic_string@DU?$char_traits@D@std@@V?$allocator@D@2@@std@@QAE@QBD@Z ; std::basic_string<char,std::char_traits<char>,std::allocator<char> >::basic_string<char,std::char_traits<char>,std::allocator<char> >
  00036	83 65 fc 00	 and	 DWORD PTR __$EHRec$[ebp+8], 0
  0003a	8d 45 d8	 lea	 eax, DWORD PTR $T3[ebp]
  0003d	50		 push	 eax
  0003e	8d 45 cc	 lea	 eax, DWORD PTR $T2[ebp]
  00041	50		 push	 eax
  00042	8b 4d d4	 mov	 ecx, DWORD PTR _this$[ebp]
  00045	83 c1 04	 add	 ecx, 4
  00048	e8 00 00 00 00	 call	 ??$insert@$0A@$0A@@?$_Tree@V?$_Tset_traits@V?$basic_string@DU?$char_traits@D@std@@V?$allocator@D@2@@std@@U?$less@V?$basic_string@DU?$char_traits@D@std@@V?$allocator@D@2@@std@@@2@V?$allocator@V?$basic_string@DU?$char_traits@D@std@@V?$allocator@D@2@@std@@@2@$0A@@std@@@std@@QAE?AU?$pair@V?$_Tree_const_iterator@V?$_Tree_val@U?$_Tree_simple_types@V?$basic_string@DU?$char_traits@D@std@@V?$allocator@D@2@@std@@@std@@@std@@@std@@_N@1@$$QAV?$basic_string@DU?$char_traits@D@std@@V?$allocator@D@2@@1@@Z ; std::_Tree<std::_Tset_traits<std::basic_string<char,std::char_traits<char>,std::allocator<char> >,std::less<std::basic_string<char,std::char_traits<char>,std::allocator<char> > >,std::allocator<std::basic_string<char,std::char_traits<char>,std::allocator<char> > >,0> >::insert<0,0>
  0004d	83 4d fc ff	 or	 DWORD PTR __$EHRec$[ebp+8], -1
; File C:\Program Files (x86)\Microsoft Visual Studio\2019\Community\VC\Tools\MSVC\14.28.29333\include\xstring

; 2801 :         _Tidy_deallocate();

  00051	8d 4d d8	 lea	 ecx, DWORD PTR $T3[ebp]
  00054	e8 00 00 00 00	 call	 ?_Tidy_deallocate@?$basic_string@DU?$char_traits@D@std@@V?$allocator@D@2@@std@@AAEXXZ ; std::basic_string<char,std::char_traits<char>,std::allocator<char> >::_Tidy_deallocate
; File D:\Metin2 Server Files\mainline\SRC_2014\Metin2Client\UserInterface\PythonMessenger.cpp

; 29   : 	if (m_poMessengerHandler)

  00059	8b 45 d4	 mov	 eax, DWORD PTR _this$[ebp]
  0005c	83 78 14 00	 cmp	 DWORD PTR [eax+20], 0
  00060	74 2c		 je	 SHORT $LN1@SetMobile

; 30   : 		PyCallClassMemberFunc(m_poMessengerHandler, "OnMobile", Py_BuildValue("(isi)", MESSENGER_GRUOP_INDEX_FRIEND, c_szKey, byState));

  00062	0f b6 45 0c	 movzx	 eax, BYTE PTR _byState$[ebp]
  00066	50		 push	 eax
  00067	ff 75 08	 push	 DWORD PTR _c_szKey$[ebp]
  0006a	6a 00		 push	 0
  0006c	68 00 00 00 00	 push	 OFFSET ??_C@_05ELCKKMAN@?$CIisi?$CJ@
  00071	ff 15 00 00 00
	00		 call	 DWORD PTR __imp__Py_BuildValue
  00077	83 c4 10	 add	 esp, 16			; 00000010H
  0007a	50		 push	 eax
  0007b	68 00 00 00 00	 push	 OFFSET ??_C@_08PNFJANDK@OnMobile@
  00080	8b 45 d4	 mov	 eax, DWORD PTR _this$[ebp]
  00083	ff 70 14	 push	 DWORD PTR [eax+20]
  00086	e8 00 00 00 00	 call	 ?PyCallClassMemberFunc@@YA_NPAU_object@@PBD0@Z ; PyCallClassMemberFunc
  0008b	83 c4 0c	 add	 esp, 12			; 0000000cH
$LN1@SetMobile:

; 31   : }

  0008e	8b 4d f4	 mov	 ecx, DWORD PTR __$EHRec$[ebp]
  00091	64 89 0d 00 00
	00 00		 mov	 DWORD PTR fs:0, ecx
  00098	59		 pop	 ecx
  00099	8b 4d f0	 mov	 ecx, DWORD PTR __$ArrayPad$[ebp]
  0009c	33 cd		 xor	 ecx, ebp
  0009e	e8 00 00 00 00	 call	 @__security_check_cookie@4
  000a3	c9		 leave
  000a4	c2 08 00	 ret	 8
_TEXT	ENDS
;	COMDAT text$x
text$x	SEGMENT
__unwindfunclet$?SetMobile@CPythonMessenger@@QAEXPBDE@Z$0:
  00000	8d 4d d8	 lea	 ecx, DWORD PTR $T3[ebp]
  00003	e9 00 00 00 00	 jmp	 ??1?$basic_string@DU?$char_traits@D@std@@V?$allocator@D@2@@std@@QAE@XZ ; std::basic_string<char,std::char_traits<char>,std::allocator<char> >::~basic_string<char,std::char_traits<char>,std::allocator<char> >
  00008	cc		 int	 3
  00009	cc		 int	 3
  0000a	cc		 int	 3
  0000b	cc		 int	 3
  0000c	cc		 int	 3
__ehhandler$?SetMobile@CPythonMessenger@@QAEXPBDE@Z:
  0000d	90		 npad	 1
  0000e	90		 npad	 1
  0000f	8b 54 24 08	 mov	 edx, DWORD PTR [esp+8]
  00013	8d 42 0c	 lea	 eax, DWORD PTR [edx+12]
  00016	8b 4a d4	 mov	 ecx, DWORD PTR [edx-44]
  00019	33 c8		 xor	 ecx, eax
  0001b	e8 00 00 00 00	 call	 @__security_check_cookie@4
  00020	8b 4a fc	 mov	 ecx, DWORD PTR [edx-4]
  00023	33 c8		 xor	 ecx, eax
  00025	e8 00 00 00 00	 call	 @__security_check_cookie@4
  0002a	b8 00 00 00 00	 mov	 eax, OFFSET __ehfuncinfo$?SetMobile@CPythonMessenger@@QAEXPBDE@Z
  0002f	e9 00 00 00 00	 jmp	 ___CxxFrameHandler3
text$x	ENDS
?SetMobile@CPythonMessenger@@QAEXPBDE@Z ENDP		; CPythonMessenger::SetMobile
; Function compile flags: /Odspy
; File D:\Metin2 Server Files\mainline\SRC_2014\Metin2Client\UserInterface\PythonMessenger.cpp
; File C:\Program Files (x86)\Microsoft Visual Studio\2019\Community\VC\Tools\MSVC\14.28.29333\include\xstring
; File D:\Metin2 Server Files\mainline\SRC_2014\Metin2Client\UserInterface\PythonMessenger.cpp
;	COMDAT ?OnFriendLogout@CPythonMessenger@@QAEXPBD@Z
_TEXT	SEGMENT
$T2 = -52						; size = 8
_this$ = -44						; size = 4
$T3 = -40						; size = 24
__$ArrayPad$ = -16					; size = 4
__$EHRec$ = -12						; size = 12
_c_szKey$ = 8						; size = 4
?OnFriendLogout@CPythonMessenger@@QAEXPBD@Z PROC	; CPythonMessenger::OnFriendLogout, COMDAT
; _this$ = ecx

; 18   : {

  00000	55		 push	 ebp
  00001	8b ec		 mov	 ebp, esp
  00003	6a ff		 push	 -1
  00005	68 00 00 00 00	 push	 __ehhandler$?OnFriendLogout@CPythonMessenger@@QAEXPBD@Z
  0000a	64 a1 00 00 00
	00		 mov	 eax, DWORD PTR fs:0
  00010	50		 push	 eax
  00011	83 ec 28	 sub	 esp, 40			; 00000028H
  00014	a1 00 00 00 00	 mov	 eax, DWORD PTR ___security_cookie
  00019	33 c5		 xor	 eax, ebp
  0001b	89 45 f0	 mov	 DWORD PTR __$ArrayPad$[ebp], eax
  0001e	50		 push	 eax
  0001f	8d 45 f4	 lea	 eax, DWORD PTR __$EHRec$[ebp]
  00022	64 a3 00 00 00
	00		 mov	 DWORD PTR fs:0, eax
  00028	89 4d d4	 mov	 DWORD PTR _this$[ebp], ecx

; 19   : 	m_FriendNameMap.insert(c_szKey);

  0002b	ff 75 08	 push	 DWORD PTR _c_szKey$[ebp]
  0002e	8d 4d d8	 lea	 ecx, DWORD PTR $T3[ebp]
  00031	e8 00 00 00 00	 call	 ??0?$basic_string@DU?$char_traits@D@std@@V?$allocator@D@2@@std@@QAE@QBD@Z ; std::basic_string<char,std::char_traits<char>,std::allocator<char> >::basic_string<char,std::char_traits<char>,std::allocator<char> >
  00036	83 65 fc 00	 and	 DWORD PTR __$EHRec$[ebp+8], 0
  0003a	8d 45 d8	 lea	 eax, DWORD PTR $T3[ebp]
  0003d	50		 push	 eax
  0003e	8d 45 cc	 lea	 eax, DWORD PTR $T2[ebp]
  00041	50		 push	 eax
  00042	8b 4d d4	 mov	 ecx, DWORD PTR _this$[ebp]
  00045	83 c1 04	 add	 ecx, 4
  00048	e8 00 00 00 00	 call	 ??$insert@$0A@$0A@@?$_Tree@V?$_Tset_traits@V?$basic_string@DU?$char_traits@D@std@@V?$allocator@D@2@@std@@U?$less@V?$basic_string@DU?$char_traits@D@std@@V?$allocator@D@2@@std@@@2@V?$allocator@V?$basic_string@DU?$char_traits@D@std@@V?$allocator@D@2@@std@@@2@$0A@@std@@@std@@QAE?AU?$pair@V?$_Tree_const_iterator@V?$_Tree_val@U?$_Tree_simple_types@V?$basic_string@DU?$char_traits@D@std@@V?$allocator@D@2@@std@@@std@@@std@@@std@@_N@1@$$QAV?$basic_string@DU?$char_traits@D@std@@V?$allocator@D@2@@1@@Z ; std::_Tree<std::_Tset_traits<std::basic_string<char,std::char_traits<char>,std::allocator<char> >,std::less<std::basic_string<char,std::char_traits<char>,std::allocator<char> > >,std::allocator<std::basic_string<char,std::char_traits<char>,std::allocator<char> > >,0> >::insert<0,0>
  0004d	83 4d fc ff	 or	 DWORD PTR __$EHRec$[ebp+8], -1
; File C:\Program Files (x86)\Microsoft Visual Studio\2019\Community\VC\Tools\MSVC\14.28.29333\include\xstring

; 2801 :         _Tidy_deallocate();

  00051	8d 4d d8	 lea	 ecx, DWORD PTR $T3[ebp]
  00054	e8 00 00 00 00	 call	 ?_Tidy_deallocate@?$basic_string@DU?$char_traits@D@std@@V?$allocator@D@2@@std@@AAEXXZ ; std::basic_string<char,std::char_traits<char>,std::allocator<char> >::_Tidy_deallocate
; File D:\Metin2 Server Files\mainline\SRC_2014\Metin2Client\UserInterface\PythonMessenger.cpp

; 21   : 	if (m_poMessengerHandler)

  00059	8b 45 d4	 mov	 eax, DWORD PTR _this$[ebp]
  0005c	83 78 14 00	 cmp	 DWORD PTR [eax+20], 0
  00060	74 27		 je	 SHORT $LN1@OnFriendLo

; 22   : 		PyCallClassMemberFunc(m_poMessengerHandler, "OnLogout", Py_BuildValue("(is)", MESSENGER_GRUOP_INDEX_FRIEND, c_szKey));

  00062	ff 75 08	 push	 DWORD PTR _c_szKey$[ebp]
  00065	6a 00		 push	 0
  00067	68 00 00 00 00	 push	 OFFSET ??_C@_04JMLDJNEM@?$CIis?$CJ@
  0006c	ff 15 00 00 00
	00		 call	 DWORD PTR __imp__Py_BuildValue
  00072	83 c4 0c	 add	 esp, 12			; 0000000cH
  00075	50		 push	 eax
  00076	68 00 00 00 00	 push	 OFFSET ??_C@_08PGILGNMN@OnLogout@
  0007b	8b 45 d4	 mov	 eax, DWORD PTR _this$[ebp]
  0007e	ff 70 14	 push	 DWORD PTR [eax+20]
  00081	e8 00 00 00 00	 call	 ?PyCallClassMemberFunc@@YA_NPAU_object@@PBD0@Z ; PyCallClassMemberFunc
  00086	83 c4 0c	 add	 esp, 12			; 0000000cH
$LN1@OnFriendLo:

; 23   : }

  00089	8b 4d f4	 mov	 ecx, DWORD PTR __$EHRec$[ebp]
  0008c	64 89 0d 00 00
	00 00		 mov	 DWORD PTR fs:0, ecx
  00093	59		 pop	 ecx
  00094	8b 4d f0	 mov	 ecx, DWORD PTR __$ArrayPad$[ebp]
  00097	33 cd		 xor	 ecx, ebp
  00099	e8 00 00 00 00	 call	 @__security_check_cookie@4
  0009e	c9		 leave
  0009f	c2 04 00	 ret	 4
_TEXT	ENDS
;	COMDAT text$x
text$x	SEGMENT
__unwindfunclet$?OnFriendLogout@CPythonMessenger@@QAEXPBD@Z$0:
  00000	8d 4d d8	 lea	 ecx, DWORD PTR $T3[ebp]
  00003	e9 00 00 00 00	 jmp	 ??1?$basic_string@DU?$char_traits@D@std@@V?$allocator@D@2@@std@@QAE@XZ ; std::basic_string<char,std::char_traits<char>,std::allocator<char> >::~basic_string<char,std::char_traits<char>,std::allocator<char> >
  00008	cc		 int	 3
  00009	cc		 int	 3
  0000a	cc		 int	 3
  0000b	cc		 int	 3
  0000c	cc		 int	 3
__ehhandler$?OnFriendLogout@CPythonMessenger@@QAEXPBD@Z:
  0000d	90		 npad	 1
  0000e	90		 npad	 1
  0000f	8b 54 24 08	 mov	 edx, DWORD PTR [esp+8]
  00013	8d 42 0c	 lea	 eax, DWORD PTR [edx+12]
  00016	8b 4a d4	 mov	 ecx, DWORD PTR [edx-44]
  00019	33 c8		 xor	 ecx, eax
  0001b	e8 00 00 00 00	 call	 @__security_check_cookie@4
  00020	8b 4a fc	 mov	 ecx, DWORD PTR [edx-4]
  00023	33 c8		 xor	 ecx, eax
  00025	e8 00 00 00 00	 call	 @__security_check_cookie@4
  0002a	b8 00 00 00 00	 mov	 eax, OFFSET __ehfuncinfo$?OnFriendLogout@CPythonMessenger@@QAEXPBD@Z
  0002f	e9 00 00 00 00	 jmp	 ___CxxFrameHandler3
text$x	ENDS
?OnFriendLogout@CPythonMessenger@@QAEXPBD@Z ENDP	; CPythonMessenger::OnFriendLogout
; Function compile flags: /Odspy
; File D:\Metin2 Server Files\mainline\SRC_2014\Metin2Client\UserInterface\PythonMessenger.cpp
; File C:\Program Files (x86)\Microsoft Visual Studio\2019\Community\VC\Tools\MSVC\14.28.29333\include\xstring
; File D:\Metin2 Server Files\mainline\SRC_2014\Metin2Client\UserInterface\PythonMessenger.cpp
;	COMDAT ?OnFriendLogin@CPythonMessenger@@QAEXPBD@Z
_TEXT	SEGMENT
$T2 = -52						; size = 8
_this$ = -44						; size = 4
$T3 = -40						; size = 24
__$ArrayPad$ = -16					; size = 4
__$EHRec$ = -12						; size = 12
_c_szKey$ = 8						; size = 4
?OnFriendLogin@CPythonMessenger@@QAEXPBD@Z PROC		; CPythonMessenger::OnFriendLogin, COMDAT
; _this$ = ecx

; 10   : {

  00000	55		 push	 ebp
  00001	8b ec		 mov	 ebp, esp
  00003	6a ff		 push	 -1
  00005	68 00 00 00 00	 push	 __ehhandler$?OnFriendLogin@CPythonMessenger@@QAEXPBD@Z
  0000a	64 a1 00 00 00
	00		 mov	 eax, DWORD PTR fs:0
  00010	50		 push	 eax
  00011	83 ec 28	 sub	 esp, 40			; 00000028H
  00014	a1 00 00 00 00	 mov	 eax, DWORD PTR ___security_cookie
  00019	33 c5		 xor	 eax, ebp
  0001b	89 45 f0	 mov	 DWORD PTR __$ArrayPad$[ebp], eax
  0001e	50		 push	 eax
  0001f	8d 45 f4	 lea	 eax, DWORD PTR __$EHRec$[ebp]
  00022	64 a3 00 00 00
	00		 mov	 DWORD PTR fs:0, eax
  00028	89 4d d4	 mov	 DWORD PTR _this$[ebp], ecx

; 11   : 	m_FriendNameMap.insert(c_szKey);

  0002b	ff 75 08	 push	 DWORD PTR _c_szKey$[ebp]
  0002e	8d 4d d8	 lea	 ecx, DWORD PTR $T3[ebp]
  00031	e8 00 00 00 00	 call	 ??0?$basic_string@DU?$char_traits@D@std@@V?$allocator@D@2@@std@@QAE@QBD@Z ; std::basic_string<char,std::char_traits<char>,std::allocator<char> >::basic_string<char,std::char_traits<char>,std::allocator<char> >
  00036	83 65 fc 00	 and	 DWORD PTR __$EHRec$[ebp+8], 0
  0003a	8d 45 d8	 lea	 eax, DWORD PTR $T3[ebp]
  0003d	50		 push	 eax
  0003e	8d 45 cc	 lea	 eax, DWORD PTR $T2[ebp]
  00041	50		 push	 eax
  00042	8b 4d d4	 mov	 ecx, DWORD PTR _this$[ebp]
  00045	83 c1 04	 add	 ecx, 4
  00048	e8 00 00 00 00	 call	 ??$insert@$0A@$0A@@?$_Tree@V?$_Tset_traits@V?$basic_string@DU?$char_traits@D@std@@V?$allocator@D@2@@std@@U?$less@V?$basic_string@DU?$char_traits@D@std@@V?$allocator@D@2@@std@@@2@V?$allocator@V?$basic_string@DU?$char_traits@D@std@@V?$allocator@D@2@@std@@@2@$0A@@std@@@std@@QAE?AU?$pair@V?$_Tree_const_iterator@V?$_Tree_val@U?$_Tree_simple_types@V?$basic_string@DU?$char_traits@D@std@@V?$allocator@D@2@@std@@@std@@@std@@@std@@_N@1@$$QAV?$basic_string@DU?$char_traits@D@std@@V?$allocator@D@2@@1@@Z ; std::_Tree<std::_Tset_traits<std::basic_string<char,std::char_traits<char>,std::allocator<char> >,std::less<std::basic_string<char,std::char_traits<char>,std::allocator<char> > >,std::allocator<std::basic_string<char,std::char_traits<char>,std::allocator<char> > >,0> >::insert<0,0>
  0004d	83 4d fc ff	 or	 DWORD PTR __$EHRec$[ebp+8], -1
; File C:\Program Files (x86)\Microsoft Visual Studio\2019\Community\VC\Tools\MSVC\14.28.29333\include\xstring

; 2801 :         _Tidy_deallocate();

  00051	8d 4d d8	 lea	 ecx, DWORD PTR $T3[ebp]
  00054	e8 00 00 00 00	 call	 ?_Tidy_deallocate@?$basic_string@DU?$char_traits@D@std@@V?$allocator@D@2@@std@@AAEXXZ ; std::basic_string<char,std::char_traits<char>,std::allocator<char> >::_Tidy_deallocate
; File D:\Metin2 Server Files\mainline\SRC_2014\Metin2Client\UserInterface\PythonMessenger.cpp

; 13   : 	if (m_poMessengerHandler)

  00059	8b 45 d4	 mov	 eax, DWORD PTR _this$[ebp]
  0005c	83 78 14 00	 cmp	 DWORD PTR [eax+20], 0
  00060	74 27		 je	 SHORT $LN1@OnFriendLo

; 14   : 		PyCallClassMemberFunc(m_poMessengerHandler, "OnLogin", Py_BuildValue("(is)", MESSENGER_GRUOP_INDEX_FRIEND, c_szKey));

  00062	ff 75 08	 push	 DWORD PTR _c_szKey$[ebp]
  00065	6a 00		 push	 0
  00067	68 00 00 00 00	 push	 OFFSET ??_C@_04JMLDJNEM@?$CIis?$CJ@
  0006c	ff 15 00 00 00
	00		 call	 DWORD PTR __imp__Py_BuildValue
  00072	83 c4 0c	 add	 esp, 12			; 0000000cH
  00075	50		 push	 eax
  00076	68 00 00 00 00	 push	 OFFSET ??_C@_07MIJIJENI@OnLogin@
  0007b	8b 45 d4	 mov	 eax, DWORD PTR _this$[ebp]
  0007e	ff 70 14	 push	 DWORD PTR [eax+20]
  00081	e8 00 00 00 00	 call	 ?PyCallClassMemberFunc@@YA_NPAU_object@@PBD0@Z ; PyCallClassMemberFunc
  00086	83 c4 0c	 add	 esp, 12			; 0000000cH
$LN1@OnFriendLo:

; 15   : }

  00089	8b 4d f4	 mov	 ecx, DWORD PTR __$EHRec$[ebp]
  0008c	64 89 0d 00 00
	00 00		 mov	 DWORD PTR fs:0, ecx
  00093	59		 pop	 ecx
  00094	8b 4d f0	 mov	 ecx, DWORD PTR __$ArrayPad$[ebp]
  00097	33 cd		 xor	 ecx, ebp
  00099	e8 00 00 00 00	 call	 @__security_check_cookie@4
  0009e	c9		 leave
  0009f	c2 04 00	 ret	 4
_TEXT	ENDS
;	COMDAT text$x
text$x	SEGMENT
__unwindfunclet$?OnFriendLogin@CPythonMessenger@@QAEXPBD@Z$0:
  00000	8d 4d d8	 lea	 ecx, DWORD PTR $T3[ebp]
  00003	e9 00 00 00 00	 jmp	 ??1?$basic_string@DU?$char_traits@D@std@@V?$allocator@D@2@@std@@QAE@XZ ; std::basic_string<char,std::char_traits<char>,std::allocator<char> >::~basic_string<char,std::char_traits<char>,std::allocator<char> >
  00008	cc		 int	 3
  00009	cc		 int	 3
  0000a	cc		 int	 3
  0000b	cc		 int	 3
  0000c	cc		 int	 3
__ehhandler$?OnFriendLogin@CPythonMessenger@@QAEXPBD@Z:
  0000d	90		 npad	 1
  0000e	90		 npad	 1
  0000f	8b 54 24 08	 mov	 edx, DWORD PTR [esp+8]
  00013	8d 42 0c	 lea	 eax, DWORD PTR [edx+12]
  00016	8b 4a d4	 mov	 ecx, DWORD PTR [edx-44]
  00019	33 c8		 xor	 ecx, eax
  0001b	e8 00 00 00 00	 call	 @__security_check_cookie@4
  00020	8b 4a fc	 mov	 ecx, DWORD PTR [edx-4]
  00023	33 c8		 xor	 ecx, eax
  00025	e8 00 00 00 00	 call	 @__security_check_cookie@4
  0002a	b8 00 00 00 00	 mov	 eax, OFFSET __ehfuncinfo$?OnFriendLogin@CPythonMessenger@@QAEXPBD@Z
  0002f	e9 00 00 00 00	 jmp	 ___CxxFrameHandler3
text$x	ENDS
?OnFriendLogin@CPythonMessenger@@QAEXPBD@Z ENDP		; CPythonMessenger::OnFriendLogin
; Function compile flags: /Odspy
; File D:\Metin2 Server Files\mainline\SRC_2014\Metin2Client\UserInterface\PythonMessenger.cpp
; File C:\Program Files (x86)\Microsoft Visual Studio\2019\Community\VC\Tools\MSVC\14.28.29333\include\xstring
; File D:\Metin2 Server Files\mainline\SRC_2014\Metin2Client\UserInterface\PythonMessenger.cpp
;	COMDAT ?RemoveFriend@CPythonMessenger@@QAEXPBD@Z
_TEXT	SEGMENT
_this$ = -44						; size = 4
$T2 = -40						; size = 24
__$ArrayPad$ = -16					; size = 4
__$EHRec$ = -12						; size = 12
_c_szKey$ = 8						; size = 4
?RemoveFriend@CPythonMessenger@@QAEXPBD@Z PROC		; CPythonMessenger::RemoveFriend, COMDAT
; _this$ = ecx

; 5    : {

  00000	55		 push	 ebp
  00001	8b ec		 mov	 ebp, esp
  00003	6a ff		 push	 -1
  00005	68 00 00 00 00	 push	 __ehhandler$?RemoveFriend@CPythonMessenger@@QAEXPBD@Z
  0000a	64 a1 00 00 00
	00		 mov	 eax, DWORD PTR fs:0
  00010	50		 push	 eax
  00011	83 ec 20	 sub	 esp, 32			; 00000020H
  00014	a1 00 00 00 00	 mov	 eax, DWORD PTR ___security_cookie
  00019	33 c5		 xor	 eax, ebp
  0001b	89 45 f0	 mov	 DWORD PTR __$ArrayPad$[ebp], eax
  0001e	50		 push	 eax
  0001f	8d 45 f4	 lea	 eax, DWORD PTR __$EHRec$[ebp]
  00022	64 a3 00 00 00
	00		 mov	 DWORD PTR fs:0, eax
  00028	89 4d d4	 mov	 DWORD PTR _this$[ebp], ecx

; 6    : 	m_FriendNameMap.erase(c_szKey);

  0002b	ff 75 08	 push	 DWORD PTR _c_szKey$[ebp]
  0002e	8d 4d d8	 lea	 ecx, DWORD PTR $T2[ebp]
  00031	e8 00 00 00 00	 call	 ??0?$basic_string@DU?$char_traits@D@std@@V?$allocator@D@2@@std@@QAE@QBD@Z ; std::basic_string<char,std::char_traits<char>,std::allocator<char> >::basic_string<char,std::char_traits<char>,std::allocator<char> >
  00036	83 65 fc 00	 and	 DWORD PTR __$EHRec$[ebp+8], 0
  0003a	8d 45 d8	 lea	 eax, DWORD PTR $T2[ebp]
  0003d	50		 push	 eax
  0003e	8b 4d d4	 mov	 ecx, DWORD PTR _this$[ebp]
  00041	83 c1 04	 add	 ecx, 4
  00044	e8 00 00 00 00	 call	 ?erase@?$_Tree@V?$_Tset_traits@V?$basic_string@DU?$char_traits@D@std@@V?$allocator@D@2@@std@@U?$less@V?$basic_string@DU?$char_traits@D@std@@V?$allocator@D@2@@std@@@2@V?$allocator@V?$basic_string@DU?$char_traits@D@std@@V?$allocator@D@2@@std@@@2@$0A@@std@@@std@@QAEIABV?$basic_string@DU?$char_traits@D@std@@V?$allocator@D@2@@2@@Z ; std::_Tree<std::_Tset_traits<std::basic_string<char,std::char_traits<char>,std::allocator<char> >,std::less<std::basic_string<char,std::char_traits<char>,std::allocator<char> > >,std::allocator<std::basic_string<char,std::char_traits<char>,std::allocator<char> > >,0> >::erase
  00049	83 4d fc ff	 or	 DWORD PTR __$EHRec$[ebp+8], -1
; File C:\Program Files (x86)\Microsoft Visual Studio\2019\Community\VC\Tools\MSVC\14.28.29333\include\xstring

; 2801 :         _Tidy_deallocate();

  0004d	8d 4d d8	 lea	 ecx, DWORD PTR $T2[ebp]
  00050	e8 00 00 00 00	 call	 ?_Tidy_deallocate@?$basic_string@DU?$char_traits@D@std@@V?$allocator@D@2@@std@@AAEXXZ ; std::basic_string<char,std::char_traits<char>,std::allocator<char> >::_Tidy_deallocate
; File D:\Metin2 Server Files\mainline\SRC_2014\Metin2Client\UserInterface\PythonMessenger.cpp

; 7    : }

  00055	8b 4d f4	 mov	 ecx, DWORD PTR __$EHRec$[ebp]
  00058	64 89 0d 00 00
	00 00		 mov	 DWORD PTR fs:0, ecx
  0005f	59		 pop	 ecx
  00060	8b 4d f0	 mov	 ecx, DWORD PTR __$ArrayPad$[ebp]
  00063	33 cd		 xor	 ecx, ebp
  00065	e8 00 00 00 00	 call	 @__security_check_cookie@4
  0006a	c9		 leave
  0006b	c2 04 00	 ret	 4
_TEXT	ENDS
;	COMDAT text$x
text$x	SEGMENT
__unwindfunclet$?RemoveFriend@CPythonMessenger@@QAEXPBD@Z$0:
  00000	8d 4d d8	 lea	 ecx, DWORD PTR $T2[ebp]
  00003	e9 00 00 00 00	 jmp	 ??1?$basic_string@DU?$char_traits@D@std@@V?$allocator@D@2@@std@@QAE@XZ ; std::basic_string<char,std::char_traits<char>,std::allocator<char> >::~basic_string<char,std::char_traits<char>,std::allocator<char> >
  00008	cc		 int	 3
  00009	cc		 int	 3
  0000a	cc		 int	 3
  0000b	cc		 int	 3
  0000c	cc		 int	 3
__ehhandler$?RemoveFriend@CPythonMessenger@@QAEXPBD@Z:
  0000d	90		 npad	 1
  0000e	90		 npad	 1
  0000f	8b 54 24 08	 mov	 edx, DWORD PTR [esp+8]
  00013	8d 42 0c	 lea	 eax, DWORD PTR [edx+12]
  00016	8b 4a dc	 mov	 ecx, DWORD PTR [edx-36]
  00019	33 c8		 xor	 ecx, eax
  0001b	e8 00 00 00 00	 call	 @__security_check_cookie@4
  00020	8b 4a fc	 mov	 ecx, DWORD PTR [edx-4]
  00023	33 c8		 xor	 ecx, eax
  00025	e8 00 00 00 00	 call	 @__security_check_cookie@4
  0002a	b8 00 00 00 00	 mov	 eax, OFFSET __ehfuncinfo$?RemoveFriend@CPythonMessenger@@QAEXPBD@Z
  0002f	e9 00 00 00 00	 jmp	 ___CxxFrameHandler3
text$x	ENDS
?RemoveFriend@CPythonMessenger@@QAEXPBD@Z ENDP		; CPythonMessenger::RemoveFriend
; Function compile flags: /Odspy
; File D:\Metin2 Server Files\mainline\SRC_2014\Metin2Client\UserInterface\PythonMessenger.cpp
;	COMDAT ?Destroy@CPythonMessenger@@QAEXXZ
_TEXT	SEGMENT
_this$ = -4						; size = 4
?Destroy@CPythonMessenger@@QAEXXZ PROC			; CPythonMessenger::Destroy, COMDAT
; _this$ = ecx

; 93   : {

  00000	55		 push	 ebp
  00001	8b ec		 mov	 ebp, esp
  00003	51		 push	 ecx
  00004	89 4d fc	 mov	 DWORD PTR _this$[ebp], ecx

; 94   : 	m_FriendNameMap.clear();

  00007	8b 4d fc	 mov	 ecx, DWORD PTR _this$[ebp]
  0000a	83 c1 04	 add	 ecx, 4
  0000d	e8 00 00 00 00	 call	 ?clear@?$_Tree@V?$_Tset_traits@V?$basic_string@DU?$char_traits@D@std@@V?$allocator@D@2@@std@@U?$less@V?$basic_string@DU?$char_traits@D@std@@V?$allocator@D@2@@std@@@2@V?$allocator@V?$basic_string@DU?$char_traits@D@std@@V?$allocator@D@2@@std@@@2@$0A@@std@@@std@@QAEXXZ ; std::_Tree<std::_Tset_traits<std::basic_string<char,std::char_traits<char>,std::allocator<char> >,std::less<std::basic_string<char,std::char_traits<char>,std::allocator<char> > >,std::allocator<std::basic_string<char,std::char_traits<char>,std::allocator<char> > >,0> >::clear

; 95   : 	m_GuildMemberStateMap.clear();

  00012	8b 4d fc	 mov	 ecx, DWORD PTR _this$[ebp]
  00015	83 c1 0c	 add	 ecx, 12			; 0000000cH
  00018	e8 00 00 00 00	 call	 ?clear@?$_Tree@V?$_Tmap_traits@V?$basic_string@DU?$char_traits@D@std@@V?$allocator@D@2@@std@@EU?$less@V?$basic_string@DU?$char_traits@D@std@@V?$allocator@D@2@@std@@@2@V?$allocator@U?$pair@$$CBV?$basic_string@DU?$char_traits@D@std@@V?$allocator@D@2@@std@@E@std@@@2@$0A@@std@@@std@@QAEXXZ ; std::_Tree<std::_Tmap_traits<std::basic_string<char,std::char_traits<char>,std::allocator<char> >,unsigned char,std::less<std::basic_string<char,std::char_traits<char>,std::allocator<char> > >,std::allocator<std::pair<std::basic_string<char,std::char_traits<char>,std::allocator<char> > const ,unsigned char> >,0> >::clear

; 96   : }

  0001d	c9		 leave
  0001e	c3		 ret	 0
?Destroy@CPythonMessenger@@QAEXXZ ENDP			; CPythonMessenger::Destroy
_TEXT	ENDS
; Function compile flags: /Odspy
; File D:\Metin2 Server Files\mainline\SRC_2014\Metin2Client\UserInterface\PythonMessenger.cpp
; File D:\Metin2 Server Files\mainline\SRC_2014\Metin2Client\eterBase\Singleton.h
; File D:\Metin2 Server Files\mainline\SRC_2014\Metin2Client\UserInterface\PythonMessenger.cpp
;	COMDAT ??1CPythonMessenger@@UAE@XZ
_TEXT	SEGMENT
_this$ = -4						; size = 4
??1CPythonMessenger@@UAE@XZ PROC			; CPythonMessenger::~CPythonMessenger, COMDAT
; _this$ = ecx

; 109  : {

  00000	55		 push	 ebp
  00001	8b ec		 mov	 ebp, esp
  00003	51		 push	 ecx
  00004	89 4d fc	 mov	 DWORD PTR _this$[ebp], ecx
  00007	8b 45 fc	 mov	 eax, DWORD PTR _this$[ebp]
  0000a	c7 00 00 00 00
	00		 mov	 DWORD PTR [eax], OFFSET ??_7CPythonMessenger@@6B@

; 110  : }

  00010	8b 4d fc	 mov	 ecx, DWORD PTR _this$[ebp]
  00013	83 c1 0c	 add	 ecx, 12			; 0000000cH
  00016	e8 00 00 00 00	 call	 ??1?$_Tree@V?$_Tmap_traits@V?$basic_string@DU?$char_traits@D@std@@V?$allocator@D@2@@std@@EU?$less@V?$basic_string@DU?$char_traits@D@std@@V?$allocator@D@2@@std@@@2@V?$allocator@U?$pair@$$CBV?$basic_string@DU?$char_traits@D@std@@V?$allocator@D@2@@std@@E@std@@@2@$0A@@std@@@std@@QAE@XZ ; std::_Tree<std::_Tmap_traits<std::basic_string<char,std::char_traits<char>,std::allocator<char> >,unsigned char,std::less<std::basic_string<char,std::char_traits<char>,std::allocator<char> > >,std::allocator<std::pair<std::basic_string<char,std::char_traits<char>,std::allocator<char> > const ,unsigned char> >,0> >::~_Tree<std::_Tmap_traits<std::basic_string<char,std::char_traits<char>,std::allocator<char> >,unsigned char,std::less<std::basic_string<char,std::char_traits<char>,std::allocator<char> > >,std::allocator<std::pair<std::basic_string<char,std::char_traits<char>,std::allocator<char> > const ,unsigned char> >,0> >
  0001b	8b 4d fc	 mov	 ecx, DWORD PTR _this$[ebp]
  0001e	83 c1 04	 add	 ecx, 4
  00021	e8 00 00 00 00	 call	 ??1?$_Tree@V?$_Tset_traits@V?$basic_string@DU?$char_traits@D@std@@V?$allocator@D@2@@std@@U?$less@V?$basic_string@DU?$char_traits@D@std@@V?$allocator@D@2@@std@@@2@V?$allocator@V?$basic_string@DU?$char_traits@D@std@@V?$allocator@D@2@@std@@@2@$0A@@std@@@std@@QAE@XZ ; std::_Tree<std::_Tset_traits<std::basic_string<char,std::char_traits<char>,std::allocator<char> >,std::less<std::basic_string<char,std::char_traits<char>,std::allocator<char> > >,std::allocator<std::basic_string<char,std::char_traits<char>,std::allocator<char> > >,0> >::~_Tree<std::_Tset_traits<std::basic_string<char,std::char_traits<char>,std::allocator<char> >,std::less<std::basic_string<char,std::char_traits<char>,std::allocator<char> > >,std::allocator<std::basic_string<char,std::char_traits<char>,std::allocator<char> > >,0> >
; File D:\Metin2 Server Files\mainline\SRC_2014\Metin2Client\eterBase\Singleton.h

; 19   : 	{ 

  00026	8b 45 fc	 mov	 eax, DWORD PTR _this$[ebp]
  00029	c7 00 00 00 00
	00		 mov	 DWORD PTR [eax], OFFSET ??_7?$CSingleton@VCPythonMessenger@@@@6B@

; 20   : 		assert(ms_singleton);
; 21   : 		ms_singleton = 0; 

  0002f	83 25 00 00 00
	00 00		 and	 DWORD PTR ?ms_singleton@?$CSingleton@VCPythonMessenger@@@@0PAVCPythonMessenger@@A, 0 ; CSingleton<CPythonMessenger>::ms_singleton
; File D:\Metin2 Server Files\mainline\SRC_2014\Metin2Client\UserInterface\PythonMessenger.cpp

; 110  : }

  00036	c9		 leave
  00037	c3		 ret	 0
??1CPythonMessenger@@UAE@XZ ENDP			; CPythonMessenger::~CPythonMessenger
_TEXT	ENDS
; Function compile flags: /Odspy
; File D:\Metin2 Server Files\mainline\SRC_2014\Metin2Client\UserInterface\PythonMessenger.cpp
; File D:\Metin2 Server Files\mainline\SRC_2014\Metin2Client\eterBase\Singleton.h
; File D:\Metin2 Server Files\mainline\SRC_2014\Metin2Client\UserInterface\PythonMessenger.cpp
; File C:\Program Files (x86)\Microsoft Visual Studio\2019\Community\VC\Tools\MSVC\14.28.29333\include\set
; File D:\Metin2 Server Files\mainline\SRC_2014\Metin2Client\UserInterface\PythonMessenger.cpp
; File C:\Program Files (x86)\Microsoft Visual Studio\2019\Community\VC\Tools\MSVC\14.28.29333\include\map
; File D:\Metin2 Server Files\mainline\SRC_2014\Metin2Client\UserInterface\PythonMessenger.cpp
;	COMDAT ??0CPythonMessenger@@QAE@XZ
_TEXT	SEGMENT
_this$ = -32						; size = 4
_this$ = -28						; size = 4
_offset$2 = -24						; size = 4
_this$ = -20						; size = 4
$T3 = -14						; size = 1
$T4 = -13						; size = 1
__$EHRec$ = -12						; size = 12
??0CPythonMessenger@@QAE@XZ PROC			; CPythonMessenger::CPythonMessenger, COMDAT
; _this$ = ecx

; 105  : {

  00000	55		 push	 ebp
  00001	8b ec		 mov	 ebp, esp
  00003	6a ff		 push	 -1
  00005	68 00 00 00 00	 push	 __ehhandler$??0CPythonMessenger@@QAE@XZ
  0000a	64 a1 00 00 00
	00		 mov	 eax, DWORD PTR fs:0
  00010	50		 push	 eax
  00011	83 ec 14	 sub	 esp, 20			; 00000014H
  00014	a1 00 00 00 00	 mov	 eax, DWORD PTR ___security_cookie
  00019	33 c5		 xor	 eax, ebp
  0001b	50		 push	 eax
  0001c	8d 45 f4	 lea	 eax, DWORD PTR __$EHRec$[ebp]
  0001f	64 a3 00 00 00
	00		 mov	 DWORD PTR fs:0, eax
  00025	89 4d ec	 mov	 DWORD PTR _this$[ebp], ecx
; File D:\Metin2 Server Files\mainline\SRC_2014\Metin2Client\eterBase\Singleton.h

; 12   : 	{ 

  00028	8b 45 ec	 mov	 eax, DWORD PTR _this$[ebp]
  0002b	c7 00 00 00 00
	00		 mov	 DWORD PTR [eax], OFFSET ??_7?$CSingleton@VCPythonMessenger@@@@6B@

; 13   : 		assert(!ms_singleton);
; 14   : 		int offset = (int) (T*) 1 - (int) (CSingleton <T>*) (T*) 1; 

  00031	33 c0		 xor	 eax, eax
  00033	89 45 e8	 mov	 DWORD PTR _offset$2[ebp], eax

; 15   : 		ms_singleton = (T*) ((int) this + offset);

  00036	8b 45 ec	 mov	 eax, DWORD PTR _this$[ebp]
  00039	03 45 e8	 add	 eax, DWORD PTR _offset$2[ebp]
  0003c	a3 00 00 00 00	 mov	 DWORD PTR ?ms_singleton@?$CSingleton@VCPythonMessenger@@@@0PAVCPythonMessenger@@A, eax ; CSingleton<CPythonMessenger>::ms_singleton
; File D:\Metin2 Server Files\mainline\SRC_2014\Metin2Client\UserInterface\PythonMessenger.cpp

; 105  : {

  00041	83 65 fc 00	 and	 DWORD PTR __$EHRec$[ebp+8], 0
  00045	8b 45 ec	 mov	 eax, DWORD PTR _this$[ebp]
  00048	c7 00 00 00 00
	00		 mov	 DWORD PTR [eax], OFFSET ??_7CPythonMessenger@@6B@
  0004e	8b 45 ec	 mov	 eax, DWORD PTR _this$[ebp]
  00051	83 c0 04	 add	 eax, 4
  00054	89 45 e4	 mov	 DWORD PTR _this$[ebp], eax
; File C:\Program Files (x86)\Microsoft Visual Studio\2019\Community\VC\Tools\MSVC\14.28.29333\include\set

; 84   :     set() : _Mybase(key_compare()) {}

  00057	8d 45 f3	 lea	 eax, DWORD PTR $T4[ebp]
  0005a	50		 push	 eax
  0005b	8b 4d e4	 mov	 ecx, DWORD PTR _this$[ebp]
  0005e	e8 00 00 00 00	 call	 ??0?$_Tree@V?$_Tset_traits@V?$basic_string@DU?$char_traits@D@std@@V?$allocator@D@2@@std@@U?$less@V?$basic_string@DU?$char_traits@D@std@@V?$allocator@D@2@@std@@@2@V?$allocator@V?$basic_string@DU?$char_traits@D@std@@V?$allocator@D@2@@std@@@2@$0A@@std@@@std@@QAE@ABU?$less@V?$basic_string@DU?$char_traits@D@std@@V?$allocator@D@2@@std@@@1@@Z ; std::_Tree<std::_Tset_traits<std::basic_string<char,std::char_traits<char>,std::allocator<char> >,std::less<std::basic_string<char,std::char_traits<char>,std::allocator<char> > >,std::allocator<std::basic_string<char,std::char_traits<char>,std::allocator<char> > >,0> >::_Tree<std::_Tset_traits<std::basic_string<char,std::char_traits<char>,std::allocator<char> >,std::less<std::basic_string<char,std::char_traits<char>,std::allocator<char> > >,std::allocator<std::basic_string<char,std::char_traits<char>,std::allocator<char> > >,0> >
; File D:\Metin2 Server Files\mainline\SRC_2014\Metin2Client\UserInterface\PythonMessenger.cpp

; 105  : {

  00063	c6 45 fc 01	 mov	 BYTE PTR __$EHRec$[ebp+8], 1
  00067	8b 45 ec	 mov	 eax, DWORD PTR _this$[ebp]
  0006a	83 c0 0c	 add	 eax, 12			; 0000000cH
  0006d	89 45 e0	 mov	 DWORD PTR _this$[ebp], eax
; File C:\Program Files (x86)\Microsoft Visual Studio\2019\Community\VC\Tools\MSVC\14.28.29333\include\map

; 107  :     map() : _Mybase(key_compare()) {}

  00070	8d 45 f2	 lea	 eax, DWORD PTR $T3[ebp]
  00073	50		 push	 eax
  00074	8b 4d e0	 mov	 ecx, DWORD PTR _this$[ebp]
  00077	e8 00 00 00 00	 call	 ??0?$_Tree@V?$_Tmap_traits@V?$basic_string@DU?$char_traits@D@std@@V?$allocator@D@2@@std@@EU?$less@V?$basic_string@DU?$char_traits@D@std@@V?$allocator@D@2@@std@@@2@V?$allocator@U?$pair@$$CBV?$basic_string@DU?$char_traits@D@std@@V?$allocator@D@2@@std@@E@std@@@2@$0A@@std@@@std@@QAE@ABU?$less@V?$basic_string@DU?$char_traits@D@std@@V?$allocator@D@2@@std@@@1@@Z ; std::_Tree<std::_Tmap_traits<std::basic_string<char,std::char_traits<char>,std::allocator<char> >,unsigned char,std::less<std::basic_string<char,std::char_traits<char>,std::allocator<char> > >,std::allocator<std::pair<std::basic_string<char,std::char_traits<char>,std::allocator<char> > const ,unsigned char> >,0> >::_Tree<std::_Tmap_traits<std::basic_string<char,std::char_traits<char>,std::allocator<char> >,unsigned char,std::less<std::basic_string<char,std::char_traits<char>,std::allocator<char> > >,std::allocator<std::pair<std::basic_string<char,std::char_traits<char>,std::allocator<char> > const ,unsigned char> >,0> >
; File D:\Metin2 Server Files\mainline\SRC_2014\Metin2Client\UserInterface\PythonMessenger.cpp

; 104  : 	: m_poMessengerHandler(NULL)

  0007c	8b 45 ec	 mov	 eax, DWORD PTR _this$[ebp]
  0007f	83 60 14 00	 and	 DWORD PTR [eax+20], 0

; 106  : }

  00083	83 4d fc ff	 or	 DWORD PTR __$EHRec$[ebp+8], -1
  00087	8b 45 ec	 mov	 eax, DWORD PTR _this$[ebp]
  0008a	8b 4d f4	 mov	 ecx, DWORD PTR __$EHRec$[ebp]
  0008d	64 89 0d 00 00
	00 00		 mov	 DWORD PTR fs:0, ecx
  00094	59		 pop	 ecx
  00095	c9		 leave
  00096	c3		 ret	 0
_TEXT	ENDS
;	COMDAT text$x
text$x	SEGMENT
__unwindfunclet$??0CPythonMessenger@@QAE@XZ$0:
  00000	8b 4d ec	 mov	 ecx, DWORD PTR _this$[ebp]
  00003	e9 00 00 00 00	 jmp	 ??1?$CSingleton@VCPythonMessenger@@@@UAE@XZ ; CSingleton<CPythonMessenger>::~CSingleton<CPythonMessenger>
__unwindfunclet$??0CPythonMessenger@@QAE@XZ$1:
  00008	8b 4d ec	 mov	 ecx, DWORD PTR _this$[ebp]
  0000b	83 c1 04	 add	 ecx, 4
  0000e	e9 00 00 00 00	 jmp	 ??1?$set@V?$basic_string@DU?$char_traits@D@std@@V?$allocator@D@2@@std@@U?$less@V?$basic_string@DU?$char_traits@D@std@@V?$allocator@D@2@@std@@@2@V?$allocator@V?$basic_string@DU?$char_traits@D@std@@V?$allocator@D@2@@std@@@2@@std@@QAE@XZ
  00013	cc		 int	 3
  00014	cc		 int	 3
  00015	cc		 int	 3
  00016	cc		 int	 3
  00017	cc		 int	 3
__ehhandler$??0CPythonMessenger@@QAE@XZ:
  00018	90		 npad	 1
  00019	90		 npad	 1
  0001a	8b 54 24 08	 mov	 edx, DWORD PTR [esp+8]
  0001e	8d 42 0c	 lea	 eax, DWORD PTR [edx+12]
  00021	8b 4a e8	 mov	 ecx, DWORD PTR [edx-24]
  00024	33 c8		 xor	 ecx, eax
  00026	e8 00 00 00 00	 call	 @__security_check_cookie@4
  0002b	b8 00 00 00 00	 mov	 eax, OFFSET __ehfuncinfo$??0CPythonMessenger@@QAE@XZ
  00030	e9 00 00 00 00	 jmp	 ___CxxFrameHandler3
text$x	ENDS
??0CPythonMessenger@@QAE@XZ ENDP			; CPythonMessenger::CPythonMessenger
; Function compile flags: /Odspy
; File D:\Metin2 Server Files\mainline\SRC_2014\Metin2Client\eterBase\Singleton.h
;	COMDAT ??_G?$CSingleton@VCPythonMessenger@@@@UAEPAXI@Z
_TEXT	SEGMENT
_this$ = -4						; size = 4
___flags$ = 8						; size = 4
??_G?$CSingleton@VCPythonMessenger@@@@UAEPAXI@Z PROC	; CSingleton<CPythonMessenger>::`scalar deleting destructor', COMDAT
; _this$ = ecx
  00000	55		 push	 ebp
  00001	8b ec		 mov	 ebp, esp
  00003	51		 push	 ecx
  00004	89 4d fc	 mov	 DWORD PTR _this$[ebp], ecx

; 19   : 	{ 

  00007	8b 45 fc	 mov	 eax, DWORD PTR _this$[ebp]
  0000a	c7 00 00 00 00
	00		 mov	 DWORD PTR [eax], OFFSET ??_7?$CSingleton@VCPythonMessenger@@@@6B@

; 20   : 		assert(ms_singleton);
; 21   : 		ms_singleton = 0; 

  00010	83 25 00 00 00
	00 00		 and	 DWORD PTR ?ms_singleton@?$CSingleton@VCPythonMessenger@@@@0PAVCPythonMessenger@@A, 0 ; CSingleton<CPythonMessenger>::ms_singleton
  00017	8b 45 08	 mov	 eax, DWORD PTR ___flags$[ebp]
  0001a	83 e0 01	 and	 eax, 1
  0001d	74 0c		 je	 SHORT $LN2@scalar
  0001f	6a 04		 push	 4
  00021	ff 75 fc	 push	 DWORD PTR _this$[ebp]
  00024	e8 00 00 00 00	 call	 ??3@YAXPAXI@Z		; operator delete
  00029	59		 pop	 ecx
  0002a	59		 pop	 ecx
$LN2@scalar:
  0002b	8b 45 fc	 mov	 eax, DWORD PTR _this$[ebp]
  0002e	c9		 leave
  0002f	c2 04 00	 ret	 4
??_G?$CSingleton@VCPythonMessenger@@@@UAEPAXI@Z ENDP	; CSingleton<CPythonMessenger>::`scalar deleting destructor'
_TEXT	ENDS
; Function compile flags: /Odspy
; File D:\Metin2 Server Files\mainline\SRC_2014\Metin2Client\eterBase\Singleton.h
;	COMDAT ??1?$CSingleton@VCPythonMessenger@@@@UAE@XZ
_TEXT	SEGMENT
_this$ = -4						; size = 4
??1?$CSingleton@VCPythonMessenger@@@@UAE@XZ PROC	; CSingleton<CPythonMessenger>::~CSingleton<CPythonMessenger>, COMDAT
; _this$ = ecx

; 19   : 	{ 

  00000	55		 push	 ebp
  00001	8b ec		 mov	 ebp, esp
  00003	51		 push	 ecx
  00004	89 4d fc	 mov	 DWORD PTR _this$[ebp], ecx
  00007	8b 45 fc	 mov	 eax, DWORD PTR _this$[ebp]
  0000a	c7 00 00 00 00
	00		 mov	 DWORD PTR [eax], OFFSET ??_7?$CSingleton@VCPythonMessenger@@@@6B@

; 20   : 		assert(ms_singleton);
; 21   : 		ms_singleton = 0; 

  00010	83 25 00 00 00
	00 00		 and	 DWORD PTR ?ms_singleton@?$CSingleton@VCPythonMessenger@@@@0PAVCPythonMessenger@@A, 0 ; CSingleton<CPythonMessenger>::ms_singleton

; 22   : 	}

  00017	c9		 leave
  00018	c3		 ret	 0
??1?$CSingleton@VCPythonMessenger@@@@UAE@XZ ENDP	; CSingleton<CPythonMessenger>::~CSingleton<CPythonMessenger>
_TEXT	ENDS
; Function compile flags: /Odspy
; File C:\Program Files (x86)\Microsoft Visual Studio\2019\Community\VC\Tools\MSVC\14.28.29333\include\xmemory
;	COMDAT ??$_Allocate_manually_vector_aligned@U_Default_allocate_traits@std@@@std@@YAPAXI@Z
_TEXT	SEGMENT
__Ptr$ = -12						; size = 4
__Block_size$ = -8					; size = 4
__Ptr_container$ = -4					; size = 4
__Bytes$ = 8						; size = 4
??$_Allocate_manually_vector_aligned@U_Default_allocate_traits@std@@@std@@YAPAXI@Z PROC ; std::_Allocate_manually_vector_aligned<std::_Default_allocate_traits>, COMDAT

; 113  : __declspec(allocator) void* _Allocate_manually_vector_aligned(const size_t _Bytes) {

  00000	55		 push	 ebp
  00001	8b ec		 mov	 ebp, esp
  00003	83 ec 0c	 sub	 esp, 12			; 0000000cH

; 114  :     // allocate _Bytes manually aligned to at least _Big_allocation_alignment
; 115  :     const size_t _Block_size = _Non_user_size + _Bytes;

  00006	8b 45 08	 mov	 eax, DWORD PTR __Bytes$[ebp]
  00009	83 c0 23	 add	 eax, 35			; 00000023H
  0000c	89 45 f8	 mov	 DWORD PTR __Block_size$[ebp], eax

; 116  :     if (_Block_size <= _Bytes) {

  0000f	8b 45 f8	 mov	 eax, DWORD PTR __Block_size$[ebp]
  00012	3b 45 08	 cmp	 eax, DWORD PTR __Bytes$[ebp]
  00015	77 05		 ja	 SHORT $LN12@Allocate_m

; 117  :         _Throw_bad_array_new_length(); // add overflow

  00017	e8 00 00 00 00	 call	 ?_Throw_bad_array_new_length@std@@YAXXZ ; std::_Throw_bad_array_new_length
$LN12@Allocate_m:

; 77   :         return ::operator new(_Bytes);

  0001c	ff 75 f8	 push	 DWORD PTR __Block_size$[ebp]
  0001f	e8 00 00 00 00	 call	 ??2@YAPAXI@Z		; operator new
  00024	59		 pop	 ecx

; 118  :     }
; 119  : 
; 120  :     const uintptr_t _Ptr_container = reinterpret_cast<uintptr_t>(_Traits::_Allocate(_Block_size));

  00025	89 45 fc	 mov	 DWORD PTR __Ptr_container$[ebp], eax
$LN4@Allocate_m:

; 121  :     _STL_VERIFY(_Ptr_container != 0, "invalid argument"); // validate even in release since we're doing p[-1]

  00028	83 7d fc 00	 cmp	 DWORD PTR __Ptr_container$[ebp], 0
  0002c	74 02		 je	 SHORT $LN7@Allocate_m
  0002e	eb 09		 jmp	 SHORT $LN2@Allocate_m
$LN7@Allocate_m:
  00030	e8 00 00 00 00	 call	 __invalid_parameter_noinfo_noreturn
  00035	33 c0		 xor	 eax, eax
  00037	75 f7		 jne	 SHORT $LN7@Allocate_m
$LN2@Allocate_m:
  00039	33 c0		 xor	 eax, eax
  0003b	75 eb		 jne	 SHORT $LN4@Allocate_m

; 122  :     void* const _Ptr = reinterpret_cast<void*>((_Ptr_container + _Non_user_size) & ~(_Big_allocation_alignment - 1));

  0003d	8b 45 fc	 mov	 eax, DWORD PTR __Ptr_container$[ebp]
  00040	83 c0 23	 add	 eax, 35			; 00000023H
  00043	83 e0 e0	 and	 eax, -32		; ffffffe0H
  00046	89 45 f4	 mov	 DWORD PTR __Ptr$[ebp], eax

; 123  :     static_cast<uintptr_t*>(_Ptr)[-1] = _Ptr_container;

  00049	6a 04		 push	 4
  0004b	58		 pop	 eax
  0004c	6b c0 ff	 imul	 eax, eax, -1
  0004f	8b 4d f4	 mov	 ecx, DWORD PTR __Ptr$[ebp]
  00052	8b 55 fc	 mov	 edx, DWORD PTR __Ptr_container$[ebp]
  00055	89 14 01	 mov	 DWORD PTR [ecx+eax], edx

; 124  : 
; 125  : #ifdef _DEBUG
; 126  :     static_cast<uintptr_t*>(_Ptr)[-2] = _Big_allocation_sentinel;
; 127  : #endif // _DEBUG
; 128  :     return _Ptr;

  00058	8b 45 f4	 mov	 eax, DWORD PTR __Ptr$[ebp]
$LN11@Allocate_m:

; 129  : }

  0005b	c9		 leave
  0005c	c3		 ret	 0
??$_Allocate_manually_vector_aligned@U_Default_allocate_traits@std@@@std@@YAPAXI@Z ENDP ; std::_Allocate_manually_vector_aligned<std::_Default_allocate_traits>
_TEXT	ENDS
; Function compile flags: /Odspy
; File C:\Program Files (x86)\Microsoft Visual Studio\2019\Community\VC\Tools\MSVC\14.28.29333\include\xmemory
;	COMDAT ??$_Allocate@$07U_Default_allocate_traits@std@@$0A@@std@@YAPAXI@Z
_TEXT	SEGMENT
__Bytes$ = 8						; size = 4
??$_Allocate@$07U_Default_allocate_traits@std@@$0A@@std@@YAPAXI@Z PROC ; std::_Allocate<8,std::_Default_allocate_traits,0>, COMDAT

; 197  : __declspec(allocator) void* _Allocate(const size_t _Bytes) {

  00000	55		 push	 ebp
  00001	8b ec		 mov	 ebp, esp

; 198  :     // allocate _Bytes when !_HAS_ALIGNED_NEW || _Align <= __STDCPP_DEFAULT_NEW_ALIGNMENT__
; 199  : #if defined(_M_IX86) || defined(_M_X64)
; 200  :     if (_Bytes >= _Big_allocation_threshold) { // boost the alignment of big allocations to help autovectorization

  00003	81 7d 08 00 10
	00 00		 cmp	 DWORD PTR __Bytes$[ebp], 4096 ; 00001000H
  0000a	72 0b		 jb	 SHORT $LN2@Allocate

; 201  :         return _Allocate_manually_vector_aligned<_Traits>(_Bytes);

  0000c	ff 75 08	 push	 DWORD PTR __Bytes$[ebp]
  0000f	e8 00 00 00 00	 call	 ??$_Allocate_manually_vector_aligned@U_Default_allocate_traits@std@@@std@@YAPAXI@Z ; std::_Allocate_manually_vector_aligned<std::_Default_allocate_traits>
  00014	59		 pop	 ecx
  00015	eb 13		 jmp	 SHORT $LN1@Allocate
$LN2@Allocate:

; 202  :     }
; 203  : #endif // defined(_M_IX86) || defined(_M_X64)
; 204  : 
; 205  :     if (_Bytes != 0) {

  00017	83 7d 08 00	 cmp	 DWORD PTR __Bytes$[ebp], 0
  0001b	74 0b		 je	 SHORT $LN3@Allocate

; 77   :         return ::operator new(_Bytes);

  0001d	ff 75 08	 push	 DWORD PTR __Bytes$[ebp]
  00020	e8 00 00 00 00	 call	 ??2@YAPAXI@Z		; operator new
  00025	59		 pop	 ecx

; 206  :         return _Traits::_Allocate(_Bytes);

  00026	eb 02		 jmp	 SHORT $LN1@Allocate
$LN3@Allocate:

; 207  :     }
; 208  : 
; 209  :     return nullptr;

  00028	33 c0		 xor	 eax, eax
$LN1@Allocate:

; 210  : }

  0002a	5d		 pop	 ebp
  0002b	c3		 ret	 0
??$_Allocate@$07U_Default_allocate_traits@std@@$0A@@std@@YAPAXI@Z ENDP ; std::_Allocate<8,std::_Default_allocate_traits,0>
_TEXT	ENDS
; Function compile flags: /Odspy
; File C:\Program Files (x86)\Microsoft Visual Studio\2019\Community\VC\Tools\MSVC\14.28.29333\include\xmemory
;	COMDAT ??$_Deallocate@$07$0A@@std@@YAXPAXI@Z
_TEXT	SEGMENT
__$EHRec$ = -12						; size = 12
__Ptr$ = 8						; size = 4
__Bytes$ = 12						; size = 4
??$_Deallocate@$07$0A@@std@@YAXPAXI@Z PROC		; std::_Deallocate<8,0>, COMDAT

; 213  : void _Deallocate(void* _Ptr, size_t _Bytes) noexcept {

  00000	55		 push	 ebp
  00001	8b ec		 mov	 ebp, esp
  00003	6a ff		 push	 -1
  00005	68 00 00 00 00	 push	 __ehhandler$??$_Deallocate@$07$0A@@std@@YAXPAXI@Z
  0000a	64 a1 00 00 00
	00		 mov	 eax, DWORD PTR fs:0
  00010	50		 push	 eax
  00011	a1 00 00 00 00	 mov	 eax, DWORD PTR ___security_cookie
  00016	33 c5		 xor	 eax, ebp
  00018	50		 push	 eax
  00019	8d 45 f4	 lea	 eax, DWORD PTR __$EHRec$[ebp]
  0001c	64 a3 00 00 00
	00		 mov	 DWORD PTR fs:0, eax

; 214  :     // deallocate storage allocated by _Allocate when !_HAS_ALIGNED_NEW || _Align <= __STDCPP_DEFAULT_NEW_ALIGNMENT__
; 215  : #if defined(_M_IX86) || defined(_M_X64)
; 216  :     if (_Bytes >= _Big_allocation_threshold) { // boost the alignment of big allocations to help autovectorization

  00022	81 7d 0c 00 10
	00 00		 cmp	 DWORD PTR __Bytes$[ebp], 4096 ; 00001000H
  00029	72 0f		 jb	 SHORT $LN2@Deallocate

; 217  :         _Adjust_manually_vector_aligned(_Ptr, _Bytes);

  0002b	8d 45 0c	 lea	 eax, DWORD PTR __Bytes$[ebp]
  0002e	50		 push	 eax
  0002f	8d 45 08	 lea	 eax, DWORD PTR __Ptr$[ebp]
  00032	50		 push	 eax
  00033	e8 00 00 00 00	 call	 ?_Adjust_manually_vector_aligned@std@@YAXAAPAXAAI@Z ; std::_Adjust_manually_vector_aligned
  00038	59		 pop	 ecx
  00039	59		 pop	 ecx
$LN2@Deallocate:

; 218  :     }
; 219  : #endif // defined(_M_IX86) || defined(_M_X64)
; 220  : 
; 221  :     ::operator delete(_Ptr, _Bytes);

  0003a	ff 75 0c	 push	 DWORD PTR __Bytes$[ebp]
  0003d	ff 75 08	 push	 DWORD PTR __Ptr$[ebp]
  00040	e8 00 00 00 00	 call	 ??3@YAXPAXI@Z		; operator delete
  00045	59		 pop	 ecx
  00046	59		 pop	 ecx

; 222  : }

  00047	8b 4d f4	 mov	 ecx, DWORD PTR __$EHRec$[ebp]
  0004a	64 89 0d 00 00
	00 00		 mov	 DWORD PTR fs:0, ecx
  00051	59		 pop	 ecx
  00052	c9		 leave
  00053	c3		 ret	 0
  00054	cc		 int	 3
  00055	cc		 int	 3
  00056	cc		 int	 3
  00057	cc		 int	 3
  00058	cc		 int	 3
_TEXT	ENDS
;	COMDAT text$x
text$x	SEGMENT
__ehhandler$??$_Deallocate@$07$0A@@std@@YAXPAXI@Z:
  00000	90		 npad	 1
  00001	90		 npad	 1
  00002	8b 54 24 08	 mov	 edx, DWORD PTR [esp+8]
  00006	8d 42 0c	 lea	 eax, DWORD PTR [edx+12]
  00009	8b 4a fc	 mov	 ecx, DWORD PTR [edx-4]
  0000c	33 c8		 xor	 ecx, eax
  0000e	e8 00 00 00 00	 call	 @__security_check_cookie@4
  00013	b8 00 00 00 00	 mov	 eax, OFFSET __ehfuncinfo$??$_Deallocate@$07$0A@@std@@YAXPAXI@Z
  00018	e9 00 00 00 00	 jmp	 ___CxxFrameHandler3
text$x	ENDS
??$_Deallocate@$07$0A@@std@@YAXPAXI@Z ENDP		; std::_Deallocate<8,0>
; Function compile flags: /Odspy
; File C:\Program Files (x86)\Microsoft Visual Studio\2019\Community\VC\Tools\MSVC\14.28.29333\include\xmemory
; File C:\Program Files (x86)\Microsoft Visual Studio\2019\Community\VC\Tools\MSVC\14.28.29333\include\xstddef
; File C:\Program Files (x86)\Microsoft Visual Studio\2019\Community\VC\Tools\MSVC\14.28.29333\include\vcruntime_new.h
; File C:\Program Files (x86)\Microsoft Visual Studio\2019\Community\VC\Tools\MSVC\14.28.29333\include\type_traits
; File C:\Program Files (x86)\Microsoft Visual Studio\2019\Community\VC\Tools\MSVC\14.28.29333\include\xmemory
;	COMDAT ??$_Construct_in_place@PADABQAD@std@@YAXAAPADABQAD@Z
_TEXT	SEGMENT
$T1 = -12						; size = 4
$T2 = -8						; size = 4
$T3 = -4						; size = 4
__Obj$ = 8						; size = 4
_<_Args_0>$ = 12					; size = 4
??$_Construct_in_place@PADABQAD@std@@YAXAAPADABQAD@Z PROC ; std::_Construct_in_place<char *,char * const &>, COMDAT

; 228  : void _Construct_in_place(_Ty& _Obj, _Types&&... _Args) noexcept(is_nothrow_constructible_v<_Ty, _Types...>) {

  00000	55		 push	 ebp
  00001	8b ec		 mov	 ebp, esp
  00003	83 ec 0c	 sub	 esp, 12			; 0000000cH
; File C:\Program Files (x86)\Microsoft Visual Studio\2019\Community\VC\Tools\MSVC\14.28.29333\include\xstddef

; 275  :     return __builtin_addressof(_Val);

  00006	8b 45 08	 mov	 eax, DWORD PTR __Obj$[ebp]
  00009	89 45 fc	 mov	 DWORD PTR $T3[ebp], eax
; File C:\Program Files (x86)\Microsoft Visual Studio\2019\Community\VC\Tools\MSVC\14.28.29333\include\vcruntime_new.h

; 169  :         return _Where;

  0000c	8b 45 fc	 mov	 eax, DWORD PTR $T3[ebp]
  0000f	89 45 f8	 mov	 DWORD PTR $T2[ebp], eax
; File C:\Program Files (x86)\Microsoft Visual Studio\2019\Community\VC\Tools\MSVC\14.28.29333\include\type_traits

; 1443 :     return static_cast<_Ty&&>(_Arg);

  00012	8b 45 0c	 mov	 eax, DWORD PTR _<_Args_0>$[ebp]
  00015	89 45 f4	 mov	 DWORD PTR $T1[ebp], eax
; File C:\Program Files (x86)\Microsoft Visual Studio\2019\Community\VC\Tools\MSVC\14.28.29333\include\xmemory

; 229  :     ::new (const_cast<void*>(static_cast<const volatile void*>(_STD addressof(_Obj))))

  00018	8b 45 f8	 mov	 eax, DWORD PTR $T2[ebp]
  0001b	8b 4d f4	 mov	 ecx, DWORD PTR $T1[ebp]
  0001e	8b 09		 mov	 ecx, DWORD PTR [ecx]
  00020	89 08		 mov	 DWORD PTR [eax], ecx

; 230  :         _Ty(_STD forward<_Types>(_Args)...);
; 231  : }

  00022	c9		 leave
  00023	c3		 ret	 0
??$_Construct_in_place@PADABQAD@std@@YAXAAPADABQAD@Z ENDP ; std::_Construct_in_place<char *,char * const &>
_TEXT	ENDS
; Function compile flags: /Odspy
; File C:\Program Files (x86)\Microsoft Visual Studio\2019\Community\VC\Tools\MSVC\14.28.29333\include\xstring
; File C:\Program Files (x86)\Microsoft Visual Studio\2019\Community\VC\Tools\MSVC\14.28.29333\include\xmemory
; File C:\Program Files (x86)\Microsoft Visual Studio\2019\Community\VC\Tools\MSVC\14.28.29333\include\xstring
; File C:\Program Files (x86)\Microsoft Visual Studio\2019\Community\VC\Tools\MSVC\14.28.29333\include\xmemory
; File C:\Program Files (x86)\Microsoft Visual Studio\2019\Community\VC\Tools\MSVC\14.28.29333\include\xstring
; File C:\Program Files (x86)\Microsoft Visual Studio\2019\Community\VC\Tools\MSVC\14.28.29333\include\xmemory
; File C:\Program Files (x86)\Microsoft Visual Studio\2019\Community\VC\Tools\MSVC\14.28.29333\include\xstring
; File C:\Program Files (x86)\Microsoft Visual Studio\2019\Community\VC\Tools\MSVC\14.28.29333\include\xstddef
; File C:\Program Files (x86)\Microsoft Visual Studio\2019\Community\VC\Tools\MSVC\14.28.29333\include\xstring
; File C:\Program Files (x86)\Microsoft Visual Studio\2019\Community\VC\Tools\MSVC\14.28.29333\include\xmemory
; File C:\Program Files (x86)\Microsoft Visual Studio\2019\Community\VC\Tools\MSVC\14.28.29333\include\xstring
;	COMDAT ??$_Reallocate_for@V<lambda_9366063389c5f42a00a5088cf24e69de>@@PBD@?$basic_string@DU?$char_traits@D@std@@V?$allocator@D@2@@std@@AAEAAV01@IV<lambda_9366063389c5f42a00a5088cf24e69de>@@PBD@Z
_TEXT	SEGMENT
__Al$ = -40						; size = 4
__Ptr$ = -36						; size = 4
__Ptr$ = -32						; size = 4
$T1 = -28						; size = 4
__Old_capacity$ = -24					; size = 4
$T2 = -20						; size = 4
__New_capacity$ = -16					; size = 4
__New_ptr$ = -12					; size = 4
_this$ = -8						; size = 4
__Overflow_is_possible$3 = -2				; size = 1
$T4 = -1						; size = 1
__New_size$ = 8						; size = 4
__Fn$ = 12						; size = 1
_<_Args_0>$ = 16					; size = 4
??$_Reallocate_for@V<lambda_9366063389c5f42a00a5088cf24e69de>@@PBD@?$basic_string@DU?$char_traits@D@std@@V?$allocator@D@2@@std@@AAEAAV01@IV<lambda_9366063389c5f42a00a5088cf24e69de>@@PBD@Z PROC ; std::basic_string<char,std::char_traits<char>,std::allocator<char> >::_Reallocate_for<<lambda_9366063389c5f42a00a5088cf24e69de>,char const *>, COMDAT
; _this$ = ecx

; 4302 :     basic_string& _Reallocate_for(const size_type _New_size, _Fty _Fn, _ArgTys... _Args) {

  00000	55		 push	 ebp
  00001	8b ec		 mov	 ebp, esp
  00003	83 ec 28	 sub	 esp, 40			; 00000028H
  00006	89 4d f8	 mov	 DWORD PTR _this$[ebp], ecx

; 4303 :         // reallocate to store exactly _New_size elements, new buffer prepared by
; 4304 :         // _Fn(_New_ptr, _New_size, _Args...)
; 4305 :         if (_New_size > max_size()) {

  00009	8b 4d f8	 mov	 ecx, DWORD PTR _this$[ebp]
  0000c	e8 00 00 00 00	 call	 ?max_size@?$basic_string@DU?$char_traits@D@std@@V?$allocator@D@2@@std@@QBEIXZ ; std::basic_string<char,std::char_traits<char>,std::allocator<char> >::max_size
  00011	39 45 08	 cmp	 DWORD PTR __New_size$[ebp], eax
  00014	76 05		 jbe	 SHORT $LN2@Reallocate

; 4306 :             _Xlen_string(); // result too long

  00016	e8 00 00 00 00	 call	 ?_Xlen_string@std@@YAXXZ ; std::_Xlen_string
$LN2@Reallocate:

; 4307 :         }
; 4308 : 
; 4309 :         const size_type _Old_capacity = _Mypair._Myval2._Myres;

  0001b	8b 45 f8	 mov	 eax, DWORD PTR _this$[ebp]
  0001e	8b 40 14	 mov	 eax, DWORD PTR [eax+20]
  00021	89 45 e8	 mov	 DWORD PTR __Old_capacity$[ebp], eax

; 4310 :         const size_type _New_capacity = _Calculate_growth(_New_size);

  00024	ff 75 08	 push	 DWORD PTR __New_size$[ebp]
  00027	8b 4d f8	 mov	 ecx, DWORD PTR _this$[ebp]
  0002a	e8 00 00 00 00	 call	 ?_Calculate_growth@?$basic_string@DU?$char_traits@D@std@@V?$allocator@D@2@@std@@ABEII@Z ; std::basic_string<char,std::char_traits<char>,std::allocator<char> >::_Calculate_growth
  0002f	89 45 f0	 mov	 DWORD PTR __New_capacity$[ebp], eax

; 4409 :         return _Mypair._Get_first();

  00032	8b 45 f8	 mov	 eax, DWORD PTR _this$[ebp]
; File C:\Program Files (x86)\Microsoft Visual Studio\2019\Community\VC\Tools\MSVC\14.28.29333\include\xmemory

; 1347 :         return *this;

  00035	89 45 e4	 mov	 DWORD PTR $T1[ebp], eax
; File C:\Program Files (x86)\Microsoft Visual Studio\2019\Community\VC\Tools\MSVC\14.28.29333\include\xstring

; 4409 :         return _Mypair._Get_first();

  00038	8b 45 e4	 mov	 eax, DWORD PTR $T1[ebp]
  0003b	89 45 d8	 mov	 DWORD PTR __Al$[ebp], eax
; File C:\Program Files (x86)\Microsoft Visual Studio\2019\Community\VC\Tools\MSVC\14.28.29333\include\xmemory

; 56   :     constexpr bool _Overflow_is_possible = _Ty_size > 1;

  0003e	c6 45 fe 00	 mov	 BYTE PTR __Overflow_is_possible$3[ebp], 0
; File C:\Program Files (x86)\Microsoft Visual Studio\2019\Community\VC\Tools\MSVC\14.28.29333\include\xstring

; 4312 :         const pointer _New_ptr        = _Al.allocate(_New_capacity + 1); // throws

  00042	8b 45 f0	 mov	 eax, DWORD PTR __New_capacity$[ebp]
  00045	40		 inc	 eax
; File C:\Program Files (x86)\Microsoft Visual Studio\2019\Community\VC\Tools\MSVC\14.28.29333\include\xmemory

; 814  :         return static_cast<_Ty*>(_Allocate<_New_alignof<_Ty>>(_Get_size_of_n<sizeof(_Ty)>(_Count)));

  00046	50		 push	 eax
  00047	e8 00 00 00 00	 call	 ??$_Allocate@$07U_Default_allocate_traits@std@@$0A@@std@@YAPAXI@Z ; std::_Allocate<8,std::_Default_allocate_traits,0>
  0004c	59		 pop	 ecx
; File C:\Program Files (x86)\Microsoft Visual Studio\2019\Community\VC\Tools\MSVC\14.28.29333\include\xstring

; 4312 :         const pointer _New_ptr        = _Al.allocate(_New_capacity + 1); // throws

  0004d	89 45 f4	 mov	 DWORD PTR __New_ptr$[ebp], eax

; 4313 :         _Mypair._Myval2._Orphan_all();
; 4314 :         _Mypair._Myval2._Mysize = _New_size;

  00050	8b 45 f8	 mov	 eax, DWORD PTR _this$[ebp]
  00053	8b 4d 08	 mov	 ecx, DWORD PTR __New_size$[ebp]
  00056	89 48 10	 mov	 DWORD PTR [eax+16], ecx

; 4315 :         _Mypair._Myval2._Myres  = _New_capacity;

  00059	8b 45 f8	 mov	 eax, DWORD PTR _this$[ebp]
  0005c	8b 4d f0	 mov	 ecx, DWORD PTR __New_capacity$[ebp]
  0005f	89 48 14	 mov	 DWORD PTR [eax+20], ecx

; 4316 :         _Fn(_Unfancy(_New_ptr), _New_size, _Args...);

  00062	8b 45 f4	 mov	 eax, DWORD PTR __New_ptr$[ebp]
  00065	89 45 e0	 mov	 DWORD PTR __Ptr$[ebp], eax
; File C:\Program Files (x86)\Microsoft Visual Studio\2019\Community\VC\Tools\MSVC\14.28.29333\include\xstddef

; 289  :     return _Ptr;

  00068	8b 45 e0	 mov	 eax, DWORD PTR __Ptr$[ebp]
  0006b	89 45 ec	 mov	 DWORD PTR $T2[ebp], eax
; File C:\Program Files (x86)\Microsoft Visual Studio\2019\Community\VC\Tools\MSVC\14.28.29333\include\xstring

; 62   :         _CSTD memcpy(_First1, _First2, _Count * sizeof(_Elem));

  0006e	ff 75 08	 push	 DWORD PTR __New_size$[ebp]
  00071	ff 75 10	 push	 DWORD PTR _<_Args_0>$[ebp]
  00074	ff 75 ec	 push	 DWORD PTR $T2[ebp]
  00077	e8 00 00 00 00	 call	 _memcpy
  0007c	83 c4 0c	 add	 esp, 12			; 0000000cH

; 3056 :                 _Traits::assign(_New_ptr[_Count], _Elem());

  0007f	c6 45 ff 00	 mov	 BYTE PTR $T4[ebp], 0

; 428  :         _Left = _Right;

  00083	8b 45 ec	 mov	 eax, DWORD PTR $T2[ebp]
  00086	03 45 08	 add	 eax, DWORD PTR __New_size$[ebp]
  00089	8a 4d ff	 mov	 cl, BYTE PTR $T4[ebp]
  0008c	88 08		 mov	 BYTE PTR [eax], cl

; 4317 :         if (_BUF_SIZE <= _Old_capacity) {

  0008e	83 7d e8 10	 cmp	 DWORD PTR __Old_capacity$[ebp], 16 ; 00000010H
  00092	72 21		 jb	 SHORT $LN3@Reallocate

; 4318 :             _Al.deallocate(_Mypair._Myval2._Bx._Ptr, _Old_capacity + 1);

  00094	8b 45 f8	 mov	 eax, DWORD PTR _this$[ebp]
  00097	8b 00		 mov	 eax, DWORD PTR [eax]
  00099	89 45 dc	 mov	 DWORD PTR __Ptr$[ebp], eax
  0009c	8b 45 e8	 mov	 eax, DWORD PTR __Old_capacity$[ebp]
  0009f	40		 inc	 eax
; File C:\Program Files (x86)\Microsoft Visual Studio\2019\Community\VC\Tools\MSVC\14.28.29333\include\xmemory

; 810  :         _Deallocate<_New_alignof<_Ty>>(_Ptr, sizeof(_Ty) * _Count);

  000a0	50		 push	 eax
  000a1	ff 75 dc	 push	 DWORD PTR __Ptr$[ebp]
  000a4	e8 00 00 00 00	 call	 ??$_Deallocate@$07$0A@@std@@YAXPAXI@Z ; std::_Deallocate<8,0>
  000a9	59		 pop	 ecx
  000aa	59		 pop	 ecx
; File C:\Program Files (x86)\Microsoft Visual Studio\2019\Community\VC\Tools\MSVC\14.28.29333\include\xstring

; 4319 :             _Mypair._Myval2._Bx._Ptr = _New_ptr;

  000ab	8b 45 f8	 mov	 eax, DWORD PTR _this$[ebp]
  000ae	8b 4d f4	 mov	 ecx, DWORD PTR __New_ptr$[ebp]
  000b1	89 08		 mov	 DWORD PTR [eax], ecx

; 4320 :         } else {

  000b3	eb 0e		 jmp	 SHORT $LN4@Reallocate
$LN3@Reallocate:

; 4321 :             _Construct_in_place(_Mypair._Myval2._Bx._Ptr, _New_ptr);

  000b5	8d 45 f4	 lea	 eax, DWORD PTR __New_ptr$[ebp]
  000b8	50		 push	 eax
  000b9	ff 75 f8	 push	 DWORD PTR _this$[ebp]
  000bc	e8 00 00 00 00	 call	 ??$_Construct_in_place@PADABQAD@std@@YAXAAPADABQAD@Z ; std::_Construct_in_place<char *,char * const &>
  000c1	59		 pop	 ecx
  000c2	59		 pop	 ecx
$LN4@Reallocate:

; 4322 :         }
; 4323 : 
; 4324 :         return *this;

  000c3	8b 45 f8	 mov	 eax, DWORD PTR _this$[ebp]
$LN5@Reallocate:

; 4325 :     }

  000c6	c9		 leave
  000c7	c2 0c 00	 ret	 12			; 0000000cH
??$_Reallocate_for@V<lambda_9366063389c5f42a00a5088cf24e69de>@@PBD@?$basic_string@DU?$char_traits@D@std@@V?$allocator@D@2@@std@@AAEAAV01@IV<lambda_9366063389c5f42a00a5088cf24e69de>@@PBD@Z ENDP ; std::basic_string<char,std::char_traits<char>,std::allocator<char> >::_Reallocate_for<<lambda_9366063389c5f42a00a5088cf24e69de>,char const *>
_TEXT	ENDS
; Function compile flags: /Odspy
; File C:\Program Files (x86)\Microsoft Visual Studio\2019\Community\VC\Tools\MSVC\14.28.29333\include\xmemory
;	COMDAT ??$_Destroy_in_place@PAD@std@@YAXAAPAD@Z
_TEXT	SEGMENT
__Obj$ = 8						; size = 4
??$_Destroy_in_place@PAD@std@@YAXAAPAD@Z PROC		; std::_Destroy_in_place<char *>, COMDAT

; 270  : /* _CONSTEXPR20_DYNALLOC */ void _Destroy_in_place(_Ty& _Obj) noexcept {

  00000	55		 push	 ebp
  00001	8b ec		 mov	 ebp, esp

; 271  : #if _HAS_IF_CONSTEXPR
; 272  :     if constexpr (is_array_v<_Ty>) {
; 273  :         _Destroy_range(_Obj, _Obj + extent_v<_Ty>);
; 274  :     } else
; 275  : #endif // _HAS_IF_CONSTEXPR
; 276  :     {
; 277  :         _Obj.~_Ty();
; 278  :     }
; 279  : }

  00003	5d		 pop	 ebp
  00004	c3		 ret	 0
??$_Destroy_in_place@PAD@std@@YAXAAPAD@Z ENDP		; std::_Destroy_in_place<char *>
_TEXT	ENDS
; Function compile flags: /Odspy
; File D:\Metin2 Server Files\mainline\SRC_2014\Metin2Client\UserInterface\PythonMessenger.cpp
;	COMDAT ?initMessenger@@YAXXZ
_TEXT	SEGMENT
?initMessenger@@YAXXZ PROC				; initMessenger, COMDAT

; 156  : {

  00000	55		 push	 ebp
  00001	8b ec		 mov	 ebp, esp

; 157  : 	static PyMethodDef s_methods[] =
; 158  : 	{
; 159  : 		{ "RemoveFriend",				messengerRemoveFriend,				METH_VARARGS },
; 160  : 		{ "IsFriendByName",				messengerIsFriendByName,			METH_VARARGS } ,
; 161  : 		{ "Destroy",					messengerDestroy,					METH_VARARGS },
; 162  : 		{ "RefreshGuildMember",			messengerRefreshGuildMember,		METH_VARARGS },
; 163  : 		{ "SetMessengerHandler",		messengerSetMessengerHandler,		METH_VARARGS },
; 164  : 		{ NULL,							NULL,								NULL         },
; 165  : 	};
; 166  : 
; 167  : 	Py_InitModule("messenger", s_methods);

  00003	68 f5 03 00 00	 push	 1013			; 000003f5H
  00008	6a 00		 push	 0
  0000a	6a 00		 push	 0
  0000c	68 00 00 00 00	 push	 OFFSET ?s_methods@?1??initMessenger@@YAXXZ@4PAUPyMethodDef@@A
  00011	68 00 00 00 00	 push	 OFFSET ??_C@_09FKBIAKKH@messenger@
  00016	ff 15 00 00 00
	00		 call	 DWORD PTR __imp__Py_InitModule4
  0001c	83 c4 14	 add	 esp, 20			; 00000014H

; 168  : }

  0001f	5d		 pop	 ebp
  00020	c3		 ret	 0
?initMessenger@@YAXXZ ENDP				; initMessenger
_TEXT	ENDS
; Function compile flags: /Odspy
; File C:\Program Files (x86)\Microsoft Visual Studio\2019\Community\VC\Tools\MSVC\14.28.29333\include\xtree
;	COMDAT ?_Throw_tree_length_error@std@@YAXXZ
_TEXT	SEGMENT
?_Throw_tree_length_error@std@@YAXXZ PROC		; std::_Throw_tree_length_error, COMDAT

; 414  : [[noreturn]] inline void _Throw_tree_length_error() {

  00000	55		 push	 ebp
  00001	8b ec		 mov	 ebp, esp

; 415  :     _Xlength_error("map/set too long");

  00003	68 00 00 00 00	 push	 OFFSET ??_C@_0BB@GCADKGJO@map?1set?5too?5long@
  00008	e8 00 00 00 00	 call	 ?_Xlength_error@std@@YAXPBD@Z ; std::_Xlength_error
$LN2@Throw_tree:

; 416  : }

  0000d	5d		 pop	 ebp
  0000e	c3		 ret	 0
?_Throw_tree_length_error@std@@YAXXZ ENDP		; std::_Throw_tree_length_error
_TEXT	ENDS
; Function compile flags: /Odspy
;	COMDAT ??1?$_Compressed_pair@V?$allocator@D@std@@V?$_String_val@U?$_Simple_types@D@std@@@2@$00@std@@QAE@XZ
_TEXT	SEGMENT
_this$ = -4						; size = 4
??1?$_Compressed_pair@V?$allocator@D@std@@V?$_String_val@U?$_Simple_types@D@std@@@2@$00@std@@QAE@XZ PROC ; std::_Compressed_pair<std::allocator<char>,std::_String_val<std::_Simple_types<char> >,1>::~_Compressed_pair<std::allocator<char>,std::_String_val<std::_Simple_types<char> >,1>, COMDAT
; _this$ = ecx
  00000	55		 push	 ebp
  00001	8b ec		 mov	 ebp, esp
  00003	51		 push	 ecx
  00004	89 4d fc	 mov	 DWORD PTR _this$[ebp], ecx
  00007	c9		 leave
  00008	c3		 ret	 0
??1?$_Compressed_pair@V?$allocator@D@std@@V?$_String_val@U?$_Simple_types@D@std@@@2@$00@std@@QAE@XZ ENDP ; std::_Compressed_pair<std::allocator<char>,std::_String_val<std::_Simple_types<char> >,1>::~_Compressed_pair<std::allocator<char>,std::_String_val<std::_Simple_types<char> >,1>
_TEXT	ENDS
; Function compile flags: /Odspy
; File C:\Program Files (x86)\Microsoft Visual Studio\2019\Community\VC\Tools\MSVC\14.28.29333\include\xstring
; File C:\Program Files (x86)\Microsoft Visual Studio\2019\Community\VC\Tools\MSVC\14.28.29333\include\xmemory
; File C:\Program Files (x86)\Microsoft Visual Studio\2019\Community\VC\Tools\MSVC\14.28.29333\include\xstring
; File C:\Program Files (x86)\Microsoft Visual Studio\2019\Community\VC\Tools\MSVC\14.28.29333\include\xmemory
; File C:\Program Files (x86)\Microsoft Visual Studio\2019\Community\VC\Tools\MSVC\14.28.29333\include\xstring
;	COMDAT ?_Tidy_deallocate@?$basic_string@DU?$char_traits@D@std@@V?$allocator@D@2@@std@@AAEXXZ
_TEXT	SEGMENT
__Al$1 = -28						; size = 4
__Ptr$2 = -24						; size = 4
__Count$ = -20						; size = 4
$T3 = -16						; size = 4
tv68 = -12						; size = 4
_this$ = -8						; size = 4
$T4 = -2						; size = 1
$T5 = -1						; size = 1
?_Tidy_deallocate@?$basic_string@DU?$char_traits@D@std@@V?$allocator@D@2@@std@@AAEXXZ PROC ; std::basic_string<char,std::char_traits<char>,std::allocator<char> >::_Tidy_deallocate, COMDAT
; _this$ = ecx

; 4383 :     void _Tidy_deallocate() noexcept { // initialize buffer, deallocating any storage

  00000	55		 push	 ebp
  00001	8b ec		 mov	 ebp, esp
  00003	83 ec 1c	 sub	 esp, 28			; 0000001cH
  00006	89 4d f8	 mov	 DWORD PTR _this$[ebp], ecx

; 2227 :         return _BUF_SIZE <= _Myres;

  00009	8b 45 f8	 mov	 eax, DWORD PTR _this$[ebp]
  0000c	83 78 14 10	 cmp	 DWORD PTR [eax+20], 16	; 00000010H
  00010	72 09		 jb	 SHORT $LN9@Tidy_deall
  00012	c7 45 f4 01 00
	00 00		 mov	 DWORD PTR tv68[ebp], 1
  00019	eb 04		 jmp	 SHORT $LN10@Tidy_deall
$LN9@Tidy_deall:
  0001b	83 65 f4 00	 and	 DWORD PTR tv68[ebp], 0
$LN10@Tidy_deall:
  0001f	8a 45 f4	 mov	 al, BYTE PTR tv68[ebp]
  00022	88 45 ff	 mov	 BYTE PTR $T5[ebp], al

; 4384 :         _Mypair._Myval2._Orphan_all();
; 4385 :         if (_Mypair._Myval2._Large_string_engaged()) {

  00025	0f b6 45 ff	 movzx	 eax, BYTE PTR $T5[ebp]
  00029	85 c0		 test	 eax, eax
  0002b	74 34		 je	 SHORT $LN2@Tidy_deall

; 4386 :             const pointer _Ptr = _Mypair._Myval2._Bx._Ptr;

  0002d	8b 45 f8	 mov	 eax, DWORD PTR _this$[ebp]
  00030	8b 00		 mov	 eax, DWORD PTR [eax]
  00032	89 45 e8	 mov	 DWORD PTR __Ptr$2[ebp], eax

; 4409 :         return _Mypair._Get_first();

  00035	8b 45 f8	 mov	 eax, DWORD PTR _this$[ebp]
; File C:\Program Files (x86)\Microsoft Visual Studio\2019\Community\VC\Tools\MSVC\14.28.29333\include\xmemory

; 1347 :         return *this;

  00038	89 45 f0	 mov	 DWORD PTR $T3[ebp], eax
; File C:\Program Files (x86)\Microsoft Visual Studio\2019\Community\VC\Tools\MSVC\14.28.29333\include\xstring

; 4409 :         return _Mypair._Get_first();

  0003b	8b 45 f0	 mov	 eax, DWORD PTR $T3[ebp]
  0003e	89 45 e4	 mov	 DWORD PTR __Al$1[ebp], eax

; 4387 :             auto& _Al          = _Getal();
; 4388 :             _Destroy_in_place(_Mypair._Myval2._Bx._Ptr);

  00041	ff 75 f8	 push	 DWORD PTR _this$[ebp]
  00044	e8 00 00 00 00	 call	 ??$_Destroy_in_place@PAD@std@@YAXAAPAD@Z ; std::_Destroy_in_place<char *>
  00049	59		 pop	 ecx

; 4389 :             _Al.deallocate(_Ptr, _Mypair._Myval2._Myres + 1);

  0004a	8b 45 f8	 mov	 eax, DWORD PTR _this$[ebp]
  0004d	8b 40 14	 mov	 eax, DWORD PTR [eax+20]
  00050	40		 inc	 eax
  00051	89 45 ec	 mov	 DWORD PTR __Count$[ebp], eax
; File C:\Program Files (x86)\Microsoft Visual Studio\2019\Community\VC\Tools\MSVC\14.28.29333\include\xmemory

; 810  :         _Deallocate<_New_alignof<_Ty>>(_Ptr, sizeof(_Ty) * _Count);

  00054	ff 75 ec	 push	 DWORD PTR __Count$[ebp]
  00057	ff 75 e8	 push	 DWORD PTR __Ptr$2[ebp]
  0005a	e8 00 00 00 00	 call	 ??$_Deallocate@$07$0A@@std@@YAXPAXI@Z ; std::_Deallocate<8,0>
  0005f	59		 pop	 ecx
  00060	59		 pop	 ecx
$LN2@Tidy_deall:
; File C:\Program Files (x86)\Microsoft Visual Studio\2019\Community\VC\Tools\MSVC\14.28.29333\include\xstring

; 4392 :         _Mypair._Myval2._Mysize = 0;

  00061	8b 45 f8	 mov	 eax, DWORD PTR _this$[ebp]
  00064	83 60 10 00	 and	 DWORD PTR [eax+16], 0

; 4393 :         _Mypair._Myval2._Myres  = _BUF_SIZE - 1;

  00068	8b 45 f8	 mov	 eax, DWORD PTR _this$[ebp]
  0006b	c7 40 14 0f 00
	00 00		 mov	 DWORD PTR [eax+20], 15	; 0000000fH

; 4394 :         // the _Traits::assign is last so the codegen doesn't think the char write can alias this
; 4395 :         _Traits::assign(_Mypair._Myval2._Bx._Buf[0], _Elem());

  00072	c6 45 fe 00	 mov	 BYTE PTR $T4[ebp], 0
  00076	33 c0		 xor	 eax, eax
  00078	40		 inc	 eax
  00079	6b c0 00	 imul	 eax, eax, 0

; 428  :         _Left = _Right;

  0007c	8b 4d f8	 mov	 ecx, DWORD PTR _this$[ebp]
  0007f	8a 55 fe	 mov	 dl, BYTE PTR $T4[ebp]
  00082	88 14 01	 mov	 BYTE PTR [ecx+eax], dl

; 4396 :     }

  00085	c9		 leave
  00086	c3		 ret	 0
?_Tidy_deallocate@?$basic_string@DU?$char_traits@D@std@@V?$allocator@D@2@@std@@AAEXXZ ENDP ; std::basic_string<char,std::char_traits<char>,std::allocator<char> >::_Tidy_deallocate
_TEXT	ENDS
; Function compile flags: /Odspy
; File C:\Program Files (x86)\Microsoft Visual Studio\2019\Community\VC\Tools\MSVC\14.28.29333\include\xstring
;	COMDAT ?_Tidy_init@?$basic_string@DU?$char_traits@D@std@@V?$allocator@D@2@@std@@AAEXXZ
_TEXT	SEGMENT
_this$ = -8						; size = 4
$T1 = -1						; size = 1
?_Tidy_init@?$basic_string@DU?$char_traits@D@std@@V?$allocator@D@2@@std@@AAEXXZ PROC ; std::basic_string<char,std::char_traits<char>,std::allocator<char> >::_Tidy_init, COMDAT
; _this$ = ecx

; 4376 :     void _Tidy_init() noexcept { // initialize basic_string data members

  00000	55		 push	 ebp
  00001	8b ec		 mov	 ebp, esp
  00003	51		 push	 ecx
  00004	51		 push	 ecx
  00005	89 4d f8	 mov	 DWORD PTR _this$[ebp], ecx

; 4377 :         _Mypair._Myval2._Mysize = 0;

  00008	8b 45 f8	 mov	 eax, DWORD PTR _this$[ebp]
  0000b	83 60 10 00	 and	 DWORD PTR [eax+16], 0

; 4378 :         _Mypair._Myval2._Myres  = _BUF_SIZE - 1;

  0000f	8b 45 f8	 mov	 eax, DWORD PTR _this$[ebp]
  00012	c7 40 14 0f 00
	00 00		 mov	 DWORD PTR [eax+20], 15	; 0000000fH

; 4379 :         // the _Traits::assign is last so the codegen doesn't think the char write can alias this
; 4380 :         _Traits::assign(_Mypair._Myval2._Bx._Buf[0], _Elem());

  00019	c6 45 ff 00	 mov	 BYTE PTR $T1[ebp], 0
  0001d	33 c0		 xor	 eax, eax
  0001f	40		 inc	 eax
  00020	6b c0 00	 imul	 eax, eax, 0

; 428  :         _Left = _Right;

  00023	8b 4d f8	 mov	 ecx, DWORD PTR _this$[ebp]
  00026	8a 55 ff	 mov	 dl, BYTE PTR $T1[ebp]
  00029	88 14 01	 mov	 BYTE PTR [ecx+eax], dl

; 4381 :     }

  0002c	c9		 leave
  0002d	c3		 ret	 0
?_Tidy_init@?$basic_string@DU?$char_traits@D@std@@V?$allocator@D@2@@std@@AAEXXZ ENDP ; std::basic_string<char,std::char_traits<char>,std::allocator<char> >::_Tidy_init
_TEXT	ENDS
; Function compile flags: /Odspy
; File C:\Program Files (x86)\Microsoft Visual Studio\2019\Community\VC\Tools\MSVC\14.28.29333\include\xstring
; File C:\Program Files (x86)\Microsoft Visual Studio\2019\Community\VC\Tools\MSVC\14.28.29333\include\utility
; File C:\Program Files (x86)\Microsoft Visual Studio\2019\Community\VC\Tools\MSVC\14.28.29333\include\xstring
;	COMDAT ?_Calculate_growth@?$basic_string@DU?$char_traits@D@std@@V?$allocator@D@2@@std@@ABEII@Z
_TEXT	SEGMENT
$T1 = -36						; size = 4
$T2 = -32						; size = 4
tv93 = -28						; size = 4
$T3 = -24						; size = 4
_this$ = -20						; size = 4
$T4 = -16						; size = 4
__Masked$5 = -12					; size = 4
__Old$ = -8						; size = 4
__Max$ = -4						; size = 4
__Requested$ = 8					; size = 4
?_Calculate_growth@?$basic_string@DU?$char_traits@D@std@@V?$allocator@D@2@@std@@ABEII@Z PROC ; std::basic_string<char,std::char_traits<char>,std::allocator<char> >::_Calculate_growth, COMDAT
; _this$ = ecx

; 4297 :     _NODISCARD size_type _Calculate_growth(const size_type _Requested) const noexcept {

  00000	55		 push	 ebp
  00001	8b ec		 mov	 ebp, esp
  00003	83 ec 24	 sub	 esp, 36			; 00000024H
  00006	89 4d ec	 mov	 DWORD PTR _this$[ebp], ecx

; 4298 :         return _Calculate_growth(_Requested, _Mypair._Myval2._Myres, max_size());

  00009	8b 4d ec	 mov	 ecx, DWORD PTR _this$[ebp]
  0000c	e8 00 00 00 00	 call	 ?max_size@?$basic_string@DU?$char_traits@D@std@@V?$allocator@D@2@@std@@QBEIXZ ; std::basic_string<char,std::char_traits<char>,std::allocator<char> >::max_size
  00011	89 45 fc	 mov	 DWORD PTR __Max$[ebp], eax
  00014	8b 45 ec	 mov	 eax, DWORD PTR _this$[ebp]
  00017	8b 40 14	 mov	 eax, DWORD PTR [eax+20]
  0001a	89 45 f8	 mov	 DWORD PTR __Old$[ebp], eax

; 4285 :         const size_type _Masked = _Requested | _ALLOC_MASK;

  0001d	8b 45 08	 mov	 eax, DWORD PTR __Requested$[ebp]
  00020	83 c8 0f	 or	 eax, 15			; 0000000fH
  00023	89 45 f4	 mov	 DWORD PTR __Masked$5[ebp], eax

; 4286 :         if (_Masked > _Max) { // the mask overflows, settle for max_size()

  00026	8b 45 f4	 mov	 eax, DWORD PTR __Masked$5[ebp]
  00029	3b 45 fc	 cmp	 eax, DWORD PTR __Max$[ebp]
  0002c	76 08		 jbe	 SHORT $LN29@Calculate_

; 4287 :             return _Max;

  0002e	8b 45 fc	 mov	 eax, DWORD PTR __Max$[ebp]
  00031	89 45 f0	 mov	 DWORD PTR $T4[ebp], eax
  00034	eb 4c		 jmp	 SHORT $LN31@Calculate_
$LN29@Calculate_:

; 4288 :         }
; 4289 : 
; 4290 :         if (_Old > _Max - _Old / 2) { // similarly, geometric overflows

  00036	8b 45 f8	 mov	 eax, DWORD PTR __Old$[ebp]
  00039	d1 e8		 shr	 eax, 1
  0003b	8b 4d fc	 mov	 ecx, DWORD PTR __Max$[ebp]
  0003e	2b c8		 sub	 ecx, eax
  00040	39 4d f8	 cmp	 DWORD PTR __Old$[ebp], ecx
  00043	76 08		 jbe	 SHORT $LN30@Calculate_

; 4291 :             return _Max;

  00045	8b 45 fc	 mov	 eax, DWORD PTR __Max$[ebp]
  00048	89 45 f0	 mov	 DWORD PTR $T4[ebp], eax
  0004b	eb 35		 jmp	 SHORT $LN31@Calculate_
$LN30@Calculate_:

; 4294 :         return (_STD max)(_Masked, _Old + _Old / 2);

  0004d	8b 45 f8	 mov	 eax, DWORD PTR __Old$[ebp]
  00050	d1 e8		 shr	 eax, 1
  00052	03 45 f8	 add	 eax, DWORD PTR __Old$[ebp]
  00055	89 45 e8	 mov	 DWORD PTR $T3[ebp], eax
; File C:\Program Files (x86)\Microsoft Visual Studio\2019\Community\VC\Tools\MSVC\14.28.29333\include\utility

; 44   :     return _Left < _Right ? _Right : _Left;

  00058	8b 45 f4	 mov	 eax, DWORD PTR __Masked$5[ebp]
  0005b	3b 45 e8	 cmp	 eax, DWORD PTR $T3[ebp]
  0005e	73 08		 jae	 SHORT $LN35@Calculate_
  00060	8d 45 e8	 lea	 eax, DWORD PTR $T3[ebp]
  00063	89 45 e4	 mov	 DWORD PTR tv93[ebp], eax
  00066	eb 06		 jmp	 SHORT $LN36@Calculate_
$LN35@Calculate_:
  00068	8d 45 f4	 lea	 eax, DWORD PTR __Masked$5[ebp]
  0006b	89 45 e4	 mov	 DWORD PTR tv93[ebp], eax
$LN36@Calculate_:
  0006e	8b 45 e4	 mov	 eax, DWORD PTR tv93[ebp]
  00071	89 45 e0	 mov	 DWORD PTR $T2[ebp], eax
  00074	8b 45 e0	 mov	 eax, DWORD PTR $T2[ebp]
  00077	89 45 dc	 mov	 DWORD PTR $T1[ebp], eax
; File C:\Program Files (x86)\Microsoft Visual Studio\2019\Community\VC\Tools\MSVC\14.28.29333\include\xstring

; 4294 :         return (_STD max)(_Masked, _Old + _Old / 2);

  0007a	8b 45 dc	 mov	 eax, DWORD PTR $T1[ebp]
  0007d	8b 00		 mov	 eax, DWORD PTR [eax]
  0007f	89 45 f0	 mov	 DWORD PTR $T4[ebp], eax
$LN31@Calculate_:

; 4298 :         return _Calculate_growth(_Requested, _Mypair._Myval2._Myres, max_size());

  00082	8b 45 f0	 mov	 eax, DWORD PTR $T4[ebp]

; 4299 :     }

  00085	c9		 leave
  00086	c2 04 00	 ret	 4
?_Calculate_growth@?$basic_string@DU?$char_traits@D@std@@V?$allocator@D@2@@std@@ABEII@Z ENDP ; std::basic_string<char,std::char_traits<char>,std::allocator<char> >::_Calculate_growth
_TEXT	ENDS
; Function compile flags: /Odspy
; File C:\Program Files (x86)\Microsoft Visual Studio\2019\Community\VC\Tools\MSVC\14.28.29333\include\xstring
; File C:\Program Files (x86)\Microsoft Visual Studio\2019\Community\VC\Tools\MSVC\14.28.29333\include\xstddef
; File C:\Program Files (x86)\Microsoft Visual Studio\2019\Community\VC\Tools\MSVC\14.28.29333\include\xstring
; File C:\Program Files (x86)\Microsoft Visual Studio\2019\Community\VC\Tools\MSVC\14.28.29333\include\xstddef
; File C:\Program Files (x86)\Microsoft Visual Studio\2019\Community\VC\Tools\MSVC\14.28.29333\include\xstring
; File C:\Program Files (x86)\Microsoft Visual Studio\2019\Community\VC\Tools\MSVC\14.28.29333\include\utility
; File C:\Program Files (x86)\Microsoft Visual Studio\2019\Community\VC\Tools\MSVC\14.28.29333\include\xstring
;	COMDAT ?compare@?$basic_string@DU?$char_traits@D@std@@V?$allocator@D@2@@std@@QBEHABV12@@Z
_TEXT	SEGMENT
$T1 = -80						; size = 4
$T2 = -76						; size = 4
__Count$ = -72						; size = 4
$T3 = -68						; size = 4
$T4 = -64						; size = 4
__Ptr$ = -60						; size = 4
__Ptr$ = -56						; size = 4
__Ans$5 = -52						; size = 4
tv146 = -48						; size = 4
_this$ = -44						; size = 4
__Result$6 = -40					; size = 4
tv137 = -36						; size = 4
__Result$7 = -32					; size = 4
tv95 = -28						; size = 4
_this$ = -24						; size = 4
_this$ = -20						; size = 4
$T8 = -16						; size = 4
__Right_size$ = -12					; size = 4
__Left_size$ = -8					; size = 4
$T9 = -2						; size = 1
$T10 = -1						; size = 1
__Right$ = 8						; size = 4
?compare@?$basic_string@DU?$char_traits@D@std@@V?$allocator@D@2@@std@@QBEHABV12@@Z PROC ; std::basic_string<char,std::char_traits<char>,std::allocator<char> >::compare, COMDAT
; _this$ = ecx

; 4212 :     _NODISCARD int compare(const basic_string& _Right) const noexcept { // compare [0, size()) with _Right

  00000	55		 push	 ebp
  00001	8b ec		 mov	 ebp, esp
  00003	83 ec 50	 sub	 esp, 80			; 00000050H
  00006	89 4d d4	 mov	 DWORD PTR _this$[ebp], ecx

; 4213 :         return _Traits_compare<_Traits>(_Mypair._Myval2._Myptr(), _Mypair._Myval2._Mysize,

  00009	8b 45 08	 mov	 eax, DWORD PTR __Right$[ebp]
  0000c	89 45 ec	 mov	 DWORD PTR _this$[ebp], eax

; 2218 :         const value_type* _Result = _Bx._Buf;

  0000f	8b 45 ec	 mov	 eax, DWORD PTR _this$[ebp]
  00012	89 45 e0	 mov	 DWORD PTR __Result$7[ebp], eax

; 2227 :         return _BUF_SIZE <= _Myres;

  00015	8b 45 ec	 mov	 eax, DWORD PTR _this$[ebp]
  00018	83 78 14 10	 cmp	 DWORD PTR [eax+20], 16	; 00000010H
  0001c	72 09		 jb	 SHORT $LN9@compare
  0001e	c7 45 e4 01 00
	00 00		 mov	 DWORD PTR tv95[ebp], 1
  00025	eb 04		 jmp	 SHORT $LN10@compare
$LN9@compare:
  00027	83 65 e4 00	 and	 DWORD PTR tv95[ebp], 0
$LN10@compare:
  0002b	8a 45 e4	 mov	 al, BYTE PTR tv95[ebp]
  0002e	88 45 ff	 mov	 BYTE PTR $T10[ebp], al

; 2219 :         if (_Large_string_engaged()) {

  00031	0f b6 45 ff	 movzx	 eax, BYTE PTR $T10[ebp]
  00035	85 c0		 test	 eax, eax
  00037	74 0e		 je	 SHORT $LN4@compare

; 2220 :             _Result = _Unfancy(_Bx._Ptr);

  00039	8b 45 ec	 mov	 eax, DWORD PTR _this$[ebp]
  0003c	8b 00		 mov	 eax, DWORD PTR [eax]
  0003e	89 45 c8	 mov	 DWORD PTR __Ptr$[ebp], eax
; File C:\Program Files (x86)\Microsoft Visual Studio\2019\Community\VC\Tools\MSVC\14.28.29333\include\xstddef

; 289  :     return _Ptr;

  00041	8b 45 c8	 mov	 eax, DWORD PTR __Ptr$[ebp]
  00044	89 45 e0	 mov	 DWORD PTR __Result$7[ebp], eax
$LN4@compare:
; File C:\Program Files (x86)\Microsoft Visual Studio\2019\Community\VC\Tools\MSVC\14.28.29333\include\xstring

; 2223 :         return _Result;

  00047	8b 45 e0	 mov	 eax, DWORD PTR __Result$7[ebp]
  0004a	89 45 b4	 mov	 DWORD PTR $T2[ebp], eax

; 4213 :         return _Traits_compare<_Traits>(_Mypair._Myval2._Myptr(), _Mypair._Myval2._Mysize,

  0004d	8b 45 d4	 mov	 eax, DWORD PTR _this$[ebp]
  00050	89 45 e8	 mov	 DWORD PTR _this$[ebp], eax

; 2218 :         const value_type* _Result = _Bx._Buf;

  00053	8b 45 e8	 mov	 eax, DWORD PTR _this$[ebp]
  00056	89 45 d8	 mov	 DWORD PTR __Result$6[ebp], eax

; 2227 :         return _BUF_SIZE <= _Myres;

  00059	8b 45 e8	 mov	 eax, DWORD PTR _this$[ebp]
  0005c	83 78 14 10	 cmp	 DWORD PTR [eax+20], 16	; 00000010H
  00060	72 09		 jb	 SHORT $LN21@compare
  00062	c7 45 dc 01 00
	00 00		 mov	 DWORD PTR tv137[ebp], 1
  00069	eb 04		 jmp	 SHORT $LN22@compare
$LN21@compare:
  0006b	83 65 dc 00	 and	 DWORD PTR tv137[ebp], 0
$LN22@compare:
  0006f	8a 45 dc	 mov	 al, BYTE PTR tv137[ebp]
  00072	88 45 fe	 mov	 BYTE PTR $T9[ebp], al

; 2219 :         if (_Large_string_engaged()) {

  00075	0f b6 45 fe	 movzx	 eax, BYTE PTR $T9[ebp]
  00079	85 c0		 test	 eax, eax
  0007b	74 0e		 je	 SHORT $LN16@compare

; 2220 :             _Result = _Unfancy(_Bx._Ptr);

  0007d	8b 45 e8	 mov	 eax, DWORD PTR _this$[ebp]
  00080	8b 00		 mov	 eax, DWORD PTR [eax]
  00082	89 45 c4	 mov	 DWORD PTR __Ptr$[ebp], eax
; File C:\Program Files (x86)\Microsoft Visual Studio\2019\Community\VC\Tools\MSVC\14.28.29333\include\xstddef

; 289  :     return _Ptr;

  00085	8b 45 c4	 mov	 eax, DWORD PTR __Ptr$[ebp]
  00088	89 45 d8	 mov	 DWORD PTR __Result$6[ebp], eax
$LN16@compare:
; File C:\Program Files (x86)\Microsoft Visual Studio\2019\Community\VC\Tools\MSVC\14.28.29333\include\xstring

; 2223 :         return _Result;

  0008b	8b 45 d8	 mov	 eax, DWORD PTR __Result$6[ebp]
  0008e	89 45 b0	 mov	 DWORD PTR $T1[ebp], eax

; 4213 :         return _Traits_compare<_Traits>(_Mypair._Myval2._Myptr(), _Mypair._Myval2._Mysize,

  00091	8b 45 08	 mov	 eax, DWORD PTR __Right$[ebp]
  00094	8b 40 10	 mov	 eax, DWORD PTR [eax+16]
  00097	89 45 f4	 mov	 DWORD PTR __Right_size$[ebp], eax
  0009a	8b 45 d4	 mov	 eax, DWORD PTR _this$[ebp]
  0009d	8b 40 10	 mov	 eax, DWORD PTR [eax+16]
  000a0	89 45 f8	 mov	 DWORD PTR __Left_size$[ebp], eax
; File C:\Program Files (x86)\Microsoft Visual Studio\2019\Community\VC\Tools\MSVC\14.28.29333\include\utility

; 68   :     return _Right < _Left ? _Right : _Left;

  000a3	8b 45 f4	 mov	 eax, DWORD PTR __Right_size$[ebp]
  000a6	3b 45 f8	 cmp	 eax, DWORD PTR __Left_size$[ebp]
  000a9	73 08		 jae	 SHORT $LN35@compare
  000ab	8d 45 f4	 lea	 eax, DWORD PTR __Right_size$[ebp]
  000ae	89 45 d0	 mov	 DWORD PTR tv146[ebp], eax
  000b1	eb 06		 jmp	 SHORT $LN36@compare
$LN35@compare:
  000b3	8d 45 f8	 lea	 eax, DWORD PTR __Left_size$[ebp]
  000b6	89 45 d0	 mov	 DWORD PTR tv146[ebp], eax
$LN36@compare:
  000b9	8b 45 d0	 mov	 eax, DWORD PTR tv146[ebp]
  000bc	89 45 c0	 mov	 DWORD PTR $T4[ebp], eax
  000bf	8b 45 c0	 mov	 eax, DWORD PTR $T4[ebp]
  000c2	89 45 bc	 mov	 DWORD PTR $T3[ebp], eax
; File C:\Program Files (x86)\Microsoft Visual Studio\2019\Community\VC\Tools\MSVC\14.28.29333\include\xstring

; 568  :     const int _Ans = _Traits::compare(_Left, _Right, (_STD min)(_Left_size, _Right_size));

  000c5	8b 45 bc	 mov	 eax, DWORD PTR $T3[ebp]
  000c8	8b 00		 mov	 eax, DWORD PTR [eax]
  000ca	89 45 b8	 mov	 DWORD PTR __Count$[ebp], eax

; 369  :         return _CSTD memcmp(_First1, _First2, _Count);

  000cd	ff 75 b8	 push	 DWORD PTR __Count$[ebp]
  000d0	ff 75 b4	 push	 DWORD PTR $T2[ebp]
  000d3	ff 75 b0	 push	 DWORD PTR $T1[ebp]
  000d6	e8 00 00 00 00	 call	 _memcmp
  000db	83 c4 0c	 add	 esp, 12			; 0000000cH
  000de	89 45 cc	 mov	 DWORD PTR __Ans$5[ebp], eax

; 570  :     if (_Ans != 0) {

  000e1	83 7d cc 00	 cmp	 DWORD PTR __Ans$5[ebp], 0
  000e5	74 08		 je	 SHORT $LN28@compare

; 571  :         return _Ans;

  000e7	8b 45 cc	 mov	 eax, DWORD PTR __Ans$5[ebp]
  000ea	89 45 f0	 mov	 DWORD PTR $T8[ebp], eax
  000ed	eb 23		 jmp	 SHORT $LN31@compare
$LN28@compare:

; 572  :     }
; 573  : 
; 574  :     if (_Left_size < _Right_size) {

  000ef	8b 45 f8	 mov	 eax, DWORD PTR __Left_size$[ebp]
  000f2	3b 45 f4	 cmp	 eax, DWORD PTR __Right_size$[ebp]
  000f5	73 06		 jae	 SHORT $LN29@compare

; 575  :         return -1;

  000f7	83 4d f0 ff	 or	 DWORD PTR $T8[ebp], -1
  000fb	eb 15		 jmp	 SHORT $LN31@compare
$LN29@compare:

; 576  :     }
; 577  : 
; 578  :     if (_Left_size > _Right_size) {

  000fd	8b 45 f8	 mov	 eax, DWORD PTR __Left_size$[ebp]
  00100	3b 45 f4	 cmp	 eax, DWORD PTR __Right_size$[ebp]
  00103	76 09		 jbe	 SHORT $LN30@compare

; 579  :         return 1;

  00105	c7 45 f0 01 00
	00 00		 mov	 DWORD PTR $T8[ebp], 1
  0010c	eb 04		 jmp	 SHORT $LN31@compare
$LN30@compare:

; 580  :     }
; 581  : 
; 582  :     return 0;

  0010e	83 65 f0 00	 and	 DWORD PTR $T8[ebp], 0
$LN31@compare:

; 4213 :         return _Traits_compare<_Traits>(_Mypair._Myval2._Myptr(), _Mypair._Myval2._Mysize,

  00112	8b 45 f0	 mov	 eax, DWORD PTR $T8[ebp]

; 4214 :             _Right._Mypair._Myval2._Myptr(), _Right._Mypair._Myval2._Mysize);
; 4215 :     }

  00115	c9		 leave
  00116	c2 04 00	 ret	 4
?compare@?$basic_string@DU?$char_traits@D@std@@V?$allocator@D@2@@std@@QBEHABV12@@Z ENDP ; std::basic_string<char,std::char_traits<char>,std::allocator<char> >::compare
_TEXT	ENDS
; Function compile flags: /Odspy
; File C:\Program Files (x86)\Microsoft Visual Studio\2019\Community\VC\Tools\MSVC\14.28.29333\include\xstring
; File C:\Program Files (x86)\Microsoft Visual Studio\2019\Community\VC\Tools\MSVC\14.28.29333\include\xmemory
; File C:\Program Files (x86)\Microsoft Visual Studio\2019\Community\VC\Tools\MSVC\14.28.29333\include\xstring
; File C:\Program Files (x86)\Microsoft Visual Studio\2019\Community\VC\Tools\MSVC\14.28.29333\include\xmemory
; File C:\Program Files (x86)\Microsoft Visual Studio\2019\Community\VC\Tools\MSVC\14.28.29333\include\xstring
; File C:\Program Files (x86)\Microsoft Visual Studio\2019\Community\VC\Tools\MSVC\14.28.29333\include\utility
; File C:\Program Files (x86)\Microsoft Visual Studio\2019\Community\VC\Tools\MSVC\14.28.29333\include\xstring
; File C:\Program Files (x86)\Microsoft Visual Studio\2019\Community\VC\Tools\MSVC\14.28.29333\include\limits
; File C:\Program Files (x86)\Microsoft Visual Studio\2019\Community\VC\Tools\MSVC\14.28.29333\include\xstring
; File C:\Program Files (x86)\Microsoft Visual Studio\2019\Community\VC\Tools\MSVC\14.28.29333\include\utility
; File C:\Program Files (x86)\Microsoft Visual Studio\2019\Community\VC\Tools\MSVC\14.28.29333\include\xstring
;	COMDAT ?max_size@?$basic_string@DU?$char_traits@D@std@@V?$allocator@D@2@@std@@QBEIXZ
_TEXT	SEGMENT
$T1 = -60						; size = 4
$T2 = -56						; size = 4
$T3 = -52						; size = 4
$T4 = -48						; size = 4
__Storage_max$ = -44					; size = 4
$T5 = -40						; size = 4
$T6 = -36						; size = 4
$T7 = -32						; size = 4
_this$ = -28						; size = 4
tv70 = -24						; size = 4
$T8 = -20						; size = 4
$T9 = -16						; size = 4
tv67 = -12						; size = 4
__Alloc_max$ = -8					; size = 4
$T10 = -4						; size = 4
?max_size@?$basic_string@DU?$char_traits@D@std@@V?$allocator@D@2@@std@@QBEIXZ PROC ; std::basic_string<char,std::char_traits<char>,std::allocator<char> >::max_size, COMDAT
; _this$ = ecx

; 3773 :     _NODISCARD size_type max_size() const noexcept {

  00000	55		 push	 ebp
  00001	8b ec		 mov	 ebp, esp
  00003	83 ec 3c	 sub	 esp, 60			; 0000003cH
  00006	89 4d e4	 mov	 DWORD PTR _this$[ebp], ecx

; 4413 :         return _Mypair._Get_first();

  00009	8b 45 e4	 mov	 eax, DWORD PTR _this$[ebp]
; File C:\Program Files (x86)\Microsoft Visual Studio\2019\Community\VC\Tools\MSVC\14.28.29333\include\xmemory

; 1351 :         return *this;

  0000c	89 45 e0	 mov	 DWORD PTR $T7[ebp], eax
; File C:\Program Files (x86)\Microsoft Visual Studio\2019\Community\VC\Tools\MSVC\14.28.29333\include\xstring

; 4413 :         return _Mypair._Get_first();

  0000f	8b 45 e0	 mov	 eax, DWORD PTR $T7[ebp]
  00012	89 45 c4	 mov	 DWORD PTR $T1[ebp], eax
; File C:\Program Files (x86)\Microsoft Visual Studio\2019\Community\VC\Tools\MSVC\14.28.29333\include\xmemory

; 710  :         return static_cast<size_t>(-1) / sizeof(value_type);

  00015	83 4d f8 ff	 or	 DWORD PTR __Alloc_max$[ebp], -1
; File C:\Program Files (x86)\Microsoft Visual Studio\2019\Community\VC\Tools\MSVC\14.28.29333\include\xstring

; 3775 :         const size_type _Storage_max = // can always store small string

  00019	c7 45 fc 10 00
	00 00		 mov	 DWORD PTR $T10[ebp], 16	; 00000010H
; File C:\Program Files (x86)\Microsoft Visual Studio\2019\Community\VC\Tools\MSVC\14.28.29333\include\utility

; 44   :     return _Left < _Right ? _Right : _Left;

  00020	8b 45 f8	 mov	 eax, DWORD PTR __Alloc_max$[ebp]
  00023	3b 45 fc	 cmp	 eax, DWORD PTR $T10[ebp]
  00026	73 08		 jae	 SHORT $LN14@max_size
  00028	8d 45 fc	 lea	 eax, DWORD PTR $T10[ebp]
  0002b	89 45 f4	 mov	 DWORD PTR tv67[ebp], eax
  0002e	eb 06		 jmp	 SHORT $LN15@max_size
$LN14@max_size:
  00030	8d 45 f8	 lea	 eax, DWORD PTR __Alloc_max$[ebp]
  00033	89 45 f4	 mov	 DWORD PTR tv67[ebp], eax
$LN15@max_size:
  00036	8b 45 f4	 mov	 eax, DWORD PTR tv67[ebp]
  00039	89 45 dc	 mov	 DWORD PTR $T6[ebp], eax
  0003c	8b 45 dc	 mov	 eax, DWORD PTR $T6[ebp]
  0003f	89 45 d8	 mov	 DWORD PTR $T5[ebp], eax
; File C:\Program Files (x86)\Microsoft Visual Studio\2019\Community\VC\Tools\MSVC\14.28.29333\include\xstring

; 3775 :         const size_type _Storage_max = // can always store small string

  00042	8b 45 d8	 mov	 eax, DWORD PTR $T5[ebp]
  00045	8b 00		 mov	 eax, DWORD PTR [eax]
  00047	89 45 d4	 mov	 DWORD PTR __Storage_max$[ebp], eax

; 3777 :         return (_STD min)(static_cast<size_type>((numeric_limits<difference_type>::max)()),

  0004a	8b 45 d4	 mov	 eax, DWORD PTR __Storage_max$[ebp]
  0004d	48		 dec	 eax
  0004e	89 45 f0	 mov	 DWORD PTR $T9[ebp], eax
; File C:\Program Files (x86)\Microsoft Visual Studio\2019\Community\VC\Tools\MSVC\14.28.29333\include\limits

; 557  :         return INT_MAX;

  00051	c7 45 d0 ff ff
	ff 7f		 mov	 DWORD PTR $T4[ebp], 2147483647 ; 7fffffffH
; File C:\Program Files (x86)\Microsoft Visual Studio\2019\Community\VC\Tools\MSVC\14.28.29333\include\xstring

; 3777 :         return (_STD min)(static_cast<size_type>((numeric_limits<difference_type>::max)()),

  00058	8b 45 d0	 mov	 eax, DWORD PTR $T4[ebp]
  0005b	89 45 ec	 mov	 DWORD PTR $T8[ebp], eax
; File C:\Program Files (x86)\Microsoft Visual Studio\2019\Community\VC\Tools\MSVC\14.28.29333\include\utility

; 68   :     return _Right < _Left ? _Right : _Left;

  0005e	8b 45 f0	 mov	 eax, DWORD PTR $T9[ebp]
  00061	3b 45 ec	 cmp	 eax, DWORD PTR $T8[ebp]
  00064	73 08		 jae	 SHORT $LN22@max_size
  00066	8d 45 f0	 lea	 eax, DWORD PTR $T9[ebp]
  00069	89 45 e8	 mov	 DWORD PTR tv70[ebp], eax
  0006c	eb 06		 jmp	 SHORT $LN23@max_size
$LN22@max_size:
  0006e	8d 45 ec	 lea	 eax, DWORD PTR $T8[ebp]
  00071	89 45 e8	 mov	 DWORD PTR tv70[ebp], eax
$LN23@max_size:
  00074	8b 45 e8	 mov	 eax, DWORD PTR tv70[ebp]
  00077	89 45 cc	 mov	 DWORD PTR $T3[ebp], eax
  0007a	8b 45 cc	 mov	 eax, DWORD PTR $T3[ebp]
  0007d	89 45 c8	 mov	 DWORD PTR $T2[ebp], eax
; File C:\Program Files (x86)\Microsoft Visual Studio\2019\Community\VC\Tools\MSVC\14.28.29333\include\xstring

; 3777 :         return (_STD min)(static_cast<size_type>((numeric_limits<difference_type>::max)()),

  00080	8b 45 c8	 mov	 eax, DWORD PTR $T2[ebp]
  00083	8b 00		 mov	 eax, DWORD PTR [eax]

; 3778 :             _Storage_max - 1 // -1 is for null terminator and/or npos
; 3779 :         );
; 3780 :     }

  00085	c9		 leave
  00086	c3		 ret	 0
?max_size@?$basic_string@DU?$char_traits@D@std@@V?$allocator@D@2@@std@@QBEIXZ ENDP ; std::basic_string<char,std::char_traits<char>,std::allocator<char> >::max_size
_TEXT	ENDS
; Function compile flags: /Odspy
; File C:\Program Files (x86)\Microsoft Visual Studio\2019\Community\VC\Tools\MSVC\14.28.29333\include\xstring
; File C:\Program Files (x86)\Microsoft Visual Studio\2019\Community\VC\Tools\MSVC\14.28.29333\include\xstddef
; File C:\Program Files (x86)\Microsoft Visual Studio\2019\Community\VC\Tools\MSVC\14.28.29333\include\xstring
;	COMDAT ?c_str@?$basic_string@DU?$char_traits@D@std@@V?$allocator@D@2@@std@@QBEPBDXZ
_TEXT	SEGMENT
$T1 = -28						; size = 4
__Ptr$ = -24						; size = 4
_this$ = -20						; size = 4
__Result$2 = -16					; size = 4
tv80 = -12						; size = 4
_this$ = -8						; size = 4
$T3 = -1						; size = 1
?c_str@?$basic_string@DU?$char_traits@D@std@@V?$allocator@D@2@@std@@QBEPBDXZ PROC ; std::basic_string<char,std::char_traits<char>,std::allocator<char> >::c_str, COMDAT
; _this$ = ecx

; 3751 :     _NODISCARD _Ret_z_ const _Elem* c_str() const noexcept {

  00000	55		 push	 ebp
  00001	8b ec		 mov	 ebp, esp
  00003	83 ec 1c	 sub	 esp, 28			; 0000001cH
  00006	89 4d ec	 mov	 DWORD PTR _this$[ebp], ecx

; 3752 :         return _Mypair._Myval2._Myptr();

  00009	8b 45 ec	 mov	 eax, DWORD PTR _this$[ebp]
  0000c	89 45 f8	 mov	 DWORD PTR _this$[ebp], eax

; 2218 :         const value_type* _Result = _Bx._Buf;

  0000f	8b 45 f8	 mov	 eax, DWORD PTR _this$[ebp]
  00012	89 45 f0	 mov	 DWORD PTR __Result$2[ebp], eax

; 2227 :         return _BUF_SIZE <= _Myres;

  00015	8b 45 f8	 mov	 eax, DWORD PTR _this$[ebp]
  00018	83 78 14 10	 cmp	 DWORD PTR [eax+20], 16	; 00000010H
  0001c	72 09		 jb	 SHORT $LN9@c_str
  0001e	c7 45 f4 01 00
	00 00		 mov	 DWORD PTR tv80[ebp], 1
  00025	eb 04		 jmp	 SHORT $LN10@c_str
$LN9@c_str:
  00027	83 65 f4 00	 and	 DWORD PTR tv80[ebp], 0
$LN10@c_str:
  0002b	8a 45 f4	 mov	 al, BYTE PTR tv80[ebp]
  0002e	88 45 ff	 mov	 BYTE PTR $T3[ebp], al

; 2219 :         if (_Large_string_engaged()) {

  00031	0f b6 45 ff	 movzx	 eax, BYTE PTR $T3[ebp]
  00035	85 c0		 test	 eax, eax
  00037	74 0e		 je	 SHORT $LN4@c_str

; 2220 :             _Result = _Unfancy(_Bx._Ptr);

  00039	8b 45 f8	 mov	 eax, DWORD PTR _this$[ebp]
  0003c	8b 00		 mov	 eax, DWORD PTR [eax]
  0003e	89 45 e8	 mov	 DWORD PTR __Ptr$[ebp], eax
; File C:\Program Files (x86)\Microsoft Visual Studio\2019\Community\VC\Tools\MSVC\14.28.29333\include\xstddef

; 289  :     return _Ptr;

  00041	8b 45 e8	 mov	 eax, DWORD PTR __Ptr$[ebp]
  00044	89 45 f0	 mov	 DWORD PTR __Result$2[ebp], eax
$LN4@c_str:
; File C:\Program Files (x86)\Microsoft Visual Studio\2019\Community\VC\Tools\MSVC\14.28.29333\include\xstring

; 2223 :         return _Result;

  00047	8b 45 f0	 mov	 eax, DWORD PTR __Result$2[ebp]
  0004a	89 45 e4	 mov	 DWORD PTR $T1[ebp], eax

; 3752 :         return _Mypair._Myval2._Myptr();

  0004d	8b 45 e4	 mov	 eax, DWORD PTR $T1[ebp]

; 3753 :     }

  00050	c9		 leave
  00051	c3		 ret	 0
?c_str@?$basic_string@DU?$char_traits@D@std@@V?$allocator@D@2@@std@@QBEPBDXZ ENDP ; std::basic_string<char,std::char_traits<char>,std::allocator<char> >::c_str
_TEXT	ENDS
; Function compile flags: /Odspy
; File C:\Program Files (x86)\Microsoft Visual Studio\2019\Community\VC\Tools\MSVC\14.28.29333\include\xstring
;	COMDAT ?assign@?$basic_string@DU?$char_traits@D@std@@V?$allocator@D@2@@std@@QAEAAV12@QBDI@Z
_TEXT	SEGMENT
$T1 = -16						; size = 1
__Old_ptr$2 = -12					; size = 4
_this$ = -8						; size = 4
$T3 = -1						; size = 1
__Ptr$ = 8						; size = 4
__Count$ = 12						; size = 4
?assign@?$basic_string@DU?$char_traits@D@std@@V?$allocator@D@2@@std@@QAEAAV12@QBDI@Z PROC ; std::basic_string<char,std::char_traits<char>,std::allocator<char> >::assign, COMDAT
; _this$ = ecx

; 3042 :     basic_string& assign(_In_reads_(_Count) const _Elem* const _Ptr, _CRT_GUARDOVERFLOW const size_type _Count) {

  00000	55		 push	 ebp
  00001	8b ec		 mov	 ebp, esp
  00003	83 ec 10	 sub	 esp, 16			; 00000010H
  00006	89 4d f8	 mov	 DWORD PTR _this$[ebp], ecx

; 3043 :         // assign [_Ptr, _Ptr + _Count)
; 3044 :         if (_Count <= _Mypair._Myval2._Myres) {

  00009	8b 45 f8	 mov	 eax, DWORD PTR _this$[ebp]
  0000c	8b 4d 0c	 mov	 ecx, DWORD PTR __Count$[ebp]
  0000f	3b 48 14	 cmp	 ecx, DWORD PTR [eax+20]
  00012	77 39		 ja	 SHORT $LN2@assign

; 3045 :             _Elem* const _Old_ptr   = _Mypair._Myval2._Myptr();

  00014	8b 4d f8	 mov	 ecx, DWORD PTR _this$[ebp]
  00017	e8 00 00 00 00	 call	 ?_Myptr@?$_String_val@U?$_Simple_types@D@std@@@std@@QAEPADXZ ; std::_String_val<std::_Simple_types<char> >::_Myptr
  0001c	89 45 f4	 mov	 DWORD PTR __Old_ptr$2[ebp], eax

; 3046 :             _Mypair._Myval2._Mysize = _Count;

  0001f	8b 45 f8	 mov	 eax, DWORD PTR _this$[ebp]
  00022	8b 4d 0c	 mov	 ecx, DWORD PTR __Count$[ebp]
  00025	89 48 10	 mov	 DWORD PTR [eax+16], ecx

; 119  :         _CSTD memmove(_First1, _First2, _Count * sizeof(_Elem));

  00028	ff 75 0c	 push	 DWORD PTR __Count$[ebp]
  0002b	ff 75 08	 push	 DWORD PTR __Ptr$[ebp]
  0002e	ff 75 f4	 push	 DWORD PTR __Old_ptr$2[ebp]
  00031	e8 00 00 00 00	 call	 _memmove
  00036	83 c4 0c	 add	 esp, 12			; 0000000cH

; 3047 :             _Traits::move(_Old_ptr, _Ptr, _Count);
; 3048 :             _Traits::assign(_Old_ptr[_Count], _Elem());

  00039	c6 45 ff 00	 mov	 BYTE PTR $T3[ebp], 0

; 428  :         _Left = _Right;

  0003d	8b 45 f4	 mov	 eax, DWORD PTR __Old_ptr$2[ebp]
  00040	03 45 0c	 add	 eax, DWORD PTR __Count$[ebp]
  00043	8a 4d ff	 mov	 cl, BYTE PTR $T3[ebp]
  00046	88 08		 mov	 BYTE PTR [eax], cl

; 3049 :             return *this;

  00048	8b 45 f8	 mov	 eax, DWORD PTR _this$[ebp]
  0004b	eb 16		 jmp	 SHORT $LN1@assign
$LN2@assign:

; 3050 :         }
; 3051 : 
; 3052 :         return _Reallocate_for(

  0004d	33 c0		 xor	 eax, eax
  0004f	88 45 f0	 mov	 BYTE PTR $T1[ebp], al
  00052	ff 75 08	 push	 DWORD PTR __Ptr$[ebp]
  00055	ff 75 f0	 push	 DWORD PTR $T1[ebp]
  00058	ff 75 0c	 push	 DWORD PTR __Count$[ebp]
  0005b	8b 4d f8	 mov	 ecx, DWORD PTR _this$[ebp]
  0005e	e8 00 00 00 00	 call	 ??$_Reallocate_for@V<lambda_9366063389c5f42a00a5088cf24e69de>@@PBD@?$basic_string@DU?$char_traits@D@std@@V?$allocator@D@2@@std@@AAEAAV01@IV<lambda_9366063389c5f42a00a5088cf24e69de>@@PBD@Z ; std::basic_string<char,std::char_traits<char>,std::allocator<char> >::_Reallocate_for<<lambda_9366063389c5f42a00a5088cf24e69de>,char const *>
$LN1@assign:

; 3053 :             _Count,
; 3054 :             [](_Elem* const _New_ptr, const size_type _Count, const _Elem* const _Ptr) {
; 3055 :                 _Traits::copy(_New_ptr, _Ptr, _Count);
; 3056 :                 _Traits::assign(_New_ptr[_Count], _Elem());
; 3057 :             },
; 3058 :             _Ptr);
; 3059 :     }

  00063	c9		 leave
  00064	c2 08 00	 ret	 8
?assign@?$basic_string@DU?$char_traits@D@std@@V?$allocator@D@2@@std@@QAEAAV12@QBDI@Z ENDP ; std::basic_string<char,std::char_traits<char>,std::allocator<char> >::assign
_TEXT	ENDS
; Function compile flags: /Odspy
; File C:\Program Files (x86)\Microsoft Visual Studio\2019\Community\VC\Tools\MSVC\14.28.29333\include\xstring
;	COMDAT ??1?$basic_string@DU?$char_traits@D@std@@V?$allocator@D@2@@std@@QAE@XZ
_TEXT	SEGMENT
_this$ = -4						; size = 4
??1?$basic_string@DU?$char_traits@D@std@@V?$allocator@D@2@@std@@QAE@XZ PROC ; std::basic_string<char,std::char_traits<char>,std::allocator<char> >::~basic_string<char,std::char_traits<char>,std::allocator<char> >, COMDAT
; _this$ = ecx

; 2800 :     ~basic_string() noexcept {

  00000	55		 push	 ebp
  00001	8b ec		 mov	 ebp, esp
  00003	51		 push	 ecx
  00004	89 4d fc	 mov	 DWORD PTR _this$[ebp], ecx

; 2801 :         _Tidy_deallocate();

  00007	8b 4d fc	 mov	 ecx, DWORD PTR _this$[ebp]
  0000a	e8 00 00 00 00	 call	 ?_Tidy_deallocate@?$basic_string@DU?$char_traits@D@std@@V?$allocator@D@2@@std@@AAEXXZ ; std::basic_string<char,std::char_traits<char>,std::allocator<char> >::_Tidy_deallocate

; 2802 : #if _ITERATOR_DEBUG_LEVEL != 0
; 2803 :         auto&& _Alproxy          = _GET_PROXY_ALLOCATOR(_Alty, _Getal());
; 2804 :         const auto _To_delete    = _Mypair._Myval2._Myproxy;
; 2805 :         _Mypair._Myval2._Myproxy = nullptr;
; 2806 :         _Delete_plain_internal(_Alproxy, _To_delete);
; 2807 : #endif // _ITERATOR_DEBUG_LEVEL != 0
; 2808 :     }

  0000f	c9		 leave
  00010	c3		 ret	 0
??1?$basic_string@DU?$char_traits@D@std@@V?$allocator@D@2@@std@@QAE@XZ ENDP ; std::basic_string<char,std::char_traits<char>,std::allocator<char> >::~basic_string<char,std::char_traits<char>,std::allocator<char> >
_TEXT	ENDS
; Function compile flags: /Odspy
; File C:\Program Files (x86)\Microsoft Visual Studio\2019\Community\VC\Tools\MSVC\14.28.29333\include\xstring
; File C:\Program Files (x86)\Microsoft Visual Studio\2019\Community\VC\Tools\MSVC\14.28.29333\include\xmemory
; File C:\Program Files (x86)\Microsoft Visual Studio\2019\Community\VC\Tools\MSVC\14.28.29333\include\xstring
; File C:\Program Files (x86)\Microsoft Visual Studio\2019\Community\VC\Tools\MSVC\14.28.29333\include\type_traits
; File C:\Program Files (x86)\Microsoft Visual Studio\2019\Community\VC\Tools\MSVC\14.28.29333\include\xstring
; File C:\Program Files (x86)\Microsoft Visual Studio\2019\Community\VC\Tools\MSVC\14.28.29333\include\xmemory
; File C:\Program Files (x86)\Microsoft Visual Studio\2019\Community\VC\Tools\MSVC\14.28.29333\include\xstring
; File C:\Program Files (x86)\Microsoft Visual Studio\2019\Community\VC\Tools\MSVC\14.28.29333\include\xstddef
; File C:\Program Files (x86)\Microsoft Visual Studio\2019\Community\VC\Tools\MSVC\14.28.29333\include\xstring
; File C:\Program Files (x86)\Microsoft Visual Studio\2019\Community\VC\Tools\MSVC\14.28.29333\include\xstddef
; File C:\Program Files (x86)\Microsoft Visual Studio\2019\Community\VC\Tools\MSVC\14.28.29333\include\xstring
;	COMDAT ??0?$basic_string@DU?$char_traits@D@std@@V?$allocator@D@2@@std@@QAE@$$QAV01@@Z
_TEXT	SEGMENT
$T1 = -40						; size = 4
__My_data_mem$2 = -36					; size = 4
__Right_data_mem$3 = -32				; size = 4
_this$ = -28						; size = 4
$T4 = -24						; size = 4
$T5 = -20						; size = 4
_this$ = -16						; size = 4
_this$ = -12						; size = 4
___formal$ = -8						; size = 1
$T6 = -1						; size = 1
__Right$ = 8						; size = 4
??0?$basic_string@DU?$char_traits@D@std@@V?$allocator@D@2@@std@@QAE@$$QAV01@@Z PROC ; std::basic_string<char,std::char_traits<char>,std::allocator<char> >::basic_string<char,std::char_traits<char>,std::allocator<char> >, COMDAT
; _this$ = ecx

; 2496 :     basic_string(basic_string&& _Right) noexcept : _Mypair(_One_then_variadic_args_t{}, _STD move(_Right._Getal())) {

  00000	55		 push	 ebp
  00001	8b ec		 mov	 ebp, esp
  00003	83 ec 28	 sub	 esp, 40			; 00000028H
  00006	89 4d f4	 mov	 DWORD PTR _this$[ebp], ecx

; 4409 :         return _Mypair._Get_first();

  00009	8b 45 08	 mov	 eax, DWORD PTR __Right$[ebp]
; File C:\Program Files (x86)\Microsoft Visual Studio\2019\Community\VC\Tools\MSVC\14.28.29333\include\xmemory

; 1347 :         return *this;

  0000c	89 45 ec	 mov	 DWORD PTR $T5[ebp], eax
; File C:\Program Files (x86)\Microsoft Visual Studio\2019\Community\VC\Tools\MSVC\14.28.29333\include\xstring

; 4409 :         return _Mypair._Get_first();

  0000f	8b 45 ec	 mov	 eax, DWORD PTR $T5[ebp]
  00012	89 45 e8	 mov	 DWORD PTR $T4[ebp], eax
; File C:\Program Files (x86)\Microsoft Visual Studio\2019\Community\VC\Tools\MSVC\14.28.29333\include\type_traits

; 1455 :     return static_cast<remove_reference_t<_Ty>&&>(_Arg);

  00015	8b 45 e8	 mov	 eax, DWORD PTR $T4[ebp]
  00018	89 45 d8	 mov	 DWORD PTR $T1[ebp], eax
; File C:\Program Files (x86)\Microsoft Visual Studio\2019\Community\VC\Tools\MSVC\14.28.29333\include\xstring

; 2496 :     basic_string(basic_string&& _Right) noexcept : _Mypair(_One_then_variadic_args_t{}, _STD move(_Right._Getal())) {

  0001b	8b 45 f4	 mov	 eax, DWORD PTR _this$[ebp]
  0001e	89 45 e4	 mov	 DWORD PTR _this$[ebp], eax
; File C:\Program Files (x86)\Microsoft Visual Studio\2019\Community\VC\Tools\MSVC\14.28.29333\include\xmemory

; 1344 :         : _Ty1(_STD forward<_Other1>(_Val1)), _Myval2(_STD forward<_Other2>(_Val2)...) {}

  00021	8b 45 e4	 mov	 eax, DWORD PTR _this$[ebp]
  00024	89 45 f0	 mov	 DWORD PTR _this$[ebp], eax
; File C:\Program Files (x86)\Microsoft Visual Studio\2019\Community\VC\Tools\MSVC\14.28.29333\include\xstring

; 2198 :     _String_val() noexcept : _Bx(), _Mysize(0), _Myres(0) {}

  00027	8b 45 f0	 mov	 eax, DWORD PTR _this$[ebp]
  0002a	83 60 10 00	 and	 DWORD PTR [eax+16], 0
  0002e	8b 45 f0	 mov	 eax, DWORD PTR _this$[ebp]
  00031	83 60 14 00	 and	 DWORD PTR [eax+20], 0

; 2497 :         _Mypair._Myval2._Alloc_proxy(_GET_PROXY_ALLOCATOR(_Alty, _Getal()));
; 2498 :         _Take_contents(_Right, bool_constant<_Can_memcpy_val>{});

  00035	33 c0		 xor	 eax, eax
  00037	88 45 ff	 mov	 BYTE PTR $T6[ebp], al
  0003a	8a 45 ff	 mov	 al, BYTE PTR $T6[ebp]
  0003d	88 45 f8	 mov	 BYTE PTR ___formal$[ebp], al

; 2680 :         const auto _My_data_mem =

  00040	8b 45 f4	 mov	 eax, DWORD PTR _this$[ebp]
; File C:\Program Files (x86)\Microsoft Visual Studio\2019\Community\VC\Tools\MSVC\14.28.29333\include\xstddef

; 275  :     return __builtin_addressof(_Val);

  00043	89 45 dc	 mov	 DWORD PTR __My_data_mem$2[ebp], eax
; File C:\Program Files (x86)\Microsoft Visual Studio\2019\Community\VC\Tools\MSVC\14.28.29333\include\xstring

; 2682 :         const auto _Right_data_mem =

  00046	8b 45 08	 mov	 eax, DWORD PTR __Right$[ebp]
; File C:\Program Files (x86)\Microsoft Visual Studio\2019\Community\VC\Tools\MSVC\14.28.29333\include\xstddef

; 275  :     return __builtin_addressof(_Val);

  00049	89 45 e0	 mov	 DWORD PTR __Right_data_mem$3[ebp], eax
; File C:\Program Files (x86)\Microsoft Visual Studio\2019\Community\VC\Tools\MSVC\14.28.29333\include\xstring

; 2684 :         _CSTD memcpy(_My_data_mem, _Right_data_mem, _Memcpy_val_size);

  0004c	6a 18		 push	 24			; 00000018H
  0004e	ff 75 e0	 push	 DWORD PTR __Right_data_mem$3[ebp]
  00051	ff 75 dc	 push	 DWORD PTR __My_data_mem$2[ebp]
  00054	e8 00 00 00 00	 call	 _memcpy
  00059	83 c4 0c	 add	 esp, 12			; 0000000cH

; 2703 :         _Right._Tidy_init();

  0005c	8b 4d 08	 mov	 ecx, DWORD PTR __Right$[ebp]
  0005f	e8 00 00 00 00	 call	 ?_Tidy_init@?$basic_string@DU?$char_traits@D@std@@V?$allocator@D@2@@std@@AAEXXZ ; std::basic_string<char,std::char_traits<char>,std::allocator<char> >::_Tidy_init

; 2499 :     }

  00064	8b 45 f4	 mov	 eax, DWORD PTR _this$[ebp]
  00067	c9		 leave
  00068	c2 04 00	 ret	 4
??0?$basic_string@DU?$char_traits@D@std@@V?$allocator@D@2@@std@@QAE@$$QAV01@@Z ENDP ; std::basic_string<char,std::char_traits<char>,std::allocator<char> >::basic_string<char,std::char_traits<char>,std::allocator<char> >
_TEXT	ENDS
; Function compile flags: /Odspy
; File C:\Program Files (x86)\Microsoft Visual Studio\2019\Community\VC\Tools\MSVC\14.28.29333\include\xstring
; File C:\Program Files (x86)\Microsoft Visual Studio\2019\Community\VC\Tools\MSVC\14.28.29333\include\xmemory
; File C:\Program Files (x86)\Microsoft Visual Studio\2019\Community\VC\Tools\MSVC\14.28.29333\include\xstring
; File C:\Program Files (x86)\Microsoft Visual Studio\2019\Community\VC\Tools\MSVC\14.28.29333\include\xmemory
; File C:\Program Files (x86)\Microsoft Visual Studio\2019\Community\VC\Tools\MSVC\14.28.29333\include\xstring
;	COMDAT ??0?$basic_string@DU?$char_traits@D@std@@V?$allocator@D@2@@std@@QAE@QBD@Z
_TEXT	SEGMENT
__Alproxy$ = -40					; size = 4
$T2 = -36						; size = 4
$T3 = -32						; size = 4
_this$ = -28						; size = 4
_this$ = -24						; size = 4
_this$ = -20						; size = 4
_$S6$ = -13						; size = 1
__$EHRec$ = -12						; size = 12
__Ptr$ = 8						; size = 4
??0?$basic_string@DU?$char_traits@D@std@@V?$allocator@D@2@@std@@QAE@QBD@Z PROC ; std::basic_string<char,std::char_traits<char>,std::allocator<char> >::basic_string<char,std::char_traits<char>,std::allocator<char> >, COMDAT
; _this$ = ecx

; 2413 :     basic_string(_In_z_ const _Elem* const _Ptr) : _Mypair(_Zero_then_variadic_args_t{}) {

  00000	55		 push	 ebp
  00001	8b ec		 mov	 ebp, esp
  00003	6a ff		 push	 -1
  00005	68 00 00 00 00	 push	 __ehhandler$??0?$basic_string@DU?$char_traits@D@std@@V?$allocator@D@2@@std@@QAE@QBD@Z
  0000a	64 a1 00 00 00
	00		 mov	 eax, DWORD PTR fs:0
  00010	50		 push	 eax
  00011	83 ec 1c	 sub	 esp, 28			; 0000001cH
  00014	a1 00 00 00 00	 mov	 eax, DWORD PTR ___security_cookie
  00019	33 c5		 xor	 eax, ebp
  0001b	50		 push	 eax
  0001c	8d 45 f4	 lea	 eax, DWORD PTR __$EHRec$[ebp]
  0001f	64 a3 00 00 00
	00		 mov	 DWORD PTR fs:0, eax
  00025	89 4d ec	 mov	 DWORD PTR _this$[ebp], ecx
  00028	8b 45 ec	 mov	 eax, DWORD PTR _this$[ebp]
  0002b	89 45 e4	 mov	 DWORD PTR _this$[ebp], eax
; File C:\Program Files (x86)\Microsoft Visual Studio\2019\Community\VC\Tools\MSVC\14.28.29333\include\xmemory

; 1339 :         : _Ty1(), _Myval2(_STD forward<_Other2>(_Val2)...) {}

  0002e	8b 45 e4	 mov	 eax, DWORD PTR _this$[ebp]
  00031	89 45 e8	 mov	 DWORD PTR _this$[ebp], eax
; File C:\Program Files (x86)\Microsoft Visual Studio\2019\Community\VC\Tools\MSVC\14.28.29333\include\xstring

; 2198 :     _String_val() noexcept : _Bx(), _Mysize(0), _Myres(0) {}

  00034	8b 45 e8	 mov	 eax, DWORD PTR _this$[ebp]
  00037	83 60 10 00	 and	 DWORD PTR [eax+16], 0
  0003b	8b 45 e8	 mov	 eax, DWORD PTR _this$[ebp]
  0003e	83 60 14 00	 and	 DWORD PTR [eax+20], 0

; 2413 :     basic_string(_In_z_ const _Elem* const _Ptr) : _Mypair(_Zero_then_variadic_args_t{}) {

  00042	83 65 fc 00	 and	 DWORD PTR __$EHRec$[ebp+8], 0

; 2414 :         auto&& _Alproxy = _GET_PROXY_ALLOCATOR(_Alty, _Getal());

  00046	8d 45 f3	 lea	 eax, DWORD PTR _$S6$[ebp]
  00049	89 45 d8	 mov	 DWORD PTR __Alproxy$[ebp], eax

; 2415 :         _Container_proxy_ptr<_Alty> _Proxy(_Alproxy, _Mypair._Myval2);
; 2416 :         _Tidy_init();

  0004c	8b 4d ec	 mov	 ecx, DWORD PTR _this$[ebp]
  0004f	e8 00 00 00 00	 call	 ?_Tidy_init@?$basic_string@DU?$char_traits@D@std@@V?$allocator@D@2@@std@@AAEXXZ ; std::basic_string<char,std::char_traits<char>,std::allocator<char> >::_Tidy_init

; 389  :         return _CSTD strlen(reinterpret_cast<const char*>(_First));

  00054	ff 75 08	 push	 DWORD PTR __Ptr$[ebp]
  00057	e8 00 00 00 00	 call	 _strlen
  0005c	59		 pop	 ecx
  0005d	89 45 e0	 mov	 DWORD PTR $T3[ebp], eax
; File C:\Program Files (x86)\Microsoft Visual Studio\2019\Community\VC\Tools\MSVC\14.28.29333\include\xmemory

; 997  :     return _Len;

  00060	8b 45 e0	 mov	 eax, DWORD PTR $T3[ebp]
  00063	89 45 dc	 mov	 DWORD PTR $T2[ebp], eax
; File C:\Program Files (x86)\Microsoft Visual Studio\2019\Community\VC\Tools\MSVC\14.28.29333\include\xstring

; 3062 :         return assign(_Ptr, _Convert_size<size_type>(_Traits::length(_Ptr)));

  00066	ff 75 dc	 push	 DWORD PTR $T2[ebp]
  00069	ff 75 08	 push	 DWORD PTR __Ptr$[ebp]
  0006c	8b 4d ec	 mov	 ecx, DWORD PTR _this$[ebp]
  0006f	e8 00 00 00 00	 call	 ?assign@?$basic_string@DU?$char_traits@D@std@@V?$allocator@D@2@@std@@QAEAAV12@QBDI@Z ; std::basic_string<char,std::char_traits<char>,std::allocator<char> >::assign

; 2417 :         assign(_Ptr);
; 2418 :         _Proxy._Release();
; 2419 :     }

  00074	83 4d fc ff	 or	 DWORD PTR __$EHRec$[ebp+8], -1
  00078	8b 45 ec	 mov	 eax, DWORD PTR _this$[ebp]
  0007b	8b 4d f4	 mov	 ecx, DWORD PTR __$EHRec$[ebp]
  0007e	64 89 0d 00 00
	00 00		 mov	 DWORD PTR fs:0, ecx
  00085	59		 pop	 ecx
  00086	c9		 leave
  00087	c2 04 00	 ret	 4
_TEXT	ENDS
;	COMDAT text$x
text$x	SEGMENT
__unwindfunclet$??0?$basic_string@DU?$char_traits@D@std@@V?$allocator@D@2@@std@@QAE@QBD@Z$0:
  00000	8b 4d ec	 mov	 ecx, DWORD PTR _this$[ebp]
  00003	e9 00 00 00 00	 jmp	 ??1?$_Compressed_pair@V?$allocator@D@std@@V?$_String_val@U?$_Simple_types@D@std@@@2@$00@std@@QAE@XZ
  00008	cc		 int	 3
  00009	cc		 int	 3
  0000a	cc		 int	 3
  0000b	cc		 int	 3
  0000c	cc		 int	 3
__ehhandler$??0?$basic_string@DU?$char_traits@D@std@@V?$allocator@D@2@@std@@QAE@QBD@Z:
  0000d	90		 npad	 1
  0000e	90		 npad	 1
  0000f	8b 54 24 08	 mov	 edx, DWORD PTR [esp+8]
  00013	8d 42 0c	 lea	 eax, DWORD PTR [edx+12]
  00016	8b 4a e0	 mov	 ecx, DWORD PTR [edx-32]
  00019	33 c8		 xor	 ecx, eax
  0001b	e8 00 00 00 00	 call	 @__security_check_cookie@4
  00020	b8 00 00 00 00	 mov	 eax, OFFSET __ehfuncinfo$??0?$basic_string@DU?$char_traits@D@std@@V?$allocator@D@2@@std@@QAE@QBD@Z
  00025	e9 00 00 00 00	 jmp	 ___CxxFrameHandler3
text$x	ENDS
??0?$basic_string@DU?$char_traits@D@std@@V?$allocator@D@2@@std@@QAE@QBD@Z ENDP ; std::basic_string<char,std::char_traits<char>,std::allocator<char> >::basic_string<char,std::char_traits<char>,std::allocator<char> >
; Function compile flags: /Odspy
; File C:\Program Files (x86)\Microsoft Visual Studio\2019\Community\VC\Tools\MSVC\14.28.29333\include\xstring
; File C:\Program Files (x86)\Microsoft Visual Studio\2019\Community\VC\Tools\MSVC\14.28.29333\include\xstddef
; File C:\Program Files (x86)\Microsoft Visual Studio\2019\Community\VC\Tools\MSVC\14.28.29333\include\xstring
;	COMDAT ?_Myptr@?$_String_val@U?$_Simple_types@D@std@@@std@@QAEPADXZ
_TEXT	SEGMENT
__Ptr$ = -20						; size = 4
__Result$ = -16						; size = 4
tv76 = -12						; size = 4
_this$ = -8						; size = 4
$T1 = -1						; size = 1
?_Myptr@?$_String_val@U?$_Simple_types@D@std@@@std@@QAEPADXZ PROC ; std::_String_val<std::_Simple_types<char> >::_Myptr, COMDAT
; _this$ = ecx

; 2208 :     value_type* _Myptr() noexcept {

  00000	55		 push	 ebp
  00001	8b ec		 mov	 ebp, esp
  00003	83 ec 14	 sub	 esp, 20			; 00000014H
  00006	89 4d f8	 mov	 DWORD PTR _this$[ebp], ecx

; 2209 :         value_type* _Result = _Bx._Buf;

  00009	8b 45 f8	 mov	 eax, DWORD PTR _this$[ebp]
  0000c	89 45 f0	 mov	 DWORD PTR __Result$[ebp], eax

; 2227 :         return _BUF_SIZE <= _Myres;

  0000f	8b 45 f8	 mov	 eax, DWORD PTR _this$[ebp]
  00012	83 78 14 10	 cmp	 DWORD PTR [eax+20], 16	; 00000010H
  00016	72 09		 jb	 SHORT $LN6@Myptr
  00018	c7 45 f4 01 00
	00 00		 mov	 DWORD PTR tv76[ebp], 1
  0001f	eb 04		 jmp	 SHORT $LN7@Myptr
$LN6@Myptr:
  00021	83 65 f4 00	 and	 DWORD PTR tv76[ebp], 0
$LN7@Myptr:
  00025	8a 45 f4	 mov	 al, BYTE PTR tv76[ebp]
  00028	88 45 ff	 mov	 BYTE PTR $T1[ebp], al

; 2210 :         if (_Large_string_engaged()) {

  0002b	0f b6 45 ff	 movzx	 eax, BYTE PTR $T1[ebp]
  0002f	85 c0		 test	 eax, eax
  00031	74 0e		 je	 SHORT $LN2@Myptr

; 2211 :             _Result = _Unfancy(_Bx._Ptr);

  00033	8b 45 f8	 mov	 eax, DWORD PTR _this$[ebp]
  00036	8b 00		 mov	 eax, DWORD PTR [eax]
  00038	89 45 ec	 mov	 DWORD PTR __Ptr$[ebp], eax
; File C:\Program Files (x86)\Microsoft Visual Studio\2019\Community\VC\Tools\MSVC\14.28.29333\include\xstddef

; 289  :     return _Ptr;

  0003b	8b 45 ec	 mov	 eax, DWORD PTR __Ptr$[ebp]
  0003e	89 45 f0	 mov	 DWORD PTR __Result$[ebp], eax
$LN2@Myptr:
; File C:\Program Files (x86)\Microsoft Visual Studio\2019\Community\VC\Tools\MSVC\14.28.29333\include\xstring

; 2214 :         return _Result;

  00041	8b 45 f0	 mov	 eax, DWORD PTR __Result$[ebp]

; 2215 :     }

  00044	c9		 leave
  00045	c3		 ret	 0
?_Myptr@?$_String_val@U?$_Simple_types@D@std@@@std@@QAEPADXZ ENDP ; std::_String_val<std::_Simple_types<char> >::_Myptr
_TEXT	ENDS
; Function compile flags: /Odspy
; File C:\Program Files (x86)\Microsoft Visual Studio\2019\Community\VC\Tools\MSVC\14.28.29333\include\xstring
;	COMDAT ?_Xlen_string@std@@YAXXZ
_TEXT	SEGMENT
?_Xlen_string@std@@YAXXZ PROC				; std::_Xlen_string, COMDAT

; 2274 : [[noreturn]] inline void _Xlen_string() {

  00000	55		 push	 ebp
  00001	8b ec		 mov	 ebp, esp

; 2275 :     _Xlength_error("string too long");

  00003	68 00 00 00 00	 push	 OFFSET ??_C@_0BA@JFNIOLAK@string?5too?5long@
  00008	e8 00 00 00 00	 call	 ?_Xlength_error@std@@YAXPBD@Z ; std::_Xlength_error
$LN2@Xlen_strin:

; 2276 : }

  0000d	5d		 pop	 ebp
  0000e	c3		 ret	 0
?_Xlen_string@std@@YAXXZ ENDP				; std::_Xlen_string
_TEXT	ENDS
; Function compile flags: /Odspy
; File C:\Program Files (x86)\Microsoft Visual Studio\2019\Community\VC\Tools\MSVC\14.28.29333\include\xmemory
;	COMDAT ?_Adjust_manually_vector_aligned@std@@YAXAAPAXAAI@Z
_TEXT	SEGMENT
__Min_back_shift$ = -16					; size = 4
__Ptr_user$ = -12					; size = 4
__Ptr_container$ = -8					; size = 4
__Back_shift$ = -4					; size = 4
__Ptr$ = 8						; size = 4
__Bytes$ = 12						; size = 4
?_Adjust_manually_vector_aligned@std@@YAXAAPAXAAI@Z PROC ; std::_Adjust_manually_vector_aligned, COMDAT

; 132  : inline void _Adjust_manually_vector_aligned(void*& _Ptr, size_t& _Bytes) {

  00000	55		 push	 ebp
  00001	8b ec		 mov	 ebp, esp
  00003	83 ec 10	 sub	 esp, 16			; 00000010H

; 133  :     // adjust parameters from _Allocate_manually_vector_aligned to pass to operator delete
; 134  :     _Bytes += _Non_user_size;

  00006	8b 45 0c	 mov	 eax, DWORD PTR __Bytes$[ebp]
  00009	8b 00		 mov	 eax, DWORD PTR [eax]
  0000b	83 c0 23	 add	 eax, 35			; 00000023H
  0000e	8b 4d 0c	 mov	 ecx, DWORD PTR __Bytes$[ebp]
  00011	89 01		 mov	 DWORD PTR [ecx], eax

; 135  : 
; 136  :     const uintptr_t* const _Ptr_user = reinterpret_cast<uintptr_t*>(_Ptr);

  00013	8b 45 08	 mov	 eax, DWORD PTR __Ptr$[ebp]
  00016	8b 00		 mov	 eax, DWORD PTR [eax]
  00018	89 45 f4	 mov	 DWORD PTR __Ptr_user$[ebp], eax

; 137  :     const uintptr_t _Ptr_container   = _Ptr_user[-1];

  0001b	6a 04		 push	 4
  0001d	58		 pop	 eax
  0001e	6b c0 ff	 imul	 eax, eax, -1
  00021	8b 4d f4	 mov	 ecx, DWORD PTR __Ptr_user$[ebp]
  00024	8b 04 01	 mov	 eax, DWORD PTR [ecx+eax]
  00027	89 45 f8	 mov	 DWORD PTR __Ptr_container$[ebp], eax

; 138  : 
; 139  :     // If the following asserts, it likely means that we are performing
; 140  :     // an aligned delete on memory coming from an unaligned allocation.
; 141  :     _STL_ASSERT(_Ptr_user[-2] == _Big_allocation_sentinel, "invalid argument");
; 142  : 
; 143  :     // Extra paranoia on aligned allocation/deallocation; ensure _Ptr_container is
; 144  :     // in range [_Min_back_shift, _Non_user_size]
; 145  : #ifdef _DEBUG
; 146  :     constexpr uintptr_t _Min_back_shift = 2 * sizeof(void*);
; 147  : #else // ^^^ _DEBUG ^^^ // vvv !_DEBUG vvv
; 148  :     constexpr uintptr_t _Min_back_shift = sizeof(void*);

  0002a	c7 45 f0 04 00
	00 00		 mov	 DWORD PTR __Min_back_shift$[ebp], 4

; 149  : #endif // _DEBUG
; 150  :     const uintptr_t _Back_shift = reinterpret_cast<uintptr_t>(_Ptr) - _Ptr_container;

  00031	8b 45 08	 mov	 eax, DWORD PTR __Ptr$[ebp]
  00034	8b 00		 mov	 eax, DWORD PTR [eax]
  00036	2b 45 f8	 sub	 eax, DWORD PTR __Ptr_container$[ebp]
  00039	89 45 fc	 mov	 DWORD PTR __Back_shift$[ebp], eax
$LN4@Adjust_man:

; 151  :     _STL_VERIFY(_Back_shift >= _Min_back_shift && _Back_shift <= _Non_user_size, "invalid argument");

  0003c	83 7d fc 04	 cmp	 DWORD PTR __Back_shift$[ebp], 4
  00040	72 08		 jb	 SHORT $LN7@Adjust_man
  00042	83 7d fc 23	 cmp	 DWORD PTR __Back_shift$[ebp], 35 ; 00000023H
  00046	77 02		 ja	 SHORT $LN7@Adjust_man
  00048	eb 09		 jmp	 SHORT $LN2@Adjust_man
$LN7@Adjust_man:
  0004a	e8 00 00 00 00	 call	 __invalid_parameter_noinfo_noreturn
  0004f	33 c0		 xor	 eax, eax
  00051	75 f7		 jne	 SHORT $LN7@Adjust_man
$LN2@Adjust_man:
  00053	33 c0		 xor	 eax, eax
  00055	75 e5		 jne	 SHORT $LN4@Adjust_man

; 152  :     _Ptr = reinterpret_cast<void*>(_Ptr_container);

  00057	8b 45 08	 mov	 eax, DWORD PTR __Ptr$[ebp]
  0005a	8b 4d f8	 mov	 ecx, DWORD PTR __Ptr_container$[ebp]
  0005d	89 08		 mov	 DWORD PTR [eax], ecx
$LN10@Adjust_man:

; 153  : }

  0005f	c9		 leave
  00060	c3		 ret	 0
?_Adjust_manually_vector_aligned@std@@YAXAAPAXAAI@Z ENDP ; std::_Adjust_manually_vector_aligned
_TEXT	ENDS
; Function compile flags: /Odspy
; File C:\Program Files (x86)\Microsoft Visual Studio\2019\Community\VC\Tools\MSVC\14.28.29333\include\exception
;	COMDAT ?_Throw_bad_array_new_length@std@@YAXXZ
_TEXT	SEGMENT
$T1 = -12						; size = 12
?_Throw_bad_array_new_length@std@@YAXXZ PROC		; std::_Throw_bad_array_new_length, COMDAT

; 320  : [[noreturn]] inline void _Throw_bad_array_new_length() {

  00000	55		 push	 ebp
  00001	8b ec		 mov	 ebp, esp
  00003	83 ec 0c	 sub	 esp, 12			; 0000000cH

; 321  :     _THROW(bad_array_new_length{});

  00006	8d 4d f4	 lea	 ecx, DWORD PTR $T1[ebp]
  00009	e8 00 00 00 00	 call	 ??0bad_array_new_length@std@@QAE@XZ ; std::bad_array_new_length::bad_array_new_length
  0000e	68 00 00 00 00	 push	 OFFSET __TI3?AVbad_array_new_length@std@@
  00013	8d 45 f4	 lea	 eax, DWORD PTR $T1[ebp]
  00016	50		 push	 eax
  00017	e8 00 00 00 00	 call	 __CxxThrowException@8
$LN2@Throw_bad_:

; 322  : }

  0001c	c9		 leave
  0001d	c3		 ret	 0
?_Throw_bad_array_new_length@std@@YAXXZ ENDP		; std::_Throw_bad_array_new_length
_TEXT	ENDS
; Function compile flags: /Odspy
; File C:\Program Files (x86)\Microsoft Visual Studio\2019\Community\VC\Tools\MSVC\14.28.29333\include\vcruntime_exception.h
;	COMDAT ??_Gbad_array_new_length@std@@UAEPAXI@Z
_TEXT	SEGMENT
_this$ = -4						; size = 4
___flags$ = 8						; size = 4
??_Gbad_array_new_length@std@@UAEPAXI@Z PROC		; std::bad_array_new_length::`scalar deleting destructor', COMDAT
; _this$ = ecx
  00000	55		 push	 ebp
  00001	8b ec		 mov	 ebp, esp
  00003	51		 push	 ecx
  00004	89 4d fc	 mov	 DWORD PTR _this$[ebp], ecx

; 89   :     {

  00007	8b 45 fc	 mov	 eax, DWORD PTR _this$[ebp]
  0000a	c7 00 00 00 00
	00		 mov	 DWORD PTR [eax], OFFSET ??_7exception@std@@6B@

; 90   :         __std_exception_destroy(&_Data);

  00010	8b 45 fc	 mov	 eax, DWORD PTR _this$[ebp]
  00013	83 c0 04	 add	 eax, 4
  00016	50		 push	 eax
  00017	e8 00 00 00 00	 call	 ___std_exception_destroy
  0001c	59		 pop	 ecx
  0001d	8b 45 08	 mov	 eax, DWORD PTR ___flags$[ebp]
  00020	83 e0 01	 and	 eax, 1
  00023	74 0c		 je	 SHORT $LN2@scalar
  00025	6a 0c		 push	 12			; 0000000cH
  00027	ff 75 fc	 push	 DWORD PTR _this$[ebp]
  0002a	e8 00 00 00 00	 call	 ??3@YAXPAXI@Z		; operator delete
  0002f	59		 pop	 ecx
  00030	59		 pop	 ecx
$LN2@scalar:
  00031	8b 45 fc	 mov	 eax, DWORD PTR _this$[ebp]
  00034	c9		 leave
  00035	c2 04 00	 ret	 4
??_Gbad_array_new_length@std@@UAEPAXI@Z ENDP		; std::bad_array_new_length::`scalar deleting destructor'
_TEXT	ENDS
; Function compile flags: /Odspy
;	COMDAT ??0bad_array_new_length@std@@QAE@ABV01@@Z
_TEXT	SEGMENT
_this$ = -4						; size = 4
___that$ = 8						; size = 4
??0bad_array_new_length@std@@QAE@ABV01@@Z PROC		; std::bad_array_new_length::bad_array_new_length, COMDAT
; _this$ = ecx
  00000	55		 push	 ebp
  00001	8b ec		 mov	 ebp, esp
  00003	51		 push	 ecx
  00004	89 4d fc	 mov	 DWORD PTR _this$[ebp], ecx
  00007	ff 75 08	 push	 DWORD PTR ___that$[ebp]
  0000a	8b 4d fc	 mov	 ecx, DWORD PTR _this$[ebp]
  0000d	e8 00 00 00 00	 call	 ??0exception@std@@QAE@ABV01@@Z ; std::exception::exception
  00012	8b 45 fc	 mov	 eax, DWORD PTR _this$[ebp]
  00015	c7 00 00 00 00
	00		 mov	 DWORD PTR [eax], OFFSET ??_7bad_alloc@std@@6B@
  0001b	8b 45 fc	 mov	 eax, DWORD PTR _this$[ebp]
  0001e	c7 00 00 00 00
	00		 mov	 DWORD PTR [eax], OFFSET ??_7bad_array_new_length@std@@6B@
  00024	8b 45 fc	 mov	 eax, DWORD PTR _this$[ebp]
  00027	c9		 leave
  00028	c2 04 00	 ret	 4
??0bad_array_new_length@std@@QAE@ABV01@@Z ENDP		; std::bad_array_new_length::bad_array_new_length
_TEXT	ENDS
; Function compile flags: /Odspy
; File C:\Program Files (x86)\Microsoft Visual Studio\2019\Community\VC\Tools\MSVC\14.28.29333\include\vcruntime_exception.h
;	COMDAT ??1bad_array_new_length@std@@UAE@XZ
_TEXT	SEGMENT
_this$ = -4						; size = 4
??1bad_array_new_length@std@@UAE@XZ PROC		; std::bad_array_new_length::~bad_array_new_length, COMDAT
; _this$ = ecx
  00000	55		 push	 ebp
  00001	8b ec		 mov	 ebp, esp
  00003	51		 push	 ecx
  00004	89 4d fc	 mov	 DWORD PTR _this$[ebp], ecx

; 89   :     {

  00007	8b 45 fc	 mov	 eax, DWORD PTR _this$[ebp]
  0000a	c7 00 00 00 00
	00		 mov	 DWORD PTR [eax], OFFSET ??_7exception@std@@6B@

; 90   :         __std_exception_destroy(&_Data);

  00010	8b 45 fc	 mov	 eax, DWORD PTR _this$[ebp]
  00013	83 c0 04	 add	 eax, 4
  00016	50		 push	 eax
  00017	e8 00 00 00 00	 call	 ___std_exception_destroy
  0001c	59		 pop	 ecx
  0001d	c9		 leave
  0001e	c3		 ret	 0
??1bad_array_new_length@std@@UAE@XZ ENDP		; std::bad_array_new_length::~bad_array_new_length
_TEXT	ENDS
; Function compile flags: /Odspy
; File C:\Program Files (x86)\Microsoft Visual Studio\2019\Community\VC\Tools\MSVC\14.28.29333\include\vcruntime_exception.h
;	COMDAT ??0bad_array_new_length@std@@QAE@XZ
_TEXT	SEGMENT
_this$ = -4						; size = 4
??0bad_array_new_length@std@@QAE@XZ PROC		; std::bad_array_new_length::bad_array_new_length, COMDAT
; _this$ = ecx

; 141  :     {

  00000	55		 push	 ebp
  00001	8b ec		 mov	 ebp, esp
  00003	51		 push	 ecx
  00004	89 4d fc	 mov	 DWORD PTR _this$[ebp], ecx

; 66   :     {

  00007	8b 45 fc	 mov	 eax, DWORD PTR _this$[ebp]
  0000a	c7 00 00 00 00
	00		 mov	 DWORD PTR [eax], OFFSET ??_7exception@std@@6B@

; 65   :         : _Data()

  00010	33 c0		 xor	 eax, eax
  00012	8b 4d fc	 mov	 ecx, DWORD PTR _this$[ebp]
  00015	83 c1 04	 add	 ecx, 4
  00018	89 01		 mov	 DWORD PTR [ecx], eax
  0001a	89 41 04	 mov	 DWORD PTR [ecx+4], eax

; 67   :         _Data._What = _Message;

  0001d	8b 45 fc	 mov	 eax, DWORD PTR _this$[ebp]
  00020	c7 40 04 00 00
	00 00		 mov	 DWORD PTR [eax+4], OFFSET ??_C@_0BF@KINCDENJ@bad?5array?5new?5length@

; 130  :     {

  00027	8b 45 fc	 mov	 eax, DWORD PTR _this$[ebp]
  0002a	c7 00 00 00 00
	00		 mov	 DWORD PTR [eax], OFFSET ??_7bad_alloc@std@@6B@

; 141  :     {

  00030	8b 45 fc	 mov	 eax, DWORD PTR _this$[ebp]
  00033	c7 00 00 00 00
	00		 mov	 DWORD PTR [eax], OFFSET ??_7bad_array_new_length@std@@6B@

; 142  :     }

  00039	8b 45 fc	 mov	 eax, DWORD PTR _this$[ebp]
  0003c	c9		 leave
  0003d	c3		 ret	 0
??0bad_array_new_length@std@@QAE@XZ ENDP		; std::bad_array_new_length::bad_array_new_length
_TEXT	ENDS
; Function compile flags: /Odspy
; File C:\Program Files (x86)\Microsoft Visual Studio\2019\Community\VC\Tools\MSVC\14.28.29333\include\vcruntime_exception.h
;	COMDAT ??_Gbad_alloc@std@@UAEPAXI@Z
_TEXT	SEGMENT
_this$ = -4						; size = 4
___flags$ = 8						; size = 4
??_Gbad_alloc@std@@UAEPAXI@Z PROC			; std::bad_alloc::`scalar deleting destructor', COMDAT
; _this$ = ecx
  00000	55		 push	 ebp
  00001	8b ec		 mov	 ebp, esp
  00003	51		 push	 ecx
  00004	89 4d fc	 mov	 DWORD PTR _this$[ebp], ecx

; 89   :     {

  00007	8b 45 fc	 mov	 eax, DWORD PTR _this$[ebp]
  0000a	c7 00 00 00 00
	00		 mov	 DWORD PTR [eax], OFFSET ??_7exception@std@@6B@

; 90   :         __std_exception_destroy(&_Data);

  00010	8b 45 fc	 mov	 eax, DWORD PTR _this$[ebp]
  00013	83 c0 04	 add	 eax, 4
  00016	50		 push	 eax
  00017	e8 00 00 00 00	 call	 ___std_exception_destroy
  0001c	59		 pop	 ecx
  0001d	8b 45 08	 mov	 eax, DWORD PTR ___flags$[ebp]
  00020	83 e0 01	 and	 eax, 1
  00023	74 0c		 je	 SHORT $LN2@scalar
  00025	6a 0c		 push	 12			; 0000000cH
  00027	ff 75 fc	 push	 DWORD PTR _this$[ebp]
  0002a	e8 00 00 00 00	 call	 ??3@YAXPAXI@Z		; operator delete
  0002f	59		 pop	 ecx
  00030	59		 pop	 ecx
$LN2@scalar:
  00031	8b 45 fc	 mov	 eax, DWORD PTR _this$[ebp]
  00034	c9		 leave
  00035	c2 04 00	 ret	 4
??_Gbad_alloc@std@@UAEPAXI@Z ENDP			; std::bad_alloc::`scalar deleting destructor'
_TEXT	ENDS
; Function compile flags: /Odspy
;	COMDAT ??0bad_alloc@std@@QAE@ABV01@@Z
_TEXT	SEGMENT
_this$ = -4						; size = 4
___that$ = 8						; size = 4
??0bad_alloc@std@@QAE@ABV01@@Z PROC			; std::bad_alloc::bad_alloc, COMDAT
; _this$ = ecx
  00000	55		 push	 ebp
  00001	8b ec		 mov	 ebp, esp
  00003	51		 push	 ecx
  00004	89 4d fc	 mov	 DWORD PTR _this$[ebp], ecx
  00007	ff 75 08	 push	 DWORD PTR ___that$[ebp]
  0000a	8b 4d fc	 mov	 ecx, DWORD PTR _this$[ebp]
  0000d	e8 00 00 00 00	 call	 ??0exception@std@@QAE@ABV01@@Z ; std::exception::exception
  00012	8b 45 fc	 mov	 eax, DWORD PTR _this$[ebp]
  00015	c7 00 00 00 00
	00		 mov	 DWORD PTR [eax], OFFSET ??_7bad_alloc@std@@6B@
  0001b	8b 45 fc	 mov	 eax, DWORD PTR _this$[ebp]
  0001e	c9		 leave
  0001f	c2 04 00	 ret	 4
??0bad_alloc@std@@QAE@ABV01@@Z ENDP			; std::bad_alloc::bad_alloc
_TEXT	ENDS
; Function compile flags: /Odspy
; File C:\Program Files (x86)\Microsoft Visual Studio\2019\Community\VC\Tools\MSVC\14.28.29333\include\vcruntime_exception.h
;	COMDAT ??_Gexception@std@@UAEPAXI@Z
_TEXT	SEGMENT
_this$ = -4						; size = 4
___flags$ = 8						; size = 4
??_Gexception@std@@UAEPAXI@Z PROC			; std::exception::`scalar deleting destructor', COMDAT
; _this$ = ecx
  00000	55		 push	 ebp
  00001	8b ec		 mov	 ebp, esp
  00003	51		 push	 ecx
  00004	89 4d fc	 mov	 DWORD PTR _this$[ebp], ecx

; 89   :     {

  00007	8b 45 fc	 mov	 eax, DWORD PTR _this$[ebp]
  0000a	c7 00 00 00 00
	00		 mov	 DWORD PTR [eax], OFFSET ??_7exception@std@@6B@

; 90   :         __std_exception_destroy(&_Data);

  00010	8b 45 fc	 mov	 eax, DWORD PTR _this$[ebp]
  00013	83 c0 04	 add	 eax, 4
  00016	50		 push	 eax
  00017	e8 00 00 00 00	 call	 ___std_exception_destroy
  0001c	59		 pop	 ecx
  0001d	8b 45 08	 mov	 eax, DWORD PTR ___flags$[ebp]
  00020	83 e0 01	 and	 eax, 1
  00023	74 0c		 je	 SHORT $LN2@scalar
  00025	6a 0c		 push	 12			; 0000000cH
  00027	ff 75 fc	 push	 DWORD PTR _this$[ebp]
  0002a	e8 00 00 00 00	 call	 ??3@YAXPAXI@Z		; operator delete
  0002f	59		 pop	 ecx
  00030	59		 pop	 ecx
$LN2@scalar:
  00031	8b 45 fc	 mov	 eax, DWORD PTR _this$[ebp]
  00034	c9		 leave
  00035	c2 04 00	 ret	 4
??_Gexception@std@@UAEPAXI@Z ENDP			; std::exception::`scalar deleting destructor'
_TEXT	ENDS
; Function compile flags: /Odspy
; File C:\Program Files (x86)\Microsoft Visual Studio\2019\Community\VC\Tools\MSVC\14.28.29333\include\vcruntime_exception.h
;	COMDAT ?what@exception@std@@UBEPBDXZ
_TEXT	SEGMENT
tv69 = -8						; size = 4
_this$ = -4						; size = 4
?what@exception@std@@UBEPBDXZ PROC			; std::exception::what, COMDAT
; _this$ = ecx

; 94   :     {

  00000	55		 push	 ebp
  00001	8b ec		 mov	 ebp, esp
  00003	51		 push	 ecx
  00004	51		 push	 ecx
  00005	89 4d fc	 mov	 DWORD PTR _this$[ebp], ecx

; 95   :         return _Data._What ? _Data._What : "Unknown exception";

  00008	8b 45 fc	 mov	 eax, DWORD PTR _this$[ebp]
  0000b	83 78 04 00	 cmp	 DWORD PTR [eax+4], 0
  0000f	74 0b		 je	 SHORT $LN3@what
  00011	8b 45 fc	 mov	 eax, DWORD PTR _this$[ebp]
  00014	8b 40 04	 mov	 eax, DWORD PTR [eax+4]
  00017	89 45 f8	 mov	 DWORD PTR tv69[ebp], eax
  0001a	eb 07		 jmp	 SHORT $LN4@what
$LN3@what:
  0001c	c7 45 f8 00 00
	00 00		 mov	 DWORD PTR tv69[ebp], OFFSET ??_C@_0BC@EOODALEL@Unknown?5exception@
$LN4@what:
  00023	8b 45 f8	 mov	 eax, DWORD PTR tv69[ebp]

; 96   :     }

  00026	c9		 leave
  00027	c3		 ret	 0
?what@exception@std@@UBEPBDXZ ENDP			; std::exception::what
_TEXT	ENDS
; Function compile flags: /Odspy
; File C:\Program Files (x86)\Microsoft Visual Studio\2019\Community\VC\Tools\MSVC\14.28.29333\include\vcruntime_exception.h
;	COMDAT ??0exception@std@@QAE@ABV01@@Z
_TEXT	SEGMENT
_this$ = -4						; size = 4
__Other$ = 8						; size = 4
??0exception@std@@QAE@ABV01@@Z PROC			; std::exception::exception, COMDAT
; _this$ = ecx

; 72   :     {

  00000	55		 push	 ebp
  00001	8b ec		 mov	 ebp, esp
  00003	51		 push	 ecx
  00004	89 4d fc	 mov	 DWORD PTR _this$[ebp], ecx
  00007	8b 45 fc	 mov	 eax, DWORD PTR _this$[ebp]
  0000a	c7 00 00 00 00
	00		 mov	 DWORD PTR [eax], OFFSET ??_7exception@std@@6B@

; 71   :         : _Data()

  00010	33 c0		 xor	 eax, eax
  00012	8b 4d fc	 mov	 ecx, DWORD PTR _this$[ebp]
  00015	83 c1 04	 add	 ecx, 4
  00018	89 01		 mov	 DWORD PTR [ecx], eax
  0001a	89 41 04	 mov	 DWORD PTR [ecx+4], eax

; 73   :         __std_exception_copy(&_Other._Data, &_Data);

  0001d	8b 45 fc	 mov	 eax, DWORD PTR _this$[ebp]
  00020	83 c0 04	 add	 eax, 4
  00023	50		 push	 eax
  00024	8b 45 08	 mov	 eax, DWORD PTR __Other$[ebp]
  00027	83 c0 04	 add	 eax, 4
  0002a	50		 push	 eax
  0002b	e8 00 00 00 00	 call	 ___std_exception_copy
  00030	59		 pop	 ecx
  00031	59		 pop	 ecx

; 74   :     }

  00032	8b 45 fc	 mov	 eax, DWORD PTR _this$[ebp]
  00035	c9		 leave
  00036	c2 04 00	 ret	 4
??0exception@std@@QAE@ABV01@@Z ENDP			; std::exception::exception
_TEXT	ENDS
END
