; Listing generated by Microsoft (R) Optimizing Compiler Version 19.28.29335.0 

	TITLE	D:\Metin2 Server Files\mainline\SRC_2014\Metin2Client\UserInterface\PythonEventManager.cpp
	.686P
	.XMM
	include listing.inc
	.model	flat

INCLUDELIB LIBCMT
INCLUDELIB OLDNAMES

CONST	SEGMENT
?piecewise_construct@std@@3Upiecewise_construct_t@1@B	ORG $+1 ; std::piecewise_construct
CONST	ENDS
PUBLIC	??_H@YGXPAXIIP6EPAX0@Z@Z			; `vector constructor iterator'
PUBLIC	??0exception@std@@QAE@ABV01@@Z			; std::exception::exception
PUBLIC	?what@exception@std@@UBEPBDXZ			; std::exception::what
PUBLIC	??_Gexception@std@@UAEPAXI@Z			; std::exception::`scalar deleting destructor'
PUBLIC	??0bad_alloc@std@@QAE@ABV01@@Z			; std::bad_alloc::bad_alloc
PUBLIC	??_Gbad_alloc@std@@UAEPAXI@Z			; std::bad_alloc::`scalar deleting destructor'
PUBLIC	??0bad_array_new_length@std@@QAE@XZ		; std::bad_array_new_length::bad_array_new_length
PUBLIC	??1bad_array_new_length@std@@UAE@XZ		; std::bad_array_new_length::~bad_array_new_length
PUBLIC	??0bad_array_new_length@std@@QAE@ABV01@@Z	; std::bad_array_new_length::bad_array_new_length
PUBLIC	??_Gbad_array_new_length@std@@UAEPAXI@Z		; std::bad_array_new_length::`scalar deleting destructor'
PUBLIC	?_Throw_bad_array_new_length@std@@YAXXZ		; std::_Throw_bad_array_new_length
PUBLIC	?_Adjust_manually_vector_aligned@std@@YAXAAPAXAAI@Z ; std::_Adjust_manually_vector_aligned
PUBLIC	?_Xlen_string@std@@YAXXZ			; std::_Xlen_string
PUBLIC	??0?$_String_val@U?$_Simple_types@D@std@@@std@@QAE@XZ ; std::_String_val<std::_Simple_types<char> >::_String_val<std::_Simple_types<char> >
PUBLIC	?_Myptr@?$_String_val@U?$_Simple_types@D@std@@@std@@QAEPADXZ ; std::_String_val<std::_Simple_types<char> >::_Myptr
PUBLIC	?_Myptr@?$_String_val@U?$_Simple_types@D@std@@@std@@QBEPBDXZ ; std::_String_val<std::_Simple_types<char> >::_Myptr
PUBLIC	??0?$basic_string@DU?$char_traits@D@std@@V?$allocator@D@2@@std@@QAE@XZ ; std::basic_string<char,std::char_traits<char>,std::allocator<char> >::basic_string<char,std::char_traits<char>,std::allocator<char> >
PUBLIC	??0?$basic_string@DU?$char_traits@D@std@@V?$allocator@D@2@@std@@QAE@QBD@Z ; std::basic_string<char,std::char_traits<char>,std::allocator<char> >::basic_string<char,std::char_traits<char>,std::allocator<char> >
PUBLIC	??0?$basic_string@DU?$char_traits@D@std@@V?$allocator@D@2@@std@@QAE@$$QAV01@@Z ; std::basic_string<char,std::char_traits<char>,std::allocator<char> >::basic_string<char,std::char_traits<char>,std::allocator<char> >
PUBLIC	??1?$basic_string@DU?$char_traits@D@std@@V?$allocator@D@2@@std@@QAE@XZ ; std::basic_string<char,std::char_traits<char>,std::allocator<char> >::~basic_string<char,std::char_traits<char>,std::allocator<char> >
PUBLIC	?append@?$basic_string@DU?$char_traits@D@std@@V?$allocator@D@2@@std@@QAEAAV12@ABV12@@Z ; std::basic_string<char,std::char_traits<char>,std::allocator<char> >::append
PUBLIC	?append@?$basic_string@DU?$char_traits@D@std@@V?$allocator@D@2@@std@@QAEAAV12@QBDI@Z ; std::basic_string<char,std::char_traits<char>,std::allocator<char> >::append
PUBLIC	?append@?$basic_string@DU?$char_traits@D@std@@V?$allocator@D@2@@std@@QAEAAV12@ID@Z ; std::basic_string<char,std::char_traits<char>,std::allocator<char> >::append
PUBLIC	?assign@?$basic_string@DU?$char_traits@D@std@@V?$allocator@D@2@@std@@QAEAAV12@QBDI@Z ; std::basic_string<char,std::char_traits<char>,std::allocator<char> >::assign
PUBLIC	??A?$basic_string@DU?$char_traits@D@std@@V?$allocator@D@2@@std@@QAEAADI@Z ; std::basic_string<char,std::char_traits<char>,std::allocator<char> >::operator[]
PUBLIC	?c_str@?$basic_string@DU?$char_traits@D@std@@V?$allocator@D@2@@std@@QBEPBDXZ ; std::basic_string<char,std::char_traits<char>,std::allocator<char> >::c_str
PUBLIC	?max_size@?$basic_string@DU?$char_traits@D@std@@V?$allocator@D@2@@std@@QBEIXZ ; std::basic_string<char,std::char_traits<char>,std::allocator<char> >::max_size
PUBLIC	?resize@?$basic_string@DU?$char_traits@D@std@@V?$allocator@D@2@@std@@QAEXID@Z ; std::basic_string<char,std::char_traits<char>,std::allocator<char> >::resize
PUBLIC	?compare@?$basic_string@DU?$char_traits@D@std@@V?$allocator@D@2@@std@@QBEHABV12@@Z ; std::basic_string<char,std::char_traits<char>,std::allocator<char> >::compare
PUBLIC	?compare@?$basic_string@DU?$char_traits@D@std@@V?$allocator@D@2@@std@@QBEHQBD@Z ; std::basic_string<char,std::char_traits<char>,std::allocator<char> >::compare
PUBLIC	?_Calculate_growth@?$basic_string@DU?$char_traits@D@std@@V?$allocator@D@2@@std@@CAIIII@Z ; std::basic_string<char,std::char_traits<char>,std::allocator<char> >::_Calculate_growth
PUBLIC	?_Calculate_growth@?$basic_string@DU?$char_traits@D@std@@V?$allocator@D@2@@std@@ABEII@Z ; std::basic_string<char,std::char_traits<char>,std::allocator<char> >::_Calculate_growth
PUBLIC	?_Eos@?$basic_string@DU?$char_traits@D@std@@V?$allocator@D@2@@std@@AAEXI@Z ; std::basic_string<char,std::char_traits<char>,std::allocator<char> >::_Eos
PUBLIC	?_Tidy_init@?$basic_string@DU?$char_traits@D@std@@V?$allocator@D@2@@std@@AAEXXZ ; std::basic_string<char,std::char_traits<char>,std::allocator<char> >::_Tidy_init
PUBLIC	?_Tidy_deallocate@?$basic_string@DU?$char_traits@D@std@@V?$allocator@D@2@@std@@AAEXXZ ; std::basic_string<char,std::char_traits<char>,std::allocator<char> >::_Tidy_deallocate
PUBLIC	??1?$_Compressed_pair@V?$allocator@D@std@@V?$_String_val@U?$_Simple_types@D@std@@@2@$00@std@@QAE@XZ ; std::_Compressed_pair<std::allocator<char>,std::_String_val<std::_Simple_types<char> >,1>::~_Compressed_pair<std::allocator<char>,std::_String_val<std::_Simple_types<char> >,1>
PUBLIC	?_Throw_tree_length_error@std@@YAXXZ		; std::_Throw_tree_length_error
PUBLIC	??$_Destroy_in_place@PAD@std@@YAXAAPAD@Z	; std::_Destroy_in_place<char *>
PUBLIC	??$_Reallocate_for@V<lambda_9366063389c5f42a00a5088cf24e69de>@@PBD@?$basic_string@DU?$char_traits@D@std@@V?$allocator@D@2@@std@@AAEAAV01@IV<lambda_9366063389c5f42a00a5088cf24e69de>@@PBD@Z ; std::basic_string<char,std::char_traits<char>,std::allocator<char> >::_Reallocate_for<<lambda_9366063389c5f42a00a5088cf24e69de>,char const *>
PUBLIC	??$_Reallocate_grow_by@V<lambda_c1b8c41cb4019640539cfd828748c4d4>@@ID@?$basic_string@DU?$char_traits@D@std@@V?$allocator@D@2@@std@@AAEAAV01@IV<lambda_c1b8c41cb4019640539cfd828748c4d4>@@ID@Z ; std::basic_string<char,std::char_traits<char>,std::allocator<char> >::_Reallocate_grow_by<<lambda_c1b8c41cb4019640539cfd828748c4d4>,unsigned int,char>
PUBLIC	??$_Reallocate_grow_by@V<lambda_ab246b20b9526e2ef7792587e4298a77>@@PBDI@?$basic_string@DU?$char_traits@D@std@@V?$allocator@D@2@@std@@AAEAAV01@IV<lambda_ab246b20b9526e2ef7792587e4298a77>@@PBDI@Z ; std::basic_string<char,std::char_traits<char>,std::allocator<char> >::_Reallocate_grow_by<<lambda_ab246b20b9526e2ef7792587e4298a77>,char const *,unsigned int>
PUBLIC	??$_Construct_in_place@PADABQAD@std@@YAXAAPADABQAD@Z ; std::_Construct_in_place<char *,char * const &>
PUBLIC	??$_Deallocate@$07$0A@@std@@YAXPAXI@Z		; std::_Deallocate<8,0>
PUBLIC	??$_Allocate@$07U_Default_allocate_traits@std@@$0A@@std@@YAPAXI@Z ; std::_Allocate<8,std::_Default_allocate_traits,0>
PUBLIC	??$_Allocate_manually_vector_aligned@U_Default_allocate_traits@std@@@std@@YAPAXI@Z ; std::_Allocate_manually_vector_aligned<std::_Default_allocate_traits>
PUBLIC	??_GSArgumet@script@@QAEPAXI@Z			; script::SArgumet::`scalar deleting destructor'
PUBLIC	??0?$list@USArgumet@script@@V?$allocator@USArgumet@script@@@std@@@std@@QAE@XZ ; std::list<script::SArgumet,std::allocator<script::SArgumet> >::list<script::SArgumet,std::allocator<script::SArgumet> >
PUBLIC	?begin@?$list@USArgumet@script@@V?$allocator@USArgumet@script@@@std@@@std@@QAE?AV?$_List_iterator@V?$_List_val@U?$_List_simple_types@USArgumet@script@@@std@@@std@@@2@XZ ; std::list<script::SArgumet,std::allocator<script::SArgumet> >::begin
PUBLIC	?_Tidy@?$list@USArgumet@script@@V?$allocator@USArgumet@script@@@std@@@std@@AAEXXZ ; std::list<script::SArgumet,std::allocator<script::SArgumet> >::_Tidy
PUBLIC	?_Alloc_sentinel_and_proxy@?$list@USArgumet@script@@V?$allocator@USArgumet@script@@@std@@@std@@AAEXXZ ; std::list<script::SArgumet,std::allocator<script::SArgumet> >::_Alloc_sentinel_and_proxy
PUBLIC	??0SCmd@script@@QAE@XZ				; script::SCmd::SCmd
PUBLIC	??1SCmd@script@@QAE@XZ				; script::SCmd::~SCmd
PUBLIC	??1?$CSingleton@VCPythonEventManager@@@@UAE@XZ	; CSingleton<CPythonEventManager>::~CSingleton<CPythonEventManager>
PUBLIC	??_G?$CSingleton@VCPythonEventManager@@@@UAEPAXI@Z ; CSingleton<CPythonEventManager>::`scalar deleting destructor'
PUBLIC	??1?$_Tree@V?$_Tmap_traits@V?$basic_string@DU?$char_traits@D@std@@V?$allocator@D@2@@std@@HU?$less@V?$basic_string@DU?$char_traits@D@std@@V?$allocator@D@2@@std@@@2@V?$allocator@U?$pair@$$CBV?$basic_string@DU?$char_traits@D@std@@V?$allocator@D@2@@std@@H@std@@@2@$0A@@std@@@std@@QAE@XZ ; std::_Tree<std::_Tmap_traits<std::basic_string<char,std::char_traits<char>,std::allocator<char> >,int,std::less<std::basic_string<char,std::char_traits<char>,std::allocator<char> > >,std::allocator<std::pair<std::basic_string<char,std::char_traits<char>,std::allocator<char> > const ,int> >,0> >::~_Tree<std::_Tmap_traits<std::basic_string<char,std::char_traits<char>,std::allocator<char> >,int,std::less<std::basic_string<char,std::char_traits<char>,std::allocator<char> > >,std::allocator<std::pair<std::basic_string<char,std::char_traits<char>,std::allocator<char> > const ,int> >,0> >
PUBLIC	?max_size@?$_Tree@V?$_Tmap_traits@V?$basic_string@DU?$char_traits@D@std@@V?$allocator@D@2@@std@@HU?$less@V?$basic_string@DU?$char_traits@D@std@@V?$allocator@D@2@@std@@@2@V?$allocator@U?$pair@$$CBV?$basic_string@DU?$char_traits@D@std@@V?$allocator@D@2@@std@@H@std@@@2@$0A@@std@@@std@@QBEIXZ ; std::_Tree<std::_Tmap_traits<std::basic_string<char,std::char_traits<char>,std::allocator<char> >,int,std::less<std::basic_string<char,std::char_traits<char>,std::allocator<char> > >,std::allocator<std::pair<std::basic_string<char,std::char_traits<char>,std::allocator<char> > const ,int> >,0> >::max_size
PUBLIC	?find@?$_Tree@V?$_Tmap_traits@V?$basic_string@DU?$char_traits@D@std@@V?$allocator@D@2@@std@@HU?$less@V?$basic_string@DU?$char_traits@D@std@@V?$allocator@D@2@@std@@@2@V?$allocator@U?$pair@$$CBV?$basic_string@DU?$char_traits@D@std@@V?$allocator@D@2@@std@@H@std@@@2@$0A@@std@@@std@@QAE?AV?$_Tree_iterator@V?$_Tree_val@U?$_Tree_simple_types@U?$pair@$$CBV?$basic_string@DU?$char_traits@D@std@@V?$allocator@D@2@@std@@H@std@@@std@@@std@@@2@ABV?$basic_string@DU?$char_traits@D@std@@V?$allocator@D@2@@2@@Z ; std::_Tree<std::_Tmap_traits<std::basic_string<char,std::char_traits<char>,std::allocator<char> >,int,std::less<std::basic_string<char,std::char_traits<char>,std::allocator<char> > >,std::allocator<std::pair<std::basic_string<char,std::char_traits<char>,std::allocator<char> > const ,int> >,0> >::find
PUBLIC	?_Check_grow_by_1@?$_Tree@V?$_Tmap_traits@V?$basic_string@DU?$char_traits@D@std@@V?$allocator@D@2@@std@@HU?$less@V?$basic_string@DU?$char_traits@D@std@@V?$allocator@D@2@@std@@@2@V?$allocator@U?$pair@$$CBV?$basic_string@DU?$char_traits@D@std@@V?$allocator@D@2@@std@@H@std@@@2@$0A@@std@@@std@@IAEXXZ ; std::_Tree<std::_Tmap_traits<std::basic_string<char,std::char_traits<char>,std::allocator<char> >,int,std::less<std::basic_string<char,std::char_traits<char>,std::allocator<char> > >,std::allocator<std::pair<std::basic_string<char,std::char_traits<char>,std::allocator<char> > const ,int> >,0> >::_Check_grow_by_1
PUBLIC	?_Alloc_sentinel_and_proxy@?$_Tree@V?$_Tmap_traits@V?$basic_string@DU?$char_traits@D@std@@V?$allocator@D@2@@std@@HU?$less@V?$basic_string@DU?$char_traits@D@std@@V?$allocator@D@2@@std@@@2@V?$allocator@U?$pair@$$CBV?$basic_string@DU?$char_traits@D@std@@V?$allocator@D@2@@std@@H@std@@@2@$0A@@std@@@std@@IAEXXZ ; std::_Tree<std::_Tmap_traits<std::basic_string<char,std::char_traits<char>,std::allocator<char> >,int,std::less<std::basic_string<char,std::char_traits<char>,std::allocator<char> > >,std::allocator<std::pair<std::basic_string<char,std::char_traits<char>,std::allocator<char> > const ,int> >,0> >::_Alloc_sentinel_and_proxy
PUBLIC	?_Lrotate@?$_Tree_val@U?$_Tree_simple_types@U?$pair@$$CBV?$basic_string@DU?$char_traits@D@std@@V?$allocator@D@2@@std@@H@std@@@std@@@std@@QAEXPAU?$_Tree_node@U?$pair@$$CBV?$basic_string@DU?$char_traits@D@std@@V?$allocator@D@2@@std@@H@std@@PAX@2@@Z ; std::_Tree_val<std::_Tree_simple_types<std::pair<std::basic_string<char,std::char_traits<char>,std::allocator<char> > const ,int> > >::_Lrotate
PUBLIC	?_Rrotate@?$_Tree_val@U?$_Tree_simple_types@U?$pair@$$CBV?$basic_string@DU?$char_traits@D@std@@V?$allocator@D@2@@std@@H@std@@@std@@@std@@QAEXPAU?$_Tree_node@U?$pair@$$CBV?$basic_string@DU?$char_traits@D@std@@V?$allocator@D@2@@std@@H@std@@PAX@2@@Z ; std::_Tree_val<std::_Tree_simple_types<std::pair<std::basic_string<char,std::char_traits<char>,std::allocator<char> > const ,int> > >::_Rrotate
PUBLIC	?_Insert_node@?$_Tree_val@U?$_Tree_simple_types@U?$pair@$$CBV?$basic_string@DU?$char_traits@D@std@@V?$allocator@D@2@@std@@H@std@@@std@@@std@@QAEPAU?$_Tree_node@U?$pair@$$CBV?$basic_string@DU?$char_traits@D@std@@V?$allocator@D@2@@std@@H@std@@PAX@2@U?$_Tree_id@PAU?$_Tree_node@U?$pair@$$CBV?$basic_string@DU?$char_traits@D@std@@V?$allocator@D@2@@std@@H@std@@PAX@std@@@2@QAU32@@Z ; std::_Tree_val<std::_Tree_simple_types<std::pair<std::basic_string<char,std::char_traits<char>,std::allocator<char> > const ,int> > >::_Insert_node
PUBLIC	??1?$map@V?$basic_string@DU?$char_traits@D@std@@V?$allocator@D@2@@std@@HU?$less@V?$basic_string@DU?$char_traits@D@std@@V?$allocator@D@2@@std@@@2@V?$allocator@U?$pair@$$CBV?$basic_string@DU?$char_traits@D@std@@V?$allocator@D@2@@std@@H@std@@@2@@std@@QAE@XZ ; std::map<std::basic_string<char,std::char_traits<char>,std::allocator<char> >,int,std::less<std::basic_string<char,std::char_traits<char>,std::allocator<char> > >,std::allocator<std::pair<std::basic_string<char,std::char_traits<char>,std::allocator<char> > const ,int> > >::~map<std::basic_string<char,std::char_traits<char>,std::allocator<char> >,int,std::less<std::basic_string<char,std::char_traits<char>,std::allocator<char> > >,std::allocator<std::pair<std::basic_string<char,std::char_traits<char>,std::allocator<char> > const ,int> > >
PUBLIC	??0?$list@USTextLine@CPythonEventManager@@V?$allocator@USTextLine@CPythonEventManager@@@std@@@std@@QAE@XZ ; std::list<CPythonEventManager::STextLine,std::allocator<CPythonEventManager::STextLine> >::list<CPythonEventManager::STextLine,std::allocator<CPythonEventManager::STextLine> >
PUBLIC	??1?$list@USTextLine@CPythonEventManager@@V?$allocator@USTextLine@CPythonEventManager@@@std@@@std@@QAE@XZ ; std::list<CPythonEventManager::STextLine,std::allocator<CPythonEventManager::STextLine> >::~list<CPythonEventManager::STextLine,std::allocator<CPythonEventManager::STextLine> >
PUBLIC	?begin@?$list@USTextLine@CPythonEventManager@@V?$allocator@USTextLine@CPythonEventManager@@@std@@@std@@QAE?AV?$_List_iterator@V?$_List_val@U?$_List_simple_types@USTextLine@CPythonEventManager@@@std@@@std@@@2@XZ ; std::list<CPythonEventManager::STextLine,std::allocator<CPythonEventManager::STextLine> >::begin
PUBLIC	?clear@?$list@USTextLine@CPythonEventManager@@V?$allocator@USTextLine@CPythonEventManager@@@std@@@std@@QAEXXZ ; std::list<CPythonEventManager::STextLine,std::allocator<CPythonEventManager::STextLine> >::clear
PUBLIC	?_Tidy@?$list@USTextLine@CPythonEventManager@@V?$allocator@USTextLine@CPythonEventManager@@@std@@@std@@AAEXXZ ; std::list<CPythonEventManager::STextLine,std::allocator<CPythonEventManager::STextLine> >::_Tidy
PUBLIC	?_Alloc_sentinel_and_proxy@?$list@USTextLine@CPythonEventManager@@V?$allocator@USTextLine@CPythonEventManager@@@std@@@std@@AAEXXZ ; std::list<CPythonEventManager::STextLine,std::allocator<CPythonEventManager::STextLine> >::_Alloc_sentinel_and_proxy
PUBLIC	??0SEventSet@CPythonEventManager@@QAE@XZ	; CPythonEventManager::SEventSet::SEventSet
PUBLIC	??1SEventSet@CPythonEventManager@@UAE@XZ	; CPythonEventManager::SEventSet::~SEventSet
PUBLIC	??_GSEventSet@CPythonEventManager@@UAEPAXI@Z	; CPythonEventManager::SEventSet::`scalar deleting destructor'
PUBLIC	??0CPythonEventManager@@QAE@XZ			; CPythonEventManager::CPythonEventManager
PUBLIC	??1CPythonEventManager@@UAE@XZ			; CPythonEventManager::~CPythonEventManager
PUBLIC	?Destroy@CPythonEventManager@@QAEXXZ		; CPythonEventManager::Destroy
PUBLIC	?RegisterEventSet@CPythonEventManager@@QAEHPBD@Z ; CPythonEventManager::RegisterEventSet
PUBLIC	?RegisterEventSetFromString@CPythonEventManager@@QAEHABV?$basic_string@DU?$char_traits@D@std@@V?$allocator@D@2@@std@@@Z ; CPythonEventManager::RegisterEventSetFromString
PUBLIC	?ClearEventSeti@CPythonEventManager@@QAEXH@Z	; CPythonEventManager::ClearEventSeti
PUBLIC	?__ClearEventSetp@CPythonEventManager@@QAEXPAUSEventSet@1@@Z ; CPythonEventManager::__ClearEventSetp
PUBLIC	?SetEventHandler@CPythonEventManager@@QAEXHPAU_object@@@Z ; CPythonEventManager::SetEventHandler
PUBLIC	?SetRestrictedCount@CPythonEventManager@@QAEXHH@Z ; CPythonEventManager::SetRestrictedCount
PUBLIC	?GetEventSetLocalYPosition@CPythonEventManager@@QAEHH@Z ; CPythonEventManager::GetEventSetLocalYPosition
PUBLIC	?AddEventSetLocalYPosition@CPythonEventManager@@QAEXHH@Z ; CPythonEventManager::AddEventSetLocalYPosition
PUBLIC	?InsertText@CPythonEventManager@@QAEXHPBDH@Z	; CPythonEventManager::InsertText
PUBLIC	?UpdateEventSet@CPythonEventManager@@QAEXHHH@Z	; CPythonEventManager::UpdateEventSet
PUBLIC	?RenderEventSet@CPythonEventManager@@QAEXH@Z	; CPythonEventManager::RenderEventSet
PUBLIC	?SetEventSetWidth@CPythonEventManager@@QAEXHH@Z	; CPythonEventManager::SetEventSetWidth
PUBLIC	?Skip@CPythonEventManager@@QAEXH@Z		; CPythonEventManager::Skip
PUBLIC	?IsWait@CPythonEventManager@@QAE_NH@Z		; CPythonEventManager::IsWait
PUBLIC	?EndEventProcess@CPythonEventManager@@QAEXH@Z	; CPythonEventManager::EndEventProcess
PUBLIC	?SelectAnswer@CPythonEventManager@@QAEXHH@Z	; CPythonEventManager::SelectAnswer
PUBLIC	?SetVisibleStartLine@CPythonEventManager@@QAEXHH@Z ; CPythonEventManager::SetVisibleStartLine
PUBLIC	?GetVisibleStartLine@CPythonEventManager@@QAEHH@Z ; CPythonEventManager::GetVisibleStartLine
PUBLIC	?GetLineCount@CPythonEventManager@@QAEHH@Z	; CPythonEventManager::GetLineCount
PUBLIC	?SetVisibleLineCount@CPythonEventManager@@QAEXHH@Z ; CPythonEventManager::SetVisibleLineCount
PUBLIC	?SetInterfaceWindow@CPythonEventManager@@QAEXPAU_object@@@Z ; CPythonEventManager::SetInterfaceWindow
PUBLIC	?SetLeftTimeString@CPythonEventManager@@QAEXPBD@Z ; CPythonEventManager::SetLeftTimeString
PUBLIC	?__InitEventSet@CPythonEventManager@@IAEXAAUSEventSet@1@@Z ; CPythonEventManager::__InitEventSet
PUBLIC	?__InsertLine@CPythonEventManager@@IAEXAAUSEventSet@1@HH@Z ; CPythonEventManager::__InsertLine
PUBLIC	?__AddSpace@CPythonEventManager@@IAEXAAUSEventSet@1@H@Z ; CPythonEventManager::__AddSpace
PUBLIC	?GetEmptyEventSetSlot@CPythonEventManager@@IAEKXZ ; CPythonEventManager::GetEmptyEventSetSlot
PUBLIC	?CheckEventSetIndex@CPythonEventManager@@IAE_NH@Z ; CPythonEventManager::CheckEventSetIndex
PUBLIC	?ProcessEventSet@CPythonEventManager@@IAEXPAUSEventSet@1@@Z ; CPythonEventManager::ProcessEventSet
PUBLIC	?ClearLine@CPythonEventManager@@IAEXPAUSEventSet@1@@Z ; CPythonEventManager::ClearLine
PUBLIC	?RefreshLinePosition@CPythonEventManager@@IAEXPAUSEventSet@1@@Z ; CPythonEventManager::RefreshLinePosition
PUBLIC	?GetScriptEventIndex@CPythonEventManager@@IAE_NPBDPAH1@Z ; CPythonEventManager::GetScriptEventIndex
PUBLIC	?MakeQuestion@CPythonEventManager@@IAEXPAUSEventSet@1@AAV?$list@USArgumet@script@@V?$allocator@USArgumet@script@@@std@@@std@@@Z ; CPythonEventManager::MakeQuestion
PUBLIC	?MakeNextButton@CPythonEventManager@@IAEXPAUSEventSet@1@H@Z ; CPythonEventManager::MakeNextButton
PUBLIC	?deallocate@?$allocator@PAUSEventSet@CPythonEventManager@@@std@@QAEXQAPAUSEventSet@CPythonEventManager@@I@Z ; std::allocator<CPythonEventManager::SEventSet *>::deallocate
PUBLIC	??1?$vector@PAUSEventSet@CPythonEventManager@@V?$allocator@PAUSEventSet@CPythonEventManager@@@std@@@std@@QAE@XZ ; std::vector<CPythonEventManager::SEventSet *,std::allocator<CPythonEventManager::SEventSet *> >::~vector<CPythonEventManager::SEventSet *,std::allocator<CPythonEventManager::SEventSet *> >
PUBLIC	?clear@?$vector@PAUSEventSet@CPythonEventManager@@V?$allocator@PAUSEventSet@CPythonEventManager@@@std@@@std@@QAEXXZ ; std::vector<CPythonEventManager::SEventSet *,std::allocator<CPythonEventManager::SEventSet *> >::clear
PUBLIC	?_Destroy@?$vector@PAUSEventSet@CPythonEventManager@@V?$allocator@PAUSEventSet@CPythonEventManager@@@std@@@std@@AAEXPAPAUSEventSet@CPythonEventManager@@0@Z ; std::vector<CPythonEventManager::SEventSet *,std::allocator<CPythonEventManager::SEventSet *> >::_Destroy
PUBLIC	?_Calculate_growth@?$vector@PAUSEventSet@CPythonEventManager@@V?$allocator@PAUSEventSet@CPythonEventManager@@@std@@@std@@ABEII@Z ; std::vector<CPythonEventManager::SEventSet *,std::allocator<CPythonEventManager::SEventSet *> >::_Calculate_growth
PUBLIC	?_Change_array@?$vector@PAUSEventSet@CPythonEventManager@@V?$allocator@PAUSEventSet@CPythonEventManager@@@std@@@std@@AAEXQAPAUSEventSet@CPythonEventManager@@II@Z ; std::vector<CPythonEventManager::SEventSet *,std::allocator<CPythonEventManager::SEventSet *> >::_Change_array
PUBLIC	?_Tidy@?$vector@PAUSEventSet@CPythonEventManager@@V?$allocator@PAUSEventSet@CPythonEventManager@@@std@@@std@@AAEXXZ ; std::vector<CPythonEventManager::SEventSet *,std::allocator<CPythonEventManager::SEventSet *> >::_Tidy
PUBLIC	?_Xlength@?$vector@PAUSEventSet@CPythonEventManager@@V?$allocator@PAUSEventSet@CPythonEventManager@@@std@@@std@@CAXXZ ; std::vector<CPythonEventManager::SEventSet *,std::allocator<CPythonEventManager::SEventSet *> >::_Xlength
PUBLIC	??0?$_Vector_val@U?$_Simple_types@PAUSEventSet@CPythonEventManager@@@std@@@std@@QAE@XZ ; std::_Vector_val<std::_Simple_types<CPythonEventManager::SEventSet *> >::_Vector_val<std::_Simple_types<CPythonEventManager::SEventSet *> >
PUBLIC	??0?$CDynamicPool@USEventSet@CPythonEventManager@@@@QAE@XZ ; CDynamicPool<CPythonEventManager::SEventSet>::CDynamicPool<CPythonEventManager::SEventSet>
PUBLIC	??1?$CDynamicPool@USEventSet@CPythonEventManager@@@@UAE@XZ ; CDynamicPool<CPythonEventManager::SEventSet>::~CDynamicPool<CPythonEventManager::SEventSet>
PUBLIC	?Destroy@?$CDynamicPool@USEventSet@CPythonEventManager@@@@QAEXXZ ; CDynamicPool<CPythonEventManager::SEventSet>::Destroy
PUBLIC	?Alloc@?$CDynamicPool@USEventSet@CPythonEventManager@@@@QAEPAUSEventSet@CPythonEventManager@@XZ ; CDynamicPool<CPythonEventManager::SEventSet>::Alloc
PUBLIC	?Delete@?$CDynamicPool@USEventSet@CPythonEventManager@@@@KAXPAUSEventSet@CPythonEventManager@@@Z ; CDynamicPool<CPythonEventManager::SEventSet>::Delete
PUBLIC	??_G?$CDynamicPool@USEventSet@CPythonEventManager@@@@UAEPAXI@Z ; CDynamicPool<CPythonEventManager::SEventSet>::`scalar deleting destructor'
PUBLIC	??0?$CDynamicPool@VCGraphicTextInstance@@@@QAE@XZ ; CDynamicPool<CGraphicTextInstance>::CDynamicPool<CGraphicTextInstance>
PUBLIC	??1?$CDynamicPool@VCGraphicTextInstance@@@@UAE@XZ ; CDynamicPool<CGraphicTextInstance>::~CDynamicPool<CGraphicTextInstance>
PUBLIC	?Destroy@?$CDynamicPool@VCGraphicTextInstance@@@@QAEXXZ ; CDynamicPool<CGraphicTextInstance>::Destroy
PUBLIC	?Alloc@?$CDynamicPool@VCGraphicTextInstance@@@@QAEPAVCGraphicTextInstance@@XZ ; CDynamicPool<CGraphicTextInstance>::Alloc
PUBLIC	?Delete@?$CDynamicPool@VCGraphicTextInstance@@@@KAXPAVCGraphicTextInstance@@@Z ; CDynamicPool<CGraphicTextInstance>::Delete
PUBLIC	?deallocate@?$allocator@PAVCGraphicTextInstance@@@std@@QAEXQAPAVCGraphicTextInstance@@I@Z ; std::allocator<CGraphicTextInstance *>::deallocate
PUBLIC	?clear@?$vector@PAVCGraphicTextInstance@@V?$allocator@PAVCGraphicTextInstance@@@std@@@std@@QAEXXZ ; std::vector<CGraphicTextInstance *,std::allocator<CGraphicTextInstance *> >::clear
PUBLIC	?_Destroy@?$vector@PAVCGraphicTextInstance@@V?$allocator@PAVCGraphicTextInstance@@@std@@@std@@AAEXPAPAVCGraphicTextInstance@@0@Z ; std::vector<CGraphicTextInstance *,std::allocator<CGraphicTextInstance *> >::_Destroy
PUBLIC	?_Calculate_growth@?$vector@PAVCGraphicTextInstance@@V?$allocator@PAVCGraphicTextInstance@@@std@@@std@@ABEII@Z ; std::vector<CGraphicTextInstance *,std::allocator<CGraphicTextInstance *> >::_Calculate_growth
PUBLIC	?_Change_array@?$vector@PAVCGraphicTextInstance@@V?$allocator@PAVCGraphicTextInstance@@@std@@@std@@AAEXQAPAVCGraphicTextInstance@@II@Z ; std::vector<CGraphicTextInstance *,std::allocator<CGraphicTextInstance *> >::_Change_array
PUBLIC	?_Tidy@?$vector@PAVCGraphicTextInstance@@V?$allocator@PAVCGraphicTextInstance@@@std@@@std@@AAEXXZ ; std::vector<CGraphicTextInstance *,std::allocator<CGraphicTextInstance *> >::_Tidy
PUBLIC	?_Xlength@?$vector@PAVCGraphicTextInstance@@V?$allocator@PAVCGraphicTextInstance@@@std@@@std@@CAXXZ ; std::vector<CGraphicTextInstance *,std::allocator<CGraphicTextInstance *> >::_Xlength
PUBLIC	??_G?$CDynamicPool@VCGraphicTextInstance@@@@UAEPAXI@Z ; CDynamicPool<CGraphicTextInstance>::`scalar deleting destructor'
PUBLIC	??_GCPythonEventManager@@UAEPAXI@Z		; CPythonEventManager::`scalar deleting destructor'
PUBLIC	??0SCameraSetting@IAbstractApplication@@QAE@XZ	; IAbstractApplication::SCameraSetting::SCameraSetting
PUBLIC	?ShowArgument@@YAXAAV?$list@USArgumet@script@@V?$allocator@USArgumet@script@@@std@@@std@@@Z ; ShowArgument
PUBLIC	?GetArgumentString@@YAABV?$basic_string@DU?$char_traits@D@std@@V?$allocator@D@2@@std@@PBDAAV?$list@USArgumet@script@@V?$allocator@USArgumet@script@@@std@@@2@@Z ; GetArgumentString
PUBLIC	?GetArgument@@YAPBDPBDAAV?$list@USArgumet@script@@V?$allocator@USArgumet@script@@@std@@@std@@@Z ; GetArgument
PUBLIC	?GetCameraSettingFromArgList@@YAXAAV?$list@USArgumet@script@@V?$allocator@USArgumet@script@@@std@@@std@@PAUSCameraSetting@IAbstractApplication@@@Z ; GetCameraSettingFromArgList
PUBLIC	??$emplace_back@PAUSEventSet@CPythonEventManager@@@?$vector@PAUSEventSet@CPythonEventManager@@V?$allocator@PAUSEventSet@CPythonEventManager@@@std@@@std@@QAEX$$QAPAUSEventSet@CPythonEventManager@@@Z ; std::vector<CPythonEventManager::SEventSet *,std::allocator<CPythonEventManager::SEventSet *> >::emplace_back<CPythonEventManager::SEventSet *>
PUBLIC	??$_Emplace_back_with_unused_capacity@PAUSEventSet@CPythonEventManager@@@?$vector@PAUSEventSet@CPythonEventManager@@V?$allocator@PAUSEventSet@CPythonEventManager@@@std@@@std@@AAEX$$QAPAUSEventSet@CPythonEventManager@@@Z ; std::vector<CPythonEventManager::SEventSet *,std::allocator<CPythonEventManager::SEventSet *> >::_Emplace_back_with_unused_capacity<CPythonEventManager::SEventSet *>
PUBLIC	??$_Emplace_reallocate@PAUSEventSet@CPythonEventManager@@@?$vector@PAUSEventSet@CPythonEventManager@@V?$allocator@PAUSEventSet@CPythonEventManager@@@std@@@std@@QAEPAPAUSEventSet@CPythonEventManager@@QAPAU23@$$QAPAU23@@Z ; std::vector<CPythonEventManager::SEventSet *,std::allocator<CPythonEventManager::SEventSet *> >::_Emplace_reallocate<CPythonEventManager::SEventSet *>
PUBLIC	??$_Free_non_head@V?$allocator@U?$_List_node@USTextLine@CPythonEventManager@@PAX@std@@@std@@@?$_List_node@USTextLine@CPythonEventManager@@PAX@std@@SAXAAV?$allocator@U?$_List_node@USTextLine@CPythonEventManager@@PAX@std@@@1@PAU01@@Z ; std::_List_node<CPythonEventManager::STextLine,void *>::_Free_non_head<std::allocator<std::_List_node<CPythonEventManager::STextLine,void *> > >
PUBLIC	??$_Emplace@ABUSTextLine@CPythonEventManager@@@?$list@USTextLine@CPythonEventManager@@V?$allocator@USTextLine@CPythonEventManager@@@std@@@std@@QAEPAU?$_List_node@USTextLine@CPythonEventManager@@PAX@1@QAU21@ABUSTextLine@CPythonEventManager@@@Z ; std::list<CPythonEventManager::STextLine,std::allocator<CPythonEventManager::STextLine> >::_Emplace<CPythonEventManager::STextLine const &>
PUBLIC	??$_Try_emplace@V?$basic_string@DU?$char_traits@D@std@@V?$allocator@D@2@@std@@$$V@?$map@V?$basic_string@DU?$char_traits@D@std@@V?$allocator@D@2@@std@@HU?$less@V?$basic_string@DU?$char_traits@D@std@@V?$allocator@D@2@@std@@@2@V?$allocator@U?$pair@$$CBV?$basic_string@DU?$char_traits@D@std@@V?$allocator@D@2@@std@@H@std@@@2@@std@@AAE?AU?$pair@PAU?$_Tree_node@U?$pair@$$CBV?$basic_string@DU?$char_traits@D@std@@V?$allocator@D@2@@std@@H@std@@PAX@std@@_N@1@$$QAV?$basic_string@DU?$char_traits@D@std@@V?$allocator@D@2@@1@@Z ; std::map<std::basic_string<char,std::char_traits<char>,std::allocator<char> >,int,std::less<std::basic_string<char,std::char_traits<char>,std::allocator<char> > >,std::allocator<std::pair<std::basic_string<char,std::char_traits<char>,std::allocator<char> > const ,int> > >::_Try_emplace<std::basic_string<char,std::char_traits<char>,std::allocator<char> > >
PUBLIC	??$_Find@V?$basic_string@DU?$char_traits@D@std@@V?$allocator@D@2@@std@@@?$_Tree@V?$_Tmap_traits@V?$basic_string@DU?$char_traits@D@std@@V?$allocator@D@2@@std@@HU?$less@V?$basic_string@DU?$char_traits@D@std@@V?$allocator@D@2@@std@@@2@V?$allocator@U?$pair@$$CBV?$basic_string@DU?$char_traits@D@std@@V?$allocator@D@2@@std@@H@std@@@2@$0A@@std@@@std@@ABEPAU?$_Tree_node@U?$pair@$$CBV?$basic_string@DU?$char_traits@D@std@@V?$allocator@D@2@@std@@H@std@@PAX@1@ABV?$basic_string@DU?$char_traits@D@std@@V?$allocator@D@2@@1@@Z ; std::_Tree<std::_Tmap_traits<std::basic_string<char,std::char_traits<char>,std::allocator<char> >,int,std::less<std::basic_string<char,std::char_traits<char>,std::allocator<char> > >,std::allocator<std::pair<std::basic_string<char,std::char_traits<char>,std::allocator<char> > const ,int> >,0> >::_Find<std::basic_string<char,std::char_traits<char>,std::allocator<char> > >
PUBLIC	??$emplace_back@ABQAVCGraphicTextInstance@@@?$vector@PAVCGraphicTextInstance@@V?$allocator@PAVCGraphicTextInstance@@@std@@@std@@QAEXABQAVCGraphicTextInstance@@@Z ; std::vector<CGraphicTextInstance *,std::allocator<CGraphicTextInstance *> >::emplace_back<CGraphicTextInstance * const &>
PUBLIC	??$_Emplace_back_with_unused_capacity@ABQAVCGraphicTextInstance@@@?$vector@PAVCGraphicTextInstance@@V?$allocator@PAVCGraphicTextInstance@@@std@@@std@@AAEXABQAVCGraphicTextInstance@@@Z ; std::vector<CGraphicTextInstance *,std::allocator<CGraphicTextInstance *> >::_Emplace_back_with_unused_capacity<CGraphicTextInstance * const &>
PUBLIC	??$_Emplace_reallocate@ABQAVCGraphicTextInstance@@@?$vector@PAVCGraphicTextInstance@@V?$allocator@PAVCGraphicTextInstance@@@std@@@std@@QAEPAPAVCGraphicTextInstance@@QAPAV2@ABQAV2@@Z ; std::vector<CGraphicTextInstance *,std::allocator<CGraphicTextInstance *> >::_Emplace_reallocate<CGraphicTextInstance * const &>
PUBLIC	??$for_each@V?$_Vector_iterator@V?$_Vector_val@U?$_Simple_types@PAVCGraphicTextInstance@@@std@@@std@@@std@@P6AXPAVCGraphicTextInstance@@@Z@std@@YAP6AXPAVCGraphicTextInstance@@@ZV?$_Vector_iterator@V?$_Vector_val@U?$_Simple_types@PAVCGraphicTextInstance@@@std@@@std@@@0@1P6AX0@Z@Z ; std::for_each<std::_Vector_iterator<std::_Vector_val<std::_Simple_types<CGraphicTextInstance *> > >,void (__cdecl*)(CGraphicTextInstance *)>
PUBLIC	??$for_each@V?$_Vector_iterator@V?$_Vector_val@U?$_Simple_types@PAUSEventSet@CPythonEventManager@@@std@@@std@@@std@@P6AXPAUSEventSet@CPythonEventManager@@@Z@std@@YAP6AXPAUSEventSet@CPythonEventManager@@@ZV?$_Vector_iterator@V?$_Vector_val@U?$_Simple_types@PAUSEventSet@CPythonEventManager@@@std@@@std@@@0@1P6AX0@Z@Z ; std::for_each<std::_Vector_iterator<std::_Vector_val<std::_Simple_types<CPythonEventManager::SEventSet *> > >,void (__cdecl*)(CPythonEventManager::SEventSet *)>
PUBLIC	??$_Destroy_range@V?$allocator@PAUSEventSet@CPythonEventManager@@@std@@@std@@YAXPAPAUSEventSet@CPythonEventManager@@QAPAU12@AAV?$allocator@PAUSEventSet@CPythonEventManager@@@0@@Z ; std::_Destroy_range<std::allocator<CPythonEventManager::SEventSet *> >
PUBLIC	??$emplace_back@ABQAUSEventSet@CPythonEventManager@@@?$vector@PAUSEventSet@CPythonEventManager@@V?$allocator@PAUSEventSet@CPythonEventManager@@@std@@@std@@QAEXABQAUSEventSet@CPythonEventManager@@@Z ; std::vector<CPythonEventManager::SEventSet *,std::allocator<CPythonEventManager::SEventSet *> >::emplace_back<CPythonEventManager::SEventSet * const &>
PUBLIC	??$_Emplace_back_with_unused_capacity@ABQAUSEventSet@CPythonEventManager@@@?$vector@PAUSEventSet@CPythonEventManager@@V?$allocator@PAUSEventSet@CPythonEventManager@@@std@@@std@@AAEXABQAUSEventSet@CPythonEventManager@@@Z ; std::vector<CPythonEventManager::SEventSet *,std::allocator<CPythonEventManager::SEventSet *> >::_Emplace_back_with_unused_capacity<CPythonEventManager::SEventSet * const &>
PUBLIC	??$_Emplace_reallocate@ABQAUSEventSet@CPythonEventManager@@@?$vector@PAUSEventSet@CPythonEventManager@@V?$allocator@PAUSEventSet@CPythonEventManager@@@std@@@std@@QAEPAPAUSEventSet@CPythonEventManager@@QAPAU23@ABQAU23@@Z ; std::vector<CPythonEventManager::SEventSet *,std::allocator<CPythonEventManager::SEventSet *> >::_Emplace_reallocate<CPythonEventManager::SEventSet * const &>
PUBLIC	??$_Construct_in_place@PAU?$_List_node@USTextLine@CPythonEventManager@@PAX@std@@AAPAU12@@std@@YAXAAPAU?$_List_node@USTextLine@CPythonEventManager@@PAX@0@0@Z ; std::_Construct_in_place<std::_List_node<CPythonEventManager::STextLine,void *> *,std::_List_node<CPythonEventManager::STextLine,void *> * &>
PUBLIC	??$_Freenode0@V?$allocator@U?$_List_node@USTextLine@CPythonEventManager@@PAX@std@@@std@@@?$_List_node@USTextLine@CPythonEventManager@@PAX@std@@SAXAAV?$allocator@U?$_List_node@USTextLine@CPythonEventManager@@PAX@std@@@1@PAU01@@Z ; std::_List_node<CPythonEventManager::STextLine,void *>::_Freenode0<std::allocator<std::_List_node<CPythonEventManager::STextLine,void *> > >
PUBLIC	??$?0ABU?$less@V?$basic_string@DU?$char_traits@D@std@@V?$allocator@D@2@@std@@@std@@U_Zero_then_variadic_args_t@1@@?$_Compressed_pair@U?$less@V?$basic_string@DU?$char_traits@D@std@@V?$allocator@D@2@@std@@@std@@V?$_Compressed_pair@V?$allocator@U?$_Tree_node@U?$pair@$$CBV?$basic_string@DU?$char_traits@D@std@@V?$allocator@D@2@@std@@H@std@@PAX@std@@@std@@V?$_Tree_val@U?$_Tree_simple_types@U?$pair@$$CBV?$basic_string@DU?$char_traits@D@std@@V?$allocator@D@2@@std@@H@std@@@std@@@2@$00@2@$00@std@@QAE@U_One_then_variadic_args_t@1@ABU?$less@V?$basic_string@DU?$char_traits@D@std@@V?$allocator@D@2@@std@@@1@$$QAU_Zero_then_variadic_args_t@1@@Z ; std::_Compressed_pair<std::less<std::basic_string<char,std::char_traits<char>,std::allocator<char> > >,std::_Compressed_pair<std::allocator<std::_Tree_node<std::pair<std::basic_string<char,std::char_traits<char>,std::allocator<char> > const ,int>,void *> >,std::_Tree_val<std::_Tree_simple_types<std::pair<std::basic_string<char,std::char_traits<char>,std::allocator<char> > const ,int> > >,1>,1>::_Compressed_pair<std::less<std::basic_string<char,std::char_traits<char>,std::allocator<char> > >,std::_Compressed_pair<std::allocator<std::_Tree_node<std::pair<std::basic_string<char,std::char_traits<char>,std::allocator<char> > const ,int>,void *> >,std::_Tree_val<std::_Tree_simple_types<std::pair<std::basic_string<char,std::char_traits<char>,std::allocator<char> > const ,int> > >,1>,1><std::less<std::basic_string<char,std::char_traits<char>,std::allocator<char> > > const &,std::_Zero_then_variadic_args_t>
PUBLIC	??$_Construct_in_place@PAU?$_List_node@USArgumet@script@@PAX@std@@AAPAU12@@std@@YAXAAPAU?$_List_node@USArgumet@script@@PAX@0@0@Z ; std::_Construct_in_place<std::_List_node<script::SArgumet,void *> *,std::_List_node<script::SArgumet,void *> * &>
PUBLIC	??$_Free_non_head@V?$allocator@U?$_List_node@USArgumet@script@@PAX@std@@@std@@@?$_List_node@USArgumet@script@@PAX@std@@SAXAAV?$allocator@U?$_List_node@USArgumet@script@@PAX@std@@@1@PAU01@@Z ; std::_List_node<script::SArgumet,void *>::_Free_non_head<std::allocator<std::_List_node<script::SArgumet,void *> > >
PUBLIC	??$_Freenode0@V?$allocator@U?$_List_node@USArgumet@script@@PAX@std@@@std@@@?$_List_node@USArgumet@script@@PAX@std@@SAXAAV?$allocator@U?$_List_node@USArgumet@script@@PAX@std@@@1@PAU01@@Z ; std::_List_node<script::SArgumet,void *>::_Freenode0<std::allocator<std::_List_node<script::SArgumet,void *> > >
PUBLIC	??$_Buyheadnode@V?$allocator@U?$_Tree_node@U?$pair@$$CBV?$basic_string@DU?$char_traits@D@std@@V?$allocator@D@2@@std@@H@std@@PAX@std@@@std@@@?$_Tree_node@U?$pair@$$CBV?$basic_string@DU?$char_traits@D@std@@V?$allocator@D@2@@std@@H@std@@PAX@std@@SAPAU01@AAV?$allocator@U?$_Tree_node@U?$pair@$$CBV?$basic_string@DU?$char_traits@D@std@@V?$allocator@D@2@@std@@H@std@@PAX@std@@@1@@Z ; std::_Tree_node<std::pair<std::basic_string<char,std::char_traits<char>,std::allocator<char> > const ,int>,void *>::_Buyheadnode<std::allocator<std::_Tree_node<std::pair<std::basic_string<char,std::char_traits<char>,std::allocator<char> > const ,int>,void *> > >
PUBLIC	??$_Destroy_range@V?$allocator@PAVCGraphicTextInstance@@@std@@@std@@YAXPAPAVCGraphicTextInstance@@QAPAV1@AAV?$allocator@PAVCGraphicTextInstance@@@0@@Z ; std::_Destroy_range<std::allocator<CGraphicTextInstance *> >
PUBLIC	?_Allocate@?$_Alloc_construct_ptr@V?$allocator@U?$_List_node@USTextLine@CPythonEventManager@@PAX@std@@@std@@@std@@QAEXXZ ; std::_Alloc_construct_ptr<std::allocator<std::_List_node<CPythonEventManager::STextLine,void *> > >::_Allocate
PUBLIC	??1?$_Alloc_construct_ptr@V?$allocator@U?$_List_node@USTextLine@CPythonEventManager@@PAX@std@@@std@@@std@@QAE@XZ ; std::_Alloc_construct_ptr<std::allocator<std::_List_node<CPythonEventManager::STextLine,void *> > >::~_Alloc_construct_ptr<std::allocator<std::_List_node<CPythonEventManager::STextLine,void *> > >
PUBLIC	??1?$_List_node_emplace_op2@V?$allocator@U?$_List_node@USTextLine@CPythonEventManager@@PAX@std@@@std@@@std@@QAE@XZ ; std::_List_node_emplace_op2<std::allocator<std::_List_node<CPythonEventManager::STextLine,void *> > >::~_List_node_emplace_op2<std::allocator<std::_List_node<CPythonEventManager::STextLine,void *> > >
PUBLIC	?_Transfer_before@?$_List_node_emplace_op2@V?$allocator@U?$_List_node@USTextLine@CPythonEventManager@@PAX@std@@@std@@@std@@QAEPAU?$_List_node@USTextLine@CPythonEventManager@@PAX@2@QAU32@@Z ; std::_List_node_emplace_op2<std::allocator<std::_List_node<CPythonEventManager::STextLine,void *> > >::_Transfer_before
PUBLIC	??$?0ABUSTextLine@CPythonEventManager@@@?$_List_node_emplace_op2@V?$allocator@U?$_List_node@USTextLine@CPythonEventManager@@PAX@std@@@std@@@std@@QAE@AAV?$allocator@U?$_List_node@USTextLine@CPythonEventManager@@PAX@std@@@1@ABUSTextLine@CPythonEventManager@@@Z ; std::_List_node_emplace_op2<std::allocator<std::_List_node<CPythonEventManager::STextLine,void *> > >::_List_node_emplace_op2<std::allocator<std::_List_node<CPythonEventManager::STextLine,void *> > ><CPythonEventManager::STextLine const &>
PUBLIC	??$_Find_lower_bound@V?$basic_string@DU?$char_traits@D@std@@V?$allocator@D@2@@std@@@?$_Tree@V?$_Tmap_traits@V?$basic_string@DU?$char_traits@D@std@@V?$allocator@D@2@@std@@HU?$less@V?$basic_string@DU?$char_traits@D@std@@V?$allocator@D@2@@std@@@2@V?$allocator@U?$pair@$$CBV?$basic_string@DU?$char_traits@D@std@@V?$allocator@D@2@@std@@H@std@@@2@$0A@@std@@@std@@IBE?AU?$_Tree_find_result@PAU?$_Tree_node@U?$pair@$$CBV?$basic_string@DU?$char_traits@D@std@@V?$allocator@D@2@@std@@H@std@@PAX@std@@@1@ABV?$basic_string@DU?$char_traits@D@std@@V?$allocator@D@2@@1@@Z ; std::_Tree<std::_Tmap_traits<std::basic_string<char,std::char_traits<char>,std::allocator<char> >,int,std::less<std::basic_string<char,std::char_traits<char>,std::allocator<char> > >,std::allocator<std::pair<std::basic_string<char,std::char_traits<char>,std::allocator<char> > const ,int> >,0> >::_Find_lower_bound<std::basic_string<char,std::char_traits<char>,std::allocator<char> > >
PUBLIC	??$_Lower_bound_duplicate@V?$basic_string@DU?$char_traits@D@std@@V?$allocator@D@2@@std@@@?$_Tree@V?$_Tmap_traits@V?$basic_string@DU?$char_traits@D@std@@V?$allocator@D@2@@std@@HU?$less@V?$basic_string@DU?$char_traits@D@std@@V?$allocator@D@2@@std@@@2@V?$allocator@U?$pair@$$CBV?$basic_string@DU?$char_traits@D@std@@V?$allocator@D@2@@std@@H@std@@@2@$0A@@std@@@std@@IBE_NQAU?$_Tree_node@U?$pair@$$CBV?$basic_string@DU?$char_traits@D@std@@V?$allocator@D@2@@std@@H@std@@PAX@1@ABV?$basic_string@DU?$char_traits@D@std@@V?$allocator@D@2@@1@@Z ; std::_Tree<std::_Tmap_traits<std::basic_string<char,std::char_traits<char>,std::allocator<char> >,int,std::less<std::basic_string<char,std::char_traits<char>,std::allocator<char> > >,std::allocator<std::pair<std::basic_string<char,std::char_traits<char>,std::allocator<char> > const ,int> >,0> >::_Lower_bound_duplicate<std::basic_string<char,std::char_traits<char>,std::allocator<char> > >
PUBLIC	?_Allocate@?$_Alloc_construct_ptr@V?$allocator@U?$_Tree_node@U?$pair@$$CBV?$basic_string@DU?$char_traits@D@std@@V?$allocator@D@2@@std@@H@std@@PAX@std@@@std@@@std@@QAEXXZ ; std::_Alloc_construct_ptr<std::allocator<std::_Tree_node<std::pair<std::basic_string<char,std::char_traits<char>,std::allocator<char> > const ,int>,void *> > >::_Allocate
PUBLIC	??1?$_Alloc_construct_ptr@V?$allocator@U?$_Tree_node@U?$pair@$$CBV?$basic_string@DU?$char_traits@D@std@@V?$allocator@D@2@@std@@H@std@@PAX@std@@@std@@@std@@QAE@XZ ; std::_Alloc_construct_ptr<std::allocator<std::_Tree_node<std::pair<std::basic_string<char,std::char_traits<char>,std::allocator<char> > const ,int>,void *> > >::~_Alloc_construct_ptr<std::allocator<std::_Tree_node<std::pair<std::basic_string<char,std::char_traits<char>,std::allocator<char> > const ,int>,void *> > >
PUBLIC	??1?$_Tree_temp_node_alloc@V?$allocator@U?$_Tree_node@U?$pair@$$CBV?$basic_string@DU?$char_traits@D@std@@V?$allocator@D@2@@std@@H@std@@PAX@std@@@std@@@std@@QAE@XZ ; std::_Tree_temp_node_alloc<std::allocator<std::_Tree_node<std::pair<std::basic_string<char,std::char_traits<char>,std::allocator<char> > const ,int>,void *> > >::~_Tree_temp_node_alloc<std::allocator<std::_Tree_node<std::pair<std::basic_string<char,std::char_traits<char>,std::allocator<char> > const ,int>,void *> > >
PUBLIC	??1?$_Tree_temp_node@V?$allocator@U?$_Tree_node@U?$pair@$$CBV?$basic_string@DU?$char_traits@D@std@@V?$allocator@D@2@@std@@H@std@@PAX@std@@@std@@@std@@QAE@XZ ; std::_Tree_temp_node<std::allocator<std::_Tree_node<std::pair<std::basic_string<char,std::char_traits<char>,std::allocator<char> > const ,int>,void *> > >::~_Tree_temp_node<std::allocator<std::_Tree_node<std::pair<std::basic_string<char,std::char_traits<char>,std::allocator<char> > const ,int>,void *> > >
PUBLIC	??$?0ABUpiecewise_construct_t@std@@V?$tuple@$$QAV?$basic_string@DU?$char_traits@D@std@@V?$allocator@D@2@@std@@@1@V?$tuple@$$V@1@@?$_Tree_temp_node@V?$allocator@U?$_Tree_node@U?$pair@$$CBV?$basic_string@DU?$char_traits@D@std@@V?$allocator@D@2@@std@@H@std@@PAX@std@@@std@@@std@@QAE@AAV?$allocator@U?$_Tree_node@U?$pair@$$CBV?$basic_string@DU?$char_traits@D@std@@V?$allocator@D@2@@std@@H@std@@PAX@std@@@1@PAU?$_Tree_node@U?$pair@$$CBV?$basic_string@DU?$char_traits@D@std@@V?$allocator@D@2@@std@@H@std@@PAX@1@ABUpiecewise_construct_t@1@$$QAV?$tuple@$$QAV?$basic_string@DU?$char_traits@D@std@@V?$allocator@D@2@@std@@@1@$$QAV?$tuple@$$V@1@@Z ; std::_Tree_temp_node<std::allocator<std::_Tree_node<std::pair<std::basic_string<char,std::char_traits<char>,std::allocator<char> > const ,int>,void *> > >::_Tree_temp_node<std::allocator<std::_Tree_node<std::pair<std::basic_string<char,std::char_traits<char>,std::allocator<char> > const ,int>,void *> > ><std::piecewise_construct_t const &,std::tuple<std::basic_string<char,std::char_traits<char>,std::allocator<char> > &&>,std::tuple<> >
PUBLIC	??$_Erase_tree@V?$allocator@U?$_Tree_node@U?$pair@$$CBV?$basic_string@DU?$char_traits@D@std@@V?$allocator@D@2@@std@@H@std@@PAX@std@@@std@@@?$_Tree_val@U?$_Tree_simple_types@U?$pair@$$CBV?$basic_string@DU?$char_traits@D@std@@V?$allocator@D@2@@std@@H@std@@@std@@@std@@QAEXAAV?$allocator@U?$_Tree_node@U?$pair@$$CBV?$basic_string@DU?$char_traits@D@std@@V?$allocator@D@2@@std@@H@std@@PAX@std@@@1@PAU?$_Tree_node@U?$pair@$$CBV?$basic_string@DU?$char_traits@D@std@@V?$allocator@D@2@@std@@H@std@@PAX@1@@Z ; std::_Tree_val<std::_Tree_simple_types<std::pair<std::basic_string<char,std::char_traits<char>,std::allocator<char> > const ,int> > >::_Erase_tree<std::allocator<std::_Tree_node<std::pair<std::basic_string<char,std::char_traits<char>,std::allocator<char> > const ,int>,void *> > >
PUBLIC	??$_Freenode0@V?$allocator@U?$_Tree_node@U?$pair@$$CBV?$basic_string@DU?$char_traits@D@std@@V?$allocator@D@2@@std@@H@std@@PAX@std@@@std@@@?$_Tree_node@U?$pair@$$CBV?$basic_string@DU?$char_traits@D@std@@V?$allocator@D@2@@std@@H@std@@PAX@std@@SAXAAV?$allocator@U?$_Tree_node@U?$pair@$$CBV?$basic_string@DU?$char_traits@D@std@@V?$allocator@D@2@@std@@H@std@@PAX@std@@@1@PAU01@@Z ; std::_Tree_node<std::pair<std::basic_string<char,std::char_traits<char>,std::allocator<char> > const ,int>,void *>::_Freenode0<std::allocator<std::_Tree_node<std::pair<std::basic_string<char,std::char_traits<char>,std::allocator<char> > const ,int>,void *> > >
PUBLIC	??$_Destroy_in_place@PAU?$_List_node@USTextLine@CPythonEventManager@@PAX@std@@@std@@YAXAAPAU?$_List_node@USTextLine@CPythonEventManager@@PAX@0@@Z ; std::_Destroy_in_place<std::_List_node<CPythonEventManager::STextLine,void *> *>
PUBLIC	??$_Destroy_in_place@PAU?$_List_node@USArgumet@script@@PAX@std@@@std@@YAXAAPAU?$_List_node@USArgumet@script@@PAX@0@@Z ; std::_Destroy_in_place<std::_List_node<script::SArgumet,void *> *>
PUBLIC	??$_Construct_in_place@PAU?$_Tree_node@U?$pair@$$CBV?$basic_string@DU?$char_traits@D@std@@V?$allocator@D@2@@std@@H@std@@PAX@std@@ABQAU12@@std@@YAXAAPAU?$_Tree_node@U?$pair@$$CBV?$basic_string@DU?$char_traits@D@std@@V?$allocator@D@2@@std@@H@std@@PAX@0@ABQAU10@@Z ; std::_Construct_in_place<std::_Tree_node<std::pair<std::basic_string<char,std::char_traits<char>,std::allocator<char> > const ,int>,void *> *,std::_Tree_node<std::pair<std::basic_string<char,std::char_traits<char>,std::allocator<char> > const ,int>,void *> * const &>
PUBLIC	??$_Destroy_in_place@PAU?$_Tree_node@U?$pair@$$CBV?$basic_string@DU?$char_traits@D@std@@V?$allocator@D@2@@std@@H@std@@PAX@std@@@std@@YAXAAPAU?$_Tree_node@U?$pair@$$CBV?$basic_string@DU?$char_traits@D@std@@V?$allocator@D@2@@std@@H@std@@PAX@0@@Z ; std::_Destroy_in_place<std::_Tree_node<std::pair<std::basic_string<char,std::char_traits<char>,std::allocator<char> > const ,int>,void *> *>
PUBLIC	??$_Construct_in_place@PAU?$_List_node@USTextLine@CPythonEventManager@@PAX@std@@ABQAU12@@std@@YAXAAPAU?$_List_node@USTextLine@CPythonEventManager@@PAX@0@ABQAU10@@Z ; std::_Construct_in_place<std::_List_node<CPythonEventManager::STextLine,void *> *,std::_List_node<CPythonEventManager::STextLine,void *> * const &>
PUBLIC	??$_Uninitialized_move@PAPAVCGraphicTextInstance@@V?$allocator@PAVCGraphicTextInstance@@@std@@@std@@YAPAPAVCGraphicTextInstance@@QAPAV1@0PAPAV1@AAV?$allocator@PAVCGraphicTextInstance@@@0@@Z ; std::_Uninitialized_move<CGraphicTextInstance * *,std::allocator<CGraphicTextInstance *> >
PUBLIC	??$_Uninitialized_move@PAPAUSEventSet@CPythonEventManager@@V?$allocator@PAUSEventSet@CPythonEventManager@@@std@@@std@@YAPAPAUSEventSet@CPythonEventManager@@QAPAU12@0PAPAU12@AAV?$allocator@PAUSEventSet@CPythonEventManager@@@0@@Z ; std::_Uninitialized_move<CPythonEventManager::SEventSet * *,std::allocator<CPythonEventManager::SEventSet *> >
PUBLIC	??$construct@U?$pair@$$CBV?$basic_string@DU?$char_traits@D@std@@V?$allocator@D@2@@std@@H@std@@ABUpiecewise_construct_t@2@V?$tuple@$$QAV?$basic_string@DU?$char_traits@D@std@@V?$allocator@D@2@@std@@@2@V?$tuple@$$V@2@@?$_Default_allocator_traits@V?$allocator@U?$_Tree_node@U?$pair@$$CBV?$basic_string@DU?$char_traits@D@std@@V?$allocator@D@2@@std@@H@std@@PAX@std@@@std@@@std@@SAXAAV?$allocator@U?$_Tree_node@U?$pair@$$CBV?$basic_string@DU?$char_traits@D@std@@V?$allocator@D@2@@std@@H@std@@PAX@std@@@1@QAU?$pair@$$CBV?$basic_string@DU?$char_traits@D@std@@V?$allocator@D@2@@std@@H@1@ABUpiecewise_construct_t@1@$$QAV?$tuple@$$QAV?$basic_string@DU?$char_traits@D@std@@V?$allocator@D@2@@std@@@1@$$QAV?$tuple@$$V@1@@Z ; std::_Default_allocator_traits<std::allocator<std::_Tree_node<std::pair<std::basic_string<char,std::char_traits<char>,std::allocator<char> > const ,int>,void *> > >::construct<std::pair<std::basic_string<char,std::char_traits<char>,std::allocator<char> > const ,int>,std::piecewise_construct_t const &,std::tuple<std::basic_string<char,std::char_traits<char>,std::allocator<char> > &&>,std::tuple<> >
PUBLIC	??$_Construct_in_place@PAU?$_Tree_node@U?$pair@$$CBV?$basic_string@DU?$char_traits@D@std@@V?$allocator@D@2@@std@@H@std@@PAX@std@@AAPAU12@@std@@YAXAAPAU?$_Tree_node@U?$pair@$$CBV?$basic_string@DU?$char_traits@D@std@@V?$allocator@D@2@@std@@H@std@@PAX@0@0@Z ; std::_Construct_in_place<std::_Tree_node<std::pair<std::basic_string<char,std::char_traits<char>,std::allocator<char> > const ,int>,void *> *,std::_Tree_node<std::pair<std::basic_string<char,std::char_traits<char>,std::allocator<char> > const ,int>,void *> * &>
PUBLIC	??$_Freenode@V?$allocator@U?$_Tree_node@U?$pair@$$CBV?$basic_string@DU?$char_traits@D@std@@V?$allocator@D@2@@std@@H@std@@PAX@std@@@std@@@?$_Tree_node@U?$pair@$$CBV?$basic_string@DU?$char_traits@D@std@@V?$allocator@D@2@@std@@H@std@@PAX@std@@SAXAAV?$allocator@U?$_Tree_node@U?$pair@$$CBV?$basic_string@DU?$char_traits@D@std@@V?$allocator@D@2@@std@@H@std@@PAX@std@@@1@PAU01@@Z ; std::_Tree_node<std::pair<std::basic_string<char,std::char_traits<char>,std::allocator<char> > const ,int>,void *>::_Freenode<std::allocator<std::_Tree_node<std::pair<std::basic_string<char,std::char_traits<char>,std::allocator<char> > const ,int>,void *> > >
PUBLIC	??$_Copy_memmove@PAPAVCGraphicTextInstance@@PAPAV1@@std@@YAPAPAVCGraphicTextInstance@@PAPAV1@00@Z ; std::_Copy_memmove<CGraphicTextInstance * *,CGraphicTextInstance * *>
PUBLIC	??$_Copy_memmove@PAPAUSEventSet@CPythonEventManager@@PAPAU12@@std@@YAPAPAUSEventSet@CPythonEventManager@@PAPAU12@00@Z ; std::_Copy_memmove<CPythonEventManager::SEventSet * *,CPythonEventManager::SEventSet * *>
PUBLIC	??$?MDU?$char_traits@D@std@@V?$allocator@D@1@@std@@YA_NABV?$basic_string@DU?$char_traits@D@std@@V?$allocator@D@2@@0@0@Z ; std::operator<<char,std::char_traits<char>,std::allocator<char> >
PUBLIC	??$?0$$QAV?$basic_string@DU?$char_traits@D@std@@V?$allocator@D@2@@std@@$$Z$$V@?$pair@$$CBV?$basic_string@DU?$char_traits@D@std@@V?$allocator@D@2@@std@@H@std@@QAE@Upiecewise_construct_t@1@V?$tuple@$$QAV?$basic_string@DU?$char_traits@D@std@@V?$allocator@D@2@@std@@@1@V?$tuple@$$V@1@@Z ; std::pair<std::basic_string<char,std::char_traits<char>,std::allocator<char> > const ,int>::pair<std::basic_string<char,std::char_traits<char>,std::allocator<char> > const ,int><std::basic_string<char,std::char_traits<char>,std::allocator<char> > &&>
PUBLIC	??_7exception@std@@6B@				; std::exception::`vftable'
PUBLIC	??_C@_0BC@EOODALEL@Unknown?5exception@		; `string'
PUBLIC	??_7bad_alloc@std@@6B@				; std::bad_alloc::`vftable'
PUBLIC	??_7bad_array_new_length@std@@6B@		; std::bad_array_new_length::`vftable'
PUBLIC	??_C@_0BF@KINCDENJ@bad?5array?5new?5length@	; `string'
PUBLIC	__TI3?AVbad_array_new_length@std@@
PUBLIC	__CTA3?AVbad_array_new_length@std@@
PUBLIC	??_R0?AVbad_array_new_length@std@@@8		; std::bad_array_new_length `RTTI Type Descriptor'
PUBLIC	__CT??_R0?AVbad_array_new_length@std@@@8??0bad_array_new_length@std@@QAE@ABV01@@Z12
PUBLIC	??_R0?AVbad_alloc@std@@@8			; std::bad_alloc `RTTI Type Descriptor'
PUBLIC	__CT??_R0?AVbad_alloc@std@@@8??0bad_alloc@std@@QAE@ABV01@@Z12
PUBLIC	??_R0?AVexception@std@@@8			; std::exception `RTTI Type Descriptor'
PUBLIC	__CT??_R0?AVexception@std@@@8??0exception@std@@QAE@ABV01@@Z12
PUBLIC	??_C@_0BA@JFNIOLAK@string?5too?5long@		; `string'
PUBLIC	??_C@_0BB@GCADKGJO@map?1set?5too?5long@		; `string'
PUBLIC	??_C@_00CNPNBAHC@@				; `string'
PUBLIC	?ms_singleton@?$CSingleton@VCTimer@@@@0PAVCTimer@@A ; CSingleton<CTimer>::ms_singleton
PUBLIC	??_C@_0BA@FOIKENOD@vector?5too?5long@		; `string'
PUBLIC	??_R4exception@std@@6B@				; std::exception::`RTTI Complete Object Locator'
PUBLIC	??_R3exception@std@@8				; std::exception::`RTTI Class Hierarchy Descriptor'
PUBLIC	??_R2exception@std@@8				; std::exception::`RTTI Base Class Array'
PUBLIC	??_R1A@?0A@EA@exception@std@@8			; std::exception::`RTTI Base Class Descriptor at (0,-1,0,64)'
PUBLIC	??_R4bad_alloc@std@@6B@				; std::bad_alloc::`RTTI Complete Object Locator'
PUBLIC	??_R3bad_alloc@std@@8				; std::bad_alloc::`RTTI Class Hierarchy Descriptor'
PUBLIC	??_R2bad_alloc@std@@8				; std::bad_alloc::`RTTI Base Class Array'
PUBLIC	??_R1A@?0A@EA@bad_alloc@std@@8			; std::bad_alloc::`RTTI Base Class Descriptor at (0,-1,0,64)'
PUBLIC	??_R4bad_array_new_length@std@@6B@		; std::bad_array_new_length::`RTTI Complete Object Locator'
PUBLIC	??_R3bad_array_new_length@std@@8		; std::bad_array_new_length::`RTTI Class Hierarchy Descriptor'
PUBLIC	??_R2bad_array_new_length@std@@8		; std::bad_array_new_length::`RTTI Base Class Array'
PUBLIC	??_R1A@?0A@EA@bad_array_new_length@std@@8	; std::bad_array_new_length::`RTTI Base Class Descriptor at (0,-1,0,64)'
PUBLIC	?ms_singleton@?$CSingleton@VCPythonEventManager@@@@0PAVCPythonEventManager@@A ; CSingleton<CPythonEventManager>::ms_singleton
PUBLIC	??_7?$CSingleton@VCPythonEventManager@@@@6B@	; CSingleton<CPythonEventManager>::`vftable'
PUBLIC	??_7SEventSet@CPythonEventManager@@6B@		; CPythonEventManager::SEventSet::`vftable'
PUBLIC	??_7?$CDynamicPool@USEventSet@CPythonEventManager@@@@6B@ ; CDynamicPool<CPythonEventManager::SEventSet>::`vftable'
PUBLIC	??_7?$CDynamicPool@VCGraphicTextInstance@@@@6B@	; CDynamicPool<CGraphicTextInstance>::`vftable'
PUBLIC	??_7CPythonEventManager@@6B@			; CPythonEventManager::`vftable'
PUBLIC	?ms_singleton@?$CSingleton@VCPythonNetworkStream@@@@0PAVCPythonNetworkStream@@A ; CSingleton<CPythonNetworkStream>::ms_singleton
PUBLIC	?ms_singleton@?$CSingleton@VCPythonNonPlayer@@@@0PAVCPythonNonPlayer@@A ; CSingleton<CPythonNonPlayer>::ms_singleton
PUBLIC	?ms_singleton@?$TAbstractSingleton@VIAbstractApplication@@@@0PAVIAbstractApplication@@A ; TAbstractSingleton<IAbstractApplication>::ms_singleton
PUBLIC	?ms_singleton@?$CSingleton@VCItemManager@@@@0PAVCItemManager@@A ; CSingleton<CItemManager>::ms_singleton
PUBLIC	?ms_singleton@?$CSingleton@VCEterPackManager@@@@0PAVCEterPackManager@@A ; CSingleton<CEterPackManager>::ms_singleton
PUBLIC	?ms_singleton@?$CSingleton@VCPythonMiniMap@@@@0PAVCPythonMiniMap@@A ; CSingleton<CPythonMiniMap>::ms_singleton
PUBLIC	??_C@_01FJMABOPO@x@				; `string'
PUBLIC	??_C@_01EANLCPLP@y@				; `string'
PUBLIC	??_C@_01GLPGHMHM@z@				; `string'
PUBLIC	??_C@_02HNLLPFKA@up@				; `string'
PUBLIC	??_C@_04CHADEDPO@view@				; `string'
PUBLIC	??_C@_05HCKPILGO@cross@				; `string'
PUBLIC	??_C@_08LHFODBFO@distance@			; `string'
PUBLIC	??_C@_03BHFFHIBL@rot@				; `string'
PUBLIC	??_C@_05NCNFOFLM@pitch@				; `string'
PUBLIC	??_C@_05MFEJDJP@value@				; `string'
PUBLIC	??_C@_0EK@NAEFMGNK@CPythonEventManager?3?3SetRestric@ ; `string'
PUBLIC	??_C@_0EH@KHNDFHCA@CPythonEventManager?3?3SetEventHa@ ; `string'
PUBLIC	??_C@_01KDCPPGHE@r@				; `string'
PUBLIC	??_C@_01JEJKBAGA@g@				; `string'
PUBLIC	??_C@_01OJONOECF@b@				; `string'
PUBLIC	??_C@_02HCKGKOFO@?$CI?$CJ@			; `string'
PUBLIC	??_C@_09DIPEHMLE@DoneEvent@			; `string'
PUBLIC	??_C@_03LOJEKLML@src@				; `string'
PUBLIC	??_C@_03KJMMOONA@?$CIs?$CJ@			; `string'
PUBLIC	??_C@_0M@MHNDOIJH@OnLeftImage@			; `string'
PUBLIC	??_C@_0L@ELIGNPMG@OnTopImage@			; `string'
PUBLIC	??_C@_0BC@OIPDJOGL@OnBackgroundImage@		; `string'
PUBLIC	??_C@_05GFDPDNFA@?$CIiis?$CJ@			; `string'
PUBLIC	??_C@_07COJEPNBG@OnImage@			; `string'
PUBLIC	??_C@_0L@NDIFBCJA@image_name@			; `string'
PUBLIC	??_C@_05PHLGJONK@title@				; `string'
PUBLIC	??_C@_04EBPADADD@desc@				; `string'
PUBLIC	??_C@_05FKHKFDID@index@				; `string'
PUBLIC	??_C@_05KBOMEDGA@total@				; `string'
PUBLIC	??_C@_0L@HIIGNCOA@image_type@			; `string'
PUBLIC	??_C@_03DAKNAIGI@idx@				; `string'
PUBLIC	??_C@_08GKIEGGBC@?$CIsissii?$CJ@		; `string'
PUBLIC	??_C@_0BB@FCLBKNGH@OnInsertItemIcon@		; `string'
PUBLIC	??_C@_08KJCKKFJC@?$CIssssii?$CJ@		; `string'
PUBLIC	??_C@_0O@LBIBFC@OnInsertImage@			; `string'
PUBLIC	??_C@_03LIHNMIHG@?$CIi?$CJ@			; `string'
PUBLIC	??_C@_0BC@HCOLHKJD@BINARY_ClearQuest@		; `string'
PUBLIC	??_C@_09CNONGEHE@icon_type@			; `string'
PUBLIC	??_C@_09IGOOKEAE@icon_name@			; `string'
PUBLIC	??_C@_04MEMAJGDJ@name@				; `string'
PUBLIC	??_C@_0BD@MDDAOGBD@?A?$LG?$LA?$KC?$LD?$KN?5?$LP?k?H?$KF?$LM?$KO?$DP?4?4?4?4@ ; `string'
PUBLIC	??_C@_09MIAHMBP@highlight@			; `string'
PUBLIC	??_C@_06GEDDNFGH@?$CIisss?$CJ@			; `string'
PUBLIC	??_C@_0BB@JCGLEGP@BINARY_RecvQuest@		; `string'
PUBLIC	??_C@_04JMLDJNEM@?$CIis?$CJ@			; `string'
PUBLIC	??_C@_09IBEAJOHJ@RecvQuest@			; `string'
PUBLIC	??_C@_09LBCONMEI@blendtime@			; `string'
PUBLIC	??_C@_05HJCMGBKF@speed@				; `string'
PUBLIC	??_C@_03LDCBIPEL@?$CIf?$CJ@			; `string'
PUBLIC	??_C@_07EAEHEHPO@FadeOut@			; `string'
PUBLIC	??_C@_06GCJPJKOH@FadeIn@			; `string'
PUBLIC	??_C@_08JJKJMBO@WhiteOut@			; `string'
PUBLIC	??_C@_07NGADDHAB@WhiteIn@			; `string'
PUBLIC	??_C@_0N@CCHILNPP@OnTitleImage@			; `string'
PUBLIC	??_C@_0BA@FCPOOKJM@killstone_count@		; `string'
PUBLIC	??_C@_0O@DDDIKPAP@killmob_count@		; `string'
PUBLIC	??_C@_0M@NAENPPOP@find_hidden@			; `string'
PUBLIC	??_C@_0N@MAFIFFGH@hidden_total@			; `string'
PUBLIC	??_C@_0L@HLMCPCKO@use_potion@			; `string'
PUBLIC	??_C@_0L@HAAPAAPF@is_revived@			; `string'
PUBLIC	??_C@_0L@CEFFAPEL@killallmob@			; `string'
PUBLIC	??_C@_0L@OIFGKHMH@total_time@			; `string'
PUBLIC	??_C@_09HPFMCAOO@bonus_exp@			; `string'
PUBLIC	??_C@_0M@EDIBAKKL@?$CIiiiiiiiii?$CJ@		; `string'
PUBLIC	??_C@_0BC@GLAGHMFL@ShowDungeonResult@		; `string'
PUBLIC	??_C@_05IGKADHGO@width@				; `string'
PUBLIC	??_C@_06LNLHEAAG@height@			; `string'
PUBLIC	??_C@_04INACLLOK@?$CIii?$CJ@			; `string'
PUBLIC	??_C@_06JKFPDEMN@OnSize@			; `string'
PUBLIC	??_C@_07MNOKODDC@OnInput@			; `string'
PUBLIC	??_C@_07DDHNKDGP@timeout@			; `string'
PUBLIC	??_C@_09FOPMPDJN@CloseSelf@			; `string'
PUBLIC	??_C@_0BM@GFGEFDCO@BINARY_OpenSelectItemWindow@	; `string'
PUBLIC	??_C@_0P@FONAKFHL@MakeNextButton@		; `string'
PUBLIC	??_C@_0N@NKMOFENJ@MakeQuestion@			; `string'
PUBLIC	??_C@_04LCKGAMBB@?$CIsi?$CJ@			; `string'
PUBLIC	??_C@_0P@EGMAHDDO@AppendQuestion@		; `string'
PUBLIC	??_C@_0DL@PFMMJDKG@CPythonEventManager?3?3InsertLine@ ; `string'
PUBLIC	??_C@_0DD@ENOBDFJN@CPythonEventManager?3?3InsertLine@ ; `string'
PUBLIC	??_C@_0CK@JOIMEHF@?5?$CB?$CB?5PARSING?5ERROR?5?9?5Strange?5Com@ ; `string'
PUBLIC	??_C@_0BB@GNKEGEMJ@?$LD?$LC?$MA?$LK?5?$LN?C?$LA?$KD?5?3?5?$CFd?C?J@ ; `string'
PUBLIC	??_C@_06MJINCFFA@LETTER@			; `string'
PUBLIC	??_C@_05DPNLPLKI@COLOR@				; `string'
PUBLIC	??_C@_05IBAECHHA@DELAY@				; `string'
PUBLIC	??_C@_05EMNIMLKD@ENTER@				; `string'
PUBLIC	??_C@_04DBNKAKHO@WAIT@				; `string'
PUBLIC	??_C@_05PONODPI@CLEAR@				; `string'
PUBLIC	??_C@_08MDIDLFIL@QUESTION@			; `string'
PUBLIC	??_C@_04MOKMKBJN@NEXT@				; `string'
PUBLIC	??_C@_04KANDKFIK@DONE@				; `string'
PUBLIC	??_C@_09GHNJOICA@LEFTIMAGE@			; `string'
PUBLIC	??_C@_08LGGHBKNM@TOPIMAGE@			; `string'
PUBLIC	??_C@_07CDIOHGPA@BGIMAGE@			; `string'
PUBLIC	??_C@_05BNHKIGFN@IMAGE@				; `string'
PUBLIC	??_C@_0N@LEAJJLAE@ADDMAPSIGNAL@			; `string'
PUBLIC	??_C@_0P@MCDNLKLH@CLEARMAPSIGNAL@		; `string'
PUBLIC	??_C@_09GPHHDAMH@SETMSGPOS@			; `string'
PUBLIC	??_C@_09DCGGFGEI@ADJMSGPOS@			; `string'
PUBLIC	??_C@_0L@HNINCFNF@SETCMAPPOS@			; `string'
PUBLIC	??_C@_0M@NLCKLGGC@QUESTBUTTON@			; `string'
PUBLIC	??_C@_0BC@HFDJPBHI@QUESTBUTTON_CLOSE@		; `string'
PUBLIC	??_C@_05DJAECLDN@SLEEP@				; `string'
PUBLIC	??_C@_0L@JFBLMOIC@SET_CAMERA@			; `string'
PUBLIC	??_C@_0N@LDDFAHD@BLEND_CAMERA@			; `string'
PUBLIC	??_C@_0P@JLFCBANF@RESTORE_CAMERA@		; `string'
PUBLIC	??_C@_08HDAMPNGA@FADE_OUT@			; `string'
PUBLIC	??_C@_07BBFGMBEC@FADE_IN@			; `string'
PUBLIC	??_C@_09FBLOEAGA@WHITE_OUT@			; `string'
PUBLIC	??_C@_08KBPNHIPE@WHITE_IN@			; `string'
PUBLIC	??_C@_0L@LKNFDGAI@CLEAR_TEXT@			; `string'
PUBLIC	??_C@_0BN@MHHHIBEN@TEXT_HORIZONTAL_ALIGN_CENTER@ ; `string'
PUBLIC	??_C@_0M@HJKMCEHO@TITLE_IMAGE@			; `string'
PUBLIC	??_C@_0L@PGFMEELF@RUN_CINEMA@			; `string'
PUBLIC	??_C@_0P@FFIDJBND@DUNGEON_RESULT@		; `string'
PUBLIC	??_C@_04BLNHNEEM@ITEM@				; `string'
PUBLIC	??_C@_03OEMEHHJ@MOB@				; `string'
PUBLIC	??_C@_08MALMLJOJ@COLOR256@			; `string'
PUBLIC	??_C@_0M@PMFMMHLB@WINDOW_SIZE@			; `string'
PUBLIC	??_C@_05POAEJIHJ@INPUT@				; `string'
PUBLIC	??_C@_0N@BAJAMEHH@CONFIRM_WAIT@			; `string'
PUBLIC	??_C@_0BB@EAAHJLBE@END_CONFIRM_WAIT@		; `string'
PUBLIC	??_C@_0N@IBBMOEIC@INSERT_IMAGE@			; `string'
PUBLIC	??_C@_0M@NHAJMLIB@SELECT_ITEM@			; `string'
PUBLIC	??_C@_0O@NKNMEGII@list?5too?5long@		; `string'
PUBLIC	??_R4?$CDynamicPool@VCGraphicTextInstance@@@@6B@ ; CDynamicPool<CGraphicTextInstance>::`RTTI Complete Object Locator'
PUBLIC	??_R0?AV?$CDynamicPool@VCGraphicTextInstance@@@@@8 ; CDynamicPool<CGraphicTextInstance> `RTTI Type Descriptor'
PUBLIC	??_R3?$CDynamicPool@VCGraphicTextInstance@@@@8	; CDynamicPool<CGraphicTextInstance>::`RTTI Class Hierarchy Descriptor'
PUBLIC	??_R2?$CDynamicPool@VCGraphicTextInstance@@@@8	; CDynamicPool<CGraphicTextInstance>::`RTTI Base Class Array'
PUBLIC	??_R1A@?0A@EA@?$CDynamicPool@VCGraphicTextInstance@@@@8 ; CDynamicPool<CGraphicTextInstance>::`RTTI Base Class Descriptor at (0,-1,0,64)'
PUBLIC	??_R4CPythonEventManager@@6B@			; CPythonEventManager::`RTTI Complete Object Locator'
PUBLIC	??_R0?AVCPythonEventManager@@@8			; CPythonEventManager `RTTI Type Descriptor'
PUBLIC	??_R3CPythonEventManager@@8			; CPythonEventManager::`RTTI Class Hierarchy Descriptor'
PUBLIC	??_R2CPythonEventManager@@8			; CPythonEventManager::`RTTI Base Class Array'
PUBLIC	??_R1A@?0A@EA@CPythonEventManager@@8		; CPythonEventManager::`RTTI Base Class Descriptor at (0,-1,0,64)'
PUBLIC	??_R1A@?0A@EA@?$CSingleton@VCPythonEventManager@@@@8 ; CSingleton<CPythonEventManager>::`RTTI Base Class Descriptor at (0,-1,0,64)'
PUBLIC	??_R0?AV?$CSingleton@VCPythonEventManager@@@@@8	; CSingleton<CPythonEventManager> `RTTI Type Descriptor'
PUBLIC	??_R3?$CSingleton@VCPythonEventManager@@@@8	; CSingleton<CPythonEventManager>::`RTTI Class Hierarchy Descriptor'
PUBLIC	??_R2?$CSingleton@VCPythonEventManager@@@@8	; CSingleton<CPythonEventManager>::`RTTI Base Class Array'
PUBLIC	??_R4?$CSingleton@VCPythonEventManager@@@@6B@	; CSingleton<CPythonEventManager>::`RTTI Complete Object Locator'
PUBLIC	??_R4SEventSet@CPythonEventManager@@6B@		; CPythonEventManager::SEventSet::`RTTI Complete Object Locator'
PUBLIC	??_R0?AUSEventSet@CPythonEventManager@@@8	; CPythonEventManager::SEventSet `RTTI Type Descriptor'
PUBLIC	??_R3SEventSet@CPythonEventManager@@8		; CPythonEventManager::SEventSet::`RTTI Class Hierarchy Descriptor'
PUBLIC	??_R2SEventSet@CPythonEventManager@@8		; CPythonEventManager::SEventSet::`RTTI Base Class Array'
PUBLIC	??_R1A@?0A@EA@SEventSet@CPythonEventManager@@8	; CPythonEventManager::SEventSet::`RTTI Base Class Descriptor at (0,-1,0,64)'
PUBLIC	??_R4?$CDynamicPool@USEventSet@CPythonEventManager@@@@6B@ ; CDynamicPool<CPythonEventManager::SEventSet>::`RTTI Complete Object Locator'
PUBLIC	??_R0?AV?$CDynamicPool@USEventSet@CPythonEventManager@@@@@8 ; CDynamicPool<CPythonEventManager::SEventSet> `RTTI Type Descriptor'
PUBLIC	??_R3?$CDynamicPool@USEventSet@CPythonEventManager@@@@8 ; CDynamicPool<CPythonEventManager::SEventSet>::`RTTI Class Hierarchy Descriptor'
PUBLIC	??_R2?$CDynamicPool@USEventSet@CPythonEventManager@@@@8 ; CDynamicPool<CPythonEventManager::SEventSet>::`RTTI Base Class Array'
PUBLIC	??_R1A@?0A@EA@?$CDynamicPool@USEventSet@CPythonEventManager@@@@8 ; CDynamicPool<CPythonEventManager::SEventSet>::`RTTI Base Class Descriptor at (0,-1,0,64)'
PUBLIC	__real@3e4ccccd
PUBLIC	__real@3f800000
PUBLIC	__real@406fe00000000000
EXTRN	??2@YAPAXI@Z:PROC				; operator new
EXTRN	??3@YAXPAXI@Z:PROC				; operator delete
EXTRN	_atexit:PROC
EXTRN	__Init_thread_header:PROC
EXTRN	__Init_thread_abort:PROC
EXTRN	__Init_thread_footer:PROC
EXTRN	__invalid_parameter_noinfo_noreturn:PROC
EXTRN	_atof:PROC
EXTRN	__atoi64:PROC
EXTRN	_memcmp:PROC
EXTRN	_memcpy:PROC
EXTRN	_memmove:PROC
EXTRN	_memset:PROC
EXTRN	_strcmp:PROC
EXTRN	_strlen:PROC
EXTRN	_strncpy:PROC
EXTRN	__imp__timeGetTime@0:PROC
EXTRN	___std_exception_copy:PROC
EXTRN	___std_exception_destroy:PROC
EXTRN	??_Eexception@std@@UAEPAXI@Z:PROC		; std::exception::`vector deleting destructor'
EXTRN	??_Ebad_alloc@std@@UAEPAXI@Z:PROC		; std::bad_alloc::`vector deleting destructor'
EXTRN	??_Ebad_array_new_length@std@@UAEPAXI@Z:PROC	; std::bad_array_new_length::`vector deleting destructor'
EXTRN	?_Xlength_error@std@@YAXPBD@Z:PROC		; std::_Xlength_error
EXTRN	?Tracen@@YAXPBD@Z:PROC				; Tracen
EXTRN	?Tracef@@YAXPBDZZ:PROC				; Tracef
EXTRN	?TraceError@@YAXPBDZZ:PROC			; TraceError
EXTRN	?_getf@@YAPBDPBDZZ:PROC				; _getf
EXTRN	__imp__Py_BuildValue:PROC
EXTRN	?PyCallClassMemberFunc@@YA_NPAU_object@@PBD0@Z:PROC ; PyCallClassMemberFunc
EXTRN	?GetElapsedMilliecond@CTimer@@QAEKXZ:PROC	; CTimer::GetElapsedMilliecond
EXTRN	??0CMappedFile@@QAE@XZ:PROC			; CMappedFile::CMappedFile
EXTRN	??1CMappedFile@@UAE@XZ:PROC			; CMappedFile::~CMappedFile
EXTRN	?Size@CMappedFile@@QAEKXZ:PROC			; CMappedFile::Size
EXTRN	?Read@CMappedFile@@QAEHPAXH@Z:PROC		; CMappedFile::Read
EXTRN	?GetDefaultCodePage@@YAKXZ:PROC			; GetDefaultCodePage
EXTRN	??0CGraphicTextInstance@@QAE@XZ:PROC		; CGraphicTextInstance::CGraphicTextInstance
EXTRN	?Destroy@CGraphicTextInstance@@QAEXXZ:PROC	; CGraphicTextInstance::Destroy
EXTRN	?Update@CGraphicTextInstance@@QAEXXZ:PROC	; CGraphicTextInstance::Update
EXTRN	?Render@CGraphicTextInstance@@QAEXPAUtagRECT@@@Z:PROC ; CGraphicTextInstance::Render
EXTRN	?SetColor@CGraphicTextInstance@@QAEXMMMM@Z:PROC	; CGraphicTextInstance::SetColor
EXTRN	?SetHorizonalAlign@CGraphicTextInstance@@QAEXH@Z:PROC ; CGraphicTextInstance::SetHorizonalAlign
EXTRN	?SetTextPointer@CGraphicTextInstance@@QAEXPAVCGraphicText@@@Z:PROC ; CGraphicTextInstance::SetTextPointer
EXTRN	?SetValueString@CGraphicTextInstance@@QAEXABV?$basic_string@DU?$char_traits@D@std@@V?$allocator@D@2@@std@@@Z:PROC ; CGraphicTextInstance::SetValueString
EXTRN	?SetValue@CGraphicTextInstance@@QAEXPBDI@Z:PROC	; CGraphicTextInstance::SetValue
EXTRN	?SetPosition@CGraphicTextInstance@@QAEXMMM@Z:PROC ; CGraphicTextInstance::SetPosition
EXTRN	?GetTextSize@CGraphicTextInstance@@QAEXPAH0@Z:PROC ; CGraphicTextInstance::GetTextSize
EXTRN	?GetHorizontalAlign@CGraphicTextInstance@@QAEHXZ:PROC ; CGraphicTextInstance::GetHorizontalAlign
EXTRN	?GetName@CItemData@@QBEPBDXZ:PROC		; CItemData::GetName
EXTRN	?DefaultFont_GetResource@@YAPAVCResource@@XZ:PROC ; DefaultFont_GetResource
EXTRN	??0Group@script@@QAE@XZ:PROC			; script::Group::Group
EXTRN	??1Group@script@@QAE@XZ:PROC			; script::Group::~Group
EXTRN	?Create@Group@script@@QAE_NABV?$basic_string@DU?$char_traits@D@std@@V?$allocator@D@2@@std@@@Z:PROC ; script::Group::Create
EXTRN	?GetCmd@Group@script@@QAE_NAAUSCmd@2@@Z:PROC	; script::Group::GetCmd
EXTRN	?ReadCmd@Group@script@@QAE_NAAUSCmd@2@@Z:PROC	; script::Group::ReadCmd
EXTRN	??_E?$CSingleton@VCPythonEventManager@@@@UAEPAXI@Z:PROC ; CSingleton<CPythonEventManager>::`vector deleting destructor'
EXTRN	??_ESEventSet@CPythonEventManager@@UAEPAXI@Z:PROC ; CPythonEventManager::SEventSet::`vector deleting destructor'
EXTRN	??_E?$CDynamicPool@USEventSet@CPythonEventManager@@@@UAEPAXI@Z:PROC ; CDynamicPool<CPythonEventManager::SEventSet>::`vector deleting destructor'
EXTRN	??_E?$CDynamicPool@VCGraphicTextInstance@@@@UAEPAXI@Z:PROC ; CDynamicPool<CGraphicTextInstance>::`vector deleting destructor'
EXTRN	??_ECPythonEventManager@@UAEPAXI@Z:PROC		; CPythonEventManager::`vector deleting destructor'
EXTRN	?SendScriptAnswerPacket@CPythonNetworkStream@@QAE_NH@Z:PROC ; CPythonNetworkStream::SendScriptAnswerPacket
EXTRN	?GetName@CPythonNonPlayer@@QAE_NKPAPBD@Z:PROC	; CPythonNonPlayer::GetName
EXTRN	?GetItemDataPointer@CItemManager@@QAEHKPAPAVCItemData@@@Z:PROC ; CItemManager::GetItemDataPointer
EXTRN	?Get@CEterPackManager@@QAE_NAAVCMappedFile@@PBDPAPBX@Z:PROC ; CEterPackManager::Get
EXTRN	?AddSignalPoint@CPythonMiniMap@@QAEXMM@Z:PROC	; CPythonMiniMap::AddSignalPoint
EXTRN	?ClearAllSignalPoint@CPythonMiniMap@@QAEXXZ:PROC ; CPythonMiniMap::ClearAllSignalPoint
EXTRN	?OpenAtlasWindow@CPythonMiniMap@@QAEXXZ:PROC	; CPythonMiniMap::OpenAtlasWindow
EXTRN	?SetAtlasCenterPosition@CPythonMiniMap@@QAEXHH@Z:PROC ; CPythonMiniMap::SetAtlasCenterPosition
EXTRN	@__security_check_cookie@4:PROC
EXTRN	__CxxThrowException@8:PROC
EXTRN	___CxxFrameHandler3:PROC
EXTRN	__ltod3:PROC
EXTRN	__Init_thread_epoch:DWORD
EXTRN	??_7type_info@@6B@:QWORD			; type_info::`vftable'
EXTRN	___security_cookie:DWORD
EXTRN	__fltused:DWORD
EXTRN	__tls_array:DWORD
EXTRN	__tls_index:DWORD
;	COMDAT ?ms_singleton@?$CSingleton@VCTimer@@@@0PAVCTimer@@A
_BSS	SEGMENT
?ms_singleton@?$CSingleton@VCTimer@@@@0PAVCTimer@@A DD 01H DUP (?) ; CSingleton<CTimer>::ms_singleton
_BSS	ENDS
;	COMDAT ?ms_singleton@?$CSingleton@VCPythonEventManager@@@@0PAVCPythonEventManager@@A
_BSS	SEGMENT
?ms_singleton@?$CSingleton@VCPythonEventManager@@@@0PAVCPythonEventManager@@A DD 01H DUP (?) ; CSingleton<CPythonEventManager>::ms_singleton
_BSS	ENDS
;	COMDAT ?ms_singleton@?$CSingleton@VCPythonNetworkStream@@@@0PAVCPythonNetworkStream@@A
_BSS	SEGMENT
?ms_singleton@?$CSingleton@VCPythonNetworkStream@@@@0PAVCPythonNetworkStream@@A DD 01H DUP (?) ; CSingleton<CPythonNetworkStream>::ms_singleton
_BSS	ENDS
;	COMDAT ?ms_singleton@?$CSingleton@VCPythonNonPlayer@@@@0PAVCPythonNonPlayer@@A
_BSS	SEGMENT
?ms_singleton@?$CSingleton@VCPythonNonPlayer@@@@0PAVCPythonNonPlayer@@A DD 01H DUP (?) ; CSingleton<CPythonNonPlayer>::ms_singleton
_BSS	ENDS
;	COMDAT ?ms_singleton@?$TAbstractSingleton@VIAbstractApplication@@@@0PAVIAbstractApplication@@A
_BSS	SEGMENT
?ms_singleton@?$TAbstractSingleton@VIAbstractApplication@@@@0PAVIAbstractApplication@@A DD 01H DUP (?) ; TAbstractSingleton<IAbstractApplication>::ms_singleton
_BSS	ENDS
;	COMDAT ?ms_singleton@?$CSingleton@VCItemManager@@@@0PAVCItemManager@@A
_BSS	SEGMENT
?ms_singleton@?$CSingleton@VCItemManager@@@@0PAVCItemManager@@A DD 01H DUP (?) ; CSingleton<CItemManager>::ms_singleton
_BSS	ENDS
;	COMDAT ?ms_singleton@?$CSingleton@VCEterPackManager@@@@0PAVCEterPackManager@@A
_BSS	SEGMENT
?ms_singleton@?$CSingleton@VCEterPackManager@@@@0PAVCEterPackManager@@A DD 01H DUP (?) ; CSingleton<CEterPackManager>::ms_singleton
_BSS	ENDS
;	COMDAT ?ms_singleton@?$CSingleton@VCPythonMiniMap@@@@0PAVCPythonMiniMap@@A
_BSS	SEGMENT
?ms_singleton@?$CSingleton@VCPythonMiniMap@@@@0PAVCPythonMiniMap@@A DD 01H DUP (?) ; CSingleton<CPythonMiniMap>::ms_singleton
_BSS	ENDS
;	COMDAT ?strEmptyValue@?1??GetArgumentString@@YAABV?$basic_string@DU?$char_traits@D@std@@V?$allocator@D@2@@std@@PBDAAV?$list@USArgumet@script@@V?$allocator@USArgumet@script@@@std@@@3@@Z@4V23@A
_BSS	SEGMENT
?strEmptyValue@?1??GetArgumentString@@YAABV?$basic_string@DU?$char_traits@D@std@@V?$allocator@D@2@@std@@PBDAAV?$list@USArgumet@script@@V?$allocator@USArgumet@script@@@std@@@3@@Z@4V23@A DB 018H DUP (?) ; `GetArgumentString'::`2'::strEmptyValue
_BSS	ENDS
;	COMDAT ?$TSS0@?1??GetArgumentString@@YAABV?$basic_string@DU?$char_traits@D@std@@V?$allocator@D@2@@std@@PBDAAV?$list@USArgumet@script@@V?$allocator@USArgumet@script@@@std@@@3@@Z@4HA
_BSS	SEGMENT
?$TSS0@?1??GetArgumentString@@YAABV?$basic_string@DU?$char_traits@D@std@@V?$allocator@D@2@@std@@PBDAAV?$list@USArgumet@script@@V?$allocator@USArgumet@script@@@std@@@3@@Z@4HA DD 01H DUP (?) ; `GetArgumentString'::`2'::$TSS0
_BSS	ENDS
;	COMDAT __real@406fe00000000000
CONST	SEGMENT
__real@406fe00000000000 DQ 0406fe00000000000r	; 255
CONST	ENDS
;	COMDAT __real@3f800000
CONST	SEGMENT
__real@3f800000 DD 03f800000r			; 1
CONST	ENDS
;	COMDAT __real@3e4ccccd
CONST	SEGMENT
__real@3e4ccccd DD 03e4ccccdr			; 0.2
CONST	ENDS
;	COMDAT ??_R1A@?0A@EA@?$CDynamicPool@USEventSet@CPythonEventManager@@@@8
rdata$r	SEGMENT
??_R1A@?0A@EA@?$CDynamicPool@USEventSet@CPythonEventManager@@@@8 DD FLAT:??_R0?AV?$CDynamicPool@USEventSet@CPythonEventManager@@@@@8 ; CDynamicPool<CPythonEventManager::SEventSet>::`RTTI Base Class Descriptor at (0,-1,0,64)'
	DD	00H
	DD	00H
	DD	0ffffffffH
	DD	00H
	DD	040H
	DD	FLAT:??_R3?$CDynamicPool@USEventSet@CPythonEventManager@@@@8
rdata$r	ENDS
;	COMDAT ??_R2?$CDynamicPool@USEventSet@CPythonEventManager@@@@8
rdata$r	SEGMENT
??_R2?$CDynamicPool@USEventSet@CPythonEventManager@@@@8 DD FLAT:??_R1A@?0A@EA@?$CDynamicPool@USEventSet@CPythonEventManager@@@@8 ; CDynamicPool<CPythonEventManager::SEventSet>::`RTTI Base Class Array'
rdata$r	ENDS
;	COMDAT ??_R3?$CDynamicPool@USEventSet@CPythonEventManager@@@@8
rdata$r	SEGMENT
??_R3?$CDynamicPool@USEventSet@CPythonEventManager@@@@8 DD 00H ; CDynamicPool<CPythonEventManager::SEventSet>::`RTTI Class Hierarchy Descriptor'
	DD	00H
	DD	01H
	DD	FLAT:??_R2?$CDynamicPool@USEventSet@CPythonEventManager@@@@8
rdata$r	ENDS
;	COMDAT ??_R0?AV?$CDynamicPool@USEventSet@CPythonEventManager@@@@@8
data$rs	SEGMENT
??_R0?AV?$CDynamicPool@USEventSet@CPythonEventManager@@@@@8 DD FLAT:??_7type_info@@6B@ ; CDynamicPool<CPythonEventManager::SEventSet> `RTTI Type Descriptor'
	DD	00H
	DB	'.?AV?$CDynamicPool@USEventSet@CPythonEventManager@@@@', 00H
data$rs	ENDS
;	COMDAT ??_R4?$CDynamicPool@USEventSet@CPythonEventManager@@@@6B@
rdata$r	SEGMENT
??_R4?$CDynamicPool@USEventSet@CPythonEventManager@@@@6B@ DD 00H ; CDynamicPool<CPythonEventManager::SEventSet>::`RTTI Complete Object Locator'
	DD	00H
	DD	00H
	DD	FLAT:??_R0?AV?$CDynamicPool@USEventSet@CPythonEventManager@@@@@8
	DD	FLAT:??_R3?$CDynamicPool@USEventSet@CPythonEventManager@@@@8
rdata$r	ENDS
;	COMDAT ??_R1A@?0A@EA@SEventSet@CPythonEventManager@@8
rdata$r	SEGMENT
??_R1A@?0A@EA@SEventSet@CPythonEventManager@@8 DD FLAT:??_R0?AUSEventSet@CPythonEventManager@@@8 ; CPythonEventManager::SEventSet::`RTTI Base Class Descriptor at (0,-1,0,64)'
	DD	00H
	DD	00H
	DD	0ffffffffH
	DD	00H
	DD	040H
	DD	FLAT:??_R3SEventSet@CPythonEventManager@@8
rdata$r	ENDS
;	COMDAT ??_R2SEventSet@CPythonEventManager@@8
rdata$r	SEGMENT
??_R2SEventSet@CPythonEventManager@@8 DD FLAT:??_R1A@?0A@EA@SEventSet@CPythonEventManager@@8 ; CPythonEventManager::SEventSet::`RTTI Base Class Array'
rdata$r	ENDS
;	COMDAT ??_R3SEventSet@CPythonEventManager@@8
rdata$r	SEGMENT
??_R3SEventSet@CPythonEventManager@@8 DD 00H		; CPythonEventManager::SEventSet::`RTTI Class Hierarchy Descriptor'
	DD	00H
	DD	01H
	DD	FLAT:??_R2SEventSet@CPythonEventManager@@8
rdata$r	ENDS
;	COMDAT ??_R0?AUSEventSet@CPythonEventManager@@@8
data$rs	SEGMENT
??_R0?AUSEventSet@CPythonEventManager@@@8 DD FLAT:??_7type_info@@6B@ ; CPythonEventManager::SEventSet `RTTI Type Descriptor'
	DD	00H
	DB	'.?AUSEventSet@CPythonEventManager@@', 00H
data$rs	ENDS
;	COMDAT ??_R4SEventSet@CPythonEventManager@@6B@
rdata$r	SEGMENT
??_R4SEventSet@CPythonEventManager@@6B@ DD 00H		; CPythonEventManager::SEventSet::`RTTI Complete Object Locator'
	DD	00H
	DD	00H
	DD	FLAT:??_R0?AUSEventSet@CPythonEventManager@@@8
	DD	FLAT:??_R3SEventSet@CPythonEventManager@@8
rdata$r	ENDS
;	COMDAT ??_R4?$CSingleton@VCPythonEventManager@@@@6B@
rdata$r	SEGMENT
??_R4?$CSingleton@VCPythonEventManager@@@@6B@ DD 00H	; CSingleton<CPythonEventManager>::`RTTI Complete Object Locator'
	DD	00H
	DD	00H
	DD	FLAT:??_R0?AV?$CSingleton@VCPythonEventManager@@@@@8
	DD	FLAT:??_R3?$CSingleton@VCPythonEventManager@@@@8
rdata$r	ENDS
;	COMDAT ??_R2?$CSingleton@VCPythonEventManager@@@@8
rdata$r	SEGMENT
??_R2?$CSingleton@VCPythonEventManager@@@@8 DD FLAT:??_R1A@?0A@EA@?$CSingleton@VCPythonEventManager@@@@8 ; CSingleton<CPythonEventManager>::`RTTI Base Class Array'
rdata$r	ENDS
;	COMDAT ??_R3?$CSingleton@VCPythonEventManager@@@@8
rdata$r	SEGMENT
??_R3?$CSingleton@VCPythonEventManager@@@@8 DD 00H	; CSingleton<CPythonEventManager>::`RTTI Class Hierarchy Descriptor'
	DD	00H
	DD	01H
	DD	FLAT:??_R2?$CSingleton@VCPythonEventManager@@@@8
rdata$r	ENDS
;	COMDAT ??_R0?AV?$CSingleton@VCPythonEventManager@@@@@8
data$rs	SEGMENT
??_R0?AV?$CSingleton@VCPythonEventManager@@@@@8 DD FLAT:??_7type_info@@6B@ ; CSingleton<CPythonEventManager> `RTTI Type Descriptor'
	DD	00H
	DB	'.?AV?$CSingleton@VCPythonEventManager@@@@', 00H
data$rs	ENDS
;	COMDAT ??_R1A@?0A@EA@?$CSingleton@VCPythonEventManager@@@@8
rdata$r	SEGMENT
??_R1A@?0A@EA@?$CSingleton@VCPythonEventManager@@@@8 DD FLAT:??_R0?AV?$CSingleton@VCPythonEventManager@@@@@8 ; CSingleton<CPythonEventManager>::`RTTI Base Class Descriptor at (0,-1,0,64)'
	DD	00H
	DD	00H
	DD	0ffffffffH
	DD	00H
	DD	040H
	DD	FLAT:??_R3?$CSingleton@VCPythonEventManager@@@@8
rdata$r	ENDS
;	COMDAT ??_R1A@?0A@EA@CPythonEventManager@@8
rdata$r	SEGMENT
??_R1A@?0A@EA@CPythonEventManager@@8 DD FLAT:??_R0?AVCPythonEventManager@@@8 ; CPythonEventManager::`RTTI Base Class Descriptor at (0,-1,0,64)'
	DD	01H
	DD	00H
	DD	0ffffffffH
	DD	00H
	DD	040H
	DD	FLAT:??_R3CPythonEventManager@@8
rdata$r	ENDS
;	COMDAT ??_R2CPythonEventManager@@8
rdata$r	SEGMENT
??_R2CPythonEventManager@@8 DD FLAT:??_R1A@?0A@EA@CPythonEventManager@@8 ; CPythonEventManager::`RTTI Base Class Array'
	DD	FLAT:??_R1A@?0A@EA@?$CSingleton@VCPythonEventManager@@@@8
rdata$r	ENDS
;	COMDAT ??_R3CPythonEventManager@@8
rdata$r	SEGMENT
??_R3CPythonEventManager@@8 DD 00H			; CPythonEventManager::`RTTI Class Hierarchy Descriptor'
	DD	00H
	DD	02H
	DD	FLAT:??_R2CPythonEventManager@@8
rdata$r	ENDS
;	COMDAT ??_R0?AVCPythonEventManager@@@8
data$rs	SEGMENT
??_R0?AVCPythonEventManager@@@8 DD FLAT:??_7type_info@@6B@ ; CPythonEventManager `RTTI Type Descriptor'
	DD	00H
	DB	'.?AVCPythonEventManager@@', 00H
data$rs	ENDS
;	COMDAT ??_R4CPythonEventManager@@6B@
rdata$r	SEGMENT
??_R4CPythonEventManager@@6B@ DD 00H			; CPythonEventManager::`RTTI Complete Object Locator'
	DD	00H
	DD	00H
	DD	FLAT:??_R0?AVCPythonEventManager@@@8
	DD	FLAT:??_R3CPythonEventManager@@8
rdata$r	ENDS
;	COMDAT ??_R1A@?0A@EA@?$CDynamicPool@VCGraphicTextInstance@@@@8
rdata$r	SEGMENT
??_R1A@?0A@EA@?$CDynamicPool@VCGraphicTextInstance@@@@8 DD FLAT:??_R0?AV?$CDynamicPool@VCGraphicTextInstance@@@@@8 ; CDynamicPool<CGraphicTextInstance>::`RTTI Base Class Descriptor at (0,-1,0,64)'
	DD	00H
	DD	00H
	DD	0ffffffffH
	DD	00H
	DD	040H
	DD	FLAT:??_R3?$CDynamicPool@VCGraphicTextInstance@@@@8
rdata$r	ENDS
;	COMDAT ??_R2?$CDynamicPool@VCGraphicTextInstance@@@@8
rdata$r	SEGMENT
??_R2?$CDynamicPool@VCGraphicTextInstance@@@@8 DD FLAT:??_R1A@?0A@EA@?$CDynamicPool@VCGraphicTextInstance@@@@8 ; CDynamicPool<CGraphicTextInstance>::`RTTI Base Class Array'
rdata$r	ENDS
;	COMDAT ??_R3?$CDynamicPool@VCGraphicTextInstance@@@@8
rdata$r	SEGMENT
??_R3?$CDynamicPool@VCGraphicTextInstance@@@@8 DD 00H	; CDynamicPool<CGraphicTextInstance>::`RTTI Class Hierarchy Descriptor'
	DD	00H
	DD	01H
	DD	FLAT:??_R2?$CDynamicPool@VCGraphicTextInstance@@@@8
rdata$r	ENDS
;	COMDAT ??_R0?AV?$CDynamicPool@VCGraphicTextInstance@@@@@8
data$rs	SEGMENT
??_R0?AV?$CDynamicPool@VCGraphicTextInstance@@@@@8 DD FLAT:??_7type_info@@6B@ ; CDynamicPool<CGraphicTextInstance> `RTTI Type Descriptor'
	DD	00H
	DB	'.?AV?$CDynamicPool@VCGraphicTextInstance@@@@', 00H
data$rs	ENDS
;	COMDAT ??_R4?$CDynamicPool@VCGraphicTextInstance@@@@6B@
rdata$r	SEGMENT
??_R4?$CDynamicPool@VCGraphicTextInstance@@@@6B@ DD 00H	; CDynamicPool<CGraphicTextInstance>::`RTTI Complete Object Locator'
	DD	00H
	DD	00H
	DD	FLAT:??_R0?AV?$CDynamicPool@VCGraphicTextInstance@@@@@8
	DD	FLAT:??_R3?$CDynamicPool@VCGraphicTextInstance@@@@8
rdata$r	ENDS
;	COMDAT ??_C@_0O@NKNMEGII@list?5too?5long@
CONST	SEGMENT
??_C@_0O@NKNMEGII@list?5too?5long@ DB 'list too long', 00H ; `string'
CONST	ENDS
;	COMDAT ??_C@_0M@NHAJMLIB@SELECT_ITEM@
CONST	SEGMENT
??_C@_0M@NHAJMLIB@SELECT_ITEM@ DB 'SELECT_ITEM', 00H	; `string'
CONST	ENDS
;	COMDAT ??_C@_0N@IBBMOEIC@INSERT_IMAGE@
CONST	SEGMENT
??_C@_0N@IBBMOEIC@INSERT_IMAGE@ DB 'INSERT_IMAGE', 00H	; `string'
CONST	ENDS
;	COMDAT ??_C@_0BB@EAAHJLBE@END_CONFIRM_WAIT@
CONST	SEGMENT
??_C@_0BB@EAAHJLBE@END_CONFIRM_WAIT@ DB 'END_CONFIRM_WAIT', 00H ; `string'
CONST	ENDS
;	COMDAT ??_C@_0N@BAJAMEHH@CONFIRM_WAIT@
CONST	SEGMENT
??_C@_0N@BAJAMEHH@CONFIRM_WAIT@ DB 'CONFIRM_WAIT', 00H	; `string'
CONST	ENDS
;	COMDAT ??_C@_05POAEJIHJ@INPUT@
CONST	SEGMENT
??_C@_05POAEJIHJ@INPUT@ DB 'INPUT', 00H			; `string'
CONST	ENDS
;	COMDAT ??_C@_0M@PMFMMHLB@WINDOW_SIZE@
CONST	SEGMENT
??_C@_0M@PMFMMHLB@WINDOW_SIZE@ DB 'WINDOW_SIZE', 00H	; `string'
CONST	ENDS
;	COMDAT ??_C@_08MALMLJOJ@COLOR256@
CONST	SEGMENT
??_C@_08MALMLJOJ@COLOR256@ DB 'COLOR256', 00H		; `string'
CONST	ENDS
;	COMDAT ??_C@_03OEMEHHJ@MOB@
CONST	SEGMENT
??_C@_03OEMEHHJ@MOB@ DB 'MOB', 00H			; `string'
CONST	ENDS
;	COMDAT ??_C@_04BLNHNEEM@ITEM@
CONST	SEGMENT
??_C@_04BLNHNEEM@ITEM@ DB 'ITEM', 00H			; `string'
CONST	ENDS
;	COMDAT ??_C@_0P@FFIDJBND@DUNGEON_RESULT@
CONST	SEGMENT
??_C@_0P@FFIDJBND@DUNGEON_RESULT@ DB 'DUNGEON_RESULT', 00H ; `string'
CONST	ENDS
;	COMDAT ??_C@_0L@PGFMEELF@RUN_CINEMA@
CONST	SEGMENT
??_C@_0L@PGFMEELF@RUN_CINEMA@ DB 'RUN_CINEMA', 00H	; `string'
CONST	ENDS
;	COMDAT ??_C@_0M@HJKMCEHO@TITLE_IMAGE@
CONST	SEGMENT
??_C@_0M@HJKMCEHO@TITLE_IMAGE@ DB 'TITLE_IMAGE', 00H	; `string'
CONST	ENDS
;	COMDAT ??_C@_0BN@MHHHIBEN@TEXT_HORIZONTAL_ALIGN_CENTER@
CONST	SEGMENT
??_C@_0BN@MHHHIBEN@TEXT_HORIZONTAL_ALIGN_CENTER@ DB 'TEXT_HORIZONTAL_ALIG'
	DB	'N_CENTER', 00H				; `string'
CONST	ENDS
;	COMDAT ??_C@_0L@LKNFDGAI@CLEAR_TEXT@
CONST	SEGMENT
??_C@_0L@LKNFDGAI@CLEAR_TEXT@ DB 'CLEAR_TEXT', 00H	; `string'
CONST	ENDS
;	COMDAT ??_C@_08KBPNHIPE@WHITE_IN@
CONST	SEGMENT
??_C@_08KBPNHIPE@WHITE_IN@ DB 'WHITE_IN', 00H		; `string'
CONST	ENDS
;	COMDAT ??_C@_09FBLOEAGA@WHITE_OUT@
CONST	SEGMENT
??_C@_09FBLOEAGA@WHITE_OUT@ DB 'WHITE_OUT', 00H		; `string'
CONST	ENDS
;	COMDAT ??_C@_07BBFGMBEC@FADE_IN@
CONST	SEGMENT
??_C@_07BBFGMBEC@FADE_IN@ DB 'FADE_IN', 00H		; `string'
CONST	ENDS
;	COMDAT ??_C@_08HDAMPNGA@FADE_OUT@
CONST	SEGMENT
??_C@_08HDAMPNGA@FADE_OUT@ DB 'FADE_OUT', 00H		; `string'
CONST	ENDS
;	COMDAT ??_C@_0P@JLFCBANF@RESTORE_CAMERA@
CONST	SEGMENT
??_C@_0P@JLFCBANF@RESTORE_CAMERA@ DB 'RESTORE_CAMERA', 00H ; `string'
CONST	ENDS
;	COMDAT ??_C@_0N@LDDFAHD@BLEND_CAMERA@
CONST	SEGMENT
??_C@_0N@LDDFAHD@BLEND_CAMERA@ DB 'BLEND_CAMERA', 00H	; `string'
CONST	ENDS
;	COMDAT ??_C@_0L@JFBLMOIC@SET_CAMERA@
CONST	SEGMENT
??_C@_0L@JFBLMOIC@SET_CAMERA@ DB 'SET_CAMERA', 00H	; `string'
CONST	ENDS
;	COMDAT ??_C@_05DJAECLDN@SLEEP@
CONST	SEGMENT
??_C@_05DJAECLDN@SLEEP@ DB 'SLEEP', 00H			; `string'
CONST	ENDS
;	COMDAT ??_C@_0BC@HFDJPBHI@QUESTBUTTON_CLOSE@
CONST	SEGMENT
??_C@_0BC@HFDJPBHI@QUESTBUTTON_CLOSE@ DB 'QUESTBUTTON_CLOSE', 00H ; `string'
CONST	ENDS
;	COMDAT ??_C@_0M@NLCKLGGC@QUESTBUTTON@
CONST	SEGMENT
??_C@_0M@NLCKLGGC@QUESTBUTTON@ DB 'QUESTBUTTON', 00H	; `string'
CONST	ENDS
;	COMDAT ??_C@_0L@HNINCFNF@SETCMAPPOS@
CONST	SEGMENT
??_C@_0L@HNINCFNF@SETCMAPPOS@ DB 'SETCMAPPOS', 00H	; `string'
CONST	ENDS
;	COMDAT ??_C@_09DCGGFGEI@ADJMSGPOS@
CONST	SEGMENT
??_C@_09DCGGFGEI@ADJMSGPOS@ DB 'ADJMSGPOS', 00H		; `string'
CONST	ENDS
;	COMDAT ??_C@_09GPHHDAMH@SETMSGPOS@
CONST	SEGMENT
??_C@_09GPHHDAMH@SETMSGPOS@ DB 'SETMSGPOS', 00H		; `string'
CONST	ENDS
;	COMDAT ??_C@_0P@MCDNLKLH@CLEARMAPSIGNAL@
CONST	SEGMENT
??_C@_0P@MCDNLKLH@CLEARMAPSIGNAL@ DB 'CLEARMAPSIGNAL', 00H ; `string'
CONST	ENDS
;	COMDAT ??_C@_0N@LEAJJLAE@ADDMAPSIGNAL@
CONST	SEGMENT
??_C@_0N@LEAJJLAE@ADDMAPSIGNAL@ DB 'ADDMAPSIGNAL', 00H	; `string'
CONST	ENDS
;	COMDAT ??_C@_05BNHKIGFN@IMAGE@
CONST	SEGMENT
??_C@_05BNHKIGFN@IMAGE@ DB 'IMAGE', 00H			; `string'
CONST	ENDS
;	COMDAT ??_C@_07CDIOHGPA@BGIMAGE@
CONST	SEGMENT
??_C@_07CDIOHGPA@BGIMAGE@ DB 'BGIMAGE', 00H		; `string'
CONST	ENDS
;	COMDAT ??_C@_08LGGHBKNM@TOPIMAGE@
CONST	SEGMENT
??_C@_08LGGHBKNM@TOPIMAGE@ DB 'TOPIMAGE', 00H		; `string'
CONST	ENDS
;	COMDAT ??_C@_09GHNJOICA@LEFTIMAGE@
CONST	SEGMENT
??_C@_09GHNJOICA@LEFTIMAGE@ DB 'LEFTIMAGE', 00H		; `string'
CONST	ENDS
;	COMDAT ??_C@_04KANDKFIK@DONE@
CONST	SEGMENT
??_C@_04KANDKFIK@DONE@ DB 'DONE', 00H			; `string'
CONST	ENDS
;	COMDAT ??_C@_04MOKMKBJN@NEXT@
CONST	SEGMENT
??_C@_04MOKMKBJN@NEXT@ DB 'NEXT', 00H			; `string'
CONST	ENDS
;	COMDAT ??_C@_08MDIDLFIL@QUESTION@
CONST	SEGMENT
??_C@_08MDIDLFIL@QUESTION@ DB 'QUESTION', 00H		; `string'
CONST	ENDS
;	COMDAT ??_C@_05PONODPI@CLEAR@
CONST	SEGMENT
??_C@_05PONODPI@CLEAR@ DB 'CLEAR', 00H			; `string'
CONST	ENDS
;	COMDAT ??_C@_04DBNKAKHO@WAIT@
CONST	SEGMENT
??_C@_04DBNKAKHO@WAIT@ DB 'WAIT', 00H			; `string'
CONST	ENDS
;	COMDAT ??_C@_05EMNIMLKD@ENTER@
CONST	SEGMENT
??_C@_05EMNIMLKD@ENTER@ DB 'ENTER', 00H			; `string'
CONST	ENDS
;	COMDAT ??_C@_05IBAECHHA@DELAY@
CONST	SEGMENT
??_C@_05IBAECHHA@DELAY@ DB 'DELAY', 00H			; `string'
CONST	ENDS
;	COMDAT ??_C@_05DPNLPLKI@COLOR@
CONST	SEGMENT
??_C@_05DPNLPLKI@COLOR@ DB 'COLOR', 00H			; `string'
CONST	ENDS
;	COMDAT ??_C@_06MJINCFFA@LETTER@
CONST	SEGMENT
??_C@_06MJINCFFA@LETTER@ DB 'LETTER', 00H		; `string'
CONST	ENDS
;	COMDAT ??_C@_0BB@GNKEGEMJ@?$LD?$LC?$MA?$LK?5?$LN?C?$LA?$KD?5?3?5?$CFd?C?J@
CONST	SEGMENT
??_C@_0BB@GNKEGEMJ@?$LD?$LC?$MA?$LK?5?$LN?C?$LA?$KD?5?3?5?$CFd?C?J@ DB 0b3H
	DB	0b2H, 0c0H, 0baH, ' ', 0bdH, 0c3H, 0b0H, 0a3H, ' : %d', 0c3H, 0caH
	DB	00H						; `string'
CONST	ENDS
;	COMDAT ??_C@_0CK@JOIMEHF@?5?$CB?$CB?5PARSING?5ERROR?5?9?5Strange?5Com@
CONST	SEGMENT
??_C@_0CK@JOIMEHF@?5?$CB?$CB?5PARSING?5ERROR?5?9?5Strange?5Com@ DB ' !! P'
	DB	'ARSING ERROR - Strange Command : %s', 0aH, 00H ; `string'
CONST	ENDS
;	COMDAT ??_C@_0DD@ENOBDFJN@CPythonEventManager?3?3InsertLine@
CONST	SEGMENT
??_C@_0DD@ENOBDFJN@CPythonEventManager?3?3InsertLine@ DB 'CPythonEventMan'
	DB	'ager::InsertLine - OUT_OF_TEXT_LINE', 00H	; `string'
CONST	ENDS
;	COMDAT ??_C@_0DL@PFMMJDKG@CPythonEventManager?3?3InsertLine@
CONST	SEGMENT
??_C@_0DL@PFMMJDKG@CPythonEventManager?3?3InsertLine@ DB 'CPythonEventMan'
	DB	'ager::InsertLine - CANNOT_FIND_DEFAULT_FONT', 00H ; `string'
CONST	ENDS
;	COMDAT ??_C@_0P@EGMAHDDO@AppendQuestion@
CONST	SEGMENT
??_C@_0P@EGMAHDDO@AppendQuestion@ DB 'AppendQuestion', 00H ; `string'
CONST	ENDS
;	COMDAT ??_C@_04LCKGAMBB@?$CIsi?$CJ@
CONST	SEGMENT
??_C@_04LCKGAMBB@?$CIsi?$CJ@ DB '(si)', 00H		; `string'
CONST	ENDS
;	COMDAT ??_C@_0N@NKMOFENJ@MakeQuestion@
CONST	SEGMENT
??_C@_0N@NKMOFENJ@MakeQuestion@ DB 'MakeQuestion', 00H	; `string'
CONST	ENDS
;	COMDAT ??_C@_0P@FONAKFHL@MakeNextButton@
CONST	SEGMENT
??_C@_0P@FONAKFHL@MakeNextButton@ DB 'MakeNextButton', 00H ; `string'
CONST	ENDS
;	COMDAT ??_C@_0BM@GFGEFDCO@BINARY_OpenSelectItemWindow@
CONST	SEGMENT
??_C@_0BM@GFGEFDCO@BINARY_OpenSelectItemWindow@ DB 'BINARY_OpenSelectItem'
	DB	'Window', 00H				; `string'
CONST	ENDS
;	COMDAT ??_C@_09FOPMPDJN@CloseSelf@
CONST	SEGMENT
??_C@_09FOPMPDJN@CloseSelf@ DB 'CloseSelf', 00H		; `string'
CONST	ENDS
;	COMDAT ??_C@_07DDHNKDGP@timeout@
CONST	SEGMENT
??_C@_07DDHNKDGP@timeout@ DB 'timeout', 00H		; `string'
CONST	ENDS
;	COMDAT ??_C@_07MNOKODDC@OnInput@
CONST	SEGMENT
??_C@_07MNOKODDC@OnInput@ DB 'OnInput', 00H		; `string'
CONST	ENDS
;	COMDAT ??_C@_06JKFPDEMN@OnSize@
CONST	SEGMENT
??_C@_06JKFPDEMN@OnSize@ DB 'OnSize', 00H		; `string'
CONST	ENDS
;	COMDAT ??_C@_04INACLLOK@?$CIii?$CJ@
CONST	SEGMENT
??_C@_04INACLLOK@?$CIii?$CJ@ DB '(ii)', 00H		; `string'
CONST	ENDS
;	COMDAT ??_C@_06LNLHEAAG@height@
CONST	SEGMENT
??_C@_06LNLHEAAG@height@ DB 'height', 00H		; `string'
CONST	ENDS
;	COMDAT ??_C@_05IGKADHGO@width@
CONST	SEGMENT
??_C@_05IGKADHGO@width@ DB 'width', 00H			; `string'
CONST	ENDS
;	COMDAT ??_C@_0BC@GLAGHMFL@ShowDungeonResult@
CONST	SEGMENT
??_C@_0BC@GLAGHMFL@ShowDungeonResult@ DB 'ShowDungeonResult', 00H ; `string'
CONST	ENDS
;	COMDAT ??_C@_0M@EDIBAKKL@?$CIiiiiiiiii?$CJ@
CONST	SEGMENT
??_C@_0M@EDIBAKKL@?$CIiiiiiiiii?$CJ@ DB '(iiiiiiiii)', 00H ; `string'
CONST	ENDS
;	COMDAT ??_C@_09HPFMCAOO@bonus_exp@
CONST	SEGMENT
??_C@_09HPFMCAOO@bonus_exp@ DB 'bonus_exp', 00H		; `string'
CONST	ENDS
;	COMDAT ??_C@_0L@OIFGKHMH@total_time@
CONST	SEGMENT
??_C@_0L@OIFGKHMH@total_time@ DB 'total_time', 00H	; `string'
CONST	ENDS
;	COMDAT ??_C@_0L@CEFFAPEL@killallmob@
CONST	SEGMENT
??_C@_0L@CEFFAPEL@killallmob@ DB 'killallmob', 00H	; `string'
CONST	ENDS
;	COMDAT ??_C@_0L@HAAPAAPF@is_revived@
CONST	SEGMENT
??_C@_0L@HAAPAAPF@is_revived@ DB 'is_revived', 00H	; `string'
CONST	ENDS
;	COMDAT ??_C@_0L@HLMCPCKO@use_potion@
CONST	SEGMENT
??_C@_0L@HLMCPCKO@use_potion@ DB 'use_potion', 00H	; `string'
CONST	ENDS
;	COMDAT ??_C@_0N@MAFIFFGH@hidden_total@
CONST	SEGMENT
??_C@_0N@MAFIFFGH@hidden_total@ DB 'hidden_total', 00H	; `string'
CONST	ENDS
;	COMDAT ??_C@_0M@NAENPPOP@find_hidden@
CONST	SEGMENT
??_C@_0M@NAENPPOP@find_hidden@ DB 'find_hidden', 00H	; `string'
CONST	ENDS
;	COMDAT ??_C@_0O@DDDIKPAP@killmob_count@
CONST	SEGMENT
??_C@_0O@DDDIKPAP@killmob_count@ DB 'killmob_count', 00H ; `string'
CONST	ENDS
;	COMDAT ??_C@_0BA@FCPOOKJM@killstone_count@
CONST	SEGMENT
??_C@_0BA@FCPOOKJM@killstone_count@ DB 'killstone_count', 00H ; `string'
CONST	ENDS
;	COMDAT ??_C@_0N@CCHILNPP@OnTitleImage@
CONST	SEGMENT
??_C@_0N@CCHILNPP@OnTitleImage@ DB 'OnTitleImage', 00H	; `string'
CONST	ENDS
;	COMDAT ??_C@_07NGADDHAB@WhiteIn@
CONST	SEGMENT
??_C@_07NGADDHAB@WhiteIn@ DB 'WhiteIn', 00H		; `string'
CONST	ENDS
;	COMDAT ??_C@_08JJKJMBO@WhiteOut@
CONST	SEGMENT
??_C@_08JJKJMBO@WhiteOut@ DB 'WhiteOut', 00H		; `string'
CONST	ENDS
;	COMDAT ??_C@_06GCJPJKOH@FadeIn@
CONST	SEGMENT
??_C@_06GCJPJKOH@FadeIn@ DB 'FadeIn', 00H		; `string'
CONST	ENDS
;	COMDAT ??_C@_07EAEHEHPO@FadeOut@
CONST	SEGMENT
??_C@_07EAEHEHPO@FadeOut@ DB 'FadeOut', 00H		; `string'
CONST	ENDS
;	COMDAT ??_C@_03LDCBIPEL@?$CIf?$CJ@
CONST	SEGMENT
??_C@_03LDCBIPEL@?$CIf?$CJ@ DB '(f)', 00H		; `string'
CONST	ENDS
;	COMDAT ??_C@_05HJCMGBKF@speed@
CONST	SEGMENT
??_C@_05HJCMGBKF@speed@ DB 'speed', 00H			; `string'
CONST	ENDS
;	COMDAT ??_C@_09LBCONMEI@blendtime@
CONST	SEGMENT
??_C@_09LBCONMEI@blendtime@ DB 'blendtime', 00H		; `string'
CONST	ENDS
;	COMDAT ??_C@_09IBEAJOHJ@RecvQuest@
CONST	SEGMENT
??_C@_09IBEAJOHJ@RecvQuest@ DB 'RecvQuest', 00H		; `string'
CONST	ENDS
;	COMDAT ??_C@_04JMLDJNEM@?$CIis?$CJ@
CONST	SEGMENT
??_C@_04JMLDJNEM@?$CIis?$CJ@ DB '(is)', 00H		; `string'
CONST	ENDS
;	COMDAT ??_C@_0BB@JCGLEGP@BINARY_RecvQuest@
CONST	SEGMENT
??_C@_0BB@JCGLEGP@BINARY_RecvQuest@ DB 'BINARY_RecvQuest', 00H ; `string'
CONST	ENDS
;	COMDAT ??_C@_06GEDDNFGH@?$CIisss?$CJ@
CONST	SEGMENT
??_C@_06GEDDNFGH@?$CIisss?$CJ@ DB '(isss)', 00H		; `string'
CONST	ENDS
;	COMDAT ??_C@_09MIAHMBP@highlight@
CONST	SEGMENT
??_C@_09MIAHMBP@highlight@ DB 'highlight', 00H		; `string'
CONST	ENDS
;	COMDAT ??_C@_0BD@MDDAOGBD@?A?$LG?$LA?$KC?$LD?$KN?5?$LP?k?H?$KF?$LM?$KO?$DP?4?4?4?4@
CONST	SEGMENT
??_C@_0BD@MDDAOGBD@?A?$LG?$LA?$KC?$LD?$KN?5?$LP?k?H?$KF?$LM?$KO?$DP?4?4?4?4@ DB 0c1H
	DB	0b6H, 0b0H, 0a2H, 0b3H, 0adH, ' ', 0bfH, 0ebH, 0c8H, 0a5H, 0bcH
	DB	0aeH, '?....', 00H				; `string'
CONST	ENDS
;	COMDAT ??_C@_04MEMAJGDJ@name@
CONST	SEGMENT
??_C@_04MEMAJGDJ@name@ DB 'name', 00H			; `string'
CONST	ENDS
;	COMDAT ??_C@_09IGOOKEAE@icon_name@
CONST	SEGMENT
??_C@_09IGOOKEAE@icon_name@ DB 'icon_name', 00H		; `string'
CONST	ENDS
;	COMDAT ??_C@_09CNONGEHE@icon_type@
CONST	SEGMENT
??_C@_09CNONGEHE@icon_type@ DB 'icon_type', 00H		; `string'
CONST	ENDS
;	COMDAT ??_C@_0BC@HCOLHKJD@BINARY_ClearQuest@
CONST	SEGMENT
??_C@_0BC@HCOLHKJD@BINARY_ClearQuest@ DB 'BINARY_ClearQuest', 00H ; `string'
CONST	ENDS
;	COMDAT ??_C@_03LIHNMIHG@?$CIi?$CJ@
CONST	SEGMENT
??_C@_03LIHNMIHG@?$CIi?$CJ@ DB '(i)', 00H		; `string'
CONST	ENDS
;	COMDAT ??_C@_0O@LBIBFC@OnInsertImage@
CONST	SEGMENT
??_C@_0O@LBIBFC@OnInsertImage@ DB 'OnInsertImage', 00H	; `string'
CONST	ENDS
;	COMDAT ??_C@_08KJCKKFJC@?$CIssssii?$CJ@
CONST	SEGMENT
??_C@_08KJCKKFJC@?$CIssssii?$CJ@ DB '(ssssii)', 00H	; `string'
CONST	ENDS
;	COMDAT ??_C@_0BB@FCLBKNGH@OnInsertItemIcon@
CONST	SEGMENT
??_C@_0BB@FCLBKNGH@OnInsertItemIcon@ DB 'OnInsertItemIcon', 00H ; `string'
CONST	ENDS
;	COMDAT ??_C@_08GKIEGGBC@?$CIsissii?$CJ@
CONST	SEGMENT
??_C@_08GKIEGGBC@?$CIsissii?$CJ@ DB '(sissii)', 00H	; `string'
CONST	ENDS
;	COMDAT ??_C@_03DAKNAIGI@idx@
CONST	SEGMENT
??_C@_03DAKNAIGI@idx@ DB 'idx', 00H			; `string'
CONST	ENDS
;	COMDAT ??_C@_0L@HIIGNCOA@image_type@
CONST	SEGMENT
??_C@_0L@HIIGNCOA@image_type@ DB 'image_type', 00H	; `string'
CONST	ENDS
;	COMDAT ??_C@_05KBOMEDGA@total@
CONST	SEGMENT
??_C@_05KBOMEDGA@total@ DB 'total', 00H			; `string'
CONST	ENDS
;	COMDAT ??_C@_05FKHKFDID@index@
CONST	SEGMENT
??_C@_05FKHKFDID@index@ DB 'index', 00H			; `string'
CONST	ENDS
;	COMDAT ??_C@_04EBPADADD@desc@
CONST	SEGMENT
??_C@_04EBPADADD@desc@ DB 'desc', 00H			; `string'
CONST	ENDS
;	COMDAT ??_C@_05PHLGJONK@title@
CONST	SEGMENT
??_C@_05PHLGJONK@title@ DB 'title', 00H			; `string'
CONST	ENDS
;	COMDAT ??_C@_0L@NDIFBCJA@image_name@
CONST	SEGMENT
??_C@_0L@NDIFBCJA@image_name@ DB 'image_name', 00H	; `string'
CONST	ENDS
;	COMDAT ??_C@_07COJEPNBG@OnImage@
CONST	SEGMENT
??_C@_07COJEPNBG@OnImage@ DB 'OnImage', 00H		; `string'
CONST	ENDS
;	COMDAT ??_C@_05GFDPDNFA@?$CIiis?$CJ@
CONST	SEGMENT
??_C@_05GFDPDNFA@?$CIiis?$CJ@ DB '(iis)', 00H		; `string'
CONST	ENDS
;	COMDAT ??_C@_0BC@OIPDJOGL@OnBackgroundImage@
CONST	SEGMENT
??_C@_0BC@OIPDJOGL@OnBackgroundImage@ DB 'OnBackgroundImage', 00H ; `string'
CONST	ENDS
;	COMDAT ??_C@_0L@ELIGNPMG@OnTopImage@
CONST	SEGMENT
??_C@_0L@ELIGNPMG@OnTopImage@ DB 'OnTopImage', 00H	; `string'
CONST	ENDS
;	COMDAT ??_C@_0M@MHNDOIJH@OnLeftImage@
CONST	SEGMENT
??_C@_0M@MHNDOIJH@OnLeftImage@ DB 'OnLeftImage', 00H	; `string'
CONST	ENDS
;	COMDAT ??_C@_03KJMMOONA@?$CIs?$CJ@
CONST	SEGMENT
??_C@_03KJMMOONA@?$CIs?$CJ@ DB '(s)', 00H		; `string'
CONST	ENDS
;	COMDAT ??_C@_03LOJEKLML@src@
CONST	SEGMENT
??_C@_03LOJEKLML@src@ DB 'src', 00H			; `string'
CONST	ENDS
;	COMDAT ??_C@_09DIPEHMLE@DoneEvent@
CONST	SEGMENT
??_C@_09DIPEHMLE@DoneEvent@ DB 'DoneEvent', 00H		; `string'
CONST	ENDS
;	COMDAT ??_C@_02HCKGKOFO@?$CI?$CJ@
CONST	SEGMENT
??_C@_02HCKGKOFO@?$CI?$CJ@ DB '()', 00H			; `string'
CONST	ENDS
;	COMDAT ??_C@_01OJONOECF@b@
CONST	SEGMENT
??_C@_01OJONOECF@b@ DB 'b', 00H				; `string'
CONST	ENDS
;	COMDAT ??_C@_01JEJKBAGA@g@
CONST	SEGMENT
??_C@_01JEJKBAGA@g@ DB 'g', 00H				; `string'
CONST	ENDS
;	COMDAT ??_C@_01KDCPPGHE@r@
CONST	SEGMENT
??_C@_01KDCPPGHE@r@ DB 'r', 00H				; `string'
CONST	ENDS
;	COMDAT ??_C@_0EH@KHNDFHCA@CPythonEventManager?3?3SetEventHa@
CONST	SEGMENT
??_C@_0EH@KHNDFHCA@CPythonEventManager?3?3SetEventHa@ DB 'CPythonEventMan'
	DB	'ager::SetEventHandler m_EventSetVector[iIndex=%d]==NULL', 00H ; `string'
CONST	ENDS
;	COMDAT ??_C@_0EK@NAEFMGNK@CPythonEventManager?3?3SetRestric@
CONST	SEGMENT
??_C@_0EK@NAEFMGNK@CPythonEventManager?3?3SetRestric@ DB 'CPythonEventMan'
	DB	'ager::SetRestrictedCount m_EventSetVector[iIndex=%d]==NULL', 00H ; `string'
CONST	ENDS
;	COMDAT ??_C@_05MFEJDJP@value@
CONST	SEGMENT
??_C@_05MFEJDJP@value@ DB 'value', 00H			; `string'
CONST	ENDS
;	COMDAT ??_C@_05NCNFOFLM@pitch@
CONST	SEGMENT
??_C@_05NCNFOFLM@pitch@ DB 'pitch', 00H			; `string'
CONST	ENDS
;	COMDAT ??_C@_03BHFFHIBL@rot@
CONST	SEGMENT
??_C@_03BHFFHIBL@rot@ DB 'rot', 00H			; `string'
CONST	ENDS
;	COMDAT ??_C@_08LHFODBFO@distance@
CONST	SEGMENT
??_C@_08LHFODBFO@distance@ DB 'distance', 00H		; `string'
CONST	ENDS
;	COMDAT ??_C@_05HCKPILGO@cross@
CONST	SEGMENT
??_C@_05HCKPILGO@cross@ DB 'cross', 00H			; `string'
CONST	ENDS
;	COMDAT ??_C@_04CHADEDPO@view@
CONST	SEGMENT
??_C@_04CHADEDPO@view@ DB 'view', 00H			; `string'
CONST	ENDS
;	COMDAT ??_C@_02HNLLPFKA@up@
CONST	SEGMENT
??_C@_02HNLLPFKA@up@ DB 'up', 00H			; `string'
CONST	ENDS
;	COMDAT ??_C@_01GLPGHMHM@z@
CONST	SEGMENT
??_C@_01GLPGHMHM@z@ DB 'z', 00H				; `string'
CONST	ENDS
;	COMDAT ??_C@_01EANLCPLP@y@
CONST	SEGMENT
??_C@_01EANLCPLP@y@ DB 'y', 00H				; `string'
CONST	ENDS
;	COMDAT ??_C@_01FJMABOPO@x@
CONST	SEGMENT
??_C@_01FJMABOPO@x@ DB 'x', 00H				; `string'
CONST	ENDS
;	COMDAT ??_7CPythonEventManager@@6B@
CONST	SEGMENT
??_7CPythonEventManager@@6B@ DD FLAT:??_R4CPythonEventManager@@6B@ ; CPythonEventManager::`vftable'
	DD	FLAT:??_ECPythonEventManager@@UAEPAXI@Z
CONST	ENDS
;	COMDAT ??_7?$CDynamicPool@VCGraphicTextInstance@@@@6B@
CONST	SEGMENT
??_7?$CDynamicPool@VCGraphicTextInstance@@@@6B@ DD FLAT:??_R4?$CDynamicPool@VCGraphicTextInstance@@@@6B@ ; CDynamicPool<CGraphicTextInstance>::`vftable'
	DD	FLAT:??_E?$CDynamicPool@VCGraphicTextInstance@@@@UAEPAXI@Z
CONST	ENDS
;	COMDAT ??_7?$CDynamicPool@USEventSet@CPythonEventManager@@@@6B@
CONST	SEGMENT
??_7?$CDynamicPool@USEventSet@CPythonEventManager@@@@6B@ DD FLAT:??_R4?$CDynamicPool@USEventSet@CPythonEventManager@@@@6B@ ; CDynamicPool<CPythonEventManager::SEventSet>::`vftable'
	DD	FLAT:??_E?$CDynamicPool@USEventSet@CPythonEventManager@@@@UAEPAXI@Z
CONST	ENDS
;	COMDAT ??_7SEventSet@CPythonEventManager@@6B@
CONST	SEGMENT
??_7SEventSet@CPythonEventManager@@6B@ DD FLAT:??_R4SEventSet@CPythonEventManager@@6B@ ; CPythonEventManager::SEventSet::`vftable'
	DD	FLAT:??_ESEventSet@CPythonEventManager@@UAEPAXI@Z
CONST	ENDS
;	COMDAT ??_7?$CSingleton@VCPythonEventManager@@@@6B@
CONST	SEGMENT
??_7?$CSingleton@VCPythonEventManager@@@@6B@ DD FLAT:??_R4?$CSingleton@VCPythonEventManager@@@@6B@ ; CSingleton<CPythonEventManager>::`vftable'
	DD	FLAT:??_E?$CSingleton@VCPythonEventManager@@@@UAEPAXI@Z
CONST	ENDS
;	COMDAT ??_R1A@?0A@EA@bad_array_new_length@std@@8
rdata$r	SEGMENT
??_R1A@?0A@EA@bad_array_new_length@std@@8 DD FLAT:??_R0?AVbad_array_new_length@std@@@8 ; std::bad_array_new_length::`RTTI Base Class Descriptor at (0,-1,0,64)'
	DD	02H
	DD	00H
	DD	0ffffffffH
	DD	00H
	DD	040H
	DD	FLAT:??_R3bad_array_new_length@std@@8
rdata$r	ENDS
;	COMDAT ??_R2bad_array_new_length@std@@8
rdata$r	SEGMENT
??_R2bad_array_new_length@std@@8 DD FLAT:??_R1A@?0A@EA@bad_array_new_length@std@@8 ; std::bad_array_new_length::`RTTI Base Class Array'
	DD	FLAT:??_R1A@?0A@EA@bad_alloc@std@@8
	DD	FLAT:??_R1A@?0A@EA@exception@std@@8
rdata$r	ENDS
;	COMDAT ??_R3bad_array_new_length@std@@8
rdata$r	SEGMENT
??_R3bad_array_new_length@std@@8 DD 00H			; std::bad_array_new_length::`RTTI Class Hierarchy Descriptor'
	DD	00H
	DD	03H
	DD	FLAT:??_R2bad_array_new_length@std@@8
rdata$r	ENDS
;	COMDAT ??_R4bad_array_new_length@std@@6B@
rdata$r	SEGMENT
??_R4bad_array_new_length@std@@6B@ DD 00H		; std::bad_array_new_length::`RTTI Complete Object Locator'
	DD	00H
	DD	00H
	DD	FLAT:??_R0?AVbad_array_new_length@std@@@8
	DD	FLAT:??_R3bad_array_new_length@std@@8
rdata$r	ENDS
;	COMDAT ??_R1A@?0A@EA@bad_alloc@std@@8
rdata$r	SEGMENT
??_R1A@?0A@EA@bad_alloc@std@@8 DD FLAT:??_R0?AVbad_alloc@std@@@8 ; std::bad_alloc::`RTTI Base Class Descriptor at (0,-1,0,64)'
	DD	01H
	DD	00H
	DD	0ffffffffH
	DD	00H
	DD	040H
	DD	FLAT:??_R3bad_alloc@std@@8
rdata$r	ENDS
;	COMDAT ??_R2bad_alloc@std@@8
rdata$r	SEGMENT
??_R2bad_alloc@std@@8 DD FLAT:??_R1A@?0A@EA@bad_alloc@std@@8 ; std::bad_alloc::`RTTI Base Class Array'
	DD	FLAT:??_R1A@?0A@EA@exception@std@@8
rdata$r	ENDS
;	COMDAT ??_R3bad_alloc@std@@8
rdata$r	SEGMENT
??_R3bad_alloc@std@@8 DD 00H				; std::bad_alloc::`RTTI Class Hierarchy Descriptor'
	DD	00H
	DD	02H
	DD	FLAT:??_R2bad_alloc@std@@8
rdata$r	ENDS
;	COMDAT ??_R4bad_alloc@std@@6B@
rdata$r	SEGMENT
??_R4bad_alloc@std@@6B@ DD 00H				; std::bad_alloc::`RTTI Complete Object Locator'
	DD	00H
	DD	00H
	DD	FLAT:??_R0?AVbad_alloc@std@@@8
	DD	FLAT:??_R3bad_alloc@std@@8
rdata$r	ENDS
;	COMDAT ??_R1A@?0A@EA@exception@std@@8
rdata$r	SEGMENT
??_R1A@?0A@EA@exception@std@@8 DD FLAT:??_R0?AVexception@std@@@8 ; std::exception::`RTTI Base Class Descriptor at (0,-1,0,64)'
	DD	00H
	DD	00H
	DD	0ffffffffH
	DD	00H
	DD	040H
	DD	FLAT:??_R3exception@std@@8
rdata$r	ENDS
;	COMDAT ??_R2exception@std@@8
rdata$r	SEGMENT
??_R2exception@std@@8 DD FLAT:??_R1A@?0A@EA@exception@std@@8 ; std::exception::`RTTI Base Class Array'
rdata$r	ENDS
;	COMDAT ??_R3exception@std@@8
rdata$r	SEGMENT
??_R3exception@std@@8 DD 00H				; std::exception::`RTTI Class Hierarchy Descriptor'
	DD	00H
	DD	01H
	DD	FLAT:??_R2exception@std@@8
rdata$r	ENDS
;	COMDAT ??_R4exception@std@@6B@
rdata$r	SEGMENT
??_R4exception@std@@6B@ DD 00H				; std::exception::`RTTI Complete Object Locator'
	DD	00H
	DD	00H
	DD	FLAT:??_R0?AVexception@std@@@8
	DD	FLAT:??_R3exception@std@@8
rdata$r	ENDS
;	COMDAT ??_C@_0BA@FOIKENOD@vector?5too?5long@
CONST	SEGMENT
??_C@_0BA@FOIKENOD@vector?5too?5long@ DB 'vector too long', 00H ; `string'
CONST	ENDS
;	COMDAT ??_C@_00CNPNBAHC@@
CONST	SEGMENT
??_C@_00CNPNBAHC@@ DB 00H				; `string'
CONST	ENDS
;	COMDAT ??_C@_0BB@GCADKGJO@map?1set?5too?5long@
CONST	SEGMENT
??_C@_0BB@GCADKGJO@map?1set?5too?5long@ DB 'map/set too long', 00H ; `string'
CONST	ENDS
;	COMDAT ??_C@_0BA@JFNIOLAK@string?5too?5long@
CONST	SEGMENT
??_C@_0BA@JFNIOLAK@string?5too?5long@ DB 'string too long', 00H ; `string'
CONST	ENDS
;	COMDAT __CT??_R0?AVexception@std@@@8??0exception@std@@QAE@ABV01@@Z12
xdata$x	SEGMENT
__CT??_R0?AVexception@std@@@8??0exception@std@@QAE@ABV01@@Z12 DD 00H
	DD	FLAT:??_R0?AVexception@std@@@8
	DD	00H
	DD	0ffffffffH
	ORG $+4
	DD	0cH
	DD	FLAT:??0exception@std@@QAE@ABV01@@Z
xdata$x	ENDS
;	COMDAT ??_R0?AVexception@std@@@8
data$r	SEGMENT
??_R0?AVexception@std@@@8 DD FLAT:??_7type_info@@6B@	; std::exception `RTTI Type Descriptor'
	DD	00H
	DB	'.?AVexception@std@@', 00H
data$r	ENDS
;	COMDAT __CT??_R0?AVbad_alloc@std@@@8??0bad_alloc@std@@QAE@ABV01@@Z12
xdata$x	SEGMENT
__CT??_R0?AVbad_alloc@std@@@8??0bad_alloc@std@@QAE@ABV01@@Z12 DD 010H
	DD	FLAT:??_R0?AVbad_alloc@std@@@8
	DD	00H
	DD	0ffffffffH
	ORG $+4
	DD	0cH
	DD	FLAT:??0bad_alloc@std@@QAE@ABV01@@Z
xdata$x	ENDS
;	COMDAT ??_R0?AVbad_alloc@std@@@8
data$r	SEGMENT
??_R0?AVbad_alloc@std@@@8 DD FLAT:??_7type_info@@6B@	; std::bad_alloc `RTTI Type Descriptor'
	DD	00H
	DB	'.?AVbad_alloc@std@@', 00H
data$r	ENDS
;	COMDAT __CT??_R0?AVbad_array_new_length@std@@@8??0bad_array_new_length@std@@QAE@ABV01@@Z12
xdata$x	SEGMENT
__CT??_R0?AVbad_array_new_length@std@@@8??0bad_array_new_length@std@@QAE@ABV01@@Z12 DD 00H
	DD	FLAT:??_R0?AVbad_array_new_length@std@@@8
	DD	00H
	DD	0ffffffffH
	ORG $+4
	DD	0cH
	DD	FLAT:??0bad_array_new_length@std@@QAE@ABV01@@Z
xdata$x	ENDS
;	COMDAT ??_R0?AVbad_array_new_length@std@@@8
data$r	SEGMENT
??_R0?AVbad_array_new_length@std@@@8 DD FLAT:??_7type_info@@6B@ ; std::bad_array_new_length `RTTI Type Descriptor'
	DD	00H
	DB	'.?AVbad_array_new_length@std@@', 00H
data$r	ENDS
;	COMDAT __CTA3?AVbad_array_new_length@std@@
xdata$x	SEGMENT
__CTA3?AVbad_array_new_length@std@@ DD 03H
	DD	FLAT:__CT??_R0?AVbad_array_new_length@std@@@8??0bad_array_new_length@std@@QAE@ABV01@@Z12
	DD	FLAT:__CT??_R0?AVbad_alloc@std@@@8??0bad_alloc@std@@QAE@ABV01@@Z12
	DD	FLAT:__CT??_R0?AVexception@std@@@8??0exception@std@@QAE@ABV01@@Z12
xdata$x	ENDS
;	COMDAT __TI3?AVbad_array_new_length@std@@
xdata$x	SEGMENT
__TI3?AVbad_array_new_length@std@@ DD 00H
	DD	FLAT:??1bad_array_new_length@std@@UAE@XZ
	DD	00H
	DD	FLAT:__CTA3?AVbad_array_new_length@std@@
xdata$x	ENDS
;	COMDAT ??_C@_0BF@KINCDENJ@bad?5array?5new?5length@
CONST	SEGMENT
??_C@_0BF@KINCDENJ@bad?5array?5new?5length@ DB 'bad array new length', 00H ; `string'
CONST	ENDS
;	COMDAT ??_7bad_array_new_length@std@@6B@
CONST	SEGMENT
??_7bad_array_new_length@std@@6B@ DD FLAT:??_R4bad_array_new_length@std@@6B@ ; std::bad_array_new_length::`vftable'
	DD	FLAT:??_Ebad_array_new_length@std@@UAEPAXI@Z
	DD	FLAT:?what@exception@std@@UBEPBDXZ
CONST	ENDS
;	COMDAT ??_7bad_alloc@std@@6B@
CONST	SEGMENT
??_7bad_alloc@std@@6B@ DD FLAT:??_R4bad_alloc@std@@6B@	; std::bad_alloc::`vftable'
	DD	FLAT:??_Ebad_alloc@std@@UAEPAXI@Z
	DD	FLAT:?what@exception@std@@UBEPBDXZ
CONST	ENDS
;	COMDAT ??_C@_0BC@EOODALEL@Unknown?5exception@
CONST	SEGMENT
??_C@_0BC@EOODALEL@Unknown?5exception@ DB 'Unknown exception', 00H ; `string'
CONST	ENDS
;	COMDAT ??_7exception@std@@6B@
CONST	SEGMENT
??_7exception@std@@6B@ DD FLAT:??_R4exception@std@@6B@	; std::exception::`vftable'
	DD	FLAT:??_Eexception@std@@UAEPAXI@Z
	DD	FLAT:?what@exception@std@@UBEPBDXZ
CONST	ENDS
;	COMDAT xdata$x
xdata$x	SEGMENT
__unwindtable$??$?0ABUpiecewise_construct_t@std@@V?$tuple@$$QAV?$basic_string@DU?$char_traits@D@std@@V?$allocator@D@2@@std@@@1@V?$tuple@$$V@1@@?$_Tree_temp_node@V?$allocator@U?$_Tree_node@U?$pair@$$CBV?$basic_string@DU?$char_traits@D@std@@V?$allocator@D@2@@std@@H@std@@PAX@std@@@std@@@std@@QAE@AAV?$allocator@U?$_Tree_node@U?$pair@$$CBV?$basic_string@DU?$char_traits@D@std@@V?$allocator@D@2@@std@@H@std@@PAX@std@@@1@PAU?$_Tree_node@U?$pair@$$CBV?$basic_string@DU?$char_traits@D@std@@V?$allocator@D@2@@std@@H@std@@PAX@1@ABUpiecewise_construct_t@1@$$QAV?$tuple@$$QAV?$basic_string@DU?$char_traits@D@std@@V?$allocator@D@2@@std@@@1@$$QAV?$tuple@$$V@1@@Z DD 0ffffffffH
	DD	FLAT:__unwindfunclet$??$?0ABUpiecewise_construct_t@std@@V?$tuple@$$QAV?$basic_string@DU?$char_traits@D@std@@V?$allocator@D@2@@std@@@1@V?$tuple@$$V@1@@?$_Tree_temp_node@V?$allocator@U?$_Tree_node@U?$pair@$$CBV?$basic_string@DU?$char_traits@D@std@@V?$allocator@D@2@@std@@H@std@@PAX@std@@@std@@@std@@QAE@AAV?$allocator@U?$_Tree_node@U?$pair@$$CBV?$basic_string@DU?$char_traits@D@std@@V?$allocator@D@2@@std@@H@std@@PAX@std@@@1@PAU?$_Tree_node@U?$pair@$$CBV?$basic_string@DU?$char_traits@D@std@@V?$allocator@D@2@@std@@H@std@@PAX@1@ABUpiecewise_construct_t@1@$$QAV?$tuple@$$QAV?$basic_string@DU?$char_traits@D@std@@V?$allocator@D@2@@std@@@1@$$QAV?$tuple@$$V@1@@Z$1
	DD	0ffffffffH
	DD	FLAT:__unwindfunclet$??$?0ABUpiecewise_construct_t@std@@V?$tuple@$$QAV?$basic_string@DU?$char_traits@D@std@@V?$allocator@D@2@@std@@@1@V?$tuple@$$V@1@@?$_Tree_temp_node@V?$allocator@U?$_Tree_node@U?$pair@$$CBV?$basic_string@DU?$char_traits@D@std@@V?$allocator@D@2@@std@@H@std@@PAX@std@@@std@@@std@@QAE@AAV?$allocator@U?$_Tree_node@U?$pair@$$CBV?$basic_string@DU?$char_traits@D@std@@V?$allocator@D@2@@std@@H@std@@PAX@std@@@1@PAU?$_Tree_node@U?$pair@$$CBV?$basic_string@DU?$char_traits@D@std@@V?$allocator@D@2@@std@@H@std@@PAX@1@ABUpiecewise_construct_t@1@$$QAV?$tuple@$$QAV?$basic_string@DU?$char_traits@D@std@@V?$allocator@D@2@@std@@@1@$$QAV?$tuple@$$V@1@@Z$0
__ehfuncinfo$??$?0ABUpiecewise_construct_t@std@@V?$tuple@$$QAV?$basic_string@DU?$char_traits@D@std@@V?$allocator@D@2@@std@@@1@V?$tuple@$$V@1@@?$_Tree_temp_node@V?$allocator@U?$_Tree_node@U?$pair@$$CBV?$basic_string@DU?$char_traits@D@std@@V?$allocator@D@2@@std@@H@std@@PAX@std@@@std@@@std@@QAE@AAV?$allocator@U?$_Tree_node@U?$pair@$$CBV?$basic_string@DU?$char_traits@D@std@@V?$allocator@D@2@@std@@H@std@@PAX@std@@@1@PAU?$_Tree_node@U?$pair@$$CBV?$basic_string@DU?$char_traits@D@std@@V?$allocator@D@2@@std@@H@std@@PAX@1@ABUpiecewise_construct_t@1@$$QAV?$tuple@$$QAV?$basic_string@DU?$char_traits@D@std@@V?$allocator@D@2@@std@@@1@$$QAV?$tuple@$$V@1@@Z DD 019930522H
	DD	02H
	DD	FLAT:__unwindtable$??$?0ABUpiecewise_construct_t@std@@V?$tuple@$$QAV?$basic_string@DU?$char_traits@D@std@@V?$allocator@D@2@@std@@@1@V?$tuple@$$V@1@@?$_Tree_temp_node@V?$allocator@U?$_Tree_node@U?$pair@$$CBV?$basic_string@DU?$char_traits@D@std@@V?$allocator@D@2@@std@@H@std@@PAX@std@@@std@@@std@@QAE@AAV?$allocator@U?$_Tree_node@U?$pair@$$CBV?$basic_string@DU?$char_traits@D@std@@V?$allocator@D@2@@std@@H@std@@PAX@std@@@1@PAU?$_Tree_node@U?$pair@$$CBV?$basic_string@DU?$char_traits@D@std@@V?$allocator@D@2@@std@@H@std@@PAX@1@ABUpiecewise_construct_t@1@$$QAV?$tuple@$$QAV?$basic_string@DU?$char_traits@D@std@@V?$allocator@D@2@@std@@@1@$$QAV?$tuple@$$V@1@@Z
	DD	2 DUP(00H)
	DD	2 DUP(00H)
	DD	00H
	DD	01H
xdata$x	ENDS
;	COMDAT xdata$x
xdata$x	SEGMENT
__unwindtable$??$?0ABUSTextLine@CPythonEventManager@@@?$_List_node_emplace_op2@V?$allocator@U?$_List_node@USTextLine@CPythonEventManager@@PAX@std@@@std@@@std@@QAE@AAV?$allocator@U?$_List_node@USTextLine@CPythonEventManager@@PAX@std@@@1@ABUSTextLine@CPythonEventManager@@@Z DD 0ffffffffH
	DD	FLAT:__unwindfunclet$??$?0ABUSTextLine@CPythonEventManager@@@?$_List_node_emplace_op2@V?$allocator@U?$_List_node@USTextLine@CPythonEventManager@@PAX@std@@@std@@@std@@QAE@AAV?$allocator@U?$_List_node@USTextLine@CPythonEventManager@@PAX@std@@@1@ABUSTextLine@CPythonEventManager@@@Z$0
__ehfuncinfo$??$?0ABUSTextLine@CPythonEventManager@@@?$_List_node_emplace_op2@V?$allocator@U?$_List_node@USTextLine@CPythonEventManager@@PAX@std@@@std@@@std@@QAE@AAV?$allocator@U?$_List_node@USTextLine@CPythonEventManager@@PAX@std@@@1@ABUSTextLine@CPythonEventManager@@@Z DD 019930522H
	DD	01H
	DD	FLAT:__unwindtable$??$?0ABUSTextLine@CPythonEventManager@@@?$_List_node_emplace_op2@V?$allocator@U?$_List_node@USTextLine@CPythonEventManager@@PAX@std@@@std@@@std@@QAE@AAV?$allocator@U?$_List_node@USTextLine@CPythonEventManager@@PAX@std@@@1@ABUSTextLine@CPythonEventManager@@@Z
	DD	2 DUP(00H)
	DD	2 DUP(00H)
	DD	00H
	DD	01H
xdata$x	ENDS
;	COMDAT xdata$x
xdata$x	SEGMENT
__catchsym$??$_Emplace_reallocate@ABQAUSEventSet@CPythonEventManager@@@?$vector@PAUSEventSet@CPythonEventManager@@V?$allocator@PAUSEventSet@CPythonEventManager@@@std@@@std@@QAEPAPAUSEventSet@CPythonEventManager@@QAPAU23@ABQAU23@@Z$32 DD 040H
	DD	00H
	DD	00H
	DD	FLAT:__catch$??$_Emplace_reallocate@ABQAUSEventSet@CPythonEventManager@@@?$vector@PAUSEventSet@CPythonEventManager@@V?$allocator@PAUSEventSet@CPythonEventManager@@@std@@@std@@QAEPAPAUSEventSet@CPythonEventManager@@QAPAU23@ABQAU23@@Z$0
__unwindtable$??$_Emplace_reallocate@ABQAUSEventSet@CPythonEventManager@@@?$vector@PAUSEventSet@CPythonEventManager@@V?$allocator@PAUSEventSet@CPythonEventManager@@@std@@@std@@QAEPAPAUSEventSet@CPythonEventManager@@QAPAU23@ABQAU23@@Z DD 0ffffffffH
	DD	00H
	DD	0ffffffffH
	DD	00H
__tryblocktable$??$_Emplace_reallocate@ABQAUSEventSet@CPythonEventManager@@@?$vector@PAUSEventSet@CPythonEventManager@@V?$allocator@PAUSEventSet@CPythonEventManager@@@std@@@std@@QAEPAPAUSEventSet@CPythonEventManager@@QAPAU23@ABQAU23@@Z DD 00H
	DD	00H
	DD	01H
	DD	01H
	DD	FLAT:__catchsym$??$_Emplace_reallocate@ABQAUSEventSet@CPythonEventManager@@@?$vector@PAUSEventSet@CPythonEventManager@@V?$allocator@PAUSEventSet@CPythonEventManager@@@std@@@std@@QAEPAPAUSEventSet@CPythonEventManager@@QAPAU23@ABQAU23@@Z$32
__ehfuncinfo$??$_Emplace_reallocate@ABQAUSEventSet@CPythonEventManager@@@?$vector@PAUSEventSet@CPythonEventManager@@V?$allocator@PAUSEventSet@CPythonEventManager@@@std@@@std@@QAEPAPAUSEventSet@CPythonEventManager@@QAPAU23@ABQAU23@@Z DD 019930522H
	DD	02H
	DD	FLAT:__unwindtable$??$_Emplace_reallocate@ABQAUSEventSet@CPythonEventManager@@@?$vector@PAUSEventSet@CPythonEventManager@@V?$allocator@PAUSEventSet@CPythonEventManager@@@std@@@std@@QAEPAPAUSEventSet@CPythonEventManager@@QAPAU23@ABQAU23@@Z
	DD	01H
	DD	FLAT:__tryblocktable$??$_Emplace_reallocate@ABQAUSEventSet@CPythonEventManager@@@?$vector@PAUSEventSet@CPythonEventManager@@V?$allocator@PAUSEventSet@CPythonEventManager@@@std@@@std@@QAEPAPAUSEventSet@CPythonEventManager@@QAPAU23@ABQAU23@@Z
	DD	2 DUP(00H)
	DD	00H
	DD	01H
xdata$x	ENDS
;	COMDAT xdata$x
xdata$x	SEGMENT
__catchsym$??$_Emplace_reallocate@ABQAVCGraphicTextInstance@@@?$vector@PAVCGraphicTextInstance@@V?$allocator@PAVCGraphicTextInstance@@@std@@@std@@QAEPAPAVCGraphicTextInstance@@QAPAV2@ABQAV2@@Z$32 DD 040H
	DD	00H
	DD	00H
	DD	FLAT:__catch$??$_Emplace_reallocate@ABQAVCGraphicTextInstance@@@?$vector@PAVCGraphicTextInstance@@V?$allocator@PAVCGraphicTextInstance@@@std@@@std@@QAEPAPAVCGraphicTextInstance@@QAPAV2@ABQAV2@@Z$0
__unwindtable$??$_Emplace_reallocate@ABQAVCGraphicTextInstance@@@?$vector@PAVCGraphicTextInstance@@V?$allocator@PAVCGraphicTextInstance@@@std@@@std@@QAEPAPAVCGraphicTextInstance@@QAPAV2@ABQAV2@@Z DD 0ffffffffH
	DD	00H
	DD	0ffffffffH
	DD	00H
__tryblocktable$??$_Emplace_reallocate@ABQAVCGraphicTextInstance@@@?$vector@PAVCGraphicTextInstance@@V?$allocator@PAVCGraphicTextInstance@@@std@@@std@@QAEPAPAVCGraphicTextInstance@@QAPAV2@ABQAV2@@Z DD 00H
	DD	00H
	DD	01H
	DD	01H
	DD	FLAT:__catchsym$??$_Emplace_reallocate@ABQAVCGraphicTextInstance@@@?$vector@PAVCGraphicTextInstance@@V?$allocator@PAVCGraphicTextInstance@@@std@@@std@@QAEPAPAVCGraphicTextInstance@@QAPAV2@ABQAV2@@Z$32
__ehfuncinfo$??$_Emplace_reallocate@ABQAVCGraphicTextInstance@@@?$vector@PAVCGraphicTextInstance@@V?$allocator@PAVCGraphicTextInstance@@@std@@@std@@QAEPAPAVCGraphicTextInstance@@QAPAV2@ABQAV2@@Z DD 019930522H
	DD	02H
	DD	FLAT:__unwindtable$??$_Emplace_reallocate@ABQAVCGraphicTextInstance@@@?$vector@PAVCGraphicTextInstance@@V?$allocator@PAVCGraphicTextInstance@@@std@@@std@@QAEPAPAVCGraphicTextInstance@@QAPAV2@ABQAV2@@Z
	DD	01H
	DD	FLAT:__tryblocktable$??$_Emplace_reallocate@ABQAVCGraphicTextInstance@@@?$vector@PAVCGraphicTextInstance@@V?$allocator@PAVCGraphicTextInstance@@@std@@@std@@QAEPAPAVCGraphicTextInstance@@QAPAV2@ABQAV2@@Z
	DD	2 DUP(00H)
	DD	00H
	DD	01H
xdata$x	ENDS
;	COMDAT xdata$x
xdata$x	SEGMENT
__catchsym$??$_Emplace_reallocate@PAUSEventSet@CPythonEventManager@@@?$vector@PAUSEventSet@CPythonEventManager@@V?$allocator@PAUSEventSet@CPythonEventManager@@@std@@@std@@QAEPAPAUSEventSet@CPythonEventManager@@QAPAU23@$$QAPAU23@@Z$32 DD 040H
	DD	00H
	DD	00H
	DD	FLAT:__catch$??$_Emplace_reallocate@PAUSEventSet@CPythonEventManager@@@?$vector@PAUSEventSet@CPythonEventManager@@V?$allocator@PAUSEventSet@CPythonEventManager@@@std@@@std@@QAEPAPAUSEventSet@CPythonEventManager@@QAPAU23@$$QAPAU23@@Z$0
__unwindtable$??$_Emplace_reallocate@PAUSEventSet@CPythonEventManager@@@?$vector@PAUSEventSet@CPythonEventManager@@V?$allocator@PAUSEventSet@CPythonEventManager@@@std@@@std@@QAEPAPAUSEventSet@CPythonEventManager@@QAPAU23@$$QAPAU23@@Z DD 0ffffffffH
	DD	00H
	DD	0ffffffffH
	DD	00H
__tryblocktable$??$_Emplace_reallocate@PAUSEventSet@CPythonEventManager@@@?$vector@PAUSEventSet@CPythonEventManager@@V?$allocator@PAUSEventSet@CPythonEventManager@@@std@@@std@@QAEPAPAUSEventSet@CPythonEventManager@@QAPAU23@$$QAPAU23@@Z DD 00H
	DD	00H
	DD	01H
	DD	01H
	DD	FLAT:__catchsym$??$_Emplace_reallocate@PAUSEventSet@CPythonEventManager@@@?$vector@PAUSEventSet@CPythonEventManager@@V?$allocator@PAUSEventSet@CPythonEventManager@@@std@@@std@@QAEPAPAUSEventSet@CPythonEventManager@@QAPAU23@$$QAPAU23@@Z$32
__ehfuncinfo$??$_Emplace_reallocate@PAUSEventSet@CPythonEventManager@@@?$vector@PAUSEventSet@CPythonEventManager@@V?$allocator@PAUSEventSet@CPythonEventManager@@@std@@@std@@QAEPAPAUSEventSet@CPythonEventManager@@QAPAU23@$$QAPAU23@@Z DD 019930522H
	DD	02H
	DD	FLAT:__unwindtable$??$_Emplace_reallocate@PAUSEventSet@CPythonEventManager@@@?$vector@PAUSEventSet@CPythonEventManager@@V?$allocator@PAUSEventSet@CPythonEventManager@@@std@@@std@@QAEPAPAUSEventSet@CPythonEventManager@@QAPAU23@$$QAPAU23@@Z
	DD	01H
	DD	FLAT:__tryblocktable$??$_Emplace_reallocate@PAUSEventSet@CPythonEventManager@@@?$vector@PAUSEventSet@CPythonEventManager@@V?$allocator@PAUSEventSet@CPythonEventManager@@@std@@@std@@QAEPAPAUSEventSet@CPythonEventManager@@QAPAU23@$$QAPAU23@@Z
	DD	2 DUP(00H)
	DD	00H
	DD	01H
xdata$x	ENDS
;	COMDAT xdata$x
xdata$x	SEGMENT
__unwindtable$?GetArgumentString@@YAABV?$basic_string@DU?$char_traits@D@std@@V?$allocator@D@2@@std@@PBDAAV?$list@USArgumet@script@@V?$allocator@USArgumet@script@@@std@@@2@@Z DD 0ffffffffH
	DD	FLAT:__unwindfunclet$?GetArgumentString@@YAABV?$basic_string@DU?$char_traits@D@std@@V?$allocator@D@2@@std@@PBDAAV?$list@USArgumet@script@@V?$allocator@USArgumet@script@@@std@@@2@@Z$0
__ehfuncinfo$?GetArgumentString@@YAABV?$basic_string@DU?$char_traits@D@std@@V?$allocator@D@2@@std@@PBDAAV?$list@USArgumet@script@@V?$allocator@USArgumet@script@@@std@@@2@@Z DD 019930522H
	DD	01H
	DD	FLAT:__unwindtable$?GetArgumentString@@YAABV?$basic_string@DU?$char_traits@D@std@@V?$allocator@D@2@@std@@PBDAAV?$list@USArgumet@script@@V?$allocator@USArgumet@script@@@std@@@2@@Z
	DD	2 DUP(00H)
	DD	2 DUP(00H)
	DD	00H
	DD	01H
xdata$x	ENDS
;	COMDAT xdata$x
xdata$x	SEGMENT
__unwindtable$?Alloc@?$CDynamicPool@VCGraphicTextInstance@@@@QAEPAVCGraphicTextInstance@@XZ DD 0ffffffffH
	DD	FLAT:__unwindfunclet$?Alloc@?$CDynamicPool@VCGraphicTextInstance@@@@QAEPAVCGraphicTextInstance@@XZ$0
__ehfuncinfo$?Alloc@?$CDynamicPool@VCGraphicTextInstance@@@@QAEPAVCGraphicTextInstance@@XZ DD 019930522H
	DD	01H
	DD	FLAT:__unwindtable$?Alloc@?$CDynamicPool@VCGraphicTextInstance@@@@QAEPAVCGraphicTextInstance@@XZ
	DD	2 DUP(00H)
	DD	2 DUP(00H)
	DD	00H
	DD	01H
xdata$x	ENDS
;	COMDAT xdata$x
xdata$x	SEGMENT
__unwindtable$?Alloc@?$CDynamicPool@USEventSet@CPythonEventManager@@@@QAEPAUSEventSet@CPythonEventManager@@XZ DD 0ffffffffH
	DD	FLAT:__unwindfunclet$?Alloc@?$CDynamicPool@USEventSet@CPythonEventManager@@@@QAEPAUSEventSet@CPythonEventManager@@XZ$0
__ehfuncinfo$?Alloc@?$CDynamicPool@USEventSet@CPythonEventManager@@@@QAEPAUSEventSet@CPythonEventManager@@XZ DD 019930522H
	DD	01H
	DD	FLAT:__unwindtable$?Alloc@?$CDynamicPool@USEventSet@CPythonEventManager@@@@QAEPAUSEventSet@CPythonEventManager@@XZ
	DD	2 DUP(00H)
	DD	2 DUP(00H)
	DD	00H
	DD	01H
xdata$x	ENDS
;	COMDAT xdata$x
xdata$x	SEGMENT
__unwindtable$?GetScriptEventIndex@CPythonEventManager@@IAE_NPBDPAH1@Z DD 0ffffffffH
	DD	FLAT:__unwindfunclet$?GetScriptEventIndex@CPythonEventManager@@IAE_NPBDPAH1@Z$0
__ehfuncinfo$?GetScriptEventIndex@CPythonEventManager@@IAE_NPBDPAH1@Z DD 019930522H
	DD	01H
	DD	FLAT:__unwindtable$?GetScriptEventIndex@CPythonEventManager@@IAE_NPBDPAH1@Z
	DD	2 DUP(00H)
	DD	2 DUP(00H)
	DD	00H
	DD	01H
xdata$x	ENDS
;	COMDAT xdata$x
xdata$x	SEGMENT
__unwindtable$?ProcessEventSet@CPythonEventManager@@IAEXPAUSEventSet@1@@Z DD 0ffffffffH
	DD	FLAT:__unwindfunclet$?ProcessEventSet@CPythonEventManager@@IAEXPAUSEventSet@1@@Z$0
__ehfuncinfo$?ProcessEventSet@CPythonEventManager@@IAEXPAUSEventSet@1@@Z DD 019930522H
	DD	01H
	DD	FLAT:__unwindtable$?ProcessEventSet@CPythonEventManager@@IAEXPAUSEventSet@1@@Z
	DD	2 DUP(00H)
	DD	2 DUP(00H)
	DD	00H
	DD	01H
xdata$x	ENDS
;	COMDAT xdata$x
xdata$x	SEGMENT
__unwindtable$?RegisterEventSetFromString@CPythonEventManager@@QAEHABV?$basic_string@DU?$char_traits@D@std@@V?$allocator@D@2@@std@@@Z DD 0ffffffffH
	DD	FLAT:__unwindfunclet$?RegisterEventSetFromString@CPythonEventManager@@QAEHABV?$basic_string@DU?$char_traits@D@std@@V?$allocator@D@2@@std@@@Z$0
	DD	00H
	DD	FLAT:__unwindfunclet$?RegisterEventSetFromString@CPythonEventManager@@QAEHABV?$basic_string@DU?$char_traits@D@std@@V?$allocator@D@2@@std@@@Z$1
__ehfuncinfo$?RegisterEventSetFromString@CPythonEventManager@@QAEHABV?$basic_string@DU?$char_traits@D@std@@V?$allocator@D@2@@std@@@Z DD 019930522H
	DD	02H
	DD	FLAT:__unwindtable$?RegisterEventSetFromString@CPythonEventManager@@QAEHABV?$basic_string@DU?$char_traits@D@std@@V?$allocator@D@2@@std@@@Z
	DD	2 DUP(00H)
	DD	2 DUP(00H)
	DD	00H
	DD	01H
xdata$x	ENDS
;	COMDAT xdata$x
xdata$x	SEGMENT
__unwindtable$?RegisterEventSet@CPythonEventManager@@QAEHPBD@Z DD 0ffffffffH
	DD	FLAT:__unwindfunclet$?RegisterEventSet@CPythonEventManager@@QAEHPBD@Z$0
	DD	00H
	DD	FLAT:__unwindfunclet$?RegisterEventSet@CPythonEventManager@@QAEHPBD@Z$1
__ehfuncinfo$?RegisterEventSet@CPythonEventManager@@QAEHPBD@Z DD 019930522H
	DD	02H
	DD	FLAT:__unwindtable$?RegisterEventSet@CPythonEventManager@@QAEHPBD@Z
	DD	2 DUP(00H)
	DD	2 DUP(00H)
	DD	00H
	DD	01H
xdata$x	ENDS
;	COMDAT xdata$x
xdata$x	SEGMENT
__ehfuncinfo$??0CPythonEventManager@@QAE@XZ DD 019930522H
	DD	030H
	DD	FLAT:__unwindtable$??0CPythonEventManager@@QAE@XZ
	DD	2 DUP(00H)
	DD	2 DUP(00H)
	DD	00H
	DD	01H
__unwindtable$??0CPythonEventManager@@QAE@XZ DD 0ffffffffH
	DD	FLAT:__unwindfunclet$??0CPythonEventManager@@QAE@XZ$0
	DD	00H
	DD	FLAT:__unwindfunclet$??0CPythonEventManager@@QAE@XZ$1
	DD	01H
	DD	FLAT:__unwindfunclet$??0CPythonEventManager@@QAE@XZ$2
	DD	02H
	DD	FLAT:__unwindfunclet$??0CPythonEventManager@@QAE@XZ$3
	DD	03H
	DD	FLAT:__unwindfunclet$??0CPythonEventManager@@QAE@XZ$4
	DD	04H
	DD	FLAT:__unwindfunclet$??0CPythonEventManager@@QAE@XZ$5
	DD	05H
	DD	FLAT:__unwindfunclet$??0CPythonEventManager@@QAE@XZ$6
	DD	05H
	DD	FLAT:__unwindfunclet$??0CPythonEventManager@@QAE@XZ$7
	DD	05H
	DD	FLAT:__unwindfunclet$??0CPythonEventManager@@QAE@XZ$8
	DD	05H
	DD	FLAT:__unwindfunclet$??0CPythonEventManager@@QAE@XZ$9
	DD	05H
	DD	FLAT:__unwindfunclet$??0CPythonEventManager@@QAE@XZ$10
	DD	05H
	DD	FLAT:__unwindfunclet$??0CPythonEventManager@@QAE@XZ$11
	DD	05H
	DD	FLAT:__unwindfunclet$??0CPythonEventManager@@QAE@XZ$12
	DD	05H
	DD	FLAT:__unwindfunclet$??0CPythonEventManager@@QAE@XZ$13
	DD	05H
	DD	FLAT:__unwindfunclet$??0CPythonEventManager@@QAE@XZ$14
	DD	05H
	DD	FLAT:__unwindfunclet$??0CPythonEventManager@@QAE@XZ$15
	DD	05H
	DD	FLAT:__unwindfunclet$??0CPythonEventManager@@QAE@XZ$16
	DD	05H
	DD	FLAT:__unwindfunclet$??0CPythonEventManager@@QAE@XZ$17
	DD	05H
	DD	FLAT:__unwindfunclet$??0CPythonEventManager@@QAE@XZ$18
	DD	05H
	DD	FLAT:__unwindfunclet$??0CPythonEventManager@@QAE@XZ$19
	DD	05H
	DD	FLAT:__unwindfunclet$??0CPythonEventManager@@QAE@XZ$20
	DD	05H
	DD	FLAT:__unwindfunclet$??0CPythonEventManager@@QAE@XZ$21
	DD	05H
	DD	FLAT:__unwindfunclet$??0CPythonEventManager@@QAE@XZ$22
	DD	05H
	DD	FLAT:__unwindfunclet$??0CPythonEventManager@@QAE@XZ$23
	DD	05H
	DD	FLAT:__unwindfunclet$??0CPythonEventManager@@QAE@XZ$24
	DD	05H
	DD	FLAT:__unwindfunclet$??0CPythonEventManager@@QAE@XZ$25
	DD	05H
	DD	FLAT:__unwindfunclet$??0CPythonEventManager@@QAE@XZ$26
	DD	05H
	DD	FLAT:__unwindfunclet$??0CPythonEventManager@@QAE@XZ$27
	DD	05H
	DD	FLAT:__unwindfunclet$??0CPythonEventManager@@QAE@XZ$28
	DD	05H
	DD	FLAT:__unwindfunclet$??0CPythonEventManager@@QAE@XZ$29
	DD	05H
	DD	FLAT:__unwindfunclet$??0CPythonEventManager@@QAE@XZ$30
	DD	05H
	DD	FLAT:__unwindfunclet$??0CPythonEventManager@@QAE@XZ$31
	DD	05H
	DD	FLAT:__unwindfunclet$??0CPythonEventManager@@QAE@XZ$32
	DD	05H
	DD	FLAT:__unwindfunclet$??0CPythonEventManager@@QAE@XZ$33
	DD	05H
	DD	FLAT:__unwindfunclet$??0CPythonEventManager@@QAE@XZ$34
	DD	05H
	DD	FLAT:__unwindfunclet$??0CPythonEventManager@@QAE@XZ$35
	DD	05H
	DD	FLAT:__unwindfunclet$??0CPythonEventManager@@QAE@XZ$36
	DD	05H
	DD	FLAT:__unwindfunclet$??0CPythonEventManager@@QAE@XZ$37
	DD	05H
	DD	FLAT:__unwindfunclet$??0CPythonEventManager@@QAE@XZ$38
	DD	05H
	DD	FLAT:__unwindfunclet$??0CPythonEventManager@@QAE@XZ$39
	DD	05H
	DD	FLAT:__unwindfunclet$??0CPythonEventManager@@QAE@XZ$40
	DD	05H
	DD	FLAT:__unwindfunclet$??0CPythonEventManager@@QAE@XZ$41
	DD	05H
	DD	FLAT:__unwindfunclet$??0CPythonEventManager@@QAE@XZ$42
	DD	05H
	DD	FLAT:__unwindfunclet$??0CPythonEventManager@@QAE@XZ$43
	DD	05H
	DD	FLAT:__unwindfunclet$??0CPythonEventManager@@QAE@XZ$44
	DD	05H
	DD	FLAT:__unwindfunclet$??0CPythonEventManager@@QAE@XZ$45
	DD	05H
	DD	FLAT:__unwindfunclet$??0CPythonEventManager@@QAE@XZ$46
	DD	05H
	DD	FLAT:__unwindfunclet$??0CPythonEventManager@@QAE@XZ$47
xdata$x	ENDS
;	COMDAT xdata$x
xdata$x	SEGMENT
__unwindtable$??0SEventSet@CPythonEventManager@@QAE@XZ DD 0ffffffffH
	DD	FLAT:__unwindfunclet$??0SEventSet@CPythonEventManager@@QAE@XZ$0
	DD	00H
	DD	FLAT:__unwindfunclet$??0SEventSet@CPythonEventManager@@QAE@XZ$1
__ehfuncinfo$??0SEventSet@CPythonEventManager@@QAE@XZ DD 019930522H
	DD	02H
	DD	FLAT:__unwindtable$??0SEventSet@CPythonEventManager@@QAE@XZ
	DD	2 DUP(00H)
	DD	2 DUP(00H)
	DD	00H
	DD	01H
xdata$x	ENDS
;	COMDAT xdata$x
xdata$x	SEGMENT
__unwindtable$??0SCmd@script@@QAE@XZ DD 0ffffffffH
	DD	FLAT:__unwindfunclet$??0SCmd@script@@QAE@XZ$0
__ehfuncinfo$??0SCmd@script@@QAE@XZ DD 019930522H
	DD	01H
	DD	FLAT:__unwindtable$??0SCmd@script@@QAE@XZ
	DD	2 DUP(00H)
	DD	2 DUP(00H)
	DD	00H
	DD	01H
xdata$x	ENDS
;	COMDAT xdata$x
xdata$x	SEGMENT
__ehfuncinfo$??$_Deallocate@$07$0A@@std@@YAXPAXI@Z DD 019930522H
	DD	00H
	DD	00H
	DD	2 DUP(00H)
	DD	2 DUP(00H)
	DD	00H
	DD	05H
xdata$x	ENDS
;	COMDAT xdata$x
xdata$x	SEGMENT
__unwindtable$??0?$basic_string@DU?$char_traits@D@std@@V?$allocator@D@2@@std@@QAE@QBD@Z DD 0ffffffffH
	DD	FLAT:__unwindfunclet$??0?$basic_string@DU?$char_traits@D@std@@V?$allocator@D@2@@std@@QAE@QBD@Z$0
__ehfuncinfo$??0?$basic_string@DU?$char_traits@D@std@@V?$allocator@D@2@@std@@QAE@QBD@Z DD 019930522H
	DD	01H
	DD	FLAT:__unwindtable$??0?$basic_string@DU?$char_traits@D@std@@V?$allocator@D@2@@std@@QAE@QBD@Z
	DD	2 DUP(00H)
	DD	2 DUP(00H)
	DD	00H
	DD	01H
xdata$x	ENDS
; Function compile flags: /Odspy
; File C:\Program Files (x86)\Microsoft Visual Studio\2019\Community\VC\Tools\MSVC\14.28.29333\include\tuple
; File C:\Program Files (x86)\Microsoft Visual Studio\2019\Community\VC\Tools\MSVC\14.28.29333\include\type_traits
; File C:\Program Files (x86)\Microsoft Visual Studio\2019\Community\VC\Tools\MSVC\14.28.29333\include\tuple
;	COMDAT ??$?0$$QAV?$basic_string@DU?$char_traits@D@std@@V?$allocator@D@2@@std@@$$Z$$V@?$pair@$$CBV?$basic_string@DU?$char_traits@D@std@@V?$allocator@D@2@@std@@H@std@@QAE@Upiecewise_construct_t@1@V?$tuple@$$QAV?$basic_string@DU?$char_traits@D@std@@V?$allocator@D@2@@std@@@1@V?$tuple@$$V@1@@Z
_TEXT	SEGMENT
$T1 = -24						; size = 4
$T2 = -20						; size = 4
_this$ = -16						; size = 4
___formal$ = -12					; size = 1
___formal$ = -8						; size = 1
$T3 = -2						; size = 1
$T4 = -1						; size = 1
___formal$ = 8						; size = 1
__Val1$ = 12						; size = 4
__Val2$ = 16						; size = 1
??$?0$$QAV?$basic_string@DU?$char_traits@D@std@@V?$allocator@D@2@@std@@$$Z$$V@?$pair@$$CBV?$basic_string@DU?$char_traits@D@std@@V?$allocator@D@2@@std@@H@std@@QAE@Upiecewise_construct_t@1@V?$tuple@$$QAV?$basic_string@DU?$char_traits@D@std@@V?$allocator@D@2@@std@@@1@V?$tuple@$$V@1@@Z PROC ; std::pair<std::basic_string<char,std::char_traits<char>,std::allocator<char> > const ,int>::pair<std::basic_string<char,std::char_traits<char>,std::allocator<char> > const ,int><std::basic_string<char,std::char_traits<char>,std::allocator<char> > &&>, COMDAT
; _this$ = ecx

; 986  :     : pair(_Val1, _Val2, index_sequence_for<_Types1...>{}, index_sequence_for<_Types2...>{}) {}

  00000	55		 push	 ebp
  00001	8b ec		 mov	 ebp, esp
  00003	83 ec 18	 sub	 esp, 24			; 00000018H
  00006	89 4d f0	 mov	 DWORD PTR _this$[ebp], ecx
  00009	33 c0		 xor	 eax, eax
  0000b	88 45 ff	 mov	 BYTE PTR $T4[ebp], al
  0000e	33 c0		 xor	 eax, eax
  00010	88 45 fe	 mov	 BYTE PTR $T3[ebp], al
  00013	8a 45 ff	 mov	 al, BYTE PTR $T4[ebp]
  00016	88 45 f8	 mov	 BYTE PTR ___formal$[ebp], al
  00019	8a 45 fe	 mov	 al, BYTE PTR $T3[ebp]
  0001c	88 45 f4	 mov	 BYTE PTR ___formal$[ebp], al
; File C:\Program Files (x86)\Microsoft Visual Studio\2019\Community\VC\Tools\MSVC\14.28.29333\include\type_traits

; 1455 :     return static_cast<remove_reference_t<_Ty>&&>(_Arg);

  0001f	8d 45 0c	 lea	 eax, DWORD PTR __Val1$[ebp]
  00022	89 45 ec	 mov	 DWORD PTR $T2[ebp], eax
; File C:\Program Files (x86)\Microsoft Visual Studio\2019\Community\VC\Tools\MSVC\14.28.29333\include\tuple

; 790  :     return static_cast<_Ty&&>(static_cast<_Ttype&>(_Tuple)._Myfirst._Val);

  00025	8b 45 ec	 mov	 eax, DWORD PTR $T2[ebp]
  00028	8b 00		 mov	 eax, DWORD PTR [eax]
  0002a	89 45 e8	 mov	 DWORD PTR $T1[ebp], eax

; 980  :     : first(_STD get<_Indexes1>(_STD move(_Val1))...), second(_STD get<_Indexes2>(_STD move(_Val2))...) {}

  0002d	ff 75 e8	 push	 DWORD PTR $T1[ebp]
  00030	8b 4d f0	 mov	 ecx, DWORD PTR _this$[ebp]
  00033	e8 00 00 00 00	 call	 ??0?$basic_string@DU?$char_traits@D@std@@V?$allocator@D@2@@std@@QAE@$$QAV01@@Z ; std::basic_string<char,std::char_traits<char>,std::allocator<char> >::basic_string<char,std::char_traits<char>,std::allocator<char> >
  00038	8b 45 f0	 mov	 eax, DWORD PTR _this$[ebp]
  0003b	83 60 18 00	 and	 DWORD PTR [eax+24], 0

; 986  :     : pair(_Val1, _Val2, index_sequence_for<_Types1...>{}, index_sequence_for<_Types2...>{}) {}

  0003f	8b 45 f0	 mov	 eax, DWORD PTR _this$[ebp]
  00042	c9		 leave
  00043	c2 0c 00	 ret	 12			; 0000000cH
??$?0$$QAV?$basic_string@DU?$char_traits@D@std@@V?$allocator@D@2@@std@@$$Z$$V@?$pair@$$CBV?$basic_string@DU?$char_traits@D@std@@V?$allocator@D@2@@std@@H@std@@QAE@Upiecewise_construct_t@1@V?$tuple@$$QAV?$basic_string@DU?$char_traits@D@std@@V?$allocator@D@2@@std@@@1@V?$tuple@$$V@1@@Z ENDP ; std::pair<std::basic_string<char,std::char_traits<char>,std::allocator<char> > const ,int>::pair<std::basic_string<char,std::char_traits<char>,std::allocator<char> > const ,int><std::basic_string<char,std::char_traits<char>,std::allocator<char> > &&>
_TEXT	ENDS
; Function compile flags: /Odspy
; File C:\Program Files (x86)\Microsoft Visual Studio\2019\Community\VC\Tools\MSVC\14.28.29333\include\xstring
;	COMDAT ??$?MDU?$char_traits@D@std@@V?$allocator@D@1@@std@@YA_NABV?$basic_string@DU?$char_traits@D@std@@V?$allocator@D@2@@0@0@Z
_TEXT	SEGMENT
tv68 = -4						; size = 4
__Left$ = 8						; size = 4
__Right$ = 12						; size = 4
??$?MDU?$char_traits@D@std@@V?$allocator@D@1@@std@@YA_NABV?$basic_string@DU?$char_traits@D@std@@V?$allocator@D@2@@0@0@Z PROC ; std::operator<<char,std::char_traits<char>,std::allocator<char> >, COMDAT

; 4586 :     const basic_string<_Elem, _Traits, _Alloc>& _Left, const basic_string<_Elem, _Traits, _Alloc>& _Right) noexcept {

  00000	55		 push	 ebp
  00001	8b ec		 mov	 ebp, esp
  00003	51		 push	 ecx

; 4587 :     return _Left.compare(_Right) < 0;

  00004	ff 75 0c	 push	 DWORD PTR __Right$[ebp]
  00007	8b 4d 08	 mov	 ecx, DWORD PTR __Left$[ebp]
  0000a	e8 00 00 00 00	 call	 ?compare@?$basic_string@DU?$char_traits@D@std@@V?$allocator@D@2@@std@@QBEHABV12@@Z ; std::basic_string<char,std::char_traits<char>,std::allocator<char> >::compare
  0000f	85 c0		 test	 eax, eax
  00011	7d 09		 jge	 SHORT $LN3@operator
  00013	c7 45 fc 01 00
	00 00		 mov	 DWORD PTR tv68[ebp], 1
  0001a	eb 04		 jmp	 SHORT $LN4@operator
$LN3@operator:
  0001c	83 65 fc 00	 and	 DWORD PTR tv68[ebp], 0
$LN4@operator:
  00020	8a 45 fc	 mov	 al, BYTE PTR tv68[ebp]

; 4588 : }

  00023	c9		 leave
  00024	c3		 ret	 0
??$?MDU?$char_traits@D@std@@V?$allocator@D@1@@std@@YA_NABV?$basic_string@DU?$char_traits@D@std@@V?$allocator@D@2@@0@0@Z ENDP ; std::operator<<char,std::char_traits<char>,std::allocator<char> >
_TEXT	ENDS
; Function compile flags: /Odspy
; File C:\Program Files (x86)\Microsoft Visual Studio\2019\Community\VC\Tools\MSVC\14.28.29333\include\xutility
;	COMDAT ??$_Copy_memmove@PAPAUSEventSet@CPythonEventManager@@PAPAU12@@std@@YAPAPAUSEventSet@CPythonEventManager@@PAPAU12@00@Z
_TEXT	SEGMENT
__Last_ch$ = -16					; size = 4
__Count$ = -12						; size = 4
__Dest_ch$ = -8						; size = 4
__First_ch$ = -4					; size = 4
__First$ = 8						; size = 4
__Last$ = 12						; size = 4
__Dest$ = 16						; size = 4
??$_Copy_memmove@PAPAUSEventSet@CPythonEventManager@@PAPAU12@@std@@YAPAPAUSEventSet@CPythonEventManager@@PAPAU12@00@Z PROC ; std::_Copy_memmove<CPythonEventManager::SEventSet * *,CPythonEventManager::SEventSet * *>, COMDAT

; 4360 : _OutIt _Copy_memmove(_InIt _First, _InIt _Last, _OutIt _Dest) {

  00000	55		 push	 ebp
  00001	8b ec		 mov	 ebp, esp
  00003	83 ec 10	 sub	 esp, 16			; 00000010H

; 4361 :     const char* const _First_ch = const_cast<const char*>(reinterpret_cast<const volatile char*>(_First));

  00006	8b 45 08	 mov	 eax, DWORD PTR __First$[ebp]
  00009	89 45 fc	 mov	 DWORD PTR __First_ch$[ebp], eax

; 4362 :     const char* const _Last_ch  = const_cast<const char*>(reinterpret_cast<const volatile char*>(_Last));

  0000c	8b 45 0c	 mov	 eax, DWORD PTR __Last$[ebp]
  0000f	89 45 f0	 mov	 DWORD PTR __Last_ch$[ebp], eax

; 4363 :     char* const _Dest_ch        = const_cast<char*>(reinterpret_cast<volatile char*>(_Dest));

  00012	8b 45 10	 mov	 eax, DWORD PTR __Dest$[ebp]
  00015	89 45 f8	 mov	 DWORD PTR __Dest_ch$[ebp], eax

; 4364 :     const auto _Count           = static_cast<size_t>(_Last_ch - _First_ch);

  00018	8b 45 f0	 mov	 eax, DWORD PTR __Last_ch$[ebp]
  0001b	2b 45 fc	 sub	 eax, DWORD PTR __First_ch$[ebp]
  0001e	89 45 f4	 mov	 DWORD PTR __Count$[ebp], eax

; 4365 :     _CSTD memmove(_Dest_ch, _First_ch, _Count);

  00021	ff 75 f4	 push	 DWORD PTR __Count$[ebp]
  00024	ff 75 fc	 push	 DWORD PTR __First_ch$[ebp]
  00027	ff 75 f8	 push	 DWORD PTR __Dest_ch$[ebp]
  0002a	e8 00 00 00 00	 call	 _memmove
  0002f	83 c4 0c	 add	 esp, 12			; 0000000cH

; 4366 :     return reinterpret_cast<_OutIt>(_Dest_ch + _Count);

  00032	8b 45 f8	 mov	 eax, DWORD PTR __Dest_ch$[ebp]
  00035	03 45 f4	 add	 eax, DWORD PTR __Count$[ebp]

; 4367 : }

  00038	c9		 leave
  00039	c3		 ret	 0
??$_Copy_memmove@PAPAUSEventSet@CPythonEventManager@@PAPAU12@@std@@YAPAPAUSEventSet@CPythonEventManager@@PAPAU12@00@Z ENDP ; std::_Copy_memmove<CPythonEventManager::SEventSet * *,CPythonEventManager::SEventSet * *>
_TEXT	ENDS
; Function compile flags: /Odspy
; File C:\Program Files (x86)\Microsoft Visual Studio\2019\Community\VC\Tools\MSVC\14.28.29333\include\xutility
;	COMDAT ??$_Copy_memmove@PAPAVCGraphicTextInstance@@PAPAV1@@std@@YAPAPAVCGraphicTextInstance@@PAPAV1@00@Z
_TEXT	SEGMENT
__Last_ch$ = -16					; size = 4
__Count$ = -12						; size = 4
__Dest_ch$ = -8						; size = 4
__First_ch$ = -4					; size = 4
__First$ = 8						; size = 4
__Last$ = 12						; size = 4
__Dest$ = 16						; size = 4
??$_Copy_memmove@PAPAVCGraphicTextInstance@@PAPAV1@@std@@YAPAPAVCGraphicTextInstance@@PAPAV1@00@Z PROC ; std::_Copy_memmove<CGraphicTextInstance * *,CGraphicTextInstance * *>, COMDAT

; 4360 : _OutIt _Copy_memmove(_InIt _First, _InIt _Last, _OutIt _Dest) {

  00000	55		 push	 ebp
  00001	8b ec		 mov	 ebp, esp
  00003	83 ec 10	 sub	 esp, 16			; 00000010H

; 4361 :     const char* const _First_ch = const_cast<const char*>(reinterpret_cast<const volatile char*>(_First));

  00006	8b 45 08	 mov	 eax, DWORD PTR __First$[ebp]
  00009	89 45 fc	 mov	 DWORD PTR __First_ch$[ebp], eax

; 4362 :     const char* const _Last_ch  = const_cast<const char*>(reinterpret_cast<const volatile char*>(_Last));

  0000c	8b 45 0c	 mov	 eax, DWORD PTR __Last$[ebp]
  0000f	89 45 f0	 mov	 DWORD PTR __Last_ch$[ebp], eax

; 4363 :     char* const _Dest_ch        = const_cast<char*>(reinterpret_cast<volatile char*>(_Dest));

  00012	8b 45 10	 mov	 eax, DWORD PTR __Dest$[ebp]
  00015	89 45 f8	 mov	 DWORD PTR __Dest_ch$[ebp], eax

; 4364 :     const auto _Count           = static_cast<size_t>(_Last_ch - _First_ch);

  00018	8b 45 f0	 mov	 eax, DWORD PTR __Last_ch$[ebp]
  0001b	2b 45 fc	 sub	 eax, DWORD PTR __First_ch$[ebp]
  0001e	89 45 f4	 mov	 DWORD PTR __Count$[ebp], eax

; 4365 :     _CSTD memmove(_Dest_ch, _First_ch, _Count);

  00021	ff 75 f4	 push	 DWORD PTR __Count$[ebp]
  00024	ff 75 fc	 push	 DWORD PTR __First_ch$[ebp]
  00027	ff 75 f8	 push	 DWORD PTR __Dest_ch$[ebp]
  0002a	e8 00 00 00 00	 call	 _memmove
  0002f	83 c4 0c	 add	 esp, 12			; 0000000cH

; 4366 :     return reinterpret_cast<_OutIt>(_Dest_ch + _Count);

  00032	8b 45 f8	 mov	 eax, DWORD PTR __Dest_ch$[ebp]
  00035	03 45 f4	 add	 eax, DWORD PTR __Count$[ebp]

; 4367 : }

  00038	c9		 leave
  00039	c3		 ret	 0
??$_Copy_memmove@PAPAVCGraphicTextInstance@@PAPAV1@@std@@YAPAPAVCGraphicTextInstance@@PAPAV1@00@Z ENDP ; std::_Copy_memmove<CGraphicTextInstance * *,CGraphicTextInstance * *>
_TEXT	ENDS
; Function compile flags: /Odspy
; File C:\Program Files (x86)\Microsoft Visual Studio\2019\Community\VC\Tools\MSVC\14.28.29333\include\xtree
; File C:\Program Files (x86)\Microsoft Visual Studio\2019\Community\VC\Tools\MSVC\14.28.29333\include\xstddef
; File C:\Program Files (x86)\Microsoft Visual Studio\2019\Community\VC\Tools\MSVC\14.28.29333\include\xstring
; File C:\Program Files (x86)\Microsoft Visual Studio\2019\Community\VC\Tools\MSVC\14.28.29333\include\xtree
;	COMDAT ??$_Freenode@V?$allocator@U?$_Tree_node@U?$pair@$$CBV?$basic_string@DU?$char_traits@D@std@@V?$allocator@D@2@@std@@H@std@@PAX@std@@@std@@@?$_Tree_node@U?$pair@$$CBV?$basic_string@DU?$char_traits@D@std@@V?$allocator@D@2@@std@@H@std@@PAX@std@@SAXAAV?$allocator@U?$_Tree_node@U?$pair@$$CBV?$basic_string@DU?$char_traits@D@std@@V?$allocator@D@2@@std@@H@std@@PAX@std@@@1@PAU01@@Z
_TEXT	SEGMENT
$T1 = -4						; size = 4
__Al$ = 8						; size = 4
__Ptr$ = 12						; size = 4
??$_Freenode@V?$allocator@U?$_Tree_node@U?$pair@$$CBV?$basic_string@DU?$char_traits@D@std@@V?$allocator@D@2@@std@@H@std@@PAX@std@@@std@@@?$_Tree_node@U?$pair@$$CBV?$basic_string@DU?$char_traits@D@std@@V?$allocator@D@2@@std@@H@std@@PAX@std@@SAXAAV?$allocator@U?$_Tree_node@U?$pair@$$CBV?$basic_string@DU?$char_traits@D@std@@V?$allocator@D@2@@std@@H@std@@PAX@std@@@1@PAU01@@Z PROC ; std::_Tree_node<std::pair<std::basic_string<char,std::char_traits<char>,std::allocator<char> > const ,int>,void *>::_Freenode<std::allocator<std::_Tree_node<std::pair<std::basic_string<char,std::char_traits<char>,std::allocator<char> > const ,int>,void *> > >, COMDAT

; 377  :     static void _Freenode(_Alloc& _Al, _Nodeptr _Ptr) noexcept {

  00000	55		 push	 ebp
  00001	8b ec		 mov	 ebp, esp
  00003	51		 push	 ecx

; 378  :         static_assert(is_same_v<typename _Alloc::value_type, _Tree_node>, "Bad _Freenode call");
; 379  :         allocator_traits<_Alloc>::destroy(_Al, _STD addressof(_Ptr->_Myval));

  00004	8b 45 0c	 mov	 eax, DWORD PTR __Ptr$[ebp]
  00007	83 c0 10	 add	 eax, 16			; 00000010H
; File C:\Program Files (x86)\Microsoft Visual Studio\2019\Community\VC\Tools\MSVC\14.28.29333\include\xstddef

; 275  :     return __builtin_addressof(_Val);

  0000a	89 45 fc	 mov	 DWORD PTR $T1[ebp], eax
; File C:\Program Files (x86)\Microsoft Visual Studio\2019\Community\VC\Tools\MSVC\14.28.29333\include\xstring

; 2801 :         _Tidy_deallocate();

  0000d	8b 4d fc	 mov	 ecx, DWORD PTR $T1[ebp]
  00010	e8 00 00 00 00	 call	 ?_Tidy_deallocate@?$basic_string@DU?$char_traits@D@std@@V?$allocator@D@2@@std@@AAEXXZ ; std::basic_string<char,std::char_traits<char>,std::allocator<char> >::_Tidy_deallocate
  00015	33 c0		 xor	 eax, eax
  00017	83 e0 01	 and	 eax, 1
  0001a	74 0c		 je	 SHORT $LN6@Freenode
  0001c	6a 1c		 push	 28			; 0000001cH
  0001e	ff 75 fc	 push	 DWORD PTR $T1[ebp]
  00021	e8 00 00 00 00	 call	 ??3@YAXPAXI@Z		; operator delete
  00026	59		 pop	 ecx
  00027	59		 pop	 ecx
$LN6@Freenode:
; File C:\Program Files (x86)\Microsoft Visual Studio\2019\Community\VC\Tools\MSVC\14.28.29333\include\xtree

; 380  :         _Freenode0(_Al, _Ptr);

  00028	ff 75 0c	 push	 DWORD PTR __Ptr$[ebp]
  0002b	ff 75 08	 push	 DWORD PTR __Al$[ebp]
  0002e	e8 00 00 00 00	 call	 ??$_Freenode0@V?$allocator@U?$_Tree_node@U?$pair@$$CBV?$basic_string@DU?$char_traits@D@std@@V?$allocator@D@2@@std@@H@std@@PAX@std@@@std@@@?$_Tree_node@U?$pair@$$CBV?$basic_string@DU?$char_traits@D@std@@V?$allocator@D@2@@std@@H@std@@PAX@std@@SAXAAV?$allocator@U?$_Tree_node@U?$pair@$$CBV?$basic_string@DU?$char_traits@D@std@@V?$allocator@D@2@@std@@H@std@@PAX@std@@@1@PAU01@@Z ; std::_Tree_node<std::pair<std::basic_string<char,std::char_traits<char>,std::allocator<char> > const ,int>,void *>::_Freenode0<std::allocator<std::_Tree_node<std::pair<std::basic_string<char,std::char_traits<char>,std::allocator<char> > const ,int>,void *> > >
  00033	59		 pop	 ecx
  00034	59		 pop	 ecx

; 381  :     }

  00035	c9		 leave
  00036	c3		 ret	 0
??$_Freenode@V?$allocator@U?$_Tree_node@U?$pair@$$CBV?$basic_string@DU?$char_traits@D@std@@V?$allocator@D@2@@std@@H@std@@PAX@std@@@std@@@?$_Tree_node@U?$pair@$$CBV?$basic_string@DU?$char_traits@D@std@@V?$allocator@D@2@@std@@H@std@@PAX@std@@SAXAAV?$allocator@U?$_Tree_node@U?$pair@$$CBV?$basic_string@DU?$char_traits@D@std@@V?$allocator@D@2@@std@@H@std@@PAX@std@@@1@PAU01@@Z ENDP ; std::_Tree_node<std::pair<std::basic_string<char,std::char_traits<char>,std::allocator<char> > const ,int>,void *>::_Freenode<std::allocator<std::_Tree_node<std::pair<std::basic_string<char,std::char_traits<char>,std::allocator<char> > const ,int>,void *> > >
_TEXT	ENDS
; Function compile flags: /Odspy
; File C:\Program Files (x86)\Microsoft Visual Studio\2019\Community\VC\Tools\MSVC\14.28.29333\include\xmemory
; File C:\Program Files (x86)\Microsoft Visual Studio\2019\Community\VC\Tools\MSVC\14.28.29333\include\xstddef
; File C:\Program Files (x86)\Microsoft Visual Studio\2019\Community\VC\Tools\MSVC\14.28.29333\include\vcruntime_new.h
; File C:\Program Files (x86)\Microsoft Visual Studio\2019\Community\VC\Tools\MSVC\14.28.29333\include\type_traits
; File C:\Program Files (x86)\Microsoft Visual Studio\2019\Community\VC\Tools\MSVC\14.28.29333\include\xmemory
;	COMDAT ??$_Construct_in_place@PAU?$_Tree_node@U?$pair@$$CBV?$basic_string@DU?$char_traits@D@std@@V?$allocator@D@2@@std@@H@std@@PAX@std@@AAPAU12@@std@@YAXAAPAU?$_Tree_node@U?$pair@$$CBV?$basic_string@DU?$char_traits@D@std@@V?$allocator@D@2@@std@@H@std@@PAX@0@0@Z
_TEXT	SEGMENT
$T1 = -12						; size = 4
$T2 = -8						; size = 4
$T3 = -4						; size = 4
__Obj$ = 8						; size = 4
_<_Args_0>$ = 12					; size = 4
??$_Construct_in_place@PAU?$_Tree_node@U?$pair@$$CBV?$basic_string@DU?$char_traits@D@std@@V?$allocator@D@2@@std@@H@std@@PAX@std@@AAPAU12@@std@@YAXAAPAU?$_Tree_node@U?$pair@$$CBV?$basic_string@DU?$char_traits@D@std@@V?$allocator@D@2@@std@@H@std@@PAX@0@0@Z PROC ; std::_Construct_in_place<std::_Tree_node<std::pair<std::basic_string<char,std::char_traits<char>,std::allocator<char> > const ,int>,void *> *,std::_Tree_node<std::pair<std::basic_string<char,std::char_traits<char>,std::allocator<char> > const ,int>,void *> * &>, COMDAT

; 228  : void _Construct_in_place(_Ty& _Obj, _Types&&... _Args) noexcept(is_nothrow_constructible_v<_Ty, _Types...>) {

  00000	55		 push	 ebp
  00001	8b ec		 mov	 ebp, esp
  00003	83 ec 0c	 sub	 esp, 12			; 0000000cH
; File C:\Program Files (x86)\Microsoft Visual Studio\2019\Community\VC\Tools\MSVC\14.28.29333\include\xstddef

; 275  :     return __builtin_addressof(_Val);

  00006	8b 45 08	 mov	 eax, DWORD PTR __Obj$[ebp]
  00009	89 45 fc	 mov	 DWORD PTR $T3[ebp], eax
; File C:\Program Files (x86)\Microsoft Visual Studio\2019\Community\VC\Tools\MSVC\14.28.29333\include\vcruntime_new.h

; 169  :         return _Where;

  0000c	8b 45 fc	 mov	 eax, DWORD PTR $T3[ebp]
  0000f	89 45 f8	 mov	 DWORD PTR $T2[ebp], eax
; File C:\Program Files (x86)\Microsoft Visual Studio\2019\Community\VC\Tools\MSVC\14.28.29333\include\type_traits

; 1443 :     return static_cast<_Ty&&>(_Arg);

  00012	8b 45 0c	 mov	 eax, DWORD PTR _<_Args_0>$[ebp]
  00015	89 45 f4	 mov	 DWORD PTR $T1[ebp], eax
; File C:\Program Files (x86)\Microsoft Visual Studio\2019\Community\VC\Tools\MSVC\14.28.29333\include\xmemory

; 229  :     ::new (const_cast<void*>(static_cast<const volatile void*>(_STD addressof(_Obj))))

  00018	8b 45 f8	 mov	 eax, DWORD PTR $T2[ebp]
  0001b	8b 4d f4	 mov	 ecx, DWORD PTR $T1[ebp]
  0001e	8b 09		 mov	 ecx, DWORD PTR [ecx]
  00020	89 08		 mov	 DWORD PTR [eax], ecx

; 230  :         _Ty(_STD forward<_Types>(_Args)...);
; 231  : }

  00022	c9		 leave
  00023	c3		 ret	 0
??$_Construct_in_place@PAU?$_Tree_node@U?$pair@$$CBV?$basic_string@DU?$char_traits@D@std@@V?$allocator@D@2@@std@@H@std@@PAX@std@@AAPAU12@@std@@YAXAAPAU?$_Tree_node@U?$pair@$$CBV?$basic_string@DU?$char_traits@D@std@@V?$allocator@D@2@@std@@H@std@@PAX@0@0@Z ENDP ; std::_Construct_in_place<std::_Tree_node<std::pair<std::basic_string<char,std::char_traits<char>,std::allocator<char> > const ,int>,void *> *,std::_Tree_node<std::pair<std::basic_string<char,std::char_traits<char>,std::allocator<char> > const ,int>,void *> * &>
_TEXT	ENDS
; Function compile flags: /Odspy
; File C:\Program Files (x86)\Microsoft Visual Studio\2019\Community\VC\Tools\MSVC\14.28.29333\include\xmemory
; File C:\Program Files (x86)\Microsoft Visual Studio\2019\Community\VC\Tools\MSVC\14.28.29333\include\vcruntime_new.h
; File C:\Program Files (x86)\Microsoft Visual Studio\2019\Community\VC\Tools\MSVC\14.28.29333\include\type_traits
; File C:\Program Files (x86)\Microsoft Visual Studio\2019\Community\VC\Tools\MSVC\14.28.29333\include\xmemory
; File C:\Program Files (x86)\Microsoft Visual Studio\2019\Community\VC\Tools\MSVC\14.28.29333\include\type_traits
; File C:\Program Files (x86)\Microsoft Visual Studio\2019\Community\VC\Tools\MSVC\14.28.29333\include\xmemory
; File D:\Metin2 Server Files\mainline\SRC_2014\Metin2Client\UserInterface\PythonEventManager.cpp
; File C:\Program Files (x86)\Microsoft Visual Studio\2019\Community\VC\Tools\MSVC\14.28.29333\include\type_traits
; File C:\Program Files (x86)\Microsoft Visual Studio\2019\Community\VC\Tools\MSVC\14.28.29333\include\xmemory
;	COMDAT ??$construct@U?$pair@$$CBV?$basic_string@DU?$char_traits@D@std@@V?$allocator@D@2@@std@@H@std@@ABUpiecewise_construct_t@2@V?$tuple@$$QAV?$basic_string@DU?$char_traits@D@std@@V?$allocator@D@2@@std@@@2@V?$tuple@$$V@2@@?$_Default_allocator_traits@V?$allocator@U?$_Tree_node@U?$pair@$$CBV?$basic_string@DU?$char_traits@D@std@@V?$allocator@D@2@@std@@H@std@@PAX@std@@@std@@@std@@SAXAAV?$allocator@U?$_Tree_node@U?$pair@$$CBV?$basic_string@DU?$char_traits@D@std@@V?$allocator@D@2@@std@@H@std@@PAX@std@@@1@QAU?$pair@$$CBV?$basic_string@DU?$char_traits@D@std@@V?$allocator@D@2@@std@@H@1@ABUpiecewise_construct_t@1@$$QAV?$tuple@$$QAV?$basic_string@DU?$char_traits@D@std@@V?$allocator@D@2@@std@@@1@$$QAV?$tuple@$$V@1@@Z
_TEXT	SEGMENT
_this$ = -24						; size = 4
$T1 = -20						; size = 4
$T2 = -16						; size = 4
$T3 = -12						; size = 4
_this$ = -8						; size = 4
$T4 = -4						; size = 4
___formal$ = 8						; size = 4
__Ptr$ = 12						; size = 4
_<_Args_0>$ = 16					; size = 4
_<_Args_1>$ = 20					; size = 4
_<_Args_2>$ = 24					; size = 4
??$construct@U?$pair@$$CBV?$basic_string@DU?$char_traits@D@std@@V?$allocator@D@2@@std@@H@std@@ABUpiecewise_construct_t@2@V?$tuple@$$QAV?$basic_string@DU?$char_traits@D@std@@V?$allocator@D@2@@std@@@2@V?$tuple@$$V@2@@?$_Default_allocator_traits@V?$allocator@U?$_Tree_node@U?$pair@$$CBV?$basic_string@DU?$char_traits@D@std@@V?$allocator@D@2@@std@@H@std@@PAX@std@@@std@@@std@@SAXAAV?$allocator@U?$_Tree_node@U?$pair@$$CBV?$basic_string@DU?$char_traits@D@std@@V?$allocator@D@2@@std@@H@std@@PAX@std@@@1@QAU?$pair@$$CBV?$basic_string@DU?$char_traits@D@std@@V?$allocator@D@2@@std@@H@1@ABUpiecewise_construct_t@1@$$QAV?$tuple@$$QAV?$basic_string@DU?$char_traits@D@std@@V?$allocator@D@2@@std@@@1@$$QAV?$tuple@$$V@1@@Z PROC ; std::_Default_allocator_traits<std::allocator<std::_Tree_node<std::pair<std::basic_string<char,std::char_traits<char>,std::allocator<char> > const ,int>,void *> > >::construct<std::pair<std::basic_string<char,std::char_traits<char>,std::allocator<char> > const ,int>,std::piecewise_construct_t const &,std::tuple<std::basic_string<char,std::char_traits<char>,std::allocator<char> > &&>,std::tuple<> >, COMDAT

; 700  :     static void construct(_Alloc&, _Objty* const _Ptr, _Types&&... _Args) {

  00000	55		 push	 ebp
  00001	8b ec		 mov	 ebp, esp
  00003	83 ec 18	 sub	 esp, 24			; 00000018H
; File C:\Program Files (x86)\Microsoft Visual Studio\2019\Community\VC\Tools\MSVC\14.28.29333\include\vcruntime_new.h

; 169  :         return _Where;

  00006	8b 45 0c	 mov	 eax, DWORD PTR __Ptr$[ebp]
  00009	89 45 f0	 mov	 DWORD PTR $T2[ebp], eax
; File C:\Program Files (x86)\Microsoft Visual Studio\2019\Community\VC\Tools\MSVC\14.28.29333\include\type_traits

; 1443 :     return static_cast<_Ty&&>(_Arg);

  0000c	8b 45 18	 mov	 eax, DWORD PTR _<_Args_2>$[ebp]
  0000f	89 45 ec	 mov	 DWORD PTR $T1[ebp], eax
; File C:\Program Files (x86)\Microsoft Visual Studio\2019\Community\VC\Tools\MSVC\14.28.29333\include\xmemory

; 701  :         ::new (const_cast<void*>(static_cast<const volatile void*>(_Ptr))) _Objty(_STD forward<_Types>(_Args)...);

  00012	51		 push	 ecx
  00013	89 65 e8	 mov	 DWORD PTR _this$[ebp], esp
; File C:\Program Files (x86)\Microsoft Visual Studio\2019\Community\VC\Tools\MSVC\14.28.29333\include\type_traits

; 1443 :     return static_cast<_Ty&&>(_Arg);

  00016	8b 45 14	 mov	 eax, DWORD PTR _<_Args_1>$[ebp]
  00019	89 45 fc	 mov	 DWORD PTR $T4[ebp], eax
; File C:\Program Files (x86)\Microsoft Visual Studio\2019\Community\VC\Tools\MSVC\14.28.29333\include\xmemory

; 701  :         ::new (const_cast<void*>(static_cast<const volatile void*>(_Ptr))) _Objty(_STD forward<_Types>(_Args)...);

  0001c	51		 push	 ecx
  0001d	89 65 f8	 mov	 DWORD PTR _this$[ebp], esp
; File D:\Metin2 Server Files\mainline\SRC_2014\Metin2Client\UserInterface\PythonEventManager.cpp

  00020	8b 45 fc	 mov	 eax, DWORD PTR $T4[ebp]
  00023	8b 00		 mov	 eax, DWORD PTR [eax]
  00025	8b 4d f8	 mov	 ecx, DWORD PTR _this$[ebp]
  00028	89 01		 mov	 DWORD PTR [ecx], eax
; File C:\Program Files (x86)\Microsoft Visual Studio\2019\Community\VC\Tools\MSVC\14.28.29333\include\type_traits

; 1443 :     return static_cast<_Ty&&>(_Arg);

  0002a	8b 45 10	 mov	 eax, DWORD PTR _<_Args_0>$[ebp]
  0002d	89 45 f4	 mov	 DWORD PTR $T3[ebp], eax
; File C:\Program Files (x86)\Microsoft Visual Studio\2019\Community\VC\Tools\MSVC\14.28.29333\include\xmemory

; 701  :         ::new (const_cast<void*>(static_cast<const volatile void*>(_Ptr))) _Objty(_STD forward<_Types>(_Args)...);

  00030	8b 45 f4	 mov	 eax, DWORD PTR $T3[ebp]
  00033	0f b6 00	 movzx	 eax, BYTE PTR [eax]
  00036	50		 push	 eax
  00037	8b 4d f0	 mov	 ecx, DWORD PTR $T2[ebp]
  0003a	e8 00 00 00 00	 call	 ??$?0$$QAV?$basic_string@DU?$char_traits@D@std@@V?$allocator@D@2@@std@@$$Z$$V@?$pair@$$CBV?$basic_string@DU?$char_traits@D@std@@V?$allocator@D@2@@std@@H@std@@QAE@Upiecewise_construct_t@1@V?$tuple@$$QAV?$basic_string@DU?$char_traits@D@std@@V?$allocator@D@2@@std@@@1@V?$tuple@$$V@1@@Z ; std::pair<std::basic_string<char,std::char_traits<char>,std::allocator<char> > const ,int>::pair<std::basic_string<char,std::char_traits<char>,std::allocator<char> > const ,int><std::basic_string<char,std::char_traits<char>,std::allocator<char> > &&>

; 702  :     }

  0003f	c9		 leave
  00040	c3		 ret	 0
??$construct@U?$pair@$$CBV?$basic_string@DU?$char_traits@D@std@@V?$allocator@D@2@@std@@H@std@@ABUpiecewise_construct_t@2@V?$tuple@$$QAV?$basic_string@DU?$char_traits@D@std@@V?$allocator@D@2@@std@@@2@V?$tuple@$$V@2@@?$_Default_allocator_traits@V?$allocator@U?$_Tree_node@U?$pair@$$CBV?$basic_string@DU?$char_traits@D@std@@V?$allocator@D@2@@std@@H@std@@PAX@std@@@std@@@std@@SAXAAV?$allocator@U?$_Tree_node@U?$pair@$$CBV?$basic_string@DU?$char_traits@D@std@@V?$allocator@D@2@@std@@H@std@@PAX@std@@@1@QAU?$pair@$$CBV?$basic_string@DU?$char_traits@D@std@@V?$allocator@D@2@@std@@H@1@ABUpiecewise_construct_t@1@$$QAV?$tuple@$$QAV?$basic_string@DU?$char_traits@D@std@@V?$allocator@D@2@@std@@@1@$$QAV?$tuple@$$V@1@@Z ENDP ; std::_Default_allocator_traits<std::allocator<std::_Tree_node<std::pair<std::basic_string<char,std::char_traits<char>,std::allocator<char> > const ,int>,void *> > >::construct<std::pair<std::basic_string<char,std::char_traits<char>,std::allocator<char> > const ,int>,std::piecewise_construct_t const &,std::tuple<std::basic_string<char,std::char_traits<char>,std::allocator<char> > &&>,std::tuple<> >
_TEXT	ENDS
; Function compile flags: /Odspy
; File C:\Program Files (x86)\Microsoft Visual Studio\2019\Community\VC\Tools\MSVC\14.28.29333\include\xmemory
; File C:\Program Files (x86)\Microsoft Visual Studio\2019\Community\VC\Tools\MSVC\14.28.29333\include\xstddef
; File C:\Program Files (x86)\Microsoft Visual Studio\2019\Community\VC\Tools\MSVC\14.28.29333\include\xmemory
;	COMDAT ??$_Uninitialized_move@PAPAUSEventSet@CPythonEventManager@@V?$allocator@PAUSEventSet@CPythonEventManager@@@std@@@std@@YAPAPAUSEventSet@CPythonEventManager@@QAPAU12@0PAPAU12@AAV?$allocator@PAUSEventSet@CPythonEventManager@@@0@@Z
_TEXT	SEGMENT
$T1 = -12						; size = 4
__UFirst$ = -8						; size = 4
__ULast$ = -4						; size = 4
__First$ = 8						; size = 4
__Last$ = 12						; size = 4
__Dest$ = 16						; size = 4
__Al$ = 20						; size = 4
??$_Uninitialized_move@PAPAUSEventSet@CPythonEventManager@@V?$allocator@PAUSEventSet@CPythonEventManager@@@std@@@std@@YAPAPAUSEventSet@CPythonEventManager@@QAPAU12@0PAPAU12@AAV?$allocator@PAUSEventSet@CPythonEventManager@@@0@@Z PROC ; std::_Uninitialized_move<CPythonEventManager::SEventSet * *,std::allocator<CPythonEventManager::SEventSet *> >, COMDAT

; 1685 :     const _InIt _First, const _InIt _Last, _Alloc_ptr_t<_Alloc> _Dest, _Alloc& _Al) {

  00000	55		 push	 ebp
  00001	8b ec		 mov	 ebp, esp
  00003	83 ec 0c	 sub	 esp, 12			; 0000000cH

; 1686 :     // move [_First, _Last) to raw _Dest, using _Al
; 1687 :     // note: only called internally from elsewhere in the STL
; 1688 :     using _Ptrval     = typename _Alloc::value_type*;
; 1689 :     auto _UFirst      = _Get_unwrapped(_First);

  00006	8b 45 08	 mov	 eax, DWORD PTR __First$[ebp]
  00009	89 45 f8	 mov	 DWORD PTR __UFirst$[ebp], eax

; 1690 :     const auto _ULast = _Get_unwrapped(_Last);

  0000c	8b 45 0c	 mov	 eax, DWORD PTR __Last$[ebp]
  0000f	89 45 fc	 mov	 DWORD PTR __ULast$[ebp], eax
; File C:\Program Files (x86)\Microsoft Visual Studio\2019\Community\VC\Tools\MSVC\14.28.29333\include\xstddef

; 289  :     return _Ptr;

  00012	8b 45 10	 mov	 eax, DWORD PTR __Dest$[ebp]
  00015	89 45 f4	 mov	 DWORD PTR $T1[ebp], eax
; File C:\Program Files (x86)\Microsoft Visual Studio\2019\Community\VC\Tools\MSVC\14.28.29333\include\xmemory

; 1693 :         _Copy_memmove(_UFirst, _ULast, _Unfancy(_Dest));

  00018	ff 75 f4	 push	 DWORD PTR $T1[ebp]
  0001b	ff 75 fc	 push	 DWORD PTR __ULast$[ebp]
  0001e	ff 75 f8	 push	 DWORD PTR __UFirst$[ebp]
  00021	e8 00 00 00 00	 call	 ??$_Copy_memmove@PAPAUSEventSet@CPythonEventManager@@PAPAU12@@std@@YAPAPAUSEventSet@CPythonEventManager@@PAPAU12@00@Z ; std::_Copy_memmove<CPythonEventManager::SEventSet * *,CPythonEventManager::SEventSet * *>
  00026	83 c4 0c	 add	 esp, 12			; 0000000cH

; 1694 :         return _Dest + (_ULast - _UFirst);

  00029	8b 45 fc	 mov	 eax, DWORD PTR __ULast$[ebp]
  0002c	2b 45 f8	 sub	 eax, DWORD PTR __UFirst$[ebp]
  0002f	c1 f8 02	 sar	 eax, 2
  00032	8b 4d 10	 mov	 ecx, DWORD PTR __Dest$[ebp]
  00035	8d 04 81	 lea	 eax, DWORD PTR [ecx+eax*4]

; 1695 :     } else {
; 1696 :         _Uninitialized_backout_al<_Alloc> _Backout{_Dest, _Al};
; 1697 :         for (; _UFirst != _ULast; ++_UFirst) {
; 1698 :             _Backout._Emplace_back(_STD move(*_UFirst));
; 1699 :         }
; 1700 : 
; 1701 :         return _Backout._Release();
; 1702 :     }
; 1703 : }

  00038	c9		 leave
  00039	c3		 ret	 0
??$_Uninitialized_move@PAPAUSEventSet@CPythonEventManager@@V?$allocator@PAUSEventSet@CPythonEventManager@@@std@@@std@@YAPAPAUSEventSet@CPythonEventManager@@QAPAU12@0PAPAU12@AAV?$allocator@PAUSEventSet@CPythonEventManager@@@0@@Z ENDP ; std::_Uninitialized_move<CPythonEventManager::SEventSet * *,std::allocator<CPythonEventManager::SEventSet *> >
_TEXT	ENDS
; Function compile flags: /Odspy
; File C:\Program Files (x86)\Microsoft Visual Studio\2019\Community\VC\Tools\MSVC\14.28.29333\include\xmemory
; File C:\Program Files (x86)\Microsoft Visual Studio\2019\Community\VC\Tools\MSVC\14.28.29333\include\xstddef
; File C:\Program Files (x86)\Microsoft Visual Studio\2019\Community\VC\Tools\MSVC\14.28.29333\include\xmemory
;	COMDAT ??$_Uninitialized_move@PAPAVCGraphicTextInstance@@V?$allocator@PAVCGraphicTextInstance@@@std@@@std@@YAPAPAVCGraphicTextInstance@@QAPAV1@0PAPAV1@AAV?$allocator@PAVCGraphicTextInstance@@@0@@Z
_TEXT	SEGMENT
$T1 = -12						; size = 4
__UFirst$ = -8						; size = 4
__ULast$ = -4						; size = 4
__First$ = 8						; size = 4
__Last$ = 12						; size = 4
__Dest$ = 16						; size = 4
__Al$ = 20						; size = 4
??$_Uninitialized_move@PAPAVCGraphicTextInstance@@V?$allocator@PAVCGraphicTextInstance@@@std@@@std@@YAPAPAVCGraphicTextInstance@@QAPAV1@0PAPAV1@AAV?$allocator@PAVCGraphicTextInstance@@@0@@Z PROC ; std::_Uninitialized_move<CGraphicTextInstance * *,std::allocator<CGraphicTextInstance *> >, COMDAT

; 1685 :     const _InIt _First, const _InIt _Last, _Alloc_ptr_t<_Alloc> _Dest, _Alloc& _Al) {

  00000	55		 push	 ebp
  00001	8b ec		 mov	 ebp, esp
  00003	83 ec 0c	 sub	 esp, 12			; 0000000cH

; 1686 :     // move [_First, _Last) to raw _Dest, using _Al
; 1687 :     // note: only called internally from elsewhere in the STL
; 1688 :     using _Ptrval     = typename _Alloc::value_type*;
; 1689 :     auto _UFirst      = _Get_unwrapped(_First);

  00006	8b 45 08	 mov	 eax, DWORD PTR __First$[ebp]
  00009	89 45 f8	 mov	 DWORD PTR __UFirst$[ebp], eax

; 1690 :     const auto _ULast = _Get_unwrapped(_Last);

  0000c	8b 45 0c	 mov	 eax, DWORD PTR __Last$[ebp]
  0000f	89 45 fc	 mov	 DWORD PTR __ULast$[ebp], eax
; File C:\Program Files (x86)\Microsoft Visual Studio\2019\Community\VC\Tools\MSVC\14.28.29333\include\xstddef

; 289  :     return _Ptr;

  00012	8b 45 10	 mov	 eax, DWORD PTR __Dest$[ebp]
  00015	89 45 f4	 mov	 DWORD PTR $T1[ebp], eax
; File C:\Program Files (x86)\Microsoft Visual Studio\2019\Community\VC\Tools\MSVC\14.28.29333\include\xmemory

; 1693 :         _Copy_memmove(_UFirst, _ULast, _Unfancy(_Dest));

  00018	ff 75 f4	 push	 DWORD PTR $T1[ebp]
  0001b	ff 75 fc	 push	 DWORD PTR __ULast$[ebp]
  0001e	ff 75 f8	 push	 DWORD PTR __UFirst$[ebp]
  00021	e8 00 00 00 00	 call	 ??$_Copy_memmove@PAPAVCGraphicTextInstance@@PAPAV1@@std@@YAPAPAVCGraphicTextInstance@@PAPAV1@00@Z ; std::_Copy_memmove<CGraphicTextInstance * *,CGraphicTextInstance * *>
  00026	83 c4 0c	 add	 esp, 12			; 0000000cH

; 1694 :         return _Dest + (_ULast - _UFirst);

  00029	8b 45 fc	 mov	 eax, DWORD PTR __ULast$[ebp]
  0002c	2b 45 f8	 sub	 eax, DWORD PTR __UFirst$[ebp]
  0002f	c1 f8 02	 sar	 eax, 2
  00032	8b 4d 10	 mov	 ecx, DWORD PTR __Dest$[ebp]
  00035	8d 04 81	 lea	 eax, DWORD PTR [ecx+eax*4]

; 1695 :     } else {
; 1696 :         _Uninitialized_backout_al<_Alloc> _Backout{_Dest, _Al};
; 1697 :         for (; _UFirst != _ULast; ++_UFirst) {
; 1698 :             _Backout._Emplace_back(_STD move(*_UFirst));
; 1699 :         }
; 1700 : 
; 1701 :         return _Backout._Release();
; 1702 :     }
; 1703 : }

  00038	c9		 leave
  00039	c3		 ret	 0
??$_Uninitialized_move@PAPAVCGraphicTextInstance@@V?$allocator@PAVCGraphicTextInstance@@@std@@@std@@YAPAPAVCGraphicTextInstance@@QAPAV1@0PAPAV1@AAV?$allocator@PAVCGraphicTextInstance@@@0@@Z ENDP ; std::_Uninitialized_move<CGraphicTextInstance * *,std::allocator<CGraphicTextInstance *> >
_TEXT	ENDS
; Function compile flags: /Odspy
; File C:\Program Files (x86)\Microsoft Visual Studio\2019\Community\VC\Tools\MSVC\14.28.29333\include\xmemory
; File C:\Program Files (x86)\Microsoft Visual Studio\2019\Community\VC\Tools\MSVC\14.28.29333\include\xstddef
; File C:\Program Files (x86)\Microsoft Visual Studio\2019\Community\VC\Tools\MSVC\14.28.29333\include\vcruntime_new.h
; File C:\Program Files (x86)\Microsoft Visual Studio\2019\Community\VC\Tools\MSVC\14.28.29333\include\type_traits
; File C:\Program Files (x86)\Microsoft Visual Studio\2019\Community\VC\Tools\MSVC\14.28.29333\include\xmemory
;	COMDAT ??$_Construct_in_place@PAU?$_List_node@USTextLine@CPythonEventManager@@PAX@std@@ABQAU12@@std@@YAXAAPAU?$_List_node@USTextLine@CPythonEventManager@@PAX@0@ABQAU10@@Z
_TEXT	SEGMENT
$T1 = -12						; size = 4
$T2 = -8						; size = 4
$T3 = -4						; size = 4
__Obj$ = 8						; size = 4
_<_Args_0>$ = 12					; size = 4
??$_Construct_in_place@PAU?$_List_node@USTextLine@CPythonEventManager@@PAX@std@@ABQAU12@@std@@YAXAAPAU?$_List_node@USTextLine@CPythonEventManager@@PAX@0@ABQAU10@@Z PROC ; std::_Construct_in_place<std::_List_node<CPythonEventManager::STextLine,void *> *,std::_List_node<CPythonEventManager::STextLine,void *> * const &>, COMDAT

; 228  : void _Construct_in_place(_Ty& _Obj, _Types&&... _Args) noexcept(is_nothrow_constructible_v<_Ty, _Types...>) {

  00000	55		 push	 ebp
  00001	8b ec		 mov	 ebp, esp
  00003	83 ec 0c	 sub	 esp, 12			; 0000000cH
; File C:\Program Files (x86)\Microsoft Visual Studio\2019\Community\VC\Tools\MSVC\14.28.29333\include\xstddef

; 275  :     return __builtin_addressof(_Val);

  00006	8b 45 08	 mov	 eax, DWORD PTR __Obj$[ebp]
  00009	89 45 fc	 mov	 DWORD PTR $T3[ebp], eax
; File C:\Program Files (x86)\Microsoft Visual Studio\2019\Community\VC\Tools\MSVC\14.28.29333\include\vcruntime_new.h

; 169  :         return _Where;

  0000c	8b 45 fc	 mov	 eax, DWORD PTR $T3[ebp]
  0000f	89 45 f8	 mov	 DWORD PTR $T2[ebp], eax
; File C:\Program Files (x86)\Microsoft Visual Studio\2019\Community\VC\Tools\MSVC\14.28.29333\include\type_traits

; 1443 :     return static_cast<_Ty&&>(_Arg);

  00012	8b 45 0c	 mov	 eax, DWORD PTR _<_Args_0>$[ebp]
  00015	89 45 f4	 mov	 DWORD PTR $T1[ebp], eax
; File C:\Program Files (x86)\Microsoft Visual Studio\2019\Community\VC\Tools\MSVC\14.28.29333\include\xmemory

; 229  :     ::new (const_cast<void*>(static_cast<const volatile void*>(_STD addressof(_Obj))))

  00018	8b 45 f8	 mov	 eax, DWORD PTR $T2[ebp]
  0001b	8b 4d f4	 mov	 ecx, DWORD PTR $T1[ebp]
  0001e	8b 09		 mov	 ecx, DWORD PTR [ecx]
  00020	89 08		 mov	 DWORD PTR [eax], ecx

; 230  :         _Ty(_STD forward<_Types>(_Args)...);
; 231  : }

  00022	c9		 leave
  00023	c3		 ret	 0
??$_Construct_in_place@PAU?$_List_node@USTextLine@CPythonEventManager@@PAX@std@@ABQAU12@@std@@YAXAAPAU?$_List_node@USTextLine@CPythonEventManager@@PAX@0@ABQAU10@@Z ENDP ; std::_Construct_in_place<std::_List_node<CPythonEventManager::STextLine,void *> *,std::_List_node<CPythonEventManager::STextLine,void *> * const &>
_TEXT	ENDS
; Function compile flags: /Odspy
; File C:\Program Files (x86)\Microsoft Visual Studio\2019\Community\VC\Tools\MSVC\14.28.29333\include\xmemory
;	COMDAT ??$_Destroy_in_place@PAU?$_Tree_node@U?$pair@$$CBV?$basic_string@DU?$char_traits@D@std@@V?$allocator@D@2@@std@@H@std@@PAX@std@@@std@@YAXAAPAU?$_Tree_node@U?$pair@$$CBV?$basic_string@DU?$char_traits@D@std@@V?$allocator@D@2@@std@@H@std@@PAX@0@@Z
_TEXT	SEGMENT
__Obj$ = 8						; size = 4
??$_Destroy_in_place@PAU?$_Tree_node@U?$pair@$$CBV?$basic_string@DU?$char_traits@D@std@@V?$allocator@D@2@@std@@H@std@@PAX@std@@@std@@YAXAAPAU?$_Tree_node@U?$pair@$$CBV?$basic_string@DU?$char_traits@D@std@@V?$allocator@D@2@@std@@H@std@@PAX@0@@Z PROC ; std::_Destroy_in_place<std::_Tree_node<std::pair<std::basic_string<char,std::char_traits<char>,std::allocator<char> > const ,int>,void *> *>, COMDAT

; 270  : /* _CONSTEXPR20_DYNALLOC */ void _Destroy_in_place(_Ty& _Obj) noexcept {

  00000	55		 push	 ebp
  00001	8b ec		 mov	 ebp, esp

; 271  : #if _HAS_IF_CONSTEXPR
; 272  :     if constexpr (is_array_v<_Ty>) {
; 273  :         _Destroy_range(_Obj, _Obj + extent_v<_Ty>);
; 274  :     } else
; 275  : #endif // _HAS_IF_CONSTEXPR
; 276  :     {
; 277  :         _Obj.~_Ty();
; 278  :     }
; 279  : }

  00003	5d		 pop	 ebp
  00004	c3		 ret	 0
??$_Destroy_in_place@PAU?$_Tree_node@U?$pair@$$CBV?$basic_string@DU?$char_traits@D@std@@V?$allocator@D@2@@std@@H@std@@PAX@std@@@std@@YAXAAPAU?$_Tree_node@U?$pair@$$CBV?$basic_string@DU?$char_traits@D@std@@V?$allocator@D@2@@std@@H@std@@PAX@0@@Z ENDP ; std::_Destroy_in_place<std::_Tree_node<std::pair<std::basic_string<char,std::char_traits<char>,std::allocator<char> > const ,int>,void *> *>
_TEXT	ENDS
; Function compile flags: /Odspy
; File C:\Program Files (x86)\Microsoft Visual Studio\2019\Community\VC\Tools\MSVC\14.28.29333\include\xmemory
; File C:\Program Files (x86)\Microsoft Visual Studio\2019\Community\VC\Tools\MSVC\14.28.29333\include\xstddef
; File C:\Program Files (x86)\Microsoft Visual Studio\2019\Community\VC\Tools\MSVC\14.28.29333\include\vcruntime_new.h
; File C:\Program Files (x86)\Microsoft Visual Studio\2019\Community\VC\Tools\MSVC\14.28.29333\include\type_traits
; File C:\Program Files (x86)\Microsoft Visual Studio\2019\Community\VC\Tools\MSVC\14.28.29333\include\xmemory
;	COMDAT ??$_Construct_in_place@PAU?$_Tree_node@U?$pair@$$CBV?$basic_string@DU?$char_traits@D@std@@V?$allocator@D@2@@std@@H@std@@PAX@std@@ABQAU12@@std@@YAXAAPAU?$_Tree_node@U?$pair@$$CBV?$basic_string@DU?$char_traits@D@std@@V?$allocator@D@2@@std@@H@std@@PAX@0@ABQAU10@@Z
_TEXT	SEGMENT
$T1 = -12						; size = 4
$T2 = -8						; size = 4
$T3 = -4						; size = 4
__Obj$ = 8						; size = 4
_<_Args_0>$ = 12					; size = 4
??$_Construct_in_place@PAU?$_Tree_node@U?$pair@$$CBV?$basic_string@DU?$char_traits@D@std@@V?$allocator@D@2@@std@@H@std@@PAX@std@@ABQAU12@@std@@YAXAAPAU?$_Tree_node@U?$pair@$$CBV?$basic_string@DU?$char_traits@D@std@@V?$allocator@D@2@@std@@H@std@@PAX@0@ABQAU10@@Z PROC ; std::_Construct_in_place<std::_Tree_node<std::pair<std::basic_string<char,std::char_traits<char>,std::allocator<char> > const ,int>,void *> *,std::_Tree_node<std::pair<std::basic_string<char,std::char_traits<char>,std::allocator<char> > const ,int>,void *> * const &>, COMDAT

; 228  : void _Construct_in_place(_Ty& _Obj, _Types&&... _Args) noexcept(is_nothrow_constructible_v<_Ty, _Types...>) {

  00000	55		 push	 ebp
  00001	8b ec		 mov	 ebp, esp
  00003	83 ec 0c	 sub	 esp, 12			; 0000000cH
; File C:\Program Files (x86)\Microsoft Visual Studio\2019\Community\VC\Tools\MSVC\14.28.29333\include\xstddef

; 275  :     return __builtin_addressof(_Val);

  00006	8b 45 08	 mov	 eax, DWORD PTR __Obj$[ebp]
  00009	89 45 fc	 mov	 DWORD PTR $T3[ebp], eax
; File C:\Program Files (x86)\Microsoft Visual Studio\2019\Community\VC\Tools\MSVC\14.28.29333\include\vcruntime_new.h

; 169  :         return _Where;

  0000c	8b 45 fc	 mov	 eax, DWORD PTR $T3[ebp]
  0000f	89 45 f8	 mov	 DWORD PTR $T2[ebp], eax
; File C:\Program Files (x86)\Microsoft Visual Studio\2019\Community\VC\Tools\MSVC\14.28.29333\include\type_traits

; 1443 :     return static_cast<_Ty&&>(_Arg);

  00012	8b 45 0c	 mov	 eax, DWORD PTR _<_Args_0>$[ebp]
  00015	89 45 f4	 mov	 DWORD PTR $T1[ebp], eax
; File C:\Program Files (x86)\Microsoft Visual Studio\2019\Community\VC\Tools\MSVC\14.28.29333\include\xmemory

; 229  :     ::new (const_cast<void*>(static_cast<const volatile void*>(_STD addressof(_Obj))))

  00018	8b 45 f8	 mov	 eax, DWORD PTR $T2[ebp]
  0001b	8b 4d f4	 mov	 ecx, DWORD PTR $T1[ebp]
  0001e	8b 09		 mov	 ecx, DWORD PTR [ecx]
  00020	89 08		 mov	 DWORD PTR [eax], ecx

; 230  :         _Ty(_STD forward<_Types>(_Args)...);
; 231  : }

  00022	c9		 leave
  00023	c3		 ret	 0
??$_Construct_in_place@PAU?$_Tree_node@U?$pair@$$CBV?$basic_string@DU?$char_traits@D@std@@V?$allocator@D@2@@std@@H@std@@PAX@std@@ABQAU12@@std@@YAXAAPAU?$_Tree_node@U?$pair@$$CBV?$basic_string@DU?$char_traits@D@std@@V?$allocator@D@2@@std@@H@std@@PAX@0@ABQAU10@@Z ENDP ; std::_Construct_in_place<std::_Tree_node<std::pair<std::basic_string<char,std::char_traits<char>,std::allocator<char> > const ,int>,void *> *,std::_Tree_node<std::pair<std::basic_string<char,std::char_traits<char>,std::allocator<char> > const ,int>,void *> * const &>
_TEXT	ENDS
; Function compile flags: /Odspy
; File C:\Program Files (x86)\Microsoft Visual Studio\2019\Community\VC\Tools\MSVC\14.28.29333\include\xmemory
;	COMDAT ??$_Destroy_in_place@PAU?$_List_node@USArgumet@script@@PAX@std@@@std@@YAXAAPAU?$_List_node@USArgumet@script@@PAX@0@@Z
_TEXT	SEGMENT
__Obj$ = 8						; size = 4
??$_Destroy_in_place@PAU?$_List_node@USArgumet@script@@PAX@std@@@std@@YAXAAPAU?$_List_node@USArgumet@script@@PAX@0@@Z PROC ; std::_Destroy_in_place<std::_List_node<script::SArgumet,void *> *>, COMDAT

; 270  : /* _CONSTEXPR20_DYNALLOC */ void _Destroy_in_place(_Ty& _Obj) noexcept {

  00000	55		 push	 ebp
  00001	8b ec		 mov	 ebp, esp

; 271  : #if _HAS_IF_CONSTEXPR
; 272  :     if constexpr (is_array_v<_Ty>) {
; 273  :         _Destroy_range(_Obj, _Obj + extent_v<_Ty>);
; 274  :     } else
; 275  : #endif // _HAS_IF_CONSTEXPR
; 276  :     {
; 277  :         _Obj.~_Ty();
; 278  :     }
; 279  : }

  00003	5d		 pop	 ebp
  00004	c3		 ret	 0
??$_Destroy_in_place@PAU?$_List_node@USArgumet@script@@PAX@std@@@std@@YAXAAPAU?$_List_node@USArgumet@script@@PAX@0@@Z ENDP ; std::_Destroy_in_place<std::_List_node<script::SArgumet,void *> *>
_TEXT	ENDS
; Function compile flags: /Odspy
; File C:\Program Files (x86)\Microsoft Visual Studio\2019\Community\VC\Tools\MSVC\14.28.29333\include\xmemory
;	COMDAT ??$_Destroy_in_place@PAU?$_List_node@USTextLine@CPythonEventManager@@PAX@std@@@std@@YAXAAPAU?$_List_node@USTextLine@CPythonEventManager@@PAX@0@@Z
_TEXT	SEGMENT
__Obj$ = 8						; size = 4
??$_Destroy_in_place@PAU?$_List_node@USTextLine@CPythonEventManager@@PAX@std@@@std@@YAXAAPAU?$_List_node@USTextLine@CPythonEventManager@@PAX@0@@Z PROC ; std::_Destroy_in_place<std::_List_node<CPythonEventManager::STextLine,void *> *>, COMDAT

; 270  : /* _CONSTEXPR20_DYNALLOC */ void _Destroy_in_place(_Ty& _Obj) noexcept {

  00000	55		 push	 ebp
  00001	8b ec		 mov	 ebp, esp

; 271  : #if _HAS_IF_CONSTEXPR
; 272  :     if constexpr (is_array_v<_Ty>) {
; 273  :         _Destroy_range(_Obj, _Obj + extent_v<_Ty>);
; 274  :     } else
; 275  : #endif // _HAS_IF_CONSTEXPR
; 276  :     {
; 277  :         _Obj.~_Ty();
; 278  :     }
; 279  : }

  00003	5d		 pop	 ebp
  00004	c3		 ret	 0
??$_Destroy_in_place@PAU?$_List_node@USTextLine@CPythonEventManager@@PAX@std@@@std@@YAXAAPAU?$_List_node@USTextLine@CPythonEventManager@@PAX@0@@Z ENDP ; std::_Destroy_in_place<std::_List_node<CPythonEventManager::STextLine,void *> *>
_TEXT	ENDS
; Function compile flags: /Odspy
; File C:\Program Files (x86)\Microsoft Visual Studio\2019\Community\VC\Tools\MSVC\14.28.29333\include\xtree
; File C:\Program Files (x86)\Microsoft Visual Studio\2019\Community\VC\Tools\MSVC\14.28.29333\include\xmemory
; File C:\Program Files (x86)\Microsoft Visual Studio\2019\Community\VC\Tools\MSVC\14.28.29333\include\xtree
;	COMDAT ??$_Freenode0@V?$allocator@U?$_Tree_node@U?$pair@$$CBV?$basic_string@DU?$char_traits@D@std@@V?$allocator@D@2@@std@@H@std@@PAX@std@@@std@@@?$_Tree_node@U?$pair@$$CBV?$basic_string@DU?$char_traits@D@std@@V?$allocator@D@2@@std@@H@std@@PAX@std@@SAXAAV?$allocator@U?$_Tree_node@U?$pair@$$CBV?$basic_string@DU?$char_traits@D@std@@V?$allocator@D@2@@std@@H@std@@PAX@std@@@1@PAU01@@Z
_TEXT	SEGMENT
__Al$ = 8						; size = 4
__Ptr$ = 12						; size = 4
??$_Freenode0@V?$allocator@U?$_Tree_node@U?$pair@$$CBV?$basic_string@DU?$char_traits@D@std@@V?$allocator@D@2@@std@@H@std@@PAX@std@@@std@@@?$_Tree_node@U?$pair@$$CBV?$basic_string@DU?$char_traits@D@std@@V?$allocator@D@2@@std@@H@std@@PAX@std@@SAXAAV?$allocator@U?$_Tree_node@U?$pair@$$CBV?$basic_string@DU?$char_traits@D@std@@V?$allocator@D@2@@std@@H@std@@PAX@std@@@1@PAU01@@Z PROC ; std::_Tree_node<std::pair<std::basic_string<char,std::char_traits<char>,std::allocator<char> > const ,int>,void *>::_Freenode0<std::allocator<std::_Tree_node<std::pair<std::basic_string<char,std::char_traits<char>,std::allocator<char> > const ,int>,void *> > >, COMDAT

; 368  :     static void _Freenode0(_Alloc& _Al, _Nodeptr _Ptr) noexcept {

  00000	55		 push	 ebp
  00001	8b ec		 mov	 ebp, esp

; 369  :         static_assert(is_same_v<typename _Alloc::value_type, _Tree_node>, "Bad _Freenode0 call");
; 370  :         _Destroy_in_place(_Ptr->_Left);

  00003	ff 75 0c	 push	 DWORD PTR __Ptr$[ebp]
  00006	e8 00 00 00 00	 call	 ??$_Destroy_in_place@PAU?$_Tree_node@U?$pair@$$CBV?$basic_string@DU?$char_traits@D@std@@V?$allocator@D@2@@std@@H@std@@PAX@std@@@std@@YAXAAPAU?$_Tree_node@U?$pair@$$CBV?$basic_string@DU?$char_traits@D@std@@V?$allocator@D@2@@std@@H@std@@PAX@0@@Z ; std::_Destroy_in_place<std::_Tree_node<std::pair<std::basic_string<char,std::char_traits<char>,std::allocator<char> > const ,int>,void *> *>
  0000b	59		 pop	 ecx

; 371  :         _Destroy_in_place(_Ptr->_Parent);

  0000c	8b 45 0c	 mov	 eax, DWORD PTR __Ptr$[ebp]
  0000f	83 c0 04	 add	 eax, 4
  00012	50		 push	 eax
  00013	e8 00 00 00 00	 call	 ??$_Destroy_in_place@PAU?$_Tree_node@U?$pair@$$CBV?$basic_string@DU?$char_traits@D@std@@V?$allocator@D@2@@std@@H@std@@PAX@std@@@std@@YAXAAPAU?$_Tree_node@U?$pair@$$CBV?$basic_string@DU?$char_traits@D@std@@V?$allocator@D@2@@std@@H@std@@PAX@0@@Z ; std::_Destroy_in_place<std::_Tree_node<std::pair<std::basic_string<char,std::char_traits<char>,std::allocator<char> > const ,int>,void *> *>
  00018	59		 pop	 ecx

; 372  :         _Destroy_in_place(_Ptr->_Right);

  00019	8b 45 0c	 mov	 eax, DWORD PTR __Ptr$[ebp]
  0001c	83 c0 08	 add	 eax, 8
  0001f	50		 push	 eax
  00020	e8 00 00 00 00	 call	 ??$_Destroy_in_place@PAU?$_Tree_node@U?$pair@$$CBV?$basic_string@DU?$char_traits@D@std@@V?$allocator@D@2@@std@@H@std@@PAX@std@@@std@@YAXAAPAU?$_Tree_node@U?$pair@$$CBV?$basic_string@DU?$char_traits@D@std@@V?$allocator@D@2@@std@@H@std@@PAX@0@@Z ; std::_Destroy_in_place<std::_Tree_node<std::pair<std::basic_string<char,std::char_traits<char>,std::allocator<char> > const ,int>,void *> *>
  00025	59		 pop	 ecx
; File C:\Program Files (x86)\Microsoft Visual Studio\2019\Community\VC\Tools\MSVC\14.28.29333\include\xmemory

; 696  :         _Deallocate<_New_alignof<value_type>>(_Ptr, sizeof(value_type) * _Count);

  00026	33 c0		 xor	 eax, eax
  00028	40		 inc	 eax
  00029	6b c0 2c	 imul	 eax, eax, 44
  0002c	50		 push	 eax
  0002d	ff 75 0c	 push	 DWORD PTR __Ptr$[ebp]
  00030	e8 00 00 00 00	 call	 ??$_Deallocate@$07$0A@@std@@YAXPAXI@Z ; std::_Deallocate<8,0>
  00035	59		 pop	 ecx
  00036	59		 pop	 ecx
; File C:\Program Files (x86)\Microsoft Visual Studio\2019\Community\VC\Tools\MSVC\14.28.29333\include\xtree

; 374  :     }

  00037	5d		 pop	 ebp
  00038	c3		 ret	 0
??$_Freenode0@V?$allocator@U?$_Tree_node@U?$pair@$$CBV?$basic_string@DU?$char_traits@D@std@@V?$allocator@D@2@@std@@H@std@@PAX@std@@@std@@@?$_Tree_node@U?$pair@$$CBV?$basic_string@DU?$char_traits@D@std@@V?$allocator@D@2@@std@@H@std@@PAX@std@@SAXAAV?$allocator@U?$_Tree_node@U?$pair@$$CBV?$basic_string@DU?$char_traits@D@std@@V?$allocator@D@2@@std@@H@std@@PAX@std@@@1@PAU01@@Z ENDP ; std::_Tree_node<std::pair<std::basic_string<char,std::char_traits<char>,std::allocator<char> > const ,int>,void *>::_Freenode0<std::allocator<std::_Tree_node<std::pair<std::basic_string<char,std::char_traits<char>,std::allocator<char> > const ,int>,void *> > >
_TEXT	ENDS
; Function compile flags: /Odspy
; File C:\Program Files (x86)\Microsoft Visual Studio\2019\Community\VC\Tools\MSVC\14.28.29333\include\xtree
; File C:\Program Files (x86)\Microsoft Visual Studio\2019\Community\VC\Tools\MSVC\14.28.29333\include\utility
; File C:\Program Files (x86)\Microsoft Visual Studio\2019\Community\VC\Tools\MSVC\14.28.29333\include\xtree
;	COMDAT ??$_Erase_tree@V?$allocator@U?$_Tree_node@U?$pair@$$CBV?$basic_string@DU?$char_traits@D@std@@V?$allocator@D@2@@std@@H@std@@PAX@std@@@std@@@?$_Tree_val@U?$_Tree_simple_types@U?$pair@$$CBV?$basic_string@DU?$char_traits@D@std@@V?$allocator@D@2@@std@@H@std@@@std@@@std@@QAEXAAV?$allocator@U?$_Tree_node@U?$pair@$$CBV?$basic_string@DU?$char_traits@D@std@@V?$allocator@D@2@@std@@H@std@@PAX@std@@@1@PAU?$_Tree_node@U?$pair@$$CBV?$basic_string@DU?$char_traits@D@std@@V?$allocator@D@2@@std@@H@std@@PAX@1@@Z
_TEXT	SEGMENT
$T1 = -16						; size = 4
__Old_val$2 = -12					; size = 4
__New_val$ = -8						; size = 4
_this$ = -4						; size = 4
__Al$ = 8						; size = 4
__Rootnode$ = 12					; size = 4
??$_Erase_tree@V?$allocator@U?$_Tree_node@U?$pair@$$CBV?$basic_string@DU?$char_traits@D@std@@V?$allocator@D@2@@std@@H@std@@PAX@std@@@std@@@?$_Tree_val@U?$_Tree_simple_types@U?$pair@$$CBV?$basic_string@DU?$char_traits@D@std@@V?$allocator@D@2@@std@@H@std@@@std@@@std@@QAEXAAV?$allocator@U?$_Tree_node@U?$pair@$$CBV?$basic_string@DU?$char_traits@D@std@@V?$allocator@D@2@@std@@H@std@@PAX@std@@@1@PAU?$_Tree_node@U?$pair@$$CBV?$basic_string@DU?$char_traits@D@std@@V?$allocator@D@2@@std@@H@std@@PAX@1@@Z PROC ; std::_Tree_val<std::_Tree_simple_types<std::pair<std::basic_string<char,std::char_traits<char>,std::allocator<char> > const ,int> > >::_Erase_tree<std::allocator<std::_Tree_node<std::pair<std::basic_string<char,std::char_traits<char>,std::allocator<char> > const ,int>,void *> > >, COMDAT
; _this$ = ecx

; 742  :     void _Erase_tree(_Alnode& _Al, _Nodeptr _Rootnode) noexcept {

  00000	55		 push	 ebp
  00001	8b ec		 mov	 ebp, esp
  00003	83 ec 10	 sub	 esp, 16			; 00000010H
  00006	89 4d fc	 mov	 DWORD PTR _this$[ebp], ecx
$LN2@Erase_tree:

; 743  :         while (!_Rootnode->_Isnil) { // free subtrees, then node

  00009	8b 45 0c	 mov	 eax, DWORD PTR __Rootnode$[ebp]
  0000c	0f be 40 0d	 movsx	 eax, BYTE PTR [eax+13]
  00010	85 c0		 test	 eax, eax
  00012	75 3a		 jne	 SHORT $LN4@Erase_tree

; 744  :             _Erase_tree(_Al, _Rootnode->_Right);

  00014	8b 45 0c	 mov	 eax, DWORD PTR __Rootnode$[ebp]
  00017	ff 70 08	 push	 DWORD PTR [eax+8]
  0001a	ff 75 08	 push	 DWORD PTR __Al$[ebp]
  0001d	8b 4d fc	 mov	 ecx, DWORD PTR _this$[ebp]
  00020	e8 00 00 00 00	 call	 ??$_Erase_tree@V?$allocator@U?$_Tree_node@U?$pair@$$CBV?$basic_string@DU?$char_traits@D@std@@V?$allocator@D@2@@std@@H@std@@PAX@std@@@std@@@?$_Tree_val@U?$_Tree_simple_types@U?$pair@$$CBV?$basic_string@DU?$char_traits@D@std@@V?$allocator@D@2@@std@@H@std@@@std@@@std@@QAEXAAV?$allocator@U?$_Tree_node@U?$pair@$$CBV?$basic_string@DU?$char_traits@D@std@@V?$allocator@D@2@@std@@H@std@@PAX@std@@@1@PAU?$_Tree_node@U?$pair@$$CBV?$basic_string@DU?$char_traits@D@std@@V?$allocator@D@2@@std@@H@std@@PAX@1@@Z ; std::_Tree_val<std::_Tree_simple_types<std::pair<std::basic_string<char,std::char_traits<char>,std::allocator<char> > const ,int> > >::_Erase_tree<std::allocator<std::_Tree_node<std::pair<std::basic_string<char,std::char_traits<char>,std::allocator<char> > const ,int>,void *> > >

; 745  :             _Alnode::value_type::_Freenode(_Al, _STD exchange(_Rootnode, _Rootnode->_Left));

  00025	8b 45 0c	 mov	 eax, DWORD PTR __Rootnode$[ebp]
  00028	89 45 f8	 mov	 DWORD PTR __New_val$[ebp], eax
; File C:\Program Files (x86)\Microsoft Visual Studio\2019\Community\VC\Tools\MSVC\14.28.29333\include\utility

; 598  :     _Ty _Old_val = static_cast<_Ty&&>(_Val);

  0002b	8b 45 0c	 mov	 eax, DWORD PTR __Rootnode$[ebp]
  0002e	89 45 f4	 mov	 DWORD PTR __Old_val$2[ebp], eax

; 599  :     _Val         = static_cast<_Other&&>(_New_val);

  00031	8b 45 f8	 mov	 eax, DWORD PTR __New_val$[ebp]
  00034	8b 00		 mov	 eax, DWORD PTR [eax]
  00036	89 45 0c	 mov	 DWORD PTR __Rootnode$[ebp], eax

; 600  :     return _Old_val;

  00039	8b 45 f4	 mov	 eax, DWORD PTR __Old_val$2[ebp]
  0003c	89 45 f0	 mov	 DWORD PTR $T1[ebp], eax
; File C:\Program Files (x86)\Microsoft Visual Studio\2019\Community\VC\Tools\MSVC\14.28.29333\include\xtree

; 745  :             _Alnode::value_type::_Freenode(_Al, _STD exchange(_Rootnode, _Rootnode->_Left));

  0003f	ff 75 f0	 push	 DWORD PTR $T1[ebp]
  00042	ff 75 08	 push	 DWORD PTR __Al$[ebp]
  00045	e8 00 00 00 00	 call	 ??$_Freenode@V?$allocator@U?$_Tree_node@U?$pair@$$CBV?$basic_string@DU?$char_traits@D@std@@V?$allocator@D@2@@std@@H@std@@PAX@std@@@std@@@?$_Tree_node@U?$pair@$$CBV?$basic_string@DU?$char_traits@D@std@@V?$allocator@D@2@@std@@H@std@@PAX@std@@SAXAAV?$allocator@U?$_Tree_node@U?$pair@$$CBV?$basic_string@DU?$char_traits@D@std@@V?$allocator@D@2@@std@@H@std@@PAX@std@@@1@PAU01@@Z ; std::_Tree_node<std::pair<std::basic_string<char,std::char_traits<char>,std::allocator<char> > const ,int>,void *>::_Freenode<std::allocator<std::_Tree_node<std::pair<std::basic_string<char,std::char_traits<char>,std::allocator<char> > const ,int>,void *> > >
  0004a	59		 pop	 ecx
  0004b	59		 pop	 ecx

; 746  :         }

  0004c	eb bb		 jmp	 SHORT $LN2@Erase_tree
$LN4@Erase_tree:

; 747  :     }

  0004e	c9		 leave
  0004f	c2 08 00	 ret	 8
??$_Erase_tree@V?$allocator@U?$_Tree_node@U?$pair@$$CBV?$basic_string@DU?$char_traits@D@std@@V?$allocator@D@2@@std@@H@std@@PAX@std@@@std@@@?$_Tree_val@U?$_Tree_simple_types@U?$pair@$$CBV?$basic_string@DU?$char_traits@D@std@@V?$allocator@D@2@@std@@H@std@@@std@@@std@@QAEXAAV?$allocator@U?$_Tree_node@U?$pair@$$CBV?$basic_string@DU?$char_traits@D@std@@V?$allocator@D@2@@std@@H@std@@PAX@std@@@1@PAU?$_Tree_node@U?$pair@$$CBV?$basic_string@DU?$char_traits@D@std@@V?$allocator@D@2@@std@@H@std@@PAX@1@@Z ENDP ; std::_Tree_val<std::_Tree_simple_types<std::pair<std::basic_string<char,std::char_traits<char>,std::allocator<char> > const ,int> > >::_Erase_tree<std::allocator<std::_Tree_node<std::pair<std::basic_string<char,std::char_traits<char>,std::allocator<char> > const ,int>,void *> > >
_TEXT	ENDS
; Function compile flags: /Odspy
; File C:\Program Files (x86)\Microsoft Visual Studio\2019\Community\VC\Tools\MSVC\14.28.29333\include\xtree
; File C:\Program Files (x86)\Microsoft Visual Studio\2019\Community\VC\Tools\MSVC\14.28.29333\include\xmemory
; File C:\Program Files (x86)\Microsoft Visual Studio\2019\Community\VC\Tools\MSVC\14.28.29333\include\xtree
; File C:\Program Files (x86)\Microsoft Visual Studio\2019\Community\VC\Tools\MSVC\14.28.29333\include\type_traits
; File C:\Program Files (x86)\Microsoft Visual Studio\2019\Community\VC\Tools\MSVC\14.28.29333\include\xtree
; File C:\Program Files (x86)\Microsoft Visual Studio\2019\Community\VC\Tools\MSVC\14.28.29333\include\xstddef
; File C:\Program Files (x86)\Microsoft Visual Studio\2019\Community\VC\Tools\MSVC\14.28.29333\include\xtree
;	COMDAT ??$?0ABUpiecewise_construct_t@std@@V?$tuple@$$QAV?$basic_string@DU?$char_traits@D@std@@V?$allocator@D@2@@std@@@1@V?$tuple@$$V@1@@?$_Tree_temp_node@V?$allocator@U?$_Tree_node@U?$pair@$$CBV?$basic_string@DU?$char_traits@D@std@@V?$allocator@D@2@@std@@H@std@@PAX@std@@@std@@@std@@QAE@AAV?$allocator@U?$_Tree_node@U?$pair@$$CBV?$basic_string@DU?$char_traits@D@std@@V?$allocator@D@2@@std@@H@std@@PAX@std@@@1@PAU?$_Tree_node@U?$pair@$$CBV?$basic_string@DU?$char_traits@D@std@@V?$allocator@D@2@@std@@H@std@@PAX@1@ABUpiecewise_construct_t@1@$$QAV?$tuple@$$QAV?$basic_string@DU?$char_traits@D@std@@V?$allocator@D@2@@std@@@1@$$QAV?$tuple@$$V@1@@Z
_TEXT	SEGMENT
$T2 = -36						; size = 4
$T3 = -32						; size = 4
$T4 = -28						; size = 4
$T5 = -24						; size = 4
__Val$ = -20						; size = 4
_this$ = -16						; size = 4
__$EHRec$ = -12						; size = 12
__Al_$ = 8						; size = 4
__Myhead$ = 12						; size = 4
_<_Vals_0>$ = 16					; size = 4
_<_Vals_1>$ = 20					; size = 4
_<_Vals_2>$ = 24					; size = 4
??$?0ABUpiecewise_construct_t@std@@V?$tuple@$$QAV?$basic_string@DU?$char_traits@D@std@@V?$allocator@D@2@@std@@@1@V?$tuple@$$V@1@@?$_Tree_temp_node@V?$allocator@U?$_Tree_node@U?$pair@$$CBV?$basic_string@DU?$char_traits@D@std@@V?$allocator@D@2@@std@@H@std@@PAX@std@@@std@@@std@@QAE@AAV?$allocator@U?$_Tree_node@U?$pair@$$CBV?$basic_string@DU?$char_traits@D@std@@V?$allocator@D@2@@std@@H@std@@PAX@std@@@1@PAU?$_Tree_node@U?$pair@$$CBV?$basic_string@DU?$char_traits@D@std@@V?$allocator@D@2@@std@@H@std@@PAX@1@ABUpiecewise_construct_t@1@$$QAV?$tuple@$$QAV?$basic_string@DU?$char_traits@D@std@@V?$allocator@D@2@@std@@@1@$$QAV?$tuple@$$V@1@@Z PROC ; std::_Tree_temp_node<std::allocator<std::_Tree_node<std::pair<std::basic_string<char,std::char_traits<char>,std::allocator<char> > const ,int>,void *> > >::_Tree_temp_node<std::allocator<std::_Tree_node<std::pair<std::basic_string<char,std::char_traits<char>,std::allocator<char> > const ,int>,void *> > ><std::piecewise_construct_t const &,std::tuple<std::basic_string<char,std::char_traits<char>,std::allocator<char> > &&>,std::tuple<> >, COMDAT
; _this$ = ecx

; 805  :         : _Tree_temp_node_alloc<_Alnode>(_Al_) {

  00000	55		 push	 ebp
  00001	8b ec		 mov	 ebp, esp
  00003	6a ff		 push	 -1
  00005	68 00 00 00 00	 push	 __ehhandler$??$?0ABUpiecewise_construct_t@std@@V?$tuple@$$QAV?$basic_string@DU?$char_traits@D@std@@V?$allocator@D@2@@std@@@1@V?$tuple@$$V@1@@?$_Tree_temp_node@V?$allocator@U?$_Tree_node@U?$pair@$$CBV?$basic_string@DU?$char_traits@D@std@@V?$allocator@D@2@@std@@H@std@@PAX@std@@@std@@@std@@QAE@AAV?$allocator@U?$_Tree_node@U?$pair@$$CBV?$basic_string@DU?$char_traits@D@std@@V?$allocator@D@2@@std@@H@std@@PAX@std@@@1@PAU?$_Tree_node@U?$pair@$$CBV?$basic_string@DU?$char_traits@D@std@@V?$allocator@D@2@@std@@H@std@@PAX@1@ABUpiecewise_construct_t@1@$$QAV?$tuple@$$QAV?$basic_string@DU?$char_traits@D@std@@V?$allocator@D@2@@std@@@1@$$QAV?$tuple@$$V@1@@Z
  0000a	64 a1 00 00 00
	00		 mov	 eax, DWORD PTR fs:0
  00010	50		 push	 eax
  00011	83 ec 18	 sub	 esp, 24			; 00000018H
  00014	a1 00 00 00 00	 mov	 eax, DWORD PTR ___security_cookie
  00019	33 c5		 xor	 eax, ebp
  0001b	50		 push	 eax
  0001c	8d 45 f4	 lea	 eax, DWORD PTR __$EHRec$[ebp]
  0001f	64 a3 00 00 00
	00		 mov	 DWORD PTR fs:0, eax
  00025	89 4d f0	 mov	 DWORD PTR _this$[ebp], ecx
; File C:\Program Files (x86)\Microsoft Visual Studio\2019\Community\VC\Tools\MSVC\14.28.29333\include\xmemory

; 1045 :     explicit _Alloc_construct_ptr(_Alloc& _Al_) : _Al(_Al_), _Ptr(nullptr) {}

  00028	8b 45 f0	 mov	 eax, DWORD PTR _this$[ebp]
  0002b	8b 4d 08	 mov	 ecx, DWORD PTR __Al_$[ebp]
  0002e	89 08		 mov	 DWORD PTR [eax], ecx
  00030	8b 45 f0	 mov	 eax, DWORD PTR _this$[ebp]
  00033	83 60 04 00	 and	 DWORD PTR [eax+4], 0
; File C:\Program Files (x86)\Microsoft Visual Studio\2019\Community\VC\Tools\MSVC\14.28.29333\include\xtree

; 784  :     explicit _Tree_temp_node_alloc(_Alnode& _Al_) : _Alloc_construct_ptr<_Alnode>(_Al_) {

  00037	83 65 fc 00	 and	 DWORD PTR __$EHRec$[ebp+8], 0

; 785  :         _Alloc_construct_ptr<_Alnode>::_Allocate();

  0003b	8b 4d f0	 mov	 ecx, DWORD PTR _this$[ebp]
  0003e	e8 00 00 00 00	 call	 ?_Allocate@?$_Alloc_construct_ptr@V?$allocator@U?$_Tree_node@U?$pair@$$CBV?$basic_string@DU?$char_traits@D@std@@V?$allocator@D@2@@std@@H@std@@PAX@std@@@std@@@std@@QAEXXZ ; std::_Alloc_construct_ptr<std::allocator<std::_Tree_node<std::pair<std::basic_string<char,std::char_traits<char>,std::allocator<char> > const ,int>,void *> > >::_Allocate

; 805  :         : _Tree_temp_node_alloc<_Alnode>(_Al_) {

  00043	c7 45 fc 01 00
	00 00		 mov	 DWORD PTR __$EHRec$[ebp+8], 1
; File C:\Program Files (x86)\Microsoft Visual Studio\2019\Community\VC\Tools\MSVC\14.28.29333\include\type_traits

; 1443 :     return static_cast<_Ty&&>(_Arg);

  0004a	8b 45 18	 mov	 eax, DWORD PTR _<_Vals_2>$[ebp]
  0004d	89 45 e8	 mov	 DWORD PTR $T5[ebp], eax
  00050	8b 45 14	 mov	 eax, DWORD PTR _<_Vals_1>$[ebp]
  00053	89 45 e4	 mov	 DWORD PTR $T4[ebp], eax
  00056	8b 45 10	 mov	 eax, DWORD PTR _<_Vals_0>$[ebp]
  00059	89 45 e0	 mov	 DWORD PTR $T3[ebp], eax
; File C:\Program Files (x86)\Microsoft Visual Studio\2019\Community\VC\Tools\MSVC\14.28.29333\include\xtree

; 806  :         _Alnode_traits::construct(this->_Al, _STD addressof(this->_Ptr->_Myval), _STD forward<_Valtys>(_Vals)...);

  0005c	8b 45 f0	 mov	 eax, DWORD PTR _this$[ebp]
  0005f	8b 40 04	 mov	 eax, DWORD PTR [eax+4]
  00062	83 c0 10	 add	 eax, 16			; 00000010H
  00065	89 45 ec	 mov	 DWORD PTR __Val$[ebp], eax
; File C:\Program Files (x86)\Microsoft Visual Studio\2019\Community\VC\Tools\MSVC\14.28.29333\include\xstddef

; 275  :     return __builtin_addressof(_Val);

  00068	8b 45 ec	 mov	 eax, DWORD PTR __Val$[ebp]
  0006b	89 45 dc	 mov	 DWORD PTR $T2[ebp], eax
; File C:\Program Files (x86)\Microsoft Visual Studio\2019\Community\VC\Tools\MSVC\14.28.29333\include\xtree

; 806  :         _Alnode_traits::construct(this->_Al, _STD addressof(this->_Ptr->_Myval), _STD forward<_Valtys>(_Vals)...);

  0006e	ff 75 e8	 push	 DWORD PTR $T5[ebp]
  00071	ff 75 e4	 push	 DWORD PTR $T4[ebp]
  00074	ff 75 e0	 push	 DWORD PTR $T3[ebp]
  00077	ff 75 dc	 push	 DWORD PTR $T2[ebp]
  0007a	8b 45 f0	 mov	 eax, DWORD PTR _this$[ebp]
  0007d	ff 30		 push	 DWORD PTR [eax]
  0007f	e8 00 00 00 00	 call	 ??$construct@U?$pair@$$CBV?$basic_string@DU?$char_traits@D@std@@V?$allocator@D@2@@std@@H@std@@ABUpiecewise_construct_t@2@V?$tuple@$$QAV?$basic_string@DU?$char_traits@D@std@@V?$allocator@D@2@@std@@@2@V?$tuple@$$V@2@@?$_Default_allocator_traits@V?$allocator@U?$_Tree_node@U?$pair@$$CBV?$basic_string@DU?$char_traits@D@std@@V?$allocator@D@2@@std@@H@std@@PAX@std@@@std@@@std@@SAXAAV?$allocator@U?$_Tree_node@U?$pair@$$CBV?$basic_string@DU?$char_traits@D@std@@V?$allocator@D@2@@std@@H@std@@PAX@std@@@1@QAU?$pair@$$CBV?$basic_string@DU?$char_traits@D@std@@V?$allocator@D@2@@std@@H@1@ABUpiecewise_construct_t@1@$$QAV?$tuple@$$QAV?$basic_string@DU?$char_traits@D@std@@V?$allocator@D@2@@std@@@1@$$QAV?$tuple@$$V@1@@Z ; std::_Default_allocator_traits<std::allocator<std::_Tree_node<std::pair<std::basic_string<char,std::char_traits<char>,std::allocator<char> > const ,int>,void *> > >::construct<std::pair<std::basic_string<char,std::char_traits<char>,std::allocator<char> > const ,int>,std::piecewise_construct_t const &,std::tuple<std::basic_string<char,std::char_traits<char>,std::allocator<char> > &&>,std::tuple<> >
  00084	83 c4 14	 add	 esp, 20			; 00000014H

; 807  :         _Construct_in_place(this->_Ptr->_Left, _Myhead);

  00087	8d 45 0c	 lea	 eax, DWORD PTR __Myhead$[ebp]
  0008a	50		 push	 eax
  0008b	8b 45 f0	 mov	 eax, DWORD PTR _this$[ebp]
  0008e	ff 70 04	 push	 DWORD PTR [eax+4]
  00091	e8 00 00 00 00	 call	 ??$_Construct_in_place@PAU?$_Tree_node@U?$pair@$$CBV?$basic_string@DU?$char_traits@D@std@@V?$allocator@D@2@@std@@H@std@@PAX@std@@AAPAU12@@std@@YAXAAPAU?$_Tree_node@U?$pair@$$CBV?$basic_string@DU?$char_traits@D@std@@V?$allocator@D@2@@std@@H@std@@PAX@0@0@Z ; std::_Construct_in_place<std::_Tree_node<std::pair<std::basic_string<char,std::char_traits<char>,std::allocator<char> > const ,int>,void *> *,std::_Tree_node<std::pair<std::basic_string<char,std::char_traits<char>,std::allocator<char> > const ,int>,void *> * &>
  00096	59		 pop	 ecx
  00097	59		 pop	 ecx

; 808  :         _Construct_in_place(this->_Ptr->_Parent, _Myhead);

  00098	8d 45 0c	 lea	 eax, DWORD PTR __Myhead$[ebp]
  0009b	50		 push	 eax
  0009c	8b 45 f0	 mov	 eax, DWORD PTR _this$[ebp]
  0009f	8b 40 04	 mov	 eax, DWORD PTR [eax+4]
  000a2	83 c0 04	 add	 eax, 4
  000a5	50		 push	 eax
  000a6	e8 00 00 00 00	 call	 ??$_Construct_in_place@PAU?$_Tree_node@U?$pair@$$CBV?$basic_string@DU?$char_traits@D@std@@V?$allocator@D@2@@std@@H@std@@PAX@std@@AAPAU12@@std@@YAXAAPAU?$_Tree_node@U?$pair@$$CBV?$basic_string@DU?$char_traits@D@std@@V?$allocator@D@2@@std@@H@std@@PAX@0@0@Z ; std::_Construct_in_place<std::_Tree_node<std::pair<std::basic_string<char,std::char_traits<char>,std::allocator<char> > const ,int>,void *> *,std::_Tree_node<std::pair<std::basic_string<char,std::char_traits<char>,std::allocator<char> > const ,int>,void *> * &>
  000ab	59		 pop	 ecx
  000ac	59		 pop	 ecx

; 809  :         _Construct_in_place(this->_Ptr->_Right, _Myhead);

  000ad	8d 45 0c	 lea	 eax, DWORD PTR __Myhead$[ebp]
  000b0	50		 push	 eax
  000b1	8b 45 f0	 mov	 eax, DWORD PTR _this$[ebp]
  000b4	8b 40 04	 mov	 eax, DWORD PTR [eax+4]
  000b7	83 c0 08	 add	 eax, 8
  000ba	50		 push	 eax
  000bb	e8 00 00 00 00	 call	 ??$_Construct_in_place@PAU?$_Tree_node@U?$pair@$$CBV?$basic_string@DU?$char_traits@D@std@@V?$allocator@D@2@@std@@H@std@@PAX@std@@AAPAU12@@std@@YAXAAPAU?$_Tree_node@U?$pair@$$CBV?$basic_string@DU?$char_traits@D@std@@V?$allocator@D@2@@std@@H@std@@PAX@0@0@Z ; std::_Construct_in_place<std::_Tree_node<std::pair<std::basic_string<char,std::char_traits<char>,std::allocator<char> > const ,int>,void *> *,std::_Tree_node<std::pair<std::basic_string<char,std::char_traits<char>,std::allocator<char> > const ,int>,void *> * &>
  000c0	59		 pop	 ecx
  000c1	59		 pop	 ecx

; 810  :         this->_Ptr->_Color = _Red;

  000c2	8b 45 f0	 mov	 eax, DWORD PTR _this$[ebp]
  000c5	8b 40 04	 mov	 eax, DWORD PTR [eax+4]
  000c8	c6 40 0c 00	 mov	 BYTE PTR [eax+12], 0

; 811  :         this->_Ptr->_Isnil = false;

  000cc	8b 45 f0	 mov	 eax, DWORD PTR _this$[ebp]
  000cf	8b 40 04	 mov	 eax, DWORD PTR [eax+4]
  000d2	c6 40 0d 00	 mov	 BYTE PTR [eax+13], 0

; 812  :     }

  000d6	83 4d fc ff	 or	 DWORD PTR __$EHRec$[ebp+8], -1
  000da	8b 45 f0	 mov	 eax, DWORD PTR _this$[ebp]
  000dd	8b 4d f4	 mov	 ecx, DWORD PTR __$EHRec$[ebp]
  000e0	64 89 0d 00 00
	00 00		 mov	 DWORD PTR fs:0, ecx
  000e7	59		 pop	 ecx
  000e8	c9		 leave
  000e9	c2 14 00	 ret	 20			; 00000014H
_TEXT	ENDS
;	COMDAT text$x
text$x	SEGMENT
__unwindfunclet$??$?0ABUpiecewise_construct_t@std@@V?$tuple@$$QAV?$basic_string@DU?$char_traits@D@std@@V?$allocator@D@2@@std@@@1@V?$tuple@$$V@1@@?$_Tree_temp_node@V?$allocator@U?$_Tree_node@U?$pair@$$CBV?$basic_string@DU?$char_traits@D@std@@V?$allocator@D@2@@std@@H@std@@PAX@std@@@std@@@std@@QAE@AAV?$allocator@U?$_Tree_node@U?$pair@$$CBV?$basic_string@DU?$char_traits@D@std@@V?$allocator@D@2@@std@@H@std@@PAX@std@@@1@PAU?$_Tree_node@U?$pair@$$CBV?$basic_string@DU?$char_traits@D@std@@V?$allocator@D@2@@std@@H@std@@PAX@1@ABUpiecewise_construct_t@1@$$QAV?$tuple@$$QAV?$basic_string@DU?$char_traits@D@std@@V?$allocator@D@2@@std@@@1@$$QAV?$tuple@$$V@1@@Z$1:
  00000	8b 4d f0	 mov	 ecx, DWORD PTR _this$[ebp]
  00003	e9 00 00 00 00	 jmp	 ??1?$_Alloc_construct_ptr@V?$allocator@U?$_Tree_node@U?$pair@$$CBV?$basic_string@DU?$char_traits@D@std@@V?$allocator@D@2@@std@@H@std@@PAX@std@@@std@@@std@@QAE@XZ ; std::_Alloc_construct_ptr<std::allocator<std::_Tree_node<std::pair<std::basic_string<char,std::char_traits<char>,std::allocator<char> > const ,int>,void *> > >::~_Alloc_construct_ptr<std::allocator<std::_Tree_node<std::pair<std::basic_string<char,std::char_traits<char>,std::allocator<char> > const ,int>,void *> > >
__unwindfunclet$??$?0ABUpiecewise_construct_t@std@@V?$tuple@$$QAV?$basic_string@DU?$char_traits@D@std@@V?$allocator@D@2@@std@@@1@V?$tuple@$$V@1@@?$_Tree_temp_node@V?$allocator@U?$_Tree_node@U?$pair@$$CBV?$basic_string@DU?$char_traits@D@std@@V?$allocator@D@2@@std@@H@std@@PAX@std@@@std@@@std@@QAE@AAV?$allocator@U?$_Tree_node@U?$pair@$$CBV?$basic_string@DU?$char_traits@D@std@@V?$allocator@D@2@@std@@H@std@@PAX@std@@@1@PAU?$_Tree_node@U?$pair@$$CBV?$basic_string@DU?$char_traits@D@std@@V?$allocator@D@2@@std@@H@std@@PAX@1@ABUpiecewise_construct_t@1@$$QAV?$tuple@$$QAV?$basic_string@DU?$char_traits@D@std@@V?$allocator@D@2@@std@@@1@$$QAV?$tuple@$$V@1@@Z$0:
  00008	8b 4d f0	 mov	 ecx, DWORD PTR _this$[ebp]
  0000b	e9 00 00 00 00	 jmp	 ??1?$_Tree_temp_node_alloc@V?$allocator@U?$_Tree_node@U?$pair@$$CBV?$basic_string@DU?$char_traits@D@std@@V?$allocator@D@2@@std@@H@std@@PAX@std@@@std@@@std@@QAE@XZ
  00010	cc		 int	 3
  00011	cc		 int	 3
  00012	cc		 int	 3
  00013	cc		 int	 3
  00014	cc		 int	 3
__ehhandler$??$?0ABUpiecewise_construct_t@std@@V?$tuple@$$QAV?$basic_string@DU?$char_traits@D@std@@V?$allocator@D@2@@std@@@1@V?$tuple@$$V@1@@?$_Tree_temp_node@V?$allocator@U?$_Tree_node@U?$pair@$$CBV?$basic_string@DU?$char_traits@D@std@@V?$allocator@D@2@@std@@H@std@@PAX@std@@@std@@@std@@QAE@AAV?$allocator@U?$_Tree_node@U?$pair@$$CBV?$basic_string@DU?$char_traits@D@std@@V?$allocator@D@2@@std@@H@std@@PAX@std@@@1@PAU?$_Tree_node@U?$pair@$$CBV?$basic_string@DU?$char_traits@D@std@@V?$allocator@D@2@@std@@H@std@@PAX@1@ABUpiecewise_construct_t@1@$$QAV?$tuple@$$QAV?$basic_string@DU?$char_traits@D@std@@V?$allocator@D@2@@std@@@1@$$QAV?$tuple@$$V@1@@Z:
  00015	90		 npad	 1
  00016	90		 npad	 1
  00017	8b 54 24 08	 mov	 edx, DWORD PTR [esp+8]
  0001b	8d 42 0c	 lea	 eax, DWORD PTR [edx+12]
  0001e	8b 4a e4	 mov	 ecx, DWORD PTR [edx-28]
  00021	33 c8		 xor	 ecx, eax
  00023	e8 00 00 00 00	 call	 @__security_check_cookie@4
  00028	b8 00 00 00 00	 mov	 eax, OFFSET __ehfuncinfo$??$?0ABUpiecewise_construct_t@std@@V?$tuple@$$QAV?$basic_string@DU?$char_traits@D@std@@V?$allocator@D@2@@std@@@1@V?$tuple@$$V@1@@?$_Tree_temp_node@V?$allocator@U?$_Tree_node@U?$pair@$$CBV?$basic_string@DU?$char_traits@D@std@@V?$allocator@D@2@@std@@H@std@@PAX@std@@@std@@@std@@QAE@AAV?$allocator@U?$_Tree_node@U?$pair@$$CBV?$basic_string@DU?$char_traits@D@std@@V?$allocator@D@2@@std@@H@std@@PAX@std@@@1@PAU?$_Tree_node@U?$pair@$$CBV?$basic_string@DU?$char_traits@D@std@@V?$allocator@D@2@@std@@H@std@@PAX@1@ABUpiecewise_construct_t@1@$$QAV?$tuple@$$QAV?$basic_string@DU?$char_traits@D@std@@V?$allocator@D@2@@std@@@1@$$QAV?$tuple@$$V@1@@Z
  0002d	e9 00 00 00 00	 jmp	 ___CxxFrameHandler3
text$x	ENDS
??$?0ABUpiecewise_construct_t@std@@V?$tuple@$$QAV?$basic_string@DU?$char_traits@D@std@@V?$allocator@D@2@@std@@@1@V?$tuple@$$V@1@@?$_Tree_temp_node@V?$allocator@U?$_Tree_node@U?$pair@$$CBV?$basic_string@DU?$char_traits@D@std@@V?$allocator@D@2@@std@@H@std@@PAX@std@@@std@@@std@@QAE@AAV?$allocator@U?$_Tree_node@U?$pair@$$CBV?$basic_string@DU?$char_traits@D@std@@V?$allocator@D@2@@std@@H@std@@PAX@std@@@1@PAU?$_Tree_node@U?$pair@$$CBV?$basic_string@DU?$char_traits@D@std@@V?$allocator@D@2@@std@@H@std@@PAX@1@ABUpiecewise_construct_t@1@$$QAV?$tuple@$$QAV?$basic_string@DU?$char_traits@D@std@@V?$allocator@D@2@@std@@@1@$$QAV?$tuple@$$V@1@@Z ENDP ; std::_Tree_temp_node<std::allocator<std::_Tree_node<std::pair<std::basic_string<char,std::char_traits<char>,std::allocator<char> > const ,int>,void *> > >::_Tree_temp_node<std::allocator<std::_Tree_node<std::pair<std::basic_string<char,std::char_traits<char>,std::allocator<char> > const ,int>,void *> > ><std::piecewise_construct_t const &,std::tuple<std::basic_string<char,std::char_traits<char>,std::allocator<char> > &&>,std::tuple<> >
; Function compile flags: /Odspy
; File C:\Program Files (x86)\Microsoft Visual Studio\2019\Community\VC\Tools\MSVC\14.28.29333\include\xtree
; File C:\Program Files (x86)\Microsoft Visual Studio\2019\Community\VC\Tools\MSVC\14.28.29333\include\xstddef
; File C:\Program Files (x86)\Microsoft Visual Studio\2019\Community\VC\Tools\MSVC\14.28.29333\include\xtree
; File C:\Program Files (x86)\Microsoft Visual Studio\2019\Community\VC\Tools\MSVC\14.28.29333\include\xstring
; File C:\Program Files (x86)\Microsoft Visual Studio\2019\Community\VC\Tools\MSVC\14.28.29333\include\xtree
;	COMDAT ??1?$_Tree_temp_node@V?$allocator@U?$_Tree_node@U?$pair@$$CBV?$basic_string@DU?$char_traits@D@std@@V?$allocator@D@2@@std@@H@std@@PAX@std@@@std@@@std@@QAE@XZ
_TEXT	SEGMENT
___formal$ = -16					; size = 4
__Val$ = -12						; size = 4
$T1 = -8						; size = 4
_this$ = -4						; size = 4
??1?$_Tree_temp_node@V?$allocator@U?$_Tree_node@U?$pair@$$CBV?$basic_string@DU?$char_traits@D@std@@V?$allocator@D@2@@std@@H@std@@PAX@std@@@std@@@std@@QAE@XZ PROC ; std::_Tree_temp_node<std::allocator<std::_Tree_node<std::pair<std::basic_string<char,std::char_traits<char>,std::allocator<char> > const ,int>,void *> > >::~_Tree_temp_node<std::allocator<std::_Tree_node<std::pair<std::basic_string<char,std::char_traits<char>,std::allocator<char> > const ,int>,void *> > >, COMDAT
; _this$ = ecx

; 817  :     ~_Tree_temp_node() {

  00000	55		 push	 ebp
  00001	8b ec		 mov	 ebp, esp
  00003	83 ec 10	 sub	 esp, 16			; 00000010H
  00006	89 4d fc	 mov	 DWORD PTR _this$[ebp], ecx

; 818  :         if (this->_Ptr) {

  00009	8b 45 fc	 mov	 eax, DWORD PTR _this$[ebp]
  0000c	83 78 04 00	 cmp	 DWORD PTR [eax+4], 0
  00010	74 61		 je	 SHORT $LN28@Tree_temp_

; 819  :             _Destroy_in_place(this->_Ptr->_Left);

  00012	8b 45 fc	 mov	 eax, DWORD PTR _this$[ebp]
  00015	ff 70 04	 push	 DWORD PTR [eax+4]
  00018	e8 00 00 00 00	 call	 ??$_Destroy_in_place@PAU?$_Tree_node@U?$pair@$$CBV?$basic_string@DU?$char_traits@D@std@@V?$allocator@D@2@@std@@H@std@@PAX@std@@@std@@YAXAAPAU?$_Tree_node@U?$pair@$$CBV?$basic_string@DU?$char_traits@D@std@@V?$allocator@D@2@@std@@H@std@@PAX@0@@Z ; std::_Destroy_in_place<std::_Tree_node<std::pair<std::basic_string<char,std::char_traits<char>,std::allocator<char> > const ,int>,void *> *>
  0001d	59		 pop	 ecx

; 820  :             _Destroy_in_place(this->_Ptr->_Parent);

  0001e	8b 45 fc	 mov	 eax, DWORD PTR _this$[ebp]
  00021	8b 40 04	 mov	 eax, DWORD PTR [eax+4]
  00024	83 c0 04	 add	 eax, 4
  00027	50		 push	 eax
  00028	e8 00 00 00 00	 call	 ??$_Destroy_in_place@PAU?$_Tree_node@U?$pair@$$CBV?$basic_string@DU?$char_traits@D@std@@V?$allocator@D@2@@std@@H@std@@PAX@std@@@std@@YAXAAPAU?$_Tree_node@U?$pair@$$CBV?$basic_string@DU?$char_traits@D@std@@V?$allocator@D@2@@std@@H@std@@PAX@0@@Z ; std::_Destroy_in_place<std::_Tree_node<std::pair<std::basic_string<char,std::char_traits<char>,std::allocator<char> > const ,int>,void *> *>
  0002d	59		 pop	 ecx

; 821  :             _Destroy_in_place(this->_Ptr->_Right);

  0002e	8b 45 fc	 mov	 eax, DWORD PTR _this$[ebp]
  00031	8b 40 04	 mov	 eax, DWORD PTR [eax+4]
  00034	83 c0 08	 add	 eax, 8
  00037	50		 push	 eax
  00038	e8 00 00 00 00	 call	 ??$_Destroy_in_place@PAU?$_Tree_node@U?$pair@$$CBV?$basic_string@DU?$char_traits@D@std@@V?$allocator@D@2@@std@@H@std@@PAX@std@@@std@@YAXAAPAU?$_Tree_node@U?$pair@$$CBV?$basic_string@DU?$char_traits@D@std@@V?$allocator@D@2@@std@@H@std@@PAX@0@@Z ; std::_Destroy_in_place<std::_Tree_node<std::pair<std::basic_string<char,std::char_traits<char>,std::allocator<char> > const ,int>,void *> *>
  0003d	59		 pop	 ecx

; 822  :             _Alnode_traits::destroy(this->_Al, _STD addressof(this->_Ptr->_Myval));

  0003e	8b 45 fc	 mov	 eax, DWORD PTR _this$[ebp]
  00041	8b 40 04	 mov	 eax, DWORD PTR [eax+4]
  00044	83 c0 10	 add	 eax, 16			; 00000010H
  00047	89 45 f4	 mov	 DWORD PTR __Val$[ebp], eax
; File C:\Program Files (x86)\Microsoft Visual Studio\2019\Community\VC\Tools\MSVC\14.28.29333\include\xstddef

; 275  :     return __builtin_addressof(_Val);

  0004a	8b 45 f4	 mov	 eax, DWORD PTR __Val$[ebp]
  0004d	89 45 f8	 mov	 DWORD PTR $T1[ebp], eax
; File C:\Program Files (x86)\Microsoft Visual Studio\2019\Community\VC\Tools\MSVC\14.28.29333\include\xtree

; 822  :             _Alnode_traits::destroy(this->_Al, _STD addressof(this->_Ptr->_Myval));

  00050	8b 45 fc	 mov	 eax, DWORD PTR _this$[ebp]
  00053	8b 00		 mov	 eax, DWORD PTR [eax]
  00055	89 45 f0	 mov	 DWORD PTR ___formal$[ebp], eax
; File C:\Program Files (x86)\Microsoft Visual Studio\2019\Community\VC\Tools\MSVC\14.28.29333\include\xstring

; 2801 :         _Tidy_deallocate();

  00058	8b 4d f8	 mov	 ecx, DWORD PTR $T1[ebp]
  0005b	e8 00 00 00 00	 call	 ?_Tidy_deallocate@?$basic_string@DU?$char_traits@D@std@@V?$allocator@D@2@@std@@AAEXXZ ; std::basic_string<char,std::char_traits<char>,std::allocator<char> >::_Tidy_deallocate
  00060	33 c0		 xor	 eax, eax
  00062	83 e0 01	 and	 eax, 1
  00065	74 0c		 je	 SHORT $LN28@Tree_temp_
  00067	6a 1c		 push	 28			; 0000001cH
  00069	ff 75 f8	 push	 DWORD PTR $T1[ebp]
  0006c	e8 00 00 00 00	 call	 ??3@YAXPAXI@Z		; operator delete
  00071	59		 pop	 ecx
  00072	59		 pop	 ecx
$LN28@Tree_temp_:
  00073	8b 4d fc	 mov	 ecx, DWORD PTR _this$[ebp]
  00076	e8 00 00 00 00	 call	 ??1?$_Alloc_construct_ptr@V?$allocator@U?$_Tree_node@U?$pair@$$CBV?$basic_string@DU?$char_traits@D@std@@V?$allocator@D@2@@std@@H@std@@PAX@std@@@std@@@std@@QAE@XZ ; std::_Alloc_construct_ptr<std::allocator<std::_Tree_node<std::pair<std::basic_string<char,std::char_traits<char>,std::allocator<char> > const ,int>,void *> > >::~_Alloc_construct_ptr<std::allocator<std::_Tree_node<std::pair<std::basic_string<char,std::char_traits<char>,std::allocator<char> > const ,int>,void *> > >
; File C:\Program Files (x86)\Microsoft Visual Studio\2019\Community\VC\Tools\MSVC\14.28.29333\include\xtree

; 824  :     }

  0007b	c9		 leave
  0007c	c3		 ret	 0
??1?$_Tree_temp_node@V?$allocator@U?$_Tree_node@U?$pair@$$CBV?$basic_string@DU?$char_traits@D@std@@V?$allocator@D@2@@std@@H@std@@PAX@std@@@std@@@std@@QAE@XZ ENDP ; std::_Tree_temp_node<std::allocator<std::_Tree_node<std::pair<std::basic_string<char,std::char_traits<char>,std::allocator<char> > const ,int>,void *> > >::~_Tree_temp_node<std::allocator<std::_Tree_node<std::pair<std::basic_string<char,std::char_traits<char>,std::allocator<char> > const ,int>,void *> > >
_TEXT	ENDS
; Function compile flags: /Odspy
;	COMDAT ??1?$_Tree_temp_node_alloc@V?$allocator@U?$_Tree_node@U?$pair@$$CBV?$basic_string@DU?$char_traits@D@std@@V?$allocator@D@2@@std@@H@std@@PAX@std@@@std@@@std@@QAE@XZ
_TEXT	SEGMENT
_this$ = -4						; size = 4
??1?$_Tree_temp_node_alloc@V?$allocator@U?$_Tree_node@U?$pair@$$CBV?$basic_string@DU?$char_traits@D@std@@V?$allocator@D@2@@std@@H@std@@PAX@std@@@std@@@std@@QAE@XZ PROC ; std::_Tree_temp_node_alloc<std::allocator<std::_Tree_node<std::pair<std::basic_string<char,std::char_traits<char>,std::allocator<char> > const ,int>,void *> > >::~_Tree_temp_node_alloc<std::allocator<std::_Tree_node<std::pair<std::basic_string<char,std::char_traits<char>,std::allocator<char> > const ,int>,void *> > >, COMDAT
; _this$ = ecx
  00000	55		 push	 ebp
  00001	8b ec		 mov	 ebp, esp
  00003	51		 push	 ecx
  00004	89 4d fc	 mov	 DWORD PTR _this$[ebp], ecx
  00007	8b 4d fc	 mov	 ecx, DWORD PTR _this$[ebp]
  0000a	e8 00 00 00 00	 call	 ??1?$_Alloc_construct_ptr@V?$allocator@U?$_Tree_node@U?$pair@$$CBV?$basic_string@DU?$char_traits@D@std@@V?$allocator@D@2@@std@@H@std@@PAX@std@@@std@@@std@@QAE@XZ ; std::_Alloc_construct_ptr<std::allocator<std::_Tree_node<std::pair<std::basic_string<char,std::char_traits<char>,std::allocator<char> > const ,int>,void *> > >::~_Alloc_construct_ptr<std::allocator<std::_Tree_node<std::pair<std::basic_string<char,std::char_traits<char>,std::allocator<char> > const ,int>,void *> > >
  0000f	c9		 leave
  00010	c3		 ret	 0
??1?$_Tree_temp_node_alloc@V?$allocator@U?$_Tree_node@U?$pair@$$CBV?$basic_string@DU?$char_traits@D@std@@V?$allocator@D@2@@std@@H@std@@PAX@std@@@std@@@std@@QAE@XZ ENDP ; std::_Tree_temp_node_alloc<std::allocator<std::_Tree_node<std::pair<std::basic_string<char,std::char_traits<char>,std::allocator<char> > const ,int>,void *> > >::~_Tree_temp_node_alloc<std::allocator<std::_Tree_node<std::pair<std::basic_string<char,std::char_traits<char>,std::allocator<char> > const ,int>,void *> > >
_TEXT	ENDS
; Function compile flags: /Odspy
; File C:\Program Files (x86)\Microsoft Visual Studio\2019\Community\VC\Tools\MSVC\14.28.29333\include\xmemory
;	COMDAT ??1?$_Alloc_construct_ptr@V?$allocator@U?$_Tree_node@U?$pair@$$CBV?$basic_string@DU?$char_traits@D@std@@V?$allocator@D@2@@std@@H@std@@PAX@std@@@std@@@std@@QAE@XZ
_TEXT	SEGMENT
_this$ = -12						; size = 4
__Ptr$ = -8						; size = 4
_this$ = -4						; size = 4
??1?$_Alloc_construct_ptr@V?$allocator@U?$_Tree_node@U?$pair@$$CBV?$basic_string@DU?$char_traits@D@std@@V?$allocator@D@2@@std@@H@std@@PAX@std@@@std@@@std@@QAE@XZ PROC ; std::_Alloc_construct_ptr<std::allocator<std::_Tree_node<std::pair<std::basic_string<char,std::char_traits<char>,std::allocator<char> > const ,int>,void *> > >::~_Alloc_construct_ptr<std::allocator<std::_Tree_node<std::pair<std::basic_string<char,std::char_traits<char>,std::allocator<char> > const ,int>,void *> > >, COMDAT
; _this$ = ecx

; 1056 :     ~_Alloc_construct_ptr() { // if this instance is engaged, deallocate storage

  00000	55		 push	 ebp
  00001	8b ec		 mov	 ebp, esp
  00003	83 ec 0c	 sub	 esp, 12			; 0000000cH
  00006	89 4d fc	 mov	 DWORD PTR _this$[ebp], ecx

; 1057 :         if (_Ptr) {

  00009	8b 45 fc	 mov	 eax, DWORD PTR _this$[ebp]
  0000c	83 78 04 00	 cmp	 DWORD PTR [eax+4], 0
  00010	74 22		 je	 SHORT $LN3@Alloc_cons

; 1058 :             _Al.deallocate(_Ptr, 1);

  00012	8b 45 fc	 mov	 eax, DWORD PTR _this$[ebp]
  00015	8b 40 04	 mov	 eax, DWORD PTR [eax+4]
  00018	89 45 f8	 mov	 DWORD PTR __Ptr$[ebp], eax
  0001b	8b 45 fc	 mov	 eax, DWORD PTR _this$[ebp]
  0001e	8b 00		 mov	 eax, DWORD PTR [eax]
  00020	89 45 f4	 mov	 DWORD PTR _this$[ebp], eax

; 810  :         _Deallocate<_New_alignof<_Ty>>(_Ptr, sizeof(_Ty) * _Count);

  00023	33 c0		 xor	 eax, eax
  00025	40		 inc	 eax
  00026	6b c0 2c	 imul	 eax, eax, 44
  00029	50		 push	 eax
  0002a	ff 75 f8	 push	 DWORD PTR __Ptr$[ebp]
  0002d	e8 00 00 00 00	 call	 ??$_Deallocate@$07$0A@@std@@YAXPAXI@Z ; std::_Deallocate<8,0>
  00032	59		 pop	 ecx
  00033	59		 pop	 ecx
$LN3@Alloc_cons:

; 1059 :         }
; 1060 :     }

  00034	c9		 leave
  00035	c3		 ret	 0
??1?$_Alloc_construct_ptr@V?$allocator@U?$_Tree_node@U?$pair@$$CBV?$basic_string@DU?$char_traits@D@std@@V?$allocator@D@2@@std@@H@std@@PAX@std@@@std@@@std@@QAE@XZ ENDP ; std::_Alloc_construct_ptr<std::allocator<std::_Tree_node<std::pair<std::basic_string<char,std::char_traits<char>,std::allocator<char> > const ,int>,void *> > >::~_Alloc_construct_ptr<std::allocator<std::_Tree_node<std::pair<std::basic_string<char,std::char_traits<char>,std::allocator<char> > const ,int>,void *> > >
_TEXT	ENDS
; Function compile flags: /Odspy
; File C:\Program Files (x86)\Microsoft Visual Studio\2019\Community\VC\Tools\MSVC\14.28.29333\include\xmemory
;	COMDAT ?_Allocate@?$_Alloc_construct_ptr@V?$allocator@U?$_Tree_node@U?$pair@$$CBV?$basic_string@DU?$char_traits@D@std@@V?$allocator@D@2@@std@@H@std@@PAX@std@@@std@@@std@@QAEXXZ
_TEXT	SEGMENT
__Max_possible$1 = -24					; size = 4
_this$ = -20						; size = 4
$T2 = -16						; size = 4
$T3 = -12						; size = 4
_this$ = -8						; size = 4
__Overflow_is_possible$4 = -1				; size = 1
?_Allocate@?$_Alloc_construct_ptr@V?$allocator@U?$_Tree_node@U?$pair@$$CBV?$basic_string@DU?$char_traits@D@std@@V?$allocator@D@2@@std@@H@std@@PAX@std@@@std@@@std@@QAEXXZ PROC ; std::_Alloc_construct_ptr<std::allocator<std::_Tree_node<std::pair<std::basic_string<char,std::char_traits<char>,std::allocator<char> > const ,int>,void *> > >::_Allocate, COMDAT
; _this$ = ecx

; 1051 :     void _Allocate() { // disengage *this, then allocate a new memory block

  00000	55		 push	 ebp
  00001	8b ec		 mov	 ebp, esp
  00003	83 ec 18	 sub	 esp, 24			; 00000018H
  00006	89 4d f8	 mov	 DWORD PTR _this$[ebp], ecx

; 1052 :         _Ptr = nullptr; // if allocate throws, prevents double-free

  00009	8b 45 f8	 mov	 eax, DWORD PTR _this$[ebp]
  0000c	83 60 04 00	 and	 DWORD PTR [eax+4], 0

; 1053 :         _Ptr = _Al.allocate(1);

  00010	8b 45 f8	 mov	 eax, DWORD PTR _this$[ebp]
  00013	8b 00		 mov	 eax, DWORD PTR [eax]
  00015	89 45 ec	 mov	 DWORD PTR _this$[ebp], eax

; 56   :     constexpr bool _Overflow_is_possible = _Ty_size > 1;

  00018	c6 45 ff 01	 mov	 BYTE PTR __Overflow_is_possible$4[ebp], 1

; 57   : 
; 58   :     if _CONSTEXPR_IF (_Overflow_is_possible) {
; 59   :         constexpr size_t _Max_possible = static_cast<size_t>(-1) / _Ty_size;

  0001c	c7 45 e8 5d 74
	d1 05		 mov	 DWORD PTR __Max_possible$1[ebp], 97612893 ; 05d1745dH

; 60   :         if (_Count > _Max_possible) {

  00023	33 c0		 xor	 eax, eax
  00025	40		 inc	 eax
  00026	3d 5d 74 d1 05	 cmp	 eax, 97612893		; 05d1745dH
  0002b	76 05		 jbe	 SHORT $LN6@Allocate

; 61   :             _Throw_bad_array_new_length(); // multiply overflow

  0002d	e8 00 00 00 00	 call	 ?_Throw_bad_array_new_length@std@@YAXXZ ; std::_Throw_bad_array_new_length
$LN6@Allocate:

; 62   :         }
; 63   :     }
; 64   : 
; 65   :     return _Count * _Ty_size;

  00032	33 c0		 xor	 eax, eax
  00034	40		 inc	 eax
  00035	6b c0 2c	 imul	 eax, eax, 44
  00038	89 45 f4	 mov	 DWORD PTR $T3[ebp], eax

; 814  :         return static_cast<_Ty*>(_Allocate<_New_alignof<_Ty>>(_Get_size_of_n<sizeof(_Ty)>(_Count)));

  0003b	ff 75 f4	 push	 DWORD PTR $T3[ebp]
  0003e	e8 00 00 00 00	 call	 ??$_Allocate@$07U_Default_allocate_traits@std@@$0A@@std@@YAPAXI@Z ; std::_Allocate<8,std::_Default_allocate_traits,0>
  00043	59		 pop	 ecx
  00044	89 45 f0	 mov	 DWORD PTR $T2[ebp], eax

; 1053 :         _Ptr = _Al.allocate(1);

  00047	8b 45 f8	 mov	 eax, DWORD PTR _this$[ebp]
  0004a	8b 4d f0	 mov	 ecx, DWORD PTR $T2[ebp]
  0004d	89 48 04	 mov	 DWORD PTR [eax+4], ecx
$LN9@Allocate:

; 1054 :     }

  00050	c9		 leave
  00051	c3		 ret	 0
?_Allocate@?$_Alloc_construct_ptr@V?$allocator@U?$_Tree_node@U?$pair@$$CBV?$basic_string@DU?$char_traits@D@std@@V?$allocator@D@2@@std@@H@std@@PAX@std@@@std@@@std@@QAEXXZ ENDP ; std::_Alloc_construct_ptr<std::allocator<std::_Tree_node<std::pair<std::basic_string<char,std::char_traits<char>,std::allocator<char> > const ,int>,void *> > >::_Allocate
_TEXT	ENDS
; Function compile flags: /Odspy
; File C:\Program Files (x86)\Microsoft Visual Studio\2019\Community\VC\Tools\MSVC\14.28.29333\include\xtree
; File C:\Program Files (x86)\Microsoft Visual Studio\2019\Community\VC\Tools\MSVC\14.28.29333\include\xmemory
; File C:\Program Files (x86)\Microsoft Visual Studio\2019\Community\VC\Tools\MSVC\14.28.29333\include\xtree
; File C:\Program Files (x86)\Microsoft Visual Studio\2019\Community\VC\Tools\MSVC\14.28.29333\include\map
; File C:\Program Files (x86)\Microsoft Visual Studio\2019\Community\VC\Tools\MSVC\14.28.29333\include\xstddef
; File C:\Program Files (x86)\Microsoft Visual Studio\2019\Community\VC\Tools\MSVC\14.28.29333\include\xtree
;	COMDAT ??$_Lower_bound_duplicate@V?$basic_string@DU?$char_traits@D@std@@V?$allocator@D@2@@std@@@?$_Tree@V?$_Tmap_traits@V?$basic_string@DU?$char_traits@D@std@@V?$allocator@D@2@@std@@HU?$less@V?$basic_string@DU?$char_traits@D@std@@V?$allocator@D@2@@std@@@2@V?$allocator@U?$pair@$$CBV?$basic_string@DU?$char_traits@D@std@@V?$allocator@D@2@@std@@H@std@@@2@$0A@@std@@@std@@IBE_NQAU?$_Tree_node@U?$pair@$$CBV?$basic_string@DU?$char_traits@D@std@@V?$allocator@D@2@@std@@H@std@@PAX@1@ABV?$basic_string@DU?$char_traits@D@std@@V?$allocator@D@2@@1@@Z
_TEXT	SEGMENT
$T1 = -16						; size = 4
$T2 = -12						; size = 4
_this$ = -8						; size = 4
tv78 = -4						; size = 4
__Bound$ = 8						; size = 4
__Keyval$ = 12						; size = 4
??$_Lower_bound_duplicate@V?$basic_string@DU?$char_traits@D@std@@V?$allocator@D@2@@std@@@?$_Tree@V?$_Tmap_traits@V?$basic_string@DU?$char_traits@D@std@@V?$allocator@D@2@@std@@HU?$less@V?$basic_string@DU?$char_traits@D@std@@V?$allocator@D@2@@std@@@2@V?$allocator@U?$pair@$$CBV?$basic_string@DU?$char_traits@D@std@@V?$allocator@D@2@@std@@H@std@@@2@$0A@@std@@@std@@IBE_NQAU?$_Tree_node@U?$pair@$$CBV?$basic_string@DU?$char_traits@D@std@@V?$allocator@D@2@@std@@H@std@@PAX@1@ABV?$basic_string@DU?$char_traits@D@std@@V?$allocator@D@2@@1@@Z PROC ; std::_Tree<std::_Tmap_traits<std::basic_string<char,std::char_traits<char>,std::allocator<char> >,int,std::less<std::basic_string<char,std::char_traits<char>,std::allocator<char> > >,std::allocator<std::pair<std::basic_string<char,std::char_traits<char>,std::allocator<char> > const ,int> >,0> >::_Lower_bound_duplicate<std::basic_string<char,std::char_traits<char>,std::allocator<char> > >, COMDAT
; _this$ = ecx

; 1694 :     bool _Lower_bound_duplicate(const _Nodeptr _Bound, const _Keyty& _Keyval) const {

  00000	55		 push	 ebp
  00001	8b ec		 mov	 ebp, esp
  00003	83 ec 10	 sub	 esp, 16			; 00000010H
  00006	89 4d f8	 mov	 DWORD PTR _this$[ebp], ecx

; 1695 :         return !_Bound->_Isnil && !_DEBUG_LT_PRED(_Getcomp(), _Keyval, _Traits::_Kfn(_Bound->_Myval));

  00009	8b 45 08	 mov	 eax, DWORD PTR __Bound$[ebp]
  0000c	0f be 40 0d	 movsx	 eax, BYTE PTR [eax+13]
  00010	85 c0		 test	 eax, eax
  00012	75 2d		 jne	 SHORT $LN3@Lower_boun

; 2035 :         return _Mypair._Get_first();

  00014	8b 45 f8	 mov	 eax, DWORD PTR _this$[ebp]
; File C:\Program Files (x86)\Microsoft Visual Studio\2019\Community\VC\Tools\MSVC\14.28.29333\include\xmemory

; 1351 :         return *this;

  00017	89 45 f4	 mov	 DWORD PTR $T2[ebp], eax
; File C:\Program Files (x86)\Microsoft Visual Studio\2019\Community\VC\Tools\MSVC\14.28.29333\include\xtree

; 2035 :         return _Mypair._Get_first();

  0001a	8b 45 f4	 mov	 eax, DWORD PTR $T2[ebp]
  0001d	89 45 f0	 mov	 DWORD PTR $T1[ebp], eax
; File C:\Program Files (x86)\Microsoft Visual Studio\2019\Community\VC\Tools\MSVC\14.28.29333\include\map

; 69   :         return _Val.first;

  00020	8b 45 08	 mov	 eax, DWORD PTR __Bound$[ebp]
  00023	83 c0 10	 add	 eax, 16			; 00000010H
; File C:\Program Files (x86)\Microsoft Visual Studio\2019\Community\VC\Tools\MSVC\14.28.29333\include\xstddef

; 127  :         return _Left < _Right;

  00026	50		 push	 eax
  00027	ff 75 0c	 push	 DWORD PTR __Keyval$[ebp]
  0002a	e8 00 00 00 00	 call	 ??$?MDU?$char_traits@D@std@@V?$allocator@D@1@@std@@YA_NABV?$basic_string@DU?$char_traits@D@std@@V?$allocator@D@2@@0@0@Z ; std::operator<<char,std::char_traits<char>,std::allocator<char> >
  0002f	59		 pop	 ecx
  00030	59		 pop	 ecx
; File C:\Program Files (x86)\Microsoft Visual Studio\2019\Community\VC\Tools\MSVC\14.28.29333\include\xtree

; 1695 :         return !_Bound->_Isnil && !_DEBUG_LT_PRED(_Getcomp(), _Keyval, _Traits::_Kfn(_Bound->_Myval));

  00031	0f b6 c0	 movzx	 eax, al
  00034	85 c0		 test	 eax, eax
  00036	75 09		 jne	 SHORT $LN3@Lower_boun
  00038	c7 45 fc 01 00
	00 00		 mov	 DWORD PTR tv78[ebp], 1
  0003f	eb 04		 jmp	 SHORT $LN4@Lower_boun
$LN3@Lower_boun:
  00041	83 65 fc 00	 and	 DWORD PTR tv78[ebp], 0
$LN4@Lower_boun:
  00045	8a 45 fc	 mov	 al, BYTE PTR tv78[ebp]

; 1696 :     }

  00048	c9		 leave
  00049	c2 08 00	 ret	 8
??$_Lower_bound_duplicate@V?$basic_string@DU?$char_traits@D@std@@V?$allocator@D@2@@std@@@?$_Tree@V?$_Tmap_traits@V?$basic_string@DU?$char_traits@D@std@@V?$allocator@D@2@@std@@HU?$less@V?$basic_string@DU?$char_traits@D@std@@V?$allocator@D@2@@std@@@2@V?$allocator@U?$pair@$$CBV?$basic_string@DU?$char_traits@D@std@@V?$allocator@D@2@@std@@H@std@@@2@$0A@@std@@@std@@IBE_NQAU?$_Tree_node@U?$pair@$$CBV?$basic_string@DU?$char_traits@D@std@@V?$allocator@D@2@@std@@H@std@@PAX@1@ABV?$basic_string@DU?$char_traits@D@std@@V?$allocator@D@2@@1@@Z ENDP ; std::_Tree<std::_Tmap_traits<std::basic_string<char,std::char_traits<char>,std::allocator<char> >,int,std::less<std::basic_string<char,std::char_traits<char>,std::allocator<char> > >,std::allocator<std::pair<std::basic_string<char,std::char_traits<char>,std::allocator<char> > const ,int> >,0> >::_Lower_bound_duplicate<std::basic_string<char,std::char_traits<char>,std::allocator<char> > >
_TEXT	ENDS
; Function compile flags: /Odspy
; File C:\Program Files (x86)\Microsoft Visual Studio\2019\Community\VC\Tools\MSVC\14.28.29333\include\xtree
; File C:\Program Files (x86)\Microsoft Visual Studio\2019\Community\VC\Tools\MSVC\14.28.29333\include\xstddef
; File C:\Program Files (x86)\Microsoft Visual Studio\2019\Community\VC\Tools\MSVC\14.28.29333\include\xtree
; File C:\Program Files (x86)\Microsoft Visual Studio\2019\Community\VC\Tools\MSVC\14.28.29333\include\xmemory
; File C:\Program Files (x86)\Microsoft Visual Studio\2019\Community\VC\Tools\MSVC\14.28.29333\include\xtree
; File C:\Program Files (x86)\Microsoft Visual Studio\2019\Community\VC\Tools\MSVC\14.28.29333\include\xstddef
; File C:\Program Files (x86)\Microsoft Visual Studio\2019\Community\VC\Tools\MSVC\14.28.29333\include\map
; File C:\Program Files (x86)\Microsoft Visual Studio\2019\Community\VC\Tools\MSVC\14.28.29333\include\xstddef
; File C:\Program Files (x86)\Microsoft Visual Studio\2019\Community\VC\Tools\MSVC\14.28.29333\include\xtree
;	COMDAT ??$_Find_lower_bound@V?$basic_string@DU?$char_traits@D@std@@V?$allocator@D@2@@std@@@?$_Tree@V?$_Tmap_traits@V?$basic_string@DU?$char_traits@D@std@@V?$allocator@D@2@@std@@HU?$less@V?$basic_string@DU?$char_traits@D@std@@V?$allocator@D@2@@std@@@2@V?$allocator@U?$pair@$$CBV?$basic_string@DU?$char_traits@D@std@@V?$allocator@D@2@@std@@H@std@@@2@$0A@@std@@@std@@IBE?AU?$_Tree_find_result@PAU?$_Tree_node@U?$pair@$$CBV?$basic_string@DU?$char_traits@D@std@@V?$allocator@D@2@@std@@H@std@@PAX@std@@@1@ABV?$basic_string@DU?$char_traits@D@std@@V?$allocator@D@2@@1@@Z
_TEXT	SEGMENT
__Result$ = -36						; size = 12
$T1 = -24						; size = 4
$T2 = -20						; size = 4
$T3 = -16						; size = 4
_this$ = -12						; size = 4
__Scary$ = -8						; size = 4
__Trynode$ = -4						; size = 4
___$ReturnUdt$ = 8					; size = 4
__Keyval$ = 12						; size = 4
??$_Find_lower_bound@V?$basic_string@DU?$char_traits@D@std@@V?$allocator@D@2@@std@@@?$_Tree@V?$_Tmap_traits@V?$basic_string@DU?$char_traits@D@std@@V?$allocator@D@2@@std@@HU?$less@V?$basic_string@DU?$char_traits@D@std@@V?$allocator@D@2@@std@@@2@V?$allocator@U?$pair@$$CBV?$basic_string@DU?$char_traits@D@std@@V?$allocator@D@2@@std@@H@std@@@2@$0A@@std@@@std@@IBE?AU?$_Tree_find_result@PAU?$_Tree_node@U?$pair@$$CBV?$basic_string@DU?$char_traits@D@std@@V?$allocator@D@2@@std@@H@std@@PAX@std@@@1@ABV?$basic_string@DU?$char_traits@D@std@@V?$allocator@D@2@@1@@Z PROC ; std::_Tree<std::_Tmap_traits<std::basic_string<char,std::char_traits<char>,std::allocator<char> >,int,std::less<std::basic_string<char,std::char_traits<char>,std::allocator<char> > >,std::allocator<std::pair<std::basic_string<char,std::char_traits<char>,std::allocator<char> > const ,int> >,0> >::_Find_lower_bound<std::basic_string<char,std::char_traits<char>,std::allocator<char> > >, COMDAT
; _this$ = ecx

; 1699 :     _Tree_find_result<_Nodeptr> _Find_lower_bound(const _Keyty& _Keyval) const {

  00000	55		 push	 ebp
  00001	8b ec		 mov	 ebp, esp
  00003	83 ec 24	 sub	 esp, 36			; 00000024H
  00006	56		 push	 esi
  00007	57		 push	 edi
  00008	89 4d f4	 mov	 DWORD PTR _this$[ebp], ecx

; 2051 :         return _STD addressof(_Mypair._Myval2._Myval2);

  0000b	8b 45 f4	 mov	 eax, DWORD PTR _this$[ebp]
; File C:\Program Files (x86)\Microsoft Visual Studio\2019\Community\VC\Tools\MSVC\14.28.29333\include\xstddef

; 275  :     return __builtin_addressof(_Val);

  0000e	89 45 f0	 mov	 DWORD PTR $T3[ebp], eax
; File C:\Program Files (x86)\Microsoft Visual Studio\2019\Community\VC\Tools\MSVC\14.28.29333\include\xtree

; 2051 :         return _STD addressof(_Mypair._Myval2._Myval2);

  00011	8b 45 f0	 mov	 eax, DWORD PTR $T3[ebp]
  00014	89 45 f8	 mov	 DWORD PTR __Scary$[ebp], eax

; 1700 :         const auto _Scary = _Get_scary();
; 1701 :         _Tree_find_result<_Nodeptr> _Result{{_Scary->_Myhead->_Parent, _Tree_child::_Right}, _Scary->_Myhead};

  00017	8b 45 f8	 mov	 eax, DWORD PTR __Scary$[ebp]
  0001a	8b 00		 mov	 eax, DWORD PTR [eax]
  0001c	8b 40 04	 mov	 eax, DWORD PTR [eax+4]
  0001f	89 45 dc	 mov	 DWORD PTR __Result$[ebp], eax
  00022	83 65 e0 00	 and	 DWORD PTR __Result$[ebp+4], 0
  00026	8b 45 f8	 mov	 eax, DWORD PTR __Scary$[ebp]
  00029	8b 00		 mov	 eax, DWORD PTR [eax]
  0002b	89 45 e4	 mov	 DWORD PTR __Result$[ebp+8], eax

; 1702 :         _Nodeptr _Trynode = _Result._Location._Parent;

  0002e	8b 45 dc	 mov	 eax, DWORD PTR __Result$[ebp]
  00031	89 45 fc	 mov	 DWORD PTR __Trynode$[ebp], eax
$LN2@Find_lower:

; 1703 :         while (!_Trynode->_Isnil) {

  00034	8b 45 fc	 mov	 eax, DWORD PTR __Trynode$[ebp]
  00037	0f be 40 0d	 movsx	 eax, BYTE PTR [eax+13]
  0003b	85 c0		 test	 eax, eax
  0003d	75 50		 jne	 SHORT $LN3@Find_lower

; 1704 :             _Result._Location._Parent = _Trynode;

  0003f	8b 45 fc	 mov	 eax, DWORD PTR __Trynode$[ebp]
  00042	89 45 dc	 mov	 DWORD PTR __Result$[ebp], eax

; 2035 :         return _Mypair._Get_first();

  00045	8b 45 f4	 mov	 eax, DWORD PTR _this$[ebp]
; File C:\Program Files (x86)\Microsoft Visual Studio\2019\Community\VC\Tools\MSVC\14.28.29333\include\xmemory

; 1351 :         return *this;

  00048	89 45 ec	 mov	 DWORD PTR $T2[ebp], eax
; File C:\Program Files (x86)\Microsoft Visual Studio\2019\Community\VC\Tools\MSVC\14.28.29333\include\xtree

; 2035 :         return _Mypair._Get_first();

  0004b	8b 45 ec	 mov	 eax, DWORD PTR $T2[ebp]
  0004e	89 45 e8	 mov	 DWORD PTR $T1[ebp], eax
; File C:\Program Files (x86)\Microsoft Visual Studio\2019\Community\VC\Tools\MSVC\14.28.29333\include\xstddef

; 127  :         return _Left < _Right;

  00051	ff 75 0c	 push	 DWORD PTR __Keyval$[ebp]
; File C:\Program Files (x86)\Microsoft Visual Studio\2019\Community\VC\Tools\MSVC\14.28.29333\include\map

; 69   :         return _Val.first;

  00054	8b 45 fc	 mov	 eax, DWORD PTR __Trynode$[ebp]
  00057	83 c0 10	 add	 eax, 16			; 00000010H
; File C:\Program Files (x86)\Microsoft Visual Studio\2019\Community\VC\Tools\MSVC\14.28.29333\include\xstddef

; 127  :         return _Left < _Right;

  0005a	50		 push	 eax
  0005b	e8 00 00 00 00	 call	 ??$?MDU?$char_traits@D@std@@V?$allocator@D@1@@std@@YA_NABV?$basic_string@DU?$char_traits@D@std@@V?$allocator@D@2@@0@0@Z ; std::operator<<char,std::char_traits<char>,std::allocator<char> >
  00060	59		 pop	 ecx
  00061	59		 pop	 ecx
; File C:\Program Files (x86)\Microsoft Visual Studio\2019\Community\VC\Tools\MSVC\14.28.29333\include\xtree

; 1705 :             if (_DEBUG_LT_PRED(_Getcomp(), _Traits::_Kfn(_Trynode->_Myval), _Keyval)) {

  00062	0f b6 c0	 movzx	 eax, al
  00065	85 c0		 test	 eax, eax
  00067	74 0f		 je	 SHORT $LN4@Find_lower

; 1706 :                 _Result._Location._Child = _Tree_child::_Right;

  00069	83 65 e0 00	 and	 DWORD PTR __Result$[ebp+4], 0

; 1707 :                 _Trynode                 = _Trynode->_Right;

  0006d	8b 45 fc	 mov	 eax, DWORD PTR __Trynode$[ebp]
  00070	8b 40 08	 mov	 eax, DWORD PTR [eax+8]
  00073	89 45 fc	 mov	 DWORD PTR __Trynode$[ebp], eax

; 1708 :             } else {

  00076	eb 15		 jmp	 SHORT $LN5@Find_lower
$LN4@Find_lower:

; 1709 :                 _Result._Location._Child = _Tree_child::_Left;

  00078	c7 45 e0 01 00
	00 00		 mov	 DWORD PTR __Result$[ebp+4], 1

; 1710 :                 _Result._Bound           = _Trynode;

  0007f	8b 45 fc	 mov	 eax, DWORD PTR __Trynode$[ebp]
  00082	89 45 e4	 mov	 DWORD PTR __Result$[ebp+8], eax

; 1711 :                 _Trynode                 = _Trynode->_Left;

  00085	8b 45 fc	 mov	 eax, DWORD PTR __Trynode$[ebp]
  00088	8b 00		 mov	 eax, DWORD PTR [eax]
  0008a	89 45 fc	 mov	 DWORD PTR __Trynode$[ebp], eax
$LN5@Find_lower:

; 1712 :             }
; 1713 :         }

  0008d	eb a5		 jmp	 SHORT $LN2@Find_lower
$LN3@Find_lower:

; 1714 : 
; 1715 :         return _Result;

  0008f	8d 75 dc	 lea	 esi, DWORD PTR __Result$[ebp]
  00092	8b 7d 08	 mov	 edi, DWORD PTR ___$ReturnUdt$[ebp]
  00095	a5		 movsd
  00096	a5		 movsd
  00097	a5		 movsd
  00098	8b 45 08	 mov	 eax, DWORD PTR ___$ReturnUdt$[ebp]

; 1716 :     }

  0009b	5f		 pop	 edi
  0009c	5e		 pop	 esi
  0009d	c9		 leave
  0009e	c2 08 00	 ret	 8
??$_Find_lower_bound@V?$basic_string@DU?$char_traits@D@std@@V?$allocator@D@2@@std@@@?$_Tree@V?$_Tmap_traits@V?$basic_string@DU?$char_traits@D@std@@V?$allocator@D@2@@std@@HU?$less@V?$basic_string@DU?$char_traits@D@std@@V?$allocator@D@2@@std@@@2@V?$allocator@U?$pair@$$CBV?$basic_string@DU?$char_traits@D@std@@V?$allocator@D@2@@std@@H@std@@@2@$0A@@std@@@std@@IBE?AU?$_Tree_find_result@PAU?$_Tree_node@U?$pair@$$CBV?$basic_string@DU?$char_traits@D@std@@V?$allocator@D@2@@std@@H@std@@PAX@std@@@1@ABV?$basic_string@DU?$char_traits@D@std@@V?$allocator@D@2@@1@@Z ENDP ; std::_Tree<std::_Tmap_traits<std::basic_string<char,std::char_traits<char>,std::allocator<char> >,int,std::less<std::basic_string<char,std::char_traits<char>,std::allocator<char> > >,std::allocator<std::pair<std::basic_string<char,std::char_traits<char>,std::allocator<char> > const ,int> >,0> >::_Find_lower_bound<std::basic_string<char,std::char_traits<char>,std::allocator<char> > >
_TEXT	ENDS
; Function compile flags: /Odspy
; File C:\Program Files (x86)\Microsoft Visual Studio\2019\Community\VC\Tools\MSVC\14.28.29333\include\list
; File C:\Program Files (x86)\Microsoft Visual Studio\2019\Community\VC\Tools\MSVC\14.28.29333\include\xmemory
; File C:\Program Files (x86)\Microsoft Visual Studio\2019\Community\VC\Tools\MSVC\14.28.29333\include\list
; File C:\Program Files (x86)\Microsoft Visual Studio\2019\Community\VC\Tools\MSVC\14.28.29333\include\type_traits
; File C:\Program Files (x86)\Microsoft Visual Studio\2019\Community\VC\Tools\MSVC\14.28.29333\include\list
; File C:\Program Files (x86)\Microsoft Visual Studio\2019\Community\VC\Tools\MSVC\14.28.29333\include\xstddef
; File C:\Program Files (x86)\Microsoft Visual Studio\2019\Community\VC\Tools\MSVC\14.28.29333\include\list
; File C:\Program Files (x86)\Microsoft Visual Studio\2019\Community\VC\Tools\MSVC\14.28.29333\include\vcruntime_new.h
; File C:\Program Files (x86)\Microsoft Visual Studio\2019\Community\VC\Tools\MSVC\14.28.29333\include\type_traits
; File C:\Program Files (x86)\Microsoft Visual Studio\2019\Community\VC\Tools\MSVC\14.28.29333\include\xmemory
; File C:\Program Files (x86)\Microsoft Visual Studio\2019\Community\VC\Tools\MSVC\14.28.29333\include\list
;	COMDAT ??$?0ABUSTextLine@CPythonEventManager@@@?$_List_node_emplace_op2@V?$allocator@U?$_List_node@USTextLine@CPythonEventManager@@PAX@std@@@std@@@std@@QAE@AAV?$allocator@U?$_List_node@USTextLine@CPythonEventManager@@PAX@std@@@1@ABUSTextLine@CPythonEventManager@@@Z
_TEXT	SEGMENT
___formal$ = -40					; size = 4
$T2 = -36						; size = 4
$T3 = -32						; size = 4
$T4 = -28						; size = 4
$T5 = -24						; size = 4
__Val$ = -20						; size = 4
_this$ = -16						; size = 4
__$EHRec$ = -12						; size = 12
__Al_$ = 8						; size = 4
_<_Vals_0>$ = 12					; size = 4
??$?0ABUSTextLine@CPythonEventManager@@@?$_List_node_emplace_op2@V?$allocator@U?$_List_node@USTextLine@CPythonEventManager@@PAX@std@@@std@@@std@@QAE@AAV?$allocator@U?$_List_node@USTextLine@CPythonEventManager@@PAX@std@@@1@ABUSTextLine@CPythonEventManager@@@Z PROC ; std::_List_node_emplace_op2<std::allocator<std::_List_node<CPythonEventManager::STextLine,void *> > >::_List_node_emplace_op2<std::allocator<std::_List_node<CPythonEventManager::STextLine,void *> > ><CPythonEventManager::STextLine const &>, COMDAT
; _this$ = ecx

; 585  :     explicit _List_node_emplace_op2(_Alnode& _Al_, _Valtys&&... _Vals) : _Alloc_construct_ptr<_Alnode>(_Al_) {

  00000	55		 push	 ebp
  00001	8b ec		 mov	 ebp, esp
  00003	6a ff		 push	 -1
  00005	68 00 00 00 00	 push	 __ehhandler$??$?0ABUSTextLine@CPythonEventManager@@@?$_List_node_emplace_op2@V?$allocator@U?$_List_node@USTextLine@CPythonEventManager@@PAX@std@@@std@@@std@@QAE@AAV?$allocator@U?$_List_node@USTextLine@CPythonEventManager@@PAX@std@@@1@ABUSTextLine@CPythonEventManager@@@Z
  0000a	64 a1 00 00 00
	00		 mov	 eax, DWORD PTR fs:0
  00010	50		 push	 eax
  00011	83 ec 1c	 sub	 esp, 28			; 0000001cH
  00014	56		 push	 esi
  00015	57		 push	 edi
  00016	a1 00 00 00 00	 mov	 eax, DWORD PTR ___security_cookie
  0001b	33 c5		 xor	 eax, ebp
  0001d	50		 push	 eax
  0001e	8d 45 f4	 lea	 eax, DWORD PTR __$EHRec$[ebp]
  00021	64 a3 00 00 00
	00		 mov	 DWORD PTR fs:0, eax
  00027	89 4d f0	 mov	 DWORD PTR _this$[ebp], ecx
; File C:\Program Files (x86)\Microsoft Visual Studio\2019\Community\VC\Tools\MSVC\14.28.29333\include\xmemory

; 1045 :     explicit _Alloc_construct_ptr(_Alloc& _Al_) : _Al(_Al_), _Ptr(nullptr) {}

  0002a	8b 45 f0	 mov	 eax, DWORD PTR _this$[ebp]
  0002d	8b 4d 08	 mov	 ecx, DWORD PTR __Al_$[ebp]
  00030	89 08		 mov	 DWORD PTR [eax], ecx
  00032	8b 45 f0	 mov	 eax, DWORD PTR _this$[ebp]
  00035	83 60 04 00	 and	 DWORD PTR [eax+4], 0
; File C:\Program Files (x86)\Microsoft Visual Studio\2019\Community\VC\Tools\MSVC\14.28.29333\include\list

; 585  :     explicit _List_node_emplace_op2(_Alnode& _Al_, _Valtys&&... _Vals) : _Alloc_construct_ptr<_Alnode>(_Al_) {

  00039	83 65 fc 00	 and	 DWORD PTR __$EHRec$[ebp+8], 0

; 586  :         this->_Allocate();

  0003d	8b 4d f0	 mov	 ecx, DWORD PTR _this$[ebp]
  00040	e8 00 00 00 00	 call	 ?_Allocate@?$_Alloc_construct_ptr@V?$allocator@U?$_List_node@USTextLine@CPythonEventManager@@PAX@std@@@std@@@std@@QAEXXZ ; std::_Alloc_construct_ptr<std::allocator<std::_List_node<CPythonEventManager::STextLine,void *> > >::_Allocate
; File C:\Program Files (x86)\Microsoft Visual Studio\2019\Community\VC\Tools\MSVC\14.28.29333\include\type_traits

; 1443 :     return static_cast<_Ty&&>(_Arg);

  00045	8b 45 0c	 mov	 eax, DWORD PTR _<_Vals_0>$[ebp]
  00048	89 45 e4	 mov	 DWORD PTR $T4[ebp], eax
; File C:\Program Files (x86)\Microsoft Visual Studio\2019\Community\VC\Tools\MSVC\14.28.29333\include\list

; 587  :         _Alnode_traits::construct(this->_Al, _STD addressof(this->_Ptr->_Myval), _STD forward<_Valtys>(_Vals)...);

  0004b	8b 45 f0	 mov	 eax, DWORD PTR _this$[ebp]
  0004e	8b 40 04	 mov	 eax, DWORD PTR [eax+4]
  00051	83 c0 08	 add	 eax, 8
  00054	89 45 ec	 mov	 DWORD PTR __Val$[ebp], eax
; File C:\Program Files (x86)\Microsoft Visual Studio\2019\Community\VC\Tools\MSVC\14.28.29333\include\xstddef

; 275  :     return __builtin_addressof(_Val);

  00057	8b 45 ec	 mov	 eax, DWORD PTR __Val$[ebp]
  0005a	89 45 e8	 mov	 DWORD PTR $T5[ebp], eax
; File C:\Program Files (x86)\Microsoft Visual Studio\2019\Community\VC\Tools\MSVC\14.28.29333\include\list

; 587  :         _Alnode_traits::construct(this->_Al, _STD addressof(this->_Ptr->_Myval), _STD forward<_Valtys>(_Vals)...);

  0005d	8b 45 f0	 mov	 eax, DWORD PTR _this$[ebp]
  00060	8b 00		 mov	 eax, DWORD PTR [eax]
  00062	89 45 d8	 mov	 DWORD PTR ___formal$[ebp], eax
; File C:\Program Files (x86)\Microsoft Visual Studio\2019\Community\VC\Tools\MSVC\14.28.29333\include\vcruntime_new.h

; 169  :         return _Where;

  00065	8b 45 e8	 mov	 eax, DWORD PTR $T5[ebp]
  00068	89 45 dc	 mov	 DWORD PTR $T2[ebp], eax
; File C:\Program Files (x86)\Microsoft Visual Studio\2019\Community\VC\Tools\MSVC\14.28.29333\include\type_traits

; 1443 :     return static_cast<_Ty&&>(_Arg);

  0006b	8b 45 e4	 mov	 eax, DWORD PTR $T4[ebp]
  0006e	89 45 e0	 mov	 DWORD PTR $T3[ebp], eax
; File C:\Program Files (x86)\Microsoft Visual Studio\2019\Community\VC\Tools\MSVC\14.28.29333\include\xmemory

; 701  :         ::new (const_cast<void*>(static_cast<const volatile void*>(_Ptr))) _Objty(_STD forward<_Types>(_Args)...);

  00071	8b 75 e0	 mov	 esi, DWORD PTR $T3[ebp]
  00074	8b 7d dc	 mov	 edi, DWORD PTR $T2[ebp]
  00077	a5		 movsd
  00078	a5		 movsd
  00079	a5		 movsd
; File C:\Program Files (x86)\Microsoft Visual Studio\2019\Community\VC\Tools\MSVC\14.28.29333\include\list

; 588  :     }

  0007a	83 4d fc ff	 or	 DWORD PTR __$EHRec$[ebp+8], -1
  0007e	8b 45 f0	 mov	 eax, DWORD PTR _this$[ebp]
  00081	8b 4d f4	 mov	 ecx, DWORD PTR __$EHRec$[ebp]
  00084	64 89 0d 00 00
	00 00		 mov	 DWORD PTR fs:0, ecx
  0008b	59		 pop	 ecx
  0008c	5f		 pop	 edi
  0008d	5e		 pop	 esi
  0008e	c9		 leave
  0008f	c2 08 00	 ret	 8
_TEXT	ENDS
;	COMDAT text$x
text$x	SEGMENT
__unwindfunclet$??$?0ABUSTextLine@CPythonEventManager@@@?$_List_node_emplace_op2@V?$allocator@U?$_List_node@USTextLine@CPythonEventManager@@PAX@std@@@std@@@std@@QAE@AAV?$allocator@U?$_List_node@USTextLine@CPythonEventManager@@PAX@std@@@1@ABUSTextLine@CPythonEventManager@@@Z$0:
  00000	8b 4d f0	 mov	 ecx, DWORD PTR _this$[ebp]
  00003	e9 00 00 00 00	 jmp	 ??1?$_Alloc_construct_ptr@V?$allocator@U?$_List_node@USTextLine@CPythonEventManager@@PAX@std@@@std@@@std@@QAE@XZ ; std::_Alloc_construct_ptr<std::allocator<std::_List_node<CPythonEventManager::STextLine,void *> > >::~_Alloc_construct_ptr<std::allocator<std::_List_node<CPythonEventManager::STextLine,void *> > >
  00008	cc		 int	 3
  00009	cc		 int	 3
  0000a	cc		 int	 3
  0000b	cc		 int	 3
  0000c	cc		 int	 3
__ehhandler$??$?0ABUSTextLine@CPythonEventManager@@@?$_List_node_emplace_op2@V?$allocator@U?$_List_node@USTextLine@CPythonEventManager@@PAX@std@@@std@@@std@@QAE@AAV?$allocator@U?$_List_node@USTextLine@CPythonEventManager@@PAX@std@@@1@ABUSTextLine@CPythonEventManager@@@Z:
  0000d	90		 npad	 1
  0000e	90		 npad	 1
  0000f	8b 54 24 08	 mov	 edx, DWORD PTR [esp+8]
  00013	8d 42 0c	 lea	 eax, DWORD PTR [edx+12]
  00016	8b 4a d8	 mov	 ecx, DWORD PTR [edx-40]
  00019	33 c8		 xor	 ecx, eax
  0001b	e8 00 00 00 00	 call	 @__security_check_cookie@4
  00020	b8 00 00 00 00	 mov	 eax, OFFSET __ehfuncinfo$??$?0ABUSTextLine@CPythonEventManager@@@?$_List_node_emplace_op2@V?$allocator@U?$_List_node@USTextLine@CPythonEventManager@@PAX@std@@@std@@@std@@QAE@AAV?$allocator@U?$_List_node@USTextLine@CPythonEventManager@@PAX@std@@@1@ABUSTextLine@CPythonEventManager@@@Z
  00025	e9 00 00 00 00	 jmp	 ___CxxFrameHandler3
text$x	ENDS
??$?0ABUSTextLine@CPythonEventManager@@@?$_List_node_emplace_op2@V?$allocator@U?$_List_node@USTextLine@CPythonEventManager@@PAX@std@@@std@@@std@@QAE@AAV?$allocator@U?$_List_node@USTextLine@CPythonEventManager@@PAX@std@@@1@ABUSTextLine@CPythonEventManager@@@Z ENDP ; std::_List_node_emplace_op2<std::allocator<std::_List_node<CPythonEventManager::STextLine,void *> > >::_List_node_emplace_op2<std::allocator<std::_List_node<CPythonEventManager::STextLine,void *> > ><CPythonEventManager::STextLine const &>
; Function compile flags: /Odspy
; File C:\Program Files (x86)\Microsoft Visual Studio\2019\Community\VC\Tools\MSVC\14.28.29333\include\list
;	COMDAT ?_Transfer_before@?$_List_node_emplace_op2@V?$allocator@U?$_List_node@USTextLine@CPythonEventManager@@PAX@std@@@std@@@std@@QAEPAU?$_List_node@USTextLine@CPythonEventManager@@PAX@2@QAU32@@Z
_TEXT	SEGMENT
__Insert_after$ = -12					; size = 4
__Result$ = -8						; size = 4
_this$ = -4						; size = 4
__Insert_before$ = 8					; size = 4
?_Transfer_before@?$_List_node_emplace_op2@V?$allocator@U?$_List_node@USTextLine@CPythonEventManager@@PAX@std@@@std@@@std@@QAEPAU?$_List_node@USTextLine@CPythonEventManager@@PAX@2@QAU32@@Z PROC ; std::_List_node_emplace_op2<std::allocator<std::_List_node<CPythonEventManager::STextLine,void *> > >::_Transfer_before, COMDAT
; _this$ = ecx

; 599  :     pointer _Transfer_before(const pointer _Insert_before) noexcept {

  00000	55		 push	 ebp
  00001	8b ec		 mov	 ebp, esp
  00003	83 ec 0c	 sub	 esp, 12			; 0000000cH
  00006	89 4d fc	 mov	 DWORD PTR _this$[ebp], ecx

; 600  :         const pointer _Insert_after = _Insert_before->_Prev;

  00009	8b 45 08	 mov	 eax, DWORD PTR __Insert_before$[ebp]
  0000c	8b 40 04	 mov	 eax, DWORD PTR [eax+4]
  0000f	89 45 f4	 mov	 DWORD PTR __Insert_after$[ebp], eax

; 601  :         _Construct_in_place(this->_Ptr->_Next, _Insert_before);

  00012	8d 45 08	 lea	 eax, DWORD PTR __Insert_before$[ebp]
  00015	50		 push	 eax
  00016	8b 45 fc	 mov	 eax, DWORD PTR _this$[ebp]
  00019	ff 70 04	 push	 DWORD PTR [eax+4]
  0001c	e8 00 00 00 00	 call	 ??$_Construct_in_place@PAU?$_List_node@USTextLine@CPythonEventManager@@PAX@std@@ABQAU12@@std@@YAXAAPAU?$_List_node@USTextLine@CPythonEventManager@@PAX@0@ABQAU10@@Z ; std::_Construct_in_place<std::_List_node<CPythonEventManager::STextLine,void *> *,std::_List_node<CPythonEventManager::STextLine,void *> * const &>
  00021	59		 pop	 ecx
  00022	59		 pop	 ecx

; 602  :         _Construct_in_place(this->_Ptr->_Prev, _Insert_after);

  00023	8d 45 f4	 lea	 eax, DWORD PTR __Insert_after$[ebp]
  00026	50		 push	 eax
  00027	8b 45 fc	 mov	 eax, DWORD PTR _this$[ebp]
  0002a	8b 40 04	 mov	 eax, DWORD PTR [eax+4]
  0002d	83 c0 04	 add	 eax, 4
  00030	50		 push	 eax
  00031	e8 00 00 00 00	 call	 ??$_Construct_in_place@PAU?$_List_node@USTextLine@CPythonEventManager@@PAX@std@@ABQAU12@@std@@YAXAAPAU?$_List_node@USTextLine@CPythonEventManager@@PAX@0@ABQAU10@@Z ; std::_Construct_in_place<std::_List_node<CPythonEventManager::STextLine,void *> *,std::_List_node<CPythonEventManager::STextLine,void *> * const &>
  00036	59		 pop	 ecx
  00037	59		 pop	 ecx

; 603  :         const auto _Result    = this->_Ptr;

  00038	8b 45 fc	 mov	 eax, DWORD PTR _this$[ebp]
  0003b	8b 40 04	 mov	 eax, DWORD PTR [eax+4]
  0003e	89 45 f8	 mov	 DWORD PTR __Result$[ebp], eax

; 604  :         this->_Ptr            = pointer{};

  00041	8b 45 fc	 mov	 eax, DWORD PTR _this$[ebp]
  00044	83 60 04 00	 and	 DWORD PTR [eax+4], 0

; 605  :         _Insert_before->_Prev = _Result;

  00048	8b 45 08	 mov	 eax, DWORD PTR __Insert_before$[ebp]
  0004b	8b 4d f8	 mov	 ecx, DWORD PTR __Result$[ebp]
  0004e	89 48 04	 mov	 DWORD PTR [eax+4], ecx

; 606  :         _Insert_after->_Next  = _Result;

  00051	8b 45 f4	 mov	 eax, DWORD PTR __Insert_after$[ebp]
  00054	8b 4d f8	 mov	 ecx, DWORD PTR __Result$[ebp]
  00057	89 08		 mov	 DWORD PTR [eax], ecx

; 607  :         return _Result;

  00059	8b 45 f8	 mov	 eax, DWORD PTR __Result$[ebp]

; 608  :     }

  0005c	c9		 leave
  0005d	c2 04 00	 ret	 4
?_Transfer_before@?$_List_node_emplace_op2@V?$allocator@U?$_List_node@USTextLine@CPythonEventManager@@PAX@std@@@std@@@std@@QAEPAU?$_List_node@USTextLine@CPythonEventManager@@PAX@2@QAU32@@Z ENDP ; std::_List_node_emplace_op2<std::allocator<std::_List_node<CPythonEventManager::STextLine,void *> > >::_Transfer_before
_TEXT	ENDS
; Function compile flags: /Odspy
; File C:\Program Files (x86)\Microsoft Visual Studio\2019\Community\VC\Tools\MSVC\14.28.29333\include\list
; File C:\Program Files (x86)\Microsoft Visual Studio\2019\Community\VC\Tools\MSVC\14.28.29333\include\xstddef
; File C:\Program Files (x86)\Microsoft Visual Studio\2019\Community\VC\Tools\MSVC\14.28.29333\include\list
;	COMDAT ??1?$_List_node_emplace_op2@V?$allocator@U?$_List_node@USTextLine@CPythonEventManager@@PAX@std@@@std@@@std@@QAE@XZ
_TEXT	SEGMENT
$T1 = -12						; size = 4
__Val$ = -8						; size = 4
_this$ = -4						; size = 4
??1?$_List_node_emplace_op2@V?$allocator@U?$_List_node@USTextLine@CPythonEventManager@@PAX@std@@@std@@@std@@QAE@XZ PROC ; std::_List_node_emplace_op2<std::allocator<std::_List_node<CPythonEventManager::STextLine,void *> > >::~_List_node_emplace_op2<std::allocator<std::_List_node<CPythonEventManager::STextLine,void *> > >, COMDAT
; _this$ = ecx

; 590  :     ~_List_node_emplace_op2() {

  00000	55		 push	 ebp
  00001	8b ec		 mov	 ebp, esp
  00003	83 ec 0c	 sub	 esp, 12			; 0000000cH
  00006	89 4d fc	 mov	 DWORD PTR _this$[ebp], ecx

; 591  :         if (this->_Ptr != pointer{}) {

  00009	8b 45 fc	 mov	 eax, DWORD PTR _this$[ebp]
  0000c	83 78 04 00	 cmp	 DWORD PTR [eax+4], 0
  00010	74 12		 je	 SHORT $LN1@List_node_

; 592  :             _Alnode_traits::destroy(this->_Al, _STD addressof(this->_Ptr->_Myval));

  00012	8b 45 fc	 mov	 eax, DWORD PTR _this$[ebp]
  00015	8b 40 04	 mov	 eax, DWORD PTR [eax+4]
  00018	83 c0 08	 add	 eax, 8
  0001b	89 45 f8	 mov	 DWORD PTR __Val$[ebp], eax
; File C:\Program Files (x86)\Microsoft Visual Studio\2019\Community\VC\Tools\MSVC\14.28.29333\include\xstddef

; 275  :     return __builtin_addressof(_Val);

  0001e	8b 45 f8	 mov	 eax, DWORD PTR __Val$[ebp]
  00021	89 45 f4	 mov	 DWORD PTR $T1[ebp], eax
$LN1@List_node_:
; File C:\Program Files (x86)\Microsoft Visual Studio\2019\Community\VC\Tools\MSVC\14.28.29333\include\list

; 594  :     }

  00024	8b 4d fc	 mov	 ecx, DWORD PTR _this$[ebp]
  00027	e8 00 00 00 00	 call	 ??1?$_Alloc_construct_ptr@V?$allocator@U?$_List_node@USTextLine@CPythonEventManager@@PAX@std@@@std@@@std@@QAE@XZ ; std::_Alloc_construct_ptr<std::allocator<std::_List_node<CPythonEventManager::STextLine,void *> > >::~_Alloc_construct_ptr<std::allocator<std::_List_node<CPythonEventManager::STextLine,void *> > >
  0002c	c9		 leave
  0002d	c3		 ret	 0
??1?$_List_node_emplace_op2@V?$allocator@U?$_List_node@USTextLine@CPythonEventManager@@PAX@std@@@std@@@std@@QAE@XZ ENDP ; std::_List_node_emplace_op2<std::allocator<std::_List_node<CPythonEventManager::STextLine,void *> > >::~_List_node_emplace_op2<std::allocator<std::_List_node<CPythonEventManager::STextLine,void *> > >
_TEXT	ENDS
; Function compile flags: /Odspy
; File C:\Program Files (x86)\Microsoft Visual Studio\2019\Community\VC\Tools\MSVC\14.28.29333\include\xmemory
;	COMDAT ??1?$_Alloc_construct_ptr@V?$allocator@U?$_List_node@USTextLine@CPythonEventManager@@PAX@std@@@std@@@std@@QAE@XZ
_TEXT	SEGMENT
_this$ = -12						; size = 4
__Ptr$ = -8						; size = 4
_this$ = -4						; size = 4
??1?$_Alloc_construct_ptr@V?$allocator@U?$_List_node@USTextLine@CPythonEventManager@@PAX@std@@@std@@@std@@QAE@XZ PROC ; std::_Alloc_construct_ptr<std::allocator<std::_List_node<CPythonEventManager::STextLine,void *> > >::~_Alloc_construct_ptr<std::allocator<std::_List_node<CPythonEventManager::STextLine,void *> > >, COMDAT
; _this$ = ecx

; 1056 :     ~_Alloc_construct_ptr() { // if this instance is engaged, deallocate storage

  00000	55		 push	 ebp
  00001	8b ec		 mov	 ebp, esp
  00003	83 ec 0c	 sub	 esp, 12			; 0000000cH
  00006	89 4d fc	 mov	 DWORD PTR _this$[ebp], ecx

; 1057 :         if (_Ptr) {

  00009	8b 45 fc	 mov	 eax, DWORD PTR _this$[ebp]
  0000c	83 78 04 00	 cmp	 DWORD PTR [eax+4], 0
  00010	74 22		 je	 SHORT $LN3@Alloc_cons

; 1058 :             _Al.deallocate(_Ptr, 1);

  00012	8b 45 fc	 mov	 eax, DWORD PTR _this$[ebp]
  00015	8b 40 04	 mov	 eax, DWORD PTR [eax+4]
  00018	89 45 f8	 mov	 DWORD PTR __Ptr$[ebp], eax
  0001b	8b 45 fc	 mov	 eax, DWORD PTR _this$[ebp]
  0001e	8b 00		 mov	 eax, DWORD PTR [eax]
  00020	89 45 f4	 mov	 DWORD PTR _this$[ebp], eax

; 810  :         _Deallocate<_New_alignof<_Ty>>(_Ptr, sizeof(_Ty) * _Count);

  00023	33 c0		 xor	 eax, eax
  00025	40		 inc	 eax
  00026	6b c0 14	 imul	 eax, eax, 20
  00029	50		 push	 eax
  0002a	ff 75 f8	 push	 DWORD PTR __Ptr$[ebp]
  0002d	e8 00 00 00 00	 call	 ??$_Deallocate@$07$0A@@std@@YAXPAXI@Z ; std::_Deallocate<8,0>
  00032	59		 pop	 ecx
  00033	59		 pop	 ecx
$LN3@Alloc_cons:

; 1059 :         }
; 1060 :     }

  00034	c9		 leave
  00035	c3		 ret	 0
??1?$_Alloc_construct_ptr@V?$allocator@U?$_List_node@USTextLine@CPythonEventManager@@PAX@std@@@std@@@std@@QAE@XZ ENDP ; std::_Alloc_construct_ptr<std::allocator<std::_List_node<CPythonEventManager::STextLine,void *> > >::~_Alloc_construct_ptr<std::allocator<std::_List_node<CPythonEventManager::STextLine,void *> > >
_TEXT	ENDS
; Function compile flags: /Odspy
; File C:\Program Files (x86)\Microsoft Visual Studio\2019\Community\VC\Tools\MSVC\14.28.29333\include\xmemory
;	COMDAT ?_Allocate@?$_Alloc_construct_ptr@V?$allocator@U?$_List_node@USTextLine@CPythonEventManager@@PAX@std@@@std@@@std@@QAEXXZ
_TEXT	SEGMENT
__Max_possible$1 = -24					; size = 4
_this$ = -20						; size = 4
$T2 = -16						; size = 4
$T3 = -12						; size = 4
_this$ = -8						; size = 4
__Overflow_is_possible$4 = -1				; size = 1
?_Allocate@?$_Alloc_construct_ptr@V?$allocator@U?$_List_node@USTextLine@CPythonEventManager@@PAX@std@@@std@@@std@@QAEXXZ PROC ; std::_Alloc_construct_ptr<std::allocator<std::_List_node<CPythonEventManager::STextLine,void *> > >::_Allocate, COMDAT
; _this$ = ecx

; 1051 :     void _Allocate() { // disengage *this, then allocate a new memory block

  00000	55		 push	 ebp
  00001	8b ec		 mov	 ebp, esp
  00003	83 ec 18	 sub	 esp, 24			; 00000018H
  00006	89 4d f8	 mov	 DWORD PTR _this$[ebp], ecx

; 1052 :         _Ptr = nullptr; // if allocate throws, prevents double-free

  00009	8b 45 f8	 mov	 eax, DWORD PTR _this$[ebp]
  0000c	83 60 04 00	 and	 DWORD PTR [eax+4], 0

; 1053 :         _Ptr = _Al.allocate(1);

  00010	8b 45 f8	 mov	 eax, DWORD PTR _this$[ebp]
  00013	8b 00		 mov	 eax, DWORD PTR [eax]
  00015	89 45 ec	 mov	 DWORD PTR _this$[ebp], eax

; 56   :     constexpr bool _Overflow_is_possible = _Ty_size > 1;

  00018	c6 45 ff 01	 mov	 BYTE PTR __Overflow_is_possible$4[ebp], 1

; 57   : 
; 58   :     if _CONSTEXPR_IF (_Overflow_is_possible) {
; 59   :         constexpr size_t _Max_possible = static_cast<size_t>(-1) / _Ty_size;

  0001c	c7 45 e8 cc cc
	cc 0c		 mov	 DWORD PTR __Max_possible$1[ebp], 214748364 ; 0cccccccH

; 60   :         if (_Count > _Max_possible) {

  00023	33 c0		 xor	 eax, eax
  00025	40		 inc	 eax
  00026	3d cc cc cc 0c	 cmp	 eax, 214748364		; 0cccccccH
  0002b	76 05		 jbe	 SHORT $LN6@Allocate

; 61   :             _Throw_bad_array_new_length(); // multiply overflow

  0002d	e8 00 00 00 00	 call	 ?_Throw_bad_array_new_length@std@@YAXXZ ; std::_Throw_bad_array_new_length
$LN6@Allocate:

; 62   :         }
; 63   :     }
; 64   : 
; 65   :     return _Count * _Ty_size;

  00032	33 c0		 xor	 eax, eax
  00034	40		 inc	 eax
  00035	6b c0 14	 imul	 eax, eax, 20
  00038	89 45 f4	 mov	 DWORD PTR $T3[ebp], eax

; 814  :         return static_cast<_Ty*>(_Allocate<_New_alignof<_Ty>>(_Get_size_of_n<sizeof(_Ty)>(_Count)));

  0003b	ff 75 f4	 push	 DWORD PTR $T3[ebp]
  0003e	e8 00 00 00 00	 call	 ??$_Allocate@$07U_Default_allocate_traits@std@@$0A@@std@@YAPAXI@Z ; std::_Allocate<8,std::_Default_allocate_traits,0>
  00043	59		 pop	 ecx
  00044	89 45 f0	 mov	 DWORD PTR $T2[ebp], eax

; 1053 :         _Ptr = _Al.allocate(1);

  00047	8b 45 f8	 mov	 eax, DWORD PTR _this$[ebp]
  0004a	8b 4d f0	 mov	 ecx, DWORD PTR $T2[ebp]
  0004d	89 48 04	 mov	 DWORD PTR [eax+4], ecx
$LN9@Allocate:

; 1054 :     }

  00050	c9		 leave
  00051	c3		 ret	 0
?_Allocate@?$_Alloc_construct_ptr@V?$allocator@U?$_List_node@USTextLine@CPythonEventManager@@PAX@std@@@std@@@std@@QAEXXZ ENDP ; std::_Alloc_construct_ptr<std::allocator<std::_List_node<CPythonEventManager::STextLine,void *> > >::_Allocate
_TEXT	ENDS
; Function compile flags: /Odspy
; File C:\Program Files (x86)\Microsoft Visual Studio\2019\Community\VC\Tools\MSVC\14.28.29333\include\xmemory
;	COMDAT ??$_Destroy_range@V?$allocator@PAVCGraphicTextInstance@@@std@@@std@@YAXPAPAVCGraphicTextInstance@@QAPAV1@AAV?$allocator@PAVCGraphicTextInstance@@@0@@Z
_TEXT	SEGMENT
__First$ = 8						; size = 4
__Last$ = 12						; size = 4
__Al$ = 16						; size = 4
??$_Destroy_range@V?$allocator@PAVCGraphicTextInstance@@@std@@@std@@YAXPAPAVCGraphicTextInstance@@QAPAV1@AAV?$allocator@PAVCGraphicTextInstance@@@0@@Z PROC ; std::_Destroy_range<std::allocator<CGraphicTextInstance *> >, COMDAT

; 962  :     _Alloc_ptr_t<_Alloc> _First, const _Alloc_ptr_t<_Alloc> _Last, _Alloc& _Al) noexcept {

  00000	55		 push	 ebp
  00001	8b ec		 mov	 ebp, esp

; 963  :     // note that this is an optimization for debug mode codegen; in release mode the BE removes all of this
; 964  :     using _Ty = typename _Alloc::value_type;
; 965  :     if _CONSTEXPR_IF (!conjunction_v<is_trivially_destructible<_Ty>, _Uses_default_destroy<_Alloc, _Ty*>>) {
; 966  :         for (; _First != _Last; ++_First) {
; 967  :             allocator_traits<_Alloc>::destroy(_Al, _Unfancy(_First));
; 968  :         }
; 969  :     }
; 970  : }

  00003	5d		 pop	 ebp
  00004	c3		 ret	 0
??$_Destroy_range@V?$allocator@PAVCGraphicTextInstance@@@std@@@std@@YAXPAPAVCGraphicTextInstance@@QAPAV1@AAV?$allocator@PAVCGraphicTextInstance@@@0@@Z ENDP ; std::_Destroy_range<std::allocator<CGraphicTextInstance *> >
_TEXT	ENDS
; Function compile flags: /Odspy
; File C:\Program Files (x86)\Microsoft Visual Studio\2019\Community\VC\Tools\MSVC\14.28.29333\include\xtree
; File C:\Program Files (x86)\Microsoft Visual Studio\2019\Community\VC\Tools\MSVC\14.28.29333\include\xmemory
; File C:\Program Files (x86)\Microsoft Visual Studio\2019\Community\VC\Tools\MSVC\14.28.29333\include\xtree
;	COMDAT ??$_Buyheadnode@V?$allocator@U?$_Tree_node@U?$pair@$$CBV?$basic_string@DU?$char_traits@D@std@@V?$allocator@D@2@@std@@H@std@@PAX@std@@@std@@@?$_Tree_node@U?$pair@$$CBV?$basic_string@DU?$char_traits@D@std@@V?$allocator@D@2@@std@@H@std@@PAX@std@@SAPAU01@AAV?$allocator@U?$_Tree_node@U?$pair@$$CBV?$basic_string@DU?$char_traits@D@std@@V?$allocator@D@2@@std@@H@std@@PAX@std@@@1@@Z
_TEXT	SEGMENT
__Max_possible$1 = -20					; size = 4
$T2 = -16						; size = 4
$T3 = -12						; size = 4
__Pnode$ = -8						; size = 4
__Overflow_is_possible$4 = -1				; size = 1
__Al$ = 8						; size = 4
??$_Buyheadnode@V?$allocator@U?$_Tree_node@U?$pair@$$CBV?$basic_string@DU?$char_traits@D@std@@V?$allocator@D@2@@std@@H@std@@PAX@std@@@std@@@?$_Tree_node@U?$pair@$$CBV?$basic_string@DU?$char_traits@D@std@@V?$allocator@D@2@@std@@H@std@@PAX@std@@SAPAU01@AAV?$allocator@U?$_Tree_node@U?$pair@$$CBV?$basic_string@DU?$char_traits@D@std@@V?$allocator@D@2@@std@@H@std@@PAX@std@@@1@@Z PROC ; std::_Tree_node<std::pair<std::basic_string<char,std::char_traits<char>,std::allocator<char> > const ,int>,void *>::_Buyheadnode<std::allocator<std::_Tree_node<std::pair<std::basic_string<char,std::char_traits<char>,std::allocator<char> > const ,int>,void *> > >, COMDAT

; 341  :     static _Nodeptr _Buyheadnode(_Alloc& _Al) {

  00000	55		 push	 ebp
  00001	8b ec		 mov	 ebp, esp
  00003	83 ec 14	 sub	 esp, 20			; 00000014H
; File C:\Program Files (x86)\Microsoft Visual Studio\2019\Community\VC\Tools\MSVC\14.28.29333\include\xmemory

; 56   :     constexpr bool _Overflow_is_possible = _Ty_size > 1;

  00006	c6 45 ff 01	 mov	 BYTE PTR __Overflow_is_possible$4[ebp], 1

; 57   : 
; 58   :     if _CONSTEXPR_IF (_Overflow_is_possible) {
; 59   :         constexpr size_t _Max_possible = static_cast<size_t>(-1) / _Ty_size;

  0000a	c7 45 ec 5d 74
	d1 05		 mov	 DWORD PTR __Max_possible$1[ebp], 97612893 ; 05d1745dH

; 60   :         if (_Count > _Max_possible) {

  00011	33 c0		 xor	 eax, eax
  00013	40		 inc	 eax
  00014	3d 5d 74 d1 05	 cmp	 eax, 97612893		; 05d1745dH
  00019	76 05		 jbe	 SHORT $LN6@Buyheadnod

; 61   :             _Throw_bad_array_new_length(); // multiply overflow

  0001b	e8 00 00 00 00	 call	 ?_Throw_bad_array_new_length@std@@YAXXZ ; std::_Throw_bad_array_new_length
$LN6@Buyheadnod:

; 62   :         }
; 63   :     }
; 64   : 
; 65   :     return _Count * _Ty_size;

  00020	33 c0		 xor	 eax, eax
  00022	40		 inc	 eax
  00023	6b c0 2c	 imul	 eax, eax, 44
  00026	89 45 f4	 mov	 DWORD PTR $T3[ebp], eax

; 814  :         return static_cast<_Ty*>(_Allocate<_New_alignof<_Ty>>(_Get_size_of_n<sizeof(_Ty)>(_Count)));

  00029	ff 75 f4	 push	 DWORD PTR $T3[ebp]
  0002c	e8 00 00 00 00	 call	 ??$_Allocate@$07U_Default_allocate_traits@std@@$0A@@std@@YAPAXI@Z ; std::_Allocate<8,std::_Default_allocate_traits,0>
  00031	59		 pop	 ecx
  00032	89 45 f0	 mov	 DWORD PTR $T2[ebp], eax
