; Listing generated by Microsoft (R) Optimizing Compiler Version 19.28.29335.0 

	TITLE	D:\Metin2 Server Files\mainline\SRC_2014\Metin2Client\UserInterface\PythonNetworkStreamEvent.cpp
	.686P
	.XMM
	include listing.inc
	.model	flat

INCLUDELIB LIBCMT
INCLUDELIB OLDNAMES

PUBLIC	??_H@YGXPAXIIP6EPAX0@Z@Z			; `vector constructor iterator'
PUBLIC	?OnScriptEventStart@CPythonNetworkStream@@IAEXHH@Z ; CPythonNetworkStream::OnScriptEventStart
PUBLIC	?OnRemoteDisconnect@CPythonNetworkStream@@MAEXXZ ; CPythonNetworkStream::OnRemoteDisconnect
PUBLIC	?OnDisconnect@CPythonNetworkStream@@MAEXXZ	; CPythonNetworkStream::OnDisconnect
PUBLIC	??_C@_02HCKGKOFO@?$CI?$CJ@			; `string'
PUBLIC	??_C@_0O@PJEEOCNO@SetLoginPhase@		; `string'
PUBLIC	??_C@_04INACLLOK@?$CIii?$CJ@			; `string'
PUBLIC	??_C@_0BA@MPIMMMAP@OpenQuestWindow@		; `string'
EXTRN	__imp__Py_BuildValue:PROC
EXTRN	?PyCallClassMemberFunc@@YA_NPAU_object@@PBD0@Z:PROC ; PyCallClassMemberFunc
;	COMDAT ??_C@_0BA@MPIMMMAP@OpenQuestWindow@
CONST	SEGMENT
??_C@_0BA@MPIMMMAP@OpenQuestWindow@ DB 'OpenQuestWindow', 00H ; `string'
CONST	ENDS
;	COMDAT ??_C@_04INACLLOK@?$CIii?$CJ@
CONST	SEGMENT
??_C@_04INACLLOK@?$CIii?$CJ@ DB '(ii)', 00H		; `string'
CONST	ENDS
;	COMDAT ??_C@_0O@PJEEOCNO@SetLoginPhase@
CONST	SEGMENT
??_C@_0O@PJEEOCNO@SetLoginPhase@ DB 'SetLoginPhase', 00H ; `string'
CONST	ENDS
;	COMDAT ??_C@_02HCKGKOFO@?$CI?$CJ@
CONST	SEGMENT
??_C@_02HCKGKOFO@?$CI?$CJ@ DB '()', 00H			; `string'
CONST	ENDS
; Function compile flags: /Odspy
; File D:\Metin2 Server Files\mainline\SRC_2014\Metin2Client\UserInterface\PythonNetworkStreamEvent.cpp
;	COMDAT ?OnDisconnect@CPythonNetworkStream@@MAEXXZ
_TEXT	SEGMENT
_this$ = -4						; size = 4
?OnDisconnect@CPythonNetworkStream@@MAEXXZ PROC		; CPythonNetworkStream::OnDisconnect, COMDAT
; _this$ = ecx

; 10   : {

  00000	55		 push	 ebp
  00001	8b ec		 mov	 ebp, esp
  00003	51		 push	 ecx
  00004	89 4d fc	 mov	 DWORD PTR _this$[ebp], ecx

; 11   : }

  00007	c9		 leave
  00008	c3		 ret	 0
?OnDisconnect@CPythonNetworkStream@@MAEXXZ ENDP		; CPythonNetworkStream::OnDisconnect
_TEXT	ENDS
; Function compile flags: /Odspy
; File D:\Metin2 Server Files\mainline\SRC_2014\Metin2Client\UserInterface\PythonNetworkStreamEvent.cpp
;	COMDAT ?OnRemoteDisconnect@CPythonNetworkStream@@MAEXXZ
_TEXT	SEGMENT
_this$ = -4						; size = 4
?OnRemoteDisconnect@CPythonNetworkStream@@MAEXXZ PROC	; CPythonNetworkStream::OnRemoteDisconnect, COMDAT
; _this$ = ecx

; 5    : {

  00000	55		 push	 ebp
  00001	8b ec		 mov	 ebp, esp
  00003	51		 push	 ecx
  00004	89 4d fc	 mov	 DWORD PTR _this$[ebp], ecx

; 6    : 	PyCallClassMemberFunc(m_poHandler, "SetLoginPhase", Py_BuildValue("()"));

  00007	68 00 00 00 00	 push	 OFFSET ??_C@_02HCKGKOFO@?$CI?$CJ@
  0000c	ff 15 00 00 00
	00		 call	 DWORD PTR __imp__Py_BuildValue
  00012	59		 pop	 ecx
  00013	50		 push	 eax
  00014	68 00 00 00 00	 push	 OFFSET ??_C@_0O@PJEEOCNO@SetLoginPhase@
  00019	8b 45 fc	 mov	 eax, DWORD PTR _this$[ebp]
  0001c	ff b0 78 01 00
	00		 push	 DWORD PTR [eax+376]
  00022	e8 00 00 00 00	 call	 ?PyCallClassMemberFunc@@YA_NPAU_object@@PBD0@Z ; PyCallClassMemberFunc
  00027	83 c4 0c	 add	 esp, 12			; 0000000cH

; 7    : }

  0002a	c9		 leave
  0002b	c3		 ret	 0
?OnRemoteDisconnect@CPythonNetworkStream@@MAEXXZ ENDP	; CPythonNetworkStream::OnRemoteDisconnect
_TEXT	ENDS
; Function compile flags: /Odspy
; File D:\Metin2 Server Files\mainline\SRC_2014\Metin2Client\UserInterface\PythonNetworkStreamEvent.cpp
;	COMDAT ?OnScriptEventStart@CPythonNetworkStream@@IAEXHH@Z
_TEXT	SEGMENT
_this$ = -4						; size = 4
_iSkin$ = 8						; size = 4
_iIndex$ = 12						; size = 4
?OnScriptEventStart@CPythonNetworkStream@@IAEXHH@Z PROC	; CPythonNetworkStream::OnScriptEventStart, COMDAT
; _this$ = ecx

; 16   : {

  00000	55		 push	 ebp
  00001	8b ec		 mov	 ebp, esp
  00003	51		 push	 ecx
  00004	89 4d fc	 mov	 DWORD PTR _this$[ebp], ecx

; 17   : 	PyCallClassMemberFunc(m_apoPhaseWnd[PHASE_WINDOW_GAME], "OpenQuestWindow", Py_BuildValue("(ii)", iSkin, iIndex));

  00007	ff 75 0c	 push	 DWORD PTR _iIndex$[ebp]
  0000a	ff 75 08	 push	 DWORD PTR _iSkin$[ebp]
  0000d	68 00 00 00 00	 push	 OFFSET ??_C@_04INACLLOK@?$CIii?$CJ@
  00012	ff 15 00 00 00
	00		 call	 DWORD PTR __imp__Py_BuildValue
  00018	83 c4 0c	 add	 esp, 12			; 0000000cH
  0001b	50		 push	 eax
  0001c	68 00 00 00 00	 push	 OFFSET ??_C@_0BA@MPIMMMAP@OpenQuestWindow@
  00021	6a 04		 push	 4
  00023	58		 pop	 eax
  00024	6b c0 05	 imul	 eax, eax, 5
  00027	8b 4d fc	 mov	 ecx, DWORD PTR _this$[ebp]
  0002a	ff b4 01 7c 01
	00 00		 push	 DWORD PTR [ecx+eax+380]
  00031	e8 00 00 00 00	 call	 ?PyCallClassMemberFunc@@YA_NPAU_object@@PBD0@Z ; PyCallClassMemberFunc
  00036	83 c4 0c	 add	 esp, 12			; 0000000cH

; 18   : }

  00039	c9		 leave
  0003a	c2 08 00	 ret	 8
?OnScriptEventStart@CPythonNetworkStream@@IAEXHH@Z ENDP	; CPythonNetworkStream::OnScriptEventStart
_TEXT	ENDS
; Function compile flags: /Odspy
;	COMDAT ??_H@YGXPAXIIP6EPAX0@Z@Z
_TEXT	SEGMENT
tv66 = -4						; size = 4
___t$ = 8						; size = 4
___s$ = 12						; size = 4
___n$ = 16						; size = 4
___f$ = 20						; size = 4
??_H@YGXPAXIIP6EPAX0@Z@Z PROC				; `vector constructor iterator', COMDAT
  00000	55		 push	 ebp
  00001	8b ec		 mov	 ebp, esp
  00003	51		 push	 ecx
$LN2@vector:
  00004	8b 45 10	 mov	 eax, DWORD PTR ___n$[ebp]
  00007	89 45 fc	 mov	 DWORD PTR tv66[ebp], eax
  0000a	8b 45 10	 mov	 eax, DWORD PTR ___n$[ebp]
  0000d	48		 dec	 eax
  0000e	89 45 10	 mov	 DWORD PTR ___n$[ebp], eax
  00011	83 7d fc 00	 cmp	 DWORD PTR tv66[ebp], 0
  00015	76 11		 jbe	 SHORT $LN1@vector
  00017	8b 4d 08	 mov	 ecx, DWORD PTR ___t$[ebp]
  0001a	ff 55 14	 call	 DWORD PTR ___f$[ebp]
  0001d	8b 45 08	 mov	 eax, DWORD PTR ___t$[ebp]
  00020	03 45 0c	 add	 eax, DWORD PTR ___s$[ebp]
  00023	89 45 08	 mov	 DWORD PTR ___t$[ebp], eax
  00026	eb dc		 jmp	 SHORT $LN2@vector
$LN1@vector:
  00028	c9		 leave
  00029	c2 10 00	 ret	 16			; 00000010H
??_H@YGXPAXIIP6EPAX0@Z@Z ENDP				; `vector constructor iterator'
_TEXT	ENDS
END
