; Listing generated by Microsoft (R) Optimizing Compiler Version 19.28.29335.0 

	TITLE	D:\Metin2 Server Files\mainline\SRC_2014\Metin2Client\UserInterface\PythonBackgroundModule.cpp
	.686P
	.XMM
	include listing.inc
	.model	flat

INCLUDELIB LIBCMT
INCLUDELIB OLDNAMES

PUBLIC	??_H@YGXPAXIIP6EPAX0@Z@Z			; `vector constructor iterator'
PUBLIC	___local_stdio_printf_options
PUBLIC	__snprintf
PUBLIC	??0exception@std@@QAE@ABV01@@Z			; std::exception::exception
PUBLIC	?what@exception@std@@UBEPBDXZ			; std::exception::what
PUBLIC	??_Gexception@std@@UAEPAXI@Z			; std::exception::`scalar deleting destructor'
PUBLIC	??0bad_alloc@std@@QAE@ABV01@@Z			; std::bad_alloc::bad_alloc
PUBLIC	??_Gbad_alloc@std@@UAEPAXI@Z			; std::bad_alloc::`scalar deleting destructor'
PUBLIC	??0bad_array_new_length@std@@QAE@XZ		; std::bad_array_new_length::bad_array_new_length
PUBLIC	??1bad_array_new_length@std@@UAE@XZ		; std::bad_array_new_length::~bad_array_new_length
PUBLIC	??0bad_array_new_length@std@@QAE@ABV01@@Z	; std::bad_array_new_length::bad_array_new_length
PUBLIC	??_Gbad_array_new_length@std@@UAEPAXI@Z		; std::bad_array_new_length::`scalar deleting destructor'
PUBLIC	?_Throw_bad_array_new_length@std@@YAXXZ		; std::_Throw_bad_array_new_length
PUBLIC	?_Adjust_manually_vector_aligned@std@@YAXAAPAXAAI@Z ; std::_Adjust_manually_vector_aligned
PUBLIC	?_Xlen_string@std@@YAXXZ			; std::_Xlen_string
PUBLIC	?_Myptr@?$_String_val@U?$_Simple_types@D@std@@@std@@QAEPADXZ ; std::_String_val<std::_Simple_types<char> >::_Myptr
PUBLIC	?_Myptr@?$_String_val@U?$_Simple_types@D@std@@@std@@QBEPBDXZ ; std::_String_val<std::_Simple_types<char> >::_Myptr
PUBLIC	??0?$basic_string@DU?$char_traits@D@std@@V?$allocator@D@2@@std@@QAE@QBD@Z ; std::basic_string<char,std::char_traits<char>,std::allocator<char> >::basic_string<char,std::char_traits<char>,std::allocator<char> >
PUBLIC	??1?$basic_string@DU?$char_traits@D@std@@V?$allocator@D@2@@std@@QAE@XZ ; std::basic_string<char,std::char_traits<char>,std::allocator<char> >::~basic_string<char,std::char_traits<char>,std::allocator<char> >
PUBLIC	?assign@?$basic_string@DU?$char_traits@D@std@@V?$allocator@D@2@@std@@QAEAAV12@QBDI@Z ; std::basic_string<char,std::char_traits<char>,std::allocator<char> >::assign
PUBLIC	?max_size@?$basic_string@DU?$char_traits@D@std@@V?$allocator@D@2@@std@@QBEIXZ ; std::basic_string<char,std::char_traits<char>,std::allocator<char> >::max_size
PUBLIC	?_Calculate_growth@?$basic_string@DU?$char_traits@D@std@@V?$allocator@D@2@@std@@ABEII@Z ; std::basic_string<char,std::char_traits<char>,std::allocator<char> >::_Calculate_growth
PUBLIC	?_Tidy_init@?$basic_string@DU?$char_traits@D@std@@V?$allocator@D@2@@std@@AAEXXZ ; std::basic_string<char,std::char_traits<char>,std::allocator<char> >::_Tidy_init
PUBLIC	?_Tidy_deallocate@?$basic_string@DU?$char_traits@D@std@@V?$allocator@D@2@@std@@AAEXXZ ; std::basic_string<char,std::char_traits<char>,std::allocator<char> >::_Tidy_deallocate
PUBLIC	??1?$_Compressed_pair@V?$allocator@D@std@@V?$_String_val@U?$_Simple_types@D@std@@@2@$00@std@@QAE@XZ ; std::_Compressed_pair<std::allocator<char>,std::_String_val<std::_Simple_types<char> >,1>::~_Compressed_pair<std::allocator<char>,std::_String_val<std::_Simple_types<char> >,1>
PUBLIC	?initBackground@@YAXXZ				; initBackground
PUBLIC	??$_Destroy_in_place@PAD@std@@YAXAAPAD@Z	; std::_Destroy_in_place<char *>
PUBLIC	??$_Reallocate_for@V<lambda_9366063389c5f42a00a5088cf24e69de>@@PBD@?$basic_string@DU?$char_traits@D@std@@V?$allocator@D@2@@std@@AAEAAV01@IV<lambda_9366063389c5f42a00a5088cf24e69de>@@PBD@Z ; std::basic_string<char,std::char_traits<char>,std::allocator<char> >::_Reallocate_for<<lambda_9366063389c5f42a00a5088cf24e69de>,char const *>
PUBLIC	??$_Construct_in_place@PADABQAD@std@@YAXAAPADABQAD@Z ; std::_Construct_in_place<char *,char * const &>
PUBLIC	??$_Deallocate@$07$0A@@std@@YAXPAXI@Z		; std::_Deallocate<8,0>
PUBLIC	??$_Allocate@$07U_Default_allocate_traits@std@@$0A@@std@@YAPAXI@Z ; std::_Allocate<8,std::_Default_allocate_traits,0>
PUBLIC	??$_Allocate_manually_vector_aligned@U_Default_allocate_traits@std@@@std@@YAPAXI@Z ; std::_Allocate_manually_vector_aligned<std::_Default_allocate_traits>
PUBLIC	?backgroundIsSoftwareTiling@@YAPAU_object@@PAU1@0@Z ; backgroundIsSoftwareTiling
PUBLIC	?backgroundEnableSoftwareTiling@@YAPAU_object@@PAU1@0@Z ; backgroundEnableSoftwareTiling
PUBLIC	?backgroundEnableSnow@@YAPAU_object@@PAU1@0@Z	; backgroundEnableSnow
PUBLIC	?backgroundLoadMap@@YAPAU_object@@PAU1@0@Z	; backgroundLoadMap
PUBLIC	?backgroundDestroy@@YAPAU_object@@PAU1@0@Z	; backgroundDestroy
PUBLIC	?backgroundRegisterEnvironmentData@@YAPAU_object@@PAU1@0@Z ; backgroundRegisterEnvironmentData
PUBLIC	?backgroundSetEnvironmentData@@YAPAU_object@@PAU1@0@Z ; backgroundSetEnvironmentData
PUBLIC	?backgroundGetCurrentMapName@@YAPAU_object@@PAU1@0@Z ; backgroundGetCurrentMapName
PUBLIC	?backgroundGetPickingPoint@@YAPAU_object@@PAU1@0@Z ; backgroundGetPickingPoint
PUBLIC	?backgroundBeginEnvironment@@YAPAU_object@@PAU1@0@Z ; backgroundBeginEnvironment
PUBLIC	?backgroundEndEnvironemt@@YAPAU_object@@PAU1@0@Z ; backgroundEndEnvironemt
PUBLIC	?backgroundSetCharacterDirLight@@YAPAU_object@@PAU1@0@Z ; backgroundSetCharacterDirLight
PUBLIC	?backgroundSetBackgroundDirLight@@YAPAU_object@@PAU1@0@Z ; backgroundSetBackgroundDirLight
PUBLIC	?backgroundInitialize@@YAPAU_object@@PAU1@0@Z	; backgroundInitialize
PUBLIC	?backgroundUpdate@@YAPAU_object@@PAU1@0@Z	; backgroundUpdate
PUBLIC	?backgroundRender@@YAPAU_object@@PAU1@0@Z	; backgroundRender
PUBLIC	?backgroundRenderPCBlocker@@YAPAU_object@@PAU1@0@Z ; backgroundRenderPCBlocker
PUBLIC	?backgroundRenderCollision@@YAPAU_object@@PAU1@0@Z ; backgroundRenderCollision
PUBLIC	?backgroundRenderSky@@YAPAU_object@@PAU1@0@Z	; backgroundRenderSky
PUBLIC	?backgroundRenderCloud@@YAPAU_object@@PAU1@0@Z	; backgroundRenderCloud
PUBLIC	?backgroundRenderWater@@YAPAU_object@@PAU1@0@Z	; backgroundRenderWater
PUBLIC	?backgroundRenderEffect@@YAPAU_object@@PAU1@0@Z	; backgroundRenderEffect
PUBLIC	?backgroundRenderBeforeLensFlare@@YAPAU_object@@PAU1@0@Z ; backgroundRenderBeforeLensFlare
PUBLIC	?backgroundRenderAfterLensFlare@@YAPAU_object@@PAU1@0@Z ; backgroundRenderAfterLensFlare
PUBLIC	?backgroundRenderCharacterShadowToTexture@@YAPAU_object@@PAU1@0@Z ; backgroundRenderCharacterShadowToTexture
PUBLIC	?backgroundRenderDungeon@@YAPAU_object@@PAU1@0@Z ; backgroundRenderDungeon
PUBLIC	?backgroundGetHeight@@YAPAU_object@@PAU1@0@Z	; backgroundGetHeight
PUBLIC	?backgroundGetRenderedSplatNum@@YAPAU_object@@PAU1@0@Z ; backgroundGetRenderedSplatNum
PUBLIC	?backgroundGetRenderedGTINum@@YAPAU_object@@PAU1@0@Z ; backgroundGetRenderedGTINum
PUBLIC	?backgroundGetRenderShadowTime@@YAPAU_object@@PAU1@0@Z ; backgroundGetRenderShadowTime
PUBLIC	?backgroundGetShadowMapcolor@@YAPAU_object@@PAU1@0@Z ; backgroundGetShadowMapcolor
PUBLIC	?backgroundSetShadowLevel@@YAPAU_object@@PAU1@0@Z ; backgroundSetShadowLevel
PUBLIC	?backgroundSetVisiblePart@@YAPAU_object@@PAU1@0@Z ; backgroundSetVisiblePart
PUBLIC	?backgroundSetSpaltLimit@@YAPAU_object@@PAU1@0@Z ; backgroundSetSpaltLimit
PUBLIC	?backgroundSelectViewDistanceNum@@YAPAU_object@@PAU1@0@Z ; backgroundSelectViewDistanceNum
PUBLIC	?backgroundSetViewDistanceSet@@YAPAU_object@@PAU1@0@Z ; backgroundSetViewDistanceSet
PUBLIC	?backgroundGetFarClip@@YAPAU_object@@PAU1@0@Z	; backgroundGetFarClip
PUBLIC	?backgroundGetDistanceSetInfo@@YAPAU_object@@PAU1@0@Z ; backgroundGetDistanceSetInfo
PUBLIC	?backgroundSetBGLoading@@YAPAU_object@@PAU1@0@Z	; backgroundSetBGLoading
PUBLIC	?backgroundSetRenderSort@@YAPAU_object@@PAU1@0@Z ; backgroundSetRenderSort
PUBLIC	?backgroundSetTransparentTree@@YAPAU_object@@PAU1@0@Z ; backgroundSetTransparentTree
PUBLIC	?backgroundGlobalPositionToLocalPosition@@YAPAU_object@@PAU1@0@Z ; backgroundGlobalPositionToLocalPosition
PUBLIC	?backgroundGlobalPositionToMapInfo@@YAPAU_object@@PAU1@0@Z ; backgroundGlobalPositionToMapInfo
PUBLIC	?backgroundWarpTest@@YAPAU_object@@PAU1@0@Z	; backgroundWarpTest
PUBLIC	?backgroundSetXMasTree@@YAPAU_object@@PAU1@0@Z	; backgroundSetXMasTree
PUBLIC	?backgroundRegisterDungeonMapName@@YAPAU_object@@PAU1@0@Z ; backgroundRegisterDungeonMapName
PUBLIC	?backgroundVisibleGuildArea@@YAPAU_object@@PAU1@0@Z ; backgroundVisibleGuildArea
PUBLIC	?backgroundDisableGuildArea@@YAPAU_object@@PAU1@0@Z ; backgroundDisableGuildArea
PUBLIC	?_OptionsStorage@?1??__local_stdio_printf_options@@9@4_KA ; `__local_stdio_printf_options'::`2'::_OptionsStorage
PUBLIC	??_7exception@std@@6B@				; std::exception::`vftable'
PUBLIC	??_C@_0BC@EOODALEL@Unknown?5exception@		; `string'
PUBLIC	??_7bad_alloc@std@@6B@				; std::bad_alloc::`vftable'
PUBLIC	??_7bad_array_new_length@std@@6B@		; std::bad_array_new_length::`vftable'
PUBLIC	??_C@_0BF@KINCDENJ@bad?5array?5new?5length@	; `string'
PUBLIC	__TI3?AVbad_array_new_length@std@@
PUBLIC	__CTA3?AVbad_array_new_length@std@@
PUBLIC	??_R0?AVbad_array_new_length@std@@@8		; std::bad_array_new_length `RTTI Type Descriptor'
PUBLIC	__CT??_R0?AVbad_array_new_length@std@@@8??0bad_array_new_length@std@@QAE@ABV01@@Z12
PUBLIC	??_R0?AVbad_alloc@std@@@8			; std::bad_alloc `RTTI Type Descriptor'
PUBLIC	__CT??_R0?AVbad_alloc@std@@@8??0bad_alloc@std@@QAE@ABV01@@Z12
PUBLIC	??_R0?AVexception@std@@@8			; std::exception `RTTI Type Descriptor'
PUBLIC	__CT??_R0?AVexception@std@@@8??0exception@std@@QAE@ABV01@@Z12
PUBLIC	??_C@_0BA@JFNIOLAK@string?5too?5long@		; `string'
PUBLIC	??_C@_00CNPNBAHC@@				; `string'
PUBLIC	??_R4exception@std@@6B@				; std::exception::`RTTI Complete Object Locator'
PUBLIC	??_R3exception@std@@8				; std::exception::`RTTI Class Hierarchy Descriptor'
PUBLIC	??_R2exception@std@@8				; std::exception::`RTTI Base Class Array'
PUBLIC	??_R1A@?0A@EA@exception@std@@8			; std::exception::`RTTI Base Class Descriptor at (0,-1,0,64)'
PUBLIC	??_R4bad_alloc@std@@6B@				; std::bad_alloc::`RTTI Complete Object Locator'
PUBLIC	??_R3bad_alloc@std@@8				; std::bad_alloc::`RTTI Class Hierarchy Descriptor'
PUBLIC	??_R2bad_alloc@std@@8				; std::bad_alloc::`RTTI Base Class Array'
PUBLIC	??_R1A@?0A@EA@bad_alloc@std@@8			; std::bad_alloc::`RTTI Base Class Descriptor at (0,-1,0,64)'
PUBLIC	??_R4bad_array_new_length@std@@6B@		; std::bad_array_new_length::`RTTI Complete Object Locator'
PUBLIC	??_R3bad_array_new_length@std@@8		; std::bad_array_new_length::`RTTI Class Hierarchy Descriptor'
PUBLIC	??_R2bad_array_new_length@std@@8		; std::bad_array_new_length::`RTTI Base Class Array'
PUBLIC	??_R1A@?0A@EA@bad_array_new_length@std@@8	; std::bad_array_new_length::`RTTI Base Class Descriptor at (0,-1,0,64)'
PUBLIC	?ms_singleton@?$CSingleton@VCPythonSystem@@@@0PAVCPythonSystem@@A ; CSingleton<CPythonSystem>::ms_singleton
PUBLIC	?ms_singleton@?$CSingleton@VCPythonBackground@@@@0PAVCPythonBackground@@A ; CSingleton<CPythonBackground>::ms_singleton
PUBLIC	??_C@_01KBJDNOO@i@				; `string'
PUBLIC	??_C@_0EI@HLELLDPI@background?4RegisterEnvironmentD@ ; `string'
PUBLIC	??_C@_01LKDEMHDF@s@				; `string'
PUBLIC	??_C@_03LPALPDIP@fff@				; `string'
PUBLIC	??_C@_01INIBCBCB@f@				; `string'
PUBLIC	??_C@_03JDANDILB@?$CFd?5@			; `string'
PUBLIC	??_C@_04KDJJDIPA@iifs@				; `string'
PUBLIC	??_C@_02PDIHAGKM@ii@				; `string'
PUBLIC	??_C@_0CC@JHPGFABG@ePart?$CI?$CFd?$CJ?$DMbackground?4PART_NUM?$CI?$CF@ ; `string'
PUBLIC	??_C@_0CL@HHHOJMJN@background?4SetSplatLimit?$CIiSplat@ ; `string'
PUBLIC	??_C@_04MMEPMOLC@ifff@				; `string'
PUBLIC	??_C@_03FEAIAPNA@sii@				; `string'
PUBLIC	??_C@_0BB@BFKDCFBH@IsSoftwareTiling@		; `string'
PUBLIC	??_C@_0BF@ODLMFADE@EnableSoftwareTiling@	; `string'
PUBLIC	??_C@_0L@LGAPBDCD@EnableSnow@			; `string'
PUBLIC	??_C@_0BO@OIANPCLB@GlobalPositionToLocalPosition@ ; `string'
PUBLIC	??_C@_0BI@NCKBLOGC@GlobalPositionToMapInfo@	; `string'
PUBLIC	??_C@_0BE@LMGPCAD@GetRenderShadowTime@		; `string'
PUBLIC	??_C@_07DJFPJOEL@LoadMap@			; `string'
PUBLIC	??_C@_07BDCAJABG@Destroy@			; `string'
PUBLIC	??_C@_0BI@CHPHFBLI@RegisterEnvironmentData@	; `string'
PUBLIC	??_C@_0BD@BHFOHELP@SetEnvironmentData@		; `string'
PUBLIC	??_C@_0BC@DINKEDB@GetCurrentMapName@		; `string'
PUBLIC	??_C@_0BA@DNJBOOGC@GetPickingPoint@		; `string'
PUBLIC	??_C@_0BB@JHBDNCLO@BeginEnvironment@		; `string'
PUBLIC	??_C@_0P@DMJMMGKP@EndEnvironment@		; `string'
PUBLIC	??_C@_0BF@DFKOLKBM@SetCharacterDirLight@	; `string'
PUBLIC	??_C@_0BG@PNPLCIKE@SetBackgroundDirLight@	; `string'
PUBLIC	??_C@_0L@KIAPHAEH@Initialize@			; `string'
PUBLIC	??_C@_06LMAGPFNF@Update@			; `string'
PUBLIC	??_C@_06EPLDPNDB@Render@			; `string'
PUBLIC	??_C@_0BA@FDBALAKK@RenderPCBlocker@		; `string'
PUBLIC	??_C@_0BA@OAOAOPAN@RenderCollision@		; `string'
PUBLIC	??_C@_09LFBELEBM@RenderSky@			; `string'
PUBLIC	??_C@_0M@LNFEENAM@RenderCloud@			; `string'
PUBLIC	??_C@_0M@FKCFAPAJ@RenderWater@			; `string'
PUBLIC	??_C@_0N@NIFFJBKD@RenderEffect@			; `string'
PUBLIC	??_C@_0BG@FMKIIHNL@RenderBeforeLensFlare@	; `string'
PUBLIC	??_C@_0BF@IFHDODFN@RenderAfterLensFlare@	; `string'
PUBLIC	??_C@_0BP@HPJLNAG@RenderCharacterShadowToTexture@ ; `string'
PUBLIC	??_C@_0O@INGOKFGH@RenderDungeon@		; `string'
PUBLIC	??_C@_09EOGEIJMK@GetHeight@			; `string'
PUBLIC	??_C@_0P@JLOPHJNK@SetShadowLevel@		; `string'
PUBLIC	??_C@_0P@PBNEJLOP@SetVisiblePart@		; `string'
PUBLIC	??_C@_0BC@CCJLGKJP@GetShadowMapColor@		; `string'
PUBLIC	??_C@_0O@MBDLBPAA@SetSplatLimit@		; `string'
PUBLIC	??_C@_0BE@OLLMHPAP@GetRenderedSplatNum@		; `string'
PUBLIC	??_C@_0CD@KCFKJMJJ@GetRenderedGraphicThingInstance@ ; `string'
PUBLIC	??_C@_0BG@HJLACBME@SelectViewDistanceNum@	; `string'
PUBLIC	??_C@_0BD@MAFLMANF@SetViewDistanceSet@		; `string'
PUBLIC	??_C@_0L@HDMJNMBI@GetFarClip@			; `string'
PUBLIC	??_C@_0BD@DLMMDNAG@GetDistanceSetInfo@		; `string'
PUBLIC	??_C@_0N@BIHACEOH@SetBGLoading@			; `string'
PUBLIC	??_C@_0O@JBGHJBE@SetRenderSort@			; `string'
PUBLIC	??_C@_0BD@FPJHLEBA@SetTransparentTree@		; `string'
PUBLIC	??_C@_0M@JALIDFKN@SetXMasTree@			; `string'
PUBLIC	??_C@_0BH@MNHHOIMG@RegisterDungeonMapName@	; `string'
PUBLIC	??_C@_0BB@CIANHCAN@VisibleGuildArea@		; `string'
PUBLIC	??_C@_0BB@NIDJGFIB@DisableGuildArea@		; `string'
PUBLIC	??_C@_08LPNOKPMJ@WarpTest@			; `string'
PUBLIC	??_C@_0L@EGCKCJDC@background@			; `string'
PUBLIC	??_C@_08NJILKGEB@PART_SKY@			; `string'
PUBLIC	??_C@_09GABNPPB@PART_TREE@			; `string'
PUBLIC	??_C@_0L@OMDBBBIA@PART_CLOUD@			; `string'
PUBLIC	??_C@_0L@LEAFDIF@PART_WATER@			; `string'
PUBLIC	??_C@_0M@FDJPOPAP@PART_OBJECT@			; `string'
PUBLIC	??_C@_0N@JJNCMAMK@PART_TERRAIN@			; `string'
PUBLIC	??_C@_0BI@KFLFFAKF@SKY_RENDER_MODE_DEFAULT@	; `string'
PUBLIC	??_C@_0BI@JEJGCBJM@SKY_RENDER_MODE_DIFFUSE@	; `string'
PUBLIC	??_C@_0BI@NLDLHPN@SKY_RENDER_MODE_TEXTURE@	; `string'
PUBLIC	??_C@_0BJ@IGDGIPGO@SKY_RENDER_MODE_MODULATE@	; `string'
PUBLIC	??_C@_0BL@NDPELIAM@SKY_RENDER_MODE_MODULATE2X@	; `string'
PUBLIC	??_C@_0BL@NHHJMELO@SKY_RENDER_MODE_MODULATE4X@	; `string'
PUBLIC	??_C@_0M@GJOLHPMA@SHADOW_NONE@			; `string'
PUBLIC	??_C@_0O@KCPINCHK@SHADOW_GROUND@		; `string'
PUBLIC	??_C@_0BH@GACINHHJ@SHADOW_GROUND_AND_SOLO@	; `string'
PUBLIC	??_C@_0L@IDBIEHAB@SHADOW_ALL@			; `string'
PUBLIC	??_C@_0BA@HAKJACB@SHADOW_ALL_HIGH@		; `string'
PUBLIC	??_C@_0P@OLMEFOLC@SHADOW_ALL_MAX@		; `string'
PUBLIC	??_C@_09PGFHANGE@DISTANCE0@			; `string'
PUBLIC	??_C@_09OPEMDMCF@DISTANCE1@			; `string'
PUBLIC	??_C@_09MEGBGPOG@DISTANCE2@			; `string'
PUBLIC	??_C@_09NNHKFOKH@DISTANCE3@			; `string'
PUBLIC	??_C@_09JCDLMIGA@DISTANCE4@			; `string'
PUBLIC	??_C@_0O@OJDBENMM@DISTANCE_SORT@		; `string'
PUBLIC	??_C@_0N@CKPMLBKJ@TEXTURE_SORT@			; `string'
PUBLIC	__xmm@80000000800000008000000080000000
EXTRN	??2@YAPAXI@Z:PROC				; operator new
EXTRN	??3@YAXPAXI@Z:PROC				; operator delete
EXTRN	__invalid_parameter_noinfo_noreturn:PROC
EXTRN	_memcpy:PROC
EXTRN	_memmove:PROC
EXTRN	_strlen:PROC
EXTRN	___stdio_common_vsprintf:PROC
EXTRN	___std_exception_copy:PROC
EXTRN	___std_exception_destroy:PROC
EXTRN	??_Eexception@std@@UAEPAXI@Z:PROC		; std::exception::`vector deleting destructor'
EXTRN	??_Ebad_alloc@std@@UAEPAXI@Z:PROC		; std::bad_alloc::`vector deleting destructor'
EXTRN	??_Ebad_array_new_length@std@@UAEPAXI@Z:PROC	; std::bad_array_new_length::`vector deleting destructor'
EXTRN	?_Xlength_error@std@@YAXPBD@Z:PROC		; std::_Xlength_error
EXTRN	?TraceError@@YAXPBDZZ:PROC			; TraceError
EXTRN	__imp__Py_BuildValue:PROC
EXTRN	__imp__PyModule_AddIntConstant:PROC
EXTRN	__imp__Py_InitModule4:PROC
EXTRN	?PyTuple_GetString@@YA_NPAU_object@@HPAPAD@Z:PROC ; PyTuple_GetString
EXTRN	?PyTuple_GetInteger@@YA_NPAU_object@@HPAH@Z:PROC ; PyTuple_GetInteger
EXTRN	?PyTuple_GetFloat@@YA_NPAU_object@@HPAM@Z:PROC	; PyTuple_GetFloat
EXTRN	?PyTuple_GetBoolean@@YA_NPAU_object@@HPA_N@Z:PROC ; PyTuple_GetBoolean
EXTRN	?Py_BuildException@@YAPAU_object@@PBDZZ:PROC	; Py_BuildException
EXTRN	?Py_BadArgument@@YAPAU_object@@XZ:PROC		; Py_BadArgument
EXTRN	?Py_BuildNone@@YAPAU_object@@XZ:PROC		; Py_BuildNone
EXTRN	?SetSoftwareTiling@CPythonSystem@@QAEX_N@Z:PROC	; CPythonSystem::SetSoftwareTiling
EXTRN	?IsSoftwareTilingEnable@CMapManager@@QAE_NXZ:PROC ; CMapManager::IsSoftwareTilingEnable
EXTRN	?ReserveSoftwareTilingEnable@CMapManager@@QAEX_N@Z:PROC ; CMapManager::ReserveSoftwareTilingEnable
EXTRN	?GetHeight@CMapManager@@QAEMMM@Z:PROC		; CMapManager::GetHeight
EXTRN	?ResetEnvironmentDataPtr@CMapManager@@QAEXPBUSEnvironmentData@@@Z:PROC ; CMapManager::ResetEnvironmentDataPtr
EXTRN	?BeginEnvironment@CMapManager@@QAEXXZ:PROC	; CMapManager::BeginEnvironment
EXTRN	?EndEnvironment@CMapManager@@QAEXXZ:PROC	; CMapManager::EndEnvironment
EXTRN	?RegisterEnvironmentData@CMapManager@@QAE_NKPBD@Z:PROC ; CMapManager::RegisterEnvironmentData
EXTRN	?GetEnvironmentData@CMapManager@@QAE_NKPAPBUSEnvironmentData@@@Z:PROC ; CMapManager::GetEnvironmentData
EXTRN	?GetShadowMapColor@CMapManager@@QAEKMM@Z:PROC	; CMapManager::GetShadowMapColor
EXTRN	?GetRenderedSplatNum@CMapManager@@QAEAAV?$vector@HV?$allocator@H@std@@@std@@PAH0PAM@Z:PROC ; CMapManager::GetRenderedSplatNum
EXTRN	?GetRenderedGraphicThingInstanceNum@CMapManager@@QAEAAV?$vector@USCRCWithNumber@CArea@@V?$allocator@USCRCWithNumber@CArea@@@std@@@std@@PAK0@Z:PROC ; CMapManager::GetRenderedGraphicThingInstanceNum
EXTRN	?SetTerrainRenderSort@CMapManager@@QAEXW4ETerrainRenderSort@CMapOutdoor@@@Z:PROC ; CMapManager::SetTerrainRenderSort
EXTRN	?SetTransparentTree@CMapManager@@QAEX_N@Z:PROC	; CMapManager::SetTransparentTree
EXTRN	?Destroy@CPythonBackground@@QAEXXZ:PROC		; CPythonBackground::Destroy
EXTRN	?Create@CPythonBackground@@QAEXXZ:PROC		; CPythonBackground::Create
EXTRN	?GlobalPositionToLocalPosition@CPythonBackground@@QAEXAAJ0@Z:PROC ; CPythonBackground::GlobalPositionToLocalPosition
EXTRN	?SetSplatLimit@CPythonBackground@@QAE_NH@Z:PROC	; CPythonBackground::SetSplatLimit
EXTRN	?SetVisiblePart@CPythonBackground@@QAE_NH_N@Z:PROC ; CPythonBackground::SetVisiblePart
EXTRN	?SetShadowLevel@CPythonBackground@@QAE_NH@Z:PROC ; CPythonBackground::SetShadowLevel
EXTRN	?SelectViewDistanceNum@CPythonBackground@@QAEXH@Z:PROC ; CPythonBackground::SelectViewDistanceNum
EXTRN	?SetViewDistanceSet@CPythonBackground@@QAEXHM@Z:PROC ; CPythonBackground::SetViewDistanceSet
EXTRN	?GetFarClip@CPythonBackground@@QAEMXZ:PROC	; CPythonBackground::GetFarClip
EXTRN	?GetRenderShadowTime@CPythonBackground@@QAEKXZ:PROC ; CPythonBackground::GetRenderShadowTime
EXTRN	?GetDistanceSetInfo@CPythonBackground@@QAEXPAHPAM11@Z:PROC ; CPythonBackground::GetDistanceSetInfo
EXTRN	?GetPickingPoint@CPythonBackground@@QAE_NPAUD3DXVECTOR3@@@Z:PROC ; CPythonBackground::GetPickingPoint
EXTRN	?Update@CPythonBackground@@QAEXMMM@Z:PROC	; CPythonBackground::Update
EXTRN	?Render@CPythonBackground@@QAEXXZ:PROC		; CPythonBackground::Render
EXTRN	?RenderPCBlocker@CPythonBackground@@QAEXXZ:PROC	; CPythonBackground::RenderPCBlocker
EXTRN	?RenderCollision@CPythonBackground@@QAEXXZ:PROC	; CPythonBackground::RenderCollision
EXTRN	?RenderCharacterShadowToTexture@CPythonBackground@@QAEXXZ:PROC ; CPythonBackground::RenderCharacterShadowToTexture
EXTRN	?RenderSky@CPythonBackground@@QAEXXZ:PROC	; CPythonBackground::RenderSky
EXTRN	?RenderCloud@CPythonBackground@@QAEXXZ:PROC	; CPythonBackground::RenderCloud
EXTRN	?RenderWater@CPythonBackground@@QAEXXZ:PROC	; CPythonBackground::RenderWater
EXTRN	?RenderEffect@CPythonBackground@@QAEXXZ:PROC	; CPythonBackground::RenderEffect
EXTRN	?RenderBeforeLensFlare@CPythonBackground@@QAEXXZ:PROC ; CPythonBackground::RenderBeforeLensFlare
EXTRN	?RenderAfterLensFlare@CPythonBackground@@QAEXXZ:PROC ; CPythonBackground::RenderAfterLensFlare
EXTRN	?SetCharacterDirLight@CPythonBackground@@QAEXXZ:PROC ; CPythonBackground::SetCharacterDirLight
EXTRN	?SetBackgroundDirLight@CPythonBackground@@QAEXXZ:PROC ; CPythonBackground::SetBackgroundDirLight
EXTRN	?EnableSnowEnvironment@CPythonBackground@@QAEXXZ:PROC ; CPythonBackground::EnableSnowEnvironment
EXTRN	?DisableSnowEnvironment@CPythonBackground@@QAEXXZ:PROC ; CPythonBackground::DisableSnowEnvironment
EXTRN	?SetXMaxTree@CPythonBackground@@QAEXH@Z:PROC	; CPythonBackground::SetXMaxTree
EXTRN	?Warp@CPythonBackground@@QAEXKK@Z:PROC		; CPythonBackground::Warp
EXTRN	?VisibleGuildArea@CPythonBackground@@QAEXXZ:PROC ; CPythonBackground::VisibleGuildArea
EXTRN	?DisableGuildArea@CPythonBackground@@QAEXXZ:PROC ; CPythonBackground::DisableGuildArea
EXTRN	?RegisterDungeonMapName@CPythonBackground@@QAEXPBD@Z:PROC ; CPythonBackground::RegisterDungeonMapName
EXTRN	?GlobalPositionToMapInfo@CPythonBackground@@QAEPAUTMapInfo@CMapManager@@KK@Z:PROC ; CPythonBackground::GlobalPositionToMapInfo
EXTRN	?GetWarpMapName@CPythonBackground@@QAEPBDXZ:PROC ; CPythonBackground::GetWarpMapName
EXTRN	@__security_check_cookie@4:PROC
EXTRN	__CxxThrowException@8:PROC
EXTRN	___CxxFrameHandler3:PROC
EXTRN	_memset:PROC
EXTRN	??_7type_info@@6B@:QWORD			; type_info::`vftable'
EXTRN	___security_cookie:DWORD
EXTRN	__fltused:DWORD
;	COMDAT ?_OptionsStorage@?1??__local_stdio_printf_options@@9@4_KA
_BSS	SEGMENT
?_OptionsStorage@?1??__local_stdio_printf_options@@9@4_KA DQ 01H DUP (?) ; `__local_stdio_printf_options'::`2'::_OptionsStorage
_BSS	ENDS
;	COMDAT ?ms_singleton@?$CSingleton@VCPythonSystem@@@@0PAVCPythonSystem@@A
_BSS	SEGMENT
?ms_singleton@?$CSingleton@VCPythonSystem@@@@0PAVCPythonSystem@@A DD 01H DUP (?) ; CSingleton<CPythonSystem>::ms_singleton
_BSS	ENDS
;	COMDAT ?ms_singleton@?$CSingleton@VCPythonBackground@@@@0PAVCPythonBackground@@A
_BSS	SEGMENT
?ms_singleton@?$CSingleton@VCPythonBackground@@@@0PAVCPythonBackground@@A DD 01H DUP (?) ; CSingleton<CPythonBackground>::ms_singleton
_BSS	ENDS
;	COMDAT __xmm@80000000800000008000000080000000
CONST	SEGMENT
__xmm@80000000800000008000000080000000 DB 00H, 00H, 00H, 080H, 00H, 00H, 00H
	DB	080H, 00H, 00H, 00H, 080H, 00H, 00H, 00H, 080H
CONST	ENDS
;	COMDAT ??_C@_0N@CKPMLBKJ@TEXTURE_SORT@
CONST	SEGMENT
??_C@_0N@CKPMLBKJ@TEXTURE_SORT@ DB 'TEXTURE_SORT', 00H	; `string'
CONST	ENDS
;	COMDAT ??_C@_0O@OJDBENMM@DISTANCE_SORT@
CONST	SEGMENT
??_C@_0O@OJDBENMM@DISTANCE_SORT@ DB 'DISTANCE_SORT', 00H ; `string'
CONST	ENDS
;	COMDAT ??_C@_09JCDLMIGA@DISTANCE4@
CONST	SEGMENT
??_C@_09JCDLMIGA@DISTANCE4@ DB 'DISTANCE4', 00H		; `string'
CONST	ENDS
;	COMDAT ??_C@_09NNHKFOKH@DISTANCE3@
CONST	SEGMENT
??_C@_09NNHKFOKH@DISTANCE3@ DB 'DISTANCE3', 00H		; `string'
CONST	ENDS
;	COMDAT ??_C@_09MEGBGPOG@DISTANCE2@
CONST	SEGMENT
??_C@_09MEGBGPOG@DISTANCE2@ DB 'DISTANCE2', 00H		; `string'
CONST	ENDS
;	COMDAT ??_C@_09OPEMDMCF@DISTANCE1@
CONST	SEGMENT
??_C@_09OPEMDMCF@DISTANCE1@ DB 'DISTANCE1', 00H		; `string'
CONST	ENDS
;	COMDAT ??_C@_09PGFHANGE@DISTANCE0@
CONST	SEGMENT
??_C@_09PGFHANGE@DISTANCE0@ DB 'DISTANCE0', 00H		; `string'
CONST	ENDS
;	COMDAT ??_C@_0P@OLMEFOLC@SHADOW_ALL_MAX@
CONST	SEGMENT
??_C@_0P@OLMEFOLC@SHADOW_ALL_MAX@ DB 'SHADOW_ALL_MAX', 00H ; `string'
CONST	ENDS
;	COMDAT ??_C@_0BA@HAKJACB@SHADOW_ALL_HIGH@
CONST	SEGMENT
??_C@_0BA@HAKJACB@SHADOW_ALL_HIGH@ DB 'SHADOW_ALL_HIGH', 00H ; `string'
CONST	ENDS
;	COMDAT ??_C@_0L@IDBIEHAB@SHADOW_ALL@
CONST	SEGMENT
??_C@_0L@IDBIEHAB@SHADOW_ALL@ DB 'SHADOW_ALL', 00H	; `string'
CONST	ENDS
;	COMDAT ??_C@_0BH@GACINHHJ@SHADOW_GROUND_AND_SOLO@
CONST	SEGMENT
??_C@_0BH@GACINHHJ@SHADOW_GROUND_AND_SOLO@ DB 'SHADOW_GROUND_AND_SOLO', 00H ; `string'
CONST	ENDS
;	COMDAT ??_C@_0O@KCPINCHK@SHADOW_GROUND@
CONST	SEGMENT
??_C@_0O@KCPINCHK@SHADOW_GROUND@ DB 'SHADOW_GROUND', 00H ; `string'
CONST	ENDS
;	COMDAT ??_C@_0M@GJOLHPMA@SHADOW_NONE@
CONST	SEGMENT
??_C@_0M@GJOLHPMA@SHADOW_NONE@ DB 'SHADOW_NONE', 00H	; `string'
CONST	ENDS
;	COMDAT ??_C@_0BL@NHHJMELO@SKY_RENDER_MODE_MODULATE4X@
CONST	SEGMENT
??_C@_0BL@NHHJMELO@SKY_RENDER_MODE_MODULATE4X@ DB 'SKY_RENDER_MODE_MODULA'
	DB	'TE4X', 00H					; `string'
CONST	ENDS
;	COMDAT ??_C@_0BL@NDPELIAM@SKY_RENDER_MODE_MODULATE2X@
CONST	SEGMENT
??_C@_0BL@NDPELIAM@SKY_RENDER_MODE_MODULATE2X@ DB 'SKY_RENDER_MODE_MODULA'
	DB	'TE2X', 00H					; `string'
CONST	ENDS
;	COMDAT ??_C@_0BJ@IGDGIPGO@SKY_RENDER_MODE_MODULATE@
CONST	SEGMENT
??_C@_0BJ@IGDGIPGO@SKY_RENDER_MODE_MODULATE@ DB 'SKY_RENDER_MODE_MODULATE'
	DB	00H						; `string'
CONST	ENDS
;	COMDAT ??_C@_0BI@NLDLHPN@SKY_RENDER_MODE_TEXTURE@
CONST	SEGMENT
??_C@_0BI@NLDLHPN@SKY_RENDER_MODE_TEXTURE@ DB 'SKY_RENDER_MODE_TEXTURE', 00H ; `string'
CONST	ENDS
;	COMDAT ??_C@_0BI@JEJGCBJM@SKY_RENDER_MODE_DIFFUSE@
CONST	SEGMENT
??_C@_0BI@JEJGCBJM@SKY_RENDER_MODE_DIFFUSE@ DB 'SKY_RENDER_MODE_DIFFUSE', 00H ; `string'
CONST	ENDS
;	COMDAT ??_C@_0BI@KFLFFAKF@SKY_RENDER_MODE_DEFAULT@
CONST	SEGMENT
??_C@_0BI@KFLFFAKF@SKY_RENDER_MODE_DEFAULT@ DB 'SKY_RENDER_MODE_DEFAULT', 00H ; `string'
CONST	ENDS
;	COMDAT ??_C@_0N@JJNCMAMK@PART_TERRAIN@
CONST	SEGMENT
??_C@_0N@JJNCMAMK@PART_TERRAIN@ DB 'PART_TERRAIN', 00H	; `string'
CONST	ENDS
;	COMDAT ??_C@_0M@FDJPOPAP@PART_OBJECT@
CONST	SEGMENT
??_C@_0M@FDJPOPAP@PART_OBJECT@ DB 'PART_OBJECT', 00H	; `string'
CONST	ENDS
;	COMDAT ??_C@_0L@LEAFDIF@PART_WATER@
CONST	SEGMENT
??_C@_0L@LEAFDIF@PART_WATER@ DB 'PART_WATER', 00H	; `string'
CONST	ENDS
;	COMDAT ??_C@_0L@OMDBBBIA@PART_CLOUD@
CONST	SEGMENT
??_C@_0L@OMDBBBIA@PART_CLOUD@ DB 'PART_CLOUD', 00H	; `string'
CONST	ENDS
;	COMDAT ??_C@_09GABNPPB@PART_TREE@
CONST	SEGMENT
??_C@_09GABNPPB@PART_TREE@ DB 'PART_TREE', 00H		; `string'
CONST	ENDS
;	COMDAT ??_C@_08NJILKGEB@PART_SKY@
CONST	SEGMENT
??_C@_08NJILKGEB@PART_SKY@ DB 'PART_SKY', 00H		; `string'
CONST	ENDS
;	COMDAT ??_C@_0L@EGCKCJDC@background@
CONST	SEGMENT
??_C@_0L@EGCKCJDC@background@ DB 'background', 00H	; `string'
CONST	ENDS
;	COMDAT ??_C@_08LPNOKPMJ@WarpTest@
CONST	SEGMENT
??_C@_08LPNOKPMJ@WarpTest@ DB 'WarpTest', 00H		; `string'
CONST	ENDS
;	COMDAT ??_C@_0BB@NIDJGFIB@DisableGuildArea@
CONST	SEGMENT
??_C@_0BB@NIDJGFIB@DisableGuildArea@ DB 'DisableGuildArea', 00H ; `string'
CONST	ENDS
;	COMDAT ??_C@_0BB@CIANHCAN@VisibleGuildArea@
CONST	SEGMENT
??_C@_0BB@CIANHCAN@VisibleGuildArea@ DB 'VisibleGuildArea', 00H ; `string'
CONST	ENDS
;	COMDAT ??_C@_0BH@MNHHOIMG@RegisterDungeonMapName@
CONST	SEGMENT
??_C@_0BH@MNHHOIMG@RegisterDungeonMapName@ DB 'RegisterDungeonMapName', 00H ; `string'
CONST	ENDS
;	COMDAT ??_C@_0M@JALIDFKN@SetXMasTree@
CONST	SEGMENT
??_C@_0M@JALIDFKN@SetXMasTree@ DB 'SetXMasTree', 00H	; `string'
CONST	ENDS
;	COMDAT ??_C@_0BD@FPJHLEBA@SetTransparentTree@
CONST	SEGMENT
??_C@_0BD@FPJHLEBA@SetTransparentTree@ DB 'SetTransparentTree', 00H ; `string'
CONST	ENDS
;	COMDAT ??_C@_0O@JBGHJBE@SetRenderSort@
CONST	SEGMENT
??_C@_0O@JBGHJBE@SetRenderSort@ DB 'SetRenderSort', 00H	; `string'
CONST	ENDS
;	COMDAT ??_C@_0N@BIHACEOH@SetBGLoading@
CONST	SEGMENT
??_C@_0N@BIHACEOH@SetBGLoading@ DB 'SetBGLoading', 00H	; `string'
CONST	ENDS
;	COMDAT ??_C@_0BD@DLMMDNAG@GetDistanceSetInfo@
CONST	SEGMENT
??_C@_0BD@DLMMDNAG@GetDistanceSetInfo@ DB 'GetDistanceSetInfo', 00H ; `string'
CONST	ENDS
;	COMDAT ??_C@_0L@HDMJNMBI@GetFarClip@
CONST	SEGMENT
??_C@_0L@HDMJNMBI@GetFarClip@ DB 'GetFarClip', 00H	; `string'
CONST	ENDS
;	COMDAT ??_C@_0BD@MAFLMANF@SetViewDistanceSet@
CONST	SEGMENT
??_C@_0BD@MAFLMANF@SetViewDistanceSet@ DB 'SetViewDistanceSet', 00H ; `string'
CONST	ENDS
;	COMDAT ??_C@_0BG@HJLACBME@SelectViewDistanceNum@
CONST	SEGMENT
??_C@_0BG@HJLACBME@SelectViewDistanceNum@ DB 'SelectViewDistanceNum', 00H ; `string'
CONST	ENDS
;	COMDAT ??_C@_0CD@KCFKJMJJ@GetRenderedGraphicThingInstance@
CONST	SEGMENT
??_C@_0CD@KCFKJMJJ@GetRenderedGraphicThingInstance@ DB 'GetRenderedGraphi'
	DB	'cThingInstanceNum', 00H			; `string'
CONST	ENDS
;	COMDAT ??_C@_0BE@OLLMHPAP@GetRenderedSplatNum@
CONST	SEGMENT
??_C@_0BE@OLLMHPAP@GetRenderedSplatNum@ DB 'GetRenderedSplatNum', 00H ; `string'
CONST	ENDS
;	COMDAT ??_C@_0O@MBDLBPAA@SetSplatLimit@
CONST	SEGMENT
??_C@_0O@MBDLBPAA@SetSplatLimit@ DB 'SetSplatLimit', 00H ; `string'
CONST	ENDS
;	COMDAT ??_C@_0BC@CCJLGKJP@GetShadowMapColor@
CONST	SEGMENT
??_C@_0BC@CCJLGKJP@GetShadowMapColor@ DB 'GetShadowMapColor', 00H ; `string'
CONST	ENDS
;	COMDAT ??_C@_0P@PBNEJLOP@SetVisiblePart@
CONST	SEGMENT
??_C@_0P@PBNEJLOP@SetVisiblePart@ DB 'SetVisiblePart', 00H ; `string'
CONST	ENDS
;	COMDAT ??_C@_0P@JLOPHJNK@SetShadowLevel@
CONST	SEGMENT
??_C@_0P@JLOPHJNK@SetShadowLevel@ DB 'SetShadowLevel', 00H ; `string'
CONST	ENDS
;	COMDAT ??_C@_09EOGEIJMK@GetHeight@
CONST	SEGMENT
??_C@_09EOGEIJMK@GetHeight@ DB 'GetHeight', 00H		; `string'
CONST	ENDS
;	COMDAT ??_C@_0O@INGOKFGH@RenderDungeon@
CONST	SEGMENT
??_C@_0O@INGOKFGH@RenderDungeon@ DB 'RenderDungeon', 00H ; `string'
CONST	ENDS
;	COMDAT ??_C@_0BP@HPJLNAG@RenderCharacterShadowToTexture@
CONST	SEGMENT
??_C@_0BP@HPJLNAG@RenderCharacterShadowToTexture@ DB 'RenderCharacterShad'
	DB	'owToTexture', 00H				; `string'
CONST	ENDS
;	COMDAT ??_C@_0BF@IFHDODFN@RenderAfterLensFlare@
CONST	SEGMENT
??_C@_0BF@IFHDODFN@RenderAfterLensFlare@ DB 'RenderAfterLensFlare', 00H ; `string'
CONST	ENDS
;	COMDAT ??_C@_0BG@FMKIIHNL@RenderBeforeLensFlare@
CONST	SEGMENT
??_C@_0BG@FMKIIHNL@RenderBeforeLensFlare@ DB 'RenderBeforeLensFlare', 00H ; `string'
CONST	ENDS
;	COMDAT ??_C@_0N@NIFFJBKD@RenderEffect@
CONST	SEGMENT
??_C@_0N@NIFFJBKD@RenderEffect@ DB 'RenderEffect', 00H	; `string'
CONST	ENDS
;	COMDAT ??_C@_0M@FKCFAPAJ@RenderWater@
CONST	SEGMENT
??_C@_0M@FKCFAPAJ@RenderWater@ DB 'RenderWater', 00H	; `string'
CONST	ENDS
;	COMDAT ??_C@_0M@LNFEENAM@RenderCloud@
CONST	SEGMENT
??_C@_0M@LNFEENAM@RenderCloud@ DB 'RenderCloud', 00H	; `string'
CONST	ENDS
;	COMDAT ??_C@_09LFBELEBM@RenderSky@
CONST	SEGMENT
??_C@_09LFBELEBM@RenderSky@ DB 'RenderSky', 00H		; `string'
CONST	ENDS
;	COMDAT ??_C@_0BA@OAOAOPAN@RenderCollision@
CONST	SEGMENT
??_C@_0BA@OAOAOPAN@RenderCollision@ DB 'RenderCollision', 00H ; `string'
CONST	ENDS
;	COMDAT ??_C@_0BA@FDBALAKK@RenderPCBlocker@
CONST	SEGMENT
??_C@_0BA@FDBALAKK@RenderPCBlocker@ DB 'RenderPCBlocker', 00H ; `string'
CONST	ENDS
;	COMDAT ??_C@_06EPLDPNDB@Render@
CONST	SEGMENT
??_C@_06EPLDPNDB@Render@ DB 'Render', 00H		; `string'
CONST	ENDS
;	COMDAT ??_C@_06LMAGPFNF@Update@
CONST	SEGMENT
??_C@_06LMAGPFNF@Update@ DB 'Update', 00H		; `string'
CONST	ENDS
;	COMDAT ??_C@_0L@KIAPHAEH@Initialize@
CONST	SEGMENT
??_C@_0L@KIAPHAEH@Initialize@ DB 'Initialize', 00H	; `string'
CONST	ENDS
;	COMDAT ??_C@_0BG@PNPLCIKE@SetBackgroundDirLight@
CONST	SEGMENT
??_C@_0BG@PNPLCIKE@SetBackgroundDirLight@ DB 'SetBackgroundDirLight', 00H ; `string'
CONST	ENDS
;	COMDAT ??_C@_0BF@DFKOLKBM@SetCharacterDirLight@
CONST	SEGMENT
??_C@_0BF@DFKOLKBM@SetCharacterDirLight@ DB 'SetCharacterDirLight', 00H ; `string'
CONST	ENDS
;	COMDAT ??_C@_0P@DMJMMGKP@EndEnvironment@
CONST	SEGMENT
??_C@_0P@DMJMMGKP@EndEnvironment@ DB 'EndEnvironment', 00H ; `string'
CONST	ENDS
;	COMDAT ??_C@_0BB@JHBDNCLO@BeginEnvironment@
CONST	SEGMENT
??_C@_0BB@JHBDNCLO@BeginEnvironment@ DB 'BeginEnvironment', 00H ; `string'
CONST	ENDS
;	COMDAT ??_C@_0BA@DNJBOOGC@GetPickingPoint@
CONST	SEGMENT
??_C@_0BA@DNJBOOGC@GetPickingPoint@ DB 'GetPickingPoint', 00H ; `string'
CONST	ENDS
;	COMDAT ??_C@_0BC@DINKEDB@GetCurrentMapName@
CONST	SEGMENT
??_C@_0BC@DINKEDB@GetCurrentMapName@ DB 'GetCurrentMapName', 00H ; `string'
CONST	ENDS
;	COMDAT ??_C@_0BD@BHFOHELP@SetEnvironmentData@
CONST	SEGMENT
??_C@_0BD@BHFOHELP@SetEnvironmentData@ DB 'SetEnvironmentData', 00H ; `string'
CONST	ENDS
;	COMDAT ??_C@_0BI@CHPHFBLI@RegisterEnvironmentData@
CONST	SEGMENT
??_C@_0BI@CHPHFBLI@RegisterEnvironmentData@ DB 'RegisterEnvironmentData', 00H ; `string'
CONST	ENDS
;	COMDAT ??_C@_07BDCAJABG@Destroy@
CONST	SEGMENT
??_C@_07BDCAJABG@Destroy@ DB 'Destroy', 00H		; `string'
CONST	ENDS
;	COMDAT ??_C@_07DJFPJOEL@LoadMap@
CONST	SEGMENT
??_C@_07DJFPJOEL@LoadMap@ DB 'LoadMap', 00H		; `string'
CONST	ENDS
;	COMDAT ??_C@_0BE@LMGPCAD@GetRenderShadowTime@
CONST	SEGMENT
??_C@_0BE@LMGPCAD@GetRenderShadowTime@ DB 'GetRenderShadowTime', 00H ; `string'
CONST	ENDS
;	COMDAT ??_C@_0BI@NCKBLOGC@GlobalPositionToMapInfo@
CONST	SEGMENT
??_C@_0BI@NCKBLOGC@GlobalPositionToMapInfo@ DB 'GlobalPositionToMapInfo', 00H ; `string'
CONST	ENDS
;	COMDAT ??_C@_0BO@OIANPCLB@GlobalPositionToLocalPosition@
CONST	SEGMENT
??_C@_0BO@OIANPCLB@GlobalPositionToLocalPosition@ DB 'GlobalPositionToLoc'
	DB	'alPosition', 00H				; `string'
CONST	ENDS
;	COMDAT ??_C@_0L@LGAPBDCD@EnableSnow@
CONST	SEGMENT
??_C@_0L@LGAPBDCD@EnableSnow@ DB 'EnableSnow', 00H	; `string'
CONST	ENDS
;	COMDAT ??_C@_0BF@ODLMFADE@EnableSoftwareTiling@
CONST	SEGMENT
??_C@_0BF@ODLMFADE@EnableSoftwareTiling@ DB 'EnableSoftwareTiling', 00H ; `string'
CONST	ENDS
;	COMDAT ??_C@_0BB@BFKDCFBH@IsSoftwareTiling@
CONST	SEGMENT
??_C@_0BB@BFKDCFBH@IsSoftwareTiling@ DB 'IsSoftwareTiling', 00H ; `string'
CONST	ENDS
;	COMDAT ?s_methods@?1??initBackground@@YAXXZ@4PAUPyMethodDef@@A
_DATA	SEGMENT
?s_methods@?1??initBackground@@YAXXZ@4PAUPyMethodDef@@A DD FLAT:??_C@_0BB@BFKDCFBH@IsSoftwareTiling@ ; `initBackground'::`2'::s_methods
	DD	FLAT:?backgroundIsSoftwareTiling@@YAPAU_object@@PAU1@0@Z
	DD	01H
	ORG $+4
	DD	FLAT:??_C@_0BF@ODLMFADE@EnableSoftwareTiling@
	DD	FLAT:?backgroundEnableSoftwareTiling@@YAPAU_object@@PAU1@0@Z
	DD	01H
	ORG $+4
	DD	FLAT:??_C@_0L@LGAPBDCD@EnableSnow@
	DD	FLAT:?backgroundEnableSnow@@YAPAU_object@@PAU1@0@Z
	DD	01H
	ORG $+4
	DD	FLAT:??_C@_0BO@OIANPCLB@GlobalPositionToLocalPosition@
	DD	FLAT:?backgroundGlobalPositionToLocalPosition@@YAPAU_object@@PAU1@0@Z
	DD	01H
	ORG $+4
	DD	FLAT:??_C@_0BI@NCKBLOGC@GlobalPositionToMapInfo@
	DD	FLAT:?backgroundGlobalPositionToMapInfo@@YAPAU_object@@PAU1@0@Z
	DD	01H
	ORG $+4
	DD	FLAT:??_C@_0BE@LMGPCAD@GetRenderShadowTime@
	DD	FLAT:?backgroundGetRenderShadowTime@@YAPAU_object@@PAU1@0@Z
	DD	01H
	ORG $+4
	DD	FLAT:??_C@_07DJFPJOEL@LoadMap@
	DD	FLAT:?backgroundLoadMap@@YAPAU_object@@PAU1@0@Z
	DD	01H
	ORG $+4
	DD	FLAT:??_C@_07BDCAJABG@Destroy@
	DD	FLAT:?backgroundDestroy@@YAPAU_object@@PAU1@0@Z
	DD	01H
	ORG $+4
	DD	FLAT:??_C@_0BI@CHPHFBLI@RegisterEnvironmentData@
	DD	FLAT:?backgroundRegisterEnvironmentData@@YAPAU_object@@PAU1@0@Z
	DD	01H
	ORG $+4
	DD	FLAT:??_C@_0BD@BHFOHELP@SetEnvironmentData@
	DD	FLAT:?backgroundSetEnvironmentData@@YAPAU_object@@PAU1@0@Z
	DD	01H
	ORG $+4
	DD	FLAT:??_C@_0BC@DINKEDB@GetCurrentMapName@
	DD	FLAT:?backgroundGetCurrentMapName@@YAPAU_object@@PAU1@0@Z
	DD	01H
	ORG $+4
	DD	FLAT:??_C@_0BA@DNJBOOGC@GetPickingPoint@
	DD	FLAT:?backgroundGetPickingPoint@@YAPAU_object@@PAU1@0@Z
	DD	01H
	ORG $+4
	DD	FLAT:??_C@_0BB@JHBDNCLO@BeginEnvironment@
	DD	FLAT:?backgroundBeginEnvironment@@YAPAU_object@@PAU1@0@Z
	DD	01H
	ORG $+4
	DD	FLAT:??_C@_0P@DMJMMGKP@EndEnvironment@
	DD	FLAT:?backgroundEndEnvironemt@@YAPAU_object@@PAU1@0@Z
	DD	01H
	ORG $+4
	DD	FLAT:??_C@_0BF@DFKOLKBM@SetCharacterDirLight@
	DD	FLAT:?backgroundSetCharacterDirLight@@YAPAU_object@@PAU1@0@Z
	DD	01H
	ORG $+4
	DD	FLAT:??_C@_0BG@PNPLCIKE@SetBackgroundDirLight@
	DD	FLAT:?backgroundSetBackgroundDirLight@@YAPAU_object@@PAU1@0@Z
	DD	01H
	ORG $+4
	DD	FLAT:??_C@_0L@KIAPHAEH@Initialize@
	DD	FLAT:?backgroundInitialize@@YAPAU_object@@PAU1@0@Z
	DD	01H
	ORG $+4
	DD	FLAT:??_C@_06LMAGPFNF@Update@
	DD	FLAT:?backgroundUpdate@@YAPAU_object@@PAU1@0@Z
	DD	01H
	ORG $+4
	DD	FLAT:??_C@_06EPLDPNDB@Render@
	DD	FLAT:?backgroundRender@@YAPAU_object@@PAU1@0@Z
	DD	01H
	ORG $+4
	DD	FLAT:??_C@_0BA@FDBALAKK@RenderPCBlocker@
	DD	FLAT:?backgroundRenderPCBlocker@@YAPAU_object@@PAU1@0@Z
	DD	01H
	ORG $+4
	DD	FLAT:??_C@_0BA@OAOAOPAN@RenderCollision@
	DD	FLAT:?backgroundRenderCollision@@YAPAU_object@@PAU1@0@Z
	DD	01H
	ORG $+4
	DD	FLAT:??_C@_09LFBELEBM@RenderSky@
	DD	FLAT:?backgroundRenderSky@@YAPAU_object@@PAU1@0@Z
	DD	01H
	ORG $+4
	DD	FLAT:??_C@_0M@LNFEENAM@RenderCloud@
	DD	FLAT:?backgroundRenderCloud@@YAPAU_object@@PAU1@0@Z
	DD	01H
	ORG $+4
	DD	FLAT:??_C@_0M@FKCFAPAJ@RenderWater@
	DD	FLAT:?backgroundRenderWater@@YAPAU_object@@PAU1@0@Z
	DD	01H
	ORG $+4
	DD	FLAT:??_C@_0N@NIFFJBKD@RenderEffect@
	DD	FLAT:?backgroundRenderEffect@@YAPAU_object@@PAU1@0@Z
	DD	01H
	ORG $+4
	DD	FLAT:??_C@_0BG@FMKIIHNL@RenderBeforeLensFlare@
	DD	FLAT:?backgroundRenderBeforeLensFlare@@YAPAU_object@@PAU1@0@Z
	DD	01H
	ORG $+4
	DD	FLAT:??_C@_0BF@IFHDODFN@RenderAfterLensFlare@
	DD	FLAT:?backgroundRenderAfterLensFlare@@YAPAU_object@@PAU1@0@Z
	DD	01H
	ORG $+4
	DD	FLAT:??_C@_0BP@HPJLNAG@RenderCharacterShadowToTexture@
	DD	FLAT:?backgroundRenderCharacterShadowToTexture@@YAPAU_object@@PAU1@0@Z
	DD	01H
	ORG $+4
	DD	FLAT:??_C@_0O@INGOKFGH@RenderDungeon@
	DD	FLAT:?backgroundRenderDungeon@@YAPAU_object@@PAU1@0@Z
	DD	01H
	ORG $+4
	DD	FLAT:??_C@_09EOGEIJMK@GetHeight@
	DD	FLAT:?backgroundGetHeight@@YAPAU_object@@PAU1@0@Z
	DD	01H
	ORG $+4
	DD	FLAT:??_C@_0P@JLOPHJNK@SetShadowLevel@
	DD	FLAT:?backgroundSetShadowLevel@@YAPAU_object@@PAU1@0@Z
	DD	01H
	ORG $+4
	DD	FLAT:??_C@_0P@PBNEJLOP@SetVisiblePart@
	DD	FLAT:?backgroundSetVisiblePart@@YAPAU_object@@PAU1@0@Z
	DD	01H
	ORG $+4
	DD	FLAT:??_C@_0BC@CCJLGKJP@GetShadowMapColor@
	DD	FLAT:?backgroundGetShadowMapcolor@@YAPAU_object@@PAU1@0@Z
	DD	01H
	ORG $+4
	DD	FLAT:??_C@_0O@MBDLBPAA@SetSplatLimit@
	DD	FLAT:?backgroundSetSpaltLimit@@YAPAU_object@@PAU1@0@Z
	DD	01H
	ORG $+4
	DD	FLAT:??_C@_0BE@OLLMHPAP@GetRenderedSplatNum@
	DD	FLAT:?backgroundGetRenderedSplatNum@@YAPAU_object@@PAU1@0@Z
	DD	01H
	ORG $+4
	DD	FLAT:??_C@_0CD@KCFKJMJJ@GetRenderedGraphicThingInstance@
	DD	FLAT:?backgroundGetRenderedGTINum@@YAPAU_object@@PAU1@0@Z
	DD	01H
	ORG $+4
	DD	FLAT:??_C@_0BG@HJLACBME@SelectViewDistanceNum@
	DD	FLAT:?backgroundSelectViewDistanceNum@@YAPAU_object@@PAU1@0@Z
	DD	01H
	ORG $+4
	DD	FLAT:??_C@_0BD@MAFLMANF@SetViewDistanceSet@
	DD	FLAT:?backgroundSetViewDistanceSet@@YAPAU_object@@PAU1@0@Z
	DD	01H
	ORG $+4
	DD	FLAT:??_C@_0L@HDMJNMBI@GetFarClip@
	DD	FLAT:?backgroundGetFarClip@@YAPAU_object@@PAU1@0@Z
	DD	01H
	ORG $+4
	DD	FLAT:??_C@_0BD@DLMMDNAG@GetDistanceSetInfo@
	DD	FLAT:?backgroundGetDistanceSetInfo@@YAPAU_object@@PAU1@0@Z
	DD	01H
	ORG $+4
	DD	FLAT:??_C@_0N@BIHACEOH@SetBGLoading@
	DD	FLAT:?backgroundSetBGLoading@@YAPAU_object@@PAU1@0@Z
	DD	01H
	ORG $+4
	DD	FLAT:??_C@_0O@JBGHJBE@SetRenderSort@
	DD	FLAT:?backgroundSetRenderSort@@YAPAU_object@@PAU1@0@Z
	DD	01H
	ORG $+4
	DD	FLAT:??_C@_0BD@FPJHLEBA@SetTransparentTree@
	DD	FLAT:?backgroundSetTransparentTree@@YAPAU_object@@PAU1@0@Z
	DD	01H
	ORG $+4
	DD	FLAT:??_C@_0M@JALIDFKN@SetXMasTree@
	DD	FLAT:?backgroundSetXMasTree@@YAPAU_object@@PAU1@0@Z
	DD	01H
	ORG $+4
	DD	FLAT:??_C@_0BH@MNHHOIMG@RegisterDungeonMapName@
	DD	FLAT:?backgroundRegisterDungeonMapName@@YAPAU_object@@PAU1@0@Z
	DD	01H
	ORG $+4
	DD	FLAT:??_C@_0BB@CIANHCAN@VisibleGuildArea@
	DD	FLAT:?backgroundVisibleGuildArea@@YAPAU_object@@PAU1@0@Z
	DD	01H
	ORG $+4
	DD	FLAT:??_C@_0BB@NIDJGFIB@DisableGuildArea@
	DD	FLAT:?backgroundDisableGuildArea@@YAPAU_object@@PAU1@0@Z
	DD	01H
	ORG $+4
	DD	FLAT:??_C@_08LPNOKPMJ@WarpTest@
	DD	FLAT:?backgroundWarpTest@@YAPAU_object@@PAU1@0@Z
	DD	01H
	ORG $+4
	DD	00H
	DD	00H
	DD	00H
	ORG $+4
_DATA	ENDS
;	COMDAT ??_C@_03FEAIAPNA@sii@
CONST	SEGMENT
??_C@_03FEAIAPNA@sii@ DB 'sii', 00H			; `string'
CONST	ENDS
;	COMDAT ??_C@_04MMEPMOLC@ifff@
CONST	SEGMENT
??_C@_04MMEPMOLC@ifff@ DB 'ifff', 00H			; `string'
CONST	ENDS
;	COMDAT ??_C@_0CL@HHHOJMJN@background?4SetSplatLimit?$CIiSplat@
CONST	SEGMENT
??_C@_0CL@HHHOJMJN@background?4SetSplatLimit?$CIiSplat@ DB 'background.Se'
	DB	'tSplatLimit(iSplatNum(%d)>=0)', 00H		; `string'
CONST	ENDS
;	COMDAT ??_C@_0CC@JHPGFABG@ePart?$CI?$CFd?$CJ?$DMbackground?4PART_NUM?$CI?$CF@
CONST	SEGMENT
??_C@_0CC@JHPGFABG@ePart?$CI?$CFd?$CJ?$DMbackground?4PART_NUM?$CI?$CF@ DB 'e'
	DB	'Part(%d)<background.PART_NUM(%d)', 00H	; `string'
CONST	ENDS
;	COMDAT ??_C@_02PDIHAGKM@ii@
CONST	SEGMENT
??_C@_02PDIHAGKM@ii@ DB 'ii', 00H			; `string'
CONST	ENDS
;	COMDAT ??_C@_04KDJJDIPA@iifs@
CONST	SEGMENT
??_C@_04KDJJDIPA@iifs@ DB 'iifs', 00H			; `string'
CONST	ENDS
;	COMDAT ??_C@_03JDANDILB@?$CFd?5@
CONST	SEGMENT
??_C@_03JDANDILB@?$CFd?5@ DB '%d ', 00H			; `string'
CONST	ENDS
;	COMDAT ??_C@_01INIBCBCB@f@
CONST	SEGMENT
??_C@_01INIBCBCB@f@ DB 'f', 00H				; `string'
CONST	ENDS
;	COMDAT ??_C@_03LPALPDIP@fff@
CONST	SEGMENT
??_C@_03LPALPDIP@fff@ DB 'fff', 00H			; `string'
CONST	ENDS
;	COMDAT ??_C@_01LKDEMHDF@s@
CONST	SEGMENT
??_C@_01LKDEMHDF@s@ DB 's', 00H				; `string'
CONST	ENDS
;	COMDAT ??_C@_0EI@HLELLDPI@background?4RegisterEnvironmentD@
CONST	SEGMENT
??_C@_0EI@HLELLDPI@background?4RegisterEnvironmentD@ DB 'background.Regis'
	DB	'terEnvironmentData(iIndex=%d, szEnvironmentFileName=%s)', 00H ; `string'
CONST	ENDS
;	COMDAT ??_C@_01KBJDNOO@i@
CONST	SEGMENT
??_C@_01KBJDNOO@i@ DB 'i', 00H				; `string'
CONST	ENDS
;	COMDAT ??_R1A@?0A@EA@bad_array_new_length@std@@8
rdata$r	SEGMENT
??_R1A@?0A@EA@bad_array_new_length@std@@8 DD FLAT:??_R0?AVbad_array_new_length@std@@@8 ; std::bad_array_new_length::`RTTI Base Class Descriptor at (0,-1,0,64)'
	DD	02H
	DD	00H
	DD	0ffffffffH
	DD	00H
	DD	040H
	DD	FLAT:??_R3bad_array_new_length@std@@8
rdata$r	ENDS
;	COMDAT ??_R2bad_array_new_length@std@@8
rdata$r	SEGMENT
??_R2bad_array_new_length@std@@8 DD FLAT:??_R1A@?0A@EA@bad_array_new_length@std@@8 ; std::bad_array_new_length::`RTTI Base Class Array'
	DD	FLAT:??_R1A@?0A@EA@bad_alloc@std@@8
	DD	FLAT:??_R1A@?0A@EA@exception@std@@8
rdata$r	ENDS
;	COMDAT ??_R3bad_array_new_length@std@@8
rdata$r	SEGMENT
??_R3bad_array_new_length@std@@8 DD 00H			; std::bad_array_new_length::`RTTI Class Hierarchy Descriptor'
	DD	00H
	DD	03H
	DD	FLAT:??_R2bad_array_new_length@std@@8
rdata$r	ENDS
;	COMDAT ??_R4bad_array_new_length@std@@6B@
rdata$r	SEGMENT
??_R4bad_array_new_length@std@@6B@ DD 00H		; std::bad_array_new_length::`RTTI Complete Object Locator'
	DD	00H
	DD	00H
	DD	FLAT:??_R0?AVbad_array_new_length@std@@@8
	DD	FLAT:??_R3bad_array_new_length@std@@8
rdata$r	ENDS
;	COMDAT ??_R1A@?0A@EA@bad_alloc@std@@8
rdata$r	SEGMENT
??_R1A@?0A@EA@bad_alloc@std@@8 DD FLAT:??_R0?AVbad_alloc@std@@@8 ; std::bad_alloc::`RTTI Base Class Descriptor at (0,-1,0,64)'
	DD	01H
	DD	00H
	DD	0ffffffffH
	DD	00H
	DD	040H
	DD	FLAT:??_R3bad_alloc@std@@8
rdata$r	ENDS
;	COMDAT ??_R2bad_alloc@std@@8
rdata$r	SEGMENT
??_R2bad_alloc@std@@8 DD FLAT:??_R1A@?0A@EA@bad_alloc@std@@8 ; std::bad_alloc::`RTTI Base Class Array'
	DD	FLAT:??_R1A@?0A@EA@exception@std@@8
rdata$r	ENDS
;	COMDAT ??_R3bad_alloc@std@@8
rdata$r	SEGMENT
??_R3bad_alloc@std@@8 DD 00H				; std::bad_alloc::`RTTI Class Hierarchy Descriptor'
	DD	00H
	DD	02H
	DD	FLAT:??_R2bad_alloc@std@@8
rdata$r	ENDS
;	COMDAT ??_R4bad_alloc@std@@6B@
rdata$r	SEGMENT
??_R4bad_alloc@std@@6B@ DD 00H				; std::bad_alloc::`RTTI Complete Object Locator'
	DD	00H
	DD	00H
	DD	FLAT:??_R0?AVbad_alloc@std@@@8
	DD	FLAT:??_R3bad_alloc@std@@8
rdata$r	ENDS
;	COMDAT ??_R1A@?0A@EA@exception@std@@8
rdata$r	SEGMENT
??_R1A@?0A@EA@exception@std@@8 DD FLAT:??_R0?AVexception@std@@@8 ; std::exception::`RTTI Base Class Descriptor at (0,-1,0,64)'
	DD	00H
	DD	00H
	DD	0ffffffffH
	DD	00H
	DD	040H
	DD	FLAT:??_R3exception@std@@8
rdata$r	ENDS
;	COMDAT ??_R2exception@std@@8
rdata$r	SEGMENT
??_R2exception@std@@8 DD FLAT:??_R1A@?0A@EA@exception@std@@8 ; std::exception::`RTTI Base Class Array'
rdata$r	ENDS
;	COMDAT ??_R3exception@std@@8
rdata$r	SEGMENT
??_R3exception@std@@8 DD 00H				; std::exception::`RTTI Class Hierarchy Descriptor'
	DD	00H
	DD	01H
	DD	FLAT:??_R2exception@std@@8
rdata$r	ENDS
;	COMDAT ??_R4exception@std@@6B@
rdata$r	SEGMENT
??_R4exception@std@@6B@ DD 00H				; std::exception::`RTTI Complete Object Locator'
	DD	00H
	DD	00H
	DD	FLAT:??_R0?AVexception@std@@@8
	DD	FLAT:??_R3exception@std@@8
rdata$r	ENDS
;	COMDAT ??_C@_00CNPNBAHC@@
CONST	SEGMENT
??_C@_00CNPNBAHC@@ DB 00H				; `string'
CONST	ENDS
;	COMDAT ??_C@_0BA@JFNIOLAK@string?5too?5long@
CONST	SEGMENT
??_C@_0BA@JFNIOLAK@string?5too?5long@ DB 'string too long', 00H ; `string'
CONST	ENDS
;	COMDAT __CT??_R0?AVexception@std@@@8??0exception@std@@QAE@ABV01@@Z12
xdata$x	SEGMENT
__CT??_R0?AVexception@std@@@8??0exception@std@@QAE@ABV01@@Z12 DD 00H
	DD	FLAT:??_R0?AVexception@std@@@8
	DD	00H
	DD	0ffffffffH
	ORG $+4
	DD	0cH
	DD	FLAT:??0exception@std@@QAE@ABV01@@Z
xdata$x	ENDS
;	COMDAT ??_R0?AVexception@std@@@8
data$r	SEGMENT
??_R0?AVexception@std@@@8 DD FLAT:??_7type_info@@6B@	; std::exception `RTTI Type Descriptor'
	DD	00H
	DB	'.?AVexception@std@@', 00H
data$r	ENDS
;	COMDAT __CT??_R0?AVbad_alloc@std@@@8??0bad_alloc@std@@QAE@ABV01@@Z12
xdata$x	SEGMENT
__CT??_R0?AVbad_alloc@std@@@8??0bad_alloc@std@@QAE@ABV01@@Z12 DD 010H
	DD	FLAT:??_R0?AVbad_alloc@std@@@8
	DD	00H
	DD	0ffffffffH
	ORG $+4
	DD	0cH
	DD	FLAT:??0bad_alloc@std@@QAE@ABV01@@Z
xdata$x	ENDS
;	COMDAT ??_R0?AVbad_alloc@std@@@8
data$r	SEGMENT
??_R0?AVbad_alloc@std@@@8 DD FLAT:??_7type_info@@6B@	; std::bad_alloc `RTTI Type Descriptor'
	DD	00H
	DB	'.?AVbad_alloc@std@@', 00H
data$r	ENDS
;	COMDAT __CT??_R0?AVbad_array_new_length@std@@@8??0bad_array_new_length@std@@QAE@ABV01@@Z12
xdata$x	SEGMENT
__CT??_R0?AVbad_array_new_length@std@@@8??0bad_array_new_length@std@@QAE@ABV01@@Z12 DD 00H
	DD	FLAT:??_R0?AVbad_array_new_length@std@@@8
	DD	00H
	DD	0ffffffffH
	ORG $+4
	DD	0cH
	DD	FLAT:??0bad_array_new_length@std@@QAE@ABV01@@Z
xdata$x	ENDS
;	COMDAT ??_R0?AVbad_array_new_length@std@@@8
data$r	SEGMENT
??_R0?AVbad_array_new_length@std@@@8 DD FLAT:??_7type_info@@6B@ ; std::bad_array_new_length `RTTI Type Descriptor'
	DD	00H
	DB	'.?AVbad_array_new_length@std@@', 00H
data$r	ENDS
;	COMDAT __CTA3?AVbad_array_new_length@std@@
xdata$x	SEGMENT
__CTA3?AVbad_array_new_length@std@@ DD 03H
	DD	FLAT:__CT??_R0?AVbad_array_new_length@std@@@8??0bad_array_new_length@std@@QAE@ABV01@@Z12
	DD	FLAT:__CT??_R0?AVbad_alloc@std@@@8??0bad_alloc@std@@QAE@ABV01@@Z12
	DD	FLAT:__CT??_R0?AVexception@std@@@8??0exception@std@@QAE@ABV01@@Z12
xdata$x	ENDS
;	COMDAT __TI3?AVbad_array_new_length@std@@
xdata$x	SEGMENT
__TI3?AVbad_array_new_length@std@@ DD 00H
	DD	FLAT:??1bad_array_new_length@std@@UAE@XZ
	DD	00H
	DD	FLAT:__CTA3?AVbad_array_new_length@std@@
xdata$x	ENDS
;	COMDAT ??_C@_0BF@KINCDENJ@bad?5array?5new?5length@
CONST	SEGMENT
??_C@_0BF@KINCDENJ@bad?5array?5new?5length@ DB 'bad array new length', 00H ; `string'
CONST	ENDS
;	COMDAT ??_7bad_array_new_length@std@@6B@
CONST	SEGMENT
??_7bad_array_new_length@std@@6B@ DD FLAT:??_R4bad_array_new_length@std@@6B@ ; std::bad_array_new_length::`vftable'
	DD	FLAT:??_Ebad_array_new_length@std@@UAEPAXI@Z
	DD	FLAT:?what@exception@std@@UBEPBDXZ
CONST	ENDS
;	COMDAT ??_7bad_alloc@std@@6B@
CONST	SEGMENT
??_7bad_alloc@std@@6B@ DD FLAT:??_R4bad_alloc@std@@6B@	; std::bad_alloc::`vftable'
	DD	FLAT:??_Ebad_alloc@std@@UAEPAXI@Z
	DD	FLAT:?what@exception@std@@UBEPBDXZ
CONST	ENDS
;	COMDAT ??_C@_0BC@EOODALEL@Unknown?5exception@
CONST	SEGMENT
??_C@_0BC@EOODALEL@Unknown?5exception@ DB 'Unknown exception', 00H ; `string'
CONST	ENDS
;	COMDAT ??_7exception@std@@6B@
CONST	SEGMENT
??_7exception@std@@6B@ DD FLAT:??_R4exception@std@@6B@	; std::exception::`vftable'
	DD	FLAT:??_Eexception@std@@UAEPAXI@Z
	DD	FLAT:?what@exception@std@@UBEPBDXZ
CONST	ENDS
;	COMDAT xdata$x
xdata$x	SEGMENT
__unwindtable$?backgroundLoadMap@@YAPAU_object@@PAU1@0@Z DD 0ffffffffH
	DD	FLAT:__unwindfunclet$?backgroundLoadMap@@YAPAU_object@@PAU1@0@Z$0
__ehfuncinfo$?backgroundLoadMap@@YAPAU_object@@PAU1@0@Z DD 019930522H
	DD	01H
	DD	FLAT:__unwindtable$?backgroundLoadMap@@YAPAU_object@@PAU1@0@Z
	DD	2 DUP(00H)
	DD	2 DUP(00H)
	DD	00H
	DD	01H
xdata$x	ENDS
;	COMDAT xdata$x
xdata$x	SEGMENT
__ehfuncinfo$??$_Deallocate@$07$0A@@std@@YAXPAXI@Z DD 019930522H
	DD	00H
	DD	00H
	DD	2 DUP(00H)
	DD	2 DUP(00H)
	DD	00H
	DD	05H
xdata$x	ENDS
;	COMDAT xdata$x
xdata$x	SEGMENT
__unwindtable$??0?$basic_string@DU?$char_traits@D@std@@V?$allocator@D@2@@std@@QAE@QBD@Z DD 0ffffffffH
	DD	FLAT:__unwindfunclet$??0?$basic_string@DU?$char_traits@D@std@@V?$allocator@D@2@@std@@QAE@QBD@Z$0
__ehfuncinfo$??0?$basic_string@DU?$char_traits@D@std@@V?$allocator@D@2@@std@@QAE@QBD@Z DD 019930522H
	DD	01H
	DD	FLAT:__unwindtable$??0?$basic_string@DU?$char_traits@D@std@@V?$allocator@D@2@@std@@QAE@QBD@Z
	DD	2 DUP(00H)
	DD	2 DUP(00H)
	DD	00H
	DD	01H
xdata$x	ENDS
; Function compile flags: /Odspy
; File D:\Metin2 Server Files\mainline\SRC_2014\Metin2Client\UserInterface\PythonBackgroundModule.cpp
;	COMDAT ?backgroundDisableGuildArea@@YAPAU_object@@PAU1@0@Z
_TEXT	SEGMENT
_poSelf$ = 8						; size = 4
_poArgs$ = 12						; size = 4
?backgroundDisableGuildArea@@YAPAU_object@@PAU1@0@Z PROC ; backgroundDisableGuildArea, COMDAT

; 521  : {

  00000	55		 push	 ebp
  00001	8b ec		 mov	 ebp, esp

; 522  : 	CPythonBackground::Instance().DisableGuildArea();

  00003	8b 0d 00 00 00
	00		 mov	 ecx, DWORD PTR ?ms_singleton@?$CSingleton@VCPythonBackground@@@@0PAVCPythonBackground@@A ; CSingleton<CPythonBackground>::ms_singleton
  00009	e8 00 00 00 00	 call	 ?DisableGuildArea@CPythonBackground@@QAEXXZ ; CPythonBackground::DisableGuildArea

; 523  : 	return Py_BuildNone();

  0000e	e8 00 00 00 00	 call	 ?Py_BuildNone@@YAPAU_object@@XZ ; Py_BuildNone

; 524  : }

  00013	5d		 pop	 ebp
  00014	c3		 ret	 0
?backgroundDisableGuildArea@@YAPAU_object@@PAU1@0@Z ENDP ; backgroundDisableGuildArea
_TEXT	ENDS
; Function compile flags: /Odspy
; File D:\Metin2 Server Files\mainline\SRC_2014\Metin2Client\UserInterface\PythonBackgroundModule.cpp
;	COMDAT ?backgroundVisibleGuildArea@@YAPAU_object@@PAU1@0@Z
_TEXT	SEGMENT
_poSelf$ = 8						; size = 4
_poArgs$ = 12						; size = 4
?backgroundVisibleGuildArea@@YAPAU_object@@PAU1@0@Z PROC ; backgroundVisibleGuildArea, COMDAT

; 515  : {

  00000	55		 push	 ebp
  00001	8b ec		 mov	 ebp, esp

; 516  : 	CPythonBackground::Instance().VisibleGuildArea();

  00003	8b 0d 00 00 00
	00		 mov	 ecx, DWORD PTR ?ms_singleton@?$CSingleton@VCPythonBackground@@@@0PAVCPythonBackground@@A ; CSingleton<CPythonBackground>::ms_singleton
  00009	e8 00 00 00 00	 call	 ?VisibleGuildArea@CPythonBackground@@QAEXXZ ; CPythonBackground::VisibleGuildArea

; 517  : 	return Py_BuildNone();

  0000e	e8 00 00 00 00	 call	 ?Py_BuildNone@@YAPAU_object@@XZ ; Py_BuildNone

; 518  : }

  00013	5d		 pop	 ebp
  00014	c3		 ret	 0
?backgroundVisibleGuildArea@@YAPAU_object@@PAU1@0@Z ENDP ; backgroundVisibleGuildArea
_TEXT	ENDS
; Function compile flags: /Odspy
; File D:\Metin2 Server Files\mainline\SRC_2014\Metin2Client\UserInterface\PythonBackgroundModule.cpp
;	COMDAT ?backgroundRegisterDungeonMapName@@YAPAU_object@@PAU1@0@Z
_TEXT	SEGMENT
_szName$ = -4						; size = 4
_poSelf$ = 8						; size = 4
_poArgs$ = 12						; size = 4
?backgroundRegisterDungeonMapName@@YAPAU_object@@PAU1@0@Z PROC ; backgroundRegisterDungeonMapName, COMDAT

; 505  : {

  00000	55		 push	 ebp
  00001	8b ec		 mov	 ebp, esp
  00003	51		 push	 ecx

; 506  : 	char * szName;
; 507  : 	if (!PyTuple_GetString(poArgs, 0, &szName))

  00004	8d 45 fc	 lea	 eax, DWORD PTR _szName$[ebp]
  00007	50		 push	 eax
  00008	6a 00		 push	 0
  0000a	ff 75 0c	 push	 DWORD PTR _poArgs$[ebp]
  0000d	e8 00 00 00 00	 call	 ?PyTuple_GetString@@YA_NPAU_object@@HPAPAD@Z ; PyTuple_GetString
  00012	83 c4 0c	 add	 esp, 12			; 0000000cH
  00015	0f b6 c0	 movzx	 eax, al
  00018	85 c0		 test	 eax, eax
  0001a	75 07		 jne	 SHORT $LN4@background

; 508  : 		return Py_BadArgument();

  0001c	e8 00 00 00 00	 call	 ?Py_BadArgument@@YAPAU_object@@XZ ; Py_BadArgument
  00021	eb 13		 jmp	 SHORT $LN1@background
$LN4@background:

; 509  : 
; 510  : 	CPythonBackground::Instance().RegisterDungeonMapName(szName);

  00023	ff 75 fc	 push	 DWORD PTR _szName$[ebp]
  00026	8b 0d 00 00 00
	00		 mov	 ecx, DWORD PTR ?ms_singleton@?$CSingleton@VCPythonBackground@@@@0PAVCPythonBackground@@A ; CSingleton<CPythonBackground>::ms_singleton
  0002c	e8 00 00 00 00	 call	 ?RegisterDungeonMapName@CPythonBackground@@QAEXPBD@Z ; CPythonBackground::RegisterDungeonMapName

; 511  : 	return Py_BuildNone();

  00031	e8 00 00 00 00	 call	 ?Py_BuildNone@@YAPAU_object@@XZ ; Py_BuildNone
$LN1@background:

; 512  : }

  00036	c9		 leave
  00037	c3		 ret	 0
?backgroundRegisterDungeonMapName@@YAPAU_object@@PAU1@0@Z ENDP ; backgroundRegisterDungeonMapName
_TEXT	ENDS
; Function compile flags: /Odspy
; File D:\Metin2 Server Files\mainline\SRC_2014\Metin2Client\UserInterface\PythonBackgroundModule.cpp
;	COMDAT ?backgroundSetXMasTree@@YAPAU_object@@PAU1@0@Z
_TEXT	SEGMENT
_iGrade$ = -4						; size = 4
_poSelf$ = 8						; size = 4
_poArgs$ = 12						; size = 4
?backgroundSetXMasTree@@YAPAU_object@@PAU1@0@Z PROC	; backgroundSetXMasTree, COMDAT

; 495  : {

  00000	55		 push	 ebp
  00001	8b ec		 mov	 ebp, esp
  00003	51		 push	 ecx

; 496  : 	int iGrade;
; 497  : 	if (!PyTuple_GetInteger(poArgs, 0, &iGrade))

  00004	8d 45 fc	 lea	 eax, DWORD PTR _iGrade$[ebp]
  00007	50		 push	 eax
  00008	6a 00		 push	 0
  0000a	ff 75 0c	 push	 DWORD PTR _poArgs$[ebp]
  0000d	e8 00 00 00 00	 call	 ?PyTuple_GetInteger@@YA_NPAU_object@@HPAH@Z ; PyTuple_GetInteger
  00012	83 c4 0c	 add	 esp, 12			; 0000000cH
  00015	0f b6 c0	 movzx	 eax, al
  00018	85 c0		 test	 eax, eax
  0001a	75 07		 jne	 SHORT $LN4@background

; 498  : 		return Py_BadArgument();

  0001c	e8 00 00 00 00	 call	 ?Py_BadArgument@@YAPAU_object@@XZ ; Py_BadArgument
  00021	eb 13		 jmp	 SHORT $LN1@background
$LN4@background:

; 499  : 
; 500  : 	CPythonBackground::Instance().SetXMaxTree(iGrade);

  00023	ff 75 fc	 push	 DWORD PTR _iGrade$[ebp]
  00026	8b 0d 00 00 00
	00		 mov	 ecx, DWORD PTR ?ms_singleton@?$CSingleton@VCPythonBackground@@@@0PAVCPythonBackground@@A ; CSingleton<CPythonBackground>::ms_singleton
  0002c	e8 00 00 00 00	 call	 ?SetXMaxTree@CPythonBackground@@QAEXH@Z ; CPythonBackground::SetXMaxTree

; 501  : 	return Py_BuildNone();

  00031	e8 00 00 00 00	 call	 ?Py_BuildNone@@YAPAU_object@@XZ ; Py_BuildNone
$LN1@background:

; 502  : }

  00036	c9		 leave
  00037	c3		 ret	 0
?backgroundSetXMasTree@@YAPAU_object@@PAU1@0@Z ENDP	; backgroundSetXMasTree
_TEXT	ENDS
; Function compile flags: /Odspy
; File D:\Metin2 Server Files\mainline\SRC_2014\Metin2Client\UserInterface\PythonBackgroundModule.cpp
;	COMDAT ?backgroundWarpTest@@YAPAU_object@@PAU1@0@Z
_TEXT	SEGMENT
_iX$ = -8						; size = 4
_iY$ = -4						; size = 4
_poSelf$ = 8						; size = 4
_poArgs$ = 12						; size = 4
?backgroundWarpTest@@YAPAU_object@@PAU1@0@Z PROC	; backgroundWarpTest, COMDAT

; 481  : {

  00000	55		 push	 ebp
  00001	8b ec		 mov	 ebp, esp
  00003	51		 push	 ecx
  00004	51		 push	 ecx

; 482  : 	int iX;
; 483  : 	if (!PyTuple_GetInteger(poArgs, 0, &iX))

  00005	8d 45 f8	 lea	 eax, DWORD PTR _iX$[ebp]
  00008	50		 push	 eax
  00009	6a 00		 push	 0
  0000b	ff 75 0c	 push	 DWORD PTR _poArgs$[ebp]
  0000e	e8 00 00 00 00	 call	 ?PyTuple_GetInteger@@YA_NPAU_object@@HPAH@Z ; PyTuple_GetInteger
  00013	83 c4 0c	 add	 esp, 12			; 0000000cH
  00016	0f b6 c0	 movzx	 eax, al
  00019	85 c0		 test	 eax, eax
  0001b	75 07		 jne	 SHORT $LN2@background

; 484  : 		return Py_BadArgument();

  0001d	e8 00 00 00 00	 call	 ?Py_BadArgument@@YAPAU_object@@XZ ; Py_BadArgument
  00022	eb 39		 jmp	 SHORT $LN1@background
$LN2@background:

; 485  : 
; 486  : 	int iY;
; 487  : 	if (!PyTuple_GetInteger(poArgs, 1, &iY))

  00024	8d 45 fc	 lea	 eax, DWORD PTR _iY$[ebp]
  00027	50		 push	 eax
  00028	6a 01		 push	 1
  0002a	ff 75 0c	 push	 DWORD PTR _poArgs$[ebp]
  0002d	e8 00 00 00 00	 call	 ?PyTuple_GetInteger@@YA_NPAU_object@@HPAH@Z ; PyTuple_GetInteger
  00032	83 c4 0c	 add	 esp, 12			; 0000000cH
  00035	0f b6 c0	 movzx	 eax, al
  00038	85 c0		 test	 eax, eax
  0003a	75 07		 jne	 SHORT $LN5@background

; 488  : 		return Py_BadArgument();

  0003c	e8 00 00 00 00	 call	 ?Py_BadArgument@@YAPAU_object@@XZ ; Py_BadArgument
  00041	eb 1a		 jmp	 SHORT $LN1@background
$LN5@background:

; 489  : 
; 490  : 	CPythonBackground::Instance().Warp((DWORD)iX * 100 , (DWORD)iY * 100);

  00043	6b 45 fc 64	 imul	 eax, DWORD PTR _iY$[ebp], 100
  00047	50		 push	 eax
  00048	6b 45 f8 64	 imul	 eax, DWORD PTR _iX$[ebp], 100
  0004c	50		 push	 eax
  0004d	8b 0d 00 00 00
	00		 mov	 ecx, DWORD PTR ?ms_singleton@?$CSingleton@VCPythonBackground@@@@0PAVCPythonBackground@@A ; CSingleton<CPythonBackground>::ms_singleton
  00053	e8 00 00 00 00	 call	 ?Warp@CPythonBackground@@QAEXKK@Z ; CPythonBackground::Warp

; 491  : 	return Py_BuildNone();

  00058	e8 00 00 00 00	 call	 ?Py_BuildNone@@YAPAU_object@@XZ ; Py_BuildNone
$LN1@background:

; 492  : }

  0005d	c9		 leave
  0005e	c3		 ret	 0
?backgroundWarpTest@@YAPAU_object@@PAU1@0@Z ENDP	; backgroundWarpTest
_TEXT	ENDS
; Function compile flags: /Odspy
; File D:\Metin2 Server Files\mainline\SRC_2014\Metin2Client\UserInterface\PythonBackgroundModule.cpp
; File C:\Program Files (x86)\Microsoft Visual Studio\2019\Community\VC\Tools\MSVC\14.28.29333\include\xstring
; File D:\Metin2 Server Files\mainline\SRC_2014\Metin2Client\UserInterface\PythonBackgroundModule.cpp
;	COMDAT ?backgroundGlobalPositionToMapInfo@@YAPAU_object@@PAU1@0@Z
_TEXT	SEGMENT
$T1 = -20						; size = 4
_rkBG$ = -16						; size = 4
_iX$ = -12						; size = 4
_iY$ = -8						; size = 4
_pkMapInfo$ = -4					; size = 4
_poSelf$ = 8						; size = 4
_poArgs$ = 12						; size = 4
?backgroundGlobalPositionToMapInfo@@YAPAU_object@@PAU1@0@Z PROC ; backgroundGlobalPositionToMapInfo, COMDAT

; 461  : {

  00000	55		 push	 ebp
  00001	8b ec		 mov	 ebp, esp
  00003	83 ec 14	 sub	 esp, 20			; 00000014H

; 462  : 	int iX;
; 463  : 	if (!PyTuple_GetInteger(poArgs, 0, &iX))

  00006	8d 45 f4	 lea	 eax, DWORD PTR _iX$[ebp]
  00009	50		 push	 eax
  0000a	6a 00		 push	 0
  0000c	ff 75 0c	 push	 DWORD PTR _poArgs$[ebp]
  0000f	e8 00 00 00 00	 call	 ?PyTuple_GetInteger@@YA_NPAU_object@@HPAH@Z ; PyTuple_GetInteger
  00014	83 c4 0c	 add	 esp, 12			; 0000000cH
  00017	0f b6 c0	 movzx	 eax, al
  0001a	85 c0		 test	 eax, eax
  0001c	75 0a		 jne	 SHORT $LN2@background

; 464  : 		return Py_BadArgument();

  0001e	e8 00 00 00 00	 call	 ?Py_BadArgument@@YAPAU_object@@XZ ; Py_BadArgument
  00023	e9 81 00 00 00	 jmp	 $LN1@background
$LN2@background:

; 465  : 
; 466  : 	int iY;
; 467  : 	if (!PyTuple_GetInteger(poArgs, 1, &iY))

  00028	8d 45 f8	 lea	 eax, DWORD PTR _iY$[ebp]
  0002b	50		 push	 eax
  0002c	6a 01		 push	 1
  0002e	ff 75 0c	 push	 DWORD PTR _poArgs$[ebp]
  00031	e8 00 00 00 00	 call	 ?PyTuple_GetInteger@@YA_NPAU_object@@HPAH@Z ; PyTuple_GetInteger
  00036	83 c4 0c	 add	 esp, 12			; 0000000cH
  00039	0f b6 c0	 movzx	 eax, al
  0003c	85 c0		 test	 eax, eax
  0003e	75 07		 jne	 SHORT $LN7@background

; 468  : 		return Py_BadArgument();

  00040	e8 00 00 00 00	 call	 ?Py_BadArgument@@YAPAU_object@@XZ ; Py_BadArgument
  00045	eb 62		 jmp	 SHORT $LN1@background
$LN7@background:

; 469  : 
; 470  : 	CPythonBackground& rkBG=CPythonBackground::Instance();

  00047	a1 00 00 00 00	 mov	 eax, DWORD PTR ?ms_singleton@?$CSingleton@VCPythonBackground@@@@0PAVCPythonBackground@@A ; CSingleton<CPythonBackground>::ms_singleton
  0004c	89 45 f0	 mov	 DWORD PTR _rkBG$[ebp], eax

; 471  : 	CPythonBackground::TMapInfo* pkMapInfo=rkBG.GlobalPositionToMapInfo(iX, iY);

  0004f	ff 75 f8	 push	 DWORD PTR _iY$[ebp]
  00052	ff 75 f4	 push	 DWORD PTR _iX$[ebp]
  00055	8b 4d f0	 mov	 ecx, DWORD PTR _rkBG$[ebp]
  00058	e8 00 00 00 00	 call	 ?GlobalPositionToMapInfo@CPythonBackground@@QAEPAUTMapInfo@CMapManager@@KK@Z ; CPythonBackground::GlobalPositionToMapInfo
  0005d	89 45 fc	 mov	 DWORD PTR _pkMapInfo$[ebp], eax

; 472  : 	
; 473  : 	if (pkMapInfo)

  00060	83 7d fc 00	 cmp	 DWORD PTR _pkMapInfo$[ebp], 0
  00064	74 2c		 je	 SHORT $LN4@background
; File C:\Program Files (x86)\Microsoft Visual Studio\2019\Community\VC\Tools\MSVC\14.28.29333\include\xstring

; 3752 :         return _Mypair._Myval2._Myptr();

  00066	8b 4d fc	 mov	 ecx, DWORD PTR _pkMapInfo$[ebp]
  00069	e8 00 00 00 00	 call	 ?_Myptr@?$_String_val@U?$_Simple_types@D@std@@@std@@QBEPBDXZ ; std::_String_val<std::_Simple_types<char> >::_Myptr
  0006e	89 45 ec	 mov	 DWORD PTR $T1[ebp], eax
; File D:\Metin2 Server Files\mainline\SRC_2014\Metin2Client\UserInterface\PythonBackgroundModule.cpp

; 474  : 		return Py_BuildValue("sii", pkMapInfo->m_strName.c_str(), pkMapInfo->m_dwBaseX, pkMapInfo->m_dwBaseY);

  00071	8b 45 fc	 mov	 eax, DWORD PTR _pkMapInfo$[ebp]
  00074	ff 70 1c	 push	 DWORD PTR [eax+28]
  00077	8b 45 fc	 mov	 eax, DWORD PTR _pkMapInfo$[ebp]
  0007a	ff 70 18	 push	 DWORD PTR [eax+24]
  0007d	ff 75 ec	 push	 DWORD PTR $T1[ebp]
  00080	68 00 00 00 00	 push	 OFFSET ??_C@_03FEAIAPNA@sii@
  00085	ff 15 00 00 00
	00		 call	 DWORD PTR __imp__Py_BuildValue
  0008b	83 c4 10	 add	 esp, 16			; 00000010H
  0008e	eb 19		 jmp	 SHORT $LN1@background
  00090	eb 17		 jmp	 SHORT $LN1@background
$LN4@background:

; 475  : 	else
; 476  : 		return Py_BuildValue("sii", "", 0, 0);

  00092	6a 00		 push	 0
  00094	6a 00		 push	 0
  00096	68 00 00 00 00	 push	 OFFSET ??_C@_00CNPNBAHC@@
  0009b	68 00 00 00 00	 push	 OFFSET ??_C@_03FEAIAPNA@sii@
  000a0	ff 15 00 00 00
	00		 call	 DWORD PTR __imp__Py_BuildValue
  000a6	83 c4 10	 add	 esp, 16			; 00000010H
$LN1@background:

; 477  : }

  000a9	c9		 leave
  000aa	c3		 ret	 0
?backgroundGlobalPositionToMapInfo@@YAPAU_object@@PAU1@0@Z ENDP ; backgroundGlobalPositionToMapInfo
_TEXT	ENDS
; Function compile flags: /Odspy
; File D:\Metin2 Server Files\mainline\SRC_2014\Metin2Client\UserInterface\PythonBackgroundModule.cpp
;	COMDAT ?backgroundGlobalPositionToLocalPosition@@YAPAU_object@@PAU1@0@Z
_TEXT	SEGMENT
_rkBG$ = -20						; size = 4
_iY$ = -16						; size = 4
_iX$ = -12						; size = 4
_lX$ = -8						; size = 4
_lY$ = -4						; size = 4
_poSelf$ = 8						; size = 4
_poArgs$ = 12						; size = 4
?backgroundGlobalPositionToLocalPosition@@YAPAU_object@@PAU1@0@Z PROC ; backgroundGlobalPositionToLocalPosition, COMDAT

; 443  : {

  00000	55		 push	 ebp
  00001	8b ec		 mov	 ebp, esp
  00003	83 ec 14	 sub	 esp, 20			; 00000014H

; 444  : 	int iX;
; 445  : 	if (!PyTuple_GetInteger(poArgs, 0, &iX))

  00006	8d 45 f4	 lea	 eax, DWORD PTR _iX$[ebp]
  00009	50		 push	 eax
  0000a	6a 00		 push	 0
  0000c	ff 75 0c	 push	 DWORD PTR _poArgs$[ebp]
  0000f	e8 00 00 00 00	 call	 ?PyTuple_GetInteger@@YA_NPAU_object@@HPAH@Z ; PyTuple_GetInteger
  00014	83 c4 0c	 add	 esp, 12			; 0000000cH
  00017	0f b6 c0	 movzx	 eax, al
  0001a	85 c0		 test	 eax, eax
  0001c	75 07		 jne	 SHORT $LN2@background

; 446  : 		return Py_BadArgument();

  0001e	e8 00 00 00 00	 call	 ?Py_BadArgument@@YAPAU_object@@XZ ; Py_BadArgument
  00023	eb 57		 jmp	 SHORT $LN1@background
$LN2@background:

; 447  : 
; 448  : 	int iY;
; 449  : 	if (!PyTuple_GetInteger(poArgs, 1, &iY))

  00025	8d 45 f0	 lea	 eax, DWORD PTR _iY$[ebp]
  00028	50		 push	 eax
  00029	6a 01		 push	 1
  0002b	ff 75 0c	 push	 DWORD PTR _poArgs$[ebp]
  0002e	e8 00 00 00 00	 call	 ?PyTuple_GetInteger@@YA_NPAU_object@@HPAH@Z ; PyTuple_GetInteger
  00033	83 c4 0c	 add	 esp, 12			; 0000000cH
  00036	0f b6 c0	 movzx	 eax, al
  00039	85 c0		 test	 eax, eax
  0003b	75 07		 jne	 SHORT $LN3@background

; 450  : 		return Py_BadArgument();

  0003d	e8 00 00 00 00	 call	 ?Py_BadArgument@@YAPAU_object@@XZ ; Py_BadArgument
  00042	eb 38		 jmp	 SHORT $LN1@background
$LN3@background:

; 451  : 
; 452  : 	LONG lX=iX;

  00044	8b 45 f4	 mov	 eax, DWORD PTR _iX$[ebp]
  00047	89 45 f8	 mov	 DWORD PTR _lX$[ebp], eax

; 453  : 	LONG lY=iY;	

  0004a	8b 45 f0	 mov	 eax, DWORD PTR _iY$[ebp]
  0004d	89 45 fc	 mov	 DWORD PTR _lY$[ebp], eax

; 454  : 	CPythonBackground& rkBG=CPythonBackground::Instance();

  00050	a1 00 00 00 00	 mov	 eax, DWORD PTR ?ms_singleton@?$CSingleton@VCPythonBackground@@@@0PAVCPythonBackground@@A ; CSingleton<CPythonBackground>::ms_singleton
  00055	89 45 ec	 mov	 DWORD PTR _rkBG$[ebp], eax

; 455  : 	rkBG.GlobalPositionToLocalPosition(lX, lY);

  00058	8d 45 fc	 lea	 eax, DWORD PTR _lY$[ebp]
  0005b	50		 push	 eax
  0005c	8d 45 f8	 lea	 eax, DWORD PTR _lX$[ebp]
  0005f	50		 push	 eax
  00060	8b 4d ec	 mov	 ecx, DWORD PTR _rkBG$[ebp]
  00063	e8 00 00 00 00	 call	 ?GlobalPositionToLocalPosition@CPythonBackground@@QAEXAAJ0@Z ; CPythonBackground::GlobalPositionToLocalPosition

; 456  : 
; 457  : 	return Py_BuildValue("ii", lX, lY);

  00068	ff 75 fc	 push	 DWORD PTR _lY$[ebp]
  0006b	ff 75 f8	 push	 DWORD PTR _lX$[ebp]
  0006e	68 00 00 00 00	 push	 OFFSET ??_C@_02PDIHAGKM@ii@
  00073	ff 15 00 00 00
	00		 call	 DWORD PTR __imp__Py_BuildValue
  00079	83 c4 0c	 add	 esp, 12			; 0000000cH
$LN1@background:

; 458  : }

  0007c	c9		 leave
  0007d	c3		 ret	 0
?backgroundGlobalPositionToLocalPosition@@YAPAU_object@@PAU1@0@Z ENDP ; backgroundGlobalPositionToLocalPosition
_TEXT	ENDS
; Function compile flags: /Odspy
; File D:\Metin2 Server Files\mainline\SRC_2014\Metin2Client\UserInterface\PythonBackgroundModule.cpp
;	COMDAT ?backgroundSetTransparentTree@@YAPAU_object@@PAU1@0@Z
_TEXT	SEGMENT
_bTransparent$ = -8					; size = 4
tv85 = -4						; size = 4
_poSelf$ = 8						; size = 4
_poArgs$ = 12						; size = 4
?backgroundSetTransparentTree@@YAPAU_object@@PAU1@0@Z PROC ; backgroundSetTransparentTree, COMDAT

; 433  : {

  00000	55		 push	 ebp
  00001	8b ec		 mov	 ebp, esp
  00003	51		 push	 ecx
  00004	51		 push	 ecx

; 434  : 	int bTransparent;
; 435  : 	if (!PyTuple_GetInteger(poArgs, 0, &bTransparent))

  00005	8d 45 f8	 lea	 eax, DWORD PTR _bTransparent$[ebp]
  00008	50		 push	 eax
  00009	6a 00		 push	 0
  0000b	ff 75 0c	 push	 DWORD PTR _poArgs$[ebp]
  0000e	e8 00 00 00 00	 call	 ?PyTuple_GetInteger@@YA_NPAU_object@@HPAH@Z ; PyTuple_GetInteger
  00013	83 c4 0c	 add	 esp, 12			; 0000000cH
  00016	0f b6 c0	 movzx	 eax, al
  00019	85 c0		 test	 eax, eax
  0001b	75 07		 jne	 SHORT $LN2@background

; 436  : 		return Py_BadArgument();

  0001d	e8 00 00 00 00	 call	 ?Py_BadArgument@@YAPAU_object@@XZ ; Py_BadArgument
  00022	eb 23		 jmp	 SHORT $LN1@background
$LN2@background:

; 437  : 
; 438  : 	CPythonBackground::Instance().SetTransparentTree(bTransparent ? true : false);

  00024	83 7d f8 00	 cmp	 DWORD PTR _bTransparent$[ebp], 0
  00028	74 06		 je	 SHORT $LN4@background
  0002a	c6 45 fc 01	 mov	 BYTE PTR tv85[ebp], 1
  0002e	eb 04		 jmp	 SHORT $LN6@background
$LN4@background:
  00030	c6 45 fc 00	 mov	 BYTE PTR tv85[ebp], 0
$LN6@background:
  00034	ff 75 fc	 push	 DWORD PTR tv85[ebp]
  00037	8b 0d 00 00 00
	00		 mov	 ecx, DWORD PTR ?ms_singleton@?$CSingleton@VCPythonBackground@@@@0PAVCPythonBackground@@A ; CSingleton<CPythonBackground>::ms_singleton
  0003d	e8 00 00 00 00	 call	 ?SetTransparentTree@CMapManager@@QAEX_N@Z ; CMapManager::SetTransparentTree

; 439  : 	return Py_BuildNone();

  00042	e8 00 00 00 00	 call	 ?Py_BuildNone@@YAPAU_object@@XZ ; Py_BuildNone
$LN1@background:

; 440  : }

  00047	c9		 leave
  00048	c3		 ret	 0
?backgroundSetTransparentTree@@YAPAU_object@@PAU1@0@Z ENDP ; backgroundSetTransparentTree
_TEXT	ENDS
; Function compile flags: /Odspy
; File D:\Metin2 Server Files\mainline\SRC_2014\Metin2Client\UserInterface\PythonBackgroundModule.cpp
;	COMDAT ?backgroundSetRenderSort@@YAPAU_object@@PAU1@0@Z
_TEXT	SEGMENT
_eSort$ = -4						; size = 4
_poSelf$ = 8						; size = 4
_poArgs$ = 12						; size = 4
?backgroundSetRenderSort@@YAPAU_object@@PAU1@0@Z PROC	; backgroundSetRenderSort, COMDAT

; 423  : {

  00000	55		 push	 ebp
  00001	8b ec		 mov	 ebp, esp
  00003	51		 push	 ecx

; 424  : 	int eSort;
; 425  : 	if (!PyTuple_GetInteger(poArgs, 0, &eSort))

  00004	8d 45 fc	 lea	 eax, DWORD PTR _eSort$[ebp]
  00007	50		 push	 eax
  00008	6a 00		 push	 0
  0000a	ff 75 0c	 push	 DWORD PTR _poArgs$[ebp]
  0000d	e8 00 00 00 00	 call	 ?PyTuple_GetInteger@@YA_NPAU_object@@HPAH@Z ; PyTuple_GetInteger
  00012	83 c4 0c	 add	 esp, 12			; 0000000cH
  00015	0f b6 c0	 movzx	 eax, al
  00018	85 c0		 test	 eax, eax
  0001a	75 07		 jne	 SHORT $LN4@background

; 426  : 		return Py_BadArgument();

  0001c	e8 00 00 00 00	 call	 ?Py_BadArgument@@YAPAU_object@@XZ ; Py_BadArgument
  00021	eb 13		 jmp	 SHORT $LN1@background
$LN4@background:

; 427  : 
; 428  : 	CPythonBackground::Instance().SetTerrainRenderSort((CMapOutdoor::ETerrainRenderSort) eSort);

  00023	ff 75 fc	 push	 DWORD PTR _eSort$[ebp]
  00026	8b 0d 00 00 00
	00		 mov	 ecx, DWORD PTR ?ms_singleton@?$CSingleton@VCPythonBackground@@@@0PAVCPythonBackground@@A ; CSingleton<CPythonBackground>::ms_singleton
  0002c	e8 00 00 00 00	 call	 ?SetTerrainRenderSort@CMapManager@@QAEXW4ETerrainRenderSort@CMapOutdoor@@@Z ; CMapManager::SetTerrainRenderSort

; 429  : 	return Py_BuildNone();

  00031	e8 00 00 00 00	 call	 ?Py_BuildNone@@YAPAU_object@@XZ ; Py_BuildNone
$LN1@background:

; 430  : }

  00036	c9		 leave
  00037	c3		 ret	 0
?backgroundSetRenderSort@@YAPAU_object@@PAU1@0@Z ENDP	; backgroundSetRenderSort
_TEXT	ENDS
; Function compile flags: /Odspy
; File D:\Metin2 Server Files\mainline\SRC_2014\Metin2Client\UserInterface\PythonBackgroundModule.cpp
;	COMDAT ?backgroundSetBGLoading@@YAPAU_object@@PAU1@0@Z
_TEXT	SEGMENT
_bBGLoading$ = -1					; size = 1
_poSelf$ = 8						; size = 4
_poArgs$ = 12						; size = 4
?backgroundSetBGLoading@@YAPAU_object@@PAU1@0@Z PROC	; backgroundSetBGLoading, COMDAT

; 413  : {

  00000	55		 push	 ebp
  00001	8b ec		 mov	 ebp, esp
  00003	51		 push	 ecx

; 414  : 	bool bBGLoading;
; 415  : 	if (!PyTuple_GetBoolean(poArgs, 0, &bBGLoading))

  00004	8d 45 ff	 lea	 eax, DWORD PTR _bBGLoading$[ebp]
  00007	50		 push	 eax
  00008	6a 00		 push	 0
  0000a	ff 75 0c	 push	 DWORD PTR _poArgs$[ebp]
  0000d	e8 00 00 00 00	 call	 ?PyTuple_GetBoolean@@YA_NPAU_object@@HPA_N@Z ; PyTuple_GetBoolean
  00012	83 c4 0c	 add	 esp, 12			; 0000000cH
  00015	0f b6 c0	 movzx	 eax, al
  00018	85 c0		 test	 eax, eax
  0001a	75 07		 jne	 SHORT $LN2@background

; 416  : 		return Py_BadArgument();

  0001c	e8 00 00 00 00	 call	 ?Py_BadArgument@@YAPAU_object@@XZ ; Py_BadArgument
  00021	eb 05		 jmp	 SHORT $LN1@background
$LN2@background:

; 417  : 
; 418  : 	//CPythonBackground::Instance().BGLoadingEnable(bBGLoading);
; 419  : 	return Py_BuildNone();

  00023	e8 00 00 00 00	 call	 ?Py_BuildNone@@YAPAU_object@@XZ ; Py_BuildNone
$LN1@background:

; 420  : }

  00028	c9		 leave
  00029	c3		 ret	 0
?backgroundSetBGLoading@@YAPAU_object@@PAU1@0@Z ENDP	; backgroundSetBGLoading
_TEXT	ENDS
; Function compile flags: /Odspy
; File D:\Metin2 Server Files\mainline\SRC_2014\Metin2Client\UserInterface\PythonBackgroundModule.cpp
;	COMDAT ?backgroundGetDistanceSetInfo@@YAPAU_object@@PAU1@0@Z
_TEXT	SEGMENT
_iNum$ = -16						; size = 4
_fStart$ = -12						; size = 4
_fEnd$ = -8						; size = 4
_fFarClip$ = -4						; size = 4
_poSelf$ = 8						; size = 4
_poArgs$ = 12						; size = 4
?backgroundGetDistanceSetInfo@@YAPAU_object@@PAU1@0@Z PROC ; backgroundGetDistanceSetInfo, COMDAT

; 405  : {

  00000	55		 push	 ebp
  00001	8b ec		 mov	 ebp, esp
  00003	83 ec 10	 sub	 esp, 16			; 00000010H

; 406  : 	int iNum;
; 407  : 	float fStart, fEnd, fFarClip;
; 408  : 	CPythonBackground::Instance().GetDistanceSetInfo(&iNum, &fStart, &fEnd, &fFarClip);

  00006	8d 45 fc	 lea	 eax, DWORD PTR _fFarClip$[ebp]
  00009	50		 push	 eax
  0000a	8d 45 f8	 lea	 eax, DWORD PTR _fEnd$[ebp]
  0000d	50		 push	 eax
  0000e	8d 45 f4	 lea	 eax, DWORD PTR _fStart$[ebp]
  00011	50		 push	 eax
  00012	8d 45 f0	 lea	 eax, DWORD PTR _iNum$[ebp]
  00015	50		 push	 eax
  00016	8b 0d 00 00 00
	00		 mov	 ecx, DWORD PTR ?ms_singleton@?$CSingleton@VCPythonBackground@@@@0PAVCPythonBackground@@A ; CSingleton<CPythonBackground>::ms_singleton
  0001c	e8 00 00 00 00	 call	 ?GetDistanceSetInfo@CPythonBackground@@QAEXPAHPAM11@Z ; CPythonBackground::GetDistanceSetInfo

; 409  : 	return Py_BuildValue("ifff", iNum, fStart, fEnd, fFarClip);

  00021	f3 0f 5a 45 fc	 cvtss2sd xmm0, DWORD PTR _fFarClip$[ebp]
  00026	51		 push	 ecx
  00027	51		 push	 ecx
  00028	f2 0f 11 04 24	 movsd	 QWORD PTR [esp], xmm0
  0002d	f3 0f 5a 45 f8	 cvtss2sd xmm0, DWORD PTR _fEnd$[ebp]
  00032	51		 push	 ecx
  00033	51		 push	 ecx
  00034	f2 0f 11 04 24	 movsd	 QWORD PTR [esp], xmm0
  00039	f3 0f 5a 45 f4	 cvtss2sd xmm0, DWORD PTR _fStart$[ebp]
  0003e	51		 push	 ecx
  0003f	51		 push	 ecx
  00040	f2 0f 11 04 24	 movsd	 QWORD PTR [esp], xmm0
  00045	ff 75 f0	 push	 DWORD PTR _iNum$[ebp]
  00048	68 00 00 00 00	 push	 OFFSET ??_C@_04MMEPMOLC@ifff@
  0004d	ff 15 00 00 00
	00		 call	 DWORD PTR __imp__Py_BuildValue
  00053	83 c4 20	 add	 esp, 32			; 00000020H

; 410  : }

  00056	c9		 leave
  00057	c3		 ret	 0
?backgroundGetDistanceSetInfo@@YAPAU_object@@PAU1@0@Z ENDP ; backgroundGetDistanceSetInfo
_TEXT	ENDS
; Function compile flags: /Odspy
; File D:\Metin2 Server Files\mainline\SRC_2014\Metin2Client\UserInterface\PythonBackgroundModule.cpp
; File D:\Metin2 Server Files\mainline\SRC_2014\Metin2Client\eterBase\Singleton.h
; File D:\Metin2 Server Files\mainline\SRC_2014\Metin2Client\UserInterface\PythonBackgroundModule.cpp
;	COMDAT ?backgroundGetFarClip@@YAPAU_object@@PAU1@0@Z
_TEXT	SEGMENT
_fFarClip$ = -8						; size = 4
$T1 = -4						; size = 4
_poSelf$ = 8						; size = 4
_poArgs$ = 12						; size = 4
?backgroundGetFarClip@@YAPAU_object@@PAU1@0@Z PROC	; backgroundGetFarClip, COMDAT

; 399  : {

  00000	55		 push	 ebp
  00001	8b ec		 mov	 ebp, esp
  00003	51		 push	 ecx
  00004	51		 push	 ecx
; File D:\Metin2 Server Files\mainline\SRC_2014\Metin2Client\eterBase\Singleton.h

; 27   : 		return (*ms_singleton);

  00005	a1 00 00 00 00	 mov	 eax, DWORD PTR ?ms_singleton@?$CSingleton@VCPythonBackground@@@@0PAVCPythonBackground@@A ; CSingleton<CPythonBackground>::ms_singleton
  0000a	89 45 fc	 mov	 DWORD PTR $T1[ebp], eax
; File D:\Metin2 Server Files\mainline\SRC_2014\Metin2Client\UserInterface\PythonBackgroundModule.cpp

; 400  : 	float fFarClip = CPythonBackground::Instance().GetFarClip();

  0000d	8b 4d fc	 mov	 ecx, DWORD PTR $T1[ebp]
  00010	e8 00 00 00 00	 call	 ?GetFarClip@CPythonBackground@@QAEMXZ ; CPythonBackground::GetFarClip
  00015	d9 5d f8	 fstp	 DWORD PTR _fFarClip$[ebp]

; 401  : 	return Py_BuildValue("f", fFarClip);

  00018	f3 0f 5a 45 f8	 cvtss2sd xmm0, DWORD PTR _fFarClip$[ebp]
  0001d	51		 push	 ecx
  0001e	51		 push	 ecx
  0001f	f2 0f 11 04 24	 movsd	 QWORD PTR [esp], xmm0
  00024	68 00 00 00 00	 push	 OFFSET ??_C@_01INIBCBCB@f@
  00029	ff 15 00 00 00
	00		 call	 DWORD PTR __imp__Py_BuildValue
  0002f	83 c4 0c	 add	 esp, 12			; 0000000cH

; 402  : }

  00032	c9		 leave
  00033	c3		 ret	 0
?backgroundGetFarClip@@YAPAU_object@@PAU1@0@Z ENDP	; backgroundGetFarClip
_TEXT	ENDS
; Function compile flags: /Odspy
; File D:\Metin2 Server Files\mainline\SRC_2014\Metin2Client\UserInterface\PythonBackgroundModule.cpp
;	COMDAT ?backgroundSetViewDistanceSet@@YAPAU_object@@PAU1@0@Z
_TEXT	SEGMENT
_rkBG$ = -12						; size = 4
_iNum$ = -8						; size = 4
_fFarClip$ = -4						; size = 4
_poSelf$ = 8						; size = 4
_poArgs$ = 12						; size = 4
?backgroundSetViewDistanceSet@@YAPAU_object@@PAU1@0@Z PROC ; backgroundSetViewDistanceSet, COMDAT

; 384  : {

  00000	55		 push	 ebp
  00001	8b ec		 mov	 ebp, esp
  00003	83 ec 0c	 sub	 esp, 12			; 0000000cH

; 385  : 	int iNum;
; 386  : 	if (!PyTuple_GetInteger(poArgs, 0, &iNum))

  00006	8d 45 f8	 lea	 eax, DWORD PTR _iNum$[ebp]
  00009	50		 push	 eax
  0000a	6a 00		 push	 0
  0000c	ff 75 0c	 push	 DWORD PTR _poArgs$[ebp]
  0000f	e8 00 00 00 00	 call	 ?PyTuple_GetInteger@@YA_NPAU_object@@HPAH@Z ; PyTuple_GetInteger
  00014	83 c4 0c	 add	 esp, 12			; 0000000cH
  00017	0f b6 c0	 movzx	 eax, al
  0001a	85 c0		 test	 eax, eax
  0001c	75 07		 jne	 SHORT $LN2@background

; 387  : 		return Py_BadArgument();

  0001e	e8 00 00 00 00	 call	 ?Py_BadArgument@@YAPAU_object@@XZ ; Py_BadArgument
  00023	eb 42		 jmp	 SHORT $LN1@background
$LN2@background:

; 388  : 
; 389  : 	float fFarClip;
; 390  : 	if (!PyTuple_GetFloat(poArgs, 1, &fFarClip))

  00025	8d 45 fc	 lea	 eax, DWORD PTR _fFarClip$[ebp]
  00028	50		 push	 eax
  00029	6a 01		 push	 1
  0002b	ff 75 0c	 push	 DWORD PTR _poArgs$[ebp]
  0002e	e8 00 00 00 00	 call	 ?PyTuple_GetFloat@@YA_NPAU_object@@HPAM@Z ; PyTuple_GetFloat
  00033	83 c4 0c	 add	 esp, 12			; 0000000cH
  00036	0f b6 c0	 movzx	 eax, al
  00039	85 c0		 test	 eax, eax
  0003b	75 07		 jne	 SHORT $LN3@background

; 391  : 		return Py_BadArgument();

  0003d	e8 00 00 00 00	 call	 ?Py_BadArgument@@YAPAU_object@@XZ ; Py_BadArgument
  00042	eb 23		 jmp	 SHORT $LN1@background
$LN3@background:

; 392  : 
; 393  : 	CPythonBackground& rkBG=CPythonBackground::Instance();

  00044	a1 00 00 00 00	 mov	 eax, DWORD PTR ?ms_singleton@?$CSingleton@VCPythonBackground@@@@0PAVCPythonBackground@@A ; CSingleton<CPythonBackground>::ms_singleton
  00049	89 45 f4	 mov	 DWORD PTR _rkBG$[ebp], eax

; 394  : 	rkBG.SetViewDistanceSet(iNum, fFarClip);

  0004c	51		 push	 ecx
  0004d	f3 0f 10 45 fc	 movss	 xmm0, DWORD PTR _fFarClip$[ebp]
  00052	f3 0f 11 04 24	 movss	 DWORD PTR [esp], xmm0
  00057	ff 75 f8	 push	 DWORD PTR _iNum$[ebp]
  0005a	8b 4d f4	 mov	 ecx, DWORD PTR _rkBG$[ebp]
  0005d	e8 00 00 00 00	 call	 ?SetViewDistanceSet@CPythonBackground@@QAEXHM@Z ; CPythonBackground::SetViewDistanceSet

; 395  : 	return Py_BuildNone();

  00062	e8 00 00 00 00	 call	 ?Py_BuildNone@@YAPAU_object@@XZ ; Py_BuildNone
$LN1@background:

; 396  : }

  00067	c9		 leave
  00068	c3		 ret	 0
?backgroundSetViewDistanceSet@@YAPAU_object@@PAU1@0@Z ENDP ; backgroundSetViewDistanceSet
_TEXT	ENDS
; Function compile flags: /Odspy
; File D:\Metin2 Server Files\mainline\SRC_2014\Metin2Client\UserInterface\PythonBackgroundModule.cpp
;	COMDAT ?backgroundSelectViewDistanceNum@@YAPAU_object@@PAU1@0@Z
_TEXT	SEGMENT
_rkBG$ = -8						; size = 4
_iNum$ = -4						; size = 4
_poSelf$ = 8						; size = 4
_poArgs$ = 12						; size = 4
?backgroundSelectViewDistanceNum@@YAPAU_object@@PAU1@0@Z PROC ; backgroundSelectViewDistanceNum, COMDAT

; 371  : {

  00000	55		 push	 ebp
  00001	8b ec		 mov	 ebp, esp
  00003	51		 push	 ecx
  00004	51		 push	 ecx

; 372  : 	int iNum;
; 373  : 
; 374  : 	if (!PyTuple_GetInteger(poArgs, 0, &iNum))

  00005	8d 45 fc	 lea	 eax, DWORD PTR _iNum$[ebp]
  00008	50		 push	 eax
  00009	6a 00		 push	 0
  0000b	ff 75 0c	 push	 DWORD PTR _poArgs$[ebp]
  0000e	e8 00 00 00 00	 call	 ?PyTuple_GetInteger@@YA_NPAU_object@@HPAH@Z ; PyTuple_GetInteger
  00013	83 c4 0c	 add	 esp, 12			; 0000000cH
  00016	0f b6 c0	 movzx	 eax, al
  00019	85 c0		 test	 eax, eax
  0001b	75 07		 jne	 SHORT $LN4@background

; 375  : 		return Py_BadArgument();

  0001d	e8 00 00 00 00	 call	 ?Py_BadArgument@@YAPAU_object@@XZ ; Py_BadArgument
  00022	eb 18		 jmp	 SHORT $LN1@background
$LN4@background:

; 376  : 
; 377  : 	CPythonBackground& rkBG=CPythonBackground::Instance();

  00024	a1 00 00 00 00	 mov	 eax, DWORD PTR ?ms_singleton@?$CSingleton@VCPythonBackground@@@@0PAVCPythonBackground@@A ; CSingleton<CPythonBackground>::ms_singleton
  00029	89 45 f8	 mov	 DWORD PTR _rkBG$[ebp], eax

; 378  : 	rkBG.SelectViewDistanceNum(iNum);

  0002c	ff 75 fc	 push	 DWORD PTR _iNum$[ebp]
  0002f	8b 4d f8	 mov	 ecx, DWORD PTR _rkBG$[ebp]
  00032	e8 00 00 00 00	 call	 ?SelectViewDistanceNum@CPythonBackground@@QAEXH@Z ; CPythonBackground::SelectViewDistanceNum

; 379  : 
; 380  : 	return Py_BuildNone();

  00037	e8 00 00 00 00	 call	 ?Py_BuildNone@@YAPAU_object@@XZ ; Py_BuildNone
$LN1@background:

; 381  : }

  0003c	c9		 leave
  0003d	c3		 ret	 0
?backgroundSelectViewDistanceNum@@YAPAU_object@@PAU1@0@Z ENDP ; backgroundSelectViewDistanceNum
_TEXT	ENDS
; Function compile flags: /Odspy
; File D:\Metin2 Server Files\mainline\SRC_2014\Metin2Client\UserInterface\PythonBackgroundModule.cpp
;	COMDAT ?backgroundSetSpaltLimit@@YAPAU_object@@PAU1@0@Z
_TEXT	SEGMENT
_rkBG$ = -8						; size = 4
_iSplatNum$ = -4					; size = 4
_poSelf$ = 8						; size = 4
_poArgs$ = 12						; size = 4
?backgroundSetSpaltLimit@@YAPAU_object@@PAU1@0@Z PROC	; backgroundSetSpaltLimit, COMDAT

; 356  : {

  00000	55		 push	 ebp
  00001	8b ec		 mov	 ebp, esp
  00003	51		 push	 ecx
  00004	51		 push	 ecx

; 357  : 	int iSplatNum;
; 358  : 	if (!PyTuple_GetInteger(poArgs, 0, &iSplatNum))

  00005	8d 45 fc	 lea	 eax, DWORD PTR _iSplatNum$[ebp]
  00008	50		 push	 eax
  00009	6a 00		 push	 0
  0000b	ff 75 0c	 push	 DWORD PTR _poArgs$[ebp]
  0000e	e8 00 00 00 00	 call	 ?PyTuple_GetInteger@@YA_NPAU_object@@HPAH@Z ; PyTuple_GetInteger
  00013	83 c4 0c	 add	 esp, 12			; 0000000cH
  00016	0f b6 c0	 movzx	 eax, al
  00019	85 c0		 test	 eax, eax
  0001b	75 07		 jne	 SHORT $LN2@background

; 359  : 		return Py_BadArgument();

  0001d	e8 00 00 00 00	 call	 ?Py_BadArgument@@YAPAU_object@@XZ ; Py_BadArgument
  00022	eb 2f		 jmp	 SHORT $LN1@background
$LN2@background:

; 360  : 
; 361  : 	if (iSplatNum<0)

  00024	83 7d fc 00	 cmp	 DWORD PTR _iSplatNum$[ebp], 0
  00028	7d 11		 jge	 SHORT $LN5@background

; 362  : 		return Py_BuildException("background.SetSplatLimit(iSplatNum(%d)>=0)", iSplatNum);

  0002a	ff 75 fc	 push	 DWORD PTR _iSplatNum$[ebp]
  0002d	68 00 00 00 00	 push	 OFFSET ??_C@_0CL@HHHOJMJN@background?4SetSplatLimit?$CIiSplat@
  00032	e8 00 00 00 00	 call	 ?Py_BuildException@@YAPAU_object@@PBDZZ ; Py_BuildException
  00037	59		 pop	 ecx
  00038	59		 pop	 ecx
  00039	eb 18		 jmp	 SHORT $LN1@background
$LN5@background:

; 363  : 
; 364  : 	CPythonBackground& rkBG=CPythonBackground::Instance();

  0003b	a1 00 00 00 00	 mov	 eax, DWORD PTR ?ms_singleton@?$CSingleton@VCPythonBackground@@@@0PAVCPythonBackground@@A ; CSingleton<CPythonBackground>::ms_singleton
  00040	89 45 f8	 mov	 DWORD PTR _rkBG$[ebp], eax

; 365  : 	rkBG.SetSplatLimit(iSplatNum);

  00043	ff 75 fc	 push	 DWORD PTR _iSplatNum$[ebp]
  00046	8b 4d f8	 mov	 ecx, DWORD PTR _rkBG$[ebp]
  00049	e8 00 00 00 00	 call	 ?SetSplatLimit@CPythonBackground@@QAE_NH@Z ; CPythonBackground::SetSplatLimit

; 366  : 
; 367  : 	return Py_BuildNone();

  0004e	e8 00 00 00 00	 call	 ?Py_BuildNone@@YAPAU_object@@XZ ; Py_BuildNone
$LN1@background:

; 368  : }

  00053	c9		 leave
  00054	c3		 ret	 0
?backgroundSetSpaltLimit@@YAPAU_object@@PAU1@0@Z ENDP	; backgroundSetSpaltLimit
_TEXT	ENDS
; Function compile flags: /Odspy
; File D:\Metin2 Server Files\mainline\SRC_2014\Metin2Client\UserInterface\PythonBackgroundModule.cpp
;	COMDAT ?backgroundSetVisiblePart@@YAPAU_object@@PAU1@0@Z
_TEXT	SEGMENT
_rkBG$ = -16						; size = 4
_isVisible$ = -12					; size = 4
tv133 = -8						; size = 4
_ePart$ = -4						; size = 4
_poSelf$ = 8						; size = 4
_poArgs$ = 12						; size = 4
?backgroundSetVisiblePart@@YAPAU_object@@PAU1@0@Z PROC	; backgroundSetVisiblePart, COMDAT

; 337  : {

  00000	55		 push	 ebp
  00001	8b ec		 mov	 ebp, esp
  00003	83 ec 10	 sub	 esp, 16			; 00000010H

; 338  : 	int ePart;
; 339  : 	if (!PyTuple_GetInteger(poArgs, 0, &ePart))

  00006	8d 45 fc	 lea	 eax, DWORD PTR _ePart$[ebp]
  00009	50		 push	 eax
  0000a	6a 00		 push	 0
  0000c	ff 75 0c	 push	 DWORD PTR _poArgs$[ebp]
  0000f	e8 00 00 00 00	 call	 ?PyTuple_GetInteger@@YA_NPAU_object@@HPAH@Z ; PyTuple_GetInteger
  00014	83 c4 0c	 add	 esp, 12			; 0000000cH
  00017	0f b6 c0	 movzx	 eax, al
  0001a	85 c0		 test	 eax, eax
  0001c	75 07		 jne	 SHORT $LN2@background

; 340  : 		return Py_BadArgument();

  0001e	e8 00 00 00 00	 call	 ?Py_BadArgument@@YAPAU_object@@XZ ; Py_BadArgument
  00023	eb 64		 jmp	 SHORT $LN1@background
$LN2@background:

; 341  : 
; 342  : 	int isVisible;
; 343  : 	if (!PyTuple_GetInteger(poArgs, 1, &isVisible))

  00025	8d 45 f4	 lea	 eax, DWORD PTR _isVisible$[ebp]
  00028	50		 push	 eax
  00029	6a 01		 push	 1
  0002b	ff 75 0c	 push	 DWORD PTR _poArgs$[ebp]
  0002e	e8 00 00 00 00	 call	 ?PyTuple_GetInteger@@YA_NPAU_object@@HPAH@Z ; PyTuple_GetInteger
  00033	83 c4 0c	 add	 esp, 12			; 0000000cH
  00036	0f b6 c0	 movzx	 eax, al
  00039	85 c0		 test	 eax, eax
  0003b	75 07		 jne	 SHORT $LN3@background

; 344  : 		return Py_BadArgument();

  0003d	e8 00 00 00 00	 call	 ?Py_BadArgument@@YAPAU_object@@XZ ; Py_BadArgument
  00042	eb 45		 jmp	 SHORT $LN1@background
$LN3@background:

; 345  : 
; 346  : 	if (ePart>=CMapOutdoor::PART_NUM)

  00044	83 7d fc 06	 cmp	 DWORD PTR _ePart$[ebp], 6
  00048	7c 14		 jl	 SHORT $LN8@background

; 347  : 		return Py_BuildException("ePart(%d)<background.PART_NUM(%d)", ePart, CMapOutdoor::PART_NUM);

  0004a	6a 06		 push	 6
  0004c	ff 75 fc	 push	 DWORD PTR _ePart$[ebp]
  0004f	68 00 00 00 00	 push	 OFFSET ??_C@_0CC@JHPGFABG@ePart?$CI?$CFd?$CJ?$DMbackground?4PART_NUM?$CI?$CF@
  00054	e8 00 00 00 00	 call	 ?Py_BuildException@@YAPAU_object@@PBDZZ ; Py_BuildException
  00059	83 c4 0c	 add	 esp, 12			; 0000000cH
  0005c	eb 2b		 jmp	 SHORT $LN1@background
$LN8@background:

; 348  : 
; 349  : 	CPythonBackground& rkBG=CPythonBackground::Instance();

  0005e	a1 00 00 00 00	 mov	 eax, DWORD PTR ?ms_singleton@?$CSingleton@VCPythonBackground@@@@0PAVCPythonBackground@@A ; CSingleton<CPythonBackground>::ms_singleton
  00063	89 45 f0	 mov	 DWORD PTR _rkBG$[ebp], eax

; 350  : 	rkBG.SetVisiblePart(ePart, isVisible ? true : false);

  00066	83 7d f4 00	 cmp	 DWORD PTR _isVisible$[ebp], 0
  0006a	74 06		 je	 SHORT $LN6@background
  0006c	c6 45 f8 01	 mov	 BYTE PTR tv133[ebp], 1
  00070	eb 04		 jmp	 SHORT $LN7@background
$LN6@background:
  00072	c6 45 f8 00	 mov	 BYTE PTR tv133[ebp], 0
$LN7@background:
  00076	ff 75 f8	 push	 DWORD PTR tv133[ebp]
  00079	ff 75 fc	 push	 DWORD PTR _ePart$[ebp]
  0007c	8b 4d f0	 mov	 ecx, DWORD PTR _rkBG$[ebp]
  0007f	e8 00 00 00 00	 call	 ?SetVisiblePart@CPythonBackground@@QAE_NH_N@Z ; CPythonBackground::SetVisiblePart

; 351  : 
; 352  : 	return Py_BuildNone();

  00084	e8 00 00 00 00	 call	 ?Py_BuildNone@@YAPAU_object@@XZ ; Py_BuildNone
$LN1@background:

; 353  : }

  00089	c9		 leave
  0008a	c3		 ret	 0
?backgroundSetVisiblePart@@YAPAU_object@@PAU1@0@Z ENDP	; backgroundSetVisiblePart
_TEXT	ENDS
; Function compile flags: /Odspy
; File D:\Metin2 Server Files\mainline\SRC_2014\Metin2Client\UserInterface\PythonBackgroundModule.cpp
;	COMDAT ?backgroundSetShadowLevel@@YAPAU_object@@PAU1@0@Z
_TEXT	SEGMENT
_rkBG$ = -8						; size = 4
_iLevel$ = -4						; size = 4
_poSelf$ = 8						; size = 4
_poArgs$ = 12						; size = 4
?backgroundSetShadowLevel@@YAPAU_object@@PAU1@0@Z PROC	; backgroundSetShadowLevel, COMDAT

; 325  : {

  00000	55		 push	 ebp
  00001	8b ec		 mov	 ebp, esp
  00003	51		 push	 ecx
  00004	51		 push	 ecx

; 326  : 	int iLevel;
; 327  : 
; 328  : 	if (!PyTuple_GetInteger(poArgs, 0, &iLevel))

  00005	8d 45 fc	 lea	 eax, DWORD PTR _iLevel$[ebp]
  00008	50		 push	 eax
  00009	6a 00		 push	 0
  0000b	ff 75 0c	 push	 DWORD PTR _poArgs$[ebp]
  0000e	e8 00 00 00 00	 call	 ?PyTuple_GetInteger@@YA_NPAU_object@@HPAH@Z ; PyTuple_GetInteger
  00013	83 c4 0c	 add	 esp, 12			; 0000000cH
  00016	0f b6 c0	 movzx	 eax, al
  00019	85 c0		 test	 eax, eax
  0001b	75 07		 jne	 SHORT $LN4@background

; 329  : 		return Py_BadArgument();

  0001d	e8 00 00 00 00	 call	 ?Py_BadArgument@@YAPAU_object@@XZ ; Py_BadArgument
  00022	eb 18		 jmp	 SHORT $LN1@background
$LN4@background:

; 330  : 
; 331  : 	CPythonBackground& rkBG = CPythonBackground::Instance();

  00024	a1 00 00 00 00	 mov	 eax, DWORD PTR ?ms_singleton@?$CSingleton@VCPythonBackground@@@@0PAVCPythonBackground@@A ; CSingleton<CPythonBackground>::ms_singleton
  00029	89 45 f8	 mov	 DWORD PTR _rkBG$[ebp], eax

; 332  : 	rkBG.SetShadowLevel(iLevel);

  0002c	ff 75 fc	 push	 DWORD PTR _iLevel$[ebp]
  0002f	8b 4d f8	 mov	 ecx, DWORD PTR _rkBG$[ebp]
  00032	e8 00 00 00 00	 call	 ?SetShadowLevel@CPythonBackground@@QAE_NH@Z ; CPythonBackground::SetShadowLevel

; 333  : 	return Py_BuildNone();

  00037	e8 00 00 00 00	 call	 ?Py_BuildNone@@YAPAU_object@@XZ ; Py_BuildNone
$LN1@background:

; 334  : }

  0003c	c9		 leave
  0003d	c3		 ret	 0
?backgroundSetShadowLevel@@YAPAU_object@@PAU1@0@Z ENDP	; backgroundSetShadowLevel
_TEXT	ENDS
; Function compile flags: /Odspy
; File D:\Metin2 Server Files\mainline\SRC_2014\Metin2Client\UserInterface\PythonBackgroundModule.cpp
; File D:\Metin2 Server Files\mainline\SRC_2014\Metin2Client\eterBase\Singleton.h
; File D:\Metin2 Server Files\mainline\SRC_2014\Metin2Client\UserInterface\PythonBackgroundModule.cpp
;	COMDAT ?backgroundGetShadowMapcolor@@YAPAU_object@@PAU1@0@Z
_TEXT	SEGMENT
_dwColor$ = -16						; size = 4
$T1 = -12						; size = 4
_fx$ = -8						; size = 4
_fy$ = -4						; size = 4
_poSelf$ = 8						; size = 4
_poArgs$ = 12						; size = 4
?backgroundGetShadowMapcolor@@YAPAU_object@@PAU1@0@Z PROC ; backgroundGetShadowMapcolor, COMDAT

; 311  : {

  00000	55		 push	 ebp
  00001	8b ec		 mov	 ebp, esp
  00003	83 ec 10	 sub	 esp, 16			; 00000010H

; 312  : 	float fx;
; 313  : 	if (!PyTuple_GetFloat(poArgs, 0, &fx))

  00006	8d 45 f8	 lea	 eax, DWORD PTR _fx$[ebp]
  00009	50		 push	 eax
  0000a	6a 00		 push	 0
  0000c	ff 75 0c	 push	 DWORD PTR _poArgs$[ebp]
  0000f	e8 00 00 00 00	 call	 ?PyTuple_GetFloat@@YA_NPAU_object@@HPAM@Z ; PyTuple_GetFloat
  00014	83 c4 0c	 add	 esp, 12			; 0000000cH
  00017	0f b6 c0	 movzx	 eax, al
  0001a	85 c0		 test	 eax, eax
  0001c	75 07		 jne	 SHORT $LN2@background

; 314  : 		return Py_BadArgument();

  0001e	e8 00 00 00 00	 call	 ?Py_BadArgument@@YAPAU_object@@XZ ; Py_BadArgument
  00023	eb 58		 jmp	 SHORT $LN1@background
$LN2@background:

; 315  : 
; 316  : 	float fy;
; 317  : 	if (!PyTuple_GetFloat(poArgs, 1, &fy))

  00025	8d 45 fc	 lea	 eax, DWORD PTR _fy$[ebp]
  00028	50		 push	 eax
  00029	6a 01		 push	 1
  0002b	ff 75 0c	 push	 DWORD PTR _poArgs$[ebp]
  0002e	e8 00 00 00 00	 call	 ?PyTuple_GetFloat@@YA_NPAU_object@@HPAM@Z ; PyTuple_GetFloat
  00033	83 c4 0c	 add	 esp, 12			; 0000000cH
  00036	0f b6 c0	 movzx	 eax, al
  00039	85 c0		 test	 eax, eax
  0003b	75 07		 jne	 SHORT $LN3@background

; 318  : 		return Py_BadArgument();

  0003d	e8 00 00 00 00	 call	 ?Py_BadArgument@@YAPAU_object@@XZ ; Py_BadArgument
  00042	eb 39		 jmp	 SHORT $LN1@background
$LN3@background:
; File D:\Metin2 Server Files\mainline\SRC_2014\Metin2Client\eterBase\Singleton.h

; 27   : 		return (*ms_singleton);

  00044	a1 00 00 00 00	 mov	 eax, DWORD PTR ?ms_singleton@?$CSingleton@VCPythonBackground@@@@0PAVCPythonBackground@@A ; CSingleton<CPythonBackground>::ms_singleton
  00049	89 45 f4	 mov	 DWORD PTR $T1[ebp], eax
; File D:\Metin2 Server Files\mainline\SRC_2014\Metin2Client\UserInterface\PythonBackgroundModule.cpp

; 320  : 	DWORD dwColor = CPythonBackground::Instance().GetShadowMapColor(fx, fy);

  0004c	51		 push	 ecx
  0004d	f3 0f 10 45 fc	 movss	 xmm0, DWORD PTR _fy$[ebp]
  00052	f3 0f 11 04 24	 movss	 DWORD PTR [esp], xmm0
  00057	51		 push	 ecx
  00058	f3 0f 10 45 f8	 movss	 xmm0, DWORD PTR _fx$[ebp]
  0005d	f3 0f 11 04 24	 movss	 DWORD PTR [esp], xmm0
  00062	8b 4d f4	 mov	 ecx, DWORD PTR $T1[ebp]
  00065	e8 00 00 00 00	 call	 ?GetShadowMapColor@CMapManager@@QAEKMM@Z ; CMapManager::GetShadowMapColor
  0006a	89 45 f0	 mov	 DWORD PTR _dwColor$[ebp], eax

; 321  : 	return Py_BuildValue("i", dwColor);

  0006d	ff 75 f0	 push	 DWORD PTR _dwColor$[ebp]
  00070	68 00 00 00 00	 push	 OFFSET ??_C@_01KBJDNOO@i@
  00075	ff 15 00 00 00
	00		 call	 DWORD PTR __imp__Py_BuildValue
  0007b	59		 pop	 ecx
  0007c	59		 pop	 ecx
$LN1@background:

; 322  : }

  0007d	c9		 leave
  0007e	c3		 ret	 0
?backgroundGetShadowMapcolor@@YAPAU_object@@PAU1@0@Z ENDP ; backgroundGetShadowMapcolor
_TEXT	ENDS
; Function compile flags: /Odspy
; File D:\Metin2 Server Files\mainline\SRC_2014\Metin2Client\UserInterface\PythonBackgroundModule.cpp
;	COMDAT ?backgroundGetRenderShadowTime@@YAPAU_object@@PAU1@0@Z
_TEXT	SEGMENT
_rkBG$ = -4						; size = 4
_poSelf$ = 8						; size = 4
_poArgs$ = 12						; size = 4
?backgroundGetRenderShadowTime@@YAPAU_object@@PAU1@0@Z PROC ; backgroundGetRenderShadowTime, COMDAT

; 305  : {

  00000	55		 push	 ebp
  00001	8b ec		 mov	 ebp, esp
  00003	51		 push	 ecx

; 306  : 	CPythonBackground& rkBG=CPythonBackground::Instance();

  00004	a1 00 00 00 00	 mov	 eax, DWORD PTR ?ms_singleton@?$CSingleton@VCPythonBackground@@@@0PAVCPythonBackground@@A ; CSingleton<CPythonBackground>::ms_singleton
  00009	89 45 fc	 mov	 DWORD PTR _rkBG$[ebp], eax

; 307  : 	return Py_BuildValue("i", rkBG.GetRenderShadowTime());

  0000c	8b 4d fc	 mov	 ecx, DWORD PTR _rkBG$[ebp]
  0000f	e8 00 00 00 00	 call	 ?GetRenderShadowTime@CPythonBackground@@QAEKXZ ; CPythonBackground::GetRenderShadowTime
  00014	50		 push	 eax
  00015	68 00 00 00 00	 push	 OFFSET ??_C@_01KBJDNOO@i@
  0001a	ff 15 00 00 00
	00		 call	 DWORD PTR __imp__Py_BuildValue
  00020	59		 pop	 ecx
  00021	59		 pop	 ecx

; 308  : }

  00022	c9		 leave
  00023	c3		 ret	 0
?backgroundGetRenderShadowTime@@YAPAU_object@@PAU1@0@Z ENDP ; backgroundGetRenderShadowTime
_TEXT	ENDS
; Function compile flags: /Odspy
; File D:\Metin2 Server Files\mainline\SRC_2014\Metin2Client\UserInterface\PythonBackgroundModule.cpp
;	COMDAT ?backgroundGetRenderedGTINum@@YAPAU_object@@PAU1@0@Z
_TEXT	SEGMENT
_dwGraphicThingInstanceNum$ = -8			; size = 4
_dwCRCNum$ = -4						; size = 4
_poSelf$ = 8						; size = 4
_poArgs$ = 12						; size = 4
?backgroundGetRenderedGTINum@@YAPAU_object@@PAU1@0@Z PROC ; backgroundGetRenderedGTINum, COMDAT

; 288  : {

  00000	55		 push	 ebp
  00001	8b ec		 mov	 ebp, esp
  00003	51		 push	 ecx
  00004	51		 push	 ecx

; 289  : 	DWORD dwGraphicThingInstanceNum;
; 290  : 	DWORD dwCRCNum;
; 291  : 
; 292  : 	/*CArea::TCRCWithNumberVector & rCRCWithNumberVector = */
; 293  : 	CPythonBackground::Instance().GetRenderedGraphicThingInstanceNum(&dwGraphicThingInstanceNum, &dwCRCNum);

  00005	8d 45 fc	 lea	 eax, DWORD PTR _dwCRCNum$[ebp]
  00008	50		 push	 eax
  00009	8d 45 f8	 lea	 eax, DWORD PTR _dwGraphicThingInstanceNum$[ebp]
  0000c	50		 push	 eax
  0000d	8b 0d 00 00 00
	00		 mov	 ecx, DWORD PTR ?ms_singleton@?$CSingleton@VCPythonBackground@@@@0PAVCPythonBackground@@A ; CSingleton<CPythonBackground>::ms_singleton
  00013	e8 00 00 00 00	 call	 ?GetRenderedGraphicThingInstanceNum@CMapManager@@QAEAAV?$vector@USCRCWithNumber@CArea@@V?$allocator@USCRCWithNumber@CArea@@@std@@@std@@PAK0@Z ; CMapManager::GetRenderedGraphicThingInstanceNum

; 294  : 
; 295  : /*
; 296  : 	std::ostringstream ostr;
; 297  : 
; 298  : 	std::for_each(rCRCWithNumberVector.begin(),rCRCWithNumberVector.end(),std::ostream_iterator<CArea::TCRCWithNumberVector>(ostr," "));
; 299  : */
; 300  : 
; 301  : 	return Py_BuildValue("ii", dwGraphicThingInstanceNum, dwCRCNum);

  00018	ff 75 fc	 push	 DWORD PTR _dwCRCNum$[ebp]
  0001b	ff 75 f8	 push	 DWORD PTR _dwGraphicThingInstanceNum$[ebp]
  0001e	68 00 00 00 00	 push	 OFFSET ??_C@_02PDIHAGKM@ii@
  00023	ff 15 00 00 00
	00		 call	 DWORD PTR __imp__Py_BuildValue
  00029	83 c4 0c	 add	 esp, 12			; 0000000cH

; 302  : }

  0002c	c9		 leave
  0002d	c3		 ret	 0
?backgroundGetRenderedGTINum@@YAPAU_object@@PAU1@0@Z ENDP ; backgroundGetRenderedGTINum
_TEXT	ENDS
; Function compile flags: /Odspy
; File D:\Metin2 Server Files\mainline\SRC_2014\Metin2Client\UserInterface\PythonBackgroundModule.cpp
; File D:\Metin2 Server Files\mainline\SRC_2014\Metin2Client\eterBase\Singleton.h
; File D:\Metin2 Server Files\mainline\SRC_2014\Metin2Client\UserInterface\PythonBackgroundModule.cpp
; File C:\Program Files (x86)\Microsoft Visual Studio\2019\Community\VC\Tools\MSVC\14.28.29333\include\vector
; File C:\Program Files (x86)\Microsoft Visual Studio\2019\Community\VC\Tools\MSVC\14.28.29333\include\xstddef
; File C:\Program Files (x86)\Microsoft Visual Studio\2019\Community\VC\Tools\MSVC\14.28.29333\include\vector
; File D:\Metin2 Server Files\mainline\SRC_2014\Metin2Client\UserInterface\PythonBackgroundModule.cpp
; File C:\Program Files (x86)\Microsoft Visual Studio\2019\Community\VC\Tools\MSVC\14.28.29333\include\vector
; File C:\Program Files (x86)\Microsoft Visual Studio\2019\Community\VC\Tools\MSVC\14.28.29333\include\xstddef
; File C:\Program Files (x86)\Microsoft Visual Studio\2019\Community\VC\Tools\MSVC\14.28.29333\include\vector
; File D:\Metin2 Server Files\mainline\SRC_2014\Metin2Client\UserInterface\PythonBackgroundModule.cpp
; File C:\Program Files (x86)\Microsoft Visual Studio\2019\Community\VC\Tools\MSVC\14.28.29333\include\vector
; File D:\Metin2 Server Files\mainline\SRC_2014\Metin2Client\UserInterface\PythonBackgroundModule.cpp
;	COMDAT ?backgroundGetRenderedSplatNum@@YAPAU_object@@PAU1@0@Z
_TEXT	SEGMENT
$T1 = -124						; size = 4
$T2 = -120						; size = 4
$T3 = -116						; size = 4
_iPatch$ = -112						; size = 4
_iSplat$ = -108						; size = 4
_fSplatRatio$ = -104					; size = 4
$T4 = -100						; size = 4
$T5 = -96						; size = 4
$T6 = -92						; size = 4
$T7 = -88						; size = 4
___param0$ = -84					; size = 4
__Tmp$8 = -80						; size = 4
___param0$ = -76					; size = 4
$T9 = -72						; size = 4
tv193 = -68						; size = 4
tv207 = -64						; size = 4
__My_data$10 = -60					; size = 4
_aTextureNumVector$ = -56				; size = 4
__My_data$11 = -52					; size = 4
_iOutput$ = -48						; size = 4
_it$12 = -44						; size = 4
$T13 = -38						; size = 1
$T14 = -37						; size = 1
_szOutput$ = -36					; size = 260
__$ArrayPad$ = 224					; size = 4
_poSelf$ = 236						; size = 4
_poArgs$ = 240						; size = 4
?backgroundGetRenderedSplatNum@@YAPAU_object@@PAU1@0@Z PROC ; backgroundGetRenderedSplatNum, COMDAT

; 270  : {

  00000	55		 push	 ebp
  00001	8d ac 24 1c ff
	ff ff		 lea	 ebp, DWORD PTR [esp-228]
  00008	81 ec 60 01 00
	00		 sub	 esp, 352		; 00000160H
  0000e	a1 00 00 00 00	 mov	 eax, DWORD PTR ___security_cookie
  00013	33 c5		 xor	 eax, ebp
  00015	89 85 e0 00 00
	00		 mov	 DWORD PTR __$ArrayPad$[ebp], eax
; File D:\Metin2 Server Files\mainline\SRC_2014\Metin2Client\eterBase\Singleton.h

; 27   : 		return (*ms_singleton);

  0001b	a1 00 00 00 00	 mov	 eax, DWORD PTR ?ms_singleton@?$CSingleton@VCPythonBackground@@@@0PAVCPythonBackground@@A ; CSingleton<CPythonBackground>::ms_singleton
  00020	89 45 b8	 mov	 DWORD PTR $T9[ebp], eax
; File D:\Metin2 Server Files\mainline\SRC_2014\Metin2Client\UserInterface\PythonBackgroundModule.cpp

; 275  : 	std::vector<int> & aTextureNumVector = CPythonBackground::Instance().GetRenderedSplatNum(&iPatch, &iSplat, &fSplatRatio);

  00023	8d 45 98	 lea	 eax, DWORD PTR _fSplatRatio$[ebp]
  00026	50		 push	 eax
  00027	8d 45 94	 lea	 eax, DWORD PTR _iSplat$[ebp]
  0002a	50		 push	 eax
  0002b	8d 45 90	 lea	 eax, DWORD PTR _iPatch$[ebp]
  0002e	50		 push	 eax
  0002f	8b 4d b8	 mov	 ecx, DWORD PTR $T9[ebp]
  00032	e8 00 00 00 00	 call	 ?GetRenderedSplatNum@CMapManager@@QAEAAV?$vector@HV?$allocator@H@std@@@std@@PAH0PAM@Z ; CMapManager::GetRenderedSplatNum
  00037	89 45 c8	 mov	 DWORD PTR _aTextureNumVector$[ebp], eax

; 276  : 
; 277  : 	char szOutput[MAX_PATH] = "";

  0003a	a0 00 00 00 00	 mov	 al, BYTE PTR ??_C@_00CNPNBAHC@@
  0003f	88 45 dc	 mov	 BYTE PTR _szOutput$[ebp], al
  00042	68 03 01 00 00	 push	 259			; 00000103H
  00047	6a 00		 push	 0
  00049	8d 45 dd	 lea	 eax, DWORD PTR _szOutput$[ebp+1]
  0004c	50		 push	 eax
  0004d	e8 00 00 00 00	 call	 _memset
  00052	83 c4 0c	 add	 esp, 12			; 0000000cH

; 278  : 	int iOutput = 0;

  00055	83 65 d0 00	 and	 DWORD PTR _iOutput$[ebp], 0
; File C:\Program Files (x86)\Microsoft Visual Studio\2019\Community\VC\Tools\MSVC\14.28.29333\include\vector

; 1410 :         auto& _My_data = _Mypair._Myval2;

  00059	8b 45 c8	 mov	 eax, DWORD PTR _aTextureNumVector$[ebp]
  0005c	89 45 cc	 mov	 DWORD PTR __My_data$11[ebp], eax
; File C:\Program Files (x86)\Microsoft Visual Studio\2019\Community\VC\Tools\MSVC\14.28.29333\include\xstddef

; 275  :     return __builtin_addressof(_Val);

  0005f	8b 45 cc	 mov	 eax, DWORD PTR __My_data$11[ebp]
  00062	89 45 8c	 mov	 DWORD PTR $T3[ebp], eax
; File C:\Program Files (x86)\Microsoft Visual Studio\2019\Community\VC\Tools\MSVC\14.28.29333\include\vector

; 1411 :         return iterator(_My_data._Myfirst, _STD addressof(_My_data));

  00065	8b 45 cc	 mov	 eax, DWORD PTR __My_data$11[ebp]
  00068	8b 00		 mov	 eax, DWORD PTR [eax]
  0006a	89 45 b4	 mov	 DWORD PTR ___param0$[ebp], eax

; 42   :     _Vector_const_iterator(_Tptr _Parg, const _Container_base* _Pvector) noexcept : _Ptr(_Parg) {

  0006d	8b 45 b4	 mov	 eax, DWORD PTR ___param0$[ebp]
  00070	89 45 d4	 mov	 DWORD PTR _it$12[ebp], eax
; File D:\Metin2 Server Files\mainline\SRC_2014\Metin2Client\UserInterface\PythonBackgroundModule.cpp

; 279  : 	for( std::vector<int>::iterator it = aTextureNumVector.begin(); it != aTextureNumVector.end(); it++ ) {

  00073	eb 15		 jmp	 SHORT $LN23@background
$LN2@background:
; File C:\Program Files (x86)\Microsoft Visual Studio\2019\Community\VC\Tools\MSVC\14.28.29333\include\vector

; 265  :         _Vector_iterator _Tmp = *this;

  00075	8b 45 d4	 mov	 eax, DWORD PTR _it$12[ebp]
  00078	89 45 b0	 mov	 DWORD PTR __Tmp$8[ebp], eax

; 75   :         ++_Ptr;

  0007b	8b 45 d4	 mov	 eax, DWORD PTR _it$12[ebp]
  0007e	83 c0 04	 add	 eax, 4
  00081	89 45 d4	 mov	 DWORD PTR _it$12[ebp], eax

; 267  :         return _Tmp;

  00084	8b 45 b0	 mov	 eax, DWORD PTR __Tmp$8[ebp]
  00087	89 45 88	 mov	 DWORD PTR $T2[ebp], eax
$LN23@background:

; 1420 :         auto& _My_data = _Mypair._Myval2;

  0008a	8b 45 c8	 mov	 eax, DWORD PTR _aTextureNumVector$[ebp]
  0008d	89 45 c4	 mov	 DWORD PTR __My_data$10[ebp], eax
; File C:\Program Files (x86)\Microsoft Visual Studio\2019\Community\VC\Tools\MSVC\14.28.29333\include\xstddef

; 275  :     return __builtin_addressof(_Val);

  00090	8b 45 c4	 mov	 eax, DWORD PTR __My_data$10[ebp]
  00093	89 45 84	 mov	 DWORD PTR $T1[ebp], eax
; File C:\Program Files (x86)\Microsoft Visual Studio\2019\Community\VC\Tools\MSVC\14.28.29333\include\vector

; 1421 :         return iterator(_My_data._Mylast, _STD addressof(_My_data));

  00096	8b 45 c4	 mov	 eax, DWORD PTR __My_data$10[ebp]
  00099	8b 40 04	 mov	 eax, DWORD PTR [eax+4]
  0009c	89 45 ac	 mov	 DWORD PTR ___param0$[ebp], eax

; 42   :     _Vector_const_iterator(_Tptr _Parg, const _Container_base* _Pvector) noexcept : _Ptr(_Parg) {

  0009f	8b 45 ac	 mov	 eax, DWORD PTR ___param0$[ebp]
  000a2	89 45 a8	 mov	 DWORD PTR $T7[ebp], eax

; 1421 :         return iterator(_My_data._Mylast, _STD addressof(_My_data));

  000a5	8d 45 a8	 lea	 eax, DWORD PTR $T7[ebp]
  000a8	89 45 a4	 mov	 DWORD PTR $T6[ebp], eax

; 149  :         return _Ptr == _Right._Ptr;

  000ab	8b 45 a4	 mov	 eax, DWORD PTR $T6[ebp]
  000ae	8b 4d d4	 mov	 ecx, DWORD PTR _it$12[ebp]
  000b1	3b 08		 cmp	 ecx, DWORD PTR [eax]
  000b3	75 09		 jne	 SHORT $LN51@background
  000b5	c7 45 c0 01 00
	00 00		 mov	 DWORD PTR tv207[ebp], 1
  000bc	eb 04		 jmp	 SHORT $LN52@background
$LN51@background:
  000be	83 65 c0 00	 and	 DWORD PTR tv207[ebp], 0
$LN52@background:
  000c2	8a 45 c0	 mov	 al, BYTE PTR tv207[ebp]
  000c5	88 45 db	 mov	 BYTE PTR $T14[ebp], al

; 153  :         return !(*this == _Right);

  000c8	0f b6 45 db	 movzx	 eax, BYTE PTR $T14[ebp]
  000cc	85 c0		 test	 eax, eax
  000ce	75 09		 jne	 SHORT $LN46@background
  000d0	c7 45 bc 01 00
	00 00		 mov	 DWORD PTR tv193[ebp], 1
  000d7	eb 04		 jmp	 SHORT $LN47@background
$LN46@background:
  000d9	83 65 bc 00	 and	 DWORD PTR tv193[ebp], 0
$LN47@background:
  000dd	8a 45 bc	 mov	 al, BYTE PTR tv193[ebp]
  000e0	88 45 da	 mov	 BYTE PTR $T13[ebp], al
; File D:\Metin2 Server Files\mainline\SRC_2014\Metin2Client\UserInterface\PythonBackgroundModule.cpp

; 279  : 	for( std::vector<int>::iterator it = aTextureNumVector.begin(); it != aTextureNumVector.end(); it++ ) {

  000e3	0f b6 45 da	 movzx	 eax, BYTE PTR $T13[ebp]
  000e7	85 c0		 test	 eax, eax
  000e9	74 3a		 je	 SHORT $LN3@background
; File C:\Program Files (x86)\Microsoft Visual Studio\2019\Community\VC\Tools\MSVC\14.28.29333\include\vector

; 54   :         return *_Ptr;

  000eb	8b 45 d4	 mov	 eax, DWORD PTR _it$12[ebp]
  000ee	89 45 a0	 mov	 DWORD PTR $T5[ebp], eax

; 252  :         return const_cast<reference>(_Mybase::operator*());

  000f1	8b 45 a0	 mov	 eax, DWORD PTR $T5[ebp]
  000f4	89 45 9c	 mov	 DWORD PTR $T4[ebp], eax
; File D:\Metin2 Server Files\mainline\SRC_2014\Metin2Client\UserInterface\PythonBackgroundModule.cpp

; 280  : 		iOutput += snprintf(szOutput + iOutput, sizeof(szOutput) - iOutput, "%d ", *it);

  000f7	8b 45 9c	 mov	 eax, DWORD PTR $T4[ebp]
  000fa	ff 30		 push	 DWORD PTR [eax]
  000fc	68 00 00 00 00	 push	 OFFSET ??_C@_03JDANDILB@?$CFd?5@
  00101	b8 04 01 00 00	 mov	 eax, 260		; 00000104H
  00106	2b 45 d0	 sub	 eax, DWORD PTR _iOutput$[ebp]
  00109	50		 push	 eax
  0010a	8b 45 d0	 mov	 eax, DWORD PTR _iOutput$[ebp]
  0010d	8d 44 05 dc	 lea	 eax, DWORD PTR _szOutput$[ebp+eax]
  00111	50		 push	 eax
  00112	e8 00 00 00 00	 call	 __snprintf
  00117	83 c4 10	 add	 esp, 16			; 00000010H
  0011a	03 45 d0	 add	 eax, DWORD PTR _iOutput$[ebp]
  0011d	89 45 d0	 mov	 DWORD PTR _iOutput$[ebp], eax

; 281  : 	}

  00120	e9 50 ff ff ff	 jmp	 $LN2@background
$LN3@background:

; 282  : 	//std::copy(aTextureNumVector.begin(),aTextureNumVector.end(),std::ostream_iterator<int>(ostr," "));
; 283  : 
; 284  : 	return Py_BuildValue("iifs", iPatch, iSplat, fSplatRatio, szOutput);

  00125	8d 45 dc	 lea	 eax, DWORD PTR _szOutput$[ebp]
  00128	50		 push	 eax
  00129	f3 0f 5a 45 98	 cvtss2sd xmm0, DWORD PTR _fSplatRatio$[ebp]
  0012e	51		 push	 ecx
  0012f	51		 push	 ecx
  00130	f2 0f 11 04 24	 movsd	 QWORD PTR [esp], xmm0
  00135	ff 75 94	 push	 DWORD PTR _iSplat$[ebp]
  00138	ff 75 90	 push	 DWORD PTR _iPatch$[ebp]
  0013b	68 00 00 00 00	 push	 OFFSET ??_C@_04KDJJDIPA@iifs@
  00140	ff 15 00 00 00
	00		 call	 DWORD PTR __imp__Py_BuildValue
  00146	83 c4 18	 add	 esp, 24			; 00000018H

; 285  : }

  00149	8b 8d e0 00 00
	00		 mov	 ecx, DWORD PTR __$ArrayPad$[ebp]
  0014f	33 cd		 xor	 ecx, ebp
  00151	e8 00 00 00 00	 call	 @__security_check_cookie@4
  00156	81 c5 e4 00 00
	00		 add	 ebp, 228		; 000000e4H
  0015c	c9		 leave
  0015d	c3		 ret	 0
?backgroundGetRenderedSplatNum@@YAPAU_object@@PAU1@0@Z ENDP ; backgroundGetRenderedSplatNum
_TEXT	ENDS
; Function compile flags: /Odspy
; File D:\Metin2 Server Files\mainline\SRC_2014\Metin2Client\UserInterface\PythonBackgroundModule.cpp
; File D:\Metin2 Server Files\mainline\SRC_2014\Metin2Client\eterBase\Singleton.h
; File D:\Metin2 Server Files\mainline\SRC_2014\Metin2Client\UserInterface\PythonBackgroundModule.cpp
;	COMDAT ?backgroundGetHeight@@YAPAU_object@@PAU1@0@Z
_TEXT	SEGMENT
_fz$ = -16						; size = 4
$T1 = -12						; size = 4
_fx$ = -8						; size = 4
_fy$ = -4						; size = 4
_poSelf$ = 8						; size = 4
_poArgs$ = 12						; size = 4
?backgroundGetHeight@@YAPAU_object@@PAU1@0@Z PROC	; backgroundGetHeight, COMDAT

; 256  : {

  00000	55		 push	 ebp
  00001	8b ec		 mov	 ebp, esp
  00003	83 ec 10	 sub	 esp, 16			; 00000010H

; 257  : 	float fx;
; 258  : 	if (!PyTuple_GetFloat(poArgs, 0, &fx))

  00006	8d 45 f8	 lea	 eax, DWORD PTR _fx$[ebp]
  00009	50		 push	 eax
  0000a	6a 00		 push	 0
  0000c	ff 75 0c	 push	 DWORD PTR _poArgs$[ebp]
  0000f	e8 00 00 00 00	 call	 ?PyTuple_GetFloat@@YA_NPAU_object@@HPAM@Z ; PyTuple_GetFloat
  00014	83 c4 0c	 add	 esp, 12			; 0000000cH
  00017	0f b6 c0	 movzx	 eax, al
  0001a	85 c0		 test	 eax, eax
  0001c	75 07		 jne	 SHORT $LN2@background

; 259  : 		return Py_BadArgument();

  0001e	e8 00 00 00 00	 call	 ?Py_BadArgument@@YAPAU_object@@XZ ; Py_BadArgument
  00023	eb 62		 jmp	 SHORT $LN1@background
$LN2@background:

; 260  : 
; 261  : 	float fy;
; 262  : 	if (!PyTuple_GetFloat(poArgs, 1, &fy))

  00025	8d 45 fc	 lea	 eax, DWORD PTR _fy$[ebp]
  00028	50		 push	 eax
  00029	6a 01		 push	 1
  0002b	ff 75 0c	 push	 DWORD PTR _poArgs$[ebp]
  0002e	e8 00 00 00 00	 call	 ?PyTuple_GetFloat@@YA_NPAU_object@@HPAM@Z ; PyTuple_GetFloat
  00033	83 c4 0c	 add	 esp, 12			; 0000000cH
  00036	0f b6 c0	 movzx	 eax, al
  00039	85 c0		 test	 eax, eax
  0003b	75 07		 jne	 SHORT $LN3@background

; 263  : 		return Py_BadArgument();

  0003d	e8 00 00 00 00	 call	 ?Py_BadArgument@@YAPAU_object@@XZ ; Py_BadArgument
  00042	eb 43		 jmp	 SHORT $LN1@background
$LN3@background:
; File D:\Metin2 Server Files\mainline\SRC_2014\Metin2Client\eterBase\Singleton.h

; 27   : 		return (*ms_singleton);

  00044	a1 00 00 00 00	 mov	 eax, DWORD PTR ?ms_singleton@?$CSingleton@VCPythonBackground@@@@0PAVCPythonBackground@@A ; CSingleton<CPythonBackground>::ms_singleton
  00049	89 45 f4	 mov	 DWORD PTR $T1[ebp], eax
; File D:\Metin2 Server Files\mainline\SRC_2014\Metin2Client\UserInterface\PythonBackgroundModule.cpp

; 265  : 	float fz = CPythonBackground::Instance().GetHeight(fx, fy);

  0004c	51		 push	 ecx
  0004d	f3 0f 10 45 fc	 movss	 xmm0, DWORD PTR _fy$[ebp]
  00052	f3 0f 11 04 24	 movss	 DWORD PTR [esp], xmm0
  00057	51		 push	 ecx
  00058	f3 0f 10 45 f8	 movss	 xmm0, DWORD PTR _fx$[ebp]
  0005d	f3 0f 11 04 24	 movss	 DWORD PTR [esp], xmm0
  00062	8b 4d f4	 mov	 ecx, DWORD PTR $T1[ebp]
  00065	e8 00 00 00 00	 call	 ?GetHeight@CMapManager@@QAEMMM@Z ; CMapManager::GetHeight
  0006a	d9 5d f0	 fstp	 DWORD PTR _fz$[ebp]

; 266  : 	return Py_BuildValue("f", fz);

  0006d	f3 0f 5a 45 f0	 cvtss2sd xmm0, DWORD PTR _fz$[ebp]
  00072	51		 push	 ecx
  00073	51		 push	 ecx
  00074	f2 0f 11 04 24	 movsd	 QWORD PTR [esp], xmm0
  00079	68 00 00 00 00	 push	 OFFSET ??_C@_01INIBCBCB@f@
  0007e	ff 15 00 00 00
	00		 call	 DWORD PTR __imp__Py_BuildValue
  00084	83 c4 0c	 add	 esp, 12			; 0000000cH
$LN1@background:

; 267  : }

  00087	c9		 leave
  00088	c3		 ret	 0
?backgroundGetHeight@@YAPAU_object@@PAU1@0@Z ENDP	; backgroundGetHeight
_TEXT	ENDS
; Function compile flags: /Odspy
; File D:\Metin2 Server Files\mainline\SRC_2014\Metin2Client\UserInterface\PythonBackgroundModule.cpp
;	COMDAT ?backgroundRenderDungeon@@YAPAU_object@@PAU1@0@Z
_TEXT	SEGMENT
_poSelf$ = 8						; size = 4
_poArgs$ = 12						; size = 4
?backgroundRenderDungeon@@YAPAU_object@@PAU1@0@Z PROC	; backgroundRenderDungeon, COMDAT

; 250  : {

  00000	55		 push	 ebp
  00001	8b ec		 mov	 ebp, esp

; 251  : 	assert(!"background.RenderDungeon() -    - [levites]");
; 252  : 	return Py_BuildNone();

  00003	e8 00 00 00 00	 call	 ?Py_BuildNone@@YAPAU_object@@XZ ; Py_BuildNone

; 253  : }

  00008	5d		 pop	 ebp
  00009	c3		 ret	 0
?backgroundRenderDungeon@@YAPAU_object@@PAU1@0@Z ENDP	; backgroundRenderDungeon
_TEXT	ENDS
; Function compile flags: /Odspy
; File D:\Metin2 Server Files\mainline\SRC_2014\Metin2Client\UserInterface\PythonBackgroundModule.cpp
;	COMDAT ?backgroundRenderCharacterShadowToTexture@@YAPAU_object@@PAU1@0@Z
_TEXT	SEGMENT
_poSelf$ = 8						; size = 4
_poArgs$ = 12						; size = 4
?backgroundRenderCharacterShadowToTexture@@YAPAU_object@@PAU1@0@Z PROC ; backgroundRenderCharacterShadowToTexture, COMDAT

; 244  : {

  00000	55		 push	 ebp
  00001	8b ec		 mov	 ebp, esp

; 245  : 	CPythonBackground::Instance().RenderCharacterShadowToTexture();

  00003	8b 0d 00 00 00
	00		 mov	 ecx, DWORD PTR ?ms_singleton@?$CSingleton@VCPythonBackground@@@@0PAVCPythonBackground@@A ; CSingleton<CPythonBackground>::ms_singleton
  00009	e8 00 00 00 00	 call	 ?RenderCharacterShadowToTexture@CPythonBackground@@QAEXXZ ; CPythonBackground::RenderCharacterShadowToTexture

; 246  : 	return Py_BuildNone();

  0000e	e8 00 00 00 00	 call	 ?Py_BuildNone@@YAPAU_object@@XZ ; Py_BuildNone

; 247  : }

  00013	5d		 pop	 ebp
  00014	c3		 ret	 0
?backgroundRenderCharacterShadowToTexture@@YAPAU_object@@PAU1@0@Z ENDP ; backgroundRenderCharacterShadowToTexture
_TEXT	ENDS
; Function compile flags: /Odspy
; File D:\Metin2 Server Files\mainline\SRC_2014\Metin2Client\UserInterface\PythonBackgroundModule.cpp
;	COMDAT ?backgroundRenderAfterLensFlare@@YAPAU_object@@PAU1@0@Z
_TEXT	SEGMENT
_poSelf$ = 8						; size = 4
_poArgs$ = 12						; size = 4
?backgroundRenderAfterLensFlare@@YAPAU_object@@PAU1@0@Z PROC ; backgroundRenderAfterLensFlare, COMDAT

; 238  : {

  00000	55		 push	 ebp
  00001	8b ec		 mov	 ebp, esp

; 239  : 	CPythonBackground::Instance().RenderAfterLensFlare();

  00003	8b 0d 00 00 00
	00		 mov	 ecx, DWORD PTR ?ms_singleton@?$CSingleton@VCPythonBackground@@@@0PAVCPythonBackground@@A ; CSingleton<CPythonBackground>::ms_singleton
  00009	e8 00 00 00 00	 call	 ?RenderAfterLensFlare@CPythonBackground@@QAEXXZ ; CPythonBackground::RenderAfterLensFlare

; 240  : 	return Py_BuildNone();

  0000e	e8 00 00 00 00	 call	 ?Py_BuildNone@@YAPAU_object@@XZ ; Py_BuildNone

; 241  : }

  00013	5d		 pop	 ebp
  00014	c3		 ret	 0
?backgroundRenderAfterLensFlare@@YAPAU_object@@PAU1@0@Z ENDP ; backgroundRenderAfterLensFlare
_TEXT	ENDS
; Function compile flags: /Odspy
; File D:\Metin2 Server Files\mainline\SRC_2014\Metin2Client\UserInterface\PythonBackgroundModule.cpp
;	COMDAT ?backgroundRenderBeforeLensFlare@@YAPAU_object@@PAU1@0@Z
_TEXT	SEGMENT
_poSelf$ = 8						; size = 4
_poArgs$ = 12						; size = 4
?backgroundRenderBeforeLensFlare@@YAPAU_object@@PAU1@0@Z PROC ; backgroundRenderBeforeLensFlare, COMDAT

; 232  : {

  00000	55		 push	 ebp
  00001	8b ec		 mov	 ebp, esp

; 233  : 	CPythonBackground::Instance().RenderBeforeLensFlare();

  00003	8b 0d 00 00 00
	00		 mov	 ecx, DWORD PTR ?ms_singleton@?$CSingleton@VCPythonBackground@@@@0PAVCPythonBackground@@A ; CSingleton<CPythonBackground>::ms_singleton
  00009	e8 00 00 00 00	 call	 ?RenderBeforeLensFlare@CPythonBackground@@QAEXXZ ; CPythonBackground::RenderBeforeLensFlare

; 234  : 	return Py_BuildNone();

  0000e	e8 00 00 00 00	 call	 ?Py_BuildNone@@YAPAU_object@@XZ ; Py_BuildNone

; 235  : }

  00013	5d		 pop	 ebp
  00014	c3		 ret	 0
?backgroundRenderBeforeLensFlare@@YAPAU_object@@PAU1@0@Z ENDP ; backgroundRenderBeforeLensFlare
_TEXT	ENDS
; Function compile flags: /Odspy
; File D:\Metin2 Server Files\mainline\SRC_2014\Metin2Client\UserInterface\PythonBackgroundModule.cpp
;	COMDAT ?backgroundRenderEffect@@YAPAU_object@@PAU1@0@Z
_TEXT	SEGMENT
_poSelf$ = 8						; size = 4
_poArgs$ = 12						; size = 4
?backgroundRenderEffect@@YAPAU_object@@PAU1@0@Z PROC	; backgroundRenderEffect, COMDAT

; 226  : {

  00000	55		 push	 ebp
  00001	8b ec		 mov	 ebp, esp

; 227  : 	CPythonBackground::Instance().RenderEffect();

  00003	8b 0d 00 00 00
	00		 mov	 ecx, DWORD PTR ?ms_singleton@?$CSingleton@VCPythonBackground@@@@0PAVCPythonBackground@@A ; CSingleton<CPythonBackground>::ms_singleton
  00009	e8 00 00 00 00	 call	 ?RenderEffect@CPythonBackground@@QAEXXZ ; CPythonBackground::RenderEffect

; 228  : 	return Py_BuildNone();

  0000e	e8 00 00 00 00	 call	 ?Py_BuildNone@@YAPAU_object@@XZ ; Py_BuildNone

; 229  : }

  00013	5d		 pop	 ebp
  00014	c3		 ret	 0
?backgroundRenderEffect@@YAPAU_object@@PAU1@0@Z ENDP	; backgroundRenderEffect
_TEXT	ENDS
; Function compile flags: /Odspy
; File D:\Metin2 Server Files\mainline\SRC_2014\Metin2Client\UserInterface\PythonBackgroundModule.cpp
;	COMDAT ?backgroundRenderWater@@YAPAU_object@@PAU1@0@Z
_TEXT	SEGMENT
_poSelf$ = 8						; size = 4
_poArgs$ = 12						; size = 4
?backgroundRenderWater@@YAPAU_object@@PAU1@0@Z PROC	; backgroundRenderWater, COMDAT

; 220  : {

  00000	55		 push	 ebp
  00001	8b ec		 mov	 ebp, esp

; 221  : 	CPythonBackground::Instance().RenderWater();

  00003	8b 0d 00 00 00
	00		 mov	 ecx, DWORD PTR ?ms_singleton@?$CSingleton@VCPythonBackground@@@@0PAVCPythonBackground@@A ; CSingleton<CPythonBackground>::ms_singleton
  00009	e8 00 00 00 00	 call	 ?RenderWater@CPythonBackground@@QAEXXZ ; CPythonBackground::RenderWater

; 222  : 	return Py_BuildNone();

  0000e	e8 00 00 00 00	 call	 ?Py_BuildNone@@YAPAU_object@@XZ ; Py_BuildNone

; 223  : }

  00013	5d		 pop	 ebp
  00014	c3		 ret	 0
?backgroundRenderWater@@YAPAU_object@@PAU1@0@Z ENDP	; backgroundRenderWater
_TEXT	ENDS
; Function compile flags: /Odspy
; File D:\Metin2 Server Files\mainline\SRC_2014\Metin2Client\UserInterface\PythonBackgroundModule.cpp
;	COMDAT ?backgroundRenderCloud@@YAPAU_object@@PAU1@0@Z
_TEXT	SEGMENT
_poSelf$ = 8						; size = 4
_poArgs$ = 12						; size = 4
?backgroundRenderCloud@@YAPAU_object@@PAU1@0@Z PROC	; backgroundRenderCloud, COMDAT

; 214  : {

  00000	55		 push	 ebp
  00001	8b ec		 mov	 ebp, esp

; 215  : 	CPythonBackground::Instance().RenderCloud();

  00003	8b 0d 00 00 00
	00		 mov	 ecx, DWORD PTR ?ms_singleton@?$CSingleton@VCPythonBackground@@@@0PAVCPythonBackground@@A ; CSingleton<CPythonBackground>::ms_singleton
  00009	e8 00 00 00 00	 call	 ?RenderCloud@CPythonBackground@@QAEXXZ ; CPythonBackground::RenderCloud

; 216  : 	return Py_BuildNone();

  0000e	e8 00 00 00 00	 call	 ?Py_BuildNone@@YAPAU_object@@XZ ; Py_BuildNone

; 217  : }

  00013	5d		 pop	 ebp
  00014	c3		 ret	 0
?backgroundRenderCloud@@YAPAU_object@@PAU1@0@Z ENDP	; backgroundRenderCloud
_TEXT	ENDS
; Function compile flags: /Odspy
; File D:\Metin2 Server Files\mainline\SRC_2014\Metin2Client\UserInterface\PythonBackgroundModule.cpp
;	COMDAT ?backgroundRenderSky@@YAPAU_object@@PAU1@0@Z
_TEXT	SEGMENT
_poSelf$ = 8						; size = 4
_poArgs$ = 12						; size = 4
?backgroundRenderSky@@YAPAU_object@@PAU1@0@Z PROC	; backgroundRenderSky, COMDAT

; 208  : {

  00000	55		 push	 ebp
  00001	8b ec		 mov	 ebp, esp

; 209  : 	CPythonBackground::Instance().RenderSky();

  00003	8b 0d 00 00 00
	00		 mov	 ecx, DWORD PTR ?ms_singleton@?$CSingleton@VCPythonBackground@@@@0PAVCPythonBackground@@A ; CSingleton<CPythonBackground>::ms_singleton
  00009	e8 00 00 00 00	 call	 ?RenderSky@CPythonBackground@@QAEXXZ ; CPythonBackground::RenderSky

; 210  : 	return Py_BuildNone();

  0000e	e8 00 00 00 00	 call	 ?Py_BuildNone@@YAPAU_object@@XZ ; Py_BuildNone

; 211  : }

  00013	5d		 pop	 ebp
  00014	c3		 ret	 0
?backgroundRenderSky@@YAPAU_object@@PAU1@0@Z ENDP	; backgroundRenderSky
_TEXT	ENDS
; Function compile flags: /Odspy
; File D:\Metin2 Server Files\mainline\SRC_2014\Metin2Client\UserInterface\PythonBackgroundModule.cpp
;	COMDAT ?backgroundRenderCollision@@YAPAU_object@@PAU1@0@Z
_TEXT	SEGMENT
_poSelf$ = 8						; size = 4
_poArgs$ = 12						; size = 4
?backgroundRenderCollision@@YAPAU_object@@PAU1@0@Z PROC	; backgroundRenderCollision, COMDAT

; 202  : {

  00000	55		 push	 ebp
  00001	8b ec		 mov	 ebp, esp

; 203  : 	CPythonBackground::Instance().RenderCollision();

  00003	8b 0d 00 00 00
	00		 mov	 ecx, DWORD PTR ?ms_singleton@?$CSingleton@VCPythonBackground@@@@0PAVCPythonBackground@@A ; CSingleton<CPythonBackground>::ms_singleton
  00009	e8 00 00 00 00	 call	 ?RenderCollision@CPythonBackground@@QAEXXZ ; CPythonBackground::RenderCollision

; 204  : 	return Py_BuildNone();

  0000e	e8 00 00 00 00	 call	 ?Py_BuildNone@@YAPAU_object@@XZ ; Py_BuildNone

; 205  : }

  00013	5d		 pop	 ebp
  00014	c3		 ret	 0
?backgroundRenderCollision@@YAPAU_object@@PAU1@0@Z ENDP	; backgroundRenderCollision
_TEXT	ENDS
; Function compile flags: /Odspy
; File D:\Metin2 Server Files\mainline\SRC_2014\Metin2Client\UserInterface\PythonBackgroundModule.cpp
;	COMDAT ?backgroundRenderPCBlocker@@YAPAU_object@@PAU1@0@Z
_TEXT	SEGMENT
_poSelf$ = 8						; size = 4
_poArgs$ = 12						; size = 4
?backgroundRenderPCBlocker@@YAPAU_object@@PAU1@0@Z PROC	; backgroundRenderPCBlocker, COMDAT

; 196  : {

  00000	55		 push	 ebp
  00001	8b ec		 mov	 ebp, esp

; 197  : 	CPythonBackground::Instance().RenderPCBlocker();

  00003	8b 0d 00 00 00
	00		 mov	 ecx, DWORD PTR ?ms_singleton@?$CSingleton@VCPythonBackground@@@@0PAVCPythonBackground@@A ; CSingleton<CPythonBackground>::ms_singleton
  00009	e8 00 00 00 00	 call	 ?RenderPCBlocker@CPythonBackground@@QAEXXZ ; CPythonBackground::RenderPCBlocker

; 198  : 	return Py_BuildNone();

  0000e	e8 00 00 00 00	 call	 ?Py_BuildNone@@YAPAU_object@@XZ ; Py_BuildNone

; 199  : }

  00013	5d		 pop	 ebp
  00014	c3		 ret	 0
?backgroundRenderPCBlocker@@YAPAU_object@@PAU1@0@Z ENDP	; backgroundRenderPCBlocker
_TEXT	ENDS
; Function compile flags: /Odspy
; File D:\Metin2 Server Files\mainline\SRC_2014\Metin2Client\UserInterface\PythonBackgroundModule.cpp
;	COMDAT ?backgroundRender@@YAPAU_object@@PAU1@0@Z
_TEXT	SEGMENT
_poSelf$ = 8						; size = 4
_poArgs$ = 12						; size = 4
?backgroundRender@@YAPAU_object@@PAU1@0@Z PROC		; backgroundRender, COMDAT

; 190  : {

  00000	55		 push	 ebp
  00001	8b ec		 mov	 ebp, esp

; 191  : 	CPythonBackground::Instance().Render();

  00003	8b 0d 00 00 00
	00		 mov	 ecx, DWORD PTR ?ms_singleton@?$CSingleton@VCPythonBackground@@@@0PAVCPythonBackground@@A ; CSingleton<CPythonBackground>::ms_singleton
  00009	e8 00 00 00 00	 call	 ?Render@CPythonBackground@@QAEXXZ ; CPythonBackground::Render

; 192  : 	return Py_BuildNone();

  0000e	e8 00 00 00 00	 call	 ?Py_BuildNone@@YAPAU_object@@XZ ; Py_BuildNone

; 193  : }

  00013	5d		 pop	 ebp
  00014	c3		 ret	 0
?backgroundRender@@YAPAU_object@@PAU1@0@Z ENDP		; backgroundRender
_TEXT	ENDS
; Function compile flags: /Odspy
; File D:\Metin2 Server Files\mainline\SRC_2014\Metin2Client\UserInterface\PythonBackgroundModule.cpp
;	COMDAT ?backgroundUpdate@@YAPAU_object@@PAU1@0@Z
_TEXT	SEGMENT
_fCameraX$ = -12					; size = 4
_fCameraY$ = -8						; size = 4
_fCameraZ$ = -4						; size = 4
_poSelf$ = 8						; size = 4
_poArgs$ = 12						; size = 4
?backgroundUpdate@@YAPAU_object@@PAU1@0@Z PROC		; backgroundUpdate, COMDAT

; 172  : {

  00000	55		 push	 ebp
  00001	8b ec		 mov	 ebp, esp
  00003	83 ec 0c	 sub	 esp, 12			; 0000000cH

; 173  : 	float fCameraX;
; 174  : 	if (!PyTuple_GetFloat(poArgs, 0, &fCameraX))

  00006	8d 45 f4	 lea	 eax, DWORD PTR _fCameraX$[ebp]
  00009	50		 push	 eax
  0000a	6a 00		 push	 0
  0000c	ff 75 0c	 push	 DWORD PTR _poArgs$[ebp]
  0000f	e8 00 00 00 00	 call	 ?PyTuple_GetFloat@@YA_NPAU_object@@HPAM@Z ; PyTuple_GetFloat
  00014	83 c4 0c	 add	 esp, 12			; 0000000cH
  00017	0f b6 c0	 movzx	 eax, al
  0001a	85 c0		 test	 eax, eax
  0001c	75 07		 jne	 SHORT $LN2@background

; 175  : 		return Py_BadArgument();

  0001e	e8 00 00 00 00	 call	 ?Py_BadArgument@@YAPAU_object@@XZ ; Py_BadArgument
  00023	eb 6f		 jmp	 SHORT $LN1@background
$LN2@background:

; 176  : 
; 177  : 	float fCameraY;
; 178  : 	if (!PyTuple_GetFloat(poArgs, 1, &fCameraY))

  00025	8d 45 f8	 lea	 eax, DWORD PTR _fCameraY$[ebp]
  00028	50		 push	 eax
  00029	6a 01		 push	 1
  0002b	ff 75 0c	 push	 DWORD PTR _poArgs$[ebp]
  0002e	e8 00 00 00 00	 call	 ?PyTuple_GetFloat@@YA_NPAU_object@@HPAM@Z ; PyTuple_GetFloat
  00033	83 c4 0c	 add	 esp, 12			; 0000000cH
  00036	0f b6 c0	 movzx	 eax, al
  00039	85 c0		 test	 eax, eax
  0003b	75 07		 jne	 SHORT $LN3@background

; 179  : 		return Py_BadArgument();

  0003d	e8 00 00 00 00	 call	 ?Py_BadArgument@@YAPAU_object@@XZ ; Py_BadArgument
  00042	eb 50		 jmp	 SHORT $LN1@background
$LN3@background:

; 180  : 
; 181  : 	float fCameraZ;
; 182  : 	if (!PyTuple_GetFloat(poArgs, 2, &fCameraZ))

  00044	8d 45 fc	 lea	 eax, DWORD PTR _fCameraZ$[ebp]
  00047	50		 push	 eax
  00048	6a 02		 push	 2
  0004a	ff 75 0c	 push	 DWORD PTR _poArgs$[ebp]
  0004d	e8 00 00 00 00	 call	 ?PyTuple_GetFloat@@YA_NPAU_object@@HPAM@Z ; PyTuple_GetFloat
  00052	83 c4 0c	 add	 esp, 12			; 0000000cH
  00055	0f b6 c0	 movzx	 eax, al
  00058	85 c0		 test	 eax, eax
  0005a	75 07		 jne	 SHORT $LN4@background

; 183  : 		return Py_BadArgument();

  0005c	e8 00 00 00 00	 call	 ?Py_BadArgument@@YAPAU_object@@XZ ; Py_BadArgument
  00061	eb 31		 jmp	 SHORT $LN1@background
$LN4@background:

; 184  : 
; 185  : 	CPythonBackground::Instance().Update(fCameraX, fCameraY, fCameraZ);

  00063	51		 push	 ecx
  00064	f3 0f 10 45 fc	 movss	 xmm0, DWORD PTR _fCameraZ$[ebp]
  00069	f3 0f 11 04 24	 movss	 DWORD PTR [esp], xmm0
  0006e	51		 push	 ecx
  0006f	f3 0f 10 45 f8	 movss	 xmm0, DWORD PTR _fCameraY$[ebp]
  00074	f3 0f 11 04 24	 movss	 DWORD PTR [esp], xmm0
  00079	51		 push	 ecx
  0007a	f3 0f 10 45 f4	 movss	 xmm0, DWORD PTR _fCameraX$[ebp]
  0007f	f3 0f 11 04 24	 movss	 DWORD PTR [esp], xmm0
  00084	8b 0d 00 00 00
	00		 mov	 ecx, DWORD PTR ?ms_singleton@?$CSingleton@VCPythonBackground@@@@0PAVCPythonBackground@@A ; CSingleton<CPythonBackground>::ms_singleton
  0008a	e8 00 00 00 00	 call	 ?Update@CPythonBackground@@QAEXMMM@Z ; CPythonBackground::Update

; 186  : 	return Py_BuildNone();

  0008f	e8 00 00 00 00	 call	 ?Py_BuildNone@@YAPAU_object@@XZ ; Py_BuildNone
$LN1@background:

; 187  : }

  00094	c9		 leave
  00095	c3		 ret	 0
?backgroundUpdate@@YAPAU_object@@PAU1@0@Z ENDP		; backgroundUpdate
_TEXT	ENDS
; Function compile flags: /Odspy
; File D:\Metin2 Server Files\mainline\SRC_2014\Metin2Client\UserInterface\PythonBackgroundModule.cpp
;	COMDAT ?backgroundInitialize@@YAPAU_object@@PAU1@0@Z
_TEXT	SEGMENT
_rkBG$ = -4						; size = 4
_poSelf$ = 8						; size = 4
_poArgs$ = 12						; size = 4
?backgroundInitialize@@YAPAU_object@@PAU1@0@Z PROC	; backgroundInitialize, COMDAT

; 165  : {

  00000	55		 push	 ebp
  00001	8b ec		 mov	 ebp, esp
  00003	51		 push	 ecx

; 166  : 	CPythonBackground& rkBG=CPythonBackground::Instance();

  00004	a1 00 00 00 00	 mov	 eax, DWORD PTR ?ms_singleton@?$CSingleton@VCPythonBackground@@@@0PAVCPythonBackground@@A ; CSingleton<CPythonBackground>::ms_singleton
  00009	89 45 fc	 mov	 DWORD PTR _rkBG$[ebp], eax

; 167  : 	rkBG.Create();

  0000c	8b 4d fc	 mov	 ecx, DWORD PTR _rkBG$[ebp]
  0000f	e8 00 00 00 00	 call	 ?Create@CPythonBackground@@QAEXXZ ; CPythonBackground::Create

; 168  : 	return Py_BuildNone();

  00014	e8 00 00 00 00	 call	 ?Py_BuildNone@@YAPAU_object@@XZ ; Py_BuildNone

; 169  : }

  00019	c9		 leave
  0001a	c3		 ret	 0
?backgroundInitialize@@YAPAU_object@@PAU1@0@Z ENDP	; backgroundInitialize
_TEXT	ENDS
; Function compile flags: /Odspy
; File D:\Metin2 Server Files\mainline\SRC_2014\Metin2Client\UserInterface\PythonBackgroundModule.cpp
;	COMDAT ?backgroundSetBackgroundDirLight@@YAPAU_object@@PAU1@0@Z
_TEXT	SEGMENT
_rkBG$ = -4						; size = 4
_poSelf$ = 8						; size = 4
_poArgs$ = 12						; size = 4
?backgroundSetBackgroundDirLight@@YAPAU_object@@PAU1@0@Z PROC ; backgroundSetBackgroundDirLight, COMDAT

; 158  : {

  00000	55		 push	 ebp
  00001	8b ec		 mov	 ebp, esp
  00003	51		 push	 ecx

; 159  : 	CPythonBackground& rkBG = CPythonBackground::Instance();

  00004	a1 00 00 00 00	 mov	 eax, DWORD PTR ?ms_singleton@?$CSingleton@VCPythonBackground@@@@0PAVCPythonBackground@@A ; CSingleton<CPythonBackground>::ms_singleton
  00009	89 45 fc	 mov	 DWORD PTR _rkBG$[ebp], eax

; 160  : 	rkBG.SetBackgroundDirLight();

  0000c	8b 4d fc	 mov	 ecx, DWORD PTR _rkBG$[ebp]
  0000f	e8 00 00 00 00	 call	 ?SetBackgroundDirLight@CPythonBackground@@QAEXXZ ; CPythonBackground::SetBackgroundDirLight

; 161  : 	return Py_BuildNone();

  00014	e8 00 00 00 00	 call	 ?Py_BuildNone@@YAPAU_object@@XZ ; Py_BuildNone

; 162  : }

  00019	c9		 leave
  0001a	c3		 ret	 0
?backgroundSetBackgroundDirLight@@YAPAU_object@@PAU1@0@Z ENDP ; backgroundSetBackgroundDirLight
_TEXT	ENDS
; Function compile flags: /Odspy
; File D:\Metin2 Server Files\mainline\SRC_2014\Metin2Client\UserInterface\PythonBackgroundModule.cpp
;	COMDAT ?backgroundSetCharacterDirLight@@YAPAU_object@@PAU1@0@Z
_TEXT	SEGMENT
_rkBG$ = -4						; size = 4
_poSelf$ = 8						; size = 4
_poArgs$ = 12						; size = 4
?backgroundSetCharacterDirLight@@YAPAU_object@@PAU1@0@Z PROC ; backgroundSetCharacterDirLight, COMDAT

; 151  : {

  00000	55		 push	 ebp
  00001	8b ec		 mov	 ebp, esp
  00003	51		 push	 ecx

; 152  : 	CPythonBackground& rkBG = CPythonBackground::Instance();

  00004	a1 00 00 00 00	 mov	 eax, DWORD PTR ?ms_singleton@?$CSingleton@VCPythonBackground@@@@0PAVCPythonBackground@@A ; CSingleton<CPythonBackground>::ms_singleton
  00009	89 45 fc	 mov	 DWORD PTR _rkBG$[ebp], eax

; 153  : 	rkBG.SetCharacterDirLight();

  0000c	8b 4d fc	 mov	 ecx, DWORD PTR _rkBG$[ebp]
  0000f	e8 00 00 00 00	 call	 ?SetCharacterDirLight@CPythonBackground@@QAEXXZ ; CPythonBackground::SetCharacterDirLight

; 154  : 	return Py_BuildNone();

  00014	e8 00 00 00 00	 call	 ?Py_BuildNone@@YAPAU_object@@XZ ; Py_BuildNone

; 155  : }

  00019	c9		 leave
  0001a	c3		 ret	 0
?backgroundSetCharacterDirLight@@YAPAU_object@@PAU1@0@Z ENDP ; backgroundSetCharacterDirLight
_TEXT	ENDS
; Function compile flags: /Odspy
; File D:\Metin2 Server Files\mainline\SRC_2014\Metin2Client\UserInterface\PythonBackgroundModule.cpp
;	COMDAT ?backgroundEndEnvironemt@@YAPAU_object@@PAU1@0@Z
_TEXT	SEGMENT
_rkBG$ = -4						; size = 4
_poSelf$ = 8						; size = 4
_poArgs$ = 12						; size = 4
?backgroundEndEnvironemt@@YAPAU_object@@PAU1@0@Z PROC	; backgroundEndEnvironemt, COMDAT

; 144  : {

  00000	55		 push	 ebp
  00001	8b ec		 mov	 ebp, esp
  00003	51		 push	 ecx

; 145  : 	CPythonBackground& rkBG=CPythonBackground::Instance();

  00004	a1 00 00 00 00	 mov	 eax, DWORD PTR ?ms_singleton@?$CSingleton@VCPythonBackground@@@@0PAVCPythonBackground@@A ; CSingleton<CPythonBackground>::ms_singleton
  00009	89 45 fc	 mov	 DWORD PTR _rkBG$[ebp], eax

; 146  : 	rkBG.EndEnvironment();

  0000c	8b 4d fc	 mov	 ecx, DWORD PTR _rkBG$[ebp]
  0000f	e8 00 00 00 00	 call	 ?EndEnvironment@CMapManager@@QAEXXZ ; CMapManager::EndEnvironment

; 147  : 	return Py_BuildNone();

  00014	e8 00 00 00 00	 call	 ?Py_BuildNone@@YAPAU_object@@XZ ; Py_BuildNone

; 148  : }

  00019	c9		 leave
  0001a	c3		 ret	 0
?backgroundEndEnvironemt@@YAPAU_object@@PAU1@0@Z ENDP	; backgroundEndEnvironemt
_TEXT	ENDS
; Function compile flags: /Odspy
; File D:\Metin2 Server Files\mainline\SRC_2014\Metin2Client\UserInterface\PythonBackgroundModule.cpp
;	COMDAT ?backgroundBeginEnvironment@@YAPAU_object@@PAU1@0@Z
_TEXT	SEGMENT
_rkBG$ = -4						; size = 4
_poSelf$ = 8						; size = 4
_poArgs$ = 12						; size = 4
?backgroundBeginEnvironment@@YAPAU_object@@PAU1@0@Z PROC ; backgroundBeginEnvironment, COMDAT

; 137  : {

  00000	55		 push	 ebp
  00001	8b ec		 mov	 ebp, esp
  00003	51		 push	 ecx

; 138  : 	CPythonBackground& rkBG=CPythonBackground::Instance();

  00004	a1 00 00 00 00	 mov	 eax, DWORD PTR ?ms_singleton@?$CSingleton@VCPythonBackground@@@@0PAVCPythonBackground@@A ; CSingleton<CPythonBackground>::ms_singleton
  00009	89 45 fc	 mov	 DWORD PTR _rkBG$[ebp], eax

; 139  : 	rkBG.BeginEnvironment();

  0000c	8b 4d fc	 mov	 ecx, DWORD PTR _rkBG$[ebp]
  0000f	e8 00 00 00 00	 call	 ?BeginEnvironment@CMapManager@@QAEXXZ ; CMapManager::BeginEnvironment

; 140  : 	return Py_BuildNone();

  00014	e8 00 00 00 00	 call	 ?Py_BuildNone@@YAPAU_object@@XZ ; Py_BuildNone

; 141  : }

  00019	c9		 leave
  0001a	c3		 ret	 0
?backgroundBeginEnvironment@@YAPAU_object@@PAU1@0@Z ENDP ; backgroundBeginEnvironment
_TEXT	ENDS
; Function compile flags: /Odspy
; File D:\Metin2 Server Files\mainline\SRC_2014\Metin2Client\UserInterface\PythonBackgroundModule.cpp
; File D:\Metin2 Server Files\mainline\SRC_2014\M2Data\include\d3dx8math.inl
; File D:\Metin2 Server Files\mainline\SRC_2014\Metin2Client\UserInterface\PythonBackgroundModule.cpp
;	COMDAT ?backgroundGetPickingPoint@@YAPAU_object@@PAU1@0@Z
_TEXT	SEGMENT
_rkBG$ = -20						; size = 4
_kPPosPicked$ = -16					; size = 12
__$ArrayPad$ = -4					; size = 4
_poSelf$ = 8						; size = 4
_poArgs$ = 12						; size = 4
?backgroundGetPickingPoint@@YAPAU_object@@PAU1@0@Z PROC	; backgroundGetPickingPoint, COMDAT

; 126  : {

  00000	55		 push	 ebp
  00001	8b ec		 mov	 ebp, esp
  00003	83 ec 14	 sub	 esp, 20			; 00000014H
  00006	a1 00 00 00 00	 mov	 eax, DWORD PTR ___security_cookie
  0000b	33 c5		 xor	 eax, ebp
  0000d	89 45 fc	 mov	 DWORD PTR __$ArrayPad$[ebp], eax

; 127  : 	CPythonBackground& rkBG=CPythonBackground::Instance();

  00010	a1 00 00 00 00	 mov	 eax, DWORD PTR ?ms_singleton@?$CSingleton@VCPythonBackground@@@@0PAVCPythonBackground@@A ; CSingleton<CPythonBackground>::ms_singleton
  00015	89 45 ec	 mov	 DWORD PTR _rkBG$[ebp], eax
; File D:\Metin2 Server Files\mainline\SRC_2014\M2Data\include\d3dx8math.inl

; 180  :     x = fx;

  00018	0f 57 c0	 xorps	 xmm0, xmm0
  0001b	f3 0f 11 45 f0	 movss	 DWORD PTR _kPPosPicked$[ebp], xmm0

; 181  :     y = fy;

  00020	0f 57 c0	 xorps	 xmm0, xmm0
  00023	f3 0f 11 45 f4	 movss	 DWORD PTR _kPPosPicked$[ebp+4], xmm0

; 182  :     z = fz;

  00028	0f 57 c0	 xorps	 xmm0, xmm0
  0002b	f3 0f 11 45 f8	 movss	 DWORD PTR _kPPosPicked$[ebp+8], xmm0
; File D:\Metin2 Server Files\mainline\SRC_2014\Metin2Client\UserInterface\PythonBackgroundModule.cpp

; 129  : 	if (rkBG.GetPickingPoint(&kPPosPicked))

  00030	8d 45 f0	 lea	 eax, DWORD PTR _kPPosPicked$[ebp]
  00033	50		 push	 eax
  00034	8b 4d ec	 mov	 ecx, DWORD PTR _rkBG$[ebp]
  00037	e8 00 00 00 00	 call	 ?GetPickingPoint@CPythonBackground@@QAE_NPAUD3DXVECTOR3@@@Z ; CPythonBackground::GetPickingPoint
  0003c	0f b6 c0	 movzx	 eax, al
  0003f	85 c0		 test	 eax, eax
  00041	74 11		 je	 SHORT $LN2@background

; 130  : 	{
; 131  : 		kPPosPicked.y=-kPPosPicked.y;

  00043	f3 0f 10 45 f4	 movss	 xmm0, DWORD PTR _kPPosPicked$[ebp+4]
  00048	0f 57 05 00 00
	00 00		 xorps	 xmm0, DWORD PTR __xmm@80000000800000008000000080000000
  0004f	f3 0f 11 45 f4	 movss	 DWORD PTR _kPPosPicked$[ebp+4], xmm0
$LN2@background:

; 132  : 	}
; 133  : 	return Py_BuildValue("fff", kPPosPicked.x, kPPosPicked.y, kPPosPicked.z);

  00054	f3 0f 5a 45 f8	 cvtss2sd xmm0, DWORD PTR _kPPosPicked$[ebp+8]
  00059	51		 push	 ecx
  0005a	51		 push	 ecx
  0005b	f2 0f 11 04 24	 movsd	 QWORD PTR [esp], xmm0
  00060	f3 0f 5a 45 f4	 cvtss2sd xmm0, DWORD PTR _kPPosPicked$[ebp+4]
  00065	51		 push	 ecx
  00066	51		 push	 ecx
  00067	f2 0f 11 04 24	 movsd	 QWORD PTR [esp], xmm0
  0006c	f3 0f 5a 45 f0	 cvtss2sd xmm0, DWORD PTR _kPPosPicked$[ebp]
  00071	51		 push	 ecx
  00072	51		 push	 ecx
  00073	f2 0f 11 04 24	 movsd	 QWORD PTR [esp], xmm0
  00078	68 00 00 00 00	 push	 OFFSET ??_C@_03LPALPDIP@fff@
  0007d	ff 15 00 00 00
	00		 call	 DWORD PTR __imp__Py_BuildValue
  00083	83 c4 1c	 add	 esp, 28			; 0000001cH

; 134  : }

  00086	8b 4d fc	 mov	 ecx, DWORD PTR __$ArrayPad$[ebp]
  00089	33 cd		 xor	 ecx, ebp
  0008b	e8 00 00 00 00	 call	 @__security_check_cookie@4
  00090	c9		 leave
  00091	c3		 ret	 0
?backgroundGetPickingPoint@@YAPAU_object@@PAU1@0@Z ENDP	; backgroundGetPickingPoint
_TEXT	ENDS
; Function compile flags: /Odspy
; File D:\Metin2 Server Files\mainline\SRC_2014\Metin2Client\UserInterface\PythonBackgroundModule.cpp
;	COMDAT ?backgroundGetCurrentMapName@@YAPAU_object@@PAU1@0@Z
_TEXT	SEGMENT
_rkBG$ = -4						; size = 4
_poSelf$ = 8						; size = 4
_poArgs$ = 12						; size = 4
?backgroundGetCurrentMapName@@YAPAU_object@@PAU1@0@Z PROC ; backgroundGetCurrentMapName, COMDAT

; 120  : {

  00000	55		 push	 ebp
  00001	8b ec		 mov	 ebp, esp
  00003	51		 push	 ecx

; 121  : 	CPythonBackground& rkBG=CPythonBackground::Instance();

  00004	a1 00 00 00 00	 mov	 eax, DWORD PTR ?ms_singleton@?$CSingleton@VCPythonBackground@@@@0PAVCPythonBackground@@A ; CSingleton<CPythonBackground>::ms_singleton
  00009	89 45 fc	 mov	 DWORD PTR _rkBG$[ebp], eax

; 122  : 	return Py_BuildValue("s", rkBG.GetWarpMapName());

  0000c	8b 4d fc	 mov	 ecx, DWORD PTR _rkBG$[ebp]
  0000f	e8 00 00 00 00	 call	 ?GetWarpMapName@CPythonBackground@@QAEPBDXZ ; CPythonBackground::GetWarpMapName
  00014	50		 push	 eax
  00015	68 00 00 00 00	 push	 OFFSET ??_C@_01LKDEMHDF@s@
  0001a	ff 15 00 00 00
	00		 call	 DWORD PTR __imp__Py_BuildValue
  00020	59		 pop	 ecx
  00021	59		 pop	 ecx

; 123  : }

  00022	c9		 leave
  00023	c3		 ret	 0
?backgroundGetCurrentMapName@@YAPAU_object@@PAU1@0@Z ENDP ; backgroundGetCurrentMapName
_TEXT	ENDS
; Function compile flags: /Odspy
; File D:\Metin2 Server Files\mainline\SRC_2014\Metin2Client\UserInterface\PythonBackgroundModule.cpp
;	COMDAT ?backgroundSetEnvironmentData@@YAPAU_object@@PAU1@0@Z
_TEXT	SEGMENT
_c_pEnvironmenData$ = -12				; size = 4
_iIndex$ = -8						; size = 4
_rkBG$ = -4						; size = 4
_poSelf$ = 8						; size = 4
_poArgs$ = 12						; size = 4
?backgroundSetEnvironmentData@@YAPAU_object@@PAU1@0@Z PROC ; backgroundSetEnvironmentData, COMDAT

; 105  : {

  00000	55		 push	 ebp
  00001	8b ec		 mov	 ebp, esp
  00003	83 ec 0c	 sub	 esp, 12			; 0000000cH

; 106  : 	int iIndex;
; 107  : 	if (!PyTuple_GetInteger(poArgs, 0, &iIndex))

  00006	8d 45 f8	 lea	 eax, DWORD PTR _iIndex$[ebp]
  00009	50		 push	 eax
  0000a	6a 00		 push	 0
  0000c	ff 75 0c	 push	 DWORD PTR _poArgs$[ebp]
  0000f	e8 00 00 00 00	 call	 ?PyTuple_GetInteger@@YA_NPAU_object@@HPAH@Z ; PyTuple_GetInteger
  00014	83 c4 0c	 add	 esp, 12			; 0000000cH
  00017	0f b6 c0	 movzx	 eax, al
  0001a	85 c0		 test	 eax, eax
  0001c	75 07		 jne	 SHORT $LN5@background

; 108  : 		return Py_BadArgument();

  0001e	e8 00 00 00 00	 call	 ?Py_BadArgument@@YAPAU_object@@XZ ; Py_BadArgument
  00023	eb 2e		 jmp	 SHORT $LN1@background
$LN5@background:

; 109  : 
; 110  : 	const TEnvironmentData * c_pEnvironmenData;
; 111  : 
; 112  : 	CPythonBackground& rkBG=CPythonBackground::Instance();

  00025	a1 00 00 00 00	 mov	 eax, DWORD PTR ?ms_singleton@?$CSingleton@VCPythonBackground@@@@0PAVCPythonBackground@@A ; CSingleton<CPythonBackground>::ms_singleton
  0002a	89 45 fc	 mov	 DWORD PTR _rkBG$[ebp], eax

; 113  : 	if (rkBG.GetEnvironmentData(iIndex, &c_pEnvironmenData))

  0002d	8d 45 f4	 lea	 eax, DWORD PTR _c_pEnvironmenData$[ebp]
  00030	50		 push	 eax
  00031	ff 75 f8	 push	 DWORD PTR _iIndex$[ebp]
  00034	8b 4d fc	 mov	 ecx, DWORD PTR _rkBG$[ebp]
  00037	e8 00 00 00 00	 call	 ?GetEnvironmentData@CMapManager@@QAE_NKPAPBUSEnvironmentData@@@Z ; CMapManager::GetEnvironmentData
  0003c	0f b6 c0	 movzx	 eax, al
  0003f	85 c0		 test	 eax, eax
  00041	74 0b		 je	 SHORT $LN3@background

; 114  : 		rkBG.ResetEnvironmentDataPtr(c_pEnvironmenData);

  00043	ff 75 f4	 push	 DWORD PTR _c_pEnvironmenData$[ebp]
  00046	8b 4d fc	 mov	 ecx, DWORD PTR _rkBG$[ebp]
  00049	e8 00 00 00 00	 call	 ?ResetEnvironmentDataPtr@CMapManager@@QAEXPBUSEnvironmentData@@@Z ; CMapManager::ResetEnvironmentDataPtr
$LN3@background:

; 115  : 
; 116  : 	return Py_BuildNone();

  0004e	e8 00 00 00 00	 call	 ?Py_BuildNone@@YAPAU_object@@XZ ; Py_BuildNone
$LN1@background:

; 117  : }

  00053	c9		 leave
  00054	c3		 ret	 0
?backgroundSetEnvironmentData@@YAPAU_object@@PAU1@0@Z ENDP ; backgroundSetEnvironmentData
_TEXT	ENDS
; Function compile flags: /Odspy
; File D:\Metin2 Server Files\mainline\SRC_2014\Metin2Client\UserInterface\PythonBackgroundModule.cpp
;	COMDAT ?backgroundRegisterEnvironmentData@@YAPAU_object@@PAU1@0@Z
_TEXT	SEGMENT
_rkBG$ = -12						; size = 4
_iIndex$ = -8						; size = 4
_pszEnvironmentFileName$ = -4				; size = 4
_poSelf$ = 8						; size = 4
_poArgs$ = 12						; size = 4
?backgroundRegisterEnvironmentData@@YAPAU_object@@PAU1@0@Z PROC ; backgroundRegisterEnvironmentData, COMDAT

; 83   : {

  00000	55		 push	 ebp
  00001	8b ec		 mov	 ebp, esp
  00003	83 ec 0c	 sub	 esp, 12			; 0000000cH

; 84   : 	int iIndex;
; 85   : 	if (!PyTuple_GetInteger(poArgs, 0, &iIndex))

  00006	8d 45 f8	 lea	 eax, DWORD PTR _iIndex$[ebp]
  00009	50		 push	 eax
  0000a	6a 00		 push	 0
  0000c	ff 75 0c	 push	 DWORD PTR _poArgs$[ebp]
  0000f	e8 00 00 00 00	 call	 ?PyTuple_GetInteger@@YA_NPAU_object@@HPAH@Z ; PyTuple_GetInteger
  00014	83 c4 0c	 add	 esp, 12			; 0000000cH
  00017	0f b6 c0	 movzx	 eax, al
  0001a	85 c0		 test	 eax, eax
  0001c	75 07		 jne	 SHORT $LN2@background

; 86   : 		return Py_BadArgument();

  0001e	e8 00 00 00 00	 call	 ?Py_BadArgument@@YAPAU_object@@XZ ; Py_BadArgument
  00023	eb 54		 jmp	 SHORT $LN1@background
$LN2@background:

; 87   : 
; 88   : 	char * pszEnvironmentFileName;
; 89   : 	if (!PyTuple_GetString(poArgs, 1, &pszEnvironmentFileName))

  00025	8d 45 fc	 lea	 eax, DWORD PTR _pszEnvironmentFileName$[ebp]
  00028	50		 push	 eax
  00029	6a 01		 push	 1
  0002b	ff 75 0c	 push	 DWORD PTR _poArgs$[ebp]
  0002e	e8 00 00 00 00	 call	 ?PyTuple_GetString@@YA_NPAU_object@@HPAPAD@Z ; PyTuple_GetString
  00033	83 c4 0c	 add	 esp, 12			; 0000000cH
  00036	0f b6 c0	 movzx	 eax, al
  00039	85 c0		 test	 eax, eax
  0003b	75 07		 jne	 SHORT $LN6@background

; 90   : 		return Py_BadArgument();

  0003d	e8 00 00 00 00	 call	 ?Py_BadArgument@@YAPAU_object@@XZ ; Py_BadArgument
  00042	eb 35		 jmp	 SHORT $LN1@background
$LN6@background:

; 91   : 
; 92   : 	CPythonBackground& rkBG=CPythonBackground::Instance();

  00044	a1 00 00 00 00	 mov	 eax, DWORD PTR ?ms_singleton@?$CSingleton@VCPythonBackground@@@@0PAVCPythonBackground@@A ; CSingleton<CPythonBackground>::ms_singleton
  00049	89 45 f4	 mov	 DWORD PTR _rkBG$[ebp], eax

; 93   :  	if (!rkBG.RegisterEnvironmentData(iIndex, pszEnvironmentFileName))

  0004c	ff 75 fc	 push	 DWORD PTR _pszEnvironmentFileName$[ebp]
  0004f	ff 75 f8	 push	 DWORD PTR _iIndex$[ebp]
  00052	8b 4d f4	 mov	 ecx, DWORD PTR _rkBG$[ebp]
  00055	e8 00 00 00 00	 call	 ?RegisterEnvironmentData@CMapManager@@QAE_NKPBD@Z ; CMapManager::RegisterEnvironmentData
  0005a	0f b6 c0	 movzx	 eax, al
  0005d	85 c0		 test	 eax, eax
  0005f	75 13		 jne	 SHORT $LN4@background

; 94   : 	{
; 95   : 		TraceError("background.RegisterEnvironmentData(iIndex=%d, szEnvironmentFileName=%s)", iIndex, pszEnvironmentFileName);

  00061	ff 75 fc	 push	 DWORD PTR _pszEnvironmentFileName$[ebp]
  00064	ff 75 f8	 push	 DWORD PTR _iIndex$[ebp]
  00067	68 00 00 00 00	 push	 OFFSET ??_C@_0EI@HLELLDPI@background?4RegisterEnvironmentD@
  0006c	e8 00 00 00 00	 call	 ?TraceError@@YAXPBDZZ	; TraceError
  00071	83 c4 0c	 add	 esp, 12			; 0000000cH
$LN4@background:

; 96   : 
; 97   : 		// TODO:
; 98   : 		//     
; 99   : 	}
; 100  : 
; 101  : 	return Py_BuildNone();

  00074	e8 00 00 00 00	 call	 ?Py_BuildNone@@YAPAU_object@@XZ ; Py_BuildNone
$LN1@background:

; 102  : }

  00079	c9		 leave
  0007a	c3		 ret	 0
?backgroundRegisterEnvironmentData@@YAPAU_object@@PAU1@0@Z ENDP ; backgroundRegisterEnvironmentData
_TEXT	ENDS
; Function compile flags: /Odspy
; File D:\Metin2 Server Files\mainline\SRC_2014\Metin2Client\UserInterface\PythonBackgroundModule.cpp
;	COMDAT ?backgroundDestroy@@YAPAU_object@@PAU1@0@Z
_TEXT	SEGMENT
_rkBG$ = -4						; size = 4
_poSelf$ = 8						; size = 4
_poArgs$ = 12						; size = 4
?backgroundDestroy@@YAPAU_object@@PAU1@0@Z PROC		; backgroundDestroy, COMDAT

; 75   : {

  00000	55		 push	 ebp
  00001	8b ec		 mov	 ebp, esp
  00003	51		 push	 ecx

; 76   : 	CPythonBackground& rkBG=CPythonBackground::Instance();

  00004	a1 00 00 00 00	 mov	 eax, DWORD PTR ?ms_singleton@?$CSingleton@VCPythonBackground@@@@0PAVCPythonBackground@@A ; CSingleton<CPythonBackground>::ms_singleton
  00009	89 45 fc	 mov	 DWORD PTR _rkBG$[ebp], eax

; 77   : 	rkBG.SetShadowLevel(CPythonBackground::SHADOW_NONE);

  0000c	6a 00		 push	 0
  0000e	8b 4d fc	 mov	 ecx, DWORD PTR _rkBG$[ebp]
  00011	e8 00 00 00 00	 call	 ?SetShadowLevel@CPythonBackground@@QAE_NH@Z ; CPythonBackground::SetShadowLevel

; 78   : 	rkBG.Destroy();

  00016	8b 4d fc	 mov	 ecx, DWORD PTR _rkBG$[ebp]
  00019	e8 00 00 00 00	 call	 ?Destroy@CPythonBackground@@QAEXXZ ; CPythonBackground::Destroy

; 79   : 	return Py_BuildNone();

  0001e	e8 00 00 00 00	 call	 ?Py_BuildNone@@YAPAU_object@@XZ ; Py_BuildNone

; 80   : }

  00023	c9		 leave
  00024	c3		 ret	 0
?backgroundDestroy@@YAPAU_object@@PAU1@0@Z ENDP		; backgroundDestroy
_TEXT	ENDS
; Function compile flags: /Odspy
; File D:\Metin2 Server Files\mainline\SRC_2014\Metin2Client\UserInterface\PythonBackgroundModule.cpp
; File C:\Program Files (x86)\Microsoft Visual Studio\2019\Community\VC\Tools\MSVC\14.28.29333\include\xstring
; File D:\Metin2 Server Files\mainline\SRC_2014\Metin2Client\UserInterface\PythonBackgroundModule.cpp
;	COMDAT ?backgroundLoadMap@@YAPAU_object@@PAU1@0@Z
_TEXT	SEGMENT
_x$ = -60						; size = 4
_y$ = -56						; size = 4
_z$ = -52						; size = 4
_pszMapPathName$ = -48					; size = 4
_rkBG$ = -44						; size = 4
$T2 = -40						; size = 24
__$ArrayPad$ = -16					; size = 4
__$EHRec$ = -12						; size = 12
_poSelf$ = 8						; size = 4
_poArgs$ = 12						; size = 4
?backgroundLoadMap@@YAPAU_object@@PAU1@0@Z PROC		; backgroundLoadMap, COMDAT

; 45   : {

  00000	55		 push	 ebp
  00001	8b ec		 mov	 ebp, esp
  00003	6a ff		 push	 -1
  00005	68 00 00 00 00	 push	 __ehhandler$?backgroundLoadMap@@YAPAU_object@@PAU1@0@Z
  0000a	64 a1 00 00 00
	00		 mov	 eax, DWORD PTR fs:0
  00010	50		 push	 eax
  00011	83 ec 30	 sub	 esp, 48			; 00000030H
  00014	a1 00 00 00 00	 mov	 eax, DWORD PTR ___security_cookie
  00019	33 c5		 xor	 eax, ebp
  0001b	89 45 f0	 mov	 DWORD PTR __$ArrayPad$[ebp], eax
  0001e	50		 push	 eax
  0001f	8d 45 f4	 lea	 eax, DWORD PTR __$EHRec$[ebp]
  00022	64 a3 00 00 00
	00		 mov	 DWORD PTR fs:0, eax

; 46   : 	char * pszMapPathName;
; 47   : 
; 48   : 	if (!PyTuple_GetString(poArgs, 0, &pszMapPathName))

  00028	8d 45 d0	 lea	 eax, DWORD PTR _pszMapPathName$[ebp]
  0002b	50		 push	 eax
  0002c	6a 00		 push	 0
  0002e	ff 75 0c	 push	 DWORD PTR _poArgs$[ebp]
  00031	e8 00 00 00 00	 call	 ?PyTuple_GetString@@YA_NPAU_object@@HPAPAD@Z ; PyTuple_GetString
  00036	83 c4 0c	 add	 esp, 12			; 0000000cH
  00039	0f b6 c0	 movzx	 eax, al
  0003c	85 c0		 test	 eax, eax
  0003e	75 0a		 jne	 SHORT $LN2@background

; 49   : 		return Py_BadArgument();

  00040	e8 00 00 00 00	 call	 ?Py_BadArgument@@YAPAU_object@@XZ ; Py_BadArgument
  00045	e9 b8 00 00 00	 jmp	 $LN1@background
$LN2@background:

; 50   : 
; 51   : 	float x, y, z;
; 52   : 
; 53   : 	if (!PyTuple_GetFloat(poArgs, 1, &x))

  0004a	8d 45 c4	 lea	 eax, DWORD PTR _x$[ebp]
  0004d	50		 push	 eax
  0004e	6a 01		 push	 1
  00050	ff 75 0c	 push	 DWORD PTR _poArgs$[ebp]
  00053	e8 00 00 00 00	 call	 ?PyTuple_GetFloat@@YA_NPAU_object@@HPAM@Z ; PyTuple_GetFloat
  00058	83 c4 0c	 add	 esp, 12			; 0000000cH
  0005b	0f b6 c0	 movzx	 eax, al
  0005e	85 c0		 test	 eax, eax
  00060	75 0a		 jne	 SHORT $LN3@background

; 54   : 		return Py_BadArgument();

  00062	e8 00 00 00 00	 call	 ?Py_BadArgument@@YAPAU_object@@XZ ; Py_BadArgument
  00067	e9 96 00 00 00	 jmp	 $LN1@background
$LN3@background:

; 55   : 
; 56   : 	if (!PyTuple_GetFloat(poArgs, 2, &y))

  0006c	8d 45 c8	 lea	 eax, DWORD PTR _y$[ebp]
  0006f	50		 push	 eax
  00070	6a 02		 push	 2
  00072	ff 75 0c	 push	 DWORD PTR _poArgs$[ebp]
  00075	e8 00 00 00 00	 call	 ?PyTuple_GetFloat@@YA_NPAU_object@@HPAM@Z ; PyTuple_GetFloat
  0007a	83 c4 0c	 add	 esp, 12			; 0000000cH
  0007d	0f b6 c0	 movzx	 eax, al
  00080	85 c0		 test	 eax, eax
  00082	75 07		 jne	 SHORT $LN4@background

; 57   : 		return Py_BadArgument();

  00084	e8 00 00 00 00	 call	 ?Py_BadArgument@@YAPAU_object@@XZ ; Py_BadArgument
  00089	eb 77		 jmp	 SHORT $LN1@background
$LN4@background:

; 58   : 
; 59   : 	if (!PyTuple_GetFloat(poArgs, 3, &z))

  0008b	8d 45 cc	 lea	 eax, DWORD PTR _z$[ebp]
  0008e	50		 push	 eax
  0008f	6a 03		 push	 3
  00091	ff 75 0c	 push	 DWORD PTR _poArgs$[ebp]
  00094	e8 00 00 00 00	 call	 ?PyTuple_GetFloat@@YA_NPAU_object@@HPAM@Z ; PyTuple_GetFloat
  00099	83 c4 0c	 add	 esp, 12			; 0000000cH
  0009c	0f b6 c0	 movzx	 eax, al
  0009f	85 c0		 test	 eax, eax
  000a1	75 07		 jne	 SHORT $LN5@background

; 60   : 		return Py_BadArgument();

  000a3	e8 00 00 00 00	 call	 ?Py_BadArgument@@YAPAU_object@@XZ ; Py_BadArgument
  000a8	eb 58		 jmp	 SHORT $LN1@background
$LN5@background:

; 61   : 
; 62   : 	CPythonBackground& rkBG=CPythonBackground::Instance();

  000aa	a1 00 00 00 00	 mov	 eax, DWORD PTR ?ms_singleton@?$CSingleton@VCPythonBackground@@@@0PAVCPythonBackground@@A ; CSingleton<CPythonBackground>::ms_singleton
  000af	89 45 d4	 mov	 DWORD PTR _rkBG$[ebp], eax

; 63   : 	rkBG.LoadMap(pszMapPathName, x, y, z);

  000b2	ff 75 d0	 push	 DWORD PTR _pszMapPathName$[ebp]
  000b5	8d 4d d8	 lea	 ecx, DWORD PTR $T2[ebp]
  000b8	e8 00 00 00 00	 call	 ??0?$basic_string@DU?$char_traits@D@std@@V?$allocator@D@2@@std@@QAE@QBD@Z ; std::basic_string<char,std::char_traits<char>,std::allocator<char> >::basic_string<char,std::char_traits<char>,std::allocator<char> >
  000bd	83 65 fc 00	 and	 DWORD PTR __$EHRec$[ebp+8], 0
  000c1	51		 push	 ecx
  000c2	f3 0f 10 45 cc	 movss	 xmm0, DWORD PTR _z$[ebp]
  000c7	f3 0f 11 04 24	 movss	 DWORD PTR [esp], xmm0
  000cc	51		 push	 ecx
  000cd	f3 0f 10 45 c8	 movss	 xmm0, DWORD PTR _y$[ebp]
  000d2	f3 0f 11 04 24	 movss	 DWORD PTR [esp], xmm0
  000d7	51		 push	 ecx
  000d8	f3 0f 10 45 c4	 movss	 xmm0, DWORD PTR _x$[ebp]
  000dd	f3 0f 11 04 24	 movss	 DWORD PTR [esp], xmm0
  000e2	8d 45 d8	 lea	 eax, DWORD PTR $T2[ebp]
  000e5	50		 push	 eax
  000e6	8b 45 d4	 mov	 eax, DWORD PTR _rkBG$[ebp]
  000e9	8b 00		 mov	 eax, DWORD PTR [eax]
  000eb	8b 4d d4	 mov	 ecx, DWORD PTR _rkBG$[ebp]
  000ee	ff 50 0c	 call	 DWORD PTR [eax+12]
  000f1	83 4d fc ff	 or	 DWORD PTR __$EHRec$[ebp+8], -1
; File C:\Program Files (x86)\Microsoft Visual Studio\2019\Community\VC\Tools\MSVC\14.28.29333\include\xstring

; 2801 :         _Tidy_deallocate();

  000f5	8d 4d d8	 lea	 ecx, DWORD PTR $T2[ebp]
  000f8	e8 00 00 00 00	 call	 ?_Tidy_deallocate@?$basic_string@DU?$char_traits@D@std@@V?$allocator@D@2@@std@@AAEXXZ ; std::basic_string<char,std::char_traits<char>,std::allocator<char> >::_Tidy_deallocate
; File D:\Metin2 Server Files\mainline\SRC_2014\Metin2Client\UserInterface\PythonBackgroundModule.cpp

; 71   : 	return Py_BuildNone();

  000fd	e8 00 00 00 00	 call	 ?Py_BuildNone@@YAPAU_object@@XZ ; Py_BuildNone
$LN1@background:

; 72   : }

  00102	8b 4d f4	 mov	 ecx, DWORD PTR __$EHRec$[ebp]
  00105	64 89 0d 00 00
	00 00		 mov	 DWORD PTR fs:0, ecx
  0010c	59		 pop	 ecx
  0010d	8b 4d f0	 mov	 ecx, DWORD PTR __$ArrayPad$[ebp]
  00110	33 cd		 xor	 ecx, ebp
  00112	e8 00 00 00 00	 call	 @__security_check_cookie@4
  00117	c9		 leave
  00118	c3		 ret	 0
_TEXT	ENDS
;	COMDAT text$x
text$x	SEGMENT
__unwindfunclet$?backgroundLoadMap@@YAPAU_object@@PAU1@0@Z$0:
  00000	8d 4d d8	 lea	 ecx, DWORD PTR $T2[ebp]
  00003	e9 00 00 00 00	 jmp	 ??1?$basic_string@DU?$char_traits@D@std@@V?$allocator@D@2@@std@@QAE@XZ ; std::basic_string<char,std::char_traits<char>,std::allocator<char> >::~basic_string<char,std::char_traits<char>,std::allocator<char> >
  00008	cc		 int	 3
  00009	cc		 int	 3
  0000a	cc		 int	 3
  0000b	cc		 int	 3
  0000c	cc		 int	 3
__ehhandler$?backgroundLoadMap@@YAPAU_object@@PAU1@0@Z:
  0000d	90		 npad	 1
  0000e	90		 npad	 1
  0000f	8b 54 24 08	 mov	 edx, DWORD PTR [esp+8]
  00013	8d 42 0c	 lea	 eax, DWORD PTR [edx+12]
  00016	8b 4a cc	 mov	 ecx, DWORD PTR [edx-52]
  00019	33 c8		 xor	 ecx, eax
  0001b	e8 00 00 00 00	 call	 @__security_check_cookie@4
  00020	8b 4a fc	 mov	 ecx, DWORD PTR [edx-4]
  00023	33 c8		 xor	 ecx, eax
  00025	e8 00 00 00 00	 call	 @__security_check_cookie@4
  0002a	b8 00 00 00 00	 mov	 eax, OFFSET __ehfuncinfo$?backgroundLoadMap@@YAPAU_object@@PAU1@0@Z
  0002f	e9 00 00 00 00	 jmp	 ___CxxFrameHandler3
text$x	ENDS
?backgroundLoadMap@@YAPAU_object@@PAU1@0@Z ENDP		; backgroundLoadMap
; Function compile flags: /Odspy
; File D:\Metin2 Server Files\mainline\SRC_2014\Metin2Client\UserInterface\PythonBackgroundModule.cpp
;	COMDAT ?backgroundEnableSnow@@YAPAU_object@@PAU1@0@Z
_TEXT	SEGMENT
_nIsEnable$ = -8					; size = 4
_rkBG$ = -4						; size = 4
_poSelf$ = 8						; size = 4
_poArgs$ = 12						; size = 4
?backgroundEnableSnow@@YAPAU_object@@PAU1@0@Z PROC	; backgroundEnableSnow, COMDAT

; 30   : {

  00000	55		 push	 ebp
  00001	8b ec		 mov	 ebp, esp
  00003	51		 push	 ecx
  00004	51		 push	 ecx

; 31   : 	int nIsEnable;
; 32   : 	if (!PyTuple_GetInteger(poArgs, 0, &nIsEnable))

  00005	8d 45 f8	 lea	 eax, DWORD PTR _nIsEnable$[ebp]
  00008	50		 push	 eax
  00009	6a 00		 push	 0
  0000b	ff 75 0c	 push	 DWORD PTR _poArgs$[ebp]
  0000e	e8 00 00 00 00	 call	 ?PyTuple_GetInteger@@YA_NPAU_object@@HPAH@Z ; PyTuple_GetInteger
  00013	83 c4 0c	 add	 esp, 12			; 0000000cH
  00016	0f b6 c0	 movzx	 eax, al
  00019	85 c0		 test	 eax, eax
  0001b	75 07		 jne	 SHORT $LN6@background

; 33   : 		return Py_BadArgument();

  0001d	e8 00 00 00 00	 call	 ?Py_BadArgument@@YAPAU_object@@XZ ; Py_BadArgument
  00022	eb 25		 jmp	 SHORT $LN1@background
$LN6@background:

; 34   : 
; 35   : 	CPythonBackground& rkBG=CPythonBackground::Instance();

  00024	a1 00 00 00 00	 mov	 eax, DWORD PTR ?ms_singleton@?$CSingleton@VCPythonBackground@@@@0PAVCPythonBackground@@A ; CSingleton<CPythonBackground>::ms_singleton
  00029	89 45 fc	 mov	 DWORD PTR _rkBG$[ebp], eax

; 36   : 	if (nIsEnable)

  0002c	83 7d f8 00	 cmp	 DWORD PTR _nIsEnable$[ebp], 0
  00030	74 0a		 je	 SHORT $LN3@background

; 37   : 		rkBG.EnableSnowEnvironment();

  00032	8b 4d fc	 mov	 ecx, DWORD PTR _rkBG$[ebp]
  00035	e8 00 00 00 00	 call	 ?EnableSnowEnvironment@CPythonBackground@@QAEXXZ ; CPythonBackground::EnableSnowEnvironment
  0003a	eb 08		 jmp	 SHORT $LN4@background
$LN3@background:

; 38   : 	else
; 39   : 		rkBG.DisableSnowEnvironment();

  0003c	8b 4d fc	 mov	 ecx, DWORD PTR _rkBG$[ebp]
  0003f	e8 00 00 00 00	 call	 ?DisableSnowEnvironment@CPythonBackground@@QAEXXZ ; CPythonBackground::DisableSnowEnvironment
$LN4@background:

; 40   : 
; 41   : 	return Py_BuildNone();

  00044	e8 00 00 00 00	 call	 ?Py_BuildNone@@YAPAU_object@@XZ ; Py_BuildNone
$LN1@background:

; 42   : }

  00049	c9		 leave
  0004a	c3		 ret	 0
?backgroundEnableSnow@@YAPAU_object@@PAU1@0@Z ENDP	; backgroundEnableSnow
_TEXT	ENDS
; Function compile flags: /Odspy
; File D:\Metin2 Server Files\mainline\SRC_2014\Metin2Client\UserInterface\PythonBackgroundModule.cpp
;	COMDAT ?backgroundEnableSoftwareTiling@@YAPAU_object@@PAU1@0@Z
_TEXT	SEGMENT
_rkSystem$ = -20					; size = 4
_rkBG$ = -16						; size = 4
_nIsEnable$ = -12					; size = 4
_isEnable$ = -5						; size = 1
tv72 = -1						; size = 1
_poSelf$ = 8						; size = 4
_poArgs$ = 12						; size = 4
?backgroundEnableSoftwareTiling@@YAPAU_object@@PAU1@0@Z PROC ; backgroundEnableSoftwareTiling, COMDAT

; 14   : {

  00000	55		 push	 ebp
  00001	8b ec		 mov	 ebp, esp
  00003	83 ec 14	 sub	 esp, 20			; 00000014H

; 15   : 	int nIsEnable;
; 16   : 	if (!PyTuple_GetInteger(poArgs, 0, &nIsEnable))

  00006	8d 45 f4	 lea	 eax, DWORD PTR _nIsEnable$[ebp]
  00009	50		 push	 eax
  0000a	6a 00		 push	 0
  0000c	ff 75 0c	 push	 DWORD PTR _poArgs$[ebp]
  0000f	e8 00 00 00 00	 call	 ?PyTuple_GetInteger@@YA_NPAU_object@@HPAH@Z ; PyTuple_GetInteger
  00014	83 c4 0c	 add	 esp, 12			; 0000000cH
  00017	0f b6 c0	 movzx	 eax, al
  0001a	85 c0		 test	 eax, eax
  0001c	75 07		 jne	 SHORT $LN2@background

; 17   : 		return Py_BadArgument();

  0001e	e8 00 00 00 00	 call	 ?Py_BadArgument@@YAPAU_object@@XZ ; Py_BadArgument
  00023	eb 41		 jmp	 SHORT $LN1@background
$LN2@background:

; 18   : 
; 19   : 	bool isEnable=nIsEnable ? true : false;

  00025	83 7d f4 00	 cmp	 DWORD PTR _nIsEnable$[ebp], 0
  00029	74 06		 je	 SHORT $LN4@background
  0002b	c6 45 ff 01	 mov	 BYTE PTR tv72[ebp], 1
  0002f	eb 04		 jmp	 SHORT $LN5@background
$LN4@background:
  00031	c6 45 ff 00	 mov	 BYTE PTR tv72[ebp], 0
$LN5@background:
  00035	8a 45 ff	 mov	 al, BYTE PTR tv72[ebp]
  00038	88 45 fb	 mov	 BYTE PTR _isEnable$[ebp], al

; 20   : 
; 21   : 	CPythonBackground& rkBG=CPythonBackground::Instance();

  0003b	a1 00 00 00 00	 mov	 eax, DWORD PTR ?ms_singleton@?$CSingleton@VCPythonBackground@@@@0PAVCPythonBackground@@A ; CSingleton<CPythonBackground>::ms_singleton
  00040	89 45 f0	 mov	 DWORD PTR _rkBG$[ebp], eax

; 22   : 	rkBG.ReserveSoftwareTilingEnable(isEnable);

  00043	ff 75 fb	 push	 DWORD PTR _isEnable$[ebp]
  00046	8b 4d f0	 mov	 ecx, DWORD PTR _rkBG$[ebp]
  00049	e8 00 00 00 00	 call	 ?ReserveSoftwareTilingEnable@CMapManager@@QAEX_N@Z ; CMapManager::ReserveSoftwareTilingEnable

; 23   : 
; 24   : 	CPythonSystem& rkSystem=CPythonSystem::Instance();

  0004e	a1 00 00 00 00	 mov	 eax, DWORD PTR ?ms_singleton@?$CSingleton@VCPythonSystem@@@@0PAVCPythonSystem@@A ; CSingleton<CPythonSystem>::ms_singleton
  00053	89 45 ec	 mov	 DWORD PTR _rkSystem$[ebp], eax

; 25   : 	rkSystem.SetSoftwareTiling(isEnable);

  00056	ff 75 fb	 push	 DWORD PTR _isEnable$[ebp]
  00059	8b 4d ec	 mov	 ecx, DWORD PTR _rkSystem$[ebp]
  0005c	e8 00 00 00 00	 call	 ?SetSoftwareTiling@CPythonSystem@@QAEX_N@Z ; CPythonSystem::SetSoftwareTiling

; 26   : 	return Py_BuildNone();

  00061	e8 00 00 00 00	 call	 ?Py_BuildNone@@YAPAU_object@@XZ ; Py_BuildNone
$LN1@background:

; 27   : }

  00066	c9		 leave
  00067	c3		 ret	 0
?backgroundEnableSoftwareTiling@@YAPAU_object@@PAU1@0@Z ENDP ; backgroundEnableSoftwareTiling
_TEXT	ENDS
; Function compile flags: /Odspy
; File D:\Metin2 Server Files\mainline\SRC_2014\Metin2Client\UserInterface\PythonBackgroundModule.cpp
;	COMDAT ?backgroundIsSoftwareTiling@@YAPAU_object@@PAU1@0@Z
_TEXT	SEGMENT
_rkBG$ = -4						; size = 4
_poSelf$ = 8						; size = 4
_poArgs$ = 12						; size = 4
?backgroundIsSoftwareTiling@@YAPAU_object@@PAU1@0@Z PROC ; backgroundIsSoftwareTiling, COMDAT

; 8    : {

  00000	55		 push	 ebp
  00001	8b ec		 mov	 ebp, esp
  00003	51		 push	 ecx

; 9    : 	CPythonBackground& rkBG=CPythonBackground::Instance();

  00004	a1 00 00 00 00	 mov	 eax, DWORD PTR ?ms_singleton@?$CSingleton@VCPythonBackground@@@@0PAVCPythonBackground@@A ; CSingleton<CPythonBackground>::ms_singleton
  00009	89 45 fc	 mov	 DWORD PTR _rkBG$[ebp], eax

; 10   : 	return Py_BuildValue("i", rkBG.IsSoftwareTilingEnable());

  0000c	8b 4d fc	 mov	 ecx, DWORD PTR _rkBG$[ebp]
  0000f	e8 00 00 00 00	 call	 ?IsSoftwareTilingEnable@CMapManager@@QAE_NXZ ; CMapManager::IsSoftwareTilingEnable
  00014	0f b6 c0	 movzx	 eax, al
  00017	50		 push	 eax
  00018	68 00 00 00 00	 push	 OFFSET ??_C@_01KBJDNOO@i@
  0001d	ff 15 00 00 00
	00		 call	 DWORD PTR __imp__Py_BuildValue
  00023	59		 pop	 ecx
  00024	59		 pop	 ecx

; 11   : }

  00025	c9		 leave
  00026	c3		 ret	 0
?backgroundIsSoftwareTiling@@YAPAU_object@@PAU1@0@Z ENDP ; backgroundIsSoftwareTiling
_TEXT	ENDS
; Function compile flags: /Odspy
; File C:\Program Files (x86)\Microsoft Visual Studio\2019\Community\VC\Tools\MSVC\14.28.29333\include\xmemory
;	COMDAT ??$_Allocate_manually_vector_aligned@U_Default_allocate_traits@std@@@std@@YAPAXI@Z
_TEXT	SEGMENT
__Ptr$ = -12						; size = 4
__Block_size$ = -8					; size = 4
__Ptr_container$ = -4					; size = 4
__Bytes$ = 8						; size = 4
??$_Allocate_manually_vector_aligned@U_Default_allocate_traits@std@@@std@@YAPAXI@Z PROC ; std::_Allocate_manually_vector_aligned<std::_Default_allocate_traits>, COMDAT

; 113  : __declspec(allocator) void* _Allocate_manually_vector_aligned(const size_t _Bytes) {

  00000	55		 push	 ebp
  00001	8b ec		 mov	 ebp, esp
  00003	83 ec 0c	 sub	 esp, 12			; 0000000cH

; 114  :     // allocate _Bytes manually aligned to at least _Big_allocation_alignment
; 115  :     const size_t _Block_size = _Non_user_size + _Bytes;

  00006	8b 45 08	 mov	 eax, DWORD PTR __Bytes$[ebp]
  00009	83 c0 23	 add	 eax, 35			; 00000023H
  0000c	89 45 f8	 mov	 DWORD PTR __Block_size$[ebp], eax

; 116  :     if (_Block_size <= _Bytes) {

  0000f	8b 45 f8	 mov	 eax, DWORD PTR __Block_size$[ebp]
  00012	3b 45 08	 cmp	 eax, DWORD PTR __Bytes$[ebp]
  00015	77 05		 ja	 SHORT $LN12@Allocate_m

; 117  :         _Throw_bad_array_new_length(); // add overflow

  00017	e8 00 00 00 00	 call	 ?_Throw_bad_array_new_length@std@@YAXXZ ; std::_Throw_bad_array_new_length
$LN12@Allocate_m:

; 77   :         return ::operator new(_Bytes);

  0001c	ff 75 f8	 push	 DWORD PTR __Block_size$[ebp]
  0001f	e8 00 00 00 00	 call	 ??2@YAPAXI@Z		; operator new
  00024	59		 pop	 ecx

; 118  :     }
; 119  : 
; 120  :     const uintptr_t _Ptr_container = reinterpret_cast<uintptr_t>(_Traits::_Allocate(_Block_size));

  00025	89 45 fc	 mov	 DWORD PTR __Ptr_container$[ebp], eax
$LN4@Allocate_m:

; 121  :     _STL_VERIFY(_Ptr_container != 0, "invalid argument"); // validate even in release since we're doing p[-1]

  00028	83 7d fc 00	 cmp	 DWORD PTR __Ptr_container$[ebp], 0
  0002c	74 02		 je	 SHORT $LN7@Allocate_m
  0002e	eb 09		 jmp	 SHORT $LN2@Allocate_m
$LN7@Allocate_m:
  00030	e8 00 00 00 00	 call	 __invalid_parameter_noinfo_noreturn
  00035	33 c0		 xor	 eax, eax
  00037	75 f7		 jne	 SHORT $LN7@Allocate_m
$LN2@Allocate_m:
  00039	33 c0		 xor	 eax, eax
  0003b	75 eb		 jne	 SHORT $LN4@Allocate_m

; 122  :     void* const _Ptr = reinterpret_cast<void*>((_Ptr_container + _Non_user_size) & ~(_Big_allocation_alignment - 1));

  0003d	8b 45 fc	 mov	 eax, DWORD PTR __Ptr_container$[ebp]
  00040	83 c0 23	 add	 eax, 35			; 00000023H
  00043	83 e0 e0	 and	 eax, -32		; ffffffe0H
  00046	89 45 f4	 mov	 DWORD PTR __Ptr$[ebp], eax

; 123  :     static_cast<uintptr_t*>(_Ptr)[-1] = _Ptr_container;

  00049	6a 04		 push	 4
  0004b	58		 pop	 eax
  0004c	6b c0 ff	 imul	 eax, eax, -1
  0004f	8b 4d f4	 mov	 ecx, DWORD PTR __Ptr$[ebp]
  00052	8b 55 fc	 mov	 edx, DWORD PTR __Ptr_container$[ebp]
  00055	89 14 01	 mov	 DWORD PTR [ecx+eax], edx

; 124  : 
; 125  : #ifdef _DEBUG
; 126  :     static_cast<uintptr_t*>(_Ptr)[-2] = _Big_allocation_sentinel;
; 127  : #endif // _DEBUG
; 128  :     return _Ptr;

  00058	8b 45 f4	 mov	 eax, DWORD PTR __Ptr$[ebp]
$LN11@Allocate_m:

; 129  : }

  0005b	c9		 leave
  0005c	c3		 ret	 0
??$_Allocate_manually_vector_aligned@U_Default_allocate_traits@std@@@std@@YAPAXI@Z ENDP ; std::_Allocate_manually_vector_aligned<std::_Default_allocate_traits>
_TEXT	ENDS
; Function compile flags: /Odspy
; File C:\Program Files (x86)\Microsoft Visual Studio\2019\Community\VC\Tools\MSVC\14.28.29333\include\xmemory
;	COMDAT ??$_Allocate@$07U_Default_allocate_traits@std@@$0A@@std@@YAPAXI@Z
_TEXT	SEGMENT
__Bytes$ = 8						; size = 4
??$_Allocate@$07U_Default_allocate_traits@std@@$0A@@std@@YAPAXI@Z PROC ; std::_Allocate<8,std::_Default_allocate_traits,0>, COMDAT

; 197  : __declspec(allocator) void* _Allocate(const size_t _Bytes) {

  00000	55		 push	 ebp
  00001	8b ec		 mov	 ebp, esp

; 198  :     // allocate _Bytes when !_HAS_ALIGNED_NEW || _Align <= __STDCPP_DEFAULT_NEW_ALIGNMENT__
; 199  : #if defined(_M_IX86) || defined(_M_X64)
; 200  :     if (_Bytes >= _Big_allocation_threshold) { // boost the alignment of big allocations to help autovectorization

  00003	81 7d 08 00 10
	00 00		 cmp	 DWORD PTR __Bytes$[ebp], 4096 ; 00001000H
  0000a	72 0b		 jb	 SHORT $LN2@Allocate

; 201  :         return _Allocate_manually_vector_aligned<_Traits>(_Bytes);

  0000c	ff 75 08	 push	 DWORD PTR __Bytes$[ebp]
  0000f	e8 00 00 00 00	 call	 ??$_Allocate_manually_vector_aligned@U_Default_allocate_traits@std@@@std@@YAPAXI@Z ; std::_Allocate_manually_vector_aligned<std::_Default_allocate_traits>
  00014	59		 pop	 ecx
  00015	eb 13		 jmp	 SHORT $LN1@Allocate
$LN2@Allocate:

; 202  :     }
; 203  : #endif // defined(_M_IX86) || defined(_M_X64)
; 204  : 
; 205  :     if (_Bytes != 0) {

  00017	83 7d 08 00	 cmp	 DWORD PTR __Bytes$[ebp], 0
  0001b	74 0b		 je	 SHORT $LN3@Allocate

; 77   :         return ::operator new(_Bytes);

  0001d	ff 75 08	 push	 DWORD PTR __Bytes$[ebp]
  00020	e8 00 00 00 00	 call	 ??2@YAPAXI@Z		; operator new
  00025	59		 pop	 ecx

; 206  :         return _Traits::_Allocate(_Bytes);

  00026	eb 02		 jmp	 SHORT $LN1@Allocate
$LN3@Allocate:

; 207  :     }
; 208  : 
; 209  :     return nullptr;

  00028	33 c0		 xor	 eax, eax
$LN1@Allocate:

; 210  : }

  0002a	5d		 pop	 ebp
  0002b	c3		 ret	 0
??$_Allocate@$07U_Default_allocate_traits@std@@$0A@@std@@YAPAXI@Z ENDP ; std::_Allocate<8,std::_Default_allocate_traits,0>
_TEXT	ENDS
; Function compile flags: /Odspy
; File C:\Program Files (x86)\Microsoft Visual Studio\2019\Community\VC\Tools\MSVC\14.28.29333\include\xmemory
;	COMDAT ??$_Deallocate@$07$0A@@std@@YAXPAXI@Z
_TEXT	SEGMENT
__$EHRec$ = -12						; size = 12
__Ptr$ = 8						; size = 4
__Bytes$ = 12						; size = 4
??$_Deallocate@$07$0A@@std@@YAXPAXI@Z PROC		; std::_Deallocate<8,0>, COMDAT

; 213  : void _Deallocate(void* _Ptr, size_t _Bytes) noexcept {

  00000	55		 push	 ebp
  00001	8b ec		 mov	 ebp, esp
  00003	6a ff		 push	 -1
  00005	68 00 00 00 00	 push	 __ehhandler$??$_Deallocate@$07$0A@@std@@YAXPAXI@Z
  0000a	64 a1 00 00 00
	00		 mov	 eax, DWORD PTR fs:0
  00010	50		 push	 eax
  00011	a1 00 00 00 00	 mov	 eax, DWORD PTR ___security_cookie
  00016	33 c5		 xor	 eax, ebp
  00018	50		 push	 eax
  00019	8d 45 f4	 lea	 eax, DWORD PTR __$EHRec$[ebp]
  0001c	64 a3 00 00 00
	00		 mov	 DWORD PTR fs:0, eax

; 214  :     // deallocate storage allocated by _Allocate when !_HAS_ALIGNED_NEW || _Align <= __STDCPP_DEFAULT_NEW_ALIGNMENT__
; 215  : #if defined(_M_IX86) || defined(_M_X64)
; 216  :     if (_Bytes >= _Big_allocation_threshold) { // boost the alignment of big allocations to help autovectorization

  00022	81 7d 0c 00 10
	00 00		 cmp	 DWORD PTR __Bytes$[ebp], 4096 ; 00001000H
  00029	72 0f		 jb	 SHORT $LN2@Deallocate

; 217  :         _Adjust_manually_vector_aligned(_Ptr, _Bytes);

  0002b	8d 45 0c	 lea	 eax, DWORD PTR __Bytes$[ebp]
  0002e	50		 push	 eax
  0002f	8d 45 08	 lea	 eax, DWORD PTR __Ptr$[ebp]
  00032	50		 push	 eax
  00033	e8 00 00 00 00	 call	 ?_Adjust_manually_vector_aligned@std@@YAXAAPAXAAI@Z ; std::_Adjust_manually_vector_aligned
  00038	59		 pop	 ecx
  00039	59		 pop	 ecx
$LN2@Deallocate:

; 218  :     }
; 219  : #endif // defined(_M_IX86) || defined(_M_X64)
; 220  : 
; 221  :     ::operator delete(_Ptr, _Bytes);

  0003a	ff 75 0c	 push	 DWORD PTR __Bytes$[ebp]
  0003d	ff 75 08	 push	 DWORD PTR __Ptr$[ebp]
  00040	e8 00 00 00 00	 call	 ??3@YAXPAXI@Z		; operator delete
  00045	59		 pop	 ecx
  00046	59		 pop	 ecx

; 222  : }

  00047	8b 4d f4	 mov	 ecx, DWORD PTR __$EHRec$[ebp]
  0004a	64 89 0d 00 00
	00 00		 mov	 DWORD PTR fs:0, ecx
  00051	59		 pop	 ecx
  00052	c9		 leave
  00053	c3		 ret	 0
  00054	cc		 int	 3
  00055	cc		 int	 3
  00056	cc		 int	 3
  00057	cc		 int	 3
  00058	cc		 int	 3
_TEXT	ENDS
;	COMDAT text$x
text$x	SEGMENT
__ehhandler$??$_Deallocate@$07$0A@@std@@YAXPAXI@Z:
  00000	90		 npad	 1
  00001	90		 npad	 1
  00002	8b 54 24 08	 mov	 edx, DWORD PTR [esp+8]
  00006	8d 42 0c	 lea	 eax, DWORD PTR [edx+12]
  00009	8b 4a fc	 mov	 ecx, DWORD PTR [edx-4]
  0000c	33 c8		 xor	 ecx, eax
  0000e	e8 00 00 00 00	 call	 @__security_check_cookie@4
  00013	b8 00 00 00 00	 mov	 eax, OFFSET __ehfuncinfo$??$_Deallocate@$07$0A@@std@@YAXPAXI@Z
  00018	e9 00 00 00 00	 jmp	 ___CxxFrameHandler3
text$x	ENDS
??$_Deallocate@$07$0A@@std@@YAXPAXI@Z ENDP		; std::_Deallocate<8,0>
; Function compile flags: /Odspy
; File C:\Program Files (x86)\Microsoft Visual Studio\2019\Community\VC\Tools\MSVC\14.28.29333\include\xmemory
; File C:\Program Files (x86)\Microsoft Visual Studio\2019\Community\VC\Tools\MSVC\14.28.29333\include\xstddef
; File C:\Program Files (x86)\Microsoft Visual Studio\2019\Community\VC\Tools\MSVC\14.28.29333\include\vcruntime_new.h
; File C:\Program Files (x86)\Microsoft Visual Studio\2019\Community\VC\Tools\MSVC\14.28.29333\include\type_traits
; File C:\Program Files (x86)\Microsoft Visual Studio\2019\Community\VC\Tools\MSVC\14.28.29333\include\xmemory
;	COMDAT ??$_Construct_in_place@PADABQAD@std@@YAXAAPADABQAD@Z
_TEXT	SEGMENT
$T1 = -12						; size = 4
$T2 = -8						; size = 4
$T3 = -4						; size = 4
__Obj$ = 8						; size = 4
_<_Args_0>$ = 12					; size = 4
??$_Construct_in_place@PADABQAD@std@@YAXAAPADABQAD@Z PROC ; std::_Construct_in_place<char *,char * const &>, COMDAT

; 228  : void _Construct_in_place(_Ty& _Obj, _Types&&... _Args) noexcept(is_nothrow_constructible_v<_Ty, _Types...>) {

  00000	55		 push	 ebp
  00001	8b ec		 mov	 ebp, esp
  00003	83 ec 0c	 sub	 esp, 12			; 0000000cH
; File C:\Program Files (x86)\Microsoft Visual Studio\2019\Community\VC\Tools\MSVC\14.28.29333\include\xstddef

; 275  :     return __builtin_addressof(_Val);

  00006	8b 45 08	 mov	 eax, DWORD PTR __Obj$[ebp]
  00009	89 45 fc	 mov	 DWORD PTR $T3[ebp], eax
; File C:\Program Files (x86)\Microsoft Visual Studio\2019\Community\VC\Tools\MSVC\14.28.29333\include\vcruntime_new.h

; 169  :         return _Where;

  0000c	8b 45 fc	 mov	 eax, DWORD PTR $T3[ebp]
  0000f	89 45 f8	 mov	 DWORD PTR $T2[ebp], eax
; File C:\Program Files (x86)\Microsoft Visual Studio\2019\Community\VC\Tools\MSVC\14.28.29333\include\type_traits

; 1443 :     return static_cast<_Ty&&>(_Arg);

  00012	8b 45 0c	 mov	 eax, DWORD PTR _<_Args_0>$[ebp]
  00015	89 45 f4	 mov	 DWORD PTR $T1[ebp], eax
; File C:\Program Files (x86)\Microsoft Visual Studio\2019\Community\VC\Tools\MSVC\14.28.29333\include\xmemory

; 229  :     ::new (const_cast<void*>(static_cast<const volatile void*>(_STD addressof(_Obj))))

  00018	8b 45 f8	 mov	 eax, DWORD PTR $T2[ebp]
  0001b	8b 4d f4	 mov	 ecx, DWORD PTR $T1[ebp]
  0001e	8b 09		 mov	 ecx, DWORD PTR [ecx]
  00020	89 08		 mov	 DWORD PTR [eax], ecx

; 230  :         _Ty(_STD forward<_Types>(_Args)...);
; 231  : }

  00022	c9		 leave
  00023	c3		 ret	 0
??$_Construct_in_place@PADABQAD@std@@YAXAAPADABQAD@Z ENDP ; std::_Construct_in_place<char *,char * const &>
_TEXT	ENDS
; Function compile flags: /Odspy
; File C:\Program Files (x86)\Microsoft Visual Studio\2019\Community\VC\Tools\MSVC\14.28.29333\include\xstring
; File C:\Program Files (x86)\Microsoft Visual Studio\2019\Community\VC\Tools\MSVC\14.28.29333\include\xmemory
; File C:\Program Files (x86)\Microsoft Visual Studio\2019\Community\VC\Tools\MSVC\14.28.29333\include\xstring
; File C:\Program Files (x86)\Microsoft Visual Studio\2019\Community\VC\Tools\MSVC\14.28.29333\include\xmemory
; File C:\Program Files (x86)\Microsoft Visual Studio\2019\Community\VC\Tools\MSVC\14.28.29333\include\xstring
; File C:\Program Files (x86)\Microsoft Visual Studio\2019\Community\VC\Tools\MSVC\14.28.29333\include\xmemory
; File C:\Program Files (x86)\Microsoft Visual Studio\2019\Community\VC\Tools\MSVC\14.28.29333\include\xstring
; File C:\Program Files (x86)\Microsoft Visual Studio\2019\Community\VC\Tools\MSVC\14.28.29333\include\xstddef
; File C:\Program Files (x86)\Microsoft Visual Studio\2019\Community\VC\Tools\MSVC\14.28.29333\include\xstring
; File C:\Program Files (x86)\Microsoft Visual Studio\2019\Community\VC\Tools\MSVC\14.28.29333\include\xmemory
; File C:\Program Files (x86)\Microsoft Visual Studio\2019\Community\VC\Tools\MSVC\14.28.29333\include\xstring
;	COMDAT ??$_Reallocate_for@V<lambda_9366063389c5f42a00a5088cf24e69de>@@PBD@?$basic_string@DU?$char_traits@D@std@@V?$allocator@D@2@@std@@AAEAAV01@IV<lambda_9366063389c5f42a00a5088cf24e69de>@@PBD@Z
_TEXT	SEGMENT
__Al$ = -40						; size = 4
__Ptr$ = -36						; size = 4
__Ptr$ = -32						; size = 4
$T1 = -28						; size = 4
__Old_capacity$ = -24					; size = 4
$T2 = -20						; size = 4
__New_capacity$ = -16					; size = 4
__New_ptr$ = -12					; size = 4
_this$ = -8						; size = 4
__Overflow_is_possible$3 = -2				; size = 1
$T4 = -1						; size = 1
__New_size$ = 8						; size = 4
__Fn$ = 12						; size = 1
_<_Args_0>$ = 16					; size = 4
??$_Reallocate_for@V<lambda_9366063389c5f42a00a5088cf24e69de>@@PBD@?$basic_string@DU?$char_traits@D@std@@V?$allocator@D@2@@std@@AAEAAV01@IV<lambda_9366063389c5f42a00a5088cf24e69de>@@PBD@Z PROC ; std::basic_string<char,std::char_traits<char>,std::allocator<char> >::_Reallocate_for<<lambda_9366063389c5f42a00a5088cf24e69de>,char const *>, COMDAT
; _this$ = ecx

; 4302 :     basic_string& _Reallocate_for(const size_type _New_size, _Fty _Fn, _ArgTys... _Args) {

  00000	55		 push	 ebp
  00001	8b ec		 mov	 ebp, esp
  00003	83 ec 28	 sub	 esp, 40			; 00000028H
  00006	89 4d f8	 mov	 DWORD PTR _this$[ebp], ecx

; 4303 :         // reallocate to store exactly _New_size elements, new buffer prepared by
; 4304 :         // _Fn(_New_ptr, _New_size, _Args...)
; 4305 :         if (_New_size > max_size()) {

  00009	8b 4d f8	 mov	 ecx, DWORD PTR _this$[ebp]
  0000c	e8 00 00 00 00	 call	 ?max_size@?$basic_string@DU?$char_traits@D@std@@V?$allocator@D@2@@std@@QBEIXZ ; std::basic_string<char,std::char_traits<char>,std::allocator<char> >::max_size
  00011	39 45 08	 cmp	 DWORD PTR __New_size$[ebp], eax
  00014	76 05		 jbe	 SHORT $LN2@Reallocate

; 4306 :             _Xlen_string(); // result too long

  00016	e8 00 00 00 00	 call	 ?_Xlen_string@std@@YAXXZ ; std::_Xlen_string
$LN2@Reallocate:

; 4307 :         }
; 4308 : 
; 4309 :         const size_type _Old_capacity = _Mypair._Myval2._Myres;

  0001b	8b 45 f8	 mov	 eax, DWORD PTR _this$[ebp]
  0001e	8b 40 14	 mov	 eax, DWORD PTR [eax+20]
  00021	89 45 e8	 mov	 DWORD PTR __Old_capacity$[ebp], eax

; 4310 :         const size_type _New_capacity = _Calculate_growth(_New_size);

  00024	ff 75 08	 push	 DWORD PTR __New_size$[ebp]
  00027	8b 4d f8	 mov	 ecx, DWORD PTR _this$[ebp]
  0002a	e8 00 00 00 00	 call	 ?_Calculate_growth@?$basic_string@DU?$char_traits@D@std@@V?$allocator@D@2@@std@@ABEII@Z ; std::basic_string<char,std::char_traits<char>,std::allocator<char> >::_Calculate_growth
  0002f	89 45 f0	 mov	 DWORD PTR __New_capacity$[ebp], eax

; 4409 :         return _Mypair._Get_first();

  00032	8b 45 f8	 mov	 eax, DWORD PTR _this$[ebp]
; File C:\Program Files (x86)\Microsoft Visual Studio\2019\Community\VC\Tools\MSVC\14.28.29333\include\xmemory

; 1347 :         return *this;

  00035	89 45 e4	 mov	 DWORD PTR $T1[ebp], eax
; File C:\Program Files (x86)\Microsoft Visual Studio\2019\Community\VC\Tools\MSVC\14.28.29333\include\xstring

; 4409 :         return _Mypair._Get_first();

  00038	8b 45 e4	 mov	 eax, DWORD PTR $T1[ebp]
  0003b	89 45 d8	 mov	 DWORD PTR __Al$[ebp], eax
; File C:\Program Files (x86)\Microsoft Visual Studio\2019\Community\VC\Tools\MSVC\14.28.29333\include\xmemory

; 56   :     constexpr bool _Overflow_is_possible = _Ty_size > 1;

  0003e	c6 45 fe 00	 mov	 BYTE PTR __Overflow_is_possible$3[ebp], 0
; File C:\Program Files (x86)\Microsoft Visual Studio\2019\Community\VC\Tools\MSVC\14.28.29333\include\xstring

; 4312 :         const pointer _New_ptr        = _Al.allocate(_New_capacity + 1); // throws

  00042	8b 45 f0	 mov	 eax, DWORD PTR __New_capacity$[ebp]
  00045	40		 inc	 eax
; File C:\Program Files (x86)\Microsoft Visual Studio\2019\Community\VC\Tools\MSVC\14.28.29333\include\xmemory

; 814  :         return static_cast<_Ty*>(_Allocate<_New_alignof<_Ty>>(_Get_size_of_n<sizeof(_Ty)>(_Count)));

  00046	50		 push	 eax
  00047	e8 00 00 00 00	 call	 ??$_Allocate@$07U_Default_allocate_traits@std@@$0A@@std@@YAPAXI@Z ; std::_Allocate<8,std::_Default_allocate_traits,0>
  0004c	59		 pop	 ecx
; File C:\Program Files (x86)\Microsoft Visual Studio\2019\Community\VC\Tools\MSVC\14.28.29333\include\xstring

; 4312 :         const pointer _New_ptr        = _Al.allocate(_New_capacity + 1); // throws

  0004d	89 45 f4	 mov	 DWORD PTR __New_ptr$[ebp], eax

; 4313 :         _Mypair._Myval2._Orphan_all();
; 4314 :         _Mypair._Myval2._Mysize = _New_size;

  00050	8b 45 f8	 mov	 eax, DWORD PTR _this$[ebp]
  00053	8b 4d 08	 mov	 ecx, DWORD PTR __New_size$[ebp]
  00056	89 48 10	 mov	 DWORD PTR [eax+16], ecx

; 4315 :         _Mypair._Myval2._Myres  = _New_capacity;

  00059	8b 45 f8	 mov	 eax, DWORD PTR _this$[ebp]
  0005c	8b 4d f0	 mov	 ecx, DWORD PTR __New_capacity$[ebp]
  0005f	89 48 14	 mov	 DWORD PTR [eax+20], ecx

; 4316 :         _Fn(_Unfancy(_New_ptr), _New_size, _Args...);

  00062	8b 45 f4	 mov	 eax, DWORD PTR __New_ptr$[ebp]
  00065	89 45 e0	 mov	 DWORD PTR __Ptr$[ebp], eax
; File C:\Program Files (x86)\Microsoft Visual Studio\2019\Community\VC\Tools\MSVC\14.28.29333\include\xstddef

; 289  :     return _Ptr;

  00068	8b 45 e0	 mov	 eax, DWORD PTR __Ptr$[ebp]
  0006b	89 45 ec	 mov	 DWORD PTR $T2[ebp], eax
; File C:\Program Files (x86)\Microsoft Visual Studio\2019\Community\VC\Tools\MSVC\14.28.29333\include\xstring

; 62   :         _CSTD memcpy(_First1, _First2, _Count * sizeof(_Elem));

  0006e	ff 75 08	 push	 DWORD PTR __New_size$[ebp]
  00071	ff 75 10	 push	 DWORD PTR _<_Args_0>$[ebp]
  00074	ff 75 ec	 push	 DWORD PTR $T2[ebp]
  00077	e8 00 00 00 00	 call	 _memcpy
  0007c	83 c4 0c	 add	 esp, 12			; 0000000cH

; 3056 :                 _Traits::assign(_New_ptr[_Count], _Elem());

  0007f	c6 45 ff 00	 mov	 BYTE PTR $T4[ebp], 0

; 428  :         _Left = _Right;

  00083	8b 45 ec	 mov	 eax, DWORD PTR $T2[ebp]
  00086	03 45 08	 add	 eax, DWORD PTR __New_size$[ebp]
  00089	8a 4d ff	 mov	 cl, BYTE PTR $T4[ebp]
  0008c	88 08		 mov	 BYTE PTR [eax], cl

; 4317 :         if (_BUF_SIZE <= _Old_capacity) {

  0008e	83 7d e8 10	 cmp	 DWORD PTR __Old_capacity$[ebp], 16 ; 00000010H
  00092	72 21		 jb	 SHORT $LN3@Reallocate

; 4318 :             _Al.deallocate(_Mypair._Myval2._Bx._Ptr, _Old_capacity + 1);

  00094	8b 45 f8	 mov	 eax, DWORD PTR _this$[ebp]
  00097	8b 00		 mov	 eax, DWORD PTR [eax]
  00099	89 45 dc	 mov	 DWORD PTR __Ptr$[ebp], eax
  0009c	8b 45 e8	 mov	 eax, DWORD PTR __Old_capacity$[ebp]
  0009f	40		 inc	 eax
; File C:\Program Files (x86)\Microsoft Visual Studio\2019\Community\VC\Tools\MSVC\14.28.29333\include\xmemory

; 810  :         _Deallocate<_New_alignof<_Ty>>(_Ptr, sizeof(_Ty) * _Count);

  000a0	50		 push	 eax
  000a1	ff 75 dc	 push	 DWORD PTR __Ptr$[ebp]
  000a4	e8 00 00 00 00	 call	 ??$_Deallocate@$07$0A@@std@@YAXPAXI@Z ; std::_Deallocate<8,0>
  000a9	59		 pop	 ecx
  000aa	59		 pop	 ecx
; File C:\Program Files (x86)\Microsoft Visual Studio\2019\Community\VC\Tools\MSVC\14.28.29333\include\xstring

; 4319 :             _Mypair._Myval2._Bx._Ptr = _New_ptr;

  000ab	8b 45 f8	 mov	 eax, DWORD PTR _this$[ebp]
  000ae	8b 4d f4	 mov	 ecx, DWORD PTR __New_ptr$[ebp]
  000b1	89 08		 mov	 DWORD PTR [eax], ecx

; 4320 :         } else {

  000b3	eb 0e		 jmp	 SHORT $LN4@Reallocate
$LN3@Reallocate:

; 4321 :             _Construct_in_place(_Mypair._Myval2._Bx._Ptr, _New_ptr);

  000b5	8d 45 f4	 lea	 eax, DWORD PTR __New_ptr$[ebp]
  000b8	50		 push	 eax
  000b9	ff 75 f8	 push	 DWORD PTR _this$[ebp]
  000bc	e8 00 00 00 00	 call	 ??$_Construct_in_place@PADABQAD@std@@YAXAAPADABQAD@Z ; std::_Construct_in_place<char *,char * const &>
  000c1	59		 pop	 ecx
  000c2	59		 pop	 ecx
$LN4@Reallocate:

; 4322 :         }
; 4323 : 
; 4324 :         return *this;

  000c3	8b 45 f8	 mov	 eax, DWORD PTR _this$[ebp]
$LN5@Reallocate:

; 4325 :     }

  000c6	c9		 leave
  000c7	c2 0c 00	 ret	 12			; 0000000cH
??$_Reallocate_for@V<lambda_9366063389c5f42a00a5088cf24e69de>@@PBD@?$basic_string@DU?$char_traits@D@std@@V?$allocator@D@2@@std@@AAEAAV01@IV<lambda_9366063389c5f42a00a5088cf24e69de>@@PBD@Z ENDP ; std::basic_string<char,std::char_traits<char>,std::allocator<char> >::_Reallocate_for<<lambda_9366063389c5f42a00a5088cf24e69de>,char const *>
_TEXT	ENDS
; Function compile flags: /Odspy
; File C:\Program Files (x86)\Microsoft Visual Studio\2019\Community\VC\Tools\MSVC\14.28.29333\include\xmemory
;	COMDAT ??$_Destroy_in_place@PAD@std@@YAXAAPAD@Z
_TEXT	SEGMENT
__Obj$ = 8						; size = 4
??$_Destroy_in_place@PAD@std@@YAXAAPAD@Z PROC		; std::_Destroy_in_place<char *>, COMDAT

; 270  : /* _CONSTEXPR20_DYNALLOC */ void _Destroy_in_place(_Ty& _Obj) noexcept {

  00000	55		 push	 ebp
  00001	8b ec		 mov	 ebp, esp

; 271  : #if _HAS_IF_CONSTEXPR
; 272  :     if constexpr (is_array_v<_Ty>) {
; 273  :         _Destroy_range(_Obj, _Obj + extent_v<_Ty>);
; 274  :     } else
; 275  : #endif // _HAS_IF_CONSTEXPR
; 276  :     {
; 277  :         _Obj.~_Ty();
; 278  :     }
; 279  : }

  00003	5d		 pop	 ebp
  00004	c3		 ret	 0
??$_Destroy_in_place@PAD@std@@YAXAAPAD@Z ENDP		; std::_Destroy_in_place<char *>
_TEXT	ENDS
; Function compile flags: /Odspy
; File D:\Metin2 Server Files\mainline\SRC_2014\Metin2Client\UserInterface\PythonBackgroundModule.cpp
;	COMDAT ?initBackground@@YAXXZ
_TEXT	SEGMENT
_poModule$ = -4						; size = 4
?initBackground@@YAXXZ PROC				; initBackground, COMDAT

; 527  : {

  00000	55		 push	 ebp
  00001	8b ec		 mov	 ebp, esp
  00003	51		 push	 ecx

; 528  : 	static PyMethodDef s_methods[] =
; 529  : 	{
; 530  : 		{ "IsSoftwareTiling",					backgroundIsSoftwareTiling,					METH_VARARGS }, 
; 531  : 		{ "EnableSoftwareTiling",				backgroundEnableSoftwareTiling,				METH_VARARGS }, 
; 532  : 		{ "EnableSnow",							backgroundEnableSnow,						METH_VARARGS }, 
; 533  : 		{ "GlobalPositionToLocalPosition",		backgroundGlobalPositionToLocalPosition,	METH_VARARGS }, 
; 534  : 		{ "GlobalPositionToMapInfo",			backgroundGlobalPositionToMapInfo,			METH_VARARGS }, 
; 535  : 		{ "GetRenderShadowTime",				backgroundGetRenderShadowTime,				METH_VARARGS },
; 536  : 		{ "LoadMap",							backgroundLoadMap,							METH_VARARGS },
; 537  : 		{ "Destroy",							backgroundDestroy,							METH_VARARGS },
; 538  : 		{ "RegisterEnvironmentData",			backgroundRegisterEnvironmentData,			METH_VARARGS },
; 539  : 		{ "SetEnvironmentData",					backgroundSetEnvironmentData,				METH_VARARGS },
; 540  : 		{ "GetCurrentMapName",					backgroundGetCurrentMapName,				METH_VARARGS },
; 541  : 		{ "GetPickingPoint",					backgroundGetPickingPoint,					METH_VARARGS },
; 542  : 
; 543  : 		{ "BeginEnvironment",					backgroundBeginEnvironment,					METH_VARARGS },
; 544  : 		{ "EndEnvironment",						backgroundEndEnvironemt,					METH_VARARGS },
; 545  : 		{ "SetCharacterDirLight",				backgroundSetCharacterDirLight,				METH_VARARGS },
; 546  : 		{ "SetBackgroundDirLight",				backgroundSetBackgroundDirLight,			METH_VARARGS },
; 547  : 
; 548  : 		{ "Initialize",							backgroundInitialize,						METH_VARARGS },
; 549  : 		{ "Update",								backgroundUpdate,							METH_VARARGS },
; 550  : 		{ "Render",								backgroundRender,							METH_VARARGS },
; 551  : 		{ "RenderPCBlocker",					backgroundRenderPCBlocker,					METH_VARARGS },
; 552  : 		{ "RenderCollision",					backgroundRenderCollision,					METH_VARARGS },
; 553  : 		{ "RenderSky",							backgroundRenderSky,						METH_VARARGS },
; 554  : 		{ "RenderCloud",						backgroundRenderCloud,						METH_VARARGS },
; 555  : 		{ "RenderWater",						backgroundRenderWater,						METH_VARARGS },
; 556  : 		{ "RenderEffect",						backgroundRenderEffect,						METH_VARARGS },
; 557  : 		{ "RenderBeforeLensFlare",				backgroundRenderBeforeLensFlare,			METH_VARARGS },
; 558  : 		{ "RenderAfterLensFlare",				backgroundRenderAfterLensFlare,				METH_VARARGS },
; 559  : 		{ "RenderCharacterShadowToTexture",		backgroundRenderCharacterShadowToTexture,	METH_VARARGS },
; 560  : 		{ "RenderDungeon",						backgroundRenderDungeon,					METH_VARARGS },
; 561  : 		{ "GetHeight",							backgroundGetHeight,						METH_VARARGS },
; 562  : 		
; 563  : 		{ "SetShadowLevel",						backgroundSetShadowLevel,					METH_VARARGS },
; 564  : 
; 565  : 		{ "SetVisiblePart",						backgroundSetVisiblePart,					METH_VARARGS },
; 566  : 		{ "GetShadowMapColor",					backgroundGetShadowMapcolor,				METH_VARARGS },
; 567  : 		{ "SetSplatLimit",						backgroundSetSpaltLimit,					METH_VARARGS },
; 568  : 		{ "GetRenderedSplatNum",				backgroundGetRenderedSplatNum,				METH_VARARGS },
; 569  : 		{ "GetRenderedGraphicThingInstanceNum",	backgroundGetRenderedGTINum,				METH_VARARGS },
; 570  : 		{ "SelectViewDistanceNum",				backgroundSelectViewDistanceNum,			METH_VARARGS },
; 571  : 		{ "SetViewDistanceSet",					backgroundSetViewDistanceSet,				METH_VARARGS },
; 572  : 		{ "GetFarClip",							backgroundGetFarClip,						METH_VARARGS },
; 573  : 		{ "GetDistanceSetInfo",					backgroundGetDistanceSetInfo,				METH_VARARGS },
; 574  : 		{ "SetBGLoading",						backgroundSetBGLoading,						METH_VARARGS },
; 575  : 		{ "SetRenderSort",						backgroundSetRenderSort,					METH_VARARGS },
; 576  : 		{ "SetTransparentTree",					backgroundSetTransparentTree,				METH_VARARGS },
; 577  : 		{ "SetXMasTree",						backgroundSetXMasTree,						METH_VARARGS },
; 578  : 		{ "RegisterDungeonMapName",				backgroundRegisterDungeonMapName,			METH_VARARGS },
; 579  : 
; 580  : 		{ "VisibleGuildArea",					backgroundVisibleGuildArea,					METH_VARARGS },
; 581  : 		{ "DisableGuildArea",					backgroundDisableGuildArea,					METH_VARARGS },
; 582  : 
; 583  : 		{ "WarpTest",							backgroundWarpTest,							METH_VARARGS },
; 584  : 
; 585  : 		{ NULL, NULL, NULL },
; 586  : 	};
; 587  : 
; 588  : 	PyObject * poModule = Py_InitModule("background", s_methods);

  00004	68 f5 03 00 00	 push	 1013			; 000003f5H
  00009	6a 00		 push	 0
  0000b	6a 00		 push	 0
  0000d	68 00 00 00 00	 push	 OFFSET ?s_methods@?1??initBackground@@YAXXZ@4PAUPyMethodDef@@A
  00012	68 00 00 00 00	 push	 OFFSET ??_C@_0L@EGCKCJDC@background@
  00017	ff 15 00 00 00
	00		 call	 DWORD PTR __imp__Py_InitModule4
  0001d	83 c4 14	 add	 esp, 20			; 00000014H
  00020	89 45 fc	 mov	 DWORD PTR _poModule$[ebp], eax

; 589  : 
; 590  : 	PyModule_AddIntConstant(poModule, "PART_SKY",				CMapOutdoor::PART_SKY);

  00023	6a 05		 push	 5
  00025	68 00 00 00 00	 push	 OFFSET ??_C@_08NJILKGEB@PART_SKY@
  0002a	ff 75 fc	 push	 DWORD PTR _poModule$[ebp]
  0002d	ff 15 00 00 00
	00		 call	 DWORD PTR __imp__PyModule_AddIntConstant
  00033	83 c4 0c	 add	 esp, 12			; 0000000cH

; 591  : 	PyModule_AddIntConstant(poModule, "PART_TREE",				CMapOutdoor::PART_TREE);

  00036	6a 04		 push	 4
  00038	68 00 00 00 00	 push	 OFFSET ??_C@_09GABNPPB@PART_TREE@
  0003d	ff 75 fc	 push	 DWORD PTR _poModule$[ebp]
  00040	ff 15 00 00 00
	00		 call	 DWORD PTR __imp__PyModule_AddIntConstant
  00046	83 c4 0c	 add	 esp, 12			; 0000000cH

; 592  : 	PyModule_AddIntConstant(poModule, "PART_CLOUD",				CMapOutdoor::PART_CLOUD);

  00049	6a 02		 push	 2
  0004b	68 00 00 00 00	 push	 OFFSET ??_C@_0L@OMDBBBIA@PART_CLOUD@
  00050	ff 75 fc	 push	 DWORD PTR _poModule$[ebp]
  00053	ff 15 00 00 00
	00		 call	 DWORD PTR __imp__PyModule_AddIntConstant
  00059	83 c4 0c	 add	 esp, 12			; 0000000cH

; 593  : 	PyModule_AddIntConstant(poModule, "PART_WATER",				CMapOutdoor::PART_WATER);

  0005c	6a 03		 push	 3
  0005e	68 00 00 00 00	 push	 OFFSET ??_C@_0L@LEAFDIF@PART_WATER@
  00063	ff 75 fc	 push	 DWORD PTR _poModule$[ebp]
  00066	ff 15 00 00 00
	00		 call	 DWORD PTR __imp__PyModule_AddIntConstant
  0006c	83 c4 0c	 add	 esp, 12			; 0000000cH

; 594  : 	PyModule_AddIntConstant(poModule, "PART_OBJECT",			CMapOutdoor::PART_OBJECT);	

  0006f	6a 01		 push	 1
  00071	68 00 00 00 00	 push	 OFFSET ??_C@_0M@FDJPOPAP@PART_OBJECT@
  00076	ff 75 fc	 push	 DWORD PTR _poModule$[ebp]
  00079	ff 15 00 00 00
	00		 call	 DWORD PTR __imp__PyModule_AddIntConstant
  0007f	83 c4 0c	 add	 esp, 12			; 0000000cH

; 595  : 	PyModule_AddIntConstant(poModule, "PART_TERRAIN",			CMapOutdoor::PART_TERRAIN);	

  00082	6a 00		 push	 0
  00084	68 00 00 00 00	 push	 OFFSET ??_C@_0N@JJNCMAMK@PART_TERRAIN@
  00089	ff 75 fc	 push	 DWORD PTR _poModule$[ebp]
  0008c	ff 15 00 00 00
	00		 call	 DWORD PTR __imp__PyModule_AddIntConstant
  00092	83 c4 0c	 add	 esp, 12			; 0000000cH

; 596  : 
; 597  : 	PyModule_AddIntConstant(poModule, "SKY_RENDER_MODE_DEFAULT",			CSkyObject::SKY_RENDER_MODE_DEFAULT);

  00095	6a 00		 push	 0
  00097	68 00 00 00 00	 push	 OFFSET ??_C@_0BI@KFLFFAKF@SKY_RENDER_MODE_DEFAULT@
  0009c	ff 75 fc	 push	 DWORD PTR _poModule$[ebp]
  0009f	ff 15 00 00 00
	00		 call	 DWORD PTR __imp__PyModule_AddIntConstant
  000a5	83 c4 0c	 add	 esp, 12			; 0000000cH

; 598  : 	PyModule_AddIntConstant(poModule, "SKY_RENDER_MODE_DIFFUSE",			CSkyObject::SKY_RENDER_MODE_DIFFUSE);

  000a8	6a 01		 push	 1
  000aa	68 00 00 00 00	 push	 OFFSET ??_C@_0BI@JEJGCBJM@SKY_RENDER_MODE_DIFFUSE@
  000af	ff 75 fc	 push	 DWORD PTR _poModule$[ebp]
  000b2	ff 15 00 00 00
	00		 call	 DWORD PTR __imp__PyModule_AddIntConstant
  000b8	83 c4 0c	 add	 esp, 12			; 0000000cH

; 599  : 	PyModule_AddIntConstant(poModule, "SKY_RENDER_MODE_TEXTURE",			CSkyObject::SKY_RENDER_MODE_TEXTURE);

  000bb	6a 02		 push	 2
  000bd	68 00 00 00 00	 push	 OFFSET ??_C@_0BI@NLDLHPN@SKY_RENDER_MODE_TEXTURE@
  000c2	ff 75 fc	 push	 DWORD PTR _poModule$[ebp]
  000c5	ff 15 00 00 00
	00		 call	 DWORD PTR __imp__PyModule_AddIntConstant
  000cb	83 c4 0c	 add	 esp, 12			; 0000000cH

; 600  : 	PyModule_AddIntConstant(poModule, "SKY_RENDER_MODE_MODULATE",			CSkyObject::SKY_RENDER_MODE_MODULATE);

  000ce	6a 03		 push	 3
  000d0	68 00 00 00 00	 push	 OFFSET ??_C@_0BJ@IGDGIPGO@SKY_RENDER_MODE_MODULATE@
  000d5	ff 75 fc	 push	 DWORD PTR _poModule$[ebp]
  000d8	ff 15 00 00 00
	00		 call	 DWORD PTR __imp__PyModule_AddIntConstant
  000de	83 c4 0c	 add	 esp, 12			; 0000000cH

; 601  : 	PyModule_AddIntConstant(poModule, "SKY_RENDER_MODE_MODULATE2X",			CSkyObject::SKY_RENDER_MODE_MODULATE2X);

  000e1	6a 04		 push	 4
  000e3	68 00 00 00 00	 push	 OFFSET ??_C@_0BL@NDPELIAM@SKY_RENDER_MODE_MODULATE2X@
  000e8	ff 75 fc	 push	 DWORD PTR _poModule$[ebp]
  000eb	ff 15 00 00 00
	00		 call	 DWORD PTR __imp__PyModule_AddIntConstant
  000f1	83 c4 0c	 add	 esp, 12			; 0000000cH

; 602  : 	PyModule_AddIntConstant(poModule, "SKY_RENDER_MODE_MODULATE4X",			CSkyObject::SKY_RENDER_MODE_MODULATE4X);

  000f4	6a 05		 push	 5
  000f6	68 00 00 00 00	 push	 OFFSET ??_C@_0BL@NHHJMELO@SKY_RENDER_MODE_MODULATE4X@
  000fb	ff 75 fc	 push	 DWORD PTR _poModule$[ebp]
  000fe	ff 15 00 00 00
	00		 call	 DWORD PTR __imp__PyModule_AddIntConstant
  00104	83 c4 0c	 add	 esp, 12			; 0000000cH

; 603  : 
; 604  : 	PyModule_AddIntConstant(poModule, "SHADOW_NONE", CPythonBackground::SHADOW_NONE);

  00107	6a 00		 push	 0
  00109	68 00 00 00 00	 push	 OFFSET ??_C@_0M@GJOLHPMA@SHADOW_NONE@
  0010e	ff 75 fc	 push	 DWORD PTR _poModule$[ebp]
  00111	ff 15 00 00 00
	00		 call	 DWORD PTR __imp__PyModule_AddIntConstant
  00117	83 c4 0c	 add	 esp, 12			; 0000000cH

; 605  : 	PyModule_AddIntConstant(poModule, "SHADOW_GROUND", CPythonBackground::SHADOW_GROUND);

  0011a	6a 01		 push	 1
  0011c	68 00 00 00 00	 push	 OFFSET ??_C@_0O@KCPINCHK@SHADOW_GROUND@
  00121	ff 75 fc	 push	 DWORD PTR _poModule$[ebp]
  00124	ff 15 00 00 00
	00		 call	 DWORD PTR __imp__PyModule_AddIntConstant
  0012a	83 c4 0c	 add	 esp, 12			; 0000000cH

; 606  : 	PyModule_AddIntConstant(poModule, "SHADOW_GROUND_AND_SOLO", CPythonBackground::SHADOW_GROUND_AND_SOLO);

  0012d	6a 02		 push	 2
  0012f	68 00 00 00 00	 push	 OFFSET ??_C@_0BH@GACINHHJ@SHADOW_GROUND_AND_SOLO@
  00134	ff 75 fc	 push	 DWORD PTR _poModule$[ebp]
  00137	ff 15 00 00 00
	00		 call	 DWORD PTR __imp__PyModule_AddIntConstant
  0013d	83 c4 0c	 add	 esp, 12			; 0000000cH

; 607  : 	PyModule_AddIntConstant(poModule, "SHADOW_ALL", CPythonBackground::SHADOW_ALL);

  00140	6a 03		 push	 3
  00142	68 00 00 00 00	 push	 OFFSET ??_C@_0L@IDBIEHAB@SHADOW_ALL@
  00147	ff 75 fc	 push	 DWORD PTR _poModule$[ebp]
  0014a	ff 15 00 00 00
	00		 call	 DWORD PTR __imp__PyModule_AddIntConstant
  00150	83 c4 0c	 add	 esp, 12			; 0000000cH

; 608  : 	PyModule_AddIntConstant(poModule, "SHADOW_ALL_HIGH", CPythonBackground::SHADOW_ALL_HIGH);

  00153	6a 04		 push	 4
  00155	68 00 00 00 00	 push	 OFFSET ??_C@_0BA@HAKJACB@SHADOW_ALL_HIGH@
  0015a	ff 75 fc	 push	 DWORD PTR _poModule$[ebp]
  0015d	ff 15 00 00 00
	00		 call	 DWORD PTR __imp__PyModule_AddIntConstant
  00163	83 c4 0c	 add	 esp, 12			; 0000000cH

; 609  : 	PyModule_AddIntConstant(poModule, "SHADOW_ALL_MAX", CPythonBackground::SHADOW_ALL_MAX);

  00166	6a 05		 push	 5
  00168	68 00 00 00 00	 push	 OFFSET ??_C@_0P@OLMEFOLC@SHADOW_ALL_MAX@
  0016d	ff 75 fc	 push	 DWORD PTR _poModule$[ebp]
  00170	ff 15 00 00 00
	00		 call	 DWORD PTR __imp__PyModule_AddIntConstant
  00176	83 c4 0c	 add	 esp, 12			; 0000000cH

; 610  : 
; 611  : 	PyModule_AddIntConstant(poModule, "DISTANCE0", CPythonBackground::DISTANCE0);

  00179	6a 00		 push	 0
  0017b	68 00 00 00 00	 push	 OFFSET ??_C@_09PGFHANGE@DISTANCE0@
  00180	ff 75 fc	 push	 DWORD PTR _poModule$[ebp]
  00183	ff 15 00 00 00
	00		 call	 DWORD PTR __imp__PyModule_AddIntConstant
  00189	83 c4 0c	 add	 esp, 12			; 0000000cH

; 612  : 	PyModule_AddIntConstant(poModule, "DISTANCE1", CPythonBackground::DISTANCE1);

  0018c	6a 01		 push	 1
  0018e	68 00 00 00 00	 push	 OFFSET ??_C@_09OPEMDMCF@DISTANCE1@
  00193	ff 75 fc	 push	 DWORD PTR _poModule$[ebp]
  00196	ff 15 00 00 00
	00		 call	 DWORD PTR __imp__PyModule_AddIntConstant
  0019c	83 c4 0c	 add	 esp, 12			; 0000000cH

; 613  : 	PyModule_AddIntConstant(poModule, "DISTANCE2", CPythonBackground::DISTANCE2);

  0019f	6a 02		 push	 2
  001a1	68 00 00 00 00	 push	 OFFSET ??_C@_09MEGBGPOG@DISTANCE2@
  001a6	ff 75 fc	 push	 DWORD PTR _poModule$[ebp]
  001a9	ff 15 00 00 00
	00		 call	 DWORD PTR __imp__PyModule_AddIntConstant
  001af	83 c4 0c	 add	 esp, 12			; 0000000cH

; 614  : 	PyModule_AddIntConstant(poModule, "DISTANCE3", CPythonBackground::DISTANCE3);

  001b2	6a 03		 push	 3
  001b4	68 00 00 00 00	 push	 OFFSET ??_C@_09NNHKFOKH@DISTANCE3@
  001b9	ff 75 fc	 push	 DWORD PTR _poModule$[ebp]
  001bc	ff 15 00 00 00
	00		 call	 DWORD PTR __imp__PyModule_AddIntConstant
  001c2	83 c4 0c	 add	 esp, 12			; 0000000cH

; 615  : 	PyModule_AddIntConstant(poModule, "DISTANCE4", CPythonBackground::DISTANCE4);

  001c5	6a 04		 push	 4
  001c7	68 00 00 00 00	 push	 OFFSET ??_C@_09JCDLMIGA@DISTANCE4@
  001cc	ff 75 fc	 push	 DWORD PTR _poModule$[ebp]
  001cf	ff 15 00 00 00
	00		 call	 DWORD PTR __imp__PyModule_AddIntConstant
  001d5	83 c4 0c	 add	 esp, 12			; 0000000cH

; 616  : 
; 617  : 	PyModule_AddIntConstant(poModule, "DISTANCE_SORT", CMapOutdoor::DISTANCE_SORT);

  001d8	6a 00		 push	 0
  001da	68 00 00 00 00	 push	 OFFSET ??_C@_0O@OJDBENMM@DISTANCE_SORT@
  001df	ff 75 fc	 push	 DWORD PTR _poModule$[ebp]
  001e2	ff 15 00 00 00
	00		 call	 DWORD PTR __imp__PyModule_AddIntConstant
  001e8	83 c4 0c	 add	 esp, 12			; 0000000cH

; 618  : 	PyModule_AddIntConstant(poModule, "TEXTURE_SORT", CMapOutdoor::TEXTURE_SORT);

  001eb	6a 01		 push	 1
  001ed	68 00 00 00 00	 push	 OFFSET ??_C@_0N@CKPMLBKJ@TEXTURE_SORT@
  001f2	ff 75 fc	 push	 DWORD PTR _poModule$[ebp]
  001f5	ff 15 00 00 00
	00		 call	 DWORD PTR __imp__PyModule_AddIntConstant
  001fb	83 c4 0c	 add	 esp, 12			; 0000000cH

; 619  : }

  001fe	c9		 leave
  001ff	c3		 ret	 0
?initBackground@@YAXXZ ENDP				; initBackground
_TEXT	ENDS
; Function compile flags: /Odspy
;	COMDAT ??1?$_Compressed_pair@V?$allocator@D@std@@V?$_String_val@U?$_Simple_types@D@std@@@2@$00@std@@QAE@XZ
_TEXT	SEGMENT
_this$ = -4						; size = 4
??1?$_Compressed_pair@V?$allocator@D@std@@V?$_String_val@U?$_Simple_types@D@std@@@2@$00@std@@QAE@XZ PROC ; std::_Compressed_pair<std::allocator<char>,std::_String_val<std::_Simple_types<char> >,1>::~_Compressed_pair<std::allocator<char>,std::_String_val<std::_Simple_types<char> >,1>, COMDAT
; _this$ = ecx
  00000	55		 push	 ebp
  00001	8b ec		 mov	 ebp, esp
  00003	51		 push	 ecx
  00004	89 4d fc	 mov	 DWORD PTR _this$[ebp], ecx
  00007	c9		 leave
  00008	c3		 ret	 0
??1?$_Compressed_pair@V?$allocator@D@std@@V?$_String_val@U?$_Simple_types@D@std@@@2@$00@std@@QAE@XZ ENDP ; std::_Compressed_pair<std::allocator<char>,std::_String_val<std::_Simple_types<char> >,1>::~_Compressed_pair<std::allocator<char>,std::_String_val<std::_Simple_types<char> >,1>
_TEXT	ENDS
; Function compile flags: /Odspy
; File C:\Program Files (x86)\Microsoft Visual Studio\2019\Community\VC\Tools\MSVC\14.28.29333\include\xstring
; File C:\Program Files (x86)\Microsoft Visual Studio\2019\Community\VC\Tools\MSVC\14.28.29333\include\xmemory
; File C:\Program Files (x86)\Microsoft Visual Studio\2019\Community\VC\Tools\MSVC\14.28.29333\include\xstring
; File C:\Program Files (x86)\Microsoft Visual Studio\2019\Community\VC\Tools\MSVC\14.28.29333\include\xmemory
; File C:\Program Files (x86)\Microsoft Visual Studio\2019\Community\VC\Tools\MSVC\14.28.29333\include\xstring
;	COMDAT ?_Tidy_deallocate@?$basic_string@DU?$char_traits@D@std@@V?$allocator@D@2@@std@@AAEXXZ
_TEXT	SEGMENT
__Al$1 = -28						; size = 4
__Ptr$2 = -24						; size = 4
__Count$ = -20						; size = 4
$T3 = -16						; size = 4
tv68 = -12						; size = 4
_this$ = -8						; size = 4
$T4 = -2						; size = 1
$T5 = -1						; size = 1
?_Tidy_deallocate@?$basic_string@DU?$char_traits@D@std@@V?$allocator@D@2@@std@@AAEXXZ PROC ; std::basic_string<char,std::char_traits<char>,std::allocator<char> >::_Tidy_deallocate, COMDAT
; _this$ = ecx

; 4383 :     void _Tidy_deallocate() noexcept { // initialize buffer, deallocating any storage

  00000	55		 push	 ebp
  00001	8b ec		 mov	 ebp, esp
  00003	83 ec 1c	 sub	 esp, 28			; 0000001cH
  00006	89 4d f8	 mov	 DWORD PTR _this$[ebp], ecx

; 2227 :         return _BUF_SIZE <= _Myres;

  00009	8b 45 f8	 mov	 eax, DWORD PTR _this$[ebp]
  0000c	83 78 14 10	 cmp	 DWORD PTR [eax+20], 16	; 00000010H
  00010	72 09		 jb	 SHORT $LN9@Tidy_deall
  00012	c7 45 f4 01 00
	00 00		 mov	 DWORD PTR tv68[ebp], 1
  00019	eb 04		 jmp	 SHORT $LN10@Tidy_deall
$LN9@Tidy_deall:
  0001b	83 65 f4 00	 and	 DWORD PTR tv68[ebp], 0
$LN10@Tidy_deall:
  0001f	8a 45 f4	 mov	 al, BYTE PTR tv68[ebp]
  00022	88 45 ff	 mov	 BYTE PTR $T5[ebp], al

; 4384 :         _Mypair._Myval2._Orphan_all();
; 4385 :         if (_Mypair._Myval2._Large_string_engaged()) {

  00025	0f b6 45 ff	 movzx	 eax, BYTE PTR $T5[ebp]
  00029	85 c0		 test	 eax, eax
  0002b	74 34		 je	 SHORT $LN2@Tidy_deall

; 4386 :             const pointer _Ptr = _Mypair._Myval2._Bx._Ptr;

  0002d	8b 45 f8	 mov	 eax, DWORD PTR _this$[ebp]
  00030	8b 00		 mov	 eax, DWORD PTR [eax]
  00032	89 45 e8	 mov	 DWORD PTR __Ptr$2[ebp], eax

; 4409 :         return _Mypair._Get_first();

  00035	8b 45 f8	 mov	 eax, DWORD PTR _this$[ebp]
; File C:\Program Files (x86)\Microsoft Visual Studio\2019\Community\VC\Tools\MSVC\14.28.29333\include\xmemory

; 1347 :         return *this;

  00038	89 45 f0	 mov	 DWORD PTR $T3[ebp], eax
; File C:\Program Files (x86)\Microsoft Visual Studio\2019\Community\VC\Tools\MSVC\14.28.29333\include\xstring

; 4409 :         return _Mypair._Get_first();

  0003b	8b 45 f0	 mov	 eax, DWORD PTR $T3[ebp]
  0003e	89 45 e4	 mov	 DWORD PTR __Al$1[ebp], eax

; 4387 :             auto& _Al          = _Getal();
; 4388 :             _Destroy_in_place(_Mypair._Myval2._Bx._Ptr);

  00041	ff 75 f8	 push	 DWORD PTR _this$[ebp]
  00044	e8 00 00 00 00	 call	 ??$_Destroy_in_place@PAD@std@@YAXAAPAD@Z ; std::_Destroy_in_place<char *>
  00049	59		 pop	 ecx

; 4389 :             _Al.deallocate(_Ptr, _Mypair._Myval2._Myres + 1);

  0004a	8b 45 f8	 mov	 eax, DWORD PTR _this$[ebp]
  0004d	8b 40 14	 mov	 eax, DWORD PTR [eax+20]
  00050	40		 inc	 eax
  00051	89 45 ec	 mov	 DWORD PTR __Count$[ebp], eax
; File C:\Program Files (x86)\Microsoft Visual Studio\2019\Community\VC\Tools\MSVC\14.28.29333\include\xmemory

; 810  :         _Deallocate<_New_alignof<_Ty>>(_Ptr, sizeof(_Ty) * _Count);

  00054	ff 75 ec	 push	 DWORD PTR __Count$[ebp]
  00057	ff 75 e8	 push	 DWORD PTR __Ptr$2[ebp]
  0005a	e8 00 00 00 00	 call	 ??$_Deallocate@$07$0A@@std@@YAXPAXI@Z ; std::_Deallocate<8,0>
  0005f	59		 pop	 ecx
  00060	59		 pop	 ecx
$LN2@Tidy_deall:
; File C:\Program Files (x86)\Microsoft Visual Studio\2019\Community\VC\Tools\MSVC\14.28.29333\include\xstring

; 4392 :         _Mypair._Myval2._Mysize = 0;

  00061	8b 45 f8	 mov	 eax, DWORD PTR _this$[ebp]
  00064	83 60 10 00	 and	 DWORD PTR [eax+16], 0

; 4393 :         _Mypair._Myval2._Myres  = _BUF_SIZE - 1;

  00068	8b 45 f8	 mov	 eax, DWORD PTR _this$[ebp]
  0006b	c7 40 14 0f 00
	00 00		 mov	 DWORD PTR [eax+20], 15	; 0000000fH

; 4394 :         // the _Traits::assign is last so the codegen doesn't think the char write can alias this
; 4395 :         _Traits::assign(_Mypair._Myval2._Bx._Buf[0], _Elem());

  00072	c6 45 fe 00	 mov	 BYTE PTR $T4[ebp], 0
  00076	33 c0		 xor	 eax, eax
  00078	40		 inc	 eax
  00079	6b c0 00	 imul	 eax, eax, 0

; 428  :         _Left = _Right;

  0007c	8b 4d f8	 mov	 ecx, DWORD PTR _this$[ebp]
  0007f	8a 55 fe	 mov	 dl, BYTE PTR $T4[ebp]
  00082	88 14 01	 mov	 BYTE PTR [ecx+eax], dl

; 4396 :     }

  00085	c9		 leave
  00086	c3		 ret	 0
?_Tidy_deallocate@?$basic_string@DU?$char_traits@D@std@@V?$allocator@D@2@@std@@AAEXXZ ENDP ; std::basic_string<char,std::char_traits<char>,std::allocator<char> >::_Tidy_deallocate
_TEXT	ENDS
; Function compile flags: /Odspy
; File C:\Program Files (x86)\Microsoft Visual Studio\2019\Community\VC\Tools\MSVC\14.28.29333\include\xstring
;	COMDAT ?_Tidy_init@?$basic_string@DU?$char_traits@D@std@@V?$allocator@D@2@@std@@AAEXXZ
_TEXT	SEGMENT
_this$ = -8						; size = 4
$T1 = -1						; size = 1
?_Tidy_init@?$basic_string@DU?$char_traits@D@std@@V?$allocator@D@2@@std@@AAEXXZ PROC ; std::basic_string<char,std::char_traits<char>,std::allocator<char> >::_Tidy_init, COMDAT
; _this$ = ecx

; 4376 :     void _Tidy_init() noexcept { // initialize basic_string data members

  00000	55		 push	 ebp
  00001	8b ec		 mov	 ebp, esp
  00003	51		 push	 ecx
  00004	51		 push	 ecx
  00005	89 4d f8	 mov	 DWORD PTR _this$[ebp], ecx

; 4377 :         _Mypair._Myval2._Mysize = 0;

  00008	8b 45 f8	 mov	 eax, DWORD PTR _this$[ebp]
  0000b	83 60 10 00	 and	 DWORD PTR [eax+16], 0

; 4378 :         _Mypair._Myval2._Myres  = _BUF_SIZE - 1;

  0000f	8b 45 f8	 mov	 eax, DWORD PTR _this$[ebp]
  00012	c7 40 14 0f 00
	00 00		 mov	 DWORD PTR [eax+20], 15	; 0000000fH

; 4379 :         // the _Traits::assign is last so the codegen doesn't think the char write can alias this
; 4380 :         _Traits::assign(_Mypair._Myval2._Bx._Buf[0], _Elem());

  00019	c6 45 ff 00	 mov	 BYTE PTR $T1[ebp], 0
  0001d	33 c0		 xor	 eax, eax
  0001f	40		 inc	 eax
  00020	6b c0 00	 imul	 eax, eax, 0

; 428  :         _Left = _Right;

  00023	8b 4d f8	 mov	 ecx, DWORD PTR _this$[ebp]
  00026	8a 55 ff	 mov	 dl, BYTE PTR $T1[ebp]
  00029	88 14 01	 mov	 BYTE PTR [ecx+eax], dl

; 4381 :     }

  0002c	c9		 leave
  0002d	c3		 ret	 0
?_Tidy_init@?$basic_string@DU?$char_traits@D@std@@V?$allocator@D@2@@std@@AAEXXZ ENDP ; std::basic_string<char,std::char_traits<char>,std::allocator<char> >::_Tidy_init
_TEXT	ENDS
; Function compile flags: /Odspy
; File C:\Program Files (x86)\Microsoft Visual Studio\2019\Community\VC\Tools\MSVC\14.28.29333\include\xstring
; File C:\Program Files (x86)\Microsoft Visual Studio\2019\Community\VC\Tools\MSVC\14.28.29333\include\utility
; File C:\Program Files (x86)\Microsoft Visual Studio\2019\Community\VC\Tools\MSVC\14.28.29333\include\xstring
;	COMDAT ?_Calculate_growth@?$basic_string@DU?$char_traits@D@std@@V?$allocator@D@2@@std@@ABEII@Z
_TEXT	SEGMENT
$T1 = -36						; size = 4
$T2 = -32						; size = 4
tv93 = -28						; size = 4
$T3 = -24						; size = 4
_this$ = -20						; size = 4
$T4 = -16						; size = 4
__Masked$5 = -12					; size = 4
__Old$ = -8						; size = 4
__Max$ = -4						; size = 4
__Requested$ = 8					; size = 4
?_Calculate_growth@?$basic_string@DU?$char_traits@D@std@@V?$allocator@D@2@@std@@ABEII@Z PROC ; std::basic_string<char,std::char_traits<char>,std::allocator<char> >::_Calculate_growth, COMDAT
; _this$ = ecx

; 4297 :     _NODISCARD size_type _Calculate_growth(const size_type _Requested) const noexcept {

  00000	55		 push	 ebp
  00001	8b ec		 mov	 ebp, esp
  00003	83 ec 24	 sub	 esp, 36			; 00000024H
  00006	89 4d ec	 mov	 DWORD PTR _this$[ebp], ecx

; 4298 :         return _Calculate_growth(_Requested, _Mypair._Myval2._Myres, max_size());

  00009	8b 4d ec	 mov	 ecx, DWORD PTR _this$[ebp]
  0000c	e8 00 00 00 00	 call	 ?max_size@?$basic_string@DU?$char_traits@D@std@@V?$allocator@D@2@@std@@QBEIXZ ; std::basic_string<char,std::char_traits<char>,std::allocator<char> >::max_size
  00011	89 45 fc	 mov	 DWORD PTR __Max$[ebp], eax
  00014	8b 45 ec	 mov	 eax, DWORD PTR _this$[ebp]
  00017	8b 40 14	 mov	 eax, DWORD PTR [eax+20]
  0001a	89 45 f8	 mov	 DWORD PTR __Old$[ebp], eax

; 4285 :         const size_type _Masked = _Requested | _ALLOC_MASK;

  0001d	8b 45 08	 mov	 eax, DWORD PTR __Requested$[ebp]
  00020	83 c8 0f	 or	 eax, 15			; 0000000fH
  00023	89 45 f4	 mov	 DWORD PTR __Masked$5[ebp], eax

; 4286 :         if (_Masked > _Max) { // the mask overflows, settle for max_size()

  00026	8b 45 f4	 mov	 eax, DWORD PTR __Masked$5[ebp]
  00029	3b 45 fc	 cmp	 eax, DWORD PTR __Max$[ebp]
  0002c	76 08		 jbe	 SHORT $LN29@Calculate_

; 4287 :             return _Max;

  0002e	8b 45 fc	 mov	 eax, DWORD PTR __Max$[ebp]
  00031	89 45 f0	 mov	 DWORD PTR $T4[ebp], eax
  00034	eb 4c		 jmp	 SHORT $LN31@Calculate_
$LN29@Calculate_:

; 4288 :         }
; 4289 : 
; 4290 :         if (_Old > _Max - _Old / 2) { // similarly, geometric overflows

  00036	8b 45 f8	 mov	 eax, DWORD PTR __Old$[ebp]
  00039	d1 e8		 shr	 eax, 1
  0003b	8b 4d fc	 mov	 ecx, DWORD PTR __Max$[ebp]
  0003e	2b c8		 sub	 ecx, eax
  00040	39 4d f8	 cmp	 DWORD PTR __Old$[ebp], ecx
  00043	76 08		 jbe	 SHORT $LN30@Calculate_

; 4291 :             return _Max;

  00045	8b 45 fc	 mov	 eax, DWORD PTR __Max$[ebp]
  00048	89 45 f0	 mov	 DWORD PTR $T4[ebp], eax
  0004b	eb 35		 jmp	 SHORT $LN31@Calculate_
$LN30@Calculate_:

; 4294 :         return (_STD max)(_Masked, _Old + _Old / 2);

  0004d	8b 45 f8	 mov	 eax, DWORD PTR __Old$[ebp]
  00050	d1 e8		 shr	 eax, 1
  00052	03 45 f8	 add	 eax, DWORD PTR __Old$[ebp]
  00055	89 45 e8	 mov	 DWORD PTR $T3[ebp], eax
; File C:\Program Files (x86)\Microsoft Visual Studio\2019\Community\VC\Tools\MSVC\14.28.29333\include\utility

; 44   :     return _Left < _Right ? _Right : _Left;

  00058	8b 45 f4	 mov	 eax, DWORD PTR __Masked$5[ebp]
  0005b	3b 45 e8	 cmp	 eax, DWORD PTR $T3[ebp]
  0005e	73 08		 jae	 SHORT $LN35@Calculate_
  00060	8d 45 e8	 lea	 eax, DWORD PTR $T3[ebp]
  00063	89 45 e4	 mov	 DWORD PTR tv93[ebp], eax
  00066	eb 06		 jmp	 SHORT $LN36@Calculate_
$LN35@Calculate_:
  00068	8d 45 f4	 lea	 eax, DWORD PTR __Masked$5[ebp]
  0006b	89 45 e4	 mov	 DWORD PTR tv93[ebp], eax
$LN36@Calculate_:
  0006e	8b 45 e4	 mov	 eax, DWORD PTR tv93[ebp]
  00071	89 45 e0	 mov	 DWORD PTR $T2[ebp], eax
  00074	8b 45 e0	 mov	 eax, DWORD PTR $T2[ebp]
  00077	89 45 dc	 mov	 DWORD PTR $T1[ebp], eax
; File C:\Program Files (x86)\Microsoft Visual Studio\2019\Community\VC\Tools\MSVC\14.28.29333\include\xstring

; 4294 :         return (_STD max)(_Masked, _Old + _Old / 2);

  0007a	8b 45 dc	 mov	 eax, DWORD PTR $T1[ebp]
  0007d	8b 00		 mov	 eax, DWORD PTR [eax]
  0007f	89 45 f0	 mov	 DWORD PTR $T4[ebp], eax
$LN31@Calculate_:

; 4298 :         return _Calculate_growth(_Requested, _Mypair._Myval2._Myres, max_size());

  00082	8b 45 f0	 mov	 eax, DWORD PTR $T4[ebp]

; 4299 :     }

  00085	c9		 leave
  00086	c2 04 00	 ret	 4
?_Calculate_growth@?$basic_string@DU?$char_traits@D@std@@V?$allocator@D@2@@std@@ABEII@Z ENDP ; std::basic_string<char,std::char_traits<char>,std::allocator<char> >::_Calculate_growth
_TEXT	ENDS
; Function compile flags: /Odspy
; File C:\Program Files (x86)\Microsoft Visual Studio\2019\Community\VC\Tools\MSVC\14.28.29333\include\xstring
; File C:\Program Files (x86)\Microsoft Visual Studio\2019\Community\VC\Tools\MSVC\14.28.29333\include\xmemory
; File C:\Program Files (x86)\Microsoft Visual Studio\2019\Community\VC\Tools\MSVC\14.28.29333\include\xstring
; File C:\Program Files (x86)\Microsoft Visual Studio\2019\Community\VC\Tools\MSVC\14.28.29333\include\xmemory
; File C:\Program Files (x86)\Microsoft Visual Studio\2019\Community\VC\Tools\MSVC\14.28.29333\include\xstring
; File C:\Program Files (x86)\Microsoft Visual Studio\2019\Community\VC\Tools\MSVC\14.28.29333\include\utility
; File C:\Program Files (x86)\Microsoft Visual Studio\2019\Community\VC\Tools\MSVC\14.28.29333\include\xstring
; File C:\Program Files (x86)\Microsoft Visual Studio\2019\Community\VC\Tools\MSVC\14.28.29333\include\limits
; File C:\Program Files (x86)\Microsoft Visual Studio\2019\Community\VC\Tools\MSVC\14.28.29333\include\xstring
; File C:\Program Files (x86)\Microsoft Visual Studio\2019\Community\VC\Tools\MSVC\14.28.29333\include\utility
; File C:\Program Files (x86)\Microsoft Visual Studio\2019\Community\VC\Tools\MSVC\14.28.29333\include\xstring
;	COMDAT ?max_size@?$basic_string@DU?$char_traits@D@std@@V?$allocator@D@2@@std@@QBEIXZ
_TEXT	SEGMENT
$T1 = -60						; size = 4
$T2 = -56						; size = 4
$T3 = -52						; size = 4
$T4 = -48						; size = 4
__Storage_max$ = -44					; size = 4
$T5 = -40						; size = 4
$T6 = -36						; size = 4
$T7 = -32						; size = 4
_this$ = -28						; size = 4
tv70 = -24						; size = 4
$T8 = -20						; size = 4
$T9 = -16						; size = 4
tv67 = -12						; size = 4
__Alloc_max$ = -8					; size = 4
$T10 = -4						; size = 4
?max_size@?$basic_string@DU?$char_traits@D@std@@V?$allocator@D@2@@std@@QBEIXZ PROC ; std::basic_string<char,std::char_traits<char>,std::allocator<char> >::max_size, COMDAT
; _this$ = ecx

; 3773 :     _NODISCARD size_type max_size() const noexcept {

  00000	55		 push	 ebp
  00001	8b ec		 mov	 ebp, esp
  00003	83 ec 3c	 sub	 esp, 60			; 0000003cH
  00006	89 4d e4	 mov	 DWORD PTR _this$[ebp], ecx

; 4413 :         return _Mypair._Get_first();

  00009	8b 45 e4	 mov	 eax, DWORD PTR _this$[ebp]
; File C:\Program Files (x86)\Microsoft Visual Studio\2019\Community\VC\Tools\MSVC\14.28.29333\include\xmemory

; 1351 :         return *this;

  0000c	89 45 e0	 mov	 DWORD PTR $T7[ebp], eax
; File C:\Program Files (x86)\Microsoft Visual Studio\2019\Community\VC\Tools\MSVC\14.28.29333\include\xstring

; 4413 :         return _Mypair._Get_first();

  0000f	8b 45 e0	 mov	 eax, DWORD PTR $T7[ebp]
  00012	89 45 c4	 mov	 DWORD PTR $T1[ebp], eax
; File C:\Program Files (x86)\Microsoft Visual Studio\2019\Community\VC\Tools\MSVC\14.28.29333\include\xmemory

; 710  :         return static_cast<size_t>(-1) / sizeof(value_type);

  00015	83 4d f8 ff	 or	 DWORD PTR __Alloc_max$[ebp], -1
; File C:\Program Files (x86)\Microsoft Visual Studio\2019\Community\VC\Tools\MSVC\14.28.29333\include\xstring

; 3775 :         const size_type _Storage_max = // can always store small string

  00019	c7 45 fc 10 00
	00 00		 mov	 DWORD PTR $T10[ebp], 16	; 00000010H
; File C:\Program Files (x86)\Microsoft Visual Studio\2019\Community\VC\Tools\MSVC\14.28.29333\include\utility

; 44   :     return _Left < _Right ? _Right : _Left;

  00020	8b 45 f8	 mov	 eax, DWORD PTR __Alloc_max$[ebp]
  00023	3b 45 fc	 cmp	 eax, DWORD PTR $T10[ebp]
  00026	73 08		 jae	 SHORT $LN14@max_size
  00028	8d 45 fc	 lea	 eax, DWORD PTR $T10[ebp]
  0002b	89 45 f4	 mov	 DWORD PTR tv67[ebp], eax
  0002e	eb 06		 jmp	 SHORT $LN15@max_size
$LN14@max_size:
  00030	8d 45 f8	 lea	 eax, DWORD PTR __Alloc_max$[ebp]
  00033	89 45 f4	 mov	 DWORD PTR tv67[ebp], eax
$LN15@max_size:
  00036	8b 45 f4	 mov	 eax, DWORD PTR tv67[ebp]
  00039	89 45 dc	 mov	 DWORD PTR $T6[ebp], eax
  0003c	8b 45 dc	 mov	 eax, DWORD PTR $T6[ebp]
  0003f	89 45 d8	 mov	 DWORD PTR $T5[ebp], eax
; File C:\Program Files (x86)\Microsoft Visual Studio\2019\Community\VC\Tools\MSVC\14.28.29333\include\xstring

; 3775 :         const size_type _Storage_max = // can always store small string

  00042	8b 45 d8	 mov	 eax, DWORD PTR $T5[ebp]
  00045	8b 00		 mov	 eax, DWORD PTR [eax]
  00047	89 45 d4	 mov	 DWORD PTR __Storage_max$[ebp], eax

; 3777 :         return (_STD min)(static_cast<size_type>((numeric_limits<difference_type>::max)()),

  0004a	8b 45 d4	 mov	 eax, DWORD PTR __Storage_max$[ebp]
  0004d	48		 dec	 eax
  0004e	89 45 f0	 mov	 DWORD PTR $T9[ebp], eax
; File C:\Program Files (x86)\Microsoft Visual Studio\2019\Community\VC\Tools\MSVC\14.28.29333\include\limits

; 557  :         return INT_MAX;

  00051	c7 45 d0 ff ff
	ff 7f		 mov	 DWORD PTR $T4[ebp], 2147483647 ; 7fffffffH
; File C:\Program Files (x86)\Microsoft Visual Studio\2019\Community\VC\Tools\MSVC\14.28.29333\include\xstring

; 3777 :         return (_STD min)(static_cast<size_type>((numeric_limits<difference_type>::max)()),

  00058	8b 45 d0	 mov	 eax, DWORD PTR $T4[ebp]
  0005b	89 45 ec	 mov	 DWORD PTR $T8[ebp], eax
; File C:\Program Files (x86)\Microsoft Visual Studio\2019\Community\VC\Tools\MSVC\14.28.29333\include\utility

; 68   :     return _Right < _Left ? _Right : _Left;

  0005e	8b 45 f0	 mov	 eax, DWORD PTR $T9[ebp]
  00061	3b 45 ec	 cmp	 eax, DWORD PTR $T8[ebp]
  00064	73 08		 jae	 SHORT $LN22@max_size
  00066	8d 45 f0	 lea	 eax, DWORD PTR $T9[ebp]
  00069	89 45 e8	 mov	 DWORD PTR tv70[ebp], eax
  0006c	eb 06		 jmp	 SHORT $LN23@max_size
$LN22@max_size:
  0006e	8d 45 ec	 lea	 eax, DWORD PTR $T8[ebp]
  00071	89 45 e8	 mov	 DWORD PTR tv70[ebp], eax
$LN23@max_size:
  00074	8b 45 e8	 mov	 eax, DWORD PTR tv70[ebp]
  00077	89 45 cc	 mov	 DWORD PTR $T3[ebp], eax
  0007a	8b 45 cc	 mov	 eax, DWORD PTR $T3[ebp]
  0007d	89 45 c8	 mov	 DWORD PTR $T2[ebp], eax
; File C:\Program Files (x86)\Microsoft Visual Studio\2019\Community\VC\Tools\MSVC\14.28.29333\include\xstring

; 3777 :         return (_STD min)(static_cast<size_type>((numeric_limits<difference_type>::max)()),

  00080	8b 45 c8	 mov	 eax, DWORD PTR $T2[ebp]
  00083	8b 00		 mov	 eax, DWORD PTR [eax]

; 3778 :             _Storage_max - 1 // -1 is for null terminator and/or npos
; 3779 :         );
; 3780 :     }

  00085	c9		 leave
  00086	c3		 ret	 0
?max_size@?$basic_string@DU?$char_traits@D@std@@V?$allocator@D@2@@std@@QBEIXZ ENDP ; std::basic_string<char,std::char_traits<char>,std::allocator<char> >::max_size
_TEXT	ENDS
; Function compile flags: /Odspy
; File C:\Program Files (x86)\Microsoft Visual Studio\2019\Community\VC\Tools\MSVC\14.28.29333\include\xstring
;	COMDAT ?assign@?$basic_string@DU?$char_traits@D@std@@V?$allocator@D@2@@std@@QAEAAV12@QBDI@Z
_TEXT	SEGMENT
$T1 = -16						; size = 1
__Old_ptr$2 = -12					; size = 4
_this$ = -8						; size = 4
$T3 = -1						; size = 1
__Ptr$ = 8						; size = 4
__Count$ = 12						; size = 4
?assign@?$basic_string@DU?$char_traits@D@std@@V?$allocator@D@2@@std@@QAEAAV12@QBDI@Z PROC ; std::basic_string<char,std::char_traits<char>,std::allocator<char> >::assign, COMDAT
; _this$ = ecx

; 3042 :     basic_string& assign(_In_reads_(_Count) const _Elem* const _Ptr, _CRT_GUARDOVERFLOW const size_type _Count) {

  00000	55		 push	 ebp
  00001	8b ec		 mov	 ebp, esp
  00003	83 ec 10	 sub	 esp, 16			; 00000010H
  00006	89 4d f8	 mov	 DWORD PTR _this$[ebp], ecx

; 3043 :         // assign [_Ptr, _Ptr + _Count)
; 3044 :         if (_Count <= _Mypair._Myval2._Myres) {

  00009	8b 45 f8	 mov	 eax, DWORD PTR _this$[ebp]
  0000c	8b 4d 0c	 mov	 ecx, DWORD PTR __Count$[ebp]
  0000f	3b 48 14	 cmp	 ecx, DWORD PTR [eax+20]
  00012	77 39		 ja	 SHORT $LN2@assign

; 3045 :             _Elem* const _Old_ptr   = _Mypair._Myval2._Myptr();

  00014	8b 4d f8	 mov	 ecx, DWORD PTR _this$[ebp]
  00017	e8 00 00 00 00	 call	 ?_Myptr@?$_String_val@U?$_Simple_types@D@std@@@std@@QAEPADXZ ; std::_String_val<std::_Simple_types<char> >::_Myptr
  0001c	89 45 f4	 mov	 DWORD PTR __Old_ptr$2[ebp], eax

; 3046 :             _Mypair._Myval2._Mysize = _Count;

  0001f	8b 45 f8	 mov	 eax, DWORD PTR _this$[ebp]
  00022	8b 4d 0c	 mov	 ecx, DWORD PTR __Count$[ebp]
  00025	89 48 10	 mov	 DWORD PTR [eax+16], ecx

; 119  :         _CSTD memmove(_First1, _First2, _Count * sizeof(_Elem));

  00028	ff 75 0c	 push	 DWORD PTR __Count$[ebp]
  0002b	ff 75 08	 push	 DWORD PTR __Ptr$[ebp]
  0002e	ff 75 f4	 push	 DWORD PTR __Old_ptr$2[ebp]
  00031	e8 00 00 00 00	 call	 _memmove
  00036	83 c4 0c	 add	 esp, 12			; 0000000cH

; 3047 :             _Traits::move(_Old_ptr, _Ptr, _Count);
; 3048 :             _Traits::assign(_Old_ptr[_Count], _Elem());

  00039	c6 45 ff 00	 mov	 BYTE PTR $T3[ebp], 0

; 428  :         _Left = _Right;

  0003d	8b 45 f4	 mov	 eax, DWORD PTR __Old_ptr$2[ebp]
  00040	03 45 0c	 add	 eax, DWORD PTR __Count$[ebp]
  00043	8a 4d ff	 mov	 cl, BYTE PTR $T3[ebp]
  00046	88 08		 mov	 BYTE PTR [eax], cl

; 3049 :             return *this;

  00048	8b 45 f8	 mov	 eax, DWORD PTR _this$[ebp]
  0004b	eb 16		 jmp	 SHORT $LN1@assign
$LN2@assign:

; 3050 :         }
; 3051 : 
; 3052 :         return _Reallocate_for(

  0004d	33 c0		 xor	 eax, eax
  0004f	88 45 f0	 mov	 BYTE PTR $T1[ebp], al
  00052	ff 75 08	 push	 DWORD PTR __Ptr$[ebp]
  00055	ff 75 f0	 push	 DWORD PTR $T1[ebp]
  00058	ff 75 0c	 push	 DWORD PTR __Count$[ebp]
  0005b	8b 4d f8	 mov	 ecx, DWORD PTR _this$[ebp]
  0005e	e8 00 00 00 00	 call	 ??$_Reallocate_for@V<lambda_9366063389c5f42a00a5088cf24e69de>@@PBD@?$basic_string@DU?$char_traits@D@std@@V?$allocator@D@2@@std@@AAEAAV01@IV<lambda_9366063389c5f42a00a5088cf24e69de>@@PBD@Z ; std::basic_string<char,std::char_traits<char>,std::allocator<char> >::_Reallocate_for<<lambda_9366063389c5f42a00a5088cf24e69de>,char const *>
$LN1@assign:

; 3053 :             _Count,
; 3054 :             [](_Elem* const _New_ptr, const size_type _Count, const _Elem* const _Ptr) {
; 3055 :                 _Traits::copy(_New_ptr, _Ptr, _Count);
; 3056 :                 _Traits::assign(_New_ptr[_Count], _Elem());
; 3057 :             },
; 3058 :             _Ptr);
; 3059 :     }

  00063	c9		 leave
  00064	c2 08 00	 ret	 8
?assign@?$basic_string@DU?$char_traits@D@std@@V?$allocator@D@2@@std@@QAEAAV12@QBDI@Z ENDP ; std::basic_string<char,std::char_traits<char>,std::allocator<char> >::assign
_TEXT	ENDS
; Function compile flags: /Odspy
; File C:\Program Files (x86)\Microsoft Visual Studio\2019\Community\VC\Tools\MSVC\14.28.29333\include\xstring
;	COMDAT ??1?$basic_string@DU?$char_traits@D@std@@V?$allocator@D@2@@std@@QAE@XZ
_TEXT	SEGMENT
_this$ = -4						; size = 4
??1?$basic_string@DU?$char_traits@D@std@@V?$allocator@D@2@@std@@QAE@XZ PROC ; std::basic_string<char,std::char_traits<char>,std::allocator<char> >::~basic_string<char,std::char_traits<char>,std::allocator<char> >, COMDAT
; _this$ = ecx

; 2800 :     ~basic_string() noexcept {

  00000	55		 push	 ebp
  00001	8b ec		 mov	 ebp, esp
  00003	51		 push	 ecx
  00004	89 4d fc	 mov	 DWORD PTR _this$[ebp], ecx

; 2801 :         _Tidy_deallocate();

  00007	8b 4d fc	 mov	 ecx, DWORD PTR _this$[ebp]
  0000a	e8 00 00 00 00	 call	 ?_Tidy_deallocate@?$basic_string@DU?$char_traits@D@std@@V?$allocator@D@2@@std@@AAEXXZ ; std::basic_string<char,std::char_traits<char>,std::allocator<char> >::_Tidy_deallocate

; 2802 : #if _ITERATOR_DEBUG_LEVEL != 0
; 2803 :         auto&& _Alproxy          = _GET_PROXY_ALLOCATOR(_Alty, _Getal());
; 2804 :         const auto _To_delete    = _Mypair._Myval2._Myproxy;
; 2805 :         _Mypair._Myval2._Myproxy = nullptr;
; 2806 :         _Delete_plain_internal(_Alproxy, _To_delete);
; 2807 : #endif // _ITERATOR_DEBUG_LEVEL != 0
; 2808 :     }

  0000f	c9		 leave
  00010	c3		 ret	 0
??1?$basic_string@DU?$char_traits@D@std@@V?$allocator@D@2@@std@@QAE@XZ ENDP ; std::basic_string<char,std::char_traits<char>,std::allocator<char> >::~basic_string<char,std::char_traits<char>,std::allocator<char> >
_TEXT	ENDS
; Function compile flags: /Odspy
; File C:\Program Files (x86)\Microsoft Visual Studio\2019\Community\VC\Tools\MSVC\14.28.29333\include\xstring
; File C:\Program Files (x86)\Microsoft Visual Studio\2019\Community\VC\Tools\MSVC\14.28.29333\include\xmemory
; File C:\Program Files (x86)\Microsoft Visual Studio\2019\Community\VC\Tools\MSVC\14.28.29333\include\xstring
; File C:\Program Files (x86)\Microsoft Visual Studio\2019\Community\VC\Tools\MSVC\14.28.29333\include\xmemory
; File C:\Program Files (x86)\Microsoft Visual Studio\2019\Community\VC\Tools\MSVC\14.28.29333\include\xstring
;	COMDAT ??0?$basic_string@DU?$char_traits@D@std@@V?$allocator@D@2@@std@@QAE@QBD@Z
_TEXT	SEGMENT
__Alproxy$ = -40					; size = 4
$T2 = -36						; size = 4
$T3 = -32						; size = 4
_this$ = -28						; size = 4
_this$ = -24						; size = 4
_this$ = -20						; size = 4
_$S6$ = -13						; size = 1
__$EHRec$ = -12						; size = 12
__Ptr$ = 8						; size = 4
??0?$basic_string@DU?$char_traits@D@std@@V?$allocator@D@2@@std@@QAE@QBD@Z PROC ; std::basic_string<char,std::char_traits<char>,std::allocator<char> >::basic_string<char,std::char_traits<char>,std::allocator<char> >, COMDAT
; _this$ = ecx

; 2413 :     basic_string(_In_z_ const _Elem* const _Ptr) : _Mypair(_Zero_then_variadic_args_t{}) {

  00000	55		 push	 ebp
  00001	8b ec		 mov	 ebp, esp
  00003	6a ff		 push	 -1
  00005	68 00 00 00 00	 push	 __ehhandler$??0?$basic_string@DU?$char_traits@D@std@@V?$allocator@D@2@@std@@QAE@QBD@Z
  0000a	64 a1 00 00 00
	00		 mov	 eax, DWORD PTR fs:0
  00010	50		 push	 eax
  00011	83 ec 1c	 sub	 esp, 28			; 0000001cH
  00014	a1 00 00 00 00	 mov	 eax, DWORD PTR ___security_cookie
  00019	33 c5		 xor	 eax, ebp
  0001b	50		 push	 eax
  0001c	8d 45 f4	 lea	 eax, DWORD PTR __$EHRec$[ebp]
  0001f	64 a3 00 00 00
	00		 mov	 DWORD PTR fs:0, eax
  00025	89 4d ec	 mov	 DWORD PTR _this$[ebp], ecx
  00028	8b 45 ec	 mov	 eax, DWORD PTR _this$[ebp]
  0002b	89 45 e4	 mov	 DWORD PTR _this$[ebp], eax
; File C:\Program Files (x86)\Microsoft Visual Studio\2019\Community\VC\Tools\MSVC\14.28.29333\include\xmemory

; 1339 :         : _Ty1(), _Myval2(_STD forward<_Other2>(_Val2)...) {}

  0002e	8b 45 e4	 mov	 eax, DWORD PTR _this$[ebp]
  00031	89 45 e8	 mov	 DWORD PTR _this$[ebp], eax
; File C:\Program Files (x86)\Microsoft Visual Studio\2019\Community\VC\Tools\MSVC\14.28.29333\include\xstring

; 2198 :     _String_val() noexcept : _Bx(), _Mysize(0), _Myres(0) {}

  00034	8b 45 e8	 mov	 eax, DWORD PTR _this$[ebp]
  00037	83 60 10 00	 and	 DWORD PTR [eax+16], 0
  0003b	8b 45 e8	 mov	 eax, DWORD PTR _this$[ebp]
  0003e	83 60 14 00	 and	 DWORD PTR [eax+20], 0

; 2413 :     basic_string(_In_z_ const _Elem* const _Ptr) : _Mypair(_Zero_then_variadic_args_t{}) {

  00042	83 65 fc 00	 and	 DWORD PTR __$EHRec$[ebp+8], 0

; 2414 :         auto&& _Alproxy = _GET_PROXY_ALLOCATOR(_Alty, _Getal());

  00046	8d 45 f3	 lea	 eax, DWORD PTR _$S6$[ebp]
  00049	89 45 d8	 mov	 DWORD PTR __Alproxy$[ebp], eax

; 2415 :         _Container_proxy_ptr<_Alty> _Proxy(_Alproxy, _Mypair._Myval2);
; 2416 :         _Tidy_init();

  0004c	8b 4d ec	 mov	 ecx, DWORD PTR _this$[ebp]
  0004f	e8 00 00 00 00	 call	 ?_Tidy_init@?$basic_string@DU?$char_traits@D@std@@V?$allocator@D@2@@std@@AAEXXZ ; std::basic_string<char,std::char_traits<char>,std::allocator<char> >::_Tidy_init

; 389  :         return _CSTD strlen(reinterpret_cast<const char*>(_First));

  00054	ff 75 08	 push	 DWORD PTR __Ptr$[ebp]
  00057	e8 00 00 00 00	 call	 _strlen
  0005c	59		 pop	 ecx
  0005d	89 45 e0	 mov	 DWORD PTR $T3[ebp], eax
; File C:\Program Files (x86)\Microsoft Visual Studio\2019\Community\VC\Tools\MSVC\14.28.29333\include\xmemory

; 997  :     return _Len;

  00060	8b 45 e0	 mov	 eax, DWORD PTR $T3[ebp]
  00063	89 45 dc	 mov	 DWORD PTR $T2[ebp], eax
; File C:\Program Files (x86)\Microsoft Visual Studio\2019\Community\VC\Tools\MSVC\14.28.29333\include\xstring

; 3062 :         return assign(_Ptr, _Convert_size<size_type>(_Traits::length(_Ptr)));

  00066	ff 75 dc	 push	 DWORD PTR $T2[ebp]
  00069	ff 75 08	 push	 DWORD PTR __Ptr$[ebp]
  0006c	8b 4d ec	 mov	 ecx, DWORD PTR _this$[ebp]
  0006f	e8 00 00 00 00	 call	 ?assign@?$basic_string@DU?$char_traits@D@std@@V?$allocator@D@2@@std@@QAEAAV12@QBDI@Z ; std::basic_string<char,std::char_traits<char>,std::allocator<char> >::assign

; 2417 :         assign(_Ptr);
; 2418 :         _Proxy._Release();
; 2419 :     }

  00074	83 4d fc ff	 or	 DWORD PTR __$EHRec$[ebp+8], -1
  00078	8b 45 ec	 mov	 eax, DWORD PTR _this$[ebp]
  0007b	8b 4d f4	 mov	 ecx, DWORD PTR __$EHRec$[ebp]
  0007e	64 89 0d 00 00
	00 00		 mov	 DWORD PTR fs:0, ecx
  00085	59		 pop	 ecx
  00086	c9		 leave
  00087	c2 04 00	 ret	 4
_TEXT	ENDS
;	COMDAT text$x
text$x	SEGMENT
__unwindfunclet$??0?$basic_string@DU?$char_traits@D@std@@V?$allocator@D@2@@std@@QAE@QBD@Z$0:
  00000	8b 4d ec	 mov	 ecx, DWORD PTR _this$[ebp]
  00003	e9 00 00 00 00	 jmp	 ??1?$_Compressed_pair@V?$allocator@D@std@@V?$_String_val@U?$_Simple_types@D@std@@@2@$00@std@@QAE@XZ
  00008	cc		 int	 3
  00009	cc		 int	 3
  0000a	cc		 int	 3
  0000b	cc		 int	 3
  0000c	cc		 int	 3
__ehhandler$??0?$basic_string@DU?$char_traits@D@std@@V?$allocator@D@2@@std@@QAE@QBD@Z:
  0000d	90		 npad	 1
  0000e	90		 npad	 1
  0000f	8b 54 24 08	 mov	 edx, DWORD PTR [esp+8]
  00013	8d 42 0c	 lea	 eax, DWORD PTR [edx+12]
  00016	8b 4a e0	 mov	 ecx, DWORD PTR [edx-32]
  00019	33 c8		 xor	 ecx, eax
  0001b	e8 00 00 00 00	 call	 @__security_check_cookie@4
  00020	b8 00 00 00 00	 mov	 eax, OFFSET __ehfuncinfo$??0?$basic_string@DU?$char_traits@D@std@@V?$allocator@D@2@@std@@QAE@QBD@Z
  00025	e9 00 00 00 00	 jmp	 ___CxxFrameHandler3
text$x	ENDS
??0?$basic_string@DU?$char_traits@D@std@@V?$allocator@D@2@@std@@QAE@QBD@Z ENDP ; std::basic_string<char,std::char_traits<char>,std::allocator<char> >::basic_string<char,std::char_traits<char>,std::allocator<char> >
; Function compile flags: /Odspy
; File C:\Program Files (x86)\Microsoft Visual Studio\2019\Community\VC\Tools\MSVC\14.28.29333\include\xstring
; File C:\Program Files (x86)\Microsoft Visual Studio\2019\Community\VC\Tools\MSVC\14.28.29333\include\xstddef
; File C:\Program Files (x86)\Microsoft Visual Studio\2019\Community\VC\Tools\MSVC\14.28.29333\include\xstring
;	COMDAT ?_Myptr@?$_String_val@U?$_Simple_types@D@std@@@std@@QBEPBDXZ
_TEXT	SEGMENT
__Ptr$ = -20						; size = 4
__Result$ = -16						; size = 4
tv76 = -12						; size = 4
_this$ = -8						; size = 4
$T1 = -1						; size = 1
?_Myptr@?$_String_val@U?$_Simple_types@D@std@@@std@@QBEPBDXZ PROC ; std::_String_val<std::_Simple_types<char> >::_Myptr, COMDAT
; _this$ = ecx

; 2217 :     const value_type* _Myptr() const noexcept {

  00000	55		 push	 ebp
  00001	8b ec		 mov	 ebp, esp
  00003	83 ec 14	 sub	 esp, 20			; 00000014H
  00006	89 4d f8	 mov	 DWORD PTR _this$[ebp], ecx

; 2218 :         const value_type* _Result = _Bx._Buf;

  00009	8b 45 f8	 mov	 eax, DWORD PTR _this$[ebp]
  0000c	89 45 f0	 mov	 DWORD PTR __Result$[ebp], eax

; 2227 :         return _BUF_SIZE <= _Myres;

  0000f	8b 45 f8	 mov	 eax, DWORD PTR _this$[ebp]
  00012	83 78 14 10	 cmp	 DWORD PTR [eax+20], 16	; 00000010H
  00016	72 09		 jb	 SHORT $LN6@Myptr
  00018	c7 45 f4 01 00
	00 00		 mov	 DWORD PTR tv76[ebp], 1
  0001f	eb 04		 jmp	 SHORT $LN7@Myptr
$LN6@Myptr:
  00021	83 65 f4 00	 and	 DWORD PTR tv76[ebp], 0
$LN7@Myptr:
  00025	8a 45 f4	 mov	 al, BYTE PTR tv76[ebp]
  00028	88 45 ff	 mov	 BYTE PTR $T1[ebp], al

; 2219 :         if (_Large_string_engaged()) {

  0002b	0f b6 45 ff	 movzx	 eax, BYTE PTR $T1[ebp]
  0002f	85 c0		 test	 eax, eax
  00031	74 0e		 je	 SHORT $LN2@Myptr

; 2220 :             _Result = _Unfancy(_Bx._Ptr);

  00033	8b 45 f8	 mov	 eax, DWORD PTR _this$[ebp]
  00036	8b 00		 mov	 eax, DWORD PTR [eax]
  00038	89 45 ec	 mov	 DWORD PTR __Ptr$[ebp], eax
; File C:\Program Files (x86)\Microsoft Visual Studio\2019\Community\VC\Tools\MSVC\14.28.29333\include\xstddef

; 289  :     return _Ptr;

  0003b	8b 45 ec	 mov	 eax, DWORD PTR __Ptr$[ebp]
  0003e	89 45 f0	 mov	 DWORD PTR __Result$[ebp], eax
$LN2@Myptr:
; File C:\Program Files (x86)\Microsoft Visual Studio\2019\Community\VC\Tools\MSVC\14.28.29333\include\xstring

; 2223 :         return _Result;

  00041	8b 45 f0	 mov	 eax, DWORD PTR __Result$[ebp]

; 2224 :     }

  00044	c9		 leave
  00045	c3		 ret	 0
?_Myptr@?$_String_val@U?$_Simple_types@D@std@@@std@@QBEPBDXZ ENDP ; std::_String_val<std::_Simple_types<char> >::_Myptr
_TEXT	ENDS
; Function compile flags: /Odspy
; File C:\Program Files (x86)\Microsoft Visual Studio\2019\Community\VC\Tools\MSVC\14.28.29333\include\xstring
; File C:\Program Files (x86)\Microsoft Visual Studio\2019\Community\VC\Tools\MSVC\14.28.29333\include\xstddef
; File C:\Program Files (x86)\Microsoft Visual Studio\2019\Community\VC\Tools\MSVC\14.28.29333\include\xstring
;	COMDAT ?_Myptr@?$_String_val@U?$_Simple_types@D@std@@@std@@QAEPADXZ
_TEXT	SEGMENT
__Ptr$ = -20						; size = 4
__Result$ = -16						; size = 4
tv76 = -12						; size = 4
_this$ = -8						; size = 4
$T1 = -1						; size = 1
?_Myptr@?$_String_val@U?$_Simple_types@D@std@@@std@@QAEPADXZ PROC ; std::_String_val<std::_Simple_types<char> >::_Myptr, COMDAT
; _this$ = ecx

; 2208 :     value_type* _Myptr() noexcept {

  00000	55		 push	 ebp
  00001	8b ec		 mov	 ebp, esp
  00003	83 ec 14	 sub	 esp, 20			; 00000014H
  00006	89 4d f8	 mov	 DWORD PTR _this$[ebp], ecx

; 2209 :         value_type* _Result = _Bx._Buf;

  00009	8b 45 f8	 mov	 eax, DWORD PTR _this$[ebp]
  0000c	89 45 f0	 mov	 DWORD PTR __Result$[ebp], eax

; 2227 :         return _BUF_SIZE <= _Myres;

  0000f	8b 45 f8	 mov	 eax, DWORD PTR _this$[ebp]
  00012	83 78 14 10	 cmp	 DWORD PTR [eax+20], 16	; 00000010H
  00016	72 09		 jb	 SHORT $LN6@Myptr
  00018	c7 45 f4 01 00
	00 00		 mov	 DWORD PTR tv76[ebp], 1
  0001f	eb 04		 jmp	 SHORT $LN7@Myptr
$LN6@Myptr:
  00021	83 65 f4 00	 and	 DWORD PTR tv76[ebp], 0
$LN7@Myptr:
  00025	8a 45 f4	 mov	 al, BYTE PTR tv76[ebp]
  00028	88 45 ff	 mov	 BYTE PTR $T1[ebp], al

; 2210 :         if (_Large_string_engaged()) {

  0002b	0f b6 45 ff	 movzx	 eax, BYTE PTR $T1[ebp]
  0002f	85 c0		 test	 eax, eax
  00031	74 0e		 je	 SHORT $LN2@Myptr

; 2211 :             _Result = _Unfancy(_Bx._Ptr);

  00033	8b 45 f8	 mov	 eax, DWORD PTR _this$[ebp]
  00036	8b 00		 mov	 eax, DWORD PTR [eax]
  00038	89 45 ec	 mov	 DWORD PTR __Ptr$[ebp], eax
; File C:\Program Files (x86)\Microsoft Visual Studio\2019\Community\VC\Tools\MSVC\14.28.29333\include\xstddef

; 289  :     return _Ptr;

  0003b	8b 45 ec	 mov	 eax, DWORD PTR __Ptr$[ebp]
  0003e	89 45 f0	 mov	 DWORD PTR __Result$[ebp], eax
$LN2@Myptr:
; File C:\Program Files (x86)\Microsoft Visual Studio\2019\Community\VC\Tools\MSVC\14.28.29333\include\xstring

; 2214 :         return _Result;

  00041	8b 45 f0	 mov	 eax, DWORD PTR __Result$[ebp]

; 2215 :     }

  00044	c9		 leave
  00045	c3		 ret	 0
?_Myptr@?$_String_val@U?$_Simple_types@D@std@@@std@@QAEPADXZ ENDP ; std::_String_val<std::_Simple_types<char> >::_Myptr
_TEXT	ENDS
; Function compile flags: /Odspy
; File C:\Program Files (x86)\Microsoft Visual Studio\2019\Community\VC\Tools\MSVC\14.28.29333\include\xstring
;	COMDAT ?_Xlen_string@std@@YAXXZ
_TEXT	SEGMENT
?_Xlen_string@std@@YAXXZ PROC				; std::_Xlen_string, COMDAT

; 2274 : [[noreturn]] inline void _Xlen_string() {

  00000	55		 push	 ebp
  00001	8b ec		 mov	 ebp, esp

; 2275 :     _Xlength_error("string too long");

  00003	68 00 00 00 00	 push	 OFFSET ??_C@_0BA@JFNIOLAK@string?5too?5long@
  00008	e8 00 00 00 00	 call	 ?_Xlength_error@std@@YAXPBD@Z ; std::_Xlength_error
$LN2@Xlen_strin:

; 2276 : }

  0000d	5d		 pop	 ebp
  0000e	c3		 ret	 0
?_Xlen_string@std@@YAXXZ ENDP				; std::_Xlen_string
_TEXT	ENDS
; Function compile flags: /Odspy
; File C:\Program Files (x86)\Microsoft Visual Studio\2019\Community\VC\Tools\MSVC\14.28.29333\include\xmemory
;	COMDAT ?_Adjust_manually_vector_aligned@std@@YAXAAPAXAAI@Z
_TEXT	SEGMENT
__Min_back_shift$ = -16					; size = 4
__Ptr_user$ = -12					; size = 4
__Ptr_container$ = -8					; size = 4
__Back_shift$ = -4					; size = 4
__Ptr$ = 8						; size = 4
__Bytes$ = 12						; size = 4
?_Adjust_manually_vector_aligned@std@@YAXAAPAXAAI@Z PROC ; std::_Adjust_manually_vector_aligned, COMDAT

; 132  : inline void _Adjust_manually_vector_aligned(void*& _Ptr, size_t& _Bytes) {

  00000	55		 push	 ebp
  00001	8b ec		 mov	 ebp, esp
  00003	83 ec 10	 sub	 esp, 16			; 00000010H

; 133  :     // adjust parameters from _Allocate_manually_vector_aligned to pass to operator delete
; 134  :     _Bytes += _Non_user_size;

  00006	8b 45 0c	 mov	 eax, DWORD PTR __Bytes$[ebp]
  00009	8b 00		 mov	 eax, DWORD PTR [eax]
  0000b	83 c0 23	 add	 eax, 35			; 00000023H
  0000e	8b 4d 0c	 mov	 ecx, DWORD PTR __Bytes$[ebp]
  00011	89 01		 mov	 DWORD PTR [ecx], eax

; 135  : 
; 136  :     const uintptr_t* const _Ptr_user = reinterpret_cast<uintptr_t*>(_Ptr);

  00013	8b 45 08	 mov	 eax, DWORD PTR __Ptr$[ebp]
  00016	8b 00		 mov	 eax, DWORD PTR [eax]
  00018	89 45 f4	 mov	 DWORD PTR __Ptr_user$[ebp], eax

; 137  :     const uintptr_t _Ptr_container   = _Ptr_user[-1];

  0001b	6a 04		 push	 4
  0001d	58		 pop	 eax
  0001e	6b c0 ff	 imul	 eax, eax, -1
  00021	8b 4d f4	 mov	 ecx, DWORD PTR __Ptr_user$[ebp]
  00024	8b 04 01	 mov	 eax, DWORD PTR [ecx+eax]
  00027	89 45 f8	 mov	 DWORD PTR __Ptr_container$[ebp], eax

; 138  : 
; 139  :     // If the following asserts, it likely means that we are performing
; 140  :     // an aligned delete on memory coming from an unaligned allocation.
; 141  :     _STL_ASSERT(_Ptr_user[-2] == _Big_allocation_sentinel, "invalid argument");
; 142  : 
; 143  :     // Extra paranoia on aligned allocation/deallocation; ensure _Ptr_container is
; 144  :     // in range [_Min_back_shift, _Non_user_size]
; 145  : #ifdef _DEBUG
; 146  :     constexpr uintptr_t _Min_back_shift = 2 * sizeof(void*);
; 147  : #else // ^^^ _DEBUG ^^^ // vvv !_DEBUG vvv
; 148  :     constexpr uintptr_t _Min_back_shift = sizeof(void*);

  0002a	c7 45 f0 04 00
	00 00		 mov	 DWORD PTR __Min_back_shift$[ebp], 4

; 149  : #endif // _DEBUG
; 150  :     const uintptr_t _Back_shift = reinterpret_cast<uintptr_t>(_Ptr) - _Ptr_container;

  00031	8b 45 08	 mov	 eax, DWORD PTR __Ptr$[ebp]
  00034	8b 00		 mov	 eax, DWORD PTR [eax]
  00036	2b 45 f8	 sub	 eax, DWORD PTR __Ptr_container$[ebp]
  00039	89 45 fc	 mov	 DWORD PTR __Back_shift$[ebp], eax
$LN4@Adjust_man:

; 151  :     _STL_VERIFY(_Back_shift >= _Min_back_shift && _Back_shift <= _Non_user_size, "invalid argument");

  0003c	83 7d fc 04	 cmp	 DWORD PTR __Back_shift$[ebp], 4
  00040	72 08		 jb	 SHORT $LN7@Adjust_man
  00042	83 7d fc 23	 cmp	 DWORD PTR __Back_shift$[ebp], 35 ; 00000023H
  00046	77 02		 ja	 SHORT $LN7@Adjust_man
  00048	eb 09		 jmp	 SHORT $LN2@Adjust_man
$LN7@Adjust_man:
  0004a	e8 00 00 00 00	 call	 __invalid_parameter_noinfo_noreturn
  0004f	33 c0		 xor	 eax, eax
  00051	75 f7		 jne	 SHORT $LN7@Adjust_man
$LN2@Adjust_man:
  00053	33 c0		 xor	 eax, eax
  00055	75 e5		 jne	 SHORT $LN4@Adjust_man

; 152  :     _Ptr = reinterpret_cast<void*>(_Ptr_container);

  00057	8b 45 08	 mov	 eax, DWORD PTR __Ptr$[ebp]
  0005a	8b 4d f8	 mov	 ecx, DWORD PTR __Ptr_container$[ebp]
  0005d	89 08		 mov	 DWORD PTR [eax], ecx
$LN10@Adjust_man:

; 153  : }

  0005f	c9		 leave
  00060	c3		 ret	 0
?_Adjust_manually_vector_aligned@std@@YAXAAPAXAAI@Z ENDP ; std::_Adjust_manually_vector_aligned
_TEXT	ENDS
; Function compile flags: /Odspy
; File C:\Program Files (x86)\Microsoft Visual Studio\2019\Community\VC\Tools\MSVC\14.28.29333\include\exception
;	COMDAT ?_Throw_bad_array_new_length@std@@YAXXZ
_TEXT	SEGMENT
$T1 = -12						; size = 12
?_Throw_bad_array_new_length@std@@YAXXZ PROC		; std::_Throw_bad_array_new_length, COMDAT

; 320  : [[noreturn]] inline void _Throw_bad_array_new_length() {

  00000	55		 push	 ebp
  00001	8b ec		 mov	 ebp, esp
  00003	83 ec 0c	 sub	 esp, 12			; 0000000cH

; 321  :     _THROW(bad_array_new_length{});

  00006	8d 4d f4	 lea	 ecx, DWORD PTR $T1[ebp]
  00009	e8 00 00 00 00	 call	 ??0bad_array_new_length@std@@QAE@XZ ; std::bad_array_new_length::bad_array_new_length
  0000e	68 00 00 00 00	 push	 OFFSET __TI3?AVbad_array_new_length@std@@
  00013	8d 45 f4	 lea	 eax, DWORD PTR $T1[ebp]
  00016	50		 push	 eax
  00017	e8 00 00 00 00	 call	 __CxxThrowException@8
$LN2@Throw_bad_:

; 322  : }

  0001c	c9		 leave
  0001d	c3		 ret	 0
?_Throw_bad_array_new_length@std@@YAXXZ ENDP		; std::_Throw_bad_array_new_length
_TEXT	ENDS
; Function compile flags: /Odspy
; File C:\Program Files (x86)\Microsoft Visual Studio\2019\Community\VC\Tools\MSVC\14.28.29333\include\vcruntime_exception.h
;	COMDAT ??_Gbad_array_new_length@std@@UAEPAXI@Z
_TEXT	SEGMENT
_this$ = -4						; size = 4
___flags$ = 8						; size = 4
??_Gbad_array_new_length@std@@UAEPAXI@Z PROC		; std::bad_array_new_length::`scalar deleting destructor', COMDAT
; _this$ = ecx
  00000	55		 push	 ebp
  00001	8b ec		 mov	 ebp, esp
  00003	51		 push	 ecx
  00004	89 4d fc	 mov	 DWORD PTR _this$[ebp], ecx

; 89   :     {

  00007	8b 45 fc	 mov	 eax, DWORD PTR _this$[ebp]
  0000a	c7 00 00 00 00
	00		 mov	 DWORD PTR [eax], OFFSET ??_7exception@std@@6B@

; 90   :         __std_exception_destroy(&_Data);

  00010	8b 45 fc	 mov	 eax, DWORD PTR _this$[ebp]
  00013	83 c0 04	 add	 eax, 4
  00016	50		 push	 eax
  00017	e8 00 00 00 00	 call	 ___std_exception_destroy
  0001c	59		 pop	 ecx
  0001d	8b 45 08	 mov	 eax, DWORD PTR ___flags$[ebp]
  00020	83 e0 01	 and	 eax, 1
  00023	74 0c		 je	 SHORT $LN2@scalar
  00025	6a 0c		 push	 12			; 0000000cH
  00027	ff 75 fc	 push	 DWORD PTR _this$[ebp]
  0002a	e8 00 00 00 00	 call	 ??3@YAXPAXI@Z		; operator delete
  0002f	59		 pop	 ecx
  00030	59		 pop	 ecx
$LN2@scalar:
  00031	8b 45 fc	 mov	 eax, DWORD PTR _this$[ebp]
  00034	c9		 leave
  00035	c2 04 00	 ret	 4
??_Gbad_array_new_length@std@@UAEPAXI@Z ENDP		; std::bad_array_new_length::`scalar deleting destructor'
_TEXT	ENDS
; Function compile flags: /Odspy
;	COMDAT ??0bad_array_new_length@std@@QAE@ABV01@@Z
_TEXT	SEGMENT
_this$ = -4						; size = 4
___that$ = 8						; size = 4
??0bad_array_new_length@std@@QAE@ABV01@@Z PROC		; std::bad_array_new_length::bad_array_new_length, COMDAT
; _this$ = ecx
  00000	55		 push	 ebp
  00001	8b ec		 mov	 ebp, esp
  00003	51		 push	 ecx
  00004	89 4d fc	 mov	 DWORD PTR _this$[ebp], ecx
  00007	ff 75 08	 push	 DWORD PTR ___that$[ebp]
  0000a	8b 4d fc	 mov	 ecx, DWORD PTR _this$[ebp]
  0000d	e8 00 00 00 00	 call	 ??0exception@std@@QAE@ABV01@@Z ; std::exception::exception
  00012	8b 45 fc	 mov	 eax, DWORD PTR _this$[ebp]
  00015	c7 00 00 00 00
	00		 mov	 DWORD PTR [eax], OFFSET ??_7bad_alloc@std@@6B@
  0001b	8b 45 fc	 mov	 eax, DWORD PTR _this$[ebp]
  0001e	c7 00 00 00 00
	00		 mov	 DWORD PTR [eax], OFFSET ??_7bad_array_new_length@std@@6B@
  00024	8b 45 fc	 mov	 eax, DWORD PTR _this$[ebp]
  00027	c9		 leave
  00028	c2 04 00	 ret	 4
??0bad_array_new_length@std@@QAE@ABV01@@Z ENDP		; std::bad_array_new_length::bad_array_new_length
_TEXT	ENDS
; Function compile flags: /Odspy
; File C:\Program Files (x86)\Microsoft Visual Studio\2019\Community\VC\Tools\MSVC\14.28.29333\include\vcruntime_exception.h
;	COMDAT ??1bad_array_new_length@std@@UAE@XZ
_TEXT	SEGMENT
_this$ = -4						; size = 4
??1bad_array_new_length@std@@UAE@XZ PROC		; std::bad_array_new_length::~bad_array_new_length, COMDAT
; _this$ = ecx
  00000	55		 push	 ebp
  00001	8b ec		 mov	 ebp, esp
  00003	51		 push	 ecx
  00004	89 4d fc	 mov	 DWORD PTR _this$[ebp], ecx

; 89   :     {

  00007	8b 45 fc	 mov	 eax, DWORD PTR _this$[ebp]
  0000a	c7 00 00 00 00
	00		 mov	 DWORD PTR [eax], OFFSET ??_7exception@std@@6B@

; 90   :         __std_exception_destroy(&_Data);

  00010	8b 45 fc	 mov	 eax, DWORD PTR _this$[ebp]
  00013	83 c0 04	 add	 eax, 4
  00016	50		 push	 eax
  00017	e8 00 00 00 00	 call	 ___std_exception_destroy
  0001c	59		 pop	 ecx
  0001d	c9		 leave
  0001e	c3		 ret	 0
??1bad_array_new_length@std@@UAE@XZ ENDP		; std::bad_array_new_length::~bad_array_new_length
_TEXT	ENDS
; Function compile flags: /Odspy
; File C:\Program Files (x86)\Microsoft Visual Studio\2019\Community\VC\Tools\MSVC\14.28.29333\include\vcruntime_exception.h
;	COMDAT ??0bad_array_new_length@std@@QAE@XZ
_TEXT	SEGMENT
_this$ = -4						; size = 4
??0bad_array_new_length@std@@QAE@XZ PROC		; std::bad_array_new_length::bad_array_new_length, COMDAT
; _this$ = ecx

; 141  :     {

  00000	55		 push	 ebp
  00001	8b ec		 mov	 ebp, esp
  00003	51		 push	 ecx
  00004	89 4d fc	 mov	 DWORD PTR _this$[ebp], ecx

; 66   :     {

  00007	8b 45 fc	 mov	 eax, DWORD PTR _this$[ebp]
  0000a	c7 00 00 00 00
	00		 mov	 DWORD PTR [eax], OFFSET ??_7exception@std@@6B@

; 65   :         : _Data()

  00010	33 c0		 xor	 eax, eax
  00012	8b 4d fc	 mov	 ecx, DWORD PTR _this$[ebp]
  00015	83 c1 04	 add	 ecx, 4
  00018	89 01		 mov	 DWORD PTR [ecx], eax
  0001a	89 41 04	 mov	 DWORD PTR [ecx+4], eax

; 67   :         _Data._What = _Message;

  0001d	8b 45 fc	 mov	 eax, DWORD PTR _this$[ebp]
  00020	c7 40 04 00 00
	00 00		 mov	 DWORD PTR [eax+4], OFFSET ??_C@_0BF@KINCDENJ@bad?5array?5new?5length@

; 130  :     {

  00027	8b 45 fc	 mov	 eax, DWORD PTR _this$[ebp]
  0002a	c7 00 00 00 00
	00		 mov	 DWORD PTR [eax], OFFSET ??_7bad_alloc@std@@6B@

; 141  :     {

  00030	8b 45 fc	 mov	 eax, DWORD PTR _this$[ebp]
  00033	c7 00 00 00 00
	00		 mov	 DWORD PTR [eax], OFFSET ??_7bad_array_new_length@std@@6B@

; 142  :     }

  00039	8b 45 fc	 mov	 eax, DWORD PTR _this$[ebp]
  0003c	c9		 leave
  0003d	c3		 ret	 0
??0bad_array_new_length@std@@QAE@XZ ENDP		; std::bad_array_new_length::bad_array_new_length
_TEXT	ENDS
; Function compile flags: /Odspy
; File C:\Program Files (x86)\Microsoft Visual Studio\2019\Community\VC\Tools\MSVC\14.28.29333\include\vcruntime_exception.h
;	COMDAT ??_Gbad_alloc@std@@UAEPAXI@Z
_TEXT	SEGMENT
_this$ = -4						; size = 4
___flags$ = 8						; size = 4
??_Gbad_alloc@std@@UAEPAXI@Z PROC			; std::bad_alloc::`scalar deleting destructor', COMDAT
; _this$ = ecx
  00000	55		 push	 ebp
  00001	8b ec		 mov	 ebp, esp
  00003	51		 push	 ecx
  00004	89 4d fc	 mov	 DWORD PTR _this$[ebp], ecx

; 89   :     {

  00007	8b 45 fc	 mov	 eax, DWORD PTR _this$[ebp]
  0000a	c7 00 00 00 00
	00		 mov	 DWORD PTR [eax], OFFSET ??_7exception@std@@6B@

; 90   :         __std_exception_destroy(&_Data);

  00010	8b 45 fc	 mov	 eax, DWORD PTR _this$[ebp]
  00013	83 c0 04	 add	 eax, 4
  00016	50		 push	 eax
  00017	e8 00 00 00 00	 call	 ___std_exception_destroy
  0001c	59		 pop	 ecx
  0001d	8b 45 08	 mov	 eax, DWORD PTR ___flags$[ebp]
  00020	83 e0 01	 and	 eax, 1
  00023	74 0c		 je	 SHORT $LN2@scalar
  00025	6a 0c		 push	 12			; 0000000cH
  00027	ff 75 fc	 push	 DWORD PTR _this$[ebp]
  0002a	e8 00 00 00 00	 call	 ??3@YAXPAXI@Z		; operator delete
  0002f	59		 pop	 ecx
  00030	59		 pop	 ecx
$LN2@scalar:
  00031	8b 45 fc	 mov	 eax, DWORD PTR _this$[ebp]
  00034	c9		 leave
  00035	c2 04 00	 ret	 4
??_Gbad_alloc@std@@UAEPAXI@Z ENDP			; std::bad_alloc::`scalar deleting destructor'
_TEXT	ENDS
; Function compile flags: /Odspy
;	COMDAT ??0bad_alloc@std@@QAE@ABV01@@Z
_TEXT	SEGMENT
_this$ = -4						; size = 4
___that$ = 8						; size = 4
??0bad_alloc@std@@QAE@ABV01@@Z PROC			; std::bad_alloc::bad_alloc, COMDAT
; _this$ = ecx
  00000	55		 push	 ebp
  00001	8b ec		 mov	 ebp, esp
  00003	51		 push	 ecx
  00004	89 4d fc	 mov	 DWORD PTR _this$[ebp], ecx
  00007	ff 75 08	 push	 DWORD PTR ___that$[ebp]
  0000a	8b 4d fc	 mov	 ecx, DWORD PTR _this$[ebp]
  0000d	e8 00 00 00 00	 call	 ??0exception@std@@QAE@ABV01@@Z ; std::exception::exception
  00012	8b 45 fc	 mov	 eax, DWORD PTR _this$[ebp]
  00015	c7 00 00 00 00
	00		 mov	 DWORD PTR [eax], OFFSET ??_7bad_alloc@std@@6B@
  0001b	8b 45 fc	 mov	 eax, DWORD PTR _this$[ebp]
  0001e	c9		 leave
  0001f	c2 04 00	 ret	 4
??0bad_alloc@std@@QAE@ABV01@@Z ENDP			; std::bad_alloc::bad_alloc
_TEXT	ENDS
; Function compile flags: /Odspy
; File C:\Program Files (x86)\Microsoft Visual Studio\2019\Community\VC\Tools\MSVC\14.28.29333\include\vcruntime_exception.h
;	COMDAT ??_Gexception@std@@UAEPAXI@Z
_TEXT	SEGMENT
_this$ = -4						; size = 4
___flags$ = 8						; size = 4
??_Gexception@std@@UAEPAXI@Z PROC			; std::exception::`scalar deleting destructor', COMDAT
; _this$ = ecx
  00000	55		 push	 ebp
  00001	8b ec		 mov	 ebp, esp
  00003	51		 push	 ecx
  00004	89 4d fc	 mov	 DWORD PTR _this$[ebp], ecx

; 89   :     {

  00007	8b 45 fc	 mov	 eax, DWORD PTR _this$[ebp]
  0000a	c7 00 00 00 00
	00		 mov	 DWORD PTR [eax], OFFSET ??_7exception@std@@6B@

; 90   :         __std_exception_destroy(&_Data);

  00010	8b 45 fc	 mov	 eax, DWORD PTR _this$[ebp]
  00013	83 c0 04	 add	 eax, 4
  00016	50		 push	 eax
  00017	e8 00 00 00 00	 call	 ___std_exception_destroy
  0001c	59		 pop	 ecx
  0001d	8b 45 08	 mov	 eax, DWORD PTR ___flags$[ebp]
  00020	83 e0 01	 and	 eax, 1
  00023	74 0c		 je	 SHORT $LN2@scalar
  00025	6a 0c		 push	 12			; 0000000cH
  00027	ff 75 fc	 push	 DWORD PTR _this$[ebp]
  0002a	e8 00 00 00 00	 call	 ??3@YAXPAXI@Z		; operator delete
  0002f	59		 pop	 ecx
  00030	59		 pop	 ecx
$LN2@scalar:
  00031	8b 45 fc	 mov	 eax, DWORD PTR _this$[ebp]
  00034	c9		 leave
  00035	c2 04 00	 ret	 4
??_Gexception@std@@UAEPAXI@Z ENDP			; std::exception::`scalar deleting destructor'
_TEXT	ENDS
; Function compile flags: /Odspy
; File C:\Program Files (x86)\Microsoft Visual Studio\2019\Community\VC\Tools\MSVC\14.28.29333\include\vcruntime_exception.h
;	COMDAT ?what@exception@std@@UBEPBDXZ
_TEXT	SEGMENT
tv69 = -8						; size = 4
_this$ = -4						; size = 4
?what@exception@std@@UBEPBDXZ PROC			; std::exception::what, COMDAT
; _this$ = ecx

; 94   :     {

  00000	55		 push	 ebp
  00001	8b ec		 mov	 ebp, esp
  00003	51		 push	 ecx
  00004	51		 push	 ecx
  00005	89 4d fc	 mov	 DWORD PTR _this$[ebp], ecx

; 95   :         return _Data._What ? _Data._What : "Unknown exception";

  00008	8b 45 fc	 mov	 eax, DWORD PTR _this$[ebp]
  0000b	83 78 04 00	 cmp	 DWORD PTR [eax+4], 0
  0000f	74 0b		 je	 SHORT $LN3@what
  00011	8b 45 fc	 mov	 eax, DWORD PTR _this$[ebp]
  00014	8b 40 04	 mov	 eax, DWORD PTR [eax+4]
  00017	89 45 f8	 mov	 DWORD PTR tv69[ebp], eax
  0001a	eb 07		 jmp	 SHORT $LN4@what
$LN3@what:
  0001c	c7 45 f8 00 00
	00 00		 mov	 DWORD PTR tv69[ebp], OFFSET ??_C@_0BC@EOODALEL@Unknown?5exception@
$LN4@what:
  00023	8b 45 f8	 mov	 eax, DWORD PTR tv69[ebp]

; 96   :     }

  00026	c9		 leave
  00027	c3		 ret	 0
?what@exception@std@@UBEPBDXZ ENDP			; std::exception::what
_TEXT	ENDS
; Function compile flags: /Odspy
; File C:\Program Files (x86)\Microsoft Visual Studio\2019\Community\VC\Tools\MSVC\14.28.29333\include\vcruntime_exception.h
;	COMDAT ??0exception@std@@QAE@ABV01@@Z
_TEXT	SEGMENT
_this$ = -4						; size = 4
__Other$ = 8						; size = 4
??0exception@std@@QAE@ABV01@@Z PROC			; std::exception::exception, COMDAT
; _this$ = ecx

; 72   :     {

  00000	55		 push	 ebp
  00001	8b ec		 mov	 ebp, esp
  00003	51		 push	 ecx
  00004	89 4d fc	 mov	 DWORD PTR _this$[ebp], ecx
  00007	8b 45 fc	 mov	 eax, DWORD PTR _this$[ebp]
  0000a	c7 00 00 00 00
	00		 mov	 DWORD PTR [eax], OFFSET ??_7exception@std@@6B@

; 71   :         : _Data()

  00010	33 c0		 xor	 eax, eax
  00012	8b 4d fc	 mov	 ecx, DWORD PTR _this$[ebp]
  00015	83 c1 04	 add	 ecx, 4
  00018	89 01		 mov	 DWORD PTR [ecx], eax
  0001a	89 41 04	 mov	 DWORD PTR [ecx+4], eax

; 73   :         __std_exception_copy(&_Other._Data, &_Data);

  0001d	8b 45 fc	 mov	 eax, DWORD PTR _this$[ebp]
  00020	83 c0 04	 add	 eax, 4
  00023	50		 push	 eax
  00024	8b 45 08	 mov	 eax, DWORD PTR __Other$[ebp]
  00027	83 c0 04	 add	 eax, 4
  0002a	50		 push	 eax
  0002b	e8 00 00 00 00	 call	 ___std_exception_copy
  00030	59		 pop	 ecx
  00031	59		 pop	 ecx

; 74   :     }

  00032	8b 45 fc	 mov	 eax, DWORD PTR _this$[ebp]
  00035	c9		 leave
  00036	c2 04 00	 ret	 4
??0exception@std@@QAE@ABV01@@Z ENDP			; std::exception::exception
_TEXT	ENDS
; Function compile flags: /Odspy
; File C:\Program Files (x86)\Windows Kits\10\Include\10.0.18362.0\ucrt\stdio.h
;	COMDAT __snprintf
_TEXT	SEGMENT
__Result$ = -20						; size = 4
__Format$ = -16						; size = 4
__ArgList$ = -12					; size = 4
tv86 = -8						; size = 4
__Result$1 = -4						; size = 4
__Buffer$ = 8						; size = 4
__BufferCount$ = 12					; size = 4
__Format$ = 16						; size = 4
__snprintf PROC						; COMDAT

; 1969 :     {

  00000	55		 push	 ebp
  00001	8b ec		 mov	 ebp, esp
  00003	83 ec 14	 sub	 esp, 20			; 00000014H

; 1970 :         int _Result;
; 1971 :         va_list _ArgList;
; 1972 :         __crt_va_start(_ArgList, _Format);

  00006	8d 45 14	 lea	 eax, DWORD PTR __Format$[ebp+4]
  00009	89 45 f4	 mov	 DWORD PTR __ArgList$[ebp], eax

; 1973 :     #pragma warning(suppress:28719)    // 28719
; 1974 :         _Result = _vsnprintf(_Buffer, _BufferCount, _Format, _ArgList);

  0000c	8b 45 10	 mov	 eax, DWORD PTR __Format$[ebp]
  0000f	89 45 f0	 mov	 DWORD PTR __Format$[ebp], eax

; 1390 :         int const _Result = __stdio_common_vsprintf(

  00012	ff 75 f4	 push	 DWORD PTR __ArgList$[ebp]
  00015	6a 00		 push	 0
  00017	ff 75 f0	 push	 DWORD PTR __Format$[ebp]
  0001a	ff 75 0c	 push	 DWORD PTR __BufferCount$[ebp]
  0001d	ff 75 08	 push	 DWORD PTR __Buffer$[ebp]
  00020	e8 00 00 00 00	 call	 ___local_stdio_printf_options
  00025	8b 08		 mov	 ecx, DWORD PTR [eax]
  00027	83 c9 01	 or	 ecx, 1
  0002a	8b 40 04	 mov	 eax, DWORD PTR [eax+4]
  0002d	50		 push	 eax
  0002e	51		 push	 ecx
  0002f	e8 00 00 00 00	 call	 ___stdio_common_vsprintf
  00034	83 c4 1c	 add	 esp, 28			; 0000001cH
  00037	89 45 fc	 mov	 DWORD PTR __Result$1[ebp], eax

; 1391 :             _CRT_INTERNAL_LOCAL_PRINTF_OPTIONS | _CRT_INTERNAL_PRINTF_LEGACY_VSPRINTF_NULL_TERMINATION,
; 1392 :             _Buffer, _BufferCount, _Format, _Locale, _ArgList);
; 1393 : 
; 1394 :         return _Result < 0 ? -1 : _Result;

  0003a	83 7d fc 00	 cmp	 DWORD PTR __Result$1[ebp], 0
  0003e	7d 06		 jge	 SHORT $LN7@snprintf
  00040	83 4d f8 ff	 or	 DWORD PTR tv86[ebp], -1
  00044	eb 06		 jmp	 SHORT $LN3@snprintf
$LN7@snprintf:
  00046	8b 45 fc	 mov	 eax, DWORD PTR __Result$1[ebp]
  00049	89 45 f8	 mov	 DWORD PTR tv86[ebp], eax
$LN3@snprintf:

; 1973 :     #pragma warning(suppress:28719)    // 28719
; 1974 :         _Result = _vsnprintf(_Buffer, _BufferCount, _Format, _ArgList);

  0004c	8b 45 f8	 mov	 eax, DWORD PTR tv86[ebp]
  0004f	89 45 ec	 mov	 DWORD PTR __Result$[ebp], eax

; 1975 :         __crt_va_end(_ArgList);

  00052	83 65 f4 00	 and	 DWORD PTR __ArgList$[ebp], 0

; 1976 :         return _Result;

  00056	8b 45 ec	 mov	 eax, DWORD PTR __Result$[ebp]

; 1977 :     }

  00059	c9		 leave
  0005a	c3		 ret	 0
__snprintf ENDP
_TEXT	ENDS
; Function compile flags: /Odspy
; File C:\Program Files (x86)\Windows Kits\10\Include\10.0.18362.0\ucrt\corecrt_stdio_config.h
;	COMDAT ___local_stdio_printf_options
_TEXT	SEGMENT
___local_stdio_printf_options PROC			; COMDAT

; 86   :     {

  00000	55		 push	 ebp
  00001	8b ec		 mov	 ebp, esp

; 87   :         static unsigned __int64 _OptionsStorage;
; 88   :         return &_OptionsStorage;

  00003	b8 00 00 00 00	 mov	 eax, OFFSET ?_OptionsStorage@?1??__local_stdio_printf_options@@9@4_KA ; `__local_stdio_printf_options'::`2'::_OptionsStorage

; 89   :     }

  00008	5d		 pop	 ebp
  00009	c3		 ret	 0
___local_stdio_printf_options ENDP
_TEXT	ENDS
; Function compile flags: /Odspy
;	COMDAT ??_H@YGXPAXIIP6EPAX0@Z@Z
_TEXT	SEGMENT
tv66 = -4						; size = 4
___t$ = 8						; size = 4
___s$ = 12						; size = 4
___n$ = 16						; size = 4
___f$ = 20						; size = 4
??_H@YGXPAXIIP6EPAX0@Z@Z PROC				; `vector constructor iterator', COMDAT
  00000	55		 push	 ebp
  00001	8b ec		 mov	 ebp, esp
  00003	51		 push	 ecx
$LN2@vector:
  00004	8b 45 10	 mov	 eax, DWORD PTR ___n$[ebp]
  00007	89 45 fc	 mov	 DWORD PTR tv66[ebp], eax
  0000a	8b 45 10	 mov	 eax, DWORD PTR ___n$[ebp]
  0000d	48		 dec	 eax
  0000e	89 45 10	 mov	 DWORD PTR ___n$[ebp], eax
  00011	83 7d fc 00	 cmp	 DWORD PTR tv66[ebp], 0
  00015	76 11		 jbe	 SHORT $LN1@vector
  00017	8b 4d 08	 mov	 ecx, DWORD PTR ___t$[ebp]
  0001a	ff 55 14	 call	 DWORD PTR ___f$[ebp]
  0001d	8b 45 08	 mov	 eax, DWORD PTR ___t$[ebp]
  00020	03 45 0c	 add	 eax, DWORD PTR ___s$[ebp]
  00023	89 45 08	 mov	 DWORD PTR ___t$[ebp], eax
  00026	eb dc		 jmp	 SHORT $LN2@vector
$LN1@vector:
  00028	c9		 leave
  00029	c2 10 00	 ret	 16			; 00000010H
??_H@YGXPAXIIP6EPAX0@Z@Z ENDP				; `vector constructor iterator'
_TEXT	ENDS
END
