; Listing generated by Microsoft (R) Optimizing Compiler Version 19.28.29335.0 

	TITLE	D:\Metin2 Server Files\mainline\SRC_2014\Metin2Client\UserInterface\ServerStateCheckerModule.cpp
	.686P
	.XMM
	include listing.inc
	.model	flat

INCLUDELIB LIBCMT
INCLUDELIB OLDNAMES

PUBLIC	?initServerStateChecker@@YAXXZ			; initServerStateChecker
PUBLIC	?ServerStateCheckerCreate@@YAPAU_object@@PAU1@0@Z ; ServerStateCheckerCreate
PUBLIC	?ServerStateCheckerUpdate@@YAPAU_object@@PAU1@0@Z ; ServerStateCheckerUpdate
PUBLIC	?ServerStateCheckerRequest@@YAPAU_object@@PAU1@0@Z ; ServerStateCheckerRequest
PUBLIC	?ServerStateCheckerAddChannel@@YAPAU_object@@PAU1@0@Z ; ServerStateCheckerAddChannel
PUBLIC	?ServerStateCheckerInitialize@@YAPAU_object@@PAU1@0@Z ; ServerStateCheckerInitialize
PUBLIC	?ms_singleton@?$CSingleton@VCServerStateChecker@@@@0PAVCServerStateChecker@@A ; CSingleton<CServerStateChecker>::ms_singleton
PUBLIC	??_C@_06MIKANEJK@Create@			; `string'
PUBLIC	??_C@_06LMAGPFNF@Update@			; `string'
PUBLIC	??_C@_07LEAAGLHO@Request@			; `string'
PUBLIC	??_C@_0L@PMHBIDJB@AddChannel@			; `string'
PUBLIC	??_C@_0L@KIAPHAEH@Initialize@			; `string'
PUBLIC	??_C@_0BD@FAMPLJOF@ServerStateChecker@		; `string'
EXTRN	__imp__Py_InitModule4:PROC
EXTRN	?PyTuple_GetString@@YA_NPAU_object@@HPAPAD@Z:PROC ; PyTuple_GetString
EXTRN	?PyTuple_GetInteger@@YA_NPAU_object@@HPAH@Z:PROC ; PyTuple_GetInteger
EXTRN	?PyTuple_GetObject@@YA_NPAU_object@@HPAPAU1@@Z:PROC ; PyTuple_GetObject
EXTRN	?Py_BuildException@@YAPAU_object@@PBDZZ:PROC	; Py_BuildException
EXTRN	?Py_BadArgument@@YAPAU_object@@XZ:PROC		; Py_BadArgument
EXTRN	?Py_BuildNone@@YAPAU_object@@XZ:PROC		; Py_BuildNone
EXTRN	?Create@CServerStateChecker@@QAEXPAU_object@@@Z:PROC ; CServerStateChecker::Create
EXTRN	?AddChannel@CServerStateChecker@@QAEXIPBDI@Z:PROC ; CServerStateChecker::AddChannel
EXTRN	?Request@CServerStateChecker@@QAEXXZ:PROC	; CServerStateChecker::Request
EXTRN	?Update@CServerStateChecker@@QAEXXZ:PROC	; CServerStateChecker::Update
EXTRN	?Initialize@CServerStateChecker@@QAEXXZ:PROC	; CServerStateChecker::Initialize
;	COMDAT ?ms_singleton@?$CSingleton@VCServerStateChecker@@@@0PAVCServerStateChecker@@A
_BSS	SEGMENT
?ms_singleton@?$CSingleton@VCServerStateChecker@@@@0PAVCServerStateChecker@@A DD 01H DUP (?) ; CSingleton<CServerStateChecker>::ms_singleton
_BSS	ENDS
;	COMDAT ??_C@_0BD@FAMPLJOF@ServerStateChecker@
CONST	SEGMENT
??_C@_0BD@FAMPLJOF@ServerStateChecker@ DB 'ServerStateChecker', 00H ; `string'
CONST	ENDS
;	COMDAT ??_C@_0L@KIAPHAEH@Initialize@
CONST	SEGMENT
??_C@_0L@KIAPHAEH@Initialize@ DB 'Initialize', 00H	; `string'
CONST	ENDS
;	COMDAT ??_C@_0L@PMHBIDJB@AddChannel@
CONST	SEGMENT
??_C@_0L@PMHBIDJB@AddChannel@ DB 'AddChannel', 00H	; `string'
CONST	ENDS
;	COMDAT ??_C@_07LEAAGLHO@Request@
CONST	SEGMENT
??_C@_07LEAAGLHO@Request@ DB 'Request', 00H		; `string'
CONST	ENDS
;	COMDAT ??_C@_06LMAGPFNF@Update@
CONST	SEGMENT
??_C@_06LMAGPFNF@Update@ DB 'Update', 00H		; `string'
CONST	ENDS
;	COMDAT ??_C@_06MIKANEJK@Create@
CONST	SEGMENT
??_C@_06MIKANEJK@Create@ DB 'Create', 00H		; `string'
CONST	ENDS
;	COMDAT ?s_methods@?1??initServerStateChecker@@YAXXZ@4PAUPyMethodDef@@A
_DATA	SEGMENT
?s_methods@?1??initServerStateChecker@@YAXXZ@4PAUPyMethodDef@@A DD FLAT:??_C@_06MIKANEJK@Create@ ; `initServerStateChecker'::`2'::s_methods
	DD	FLAT:?ServerStateCheckerCreate@@YAPAU_object@@PAU1@0@Z
	DD	01H
	ORG $+4
	DD	FLAT:??_C@_06LMAGPFNF@Update@
	DD	FLAT:?ServerStateCheckerUpdate@@YAPAU_object@@PAU1@0@Z
	DD	01H
	ORG $+4
	DD	FLAT:??_C@_07LEAAGLHO@Request@
	DD	FLAT:?ServerStateCheckerRequest@@YAPAU_object@@PAU1@0@Z
	DD	01H
	ORG $+4
	DD	FLAT:??_C@_0L@PMHBIDJB@AddChannel@
	DD	FLAT:?ServerStateCheckerAddChannel@@YAPAU_object@@PAU1@0@Z
	DD	01H
	ORG $+4
	DD	FLAT:??_C@_0L@KIAPHAEH@Initialize@
	DD	FLAT:?ServerStateCheckerInitialize@@YAPAU_object@@PAU1@0@Z
	DD	01H
	ORG $+4
	DD	00H
	DD	00H
	DD	00H
	ORG $+4
_DATA	ENDS
; Function compile flags: /Odspy
; File D:\Metin2 Server Files\mainline\SRC_2014\Metin2Client\UserInterface\ServerStateCheckerModule.cpp
;	COMDAT ?ServerStateCheckerInitialize@@YAPAU_object@@PAU1@0@Z
_TEXT	SEGMENT
_poSelf$ = 8						; size = 4
_poArgs$ = 12						; size = 4
?ServerStateCheckerInitialize@@YAPAU_object@@PAU1@0@Z PROC ; ServerStateCheckerInitialize, COMDAT

; 45   : {

  00000	55		 push	 ebp
  00001	8b ec		 mov	 ebp, esp

; 46   : 	CServerStateChecker::Instance().Initialize();

  00003	8b 0d 00 00 00
	00		 mov	 ecx, DWORD PTR ?ms_singleton@?$CSingleton@VCServerStateChecker@@@@0PAVCServerStateChecker@@A ; CSingleton<CServerStateChecker>::ms_singleton
  00009	e8 00 00 00 00	 call	 ?Initialize@CServerStateChecker@@QAEXXZ ; CServerStateChecker::Initialize

; 47   : 	return Py_BuildNone();

  0000e	e8 00 00 00 00	 call	 ?Py_BuildNone@@YAPAU_object@@XZ ; Py_BuildNone

; 48   : }

  00013	5d		 pop	 ebp
  00014	c3		 ret	 0
?ServerStateCheckerInitialize@@YAPAU_object@@PAU1@0@Z ENDP ; ServerStateCheckerInitialize
_TEXT	ENDS
; Function compile flags: /Odspy
; File D:\Metin2 Server Files\mainline\SRC_2014\Metin2Client\UserInterface\ServerStateCheckerModule.cpp
;	COMDAT ?ServerStateCheckerAddChannel@@YAPAU_object@@PAU1@0@Z
_TEXT	SEGMENT
_nServerIndex$ = -12					; size = 4
_szAddr$ = -8						; size = 4
_nPort$ = -4						; size = 4
_poSelf$ = 8						; size = 4
_poArgs$ = 12						; size = 4
?ServerStateCheckerAddChannel@@YAPAU_object@@PAU1@0@Z PROC ; ServerStateCheckerAddChannel, COMDAT

; 27   : {

  00000	55		 push	 ebp
  00001	8b ec		 mov	 ebp, esp
  00003	83 ec 0c	 sub	 esp, 12			; 0000000cH

; 28   : 	int nServerIndex;
; 29   : 	if (!PyTuple_GetInteger(poArgs, 0, &nServerIndex))

  00006	8d 45 f4	 lea	 eax, DWORD PTR _nServerIndex$[ebp]
  00009	50		 push	 eax
  0000a	6a 00		 push	 0
  0000c	ff 75 0c	 push	 DWORD PTR _poArgs$[ebp]
  0000f	e8 00 00 00 00	 call	 ?PyTuple_GetInteger@@YA_NPAU_object@@HPAH@Z ; PyTuple_GetInteger
  00014	83 c4 0c	 add	 esp, 12			; 0000000cH
  00017	0f b6 c0	 movzx	 eax, al
  0001a	85 c0		 test	 eax, eax
  0001c	75 0a		 jne	 SHORT $LN2@ServerStat

; 30   : 		return Py_BuildException();

  0001e	6a 00		 push	 0
  00020	e8 00 00 00 00	 call	 ?Py_BuildException@@YAPAU_object@@PBDZZ ; Py_BuildException
  00025	59		 pop	 ecx
  00026	eb 5d		 jmp	 SHORT $LN1@ServerStat
$LN2@ServerStat:

; 31   : 
; 32   : 	char * szAddr;
; 33   : 	if (!PyTuple_GetString(poArgs, 1, &szAddr))

  00028	8d 45 f8	 lea	 eax, DWORD PTR _szAddr$[ebp]
  0002b	50		 push	 eax
  0002c	6a 01		 push	 1
  0002e	ff 75 0c	 push	 DWORD PTR _poArgs$[ebp]
  00031	e8 00 00 00 00	 call	 ?PyTuple_GetString@@YA_NPAU_object@@HPAPAD@Z ; PyTuple_GetString
  00036	83 c4 0c	 add	 esp, 12			; 0000000cH
  00039	0f b6 c0	 movzx	 eax, al
  0003c	85 c0		 test	 eax, eax
  0003e	75 0a		 jne	 SHORT $LN3@ServerStat

; 34   : 		return Py_BuildException();

  00040	6a 00		 push	 0
  00042	e8 00 00 00 00	 call	 ?Py_BuildException@@YAPAU_object@@PBDZZ ; Py_BuildException
  00047	59		 pop	 ecx
  00048	eb 3b		 jmp	 SHORT $LN1@ServerStat
$LN3@ServerStat:

; 35   : 
; 36   : 	int nPort;
; 37   : 	if (!PyTuple_GetInteger(poArgs, 2, &nPort))

  0004a	8d 45 fc	 lea	 eax, DWORD PTR _nPort$[ebp]
  0004d	50		 push	 eax
  0004e	6a 02		 push	 2
  00050	ff 75 0c	 push	 DWORD PTR _poArgs$[ebp]
  00053	e8 00 00 00 00	 call	 ?PyTuple_GetInteger@@YA_NPAU_object@@HPAH@Z ; PyTuple_GetInteger
  00058	83 c4 0c	 add	 esp, 12			; 0000000cH
  0005b	0f b6 c0	 movzx	 eax, al
  0005e	85 c0		 test	 eax, eax
  00060	75 0a		 jne	 SHORT $LN6@ServerStat

; 38   : 		return Py_BuildException();

  00062	6a 00		 push	 0
  00064	e8 00 00 00 00	 call	 ?Py_BuildException@@YAPAU_object@@PBDZZ ; Py_BuildException
  00069	59		 pop	 ecx
  0006a	eb 19		 jmp	 SHORT $LN1@ServerStat
$LN6@ServerStat:

; 39   : 
; 40   : 	CServerStateChecker::Instance().AddChannel(nServerIndex, szAddr, nPort);

  0006c	ff 75 fc	 push	 DWORD PTR _nPort$[ebp]
  0006f	ff 75 f8	 push	 DWORD PTR _szAddr$[ebp]
  00072	ff 75 f4	 push	 DWORD PTR _nServerIndex$[ebp]
  00075	8b 0d 00 00 00
	00		 mov	 ecx, DWORD PTR ?ms_singleton@?$CSingleton@VCServerStateChecker@@@@0PAVCServerStateChecker@@A ; CSingleton<CServerStateChecker>::ms_singleton
  0007b	e8 00 00 00 00	 call	 ?AddChannel@CServerStateChecker@@QAEXIPBDI@Z ; CServerStateChecker::AddChannel

; 41   : 	return Py_BuildNone();

  00080	e8 00 00 00 00	 call	 ?Py_BuildNone@@YAPAU_object@@XZ ; Py_BuildNone
$LN1@ServerStat:

; 42   : }

  00085	c9		 leave
  00086	c3		 ret	 0
?ServerStateCheckerAddChannel@@YAPAU_object@@PAU1@0@Z ENDP ; ServerStateCheckerAddChannel
_TEXT	ENDS
; Function compile flags: /Odspy
; File D:\Metin2 Server Files\mainline\SRC_2014\Metin2Client\UserInterface\ServerStateCheckerModule.cpp
;	COMDAT ?ServerStateCheckerRequest@@YAPAU_object@@PAU1@0@Z
_TEXT	SEGMENT
_poSelf$ = 8						; size = 4
_poArgs$ = 12						; size = 4
?ServerStateCheckerRequest@@YAPAU_object@@PAU1@0@Z PROC	; ServerStateCheckerRequest, COMDAT

; 21   : {

  00000	55		 push	 ebp
  00001	8b ec		 mov	 ebp, esp

; 22   : 	CServerStateChecker::Instance().Request();

  00003	8b 0d 00 00 00
	00		 mov	 ecx, DWORD PTR ?ms_singleton@?$CSingleton@VCServerStateChecker@@@@0PAVCServerStateChecker@@A ; CSingleton<CServerStateChecker>::ms_singleton
  00009	e8 00 00 00 00	 call	 ?Request@CServerStateChecker@@QAEXXZ ; CServerStateChecker::Request

; 23   : 	return Py_BuildNone();

  0000e	e8 00 00 00 00	 call	 ?Py_BuildNone@@YAPAU_object@@XZ ; Py_BuildNone

; 24   : }

  00013	5d		 pop	 ebp
  00014	c3		 ret	 0
?ServerStateCheckerRequest@@YAPAU_object@@PAU1@0@Z ENDP	; ServerStateCheckerRequest
_TEXT	ENDS
; Function compile flags: /Odspy
; File D:\Metin2 Server Files\mainline\SRC_2014\Metin2Client\UserInterface\ServerStateCheckerModule.cpp
;	COMDAT ?ServerStateCheckerUpdate@@YAPAU_object@@PAU1@0@Z
_TEXT	SEGMENT
_poSelf$ = 8						; size = 4
_poArgs$ = 12						; size = 4
?ServerStateCheckerUpdate@@YAPAU_object@@PAU1@0@Z PROC	; ServerStateCheckerUpdate, COMDAT

; 15   : {

  00000	55		 push	 ebp
  00001	8b ec		 mov	 ebp, esp

; 16   : 	CServerStateChecker::Instance().Update();

  00003	8b 0d 00 00 00
	00		 mov	 ecx, DWORD PTR ?ms_singleton@?$CSingleton@VCServerStateChecker@@@@0PAVCServerStateChecker@@A ; CSingleton<CServerStateChecker>::ms_singleton
  00009	e8 00 00 00 00	 call	 ?Update@CServerStateChecker@@QAEXXZ ; CServerStateChecker::Update

; 17   : 	return Py_BuildNone();

  0000e	e8 00 00 00 00	 call	 ?Py_BuildNone@@YAPAU_object@@XZ ; Py_BuildNone

; 18   : }

  00013	5d		 pop	 ebp
  00014	c3		 ret	 0
?ServerStateCheckerUpdate@@YAPAU_object@@PAU1@0@Z ENDP	; ServerStateCheckerUpdate
_TEXT	ENDS
; Function compile flags: /Odspy
; File D:\Metin2 Server Files\mainline\SRC_2014\Metin2Client\UserInterface\ServerStateCheckerModule.cpp
;	COMDAT ?ServerStateCheckerCreate@@YAPAU_object@@PAU1@0@Z
_TEXT	SEGMENT
_poWnd$ = -4						; size = 4
_poSelf$ = 8						; size = 4
_poArgs$ = 12						; size = 4
?ServerStateCheckerCreate@@YAPAU_object@@PAU1@0@Z PROC	; ServerStateCheckerCreate, COMDAT

; 5    : {

  00000	55		 push	 ebp
  00001	8b ec		 mov	 ebp, esp
  00003	51		 push	 ecx

; 6    : 	PyObject * poWnd;
; 7    : 	if (!PyTuple_GetObject(poArgs, 0, &poWnd))

  00004	8d 45 fc	 lea	 eax, DWORD PTR _poWnd$[ebp]
  00007	50		 push	 eax
  00008	6a 00		 push	 0
  0000a	ff 75 0c	 push	 DWORD PTR _poArgs$[ebp]
  0000d	e8 00 00 00 00	 call	 ?PyTuple_GetObject@@YA_NPAU_object@@HPAPAU1@@Z ; PyTuple_GetObject
  00012	83 c4 0c	 add	 esp, 12			; 0000000cH
  00015	0f b6 c0	 movzx	 eax, al
  00018	85 c0		 test	 eax, eax
  0001a	75 07		 jne	 SHORT $LN4@ServerStat

; 8    : 		return Py_BadArgument();

  0001c	e8 00 00 00 00	 call	 ?Py_BadArgument@@YAPAU_object@@XZ ; Py_BadArgument
  00021	eb 13		 jmp	 SHORT $LN1@ServerStat
$LN4@ServerStat:

; 9    : 
; 10   : 	CServerStateChecker::Instance().Create(poWnd);

  00023	ff 75 fc	 push	 DWORD PTR _poWnd$[ebp]
  00026	8b 0d 00 00 00
	00		 mov	 ecx, DWORD PTR ?ms_singleton@?$CSingleton@VCServerStateChecker@@@@0PAVCServerStateChecker@@A ; CSingleton<CServerStateChecker>::ms_singleton
  0002c	e8 00 00 00 00	 call	 ?Create@CServerStateChecker@@QAEXPAU_object@@@Z ; CServerStateChecker::Create

; 11   : 	return Py_BuildNone();

  00031	e8 00 00 00 00	 call	 ?Py_BuildNone@@YAPAU_object@@XZ ; Py_BuildNone
$LN1@ServerStat:

; 12   : }

  00036	c9		 leave
  00037	c3		 ret	 0
?ServerStateCheckerCreate@@YAPAU_object@@PAU1@0@Z ENDP	; ServerStateCheckerCreate
_TEXT	ENDS
; Function compile flags: /Odspy
; File D:\Metin2 Server Files\mainline\SRC_2014\Metin2Client\UserInterface\ServerStateCheckerModule.cpp
;	COMDAT ?initServerStateChecker@@YAXXZ
_TEXT	SEGMENT
?initServerStateChecker@@YAXXZ PROC			; initServerStateChecker, COMDAT

; 51   : {

  00000	55		 push	 ebp
  00001	8b ec		 mov	 ebp, esp

; 52   : 	static PyMethodDef s_methods[] =
; 53   : 	{
; 54   : 		{ "Create",		ServerStateCheckerCreate,		METH_VARARGS },
; 55   : 		{ "Update",		ServerStateCheckerUpdate,		METH_VARARGS },
; 56   : 		{ "Request",	ServerStateCheckerRequest,		METH_VARARGS },
; 57   : 		{ "AddChannel",	ServerStateCheckerAddChannel,	METH_VARARGS },
; 58   : 		{ "Initialize",	ServerStateCheckerInitialize,	METH_VARARGS },
; 59   : 		{ NULL,			NULL,							NULL },
; 60   : 	};
; 61   : 
; 62   : 	//PyObject * poModule = Py_InitModule("ServerStateChecker", s_methods);
; 63   : 	Py_InitModule("ServerStateChecker", s_methods);

  00003	68 f5 03 00 00	 push	 1013			; 000003f5H
  00008	6a 00		 push	 0
  0000a	6a 00		 push	 0
  0000c	68 00 00 00 00	 push	 OFFSET ?s_methods@?1??initServerStateChecker@@YAXXZ@4PAUPyMethodDef@@A
  00011	68 00 00 00 00	 push	 OFFSET ??_C@_0BD@FAMPLJOF@ServerStateChecker@
  00016	ff 15 00 00 00
	00		 call	 DWORD PTR __imp__Py_InitModule4
  0001c	83 c4 14	 add	 esp, 20			; 00000014H

; 64   : }

  0001f	5d		 pop	 ebp
  00020	c3		 ret	 0
?initServerStateChecker@@YAXXZ ENDP			; initServerStateChecker
_TEXT	ENDS
END
