; Listing generated by Microsoft (R) Optimizing Compiler Version 19.28.29335.0 

	TITLE	D:\Metin2 Server Files\mainline\SRC_2014\Metin2Client\UserInterface\StdAfx.cpp
	.686P
	.XMM
	include listing.inc
	.model	flat

INCLUDELIB LIBCMT
INCLUDELIB OLDNAMES

PUBLIC	___@@_PchSym_@00@UnvgrmCLhvieviLurovhUnzrmormvUhixPCABEUnvgrmCxorvmgUfhvirmgviuzxvUegfmvUhgwzucOlyq@4B2008FD98C1DD4
PUBLIC	_IID_IAMFilterGraphCallback
PUBLIC	_CLSID_VideoEffects1Category
PUBLIC	_CLSID_VideoEffects2Category
PUBLIC	_CLSID_AudioEffects1Category
PUBLIC	_CLSID_AudioEffects2Category
;	COMDAT ___@@_PchSym_@00@UnvgrmCLhvieviLurovhUnzrmormvUhixPCABEUnvgrmCxorvmgUfhvirmgviuzxvUegfmvUhgwzucOlyq@4B2008FD98C1DD4
_BSS	SEGMENT
___@@_PchSym_@00@UnvgrmCLhvieviLurovhUnzrmormvUhixPCABEUnvgrmCxorvmgUfhvirmgviuzxvUegfmvUhgwzucOlyq@4B2008FD98C1DD4 DD 01H DUP (?)
_BSS	ENDS
;	COMDAT _CLSID_AudioEffects2Category
CONST	SEGMENT
_CLSID_AudioEffects2Category DD 0cc7bfb45H
	DW	0f175H
	DW	011d1H
	DB	0a3H
	DB	092H
	DB	00H
	DB	0e0H
	DB	029H
	DB	01fH
	DB	039H
	DB	059H
CONST	ENDS
;	COMDAT _CLSID_AudioEffects1Category
CONST	SEGMENT
_CLSID_AudioEffects1Category DD 0cc7bfb44H
	DW	0f175H
	DW	011d1H
	DB	0a3H
	DB	092H
	DB	00H
	DB	0e0H
	DB	029H
	DB	01fH
	DB	039H
	DB	059H
CONST	ENDS
;	COMDAT _CLSID_VideoEffects2Category
CONST	SEGMENT
_CLSID_VideoEffects2Category DD 0cc7bfb43H
	DW	0f175H
	DW	011d1H
	DB	0a3H
	DB	092H
	DB	00H
	DB	0e0H
	DB	029H
	DB	01fH
	DB	039H
	DB	059H
CONST	ENDS
;	COMDAT _CLSID_VideoEffects1Category
CONST	SEGMENT
_CLSID_VideoEffects1Category DD 0cc7bfb42H
	DW	0f175H
	DW	011d1H
	DB	0a3H
	DB	092H
	DB	00H
	DB	0e0H
	DB	029H
	DB	01fH
	DB	039H
	DB	059H
CONST	ENDS
;	COMDAT _IID_IAMFilterGraphCallback
CONST	SEGMENT
_IID_IAMFilterGraphCallback DD 056a868fdH
	DW	0ad4H
	DW	011ceH
	DB	0b0H
	DB	0a3H
	DB	00H
	DB	020H
	DB	0afH
	DB	0bH
	DB	0a7H
	DB	070H
CONST	ENDS
END
