; Listing generated by Microsoft (R) Optimizing Compiler Version 19.28.29335.0 

	TITLE	D:\Metin2 Server Files\mainline\SRC_2014\Metin2Client\eterGrnLib\LODController.cpp
	.686P
	.XMM
	include listing.inc
	.model	flat

INCLUDELIB LIBCMT
INCLUDELIB OLDNAMES

PUBLIC	?ms_isMinLODModeEnable@@3_NA			; ms_isMinLODModeEnable
_BSS	SEGMENT
?ms_isMinLODModeEnable@@3_NA DB 01H DUP (?)		; ms_isMinLODModeEnable
_BSS	ENDS
PUBLIC	??0exception@std@@QAE@ABV01@@Z			; std::exception::exception
PUBLIC	?what@exception@std@@UBEPBDXZ			; std::exception::what
PUBLIC	??_Gexception@std@@UAEPAXI@Z			; std::exception::`scalar deleting destructor'
PUBLIC	??0bad_alloc@std@@QAE@ABV01@@Z			; std::bad_alloc::bad_alloc
PUBLIC	??_Gbad_alloc@std@@UAEPAXI@Z			; std::bad_alloc::`scalar deleting destructor'
PUBLIC	??0bad_array_new_length@std@@QAE@XZ		; std::bad_array_new_length::bad_array_new_length
PUBLIC	??1bad_array_new_length@std@@UAE@XZ		; std::bad_array_new_length::~bad_array_new_length
PUBLIC	??0bad_array_new_length@std@@QAE@ABV01@@Z	; std::bad_array_new_length::bad_array_new_length
PUBLIC	??_Gbad_array_new_length@std@@UAEPAXI@Z		; std::bad_array_new_length::`scalar deleting destructor'
PUBLIC	?_Throw_bad_array_new_length@std@@YAXXZ		; std::_Throw_bad_array_new_length
PUBLIC	?_Adjust_manually_vector_aligned@std@@YAXAAPAXAAI@Z ; std::_Adjust_manually_vector_aligned
PUBLIC	?_Xlen_string@std@@YAXXZ			; std::_Xlen_string
PUBLIC	?_Myptr@?$_String_val@U?$_Simple_types@D@std@@@std@@QAEPADXZ ; std::_String_val<std::_Simple_types<char> >::_Myptr
PUBLIC	?_Myptr@?$_String_val@U?$_Simple_types@D@std@@@std@@QBEPBDXZ ; std::_String_val<std::_Simple_types<char> >::_Myptr
PUBLIC	??0?$basic_string@DU?$char_traits@D@std@@V?$allocator@D@2@@std@@QAE@ABV01@@Z ; std::basic_string<char,std::char_traits<char>,std::allocator<char> >::basic_string<char,std::char_traits<char>,std::allocator<char> >
PUBLIC	??0?$basic_string@DU?$char_traits@D@std@@V?$allocator@D@2@@std@@QAE@XZ ; std::basic_string<char,std::char_traits<char>,std::allocator<char> >::basic_string<char,std::char_traits<char>,std::allocator<char> >
PUBLIC	??0?$basic_string@DU?$char_traits@D@std@@V?$allocator@D@2@@std@@QAE@$$QAV01@@Z ; std::basic_string<char,std::char_traits<char>,std::allocator<char> >::basic_string<char,std::char_traits<char>,std::allocator<char> >
PUBLIC	?_Move_assign@?$basic_string@DU?$char_traits@D@std@@V?$allocator@D@2@@std@@AAEXAAV12@U_Equal_allocators@2@@Z ; std::basic_string<char,std::char_traits<char>,std::allocator<char> >::_Move_assign
PUBLIC	?_Construct_lv_contents@?$basic_string@DU?$char_traits@D@std@@V?$allocator@D@2@@std@@AAEXABV12@@Z ; std::basic_string<char,std::char_traits<char>,std::allocator<char> >::_Construct_lv_contents
PUBLIC	?assign@?$basic_string@DU?$char_traits@D@std@@V?$allocator@D@2@@std@@QAEAAV12@QBDI@Z ; std::basic_string<char,std::char_traits<char>,std::allocator<char> >::assign
PUBLIC	?c_str@?$basic_string@DU?$char_traits@D@std@@V?$allocator@D@2@@std@@QBEPBDXZ ; std::basic_string<char,std::char_traits<char>,std::allocator<char> >::c_str
PUBLIC	?max_size@?$basic_string@DU?$char_traits@D@std@@V?$allocator@D@2@@std@@QBEIXZ ; std::basic_string<char,std::char_traits<char>,std::allocator<char> >::max_size
PUBLIC	?_Calculate_growth@?$basic_string@DU?$char_traits@D@std@@V?$allocator@D@2@@std@@ABEII@Z ; std::basic_string<char,std::char_traits<char>,std::allocator<char> >::_Calculate_growth
PUBLIC	?_Tidy_init@?$basic_string@DU?$char_traits@D@std@@V?$allocator@D@2@@std@@AAEXXZ ; std::basic_string<char,std::char_traits<char>,std::allocator<char> >::_Tidy_init
PUBLIC	?_Tidy_deallocate@?$basic_string@DU?$char_traits@D@std@@V?$allocator@D@2@@std@@AAEXXZ ; std::basic_string<char,std::char_traits<char>,std::allocator<char> >::_Tidy_deallocate
PUBLIC	??1?$_Compressed_pair@V?$allocator@D@std@@V?$_String_val@U?$_Simple_types@D@std@@@2@$00@std@@QAE@XZ ; std::_Compressed_pair<std::allocator<char>,std::_String_val<std::_Simple_types<char> >,1>::~_Compressed_pair<std::allocator<char>,std::_String_val<std::_Simple_types<char> >,1>
PUBLIC	?SetMinLODMode@CGrannyLODController@@SAX_N@Z	; CGrannyLODController::SetMinLODMode
PUBLIC	??0CGrannyLODController@@QAE@XZ			; CGrannyLODController::CGrannyLODController
PUBLIC	??1CGrannyLODController@@UAE@XZ			; CGrannyLODController::~CGrannyLODController
PUBLIC	?Clear@CGrannyLODController@@QAEXXZ		; CGrannyLODController::Clear
PUBLIC	?CreateDeviceObjects@CGrannyLODController@@QAEXXZ ; CGrannyLODController::CreateDeviceObjects
PUBLIC	?DestroyDeviceObjects@CGrannyLODController@@QAEXXZ ; CGrannyLODController::DestroyDeviceObjects
PUBLIC	?AddModel@CGrannyLODController@@QAEXPAVCGraphicThing@@HPAV1@@Z ; CGrannyLODController::AddModel
PUBLIC	?AttachModelInstance@CGrannyLODController@@QAEXPAV1@PBD@Z ; CGrannyLODController::AttachModelInstance
PUBLIC	?DetachModelInstance@CGrannyLODController@@QAEXPAV1@@Z ; CGrannyLODController::DetachModelInstance
PUBLIC	?SetLODLimits@CGrannyLODController@@QAEXMM@Z	; CGrannyLODController::SetLODLimits
PUBLIC	?SetLODLevel@CGrannyLODController@@QAEXE@Z	; CGrannyLODController::SetLODLevel
PUBLIC	?SetMaterialImagePointer@CGrannyLODController@@QAEXPBDPAVCGraphicImage@@@Z ; CGrannyLODController::SetMaterialImagePointer
PUBLIC	?SetMaterialData@CGrannyLODController@@QAEXPBDABUSMaterialData@@@Z ; CGrannyLODController::SetMaterialData
PUBLIC	?SetSpecularInfo@CGrannyLODController@@QAEXPBDHM@Z ; CGrannyLODController::SetSpecularInfo
PUBLIC	?RenderWithOneTexture@CGrannyLODController@@QAEXXZ ; CGrannyLODController::RenderWithOneTexture
PUBLIC	?RenderWithTwoTexture@CGrannyLODController@@QAEXXZ ; CGrannyLODController::RenderWithTwoTexture
PUBLIC	?BlendRenderWithOneTexture@CGrannyLODController@@QAEXXZ ; CGrannyLODController::BlendRenderWithOneTexture
PUBLIC	?BlendRenderWithTwoTexture@CGrannyLODController@@QAEXXZ ; CGrannyLODController::BlendRenderWithTwoTexture
PUBLIC	?Update@CGrannyLODController@@QAEXMMM@Z		; CGrannyLODController::Update
PUBLIC	?UpdateLODLevel@CGrannyLODController@@QAEXMM@Z	; CGrannyLODController::UpdateLODLevel
PUBLIC	?UpdateTime@CGrannyLODController@@QAEXM@Z	; CGrannyLODController::UpdateTime
PUBLIC	?UpdateSkeleton@CGrannyLODController@@QAEXPBUD3DXMATRIX@@M@Z ; CGrannyLODController::UpdateSkeleton
PUBLIC	?Deform@CGrannyLODController@@QAEXPBUD3DXMATRIX@@@Z ; CGrannyLODController::Deform
PUBLIC	?DeformNoSkin@CGrannyLODController@@QAEXPBUD3DXMATRIX@@@Z ; CGrannyLODController::DeformNoSkin
PUBLIC	?DeformAll@CGrannyLODController@@QAEXPBUD3DXMATRIX@@@Z ; CGrannyLODController::DeformAll
PUBLIC	?RenderToShadowMap@CGrannyLODController@@QAEXXZ	; CGrannyLODController::RenderToShadowMap
PUBLIC	?RenderShadow@CGrannyLODController@@QAEXXZ	; CGrannyLODController::RenderShadow
PUBLIC	?ReloadTexture@CGrannyLODController@@QAEXXZ	; CGrannyLODController::ReloadTexture
PUBLIC	?GetBoundBox@CGrannyLODController@@QAEXPAUD3DXVECTOR3@@0@Z ; CGrannyLODController::GetBoundBox
PUBLIC	?Intersect@CGrannyLODController@@QAE_NPBUD3DXMATRIX@@PAM11@Z ; CGrannyLODController::Intersect
PUBLIC	?SetLocalTime@CGrannyLODController@@QAEXM@Z	; CGrannyLODController::SetLocalTime
PUBLIC	?ResetLocalTime@CGrannyLODController@@QAEXXZ	; CGrannyLODController::ResetLocalTime
PUBLIC	?SetMotionPointer@CGrannyLODController@@QAEXPBVCGrannyMotion@@MHM@Z ; CGrannyLODController::SetMotionPointer
PUBLIC	?ChangeMotionPointer@CGrannyLODController@@QAEXPBVCGrannyMotion@@HM@Z ; CGrannyLODController::ChangeMotionPointer
PUBLIC	?SetMotionAtEnd@CGrannyLODController@@QAEXXZ	; CGrannyLODController::SetMotionAtEnd
PUBLIC	?isModelInstance@CGrannyLODController@@QAEHXZ	; CGrannyLODController::isModelInstance
PUBLIC	?GetModelInstance@CGrannyLODController@@QAEPAVCGrannyModelInstance@@XZ ; CGrannyLODController::GetModelInstance
PUBLIC	?SetCurrentModelInstance@CGrannyLODController@@IAEXPAVCGrannyModelInstance@@@Z ; CGrannyLODController::SetCurrentModelInstance
PUBLIC	?RefreshAttachedModelInstance@CGrannyLODController@@IAEXXZ ; CGrannyLODController::RefreshAttachedModelInstance
PUBLIC	?__ReserveSharedDeformableVertexBuffer@CGrannyLODController@@IAEXK@Z ; CGrannyLODController::__ReserveSharedDeformableVertexBuffer
PUBLIC	??0SAttachingModelData@CGrannyLODController@@QAE@XZ ; CGrannyLODController::SAttachingModelData::SAttachingModelData
PUBLIC	??1SAttachingModelData@CGrannyLODController@@QAE@XZ ; CGrannyLODController::SAttachingModelData::~SAttachingModelData
PUBLIC	??4SAttachingModelData@CGrannyLODController@@QAEAAU01@$$QAU01@@Z ; CGrannyLODController::SAttachingModelData::operator=
PUBLIC	?deallocate@?$allocator@USAttachingModelData@CGrannyLODController@@@std@@QAEXQAUSAttachingModelData@CGrannyLODController@@I@Z ; std::allocator<CGrannyLODController::SAttachingModelData>::deallocate
PUBLIC	??1?$vector@USAttachingModelData@CGrannyLODController@@V?$allocator@USAttachingModelData@CGrannyLODController@@@std@@@std@@QAE@XZ ; std::vector<CGrannyLODController::SAttachingModelData,std::allocator<CGrannyLODController::SAttachingModelData> >::~vector<CGrannyLODController::SAttachingModelData,std::allocator<CGrannyLODController::SAttachingModelData> >
PUBLIC	?erase@?$vector@USAttachingModelData@CGrannyLODController@@V?$allocator@USAttachingModelData@CGrannyLODController@@@std@@@std@@QAE?AV?$_Vector_iterator@V?$_Vector_val@U?$_Simple_types@USAttachingModelData@CGrannyLODController@@@std@@@std@@@2@V?$_Vector_const_iterator@V?$_Vector_val@U?$_Simple_types@USAttachingModelData@CGrannyLODController@@@std@@@std@@@2@@Z ; std::vector<CGrannyLODController::SAttachingModelData,std::allocator<CGrannyLODController::SAttachingModelData> >::erase
PUBLIC	?clear@?$vector@USAttachingModelData@CGrannyLODController@@V?$allocator@USAttachingModelData@CGrannyLODController@@@std@@@std@@QAEXXZ ; std::vector<CGrannyLODController::SAttachingModelData,std::allocator<CGrannyLODController::SAttachingModelData> >::clear
PUBLIC	?_Destroy@?$vector@USAttachingModelData@CGrannyLODController@@V?$allocator@USAttachingModelData@CGrannyLODController@@@std@@@std@@AAEXPAUSAttachingModelData@CGrannyLODController@@0@Z ; std::vector<CGrannyLODController::SAttachingModelData,std::allocator<CGrannyLODController::SAttachingModelData> >::_Destroy
PUBLIC	?_Calculate_growth@?$vector@USAttachingModelData@CGrannyLODController@@V?$allocator@USAttachingModelData@CGrannyLODController@@@std@@@std@@ABEII@Z ; std::vector<CGrannyLODController::SAttachingModelData,std::allocator<CGrannyLODController::SAttachingModelData> >::_Calculate_growth
PUBLIC	?_Change_array@?$vector@USAttachingModelData@CGrannyLODController@@V?$allocator@USAttachingModelData@CGrannyLODController@@@std@@@std@@AAEXQAUSAttachingModelData@CGrannyLODController@@II@Z ; std::vector<CGrannyLODController::SAttachingModelData,std::allocator<CGrannyLODController::SAttachingModelData> >::_Change_array
PUBLIC	?_Tidy@?$vector@USAttachingModelData@CGrannyLODController@@V?$allocator@USAttachingModelData@CGrannyLODController@@@std@@@std@@AAEXXZ ; std::vector<CGrannyLODController::SAttachingModelData,std::allocator<CGrannyLODController::SAttachingModelData> >::_Tidy
PUBLIC	?_Xlength@?$vector@USAttachingModelData@CGrannyLODController@@V?$allocator@USAttachingModelData@CGrannyLODController@@@std@@@std@@CAXXZ ; std::vector<CGrannyLODController::SAttachingModelData,std::allocator<CGrannyLODController::SAttachingModelData> >::_Xlength
PUBLIC	??0?$deque@PAVCGrannyModelInstance@@V?$allocator@PAVCGrannyModelInstance@@@std@@@std@@QAE@XZ ; std::deque<CGrannyModelInstance *,std::allocator<CGrannyModelInstance *> >::deque<CGrannyModelInstance *,std::allocator<CGrannyModelInstance *> >
PUBLIC	??1?$deque@PAVCGrannyModelInstance@@V?$allocator@PAVCGrannyModelInstance@@@std@@@std@@QAE@XZ ; std::deque<CGrannyModelInstance *,std::allocator<CGrannyModelInstance *> >::~deque<CGrannyModelInstance *,std::allocator<CGrannyModelInstance *> >
PUBLIC	?begin@?$deque@PAVCGrannyModelInstance@@V?$allocator@PAVCGrannyModelInstance@@@std@@@std@@QAE?AV?$_Deque_iterator@V?$_Deque_val@U?$_Deque_simple_types@PAVCGrannyModelInstance@@@std@@@std@@@2@XZ ; std::deque<CGrannyModelInstance *,std::allocator<CGrannyModelInstance *> >::begin
PUBLIC	?end@?$deque@PAVCGrannyModelInstance@@V?$allocator@PAVCGrannyModelInstance@@@std@@@std@@QAE?AV?$_Deque_iterator@V?$_Deque_val@U?$_Deque_simple_types@PAVCGrannyModelInstance@@@std@@@std@@@2@XZ ; std::deque<CGrannyModelInstance *,std::allocator<CGrannyModelInstance *> >::end
PUBLIC	?_Unchecked_end@?$deque@PAVCGrannyModelInstance@@V?$allocator@PAVCGrannyModelInstance@@@std@@@std@@QAE?AV?$_Deque_unchecked_iterator@V?$_Deque_val@U?$_Deque_simple_types@PAVCGrannyModelInstance@@@std@@@std@@@2@XZ ; std::deque<CGrannyModelInstance *,std::allocator<CGrannyModelInstance *> >::_Unchecked_end
PUBLIC	??A?$deque@PAVCGrannyModelInstance@@V?$allocator@PAVCGrannyModelInstance@@@std@@@std@@QAEAAPAVCGrannyModelInstance@@I@Z ; std::deque<CGrannyModelInstance *,std::allocator<CGrannyModelInstance *> >::operator[]
PUBLIC	?back@?$deque@PAVCGrannyModelInstance@@V?$allocator@PAVCGrannyModelInstance@@@std@@@std@@QAEAAPAVCGrannyModelInstance@@XZ ; std::deque<CGrannyModelInstance *,std::allocator<CGrannyModelInstance *> >::back
PUBLIC	?push_front@?$deque@PAVCGrannyModelInstance@@V?$allocator@PAVCGrannyModelInstance@@@std@@@std@@QAEXABQAVCGrannyModelInstance@@@Z ; std::deque<CGrannyModelInstance *,std::allocator<CGrannyModelInstance *> >::push_front
PUBLIC	?pop_back@?$deque@PAVCGrannyModelInstance@@V?$allocator@PAVCGrannyModelInstance@@@std@@@std@@QAEXXZ ; std::deque<CGrannyModelInstance *,std::allocator<CGrannyModelInstance *> >::pop_back
PUBLIC	?_Xlen@?$deque@PAVCGrannyModelInstance@@V?$allocator@PAVCGrannyModelInstance@@@std@@@std@@ABEXXZ ; std::deque<CGrannyModelInstance *,std::allocator<CGrannyModelInstance *> >::_Xlen
PUBLIC	?_Growmap@?$deque@PAVCGrannyModelInstance@@V?$allocator@PAVCGrannyModelInstance@@@std@@@std@@AAEXI@Z ; std::deque<CGrannyModelInstance *,std::allocator<CGrannyModelInstance *> >::_Growmap
PUBLIC	?_Tidy@?$deque@PAVCGrannyModelInstance@@V?$allocator@PAVCGrannyModelInstance@@@std@@@std@@AAEXXZ ; std::deque<CGrannyModelInstance *,std::allocator<CGrannyModelInstance *> >::_Tidy
PUBLIC	??0?$_Deque_val@U?$_Deque_simple_types@PAVCGrannyModelInstance@@@std@@@std@@QAE@XZ ; std::_Deque_val<std::_Deque_simple_types<CGrannyModelInstance *> >::_Deque_val<std::_Deque_simple_types<CGrannyModelInstance *> >
PUBLIC	??_GCGrannyLODController@@UAEPAXI@Z		; CGrannyLODController::`scalar deleting destructor'
PUBLIC	?deallocate@?$allocator@PAVCGraphicVertexBuffer@@@std@@QAEXQAPAVCGraphicVertexBuffer@@I@Z ; std::allocator<CGraphicVertexBuffer *>::deallocate
PUBLIC	??0?$vector@PAVCGraphicVertexBuffer@@V?$allocator@PAVCGraphicVertexBuffer@@@std@@@std@@QAE@XZ ; std::vector<CGraphicVertexBuffer *,std::allocator<CGraphicVertexBuffer *> >::vector<CGraphicVertexBuffer *,std::allocator<CGraphicVertexBuffer *> >
PUBLIC	??1?$vector@PAVCGraphicVertexBuffer@@V?$allocator@PAVCGraphicVertexBuffer@@@std@@@std@@QAE@XZ ; std::vector<CGraphicVertexBuffer *,std::allocator<CGraphicVertexBuffer *> >::~vector<CGraphicVertexBuffer *,std::allocator<CGraphicVertexBuffer *> >
PUBLIC	?clear@?$vector@PAVCGraphicVertexBuffer@@V?$allocator@PAVCGraphicVertexBuffer@@@std@@@std@@QAEXXZ ; std::vector<CGraphicVertexBuffer *,std::allocator<CGraphicVertexBuffer *> >::clear
PUBLIC	?_Destroy@?$vector@PAVCGraphicVertexBuffer@@V?$allocator@PAVCGraphicVertexBuffer@@@std@@@std@@AAEXPAPAVCGraphicVertexBuffer@@0@Z ; std::vector<CGraphicVertexBuffer *,std::allocator<CGraphicVertexBuffer *> >::_Destroy
PUBLIC	?_Calculate_growth@?$vector@PAVCGraphicVertexBuffer@@V?$allocator@PAVCGraphicVertexBuffer@@@std@@@std@@ABEII@Z ; std::vector<CGraphicVertexBuffer *,std::allocator<CGraphicVertexBuffer *> >::_Calculate_growth
PUBLIC	?_Change_array@?$vector@PAVCGraphicVertexBuffer@@V?$allocator@PAVCGraphicVertexBuffer@@@std@@@std@@AAEXQAPAVCGraphicVertexBuffer@@II@Z ; std::vector<CGraphicVertexBuffer *,std::allocator<CGraphicVertexBuffer *> >::_Change_array
PUBLIC	?_Tidy@?$vector@PAVCGraphicVertexBuffer@@V?$allocator@PAVCGraphicVertexBuffer@@@std@@@std@@AAEXXZ ; std::vector<CGraphicVertexBuffer *,std::allocator<CGraphicVertexBuffer *> >::_Tidy
PUBLIC	?_Xlength@?$vector@PAVCGraphicVertexBuffer@@V?$allocator@PAVCGraphicVertexBuffer@@@std@@@std@@CAXXZ ; std::vector<CGraphicVertexBuffer *,std::allocator<CGraphicVertexBuffer *> >::_Xlength
PUBLIC	?__FreeDeformVertexBuffer@@YAXPAVCGraphicVertexBuffer@@@Z ; __FreeDeformVertexBuffer
PUBLIC	?__ReserveSharedVertexBuffers@@YAXII@Z		; __ReserveSharedVertexBuffers
PUBLIC	?GrannyCreateSharedDeformBuffer@@YAXXZ		; GrannyCreateSharedDeformBuffer
PUBLIC	?GrannyDestroySharedDeformBuffer@@YAXXZ		; GrannyDestroySharedDeformBuffer
PUBLIC	??0?$_Deque_const_iterator@V?$_Deque_val@U?$_Deque_simple_types@PAVCGrannyModelInstance@@@std@@@std@@@std@@QAE@XZ ; std::_Deque_const_iterator<std::_Deque_val<std::_Deque_simple_types<CGrannyModelInstance *> > >::_Deque_const_iterator<std::_Deque_val<std::_Deque_simple_types<CGrannyModelInstance *> > >
PUBLIC	??D?$_Deque_const_iterator@V?$_Deque_val@U?$_Deque_simple_types@PAVCGrannyModelInstance@@@std@@@std@@@std@@QBEABQAVCGrannyModelInstance@@XZ ; std::_Deque_const_iterator<std::_Deque_val<std::_Deque_simple_types<CGrannyModelInstance *> > >::operator*
PUBLIC	??4?$_Deque_const_iterator@V?$_Deque_val@U?$_Deque_simple_types@PAVCGrannyModelInstance@@@std@@@std@@@std@@QAEAAV01@$$QAV01@@Z ; std::_Deque_const_iterator<std::_Deque_val<std::_Deque_simple_types<CGrannyModelInstance *> > >::operator=
PUBLIC	??1?$_Deque_iterator@V?$_Deque_val@U?$_Deque_simple_types@PAVCGrannyModelInstance@@@std@@@std@@@std@@QAE@XZ ; std::_Deque_iterator<std::_Deque_val<std::_Deque_simple_types<CGrannyModelInstance *> > >::~_Deque_iterator<std::_Deque_val<std::_Deque_simple_types<CGrannyModelInstance *> > >
PUBLIC	??$for_each@V?$_Deque_iterator@V?$_Deque_val@U?$_Deque_simple_types@PAVCGrannyModelInstance@@@std@@@std@@@std@@P6AXPAVCGrannyModelInstance@@@Z@std@@YAP6AXPAVCGrannyModelInstance@@@ZV?$_Deque_iterator@V?$_Deque_val@U?$_Deque_simple_types@PAVCGrannyModelInstance@@@std@@@std@@@0@1P6AX0@Z@Z ; std::for_each<std::_Deque_iterator<std::_Deque_val<std::_Deque_simple_types<CGrannyModelInstance *> > >,void (__cdecl*)(CGrannyModelInstance *)>
PUBLIC	??$for_each@V?$_Deque_iterator@V?$_Deque_val@U?$_Deque_simple_types@PAVCGrannyModelInstance@@@std@@@std@@@std@@UFCreateDeviceObjects@CGrannyModelInstance@@@std@@YA?AUFCreateDeviceObjects@CGrannyModelInstance@@V?$_Deque_iterator@V?$_Deque_val@U?$_Deque_simple_types@PAVCGrannyModelInstance@@@std@@@std@@@0@0U12@@Z ; std::for_each<std::_Deque_iterator<std::_Deque_val<std::_Deque_simple_types<CGrannyModelInstance *> > >,CGrannyModelInstance::FCreateDeviceObjects>
PUBLIC	??$for_each@V?$_Deque_iterator@V?$_Deque_val@U?$_Deque_simple_types@PAVCGrannyModelInstance@@@std@@@std@@@std@@UFDestroyDeviceObjects@CGrannyModelInstance@@@std@@YA?AUFDestroyDeviceObjects@CGrannyModelInstance@@V?$_Deque_iterator@V?$_Deque_val@U?$_Deque_simple_types@PAVCGrannyModelInstance@@@std@@@std@@@0@0U12@@Z ; std::for_each<std::_Deque_iterator<std::_Deque_val<std::_Deque_simple_types<CGrannyModelInstance *> > >,CGrannyModelInstance::FDestroyDeviceObjects>
PUBLIC	??$emplace_back@ABQAVCGraphicVertexBuffer@@@?$vector@PAVCGraphicVertexBuffer@@V?$allocator@PAVCGraphicVertexBuffer@@@std@@@std@@QAEXABQAVCGraphicVertexBuffer@@@Z ; std::vector<CGraphicVertexBuffer *,std::allocator<CGraphicVertexBuffer *> >::emplace_back<CGraphicVertexBuffer * const &>
PUBLIC	??$_Emplace_back_with_unused_capacity@ABQAVCGraphicVertexBuffer@@@?$vector@PAVCGraphicVertexBuffer@@V?$allocator@PAVCGraphicVertexBuffer@@@std@@@std@@AAEXABQAVCGraphicVertexBuffer@@@Z ; std::vector<CGraphicVertexBuffer *,std::allocator<CGraphicVertexBuffer *> >::_Emplace_back_with_unused_capacity<CGraphicVertexBuffer * const &>
PUBLIC	??$_Emplace_reallocate@ABQAVCGraphicVertexBuffer@@@?$vector@PAVCGraphicVertexBuffer@@V?$allocator@PAVCGraphicVertexBuffer@@@std@@@std@@QAEPAPAVCGraphicVertexBuffer@@QAPAV2@ABQAV2@@Z ; std::vector<CGraphicVertexBuffer *,std::allocator<CGraphicVertexBuffer *> >::_Emplace_reallocate<CGraphicVertexBuffer * const &>
PUBLIC	??D?$_Deque_unchecked_const_iterator@V?$_Deque_val@U?$_Deque_simple_types@PAVCGrannyModelInstance@@@std@@@std@@@std@@QBEABQAVCGrannyModelInstance@@XZ ; std::_Deque_unchecked_const_iterator<std::_Deque_val<std::_Deque_simple_types<CGrannyModelInstance *> > >::operator*
PUBLIC	??$_Delete_plain_internal@V?$allocator@U_Container_proxy@std@@@std@@@std@@YAXAAV?$allocator@U_Container_proxy@std@@@0@QAU_Container_proxy@0@@Z ; std::_Delete_plain_internal<std::allocator<std::_Container_proxy> >
PUBLIC	??$_Alloc_proxy@V?$allocator@U_Container_proxy@std@@@std@@@_Container_base12@std@@QAEX$$QAV?$allocator@U_Container_proxy@std@@@1@@Z ; std::_Container_base12::_Alloc_proxy<std::allocator<std::_Container_proxy> >
PUBLIC	??$emplace_back@ABUSAttachingModelData@CGrannyLODController@@@?$vector@USAttachingModelData@CGrannyLODController@@V?$allocator@USAttachingModelData@CGrannyLODController@@@std@@@std@@QAEXABUSAttachingModelData@CGrannyLODController@@@Z ; std::vector<CGrannyLODController::SAttachingModelData,std::allocator<CGrannyLODController::SAttachingModelData> >::emplace_back<CGrannyLODController::SAttachingModelData const &>
PUBLIC	??$_Emplace_back_with_unused_capacity@ABUSAttachingModelData@CGrannyLODController@@@?$vector@USAttachingModelData@CGrannyLODController@@V?$allocator@USAttachingModelData@CGrannyLODController@@@std@@@std@@AAEXABUSAttachingModelData@CGrannyLODController@@@Z ; std::vector<CGrannyLODController::SAttachingModelData,std::allocator<CGrannyLODController::SAttachingModelData> >::_Emplace_back_with_unused_capacity<CGrannyLODController::SAttachingModelData const &>
PUBLIC	??$_Emplace_reallocate@ABUSAttachingModelData@CGrannyLODController@@@?$vector@USAttachingModelData@CGrannyLODController@@V?$allocator@USAttachingModelData@CGrannyLODController@@@std@@@std@@QAEPAUSAttachingModelData@CGrannyLODController@@QAU23@ABU23@@Z ; std::vector<CGrannyLODController::SAttachingModelData,std::allocator<CGrannyLODController::SAttachingModelData> >::_Emplace_reallocate<CGrannyLODController::SAttachingModelData const &>
PUBLIC	??$_Destroy_range@V?$allocator@PAVCGraphicVertexBuffer@@@std@@@std@@YAXPAPAVCGraphicVertexBuffer@@QAPAV1@AAV?$allocator@PAVCGraphicVertexBuffer@@@0@@Z ; std::_Destroy_range<std::allocator<CGraphicVertexBuffer *> >
PUBLIC	??$_Destroy_in_place@PAPAVCGrannyModelInstance@@@std@@YAXAAPAPAVCGrannyModelInstance@@@Z ; std::_Destroy_in_place<CGrannyModelInstance * *>
PUBLIC	??$uninitialized_copy@PAPAPAVCGrannyModelInstance@@PAPAPAV1@@std@@YAPAPAPAVCGrannyModelInstance@@QAPAPAV1@0PAPAPAV1@@Z ; std::uninitialized_copy<CGrannyModelInstance * * *,CGrannyModelInstance * * *>
PUBLIC	??$_Uninitialized_value_construct_n_unchecked1@PAPAPAVCGrannyModelInstance@@I@std@@YAPAPAPAVCGrannyModelInstance@@PAPAPAV1@I@Z ; std::_Uninitialized_value_construct_n_unchecked1<CGrannyModelInstance * * *,unsigned int>
PUBLIC	??$_Destroy_range@PAPAPAVCGrannyModelInstance@@PAPAPAV1@@std@@YAXPAPAPAVCGrannyModelInstance@@QAPAPAV1@@Z ; std::_Destroy_range<CGrannyModelInstance * * *,CGrannyModelInstance * * *>
PUBLIC	??$_Allocate@$07U_Default_allocate_traits@std@@$0A@@std@@YAPAXI@Z ; std::_Allocate<8,std::_Default_allocate_traits,0>
PUBLIC	??$_Destroy_range@V?$allocator@USAttachingModelData@CGrannyLODController@@@std@@@std@@YAXPAUSAttachingModelData@CGrannyLODController@@QAU12@AAV?$allocator@USAttachingModelData@CGrannyLODController@@@0@@Z ; std::_Destroy_range<std::allocator<CGrannyLODController::SAttachingModelData> >
PUBLIC	??$_Destroy_in_place@PAD@std@@YAXAAPAD@Z	; std::_Destroy_in_place<char *>
PUBLIC	??$_Reallocate_for@V<lambda_9366063389c5f42a00a5088cf24e69de>@@PBD@?$basic_string@DU?$char_traits@D@std@@V?$allocator@D@2@@std@@AAEAAV01@IV<lambda_9366063389c5f42a00a5088cf24e69de>@@PBD@Z ; std::basic_string<char,std::char_traits<char>,std::allocator<char> >::_Reallocate_for<<lambda_9366063389c5f42a00a5088cf24e69de>,char const *>
PUBLIC	??$_Construct_in_place@PADABQAD@std@@YAXAAPADABQAD@Z ; std::_Construct_in_place<char *,char * const &>
PUBLIC	??$_Pocma@V?$allocator@D@std@@@std@@YAXAAV?$allocator@D@0@0@Z ; std::_Pocma<std::allocator<char> >
PUBLIC	??$_Deallocate@$07$0A@@std@@YAXPAXI@Z		; std::_Deallocate<8,0>
PUBLIC	??$_Deallocate_plain@V?$allocator@U_Container_proxy@std@@@std@@@std@@YAXAAV?$allocator@U_Container_proxy@std@@@0@QAU_Container_proxy@0@@Z ; std::_Deallocate_plain<std::allocator<std::_Container_proxy> >
PUBLIC	??$_Construct_in_place@U_Container_proxy@std@@PAU_Container_base12@2@@std@@YAXAAU_Container_proxy@0@$$QAPAU_Container_base12@0@@Z ; std::_Construct_in_place<std::_Container_proxy,std::_Container_base12 *>
PUBLIC	??$_Copy_memmove@PAPAPAVCGrannyModelInstance@@PAPAPAV1@@std@@YAPAPAPAVCGrannyModelInstance@@PAPAPAV1@00@Z ; std::_Copy_memmove<CGrannyModelInstance * * *,CGrannyModelInstance * * *>
PUBLIC	??$_Zero_range@PAPAPAVCGrannyModelInstance@@@std@@YAPAPAPAVCGrannyModelInstance@@QAPAPAV1@0@Z ; std::_Zero_range<CGrannyModelInstance * * *>
PUBLIC	??$_Allocate_manually_vector_aligned@U_Default_allocate_traits@std@@@std@@YAPAXI@Z ; std::_Allocate_manually_vector_aligned<std::_Default_allocate_traits>
PUBLIC	??$_Uninitialized_move@PAPAVCGraphicVertexBuffer@@V?$allocator@PAVCGraphicVertexBuffer@@@std@@@std@@YAPAPAVCGraphicVertexBuffer@@QAPAV1@0PAPAV1@AAV?$allocator@PAVCGraphicVertexBuffer@@@0@@Z ; std::_Uninitialized_move<CGraphicVertexBuffer * *,std::allocator<CGraphicVertexBuffer *> >
PUBLIC	??$_Uninitialized_move@PAUSAttachingModelData@CGrannyLODController@@V?$allocator@USAttachingModelData@CGrannyLODController@@@std@@@std@@YAPAUSAttachingModelData@CGrannyLODController@@QAU12@0PAU12@AAV?$allocator@USAttachingModelData@CGrannyLODController@@@0@@Z ; std::_Uninitialized_move<CGrannyLODController::SAttachingModelData *,std::allocator<CGrannyLODController::SAttachingModelData> >
PUBLIC	??$_Copy_memmove@PAPAVCGraphicVertexBuffer@@PAPAV1@@std@@YAPAPAVCGraphicVertexBuffer@@PAPAV1@00@Z ; std::_Copy_memmove<CGraphicVertexBuffer * *,CGraphicVertexBuffer * *>
PUBLIC	??1?$_Uninitialized_backout_al@V?$allocator@USAttachingModelData@CGrannyLODController@@@std@@@std@@QAE@XZ ; std::_Uninitialized_backout_al<std::allocator<CGrannyLODController::SAttachingModelData> >::~_Uninitialized_backout_al<std::allocator<CGrannyLODController::SAttachingModelData> >
PUBLIC	??$_Emplace_back@USAttachingModelData@CGrannyLODController@@@?$_Uninitialized_backout_al@V?$allocator@USAttachingModelData@CGrannyLODController@@@std@@@std@@QAEX$$QAUSAttachingModelData@CGrannyLODController@@@Z ; std::_Uninitialized_backout_al<std::allocator<CGrannyLODController::SAttachingModelData> >::_Emplace_back<CGrannyLODController::SAttachingModelData>
PUBLIC	??_7exception@std@@6B@				; std::exception::`vftable'
PUBLIC	??_C@_0BC@EOODALEL@Unknown?5exception@		; `string'
PUBLIC	??_7bad_alloc@std@@6B@				; std::bad_alloc::`vftable'
PUBLIC	??_7bad_array_new_length@std@@6B@		; std::bad_array_new_length::`vftable'
PUBLIC	??_C@_0BF@KINCDENJ@bad?5array?5new?5length@	; `string'
PUBLIC	__TI3?AVbad_array_new_length@std@@
PUBLIC	__CTA3?AVbad_array_new_length@std@@
PUBLIC	??_R0?AVbad_array_new_length@std@@@8		; std::bad_array_new_length `RTTI Type Descriptor'
PUBLIC	__CT??_R0?AVbad_array_new_length@std@@@8??0bad_array_new_length@std@@QAE@ABV01@@Z12
PUBLIC	??_R0?AVbad_alloc@std@@@8			; std::bad_alloc `RTTI Type Descriptor'
PUBLIC	__CT??_R0?AVbad_alloc@std@@@8??0bad_alloc@std@@QAE@ABV01@@Z12
PUBLIC	??_R0?AVexception@std@@@8			; std::exception `RTTI Type Descriptor'
PUBLIC	__CT??_R0?AVexception@std@@@8??0exception@std@@QAE@ABV01@@Z12
PUBLIC	??_C@_0BA@JFNIOLAK@string?5too?5long@		; `string'
PUBLIC	??_7CGrannyLODController@@6B@			; CGrannyLODController::`vftable'
PUBLIC	??_C@_0BG@IJPBENCD@NEW_ERROR?5?$CF8d?3?5?$CFd?$CI?$CFd?$CJ@ ; `string'
PUBLIC	??_C@_0HN@JOABBJCG@CGrannyLODController?3?3RefreshAt@ ; `string'
PUBLIC	??_C@_0BC@KBDMBKEH@deque?$DMT?$DO?5too?5long@	; `string'
PUBLIC	??_C@_0BA@FOIKENOD@vector?5too?5long@		; `string'
PUBLIC	??_R4exception@std@@6B@				; std::exception::`RTTI Complete Object Locator'
PUBLIC	??_R3exception@std@@8				; std::exception::`RTTI Class Hierarchy Descriptor'
PUBLIC	??_R2exception@std@@8				; std::exception::`RTTI Base Class Array'
PUBLIC	??_R1A@?0A@EA@exception@std@@8			; std::exception::`RTTI Base Class Descriptor at (0,-1,0,64)'
PUBLIC	??_R4bad_alloc@std@@6B@				; std::bad_alloc::`RTTI Complete Object Locator'
PUBLIC	??_R3bad_alloc@std@@8				; std::bad_alloc::`RTTI Class Hierarchy Descriptor'
PUBLIC	??_R2bad_alloc@std@@8				; std::bad_alloc::`RTTI Base Class Array'
PUBLIC	??_R1A@?0A@EA@bad_alloc@std@@8			; std::bad_alloc::`RTTI Base Class Descriptor at (0,-1,0,64)'
PUBLIC	??_R4bad_array_new_length@std@@6B@		; std::bad_array_new_length::`RTTI Complete Object Locator'
PUBLIC	??_R3bad_array_new_length@std@@8		; std::bad_array_new_length::`RTTI Class Hierarchy Descriptor'
PUBLIC	??_R2bad_array_new_length@std@@8		; std::bad_array_new_length::`RTTI Base Class Array'
PUBLIC	??_R1A@?0A@EA@bad_array_new_length@std@@8	; std::bad_array_new_length::`RTTI Base Class Descriptor at (0,-1,0,64)'
PUBLIC	??_R4CGrannyLODController@@6B@			; CGrannyLODController::`RTTI Complete Object Locator'
PUBLIC	??_R0?AVCGrannyLODController@@@8		; CGrannyLODController `RTTI Type Descriptor'
PUBLIC	??_R3CGrannyLODController@@8			; CGrannyLODController::`RTTI Class Hierarchy Descriptor'
PUBLIC	??_R2CGrannyLODController@@8			; CGrannyLODController::`RTTI Base Class Array'
PUBLIC	??_R1A@?0A@EA@CGrannyLODController@@8		; CGrannyLODController::`RTTI Base Class Descriptor at (0,-1,0,64)'
PUBLIC	??_R1A@?0A@EA@CGraphicBase@@8			; CGraphicBase::`RTTI Base Class Descriptor at (0,-1,0,64)'
PUBLIC	??_R0?AVCGraphicBase@@@8			; CGraphicBase `RTTI Type Descriptor'
PUBLIC	??_R3CGraphicBase@@8				; CGraphicBase::`RTTI Class Hierarchy Descriptor'
PUBLIC	??_R2CGraphicBase@@8				; CGraphicBase::`RTTI Base Class Array'
PUBLIC	__real@00000000
PUBLIC	__real@41f00000
PUBLIC	__real@42b40000
PUBLIC	__real@43fa0000
PUBLIC	__real@44bb8000
PUBLIC	__real@451c4000
PUBLIC	__real@459c4000
PUBLIC	__xmm@41f00000000000000000000000000000
EXTRN	??_L@YGXPAXIIP6EX0@Z1@Z:PROC			; `eh vector constructor iterator'
EXTRN	??_M@YGXPAXIIP6EX0@Z@Z:PROC			; `eh vector destructor iterator'
EXTRN	??2@YAPAXI@Z:PROC				; operator new
EXTRN	??3@YAXPAXI@Z:PROC				; operator delete
EXTRN	_atexit:PROC
EXTRN	__Init_thread_header:PROC
EXTRN	__Init_thread_footer:PROC
EXTRN	__invalid_parameter_noinfo_noreturn:PROC
EXTRN	_memcpy:PROC
EXTRN	_memmove:PROC
EXTRN	_memset:PROC
EXTRN	_strlen:PROC
EXTRN	_fabs:PROC
EXTRN	___std_exception_copy:PROC
EXTRN	___std_exception_destroy:PROC
EXTRN	??_Eexception@std@@UAEPAXI@Z:PROC		; std::exception::`vector deleting destructor'
EXTRN	??_Ebad_alloc@std@@UAEPAXI@Z:PROC		; std::bad_alloc::`vector deleting destructor'
EXTRN	??_Ebad_array_new_length@std@@UAEPAXI@Z:PROC	; std::bad_array_new_length::`vector deleting destructor'
EXTRN	?_Xlength_error@std@@YAXPBD@Z:PROC		; std::_Xlength_error
EXTRN	?MIN@@YAHHH@Z:PROC				; MIN
EXTRN	?fMAX@@YAMMM@Z:PROC				; fMAX
EXTRN	?fMINMAX@@YAMMMM@Z:PROC				; fMINMAX
EXTRN	?Tracenf@@YAXPBDZZ:PROC				; Tracenf
EXTRN	?TraceError@@YAXPBDZZ:PROC			; TraceError
EXTRN	__time64:PROC
EXTRN	??0CGraphicBase@@QAE@XZ:PROC			; CGraphicBase::CGraphicBase
EXTRN	??1CGraphicBase@@UAE@XZ:PROC			; CGraphicBase::~CGraphicBase
EXTRN	??0CGraphicVertexBuffer@@QAE@XZ:PROC		; CGraphicVertexBuffer::CGraphicVertexBuffer
EXTRN	??1CGraphicVertexBuffer@@UAE@XZ:PROC		; CGraphicVertexBuffer::~CGraphicVertexBuffer
EXTRN	?Destroy@CGraphicVertexBuffer@@QAEXXZ:PROC	; CGraphicVertexBuffer::Destroy
EXTRN	?GetVertexCount@CGraphicVertexBuffer@@QBEHXZ:PROC ; CGraphicVertexBuffer::GetVertexCount
EXTRN	?AddReference@CReferenceObject@@QAEXXZ:PROC	; CReferenceObject::AddReference
EXTRN	?Release@CReferenceObject@@QAEXXZ:PROC		; CReferenceObject::Release
EXTRN	?GetDeformVertexCount@CGrannyModel@@QBEHXZ:PROC	; CGrannyModel::GetDeformVertexCount
EXTRN	?GetModelPointer@CGraphicThing@@QAEPAVCGrannyModel@@H@Z:PROC ; CGraphicThing::GetModelPointer
EXTRN	?GetModelCount@CGraphicThing@@QBEHXZ:PROC	; CGraphicThing::GetModelCount
EXTRN	?New@CGrannyModelInstance@@SAPAV1@XZ:PROC	; CGrannyModelInstance::New
EXTRN	?Delete@CGrannyModelInstance@@SAXPAV1@@Z:PROC	; CGrannyModelInstance::Delete
EXTRN	?CreateDeviceObjects@CGrannyModelInstance@@QAE_NXZ:PROC ; CGrannyModelInstance::CreateDeviceObjects
EXTRN	?DestroyDeviceObjects@CGrannyModelInstance@@QAEXXZ:PROC ; CGrannyModelInstance::DestroyDeviceObjects
EXTRN	?Update@CGrannyModelInstance@@QAEXK@Z:PROC	; CGrannyModelInstance::Update
EXTRN	?UpdateLocalTime@CGrannyModelInstance@@QAEXM@Z:PROC ; CGrannyModelInstance::UpdateLocalTime
EXTRN	?UpdateSkeleton@CGrannyModelInstance@@QAEXPBUD3DXMATRIX@@M@Z:PROC ; CGrannyModelInstance::UpdateSkeleton
EXTRN	?DeformNoSkin@CGrannyModelInstance@@QAEXPBUD3DXMATRIX@@@Z:PROC ; CGrannyModelInstance::DeformNoSkin
EXTRN	?Deform@CGrannyModelInstance@@QAEXPBUD3DXMATRIX@@@Z:PROC ; CGrannyModelInstance::Deform
EXTRN	?RenderWithOneTexture@CGrannyModelInstance@@QAEXXZ:PROC ; CGrannyModelInstance::RenderWithOneTexture
EXTRN	?RenderWithTwoTexture@CGrannyModelInstance@@QAEXXZ:PROC ; CGrannyModelInstance::RenderWithTwoTexture
EXTRN	?BlendRenderWithOneTexture@CGrannyModelInstance@@QAEXXZ:PROC ; CGrannyModelInstance::BlendRenderWithOneTexture
EXTRN	?BlendRenderWithTwoTexture@CGrannyModelInstance@@QAEXXZ:PROC ; CGrannyModelInstance::BlendRenderWithTwoTexture
EXTRN	?RenderWithoutTexture@CGrannyModelInstance@@QAEXXZ:PROC ; CGrannyModelInstance::RenderWithoutTexture
EXTRN	?SetMaterialImagePointer@CGrannyModelInstance@@QAEXPBDPAVCGraphicImage@@@Z:PROC ; CGrannyModelInstance::SetMaterialImagePointer
EXTRN	?SetMaterialData@CGrannyModelInstance@@QAEXPBDABUSMaterialData@@@Z:PROC ; CGrannyModelInstance::SetMaterialData
EXTRN	?SetSpecularInfo@CGrannyModelInstance@@QAEXPBDHM@Z:PROC ; CGrannyModelInstance::SetSpecularInfo
EXTRN	?SetLinkedModelPointer@CGrannyModelInstance@@QAEXPAVCGrannyModel@@PAVCGraphicVertexBuffer@@PAPAV1@@Z:PROC ; CGrannyModelInstance::SetLinkedModelPointer
EXTRN	?SetMotionPointer@CGrannyModelInstance@@QAEXPBVCGrannyMotion@@MHM@Z:PROC ; CGrannyModelInstance::SetMotionPointer
EXTRN	?ChangeMotionPointer@CGrannyModelInstance@@QAEXPBVCGrannyMotion@@HM@Z:PROC ; CGrannyModelInstance::ChangeMotionPointer
EXTRN	?SetMotionAtEnd@CGrannyModelInstance@@QAEXXZ:PROC ; CGrannyModelInstance::SetMotionAtEnd
EXTRN	?CopyMotion@CGrannyModelInstance@@QAEXPAV1@_N@Z:PROC ; CGrannyModelInstance::CopyMotion
EXTRN	?SetLocalTime@CGrannyModelInstance@@QAEXM@Z:PROC ; CGrannyModelInstance::SetLocalTime
EXTRN	?ResetLocalTime@CGrannyModelInstance@@QAEHXZ:PROC ; CGrannyModelInstance::ResetLocalTime
EXTRN	?SetParentModelInstance@CGrannyModelInstance@@QAEXPBV1@PBD@Z:PROC ; CGrannyModelInstance::SetParentModelInstance
EXTRN	?SetParentModelInstance@CGrannyModelInstance@@QAEXPBV1@H@Z:PROC ; CGrannyModelInstance::SetParentModelInstance
EXTRN	?Intersect@CGrannyModelInstance@@QAE_NPBUD3DXMATRIX@@PAM11@Z:PROC ; CGrannyModelInstance::Intersect
EXTRN	?GetBoundBox@CGrannyModelInstance@@QAEXPAUD3DXVECTOR3@@0@Z:PROC ; CGrannyModelInstance::GetBoundBox
EXTRN	?ReloadTexture@CGrannyModelInstance@@QAEXXZ:PROC ; CGrannyModelInstance::ReloadTexture
EXTRN	??_ECGrannyLODController@@UAEPAXI@Z:PROC	; CGrannyLODController::`vector deleting destructor'
EXTRN	@__security_check_cookie@4:PROC
EXTRN	__CxxThrowException@8:PROC
EXTRN	___CxxFrameHandler3:PROC
EXTRN	__ftoui3:PROC
EXTRN	__Init_thread_epoch:DWORD
EXTRN	??_7type_info@@6B@:QWORD			; type_info::`vftable'
EXTRN	?ms_matIdentity@CGraphicBase@@1UD3DXMATRIX@@A:BYTE ; CGraphicBase::ms_matIdentity
EXTRN	___security_cookie:DWORD
EXTRN	__fltused:DWORD
EXTRN	__tls_array:DWORD
EXTRN	__tls_index:DWORD
_BSS	SEGMENT
	ALIGN	4

?gs_vbs@@3PAV?$vector@PAVCGraphicVertexBuffer@@V?$allocator@PAVCGraphicVertexBuffer@@@std@@@std@@A DB 06cH DUP (?) ; gs_vbs
?gs_emptyVB@@3VCGraphicVertexBuffer@@A DB 020H DUP (?)	; gs_emptyVB
_BSS	ENDS
;	COMDAT ?base@?1??__AllocDeformVertexBuffer@@YAPAVCGraphicVertexBuffer@@I@Z@4_JA
_BSS	SEGMENT
?base@?1??__AllocDeformVertexBuffer@@YAPAVCGraphicVertexBuffer@@I@Z@4_JA DQ 01H DUP (?) ; `__AllocDeformVertexBuffer'::`2'::base
_BSS	ENDS
;	COMDAT ?$TSS0@?1??__AllocDeformVertexBuffer@@YAPAVCGraphicVertexBuffer@@I@Z@4HA
_BSS	SEGMENT
?$TSS0@?1??__AllocDeformVertexBuffer@@YAPAVCGraphicVertexBuffer@@I@Z@4HA DD 01H DUP (?) ; `__AllocDeformVertexBuffer'::`2'::$TSS0
_BSS	ENDS
CRT$XCU	SEGMENT
?gs_vbs$initializer$@@3P6AXXZA DD FLAT:??__Egs_vbs@@YAXXZ ; gs_vbs$initializer$
CRT$XCU	ENDS
;	COMDAT __xmm@41f00000000000000000000000000000
CONST	SEGMENT
__xmm@41f00000000000000000000000000000 DB 00H, 00H, 00H, 00H, 00H, 00H, 00H
	DB	00H, 00H, 00H, 00H, 00H, 00H, 00H, 0f0H, 'A'
CONST	ENDS
;	COMDAT __real@459c4000
CONST	SEGMENT
__real@459c4000 DD 0459c4000r			; 5000
CONST	ENDS
;	COMDAT __real@451c4000
CONST	SEGMENT
__real@451c4000 DD 0451c4000r			; 2500
CONST	ENDS
;	COMDAT __real@44bb8000
CONST	SEGMENT
__real@44bb8000 DD 044bb8000r			; 1500
CONST	ENDS
;	COMDAT __real@43fa0000
CONST	SEGMENT
__real@43fa0000 DD 043fa0000r			; 500
CONST	ENDS
;	COMDAT __real@42b40000
CONST	SEGMENT
__real@42b40000 DD 042b40000r			; 90
CONST	ENDS
;	COMDAT __real@41f00000
CONST	SEGMENT
__real@41f00000 DD 041f00000r			; 30
CONST	ENDS
;	COMDAT __real@00000000
CONST	SEGMENT
__real@00000000 DD 000000000r			; 0
CONST	ENDS
;	COMDAT ??_R2CGraphicBase@@8
rdata$r	SEGMENT
??_R2CGraphicBase@@8 DD FLAT:??_R1A@?0A@EA@CGraphicBase@@8 ; CGraphicBase::`RTTI Base Class Array'
rdata$r	ENDS
;	COMDAT ??_R3CGraphicBase@@8
rdata$r	SEGMENT
??_R3CGraphicBase@@8 DD 00H				; CGraphicBase::`RTTI Class Hierarchy Descriptor'
	DD	00H
	DD	01H
	DD	FLAT:??_R2CGraphicBase@@8
rdata$r	ENDS
;	COMDAT ??_R0?AVCGraphicBase@@@8
data$rs	SEGMENT
??_R0?AVCGraphicBase@@@8 DD FLAT:??_7type_info@@6B@	; CGraphicBase `RTTI Type Descriptor'
	DD	00H
	DB	'.?AVCGraphicBase@@', 00H
data$rs	ENDS
;	COMDAT ??_R1A@?0A@EA@CGraphicBase@@8
rdata$r	SEGMENT
??_R1A@?0A@EA@CGraphicBase@@8 DD FLAT:??_R0?AVCGraphicBase@@@8 ; CGraphicBase::`RTTI Base Class Descriptor at (0,-1,0,64)'
	DD	00H
	DD	00H
	DD	0ffffffffH
	DD	00H
	DD	040H
	DD	FLAT:??_R3CGraphicBase@@8
rdata$r	ENDS
;	COMDAT ??_R1A@?0A@EA@CGrannyLODController@@8
rdata$r	SEGMENT
??_R1A@?0A@EA@CGrannyLODController@@8 DD FLAT:??_R0?AVCGrannyLODController@@@8 ; CGrannyLODController::`RTTI Base Class Descriptor at (0,-1,0,64)'
	DD	01H
	DD	00H
	DD	0ffffffffH
	DD	00H
	DD	040H
	DD	FLAT:??_R3CGrannyLODController@@8
rdata$r	ENDS
;	COMDAT ??_R2CGrannyLODController@@8
rdata$r	SEGMENT
??_R2CGrannyLODController@@8 DD FLAT:??_R1A@?0A@EA@CGrannyLODController@@8 ; CGrannyLODController::`RTTI Base Class Array'
	DD	FLAT:??_R1A@?0A@EA@CGraphicBase@@8
rdata$r	ENDS
;	COMDAT ??_R3CGrannyLODController@@8
rdata$r	SEGMENT
??_R3CGrannyLODController@@8 DD 00H			; CGrannyLODController::`RTTI Class Hierarchy Descriptor'
	DD	00H
	DD	02H
	DD	FLAT:??_R2CGrannyLODController@@8
rdata$r	ENDS
;	COMDAT ??_R0?AVCGrannyLODController@@@8
data$rs	SEGMENT
??_R0?AVCGrannyLODController@@@8 DD FLAT:??_7type_info@@6B@ ; CGrannyLODController `RTTI Type Descriptor'
	DD	00H
	DB	'.?AVCGrannyLODController@@', 00H
data$rs	ENDS
;	COMDAT ??_R4CGrannyLODController@@6B@
rdata$r	SEGMENT
??_R4CGrannyLODController@@6B@ DD 00H			; CGrannyLODController::`RTTI Complete Object Locator'
	DD	00H
	DD	00H
	DD	FLAT:??_R0?AVCGrannyLODController@@@8
	DD	FLAT:??_R3CGrannyLODController@@8
rdata$r	ENDS
;	COMDAT ??_R1A@?0A@EA@bad_array_new_length@std@@8
rdata$r	SEGMENT
??_R1A@?0A@EA@bad_array_new_length@std@@8 DD FLAT:??_R0?AVbad_array_new_length@std@@@8 ; std::bad_array_new_length::`RTTI Base Class Descriptor at (0,-1,0,64)'
	DD	02H
	DD	00H
	DD	0ffffffffH
	DD	00H
	DD	040H
	DD	FLAT:??_R3bad_array_new_length@std@@8
rdata$r	ENDS
;	COMDAT ??_R2bad_array_new_length@std@@8
rdata$r	SEGMENT
??_R2bad_array_new_length@std@@8 DD FLAT:??_R1A@?0A@EA@bad_array_new_length@std@@8 ; std::bad_array_new_length::`RTTI Base Class Array'
	DD	FLAT:??_R1A@?0A@EA@bad_alloc@std@@8
	DD	FLAT:??_R1A@?0A@EA@exception@std@@8
rdata$r	ENDS
;	COMDAT ??_R3bad_array_new_length@std@@8
rdata$r	SEGMENT
??_R3bad_array_new_length@std@@8 DD 00H			; std::bad_array_new_length::`RTTI Class Hierarchy Descriptor'
	DD	00H
	DD	03H
	DD	FLAT:??_R2bad_array_new_length@std@@8
rdata$r	ENDS
;	COMDAT ??_R4bad_array_new_length@std@@6B@
rdata$r	SEGMENT
??_R4bad_array_new_length@std@@6B@ DD 00H		; std::bad_array_new_length::`RTTI Complete Object Locator'
	DD	00H
	DD	00H
	DD	FLAT:??_R0?AVbad_array_new_length@std@@@8
	DD	FLAT:??_R3bad_array_new_length@std@@8
rdata$r	ENDS
;	COMDAT ??_R1A@?0A@EA@bad_alloc@std@@8
rdata$r	SEGMENT
??_R1A@?0A@EA@bad_alloc@std@@8 DD FLAT:??_R0?AVbad_alloc@std@@@8 ; std::bad_alloc::`RTTI Base Class Descriptor at (0,-1,0,64)'
	DD	01H
	DD	00H
	DD	0ffffffffH
	DD	00H
	DD	040H
	DD	FLAT:??_R3bad_alloc@std@@8
rdata$r	ENDS
;	COMDAT ??_R2bad_alloc@std@@8
rdata$r	SEGMENT
??_R2bad_alloc@std@@8 DD FLAT:??_R1A@?0A@EA@bad_alloc@std@@8 ; std::bad_alloc::`RTTI Base Class Array'
	DD	FLAT:??_R1A@?0A@EA@exception@std@@8
rdata$r	ENDS
;	COMDAT ??_R3bad_alloc@std@@8
rdata$r	SEGMENT
??_R3bad_alloc@std@@8 DD 00H				; std::bad_alloc::`RTTI Class Hierarchy Descriptor'
	DD	00H
	DD	02H
	DD	FLAT:??_R2bad_alloc@std@@8
rdata$r	ENDS
;	COMDAT ??_R4bad_alloc@std@@6B@
rdata$r	SEGMENT
??_R4bad_alloc@std@@6B@ DD 00H				; std::bad_alloc::`RTTI Complete Object Locator'
	DD	00H
	DD	00H
	DD	FLAT:??_R0?AVbad_alloc@std@@@8
	DD	FLAT:??_R3bad_alloc@std@@8
rdata$r	ENDS
;	COMDAT ??_R1A@?0A@EA@exception@std@@8
rdata$r	SEGMENT
??_R1A@?0A@EA@exception@std@@8 DD FLAT:??_R0?AVexception@std@@@8 ; std::exception::`RTTI Base Class Descriptor at (0,-1,0,64)'
	DD	00H
	DD	00H
	DD	0ffffffffH
	DD	00H
	DD	040H
	DD	FLAT:??_R3exception@std@@8
rdata$r	ENDS
;	COMDAT ??_R2exception@std@@8
rdata$r	SEGMENT
??_R2exception@std@@8 DD FLAT:??_R1A@?0A@EA@exception@std@@8 ; std::exception::`RTTI Base Class Array'
rdata$r	ENDS
;	COMDAT ??_R3exception@std@@8
rdata$r	SEGMENT
??_R3exception@std@@8 DD 00H				; std::exception::`RTTI Class Hierarchy Descriptor'
	DD	00H
	DD	01H
	DD	FLAT:??_R2exception@std@@8
rdata$r	ENDS
;	COMDAT ??_R4exception@std@@6B@
rdata$r	SEGMENT
??_R4exception@std@@6B@ DD 00H				; std::exception::`RTTI Complete Object Locator'
	DD	00H
	DD	00H
	DD	FLAT:??_R0?AVexception@std@@@8
	DD	FLAT:??_R3exception@std@@8
rdata$r	ENDS
;	COMDAT ??_C@_0BA@FOIKENOD@vector?5too?5long@
CONST	SEGMENT
??_C@_0BA@FOIKENOD@vector?5too?5long@ DB 'vector too long', 00H ; `string'
CONST	ENDS
;	COMDAT ??_C@_0BC@KBDMBKEH@deque?$DMT?$DO?5too?5long@
CONST	SEGMENT
??_C@_0BC@KBDMBKEH@deque?$DMT?$DO?5too?5long@ DB 'deque<T> too long', 00H ; `string'
CONST	ENDS
;	COMDAT ??_C@_0HN@JOABBJCG@CGrannyLODController?3?3RefreshAt@
CONST	SEGMENT
??_C@_0HN@JOABBJCG@CGrannyLODController?3?3RefreshAt@ DB 'CGrannyLODContr'
	DB	'oller::RefreshAttachedModelInstance : m_AttachedModelDataVect'
	DB	'or[%d]->pkLODController->GetModelIntance()==NULL', 00H ; `string'
CONST	ENDS
;	COMDAT ??_C@_0BG@IJPBENCD@NEW_ERROR?5?$CF8d?3?5?$CFd?$CI?$CFd?$CJ@
CONST	SEGMENT
??_C@_0BG@IJPBENCD@NEW_ERROR?5?$CF8d?3?5?$CFd?$CI?$CFd?$CJ@ DB 'NEW_ERROR'
	DB	' %8d: %d(%d)', 00H				; `string'
CONST	ENDS
_DATA	SEGMENT
?LODHEIGHT_ACTOR@@3MA DD 043fa0000r		; 500	; LODHEIGHT_ACTOR
?LODDISTANCE_ACTOR@@3MA DD 0459c4000r		; 5000	; LODDISTANCE_ACTOR
?LODDISTANCE_BUILDING@@3MA DD 046c35000r	; 25000	; LODDISTANCE_BUILDING
_DATA	ENDS
;	COMDAT ??_7CGrannyLODController@@6B@
CONST	SEGMENT
??_7CGrannyLODController@@6B@ DD FLAT:??_R4CGrannyLODController@@6B@ ; CGrannyLODController::`vftable'
	DD	FLAT:??_ECGrannyLODController@@UAEPAXI@Z
CONST	ENDS
;	COMDAT ??_C@_0BA@JFNIOLAK@string?5too?5long@
CONST	SEGMENT
??_C@_0BA@JFNIOLAK@string?5too?5long@ DB 'string too long', 00H ; `string'
CONST	ENDS
;	COMDAT __CT??_R0?AVexception@std@@@8??0exception@std@@QAE@ABV01@@Z12
xdata$x	SEGMENT
__CT??_R0?AVexception@std@@@8??0exception@std@@QAE@ABV01@@Z12 DD 00H
	DD	FLAT:??_R0?AVexception@std@@@8
	DD	00H
	DD	0ffffffffH
	ORG $+4
	DD	0cH
	DD	FLAT:??0exception@std@@QAE@ABV01@@Z
xdata$x	ENDS
;	COMDAT ??_R0?AVexception@std@@@8
data$r	SEGMENT
??_R0?AVexception@std@@@8 DD FLAT:??_7type_info@@6B@	; std::exception `RTTI Type Descriptor'
	DD	00H
	DB	'.?AVexception@std@@', 00H
data$r	ENDS
;	COMDAT __CT??_R0?AVbad_alloc@std@@@8??0bad_alloc@std@@QAE@ABV01@@Z12
xdata$x	SEGMENT
__CT??_R0?AVbad_alloc@std@@@8??0bad_alloc@std@@QAE@ABV01@@Z12 DD 010H
	DD	FLAT:??_R0?AVbad_alloc@std@@@8
	DD	00H
	DD	0ffffffffH
	ORG $+4
	DD	0cH
	DD	FLAT:??0bad_alloc@std@@QAE@ABV01@@Z
xdata$x	ENDS
;	COMDAT ??_R0?AVbad_alloc@std@@@8
data$r	SEGMENT
??_R0?AVbad_alloc@std@@@8 DD FLAT:??_7type_info@@6B@	; std::bad_alloc `RTTI Type Descriptor'
	DD	00H
	DB	'.?AVbad_alloc@std@@', 00H
data$r	ENDS
;	COMDAT __CT??_R0?AVbad_array_new_length@std@@@8??0bad_array_new_length@std@@QAE@ABV01@@Z12
xdata$x	SEGMENT
__CT??_R0?AVbad_array_new_length@std@@@8??0bad_array_new_length@std@@QAE@ABV01@@Z12 DD 00H
	DD	FLAT:??_R0?AVbad_array_new_length@std@@@8
	DD	00H
	DD	0ffffffffH
	ORG $+4
	DD	0cH
	DD	FLAT:??0bad_array_new_length@std@@QAE@ABV01@@Z
xdata$x	ENDS
;	COMDAT ??_R0?AVbad_array_new_length@std@@@8
data$r	SEGMENT
??_R0?AVbad_array_new_length@std@@@8 DD FLAT:??_7type_info@@6B@ ; std::bad_array_new_length `RTTI Type Descriptor'
	DD	00H
	DB	'.?AVbad_array_new_length@std@@', 00H
data$r	ENDS
;	COMDAT __CTA3?AVbad_array_new_length@std@@
xdata$x	SEGMENT
__CTA3?AVbad_array_new_length@std@@ DD 03H
	DD	FLAT:__CT??_R0?AVbad_array_new_length@std@@@8??0bad_array_new_length@std@@QAE@ABV01@@Z12
	DD	FLAT:__CT??_R0?AVbad_alloc@std@@@8??0bad_alloc@std@@QAE@ABV01@@Z12
	DD	FLAT:__CT??_R0?AVexception@std@@@8??0exception@std@@QAE@ABV01@@Z12
xdata$x	ENDS
;	COMDAT __TI3?AVbad_array_new_length@std@@
xdata$x	SEGMENT
__TI3?AVbad_array_new_length@std@@ DD 00H
	DD	FLAT:??1bad_array_new_length@std@@UAE@XZ
	DD	00H
	DD	FLAT:__CTA3?AVbad_array_new_length@std@@
xdata$x	ENDS
;	COMDAT ??_C@_0BF@KINCDENJ@bad?5array?5new?5length@
CONST	SEGMENT
??_C@_0BF@KINCDENJ@bad?5array?5new?5length@ DB 'bad array new length', 00H ; `string'
CONST	ENDS
;	COMDAT ??_7bad_array_new_length@std@@6B@
CONST	SEGMENT
??_7bad_array_new_length@std@@6B@ DD FLAT:??_R4bad_array_new_length@std@@6B@ ; std::bad_array_new_length::`vftable'
	DD	FLAT:??_Ebad_array_new_length@std@@UAEPAXI@Z
	DD	FLAT:?what@exception@std@@UBEPBDXZ
CONST	ENDS
;	COMDAT ??_7bad_alloc@std@@6B@
CONST	SEGMENT
??_7bad_alloc@std@@6B@ DD FLAT:??_R4bad_alloc@std@@6B@	; std::bad_alloc::`vftable'
	DD	FLAT:??_Ebad_alloc@std@@UAEPAXI@Z
	DD	FLAT:?what@exception@std@@UBEPBDXZ
CONST	ENDS
;	COMDAT ??_C@_0BC@EOODALEL@Unknown?5exception@
CONST	SEGMENT
??_C@_0BC@EOODALEL@Unknown?5exception@ DB 'Unknown exception', 00H ; `string'
CONST	ENDS
;	COMDAT ??_7exception@std@@6B@
CONST	SEGMENT
??_7exception@std@@6B@ DD FLAT:??_R4exception@std@@6B@	; std::exception::`vftable'
	DD	FLAT:??_Eexception@std@@UAEPAXI@Z
	DD	FLAT:?what@exception@std@@UBEPBDXZ
CONST	ENDS
;	COMDAT xdata$x
xdata$x	SEGMENT
__unwindtable$??$_Uninitialized_move@PAUSAttachingModelData@CGrannyLODController@@V?$allocator@USAttachingModelData@CGrannyLODController@@@std@@@std@@YAPAUSAttachingModelData@CGrannyLODController@@QAU12@0PAU12@AAV?$allocator@USAttachingModelData@CGrannyLODController@@@0@@Z DD 0ffffffffH
	DD	FLAT:__unwindfunclet$??$_Uninitialized_move@PAUSAttachingModelData@CGrannyLODController@@V?$allocator@USAttachingModelData@CGrannyLODController@@@std@@@std@@YAPAUSAttachingModelData@CGrannyLODController@@QAU12@0PAU12@AAV?$allocator@USAttachingModelData@CGrannyLODController@@@0@@Z$0
__ehfuncinfo$??$_Uninitialized_move@PAUSAttachingModelData@CGrannyLODController@@V?$allocator@USAttachingModelData@CGrannyLODController@@@std@@@std@@YAPAUSAttachingModelData@CGrannyLODController@@QAU12@0PAU12@AAV?$allocator@USAttachingModelData@CGrannyLODController@@@0@@Z DD 019930522H
	DD	01H
	DD	FLAT:__unwindtable$??$_Uninitialized_move@PAUSAttachingModelData@CGrannyLODController@@V?$allocator@USAttachingModelData@CGrannyLODController@@@std@@@std@@YAPAUSAttachingModelData@CGrannyLODController@@QAU12@0PAU12@AAV?$allocator@USAttachingModelData@CGrannyLODController@@@0@@Z
	DD	2 DUP(00H)
	DD	2 DUP(00H)
	DD	00H
	DD	01H
xdata$x	ENDS
;	COMDAT xdata$x
xdata$x	SEGMENT
__ehfuncinfo$??$_Deallocate@$07$0A@@std@@YAXPAXI@Z DD 019930522H
	DD	00H
	DD	00H
	DD	2 DUP(00H)
	DD	2 DUP(00H)
	DD	00H
	DD	05H
xdata$x	ENDS
;	COMDAT xdata$x
xdata$x	SEGMENT
__catchsym$??$_Emplace_reallocate@ABUSAttachingModelData@CGrannyLODController@@@?$vector@USAttachingModelData@CGrannyLODController@@V?$allocator@USAttachingModelData@CGrannyLODController@@@std@@@std@@QAEPAUSAttachingModelData@CGrannyLODController@@QAU23@ABU23@@Z$40 DD 040H
	DD	00H
	DD	00H
	DD	FLAT:__catch$??$_Emplace_reallocate@ABUSAttachingModelData@CGrannyLODController@@@?$vector@USAttachingModelData@CGrannyLODController@@V?$allocator@USAttachingModelData@CGrannyLODController@@@std@@@std@@QAEPAUSAttachingModelData@CGrannyLODController@@QAU23@ABU23@@Z$0
__unwindtable$??$_Emplace_reallocate@ABUSAttachingModelData@CGrannyLODController@@@?$vector@USAttachingModelData@CGrannyLODController@@V?$allocator@USAttachingModelData@CGrannyLODController@@@std@@@std@@QAEPAUSAttachingModelData@CGrannyLODController@@QAU23@ABU23@@Z DD 0ffffffffH
	DD	00H
	DD	0ffffffffH
	DD	00H
__tryblocktable$??$_Emplace_reallocate@ABUSAttachingModelData@CGrannyLODController@@@?$vector@USAttachingModelData@CGrannyLODController@@V?$allocator@USAttachingModelData@CGrannyLODController@@@std@@@std@@QAEPAUSAttachingModelData@CGrannyLODController@@QAU23@ABU23@@Z DD 00H
	DD	00H
	DD	01H
	DD	01H
	DD	FLAT:__catchsym$??$_Emplace_reallocate@ABUSAttachingModelData@CGrannyLODController@@@?$vector@USAttachingModelData@CGrannyLODController@@V?$allocator@USAttachingModelData@CGrannyLODController@@@std@@@std@@QAEPAUSAttachingModelData@CGrannyLODController@@QAU23@ABU23@@Z$40
__ehfuncinfo$??$_Emplace_reallocate@ABUSAttachingModelData@CGrannyLODController@@@?$vector@USAttachingModelData@CGrannyLODController@@V?$allocator@USAttachingModelData@CGrannyLODController@@@std@@@std@@QAEPAUSAttachingModelData@CGrannyLODController@@QAU23@ABU23@@Z DD 019930522H
	DD	02H
	DD	FLAT:__unwindtable$??$_Emplace_reallocate@ABUSAttachingModelData@CGrannyLODController@@@?$vector@USAttachingModelData@CGrannyLODController@@V?$allocator@USAttachingModelData@CGrannyLODController@@@std@@@std@@QAEPAUSAttachingModelData@CGrannyLODController@@QAU23@ABU23@@Z
	DD	01H
	DD	FLAT:__tryblocktable$??$_Emplace_reallocate@ABUSAttachingModelData@CGrannyLODController@@@?$vector@USAttachingModelData@CGrannyLODController@@V?$allocator@USAttachingModelData@CGrannyLODController@@@std@@@std@@QAEPAUSAttachingModelData@CGrannyLODController@@QAU23@ABU23@@Z
	DD	2 DUP(00H)
	DD	00H
	DD	01H
xdata$x	ENDS
;	COMDAT xdata$x
xdata$x	SEGMENT
__catchsym$??$_Emplace_reallocate@ABQAVCGraphicVertexBuffer@@@?$vector@PAVCGraphicVertexBuffer@@V?$allocator@PAVCGraphicVertexBuffer@@@std@@@std@@QAEPAPAVCGraphicVertexBuffer@@QAPAV2@ABQAV2@@Z$32 DD 040H
	DD	00H
	DD	00H
	DD	FLAT:__catch$??$_Emplace_reallocate@ABQAVCGraphicVertexBuffer@@@?$vector@PAVCGraphicVertexBuffer@@V?$allocator@PAVCGraphicVertexBuffer@@@std@@@std@@QAEPAPAVCGraphicVertexBuffer@@QAPAV2@ABQAV2@@Z$0
__unwindtable$??$_Emplace_reallocate@ABQAVCGraphicVertexBuffer@@@?$vector@PAVCGraphicVertexBuffer@@V?$allocator@PAVCGraphicVertexBuffer@@@std@@@std@@QAEPAPAVCGraphicVertexBuffer@@QAPAV2@ABQAV2@@Z DD 0ffffffffH
	DD	00H
	DD	0ffffffffH
	DD	00H
__tryblocktable$??$_Emplace_reallocate@ABQAVCGraphicVertexBuffer@@@?$vector@PAVCGraphicVertexBuffer@@V?$allocator@PAVCGraphicVertexBuffer@@@std@@@std@@QAEPAPAVCGraphicVertexBuffer@@QAPAV2@ABQAV2@@Z DD 00H
	DD	00H
	DD	01H
	DD	01H
	DD	FLAT:__catchsym$??$_Emplace_reallocate@ABQAVCGraphicVertexBuffer@@@?$vector@PAVCGraphicVertexBuffer@@V?$allocator@PAVCGraphicVertexBuffer@@@std@@@std@@QAEPAPAVCGraphicVertexBuffer@@QAPAV2@ABQAV2@@Z$32
__ehfuncinfo$??$_Emplace_reallocate@ABQAVCGraphicVertexBuffer@@@?$vector@PAVCGraphicVertexBuffer@@V?$allocator@PAVCGraphicVertexBuffer@@@std@@@std@@QAEPAPAVCGraphicVertexBuffer@@QAPAV2@ABQAV2@@Z DD 019930522H
	DD	02H
	DD	FLAT:__unwindtable$??$_Emplace_reallocate@ABQAVCGraphicVertexBuffer@@@?$vector@PAVCGraphicVertexBuffer@@V?$allocator@PAVCGraphicVertexBuffer@@@std@@@std@@QAEPAPAVCGraphicVertexBuffer@@QAPAV2@ABQAV2@@Z
	DD	01H
	DD	FLAT:__tryblocktable$??$_Emplace_reallocate@ABQAVCGraphicVertexBuffer@@@?$vector@PAVCGraphicVertexBuffer@@V?$allocator@PAVCGraphicVertexBuffer@@@std@@@std@@QAEPAPAVCGraphicVertexBuffer@@QAPAV2@ABQAV2@@Z
	DD	2 DUP(00H)
	DD	00H
	DD	01H
xdata$x	ENDS
;	COMDAT xdata$x
xdata$x	SEGMENT
__unwindtable$??$for_each@V?$_Deque_iterator@V?$_Deque_val@U?$_Deque_simple_types@PAVCGrannyModelInstance@@@std@@@std@@@std@@UFDestroyDeviceObjects@CGrannyModelInstance@@@std@@YA?AUFDestroyDeviceObjects@CGrannyModelInstance@@V?$_Deque_iterator@V?$_Deque_val@U?$_Deque_simple_types@PAVCGrannyModelInstance@@@std@@@std@@@0@0U12@@Z DD 0ffffffffH
	DD	FLAT:__unwindfunclet$??$for_each@V?$_Deque_iterator@V?$_Deque_val@U?$_Deque_simple_types@PAVCGrannyModelInstance@@@std@@@std@@@std@@UFDestroyDeviceObjects@CGrannyModelInstance@@@std@@YA?AUFDestroyDeviceObjects@CGrannyModelInstance@@V?$_Deque_iterator@V?$_Deque_val@U?$_Deque_simple_types@PAVCGrannyModelInstance@@@std@@@std@@@0@0U12@@Z$0
	DD	00H
	DD	FLAT:__unwindfunclet$??$for_each@V?$_Deque_iterator@V?$_Deque_val@U?$_Deque_simple_types@PAVCGrannyModelInstance@@@std@@@std@@@std@@UFDestroyDeviceObjects@CGrannyModelInstance@@@std@@YA?AUFDestroyDeviceObjects@CGrannyModelInstance@@V?$_Deque_iterator@V?$_Deque_val@U?$_Deque_simple_types@PAVCGrannyModelInstance@@@std@@@std@@@0@0U12@@Z$1
__ehfuncinfo$??$for_each@V?$_Deque_iterator@V?$_Deque_val@U?$_Deque_simple_types@PAVCGrannyModelInstance@@@std@@@std@@@std@@UFDestroyDeviceObjects@CGrannyModelInstance@@@std@@YA?AUFDestroyDeviceObjects@CGrannyModelInstance@@V?$_Deque_iterator@V?$_Deque_val@U?$_Deque_simple_types@PAVCGrannyModelInstance@@@std@@@std@@@0@0U12@@Z DD 019930522H
	DD	02H
	DD	FLAT:__unwindtable$??$for_each@V?$_Deque_iterator@V?$_Deque_val@U?$_Deque_simple_types@PAVCGrannyModelInstance@@@std@@@std@@@std@@UFDestroyDeviceObjects@CGrannyModelInstance@@@std@@YA?AUFDestroyDeviceObjects@CGrannyModelInstance@@V?$_Deque_iterator@V?$_Deque_val@U?$_Deque_simple_types@PAVCGrannyModelInstance@@@std@@@std@@@0@0U12@@Z
	DD	2 DUP(00H)
	DD	2 DUP(00H)
	DD	00H
	DD	01H
xdata$x	ENDS
;	COMDAT xdata$x
xdata$x	SEGMENT
__unwindtable$??$for_each@V?$_Deque_iterator@V?$_Deque_val@U?$_Deque_simple_types@PAVCGrannyModelInstance@@@std@@@std@@@std@@UFCreateDeviceObjects@CGrannyModelInstance@@@std@@YA?AUFCreateDeviceObjects@CGrannyModelInstance@@V?$_Deque_iterator@V?$_Deque_val@U?$_Deque_simple_types@PAVCGrannyModelInstance@@@std@@@std@@@0@0U12@@Z DD 0ffffffffH
	DD	FLAT:__unwindfunclet$??$for_each@V?$_Deque_iterator@V?$_Deque_val@U?$_Deque_simple_types@PAVCGrannyModelInstance@@@std@@@std@@@std@@UFCreateDeviceObjects@CGrannyModelInstance@@@std@@YA?AUFCreateDeviceObjects@CGrannyModelInstance@@V?$_Deque_iterator@V?$_Deque_val@U?$_Deque_simple_types@PAVCGrannyModelInstance@@@std@@@std@@@0@0U12@@Z$0
	DD	00H
	DD	FLAT:__unwindfunclet$??$for_each@V?$_Deque_iterator@V?$_Deque_val@U?$_Deque_simple_types@PAVCGrannyModelInstance@@@std@@@std@@@std@@UFCreateDeviceObjects@CGrannyModelInstance@@@std@@YA?AUFCreateDeviceObjects@CGrannyModelInstance@@V?$_Deque_iterator@V?$_Deque_val@U?$_Deque_simple_types@PAVCGrannyModelInstance@@@std@@@std@@@0@0U12@@Z$1
__ehfuncinfo$??$for_each@V?$_Deque_iterator@V?$_Deque_val@U?$_Deque_simple_types@PAVCGrannyModelInstance@@@std@@@std@@@std@@UFCreateDeviceObjects@CGrannyModelInstance@@@std@@YA?AUFCreateDeviceObjects@CGrannyModelInstance@@V?$_Deque_iterator@V?$_Deque_val@U?$_Deque_simple_types@PAVCGrannyModelInstance@@@std@@@std@@@0@0U12@@Z DD 019930522H
	DD	02H
	DD	FLAT:__unwindtable$??$for_each@V?$_Deque_iterator@V?$_Deque_val@U?$_Deque_simple_types@PAVCGrannyModelInstance@@@std@@@std@@@std@@UFCreateDeviceObjects@CGrannyModelInstance@@@std@@YA?AUFCreateDeviceObjects@CGrannyModelInstance@@V?$_Deque_iterator@V?$_Deque_val@U?$_Deque_simple_types@PAVCGrannyModelInstance@@@std@@@std@@@0@0U12@@Z
	DD	2 DUP(00H)
	DD	2 DUP(00H)
	DD	00H
	DD	01H
xdata$x	ENDS
;	COMDAT xdata$x
xdata$x	SEGMENT
__unwindtable$??$for_each@V?$_Deque_iterator@V?$_Deque_val@U?$_Deque_simple_types@PAVCGrannyModelInstance@@@std@@@std@@@std@@P6AXPAVCGrannyModelInstance@@@Z@std@@YAP6AXPAVCGrannyModelInstance@@@ZV?$_Deque_iterator@V?$_Deque_val@U?$_Deque_simple_types@PAVCGrannyModelInstance@@@std@@@std@@@0@1P6AX0@Z@Z DD 0ffffffffH
	DD	FLAT:__unwindfunclet$??$for_each@V?$_Deque_iterator@V?$_Deque_val@U?$_Deque_simple_types@PAVCGrannyModelInstance@@@std@@@std@@@std@@P6AXPAVCGrannyModelInstance@@@Z@std@@YAP6AXPAVCGrannyModelInstance@@@ZV?$_Deque_iterator@V?$_Deque_val@U?$_Deque_simple_types@PAVCGrannyModelInstance@@@std@@@std@@@0@1P6AX0@Z@Z$0
	DD	00H
	DD	FLAT:__unwindfunclet$??$for_each@V?$_Deque_iterator@V?$_Deque_val@U?$_Deque_simple_types@PAVCGrannyModelInstance@@@std@@@std@@@std@@P6AXPAVCGrannyModelInstance@@@Z@std@@YAP6AXPAVCGrannyModelInstance@@@ZV?$_Deque_iterator@V?$_Deque_val@U?$_Deque_simple_types@PAVCGrannyModelInstance@@@std@@@std@@@0@1P6AX0@Z@Z$1
__ehfuncinfo$??$for_each@V?$_Deque_iterator@V?$_Deque_val@U?$_Deque_simple_types@PAVCGrannyModelInstance@@@std@@@std@@@std@@P6AXPAVCGrannyModelInstance@@@Z@std@@YAP6AXPAVCGrannyModelInstance@@@ZV?$_Deque_iterator@V?$_Deque_val@U?$_Deque_simple_types@PAVCGrannyModelInstance@@@std@@@std@@@0@1P6AX0@Z@Z DD 019930522H
	DD	02H
	DD	FLAT:__unwindtable$??$for_each@V?$_Deque_iterator@V?$_Deque_val@U?$_Deque_simple_types@PAVCGrannyModelInstance@@@std@@@std@@@std@@P6AXPAVCGrannyModelInstance@@@Z@std@@YAP6AXPAVCGrannyModelInstance@@@ZV?$_Deque_iterator@V?$_Deque_val@U?$_Deque_simple_types@PAVCGrannyModelInstance@@@std@@@std@@@0@1P6AX0@Z@Z
	DD	2 DUP(00H)
	DD	2 DUP(00H)
	DD	00H
	DD	01H
xdata$x	ENDS
;	COMDAT xdata$x
xdata$x	SEGMENT
__unwindtable$?__ReserveSharedVertexBuffers@@YAXII@Z DD 0ffffffffH
	DD	FLAT:__unwindfunclet$?__ReserveSharedVertexBuffers@@YAXII@Z$0
__ehfuncinfo$?__ReserveSharedVertexBuffers@@YAXII@Z DD 019930522H
	DD	01H
	DD	FLAT:__unwindtable$?__ReserveSharedVertexBuffers@@YAXII@Z
	DD	2 DUP(00H)
	DD	2 DUP(00H)
	DD	00H
	DD	01H
xdata$x	ENDS
;	COMDAT xdata$x
xdata$x	SEGMENT
__unwindtable$?__AllocDeformVertexBuffer@@YAPAVCGraphicVertexBuffer@@I@Z DD 0ffffffffH
	DD	FLAT:__unwindfunclet$?__AllocDeformVertexBuffer@@YAPAVCGraphicVertexBuffer@@I@Z$0
__ehfuncinfo$?__AllocDeformVertexBuffer@@YAPAVCGraphicVertexBuffer@@I@Z DD 019930522H
	DD	01H
	DD	FLAT:__unwindtable$?__AllocDeformVertexBuffer@@YAPAVCGraphicVertexBuffer@@I@Z
	DD	2 DUP(00H)
	DD	2 DUP(00H)
	DD	00H
	DD	01H
xdata$x	ENDS
;	COMDAT xdata$x
xdata$x	SEGMENT
__unwindtable$?DeformAll@CGrannyLODController@@QAEXPBUD3DXMATRIX@@@Z DD 0ffffffffH
	DD	FLAT:__unwindfunclet$?DeformAll@CGrannyLODController@@QAEXPBUD3DXMATRIX@@@Z$0
__ehfuncinfo$?DeformAll@CGrannyLODController@@QAEXPBUD3DXMATRIX@@@Z DD 019930522H
	DD	01H
	DD	FLAT:__unwindtable$?DeformAll@CGrannyLODController@@QAEXPBUD3DXMATRIX@@@Z
	DD	2 DUP(00H)
	DD	2 DUP(00H)
	DD	00H
	DD	01H
xdata$x	ENDS
;	COMDAT xdata$x
xdata$x	SEGMENT
__unwindtable$?SetSpecularInfo@CGrannyLODController@@QAEXPBDHM@Z DD 0ffffffffH
	DD	FLAT:__unwindfunclet$?SetSpecularInfo@CGrannyLODController@@QAEXPBDHM@Z$0
__ehfuncinfo$?SetSpecularInfo@CGrannyLODController@@QAEXPBDHM@Z DD 019930522H
	DD	01H
	DD	FLAT:__unwindtable$?SetSpecularInfo@CGrannyLODController@@QAEXPBDHM@Z
	DD	2 DUP(00H)
	DD	2 DUP(00H)
	DD	00H
	DD	01H
xdata$x	ENDS
;	COMDAT xdata$x
xdata$x	SEGMENT
__unwindtable$?SetMaterialData@CGrannyLODController@@QAEXPBDABUSMaterialData@@@Z DD 0ffffffffH
	DD	FLAT:__unwindfunclet$?SetMaterialData@CGrannyLODController@@QAEXPBDABUSMaterialData@@@Z$0
__ehfuncinfo$?SetMaterialData@CGrannyLODController@@QAEXPBDABUSMaterialData@@@Z DD 019930522H
	DD	01H
	DD	FLAT:__unwindtable$?SetMaterialData@CGrannyLODController@@QAEXPBDABUSMaterialData@@@Z
	DD	2 DUP(00H)
	DD	2 DUP(00H)
	DD	00H
	DD	01H
xdata$x	ENDS
;	COMDAT xdata$x
xdata$x	SEGMENT
__unwindtable$?SetMaterialImagePointer@CGrannyLODController@@QAEXPBDPAVCGraphicImage@@@Z DD 0ffffffffH
	DD	FLAT:__unwindfunclet$?SetMaterialImagePointer@CGrannyLODController@@QAEXPBDPAVCGraphicImage@@@Z$0
__ehfuncinfo$?SetMaterialImagePointer@CGrannyLODController@@QAEXPBDPAVCGraphicImage@@@Z DD 019930522H
	DD	01H
	DD	FLAT:__unwindtable$?SetMaterialImagePointer@CGrannyLODController@@QAEXPBDPAVCGraphicImage@@@Z
	DD	2 DUP(00H)
	DD	2 DUP(00H)
	DD	00H
	DD	01H
xdata$x	ENDS
;	COMDAT xdata$x
xdata$x	SEGMENT
__unwindtable$?AttachModelInstance@CGrannyLODController@@QAEXPAV1@PBD@Z DD 0ffffffffH
	DD	FLAT:__unwindfunclet$?AttachModelInstance@CGrannyLODController@@QAEXPAV1@PBD@Z$0
__ehfuncinfo$?AttachModelInstance@CGrannyLODController@@QAEXPAV1@PBD@Z DD 019930522H
	DD	01H
	DD	FLAT:__unwindtable$?AttachModelInstance@CGrannyLODController@@QAEXPAV1@PBD@Z
	DD	2 DUP(00H)
	DD	2 DUP(00H)
	DD	00H
	DD	01H
xdata$x	ENDS
;	COMDAT xdata$x
xdata$x	SEGMENT
__ehfuncinfo$??1CGrannyLODController@@UAE@XZ DD 019930522H
	DD	00H
	DD	00H
	DD	2 DUP(00H)
	DD	2 DUP(00H)
	DD	00H
	DD	05H
xdata$x	ENDS
;	COMDAT xdata$x
xdata$x	SEGMENT
__unwindtable$??0CGrannyLODController@@QAE@XZ DD 0ffffffffH
	DD	FLAT:__unwindfunclet$??0CGrannyLODController@@QAE@XZ$0
	DD	00H
	DD	FLAT:__unwindfunclet$??0CGrannyLODController@@QAE@XZ$1
__ehfuncinfo$??0CGrannyLODController@@QAE@XZ DD 019930522H
	DD	02H
	DD	FLAT:__unwindtable$??0CGrannyLODController@@QAE@XZ
	DD	2 DUP(00H)
	DD	2 DUP(00H)
	DD	00H
	DD	01H
xdata$x	ENDS
;	COMDAT xdata$x
xdata$x	SEGMENT
__unwindtable$??0?$basic_string@DU?$char_traits@D@std@@V?$allocator@D@2@@std@@QAE@ABV01@@Z DD 0ffffffffH
	DD	FLAT:__unwindfunclet$??0?$basic_string@DU?$char_traits@D@std@@V?$allocator@D@2@@std@@QAE@ABV01@@Z$0
__ehfuncinfo$??0?$basic_string@DU?$char_traits@D@std@@V?$allocator@D@2@@std@@QAE@ABV01@@Z DD 019930522H
	DD	01H
	DD	FLAT:__unwindtable$??0?$basic_string@DU?$char_traits@D@std@@V?$allocator@D@2@@std@@QAE@ABV01@@Z
	DD	2 DUP(00H)
	DD	2 DUP(00H)
	DD	00H
	DD	01H
xdata$x	ENDS
CRT$XCU	SEGMENT
?gs_emptyVB$initializer$@@3P6AXXZA DD FLAT:??__Egs_emptyVB@@YAXXZ ; gs_emptyVB$initializer$
CRT$XCU	ENDS
; Function compile flags: /Odspy
; File C:\Program Files (x86)\Microsoft Visual Studio\2019\Community\VC\Tools\MSVC\14.28.29333\include\xmemory
; File C:\Program Files (x86)\Microsoft Visual Studio\2019\Community\VC\Tools\MSVC\14.28.29333\include\type_traits
; File C:\Program Files (x86)\Microsoft Visual Studio\2019\Community\VC\Tools\MSVC\14.28.29333\include\xmemory
; File C:\Program Files (x86)\Microsoft Visual Studio\2019\Community\VC\Tools\MSVC\14.28.29333\include\xstddef
; File C:\Program Files (x86)\Microsoft Visual Studio\2019\Community\VC\Tools\MSVC\14.28.29333\include\xmemory
; File C:\Program Files (x86)\Microsoft Visual Studio\2019\Community\VC\Tools\MSVC\14.28.29333\include\vcruntime_new.h
; File C:\Program Files (x86)\Microsoft Visual Studio\2019\Community\VC\Tools\MSVC\14.28.29333\include\type_traits
; File C:\Program Files (x86)\Microsoft Visual Studio\2019\Community\VC\Tools\MSVC\14.28.29333\include\xmemory
;	COMDAT ??$_Emplace_back@USAttachingModelData@CGrannyLODController@@@?$_Uninitialized_backout_al@V?$allocator@USAttachingModelData@CGrannyLODController@@@std@@@std@@QAEX$$QAUSAttachingModelData@CGrannyLODController@@@Z
_TEXT	SEGMENT
___formal$ = -28					; size = 4
$T1 = -24						; size = 4
$T2 = -20						; size = 4
__Ptr$ = -16						; size = 4
$T3 = -12						; size = 4
$T4 = -8						; size = 4
_this$ = -4						; size = 4
_<_Vals_0>$ = 8						; size = 4
??$_Emplace_back@USAttachingModelData@CGrannyLODController@@@?$_Uninitialized_backout_al@V?$allocator@USAttachingModelData@CGrannyLODController@@@std@@@std@@QAEX$$QAUSAttachingModelData@CGrannyLODController@@@Z PROC ; std::_Uninitialized_backout_al<std::allocator<CGrannyLODController::SAttachingModelData> >::_Emplace_back<CGrannyLODController::SAttachingModelData>, COMDAT
; _this$ = ecx

; 1545 :     void _Emplace_back(_Types&&... _Vals) { // construct a new element at *_Last and increment

  00000	55		 push	 ebp
  00001	8b ec		 mov	 ebp, esp
  00003	83 ec 1c	 sub	 esp, 28			; 0000001cH
  00006	89 4d fc	 mov	 DWORD PTR _this$[ebp], ecx
; File C:\Program Files (x86)\Microsoft Visual Studio\2019\Community\VC\Tools\MSVC\14.28.29333\include\type_traits

; 1443 :     return static_cast<_Ty&&>(_Arg);

  00009	8b 45 08	 mov	 eax, DWORD PTR _<_Vals_0>$[ebp]
  0000c	89 45 e8	 mov	 DWORD PTR $T1[ebp], eax
; File C:\Program Files (x86)\Microsoft Visual Studio\2019\Community\VC\Tools\MSVC\14.28.29333\include\xmemory

; 1546 :         allocator_traits<_Alloc>::construct(_Al, _Unfancy(_Last), _STD forward<_Types>(_Vals)...);

  0000f	8b 45 fc	 mov	 eax, DWORD PTR _this$[ebp]
  00012	8b 40 04	 mov	 eax, DWORD PTR [eax+4]
  00015	89 45 f0	 mov	 DWORD PTR __Ptr$[ebp], eax
; File C:\Program Files (x86)\Microsoft Visual Studio\2019\Community\VC\Tools\MSVC\14.28.29333\include\xstddef

; 289  :     return _Ptr;

  00018	8b 45 f0	 mov	 eax, DWORD PTR __Ptr$[ebp]
  0001b	89 45 ec	 mov	 DWORD PTR $T2[ebp], eax
; File C:\Program Files (x86)\Microsoft Visual Studio\2019\Community\VC\Tools\MSVC\14.28.29333\include\xmemory

; 1546 :         allocator_traits<_Alloc>::construct(_Al, _Unfancy(_Last), _STD forward<_Types>(_Vals)...);

  0001e	8b 45 fc	 mov	 eax, DWORD PTR _this$[ebp]
  00021	8b 40 08	 mov	 eax, DWORD PTR [eax+8]
  00024	89 45 e4	 mov	 DWORD PTR ___formal$[ebp], eax
; File C:\Program Files (x86)\Microsoft Visual Studio\2019\Community\VC\Tools\MSVC\14.28.29333\include\vcruntime_new.h

; 169  :         return _Where;

  00027	8b 45 ec	 mov	 eax, DWORD PTR $T2[ebp]
  0002a	89 45 f4	 mov	 DWORD PTR $T3[ebp], eax
; File C:\Program Files (x86)\Microsoft Visual Studio\2019\Community\VC\Tools\MSVC\14.28.29333\include\type_traits

; 1443 :     return static_cast<_Ty&&>(_Arg);

  0002d	8b 45 e8	 mov	 eax, DWORD PTR $T1[ebp]
  00030	89 45 f8	 mov	 DWORD PTR $T4[ebp], eax
  00033	8b 45 f4	 mov	 eax, DWORD PTR $T3[ebp]
  00036	8b 4d f8	 mov	 ecx, DWORD PTR $T4[ebp]
  00039	8b 09		 mov	 ecx, DWORD PTR [ecx]
  0003b	89 08		 mov	 DWORD PTR [eax], ecx
  0003d	8b 45 f8	 mov	 eax, DWORD PTR $T4[ebp]
  00040	83 c0 04	 add	 eax, 4
  00043	50		 push	 eax
  00044	8b 4d f4	 mov	 ecx, DWORD PTR $T3[ebp]
  00047	83 c1 04	 add	 ecx, 4
  0004a	e8 00 00 00 00	 call	 ??0?$basic_string@DU?$char_traits@D@std@@V?$allocator@D@2@@std@@QAE@$$QAV01@@Z ; std::basic_string<char,std::char_traits<char>,std::allocator<char> >::basic_string<char,std::char_traits<char>,std::allocator<char> >
; File C:\Program Files (x86)\Microsoft Visual Studio\2019\Community\VC\Tools\MSVC\14.28.29333\include\xmemory

; 1547 :         ++_Last;

  0004f	8b 45 fc	 mov	 eax, DWORD PTR _this$[ebp]
  00052	8b 40 04	 mov	 eax, DWORD PTR [eax+4]
  00055	83 c0 1c	 add	 eax, 28			; 0000001cH
  00058	8b 4d fc	 mov	 ecx, DWORD PTR _this$[ebp]
  0005b	89 41 04	 mov	 DWORD PTR [ecx+4], eax

; 1548 :     }

  0005e	c9		 leave
  0005f	c2 04 00	 ret	 4
??$_Emplace_back@USAttachingModelData@CGrannyLODController@@@?$_Uninitialized_backout_al@V?$allocator@USAttachingModelData@CGrannyLODController@@@std@@@std@@QAEX$$QAUSAttachingModelData@CGrannyLODController@@@Z ENDP ; std::_Uninitialized_backout_al<std::allocator<CGrannyLODController::SAttachingModelData> >::_Emplace_back<CGrannyLODController::SAttachingModelData>
_TEXT	ENDS
; Function compile flags: /Odspy
; File C:\Program Files (x86)\Microsoft Visual Studio\2019\Community\VC\Tools\MSVC\14.28.29333\include\xmemory
;	COMDAT ??1?$_Uninitialized_backout_al@V?$allocator@USAttachingModelData@CGrannyLODController@@@std@@@std@@QAE@XZ
_TEXT	SEGMENT
_this$ = -4						; size = 4
??1?$_Uninitialized_backout_al@V?$allocator@USAttachingModelData@CGrannyLODController@@@std@@@std@@QAE@XZ PROC ; std::_Uninitialized_backout_al<std::allocator<CGrannyLODController::SAttachingModelData> >::~_Uninitialized_backout_al<std::allocator<CGrannyLODController::SAttachingModelData> >, COMDAT
; _this$ = ecx

; 1540 :     ~_Uninitialized_backout_al() {

  00000	55		 push	 ebp
  00001	8b ec		 mov	 ebp, esp
  00003	51		 push	 ecx
  00004	89 4d fc	 mov	 DWORD PTR _this$[ebp], ecx

; 1541 :         _Destroy_range(_First, _Last, _Al);

  00007	8b 45 fc	 mov	 eax, DWORD PTR _this$[ebp]
  0000a	ff 70 08	 push	 DWORD PTR [eax+8]
  0000d	8b 45 fc	 mov	 eax, DWORD PTR _this$[ebp]
  00010	ff 70 04	 push	 DWORD PTR [eax+4]
  00013	8b 45 fc	 mov	 eax, DWORD PTR _this$[ebp]
  00016	ff 30		 push	 DWORD PTR [eax]
  00018	e8 00 00 00 00	 call	 ??$_Destroy_range@V?$allocator@USAttachingModelData@CGrannyLODController@@@std@@@std@@YAXPAUSAttachingModelData@CGrannyLODController@@QAU12@AAV?$allocator@USAttachingModelData@CGrannyLODController@@@0@@Z ; std::_Destroy_range<std::allocator<CGrannyLODController::SAttachingModelData> >
  0001d	83 c4 0c	 add	 esp, 12			; 0000000cH

; 1542 :     }

  00020	c9		 leave
  00021	c3		 ret	 0
??1?$_Uninitialized_backout_al@V?$allocator@USAttachingModelData@CGrannyLODController@@@std@@@std@@QAE@XZ ENDP ; std::_Uninitialized_backout_al<std::allocator<CGrannyLODController::SAttachingModelData> >::~_Uninitialized_backout_al<std::allocator<CGrannyLODController::SAttachingModelData> >
_TEXT	ENDS
; Function compile flags: /Odspy
; File C:\Program Files (x86)\Microsoft Visual Studio\2019\Community\VC\Tools\MSVC\14.28.29333\include\xutility
;	COMDAT ??$_Copy_memmove@PAPAVCGraphicVertexBuffer@@PAPAV1@@std@@YAPAPAVCGraphicVertexBuffer@@PAPAV1@00@Z
_TEXT	SEGMENT
__Last_ch$ = -16					; size = 4
__Count$ = -12						; size = 4
__Dest_ch$ = -8						; size = 4
__First_ch$ = -4					; size = 4
__First$ = 8						; size = 4
__Last$ = 12						; size = 4
__Dest$ = 16						; size = 4
??$_Copy_memmove@PAPAVCGraphicVertexBuffer@@PAPAV1@@std@@YAPAPAVCGraphicVertexBuffer@@PAPAV1@00@Z PROC ; std::_Copy_memmove<CGraphicVertexBuffer * *,CGraphicVertexBuffer * *>, COMDAT

; 4360 : _OutIt _Copy_memmove(_InIt _First, _InIt _Last, _OutIt _Dest) {

  00000	55		 push	 ebp
  00001	8b ec		 mov	 ebp, esp
  00003	83 ec 10	 sub	 esp, 16			; 00000010H

; 4361 :     const char* const _First_ch = const_cast<const char*>(reinterpret_cast<const volatile char*>(_First));

  00006	8b 45 08	 mov	 eax, DWORD PTR __First$[ebp]
  00009	89 45 fc	 mov	 DWORD PTR __First_ch$[ebp], eax

; 4362 :     const char* const _Last_ch  = const_cast<const char*>(reinterpret_cast<const volatile char*>(_Last));

  0000c	8b 45 0c	 mov	 eax, DWORD PTR __Last$[ebp]
  0000f	89 45 f0	 mov	 DWORD PTR __Last_ch$[ebp], eax

; 4363 :     char* const _Dest_ch        = const_cast<char*>(reinterpret_cast<volatile char*>(_Dest));

  00012	8b 45 10	 mov	 eax, DWORD PTR __Dest$[ebp]
  00015	89 45 f8	 mov	 DWORD PTR __Dest_ch$[ebp], eax

; 4364 :     const auto _Count           = static_cast<size_t>(_Last_ch - _First_ch);

  00018	8b 45 f0	 mov	 eax, DWORD PTR __Last_ch$[ebp]
  0001b	2b 45 fc	 sub	 eax, DWORD PTR __First_ch$[ebp]
  0001e	89 45 f4	 mov	 DWORD PTR __Count$[ebp], eax

; 4365 :     _CSTD memmove(_Dest_ch, _First_ch, _Count);

  00021	ff 75 f4	 push	 DWORD PTR __Count$[ebp]
  00024	ff 75 fc	 push	 DWORD PTR __First_ch$[ebp]
  00027	ff 75 f8	 push	 DWORD PTR __Dest_ch$[ebp]
  0002a	e8 00 00 00 00	 call	 _memmove
  0002f	83 c4 0c	 add	 esp, 12			; 0000000cH

; 4366 :     return reinterpret_cast<_OutIt>(_Dest_ch + _Count);

  00032	8b 45 f8	 mov	 eax, DWORD PTR __Dest_ch$[ebp]
  00035	03 45 f4	 add	 eax, DWORD PTR __Count$[ebp]

; 4367 : }

  00038	c9		 leave
  00039	c3		 ret	 0
??$_Copy_memmove@PAPAVCGraphicVertexBuffer@@PAPAV1@@std@@YAPAPAVCGraphicVertexBuffer@@PAPAV1@00@Z ENDP ; std::_Copy_memmove<CGraphicVertexBuffer * *,CGraphicVertexBuffer * *>
_TEXT	ENDS
; Function compile flags: /Odspy
; File C:\Program Files (x86)\Microsoft Visual Studio\2019\Community\VC\Tools\MSVC\14.28.29333\include\xmemory
; File C:\Program Files (x86)\Microsoft Visual Studio\2019\Community\VC\Tools\MSVC\14.28.29333\include\type_traits
; File C:\Program Files (x86)\Microsoft Visual Studio\2019\Community\VC\Tools\MSVC\14.28.29333\include\xmemory
;	COMDAT ??$_Uninitialized_move@PAUSAttachingModelData@CGrannyLODController@@V?$allocator@USAttachingModelData@CGrannyLODController@@@std@@@std@@YAPAUSAttachingModelData@CGrannyLODController@@QAU12@0PAU12@AAV?$allocator@USAttachingModelData@CGrannyLODController@@@0@@Z
_TEXT	SEGMENT
__Backout$2 = -40					; size = 12
$T3 = -28						; size = 4
$T4 = -24						; size = 4
__ULast$ = -20						; size = 4
__UFirst$ = -16						; size = 4
__$EHRec$ = -12						; size = 12
__First$ = 8						; size = 4
__Last$ = 12						; size = 4
__Dest$ = 16						; size = 4
__Al$ = 20						; size = 4
??$_Uninitialized_move@PAUSAttachingModelData@CGrannyLODController@@V?$allocator@USAttachingModelData@CGrannyLODController@@@std@@@std@@YAPAUSAttachingModelData@CGrannyLODController@@QAU12@0PAU12@AAV?$allocator@USAttachingModelData@CGrannyLODController@@@0@@Z PROC ; std::_Uninitialized_move<CGrannyLODController::SAttachingModelData *,std::allocator<CGrannyLODController::SAttachingModelData> >, COMDAT

; 1685 :     const _InIt _First, const _InIt _Last, _Alloc_ptr_t<_Alloc> _Dest, _Alloc& _Al) {

  00000	55		 push	 ebp
  00001	8b ec		 mov	 ebp, esp
  00003	6a ff		 push	 -1
  00005	68 00 00 00 00	 push	 __ehhandler$??$_Uninitialized_move@PAUSAttachingModelData@CGrannyLODController@@V?$allocator@USAttachingModelData@CGrannyLODController@@@std@@@std@@YAPAUSAttachingModelData@CGrannyLODController@@QAU12@0PAU12@AAV?$allocator@USAttachingModelData@CGrannyLODController@@@0@@Z
  0000a	64 a1 00 00 00
	00		 mov	 eax, DWORD PTR fs:0
  00010	50		 push	 eax
  00011	83 ec 1c	 sub	 esp, 28			; 0000001cH
  00014	a1 00 00 00 00	 mov	 eax, DWORD PTR ___security_cookie
  00019	33 c5		 xor	 eax, ebp
  0001b	50		 push	 eax
  0001c	8d 45 f4	 lea	 eax, DWORD PTR __$EHRec$[ebp]
  0001f	64 a3 00 00 00
	00		 mov	 DWORD PTR fs:0, eax

; 1686 :     // move [_First, _Last) to raw _Dest, using _Al
; 1687 :     // note: only called internally from elsewhere in the STL
; 1688 :     using _Ptrval     = typename _Alloc::value_type*;
; 1689 :     auto _UFirst      = _Get_unwrapped(_First);

  00025	8b 45 08	 mov	 eax, DWORD PTR __First$[ebp]
  00028	89 45 f0	 mov	 DWORD PTR __UFirst$[ebp], eax

; 1690 :     const auto _ULast = _Get_unwrapped(_Last);

  0002b	8b 45 0c	 mov	 eax, DWORD PTR __Last$[ebp]
  0002e	89 45 ec	 mov	 DWORD PTR __ULast$[ebp], eax

; 1535 :     _Uninitialized_backout_al(pointer _Dest, _Alloc& _Al_) : _First(_Dest), _Last(_Dest), _Al(_Al_) {}

  00031	8b 45 10	 mov	 eax, DWORD PTR __Dest$[ebp]
  00034	89 45 d8	 mov	 DWORD PTR __Backout$2[ebp], eax
  00037	8b 45 10	 mov	 eax, DWORD PTR __Dest$[ebp]
  0003a	89 45 dc	 mov	 DWORD PTR __Backout$2[ebp+4], eax
  0003d	8b 45 14	 mov	 eax, DWORD PTR __Al$[ebp]
  00040	89 45 e0	 mov	 DWORD PTR __Backout$2[ebp+8], eax

; 1691 :     if constexpr (conjunction_v<bool_constant<_Ptr_move_cat<decltype(_UFirst), _Ptrval>::_Really_trivial>,
; 1692 :                       _Uses_default_construct<_Alloc, _Ptrval, decltype(_STD move(*_UFirst))>>) {
; 1693 :         _Copy_memmove(_UFirst, _ULast, _Unfancy(_Dest));
; 1694 :         return _Dest + (_ULast - _UFirst);
; 1695 :     } else {
; 1696 :         _Uninitialized_backout_al<_Alloc> _Backout{_Dest, _Al};

  00043	83 65 fc 00	 and	 DWORD PTR __$EHRec$[ebp+8], 0

; 1697 :         for (; _UFirst != _ULast; ++_UFirst) {

  00047	eb 09		 jmp	 SHORT $LN4@Uninitiali
$LN2@Uninitiali:
  00049	8b 45 f0	 mov	 eax, DWORD PTR __UFirst$[ebp]
  0004c	83 c0 1c	 add	 eax, 28			; 0000001cH
  0004f	89 45 f0	 mov	 DWORD PTR __UFirst$[ebp], eax
$LN4@Uninitiali:
  00052	8b 45 f0	 mov	 eax, DWORD PTR __UFirst$[ebp]
  00055	3b 45 ec	 cmp	 eax, DWORD PTR __ULast$[ebp]
  00058	74 13		 je	 SHORT $LN3@Uninitiali
; File C:\Program Files (x86)\Microsoft Visual Studio\2019\Community\VC\Tools\MSVC\14.28.29333\include\type_traits

; 1455 :     return static_cast<remove_reference_t<_Ty>&&>(_Arg);

  0005a	8b 45 f0	 mov	 eax, DWORD PTR __UFirst$[ebp]
  0005d	89 45 e8	 mov	 DWORD PTR $T4[ebp], eax
; File C:\Program Files (x86)\Microsoft Visual Studio\2019\Community\VC\Tools\MSVC\14.28.29333\include\xmemory

; 1698 :             _Backout._Emplace_back(_STD move(*_UFirst));

  00060	ff 75 e8	 push	 DWORD PTR $T4[ebp]
  00063	8d 4d d8	 lea	 ecx, DWORD PTR __Backout$2[ebp]
  00066	e8 00 00 00 00	 call	 ??$_Emplace_back@USAttachingModelData@CGrannyLODController@@@?$_Uninitialized_backout_al@V?$allocator@USAttachingModelData@CGrannyLODController@@@std@@@std@@QAEX$$QAUSAttachingModelData@CGrannyLODController@@@Z ; std::_Uninitialized_backout_al<std::allocator<CGrannyLODController::SAttachingModelData> >::_Emplace_back<CGrannyLODController::SAttachingModelData>

; 1699 :         }

  0006b	eb dc		 jmp	 SHORT $LN2@Uninitiali
$LN3@Uninitiali:

; 1551 :         _First = _Last;

  0006d	8b 45 dc	 mov	 eax, DWORD PTR __Backout$2[ebp+4]
  00070	89 45 d8	 mov	 DWORD PTR __Backout$2[ebp], eax

; 1552 :         return _Last;

  00073	8b 45 dc	 mov	 eax, DWORD PTR __Backout$2[ebp+4]
  00076	89 45 e4	 mov	 DWORD PTR $T3[ebp], eax

; 1700 : 
; 1701 :         return _Backout._Release();

  00079	83 4d fc ff	 or	 DWORD PTR __$EHRec$[ebp+8], -1

; 1541 :         _Destroy_range(_First, _Last, _Al);

  0007d	ff 75 e0	 push	 DWORD PTR __Backout$2[ebp+8]
  00080	ff 75 dc	 push	 DWORD PTR __Backout$2[ebp+4]
  00083	ff 75 d8	 push	 DWORD PTR __Backout$2[ebp]
  00086	e8 00 00 00 00	 call	 ??$_Destroy_range@V?$allocator@USAttachingModelData@CGrannyLODController@@@std@@@std@@YAXPAUSAttachingModelData@CGrannyLODController@@QAU12@AAV?$allocator@USAttachingModelData@CGrannyLODController@@@0@@Z ; std::_Destroy_range<std::allocator<CGrannyLODController::SAttachingModelData> >
  0008b	83 c4 0c	 add	 esp, 12			; 0000000cH

; 1700 : 
; 1701 :         return _Backout._Release();

  0008e	8b 45 e4	 mov	 eax, DWORD PTR $T3[ebp]

; 1702 :     }
; 1703 : }

  00091	8b 4d f4	 mov	 ecx, DWORD PTR __$EHRec$[ebp]
  00094	64 89 0d 00 00
	00 00		 mov	 DWORD PTR fs:0, ecx
  0009b	59		 pop	 ecx
  0009c	c9		 leave
  0009d	c3		 ret	 0
_TEXT	ENDS
;	COMDAT text$x
text$x	SEGMENT
__unwindfunclet$??$_Uninitialized_move@PAUSAttachingModelData@CGrannyLODController@@V?$allocator@USAttachingModelData@CGrannyLODController@@@std@@@std@@YAPAUSAttachingModelData@CGrannyLODController@@QAU12@0PAU12@AAV?$allocator@USAttachingModelData@CGrannyLODController@@@0@@Z$0:
  00000	8d 4d d8	 lea	 ecx, DWORD PTR __Backout$2[ebp]
  00003	e9 00 00 00 00	 jmp	 ??1?$_Uninitialized_backout_al@V?$allocator@USAttachingModelData@CGrannyLODController@@@std@@@std@@QAE@XZ ; std::_Uninitialized_backout_al<std::allocator<CGrannyLODController::SAttachingModelData> >::~_Uninitialized_backout_al<std::allocator<CGrannyLODController::SAttachingModelData> >
  00008	cc		 int	 3
  00009	cc		 int	 3
  0000a	cc		 int	 3
  0000b	cc		 int	 3
  0000c	cc		 int	 3
__ehhandler$??$_Uninitialized_move@PAUSAttachingModelData@CGrannyLODController@@V?$allocator@USAttachingModelData@CGrannyLODController@@@std@@@std@@YAPAUSAttachingModelData@CGrannyLODController@@QAU12@0PAU12@AAV?$allocator@USAttachingModelData@CGrannyLODController@@@0@@Z:
  0000d	90		 npad	 1
  0000e	90		 npad	 1
  0000f	8b 54 24 08	 mov	 edx, DWORD PTR [esp+8]
  00013	8d 42 0c	 lea	 eax, DWORD PTR [edx+12]
  00016	8b 4a e0	 mov	 ecx, DWORD PTR [edx-32]
  00019	33 c8		 xor	 ecx, eax
  0001b	e8 00 00 00 00	 call	 @__security_check_cookie@4
  00020	b8 00 00 00 00	 mov	 eax, OFFSET __ehfuncinfo$??$_Uninitialized_move@PAUSAttachingModelData@CGrannyLODController@@V?$allocator@USAttachingModelData@CGrannyLODController@@@std@@@std@@YAPAUSAttachingModelData@CGrannyLODController@@QAU12@0PAU12@AAV?$allocator@USAttachingModelData@CGrannyLODController@@@0@@Z
  00025	e9 00 00 00 00	 jmp	 ___CxxFrameHandler3
text$x	ENDS
??$_Uninitialized_move@PAUSAttachingModelData@CGrannyLODController@@V?$allocator@USAttachingModelData@CGrannyLODController@@@std@@@std@@YAPAUSAttachingModelData@CGrannyLODController@@QAU12@0PAU12@AAV?$allocator@USAttachingModelData@CGrannyLODController@@@0@@Z ENDP ; std::_Uninitialized_move<CGrannyLODController::SAttachingModelData *,std::allocator<CGrannyLODController::SAttachingModelData> >
; Function compile flags: /Odspy
; File C:\Program Files (x86)\Microsoft Visual Studio\2019\Community\VC\Tools\MSVC\14.28.29333\include\xmemory
; File C:\Program Files (x86)\Microsoft Visual Studio\2019\Community\VC\Tools\MSVC\14.28.29333\include\xstddef
; File C:\Program Files (x86)\Microsoft Visual Studio\2019\Community\VC\Tools\MSVC\14.28.29333\include\xmemory
;	COMDAT ??$_Uninitialized_move@PAPAVCGraphicVertexBuffer@@V?$allocator@PAVCGraphicVertexBuffer@@@std@@@std@@YAPAPAVCGraphicVertexBuffer@@QAPAV1@0PAPAV1@AAV?$allocator@PAVCGraphicVertexBuffer@@@0@@Z
_TEXT	SEGMENT
$T1 = -12						; size = 4
__UFirst$ = -8						; size = 4
__ULast$ = -4						; size = 4
__First$ = 8						; size = 4
__Last$ = 12						; size = 4
__Dest$ = 16						; size = 4
__Al$ = 20						; size = 4
??$_Uninitialized_move@PAPAVCGraphicVertexBuffer@@V?$allocator@PAVCGraphicVertexBuffer@@@std@@@std@@YAPAPAVCGraphicVertexBuffer@@QAPAV1@0PAPAV1@AAV?$allocator@PAVCGraphicVertexBuffer@@@0@@Z PROC ; std::_Uninitialized_move<CGraphicVertexBuffer * *,std::allocator<CGraphicVertexBuffer *> >, COMDAT

; 1685 :     const _InIt _First, const _InIt _Last, _Alloc_ptr_t<_Alloc> _Dest, _Alloc& _Al) {

  00000	55		 push	 ebp
  00001	8b ec		 mov	 ebp, esp
  00003	83 ec 0c	 sub	 esp, 12			; 0000000cH

; 1686 :     // move [_First, _Last) to raw _Dest, using _Al
; 1687 :     // note: only called internally from elsewhere in the STL
; 1688 :     using _Ptrval     = typename _Alloc::value_type*;
; 1689 :     auto _UFirst      = _Get_unwrapped(_First);

  00006	8b 45 08	 mov	 eax, DWORD PTR __First$[ebp]
  00009	89 45 f8	 mov	 DWORD PTR __UFirst$[ebp], eax

; 1690 :     const auto _ULast = _Get_unwrapped(_Last);

  0000c	8b 45 0c	 mov	 eax, DWORD PTR __Last$[ebp]
  0000f	89 45 fc	 mov	 DWORD PTR __ULast$[ebp], eax
; File C:\Program Files (x86)\Microsoft Visual Studio\2019\Community\VC\Tools\MSVC\14.28.29333\include\xstddef

; 289  :     return _Ptr;

  00012	8b 45 10	 mov	 eax, DWORD PTR __Dest$[ebp]
  00015	89 45 f4	 mov	 DWORD PTR $T1[ebp], eax
; File C:\Program Files (x86)\Microsoft Visual Studio\2019\Community\VC\Tools\MSVC\14.28.29333\include\xmemory

; 1693 :         _Copy_memmove(_UFirst, _ULast, _Unfancy(_Dest));

  00018	ff 75 f4	 push	 DWORD PTR $T1[ebp]
  0001b	ff 75 fc	 push	 DWORD PTR __ULast$[ebp]
  0001e	ff 75 f8	 push	 DWORD PTR __UFirst$[ebp]
  00021	e8 00 00 00 00	 call	 ??$_Copy_memmove@PAPAVCGraphicVertexBuffer@@PAPAV1@@std@@YAPAPAVCGraphicVertexBuffer@@PAPAV1@00@Z ; std::_Copy_memmove<CGraphicVertexBuffer * *,CGraphicVertexBuffer * *>
  00026	83 c4 0c	 add	 esp, 12			; 0000000cH

; 1694 :         return _Dest + (_ULast - _UFirst);

  00029	8b 45 fc	 mov	 eax, DWORD PTR __ULast$[ebp]
  0002c	2b 45 f8	 sub	 eax, DWORD PTR __UFirst$[ebp]
  0002f	c1 f8 02	 sar	 eax, 2
  00032	8b 4d 10	 mov	 ecx, DWORD PTR __Dest$[ebp]
  00035	8d 04 81	 lea	 eax, DWORD PTR [ecx+eax*4]

; 1695 :     } else {
; 1696 :         _Uninitialized_backout_al<_Alloc> _Backout{_Dest, _Al};
; 1697 :         for (; _UFirst != _ULast; ++_UFirst) {
; 1698 :             _Backout._Emplace_back(_STD move(*_UFirst));
; 1699 :         }
; 1700 : 
; 1701 :         return _Backout._Release();
; 1702 :     }
; 1703 : }

  00038	c9		 leave
  00039	c3		 ret	 0
??$_Uninitialized_move@PAPAVCGraphicVertexBuffer@@V?$allocator@PAVCGraphicVertexBuffer@@@std@@@std@@YAPAPAVCGraphicVertexBuffer@@QAPAV1@0PAPAV1@AAV?$allocator@PAVCGraphicVertexBuffer@@@0@@Z ENDP ; std::_Uninitialized_move<CGraphicVertexBuffer * *,std::allocator<CGraphicVertexBuffer *> >
_TEXT	ENDS
; Function compile flags: /Odspy
; File C:\Program Files (x86)\Microsoft Visual Studio\2019\Community\VC\Tools\MSVC\14.28.29333\include\xmemory
;	COMDAT ??$_Allocate_manually_vector_aligned@U_Default_allocate_traits@std@@@std@@YAPAXI@Z
_TEXT	SEGMENT
__Ptr$ = -12						; size = 4
__Block_size$ = -8					; size = 4
__Ptr_container$ = -4					; size = 4
__Bytes$ = 8						; size = 4
??$_Allocate_manually_vector_aligned@U_Default_allocate_traits@std@@@std@@YAPAXI@Z PROC ; std::_Allocate_manually_vector_aligned<std::_Default_allocate_traits>, COMDAT

; 113  : __declspec(allocator) void* _Allocate_manually_vector_aligned(const size_t _Bytes) {

  00000	55		 push	 ebp
  00001	8b ec		 mov	 ebp, esp
  00003	83 ec 0c	 sub	 esp, 12			; 0000000cH

; 114  :     // allocate _Bytes manually aligned to at least _Big_allocation_alignment
; 115  :     const size_t _Block_size = _Non_user_size + _Bytes;

  00006	8b 45 08	 mov	 eax, DWORD PTR __Bytes$[ebp]
  00009	83 c0 23	 add	 eax, 35			; 00000023H
  0000c	89 45 f8	 mov	 DWORD PTR __Block_size$[ebp], eax

; 116  :     if (_Block_size <= _Bytes) {

  0000f	8b 45 f8	 mov	 eax, DWORD PTR __Block_size$[ebp]
  00012	3b 45 08	 cmp	 eax, DWORD PTR __Bytes$[ebp]
  00015	77 05		 ja	 SHORT $LN12@Allocate_m

; 117  :         _Throw_bad_array_new_length(); // add overflow

  00017	e8 00 00 00 00	 call	 ?_Throw_bad_array_new_length@std@@YAXXZ ; std::_Throw_bad_array_new_length
$LN12@Allocate_m:

; 77   :         return ::operator new(_Bytes);

  0001c	ff 75 f8	 push	 DWORD PTR __Block_size$[ebp]
  0001f	e8 00 00 00 00	 call	 ??2@YAPAXI@Z		; operator new
  00024	59		 pop	 ecx

; 118  :     }
; 119  : 
; 120  :     const uintptr_t _Ptr_container = reinterpret_cast<uintptr_t>(_Traits::_Allocate(_Block_size));

  00025	89 45 fc	 mov	 DWORD PTR __Ptr_container$[ebp], eax
$LN4@Allocate_m:

; 121  :     _STL_VERIFY(_Ptr_container != 0, "invalid argument"); // validate even in release since we're doing p[-1]

  00028	83 7d fc 00	 cmp	 DWORD PTR __Ptr_container$[ebp], 0
  0002c	74 02		 je	 SHORT $LN7@Allocate_m
  0002e	eb 09		 jmp	 SHORT $LN2@Allocate_m
$LN7@Allocate_m:
  00030	e8 00 00 00 00	 call	 __invalid_parameter_noinfo_noreturn
  00035	33 c0		 xor	 eax, eax
  00037	75 f7		 jne	 SHORT $LN7@Allocate_m
$LN2@Allocate_m:
  00039	33 c0		 xor	 eax, eax
  0003b	75 eb		 jne	 SHORT $LN4@Allocate_m

; 122  :     void* const _Ptr = reinterpret_cast<void*>((_Ptr_container + _Non_user_size) & ~(_Big_allocation_alignment - 1));

  0003d	8b 45 fc	 mov	 eax, DWORD PTR __Ptr_container$[ebp]
  00040	83 c0 23	 add	 eax, 35			; 00000023H
  00043	83 e0 e0	 and	 eax, -32		; ffffffe0H
  00046	89 45 f4	 mov	 DWORD PTR __Ptr$[ebp], eax

; 123  :     static_cast<uintptr_t*>(_Ptr)[-1] = _Ptr_container;

  00049	6a 04		 push	 4
  0004b	58		 pop	 eax
  0004c	6b c0 ff	 imul	 eax, eax, -1
  0004f	8b 4d f4	 mov	 ecx, DWORD PTR __Ptr$[ebp]
  00052	8b 55 fc	 mov	 edx, DWORD PTR __Ptr_container$[ebp]
  00055	89 14 01	 mov	 DWORD PTR [ecx+eax], edx

; 124  : 
; 125  : #ifdef _DEBUG
; 126  :     static_cast<uintptr_t*>(_Ptr)[-2] = _Big_allocation_sentinel;
; 127  : #endif // _DEBUG
; 128  :     return _Ptr;

  00058	8b 45 f4	 mov	 eax, DWORD PTR __Ptr$[ebp]
$LN11@Allocate_m:

; 129  : }

  0005b	c9		 leave
  0005c	c3		 ret	 0
??$_Allocate_manually_vector_aligned@U_Default_allocate_traits@std@@@std@@YAPAXI@Z ENDP ; std::_Allocate_manually_vector_aligned<std::_Default_allocate_traits>
_TEXT	ENDS
; Function compile flags: /Odspy
; File C:\Program Files (x86)\Microsoft Visual Studio\2019\Community\VC\Tools\MSVC\14.28.29333\include\xmemory
;	COMDAT ??$_Zero_range@PAPAPAVCGrannyModelInstance@@@std@@YAPAPAPAVCGrannyModelInstance@@QAPAPAV1@0@Z
_TEXT	SEGMENT
__Last_ch$ = -8						; size = 4
__First_ch$ = -4					; size = 4
__First$ = 8						; size = 4
__Last$ = 12						; size = 4
??$_Zero_range@PAPAPAVCGrannyModelInstance@@@std@@YAPAPAPAVCGrannyModelInstance@@QAPAPAV1@0@Z PROC ; std::_Zero_range<CGrannyModelInstance * * *>, COMDAT

; 1852 : _Ptr _Zero_range(const _Ptr _First, const _Ptr _Last) { // fill [_First, _Last) with zeroes

  00000	55		 push	 ebp
  00001	8b ec		 mov	 ebp, esp
  00003	51		 push	 ecx
  00004	51		 push	 ecx

; 1853 :     char* const _First_ch = reinterpret_cast<char*>(_First);

  00005	8b 45 08	 mov	 eax, DWORD PTR __First$[ebp]
  00008	89 45 fc	 mov	 DWORD PTR __First_ch$[ebp], eax

; 1854 :     char* const _Last_ch  = reinterpret_cast<char*>(_Last);

  0000b	8b 45 0c	 mov	 eax, DWORD PTR __Last$[ebp]
  0000e	89 45 f8	 mov	 DWORD PTR __Last_ch$[ebp], eax

; 1855 :     _CSTD memset(_First_ch, 0, static_cast<size_t>(_Last_ch - _First_ch));

  00011	8b 45 f8	 mov	 eax, DWORD PTR __Last_ch$[ebp]
  00014	2b 45 fc	 sub	 eax, DWORD PTR __First_ch$[ebp]
  00017	50		 push	 eax
  00018	6a 00		 push	 0
  0001a	ff 75 fc	 push	 DWORD PTR __First_ch$[ebp]
  0001d	e8 00 00 00 00	 call	 _memset
  00022	83 c4 0c	 add	 esp, 12			; 0000000cH

; 1856 :     return _Last;

  00025	8b 45 0c	 mov	 eax, DWORD PTR __Last$[ebp]

; 1857 : }

  00028	c9		 leave
  00029	c3		 ret	 0
??$_Zero_range@PAPAPAVCGrannyModelInstance@@@std@@YAPAPAPAVCGrannyModelInstance@@QAPAPAV1@0@Z ENDP ; std::_Zero_range<CGrannyModelInstance * * *>
_TEXT	ENDS
; Function compile flags: /Odspy
; File C:\Program Files (x86)\Microsoft Visual Studio\2019\Community\VC\Tools\MSVC\14.28.29333\include\xutility
;	COMDAT ??$_Copy_memmove@PAPAPAVCGrannyModelInstance@@PAPAPAV1@@std@@YAPAPAPAVCGrannyModelInstance@@PAPAPAV1@00@Z
_TEXT	SEGMENT
__Last_ch$ = -16					; size = 4
__Count$ = -12						; size = 4
__Dest_ch$ = -8						; size = 4
__First_ch$ = -4					; size = 4
__First$ = 8						; size = 4
__Last$ = 12						; size = 4
__Dest$ = 16						; size = 4
??$_Copy_memmove@PAPAPAVCGrannyModelInstance@@PAPAPAV1@@std@@YAPAPAPAVCGrannyModelInstance@@PAPAPAV1@00@Z PROC ; std::_Copy_memmove<CGrannyModelInstance * * *,CGrannyModelInstance * * *>, COMDAT

; 4360 : _OutIt _Copy_memmove(_InIt _First, _InIt _Last, _OutIt _Dest) {

  00000	55		 push	 ebp
  00001	8b ec		 mov	 ebp, esp
  00003	83 ec 10	 sub	 esp, 16			; 00000010H

; 4361 :     const char* const _First_ch = const_cast<const char*>(reinterpret_cast<const volatile char*>(_First));

  00006	8b 45 08	 mov	 eax, DWORD PTR __First$[ebp]
  00009	89 45 fc	 mov	 DWORD PTR __First_ch$[ebp], eax

; 4362 :     const char* const _Last_ch  = const_cast<const char*>(reinterpret_cast<const volatile char*>(_Last));

  0000c	8b 45 0c	 mov	 eax, DWORD PTR __Last$[ebp]
  0000f	89 45 f0	 mov	 DWORD PTR __Last_ch$[ebp], eax

; 4363 :     char* const _Dest_ch        = const_cast<char*>(reinterpret_cast<volatile char*>(_Dest));

  00012	8b 45 10	 mov	 eax, DWORD PTR __Dest$[ebp]
  00015	89 45 f8	 mov	 DWORD PTR __Dest_ch$[ebp], eax

; 4364 :     const auto _Count           = static_cast<size_t>(_Last_ch - _First_ch);

  00018	8b 45 f0	 mov	 eax, DWORD PTR __Last_ch$[ebp]
  0001b	2b 45 fc	 sub	 eax, DWORD PTR __First_ch$[ebp]
  0001e	89 45 f4	 mov	 DWORD PTR __Count$[ebp], eax

; 4365 :     _CSTD memmove(_Dest_ch, _First_ch, _Count);

  00021	ff 75 f4	 push	 DWORD PTR __Count$[ebp]
  00024	ff 75 fc	 push	 DWORD PTR __First_ch$[ebp]
  00027	ff 75 f8	 push	 DWORD PTR __Dest_ch$[ebp]
  0002a	e8 00 00 00 00	 call	 _memmove
  0002f	83 c4 0c	 add	 esp, 12			; 0000000cH

; 4366 :     return reinterpret_cast<_OutIt>(_Dest_ch + _Count);

  00032	8b 45 f8	 mov	 eax, DWORD PTR __Dest_ch$[ebp]
  00035	03 45 f4	 add	 eax, DWORD PTR __Count$[ebp]

; 4367 : }

  00038	c9		 leave
  00039	c3		 ret	 0
??$_Copy_memmove@PAPAPAVCGrannyModelInstance@@PAPAPAV1@@std@@YAPAPAPAVCGrannyModelInstance@@PAPAPAV1@00@Z ENDP ; std::_Copy_memmove<CGrannyModelInstance * * *,CGrannyModelInstance * * *>
_TEXT	ENDS
; Function compile flags: /Odspy
; File C:\Program Files (x86)\Microsoft Visual Studio\2019\Community\VC\Tools\MSVC\14.28.29333\include\xmemory
; File C:\Program Files (x86)\Microsoft Visual Studio\2019\Community\VC\Tools\MSVC\14.28.29333\include\xstddef
; File C:\Program Files (x86)\Microsoft Visual Studio\2019\Community\VC\Tools\MSVC\14.28.29333\include\vcruntime_new.h
; File C:\Program Files (x86)\Microsoft Visual Studio\2019\Community\VC\Tools\MSVC\14.28.29333\include\type_traits
; File C:\Program Files (x86)\Microsoft Visual Studio\2019\Community\VC\Tools\MSVC\14.28.29333\include\xmemory
;	COMDAT ??$_Construct_in_place@U_Container_proxy@std@@PAU_Container_base12@2@@std@@YAXAAU_Container_proxy@0@$$QAPAU_Container_base12@0@@Z
_TEXT	SEGMENT
__Mycont_$ = -16					; size = 4
$T1 = -12						; size = 4
$T2 = -8						; size = 4
$T3 = -4						; size = 4
__Obj$ = 8						; size = 4
_<_Args_0>$ = 12					; size = 4
??$_Construct_in_place@U_Container_proxy@std@@PAU_Container_base12@2@@std@@YAXAAU_Container_proxy@0@$$QAPAU_Container_base12@0@@Z PROC ; std::_Construct_in_place<std::_Container_proxy,std::_Container_base12 *>, COMDAT

; 228  : void _Construct_in_place(_Ty& _Obj, _Types&&... _Args) noexcept(is_nothrow_constructible_v<_Ty, _Types...>) {

  00000	55		 push	 ebp
  00001	8b ec		 mov	 ebp, esp
  00003	83 ec 10	 sub	 esp, 16			; 00000010H
; File C:\Program Files (x86)\Microsoft Visual Studio\2019\Community\VC\Tools\MSVC\14.28.29333\include\xstddef

; 275  :     return __builtin_addressof(_Val);

  00006	8b 45 08	 mov	 eax, DWORD PTR __Obj$[ebp]
  00009	89 45 f8	 mov	 DWORD PTR $T2[ebp], eax
; File C:\Program Files (x86)\Microsoft Visual Studio\2019\Community\VC\Tools\MSVC\14.28.29333\include\vcruntime_new.h

; 169  :         return _Where;

  0000c	8b 45 f8	 mov	 eax, DWORD PTR $T2[ebp]
  0000f	89 45 fc	 mov	 DWORD PTR $T3[ebp], eax
; File C:\Program Files (x86)\Microsoft Visual Studio\2019\Community\VC\Tools\MSVC\14.28.29333\include\type_traits

; 1443 :     return static_cast<_Ty&&>(_Arg);

  00012	8b 45 0c	 mov	 eax, DWORD PTR _<_Args_0>$[ebp]
  00015	89 45 f4	 mov	 DWORD PTR $T1[ebp], eax
; File C:\Program Files (x86)\Microsoft Visual Studio\2019\Community\VC\Tools\MSVC\14.28.29333\include\xmemory

; 229  :     ::new (const_cast<void*>(static_cast<const volatile void*>(_STD addressof(_Obj))))

  00018	8b 45 f4	 mov	 eax, DWORD PTR $T1[ebp]
  0001b	8b 00		 mov	 eax, DWORD PTR [eax]
  0001d	89 45 f0	 mov	 DWORD PTR __Mycont_$[ebp], eax

; 1089 :     _Container_proxy(_Container_base12* _Mycont_) noexcept : _Mycont(_Mycont_), _Myfirstiter(nullptr) {}

  00020	8b 45 fc	 mov	 eax, DWORD PTR $T3[ebp]
  00023	8b 4d f0	 mov	 ecx, DWORD PTR __Mycont_$[ebp]
  00026	89 08		 mov	 DWORD PTR [eax], ecx
  00028	8b 45 fc	 mov	 eax, DWORD PTR $T3[ebp]
  0002b	83 60 04 00	 and	 DWORD PTR [eax+4], 0

; 230  :         _Ty(_STD forward<_Types>(_Args)...);
; 231  : }

  0002f	c9		 leave
  00030	c3		 ret	 0
??$_Construct_in_place@U_Container_proxy@std@@PAU_Container_base12@2@@std@@YAXAAU_Container_proxy@0@$$QAPAU_Container_base12@0@@Z ENDP ; std::_Construct_in_place<std::_Container_proxy,std::_Container_base12 *>
_TEXT	ENDS
; Function compile flags: /Odspy
; File C:\Program Files (x86)\Microsoft Visual Studio\2019\Community\VC\Tools\MSVC\14.28.29333\include\xmemory
;	COMDAT ??$_Deallocate_plain@V?$allocator@U_Container_proxy@std@@@std@@@std@@YAXAAV?$allocator@U_Container_proxy@std@@@0@QAU_Container_proxy@0@@Z
_TEXT	SEGMENT
__Al$ = 8						; size = 4
__Ptr$ = 12						; size = 4
??$_Deallocate_plain@V?$allocator@U_Container_proxy@std@@@std@@@std@@YAXAAV?$allocator@U_Container_proxy@std@@@0@QAU_Container_proxy@0@@Z PROC ; std::_Deallocate_plain<std::allocator<std::_Container_proxy> >, COMDAT

; 1003 : void _Deallocate_plain(_Alloc& _Al, typename _Alloc::value_type* const _Ptr) noexcept {

  00000	55		 push	 ebp
  00001	8b ec		 mov	 ebp, esp

; 696  :         _Deallocate<_New_alignof<value_type>>(_Ptr, sizeof(value_type) * _Count);

  00003	33 c0		 xor	 eax, eax
  00005	40		 inc	 eax
  00006	c1 e0 03	 shl	 eax, 3
  00009	50		 push	 eax
  0000a	ff 75 0c	 push	 DWORD PTR __Ptr$[ebp]
  0000d	e8 00 00 00 00	 call	 ??$_Deallocate@$07$0A@@std@@YAXPAXI@Z ; std::_Deallocate<8,0>
  00012	59		 pop	 ecx
  00013	59		 pop	 ecx

; 1004 :     // deallocate a plain pointer using an allocator
; 1005 :     using _Alloc_traits = allocator_traits<_Alloc>;
; 1006 :     if constexpr (is_same_v<_Alloc_ptr_t<_Alloc>, typename _Alloc::value_type*>) {
; 1007 :         _Alloc_traits::deallocate(_Al, _Ptr, 1);
; 1008 :     } else {
; 1009 :         using _Ptr_traits = pointer_traits<_Alloc_ptr_t<_Alloc>>;
; 1010 :         _Alloc_traits::deallocate(_Al, _Ptr_traits::pointer_to(*_Ptr), 1);
; 1011 :     }
; 1012 : }

  00014	5d		 pop	 ebp
  00015	c3		 ret	 0
??$_Deallocate_plain@V?$allocator@U_Container_proxy@std@@@std@@@std@@YAXAAV?$allocator@U_Container_proxy@std@@@0@QAU_Container_proxy@0@@Z ENDP ; std::_Deallocate_plain<std::allocator<std::_Container_proxy> >
_TEXT	ENDS
; Function compile flags: /Odspy
; File C:\Program Files (x86)\Microsoft Visual Studio\2019\Community\VC\Tools\MSVC\14.28.29333\include\xmemory
;	COMDAT ??$_Deallocate@$07$0A@@std@@YAXPAXI@Z
_TEXT	SEGMENT
__$EHRec$ = -12						; size = 12
__Ptr$ = 8						; size = 4
__Bytes$ = 12						; size = 4
??$_Deallocate@$07$0A@@std@@YAXPAXI@Z PROC		; std::_Deallocate<8,0>, COMDAT

; 213  : void _Deallocate(void* _Ptr, size_t _Bytes) noexcept {

  00000	55		 push	 ebp
  00001	8b ec		 mov	 ebp, esp
  00003	6a ff		 push	 -1
  00005	68 00 00 00 00	 push	 __ehhandler$??$_Deallocate@$07$0A@@std@@YAXPAXI@Z
  0000a	64 a1 00 00 00
	00		 mov	 eax, DWORD PTR fs:0
  00010	50		 push	 eax
  00011	a1 00 00 00 00	 mov	 eax, DWORD PTR ___security_cookie
  00016	33 c5		 xor	 eax, ebp
  00018	50		 push	 eax
  00019	8d 45 f4	 lea	 eax, DWORD PTR __$EHRec$[ebp]
  0001c	64 a3 00 00 00
	00		 mov	 DWORD PTR fs:0, eax

; 214  :     // deallocate storage allocated by _Allocate when !_HAS_ALIGNED_NEW || _Align <= __STDCPP_DEFAULT_NEW_ALIGNMENT__
; 215  : #if defined(_M_IX86) || defined(_M_X64)
; 216  :     if (_Bytes >= _Big_allocation_threshold) { // boost the alignment of big allocations to help autovectorization

  00022	81 7d 0c 00 10
	00 00		 cmp	 DWORD PTR __Bytes$[ebp], 4096 ; 00001000H
  00029	72 0f		 jb	 SHORT $LN2@Deallocate

; 217  :         _Adjust_manually_vector_aligned(_Ptr, _Bytes);

  0002b	8d 45 0c	 lea	 eax, DWORD PTR __Bytes$[ebp]
  0002e	50		 push	 eax
  0002f	8d 45 08	 lea	 eax, DWORD PTR __Ptr$[ebp]
  00032	50		 push	 eax
  00033	e8 00 00 00 00	 call	 ?_Adjust_manually_vector_aligned@std@@YAXAAPAXAAI@Z ; std::_Adjust_manually_vector_aligned
  00038	59		 pop	 ecx
  00039	59		 pop	 ecx
$LN2@Deallocate:

; 218  :     }
; 219  : #endif // defined(_M_IX86) || defined(_M_X64)
; 220  : 
; 221  :     ::operator delete(_Ptr, _Bytes);

  0003a	ff 75 0c	 push	 DWORD PTR __Bytes$[ebp]
  0003d	ff 75 08	 push	 DWORD PTR __Ptr$[ebp]
  00040	e8 00 00 00 00	 call	 ??3@YAXPAXI@Z		; operator delete
  00045	59		 pop	 ecx
  00046	59		 pop	 ecx

; 222  : }

  00047	8b 4d f4	 mov	 ecx, DWORD PTR __$EHRec$[ebp]
  0004a	64 89 0d 00 00
	00 00		 mov	 DWORD PTR fs:0, ecx
  00051	59		 pop	 ecx
  00052	c9		 leave
  00053	c3		 ret	 0
  00054	cc		 int	 3
  00055	cc		 int	 3
  00056	cc		 int	 3
  00057	cc		 int	 3
  00058	cc		 int	 3
_TEXT	ENDS
;	COMDAT text$x
text$x	SEGMENT
__ehhandler$??$_Deallocate@$07$0A@@std@@YAXPAXI@Z:
  00000	90		 npad	 1
  00001	90		 npad	 1
  00002	8b 54 24 08	 mov	 edx, DWORD PTR [esp+8]
  00006	8d 42 0c	 lea	 eax, DWORD PTR [edx+12]
  00009	8b 4a fc	 mov	 ecx, DWORD PTR [edx-4]
  0000c	33 c8		 xor	 ecx, eax
  0000e	e8 00 00 00 00	 call	 @__security_check_cookie@4
  00013	b8 00 00 00 00	 mov	 eax, OFFSET __ehfuncinfo$??$_Deallocate@$07$0A@@std@@YAXPAXI@Z
  00018	e9 00 00 00 00	 jmp	 ___CxxFrameHandler3
text$x	ENDS
??$_Deallocate@$07$0A@@std@@YAXPAXI@Z ENDP		; std::_Deallocate<8,0>
; Function compile flags: /Odspy
; File C:\Program Files (x86)\Microsoft Visual Studio\2019\Community\VC\Tools\MSVC\14.28.29333\include\xmemory
;	COMDAT ??$_Pocma@V?$allocator@D@std@@@std@@YAXAAV?$allocator@D@0@0@Z
_TEXT	SEGMENT
__Left$ = 8						; size = 4
__Right$ = 12						; size = 4
??$_Pocma@V?$allocator@D@std@@@std@@YAXAAV?$allocator@D@0@0@Z PROC ; std::_Pocma<std::allocator<char> >, COMDAT

; 908  : void _Pocma(_Alloc& _Left, _Alloc& _Right) noexcept { // (maybe) propagate on container move assignment

  00000	55		 push	 ebp
  00001	8b ec		 mov	 ebp, esp

; 909  :     if constexpr (allocator_traits<_Alloc>::propagate_on_container_move_assignment::value) {
; 910  :         _Left = _STD move(_Right);
; 911  :     }
; 912  : }

  00003	5d		 pop	 ebp
  00004	c3		 ret	 0
??$_Pocma@V?$allocator@D@std@@@std@@YAXAAV?$allocator@D@0@0@Z ENDP ; std::_Pocma<std::allocator<char> >
_TEXT	ENDS
; Function compile flags: /Odspy
; File C:\Program Files (x86)\Microsoft Visual Studio\2019\Community\VC\Tools\MSVC\14.28.29333\include\xmemory
; File C:\Program Files (x86)\Microsoft Visual Studio\2019\Community\VC\Tools\MSVC\14.28.29333\include\xstddef
; File C:\Program Files (x86)\Microsoft Visual Studio\2019\Community\VC\Tools\MSVC\14.28.29333\include\vcruntime_new.h
; File C:\Program Files (x86)\Microsoft Visual Studio\2019\Community\VC\Tools\MSVC\14.28.29333\include\type_traits
; File C:\Program Files (x86)\Microsoft Visual Studio\2019\Community\VC\Tools\MSVC\14.28.29333\include\xmemory
;	COMDAT ??$_Construct_in_place@PADABQAD@std@@YAXAAPADABQAD@Z
_TEXT	SEGMENT
$T1 = -12						; size = 4
$T2 = -8						; size = 4
$T3 = -4						; size = 4
__Obj$ = 8						; size = 4
_<_Args_0>$ = 12					; size = 4
??$_Construct_in_place@PADABQAD@std@@YAXAAPADABQAD@Z PROC ; std::_Construct_in_place<char *,char * const &>, COMDAT

; 228  : void _Construct_in_place(_Ty& _Obj, _Types&&... _Args) noexcept(is_nothrow_constructible_v<_Ty, _Types...>) {

  00000	55		 push	 ebp
  00001	8b ec		 mov	 ebp, esp
  00003	83 ec 0c	 sub	 esp, 12			; 0000000cH
; File C:\Program Files (x86)\Microsoft Visual Studio\2019\Community\VC\Tools\MSVC\14.28.29333\include\xstddef

; 275  :     return __builtin_addressof(_Val);

  00006	8b 45 08	 mov	 eax, DWORD PTR __Obj$[ebp]
  00009	89 45 fc	 mov	 DWORD PTR $T3[ebp], eax
; File C:\Program Files (x86)\Microsoft Visual Studio\2019\Community\VC\Tools\MSVC\14.28.29333\include\vcruntime_new.h

; 169  :         return _Where;

  0000c	8b 45 fc	 mov	 eax, DWORD PTR $T3[ebp]
  0000f	89 45 f8	 mov	 DWORD PTR $T2[ebp], eax
; File C:\Program Files (x86)\Microsoft Visual Studio\2019\Community\VC\Tools\MSVC\14.28.29333\include\type_traits

; 1443 :     return static_cast<_Ty&&>(_Arg);

  00012	8b 45 0c	 mov	 eax, DWORD PTR _<_Args_0>$[ebp]
  00015	89 45 f4	 mov	 DWORD PTR $T1[ebp], eax
; File C:\Program Files (x86)\Microsoft Visual Studio\2019\Community\VC\Tools\MSVC\14.28.29333\include\xmemory

; 229  :     ::new (const_cast<void*>(static_cast<const volatile void*>(_STD addressof(_Obj))))

  00018	8b 45 f8	 mov	 eax, DWORD PTR $T2[ebp]
  0001b	8b 4d f4	 mov	 ecx, DWORD PTR $T1[ebp]
  0001e	8b 09		 mov	 ecx, DWORD PTR [ecx]
  00020	89 08		 mov	 DWORD PTR [eax], ecx

; 230  :         _Ty(_STD forward<_Types>(_Args)...);
; 231  : }

  00022	c9		 leave
  00023	c3		 ret	 0
??$_Construct_in_place@PADABQAD@std@@YAXAAPADABQAD@Z ENDP ; std::_Construct_in_place<char *,char * const &>
_TEXT	ENDS
; Function compile flags: /Odspy
; File C:\Program Files (x86)\Microsoft Visual Studio\2019\Community\VC\Tools\MSVC\14.28.29333\include\xstring
; File C:\Program Files (x86)\Microsoft Visual Studio\2019\Community\VC\Tools\MSVC\14.28.29333\include\xmemory
; File C:\Program Files (x86)\Microsoft Visual Studio\2019\Community\VC\Tools\MSVC\14.28.29333\include\xstring
; File C:\Program Files (x86)\Microsoft Visual Studio\2019\Community\VC\Tools\MSVC\14.28.29333\include\xmemory
; File C:\Program Files (x86)\Microsoft Visual Studio\2019\Community\VC\Tools\MSVC\14.28.29333\include\xstring
; File C:\Program Files (x86)\Microsoft Visual Studio\2019\Community\VC\Tools\MSVC\14.28.29333\include\xmemory
; File C:\Program Files (x86)\Microsoft Visual Studio\2019\Community\VC\Tools\MSVC\14.28.29333\include\xstring
; File C:\Program Files (x86)\Microsoft Visual Studio\2019\Community\VC\Tools\MSVC\14.28.29333\include\xstddef
; File C:\Program Files (x86)\Microsoft Visual Studio\2019\Community\VC\Tools\MSVC\14.28.29333\include\xstring
; File C:\Program Files (x86)\Microsoft Visual Studio\2019\Community\VC\Tools\MSVC\14.28.29333\include\xmemory
; File C:\Program Files (x86)\Microsoft Visual Studio\2019\Community\VC\Tools\MSVC\14.28.29333\include\xstring
;	COMDAT ??$_Reallocate_for@V<lambda_9366063389c5f42a00a5088cf24e69de>@@PBD@?$basic_string@DU?$char_traits@D@std@@V?$allocator@D@2@@std@@AAEAAV01@IV<lambda_9366063389c5f42a00a5088cf24e69de>@@PBD@Z
_TEXT	SEGMENT
__Al$ = -40						; size = 4
__Ptr$ = -36						; size = 4
__Ptr$ = -32						; size = 4
$T1 = -28						; size = 4
__Old_capacity$ = -24					; size = 4
$T2 = -20						; size = 4
__New_capacity$ = -16					; size = 4
__New_ptr$ = -12					; size = 4
_this$ = -8						; size = 4
__Overflow_is_possible$3 = -2				; size = 1
$T4 = -1						; size = 1
__New_size$ = 8						; size = 4
__Fn$ = 12						; size = 1
_<_Args_0>$ = 16					; size = 4
??$_Reallocate_for@V<lambda_9366063389c5f42a00a5088cf24e69de>@@PBD@?$basic_string@DU?$char_traits@D@std@@V?$allocator@D@2@@std@@AAEAAV01@IV<lambda_9366063389c5f42a00a5088cf24e69de>@@PBD@Z PROC ; std::basic_string<char,std::char_traits<char>,std::allocator<char> >::_Reallocate_for<<lambda_9366063389c5f42a00a5088cf24e69de>,char const *>, COMDAT
; _this$ = ecx

; 4302 :     basic_string& _Reallocate_for(const size_type _New_size, _Fty _Fn, _ArgTys... _Args) {

  00000	55		 push	 ebp
  00001	8b ec		 mov	 ebp, esp
  00003	83 ec 28	 sub	 esp, 40			; 00000028H
  00006	89 4d f8	 mov	 DWORD PTR _this$[ebp], ecx

; 4303 :         // reallocate to store exactly _New_size elements, new buffer prepared by
; 4304 :         // _Fn(_New_ptr, _New_size, _Args...)
; 4305 :         if (_New_size > max_size()) {

  00009	8b 4d f8	 mov	 ecx, DWORD PTR _this$[ebp]
  0000c	e8 00 00 00 00	 call	 ?max_size@?$basic_string@DU?$char_traits@D@std@@V?$allocator@D@2@@std@@QBEIXZ ; std::basic_string<char,std::char_traits<char>,std::allocator<char> >::max_size
  00011	39 45 08	 cmp	 DWORD PTR __New_size$[ebp], eax
  00014	76 05		 jbe	 SHORT $LN2@Reallocate

; 4306 :             _Xlen_string(); // result too long

  00016	e8 00 00 00 00	 call	 ?_Xlen_string@std@@YAXXZ ; std::_Xlen_string
$LN2@Reallocate:

; 4307 :         }
; 4308 : 
; 4309 :         const size_type _Old_capacity = _Mypair._Myval2._Myres;

  0001b	8b 45 f8	 mov	 eax, DWORD PTR _this$[ebp]
  0001e	8b 40 14	 mov	 eax, DWORD PTR [eax+20]
  00021	89 45 e8	 mov	 DWORD PTR __Old_capacity$[ebp], eax

; 4310 :         const size_type _New_capacity = _Calculate_growth(_New_size);

  00024	ff 75 08	 push	 DWORD PTR __New_size$[ebp]
  00027	8b 4d f8	 mov	 ecx, DWORD PTR _this$[ebp]
  0002a	e8 00 00 00 00	 call	 ?_Calculate_growth@?$basic_string@DU?$char_traits@D@std@@V?$allocator@D@2@@std@@ABEII@Z ; std::basic_string<char,std::char_traits<char>,std::allocator<char> >::_Calculate_growth
  0002f	89 45 f0	 mov	 DWORD PTR __New_capacity$[ebp], eax

; 4409 :         return _Mypair._Get_first();

  00032	8b 45 f8	 mov	 eax, DWORD PTR _this$[ebp]
; File C:\Program Files (x86)\Microsoft Visual Studio\2019\Community\VC\Tools\MSVC\14.28.29333\include\xmemory

; 1347 :         return *this;

  00035	89 45 e4	 mov	 DWORD PTR $T1[ebp], eax
; File C:\Program Files (x86)\Microsoft Visual Studio\2019\Community\VC\Tools\MSVC\14.28.29333\include\xstring

; 4409 :         return _Mypair._Get_first();

  00038	8b 45 e4	 mov	 eax, DWORD PTR $T1[ebp]
  0003b	89 45 d8	 mov	 DWORD PTR __Al$[ebp], eax
; File C:\Program Files (x86)\Microsoft Visual Studio\2019\Community\VC\Tools\MSVC\14.28.29333\include\xmemory

; 56   :     constexpr bool _Overflow_is_possible = _Ty_size > 1;

  0003e	c6 45 fe 00	 mov	 BYTE PTR __Overflow_is_possible$3[ebp], 0
; File C:\Program Files (x86)\Microsoft Visual Studio\2019\Community\VC\Tools\MSVC\14.28.29333\include\xstring

; 4312 :         const pointer _New_ptr        = _Al.allocate(_New_capacity + 1); // throws

  00042	8b 45 f0	 mov	 eax, DWORD PTR __New_capacity$[ebp]
  00045	40		 inc	 eax
; File C:\Program Files (x86)\Microsoft Visual Studio\2019\Community\VC\Tools\MSVC\14.28.29333\include\xmemory

; 814  :         return static_cast<_Ty*>(_Allocate<_New_alignof<_Ty>>(_Get_size_of_n<sizeof(_Ty)>(_Count)));

  00046	50		 push	 eax
  00047	e8 00 00 00 00	 call	 ??$_Allocate@$07U_Default_allocate_traits@std@@$0A@@std@@YAPAXI@Z ; std::_Allocate<8,std::_Default_allocate_traits,0>
  0004c	59		 pop	 ecx
; File C:\Program Files (x86)\Microsoft Visual Studio\2019\Community\VC\Tools\MSVC\14.28.29333\include\xstring

; 4312 :         const pointer _New_ptr        = _Al.allocate(_New_capacity + 1); // throws

  0004d	89 45 f4	 mov	 DWORD PTR __New_ptr$[ebp], eax

; 4313 :         _Mypair._Myval2._Orphan_all();
; 4314 :         _Mypair._Myval2._Mysize = _New_size;

  00050	8b 45 f8	 mov	 eax, DWORD PTR _this$[ebp]
  00053	8b 4d 08	 mov	 ecx, DWORD PTR __New_size$[ebp]
  00056	89 48 10	 mov	 DWORD PTR [eax+16], ecx

; 4315 :         _Mypair._Myval2._Myres  = _New_capacity;

  00059	8b 45 f8	 mov	 eax, DWORD PTR _this$[ebp]
  0005c	8b 4d f0	 mov	 ecx, DWORD PTR __New_capacity$[ebp]
  0005f	89 48 14	 mov	 DWORD PTR [eax+20], ecx

; 4316 :         _Fn(_Unfancy(_New_ptr), _New_size, _Args...);

  00062	8b 45 f4	 mov	 eax, DWORD PTR __New_ptr$[ebp]
  00065	89 45 e0	 mov	 DWORD PTR __Ptr$[ebp], eax
; File C:\Program Files (x86)\Microsoft Visual Studio\2019\Community\VC\Tools\MSVC\14.28.29333\include\xstddef

; 289  :     return _Ptr;

  00068	8b 45 e0	 mov	 eax, DWORD PTR __Ptr$[ebp]
  0006b	89 45 ec	 mov	 DWORD PTR $T2[ebp], eax
; File C:\Program Files (x86)\Microsoft Visual Studio\2019\Community\VC\Tools\MSVC\14.28.29333\include\xstring

; 62   :         _CSTD memcpy(_First1, _First2, _Count * sizeof(_Elem));

  0006e	ff 75 08	 push	 DWORD PTR __New_size$[ebp]
  00071	ff 75 10	 push	 DWORD PTR _<_Args_0>$[ebp]
  00074	ff 75 ec	 push	 DWORD PTR $T2[ebp]
  00077	e8 00 00 00 00	 call	 _memcpy
  0007c	83 c4 0c	 add	 esp, 12			; 0000000cH

; 3056 :                 _Traits::assign(_New_ptr[_Count], _Elem());

  0007f	c6 45 ff 00	 mov	 BYTE PTR $T4[ebp], 0

; 428  :         _Left = _Right;

  00083	8b 45 ec	 mov	 eax, DWORD PTR $T2[ebp]
  00086	03 45 08	 add	 eax, DWORD PTR __New_size$[ebp]
  00089	8a 4d ff	 mov	 cl, BYTE PTR $T4[ebp]
  0008c	88 08		 mov	 BYTE PTR [eax], cl

; 4317 :         if (_BUF_SIZE <= _Old_capacity) {

  0008e	83 7d e8 10	 cmp	 DWORD PTR __Old_capacity$[ebp], 16 ; 00000010H
  00092	72 21		 jb	 SHORT $LN3@Reallocate

; 4318 :             _Al.deallocate(_Mypair._Myval2._Bx._Ptr, _Old_capacity + 1);

  00094	8b 45 f8	 mov	 eax, DWORD PTR _this$[ebp]
  00097	8b 00		 mov	 eax, DWORD PTR [eax]
  00099	89 45 dc	 mov	 DWORD PTR __Ptr$[ebp], eax
  0009c	8b 45 e8	 mov	 eax, DWORD PTR __Old_capacity$[ebp]
  0009f	40		 inc	 eax
; File C:\Program Files (x86)\Microsoft Visual Studio\2019\Community\VC\Tools\MSVC\14.28.29333\include\xmemory

; 810  :         _Deallocate<_New_alignof<_Ty>>(_Ptr, sizeof(_Ty) * _Count);

  000a0	50		 push	 eax
  000a1	ff 75 dc	 push	 DWORD PTR __Ptr$[ebp]
  000a4	e8 00 00 00 00	 call	 ??$_Deallocate@$07$0A@@std@@YAXPAXI@Z ; std::_Deallocate<8,0>
  000a9	59		 pop	 ecx
  000aa	59		 pop	 ecx
; File C:\Program Files (x86)\Microsoft Visual Studio\2019\Community\VC\Tools\MSVC\14.28.29333\include\xstring

; 4319 :             _Mypair._Myval2._Bx._Ptr = _New_ptr;

  000ab	8b 45 f8	 mov	 eax, DWORD PTR _this$[ebp]
  000ae	8b 4d f4	 mov	 ecx, DWORD PTR __New_ptr$[ebp]
  000b1	89 08		 mov	 DWORD PTR [eax], ecx

; 4320 :         } else {

  000b3	eb 0e		 jmp	 SHORT $LN4@Reallocate
$LN3@Reallocate:

; 4321 :             _Construct_in_place(_Mypair._Myval2._Bx._Ptr, _New_ptr);

  000b5	8d 45 f4	 lea	 eax, DWORD PTR __New_ptr$[ebp]
  000b8	50		 push	 eax
  000b9	ff 75 f8	 push	 DWORD PTR _this$[ebp]
  000bc	e8 00 00 00 00	 call	 ??$_Construct_in_place@PADABQAD@std@@YAXAAPADABQAD@Z ; std::_Construct_in_place<char *,char * const &>
  000c1	59		 pop	 ecx
  000c2	59		 pop	 ecx
$LN4@Reallocate:

; 4322 :         }
; 4323 : 
; 4324 :         return *this;

  000c3	8b 45 f8	 mov	 eax, DWORD PTR _this$[ebp]
$LN5@Reallocate:

; 4325 :     }

  000c6	c9		 leave
  000c7	c2 0c 00	 ret	 12			; 0000000cH
??$_Reallocate_for@V<lambda_9366063389c5f42a00a5088cf24e69de>@@PBD@?$basic_string@DU?$char_traits@D@std@@V?$allocator@D@2@@std@@AAEAAV01@IV<lambda_9366063389c5f42a00a5088cf24e69de>@@PBD@Z ENDP ; std::basic_string<char,std::char_traits<char>,std::allocator<char> >::_Reallocate_for<<lambda_9366063389c5f42a00a5088cf24e69de>,char const *>
_TEXT	ENDS
; Function compile flags: /Odspy
; File C:\Program Files (x86)\Microsoft Visual Studio\2019\Community\VC\Tools\MSVC\14.28.29333\include\xmemory
;	COMDAT ??$_Destroy_in_place@PAD@std@@YAXAAPAD@Z
_TEXT	SEGMENT
__Obj$ = 8						; size = 4
??$_Destroy_in_place@PAD@std@@YAXAAPAD@Z PROC		; std::_Destroy_in_place<char *>, COMDAT

; 270  : /* _CONSTEXPR20_DYNALLOC */ void _Destroy_in_place(_Ty& _Obj) noexcept {

  00000	55		 push	 ebp
  00001	8b ec		 mov	 ebp, esp

; 271  : #if _HAS_IF_CONSTEXPR
; 272  :     if constexpr (is_array_v<_Ty>) {
; 273  :         _Destroy_range(_Obj, _Obj + extent_v<_Ty>);
; 274  :     } else
; 275  : #endif // _HAS_IF_CONSTEXPR
; 276  :     {
; 277  :         _Obj.~_Ty();
; 278  :     }
; 279  : }

  00003	5d		 pop	 ebp
  00004	c3		 ret	 0
??$_Destroy_in_place@PAD@std@@YAXAAPAD@Z ENDP		; std::_Destroy_in_place<char *>
_TEXT	ENDS
; Function compile flags: /Odspy
; File C:\Program Files (x86)\Microsoft Visual Studio\2019\Community\VC\Tools\MSVC\14.28.29333\include\xmemory
; File C:\Program Files (x86)\Microsoft Visual Studio\2019\Community\VC\Tools\MSVC\14.28.29333\include\xstddef
; File C:\Program Files (x86)\Microsoft Visual Studio\2019\Community\VC\Tools\MSVC\14.28.29333\include\xstring
; File C:\Program Files (x86)\Microsoft Visual Studio\2019\Community\VC\Tools\MSVC\14.28.29333\include\xmemory
;	COMDAT ??$_Destroy_range@V?$allocator@USAttachingModelData@CGrannyLODController@@@std@@@std@@YAXPAUSAttachingModelData@CGrannyLODController@@QAU12@AAV?$allocator@USAttachingModelData@CGrannyLODController@@@0@@Z
_TEXT	SEGMENT
$T1 = -4						; size = 4
__First$ = 8						; size = 4
__Last$ = 12						; size = 4
__Al$ = 16						; size = 4
??$_Destroy_range@V?$allocator@USAttachingModelData@CGrannyLODController@@@std@@@std@@YAXPAUSAttachingModelData@CGrannyLODController@@QAU12@AAV?$allocator@USAttachingModelData@CGrannyLODController@@@0@@Z PROC ; std::_Destroy_range<std::allocator<CGrannyLODController::SAttachingModelData> >, COMDAT

; 962  :     _Alloc_ptr_t<_Alloc> _First, const _Alloc_ptr_t<_Alloc> _Last, _Alloc& _Al) noexcept {

  00000	55		 push	 ebp
  00001	8b ec		 mov	 ebp, esp
  00003	51		 push	 ecx

; 963  :     // note that this is an optimization for debug mode codegen; in release mode the BE removes all of this
; 964  :     using _Ty = typename _Alloc::value_type;
; 965  :     if _CONSTEXPR_IF (!conjunction_v<is_trivially_destructible<_Ty>, _Uses_default_destroy<_Alloc, _Ty*>>) {
; 966  :         for (; _First != _Last; ++_First) {

  00004	eb 09		 jmp	 SHORT $LN4@Destroy_ra
$LN2@Destroy_ra:
  00006	8b 45 08	 mov	 eax, DWORD PTR __First$[ebp]
  00009	83 c0 1c	 add	 eax, 28			; 0000001cH
  0000c	89 45 08	 mov	 DWORD PTR __First$[ebp], eax
$LN4@Destroy_ra:
  0000f	8b 45 08	 mov	 eax, DWORD PTR __First$[ebp]
  00012	3b 45 0c	 cmp	 eax, DWORD PTR __Last$[ebp]
  00015	74 26		 je	 SHORT $LN5@Destroy_ra
; File C:\Program Files (x86)\Microsoft Visual Studio\2019\Community\VC\Tools\MSVC\14.28.29333\include\xstddef

; 289  :     return _Ptr;

  00017	8b 45 08	 mov	 eax, DWORD PTR __First$[ebp]
  0001a	89 45 fc	 mov	 DWORD PTR $T1[ebp], eax
  0001d	8b 4d fc	 mov	 ecx, DWORD PTR $T1[ebp]
  00020	83 c1 04	 add	 ecx, 4
; File C:\Program Files (x86)\Microsoft Visual Studio\2019\Community\VC\Tools\MSVC\14.28.29333\include\xstring

; 2801 :         _Tidy_deallocate();

  00023	e8 00 00 00 00	 call	 ?_Tidy_deallocate@?$basic_string@DU?$char_traits@D@std@@V?$allocator@D@2@@std@@AAEXXZ ; std::basic_string<char,std::char_traits<char>,std::allocator<char> >::_Tidy_deallocate
  00028	33 c0		 xor	 eax, eax
  0002a	83 e0 01	 and	 eax, 1
  0002d	74 0c		 je	 SHORT $LN9@Destroy_ra
  0002f	6a 1c		 push	 28			; 0000001cH
  00031	ff 75 fc	 push	 DWORD PTR $T1[ebp]
  00034	e8 00 00 00 00	 call	 ??3@YAXPAXI@Z		; operator delete
  00039	59		 pop	 ecx
  0003a	59		 pop	 ecx
$LN9@Destroy_ra:
; File C:\Program Files (x86)\Microsoft Visual Studio\2019\Community\VC\Tools\MSVC\14.28.29333\include\xmemory

; 968  :         }

  0003b	eb c9		 jmp	 SHORT $LN2@Destroy_ra
$LN5@Destroy_ra:

; 969  :     }
; 970  : }

  0003d	c9		 leave
  0003e	c3		 ret	 0
??$_Destroy_range@V?$allocator@USAttachingModelData@CGrannyLODController@@@std@@@std@@YAXPAUSAttachingModelData@CGrannyLODController@@QAU12@AAV?$allocator@USAttachingModelData@CGrannyLODController@@@0@@Z ENDP ; std::_Destroy_range<std::allocator<CGrannyLODController::SAttachingModelData> >
_TEXT	ENDS
; Function compile flags: /Odspy
; File C:\Program Files (x86)\Microsoft Visual Studio\2019\Community\VC\Tools\MSVC\14.28.29333\include\xmemory
;	COMDAT ??$_Allocate@$07U_Default_allocate_traits@std@@$0A@@std@@YAPAXI@Z
_TEXT	SEGMENT
__Bytes$ = 8						; size = 4
??$_Allocate@$07U_Default_allocate_traits@std@@$0A@@std@@YAPAXI@Z PROC ; std::_Allocate<8,std::_Default_allocate_traits,0>, COMDAT

; 197  : __declspec(allocator) void* _Allocate(const size_t _Bytes) {

  00000	55		 push	 ebp
  00001	8b ec		 mov	 ebp, esp

; 198  :     // allocate _Bytes when !_HAS_ALIGNED_NEW || _Align <= __STDCPP_DEFAULT_NEW_ALIGNMENT__
; 199  : #if defined(_M_IX86) || defined(_M_X64)
; 200  :     if (_Bytes >= _Big_allocation_threshold) { // boost the alignment of big allocations to help autovectorization

  00003	81 7d 08 00 10
	00 00		 cmp	 DWORD PTR __Bytes$[ebp], 4096 ; 00001000H
  0000a	72 0b		 jb	 SHORT $LN2@Allocate

; 201  :         return _Allocate_manually_vector_aligned<_Traits>(_Bytes);

  0000c	ff 75 08	 push	 DWORD PTR __Bytes$[ebp]
  0000f	e8 00 00 00 00	 call	 ??$_Allocate_manually_vector_aligned@U_Default_allocate_traits@std@@@std@@YAPAXI@Z ; std::_Allocate_manually_vector_aligned<std::_Default_allocate_traits>
  00014	59		 pop	 ecx
  00015	eb 13		 jmp	 SHORT $LN1@Allocate
$LN2@Allocate:

; 202  :     }
; 203  : #endif // defined(_M_IX86) || defined(_M_X64)
; 204  : 
; 205  :     if (_Bytes != 0) {

  00017	83 7d 08 00	 cmp	 DWORD PTR __Bytes$[ebp], 0
  0001b	74 0b		 je	 SHORT $LN3@Allocate

; 77   :         return ::operator new(_Bytes);

  0001d	ff 75 08	 push	 DWORD PTR __Bytes$[ebp]
  00020	e8 00 00 00 00	 call	 ??2@YAPAXI@Z		; operator new
  00025	59		 pop	 ecx

; 206  :         return _Traits::_Allocate(_Bytes);

  00026	eb 02		 jmp	 SHORT $LN1@Allocate
$LN3@Allocate:

; 207  :     }
; 208  : 
; 209  :     return nullptr;

  00028	33 c0		 xor	 eax, eax
$LN1@Allocate:

; 210  : }

  0002a	5d		 pop	 ebp
  0002b	c3		 ret	 0
??$_Allocate@$07U_Default_allocate_traits@std@@$0A@@std@@YAPAXI@Z ENDP ; std::_Allocate<8,std::_Default_allocate_traits,0>
_TEXT	ENDS
; Function compile flags: /Odspy
; File C:\Program Files (x86)\Microsoft Visual Studio\2019\Community\VC\Tools\MSVC\14.28.29333\include\xmemory
;	COMDAT ??$_Destroy_range@PAPAPAVCGrannyModelInstance@@PAPAPAV1@@std@@YAXPAPAPAVCGrannyModelInstance@@QAPAPAV1@@Z
_TEXT	SEGMENT
__First$ = 8						; size = 4
__Last$ = 12						; size = 4
??$_Destroy_range@PAPAPAVCGrannyModelInstance@@PAPAPAV1@@std@@YAXPAPAPAVCGrannyModelInstance@@QAPAPAV1@@Z PROC ; std::_Destroy_range<CGrannyModelInstance * * *,CGrannyModelInstance * * *>, COMDAT

; 974  : /* _CONSTEXPR20_DYNALLOC */ void _Destroy_range(_NoThrowFwdIt _First, const _NoThrowSentinel _Last) noexcept {

  00000	55		 push	 ebp
  00001	8b ec		 mov	 ebp, esp

; 975  :     // note that this is an optimization for debug mode codegen; in release mode the BE removes all of this
; 976  :     if _CONSTEXPR_IF (!is_trivially_destructible_v<_Iter_value_t<_NoThrowFwdIt>>) {
; 977  :         for (; _First != _Last; ++_First) {
; 978  :             _Destroy_in_place(*_First);
; 979  :         }
; 980  :     }
; 981  : }

  00003	5d		 pop	 ebp
  00004	c3		 ret	 0
??$_Destroy_range@PAPAPAVCGrannyModelInstance@@PAPAPAV1@@std@@YAXPAPAPAVCGrannyModelInstance@@QAPAPAV1@@Z ENDP ; std::_Destroy_range<CGrannyModelInstance * * *,CGrannyModelInstance * * *>
_TEXT	ENDS
; Function compile flags: /Odspy
; File C:\Program Files (x86)\Microsoft Visual Studio\2019\Community\VC\Tools\MSVC\14.28.29333\include\xmemory
;	COMDAT ??$_Uninitialized_value_construct_n_unchecked1@PAPAPAVCGrannyModelInstance@@I@std@@YAPAPAPAVCGrannyModelInstance@@PAPAPAV1@I@Z
_TEXT	SEGMENT
__UFirst$ = 8						; size = 4
__Count$ = 12						; size = 4
??$_Uninitialized_value_construct_n_unchecked1@PAPAPAVCGrannyModelInstance@@I@std@@YAPAPAPAVCGrannyModelInstance@@PAPAPAV1@I@Z PROC ; std::_Uninitialized_value_construct_n_unchecked1<CGrannyModelInstance * * *,unsigned int>, COMDAT

; 1912 : _NoThrowFwdIt _Uninitialized_value_construct_n_unchecked1(_NoThrowFwdIt _UFirst, _Diff _Count) {

  00000	55		 push	 ebp
  00001	8b ec		 mov	 ebp, esp

; 1913 :     // value-initialize all elements in [_UFirst, _UFirst + _Count_raw)
; 1914 :     _STL_INTERNAL_CHECK(_Count >= 0);
; 1915 :     if constexpr (_Use_memset_value_construct_v<_NoThrowFwdIt>) {
; 1916 :         return _Zero_range(_UFirst, _UFirst + _Count);

  00003	8b 45 0c	 mov	 eax, DWORD PTR __Count$[ebp]
  00006	8b 4d 08	 mov	 ecx, DWORD PTR __UFirst$[ebp]
  00009	8d 04 81	 lea	 eax, DWORD PTR [ecx+eax*4]
  0000c	50		 push	 eax
  0000d	ff 75 08	 push	 DWORD PTR __UFirst$[ebp]
  00010	e8 00 00 00 00	 call	 ??$_Zero_range@PAPAPAVCGrannyModelInstance@@@std@@YAPAPAPAVCGrannyModelInstance@@QAPAPAV1@0@Z ; std::_Zero_range<CGrannyModelInstance * * *>
  00015	59		 pop	 ecx
  00016	59		 pop	 ecx

; 1917 :     } else {
; 1918 :         _Uninitialized_backout<_NoThrowFwdIt> _Backout{_UFirst};
; 1919 :         for (; 0 < _Count; --_Count) {
; 1920 :             _Backout._Emplace_back();
; 1921 :         }
; 1922 : 
; 1923 :         return _Backout._Release();
; 1924 :     }
; 1925 : }

  00017	5d		 pop	 ebp
  00018	c3		 ret	 0
??$_Uninitialized_value_construct_n_unchecked1@PAPAPAVCGrannyModelInstance@@I@std@@YAPAPAPAVCGrannyModelInstance@@PAPAPAV1@I@Z ENDP ; std::_Uninitialized_value_construct_n_unchecked1<CGrannyModelInstance * * *,unsigned int>
_TEXT	ENDS
; Function compile flags: /Odspy
; File C:\Program Files (x86)\Microsoft Visual Studio\2019\Community\VC\Tools\MSVC\14.28.29333\include\xmemory
; File C:\Program Files (x86)\Microsoft Visual Studio\2019\Community\VC\Tools\MSVC\14.28.29333\include\xutility
; File C:\Program Files (x86)\Microsoft Visual Studio\2019\Community\VC\Tools\MSVC\14.28.29333\include\xmemory
; File C:\Program Files (x86)\Microsoft Visual Studio\2019\Community\VC\Tools\MSVC\14.28.29333\include\xutility
; File C:\Program Files (x86)\Microsoft Visual Studio\2019\Community\VC\Tools\MSVC\14.28.29333\include\xmemory
;	COMDAT ??$uninitialized_copy@PAPAPAVCGrannyModelInstance@@PAPAPAV1@@std@@YAPAPAPAVCGrannyModelInstance@@QAPAPAV1@0PAPAPAV1@@Z
_TEXT	SEGMENT
$T1 = -16						; size = 4
__UFirst$ = -12						; size = 4
__ULast$ = -8						; size = 4
__UDest$ = -4						; size = 4
__First$ = 8						; size = 4
__Last$ = 12						; size = 4
__Dest$ = 16						; size = 4
??$uninitialized_copy@PAPAPAVCGrannyModelInstance@@PAPAPAV1@@std@@YAPAPAPAVCGrannyModelInstance@@QAPAPAV1@0PAPAPAV1@@Z PROC ; std::uninitialized_copy<CGrannyModelInstance * * *,CGrannyModelInstance * * *>, COMDAT

; 1629 : _NoThrowFwdIt uninitialized_copy(const _InIt _First, const _InIt _Last, _NoThrowFwdIt _Dest) {

  00000	55		 push	 ebp
  00001	8b ec		 mov	 ebp, esp
  00003	83 ec 10	 sub	 esp, 16			; 00000010H

; 1630 :     // copy [_First, _Last) to raw [_Dest, ...)
; 1631 :     _Adl_verify_range(_First, _Last);
; 1632 :     auto _UFirst      = _Get_unwrapped(_First);

  00006	8b 45 08	 mov	 eax, DWORD PTR __First$[ebp]
  00009	89 45 f4	 mov	 DWORD PTR __UFirst$[ebp], eax

; 1633 :     const auto _ULast = _Get_unwrapped(_Last);

  0000c	8b 45 0c	 mov	 eax, DWORD PTR __Last$[ebp]
  0000f	89 45 f8	 mov	 DWORD PTR __ULast$[ebp], eax
; File C:\Program Files (x86)\Microsoft Visual Studio\2019\Community\VC\Tools\MSVC\14.28.29333\include\xutility

; 1557 :         return static_cast<_Iter_diff_t<_Checked>>(_Last - _First);

  00012	8b 45 f8	 mov	 eax, DWORD PTR __ULast$[ebp]
  00015	2b 45 f4	 sub	 eax, DWORD PTR __UFirst$[ebp]
  00018	c1 f8 02	 sar	 eax, 2
  0001b	89 45 f0	 mov	 DWORD PTR $T1[ebp], eax
; File C:\Program Files (x86)\Microsoft Visual Studio\2019\Community\VC\Tools\MSVC\14.28.29333\include\xmemory

; 1634 :     auto _UDest       = _Get_unwrapped_n(_Dest, _Idl_distance<_InIt>(_UFirst, _ULast));

  0001e	8b 45 10	 mov	 eax, DWORD PTR __Dest$[ebp]
  00021	89 45 fc	 mov	 DWORD PTR __UDest$[ebp], eax

; 1635 :     if constexpr (_Ptr_copy_cat<decltype(_UFirst), decltype(_UDest)>::_Really_trivial) {
; 1636 :         _UDest = _Copy_memmove(_UFirst, _ULast, _UDest);

  00024	ff 75 fc	 push	 DWORD PTR __UDest$[ebp]
  00027	ff 75 f8	 push	 DWORD PTR __ULast$[ebp]
  0002a	ff 75 f4	 push	 DWORD PTR __UFirst$[ebp]
  0002d	e8 00 00 00 00	 call	 ??$_Copy_memmove@PAPAPAVCGrannyModelInstance@@PAPAPAV1@@std@@YAPAPAPAVCGrannyModelInstance@@PAPAPAV1@00@Z ; std::_Copy_memmove<CGrannyModelInstance * * *,CGrannyModelInstance * * *>
  00032	83 c4 0c	 add	 esp, 12			; 0000000cH
  00035	89 45 fc	 mov	 DWORD PTR __UDest$[ebp], eax
; File C:\Program Files (x86)\Microsoft Visual Studio\2019\Community\VC\Tools\MSVC\14.28.29333\include\xutility

; 1492 :         _It = static_cast<_UIter&&>(_UIt);

  00038	8b 45 fc	 mov	 eax, DWORD PTR __UDest$[ebp]
  0003b	89 45 10	 mov	 DWORD PTR __Dest$[ebp], eax
; File C:\Program Files (x86)\Microsoft Visual Studio\2019\Community\VC\Tools\MSVC\14.28.29333\include\xmemory

; 1647 :     return _Dest;

  0003e	8b 45 10	 mov	 eax, DWORD PTR __Dest$[ebp]

; 1648 : }

  00041	c9		 leave
  00042	c3		 ret	 0
??$uninitialized_copy@PAPAPAVCGrannyModelInstance@@PAPAPAV1@@std@@YAPAPAPAVCGrannyModelInstance@@QAPAPAV1@0PAPAPAV1@@Z ENDP ; std::uninitialized_copy<CGrannyModelInstance * * *,CGrannyModelInstance * * *>
_TEXT	ENDS
; Function compile flags: /Odspy
; File C:\Program Files (x86)\Microsoft Visual Studio\2019\Community\VC\Tools\MSVC\14.28.29333\include\xmemory
;	COMDAT ??$_Destroy_in_place@PAPAVCGrannyModelInstance@@@std@@YAXAAPAPAVCGrannyModelInstance@@@Z
_TEXT	SEGMENT
__Obj$ = 8						; size = 4
??$_Destroy_in_place@PAPAVCGrannyModelInstance@@@std@@YAXAAPAPAVCGrannyModelInstance@@@Z PROC ; std::_Destroy_in_place<CGrannyModelInstance * *>, COMDAT

; 270  : /* _CONSTEXPR20_DYNALLOC */ void _Destroy_in_place(_Ty& _Obj) noexcept {

  00000	55		 push	 ebp
  00001	8b ec		 mov	 ebp, esp

; 271  : #if _HAS_IF_CONSTEXPR
; 272  :     if constexpr (is_array_v<_Ty>) {
; 273  :         _Destroy_range(_Obj, _Obj + extent_v<_Ty>);
; 274  :     } else
; 275  : #endif // _HAS_IF_CONSTEXPR
; 276  :     {
; 277  :         _Obj.~_Ty();
; 278  :     }
; 279  : }

  00003	5d		 pop	 ebp
  00004	c3		 ret	 0
??$_Destroy_in_place@PAPAVCGrannyModelInstance@@@std@@YAXAAPAPAVCGrannyModelInstance@@@Z ENDP ; std::_Destroy_in_place<CGrannyModelInstance * *>
_TEXT	ENDS
; Function compile flags: /Odspy
; File C:\Program Files (x86)\Microsoft Visual Studio\2019\Community\VC\Tools\MSVC\14.28.29333\include\xmemory
;	COMDAT ??$_Destroy_range@V?$allocator@PAVCGraphicVertexBuffer@@@std@@@std@@YAXPAPAVCGraphicVertexBuffer@@QAPAV1@AAV?$allocator@PAVCGraphicVertexBuffer@@@0@@Z
_TEXT	SEGMENT
__First$ = 8						; size = 4
__Last$ = 12						; size = 4
__Al$ = 16						; size = 4
??$_Destroy_range@V?$allocator@PAVCGraphicVertexBuffer@@@std@@@std@@YAXPAPAVCGraphicVertexBuffer@@QAPAV1@AAV?$allocator@PAVCGraphicVertexBuffer@@@0@@Z PROC ; std::_Destroy_range<std::allocator<CGraphicVertexBuffer *> >, COMDAT

; 962  :     _Alloc_ptr_t<_Alloc> _First, const _Alloc_ptr_t<_Alloc> _Last, _Alloc& _Al) noexcept {

  00000	55		 push	 ebp
  00001	8b ec		 mov	 ebp, esp

; 963  :     // note that this is an optimization for debug mode codegen; in release mode the BE removes all of this
; 964  :     using _Ty = typename _Alloc::value_type;
; 965  :     if _CONSTEXPR_IF (!conjunction_v<is_trivially_destructible<_Ty>, _Uses_default_destroy<_Alloc, _Ty*>>) {
; 966  :         for (; _First != _Last; ++_First) {
; 967  :             allocator_traits<_Alloc>::destroy(_Al, _Unfancy(_First));
; 968  :         }
; 969  :     }
; 970  : }

  00003	5d		 pop	 ebp
  00004	c3		 ret	 0
??$_Destroy_range@V?$allocator@PAVCGraphicVertexBuffer@@@std@@@std@@YAXPAPAVCGraphicVertexBuffer@@QAPAV1@AAV?$allocator@PAVCGraphicVertexBuffer@@@0@@Z ENDP ; std::_Destroy_range<std::allocator<CGraphicVertexBuffer *> >
_TEXT	ENDS
; Function compile flags: /Odspy
; File C:\Program Files (x86)\Microsoft Visual Studio\2019\Community\VC\Tools\MSVC\14.28.29333\include\vector
; File C:\Program Files (x86)\Microsoft Visual Studio\2019\Community\VC\Tools\MSVC\14.28.29333\include\xmemory
; File C:\Program Files (x86)\Microsoft Visual Studio\2019\Community\VC\Tools\MSVC\14.28.29333\include\vector
; File C:\Program Files (x86)\Microsoft Visual Studio\2019\Community\VC\Tools\MSVC\14.28.29333\include\xmemory
; File C:\Program Files (x86)\Microsoft Visual Studio\2019\Community\VC\Tools\MSVC\14.28.29333\include\vector
; File C:\Program Files (x86)\Microsoft Visual Studio\2019\Community\VC\Tools\MSVC\14.28.29333\include\xmemory
; File C:\Program Files (x86)\Microsoft Visual Studio\2019\Community\VC\Tools\MSVC\14.28.29333\include\limits
; File C:\Program Files (x86)\Microsoft Visual Studio\2019\Community\VC\Tools\MSVC\14.28.29333\include\vector
; File C:\Program Files (x86)\Microsoft Visual Studio\2019\Community\VC\Tools\MSVC\14.28.29333\include\utility
; File C:\Program Files (x86)\Microsoft Visual Studio\2019\Community\VC\Tools\MSVC\14.28.29333\include\vector
; File C:\Program Files (x86)\Microsoft Visual Studio\2019\Community\VC\Tools\MSVC\14.28.29333\include\xmemory
; File C:\Program Files (x86)\Microsoft Visual Studio\2019\Community\VC\Tools\MSVC\14.28.29333\include\vector
; File C:\Program Files (x86)\Microsoft Visual Studio\2019\Community\VC\Tools\MSVC\14.28.29333\include\type_traits
; File C:\Program Files (x86)\Microsoft Visual Studio\2019\Community\VC\Tools\MSVC\14.28.29333\include\vector
; File C:\Program Files (x86)\Microsoft Visual Studio\2019\Community\VC\Tools\MSVC\14.28.29333\include\xstddef
; File C:\Program Files (x86)\Microsoft Visual Studio\2019\Community\VC\Tools\MSVC\14.28.29333\include\vcruntime_new.h
; File C:\Program Files (x86)\Microsoft Visual Studio\2019\Community\VC\Tools\MSVC\14.28.29333\include\type_traits
; File C:\Program Files (x86)\Microsoft Visual Studio\2019\Community\VC\Tools\MSVC\14.28.29333\include\vector
; File C:\Program Files (x86)\Microsoft Visual Studio\2019\Community\VC\Tools\MSVC\14.28.29333\include\xmemory
; File C:\Program Files (x86)\Microsoft Visual Studio\2019\Community\VC\Tools\MSVC\14.28.29333\include\vector
; File C:\Program Files (x86)\Microsoft Visual Studio\2019\Community\VC\Tools\MSVC\14.28.29333\include\xmemory
; File C:\Program Files (x86)\Microsoft Visual Studio\2019\Community\VC\Tools\MSVC\14.28.29333\include\vector
; File C:\Program Files (x86)\Microsoft Visual Studio\2019\Community\VC\Tools\MSVC\14.28.29333\include\xmemory
; File C:\Program Files (x86)\Microsoft Visual Studio\2019\Community\VC\Tools\MSVC\14.28.29333\include\vector
;	COMDAT ??$_Emplace_reallocate@ABUSAttachingModelData@CGrannyLODController@@@?$vector@USAttachingModelData@CGrannyLODController@@V?$allocator@USAttachingModelData@CGrannyLODController@@@std@@@std@@QAEPAUSAttachingModelData@CGrannyLODController@@QAU23@ABU23@@Z
_TEXT	SEGMENT
__Max_possible$2 = -68					; size = 4
$T3 = -64						; size = 4
__Al$ = -60						; size = 4
__Last$ = -56						; size = 4
$T4 = -52						; size = 4
$T5 = -48						; size = 4
__First$ = -44						; size = 4
$T6 = -40						; size = 4
$T7 = -36						; size = 4
__First$ = -32						; size = 4
__Last$ = -28						; size = 4
$T8 = -24						; size = 4
$T9 = -20						; size = 4
__$EHRec$ = -16						; size = 16
$T10 = 0						; size = 4
$T11 = 4						; size = 4
$T12 = 8						; size = 4
$T13 = 12						; size = 4
$T14 = 16						; size = 4
$T15 = 20						; size = 4
$T16 = 24						; size = 4
$T17 = 28						; size = 4
$T18 = 32						; size = 4
__Newsize$ = 36						; size = 4
__Constructed_last$ = 40				; size = 4
$T19 = 44						; size = 4
$T20 = 48						; size = 4
__Oldsize$ = 52						; size = 4
tv172 = 56						; size = 4
$T21 = 60						; size = 4
$T22 = 64						; size = 4
__My_data$ = 68						; size = 4
__Constructed_first$ = 72				; size = 4
___formal$ = 76						; size = 1
__Overflow_is_possible$23 = 83				; size = 1
__Newcapacity$ = 84					; size = 4
__Mylast$ = 88						; size = 4
__Myfirst$ = 92						; size = 4
__Whereoff$ = 96					; size = 4
$T24 = 103						; size = 1
_this$ = 104						; size = 4
__Newvec$ = 108						; size = 4
__Whereptr$ = 120					; size = 4
_<_Val_0>$ = 124					; size = 4
??$_Emplace_reallocate@ABUSAttachingModelData@CGrannyLODController@@@?$vector@USAttachingModelData@CGrannyLODController@@V?$allocator@USAttachingModelData@CGrannyLODController@@@std@@@std@@QAEPAUSAttachingModelData@CGrannyLODController@@QAU23@ABU23@@Z PROC ; std::vector<CGrannyLODController::SAttachingModelData,std::allocator<CGrannyLODController::SAttachingModelData> >::_Emplace_reallocate<CGrannyLODController::SAttachingModelData const &>, COMDAT
; _this$ = ecx

; 725  :     pointer _Emplace_reallocate(const pointer _Whereptr, _Valty&&... _Val) {

  00000	55		 push	 ebp
  00001	8d 6c 24 90	 lea	 ebp, DWORD PTR [esp-112]
  00005	83 ec 70	 sub	 esp, 112		; 00000070H
  00008	6a ff		 push	 -1
  0000a	68 00 00 00 00	 push	 __ehhandler$??$_Emplace_reallocate@ABUSAttachingModelData@CGrannyLODController@@@?$vector@USAttachingModelData@CGrannyLODController@@V?$allocator@USAttachingModelData@CGrannyLODController@@@std@@@std@@QAEPAUSAttachingModelData@CGrannyLODController@@QAU23@ABU23@@Z
  0000f	64 a1 00 00 00
	00		 mov	 eax, DWORD PTR fs:0
  00015	50		 push	 eax
  00016	51		 push	 ecx
  00017	83 ec 34	 sub	 esp, 52			; 00000034H
  0001a	53		 push	 ebx
  0001b	56		 push	 esi
  0001c	57		 push	 edi
  0001d	a1 00 00 00 00	 mov	 eax, DWORD PTR ___security_cookie
  00022	33 c5		 xor	 eax, ebp
  00024	50		 push	 eax
  00025	8d 45 f4	 lea	 eax, DWORD PTR __$EHRec$[ebp+4]
  00028	64 a3 00 00 00
	00		 mov	 DWORD PTR fs:0, eax
  0002e	89 65 f0	 mov	 DWORD PTR __$EHRec$[ebp], esp
  00031	89 4d 68	 mov	 DWORD PTR _this$[ebp], ecx

; 1733 :         return _Mypair._Get_first();

  00034	8b 45 68	 mov	 eax, DWORD PTR _this$[ebp]
; File C:\Program Files (x86)\Microsoft Visual Studio\2019\Community\VC\Tools\MSVC\14.28.29333\include\xmemory

; 1347 :         return *this;

  00037	89 45 20	 mov	 DWORD PTR $T18[ebp], eax
; File C:\Program Files (x86)\Microsoft Visual Studio\2019\Community\VC\Tools\MSVC\14.28.29333\include\vector

; 1733 :         return _Mypair._Get_first();

  0003a	8b 45 20	 mov	 eax, DWORD PTR $T18[ebp]
  0003d	89 45 c4	 mov	 DWORD PTR __Al$[ebp], eax

; 726  :         // reallocate and insert by perfectly forwarding _Val at _Whereptr
; 727  :         _Alty& _Al        = _Getal();
; 728  :         auto& _My_data    = _Mypair._Myval2;

  00040	8b 45 68	 mov	 eax, DWORD PTR _this$[ebp]
  00043	89 45 44	 mov	 DWORD PTR __My_data$[ebp], eax

; 729  :         pointer& _Myfirst = _My_data._Myfirst;

  00046	8b 45 44	 mov	 eax, DWORD PTR __My_data$[ebp]
  00049	89 45 5c	 mov	 DWORD PTR __Myfirst$[ebp], eax

; 730  :         pointer& _Mylast  = _My_data._Mylast;

  0004c	8b 45 44	 mov	 eax, DWORD PTR __My_data$[ebp]
  0004f	83 c0 04	 add	 eax, 4
  00052	89 45 58	 mov	 DWORD PTR __Mylast$[ebp], eax

; 731  : 
; 732  :         _STL_INTERNAL_CHECK(_Mylast == _My_data._Myend); // check that we have no unused capacity
; 733  : 
; 734  :         const auto _Whereoff = static_cast<size_type>(_Whereptr - _Myfirst);

  00055	8b 45 5c	 mov	 eax, DWORD PTR __Myfirst$[ebp]
  00058	8b 4d 78	 mov	 ecx, DWORD PTR __Whereptr$[ebp]
  0005b	2b 08		 sub	 ecx, DWORD PTR [eax]
  0005d	8b c1		 mov	 eax, ecx
  0005f	99		 cdq
  00060	6a 1c		 push	 28			; 0000001cH
  00062	59		 pop	 ecx
  00063	f7 f9		 idiv	 ecx
  00065	89 45 60	 mov	 DWORD PTR __Whereoff$[ebp], eax

; 735  :         const auto _Oldsize  = static_cast<size_type>(_Mylast - _Myfirst);

  00068	8b 45 58	 mov	 eax, DWORD PTR __Mylast$[ebp]
  0006b	8b 4d 5c	 mov	 ecx, DWORD PTR __Myfirst$[ebp]
  0006e	8b 00		 mov	 eax, DWORD PTR [eax]
  00070	2b 01		 sub	 eax, DWORD PTR [ecx]
  00072	99		 cdq
  00073	6a 1c		 push	 28			; 0000001cH
  00075	59		 pop	 ecx
  00076	f7 f9		 idiv	 ecx
  00078	89 45 34	 mov	 DWORD PTR __Oldsize$[ebp], eax

; 1737 :         return _Mypair._Get_first();

  0007b	8b 45 68	 mov	 eax, DWORD PTR _this$[ebp]
; File C:\Program Files (x86)\Microsoft Visual Studio\2019\Community\VC\Tools\MSVC\14.28.29333\include\xmemory

; 1351 :         return *this;

  0007e	89 45 1c	 mov	 DWORD PTR $T17[ebp], eax
; File C:\Program Files (x86)\Microsoft Visual Studio\2019\Community\VC\Tools\MSVC\14.28.29333\include\vector

; 1737 :         return _Mypair._Get_first();

  00081	8b 45 1c	 mov	 eax, DWORD PTR $T17[ebp]
  00084	89 45 c0	 mov	 DWORD PTR $T3[ebp], eax
; File C:\Program Files (x86)\Microsoft Visual Studio\2019\Community\VC\Tools\MSVC\14.28.29333\include\xmemory

; 710  :         return static_cast<size_t>(-1) / sizeof(value_type);

  00087	c7 45 40 49 92
	24 09		 mov	 DWORD PTR $T22[ebp], 153391689 ; 09249249H
; File C:\Program Files (x86)\Microsoft Visual Studio\2019\Community\VC\Tools\MSVC\14.28.29333\include\limits

; 557  :         return INT_MAX;

  0008e	c7 45 18 ff ff
	ff 7f		 mov	 DWORD PTR $T16[ebp], 2147483647 ; 7fffffffH
; File C:\Program Files (x86)\Microsoft Visual Studio\2019\Community\VC\Tools\MSVC\14.28.29333\include\vector

; 1488 :         return (_STD min)(

  00095	8b 45 18	 mov	 eax, DWORD PTR $T16[ebp]
  00098	89 45 3c	 mov	 DWORD PTR $T21[ebp], eax
; File C:\Program Files (x86)\Microsoft Visual Studio\2019\Community\VC\Tools\MSVC\14.28.29333\include\utility

; 68   :     return _Right < _Left ? _Right : _Left;

  0009b	8b 45 40	 mov	 eax, DWORD PTR $T22[ebp]
  0009e	3b 45 3c	 cmp	 eax, DWORD PTR $T21[ebp]
  000a1	73 08		 jae	 SHORT $LN34@Emplace_re
  000a3	8d 45 40	 lea	 eax, DWORD PTR $T22[ebp]
  000a6	89 45 38	 mov	 DWORD PTR tv172[ebp], eax
  000a9	eb 06		 jmp	 SHORT $LN35@Emplace_re
$LN34@Emplace_re:
  000ab	8d 45 3c	 lea	 eax, DWORD PTR $T21[ebp]
  000ae	89 45 38	 mov	 DWORD PTR tv172[ebp], eax
$LN35@Emplace_re:
  000b1	8b 45 38	 mov	 eax, DWORD PTR tv172[ebp]
  000b4	89 45 14	 mov	 DWORD PTR $T15[ebp], eax
  000b7	8b 45 14	 mov	 eax, DWORD PTR $T15[ebp]
  000ba	89 45 10	 mov	 DWORD PTR $T14[ebp], eax
; File C:\Program Files (x86)\Microsoft Visual Studio\2019\Community\VC\Tools\MSVC\14.28.29333\include\vector

; 1488 :         return (_STD min)(

  000bd	8b 45 10	 mov	 eax, DWORD PTR $T14[ebp]
  000c0	8b 00		 mov	 eax, DWORD PTR [eax]
  000c2	89 45 0c	 mov	 DWORD PTR $T13[ebp], eax

; 736  : 
; 737  :         if (_Oldsize == max_size()) {

  000c5	8b 45 34	 mov	 eax, DWORD PTR __Oldsize$[ebp]
  000c8	3b 45 0c	 cmp	 eax, DWORD PTR $T13[ebp]
  000cb	75 05		 jne	 SHORT $LN2@Emplace_re

; 738  :             _Xlength();

  000cd	e8 00 00 00 00	 call	 ?_Xlength@?$vector@USAttachingModelData@CGrannyLODController@@V?$allocator@USAttachingModelData@CGrannyLODController@@@std@@@std@@CAXXZ ; std::vector<CGrannyLODController::SAttachingModelData,std::allocator<CGrannyLODController::SAttachingModelData> >::_Xlength
$LN2@Emplace_re:

; 739  :         }
; 740  : 
; 741  :         const size_type _Newsize     = _Oldsize + 1;

  000d2	8b 45 34	 mov	 eax, DWORD PTR __Oldsize$[ebp]
  000d5	40		 inc	 eax
  000d6	89 45 24	 mov	 DWORD PTR __Newsize$[ebp], eax

; 742  :         const size_type _Newcapacity = _Calculate_growth(_Newsize);

  000d9	ff 75 24	 push	 DWORD PTR __Newsize$[ebp]
  000dc	8b 4d 68	 mov	 ecx, DWORD PTR _this$[ebp]
  000df	e8 00 00 00 00	 call	 ?_Calculate_growth@?$vector@USAttachingModelData@CGrannyLODController@@V?$allocator@USAttachingModelData@CGrannyLODController@@@std@@@std@@ABEII@Z ; std::vector<CGrannyLODController::SAttachingModelData,std::allocator<CGrannyLODController::SAttachingModelData> >::_Calculate_growth
  000e4	89 45 54	 mov	 DWORD PTR __Newcapacity$[ebp], eax
; File C:\Program Files (x86)\Microsoft Visual Studio\2019\Community\VC\Tools\MSVC\14.28.29333\include\xmemory

; 56   :     constexpr bool _Overflow_is_possible = _Ty_size > 1;

  000e7	c6 45 53 01	 mov	 BYTE PTR __Overflow_is_possible$23[ebp], 1

; 57   : 
; 58   :     if _CONSTEXPR_IF (_Overflow_is_possible) {
; 59   :         constexpr size_t _Max_possible = static_cast<size_t>(-1) / _Ty_size;

  000eb	c7 45 bc 49 92
	24 09		 mov	 DWORD PTR __Max_possible$2[ebp], 153391689 ; 09249249H

; 60   :         if (_Count > _Max_possible) {

  000f2	81 7d 54 49 92
	24 09		 cmp	 DWORD PTR __Newcapacity$[ebp], 153391689 ; 09249249H
  000f9	76 05		 jbe	 SHORT $LN67@Emplace_re

; 61   :             _Throw_bad_array_new_length(); // multiply overflow

  000fb	e8 00 00 00 00	 call	 ?_Throw_bad_array_new_length@std@@YAXXZ ; std::_Throw_bad_array_new_length
$LN67@Emplace_re:

; 62   :         }
; 63   :     }
; 64   : 
; 65   :     return _Count * _Ty_size;

  00100	6b 45 54 1c	 imul	 eax, DWORD PTR __Newcapacity$[ebp], 28
  00104	89 45 08	 mov	 DWORD PTR $T12[ebp], eax

; 814  :         return static_cast<_Ty*>(_Allocate<_New_alignof<_Ty>>(_Get_size_of_n<sizeof(_Ty)>(_Count)));

  00107	ff 75 08	 push	 DWORD PTR $T12[ebp]
  0010a	e8 00 00 00 00	 call	 ??$_Allocate@$07U_Default_allocate_traits@std@@$0A@@std@@YAPAXI@Z ; std::_Allocate<8,std::_Default_allocate_traits,0>
  0010f	59		 pop	 ecx
  00110	89 45 6c	 mov	 DWORD PTR __Newvec$[ebp], eax
; File C:\Program Files (x86)\Microsoft Visual Studio\2019\Community\VC\Tools\MSVC\14.28.29333\include\vector

; 745  :         const pointer _Constructed_last = _Newvec + _Whereoff + 1;

  00113	6b 45 60 1c	 imul	 eax, DWORD PTR __Whereoff$[ebp], 28
  00117	8b 4d 6c	 mov	 ecx, DWORD PTR __Newvec$[ebp]
  0011a	8d 44 01 1c	 lea	 eax, DWORD PTR [ecx+eax+28]
  0011e	89 45 28	 mov	 DWORD PTR __Constructed_last$[ebp], eax

; 746  :         pointer _Constructed_first      = _Constructed_last;

  00121	8b 45 28	 mov	 eax, DWORD PTR __Constructed_last$[ebp]
  00124	89 45 48	 mov	 DWORD PTR __Constructed_first$[ebp], eax

; 747  : 
; 748  :         _TRY_BEGIN

  00127	83 65 fc 00	 and	 DWORD PTR __$EHRec$[ebp+12], 0
; File C:\Program Files (x86)\Microsoft Visual Studio\2019\Community\VC\Tools\MSVC\14.28.29333\include\type_traits

; 1443 :     return static_cast<_Ty&&>(_Arg);

  0012b	8b 45 7c	 mov	 eax, DWORD PTR _<_Val_0>$[ebp]
  0012e	89 45 00	 mov	 DWORD PTR $T10[ebp], eax
; File C:\Program Files (x86)\Microsoft Visual Studio\2019\Community\VC\Tools\MSVC\14.28.29333\include\vector

; 749  :         _Alty_traits::construct(_Al, _Unfancy(_Newvec + _Whereoff), _STD forward<_Valty>(_Val)...);

  00131	6b 45 60 1c	 imul	 eax, DWORD PTR __Whereoff$[ebp], 28
  00135	03 45 6c	 add	 eax, DWORD PTR __Newvec$[ebp]
; File C:\Program Files (x86)\Microsoft Visual Studio\2019\Community\VC\Tools\MSVC\14.28.29333\include\xstddef

; 289  :     return _Ptr;

  00138	89 45 04	 mov	 DWORD PTR $T11[ebp], eax
; File C:\Program Files (x86)\Microsoft Visual Studio\2019\Community\VC\Tools\MSVC\14.28.29333\include\vcruntime_new.h

; 169  :         return _Where;

  0013b	8b 45 04	 mov	 eax, DWORD PTR $T11[ebp]
  0013e	89 45 2c	 mov	 DWORD PTR $T19[ebp], eax
; File C:\Program Files (x86)\Microsoft Visual Studio\2019\Community\VC\Tools\MSVC\14.28.29333\include\type_traits

; 1443 :     return static_cast<_Ty&&>(_Arg);

  00141	8b 45 00	 mov	 eax, DWORD PTR $T10[ebp]
  00144	89 45 30	 mov	 DWORD PTR $T20[ebp], eax
  00147	8b 45 2c	 mov	 eax, DWORD PTR $T19[ebp]
  0014a	8b 4d 30	 mov	 ecx, DWORD PTR $T20[ebp]
  0014d	8b 09		 mov	 ecx, DWORD PTR [ecx]
  0014f	89 08		 mov	 DWORD PTR [eax], ecx
  00151	8b 45 30	 mov	 eax, DWORD PTR $T20[ebp]
  00154	83 c0 04	 add	 eax, 4
  00157	50		 push	 eax
  00158	8b 4d 2c	 mov	 ecx, DWORD PTR $T19[ebp]
  0015b	83 c1 04	 add	 ecx, 4
  0015e	e8 00 00 00 00	 call	 ??0?$basic_string@DU?$char_traits@D@std@@V?$allocator@D@2@@std@@QAE@ABV01@@Z ; std::basic_string<char,std::char_traits<char>,std::allocator<char> >::basic_string<char,std::char_traits<char>,std::allocator<char> >
; File C:\Program Files (x86)\Microsoft Visual Studio\2019\Community\VC\Tools\MSVC\14.28.29333\include\vector

; 750  :         _Constructed_first = _Newvec + _Whereoff;

  00163	6b 45 60 1c	 imul	 eax, DWORD PTR __Whereoff$[ebp], 28
  00167	03 45 6c	 add	 eax, DWORD PTR __Newvec$[ebp]
  0016a	89 45 48	 mov	 DWORD PTR __Constructed_first$[ebp], eax

; 751  : 
; 752  :         if (_Whereptr == _Mylast) { // at back, provide strong guarantee

  0016d	8b 45 58	 mov	 eax, DWORD PTR __Mylast$[ebp]
  00170	8b 4d 78	 mov	 ecx, DWORD PTR __Whereptr$[ebp]
  00173	3b 08		 cmp	 ecx, DWORD PTR [eax]
  00175	75 3d		 jne	 SHORT $LN4@Emplace_re

; 753  :             _Umove_if_noexcept(_Myfirst, _Mylast, _Newvec);

  00177	8b 45 58	 mov	 eax, DWORD PTR __Mylast$[ebp]
  0017a	8b 00		 mov	 eax, DWORD PTR [eax]
  0017c	89 45 e4	 mov	 DWORD PTR __Last$[ebp], eax
  0017f	8b 45 5c	 mov	 eax, DWORD PTR __Myfirst$[ebp]
  00182	8b 00		 mov	 eax, DWORD PTR [eax]
  00184	89 45 e0	 mov	 DWORD PTR __First$[ebp], eax

; 1607 :         _Umove_if_noexcept1(_First, _Last, _Dest,

  00187	33 c0		 xor	 eax, eax
  00189	88 45 67	 mov	 BYTE PTR $T24[ebp], al
  0018c	8a 45 67	 mov	 al, BYTE PTR $T24[ebp]
  0018f	88 45 4c	 mov	 BYTE PTR ___formal$[ebp], al

; 1733 :         return _Mypair._Get_first();

  00192	8b 45 68	 mov	 eax, DWORD PTR _this$[ebp]
; File C:\Program Files (x86)\Microsoft Visual Studio\2019\Community\VC\Tools\MSVC\14.28.29333\include\xmemory

; 1347 :         return *this;

  00195	89 45 ec	 mov	 DWORD PTR $T9[ebp], eax
; File C:\Program Files (x86)\Microsoft Visual Studio\2019\Community\VC\Tools\MSVC\14.28.29333\include\vector

; 1733 :         return _Mypair._Get_first();

  00198	8b 45 ec	 mov	 eax, DWORD PTR $T9[ebp]
  0019b	89 45 e8	 mov	 DWORD PTR $T8[ebp], eax

; 1597 :         _Uninitialized_move(_First, _Last, _Dest, _Getal());

  0019e	ff 75 e8	 push	 DWORD PTR $T8[ebp]
  001a1	ff 75 6c	 push	 DWORD PTR __Newvec$[ebp]
  001a4	ff 75 e4	 push	 DWORD PTR __Last$[ebp]
  001a7	ff 75 e0	 push	 DWORD PTR __First$[ebp]
  001aa	e8 00 00 00 00	 call	 ??$_Uninitialized_move@PAUSAttachingModelData@CGrannyLODController@@V?$allocator@USAttachingModelData@CGrannyLODController@@@std@@@std@@YAPAUSAttachingModelData@CGrannyLODController@@QAU12@0PAU12@AAV?$allocator@USAttachingModelData@CGrannyLODController@@@0@@Z ; std::_Uninitialized_move<CGrannyLODController::SAttachingModelData *,std::allocator<CGrannyLODController::SAttachingModelData> >
  001af	83 c4 10	 add	 esp, 16			; 00000010H

; 754  :         } else { // provide basic guarantee

  001b2	eb 5f		 jmp	 SHORT $LN5@Emplace_re
$LN4@Emplace_re:

; 755  :             _Umove(_Myfirst, _Whereptr, _Newvec);

  001b4	8b 45 5c	 mov	 eax, DWORD PTR __Myfirst$[ebp]
  001b7	8b 00		 mov	 eax, DWORD PTR [eax]
  001b9	89 45 d4	 mov	 DWORD PTR __First$[ebp], eax

; 1733 :         return _Mypair._Get_first();

  001bc	8b 45 68	 mov	 eax, DWORD PTR _this$[ebp]
; File C:\Program Files (x86)\Microsoft Visual Studio\2019\Community\VC\Tools\MSVC\14.28.29333\include\xmemory

; 1347 :         return *this;

  001bf	89 45 dc	 mov	 DWORD PTR $T7[ebp], eax
; File C:\Program Files (x86)\Microsoft Visual Studio\2019\Community\VC\Tools\MSVC\14.28.29333\include\vector

; 1733 :         return _Mypair._Get_first();

  001c2	8b 45 dc	 mov	 eax, DWORD PTR $T7[ebp]
  001c5	89 45 d8	 mov	 DWORD PTR $T6[ebp], eax

; 1592 :         return _Uninitialized_move(_First, _Last, _Dest, _Getal());

  001c8	ff 75 d8	 push	 DWORD PTR $T6[ebp]
  001cb	ff 75 6c	 push	 DWORD PTR __Newvec$[ebp]
  001ce	ff 75 78	 push	 DWORD PTR __Whereptr$[ebp]
  001d1	ff 75 d4	 push	 DWORD PTR __First$[ebp]
  001d4	e8 00 00 00 00	 call	 ??$_Uninitialized_move@PAUSAttachingModelData@CGrannyLODController@@V?$allocator@USAttachingModelData@CGrannyLODController@@@std@@@std@@YAPAUSAttachingModelData@CGrannyLODController@@QAU12@0PAU12@AAV?$allocator@USAttachingModelData@CGrannyLODController@@@0@@Z ; std::_Uninitialized_move<CGrannyLODController::SAttachingModelData *,std::allocator<CGrannyLODController::SAttachingModelData> >
  001d9	83 c4 10	 add	 esp, 16			; 00000010H

; 756  :             _Constructed_first = _Newvec;

  001dc	8b 45 6c	 mov	 eax, DWORD PTR __Newvec$[ebp]
  001df	89 45 48	 mov	 DWORD PTR __Constructed_first$[ebp], eax

; 757  :             _Umove(_Whereptr, _Mylast, _Newvec + _Whereoff + 1);

  001e2	8b 45 58	 mov	 eax, DWORD PTR __Mylast$[ebp]
  001e5	8b 00		 mov	 eax, DWORD PTR [eax]
  001e7	89 45 c8	 mov	 DWORD PTR __Last$[ebp], eax

; 1733 :         return _Mypair._Get_first();

  001ea	8b 45 68	 mov	 eax, DWORD PTR _this$[ebp]
; File C:\Program Files (x86)\Microsoft Visual Studio\2019\Community\VC\Tools\MSVC\14.28.29333\include\xmemory

; 1347 :         return *this;

  001ed	89 45 d0	 mov	 DWORD PTR $T5[ebp], eax
; File C:\Program Files (x86)\Microsoft Visual Studio\2019\Community\VC\Tools\MSVC\14.28.29333\include\vector

; 1733 :         return _Mypair._Get_first();

  001f0	8b 45 d0	 mov	 eax, DWORD PTR $T5[ebp]
  001f3	89 45 cc	 mov	 DWORD PTR $T4[ebp], eax

; 1592 :         return _Uninitialized_move(_First, _Last, _Dest, _Getal());

  001f6	ff 75 cc	 push	 DWORD PTR $T4[ebp]

; 757  :             _Umove(_Whereptr, _Mylast, _Newvec + _Whereoff + 1);

  001f9	6b 45 60 1c	 imul	 eax, DWORD PTR __Whereoff$[ebp], 28
  001fd	8b 4d 6c	 mov	 ecx, DWORD PTR __Newvec$[ebp]
  00200	8d 44 01 1c	 lea	 eax, DWORD PTR [ecx+eax+28]

; 1592 :         return _Uninitialized_move(_First, _Last, _Dest, _Getal());

  00204	50		 push	 eax
  00205	ff 75 c8	 push	 DWORD PTR __Last$[ebp]
  00208	ff 75 78	 push	 DWORD PTR __Whereptr$[ebp]
  0020b	e8 00 00 00 00	 call	 ??$_Uninitialized_move@PAUSAttachingModelData@CGrannyLODController@@V?$allocator@USAttachingModelData@CGrannyLODController@@@std@@@std@@YAPAUSAttachingModelData@CGrannyLODController@@QAU12@0PAU12@AAV?$allocator@USAttachingModelData@CGrannyLODController@@@0@@Z ; std::_Uninitialized_move<CGrannyLODController::SAttachingModelData *,std::allocator<CGrannyLODController::SAttachingModelData> >
  00210	83 c4 10	 add	 esp, 16			; 00000010H
$LN5@Emplace_re:

; 757  :             _Umove(_Whereptr, _Mylast, _Newvec + _Whereoff + 1);

  00213	eb 2b		 jmp	 SHORT $LN7@Emplace_re
__catch$??$_Emplace_reallocate@ABUSAttachingModelData@CGrannyLODController@@@?$vector@USAttachingModelData@CGrannyLODController@@V?$allocator@USAttachingModelData@CGrannyLODController@@@std@@@std@@QAEPAUSAttachingModelData@CGrannyLODController@@QAU23@ABU23@@Z$0:

; 758  :         }
; 759  :         _CATCH_ALL
; 760  :         _Destroy(_Constructed_first, _Constructed_last);

  00215	ff 75 28	 push	 DWORD PTR __Constructed_last$[ebp]
  00218	ff 75 48	 push	 DWORD PTR __Constructed_first$[ebp]
  0021b	8b 4d 68	 mov	 ecx, DWORD PTR _this$[ebp]
  0021e	e8 00 00 00 00	 call	 ?_Destroy@?$vector@USAttachingModelData@CGrannyLODController@@V?$allocator@USAttachingModelData@CGrannyLODController@@@std@@@std@@AAEXPAUSAttachingModelData@CGrannyLODController@@0@Z ; std::vector<CGrannyLODController::SAttachingModelData,std::allocator<CGrannyLODController::SAttachingModelData> >::_Destroy

; 761  :         _Al.deallocate(_Newvec, _Newcapacity);

  00223	ff 75 54	 push	 DWORD PTR __Newcapacity$[ebp]
  00226	ff 75 6c	 push	 DWORD PTR __Newvec$[ebp]
  00229	8b 4d c4	 mov	 ecx, DWORD PTR __Al$[ebp]
  0022c	e8 00 00 00 00	 call	 ?deallocate@?$allocator@USAttachingModelData@CGrannyLODController@@@std@@QAEXQAUSAttachingModelData@CGrannyLODController@@I@Z ; std::allocator<CGrannyLODController::SAttachingModelData>::deallocate

; 762  :         _RERAISE;

  00231	6a 00		 push	 0
  00233	6a 00		 push	 0
  00235	e8 00 00 00 00	 call	 __CxxThrowException@8

; 763  :         _CATCH_END

  0023a	b8 00 00 00 00	 mov	 eax, $LN10@Emplace_re
  0023f	c3		 ret	 0
$LN7@Emplace_re:
  00240	83 4d fc ff	 or	 DWORD PTR __$EHRec$[ebp+12], -1
  00244	eb 04		 jmp	 SHORT __tryend$??$_Emplace_reallocate@ABUSAttachingModelData@CGrannyLODController@@@?$vector@USAttachingModelData@CGrannyLODController@@V?$allocator@USAttachingModelData@CGrannyLODController@@@std@@@std@@QAEPAUSAttachingModelData@CGrannyLODController@@QAU23@ABU23@@Z$1
$LN10@Emplace_re:
; File C:\Program Files (x86)\Microsoft Visual Studio\2019\Community\VC\Tools\MSVC\14.28.29333\include\xmemory
  00246	83 4d fc ff	 or	 DWORD PTR __$EHRec$[ebp+12], -1
__tryend$??$_Emplace_reallocate@ABUSAttachingModelData@CGrannyLODController@@@?$vector@USAttachingModelData@CGrannyLODController@@V?$allocator@USAttachingModelData@CGrannyLODController@@@std@@@std@@QAEPAUSAttachingModelData@CGrannyLODController@@QAU23@ABU23@@Z$1:
; File C:\Program Files (x86)\Microsoft Visual Studio\2019\Community\VC\Tools\MSVC\14.28.29333\include\vector

; 764  : 
; 765  :         _Change_array(_Newvec, _Newsize, _Newcapacity);

  0024a	ff 75 54	 push	 DWORD PTR __Newcapacity$[ebp]
  0024d	ff 75 24	 push	 DWORD PTR __Newsize$[ebp]
  00250	ff 75 6c	 push	 DWORD PTR __Newvec$[ebp]
  00253	8b 4d 68	 mov	 ecx, DWORD PTR _this$[ebp]
  00256	e8 00 00 00 00	 call	 ?_Change_array@?$vector@USAttachingModelData@CGrannyLODController@@V?$allocator@USAttachingModelData@CGrannyLODController@@@std@@@std@@AAEXQAUSAttachingModelData@CGrannyLODController@@II@Z ; std::vector<CGrannyLODController::SAttachingModelData,std::allocator<CGrannyLODController::SAttachingModelData> >::_Change_array

; 766  :         return _Newvec + _Whereoff;

  0025b	6b 45 60 1c	 imul	 eax, DWORD PTR __Whereoff$[ebp], 28
  0025f	03 45 6c	 add	 eax, DWORD PTR __Newvec$[ebp]
$LN70@Emplace_re:

; 767  :     }

  00262	8b 4d f4	 mov	 ecx, DWORD PTR __$EHRec$[ebp+4]
  00265	64 89 0d 00 00
	00 00		 mov	 DWORD PTR fs:0, ecx
  0026c	59		 pop	 ecx
  0026d	5f		 pop	 edi
  0026e	5e		 pop	 esi
  0026f	5b		 pop	 ebx
  00270	83 c5 70	 add	 ebp, 112		; 00000070H
  00273	c9		 leave
  00274	c2 08 00	 ret	 8
  00277	cc		 int	 3
  00278	cc		 int	 3
  00279	cc		 int	 3
  0027a	cc		 int	 3
  0027b	cc		 int	 3
_TEXT	ENDS
;	COMDAT text$x
text$x	SEGMENT
__ehhandler$??$_Emplace_reallocate@ABUSAttachingModelData@CGrannyLODController@@@?$vector@USAttachingModelData@CGrannyLODController@@V?$allocator@USAttachingModelData@CGrannyLODController@@@std@@@std@@QAEPAUSAttachingModelData@CGrannyLODController@@QAU23@ABU23@@Z:
  00000	90		 npad	 1
  00001	90		 npad	 1
  00002	8b 54 24 08	 mov	 edx, DWORD PTR [esp+8]
  00006	8d 42 0c	 lea	 eax, DWORD PTR [edx+12]
  00009	8b 4a b8	 mov	 ecx, DWORD PTR [edx-72]
  0000c	33 c8		 xor	 ecx, eax
  0000e	e8 00 00 00 00	 call	 @__security_check_cookie@4
  00013	b8 00 00 00 00	 mov	 eax, OFFSET __ehfuncinfo$??$_Emplace_reallocate@ABUSAttachingModelData@CGrannyLODController@@@?$vector@USAttachingModelData@CGrannyLODController@@V?$allocator@USAttachingModelData@CGrannyLODController@@@std@@@std@@QAEPAUSAttachingModelData@CGrannyLODController@@QAU23@ABU23@@Z
  00018	e9 00 00 00 00	 jmp	 ___CxxFrameHandler3
text$x	ENDS
??$_Emplace_reallocate@ABUSAttachingModelData@CGrannyLODController@@@?$vector@USAttachingModelData@CGrannyLODController@@V?$allocator@USAttachingModelData@CGrannyLODController@@@std@@@std@@QAEPAUSAttachingModelData@CGrannyLODController@@QAU23@ABU23@@Z ENDP ; std::vector<CGrannyLODController::SAttachingModelData,std::allocator<CGrannyLODController::SAttachingModelData> >::_Emplace_reallocate<CGrannyLODController::SAttachingModelData const &>
; Function compile flags: /Odspy
; File C:\Program Files (x86)\Microsoft Visual Studio\2019\Community\VC\Tools\MSVC\14.28.29333\include\vector
; File C:\Program Files (x86)\Microsoft Visual Studio\2019\Community\VC\Tools\MSVC\14.28.29333\include\type_traits
; File C:\Program Files (x86)\Microsoft Visual Studio\2019\Community\VC\Tools\MSVC\14.28.29333\include\vector
; File C:\Program Files (x86)\Microsoft Visual Studio\2019\Community\VC\Tools\MSVC\14.28.29333\include\xstddef
; File C:\Program Files (x86)\Microsoft Visual Studio\2019\Community\VC\Tools\MSVC\14.28.29333\include\vector
; File C:\Program Files (x86)\Microsoft Visual Studio\2019\Community\VC\Tools\MSVC\14.28.29333\include\xmemory
; File C:\Program Files (x86)\Microsoft Visual Studio\2019\Community\VC\Tools\MSVC\14.28.29333\include\vector
; File C:\Program Files (x86)\Microsoft Visual Studio\2019\Community\VC\Tools\MSVC\14.28.29333\include\vcruntime_new.h
; File C:\Program Files (x86)\Microsoft Visual Studio\2019\Community\VC\Tools\MSVC\14.28.29333\include\type_traits
; File C:\Program Files (x86)\Microsoft Visual Studio\2019\Community\VC\Tools\MSVC\14.28.29333\include\vector
;	COMDAT ??$_Emplace_back_with_unused_capacity@ABUSAttachingModelData@CGrannyLODController@@@?$vector@USAttachingModelData@CGrannyLODController@@V?$allocator@USAttachingModelData@CGrannyLODController@@@std@@@std@@AAEXABUSAttachingModelData@CGrannyLODController@@@Z
_TEXT	SEGMENT
__Result$ = -44						; size = 4
$T1 = -40						; size = 4
$T2 = -36						; size = 4
$T3 = -32						; size = 4
$T4 = -28						; size = 4
__Ptr$ = -24						; size = 4
__My_data$ = -20					; size = 4
$T5 = -16						; size = 4
$T6 = -12						; size = 4
_this$ = -8						; size = 4
__Mylast$ = -4						; size = 4
_<_Val_0>$ = 8						; size = 4
??$_Emplace_back_with_unused_capacity@ABUSAttachingModelData@CGrannyLODController@@@?$vector@USAttachingModelData@CGrannyLODController@@V?$allocator@USAttachingModelData@CGrannyLODController@@@std@@@std@@AAEXABUSAttachingModelData@CGrannyLODController@@@Z PROC ; std::vector<CGrannyLODController::SAttachingModelData,std::allocator<CGrannyLODController::SAttachingModelData> >::_Emplace_back_with_unused_capacity<CGrannyLODController::SAttachingModelData const &>, COMDAT
; _this$ = ecx

; 682  :     decltype(auto) _Emplace_back_with_unused_capacity(_Valty&&... _Val) {

  00000	55		 push	 ebp
  00001	8b ec		 mov	 ebp, esp
  00003	83 ec 2c	 sub	 esp, 44			; 0000002cH
  00006	89 4d f8	 mov	 DWORD PTR _this$[ebp], ecx

; 683  :         // insert by perfectly forwarding into element at end, provide strong guarantee
; 684  :         auto& _My_data   = _Mypair._Myval2;

  00009	8b 45 f8	 mov	 eax, DWORD PTR _this$[ebp]
  0000c	89 45 ec	 mov	 DWORD PTR __My_data$[ebp], eax

; 685  :         pointer& _Mylast = _My_data._Mylast;

  0000f	8b 45 ec	 mov	 eax, DWORD PTR __My_data$[ebp]
  00012	83 c0 04	 add	 eax, 4
  00015	89 45 fc	 mov	 DWORD PTR __Mylast$[ebp], eax
; File C:\Program Files (x86)\Microsoft Visual Studio\2019\Community\VC\Tools\MSVC\14.28.29333\include\type_traits

; 1443 :     return static_cast<_Ty&&>(_Arg);

  00018	8b 45 08	 mov	 eax, DWORD PTR _<_Val_0>$[ebp]
  0001b	89 45 dc	 mov	 DWORD PTR $T2[ebp], eax
; File C:\Program Files (x86)\Microsoft Visual Studio\2019\Community\VC\Tools\MSVC\14.28.29333\include\vector

; 687  :         _Alty_traits::construct(_Getal(), _Unfancy(_Mylast), _STD forward<_Valty>(_Val)...);

  0001e	8b 45 fc	 mov	 eax, DWORD PTR __Mylast$[ebp]
  00021	8b 00		 mov	 eax, DWORD PTR [eax]
  00023	89 45 e8	 mov	 DWORD PTR __Ptr$[ebp], eax
; File C:\Program Files (x86)\Microsoft Visual Studio\2019\Community\VC\Tools\MSVC\14.28.29333\include\xstddef

; 289  :     return _Ptr;

  00026	8b 45 e8	 mov	 eax, DWORD PTR __Ptr$[ebp]
  00029	89 45 e0	 mov	 DWORD PTR $T3[ebp], eax
; File C:\Program Files (x86)\Microsoft Visual Studio\2019\Community\VC\Tools\MSVC\14.28.29333\include\vector

; 1733 :         return _Mypair._Get_first();

  0002c	8b 45 f8	 mov	 eax, DWORD PTR _this$[ebp]
; File C:\Program Files (x86)\Microsoft Visual Studio\2019\Community\VC\Tools\MSVC\14.28.29333\include\xmemory

; 1347 :         return *this;

  0002f	89 45 e4	 mov	 DWORD PTR $T4[ebp], eax
; File C:\Program Files (x86)\Microsoft Visual Studio\2019\Community\VC\Tools\MSVC\14.28.29333\include\vector

; 1733 :         return _Mypair._Get_first();

  00032	8b 45 e4	 mov	 eax, DWORD PTR $T4[ebp]
  00035	89 45 d8	 mov	 DWORD PTR $T1[ebp], eax
; File C:\Program Files (x86)\Microsoft Visual Studio\2019\Community\VC\Tools\MSVC\14.28.29333\include\vcruntime_new.h

; 169  :         return _Where;

  00038	8b 45 e0	 mov	 eax, DWORD PTR $T3[ebp]
  0003b	89 45 f0	 mov	 DWORD PTR $T5[ebp], eax
; File C:\Program Files (x86)\Microsoft Visual Studio\2019\Community\VC\Tools\MSVC\14.28.29333\include\type_traits

; 1443 :     return static_cast<_Ty&&>(_Arg);

  0003e	8b 45 dc	 mov	 eax, DWORD PTR $T2[ebp]
  00041	89 45 f4	 mov	 DWORD PTR $T6[ebp], eax
  00044	8b 45 f0	 mov	 eax, DWORD PTR $T5[ebp]
  00047	8b 4d f4	 mov	 ecx, DWORD PTR $T6[ebp]
  0004a	8b 09		 mov	 ecx, DWORD PTR [ecx]
  0004c	89 08		 mov	 DWORD PTR [eax], ecx
  0004e	8b 45 f4	 mov	 eax, DWORD PTR $T6[ebp]
  00051	83 c0 04	 add	 eax, 4
  00054	50		 push	 eax
  00055	8b 4d f0	 mov	 ecx, DWORD PTR $T5[ebp]
  00058	83 c1 04	 add	 ecx, 4
  0005b	e8 00 00 00 00	 call	 ??0?$basic_string@DU?$char_traits@D@std@@V?$allocator@D@2@@std@@QAE@ABV01@@Z ; std::basic_string<char,std::char_traits<char>,std::allocator<char> >::basic_string<char,std::char_traits<char>,std::allocator<char> >
; File C:\Program Files (x86)\Microsoft Visual Studio\2019\Community\VC\Tools\MSVC\14.28.29333\include\vector

; 689  :         _Ty& _Result = *_Mylast;

  00060	8b 45 fc	 mov	 eax, DWORD PTR __Mylast$[ebp]
  00063	8b 00		 mov	 eax, DWORD PTR [eax]
  00065	89 45 d4	 mov	 DWORD PTR __Result$[ebp], eax

; 690  :         ++_Mylast;

  00068	8b 45 fc	 mov	 eax, DWORD PTR __Mylast$[ebp]
  0006b	8b 00		 mov	 eax, DWORD PTR [eax]
  0006d	83 c0 1c	 add	 eax, 28			; 0000001cH
  00070	8b 4d fc	 mov	 ecx, DWORD PTR __Mylast$[ebp]
  00073	89 01		 mov	 DWORD PTR [ecx], eax

; 691  : #if _HAS_CXX17
; 692  :         return _Result;
; 693  : #else // ^^^ _HAS_CXX17 ^^^ // vvv !_HAS_CXX17 vvv
; 694  :         (void) _Result;
; 695  : #endif // _HAS_CXX17
; 696  :     }

  00075	c9		 leave
  00076	c2 04 00	 ret	 4
??$_Emplace_back_with_unused_capacity@ABUSAttachingModelData@CGrannyLODController@@@?$vector@USAttachingModelData@CGrannyLODController@@V?$allocator@USAttachingModelData@CGrannyLODController@@@std@@@std@@AAEXABUSAttachingModelData@CGrannyLODController@@@Z ENDP ; std::vector<CGrannyLODController::SAttachingModelData,std::allocator<CGrannyLODController::SAttachingModelData> >::_Emplace_back_with_unused_capacity<CGrannyLODController::SAttachingModelData const &>
_TEXT	ENDS
; Function compile flags: /Odspy
; File C:\Program Files (x86)\Microsoft Visual Studio\2019\Community\VC\Tools\MSVC\14.28.29333\include\vector
; File C:\Program Files (x86)\Microsoft Visual Studio\2019\Community\VC\Tools\MSVC\14.28.29333\include\type_traits
; File C:\Program Files (x86)\Microsoft Visual Studio\2019\Community\VC\Tools\MSVC\14.28.29333\include\vector
; File C:\Program Files (x86)\Microsoft Visual Studio\2019\Community\VC\Tools\MSVC\14.28.29333\include\type_traits
; File C:\Program Files (x86)\Microsoft Visual Studio\2019\Community\VC\Tools\MSVC\14.28.29333\include\vector
;	COMDAT ??$emplace_back@ABUSAttachingModelData@CGrannyLODController@@@?$vector@USAttachingModelData@CGrannyLODController@@V?$allocator@USAttachingModelData@CGrannyLODController@@@std@@@std@@QAEXABUSAttachingModelData@CGrannyLODController@@@Z
_TEXT	SEGMENT
__Result$ = -24						; size = 4
$T1 = -20						; size = 4
$T2 = -16						; size = 4
__Mylast$ = -12						; size = 4
__My_data$ = -8						; size = 4
_this$ = -4						; size = 4
_<_Val_0>$ = 8						; size = 4
??$emplace_back@ABUSAttachingModelData@CGrannyLODController@@@?$vector@USAttachingModelData@CGrannyLODController@@V?$allocator@USAttachingModelData@CGrannyLODController@@@std@@@std@@QAEXABUSAttachingModelData@CGrannyLODController@@@Z PROC ; std::vector<CGrannyLODController::SAttachingModelData,std::allocator<CGrannyLODController::SAttachingModelData> >::emplace_back<CGrannyLODController::SAttachingModelData const &>, COMDAT
; _this$ = ecx

; 700  :     decltype(auto) emplace_back(_Valty&&... _Val) {

  00000	55		 push	 ebp
  00001	8b ec		 mov	 ebp, esp
  00003	83 ec 18	 sub	 esp, 24			; 00000018H
  00006	89 4d fc	 mov	 DWORD PTR _this$[ebp], ecx

; 701  :         // insert by perfectly forwarding into element at end, provide strong guarantee
; 702  :         auto& _My_data   = _Mypair._Myval2;

  00009	8b 45 fc	 mov	 eax, DWORD PTR _this$[ebp]
  0000c	89 45 f8	 mov	 DWORD PTR __My_data$[ebp], eax

; 703  :         pointer& _Mylast = _My_data._Mylast;

  0000f	8b 45 f8	 mov	 eax, DWORD PTR __My_data$[ebp]
  00012	83 c0 04	 add	 eax, 4
  00015	89 45 f4	 mov	 DWORD PTR __Mylast$[ebp], eax

; 704  :         if (_Mylast != _My_data._Myend) {

  00018	8b 45 f4	 mov	 eax, DWORD PTR __Mylast$[ebp]
  0001b	8b 4d f8	 mov	 ecx, DWORD PTR __My_data$[ebp]
  0001e	8b 00		 mov	 eax, DWORD PTR [eax]
  00020	3b 41 08	 cmp	 eax, DWORD PTR [ecx+8]
  00023	74 13		 je	 SHORT $LN2@emplace_ba
; File C:\Program Files (x86)\Microsoft Visual Studio\2019\Community\VC\Tools\MSVC\14.28.29333\include\type_traits

; 1443 :     return static_cast<_Ty&&>(_Arg);

  00025	8b 45 08	 mov	 eax, DWORD PTR _<_Val_0>$[ebp]
  00028	89 45 f0	 mov	 DWORD PTR $T2[ebp], eax
; File C:\Program Files (x86)\Microsoft Visual Studio\2019\Community\VC\Tools\MSVC\14.28.29333\include\vector

; 705  :             return _Emplace_back_with_unused_capacity(_STD forward<_Valty>(_Val)...);

  0002b	ff 75 f0	 push	 DWORD PTR $T2[ebp]
  0002e	8b 4d fc	 mov	 ecx, DWORD PTR _this$[ebp]
  00031	e8 00 00 00 00	 call	 ??$_Emplace_back_with_unused_capacity@ABUSAttachingModelData@CGrannyLODController@@@?$vector@USAttachingModelData@CGrannyLODController@@V?$allocator@USAttachingModelData@CGrannyLODController@@@std@@@std@@AAEXABUSAttachingModelData@CGrannyLODController@@@Z ; std::vector<CGrannyLODController::SAttachingModelData,std::allocator<CGrannyLODController::SAttachingModelData> >::_Emplace_back_with_unused_capacity<CGrannyLODController::SAttachingModelData const &>
  00036	eb 19		 jmp	 SHORT $LN1@emplace_ba
$LN2@emplace_ba:
; File C:\Program Files (x86)\Microsoft Visual Studio\2019\Community\VC\Tools\MSVC\14.28.29333\include\type_traits

; 1443 :     return static_cast<_Ty&&>(_Arg);

  00038	8b 45 08	 mov	 eax, DWORD PTR _<_Val_0>$[ebp]
  0003b	89 45 ec	 mov	 DWORD PTR $T1[ebp], eax
; File C:\Program Files (x86)\Microsoft Visual Studio\2019\Community\VC\Tools\MSVC\14.28.29333\include\vector

; 708  :         _Ty& _Result = *_Emplace_reallocate(_Mylast, _STD forward<_Valty>(_Val)...);

  0003e	ff 75 ec	 push	 DWORD PTR $T1[ebp]
  00041	8b 45 f4	 mov	 eax, DWORD PTR __Mylast$[ebp]
  00044	ff 30		 push	 DWORD PTR [eax]
  00046	8b 4d fc	 mov	 ecx, DWORD PTR _this$[ebp]
  00049	e8 00 00 00 00	 call	 ??$_Emplace_reallocate@ABUSAttachingModelData@CGrannyLODController@@@?$vector@USAttachingModelData@CGrannyLODController@@V?$allocator@USAttachingModelData@CGrannyLODController@@@std@@@std@@QAEPAUSAttachingModelData@CGrannyLODController@@QAU23@ABU23@@Z ; std::vector<CGrannyLODController::SAttachingModelData,std::allocator<CGrannyLODController::SAttachingModelData> >::_Emplace_reallocate<CGrannyLODController::SAttachingModelData const &>
  0004e	89 45 e8	 mov	 DWORD PTR __Result$[ebp], eax
$LN1@emplace_ba:

; 709  : #if _HAS_CXX17
; 710  :         return _Result;
; 711  : #else // ^^^ _HAS_CXX17 ^^^ // vvv !_HAS_CXX17 vvv
; 712  :         (void) _Result;
; 713  : #endif // _HAS_CXX17
; 714  :     }

  00051	c9		 leave
  00052	c2 04 00	 ret	 4
??$emplace_back@ABUSAttachingModelData@CGrannyLODController@@@?$vector@USAttachingModelData@CGrannyLODController@@V?$allocator@USAttachingModelData@CGrannyLODController@@@std@@@std@@QAEXABUSAttachingModelData@CGrannyLODController@@@Z ENDP ; std::vector<CGrannyLODController::SAttachingModelData,std::allocator<CGrannyLODController::SAttachingModelData> >::emplace_back<CGrannyLODController::SAttachingModelData const &>
_TEXT	ENDS
; Function compile flags: /Odspy
; File C:\Program Files (x86)\Microsoft Visual Studio\2019\Community\VC\Tools\MSVC\14.28.29333\include\xmemory
; File C:\Program Files (x86)\Microsoft Visual Studio\2019\Community\VC\Tools\MSVC\14.28.29333\include\xstddef
; File C:\Program Files (x86)\Microsoft Visual Studio\2019\Community\VC\Tools\MSVC\14.28.29333\include\xmemory
;	COMDAT ??$_Alloc_proxy@V?$allocator@U_Container_proxy@std@@@std@@@_Container_base12@std@@QAEX$$QAV?$allocator@U_Container_proxy@std@@@1@@Z
_TEXT	SEGMENT
__Max_possible$1 = -28					; size = 4
$T2 = -24						; size = 4
$T3 = -20						; size = 4
$T4 = -16						; size = 4
_this$ = -12						; size = 4
__New_proxy$ = -8					; size = 4
__Overflow_is_possible$5 = -1				; size = 1
__Al$ = 8						; size = 4
??$_Alloc_proxy@V?$allocator@U_Container_proxy@std@@@std@@@_Container_base12@std@@QAEX$$QAV?$allocator@U_Container_proxy@std@@@1@@Z PROC ; std::_Container_base12::_Alloc_proxy<std::allocator<std::_Container_proxy> >, COMDAT
; _this$ = ecx

; 1106 :     void _Alloc_proxy(_Alloc&& _Al) {

  00000	55		 push	 ebp
  00001	8b ec		 mov	 ebp, esp
  00003	83 ec 1c	 sub	 esp, 28			; 0000001cH
  00006	89 4d f4	 mov	 DWORD PTR _this$[ebp], ecx

; 56   :     constexpr bool _Overflow_is_possible = _Ty_size > 1;

  00009	c6 45 ff 01	 mov	 BYTE PTR __Overflow_is_possible$5[ebp], 1

; 57   : 
; 58   :     if _CONSTEXPR_IF (_Overflow_is_possible) {
; 59   :         constexpr size_t _Max_possible = static_cast<size_t>(-1) / _Ty_size;

  0000d	c7 45 e4 ff ff
	ff 1f		 mov	 DWORD PTR __Max_possible$1[ebp], 536870911 ; 1fffffffH

; 60   :         if (_Count > _Max_possible) {

  00014	33 c0		 xor	 eax, eax
  00016	40		 inc	 eax
  00017	3d ff ff ff 1f	 cmp	 eax, 536870911		; 1fffffffH
  0001c	76 05		 jbe	 SHORT $LN6@Alloc_prox

; 61   :             _Throw_bad_array_new_length(); // multiply overflow

  0001e	e8 00 00 00 00	 call	 ?_Throw_bad_array_new_length@std@@YAXXZ ; std::_Throw_bad_array_new_length
$LN6@Alloc_prox:

; 62   :         }
; 63   :     }
; 64   : 
; 65   :     return _Count * _Ty_size;

  00023	33 c0		 xor	 eax, eax
  00025	40		 inc	 eax
  00026	c1 e0 03	 shl	 eax, 3
  00029	89 45 f0	 mov	 DWORD PTR $T4[ebp], eax

; 814  :         return static_cast<_Ty*>(_Allocate<_New_alignof<_Ty>>(_Get_size_of_n<sizeof(_Ty)>(_Count)));

  0002c	ff 75 f0	 push	 DWORD PTR $T4[ebp]
  0002f	e8 00 00 00 00	 call	 ??$_Allocate@$07U_Default_allocate_traits@std@@$0A@@std@@YAPAXI@Z ; std::_Allocate<8,std::_Default_allocate_traits,0>
  00034	59		 pop	 ecx
  00035	89 45 ec	 mov	 DWORD PTR $T3[ebp], eax
; File C:\Program Files (x86)\Microsoft Visual Studio\2019\Community\VC\Tools\MSVC\14.28.29333\include\xstddef

; 289  :     return _Ptr;

  00038	8b 45 ec	 mov	 eax, DWORD PTR $T3[ebp]
  0003b	89 45 f8	 mov	 DWORD PTR __New_proxy$[ebp], eax
; File C:\Program Files (x86)\Microsoft Visual Studio\2019\Community\VC\Tools\MSVC\14.28.29333\include\xmemory

; 1108 :         _Construct_in_place(*_New_proxy, this);

  0003e	8b 45 f4	 mov	 eax, DWORD PTR _this$[ebp]
  00041	89 45 e8	 mov	 DWORD PTR $T2[ebp], eax
  00044	8d 45 e8	 lea	 eax, DWORD PTR $T2[ebp]
  00047	50		 push	 eax
  00048	ff 75 f8	 push	 DWORD PTR __New_proxy$[ebp]
  0004b	e8 00 00 00 00	 call	 ??$_Construct_in_place@U_Container_proxy@std@@PAU_Container_base12@2@@std@@YAXAAU_Container_proxy@0@$$QAPAU_Container_base12@0@@Z ; std::_Construct_in_place<std::_Container_proxy,std::_Container_base12 *>
  00050	59		 pop	 ecx
  00051	59		 pop	 ecx

; 1109 :         _Myproxy            = _New_proxy;

  00052	8b 45 f4	 mov	 eax, DWORD PTR _this$[ebp]
  00055	8b 4d f8	 mov	 ecx, DWORD PTR __New_proxy$[ebp]
  00058	89 08		 mov	 DWORD PTR [eax], ecx

; 1110 :         _New_proxy->_Mycont = this;

  0005a	8b 45 f8	 mov	 eax, DWORD PTR __New_proxy$[ebp]
  0005d	8b 4d f4	 mov	 ecx, DWORD PTR _this$[ebp]
  00060	89 08		 mov	 DWORD PTR [eax], ecx
$LN9@Alloc_prox:

; 1111 :     }

  00062	c9		 leave
  00063	c2 04 00	 ret	 4
??$_Alloc_proxy@V?$allocator@U_Container_proxy@std@@@std@@@_Container_base12@std@@QAEX$$QAV?$allocator@U_Container_proxy@std@@@1@@Z ENDP ; std::_Container_base12::_Alloc_proxy<std::allocator<std::_Container_proxy> >
_TEXT	ENDS
; Function compile flags: /Odspy
; File C:\Program Files (x86)\Microsoft Visual Studio\2019\Community\VC\Tools\MSVC\14.28.29333\include\xmemory
;	COMDAT ??$_Delete_plain_internal@V?$allocator@U_Container_proxy@std@@@std@@@std@@YAXAAV?$allocator@U_Container_proxy@std@@@0@QAU_Container_proxy@0@@Z
_TEXT	SEGMENT
__Al$ = 8						; size = 4
__Ptr$ = 12						; size = 4
??$_Delete_plain_internal@V?$allocator@U_Container_proxy@std@@@std@@@std@@YAXAAV?$allocator@U_Container_proxy@std@@@0@QAU_Container_proxy@0@@Z PROC ; std::_Delete_plain_internal<std::allocator<std::_Container_proxy> >, COMDAT

; 1031 : void _Delete_plain_internal(_Alloc& _Al, typename _Alloc::value_type* const _Ptr) noexcept {

  00000	55		 push	 ebp
  00001	8b ec		 mov	 ebp, esp

; 1032 :     // destroy *_Ptr in place, then deallocate _Ptr using _Al; used for internal container types the user didn't name
; 1033 :     using _Ty = typename _Alloc::value_type;
; 1034 :     _Ptr->~_Ty();
; 1035 :     _Deallocate_plain(_Al, _Ptr);

  00003	ff 75 0c	 push	 DWORD PTR __Ptr$[ebp]
  00006	ff 75 08	 push	 DWORD PTR __Al$[ebp]
  00009	e8 00 00 00 00	 call	 ??$_Deallocate_plain@V?$allocator@U_Container_proxy@std@@@std@@@std@@YAXAAV?$allocator@U_Container_proxy@std@@@0@QAU_Container_proxy@0@@Z ; std::_Deallocate_plain<std::allocator<std::_Container_proxy> >
  0000e	59		 pop	 ecx
  0000f	59		 pop	 ecx

; 1036 : }

  00010	5d		 pop	 ebp
  00011	c3		 ret	 0
??$_Delete_plain_internal@V?$allocator@U_Container_proxy@std@@@std@@@std@@YAXAAV?$allocator@U_Container_proxy@std@@@0@QAU_Container_proxy@0@@Z ENDP ; std::_Delete_plain_internal<std::allocator<std::_Container_proxy> >
_TEXT	ENDS
; Function compile flags: /Odspy
; File C:\Program Files (x86)\Microsoft Visual Studio\2019\Community\VC\Tools\MSVC\14.28.29333\include\deque
;	COMDAT ??D?$_Deque_unchecked_const_iterator@V?$_Deque_val@U?$_Deque_simple_types@PAVCGrannyModelInstance@@@std@@@std@@@std@@QBEABQAVCGrannyModelInstance@@XZ
_TEXT	SEGMENT
__Off$ = -20						; size = 4
__Block$ = -16						; size = 4
_this$ = -12						; size = 4
__Off$ = -8						; size = 4
_this$ = -4						; size = 4
??D?$_Deque_unchecked_const_iterator@V?$_Deque_val@U?$_Deque_simple_types@PAVCGrannyModelInstance@@@std@@@std@@@std@@QBEABQAVCGrannyModelInstance@@XZ PROC ; std::_Deque_unchecked_const_iterator<std::_Deque_val<std::_Deque_simple_types<CGrannyModelInstance *> > >::operator*, COMDAT
; _this$ = ecx

; 54   :     _NODISCARD reference operator*() const noexcept {

  00000	55		 push	 ebp
  00001	8b ec		 mov	 ebp, esp
  00003	83 ec 14	 sub	 esp, 20			; 00000014H
  00006	89 4d fc	 mov	 DWORD PTR _this$[ebp], ecx

; 55   :         _Size_type _Block = _Mycont->_Getblock(_Myoff);

  00009	8b 45 fc	 mov	 eax, DWORD PTR _this$[ebp]
  0000c	8b 40 04	 mov	 eax, DWORD PTR [eax+4]
  0000f	89 45 f8	 mov	 DWORD PTR __Off$[ebp], eax
  00012	8b 45 fc	 mov	 eax, DWORD PTR _this$[ebp]
  00015	8b 00		 mov	 eax, DWORD PTR [eax]
  00017	89 45 f4	 mov	 DWORD PTR _this$[ebp], eax

; 548  :         return (_Off / _DEQUESIZ) & (_Mapsize - 1);

  0001a	8b 45 f8	 mov	 eax, DWORD PTR __Off$[ebp]
  0001d	c1 e8 02	 shr	 eax, 2
  00020	8b 4d f4	 mov	 ecx, DWORD PTR _this$[ebp]
  00023	8b 49 08	 mov	 ecx, DWORD PTR [ecx+8]
  00026	49		 dec	 ecx
  00027	23 c1		 and	 eax, ecx
  00029	89 45 f0	 mov	 DWORD PTR __Block$[ebp], eax

; 56   :         _Size_type _Off   = _Myoff % _DEQUESIZ;

  0002c	8b 45 fc	 mov	 eax, DWORD PTR _this$[ebp]
  0002f	8b 40 04	 mov	 eax, DWORD PTR [eax+4]
  00032	33 d2		 xor	 edx, edx
  00034	6a 04		 push	 4
  00036	59		 pop	 ecx
  00037	f7 f1		 div	 ecx
  00039	89 55 ec	 mov	 DWORD PTR __Off$[ebp], edx

; 57   :         return _Mycont->_Map[_Block][_Off];

  0003c	8b 45 fc	 mov	 eax, DWORD PTR _this$[ebp]
  0003f	8b 00		 mov	 eax, DWORD PTR [eax]
  00041	8b 40 04	 mov	 eax, DWORD PTR [eax+4]
  00044	8b 4d f0	 mov	 ecx, DWORD PTR __Block$[ebp]
  00047	8b 04 88	 mov	 eax, DWORD PTR [eax+ecx*4]
  0004a	8b 4d ec	 mov	 ecx, DWORD PTR __Off$[ebp]
  0004d	8d 04 88	 lea	 eax, DWORD PTR [eax+ecx*4]

; 58   :     }

  00050	c9		 leave
  00051	c3		 ret	 0
??D?$_Deque_unchecked_const_iterator@V?$_Deque_val@U?$_Deque_simple_types@PAVCGrannyModelInstance@@@std@@@std@@@std@@QBEABQAVCGrannyModelInstance@@XZ ENDP ; std::_Deque_unchecked_const_iterator<std::_Deque_val<std::_Deque_simple_types<CGrannyModelInstance *> > >::operator*
_TEXT	ENDS
; Function compile flags: /Odspy
; File C:\Program Files (x86)\Microsoft Visual Studio\2019\Community\VC\Tools\MSVC\14.28.29333\include\vector
; File C:\Program Files (x86)\Microsoft Visual Studio\2019\Community\VC\Tools\MSVC\14.28.29333\include\xmemory
; File C:\Program Files (x86)\Microsoft Visual Studio\2019\Community\VC\Tools\MSVC\14.28.29333\include\vector
; File C:\Program Files (x86)\Microsoft Visual Studio\2019\Community\VC\Tools\MSVC\14.28.29333\include\xmemory
; File C:\Program Files (x86)\Microsoft Visual Studio\2019\Community\VC\Tools\MSVC\14.28.29333\include\vector
; File C:\Program Files (x86)\Microsoft Visual Studio\2019\Community\VC\Tools\MSVC\14.28.29333\include\xmemory
; File C:\Program Files (x86)\Microsoft Visual Studio\2019\Community\VC\Tools\MSVC\14.28.29333\include\limits
; File C:\Program Files (x86)\Microsoft Visual Studio\2019\Community\VC\Tools\MSVC\14.28.29333\include\vector
; File C:\Program Files (x86)\Microsoft Visual Studio\2019\Community\VC\Tools\MSVC\14.28.29333\include\utility
; File C:\Program Files (x86)\Microsoft Visual Studio\2019\Community\VC\Tools\MSVC\14.28.29333\include\vector
; File C:\Program Files (x86)\Microsoft Visual Studio\2019\Community\VC\Tools\MSVC\14.28.29333\include\xmemory
; File C:\Program Files (x86)\Microsoft Visual Studio\2019\Community\VC\Tools\MSVC\14.28.29333\include\vector
; File C:\Program Files (x86)\Microsoft Visual Studio\2019\Community\VC\Tools\MSVC\14.28.29333\include\type_traits
; File C:\Program Files (x86)\Microsoft Visual Studio\2019\Community\VC\Tools\MSVC\14.28.29333\include\vector
; File C:\Program Files (x86)\Microsoft Visual Studio\2019\Community\VC\Tools\MSVC\14.28.29333\include\xstddef
; File C:\Program Files (x86)\Microsoft Visual Studio\2019\Community\VC\Tools\MSVC\14.28.29333\include\vcruntime_new.h
; File C:\Program Files (x86)\Microsoft Visual Studio\2019\Community\VC\Tools\MSVC\14.28.29333\include\type_traits
; File C:\Program Files (x86)\Microsoft Visual Studio\2019\Community\VC\Tools\MSVC\14.28.29333\include\xmemory
; File C:\Program Files (x86)\Microsoft Visual Studio\2019\Community\VC\Tools\MSVC\14.28.29333\include\vector
; File C:\Program Files (x86)\Microsoft Visual Studio\2019\Community\VC\Tools\MSVC\14.28.29333\include\xmemory
; File C:\Program Files (x86)\Microsoft Visual Studio\2019\Community\VC\Tools\MSVC\14.28.29333\include\vector
; File C:\Program Files (x86)\Microsoft Visual Studio\2019\Community\VC\Tools\MSVC\14.28.29333\include\xmemory
; File C:\Program Files (x86)\Microsoft Visual Studio\2019\Community\VC\Tools\MSVC\14.28.29333\include\vector
; File C:\Program Files (x86)\Microsoft Visual Studio\2019\Community\VC\Tools\MSVC\14.28.29333\include\xmemory
; File C:\Program Files (x86)\Microsoft Visual Studio\2019\Community\VC\Tools\MSVC\14.28.29333\include\vector
;	COMDAT ??$_Emplace_reallocate@ABQAVCGraphicVertexBuffer@@@?$vector@PAVCGraphicVertexBuffer@@V?$allocator@PAVCGraphicVertexBuffer@@@std@@@std@@QAEPAPAVCGraphicVertexBuffer@@QAPAV2@ABQAV2@@Z
_TEXT	SEGMENT
__Max_possible$2 = -68					; size = 4
$T3 = -64						; size = 4
__Al$ = -60						; size = 4
__Last$ = -56						; size = 4
$T4 = -52						; size = 4
$T5 = -48						; size = 4
__First$ = -44						; size = 4
$T6 = -40						; size = 4
$T7 = -36						; size = 4
__First$ = -32						; size = 4
__Last$ = -28						; size = 4
$T8 = -24						; size = 4
$T9 = -20						; size = 4
__$EHRec$ = -16						; size = 16
$T10 = 0						; size = 4
$T11 = 4						; size = 4
$T12 = 8						; size = 4
$T13 = 12						; size = 4
$T14 = 16						; size = 4
$T15 = 20						; size = 4
$T16 = 24						; size = 4
$T17 = 28						; size = 4
$T18 = 32						; size = 4
$T19 = 36						; size = 4
$T20 = 40						; size = 4
__Newsize$ = 44						; size = 4
__Constructed_last$ = 48				; size = 4
__Oldsize$ = 52						; size = 4
tv172 = 56						; size = 4
$T21 = 60						; size = 4
$T22 = 64						; size = 4
__My_data$ = 68						; size = 4
__Constructed_first$ = 72				; size = 4
___formal$ = 76						; size = 1
__Overflow_is_possible$23 = 83				; size = 1
__Newcapacity$ = 84					; size = 4
__Mylast$ = 88						; size = 4
__Myfirst$ = 92						; size = 4
__Whereoff$ = 96					; size = 4
$T24 = 103						; size = 1
_this$ = 104						; size = 4
__Newvec$ = 108						; size = 4
__Whereptr$ = 120					; size = 4
_<_Val_0>$ = 124					; size = 4
??$_Emplace_reallocate@ABQAVCGraphicVertexBuffer@@@?$vector@PAVCGraphicVertexBuffer@@V?$allocator@PAVCGraphicVertexBuffer@@@std@@@std@@QAEPAPAVCGraphicVertexBuffer@@QAPAV2@ABQAV2@@Z PROC ; std::vector<CGraphicVertexBuffer *,std::allocator<CGraphicVertexBuffer *> >::_Emplace_reallocate<CGraphicVertexBuffer * const &>, COMDAT
; _this$ = ecx

; 725  :     pointer _Emplace_reallocate(const pointer _Whereptr, _Valty&&... _Val) {

  00000	55		 push	 ebp
  00001	8d 6c 24 90	 lea	 ebp, DWORD PTR [esp-112]
  00005	83 ec 70	 sub	 esp, 112		; 00000070H
  00008	6a ff		 push	 -1
  0000a	68 00 00 00 00	 push	 __ehhandler$??$_Emplace_reallocate@ABQAVCGraphicVertexBuffer@@@?$vector@PAVCGraphicVertexBuffer@@V?$allocator@PAVCGraphicVertexBuffer@@@std@@@std@@QAEPAPAVCGraphicVertexBuffer@@QAPAV2@ABQAV2@@Z
  0000f	64 a1 00 00 00
	00		 mov	 eax, DWORD PTR fs:0
  00015	50		 push	 eax
  00016	51		 push	 ecx
  00017	83 ec 34	 sub	 esp, 52			; 00000034H
  0001a	53		 push	 ebx
  0001b	56		 push	 esi
  0001c	57		 push	 edi
  0001d	a1 00 00 00 00	 mov	 eax, DWORD PTR ___security_cookie
  00022	33 c5		 xor	 eax, ebp
  00024	50		 push	 eax
  00025	8d 45 f4	 lea	 eax, DWORD PTR __$EHRec$[ebp+4]
  00028	64 a3 00 00 00
	00		 mov	 DWORD PTR fs:0, eax
  0002e	89 65 f0	 mov	 DWORD PTR __$EHRec$[ebp], esp
  00031	89 4d 68	 mov	 DWORD PTR _this$[ebp], ecx

; 1733 :         return _Mypair._Get_first();

  00034	8b 45 68	 mov	 eax, DWORD PTR _this$[ebp]
; File C:\Program Files (x86)\Microsoft Visual Studio\2019\Community\VC\Tools\MSVC\14.28.29333\include\xmemory

; 1347 :         return *this;

  00037	89 45 28	 mov	 DWORD PTR $T20[ebp], eax
; File C:\Program Files (x86)\Microsoft Visual Studio\2019\Community\VC\Tools\MSVC\14.28.29333\include\vector

; 1733 :         return _Mypair._Get_first();

  0003a	8b 45 28	 mov	 eax, DWORD PTR $T20[ebp]
  0003d	89 45 c4	 mov	 DWORD PTR __Al$[ebp], eax

; 726  :         // reallocate and insert by perfectly forwarding _Val at _Whereptr
; 727  :         _Alty& _Al        = _Getal();
; 728  :         auto& _My_data    = _Mypair._Myval2;

  00040	8b 45 68	 mov	 eax, DWORD PTR _this$[ebp]
  00043	89 45 44	 mov	 DWORD PTR __My_data$[ebp], eax

; 729  :         pointer& _Myfirst = _My_data._Myfirst;

  00046	8b 45 44	 mov	 eax, DWORD PTR __My_data$[ebp]
  00049	89 45 5c	 mov	 DWORD PTR __Myfirst$[ebp], eax

; 730  :         pointer& _Mylast  = _My_data._Mylast;

  0004c	8b 45 44	 mov	 eax, DWORD PTR __My_data$[ebp]
  0004f	83 c0 04	 add	 eax, 4
  00052	89 45 58	 mov	 DWORD PTR __Mylast$[ebp], eax

; 731  : 
; 732  :         _STL_INTERNAL_CHECK(_Mylast == _My_data._Myend); // check that we have no unused capacity
; 733  : 
; 734  :         const auto _Whereoff = static_cast<size_type>(_Whereptr - _Myfirst);

  00055	8b 45 5c	 mov	 eax, DWORD PTR __Myfirst$[ebp]
  00058	8b 4d 78	 mov	 ecx, DWORD PTR __Whereptr$[ebp]
  0005b	2b 08		 sub	 ecx, DWORD PTR [eax]
  0005d	c1 f9 02	 sar	 ecx, 2
  00060	89 4d 60	 mov	 DWORD PTR __Whereoff$[ebp], ecx

; 735  :         const auto _Oldsize  = static_cast<size_type>(_Mylast - _Myfirst);

  00063	8b 45 58	 mov	 eax, DWORD PTR __Mylast$[ebp]
  00066	8b 4d 5c	 mov	 ecx, DWORD PTR __Myfirst$[ebp]
  00069	8b 00		 mov	 eax, DWORD PTR [eax]
  0006b	2b 01		 sub	 eax, DWORD PTR [ecx]
  0006d	c1 f8 02	 sar	 eax, 2
  00070	89 45 34	 mov	 DWORD PTR __Oldsize$[ebp], eax

; 1737 :         return _Mypair._Get_first();

  00073	8b 45 68	 mov	 eax, DWORD PTR _this$[ebp]
; File C:\Program Files (x86)\Microsoft Visual Studio\2019\Community\VC\Tools\MSVC\14.28.29333\include\xmemory

; 1351 :         return *this;

  00076	89 45 24	 mov	 DWORD PTR $T19[ebp], eax
; File C:\Program Files (x86)\Microsoft Visual Studio\2019\Community\VC\Tools\MSVC\14.28.29333\include\vector

; 1737 :         return _Mypair._Get_first();

  00079	8b 45 24	 mov	 eax, DWORD PTR $T19[ebp]
  0007c	89 45 c0	 mov	 DWORD PTR $T3[ebp], eax
; File C:\Program Files (x86)\Microsoft Visual Studio\2019\Community\VC\Tools\MSVC\14.28.29333\include\xmemory

; 710  :         return static_cast<size_t>(-1) / sizeof(value_type);

  0007f	c7 45 40 ff ff
	ff 3f		 mov	 DWORD PTR $T22[ebp], 1073741823 ; 3fffffffH
; File C:\Program Files (x86)\Microsoft Visual Studio\2019\Community\VC\Tools\MSVC\14.28.29333\include\limits

; 557  :         return INT_MAX;

  00086	c7 45 20 ff ff
	ff 7f		 mov	 DWORD PTR $T18[ebp], 2147483647 ; 7fffffffH
; File C:\Program Files (x86)\Microsoft Visual Studio\2019\Community\VC\Tools\MSVC\14.28.29333\include\vector

; 1488 :         return (_STD min)(

  0008d	8b 45 20	 mov	 eax, DWORD PTR $T18[ebp]
  00090	89 45 3c	 mov	 DWORD PTR $T21[ebp], eax
; File C:\Program Files (x86)\Microsoft Visual Studio\2019\Community\VC\Tools\MSVC\14.28.29333\include\utility

; 68   :     return _Right < _Left ? _Right : _Left;

  00093	8b 45 40	 mov	 eax, DWORD PTR $T22[ebp]
  00096	3b 45 3c	 cmp	 eax, DWORD PTR $T21[ebp]
  00099	73 08		 jae	 SHORT $LN34@Emplace_re
  0009b	8d 45 40	 lea	 eax, DWORD PTR $T22[ebp]
  0009e	89 45 38	 mov	 DWORD PTR tv172[ebp], eax
  000a1	eb 06		 jmp	 SHORT $LN35@Emplace_re
$LN34@Emplace_re:
  000a3	8d 45 3c	 lea	 eax, DWORD PTR $T21[ebp]
  000a6	89 45 38	 mov	 DWORD PTR tv172[ebp], eax
$LN35@Emplace_re:
  000a9	8b 45 38	 mov	 eax, DWORD PTR tv172[ebp]
  000ac	89 45 1c	 mov	 DWORD PTR $T17[ebp], eax
  000af	8b 45 1c	 mov	 eax, DWORD PTR $T17[ebp]
  000b2	89 45 18	 mov	 DWORD PTR $T16[ebp], eax
; File C:\Program Files (x86)\Microsoft Visual Studio\2019\Community\VC\Tools\MSVC\14.28.29333\include\vector

; 1488 :         return (_STD min)(

  000b5	8b 45 18	 mov	 eax, DWORD PTR $T16[ebp]
  000b8	8b 00		 mov	 eax, DWORD PTR [eax]
  000ba	89 45 14	 mov	 DWORD PTR $T15[ebp], eax

; 736  : 
; 737  :         if (_Oldsize == max_size()) {

  000bd	8b 45 34	 mov	 eax, DWORD PTR __Oldsize$[ebp]
  000c0	3b 45 14	 cmp	 eax, DWORD PTR $T15[ebp]
  000c3	75 05		 jne	 SHORT $LN2@Emplace_re

; 738  :             _Xlength();

  000c5	e8 00 00 00 00	 call	 ?_Xlength@?$vector@PAVCGraphicVertexBuffer@@V?$allocator@PAVCGraphicVertexBuffer@@@std@@@std@@CAXXZ ; std::vector<CGraphicVertexBuffer *,std::allocator<CGraphicVertexBuffer *> >::_Xlength
$LN2@Emplace_re:

; 739  :         }
; 740  : 
; 741  :         const size_type _Newsize     = _Oldsize + 1;

  000ca	8b 45 34	 mov	 eax, DWORD PTR __Oldsize$[ebp]
  000cd	40		 inc	 eax
  000ce	89 45 2c	 mov	 DWORD PTR __Newsize$[ebp], eax

; 742  :         const size_type _Newcapacity = _Calculate_growth(_Newsize);

  000d1	ff 75 2c	 push	 DWORD PTR __Newsize$[ebp]
  000d4	8b 4d 68	 mov	 ecx, DWORD PTR _this$[ebp]
  000d7	e8 00 00 00 00	 call	 ?_Calculate_growth@?$vector@PAVCGraphicVertexBuffer@@V?$allocator@PAVCGraphicVertexBuffer@@@std@@@std@@ABEII@Z ; std::vector<CGraphicVertexBuffer *,std::allocator<CGraphicVertexBuffer *> >::_Calculate_growth
  000dc	89 45 54	 mov	 DWORD PTR __Newcapacity$[ebp], eax
; File C:\Program Files (x86)\Microsoft Visual Studio\2019\Community\VC\Tools\MSVC\14.28.29333\include\xmemory

; 56   :     constexpr bool _Overflow_is_possible = _Ty_size > 1;

  000df	c6 45 53 01	 mov	 BYTE PTR __Overflow_is_possible$23[ebp], 1

; 57   : 
; 58   :     if _CONSTEXPR_IF (_Overflow_is_possible) {
; 59   :         constexpr size_t _Max_possible = static_cast<size_t>(-1) / _Ty_size;

  000e3	c7 45 bc ff ff
	ff 3f		 mov	 DWORD PTR __Max_possible$2[ebp], 1073741823 ; 3fffffffH

; 60   :         if (_Count > _Max_possible) {

  000ea	81 7d 54 ff ff
	ff 3f		 cmp	 DWORD PTR __Newcapacity$[ebp], 1073741823 ; 3fffffffH
  000f1	76 05		 jbe	 SHORT $LN67@Emplace_re

; 61   :             _Throw_bad_array_new_length(); // multiply overflow

  000f3	e8 00 00 00 00	 call	 ?_Throw_bad_array_new_length@std@@YAXXZ ; std::_Throw_bad_array_new_length
$LN67@Emplace_re:

; 62   :         }
; 63   :     }
; 64   : 
; 65   :     return _Count * _Ty_size;

  000f8	8b 45 54	 mov	 eax, DWORD PTR __Newcapacity$[ebp]
  000fb	c1 e0 02	 shl	 eax, 2
  000fe	89 45 10	 mov	 DWORD PTR $T14[ebp], eax

; 814  :         return static_cast<_Ty*>(_Allocate<_New_alignof<_Ty>>(_Get_size_of_n<sizeof(_Ty)>(_Count)));

  00101	ff 75 10	 push	 DWORD PTR $T14[ebp]
  00104	e8 00 00 00 00	 call	 ??$_Allocate@$07U_Default_allocate_traits@std@@$0A@@std@@YAPAXI@Z ; std::_Allocate<8,std::_Default_allocate_traits,0>
  00109	59		 pop	 ecx
  0010a	89 45 6c	 mov	 DWORD PTR __Newvec$[ebp], eax
; File C:\Program Files (x86)\Microsoft Visual Studio\2019\Community\VC\Tools\MSVC\14.28.29333\include\vector

; 745  :         const pointer _Constructed_last = _Newvec + _Whereoff + 1;

  0010d	8b 45 60	 mov	 eax, DWORD PTR __Whereoff$[ebp]
  00110	8b 4d 6c	 mov	 ecx, DWORD PTR __Newvec$[ebp]
  00113	8d 44 81 04	 lea	 eax, DWORD PTR [ecx+eax*4+4]
  00117	89 45 30	 mov	 DWORD PTR __Constructed_last$[ebp], eax

; 746  :         pointer _Constructed_first      = _Constructed_last;

  0011a	8b 45 30	 mov	 eax, DWORD PTR __Constructed_last$[ebp]
  0011d	89 45 48	 mov	 DWORD PTR __Constructed_first$[ebp], eax

; 747  : 
; 748  :         _TRY_BEGIN

  00120	83 65 fc 00	 and	 DWORD PTR __$EHRec$[ebp+12], 0
; File C:\Program Files (x86)\Microsoft Visual Studio\2019\Community\VC\Tools\MSVC\14.28.29333\include\type_traits

; 1443 :     return static_cast<_Ty&&>(_Arg);

  00124	8b 45 7c	 mov	 eax, DWORD PTR _<_Val_0>$[ebp]
  00127	89 45 08	 mov	 DWORD PTR $T12[ebp], eax
; File C:\Program Files (x86)\Microsoft Visual Studio\2019\Community\VC\Tools\MSVC\14.28.29333\include\vector

; 749  :         _Alty_traits::construct(_Al, _Unfancy(_Newvec + _Whereoff), _STD forward<_Valty>(_Val)...);

  0012a	8b 45 60	 mov	 eax, DWORD PTR __Whereoff$[ebp]
  0012d	8b 4d 6c	 mov	 ecx, DWORD PTR __Newvec$[ebp]
  00130	8d 04 81	 lea	 eax, DWORD PTR [ecx+eax*4]
; File C:\Program Files (x86)\Microsoft Visual Studio\2019\Community\VC\Tools\MSVC\14.28.29333\include\xstddef

; 289  :     return _Ptr;

  00133	89 45 0c	 mov	 DWORD PTR $T13[ebp], eax
; File C:\Program Files (x86)\Microsoft Visual Studio\2019\Community\VC\Tools\MSVC\14.28.29333\include\vcruntime_new.h

; 169  :         return _Where;

  00136	8b 45 0c	 mov	 eax, DWORD PTR $T13[ebp]
  00139	89 45 04	 mov	 DWORD PTR $T11[ebp], eax
; File C:\Program Files (x86)\Microsoft Visual Studio\2019\Community\VC\Tools\MSVC\14.28.29333\include\type_traits

; 1443 :     return static_cast<_Ty&&>(_Arg);

  0013c	8b 45 08	 mov	 eax, DWORD PTR $T12[ebp]
  0013f	89 45 00	 mov	 DWORD PTR $T10[ebp], eax
; File C:\Program Files (x86)\Microsoft Visual Studio\2019\Community\VC\Tools\MSVC\14.28.29333\include\xmemory

; 701  :         ::new (const_cast<void*>(static_cast<const volatile void*>(_Ptr))) _Objty(_STD forward<_Types>(_Args)...);

  00142	8b 45 04	 mov	 eax, DWORD PTR $T11[ebp]
  00145	8b 4d 00	 mov	 ecx, DWORD PTR $T10[ebp]
  00148	8b 09		 mov	 ecx, DWORD PTR [ecx]
  0014a	89 08		 mov	 DWORD PTR [eax], ecx
; File C:\Program Files (x86)\Microsoft Visual Studio\2019\Community\VC\Tools\MSVC\14.28.29333\include\vector

; 750  :         _Constructed_first = _Newvec + _Whereoff;

  0014c	8b 45 60	 mov	 eax, DWORD PTR __Whereoff$[ebp]
  0014f	8b 4d 6c	 mov	 ecx, DWORD PTR __Newvec$[ebp]
  00152	8d 04 81	 lea	 eax, DWORD PTR [ecx+eax*4]
  00155	89 45 48	 mov	 DWORD PTR __Constructed_first$[ebp], eax

; 751  : 
; 752  :         if (_Whereptr == _Mylast) { // at back, provide strong guarantee

  00158	8b 45 58	 mov	 eax, DWORD PTR __Mylast$[ebp]
  0015b	8b 4d 78	 mov	 ecx, DWORD PTR __Whereptr$[ebp]
  0015e	3b 08		 cmp	 ecx, DWORD PTR [eax]
  00160	75 3d		 jne	 SHORT $LN4@Emplace_re

; 753  :             _Umove_if_noexcept(_Myfirst, _Mylast, _Newvec);

  00162	8b 45 58	 mov	 eax, DWORD PTR __Mylast$[ebp]
  00165	8b 00		 mov	 eax, DWORD PTR [eax]
  00167	89 45 e4	 mov	 DWORD PTR __Last$[ebp], eax
  0016a	8b 45 5c	 mov	 eax, DWORD PTR __Myfirst$[ebp]
  0016d	8b 00		 mov	 eax, DWORD PTR [eax]
  0016f	89 45 e0	 mov	 DWORD PTR __First$[ebp], eax

; 1607 :         _Umove_if_noexcept1(_First, _Last, _Dest,

  00172	33 c0		 xor	 eax, eax
  00174	88 45 67	 mov	 BYTE PTR $T24[ebp], al
  00177	8a 45 67	 mov	 al, BYTE PTR $T24[ebp]
  0017a	88 45 4c	 mov	 BYTE PTR ___formal$[ebp], al

; 1733 :         return _Mypair._Get_first();

  0017d	8b 45 68	 mov	 eax, DWORD PTR _this$[ebp]
; File C:\Program Files (x86)\Microsoft Visual Studio\2019\Community\VC\Tools\MSVC\14.28.29333\include\xmemory

; 1347 :         return *this;

  00180	89 45 ec	 mov	 DWORD PTR $T9[ebp], eax
; File C:\Program Files (x86)\Microsoft Visual Studio\2019\Community\VC\Tools\MSVC\14.28.29333\include\vector

; 1733 :         return _Mypair._Get_first();

  00183	8b 45 ec	 mov	 eax, DWORD PTR $T9[ebp]
  00186	89 45 e8	 mov	 DWORD PTR $T8[ebp], eax

; 1597 :         _Uninitialized_move(_First, _Last, _Dest, _Getal());

  00189	ff 75 e8	 push	 DWORD PTR $T8[ebp]
  0018c	ff 75 6c	 push	 DWORD PTR __Newvec$[ebp]
  0018f	ff 75 e4	 push	 DWORD PTR __Last$[ebp]
  00192	ff 75 e0	 push	 DWORD PTR __First$[ebp]
  00195	e8 00 00 00 00	 call	 ??$_Uninitialized_move@PAPAVCGraphicVertexBuffer@@V?$allocator@PAVCGraphicVertexBuffer@@@std@@@std@@YAPAPAVCGraphicVertexBuffer@@QAPAV1@0PAPAV1@AAV?$allocator@PAVCGraphicVertexBuffer@@@0@@Z ; std::_Uninitialized_move<CGraphicVertexBuffer * *,std::allocator<CGraphicVertexBuffer *> >
  0019a	83 c4 10	 add	 esp, 16			; 00000010H

; 754  :         } else { // provide basic guarantee

  0019d	eb 5e		 jmp	 SHORT $LN5@Emplace_re
$LN4@Emplace_re:

; 755  :             _Umove(_Myfirst, _Whereptr, _Newvec);

  0019f	8b 45 5c	 mov	 eax, DWORD PTR __Myfirst$[ebp]
  001a2	8b 00		 mov	 eax, DWORD PTR [eax]
  001a4	89 45 d4	 mov	 DWORD PTR __First$[ebp], eax

; 1733 :         return _Mypair._Get_first();

  001a7	8b 45 68	 mov	 eax, DWORD PTR _this$[ebp]
; File C:\Program Files (x86)\Microsoft Visual Studio\2019\Community\VC\Tools\MSVC\14.28.29333\include\xmemory

; 1347 :         return *this;

  001aa	89 45 dc	 mov	 DWORD PTR $T7[ebp], eax
; File C:\Program Files (x86)\Microsoft Visual Studio\2019\Community\VC\Tools\MSVC\14.28.29333\include\vector

; 1733 :         return _Mypair._Get_first();

  001ad	8b 45 dc	 mov	 eax, DWORD PTR $T7[ebp]
  001b0	89 45 d8	 mov	 DWORD PTR $T6[ebp], eax

; 1592 :         return _Uninitialized_move(_First, _Last, _Dest, _Getal());

  001b3	ff 75 d8	 push	 DWORD PTR $T6[ebp]
  001b6	ff 75 6c	 push	 DWORD PTR __Newvec$[ebp]
  001b9	ff 75 78	 push	 DWORD PTR __Whereptr$[ebp]
  001bc	ff 75 d4	 push	 DWORD PTR __First$[ebp]
  001bf	e8 00 00 00 00	 call	 ??$_Uninitialized_move@PAPAVCGraphicVertexBuffer@@V?$allocator@PAVCGraphicVertexBuffer@@@std@@@std@@YAPAPAVCGraphicVertexBuffer@@QAPAV1@0PAPAV1@AAV?$allocator@PAVCGraphicVertexBuffer@@@0@@Z ; std::_Uninitialized_move<CGraphicVertexBuffer * *,std::allocator<CGraphicVertexBuffer *> >
  001c4	83 c4 10	 add	 esp, 16			; 00000010H

; 756  :             _Constructed_first = _Newvec;

  001c7	8b 45 6c	 mov	 eax, DWORD PTR __Newvec$[ebp]
  001ca	89 45 48	 mov	 DWORD PTR __Constructed_first$[ebp], eax

; 757  :             _Umove(_Whereptr, _Mylast, _Newvec + _Whereoff + 1);

  001cd	8b 45 58	 mov	 eax, DWORD PTR __Mylast$[ebp]
  001d0	8b 00		 mov	 eax, DWORD PTR [eax]
  001d2	89 45 c8	 mov	 DWORD PTR __Last$[ebp], eax

; 1733 :         return _Mypair._Get_first();

  001d5	8b 45 68	 mov	 eax, DWORD PTR _this$[ebp]
; File C:\Program Files (x86)\Microsoft Visual Studio\2019\Community\VC\Tools\MSVC\14.28.29333\include\xmemory

; 1347 :         return *this;

  001d8	89 45 d0	 mov	 DWORD PTR $T5[ebp], eax
; File C:\Program Files (x86)\Microsoft Visual Studio\2019\Community\VC\Tools\MSVC\14.28.29333\include\vector

; 1733 :         return _Mypair._Get_first();

  001db	8b 45 d0	 mov	 eax, DWORD PTR $T5[ebp]
  001de	89 45 cc	 mov	 DWORD PTR $T4[ebp], eax

; 1592 :         return _Uninitialized_move(_First, _Last, _Dest, _Getal());

  001e1	ff 75 cc	 push	 DWORD PTR $T4[ebp]

; 757  :             _Umove(_Whereptr, _Mylast, _Newvec + _Whereoff + 1);

  001e4	8b 45 60	 mov	 eax, DWORD PTR __Whereoff$[ebp]
  001e7	8b 4d 6c	 mov	 ecx, DWORD PTR __Newvec$[ebp]
  001ea	8d 44 81 04	 lea	 eax, DWORD PTR [ecx+eax*4+4]

; 1592 :         return _Uninitialized_move(_First, _Last, _Dest, _Getal());

  001ee	50		 push	 eax
  001ef	ff 75 c8	 push	 DWORD PTR __Last$[ebp]
  001f2	ff 75 78	 push	 DWORD PTR __Whereptr$[ebp]
  001f5	e8 00 00 00 00	 call	 ??$_Uninitialized_move@PAPAVCGraphicVertexBuffer@@V?$allocator@PAVCGraphicVertexBuffer@@@std@@@std@@YAPAPAVCGraphicVertexBuffer@@QAPAV1@0PAPAV1@AAV?$allocator@PAVCGraphicVertexBuffer@@@0@@Z ; std::_Uninitialized_move<CGraphicVertexBuffer * *,std::allocator<CGraphicVertexBuffer *> >
  001fa	83 c4 10	 add	 esp, 16			; 00000010H
$LN5@Emplace_re:

; 757  :             _Umove(_Whereptr, _Mylast, _Newvec + _Whereoff + 1);

  001fd	eb 2b		 jmp	 SHORT $LN7@Emplace_re
__catch$??$_Emplace_reallocate@ABQAVCGraphicVertexBuffer@@@?$vector@PAVCGraphicVertexBuffer@@V?$allocator@PAVCGraphicVertexBuffer@@@std@@@std@@QAEPAPAVCGraphicVertexBuffer@@QAPAV2@ABQAV2@@Z$0:

; 758  :         }
; 759  :         _CATCH_ALL
; 760  :         _Destroy(_Constructed_first, _Constructed_last);

  001ff	ff 75 30	 push	 DWORD PTR __Constructed_last$[ebp]
  00202	ff 75 48	 push	 DWORD PTR __Constructed_first$[ebp]
  00205	8b 4d 68	 mov	 ecx, DWORD PTR _this$[ebp]
  00208	e8 00 00 00 00	 call	 ?_Destroy@?$vector@PAVCGraphicVertexBuffer@@V?$allocator@PAVCGraphicVertexBuffer@@@std@@@std@@AAEXPAPAVCGraphicVertexBuffer@@0@Z ; std::vector<CGraphicVertexBuffer *,std::allocator<CGraphicVertexBuffer *> >::_Destroy

; 761  :         _Al.deallocate(_Newvec, _Newcapacity);

  0020d	ff 75 54	 push	 DWORD PTR __Newcapacity$[ebp]
  00210	ff 75 6c	 push	 DWORD PTR __Newvec$[ebp]
  00213	8b 4d c4	 mov	 ecx, DWORD PTR __Al$[ebp]
  00216	e8 00 00 00 00	 call	 ?deallocate@?$allocator@PAVCGraphicVertexBuffer@@@std@@QAEXQAPAVCGraphicVertexBuffer@@I@Z ; std::allocator<CGraphicVertexBuffer *>::deallocate

; 762  :         _RERAISE;

  0021b	6a 00		 push	 0
  0021d	6a 00		 push	 0
  0021f	e8 00 00 00 00	 call	 __CxxThrowException@8

; 763  :         _CATCH_END

  00224	b8 00 00 00 00	 mov	 eax, $LN10@Emplace_re
  00229	c3		 ret	 0
$LN7@Emplace_re:
  0022a	83 4d fc ff	 or	 DWORD PTR __$EHRec$[ebp+12], -1
  0022e	eb 04		 jmp	 SHORT __tryend$??$_Emplace_reallocate@ABQAVCGraphicVertexBuffer@@@?$vector@PAVCGraphicVertexBuffer@@V?$allocator@PAVCGraphicVertexBuffer@@@std@@@std@@QAEPAPAVCGraphicVertexBuffer@@QAPAV2@ABQAV2@@Z$1
$LN10@Emplace_re:
; File C:\Program Files (x86)\Microsoft Visual Studio\2019\Community\VC\Tools\MSVC\14.28.29333\include\xmemory
  00230	83 4d fc ff	 or	 DWORD PTR __$EHRec$[ebp+12], -1
__tryend$??$_Emplace_reallocate@ABQAVCGraphicVertexBuffer@@@?$vector@PAVCGraphicVertexBuffer@@V?$allocator@PAVCGraphicVertexBuffer@@@std@@@std@@QAEPAPAVCGraphicVertexBuffer@@QAPAV2@ABQAV2@@Z$1:
; File C:\Program Files (x86)\Microsoft Visual Studio\2019\Community\VC\Tools\MSVC\14.28.29333\include\vector

; 764  : 
; 765  :         _Change_array(_Newvec, _Newsize, _Newcapacity);

  00234	ff 75 54	 push	 DWORD PTR __Newcapacity$[ebp]
  00237	ff 75 2c	 push	 DWORD PTR __Newsize$[ebp]
  0023a	ff 75 6c	 push	 DWORD PTR __Newvec$[ebp]
  0023d	8b 4d 68	 mov	 ecx, DWORD PTR _this$[ebp]
  00240	e8 00 00 00 00	 call	 ?_Change_array@?$vector@PAVCGraphicVertexBuffer@@V?$allocator@PAVCGraphicVertexBuffer@@@std@@@std@@AAEXQAPAVCGraphicVertexBuffer@@II@Z ; std::vector<CGraphicVertexBuffer *,std::allocator<CGraphicVertexBuffer *> >::_Change_array

; 766  :         return _Newvec + _Whereoff;

  00245	8b 45 60	 mov	 eax, DWORD PTR __Whereoff$[ebp]
  00248	8b 4d 6c	 mov	 ecx, DWORD PTR __Newvec$[ebp]
  0024b	8d 04 81	 lea	 eax, DWORD PTR [ecx+eax*4]
$LN70@Emplace_re:

; 767  :     }

  0024e	8b 4d f4	 mov	 ecx, DWORD PTR __$EHRec$[ebp+4]
  00251	64 89 0d 00 00
	00 00		 mov	 DWORD PTR fs:0, ecx
  00258	59		 pop	 ecx
  00259	5f		 pop	 edi
  0025a	5e		 pop	 esi
  0025b	5b		 pop	 ebx
  0025c	83 c5 70	 add	 ebp, 112		; 00000070H
  0025f	c9		 leave
  00260	c2 08 00	 ret	 8
  00263	cc		 int	 3
  00264	cc		 int	 3
  00265	cc		 int	 3
  00266	cc		 int	 3
  00267	cc		 int	 3
_TEXT	ENDS
;	COMDAT text$x
text$x	SEGMENT
__ehhandler$??$_Emplace_reallocate@ABQAVCGraphicVertexBuffer@@@?$vector@PAVCGraphicVertexBuffer@@V?$allocator@PAVCGraphicVertexBuffer@@@std@@@std@@QAEPAPAVCGraphicVertexBuffer@@QAPAV2@ABQAV2@@Z:
  00000	90		 npad	 1
  00001	90		 npad	 1
  00002	8b 54 24 08	 mov	 edx, DWORD PTR [esp+8]
  00006	8d 42 0c	 lea	 eax, DWORD PTR [edx+12]
  00009	8b 4a b8	 mov	 ecx, DWORD PTR [edx-72]
  0000c	33 c8		 xor	 ecx, eax
  0000e	e8 00 00 00 00	 call	 @__security_check_cookie@4
  00013	b8 00 00 00 00	 mov	 eax, OFFSET __ehfuncinfo$??$_Emplace_reallocate@ABQAVCGraphicVertexBuffer@@@?$vector@PAVCGraphicVertexBuffer@@V?$allocator@PAVCGraphicVertexBuffer@@@std@@@std@@QAEPAPAVCGraphicVertexBuffer@@QAPAV2@ABQAV2@@Z
  00018	e9 00 00 00 00	 jmp	 ___CxxFrameHandler3
text$x	ENDS
??$_Emplace_reallocate@ABQAVCGraphicVertexBuffer@@@?$vector@PAVCGraphicVertexBuffer@@V?$allocator@PAVCGraphicVertexBuffer@@@std@@@std@@QAEPAPAVCGraphicVertexBuffer@@QAPAV2@ABQAV2@@Z ENDP ; std::vector<CGraphicVertexBuffer *,std::allocator<CGraphicVertexBuffer *> >::_Emplace_reallocate<CGraphicVertexBuffer * const &>
; Function compile flags: /Odspy
; File C:\Program Files (x86)\Microsoft Visual Studio\2019\Community\VC\Tools\MSVC\14.28.29333\include\vector
; File C:\Program Files (x86)\Microsoft Visual Studio\2019\Community\VC\Tools\MSVC\14.28.29333\include\type_traits
; File C:\Program Files (x86)\Microsoft Visual Studio\2019\Community\VC\Tools\MSVC\14.28.29333\include\vector
; File C:\Program Files (x86)\Microsoft Visual Studio\2019\Community\VC\Tools\MSVC\14.28.29333\include\xstddef
; File C:\Program Files (x86)\Microsoft Visual Studio\2019\Community\VC\Tools\MSVC\14.28.29333\include\vector
; File C:\Program Files (x86)\Microsoft Visual Studio\2019\Community\VC\Tools\MSVC\14.28.29333\include\xmemory
; File C:\Program Files (x86)\Microsoft Visual Studio\2019\Community\VC\Tools\MSVC\14.28.29333\include\vector
; File C:\Program Files (x86)\Microsoft Visual Studio\2019\Community\VC\Tools\MSVC\14.28.29333\include\vcruntime_new.h
; File C:\Program Files (x86)\Microsoft Visual Studio\2019\Community\VC\Tools\MSVC\14.28.29333\include\type_traits
; File C:\Program Files (x86)\Microsoft Visual Studio\2019\Community\VC\Tools\MSVC\14.28.29333\include\xmemory
; File C:\Program Files (x86)\Microsoft Visual Studio\2019\Community\VC\Tools\MSVC\14.28.29333\include\vector
;	COMDAT ??$_Emplace_back_with_unused_capacity@ABQAVCGraphicVertexBuffer@@@?$vector@PAVCGraphicVertexBuffer@@V?$allocator@PAVCGraphicVertexBuffer@@@std@@@std@@AAEXABQAVCGraphicVertexBuffer@@@Z
_TEXT	SEGMENT
__Result$ = -44						; size = 4
$T1 = -40						; size = 4
$T2 = -36						; size = 4
$T3 = -32						; size = 4
$T4 = -28						; size = 4
$T5 = -24						; size = 4
$T6 = -20						; size = 4
__Ptr$ = -16						; size = 4
__My_data$ = -12					; size = 4
_this$ = -8						; size = 4
__Mylast$ = -4						; size = 4
_<_Val_0>$ = 8						; size = 4
??$_Emplace_back_with_unused_capacity@ABQAVCGraphicVertexBuffer@@@?$vector@PAVCGraphicVertexBuffer@@V?$allocator@PAVCGraphicVertexBuffer@@@std@@@std@@AAEXABQAVCGraphicVertexBuffer@@@Z PROC ; std::vector<CGraphicVertexBuffer *,std::allocator<CGraphicVertexBuffer *> >::_Emplace_back_with_unused_capacity<CGraphicVertexBuffer * const &>, COMDAT
; _this$ = ecx

; 682  :     decltype(auto) _Emplace_back_with_unused_capacity(_Valty&&... _Val) {

  00000	55		 push	 ebp
  00001	8b ec		 mov	 ebp, esp
  00003	83 ec 2c	 sub	 esp, 44			; 0000002cH
  00006	89 4d f8	 mov	 DWORD PTR _this$[ebp], ecx

; 683  :         // insert by perfectly forwarding into element at end, provide strong guarantee
; 684  :         auto& _My_data   = _Mypair._Myval2;

  00009	8b 45 f8	 mov	 eax, DWORD PTR _this$[ebp]
  0000c	89 45 f4	 mov	 DWORD PTR __My_data$[ebp], eax

; 685  :         pointer& _Mylast = _My_data._Mylast;

  0000f	8b 45 f4	 mov	 eax, DWORD PTR __My_data$[ebp]
  00012	83 c0 04	 add	 eax, 4
  00015	89 45 fc	 mov	 DWORD PTR __Mylast$[ebp], eax
; File C:\Program Files (x86)\Microsoft Visual Studio\2019\Community\VC\Tools\MSVC\14.28.29333\include\type_traits

; 1443 :     return static_cast<_Ty&&>(_Arg);

  00018	8b 45 08	 mov	 eax, DWORD PTR _<_Val_0>$[ebp]
  0001b	89 45 e4	 mov	 DWORD PTR $T4[ebp], eax
; File C:\Program Files (x86)\Microsoft Visual Studio\2019\Community\VC\Tools\MSVC\14.28.29333\include\vector

; 687  :         _Alty_traits::construct(_Getal(), _Unfancy(_Mylast), _STD forward<_Valty>(_Val)...);

  0001e	8b 45 fc	 mov	 eax, DWORD PTR __Mylast$[ebp]
  00021	8b 00		 mov	 eax, DWORD PTR [eax]
  00023	89 45 f0	 mov	 DWORD PTR __Ptr$[ebp], eax
; File C:\Program Files (x86)\Microsoft Visual Studio\2019\Community\VC\Tools\MSVC\14.28.29333\include\xstddef

; 289  :     return _Ptr;

  00026	8b 45 f0	 mov	 eax, DWORD PTR __Ptr$[ebp]
  00029	89 45 e8	 mov	 DWORD PTR $T5[ebp], eax
; File C:\Program Files (x86)\Microsoft Visual Studio\2019\Community\VC\Tools\MSVC\14.28.29333\include\vector

; 1733 :         return _Mypair._Get_first();

  0002c	8b 45 f8	 mov	 eax, DWORD PTR _this$[ebp]
; File C:\Program Files (x86)\Microsoft Visual Studio\2019\Community\VC\Tools\MSVC\14.28.29333\include\xmemory

; 1347 :         return *this;

  0002f	89 45 ec	 mov	 DWORD PTR $T6[ebp], eax
; File C:\Program Files (x86)\Microsoft Visual Studio\2019\Community\VC\Tools\MSVC\14.28.29333\include\vector

; 1733 :         return _Mypair._Get_first();

  00032	8b 45 ec	 mov	 eax, DWORD PTR $T6[ebp]
  00035	89 45 d8	 mov	 DWORD PTR $T1[ebp], eax
; File C:\Program Files (x86)\Microsoft Visual Studio\2019\Community\VC\Tools\MSVC\14.28.29333\include\vcruntime_new.h

; 169  :         return _Where;

  00038	8b 45 e8	 mov	 eax, DWORD PTR $T5[ebp]
  0003b	89 45 e0	 mov	 DWORD PTR $T3[ebp], eax
; File C:\Program Files (x86)\Microsoft Visual Studio\2019\Community\VC\Tools\MSVC\14.28.29333\include\type_traits

; 1443 :     return static_cast<_Ty&&>(_Arg);

  0003e	8b 45 e4	 mov	 eax, DWORD PTR $T4[ebp]
  00041	89 45 dc	 mov	 DWORD PTR $T2[ebp], eax
; File C:\Program Files (x86)\Microsoft Visual Studio\2019\Community\VC\Tools\MSVC\14.28.29333\include\xmemory

; 701  :         ::new (const_cast<void*>(static_cast<const volatile void*>(_Ptr))) _Objty(_STD forward<_Types>(_Args)...);

  00044	8b 45 e0	 mov	 eax, DWORD PTR $T3[ebp]
  00047	8b 4d dc	 mov	 ecx, DWORD PTR $T2[ebp]
  0004a	8b 09		 mov	 ecx, DWORD PTR [ecx]
  0004c	89 08		 mov	 DWORD PTR [eax], ecx
; File C:\Program Files (x86)\Microsoft Visual Studio\2019\Community\VC\Tools\MSVC\14.28.29333\include\vector

; 689  :         _Ty& _Result = *_Mylast;

  0004e	8b 45 fc	 mov	 eax, DWORD PTR __Mylast$[ebp]
  00051	8b 00		 mov	 eax, DWORD PTR [eax]
  00053	89 45 d4	 mov	 DWORD PTR __Result$[ebp], eax

; 690  :         ++_Mylast;

  00056	8b 45 fc	 mov	 eax, DWORD PTR __Mylast$[ebp]
  00059	8b 00		 mov	 eax, DWORD PTR [eax]
  0005b	83 c0 04	 add	 eax, 4
  0005e	8b 4d fc	 mov	 ecx, DWORD PTR __Mylast$[ebp]
  00061	89 01		 mov	 DWORD PTR [ecx], eax

; 691  : #if _HAS_CXX17
; 692  :         return _Result;
; 693  : #else // ^^^ _HAS_CXX17 ^^^ // vvv !_HAS_CXX17 vvv
; 694  :         (void) _Result;
; 695  : #endif // _HAS_CXX17
; 696  :     }

  00063	c9		 leave
  00064	c2 04 00	 ret	 4
??$_Emplace_back_with_unused_capacity@ABQAVCGraphicVertexBuffer@@@?$vector@PAVCGraphicVertexBuffer@@V?$allocator@PAVCGraphicVertexBuffer@@@std@@@std@@AAEXABQAVCGraphicVertexBuffer@@@Z ENDP ; std::vector<CGraphicVertexBuffer *,std::allocator<CGraphicVertexBuffer *> >::_Emplace_back_with_unused_capacity<CGraphicVertexBuffer * const &>
_TEXT	ENDS
; Function compile flags: /Odspy
; File C:\Program Files (x86)\Microsoft Visual Studio\2019\Community\VC\Tools\MSVC\14.28.29333\include\vector
; File C:\Program Files (x86)\Microsoft Visual Studio\2019\Community\VC\Tools\MSVC\14.28.29333\include\type_traits
; File C:\Program Files (x86)\Microsoft Visual Studio\2019\Community\VC\Tools\MSVC\14.28.29333\include\vector
; File C:\Program Files (x86)\Microsoft Visual Studio\2019\Community\VC\Tools\MSVC\14.28.29333\include\type_traits
; File C:\Program Files (x86)\Microsoft Visual Studio\2019\Community\VC\Tools\MSVC\14.28.29333\include\vector
;	COMDAT ??$emplace_back@ABQAVCGraphicVertexBuffer@@@?$vector@PAVCGraphicVertexBuffer@@V?$allocator@PAVCGraphicVertexBuffer@@@std@@@std@@QAEXABQAVCGraphicVertexBuffer@@@Z
_TEXT	SEGMENT
__Result$ = -24						; size = 4
$T1 = -20						; size = 4
$T2 = -16						; size = 4
__Mylast$ = -12						; size = 4
__My_data$ = -8						; size = 4
_this$ = -4						; size = 4
_<_Val_0>$ = 8						; size = 4
??$emplace_back@ABQAVCGraphicVertexBuffer@@@?$vector@PAVCGraphicVertexBuffer@@V?$allocator@PAVCGraphicVertexBuffer@@@std@@@std@@QAEXABQAVCGraphicVertexBuffer@@@Z PROC ; std::vector<CGraphicVertexBuffer *,std::allocator<CGraphicVertexBuffer *> >::emplace_back<CGraphicVertexBuffer * const &>, COMDAT
; _this$ = ecx

; 700  :     decltype(auto) emplace_back(_Valty&&... _Val) {

  00000	55		 push	 ebp
  00001	8b ec		 mov	 ebp, esp
  00003	83 ec 18	 sub	 esp, 24			; 00000018H
  00006	89 4d fc	 mov	 DWORD PTR _this$[ebp], ecx

; 701  :         // insert by perfectly forwarding into element at end, provide strong guarantee
; 702  :         auto& _My_data   = _Mypair._Myval2;

  00009	8b 45 fc	 mov	 eax, DWORD PTR _this$[ebp]
  0000c	89 45 f8	 mov	 DWORD PTR __My_data$[ebp], eax

; 703  :         pointer& _Mylast = _My_data._Mylast;

  0000f	8b 45 f8	 mov	 eax, DWORD PTR __My_data$[ebp]
  00012	83 c0 04	 add	 eax, 4
  00015	89 45 f4	 mov	 DWORD PTR __Mylast$[ebp], eax

; 704  :         if (_Mylast != _My_data._Myend) {

  00018	8b 45 f4	 mov	 eax, DWORD PTR __Mylast$[ebp]
  0001b	8b 4d f8	 mov	 ecx, DWORD PTR __My_data$[ebp]
  0001e	8b 00		 mov	 eax, DWORD PTR [eax]
  00020	3b 41 08	 cmp	 eax, DWORD PTR [ecx+8]
  00023	74 13		 je	 SHORT $LN2@emplace_ba
; File C:\Program Files (x86)\Microsoft Visual Studio\2019\Community\VC\Tools\MSVC\14.28.29333\include\type_traits

; 1443 :     return static_cast<_Ty&&>(_Arg);

  00025	8b 45 08	 mov	 eax, DWORD PTR _<_Val_0>$[ebp]
  00028	89 45 f0	 mov	 DWORD PTR $T2[ebp], eax
; File C:\Program Files (x86)\Microsoft Visual Studio\2019\Community\VC\Tools\MSVC\14.28.29333\include\vector

; 705  :             return _Emplace_back_with_unused_capacity(_STD forward<_Valty>(_Val)...);

  0002b	ff 75 f0	 push	 DWORD PTR $T2[ebp]
  0002e	8b 4d fc	 mov	 ecx, DWORD PTR _this$[ebp]
  00031	e8 00 00 00 00	 call	 ??$_Emplace_back_with_unused_capacity@ABQAVCGraphicVertexBuffer@@@?$vector@PAVCGraphicVertexBuffer@@V?$allocator@PAVCGraphicVertexBuffer@@@std@@@std@@AAEXABQAVCGraphicVertexBuffer@@@Z ; std::vector<CGraphicVertexBuffer *,std::allocator<CGraphicVertexBuffer *> >::_Emplace_back_with_unused_capacity<CGraphicVertexBuffer * const &>
  00036	eb 19		 jmp	 SHORT $LN1@emplace_ba
$LN2@emplace_ba:
; File C:\Program Files (x86)\Microsoft Visual Studio\2019\Community\VC\Tools\MSVC\14.28.29333\include\type_traits

; 1443 :     return static_cast<_Ty&&>(_Arg);

  00038	8b 45 08	 mov	 eax, DWORD PTR _<_Val_0>$[ebp]
  0003b	89 45 ec	 mov	 DWORD PTR $T1[ebp], eax
; File C:\Program Files (x86)\Microsoft Visual Studio\2019\Community\VC\Tools\MSVC\14.28.29333\include\vector

; 708  :         _Ty& _Result = *_Emplace_reallocate(_Mylast, _STD forward<_Valty>(_Val)...);

  0003e	ff 75 ec	 push	 DWORD PTR $T1[ebp]
  00041	8b 45 f4	 mov	 eax, DWORD PTR __Mylast$[ebp]
  00044	ff 30		 push	 DWORD PTR [eax]
  00046	8b 4d fc	 mov	 ecx, DWORD PTR _this$[ebp]
  00049	e8 00 00 00 00	 call	 ??$_Emplace_reallocate@ABQAVCGraphicVertexBuffer@@@?$vector@PAVCGraphicVertexBuffer@@V?$allocator@PAVCGraphicVertexBuffer@@@std@@@std@@QAEPAPAVCGraphicVertexBuffer@@QAPAV2@ABQAV2@@Z ; std::vector<CGraphicVertexBuffer *,std::allocator<CGraphicVertexBuffer *> >::_Emplace_reallocate<CGraphicVertexBuffer * const &>
  0004e	89 45 e8	 mov	 DWORD PTR __Result$[ebp], eax
$LN1@emplace_ba:

; 709  : #if _HAS_CXX17
; 710  :         return _Result;
; 711  : #else // ^^^ _HAS_CXX17 ^^^ // vvv !_HAS_CXX17 vvv
; 712  :         (void) _Result;
; 713  : #endif // _HAS_CXX17
; 714  :     }

  00051	c9		 leave
  00052	c2 04 00	 ret	 4
??$emplace_back@ABQAVCGraphicVertexBuffer@@@?$vector@PAVCGraphicVertexBuffer@@V?$allocator@PAVCGraphicVertexBuffer@@@std@@@std@@QAEXABQAVCGraphicVertexBuffer@@@Z ENDP ; std::vector<CGraphicVertexBuffer *,std::allocator<CGraphicVertexBuffer *> >::emplace_back<CGraphicVertexBuffer * const &>
_TEXT	ENDS
; Function compile flags: /Odspy
; File C:\Program Files (x86)\Microsoft Visual Studio\2019\Community\VC\Tools\MSVC\14.28.29333\include\algorithm
; File C:\Program Files (x86)\Microsoft Visual Studio\2019\Community\VC\Tools\MSVC\14.28.29333\include\deque
; File C:\Program Files (x86)\Microsoft Visual Studio\2019\Community\VC\Tools\MSVC\14.28.29333\include\xmemory
; File C:\Program Files (x86)\Microsoft Visual Studio\2019\Community\VC\Tools\MSVC\14.28.29333\include\deque
; File C:\Program Files (x86)\Microsoft Visual Studio\2019\Community\VC\Tools\MSVC\14.28.29333\include\xmemory
; File C:\Program Files (x86)\Microsoft Visual Studio\2019\Community\VC\Tools\MSVC\14.28.29333\include\deque
; File C:\Program Files (x86)\Microsoft Visual Studio\2019\Community\VC\Tools\MSVC\14.28.29333\include\algorithm
; File C:\Program Files (x86)\Microsoft Visual Studio\2019\Community\VC\Tools\MSVC\14.28.29333\include\deque
; File C:\Program Files (x86)\Microsoft Visual Studio\2019\Community\VC\Tools\MSVC\14.28.29333\include\algorithm
; File C:\Program Files (x86)\Microsoft Visual Studio\2019\Community\VC\Tools\MSVC\14.28.29333\include\deque
; File C:\Program Files (x86)\Microsoft Visual Studio\2019\Community\VC\Tools\MSVC\14.28.29333\include\algorithm
; File D:\Metin2 Server Files\mainline\SRC_2014\Metin2Client\eterGrnLib\ModelInstance.h
; File C:\Program Files (x86)\Microsoft Visual Studio\2019\Community\VC\Tools\MSVC\14.28.29333\include\algorithm
;	COMDAT ??$for_each@V?$_Deque_iterator@V?$_Deque_val@U?$_Deque_simple_types@PAVCGrannyModelInstance@@@std@@@std@@@std@@UFDestroyDeviceObjects@CGrannyModelInstance@@@std@@YA?AUFDestroyDeviceObjects@CGrannyModelInstance@@V?$_Deque_iterator@V?$_Deque_val@U?$_Deque_simple_types@PAVCGrannyModelInstance@@@std@@@std@@@0@0U12@@Z
_TEXT	SEGMENT
__ULast$ = -80						; size = 8
__UFirst$ = -72						; size = 8
$T2 = -64						; size = 4
$T3 = -60						; size = 4
_pModelInstance$ = -56					; size = 4
$T4 = -52						; size = 4
$T5 = -48						; size = 4
$T6 = -44						; size = 4
tv187 = -40						; size = 4
tv192 = -36						; size = 4
$T7 = -32						; size = 4
tv174 = -28						; size = 4
$T8 = -24						; size = 4
tv148 = -20						; size = 4
$T9 = -15						; size = 1
$T10 = -14						; size = 1
$T11 = -13						; size = 1
__$EHRec$ = -12						; size = 12
__First$ = 8						; size = 12
__Last$ = 20						; size = 12
__Func$ = 32						; size = 1
??$for_each@V?$_Deque_iterator@V?$_Deque_val@U?$_Deque_simple_types@PAVCGrannyModelInstance@@@std@@@std@@@std@@UFDestroyDeviceObjects@CGrannyModelInstance@@@std@@YA?AUFDestroyDeviceObjects@CGrannyModelInstance@@V?$_Deque_iterator@V?$_Deque_val@U?$_Deque_simple_types@PAVCGrannyModelInstance@@@std@@@std@@@0@0U12@@Z PROC ; std::for_each<std::_Deque_iterator<std::_Deque_val<std::_Deque_simple_types<CGrannyModelInstance *> > >,CGrannyModelInstance::FDestroyDeviceObjects>, COMDAT

; 303  : _CONSTEXPR20 _Fn for_each(_InIt _First, _InIt _Last, _Fn _Func) { // perform function for each element [_First, _Last)

  00000	55		 push	 ebp
  00001	8b ec		 mov	 ebp, esp
  00003	6a ff		 push	 -1
  00005	68 00 00 00 00	 push	 __ehhandler$??$for_each@V?$_Deque_iterator@V?$_Deque_val@U?$_Deque_simple_types@PAVCGrannyModelInstance@@@std@@@std@@@std@@UFDestroyDeviceObjects@CGrannyModelInstance@@@std@@YA?AUFDestroyDeviceObjects@CGrannyModelInstance@@V?$_Deque_iterator@V?$_Deque_val@U?$_Deque_simple_types@PAVCGrannyModelInstance@@@std@@@std@@@0@0U12@@Z
  0000a	64 a1 00 00 00
	00		 mov	 eax, DWORD PTR fs:0
  00010	50		 push	 eax
  00011	83 ec 44	 sub	 esp, 68			; 00000044H
  00014	a1 00 00 00 00	 mov	 eax, DWORD PTR ___security_cookie
  00019	33 c5		 xor	 eax, ebp
  0001b	50		 push	 eax
  0001c	8d 45 f4	 lea	 eax, DWORD PTR __$EHRec$[ebp]
  0001f	64 a3 00 00 00
	00		 mov	 DWORD PTR fs:0, eax
  00025	c7 45 fc 01 00
	00 00		 mov	 DWORD PTR __$EHRec$[ebp+8], 1
; File C:\Program Files (x86)\Microsoft Visual Studio\2019\Community\VC\Tools\MSVC\14.28.29333\include\deque

; 504  :         return {this->_Myoff, this->_Getcont()};

  0002c	8b 45 10	 mov	 eax, DWORD PTR __First$[ebp+8]
  0002f	89 45 d4	 mov	 DWORD PTR $T6[ebp], eax
  00032	8b 45 c4	 mov	 eax, DWORD PTR $T3[ebp]
  00035	89 45 e8	 mov	 DWORD PTR $T8[ebp], eax
; File C:\Program Files (x86)\Microsoft Visual Studio\2019\Community\VC\Tools\MSVC\14.28.29333\include\xmemory

; 1185 :         return _Myproxy ? _Myproxy->_Mycont : nullptr;

  00038	83 7d 08 00	 cmp	 DWORD PTR __First$[ebp], 0
  0003c	74 0a		 je	 SHORT $LN17@for_each
  0003e	8b 45 08	 mov	 eax, DWORD PTR __First$[ebp]
  00041	8b 00		 mov	 eax, DWORD PTR [eax]
  00043	89 45 ec	 mov	 DWORD PTR tv148[ebp], eax
  00046	eb 04		 jmp	 SHORT $LN18@for_each
$LN17@for_each:
  00048	83 65 ec 00	 and	 DWORD PTR tv148[ebp], 0
$LN18@for_each:
  0004c	8b 45 ec	 mov	 eax, DWORD PTR tv148[ebp]
  0004f	89 45 e8	 mov	 DWORD PTR $T8[ebp], eax
; File C:\Program Files (x86)\Microsoft Visual Studio\2019\Community\VC\Tools\MSVC\14.28.29333\include\deque

; 52   :         : _Mycont(static_cast<const _Mydeque*>(_Pdeque)), _Myoff(_Off) {}

  00052	8b 45 e8	 mov	 eax, DWORD PTR $T8[ebp]
  00055	89 45 b8	 mov	 DWORD PTR __UFirst$[ebp], eax
  00058	8b 45 d4	 mov	 eax, DWORD PTR $T6[ebp]
  0005b	89 45 bc	 mov	 DWORD PTR __UFirst$[ebp+4], eax

; 504  :         return {this->_Myoff, this->_Getcont()};

  0005e	8b 45 1c	 mov	 eax, DWORD PTR __Last$[ebp+8]
  00061	89 45 d0	 mov	 DWORD PTR $T5[ebp], eax
  00064	8b 45 c0	 mov	 eax, DWORD PTR $T2[ebp]
  00067	89 45 e0	 mov	 DWORD PTR $T7[ebp], eax
; File C:\Program Files (x86)\Microsoft Visual Studio\2019\Community\VC\Tools\MSVC\14.28.29333\include\xmemory

; 1185 :         return _Myproxy ? _Myproxy->_Mycont : nullptr;

  0006a	83 7d 14 00	 cmp	 DWORD PTR __Last$[ebp], 0
  0006e	74 0a		 je	 SHORT $LN33@for_each
  00070	8b 45 14	 mov	 eax, DWORD PTR __Last$[ebp]
  00073	8b 00		 mov	 eax, DWORD PTR [eax]
  00075	89 45 e4	 mov	 DWORD PTR tv174[ebp], eax
  00078	eb 04		 jmp	 SHORT $LN34@for_each
$LN33@for_each:
  0007a	83 65 e4 00	 and	 DWORD PTR tv174[ebp], 0
$LN34@for_each:
  0007e	8b 45 e4	 mov	 eax, DWORD PTR tv174[ebp]
  00081	89 45 e0	 mov	 DWORD PTR $T7[ebp], eax
; File C:\Program Files (x86)\Microsoft Visual Studio\2019\Community\VC\Tools\MSVC\14.28.29333\include\deque

; 52   :         : _Mycont(static_cast<const _Mydeque*>(_Pdeque)), _Myoff(_Off) {}

  00084	8b 45 e0	 mov	 eax, DWORD PTR $T7[ebp]
  00087	89 45 b0	 mov	 DWORD PTR __ULast$[ebp], eax
  0008a	8b 45 d0	 mov	 eax, DWORD PTR $T5[ebp]
  0008d	89 45 b4	 mov	 DWORD PTR __ULast$[ebp+4], eax
; File C:\Program Files (x86)\Microsoft Visual Studio\2019\Community\VC\Tools\MSVC\14.28.29333\include\algorithm

; 307  :     for (; _UFirst != _ULast; ++_UFirst) {

  00090	eb 07		 jmp	 SHORT $LN4@for_each
$LN2@for_each:
; File C:\Program Files (x86)\Microsoft Visual Studio\2019\Community\VC\Tools\MSVC\14.28.29333\include\deque

; 65   :         ++_Myoff;

  00092	8b 45 bc	 mov	 eax, DWORD PTR __UFirst$[ebp+4]
  00095	40		 inc	 eax
  00096	89 45 bc	 mov	 DWORD PTR __UFirst$[ebp+4], eax
$LN4@for_each:

; 115  :         return _Myoff == _Right._Myoff;

  00099	8b 45 bc	 mov	 eax, DWORD PTR __UFirst$[ebp+4]
  0009c	3b 45 b4	 cmp	 eax, DWORD PTR __ULast$[ebp+4]
  0009f	75 09		 jne	 SHORT $LN55@for_each
  000a1	c7 45 dc 01 00
	00 00		 mov	 DWORD PTR tv192[ebp], 1
  000a8	eb 04		 jmp	 SHORT $LN56@for_each
$LN55@for_each:
  000aa	83 65 dc 00	 and	 DWORD PTR tv192[ebp], 0
$LN56@for_each:
  000ae	8a 45 dc	 mov	 al, BYTE PTR tv192[ebp]
  000b1	88 45 f3	 mov	 BYTE PTR $T11[ebp], al

; 119  :         return !(*this == _Right);

  000b4	0f b6 45 f3	 movzx	 eax, BYTE PTR $T11[ebp]
  000b8	85 c0		 test	 eax, eax
  000ba	75 09		 jne	 SHORT $LN50@for_each
  000bc	c7 45 d8 01 00
	00 00		 mov	 DWORD PTR tv187[ebp], 1
  000c3	eb 04		 jmp	 SHORT $LN51@for_each
$LN50@for_each:
  000c5	83 65 d8 00	 and	 DWORD PTR tv187[ebp], 0
$LN51@for_each:
  000c9	8a 45 d8	 mov	 al, BYTE PTR tv187[ebp]
  000cc	88 45 f2	 mov	 BYTE PTR $T10[ebp], al
; File C:\Program Files (x86)\Microsoft Visual Studio\2019\Community\VC\Tools\MSVC\14.28.29333\include\algorithm

; 307  :     for (; _UFirst != _ULast; ++_UFirst) {

  000cf	0f b6 45 f2	 movzx	 eax, BYTE PTR $T10[ebp]
  000d3	85 c0		 test	 eax, eax
  000d5	74 1d		 je	 SHORT $LN3@for_each
; File C:\Program Files (x86)\Microsoft Visual Studio\2019\Community\VC\Tools\MSVC\14.28.29333\include\deque

; 171  :         return const_cast<reference>(_Mybase::operator*());

  000d7	8d 4d b8	 lea	 ecx, DWORD PTR __UFirst$[ebp]
  000da	e8 00 00 00 00	 call	 ??D?$_Deque_unchecked_const_iterator@V?$_Deque_val@U?$_Deque_simple_types@PAVCGrannyModelInstance@@@std@@@std@@@std@@QBEABQAVCGrannyModelInstance@@XZ ; std::_Deque_unchecked_const_iterator<std::_Deque_val<std::_Deque_simple_types<CGrannyModelInstance *> > >::operator*
  000df	89 45 cc	 mov	 DWORD PTR $T4[ebp], eax
; File C:\Program Files (x86)\Microsoft Visual Studio\2019\Community\VC\Tools\MSVC\14.28.29333\include\algorithm

; 308  :         _Func(*_UFirst);

  000e2	8b 45 cc	 mov	 eax, DWORD PTR $T4[ebp]
  000e5	8b 00		 mov	 eax, DWORD PTR [eax]
  000e7	89 45 c8	 mov	 DWORD PTR _pModelInstance$[ebp], eax
; File D:\Metin2 Server Files\mainline\SRC_2014\Metin2Client\eterGrnLib\ModelInstance.h

; 36   : 			{pModelInstance->DestroyDeviceObjects();}

  000ea	8b 4d c8	 mov	 ecx, DWORD PTR _pModelInstance$[ebp]
  000ed	e8 00 00 00 00	 call	 ?DestroyDeviceObjects@CGrannyModelInstance@@QAEXXZ ; CGrannyModelInstance::DestroyDeviceObjects
; File C:\Program Files (x86)\Microsoft Visual Studio\2019\Community\VC\Tools\MSVC\14.28.29333\include\algorithm

; 309  :     }

  000f2	eb 9e		 jmp	 SHORT $LN2@for_each
$LN3@for_each:

; 310  : 
; 311  :     return _Func;

  000f4	8a 45 20	 mov	 al, BYTE PTR __Func$[ebp]
  000f7	88 45 f1	 mov	 BYTE PTR $T9[ebp], al
  000fa	c6 45 fc 00	 mov	 BYTE PTR __$EHRec$[ebp+8], 0
  000fe	83 4d fc ff	 or	 DWORD PTR __$EHRec$[ebp+8], -1
  00102	8a 45 f1	 mov	 al, BYTE PTR $T9[ebp]

; 312  : }

  00105	8b 4d f4	 mov	 ecx, DWORD PTR __$EHRec$[ebp]
  00108	64 89 0d 00 00
	00 00		 mov	 DWORD PTR fs:0, ecx
  0010f	59		 pop	 ecx
  00110	c9		 leave
  00111	c3		 ret	 0
_TEXT	ENDS
;	COMDAT text$x
text$x	SEGMENT
__unwindfunclet$??$for_each@V?$_Deque_iterator@V?$_Deque_val@U?$_Deque_simple_types@PAVCGrannyModelInstance@@@std@@@std@@@std@@UFDestroyDeviceObjects@CGrannyModelInstance@@@std@@YA?AUFDestroyDeviceObjects@CGrannyModelInstance@@V?$_Deque_iterator@V?$_Deque_val@U?$_Deque_simple_types@PAVCGrannyModelInstance@@@std@@@std@@@0@0U12@@Z$0:
  00000	8d 4d 14	 lea	 ecx, DWORD PTR __Last$[ebp]
  00003	e9 00 00 00 00	 jmp	 ??1?$_Deque_iterator@V?$_Deque_val@U?$_Deque_simple_types@PAVCGrannyModelInstance@@@std@@@std@@@std@@QAE@XZ
__unwindfunclet$??$for_each@V?$_Deque_iterator@V?$_Deque_val@U?$_Deque_simple_types@PAVCGrannyModelInstance@@@std@@@std@@@std@@UFDestroyDeviceObjects@CGrannyModelInstance@@@std@@YA?AUFDestroyDeviceObjects@CGrannyModelInstance@@V?$_Deque_iterator@V?$_Deque_val@U?$_Deque_simple_types@PAVCGrannyModelInstance@@@std@@@std@@@0@0U12@@Z$1:
  00008	8d 4d 08	 lea	 ecx, DWORD PTR __First$[ebp]
  0000b	e9 00 00 00 00	 jmp	 ??1?$_Deque_iterator@V?$_Deque_val@U?$_Deque_simple_types@PAVCGrannyModelInstance@@@std@@@std@@@std@@QAE@XZ
  00010	cc		 int	 3
  00011	cc		 int	 3
  00012	cc		 int	 3
  00013	cc		 int	 3
  00014	cc		 int	 3
__ehhandler$??$for_each@V?$_Deque_iterator@V?$_Deque_val@U?$_Deque_simple_types@PAVCGrannyModelInstance@@@std@@@std@@@std@@UFDestroyDeviceObjects@CGrannyModelInstance@@@std@@YA?AUFDestroyDeviceObjects@CGrannyModelInstance@@V?$_Deque_iterator@V?$_Deque_val@U?$_Deque_simple_types@PAVCGrannyModelInstance@@@std@@@std@@@0@0U12@@Z:
  00015	90		 npad	 1
  00016	90		 npad	 1
  00017	8b 54 24 08	 mov	 edx, DWORD PTR [esp+8]
  0001b	8d 42 0c	 lea	 eax, DWORD PTR [edx+12]
  0001e	8b 4a b8	 mov	 ecx, DWORD PTR [edx-72]
  00021	33 c8		 xor	 ecx, eax
  00023	e8 00 00 00 00	 call	 @__security_check_cookie@4
  00028	b8 00 00 00 00	 mov	 eax, OFFSET __ehfuncinfo$??$for_each@V?$_Deque_iterator@V?$_Deque_val@U?$_Deque_simple_types@PAVCGrannyModelInstance@@@std@@@std@@@std@@UFDestroyDeviceObjects@CGrannyModelInstance@@@std@@YA?AUFDestroyDeviceObjects@CGrannyModelInstance@@V?$_Deque_iterator@V?$_Deque_val@U?$_Deque_simple_types@PAVCGrannyModelInstance@@@std@@@std@@@0@0U12@@Z
  0002d	e9 00 00 00 00	 jmp	 ___CxxFrameHandler3
text$x	ENDS
??$for_each@V?$_Deque_iterator@V?$_Deque_val@U?$_Deque_simple_types@PAVCGrannyModelInstance@@@std@@@std@@@std@@UFDestroyDeviceObjects@CGrannyModelInstance@@@std@@YA?AUFDestroyDeviceObjects@CGrannyModelInstance@@V?$_Deque_iterator@V?$_Deque_val@U?$_Deque_simple_types@PAVCGrannyModelInstance@@@std@@@std@@@0@0U12@@Z ENDP ; std::for_each<std::_Deque_iterator<std::_Deque_val<std::_Deque_simple_types<CGrannyModelInstance *> > >,CGrannyModelInstance::FDestroyDeviceObjects>
; Function compile flags: /Odspy
; File C:\Program Files (x86)\Microsoft Visual Studio\2019\Community\VC\Tools\MSVC\14.28.29333\include\algorithm
; File C:\Program Files (x86)\Microsoft Visual Studio\2019\Community\VC\Tools\MSVC\14.28.29333\include\deque
; File C:\Program Files (x86)\Microsoft Visual Studio\2019\Community\VC\Tools\MSVC\14.28.29333\include\xmemory
; File C:\Program Files (x86)\Microsoft Visual Studio\2019\Community\VC\Tools\MSVC\14.28.29333\include\deque
; File C:\Program Files (x86)\Microsoft Visual Studio\2019\Community\VC\Tools\MSVC\14.28.29333\include\xmemory
; File C:\Program Files (x86)\Microsoft Visual Studio\2019\Community\VC\Tools\MSVC\14.28.29333\include\deque
; File C:\Program Files (x86)\Microsoft Visual Studio\2019\Community\VC\Tools\MSVC\14.28.29333\include\algorithm
; File C:\Program Files (x86)\Microsoft Visual Studio\2019\Community\VC\Tools\MSVC\14.28.29333\include\deque
; File C:\Program Files (x86)\Microsoft Visual Studio\2019\Community\VC\Tools\MSVC\14.28.29333\include\algorithm
; File C:\Program Files (x86)\Microsoft Visual Studio\2019\Community\VC\Tools\MSVC\14.28.29333\include\deque
; File C:\Program Files (x86)\Microsoft Visual Studio\2019\Community\VC\Tools\MSVC\14.28.29333\include\algorithm
; File D:\Metin2 Server Files\mainline\SRC_2014\Metin2Client\eterGrnLib\ModelInstance.h
; File C:\Program Files (x86)\Microsoft Visual Studio\2019\Community\VC\Tools\MSVC\14.28.29333\include\algorithm
;	COMDAT ??$for_each@V?$_Deque_iterator@V?$_Deque_val@U?$_Deque_simple_types@PAVCGrannyModelInstance@@@std@@@std@@@std@@UFCreateDeviceObjects@CGrannyModelInstance@@@std@@YA?AUFCreateDeviceObjects@CGrannyModelInstance@@V?$_Deque_iterator@V?$_Deque_val@U?$_Deque_simple_types@PAVCGrannyModelInstance@@@std@@@std@@@0@0U12@@Z
_TEXT	SEGMENT
__ULast$ = -80						; size = 8
__UFirst$ = -72						; size = 8
$T2 = -64						; size = 4
$T3 = -60						; size = 4
_pModelInstance$ = -56					; size = 4
$T4 = -52						; size = 4
$T5 = -48						; size = 4
$T6 = -44						; size = 4
tv187 = -40						; size = 4
tv192 = -36						; size = 4
$T7 = -32						; size = 4
tv174 = -28						; size = 4
$T8 = -24						; size = 4
tv148 = -20						; size = 4
$T9 = -15						; size = 1
$T10 = -14						; size = 1
$T11 = -13						; size = 1
__$EHRec$ = -12						; size = 12
__First$ = 8						; size = 12
__Last$ = 20						; size = 12
__Func$ = 32						; size = 1
??$for_each@V?$_Deque_iterator@V?$_Deque_val@U?$_Deque_simple_types@PAVCGrannyModelInstance@@@std@@@std@@@std@@UFCreateDeviceObjects@CGrannyModelInstance@@@std@@YA?AUFCreateDeviceObjects@CGrannyModelInstance@@V?$_Deque_iterator@V?$_Deque_val@U?$_Deque_simple_types@PAVCGrannyModelInstance@@@std@@@std@@@0@0U12@@Z PROC ; std::for_each<std::_Deque_iterator<std::_Deque_val<std::_Deque_simple_types<CGrannyModelInstance *> > >,CGrannyModelInstance::FCreateDeviceObjects>, COMDAT

; 303  : _CONSTEXPR20 _Fn for_each(_InIt _First, _InIt _Last, _Fn _Func) { // perform function for each element [_First, _Last)

  00000	55		 push	 ebp
  00001	8b ec		 mov	 ebp, esp
  00003	6a ff		 push	 -1
  00005	68 00 00 00 00	 push	 __ehhandler$??$for_each@V?$_Deque_iterator@V?$_Deque_val@U?$_Deque_simple_types@PAVCGrannyModelInstance@@@std@@@std@@@std@@UFCreateDeviceObjects@CGrannyModelInstance@@@std@@YA?AUFCreateDeviceObjects@CGrannyModelInstance@@V?$_Deque_iterator@V?$_Deque_val@U?$_Deque_simple_types@PAVCGrannyModelInstance@@@std@@@std@@@0@0U12@@Z
  0000a	64 a1 00 00 00
	00		 mov	 eax, DWORD PTR fs:0
  00010	50		 push	 eax
  00011	83 ec 44	 sub	 esp, 68			; 00000044H
  00014	a1 00 00 00 00	 mov	 eax, DWORD PTR ___security_cookie
  00019	33 c5		 xor	 eax, ebp
  0001b	50		 push	 eax
  0001c	8d 45 f4	 lea	 eax, DWORD PTR __$EHRec$[ebp]
  0001f	64 a3 00 00 00
	00		 mov	 DWORD PTR fs:0, eax
  00025	c7 45 fc 01 00
	00 00		 mov	 DWORD PTR __$EHRec$[ebp+8], 1
; File C:\Program Files (x86)\Microsoft Visual Studio\2019\Community\VC\Tools\MSVC\14.28.29333\include\deque

; 504  :         return {this->_Myoff, this->_Getcont()};

  0002c	8b 45 10	 mov	 eax, DWORD PTR __First$[ebp+8]
  0002f	89 45 d4	 mov	 DWORD PTR $T6[ebp], eax
  00032	8b 45 c4	 mov	 eax, DWORD PTR $T3[ebp]
  00035	89 45 e8	 mov	 DWORD PTR $T8[ebp], eax
; File C:\Program Files (x86)\Microsoft Visual Studio\2019\Community\VC\Tools\MSVC\14.28.29333\include\xmemory

; 1185 :         return _Myproxy ? _Myproxy->_Mycont : nullptr;

  00038	83 7d 08 00	 cmp	 DWORD PTR __First$[ebp], 0
  0003c	74 0a		 je	 SHORT $LN17@for_each
  0003e	8b 45 08	 mov	 eax, DWORD PTR __First$[ebp]
  00041	8b 00		 mov	 eax, DWORD PTR [eax]
  00043	89 45 ec	 mov	 DWORD PTR tv148[ebp], eax
  00046	eb 04		 jmp	 SHORT $LN18@for_each
$LN17@for_each:
  00048	83 65 ec 00	 and	 DWORD PTR tv148[ebp], 0
$LN18@for_each:
  0004c	8b 45 ec	 mov	 eax, DWORD PTR tv148[ebp]
  0004f	89 45 e8	 mov	 DWORD PTR $T8[ebp], eax
; File C:\Program Files (x86)\Microsoft Visual Studio\2019\Community\VC\Tools\MSVC\14.28.29333\include\deque

; 52   :         : _Mycont(static_cast<const _Mydeque*>(_Pdeque)), _Myoff(_Off) {}

  00052	8b 45 e8	 mov	 eax, DWORD PTR $T8[ebp]
  00055	89 45 b8	 mov	 DWORD PTR __UFirst$[ebp], eax
  00058	8b 45 d4	 mov	 eax, DWORD PTR $T6[ebp]
  0005b	89 45 bc	 mov	 DWORD PTR __UFirst$[ebp+4], eax

; 504  :         return {this->_Myoff, this->_Getcont()};

  0005e	8b 45 1c	 mov	 eax, DWORD PTR __Last$[ebp+8]
  00061	89 45 d0	 mov	 DWORD PTR $T5[ebp], eax
  00064	8b 45 c0	 mov	 eax, DWORD PTR $T2[ebp]
  00067	89 45 e0	 mov	 DWORD PTR $T7[ebp], eax
; File C:\Program Files (x86)\Microsoft Visual Studio\2019\Community\VC\Tools\MSVC\14.28.29333\include\xmemory

; 1185 :         return _Myproxy ? _Myproxy->_Mycont : nullptr;

  0006a	83 7d 14 00	 cmp	 DWORD PTR __Last$[ebp], 0
  0006e	74 0a		 je	 SHORT $LN33@for_each
  00070	8b 45 14	 mov	 eax, DWORD PTR __Last$[ebp]
  00073	8b 00		 mov	 eax, DWORD PTR [eax]
  00075	89 45 e4	 mov	 DWORD PTR tv174[ebp], eax
  00078	eb 04		 jmp	 SHORT $LN34@for_each
$LN33@for_each:
  0007a	83 65 e4 00	 and	 DWORD PTR tv174[ebp], 0
$LN34@for_each:
  0007e	8b 45 e4	 mov	 eax, DWORD PTR tv174[ebp]
  00081	89 45 e0	 mov	 DWORD PTR $T7[ebp], eax
; File C:\Program Files (x86)\Microsoft Visual Studio\2019\Community\VC\Tools\MSVC\14.28.29333\include\deque

; 52   :         : _Mycont(static_cast<const _Mydeque*>(_Pdeque)), _Myoff(_Off) {}

  00084	8b 45 e0	 mov	 eax, DWORD PTR $T7[ebp]
  00087	89 45 b0	 mov	 DWORD PTR __ULast$[ebp], eax
  0008a	8b 45 d0	 mov	 eax, DWORD PTR $T5[ebp]
  0008d	89 45 b4	 mov	 DWORD PTR __ULast$[ebp+4], eax
; File C:\Program Files (x86)\Microsoft Visual Studio\2019\Community\VC\Tools\MSVC\14.28.29333\include\algorithm

; 307  :     for (; _UFirst != _ULast; ++_UFirst) {

  00090	eb 07		 jmp	 SHORT $LN4@for_each
$LN2@for_each:
; File C:\Program Files (x86)\Microsoft Visual Studio\2019\Community\VC\Tools\MSVC\14.28.29333\include\deque

; 65   :         ++_Myoff;

  00092	8b 45 bc	 mov	 eax, DWORD PTR __UFirst$[ebp+4]
  00095	40		 inc	 eax
  00096	89 45 bc	 mov	 DWORD PTR __UFirst$[ebp+4], eax
$LN4@for_each:

; 115  :         return _Myoff == _Right._Myoff;

  00099	8b 45 bc	 mov	 eax, DWORD PTR __UFirst$[ebp+4]
  0009c	3b 45 b4	 cmp	 eax, DWORD PTR __ULast$[ebp+4]
  0009f	75 09		 jne	 SHORT $LN55@for_each
  000a1	c7 45 dc 01 00
	00 00		 mov	 DWORD PTR tv192[ebp], 1
  000a8	eb 04		 jmp	 SHORT $LN56@for_each
$LN55@for_each:
  000aa	83 65 dc 00	 and	 DWORD PTR tv192[ebp], 0
$LN56@for_each:
  000ae	8a 45 dc	 mov	 al, BYTE PTR tv192[ebp]
  000b1	88 45 f3	 mov	 BYTE PTR $T11[ebp], al

; 119  :         return !(*this == _Right);

  000b4	0f b6 45 f3	 movzx	 eax, BYTE PTR $T11[ebp]
  000b8	85 c0		 test	 eax, eax
  000ba	75 09		 jne	 SHORT $LN50@for_each
  000bc	c7 45 d8 01 00
	00 00		 mov	 DWORD PTR tv187[ebp], 1
  000c3	eb 04		 jmp	 SHORT $LN51@for_each
$LN50@for_each:
  000c5	83 65 d8 00	 and	 DWORD PTR tv187[ebp], 0
$LN51@for_each:
  000c9	8a 45 d8	 mov	 al, BYTE PTR tv187[ebp]
  000cc	88 45 f2	 mov	 BYTE PTR $T10[ebp], al
; File C:\Program Files (x86)\Microsoft Visual Studio\2019\Community\VC\Tools\MSVC\14.28.29333\include\algorithm

; 307  :     for (; _UFirst != _ULast; ++_UFirst) {

  000cf	0f b6 45 f2	 movzx	 eax, BYTE PTR $T10[ebp]
  000d3	85 c0		 test	 eax, eax
  000d5	74 1d		 je	 SHORT $LN3@for_each
; File C:\Program Files (x86)\Microsoft Visual Studio\2019\Community\VC\Tools\MSVC\14.28.29333\include\deque

; 171  :         return const_cast<reference>(_Mybase::operator*());

  000d7	8d 4d b8	 lea	 ecx, DWORD PTR __UFirst$[ebp]
  000da	e8 00 00 00 00	 call	 ??D?$_Deque_unchecked_const_iterator@V?$_Deque_val@U?$_Deque_simple_types@PAVCGrannyModelInstance@@@std@@@std@@@std@@QBEABQAVCGrannyModelInstance@@XZ ; std::_Deque_unchecked_const_iterator<std::_Deque_val<std::_Deque_simple_types<CGrannyModelInstance *> > >::operator*
  000df	89 45 cc	 mov	 DWORD PTR $T4[ebp], eax
; File C:\Program Files (x86)\Microsoft Visual Studio\2019\Community\VC\Tools\MSVC\14.28.29333\include\algorithm

; 308  :         _Func(*_UFirst);

  000e2	8b 45 cc	 mov	 eax, DWORD PTR $T4[ebp]
  000e5	8b 00		 mov	 eax, DWORD PTR [eax]
  000e7	89 45 c8	 mov	 DWORD PTR _pModelInstance$[ebp], eax
; File D:\Metin2 Server Files\mainline\SRC_2014\Metin2Client\eterGrnLib\ModelInstance.h

; 30   : 			{pModelInstance->CreateDeviceObjects();}

  000ea	8b 4d c8	 mov	 ecx, DWORD PTR _pModelInstance$[ebp]
  000ed	e8 00 00 00 00	 call	 ?CreateDeviceObjects@CGrannyModelInstance@@QAE_NXZ ; CGrannyModelInstance::CreateDeviceObjects
; File C:\Program Files (x86)\Microsoft Visual Studio\2019\Community\VC\Tools\MSVC\14.28.29333\include\algorithm

; 309  :     }

  000f2	eb 9e		 jmp	 SHORT $LN2@for_each
$LN3@for_each:

; 310  : 
; 311  :     return _Func;

  000f4	8a 45 20	 mov	 al, BYTE PTR __Func$[ebp]
  000f7	88 45 f1	 mov	 BYTE PTR $T9[ebp], al
  000fa	c6 45 fc 00	 mov	 BYTE PTR __$EHRec$[ebp+8], 0
  000fe	83 4d fc ff	 or	 DWORD PTR __$EHRec$[ebp+8], -1
  00102	8a 45 f1	 mov	 al, BYTE PTR $T9[ebp]

; 312  : }

  00105	8b 4d f4	 mov	 ecx, DWORD PTR __$EHRec$[ebp]
  00108	64 89 0d 00 00
	00 00		 mov	 DWORD PTR fs:0, ecx
  0010f	59		 pop	 ecx
  00110	c9		 leave
  00111	c3		 ret	 0
_TEXT	ENDS
;	COMDAT text$x
text$x	SEGMENT
__unwindfunclet$??$for_each@V?$_Deque_iterator@V?$_Deque_val@U?$_Deque_simple_types@PAVCGrannyModelInstance@@@std@@@std@@@std@@UFCreateDeviceObjects@CGrannyModelInstance@@@std@@YA?AUFCreateDeviceObjects@CGrannyModelInstance@@V?$_Deque_iterator@V?$_Deque_val@U?$_Deque_simple_types@PAVCGrannyModelInstance@@@std@@@std@@@0@0U12@@Z$0:
  00000	8d 4d 14	 lea	 ecx, DWORD PTR __Last$[ebp]
  00003	e9 00 00 00 00	 jmp	 ??1?$_Deque_iterator@V?$_Deque_val@U?$_Deque_simple_types@PAVCGrannyModelInstance@@@std@@@std@@@std@@QAE@XZ
__unwindfunclet$??$for_each@V?$_Deque_iterator@V?$_Deque_val@U?$_Deque_simple_types@PAVCGrannyModelInstance@@@std@@@std@@@std@@UFCreateDeviceObjects@CGrannyModelInstance@@@std@@YA?AUFCreateDeviceObjects@CGrannyModelInstance@@V?$_Deque_iterator@V?$_Deque_val@U?$_Deque_simple_types@PAVCGrannyModelInstance@@@std@@@std@@@0@0U12@@Z$1:
  00008	8d 4d 08	 lea	 ecx, DWORD PTR __First$[ebp]
  0000b	e9 00 00 00 00	 jmp	 ??1?$_Deque_iterator@V?$_Deque_val@U?$_Deque_simple_types@PAVCGrannyModelInstance@@@std@@@std@@@std@@QAE@XZ
  00010	cc		 int	 3
  00011	cc		 int	 3
  00012	cc		 int	 3
  00013	cc		 int	 3
  00014	cc		 int	 3
__ehhandler$??$for_each@V?$_Deque_iterator@V?$_Deque_val@U?$_Deque_simple_types@PAVCGrannyModelInstance@@@std@@@std@@@std@@UFCreateDeviceObjects@CGrannyModelInstance@@@std@@YA?AUFCreateDeviceObjects@CGrannyModelInstance@@V?$_Deque_iterator@V?$_Deque_val@U?$_Deque_simple_types@PAVCGrannyModelInstance@@@std@@@std@@@0@0U12@@Z:
  00015	90		 npad	 1
  00016	90		 npad	 1
  00017	8b 54 24 08	 mov	 edx, DWORD PTR [esp+8]
  0001b	8d 42 0c	 lea	 eax, DWORD PTR [edx+12]
  0001e	8b 4a b8	 mov	 ecx, DWORD PTR [edx-72]
  00021	33 c8		 xor	 ecx, eax
  00023	e8 00 00 00 00	 call	 @__security_check_cookie@4
  00028	b8 00 00 00 00	 mov	 eax, OFFSET __ehfuncinfo$??$for_each@V?$_Deque_iterator@V?$_Deque_val@U?$_Deque_simple_types@PAVCGrannyModelInstance@@@std@@@std@@@std@@UFCreateDeviceObjects@CGrannyModelInstance@@@std@@YA?AUFCreateDeviceObjects@CGrannyModelInstance@@V?$_Deque_iterator@V?$_Deque_val@U?$_Deque_simple_types@PAVCGrannyModelInstance@@@std@@@std@@@0@0U12@@Z
  0002d	e9 00 00 00 00	 jmp	 ___CxxFrameHandler3
text$x	ENDS
??$for_each@V?$_Deque_iterator@V?$_Deque_val@U?$_Deque_simple_types@PAVCGrannyModelInstance@@@std@@@std@@@std@@UFCreateDeviceObjects@CGrannyModelInstance@@@std@@YA?AUFCreateDeviceObjects@CGrannyModelInstance@@V?$_Deque_iterator@V?$_Deque_val@U?$_Deque_simple_types@PAVCGrannyModelInstance@@@std@@@std@@@0@0U12@@Z ENDP ; std::for_each<std::_Deque_iterator<std::_Deque_val<std::_Deque_simple_types<CGrannyModelInstance *> > >,CGrannyModelInstance::FCreateDeviceObjects>
; Function compile flags: /Odspy
; File C:\Program Files (x86)\Microsoft Visual Studio\2019\Community\VC\Tools\MSVC\14.28.29333\include\algorithm
; File C:\Program Files (x86)\Microsoft Visual Studio\2019\Community\VC\Tools\MSVC\14.28.29333\include\deque
; File C:\Program Files (x86)\Microsoft Visual Studio\2019\Community\VC\Tools\MSVC\14.28.29333\include\xmemory
; File C:\Program Files (x86)\Microsoft Visual Studio\2019\Community\VC\Tools\MSVC\14.28.29333\include\deque
; File C:\Program Files (x86)\Microsoft Visual Studio\2019\Community\VC\Tools\MSVC\14.28.29333\include\xmemory
; File C:\Program Files (x86)\Microsoft Visual Studio\2019\Community\VC\Tools\MSVC\14.28.29333\include\deque
; File C:\Program Files (x86)\Microsoft Visual Studio\2019\Community\VC\Tools\MSVC\14.28.29333\include\algorithm
; File C:\Program Files (x86)\Microsoft Visual Studio\2019\Community\VC\Tools\MSVC\14.28.29333\include\deque
; File C:\Program Files (x86)\Microsoft Visual Studio\2019\Community\VC\Tools\MSVC\14.28.29333\include\algorithm
; File C:\Program Files (x86)\Microsoft Visual Studio\2019\Community\VC\Tools\MSVC\14.28.29333\include\deque
; File C:\Program Files (x86)\Microsoft Visual Studio\2019\Community\VC\Tools\MSVC\14.28.29333\include\algorithm
;	COMDAT ??$for_each@V?$_Deque_iterator@V?$_Deque_val@U?$_Deque_simple_types@PAVCGrannyModelInstance@@@std@@@std@@@std@@P6AXPAVCGrannyModelInstance@@@Z@std@@YAP6AXPAVCGrannyModelInstance@@@ZV?$_Deque_iterator@V?$_Deque_val@U?$_Deque_simple_types@PAVCGrannyModelInstance@@@std@@@std@@@0@1P6AX0@Z@Z
_TEXT	SEGMENT
__ULast$ = -80						; size = 8
__UFirst$ = -72						; size = 8
$T2 = -64						; size = 4
$T3 = -60						; size = 4
$T4 = -56						; size = 4
$T5 = -52						; size = 4
$T6 = -48						; size = 4
$T7 = -44						; size = 4
tv186 = -40						; size = 4
tv191 = -36						; size = 4
$T8 = -32						; size = 4
tv173 = -28						; size = 4
$T9 = -24						; size = 4
tv147 = -20						; size = 4
$T10 = -14						; size = 1
$T11 = -13						; size = 1
__$EHRec$ = -12						; size = 12
__First$ = 8						; size = 12
__Last$ = 20						; size = 12
__Func$ = 32						; size = 4
??$for_each@V?$_Deque_iterator@V?$_Deque_val@U?$_Deque_simple_types@PAVCGrannyModelInstance@@@std@@@std@@@std@@P6AXPAVCGrannyModelInstance@@@Z@std@@YAP6AXPAVCGrannyModelInstance@@@ZV?$_Deque_iterator@V?$_Deque_val@U?$_Deque_simple_types@PAVCGrannyModelInstance@@@std@@@std@@@0@1P6AX0@Z@Z PROC ; std::for_each<std::_Deque_iterator<std::_Deque_val<std::_Deque_simple_types<CGrannyModelInstance *> > >,void (__cdecl*)(CGrannyModelInstance *)>, COMDAT

; 303  : _CONSTEXPR20 _Fn for_each(_InIt _First, _InIt _Last, _Fn _Func) { // perform function for each element [_First, _Last)

  00000	55		 push	 ebp
  00001	8b ec		 mov	 ebp, esp
  00003	6a ff		 push	 -1
  00005	68 00 00 00 00	 push	 __ehhandler$??$for_each@V?$_Deque_iterator@V?$_Deque_val@U?$_Deque_simple_types@PAVCGrannyModelInstance@@@std@@@std@@@std@@P6AXPAVCGrannyModelInstance@@@Z@std@@YAP6AXPAVCGrannyModelInstance@@@ZV?$_Deque_iterator@V?$_Deque_val@U?$_Deque_simple_types@PAVCGrannyModelInstance@@@std@@@std@@@0@1P6AX0@Z@Z
  0000a	64 a1 00 00 00
	00		 mov	 eax, DWORD PTR fs:0
  00010	50		 push	 eax
  00011	83 ec 44	 sub	 esp, 68			; 00000044H
  00014	a1 00 00 00 00	 mov	 eax, DWORD PTR ___security_cookie
  00019	33 c5		 xor	 eax, ebp
  0001b	50		 push	 eax
  0001c	8d 45 f4	 lea	 eax, DWORD PTR __$EHRec$[ebp]
  0001f	64 a3 00 00 00
	00		 mov	 DWORD PTR fs:0, eax
  00025	c7 45 fc 01 00
	00 00		 mov	 DWORD PTR __$EHRec$[ebp+8], 1
; File C:\Program Files (x86)\Microsoft Visual Studio\2019\Community\VC\Tools\MSVC\14.28.29333\include\deque

; 504  :         return {this->_Myoff, this->_Getcont()};

  0002c	8b 45 10	 mov	 eax, DWORD PTR __First$[ebp+8]
  0002f	89 45 d4	 mov	 DWORD PTR $T7[ebp], eax
  00032	8b 45 c4	 mov	 eax, DWORD PTR $T3[ebp]
  00035	89 45 e8	 mov	 DWORD PTR $T9[ebp], eax
; File C:\Program Files (x86)\Microsoft Visual Studio\2019\Community\VC\Tools\MSVC\14.28.29333\include\xmemory

; 1185 :         return _Myproxy ? _Myproxy->_Mycont : nullptr;

  00038	83 7d 08 00	 cmp	 DWORD PTR __First$[ebp], 0
  0003c	74 0a		 je	 SHORT $LN17@for_each
  0003e	8b 45 08	 mov	 eax, DWORD PTR __First$[ebp]
  00041	8b 00		 mov	 eax, DWORD PTR [eax]
  00043	89 45 ec	 mov	 DWORD PTR tv147[ebp], eax
  00046	eb 04		 jmp	 SHORT $LN18@for_each
$LN17@for_each:
  00048	83 65 ec 00	 and	 DWORD PTR tv147[ebp], 0
$LN18@for_each:
  0004c	8b 45 ec	 mov	 eax, DWORD PTR tv147[ebp]
  0004f	89 45 e8	 mov	 DWORD PTR $T9[ebp], eax
; File C:\Program Files (x86)\Microsoft Visual Studio\2019\Community\VC\Tools\MSVC\14.28.29333\include\deque

; 52   :         : _Mycont(static_cast<const _Mydeque*>(_Pdeque)), _Myoff(_Off) {}

  00052	8b 45 e8	 mov	 eax, DWORD PTR $T9[ebp]
  00055	89 45 b8	 mov	 DWORD PTR __UFirst$[ebp], eax
  00058	8b 45 d4	 mov	 eax, DWORD PTR $T7[ebp]
  0005b	89 45 bc	 mov	 DWORD PTR __UFirst$[ebp+4], eax

; 504  :         return {this->_Myoff, this->_Getcont()};

  0005e	8b 45 1c	 mov	 eax, DWORD PTR __Last$[ebp+8]
  00061	89 45 d0	 mov	 DWORD PTR $T6[ebp], eax
  00064	8b 45 c0	 mov	 eax, DWORD PTR $T2[ebp]
  00067	89 45 e0	 mov	 DWORD PTR $T8[ebp], eax
; File C:\Program Files (x86)\Microsoft Visual Studio\2019\Community\VC\Tools\MSVC\14.28.29333\include\xmemory

; 1185 :         return _Myproxy ? _Myproxy->_Mycont : nullptr;

  0006a	83 7d 14 00	 cmp	 DWORD PTR __Last$[ebp], 0
  0006e	74 0a		 je	 SHORT $LN33@for_each
  00070	8b 45 14	 mov	 eax, DWORD PTR __Last$[ebp]
  00073	8b 00		 mov	 eax, DWORD PTR [eax]
  00075	89 45 e4	 mov	 DWORD PTR tv173[ebp], eax
  00078	eb 04		 jmp	 SHORT $LN34@for_each
$LN33@for_each:
  0007a	83 65 e4 00	 and	 DWORD PTR tv173[ebp], 0
$LN34@for_each:
  0007e	8b 45 e4	 mov	 eax, DWORD PTR tv173[ebp]
  00081	89 45 e0	 mov	 DWORD PTR $T8[ebp], eax
; File C:\Program Files (x86)\Microsoft Visual Studio\2019\Community\VC\Tools\MSVC\14.28.29333\include\deque

; 52   :         : _Mycont(static_cast<const _Mydeque*>(_Pdeque)), _Myoff(_Off) {}

  00084	8b 45 e0	 mov	 eax, DWORD PTR $T8[ebp]
  00087	89 45 b0	 mov	 DWORD PTR __ULast$[ebp], eax
  0008a	8b 45 d0	 mov	 eax, DWORD PTR $T6[ebp]
  0008d	89 45 b4	 mov	 DWORD PTR __ULast$[ebp+4], eax
; File C:\Program Files (x86)\Microsoft Visual Studio\2019\Community\VC\Tools\MSVC\14.28.29333\include\algorithm

; 307  :     for (; _UFirst != _ULast; ++_UFirst) {

  00090	eb 07		 jmp	 SHORT $LN4@for_each
$LN2@for_each:
; File C:\Program Files (x86)\Microsoft Visual Studio\2019\Community\VC\Tools\MSVC\14.28.29333\include\deque

; 65   :         ++_Myoff;

  00092	8b 45 bc	 mov	 eax, DWORD PTR __UFirst$[ebp+4]
  00095	40		 inc	 eax
  00096	89 45 bc	 mov	 DWORD PTR __UFirst$[ebp+4], eax
$LN4@for_each:

; 115  :         return _Myoff == _Right._Myoff;

  00099	8b 45 bc	 mov	 eax, DWORD PTR __UFirst$[ebp+4]
  0009c	3b 45 b4	 cmp	 eax, DWORD PTR __ULast$[ebp+4]
  0009f	75 09		 jne	 SHORT $LN55@for_each
  000a1	c7 45 dc 01 00
	00 00		 mov	 DWORD PTR tv191[ebp], 1
  000a8	eb 04		 jmp	 SHORT $LN56@for_each
$LN55@for_each:
  000aa	83 65 dc 00	 and	 DWORD PTR tv191[ebp], 0
$LN56@for_each:
  000ae	8a 45 dc	 mov	 al, BYTE PTR tv191[ebp]
  000b1	88 45 f3	 mov	 BYTE PTR $T11[ebp], al

; 119  :         return !(*this == _Right);

  000b4	0f b6 45 f3	 movzx	 eax, BYTE PTR $T11[ebp]
  000b8	85 c0		 test	 eax, eax
  000ba	75 09		 jne	 SHORT $LN50@for_each
  000bc	c7 45 d8 01 00
	00 00		 mov	 DWORD PTR tv186[ebp], 1
  000c3	eb 04		 jmp	 SHORT $LN51@for_each
$LN50@for_each:
  000c5	83 65 d8 00	 and	 DWORD PTR tv186[ebp], 0
$LN51@for_each:
  000c9	8a 45 d8	 mov	 al, BYTE PTR tv186[ebp]
  000cc	88 45 f2	 mov	 BYTE PTR $T10[ebp], al
; File C:\Program Files (x86)\Microsoft Visual Studio\2019\Community\VC\Tools\MSVC\14.28.29333\include\algorithm

; 307  :     for (; _UFirst != _ULast; ++_UFirst) {

  000cf	0f b6 45 f2	 movzx	 eax, BYTE PTR $T10[ebp]
  000d3	85 c0		 test	 eax, eax
  000d5	74 16		 je	 SHORT $LN3@for_each
; File C:\Program Files (x86)\Microsoft Visual Studio\2019\Community\VC\Tools\MSVC\14.28.29333\include\deque

; 171  :         return const_cast<reference>(_Mybase::operator*());

  000d7	8d 4d b8	 lea	 ecx, DWORD PTR __UFirst$[ebp]
  000da	e8 00 00 00 00	 call	 ??D?$_Deque_unchecked_const_iterator@V?$_Deque_val@U?$_Deque_simple_types@PAVCGrannyModelInstance@@@std@@@std@@@std@@QBEABQAVCGrannyModelInstance@@XZ ; std::_Deque_unchecked_const_iterator<std::_Deque_val<std::_Deque_simple_types<CGrannyModelInstance *> > >::operator*
  000df	89 45 cc	 mov	 DWORD PTR $T5[ebp], eax
; File C:\Program Files (x86)\Microsoft Visual Studio\2019\Community\VC\Tools\MSVC\14.28.29333\include\algorithm

; 308  :         _Func(*_UFirst);

  000e2	8b 45 cc	 mov	 eax, DWORD PTR $T5[ebp]
  000e5	ff 30		 push	 DWORD PTR [eax]
  000e7	ff 55 20	 call	 DWORD PTR __Func$[ebp]
  000ea	59		 pop	 ecx

; 309  :     }

  000eb	eb a5		 jmp	 SHORT $LN2@for_each
$LN3@for_each:

; 310  : 
; 311  :     return _Func;

  000ed	8b 45 20	 mov	 eax, DWORD PTR __Func$[ebp]
  000f0	89 45 c8	 mov	 DWORD PTR $T4[ebp], eax
  000f3	c6 45 fc 00	 mov	 BYTE PTR __$EHRec$[ebp+8], 0
  000f7	83 4d fc ff	 or	 DWORD PTR __$EHRec$[ebp+8], -1
  000fb	8b 45 c8	 mov	 eax, DWORD PTR $T4[ebp]

; 312  : }

  000fe	8b 4d f4	 mov	 ecx, DWORD PTR __$EHRec$[ebp]
  00101	64 89 0d 00 00
	00 00		 mov	 DWORD PTR fs:0, ecx
  00108	59		 pop	 ecx
  00109	c9		 leave
  0010a	c3		 ret	 0
_TEXT	ENDS
;	COMDAT text$x
text$x	SEGMENT
__unwindfunclet$??$for_each@V?$_Deque_iterator@V?$_Deque_val@U?$_Deque_simple_types@PAVCGrannyModelInstance@@@std@@@std@@@std@@P6AXPAVCGrannyModelInstance@@@Z@std@@YAP6AXPAVCGrannyModelInstance@@@ZV?$_Deque_iterator@V?$_Deque_val@U?$_Deque_simple_types@PAVCGrannyModelInstance@@@std@@@std@@@0@1P6AX0@Z@Z$0:
  00000	8d 4d 14	 lea	 ecx, DWORD PTR __Last$[ebp]
  00003	e9 00 00 00 00	 jmp	 ??1?$_Deque_iterator@V?$_Deque_val@U?$_Deque_simple_types@PAVCGrannyModelInstance@@@std@@@std@@@std@@QAE@XZ
__unwindfunclet$??$for_each@V?$_Deque_iterator@V?$_Deque_val@U?$_Deque_simple_types@PAVCGrannyModelInstance@@@std@@@std@@@std@@P6AXPAVCGrannyModelInstance@@@Z@std@@YAP6AXPAVCGrannyModelInstance@@@ZV?$_Deque_iterator@V?$_Deque_val@U?$_Deque_simple_types@PAVCGrannyModelInstance@@@std@@@std@@@0@1P6AX0@Z@Z$1:
  00008	8d 4d 08	 lea	 ecx, DWORD PTR __First$[ebp]
  0000b	e9 00 00 00 00	 jmp	 ??1?$_Deque_iterator@V?$_Deque_val@U?$_Deque_simple_types@PAVCGrannyModelInstance@@@std@@@std@@@std@@QAE@XZ
  00010	cc		 int	 3
  00011	cc		 int	 3
  00012	cc		 int	 3
  00013	cc		 int	 3
  00014	cc		 int	 3
__ehhandler$??$for_each@V?$_Deque_iterator@V?$_Deque_val@U?$_Deque_simple_types@PAVCGrannyModelInstance@@@std@@@std@@@std@@P6AXPAVCGrannyModelInstance@@@Z@std@@YAP6AXPAVCGrannyModelInstance@@@ZV?$_Deque_iterator@V?$_Deque_val@U?$_Deque_simple_types@PAVCGrannyModelInstance@@@std@@@std@@@0@1P6AX0@Z@Z:
  00015	90		 npad	 1
  00016	90		 npad	 1
  00017	8b 54 24 08	 mov	 edx, DWORD PTR [esp+8]
  0001b	8d 42 0c	 lea	 eax, DWORD PTR [edx+12]
  0001e	8b 4a b8	 mov	 ecx, DWORD PTR [edx-72]
  00021	33 c8		 xor	 ecx, eax
  00023	e8 00 00 00 00	 call	 @__security_check_cookie@4
  00028	b8 00 00 00 00	 mov	 eax, OFFSET __ehfuncinfo$??$for_each@V?$_Deque_iterator@V?$_Deque_val@U?$_Deque_simple_types@PAVCGrannyModelInstance@@@std@@@std@@@std@@P6AXPAVCGrannyModelInstance@@@Z@std@@YAP6AXPAVCGrannyModelInstance@@@ZV?$_Deque_iterator@V?$_Deque_val@U?$_Deque_simple_types@PAVCGrannyModelInstance@@@std@@@std@@@0@1P6AX0@Z@Z
  0002d	e9 00 00 00 00	 jmp	 ___CxxFrameHandler3
text$x	ENDS
