; Listing generated by Microsoft (R) Optimizing Compiler Version 19.28.29335.0 

	TITLE	D:\Metin2 Server Files\mainline\SRC_2014\Metin2Client\eterGrnLib\Material.cpp
	.686P
	.XMM
	include listing.inc
	.model	flat

INCLUDELIB LIBCMT
INCLUDELIB OLDNAMES

PUBLIC	??_H@YGXPAXIIP6EPAX0@Z@Z			; `vector constructor iterator'
PUBLIC	___local_stdio_printf_options
PUBLIC	__snprintf
PUBLIC	??0exception@std@@QAE@ABV01@@Z			; std::exception::exception
PUBLIC	?what@exception@std@@UBEPBDXZ			; std::exception::what
PUBLIC	??_Gexception@std@@UAEPAXI@Z			; std::exception::`scalar deleting destructor'
PUBLIC	??0bad_alloc@std@@QAE@ABV01@@Z			; std::bad_alloc::bad_alloc
PUBLIC	??_Gbad_alloc@std@@UAEPAXI@Z			; std::bad_alloc::`scalar deleting destructor'
PUBLIC	??0bad_array_new_length@std@@QAE@XZ		; std::bad_array_new_length::bad_array_new_length
PUBLIC	??1bad_array_new_length@std@@UAE@XZ		; std::bad_array_new_length::~bad_array_new_length
PUBLIC	??0bad_array_new_length@std@@QAE@ABV01@@Z	; std::bad_array_new_length::bad_array_new_length
PUBLIC	??_Gbad_array_new_length@std@@UAEPAXI@Z		; std::bad_array_new_length::`scalar deleting destructor'
PUBLIC	?_Throw_bad_array_new_length@std@@YAXXZ		; std::_Throw_bad_array_new_length
PUBLIC	?_Adjust_manually_vector_aligned@std@@YAXAAPAXAAI@Z ; std::_Adjust_manually_vector_aligned
PUBLIC	?_Xlen_string@std@@YAXXZ			; std::_Xlen_string
PUBLIC	?_Myptr@?$_String_val@U?$_Simple_types@D@std@@@std@@QAEPADXZ ; std::_String_val<std::_Simple_types<char> >::_Myptr
PUBLIC	?_Xran@?$_String_val@U?$_Simple_types@D@std@@@std@@SAXXZ ; std::_String_val<std::_Simple_types<char> >::_Xran
PUBLIC	??0?$basic_string@DU?$char_traits@D@std@@V?$allocator@D@2@@std@@QAE@QBD@Z ; std::basic_string<char,std::char_traits<char>,std::allocator<char> >::basic_string<char,std::char_traits<char>,std::allocator<char> >
PUBLIC	??1?$basic_string@DU?$char_traits@D@std@@V?$allocator@D@2@@std@@QAE@XZ ; std::basic_string<char,std::char_traits<char>,std::allocator<char> >::~basic_string<char,std::char_traits<char>,std::allocator<char> >
PUBLIC	?assign@?$basic_string@DU?$char_traits@D@std@@V?$allocator@D@2@@std@@QAEAAV12@QBDI@Z ; std::basic_string<char,std::char_traits<char>,std::allocator<char> >::assign
PUBLIC	?at@?$basic_string@DU?$char_traits@D@std@@V?$allocator@D@2@@std@@QAEAADI@Z ; std::basic_string<char,std::char_traits<char>,std::allocator<char> >::at
PUBLIC	?c_str@?$basic_string@DU?$char_traits@D@std@@V?$allocator@D@2@@std@@QBEPBDXZ ; std::basic_string<char,std::char_traits<char>,std::allocator<char> >::c_str
PUBLIC	?max_size@?$basic_string@DU?$char_traits@D@std@@V?$allocator@D@2@@std@@QBEIXZ ; std::basic_string<char,std::char_traits<char>,std::allocator<char> >::max_size
PUBLIC	?_Equal@?$basic_string@DU?$char_traits@D@std@@V?$allocator@D@2@@std@@QBE_NABV12@@Z ; std::basic_string<char,std::char_traits<char>,std::allocator<char> >::_Equal
PUBLIC	?_Calculate_growth@?$basic_string@DU?$char_traits@D@std@@V?$allocator@D@2@@std@@ABEII@Z ; std::basic_string<char,std::char_traits<char>,std::allocator<char> >::_Calculate_growth
PUBLIC	?_Tidy_init@?$basic_string@DU?$char_traits@D@std@@V?$allocator@D@2@@std@@AAEXXZ ; std::basic_string<char,std::char_traits<char>,std::allocator<char> >::_Tidy_init
PUBLIC	?_Tidy_deallocate@?$basic_string@DU?$char_traits@D@std@@V?$allocator@D@2@@std@@AAEXXZ ; std::basic_string<char,std::char_traits<char>,std::allocator<char> >::_Tidy_deallocate
PUBLIC	??1?$_Compressed_pair@V?$allocator@D@std@@V?$_String_val@U?$_Simple_types@D@std@@@2@$00@std@@QAE@XZ ; std::_Compressed_pair<std::allocator<char>,std::_String_val<std::_Simple_types<char> >,1>::~_Compressed_pair<std::allocator<char>,std::_String_val<std::_Simple_types<char> >,1>
PUBLIC	?StringPath@CFileNameHelper@@SAXAAV?$basic_string@DU?$char_traits@D@std@@V?$allocator@D@2@@std@@@Z ; CFileNameHelper::StringPath
PUBLIC	??0?$CRef@VCGraphicImage@@@@QAE@XZ		; CRef<CGraphicImage>::CRef<CGraphicImage>
PUBLIC	??1?$CRef@VCGraphicImage@@@@QAE@XZ		; CRef<CGraphicImage>::~CRef<CGraphicImage>
PUBLIC	?SetPointer@?$CRef@VCGraphicImage@@@@QAEXPAVCReferenceObject@@@Z ; CRef<CGraphicImage>::SetPointer
PUBLIC	?CreateSphereMap@CGrannyMaterial@@SAXIPBD@Z	; CGrannyMaterial::CreateSphereMap
PUBLIC	?DestroySphereMap@CGrannyMaterial@@SAXXZ	; CGrannyMaterial::DestroySphereMap
PUBLIC	?TranslateSpecularMatrix@CGrannyMaterial@@SAXMMM@Z ; CGrannyMaterial::TranslateSpecularMatrix
PUBLIC	??0CGrannyMaterial@@QAE@XZ			; CGrannyMaterial::CGrannyMaterial
PUBLIC	??1CGrannyMaterial@@UAE@XZ			; CGrannyMaterial::~CGrannyMaterial
PUBLIC	?Copy@CGrannyMaterial@@QAEXAAV1@@Z		; CGrannyMaterial::Copy
PUBLIC	?IsEqual@CGrannyMaterial@@QBE_NPAUgranny_material@@@Z ; CGrannyMaterial::IsEqual
PUBLIC	?IsIn@CGrannyMaterial@@QAE_NPBDPAH@Z		; CGrannyMaterial::IsIn
PUBLIC	?SetSpecularInfo@CGrannyMaterial@@QAEXHME@Z	; CGrannyMaterial::SetSpecularInfo
PUBLIC	?ApplyRenderState@CGrannyMaterial@@QAEXXZ	; CGrannyMaterial::ApplyRenderState
PUBLIC	?RestoreRenderState@CGrannyMaterial@@QAEXXZ	; CGrannyMaterial::RestoreRenderState
PUBLIC	?Initialize@CGrannyMaterial@@IAEXXZ		; CGrannyMaterial::Initialize
PUBLIC	?CreateFromGrannyMaterialPointer@CGrannyMaterial@@QAE_NPAUgranny_material@@@Z ; CGrannyMaterial::CreateFromGrannyMaterialPointer
PUBLIC	?SetImagePointer@CGrannyMaterial@@QAEXHPAVCGraphicImage@@@Z ; CGrannyMaterial::SetImagePointer
PUBLIC	?GetType@CGrannyMaterial@@QBE?AW4EType@1@XZ	; CGrannyMaterial::GetType
PUBLIC	?GetImagePointer@CGrannyMaterial@@QBEPAVCGraphicImage@@H@Z ; CGrannyMaterial::GetImagePointer
PUBLIC	?GetDiffuseTexture@CGrannyMaterial@@QBEPBVCGraphicTexture@@XZ ; CGrannyMaterial::GetDiffuseTexture
PUBLIC	?GetOpacityTexture@CGrannyMaterial@@QBEPBVCGraphicTexture@@XZ ; CGrannyMaterial::GetOpacityTexture
PUBLIC	?GetD3DTexture@CGrannyMaterial@@QBEPAUIDirect3DTexture8@@H@Z ; CGrannyMaterial::GetD3DTexture
PUBLIC	?__GetImagePointer@CGrannyMaterial@@IAEPAVCGraphicImage@@PBD@Z ; CGrannyMaterial::__GetImagePointer
PUBLIC	?__IsSpecularEnable@CGrannyMaterial@@IBEHXZ	; CGrannyMaterial::__IsSpecularEnable
PUBLIC	?__GetSpecularPower@CGrannyMaterial@@IBEMXZ	; CGrannyMaterial::__GetSpecularPower
PUBLIC	?__ApplyDiffuseRenderState@CGrannyMaterial@@IAEXXZ ; CGrannyMaterial::__ApplyDiffuseRenderState
PUBLIC	?__RestoreDiffuseRenderState@CGrannyMaterial@@IAEXXZ ; CGrannyMaterial::__RestoreDiffuseRenderState
PUBLIC	?__ApplySpecularRenderState@CGrannyMaterial@@IAEXXZ ; CGrannyMaterial::__ApplySpecularRenderState
PUBLIC	?__RestoreSpecularRenderState@CGrannyMaterial@@IAEXXZ ; CGrannyMaterial::__RestoreSpecularRenderState
PUBLIC	??_GCGrannyMaterial@@UAEPAXI@Z			; CGrannyMaterial::`scalar deleting destructor'
PUBLIC	??0CGrannyMaterialPalette@@QAE@XZ		; CGrannyMaterialPalette::CGrannyMaterialPalette
PUBLIC	??1CGrannyMaterialPalette@@UAE@XZ		; CGrannyMaterialPalette::~CGrannyMaterialPalette
PUBLIC	?Clear@CGrannyMaterialPalette@@QAEXXZ		; CGrannyMaterialPalette::Clear
PUBLIC	?Copy@CGrannyMaterialPalette@@QAEXABV1@@Z	; CGrannyMaterialPalette::Copy
PUBLIC	?RegisterMaterial@CGrannyMaterialPalette@@QAEKPAUgranny_material@@@Z ; CGrannyMaterialPalette::RegisterMaterial
PUBLIC	?SetMaterialImagePointer@CGrannyMaterialPalette@@QAEXPBDPAVCGraphicImage@@@Z ; CGrannyMaterialPalette::SetMaterialImagePointer
PUBLIC	?SetMaterialData@CGrannyMaterialPalette@@QAEXPBDABUSMaterialData@@@Z ; CGrannyMaterialPalette::SetMaterialData
PUBLIC	?SetSpecularInfo@CGrannyMaterialPalette@@QAEXPBDHM@Z ; CGrannyMaterialPalette::SetSpecularInfo
PUBLIC	?GetMaterialRef@CGrannyMaterialPalette@@QAEAAVCGrannyMaterial@@K@Z ; CGrannyMaterialPalette::GetMaterialRef
PUBLIC	?GetMaterialCount@CGrannyMaterialPalette@@QBEKXZ ; CGrannyMaterialPalette::GetMaterialCount
PUBLIC	?deallocate@?$allocator@V?$CRef@VCGrannyMaterial@@@@@std@@QAEXQAV?$CRef@VCGrannyMaterial@@@@I@Z ; std::allocator<CRef<CGrannyMaterial> >::deallocate
PUBLIC	?_Copy_assign@?$vector@V?$CRef@VCGrannyMaterial@@@@V?$allocator@V?$CRef@VCGrannyMaterial@@@@@std@@@std@@AAEXABV12@U?$integral_constant@_N$0A@@2@@Z ; std::vector<CRef<CGrannyMaterial>,std::allocator<CRef<CGrannyMaterial> > >::_Copy_assign
PUBLIC	?_Clear_and_reserve_geometric@?$vector@V?$CRef@VCGrannyMaterial@@@@V?$allocator@V?$CRef@VCGrannyMaterial@@@@@std@@@std@@AAEXI@Z ; std::vector<CRef<CGrannyMaterial>,std::allocator<CRef<CGrannyMaterial> > >::_Clear_and_reserve_geometric
PUBLIC	?clear@?$vector@V?$CRef@VCGrannyMaterial@@@@V?$allocator@V?$CRef@VCGrannyMaterial@@@@@std@@@std@@QAEXXZ ; std::vector<CRef<CGrannyMaterial>,std::allocator<CRef<CGrannyMaterial> > >::clear
PUBLIC	?max_size@?$vector@V?$CRef@VCGrannyMaterial@@@@V?$allocator@V?$CRef@VCGrannyMaterial@@@@@std@@@std@@QBEIXZ ; std::vector<CRef<CGrannyMaterial>,std::allocator<CRef<CGrannyMaterial> > >::max_size
PUBLIC	?_Destroy@?$vector@V?$CRef@VCGrannyMaterial@@@@V?$allocator@V?$CRef@VCGrannyMaterial@@@@@std@@@std@@AAEXPAV?$CRef@VCGrannyMaterial@@@@0@Z ; std::vector<CRef<CGrannyMaterial>,std::allocator<CRef<CGrannyMaterial> > >::_Destroy
PUBLIC	?_Calculate_growth@?$vector@V?$CRef@VCGrannyMaterial@@@@V?$allocator@V?$CRef@VCGrannyMaterial@@@@@std@@@std@@ABEII@Z ; std::vector<CRef<CGrannyMaterial>,std::allocator<CRef<CGrannyMaterial> > >::_Calculate_growth
PUBLIC	?_Buy_raw@?$vector@V?$CRef@VCGrannyMaterial@@@@V?$allocator@V?$CRef@VCGrannyMaterial@@@@@std@@@std@@AAEXI@Z ; std::vector<CRef<CGrannyMaterial>,std::allocator<CRef<CGrannyMaterial> > >::_Buy_raw
PUBLIC	?_Change_array@?$vector@V?$CRef@VCGrannyMaterial@@@@V?$allocator@V?$CRef@VCGrannyMaterial@@@@@std@@@std@@AAEXQAV?$CRef@VCGrannyMaterial@@@@II@Z ; std::vector<CRef<CGrannyMaterial>,std::allocator<CRef<CGrannyMaterial> > >::_Change_array
PUBLIC	?_Tidy@?$vector@V?$CRef@VCGrannyMaterial@@@@V?$allocator@V?$CRef@VCGrannyMaterial@@@@@std@@@std@@AAEXXZ ; std::vector<CRef<CGrannyMaterial>,std::allocator<CRef<CGrannyMaterial> > >::_Tidy
PUBLIC	?_Xlength@?$vector@V?$CRef@VCGrannyMaterial@@@@V?$allocator@V?$CRef@VCGrannyMaterial@@@@@std@@@std@@CAXXZ ; std::vector<CRef<CGrannyMaterial>,std::allocator<CRef<CGrannyMaterial> > >::_Xlength
PUBLIC	??_GCGrannyMaterialPalette@@UAEPAXI@Z		; CGrannyMaterialPalette::`scalar deleting destructor'
PUBLIC	??$?8DU?$char_traits@D@std@@V?$allocator@D@1@@std@@YA_NABV?$basic_string@DU?$char_traits@D@std@@V?$allocator@D@2@@0@0@Z ; std::operator==<char,std::char_traits<char>,std::allocator<char> >
PUBLIC	??1?$CRef@VCGrannyMaterial@@@@QAE@XZ		; CRef<CGrannyMaterial>::~CRef<CGrannyMaterial>
PUBLIC	?SetPointer@?$CRef@VCGrannyMaterial@@@@QAEXPAVCReferenceObject@@@Z ; CRef<CGrannyMaterial>::SetPointer
PUBLIC	??_G?$CRef@VCGrannyMaterial@@@@QAEPAXI@Z	; CRef<CGrannyMaterial>::`scalar deleting destructor'
PUBLIC	??$emplace_back@V?$CRef@VCGrannyMaterial@@@@@?$vector@V?$CRef@VCGrannyMaterial@@@@V?$allocator@V?$CRef@VCGrannyMaterial@@@@@std@@@std@@QAEX$$QAV?$CRef@VCGrannyMaterial@@@@@Z ; std::vector<CRef<CGrannyMaterial>,std::allocator<CRef<CGrannyMaterial> > >::emplace_back<CRef<CGrannyMaterial> >
PUBLIC	??$_Emplace_back_with_unused_capacity@V?$CRef@VCGrannyMaterial@@@@@?$vector@V?$CRef@VCGrannyMaterial@@@@V?$allocator@V?$CRef@VCGrannyMaterial@@@@@std@@@std@@AAEX$$QAV?$CRef@VCGrannyMaterial@@@@@Z ; std::vector<CRef<CGrannyMaterial>,std::allocator<CRef<CGrannyMaterial> > >::_Emplace_back_with_unused_capacity<CRef<CGrannyMaterial> >
PUBLIC	??$_Emplace_reallocate@V?$CRef@VCGrannyMaterial@@@@@?$vector@V?$CRef@VCGrannyMaterial@@@@V?$allocator@V?$CRef@VCGrannyMaterial@@@@@std@@@std@@QAEPAV?$CRef@VCGrannyMaterial@@@@QAV2@$$QAV2@@Z ; std::vector<CRef<CGrannyMaterial>,std::allocator<CRef<CGrannyMaterial> > >::_Emplace_reallocate<CRef<CGrannyMaterial> >
PUBLIC	??$_Destroy_range@V?$allocator@V?$CRef@VCGrannyMaterial@@@@@std@@@std@@YAXPAV?$CRef@VCGrannyMaterial@@@@QAV1@AAV?$allocator@V?$CRef@VCGrannyMaterial@@@@@0@@Z ; std::_Destroy_range<std::allocator<CRef<CGrannyMaterial> > >
PUBLIC	??$_Pocca@V?$allocator@V?$CRef@VCGrannyMaterial@@@@@std@@@std@@YAXAAV?$allocator@V?$CRef@VCGrannyMaterial@@@@@0@ABV10@@Z ; std::_Pocca<std::allocator<CRef<CGrannyMaterial> > >
PUBLIC	??$_Destroy_in_place@PAD@std@@YAXAAPAD@Z	; std::_Destroy_in_place<char *>
PUBLIC	??$_Reallocate_for@V<lambda_9366063389c5f42a00a5088cf24e69de>@@PBD@?$basic_string@DU?$char_traits@D@std@@V?$allocator@D@2@@std@@AAEAAV01@IV<lambda_9366063389c5f42a00a5088cf24e69de>@@PBD@Z ; std::basic_string<char,std::char_traits<char>,std::allocator<char> >::_Reallocate_for<<lambda_9366063389c5f42a00a5088cf24e69de>,char const *>
PUBLIC	??$_Construct_in_place@PADABQAD@std@@YAXAAPADABQAD@Z ; std::_Construct_in_place<char *,char * const &>
PUBLIC	??$_Deallocate@$07$0A@@std@@YAXPAXI@Z		; std::_Deallocate<8,0>
PUBLIC	??$_Allocate@$07U_Default_allocate_traits@std@@$0A@@std@@YAPAXI@Z ; std::_Allocate<8,std::_Default_allocate_traits,0>
PUBLIC	??$_Assign_range@PAV?$CRef@VCGrannyMaterial@@@@@?$vector@V?$CRef@VCGrannyMaterial@@@@V?$allocator@V?$CRef@VCGrannyMaterial@@@@@std@@@std@@AAEXPAV?$CRef@VCGrannyMaterial@@@@0Uforward_iterator_tag@1@@Z ; std::vector<CRef<CGrannyMaterial>,std::allocator<CRef<CGrannyMaterial> > >::_Assign_range<CRef<CGrannyMaterial> *>
PUBLIC	??$_Allocate_manually_vector_aligned@U_Default_allocate_traits@std@@@std@@YAPAXI@Z ; std::_Allocate_manually_vector_aligned<std::_Default_allocate_traits>
PUBLIC	??$_Uninitialized_move@PAV?$CRef@VCGrannyMaterial@@@@V?$allocator@V?$CRef@VCGrannyMaterial@@@@@std@@@std@@YAPAV?$CRef@VCGrannyMaterial@@@@QAV1@0PAV1@AAV?$allocator@V?$CRef@VCGrannyMaterial@@@@@0@@Z ; std::_Uninitialized_move<CRef<CGrannyMaterial> *,std::allocator<CRef<CGrannyMaterial> > >
PUBLIC	??$_Uninitialized_copy@PAV?$CRef@VCGrannyMaterial@@@@V?$allocator@V?$CRef@VCGrannyMaterial@@@@@std@@@std@@YAPAV?$CRef@VCGrannyMaterial@@@@QAV1@0PAV1@AAV?$allocator@V?$CRef@VCGrannyMaterial@@@@@0@@Z ; std::_Uninitialized_copy<CRef<CGrannyMaterial> *,std::allocator<CRef<CGrannyMaterial> > >
PUBLIC	??1?$_Uninitialized_backout_al@V?$allocator@V?$CRef@VCGrannyMaterial@@@@@std@@@std@@QAE@XZ ; std::_Uninitialized_backout_al<std::allocator<CRef<CGrannyMaterial> > >::~_Uninitialized_backout_al<std::allocator<CRef<CGrannyMaterial> > >
PUBLIC	??$_Emplace_back@V?$CRef@VCGrannyMaterial@@@@@?$_Uninitialized_backout_al@V?$allocator@V?$CRef@VCGrannyMaterial@@@@@std@@@std@@QAEX$$QAV?$CRef@VCGrannyMaterial@@@@@Z ; std::_Uninitialized_backout_al<std::allocator<CRef<CGrannyMaterial> > >::_Emplace_back<CRef<CGrannyMaterial> >
PUBLIC	??$_Emplace_back@AAV?$CRef@VCGrannyMaterial@@@@@?$_Uninitialized_backout_al@V?$allocator@V?$CRef@VCGrannyMaterial@@@@@std@@@std@@QAEXAAV?$CRef@VCGrannyMaterial@@@@@Z ; std::_Uninitialized_backout_al<std::allocator<CRef<CGrannyMaterial> > >::_Emplace_back<CRef<CGrannyMaterial> &>
PUBLIC	?_OptionsStorage@?1??__local_stdio_printf_options@@9@4_KA ; `__local_stdio_printf_options'::`2'::_OptionsStorage
PUBLIC	??_7exception@std@@6B@				; std::exception::`vftable'
PUBLIC	??_C@_0BC@EOODALEL@Unknown?5exception@		; `string'
PUBLIC	??_7bad_alloc@std@@6B@				; std::bad_alloc::`vftable'
PUBLIC	??_7bad_array_new_length@std@@6B@		; std::bad_array_new_length::`vftable'
PUBLIC	??_C@_0BF@KINCDENJ@bad?5array?5new?5length@	; `string'
PUBLIC	__TI3?AVbad_array_new_length@std@@
PUBLIC	__CTA3?AVbad_array_new_length@std@@
PUBLIC	??_R0?AVbad_array_new_length@std@@@8		; std::bad_array_new_length `RTTI Type Descriptor'
PUBLIC	__CT??_R0?AVbad_array_new_length@std@@@8??0bad_array_new_length@std@@QAE@ABV01@@Z12
PUBLIC	??_R0?AVbad_alloc@std@@@8			; std::bad_alloc `RTTI Type Descriptor'
PUBLIC	__CT??_R0?AVbad_alloc@std@@@8??0bad_alloc@std@@QAE@ABV01@@Z12
PUBLIC	??_R0?AVexception@std@@@8			; std::exception `RTTI Type Descriptor'
PUBLIC	__CT??_R0?AVexception@std@@@8??0exception@std@@QAE@ABV01@@Z12
PUBLIC	??_C@_0BA@JFNIOLAK@string?5too?5long@		; `string'
PUBLIC	?ms_matSpecular@CGrannyMaterial@@0UD3DXMATRIX@@A ; CGrannyMaterial::ms_matSpecular
PUBLIC	?ms_v3SpecularTrans@CGrannyMaterial@@0UD3DXVECTOR3@@A ; CGrannyMaterial::ms_v3SpecularTrans
PUBLIC	?ms_akSphereMapInstance@CGrannyMaterial@@0PAVCGraphicImageInstance@@A ; CGrannyMaterial::ms_akSphereMapInstance
PUBLIC	??_7CGrannyMaterial@@6B@			; CGrannyMaterial::`vftable'
PUBLIC	??_7CGrannyMaterialPalette@@6B@			; CGrannyMaterialPalette::`vftable'
PUBLIC	?ms_singleton@?$CSingleton@VCResourceManager@@@@0PAVCResourceManager@@A ; CSingleton<CResourceManager>::ms_singleton
PUBLIC	?ms_singleton@?$CSingleton@VCStateManager@@@@0PAVCStateManager@@A ; CSingleton<CStateManager>::ms_singleton
PUBLIC	?g_fSpecularColor@@3UD3DXCOLOR@@A		; g_fSpecularColor
PUBLIC	??_C@_04HDOCAJNK@?$CFs?$CFs@			; `string'
PUBLIC	??_C@_05BPEPCAMP@Blend@				; `string'
PUBLIC	??_C@_09HNLEFIID@Two?9sided@			; `string'
PUBLIC	??_C@_0BI@CFPLBAOH@invalid?5string?5position@	; `string'
PUBLIC	??_C@_0BA@FOIKENOD@vector?5too?5long@		; `string'
PUBLIC	??_R4exception@std@@6B@				; std::exception::`RTTI Complete Object Locator'
PUBLIC	??_R3exception@std@@8				; std::exception::`RTTI Class Hierarchy Descriptor'
PUBLIC	??_R2exception@std@@8				; std::exception::`RTTI Base Class Array'
PUBLIC	??_R1A@?0A@EA@exception@std@@8			; std::exception::`RTTI Base Class Descriptor at (0,-1,0,64)'
PUBLIC	??_R4bad_alloc@std@@6B@				; std::bad_alloc::`RTTI Complete Object Locator'
PUBLIC	??_R3bad_alloc@std@@8				; std::bad_alloc::`RTTI Class Hierarchy Descriptor'
PUBLIC	??_R2bad_alloc@std@@8				; std::bad_alloc::`RTTI Base Class Array'
PUBLIC	??_R1A@?0A@EA@bad_alloc@std@@8			; std::bad_alloc::`RTTI Base Class Descriptor at (0,-1,0,64)'
PUBLIC	??_R4bad_array_new_length@std@@6B@		; std::bad_array_new_length::`RTTI Complete Object Locator'
PUBLIC	??_R3bad_array_new_length@std@@8		; std::bad_array_new_length::`RTTI Class Hierarchy Descriptor'
PUBLIC	??_R2bad_array_new_length@std@@8		; std::bad_array_new_length::`RTTI Base Class Array'
PUBLIC	??_R1A@?0A@EA@bad_array_new_length@std@@8	; std::bad_array_new_length::`RTTI Base Class Descriptor at (0,-1,0,64)'
PUBLIC	??_R4CGrannyMaterial@@6B@			; CGrannyMaterial::`RTTI Complete Object Locator'
PUBLIC	??_R0?AVCGrannyMaterial@@@8			; CGrannyMaterial `RTTI Type Descriptor'
PUBLIC	??_R3CGrannyMaterial@@8				; CGrannyMaterial::`RTTI Class Hierarchy Descriptor'
PUBLIC	??_R2CGrannyMaterial@@8				; CGrannyMaterial::`RTTI Base Class Array'
PUBLIC	??_R1A@?0A@EA@CGrannyMaterial@@8		; CGrannyMaterial::`RTTI Base Class Descriptor at (0,-1,0,64)'
PUBLIC	??_R1A@?0A@EA@CReferenceObject@@8		; CReferenceObject::`RTTI Base Class Descriptor at (0,-1,0,64)'
PUBLIC	??_R0?AVCReferenceObject@@@8			; CReferenceObject `RTTI Type Descriptor'
PUBLIC	??_R3CReferenceObject@@8			; CReferenceObject::`RTTI Class Hierarchy Descriptor'
PUBLIC	??_R2CReferenceObject@@8			; CReferenceObject::`RTTI Base Class Array'
PUBLIC	??_R4CGrannyMaterialPalette@@6B@		; CGrannyMaterialPalette::`RTTI Complete Object Locator'
PUBLIC	??_R0?AVCGrannyMaterialPalette@@@8		; CGrannyMaterialPalette `RTTI Type Descriptor'
PUBLIC	??_R3CGrannyMaterialPalette@@8			; CGrannyMaterialPalette::`RTTI Class Hierarchy Descriptor'
PUBLIC	??_R2CGrannyMaterialPalette@@8			; CGrannyMaterialPalette::`RTTI Base Class Array'
PUBLIC	??_R1A@?0A@EA@CGrannyMaterialPalette@@8		; CGrannyMaterialPalette::`RTTI Base Class Descriptor at (0,-1,0,64)'
PUBLIC	__real@3f000000
PUBLIC	__real@3f800000
PUBLIC	__real@437f0000
EXTRN	??_L@YGXPAXIIP6EX0@Z1@Z:PROC			; `eh vector constructor iterator'
EXTRN	??_M@YGXPAXIIP6EX0@Z@Z:PROC			; `eh vector destructor iterator'
EXTRN	??2@YAPAXI@Z:PROC				; operator new
EXTRN	??3@YAXPAXI@Z:PROC				; operator delete
EXTRN	_atexit:PROC
EXTRN	___std_terminate:PROC
EXTRN	__imp__GrannyGetMaterialTextureByType@8:PROC
EXTRN	__imp__GrannyFindMatchingMember@16:PROC
EXTRN	__imp__GrannyConvertSingleObject@20:PROC
EXTRN	__invalid_parameter_noinfo_noreturn:PROC
EXTRN	_tolower:PROC
EXTRN	_memcmp:PROC
EXTRN	_memcpy:PROC
EXTRN	_memmove:PROC
EXTRN	_strlen:PROC
EXTRN	__strnicmp:PROC
EXTRN	___stdio_common_vsprintf:PROC
EXTRN	___std_exception_copy:PROC
EXTRN	___std_exception_destroy:PROC
EXTRN	??_Eexception@std@@UAEPAXI@Z:PROC		; std::exception::`vector deleting destructor'
EXTRN	??_Ebad_alloc@std@@UAEPAXI@Z:PROC		; std::bad_alloc::`vector deleting destructor'
EXTRN	??_Ebad_array_new_length@std@@UAEPAXI@Z:PROC	; std::bad_array_new_length::`vector deleting destructor'
EXTRN	?_Xlength_error@std@@YAXPBD@Z:PROC		; std::_Xlength_error
EXTRN	?_Xout_of_range@std@@YAXPBD@Z:PROC		; std::_Xout_of_range
EXTRN	??0CReferenceObject@@QAE@XZ:PROC		; CReferenceObject::CReferenceObject
EXTRN	??1CReferenceObject@@UAE@XZ:PROC		; CReferenceObject::~CReferenceObject
EXTRN	?AddReference@CReferenceObject@@QAEXXZ:PROC	; CReferenceObject::AddReference
EXTRN	?Release@CReferenceObject@@QAEXXZ:PROC		; CReferenceObject::Release
EXTRN	?OnConstruct@CReferenceObject@@MAEXXZ:PROC	; CReferenceObject::OnConstruct
EXTRN	?OnSelfDestruct@CReferenceObject@@MAEXXZ:PROC	; CReferenceObject::OnSelfDestruct
EXTRN	_D3DXMatrixTranslation@16:PROC
EXTRN	?GetD3DTexture@CGraphicTexture@@QBEPAUIDirect3DTexture8@@XZ:PROC ; CGraphicTexture::GetD3DTexture
EXTRN	?GetTexturePointer@CGraphicImage@@QAEPAVCGraphicTexture@@XZ:PROC ; CGraphicImage::GetTexturePointer
EXTRN	??0CGraphicImageInstance@@QAE@XZ:PROC		; CGraphicImageInstance::CGraphicImageInstance
EXTRN	??1CGraphicImageInstance@@UAE@XZ:PROC		; CGraphicImageInstance::~CGraphicImageInstance
EXTRN	?Destroy@CGraphicImageInstance@@QAEXXZ:PROC	; CGraphicImageInstance::Destroy
EXTRN	?SetImagePointer@CGraphicImageInstance@@QAEXPAVCGraphicImage@@@Z:PROC ; CGraphicImageInstance::SetImagePointer
EXTRN	?GetTexturePointer@CGraphicImageInstance@@QAEPAVCGraphicTexture@@XZ:PROC ; CGraphicImageInstance::GetTexturePointer
EXTRN	??_ECGrannyMaterial@@UAEPAXI@Z:PROC		; CGrannyMaterial::`vector deleting destructor'
EXTRN	??_ECGrannyMaterialPalette@@UAEPAXI@Z:PROC	; CGrannyMaterialPalette::`vector deleting destructor'
EXTRN	?GetResourcePointer@CResourceManager@@QAEPAVCResource@@PBD@Z:PROC ; CResourceManager::GetResourcePointer
EXTRN	?SetRenderState@CStateManager@@QAEXW4_D3DRENDERSTATETYPE@@K@Z:PROC ; CStateManager::SetRenderState
EXTRN	?SetTexture@CStateManager@@QAEXKPAUIDirect3DBaseTexture8@@@Z:PROC ; CStateManager::SetTexture
EXTRN	?SaveTextureStageState@CStateManager@@QAEXKW4_D3DTEXTURESTAGESTATETYPE@@K@Z:PROC ; CStateManager::SaveTextureStageState
EXTRN	?RestoreTextureStageState@CStateManager@@QAEXKW4_D3DTEXTURESTAGESTATETYPE@@@Z:PROC ; CStateManager::RestoreTextureStageState
EXTRN	?SetTextureStageState@CStateManager@@QAEXKW4_D3DTEXTURESTAGESTATETYPE@@K@Z:PROC ; CStateManager::SetTextureStageState
EXTRN	?SetTransform@CStateManager@@QAEXW4_D3DTRANSFORMSTATETYPE@@PBU_D3DMATRIX@@@Z:PROC ; CStateManager::SetTransform
EXTRN	?GetRenderState@CStateManager@@QAEKW4_D3DRENDERSTATETYPE@@@Z:PROC ; CStateManager::GetRenderState
EXTRN	?GetModelLocalPath@@YAABV?$basic_string@DU?$char_traits@D@std@@V?$allocator@D@2@@std@@XZ:PROC ; GetModelLocalPath
EXTRN	@__security_check_cookie@4:PROC
EXTRN	__CxxThrowException@8:PROC
EXTRN	___CxxFrameHandler3:PROC
EXTRN	__ftoui3:PROC
EXTRN	??_7type_info@@6B@:QWORD			; type_info::`vftable'
EXTRN	___security_cookie:DWORD
EXTRN	__fltused:DWORD
;	COMDAT ?_OptionsStorage@?1??__local_stdio_printf_options@@9@4_KA
_BSS	SEGMENT
?_OptionsStorage@?1??__local_stdio_printf_options@@9@4_KA DQ 01H DUP (?) ; `__local_stdio_printf_options'::`2'::_OptionsStorage
_BSS	ENDS
_BSS	SEGMENT
?ms_matSpecular@CGrannyMaterial@@0UD3DXMATRIX@@A DB 040H DUP (?) ; CGrannyMaterial::ms_matSpecular
?ms_v3SpecularTrans@CGrannyMaterial@@0UD3DXVECTOR3@@A DB 0cH DUP (?) ; CGrannyMaterial::ms_v3SpecularTrans
?ms_akSphereMapInstance@CGrannyMaterial@@0PAVCGraphicImageInstance@@A DB 0140H DUP (?) ; CGrannyMaterial::ms_akSphereMapInstance
_BSS	ENDS
;	COMDAT ?ms_singleton@?$CSingleton@VCResourceManager@@@@0PAVCResourceManager@@A
_BSS	SEGMENT
?ms_singleton@?$CSingleton@VCResourceManager@@@@0PAVCResourceManager@@A DD 01H DUP (?) ; CSingleton<CResourceManager>::ms_singleton
_BSS	ENDS
;	COMDAT ?ms_singleton@?$CSingleton@VCStateManager@@@@0PAVCStateManager@@A
_BSS	SEGMENT
?ms_singleton@?$CSingleton@VCStateManager@@@@0PAVCStateManager@@A DD 01H DUP (?) ; CSingleton<CStateManager>::ms_singleton
_BSS	ENDS
_BSS	SEGMENT
?g_fSpecularColor@@3UD3DXCOLOR@@A DB 010H DUP (?)	; g_fSpecularColor
_BSS	ENDS
CRT$XCU	SEGMENT
??ms_akSphereMapInstance$initializer$@CGrannyMaterial@@0P6AXXZA@@3P6AXXZA DD FLAT:??__E?ms_akSphereMapInstance@CGrannyMaterial@@0PAVCGraphicImageInstance@@A@@YAXXZ ; ??ms_akSphereMapInstance$initializer$@CGrannyMaterial@@0P6AXXZA@@3P6AXXZA
CRT$XCU	ENDS
;	COMDAT __real@437f0000
CONST	SEGMENT
__real@437f0000 DD 0437f0000r			; 255
CONST	ENDS
;	COMDAT __real@3f800000
CONST	SEGMENT
__real@3f800000 DD 03f800000r			; 1
CONST	ENDS
;	COMDAT __real@3f000000
CONST	SEGMENT
__real@3f000000 DD 03f000000r			; 0.5
CONST	ENDS
;	COMDAT ??_R1A@?0A@EA@CGrannyMaterialPalette@@8
rdata$r	SEGMENT
??_R1A@?0A@EA@CGrannyMaterialPalette@@8 DD FLAT:??_R0?AVCGrannyMaterialPalette@@@8 ; CGrannyMaterialPalette::`RTTI Base Class Descriptor at (0,-1,0,64)'
	DD	00H
	DD	00H
	DD	0ffffffffH
	DD	00H
	DD	040H
	DD	FLAT:??_R3CGrannyMaterialPalette@@8
rdata$r	ENDS
;	COMDAT ??_R2CGrannyMaterialPalette@@8
rdata$r	SEGMENT
??_R2CGrannyMaterialPalette@@8 DD FLAT:??_R1A@?0A@EA@CGrannyMaterialPalette@@8 ; CGrannyMaterialPalette::`RTTI Base Class Array'
rdata$r	ENDS
;	COMDAT ??_R3CGrannyMaterialPalette@@8
rdata$r	SEGMENT
??_R3CGrannyMaterialPalette@@8 DD 00H			; CGrannyMaterialPalette::`RTTI Class Hierarchy Descriptor'
	DD	00H
	DD	01H
	DD	FLAT:??_R2CGrannyMaterialPalette@@8
rdata$r	ENDS
;	COMDAT ??_R0?AVCGrannyMaterialPalette@@@8
data$rs	SEGMENT
??_R0?AVCGrannyMaterialPalette@@@8 DD FLAT:??_7type_info@@6B@ ; CGrannyMaterialPalette `RTTI Type Descriptor'
	DD	00H
	DB	'.?AVCGrannyMaterialPalette@@', 00H
data$rs	ENDS
;	COMDAT ??_R4CGrannyMaterialPalette@@6B@
rdata$r	SEGMENT
??_R4CGrannyMaterialPalette@@6B@ DD 00H			; CGrannyMaterialPalette::`RTTI Complete Object Locator'
	DD	00H
	DD	00H
	DD	FLAT:??_R0?AVCGrannyMaterialPalette@@@8
	DD	FLAT:??_R3CGrannyMaterialPalette@@8
rdata$r	ENDS
;	COMDAT ??_R2CReferenceObject@@8
rdata$r	SEGMENT
??_R2CReferenceObject@@8 DD FLAT:??_R1A@?0A@EA@CReferenceObject@@8 ; CReferenceObject::`RTTI Base Class Array'
rdata$r	ENDS
;	COMDAT ??_R3CReferenceObject@@8
rdata$r	SEGMENT
??_R3CReferenceObject@@8 DD 00H				; CReferenceObject::`RTTI Class Hierarchy Descriptor'
	DD	00H
	DD	01H
	DD	FLAT:??_R2CReferenceObject@@8
rdata$r	ENDS
;	COMDAT ??_R0?AVCReferenceObject@@@8
data$rs	SEGMENT
??_R0?AVCReferenceObject@@@8 DD FLAT:??_7type_info@@6B@	; CReferenceObject `RTTI Type Descriptor'
	DD	00H
	DB	'.?AVCReferenceObject@@', 00H
data$rs	ENDS
;	COMDAT ??_R1A@?0A@EA@CReferenceObject@@8
rdata$r	SEGMENT
??_R1A@?0A@EA@CReferenceObject@@8 DD FLAT:??_R0?AVCReferenceObject@@@8 ; CReferenceObject::`RTTI Base Class Descriptor at (0,-1,0,64)'
	DD	00H
	DD	00H
	DD	0ffffffffH
	DD	00H
	DD	040H
	DD	FLAT:??_R3CReferenceObject@@8
rdata$r	ENDS
;	COMDAT ??_R1A@?0A@EA@CGrannyMaterial@@8
rdata$r	SEGMENT
??_R1A@?0A@EA@CGrannyMaterial@@8 DD FLAT:??_R0?AVCGrannyMaterial@@@8 ; CGrannyMaterial::`RTTI Base Class Descriptor at (0,-1,0,64)'
	DD	01H
	DD	00H
	DD	0ffffffffH
	DD	00H
	DD	040H
	DD	FLAT:??_R3CGrannyMaterial@@8
rdata$r	ENDS
;	COMDAT ??_R2CGrannyMaterial@@8
rdata$r	SEGMENT
??_R2CGrannyMaterial@@8 DD FLAT:??_R1A@?0A@EA@CGrannyMaterial@@8 ; CGrannyMaterial::`RTTI Base Class Array'
	DD	FLAT:??_R1A@?0A@EA@CReferenceObject@@8
rdata$r	ENDS
;	COMDAT ??_R3CGrannyMaterial@@8
rdata$r	SEGMENT
??_R3CGrannyMaterial@@8 DD 00H				; CGrannyMaterial::`RTTI Class Hierarchy Descriptor'
	DD	00H
	DD	02H
	DD	FLAT:??_R2CGrannyMaterial@@8
rdata$r	ENDS
;	COMDAT ??_R0?AVCGrannyMaterial@@@8
data$rs	SEGMENT
??_R0?AVCGrannyMaterial@@@8 DD FLAT:??_7type_info@@6B@	; CGrannyMaterial `RTTI Type Descriptor'
	DD	00H
	DB	'.?AVCGrannyMaterial@@', 00H
data$rs	ENDS
;	COMDAT ??_R4CGrannyMaterial@@6B@
rdata$r	SEGMENT
??_R4CGrannyMaterial@@6B@ DD 00H			; CGrannyMaterial::`RTTI Complete Object Locator'
	DD	00H
	DD	00H
	DD	FLAT:??_R0?AVCGrannyMaterial@@@8
	DD	FLAT:??_R3CGrannyMaterial@@8
rdata$r	ENDS
;	COMDAT ??_R1A@?0A@EA@bad_array_new_length@std@@8
rdata$r	SEGMENT
??_R1A@?0A@EA@bad_array_new_length@std@@8 DD FLAT:??_R0?AVbad_array_new_length@std@@@8 ; std::bad_array_new_length::`RTTI Base Class Descriptor at (0,-1,0,64)'
	DD	02H
	DD	00H
	DD	0ffffffffH
	DD	00H
	DD	040H
	DD	FLAT:??_R3bad_array_new_length@std@@8
rdata$r	ENDS
;	COMDAT ??_R2bad_array_new_length@std@@8
rdata$r	SEGMENT
??_R2bad_array_new_length@std@@8 DD FLAT:??_R1A@?0A@EA@bad_array_new_length@std@@8 ; std::bad_array_new_length::`RTTI Base Class Array'
	DD	FLAT:??_R1A@?0A@EA@bad_alloc@std@@8
	DD	FLAT:??_R1A@?0A@EA@exception@std@@8
rdata$r	ENDS
;	COMDAT ??_R3bad_array_new_length@std@@8
rdata$r	SEGMENT
??_R3bad_array_new_length@std@@8 DD 00H			; std::bad_array_new_length::`RTTI Class Hierarchy Descriptor'
	DD	00H
	DD	03H
	DD	FLAT:??_R2bad_array_new_length@std@@8
rdata$r	ENDS
;	COMDAT ??_R4bad_array_new_length@std@@6B@
rdata$r	SEGMENT
??_R4bad_array_new_length@std@@6B@ DD 00H		; std::bad_array_new_length::`RTTI Complete Object Locator'
	DD	00H
	DD	00H
	DD	FLAT:??_R0?AVbad_array_new_length@std@@@8
	DD	FLAT:??_R3bad_array_new_length@std@@8
rdata$r	ENDS
;	COMDAT ??_R1A@?0A@EA@bad_alloc@std@@8
rdata$r	SEGMENT
??_R1A@?0A@EA@bad_alloc@std@@8 DD FLAT:??_R0?AVbad_alloc@std@@@8 ; std::bad_alloc::`RTTI Base Class Descriptor at (0,-1,0,64)'
	DD	01H
	DD	00H
	DD	0ffffffffH
	DD	00H
	DD	040H
	DD	FLAT:??_R3bad_alloc@std@@8
rdata$r	ENDS
;	COMDAT ??_R2bad_alloc@std@@8
rdata$r	SEGMENT
??_R2bad_alloc@std@@8 DD FLAT:??_R1A@?0A@EA@bad_alloc@std@@8 ; std::bad_alloc::`RTTI Base Class Array'
	DD	FLAT:??_R1A@?0A@EA@exception@std@@8
rdata$r	ENDS
;	COMDAT ??_R3bad_alloc@std@@8
rdata$r	SEGMENT
??_R3bad_alloc@std@@8 DD 00H				; std::bad_alloc::`RTTI Class Hierarchy Descriptor'
	DD	00H
	DD	02H
	DD	FLAT:??_R2bad_alloc@std@@8
rdata$r	ENDS
;	COMDAT ??_R4bad_alloc@std@@6B@
rdata$r	SEGMENT
??_R4bad_alloc@std@@6B@ DD 00H				; std::bad_alloc::`RTTI Complete Object Locator'
	DD	00H
	DD	00H
	DD	FLAT:??_R0?AVbad_alloc@std@@@8
	DD	FLAT:??_R3bad_alloc@std@@8
rdata$r	ENDS
;	COMDAT ??_R1A@?0A@EA@exception@std@@8
rdata$r	SEGMENT
??_R1A@?0A@EA@exception@std@@8 DD FLAT:??_R0?AVexception@std@@@8 ; std::exception::`RTTI Base Class Descriptor at (0,-1,0,64)'
	DD	00H
	DD	00H
	DD	0ffffffffH
	DD	00H
	DD	040H
	DD	FLAT:??_R3exception@std@@8
rdata$r	ENDS
;	COMDAT ??_R2exception@std@@8
rdata$r	SEGMENT
??_R2exception@std@@8 DD FLAT:??_R1A@?0A@EA@exception@std@@8 ; std::exception::`RTTI Base Class Array'
rdata$r	ENDS
;	COMDAT ??_R3exception@std@@8
rdata$r	SEGMENT
??_R3exception@std@@8 DD 00H				; std::exception::`RTTI Class Hierarchy Descriptor'
	DD	00H
	DD	01H
	DD	FLAT:??_R2exception@std@@8
rdata$r	ENDS
;	COMDAT ??_R4exception@std@@6B@
rdata$r	SEGMENT
??_R4exception@std@@6B@ DD 00H				; std::exception::`RTTI Complete Object Locator'
	DD	00H
	DD	00H
	DD	FLAT:??_R0?AVexception@std@@@8
	DD	FLAT:??_R3exception@std@@8
rdata$r	ENDS
;	COMDAT ??_C@_0BA@FOIKENOD@vector?5too?5long@
CONST	SEGMENT
??_C@_0BA@FOIKENOD@vector?5too?5long@ DB 'vector too long', 00H ; `string'
CONST	ENDS
;	COMDAT ??_C@_0BI@CFPLBAOH@invalid?5string?5position@
CONST	SEGMENT
??_C@_0BI@CFPLBAOH@invalid?5string?5position@ DB 'invalid string position'
	DB	00H						; `string'
CONST	ENDS
;	COMDAT ??_C@_09HNLEFIID@Two?9sided@
CONST	SEGMENT
??_C@_09HNLEFIID@Two?9sided@ DB 'Two-sided', 00H	; `string'
CONST	ENDS
;	COMDAT ??_C@_05BPEPCAMP@Blend@
CONST	SEGMENT
??_C@_05BPEPCAMP@Blend@ DB 'Blend', 00H			; `string'
CONST	ENDS
;	COMDAT ??_C@_04HDOCAJNK@?$CFs?$CFs@
CONST	SEGMENT
??_C@_04HDOCAJNK@?$CFs?$CFs@ DB '%s%s', 00H		; `string'
CONST	ENDS
;	COMDAT ?SPECULAR_TRANSLATE_MAX@?1??TranslateSpecularMatrix@CGrannyMaterial@@SAXMMM@Z@4MA
_DATA	SEGMENT
?SPECULAR_TRANSLATE_MAX@?1??TranslateSpecularMatrix@CGrannyMaterial@@SAXMMM@Z@4MA DD 049742400r ; 1e+06 ; `CGrannyMaterial::TranslateSpecularMatrix'::`2'::SPECULAR_TRANSLATE_MAX
_DATA	ENDS
;	COMDAT ??_7CGrannyMaterialPalette@@6B@
CONST	SEGMENT
??_7CGrannyMaterialPalette@@6B@ DD FLAT:??_R4CGrannyMaterialPalette@@6B@ ; CGrannyMaterialPalette::`vftable'
	DD	FLAT:??_ECGrannyMaterialPalette@@UAEPAXI@Z
CONST	ENDS
;	COMDAT ??_7CGrannyMaterial@@6B@
CONST	SEGMENT
??_7CGrannyMaterial@@6B@ DD FLAT:??_R4CGrannyMaterial@@6B@ ; CGrannyMaterial::`vftable'
	DD	FLAT:??_ECGrannyMaterial@@UAEPAXI@Z
	DD	FLAT:?OnConstruct@CReferenceObject@@MAEXXZ
	DD	FLAT:?OnSelfDestruct@CReferenceObject@@MAEXXZ
CONST	ENDS
;	COMDAT ??_C@_0BA@JFNIOLAK@string?5too?5long@
CONST	SEGMENT
??_C@_0BA@JFNIOLAK@string?5too?5long@ DB 'string too long', 00H ; `string'
CONST	ENDS
;	COMDAT __CT??_R0?AVexception@std@@@8??0exception@std@@QAE@ABV01@@Z12
xdata$x	SEGMENT
__CT??_R0?AVexception@std@@@8??0exception@std@@QAE@ABV01@@Z12 DD 00H
	DD	FLAT:??_R0?AVexception@std@@@8
	DD	00H
	DD	0ffffffffH
	ORG $+4
	DD	0cH
	DD	FLAT:??0exception@std@@QAE@ABV01@@Z
xdata$x	ENDS
;	COMDAT ??_R0?AVexception@std@@@8
data$r	SEGMENT
??_R0?AVexception@std@@@8 DD FLAT:??_7type_info@@6B@	; std::exception `RTTI Type Descriptor'
	DD	00H
	DB	'.?AVexception@std@@', 00H
data$r	ENDS
;	COMDAT __CT??_R0?AVbad_alloc@std@@@8??0bad_alloc@std@@QAE@ABV01@@Z12
xdata$x	SEGMENT
__CT??_R0?AVbad_alloc@std@@@8??0bad_alloc@std@@QAE@ABV01@@Z12 DD 010H
	DD	FLAT:??_R0?AVbad_alloc@std@@@8
	DD	00H
	DD	0ffffffffH
	ORG $+4
	DD	0cH
	DD	FLAT:??0bad_alloc@std@@QAE@ABV01@@Z
xdata$x	ENDS
;	COMDAT ??_R0?AVbad_alloc@std@@@8
data$r	SEGMENT
??_R0?AVbad_alloc@std@@@8 DD FLAT:??_7type_info@@6B@	; std::bad_alloc `RTTI Type Descriptor'
	DD	00H
	DB	'.?AVbad_alloc@std@@', 00H
data$r	ENDS
;	COMDAT __CT??_R0?AVbad_array_new_length@std@@@8??0bad_array_new_length@std@@QAE@ABV01@@Z12
xdata$x	SEGMENT
__CT??_R0?AVbad_array_new_length@std@@@8??0bad_array_new_length@std@@QAE@ABV01@@Z12 DD 00H
	DD	FLAT:??_R0?AVbad_array_new_length@std@@@8
	DD	00H
	DD	0ffffffffH
	ORG $+4
	DD	0cH
	DD	FLAT:??0bad_array_new_length@std@@QAE@ABV01@@Z
xdata$x	ENDS
;	COMDAT ??_R0?AVbad_array_new_length@std@@@8
data$r	SEGMENT
??_R0?AVbad_array_new_length@std@@@8 DD FLAT:??_7type_info@@6B@ ; std::bad_array_new_length `RTTI Type Descriptor'
	DD	00H
	DB	'.?AVbad_array_new_length@std@@', 00H
data$r	ENDS
;	COMDAT __CTA3?AVbad_array_new_length@std@@
xdata$x	SEGMENT
__CTA3?AVbad_array_new_length@std@@ DD 03H
	DD	FLAT:__CT??_R0?AVbad_array_new_length@std@@@8??0bad_array_new_length@std@@QAE@ABV01@@Z12
	DD	FLAT:__CT??_R0?AVbad_alloc@std@@@8??0bad_alloc@std@@QAE@ABV01@@Z12
	DD	FLAT:__CT??_R0?AVexception@std@@@8??0exception@std@@QAE@ABV01@@Z12
xdata$x	ENDS
;	COMDAT __TI3?AVbad_array_new_length@std@@
xdata$x	SEGMENT
__TI3?AVbad_array_new_length@std@@ DD 00H
	DD	FLAT:??1bad_array_new_length@std@@UAE@XZ
	DD	00H
	DD	FLAT:__CTA3?AVbad_array_new_length@std@@
xdata$x	ENDS
;	COMDAT ??_C@_0BF@KINCDENJ@bad?5array?5new?5length@
CONST	SEGMENT
??_C@_0BF@KINCDENJ@bad?5array?5new?5length@ DB 'bad array new length', 00H ; `string'
CONST	ENDS
;	COMDAT ??_7bad_array_new_length@std@@6B@
CONST	SEGMENT
??_7bad_array_new_length@std@@6B@ DD FLAT:??_R4bad_array_new_length@std@@6B@ ; std::bad_array_new_length::`vftable'
	DD	FLAT:??_Ebad_array_new_length@std@@UAEPAXI@Z
	DD	FLAT:?what@exception@std@@UBEPBDXZ
CONST	ENDS
;	COMDAT ??_7bad_alloc@std@@6B@
CONST	SEGMENT
??_7bad_alloc@std@@6B@ DD FLAT:??_R4bad_alloc@std@@6B@	; std::bad_alloc::`vftable'
	DD	FLAT:??_Ebad_alloc@std@@UAEPAXI@Z
	DD	FLAT:?what@exception@std@@UBEPBDXZ
CONST	ENDS
;	COMDAT ??_C@_0BC@EOODALEL@Unknown?5exception@
CONST	SEGMENT
??_C@_0BC@EOODALEL@Unknown?5exception@ DB 'Unknown exception', 00H ; `string'
CONST	ENDS
;	COMDAT ??_7exception@std@@6B@
CONST	SEGMENT
??_7exception@std@@6B@ DD FLAT:??_R4exception@std@@6B@	; std::exception::`vftable'
	DD	FLAT:??_Eexception@std@@UAEPAXI@Z
	DD	FLAT:?what@exception@std@@UBEPBDXZ
CONST	ENDS
;	COMDAT xdata$x
xdata$x	SEGMENT
__unwindtable$??$_Uninitialized_copy@PAV?$CRef@VCGrannyMaterial@@@@V?$allocator@V?$CRef@VCGrannyMaterial@@@@@std@@@std@@YAPAV?$CRef@VCGrannyMaterial@@@@QAV1@0PAV1@AAV?$allocator@V?$CRef@VCGrannyMaterial@@@@@0@@Z DD 0ffffffffH
	DD	FLAT:__unwindfunclet$??$_Uninitialized_copy@PAV?$CRef@VCGrannyMaterial@@@@V?$allocator@V?$CRef@VCGrannyMaterial@@@@@std@@@std@@YAPAV?$CRef@VCGrannyMaterial@@@@QAV1@0PAV1@AAV?$allocator@V?$CRef@VCGrannyMaterial@@@@@0@@Z$0
__ehfuncinfo$??$_Uninitialized_copy@PAV?$CRef@VCGrannyMaterial@@@@V?$allocator@V?$CRef@VCGrannyMaterial@@@@@std@@@std@@YAPAV?$CRef@VCGrannyMaterial@@@@QAV1@0PAV1@AAV?$allocator@V?$CRef@VCGrannyMaterial@@@@@0@@Z DD 019930522H
	DD	01H
	DD	FLAT:__unwindtable$??$_Uninitialized_copy@PAV?$CRef@VCGrannyMaterial@@@@V?$allocator@V?$CRef@VCGrannyMaterial@@@@@std@@@std@@YAPAV?$CRef@VCGrannyMaterial@@@@QAV1@0PAV1@AAV?$allocator@V?$CRef@VCGrannyMaterial@@@@@0@@Z
	DD	2 DUP(00H)
	DD	2 DUP(00H)
	DD	00H
	DD	01H
xdata$x	ENDS
;	COMDAT xdata$x
xdata$x	SEGMENT
__unwindtable$??$_Uninitialized_move@PAV?$CRef@VCGrannyMaterial@@@@V?$allocator@V?$CRef@VCGrannyMaterial@@@@@std@@@std@@YAPAV?$CRef@VCGrannyMaterial@@@@QAV1@0PAV1@AAV?$allocator@V?$CRef@VCGrannyMaterial@@@@@0@@Z DD 0ffffffffH
	DD	FLAT:__unwindfunclet$??$_Uninitialized_move@PAV?$CRef@VCGrannyMaterial@@@@V?$allocator@V?$CRef@VCGrannyMaterial@@@@@std@@@std@@YAPAV?$CRef@VCGrannyMaterial@@@@QAV1@0PAV1@AAV?$allocator@V?$CRef@VCGrannyMaterial@@@@@0@@Z$0
__ehfuncinfo$??$_Uninitialized_move@PAV?$CRef@VCGrannyMaterial@@@@V?$allocator@V?$CRef@VCGrannyMaterial@@@@@std@@@std@@YAPAV?$CRef@VCGrannyMaterial@@@@QAV1@0PAV1@AAV?$allocator@V?$CRef@VCGrannyMaterial@@@@@0@@Z DD 019930522H
	DD	01H
	DD	FLAT:__unwindtable$??$_Uninitialized_move@PAV?$CRef@VCGrannyMaterial@@@@V?$allocator@V?$CRef@VCGrannyMaterial@@@@@std@@@std@@YAPAV?$CRef@VCGrannyMaterial@@@@QAV1@0PAV1@AAV?$allocator@V?$CRef@VCGrannyMaterial@@@@@0@@Z
	DD	2 DUP(00H)
	DD	2 DUP(00H)
	DD	00H
	DD	01H
xdata$x	ENDS
;	COMDAT xdata$x
xdata$x	SEGMENT
__ehfuncinfo$??$_Deallocate@$07$0A@@std@@YAXPAXI@Z DD 019930522H
	DD	00H
	DD	00H
	DD	2 DUP(00H)
	DD	2 DUP(00H)
	DD	00H
	DD	05H
xdata$x	ENDS
;	COMDAT xdata$x
xdata$x	SEGMENT
__catchsym$??$_Emplace_reallocate@V?$CRef@VCGrannyMaterial@@@@@?$vector@V?$CRef@VCGrannyMaterial@@@@V?$allocator@V?$CRef@VCGrannyMaterial@@@@@std@@@std@@QAEPAV?$CRef@VCGrannyMaterial@@@@QAV2@$$QAV2@@Z$32 DD 040H
	DD	00H
	DD	00H
	DD	FLAT:__catch$??$_Emplace_reallocate@V?$CRef@VCGrannyMaterial@@@@@?$vector@V?$CRef@VCGrannyMaterial@@@@V?$allocator@V?$CRef@VCGrannyMaterial@@@@@std@@@std@@QAEPAV?$CRef@VCGrannyMaterial@@@@QAV2@$$QAV2@@Z$0
__unwindtable$??$_Emplace_reallocate@V?$CRef@VCGrannyMaterial@@@@@?$vector@V?$CRef@VCGrannyMaterial@@@@V?$allocator@V?$CRef@VCGrannyMaterial@@@@@std@@@std@@QAEPAV?$CRef@VCGrannyMaterial@@@@QAV2@$$QAV2@@Z DD 0ffffffffH
	DD	00H
	DD	0ffffffffH
	DD	00H
__tryblocktable$??$_Emplace_reallocate@V?$CRef@VCGrannyMaterial@@@@@?$vector@V?$CRef@VCGrannyMaterial@@@@V?$allocator@V?$CRef@VCGrannyMaterial@@@@@std@@@std@@QAEPAV?$CRef@VCGrannyMaterial@@@@QAV2@$$QAV2@@Z DD 00H
	DD	00H
	DD	01H
	DD	01H
	DD	FLAT:__catchsym$??$_Emplace_reallocate@V?$CRef@VCGrannyMaterial@@@@@?$vector@V?$CRef@VCGrannyMaterial@@@@V?$allocator@V?$CRef@VCGrannyMaterial@@@@@std@@@std@@QAEPAV?$CRef@VCGrannyMaterial@@@@QAV2@$$QAV2@@Z$32
__ehfuncinfo$??$_Emplace_reallocate@V?$CRef@VCGrannyMaterial@@@@@?$vector@V?$CRef@VCGrannyMaterial@@@@V?$allocator@V?$CRef@VCGrannyMaterial@@@@@std@@@std@@QAEPAV?$CRef@VCGrannyMaterial@@@@QAV2@$$QAV2@@Z DD 019930522H
	DD	02H
	DD	FLAT:__unwindtable$??$_Emplace_reallocate@V?$CRef@VCGrannyMaterial@@@@@?$vector@V?$CRef@VCGrannyMaterial@@@@V?$allocator@V?$CRef@VCGrannyMaterial@@@@@std@@@std@@QAEPAV?$CRef@VCGrannyMaterial@@@@QAV2@$$QAV2@@Z
	DD	01H
	DD	FLAT:__tryblocktable$??$_Emplace_reallocate@V?$CRef@VCGrannyMaterial@@@@@?$vector@V?$CRef@VCGrannyMaterial@@@@V?$allocator@V?$CRef@VCGrannyMaterial@@@@@std@@@std@@QAEPAV?$CRef@VCGrannyMaterial@@@@QAV2@$$QAV2@@Z
	DD	2 DUP(00H)
	DD	00H
	DD	01H
xdata$x	ENDS
;	COMDAT xdata$x
xdata$x	SEGMENT
__unwindtable$??_G?$CRef@VCGrannyMaterial@@@@QAEPAXI@Z DD 0ffffffffH
	DD	FLAT:___std_terminate
__ehfuncinfo$??_G?$CRef@VCGrannyMaterial@@@@QAEPAXI@Z DD 019930522H
	DD	01H
	DD	FLAT:__unwindtable$??_G?$CRef@VCGrannyMaterial@@@@QAEPAXI@Z
	DD	2 DUP(00H)
	DD	2 DUP(00H)
	DD	00H
	DD	05H
xdata$x	ENDS
;	COMDAT xdata$x
xdata$x	SEGMENT
__ehfuncinfo$??1?$CRef@VCGrannyMaterial@@@@QAE@XZ DD 019930522H
	DD	00H
	DD	00H
	DD	2 DUP(00H)
	DD	2 DUP(00H)
	DD	00H
	DD	05H
xdata$x	ENDS
;	COMDAT xdata$x
xdata$x	SEGMENT
__unwindtable$?SetMaterialData@CGrannyMaterialPalette@@QAEXPBDABUSMaterialData@@@Z DD 0ffffffffH
	DD	FLAT:__unwindfunclet$?SetMaterialData@CGrannyMaterialPalette@@QAEXPBDABUSMaterialData@@@Z$0
__ehfuncinfo$?SetMaterialData@CGrannyMaterialPalette@@QAEXPBDABUSMaterialData@@@Z DD 019930522H
	DD	01H
	DD	FLAT:__unwindtable$?SetMaterialData@CGrannyMaterialPalette@@QAEXPBDABUSMaterialData@@@Z
	DD	2 DUP(00H)
	DD	2 DUP(00H)
	DD	00H
	DD	01H
xdata$x	ENDS
;	COMDAT xdata$x
xdata$x	SEGMENT
__unwindtable$?SetMaterialImagePointer@CGrannyMaterialPalette@@QAEXPBDPAVCGraphicImage@@@Z DD 0ffffffffH
	DD	FLAT:__unwindfunclet$?SetMaterialImagePointer@CGrannyMaterialPalette@@QAEXPBDPAVCGraphicImage@@@Z$0
__ehfuncinfo$?SetMaterialImagePointer@CGrannyMaterialPalette@@QAEXPBDPAVCGraphicImage@@@Z DD 019930522H
	DD	01H
	DD	FLAT:__unwindtable$?SetMaterialImagePointer@CGrannyMaterialPalette@@QAEXPBDPAVCGraphicImage@@@Z
	DD	2 DUP(00H)
	DD	2 DUP(00H)
	DD	00H
	DD	01H
xdata$x	ENDS
;	COMDAT xdata$x
xdata$x	SEGMENT
__unwindtable$?RegisterMaterial@CGrannyMaterialPalette@@QAEKPAUgranny_material@@@Z DD 0ffffffffH
	DD	FLAT:__unwindfunclet$?RegisterMaterial@CGrannyMaterialPalette@@QAEKPAUgranny_material@@@Z$0
	DD	0ffffffffH
	DD	FLAT:__unwindfunclet$?RegisterMaterial@CGrannyMaterialPalette@@QAEKPAUgranny_material@@@Z$1
	DD	0ffffffffH
	DD	FLAT:___std_terminate
__ehfuncinfo$?RegisterMaterial@CGrannyMaterialPalette@@QAEKPAUgranny_material@@@Z DD 019930522H
	DD	03H
	DD	FLAT:__unwindtable$?RegisterMaterial@CGrannyMaterialPalette@@QAEKPAUgranny_material@@@Z
	DD	2 DUP(00H)
	DD	2 DUP(00H)
	DD	00H
	DD	01H
xdata$x	ENDS
;	COMDAT xdata$x
xdata$x	SEGMENT
__ehfuncinfo$??1CGrannyMaterialPalette@@UAE@XZ DD 019930522H
	DD	00H
	DD	00H
	DD	2 DUP(00H)
	DD	2 DUP(00H)
	DD	00H
	DD	05H
xdata$x	ENDS
;	COMDAT xdata$x
xdata$x	SEGMENT
__unwindtable$?IsIn@CGrannyMaterial@@QAE_NPBDPAH@Z DD 0ffffffffH
	DD	FLAT:__unwindfunclet$?IsIn@CGrannyMaterial@@QAE_NPBDPAH@Z$0
	DD	00H
	DD	FLAT:__unwindfunclet$?IsIn@CGrannyMaterial@@QAE_NPBDPAH@Z$1
	DD	00H
	DD	FLAT:__unwindfunclet$?IsIn@CGrannyMaterial@@QAE_NPBDPAH@Z$2
__ehfuncinfo$?IsIn@CGrannyMaterial@@QAE_NPBDPAH@Z DD 019930522H
	DD	03H
	DD	FLAT:__unwindtable$?IsIn@CGrannyMaterial@@QAE_NPBDPAH@Z
	DD	2 DUP(00H)
	DD	2 DUP(00H)
	DD	00H
	DD	01H
xdata$x	ENDS
;	COMDAT xdata$x
xdata$x	SEGMENT
__ehfuncinfo$??1CGrannyMaterial@@UAE@XZ DD 019930522H
	DD	00H
	DD	00H
	DD	2 DUP(00H)
	DD	2 DUP(00H)
	DD	00H
	DD	05H
xdata$x	ENDS
;	COMDAT xdata$x
xdata$x	SEGMENT
__unwindtable$??0CGrannyMaterial@@QAE@XZ DD 0ffffffffH
	DD	FLAT:__unwindfunclet$??0CGrannyMaterial@@QAE@XZ$0
	DD	00H
	DD	FLAT:__unwindfunclet$??0CGrannyMaterial@@QAE@XZ$1
__ehfuncinfo$??0CGrannyMaterial@@QAE@XZ DD 019930522H
	DD	02H
	DD	FLAT:__unwindtable$??0CGrannyMaterial@@QAE@XZ
	DD	2 DUP(00H)
	DD	2 DUP(00H)
	DD	00H
	DD	01H
xdata$x	ENDS
;	COMDAT xdata$x
xdata$x	SEGMENT
__ehfuncinfo$??1?$CRef@VCGraphicImage@@@@QAE@XZ DD 019930522H
	DD	00H
	DD	00H
	DD	2 DUP(00H)
	DD	2 DUP(00H)
	DD	00H
	DD	05H
xdata$x	ENDS
;	COMDAT xdata$x
xdata$x	SEGMENT
__unwindtable$??0?$basic_string@DU?$char_traits@D@std@@V?$allocator@D@2@@std@@QAE@QBD@Z DD 0ffffffffH
	DD	FLAT:__unwindfunclet$??0?$basic_string@DU?$char_traits@D@std@@V?$allocator@D@2@@std@@QAE@QBD@Z$0
__ehfuncinfo$??0?$basic_string@DU?$char_traits@D@std@@V?$allocator@D@2@@std@@QAE@QBD@Z DD 019930522H
	DD	01H
	DD	FLAT:__unwindtable$??0?$basic_string@DU?$char_traits@D@std@@V?$allocator@D@2@@std@@QAE@QBD@Z
	DD	2 DUP(00H)
	DD	2 DUP(00H)
	DD	00H
	DD	01H
xdata$x	ENDS
CRT$XCU	SEGMENT
??ms_v3SpecularTrans$initializer$@CGrannyMaterial@@0P6AXXZA@@3P6AXXZA DD FLAT:??__E?ms_v3SpecularTrans@CGrannyMaterial@@0UD3DXVECTOR3@@A@@YAXXZ ; ??ms_v3SpecularTrans$initializer$@CGrannyMaterial@@0P6AXXZA@@3P6AXXZA
CRT$XCU	ENDS
CRT$XCU	SEGMENT
??ms_matSpecular$initializer$@CGrannyMaterial@@0P6AXXZA@@3P6AXXZA DD FLAT:??__E?ms_matSpecular@CGrannyMaterial@@0UD3DXMATRIX@@A@@YAXXZ ; ??ms_matSpecular$initializer$@CGrannyMaterial@@0P6AXXZA@@3P6AXXZA
CRT$XCU	ENDS
CRT$XCU	SEGMENT
?g_fSpecularColor$initializer$@@3P6AXXZA DD FLAT:??__Eg_fSpecularColor@@YAXXZ ; g_fSpecularColor$initializer$
CRT$XCU	ENDS
; Function compile flags: /Odspy
; File C:\Program Files (x86)\Microsoft Visual Studio\2019\Community\VC\Tools\MSVC\14.28.29333\include\xmemory
; File C:\Program Files (x86)\Microsoft Visual Studio\2019\Community\VC\Tools\MSVC\14.28.29333\include\type_traits
; File C:\Program Files (x86)\Microsoft Visual Studio\2019\Community\VC\Tools\MSVC\14.28.29333\include\xmemory
; File C:\Program Files (x86)\Microsoft Visual Studio\2019\Community\VC\Tools\MSVC\14.28.29333\include\xstddef
; File C:\Program Files (x86)\Microsoft Visual Studio\2019\Community\VC\Tools\MSVC\14.28.29333\include\xmemory
; File C:\Program Files (x86)\Microsoft Visual Studio\2019\Community\VC\Tools\MSVC\14.28.29333\include\vcruntime_new.h
; File C:\Program Files (x86)\Microsoft Visual Studio\2019\Community\VC\Tools\MSVC\14.28.29333\include\type_traits
; File D:\Metin2 Server Files\mainline\SRC_2014\Metin2Client\eterlib\Ref.h
; File C:\Program Files (x86)\Microsoft Visual Studio\2019\Community\VC\Tools\MSVC\14.28.29333\include\xmemory
;	COMDAT ??$_Emplace_back@AAV?$CRef@VCGrannyMaterial@@@@@?$_Uninitialized_backout_al@V?$allocator@V?$CRef@VCGrannyMaterial@@@@@std@@@std@@QAEXAAV?$CRef@VCGrannyMaterial@@@@@Z
_TEXT	SEGMENT
___formal$ = -32					; size = 4
_pObject$1 = -28					; size = 4
$T2 = -24						; size = 4
$T3 = -20						; size = 4
$T4 = -16						; size = 4
__Ptr$ = -12						; size = 4
_this$ = -8						; size = 4
$T5 = -4						; size = 4
_<_Vals_0>$ = 8						; size = 4
??$_Emplace_back@AAV?$CRef@VCGrannyMaterial@@@@@?$_Uninitialized_backout_al@V?$allocator@V?$CRef@VCGrannyMaterial@@@@@std@@@std@@QAEXAAV?$CRef@VCGrannyMaterial@@@@@Z PROC ; std::_Uninitialized_backout_al<std::allocator<CRef<CGrannyMaterial> > >::_Emplace_back<CRef<CGrannyMaterial> &>, COMDAT
; _this$ = ecx

; 1545 :     void _Emplace_back(_Types&&... _Vals) { // construct a new element at *_Last and increment

  00000	55		 push	 ebp
  00001	8b ec		 mov	 ebp, esp
  00003	83 ec 20	 sub	 esp, 32			; 00000020H
  00006	89 4d f8	 mov	 DWORD PTR _this$[ebp], ecx
; File C:\Program Files (x86)\Microsoft Visual Studio\2019\Community\VC\Tools\MSVC\14.28.29333\include\type_traits

; 1443 :     return static_cast<_Ty&&>(_Arg);

  00009	8b 45 08	 mov	 eax, DWORD PTR _<_Vals_0>$[ebp]
  0000c	89 45 ec	 mov	 DWORD PTR $T3[ebp], eax
; File C:\Program Files (x86)\Microsoft Visual Studio\2019\Community\VC\Tools\MSVC\14.28.29333\include\xmemory

; 1546 :         allocator_traits<_Alloc>::construct(_Al, _Unfancy(_Last), _STD forward<_Types>(_Vals)...);

  0000f	8b 45 f8	 mov	 eax, DWORD PTR _this$[ebp]
  00012	8b 40 04	 mov	 eax, DWORD PTR [eax+4]
  00015	89 45 f4	 mov	 DWORD PTR __Ptr$[ebp], eax
; File C:\Program Files (x86)\Microsoft Visual Studio\2019\Community\VC\Tools\MSVC\14.28.29333\include\xstddef

; 289  :     return _Ptr;

  00018	8b 45 f4	 mov	 eax, DWORD PTR __Ptr$[ebp]
  0001b	89 45 f0	 mov	 DWORD PTR $T4[ebp], eax
; File C:\Program Files (x86)\Microsoft Visual Studio\2019\Community\VC\Tools\MSVC\14.28.29333\include\xmemory

; 1546 :         allocator_traits<_Alloc>::construct(_Al, _Unfancy(_Last), _STD forward<_Types>(_Vals)...);

  0001e	8b 45 f8	 mov	 eax, DWORD PTR _this$[ebp]
  00021	8b 40 08	 mov	 eax, DWORD PTR [eax+8]
  00024	89 45 e0	 mov	 DWORD PTR ___formal$[ebp], eax
; File C:\Program Files (x86)\Microsoft Visual Studio\2019\Community\VC\Tools\MSVC\14.28.29333\include\vcruntime_new.h

; 169  :         return _Where;

  00027	8b 45 f0	 mov	 eax, DWORD PTR $T4[ebp]
  0002a	89 45 fc	 mov	 DWORD PTR $T5[ebp], eax
; File C:\Program Files (x86)\Microsoft Visual Studio\2019\Community\VC\Tools\MSVC\14.28.29333\include\type_traits

; 1443 :     return static_cast<_Ty&&>(_Arg);

  0002d	8b 45 ec	 mov	 eax, DWORD PTR $T3[ebp]
  00030	89 45 e8	 mov	 DWORD PTR $T2[ebp], eax
; File D:\Metin2 Server Files\mainline\SRC_2014\Metin2Client\eterlib\Ref.h

; 32   : 			m_pObject = NULL;

  00033	8b 45 fc	 mov	 eax, DWORD PTR $T5[ebp]
  00036	83 20 00	 and	 DWORD PTR [eax], 0

; 33   : 			Initialize(c_rRef.m_pObject);			

  00039	8b 45 e8	 mov	 eax, DWORD PTR $T2[ebp]
  0003c	8b 00		 mov	 eax, DWORD PTR [eax]
  0003e	89 45 e4	 mov	 DWORD PTR _pObject$1[ebp], eax

; 94   : 			m_pObject = pObject;

  00041	8b 45 fc	 mov	 eax, DWORD PTR $T5[ebp]
  00044	8b 4d e4	 mov	 ecx, DWORD PTR _pObject$1[ebp]
  00047	89 08		 mov	 DWORD PTR [eax], ecx

; 95   : 
; 96   : 			if (m_pObject)

  00049	8b 45 fc	 mov	 eax, DWORD PTR $T5[ebp]
  0004c	83 38 00	 cmp	 DWORD PTR [eax], 0
  0004f	74 0a		 je	 SHORT $LN9@Emplace_ba

; 97   : 				m_pObject->AddReference();

  00051	8b 45 fc	 mov	 eax, DWORD PTR $T5[ebp]
  00054	8b 08		 mov	 ecx, DWORD PTR [eax]
  00056	e8 00 00 00 00	 call	 ?AddReference@CReferenceObject@@QAEXXZ ; CReferenceObject::AddReference
$LN9@Emplace_ba:
; File C:\Program Files (x86)\Microsoft Visual Studio\2019\Community\VC\Tools\MSVC\14.28.29333\include\xmemory

; 1547 :         ++_Last;

  0005b	8b 45 f8	 mov	 eax, DWORD PTR _this$[ebp]
  0005e	8b 40 04	 mov	 eax, DWORD PTR [eax+4]
  00061	83 c0 04	 add	 eax, 4
  00064	8b 4d f8	 mov	 ecx, DWORD PTR _this$[ebp]
  00067	89 41 04	 mov	 DWORD PTR [ecx+4], eax

; 1548 :     }

  0006a	c9		 leave
  0006b	c2 04 00	 ret	 4
??$_Emplace_back@AAV?$CRef@VCGrannyMaterial@@@@@?$_Uninitialized_backout_al@V?$allocator@V?$CRef@VCGrannyMaterial@@@@@std@@@std@@QAEXAAV?$CRef@VCGrannyMaterial@@@@@Z ENDP ; std::_Uninitialized_backout_al<std::allocator<CRef<CGrannyMaterial> > >::_Emplace_back<CRef<CGrannyMaterial> &>
_TEXT	ENDS
; Function compile flags: /Odspy
; File C:\Program Files (x86)\Microsoft Visual Studio\2019\Community\VC\Tools\MSVC\14.28.29333\include\xmemory
; File C:\Program Files (x86)\Microsoft Visual Studio\2019\Community\VC\Tools\MSVC\14.28.29333\include\type_traits
; File C:\Program Files (x86)\Microsoft Visual Studio\2019\Community\VC\Tools\MSVC\14.28.29333\include\xmemory
; File C:\Program Files (x86)\Microsoft Visual Studio\2019\Community\VC\Tools\MSVC\14.28.29333\include\xstddef
; File C:\Program Files (x86)\Microsoft Visual Studio\2019\Community\VC\Tools\MSVC\14.28.29333\include\xmemory
; File C:\Program Files (x86)\Microsoft Visual Studio\2019\Community\VC\Tools\MSVC\14.28.29333\include\vcruntime_new.h
; File C:\Program Files (x86)\Microsoft Visual Studio\2019\Community\VC\Tools\MSVC\14.28.29333\include\type_traits
; File D:\Metin2 Server Files\mainline\SRC_2014\Metin2Client\eterlib\Ref.h
; File C:\Program Files (x86)\Microsoft Visual Studio\2019\Community\VC\Tools\MSVC\14.28.29333\include\xmemory
;	COMDAT ??$_Emplace_back@V?$CRef@VCGrannyMaterial@@@@@?$_Uninitialized_backout_al@V?$allocator@V?$CRef@VCGrannyMaterial@@@@@std@@@std@@QAEX$$QAV?$CRef@VCGrannyMaterial@@@@@Z
_TEXT	SEGMENT
___formal$ = -32					; size = 4
_pObject$1 = -28					; size = 4
$T2 = -24						; size = 4
$T3 = -20						; size = 4
$T4 = -16						; size = 4
__Ptr$ = -12						; size = 4
_this$ = -8						; size = 4
$T5 = -4						; size = 4
_<_Vals_0>$ = 8						; size = 4
??$_Emplace_back@V?$CRef@VCGrannyMaterial@@@@@?$_Uninitialized_backout_al@V?$allocator@V?$CRef@VCGrannyMaterial@@@@@std@@@std@@QAEX$$QAV?$CRef@VCGrannyMaterial@@@@@Z PROC ; std::_Uninitialized_backout_al<std::allocator<CRef<CGrannyMaterial> > >::_Emplace_back<CRef<CGrannyMaterial> >, COMDAT
; _this$ = ecx

; 1545 :     void _Emplace_back(_Types&&... _Vals) { // construct a new element at *_Last and increment

  00000	55		 push	 ebp
  00001	8b ec		 mov	 ebp, esp
  00003	83 ec 20	 sub	 esp, 32			; 00000020H
  00006	89 4d f8	 mov	 DWORD PTR _this$[ebp], ecx
; File C:\Program Files (x86)\Microsoft Visual Studio\2019\Community\VC\Tools\MSVC\14.28.29333\include\type_traits

; 1443 :     return static_cast<_Ty&&>(_Arg);

  00009	8b 45 08	 mov	 eax, DWORD PTR _<_Vals_0>$[ebp]
  0000c	89 45 ec	 mov	 DWORD PTR $T3[ebp], eax
; File C:\Program Files (x86)\Microsoft Visual Studio\2019\Community\VC\Tools\MSVC\14.28.29333\include\xmemory

; 1546 :         allocator_traits<_Alloc>::construct(_Al, _Unfancy(_Last), _STD forward<_Types>(_Vals)...);

  0000f	8b 45 f8	 mov	 eax, DWORD PTR _this$[ebp]
  00012	8b 40 04	 mov	 eax, DWORD PTR [eax+4]
  00015	89 45 f4	 mov	 DWORD PTR __Ptr$[ebp], eax
; File C:\Program Files (x86)\Microsoft Visual Studio\2019\Community\VC\Tools\MSVC\14.28.29333\include\xstddef

; 289  :     return _Ptr;

  00018	8b 45 f4	 mov	 eax, DWORD PTR __Ptr$[ebp]
  0001b	89 45 f0	 mov	 DWORD PTR $T4[ebp], eax
; File C:\Program Files (x86)\Microsoft Visual Studio\2019\Community\VC\Tools\MSVC\14.28.29333\include\xmemory

; 1546 :         allocator_traits<_Alloc>::construct(_Al, _Unfancy(_Last), _STD forward<_Types>(_Vals)...);

  0001e	8b 45 f8	 mov	 eax, DWORD PTR _this$[ebp]
  00021	8b 40 08	 mov	 eax, DWORD PTR [eax+8]
  00024	89 45 e0	 mov	 DWORD PTR ___formal$[ebp], eax
; File C:\Program Files (x86)\Microsoft Visual Studio\2019\Community\VC\Tools\MSVC\14.28.29333\include\vcruntime_new.h

; 169  :         return _Where;

  00027	8b 45 f0	 mov	 eax, DWORD PTR $T4[ebp]
  0002a	89 45 fc	 mov	 DWORD PTR $T5[ebp], eax
; File C:\Program Files (x86)\Microsoft Visual Studio\2019\Community\VC\Tools\MSVC\14.28.29333\include\type_traits

; 1443 :     return static_cast<_Ty&&>(_Arg);

  0002d	8b 45 ec	 mov	 eax, DWORD PTR $T3[ebp]
  00030	89 45 e8	 mov	 DWORD PTR $T2[ebp], eax
; File D:\Metin2 Server Files\mainline\SRC_2014\Metin2Client\eterlib\Ref.h

; 32   : 			m_pObject = NULL;

  00033	8b 45 fc	 mov	 eax, DWORD PTR $T5[ebp]
  00036	83 20 00	 and	 DWORD PTR [eax], 0

; 33   : 			Initialize(c_rRef.m_pObject);			

  00039	8b 45 e8	 mov	 eax, DWORD PTR $T2[ebp]
  0003c	8b 00		 mov	 eax, DWORD PTR [eax]
  0003e	89 45 e4	 mov	 DWORD PTR _pObject$1[ebp], eax

; 94   : 			m_pObject = pObject;

  00041	8b 45 fc	 mov	 eax, DWORD PTR $T5[ebp]
  00044	8b 4d e4	 mov	 ecx, DWORD PTR _pObject$1[ebp]
  00047	89 08		 mov	 DWORD PTR [eax], ecx

; 95   : 
; 96   : 			if (m_pObject)

  00049	8b 45 fc	 mov	 eax, DWORD PTR $T5[ebp]
  0004c	83 38 00	 cmp	 DWORD PTR [eax], 0
  0004f	74 0a		 je	 SHORT $LN9@Emplace_ba

; 97   : 				m_pObject->AddReference();

  00051	8b 45 fc	 mov	 eax, DWORD PTR $T5[ebp]
  00054	8b 08		 mov	 ecx, DWORD PTR [eax]
  00056	e8 00 00 00 00	 call	 ?AddReference@CReferenceObject@@QAEXXZ ; CReferenceObject::AddReference
$LN9@Emplace_ba:
; File C:\Program Files (x86)\Microsoft Visual Studio\2019\Community\VC\Tools\MSVC\14.28.29333\include\xmemory

; 1547 :         ++_Last;

  0005b	8b 45 f8	 mov	 eax, DWORD PTR _this$[ebp]
  0005e	8b 40 04	 mov	 eax, DWORD PTR [eax+4]
  00061	83 c0 04	 add	 eax, 4
  00064	8b 4d f8	 mov	 ecx, DWORD PTR _this$[ebp]
  00067	89 41 04	 mov	 DWORD PTR [ecx+4], eax

; 1548 :     }

  0006a	c9		 leave
  0006b	c2 04 00	 ret	 4
??$_Emplace_back@V?$CRef@VCGrannyMaterial@@@@@?$_Uninitialized_backout_al@V?$allocator@V?$CRef@VCGrannyMaterial@@@@@std@@@std@@QAEX$$QAV?$CRef@VCGrannyMaterial@@@@@Z ENDP ; std::_Uninitialized_backout_al<std::allocator<CRef<CGrannyMaterial> > >::_Emplace_back<CRef<CGrannyMaterial> >
_TEXT	ENDS
; Function compile flags: /Odspy
; File C:\Program Files (x86)\Microsoft Visual Studio\2019\Community\VC\Tools\MSVC\14.28.29333\include\xmemory
;	COMDAT ??1?$_Uninitialized_backout_al@V?$allocator@V?$CRef@VCGrannyMaterial@@@@@std@@@std@@QAE@XZ
_TEXT	SEGMENT
_this$ = -4						; size = 4
??1?$_Uninitialized_backout_al@V?$allocator@V?$CRef@VCGrannyMaterial@@@@@std@@@std@@QAE@XZ PROC ; std::_Uninitialized_backout_al<std::allocator<CRef<CGrannyMaterial> > >::~_Uninitialized_backout_al<std::allocator<CRef<CGrannyMaterial> > >, COMDAT
; _this$ = ecx

; 1540 :     ~_Uninitialized_backout_al() {

  00000	55		 push	 ebp
  00001	8b ec		 mov	 ebp, esp
  00003	51		 push	 ecx
  00004	89 4d fc	 mov	 DWORD PTR _this$[ebp], ecx

; 1541 :         _Destroy_range(_First, _Last, _Al);

  00007	8b 45 fc	 mov	 eax, DWORD PTR _this$[ebp]
  0000a	ff 70 08	 push	 DWORD PTR [eax+8]
  0000d	8b 45 fc	 mov	 eax, DWORD PTR _this$[ebp]
  00010	ff 70 04	 push	 DWORD PTR [eax+4]
  00013	8b 45 fc	 mov	 eax, DWORD PTR _this$[ebp]
  00016	ff 30		 push	 DWORD PTR [eax]
  00018	e8 00 00 00 00	 call	 ??$_Destroy_range@V?$allocator@V?$CRef@VCGrannyMaterial@@@@@std@@@std@@YAXPAV?$CRef@VCGrannyMaterial@@@@QAV1@AAV?$allocator@V?$CRef@VCGrannyMaterial@@@@@0@@Z ; std::_Destroy_range<std::allocator<CRef<CGrannyMaterial> > >
  0001d	83 c4 0c	 add	 esp, 12			; 0000000cH

; 1542 :     }

  00020	c9		 leave
  00021	c3		 ret	 0
??1?$_Uninitialized_backout_al@V?$allocator@V?$CRef@VCGrannyMaterial@@@@@std@@@std@@QAE@XZ ENDP ; std::_Uninitialized_backout_al<std::allocator<CRef<CGrannyMaterial> > >::~_Uninitialized_backout_al<std::allocator<CRef<CGrannyMaterial> > >
_TEXT	ENDS
; Function compile flags: /Odspy
; File C:\Program Files (x86)\Microsoft Visual Studio\2019\Community\VC\Tools\MSVC\14.28.29333\include\xmemory
;	COMDAT ??$_Uninitialized_copy@PAV?$CRef@VCGrannyMaterial@@@@V?$allocator@V?$CRef@VCGrannyMaterial@@@@@std@@@std@@YAPAV?$CRef@VCGrannyMaterial@@@@QAV1@0PAV1@AAV?$allocator@V?$CRef@VCGrannyMaterial@@@@@0@@Z
_TEXT	SEGMENT
__Backout$2 = -32					; size = 12
__ULast$ = -20						; size = 4
__UFirst$ = -16						; size = 4
__$EHRec$ = -12						; size = 12
__First$ = 8						; size = 4
__Last$ = 12						; size = 4
__Dest$ = 16						; size = 4
__Al$ = 20						; size = 4
??$_Uninitialized_copy@PAV?$CRef@VCGrannyMaterial@@@@V?$allocator@V?$CRef@VCGrannyMaterial@@@@@std@@@std@@YAPAV?$CRef@VCGrannyMaterial@@@@QAV1@0PAV1@AAV?$allocator@V?$CRef@VCGrannyMaterial@@@@@0@@Z PROC ; std::_Uninitialized_copy<CRef<CGrannyMaterial> *,std::allocator<CRef<CGrannyMaterial> > >, COMDAT

; 1565 :     const _InIt _First, const _InIt _Last, _Alloc_ptr_t<_Alloc> _Dest, _Alloc& _Al) {

  00000	55		 push	 ebp
  00001	8b ec		 mov	 ebp, esp
  00003	6a ff		 push	 -1
  00005	68 00 00 00 00	 push	 __ehhandler$??$_Uninitialized_copy@PAV?$CRef@VCGrannyMaterial@@@@V?$allocator@V?$CRef@VCGrannyMaterial@@@@@std@@@std@@YAPAV?$CRef@VCGrannyMaterial@@@@QAV1@0PAV1@AAV?$allocator@V?$CRef@VCGrannyMaterial@@@@@0@@Z
  0000a	64 a1 00 00 00
	00		 mov	 eax, DWORD PTR fs:0
  00010	50		 push	 eax
  00011	83 ec 14	 sub	 esp, 20			; 00000014H
  00014	a1 00 00 00 00	 mov	 eax, DWORD PTR ___security_cookie
  00019	33 c5		 xor	 eax, ebp
  0001b	50		 push	 eax
  0001c	8d 45 f4	 lea	 eax, DWORD PTR __$EHRec$[ebp]
  0001f	64 a3 00 00 00
	00		 mov	 DWORD PTR fs:0, eax

; 1566 :     // copy [_First, _Last) to raw _Dest, using _Al
; 1567 :     // note: only called internally from elsewhere in the STL
; 1568 :     using _Ptrval = typename _Alloc::value_type*;
; 1569 : 
; 1570 :     auto _UFirst      = _Get_unwrapped(_First);

  00025	8b 45 08	 mov	 eax, DWORD PTR __First$[ebp]
  00028	89 45 f0	 mov	 DWORD PTR __UFirst$[ebp], eax

; 1571 :     const auto _ULast = _Get_unwrapped(_Last);

  0002b	8b 45 0c	 mov	 eax, DWORD PTR __Last$[ebp]
  0002e	89 45 ec	 mov	 DWORD PTR __ULast$[ebp], eax

; 1535 :     _Uninitialized_backout_al(pointer _Dest, _Alloc& _Al_) : _First(_Dest), _Last(_Dest), _Al(_Al_) {}

  00031	8b 45 10	 mov	 eax, DWORD PTR __Dest$[ebp]
  00034	89 45 e0	 mov	 DWORD PTR __Backout$2[ebp], eax
  00037	8b 45 10	 mov	 eax, DWORD PTR __Dest$[ebp]
  0003a	89 45 e4	 mov	 DWORD PTR __Backout$2[ebp+4], eax
  0003d	8b 45 14	 mov	 eax, DWORD PTR __Al$[ebp]
  00040	89 45 e8	 mov	 DWORD PTR __Backout$2[ebp+8], eax

; 1572 : 
; 1573 :     if constexpr (conjunction_v<bool_constant<_Ptr_copy_cat<decltype(_UFirst), _Ptrval>::_Really_trivial>,
; 1574 :                       _Uses_default_construct<_Alloc, _Ptrval, decltype(*_UFirst)>>) {
; 1575 :         _Copy_memmove(_UFirst, _ULast, _Unfancy(_Dest));
; 1576 :         _Dest += _ULast - _UFirst;
; 1577 :     } else {
; 1578 :         _Uninitialized_backout_al<_Alloc> _Backout{_Dest, _Al};

  00043	83 65 fc 00	 and	 DWORD PTR __$EHRec$[ebp+8], 0

; 1579 :         for (; _UFirst != _ULast; ++_UFirst) {

  00047	eb 09		 jmp	 SHORT $LN4@Uninitiali
$LN2@Uninitiali:
  00049	8b 45 f0	 mov	 eax, DWORD PTR __UFirst$[ebp]
  0004c	83 c0 04	 add	 eax, 4
  0004f	89 45 f0	 mov	 DWORD PTR __UFirst$[ebp], eax
$LN4@Uninitiali:
  00052	8b 45 f0	 mov	 eax, DWORD PTR __UFirst$[ebp]
  00055	3b 45 ec	 cmp	 eax, DWORD PTR __ULast$[ebp]
  00058	74 0d		 je	 SHORT $LN3@Uninitiali

; 1580 :             _Backout._Emplace_back(*_UFirst);

  0005a	ff 75 f0	 push	 DWORD PTR __UFirst$[ebp]
  0005d	8d 4d e0	 lea	 ecx, DWORD PTR __Backout$2[ebp]
  00060	e8 00 00 00 00	 call	 ??$_Emplace_back@AAV?$CRef@VCGrannyMaterial@@@@@?$_Uninitialized_backout_al@V?$allocator@V?$CRef@VCGrannyMaterial@@@@@std@@@std@@QAEXAAV?$CRef@VCGrannyMaterial@@@@@Z ; std::_Uninitialized_backout_al<std::allocator<CRef<CGrannyMaterial> > >::_Emplace_back<CRef<CGrannyMaterial> &>

; 1581 :         }

  00065	eb e2		 jmp	 SHORT $LN2@Uninitiali
$LN3@Uninitiali:

; 1551 :         _First = _Last;

  00067	8b 45 e4	 mov	 eax, DWORD PTR __Backout$2[ebp+4]
  0006a	89 45 e0	 mov	 DWORD PTR __Backout$2[ebp], eax

; 1552 :         return _Last;

  0006d	8b 45 e4	 mov	 eax, DWORD PTR __Backout$2[ebp+4]
  00070	89 45 10	 mov	 DWORD PTR __Dest$[ebp], eax

; 1582 : 
; 1583 :         _Dest = _Backout._Release();
; 1584 :     }

  00073	83 4d fc ff	 or	 DWORD PTR __$EHRec$[ebp+8], -1

; 1541 :         _Destroy_range(_First, _Last, _Al);

  00077	ff 75 e8	 push	 DWORD PTR __Backout$2[ebp+8]
  0007a	ff 75 e4	 push	 DWORD PTR __Backout$2[ebp+4]
  0007d	ff 75 e0	 push	 DWORD PTR __Backout$2[ebp]
  00080	e8 00 00 00 00	 call	 ??$_Destroy_range@V?$allocator@V?$CRef@VCGrannyMaterial@@@@@std@@@std@@YAXPAV?$CRef@VCGrannyMaterial@@@@QAV1@AAV?$allocator@V?$CRef@VCGrannyMaterial@@@@@0@@Z ; std::_Destroy_range<std::allocator<CRef<CGrannyMaterial> > >
  00085	83 c4 0c	 add	 esp, 12			; 0000000cH

; 1585 : 
; 1586 :     return _Dest;

  00088	8b 45 10	 mov	 eax, DWORD PTR __Dest$[ebp]

; 1587 : }

  0008b	8b 4d f4	 mov	 ecx, DWORD PTR __$EHRec$[ebp]
  0008e	64 89 0d 00 00
	00 00		 mov	 DWORD PTR fs:0, ecx
  00095	59		 pop	 ecx
  00096	c9		 leave
  00097	c3		 ret	 0
_TEXT	ENDS
;	COMDAT text$x
text$x	SEGMENT
__unwindfunclet$??$_Uninitialized_copy@PAV?$CRef@VCGrannyMaterial@@@@V?$allocator@V?$CRef@VCGrannyMaterial@@@@@std@@@std@@YAPAV?$CRef@VCGrannyMaterial@@@@QAV1@0PAV1@AAV?$allocator@V?$CRef@VCGrannyMaterial@@@@@0@@Z$0:
  00000	8d 4d e0	 lea	 ecx, DWORD PTR __Backout$2[ebp]
  00003	e9 00 00 00 00	 jmp	 ??1?$_Uninitialized_backout_al@V?$allocator@V?$CRef@VCGrannyMaterial@@@@@std@@@std@@QAE@XZ ; std::_Uninitialized_backout_al<std::allocator<CRef<CGrannyMaterial> > >::~_Uninitialized_backout_al<std::allocator<CRef<CGrannyMaterial> > >
  00008	cc		 int	 3
  00009	cc		 int	 3
  0000a	cc		 int	 3
  0000b	cc		 int	 3
  0000c	cc		 int	 3
__ehhandler$??$_Uninitialized_copy@PAV?$CRef@VCGrannyMaterial@@@@V?$allocator@V?$CRef@VCGrannyMaterial@@@@@std@@@std@@YAPAV?$CRef@VCGrannyMaterial@@@@QAV1@0PAV1@AAV?$allocator@V?$CRef@VCGrannyMaterial@@@@@0@@Z:
  0000d	90		 npad	 1
  0000e	90		 npad	 1
  0000f	8b 54 24 08	 mov	 edx, DWORD PTR [esp+8]
  00013	8d 42 0c	 lea	 eax, DWORD PTR [edx+12]
  00016	8b 4a e8	 mov	 ecx, DWORD PTR [edx-24]
  00019	33 c8		 xor	 ecx, eax
  0001b	e8 00 00 00 00	 call	 @__security_check_cookie@4
  00020	b8 00 00 00 00	 mov	 eax, OFFSET __ehfuncinfo$??$_Uninitialized_copy@PAV?$CRef@VCGrannyMaterial@@@@V?$allocator@V?$CRef@VCGrannyMaterial@@@@@std@@@std@@YAPAV?$CRef@VCGrannyMaterial@@@@QAV1@0PAV1@AAV?$allocator@V?$CRef@VCGrannyMaterial@@@@@0@@Z
  00025	e9 00 00 00 00	 jmp	 ___CxxFrameHandler3
text$x	ENDS
??$_Uninitialized_copy@PAV?$CRef@VCGrannyMaterial@@@@V?$allocator@V?$CRef@VCGrannyMaterial@@@@@std@@@std@@YAPAV?$CRef@VCGrannyMaterial@@@@QAV1@0PAV1@AAV?$allocator@V?$CRef@VCGrannyMaterial@@@@@0@@Z ENDP ; std::_Uninitialized_copy<CRef<CGrannyMaterial> *,std::allocator<CRef<CGrannyMaterial> > >
; Function compile flags: /Odspy
; File C:\Program Files (x86)\Microsoft Visual Studio\2019\Community\VC\Tools\MSVC\14.28.29333\include\xmemory
; File C:\Program Files (x86)\Microsoft Visual Studio\2019\Community\VC\Tools\MSVC\14.28.29333\include\type_traits
; File C:\Program Files (x86)\Microsoft Visual Studio\2019\Community\VC\Tools\MSVC\14.28.29333\include\xmemory
;	COMDAT ??$_Uninitialized_move@PAV?$CRef@VCGrannyMaterial@@@@V?$allocator@V?$CRef@VCGrannyMaterial@@@@@std@@@std@@YAPAV?$CRef@VCGrannyMaterial@@@@QAV1@0PAV1@AAV?$allocator@V?$CRef@VCGrannyMaterial@@@@@0@@Z
_TEXT	SEGMENT
__Backout$2 = -40					; size = 12
$T3 = -28						; size = 4
$T4 = -24						; size = 4
__ULast$ = -20						; size = 4
__UFirst$ = -16						; size = 4
__$EHRec$ = -12						; size = 12
__First$ = 8						; size = 4
__Last$ = 12						; size = 4
__Dest$ = 16						; size = 4
__Al$ = 20						; size = 4
??$_Uninitialized_move@PAV?$CRef@VCGrannyMaterial@@@@V?$allocator@V?$CRef@VCGrannyMaterial@@@@@std@@@std@@YAPAV?$CRef@VCGrannyMaterial@@@@QAV1@0PAV1@AAV?$allocator@V?$CRef@VCGrannyMaterial@@@@@0@@Z PROC ; std::_Uninitialized_move<CRef<CGrannyMaterial> *,std::allocator<CRef<CGrannyMaterial> > >, COMDAT

; 1685 :     const _InIt _First, const _InIt _Last, _Alloc_ptr_t<_Alloc> _Dest, _Alloc& _Al) {

  00000	55		 push	 ebp
  00001	8b ec		 mov	 ebp, esp
  00003	6a ff		 push	 -1
  00005	68 00 00 00 00	 push	 __ehhandler$??$_Uninitialized_move@PAV?$CRef@VCGrannyMaterial@@@@V?$allocator@V?$CRef@VCGrannyMaterial@@@@@std@@@std@@YAPAV?$CRef@VCGrannyMaterial@@@@QAV1@0PAV1@AAV?$allocator@V?$CRef@VCGrannyMaterial@@@@@0@@Z
  0000a	64 a1 00 00 00
	00		 mov	 eax, DWORD PTR fs:0
  00010	50		 push	 eax
  00011	83 ec 1c	 sub	 esp, 28			; 0000001cH
  00014	a1 00 00 00 00	 mov	 eax, DWORD PTR ___security_cookie
  00019	33 c5		 xor	 eax, ebp
  0001b	50		 push	 eax
  0001c	8d 45 f4	 lea	 eax, DWORD PTR __$EHRec$[ebp]
  0001f	64 a3 00 00 00
	00		 mov	 DWORD PTR fs:0, eax

; 1686 :     // move [_First, _Last) to raw _Dest, using _Al
; 1687 :     // note: only called internally from elsewhere in the STL
; 1688 :     using _Ptrval     = typename _Alloc::value_type*;
; 1689 :     auto _UFirst      = _Get_unwrapped(_First);

  00025	8b 45 08	 mov	 eax, DWORD PTR __First$[ebp]
  00028	89 45 f0	 mov	 DWORD PTR __UFirst$[ebp], eax

; 1690 :     const auto _ULast = _Get_unwrapped(_Last);

  0002b	8b 45 0c	 mov	 eax, DWORD PTR __Last$[ebp]
  0002e	89 45 ec	 mov	 DWORD PTR __ULast$[ebp], eax

; 1535 :     _Uninitialized_backout_al(pointer _Dest, _Alloc& _Al_) : _First(_Dest), _Last(_Dest), _Al(_Al_) {}

  00031	8b 45 10	 mov	 eax, DWORD PTR __Dest$[ebp]
  00034	89 45 d8	 mov	 DWORD PTR __Backout$2[ebp], eax
  00037	8b 45 10	 mov	 eax, DWORD PTR __Dest$[ebp]
  0003a	89 45 dc	 mov	 DWORD PTR __Backout$2[ebp+4], eax
  0003d	8b 45 14	 mov	 eax, DWORD PTR __Al$[ebp]
  00040	89 45 e0	 mov	 DWORD PTR __Backout$2[ebp+8], eax

; 1691 :     if constexpr (conjunction_v<bool_constant<_Ptr_move_cat<decltype(_UFirst), _Ptrval>::_Really_trivial>,
; 1692 :                       _Uses_default_construct<_Alloc, _Ptrval, decltype(_STD move(*_UFirst))>>) {
; 1693 :         _Copy_memmove(_UFirst, _ULast, _Unfancy(_Dest));
; 1694 :         return _Dest + (_ULast - _UFirst);
; 1695 :     } else {
; 1696 :         _Uninitialized_backout_al<_Alloc> _Backout{_Dest, _Al};

  00043	83 65 fc 00	 and	 DWORD PTR __$EHRec$[ebp+8], 0

; 1697 :         for (; _UFirst != _ULast; ++_UFirst) {

  00047	eb 09		 jmp	 SHORT $LN4@Uninitiali
$LN2@Uninitiali:
  00049	8b 45 f0	 mov	 eax, DWORD PTR __UFirst$[ebp]
  0004c	83 c0 04	 add	 eax, 4
  0004f	89 45 f0	 mov	 DWORD PTR __UFirst$[ebp], eax
$LN4@Uninitiali:
  00052	8b 45 f0	 mov	 eax, DWORD PTR __UFirst$[ebp]
  00055	3b 45 ec	 cmp	 eax, DWORD PTR __ULast$[ebp]
  00058	74 13		 je	 SHORT $LN3@Uninitiali
; File C:\Program Files (x86)\Microsoft Visual Studio\2019\Community\VC\Tools\MSVC\14.28.29333\include\type_traits

; 1455 :     return static_cast<remove_reference_t<_Ty>&&>(_Arg);

  0005a	8b 45 f0	 mov	 eax, DWORD PTR __UFirst$[ebp]
  0005d	89 45 e8	 mov	 DWORD PTR $T4[ebp], eax
; File C:\Program Files (x86)\Microsoft Visual Studio\2019\Community\VC\Tools\MSVC\14.28.29333\include\xmemory

; 1698 :             _Backout._Emplace_back(_STD move(*_UFirst));

  00060	ff 75 e8	 push	 DWORD PTR $T4[ebp]
  00063	8d 4d d8	 lea	 ecx, DWORD PTR __Backout$2[ebp]
  00066	e8 00 00 00 00	 call	 ??$_Emplace_back@V?$CRef@VCGrannyMaterial@@@@@?$_Uninitialized_backout_al@V?$allocator@V?$CRef@VCGrannyMaterial@@@@@std@@@std@@QAEX$$QAV?$CRef@VCGrannyMaterial@@@@@Z ; std::_Uninitialized_backout_al<std::allocator<CRef<CGrannyMaterial> > >::_Emplace_back<CRef<CGrannyMaterial> >

; 1699 :         }

  0006b	eb dc		 jmp	 SHORT $LN2@Uninitiali
$LN3@Uninitiali:

; 1551 :         _First = _Last;

  0006d	8b 45 dc	 mov	 eax, DWORD PTR __Backout$2[ebp+4]
  00070	89 45 d8	 mov	 DWORD PTR __Backout$2[ebp], eax

; 1552 :         return _Last;

  00073	8b 45 dc	 mov	 eax, DWORD PTR __Backout$2[ebp+4]
  00076	89 45 e4	 mov	 DWORD PTR $T3[ebp], eax

; 1700 : 
; 1701 :         return _Backout._Release();

  00079	83 4d fc ff	 or	 DWORD PTR __$EHRec$[ebp+8], -1

; 1541 :         _Destroy_range(_First, _Last, _Al);

  0007d	ff 75 e0	 push	 DWORD PTR __Backout$2[ebp+8]
  00080	ff 75 dc	 push	 DWORD PTR __Backout$2[ebp+4]
  00083	ff 75 d8	 push	 DWORD PTR __Backout$2[ebp]
  00086	e8 00 00 00 00	 call	 ??$_Destroy_range@V?$allocator@V?$CRef@VCGrannyMaterial@@@@@std@@@std@@YAXPAV?$CRef@VCGrannyMaterial@@@@QAV1@AAV?$allocator@V?$CRef@VCGrannyMaterial@@@@@0@@Z ; std::_Destroy_range<std::allocator<CRef<CGrannyMaterial> > >
  0008b	83 c4 0c	 add	 esp, 12			; 0000000cH

; 1700 : 
; 1701 :         return _Backout._Release();

  0008e	8b 45 e4	 mov	 eax, DWORD PTR $T3[ebp]

; 1702 :     }
; 1703 : }

  00091	8b 4d f4	 mov	 ecx, DWORD PTR __$EHRec$[ebp]
  00094	64 89 0d 00 00
	00 00		 mov	 DWORD PTR fs:0, ecx
  0009b	59		 pop	 ecx
  0009c	c9		 leave
  0009d	c3		 ret	 0
_TEXT	ENDS
;	COMDAT text$x
text$x	SEGMENT
__unwindfunclet$??$_Uninitialized_move@PAV?$CRef@VCGrannyMaterial@@@@V?$allocator@V?$CRef@VCGrannyMaterial@@@@@std@@@std@@YAPAV?$CRef@VCGrannyMaterial@@@@QAV1@0PAV1@AAV?$allocator@V?$CRef@VCGrannyMaterial@@@@@0@@Z$0:
  00000	8d 4d d8	 lea	 ecx, DWORD PTR __Backout$2[ebp]
  00003	e9 00 00 00 00	 jmp	 ??1?$_Uninitialized_backout_al@V?$allocator@V?$CRef@VCGrannyMaterial@@@@@std@@@std@@QAE@XZ ; std::_Uninitialized_backout_al<std::allocator<CRef<CGrannyMaterial> > >::~_Uninitialized_backout_al<std::allocator<CRef<CGrannyMaterial> > >
  00008	cc		 int	 3
  00009	cc		 int	 3
  0000a	cc		 int	 3
  0000b	cc		 int	 3
  0000c	cc		 int	 3
__ehhandler$??$_Uninitialized_move@PAV?$CRef@VCGrannyMaterial@@@@V?$allocator@V?$CRef@VCGrannyMaterial@@@@@std@@@std@@YAPAV?$CRef@VCGrannyMaterial@@@@QAV1@0PAV1@AAV?$allocator@V?$CRef@VCGrannyMaterial@@@@@0@@Z:
  0000d	90		 npad	 1
  0000e	90		 npad	 1
  0000f	8b 54 24 08	 mov	 edx, DWORD PTR [esp+8]
  00013	8d 42 0c	 lea	 eax, DWORD PTR [edx+12]
  00016	8b 4a e0	 mov	 ecx, DWORD PTR [edx-32]
  00019	33 c8		 xor	 ecx, eax
  0001b	e8 00 00 00 00	 call	 @__security_check_cookie@4
  00020	b8 00 00 00 00	 mov	 eax, OFFSET __ehfuncinfo$??$_Uninitialized_move@PAV?$CRef@VCGrannyMaterial@@@@V?$allocator@V?$CRef@VCGrannyMaterial@@@@@std@@@std@@YAPAV?$CRef@VCGrannyMaterial@@@@QAV1@0PAV1@AAV?$allocator@V?$CRef@VCGrannyMaterial@@@@@0@@Z
  00025	e9 00 00 00 00	 jmp	 ___CxxFrameHandler3
text$x	ENDS
??$_Uninitialized_move@PAV?$CRef@VCGrannyMaterial@@@@V?$allocator@V?$CRef@VCGrannyMaterial@@@@@std@@@std@@YAPAV?$CRef@VCGrannyMaterial@@@@QAV1@0PAV1@AAV?$allocator@V?$CRef@VCGrannyMaterial@@@@@0@@Z ENDP ; std::_Uninitialized_move<CRef<CGrannyMaterial> *,std::allocator<CRef<CGrannyMaterial> > >
; Function compile flags: /Odspy
; File C:\Program Files (x86)\Microsoft Visual Studio\2019\Community\VC\Tools\MSVC\14.28.29333\include\xmemory
;	COMDAT ??$_Allocate_manually_vector_aligned@U_Default_allocate_traits@std@@@std@@YAPAXI@Z
_TEXT	SEGMENT
__Ptr$ = -12						; size = 4
__Block_size$ = -8					; size = 4
__Ptr_container$ = -4					; size = 4
__Bytes$ = 8						; size = 4
??$_Allocate_manually_vector_aligned@U_Default_allocate_traits@std@@@std@@YAPAXI@Z PROC ; std::_Allocate_manually_vector_aligned<std::_Default_allocate_traits>, COMDAT

; 113  : __declspec(allocator) void* _Allocate_manually_vector_aligned(const size_t _Bytes) {

  00000	55		 push	 ebp
  00001	8b ec		 mov	 ebp, esp
  00003	83 ec 0c	 sub	 esp, 12			; 0000000cH

; 114  :     // allocate _Bytes manually aligned to at least _Big_allocation_alignment
; 115  :     const size_t _Block_size = _Non_user_size + _Bytes;

  00006	8b 45 08	 mov	 eax, DWORD PTR __Bytes$[ebp]
  00009	83 c0 23	 add	 eax, 35			; 00000023H
  0000c	89 45 f8	 mov	 DWORD PTR __Block_size$[ebp], eax

; 116  :     if (_Block_size <= _Bytes) {

  0000f	8b 45 f8	 mov	 eax, DWORD PTR __Block_size$[ebp]
  00012	3b 45 08	 cmp	 eax, DWORD PTR __Bytes$[ebp]
  00015	77 05		 ja	 SHORT $LN12@Allocate_m

; 117  :         _Throw_bad_array_new_length(); // add overflow

  00017	e8 00 00 00 00	 call	 ?_Throw_bad_array_new_length@std@@YAXXZ ; std::_Throw_bad_array_new_length
$LN12@Allocate_m:

; 77   :         return ::operator new(_Bytes);

  0001c	ff 75 f8	 push	 DWORD PTR __Block_size$[ebp]
  0001f	e8 00 00 00 00	 call	 ??2@YAPAXI@Z		; operator new
  00024	59		 pop	 ecx

; 118  :     }
; 119  : 
; 120  :     const uintptr_t _Ptr_container = reinterpret_cast<uintptr_t>(_Traits::_Allocate(_Block_size));

  00025	89 45 fc	 mov	 DWORD PTR __Ptr_container$[ebp], eax
$LN4@Allocate_m:

; 121  :     _STL_VERIFY(_Ptr_container != 0, "invalid argument"); // validate even in release since we're doing p[-1]

  00028	83 7d fc 00	 cmp	 DWORD PTR __Ptr_container$[ebp], 0
  0002c	74 02		 je	 SHORT $LN7@Allocate_m
  0002e	eb 09		 jmp	 SHORT $LN2@Allocate_m
$LN7@Allocate_m:
  00030	e8 00 00 00 00	 call	 __invalid_parameter_noinfo_noreturn
  00035	33 c0		 xor	 eax, eax
  00037	75 f7		 jne	 SHORT $LN7@Allocate_m
$LN2@Allocate_m:
  00039	33 c0		 xor	 eax, eax
  0003b	75 eb		 jne	 SHORT $LN4@Allocate_m

; 122  :     void* const _Ptr = reinterpret_cast<void*>((_Ptr_container + _Non_user_size) & ~(_Big_allocation_alignment - 1));

  0003d	8b 45 fc	 mov	 eax, DWORD PTR __Ptr_container$[ebp]
  00040	83 c0 23	 add	 eax, 35			; 00000023H
  00043	83 e0 e0	 and	 eax, -32		; ffffffe0H
  00046	89 45 f4	 mov	 DWORD PTR __Ptr$[ebp], eax

; 123  :     static_cast<uintptr_t*>(_Ptr)[-1] = _Ptr_container;

  00049	6a 04		 push	 4
  0004b	58		 pop	 eax
  0004c	6b c0 ff	 imul	 eax, eax, -1
  0004f	8b 4d f4	 mov	 ecx, DWORD PTR __Ptr$[ebp]
  00052	8b 55 fc	 mov	 edx, DWORD PTR __Ptr_container$[ebp]
  00055	89 14 01	 mov	 DWORD PTR [ecx+eax], edx

; 124  : 
; 125  : #ifdef _DEBUG
; 126  :     static_cast<uintptr_t*>(_Ptr)[-2] = _Big_allocation_sentinel;
; 127  : #endif // _DEBUG
; 128  :     return _Ptr;

  00058	8b 45 f4	 mov	 eax, DWORD PTR __Ptr$[ebp]
$LN11@Allocate_m:

; 129  : }

  0005b	c9		 leave
  0005c	c3		 ret	 0
??$_Allocate_manually_vector_aligned@U_Default_allocate_traits@std@@@std@@YAPAXI@Z ENDP ; std::_Allocate_manually_vector_aligned<std::_Default_allocate_traits>
_TEXT	ENDS
; Function compile flags: /Odspy
; File C:\Program Files (x86)\Microsoft Visual Studio\2019\Community\VC\Tools\MSVC\14.28.29333\include\vector
; File C:\Program Files (x86)\Microsoft Visual Studio\2019\Community\VC\Tools\MSVC\14.28.29333\include\xutility
; File C:\Program Files (x86)\Microsoft Visual Studio\2019\Community\VC\Tools\MSVC\14.28.29333\include\xmemory
; File C:\Program Files (x86)\Microsoft Visual Studio\2019\Community\VC\Tools\MSVC\14.28.29333\include\vector
; File C:\Program Files (x86)\Microsoft Visual Studio\2019\Community\VC\Tools\MSVC\14.28.29333\include\xutility
; File C:\Program Files (x86)\Microsoft Visual Studio\2019\Community\VC\Tools\MSVC\14.28.29333\include\vector
; File C:\Program Files (x86)\Microsoft Visual Studio\2019\Community\VC\Tools\MSVC\14.28.29333\include\xutility
; File D:\Metin2 Server Files\mainline\SRC_2014\Metin2Client\eterlib\Ref.h
; File C:\Program Files (x86)\Microsoft Visual Studio\2019\Community\VC\Tools\MSVC\14.28.29333\include\xutility
; File C:\Program Files (x86)\Microsoft Visual Studio\2019\Community\VC\Tools\MSVC\14.28.29333\include\vector
; File C:\Program Files (x86)\Microsoft Visual Studio\2019\Community\VC\Tools\MSVC\14.28.29333\include\xmemory
; File C:\Program Files (x86)\Microsoft Visual Studio\2019\Community\VC\Tools\MSVC\14.28.29333\include\vector
; File C:\Program Files (x86)\Microsoft Visual Studio\2019\Community\VC\Tools\MSVC\14.28.29333\include\xutility
; File D:\Metin2 Server Files\mainline\SRC_2014\Metin2Client\eterlib\Ref.h
; File C:\Program Files (x86)\Microsoft Visual Studio\2019\Community\VC\Tools\MSVC\14.28.29333\include\xutility
; File C:\Program Files (x86)\Microsoft Visual Studio\2019\Community\VC\Tools\MSVC\14.28.29333\include\vector
; File C:\Program Files (x86)\Microsoft Visual Studio\2019\Community\VC\Tools\MSVC\14.28.29333\include\xmemory
; File C:\Program Files (x86)\Microsoft Visual Studio\2019\Community\VC\Tools\MSVC\14.28.29333\include\vector
;	COMDAT ??$_Assign_range@PAV?$CRef@VCGrannyMaterial@@@@@?$vector@V?$CRef@VCGrannyMaterial@@@@V?$allocator@V?$CRef@VCGrannyMaterial@@@@@std@@@std@@AAEXPAV?$CRef@VCGrannyMaterial@@@@0Uforward_iterator_tag@1@@Z
_TEXT	SEGMENT
__Last$ = -84						; size = 4
$T1 = -80						; size = 4
$T2 = -76						; size = 4
__Dest$ = -72						; size = 4
$T3 = -68						; size = 4
$T4 = -64						; size = 4
__Oldcapacity$5 = -60					; size = 4
__Myend$ = -56						; size = 4
__Newlast$6 = -52					; size = 4
__Mid$7 = -48						; size = 4
__Dest$ = -44						; size = 4
__Dest$ = -40						; size = 4
__First$ = -36						; size = 4
__Oldsize$8 = -32					; size = 4
__My_data$ = -28					; size = 4
_this$ = -24						; size = 4
__First$ = -20						; size = 4
__Newsize$ = -16					; size = 4
__First$ = -12						; size = 4
__Mylast$ = -8						; size = 4
__Myfirst$ = -4						; size = 4
__First$ = 8						; size = 4
__Last$ = 12						; size = 4
___formal$ = 16						; size = 1
??$_Assign_range@PAV?$CRef@VCGrannyMaterial@@@@@?$vector@V?$CRef@VCGrannyMaterial@@@@V?$allocator@V?$CRef@VCGrannyMaterial@@@@@std@@@std@@AAEXPAV?$CRef@VCGrannyMaterial@@@@0Uforward_iterator_tag@1@@Z PROC ; std::vector<CRef<CGrannyMaterial>,std::allocator<CRef<CGrannyMaterial> > >::_Assign_range<CRef<CGrannyMaterial> *>, COMDAT
; _this$ = ecx

; 1094 :     void _Assign_range(_Iter _First, _Iter _Last, forward_iterator_tag) { // assign forward range [_First, _Last)

  00000	55		 push	 ebp
  00001	8b ec		 mov	 ebp, esp
  00003	83 ec 54	 sub	 esp, 84			; 00000054H
  00006	89 4d e8	 mov	 DWORD PTR _this$[ebp], ecx
; File C:\Program Files (x86)\Microsoft Visual Studio\2019\Community\VC\Tools\MSVC\14.28.29333\include\xutility

; 1794 :         return _Last - _First; // assume the iterator will do debug checking

  00009	8b 45 0c	 mov	 eax, DWORD PTR __Last$[ebp]
  0000c	2b 45 08	 sub	 eax, DWORD PTR __First$[ebp]
  0000f	c1 f8 02	 sar	 eax, 2
; File C:\Program Files (x86)\Microsoft Visual Studio\2019\Community\VC\Tools\MSVC\14.28.29333\include\xmemory

; 997  :     return _Len;

  00012	89 45 f0	 mov	 DWORD PTR __Newsize$[ebp], eax
; File C:\Program Files (x86)\Microsoft Visual Studio\2019\Community\VC\Tools\MSVC\14.28.29333\include\vector

; 1096 :         auto& _My_data      = _Mypair._Myval2;

  00015	8b 45 e8	 mov	 eax, DWORD PTR _this$[ebp]
  00018	89 45 e4	 mov	 DWORD PTR __My_data$[ebp], eax

; 1097 :         pointer& _Myfirst   = _My_data._Myfirst;

  0001b	8b 45 e4	 mov	 eax, DWORD PTR __My_data$[ebp]
  0001e	89 45 fc	 mov	 DWORD PTR __Myfirst$[ebp], eax

; 1098 :         pointer& _Mylast    = _My_data._Mylast;

  00021	8b 45 e4	 mov	 eax, DWORD PTR __My_data$[ebp]
  00024	83 c0 04	 add	 eax, 4
  00027	89 45 f8	 mov	 DWORD PTR __Mylast$[ebp], eax

; 1099 :         pointer& _Myend     = _My_data._Myend;

  0002a	8b 45 e4	 mov	 eax, DWORD PTR __My_data$[ebp]
  0002d	83 c0 08	 add	 eax, 8
  00030	89 45 c8	 mov	 DWORD PTR __Myend$[ebp], eax

; 1100 : 
; 1101 :         _My_data._Orphan_all();
; 1102 : 
; 1103 : #if _HAS_IF_CONSTEXPR
; 1104 :         if constexpr (conjunction_v<bool_constant<_Ptr_copy_cat<_Iter, _Ty*>::_Trivially_copyable>,
; 1105 :                           _Uses_default_construct<_Alty, _Ty*, decltype(*_First)>,
; 1106 :                           _Uses_default_destroy<_Alty, _Ty*>>) {
; 1107 :             const auto _Oldcapacity = static_cast<size_type>(_Myend - _Myfirst);
; 1108 :             if (_Newsize > _Oldcapacity) {
; 1109 :                 _Clear_and_reserve_geometric(_Newsize);
; 1110 :             }
; 1111 : 
; 1112 :             _Mylast = _Refancy<pointer>(_Copy_memmove(_First, _Last, _Unfancy(_Myfirst)));
; 1113 :         } else
; 1114 : #endif // _HAS_IF_CONSTEXPR
; 1115 :         {
; 1116 :             auto _Oldsize = static_cast<size_type>(_Mylast - _Myfirst);

  00033	8b 45 f8	 mov	 eax, DWORD PTR __Mylast$[ebp]
  00036	8b 4d fc	 mov	 ecx, DWORD PTR __Myfirst$[ebp]
  00039	8b 00		 mov	 eax, DWORD PTR [eax]
  0003b	2b 01		 sub	 eax, DWORD PTR [ecx]
  0003d	c1 f8 02	 sar	 eax, 2
  00040	89 45 e0	 mov	 DWORD PTR __Oldsize$8[ebp], eax

; 1117 : 
; 1118 :             if (_Newsize > _Oldsize) {

  00043	8b 45 f0	 mov	 eax, DWORD PTR __Newsize$[ebp]
  00046	3b 45 e0	 cmp	 eax, DWORD PTR __Oldsize$8[ebp]
  00049	0f 86 a7 00 00
	00		 jbe	 $LN2@Assign_ran

; 1119 :                 const auto _Oldcapacity = static_cast<size_type>(_Myend - _Myfirst);

  0004f	8b 45 c8	 mov	 eax, DWORD PTR __Myend$[ebp]
  00052	8b 4d fc	 mov	 ecx, DWORD PTR __Myfirst$[ebp]
  00055	8b 00		 mov	 eax, DWORD PTR [eax]
  00057	2b 01		 sub	 eax, DWORD PTR [ecx]
  00059	c1 f8 02	 sar	 eax, 2
  0005c	89 45 c4	 mov	 DWORD PTR __Oldcapacity$5[ebp], eax

; 1120 :                 if (_Newsize > _Oldcapacity) { // reallocate

  0005f	8b 45 f0	 mov	 eax, DWORD PTR __Newsize$[ebp]
  00062	3b 45 c4	 cmp	 eax, DWORD PTR __Oldcapacity$5[ebp]
  00065	76 0f		 jbe	 SHORT $LN4@Assign_ran

; 1121 :                     _Clear_and_reserve_geometric(_Newsize);

  00067	ff 75 f0	 push	 DWORD PTR __Newsize$[ebp]
  0006a	8b 4d e8	 mov	 ecx, DWORD PTR _this$[ebp]
  0006d	e8 00 00 00 00	 call	 ?_Clear_and_reserve_geometric@?$vector@V?$CRef@VCGrannyMaterial@@@@V?$allocator@V?$CRef@VCGrannyMaterial@@@@@std@@@std@@AAEXI@Z ; std::vector<CRef<CGrannyMaterial>,std::allocator<CRef<CGrannyMaterial> > >::_Clear_and_reserve_geometric

; 1122 :                     _Oldsize = 0;

  00072	83 65 e0 00	 and	 DWORD PTR __Oldsize$8[ebp], 0
$LN4@Assign_ran:

; 1126 :                 const _Iter _Mid = _STD next(_First, static_cast<difference_type>(_Oldsize));

  00076	8b 45 08	 mov	 eax, DWORD PTR __First$[ebp]
  00079	89 45 dc	 mov	 DWORD PTR __First$[ebp], eax
; File C:\Program Files (x86)\Microsoft Visual Studio\2019\Community\VC\Tools\MSVC\14.28.29333\include\xutility

; 1714 :         _Where += _Off;

  0007c	8b 45 e0	 mov	 eax, DWORD PTR __Oldsize$8[ebp]
  0007f	8b 4d dc	 mov	 ecx, DWORD PTR __First$[ebp]
  00082	8d 04 81	 lea	 eax, DWORD PTR [ecx+eax*4]
  00085	89 45 dc	 mov	 DWORD PTR __First$[ebp], eax
; File C:\Program Files (x86)\Microsoft Visual Studio\2019\Community\VC\Tools\MSVC\14.28.29333\include\vector

; 1126 :                 const _Iter _Mid = _STD next(_First, static_cast<difference_type>(_Oldsize));

  00088	8b 45 dc	 mov	 eax, DWORD PTR __First$[ebp]
  0008b	89 45 d0	 mov	 DWORD PTR __Mid$7[ebp], eax

; 1127 :                 _Copy_unchecked(_First, _Mid, _Myfirst);

  0008e	8b 45 fc	 mov	 eax, DWORD PTR __Myfirst$[ebp]
  00091	8b 00		 mov	 eax, DWORD PTR [eax]
  00093	89 45 d8	 mov	 DWORD PTR __Dest$[ebp], eax
  00096	8b 45 08	 mov	 eax, DWORD PTR __First$[ebp]
  00099	89 45 f4	 mov	 DWORD PTR __First$[ebp], eax
; File C:\Program Files (x86)\Microsoft Visual Studio\2019\Community\VC\Tools\MSVC\14.28.29333\include\xutility

; 4392 :     for (; _First != _Last; ++_Dest, (void) ++_First) {

  0009c	eb 12		 jmp	 SHORT $LN68@Assign_ran
$LN66@Assign_ran:
  0009e	8b 45 d8	 mov	 eax, DWORD PTR __Dest$[ebp]
  000a1	83 c0 04	 add	 eax, 4
  000a4	89 45 d8	 mov	 DWORD PTR __Dest$[ebp], eax
  000a7	8b 45 f4	 mov	 eax, DWORD PTR __First$[ebp]
  000aa	83 c0 04	 add	 eax, 4
  000ad	89 45 f4	 mov	 DWORD PTR __First$[ebp], eax
$LN68@Assign_ran:
  000b0	8b 45 f4	 mov	 eax, DWORD PTR __First$[ebp]
  000b3	3b 45 d0	 cmp	 eax, DWORD PTR __Mid$7[ebp]
  000b6	74 0f		 je	 SHORT $LN65@Assign_ran
; File D:\Metin2 Server Files\mainline\SRC_2014\Metin2Client\eterlib\Ref.h

; 48   : 			SetPointer(c_rRef.m_pObject);			

  000b8	8b 45 f4	 mov	 eax, DWORD PTR __First$[ebp]
  000bb	ff 30		 push	 DWORD PTR [eax]
  000bd	8b 4d d8	 mov	 ecx, DWORD PTR __Dest$[ebp]
  000c0	e8 00 00 00 00	 call	 ?SetPointer@?$CRef@VCGrannyMaterial@@@@QAEXPAVCReferenceObject@@@Z ; CRef<CGrannyMaterial>::SetPointer
; File C:\Program Files (x86)\Microsoft Visual Studio\2019\Community\VC\Tools\MSVC\14.28.29333\include\xutility

; 4394 :     }

  000c5	eb d7		 jmp	 SHORT $LN66@Assign_ran
$LN65@Assign_ran:
; File C:\Program Files (x86)\Microsoft Visual Studio\2019\Community\VC\Tools\MSVC\14.28.29333\include\vector

; 1128 :                 _Mylast = _Ucopy(_Mid, _Last, _Mylast);

  000c7	8b 45 f8	 mov	 eax, DWORD PTR __Mylast$[ebp]
  000ca	8b 00		 mov	 eax, DWORD PTR [eax]
  000cc	89 45 b8	 mov	 DWORD PTR __Dest$[ebp], eax

; 1733 :         return _Mypair._Get_first();

  000cf	8b 45 e8	 mov	 eax, DWORD PTR _this$[ebp]
; File C:\Program Files (x86)\Microsoft Visual Studio\2019\Community\VC\Tools\MSVC\14.28.29333\include\xmemory

; 1347 :         return *this;

  000d2	89 45 c0	 mov	 DWORD PTR $T4[ebp], eax
; File C:\Program Files (x86)\Microsoft Visual Studio\2019\Community\VC\Tools\MSVC\14.28.29333\include\vector

; 1733 :         return _Mypair._Get_first();

  000d5	8b 45 c0	 mov	 eax, DWORD PTR $T4[ebp]
  000d8	89 45 bc	 mov	 DWORD PTR $T3[ebp], eax

; 1588 :         return _Uninitialized_copy(_First, _Last, _Dest, _Getal());

  000db	ff 75 bc	 push	 DWORD PTR $T3[ebp]
  000de	ff 75 b8	 push	 DWORD PTR __Dest$[ebp]
  000e1	ff 75 0c	 push	 DWORD PTR __Last$[ebp]
  000e4	ff 75 d0	 push	 DWORD PTR __Mid$7[ebp]
  000e7	e8 00 00 00 00	 call	 ??$_Uninitialized_copy@PAV?$CRef@VCGrannyMaterial@@@@V?$allocator@V?$CRef@VCGrannyMaterial@@@@@std@@@std@@YAPAV?$CRef@VCGrannyMaterial@@@@QAV1@0PAV1@AAV?$allocator@V?$CRef@VCGrannyMaterial@@@@@0@@Z ; std::_Uninitialized_copy<CRef<CGrannyMaterial> *,std::allocator<CRef<CGrannyMaterial> > >
  000ec	83 c4 10	 add	 esp, 16			; 00000010H

; 1128 :                 _Mylast = _Ucopy(_Mid, _Last, _Mylast);

  000ef	8b 4d f8	 mov	 ecx, DWORD PTR __Mylast$[ebp]
  000f2	89 01		 mov	 DWORD PTR [ecx], eax

; 1129 :             } else {

  000f4	eb 74		 jmp	 SHORT $LN1@Assign_ran
$LN2@Assign_ran:

; 1130 :                 const pointer _Newlast = _Myfirst + _Newsize;

  000f6	8b 45 fc	 mov	 eax, DWORD PTR __Myfirst$[ebp]
  000f9	8b 00		 mov	 eax, DWORD PTR [eax]
  000fb	8b 4d f0	 mov	 ecx, DWORD PTR __Newsize$[ebp]
  000fe	8d 04 88	 lea	 eax, DWORD PTR [eax+ecx*4]
  00101	89 45 cc	 mov	 DWORD PTR __Newlast$6[ebp], eax

; 1131 :                 _Copy_unchecked(_First, _Last, _Myfirst);

  00104	8b 45 fc	 mov	 eax, DWORD PTR __Myfirst$[ebp]
  00107	8b 00		 mov	 eax, DWORD PTR [eax]
  00109	89 45 d4	 mov	 DWORD PTR __Dest$[ebp], eax
  0010c	8b 45 08	 mov	 eax, DWORD PTR __First$[ebp]
  0010f	89 45 ec	 mov	 DWORD PTR __First$[ebp], eax
; File C:\Program Files (x86)\Microsoft Visual Studio\2019\Community\VC\Tools\MSVC\14.28.29333\include\xutility

; 4392 :     for (; _First != _Last; ++_Dest, (void) ++_First) {

  00112	eb 12		 jmp	 SHORT $LN87@Assign_ran
$LN85@Assign_ran:
  00114	8b 45 d4	 mov	 eax, DWORD PTR __Dest$[ebp]
  00117	83 c0 04	 add	 eax, 4
  0011a	89 45 d4	 mov	 DWORD PTR __Dest$[ebp], eax
  0011d	8b 45 ec	 mov	 eax, DWORD PTR __First$[ebp]
  00120	83 c0 04	 add	 eax, 4
  00123	89 45 ec	 mov	 DWORD PTR __First$[ebp], eax
$LN87@Assign_ran:
  00126	8b 45 ec	 mov	 eax, DWORD PTR __First$[ebp]
  00129	3b 45 0c	 cmp	 eax, DWORD PTR __Last$[ebp]
  0012c	74 0f		 je	 SHORT $LN84@Assign_ran
; File D:\Metin2 Server Files\mainline\SRC_2014\Metin2Client\eterlib\Ref.h

; 48   : 			SetPointer(c_rRef.m_pObject);			

  0012e	8b 45 ec	 mov	 eax, DWORD PTR __First$[ebp]
  00131	ff 30		 push	 DWORD PTR [eax]
  00133	8b 4d d4	 mov	 ecx, DWORD PTR __Dest$[ebp]
  00136	e8 00 00 00 00	 call	 ?SetPointer@?$CRef@VCGrannyMaterial@@@@QAEXPAVCReferenceObject@@@Z ; CRef<CGrannyMaterial>::SetPointer
; File C:\Program Files (x86)\Microsoft Visual Studio\2019\Community\VC\Tools\MSVC\14.28.29333\include\xutility

; 4394 :     }

  0013b	eb d7		 jmp	 SHORT $LN85@Assign_ran
$LN84@Assign_ran:
; File C:\Program Files (x86)\Microsoft Visual Studio\2019\Community\VC\Tools\MSVC\14.28.29333\include\vector

; 1132 :                 _Destroy(_Newlast, _Mylast);

  0013d	8b 45 f8	 mov	 eax, DWORD PTR __Mylast$[ebp]
  00140	8b 00		 mov	 eax, DWORD PTR [eax]
  00142	89 45 ac	 mov	 DWORD PTR __Last$[ebp], eax

; 1733 :         return _Mypair._Get_first();

  00145	8b 45 e8	 mov	 eax, DWORD PTR _this$[ebp]
; File C:\Program Files (x86)\Microsoft Visual Studio\2019\Community\VC\Tools\MSVC\14.28.29333\include\xmemory

; 1347 :         return *this;

  00148	89 45 b4	 mov	 DWORD PTR $T2[ebp], eax
; File C:\Program Files (x86)\Microsoft Visual Studio\2019\Community\VC\Tools\MSVC\14.28.29333\include\vector

; 1733 :         return _Mypair._Get_first();

  0014b	8b 45 b4	 mov	 eax, DWORD PTR $T2[ebp]
  0014e	89 45 b0	 mov	 DWORD PTR $T1[ebp], eax

; 1612 :         _Destroy_range(_First, _Last, _Getal());

  00151	ff 75 b0	 push	 DWORD PTR $T1[ebp]
  00154	ff 75 ac	 push	 DWORD PTR __Last$[ebp]
  00157	ff 75 cc	 push	 DWORD PTR __Newlast$6[ebp]
  0015a	e8 00 00 00 00	 call	 ??$_Destroy_range@V?$allocator@V?$CRef@VCGrannyMaterial@@@@@std@@@std@@YAXPAV?$CRef@VCGrannyMaterial@@@@QAV1@AAV?$allocator@V?$CRef@VCGrannyMaterial@@@@@0@@Z ; std::_Destroy_range<std::allocator<CRef<CGrannyMaterial> > >
  0015f	83 c4 0c	 add	 esp, 12			; 0000000cH

; 1133 :                 _Mylast = _Newlast;

  00162	8b 45 f8	 mov	 eax, DWORD PTR __Mylast$[ebp]
  00165	8b 4d cc	 mov	 ecx, DWORD PTR __Newlast$6[ebp]
  00168	89 08		 mov	 DWORD PTR [eax], ecx
$LN1@Assign_ran:

; 1134 :             }
; 1135 :         }
; 1136 :     }

  0016a	c9		 leave
  0016b	c2 0c 00	 ret	 12			; 0000000cH
??$_Assign_range@PAV?$CRef@VCGrannyMaterial@@@@@?$vector@V?$CRef@VCGrannyMaterial@@@@V?$allocator@V?$CRef@VCGrannyMaterial@@@@@std@@@std@@AAEXPAV?$CRef@VCGrannyMaterial@@@@0Uforward_iterator_tag@1@@Z ENDP ; std::vector<CRef<CGrannyMaterial>,std::allocator<CRef<CGrannyMaterial> > >::_Assign_range<CRef<CGrannyMaterial> *>
_TEXT	ENDS
; Function compile flags: /Odspy
; File C:\Program Files (x86)\Microsoft Visual Studio\2019\Community\VC\Tools\MSVC\14.28.29333\include\xmemory
;	COMDAT ??$_Allocate@$07U_Default_allocate_traits@std@@$0A@@std@@YAPAXI@Z
_TEXT	SEGMENT
__Bytes$ = 8						; size = 4
??$_Allocate@$07U_Default_allocate_traits@std@@$0A@@std@@YAPAXI@Z PROC ; std::_Allocate<8,std::_Default_allocate_traits,0>, COMDAT

; 197  : __declspec(allocator) void* _Allocate(const size_t _Bytes) {

  00000	55		 push	 ebp
  00001	8b ec		 mov	 ebp, esp

; 198  :     // allocate _Bytes when !_HAS_ALIGNED_NEW || _Align <= __STDCPP_DEFAULT_NEW_ALIGNMENT__
; 199  : #if defined(_M_IX86) || defined(_M_X64)
; 200  :     if (_Bytes >= _Big_allocation_threshold) { // boost the alignment of big allocations to help autovectorization

  00003	81 7d 08 00 10
	00 00		 cmp	 DWORD PTR __Bytes$[ebp], 4096 ; 00001000H
  0000a	72 0b		 jb	 SHORT $LN2@Allocate

; 201  :         return _Allocate_manually_vector_aligned<_Traits>(_Bytes);

  0000c	ff 75 08	 push	 DWORD PTR __Bytes$[ebp]
  0000f	e8 00 00 00 00	 call	 ??$_Allocate_manually_vector_aligned@U_Default_allocate_traits@std@@@std@@YAPAXI@Z ; std::_Allocate_manually_vector_aligned<std::_Default_allocate_traits>
  00014	59		 pop	 ecx
  00015	eb 13		 jmp	 SHORT $LN1@Allocate
$LN2@Allocate:

; 202  :     }
; 203  : #endif // defined(_M_IX86) || defined(_M_X64)
; 204  : 
; 205  :     if (_Bytes != 0) {

  00017	83 7d 08 00	 cmp	 DWORD PTR __Bytes$[ebp], 0
  0001b	74 0b		 je	 SHORT $LN3@Allocate

; 77   :         return ::operator new(_Bytes);

  0001d	ff 75 08	 push	 DWORD PTR __Bytes$[ebp]
  00020	e8 00 00 00 00	 call	 ??2@YAPAXI@Z		; operator new
  00025	59		 pop	 ecx

; 206  :         return _Traits::_Allocate(_Bytes);

  00026	eb 02		 jmp	 SHORT $LN1@Allocate
$LN3@Allocate:

; 207  :     }
; 208  : 
; 209  :     return nullptr;

  00028	33 c0		 xor	 eax, eax
$LN1@Allocate:

; 210  : }

  0002a	5d		 pop	 ebp
  0002b	c3		 ret	 0
??$_Allocate@$07U_Default_allocate_traits@std@@$0A@@std@@YAPAXI@Z ENDP ; std::_Allocate<8,std::_Default_allocate_traits,0>
_TEXT	ENDS
; Function compile flags: /Odspy
; File C:\Program Files (x86)\Microsoft Visual Studio\2019\Community\VC\Tools\MSVC\14.28.29333\include\xmemory
;	COMDAT ??$_Deallocate@$07$0A@@std@@YAXPAXI@Z
_TEXT	SEGMENT
__$EHRec$ = -12						; size = 12
__Ptr$ = 8						; size = 4
__Bytes$ = 12						; size = 4
??$_Deallocate@$07$0A@@std@@YAXPAXI@Z PROC		; std::_Deallocate<8,0>, COMDAT

; 213  : void _Deallocate(void* _Ptr, size_t _Bytes) noexcept {

  00000	55		 push	 ebp
  00001	8b ec		 mov	 ebp, esp
  00003	6a ff		 push	 -1
  00005	68 00 00 00 00	 push	 __ehhandler$??$_Deallocate@$07$0A@@std@@YAXPAXI@Z
  0000a	64 a1 00 00 00
	00		 mov	 eax, DWORD PTR fs:0
  00010	50		 push	 eax
  00011	a1 00 00 00 00	 mov	 eax, DWORD PTR ___security_cookie
  00016	33 c5		 xor	 eax, ebp
  00018	50		 push	 eax
  00019	8d 45 f4	 lea	 eax, DWORD PTR __$EHRec$[ebp]
  0001c	64 a3 00 00 00
	00		 mov	 DWORD PTR fs:0, eax

; 214  :     // deallocate storage allocated by _Allocate when !_HAS_ALIGNED_NEW || _Align <= __STDCPP_DEFAULT_NEW_ALIGNMENT__
; 215  : #if defined(_M_IX86) || defined(_M_X64)
; 216  :     if (_Bytes >= _Big_allocation_threshold) { // boost the alignment of big allocations to help autovectorization

  00022	81 7d 0c 00 10
	00 00		 cmp	 DWORD PTR __Bytes$[ebp], 4096 ; 00001000H
  00029	72 0f		 jb	 SHORT $LN2@Deallocate

; 217  :         _Adjust_manually_vector_aligned(_Ptr, _Bytes);

  0002b	8d 45 0c	 lea	 eax, DWORD PTR __Bytes$[ebp]
  0002e	50		 push	 eax
  0002f	8d 45 08	 lea	 eax, DWORD PTR __Ptr$[ebp]
  00032	50		 push	 eax
  00033	e8 00 00 00 00	 call	 ?_Adjust_manually_vector_aligned@std@@YAXAAPAXAAI@Z ; std::_Adjust_manually_vector_aligned
  00038	59		 pop	 ecx
  00039	59		 pop	 ecx
$LN2@Deallocate:

; 218  :     }
; 219  : #endif // defined(_M_IX86) || defined(_M_X64)
; 220  : 
; 221  :     ::operator delete(_Ptr, _Bytes);

  0003a	ff 75 0c	 push	 DWORD PTR __Bytes$[ebp]
  0003d	ff 75 08	 push	 DWORD PTR __Ptr$[ebp]
  00040	e8 00 00 00 00	 call	 ??3@YAXPAXI@Z		; operator delete
  00045	59		 pop	 ecx
  00046	59		 pop	 ecx

; 222  : }

  00047	8b 4d f4	 mov	 ecx, DWORD PTR __$EHRec$[ebp]
  0004a	64 89 0d 00 00
	00 00		 mov	 DWORD PTR fs:0, ecx
  00051	59		 pop	 ecx
  00052	c9		 leave
  00053	c3		 ret	 0
  00054	cc		 int	 3
  00055	cc		 int	 3
  00056	cc		 int	 3
  00057	cc		 int	 3
  00058	cc		 int	 3
_TEXT	ENDS
;	COMDAT text$x
text$x	SEGMENT
__ehhandler$??$_Deallocate@$07$0A@@std@@YAXPAXI@Z:
  00000	90		 npad	 1
  00001	90		 npad	 1
  00002	8b 54 24 08	 mov	 edx, DWORD PTR [esp+8]
  00006	8d 42 0c	 lea	 eax, DWORD PTR [edx+12]
  00009	8b 4a fc	 mov	 ecx, DWORD PTR [edx-4]
  0000c	33 c8		 xor	 ecx, eax
  0000e	e8 00 00 00 00	 call	 @__security_check_cookie@4
  00013	b8 00 00 00 00	 mov	 eax, OFFSET __ehfuncinfo$??$_Deallocate@$07$0A@@std@@YAXPAXI@Z
  00018	e9 00 00 00 00	 jmp	 ___CxxFrameHandler3
text$x	ENDS
??$_Deallocate@$07$0A@@std@@YAXPAXI@Z ENDP		; std::_Deallocate<8,0>
; Function compile flags: /Odspy
; File C:\Program Files (x86)\Microsoft Visual Studio\2019\Community\VC\Tools\MSVC\14.28.29333\include\xmemory
; File C:\Program Files (x86)\Microsoft Visual Studio\2019\Community\VC\Tools\MSVC\14.28.29333\include\xstddef
; File C:\Program Files (x86)\Microsoft Visual Studio\2019\Community\VC\Tools\MSVC\14.28.29333\include\vcruntime_new.h
; File C:\Program Files (x86)\Microsoft Visual Studio\2019\Community\VC\Tools\MSVC\14.28.29333\include\type_traits
; File C:\Program Files (x86)\Microsoft Visual Studio\2019\Community\VC\Tools\MSVC\14.28.29333\include\xmemory
;	COMDAT ??$_Construct_in_place@PADABQAD@std@@YAXAAPADABQAD@Z
_TEXT	SEGMENT
$T1 = -12						; size = 4
$T2 = -8						; size = 4
$T3 = -4						; size = 4
__Obj$ = 8						; size = 4
_<_Args_0>$ = 12					; size = 4
??$_Construct_in_place@PADABQAD@std@@YAXAAPADABQAD@Z PROC ; std::_Construct_in_place<char *,char * const &>, COMDAT

; 228  : void _Construct_in_place(_Ty& _Obj, _Types&&... _Args) noexcept(is_nothrow_constructible_v<_Ty, _Types...>) {

  00000	55		 push	 ebp
  00001	8b ec		 mov	 ebp, esp
  00003	83 ec 0c	 sub	 esp, 12			; 0000000cH
; File C:\Program Files (x86)\Microsoft Visual Studio\2019\Community\VC\Tools\MSVC\14.28.29333\include\xstddef

; 275  :     return __builtin_addressof(_Val);

  00006	8b 45 08	 mov	 eax, DWORD PTR __Obj$[ebp]
  00009	89 45 fc	 mov	 DWORD PTR $T3[ebp], eax
; File C:\Program Files (x86)\Microsoft Visual Studio\2019\Community\VC\Tools\MSVC\14.28.29333\include\vcruntime_new.h

; 169  :         return _Where;

  0000c	8b 45 fc	 mov	 eax, DWORD PTR $T3[ebp]
  0000f	89 45 f8	 mov	 DWORD PTR $T2[ebp], eax
; File C:\Program Files (x86)\Microsoft Visual Studio\2019\Community\VC\Tools\MSVC\14.28.29333\include\type_traits

; 1443 :     return static_cast<_Ty&&>(_Arg);

  00012	8b 45 0c	 mov	 eax, DWORD PTR _<_Args_0>$[ebp]
  00015	89 45 f4	 mov	 DWORD PTR $T1[ebp], eax
; File C:\Program Files (x86)\Microsoft Visual Studio\2019\Community\VC\Tools\MSVC\14.28.29333\include\xmemory

; 229  :     ::new (const_cast<void*>(static_cast<const volatile void*>(_STD addressof(_Obj))))

  00018	8b 45 f8	 mov	 eax, DWORD PTR $T2[ebp]
  0001b	8b 4d f4	 mov	 ecx, DWORD PTR $T1[ebp]
  0001e	8b 09		 mov	 ecx, DWORD PTR [ecx]
  00020	89 08		 mov	 DWORD PTR [eax], ecx

; 230  :         _Ty(_STD forward<_Types>(_Args)...);
; 231  : }

  00022	c9		 leave
  00023	c3		 ret	 0
??$_Construct_in_place@PADABQAD@std@@YAXAAPADABQAD@Z ENDP ; std::_Construct_in_place<char *,char * const &>
_TEXT	ENDS
; Function compile flags: /Odspy
; File C:\Program Files (x86)\Microsoft Visual Studio\2019\Community\VC\Tools\MSVC\14.28.29333\include\xstring
; File C:\Program Files (x86)\Microsoft Visual Studio\2019\Community\VC\Tools\MSVC\14.28.29333\include\xmemory
; File C:\Program Files (x86)\Microsoft Visual Studio\2019\Community\VC\Tools\MSVC\14.28.29333\include\xstring
; File C:\Program Files (x86)\Microsoft Visual Studio\2019\Community\VC\Tools\MSVC\14.28.29333\include\xmemory
; File C:\Program Files (x86)\Microsoft Visual Studio\2019\Community\VC\Tools\MSVC\14.28.29333\include\xstring
; File C:\Program Files (x86)\Microsoft Visual Studio\2019\Community\VC\Tools\MSVC\14.28.29333\include\xmemory
; File C:\Program Files (x86)\Microsoft Visual Studio\2019\Community\VC\Tools\MSVC\14.28.29333\include\xstring
; File C:\Program Files (x86)\Microsoft Visual Studio\2019\Community\VC\Tools\MSVC\14.28.29333\include\xstddef
; File C:\Program Files (x86)\Microsoft Visual Studio\2019\Community\VC\Tools\MSVC\14.28.29333\include\xstring
; File C:\Program Files (x86)\Microsoft Visual Studio\2019\Community\VC\Tools\MSVC\14.28.29333\include\xmemory
; File C:\Program Files (x86)\Microsoft Visual Studio\2019\Community\VC\Tools\MSVC\14.28.29333\include\xstring
;	COMDAT ??$_Reallocate_for@V<lambda_9366063389c5f42a00a5088cf24e69de>@@PBD@?$basic_string@DU?$char_traits@D@std@@V?$allocator@D@2@@std@@AAEAAV01@IV<lambda_9366063389c5f42a00a5088cf24e69de>@@PBD@Z
_TEXT	SEGMENT
__Al$ = -40						; size = 4
__Ptr$ = -36						; size = 4
__Ptr$ = -32						; size = 4
$T1 = -28						; size = 4
__Old_capacity$ = -24					; size = 4
$T2 = -20						; size = 4
__New_capacity$ = -16					; size = 4
__New_ptr$ = -12					; size = 4
_this$ = -8						; size = 4
__Overflow_is_possible$3 = -2				; size = 1
$T4 = -1						; size = 1
__New_size$ = 8						; size = 4
__Fn$ = 12						; size = 1
_<_Args_0>$ = 16					; size = 4
??$_Reallocate_for@V<lambda_9366063389c5f42a00a5088cf24e69de>@@PBD@?$basic_string@DU?$char_traits@D@std@@V?$allocator@D@2@@std@@AAEAAV01@IV<lambda_9366063389c5f42a00a5088cf24e69de>@@PBD@Z PROC ; std::basic_string<char,std::char_traits<char>,std::allocator<char> >::_Reallocate_for<<lambda_9366063389c5f42a00a5088cf24e69de>,char const *>, COMDAT
; _this$ = ecx

; 4302 :     basic_string& _Reallocate_for(const size_type _New_size, _Fty _Fn, _ArgTys... _Args) {

  00000	55		 push	 ebp
  00001	8b ec		 mov	 ebp, esp
  00003	83 ec 28	 sub	 esp, 40			; 00000028H
  00006	89 4d f8	 mov	 DWORD PTR _this$[ebp], ecx

; 4303 :         // reallocate to store exactly _New_size elements, new buffer prepared by
; 4304 :         // _Fn(_New_ptr, _New_size, _Args...)
; 4305 :         if (_New_size > max_size()) {

  00009	8b 4d f8	 mov	 ecx, DWORD PTR _this$[ebp]
  0000c	e8 00 00 00 00	 call	 ?max_size@?$basic_string@DU?$char_traits@D@std@@V?$allocator@D@2@@std@@QBEIXZ ; std::basic_string<char,std::char_traits<char>,std::allocator<char> >::max_size
  00011	39 45 08	 cmp	 DWORD PTR __New_size$[ebp], eax
  00014	76 05		 jbe	 SHORT $LN2@Reallocate

; 4306 :             _Xlen_string(); // result too long

  00016	e8 00 00 00 00	 call	 ?_Xlen_string@std@@YAXXZ ; std::_Xlen_string
$LN2@Reallocate:

; 4307 :         }
; 4308 : 
; 4309 :         const size_type _Old_capacity = _Mypair._Myval2._Myres;

  0001b	8b 45 f8	 mov	 eax, DWORD PTR _this$[ebp]
  0001e	8b 40 14	 mov	 eax, DWORD PTR [eax+20]
  00021	89 45 e8	 mov	 DWORD PTR __Old_capacity$[ebp], eax

; 4310 :         const size_type _New_capacity = _Calculate_growth(_New_size);

  00024	ff 75 08	 push	 DWORD PTR __New_size$[ebp]
  00027	8b 4d f8	 mov	 ecx, DWORD PTR _this$[ebp]
  0002a	e8 00 00 00 00	 call	 ?_Calculate_growth@?$basic_string@DU?$char_traits@D@std@@V?$allocator@D@2@@std@@ABEII@Z ; std::basic_string<char,std::char_traits<char>,std::allocator<char> >::_Calculate_growth
  0002f	89 45 f0	 mov	 DWORD PTR __New_capacity$[ebp], eax

; 4409 :         return _Mypair._Get_first();

  00032	8b 45 f8	 mov	 eax, DWORD PTR _this$[ebp]
; File C:\Program Files (x86)\Microsoft Visual Studio\2019\Community\VC\Tools\MSVC\14.28.29333\include\xmemory

; 1347 :         return *this;

  00035	89 45 e4	 mov	 DWORD PTR $T1[ebp], eax
; File C:\Program Files (x86)\Microsoft Visual Studio\2019\Community\VC\Tools\MSVC\14.28.29333\include\xstring

; 4409 :         return _Mypair._Get_first();

  00038	8b 45 e4	 mov	 eax, DWORD PTR $T1[ebp]
  0003b	89 45 d8	 mov	 DWORD PTR __Al$[ebp], eax
; File C:\Program Files (x86)\Microsoft Visual Studio\2019\Community\VC\Tools\MSVC\14.28.29333\include\xmemory

; 56   :     constexpr bool _Overflow_is_possible = _Ty_size > 1;

  0003e	c6 45 fe 00	 mov	 BYTE PTR __Overflow_is_possible$3[ebp], 0
; File C:\Program Files (x86)\Microsoft Visual Studio\2019\Community\VC\Tools\MSVC\14.28.29333\include\xstring

; 4312 :         const pointer _New_ptr        = _Al.allocate(_New_capacity + 1); // throws

  00042	8b 45 f0	 mov	 eax, DWORD PTR __New_capacity$[ebp]
  00045	40		 inc	 eax
; File C:\Program Files (x86)\Microsoft Visual Studio\2019\Community\VC\Tools\MSVC\14.28.29333\include\xmemory

; 814  :         return static_cast<_Ty*>(_Allocate<_New_alignof<_Ty>>(_Get_size_of_n<sizeof(_Ty)>(_Count)));

  00046	50		 push	 eax
  00047	e8 00 00 00 00	 call	 ??$_Allocate@$07U_Default_allocate_traits@std@@$0A@@std@@YAPAXI@Z ; std::_Allocate<8,std::_Default_allocate_traits,0>
  0004c	59		 pop	 ecx
; File C:\Program Files (x86)\Microsoft Visual Studio\2019\Community\VC\Tools\MSVC\14.28.29333\include\xstring

; 4312 :         const pointer _New_ptr        = _Al.allocate(_New_capacity + 1); // throws

  0004d	89 45 f4	 mov	 DWORD PTR __New_ptr$[ebp], eax

; 4313 :         _Mypair._Myval2._Orphan_all();
; 4314 :         _Mypair._Myval2._Mysize = _New_size;

  00050	8b 45 f8	 mov	 eax, DWORD PTR _this$[ebp]
  00053	8b 4d 08	 mov	 ecx, DWORD PTR __New_size$[ebp]
  00056	89 48 10	 mov	 DWORD PTR [eax+16], ecx

; 4315 :         _Mypair._Myval2._Myres  = _New_capacity;

  00059	8b 45 f8	 mov	 eax, DWORD PTR _this$[ebp]
  0005c	8b 4d f0	 mov	 ecx, DWORD PTR __New_capacity$[ebp]
  0005f	89 48 14	 mov	 DWORD PTR [eax+20], ecx

; 4316 :         _Fn(_Unfancy(_New_ptr), _New_size, _Args...);

  00062	8b 45 f4	 mov	 eax, DWORD PTR __New_ptr$[ebp]
  00065	89 45 e0	 mov	 DWORD PTR __Ptr$[ebp], eax
; File C:\Program Files (x86)\Microsoft Visual Studio\2019\Community\VC\Tools\MSVC\14.28.29333\include\xstddef

; 289  :     return _Ptr;

  00068	8b 45 e0	 mov	 eax, DWORD PTR __Ptr$[ebp]
  0006b	89 45 ec	 mov	 DWORD PTR $T2[ebp], eax
; File C:\Program Files (x86)\Microsoft Visual Studio\2019\Community\VC\Tools\MSVC\14.28.29333\include\xstring

; 62   :         _CSTD memcpy(_First1, _First2, _Count * sizeof(_Elem));

  0006e	ff 75 08	 push	 DWORD PTR __New_size$[ebp]
  00071	ff 75 10	 push	 DWORD PTR _<_Args_0>$[ebp]
  00074	ff 75 ec	 push	 DWORD PTR $T2[ebp]
  00077	e8 00 00 00 00	 call	 _memcpy
  0007c	83 c4 0c	 add	 esp, 12			; 0000000cH

; 3056 :                 _Traits::assign(_New_ptr[_Count], _Elem());

  0007f	c6 45 ff 00	 mov	 BYTE PTR $T4[ebp], 0

; 428  :         _Left = _Right;

  00083	8b 45 ec	 mov	 eax, DWORD PTR $T2[ebp]
  00086	03 45 08	 add	 eax, DWORD PTR __New_size$[ebp]
  00089	8a 4d ff	 mov	 cl, BYTE PTR $T4[ebp]
  0008c	88 08		 mov	 BYTE PTR [eax], cl

; 4317 :         if (_BUF_SIZE <= _Old_capacity) {

  0008e	83 7d e8 10	 cmp	 DWORD PTR __Old_capacity$[ebp], 16 ; 00000010H
  00092	72 21		 jb	 SHORT $LN3@Reallocate

; 4318 :             _Al.deallocate(_Mypair._Myval2._Bx._Ptr, _Old_capacity + 1);

  00094	8b 45 f8	 mov	 eax, DWORD PTR _this$[ebp]
  00097	8b 00		 mov	 eax, DWORD PTR [eax]
  00099	89 45 dc	 mov	 DWORD PTR __Ptr$[ebp], eax
  0009c	8b 45 e8	 mov	 eax, DWORD PTR __Old_capacity$[ebp]
  0009f	40		 inc	 eax
; File C:\Program Files (x86)\Microsoft Visual Studio\2019\Community\VC\Tools\MSVC\14.28.29333\include\xmemory

; 810  :         _Deallocate<_New_alignof<_Ty>>(_Ptr, sizeof(_Ty) * _Count);

  000a0	50		 push	 eax
  000a1	ff 75 dc	 push	 DWORD PTR __Ptr$[ebp]
  000a4	e8 00 00 00 00	 call	 ??$_Deallocate@$07$0A@@std@@YAXPAXI@Z ; std::_Deallocate<8,0>
  000a9	59		 pop	 ecx
  000aa	59		 pop	 ecx
; File C:\Program Files (x86)\Microsoft Visual Studio\2019\Community\VC\Tools\MSVC\14.28.29333\include\xstring

; 4319 :             _Mypair._Myval2._Bx._Ptr = _New_ptr;

  000ab	8b 45 f8	 mov	 eax, DWORD PTR _this$[ebp]
  000ae	8b 4d f4	 mov	 ecx, DWORD PTR __New_ptr$[ebp]
  000b1	89 08		 mov	 DWORD PTR [eax], ecx

; 4320 :         } else {

  000b3	eb 0e		 jmp	 SHORT $LN4@Reallocate
$LN3@Reallocate:

; 4321 :             _Construct_in_place(_Mypair._Myval2._Bx._Ptr, _New_ptr);

  000b5	8d 45 f4	 lea	 eax, DWORD PTR __New_ptr$[ebp]
  000b8	50		 push	 eax
  000b9	ff 75 f8	 push	 DWORD PTR _this$[ebp]
  000bc	e8 00 00 00 00	 call	 ??$_Construct_in_place@PADABQAD@std@@YAXAAPADABQAD@Z ; std::_Construct_in_place<char *,char * const &>
  000c1	59		 pop	 ecx
  000c2	59		 pop	 ecx
$LN4@Reallocate:

; 4322 :         }
; 4323 : 
; 4324 :         return *this;

  000c3	8b 45 f8	 mov	 eax, DWORD PTR _this$[ebp]
$LN5@Reallocate:

; 4325 :     }

  000c6	c9		 leave
  000c7	c2 0c 00	 ret	 12			; 0000000cH
??$_Reallocate_for@V<lambda_9366063389c5f42a00a5088cf24e69de>@@PBD@?$basic_string@DU?$char_traits@D@std@@V?$allocator@D@2@@std@@AAEAAV01@IV<lambda_9366063389c5f42a00a5088cf24e69de>@@PBD@Z ENDP ; std::basic_string<char,std::char_traits<char>,std::allocator<char> >::_Reallocate_for<<lambda_9366063389c5f42a00a5088cf24e69de>,char const *>
_TEXT	ENDS
; Function compile flags: /Odspy
; File C:\Program Files (x86)\Microsoft Visual Studio\2019\Community\VC\Tools\MSVC\14.28.29333\include\xmemory
;	COMDAT ??$_Destroy_in_place@PAD@std@@YAXAAPAD@Z
_TEXT	SEGMENT
__Obj$ = 8						; size = 4
??$_Destroy_in_place@PAD@std@@YAXAAPAD@Z PROC		; std::_Destroy_in_place<char *>, COMDAT

; 270  : /* _CONSTEXPR20_DYNALLOC */ void _Destroy_in_place(_Ty& _Obj) noexcept {

  00000	55		 push	 ebp
  00001	8b ec		 mov	 ebp, esp

; 271  : #if _HAS_IF_CONSTEXPR
; 272  :     if constexpr (is_array_v<_Ty>) {
; 273  :         _Destroy_range(_Obj, _Obj + extent_v<_Ty>);
; 274  :     } else
; 275  : #endif // _HAS_IF_CONSTEXPR
; 276  :     {
; 277  :         _Obj.~_Ty();
; 278  :     }
; 279  : }

  00003	5d		 pop	 ebp
  00004	c3		 ret	 0
??$_Destroy_in_place@PAD@std@@YAXAAPAD@Z ENDP		; std::_Destroy_in_place<char *>
_TEXT	ENDS
; Function compile flags: /Odspy
; File C:\Program Files (x86)\Microsoft Visual Studio\2019\Community\VC\Tools\MSVC\14.28.29333\include\xmemory
;	COMDAT ??$_Pocca@V?$allocator@V?$CRef@VCGrannyMaterial@@@@@std@@@std@@YAXAAV?$allocator@V?$CRef@VCGrannyMaterial@@@@@0@ABV10@@Z
_TEXT	SEGMENT
__Left$ = 8						; size = 4
__Right$ = 12						; size = 4
??$_Pocca@V?$allocator@V?$CRef@VCGrannyMaterial@@@@@std@@@std@@YAXAAV?$allocator@V?$CRef@VCGrannyMaterial@@@@@0@ABV10@@Z PROC ; std::_Pocca<std::allocator<CRef<CGrannyMaterial> > >, COMDAT

; 885  : void _Pocca(_Alloc& _Left, const _Alloc& _Right) noexcept {

  00000	55		 push	 ebp
  00001	8b ec		 mov	 ebp, esp

; 886  :     if constexpr (allocator_traits<_Alloc>::propagate_on_container_copy_assignment::value) {
; 887  :         _Left = _Right;
; 888  :     }
; 889  : }

  00003	5d		 pop	 ebp
  00004	c3		 ret	 0
??$_Pocca@V?$allocator@V?$CRef@VCGrannyMaterial@@@@@std@@@std@@YAXAAV?$allocator@V?$CRef@VCGrannyMaterial@@@@@0@ABV10@@Z ENDP ; std::_Pocca<std::allocator<CRef<CGrannyMaterial> > >
_TEXT	ENDS
; Function compile flags: /Odspy
; File C:\Program Files (x86)\Microsoft Visual Studio\2019\Community\VC\Tools\MSVC\14.28.29333\include\xmemory
; File C:\Program Files (x86)\Microsoft Visual Studio\2019\Community\VC\Tools\MSVC\14.28.29333\include\xstddef
; File C:\Program Files (x86)\Microsoft Visual Studio\2019\Community\VC\Tools\MSVC\14.28.29333\include\xmemory
;	COMDAT ??$_Destroy_range@V?$allocator@V?$CRef@VCGrannyMaterial@@@@@std@@@std@@YAXPAV?$CRef@VCGrannyMaterial@@@@QAV1@AAV?$allocator@V?$CRef@VCGrannyMaterial@@@@@0@@Z
_TEXT	SEGMENT
$T1 = -4						; size = 4
__First$ = 8						; size = 4
__Last$ = 12						; size = 4
__Al$ = 16						; size = 4
??$_Destroy_range@V?$allocator@V?$CRef@VCGrannyMaterial@@@@@std@@@std@@YAXPAV?$CRef@VCGrannyMaterial@@@@QAV1@AAV?$allocator@V?$CRef@VCGrannyMaterial@@@@@0@@Z PROC ; std::_Destroy_range<std::allocator<CRef<CGrannyMaterial> > >, COMDAT

; 962  :     _Alloc_ptr_t<_Alloc> _First, const _Alloc_ptr_t<_Alloc> _Last, _Alloc& _Al) noexcept {

  00000	55		 push	 ebp
  00001	8b ec		 mov	 ebp, esp
  00003	51		 push	 ecx

; 963  :     // note that this is an optimization for debug mode codegen; in release mode the BE removes all of this
; 964  :     using _Ty = typename _Alloc::value_type;
; 965  :     if _CONSTEXPR_IF (!conjunction_v<is_trivially_destructible<_Ty>, _Uses_default_destroy<_Alloc, _Ty*>>) {
; 966  :         for (; _First != _Last; ++_First) {

  00004	eb 09		 jmp	 SHORT $LN4@Destroy_ra
$LN2@Destroy_ra:
  00006	8b 45 08	 mov	 eax, DWORD PTR __First$[ebp]
  00009	83 c0 04	 add	 eax, 4
  0000c	89 45 08	 mov	 DWORD PTR __First$[ebp], eax
$LN4@Destroy_ra:
  0000f	8b 45 08	 mov	 eax, DWORD PTR __First$[ebp]
  00012	3b 45 0c	 cmp	 eax, DWORD PTR __Last$[ebp]
  00015	74 12		 je	 SHORT $LN5@Destroy_ra
; File C:\Program Files (x86)\Microsoft Visual Studio\2019\Community\VC\Tools\MSVC\14.28.29333\include\xstddef

; 289  :     return _Ptr;

  00017	8b 45 08	 mov	 eax, DWORD PTR __First$[ebp]
  0001a	89 45 fc	 mov	 DWORD PTR $T1[ebp], eax
; File C:\Program Files (x86)\Microsoft Visual Studio\2019\Community\VC\Tools\MSVC\14.28.29333\include\xmemory

; 706  :         _Ptr->~_Uty();

  0001d	6a 00		 push	 0
  0001f	8b 4d fc	 mov	 ecx, DWORD PTR $T1[ebp]
  00022	e8 00 00 00 00	 call	 ??_G?$CRef@VCGrannyMaterial@@@@QAEPAXI@Z

; 967  :             allocator_traits<_Alloc>::destroy(_Al, _Unfancy(_First));
; 968  :         }

  00027	eb dd		 jmp	 SHORT $LN2@Destroy_ra
$LN5@Destroy_ra:

; 969  :     }
; 970  : }

  00029	c9		 leave
  0002a	c3		 ret	 0
??$_Destroy_range@V?$allocator@V?$CRef@VCGrannyMaterial@@@@@std@@@std@@YAXPAV?$CRef@VCGrannyMaterial@@@@QAV1@AAV?$allocator@V?$CRef@VCGrannyMaterial@@@@@0@@Z ENDP ; std::_Destroy_range<std::allocator<CRef<CGrannyMaterial> > >
_TEXT	ENDS
; Function compile flags: /Odspy
; File C:\Program Files (x86)\Microsoft Visual Studio\2019\Community\VC\Tools\MSVC\14.28.29333\include\vector
; File C:\Program Files (x86)\Microsoft Visual Studio\2019\Community\VC\Tools\MSVC\14.28.29333\include\xmemory
; File C:\Program Files (x86)\Microsoft Visual Studio\2019\Community\VC\Tools\MSVC\14.28.29333\include\vector
; File C:\Program Files (x86)\Microsoft Visual Studio\2019\Community\VC\Tools\MSVC\14.28.29333\include\xmemory
; File C:\Program Files (x86)\Microsoft Visual Studio\2019\Community\VC\Tools\MSVC\14.28.29333\include\vector
; File C:\Program Files (x86)\Microsoft Visual Studio\2019\Community\VC\Tools\MSVC\14.28.29333\include\xmemory
; File C:\Program Files (x86)\Microsoft Visual Studio\2019\Community\VC\Tools\MSVC\14.28.29333\include\limits
; File C:\Program Files (x86)\Microsoft Visual Studio\2019\Community\VC\Tools\MSVC\14.28.29333\include\vector
; File C:\Program Files (x86)\Microsoft Visual Studio\2019\Community\VC\Tools\MSVC\14.28.29333\include\utility
; File C:\Program Files (x86)\Microsoft Visual Studio\2019\Community\VC\Tools\MSVC\14.28.29333\include\vector
; File C:\Program Files (x86)\Microsoft Visual Studio\2019\Community\VC\Tools\MSVC\14.28.29333\include\xmemory
; File C:\Program Files (x86)\Microsoft Visual Studio\2019\Community\VC\Tools\MSVC\14.28.29333\include\vector
; File C:\Program Files (x86)\Microsoft Visual Studio\2019\Community\VC\Tools\MSVC\14.28.29333\include\type_traits
; File C:\Program Files (x86)\Microsoft Visual Studio\2019\Community\VC\Tools\MSVC\14.28.29333\include\vector
; File C:\Program Files (x86)\Microsoft Visual Studio\2019\Community\VC\Tools\MSVC\14.28.29333\include\xstddef
; File C:\Program Files (x86)\Microsoft Visual Studio\2019\Community\VC\Tools\MSVC\14.28.29333\include\vcruntime_new.h
; File C:\Program Files (x86)\Microsoft Visual Studio\2019\Community\VC\Tools\MSVC\14.28.29333\include\type_traits
; File D:\Metin2 Server Files\mainline\SRC_2014\Metin2Client\eterlib\Ref.h
; File C:\Program Files (x86)\Microsoft Visual Studio\2019\Community\VC\Tools\MSVC\14.28.29333\include\vector
; File C:\Program Files (x86)\Microsoft Visual Studio\2019\Community\VC\Tools\MSVC\14.28.29333\include\xmemory
; File C:\Program Files (x86)\Microsoft Visual Studio\2019\Community\VC\Tools\MSVC\14.28.29333\include\vector
; File C:\Program Files (x86)\Microsoft Visual Studio\2019\Community\VC\Tools\MSVC\14.28.29333\include\xmemory
; File C:\Program Files (x86)\Microsoft Visual Studio\2019\Community\VC\Tools\MSVC\14.28.29333\include\vector
; File C:\Program Files (x86)\Microsoft Visual Studio\2019\Community\VC\Tools\MSVC\14.28.29333\include\xmemory
; File C:\Program Files (x86)\Microsoft Visual Studio\2019\Community\VC\Tools\MSVC\14.28.29333\include\vector
;	COMDAT ??$_Emplace_reallocate@V?$CRef@VCGrannyMaterial@@@@@?$vector@V?$CRef@VCGrannyMaterial@@@@V?$allocator@V?$CRef@VCGrannyMaterial@@@@@std@@@std@@QAEPAV?$CRef@VCGrannyMaterial@@@@QAV2@$$QAV2@@Z
_TEXT	SEGMENT
__Max_possible$2 = -72					; size = 4
$T3 = -68						; size = 4
__Al$ = -64						; size = 4
__Last$ = -60						; size = 4
$T4 = -56						; size = 4
$T5 = -52						; size = 4
__First$ = -48						; size = 4
$T6 = -44						; size = 4
$T7 = -40						; size = 4
__First$ = -36						; size = 4
__Last$ = -32						; size = 4
$T8 = -28						; size = 4
$T9 = -24						; size = 4
_pObject$10 = -20					; size = 4
__$EHRec$ = -16						; size = 16
$T11 = 0						; size = 4
$T12 = 4						; size = 4
$T13 = 8						; size = 4
$T14 = 12						; size = 4
$T15 = 16						; size = 4
$T16 = 20						; size = 4
$T17 = 24						; size = 4
$T18 = 28						; size = 4
$T19 = 32						; size = 4
$T20 = 36						; size = 4
__Newsize$ = 40						; size = 4
__Constructed_last$ = 44				; size = 4
__Oldsize$ = 48						; size = 4
tv172 = 52						; size = 4
$T21 = 56						; size = 4
$T22 = 60						; size = 4
__My_data$ = 64						; size = 4
__Constructed_first$ = 68				; size = 4
___formal$ = 72						; size = 1
__Overflow_is_possible$23 = 79				; size = 1
__Newcapacity$ = 80					; size = 4
__Mylast$ = 84						; size = 4
__Myfirst$ = 88						; size = 4
$T24 = 92						; size = 4
__Whereoff$ = 96					; size = 4
$T25 = 103						; size = 1
_this$ = 104						; size = 4
__Newvec$ = 108						; size = 4
__Whereptr$ = 120					; size = 4
_<_Val_0>$ = 124					; size = 4
??$_Emplace_reallocate@V?$CRef@VCGrannyMaterial@@@@@?$vector@V?$CRef@VCGrannyMaterial@@@@V?$allocator@V?$CRef@VCGrannyMaterial@@@@@std@@@std@@QAEPAV?$CRef@VCGrannyMaterial@@@@QAV2@$$QAV2@@Z PROC ; std::vector<CRef<CGrannyMaterial>,std::allocator<CRef<CGrannyMaterial> > >::_Emplace_reallocate<CRef<CGrannyMaterial> >, COMDAT
; _this$ = ecx

; 725  :     pointer _Emplace_reallocate(const pointer _Whereptr, _Valty&&... _Val) {

  00000	55		 push	 ebp
  00001	8d 6c 24 90	 lea	 ebp, DWORD PTR [esp-112]
  00005	83 ec 70	 sub	 esp, 112		; 00000070H
  00008	6a ff		 push	 -1
  0000a	68 00 00 00 00	 push	 __ehhandler$??$_Emplace_reallocate@V?$CRef@VCGrannyMaterial@@@@@?$vector@V?$CRef@VCGrannyMaterial@@@@V?$allocator@V?$CRef@VCGrannyMaterial@@@@@std@@@std@@QAEPAV?$CRef@VCGrannyMaterial@@@@QAV2@$$QAV2@@Z
  0000f	64 a1 00 00 00
	00		 mov	 eax, DWORD PTR fs:0
  00015	50		 push	 eax
  00016	51		 push	 ecx
  00017	83 ec 38	 sub	 esp, 56			; 00000038H
  0001a	53		 push	 ebx
  0001b	56		 push	 esi
  0001c	57		 push	 edi
  0001d	a1 00 00 00 00	 mov	 eax, DWORD PTR ___security_cookie
  00022	33 c5		 xor	 eax, ebp
  00024	50		 push	 eax
  00025	8d 45 f4	 lea	 eax, DWORD PTR __$EHRec$[ebp+4]
  00028	64 a3 00 00 00
	00		 mov	 DWORD PTR fs:0, eax
  0002e	89 65 f0	 mov	 DWORD PTR __$EHRec$[ebp], esp
  00031	89 4d 68	 mov	 DWORD PTR _this$[ebp], ecx

; 1733 :         return _Mypair._Get_first();

  00034	8b 45 68	 mov	 eax, DWORD PTR _this$[ebp]
; File C:\Program Files (x86)\Microsoft Visual Studio\2019\Community\VC\Tools\MSVC\14.28.29333\include\xmemory

; 1347 :         return *this;

  00037	89 45 24	 mov	 DWORD PTR $T20[ebp], eax
; File C:\Program Files (x86)\Microsoft Visual Studio\2019\Community\VC\Tools\MSVC\14.28.29333\include\vector

; 1733 :         return _Mypair._Get_first();

  0003a	8b 45 24	 mov	 eax, DWORD PTR $T20[ebp]
  0003d	89 45 c0	 mov	 DWORD PTR __Al$[ebp], eax

; 726  :         // reallocate and insert by perfectly forwarding _Val at _Whereptr
; 727  :         _Alty& _Al        = _Getal();
; 728  :         auto& _My_data    = _Mypair._Myval2;

  00040	8b 45 68	 mov	 eax, DWORD PTR _this$[ebp]
  00043	89 45 40	 mov	 DWORD PTR __My_data$[ebp], eax

; 729  :         pointer& _Myfirst = _My_data._Myfirst;

  00046	8b 45 40	 mov	 eax, DWORD PTR __My_data$[ebp]
  00049	89 45 58	 mov	 DWORD PTR __Myfirst$[ebp], eax

; 730  :         pointer& _Mylast  = _My_data._Mylast;

  0004c	8b 45 40	 mov	 eax, DWORD PTR __My_data$[ebp]
  0004f	83 c0 04	 add	 eax, 4
  00052	89 45 54	 mov	 DWORD PTR __Mylast$[ebp], eax

; 731  : 
; 732  :         _STL_INTERNAL_CHECK(_Mylast == _My_data._Myend); // check that we have no unused capacity
; 733  : 
; 734  :         const auto _Whereoff = static_cast<size_type>(_Whereptr - _Myfirst);

  00055	8b 45 58	 mov	 eax, DWORD PTR __Myfirst$[ebp]
  00058	8b 4d 78	 mov	 ecx, DWORD PTR __Whereptr$[ebp]
  0005b	2b 08		 sub	 ecx, DWORD PTR [eax]
  0005d	c1 f9 02	 sar	 ecx, 2
  00060	89 4d 60	 mov	 DWORD PTR __Whereoff$[ebp], ecx

; 735  :         const auto _Oldsize  = static_cast<size_type>(_Mylast - _Myfirst);

  00063	8b 45 54	 mov	 eax, DWORD PTR __Mylast$[ebp]
  00066	8b 4d 58	 mov	 ecx, DWORD PTR __Myfirst$[ebp]
  00069	8b 00		 mov	 eax, DWORD PTR [eax]
  0006b	2b 01		 sub	 eax, DWORD PTR [ecx]
  0006d	c1 f8 02	 sar	 eax, 2
  00070	89 45 30	 mov	 DWORD PTR __Oldsize$[ebp], eax

; 1737 :         return _Mypair._Get_first();

  00073	8b 45 68	 mov	 eax, DWORD PTR _this$[ebp]
; File C:\Program Files (x86)\Microsoft Visual Studio\2019\Community\VC\Tools\MSVC\14.28.29333\include\xmemory

; 1351 :         return *this;

  00076	89 45 20	 mov	 DWORD PTR $T19[ebp], eax
; File C:\Program Files (x86)\Microsoft Visual Studio\2019\Community\VC\Tools\MSVC\14.28.29333\include\vector

; 1737 :         return _Mypair._Get_first();

  00079	8b 45 20	 mov	 eax, DWORD PTR $T19[ebp]
  0007c	89 45 bc	 mov	 DWORD PTR $T3[ebp], eax
; File C:\Program Files (x86)\Microsoft Visual Studio\2019\Community\VC\Tools\MSVC\14.28.29333\include\xmemory

; 710  :         return static_cast<size_t>(-1) / sizeof(value_type);

  0007f	c7 45 3c ff ff
	ff 3f		 mov	 DWORD PTR $T22[ebp], 1073741823 ; 3fffffffH
; File C:\Program Files (x86)\Microsoft Visual Studio\2019\Community\VC\Tools\MSVC\14.28.29333\include\limits

; 557  :         return INT_MAX;

  00086	c7 45 1c ff ff
	ff 7f		 mov	 DWORD PTR $T18[ebp], 2147483647 ; 7fffffffH
; File C:\Program Files (x86)\Microsoft Visual Studio\2019\Community\VC\Tools\MSVC\14.28.29333\include\vector

; 1488 :         return (_STD min)(

  0008d	8b 45 1c	 mov	 eax, DWORD PTR $T18[ebp]
  00090	89 45 38	 mov	 DWORD PTR $T21[ebp], eax
; File C:\Program Files (x86)\Microsoft Visual Studio\2019\Community\VC\Tools\MSVC\14.28.29333\include\utility

; 68   :     return _Right < _Left ? _Right : _Left;

  00093	8b 45 3c	 mov	 eax, DWORD PTR $T22[ebp]
  00096	3b 45 38	 cmp	 eax, DWORD PTR $T21[ebp]
  00099	73 08		 jae	 SHORT $LN34@Emplace_re
  0009b	8d 45 3c	 lea	 eax, DWORD PTR $T22[ebp]
  0009e	89 45 34	 mov	 DWORD PTR tv172[ebp], eax
  000a1	eb 06		 jmp	 SHORT $LN35@Emplace_re
$LN34@Emplace_re:
  000a3	8d 45 38	 lea	 eax, DWORD PTR $T21[ebp]
  000a6	89 45 34	 mov	 DWORD PTR tv172[ebp], eax
$LN35@Emplace_re:
  000a9	8b 45 34	 mov	 eax, DWORD PTR tv172[ebp]
  000ac	89 45 18	 mov	 DWORD PTR $T17[ebp], eax
  000af	8b 45 18	 mov	 eax, DWORD PTR $T17[ebp]
  000b2	89 45 14	 mov	 DWORD PTR $T16[ebp], eax
; File C:\Program Files (x86)\Microsoft Visual Studio\2019\Community\VC\Tools\MSVC\14.28.29333\include\vector

; 1488 :         return (_STD min)(

  000b5	8b 45 14	 mov	 eax, DWORD PTR $T16[ebp]
  000b8	8b 00		 mov	 eax, DWORD PTR [eax]
  000ba	89 45 10	 mov	 DWORD PTR $T15[ebp], eax

; 736  : 
; 737  :         if (_Oldsize == max_size()) {

  000bd	8b 45 30	 mov	 eax, DWORD PTR __Oldsize$[ebp]
  000c0	3b 45 10	 cmp	 eax, DWORD PTR $T15[ebp]
  000c3	75 05		 jne	 SHORT $LN2@Emplace_re

; 738  :             _Xlength();

  000c5	e8 00 00 00 00	 call	 ?_Xlength@?$vector@V?$CRef@VCGrannyMaterial@@@@V?$allocator@V?$CRef@VCGrannyMaterial@@@@@std@@@std@@CAXXZ ; std::vector<CRef<CGrannyMaterial>,std::allocator<CRef<CGrannyMaterial> > >::_Xlength
$LN2@Emplace_re:

; 739  :         }
; 740  : 
; 741  :         const size_type _Newsize     = _Oldsize + 1;

  000ca	8b 45 30	 mov	 eax, DWORD PTR __Oldsize$[ebp]
  000cd	40		 inc	 eax
  000ce	89 45 28	 mov	 DWORD PTR __Newsize$[ebp], eax

; 742  :         const size_type _Newcapacity = _Calculate_growth(_Newsize);

  000d1	ff 75 28	 push	 DWORD PTR __Newsize$[ebp]
  000d4	8b 4d 68	 mov	 ecx, DWORD PTR _this$[ebp]
  000d7	e8 00 00 00 00	 call	 ?_Calculate_growth@?$vector@V?$CRef@VCGrannyMaterial@@@@V?$allocator@V?$CRef@VCGrannyMaterial@@@@@std@@@std@@ABEII@Z ; std::vector<CRef<CGrannyMaterial>,std::allocator<CRef<CGrannyMaterial> > >::_Calculate_growth
  000dc	89 45 50	 mov	 DWORD PTR __Newcapacity$[ebp], eax
; File C:\Program Files (x86)\Microsoft Visual Studio\2019\Community\VC\Tools\MSVC\14.28.29333\include\xmemory

; 56   :     constexpr bool _Overflow_is_possible = _Ty_size > 1;

  000df	c6 45 4f 01	 mov	 BYTE PTR __Overflow_is_possible$23[ebp], 1

; 57   : 
; 58   :     if _CONSTEXPR_IF (_Overflow_is_possible) {
; 59   :         constexpr size_t _Max_possible = static_cast<size_t>(-1) / _Ty_size;

  000e3	c7 45 b8 ff ff
	ff 3f		 mov	 DWORD PTR __Max_possible$2[ebp], 1073741823 ; 3fffffffH

; 60   :         if (_Count > _Max_possible) {

  000ea	81 7d 50 ff ff
	ff 3f		 cmp	 DWORD PTR __Newcapacity$[ebp], 1073741823 ; 3fffffffH
  000f1	76 05		 jbe	 SHORT $LN67@Emplace_re

; 61   :             _Throw_bad_array_new_length(); // multiply overflow

  000f3	e8 00 00 00 00	 call	 ?_Throw_bad_array_new_length@std@@YAXXZ ; std::_Throw_bad_array_new_length
$LN67@Emplace_re:

; 62   :         }
; 63   :     }
; 64   : 
; 65   :     return _Count * _Ty_size;

  000f8	8b 45 50	 mov	 eax, DWORD PTR __Newcapacity$[ebp]
  000fb	c1 e0 02	 shl	 eax, 2
  000fe	89 45 0c	 mov	 DWORD PTR $T14[ebp], eax

; 814  :         return static_cast<_Ty*>(_Allocate<_New_alignof<_Ty>>(_Get_size_of_n<sizeof(_Ty)>(_Count)));

  00101	ff 75 0c	 push	 DWORD PTR $T14[ebp]
  00104	e8 00 00 00 00	 call	 ??$_Allocate@$07U_Default_allocate_traits@std@@$0A@@std@@YAPAXI@Z ; std::_Allocate<8,std::_Default_allocate_traits,0>
  00109	59		 pop	 ecx
  0010a	89 45 6c	 mov	 DWORD PTR __Newvec$[ebp], eax
; File C:\Program Files (x86)\Microsoft Visual Studio\2019\Community\VC\Tools\MSVC\14.28.29333\include\vector

; 745  :         const pointer _Constructed_last = _Newvec + _Whereoff + 1;

  0010d	8b 45 60	 mov	 eax, DWORD PTR __Whereoff$[ebp]
  00110	8b 4d 6c	 mov	 ecx, DWORD PTR __Newvec$[ebp]
  00113	8d 44 81 04	 lea	 eax, DWORD PTR [ecx+eax*4+4]
  00117	89 45 2c	 mov	 DWORD PTR __Constructed_last$[ebp], eax

; 746  :         pointer _Constructed_first      = _Constructed_last;

  0011a	8b 45 2c	 mov	 eax, DWORD PTR __Constructed_last$[ebp]
  0011d	89 45 44	 mov	 DWORD PTR __Constructed_first$[ebp], eax

; 747  : 
; 748  :         _TRY_BEGIN

  00120	83 65 fc 00	 and	 DWORD PTR __$EHRec$[ebp+12], 0
; File C:\Program Files (x86)\Microsoft Visual Studio\2019\Community\VC\Tools\MSVC\14.28.29333\include\type_traits

; 1443 :     return static_cast<_Ty&&>(_Arg);

  00124	8b 45 7c	 mov	 eax, DWORD PTR _<_Val_0>$[ebp]
  00127	89 45 04	 mov	 DWORD PTR $T12[ebp], eax
; File C:\Program Files (x86)\Microsoft Visual Studio\2019\Community\VC\Tools\MSVC\14.28.29333\include\vector

; 749  :         _Alty_traits::construct(_Al, _Unfancy(_Newvec + _Whereoff), _STD forward<_Valty>(_Val)...);

  0012a	8b 45 60	 mov	 eax, DWORD PTR __Whereoff$[ebp]
  0012d	8b 4d 6c	 mov	 ecx, DWORD PTR __Newvec$[ebp]
  00130	8d 04 81	 lea	 eax, DWORD PTR [ecx+eax*4]
; File C:\Program Files (x86)\Microsoft Visual Studio\2019\Community\VC\Tools\MSVC\14.28.29333\include\xstddef

; 289  :     return _Ptr;

  00133	89 45 08	 mov	 DWORD PTR $T13[ebp], eax
; File C:\Program Files (x86)\Microsoft Visual Studio\2019\Community\VC\Tools\MSVC\14.28.29333\include\vcruntime_new.h

; 169  :         return _Where;

  00136	8b 45 08	 mov	 eax, DWORD PTR $T13[ebp]
  00139	89 45 5c	 mov	 DWORD PTR $T24[ebp], eax
; File C:\Program Files (x86)\Microsoft Visual Studio\2019\Community\VC\Tools\MSVC\14.28.29333\include\type_traits

; 1443 :     return static_cast<_Ty&&>(_Arg);

  0013c	8b 45 04	 mov	 eax, DWORD PTR $T12[ebp]
  0013f	89 45 00	 mov	 DWORD PTR $T11[ebp], eax
; File D:\Metin2 Server Files\mainline\SRC_2014\Metin2Client\eterlib\Ref.h

; 32   : 			m_pObject = NULL;

  00142	8b 45 5c	 mov	 eax, DWORD PTR $T24[ebp]
  00145	83 20 00	 and	 DWORD PTR [eax], 0

; 33   : 			Initialize(c_rRef.m_pObject);			

  00148	8b 45 00	 mov	 eax, DWORD PTR $T11[ebp]
  0014b	8b 00		 mov	 eax, DWORD PTR [eax]
  0014d	89 45 ec	 mov	 DWORD PTR _pObject$10[ebp], eax

; 94   : 			m_pObject = pObject;

  00150	8b 45 5c	 mov	 eax, DWORD PTR $T24[ebp]
  00153	8b 4d ec	 mov	 ecx, DWORD PTR _pObject$10[ebp]
  00156	89 08		 mov	 DWORD PTR [eax], ecx

; 95   : 
; 96   : 			if (m_pObject)

  00158	8b 45 5c	 mov	 eax, DWORD PTR $T24[ebp]
  0015b	83 38 00	 cmp	 DWORD PTR [eax], 0
  0015e	74 0a		 je	 SHORT $LN77@Emplace_re

; 97   : 				m_pObject->AddReference();

  00160	8b 45 5c	 mov	 eax, DWORD PTR $T24[ebp]
  00163	8b 08		 mov	 ecx, DWORD PTR [eax]
  00165	e8 00 00 00 00	 call	 ?AddReference@CReferenceObject@@QAEXXZ ; CReferenceObject::AddReference
$LN77@Emplace_re:
; File C:\Program Files (x86)\Microsoft Visual Studio\2019\Community\VC\Tools\MSVC\14.28.29333\include\vector

; 750  :         _Constructed_first = _Newvec + _Whereoff;

  0016a	8b 45 60	 mov	 eax, DWORD PTR __Whereoff$[ebp]
  0016d	8b 4d 6c	 mov	 ecx, DWORD PTR __Newvec$[ebp]
  00170	8d 04 81	 lea	 eax, DWORD PTR [ecx+eax*4]
  00173	89 45 44	 mov	 DWORD PTR __Constructed_first$[ebp], eax

; 751  : 
; 752  :         if (_Whereptr == _Mylast) { // at back, provide strong guarantee

  00176	8b 45 54	 mov	 eax, DWORD PTR __Mylast$[ebp]
  00179	8b 4d 78	 mov	 ecx, DWORD PTR __Whereptr$[ebp]
  0017c	3b 08		 cmp	 ecx, DWORD PTR [eax]
  0017e	75 3d		 jne	 SHORT $LN4@Emplace_re

; 753  :             _Umove_if_noexcept(_Myfirst, _Mylast, _Newvec);

  00180	8b 45 54	 mov	 eax, DWORD PTR __Mylast$[ebp]
  00183	8b 00		 mov	 eax, DWORD PTR [eax]
  00185	89 45 e0	 mov	 DWORD PTR __Last$[ebp], eax
  00188	8b 45 58	 mov	 eax, DWORD PTR __Myfirst$[ebp]
  0018b	8b 00		 mov	 eax, DWORD PTR [eax]
  0018d	89 45 dc	 mov	 DWORD PTR __First$[ebp], eax

; 1607 :         _Umove_if_noexcept1(_First, _Last, _Dest,

  00190	33 c0		 xor	 eax, eax
  00192	88 45 67	 mov	 BYTE PTR $T25[ebp], al
  00195	8a 45 67	 mov	 al, BYTE PTR $T25[ebp]
  00198	88 45 48	 mov	 BYTE PTR ___formal$[ebp], al

; 1733 :         return _Mypair._Get_first();

  0019b	8b 45 68	 mov	 eax, DWORD PTR _this$[ebp]
; File C:\Program Files (x86)\Microsoft Visual Studio\2019\Community\VC\Tools\MSVC\14.28.29333\include\xmemory

; 1347 :         return *this;

  0019e	89 45 e8	 mov	 DWORD PTR $T9[ebp], eax
; File C:\Program Files (x86)\Microsoft Visual Studio\2019\Community\VC\Tools\MSVC\14.28.29333\include\vector

; 1733 :         return _Mypair._Get_first();

  001a1	8b 45 e8	 mov	 eax, DWORD PTR $T9[ebp]
  001a4	89 45 e4	 mov	 DWORD PTR $T8[ebp], eax

; 1602 :         _Uninitialized_copy(_First, _Last, _Dest, _Getal());

  001a7	ff 75 e4	 push	 DWORD PTR $T8[ebp]
  001aa	ff 75 6c	 push	 DWORD PTR __Newvec$[ebp]
  001ad	ff 75 e0	 push	 DWORD PTR __Last$[ebp]
  001b0	ff 75 dc	 push	 DWORD PTR __First$[ebp]
  001b3	e8 00 00 00 00	 call	 ??$_Uninitialized_copy@PAV?$CRef@VCGrannyMaterial@@@@V?$allocator@V?$CRef@VCGrannyMaterial@@@@@std@@@std@@YAPAV?$CRef@VCGrannyMaterial@@@@QAV1@0PAV1@AAV?$allocator@V?$CRef@VCGrannyMaterial@@@@@0@@Z ; std::_Uninitialized_copy<CRef<CGrannyMaterial> *,std::allocator<CRef<CGrannyMaterial> > >
  001b8	83 c4 10	 add	 esp, 16			; 00000010H

; 754  :         } else { // provide basic guarantee

  001bb	eb 5e		 jmp	 SHORT $LN5@Emplace_re
$LN4@Emplace_re:

; 755  :             _Umove(_Myfirst, _Whereptr, _Newvec);

  001bd	8b 45 58	 mov	 eax, DWORD PTR __Myfirst$[ebp]
  001c0	8b 00		 mov	 eax, DWORD PTR [eax]
  001c2	89 45 d0	 mov	 DWORD PTR __First$[ebp], eax

; 1733 :         return _Mypair._Get_first();

  001c5	8b 45 68	 mov	 eax, DWORD PTR _this$[ebp]
; File C:\Program Files (x86)\Microsoft Visual Studio\2019\Community\VC\Tools\MSVC\14.28.29333\include\xmemory

; 1347 :         return *this;

  001c8	89 45 d8	 mov	 DWORD PTR $T7[ebp], eax
; File C:\Program Files (x86)\Microsoft Visual Studio\2019\Community\VC\Tools\MSVC\14.28.29333\include\vector

; 1733 :         return _Mypair._Get_first();

  001cb	8b 45 d8	 mov	 eax, DWORD PTR $T7[ebp]
  001ce	89 45 d4	 mov	 DWORD PTR $T6[ebp], eax

; 1592 :         return _Uninitialized_move(_First, _Last, _Dest, _Getal());

  001d1	ff 75 d4	 push	 DWORD PTR $T6[ebp]
  001d4	ff 75 6c	 push	 DWORD PTR __Newvec$[ebp]
  001d7	ff 75 78	 push	 DWORD PTR __Whereptr$[ebp]
  001da	ff 75 d0	 push	 DWORD PTR __First$[ebp]
  001dd	e8 00 00 00 00	 call	 ??$_Uninitialized_move@PAV?$CRef@VCGrannyMaterial@@@@V?$allocator@V?$CRef@VCGrannyMaterial@@@@@std@@@std@@YAPAV?$CRef@VCGrannyMaterial@@@@QAV1@0PAV1@AAV?$allocator@V?$CRef@VCGrannyMaterial@@@@@0@@Z ; std::_Uninitialized_move<CRef<CGrannyMaterial> *,std::allocator<CRef<CGrannyMaterial> > >
  001e2	83 c4 10	 add	 esp, 16			; 00000010H

; 756  :             _Constructed_first = _Newvec;

  001e5	8b 45 6c	 mov	 eax, DWORD PTR __Newvec$[ebp]
  001e8	89 45 44	 mov	 DWORD PTR __Constructed_first$[ebp], eax

; 757  :             _Umove(_Whereptr, _Mylast, _Newvec + _Whereoff + 1);

  001eb	8b 45 54	 mov	 eax, DWORD PTR __Mylast$[ebp]
  001ee	8b 00		 mov	 eax, DWORD PTR [eax]
  001f0	89 45 c4	 mov	 DWORD PTR __Last$[ebp], eax

; 1733 :         return _Mypair._Get_first();

  001f3	8b 45 68	 mov	 eax, DWORD PTR _this$[ebp]
; File C:\Program Files (x86)\Microsoft Visual Studio\2019\Community\VC\Tools\MSVC\14.28.29333\include\xmemory

; 1347 :         return *this;

  001f6	89 45 cc	 mov	 DWORD PTR $T5[ebp], eax
; File C:\Program Files (x86)\Microsoft Visual Studio\2019\Community\VC\Tools\MSVC\14.28.29333\include\vector

; 1733 :         return _Mypair._Get_first();

  001f9	8b 45 cc	 mov	 eax, DWORD PTR $T5[ebp]
  001fc	89 45 c8	 mov	 DWORD PTR $T4[ebp], eax

; 1592 :         return _Uninitialized_move(_First, _Last, _Dest, _Getal());

  001ff	ff 75 c8	 push	 DWORD PTR $T4[ebp]

; 757  :             _Umove(_Whereptr, _Mylast, _Newvec + _Whereoff + 1);

  00202	8b 45 60	 mov	 eax, DWORD PTR __Whereoff$[ebp]
  00205	8b 4d 6c	 mov	 ecx, DWORD PTR __Newvec$[ebp]
  00208	8d 44 81 04	 lea	 eax, DWORD PTR [ecx+eax*4+4]

; 1592 :         return _Uninitialized_move(_First, _Last, _Dest, _Getal());

  0020c	50		 push	 eax
  0020d	ff 75 c4	 push	 DWORD PTR __Last$[ebp]
  00210	ff 75 78	 push	 DWORD PTR __Whereptr$[ebp]
  00213	e8 00 00 00 00	 call	 ??$_Uninitialized_move@PAV?$CRef@VCGrannyMaterial@@@@V?$allocator@V?$CRef@VCGrannyMaterial@@@@@std@@@std@@YAPAV?$CRef@VCGrannyMaterial@@@@QAV1@0PAV1@AAV?$allocator@V?$CRef@VCGrannyMaterial@@@@@0@@Z ; std::_Uninitialized_move<CRef<CGrannyMaterial> *,std::allocator<CRef<CGrannyMaterial> > >
  00218	83 c4 10	 add	 esp, 16			; 00000010H
$LN5@Emplace_re:

; 757  :             _Umove(_Whereptr, _Mylast, _Newvec + _Whereoff + 1);

  0021b	eb 2b		 jmp	 SHORT $LN7@Emplace_re
__catch$??$_Emplace_reallocate@V?$CRef@VCGrannyMaterial@@@@@?$vector@V?$CRef@VCGrannyMaterial@@@@V?$allocator@V?$CRef@VCGrannyMaterial@@@@@std@@@std@@QAEPAV?$CRef@VCGrannyMaterial@@@@QAV2@$$QAV2@@Z$0:

; 758  :         }
; 759  :         _CATCH_ALL
; 760  :         _Destroy(_Constructed_first, _Constructed_last);

  0021d	ff 75 2c	 push	 DWORD PTR __Constructed_last$[ebp]
  00220	ff 75 44	 push	 DWORD PTR __Constructed_first$[ebp]
  00223	8b 4d 68	 mov	 ecx, DWORD PTR _this$[ebp]
  00226	e8 00 00 00 00	 call	 ?_Destroy@?$vector@V?$CRef@VCGrannyMaterial@@@@V?$allocator@V?$CRef@VCGrannyMaterial@@@@@std@@@std@@AAEXPAV?$CRef@VCGrannyMaterial@@@@0@Z ; std::vector<CRef<CGrannyMaterial>,std::allocator<CRef<CGrannyMaterial> > >::_Destroy

; 761  :         _Al.deallocate(_Newvec, _Newcapacity);

  0022b	ff 75 50	 push	 DWORD PTR __Newcapacity$[ebp]
  0022e	ff 75 6c	 push	 DWORD PTR __Newvec$[ebp]
  00231	8b 4d c0	 mov	 ecx, DWORD PTR __Al$[ebp]
  00234	e8 00 00 00 00	 call	 ?deallocate@?$allocator@V?$CRef@VCGrannyMaterial@@@@@std@@QAEXQAV?$CRef@VCGrannyMaterial@@@@I@Z ; std::allocator<CRef<CGrannyMaterial> >::deallocate

; 762  :         _RERAISE;

  00239	6a 00		 push	 0
  0023b	6a 00		 push	 0
  0023d	e8 00 00 00 00	 call	 __CxxThrowException@8

; 763  :         _CATCH_END

  00242	b8 00 00 00 00	 mov	 eax, $LN10@Emplace_re
  00247	c3		 ret	 0
$LN7@Emplace_re:
  00248	83 4d fc ff	 or	 DWORD PTR __$EHRec$[ebp+12], -1
  0024c	eb 04		 jmp	 SHORT __tryend$??$_Emplace_reallocate@V?$CRef@VCGrannyMaterial@@@@@?$vector@V?$CRef@VCGrannyMaterial@@@@V?$allocator@V?$CRef@VCGrannyMaterial@@@@@std@@@std@@QAEPAV?$CRef@VCGrannyMaterial@@@@QAV2@$$QAV2@@Z$1
$LN10@Emplace_re:
; File C:\Program Files (x86)\Microsoft Visual Studio\2019\Community\VC\Tools\MSVC\14.28.29333\include\xmemory
  0024e	83 4d fc ff	 or	 DWORD PTR __$EHRec$[ebp+12], -1
__tryend$??$_Emplace_reallocate@V?$CRef@VCGrannyMaterial@@@@@?$vector@V?$CRef@VCGrannyMaterial@@@@V?$allocator@V?$CRef@VCGrannyMaterial@@@@@std@@@std@@QAEPAV?$CRef@VCGrannyMaterial@@@@QAV2@$$QAV2@@Z$1:
; File C:\Program Files (x86)\Microsoft Visual Studio\2019\Community\VC\Tools\MSVC\14.28.29333\include\vector

; 764  : 
; 765  :         _Change_array(_Newvec, _Newsize, _Newcapacity);

  00252	ff 75 50	 push	 DWORD PTR __Newcapacity$[ebp]
  00255	ff 75 28	 push	 DWORD PTR __Newsize$[ebp]
  00258	ff 75 6c	 push	 DWORD PTR __Newvec$[ebp]
  0025b	8b 4d 68	 mov	 ecx, DWORD PTR _this$[ebp]
  0025e	e8 00 00 00 00	 call	 ?_Change_array@?$vector@V?$CRef@VCGrannyMaterial@@@@V?$allocator@V?$CRef@VCGrannyMaterial@@@@@std@@@std@@AAEXQAV?$CRef@VCGrannyMaterial@@@@II@Z ; std::vector<CRef<CGrannyMaterial>,std::allocator<CRef<CGrannyMaterial> > >::_Change_array

; 766  :         return _Newvec + _Whereoff;

  00263	8b 45 60	 mov	 eax, DWORD PTR __Whereoff$[ebp]
  00266	8b 4d 6c	 mov	 ecx, DWORD PTR __Newvec$[ebp]
  00269	8d 04 81	 lea	 eax, DWORD PTR [ecx+eax*4]
$LN70@Emplace_re:

; 767  :     }

  0026c	8b 4d f4	 mov	 ecx, DWORD PTR __$EHRec$[ebp+4]
  0026f	64 89 0d 00 00
	00 00		 mov	 DWORD PTR fs:0, ecx
  00276	59		 pop	 ecx
  00277	5f		 pop	 edi
  00278	5e		 pop	 esi
  00279	5b		 pop	 ebx
  0027a	83 c5 70	 add	 ebp, 112		; 00000070H
  0027d	c9		 leave
  0027e	c2 08 00	 ret	 8
  00281	cc		 int	 3
  00282	cc		 int	 3
  00283	cc		 int	 3
  00284	cc		 int	 3
  00285	cc		 int	 3
_TEXT	ENDS
;	COMDAT text$x
text$x	SEGMENT
__ehhandler$??$_Emplace_reallocate@V?$CRef@VCGrannyMaterial@@@@@?$vector@V?$CRef@VCGrannyMaterial@@@@V?$allocator@V?$CRef@VCGrannyMaterial@@@@@std@@@std@@QAEPAV?$CRef@VCGrannyMaterial@@@@QAV2@$$QAV2@@Z:
  00000	90		 npad	 1
  00001	90		 npad	 1
  00002	8b 54 24 08	 mov	 edx, DWORD PTR [esp+8]
  00006	8d 42 0c	 lea	 eax, DWORD PTR [edx+12]
  00009	8b 4a b4	 mov	 ecx, DWORD PTR [edx-76]
  0000c	33 c8		 xor	 ecx, eax
  0000e	e8 00 00 00 00	 call	 @__security_check_cookie@4
  00013	b8 00 00 00 00	 mov	 eax, OFFSET __ehfuncinfo$??$_Emplace_reallocate@V?$CRef@VCGrannyMaterial@@@@@?$vector@V?$CRef@VCGrannyMaterial@@@@V?$allocator@V?$CRef@VCGrannyMaterial@@@@@std@@@std@@QAEPAV?$CRef@VCGrannyMaterial@@@@QAV2@$$QAV2@@Z
  00018	e9 00 00 00 00	 jmp	 ___CxxFrameHandler3
text$x	ENDS
??$_Emplace_reallocate@V?$CRef@VCGrannyMaterial@@@@@?$vector@V?$CRef@VCGrannyMaterial@@@@V?$allocator@V?$CRef@VCGrannyMaterial@@@@@std@@@std@@QAEPAV?$CRef@VCGrannyMaterial@@@@QAV2@$$QAV2@@Z ENDP ; std::vector<CRef<CGrannyMaterial>,std::allocator<CRef<CGrannyMaterial> > >::_Emplace_reallocate<CRef<CGrannyMaterial> >
; Function compile flags: /Odspy
; File C:\Program Files (x86)\Microsoft Visual Studio\2019\Community\VC\Tools\MSVC\14.28.29333\include\vector
; File C:\Program Files (x86)\Microsoft Visual Studio\2019\Community\VC\Tools\MSVC\14.28.29333\include\type_traits
; File C:\Program Files (x86)\Microsoft Visual Studio\2019\Community\VC\Tools\MSVC\14.28.29333\include\vector
; File C:\Program Files (x86)\Microsoft Visual Studio\2019\Community\VC\Tools\MSVC\14.28.29333\include\xstddef
; File C:\Program Files (x86)\Microsoft Visual Studio\2019\Community\VC\Tools\MSVC\14.28.29333\include\vector
; File C:\Program Files (x86)\Microsoft Visual Studio\2019\Community\VC\Tools\MSVC\14.28.29333\include\xmemory
; File C:\Program Files (x86)\Microsoft Visual Studio\2019\Community\VC\Tools\MSVC\14.28.29333\include\vector
; File C:\Program Files (x86)\Microsoft Visual Studio\2019\Community\VC\Tools\MSVC\14.28.29333\include\vcruntime_new.h
; File C:\Program Files (x86)\Microsoft Visual Studio\2019\Community\VC\Tools\MSVC\14.28.29333\include\type_traits
; File D:\Metin2 Server Files\mainline\SRC_2014\Metin2Client\eterlib\Ref.h
; File C:\Program Files (x86)\Microsoft Visual Studio\2019\Community\VC\Tools\MSVC\14.28.29333\include\vector
;	COMDAT ??$_Emplace_back_with_unused_capacity@V?$CRef@VCGrannyMaterial@@@@@?$vector@V?$CRef@VCGrannyMaterial@@@@V?$allocator@V?$CRef@VCGrannyMaterial@@@@@std@@@std@@AAEX$$QAV?$CRef@VCGrannyMaterial@@@@@Z
_TEXT	SEGMENT
__Result$ = -48						; size = 4
$T1 = -44						; size = 4
_pObject$2 = -40					; size = 4
$T3 = -36						; size = 4
$T4 = -32						; size = 4
$T5 = -28						; size = 4
$T6 = -24						; size = 4
__Ptr$ = -20						; size = 4
__My_data$ = -16					; size = 4
_this$ = -12						; size = 4
__Mylast$ = -8						; size = 4
$T7 = -4						; size = 4
_<_Val_0>$ = 8						; size = 4
??$_Emplace_back_with_unused_capacity@V?$CRef@VCGrannyMaterial@@@@@?$vector@V?$CRef@VCGrannyMaterial@@@@V?$allocator@V?$CRef@VCGrannyMaterial@@@@@std@@@std@@AAEX$$QAV?$CRef@VCGrannyMaterial@@@@@Z PROC ; std::vector<CRef<CGrannyMaterial>,std::allocator<CRef<CGrannyMaterial> > >::_Emplace_back_with_unused_capacity<CRef<CGrannyMaterial> >, COMDAT
; _this$ = ecx

; 682  :     decltype(auto) _Emplace_back_with_unused_capacity(_Valty&&... _Val) {

  00000	55		 push	 ebp
  00001	8b ec		 mov	 ebp, esp
  00003	83 ec 30	 sub	 esp, 48			; 00000030H
  00006	89 4d f4	 mov	 DWORD PTR _this$[ebp], ecx

; 683  :         // insert by perfectly forwarding into element at end, provide strong guarantee
; 684  :         auto& _My_data   = _Mypair._Myval2;

  00009	8b 45 f4	 mov	 eax, DWORD PTR _this$[ebp]
  0000c	89 45 f0	 mov	 DWORD PTR __My_data$[ebp], eax

; 685  :         pointer& _Mylast = _My_data._Mylast;

  0000f	8b 45 f0	 mov	 eax, DWORD PTR __My_data$[ebp]
  00012	83 c0 04	 add	 eax, 4
  00015	89 45 f8	 mov	 DWORD PTR __Mylast$[ebp], eax
; File C:\Program Files (x86)\Microsoft Visual Studio\2019\Community\VC\Tools\MSVC\14.28.29333\include\type_traits

; 1443 :     return static_cast<_Ty&&>(_Arg);

  00018	8b 45 08	 mov	 eax, DWORD PTR _<_Val_0>$[ebp]
  0001b	89 45 e0	 mov	 DWORD PTR $T4[ebp], eax
; File C:\Program Files (x86)\Microsoft Visual Studio\2019\Community\VC\Tools\MSVC\14.28.29333\include\vector

; 687  :         _Alty_traits::construct(_Getal(), _Unfancy(_Mylast), _STD forward<_Valty>(_Val)...);

  0001e	8b 45 f8	 mov	 eax, DWORD PTR __Mylast$[ebp]
  00021	8b 00		 mov	 eax, DWORD PTR [eax]
  00023	89 45 ec	 mov	 DWORD PTR __Ptr$[ebp], eax
; File C:\Program Files (x86)\Microsoft Visual Studio\2019\Community\VC\Tools\MSVC\14.28.29333\include\xstddef

; 289  :     return _Ptr;

  00026	8b 45 ec	 mov	 eax, DWORD PTR __Ptr$[ebp]
  00029	89 45 e4	 mov	 DWORD PTR $T5[ebp], eax
; File C:\Program Files (x86)\Microsoft Visual Studio\2019\Community\VC\Tools\MSVC\14.28.29333\include\vector

; 1733 :         return _Mypair._Get_first();

  0002c	8b 45 f4	 mov	 eax, DWORD PTR _this$[ebp]
; File C:\Program Files (x86)\Microsoft Visual Studio\2019\Community\VC\Tools\MSVC\14.28.29333\include\xmemory

; 1347 :         return *this;

  0002f	89 45 e8	 mov	 DWORD PTR $T6[ebp], eax
; File C:\Program Files (x86)\Microsoft Visual Studio\2019\Community\VC\Tools\MSVC\14.28.29333\include\vector

; 1733 :         return _Mypair._Get_first();

  00032	8b 45 e8	 mov	 eax, DWORD PTR $T6[ebp]
  00035	89 45 d4	 mov	 DWORD PTR $T1[ebp], eax
; File C:\Program Files (x86)\Microsoft Visual Studio\2019\Community\VC\Tools\MSVC\14.28.29333\include\vcruntime_new.h

; 169  :         return _Where;

  00038	8b 45 e4	 mov	 eax, DWORD PTR $T5[ebp]
  0003b	89 45 fc	 mov	 DWORD PTR $T7[ebp], eax
; File C:\Program Files (x86)\Microsoft Visual Studio\2019\Community\VC\Tools\MSVC\14.28.29333\include\type_traits

; 1443 :     return static_cast<_Ty&&>(_Arg);

  0003e	8b 45 e0	 mov	 eax, DWORD PTR $T4[ebp]
  00041	89 45 dc	 mov	 DWORD PTR $T3[ebp], eax
; File D:\Metin2 Server Files\mainline\SRC_2014\Metin2Client\eterlib\Ref.h

; 32   : 			m_pObject = NULL;

  00044	8b 45 fc	 mov	 eax, DWORD PTR $T7[ebp]
  00047	83 20 00	 and	 DWORD PTR [eax], 0

; 33   : 			Initialize(c_rRef.m_pObject);			

  0004a	8b 45 dc	 mov	 eax, DWORD PTR $T3[ebp]
  0004d	8b 00		 mov	 eax, DWORD PTR [eax]
  0004f	89 45 d8	 mov	 DWORD PTR _pObject$2[ebp], eax

; 94   : 			m_pObject = pObject;

  00052	8b 45 fc	 mov	 eax, DWORD PTR $T7[ebp]
  00055	8b 4d d8	 mov	 ecx, DWORD PTR _pObject$2[ebp]
  00058	89 08		 mov	 DWORD PTR [eax], ecx

; 95   : 
; 96   : 			if (m_pObject)

  0005a	8b 45 fc	 mov	 eax, DWORD PTR $T7[ebp]
  0005d	83 38 00	 cmp	 DWORD PTR [eax], 0
  00060	74 0a		 je	 SHORT $LN28@Emplace_ba

; 97   : 				m_pObject->AddReference();

  00062	8b 45 fc	 mov	 eax, DWORD PTR $T7[ebp]
  00065	8b 08		 mov	 ecx, DWORD PTR [eax]
  00067	e8 00 00 00 00	 call	 ?AddReference@CReferenceObject@@QAEXXZ ; CReferenceObject::AddReference
$LN28@Emplace_ba:
; File C:\Program Files (x86)\Microsoft Visual Studio\2019\Community\VC\Tools\MSVC\14.28.29333\include\vector

; 689  :         _Ty& _Result = *_Mylast;

  0006c	8b 45 f8	 mov	 eax, DWORD PTR __Mylast$[ebp]
  0006f	8b 00		 mov	 eax, DWORD PTR [eax]
  00071	89 45 d0	 mov	 DWORD PTR __Result$[ebp], eax

; 690  :         ++_Mylast;

  00074	8b 45 f8	 mov	 eax, DWORD PTR __Mylast$[ebp]
  00077	8b 00		 mov	 eax, DWORD PTR [eax]
  00079	83 c0 04	 add	 eax, 4
  0007c	8b 4d f8	 mov	 ecx, DWORD PTR __Mylast$[ebp]
  0007f	89 01		 mov	 DWORD PTR [ecx], eax

; 691  : #if _HAS_CXX17
; 692  :         return _Result;
; 693  : #else // ^^^ _HAS_CXX17 ^^^ // vvv !_HAS_CXX17 vvv
; 694  :         (void) _Result;
; 695  : #endif // _HAS_CXX17
; 696  :     }

  00081	c9		 leave
  00082	c2 04 00	 ret	 4
??$_Emplace_back_with_unused_capacity@V?$CRef@VCGrannyMaterial@@@@@?$vector@V?$CRef@VCGrannyMaterial@@@@V?$allocator@V?$CRef@VCGrannyMaterial@@@@@std@@@std@@AAEX$$QAV?$CRef@VCGrannyMaterial@@@@@Z ENDP ; std::vector<CRef<CGrannyMaterial>,std::allocator<CRef<CGrannyMaterial> > >::_Emplace_back_with_unused_capacity<CRef<CGrannyMaterial> >
_TEXT	ENDS
; Function compile flags: /Odspy
; File C:\Program Files (x86)\Microsoft Visual Studio\2019\Community\VC\Tools\MSVC\14.28.29333\include\vector
; File C:\Program Files (x86)\Microsoft Visual Studio\2019\Community\VC\Tools\MSVC\14.28.29333\include\type_traits
; File C:\Program Files (x86)\Microsoft Visual Studio\2019\Community\VC\Tools\MSVC\14.28.29333\include\vector
; File C:\Program Files (x86)\Microsoft Visual Studio\2019\Community\VC\Tools\MSVC\14.28.29333\include\type_traits
; File C:\Program Files (x86)\Microsoft Visual Studio\2019\Community\VC\Tools\MSVC\14.28.29333\include\vector
;	COMDAT ??$emplace_back@V?$CRef@VCGrannyMaterial@@@@@?$vector@V?$CRef@VCGrannyMaterial@@@@V?$allocator@V?$CRef@VCGrannyMaterial@@@@@std@@@std@@QAEX$$QAV?$CRef@VCGrannyMaterial@@@@@Z
_TEXT	SEGMENT
__Result$ = -24						; size = 4
$T1 = -20						; size = 4
$T2 = -16						; size = 4
__Mylast$ = -12						; size = 4
__My_data$ = -8						; size = 4
_this$ = -4						; size = 4
_<_Val_0>$ = 8						; size = 4
??$emplace_back@V?$CRef@VCGrannyMaterial@@@@@?$vector@V?$CRef@VCGrannyMaterial@@@@V?$allocator@V?$CRef@VCGrannyMaterial@@@@@std@@@std@@QAEX$$QAV?$CRef@VCGrannyMaterial@@@@@Z PROC ; std::vector<CRef<CGrannyMaterial>,std::allocator<CRef<CGrannyMaterial> > >::emplace_back<CRef<CGrannyMaterial> >, COMDAT
; _this$ = ecx

; 700  :     decltype(auto) emplace_back(_Valty&&... _Val) {

  00000	55		 push	 ebp
  00001	8b ec		 mov	 ebp, esp
  00003	83 ec 18	 sub	 esp, 24			; 00000018H
  00006	89 4d fc	 mov	 DWORD PTR _this$[ebp], ecx

; 701  :         // insert by perfectly forwarding into element at end, provide strong guarantee
; 702  :         auto& _My_data   = _Mypair._Myval2;

  00009	8b 45 fc	 mov	 eax, DWORD PTR _this$[ebp]
  0000c	89 45 f8	 mov	 DWORD PTR __My_data$[ebp], eax

; 703  :         pointer& _Mylast = _My_data._Mylast;

  0000f	8b 45 f8	 mov	 eax, DWORD PTR __My_data$[ebp]
  00012	83 c0 04	 add	 eax, 4
  00015	89 45 f4	 mov	 DWORD PTR __Mylast$[ebp], eax

; 704  :         if (_Mylast != _My_data._Myend) {

  00018	8b 45 f4	 mov	 eax, DWORD PTR __Mylast$[ebp]
  0001b	8b 4d f8	 mov	 ecx, DWORD PTR __My_data$[ebp]
  0001e	8b 00		 mov	 eax, DWORD PTR [eax]
  00020	3b 41 08	 cmp	 eax, DWORD PTR [ecx+8]
  00023	74 13		 je	 SHORT $LN2@emplace_ba
; File C:\Program Files (x86)\Microsoft Visual Studio\2019\Community\VC\Tools\MSVC\14.28.29333\include\type_traits

; 1443 :     return static_cast<_Ty&&>(_Arg);

  00025	8b 45 08	 mov	 eax, DWORD PTR _<_Val_0>$[ebp]
  00028	89 45 f0	 mov	 DWORD PTR $T2[ebp], eax
; File C:\Program Files (x86)\Microsoft Visual Studio\2019\Community\VC\Tools\MSVC\14.28.29333\include\vector

; 705  :             return _Emplace_back_with_unused_capacity(_STD forward<_Valty>(_Val)...);

  0002b	ff 75 f0	 push	 DWORD PTR $T2[ebp]
  0002e	8b 4d fc	 mov	 ecx, DWORD PTR _this$[ebp]
  00031	e8 00 00 00 00	 call	 ??$_Emplace_back_with_unused_capacity@V?$CRef@VCGrannyMaterial@@@@@?$vector@V?$CRef@VCGrannyMaterial@@@@V?$allocator@V?$CRef@VCGrannyMaterial@@@@@std@@@std@@AAEX$$QAV?$CRef@VCGrannyMaterial@@@@@Z ; std::vector<CRef<CGrannyMaterial>,std::allocator<CRef<CGrannyMaterial> > >::_Emplace_back_with_unused_capacity<CRef<CGrannyMaterial> >
  00036	eb 19		 jmp	 SHORT $LN1@emplace_ba
$LN2@emplace_ba:
; File C:\Program Files (x86)\Microsoft Visual Studio\2019\Community\VC\Tools\MSVC\14.28.29333\include\type_traits

; 1443 :     return static_cast<_Ty&&>(_Arg);

  00038	8b 45 08	 mov	 eax, DWORD PTR _<_Val_0>$[ebp]
  0003b	89 45 ec	 mov	 DWORD PTR $T1[ebp], eax
; File C:\Program Files (x86)\Microsoft Visual Studio\2019\Community\VC\Tools\MSVC\14.28.29333\include\vector

; 708  :         _Ty& _Result = *_Emplace_reallocate(_Mylast, _STD forward<_Valty>(_Val)...);

  0003e	ff 75 ec	 push	 DWORD PTR $T1[ebp]
  00041	8b 45 f4	 mov	 eax, DWORD PTR __Mylast$[ebp]
  00044	ff 30		 push	 DWORD PTR [eax]
  00046	8b 4d fc	 mov	 ecx, DWORD PTR _this$[ebp]
  00049	e8 00 00 00 00	 call	 ??$_Emplace_reallocate@V?$CRef@VCGrannyMaterial@@@@@?$vector@V?$CRef@VCGrannyMaterial@@@@V?$allocator@V?$CRef@VCGrannyMaterial@@@@@std@@@std@@QAEPAV?$CRef@VCGrannyMaterial@@@@QAV2@$$QAV2@@Z ; std::vector<CRef<CGrannyMaterial>,std::allocator<CRef<CGrannyMaterial> > >::_Emplace_reallocate<CRef<CGrannyMaterial> >
  0004e	89 45 e8	 mov	 DWORD PTR __Result$[ebp], eax
$LN1@emplace_ba:

; 709  : #if _HAS_CXX17
; 710  :         return _Result;
; 711  : #else // ^^^ _HAS_CXX17 ^^^ // vvv !_HAS_CXX17 vvv
; 712  :         (void) _Result;
; 713  : #endif // _HAS_CXX17
; 714  :     }

  00051	c9		 leave
  00052	c2 04 00	 ret	 4
??$emplace_back@V?$CRef@VCGrannyMaterial@@@@@?$vector@V?$CRef@VCGrannyMaterial@@@@V?$allocator@V?$CRef@VCGrannyMaterial@@@@@std@@@std@@QAEX$$QAV?$CRef@VCGrannyMaterial@@@@@Z ENDP ; std::vector<CRef<CGrannyMaterial>,std::allocator<CRef<CGrannyMaterial> > >::emplace_back<CRef<CGrannyMaterial> >
_TEXT	ENDS
; Function compile flags: /Odspy
; File D:\Metin2 Server Files\mainline\SRC_2014\Metin2Client\eterlib\Ref.h
;	COMDAT ??_G?$CRef@VCGrannyMaterial@@@@QAEPAXI@Z
_TEXT	SEGMENT
_this$ = -16						; size = 4
__$EHRec$ = -12						; size = 12
___flags$ = 8						; size = 4
??_G?$CRef@VCGrannyMaterial@@@@QAEPAXI@Z PROC		; CRef<CGrannyMaterial>::`scalar deleting destructor', COMDAT
; _this$ = ecx
  00000	55		 push	 ebp
  00001	8b ec		 mov	 ebp, esp
  00003	6a ff		 push	 -1
  00005	68 00 00 00 00	 push	 __ehhandler$??_G?$CRef@VCGrannyMaterial@@@@QAEPAXI@Z
  0000a	64 a1 00 00 00
	00		 mov	 eax, DWORD PTR fs:0
  00010	50		 push	 eax
  00011	51		 push	 ecx
  00012	a1 00 00 00 00	 mov	 eax, DWORD PTR ___security_cookie
  00017	33 c5		 xor	 eax, ebp
  00019	50		 push	 eax
  0001a	8d 45 f4	 lea	 eax, DWORD PTR __$EHRec$[ebp]
  0001d	64 a3 00 00 00
	00		 mov	 DWORD PTR fs:0, eax
  00023	89 4d f0	 mov	 DWORD PTR _this$[ebp], ecx

; 37   : 		{

  00026	83 65 fc 00	 and	 DWORD PTR __$EHRec$[ebp+8], 0

; 53   : 			if (m_pObject)

  0002a	8b 45 f0	 mov	 eax, DWORD PTR _this$[ebp]
  0002d	83 38 00	 cmp	 DWORD PTR [eax], 0
  00030	74 10		 je	 SHORT $LN4@scalar

; 54   : 			{
; 55   : 				m_pObject->Release();

  00032	8b 45 f0	 mov	 eax, DWORD PTR _this$[ebp]
  00035	8b 08		 mov	 ecx, DWORD PTR [eax]
  00037	e8 00 00 00 00	 call	 ?Release@CReferenceObject@@QAEXXZ ; CReferenceObject::Release

; 56   : 				m_pObject = NULL;

  0003c	8b 45 f0	 mov	 eax, DWORD PTR _this$[ebp]
  0003f	83 20 00	 and	 DWORD PTR [eax], 0
$LN4@scalar:

; 39   : 		}

  00042	83 4d fc ff	 or	 DWORD PTR __$EHRec$[ebp+8], -1
  00046	8b 45 08	 mov	 eax, DWORD PTR ___flags$[ebp]
  00049	83 e0 01	 and	 eax, 1
  0004c	74 0c		 je	 SHORT $LN2@scalar
  0004e	6a 04		 push	 4
  00050	ff 75 f0	 push	 DWORD PTR _this$[ebp]
  00053	e8 00 00 00 00	 call	 ??3@YAXPAXI@Z		; operator delete
  00058	59		 pop	 ecx
  00059	59		 pop	 ecx
$LN2@scalar:
  0005a	8b 45 f0	 mov	 eax, DWORD PTR _this$[ebp]
  0005d	8b 4d f4	 mov	 ecx, DWORD PTR __$EHRec$[ebp]
  00060	64 89 0d 00 00
	00 00		 mov	 DWORD PTR fs:0, ecx
  00067	59		 pop	 ecx
  00068	c9		 leave
  00069	c2 04 00	 ret	 4
  0006c	cc		 int	 3
  0006d	cc		 int	 3
  0006e	cc		 int	 3
  0006f	cc		 int	 3
  00070	cc		 int	 3
_TEXT	ENDS
;	COMDAT text$x
text$x	SEGMENT
__ehhandler$??_G?$CRef@VCGrannyMaterial@@@@QAEPAXI@Z:
  00000	90		 npad	 1
  00001	90		 npad	 1
  00002	8b 54 24 08	 mov	 edx, DWORD PTR [esp+8]
  00006	8d 42 0c	 lea	 eax, DWORD PTR [edx+12]
  00009	8b 4a f8	 mov	 ecx, DWORD PTR [edx-8]
  0000c	33 c8		 xor	 ecx, eax
  0000e	e8 00 00 00 00	 call	 @__security_check_cookie@4
  00013	b8 00 00 00 00	 mov	 eax, OFFSET __ehfuncinfo$??_G?$CRef@VCGrannyMaterial@@@@QAEPAXI@Z
  00018	e9 00 00 00 00	 jmp	 ___CxxFrameHandler3
text$x	ENDS
??_G?$CRef@VCGrannyMaterial@@@@QAEPAXI@Z ENDP		; CRef<CGrannyMaterial>::`scalar deleting destructor'
; Function compile flags: /Odspy
; File D:\Metin2 Server Files\mainline\SRC_2014\Metin2Client\eterlib\Ref.h
;	COMDAT ?SetPointer@?$CRef@VCGrannyMaterial@@@@QAEXPAVCReferenceObject@@@Z
_TEXT	SEGMENT
_pOldObject$ = -8					; size = 4
_this$ = -4						; size = 4
_pObject$ = 8						; size = 4
?SetPointer@?$CRef@VCGrannyMaterial@@@@QAEXPAVCReferenceObject@@@Z PROC ; CRef<CGrannyMaterial>::SetPointer, COMDAT
; _this$ = ecx

; 66   : 		{

  00000	55		 push	 ebp
  00001	8b ec		 mov	 ebp, esp
  00003	51		 push	 ecx
  00004	51		 push	 ecx
  00005	89 4d fc	 mov	 DWORD PTR _this$[ebp], ecx

; 67   : 			CReferenceObject* pOldObject = m_pObject;

  00008	8b 45 fc	 mov	 eax, DWORD PTR _this$[ebp]
  0000b	8b 00		 mov	 eax, DWORD PTR [eax]
  0000d	89 45 f8	 mov	 DWORD PTR _pOldObject$[ebp], eax

; 68   : 
; 69   : 			m_pObject = pObject;

  00010	8b 45 fc	 mov	 eax, DWORD PTR _this$[ebp]
  00013	8b 4d 08	 mov	 ecx, DWORD PTR _pObject$[ebp]
  00016	89 08		 mov	 DWORD PTR [eax], ecx

; 70   : 
; 71   : 			if (m_pObject)

  00018	8b 45 fc	 mov	 eax, DWORD PTR _this$[ebp]
  0001b	83 38 00	 cmp	 DWORD PTR [eax], 0
  0001e	74 0a		 je	 SHORT $LN2@SetPointer

; 72   : 				m_pObject->AddReference();

  00020	8b 45 fc	 mov	 eax, DWORD PTR _this$[ebp]
  00023	8b 08		 mov	 ecx, DWORD PTR [eax]
  00025	e8 00 00 00 00	 call	 ?AddReference@CReferenceObject@@QAEXXZ ; CReferenceObject::AddReference
$LN2@SetPointer:

; 73   : 
; 74   : 			if (pOldObject)

  0002a	83 7d f8 00	 cmp	 DWORD PTR _pOldObject$[ebp], 0
  0002e	74 08		 je	 SHORT $LN1@SetPointer

; 75   : 				pOldObject->Release();

  00030	8b 4d f8	 mov	 ecx, DWORD PTR _pOldObject$[ebp]
  00033	e8 00 00 00 00	 call	 ?Release@CReferenceObject@@QAEXXZ ; CReferenceObject::Release
$LN1@SetPointer:

; 76   : 		}

  00038	c9		 leave
  00039	c2 04 00	 ret	 4
?SetPointer@?$CRef@VCGrannyMaterial@@@@QAEXPAVCReferenceObject@@@Z ENDP ; CRef<CGrannyMaterial>::SetPointer
_TEXT	ENDS
; Function compile flags: /Odspy
; File D:\Metin2 Server Files\mainline\SRC_2014\Metin2Client\eterlib\Ref.h
;	COMDAT ??1?$CRef@VCGrannyMaterial@@@@QAE@XZ
_TEXT	SEGMENT
_this$ = -16						; size = 4
__$EHRec$ = -12						; size = 12
??1?$CRef@VCGrannyMaterial@@@@QAE@XZ PROC		; CRef<CGrannyMaterial>::~CRef<CGrannyMaterial>, COMDAT
; _this$ = ecx

; 37   : 		{

  00000	55		 push	 ebp
  00001	8b ec		 mov	 ebp, esp
  00003	6a ff		 push	 -1
  00005	68 00 00 00 00	 push	 __ehhandler$??1?$CRef@VCGrannyMaterial@@@@QAE@XZ
  0000a	64 a1 00 00 00
	00		 mov	 eax, DWORD PTR fs:0
  00010	50		 push	 eax
  00011	51		 push	 ecx
  00012	a1 00 00 00 00	 mov	 eax, DWORD PTR ___security_cookie
  00017	33 c5		 xor	 eax, ebp
  00019	50		 push	 eax
  0001a	8d 45 f4	 lea	 eax, DWORD PTR __$EHRec$[ebp]
  0001d	64 a3 00 00 00
	00		 mov	 DWORD PTR fs:0, eax
  00023	89 4d f0	 mov	 DWORD PTR _this$[ebp], ecx

; 53   : 			if (m_pObject)

  00026	8b 45 f0	 mov	 eax, DWORD PTR _this$[ebp]
  00029	83 38 00	 cmp	 DWORD PTR [eax], 0
  0002c	74 10		 je	 SHORT $LN2@CRef

; 54   : 			{
; 55   : 				m_pObject->Release();

  0002e	8b 45 f0	 mov	 eax, DWORD PTR _this$[ebp]
  00031	8b 08		 mov	 ecx, DWORD PTR [eax]
  00033	e8 00 00 00 00	 call	 ?Release@CReferenceObject@@QAEXXZ ; CReferenceObject::Release

; 56   : 				m_pObject = NULL;

  00038	8b 45 f0	 mov	 eax, DWORD PTR _this$[ebp]
  0003b	83 20 00	 and	 DWORD PTR [eax], 0
$LN2@CRef:

; 38   : 			Clear();
; 39   : 		}

  0003e	8b 4d f4	 mov	 ecx, DWORD PTR __$EHRec$[ebp]
  00041	64 89 0d 00 00
	00 00		 mov	 DWORD PTR fs:0, ecx
  00048	59		 pop	 ecx
  00049	c9		 leave
  0004a	c3		 ret	 0
  0004b	cc		 int	 3
  0004c	cc		 int	 3
  0004d	cc		 int	 3
  0004e	cc		 int	 3
  0004f	cc		 int	 3
_TEXT	ENDS
;	COMDAT text$x
text$x	SEGMENT
__ehhandler$??1?$CRef@VCGrannyMaterial@@@@QAE@XZ:
  00000	90		 npad	 1
  00001	90		 npad	 1
  00002	8b 54 24 08	 mov	 edx, DWORD PTR [esp+8]
  00006	8d 42 0c	 lea	 eax, DWORD PTR [edx+12]
  00009	8b 4a f8	 mov	 ecx, DWORD PTR [edx-8]
  0000c	33 c8		 xor	 ecx, eax
  0000e	e8 00 00 00 00	 call	 @__security_check_cookie@4
  00013	b8 00 00 00 00	 mov	 eax, OFFSET __ehfuncinfo$??1?$CRef@VCGrannyMaterial@@@@QAE@XZ
  00018	e9 00 00 00 00	 jmp	 ___CxxFrameHandler3
text$x	ENDS
??1?$CRef@VCGrannyMaterial@@@@QAE@XZ ENDP		; CRef<CGrannyMaterial>::~CRef<CGrannyMaterial>
; Function compile flags: /Odspy
; File C:\Program Files (x86)\Microsoft Visual Studio\2019\Community\VC\Tools\MSVC\14.28.29333\include\xstring
;	COMDAT ??$?8DU?$char_traits@D@std@@V?$allocator@D@1@@std@@YA_NABV?$basic_string@DU?$char_traits@D@std@@V?$allocator@D@2@@0@0@Z
_TEXT	SEGMENT
__Left$ = 8						; size = 4
__Right$ = 12						; size = 4
??$?8DU?$char_traits@D@std@@V?$allocator@D@1@@std@@YA_NABV?$basic_string@DU?$char_traits@D@std@@V?$allocator@D@2@@0@0@Z PROC ; std::operator==<char,std::char_traits<char>,std::allocator<char> >, COMDAT

; 4554 :     const basic_string<_Elem, _Traits, _Alloc>& _Left, const basic_string<_Elem, _Traits, _Alloc>& _Right) noexcept {

  00000	55		 push	 ebp
  00001	8b ec		 mov	 ebp, esp

; 4555 :     return _Left._Equal(_Right);

  00003	ff 75 0c	 push	 DWORD PTR __Right$[ebp]
  00006	8b 4d 08	 mov	 ecx, DWORD PTR __Left$[ebp]
  00009	e8 00 00 00 00	 call	 ?_Equal@?$basic_string@DU?$char_traits@D@std@@V?$allocator@D@2@@std@@QBE_NABV12@@Z ; std::basic_string<char,std::char_traits<char>,std::allocator<char> >::_Equal

; 4556 : }

  0000e	5d		 pop	 ebp
  0000f	c3		 ret	 0
??$?8DU?$char_traits@D@std@@V?$allocator@D@1@@std@@YA_NABV?$basic_string@DU?$char_traits@D@std@@V?$allocator@D@2@@0@0@Z ENDP ; std::operator==<char,std::char_traits<char>,std::allocator<char> >
_TEXT	ENDS
; Function compile flags: /Odspy
; File D:\Metin2 Server Files\mainline\SRC_2014\Metin2Client\eterGrnLib\Material.cpp
; File D:\Metin2 Server Files\mainline\SRC_2014\M2Data\include\d3dx8math.inl
; File D:\Metin2 Server Files\mainline\SRC_2014\Metin2Client\eterGrnLib\Material.cpp
;	COMDAT ??__Eg_fSpecularColor@@YAXXZ
text$di	SEGMENT
??__Eg_fSpecularColor@@YAXXZ PROC			; `dynamic initializer for 'g_fSpecularColor'', COMDAT

; 14   : D3DXCOLOR g_fSpecularColor = D3DXCOLOR(0.0f, 0.0f, 0.0f, 0.0f);

  00000	55		 push	 ebp
  00001	8b ec		 mov	 ebp, esp
; File D:\Metin2 Server Files\mainline\SRC_2014\M2Data\include\d3dx8math.inl

; 920  :     r = fr;

  00003	0f 57 c0	 xorps	 xmm0, xmm0
  00006	f3 0f 11 05 00
	00 00 00	 movss	 DWORD PTR ?g_fSpecularColor@@3UD3DXCOLOR@@A, xmm0

; 921  :     g = fg;

  0000e	0f 57 c0	 xorps	 xmm0, xmm0
  00011	f3 0f 11 05 04
	00 00 00	 movss	 DWORD PTR ?g_fSpecularColor@@3UD3DXCOLOR@@A+4, xmm0

; 922  :     b = fb;

  00019	0f 57 c0	 xorps	 xmm0, xmm0
  0001c	f3 0f 11 05 08
	00 00 00	 movss	 DWORD PTR ?g_fSpecularColor@@3UD3DXCOLOR@@A+8, xmm0

; 923  :     a = fa;

  00024	0f 57 c0	 xorps	 xmm0, xmm0
  00027	f3 0f 11 05 0c
	00 00 00	 movss	 DWORD PTR ?g_fSpecularColor@@3UD3DXCOLOR@@A+12, xmm0
; File D:\Metin2 Server Files\mainline\SRC_2014\Metin2Client\eterGrnLib\Material.cpp

; 14   : D3DXCOLOR g_fSpecularColor = D3DXCOLOR(0.0f, 0.0f, 0.0f, 0.0f);

  0002f	5d		 pop	 ebp
  00030	c3		 ret	 0
??__Eg_fSpecularColor@@YAXXZ ENDP			; `dynamic initializer for 'g_fSpecularColor''
text$di	ENDS
; Function compile flags: /Odspy
; File D:\Metin2 Server Files\mainline\SRC_2014\Metin2Client\eterGrnLib\Material.cpp
;	COMDAT ??__E?ms_matSpecular@CGrannyMaterial@@0UD3DXMATRIX@@A@@YAXXZ
text$di	SEGMENT
??__E?ms_matSpecular@CGrannyMaterial@@0UD3DXMATRIX@@A@@YAXXZ PROC ; `dynamic initializer for 'CGrannyMaterial::ms_matSpecular'', COMDAT

; 12   : D3DXMATRIX	CGrannyMaterial::ms_matSpecular;

  00000	55		 push	 ebp
  00001	8b ec		 mov	 ebp, esp
  00003	5d		 pop	 ebp
  00004	c3		 ret	 0
??__E?ms_matSpecular@CGrannyMaterial@@0UD3DXMATRIX@@A@@YAXXZ ENDP ; `dynamic initializer for 'CGrannyMaterial::ms_matSpecular''
text$di	ENDS
; Function compile flags: /Odspy
; File D:\Metin2 Server Files\mainline\SRC_2014\Metin2Client\eterGrnLib\Material.cpp
; File D:\Metin2 Server Files\mainline\SRC_2014\M2Data\include\d3dx8math.inl
; File D:\Metin2 Server Files\mainline\SRC_2014\Metin2Client\eterGrnLib\Material.cpp
;	COMDAT ??__E?ms_v3SpecularTrans@CGrannyMaterial@@0UD3DXVECTOR3@@A@@YAXXZ
text$di	SEGMENT
??__E?ms_v3SpecularTrans@CGrannyMaterial@@0UD3DXVECTOR3@@A@@YAXXZ PROC ; `dynamic initializer for 'CGrannyMaterial::ms_v3SpecularTrans'', COMDAT

; 11   : D3DXVECTOR3	CGrannyMaterial::ms_v3SpecularTrans(0.0f, 0.0f, 0.0f);

  00000	55		 push	 ebp
  00001	8b ec		 mov	 ebp, esp
; File D:\Metin2 Server Files\mainline\SRC_2014\M2Data\include\d3dx8math.inl

; 180  :     x = fx;

  00003	0f 57 c0	 xorps	 xmm0, xmm0
  00006	f3 0f 11 05 00
	00 00 00	 movss	 DWORD PTR ?ms_v3SpecularTrans@CGrannyMaterial@@0UD3DXVECTOR3@@A, xmm0

; 181  :     y = fy;

  0000e	0f 57 c0	 xorps	 xmm0, xmm0
  00011	f3 0f 11 05 04
	00 00 00	 movss	 DWORD PTR ?ms_v3SpecularTrans@CGrannyMaterial@@0UD3DXVECTOR3@@A+4, xmm0

; 182  :     z = fz;

  00019	0f 57 c0	 xorps	 xmm0, xmm0
  0001c	f3 0f 11 05 08
	00 00 00	 movss	 DWORD PTR ?ms_v3SpecularTrans@CGrannyMaterial@@0UD3DXVECTOR3@@A+8, xmm0
; File D:\Metin2 Server Files\mainline\SRC_2014\Metin2Client\eterGrnLib\Material.cpp

; 11   : D3DXVECTOR3	CGrannyMaterial::ms_v3SpecularTrans(0.0f, 0.0f, 0.0f);

  00024	5d		 pop	 ebp
  00025	c3		 ret	 0
??__E?ms_v3SpecularTrans@CGrannyMaterial@@0UD3DXVECTOR3@@A@@YAXXZ ENDP ; `dynamic initializer for 'CGrannyMaterial::ms_v3SpecularTrans''
text$di	ENDS
; Function compile flags: /Odspy
;	COMDAT ??__F?ms_akSphereMapInstance@CGrannyMaterial@@0PAVCGraphicImageInstance@@A@@YAXXZ
text$yd	SEGMENT
??__F?ms_akSphereMapInstance@CGrannyMaterial@@0PAVCGraphicImageInstance@@A@@YAXXZ PROC ; `dynamic atexit destructor for 'CGrannyMaterial::ms_akSphereMapInstance'', COMDAT
  00000	55		 push	 ebp
  00001	8b ec		 mov	 ebp, esp
  00003	68 00 00 00 00	 push	 OFFSET ??1CGraphicImageInstance@@UAE@XZ ; CGraphicImageInstance::~CGraphicImageInstance
  00008	6a 0a		 push	 10			; 0000000aH
  0000a	6a 20		 push	 32			; 00000020H
  0000c	68 00 00 00 00	 push	 OFFSET ?ms_akSphereMapInstance@CGrannyMaterial@@0PAVCGraphicImageInstance@@A ; CGrannyMaterial::ms_akSphereMapInstance
  00011	e8 00 00 00 00	 call	 ??_M@YGXPAXIIP6EX0@Z@Z
  00016	5d		 pop	 ebp
  00017	c3		 ret	 0
??__F?ms_akSphereMapInstance@CGrannyMaterial@@0PAVCGraphicImageInstance@@A@@YAXXZ ENDP ; `dynamic atexit destructor for 'CGrannyMaterial::ms_akSphereMapInstance''
text$yd	ENDS
; Function compile flags: /Odspy
; File D:\Metin2 Server Files\mainline\SRC_2014\Metin2Client\eterGrnLib\Material.cpp
;	COMDAT ??__E?ms_akSphereMapInstance@CGrannyMaterial@@0PAVCGraphicImageInstance@@A@@YAXXZ
text$di	SEGMENT
??__E?ms_akSphereMapInstance@CGrannyMaterial@@0PAVCGraphicImageInstance@@A@@YAXXZ PROC ; `dynamic initializer for 'CGrannyMaterial::ms_akSphereMapInstance'', COMDAT

; 9    : CGraphicImageInstance CGrannyMaterial::ms_akSphereMapInstance[SPHEREMAP_NUM];

  00000	55		 push	 ebp
  00001	8b ec		 mov	 ebp, esp
  00003	68 00 00 00 00	 push	 OFFSET ??1CGraphicImageInstance@@UAE@XZ ; CGraphicImageInstance::~CGraphicImageInstance
  00008	68 00 00 00 00	 push	 OFFSET ??0CGraphicImageInstance@@QAE@XZ ; CGraphicImageInstance::CGraphicImageInstance
  0000d	6a 0a		 push	 10			; 0000000aH
  0000f	6a 20		 push	 32			; 00000020H
  00011	68 00 00 00 00	 push	 OFFSET ?ms_akSphereMapInstance@CGrannyMaterial@@0PAVCGraphicImageInstance@@A ; CGrannyMaterial::ms_akSphereMapInstance
  00016	e8 00 00 00 00	 call	 ??_L@YGXPAXIIP6EX0@Z1@Z
  0001b	68 00 00 00 00	 push	 OFFSET ??__F?ms_akSphereMapInstance@CGrannyMaterial@@0PAVCGraphicImageInstance@@A@@YAXXZ ; `dynamic atexit destructor for 'CGrannyMaterial::ms_akSphereMapInstance''
  00020	e8 00 00 00 00	 call	 _atexit
  00025	59		 pop	 ecx
  00026	5d		 pop	 ebp
  00027	c3		 ret	 0
??__E?ms_akSphereMapInstance@CGrannyMaterial@@0PAVCGraphicImageInstance@@A@@YAXXZ ENDP ; `dynamic initializer for 'CGrannyMaterial::ms_akSphereMapInstance''
text$di	ENDS
; Function compile flags: /Odspy
;	COMDAT ??_GCGrannyMaterialPalette@@UAEPAXI@Z
_TEXT	SEGMENT
_this$ = -4						; size = 4
___flags$ = 8						; size = 4
??_GCGrannyMaterialPalette@@UAEPAXI@Z PROC		; CGrannyMaterialPalette::`scalar deleting destructor', COMDAT
; _this$ = ecx
  00000	55		 push	 ebp
  00001	8b ec		 mov	 ebp, esp
  00003	51		 push	 ecx
  00004	89 4d fc	 mov	 DWORD PTR _this$[ebp], ecx
  00007	8b 4d fc	 mov	 ecx, DWORD PTR _this$[ebp]
  0000a	e8 00 00 00 00	 call	 ??1CGrannyMaterialPalette@@UAE@XZ ; CGrannyMaterialPalette::~CGrannyMaterialPalette
  0000f	8b 45 08	 mov	 eax, DWORD PTR ___flags$[ebp]
  00012	83 e0 01	 and	 eax, 1
  00015	74 0c		 je	 SHORT $LN2@scalar
  00017	6a 10		 push	 16			; 00000010H
  00019	ff 75 fc	 push	 DWORD PTR _this$[ebp]
  0001c	e8 00 00 00 00	 call	 ??3@YAXPAXI@Z		; operator delete
  00021	59		 pop	 ecx
  00022	59		 pop	 ecx
$LN2@scalar:
  00023	8b 45 fc	 mov	 eax, DWORD PTR _this$[ebp]
  00026	c9		 leave
  00027	c2 04 00	 ret	 4
??_GCGrannyMaterialPalette@@UAEPAXI@Z ENDP		; CGrannyMaterialPalette::`scalar deleting destructor'
_TEXT	ENDS
; Function compile flags: /Odspy
; File C:\Program Files (x86)\Microsoft Visual Studio\2019\Community\VC\Tools\MSVC\14.28.29333\include\vector
;	COMDAT ?_Xlength@?$vector@V?$CRef@VCGrannyMaterial@@@@V?$allocator@V?$CRef@VCGrannyMaterial@@@@@std@@@std@@CAXXZ
_TEXT	SEGMENT
?_Xlength@?$vector@V?$CRef@VCGrannyMaterial@@@@V?$allocator@V?$CRef@VCGrannyMaterial@@@@@std@@@std@@CAXXZ PROC ; std::vector<CRef<CGrannyMaterial>,std::allocator<CRef<CGrannyMaterial> > >::_Xlength, COMDAT

; 1704 :     [[noreturn]] static void _Xlength() {

  00000	55		 push	 ebp
  00001	8b ec		 mov	 ebp, esp

; 1705 :         _Xlength_error("vector too long");

  00003	68 00 00 00 00	 push	 OFFSET ??_C@_0BA@FOIKENOD@vector?5too?5long@
  00008	e8 00 00 00 00	 call	 ?_Xlength_error@std@@YAXPBD@Z ; std::_Xlength_error
$LN2@Xlength:

; 1706 :     }

  0000d	5d		 pop	 ebp
  0000e	c3		 ret	 0
?_Xlength@?$vector@V?$CRef@VCGrannyMaterial@@@@V?$allocator@V?$CRef@VCGrannyMaterial@@@@@std@@@std@@CAXXZ ENDP ; std::vector<CRef<CGrannyMaterial>,std::allocator<CRef<CGrannyMaterial> > >::_Xlength
_TEXT	ENDS
; Function compile flags: /Odspy
; File C:\Program Files (x86)\Microsoft Visual Studio\2019\Community\VC\Tools\MSVC\14.28.29333\include\vector
; File C:\Program Files (x86)\Microsoft Visual Studio\2019\Community\VC\Tools\MSVC\14.28.29333\include\xmemory
; File C:\Program Files (x86)\Microsoft Visual Studio\2019\Community\VC\Tools\MSVC\14.28.29333\include\vector
; File C:\Program Files (x86)\Microsoft Visual Studio\2019\Community\VC\Tools\MSVC\14.28.29333\include\xmemory
; File C:\Program Files (x86)\Microsoft Visual Studio\2019\Community\VC\Tools\MSVC\14.28.29333\include\vector
; File C:\Program Files (x86)\Microsoft Visual Studio\2019\Community\VC\Tools\MSVC\14.28.29333\include\xmemory
; File C:\Program Files (x86)\Microsoft Visual Studio\2019\Community\VC\Tools\MSVC\14.28.29333\include\vector
;	COMDAT ?_Tidy@?$vector@V?$CRef@VCGrannyMaterial@@@@V?$allocator@V?$CRef@VCGrannyMaterial@@@@@std@@@std@@AAEXXZ
_TEXT	SEGMENT
$T1 = -52						; size = 4
__Ptr$ = -48						; size = 4
__Count$ = -44						; size = 4
$T2 = -40						; size = 4
__First$ = -36						; size = 4
__Last$ = -32						; size = 4
$T3 = -28						; size = 4
$T4 = -24						; size = 4
__Myend$ = -20						; size = 4
__Mylast$ = -16						; size = 4
_this$ = -12						; size = 4
__My_data$ = -8						; size = 4
__Myfirst$ = -4						; size = 4
?_Tidy@?$vector@V?$CRef@VCGrannyMaterial@@@@V?$allocator@V?$CRef@VCGrannyMaterial@@@@@std@@@std@@AAEXXZ PROC ; std::vector<CRef<CGrannyMaterial>,std::allocator<CRef<CGrannyMaterial> > >::_Tidy, COMDAT
; _this$ = ecx

; 1686 :     void _Tidy() noexcept { // free all storage

  00000	55		 push	 ebp
  00001	8b ec		 mov	 ebp, esp
  00003	83 ec 34	 sub	 esp, 52			; 00000034H
  00006	89 4d f4	 mov	 DWORD PTR _this$[ebp], ecx

; 1687 :         auto& _My_data    = _Mypair._Myval2;

  00009	8b 45 f4	 mov	 eax, DWORD PTR _this$[ebp]
  0000c	89 45 f8	 mov	 DWORD PTR __My_data$[ebp], eax

; 1688 :         pointer& _Myfirst = _My_data._Myfirst;

  0000f	8b 45 f8	 mov	 eax, DWORD PTR __My_data$[ebp]
  00012	89 45 fc	 mov	 DWORD PTR __Myfirst$[ebp], eax

; 1689 :         pointer& _Mylast  = _My_data._Mylast;

  00015	8b 45 f8	 mov	 eax, DWORD PTR __My_data$[ebp]
  00018	83 c0 04	 add	 eax, 4
  0001b	89 45 f0	 mov	 DWORD PTR __Mylast$[ebp], eax

; 1690 :         pointer& _Myend   = _My_data._Myend;

  0001e	8b 45 f8	 mov	 eax, DWORD PTR __My_data$[ebp]
  00021	83 c0 08	 add	 eax, 8
  00024	89 45 ec	 mov	 DWORD PTR __Myend$[ebp], eax

; 1691 : 
; 1692 :         _My_data._Orphan_all();
; 1693 : 
; 1694 :         if (_Myfirst) { // destroy and deallocate old array

  00027	8b 45 fc	 mov	 eax, DWORD PTR __Myfirst$[ebp]
  0002a	83 38 00	 cmp	 DWORD PTR [eax], 0
  0002d	74 74		 je	 SHORT $LN3@Tidy

; 1695 :             _Destroy(_Myfirst, _Mylast);

  0002f	8b 45 f0	 mov	 eax, DWORD PTR __Mylast$[ebp]
  00032	8b 00		 mov	 eax, DWORD PTR [eax]
  00034	89 45 e0	 mov	 DWORD PTR __Last$[ebp], eax
  00037	8b 45 fc	 mov	 eax, DWORD PTR __Myfirst$[ebp]
  0003a	8b 00		 mov	 eax, DWORD PTR [eax]
  0003c	89 45 dc	 mov	 DWORD PTR __First$[ebp], eax

; 1733 :         return _Mypair._Get_first();

  0003f	8b 45 f4	 mov	 eax, DWORD PTR _this$[ebp]
; File C:\Program Files (x86)\Microsoft Visual Studio\2019\Community\VC\Tools\MSVC\14.28.29333\include\xmemory

; 1347 :         return *this;

  00042	89 45 e8	 mov	 DWORD PTR $T4[ebp], eax
; File C:\Program Files (x86)\Microsoft Visual Studio\2019\Community\VC\Tools\MSVC\14.28.29333\include\vector

; 1733 :         return _Mypair._Get_first();

  00045	8b 45 e8	 mov	 eax, DWORD PTR $T4[ebp]
  00048	89 45 e4	 mov	 DWORD PTR $T3[ebp], eax

; 1612 :         _Destroy_range(_First, _Last, _Getal());

  0004b	ff 75 e4	 push	 DWORD PTR $T3[ebp]
  0004e	ff 75 e0	 push	 DWORD PTR __Last$[ebp]
  00051	ff 75 dc	 push	 DWORD PTR __First$[ebp]
  00054	e8 00 00 00 00	 call	 ??$_Destroy_range@V?$allocator@V?$CRef@VCGrannyMaterial@@@@@std@@@std@@YAXPAV?$CRef@VCGrannyMaterial@@@@QAV1@AAV?$allocator@V?$CRef@VCGrannyMaterial@@@@@0@@Z ; std::_Destroy_range<std::allocator<CRef<CGrannyMaterial> > >
  00059	83 c4 0c	 add	 esp, 12			; 0000000cH

; 1733 :         return _Mypair._Get_first();

  0005c	8b 45 f4	 mov	 eax, DWORD PTR _this$[ebp]
; File C:\Program Files (x86)\Microsoft Visual Studio\2019\Community\VC\Tools\MSVC\14.28.29333\include\xmemory

; 1347 :         return *this;

  0005f	89 45 d8	 mov	 DWORD PTR $T2[ebp], eax
; File C:\Program Files (x86)\Microsoft Visual Studio\2019\Community\VC\Tools\MSVC\14.28.29333\include\vector

; 1733 :         return _Mypair._Get_first();

  00062	8b 45 d8	 mov	 eax, DWORD PTR $T2[ebp]
  00065	89 45 cc	 mov	 DWORD PTR $T1[ebp], eax

; 1696 :             _Getal().deallocate(_Myfirst, static_cast<size_type>(_Myend - _Myfirst));

  00068	8b 45 ec	 mov	 eax, DWORD PTR __Myend$[ebp]
  0006b	8b 4d fc	 mov	 ecx, DWORD PTR __Myfirst$[ebp]
  0006e	8b 00		 mov	 eax, DWORD PTR [eax]
  00070	2b 01		 sub	 eax, DWORD PTR [ecx]
  00072	c1 f8 02	 sar	 eax, 2
  00075	89 45 d4	 mov	 DWORD PTR __Count$[ebp], eax
  00078	8b 45 fc	 mov	 eax, DWORD PTR __Myfirst$[ebp]
  0007b	8b 00		 mov	 eax, DWORD PTR [eax]
  0007d	89 45 d0	 mov	 DWORD PTR __Ptr$[ebp], eax
; File C:\Program Files (x86)\Microsoft Visual Studio\2019\Community\VC\Tools\MSVC\14.28.29333\include\xmemory

; 810  :         _Deallocate<_New_alignof<_Ty>>(_Ptr, sizeof(_Ty) * _Count);

  00080	8b 45 d4	 mov	 eax, DWORD PTR __Count$[ebp]
  00083	c1 e0 02	 shl	 eax, 2
  00086	50		 push	 eax
  00087	ff 75 d0	 push	 DWORD PTR __Ptr$[ebp]
  0008a	e8 00 00 00 00	 call	 ??$_Deallocate@$07$0A@@std@@YAXPAXI@Z ; std::_Deallocate<8,0>
  0008f	59		 pop	 ecx
  00090	59		 pop	 ecx
; File C:\Program Files (x86)\Microsoft Visual Studio\2019\Community\VC\Tools\MSVC\14.28.29333\include\vector

; 1698 :             _Myfirst = pointer();

  00091	8b 45 fc	 mov	 eax, DWORD PTR __Myfirst$[ebp]
  00094	83 20 00	 and	 DWORD PTR [eax], 0

; 1699 :             _Mylast  = pointer();

  00097	8b 45 f0	 mov	 eax, DWORD PTR __Mylast$[ebp]
  0009a	83 20 00	 and	 DWORD PTR [eax], 0

; 1700 :             _Myend   = pointer();

  0009d	8b 45 ec	 mov	 eax, DWORD PTR __Myend$[ebp]
  000a0	83 20 00	 and	 DWORD PTR [eax], 0
$LN3@Tidy:

; 1701 :         }
; 1702 :     }

  000a3	c9		 leave
  000a4	c3		 ret	 0
?_Tidy@?$vector@V?$CRef@VCGrannyMaterial@@@@V?$allocator@V?$CRef@VCGrannyMaterial@@@@@std@@@std@@AAEXXZ ENDP ; std::vector<CRef<CGrannyMaterial>,std::allocator<CRef<CGrannyMaterial> > >::_Tidy
_TEXT	ENDS
; Function compile flags: /Odspy
; File C:\Program Files (x86)\Microsoft Visual Studio\2019\Community\VC\Tools\MSVC\14.28.29333\include\vector
; File C:\Program Files (x86)\Microsoft Visual Studio\2019\Community\VC\Tools\MSVC\14.28.29333\include\xmemory
; File C:\Program Files (x86)\Microsoft Visual Studio\2019\Community\VC\Tools\MSVC\14.28.29333\include\vector
; File C:\Program Files (x86)\Microsoft Visual Studio\2019\Community\VC\Tools\MSVC\14.28.29333\include\xmemory
; File C:\Program Files (x86)\Microsoft Visual Studio\2019\Community\VC\Tools\MSVC\14.28.29333\include\vector
; File C:\Program Files (x86)\Microsoft Visual Studio\2019\Community\VC\Tools\MSVC\14.28.29333\include\xmemory
; File C:\Program Files (x86)\Microsoft Visual Studio\2019\Community\VC\Tools\MSVC\14.28.29333\include\vector
;	COMDAT ?_Change_array@?$vector@V?$CRef@VCGrannyMaterial@@@@V?$allocator@V?$CRef@VCGrannyMaterial@@@@@std@@@std@@AAEXQAV?$CRef@VCGrannyMaterial@@@@II@Z
_TEXT	SEGMENT
$T1 = -52						; size = 4
__Ptr$ = -48						; size = 4
__Count$ = -44						; size = 4
$T2 = -40						; size = 4
__First$ = -36						; size = 4
__Last$ = -32						; size = 4
$T3 = -28						; size = 4
$T4 = -24						; size = 4
__Myend$ = -20						; size = 4
__Mylast$ = -16						; size = 4
_this$ = -12						; size = 4
__My_data$ = -8						; size = 4
__Myfirst$ = -4						; size = 4
__Newvec$ = 8						; size = 4
__Newsize$ = 12						; size = 4
__Newcapacity$ = 16					; size = 4
?_Change_array@?$vector@V?$CRef@VCGrannyMaterial@@@@V?$allocator@V?$CRef@VCGrannyMaterial@@@@@std@@@std@@AAEXQAV?$CRef@VCGrannyMaterial@@@@II@Z PROC ; std::vector<CRef<CGrannyMaterial>,std::allocator<CRef<CGrannyMaterial> > >::_Change_array, COMDAT
; _this$ = ecx

; 1667 :     void _Change_array(const pointer _Newvec, const size_type _Newsize, const size_type _Newcapacity) {

  00000	55		 push	 ebp
  00001	8b ec		 mov	 ebp, esp
  00003	83 ec 34	 sub	 esp, 52			; 00000034H
  00006	89 4d f4	 mov	 DWORD PTR _this$[ebp], ecx

; 1668 :         // orphan all iterators, discard old array, acquire new array
; 1669 :         auto& _My_data    = _Mypair._Myval2;

  00009	8b 45 f4	 mov	 eax, DWORD PTR _this$[ebp]
  0000c	89 45 f8	 mov	 DWORD PTR __My_data$[ebp], eax

; 1670 :         pointer& _Myfirst = _My_data._Myfirst;

  0000f	8b 45 f8	 mov	 eax, DWORD PTR __My_data$[ebp]
  00012	89 45 fc	 mov	 DWORD PTR __Myfirst$[ebp], eax

; 1671 :         pointer& _Mylast  = _My_data._Mylast;

  00015	8b 45 f8	 mov	 eax, DWORD PTR __My_data$[ebp]
  00018	83 c0 04	 add	 eax, 4
  0001b	89 45 f0	 mov	 DWORD PTR __Mylast$[ebp], eax

; 1672 :         pointer& _Myend   = _My_data._Myend;

  0001e	8b 45 f8	 mov	 eax, DWORD PTR __My_data$[ebp]
  00021	83 c0 08	 add	 eax, 8
  00024	89 45 ec	 mov	 DWORD PTR __Myend$[ebp], eax

; 1673 : 
; 1674 :         _My_data._Orphan_all();
; 1675 : 
; 1676 :         if (_Myfirst) { // destroy and deallocate old array

  00027	8b 45 fc	 mov	 eax, DWORD PTR __Myfirst$[ebp]
  0002a	83 38 00	 cmp	 DWORD PTR [eax], 0
  0002d	74 62		 je	 SHORT $LN2@Change_arr

; 1677 :             _Destroy(_Myfirst, _Mylast);

  0002f	8b 45 f0	 mov	 eax, DWORD PTR __Mylast$[ebp]
  00032	8b 00		 mov	 eax, DWORD PTR [eax]
  00034	89 45 e0	 mov	 DWORD PTR __Last$[ebp], eax
  00037	8b 45 fc	 mov	 eax, DWORD PTR __Myfirst$[ebp]
  0003a	8b 00		 mov	 eax, DWORD PTR [eax]
  0003c	89 45 dc	 mov	 DWORD PTR __First$[ebp], eax

; 1733 :         return _Mypair._Get_first();

  0003f	8b 45 f4	 mov	 eax, DWORD PTR _this$[ebp]
; File C:\Program Files (x86)\Microsoft Visual Studio\2019\Community\VC\Tools\MSVC\14.28.29333\include\xmemory

; 1347 :         return *this;

  00042	89 45 e8	 mov	 DWORD PTR $T4[ebp], eax
; File C:\Program Files (x86)\Microsoft Visual Studio\2019\Community\VC\Tools\MSVC\14.28.29333\include\vector

; 1733 :         return _Mypair._Get_first();

  00045	8b 45 e8	 mov	 eax, DWORD PTR $T4[ebp]
  00048	89 45 e4	 mov	 DWORD PTR $T3[ebp], eax

; 1612 :         _Destroy_range(_First, _Last, _Getal());

  0004b	ff 75 e4	 push	 DWORD PTR $T3[ebp]
  0004e	ff 75 e0	 push	 DWORD PTR __Last$[ebp]
  00051	ff 75 dc	 push	 DWORD PTR __First$[ebp]
  00054	e8 00 00 00 00	 call	 ??$_Destroy_range@V?$allocator@V?$CRef@VCGrannyMaterial@@@@@std@@@std@@YAXPAV?$CRef@VCGrannyMaterial@@@@QAV1@AAV?$allocator@V?$CRef@VCGrannyMaterial@@@@@0@@Z ; std::_Destroy_range<std::allocator<CRef<CGrannyMaterial> > >
  00059	83 c4 0c	 add	 esp, 12			; 0000000cH

; 1733 :         return _Mypair._Get_first();

  0005c	8b 45 f4	 mov	 eax, DWORD PTR _this$[ebp]
; File C:\Program Files (x86)\Microsoft Visual Studio\2019\Community\VC\Tools\MSVC\14.28.29333\include\xmemory

; 1347 :         return *this;

  0005f	89 45 d8	 mov	 DWORD PTR $T2[ebp], eax
; File C:\Program Files (x86)\Microsoft Visual Studio\2019\Community\VC\Tools\MSVC\14.28.29333\include\vector

; 1733 :         return _Mypair._Get_first();

  00062	8b 45 d8	 mov	 eax, DWORD PTR $T2[ebp]
  00065	89 45 cc	 mov	 DWORD PTR $T1[ebp], eax

; 1678 :             _Getal().deallocate(_Myfirst, static_cast<size_type>(_Myend - _Myfirst));

  00068	8b 45 ec	 mov	 eax, DWORD PTR __Myend$[ebp]
  0006b	8b 4d fc	 mov	 ecx, DWORD PTR __Myfirst$[ebp]
  0006e	8b 00		 mov	 eax, DWORD PTR [eax]
  00070	2b 01		 sub	 eax, DWORD PTR [ecx]
  00072	c1 f8 02	 sar	 eax, 2
  00075	89 45 d4	 mov	 DWORD PTR __Count$[ebp], eax
  00078	8b 45 fc	 mov	 eax, DWORD PTR __Myfirst$[ebp]
  0007b	8b 00		 mov	 eax, DWORD PTR [eax]
  0007d	89 45 d0	 mov	 DWORD PTR __Ptr$[ebp], eax
; File C:\Program Files (x86)\Microsoft Visual Studio\2019\Community\VC\Tools\MSVC\14.28.29333\include\xmemory

; 810  :         _Deallocate<_New_alignof<_Ty>>(_Ptr, sizeof(_Ty) * _Count);

  00080	8b 45 d4	 mov	 eax, DWORD PTR __Count$[ebp]
  00083	c1 e0 02	 shl	 eax, 2
  00086	50		 push	 eax
  00087	ff 75 d0	 push	 DWORD PTR __Ptr$[ebp]
  0008a	e8 00 00 00 00	 call	 ??$_Deallocate@$07$0A@@std@@YAXPAXI@Z ; std::_Deallocate<8,0>
  0008f	59		 pop	 ecx
  00090	59		 pop	 ecx
$LN2@Change_arr:
; File C:\Program Files (x86)\Microsoft Visual Studio\2019\Community\VC\Tools\MSVC\14.28.29333\include\vector

; 1681 :         _Myfirst = _Newvec;

  00091	8b 45 fc	 mov	 eax, DWORD PTR __Myfirst$[ebp]
  00094	8b 4d 08	 mov	 ecx, DWORD PTR __Newvec$[ebp]
  00097	89 08		 mov	 DWORD PTR [eax], ecx

; 1682 :         _Mylast  = _Newvec + _Newsize;

  00099	8b 45 0c	 mov	 eax, DWORD PTR __Newsize$[ebp]
  0009c	8b 4d 08	 mov	 ecx, DWORD PTR __Newvec$[ebp]
  0009f	8d 04 81	 lea	 eax, DWORD PTR [ecx+eax*4]
  000a2	8b 4d f0	 mov	 ecx, DWORD PTR __Mylast$[ebp]
  000a5	89 01		 mov	 DWORD PTR [ecx], eax

; 1683 :         _Myend   = _Newvec + _Newcapacity;

  000a7	8b 45 10	 mov	 eax, DWORD PTR __Newcapacity$[ebp]
  000aa	8b 4d 08	 mov	 ecx, DWORD PTR __Newvec$[ebp]
  000ad	8d 04 81	 lea	 eax, DWORD PTR [ecx+eax*4]
  000b0	8b 4d ec	 mov	 ecx, DWORD PTR __Myend$[ebp]
  000b3	89 01		 mov	 DWORD PTR [ecx], eax

; 1684 :     }

  000b5	c9		 leave
  000b6	c2 0c 00	 ret	 12			; 0000000cH
?_Change_array@?$vector@V?$CRef@VCGrannyMaterial@@@@V?$allocator@V?$CRef@VCGrannyMaterial@@@@@std@@@std@@AAEXQAV?$CRef@VCGrannyMaterial@@@@II@Z ENDP ; std::vector<CRef<CGrannyMaterial>,std::allocator<CRef<CGrannyMaterial> > >::_Change_array
_TEXT	ENDS
; Function compile flags: /Odspy
; File C:\Program Files (x86)\Microsoft Visual Studio\2019\Community\VC\Tools\MSVC\14.28.29333\include\vector
; File C:\Program Files (x86)\Microsoft Visual Studio\2019\Community\VC\Tools\MSVC\14.28.29333\include\xmemory
; File C:\Program Files (x86)\Microsoft Visual Studio\2019\Community\VC\Tools\MSVC\14.28.29333\include\vector
; File C:\Program Files (x86)\Microsoft Visual Studio\2019\Community\VC\Tools\MSVC\14.28.29333\include\xmemory
; File C:\Program Files (x86)\Microsoft Visual Studio\2019\Community\VC\Tools\MSVC\14.28.29333\include\vector
;	COMDAT ?_Buy_raw@?$vector@V?$CRef@VCGrannyMaterial@@@@V?$allocator@V?$CRef@VCGrannyMaterial@@@@@std@@@std@@AAEXI@Z
_TEXT	SEGMENT
__Max_possible$1 = -44					; size = 4
$T2 = -40						; size = 4
__Myend$ = -36						; size = 4
__Mylast$ = -32						; size = 4
__Myfirst$ = -28					; size = 4
$T3 = -24						; size = 4
$T4 = -20						; size = 4
_this$ = -16						; size = 4
__Newvec$ = -12						; size = 4
__My_data$ = -8						; size = 4
__Overflow_is_possible$5 = -1				; size = 1
__Newcapacity$ = 8					; size = 4
?_Buy_raw@?$vector@V?$CRef@VCGrannyMaterial@@@@V?$allocator@V?$CRef@VCGrannyMaterial@@@@@std@@@std@@AAEXI@Z PROC ; std::vector<CRef<CGrannyMaterial>,std::allocator<CRef<CGrannyMaterial> > >::_Buy_raw, COMDAT
; _this$ = ecx

; 1633 :     void _Buy_raw(const size_type _Newcapacity) {

  00000	55		 push	 ebp
  00001	8b ec		 mov	 ebp, esp
  00003	83 ec 2c	 sub	 esp, 44			; 0000002cH
  00006	89 4d f0	 mov	 DWORD PTR _this$[ebp], ecx

; 1634 :         // allocate array with _Newcapacity elements
; 1635 :         auto& _My_data    = _Mypair._Myval2;

  00009	8b 45 f0	 mov	 eax, DWORD PTR _this$[ebp]
  0000c	89 45 f8	 mov	 DWORD PTR __My_data$[ebp], eax

; 1636 :         pointer& _Myfirst = _My_data._Myfirst;

  0000f	8b 45 f8	 mov	 eax, DWORD PTR __My_data$[ebp]
  00012	89 45 e4	 mov	 DWORD PTR __Myfirst$[ebp], eax

; 1637 :         pointer& _Mylast  = _My_data._Mylast;

  00015	8b 45 f8	 mov	 eax, DWORD PTR __My_data$[ebp]
  00018	83 c0 04	 add	 eax, 4
  0001b	89 45 e0	 mov	 DWORD PTR __Mylast$[ebp], eax

; 1638 :         pointer& _Myend   = _My_data._Myend;

  0001e	8b 45 f8	 mov	 eax, DWORD PTR __My_data$[ebp]
  00021	83 c0 08	 add	 eax, 8
  00024	89 45 dc	 mov	 DWORD PTR __Myend$[ebp], eax

; 1733 :         return _Mypair._Get_first();

  00027	8b 45 f0	 mov	 eax, DWORD PTR _this$[ebp]
; File C:\Program Files (x86)\Microsoft Visual Studio\2019\Community\VC\Tools\MSVC\14.28.29333\include\xmemory

; 1347 :         return *this;

  0002a	89 45 ec	 mov	 DWORD PTR $T4[ebp], eax
; File C:\Program Files (x86)\Microsoft Visual Studio\2019\Community\VC\Tools\MSVC\14.28.29333\include\vector

; 1733 :         return _Mypair._Get_first();

  0002d	8b 45 ec	 mov	 eax, DWORD PTR $T4[ebp]
  00030	89 45 d8	 mov	 DWORD PTR $T2[ebp], eax
; File C:\Program Files (x86)\Microsoft Visual Studio\2019\Community\VC\Tools\MSVC\14.28.29333\include\xmemory

; 56   :     constexpr bool _Overflow_is_possible = _Ty_size > 1;

  00033	c6 45 ff 01	 mov	 BYTE PTR __Overflow_is_possible$5[ebp], 1

; 57   : 
; 58   :     if _CONSTEXPR_IF (_Overflow_is_possible) {
; 59   :         constexpr size_t _Max_possible = static_cast<size_t>(-1) / _Ty_size;

  00037	c7 45 d4 ff ff
	ff 3f		 mov	 DWORD PTR __Max_possible$1[ebp], 1073741823 ; 3fffffffH

; 60   :         if (_Count > _Max_possible) {

  0003e	81 7d 08 ff ff
	ff 3f		 cmp	 DWORD PTR __Newcapacity$[ebp], 1073741823 ; 3fffffffH
  00045	76 05		 jbe	 SHORT $LN12@Buy_raw

; 61   :             _Throw_bad_array_new_length(); // multiply overflow

  00047	e8 00 00 00 00	 call	 ?_Throw_bad_array_new_length@std@@YAXXZ ; std::_Throw_bad_array_new_length
$LN12@Buy_raw:

; 62   :         }
; 63   :     }
; 64   : 
; 65   :     return _Count * _Ty_size;

  0004c	8b 45 08	 mov	 eax, DWORD PTR __Newcapacity$[ebp]
  0004f	c1 e0 02	 shl	 eax, 2
  00052	89 45 e8	 mov	 DWORD PTR $T3[ebp], eax

; 814  :         return static_cast<_Ty*>(_Allocate<_New_alignof<_Ty>>(_Get_size_of_n<sizeof(_Ty)>(_Count)));

  00055	ff 75 e8	 push	 DWORD PTR $T3[ebp]
  00058	e8 00 00 00 00	 call	 ??$_Allocate@$07U_Default_allocate_traits@std@@$0A@@std@@YAPAXI@Z ; std::_Allocate<8,std::_Default_allocate_traits,0>
  0005d	59		 pop	 ecx
  0005e	89 45 f4	 mov	 DWORD PTR __Newvec$[ebp], eax
; File C:\Program Files (x86)\Microsoft Visual Studio\2019\Community\VC\Tools\MSVC\14.28.29333\include\vector

; 1644 :         _Myfirst           = _Newvec;

  00061	8b 45 e4	 mov	 eax, DWORD PTR __Myfirst$[ebp]
  00064	8b 4d f4	 mov	 ecx, DWORD PTR __Newvec$[ebp]
  00067	89 08		 mov	 DWORD PTR [eax], ecx

; 1645 :         _Mylast            = _Newvec;

  00069	8b 45 e0	 mov	 eax, DWORD PTR __Mylast$[ebp]
  0006c	8b 4d f4	 mov	 ecx, DWORD PTR __Newvec$[ebp]
  0006f	89 08		 mov	 DWORD PTR [eax], ecx

; 1646 :         _Myend             = _Newvec + _Newcapacity;

  00071	8b 45 08	 mov	 eax, DWORD PTR __Newcapacity$[ebp]
  00074	8b 4d f4	 mov	 ecx, DWORD PTR __Newvec$[ebp]
  00077	8d 04 81	 lea	 eax, DWORD PTR [ecx+eax*4]
  0007a	8b 4d dc	 mov	 ecx, DWORD PTR __Myend$[ebp]
  0007d	89 01		 mov	 DWORD PTR [ecx], eax
$LN15@Buy_raw:

; 1647 :     }

  0007f	c9		 leave
  00080	c2 04 00	 ret	 4
?_Buy_raw@?$vector@V?$CRef@VCGrannyMaterial@@@@V?$allocator@V?$CRef@VCGrannyMaterial@@@@@std@@@std@@AAEXI@Z ENDP ; std::vector<CRef<CGrannyMaterial>,std::allocator<CRef<CGrannyMaterial> > >::_Buy_raw
_TEXT	ENDS
; Function compile flags: /Odspy
; File C:\Program Files (x86)\Microsoft Visual Studio\2019\Community\VC\Tools\MSVC\14.28.29333\include\vector
; File C:\Program Files (x86)\Microsoft Visual Studio\2019\Community\VC\Tools\MSVC\14.28.29333\include\xmemory
; File C:\Program Files (x86)\Microsoft Visual Studio\2019\Community\VC\Tools\MSVC\14.28.29333\include\vector
; File C:\Program Files (x86)\Microsoft Visual Studio\2019\Community\VC\Tools\MSVC\14.28.29333\include\xmemory
; File C:\Program Files (x86)\Microsoft Visual Studio\2019\Community\VC\Tools\MSVC\14.28.29333\include\limits
; File C:\Program Files (x86)\Microsoft Visual Studio\2019\Community\VC\Tools\MSVC\14.28.29333\include\vector
; File C:\Program Files (x86)\Microsoft Visual Studio\2019\Community\VC\Tools\MSVC\14.28.29333\include\utility
; File C:\Program Files (x86)\Microsoft Visual Studio\2019\Community\VC\Tools\MSVC\14.28.29333\include\vector
;	COMDAT ?_Calculate_growth@?$vector@V?$CRef@VCGrannyMaterial@@@@V?$allocator@V?$CRef@VCGrannyMaterial@@@@@std@@@std@@ABEII@Z
_TEXT	SEGMENT
$T1 = -52						; size = 4
$T2 = -48						; size = 4
$T3 = -44						; size = 4
$T4 = -40						; size = 4
$T5 = -36						; size = 4
__Geometric$ = -32					; size = 4
__Max$ = -28						; size = 4
tv82 = -24						; size = 4
$T6 = -20						; size = 4
$T7 = -16						; size = 4
_this$ = -12						; size = 4
__My_data$8 = -8					; size = 4
__Oldcapacity$ = -4					; size = 4
__Newsize$ = 8						; size = 4
?_Calculate_growth@?$vector@V?$CRef@VCGrannyMaterial@@@@V?$allocator@V?$CRef@VCGrannyMaterial@@@@@std@@@std@@ABEII@Z PROC ; std::vector<CRef<CGrannyMaterial>,std::allocator<CRef<CGrannyMaterial> > >::_Calculate_growth, COMDAT
; _this$ = ecx

; 1615 :     size_type _Calculate_growth(const size_type _Newsize) const {

  00000	55		 push	 ebp
  00001	8b ec		 mov	 ebp, esp
  00003	83 ec 34	 sub	 esp, 52			; 00000034H
  00006	89 4d f4	 mov	 DWORD PTR _this$[ebp], ecx

; 1493 :         auto& _My_data = _Mypair._Myval2;

  00009	8b 45 f4	 mov	 eax, DWORD PTR _this$[ebp]
  0000c	89 45 f8	 mov	 DWORD PTR __My_data$8[ebp], eax

; 1494 :         return static_cast<size_type>(_My_data._Myend - _My_data._Myfirst);

  0000f	8b 45 f8	 mov	 eax, DWORD PTR __My_data$8[ebp]
  00012	8b 4d f8	 mov	 ecx, DWORD PTR __My_data$8[ebp]
  00015	8b 40 08	 mov	 eax, DWORD PTR [eax+8]
  00018	2b 01		 sub	 eax, DWORD PTR [ecx]
  0001a	c1 f8 02	 sar	 eax, 2
  0001d	89 45 fc	 mov	 DWORD PTR __Oldcapacity$[ebp], eax

; 1737 :         return _Mypair._Get_first();

  00020	8b 45 f4	 mov	 eax, DWORD PTR _this$[ebp]
; File C:\Program Files (x86)\Microsoft Visual Studio\2019\Community\VC\Tools\MSVC\14.28.29333\include\xmemory

; 1351 :         return *this;

  00023	89 45 dc	 mov	 DWORD PTR $T5[ebp], eax
; File C:\Program Files (x86)\Microsoft Visual Studio\2019\Community\VC\Tools\MSVC\14.28.29333\include\vector

; 1737 :         return _Mypair._Get_first();

  00026	8b 45 dc	 mov	 eax, DWORD PTR $T5[ebp]
  00029	89 45 cc	 mov	 DWORD PTR $T1[ebp], eax
; File C:\Program Files (x86)\Microsoft Visual Studio\2019\Community\VC\Tools\MSVC\14.28.29333\include\xmemory

; 710  :         return static_cast<size_t>(-1) / sizeof(value_type);

  0002c	c7 45 f0 ff ff
	ff 3f		 mov	 DWORD PTR $T7[ebp], 1073741823 ; 3fffffffH
; File C:\Program Files (x86)\Microsoft Visual Studio\2019\Community\VC\Tools\MSVC\14.28.29333\include\limits

; 557  :         return INT_MAX;

  00033	c7 45 d8 ff ff
	ff 7f		 mov	 DWORD PTR $T4[ebp], 2147483647 ; 7fffffffH
; File C:\Program Files (x86)\Microsoft Visual Studio\2019\Community\VC\Tools\MSVC\14.28.29333\include\vector

; 1488 :         return (_STD min)(

  0003a	8b 45 d8	 mov	 eax, DWORD PTR $T4[ebp]
  0003d	89 45 ec	 mov	 DWORD PTR $T6[ebp], eax
; File C:\Program Files (x86)\Microsoft Visual Studio\2019\Community\VC\Tools\MSVC\14.28.29333\include\utility

; 68   :     return _Right < _Left ? _Right : _Left;

  00040	8b 45 f0	 mov	 eax, DWORD PTR $T7[ebp]
  00043	3b 45 ec	 cmp	 eax, DWORD PTR $T6[ebp]
  00046	73 08		 jae	 SHORT $LN25@Calculate_
  00048	8d 45 f0	 lea	 eax, DWORD PTR $T7[ebp]
  0004b	89 45 e8	 mov	 DWORD PTR tv82[ebp], eax
  0004e	eb 06		 jmp	 SHORT $LN26@Calculate_
$LN25@Calculate_:
  00050	8d 45 ec	 lea	 eax, DWORD PTR $T6[ebp]
  00053	89 45 e8	 mov	 DWORD PTR tv82[ebp], eax
$LN26@Calculate_:
  00056	8b 45 e8	 mov	 eax, DWORD PTR tv82[ebp]
  00059	89 45 d4	 mov	 DWORD PTR $T3[ebp], eax
  0005c	8b 45 d4	 mov	 eax, DWORD PTR $T3[ebp]
  0005f	89 45 d0	 mov	 DWORD PTR $T2[ebp], eax
; File C:\Program Files (x86)\Microsoft Visual Studio\2019\Community\VC\Tools\MSVC\14.28.29333\include\vector

; 1488 :         return (_STD min)(

  00062	8b 45 d0	 mov	 eax, DWORD PTR $T2[ebp]
  00065	8b 00		 mov	 eax, DWORD PTR [eax]
  00067	89 45 e4	 mov	 DWORD PTR __Max$[ebp], eax

; 1616 :         // given _Oldcapacity and _Newsize, calculate geometric growth
; 1617 :         const size_type _Oldcapacity = capacity();
; 1618 :         const auto _Max              = max_size();
; 1619 : 
; 1620 :         if (_Oldcapacity > _Max - _Oldcapacity / 2) {

  0006a	8b 45 fc	 mov	 eax, DWORD PTR __Oldcapacity$[ebp]
  0006d	d1 e8		 shr	 eax, 1
  0006f	8b 4d e4	 mov	 ecx, DWORD PTR __Max$[ebp]
  00072	2b c8		 sub	 ecx, eax
  00074	39 4d fc	 cmp	 DWORD PTR __Oldcapacity$[ebp], ecx
  00077	76 05		 jbe	 SHORT $LN2@Calculate_

; 1621 :             return _Max; // geometric growth would overflow

  00079	8b 45 e4	 mov	 eax, DWORD PTR __Max$[ebp]
  0007c	eb 1b		 jmp	 SHORT $LN1@Calculate_
$LN2@Calculate_:

; 1622 :         }
; 1623 : 
; 1624 :         const size_type _Geometric = _Oldcapacity + _Oldcapacity / 2;

  0007e	8b 45 fc	 mov	 eax, DWORD PTR __Oldcapacity$[ebp]
  00081	d1 e8		 shr	 eax, 1
  00083	03 45 fc	 add	 eax, DWORD PTR __Oldcapacity$[ebp]
  00086	89 45 e0	 mov	 DWORD PTR __Geometric$[ebp], eax

; 1625 : 
; 1626 :         if (_Geometric < _Newsize) {

  00089	8b 45 e0	 mov	 eax, DWORD PTR __Geometric$[ebp]
  0008c	3b 45 08	 cmp	 eax, DWORD PTR __Newsize$[ebp]
  0008f	73 05		 jae	 SHORT $LN3@Calculate_

; 1627 :             return _Newsize; // geometric growth would be insufficient

  00091	8b 45 08	 mov	 eax, DWORD PTR __Newsize$[ebp]
  00094	eb 03		 jmp	 SHORT $LN1@Calculate_
$LN3@Calculate_:

; 1628 :         }
; 1629 : 
; 1630 :         return _Geometric; // geometric growth is sufficient

  00096	8b 45 e0	 mov	 eax, DWORD PTR __Geometric$[ebp]
$LN1@Calculate_:

; 1631 :     }

  00099	c9		 leave
  0009a	c2 04 00	 ret	 4
?_Calculate_growth@?$vector@V?$CRef@VCGrannyMaterial@@@@V?$allocator@V?$CRef@VCGrannyMaterial@@@@@std@@@std@@ABEII@Z ENDP ; std::vector<CRef<CGrannyMaterial>,std::allocator<CRef<CGrannyMaterial> > >::_Calculate_growth
_TEXT	ENDS
; Function compile flags: /Odspy
; File C:\Program Files (x86)\Microsoft Visual Studio\2019\Community\VC\Tools\MSVC\14.28.29333\include\vector
; File C:\Program Files (x86)\Microsoft Visual Studio\2019\Community\VC\Tools\MSVC\14.28.29333\include\xmemory
; File C:\Program Files (x86)\Microsoft Visual Studio\2019\Community\VC\Tools\MSVC\14.28.29333\include\vector
;	COMDAT ?_Destroy@?$vector@V?$CRef@VCGrannyMaterial@@@@V?$allocator@V?$CRef@VCGrannyMaterial@@@@@std@@@std@@AAEXPAV?$CRef@VCGrannyMaterial@@@@0@Z
_TEXT	SEGMENT
$T1 = -12						; size = 4
$T2 = -8						; size = 4
_this$ = -4						; size = 4
__First$ = 8						; size = 4
__Last$ = 12						; size = 4
?_Destroy@?$vector@V?$CRef@VCGrannyMaterial@@@@V?$allocator@V?$CRef@VCGrannyMaterial@@@@@std@@@std@@AAEXPAV?$CRef@VCGrannyMaterial@@@@0@Z PROC ; std::vector<CRef<CGrannyMaterial>,std::allocator<CRef<CGrannyMaterial> > >::_Destroy, COMDAT
; _this$ = ecx

; 1611 :     void _Destroy(pointer _First, pointer _Last) { // destroy [_First, _Last) using allocator

  00000	55		 push	 ebp
  00001	8b ec		 mov	 ebp, esp
  00003	83 ec 0c	 sub	 esp, 12			; 0000000cH
  00006	89 4d fc	 mov	 DWORD PTR _this$[ebp], ecx

; 1733 :         return _Mypair._Get_first();

  00009	8b 45 fc	 mov	 eax, DWORD PTR _this$[ebp]
; File C:\Program Files (x86)\Microsoft Visual Studio\2019\Community\VC\Tools\MSVC\14.28.29333\include\xmemory

; 1347 :         return *this;

  0000c	89 45 f8	 mov	 DWORD PTR $T2[ebp], eax
; File C:\Program Files (x86)\Microsoft Visual Studio\2019\Community\VC\Tools\MSVC\14.28.29333\include\vector

; 1733 :         return _Mypair._Get_first();

  0000f	8b 45 f8	 mov	 eax, DWORD PTR $T2[ebp]
  00012	89 45 f4	 mov	 DWORD PTR $T1[ebp], eax

; 1612 :         _Destroy_range(_First, _Last, _Getal());

  00015	ff 75 f4	 push	 DWORD PTR $T1[ebp]
  00018	ff 75 0c	 push	 DWORD PTR __Last$[ebp]
  0001b	ff 75 08	 push	 DWORD PTR __First$[ebp]
  0001e	e8 00 00 00 00	 call	 ??$_Destroy_range@V?$allocator@V?$CRef@VCGrannyMaterial@@@@@std@@@std@@YAXPAV?$CRef@VCGrannyMaterial@@@@QAV1@AAV?$allocator@V?$CRef@VCGrannyMaterial@@@@@0@@Z ; std::_Destroy_range<std::allocator<CRef<CGrannyMaterial> > >
  00023	83 c4 0c	 add	 esp, 12			; 0000000cH

; 1613 :     }

  00026	c9		 leave
  00027	c2 08 00	 ret	 8
?_Destroy@?$vector@V?$CRef@VCGrannyMaterial@@@@V?$allocator@V?$CRef@VCGrannyMaterial@@@@@std@@@std@@AAEXPAV?$CRef@VCGrannyMaterial@@@@0@Z ENDP ; std::vector<CRef<CGrannyMaterial>,std::allocator<CRef<CGrannyMaterial> > >::_Destroy
_TEXT	ENDS
; Function compile flags: /Odspy
; File C:\Program Files (x86)\Microsoft Visual Studio\2019\Community\VC\Tools\MSVC\14.28.29333\include\vector
; File C:\Program Files (x86)\Microsoft Visual Studio\2019\Community\VC\Tools\MSVC\14.28.29333\include\xmemory
; File C:\Program Files (x86)\Microsoft Visual Studio\2019\Community\VC\Tools\MSVC\14.28.29333\include\vector
; File C:\Program Files (x86)\Microsoft Visual Studio\2019\Community\VC\Tools\MSVC\14.28.29333\include\xmemory
; File C:\Program Files (x86)\Microsoft Visual Studio\2019\Community\VC\Tools\MSVC\14.28.29333\include\limits
; File C:\Program Files (x86)\Microsoft Visual Studio\2019\Community\VC\Tools\MSVC\14.28.29333\include\vector
; File C:\Program Files (x86)\Microsoft Visual Studio\2019\Community\VC\Tools\MSVC\14.28.29333\include\utility
; File C:\Program Files (x86)\Microsoft Visual Studio\2019\Community\VC\Tools\MSVC\14.28.29333\include\vector
;	COMDAT ?max_size@?$vector@V?$CRef@VCGrannyMaterial@@@@V?$allocator@V?$CRef@VCGrannyMaterial@@@@@std@@@std@@QBEIXZ
_TEXT	SEGMENT
$T1 = -36						; size = 4
$T2 = -32						; size = 4
$T3 = -28						; size = 4
$T4 = -24						; size = 4
$T5 = -20						; size = 4
_this$ = -16						; size = 4
tv68 = -12						; size = 4
$T6 = -8						; size = 4
$T7 = -4						; size = 4
?max_size@?$vector@V?$CRef@VCGrannyMaterial@@@@V?$allocator@V?$CRef@VCGrannyMaterial@@@@@std@@@std@@QBEIXZ PROC ; std::vector<CRef<CGrannyMaterial>,std::allocator<CRef<CGrannyMaterial> > >::max_size, COMDAT
; _this$ = ecx

; 1487 :     _NODISCARD size_type max_size() const noexcept {

  00000	55		 push	 ebp
  00001	8b ec		 mov	 ebp, esp
  00003	83 ec 24	 sub	 esp, 36			; 00000024H
  00006	89 4d f0	 mov	 DWORD PTR _this$[ebp], ecx

; 1737 :         return _Mypair._Get_first();

  00009	8b 45 f0	 mov	 eax, DWORD PTR _this$[ebp]
; File C:\Program Files (x86)\Microsoft Visual Studio\2019\Community\VC\Tools\MSVC\14.28.29333\include\xmemory

; 1351 :         return *this;

  0000c	89 45 ec	 mov	 DWORD PTR $T5[ebp], eax
; File C:\Program Files (x86)\Microsoft Visual Studio\2019\Community\VC\Tools\MSVC\14.28.29333\include\vector

; 1737 :         return _Mypair._Get_first();

  0000f	8b 45 ec	 mov	 eax, DWORD PTR $T5[ebp]
  00012	89 45 dc	 mov	 DWORD PTR $T1[ebp], eax
; File C:\Program Files (x86)\Microsoft Visual Studio\2019\Community\VC\Tools\MSVC\14.28.29333\include\xmemory

; 710  :         return static_cast<size_t>(-1) / sizeof(value_type);

  00015	c7 45 fc ff ff
	ff 3f		 mov	 DWORD PTR $T7[ebp], 1073741823 ; 3fffffffH
; File C:\Program Files (x86)\Microsoft Visual Studio\2019\Community\VC\Tools\MSVC\14.28.29333\include\limits

; 557  :         return INT_MAX;

  0001c	c7 45 e8 ff ff
	ff 7f		 mov	 DWORD PTR $T4[ebp], 2147483647 ; 7fffffffH
; File C:\Program Files (x86)\Microsoft Visual Studio\2019\Community\VC\Tools\MSVC\14.28.29333\include\vector

; 1488 :         return (_STD min)(

  00023	8b 45 e8	 mov	 eax, DWORD PTR $T4[ebp]
  00026	89 45 f8	 mov	 DWORD PTR $T6[ebp], eax
; File C:\Program Files (x86)\Microsoft Visual Studio\2019\Community\VC\Tools\MSVC\14.28.29333\include\utility

; 68   :     return _Right < _Left ? _Right : _Left;

  00029	8b 45 fc	 mov	 eax, DWORD PTR $T7[ebp]
  0002c	3b 45 f8	 cmp	 eax, DWORD PTR $T6[ebp]
  0002f	73 08		 jae	 SHORT $LN17@max_size
  00031	8d 45 fc	 lea	 eax, DWORD PTR $T7[ebp]
  00034	89 45 f4	 mov	 DWORD PTR tv68[ebp], eax
  00037	eb 06		 jmp	 SHORT $LN18@max_size
$LN17@max_size:
  00039	8d 45 f8	 lea	 eax, DWORD PTR $T6[ebp]
  0003c	89 45 f4	 mov	 DWORD PTR tv68[ebp], eax
$LN18@max_size:
  0003f	8b 45 f4	 mov	 eax, DWORD PTR tv68[ebp]
  00042	89 45 e4	 mov	 DWORD PTR $T3[ebp], eax
  00045	8b 45 e4	 mov	 eax, DWORD PTR $T3[ebp]
  00048	89 45 e0	 mov	 DWORD PTR $T2[ebp], eax
; File C:\Program Files (x86)\Microsoft Visual Studio\2019\Community\VC\Tools\MSVC\14.28.29333\include\vector

; 1488 :         return (_STD min)(

  0004b	8b 45 e0	 mov	 eax, DWORD PTR $T2[ebp]
  0004e	8b 00		 mov	 eax, DWORD PTR [eax]

; 1489 :             static_cast<size_type>((numeric_limits<difference_type>::max)()), _Alty_traits::max_size(_Getal()));
; 1490 :     }

  00050	c9		 leave
  00051	c3		 ret	 0
?max_size@?$vector@V?$CRef@VCGrannyMaterial@@@@V?$allocator@V?$CRef@VCGrannyMaterial@@@@@std@@@std@@QBEIXZ ENDP ; std::vector<CRef<CGrannyMaterial>,std::allocator<CRef<CGrannyMaterial> > >::max_size
_TEXT	ENDS
; Function compile flags: /Odspy
; File C:\Program Files (x86)\Microsoft Visual Studio\2019\Community\VC\Tools\MSVC\14.28.29333\include\vector
; File C:\Program Files (x86)\Microsoft Visual Studio\2019\Community\VC\Tools\MSVC\14.28.29333\include\xmemory
; File C:\Program Files (x86)\Microsoft Visual Studio\2019\Community\VC\Tools\MSVC\14.28.29333\include\vector
;	COMDAT ?clear@?$vector@V?$CRef@VCGrannyMaterial@@@@V?$allocator@V?$CRef@VCGrannyMaterial@@@@@std@@@std@@QAEXXZ
_TEXT	SEGMENT
__First$ = -32						; size = 4
__Last$ = -28						; size = 4
$T1 = -24						; size = 4
$T2 = -20						; size = 4
__Myfirst$ = -16					; size = 4
__Mylast$ = -12						; size = 4
_this$ = -8						; size = 4
__My_data$ = -4						; size = 4
?clear@?$vector@V?$CRef@VCGrannyMaterial@@@@V?$allocator@V?$CRef@VCGrannyMaterial@@@@@std@@@std@@QAEXXZ PROC ; std::vector<CRef<CGrannyMaterial>,std::allocator<CRef<CGrannyMaterial> > >::clear, COMDAT
; _this$ = ecx

; 1383 :     void clear() noexcept { // erase all

  00000	55		 push	 ebp
  00001	8b ec		 mov	 ebp, esp
  00003	83 ec 20	 sub	 esp, 32			; 00000020H
  00006	89 4d f8	 mov	 DWORD PTR _this$[ebp], ecx

; 1384 :         auto& _My_data    = _Mypair._Myval2;

  00009	8b 45 f8	 mov	 eax, DWORD PTR _this$[ebp]
  0000c	89 45 fc	 mov	 DWORD PTR __My_data$[ebp], eax

; 1385 :         pointer& _Myfirst = _My_data._Myfirst;

  0000f	8b 45 fc	 mov	 eax, DWORD PTR __My_data$[ebp]
  00012	89 45 f0	 mov	 DWORD PTR __Myfirst$[ebp], eax

; 1386 :         pointer& _Mylast  = _My_data._Mylast;

  00015	8b 45 fc	 mov	 eax, DWORD PTR __My_data$[ebp]
  00018	83 c0 04	 add	 eax, 4
  0001b	89 45 f4	 mov	 DWORD PTR __Mylast$[ebp], eax

; 1387 : 
; 1388 :         _My_data._Orphan_all();
; 1389 :         _Destroy(_Myfirst, _Mylast);

  0001e	8b 45 f4	 mov	 eax, DWORD PTR __Mylast$[ebp]
  00021	8b 00		 mov	 eax, DWORD PTR [eax]
  00023	89 45 e4	 mov	 DWORD PTR __Last$[ebp], eax
  00026	8b 45 f0	 mov	 eax, DWORD PTR __Myfirst$[ebp]
  00029	8b 00		 mov	 eax, DWORD PTR [eax]
  0002b	89 45 e0	 mov	 DWORD PTR __First$[ebp], eax

; 1733 :         return _Mypair._Get_first();

  0002e	8b 45 f8	 mov	 eax, DWORD PTR _this$[ebp]
; File C:\Program Files (x86)\Microsoft Visual Studio\2019\Community\VC\Tools\MSVC\14.28.29333\include\xmemory

; 1347 :         return *this;

  00031	89 45 ec	 mov	 DWORD PTR $T2[ebp], eax
; File C:\Program Files (x86)\Microsoft Visual Studio\2019\Community\VC\Tools\MSVC\14.28.29333\include\vector

; 1733 :         return _Mypair._Get_first();

  00034	8b 45 ec	 mov	 eax, DWORD PTR $T2[ebp]
  00037	89 45 e8	 mov	 DWORD PTR $T1[ebp], eax

; 1612 :         _Destroy_range(_First, _Last, _Getal());

  0003a	ff 75 e8	 push	 DWORD PTR $T1[ebp]
  0003d	ff 75 e4	 push	 DWORD PTR __Last$[ebp]
  00040	ff 75 e0	 push	 DWORD PTR __First$[ebp]
  00043	e8 00 00 00 00	 call	 ??$_Destroy_range@V?$allocator@V?$CRef@VCGrannyMaterial@@@@@std@@@std@@YAXPAV?$CRef@VCGrannyMaterial@@@@QAV1@AAV?$allocator@V?$CRef@VCGrannyMaterial@@@@@0@@Z ; std::_Destroy_range<std::allocator<CRef<CGrannyMaterial> > >
  00048	83 c4 0c	 add	 esp, 12			; 0000000cH

; 1390 :         _Mylast = _Myfirst;

  0004b	8b 45 f4	 mov	 eax, DWORD PTR __Mylast$[ebp]
  0004e	8b 4d f0	 mov	 ecx, DWORD PTR __Myfirst$[ebp]
  00051	8b 09		 mov	 ecx, DWORD PTR [ecx]
  00053	89 08		 mov	 DWORD PTR [eax], ecx

; 1391 :     }

  00055	c9		 leave
  00056	c3		 ret	 0
?clear@?$vector@V?$CRef@VCGrannyMaterial@@@@V?$allocator@V?$CRef@VCGrannyMaterial@@@@@std@@@std@@QAEXXZ ENDP ; std::vector<CRef<CGrannyMaterial>,std::allocator<CRef<CGrannyMaterial> > >::clear
_TEXT	ENDS
; Function compile flags: /Odspy
; File C:\Program Files (x86)\Microsoft Visual Studio\2019\Community\VC\Tools\MSVC\14.28.29333\include\vector
; File C:\Program Files (x86)\Microsoft Visual Studio\2019\Community\VC\Tools\MSVC\14.28.29333\include\xmemory
; File C:\Program Files (x86)\Microsoft Visual Studio\2019\Community\VC\Tools\MSVC\14.28.29333\include\vector
; File C:\Program Files (x86)\Microsoft Visual Studio\2019\Community\VC\Tools\MSVC\14.28.29333\include\xmemory
; File C:\Program Files (x86)\Microsoft Visual Studio\2019\Community\VC\Tools\MSVC\14.28.29333\include\vector
; File C:\Program Files (x86)\Microsoft Visual Studio\2019\Community\VC\Tools\MSVC\14.28.29333\include\xmemory
; File C:\Program Files (x86)\Microsoft Visual Studio\2019\Community\VC\Tools\MSVC\14.28.29333\include\vector
;	COMDAT ?_Clear_and_reserve_geometric@?$vector@V?$CRef@VCGrannyMaterial@@@@V?$allocator@V?$CRef@VCGrannyMaterial@@@@@std@@@std@@AAEXI@Z
_TEXT	SEGMENT
$T1 = -56						; size = 4
__Newcapacity$ = -52					; size = 4
__Ptr$ = -48						; size = 4
__Count$ = -44						; size = 4
$T2 = -40						; size = 4
__First$ = -36						; size = 4
__Last$ = -32						; size = 4
$T3 = -28						; size = 4
$T4 = -24						; size = 4
__Myend$ = -20						; size = 4
__Mylast$ = -16						; size = 4
__My_data$ = -12					; size = 4
__Myfirst$ = -8						; size = 4
_this$ = -4						; size = 4
__Newsize$ = 8						; size = 4
?_Clear_and_reserve_geometric@?$vector@V?$CRef@VCGrannyMaterial@@@@V?$allocator@V?$CRef@VCGrannyMaterial@@@@@std@@@std@@AAEXI@Z PROC ; std::vector<CRef<CGrannyMaterial>,std::allocator<CRef<CGrannyMaterial> > >::_Clear_and_reserve_geometric, COMDAT
; _this$ = ecx

; 1271 :     void _Clear_and_reserve_geometric(const size_type _Newsize) {

  00000	55		 push	 ebp
  00001	8b ec		 mov	 ebp, esp
  00003	83 ec 38	 sub	 esp, 56			; 00000038H
  00006	89 4d fc	 mov	 DWORD PTR _this$[ebp], ecx

; 1272 :         auto& _My_data    = _Mypair._Myval2;

  00009	8b 45 fc	 mov	 eax, DWORD PTR _this$[ebp]
  0000c	89 45 f4	 mov	 DWORD PTR __My_data$[ebp], eax

; 1273 :         pointer& _Myfirst = _My_data._Myfirst;

  0000f	8b 45 f4	 mov	 eax, DWORD PTR __My_data$[ebp]
  00012	89 45 f8	 mov	 DWORD PTR __Myfirst$[ebp], eax

; 1274 :         pointer& _Mylast  = _My_data._Mylast;

  00015	8b 45 f4	 mov	 eax, DWORD PTR __My_data$[ebp]
  00018	83 c0 04	 add	 eax, 4
  0001b	89 45 f0	 mov	 DWORD PTR __Mylast$[ebp], eax

; 1275 :         pointer& _Myend   = _My_data._Myend;

  0001e	8b 45 f4	 mov	 eax, DWORD PTR __My_data$[ebp]
  00021	83 c0 08	 add	 eax, 8
  00024	89 45 ec	 mov	 DWORD PTR __Myend$[ebp], eax

; 1276 : 
; 1277 : #if _ITERATOR_DEBUG_LEVEL != 0 && defined(_ENABLE_STL_INTERNAL_CHECK)
; 1278 :         _STL_INTERNAL_CHECK(_Newsize != 0);
; 1279 :         {
; 1280 :             _Lockit _Lock(_LOCK_DEBUG);
; 1281 :             _STL_INTERNAL_CHECK(!_My_data._Myproxy->_Myfirstiter); // asserts that all iterators are orphaned
; 1282 :         } // unlock
; 1283 : #endif // _ITERATOR_DEBUG_LEVEL != 0 && defined(_ENABLE_STL_INTERNAL_CHECK)
; 1284 : 
; 1285 :         if (_Newsize > max_size()) {

  00027	8b 4d fc	 mov	 ecx, DWORD PTR _this$[ebp]
  0002a	e8 00 00 00 00	 call	 ?max_size@?$vector@V?$CRef@VCGrannyMaterial@@@@V?$allocator@V?$CRef@VCGrannyMaterial@@@@@std@@@std@@QBEIXZ ; std::vector<CRef<CGrannyMaterial>,std::allocator<CRef<CGrannyMaterial> > >::max_size
  0002f	39 45 08	 cmp	 DWORD PTR __Newsize$[ebp], eax
  00032	76 05		 jbe	 SHORT $LN2@Clear_and_

; 1286 :             _Xlength();

  00034	e8 00 00 00 00	 call	 ?_Xlength@?$vector@V?$CRef@VCGrannyMaterial@@@@V?$allocator@V?$CRef@VCGrannyMaterial@@@@@std@@@std@@CAXXZ ; std::vector<CRef<CGrannyMaterial>,std::allocator<CRef<CGrannyMaterial> > >::_Xlength
$LN2@Clear_and_:

; 1287 :         }
; 1288 : 
; 1289 :         const size_type _Newcapacity = _Calculate_growth(_Newsize);

  00039	ff 75 08	 push	 DWORD PTR __Newsize$[ebp]
  0003c	8b 4d fc	 mov	 ecx, DWORD PTR _this$[ebp]
  0003f	e8 00 00 00 00	 call	 ?_Calculate_growth@?$vector@V?$CRef@VCGrannyMaterial@@@@V?$allocator@V?$CRef@VCGrannyMaterial@@@@@std@@@std@@ABEII@Z ; std::vector<CRef<CGrannyMaterial>,std::allocator<CRef<CGrannyMaterial> > >::_Calculate_growth
  00044	89 45 cc	 mov	 DWORD PTR __Newcapacity$[ebp], eax

; 1290 : 
; 1291 :         if (_Myfirst) { // destroy and deallocate old array

  00047	8b 45 f8	 mov	 eax, DWORD PTR __Myfirst$[ebp]
  0004a	83 38 00	 cmp	 DWORD PTR [eax], 0
  0004d	74 74		 je	 SHORT $LN3@Clear_and_

; 1292 :             _Destroy(_Myfirst, _Mylast);

  0004f	8b 45 f0	 mov	 eax, DWORD PTR __Mylast$[ebp]
  00052	8b 00		 mov	 eax, DWORD PTR [eax]
  00054	89 45 e0	 mov	 DWORD PTR __Last$[ebp], eax
  00057	8b 45 f8	 mov	 eax, DWORD PTR __Myfirst$[ebp]
  0005a	8b 00		 mov	 eax, DWORD PTR [eax]
  0005c	89 45 dc	 mov	 DWORD PTR __First$[ebp], eax

; 1733 :         return _Mypair._Get_first();

  0005f	8b 45 fc	 mov	 eax, DWORD PTR _this$[ebp]
; File C:\Program Files (x86)\Microsoft Visual Studio\2019\Community\VC\Tools\MSVC\14.28.29333\include\xmemory

; 1347 :         return *this;

  00062	89 45 e8	 mov	 DWORD PTR $T4[ebp], eax
; File C:\Program Files (x86)\Microsoft Visual Studio\2019\Community\VC\Tools\MSVC\14.28.29333\include\vector

; 1733 :         return _Mypair._Get_first();

  00065	8b 45 e8	 mov	 eax, DWORD PTR $T4[ebp]
  00068	89 45 e4	 mov	 DWORD PTR $T3[ebp], eax

; 1612 :         _Destroy_range(_First, _Last, _Getal());

  0006b	ff 75 e4	 push	 DWORD PTR $T3[ebp]
  0006e	ff 75 e0	 push	 DWORD PTR __Last$[ebp]
  00071	ff 75 dc	 push	 DWORD PTR __First$[ebp]
  00074	e8 00 00 00 00	 call	 ??$_Destroy_range@V?$allocator@V?$CRef@VCGrannyMaterial@@@@@std@@@std@@YAXPAV?$CRef@VCGrannyMaterial@@@@QAV1@AAV?$allocator@V?$CRef@VCGrannyMaterial@@@@@0@@Z ; std::_Destroy_range<std::allocator<CRef<CGrannyMaterial> > >
  00079	83 c4 0c	 add	 esp, 12			; 0000000cH

; 1733 :         return _Mypair._Get_first();

  0007c	8b 45 fc	 mov	 eax, DWORD PTR _this$[ebp]
; File C:\Program Files (x86)\Microsoft Visual Studio\2019\Community\VC\Tools\MSVC\14.28.29333\include\xmemory

; 1347 :         return *this;

  0007f	89 45 d8	 mov	 DWORD PTR $T2[ebp], eax
; File C:\Program Files (x86)\Microsoft Visual Studio\2019\Community\VC\Tools\MSVC\14.28.29333\include\vector

; 1733 :         return _Mypair._Get_first();

  00082	8b 45 d8	 mov	 eax, DWORD PTR $T2[ebp]
  00085	89 45 c8	 mov	 DWORD PTR $T1[ebp], eax

; 1293 :             _Getal().deallocate(_Myfirst, static_cast<size_type>(_Myend - _Myfirst));

  00088	8b 45 ec	 mov	 eax, DWORD PTR __Myend$[ebp]
  0008b	8b 4d f8	 mov	 ecx, DWORD PTR __Myfirst$[ebp]
  0008e	8b 00		 mov	 eax, DWORD PTR [eax]
  00090	2b 01		 sub	 eax, DWORD PTR [ecx]
  00092	c1 f8 02	 sar	 eax, 2
  00095	89 45 d4	 mov	 DWORD PTR __Count$[ebp], eax
  00098	8b 45 f8	 mov	 eax, DWORD PTR __Myfirst$[ebp]
  0009b	8b 00		 mov	 eax, DWORD PTR [eax]
  0009d	89 45 d0	 mov	 DWORD PTR __Ptr$[ebp], eax
; File C:\Program Files (x86)\Microsoft Visual Studio\2019\Community\VC\Tools\MSVC\14.28.29333\include\xmemory

; 810  :         _Deallocate<_New_alignof<_Ty>>(_Ptr, sizeof(_Ty) * _Count);

  000a0	8b 45 d4	 mov	 eax, DWORD PTR __Count$[ebp]
  000a3	c1 e0 02	 shl	 eax, 2
  000a6	50		 push	 eax
  000a7	ff 75 d0	 push	 DWORD PTR __Ptr$[ebp]
  000aa	e8 00 00 00 00	 call	 ??$_Deallocate@$07$0A@@std@@YAXPAXI@Z ; std::_Deallocate<8,0>
  000af	59		 pop	 ecx
  000b0	59		 pop	 ecx
; File C:\Program Files (x86)\Microsoft Visual Studio\2019\Community\VC\Tools\MSVC\14.28.29333\include\vector

; 1295 :             _Myfirst = pointer();

  000b1	8b 45 f8	 mov	 eax, DWORD PTR __Myfirst$[ebp]
  000b4	83 20 00	 and	 DWORD PTR [eax], 0

; 1296 :             _Mylast  = pointer();

  000b7	8b 45 f0	 mov	 eax, DWORD PTR __Mylast$[ebp]
  000ba	83 20 00	 and	 DWORD PTR [eax], 0

; 1297 :             _Myend   = pointer();

  000bd	8b 45 ec	 mov	 eax, DWORD PTR __Myend$[ebp]
  000c0	83 20 00	 and	 DWORD PTR [eax], 0
$LN3@Clear_and_:

; 1298 :         }
; 1299 : 
; 1300 :         _Buy_raw(_Newcapacity);

  000c3	ff 75 cc	 push	 DWORD PTR __Newcapacity$[ebp]
  000c6	8b 4d fc	 mov	 ecx, DWORD PTR _this$[ebp]
  000c9	e8 00 00 00 00	 call	 ?_Buy_raw@?$vector@V?$CRef@VCGrannyMaterial@@@@V?$allocator@V?$CRef@VCGrannyMaterial@@@@@std@@@std@@AAEXI@Z ; std::vector<CRef<CGrannyMaterial>,std::allocator<CRef<CGrannyMaterial> > >::_Buy_raw
$LN4@Clear_and_:

; 1301 :     }

  000ce	c9		 leave
  000cf	c2 04 00	 ret	 4
?_Clear_and_reserve_geometric@?$vector@V?$CRef@VCGrannyMaterial@@@@V?$allocator@V?$CRef@VCGrannyMaterial@@@@@std@@@std@@AAEXI@Z ENDP ; std::vector<CRef<CGrannyMaterial>,std::allocator<CRef<CGrannyMaterial> > >::_Clear_and_reserve_geometric
_TEXT	ENDS
; Function compile flags: /Odspy
; File C:\Program Files (x86)\Microsoft Visual Studio\2019\Community\VC\Tools\MSVC\14.28.29333\include\vector
; File C:\Program Files (x86)\Microsoft Visual Studio\2019\Community\VC\Tools\MSVC\14.28.29333\include\xmemory
; File C:\Program Files (x86)\Microsoft Visual Studio\2019\Community\VC\Tools\MSVC\14.28.29333\include\vector
; File C:\Program Files (x86)\Microsoft Visual Studio\2019\Community\VC\Tools\MSVC\14.28.29333\include\xmemory
; File C:\Program Files (x86)\Microsoft Visual Studio\2019\Community\VC\Tools\MSVC\14.28.29333\include\vector
; File C:\Program Files (x86)\Microsoft Visual Studio\2019\Community\VC\Tools\MSVC\14.28.29333\include\xutility
; File C:\Program Files (x86)\Microsoft Visual Studio\2019\Community\VC\Tools\MSVC\14.28.29333\include\vector
;	COMDAT ?_Copy_assign@?$vector@V?$CRef@VCGrannyMaterial@@@@V?$allocator@V?$CRef@VCGrannyMaterial@@@@@std@@@std@@AAEXABV12@U?$integral_constant@_N$0A@@2@@Z
_TEXT	SEGMENT
$T1 = -40						; size = 1
__First$ = -36						; size = 4
$T2 = -32						; size = 4
__Last$ = -28						; size = 4
$T3 = -24						; size = 4
$T4 = -20						; size = 4
$T5 = -16						; size = 4
$T6 = -12						; size = 4
_this$ = -8						; size = 4
__Right_data$ = -4					; size = 4
__Right$ = 8						; size = 4
___formal$ = 12						; size = 1
?_Copy_assign@?$vector@V?$CRef@VCGrannyMaterial@@@@V?$allocator@V?$CRef@VCGrannyMaterial@@@@@std@@@std@@AAEXABV12@U?$integral_constant@_N$0A@@2@@Z PROC ; std::vector<CRef<CGrannyMaterial>,std::allocator<CRef<CGrannyMaterial> > >::_Copy_assign, COMDAT
; _this$ = ecx

; 1150 :     void _Copy_assign(const vector& _Right, false_type) {

  00000	55		 push	 ebp
  00001	8b ec		 mov	 ebp, esp
  00003	83 ec 28	 sub	 esp, 40			; 00000028H
  00006	89 4d f8	 mov	 DWORD PTR _this$[ebp], ecx

; 1737 :         return _Mypair._Get_first();

  00009	8b 45 08	 mov	 eax, DWORD PTR __Right$[ebp]
; File C:\Program Files (x86)\Microsoft Visual Studio\2019\Community\VC\Tools\MSVC\14.28.29333\include\xmemory

; 1351 :         return *this;

  0000c	89 45 f4	 mov	 DWORD PTR $T6[ebp], eax
; File C:\Program Files (x86)\Microsoft Visual Studio\2019\Community\VC\Tools\MSVC\14.28.29333\include\vector

; 1737 :         return _Mypair._Get_first();

  0000f	8b 45 f4	 mov	 eax, DWORD PTR $T6[ebp]
  00012	89 45 ec	 mov	 DWORD PTR $T4[ebp], eax

; 1733 :         return _Mypair._Get_first();

  00015	8b 45 f8	 mov	 eax, DWORD PTR _this$[ebp]
; File C:\Program Files (x86)\Microsoft Visual Studio\2019\Community\VC\Tools\MSVC\14.28.29333\include\xmemory

; 1347 :         return *this;

  00018	89 45 f0	 mov	 DWORD PTR $T5[ebp], eax
; File C:\Program Files (x86)\Microsoft Visual Studio\2019\Community\VC\Tools\MSVC\14.28.29333\include\vector

; 1733 :         return _Mypair._Get_first();

  0001b	8b 45 f0	 mov	 eax, DWORD PTR $T5[ebp]
  0001e	89 45 e8	 mov	 DWORD PTR $T3[ebp], eax

; 1151 :         _Pocca(_Getal(), _Right._Getal());

  00021	ff 75 ec	 push	 DWORD PTR $T4[ebp]
  00024	ff 75 e8	 push	 DWORD PTR $T3[ebp]
  00027	e8 00 00 00 00	 call	 ??$_Pocca@V?$allocator@V?$CRef@VCGrannyMaterial@@@@@std@@@std@@YAXAAV?$allocator@V?$CRef@VCGrannyMaterial@@@@@0@ABV10@@Z ; std::_Pocca<std::allocator<CRef<CGrannyMaterial> > >
  0002c	59		 pop	 ecx
  0002d	59		 pop	 ecx

; 1152 :         auto& _Right_data = _Right._Mypair._Myval2;

  0002e	8b 45 08	 mov	 eax, DWORD PTR __Right$[ebp]
  00031	89 45 fc	 mov	 DWORD PTR __Right_data$[ebp], eax

; 1153 :         assign(_Right_data._Myfirst, _Right_data._Mylast);

  00034	8b 45 fc	 mov	 eax, DWORD PTR __Right_data$[ebp]
  00037	8b 40 04	 mov	 eax, DWORD PTR [eax+4]
  0003a	89 45 e4	 mov	 DWORD PTR __Last$[ebp], eax
  0003d	8b 45 fc	 mov	 eax, DWORD PTR __Right_data$[ebp]
  00040	8b 00		 mov	 eax, DWORD PTR [eax]
  00042	89 45 dc	 mov	 DWORD PTR __First$[ebp], eax
; File C:\Program Files (x86)\Microsoft Visual Studio\2019\Community\VC\Tools\MSVC\14.28.29333\include\xutility

; 1303 :         return _It + 0;

  00045	8b 45 e4	 mov	 eax, DWORD PTR __Last$[ebp]
  00048	89 45 e0	 mov	 DWORD PTR $T2[ebp], eax
; File C:\Program Files (x86)\Microsoft Visual Studio\2019\Community\VC\Tools\MSVC\14.28.29333\include\vector

; 1142 :         _Assign_range(_Get_unwrapped(_First), _Get_unwrapped(_Last), _Iter_cat_t<_Iter>{});

  0004b	ff 75 d8	 push	 DWORD PTR $T1[ebp]
  0004e	ff 75 e0	 push	 DWORD PTR $T2[ebp]
  00051	ff 75 dc	 push	 DWORD PTR __First$[ebp]
  00054	8b 4d f8	 mov	 ecx, DWORD PTR _this$[ebp]
  00057	e8 00 00 00 00	 call	 ??$_Assign_range@PAV?$CRef@VCGrannyMaterial@@@@@?$vector@V?$CRef@VCGrannyMaterial@@@@V?$allocator@V?$CRef@VCGrannyMaterial@@@@@std@@@std@@AAEXPAV?$CRef@VCGrannyMaterial@@@@0Uforward_iterator_tag@1@@Z ; std::vector<CRef<CGrannyMaterial>,std::allocator<CRef<CGrannyMaterial> > >::_Assign_range<CRef<CGrannyMaterial> *>

; 1154 :     }

  0005c	c9		 leave
  0005d	c2 08 00	 ret	 8
?_Copy_assign@?$vector@V?$CRef@VCGrannyMaterial@@@@V?$allocator@V?$CRef@VCGrannyMaterial@@@@@std@@@std@@AAEXABV12@U?$integral_constant@_N$0A@@2@@Z ENDP ; std::vector<CRef<CGrannyMaterial>,std::allocator<CRef<CGrannyMaterial> > >::_Copy_assign
_TEXT	ENDS
; Function compile flags: /Odspy
; File C:\Program Files (x86)\Microsoft Visual Studio\2019\Community\VC\Tools\MSVC\14.28.29333\include\xmemory
;	COMDAT ?deallocate@?$allocator@V?$CRef@VCGrannyMaterial@@@@@std@@QAEXQAV?$CRef@VCGrannyMaterial@@@@I@Z
_TEXT	SEGMENT
_this$ = -4						; size = 4
__Ptr$ = 8						; size = 4
__Count$ = 12						; size = 4
?deallocate@?$allocator@V?$CRef@VCGrannyMaterial@@@@@std@@QAEXQAV?$CRef@VCGrannyMaterial@@@@I@Z PROC ; std::allocator<CRef<CGrannyMaterial> >::deallocate, COMDAT
; _this$ = ecx

; 808  :     void deallocate(_Ty* const _Ptr, const size_t _Count) {

  00000	55		 push	 ebp
  00001	8b ec		 mov	 ebp, esp
  00003	51		 push	 ecx
  00004	89 4d fc	 mov	 DWORD PTR _this$[ebp], ecx

; 809  :         // no overflow check on the following multiply; we assume _Allocate did that check
; 810  :         _Deallocate<_New_alignof<_Ty>>(_Ptr, sizeof(_Ty) * _Count);

  00007	8b 45 0c	 mov	 eax, DWORD PTR __Count$[ebp]
  0000a	c1 e0 02	 shl	 eax, 2
  0000d	50		 push	 eax
  0000e	ff 75 08	 push	 DWORD PTR __Ptr$[ebp]
  00011	e8 00 00 00 00	 call	 ??$_Deallocate@$07$0A@@std@@YAXPAXI@Z ; std::_Deallocate<8,0>
  00016	59		 pop	 ecx
  00017	59		 pop	 ecx

; 811  :     }

  00018	c9		 leave
  00019	c2 08 00	 ret	 8
?deallocate@?$allocator@V?$CRef@VCGrannyMaterial@@@@@std@@QAEXQAV?$CRef@VCGrannyMaterial@@@@I@Z ENDP ; std::allocator<CRef<CGrannyMaterial> >::deallocate
_TEXT	ENDS
; Function compile flags: /Odspy
; File D:\Metin2 Server Files\mainline\SRC_2014\Metin2Client\eterGrnLib\Material.cpp
; File C:\Program Files (x86)\Microsoft Visual Studio\2019\Community\VC\Tools\MSVC\14.28.29333\include\vector
; File D:\Metin2 Server Files\mainline\SRC_2014\Metin2Client\eterGrnLib\Material.cpp
;	COMDAT ?GetMaterialCount@CGrannyMaterialPalette@@QBEKXZ
_TEXT	SEGMENT
$T1 = -12						; size = 4
_this$ = -8						; size = 4
__My_data$2 = -4					; size = 4
?GetMaterialCount@CGrannyMaterialPalette@@QBEKXZ PROC	; CGrannyMaterialPalette::GetMaterialCount, COMDAT
; _this$ = ecx

; 510  : {

  00000	55		 push	 ebp
  00001	8b ec		 mov	 ebp, esp
  00003	83 ec 0c	 sub	 esp, 12			; 0000000cH
  00006	89 4d f8	 mov	 DWORD PTR _this$[ebp], ecx
; File C:\Program Files (x86)\Microsoft Visual Studio\2019\Community\VC\Tools\MSVC\14.28.29333\include\vector

; 1483 :         auto& _My_data = _Mypair._Myval2;

  00009	8b 45 f8	 mov	 eax, DWORD PTR _this$[ebp]
  0000c	83 c0 04	 add	 eax, 4
  0000f	89 45 fc	 mov	 DWORD PTR __My_data$2[ebp], eax

; 1484 :         return static_cast<size_type>(_My_data._Mylast - _My_data._Myfirst);

  00012	8b 45 fc	 mov	 eax, DWORD PTR __My_data$2[ebp]
  00015	8b 4d fc	 mov	 ecx, DWORD PTR __My_data$2[ebp]
  00018	8b 40 04	 mov	 eax, DWORD PTR [eax+4]
  0001b	2b 01		 sub	 eax, DWORD PTR [ecx]
  0001d	c1 f8 02	 sar	 eax, 2
  00020	89 45 f4	 mov	 DWORD PTR $T1[ebp], eax
; File D:\Metin2 Server Files\mainline\SRC_2014\Metin2Client\eterGrnLib\Material.cpp

; 511  : 	return m_mtrlVector.size();

  00023	8b 45 f4	 mov	 eax, DWORD PTR $T1[ebp]

; 512  : }

  00026	c9		 leave
  00027	c3		 ret	 0
?GetMaterialCount@CGrannyMaterialPalette@@QBEKXZ ENDP	; CGrannyMaterialPalette::GetMaterialCount
_TEXT	ENDS
; Function compile flags: /Odspy
; File D:\Metin2 Server Files\mainline\SRC_2014\Metin2Client\eterGrnLib\Material.cpp
; File C:\Program Files (x86)\Microsoft Visual Studio\2019\Community\VC\Tools\MSVC\14.28.29333\include\vector
; File D:\Metin2 Server Files\mainline\SRC_2014\Metin2Client\eterlib\Ref.h
; File D:\Metin2 Server Files\mainline\SRC_2014\Metin2Client\eterGrnLib\Material.cpp
;	COMDAT ?GetMaterialRef@CGrannyMaterialPalette@@QAEAAVCGrannyMaterial@@K@Z
_TEXT	SEGMENT
$T1 = -16						; size = 4
$T2 = -12						; size = 4
__My_data$3 = -8					; size = 4
_this$ = -4						; size = 4
_mtrlIndex$ = 8						; size = 4
?GetMaterialRef@CGrannyMaterialPalette@@QAEAAVCGrannyMaterial@@K@Z PROC ; CGrannyMaterialPalette::GetMaterialRef, COMDAT
; _this$ = ecx

; 404  : {

  00000	55		 push	 ebp
  00001	8b ec		 mov	 ebp, esp
  00003	83 ec 10	 sub	 esp, 16			; 00000010H
  00006	89 4d fc	 mov	 DWORD PTR _this$[ebp], ecx
; File C:\Program Files (x86)\Microsoft Visual Studio\2019\Community\VC\Tools\MSVC\14.28.29333\include\vector

; 1498 :         auto& _My_data = _Mypair._Myval2;

  00009	8b 45 fc	 mov	 eax, DWORD PTR _this$[ebp]
  0000c	83 c0 04	 add	 eax, 4
  0000f	89 45 f8	 mov	 DWORD PTR __My_data$3[ebp], eax

; 1499 : #if _CONTAINER_DEBUG_LEVEL > 0
; 1500 :         _STL_VERIFY(
; 1501 :             _Pos < static_cast<size_type>(_My_data._Mylast - _My_data._Myfirst), "vector subscript out of range");
; 1502 : #endif // _CONTAINER_DEBUG_LEVEL > 0
; 1503 : 
; 1504 :         return _My_data._Myfirst[_Pos];

  00012	8b 45 f8	 mov	 eax, DWORD PTR __My_data$3[ebp]
  00015	8b 00		 mov	 eax, DWORD PTR [eax]
  00017	8b 4d 08	 mov	 ecx, DWORD PTR _mtrlIndex$[ebp]
  0001a	8d 04 88	 lea	 eax, DWORD PTR [eax+ecx*4]
  0001d	89 45 f4	 mov	 DWORD PTR $T2[ebp], eax
; File D:\Metin2 Server Files\mainline\SRC_2014\Metin2Client\eterlib\Ref.h

; 80   : 			return static_cast<T*>(m_pObject);

  00020	8b 45 f4	 mov	 eax, DWORD PTR $T2[ebp]
  00023	8b 00		 mov	 eax, DWORD PTR [eax]
  00025	89 45 f0	 mov	 DWORD PTR $T1[ebp], eax
; File D:\Metin2 Server Files\mainline\SRC_2014\Metin2Client\eterGrnLib\Material.cpp

; 406  : 	return *m_mtrlVector[mtrlIndex].GetPointer();

  00028	8b 45 f0	 mov	 eax, DWORD PTR $T1[ebp]

; 407  : }

  0002b	c9		 leave
  0002c	c2 04 00	 ret	 4
?GetMaterialRef@CGrannyMaterialPalette@@QAEAAVCGrannyMaterial@@K@Z ENDP ; CGrannyMaterialPalette::GetMaterialRef
_TEXT	ENDS
; Function compile flags: /Odspy
; File D:\Metin2 Server Files\mainline\SRC_2014\Metin2Client\eterGrnLib\Material.cpp
; File C:\Program Files (x86)\Microsoft Visual Studio\2019\Community\VC\Tools\MSVC\14.28.29333\include\vector
; File D:\Metin2 Server Files\mainline\SRC_2014\Metin2Client\eterGrnLib\Material.cpp
; File C:\Program Files (x86)\Microsoft Visual Studio\2019\Community\VC\Tools\MSVC\14.28.29333\include\vector
; File D:\Metin2 Server Files\mainline\SRC_2014\Metin2Client\eterlib\Ref.h
; File D:\Metin2 Server Files\mainline\SRC_2014\Metin2Client\eterGrnLib\Material.cpp
; File D:\Metin2 Server Files\mainline\SRC_2014\Metin2Client\eterlib\Ref.h
; File D:\Metin2 Server Files\mainline\SRC_2014\Metin2Client\eterGrnLib\Material.cpp
; File C:\Program Files (x86)\Microsoft Visual Studio\2019\Community\VC\Tools\MSVC\14.28.29333\include\vector
; File D:\Metin2 Server Files\mainline\SRC_2014\Metin2Client\eterlib\Ref.h
; File D:\Metin2 Server Files\mainline\SRC_2014\Metin2Client\eterGrnLib\Material.cpp
;	COMDAT ?SetSpecularInfo@CGrannyMaterialPalette@@QAEXPBDHM@Z
_TEXT	SEGMENT
_iStage$1 = -48						; size = 4
$T2 = -44						; size = 4
_roMtrl$3 = -40						; size = 4
__My_data$4 = -36					; size = 4
$T5 = -32						; size = 4
$T6 = -28						; size = 4
__My_data$7 = -24					; size = 4
_size$ = -20						; size = 4
_roMtrl$8 = -16						; size = 4
__My_data$9 = -12					; size = 4
_this$ = -8						; size = 4
_i$ = -4						; size = 4
_c_szMtrlName$ = 8					; size = 4
_bEnable$ = 12						; size = 4
_fPower$ = 16						; size = 4
?SetSpecularInfo@CGrannyMaterialPalette@@QAEXPBDHM@Z PROC ; CGrannyMaterialPalette::SetSpecularInfo, COMDAT
; _this$ = ecx

; 464  : {

  00000	55		 push	 ebp
  00001	8b ec		 mov	 ebp, esp
  00003	83 ec 30	 sub	 esp, 48			; 00000030H
  00006	89 4d f8	 mov	 DWORD PTR _this$[ebp], ecx
; File C:\Program Files (x86)\Microsoft Visual Studio\2019\Community\VC\Tools\MSVC\14.28.29333\include\vector

; 1483 :         auto& _My_data = _Mypair._Myval2;

  00009	8b 45 f8	 mov	 eax, DWORD PTR _this$[ebp]
  0000c	83 c0 04	 add	 eax, 4
  0000f	89 45 f4	 mov	 DWORD PTR __My_data$9[ebp], eax

; 1484 :         return static_cast<size_type>(_My_data._Mylast - _My_data._Myfirst);

  00012	8b 45 f4	 mov	 eax, DWORD PTR __My_data$9[ebp]
  00015	8b 4d f4	 mov	 ecx, DWORD PTR __My_data$9[ebp]
  00018	8b 40 04	 mov	 eax, DWORD PTR [eax+4]
  0001b	2b 01		 sub	 eax, DWORD PTR [ecx]
  0001d	c1 f8 02	 sar	 eax, 2
  00020	89 45 ec	 mov	 DWORD PTR _size$[ebp], eax
; File D:\Metin2 Server Files\mainline\SRC_2014\Metin2Client\eterGrnLib\Material.cpp

; 467  : 	if (c_szMtrlName)

  00023	83 7d 08 00	 cmp	 DWORD PTR _c_szMtrlName$[ebp], 0
  00027	74 70		 je	 SHORT $LN8@SetSpecula

; 468  : 	{
; 469  : 		for (i=0; i<size; ++i)

  00029	83 65 fc 00	 and	 DWORD PTR _i$[ebp], 0
  0002d	eb 07		 jmp	 SHORT $LN4@SetSpecula
$LN2@SetSpecula:
  0002f	8b 45 fc	 mov	 eax, DWORD PTR _i$[ebp]
  00032	40		 inc	 eax
  00033	89 45 fc	 mov	 DWORD PTR _i$[ebp], eax
$LN4@SetSpecula:
  00036	8b 45 fc	 mov	 eax, DWORD PTR _i$[ebp]
  00039	3b 45 ec	 cmp	 eax, DWORD PTR _size$[ebp]
  0003c	73 59		 jae	 SHORT $LN3@SetSpecula
; File C:\Program Files (x86)\Microsoft Visual Studio\2019\Community\VC\Tools\MSVC\14.28.29333\include\vector

; 1498 :         auto& _My_data = _Mypair._Myval2;

  0003e	8b 45 f8	 mov	 eax, DWORD PTR _this$[ebp]
  00041	83 c0 04	 add	 eax, 4
  00044	89 45 e8	 mov	 DWORD PTR __My_data$7[ebp], eax

; 1499 : #if _CONTAINER_DEBUG_LEVEL > 0
; 1500 :         _STL_VERIFY(
; 1501 :             _Pos < static_cast<size_type>(_My_data._Mylast - _My_data._Myfirst), "vector subscript out of range");
; 1502 : #endif // _CONTAINER_DEBUG_LEVEL > 0
; 1503 : 
; 1504 :         return _My_data._Myfirst[_Pos];

  00047	8b 45 e8	 mov	 eax, DWORD PTR __My_data$7[ebp]
  0004a	8b 00		 mov	 eax, DWORD PTR [eax]
  0004c	8b 4d fc	 mov	 ecx, DWORD PTR _i$[ebp]
  0004f	8d 04 88	 lea	 eax, DWORD PTR [eax+ecx*4]
  00052	89 45 f0	 mov	 DWORD PTR _roMtrl$8[ebp], eax
; File D:\Metin2 Server Files\mainline\SRC_2014\Metin2Client\eterlib\Ref.h

; 86   : 			return static_cast<T*>(m_pObject);

  00055	8b 45 f0	 mov	 eax, DWORD PTR _roMtrl$8[ebp]
  00058	8b 00		 mov	 eax, DWORD PTR [eax]
  0005a	89 45 e4	 mov	 DWORD PTR $T6[ebp], eax
; File D:\Metin2 Server Files\mainline\SRC_2014\Metin2Client\eterGrnLib\Material.cpp

; 474  : 			if (roMtrl->IsIn(c_szMtrlName, &iStage))

  0005d	8d 45 d0	 lea	 eax, DWORD PTR _iStage$1[ebp]
  00060	50		 push	 eax
  00061	ff 75 08	 push	 DWORD PTR _c_szMtrlName$[ebp]
  00064	8b 4d e4	 mov	 ecx, DWORD PTR $T6[ebp]
  00067	e8 00 00 00 00	 call	 ?IsIn@CGrannyMaterial@@QAE_NPBDPAH@Z ; CGrannyMaterial::IsIn
  0006c	0f b6 c0	 movzx	 eax, al
  0006f	85 c0		 test	 eax, eax
  00071	74 22		 je	 SHORT $LN10@SetSpecula
; File D:\Metin2 Server Files\mainline\SRC_2014\Metin2Client\eterlib\Ref.h

; 86   : 			return static_cast<T*>(m_pObject);

  00073	8b 45 f0	 mov	 eax, DWORD PTR _roMtrl$8[ebp]
  00076	8b 00		 mov	 eax, DWORD PTR [eax]
  00078	89 45 e0	 mov	 DWORD PTR $T5[ebp], eax
; File D:\Metin2 Server Files\mainline\SRC_2014\Metin2Client\eterGrnLib\Material.cpp

; 476  : 				roMtrl->SetSpecularInfo(bEnable, fPower, 0);

  0007b	6a 00		 push	 0
  0007d	51		 push	 ecx
  0007e	f3 0f 10 45 10	 movss	 xmm0, DWORD PTR _fPower$[ebp]
  00083	f3 0f 11 04 24	 movss	 DWORD PTR [esp], xmm0
  00088	ff 75 0c	 push	 DWORD PTR _bEnable$[ebp]
  0008b	8b 4d e0	 mov	 ecx, DWORD PTR $T5[ebp]
  0008e	e8 00 00 00 00	 call	 ?SetSpecularInfo@CGrannyMaterial@@QAEXHME@Z ; CGrannyMaterial::SetSpecularInfo

; 477  : 				return;

  00093	eb 52		 jmp	 SHORT $LN1@SetSpecula
$LN10@SetSpecula:

; 478  : 			}
; 479  : 		}

  00095	eb 98		 jmp	 SHORT $LN2@SetSpecula
$LN3@SetSpecula:

; 480  : 	}

  00097	eb 4e		 jmp	 SHORT $LN6@SetSpecula
$LN8@SetSpecula:

; 481  : 	else
; 482  : 	{
; 483  : 		for (i=0; i<size; ++i)

  00099	83 65 fc 00	 and	 DWORD PTR _i$[ebp], 0
  0009d	eb 07		 jmp	 SHORT $LN7@SetSpecula
$LN5@SetSpecula:
  0009f	8b 45 fc	 mov	 eax, DWORD PTR _i$[ebp]
  000a2	40		 inc	 eax
  000a3	89 45 fc	 mov	 DWORD PTR _i$[ebp], eax
$LN7@SetSpecula:
  000a6	8b 45 fc	 mov	 eax, DWORD PTR _i$[ebp]
  000a9	3b 45 ec	 cmp	 eax, DWORD PTR _size$[ebp]
  000ac	73 39		 jae	 SHORT $LN6@SetSpecula
; File C:\Program Files (x86)\Microsoft Visual Studio\2019\Community\VC\Tools\MSVC\14.28.29333\include\vector

; 1498 :         auto& _My_data = _Mypair._Myval2;

  000ae	8b 45 f8	 mov	 eax, DWORD PTR _this$[ebp]
  000b1	83 c0 04	 add	 eax, 4
  000b4	89 45 dc	 mov	 DWORD PTR __My_data$4[ebp], eax

; 1499 : #if _CONTAINER_DEBUG_LEVEL > 0
; 1500 :         _STL_VERIFY(
; 1501 :             _Pos < static_cast<size_type>(_My_data._Mylast - _My_data._Myfirst), "vector subscript out of range");
; 1502 : #endif // _CONTAINER_DEBUG_LEVEL > 0
; 1503 : 
; 1504 :         return _My_data._Myfirst[_Pos];

  000b7	8b 45 dc	 mov	 eax, DWORD PTR __My_data$4[ebp]
  000ba	8b 00		 mov	 eax, DWORD PTR [eax]
  000bc	8b 4d fc	 mov	 ecx, DWORD PTR _i$[ebp]
  000bf	8d 04 88	 lea	 eax, DWORD PTR [eax+ecx*4]
  000c2	89 45 d8	 mov	 DWORD PTR _roMtrl$3[ebp], eax
; File D:\Metin2 Server Files\mainline\SRC_2014\Metin2Client\eterlib\Ref.h

; 86   : 			return static_cast<T*>(m_pObject);

  000c5	8b 45 d8	 mov	 eax, DWORD PTR _roMtrl$3[ebp]
  000c8	8b 00		 mov	 eax, DWORD PTR [eax]
  000ca	89 45 d4	 mov	 DWORD PTR $T2[ebp], eax
; File D:\Metin2 Server Files\mainline\SRC_2014\Metin2Client\eterGrnLib\Material.cpp

; 486  : 			roMtrl->SetSpecularInfo(bEnable, fPower, 0);

  000cd	6a 00		 push	 0
  000cf	51		 push	 ecx
  000d0	f3 0f 10 45 10	 movss	 xmm0, DWORD PTR _fPower$[ebp]
  000d5	f3 0f 11 04 24	 movss	 DWORD PTR [esp], xmm0
  000da	ff 75 0c	 push	 DWORD PTR _bEnable$[ebp]
  000dd	8b 4d d4	 mov	 ecx, DWORD PTR $T2[ebp]
  000e0	e8 00 00 00 00	 call	 ?SetSpecularInfo@CGrannyMaterial@@QAEXHME@Z ; CGrannyMaterial::SetSpecularInfo

; 487  : 		}

  000e5	eb b8		 jmp	 SHORT $LN5@SetSpecula
$LN6@SetSpecula:
$LN1@SetSpecula:

; 488  : 	}
; 489  : }

  000e7	c9		 leave
  000e8	c2 0c 00	 ret	 12			; 0000000cH
?SetSpecularInfo@CGrannyMaterialPalette@@QAEXPBDHM@Z ENDP ; CGrannyMaterialPalette::SetSpecularInfo
_TEXT	ENDS
; Function compile flags: /Odspy
; File D:\Metin2 Server Files\mainline\SRC_2014\Metin2Client\eterGrnLib\Material.cpp
; File C:\Program Files (x86)\Microsoft Visual Studio\2019\Community\VC\Tools\MSVC\14.28.29333\include\vector
; File C:\Program Files (x86)\Microsoft Visual Studio\2019\Community\VC\Tools\MSVC\14.28.29333\include\xstddef
; File C:\Program Files (x86)\Microsoft Visual Studio\2019\Community\VC\Tools\MSVC\14.28.29333\include\vector
; File D:\Metin2 Server Files\mainline\SRC_2014\Metin2Client\eterGrnLib\Material.cpp
; File C:\Program Files (x86)\Microsoft Visual Studio\2019\Community\VC\Tools\MSVC\14.28.29333\include\vector
; File C:\Program Files (x86)\Microsoft Visual Studio\2019\Community\VC\Tools\MSVC\14.28.29333\include\xstddef
; File C:\Program Files (x86)\Microsoft Visual Studio\2019\Community\VC\Tools\MSVC\14.28.29333\include\vector
; File D:\Metin2 Server Files\mainline\SRC_2014\Metin2Client\eterGrnLib\Material.cpp
; File C:\Program Files (x86)\Microsoft Visual Studio\2019\Community\VC\Tools\MSVC\14.28.29333\include\vector
; File D:\Metin2 Server Files\mainline\SRC_2014\Metin2Client\eterlib\Ref.h
; File D:\Metin2 Server Files\mainline\SRC_2014\Metin2Client\eterGrnLib\Material.cpp
; File D:\Metin2 Server Files\mainline\SRC_2014\Metin2Client\eterlib\Ref.h
; File D:\Metin2 Server Files\mainline\SRC_2014\Metin2Client\eterGrnLib\Material.cpp
; File D:\Metin2 Server Files\mainline\SRC_2014\Metin2Client\eterlib\Ref.h
; File D:\Metin2 Server Files\mainline\SRC_2014\Metin2Client\eterGrnLib\Material.cpp
; File C:\Program Files (x86)\Microsoft Visual Studio\2019\Community\VC\Tools\MSVC\14.28.29333\include\vector
; File C:\Program Files (x86)\Microsoft Visual Studio\2019\Community\VC\Tools\MSVC\14.28.29333\include\xstddef
; File C:\Program Files (x86)\Microsoft Visual Studio\2019\Community\VC\Tools\MSVC\14.28.29333\include\vector
; File D:\Metin2 Server Files\mainline\SRC_2014\Metin2Client\eterGrnLib\Material.cpp
; File C:\Program Files (x86)\Microsoft Visual Studio\2019\Community\VC\Tools\MSVC\14.28.29333\include\vector
; File C:\Program Files (x86)\Microsoft Visual Studio\2019\Community\VC\Tools\MSVC\14.28.29333\include\xstddef
; File C:\Program Files (x86)\Microsoft Visual Studio\2019\Community\VC\Tools\MSVC\14.28.29333\include\vector
; File D:\Metin2 Server Files\mainline\SRC_2014\Metin2Client\eterGrnLib\Material.cpp
; File C:\Program Files (x86)\Microsoft Visual Studio\2019\Community\VC\Tools\MSVC\14.28.29333\include\vector
; File D:\Metin2 Server Files\mainline\SRC_2014\Metin2Client\eterlib\Ref.h
; File D:\Metin2 Server Files\mainline\SRC_2014\Metin2Client\eterGrnLib\Material.cpp
;	COMDAT ?SetMaterialData@CGrannyMaterialPalette@@QAEXPBDABUSMaterialData@@@Z
_TEXT	SEGMENT
$T2 = -60						; size = 4
$T3 = -56						; size = 4
$T4 = -52						; size = 4
$T5 = -48						; size = 4
$T6 = -44						; size = 4
_roMtrl$7 = -40						; size = 4
$T8 = -36						; size = 4
$T9 = -32						; size = 4
$T10 = -28						; size = 4
___param0$ = -24					; size = 4
$T11 = -20						; size = 4
$T12 = -16						; size = 4
__$EHRec$ = -12						; size = 12
___param0$ = 0						; size = 4
_iStage$13 = 4						; size = 4
$T14 = 8						; size = 4
$T15 = 12						; size = 4
$T16 = 16						; size = 4
$T17 = 20						; size = 4
$T18 = 24						; size = 4
$T19 = 28						; size = 4
___param0$ = 32						; size = 4
$T20 = 36						; size = 4
$T21 = 40						; size = 4
___param0$ = 44						; size = 4
tv354 = 48						; size = 4
tv368 = 52						; size = 4
__My_data$22 = 56					; size = 4
__My_data$23 = 60					; size = 4
tv142 = 64						; size = 4
$T24 = 68						; size = 4
tv250 = 72						; size = 4
tv264 = 76						; size = 4
__My_data$25 = 80					; size = 4
__My_data$26 = 84					; size = 4
_roMtrl$27 = 88						; size = 4
_this$ = 92						; size = 4
_pkNewMtrl$28 = 96					; size = 4
_i$29 = 100						; size = 4
_i$30 = 104						; size = 4
$T31 = 108						; size = 1
$T32 = 109						; size = 1
$T33 = 110						; size = 1
$T34 = 111						; size = 1
_c_szMtrlName$ = 120					; size = 4
_c_rkMaterialData$ = 124				; size = 4
?SetMaterialData@CGrannyMaterialPalette@@QAEXPBDABUSMaterialData@@@Z PROC ; CGrannyMaterialPalette::SetMaterialData, COMDAT
; _this$ = ecx

; 431  : {

  00000	55		 push	 ebp
  00001	8d 6c 24 90	 lea	 ebp, DWORD PTR [esp-112]
  00005	83 ec 70	 sub	 esp, 112		; 00000070H
  00008	6a ff		 push	 -1
  0000a	68 00 00 00 00	 push	 __ehhandler$?SetMaterialData@CGrannyMaterialPalette@@QAEXPBDABUSMaterialData@@@Z
  0000f	64 a1 00 00 00
	00		 mov	 eax, DWORD PTR fs:0
  00015	50		 push	 eax
  00016	83 ec 30	 sub	 esp, 48			; 00000030H
  00019	a1 00 00 00 00	 mov	 eax, DWORD PTR ___security_cookie
  0001e	33 c5		 xor	 eax, ebp
  00020	50		 push	 eax
  00021	8d 45 f4	 lea	 eax, DWORD PTR __$EHRec$[ebp]
  00024	64 a3 00 00 00
	00		 mov	 DWORD PTR fs:0, eax
  0002a	89 4d 5c	 mov	 DWORD PTR _this$[ebp], ecx

; 432  : 	if (c_szMtrlName)

  0002d	83 7d 78 00	 cmp	 DWORD PTR _c_szMtrlName$[ebp], 0
  00031	0f 84 67 01 00
	00		 je	 $LN8@SetMateria
; File C:\Program Files (x86)\Microsoft Visual Studio\2019\Community\VC\Tools\MSVC\14.28.29333\include\vector

; 40   :     _Vector_const_iterator() noexcept : _Ptr() {}

  00037	83 65 68 00	 and	 DWORD PTR _i$30[ebp], 0

; 1410 :         auto& _My_data = _Mypair._Myval2;

  0003b	8b 45 5c	 mov	 eax, DWORD PTR _this$[ebp]
  0003e	83 c0 04	 add	 eax, 4
  00041	89 45 54	 mov	 DWORD PTR __My_data$26[ebp], eax
; File C:\Program Files (x86)\Microsoft Visual Studio\2019\Community\VC\Tools\MSVC\14.28.29333\include\xstddef

; 275  :     return __builtin_addressof(_Val);

  00044	8b 45 54	 mov	 eax, DWORD PTR __My_data$26[ebp]
  00047	89 45 d0	 mov	 DWORD PTR $T5[ebp], eax
; File C:\Program Files (x86)\Microsoft Visual Studio\2019\Community\VC\Tools\MSVC\14.28.29333\include\vector

; 1411 :         return iterator(_My_data._Myfirst, _STD addressof(_My_data));

  0004a	8b 45 54	 mov	 eax, DWORD PTR __My_data$26[ebp]
  0004d	8b 00		 mov	 eax, DWORD PTR [eax]
  0004f	89 45 2c	 mov	 DWORD PTR ___param0$[ebp], eax

; 42   :     _Vector_const_iterator(_Tptr _Parg, const _Container_base* _Pvector) noexcept : _Ptr(_Parg) {

  00052	8b 45 2c	 mov	 eax, DWORD PTR ___param0$[ebp]
  00055	89 45 28	 mov	 DWORD PTR $T21[ebp], eax

; 1411 :         return iterator(_My_data._Myfirst, _STD addressof(_My_data));

  00058	8d 45 28	 lea	 eax, DWORD PTR $T21[ebp]
  0005b	89 45 24	 mov	 DWORD PTR $T20[ebp], eax
; File D:\Metin2 Server Files\mainline\SRC_2014\Metin2Client\eterGrnLib\Material.cpp

; 435  : 		for (i=m_mtrlVector.begin(); i!=m_mtrlVector.end(); ++i)

  0005e	8b 45 24	 mov	 eax, DWORD PTR $T20[ebp]
  00061	8b 00		 mov	 eax, DWORD PTR [eax]
  00063	89 45 68	 mov	 DWORD PTR _i$30[ebp], eax
  00066	eb 09		 jmp	 SHORT $LN36@SetMateria
$LN2@SetMateria:
; File C:\Program Files (x86)\Microsoft Visual Studio\2019\Community\VC\Tools\MSVC\14.28.29333\include\vector

; 75   :         ++_Ptr;

  00068	8b 45 68	 mov	 eax, DWORD PTR _i$30[ebp]
  0006b	83 c0 04	 add	 eax, 4
  0006e	89 45 68	 mov	 DWORD PTR _i$30[ebp], eax
$LN36@SetMateria:

; 1420 :         auto& _My_data = _Mypair._Myval2;

  00071	8b 45 5c	 mov	 eax, DWORD PTR _this$[ebp]
  00074	83 c0 04	 add	 eax, 4
  00077	89 45 50	 mov	 DWORD PTR __My_data$25[ebp], eax
; File C:\Program Files (x86)\Microsoft Visual Studio\2019\Community\VC\Tools\MSVC\14.28.29333\include\xstddef

; 275  :     return __builtin_addressof(_Val);

  0007a	8b 45 50	 mov	 eax, DWORD PTR __My_data$25[ebp]
  0007d	89 45 cc	 mov	 DWORD PTR $T4[ebp], eax
; File C:\Program Files (x86)\Microsoft Visual Studio\2019\Community\VC\Tools\MSVC\14.28.29333\include\vector

; 1421 :         return iterator(_My_data._Mylast, _STD addressof(_My_data));

  00080	8b 45 50	 mov	 eax, DWORD PTR __My_data$25[ebp]
  00083	8b 40 04	 mov	 eax, DWORD PTR [eax+4]
  00086	89 45 20	 mov	 DWORD PTR ___param0$[ebp], eax

; 42   :     _Vector_const_iterator(_Tptr _Parg, const _Container_base* _Pvector) noexcept : _Ptr(_Parg) {

  00089	8b 45 20	 mov	 eax, DWORD PTR ___param0$[ebp]
  0008c	89 45 1c	 mov	 DWORD PTR $T19[ebp], eax

; 1421 :         return iterator(_My_data._Mylast, _STD addressof(_My_data));

  0008f	8d 45 1c	 lea	 eax, DWORD PTR $T19[ebp]
  00092	89 45 18	 mov	 DWORD PTR $T18[ebp], eax

; 149  :         return _Ptr == _Right._Ptr;

  00095	8b 45 18	 mov	 eax, DWORD PTR $T18[ebp]
  00098	8b 4d 68	 mov	 ecx, DWORD PTR _i$30[ebp]
  0009b	3b 08		 cmp	 ecx, DWORD PTR [eax]
  0009d	75 09		 jne	 SHORT $LN64@SetMateria
  0009f	c7 45 4c 01 00
	00 00		 mov	 DWORD PTR tv264[ebp], 1
  000a6	eb 04		 jmp	 SHORT $LN65@SetMateria
$LN64@SetMateria:
  000a8	83 65 4c 00	 and	 DWORD PTR tv264[ebp], 0
$LN65@SetMateria:
  000ac	8a 45 4c	 mov	 al, BYTE PTR tv264[ebp]
  000af	88 45 6f	 mov	 BYTE PTR $T34[ebp], al

; 153  :         return !(*this == _Right);

  000b2	0f b6 45 6f	 movzx	 eax, BYTE PTR $T34[ebp]
  000b6	85 c0		 test	 eax, eax
  000b8	75 09		 jne	 SHORT $LN59@SetMateria
  000ba	c7 45 48 01 00
	00 00		 mov	 DWORD PTR tv250[ebp], 1
  000c1	eb 04		 jmp	 SHORT $LN60@SetMateria
$LN59@SetMateria:
  000c3	83 65 48 00	 and	 DWORD PTR tv250[ebp], 0
$LN60@SetMateria:
  000c7	8a 45 48	 mov	 al, BYTE PTR tv250[ebp]
  000ca	88 45 6e	 mov	 BYTE PTR $T33[ebp], al
; File D:\Metin2 Server Files\mainline\SRC_2014\Metin2Client\eterGrnLib\Material.cpp

; 435  : 		for (i=m_mtrlVector.begin(); i!=m_mtrlVector.end(); ++i)

  000cd	0f b6 45 6e	 movzx	 eax, BYTE PTR $T33[ebp]
  000d1	85 c0		 test	 eax, eax
  000d3	0f 84 c0 00 00
	00		 je	 $LN3@SetMateria
; File C:\Program Files (x86)\Microsoft Visual Studio\2019\Community\VC\Tools\MSVC\14.28.29333\include\vector

; 54   :         return *_Ptr;

  000d9	8b 45 68	 mov	 eax, DWORD PTR _i$30[ebp]
  000dc	89 45 14	 mov	 DWORD PTR $T17[ebp], eax

; 252  :         return const_cast<reference>(_Mybase::operator*());

  000df	8b 45 14	 mov	 eax, DWORD PTR $T17[ebp]
  000e2	89 45 58	 mov	 DWORD PTR _roMtrl$27[ebp], eax
; File D:\Metin2 Server Files\mainline\SRC_2014\Metin2Client\eterlib\Ref.h

; 86   : 			return static_cast<T*>(m_pObject);

  000e5	8b 45 58	 mov	 eax, DWORD PTR _roMtrl$27[ebp]
  000e8	8b 00		 mov	 eax, DWORD PTR [eax]
  000ea	89 45 10	 mov	 DWORD PTR $T16[ebp], eax
; File D:\Metin2 Server Files\mainline\SRC_2014\Metin2Client\eterGrnLib\Material.cpp

; 440  : 			if (roMtrl->IsIn(c_szMtrlName, &iStage))

  000ed	8d 45 04	 lea	 eax, DWORD PTR _iStage$13[ebp]
  000f0	50		 push	 eax
  000f1	ff 75 78	 push	 DWORD PTR _c_szMtrlName$[ebp]
  000f4	8b 4d 10	 mov	 ecx, DWORD PTR $T16[ebp]
  000f7	e8 00 00 00 00	 call	 ?IsIn@CGrannyMaterial@@QAE_NPBDPAH@Z ; CGrannyMaterial::IsIn
  000fc	0f b6 c0	 movzx	 eax, al
  000ff	85 c0		 test	 eax, eax
  00101	0f 84 8d 00 00
	00		 je	 $LN10@SetMateria

; 441  : 			{
; 442  : 				CGrannyMaterial* pkNewMtrl=new CGrannyMaterial;

  00107	6a 38		 push	 56			; 00000038H
  00109	e8 00 00 00 00	 call	 ??2@YAPAXI@Z		; operator new
  0010e	59		 pop	 ecx
  0010f	89 45 44	 mov	 DWORD PTR $T24[ebp], eax
  00112	83 65 fc 00	 and	 DWORD PTR __$EHRec$[ebp+8], 0
  00116	83 7d 44 00	 cmp	 DWORD PTR $T24[ebp], 0
  0011a	74 0d		 je	 SHORT $LN12@SetMateria
  0011c	8b 4d 44	 mov	 ecx, DWORD PTR $T24[ebp]
  0011f	e8 00 00 00 00	 call	 ??0CGrannyMaterial@@QAE@XZ ; CGrannyMaterial::CGrannyMaterial
  00124	89 45 40	 mov	 DWORD PTR tv142[ebp], eax
  00127	eb 04		 jmp	 SHORT $LN13@SetMateria
$LN12@SetMateria:
  00129	83 65 40 00	 and	 DWORD PTR tv142[ebp], 0
$LN13@SetMateria:
  0012d	8b 45 40	 mov	 eax, DWORD PTR tv142[ebp]
  00130	89 45 0c	 mov	 DWORD PTR $T15[ebp], eax
  00133	83 4d fc ff	 or	 DWORD PTR __$EHRec$[ebp+8], -1
  00137	8b 45 0c	 mov	 eax, DWORD PTR $T15[ebp]
  0013a	89 45 60	 mov	 DWORD PTR _pkNewMtrl$28[ebp], eax
; File D:\Metin2 Server Files\mainline\SRC_2014\Metin2Client\eterlib\Ref.h

; 80   : 			return static_cast<T*>(m_pObject);

  0013d	8b 45 58	 mov	 eax, DWORD PTR _roMtrl$27[ebp]
  00140	8b 00		 mov	 eax, DWORD PTR [eax]
  00142	89 45 08	 mov	 DWORD PTR $T14[ebp], eax
; File D:\Metin2 Server Files\mainline\SRC_2014\Metin2Client\eterGrnLib\Material.cpp

; 443  : 				pkNewMtrl->Copy(*roMtrl.GetPointer());

  00145	ff 75 08	 push	 DWORD PTR $T14[ebp]
  00148	8b 4d 60	 mov	 ecx, DWORD PTR _pkNewMtrl$28[ebp]
  0014b	e8 00 00 00 00	 call	 ?Copy@CGrannyMaterial@@QAEXAAV1@@Z ; CGrannyMaterial::Copy

; 444  : 				pkNewMtrl->SetImagePointer(iStage, c_rkMaterialData.pImage);

  00150	8b 45 7c	 mov	 eax, DWORD PTR _c_rkMaterialData$[ebp]
  00153	ff 30		 push	 DWORD PTR [eax]
  00155	ff 75 04	 push	 DWORD PTR _iStage$13[ebp]
  00158	8b 4d 60	 mov	 ecx, DWORD PTR _pkNewMtrl$28[ebp]
  0015b	e8 00 00 00 00	 call	 ?SetImagePointer@CGrannyMaterial@@QAEXHPAVCGraphicImage@@@Z ; CGrannyMaterial::SetImagePointer

; 445  : 				pkNewMtrl->SetSpecularInfo(c_rkMaterialData.isSpecularEnable, c_rkMaterialData.fSpecularPower, c_rkMaterialData.bSphereMapIndex);

  00160	8b 45 7c	 mov	 eax, DWORD PTR _c_rkMaterialData$[ebp]
  00163	0f b6 40 0c	 movzx	 eax, BYTE PTR [eax+12]
  00167	50		 push	 eax
  00168	8b 45 7c	 mov	 eax, DWORD PTR _c_rkMaterialData$[ebp]
  0016b	51		 push	 ecx
  0016c	f3 0f 10 40 04	 movss	 xmm0, DWORD PTR [eax+4]
  00171	f3 0f 11 04 24	 movss	 DWORD PTR [esp], xmm0
  00176	8b 45 7c	 mov	 eax, DWORD PTR _c_rkMaterialData$[ebp]
  00179	ff 70 08	 push	 DWORD PTR [eax+8]
  0017c	8b 4d 60	 mov	 ecx, DWORD PTR _pkNewMtrl$28[ebp]
  0017f	e8 00 00 00 00	 call	 ?SetSpecularInfo@CGrannyMaterial@@QAEXHME@Z ; CGrannyMaterial::SetSpecularInfo
; File D:\Metin2 Server Files\mainline\SRC_2014\Metin2Client\eterlib\Ref.h

; 43   : 			SetPointer(pObject);

  00184	ff 75 60	 push	 DWORD PTR _pkNewMtrl$28[ebp]
  00187	8b 4d 58	 mov	 ecx, DWORD PTR _roMtrl$27[ebp]
  0018a	e8 00 00 00 00	 call	 ?SetPointer@?$CRef@VCGrannyMaterial@@@@QAEXPAVCReferenceObject@@@Z ; CRef<CGrannyMaterial>::SetPointer
; File D:\Metin2 Server Files\mainline\SRC_2014\Metin2Client\eterGrnLib\Material.cpp

; 448  : 				return;

  0018f	e9 e5 00 00 00	 jmp	 $LN1@SetMateria
$LN10@SetMateria:

; 449  : 			}
; 450  : 		}

  00194	e9 cf fe ff ff	 jmp	 $LN2@SetMateria
$LN3@SetMateria:

; 451  : 	}

  00199	e9 db 00 00 00	 jmp	 $LN6@SetMateria
$LN8@SetMateria:
; File C:\Program Files (x86)\Microsoft Visual Studio\2019\Community\VC\Tools\MSVC\14.28.29333\include\vector

; 40   :     _Vector_const_iterator() noexcept : _Ptr() {}

  0019e	83 65 64 00	 and	 DWORD PTR _i$29[ebp], 0

; 1410 :         auto& _My_data = _Mypair._Myval2;

  001a2	8b 45 5c	 mov	 eax, DWORD PTR _this$[ebp]
  001a5	83 c0 04	 add	 eax, 4
  001a8	89 45 3c	 mov	 DWORD PTR __My_data$23[ebp], eax
; File C:\Program Files (x86)\Microsoft Visual Studio\2019\Community\VC\Tools\MSVC\14.28.29333\include\xstddef

; 275  :     return __builtin_addressof(_Val);

  001ab	8b 45 3c	 mov	 eax, DWORD PTR __My_data$23[ebp]
  001ae	89 45 c8	 mov	 DWORD PTR $T3[ebp], eax
; File C:\Program Files (x86)\Microsoft Visual Studio\2019\Community\VC\Tools\MSVC\14.28.29333\include\vector

; 1411 :         return iterator(_My_data._Myfirst, _STD addressof(_My_data));

  001b1	8b 45 3c	 mov	 eax, DWORD PTR __My_data$23[ebp]
  001b4	8b 00		 mov	 eax, DWORD PTR [eax]
  001b6	89 45 00	 mov	 DWORD PTR ___param0$[ebp], eax

; 42   :     _Vector_const_iterator(_Tptr _Parg, const _Container_base* _Pvector) noexcept : _Ptr(_Parg) {

  001b9	8b 45 00	 mov	 eax, DWORD PTR ___param0$[ebp]
  001bc	89 45 f0	 mov	 DWORD PTR $T12[ebp], eax

; 1411 :         return iterator(_My_data._Myfirst, _STD addressof(_My_data));

  001bf	8d 45 f0	 lea	 eax, DWORD PTR $T12[ebp]
  001c2	89 45 ec	 mov	 DWORD PTR $T11[ebp], eax
; File D:\Metin2 Server Files\mainline\SRC_2014\Metin2Client\eterGrnLib\Material.cpp

; 455  : 		for (i=m_mtrlVector.begin(); i!=m_mtrlVector.end(); ++i)

  001c5	8b 45 ec	 mov	 eax, DWORD PTR $T11[ebp]
  001c8	8b 00		 mov	 eax, DWORD PTR [eax]
  001ca	89 45 64	 mov	 DWORD PTR _i$29[ebp], eax
  001cd	eb 09		 jmp	 SHORT $LN107@SetMateria
$LN5@SetMateria:
; File C:\Program Files (x86)\Microsoft Visual Studio\2019\Community\VC\Tools\MSVC\14.28.29333\include\vector

; 75   :         ++_Ptr;

  001cf	8b 45 64	 mov	 eax, DWORD PTR _i$29[ebp]
  001d2	83 c0 04	 add	 eax, 4
  001d5	89 45 64	 mov	 DWORD PTR _i$29[ebp], eax
$LN107@SetMateria:

; 1420 :         auto& _My_data = _Mypair._Myval2;

  001d8	8b 45 5c	 mov	 eax, DWORD PTR _this$[ebp]
  001db	83 c0 04	 add	 eax, 4
  001de	89 45 38	 mov	 DWORD PTR __My_data$22[ebp], eax
; File C:\Program Files (x86)\Microsoft Visual Studio\2019\Community\VC\Tools\MSVC\14.28.29333\include\xstddef

; 275  :     return __builtin_addressof(_Val);

  001e1	8b 45 38	 mov	 eax, DWORD PTR __My_data$22[ebp]
  001e4	89 45 c4	 mov	 DWORD PTR $T2[ebp], eax
; File C:\Program Files (x86)\Microsoft Visual Studio\2019\Community\VC\Tools\MSVC\14.28.29333\include\vector

; 1421 :         return iterator(_My_data._Mylast, _STD addressof(_My_data));

  001e7	8b 45 38	 mov	 eax, DWORD PTR __My_data$22[ebp]
  001ea	8b 40 04	 mov	 eax, DWORD PTR [eax+4]
  001ed	89 45 e8	 mov	 DWORD PTR ___param0$[ebp], eax

; 42   :     _Vector_const_iterator(_Tptr _Parg, const _Container_base* _Pvector) noexcept : _Ptr(_Parg) {

  001f0	8b 45 e8	 mov	 eax, DWORD PTR ___param0$[ebp]
  001f3	89 45 e4	 mov	 DWORD PTR $T10[ebp], eax

; 1421 :         return iterator(_My_data._Mylast, _STD addressof(_My_data));

  001f6	8d 45 e4	 lea	 eax, DWORD PTR $T10[ebp]
  001f9	89 45 e0	 mov	 DWORD PTR $T9[ebp], eax

; 149  :         return _Ptr == _Right._Ptr;

  001fc	8b 45 e0	 mov	 eax, DWORD PTR $T9[ebp]
  001ff	8b 4d 64	 mov	 ecx, DWORD PTR _i$29[ebp]
  00202	3b 08		 cmp	 ecx, DWORD PTR [eax]
  00204	75 09		 jne	 SHORT $LN135@SetMateria
  00206	c7 45 34 01 00
	00 00		 mov	 DWORD PTR tv368[ebp], 1
  0020d	eb 04		 jmp	 SHORT $LN136@SetMateria
$LN135@SetMateria:
  0020f	83 65 34 00	 and	 DWORD PTR tv368[ebp], 0
$LN136@SetMateria:
  00213	8a 45 34	 mov	 al, BYTE PTR tv368[ebp]
  00216	88 45 6d	 mov	 BYTE PTR $T32[ebp], al

; 153  :         return !(*this == _Right);

  00219	0f b6 45 6d	 movzx	 eax, BYTE PTR $T32[ebp]
  0021d	85 c0		 test	 eax, eax
  0021f	75 09		 jne	 SHORT $LN130@SetMateria
  00221	c7 45 30 01 00
	00 00		 mov	 DWORD PTR tv354[ebp], 1
  00228	eb 04		 jmp	 SHORT $LN131@SetMateria
$LN130@SetMateria:
  0022a	83 65 30 00	 and	 DWORD PTR tv354[ebp], 0
$LN131@SetMateria:
  0022e	8a 45 30	 mov	 al, BYTE PTR tv354[ebp]
  00231	88 45 6c	 mov	 BYTE PTR $T31[ebp], al
; File D:\Metin2 Server Files\mainline\SRC_2014\Metin2Client\eterGrnLib\Material.cpp

; 455  : 		for (i=m_mtrlVector.begin(); i!=m_mtrlVector.end(); ++i)

  00234	0f b6 45 6c	 movzx	 eax, BYTE PTR $T31[ebp]
  00238	85 c0		 test	 eax, eax
  0023a	74 3d		 je	 SHORT $LN6@SetMateria
; File C:\Program Files (x86)\Microsoft Visual Studio\2019\Community\VC\Tools\MSVC\14.28.29333\include\vector

; 54   :         return *_Ptr;

  0023c	8b 45 64	 mov	 eax, DWORD PTR _i$29[ebp]
  0023f	89 45 dc	 mov	 DWORD PTR $T8[ebp], eax

; 252  :         return const_cast<reference>(_Mybase::operator*());

  00242	8b 45 dc	 mov	 eax, DWORD PTR $T8[ebp]
  00245	89 45 d8	 mov	 DWORD PTR _roMtrl$7[ebp], eax
; File D:\Metin2 Server Files\mainline\SRC_2014\Metin2Client\eterlib\Ref.h

; 86   : 			return static_cast<T*>(m_pObject);

  00248	8b 45 d8	 mov	 eax, DWORD PTR _roMtrl$7[ebp]
  0024b	8b 00		 mov	 eax, DWORD PTR [eax]
  0024d	89 45 d4	 mov	 DWORD PTR $T6[ebp], eax
; File D:\Metin2 Server Files\mainline\SRC_2014\Metin2Client\eterGrnLib\Material.cpp

; 458  : 			roMtrl->SetSpecularInfo(c_rkMaterialData.isSpecularEnable, c_rkMaterialData.fSpecularPower, c_rkMaterialData.bSphereMapIndex);

  00250	8b 45 7c	 mov	 eax, DWORD PTR _c_rkMaterialData$[ebp]
  00253	0f b6 40 0c	 movzx	 eax, BYTE PTR [eax+12]
  00257	50		 push	 eax
  00258	8b 45 7c	 mov	 eax, DWORD PTR _c_rkMaterialData$[ebp]
  0025b	51		 push	 ecx
  0025c	f3 0f 10 40 04	 movss	 xmm0, DWORD PTR [eax+4]
  00261	f3 0f 11 04 24	 movss	 DWORD PTR [esp], xmm0
  00266	8b 45 7c	 mov	 eax, DWORD PTR _c_rkMaterialData$[ebp]
  00269	ff 70 08	 push	 DWORD PTR [eax+8]
  0026c	8b 4d d4	 mov	 ecx, DWORD PTR $T6[ebp]
  0026f	e8 00 00 00 00	 call	 ?SetSpecularInfo@CGrannyMaterial@@QAEXHME@Z ; CGrannyMaterial::SetSpecularInfo

; 459  : 		}

  00274	e9 56 ff ff ff	 jmp	 $LN5@SetMateria
$LN6@SetMateria:
$LN1@SetMateria:

; 460  : 	}
; 461  : }

  00279	8b 4d f4	 mov	 ecx, DWORD PTR __$EHRec$[ebp]
  0027c	64 89 0d 00 00
	00 00		 mov	 DWORD PTR fs:0, ecx
  00283	59		 pop	 ecx
  00284	83 c5 70	 add	 ebp, 112		; 00000070H
  00287	c9		 leave
  00288	c2 08 00	 ret	 8
_TEXT	ENDS
;	COMDAT text$x
text$x	SEGMENT
__unwindfunclet$?SetMaterialData@CGrannyMaterialPalette@@QAEXPBDABUSMaterialData@@@Z$0:
  00000	6a 38		 push	 56			; 00000038H
  00002	ff 75 44	 push	 DWORD PTR $T24[ebp]
  00005	e8 00 00 00 00	 call	 ??3@YAXPAXI@Z		; operator delete
  0000a	59		 pop	 ecx
  0000b	59		 pop	 ecx
  0000c	c3		 ret	 0
  0000d	cc		 int	 3
  0000e	cc		 int	 3
  0000f	cc		 int	 3
  00010	cc		 int	 3
  00011	cc		 int	 3
__ehhandler$?SetMaterialData@CGrannyMaterialPalette@@QAEXPBDABUSMaterialData@@@Z:
  00012	90		 npad	 1
  00013	90		 npad	 1
  00014	8b 54 24 08	 mov	 edx, DWORD PTR [esp+8]
  00018	8d 42 0c	 lea	 eax, DWORD PTR [edx+12]
  0001b	8b 4a cc	 mov	 ecx, DWORD PTR [edx-52]
  0001e	33 c8		 xor	 ecx, eax
  00020	e8 00 00 00 00	 call	 @__security_check_cookie@4
  00025	b8 00 00 00 00	 mov	 eax, OFFSET __ehfuncinfo$?SetMaterialData@CGrannyMaterialPalette@@QAEXPBDABUSMaterialData@@@Z
  0002a	e9 00 00 00 00	 jmp	 ___CxxFrameHandler3
text$x	ENDS
?SetMaterialData@CGrannyMaterialPalette@@QAEXPBDABUSMaterialData@@@Z ENDP ; CGrannyMaterialPalette::SetMaterialData
; Function compile flags: /Odspy
; File D:\Metin2 Server Files\mainline\SRC_2014\Metin2Client\eterGrnLib\Material.cpp
; File C:\Program Files (x86)\Microsoft Visual Studio\2019\Community\VC\Tools\MSVC\14.28.29333\include\vector
; File D:\Metin2 Server Files\mainline\SRC_2014\Metin2Client\eterGrnLib\Material.cpp
; File C:\Program Files (x86)\Microsoft Visual Studio\2019\Community\VC\Tools\MSVC\14.28.29333\include\vector
; File D:\Metin2 Server Files\mainline\SRC_2014\Metin2Client\eterlib\Ref.h
; File D:\Metin2 Server Files\mainline\SRC_2014\Metin2Client\eterGrnLib\Material.cpp
; File D:\Metin2 Server Files\mainline\SRC_2014\Metin2Client\eterlib\Ref.h
; File D:\Metin2 Server Files\mainline\SRC_2014\Metin2Client\eterGrnLib\Material.cpp
; File D:\Metin2 Server Files\mainline\SRC_2014\Metin2Client\eterlib\Ref.h
; File D:\Metin2 Server Files\mainline\SRC_2014\Metin2Client\eterGrnLib\Material.cpp
;	COMDAT ?SetMaterialImagePointer@CGrannyMaterialPalette@@QAEXPBDPAVCGraphicImage@@@Z
_TEXT	SEGMENT
_iStage$2 = -64						; size = 4
$T3 = -60						; size = 4
$T4 = -56						; size = 4
$T5 = -52						; size = 4
__My_data$6 = -48					; size = 4
_size$ = -44						; size = 4
tv92 = -40						; size = 4
$T7 = -36						; size = 4
_this$ = -32						; size = 4
__My_data$8 = -28					; size = 4
_roMtrl$9 = -24						; size = 4
_pkNewMtrl$10 = -20					; size = 4
_i$ = -16						; size = 4
__$EHRec$ = -12						; size = 12
_c_szImageName$ = 8					; size = 4
_pImage$ = 12						; size = 4
?SetMaterialImagePointer@CGrannyMaterialPalette@@QAEXPBDPAVCGraphicImage@@@Z PROC ; CGrannyMaterialPalette::SetMaterialImagePointer, COMDAT
; _this$ = ecx

; 410  : {

  00000	55		 push	 ebp
  00001	8b ec		 mov	 ebp, esp
  00003	6a ff		 push	 -1
  00005	68 00 00 00 00	 push	 __ehhandler$?SetMaterialImagePointer@CGrannyMaterialPalette@@QAEXPBDPAVCGraphicImage@@@Z
  0000a	64 a1 00 00 00
	00		 mov	 eax, DWORD PTR fs:0
  00010	50		 push	 eax
  00011	83 ec 34	 sub	 esp, 52			; 00000034H
  00014	a1 00 00 00 00	 mov	 eax, DWORD PTR ___security_cookie
  00019	33 c5		 xor	 eax, ebp
  0001b	50		 push	 eax
  0001c	8d 45 f4	 lea	 eax, DWORD PTR __$EHRec$[ebp]
  0001f	64 a3 00 00 00
	00		 mov	 DWORD PTR fs:0, eax
  00025	89 4d e0	 mov	 DWORD PTR _this$[ebp], ecx
; File C:\Program Files (x86)\Microsoft Visual Studio\2019\Community\VC\Tools\MSVC\14.28.29333\include\vector

; 1483 :         auto& _My_data = _Mypair._Myval2;

  00028	8b 45 e0	 mov	 eax, DWORD PTR _this$[ebp]
  0002b	83 c0 04	 add	 eax, 4
  0002e	89 45 e4	 mov	 DWORD PTR __My_data$8[ebp], eax

; 1484 :         return static_cast<size_type>(_My_data._Mylast - _My_data._Myfirst);

  00031	8b 45 e4	 mov	 eax, DWORD PTR __My_data$8[ebp]
  00034	8b 4d e4	 mov	 ecx, DWORD PTR __My_data$8[ebp]
  00037	8b 40 04	 mov	 eax, DWORD PTR [eax+4]
  0003a	2b 01		 sub	 eax, DWORD PTR [ecx]
  0003c	c1 f8 02	 sar	 eax, 2
  0003f	89 45 d4	 mov	 DWORD PTR _size$[ebp], eax
; File D:\Metin2 Server Files\mainline\SRC_2014\Metin2Client\eterGrnLib\Material.cpp

; 413  : 	for (i=0; i<size; ++i)

  00042	83 65 f0 00	 and	 DWORD PTR _i$[ebp], 0
  00046	eb 07		 jmp	 SHORT $LN4@SetMateria
$LN2@SetMateria:
  00048	8b 45 f0	 mov	 eax, DWORD PTR _i$[ebp]
  0004b	40		 inc	 eax
  0004c	89 45 f0	 mov	 DWORD PTR _i$[ebp], eax
$LN4@SetMateria:
  0004f	8b 45 f0	 mov	 eax, DWORD PTR _i$[ebp]
  00052	3b 45 d4	 cmp	 eax, DWORD PTR _size$[ebp]
  00055	0f 83 9e 00 00
	00		 jae	 $LN1@SetMateria
; File C:\Program Files (x86)\Microsoft Visual Studio\2019\Community\VC\Tools\MSVC\14.28.29333\include\vector

; 1498 :         auto& _My_data = _Mypair._Myval2;

  0005b	8b 45 e0	 mov	 eax, DWORD PTR _this$[ebp]
  0005e	83 c0 04	 add	 eax, 4
  00061	89 45 d0	 mov	 DWORD PTR __My_data$6[ebp], eax

; 1499 : #if _CONTAINER_DEBUG_LEVEL > 0
; 1500 :         _STL_VERIFY(
; 1501 :             _Pos < static_cast<size_type>(_My_data._Mylast - _My_data._Myfirst), "vector subscript out of range");
; 1502 : #endif // _CONTAINER_DEBUG_LEVEL > 0
; 1503 : 
; 1504 :         return _My_data._Myfirst[_Pos];

  00064	8b 45 d0	 mov	 eax, DWORD PTR __My_data$6[ebp]
  00067	8b 00		 mov	 eax, DWORD PTR [eax]
  00069	8b 4d f0	 mov	 ecx, DWORD PTR _i$[ebp]
  0006c	8d 04 88	 lea	 eax, DWORD PTR [eax+ecx*4]
  0006f	89 45 e8	 mov	 DWORD PTR _roMtrl$9[ebp], eax
; File D:\Metin2 Server Files\mainline\SRC_2014\Metin2Client\eterlib\Ref.h

; 86   : 			return static_cast<T*>(m_pObject);

  00072	8b 45 e8	 mov	 eax, DWORD PTR _roMtrl$9[ebp]
  00075	8b 00		 mov	 eax, DWORD PTR [eax]
  00077	89 45 cc	 mov	 DWORD PTR $T5[ebp], eax
; File D:\Metin2 Server Files\mainline\SRC_2014\Metin2Client\eterGrnLib\Material.cpp

; 418  : 		if (roMtrl->IsIn(c_szImageName, &iStage))

  0007a	8d 45 c0	 lea	 eax, DWORD PTR _iStage$2[ebp]
  0007d	50		 push	 eax
  0007e	ff 75 08	 push	 DWORD PTR _c_szImageName$[ebp]
  00081	8b 4d cc	 mov	 ecx, DWORD PTR $T5[ebp]
  00084	e8 00 00 00 00	 call	 ?IsIn@CGrannyMaterial@@QAE_NPBDPAH@Z ; CGrannyMaterial::IsIn
  00089	0f b6 c0	 movzx	 eax, al
  0008c	85 c0		 test	 eax, eax
  0008e	74 64		 je	 SHORT $LN5@SetMateria

; 419  : 		{
; 420  : 			CGrannyMaterial* pkNewMtrl=new CGrannyMaterial;

  00090	6a 38		 push	 56			; 00000038H
  00092	e8 00 00 00 00	 call	 ??2@YAPAXI@Z		; operator new
  00097	59		 pop	 ecx
  00098	89 45 dc	 mov	 DWORD PTR $T7[ebp], eax
  0009b	83 65 fc 00	 and	 DWORD PTR __$EHRec$[ebp+8], 0
  0009f	83 7d dc 00	 cmp	 DWORD PTR $T7[ebp], 0
  000a3	74 0d		 je	 SHORT $LN7@SetMateria
  000a5	8b 4d dc	 mov	 ecx, DWORD PTR $T7[ebp]
  000a8	e8 00 00 00 00	 call	 ??0CGrannyMaterial@@QAE@XZ ; CGrannyMaterial::CGrannyMaterial
  000ad	89 45 d8	 mov	 DWORD PTR tv92[ebp], eax
  000b0	eb 04		 jmp	 SHORT $LN8@SetMateria
$LN7@SetMateria:
  000b2	83 65 d8 00	 and	 DWORD PTR tv92[ebp], 0
$LN8@SetMateria:
  000b6	8b 45 d8	 mov	 eax, DWORD PTR tv92[ebp]
  000b9	89 45 c8	 mov	 DWORD PTR $T4[ebp], eax
  000bc	83 4d fc ff	 or	 DWORD PTR __$EHRec$[ebp+8], -1
  000c0	8b 45 c8	 mov	 eax, DWORD PTR $T4[ebp]
  000c3	89 45 ec	 mov	 DWORD PTR _pkNewMtrl$10[ebp], eax
; File D:\Metin2 Server Files\mainline\SRC_2014\Metin2Client\eterlib\Ref.h

; 80   : 			return static_cast<T*>(m_pObject);

  000c6	8b 45 e8	 mov	 eax, DWORD PTR _roMtrl$9[ebp]
  000c9	8b 00		 mov	 eax, DWORD PTR [eax]
  000cb	89 45 c4	 mov	 DWORD PTR $T3[ebp], eax
; File D:\Metin2 Server Files\mainline\SRC_2014\Metin2Client\eterGrnLib\Material.cpp

; 421  : 			pkNewMtrl->Copy(*roMtrl.GetPointer());

  000ce	ff 75 c4	 push	 DWORD PTR $T3[ebp]
  000d1	8b 4d ec	 mov	 ecx, DWORD PTR _pkNewMtrl$10[ebp]
  000d4	e8 00 00 00 00	 call	 ?Copy@CGrannyMaterial@@QAEXAAV1@@Z ; CGrannyMaterial::Copy

; 422  : 			pkNewMtrl->SetImagePointer(iStage, pImage);

  000d9	ff 75 0c	 push	 DWORD PTR _pImage$[ebp]
  000dc	ff 75 c0	 push	 DWORD PTR _iStage$2[ebp]
  000df	8b 4d ec	 mov	 ecx, DWORD PTR _pkNewMtrl$10[ebp]
  000e2	e8 00 00 00 00	 call	 ?SetImagePointer@CGrannyMaterial@@QAEXHPAVCGraphicImage@@@Z ; CGrannyMaterial::SetImagePointer
; File D:\Metin2 Server Files\mainline\SRC_2014\Metin2Client\eterlib\Ref.h

; 43   : 			SetPointer(pObject);

  000e7	ff 75 ec	 push	 DWORD PTR _pkNewMtrl$10[ebp]
  000ea	8b 4d e8	 mov	 ecx, DWORD PTR _roMtrl$9[ebp]
  000ed	e8 00 00 00 00	 call	 ?SetPointer@?$CRef@VCGrannyMaterial@@@@QAEXPAVCReferenceObject@@@Z ; CRef<CGrannyMaterial>::SetPointer
; File D:\Metin2 Server Files\mainline\SRC_2014\Metin2Client\eterGrnLib\Material.cpp

; 425  : 			return;

  000f2	eb 05		 jmp	 SHORT $LN1@SetMateria
$LN5@SetMateria:

; 426  : 		}
; 427  : 	}

  000f4	e9 4f ff ff ff	 jmp	 $LN2@SetMateria
$LN1@SetMateria:

; 428  : }

  000f9	8b 4d f4	 mov	 ecx, DWORD PTR __$EHRec$[ebp]
  000fc	64 89 0d 00 00
	00 00		 mov	 DWORD PTR fs:0, ecx
  00103	59		 pop	 ecx
  00104	c9		 leave
  00105	c2 08 00	 ret	 8
_TEXT	ENDS
;	COMDAT text$x
text$x	SEGMENT
__unwindfunclet$?SetMaterialImagePointer@CGrannyMaterialPalette@@QAEXPBDPAVCGraphicImage@@@Z$0:
  00000	6a 38		 push	 56			; 00000038H
  00002	ff 75 dc	 push	 DWORD PTR $T7[ebp]
  00005	e8 00 00 00 00	 call	 ??3@YAXPAXI@Z		; operator delete
  0000a	59		 pop	 ecx
  0000b	59		 pop	 ecx
  0000c	c3		 ret	 0
  0000d	cc		 int	 3
  0000e	cc		 int	 3
  0000f	cc		 int	 3
  00010	cc		 int	 3
  00011	cc		 int	 3
__ehhandler$?SetMaterialImagePointer@CGrannyMaterialPalette@@QAEXPBDPAVCGraphicImage@@@Z:
  00012	90		 npad	 1
  00013	90		 npad	 1
  00014	8b 54 24 08	 mov	 edx, DWORD PTR [esp+8]
  00018	8d 42 0c	 lea	 eax, DWORD PTR [edx+12]
  0001b	8b 4a c8	 mov	 ecx, DWORD PTR [edx-56]
  0001e	33 c8		 xor	 ecx, eax
  00020	e8 00 00 00 00	 call	 @__security_check_cookie@4
  00025	b8 00 00 00 00	 mov	 eax, OFFSET __ehfuncinfo$?SetMaterialImagePointer@CGrannyMaterialPalette@@QAEXPBDPAVCGraphicImage@@@Z
  0002a	e9 00 00 00 00	 jmp	 ___CxxFrameHandler3
text$x	ENDS
?SetMaterialImagePointer@CGrannyMaterialPalette@@QAEXPBDPAVCGraphicImage@@@Z ENDP ; CGrannyMaterialPalette::SetMaterialImagePointer
; Function compile flags: /Odspy
; File D:\Metin2 Server Files\mainline\SRC_2014\Metin2Client\eterGrnLib\Material.cpp
; File C:\Program Files (x86)\Microsoft Visual Studio\2019\Community\VC\Tools\MSVC\14.28.29333\include\vector
; File D:\Metin2 Server Files\mainline\SRC_2014\Metin2Client\eterGrnLib\Material.cpp
; File C:\Program Files (x86)\Microsoft Visual Studio\2019\Community\VC\Tools\MSVC\14.28.29333\include\vector
; File D:\Metin2 Server Files\mainline\SRC_2014\Metin2Client\eterlib\Ref.h
; File D:\Metin2 Server Files\mainline\SRC_2014\Metin2Client\eterGrnLib\Material.cpp
; File D:\Metin2 Server Files\mainline\SRC_2014\Metin2Client\eterlib\Ref.h
; File D:\Metin2 Server Files\mainline\SRC_2014\Metin2Client\eterGrnLib\Material.cpp
; File C:\Program Files (x86)\Microsoft Visual Studio\2019\Community\VC\Tools\MSVC\14.28.29333\include\type_traits
; File C:\Program Files (x86)\Microsoft Visual Studio\2019\Community\VC\Tools\MSVC\14.28.29333\include\vector
; File D:\Metin2 Server Files\mainline\SRC_2014\Metin2Client\eterGrnLib\Material.cpp
; File C:\Program Files (x86)\Microsoft Visual Studio\2019\Community\VC\Tools\MSVC\14.28.29333\include\vector
; File D:\Metin2 Server Files\mainline\SRC_2014\Metin2Client\eterlib\Ref.h
; File D:\Metin2 Server Files\mainline\SRC_2014\Metin2Client\eterGrnLib\Material.cpp
;	COMDAT ?RegisterMaterial@CGrannyMaterialPalette@@QAEKPAUgranny_material@@@Z
_TEXT	SEGMENT
$T2 = -64						; size = 4
$T3 = -60						; size = 4
$T4 = -56						; size = 4
_roMtrl$5 = -52						; size = 4
__My_data$6 = -48					; size = 4
_size$ = -44						; size = 4
_pkNewMtrl$ = -40					; size = 4
tv91 = -36						; size = 4
$T7 = -32						; size = 4
__My_data$8 = -28					; size = 4
_this$ = -24						; size = 4
_i$ = -20						; size = 4
$T9 = -16						; size = 4
__$EHRec$ = -12						; size = 12
_pgrnMaterial$ = 8					; size = 4
?RegisterMaterial@CGrannyMaterialPalette@@QAEKPAUgranny_material@@@Z PROC ; CGrannyMaterialPalette::RegisterMaterial, COMDAT
; _this$ = ecx

; 492  : {

  00000	55		 push	 ebp
  00001	8b ec		 mov	 ebp, esp
  00003	6a ff		 push	 -1
  00005	68 00 00 00 00	 push	 __ehhandler$?RegisterMaterial@CGrannyMaterialPalette@@QAEKPAUgranny_material@@@Z
  0000a	64 a1 00 00 00
	00		 mov	 eax, DWORD PTR fs:0
  00010	50		 push	 eax
  00011	83 ec 34	 sub	 esp, 52			; 00000034H
  00014	a1 00 00 00 00	 mov	 eax, DWORD PTR ___security_cookie
  00019	33 c5		 xor	 eax, ebp
  0001b	50		 push	 eax
  0001c	8d 45 f4	 lea	 eax, DWORD PTR __$EHRec$[ebp]
  0001f	64 a3 00 00 00
	00		 mov	 DWORD PTR fs:0, eax
  00025	89 4d e8	 mov	 DWORD PTR _this$[ebp], ecx
; File C:\Program Files (x86)\Microsoft Visual Studio\2019\Community\VC\Tools\MSVC\14.28.29333\include\vector

; 1483 :         auto& _My_data = _Mypair._Myval2;

  00028	8b 45 e8	 mov	 eax, DWORD PTR _this$[ebp]
  0002b	83 c0 04	 add	 eax, 4
  0002e	89 45 e4	 mov	 DWORD PTR __My_data$8[ebp], eax

; 1484 :         return static_cast<size_type>(_My_data._Mylast - _My_data._Myfirst);

  00031	8b 45 e4	 mov	 eax, DWORD PTR __My_data$8[ebp]
  00034	8b 4d e4	 mov	 ecx, DWORD PTR __My_data$8[ebp]
  00037	8b 40 04	 mov	 eax, DWORD PTR [eax+4]
  0003a	2b 01		 sub	 eax, DWORD PTR [ecx]
  0003c	c1 f8 02	 sar	 eax, 2
  0003f	89 45 d4	 mov	 DWORD PTR _size$[ebp], eax
; File D:\Metin2 Server Files\mainline\SRC_2014\Metin2Client\eterGrnLib\Material.cpp

; 495  : 	for (i=0; i<size; ++i)

  00042	83 65 ec 00	 and	 DWORD PTR _i$[ebp], 0
  00046	eb 07		 jmp	 SHORT $LN4@RegisterMa
$LN2@RegisterMa:
  00048	8b 45 ec	 mov	 eax, DWORD PTR _i$[ebp]
  0004b	40		 inc	 eax
  0004c	89 45 ec	 mov	 DWORD PTR _i$[ebp], eax
$LN4@RegisterMa:
  0004f	8b 45 ec	 mov	 eax, DWORD PTR _i$[ebp]
  00052	3b 45 d4	 cmp	 eax, DWORD PTR _size$[ebp]
  00055	73 3b		 jae	 SHORT $LN3@RegisterMa
; File C:\Program Files (x86)\Microsoft Visual Studio\2019\Community\VC\Tools\MSVC\14.28.29333\include\vector

; 1498 :         auto& _My_data = _Mypair._Myval2;

  00057	8b 45 e8	 mov	 eax, DWORD PTR _this$[ebp]
  0005a	83 c0 04	 add	 eax, 4
  0005d	89 45 d0	 mov	 DWORD PTR __My_data$6[ebp], eax

; 1499 : #if _CONTAINER_DEBUG_LEVEL > 0
; 1500 :         _STL_VERIFY(
; 1501 :             _Pos < static_cast<size_type>(_My_data._Mylast - _My_data._Myfirst), "vector subscript out of range");
; 1502 : #endif // _CONTAINER_DEBUG_LEVEL > 0
; 1503 : 
; 1504 :         return _My_data._Myfirst[_Pos];

  00060	8b 45 d0	 mov	 eax, DWORD PTR __My_data$6[ebp]
  00063	8b 00		 mov	 eax, DWORD PTR [eax]
  00065	8b 4d ec	 mov	 ecx, DWORD PTR _i$[ebp]
  00068	8d 04 88	 lea	 eax, DWORD PTR [eax+ecx*4]
  0006b	89 45 cc	 mov	 DWORD PTR _roMtrl$5[ebp], eax
; File D:\Metin2 Server Files\mainline\SRC_2014\Metin2Client\eterlib\Ref.h

; 86   : 			return static_cast<T*>(m_pObject);

  0006e	8b 45 cc	 mov	 eax, DWORD PTR _roMtrl$5[ebp]
  00071	8b 00		 mov	 eax, DWORD PTR [eax]
  00073	89 45 c8	 mov	 DWORD PTR $T4[ebp], eax
; File D:\Metin2 Server Files\mainline\SRC_2014\Metin2Client\eterGrnLib\Material.cpp

; 498  : 		if (roMtrl->IsEqual(pgrnMaterial))

  00076	ff 75 08	 push	 DWORD PTR _pgrnMaterial$[ebp]
  00079	8b 4d c8	 mov	 ecx, DWORD PTR $T4[ebp]
  0007c	e8 00 00 00 00	 call	 ?IsEqual@CGrannyMaterial@@QBE_NPAUgranny_material@@@Z ; CGrannyMaterial::IsEqual
  00081	0f b6 c0	 movzx	 eax, al
  00084	85 c0		 test	 eax, eax
  00086	74 08		 je	 SHORT $LN5@RegisterMa

; 499  : 			return i;

  00088	8b 45 ec	 mov	 eax, DWORD PTR _i$[ebp]
  0008b	e9 96 00 00 00	 jmp	 $LN1@RegisterMa
$LN5@RegisterMa:

; 500  : 	}

  00090	eb b6		 jmp	 SHORT $LN2@RegisterMa
$LN3@RegisterMa:

; 501  : 
; 502  : 	CGrannyMaterial* pkNewMtrl=new CGrannyMaterial;

  00092	6a 38		 push	 56			; 00000038H
  00094	e8 00 00 00 00	 call	 ??2@YAPAXI@Z		; operator new
  00099	59		 pop	 ecx
  0009a	89 45 e0	 mov	 DWORD PTR $T7[ebp], eax
  0009d	83 65 fc 00	 and	 DWORD PTR __$EHRec$[ebp+8], 0
  000a1	83 7d e0 00	 cmp	 DWORD PTR $T7[ebp], 0
  000a5	74 0d		 je	 SHORT $LN7@RegisterMa
  000a7	8b 4d e0	 mov	 ecx, DWORD PTR $T7[ebp]
  000aa	e8 00 00 00 00	 call	 ??0CGrannyMaterial@@QAE@XZ ; CGrannyMaterial::CGrannyMaterial
  000af	89 45 dc	 mov	 DWORD PTR tv91[ebp], eax
  000b2	eb 04		 jmp	 SHORT $LN8@RegisterMa
$LN7@RegisterMa:
  000b4	83 65 dc 00	 and	 DWORD PTR tv91[ebp], 0
$LN8@RegisterMa:
  000b8	8b 45 dc	 mov	 eax, DWORD PTR tv91[ebp]
  000bb	89 45 c4	 mov	 DWORD PTR $T3[ebp], eax
  000be	83 4d fc ff	 or	 DWORD PTR __$EHRec$[ebp+8], -1
  000c2	8b 45 c4	 mov	 eax, DWORD PTR $T3[ebp]
  000c5	89 45 d8	 mov	 DWORD PTR _pkNewMtrl$[ebp], eax

; 503  : 	pkNewMtrl->CreateFromGrannyMaterialPointer(pgrnMaterial);

  000c8	ff 75 08	 push	 DWORD PTR _pgrnMaterial$[ebp]
  000cb	8b 4d d8	 mov	 ecx, DWORD PTR _pkNewMtrl$[ebp]
  000ce	e8 00 00 00 00	 call	 ?CreateFromGrannyMaterialPointer@CGrannyMaterial@@QAE_NPAUgranny_material@@@Z ; CGrannyMaterial::CreateFromGrannyMaterialPointer
; File D:\Metin2 Server Files\mainline\SRC_2014\Metin2Client\eterlib\Ref.h

; 26   : 			m_pObject = NULL;

  000d3	83 65 f0 00	 and	 DWORD PTR $T9[ebp], 0

; 94   : 			m_pObject = pObject;

  000d7	8b 45 d8	 mov	 eax, DWORD PTR _pkNewMtrl$[ebp]
  000da	89 45 f0	 mov	 DWORD PTR $T9[ebp], eax

; 95   : 
; 96   : 			if (m_pObject)

  000dd	83 7d f0 00	 cmp	 DWORD PTR $T9[ebp], 0
  000e1	74 08		 je	 SHORT $LN19@RegisterMa

; 97   : 				m_pObject->AddReference();

  000e3	8b 4d f0	 mov	 ecx, DWORD PTR $T9[ebp]
  000e6	e8 00 00 00 00	 call	 ?AddReference@CReferenceObject@@QAEXXZ ; CReferenceObject::AddReference
$LN19@RegisterMa:
; File D:\Metin2 Server Files\mainline\SRC_2014\Metin2Client\eterGrnLib\Material.cpp

; 504  : 	m_mtrlVector.push_back(pkNewMtrl);

  000eb	c7 45 fc 01 00
	00 00		 mov	 DWORD PTR __$EHRec$[ebp+8], 1
; File C:\Program Files (x86)\Microsoft Visual Studio\2019\Community\VC\Tools\MSVC\14.28.29333\include\type_traits

; 1455 :     return static_cast<remove_reference_t<_Ty>&&>(_Arg);

  000f2	8d 45 f0	 lea	 eax, DWORD PTR $T9[ebp]
  000f5	89 45 c0	 mov	 DWORD PTR $T2[ebp], eax
; File C:\Program Files (x86)\Microsoft Visual Studio\2019\Community\VC\Tools\MSVC\14.28.29333\include\vector

; 721  :         emplace_back(_STD move(_Val));

  000f8	ff 75 c0	 push	 DWORD PTR $T2[ebp]
; File D:\Metin2 Server Files\mainline\SRC_2014\Metin2Client\eterGrnLib\Material.cpp

; 504  : 	m_mtrlVector.push_back(pkNewMtrl);

  000fb	8b 4d e8	 mov	 ecx, DWORD PTR _this$[ebp]
  000fe	83 c1 04	 add	 ecx, 4
; File C:\Program Files (x86)\Microsoft Visual Studio\2019\Community\VC\Tools\MSVC\14.28.29333\include\vector

; 721  :         emplace_back(_STD move(_Val));

  00101	e8 00 00 00 00	 call	 ??$emplace_back@V?$CRef@VCGrannyMaterial@@@@@?$vector@V?$CRef@VCGrannyMaterial@@@@V?$allocator@V?$CRef@VCGrannyMaterial@@@@@std@@@std@@QAEX$$QAV?$CRef@VCGrannyMaterial@@@@@Z ; std::vector<CRef<CGrannyMaterial>,std::allocator<CRef<CGrannyMaterial> > >::emplace_back<CRef<CGrannyMaterial> >
; File D:\Metin2 Server Files\mainline\SRC_2014\Metin2Client\eterlib\Ref.h

; 37   : 		{

  00106	c7 45 fc 02 00
	00 00		 mov	 DWORD PTR __$EHRec$[ebp+8], 2

; 53   : 			if (m_pObject)

  0010d	83 7d f0 00	 cmp	 DWORD PTR $T9[ebp], 0
  00111	74 0c		 je	 SHORT $LN67@RegisterMa

; 54   : 			{
; 55   : 				m_pObject->Release();

  00113	8b 4d f0	 mov	 ecx, DWORD PTR $T9[ebp]
  00116	e8 00 00 00 00	 call	 ?Release@CReferenceObject@@QAEXXZ ; CReferenceObject::Release

; 56   : 				m_pObject = NULL;

  0011b	83 65 f0 00	 and	 DWORD PTR $T9[ebp], 0
$LN67@RegisterMa:

; 39   : 		}

  0011f	83 4d fc ff	 or	 DWORD PTR __$EHRec$[ebp+8], -1
; File D:\Metin2 Server Files\mainline\SRC_2014\Metin2Client\eterGrnLib\Material.cpp

; 506  : 	return size;

  00123	8b 45 d4	 mov	 eax, DWORD PTR _size$[ebp]
$LN1@RegisterMa:

; 507  : }

  00126	8b 4d f4	 mov	 ecx, DWORD PTR __$EHRec$[ebp]
  00129	64 89 0d 00 00
	00 00		 mov	 DWORD PTR fs:0, ecx
  00130	59		 pop	 ecx
  00131	c9		 leave
  00132	c2 04 00	 ret	 4
_TEXT	ENDS
;	COMDAT text$x
text$x	SEGMENT
__unwindfunclet$?RegisterMaterial@CGrannyMaterialPalette@@QAEKPAUgranny_material@@@Z$0:
  00000	6a 38		 push	 56			; 00000038H
  00002	ff 75 e0	 push	 DWORD PTR $T7[ebp]
  00005	e8 00 00 00 00	 call	 ??3@YAXPAXI@Z		; operator delete
  0000a	59		 pop	 ecx
  0000b	59		 pop	 ecx
  0000c	c3		 ret	 0
__unwindfunclet$?RegisterMaterial@CGrannyMaterialPalette@@QAEKPAUgranny_material@@@Z$1:
  0000d	8d 4d f0	 lea	 ecx, DWORD PTR $T9[ebp]
  00010	e9 00 00 00 00	 jmp	 ??1?$CRef@VCGrannyMaterial@@@@QAE@XZ ; CRef<CGrannyMaterial>::~CRef<CGrannyMaterial>
  00015	cc		 int	 3
  00016	cc		 int	 3
  00017	cc		 int	 3
  00018	cc		 int	 3
  00019	cc		 int	 3
__ehhandler$?RegisterMaterial@CGrannyMaterialPalette@@QAEKPAUgranny_material@@@Z:
  0001a	90		 npad	 1
  0001b	90		 npad	 1
  0001c	8b 54 24 08	 mov	 edx, DWORD PTR [esp+8]
  00020	8d 42 0c	 lea	 eax, DWORD PTR [edx+12]
  00023	8b 4a c8	 mov	 ecx, DWORD PTR [edx-56]
  00026	33 c8		 xor	 ecx, eax
  00028	e8 00 00 00 00	 call	 @__security_check_cookie@4
  0002d	b8 00 00 00 00	 mov	 eax, OFFSET __ehfuncinfo$?RegisterMaterial@CGrannyMaterialPalette@@QAEKPAUgranny_material@@@Z
  00032	e9 00 00 00 00	 jmp	 ___CxxFrameHandler3
text$x	ENDS
?RegisterMaterial@CGrannyMaterialPalette@@QAEKPAUgranny_material@@@Z ENDP ; CGrannyMaterialPalette::RegisterMaterial
; Function compile flags: /Odspy
; File D:\Metin2 Server Files\mainline\SRC_2014\Metin2Client\eterGrnLib\Material.cpp
; File C:\Program Files (x86)\Microsoft Visual Studio\2019\Community\VC\Tools\MSVC\14.28.29333\include\xstddef
; File C:\Program Files (x86)\Microsoft Visual Studio\2019\Community\VC\Tools\MSVC\14.28.29333\include\vector
; File D:\Metin2 Server Files\mainline\SRC_2014\Metin2Client\eterGrnLib\Material.cpp
;	COMDAT ?Copy@CGrannyMaterialPalette@@QAEXABV1@@Z
_TEXT	SEGMENT
$T1 = -20						; size = 1
$T2 = -16						; size = 4
_this$ = -12						; size = 4
_this$ = -8						; size = 4
__Right$ = -4						; size = 4
_rkMtrlPalSrc$ = 8					; size = 4
?Copy@CGrannyMaterialPalette@@QAEXABV1@@Z PROC		; CGrannyMaterialPalette::Copy, COMDAT
; _this$ = ecx

; 394  : {

  00000	55		 push	 ebp
  00001	8b ec		 mov	 ebp, esp
  00003	83 ec 14	 sub	 esp, 20			; 00000014H
  00006	89 4d f4	 mov	 DWORD PTR _this$[ebp], ecx

; 395  : 	m_mtrlVector=rkMtrlPalSrc.m_mtrlVector;

  00009	8b 45 08	 mov	 eax, DWORD PTR _rkMtrlPalSrc$[ebp]
  0000c	83 c0 04	 add	 eax, 4
  0000f	89 45 fc	 mov	 DWORD PTR __Right$[ebp], eax
  00012	8b 45 f4	 mov	 eax, DWORD PTR _this$[ebp]
  00015	83 c0 04	 add	 eax, 4
  00018	89 45 f8	 mov	 DWORD PTR _this$[ebp], eax
; File C:\Program Files (x86)\Microsoft Visual Studio\2019\Community\VC\Tools\MSVC\14.28.29333\include\xstddef

; 275  :     return __builtin_addressof(_Val);

  0001b	8b 45 fc	 mov	 eax, DWORD PTR __Right$[ebp]
  0001e	89 45 f0	 mov	 DWORD PTR $T2[ebp], eax
; File C:\Program Files (x86)\Microsoft Visual Studio\2019\Community\VC\Tools\MSVC\14.28.29333\include\vector

; 1168 :         if (this != _STD addressof(_Right)) {

  00021	8b 45 f8	 mov	 eax, DWORD PTR _this$[ebp]
  00024	3b 45 f0	 cmp	 eax, DWORD PTR $T2[ebp]
  00027	74 13		 je	 SHORT $LN1@Copy

; 1169 :             _Copy_assign(_Right, _Choose_pocca<_Alty>{});

  00029	33 c0		 xor	 eax, eax
  0002b	88 45 ec	 mov	 BYTE PTR $T1[ebp], al
  0002e	ff 75 ec	 push	 DWORD PTR $T1[ebp]
  00031	ff 75 fc	 push	 DWORD PTR __Right$[ebp]
  00034	8b 4d f8	 mov	 ecx, DWORD PTR _this$[ebp]
  00037	e8 00 00 00 00	 call	 ?_Copy_assign@?$vector@V?$CRef@VCGrannyMaterial@@@@V?$allocator@V?$CRef@VCGrannyMaterial@@@@@std@@@std@@AAEXABV12@U?$integral_constant@_N$0A@@2@@Z ; std::vector<CRef<CGrannyMaterial>,std::allocator<CRef<CGrannyMaterial> > >::_Copy_assign
$LN1@Copy:
; File D:\Metin2 Server Files\mainline\SRC_2014\Metin2Client\eterGrnLib\Material.cpp

; 396  : }

  0003c	c9		 leave
  0003d	c2 04 00	 ret	 4
?Copy@CGrannyMaterialPalette@@QAEXABV1@@Z ENDP		; CGrannyMaterialPalette::Copy
_TEXT	ENDS
; Function compile flags: /Odspy
; File D:\Metin2 Server Files\mainline\SRC_2014\Metin2Client\eterGrnLib\Material.cpp
;	COMDAT ?Clear@CGrannyMaterialPalette@@QAEXXZ
_TEXT	SEGMENT
_this$ = -4						; size = 4
?Clear@CGrannyMaterialPalette@@QAEXXZ PROC		; CGrannyMaterialPalette::Clear, COMDAT
; _this$ = ecx

; 399  : {

  00000	55		 push	 ebp
  00001	8b ec		 mov	 ebp, esp
  00003	51		 push	 ecx
  00004	89 4d fc	 mov	 DWORD PTR _this$[ebp], ecx

; 400  : 	m_mtrlVector.clear();

  00007	8b 4d fc	 mov	 ecx, DWORD PTR _this$[ebp]
  0000a	83 c1 04	 add	 ecx, 4
  0000d	e8 00 00 00 00	 call	 ?clear@?$vector@V?$CRef@VCGrannyMaterial@@@@V?$allocator@V?$CRef@VCGrannyMaterial@@@@@std@@@std@@QAEXXZ ; std::vector<CRef<CGrannyMaterial>,std::allocator<CRef<CGrannyMaterial> > >::clear

; 401  : }

  00012	c9		 leave
  00013	c3		 ret	 0
?Clear@CGrannyMaterialPalette@@QAEXXZ ENDP		; CGrannyMaterialPalette::Clear
_TEXT	ENDS
; Function compile flags: /Odspy
; File D:\Metin2 Server Files\mainline\SRC_2014\Metin2Client\eterGrnLib\Material.cpp
; File C:\Program Files (x86)\Microsoft Visual Studio\2019\Community\VC\Tools\MSVC\14.28.29333\include\vector
; File D:\Metin2 Server Files\mainline\SRC_2014\Metin2Client\eterGrnLib\Material.cpp
;	COMDAT ??1CGrannyMaterialPalette@@UAE@XZ
_TEXT	SEGMENT
_this$ = -16						; size = 4
__$EHRec$ = -12						; size = 12
??1CGrannyMaterialPalette@@UAE@XZ PROC			; CGrannyMaterialPalette::~CGrannyMaterialPalette, COMDAT
; _this$ = ecx

; 389  : {

  00000	55		 push	 ebp
  00001	8b ec		 mov	 ebp, esp
  00003	6a ff		 push	 -1
  00005	68 00 00 00 00	 push	 __ehhandler$??1CGrannyMaterialPalette@@UAE@XZ
  0000a	64 a1 00 00 00
	00		 mov	 eax, DWORD PTR fs:0
  00010	50		 push	 eax
  00011	51		 push	 ecx
  00012	a1 00 00 00 00	 mov	 eax, DWORD PTR ___security_cookie
  00017	33 c5		 xor	 eax, ebp
  00019	50		 push	 eax
  0001a	8d 45 f4	 lea	 eax, DWORD PTR __$EHRec$[ebp]
  0001d	64 a3 00 00 00
	00		 mov	 DWORD PTR fs:0, eax
  00023	89 4d f0	 mov	 DWORD PTR _this$[ebp], ecx
  00026	8b 45 f0	 mov	 eax, DWORD PTR _this$[ebp]
  00029	c7 00 00 00 00
	00		 mov	 DWORD PTR [eax], OFFSET ??_7CGrannyMaterialPalette@@6B@

; 390  : 	Clear();

  0002f	8b 4d f0	 mov	 ecx, DWORD PTR _this$[ebp]
  00032	e8 00 00 00 00	 call	 ?Clear@CGrannyMaterialPalette@@QAEXXZ ; CGrannyMaterialPalette::Clear

; 391  : }

  00037	8b 4d f0	 mov	 ecx, DWORD PTR _this$[ebp]
  0003a	83 c1 04	 add	 ecx, 4
; File C:\Program Files (x86)\Microsoft Visual Studio\2019\Community\VC\Tools\MSVC\14.28.29333\include\vector

; 673  :         _Tidy();

  0003d	e8 00 00 00 00	 call	 ?_Tidy@?$vector@V?$CRef@VCGrannyMaterial@@@@V?$allocator@V?$CRef@VCGrannyMaterial@@@@@std@@@std@@AAEXXZ ; std::vector<CRef<CGrannyMaterial>,std::allocator<CRef<CGrannyMaterial> > >::_Tidy
; File D:\Metin2 Server Files\mainline\SRC_2014\Metin2Client\eterGrnLib\Material.cpp

; 391  : }

  00042	8b 4d f4	 mov	 ecx, DWORD PTR __$EHRec$[ebp]
  00045	64 89 0d 00 00
	00 00		 mov	 DWORD PTR fs:0, ecx
  0004c	59		 pop	 ecx
  0004d	c9		 leave
  0004e	c3		 ret	 0
  0004f	cc		 int	 3
  00050	cc		 int	 3
  00051	cc		 int	 3
  00052	cc		 int	 3
  00053	cc		 int	 3
_TEXT	ENDS
;	COMDAT text$x
text$x	SEGMENT
__ehhandler$??1CGrannyMaterialPalette@@UAE@XZ:
  00000	90		 npad	 1
  00001	90		 npad	 1
  00002	8b 54 24 08	 mov	 edx, DWORD PTR [esp+8]
  00006	8d 42 0c	 lea	 eax, DWORD PTR [edx+12]
  00009	8b 4a f8	 mov	 ecx, DWORD PTR [edx-8]
  0000c	33 c8		 xor	 ecx, eax
  0000e	e8 00 00 00 00	 call	 @__security_check_cookie@4
  00013	b8 00 00 00 00	 mov	 eax, OFFSET __ehfuncinfo$??1CGrannyMaterialPalette@@UAE@XZ
  00018	e9 00 00 00 00	 jmp	 ___CxxFrameHandler3
text$x	ENDS
??1CGrannyMaterialPalette@@UAE@XZ ENDP			; CGrannyMaterialPalette::~CGrannyMaterialPalette
; Function compile flags: /Odspy
; File D:\Metin2 Server Files\mainline\SRC_2014\Metin2Client\eterGrnLib\Material.cpp
; File C:\Program Files (x86)\Microsoft Visual Studio\2019\Community\VC\Tools\MSVC\14.28.29333\include\vector
; File C:\Program Files (x86)\Microsoft Visual Studio\2019\Community\VC\Tools\MSVC\14.28.29333\include\xmemory
; File C:\Program Files (x86)\Microsoft Visual Studio\2019\Community\VC\Tools\MSVC\14.28.29333\include\vector
; File D:\Metin2 Server Files\mainline\SRC_2014\Metin2Client\eterGrnLib\Material.cpp
;	COMDAT ??0CGrannyMaterialPalette@@QAE@XZ
_TEXT	SEGMENT
_this$ = -16						; size = 4
_this$ = -12						; size = 4
_this$ = -8						; size = 4
_this$1 = -4						; size = 4
??0CGrannyMaterialPalette@@QAE@XZ PROC			; CGrannyMaterialPalette::CGrannyMaterialPalette, COMDAT
; _this$ = ecx

; 385  : {

  00000	55		 push	 ebp
  00001	8b ec		 mov	 ebp, esp
  00003	83 ec 10	 sub	 esp, 16			; 00000010H
  00006	89 4d f8	 mov	 DWORD PTR _this$[ebp], ecx
  00009	8b 45 f8	 mov	 eax, DWORD PTR _this$[ebp]
  0000c	c7 00 00 00 00
	00		 mov	 DWORD PTR [eax], OFFSET ??_7CGrannyMaterialPalette@@6B@
  00012	8b 45 f8	 mov	 eax, DWORD PTR _this$[ebp]
  00015	83 c0 04	 add	 eax, 4
  00018	89 45 f4	 mov	 DWORD PTR _this$[ebp], eax
; File C:\Program Files (x86)\Microsoft Visual Studio\2019\Community\VC\Tools\MSVC\14.28.29333\include\vector

; 445  :     vector() noexcept(is_nothrow_default_constructible_v<_Alty>) : _Mypair(_Zero_then_variadic_args_t{}) {

  0001b	8b 45 f4	 mov	 eax, DWORD PTR _this$[ebp]
  0001e	89 45 f0	 mov	 DWORD PTR _this$[ebp], eax
; File C:\Program Files (x86)\Microsoft Visual Studio\2019\Community\VC\Tools\MSVC\14.28.29333\include\xmemory

; 1339 :         : _Ty1(), _Myval2(_STD forward<_Other2>(_Val2)...) {}

  00021	8b 45 f0	 mov	 eax, DWORD PTR _this$[ebp]
  00024	89 45 fc	 mov	 DWORD PTR _this$1[ebp], eax
; File C:\Program Files (x86)\Microsoft Visual Studio\2019\Community\VC\Tools\MSVC\14.28.29333\include\vector

; 375  :     _Vector_val() noexcept : _Myfirst(), _Mylast(), _Myend() {}

  00027	8b 45 fc	 mov	 eax, DWORD PTR _this$1[ebp]
  0002a	83 20 00	 and	 DWORD PTR [eax], 0
  0002d	8b 45 fc	 mov	 eax, DWORD PTR _this$1[ebp]
  00030	83 60 04 00	 and	 DWORD PTR [eax+4], 0
  00034	8b 45 fc	 mov	 eax, DWORD PTR _this$1[ebp]
  00037	83 60 08 00	 and	 DWORD PTR [eax+8], 0
; File D:\Metin2 Server Files\mainline\SRC_2014\Metin2Client\eterGrnLib\Material.cpp

; 386  : }

  0003b	8b 45 f8	 mov	 eax, DWORD PTR _this$[ebp]
  0003e	c9		 leave
  0003f	c3		 ret	 0
??0CGrannyMaterialPalette@@QAE@XZ ENDP			; CGrannyMaterialPalette::CGrannyMaterialPalette
_TEXT	ENDS
; Function compile flags: /Odspy
;	COMDAT ??_GCGrannyMaterial@@UAEPAXI@Z
_TEXT	SEGMENT
_this$ = -4						; size = 4
___flags$ = 8						; size = 4
??_GCGrannyMaterial@@UAEPAXI@Z PROC			; CGrannyMaterial::`scalar deleting destructor', COMDAT
; _this$ = ecx
  00000	55		 push	 ebp
  00001	8b ec		 mov	 ebp, esp
  00003	51		 push	 ecx
  00004	89 4d fc	 mov	 DWORD PTR _this$[ebp], ecx
  00007	8b 4d fc	 mov	 ecx, DWORD PTR _this$[ebp]
  0000a	e8 00 00 00 00	 call	 ??1CGrannyMaterial@@UAE@XZ ; CGrannyMaterial::~CGrannyMaterial
  0000f	8b 45 08	 mov	 eax, DWORD PTR ___flags$[ebp]
  00012	83 e0 01	 and	 eax, 1
  00015	74 0c		 je	 SHORT $LN2@scalar
  00017	6a 38		 push	 56			; 00000038H
  00019	ff 75 fc	 push	 DWORD PTR _this$[ebp]
  0001c	e8 00 00 00 00	 call	 ??3@YAXPAXI@Z		; operator delete
  00021	59		 pop	 ecx
  00022	59		 pop	 ecx
$LN2@scalar:
  00023	8b 45 fc	 mov	 eax, DWORD PTR _this$[ebp]
  00026	c9		 leave
  00027	c2 04 00	 ret	 4
??_GCGrannyMaterial@@UAEPAXI@Z ENDP			; CGrannyMaterial::`scalar deleting destructor'
_TEXT	ENDS
; Function compile flags: /Odspy
; File D:\Metin2 Server Files\mainline\SRC_2014\Metin2Client\eterGrnLib\Material.cpp
; File D:\Metin2 Server Files\mainline\SRC_2014\Metin2Client\eterBase\Singleton.h
; File D:\Metin2 Server Files\mainline\SRC_2014\Metin2Client\eterGrnLib\Material.cpp
;	COMDAT ?__RestoreSpecularRenderState@CGrannyMaterial@@IAEXXZ
_TEXT	SEGMENT
_this$ = -8						; size = 4
$T1 = -4						; size = 4
?__RestoreSpecularRenderState@CGrannyMaterial@@IAEXXZ PROC ; CGrannyMaterial::__RestoreSpecularRenderState, COMDAT
; _this$ = ecx

; 344  : {

  00000	55		 push	 ebp
  00001	8b ec		 mov	 ebp, esp
  00003	51		 push	 ecx
  00004	51		 push	 ecx
  00005	89 4d f8	 mov	 DWORD PTR _this$[ebp], ecx
; File D:\Metin2 Server Files\mainline\SRC_2014\Metin2Client\eterBase\Singleton.h

; 27   : 		return (*ms_singleton);

  00008	a1 00 00 00 00	 mov	 eax, DWORD PTR ?ms_singleton@?$CSingleton@VCStateManager@@@@0PAVCStateManager@@A ; CSingleton<CStateManager>::ms_singleton
  0000d	89 45 fc	 mov	 DWORD PTR $T1[ebp], eax
; File D:\Metin2 Server Files\mainline\SRC_2014\Metin2Client\eterGrnLib\Material.cpp

; 345  : 	if (TRUE == STATEMANAGER.GetRenderState(D3DRS_ALPHABLENDENABLE))

  00010	6a 1b		 push	 27			; 0000001bH
  00012	8b 4d fc	 mov	 ecx, DWORD PTR $T1[ebp]
  00015	e8 00 00 00 00	 call	 ?GetRenderState@CStateManager@@QAEKW4_D3DRENDERSTATETYPE@@@Z ; CStateManager::GetRenderState
  0001a	83 f8 01	 cmp	 eax, 1
  0001d	75 0d		 jne	 SHORT $LN6@RestoreSpe

; 346  : 	{
; 347  : 		__RestoreDiffuseRenderState();

  0001f	8b 4d f8	 mov	 ecx, DWORD PTR _this$[ebp]
  00022	e8 00 00 00 00	 call	 ?__RestoreDiffuseRenderState@CGrannyMaterial@@IAEXXZ ; CGrannyMaterial::__RestoreDiffuseRenderState

; 348  : 		return;

  00027	e9 b8 00 00 00	 jmp	 $LN1@RestoreSpe
$LN6@RestoreSpe:

; 349  : 	}
; 350  : 
; 351  : 	STATEMANAGER.RestoreTextureStageState(1, D3DTSS_TEXTURETRANSFORMFLAGS);

  0002c	6a 18		 push	 24			; 00000018H
  0002e	6a 01		 push	 1
  00030	8b 0d 00 00 00
	00		 mov	 ecx, DWORD PTR ?ms_singleton@?$CSingleton@VCStateManager@@@@0PAVCStateManager@@A ; CSingleton<CStateManager>::ms_singleton
  00036	e8 00 00 00 00	 call	 ?RestoreTextureStageState@CStateManager@@QAEXKW4_D3DTEXTURESTAGESTATETYPE@@@Z ; CStateManager::RestoreTextureStageState

; 352  : 	STATEMANAGER.RestoreTextureStageState(1, D3DTSS_ADDRESSU);

  0003b	6a 0d		 push	 13			; 0000000dH
  0003d	6a 01		 push	 1
  0003f	8b 0d 00 00 00
	00		 mov	 ecx, DWORD PTR ?ms_singleton@?$CSingleton@VCStateManager@@@@0PAVCStateManager@@A ; CSingleton<CStateManager>::ms_singleton
  00045	e8 00 00 00 00	 call	 ?RestoreTextureStageState@CStateManager@@QAEXKW4_D3DTEXTURESTAGESTATETYPE@@@Z ; CStateManager::RestoreTextureStageState

; 353  : 	STATEMANAGER.RestoreTextureStageState(1, D3DTSS_ADDRESSV);

  0004a	6a 0e		 push	 14			; 0000000eH
  0004c	6a 01		 push	 1
  0004e	8b 0d 00 00 00
	00		 mov	 ecx, DWORD PTR ?ms_singleton@?$CSingleton@VCStateManager@@@@0PAVCStateManager@@A ; CSingleton<CStateManager>::ms_singleton
  00054	e8 00 00 00 00	 call	 ?RestoreTextureStageState@CStateManager@@QAEXKW4_D3DTEXTURESTAGESTATETYPE@@@Z ; CStateManager::RestoreTextureStageState

; 354  : 
; 355  : 	STATEMANAGER.RestoreTextureStageState(1, D3DTSS_TEXCOORDINDEX);

  00059	6a 0b		 push	 11			; 0000000bH
  0005b	6a 01		 push	 1
  0005d	8b 0d 00 00 00
	00		 mov	 ecx, DWORD PTR ?ms_singleton@?$CSingleton@VCStateManager@@@@0PAVCStateManager@@A ; CSingleton<CStateManager>::ms_singleton
  00063	e8 00 00 00 00	 call	 ?RestoreTextureStageState@CStateManager@@QAEXKW4_D3DTEXTURESTAGESTATETYPE@@@Z ; CStateManager::RestoreTextureStageState

; 356  : 	STATEMANAGER.SetTextureStageState(1, D3DTSS_COLOROP, D3DTOP_DISABLE);

  00068	6a 01		 push	 1
  0006a	6a 01		 push	 1
  0006c	6a 01		 push	 1
  0006e	8b 0d 00 00 00
	00		 mov	 ecx, DWORD PTR ?ms_singleton@?$CSingleton@VCStateManager@@@@0PAVCStateManager@@A ; CSingleton<CStateManager>::ms_singleton
  00074	e8 00 00 00 00	 call	 ?SetTextureStageState@CStateManager@@QAEXKW4_D3DTEXTURESTAGESTATETYPE@@K@Z ; CStateManager::SetTextureStageState

; 357  : 	STATEMANAGER.SetTextureStageState(1, D3DTSS_ALPHAOP, D3DTOP_DISABLE);

  00079	6a 01		 push	 1
  0007b	6a 04		 push	 4
  0007d	6a 01		 push	 1
  0007f	8b 0d 00 00 00
	00		 mov	 ecx, DWORD PTR ?ms_singleton@?$CSingleton@VCStateManager@@@@0PAVCStateManager@@A ; CSingleton<CStateManager>::ms_singleton
  00085	e8 00 00 00 00	 call	 ?SetTextureStageState@CStateManager@@QAEXKW4_D3DTEXTURESTAGESTATETYPE@@K@Z ; CStateManager::SetTextureStageState

; 358  : 
; 359  : 	STATEMANAGER.RestoreTextureStageState(0, D3DTSS_COLORARG1);

  0008a	6a 02		 push	 2
  0008c	6a 00		 push	 0
  0008e	8b 0d 00 00 00
	00		 mov	 ecx, DWORD PTR ?ms_singleton@?$CSingleton@VCStateManager@@@@0PAVCStateManager@@A ; CSingleton<CStateManager>::ms_singleton
  00094	e8 00 00 00 00	 call	 ?RestoreTextureStageState@CStateManager@@QAEXKW4_D3DTEXTURESTAGESTATETYPE@@@Z ; CStateManager::RestoreTextureStageState

; 360  : 	STATEMANAGER.RestoreTextureStageState(0, D3DTSS_COLORARG2);

  00099	6a 03		 push	 3
  0009b	6a 00		 push	 0
  0009d	8b 0d 00 00 00
	00		 mov	 ecx, DWORD PTR ?ms_singleton@?$CSingleton@VCStateManager@@@@0PAVCStateManager@@A ; CSingleton<CStateManager>::ms_singleton
  000a3	e8 00 00 00 00	 call	 ?RestoreTextureStageState@CStateManager@@QAEXKW4_D3DTEXTURESTAGESTATETYPE@@@Z ; CStateManager::RestoreTextureStageState

; 361  : 	STATEMANAGER.RestoreTextureStageState(0, D3DTSS_COLOROP);

  000a8	6a 01		 push	 1
  000aa	6a 00		 push	 0
  000ac	8b 0d 00 00 00
	00		 mov	 ecx, DWORD PTR ?ms_singleton@?$CSingleton@VCStateManager@@@@0PAVCStateManager@@A ; CSingleton<CStateManager>::ms_singleton
  000b2	e8 00 00 00 00	 call	 ?RestoreTextureStageState@CStateManager@@QAEXKW4_D3DTEXTURESTAGESTATETYPE@@@Z ; CStateManager::RestoreTextureStageState

; 362  : 	STATEMANAGER.RestoreTextureStageState(0, D3DTSS_ALPHAARG1);

  000b7	6a 05		 push	 5
  000b9	6a 00		 push	 0
  000bb	8b 0d 00 00 00
	00		 mov	 ecx, DWORD PTR ?ms_singleton@?$CSingleton@VCStateManager@@@@0PAVCStateManager@@A ; CSingleton<CStateManager>::ms_singleton
  000c1	e8 00 00 00 00	 call	 ?RestoreTextureStageState@CStateManager@@QAEXKW4_D3DTEXTURESTAGESTATETYPE@@@Z ; CStateManager::RestoreTextureStageState

; 363  : 	STATEMANAGER.RestoreTextureStageState(0, D3DTSS_ALPHAARG2);

  000c6	6a 06		 push	 6
  000c8	6a 00		 push	 0
  000ca	8b 0d 00 00 00
	00		 mov	 ecx, DWORD PTR ?ms_singleton@?$CSingleton@VCStateManager@@@@0PAVCStateManager@@A ; CSingleton<CStateManager>::ms_singleton
  000d0	e8 00 00 00 00	 call	 ?RestoreTextureStageState@CStateManager@@QAEXKW4_D3DTEXTURESTAGESTATETYPE@@@Z ; CStateManager::RestoreTextureStageState

; 364  : 	STATEMANAGER.RestoreTextureStageState(0, D3DTSS_ALPHAOP);

  000d5	6a 04		 push	 4
  000d7	6a 00		 push	 0
  000d9	8b 0d 00 00 00
	00		 mov	 ecx, DWORD PTR ?ms_singleton@?$CSingleton@VCStateManager@@@@0PAVCStateManager@@A ; CSingleton<CStateManager>::ms_singleton
  000df	e8 00 00 00 00	 call	 ?RestoreTextureStageState@CStateManager@@QAEXKW4_D3DTEXTURESTAGESTATETYPE@@@Z ; CStateManager::RestoreTextureStageState
$LN1@RestoreSpe:

; 365  : }

  000e4	c9		 leave
  000e5	c3		 ret	 0
?__RestoreSpecularRenderState@CGrannyMaterial@@IAEXXZ ENDP ; CGrannyMaterial::__RestoreSpecularRenderState
_TEXT	ENDS
; Function compile flags: /Odspy
; File D:\Metin2 Server Files\mainline\SRC_2014\Metin2Client\eterGrnLib\Material.cpp
; File D:\Metin2 Server Files\mainline\SRC_2014\Metin2Client\eterBase\Singleton.h
; File D:\Metin2 Server Files\mainline\SRC_2014\Metin2Client\eterGrnLib\Material.cpp
; File D:\Metin2 Server Files\mainline\SRC_2014\Metin2Client\eterBase\Singleton.h
; File D:\Metin2 Server Files\mainline\SRC_2014\Metin2Client\eterGrnLib\Material.cpp
; File D:\Metin2 Server Files\mainline\SRC_2014\Metin2Client\eterBase\Singleton.h
; File D:\Metin2 Server Files\mainline\SRC_2014\Metin2Client\eterGrnLib\Material.cpp
; File D:\Metin2 Server Files\mainline\SRC_2014\M2Data\include\d3dx8math.inl
; File D:\Metin2 Server Files\mainline\SRC_2014\Metin2Client\eterGrnLib\Material.cpp
;	COMDAT ?__ApplySpecularRenderState@CGrannyMaterial@@IAEXXZ
_TEXT	SEGMENT
$T1 = -100						; size = 16
_dwB$2 = -84						; size = 4
_dwA$3 = -80						; size = 4
_dwR$4 = -76						; size = 4
_dwG$5 = -72						; size = 4
_fa$ = -68						; size = 4
_fb$ = -64						; size = 4
_fg$ = -60						; size = 4
_fr$ = -56						; size = 4
$T6 = -52						; size = 4
$T7 = -48						; size = 4
$T8 = -44						; size = 4
tv274 = -40						; size = 4
tv273 = -36						; size = 4
tv263 = -32						; size = 4
tv262 = -28						; size = 4
tv252 = -24						; size = 4
tv251 = -20						; size = 4
tv241 = -16						; size = 4
tv240 = -12						; size = 4
_pkTexture$ = -8					; size = 4
_this$ = -4						; size = 4
?__ApplySpecularRenderState@CGrannyMaterial@@IAEXXZ PROC ; CGrannyMaterial::__ApplySpecularRenderState, COMDAT
; _this$ = ecx

; 306  : {

  00000	55		 push	 ebp
  00001	8b ec		 mov	 ebp, esp
  00003	83 ec 64	 sub	 esp, 100		; 00000064H
  00006	89 4d fc	 mov	 DWORD PTR _this$[ebp], ecx
; File D:\Metin2 Server Files\mainline\SRC_2014\Metin2Client\eterBase\Singleton.h

; 27   : 		return (*ms_singleton);

  00009	a1 00 00 00 00	 mov	 eax, DWORD PTR ?ms_singleton@?$CSingleton@VCStateManager@@@@0PAVCStateManager@@A ; CSingleton<CStateManager>::ms_singleton
  0000e	89 45 d4	 mov	 DWORD PTR $T8[ebp], eax
; File D:\Metin2 Server Files\mainline\SRC_2014\Metin2Client\eterGrnLib\Material.cpp

; 307  : 	if (TRUE == STATEMANAGER.GetRenderState(D3DRS_ALPHABLENDENABLE))

  00011	6a 1b		 push	 27			; 0000001bH
  00013	8b 4d d4	 mov	 ecx, DWORD PTR $T8[ebp]
  00016	e8 00 00 00 00	 call	 ?GetRenderState@CStateManager@@QAEKW4_D3DRENDERSTATETYPE@@@Z ; CStateManager::GetRenderState
  0001b	83 f8 01	 cmp	 eax, 1
  0001e	75 0d		 jne	 SHORT $LN2@ApplySpecu

; 308  : 	{
; 309  : 		__ApplyDiffuseRenderState();

  00020	8b 4d fc	 mov	 ecx, DWORD PTR _this$[ebp]
  00023	e8 00 00 00 00	 call	 ?__ApplyDiffuseRenderState@CGrannyMaterial@@IAEXXZ ; CGrannyMaterial::__ApplyDiffuseRenderState

; 310  : 		return;

  00028	e9 38 03 00 00	 jmp	 $LN1@ApplySpecu
$LN2@ApplySpecu:

; 311  : 	}
; 312  : 
; 313  : 	CGraphicTexture* pkTexture=ms_akSphereMapInstance[m_bSphereMapIndex].GetTexturePointer();

  0002d	8b 45 fc	 mov	 eax, DWORD PTR _this$[ebp]
  00030	0f b6 48 2c	 movzx	 ecx, BYTE PTR [eax+44]
  00034	c1 e1 05	 shl	 ecx, 5
  00037	81 c1 00 00 00
	00		 add	 ecx, OFFSET ?ms_akSphereMapInstance@CGrannyMaterial@@0PAVCGraphicImageInstance@@A ; CGrannyMaterial::ms_akSphereMapInstance
  0003d	e8 00 00 00 00	 call	 ?GetTexturePointer@CGraphicImageInstance@@QAEPAVCGraphicTexture@@XZ ; CGraphicImageInstance::GetTexturePointer
  00042	89 45 f8	 mov	 DWORD PTR _pkTexture$[ebp], eax
; File D:\Metin2 Server Files\mainline\SRC_2014\Metin2Client\eterBase\Singleton.h

; 27   : 		return (*ms_singleton);

  00045	a1 00 00 00 00	 mov	 eax, DWORD PTR ?ms_singleton@?$CSingleton@VCStateManager@@@@0PAVCStateManager@@A ; CSingleton<CStateManager>::ms_singleton
  0004a	89 45 d0	 mov	 DWORD PTR $T7[ebp], eax
; File D:\Metin2 Server Files\mainline\SRC_2014\Metin2Client\eterGrnLib\Material.cpp

; 315  : 	STATEMANAGER.SetTexture(0, GetD3DTexture(0));

  0004d	6a 00		 push	 0
  0004f	8b 4d fc	 mov	 ecx, DWORD PTR _this$[ebp]
  00052	e8 00 00 00 00	 call	 ?GetD3DTexture@CGrannyMaterial@@QBEPAUIDirect3DTexture8@@H@Z ; CGrannyMaterial::GetD3DTexture
  00057	50		 push	 eax
  00058	6a 00		 push	 0
  0005a	8b 4d d0	 mov	 ecx, DWORD PTR $T7[ebp]
  0005d	e8 00 00 00 00	 call	 ?SetTexture@CStateManager@@QAEXKPAUIDirect3DBaseTexture8@@@Z ; CStateManager::SetTexture

; 316  : 
; 317  : 	if (pkTexture)

  00062	83 7d f8 00	 cmp	 DWORD PTR _pkTexture$[ebp], 0
  00066	74 1d		 je	 SHORT $LN3@ApplySpecu
; File D:\Metin2 Server Files\mainline\SRC_2014\Metin2Client\eterBase\Singleton.h

; 27   : 		return (*ms_singleton);

  00068	a1 00 00 00 00	 mov	 eax, DWORD PTR ?ms_singleton@?$CSingleton@VCStateManager@@@@0PAVCStateManager@@A ; CSingleton<CStateManager>::ms_singleton
  0006d	89 45 cc	 mov	 DWORD PTR $T6[ebp], eax
; File D:\Metin2 Server Files\mainline\SRC_2014\Metin2Client\eterGrnLib\Material.cpp

; 318  : 		STATEMANAGER.SetTexture(1, pkTexture->GetD3DTexture());

  00070	8b 4d f8	 mov	 ecx, DWORD PTR _pkTexture$[ebp]
  00073	e8 00 00 00 00	 call	 ?GetD3DTexture@CGraphicTexture@@QBEPAUIDirect3DTexture8@@XZ ; CGraphicTexture::GetD3DTexture
  00078	50		 push	 eax
  00079	6a 01		 push	 1
  0007b	8b 4d cc	 mov	 ecx, DWORD PTR $T6[ebp]
  0007e	e8 00 00 00 00	 call	 ?SetTexture@CStateManager@@QAEXKPAUIDirect3DBaseTexture8@@@Z ; CStateManager::SetTexture
  00083	eb 0f		 jmp	 SHORT $LN4@ApplySpecu
$LN3@ApplySpecu:

; 319  : 	else
; 320  : 		STATEMANAGER.SetTexture(1, NULL);

  00085	6a 00		 push	 0
  00087	6a 01		 push	 1
  00089	8b 0d 00 00 00
	00		 mov	 ecx, DWORD PTR ?ms_singleton@?$CSingleton@VCStateManager@@@@0PAVCStateManager@@A ; CSingleton<CStateManager>::ms_singleton
  0008f	e8 00 00 00 00	 call	 ?SetTexture@CStateManager@@QAEXKPAUIDirect3DBaseTexture8@@@Z ; CStateManager::SetTexture
$LN4@ApplySpecu:

; 322  : 	STATEMANAGER.SetRenderState(D3DRS_TEXTUREFACTOR, D3DXCOLOR(g_fSpecularColor.r, g_fSpecularColor.g, g_fSpecularColor.b, __GetSpecularPower()));

  00094	f3 0f 10 05 00
	00 00 00	 movss	 xmm0, DWORD PTR ?g_fSpecularColor@@3UD3DXCOLOR@@A
  0009c	f3 0f 11 45 c8	 movss	 DWORD PTR _fr$[ebp], xmm0
  000a1	f3 0f 10 05 04
	00 00 00	 movss	 xmm0, DWORD PTR ?g_fSpecularColor@@3UD3DXCOLOR@@A+4
  000a9	f3 0f 11 45 c4	 movss	 DWORD PTR _fg$[ebp], xmm0
  000ae	f3 0f 10 05 08
	00 00 00	 movss	 xmm0, DWORD PTR ?g_fSpecularColor@@3UD3DXCOLOR@@A+8
  000b6	f3 0f 11 45 c0	 movss	 DWORD PTR _fb$[ebp], xmm0
  000bb	8b 4d fc	 mov	 ecx, DWORD PTR _this$[ebp]
  000be	e8 00 00 00 00	 call	 ?__GetSpecularPower@CGrannyMaterial@@IBEMXZ ; CGrannyMaterial::__GetSpecularPower
  000c3	d9 5d bc	 fstp	 DWORD PTR _fa$[ebp]
; File D:\Metin2 Server Files\mainline\SRC_2014\M2Data\include\d3dx8math.inl

; 920  :     r = fr;

  000c6	f3 0f 10 45 c8	 movss	 xmm0, DWORD PTR _fr$[ebp]
  000cb	f3 0f 11 45 9c	 movss	 DWORD PTR $T1[ebp], xmm0

; 921  :     g = fg;

  000d0	f3 0f 10 45 c4	 movss	 xmm0, DWORD PTR _fg$[ebp]
  000d5	f3 0f 11 45 a0	 movss	 DWORD PTR $T1[ebp+4], xmm0

; 922  :     b = fb;

  000da	f3 0f 10 45 c0	 movss	 xmm0, DWORD PTR _fb$[ebp]
  000df	f3 0f 11 45 a4	 movss	 DWORD PTR $T1[ebp+8], xmm0

; 923  :     a = fa;

  000e4	f3 0f 10 45 bc	 movss	 xmm0, DWORD PTR _fa$[ebp]
  000e9	f3 0f 11 45 a8	 movss	 DWORD PTR $T1[ebp+12], xmm0

; 931  :     DWORD dwR = r >= 1.0f ? 0xff : r <= 0.0f ? 0x00 : (DWORD) (r * 255.0f + 0.5f);

  000ee	f3 0f 10 45 9c	 movss	 xmm0, DWORD PTR $T1[ebp]
  000f3	0f 2f 05 00 00
	00 00		 comiss	 xmm0, DWORD PTR __real@3f800000
  000fa	72 09		 jb	 SHORT $LN20@ApplySpecu
  000fc	c7 45 f0 ff 00
	00 00		 mov	 DWORD PTR tv241[ebp], 255 ; 000000ffH
  00103	eb 32		 jmp	 SHORT $LN21@ApplySpecu
$LN20@ApplySpecu:
  00105	0f 57 c0	 xorps	 xmm0, xmm0
  00108	0f 2f 45 9c	 comiss	 xmm0, DWORD PTR $T1[ebp]
  0010c	72 06		 jb	 SHORT $LN18@ApplySpecu
  0010e	83 65 f4 00	 and	 DWORD PTR tv240[ebp], 0
  00112	eb 1d		 jmp	 SHORT $LN19@ApplySpecu
$LN18@ApplySpecu:
  00114	f3 0f 10 45 9c	 movss	 xmm0, DWORD PTR $T1[ebp]
  00119	f3 0f 59 05 00
	00 00 00	 mulss	 xmm0, DWORD PTR __real@437f0000
  00121	f3 0f 58 05 00
	00 00 00	 addss	 xmm0, DWORD PTR __real@3f000000
  00129	e8 00 00 00 00	 call	 __ftoui3
  0012e	89 45 f4	 mov	 DWORD PTR tv240[ebp], eax
$LN19@ApplySpecu:
  00131	8b 45 f4	 mov	 eax, DWORD PTR tv240[ebp]
  00134	89 45 f0	 mov	 DWORD PTR tv241[ebp], eax
$LN21@ApplySpecu:
  00137	8b 45 f0	 mov	 eax, DWORD PTR tv241[ebp]
  0013a	89 45 b4	 mov	 DWORD PTR _dwR$4[ebp], eax

; 932  :     DWORD dwG = g >= 1.0f ? 0xff : g <= 0.0f ? 0x00 : (DWORD) (g * 255.0f + 0.5f);

  0013d	f3 0f 10 45 a0	 movss	 xmm0, DWORD PTR $T1[ebp+4]
  00142	0f 2f 05 00 00
	00 00		 comiss	 xmm0, DWORD PTR __real@3f800000
  00149	72 09		 jb	 SHORT $LN24@ApplySpecu
  0014b	c7 45 e8 ff 00
	00 00		 mov	 DWORD PTR tv252[ebp], 255 ; 000000ffH
  00152	eb 32		 jmp	 SHORT $LN25@ApplySpecu
$LN24@ApplySpecu:
  00154	0f 57 c0	 xorps	 xmm0, xmm0
  00157	0f 2f 45 a0	 comiss	 xmm0, DWORD PTR $T1[ebp+4]
  0015b	72 06		 jb	 SHORT $LN22@ApplySpecu
  0015d	83 65 ec 00	 and	 DWORD PTR tv251[ebp], 0
  00161	eb 1d		 jmp	 SHORT $LN23@ApplySpecu
$LN22@ApplySpecu:
  00163	f3 0f 10 45 a0	 movss	 xmm0, DWORD PTR $T1[ebp+4]
  00168	f3 0f 59 05 00
	00 00 00	 mulss	 xmm0, DWORD PTR __real@437f0000
  00170	f3 0f 58 05 00
	00 00 00	 addss	 xmm0, DWORD PTR __real@3f000000
  00178	e8 00 00 00 00	 call	 __ftoui3
  0017d	89 45 ec	 mov	 DWORD PTR tv251[ebp], eax
$LN23@ApplySpecu:
  00180	8b 45 ec	 mov	 eax, DWORD PTR tv251[ebp]
  00183	89 45 e8	 mov	 DWORD PTR tv252[ebp], eax
$LN25@ApplySpecu:
  00186	8b 45 e8	 mov	 eax, DWORD PTR tv252[ebp]
  00189	89 45 b8	 mov	 DWORD PTR _dwG$5[ebp], eax

; 933  :     DWORD dwB = b >= 1.0f ? 0xff : b <= 0.0f ? 0x00 : (DWORD) (b * 255.0f + 0.5f);

  0018c	f3 0f 10 45 a4	 movss	 xmm0, DWORD PTR $T1[ebp+8]
  00191	0f 2f 05 00 00
	00 00		 comiss	 xmm0, DWORD PTR __real@3f800000
  00198	72 09		 jb	 SHORT $LN28@ApplySpecu
  0019a	c7 45 e0 ff 00
	00 00		 mov	 DWORD PTR tv263[ebp], 255 ; 000000ffH
  001a1	eb 32		 jmp	 SHORT $LN29@ApplySpecu
$LN28@ApplySpecu:
  001a3	0f 57 c0	 xorps	 xmm0, xmm0
  001a6	0f 2f 45 a4	 comiss	 xmm0, DWORD PTR $T1[ebp+8]
  001aa	72 06		 jb	 SHORT $LN26@ApplySpecu
  001ac	83 65 e4 00	 and	 DWORD PTR tv262[ebp], 0
  001b0	eb 1d		 jmp	 SHORT $LN27@ApplySpecu
$LN26@ApplySpecu:
  001b2	f3 0f 10 45 a4	 movss	 xmm0, DWORD PTR $T1[ebp+8]
  001b7	f3 0f 59 05 00
	00 00 00	 mulss	 xmm0, DWORD PTR __real@437f0000
  001bf	f3 0f 58 05 00
	00 00 00	 addss	 xmm0, DWORD PTR __real@3f000000
  001c7	e8 00 00 00 00	 call	 __ftoui3
  001cc	89 45 e4	 mov	 DWORD PTR tv262[ebp], eax
$LN27@ApplySpecu:
  001cf	8b 45 e4	 mov	 eax, DWORD PTR tv262[ebp]
  001d2	89 45 e0	 mov	 DWORD PTR tv263[ebp], eax
$LN29@ApplySpecu:
  001d5	8b 45 e0	 mov	 eax, DWORD PTR tv263[ebp]
  001d8	89 45 ac	 mov	 DWORD PTR _dwB$2[ebp], eax

; 934  :     DWORD dwA = a >= 1.0f ? 0xff : a <= 0.0f ? 0x00 : (DWORD) (a * 255.0f + 0.5f);

  001db	f3 0f 10 45 a8	 movss	 xmm0, DWORD PTR $T1[ebp+12]
  001e0	0f 2f 05 00 00
	00 00		 comiss	 xmm0, DWORD PTR __real@3f800000
  001e7	72 09		 jb	 SHORT $LN32@ApplySpecu
  001e9	c7 45 d8 ff 00
	00 00		 mov	 DWORD PTR tv274[ebp], 255 ; 000000ffH
  001f0	eb 32		 jmp	 SHORT $LN33@ApplySpecu
$LN32@ApplySpecu:
  001f2	0f 57 c0	 xorps	 xmm0, xmm0
  001f5	0f 2f 45 a8	 comiss	 xmm0, DWORD PTR $T1[ebp+12]
  001f9	72 06		 jb	 SHORT $LN30@ApplySpecu
  001fb	83 65 dc 00	 and	 DWORD PTR tv273[ebp], 0
  001ff	eb 1d		 jmp	 SHORT $LN31@ApplySpecu
$LN30@ApplySpecu:
  00201	f3 0f 10 45 a8	 movss	 xmm0, DWORD PTR $T1[ebp+12]
  00206	f3 0f 59 05 00
	00 00 00	 mulss	 xmm0, DWORD PTR __real@437f0000
  0020e	f3 0f 58 05 00
	00 00 00	 addss	 xmm0, DWORD PTR __real@3f000000
  00216	e8 00 00 00 00	 call	 __ftoui3
  0021b	89 45 dc	 mov	 DWORD PTR tv273[ebp], eax
$LN31@ApplySpecu:
  0021e	8b 45 dc	 mov	 eax, DWORD PTR tv273[ebp]
  00221	89 45 d8	 mov	 DWORD PTR tv274[ebp], eax
$LN33@ApplySpecu:
  00224	8b 45 d8	 mov	 eax, DWORD PTR tv274[ebp]
  00227	89 45 b0	 mov	 DWORD PTR _dwA$3[ebp], eax

; 935  : 
; 936  :     return (dwA << 24) | (dwR << 16) | (dwG << 8) | dwB;

  0022a	8b 45 b8	 mov	 eax, DWORD PTR _dwG$5[ebp]
  0022d	c1 e0 08	 shl	 eax, 8
  00230	8b 4d b4	 mov	 ecx, DWORD PTR _dwR$4[ebp]
  00233	c1 e1 10	 shl	 ecx, 16			; 00000010H
  00236	8b 55 b0	 mov	 edx, DWORD PTR _dwA$3[ebp]
  00239	c1 e2 18	 shl	 edx, 24			; 00000018H
  0023c	0b d1		 or	 edx, ecx
  0023e	0b d0		 or	 edx, eax
  00240	0b 55 ac	 or	 edx, DWORD PTR _dwB$2[ebp]
; File D:\Metin2 Server Files\mainline\SRC_2014\Metin2Client\eterGrnLib\Material.cpp

; 322  : 	STATEMANAGER.SetRenderState(D3DRS_TEXTUREFACTOR, D3DXCOLOR(g_fSpecularColor.r, g_fSpecularColor.g, g_fSpecularColor.b, __GetSpecularPower()));

  00243	52		 push	 edx
  00244	6a 3c		 push	 60			; 0000003cH
  00246	8b 0d 00 00 00
	00		 mov	 ecx, DWORD PTR ?ms_singleton@?$CSingleton@VCStateManager@@@@0PAVCStateManager@@A ; CSingleton<CStateManager>::ms_singleton
  0024c	e8 00 00 00 00	 call	 ?SetRenderState@CStateManager@@QAEXW4_D3DRENDERSTATETYPE@@K@Z ; CStateManager::SetRenderState

; 323  : 	STATEMANAGER.SaveTextureStageState(1, D3DTSS_TEXCOORDINDEX, D3DTSS_TCI_CAMERASPACEREFLECTIONVECTOR);

  00251	68 00 00 03 00	 push	 196608			; 00030000H
  00256	6a 0b		 push	 11			; 0000000bH
  00258	6a 01		 push	 1
  0025a	8b 0d 00 00 00
	00		 mov	 ecx, DWORD PTR ?ms_singleton@?$CSingleton@VCStateManager@@@@0PAVCStateManager@@A ; CSingleton<CStateManager>::ms_singleton
  00260	e8 00 00 00 00	 call	 ?SaveTextureStageState@CStateManager@@QAEXKW4_D3DTEXTURESTAGESTATETYPE@@K@Z ; CStateManager::SaveTextureStageState

; 324  : 	STATEMANAGER.SaveTextureStageState(0, D3DTSS_COLORARG1,	D3DTA_TEXTURE);

  00265	6a 02		 push	 2
  00267	6a 02		 push	 2
  00269	6a 00		 push	 0
  0026b	8b 0d 00 00 00
	00		 mov	 ecx, DWORD PTR ?ms_singleton@?$CSingleton@VCStateManager@@@@0PAVCStateManager@@A ; CSingleton<CStateManager>::ms_singleton
  00271	e8 00 00 00 00	 call	 ?SaveTextureStageState@CStateManager@@QAEXKW4_D3DTEXTURESTAGESTATETYPE@@K@Z ; CStateManager::SaveTextureStageState

; 325  : 	STATEMANAGER.SaveTextureStageState(0, D3DTSS_COLORARG2,	D3DTA_DIFFUSE);

  00276	6a 00		 push	 0
  00278	6a 03		 push	 3
  0027a	6a 00		 push	 0
  0027c	8b 0d 00 00 00
	00		 mov	 ecx, DWORD PTR ?ms_singleton@?$CSingleton@VCStateManager@@@@0PAVCStateManager@@A ; CSingleton<CStateManager>::ms_singleton
  00282	e8 00 00 00 00	 call	 ?SaveTextureStageState@CStateManager@@QAEXKW4_D3DTEXTURESTAGESTATETYPE@@K@Z ; CStateManager::SaveTextureStageState

; 326  : 	STATEMANAGER.SaveTextureStageState(0, D3DTSS_COLOROP,	D3DTOP_MODULATE);

  00287	6a 04		 push	 4
  00289	6a 01		 push	 1
  0028b	6a 00		 push	 0
  0028d	8b 0d 00 00 00
	00		 mov	 ecx, DWORD PTR ?ms_singleton@?$CSingleton@VCStateManager@@@@0PAVCStateManager@@A ; CSingleton<CStateManager>::ms_singleton
  00293	e8 00 00 00 00	 call	 ?SaveTextureStageState@CStateManager@@QAEXKW4_D3DTEXTURESTAGESTATETYPE@@K@Z ; CStateManager::SaveTextureStageState

; 327  : 	STATEMANAGER.SaveTextureStageState(0, D3DTSS_ALPHAARG1,	D3DTA_TEXTURE);

  00298	6a 02		 push	 2
  0029a	6a 05		 push	 5
  0029c	6a 00		 push	 0
  0029e	8b 0d 00 00 00
	00		 mov	 ecx, DWORD PTR ?ms_singleton@?$CSingleton@VCStateManager@@@@0PAVCStateManager@@A ; CSingleton<CStateManager>::ms_singleton
  002a4	e8 00 00 00 00	 call	 ?SaveTextureStageState@CStateManager@@QAEXKW4_D3DTEXTURESTAGESTATETYPE@@K@Z ; CStateManager::SaveTextureStageState

; 328  : 	STATEMANAGER.SaveTextureStageState(0, D3DTSS_ALPHAARG2,	D3DTA_TFACTOR);

  002a9	6a 03		 push	 3
  002ab	6a 06		 push	 6
  002ad	6a 00		 push	 0
  002af	8b 0d 00 00 00
	00		 mov	 ecx, DWORD PTR ?ms_singleton@?$CSingleton@VCStateManager@@@@0PAVCStateManager@@A ; CSingleton<CStateManager>::ms_singleton
  002b5	e8 00 00 00 00	 call	 ?SaveTextureStageState@CStateManager@@QAEXKW4_D3DTEXTURESTAGESTATETYPE@@K@Z ; CStateManager::SaveTextureStageState

; 329  : 	STATEMANAGER.SaveTextureStageState(0, D3DTSS_ALPHAOP,	D3DTOP_MODULATE);

  002ba	6a 04		 push	 4
  002bc	6a 04		 push	 4
  002be	6a 00		 push	 0
  002c0	8b 0d 00 00 00
	00		 mov	 ecx, DWORD PTR ?ms_singleton@?$CSingleton@VCStateManager@@@@0PAVCStateManager@@A ; CSingleton<CStateManager>::ms_singleton
  002c6	e8 00 00 00 00	 call	 ?SaveTextureStageState@CStateManager@@QAEXKW4_D3DTEXTURESTAGESTATETYPE@@K@Z ; CStateManager::SaveTextureStageState

; 330  : 
; 331  : 	STATEMANAGER.SetTextureStageState(1, D3DTSS_COLORARG1,	D3DTA_CURRENT);

  002cb	6a 01		 push	 1
  002cd	6a 02		 push	 2
  002cf	6a 01		 push	 1
  002d1	8b 0d 00 00 00
	00		 mov	 ecx, DWORD PTR ?ms_singleton@?$CSingleton@VCStateManager@@@@0PAVCStateManager@@A ; CSingleton<CStateManager>::ms_singleton
  002d7	e8 00 00 00 00	 call	 ?SetTextureStageState@CStateManager@@QAEXKW4_D3DTEXTURESTAGESTATETYPE@@K@Z ; CStateManager::SetTextureStageState

; 332  : 	STATEMANAGER.SetTextureStageState(1, D3DTSS_COLORARG2,	D3DTA_TEXTURE);

  002dc	6a 02		 push	 2
  002de	6a 03		 push	 3
  002e0	6a 01		 push	 1
  002e2	8b 0d 00 00 00
	00		 mov	 ecx, DWORD PTR ?ms_singleton@?$CSingleton@VCStateManager@@@@0PAVCStateManager@@A ; CSingleton<CStateManager>::ms_singleton
  002e8	e8 00 00 00 00	 call	 ?SetTextureStageState@CStateManager@@QAEXKW4_D3DTEXTURESTAGESTATETYPE@@K@Z ; CStateManager::SetTextureStageState

; 333  : 	STATEMANAGER.SetTextureStageState(1, D3DTSS_COLOROP,	D3DTOP_MODULATEALPHA_ADDCOLOR);

  002ed	6a 12		 push	 18			; 00000012H
  002ef	6a 01		 push	 1
  002f1	6a 01		 push	 1
  002f3	8b 0d 00 00 00
	00		 mov	 ecx, DWORD PTR ?ms_singleton@?$CSingleton@VCStateManager@@@@0PAVCStateManager@@A ; CSingleton<CStateManager>::ms_singleton
  002f9	e8 00 00 00 00	 call	 ?SetTextureStageState@CStateManager@@QAEXKW4_D3DTEXTURESTAGESTATETYPE@@K@Z ; CStateManager::SetTextureStageState

; 334  : 	STATEMANAGER.SetTextureStageState(1, D3DTSS_ALPHAARG1,	D3DTA_CURRENT);

  002fe	6a 01		 push	 1
  00300	6a 05		 push	 5
  00302	6a 01		 push	 1
  00304	8b 0d 00 00 00
	00		 mov	 ecx, DWORD PTR ?ms_singleton@?$CSingleton@VCStateManager@@@@0PAVCStateManager@@A ; CSingleton<CStateManager>::ms_singleton
  0030a	e8 00 00 00 00	 call	 ?SetTextureStageState@CStateManager@@QAEXKW4_D3DTEXTURESTAGESTATETYPE@@K@Z ; CStateManager::SetTextureStageState

; 335  : 	STATEMANAGER.SetTextureStageState(1, D3DTSS_ALPHAOP,	D3DTOP_SELECTARG1);

  0030f	6a 02		 push	 2
  00311	6a 04		 push	 4
  00313	6a 01		 push	 1
  00315	8b 0d 00 00 00
	00		 mov	 ecx, DWORD PTR ?ms_singleton@?$CSingleton@VCStateManager@@@@0PAVCStateManager@@A ; CSingleton<CStateManager>::ms_singleton
  0031b	e8 00 00 00 00	 call	 ?SetTextureStageState@CStateManager@@QAEXKW4_D3DTEXTURESTAGESTATETYPE@@K@Z ; CStateManager::SetTextureStageState

; 336  : 
; 337  : 	STATEMANAGER.SetTransform(D3DTS_TEXTURE1, &ms_matSpecular);

  00320	68 00 00 00 00	 push	 OFFSET ?ms_matSpecular@CGrannyMaterial@@0UD3DXMATRIX@@A ; CGrannyMaterial::ms_matSpecular
  00325	6a 11		 push	 17			; 00000011H
  00327	8b 0d 00 00 00
	00		 mov	 ecx, DWORD PTR ?ms_singleton@?$CSingleton@VCStateManager@@@@0PAVCStateManager@@A ; CSingleton<CStateManager>::ms_singleton
  0032d	e8 00 00 00 00	 call	 ?SetTransform@CStateManager@@QAEXW4_D3DTRANSFORMSTATETYPE@@PBU_D3DMATRIX@@@Z ; CStateManager::SetTransform

; 338  : 	STATEMANAGER.SaveTextureStageState(1, D3DTSS_TEXTURETRANSFORMFLAGS, D3DTTFF_COUNT2);

  00332	6a 02		 push	 2
  00334	6a 18		 push	 24			; 00000018H
  00336	6a 01		 push	 1
  00338	8b 0d 00 00 00
	00		 mov	 ecx, DWORD PTR ?ms_singleton@?$CSingleton@VCStateManager@@@@0PAVCStateManager@@A ; CSingleton<CStateManager>::ms_singleton
  0033e	e8 00 00 00 00	 call	 ?SaveTextureStageState@CStateManager@@QAEXKW4_D3DTEXTURESTAGESTATETYPE@@K@Z ; CStateManager::SaveTextureStageState

; 339  : 	STATEMANAGER.SaveTextureStageState(1, D3DTSS_ADDRESSU, D3DTADDRESS_WRAP);

  00343	6a 01		 push	 1
  00345	6a 0d		 push	 13			; 0000000dH
  00347	6a 01		 push	 1
  00349	8b 0d 00 00 00
	00		 mov	 ecx, DWORD PTR ?ms_singleton@?$CSingleton@VCStateManager@@@@0PAVCStateManager@@A ; CSingleton<CStateManager>::ms_singleton
  0034f	e8 00 00 00 00	 call	 ?SaveTextureStageState@CStateManager@@QAEXKW4_D3DTEXTURESTAGESTATETYPE@@K@Z ; CStateManager::SaveTextureStageState

; 340  : 	STATEMANAGER.SaveTextureStageState(1, D3DTSS_ADDRESSV, D3DTADDRESS_WRAP);

  00354	6a 01		 push	 1
  00356	6a 0e		 push	 14			; 0000000eH
  00358	6a 01		 push	 1
  0035a	8b 0d 00 00 00
	00		 mov	 ecx, DWORD PTR ?ms_singleton@?$CSingleton@VCStateManager@@@@0PAVCStateManager@@A ; CSingleton<CStateManager>::ms_singleton
  00360	e8 00 00 00 00	 call	 ?SaveTextureStageState@CStateManager@@QAEXKW4_D3DTEXTURESTAGESTATETYPE@@K@Z ; CStateManager::SaveTextureStageState
$LN1@ApplySpecu:

; 341  : }

  00365	c9		 leave
  00366	c3		 ret	 0
?__ApplySpecularRenderState@CGrannyMaterial@@IAEXXZ ENDP ; CGrannyMaterial::__ApplySpecularRenderState
_TEXT	ENDS
; Function compile flags: /Odspy
; File D:\Metin2 Server Files\mainline\SRC_2014\Metin2Client\eterGrnLib\Material.cpp
;	COMDAT ?__RestoreDiffuseRenderState@CGrannyMaterial@@IAEXXZ
_TEXT	SEGMENT
_this$ = -4						; size = 4
?__RestoreDiffuseRenderState@CGrannyMaterial@@IAEXXZ PROC ; CGrannyMaterial::__RestoreDiffuseRenderState, COMDAT
; _this$ = ecx

; 298  : {

  00000	55		 push	 ebp
  00001	8b ec		 mov	 ebp, esp
  00003	51		 push	 ecx
  00004	89 4d fc	 mov	 DWORD PTR _this$[ebp], ecx

; 299  : 	if (m_bTwoSideRender)

  00007	8b 45 fc	 mov	 eax, DWORD PTR _this$[ebp]
  0000a	0f b6 40 24	 movzx	 eax, BYTE PTR [eax+36]
  0000e	85 c0		 test	 eax, eax
  00010	74 13		 je	 SHORT $LN1@RestoreDif

; 300  : 	{
; 301  : 		STATEMANAGER.SetRenderState(D3DRS_CULLMODE, m_dwLastCullRenderStateForTwoSideRendering);

  00012	8b 45 fc	 mov	 eax, DWORD PTR _this$[ebp]
  00015	ff 70 28	 push	 DWORD PTR [eax+40]
  00018	6a 16		 push	 22			; 00000016H
  0001a	8b 0d 00 00 00
	00		 mov	 ecx, DWORD PTR ?ms_singleton@?$CSingleton@VCStateManager@@@@0PAVCStateManager@@A ; CSingleton<CStateManager>::ms_singleton
  00020	e8 00 00 00 00	 call	 ?SetRenderState@CStateManager@@QAEXW4_D3DRENDERSTATETYPE@@K@Z ; CStateManager::SetRenderState
$LN1@RestoreDif:

; 302  : 	}
; 303  : }

  00025	c9		 leave
  00026	c3		 ret	 0
?__RestoreDiffuseRenderState@CGrannyMaterial@@IAEXXZ ENDP ; CGrannyMaterial::__RestoreDiffuseRenderState
_TEXT	ENDS
; Function compile flags: /Odspy
; File D:\Metin2 Server Files\mainline\SRC_2014\Metin2Client\eterGrnLib\Material.cpp
; File D:\Metin2 Server Files\mainline\SRC_2014\Metin2Client\eterBase\Singleton.h
; File D:\Metin2 Server Files\mainline\SRC_2014\Metin2Client\eterGrnLib\Material.cpp
; File D:\Metin2 Server Files\mainline\SRC_2014\Metin2Client\eterBase\Singleton.h
; File D:\Metin2 Server Files\mainline\SRC_2014\Metin2Client\eterGrnLib\Material.cpp
;	COMDAT ?__ApplyDiffuseRenderState@CGrannyMaterial@@IAEXXZ
_TEXT	SEGMENT
$T1 = -12						; size = 4
$T2 = -8						; size = 4
_this$ = -4						; size = 4
?__ApplyDiffuseRenderState@CGrannyMaterial@@IAEXXZ PROC	; CGrannyMaterial::__ApplyDiffuseRenderState, COMDAT
; _this$ = ecx

; 286  : {

  00000	55		 push	 ebp
  00001	8b ec		 mov	 ebp, esp
  00003	83 ec 0c	 sub	 esp, 12			; 0000000cH
  00006	89 4d fc	 mov	 DWORD PTR _this$[ebp], ecx
; File D:\Metin2 Server Files\mainline\SRC_2014\Metin2Client\eterBase\Singleton.h

; 27   : 		return (*ms_singleton);

  00009	a1 00 00 00 00	 mov	 eax, DWORD PTR ?ms_singleton@?$CSingleton@VCStateManager@@@@0PAVCStateManager@@A ; CSingleton<CStateManager>::ms_singleton
  0000e	89 45 f8	 mov	 DWORD PTR $T2[ebp], eax
; File D:\Metin2 Server Files\mainline\SRC_2014\Metin2Client\eterGrnLib\Material.cpp

; 287  : 	STATEMANAGER.SetTexture(0, GetD3DTexture(0));

  00011	6a 00		 push	 0
  00013	8b 4d fc	 mov	 ecx, DWORD PTR _this$[ebp]
  00016	e8 00 00 00 00	 call	 ?GetD3DTexture@CGrannyMaterial@@QBEPAUIDirect3DTexture8@@H@Z ; CGrannyMaterial::GetD3DTexture
  0001b	50		 push	 eax
  0001c	6a 00		 push	 0
  0001e	8b 4d f8	 mov	 ecx, DWORD PTR $T2[ebp]
  00021	e8 00 00 00 00	 call	 ?SetTexture@CStateManager@@QAEXKPAUIDirect3DBaseTexture8@@@Z ; CStateManager::SetTexture

; 288  : 
; 289  : 	if (m_bTwoSideRender)

  00026	8b 45 fc	 mov	 eax, DWORD PTR _this$[ebp]
  00029	0f b6 40 24	 movzx	 eax, BYTE PTR [eax+36]
  0002d	85 c0		 test	 eax, eax
  0002f	74 27		 je	 SHORT $LN1@ApplyDiffu
; File D:\Metin2 Server Files\mainline\SRC_2014\Metin2Client\eterBase\Singleton.h

; 27   : 		return (*ms_singleton);

  00031	a1 00 00 00 00	 mov	 eax, DWORD PTR ?ms_singleton@?$CSingleton@VCStateManager@@@@0PAVCStateManager@@A ; CSingleton<CStateManager>::ms_singleton
  00036	89 45 f4	 mov	 DWORD PTR $T1[ebp], eax
; File D:\Metin2 Server Files\mainline\SRC_2014\Metin2Client\eterGrnLib\Material.cpp

; 292  : 		m_dwLastCullRenderStateForTwoSideRendering = STATEMANAGER.GetRenderState(D3DRS_CULLMODE);

  00039	6a 16		 push	 22			; 00000016H
  0003b	8b 4d f4	 mov	 ecx, DWORD PTR $T1[ebp]
  0003e	e8 00 00 00 00	 call	 ?GetRenderState@CStateManager@@QAEKW4_D3DRENDERSTATETYPE@@@Z ; CStateManager::GetRenderState
  00043	8b 4d fc	 mov	 ecx, DWORD PTR _this$[ebp]
  00046	89 41 28	 mov	 DWORD PTR [ecx+40], eax

; 293  : 		STATEMANAGER.SetRenderState(D3DRS_CULLMODE, D3DCULL_NONE);

  00049	6a 01		 push	 1
  0004b	6a 16		 push	 22			; 00000016H
  0004d	8b 0d 00 00 00
	00		 mov	 ecx, DWORD PTR ?ms_singleton@?$CSingleton@VCStateManager@@@@0PAVCStateManager@@A ; CSingleton<CStateManager>::ms_singleton
  00053	e8 00 00 00 00	 call	 ?SetRenderState@CStateManager@@QAEXW4_D3DRENDERSTATETYPE@@K@Z ; CStateManager::SetRenderState
$LN1@ApplyDiffu:

; 294  : 	}
; 295  : }

  00058	c9		 leave
  00059	c3		 ret	 0
?__ApplyDiffuseRenderState@CGrannyMaterial@@IAEXXZ ENDP	; CGrannyMaterial::__ApplyDiffuseRenderState
_TEXT	ENDS
; Function compile flags: /Odspy
; File D:\Metin2 Server Files\mainline\SRC_2014\Metin2Client\eterGrnLib\Material.cpp
;	COMDAT ?__GetSpecularPower@CGrannyMaterial@@IBEMXZ
_TEXT	SEGMENT
_this$ = -4						; size = 4
?__GetSpecularPower@CGrannyMaterial@@IBEMXZ PROC	; CGrannyMaterial::__GetSpecularPower, COMDAT
; _this$ = ecx

; 187  : {

  00000	55		 push	 ebp
  00001	8b ec		 mov	 ebp, esp
  00003	51		 push	 ecx
  00004	89 4d fc	 mov	 DWORD PTR _this$[ebp], ecx

; 188  : 	return m_fSpecularPower;

  00007	8b 45 fc	 mov	 eax, DWORD PTR _this$[ebp]
  0000a	d9 40 1c	 fld	 DWORD PTR [eax+28]

; 189  : }

  0000d	c9		 leave
  0000e	c3		 ret	 0
?__GetSpecularPower@CGrannyMaterial@@IBEMXZ ENDP	; CGrannyMaterial::__GetSpecularPower
_TEXT	ENDS
; Function compile flags: /Odspy
; File D:\Metin2 Server Files\mainline\SRC_2014\Metin2Client\eterGrnLib\Material.cpp
;	COMDAT ?__IsSpecularEnable@CGrannyMaterial@@IBEHXZ
_TEXT	SEGMENT
_this$ = -4						; size = 4
?__IsSpecularEnable@CGrannyMaterial@@IBEHXZ PROC	; CGrannyMaterial::__IsSpecularEnable, COMDAT
; _this$ = ecx

; 182  : {

  00000	55		 push	 ebp
  00001	8b ec		 mov	 ebp, esp
  00003	51		 push	 ecx
  00004	89 4d fc	 mov	 DWORD PTR _this$[ebp], ecx

; 183  : 	return m_bSpecularEnable;

  00007	8b 45 fc	 mov	 eax, DWORD PTR _this$[ebp]
  0000a	8b 40 20	 mov	 eax, DWORD PTR [eax+32]

; 184  : }

  0000d	c9		 leave
  0000e	c3		 ret	 0
?__IsSpecularEnable@CGrannyMaterial@@IBEHXZ ENDP	; CGrannyMaterial::__IsSpecularEnable
_TEXT	ENDS
; Function compile flags: /Odspy
; File D:\Metin2 Server Files\mainline\SRC_2014\Metin2Client\eterGrnLib\Material.cpp
; File C:\Program Files (x86)\Microsoft Visual Studio\2019\Community\VC\Tools\MSVC\14.28.29333\include\xstring
; File D:\Metin2 Server Files\mainline\SRC_2014\Metin2Client\eterGrnLib\Material.cpp
;	COMDAT ?__GetImagePointer@CGrannyMaterial@@IAEPAVCGraphicImage@@PBD@Z
_TEXT	SEGMENT
_this$ = -128						; size = 4
_pResource$ = -124					; size = 4
_pResource$1 = -120					; size = 4
_localFileName_len$2 = -116				; size = 4
$T3 = -112						; size = 4
_modelLocalPath$4 = -108				; size = 4
_rkResMgr$ = -104					; size = 4
_fileName_len$ = -100					; size = 4
_localFileName$5 = -96					; size = 256
__$ArrayPad$ = 160					; size = 4
_fileName$ = 172					; size = 4
?__GetImagePointer@CGrannyMaterial@@IAEPAVCGraphicImage@@PBD@Z PROC ; CGrannyMaterial::__GetImagePointer, COMDAT
; _this$ = ecx

; 194  : {

  00000	55		 push	 ebp
  00001	8d ac 24 5c ff
	ff ff		 lea	 ebp, DWORD PTR [esp-164]
  00008	81 ec 24 01 00
	00		 sub	 esp, 292		; 00000124H
  0000e	a1 00 00 00 00	 mov	 eax, DWORD PTR ___security_cookie
  00013	33 c5		 xor	 eax, ebp
  00015	89 85 a0 00 00
	00		 mov	 DWORD PTR __$ArrayPad$[ebp], eax
  0001b	89 4d 80	 mov	 DWORD PTR _this$[ebp], ecx

; 195  : 	assert(*fileName != '\0');
; 196  : 
; 197  : 	CResourceManager& rkResMgr = CResourceManager::Instance();

  0001e	a1 00 00 00 00	 mov	 eax, DWORD PTR ?ms_singleton@?$CSingleton@VCResourceManager@@@@0PAVCResourceManager@@A ; CSingleton<CResourceManager>::ms_singleton
  00023	89 45 98	 mov	 DWORD PTR _rkResMgr$[ebp], eax

; 198  : 
; 199  : 	// SUPPORT_LOCAL_TEXTURE
; 200  : 	int fileName_len = strlen(fileName);

  00026	ff b5 ac 00 00
	00		 push	 DWORD PTR _fileName$[ebp]
  0002c	e8 00 00 00 00	 call	 _strlen
  00031	59		 pop	 ecx
  00032	89 45 9c	 mov	 DWORD PTR _fileName_len$[ebp], eax

; 201  : 	if (fileName_len > 2 && fileName[1] != ':')

  00035	83 7d 9c 02	 cmp	 DWORD PTR _fileName_len$[ebp], 2
  00039	7e 79		 jle	 SHORT $LN2@GetImagePo
  0003b	33 c0		 xor	 eax, eax
  0003d	40		 inc	 eax
  0003e	c1 e0 00	 shl	 eax, 0
  00041	8b 8d ac 00 00
	00		 mov	 ecx, DWORD PTR _fileName$[ebp]
  00047	0f be 04 01	 movsx	 eax, BYTE PTR [ecx+eax]
  0004b	83 f8 3a	 cmp	 eax, 58			; 0000003aH
  0004e	74 64		 je	 SHORT $LN2@GetImagePo

; 202  : 	{
; 203  : 		char localFileName[256];		
; 204  : 		const std::string& modelLocalPath = GetModelLocalPath();

  00050	e8 00 00 00 00	 call	 ?GetModelLocalPath@@YAABV?$basic_string@DU?$char_traits@D@std@@V?$allocator@D@2@@std@@XZ ; GetModelLocalPath
  00055	89 45 94	 mov	 DWORD PTR _modelLocalPath$4[ebp], eax
; File C:\Program Files (x86)\Microsoft Visual Studio\2019\Community\VC\Tools\MSVC\14.28.29333\include\xstring

; 3766 :         return _Mypair._Myval2._Mysize;

  00058	8b 45 94	 mov	 eax, DWORD PTR _modelLocalPath$4[ebp]
  0005b	8b 40 10	 mov	 eax, DWORD PTR [eax+16]
  0005e	89 45 90	 mov	 DWORD PTR $T3[ebp], eax
; File D:\Metin2 Server Files\mainline\SRC_2014\Metin2Client\eterGrnLib\Material.cpp

; 206  : 		int localFileName_len = modelLocalPath.length() + 1 + fileName_len;

  00061	8b 45 9c	 mov	 eax, DWORD PTR _fileName_len$[ebp]
  00064	8b 4d 90	 mov	 ecx, DWORD PTR $T3[ebp]
  00067	8d 44 01 01	 lea	 eax, DWORD PTR [ecx+eax+1]
  0006b	89 45 8c	 mov	 DWORD PTR _localFileName_len$2[ebp], eax

; 207  : 		if (localFileName_len < sizeof(localFileName) - 1)

  0006e	81 7d 8c ff 00
	00 00		 cmp	 DWORD PTR _localFileName_len$2[ebp], 255 ; 000000ffH
  00075	73 3d		 jae	 SHORT $LN2@GetImagePo

; 208  : 		{
; 209  : 			_snprintf(localFileName, sizeof(localFileName), "%s%s", GetModelLocalPath().c_str(), fileName);

  00077	ff b5 ac 00 00
	00		 push	 DWORD PTR _fileName$[ebp]
  0007d	e8 00 00 00 00	 call	 ?GetModelLocalPath@@YAABV?$basic_string@DU?$char_traits@D@std@@V?$allocator@D@2@@std@@XZ ; GetModelLocalPath
  00082	8b c8		 mov	 ecx, eax
  00084	e8 00 00 00 00	 call	 ?c_str@?$basic_string@DU?$char_traits@D@std@@V?$allocator@D@2@@std@@QBEPBDXZ ; std::basic_string<char,std::char_traits<char>,std::allocator<char> >::c_str
  00089	50		 push	 eax
  0008a	68 00 00 00 00	 push	 OFFSET ??_C@_04HDOCAJNK@?$CFs?$CFs@
  0008f	68 00 01 00 00	 push	 256			; 00000100H
  00094	8d 45 a0	 lea	 eax, DWORD PTR _localFileName$5[ebp]
  00097	50		 push	 eax
  00098	e8 00 00 00 00	 call	 __snprintf
  0009d	83 c4 14	 add	 esp, 20			; 00000014H

; 210  : 			CResource* pResource = rkResMgr.GetResourcePointer(localFileName);

  000a0	8d 45 a0	 lea	 eax, DWORD PTR _localFileName$5[ebp]
  000a3	50		 push	 eax
  000a4	8b 4d 98	 mov	 ecx, DWORD PTR _rkResMgr$[ebp]
  000a7	e8 00 00 00 00	 call	 ?GetResourcePointer@CResourceManager@@QAEPAVCResource@@PBD@Z ; CResourceManager::GetResourcePointer
  000ac	89 45 88	 mov	 DWORD PTR _pResource$1[ebp], eax

; 211  : 			return static_cast<CGraphicImage*>(pResource);

  000af	8b 45 88	 mov	 eax, DWORD PTR _pResource$1[ebp]
  000b2	eb 14		 jmp	 SHORT $LN1@GetImagePo
$LN2@GetImagePo:

; 212  : 		}		
; 213  : 	}
; 214  : 	// END_OF_SUPPORT_LOCAL_TEXTURE
; 215  : 	
; 216  : 
; 217  : 	CResource* pResource = rkResMgr.GetResourcePointer(fileName);

  000b4	ff b5 ac 00 00
	00		 push	 DWORD PTR _fileName$[ebp]
  000ba	8b 4d 98	 mov	 ecx, DWORD PTR _rkResMgr$[ebp]
  000bd	e8 00 00 00 00	 call	 ?GetResourcePointer@CResourceManager@@QAEPAVCResource@@PBD@Z ; CResourceManager::GetResourcePointer
  000c2	89 45 84	 mov	 DWORD PTR _pResource$[ebp], eax

; 218  : 	return static_cast<CGraphicImage*>(pResource);

  000c5	8b 45 84	 mov	 eax, DWORD PTR _pResource$[ebp]
$LN1@GetImagePo:

; 219  : }

  000c8	8b 8d a0 00 00
	00		 mov	 ecx, DWORD PTR __$ArrayPad$[ebp]
  000ce	33 cd		 xor	 ecx, ebp
  000d0	e8 00 00 00 00	 call	 @__security_check_cookie@4
  000d5	81 c5 a4 00 00
	00		 add	 ebp, 164		; 000000a4H
  000db	c9		 leave
  000dc	c2 04 00	 ret	 4
?__GetImagePointer@CGrannyMaterial@@IAEPAVCGraphicImage@@PBD@Z ENDP ; CGrannyMaterial::__GetImagePointer
_TEXT	ENDS
; Function compile flags: /Odspy
; File D:\Metin2 Server Files\mainline\SRC_2014\Metin2Client\eterGrnLib\Material.cpp
; File D:\Metin2 Server Files\mainline\SRC_2014\Metin2Client\eterlib\Ref.h
; File D:\Metin2 Server Files\mainline\SRC_2014\Metin2Client\eterGrnLib\Material.cpp
; File D:\Metin2 Server Files\mainline\SRC_2014\Metin2Client\eterlib\Ref.h
; File D:\Metin2 Server Files\mainline\SRC_2014\Metin2Client\eterGrnLib\Material.cpp
;	COMDAT ?GetD3DTexture@CGrannyMaterial@@QBEPAUIDirect3DTexture8@@H@Z
_TEXT	SEGMENT
_pTexture$ = -20					; size = 4
_pImage$ = -16						; size = 4
_this$ = -12						; size = 4
_ratImage$ = -8						; size = 4
tv79 = -1						; size = 1
_iStage$ = 8						; size = 4
?GetD3DTexture@CGrannyMaterial@@QBEPAUIDirect3DTexture8@@H@Z PROC ; CGrannyMaterial::GetD3DTexture, COMDAT
; _this$ = ecx

; 143  : {

  00000	55		 push	 ebp
  00001	8b ec		 mov	 ebp, esp
  00003	83 ec 14	 sub	 esp, 20			; 00000014H
  00006	89 4d f4	 mov	 DWORD PTR _this$[ebp], ecx

; 144  : 	const CGraphicImage::TRef & ratImage = m_roImage[iStage];

  00009	8b 45 08	 mov	 eax, DWORD PTR _iStage$[ebp]
  0000c	8b 4d f4	 mov	 ecx, DWORD PTR _this$[ebp]
  0000f	8d 44 81 10	 lea	 eax, DWORD PTR [ecx+eax*4+16]
  00013	89 45 f8	 mov	 DWORD PTR _ratImage$[ebp], eax
; File D:\Metin2 Server Files\mainline\SRC_2014\Metin2Client\eterlib\Ref.h

; 62   : 			return m_pObject == NULL ? true : false;

  00016	8b 45 f8	 mov	 eax, DWORD PTR _ratImage$[ebp]
  00019	83 38 00	 cmp	 DWORD PTR [eax], 0
  0001c	75 06		 jne	 SHORT $LN6@GetD3DText
  0001e	c6 45 ff 01	 mov	 BYTE PTR tv79[ebp], 1
  00022	eb 04		 jmp	 SHORT $LN4@GetD3DText
$LN6@GetD3DText:
  00024	c6 45 ff 00	 mov	 BYTE PTR tv79[ebp], 0
$LN4@GetD3DText:
; File D:\Metin2 Server Files\mainline\SRC_2014\Metin2Client\eterGrnLib\Material.cpp

; 146  : 	if (ratImage.IsNull())

  00028	0f b6 45 ff	 movzx	 eax, BYTE PTR tv79[ebp]
  0002c	85 c0		 test	 eax, eax
  0002e	74 04		 je	 SHORT $LN2@GetD3DText

; 147  : 		return NULL;

  00030	33 c0		 xor	 eax, eax
  00032	eb 1b		 jmp	 SHORT $LN1@GetD3DText
$LN2@GetD3DText:
; File D:\Metin2 Server Files\mainline\SRC_2014\Metin2Client\eterlib\Ref.h

; 80   : 			return static_cast<T*>(m_pObject);

  00034	8b 45 f8	 mov	 eax, DWORD PTR _ratImage$[ebp]
  00037	8b 00		 mov	 eax, DWORD PTR [eax]
  00039	89 45 f0	 mov	 DWORD PTR _pImage$[ebp], eax
; File D:\Metin2 Server Files\mainline\SRC_2014\Metin2Client\eterGrnLib\Material.cpp

; 150  : 	const CGraphicTexture * pTexture = pImage->GetTexturePointer();

  0003c	8b 4d f0	 mov	 ecx, DWORD PTR _pImage$[ebp]
  0003f	e8 00 00 00 00	 call	 ?GetTexturePointer@CGraphicImage@@QAEPAVCGraphicTexture@@XZ ; CGraphicImage::GetTexturePointer
  00044	89 45 ec	 mov	 DWORD PTR _pTexture$[ebp], eax

; 151  : 	return pTexture->GetD3DTexture();

  00047	8b 4d ec	 mov	 ecx, DWORD PTR _pTexture$[ebp]
  0004a	e8 00 00 00 00	 call	 ?GetD3DTexture@CGraphicTexture@@QBEPAUIDirect3DTexture8@@XZ ; CGraphicTexture::GetD3DTexture
$LN1@GetD3DText:

; 152  : }

  0004f	c9		 leave
  00050	c2 04 00	 ret	 4
?GetD3DTexture@CGrannyMaterial@@QBEPAUIDirect3DTexture8@@H@Z ENDP ; CGrannyMaterial::GetD3DTexture
_TEXT	ENDS
; Function compile flags: /Odspy
; File D:\Metin2 Server Files\mainline\SRC_2014\Metin2Client\eterGrnLib\Material.cpp
; File D:\Metin2 Server Files\mainline\SRC_2014\Metin2Client\eterlib\Ref.h
; File D:\Metin2 Server Files\mainline\SRC_2014\Metin2Client\eterGrnLib\Material.cpp
; File D:\Metin2 Server Files\mainline\SRC_2014\Metin2Client\eterlib\Ref.h
; File D:\Metin2 Server Files\mainline\SRC_2014\Metin2Client\eterGrnLib\Material.cpp
;	COMDAT ?GetOpacityTexture@CGrannyMaterial@@QBEPBVCGraphicTexture@@XZ
_TEXT	SEGMENT
$T1 = -12						; size = 4
_this$ = -8						; size = 4
tv80 = -1						; size = 1
?GetOpacityTexture@CGrannyMaterial@@QBEPBVCGraphicTexture@@XZ PROC ; CGrannyMaterial::GetOpacityTexture, COMDAT
; _this$ = ecx

; 174  : {

  00000	55		 push	 ebp
  00001	8b ec		 mov	 ebp, esp
  00003	83 ec 0c	 sub	 esp, 12			; 0000000cH
  00006	89 4d f8	 mov	 DWORD PTR _this$[ebp], ecx

; 175  : 	if (m_roImage[1].IsNull())

  00009	6a 04		 push	 4
  0000b	58		 pop	 eax
  0000c	c1 e0 00	 shl	 eax, 0
; File D:\Metin2 Server Files\mainline\SRC_2014\Metin2Client\eterlib\Ref.h

; 62   : 			return m_pObject == NULL ? true : false;

  0000f	8b 4d f8	 mov	 ecx, DWORD PTR _this$[ebp]
  00012	83 7c 01 10 00	 cmp	 DWORD PTR [ecx+eax+16], 0
  00017	75 06		 jne	 SHORT $LN6@GetOpacity
  00019	c6 45 ff 01	 mov	 BYTE PTR tv80[ebp], 1
  0001d	eb 04		 jmp	 SHORT $LN4@GetOpacity
$LN6@GetOpacity:
  0001f	c6 45 ff 00	 mov	 BYTE PTR tv80[ebp], 0
$LN4@GetOpacity:
; File D:\Metin2 Server Files\mainline\SRC_2014\Metin2Client\eterGrnLib\Material.cpp

; 175  : 	if (m_roImage[1].IsNull())

  00023	0f b6 45 ff	 movzx	 eax, BYTE PTR tv80[ebp]
  00027	85 c0		 test	 eax, eax
  00029	74 04		 je	 SHORT $LN2@GetOpacity

; 176  : 		return NULL;

  0002b	33 c0		 xor	 eax, eax
  0002d	eb 18		 jmp	 SHORT $LN1@GetOpacity
$LN2@GetOpacity:

; 178  : 	return m_roImage[1].GetPointer()->GetTexturePointer();

  0002f	6a 04		 push	 4
  00031	58		 pop	 eax
  00032	c1 e0 00	 shl	 eax, 0
; File D:\Metin2 Server Files\mainline\SRC_2014\Metin2Client\eterlib\Ref.h

; 80   : 			return static_cast<T*>(m_pObject);

  00035	8b 4d f8	 mov	 ecx, DWORD PTR _this$[ebp]
  00038	8b 44 01 10	 mov	 eax, DWORD PTR [ecx+eax+16]
  0003c	89 45 f4	 mov	 DWORD PTR $T1[ebp], eax
; File D:\Metin2 Server Files\mainline\SRC_2014\Metin2Client\eterGrnLib\Material.cpp

; 178  : 	return m_roImage[1].GetPointer()->GetTexturePointer();

  0003f	8b 4d f4	 mov	 ecx, DWORD PTR $T1[ebp]
  00042	e8 00 00 00 00	 call	 ?GetTexturePointer@CGraphicImage@@QAEPAVCGraphicTexture@@XZ ; CGraphicImage::GetTexturePointer
$LN1@GetOpacity:

; 179  : }

  00047	c9		 leave
  00048	c3		 ret	 0
?GetOpacityTexture@CGrannyMaterial@@QBEPBVCGraphicTexture@@XZ ENDP ; CGrannyMaterial::GetOpacityTexture
_TEXT	ENDS
; Function compile flags: /Odspy
; File D:\Metin2 Server Files\mainline\SRC_2014\Metin2Client\eterGrnLib\Material.cpp
; File D:\Metin2 Server Files\mainline\SRC_2014\Metin2Client\eterlib\Ref.h
; File D:\Metin2 Server Files\mainline\SRC_2014\Metin2Client\eterGrnLib\Material.cpp
; File D:\Metin2 Server Files\mainline\SRC_2014\Metin2Client\eterlib\Ref.h
; File D:\Metin2 Server Files\mainline\SRC_2014\Metin2Client\eterGrnLib\Material.cpp
;	COMDAT ?GetDiffuseTexture@CGrannyMaterial@@QBEPBVCGraphicTexture@@XZ
_TEXT	SEGMENT
$T1 = -12						; size = 4
_this$ = -8						; size = 4
tv80 = -1						; size = 1
?GetDiffuseTexture@CGrannyMaterial@@QBEPBVCGraphicTexture@@XZ PROC ; CGrannyMaterial::GetDiffuseTexture, COMDAT
; _this$ = ecx

; 166  : {

  00000	55		 push	 ebp
  00001	8b ec		 mov	 ebp, esp
  00003	83 ec 0c	 sub	 esp, 12			; 0000000cH
  00006	89 4d f8	 mov	 DWORD PTR _this$[ebp], ecx

; 167  : 	if (m_roImage[0].IsNull())

  00009	6a 04		 push	 4
  0000b	58		 pop	 eax
  0000c	6b c0 00	 imul	 eax, eax, 0
; File D:\Metin2 Server Files\mainline\SRC_2014\Metin2Client\eterlib\Ref.h

; 62   : 			return m_pObject == NULL ? true : false;

  0000f	8b 4d f8	 mov	 ecx, DWORD PTR _this$[ebp]
  00012	83 7c 01 10 00	 cmp	 DWORD PTR [ecx+eax+16], 0
  00017	75 06		 jne	 SHORT $LN6@GetDiffuse
  00019	c6 45 ff 01	 mov	 BYTE PTR tv80[ebp], 1
  0001d	eb 04		 jmp	 SHORT $LN4@GetDiffuse
$LN6@GetDiffuse:
  0001f	c6 45 ff 00	 mov	 BYTE PTR tv80[ebp], 0
$LN4@GetDiffuse:
; File D:\Metin2 Server Files\mainline\SRC_2014\Metin2Client\eterGrnLib\Material.cpp

; 167  : 	if (m_roImage[0].IsNull())

  00023	0f b6 45 ff	 movzx	 eax, BYTE PTR tv80[ebp]
  00027	85 c0		 test	 eax, eax
  00029	74 04		 je	 SHORT $LN2@GetDiffuse

; 168  : 		return NULL;

  0002b	33 c0		 xor	 eax, eax
  0002d	eb 18		 jmp	 SHORT $LN1@GetDiffuse
$LN2@GetDiffuse:

; 170  : 	return m_roImage[0].GetPointer()->GetTexturePointer();

  0002f	6a 04		 push	 4
  00031	58		 pop	 eax
  00032	6b c0 00	 imul	 eax, eax, 0
; File D:\Metin2 Server Files\mainline\SRC_2014\Metin2Client\eterlib\Ref.h

; 80   : 			return static_cast<T*>(m_pObject);

  00035	8b 4d f8	 mov	 ecx, DWORD PTR _this$[ebp]
  00038	8b 44 01 10	 mov	 eax, DWORD PTR [ecx+eax+16]
  0003c	89 45 f4	 mov	 DWORD PTR $T1[ebp], eax
; File D:\Metin2 Server Files\mainline\SRC_2014\Metin2Client\eterGrnLib\Material.cpp

; 170  : 	return m_roImage[0].GetPointer()->GetTexturePointer();

  0003f	8b 4d f4	 mov	 ecx, DWORD PTR $T1[ebp]
  00042	e8 00 00 00 00	 call	 ?GetTexturePointer@CGraphicImage@@QAEPAVCGraphicTexture@@XZ ; CGraphicImage::GetTexturePointer
$LN1@GetDiffuse:

; 171  : }

  00047	c9		 leave
  00048	c3		 ret	 0
?GetDiffuseTexture@CGrannyMaterial@@QBEPBVCGraphicTexture@@XZ ENDP ; CGrannyMaterial::GetDiffuseTexture
_TEXT	ENDS
; Function compile flags: /Odspy
; File D:\Metin2 Server Files\mainline\SRC_2014\Metin2Client\eterGrnLib\Material.cpp
; File D:\Metin2 Server Files\mainline\SRC_2014\Metin2Client\eterlib\Ref.h
; File D:\Metin2 Server Files\mainline\SRC_2014\Metin2Client\eterGrnLib\Material.cpp
; File D:\Metin2 Server Files\mainline\SRC_2014\Metin2Client\eterlib\Ref.h
; File D:\Metin2 Server Files\mainline\SRC_2014\Metin2Client\eterGrnLib\Material.cpp
;	COMDAT ?GetImagePointer@CGrannyMaterial@@QBEPAVCGraphicImage@@H@Z
_TEXT	SEGMENT
_pImage$ = -16						; size = 4
_this$ = -12						; size = 4
_ratImage$ = -8						; size = 4
tv75 = -1						; size = 1
_iStage$ = 8						; size = 4
?GetImagePointer@CGrannyMaterial@@QBEPAVCGraphicImage@@H@Z PROC ; CGrannyMaterial::GetImagePointer, COMDAT
; _this$ = ecx

; 155  : {

  00000	55		 push	 ebp
  00001	8b ec		 mov	 ebp, esp
  00003	83 ec 10	 sub	 esp, 16			; 00000010H
  00006	89 4d f4	 mov	 DWORD PTR _this$[ebp], ecx

; 156  : 	const CGraphicImage::TRef & ratImage = m_roImage[iStage];

  00009	8b 45 08	 mov	 eax, DWORD PTR _iStage$[ebp]
  0000c	8b 4d f4	 mov	 ecx, DWORD PTR _this$[ebp]
  0000f	8d 44 81 10	 lea	 eax, DWORD PTR [ecx+eax*4+16]
  00013	89 45 f8	 mov	 DWORD PTR _ratImage$[ebp], eax
; File D:\Metin2 Server Files\mainline\SRC_2014\Metin2Client\eterlib\Ref.h

; 62   : 			return m_pObject == NULL ? true : false;

  00016	8b 45 f8	 mov	 eax, DWORD PTR _ratImage$[ebp]
  00019	83 38 00	 cmp	 DWORD PTR [eax], 0
  0001c	75 06		 jne	 SHORT $LN6@GetImagePo
  0001e	c6 45 ff 01	 mov	 BYTE PTR tv75[ebp], 1
  00022	eb 04		 jmp	 SHORT $LN4@GetImagePo
$LN6@GetImagePo:
  00024	c6 45 ff 00	 mov	 BYTE PTR tv75[ebp], 0
$LN4@GetImagePo:
; File D:\Metin2 Server Files\mainline\SRC_2014\Metin2Client\eterGrnLib\Material.cpp

; 158  : 	if (ratImage.IsNull())

  00028	0f b6 45 ff	 movzx	 eax, BYTE PTR tv75[ebp]
  0002c	85 c0		 test	 eax, eax
  0002e	74 04		 je	 SHORT $LN2@GetImagePo

; 159  : 		return NULL;

  00030	33 c0		 xor	 eax, eax
  00032	eb 0b		 jmp	 SHORT $LN1@GetImagePo
$LN2@GetImagePo:
; File D:\Metin2 Server Files\mainline\SRC_2014\Metin2Client\eterlib\Ref.h

; 80   : 			return static_cast<T*>(m_pObject);

  00034	8b 45 f8	 mov	 eax, DWORD PTR _ratImage$[ebp]
  00037	8b 00		 mov	 eax, DWORD PTR [eax]
  00039	89 45 f0	 mov	 DWORD PTR _pImage$[ebp], eax
; File D:\Metin2 Server Files\mainline\SRC_2014\Metin2Client\eterGrnLib\Material.cpp

; 162  : 	return pImage;

  0003c	8b 45 f0	 mov	 eax, DWORD PTR _pImage$[ebp]
$LN1@GetImagePo:

; 163  : }

  0003f	c9		 leave
  00040	c2 04 00	 ret	 4
?GetImagePointer@CGrannyMaterial@@QBEPAVCGraphicImage@@H@Z ENDP ; CGrannyMaterial::GetImagePointer
_TEXT	ENDS
; Function compile flags: /Odspy
; File D:\Metin2 Server Files\mainline\SRC_2014\Metin2Client\eterGrnLib\Material.cpp
;	COMDAT ?GetType@CGrannyMaterial@@QBE?AW4EType@1@XZ
_TEXT	SEGMENT
_this$ = -4						; size = 4
?GetType@CGrannyMaterial@@QBE?AW4EType@1@XZ PROC	; CGrannyMaterial::GetType, COMDAT
; _this$ = ecx

; 73   : {

  00000	55		 push	 ebp
  00001	8b ec		 mov	 ebp, esp
  00003	51		 push	 ecx
  00004	89 4d fc	 mov	 DWORD PTR _this$[ebp], ecx

; 74   : 	return m_eType;

  00007	8b 45 fc	 mov	 eax, DWORD PTR _this$[ebp]
  0000a	8b 40 18	 mov	 eax, DWORD PTR [eax+24]

; 75   : }

  0000d	c9		 leave
  0000e	c3		 ret	 0
?GetType@CGrannyMaterial@@QBE?AW4EType@1@XZ ENDP	; CGrannyMaterial::GetType
_TEXT	ENDS
; Function compile flags: /Odspy
; File D:\Metin2 Server Files\mainline\SRC_2014\Metin2Client\eterGrnLib\Material.cpp
; File D:\Metin2 Server Files\mainline\SRC_2014\Metin2Client\eterlib\Ref.h
; File D:\Metin2 Server Files\mainline\SRC_2014\Metin2Client\eterGrnLib\Material.cpp
; File D:\Metin2 Server Files\mainline\SRC_2014\Metin2Client\eterlib\Ref.h
; File D:\Metin2 Server Files\mainline\SRC_2014\Metin2Client\eterGrnLib\Material.cpp
;	COMDAT ?SetImagePointer@CGrannyMaterial@@QAEXHPAVCGraphicImage@@@Z
_TEXT	SEGMENT
_this$ = -4						; size = 4
_iStage$ = 8						; size = 4
_pImage$ = 12						; size = 4
?SetImagePointer@CGrannyMaterial@@QAEXHPAVCGraphicImage@@@Z PROC ; CGrannyMaterial::SetImagePointer, COMDAT
; _this$ = ecx

; 78   : {	

  00000	55		 push	 ebp
  00001	8b ec		 mov	 ebp, esp
  00003	51		 push	 ecx
  00004	89 4d fc	 mov	 DWORD PTR _this$[ebp], ecx
; File D:\Metin2 Server Files\mainline\SRC_2014\Metin2Client\eterlib\Ref.h

; 43   : 			SetPointer(pObject);

  00007	ff 75 0c	 push	 DWORD PTR _pImage$[ebp]
; File D:\Metin2 Server Files\mainline\SRC_2014\Metin2Client\eterGrnLib\Material.cpp

; 80   : 	m_roImage[iStage]=pImage;

  0000a	8b 45 08	 mov	 eax, DWORD PTR _iStage$[ebp]
  0000d	8b 4d fc	 mov	 ecx, DWORD PTR _this$[ebp]
  00010	8d 4c 81 10	 lea	 ecx, DWORD PTR [ecx+eax*4+16]
; File D:\Metin2 Server Files\mainline\SRC_2014\Metin2Client\eterlib\Ref.h

; 43   : 			SetPointer(pObject);

  00014	e8 00 00 00 00	 call	 ?SetPointer@?$CRef@VCGraphicImage@@@@QAEXPAVCReferenceObject@@@Z ; CRef<CGraphicImage>::SetPointer
; File D:\Metin2 Server Files\mainline\SRC_2014\Metin2Client\eterGrnLib\Material.cpp

; 81   : }

  00019	c9		 leave
  0001a	c2 08 00	 ret	 8
?SetImagePointer@CGrannyMaterial@@QAEXHPAVCGraphicImage@@@Z ENDP ; CGrannyMaterial::SetImagePointer
_TEXT	ENDS
; Function compile flags: /Odspy
; File D:\Metin2 Server Files\mainline\SRC_2014\Metin2Client\eterGrnLib\Material.cpp
; File D:\Metin2 Server Files\mainline\SRC_2014\Metin2Client\eterlib\Ref.h
; File D:\Metin2 Server Files\mainline\SRC_2014\Metin2Client\eterGrnLib\Material.cpp
;	COMDAT ?CreateFromGrannyMaterialPointer@CGrannyMaterial@@QAE_NPAUgranny_material@@@Z
_TEXT	SEGMENT
_twoSideResult$1 = -100					; size = 8
tv153 = -92						; size = 4
_twoSided$2 = -88					; size = 4
_pgrnOpacityTexture$ = -84				; size = 4
_pgrnDiffuseTexture$ = -80				; size = 4
_this$ = -76						; size = 4
tv194 = -69						; size = 1
_TwoSidedFieldType$3 = -68				; size = 64
__$ArrayPad$ = -4					; size = 4
_pgrnMaterial$ = 8					; size = 4
?CreateFromGrannyMaterialPointer@CGrannyMaterial@@QAE_NPAUgranny_material@@@Z PROC ; CGrannyMaterial::CreateFromGrannyMaterialPointer, COMDAT
; _this$ = ecx

; 222  : {

  00000	55		 push	 ebp
  00001	8b ec		 mov	 ebp, esp
  00003	83 ec 64	 sub	 esp, 100		; 00000064H
  00006	a1 00 00 00 00	 mov	 eax, DWORD PTR ___security_cookie
  0000b	33 c5		 xor	 eax, ebp
  0000d	89 45 fc	 mov	 DWORD PTR __$ArrayPad$[ebp], eax
  00010	57		 push	 edi
  00011	89 4d b4	 mov	 DWORD PTR _this$[ebp], ecx

; 223  : 	m_pgrnMaterial = pgrnMaterial;

  00014	8b 45 b4	 mov	 eax, DWORD PTR _this$[ebp]
  00017	8b 4d 08	 mov	 ecx, DWORD PTR _pgrnMaterial$[ebp]
  0001a	89 48 0c	 mov	 DWORD PTR [eax+12], ecx

; 224  : 
; 225  : 	granny_texture * pgrnDiffuseTexture = NULL;

  0001d	83 65 b0 00	 and	 DWORD PTR _pgrnDiffuseTexture$[ebp], 0

; 226  : 	granny_texture * pgrnOpacityTexture = NULL;

  00021	83 65 ac 00	 and	 DWORD PTR _pgrnOpacityTexture$[ebp], 0

; 227  : 
; 228  : 	if (pgrnMaterial)

  00025	83 7d 08 00	 cmp	 DWORD PTR _pgrnMaterial$[ebp], 0
  00029	0f 84 ff 00 00
	00		 je	 $LN2@CreateFrom

; 229  : 	{
; 230  : 		if (pgrnMaterial->MapCount > 1 && !strnicmp(pgrnMaterial->Name, "Blend", 5))

  0002f	8b 45 08	 mov	 eax, DWORD PTR _pgrnMaterial$[ebp]
  00032	83 78 04 01	 cmp	 DWORD PTR [eax+4], 1
  00036	7e 50		 jle	 SHORT $LN3@CreateFrom
  00038	6a 05		 push	 5
  0003a	68 00 00 00 00	 push	 OFFSET ??_C@_05BPEPCAMP@Blend@
  0003f	8b 45 08	 mov	 eax, DWORD PTR _pgrnMaterial$[ebp]
  00042	ff 30		 push	 DWORD PTR [eax]
  00044	e8 00 00 00 00	 call	 __strnicmp
  00049	83 c4 0c	 add	 esp, 12			; 0000000cH
  0004c	85 c0		 test	 eax, eax
  0004e	75 38		 jne	 SHORT $LN3@CreateFrom

; 231  : 		{
; 232  : 			pgrnDiffuseTexture = GrannyGetMaterialTextureByType(pgrnMaterial->Maps[0].Material, GrannyDiffuseColorTexture);

  00050	6a 02		 push	 2
  00052	6a 08		 push	 8
  00054	58		 pop	 eax
  00055	6b c0 00	 imul	 eax, eax, 0
  00058	8b 4d 08	 mov	 ecx, DWORD PTR _pgrnMaterial$[ebp]
  0005b	8b 49 08	 mov	 ecx, DWORD PTR [ecx+8]
  0005e	ff 74 01 04	 push	 DWORD PTR [ecx+eax+4]
  00062	ff 15 00 00 00
	00		 call	 DWORD PTR __imp__GrannyGetMaterialTextureByType@8
  00068	89 45 b0	 mov	 DWORD PTR _pgrnDiffuseTexture$[ebp], eax

; 233  : 			pgrnOpacityTexture = GrannyGetMaterialTextureByType(pgrnMaterial->Maps[1].Material, GrannyDiffuseColorTexture);

  0006b	6a 02		 push	 2
  0006d	6a 08		 push	 8
  0006f	58		 pop	 eax
  00070	c1 e0 00	 shl	 eax, 0
  00073	8b 4d 08	 mov	 ecx, DWORD PTR _pgrnMaterial$[ebp]
  00076	8b 49 08	 mov	 ecx, DWORD PTR [ecx+8]
  00079	ff 74 01 04	 push	 DWORD PTR [ecx+eax+4]
  0007d	ff 15 00 00 00
	00		 call	 DWORD PTR __imp__GrannyGetMaterialTextureByType@8
  00083	89 45 ac	 mov	 DWORD PTR _pgrnOpacityTexture$[ebp], eax

; 234  : 		}

  00086	eb 22		 jmp	 SHORT $LN4@CreateFrom
$LN3@CreateFrom:

; 235  : 		else
; 236  : 		{
; 237  : 			pgrnDiffuseTexture = GrannyGetMaterialTextureByType(m_pgrnMaterial, GrannyDiffuseColorTexture);

  00088	6a 02		 push	 2
  0008a	8b 45 b4	 mov	 eax, DWORD PTR _this$[ebp]
  0008d	ff 70 0c	 push	 DWORD PTR [eax+12]
  00090	ff 15 00 00 00
	00		 call	 DWORD PTR __imp__GrannyGetMaterialTextureByType@8
  00096	89 45 b0	 mov	 DWORD PTR _pgrnDiffuseTexture$[ebp], eax

; 238  : 			pgrnOpacityTexture = GrannyGetMaterialTextureByType(m_pgrnMaterial, GrannyOpacityTexture);

  00099	6a 05		 push	 5
  0009b	8b 45 b4	 mov	 eax, DWORD PTR _this$[ebp]
  0009e	ff 70 0c	 push	 DWORD PTR [eax+12]
  000a1	ff 15 00 00 00
	00		 call	 DWORD PTR __imp__GrannyGetMaterialTextureByType@8
  000a7	89 45 ac	 mov	 DWORD PTR _pgrnOpacityTexture$[ebp], eax
$LN4@CreateFrom:

; 239  : 		}
; 240  : 
; 241  : 		// Two-Side    
; 242  : 		{			
; 243  : 			granny_int32 twoSided = 0;

  000aa	83 65 a8 00	 and	 DWORD PTR _twoSided$2[ebp], 0

; 244  : 			granny_data_type_definition TwoSidedFieldType[] =
; 245  : 			{
; 246  : 				{GrannyInt32Member, "Two-sided"},

  000ae	c7 45 bc 13 00
	00 00		 mov	 DWORD PTR _TwoSidedFieldType$3[ebp], 19 ; 00000013H
  000b5	c7 45 c0 00 00
	00 00		 mov	 DWORD PTR _TwoSidedFieldType$3[ebp+4], OFFSET ??_C@_09HNLEFIID@Two?9sided@
  000bc	6a 06		 push	 6
  000be	59		 pop	 ecx
  000bf	33 c0		 xor	 eax, eax
  000c1	8d 7d c4	 lea	 edi, DWORD PTR _TwoSidedFieldType$3[ebp+8]
  000c4	f3 ab		 rep stosd

; 247  : 				{GrannyEndMember},

  000c6	83 65 dc 00	 and	 DWORD PTR _TwoSidedFieldType$3[ebp+32], 0
  000ca	6a 07		 push	 7
  000cc	59		 pop	 ecx
  000cd	33 c0		 xor	 eax, eax
  000cf	8d 7d e0	 lea	 edi, DWORD PTR _TwoSidedFieldType$3[ebp+36]
  000d2	f3 ab		 rep stosd

; 248  : 			};
; 249  : 
; 250  : 			granny_variant twoSideResult;
; 251  : 
; 252  : 			if (GrannyFindMatchingMember(pgrnMaterial->ExtendedData.Type, pgrnMaterial->ExtendedData.Object, "Two-sided", &twoSideResult)
; 253  : 				&& NULL != twoSideResult.Type)

  000d4	8d 45 9c	 lea	 eax, DWORD PTR _twoSideResult$1[ebp]
  000d7	50		 push	 eax
  000d8	68 00 00 00 00	 push	 OFFSET ??_C@_09HNLEFIID@Two?9sided@
  000dd	8b 45 08	 mov	 eax, DWORD PTR _pgrnMaterial$[ebp]
  000e0	ff 70 14	 push	 DWORD PTR [eax+20]
  000e3	8b 45 08	 mov	 eax, DWORD PTR _pgrnMaterial$[ebp]
  000e6	ff 70 10	 push	 DWORD PTR [eax+16]
  000e9	ff 15 00 00 00
	00		 call	 DWORD PTR __imp__GrannyFindMatchingMember@16
  000ef	0f b6 c0	 movzx	 eax, al
  000f2	85 c0		 test	 eax, eax
  000f4	74 1c		 je	 SHORT $LN5@CreateFrom
  000f6	83 7d 9c 00	 cmp	 DWORD PTR _twoSideResult$1[ebp], 0
  000fa	74 16		 je	 SHORT $LN5@CreateFrom

; 254  : 				GrannyConvertSingleObject(twoSideResult.Type, twoSideResult.Object, TwoSidedFieldType, &twoSided, NULL);

  000fc	6a 00		 push	 0
  000fe	8d 45 a8	 lea	 eax, DWORD PTR _twoSided$2[ebp]
  00101	50		 push	 eax
  00102	8d 45 bc	 lea	 eax, DWORD PTR _TwoSidedFieldType$3[ebp]
  00105	50		 push	 eax
  00106	ff 75 a0	 push	 DWORD PTR _twoSideResult$1[ebp+4]
  00109	ff 75 9c	 push	 DWORD PTR _twoSideResult$1[ebp]
  0010c	ff 15 00 00 00
	00		 call	 DWORD PTR __imp__GrannyConvertSingleObject@20
$LN5@CreateFrom:

; 255  : 
; 256  : 
; 257  : 
; 258  : 			m_bTwoSideRender = 1 == twoSided;

  00112	83 7d a8 01	 cmp	 DWORD PTR _twoSided$2[ebp], 1
  00116	75 09		 jne	 SHORT $LN11@CreateFrom
  00118	c7 45 a4 01 00
	00 00		 mov	 DWORD PTR tv153[ebp], 1
  0011f	eb 04		 jmp	 SHORT $LN12@CreateFrom
$LN11@CreateFrom:
  00121	83 65 a4 00	 and	 DWORD PTR tv153[ebp], 0
$LN12@CreateFrom:
  00125	8b 45 b4	 mov	 eax, DWORD PTR _this$[ebp]
  00128	8a 4d a4	 mov	 cl, BYTE PTR tv153[ebp]
  0012b	88 48 24	 mov	 BYTE PTR [eax+36], cl
$LN2@CreateFrom:

; 259  : 		}
; 260  : 	}
; 261  : 
; 262  : 	if (pgrnDiffuseTexture)

  0012e	83 7d b0 00	 cmp	 DWORD PTR _pgrnDiffuseTexture$[ebp], 0
  00132	74 20		 je	 SHORT $LN6@CreateFrom

; 263  : 		m_roImage[0].SetPointer(__GetImagePointer(pgrnDiffuseTexture->FromFileName));

  00134	8b 45 b0	 mov	 eax, DWORD PTR _pgrnDiffuseTexture$[ebp]
  00137	ff 30		 push	 DWORD PTR [eax]
  00139	8b 4d b4	 mov	 ecx, DWORD PTR _this$[ebp]
  0013c	e8 00 00 00 00	 call	 ?__GetImagePointer@CGrannyMaterial@@IAEPAVCGraphicImage@@PBD@Z ; CGrannyMaterial::__GetImagePointer
  00141	50		 push	 eax
  00142	6a 04		 push	 4
  00144	58		 pop	 eax
  00145	6b c0 00	 imul	 eax, eax, 0
  00148	8b 4d b4	 mov	 ecx, DWORD PTR _this$[ebp]
  0014b	8d 4c 01 10	 lea	 ecx, DWORD PTR [ecx+eax+16]
  0014f	e8 00 00 00 00	 call	 ?SetPointer@?$CRef@VCGraphicImage@@@@QAEXPAVCReferenceObject@@@Z ; CRef<CGraphicImage>::SetPointer
$LN6@CreateFrom:

; 264  : 
; 265  : 	if (pgrnOpacityTexture)

  00154	83 7d ac 00	 cmp	 DWORD PTR _pgrnOpacityTexture$[ebp], 0
  00158	74 20		 je	 SHORT $LN7@CreateFrom

; 266  : 		m_roImage[1].SetPointer(__GetImagePointer(pgrnOpacityTexture->FromFileName));

  0015a	8b 45 ac	 mov	 eax, DWORD PTR _pgrnOpacityTexture$[ebp]
  0015d	ff 30		 push	 DWORD PTR [eax]
  0015f	8b 4d b4	 mov	 ecx, DWORD PTR _this$[ebp]
  00162	e8 00 00 00 00	 call	 ?__GetImagePointer@CGrannyMaterial@@IAEPAVCGraphicImage@@PBD@Z ; CGrannyMaterial::__GetImagePointer
  00167	50		 push	 eax
  00168	6a 04		 push	 4
  0016a	58		 pop	 eax
  0016b	c1 e0 00	 shl	 eax, 0
  0016e	8b 4d b4	 mov	 ecx, DWORD PTR _this$[ebp]
  00171	8d 4c 01 10	 lea	 ecx, DWORD PTR [ecx+eax+16]
  00175	e8 00 00 00 00	 call	 ?SetPointer@?$CRef@VCGraphicImage@@@@QAEXPAVCReferenceObject@@@Z ; CRef<CGraphicImage>::SetPointer
$LN7@CreateFrom:

; 269  : 	if (!m_roImage[1].IsNull())

  0017a	6a 04		 push	 4
  0017c	58		 pop	 eax
  0017d	c1 e0 00	 shl	 eax, 0
; File D:\Metin2 Server Files\mainline\SRC_2014\Metin2Client\eterlib\Ref.h

; 62   : 			return m_pObject == NULL ? true : false;

  00180	8b 4d b4	 mov	 ecx, DWORD PTR _this$[ebp]
  00183	83 7c 01 10 00	 cmp	 DWORD PTR [ecx+eax+16], 0
  00188	75 06		 jne	 SHORT $LN23@CreateFrom
  0018a	c6 45 bb 01	 mov	 BYTE PTR tv194[ebp], 1
  0018e	eb 04		 jmp	 SHORT $LN21@CreateFrom
$LN23@CreateFrom:
  00190	c6 45 bb 00	 mov	 BYTE PTR tv194[ebp], 0
$LN21@CreateFrom:
; File D:\Metin2 Server Files\mainline\SRC_2014\Metin2Client\eterGrnLib\Material.cpp

; 269  : 	if (!m_roImage[1].IsNull())

  00194	0f b6 45 bb	 movzx	 eax, BYTE PTR tv194[ebp]
  00198	85 c0		 test	 eax, eax
  0019a	75 0c		 jne	 SHORT $LN8@CreateFrom

; 270  : 		m_eType = TYPE_BLEND_PNT;

  0019c	8b 45 b4	 mov	 eax, DWORD PTR _this$[ebp]
  0019f	c7 40 18 01 00
	00 00		 mov	 DWORD PTR [eax+24], 1
  001a6	eb 07		 jmp	 SHORT $LN9@CreateFrom
$LN8@CreateFrom:

; 271  : 	else
; 272  : 		m_eType = TYPE_DIFFUSE_PNT;

  001a8	8b 45 b4	 mov	 eax, DWORD PTR _this$[ebp]
  001ab	83 60 18 00	 and	 DWORD PTR [eax+24], 0
$LN9@CreateFrom:

; 273  : 
; 274  : 	return true;

  001af	b0 01		 mov	 al, 1

; 275  : }

  001b1	5f		 pop	 edi
  001b2	8b 4d fc	 mov	 ecx, DWORD PTR __$ArrayPad$[ebp]
  001b5	33 cd		 xor	 ecx, ebp
  001b7	e8 00 00 00 00	 call	 @__security_check_cookie@4
  001bc	c9		 leave
  001bd	c2 04 00	 ret	 4
?CreateFromGrannyMaterialPointer@CGrannyMaterial@@QAE_NPAUgranny_material@@@Z ENDP ; CGrannyMaterial::CreateFromGrannyMaterialPointer
_TEXT	ENDS
; Function compile flags: /Odspy
; File D:\Metin2 Server Files\mainline\SRC_2014\Metin2Client\eterGrnLib\Material.cpp
; File D:\Metin2 Server Files\mainline\SRC_2014\Metin2Client\eterlib\Ref.h
; File D:\Metin2 Server Files\mainline\SRC_2014\Metin2Client\eterGrnLib\Material.cpp
; File D:\Metin2 Server Files\mainline\SRC_2014\Metin2Client\eterlib\Ref.h
; File D:\Metin2 Server Files\mainline\SRC_2014\Metin2Client\eterGrnLib\Material.cpp
; File D:\Metin2 Server Files\mainline\SRC_2014\Metin2Client\eterlib\Ref.h
; File D:\Metin2 Server Files\mainline\SRC_2014\Metin2Client\eterGrnLib\Material.cpp
;	COMDAT ?Initialize@CGrannyMaterial@@IAEXXZ
_TEXT	SEGMENT
_this$ = -4						; size = 4
?Initialize@CGrannyMaterial@@IAEXXZ PROC		; CGrannyMaterial::Initialize, COMDAT
; _this$ = ecx

; 278  : {

  00000	55		 push	 ebp
  00001	8b ec		 mov	 ebp, esp
  00003	51		 push	 ecx
  00004	89 4d fc	 mov	 DWORD PTR _this$[ebp], ecx
; File D:\Metin2 Server Files\mainline\SRC_2014\Metin2Client\eterlib\Ref.h

; 43   : 			SetPointer(pObject);

  00007	6a 00		 push	 0
; File D:\Metin2 Server Files\mainline\SRC_2014\Metin2Client\eterGrnLib\Material.cpp

; 279  : 	m_roImage[0] = NULL;

  00009	6a 04		 push	 4
  0000b	58		 pop	 eax
  0000c	6b c0 00	 imul	 eax, eax, 0
  0000f	8b 4d fc	 mov	 ecx, DWORD PTR _this$[ebp]
  00012	8d 4c 01 10	 lea	 ecx, DWORD PTR [ecx+eax+16]
; File D:\Metin2 Server Files\mainline\SRC_2014\Metin2Client\eterlib\Ref.h

; 43   : 			SetPointer(pObject);

  00016	e8 00 00 00 00	 call	 ?SetPointer@?$CRef@VCGraphicImage@@@@QAEXPAVCReferenceObject@@@Z ; CRef<CGraphicImage>::SetPointer
  0001b	6a 00		 push	 0
; File D:\Metin2 Server Files\mainline\SRC_2014\Metin2Client\eterGrnLib\Material.cpp

; 280  : 	m_roImage[1] = NULL;

  0001d	6a 04		 push	 4
  0001f	58		 pop	 eax
  00020	c1 e0 00	 shl	 eax, 0
  00023	8b 4d fc	 mov	 ecx, DWORD PTR _this$[ebp]
  00026	8d 4c 01 10	 lea	 ecx, DWORD PTR [ecx+eax+16]
; File D:\Metin2 Server Files\mainline\SRC_2014\Metin2Client\eterlib\Ref.h

; 43   : 			SetPointer(pObject);

  0002a	e8 00 00 00 00	 call	 ?SetPointer@?$CRef@VCGraphicImage@@@@QAEXPAVCReferenceObject@@@Z ; CRef<CGraphicImage>::SetPointer
; File D:\Metin2 Server Files\mainline\SRC_2014\Metin2Client\eterGrnLib\Material.cpp

; 282  : 	SetSpecularInfo(FALSE, 0.0f, 0);

  0002f	6a 00		 push	 0
  00031	51		 push	 ecx
  00032	0f 57 c0	 xorps	 xmm0, xmm0
  00035	f3 0f 11 04 24	 movss	 DWORD PTR [esp], xmm0
  0003a	6a 00		 push	 0
  0003c	8b 4d fc	 mov	 ecx, DWORD PTR _this$[ebp]
  0003f	e8 00 00 00 00	 call	 ?SetSpecularInfo@CGrannyMaterial@@QAEXHME@Z ; CGrannyMaterial::SetSpecularInfo

; 283  : }

  00044	c9		 leave
  00045	c3		 ret	 0
?Initialize@CGrannyMaterial@@IAEXXZ ENDP		; CGrannyMaterial::Initialize
_TEXT	ENDS
; Function compile flags: /Odspy
; File D:\Metin2 Server Files\mainline\SRC_2014\Metin2Client\eterGrnLib\Material.cpp
;	COMDAT ?RestoreRenderState@CGrannyMaterial@@QAEXXZ
_TEXT	SEGMENT
_this$ = -4						; size = 4
?RestoreRenderState@CGrannyMaterial@@QAEXXZ PROC	; CGrannyMaterial::RestoreRenderState, COMDAT
; _this$ = ecx

; 47   : {

  00000	55		 push	 ebp
  00001	8b ec		 mov	 ebp, esp
  00003	51		 push	 ecx
  00004	89 4d fc	 mov	 DWORD PTR _this$[ebp], ecx

; 48   : 	assert(m_pfnRestoreRenderState!=NULL && "CGrannyMaterial::RestoreRenderState");
; 49   : 	(this->*m_pfnRestoreRenderState)();

  00007	8b 45 fc	 mov	 eax, DWORD PTR _this$[ebp]
  0000a	8b 4d fc	 mov	 ecx, DWORD PTR _this$[ebp]
  0000d	ff 50 34	 call	 DWORD PTR [eax+52]

; 50   : }

  00010	c9		 leave
  00011	c3		 ret	 0
?RestoreRenderState@CGrannyMaterial@@QAEXXZ ENDP	; CGrannyMaterial::RestoreRenderState
_TEXT	ENDS
; Function compile flags: /Odspy
; File D:\Metin2 Server Files\mainline\SRC_2014\Metin2Client\eterGrnLib\Material.cpp
;	COMDAT ?ApplyRenderState@CGrannyMaterial@@QAEXXZ
_TEXT	SEGMENT
_this$ = -4						; size = 4
?ApplyRenderState@CGrannyMaterial@@QAEXXZ PROC		; CGrannyMaterial::ApplyRenderState, COMDAT
; _this$ = ecx

; 41   : {

  00000	55		 push	 ebp
  00001	8b ec		 mov	 ebp, esp
  00003	51		 push	 ecx
  00004	89 4d fc	 mov	 DWORD PTR _this$[ebp], ecx

; 42   : 	assert(m_pfnApplyRenderState!=NULL && "CGrannyMaterial::SaveRenderState");
; 43   : 	(this->*m_pfnApplyRenderState)();

  00007	8b 45 fc	 mov	 eax, DWORD PTR _this$[ebp]
  0000a	8b 4d fc	 mov	 ecx, DWORD PTR _this$[ebp]
  0000d	ff 50 30	 call	 DWORD PTR [eax+48]

; 44   : }

  00010	c9		 leave
  00011	c3		 ret	 0
?ApplyRenderState@CGrannyMaterial@@QAEXXZ ENDP		; CGrannyMaterial::ApplyRenderState
_TEXT	ENDS
; Function compile flags: /Odspy
; File D:\Metin2 Server Files\mainline\SRC_2014\Metin2Client\eterGrnLib\Material.cpp
;	COMDAT ?SetSpecularInfo@CGrannyMaterial@@QAEXHME@Z
_TEXT	SEGMENT
_this$ = -4						; size = 4
_bFlag$ = 8						; size = 4
_fPower$ = 12						; size = 4
_uSphereMapIndex$ = 16					; size = 1
?SetSpecularInfo@CGrannyMaterial@@QAEXHME@Z PROC	; CGrannyMaterial::SetSpecularInfo, COMDAT
; _this$ = ecx

; 116  : {

  00000	55		 push	 ebp
  00001	8b ec		 mov	 ebp, esp
  00003	51		 push	 ecx
  00004	89 4d fc	 mov	 DWORD PTR _this$[ebp], ecx

; 117  : 	m_fSpecularPower = fPower;

  00007	8b 45 fc	 mov	 eax, DWORD PTR _this$[ebp]
  0000a	f3 0f 10 45 0c	 movss	 xmm0, DWORD PTR _fPower$[ebp]
  0000f	f3 0f 11 40 1c	 movss	 DWORD PTR [eax+28], xmm0

; 118  : 	m_bSphereMapIndex = uSphereMapIndex;

  00014	8b 45 fc	 mov	 eax, DWORD PTR _this$[ebp]
  00017	8a 4d 10	 mov	 cl, BYTE PTR _uSphereMapIndex$[ebp]
  0001a	88 48 2c	 mov	 BYTE PTR [eax+44], cl

; 119  : 	m_bSpecularEnable = bFlag;	

  0001d	8b 45 fc	 mov	 eax, DWORD PTR _this$[ebp]
  00020	8b 4d 08	 mov	 ecx, DWORD PTR _bFlag$[ebp]
  00023	89 48 20	 mov	 DWORD PTR [eax+32], ecx

; 120  : 
; 121  : 	if (bFlag)

  00026	83 7d 08 00	 cmp	 DWORD PTR _bFlag$[ebp], 0
  0002a	74 16		 je	 SHORT $LN2@SetSpecula

; 122  : 	{
; 123  : 		m_pfnApplyRenderState = &CGrannyMaterial::__ApplySpecularRenderState;

  0002c	8b 45 fc	 mov	 eax, DWORD PTR _this$[ebp]
  0002f	c7 40 30 00 00
	00 00		 mov	 DWORD PTR [eax+48], OFFSET ?__ApplySpecularRenderState@CGrannyMaterial@@IAEXXZ ; CGrannyMaterial::__ApplySpecularRenderState

; 124  : 		m_pfnRestoreRenderState = &CGrannyMaterial::__RestoreSpecularRenderState;

  00036	8b 45 fc	 mov	 eax, DWORD PTR _this$[ebp]
  00039	c7 40 34 00 00
	00 00		 mov	 DWORD PTR [eax+52], OFFSET ?__RestoreSpecularRenderState@CGrannyMaterial@@IAEXXZ ; CGrannyMaterial::__RestoreSpecularRenderState

; 125  : 	}

  00040	eb 14		 jmp	 SHORT $LN3@SetSpecula
$LN2@SetSpecula:

; 126  : 	else
; 127  : 	{
; 128  : 		m_pfnApplyRenderState = &CGrannyMaterial::__ApplyDiffuseRenderState;

  00042	8b 45 fc	 mov	 eax, DWORD PTR _this$[ebp]
  00045	c7 40 30 00 00
	00 00		 mov	 DWORD PTR [eax+48], OFFSET ?__ApplyDiffuseRenderState@CGrannyMaterial@@IAEXXZ ; CGrannyMaterial::__ApplyDiffuseRenderState

; 129  : 		m_pfnRestoreRenderState = &CGrannyMaterial::__RestoreDiffuseRenderState;

  0004c	8b 45 fc	 mov	 eax, DWORD PTR _this$[ebp]
  0004f	c7 40 34 00 00
	00 00		 mov	 DWORD PTR [eax+52], OFFSET ?__RestoreDiffuseRenderState@CGrannyMaterial@@IAEXXZ ; CGrannyMaterial::__RestoreDiffuseRenderState
$LN3@SetSpecula:

; 130  : 	}
; 131  : }

  00056	c9		 leave
  00057	c2 0c 00	 ret	 12			; 0000000cH
?SetSpecularInfo@CGrannyMaterial@@QAEXHME@Z ENDP	; CGrannyMaterial::SetSpecularInfo
_TEXT	ENDS
; Function compile flags: /Odspy
; File D:\Metin2 Server Files\mainline\SRC_2014\Metin2Client\eterGrnLib\Material.cpp
; File C:\Program Files (x86)\Microsoft Visual Studio\2019\Community\VC\Tools\MSVC\14.28.29333\include\xstring
; File D:\Metin2 Server Files\mainline\SRC_2014\Metin2Client\eterGrnLib\Material.cpp
; File C:\Program Files (x86)\Microsoft Visual Studio\2019\Community\VC\Tools\MSVC\14.28.29333\include\xstring
; File D:\Metin2 Server Files\mainline\SRC_2014\Metin2Client\eterGrnLib\Material.cpp
; File C:\Program Files (x86)\Microsoft Visual Studio\2019\Community\VC\Tools\MSVC\14.28.29333\include\xstring
; File D:\Metin2 Server Files\mainline\SRC_2014\Metin2Client\eterGrnLib\Material.cpp
; File C:\Program Files (x86)\Microsoft Visual Studio\2019\Community\VC\Tools\MSVC\14.28.29333\include\xstring
; File D:\Metin2 Server Files\mainline\SRC_2014\Metin2Client\eterGrnLib\Material.cpp
; File C:\Program Files (x86)\Microsoft Visual Studio\2019\Community\VC\Tools\MSVC\14.28.29333\include\xstring
; File D:\Metin2 Server Files\mainline\SRC_2014\Metin2Client\eterGrnLib\Material.cpp
; File C:\Program Files (x86)\Microsoft Visual Studio\2019\Community\VC\Tools\MSVC\14.28.29333\include\xstring
; File D:\Metin2 Server Files\mainline\SRC_2014\Metin2Client\eterGrnLib\Material.cpp
; File C:\Program Files (x86)\Microsoft Visual Studio\2019\Community\VC\Tools\MSVC\14.28.29333\include\xstring
; File D:\Metin2 Server Files\mainline\SRC_2014\Metin2Client\eterGrnLib\Material.cpp
;	COMDAT ?IsIn@CGrannyMaterial@@QAE_NPBDPAH@Z
_TEXT	SEGMENT
_pgrnOpacityTexture$ = -104				; size = 4
_this$ = -100						; size = 4
_pgrnDiffuseTexture$ = -96				; size = 4
$T2 = -91						; size = 1
$T3 = -90						; size = 1
$T4 = -89						; size = 1
_strOpacityFileName$5 = -88				; size = 24
_strDiffuseFileName$6 = -64				; size = 24
_strImageName$ = -40					; size = 24
__$ArrayPad$ = -16					; size = 4
__$EHRec$ = -12						; size = 12
_c_szImageName$ = 8					; size = 4
_piStage$ = 12						; size = 4
?IsIn@CGrannyMaterial@@QAE_NPBDPAH@Z PROC		; CGrannyMaterial::IsIn, COMDAT
; _this$ = ecx

; 84   : {

  00000	55		 push	 ebp
  00001	8b ec		 mov	 ebp, esp
  00003	6a ff		 push	 -1
  00005	68 00 00 00 00	 push	 __ehhandler$?IsIn@CGrannyMaterial@@QAE_NPBDPAH@Z
  0000a	64 a1 00 00 00
	00		 mov	 eax, DWORD PTR fs:0
  00010	50		 push	 eax
  00011	83 ec 5c	 sub	 esp, 92			; 0000005cH
  00014	a1 00 00 00 00	 mov	 eax, DWORD PTR ___security_cookie
  00019	33 c5		 xor	 eax, ebp
  0001b	89 45 f0	 mov	 DWORD PTR __$ArrayPad$[ebp], eax
  0001e	50		 push	 eax
  0001f	8d 45 f4	 lea	 eax, DWORD PTR __$EHRec$[ebp]
  00022	64 a3 00 00 00
	00		 mov	 DWORD PTR fs:0, eax
  00028	89 4d 9c	 mov	 DWORD PTR _this$[ebp], ecx

; 85   : 	std::string strImageName = c_szImageName;

  0002b	ff 75 08	 push	 DWORD PTR _c_szImageName$[ebp]
  0002e	8d 4d d8	 lea	 ecx, DWORD PTR _strImageName$[ebp]
  00031	e8 00 00 00 00	 call	 ??0?$basic_string@DU?$char_traits@D@std@@V?$allocator@D@2@@std@@QAE@QBD@Z ; std::basic_string<char,std::char_traits<char>,std::allocator<char> >::basic_string<char,std::char_traits<char>,std::allocator<char> >
  00036	83 65 fc 00	 and	 DWORD PTR __$EHRec$[ebp+8], 0

; 86   : 	CFileNameHelper::StringPath(strImageName);

  0003a	8d 45 d8	 lea	 eax, DWORD PTR _strImageName$[ebp]
  0003d	50		 push	 eax
  0003e	e8 00 00 00 00	 call	 ?StringPath@CFileNameHelper@@SAXAAV?$basic_string@DU?$char_traits@D@std@@V?$allocator@D@2@@std@@@Z ; CFileNameHelper::StringPath
  00043	59		 pop	 ecx

; 87   : 
; 88   : 	granny_texture * pgrnDiffuseTexture = GrannyGetMaterialTextureByType(m_pgrnMaterial, GrannyDiffuseColorTexture);

  00044	6a 02		 push	 2
  00046	8b 45 9c	 mov	 eax, DWORD PTR _this$[ebp]
  00049	ff 70 0c	 push	 DWORD PTR [eax+12]
  0004c	ff 15 00 00 00
	00		 call	 DWORD PTR __imp__GrannyGetMaterialTextureByType@8
  00052	89 45 a0	 mov	 DWORD PTR _pgrnDiffuseTexture$[ebp], eax

; 89   : 	if (pgrnDiffuseTexture)

  00055	83 7d a0 00	 cmp	 DWORD PTR _pgrnDiffuseTexture$[ebp], 0
  00059	74 67		 je	 SHORT $LN2@IsIn

; 90   : 	{
; 91   : 		std::string strDiffuseFileName = pgrnDiffuseTexture->FromFileName;

  0005b	8b 45 a0	 mov	 eax, DWORD PTR _pgrnDiffuseTexture$[ebp]
  0005e	ff 30		 push	 DWORD PTR [eax]
  00060	8d 4d c0	 lea	 ecx, DWORD PTR _strDiffuseFileName$6[ebp]
  00063	e8 00 00 00 00	 call	 ??0?$basic_string@DU?$char_traits@D@std@@V?$allocator@D@2@@std@@QAE@QBD@Z ; std::basic_string<char,std::char_traits<char>,std::allocator<char> >::basic_string<char,std::char_traits<char>,std::allocator<char> >
  00068	c6 45 fc 01	 mov	 BYTE PTR __$EHRec$[ebp+8], 1

; 92   : 		CFileNameHelper::StringPath(strDiffuseFileName);

  0006c	8d 45 c0	 lea	 eax, DWORD PTR _strDiffuseFileName$6[ebp]
  0006f	50		 push	 eax
  00070	e8 00 00 00 00	 call	 ?StringPath@CFileNameHelper@@SAXAAV?$basic_string@DU?$char_traits@D@std@@V?$allocator@D@2@@std@@@Z ; CFileNameHelper::StringPath
  00075	59		 pop	 ecx

; 93   : 		if (strDiffuseFileName == strImageName)

  00076	8d 45 d8	 lea	 eax, DWORD PTR _strImageName$[ebp]
  00079	50		 push	 eax
  0007a	8d 45 c0	 lea	 eax, DWORD PTR _strDiffuseFileName$6[ebp]
  0007d	50		 push	 eax
  0007e	e8 00 00 00 00	 call	 ??$?8DU?$char_traits@D@std@@V?$allocator@D@1@@std@@YA_NABV?$basic_string@DU?$char_traits@D@std@@V?$allocator@D@2@@0@0@Z ; std::operator==<char,std::char_traits<char>,std::allocator<char> >
  00083	59		 pop	 ecx
  00084	59		 pop	 ecx
  00085	0f b6 c0	 movzx	 eax, al
  00088	85 c0		 test	 eax, eax
  0008a	74 2a		 je	 SHORT $LN3@IsIn

; 94   : 		{
; 95   : 			*piStage=0;

  0008c	8b 45 0c	 mov	 eax, DWORD PTR _piStage$[ebp]
  0008f	83 20 00	 and	 DWORD PTR [eax], 0

; 96   : 			return true;

  00092	c6 45 a7 01	 mov	 BYTE PTR $T4[ebp], 1
  00096	c6 45 fc 00	 mov	 BYTE PTR __$EHRec$[ebp+8], 0
; File C:\Program Files (x86)\Microsoft Visual Studio\2019\Community\VC\Tools\MSVC\14.28.29333\include\xstring

; 2801 :         _Tidy_deallocate();

  0009a	8d 4d c0	 lea	 ecx, DWORD PTR _strDiffuseFileName$6[ebp]
  0009d	e8 00 00 00 00	 call	 ?_Tidy_deallocate@?$basic_string@DU?$char_traits@D@std@@V?$allocator@D@2@@std@@AAEXXZ ; std::basic_string<char,std::char_traits<char>,std::allocator<char> >::_Tidy_deallocate
; File D:\Metin2 Server Files\mainline\SRC_2014\Metin2Client\eterGrnLib\Material.cpp

; 96   : 			return true;

  000a2	83 4d fc ff	 or	 DWORD PTR __$EHRec$[ebp+8], -1
; File C:\Program Files (x86)\Microsoft Visual Studio\2019\Community\VC\Tools\MSVC\14.28.29333\include\xstring

; 2801 :         _Tidy_deallocate();

  000a6	8d 4d d8	 lea	 ecx, DWORD PTR _strImageName$[ebp]
  000a9	e8 00 00 00 00	 call	 ?_Tidy_deallocate@?$basic_string@DU?$char_traits@D@std@@V?$allocator@D@2@@std@@AAEXXZ ; std::basic_string<char,std::char_traits<char>,std::allocator<char> >::_Tidy_deallocate
; File D:\Metin2 Server Files\mainline\SRC_2014\Metin2Client\eterGrnLib\Material.cpp

; 96   : 			return true;

  000ae	8a 45 a7	 mov	 al, BYTE PTR $T4[ebp]
  000b1	e9 9d 00 00 00	 jmp	 $LN1@IsIn
$LN3@IsIn:

; 97   : 		}
; 98   : 	}

  000b6	c6 45 fc 00	 mov	 BYTE PTR __$EHRec$[ebp+8], 0
; File C:\Program Files (x86)\Microsoft Visual Studio\2019\Community\VC\Tools\MSVC\14.28.29333\include\xstring

; 2801 :         _Tidy_deallocate();

  000ba	8d 4d c0	 lea	 ecx, DWORD PTR _strDiffuseFileName$6[ebp]
  000bd	e8 00 00 00 00	 call	 ?_Tidy_deallocate@?$basic_string@DU?$char_traits@D@std@@V?$allocator@D@2@@std@@AAEXXZ ; std::basic_string<char,std::char_traits<char>,std::allocator<char> >::_Tidy_deallocate
$LN2@IsIn:
; File D:\Metin2 Server Files\mainline\SRC_2014\Metin2Client\eterGrnLib\Material.cpp

; 100  :     granny_texture * pgrnOpacityTexture = GrannyGetMaterialTextureByType(m_pgrnMaterial, GrannyOpacityTexture);

  000c2	6a 05		 push	 5
  000c4	8b 45 9c	 mov	 eax, DWORD PTR _this$[ebp]
  000c7	ff 70 0c	 push	 DWORD PTR [eax+12]
  000ca	ff 15 00 00 00
	00		 call	 DWORD PTR __imp__GrannyGetMaterialTextureByType@8
  000d0	89 45 98	 mov	 DWORD PTR _pgrnOpacityTexture$[ebp], eax

; 101  : 	if (pgrnOpacityTexture)

  000d3	83 7d 98 00	 cmp	 DWORD PTR _pgrnOpacityTexture$[ebp], 0
  000d7	74 67		 je	 SHORT $LN4@IsIn

; 102  : 	{
; 103  : 		std::string strOpacityFileName = pgrnOpacityTexture->FromFileName;

  000d9	8b 45 98	 mov	 eax, DWORD PTR _pgrnOpacityTexture$[ebp]
  000dc	ff 30		 push	 DWORD PTR [eax]
  000de	8d 4d a8	 lea	 ecx, DWORD PTR _strOpacityFileName$5[ebp]
  000e1	e8 00 00 00 00	 call	 ??0?$basic_string@DU?$char_traits@D@std@@V?$allocator@D@2@@std@@QAE@QBD@Z ; std::basic_string<char,std::char_traits<char>,std::allocator<char> >::basic_string<char,std::char_traits<char>,std::allocator<char> >
  000e6	c6 45 fc 02	 mov	 BYTE PTR __$EHRec$[ebp+8], 2

; 104  : 		CFileNameHelper::StringPath(strOpacityFileName);

  000ea	8d 45 a8	 lea	 eax, DWORD PTR _strOpacityFileName$5[ebp]
  000ed	50		 push	 eax
  000ee	e8 00 00 00 00	 call	 ?StringPath@CFileNameHelper@@SAXAAV?$basic_string@DU?$char_traits@D@std@@V?$allocator@D@2@@std@@@Z ; CFileNameHelper::StringPath
  000f3	59		 pop	 ecx

; 105  : 		if (strOpacityFileName == strImageName)

  000f4	8d 45 d8	 lea	 eax, DWORD PTR _strImageName$[ebp]
  000f7	50		 push	 eax
  000f8	8d 45 a8	 lea	 eax, DWORD PTR _strOpacityFileName$5[ebp]
  000fb	50		 push	 eax
  000fc	e8 00 00 00 00	 call	 ??$?8DU?$char_traits@D@std@@V?$allocator@D@1@@std@@YA_NABV?$basic_string@DU?$char_traits@D@std@@V?$allocator@D@2@@0@0@Z ; std::operator==<char,std::char_traits<char>,std::allocator<char> >
  00101	59		 pop	 ecx
  00102	59		 pop	 ecx
  00103	0f b6 c0	 movzx	 eax, al
  00106	85 c0		 test	 eax, eax
  00108	74 2a		 je	 SHORT $LN5@IsIn

; 106  : 		{
; 107  : 			*piStage=1;

  0010a	8b 45 0c	 mov	 eax, DWORD PTR _piStage$[ebp]
  0010d	c7 00 01 00 00
	00		 mov	 DWORD PTR [eax], 1

; 108  : 			return true;

  00113	c6 45 a6 01	 mov	 BYTE PTR $T3[ebp], 1
  00117	c6 45 fc 00	 mov	 BYTE PTR __$EHRec$[ebp+8], 0
; File C:\Program Files (x86)\Microsoft Visual Studio\2019\Community\VC\Tools\MSVC\14.28.29333\include\xstring

; 2801 :         _Tidy_deallocate();

  0011b	8d 4d a8	 lea	 ecx, DWORD PTR _strOpacityFileName$5[ebp]
  0011e	e8 00 00 00 00	 call	 ?_Tidy_deallocate@?$basic_string@DU?$char_traits@D@std@@V?$allocator@D@2@@std@@AAEXXZ ; std::basic_string<char,std::char_traits<char>,std::allocator<char> >::_Tidy_deallocate
; File D:\Metin2 Server Files\mainline\SRC_2014\Metin2Client\eterGrnLib\Material.cpp

; 108  : 			return true;

  00123	83 4d fc ff	 or	 DWORD PTR __$EHRec$[ebp+8], -1
; File C:\Program Files (x86)\Microsoft Visual Studio\2019\Community\VC\Tools\MSVC\14.28.29333\include\xstring

; 2801 :         _Tidy_deallocate();

  00127	8d 4d d8	 lea	 ecx, DWORD PTR _strImageName$[ebp]
  0012a	e8 00 00 00 00	 call	 ?_Tidy_deallocate@?$basic_string@DU?$char_traits@D@std@@V?$allocator@D@2@@std@@AAEXXZ ; std::basic_string<char,std::char_traits<char>,std::allocator<char> >::_Tidy_deallocate
; File D:\Metin2 Server Files\mainline\SRC_2014\Metin2Client\eterGrnLib\Material.cpp

; 108  : 			return true;

  0012f	8a 45 a6	 mov	 al, BYTE PTR $T3[ebp]
  00132	eb 1f		 jmp	 SHORT $LN1@IsIn
$LN5@IsIn:

; 109  : 		}
; 110  : 	}

  00134	c6 45 fc 00	 mov	 BYTE PTR __$EHRec$[ebp+8], 0
; File C:\Program Files (x86)\Microsoft Visual Studio\2019\Community\VC\Tools\MSVC\14.28.29333\include\xstring

; 2801 :         _Tidy_deallocate();

  00138	8d 4d a8	 lea	 ecx, DWORD PTR _strOpacityFileName$5[ebp]
  0013b	e8 00 00 00 00	 call	 ?_Tidy_deallocate@?$basic_string@DU?$char_traits@D@std@@V?$allocator@D@2@@std@@AAEXXZ ; std::basic_string<char,std::char_traits<char>,std::allocator<char> >::_Tidy_deallocate
$LN4@IsIn:
; File D:\Metin2 Server Files\mainline\SRC_2014\Metin2Client\eterGrnLib\Material.cpp

; 112  : 	return false;

  00140	c6 45 a5 00	 mov	 BYTE PTR $T2[ebp], 0
  00144	83 4d fc ff	 or	 DWORD PTR __$EHRec$[ebp+8], -1
; File C:\Program Files (x86)\Microsoft Visual Studio\2019\Community\VC\Tools\MSVC\14.28.29333\include\xstring

; 2801 :         _Tidy_deallocate();

  00148	8d 4d d8	 lea	 ecx, DWORD PTR _strImageName$[ebp]
  0014b	e8 00 00 00 00	 call	 ?_Tidy_deallocate@?$basic_string@DU?$char_traits@D@std@@V?$allocator@D@2@@std@@AAEXXZ ; std::basic_string<char,std::char_traits<char>,std::allocator<char> >::_Tidy_deallocate
; File D:\Metin2 Server Files\mainline\SRC_2014\Metin2Client\eterGrnLib\Material.cpp

; 112  : 	return false;

  00150	8a 45 a5	 mov	 al, BYTE PTR $T2[ebp]
$LN1@IsIn:

; 113  : }

  00153	8b 4d f4	 mov	 ecx, DWORD PTR __$EHRec$[ebp]
  00156	64 89 0d 00 00
	00 00		 mov	 DWORD PTR fs:0, ecx
  0015d	59		 pop	 ecx
  0015e	8b 4d f0	 mov	 ecx, DWORD PTR __$ArrayPad$[ebp]
  00161	33 cd		 xor	 ecx, ebp
  00163	e8 00 00 00 00	 call	 @__security_check_cookie@4
  00168	c9		 leave
  00169	c2 08 00	 ret	 8
_TEXT	ENDS
;	COMDAT text$x
text$x	SEGMENT
__unwindfunclet$?IsIn@CGrannyMaterial@@QAE_NPBDPAH@Z$0:
  00000	8d 4d d8	 lea	 ecx, DWORD PTR _strImageName$[ebp]
  00003	e9 00 00 00 00	 jmp	 ??1?$basic_string@DU?$char_traits@D@std@@V?$allocator@D@2@@std@@QAE@XZ ; std::basic_string<char,std::char_traits<char>,std::allocator<char> >::~basic_string<char,std::char_traits<char>,std::allocator<char> >
__unwindfunclet$?IsIn@CGrannyMaterial@@QAE_NPBDPAH@Z$1:
  00008	8d 4d c0	 lea	 ecx, DWORD PTR _strDiffuseFileName$6[ebp]
  0000b	e9 00 00 00 00	 jmp	 ??1?$basic_string@DU?$char_traits@D@std@@V?$allocator@D@2@@std@@QAE@XZ ; std::basic_string<char,std::char_traits<char>,std::allocator<char> >::~basic_string<char,std::char_traits<char>,std::allocator<char> >
__unwindfunclet$?IsIn@CGrannyMaterial@@QAE_NPBDPAH@Z$2:
  00010	8d 4d a8	 lea	 ecx, DWORD PTR _strOpacityFileName$5[ebp]
  00013	e9 00 00 00 00	 jmp	 ??1?$basic_string@DU?$char_traits@D@std@@V?$allocator@D@2@@std@@QAE@XZ ; std::basic_string<char,std::char_traits<char>,std::allocator<char> >::~basic_string<char,std::char_traits<char>,std::allocator<char> >
  00018	cc		 int	 3
  00019	cc		 int	 3
  0001a	cc		 int	 3
  0001b	cc		 int	 3
  0001c	cc		 int	 3
__ehhandler$?IsIn@CGrannyMaterial@@QAE_NPBDPAH@Z:
  0001d	90		 npad	 1
  0001e	90		 npad	 1
  0001f	8b 54 24 08	 mov	 edx, DWORD PTR [esp+8]
  00023	8d 42 0c	 lea	 eax, DWORD PTR [edx+12]
  00026	8b 4a a0	 mov	 ecx, DWORD PTR [edx-96]
  00029	33 c8		 xor	 ecx, eax
  0002b	e8 00 00 00 00	 call	 @__security_check_cookie@4
  00030	8b 4a fc	 mov	 ecx, DWORD PTR [edx-4]
  00033	33 c8		 xor	 ecx, eax
  00035	e8 00 00 00 00	 call	 @__security_check_cookie@4
  0003a	b8 00 00 00 00	 mov	 eax, OFFSET __ehfuncinfo$?IsIn@CGrannyMaterial@@QAE_NPBDPAH@Z
  0003f	e9 00 00 00 00	 jmp	 ___CxxFrameHandler3
text$x	ENDS
?IsIn@CGrannyMaterial@@QAE_NPBDPAH@Z ENDP		; CGrannyMaterial::IsIn
; Function compile flags: /Odspy
; File D:\Metin2 Server Files\mainline\SRC_2014\Metin2Client\eterGrnLib\Material.cpp
;	COMDAT ?IsEqual@CGrannyMaterial@@QBE_NPAUgranny_material@@@Z
_TEXT	SEGMENT
_this$ = -4						; size = 4
_pgrnMaterial$ = 8					; size = 4
?IsEqual@CGrannyMaterial@@QBE_NPAUgranny_material@@@Z PROC ; CGrannyMaterial::IsEqual, COMDAT
; _this$ = ecx

; 134  : {

  00000	55		 push	 ebp
  00001	8b ec		 mov	 ebp, esp
  00003	51		 push	 ecx
  00004	89 4d fc	 mov	 DWORD PTR _this$[ebp], ecx

; 135  : 	if (m_pgrnMaterial==pgrnMaterial)

  00007	8b 45 fc	 mov	 eax, DWORD PTR _this$[ebp]
  0000a	8b 40 0c	 mov	 eax, DWORD PTR [eax+12]
  0000d	3b 45 08	 cmp	 eax, DWORD PTR _pgrnMaterial$[ebp]
  00010	75 04		 jne	 SHORT $LN2@IsEqual

; 136  : 		return true;

  00012	b0 01		 mov	 al, 1
  00014	eb 02		 jmp	 SHORT $LN1@IsEqual
$LN2@IsEqual:

; 137  : 
; 138  : 	return false;

  00016	32 c0		 xor	 al, al
$LN1@IsEqual:

; 139  : }

  00018	c9		 leave
  00019	c2 04 00	 ret	 4
?IsEqual@CGrannyMaterial@@QBE_NPAUgranny_material@@@Z ENDP ; CGrannyMaterial::IsEqual
_TEXT	ENDS
; Function compile flags: /Odspy
; File D:\Metin2 Server Files\mainline\SRC_2014\Metin2Client\eterGrnLib\Material.cpp
; File D:\Metin2 Server Files\mainline\SRC_2014\Metin2Client\eterlib\Ref.h
; File D:\Metin2 Server Files\mainline\SRC_2014\Metin2Client\eterGrnLib\Material.cpp
; File D:\Metin2 Server Files\mainline\SRC_2014\Metin2Client\eterlib\Ref.h
; File D:\Metin2 Server Files\mainline\SRC_2014\Metin2Client\eterGrnLib\Material.cpp
; File D:\Metin2 Server Files\mainline\SRC_2014\Metin2Client\eterlib\Ref.h
; File D:\Metin2 Server Files\mainline\SRC_2014\Metin2Client\eterGrnLib\Material.cpp
; File D:\Metin2 Server Files\mainline\SRC_2014\Metin2Client\eterlib\Ref.h
; File D:\Metin2 Server Files\mainline\SRC_2014\Metin2Client\eterGrnLib\Material.cpp
;	COMDAT ?Copy@CGrannyMaterial@@QAEXAAV1@@Z
_TEXT	SEGMENT
_this$ = -4						; size = 4
_rkMtrl$ = 8						; size = 4
?Copy@CGrannyMaterial@@QAEXAAV1@@Z PROC			; CGrannyMaterial::Copy, COMDAT
; _this$ = ecx

; 53   : {

  00000	55		 push	 ebp
  00001	8b ec		 mov	 ebp, esp
  00003	51		 push	 ecx
  00004	89 4d fc	 mov	 DWORD PTR _this$[ebp], ecx

; 54   : 	m_pgrnMaterial = rkMtrl.m_pgrnMaterial;

  00007	8b 45 fc	 mov	 eax, DWORD PTR _this$[ebp]
  0000a	8b 4d 08	 mov	 ecx, DWORD PTR _rkMtrl$[ebp]
  0000d	8b 49 0c	 mov	 ecx, DWORD PTR [ecx+12]
  00010	89 48 0c	 mov	 DWORD PTR [eax+12], ecx

; 55   : 	m_roImage[0] =  rkMtrl.m_roImage[0];

  00013	6a 04		 push	 4
  00015	58		 pop	 eax
  00016	6b c0 00	 imul	 eax, eax, 0
; File D:\Metin2 Server Files\mainline\SRC_2014\Metin2Client\eterlib\Ref.h

; 48   : 			SetPointer(c_rRef.m_pObject);			

  00019	8b 4d 08	 mov	 ecx, DWORD PTR _rkMtrl$[ebp]
  0001c	ff 74 01 10	 push	 DWORD PTR [ecx+eax+16]
; File D:\Metin2 Server Files\mainline\SRC_2014\Metin2Client\eterGrnLib\Material.cpp

; 55   : 	m_roImage[0] =  rkMtrl.m_roImage[0];

  00020	6a 04		 push	 4
  00022	58		 pop	 eax
  00023	6b c0 00	 imul	 eax, eax, 0
  00026	8b 4d fc	 mov	 ecx, DWORD PTR _this$[ebp]
  00029	8d 4c 01 10	 lea	 ecx, DWORD PTR [ecx+eax+16]
; File D:\Metin2 Server Files\mainline\SRC_2014\Metin2Client\eterlib\Ref.h

; 48   : 			SetPointer(c_rRef.m_pObject);			

  0002d	e8 00 00 00 00	 call	 ?SetPointer@?$CRef@VCGraphicImage@@@@QAEXPAVCReferenceObject@@@Z ; CRef<CGraphicImage>::SetPointer
; File D:\Metin2 Server Files\mainline\SRC_2014\Metin2Client\eterGrnLib\Material.cpp

; 56   : 	m_roImage[1] =  rkMtrl.m_roImage[1];

  00032	6a 04		 push	 4
  00034	58		 pop	 eax
  00035	c1 e0 00	 shl	 eax, 0
; File D:\Metin2 Server Files\mainline\SRC_2014\Metin2Client\eterlib\Ref.h

; 48   : 			SetPointer(c_rRef.m_pObject);			

  00038	8b 4d 08	 mov	 ecx, DWORD PTR _rkMtrl$[ebp]
  0003b	ff 74 01 10	 push	 DWORD PTR [ecx+eax+16]
; File D:\Metin2 Server Files\mainline\SRC_2014\Metin2Client\eterGrnLib\Material.cpp

; 56   : 	m_roImage[1] =  rkMtrl.m_roImage[1];

  0003f	6a 04		 push	 4
  00041	58		 pop	 eax
  00042	c1 e0 00	 shl	 eax, 0
  00045	8b 4d fc	 mov	 ecx, DWORD PTR _this$[ebp]
  00048	8d 4c 01 10	 lea	 ecx, DWORD PTR [ecx+eax+16]
; File D:\Metin2 Server Files\mainline\SRC_2014\Metin2Client\eterlib\Ref.h

; 48   : 			SetPointer(c_rRef.m_pObject);			

  0004c	e8 00 00 00 00	 call	 ?SetPointer@?$CRef@VCGraphicImage@@@@QAEXPAVCReferenceObject@@@Z ; CRef<CGraphicImage>::SetPointer
; File D:\Metin2 Server Files\mainline\SRC_2014\Metin2Client\eterGrnLib\Material.cpp

; 57   :     m_eType = rkMtrl.m_eType;	

  00051	8b 45 fc	 mov	 eax, DWORD PTR _this$[ebp]
  00054	8b 4d 08	 mov	 ecx, DWORD PTR _rkMtrl$[ebp]
  00057	8b 49 18	 mov	 ecx, DWORD PTR [ecx+24]
  0005a	89 48 18	 mov	 DWORD PTR [eax+24], ecx

; 58   : }

  0005d	c9		 leave
  0005e	c2 04 00	 ret	 4
?Copy@CGrannyMaterial@@QAEXAAV1@@Z ENDP			; CGrannyMaterial::Copy
_TEXT	ENDS
; Function compile flags: /Odspy
; File D:\Metin2 Server Files\mainline\SRC_2014\Metin2Client\eterGrnLib\Material.cpp
;	COMDAT ??1CGrannyMaterial@@UAE@XZ
_TEXT	SEGMENT
_this$ = -16						; size = 4
__$EHRec$ = -12						; size = 12
??1CGrannyMaterial@@UAE@XZ PROC				; CGrannyMaterial::~CGrannyMaterial, COMDAT
; _this$ = ecx

; 69   : {

  00000	55		 push	 ebp
  00001	8b ec		 mov	 ebp, esp
  00003	6a ff		 push	 -1
  00005	68 00 00 00 00	 push	 __ehhandler$??1CGrannyMaterial@@UAE@XZ
  0000a	64 a1 00 00 00
	00		 mov	 eax, DWORD PTR fs:0
  00010	50		 push	 eax
  00011	51		 push	 ecx
  00012	a1 00 00 00 00	 mov	 eax, DWORD PTR ___security_cookie
  00017	33 c5		 xor	 eax, ebp
  00019	50		 push	 eax
  0001a	8d 45 f4	 lea	 eax, DWORD PTR __$EHRec$[ebp]
  0001d	64 a3 00 00 00
	00		 mov	 DWORD PTR fs:0, eax
  00023	89 4d f0	 mov	 DWORD PTR _this$[ebp], ecx
  00026	8b 45 f0	 mov	 eax, DWORD PTR _this$[ebp]
  00029	c7 00 00 00 00
	00		 mov	 DWORD PTR [eax], OFFSET ??_7CGrannyMaterial@@6B@

; 70   : }

  0002f	68 00 00 00 00	 push	 OFFSET ??1?$CRef@VCGraphicImage@@@@QAE@XZ ; CRef<CGraphicImage>::~CRef<CGraphicImage>
  00034	6a 02		 push	 2
  00036	6a 04		 push	 4
  00038	8b 45 f0	 mov	 eax, DWORD PTR _this$[ebp]
  0003b	83 c0 10	 add	 eax, 16			; 00000010H
  0003e	50		 push	 eax
  0003f	e8 00 00 00 00	 call	 ??_M@YGXPAXIIP6EX0@Z@Z
  00044	8b 4d f0	 mov	 ecx, DWORD PTR _this$[ebp]
  00047	e8 00 00 00 00	 call	 ??1CReferenceObject@@UAE@XZ ; CReferenceObject::~CReferenceObject
  0004c	8b 4d f4	 mov	 ecx, DWORD PTR __$EHRec$[ebp]
  0004f	64 89 0d 00 00
	00 00		 mov	 DWORD PTR fs:0, ecx
  00056	59		 pop	 ecx
  00057	c9		 leave
  00058	c3		 ret	 0
  00059	cc		 int	 3
  0005a	cc		 int	 3
  0005b	cc		 int	 3
  0005c	cc		 int	 3
  0005d	cc		 int	 3
_TEXT	ENDS
;	COMDAT text$x
text$x	SEGMENT
__ehhandler$??1CGrannyMaterial@@UAE@XZ:
  00000	90		 npad	 1
  00001	90		 npad	 1
  00002	8b 54 24 08	 mov	 edx, DWORD PTR [esp+8]
  00006	8d 42 0c	 lea	 eax, DWORD PTR [edx+12]
  00009	8b 4a f8	 mov	 ecx, DWORD PTR [edx-8]
  0000c	33 c8		 xor	 ecx, eax
  0000e	e8 00 00 00 00	 call	 @__security_check_cookie@4
  00013	b8 00 00 00 00	 mov	 eax, OFFSET __ehfuncinfo$??1CGrannyMaterial@@UAE@XZ
  00018	e9 00 00 00 00	 jmp	 ___CxxFrameHandler3
text$x	ENDS
??1CGrannyMaterial@@UAE@XZ ENDP				; CGrannyMaterial::~CGrannyMaterial
; Function compile flags: /Odspy
; File D:\Metin2 Server Files\mainline\SRC_2014\Metin2Client\eterGrnLib\Material.cpp
;	COMDAT ??0CGrannyMaterial@@QAE@XZ
_TEXT	SEGMENT
_this$ = -16						; size = 4
__$EHRec$ = -12						; size = 12
??0CGrannyMaterial@@QAE@XZ PROC				; CGrannyMaterial::CGrannyMaterial, COMDAT
; _this$ = ecx

; 61   : {

  00000	55		 push	 ebp
  00001	8b ec		 mov	 ebp, esp
  00003	6a ff		 push	 -1
  00005	68 00 00 00 00	 push	 __ehhandler$??0CGrannyMaterial@@QAE@XZ
  0000a	64 a1 00 00 00
	00		 mov	 eax, DWORD PTR fs:0
  00010	50		 push	 eax
  00011	51		 push	 ecx
  00012	a1 00 00 00 00	 mov	 eax, DWORD PTR ___security_cookie
  00017	33 c5		 xor	 eax, ebp
  00019	50		 push	 eax
  0001a	8d 45 f4	 lea	 eax, DWORD PTR __$EHRec$[ebp]
  0001d	64 a3 00 00 00
	00		 mov	 DWORD PTR fs:0, eax
  00023	89 4d f0	 mov	 DWORD PTR _this$[ebp], ecx
  00026	8b 4d f0	 mov	 ecx, DWORD PTR _this$[ebp]
  00029	e8 00 00 00 00	 call	 ??0CReferenceObject@@QAE@XZ ; CReferenceObject::CReferenceObject
  0002e	83 65 fc 00	 and	 DWORD PTR __$EHRec$[ebp+8], 0
  00032	8b 45 f0	 mov	 eax, DWORD PTR _this$[ebp]
  00035	c7 00 00 00 00
	00		 mov	 DWORD PTR [eax], OFFSET ??_7CGrannyMaterial@@6B@
  0003b	68 00 00 00 00	 push	 OFFSET ??1?$CRef@VCGraphicImage@@@@QAE@XZ ; CRef<CGraphicImage>::~CRef<CGraphicImage>
  00040	68 00 00 00 00	 push	 OFFSET ??0?$CRef@VCGraphicImage@@@@QAE@XZ ; CRef<CGraphicImage>::CRef<CGraphicImage>
  00045	6a 02		 push	 2
  00047	6a 04		 push	 4
  00049	8b 45 f0	 mov	 eax, DWORD PTR _this$[ebp]
  0004c	83 c0 10	 add	 eax, 16			; 00000010H
  0004f	50		 push	 eax
  00050	e8 00 00 00 00	 call	 ??_L@YGXPAXIIP6EX0@Z1@Z
  00055	c6 45 fc 01	 mov	 BYTE PTR __$EHRec$[ebp+8], 1

; 62   : 	m_bTwoSideRender = false;

  00059	8b 45 f0	 mov	 eax, DWORD PTR _this$[ebp]
  0005c	c6 40 24 00	 mov	 BYTE PTR [eax+36], 0

; 63   : 	m_dwLastCullRenderStateForTwoSideRendering = D3DCULL_CW;

  00060	8b 45 f0	 mov	 eax, DWORD PTR _this$[ebp]
  00063	c7 40 28 02 00
	00 00		 mov	 DWORD PTR [eax+40], 2

; 64   : 
; 65   : 	Initialize();

  0006a	8b 4d f0	 mov	 ecx, DWORD PTR _this$[ebp]
  0006d	e8 00 00 00 00	 call	 ?Initialize@CGrannyMaterial@@IAEXXZ ; CGrannyMaterial::Initialize

; 66   : }

  00072	83 4d fc ff	 or	 DWORD PTR __$EHRec$[ebp+8], -1
  00076	8b 45 f0	 mov	 eax, DWORD PTR _this$[ebp]
  00079	8b 4d f4	 mov	 ecx, DWORD PTR __$EHRec$[ebp]
  0007c	64 89 0d 00 00
	00 00		 mov	 DWORD PTR fs:0, ecx
  00083	59		 pop	 ecx
  00084	c9		 leave
  00085	c3		 ret	 0
_TEXT	ENDS
;	COMDAT text$x
text$x	SEGMENT
__unwindfunclet$??0CGrannyMaterial@@QAE@XZ$0:
  00000	8b 4d f0	 mov	 ecx, DWORD PTR _this$[ebp]
  00003	e9 00 00 00 00	 jmp	 ??1CReferenceObject@@UAE@XZ ; CReferenceObject::~CReferenceObject
__unwindfunclet$??0CGrannyMaterial@@QAE@XZ$1:
  00008	68 00 00 00 00	 push	 OFFSET ??1?$CRef@VCGraphicImage@@@@QAE@XZ ; CRef<CGraphicImage>::~CRef<CGraphicImage>
  0000d	6a 02		 push	 2
  0000f	6a 04		 push	 4
  00011	8b 45 f0	 mov	 eax, DWORD PTR _this$[ebp]
  00014	83 c0 10	 add	 eax, 16			; 00000010H
  00017	50		 push	 eax
  00018	e8 00 00 00 00	 call	 ??_M@YGXPAXIIP6EX0@Z@Z
  0001d	c3		 ret	 0
  0001e	cc		 int	 3
  0001f	cc		 int	 3
  00020	cc		 int	 3
  00021	cc		 int	 3
  00022	cc		 int	 3
__ehhandler$??0CGrannyMaterial@@QAE@XZ:
  00023	90		 npad	 1
  00024	90		 npad	 1
  00025	8b 54 24 08	 mov	 edx, DWORD PTR [esp+8]
  00029	8d 42 0c	 lea	 eax, DWORD PTR [edx+12]
  0002c	8b 4a f8	 mov	 ecx, DWORD PTR [edx-8]
  0002f	33 c8		 xor	 ecx, eax
  00031	e8 00 00 00 00	 call	 @__security_check_cookie@4
  00036	b8 00 00 00 00	 mov	 eax, OFFSET __ehfuncinfo$??0CGrannyMaterial@@QAE@XZ
  0003b	e9 00 00 00 00	 jmp	 ___CxxFrameHandler3
text$x	ENDS
??0CGrannyMaterial@@QAE@XZ ENDP				; CGrannyMaterial::CGrannyMaterial
; Function compile flags: /Odspy
; File D:\Metin2 Server Files\mainline\SRC_2014\Metin2Client\eterGrnLib\Material.cpp
;	COMDAT ?TranslateSpecularMatrix@CGrannyMaterial@@SAXMMM@Z
_TEXT	SEGMENT
_fAddX$ = 8						; size = 4
_fAddY$ = 12						; size = 4
_fAddZ$ = 16						; size = 4
?TranslateSpecularMatrix@CGrannyMaterial@@SAXMMM@Z PROC	; CGrannyMaterial::TranslateSpecularMatrix, COMDAT

; 17   : {

  00000	55		 push	 ebp
  00001	8b ec		 mov	 ebp, esp

; 18   : 	static float SPECULAR_TRANSLATE_MAX = 1000000.0f;
; 19   : 
; 20   : 	ms_v3SpecularTrans.x+=fAddX;

  00003	f3 0f 10 05 00
	00 00 00	 movss	 xmm0, DWORD PTR ?ms_v3SpecularTrans@CGrannyMaterial@@0UD3DXVECTOR3@@A
  0000b	f3 0f 58 45 08	 addss	 xmm0, DWORD PTR _fAddX$[ebp]
  00010	f3 0f 11 05 00
	00 00 00	 movss	 DWORD PTR ?ms_v3SpecularTrans@CGrannyMaterial@@0UD3DXVECTOR3@@A, xmm0

; 21   : 	ms_v3SpecularTrans.y+=fAddY;

  00018	f3 0f 10 05 04
	00 00 00	 movss	 xmm0, DWORD PTR ?ms_v3SpecularTrans@CGrannyMaterial@@0UD3DXVECTOR3@@A+4
  00020	f3 0f 58 45 0c	 addss	 xmm0, DWORD PTR _fAddY$[ebp]
  00025	f3 0f 11 05 04
	00 00 00	 movss	 DWORD PTR ?ms_v3SpecularTrans@CGrannyMaterial@@0UD3DXVECTOR3@@A+4, xmm0

; 22   : 	ms_v3SpecularTrans.z+=fAddZ;

  0002d	f3 0f 10 05 08
	00 00 00	 movss	 xmm0, DWORD PTR ?ms_v3SpecularTrans@CGrannyMaterial@@0UD3DXVECTOR3@@A+8
  00035	f3 0f 58 45 10	 addss	 xmm0, DWORD PTR _fAddZ$[ebp]
  0003a	f3 0f 11 05 08
	00 00 00	 movss	 DWORD PTR ?ms_v3SpecularTrans@CGrannyMaterial@@0UD3DXVECTOR3@@A+8, xmm0

; 23   : 
; 24   : 	if (ms_v3SpecularTrans.x>=SPECULAR_TRANSLATE_MAX)

  00042	f3 0f 10 05 00
	00 00 00	 movss	 xmm0, DWORD PTR ?ms_v3SpecularTrans@CGrannyMaterial@@0UD3DXVECTOR3@@A
  0004a	0f 2f 05 00 00
	00 00		 comiss	 xmm0, DWORD PTR ?SPECULAR_TRANSLATE_MAX@?1??TranslateSpecularMatrix@CGrannyMaterial@@SAXMMM@Z@4MA
  00051	72 0b		 jb	 SHORT $LN2@TranslateS

; 25   : 		ms_v3SpecularTrans.x=0.0f;

  00053	0f 57 c0	 xorps	 xmm0, xmm0
  00056	f3 0f 11 05 00
	00 00 00	 movss	 DWORD PTR ?ms_v3SpecularTrans@CGrannyMaterial@@0UD3DXVECTOR3@@A, xmm0
$LN2@TranslateS:

; 26   : 
; 27   : 	if (ms_v3SpecularTrans.y>=SPECULAR_TRANSLATE_MAX)

  0005e	f3 0f 10 05 04
	00 00 00	 movss	 xmm0, DWORD PTR ?ms_v3SpecularTrans@CGrannyMaterial@@0UD3DXVECTOR3@@A+4
  00066	0f 2f 05 00 00
	00 00		 comiss	 xmm0, DWORD PTR ?SPECULAR_TRANSLATE_MAX@?1??TranslateSpecularMatrix@CGrannyMaterial@@SAXMMM@Z@4MA
  0006d	72 0b		 jb	 SHORT $LN3@TranslateS

; 28   : 		ms_v3SpecularTrans.y=0.0f;

  0006f	0f 57 c0	 xorps	 xmm0, xmm0
  00072	f3 0f 11 05 04
	00 00 00	 movss	 DWORD PTR ?ms_v3SpecularTrans@CGrannyMaterial@@0UD3DXVECTOR3@@A+4, xmm0
$LN3@TranslateS:

; 29   : 
; 30   : 	if (ms_v3SpecularTrans.z>=SPECULAR_TRANSLATE_MAX)

  0007a	f3 0f 10 05 08
	00 00 00	 movss	 xmm0, DWORD PTR ?ms_v3SpecularTrans@CGrannyMaterial@@0UD3DXVECTOR3@@A+8
  00082	0f 2f 05 00 00
	00 00		 comiss	 xmm0, DWORD PTR ?SPECULAR_TRANSLATE_MAX@?1??TranslateSpecularMatrix@CGrannyMaterial@@SAXMMM@Z@4MA
  00089	72 0b		 jb	 SHORT $LN4@TranslateS

; 31   : 		ms_v3SpecularTrans.z=0.0f;

  0008b	0f 57 c0	 xorps	 xmm0, xmm0
  0008e	f3 0f 11 05 08
	00 00 00	 movss	 DWORD PTR ?ms_v3SpecularTrans@CGrannyMaterial@@0UD3DXVECTOR3@@A+8, xmm0
$LN4@TranslateS:

; 32   : 
; 33   : 	D3DXMatrixTranslation(&ms_matSpecular, 

  00096	51		 push	 ecx
  00097	f3 0f 10 05 08
	00 00 00	 movss	 xmm0, DWORD PTR ?ms_v3SpecularTrans@CGrannyMaterial@@0UD3DXVECTOR3@@A+8
  0009f	f3 0f 11 04 24	 movss	 DWORD PTR [esp], xmm0
  000a4	51		 push	 ecx
  000a5	f3 0f 10 05 04
	00 00 00	 movss	 xmm0, DWORD PTR ?ms_v3SpecularTrans@CGrannyMaterial@@0UD3DXVECTOR3@@A+4
  000ad	f3 0f 11 04 24	 movss	 DWORD PTR [esp], xmm0
  000b2	51		 push	 ecx
  000b3	f3 0f 10 05 00
	00 00 00	 movss	 xmm0, DWORD PTR ?ms_v3SpecularTrans@CGrannyMaterial@@0UD3DXVECTOR3@@A
  000bb	f3 0f 11 04 24	 movss	 DWORD PTR [esp], xmm0
  000c0	68 00 00 00 00	 push	 OFFSET ?ms_matSpecular@CGrannyMaterial@@0UD3DXMATRIX@@A ; CGrannyMaterial::ms_matSpecular
  000c5	e8 00 00 00 00	 call	 _D3DXMatrixTranslation@16

; 34   : 		ms_v3SpecularTrans.x, 
; 35   : 		ms_v3SpecularTrans.y, 
; 36   : 		ms_v3SpecularTrans.z
; 37   : 	);
; 38   : }

  000ca	5d		 pop	 ebp
  000cb	c3		 ret	 0
?TranslateSpecularMatrix@CGrannyMaterial@@SAXMMM@Z ENDP	; CGrannyMaterial::TranslateSpecularMatrix
_TEXT	ENDS
; Function compile flags: /Odspy
; File D:\Metin2 Server Files\mainline\SRC_2014\Metin2Client\eterGrnLib\Material.cpp
;	COMDAT ?DestroySphereMap@CGrannyMaterial@@SAXXZ
_TEXT	SEGMENT
_uMapIndex$1 = -4					; size = 4
?DestroySphereMap@CGrannyMaterial@@SAXXZ PROC		; CGrannyMaterial::DestroySphereMap, COMDAT

; 375  : {

  00000	55		 push	 ebp
  00001	8b ec		 mov	 ebp, esp
  00003	51		 push	 ecx

; 376  : 	for (UINT uMapIndex=0; uMapIndex<SPHEREMAP_NUM; ++uMapIndex)

  00004	83 65 fc 00	 and	 DWORD PTR _uMapIndex$1[ebp], 0
  00008	eb 07		 jmp	 SHORT $LN4@DestroySph
$LN2@DestroySph:
  0000a	8b 45 fc	 mov	 eax, DWORD PTR _uMapIndex$1[ebp]
  0000d	40		 inc	 eax
  0000e	89 45 fc	 mov	 DWORD PTR _uMapIndex$1[ebp], eax
$LN4@DestroySph:
  00011	83 7d fc 0a	 cmp	 DWORD PTR _uMapIndex$1[ebp], 10 ; 0000000aH
  00015	73 13		 jae	 SHORT $LN1@DestroySph

; 377  : 		ms_akSphereMapInstance[uMapIndex].Destroy();

  00017	8b 4d fc	 mov	 ecx, DWORD PTR _uMapIndex$1[ebp]
  0001a	c1 e1 05	 shl	 ecx, 5
  0001d	81 c1 00 00 00
	00		 add	 ecx, OFFSET ?ms_akSphereMapInstance@CGrannyMaterial@@0PAVCGraphicImageInstance@@A ; CGrannyMaterial::ms_akSphereMapInstance
  00023	e8 00 00 00 00	 call	 ?Destroy@CGraphicImageInstance@@QAEXXZ ; CGraphicImageInstance::Destroy
  00028	eb e0		 jmp	 SHORT $LN2@DestroySph
$LN1@DestroySph:

; 378  : }

  0002a	c9		 leave
  0002b	c3		 ret	 0
?DestroySphereMap@CGrannyMaterial@@SAXXZ ENDP		; CGrannyMaterial::DestroySphereMap
_TEXT	ENDS
; Function compile flags: /Odspy
; File D:\Metin2 Server Files\mainline\SRC_2014\Metin2Client\eterGrnLib\Material.cpp
;	COMDAT ?CreateSphereMap@CGrannyMaterial@@SAXIPBD@Z
_TEXT	SEGMENT
_pImage$ = -8						; size = 4
_rkResMgr$ = -4						; size = 4
_uMapIndex$ = 8						; size = 4
_c_szSphereMapImageFileName$ = 12			; size = 4
?CreateSphereMap@CGrannyMaterial@@SAXIPBD@Z PROC	; CGrannyMaterial::CreateSphereMap, COMDAT

; 368  : {

  00000	55		 push	 ebp
  00001	8b ec		 mov	 ebp, esp
  00003	51		 push	 ecx
  00004	51		 push	 ecx

; 369  : 	CResourceManager& rkResMgr = CResourceManager::Instance();

  00005	a1 00 00 00 00	 mov	 eax, DWORD PTR ?ms_singleton@?$CSingleton@VCResourceManager@@@@0PAVCResourceManager@@A ; CSingleton<CResourceManager>::ms_singleton
  0000a	89 45 fc	 mov	 DWORD PTR _rkResMgr$[ebp], eax

; 370  : 	CGraphicImage * pImage = (CGraphicImage *)rkResMgr.GetResourcePointer(c_szSphereMapImageFileName);

  0000d	ff 75 0c	 push	 DWORD PTR _c_szSphereMapImageFileName$[ebp]
  00010	8b 4d fc	 mov	 ecx, DWORD PTR _rkResMgr$[ebp]
  00013	e8 00 00 00 00	 call	 ?GetResourcePointer@CResourceManager@@QAEPAVCResource@@PBD@Z ; CResourceManager::GetResourcePointer
  00018	89 45 f8	 mov	 DWORD PTR _pImage$[ebp], eax

; 371  : 	ms_akSphereMapInstance[uMapIndex].SetImagePointer(pImage);

  0001b	ff 75 f8	 push	 DWORD PTR _pImage$[ebp]
  0001e	8b 4d 08	 mov	 ecx, DWORD PTR _uMapIndex$[ebp]
  00021	c1 e1 05	 shl	 ecx, 5
  00024	81 c1 00 00 00
	00		 add	 ecx, OFFSET ?ms_akSphereMapInstance@CGrannyMaterial@@0PAVCGraphicImageInstance@@A ; CGrannyMaterial::ms_akSphereMapInstance
  0002a	e8 00 00 00 00	 call	 ?SetImagePointer@CGraphicImageInstance@@QAEXPAVCGraphicImage@@@Z ; CGraphicImageInstance::SetImagePointer

; 372  : }

  0002f	c9		 leave
  00030	c3		 ret	 0
?CreateSphereMap@CGrannyMaterial@@SAXIPBD@Z ENDP	; CGrannyMaterial::CreateSphereMap
_TEXT	ENDS
; Function compile flags: /Odspy
; File D:\Metin2 Server Files\mainline\SRC_2014\Metin2Client\eterlib\Ref.h
;	COMDAT ?SetPointer@?$CRef@VCGraphicImage@@@@QAEXPAVCReferenceObject@@@Z
_TEXT	SEGMENT
_pOldObject$ = -8					; size = 4
_this$ = -4						; size = 4
_pObject$ = 8						; size = 4
?SetPointer@?$CRef@VCGraphicImage@@@@QAEXPAVCReferenceObject@@@Z PROC ; CRef<CGraphicImage>::SetPointer, COMDAT
; _this$ = ecx

; 66   : 		{

  00000	55		 push	 ebp
  00001	8b ec		 mov	 ebp, esp
  00003	51		 push	 ecx
  00004	51		 push	 ecx
  00005	89 4d fc	 mov	 DWORD PTR _this$[ebp], ecx

; 67   : 			CReferenceObject* pOldObject = m_pObject;

  00008	8b 45 fc	 mov	 eax, DWORD PTR _this$[ebp]
  0000b	8b 00		 mov	 eax, DWORD PTR [eax]
  0000d	89 45 f8	 mov	 DWORD PTR _pOldObject$[ebp], eax

; 68   : 
; 69   : 			m_pObject = pObject;

  00010	8b 45 fc	 mov	 eax, DWORD PTR _this$[ebp]
  00013	8b 4d 08	 mov	 ecx, DWORD PTR _pObject$[ebp]
  00016	89 08		 mov	 DWORD PTR [eax], ecx

; 70   : 
; 71   : 			if (m_pObject)

  00018	8b 45 fc	 mov	 eax, DWORD PTR _this$[ebp]
  0001b	83 38 00	 cmp	 DWORD PTR [eax], 0
  0001e	74 0a		 je	 SHORT $LN2@SetPointer

; 72   : 				m_pObject->AddReference();

  00020	8b 45 fc	 mov	 eax, DWORD PTR _this$[ebp]
  00023	8b 08		 mov	 ecx, DWORD PTR [eax]
  00025	e8 00 00 00 00	 call	 ?AddReference@CReferenceObject@@QAEXXZ ; CReferenceObject::AddReference
$LN2@SetPointer:

; 73   : 
; 74   : 			if (pOldObject)

  0002a	83 7d f8 00	 cmp	 DWORD PTR _pOldObject$[ebp], 0
  0002e	74 08		 je	 SHORT $LN1@SetPointer

; 75   : 				pOldObject->Release();

  00030	8b 4d f8	 mov	 ecx, DWORD PTR _pOldObject$[ebp]
  00033	e8 00 00 00 00	 call	 ?Release@CReferenceObject@@QAEXXZ ; CReferenceObject::Release
$LN1@SetPointer:

; 76   : 		}

  00038	c9		 leave
  00039	c2 04 00	 ret	 4
?SetPointer@?$CRef@VCGraphicImage@@@@QAEXPAVCReferenceObject@@@Z ENDP ; CRef<CGraphicImage>::SetPointer
_TEXT	ENDS
; Function compile flags: /Odspy
; File D:\Metin2 Server Files\mainline\SRC_2014\Metin2Client\eterlib\Ref.h
;	COMDAT ??1?$CRef@VCGraphicImage@@@@QAE@XZ
_TEXT	SEGMENT
_this$ = -16						; size = 4
__$EHRec$ = -12						; size = 12
??1?$CRef@VCGraphicImage@@@@QAE@XZ PROC			; CRef<CGraphicImage>::~CRef<CGraphicImage>, COMDAT
; _this$ = ecx

; 37   : 		{

  00000	55		 push	 ebp
  00001	8b ec		 mov	 ebp, esp
  00003	6a ff		 push	 -1
  00005	68 00 00 00 00	 push	 __ehhandler$??1?$CRef@VCGraphicImage@@@@QAE@XZ
  0000a	64 a1 00 00 00
	00		 mov	 eax, DWORD PTR fs:0
  00010	50		 push	 eax
  00011	51		 push	 ecx
  00012	a1 00 00 00 00	 mov	 eax, DWORD PTR ___security_cookie
  00017	33 c5		 xor	 eax, ebp
  00019	50		 push	 eax
  0001a	8d 45 f4	 lea	 eax, DWORD PTR __$EHRec$[ebp]
  0001d	64 a3 00 00 00
	00		 mov	 DWORD PTR fs:0, eax
  00023	89 4d f0	 mov	 DWORD PTR _this$[ebp], ecx

; 53   : 			if (m_pObject)

  00026	8b 45 f0	 mov	 eax, DWORD PTR _this$[ebp]
  00029	83 38 00	 cmp	 DWORD PTR [eax], 0
  0002c	74 10		 je	 SHORT $LN2@CRef

; 54   : 			{
; 55   : 				m_pObject->Release();

  0002e	8b 45 f0	 mov	 eax, DWORD PTR _this$[ebp]
  00031	8b 08		 mov	 ecx, DWORD PTR [eax]
  00033	e8 00 00 00 00	 call	 ?Release@CReferenceObject@@QAEXXZ ; CReferenceObject::Release

; 56   : 				m_pObject = NULL;

  00038	8b 45 f0	 mov	 eax, DWORD PTR _this$[ebp]
  0003b	83 20 00	 and	 DWORD PTR [eax], 0
$LN2@CRef:

; 38   : 			Clear();
; 39   : 		}

  0003e	8b 4d f4	 mov	 ecx, DWORD PTR __$EHRec$[ebp]
  00041	64 89 0d 00 00
	00 00		 mov	 DWORD PTR fs:0, ecx
  00048	59		 pop	 ecx
  00049	c9		 leave
  0004a	c3		 ret	 0
  0004b	cc		 int	 3
  0004c	cc		 int	 3
  0004d	cc		 int	 3
  0004e	cc		 int	 3
  0004f	cc		 int	 3
_TEXT	ENDS
;	COMDAT text$x
text$x	SEGMENT
__ehhandler$??1?$CRef@VCGraphicImage@@@@QAE@XZ:
  00000	90		 npad	 1
  00001	90		 npad	 1
  00002	8b 54 24 08	 mov	 edx, DWORD PTR [esp+8]
  00006	8d 42 0c	 lea	 eax, DWORD PTR [edx+12]
  00009	8b 4a f8	 mov	 ecx, DWORD PTR [edx-8]
  0000c	33 c8		 xor	 ecx, eax
  0000e	e8 00 00 00 00	 call	 @__security_check_cookie@4
  00013	b8 00 00 00 00	 mov	 eax, OFFSET __ehfuncinfo$??1?$CRef@VCGraphicImage@@@@QAE@XZ
  00018	e9 00 00 00 00	 jmp	 ___CxxFrameHandler3
text$x	ENDS
??1?$CRef@VCGraphicImage@@@@QAE@XZ ENDP			; CRef<CGraphicImage>::~CRef<CGraphicImage>
; Function compile flags: /Odspy
; File D:\Metin2 Server Files\mainline\SRC_2014\Metin2Client\eterlib\Ref.h
;	COMDAT ??0?$CRef@VCGraphicImage@@@@QAE@XZ
_TEXT	SEGMENT
_this$ = -4						; size = 4
??0?$CRef@VCGraphicImage@@@@QAE@XZ PROC			; CRef<CGraphicImage>::CRef<CGraphicImage>, COMDAT
; _this$ = ecx

; 21   : 		{

  00000	55		 push	 ebp
  00001	8b ec		 mov	 ebp, esp
  00003	51		 push	 ecx
  00004	89 4d fc	 mov	 DWORD PTR _this$[ebp], ecx

; 20   : 		CRef() : m_pObject(NULL)

  00007	8b 45 fc	 mov	 eax, DWORD PTR _this$[ebp]
  0000a	83 20 00	 and	 DWORD PTR [eax], 0

; 22   : 		}

  0000d	8b 45 fc	 mov	 eax, DWORD PTR _this$[ebp]
  00010	c9		 leave
  00011	c3		 ret	 0
??0?$CRef@VCGraphicImage@@@@QAE@XZ ENDP			; CRef<CGraphicImage>::CRef<CGraphicImage>
_TEXT	ENDS
; Function compile flags: /Odspy
; File D:\Metin2 Server Files\mainline\SRC_2014\Metin2Client\eterBase\filename.h
; File C:\Program Files (x86)\Microsoft Visual Studio\2019\Community\VC\Tools\MSVC\14.28.29333\include\xstring
; File D:\Metin2 Server Files\mainline\SRC_2014\Metin2Client\eterBase\filename.h
;	COMDAT ?StringPath@CFileNameHelper@@SAXAAV?$basic_string@DU?$char_traits@D@std@@V?$allocator@D@2@@std@@@Z
_TEXT	SEGMENT
_nLength$ = -8						; size = 4
_i$1 = -4						; size = 4
_str$ = 8						; size = 4
?StringPath@CFileNameHelper@@SAXAAV?$basic_string@DU?$char_traits@D@std@@V?$allocator@D@2@@std@@@Z PROC ; CFileNameHelper::StringPath, COMDAT

; 105  : 	static void StringPath(string& str) {

  00000	55		 push	 ebp
  00001	8b ec		 mov	 ebp, esp
  00003	51		 push	 ecx
  00004	51		 push	 ecx
  00005	53		 push	 ebx
; File C:\Program Files (x86)\Microsoft Visual Studio\2019\Community\VC\Tools\MSVC\14.28.29333\include\xstring

; 3766 :         return _Mypair._Myval2._Mysize;

  00006	8b 45 08	 mov	 eax, DWORD PTR _str$[ebp]
  00009	8b 40 10	 mov	 eax, DWORD PTR [eax+16]
  0000c	89 45 f8	 mov	 DWORD PTR _nLength$[ebp], eax
; File D:\Metin2 Server Files\mainline\SRC_2014\Metin2Client\eterBase\filename.h

; 108  : 		for (size_t i = 0; i<nLength; ++i)

  0000f	83 65 fc 00	 and	 DWORD PTR _i$1[ebp], 0
  00013	eb 07		 jmp	 SHORT $LN4@StringPath
$LN2@StringPath:
  00015	8b 45 fc	 mov	 eax, DWORD PTR _i$1[ebp]
  00018	40		 inc	 eax
  00019	89 45 fc	 mov	 DWORD PTR _i$1[ebp], eax
$LN4@StringPath:
  0001c	8b 45 fc	 mov	 eax, DWORD PTR _i$1[ebp]
  0001f	3b 45 f8	 cmp	 eax, DWORD PTR _nLength$[ebp]
  00022	73 49		 jae	 SHORT $LN1@StringPath

; 109  : 		{
; 110  : 			if (str.at(i) == '\\')

  00024	ff 75 fc	 push	 DWORD PTR _i$1[ebp]
  00027	8b 4d 08	 mov	 ecx, DWORD PTR _str$[ebp]
  0002a	e8 00 00 00 00	 call	 ?at@?$basic_string@DU?$char_traits@D@std@@V?$allocator@D@2@@std@@QAEAADI@Z ; std::basic_string<char,std::char_traits<char>,std::allocator<char> >::at
  0002f	0f be 00	 movsx	 eax, BYTE PTR [eax]
  00032	83 f8 5c	 cmp	 eax, 92			; 0000005cH
  00035	75 10		 jne	 SHORT $LN5@StringPath

; 111  : 				str.at(i) = '/';

  00037	ff 75 fc	 push	 DWORD PTR _i$1[ebp]
  0003a	8b 4d 08	 mov	 ecx, DWORD PTR _str$[ebp]
  0003d	e8 00 00 00 00	 call	 ?at@?$basic_string@DU?$char_traits@D@std@@V?$allocator@D@2@@std@@QAEAADI@Z ; std::basic_string<char,std::char_traits<char>,std::allocator<char> >::at
  00042	c6 00 2f	 mov	 BYTE PTR [eax], 47	; 0000002fH
  00045	eb 24		 jmp	 SHORT $LN6@StringPath
$LN5@StringPath:

; 112  : 			else
; 113  : 				str.at(i) = (char)tolower(str.at(i));

  00047	ff 75 fc	 push	 DWORD PTR _i$1[ebp]
  0004a	8b 4d 08	 mov	 ecx, DWORD PTR _str$[ebp]
  0004d	e8 00 00 00 00	 call	 ?at@?$basic_string@DU?$char_traits@D@std@@V?$allocator@D@2@@std@@QAEAADI@Z ; std::basic_string<char,std::char_traits<char>,std::allocator<char> >::at
  00052	0f be 00	 movsx	 eax, BYTE PTR [eax]
  00055	50		 push	 eax
  00056	e8 00 00 00 00	 call	 _tolower
  0005b	59		 pop	 ecx
  0005c	8b d8		 mov	 ebx, eax
  0005e	ff 75 fc	 push	 DWORD PTR _i$1[ebp]
  00061	8b 4d 08	 mov	 ecx, DWORD PTR _str$[ebp]
  00064	e8 00 00 00 00	 call	 ?at@?$basic_string@DU?$char_traits@D@std@@V?$allocator@D@2@@std@@QAEAADI@Z ; std::basic_string<char,std::char_traits<char>,std::allocator<char> >::at
  00069	88 18		 mov	 BYTE PTR [eax], bl
$LN6@StringPath:

; 114  : 		}

  0006b	eb a8		 jmp	 SHORT $LN2@StringPath
$LN1@StringPath:

; 115  : 	}

  0006d	5b		 pop	 ebx
  0006e	c9		 leave
  0006f	c3		 ret	 0
?StringPath@CFileNameHelper@@SAXAAV?$basic_string@DU?$char_traits@D@std@@V?$allocator@D@2@@std@@@Z ENDP ; CFileNameHelper::StringPath
_TEXT	ENDS
; Function compile flags: /Odspy
;	COMDAT ??1?$_Compressed_pair@V?$allocator@D@std@@V?$_String_val@U?$_Simple_types@D@std@@@2@$00@std@@QAE@XZ
_TEXT	SEGMENT
_this$ = -4						; size = 4
??1?$_Compressed_pair@V?$allocator@D@std@@V?$_String_val@U?$_Simple_types@D@std@@@2@$00@std@@QAE@XZ PROC ; std::_Compressed_pair<std::allocator<char>,std::_String_val<std::_Simple_types<char> >,1>::~_Compressed_pair<std::allocator<char>,std::_String_val<std::_Simple_types<char> >,1>, COMDAT
; _this$ = ecx
  00000	55		 push	 ebp
  00001	8b ec		 mov	 ebp, esp
  00003	51		 push	 ecx
  00004	89 4d fc	 mov	 DWORD PTR _this$[ebp], ecx
  00007	c9		 leave
  00008	c3		 ret	 0
??1?$_Compressed_pair@V?$allocator@D@std@@V?$_String_val@U?$_Simple_types@D@std@@@2@$00@std@@QAE@XZ ENDP ; std::_Compressed_pair<std::allocator<char>,std::_String_val<std::_Simple_types<char> >,1>::~_Compressed_pair<std::allocator<char>,std::_String_val<std::_Simple_types<char> >,1>
_TEXT	ENDS
; Function compile flags: /Odspy
; File C:\Program Files (x86)\Microsoft Visual Studio\2019\Community\VC\Tools\MSVC\14.28.29333\include\xstring
; File C:\Program Files (x86)\Microsoft Visual Studio\2019\Community\VC\Tools\MSVC\14.28.29333\include\xmemory
; File C:\Program Files (x86)\Microsoft Visual Studio\2019\Community\VC\Tools\MSVC\14.28.29333\include\xstring
; File C:\Program Files (x86)\Microsoft Visual Studio\2019\Community\VC\Tools\MSVC\14.28.29333\include\xmemory
; File C:\Program Files (x86)\Microsoft Visual Studio\2019\Community\VC\Tools\MSVC\14.28.29333\include\xstring
;	COMDAT ?_Tidy_deallocate@?$basic_string@DU?$char_traits@D@std@@V?$allocator@D@2@@std@@AAEXXZ
_TEXT	SEGMENT
__Al$1 = -28						; size = 4
__Ptr$2 = -24						; size = 4
__Count$ = -20						; size = 4
$T3 = -16						; size = 4
tv68 = -12						; size = 4
_this$ = -8						; size = 4
$T4 = -2						; size = 1
$T5 = -1						; size = 1
?_Tidy_deallocate@?$basic_string@DU?$char_traits@D@std@@V?$allocator@D@2@@std@@AAEXXZ PROC ; std::basic_string<char,std::char_traits<char>,std::allocator<char> >::_Tidy_deallocate, COMDAT
; _this$ = ecx

; 4383 :     void _Tidy_deallocate() noexcept { // initialize buffer, deallocating any storage

  00000	55		 push	 ebp
  00001	8b ec		 mov	 ebp, esp
  00003	83 ec 1c	 sub	 esp, 28			; 0000001cH
  00006	89 4d f8	 mov	 DWORD PTR _this$[ebp], ecx

; 2227 :         return _BUF_SIZE <= _Myres;

  00009	8b 45 f8	 mov	 eax, DWORD PTR _this$[ebp]
  0000c	83 78 14 10	 cmp	 DWORD PTR [eax+20], 16	; 00000010H
  00010	72 09		 jb	 SHORT $LN9@Tidy_deall
  00012	c7 45 f4 01 00
	00 00		 mov	 DWORD PTR tv68[ebp], 1
  00019	eb 04		 jmp	 SHORT $LN10@Tidy_deall
$LN9@Tidy_deall:
  0001b	83 65 f4 00	 and	 DWORD PTR tv68[ebp], 0
$LN10@Tidy_deall:
  0001f	8a 45 f4	 mov	 al, BYTE PTR tv68[ebp]
  00022	88 45 ff	 mov	 BYTE PTR $T5[ebp], al

; 4384 :         _Mypair._Myval2._Orphan_all();
; 4385 :         if (_Mypair._Myval2._Large_string_engaged()) {

  00025	0f b6 45 ff	 movzx	 eax, BYTE PTR $T5[ebp]
  00029	85 c0		 test	 eax, eax
  0002b	74 34		 je	 SHORT $LN2@Tidy_deall

; 4386 :             const pointer _Ptr = _Mypair._Myval2._Bx._Ptr;

  0002d	8b 45 f8	 mov	 eax, DWORD PTR _this$[ebp]
  00030	8b 00		 mov	 eax, DWORD PTR [eax]
  00032	89 45 e8	 mov	 DWORD PTR __Ptr$2[ebp], eax

; 4409 :         return _Mypair._Get_first();

  00035	8b 45 f8	 mov	 eax, DWORD PTR _this$[ebp]
; File C:\Program Files (x86)\Microsoft Visual Studio\2019\Community\VC\Tools\MSVC\14.28.29333\include\xmemory

; 1347 :         return *this;

  00038	89 45 f0	 mov	 DWORD PTR $T3[ebp], eax
; File C:\Program Files (x86)\Microsoft Visual Studio\2019\Community\VC\Tools\MSVC\14.28.29333\include\xstring

; 4409 :         return _Mypair._Get_first();

  0003b	8b 45 f0	 mov	 eax, DWORD PTR $T3[ebp]
  0003e	89 45 e4	 mov	 DWORD PTR __Al$1[ebp], eax

; 4387 :             auto& _Al          = _Getal();
; 4388 :             _Destroy_in_place(_Mypair._Myval2._Bx._Ptr);

  00041	ff 75 f8	 push	 DWORD PTR _this$[ebp]
  00044	e8 00 00 00 00	 call	 ??$_Destroy_in_place@PAD@std@@YAXAAPAD@Z ; std::_Destroy_in_place<char *>
  00049	59		 pop	 ecx

; 4389 :             _Al.deallocate(_Ptr, _Mypair._Myval2._Myres + 1);

  0004a	8b 45 f8	 mov	 eax, DWORD PTR _this$[ebp]
  0004d	8b 40 14	 mov	 eax, DWORD PTR [eax+20]
  00050	40		 inc	 eax
  00051	89 45 ec	 mov	 DWORD PTR __Count$[ebp], eax
; File C:\Program Files (x86)\Microsoft Visual Studio\2019\Community\VC\Tools\MSVC\14.28.29333\include\xmemory

; 810  :         _Deallocate<_New_alignof<_Ty>>(_Ptr, sizeof(_Ty) * _Count);

  00054	ff 75 ec	 push	 DWORD PTR __Count$[ebp]
  00057	ff 75 e8	 push	 DWORD PTR __Ptr$2[ebp]
  0005a	e8 00 00 00 00	 call	 ??$_Deallocate@$07$0A@@std@@YAXPAXI@Z ; std::_Deallocate<8,0>
  0005f	59		 pop	 ecx
  00060	59		 pop	 ecx
$LN2@Tidy_deall:
; File C:\Program Files (x86)\Microsoft Visual Studio\2019\Community\VC\Tools\MSVC\14.28.29333\include\xstring

; 4392 :         _Mypair._Myval2._Mysize = 0;

  00061	8b 45 f8	 mov	 eax, DWORD PTR _this$[ebp]
  00064	83 60 10 00	 and	 DWORD PTR [eax+16], 0

; 4393 :         _Mypair._Myval2._Myres  = _BUF_SIZE - 1;

  00068	8b 45 f8	 mov	 eax, DWORD PTR _this$[ebp]
  0006b	c7 40 14 0f 00
	00 00		 mov	 DWORD PTR [eax+20], 15	; 0000000fH

; 4394 :         // the _Traits::assign is last so the codegen doesn't think the char write can alias this
; 4395 :         _Traits::assign(_Mypair._Myval2._Bx._Buf[0], _Elem());

  00072	c6 45 fe 00	 mov	 BYTE PTR $T4[ebp], 0
  00076	33 c0		 xor	 eax, eax
  00078	40		 inc	 eax
  00079	6b c0 00	 imul	 eax, eax, 0

; 428  :         _Left = _Right;

  0007c	8b 4d f8	 mov	 ecx, DWORD PTR _this$[ebp]
  0007f	8a 55 fe	 mov	 dl, BYTE PTR $T4[ebp]
  00082	88 14 01	 mov	 BYTE PTR [ecx+eax], dl

; 4396 :     }

  00085	c9		 leave
  00086	c3		 ret	 0
?_Tidy_deallocate@?$basic_string@DU?$char_traits@D@std@@V?$allocator@D@2@@std@@AAEXXZ ENDP ; std::basic_string<char,std::char_traits<char>,std::allocator<char> >::_Tidy_deallocate
_TEXT	ENDS
; Function compile flags: /Odspy
; File C:\Program Files (x86)\Microsoft Visual Studio\2019\Community\VC\Tools\MSVC\14.28.29333\include\xstring
;	COMDAT ?_Tidy_init@?$basic_string@DU?$char_traits@D@std@@V?$allocator@D@2@@std@@AAEXXZ
_TEXT	SEGMENT
_this$ = -8						; size = 4
$T1 = -1						; size = 1
?_Tidy_init@?$basic_string@DU?$char_traits@D@std@@V?$allocator@D@2@@std@@AAEXXZ PROC ; std::basic_string<char,std::char_traits<char>,std::allocator<char> >::_Tidy_init, COMDAT
; _this$ = ecx

; 4376 :     void _Tidy_init() noexcept { // initialize basic_string data members

  00000	55		 push	 ebp
  00001	8b ec		 mov	 ebp, esp
  00003	51		 push	 ecx
  00004	51		 push	 ecx
  00005	89 4d f8	 mov	 DWORD PTR _this$[ebp], ecx

; 4377 :         _Mypair._Myval2._Mysize = 0;

  00008	8b 45 f8	 mov	 eax, DWORD PTR _this$[ebp]
  0000b	83 60 10 00	 and	 DWORD PTR [eax+16], 0

; 4378 :         _Mypair._Myval2._Myres  = _BUF_SIZE - 1;

  0000f	8b 45 f8	 mov	 eax, DWORD PTR _this$[ebp]
  00012	c7 40 14 0f 00
	00 00		 mov	 DWORD PTR [eax+20], 15	; 0000000fH

; 4379 :         // the _Traits::assign is last so the codegen doesn't think the char write can alias this
; 4380 :         _Traits::assign(_Mypair._Myval2._Bx._Buf[0], _Elem());

  00019	c6 45 ff 00	 mov	 BYTE PTR $T1[ebp], 0
  0001d	33 c0		 xor	 eax, eax
  0001f	40		 inc	 eax
  00020	6b c0 00	 imul	 eax, eax, 0

; 428  :         _Left = _Right;

  00023	8b 4d f8	 mov	 ecx, DWORD PTR _this$[ebp]
  00026	8a 55 ff	 mov	 dl, BYTE PTR $T1[ebp]
  00029	88 14 01	 mov	 BYTE PTR [ecx+eax], dl

; 4381 :     }

  0002c	c9		 leave
  0002d	c3		 ret	 0
?_Tidy_init@?$basic_string@DU?$char_traits@D@std@@V?$allocator@D@2@@std@@AAEXXZ ENDP ; std::basic_string<char,std::char_traits<char>,std::allocator<char> >::_Tidy_init
_TEXT	ENDS
; Function compile flags: /Odspy
; File C:\Program Files (x86)\Microsoft Visual Studio\2019\Community\VC\Tools\MSVC\14.28.29333\include\xstring
; File C:\Program Files (x86)\Microsoft Visual Studio\2019\Community\VC\Tools\MSVC\14.28.29333\include\utility
; File C:\Program Files (x86)\Microsoft Visual Studio\2019\Community\VC\Tools\MSVC\14.28.29333\include\xstring
;	COMDAT ?_Calculate_growth@?$basic_string@DU?$char_traits@D@std@@V?$allocator@D@2@@std@@ABEII@Z
_TEXT	SEGMENT
$T1 = -36						; size = 4
$T2 = -32						; size = 4
tv93 = -28						; size = 4
$T3 = -24						; size = 4
_this$ = -20						; size = 4
$T4 = -16						; size = 4
__Masked$5 = -12					; size = 4
__Old$ = -8						; size = 4
__Max$ = -4						; size = 4
__Requested$ = 8					; size = 4
?_Calculate_growth@?$basic_string@DU?$char_traits@D@std@@V?$allocator@D@2@@std@@ABEII@Z PROC ; std::basic_string<char,std::char_traits<char>,std::allocator<char> >::_Calculate_growth, COMDAT
; _this$ = ecx

; 4297 :     _NODISCARD size_type _Calculate_growth(const size_type _Requested) const noexcept {

  00000	55		 push	 ebp
  00001	8b ec		 mov	 ebp, esp
  00003	83 ec 24	 sub	 esp, 36			; 00000024H
  00006	89 4d ec	 mov	 DWORD PTR _this$[ebp], ecx

; 4298 :         return _Calculate_growth(_Requested, _Mypair._Myval2._Myres, max_size());

  00009	8b 4d ec	 mov	 ecx, DWORD PTR _this$[ebp]
  0000c	e8 00 00 00 00	 call	 ?max_size@?$basic_string@DU?$char_traits@D@std@@V?$allocator@D@2@@std@@QBEIXZ ; std::basic_string<char,std::char_traits<char>,std::allocator<char> >::max_size
  00011	89 45 fc	 mov	 DWORD PTR __Max$[ebp], eax
  00014	8b 45 ec	 mov	 eax, DWORD PTR _this$[ebp]
  00017	8b 40 14	 mov	 eax, DWORD PTR [eax+20]
  0001a	89 45 f8	 mov	 DWORD PTR __Old$[ebp], eax

; 4285 :         const size_type _Masked = _Requested | _ALLOC_MASK;

  0001d	8b 45 08	 mov	 eax, DWORD PTR __Requested$[ebp]
  00020	83 c8 0f	 or	 eax, 15			; 0000000fH
  00023	89 45 f4	 mov	 DWORD PTR __Masked$5[ebp], eax

; 4286 :         if (_Masked > _Max) { // the mask overflows, settle for max_size()

  00026	8b 45 f4	 mov	 eax, DWORD PTR __Masked$5[ebp]
  00029	3b 45 fc	 cmp	 eax, DWORD PTR __Max$[ebp]
  0002c	76 08		 jbe	 SHORT $LN29@Calculate_

; 4287 :             return _Max;

  0002e	8b 45 fc	 mov	 eax, DWORD PTR __Max$[ebp]
  00031	89 45 f0	 mov	 DWORD PTR $T4[ebp], eax
  00034	eb 4c		 jmp	 SHORT $LN31@Calculate_
$LN29@Calculate_:

; 4288 :         }
; 4289 : 
; 4290 :         if (_Old > _Max - _Old / 2) { // similarly, geometric overflows

  00036	8b 45 f8	 mov	 eax, DWORD PTR __Old$[ebp]
  00039	d1 e8		 shr	 eax, 1
  0003b	8b 4d fc	 mov	 ecx, DWORD PTR __Max$[ebp]
  0003e	2b c8		 sub	 ecx, eax
  00040	39 4d f8	 cmp	 DWORD PTR __Old$[ebp], ecx
  00043	76 08		 jbe	 SHORT $LN30@Calculate_

; 4291 :             return _Max;

  00045	8b 45 fc	 mov	 eax, DWORD PTR __Max$[ebp]
  00048	89 45 f0	 mov	 DWORD PTR $T4[ebp], eax
  0004b	eb 35		 jmp	 SHORT $LN31@Calculate_
$LN30@Calculate_:

; 4294 :         return (_STD max)(_Masked, _Old + _Old / 2);

  0004d	8b 45 f8	 mov	 eax, DWORD PTR __Old$[ebp]
  00050	d1 e8		 shr	 eax, 1
  00052	03 45 f8	 add	 eax, DWORD PTR __Old$[ebp]
  00055	89 45 e8	 mov	 DWORD PTR $T3[ebp], eax
; File C:\Program Files (x86)\Microsoft Visual Studio\2019\Community\VC\Tools\MSVC\14.28.29333\include\utility

; 44   :     return _Left < _Right ? _Right : _Left;

  00058	8b 45 f4	 mov	 eax, DWORD PTR __Masked$5[ebp]
  0005b	3b 45 e8	 cmp	 eax, DWORD PTR $T3[ebp]
  0005e	73 08		 jae	 SHORT $LN35@Calculate_
  00060	8d 45 e8	 lea	 eax, DWORD PTR $T3[ebp]
  00063	89 45 e4	 mov	 DWORD PTR tv93[ebp], eax
  00066	eb 06		 jmp	 SHORT $LN36@Calculate_
$LN35@Calculate_:
  00068	8d 45 f4	 lea	 eax, DWORD PTR __Masked$5[ebp]
  0006b	89 45 e4	 mov	 DWORD PTR tv93[ebp], eax
$LN36@Calculate_:
  0006e	8b 45 e4	 mov	 eax, DWORD PTR tv93[ebp]
  00071	89 45 e0	 mov	 DWORD PTR $T2[ebp], eax
  00074	8b 45 e0	 mov	 eax, DWORD PTR $T2[ebp]
  00077	89 45 dc	 mov	 DWORD PTR $T1[ebp], eax
; File C:\Program Files (x86)\Microsoft Visual Studio\2019\Community\VC\Tools\MSVC\14.28.29333\include\xstring

; 4294 :         return (_STD max)(_Masked, _Old + _Old / 2);

  0007a	8b 45 dc	 mov	 eax, DWORD PTR $T1[ebp]
  0007d	8b 00		 mov	 eax, DWORD PTR [eax]
  0007f	89 45 f0	 mov	 DWORD PTR $T4[ebp], eax
$LN31@Calculate_:

; 4298 :         return _Calculate_growth(_Requested, _Mypair._Myval2._Myres, max_size());

  00082	8b 45 f0	 mov	 eax, DWORD PTR $T4[ebp]

; 4299 :     }

  00085	c9		 leave
  00086	c2 04 00	 ret	 4
?_Calculate_growth@?$basic_string@DU?$char_traits@D@std@@V?$allocator@D@2@@std@@ABEII@Z ENDP ; std::basic_string<char,std::char_traits<char>,std::allocator<char> >::_Calculate_growth
_TEXT	ENDS
; Function compile flags: /Odspy
; File C:\Program Files (x86)\Microsoft Visual Studio\2019\Community\VC\Tools\MSVC\14.28.29333\include\xstring
; File C:\Program Files (x86)\Microsoft Visual Studio\2019\Community\VC\Tools\MSVC\14.28.29333\include\xstddef
; File C:\Program Files (x86)\Microsoft Visual Studio\2019\Community\VC\Tools\MSVC\14.28.29333\include\xstring
; File C:\Program Files (x86)\Microsoft Visual Studio\2019\Community\VC\Tools\MSVC\14.28.29333\include\xstddef
; File C:\Program Files (x86)\Microsoft Visual Studio\2019\Community\VC\Tools\MSVC\14.28.29333\include\xstring
;	COMDAT ?_Equal@?$basic_string@DU?$char_traits@D@std@@V?$allocator@D@2@@std@@QBE_NABV12@@Z
_TEXT	SEGMENT
$T1 = -64						; size = 4
$T2 = -60						; size = 4
$T3 = -56						; size = 4
__Right_size$ = -52					; size = 4
__Ptr$ = -48						; size = 4
__Ptr$ = -44						; size = 4
tv141 = -40						; size = 4
__Left_size$ = -36					; size = 4
_this$ = -32						; size = 4
__Result$4 = -28					; size = 4
tv137 = -24						; size = 4
__Result$5 = -20					; size = 4
tv95 = -16						; size = 4
_this$ = -12						; size = 4
_this$ = -8						; size = 4
$T6 = -3						; size = 1
$T7 = -2						; size = 1
$T8 = -1						; size = 1
__Right$ = 8						; size = 4
?_Equal@?$basic_string@DU?$char_traits@D@std@@V?$allocator@D@2@@std@@QBE_NABV12@@Z PROC ; std::basic_string<char,std::char_traits<char>,std::allocator<char> >::_Equal, COMDAT
; _this$ = ecx

; 4174 :     bool _Equal(const basic_string& _Right) const noexcept { // compare [0, size()) with _Right for equality

  00000	55		 push	 ebp
  00001	8b ec		 mov	 ebp, esp
  00003	83 ec 40	 sub	 esp, 64			; 00000040H
  00006	89 4d e0	 mov	 DWORD PTR _this$[ebp], ecx

; 4175 :         return _Traits_equal<_Traits>(_Mypair._Myval2._Myptr(), _Mypair._Myval2._Mysize,

  00009	8b 45 08	 mov	 eax, DWORD PTR __Right$[ebp]
  0000c	89 45 f8	 mov	 DWORD PTR _this$[ebp], eax

; 2218 :         const value_type* _Result = _Bx._Buf;

  0000f	8b 45 f8	 mov	 eax, DWORD PTR _this$[ebp]
  00012	89 45 ec	 mov	 DWORD PTR __Result$5[ebp], eax

; 2227 :         return _BUF_SIZE <= _Myres;

  00015	8b 45 f8	 mov	 eax, DWORD PTR _this$[ebp]
  00018	83 78 14 10	 cmp	 DWORD PTR [eax+20], 16	; 00000010H
  0001c	72 09		 jb	 SHORT $LN9@Equal
  0001e	c7 45 f0 01 00
	00 00		 mov	 DWORD PTR tv95[ebp], 1
  00025	eb 04		 jmp	 SHORT $LN10@Equal
$LN9@Equal:
  00027	83 65 f0 00	 and	 DWORD PTR tv95[ebp], 0
$LN10@Equal:
  0002b	8a 45 f0	 mov	 al, BYTE PTR tv95[ebp]
  0002e	88 45 ff	 mov	 BYTE PTR $T8[ebp], al

; 2219 :         if (_Large_string_engaged()) {

  00031	0f b6 45 ff	 movzx	 eax, BYTE PTR $T8[ebp]
  00035	85 c0		 test	 eax, eax
  00037	74 0e		 je	 SHORT $LN4@Equal

; 2220 :             _Result = _Unfancy(_Bx._Ptr);

  00039	8b 45 f8	 mov	 eax, DWORD PTR _this$[ebp]
  0003c	8b 00		 mov	 eax, DWORD PTR [eax]
  0003e	89 45 d4	 mov	 DWORD PTR __Ptr$[ebp], eax
; File C:\Program Files (x86)\Microsoft Visual Studio\2019\Community\VC\Tools\MSVC\14.28.29333\include\xstddef

; 289  :     return _Ptr;

  00041	8b 45 d4	 mov	 eax, DWORD PTR __Ptr$[ebp]
  00044	89 45 ec	 mov	 DWORD PTR __Result$5[ebp], eax
$LN4@Equal:
; File C:\Program Files (x86)\Microsoft Visual Studio\2019\Community\VC\Tools\MSVC\14.28.29333\include\xstring

; 2223 :         return _Result;

  00047	8b 45 ec	 mov	 eax, DWORD PTR __Result$5[ebp]
  0004a	89 45 c8	 mov	 DWORD PTR $T3[ebp], eax

; 4175 :         return _Traits_equal<_Traits>(_Mypair._Myval2._Myptr(), _Mypair._Myval2._Mysize,

  0004d	8b 45 e0	 mov	 eax, DWORD PTR _this$[ebp]
  00050	89 45 f4	 mov	 DWORD PTR _this$[ebp], eax

; 2218 :         const value_type* _Result = _Bx._Buf;

  00053	8b 45 f4	 mov	 eax, DWORD PTR _this$[ebp]
  00056	89 45 e4	 mov	 DWORD PTR __Result$4[ebp], eax

; 2227 :         return _BUF_SIZE <= _Myres;

  00059	8b 45 f4	 mov	 eax, DWORD PTR _this$[ebp]
  0005c	83 78 14 10	 cmp	 DWORD PTR [eax+20], 16	; 00000010H
  00060	72 09		 jb	 SHORT $LN21@Equal
  00062	c7 45 e8 01 00
	00 00		 mov	 DWORD PTR tv137[ebp], 1
  00069	eb 04		 jmp	 SHORT $LN22@Equal
$LN21@Equal:
  0006b	83 65 e8 00	 and	 DWORD PTR tv137[ebp], 0
$LN22@Equal:
  0006f	8a 45 e8	 mov	 al, BYTE PTR tv137[ebp]
  00072	88 45 fe	 mov	 BYTE PTR $T7[ebp], al

; 2219 :         if (_Large_string_engaged()) {

  00075	0f b6 45 fe	 movzx	 eax, BYTE PTR $T7[ebp]
  00079	85 c0		 test	 eax, eax
  0007b	74 0e		 je	 SHORT $LN16@Equal

; 2220 :             _Result = _Unfancy(_Bx._Ptr);

  0007d	8b 45 f4	 mov	 eax, DWORD PTR _this$[ebp]
  00080	8b 00		 mov	 eax, DWORD PTR [eax]
  00082	89 45 d0	 mov	 DWORD PTR __Ptr$[ebp], eax
; File C:\Program Files (x86)\Microsoft Visual Studio\2019\Community\VC\Tools\MSVC\14.28.29333\include\xstddef

; 289  :     return _Ptr;

  00085	8b 45 d0	 mov	 eax, DWORD PTR __Ptr$[ebp]
  00088	89 45 e4	 mov	 DWORD PTR __Result$4[ebp], eax
$LN16@Equal:
; File C:\Program Files (x86)\Microsoft Visual Studio\2019\Community\VC\Tools\MSVC\14.28.29333\include\xstring

; 2223 :         return _Result;

  0008b	8b 45 e4	 mov	 eax, DWORD PTR __Result$4[ebp]
  0008e	89 45 c4	 mov	 DWORD PTR $T2[ebp], eax

; 4175 :         return _Traits_equal<_Traits>(_Mypair._Myval2._Myptr(), _Mypair._Myval2._Mysize,

  00091	8b 45 08	 mov	 eax, DWORD PTR __Right$[ebp]
  00094	8b 40 10	 mov	 eax, DWORD PTR [eax+16]
  00097	89 45 cc	 mov	 DWORD PTR __Right_size$[ebp], eax
  0009a	8b 45 e0	 mov	 eax, DWORD PTR _this$[ebp]
  0009d	8b 40 10	 mov	 eax, DWORD PTR [eax+16]
  000a0	89 45 dc	 mov	 DWORD PTR __Left_size$[ebp], eax

; 561  :     return _Left_size == _Right_size && _Traits::compare(_Left, _Right, _Left_size) == 0;

  000a3	8b 45 dc	 mov	 eax, DWORD PTR __Left_size$[ebp]
  000a6	3b 45 cc	 cmp	 eax, DWORD PTR __Right_size$[ebp]
  000a9	75 23		 jne	 SHORT $LN29@Equal

; 369  :         return _CSTD memcmp(_First1, _First2, _Count);

  000ab	ff 75 dc	 push	 DWORD PTR __Left_size$[ebp]
  000ae	ff 75 c8	 push	 DWORD PTR $T3[ebp]
  000b1	ff 75 c4	 push	 DWORD PTR $T2[ebp]
  000b4	e8 00 00 00 00	 call	 _memcmp
  000b9	83 c4 0c	 add	 esp, 12			; 0000000cH
  000bc	89 45 c0	 mov	 DWORD PTR $T1[ebp], eax

; 561  :     return _Left_size == _Right_size && _Traits::compare(_Left, _Right, _Left_size) == 0;

  000bf	83 7d c0 00	 cmp	 DWORD PTR $T1[ebp], 0
  000c3	75 09		 jne	 SHORT $LN29@Equal
  000c5	c7 45 d8 01 00
	00 00		 mov	 DWORD PTR tv141[ebp], 1
  000cc	eb 04		 jmp	 SHORT $LN30@Equal
$LN29@Equal:
  000ce	83 65 d8 00	 and	 DWORD PTR tv141[ebp], 0
$LN30@Equal:
  000d2	8a 45 d8	 mov	 al, BYTE PTR tv141[ebp]
  000d5	88 45 fd	 mov	 BYTE PTR $T6[ebp], al

; 4175 :         return _Traits_equal<_Traits>(_Mypair._Myval2._Myptr(), _Mypair._Myval2._Mysize,

  000d8	8a 45 fd	 mov	 al, BYTE PTR $T6[ebp]

; 4176 :             _Right._Mypair._Myval2._Myptr(), _Right._Mypair._Myval2._Mysize);
; 4177 :     }

  000db	c9		 leave
  000dc	c2 04 00	 ret	 4
?_Equal@?$basic_string@DU?$char_traits@D@std@@V?$allocator@D@2@@std@@QBE_NABV12@@Z ENDP ; std::basic_string<char,std::char_traits<char>,std::allocator<char> >::_Equal
_TEXT	ENDS
; Function compile flags: /Odspy
; File C:\Program Files (x86)\Microsoft Visual Studio\2019\Community\VC\Tools\MSVC\14.28.29333\include\xstring
; File C:\Program Files (x86)\Microsoft Visual Studio\2019\Community\VC\Tools\MSVC\14.28.29333\include\xmemory
; File C:\Program Files (x86)\Microsoft Visual Studio\2019\Community\VC\Tools\MSVC\14.28.29333\include\xstring
; File C:\Program Files (x86)\Microsoft Visual Studio\2019\Community\VC\Tools\MSVC\14.28.29333\include\xmemory
; File C:\Program Files (x86)\Microsoft Visual Studio\2019\Community\VC\Tools\MSVC\14.28.29333\include\xstring
; File C:\Program Files (x86)\Microsoft Visual Studio\2019\Community\VC\Tools\MSVC\14.28.29333\include\utility
; File C:\Program Files (x86)\Microsoft Visual Studio\2019\Community\VC\Tools\MSVC\14.28.29333\include\xstring
; File C:\Program Files (x86)\Microsoft Visual Studio\2019\Community\VC\Tools\MSVC\14.28.29333\include\limits
; File C:\Program Files (x86)\Microsoft Visual Studio\2019\Community\VC\Tools\MSVC\14.28.29333\include\xstring
; File C:\Program Files (x86)\Microsoft Visual Studio\2019\Community\VC\Tools\MSVC\14.28.29333\include\utility
; File C:\Program Files (x86)\Microsoft Visual Studio\2019\Community\VC\Tools\MSVC\14.28.29333\include\xstring
;	COMDAT ?max_size@?$basic_string@DU?$char_traits@D@std@@V?$allocator@D@2@@std@@QBEIXZ
_TEXT	SEGMENT
$T1 = -60						; size = 4
$T2 = -56						; size = 4
$T3 = -52						; size = 4
$T4 = -48						; size = 4
__Storage_max$ = -44					; size = 4
$T5 = -40						; size = 4
$T6 = -36						; size = 4
$T7 = -32						; size = 4
_this$ = -28						; size = 4
tv70 = -24						; size = 4
$T8 = -20						; size = 4
$T9 = -16						; size = 4
tv67 = -12						; size = 4
__Alloc_max$ = -8					; size = 4
$T10 = -4						; size = 4
?max_size@?$basic_string@DU?$char_traits@D@std@@V?$allocator@D@2@@std@@QBEIXZ PROC ; std::basic_string<char,std::char_traits<char>,std::allocator<char> >::max_size, COMDAT
; _this$ = ecx

; 3773 :     _NODISCARD size_type max_size() const noexcept {

  00000	55		 push	 ebp
  00001	8b ec		 mov	 ebp, esp
  00003	83 ec 3c	 sub	 esp, 60			; 0000003cH
  00006	89 4d e4	 mov	 DWORD PTR _this$[ebp], ecx

; 4413 :         return _Mypair._Get_first();

  00009	8b 45 e4	 mov	 eax, DWORD PTR _this$[ebp]
; File C:\Program Files (x86)\Microsoft Visual Studio\2019\Community\VC\Tools\MSVC\14.28.29333\include\xmemory

; 1351 :         return *this;

  0000c	89 45 e0	 mov	 DWORD PTR $T7[ebp], eax
; File C:\Program Files (x86)\Microsoft Visual Studio\2019\Community\VC\Tools\MSVC\14.28.29333\include\xstring

; 4413 :         return _Mypair._Get_first();

  0000f	8b 45 e0	 mov	 eax, DWORD PTR $T7[ebp]
  00012	89 45 c4	 mov	 DWORD PTR $T1[ebp], eax
; File C:\Program Files (x86)\Microsoft Visual Studio\2019\Community\VC\Tools\MSVC\14.28.29333\include\xmemory

; 710  :         return static_cast<size_t>(-1) / sizeof(value_type);

  00015	83 4d f8 ff	 or	 DWORD PTR __Alloc_max$[ebp], -1
; File C:\Program Files (x86)\Microsoft Visual Studio\2019\Community\VC\Tools\MSVC\14.28.29333\include\xstring

; 3775 :         const size_type _Storage_max = // can always store small string

  00019	c7 45 fc 10 00
	00 00		 mov	 DWORD PTR $T10[ebp], 16	; 00000010H
; File C:\Program Files (x86)\Microsoft Visual Studio\2019\Community\VC\Tools\MSVC\14.28.29333\include\utility

; 44   :     return _Left < _Right ? _Right : _Left;

  00020	8b 45 f8	 mov	 eax, DWORD PTR __Alloc_max$[ebp]
  00023	3b 45 fc	 cmp	 eax, DWORD PTR $T10[ebp]
  00026	73 08		 jae	 SHORT $LN14@max_size
  00028	8d 45 fc	 lea	 eax, DWORD PTR $T10[ebp]
  0002b	89 45 f4	 mov	 DWORD PTR tv67[ebp], eax
  0002e	eb 06		 jmp	 SHORT $LN15@max_size
$LN14@max_size:
  00030	8d 45 f8	 lea	 eax, DWORD PTR __Alloc_max$[ebp]
  00033	89 45 f4	 mov	 DWORD PTR tv67[ebp], eax
$LN15@max_size:
  00036	8b 45 f4	 mov	 eax, DWORD PTR tv67[ebp]
  00039	89 45 dc	 mov	 DWORD PTR $T6[ebp], eax
  0003c	8b 45 dc	 mov	 eax, DWORD PTR $T6[ebp]
  0003f	89 45 d8	 mov	 DWORD PTR $T5[ebp], eax
; File C:\Program Files (x86)\Microsoft Visual Studio\2019\Community\VC\Tools\MSVC\14.28.29333\include\xstring

; 3775 :         const size_type _Storage_max = // can always store small string

  00042	8b 45 d8	 mov	 eax, DWORD PTR $T5[ebp]
  00045	8b 00		 mov	 eax, DWORD PTR [eax]
  00047	89 45 d4	 mov	 DWORD PTR __Storage_max$[ebp], eax

; 3777 :         return (_STD min)(static_cast<size_type>((numeric_limits<difference_type>::max)()),

  0004a	8b 45 d4	 mov	 eax, DWORD PTR __Storage_max$[ebp]
  0004d	48		 dec	 eax
  0004e	89 45 f0	 mov	 DWORD PTR $T9[ebp], eax
; File C:\Program Files (x86)\Microsoft Visual Studio\2019\Community\VC\Tools\MSVC\14.28.29333\include\limits

; 557  :         return INT_MAX;

  00051	c7 45 d0 ff ff
	ff 7f		 mov	 DWORD PTR $T4[ebp], 2147483647 ; 7fffffffH
; File C:\Program Files (x86)\Microsoft Visual Studio\2019\Community\VC\Tools\MSVC\14.28.29333\include\xstring

; 3777 :         return (_STD min)(static_cast<size_type>((numeric_limits<difference_type>::max)()),

  00058	8b 45 d0	 mov	 eax, DWORD PTR $T4[ebp]
  0005b	89 45 ec	 mov	 DWORD PTR $T8[ebp], eax
; File C:\Program Files (x86)\Microsoft Visual Studio\2019\Community\VC\Tools\MSVC\14.28.29333\include\utility

; 68   :     return _Right < _Left ? _Right : _Left;

  0005e	8b 45 f0	 mov	 eax, DWORD PTR $T9[ebp]
  00061	3b 45 ec	 cmp	 eax, DWORD PTR $T8[ebp]
  00064	73 08		 jae	 SHORT $LN22@max_size
  00066	8d 45 f0	 lea	 eax, DWORD PTR $T9[ebp]
  00069	89 45 e8	 mov	 DWORD PTR tv70[ebp], eax
  0006c	eb 06		 jmp	 SHORT $LN23@max_size
$LN22@max_size:
  0006e	8d 45 ec	 lea	 eax, DWORD PTR $T8[ebp]
  00071	89 45 e8	 mov	 DWORD PTR tv70[ebp], eax
$LN23@max_size:
  00074	8b 45 e8	 mov	 eax, DWORD PTR tv70[ebp]
  00077	89 45 cc	 mov	 DWORD PTR $T3[ebp], eax
  0007a	8b 45 cc	 mov	 eax, DWORD PTR $T3[ebp]
  0007d	89 45 c8	 mov	 DWORD PTR $T2[ebp], eax
; File C:\Program Files (x86)\Microsoft Visual Studio\2019\Community\VC\Tools\MSVC\14.28.29333\include\xstring

; 3777 :         return (_STD min)(static_cast<size_type>((numeric_limits<difference_type>::max)()),

  00080	8b 45 c8	 mov	 eax, DWORD PTR $T2[ebp]
  00083	8b 00		 mov	 eax, DWORD PTR [eax]

; 3778 :             _Storage_max - 1 // -1 is for null terminator and/or npos
; 3779 :         );
; 3780 :     }

  00085	c9		 leave
  00086	c3		 ret	 0
?max_size@?$basic_string@DU?$char_traits@D@std@@V?$allocator@D@2@@std@@QBEIXZ ENDP ; std::basic_string<char,std::char_traits<char>,std::allocator<char> >::max_size
_TEXT	ENDS
; Function compile flags: /Odspy
; File C:\Program Files (x86)\Microsoft Visual Studio\2019\Community\VC\Tools\MSVC\14.28.29333\include\xstring
; File C:\Program Files (x86)\Microsoft Visual Studio\2019\Community\VC\Tools\MSVC\14.28.29333\include\xstddef
; File C:\Program Files (x86)\Microsoft Visual Studio\2019\Community\VC\Tools\MSVC\14.28.29333\include\xstring
;	COMDAT ?c_str@?$basic_string@DU?$char_traits@D@std@@V?$allocator@D@2@@std@@QBEPBDXZ
_TEXT	SEGMENT
$T1 = -28						; size = 4
__Ptr$ = -24						; size = 4
_this$ = -20						; size = 4
__Result$2 = -16					; size = 4
tv80 = -12						; size = 4
_this$ = -8						; size = 4
$T3 = -1						; size = 1
?c_str@?$basic_string@DU?$char_traits@D@std@@V?$allocator@D@2@@std@@QBEPBDXZ PROC ; std::basic_string<char,std::char_traits<char>,std::allocator<char> >::c_str, COMDAT
; _this$ = ecx

; 3751 :     _NODISCARD _Ret_z_ const _Elem* c_str() const noexcept {

  00000	55		 push	 ebp
  00001	8b ec		 mov	 ebp, esp
  00003	83 ec 1c	 sub	 esp, 28			; 0000001cH
  00006	89 4d ec	 mov	 DWORD PTR _this$[ebp], ecx

; 3752 :         return _Mypair._Myval2._Myptr();

  00009	8b 45 ec	 mov	 eax, DWORD PTR _this$[ebp]
  0000c	89 45 f8	 mov	 DWORD PTR _this$[ebp], eax

; 2218 :         const value_type* _Result = _Bx._Buf;

  0000f	8b 45 f8	 mov	 eax, DWORD PTR _this$[ebp]
  00012	89 45 f0	 mov	 DWORD PTR __Result$2[ebp], eax

; 2227 :         return _BUF_SIZE <= _Myres;

  00015	8b 45 f8	 mov	 eax, DWORD PTR _this$[ebp]
  00018	83 78 14 10	 cmp	 DWORD PTR [eax+20], 16	; 00000010H
  0001c	72 09		 jb	 SHORT $LN9@c_str
  0001e	c7 45 f4 01 00
	00 00		 mov	 DWORD PTR tv80[ebp], 1
  00025	eb 04		 jmp	 SHORT $LN10@c_str
$LN9@c_str:
  00027	83 65 f4 00	 and	 DWORD PTR tv80[ebp], 0
$LN10@c_str:
  0002b	8a 45 f4	 mov	 al, BYTE PTR tv80[ebp]
  0002e	88 45 ff	 mov	 BYTE PTR $T3[ebp], al

; 2219 :         if (_Large_string_engaged()) {

  00031	0f b6 45 ff	 movzx	 eax, BYTE PTR $T3[ebp]
  00035	85 c0		 test	 eax, eax
  00037	74 0e		 je	 SHORT $LN4@c_str

; 2220 :             _Result = _Unfancy(_Bx._Ptr);

  00039	8b 45 f8	 mov	 eax, DWORD PTR _this$[ebp]
  0003c	8b 00		 mov	 eax, DWORD PTR [eax]
  0003e	89 45 e8	 mov	 DWORD PTR __Ptr$[ebp], eax
; File C:\Program Files (x86)\Microsoft Visual Studio\2019\Community\VC\Tools\MSVC\14.28.29333\include\xstddef

; 289  :     return _Ptr;

  00041	8b 45 e8	 mov	 eax, DWORD PTR __Ptr$[ebp]
  00044	89 45 f0	 mov	 DWORD PTR __Result$2[ebp], eax
$LN4@c_str:
; File C:\Program Files (x86)\Microsoft Visual Studio\2019\Community\VC\Tools\MSVC\14.28.29333\include\xstring

; 2223 :         return _Result;

  00047	8b 45 f0	 mov	 eax, DWORD PTR __Result$2[ebp]
  0004a	89 45 e4	 mov	 DWORD PTR $T1[ebp], eax

; 3752 :         return _Mypair._Myval2._Myptr();

  0004d	8b 45 e4	 mov	 eax, DWORD PTR $T1[ebp]

; 3753 :     }

  00050	c9		 leave
  00051	c3		 ret	 0
?c_str@?$basic_string@DU?$char_traits@D@std@@V?$allocator@D@2@@std@@QBEPBDXZ ENDP ; std::basic_string<char,std::char_traits<char>,std::allocator<char> >::c_str
_TEXT	ENDS
; Function compile flags: /Odspy
; File C:\Program Files (x86)\Microsoft Visual Studio\2019\Community\VC\Tools\MSVC\14.28.29333\include\xstring
;	COMDAT ?at@?$basic_string@DU?$char_traits@D@std@@V?$allocator@D@2@@std@@QAEAADI@Z
_TEXT	SEGMENT
_this$ = -4						; size = 4
__Off$ = 8						; size = 4
?at@?$basic_string@DU?$char_traits@D@std@@V?$allocator@D@2@@std@@QAEAADI@Z PROC ; std::basic_string<char,std::char_traits<char>,std::allocator<char> >::at, COMDAT
; _this$ = ecx

; 3660 :     _NODISCARD reference at(const size_type _Off) {

  00000	55		 push	 ebp
  00001	8b ec		 mov	 ebp, esp
  00003	51		 push	 ecx
  00004	89 4d fc	 mov	 DWORD PTR _this$[ebp], ecx

; 2237 :         if (_Mysize <= _Off) {

  00007	8b 45 fc	 mov	 eax, DWORD PTR _this$[ebp]
  0000a	8b 40 10	 mov	 eax, DWORD PTR [eax+16]
  0000d	3b 45 08	 cmp	 eax, DWORD PTR __Off$[ebp]
  00010	77 05		 ja	 SHORT $LN5@at

; 2238 :             _Xran();

  00012	e8 00 00 00 00	 call	 ?_Xran@?$_String_val@U?$_Simple_types@D@std@@@std@@SAXXZ ; std::_String_val<std::_Simple_types<char> >::_Xran
$LN5@at:

; 3661 :         _Mypair._Myval2._Check_offset_exclusive(_Off);
; 3662 :         return _Mypair._Myval2._Myptr()[_Off];

  00017	8b 4d fc	 mov	 ecx, DWORD PTR _this$[ebp]
  0001a	e8 00 00 00 00	 call	 ?_Myptr@?$_String_val@U?$_Simple_types@D@std@@@std@@QAEPADXZ ; std::_String_val<std::_Simple_types<char> >::_Myptr
  0001f	03 45 08	 add	 eax, DWORD PTR __Off$[ebp]
$LN6@at:

; 3663 :     }

  00022	c9		 leave
  00023	c2 04 00	 ret	 4
?at@?$basic_string@DU?$char_traits@D@std@@V?$allocator@D@2@@std@@QAEAADI@Z ENDP ; std::basic_string<char,std::char_traits<char>,std::allocator<char> >::at
_TEXT	ENDS
; Function compile flags: /Odspy
; File C:\Program Files (x86)\Microsoft Visual Studio\2019\Community\VC\Tools\MSVC\14.28.29333\include\xstring
;	COMDAT ?assign@?$basic_string@DU?$char_traits@D@std@@V?$allocator@D@2@@std@@QAEAAV12@QBDI@Z
_TEXT	SEGMENT
$T1 = -16						; size = 1
__Old_ptr$2 = -12					; size = 4
_this$ = -8						; size = 4
$T3 = -1						; size = 1
__Ptr$ = 8						; size = 4
__Count$ = 12						; size = 4
?assign@?$basic_string@DU?$char_traits@D@std@@V?$allocator@D@2@@std@@QAEAAV12@QBDI@Z PROC ; std::basic_string<char,std::char_traits<char>,std::allocator<char> >::assign, COMDAT
; _this$ = ecx

; 3042 :     basic_string& assign(_In_reads_(_Count) const _Elem* const _Ptr, _CRT_GUARDOVERFLOW const size_type _Count) {

  00000	55		 push	 ebp
  00001	8b ec		 mov	 ebp, esp
  00003	83 ec 10	 sub	 esp, 16			; 00000010H
  00006	89 4d f8	 mov	 DWORD PTR _this$[ebp], ecx

; 3043 :         // assign [_Ptr, _Ptr + _Count)
; 3044 :         if (_Count <= _Mypair._Myval2._Myres) {

  00009	8b 45 f8	 mov	 eax, DWORD PTR _this$[ebp]
  0000c	8b 4d 0c	 mov	 ecx, DWORD PTR __Count$[ebp]
  0000f	3b 48 14	 cmp	 ecx, DWORD PTR [eax+20]
  00012	77 39		 ja	 SHORT $LN2@assign

; 3045 :             _Elem* const _Old_ptr   = _Mypair._Myval2._Myptr();

  00014	8b 4d f8	 mov	 ecx, DWORD PTR _this$[ebp]
  00017	e8 00 00 00 00	 call	 ?_Myptr@?$_String_val@U?$_Simple_types@D@std@@@std@@QAEPADXZ ; std::_String_val<std::_Simple_types<char> >::_Myptr
  0001c	89 45 f4	 mov	 DWORD PTR __Old_ptr$2[ebp], eax

; 3046 :             _Mypair._Myval2._Mysize = _Count;

  0001f	8b 45 f8	 mov	 eax, DWORD PTR _this$[ebp]
  00022	8b 4d 0c	 mov	 ecx, DWORD PTR __Count$[ebp]
  00025	89 48 10	 mov	 DWORD PTR [eax+16], ecx

; 119  :         _CSTD memmove(_First1, _First2, _Count * sizeof(_Elem));

  00028	ff 75 0c	 push	 DWORD PTR __Count$[ebp]
  0002b	ff 75 08	 push	 DWORD PTR __Ptr$[ebp]
  0002e	ff 75 f4	 push	 DWORD PTR __Old_ptr$2[ebp]
  00031	e8 00 00 00 00	 call	 _memmove
  00036	83 c4 0c	 add	 esp, 12			; 0000000cH

; 3047 :             _Traits::move(_Old_ptr, _Ptr, _Count);
; 3048 :             _Traits::assign(_Old_ptr[_Count], _Elem());

  00039	c6 45 ff 00	 mov	 BYTE PTR $T3[ebp], 0

; 428  :         _Left = _Right;

  0003d	8b 45 f4	 mov	 eax, DWORD PTR __Old_ptr$2[ebp]
  00040	03 45 0c	 add	 eax, DWORD PTR __Count$[ebp]
  00043	8a 4d ff	 mov	 cl, BYTE PTR $T3[ebp]
  00046	88 08		 mov	 BYTE PTR [eax], cl

; 3049 :             return *this;

  00048	8b 45 f8	 mov	 eax, DWORD PTR _this$[ebp]
  0004b	eb 16		 jmp	 SHORT $LN1@assign
$LN2@assign:

; 3050 :         }
; 3051 : 
; 3052 :         return _Reallocate_for(

  0004d	33 c0		 xor	 eax, eax
  0004f	88 45 f0	 mov	 BYTE PTR $T1[ebp], al
  00052	ff 75 08	 push	 DWORD PTR __Ptr$[ebp]
  00055	ff 75 f0	 push	 DWORD PTR $T1[ebp]
  00058	ff 75 0c	 push	 DWORD PTR __Count$[ebp]
  0005b	8b 4d f8	 mov	 ecx, DWORD PTR _this$[ebp]
  0005e	e8 00 00 00 00	 call	 ??$_Reallocate_for@V<lambda_9366063389c5f42a00a5088cf24e69de>@@PBD@?$basic_string@DU?$char_traits@D@std@@V?$allocator@D@2@@std@@AAEAAV01@IV<lambda_9366063389c5f42a00a5088cf24e69de>@@PBD@Z ; std::basic_string<char,std::char_traits<char>,std::allocator<char> >::_Reallocate_for<<lambda_9366063389c5f42a00a5088cf24e69de>,char const *>
$LN1@assign:

; 3053 :             _Count,
; 3054 :             [](_Elem* const _New_ptr, const size_type _Count, const _Elem* const _Ptr) {
; 3055 :                 _Traits::copy(_New_ptr, _Ptr, _Count);
; 3056 :                 _Traits::assign(_New_ptr[_Count], _Elem());
; 3057 :             },
; 3058 :             _Ptr);
; 3059 :     }

  00063	c9		 leave
  00064	c2 08 00	 ret	 8
?assign@?$basic_string@DU?$char_traits@D@std@@V?$allocator@D@2@@std@@QAEAAV12@QBDI@Z ENDP ; std::basic_string<char,std::char_traits<char>,std::allocator<char> >::assign
_TEXT	ENDS
; Function compile flags: /Odspy
; File C:\Program Files (x86)\Microsoft Visual Studio\2019\Community\VC\Tools\MSVC\14.28.29333\include\xstring
;	COMDAT ??1?$basic_string@DU?$char_traits@D@std@@V?$allocator@D@2@@std@@QAE@XZ
_TEXT	SEGMENT
_this$ = -4						; size = 4
??1?$basic_string@DU?$char_traits@D@std@@V?$allocator@D@2@@std@@QAE@XZ PROC ; std::basic_string<char,std::char_traits<char>,std::allocator<char> >::~basic_string<char,std::char_traits<char>,std::allocator<char> >, COMDAT
; _this$ = ecx

; 2800 :     ~basic_string() noexcept {

  00000	55		 push	 ebp
  00001	8b ec		 mov	 ebp, esp
  00003	51		 push	 ecx
  00004	89 4d fc	 mov	 DWORD PTR _this$[ebp], ecx

; 2801 :         _Tidy_deallocate();

  00007	8b 4d fc	 mov	 ecx, DWORD PTR _this$[ebp]
  0000a	e8 00 00 00 00	 call	 ?_Tidy_deallocate@?$basic_string@DU?$char_traits@D@std@@V?$allocator@D@2@@std@@AAEXXZ ; std::basic_string<char,std::char_traits<char>,std::allocator<char> >::_Tidy_deallocate

; 2802 : #if _ITERATOR_DEBUG_LEVEL != 0
; 2803 :         auto&& _Alproxy          = _GET_PROXY_ALLOCATOR(_Alty, _Getal());
; 2804 :         const auto _To_delete    = _Mypair._Myval2._Myproxy;
; 2805 :         _Mypair._Myval2._Myproxy = nullptr;
; 2806 :         _Delete_plain_internal(_Alproxy, _To_delete);
; 2807 : #endif // _ITERATOR_DEBUG_LEVEL != 0
; 2808 :     }

  0000f	c9		 leave
  00010	c3		 ret	 0
??1?$basic_string@DU?$char_traits@D@std@@V?$allocator@D@2@@std@@QAE@XZ ENDP ; std::basic_string<char,std::char_traits<char>,std::allocator<char> >::~basic_string<char,std::char_traits<char>,std::allocator<char> >
_TEXT	ENDS
; Function compile flags: /Odspy
; File C:\Program Files (x86)\Microsoft Visual Studio\2019\Community\VC\Tools\MSVC\14.28.29333\include\xstring
; File C:\Program Files (x86)\Microsoft Visual Studio\2019\Community\VC\Tools\MSVC\14.28.29333\include\xmemory
; File C:\Program Files (x86)\Microsoft Visual Studio\2019\Community\VC\Tools\MSVC\14.28.29333\include\xstring
; File C:\Program Files (x86)\Microsoft Visual Studio\2019\Community\VC\Tools\MSVC\14.28.29333\include\xmemory
; File C:\Program Files (x86)\Microsoft Visual Studio\2019\Community\VC\Tools\MSVC\14.28.29333\include\xstring
;	COMDAT ??0?$basic_string@DU?$char_traits@D@std@@V?$allocator@D@2@@std@@QAE@QBD@Z
_TEXT	SEGMENT
__Alproxy$ = -40					; size = 4
$T2 = -36						; size = 4
$T3 = -32						; size = 4
_this$ = -28						; size = 4
_this$ = -24						; size = 4
_this$ = -20						; size = 4
_$S6$ = -13						; size = 1
__$EHRec$ = -12						; size = 12
__Ptr$ = 8						; size = 4
??0?$basic_string@DU?$char_traits@D@std@@V?$allocator@D@2@@std@@QAE@QBD@Z PROC ; std::basic_string<char,std::char_traits<char>,std::allocator<char> >::basic_string<char,std::char_traits<char>,std::allocator<char> >, COMDAT
; _this$ = ecx

; 2413 :     basic_string(_In_z_ const _Elem* const _Ptr) : _Mypair(_Zero_then_variadic_args_t{}) {

  00000	55		 push	 ebp
  00001	8b ec		 mov	 ebp, esp
  00003	6a ff		 push	 -1
  00005	68 00 00 00 00	 push	 __ehhandler$??0?$basic_string@DU?$char_traits@D@std@@V?$allocator@D@2@@std@@QAE@QBD@Z
  0000a	64 a1 00 00 00
	00		 mov	 eax, DWORD PTR fs:0
  00010	50		 push	 eax
  00011	83 ec 1c	 sub	 esp, 28			; 0000001cH
  00014	a1 00 00 00 00	 mov	 eax, DWORD PTR ___security_cookie
  00019	33 c5		 xor	 eax, ebp
  0001b	50		 push	 eax
  0001c	8d 45 f4	 lea	 eax, DWORD PTR __$EHRec$[ebp]
  0001f	64 a3 00 00 00
	00		 mov	 DWORD PTR fs:0, eax
  00025	89 4d ec	 mov	 DWORD PTR _this$[ebp], ecx
  00028	8b 45 ec	 mov	 eax, DWORD PTR _this$[ebp]
  0002b	89 45 e4	 mov	 DWORD PTR _this$[ebp], eax
; File C:\Program Files (x86)\Microsoft Visual Studio\2019\Community\VC\Tools\MSVC\14.28.29333\include\xmemory

; 1339 :         : _Ty1(), _Myval2(_STD forward<_Other2>(_Val2)...) {}

  0002e	8b 45 e4	 mov	 eax, DWORD PTR _this$[ebp]
  00031	89 45 e8	 mov	 DWORD PTR _this$[ebp], eax
; File C:\Program Files (x86)\Microsoft Visual Studio\2019\Community\VC\Tools\MSVC\14.28.29333\include\xstring

; 2198 :     _String_val() noexcept : _Bx(), _Mysize(0), _Myres(0) {}

  00034	8b 45 e8	 mov	 eax, DWORD PTR _this$[ebp]
  00037	83 60 10 00	 and	 DWORD PTR [eax+16], 0
  0003b	8b 45 e8	 mov	 eax, DWORD PTR _this$[ebp]
  0003e	83 60 14 00	 and	 DWORD PTR [eax+20], 0

; 2413 :     basic_string(_In_z_ const _Elem* const _Ptr) : _Mypair(_Zero_then_variadic_args_t{}) {

  00042	83 65 fc 00	 and	 DWORD PTR __$EHRec$[ebp+8], 0

; 2414 :         auto&& _Alproxy = _GET_PROXY_ALLOCATOR(_Alty, _Getal());

  00046	8d 45 f3	 lea	 eax, DWORD PTR _$S6$[ebp]
  00049	89 45 d8	 mov	 DWORD PTR __Alproxy$[ebp], eax

; 2415 :         _Container_proxy_ptr<_Alty> _Proxy(_Alproxy, _Mypair._Myval2);
; 2416 :         _Tidy_init();

  0004c	8b 4d ec	 mov	 ecx, DWORD PTR _this$[ebp]
  0004f	e8 00 00 00 00	 call	 ?_Tidy_init@?$basic_string@DU?$char_traits@D@std@@V?$allocator@D@2@@std@@AAEXXZ ; std::basic_string<char,std::char_traits<char>,std::allocator<char> >::_Tidy_init

; 389  :         return _CSTD strlen(reinterpret_cast<const char*>(_First));

  00054	ff 75 08	 push	 DWORD PTR __Ptr$[ebp]
  00057	e8 00 00 00 00	 call	 _strlen
  0005c	59		 pop	 ecx
  0005d	89 45 e0	 mov	 DWORD PTR $T3[ebp], eax
; File C:\Program Files (x86)\Microsoft Visual Studio\2019\Community\VC\Tools\MSVC\14.28.29333\include\xmemory

; 997  :     return _Len;

  00060	8b 45 e0	 mov	 eax, DWORD PTR $T3[ebp]
  00063	89 45 dc	 mov	 DWORD PTR $T2[ebp], eax
; File C:\Program Files (x86)\Microsoft Visual Studio\2019\Community\VC\Tools\MSVC\14.28.29333\include\xstring

; 3062 :         return assign(_Ptr, _Convert_size<size_type>(_Traits::length(_Ptr)));

  00066	ff 75 dc	 push	 DWORD PTR $T2[ebp]
  00069	ff 75 08	 push	 DWORD PTR __Ptr$[ebp]
  0006c	8b 4d ec	 mov	 ecx, DWORD PTR _this$[ebp]
  0006f	e8 00 00 00 00	 call	 ?assign@?$basic_string@DU?$char_traits@D@std@@V?$allocator@D@2@@std@@QAEAAV12@QBDI@Z ; std::basic_string<char,std::char_traits<char>,std::allocator<char> >::assign

; 2417 :         assign(_Ptr);
; 2418 :         _Proxy._Release();
; 2419 :     }

  00074	83 4d fc ff	 or	 DWORD PTR __$EHRec$[ebp+8], -1
  00078	8b 45 ec	 mov	 eax, DWORD PTR _this$[ebp]
  0007b	8b 4d f4	 mov	 ecx, DWORD PTR __$EHRec$[ebp]
  0007e	64 89 0d 00 00
	00 00		 mov	 DWORD PTR fs:0, ecx
  00085	59		 pop	 ecx
  00086	c9		 leave
  00087	c2 04 00	 ret	 4
_TEXT	ENDS
;	COMDAT text$x
text$x	SEGMENT
__unwindfunclet$??0?$basic_string@DU?$char_traits@D@std@@V?$allocator@D@2@@std@@QAE@QBD@Z$0:
  00000	8b 4d ec	 mov	 ecx, DWORD PTR _this$[ebp]
  00003	e9 00 00 00 00	 jmp	 ??1?$_Compressed_pair@V?$allocator@D@std@@V?$_String_val@U?$_Simple_types@D@std@@@2@$00@std@@QAE@XZ
  00008	cc		 int	 3
  00009	cc		 int	 3
  0000a	cc		 int	 3
  0000b	cc		 int	 3
  0000c	cc		 int	 3
__ehhandler$??0?$basic_string@DU?$char_traits@D@std@@V?$allocator@D@2@@std@@QAE@QBD@Z:
  0000d	90		 npad	 1
  0000e	90		 npad	 1
  0000f	8b 54 24 08	 mov	 edx, DWORD PTR [esp+8]
  00013	8d 42 0c	 lea	 eax, DWORD PTR [edx+12]
  00016	8b 4a e0	 mov	 ecx, DWORD PTR [edx-32]
  00019	33 c8		 xor	 ecx, eax
  0001b	e8 00 00 00 00	 call	 @__security_check_cookie@4
  00020	b8 00 00 00 00	 mov	 eax, OFFSET __ehfuncinfo$??0?$basic_string@DU?$char_traits@D@std@@V?$allocator@D@2@@std@@QAE@QBD@Z
  00025	e9 00 00 00 00	 jmp	 ___CxxFrameHandler3
text$x	ENDS
??0?$basic_string@DU?$char_traits@D@std@@V?$allocator@D@2@@std@@QAE@QBD@Z ENDP ; std::basic_string<char,std::char_traits<char>,std::allocator<char> >::basic_string<char,std::char_traits<char>,std::allocator<char> >
; Function compile flags: /Odspy
; File C:\Program Files (x86)\Microsoft Visual Studio\2019\Community\VC\Tools\MSVC\14.28.29333\include\xstring
;	COMDAT ?_Xran@?$_String_val@U?$_Simple_types@D@std@@@std@@SAXXZ
_TEXT	SEGMENT
?_Xran@?$_String_val@U?$_Simple_types@D@std@@@std@@SAXXZ PROC ; std::_String_val<std::_Simple_types<char> >::_Xran, COMDAT

; 2242 :     [[noreturn]] static void _Xran() {

  00000	55		 push	 ebp
  00001	8b ec		 mov	 ebp, esp

; 2243 :         _Xout_of_range("invalid string position");

  00003	68 00 00 00 00	 push	 OFFSET ??_C@_0BI@CFPLBAOH@invalid?5string?5position@
  00008	e8 00 00 00 00	 call	 ?_Xout_of_range@std@@YAXPBD@Z ; std::_Xout_of_range
$LN2@Xran:

; 2244 :     }

  0000d	5d		 pop	 ebp
  0000e	c3		 ret	 0
?_Xran@?$_String_val@U?$_Simple_types@D@std@@@std@@SAXXZ ENDP ; std::_String_val<std::_Simple_types<char> >::_Xran
_TEXT	ENDS
; Function compile flags: /Odspy
; File C:\Program Files (x86)\Microsoft Visual Studio\2019\Community\VC\Tools\MSVC\14.28.29333\include\xstring
; File C:\Program Files (x86)\Microsoft Visual Studio\2019\Community\VC\Tools\MSVC\14.28.29333\include\xstddef
; File C:\Program Files (x86)\Microsoft Visual Studio\2019\Community\VC\Tools\MSVC\14.28.29333\include\xstring
;	COMDAT ?_Myptr@?$_String_val@U?$_Simple_types@D@std@@@std@@QAEPADXZ
_TEXT	SEGMENT
__Ptr$ = -20						; size = 4
__Result$ = -16						; size = 4
tv76 = -12						; size = 4
_this$ = -8						; size = 4
$T1 = -1						; size = 1
?_Myptr@?$_String_val@U?$_Simple_types@D@std@@@std@@QAEPADXZ PROC ; std::_String_val<std::_Simple_types<char> >::_Myptr, COMDAT
; _this$ = ecx

; 2208 :     value_type* _Myptr() noexcept {

  00000	55		 push	 ebp
  00001	8b ec		 mov	 ebp, esp
  00003	83 ec 14	 sub	 esp, 20			; 00000014H
  00006	89 4d f8	 mov	 DWORD PTR _this$[ebp], ecx

; 2209 :         value_type* _Result = _Bx._Buf;

  00009	8b 45 f8	 mov	 eax, DWORD PTR _this$[ebp]
  0000c	89 45 f0	 mov	 DWORD PTR __Result$[ebp], eax

; 2227 :         return _BUF_SIZE <= _Myres;

  0000f	8b 45 f8	 mov	 eax, DWORD PTR _this$[ebp]
  00012	83 78 14 10	 cmp	 DWORD PTR [eax+20], 16	; 00000010H
  00016	72 09		 jb	 SHORT $LN6@Myptr
  00018	c7 45 f4 01 00
	00 00		 mov	 DWORD PTR tv76[ebp], 1
  0001f	eb 04		 jmp	 SHORT $LN7@Myptr
$LN6@Myptr:
  00021	83 65 f4 00	 and	 DWORD PTR tv76[ebp], 0
$LN7@Myptr:
  00025	8a 45 f4	 mov	 al, BYTE PTR tv76[ebp]
  00028	88 45 ff	 mov	 BYTE PTR $T1[ebp], al

; 2210 :         if (_Large_string_engaged()) {

  0002b	0f b6 45 ff	 movzx	 eax, BYTE PTR $T1[ebp]
  0002f	85 c0		 test	 eax, eax
  00031	74 0e		 je	 SHORT $LN2@Myptr

; 2211 :             _Result = _Unfancy(_Bx._Ptr);

  00033	8b 45 f8	 mov	 eax, DWORD PTR _this$[ebp]
  00036	8b 00		 mov	 eax, DWORD PTR [eax]
  00038	89 45 ec	 mov	 DWORD PTR __Ptr$[ebp], eax
; File C:\Program Files (x86)\Microsoft Visual Studio\2019\Community\VC\Tools\MSVC\14.28.29333\include\xstddef

; 289  :     return _Ptr;

  0003b	8b 45 ec	 mov	 eax, DWORD PTR __Ptr$[ebp]
  0003e	89 45 f0	 mov	 DWORD PTR __Result$[ebp], eax
$LN2@Myptr:
; File C:\Program Files (x86)\Microsoft Visual Studio\2019\Community\VC\Tools\MSVC\14.28.29333\include\xstring

; 2214 :         return _Result;

  00041	8b 45 f0	 mov	 eax, DWORD PTR __Result$[ebp]

; 2215 :     }

  00044	c9		 leave
  00045	c3		 ret	 0
?_Myptr@?$_String_val@U?$_Simple_types@D@std@@@std@@QAEPADXZ ENDP ; std::_String_val<std::_Simple_types<char> >::_Myptr
_TEXT	ENDS
; Function compile flags: /Odspy
; File C:\Program Files (x86)\Microsoft Visual Studio\2019\Community\VC\Tools\MSVC\14.28.29333\include\xstring
;	COMDAT ?_Xlen_string@std@@YAXXZ
_TEXT	SEGMENT
?_Xlen_string@std@@YAXXZ PROC				; std::_Xlen_string, COMDAT

; 2274 : [[noreturn]] inline void _Xlen_string() {

  00000	55		 push	 ebp
  00001	8b ec		 mov	 ebp, esp

; 2275 :     _Xlength_error("string too long");

  00003	68 00 00 00 00	 push	 OFFSET ??_C@_0BA@JFNIOLAK@string?5too?5long@
  00008	e8 00 00 00 00	 call	 ?_Xlength_error@std@@YAXPBD@Z ; std::_Xlength_error
$LN2@Xlen_strin:

; 2276 : }

  0000d	5d		 pop	 ebp
  0000e	c3		 ret	 0
?_Xlen_string@std@@YAXXZ ENDP				; std::_Xlen_string
_TEXT	ENDS
; Function compile flags: /Odspy
; File C:\Program Files (x86)\Microsoft Visual Studio\2019\Community\VC\Tools\MSVC\14.28.29333\include\xmemory
;	COMDAT ?_Adjust_manually_vector_aligned@std@@YAXAAPAXAAI@Z
_TEXT	SEGMENT
__Min_back_shift$ = -16					; size = 4
__Ptr_user$ = -12					; size = 4
__Ptr_container$ = -8					; size = 4
__Back_shift$ = -4					; size = 4
__Ptr$ = 8						; size = 4
__Bytes$ = 12						; size = 4
?_Adjust_manually_vector_aligned@std@@YAXAAPAXAAI@Z PROC ; std::_Adjust_manually_vector_aligned, COMDAT

; 132  : inline void _Adjust_manually_vector_aligned(void*& _Ptr, size_t& _Bytes) {

  00000	55		 push	 ebp
  00001	8b ec		 mov	 ebp, esp
  00003	83 ec 10	 sub	 esp, 16			; 00000010H

; 133  :     // adjust parameters from _Allocate_manually_vector_aligned to pass to operator delete
; 134  :     _Bytes += _Non_user_size;

  00006	8b 45 0c	 mov	 eax, DWORD PTR __Bytes$[ebp]
  00009	8b 00		 mov	 eax, DWORD PTR [eax]
  0000b	83 c0 23	 add	 eax, 35			; 00000023H
  0000e	8b 4d 0c	 mov	 ecx, DWORD PTR __Bytes$[ebp]
  00011	89 01		 mov	 DWORD PTR [ecx], eax

; 135  : 
; 136  :     const uintptr_t* const _Ptr_user = reinterpret_cast<uintptr_t*>(_Ptr);

  00013	8b 45 08	 mov	 eax, DWORD PTR __Ptr$[ebp]
  00016	8b 00		 mov	 eax, DWORD PTR [eax]
  00018	89 45 f4	 mov	 DWORD PTR __Ptr_user$[ebp], eax

; 137  :     const uintptr_t _Ptr_container   = _Ptr_user[-1];

  0001b	6a 04		 push	 4
  0001d	58		 pop	 eax
  0001e	6b c0 ff	 imul	 eax, eax, -1
  00021	8b 4d f4	 mov	 ecx, DWORD PTR __Ptr_user$[ebp]
  00024	8b 04 01	 mov	 eax, DWORD PTR [ecx+eax]
  00027	89 45 f8	 mov	 DWORD PTR __Ptr_container$[ebp], eax

; 138  : 
; 139  :     // If the following asserts, it likely means that we are performing
; 140  :     // an aligned delete on memory coming from an unaligned allocation.
; 141  :     _STL_ASSERT(_Ptr_user[-2] == _Big_allocation_sentinel, "invalid argument");
; 142  : 
; 143  :     // Extra paranoia on aligned allocation/deallocation; ensure _Ptr_container is
; 144  :     // in range [_Min_back_shift, _Non_user_size]
; 145  : #ifdef _DEBUG
; 146  :     constexpr uintptr_t _Min_back_shift = 2 * sizeof(void*);
; 147  : #else // ^^^ _DEBUG ^^^ // vvv !_DEBUG vvv
; 148  :     constexpr uintptr_t _Min_back_shift = sizeof(void*);

  0002a	c7 45 f0 04 00
	00 00		 mov	 DWORD PTR __Min_back_shift$[ebp], 4

; 149  : #endif // _DEBUG
; 150  :     const uintptr_t _Back_shift = reinterpret_cast<uintptr_t>(_Ptr) - _Ptr_container;

  00031	8b 45 08	 mov	 eax, DWORD PTR __Ptr$[ebp]
  00034	8b 00		 mov	 eax, DWORD PTR [eax]
  00036	2b 45 f8	 sub	 eax, DWORD PTR __Ptr_container$[ebp]
  00039	89 45 fc	 mov	 DWORD PTR __Back_shift$[ebp], eax
$LN4@Adjust_man:

; 151  :     _STL_VERIFY(_Back_shift >= _Min_back_shift && _Back_shift <= _Non_user_size, "invalid argument");

  0003c	83 7d fc 04	 cmp	 DWORD PTR __Back_shift$[ebp], 4
  00040	72 08		 jb	 SHORT $LN7@Adjust_man
  00042	83 7d fc 23	 cmp	 DWORD PTR __Back_shift$[ebp], 35 ; 00000023H
  00046	77 02		 ja	 SHORT $LN7@Adjust_man
  00048	eb 09		 jmp	 SHORT $LN2@Adjust_man
$LN7@Adjust_man:
  0004a	e8 00 00 00 00	 call	 __invalid_parameter_noinfo_noreturn
  0004f	33 c0		 xor	 eax, eax
  00051	75 f7		 jne	 SHORT $LN7@Adjust_man
$LN2@Adjust_man:
  00053	33 c0		 xor	 eax, eax
  00055	75 e5		 jne	 SHORT $LN4@Adjust_man

; 152  :     _Ptr = reinterpret_cast<void*>(_Ptr_container);

  00057	8b 45 08	 mov	 eax, DWORD PTR __Ptr$[ebp]
  0005a	8b 4d f8	 mov	 ecx, DWORD PTR __Ptr_container$[ebp]
  0005d	89 08		 mov	 DWORD PTR [eax], ecx
$LN10@Adjust_man:

; 153  : }

  0005f	c9		 leave
  00060	c3		 ret	 0
?_Adjust_manually_vector_aligned@std@@YAXAAPAXAAI@Z ENDP ; std::_Adjust_manually_vector_aligned
_TEXT	ENDS
; Function compile flags: /Odspy
; File C:\Program Files (x86)\Microsoft Visual Studio\2019\Community\VC\Tools\MSVC\14.28.29333\include\exception
;	COMDAT ?_Throw_bad_array_new_length@std@@YAXXZ
_TEXT	SEGMENT
$T1 = -12						; size = 12
?_Throw_bad_array_new_length@std@@YAXXZ PROC		; std::_Throw_bad_array_new_length, COMDAT

; 320  : [[noreturn]] inline void _Throw_bad_array_new_length() {

  00000	55		 push	 ebp
  00001	8b ec		 mov	 ebp, esp
  00003	83 ec 0c	 sub	 esp, 12			; 0000000cH

; 321  :     _THROW(bad_array_new_length{});

  00006	8d 4d f4	 lea	 ecx, DWORD PTR $T1[ebp]
  00009	e8 00 00 00 00	 call	 ??0bad_array_new_length@std@@QAE@XZ ; std::bad_array_new_length::bad_array_new_length
  0000e	68 00 00 00 00	 push	 OFFSET __TI3?AVbad_array_new_length@std@@
  00013	8d 45 f4	 lea	 eax, DWORD PTR $T1[ebp]
  00016	50		 push	 eax
  00017	e8 00 00 00 00	 call	 __CxxThrowException@8
$LN2@Throw_bad_:

; 322  : }

  0001c	c9		 leave
  0001d	c3		 ret	 0
?_Throw_bad_array_new_length@std@@YAXXZ ENDP		; std::_Throw_bad_array_new_length
_TEXT	ENDS
; Function compile flags: /Odspy
; File C:\Program Files (x86)\Microsoft Visual Studio\2019\Community\VC\Tools\MSVC\14.28.29333\include\vcruntime_exception.h
;	COMDAT ??_Gbad_array_new_length@std@@UAEPAXI@Z
_TEXT	SEGMENT
_this$ = -4						; size = 4
___flags$ = 8						; size = 4
??_Gbad_array_new_length@std@@UAEPAXI@Z PROC		; std::bad_array_new_length::`scalar deleting destructor', COMDAT
; _this$ = ecx
  00000	55		 push	 ebp
  00001	8b ec		 mov	 ebp, esp
  00003	51		 push	 ecx
  00004	89 4d fc	 mov	 DWORD PTR _this$[ebp], ecx

; 89   :     {

  00007	8b 45 fc	 mov	 eax, DWORD PTR _this$[ebp]
  0000a	c7 00 00 00 00
	00		 mov	 DWORD PTR [eax], OFFSET ??_7exception@std@@6B@

; 90   :         __std_exception_destroy(&_Data);

  00010	8b 45 fc	 mov	 eax, DWORD PTR _this$[ebp]
  00013	83 c0 04	 add	 eax, 4
  00016	50		 push	 eax
  00017	e8 00 00 00 00	 call	 ___std_exception_destroy
  0001c	59		 pop	 ecx
  0001d	8b 45 08	 mov	 eax, DWORD PTR ___flags$[ebp]
  00020	83 e0 01	 and	 eax, 1
  00023	74 0c		 je	 SHORT $LN2@scalar
  00025	6a 0c		 push	 12			; 0000000cH
  00027	ff 75 fc	 push	 DWORD PTR _this$[ebp]
  0002a	e8 00 00 00 00	 call	 ??3@YAXPAXI@Z		; operator delete
  0002f	59		 pop	 ecx
  00030	59		 pop	 ecx
$LN2@scalar:
  00031	8b 45 fc	 mov	 eax, DWORD PTR _this$[ebp]
  00034	c9		 leave
  00035	c2 04 00	 ret	 4
??_Gbad_array_new_length@std@@UAEPAXI@Z ENDP		; std::bad_array_new_length::`scalar deleting destructor'
_TEXT	ENDS
; Function compile flags: /Odspy
;	COMDAT ??0bad_array_new_length@std@@QAE@ABV01@@Z
_TEXT	SEGMENT
_this$ = -4						; size = 4
___that$ = 8						; size = 4
??0bad_array_new_length@std@@QAE@ABV01@@Z PROC		; std::bad_array_new_length::bad_array_new_length, COMDAT
; _this$ = ecx
  00000	55		 push	 ebp
  00001	8b ec		 mov	 ebp, esp
  00003	51		 push	 ecx
  00004	89 4d fc	 mov	 DWORD PTR _this$[ebp], ecx
  00007	ff 75 08	 push	 DWORD PTR ___that$[ebp]
  0000a	8b 4d fc	 mov	 ecx, DWORD PTR _this$[ebp]
  0000d	e8 00 00 00 00	 call	 ??0exception@std@@QAE@ABV01@@Z ; std::exception::exception
  00012	8b 45 fc	 mov	 eax, DWORD PTR _this$[ebp]
  00015	c7 00 00 00 00
	00		 mov	 DWORD PTR [eax], OFFSET ??_7bad_alloc@std@@6B@
  0001b	8b 45 fc	 mov	 eax, DWORD PTR _this$[ebp]
  0001e	c7 00 00 00 00
	00		 mov	 DWORD PTR [eax], OFFSET ??_7bad_array_new_length@std@@6B@
  00024	8b 45 fc	 mov	 eax, DWORD PTR _this$[ebp]
  00027	c9		 leave
  00028	c2 04 00	 ret	 4
??0bad_array_new_length@std@@QAE@ABV01@@Z ENDP		; std::bad_array_new_length::bad_array_new_length
_TEXT	ENDS
; Function compile flags: /Odspy
; File C:\Program Files (x86)\Microsoft Visual Studio\2019\Community\VC\Tools\MSVC\14.28.29333\include\vcruntime_exception.h
;	COMDAT ??1bad_array_new_length@std@@UAE@XZ
_TEXT	SEGMENT
_this$ = -4						; size = 4
??1bad_array_new_length@std@@UAE@XZ PROC		; std::bad_array_new_length::~bad_array_new_length, COMDAT
; _this$ = ecx
  00000	55		 push	 ebp
  00001	8b ec		 mov	 ebp, esp
  00003	51		 push	 ecx
  00004	89 4d fc	 mov	 DWORD PTR _this$[ebp], ecx

; 89   :     {

  00007	8b 45 fc	 mov	 eax, DWORD PTR _this$[ebp]
  0000a	c7 00 00 00 00
	00		 mov	 DWORD PTR [eax], OFFSET ??_7exception@std@@6B@

; 90   :         __std_exception_destroy(&_Data);

  00010	8b 45 fc	 mov	 eax, DWORD PTR _this$[ebp]
  00013	83 c0 04	 add	 eax, 4
  00016	50		 push	 eax
  00017	e8 00 00 00 00	 call	 ___std_exception_destroy
  0001c	59		 pop	 ecx
  0001d	c9		 leave
  0001e	c3		 ret	 0
??1bad_array_new_length@std@@UAE@XZ ENDP		; std::bad_array_new_length::~bad_array_new_length
_TEXT	ENDS
; Function compile flags: /Odspy
; File C:\Program Files (x86)\Microsoft Visual Studio\2019\Community\VC\Tools\MSVC\14.28.29333\include\vcruntime_exception.h
;	COMDAT ??0bad_array_new_length@std@@QAE@XZ
_TEXT	SEGMENT
_this$ = -4						; size = 4
??0bad_array_new_length@std@@QAE@XZ PROC		; std::bad_array_new_length::bad_array_new_length, COMDAT
; _this$ = ecx

; 141  :     {

  00000	55		 push	 ebp
  00001	8b ec		 mov	 ebp, esp
  00003	51		 push	 ecx
  00004	89 4d fc	 mov	 DWORD PTR _this$[ebp], ecx

; 66   :     {

  00007	8b 45 fc	 mov	 eax, DWORD PTR _this$[ebp]
  0000a	c7 00 00 00 00
	00		 mov	 DWORD PTR [eax], OFFSET ??_7exception@std@@6B@

; 65   :         : _Data()

  00010	33 c0		 xor	 eax, eax
  00012	8b 4d fc	 mov	 ecx, DWORD PTR _this$[ebp]
  00015	83 c1 04	 add	 ecx, 4
  00018	89 01		 mov	 DWORD PTR [ecx], eax
  0001a	89 41 04	 mov	 DWORD PTR [ecx+4], eax

; 67   :         _Data._What = _Message;

  0001d	8b 45 fc	 mov	 eax, DWORD PTR _this$[ebp]
  00020	c7 40 04 00 00
	00 00		 mov	 DWORD PTR [eax+4], OFFSET ??_C@_0BF@KINCDENJ@bad?5array?5new?5length@

; 130  :     {

  00027	8b 45 fc	 mov	 eax, DWORD PTR _this$[ebp]
  0002a	c7 00 00 00 00
	00		 mov	 DWORD PTR [eax], OFFSET ??_7bad_alloc@std@@6B@

; 141  :     {

  00030	8b 45 fc	 mov	 eax, DWORD PTR _this$[ebp]
  00033	c7 00 00 00 00
	00		 mov	 DWORD PTR [eax], OFFSET ??_7bad_array_new_length@std@@6B@

; 142  :     }

  00039	8b 45 fc	 mov	 eax, DWORD PTR _this$[ebp]
  0003c	c9		 leave
  0003d	c3		 ret	 0
??0bad_array_new_length@std@@QAE@XZ ENDP		; std::bad_array_new_length::bad_array_new_length
_TEXT	ENDS
; Function compile flags: /Odspy
; File C:\Program Files (x86)\Microsoft Visual Studio\2019\Community\VC\Tools\MSVC\14.28.29333\include\vcruntime_exception.h
;	COMDAT ??_Gbad_alloc@std@@UAEPAXI@Z
_TEXT	SEGMENT
_this$ = -4						; size = 4
___flags$ = 8						; size = 4
??_Gbad_alloc@std@@UAEPAXI@Z PROC			; std::bad_alloc::`scalar deleting destructor', COMDAT
; _this$ = ecx
  00000	55		 push	 ebp
  00001	8b ec		 mov	 ebp, esp
  00003	51		 push	 ecx
  00004	89 4d fc	 mov	 DWORD PTR _this$[ebp], ecx

; 89   :     {

  00007	8b 45 fc	 mov	 eax, DWORD PTR _this$[ebp]
  0000a	c7 00 00 00 00
	00		 mov	 DWORD PTR [eax], OFFSET ??_7exception@std@@6B@

; 90   :         __std_exception_destroy(&_Data);

  00010	8b 45 fc	 mov	 eax, DWORD PTR _this$[ebp]
  00013	83 c0 04	 add	 eax, 4
  00016	50		 push	 eax
  00017	e8 00 00 00 00	 call	 ___std_exception_destroy
  0001c	59		 pop	 ecx
  0001d	8b 45 08	 mov	 eax, DWORD PTR ___flags$[ebp]
  00020	83 e0 01	 and	 eax, 1
  00023	74 0c		 je	 SHORT $LN2@scalar
  00025	6a 0c		 push	 12			; 0000000cH
  00027	ff 75 fc	 push	 DWORD PTR _this$[ebp]
  0002a	e8 00 00 00 00	 call	 ??3@YAXPAXI@Z		; operator delete
  0002f	59		 pop	 ecx
  00030	59		 pop	 ecx
$LN2@scalar:
  00031	8b 45 fc	 mov	 eax, DWORD PTR _this$[ebp]
  00034	c9		 leave
  00035	c2 04 00	 ret	 4
??_Gbad_alloc@std@@UAEPAXI@Z ENDP			; std::bad_alloc::`scalar deleting destructor'
_TEXT	ENDS
; Function compile flags: /Odspy
;	COMDAT ??0bad_alloc@std@@QAE@ABV01@@Z
_TEXT	SEGMENT
_this$ = -4						; size = 4
___that$ = 8						; size = 4
??0bad_alloc@std@@QAE@ABV01@@Z PROC			; std::bad_alloc::bad_alloc, COMDAT
; _this$ = ecx
  00000	55		 push	 ebp
  00001	8b ec		 mov	 ebp, esp
  00003	51		 push	 ecx
  00004	89 4d fc	 mov	 DWORD PTR _this$[ebp], ecx
  00007	ff 75 08	 push	 DWORD PTR ___that$[ebp]
  0000a	8b 4d fc	 mov	 ecx, DWORD PTR _this$[ebp]
  0000d	e8 00 00 00 00	 call	 ??0exception@std@@QAE@ABV01@@Z ; std::exception::exception
  00012	8b 45 fc	 mov	 eax, DWORD PTR _this$[ebp]
  00015	c7 00 00 00 00
	00		 mov	 DWORD PTR [eax], OFFSET ??_7bad_alloc@std@@6B@
  0001b	8b 45 fc	 mov	 eax, DWORD PTR _this$[ebp]
  0001e	c9		 leave
  0001f	c2 04 00	 ret	 4
??0bad_alloc@std@@QAE@ABV01@@Z ENDP			; std::bad_alloc::bad_alloc
_TEXT	ENDS
; Function compile flags: /Odspy
; File C:\Program Files (x86)\Microsoft Visual Studio\2019\Community\VC\Tools\MSVC\14.28.29333\include\vcruntime_exception.h
;	COMDAT ??_Gexception@std@@UAEPAXI@Z
_TEXT	SEGMENT
_this$ = -4						; size = 4
___flags$ = 8						; size = 4
??_Gexception@std@@UAEPAXI@Z PROC			; std::exception::`scalar deleting destructor', COMDAT
; _this$ = ecx
  00000	55		 push	 ebp
  00001	8b ec		 mov	 ebp, esp
  00003	51		 push	 ecx
  00004	89 4d fc	 mov	 DWORD PTR _this$[ebp], ecx

; 89   :     {

  00007	8b 45 fc	 mov	 eax, DWORD PTR _this$[ebp]
  0000a	c7 00 00 00 00
	00		 mov	 DWORD PTR [eax], OFFSET ??_7exception@std@@6B@

; 90   :         __std_exception_destroy(&_Data);

  00010	8b 45 fc	 mov	 eax, DWORD PTR _this$[ebp]
  00013	83 c0 04	 add	 eax, 4
  00016	50		 push	 eax
  00017	e8 00 00 00 00	 call	 ___std_exception_destroy
  0001c	59		 pop	 ecx
  0001d	8b 45 08	 mov	 eax, DWORD PTR ___flags$[ebp]
  00020	83 e0 01	 and	 eax, 1
  00023	74 0c		 je	 SHORT $LN2@scalar
  00025	6a 0c		 push	 12			; 0000000cH
  00027	ff 75 fc	 push	 DWORD PTR _this$[ebp]
  0002a	e8 00 00 00 00	 call	 ??3@YAXPAXI@Z		; operator delete
  0002f	59		 pop	 ecx
  00030	59		 pop	 ecx
$LN2@scalar:
  00031	8b 45 fc	 mov	 eax, DWORD PTR _this$[ebp]
  00034	c9		 leave
  00035	c2 04 00	 ret	 4
??_Gexception@std@@UAEPAXI@Z ENDP			; std::exception::`scalar deleting destructor'
_TEXT	ENDS
; Function compile flags: /Odspy
; File C:\Program Files (x86)\Microsoft Visual Studio\2019\Community\VC\Tools\MSVC\14.28.29333\include\vcruntime_exception.h
;	COMDAT ?what@exception@std@@UBEPBDXZ
_TEXT	SEGMENT
tv69 = -8						; size = 4
_this$ = -4						; size = 4
?what@exception@std@@UBEPBDXZ PROC			; std::exception::what, COMDAT
; _this$ = ecx

; 94   :     {

  00000	55		 push	 ebp
  00001	8b ec		 mov	 ebp, esp
  00003	51		 push	 ecx
  00004	51		 push	 ecx
  00005	89 4d fc	 mov	 DWORD PTR _this$[ebp], ecx

; 95   :         return _Data._What ? _Data._What : "Unknown exception";

  00008	8b 45 fc	 mov	 eax, DWORD PTR _this$[ebp]
  0000b	83 78 04 00	 cmp	 DWORD PTR [eax+4], 0
  0000f	74 0b		 je	 SHORT $LN3@what
  00011	8b 45 fc	 mov	 eax, DWORD PTR _this$[ebp]
  00014	8b 40 04	 mov	 eax, DWORD PTR [eax+4]
  00017	89 45 f8	 mov	 DWORD PTR tv69[ebp], eax
  0001a	eb 07		 jmp	 SHORT $LN4@what
$LN3@what:
  0001c	c7 45 f8 00 00
	00 00		 mov	 DWORD PTR tv69[ebp], OFFSET ??_C@_0BC@EOODALEL@Unknown?5exception@
$LN4@what:
  00023	8b 45 f8	 mov	 eax, DWORD PTR tv69[ebp]

; 96   :     }

  00026	c9		 leave
  00027	c3		 ret	 0
?what@exception@std@@UBEPBDXZ ENDP			; std::exception::what
_TEXT	ENDS
; Function compile flags: /Odspy
; File C:\Program Files (x86)\Microsoft Visual Studio\2019\Community\VC\Tools\MSVC\14.28.29333\include\vcruntime_exception.h
;	COMDAT ??0exception@std@@QAE@ABV01@@Z
_TEXT	SEGMENT
_this$ = -4						; size = 4
__Other$ = 8						; size = 4
??0exception@std@@QAE@ABV01@@Z PROC			; std::exception::exception, COMDAT
; _this$ = ecx

; 72   :     {

  00000	55		 push	 ebp
  00001	8b ec		 mov	 ebp, esp
  00003	51		 push	 ecx
  00004	89 4d fc	 mov	 DWORD PTR _this$[ebp], ecx
  00007	8b 45 fc	 mov	 eax, DWORD PTR _this$[ebp]
  0000a	c7 00 00 00 00
	00		 mov	 DWORD PTR [eax], OFFSET ??_7exception@std@@6B@

; 71   :         : _Data()

  00010	33 c0		 xor	 eax, eax
  00012	8b 4d fc	 mov	 ecx, DWORD PTR _this$[ebp]
  00015	83 c1 04	 add	 ecx, 4
  00018	89 01		 mov	 DWORD PTR [ecx], eax
  0001a	89 41 04	 mov	 DWORD PTR [ecx+4], eax

; 73   :         __std_exception_copy(&_Other._Data, &_Data);

  0001d	8b 45 fc	 mov	 eax, DWORD PTR _this$[ebp]
  00020	83 c0 04	 add	 eax, 4
  00023	50		 push	 eax
  00024	8b 45 08	 mov	 eax, DWORD PTR __Other$[ebp]
  00027	83 c0 04	 add	 eax, 4
  0002a	50		 push	 eax
  0002b	e8 00 00 00 00	 call	 ___std_exception_copy
  00030	59		 pop	 ecx
  00031	59		 pop	 ecx

; 74   :     }

  00032	8b 45 fc	 mov	 eax, DWORD PTR _this$[ebp]
  00035	c9		 leave
  00036	c2 04 00	 ret	 4
??0exception@std@@QAE@ABV01@@Z ENDP			; std::exception::exception
_TEXT	ENDS
; Function compile flags: /Odspy
; File C:\Program Files (x86)\Windows Kits\10\Include\10.0.18362.0\ucrt\stdio.h
;	COMDAT __snprintf
_TEXT	SEGMENT
__Result$ = -20						; size = 4
__Format$ = -16						; size = 4
__ArgList$ = -12					; size = 4
tv86 = -8						; size = 4
__Result$1 = -4						; size = 4
__Buffer$ = 8						; size = 4
__BufferCount$ = 12					; size = 4
__Format$ = 16						; size = 4
__snprintf PROC						; COMDAT

; 1969 :     {

  00000	55		 push	 ebp
  00001	8b ec		 mov	 ebp, esp
  00003	83 ec 14	 sub	 esp, 20			; 00000014H

; 1970 :         int _Result;
; 1971 :         va_list _ArgList;
; 1972 :         __crt_va_start(_ArgList, _Format);

  00006	8d 45 14	 lea	 eax, DWORD PTR __Format$[ebp+4]
  00009	89 45 f4	 mov	 DWORD PTR __ArgList$[ebp], eax

; 1973 :     #pragma warning(suppress:28719)    // 28719
; 1974 :         _Result = _vsnprintf(_Buffer, _BufferCount, _Format, _ArgList);

  0000c	8b 45 10	 mov	 eax, DWORD PTR __Format$[ebp]
  0000f	89 45 f0	 mov	 DWORD PTR __Format$[ebp], eax

; 1390 :         int const _Result = __stdio_common_vsprintf(

  00012	ff 75 f4	 push	 DWORD PTR __ArgList$[ebp]
  00015	6a 00		 push	 0
  00017	ff 75 f0	 push	 DWORD PTR __Format$[ebp]
  0001a	ff 75 0c	 push	 DWORD PTR __BufferCount$[ebp]
  0001d	ff 75 08	 push	 DWORD PTR __Buffer$[ebp]
  00020	e8 00 00 00 00	 call	 ___local_stdio_printf_options
  00025	8b 08		 mov	 ecx, DWORD PTR [eax]
  00027	83 c9 01	 or	 ecx, 1
  0002a	8b 40 04	 mov	 eax, DWORD PTR [eax+4]
  0002d	50		 push	 eax
  0002e	51		 push	 ecx
  0002f	e8 00 00 00 00	 call	 ___stdio_common_vsprintf
  00034	83 c4 1c	 add	 esp, 28			; 0000001cH
  00037	89 45 fc	 mov	 DWORD PTR __Result$1[ebp], eax

; 1391 :             _CRT_INTERNAL_LOCAL_PRINTF_OPTIONS | _CRT_INTERNAL_PRINTF_LEGACY_VSPRINTF_NULL_TERMINATION,
; 1392 :             _Buffer, _BufferCount, _Format, _Locale, _ArgList);
; 1393 : 
; 1394 :         return _Result < 0 ? -1 : _Result;

  0003a	83 7d fc 00	 cmp	 DWORD PTR __Result$1[ebp], 0
  0003e	7d 06		 jge	 SHORT $LN7@snprintf
  00040	83 4d f8 ff	 or	 DWORD PTR tv86[ebp], -1
  00044	eb 06		 jmp	 SHORT $LN3@snprintf
$LN7@snprintf:
  00046	8b 45 fc	 mov	 eax, DWORD PTR __Result$1[ebp]
  00049	89 45 f8	 mov	 DWORD PTR tv86[ebp], eax
$LN3@snprintf:

; 1973 :     #pragma warning(suppress:28719)    // 28719
; 1974 :         _Result = _vsnprintf(_Buffer, _BufferCount, _Format, _ArgList);

  0004c	8b 45 f8	 mov	 eax, DWORD PTR tv86[ebp]
  0004f	89 45 ec	 mov	 DWORD PTR __Result$[ebp], eax

; 1975 :         __crt_va_end(_ArgList);

  00052	83 65 f4 00	 and	 DWORD PTR __ArgList$[ebp], 0

; 1976 :         return _Result;

  00056	8b 45 ec	 mov	 eax, DWORD PTR __Result$[ebp]

; 1977 :     }

  00059	c9		 leave
  0005a	c3		 ret	 0
__snprintf ENDP
_TEXT	ENDS
; Function compile flags: /Odspy
; File C:\Program Files (x86)\Windows Kits\10\Include\10.0.18362.0\ucrt\corecrt_stdio_config.h
;	COMDAT ___local_stdio_printf_options
_TEXT	SEGMENT
___local_stdio_printf_options PROC			; COMDAT

; 86   :     {

  00000	55		 push	 ebp
  00001	8b ec		 mov	 ebp, esp

; 87   :         static unsigned __int64 _OptionsStorage;
; 88   :         return &_OptionsStorage;

  00003	b8 00 00 00 00	 mov	 eax, OFFSET ?_OptionsStorage@?1??__local_stdio_printf_options@@9@4_KA ; `__local_stdio_printf_options'::`2'::_OptionsStorage

; 89   :     }

  00008	5d		 pop	 ebp
  00009	c3		 ret	 0
___local_stdio_printf_options ENDP
_TEXT	ENDS
; Function compile flags: /Odspy
;	COMDAT ??_H@YGXPAXIIP6EPAX0@Z@Z
_TEXT	SEGMENT
tv66 = -4						; size = 4
___t$ = 8						; size = 4
___s$ = 12						; size = 4
___n$ = 16						; size = 4
___f$ = 20						; size = 4
??_H@YGXPAXIIP6EPAX0@Z@Z PROC				; `vector constructor iterator', COMDAT
  00000	55		 push	 ebp
  00001	8b ec		 mov	 ebp, esp
  00003	51		 push	 ecx
$LN2@vector:
  00004	8b 45 10	 mov	 eax, DWORD PTR ___n$[ebp]
  00007	89 45 fc	 mov	 DWORD PTR tv66[ebp], eax
  0000a	8b 45 10	 mov	 eax, DWORD PTR ___n$[ebp]
  0000d	48		 dec	 eax
  0000e	89 45 10	 mov	 DWORD PTR ___n$[ebp], eax
  00011	83 7d fc 00	 cmp	 DWORD PTR tv66[ebp], 0
  00015	76 11		 jbe	 SHORT $LN1@vector
  00017	8b 4d 08	 mov	 ecx, DWORD PTR ___t$[ebp]
  0001a	ff 55 14	 call	 DWORD PTR ___f$[ebp]
  0001d	8b 45 08	 mov	 eax, DWORD PTR ___t$[ebp]
  00020	03 45 0c	 add	 eax, DWORD PTR ___s$[ebp]
  00023	89 45 08	 mov	 DWORD PTR ___t$[ebp], eax
  00026	eb dc		 jmp	 SHORT $LN2@vector
$LN1@vector:
  00028	c9		 leave
  00029	c2 10 00	 ret	 16			; 00000010H
??_H@YGXPAXIIP6EPAX0@Z@Z ENDP				; `vector constructor iterator'
_TEXT	ENDS
END
