; Listing generated by Microsoft (R) Optimizing Compiler Version 19.28.29335.0 

	TITLE	D:\Metin2 Server Files\mainline\SRC_2014\Metin2Client\eterGrnLib\Model.cpp
	.686P
	.XMM
	include listing.inc
	.model	flat

INCLUDELIB LIBCMT
INCLUDELIB OLDNAMES

PUBLIC	??_ECGrannyMesh@@UAEPAXI@Z			; CGrannyMesh::`vector deleting destructor'
PUBLIC	??0CGrannyModel@@QAE@XZ				; CGrannyModel::CGrannyModel
PUBLIC	??1CGrannyModel@@UAE@XZ				; CGrannyModel::~CGrannyModel
PUBLIC	?IsEmpty@CGrannyModel@@QBE_NXZ			; CGrannyModel::IsEmpty
PUBLIC	?CreateFromGrannyModelPointer@CGrannyModel@@QAE_NPAUgranny_model@@@Z ; CGrannyModel::CreateFromGrannyModelPointer
PUBLIC	?CreateDeviceObjects@CGrannyModel@@QAE_NXZ	; CGrannyModel::CreateDeviceObjects
PUBLIC	?DestroyDeviceObjects@CGrannyModel@@QAEXXZ	; CGrannyModel::DestroyDeviceObjects
PUBLIC	?Destroy@CGrannyModel@@QAEXXZ			; CGrannyModel::Destroy
PUBLIC	?GetRigidVertexCount@CGrannyModel@@QBEHXZ	; CGrannyModel::GetRigidVertexCount
PUBLIC	?GetDeformVertexCount@CGrannyModel@@QBEHXZ	; CGrannyModel::GetDeformVertexCount
PUBLIC	?GetVertexCount@CGrannyModel@@QBEHXZ		; CGrannyModel::GetVertexCount
PUBLIC	?CanDeformPNTVertices@CGrannyModel@@QBE_NXZ	; CGrannyModel::CanDeformPNTVertices
PUBLIC	?DeformPNTVertices@CGrannyModel@@QBEXPAXPAUD3DXMATRIX@@ABV?$vector@PAUgranny_mesh_binding@@V?$allocator@PAUgranny_mesh_binding@@@std@@@std@@@Z ; CGrannyModel::DeformPNTVertices
PUBLIC	?GetIdxCount@CGrannyModel@@QAEHXZ		; CGrannyModel::GetIdxCount
PUBLIC	?GetMeshCount@CGrannyModel@@QBEHXZ		; CGrannyModel::GetMeshCount
PUBLIC	?GetMeshPointer@CGrannyModel@@QAEPAVCGrannyMesh@@H@Z ; CGrannyModel::GetMeshPointer
PUBLIC	?GetGrannyModelPointer@CGrannyModel@@QAEPAUgranny_model@@XZ ; CGrannyModel::GetGrannyModelPointer
PUBLIC	?GetMeshPointer@CGrannyModel@@QBEPBVCGrannyMesh@@H@Z ; CGrannyModel::GetMeshPointer
PUBLIC	?GetPNTD3DVertexBuffer@CGrannyModel@@QBEPAUIDirect3DVertexBuffer8@@XZ ; CGrannyModel::GetPNTD3DVertexBuffer
PUBLIC	?GetD3DIndexBuffer@CGrannyModel@@QBEPAUIDirect3DIndexBuffer8@@XZ ; CGrannyModel::GetD3DIndexBuffer
PUBLIC	?GetMeshNodeList@CGrannyModel@@QBEPBUSMeshNode@1@W4EType@CGrannyMesh@@W43CGrannyMaterial@@@Z ; CGrannyModel::GetMeshNodeList
PUBLIC	?LockVertices@CGrannyModel@@QBE_NPAPAX0@Z	; CGrannyModel::LockVertices
PUBLIC	?UnlockVertices@CGrannyModel@@QBEXXZ		; CGrannyModel::UnlockVertices
PUBLIC	?GetMaterialPalette@CGrannyModel@@QBEABVCGrannyMaterialPalette@@XZ ; CGrannyModel::GetMaterialPalette
PUBLIC	?LoadMeshs@CGrannyModel@@IAE_NXZ		; CGrannyModel::LoadMeshs
PUBLIC	?LoadPNTVertices@CGrannyModel@@IAE_NXZ		; CGrannyModel::LoadPNTVertices
PUBLIC	?LoadIndices@CGrannyModel@@IAE_NXZ		; CGrannyModel::LoadIndices
PUBLIC	?Initialize@CGrannyModel@@IAEXXZ		; CGrannyModel::Initialize
PUBLIC	?CheckMeshIndex@CGrannyModel@@IBEHH@Z		; CGrannyModel::CheckMeshIndex
PUBLIC	?AppendMeshNode@CGrannyModel@@IAEXW4EType@CGrannyMesh@@W42CGrannyMaterial@@H@Z ; CGrannyModel::AppendMeshNode
PUBLIC	?__LoadVertices@CGrannyModel@@IAE_NXZ		; CGrannyModel::__LoadVertices
PUBLIC	??_GCGrannyModel@@UAEPAXI@Z			; CGrannyModel::`scalar deleting destructor'
PUBLIC	??_7CGrannyModel@@6B@				; CGrannyModel::`vftable'
PUBLIC	??_C@_08GCJNLIKG@Position@			; `string'
PUBLIC	??_C@_06EFAGIKOH@Normal@			; `string'
PUBLIC	??_C@_0BE@MAKBLMOM@TextureCoordinates0@		; `string'
PUBLIC	??_C@_0BE@NJLKINKN@TextureCoordinates1@		; `string'
PUBLIC	??_R4CGrannyModel@@6B@				; CGrannyModel::`RTTI Complete Object Locator'
PUBLIC	??_R0?AVCGrannyModel@@@8			; CGrannyModel `RTTI Type Descriptor'
PUBLIC	??_R3CGrannyModel@@8				; CGrannyModel::`RTTI Class Hierarchy Descriptor'
PUBLIC	??_R2CGrannyModel@@8				; CGrannyModel::`RTTI Base Class Array'
PUBLIC	??_R1A@?0A@EA@CGrannyModel@@8			; CGrannyModel::`RTTI Base Class Descriptor at (0,-1,0,64)'
PUBLIC	??_R1A@?0A@EA@CReferenceObject@@8		; CReferenceObject::`RTTI Base Class Descriptor at (0,-1,0,64)'
PUBLIC	??_R0?AVCReferenceObject@@@8			; CReferenceObject `RTTI Type Descriptor'
PUBLIC	??_R3CReferenceObject@@8			; CReferenceObject::`RTTI Class Hierarchy Descriptor'
PUBLIC	??_R2CReferenceObject@@8			; CReferenceObject::`RTTI Base Class Array'
EXTRN	??_L@YGXPAXIIP6EX0@Z1@Z:PROC			; `eh vector constructor iterator'
EXTRN	??_M@YGXPAXIIP6EX0@Z@Z:PROC			; `eh vector destructor iterator'
EXTRN	??3@YAXPAXI@Z:PROC				; operator delete
EXTRN	??_U@YAPAXI@Z:PROC				; operator new[]
EXTRN	??_V@YAXPAX@Z:PROC				; operator delete[]
EXTRN	??_V@YAXPAXI@Z:PROC				; operator delete[]
EXTRN	__imp__GrannyGetTotalTypeSize@4:PROC
EXTRN	__imp__GrannyGetMeshVertexCount@4:PROC
EXTRN	__imp__GrannyMeshIsRigid@4:PROC
EXTRN	__imp__GrannyGetMeshIndexCount@4:PROC
EXTRN	_memset:PROC
EXTRN	_strcmp:PROC
EXTRN	_strlen:PROC
EXTRN	??0CGraphicVertexBuffer@@QAE@XZ:PROC		; CGraphicVertexBuffer::CGraphicVertexBuffer
EXTRN	??1CGraphicVertexBuffer@@UAE@XZ:PROC		; CGraphicVertexBuffer::~CGraphicVertexBuffer
EXTRN	?Destroy@CGraphicVertexBuffer@@QAEXXZ:PROC	; CGraphicVertexBuffer::Destroy
EXTRN	?CreateDeviceObjects@CGraphicVertexBuffer@@QAE_NXZ:PROC ; CGraphicVertexBuffer::CreateDeviceObjects
EXTRN	?DestroyDeviceObjects@CGraphicVertexBuffer@@QAEXXZ:PROC ; CGraphicVertexBuffer::DestroyDeviceObjects
EXTRN	?Lock@CGraphicVertexBuffer@@QBE_NPAPAX@Z:PROC	; CGraphicVertexBuffer::Lock
EXTRN	?Unlock@CGraphicVertexBuffer@@QBE_NXZ:PROC	; CGraphicVertexBuffer::Unlock
EXTRN	?Unlock@CGraphicVertexBuffer@@QAE_NXZ:PROC	; CGraphicVertexBuffer::Unlock
EXTRN	??0CGraphicIndexBuffer@@QAE@XZ:PROC		; CGraphicIndexBuffer::CGraphicIndexBuffer
EXTRN	??1CGraphicIndexBuffer@@UAE@XZ:PROC		; CGraphicIndexBuffer::~CGraphicIndexBuffer
EXTRN	?Destroy@CGraphicIndexBuffer@@QAEXXZ:PROC	; CGraphicIndexBuffer::Destroy
EXTRN	?Create@CGraphicIndexBuffer@@QAE_NHW4_D3DFORMAT@@@Z:PROC ; CGraphicIndexBuffer::Create
EXTRN	?CreateDeviceObjects@CGraphicIndexBuffer@@QAE_NXZ:PROC ; CGraphicIndexBuffer::CreateDeviceObjects
EXTRN	?DestroyDeviceObjects@CGraphicIndexBuffer@@QAEXXZ:PROC ; CGraphicIndexBuffer::DestroyDeviceObjects
EXTRN	?Lock@CGraphicIndexBuffer@@QBE_NPAPAX@Z:PROC	; CGraphicIndexBuffer::Lock
EXTRN	?Unlock@CGraphicIndexBuffer@@QBEXXZ:PROC	; CGraphicIndexBuffer::Unlock
EXTRN	?Lock@CGraphicIndexBuffer@@QAE_NPAPAX@Z:PROC	; CGraphicIndexBuffer::Lock
EXTRN	?Unlock@CGraphicIndexBuffer@@QAEXXZ:PROC	; CGraphicIndexBuffer::Unlock
EXTRN	?GetD3DIndexBuffer@CGraphicIndexBuffer@@QBEPAUIDirect3DIndexBuffer8@@XZ:PROC ; CGraphicIndexBuffer::GetD3DIndexBuffer
EXTRN	??0CReferenceObject@@QAE@XZ:PROC		; CReferenceObject::CReferenceObject
EXTRN	??1CReferenceObject@@UAE@XZ:PROC		; CReferenceObject::~CReferenceObject
EXTRN	?AddReference@CReferenceObject@@QAEXXZ:PROC	; CReferenceObject::AddReference
EXTRN	?OnConstruct@CReferenceObject@@MAEXXZ:PROC	; CReferenceObject::OnConstruct
EXTRN	?OnSelfDestruct@CReferenceObject@@MAEXXZ:PROC	; CReferenceObject::OnSelfDestruct
EXTRN	??0CGrannyMaterialPalette@@QAE@XZ:PROC		; CGrannyMaterialPalette::CGrannyMaterialPalette
EXTRN	??1CGrannyMaterialPalette@@UAE@XZ:PROC		; CGrannyMaterialPalette::~CGrannyMaterialPalette
EXTRN	?Clear@CGrannyMaterialPalette@@QAEXXZ:PROC	; CGrannyMaterialPalette::Clear
EXTRN	??0CGrannyMesh@@QAE@XZ:PROC			; CGrannyMesh::CGrannyMesh
EXTRN	??1CGrannyMesh@@UAE@XZ:PROC			; CGrannyMesh::~CGrannyMesh
EXTRN	?CreateFromGrannyMeshPointer@CGrannyMesh@@QAE_NPAUgranny_skeleton@@PAUgranny_mesh@@HHAAVCGrannyMaterialPalette@@@Z:PROC ; CGrannyMesh::CreateFromGrannyMeshPointer
EXTRN	?LoadIndices@CGrannyMesh@@QAEXPAX@Z:PROC	; CGrannyMesh::LoadIndices
EXTRN	?LoadPNTVertices@CGrannyMesh@@QAEXPAX@Z:PROC	; CGrannyMesh::LoadPNTVertices
EXTRN	?NEW_LoadVertices@CGrannyMesh@@QAEXPAX@Z:PROC	; CGrannyMesh::NEW_LoadVertices
EXTRN	?SetPNT2Mesh@CGrannyMesh@@QAEXXZ:PROC		; CGrannyMesh::SetPNT2Mesh
EXTRN	?DeformPNTVertices@CGrannyMesh@@QBEXPAXPAUD3DXMATRIX@@PAUgranny_mesh_binding@@@Z:PROC ; CGrannyMesh::DeformPNTVertices
EXTRN	?CanDeformPNTVertices@CGrannyMesh@@QBE_NXZ:PROC	; CGrannyMesh::CanDeformPNTVertices
EXTRN	?GetTriGroupNodeList@CGrannyMesh@@QBEPBUSTriGroupNode@1@W4EType@CGrannyMaterial@@@Z:PROC ; CGrannyMesh::GetTriGroupNodeList
EXTRN	?RebuildTriGroupNodeList@CGrannyMesh@@QAEXXZ:PROC ; CGrannyMesh::RebuildTriGroupNodeList
EXTRN	??_ECGrannyModel@@UAEPAXI@Z:PROC		; CGrannyModel::`vector deleting destructor'
EXTRN	@__security_check_cookie@4:PROC
EXTRN	___CxxFrameHandler3:PROC
EXTRN	??_7type_info@@6B@:QWORD			; type_info::`vftable'
EXTRN	___security_cookie:DWORD
;	COMDAT ??_R2CReferenceObject@@8
rdata$r	SEGMENT
??_R2CReferenceObject@@8 DD FLAT:??_R1A@?0A@EA@CReferenceObject@@8 ; CReferenceObject::`RTTI Base Class Array'
rdata$r	ENDS
;	COMDAT ??_R3CReferenceObject@@8
rdata$r	SEGMENT
??_R3CReferenceObject@@8 DD 00H				; CReferenceObject::`RTTI Class Hierarchy Descriptor'
	DD	00H
	DD	01H
	DD	FLAT:??_R2CReferenceObject@@8
rdata$r	ENDS
;	COMDAT ??_R0?AVCReferenceObject@@@8
data$rs	SEGMENT
??_R0?AVCReferenceObject@@@8 DD FLAT:??_7type_info@@6B@	; CReferenceObject `RTTI Type Descriptor'
	DD	00H
	DB	'.?AVCReferenceObject@@', 00H
data$rs	ENDS
;	COMDAT ??_R1A@?0A@EA@CReferenceObject@@8
rdata$r	SEGMENT
??_R1A@?0A@EA@CReferenceObject@@8 DD FLAT:??_R0?AVCReferenceObject@@@8 ; CReferenceObject::`RTTI Base Class Descriptor at (0,-1,0,64)'
	DD	00H
	DD	00H
	DD	0ffffffffH
	DD	00H
	DD	040H
	DD	FLAT:??_R3CReferenceObject@@8
rdata$r	ENDS
;	COMDAT ??_R1A@?0A@EA@CGrannyModel@@8
rdata$r	SEGMENT
??_R1A@?0A@EA@CGrannyModel@@8 DD FLAT:??_R0?AVCGrannyModel@@@8 ; CGrannyModel::`RTTI Base Class Descriptor at (0,-1,0,64)'
	DD	01H
	DD	00H
	DD	0ffffffffH
	DD	00H
	DD	040H
	DD	FLAT:??_R3CGrannyModel@@8
rdata$r	ENDS
;	COMDAT ??_R2CGrannyModel@@8
rdata$r	SEGMENT
??_R2CGrannyModel@@8 DD FLAT:??_R1A@?0A@EA@CGrannyModel@@8 ; CGrannyModel::`RTTI Base Class Array'
	DD	FLAT:??_R1A@?0A@EA@CReferenceObject@@8
rdata$r	ENDS
;	COMDAT ??_R3CGrannyModel@@8
rdata$r	SEGMENT
??_R3CGrannyModel@@8 DD 00H				; CGrannyModel::`RTTI Class Hierarchy Descriptor'
	DD	00H
	DD	02H
	DD	FLAT:??_R2CGrannyModel@@8
rdata$r	ENDS
;	COMDAT ??_R0?AVCGrannyModel@@@8
data$rs	SEGMENT
??_R0?AVCGrannyModel@@@8 DD FLAT:??_7type_info@@6B@	; CGrannyModel `RTTI Type Descriptor'
	DD	00H
	DB	'.?AVCGrannyModel@@', 00H
data$rs	ENDS
;	COMDAT ??_R4CGrannyModel@@6B@
rdata$r	SEGMENT
??_R4CGrannyModel@@6B@ DD 00H				; CGrannyModel::`RTTI Complete Object Locator'
	DD	00H
	DD	00H
	DD	FLAT:??_R0?AVCGrannyModel@@@8
	DD	FLAT:??_R3CGrannyModel@@8
rdata$r	ENDS
;	COMDAT ??_C@_0BE@NJLKINKN@TextureCoordinates1@
CONST	SEGMENT
??_C@_0BE@NJLKINKN@TextureCoordinates1@ DB 'TextureCoordinates1', 00H ; `string'
CONST	ENDS
;	COMDAT ??_C@_0BE@MAKBLMOM@TextureCoordinates0@
CONST	SEGMENT
??_C@_0BE@MAKBLMOM@TextureCoordinates0@ DB 'TextureCoordinates0', 00H ; `string'
CONST	ENDS
;	COMDAT ??_C@_06EFAGIKOH@Normal@
CONST	SEGMENT
??_C@_06EFAGIKOH@Normal@ DB 'Normal', 00H		; `string'
CONST	ENDS
;	COMDAT ??_C@_08GCJNLIKG@Position@
CONST	SEGMENT
??_C@_08GCJNLIKG@Position@ DB 'Position', 00H		; `string'
CONST	ENDS
;	COMDAT ??_7CGrannyModel@@6B@
CONST	SEGMENT
??_7CGrannyModel@@6B@ DD FLAT:??_R4CGrannyModel@@6B@	; CGrannyModel::`vftable'
	DD	FLAT:??_ECGrannyModel@@UAEPAXI@Z
	DD	FLAT:?OnConstruct@CReferenceObject@@MAEXXZ
	DD	FLAT:?OnSelfDestruct@CReferenceObject@@MAEXXZ
CONST	ENDS
;	COMDAT xdata$x
xdata$x	SEGMENT
__unwindtable$?LoadMeshs@CGrannyModel@@IAE_NXZ DD 0ffffffffH
	DD	FLAT:__unwindfunclet$?LoadMeshs@CGrannyModel@@IAE_NXZ$0
__ehfuncinfo$?LoadMeshs@CGrannyModel@@IAE_NXZ DD 019930522H
	DD	01H
	DD	FLAT:__unwindtable$?LoadMeshs@CGrannyModel@@IAE_NXZ
	DD	2 DUP(00H)
	DD	2 DUP(00H)
	DD	00H
	DD	01H
xdata$x	ENDS
;	COMDAT xdata$x
xdata$x	SEGMENT
__ehfuncinfo$??1CGrannyModel@@UAE@XZ DD 019930522H
	DD	00H
	DD	00H
	DD	2 DUP(00H)
	DD	2 DUP(00H)
	DD	00H
	DD	05H
xdata$x	ENDS
;	COMDAT xdata$x
xdata$x	SEGMENT
__unwindtable$??0CGrannyModel@@QAE@XZ DD 0ffffffffH
	DD	FLAT:__unwindfunclet$??0CGrannyModel@@QAE@XZ$0
	DD	00H
	DD	FLAT:__unwindfunclet$??0CGrannyModel@@QAE@XZ$1
	DD	01H
	DD	FLAT:__unwindfunclet$??0CGrannyModel@@QAE@XZ$2
	DD	02H
	DD	FLAT:__unwindfunclet$??0CGrannyModel@@QAE@XZ$3
__ehfuncinfo$??0CGrannyModel@@QAE@XZ DD 019930522H
	DD	04H
	DD	FLAT:__unwindtable$??0CGrannyModel@@QAE@XZ
	DD	2 DUP(00H)
	DD	2 DUP(00H)
	DD	00H
	DD	01H
xdata$x	ENDS
;	COMDAT xdata$x
xdata$x	SEGMENT
__ehfuncinfo$??_ECGrannyMesh@@UAEPAXI@Z DD 019930522H
	DD	00H
	DD	00H
	DD	2 DUP(00H)
	DD	2 DUP(00H)
	DD	00H
	DD	05H
xdata$x	ENDS
; Function compile flags: /Odspy
;	COMDAT ??_GCGrannyModel@@UAEPAXI@Z
_TEXT	SEGMENT
_this$ = -4						; size = 4
___flags$ = 8						; size = 4
??_GCGrannyModel@@UAEPAXI@Z PROC			; CGrannyModel::`scalar deleting destructor', COMDAT
; _this$ = ecx
  00000	55		 push	 ebp
  00001	8b ec		 mov	 ebp, esp
  00003	51		 push	 ecx
  00004	89 4d fc	 mov	 DWORD PTR _this$[ebp], ecx
  00007	8b 4d fc	 mov	 ecx, DWORD PTR _this$[ebp]
  0000a	e8 00 00 00 00	 call	 ??1CGrannyModel@@UAE@XZ	; CGrannyModel::~CGrannyModel
  0000f	8b 45 08	 mov	 eax, DWORD PTR ___flags$[ebp]
  00012	83 e0 01	 and	 eax, 1
  00015	74 0f		 je	 SHORT $LN2@scalar
  00017	68 90 00 00 00	 push	 144			; 00000090H
  0001c	ff 75 fc	 push	 DWORD PTR _this$[ebp]
  0001f	e8 00 00 00 00	 call	 ??3@YAXPAXI@Z		; operator delete
  00024	59		 pop	 ecx
  00025	59		 pop	 ecx
$LN2@scalar:
  00026	8b 45 fc	 mov	 eax, DWORD PTR _this$[ebp]
  00029	c9		 leave
  0002a	c2 04 00	 ret	 4
??_GCGrannyModel@@UAEPAXI@Z ENDP			; CGrannyModel::`scalar deleting destructor'
_TEXT	ENDS
; Function compile flags: /Odspy
; File D:\Metin2 Server Files\mainline\SRC_2014\Metin2Client\eterGrnLib\Model.cpp
;	COMDAT ?__LoadVertices@CGrannyModel@@IAE_NXZ
_TEXT	SEGMENT
_rMesh$1 = -16						; size = 4
_vertices$ = -12					; size = 4
_m$2 = -8						; size = 4
_this$ = -4						; size = 4
?__LoadVertices@CGrannyModel@@IAE_NXZ PROC		; CGrannyModel::__LoadVertices, COMDAT
; _this$ = ecx

; 363  : {

  00000	55		 push	 ebp
  00001	8b ec		 mov	 ebp, esp
  00003	83 ec 10	 sub	 esp, 16			; 00000010H
  00006	89 4d fc	 mov	 DWORD PTR _this$[ebp], ecx

; 364  : 	if (m_rigidVtxCount <= 0)

  00009	8b 45 fc	 mov	 eax, DWORD PTR _this$[ebp]
  0000c	83 78 60 00	 cmp	 DWORD PTR [eax+96], 0
  00010	7f 07		 jg	 SHORT $LN5@LoadVertic

; 365  : 		return true;

  00012	b0 01		 mov	 al, 1
  00014	e9 8d 00 00 00	 jmp	 $LN1@LoadVertic
$LN5@LoadVertic:

; 366  : 	
; 367  : 	assert(m_meshs != NULL);
; 368  : 
; 369  : //	assert((m_dwFvF & (D3DFVF_XYZ|D3DFVF_NORMAL|D3DFVF_TEX1)) == m_dwFvF);
; 370  : 
; 371  : //	if (!m_pntVtxBuf.Create(m_rigidVtxCount, D3DFVF_XYZ|D3DFVF_NORMAL|D3DFVF_TEX1, D3DUSAGE_WRITEONLY, D3DPOOL_MANAGED))
; 372  : 	if (!m_pntVtxBuf.Create(m_rigidVtxCount, m_dwFvF, D3DUSAGE_WRITEONLY, D3DPOOL_MANAGED))

  00019	6a 01		 push	 1
  0001b	6a 08		 push	 8
  0001d	8b 45 fc	 mov	 eax, DWORD PTR _this$[ebp]
  00020	ff b0 8c 00 00
	00		 push	 DWORD PTR [eax+140]
  00026	8b 45 fc	 mov	 eax, DWORD PTR _this$[ebp]
  00029	ff 70 60	 push	 DWORD PTR [eax+96]
  0002c	8b 4d fc	 mov	 ecx, DWORD PTR _this$[ebp]
  0002f	83 c1 14	 add	 ecx, 20			; 00000014H
  00032	8b 45 fc	 mov	 eax, DWORD PTR _this$[ebp]
  00035	8b 40 14	 mov	 eax, DWORD PTR [eax+20]
  00038	ff 50 04	 call	 DWORD PTR [eax+4]
  0003b	0f b6 c0	 movzx	 eax, al
  0003e	85 c0		 test	 eax, eax
  00040	75 04		 jne	 SHORT $LN6@LoadVertic

; 373  : 		return false;

  00042	32 c0		 xor	 al, al
  00044	eb 60		 jmp	 SHORT $LN1@LoadVertic
$LN6@LoadVertic:

; 374  : 	
; 375  : 	void* vertices;
; 376  : 	if (!m_pntVtxBuf.Lock(&vertices))

  00046	8d 45 f4	 lea	 eax, DWORD PTR _vertices$[ebp]
  00049	50		 push	 eax
  0004a	8b 4d fc	 mov	 ecx, DWORD PTR _this$[ebp]
  0004d	83 c1 14	 add	 ecx, 20			; 00000014H
  00050	8b 45 fc	 mov	 eax, DWORD PTR _this$[ebp]
  00053	8b 40 14	 mov	 eax, DWORD PTR [eax+20]
  00056	ff 50 08	 call	 DWORD PTR [eax+8]
  00059	0f b6 c0	 movzx	 eax, al
  0005c	85 c0		 test	 eax, eax
  0005e	75 04		 jne	 SHORT $LN7@LoadVertic

; 377  : 		return false;

  00060	32 c0		 xor	 al, al
  00062	eb 42		 jmp	 SHORT $LN1@LoadVertic
$LN7@LoadVertic:

; 378  : 	
; 379  : 	for (int m = 0; m < m_pgrnModel->MeshBindingCount; ++m)

  00064	83 65 f8 00	 and	 DWORD PTR _m$2[ebp], 0
  00068	eb 07		 jmp	 SHORT $LN4@LoadVertic
$LN2@LoadVertic:
  0006a	8b 45 f8	 mov	 eax, DWORD PTR _m$2[ebp]
  0006d	40		 inc	 eax
  0006e	89 45 f8	 mov	 DWORD PTR _m$2[ebp], eax
$LN4@LoadVertic:
  00071	8b 45 fc	 mov	 eax, DWORD PTR _this$[ebp]
  00074	8b 40 0c	 mov	 eax, DWORD PTR [eax+12]
  00077	8b 4d f8	 mov	 ecx, DWORD PTR _m$2[ebp]
  0007a	3b 48 4c	 cmp	 ecx, DWORD PTR [eax+76]
  0007d	7d 1a		 jge	 SHORT $LN3@LoadVertic

; 380  : 	{
; 381  : 		CGrannyMesh& rMesh = m_meshs[m];

  0007f	6b 45 f8 38	 imul	 eax, DWORD PTR _m$2[ebp], 56
  00083	8b 4d fc	 mov	 ecx, DWORD PTR _this$[ebp]
  00086	03 41 10	 add	 eax, DWORD PTR [ecx+16]
  00089	89 45 f0	 mov	 DWORD PTR _rMesh$1[ebp], eax

; 382  : 		rMesh.NEW_LoadVertices(vertices);

  0008c	ff 75 f4	 push	 DWORD PTR _vertices$[ebp]
  0008f	8b 4d f0	 mov	 ecx, DWORD PTR _rMesh$1[ebp]
  00092	e8 00 00 00 00	 call	 ?NEW_LoadVertices@CGrannyMesh@@QAEXPAX@Z ; CGrannyMesh::NEW_LoadVertices

; 383  : 	}

  00097	eb d1		 jmp	 SHORT $LN2@LoadVertic
$LN3@LoadVertic:

; 384  : 	
; 385  : 	m_pntVtxBuf.Unlock();

  00099	8b 4d fc	 mov	 ecx, DWORD PTR _this$[ebp]
  0009c	83 c1 14	 add	 ecx, 20			; 00000014H
  0009f	e8 00 00 00 00	 call	 ?Unlock@CGraphicVertexBuffer@@QAE_NXZ ; CGraphicVertexBuffer::Unlock

; 386  : 	return true;

  000a4	b0 01		 mov	 al, 1
$LN1@LoadVertic:

; 387  : }

  000a6	c9		 leave
  000a7	c3		 ret	 0
?__LoadVertices@CGrannyModel@@IAE_NXZ ENDP		; CGrannyModel::__LoadVertices
_TEXT	ENDS
; Function compile flags: /Odspy
; File D:\Metin2 Server Files\mainline\SRC_2014\Metin2Client\eterGrnLib\Model.cpp
;	COMDAT ?AppendMeshNode@CGrannyModel@@IAEXW4EType@CGrannyMesh@@W42CGrannyMaterial@@H@Z
_TEXT	SEGMENT
_rMeshNode$ = -8					; size = 4
_this$ = -4						; size = 4
_eMeshType$ = 8						; size = 4
_eMtrlType$ = 12					; size = 4
_iMesh$ = 16						; size = 4
?AppendMeshNode@CGrannyModel@@IAEXW4EType@CGrannyMesh@@W42CGrannyMaterial@@H@Z PROC ; CGrannyModel::AppendMeshNode, COMDAT
; _this$ = ecx

; 275  : {

  00000	55		 push	 ebp
  00001	8b ec		 mov	 ebp, esp
  00003	51		 push	 ecx
  00004	51		 push	 ecx
  00005	89 4d fc	 mov	 DWORD PTR _this$[ebp], ecx

; 276  : 	assert(m_meshNodeSize < m_meshNodeCapacity);
; 277  : 
; 278  : 	TMeshNode& rMeshNode = m_meshNodes[m_meshNodeSize++];

  00008	8b 45 fc	 mov	 eax, DWORD PTR _this$[ebp]
  0000b	6b 40 6c 0c	 imul	 eax, DWORD PTR [eax+108], 12
  0000f	8b 4d fc	 mov	 ecx, DWORD PTR _this$[ebp]
  00012	03 41 48	 add	 eax, DWORD PTR [ecx+72]
  00015	89 45 f8	 mov	 DWORD PTR _rMeshNode$[ebp], eax
  00018	8b 45 fc	 mov	 eax, DWORD PTR _this$[ebp]
  0001b	8b 40 6c	 mov	 eax, DWORD PTR [eax+108]
  0001e	40		 inc	 eax
  0001f	8b 4d fc	 mov	 ecx, DWORD PTR _this$[ebp]
  00022	89 41 6c	 mov	 DWORD PTR [ecx+108], eax

; 279  : 
; 280  : 	rMeshNode.iMesh = iMesh;

  00025	8b 45 f8	 mov	 eax, DWORD PTR _rMeshNode$[ebp]
  00028	8b 4d 10	 mov	 ecx, DWORD PTR _iMesh$[ebp]
  0002b	89 08		 mov	 DWORD PTR [eax], ecx

; 281  : 	rMeshNode.pMesh = m_meshs + iMesh;

  0002d	6b 45 10 38	 imul	 eax, DWORD PTR _iMesh$[ebp], 56
  00031	8b 4d fc	 mov	 ecx, DWORD PTR _this$[ebp]
  00034	03 41 10	 add	 eax, DWORD PTR [ecx+16]
  00037	8b 4d f8	 mov	 ecx, DWORD PTR _rMeshNode$[ebp]
  0003a	89 41 04	 mov	 DWORD PTR [ecx+4], eax

; 282  : 	rMeshNode.pNextMeshNode = m_meshNodeLists[eMeshType][eMtrlType];

  0003d	8b 45 08	 mov	 eax, DWORD PTR _eMeshType$[ebp]
  00040	8b 4d fc	 mov	 ecx, DWORD PTR _this$[ebp]
  00043	8d 44 c1 4c	 lea	 eax, DWORD PTR [ecx+eax*8+76]
  00047	8b 4d f8	 mov	 ecx, DWORD PTR _rMeshNode$[ebp]
  0004a	8b 55 0c	 mov	 edx, DWORD PTR _eMtrlType$[ebp]
  0004d	8b 04 90	 mov	 eax, DWORD PTR [eax+edx*4]
  00050	89 41 08	 mov	 DWORD PTR [ecx+8], eax

; 283  : 	m_meshNodeLists[eMeshType][eMtrlType] = &rMeshNode;

  00053	8b 45 08	 mov	 eax, DWORD PTR _eMeshType$[ebp]
  00056	8b 4d fc	 mov	 ecx, DWORD PTR _this$[ebp]
  00059	8d 44 c1 4c	 lea	 eax, DWORD PTR [ecx+eax*8+76]
  0005d	8b 4d 0c	 mov	 ecx, DWORD PTR _eMtrlType$[ebp]
  00060	8b 55 f8	 mov	 edx, DWORD PTR _rMeshNode$[ebp]
  00063	89 14 88	 mov	 DWORD PTR [eax+ecx*4], edx

; 284  : }

  00066	c9		 leave
  00067	c2 0c 00	 ret	 12			; 0000000cH
?AppendMeshNode@CGrannyModel@@IAEXW4EType@CGrannyMesh@@W42CGrannyMaterial@@H@Z ENDP ; CGrannyModel::AppendMeshNode
_TEXT	ENDS
; Function compile flags: /Odspy
; File D:\Metin2 Server Files\mainline\SRC_2014\Metin2Client\eterGrnLib\Model.cpp
;	COMDAT ?CheckMeshIndex@CGrannyModel@@IBEHH@Z
_TEXT	SEGMENT
_this$ = -4						; size = 4
_iIndex$ = 8						; size = 4
?CheckMeshIndex@CGrannyModel@@IBEHH@Z PROC		; CGrannyModel::CheckMeshIndex, COMDAT
; _this$ = ecx

; 265  : {

  00000	55		 push	 ebp
  00001	8b ec		 mov	 ebp, esp
  00003	51		 push	 ecx
  00004	89 4d fc	 mov	 DWORD PTR _this$[ebp], ecx

; 266  : 	if (iIndex < 0)

  00007	83 7d 08 00	 cmp	 DWORD PTR _iIndex$[ebp], 0
  0000b	7d 04		 jge	 SHORT $LN2@CheckMeshI

; 267  : 		return FALSE;

  0000d	33 c0		 xor	 eax, eax
  0000f	eb 12		 jmp	 SHORT $LN1@CheckMeshI
$LN2@CheckMeshI:

; 268  : 	if (iIndex >= m_meshNodeSize)

  00011	8b 45 fc	 mov	 eax, DWORD PTR _this$[ebp]
  00014	8b 4d 08	 mov	 ecx, DWORD PTR _iIndex$[ebp]
  00017	3b 48 6c	 cmp	 ecx, DWORD PTR [eax+108]
  0001a	7c 04		 jl	 SHORT $LN3@CheckMeshI

; 269  : 		return FALSE;

  0001c	33 c0		 xor	 eax, eax
  0001e	eb 03		 jmp	 SHORT $LN1@CheckMeshI
$LN3@CheckMeshI:

; 270  : 
; 271  : 	return TRUE;

  00020	33 c0		 xor	 eax, eax
  00022	40		 inc	 eax
$LN1@CheckMeshI:

; 272  : }

  00023	c9		 leave
  00024	c2 04 00	 ret	 4
?CheckMeshIndex@CGrannyModel@@IBEHH@Z ENDP		; CGrannyModel::CheckMeshIndex
_TEXT	ENDS
; Function compile flags: /Odspy
; File D:\Metin2 Server Files\mainline\SRC_2014\Metin2Client\eterGrnLib\Model.cpp
;	COMDAT ?Initialize@CGrannyModel@@IAEXXZ
_TEXT	SEGMENT
_this$ = -4						; size = 4
?Initialize@CGrannyModel@@IAEXXZ PROC			; CGrannyModel::Initialize, COMDAT
; _this$ = ecx

; 390  : {

  00000	55		 push	 ebp
  00001	8b ec		 mov	 ebp, esp
  00003	51		 push	 ecx
  00004	89 4d fc	 mov	 DWORD PTR _this$[ebp], ecx

; 391  : 	memset(m_meshNodeLists, 0, sizeof(m_meshNodeLists));

  00007	6a 10		 push	 16			; 00000010H
  00009	6a 00		 push	 0
  0000b	8b 45 fc	 mov	 eax, DWORD PTR _this$[ebp]
  0000e	83 c0 4c	 add	 eax, 76			; 0000004cH
  00011	50		 push	 eax
  00012	e8 00 00 00 00	 call	 _memset
  00017	83 c4 0c	 add	 esp, 12			; 0000000cH

; 392  : 	
; 393  : 	m_pgrnModel = NULL;

  0001a	8b 45 fc	 mov	 eax, DWORD PTR _this$[ebp]
  0001d	83 60 0c 00	 and	 DWORD PTR [eax+12], 0

; 394  : 	m_meshs = NULL;

  00021	8b 45 fc	 mov	 eax, DWORD PTR _this$[ebp]
  00024	83 60 10 00	 and	 DWORD PTR [eax+16], 0

; 395  : 	m_meshNodes = NULL;

  00028	8b 45 fc	 mov	 eax, DWORD PTR _this$[ebp]
  0002b	83 60 48 00	 and	 DWORD PTR [eax+72], 0

; 396  : 
; 397  : 	m_meshNodeSize = 0;

  0002f	8b 45 fc	 mov	 eax, DWORD PTR _this$[ebp]
  00032	83 60 6c 00	 and	 DWORD PTR [eax+108], 0

; 398  : 	m_meshNodeCapacity = 0;

  00036	8b 45 fc	 mov	 eax, DWORD PTR _this$[ebp]
  00039	83 60 70 00	 and	 DWORD PTR [eax+112], 0

; 399  : 
; 400  : 	m_rigidVtxCount = 0;

  0003d	8b 45 fc	 mov	 eax, DWORD PTR _this$[ebp]
  00040	83 60 60 00	 and	 DWORD PTR [eax+96], 0

; 401  : 	m_deformVtxCount = 0;

  00044	8b 45 fc	 mov	 eax, DWORD PTR _this$[ebp]
  00047	83 60 5c 00	 and	 DWORD PTR [eax+92], 0

; 402  : 	m_vtxCount = 0;

  0004b	8b 45 fc	 mov	 eax, DWORD PTR _this$[ebp]
  0004e	83 60 64 00	 and	 DWORD PTR [eax+100], 0

; 403  : 	m_idxCount = 0;

  00052	8b 45 fc	 mov	 eax, DWORD PTR _this$[ebp]
  00055	83 60 68 00	 and	 DWORD PTR [eax+104], 0

; 404  : 
; 405  : 	m_canDeformPNVertices = false;

  00059	8b 45 fc	 mov	 eax, DWORD PTR _this$[ebp]
  0005c	c6 40 74 00	 mov	 BYTE PTR [eax+116], 0

; 406  : 
; 407  : 	m_dwFvF = 0;

  00060	8b 45 fc	 mov	 eax, DWORD PTR _this$[ebp]
  00063	83 a0 8c 00 00
	00 00		 and	 DWORD PTR [eax+140], 0

; 408  : 	m_bHaveBlendThing = false;

  0006a	8b 45 fc	 mov	 eax, DWORD PTR _this$[ebp]
  0006d	c6 80 88 00 00
	00 00		 mov	 BYTE PTR [eax+136], 0

; 409  : }

  00074	c9		 leave
  00075	c3		 ret	 0
?Initialize@CGrannyModel@@IAEXXZ ENDP			; CGrannyModel::Initialize
_TEXT	ENDS
; Function compile flags: /Odspy
; File D:\Metin2 Server Files\mainline\SRC_2014\Metin2Client\eterGrnLib\Model.cpp
;	COMDAT ?LoadIndices@CGrannyModel@@IAE_NXZ
_TEXT	SEGMENT
_rMesh$1 = -16						; size = 4
_indices$ = -12						; size = 4
_m$2 = -8						; size = 4
_this$ = -4						; size = 4
?LoadIndices@CGrannyModel@@IAE_NXZ PROC			; CGrannyModel::LoadIndices, COMDAT
; _this$ = ecx

; 130  : {

  00000	55		 push	 ebp
  00001	8b ec		 mov	 ebp, esp
  00003	83 ec 10	 sub	 esp, 16			; 00000010H
  00006	89 4d fc	 mov	 DWORD PTR _this$[ebp], ecx

; 131  : 	//assert(m_idxCount > 0);
; 132  : 	if (m_idxCount <= 0)

  00009	8b 45 fc	 mov	 eax, DWORD PTR _this$[ebp]
  0000c	83 78 68 00	 cmp	 DWORD PTR [eax+104], 0
  00010	7f 04		 jg	 SHORT $LN5@LoadIndice

; 133  : 		return true;

  00012	b0 01		 mov	 al, 1
  00014	eb 7a		 jmp	 SHORT $LN1@LoadIndice
$LN5@LoadIndice:

; 134  : 
; 135  : 	if (!m_idxBuf.Create(m_idxCount, D3DFMT_INDEX16))

  00016	6a 65		 push	 101			; 00000065H
  00018	8b 45 fc	 mov	 eax, DWORD PTR _this$[ebp]
  0001b	ff 70 68	 push	 DWORD PTR [eax+104]
  0001e	8b 4d fc	 mov	 ecx, DWORD PTR _this$[ebp]
  00021	83 c1 34	 add	 ecx, 52			; 00000034H
  00024	e8 00 00 00 00	 call	 ?Create@CGraphicIndexBuffer@@QAE_NHW4_D3DFORMAT@@@Z ; CGraphicIndexBuffer::Create
  00029	0f b6 c0	 movzx	 eax, al
  0002c	85 c0		 test	 eax, eax
  0002e	75 04		 jne	 SHORT $LN6@LoadIndice

; 136  : 		return false;

  00030	32 c0		 xor	 al, al
  00032	eb 5c		 jmp	 SHORT $LN1@LoadIndice
$LN6@LoadIndice:

; 137  : 
; 138  : 	void * indices;
; 139  : 
; 140  : 	if (!m_idxBuf.Lock((void**)&indices))

  00034	8d 45 f4	 lea	 eax, DWORD PTR _indices$[ebp]
  00037	50		 push	 eax
  00038	8b 4d fc	 mov	 ecx, DWORD PTR _this$[ebp]
  0003b	83 c1 34	 add	 ecx, 52			; 00000034H
  0003e	e8 00 00 00 00	 call	 ?Lock@CGraphicIndexBuffer@@QAE_NPAPAX@Z ; CGraphicIndexBuffer::Lock
  00043	0f b6 c0	 movzx	 eax, al
  00046	85 c0		 test	 eax, eax
  00048	75 04		 jne	 SHORT $LN7@LoadIndice

; 141  : 		return false;

  0004a	32 c0		 xor	 al, al
  0004c	eb 42		 jmp	 SHORT $LN1@LoadIndice
$LN7@LoadIndice:

; 142  : 
; 143  : 	for (int m = 0; m < m_pgrnModel->MeshBindingCount; ++m)

  0004e	83 65 f8 00	 and	 DWORD PTR _m$2[ebp], 0
  00052	eb 07		 jmp	 SHORT $LN4@LoadIndice
$LN2@LoadIndice:
  00054	8b 45 f8	 mov	 eax, DWORD PTR _m$2[ebp]
  00057	40		 inc	 eax
  00058	89 45 f8	 mov	 DWORD PTR _m$2[ebp], eax
$LN4@LoadIndice:
  0005b	8b 45 fc	 mov	 eax, DWORD PTR _this$[ebp]
  0005e	8b 40 0c	 mov	 eax, DWORD PTR [eax+12]
  00061	8b 4d f8	 mov	 ecx, DWORD PTR _m$2[ebp]
  00064	3b 48 4c	 cmp	 ecx, DWORD PTR [eax+76]
  00067	7d 1a		 jge	 SHORT $LN3@LoadIndice

; 144  : 	{
; 145  : 		CGrannyMesh& rMesh = m_meshs[m];

  00069	6b 45 f8 38	 imul	 eax, DWORD PTR _m$2[ebp], 56
  0006d	8b 4d fc	 mov	 ecx, DWORD PTR _this$[ebp]
  00070	03 41 10	 add	 eax, DWORD PTR [ecx+16]
  00073	89 45 f0	 mov	 DWORD PTR _rMesh$1[ebp], eax

; 146  : 		rMesh.LoadIndices(indices);

  00076	ff 75 f4	 push	 DWORD PTR _indices$[ebp]
  00079	8b 4d f0	 mov	 ecx, DWORD PTR _rMesh$1[ebp]
  0007c	e8 00 00 00 00	 call	 ?LoadIndices@CGrannyMesh@@QAEXPAX@Z ; CGrannyMesh::LoadIndices

; 147  : 	}

  00081	eb d1		 jmp	 SHORT $LN2@LoadIndice
$LN3@LoadIndice:

; 148  : 
; 149  : 	m_idxBuf.Unlock();	

  00083	8b 4d fc	 mov	 ecx, DWORD PTR _this$[ebp]
  00086	83 c1 34	 add	 ecx, 52			; 00000034H
  00089	e8 00 00 00 00	 call	 ?Unlock@CGraphicIndexBuffer@@QAEXXZ ; CGraphicIndexBuffer::Unlock

; 150  : 	return true;

  0008e	b0 01		 mov	 al, 1
$LN1@LoadIndice:

; 151  : }

  00090	c9		 leave
  00091	c3		 ret	 0
?LoadIndices@CGrannyModel@@IAE_NXZ ENDP			; CGrannyModel::LoadIndices
_TEXT	ENDS
; Function compile flags: /Odspy
; File D:\Metin2 Server Files\mainline\SRC_2014\Metin2Client\eterGrnLib\Model.cpp
;	COMDAT ?LoadPNTVertices@CGrannyModel@@IAE_NXZ
_TEXT	SEGMENT
_rMesh$1 = -16						; size = 4
_vertices$ = -12					; size = 4
_m$2 = -8						; size = 4
_this$ = -4						; size = 4
?LoadPNTVertices@CGrannyModel@@IAE_NXZ PROC		; CGrannyModel::LoadPNTVertices, COMDAT
; _this$ = ecx

; 106  : {

  00000	55		 push	 ebp
  00001	8b ec		 mov	 ebp, esp
  00003	83 ec 10	 sub	 esp, 16			; 00000010H
  00006	89 4d fc	 mov	 DWORD PTR _this$[ebp], ecx

; 107  : 	if (m_rigidVtxCount <= 0)

  00009	8b 45 fc	 mov	 eax, DWORD PTR _this$[ebp]
  0000c	83 78 60 00	 cmp	 DWORD PTR [eax+96], 0
  00010	7f 07		 jg	 SHORT $LN5@LoadPNTVer

; 108  : 		return true;

  00012	b0 01		 mov	 al, 1
  00014	e9 8d 00 00 00	 jmp	 $LN1@LoadPNTVer
$LN5@LoadPNTVer:

; 109  : 
; 110  : 	assert(m_meshs != NULL);
; 111  : 
; 112  : 	if (!m_pntVtxBuf.Create(m_rigidVtxCount, m_dwFvF, D3DUSAGE_WRITEONLY, D3DPOOL_MANAGED))

  00019	6a 01		 push	 1
  0001b	6a 08		 push	 8
  0001d	8b 45 fc	 mov	 eax, DWORD PTR _this$[ebp]
  00020	ff b0 8c 00 00
	00		 push	 DWORD PTR [eax+140]
  00026	8b 45 fc	 mov	 eax, DWORD PTR _this$[ebp]
  00029	ff 70 60	 push	 DWORD PTR [eax+96]
  0002c	8b 4d fc	 mov	 ecx, DWORD PTR _this$[ebp]
  0002f	83 c1 14	 add	 ecx, 20			; 00000014H
  00032	8b 45 fc	 mov	 eax, DWORD PTR _this$[ebp]
  00035	8b 40 14	 mov	 eax, DWORD PTR [eax+20]
  00038	ff 50 04	 call	 DWORD PTR [eax+4]
  0003b	0f b6 c0	 movzx	 eax, al
  0003e	85 c0		 test	 eax, eax
  00040	75 04		 jne	 SHORT $LN6@LoadPNTVer

; 113  : 		return false;

  00042	32 c0		 xor	 al, al
  00044	eb 60		 jmp	 SHORT $LN1@LoadPNTVer
$LN6@LoadPNTVer:

; 114  : 
; 115  : 	void* vertices;
; 116  : 	if (!m_pntVtxBuf.Lock(&vertices))

  00046	8d 45 f4	 lea	 eax, DWORD PTR _vertices$[ebp]
  00049	50		 push	 eax
  0004a	8b 4d fc	 mov	 ecx, DWORD PTR _this$[ebp]
  0004d	83 c1 14	 add	 ecx, 20			; 00000014H
  00050	8b 45 fc	 mov	 eax, DWORD PTR _this$[ebp]
  00053	8b 40 14	 mov	 eax, DWORD PTR [eax+20]
  00056	ff 50 08	 call	 DWORD PTR [eax+8]
  00059	0f b6 c0	 movzx	 eax, al
  0005c	85 c0		 test	 eax, eax
  0005e	75 04		 jne	 SHORT $LN7@LoadPNTVer

; 117  : 		return false;

  00060	32 c0		 xor	 al, al
  00062	eb 42		 jmp	 SHORT $LN1@LoadPNTVer
$LN7@LoadPNTVer:

; 118  : 
; 119  : 	for (int m = 0; m < m_pgrnModel->MeshBindingCount; ++m)

  00064	83 65 f8 00	 and	 DWORD PTR _m$2[ebp], 0
  00068	eb 07		 jmp	 SHORT $LN4@LoadPNTVer
$LN2@LoadPNTVer:
  0006a	8b 45 f8	 mov	 eax, DWORD PTR _m$2[ebp]
  0006d	40		 inc	 eax
  0006e	89 45 f8	 mov	 DWORD PTR _m$2[ebp], eax
$LN4@LoadPNTVer:
  00071	8b 45 fc	 mov	 eax, DWORD PTR _this$[ebp]
  00074	8b 40 0c	 mov	 eax, DWORD PTR [eax+12]
  00077	8b 4d f8	 mov	 ecx, DWORD PTR _m$2[ebp]
  0007a	3b 48 4c	 cmp	 ecx, DWORD PTR [eax+76]
  0007d	7d 1a		 jge	 SHORT $LN3@LoadPNTVer

; 120  : 	{
; 121  : 		CGrannyMesh& rMesh = m_meshs[m];

  0007f	6b 45 f8 38	 imul	 eax, DWORD PTR _m$2[ebp], 56
  00083	8b 4d fc	 mov	 ecx, DWORD PTR _this$[ebp]
  00086	03 41 10	 add	 eax, DWORD PTR [ecx+16]
  00089	89 45 f0	 mov	 DWORD PTR _rMesh$1[ebp], eax

; 122  : 		rMesh.LoadPNTVertices(vertices);

  0008c	ff 75 f4	 push	 DWORD PTR _vertices$[ebp]
  0008f	8b 4d f0	 mov	 ecx, DWORD PTR _rMesh$1[ebp]
  00092	e8 00 00 00 00	 call	 ?LoadPNTVertices@CGrannyMesh@@QAEXPAX@Z ; CGrannyMesh::LoadPNTVertices

; 123  : 	}

  00097	eb d1		 jmp	 SHORT $LN2@LoadPNTVer
$LN3@LoadPNTVer:

; 124  : 
; 125  : 	m_pntVtxBuf.Unlock();

  00099	8b 4d fc	 mov	 ecx, DWORD PTR _this$[ebp]
  0009c	83 c1 14	 add	 ecx, 20			; 00000014H
  0009f	e8 00 00 00 00	 call	 ?Unlock@CGraphicVertexBuffer@@QAE_NXZ ; CGraphicVertexBuffer::Unlock

; 126  : 	return true;

  000a4	b0 01		 mov	 al, 1
$LN1@LoadPNTVer:

; 127  : }

  000a6	c9		 leave
  000a7	c3		 ret	 0
?LoadPNTVertices@CGrannyModel@@IAE_NXZ ENDP		; CGrannyModel::LoadPNTVertices
_TEXT	ENDS
; Function compile flags: /Odspy
; File D:\Metin2 Server Files\mainline\SRC_2014\Metin2Client\eterGrnLib\Model.cpp
; File D:\Metin2 Server Files\mainline\SRC_2014\Metin2Client\eterGrnLib\Mesh.h
; File D:\Metin2 Server Files\mainline\SRC_2014\Metin2Client\eterGrnLib\Model.cpp
;	COMDAT ?LoadMeshs@CGrannyModel@@IAE_NXZ
_TEXT	SEGMENT
_rMesh$2 = -124						; size = 4
_pgrnMesh$3 = -120					; size = 4
$T4 = -116						; size = 4
_blendPNT2MeshNodeCount$ = -112				; size = 4
_grni32xTypeCount$5 = -108				; size = 4
$T6 = -104						; size = 4
_eMeshType$7 = -100					; size = 4
_rMesh$8 = -96						; size = 4
tv312 = -92						; size = 4
_pgrnSkeleton$ = -88					; size = 4
tv140 = -84						; size = 4
_vtxPos$ = -80						; size = 4
_blendPNTMeshNodeCount$ = -76				; size = 4
_diffusePNTMeshNodeCount$ = -72				; size = 4
$T9 = -68						; size = 4
_vtxDeformPos$ = -64					; size = 4
_vtxRigidPos$ = -60					; size = 4
_n$10 = -56						; size = 4
_meshCount$ = -52					; size = 4
$T11 = -48						; size = 4
_idxPos$ = -44						; size = 4
_m$12 = -40						; size = 4
_rMesh$13 = -36						; size = 4
_n$14 = -32						; size = 4
_i$15 = -28						; size = 4
_pgrnMesh$16 = -24					; size = 4
_this$ = -20						; size = 4
$T17 = -13						; size = 1
__$EHRec$ = -12						; size = 12
?LoadMeshs@CGrannyModel@@IAE_NXZ PROC			; CGrannyModel::LoadMeshs, COMDAT
; _this$ = ecx

; 154  : {

  00000	55		 push	 ebp
  00001	8b ec		 mov	 ebp, esp
  00003	6a ff		 push	 -1
  00005	68 00 00 00 00	 push	 __ehhandler$?LoadMeshs@CGrannyModel@@IAE_NXZ
  0000a	64 a1 00 00 00
	00		 mov	 eax, DWORD PTR fs:0
  00010	50		 push	 eax
  00011	83 ec 70	 sub	 esp, 112		; 00000070H
  00014	53		 push	 ebx
  00015	a1 00 00 00 00	 mov	 eax, DWORD PTR ___security_cookie
  0001a	33 c5		 xor	 eax, ebp
  0001c	50		 push	 eax
  0001d	8d 45 f4	 lea	 eax, DWORD PTR __$EHRec$[ebp]
  00020	64 a3 00 00 00
	00		 mov	 DWORD PTR fs:0, eax
  00026	89 4d ec	 mov	 DWORD PTR _this$[ebp], ecx

; 155  : 	assert(m_meshs == NULL);
; 156  : 	assert(m_pgrnModel != NULL);
; 157  : 
; 158  : 	if (m_pgrnModel->MeshBindingCount <= 0)	// 메쉬가 없는 모델

  00029	8b 45 ec	 mov	 eax, DWORD PTR _this$[ebp]
  0002c	8b 40 0c	 mov	 eax, DWORD PTR [eax+12]
  0002f	83 78 4c 00	 cmp	 DWORD PTR [eax+76], 0
  00033	7f 07		 jg	 SHORT $LN13@LoadMeshs

; 159  : 		return true;

  00035	b0 01		 mov	 al, 1
  00037	e9 88 04 00 00	 jmp	 $LN1@LoadMeshs
$LN13@LoadMeshs:

; 160  : 
; 161  : 	granny_skeleton * pgrnSkeleton = m_pgrnModel->Skeleton;

  0003c	8b 45 ec	 mov	 eax, DWORD PTR _this$[ebp]
  0003f	8b 40 0c	 mov	 eax, DWORD PTR [eax+12]
  00042	8b 40 04	 mov	 eax, DWORD PTR [eax+4]
  00045	89 45 a8	 mov	 DWORD PTR _pgrnSkeleton$[ebp], eax

; 162  : 
; 163  : 	int vtxRigidPos = 0;

  00048	83 65 c4 00	 and	 DWORD PTR _vtxRigidPos$[ebp], 0

; 164  : 	int vtxDeformPos = 0;

  0004c	83 65 c0 00	 and	 DWORD PTR _vtxDeformPos$[ebp], 0

; 165  : 	int vtxPos = 0;

  00050	83 65 b0 00	 and	 DWORD PTR _vtxPos$[ebp], 0

; 166  : 	int idxPos = 0;

  00054	83 65 d4 00	 and	 DWORD PTR _idxPos$[ebp], 0

; 167  : 
; 168  : 	int diffusePNTMeshNodeCount = 0;

  00058	83 65 b8 00	 and	 DWORD PTR _diffusePNTMeshNodeCount$[ebp], 0

; 169  : 	int blendPNTMeshNodeCount = 0;

  0005c	83 65 b4 00	 and	 DWORD PTR _blendPNTMeshNodeCount$[ebp], 0

; 170  : 	int blendPNT2MeshNodeCount = 0;

  00060	83 65 90 00	 and	 DWORD PTR _blendPNT2MeshNodeCount$[ebp], 0

; 171  : 
; 172  : 	int meshCount = GetMeshCount();

  00064	8b 4d ec	 mov	 ecx, DWORD PTR _this$[ebp]
  00067	e8 00 00 00 00	 call	 ?GetMeshCount@CGrannyModel@@QBEHXZ ; CGrannyModel::GetMeshCount
  0006c	89 45 cc	 mov	 DWORD PTR _meshCount$[ebp], eax

; 173  : 	m_meshs = new CGrannyMesh[meshCount];

  0006f	8b 45 cc	 mov	 eax, DWORD PTR _meshCount$[ebp]
  00072	89 45 bc	 mov	 DWORD PTR $T9[ebp], eax
  00075	33 c9		 xor	 ecx, ecx
  00077	8b 45 bc	 mov	 eax, DWORD PTR $T9[ebp]
  0007a	6a 38		 push	 56			; 00000038H
  0007c	5a		 pop	 edx
  0007d	f7 e2		 mul	 edx
  0007f	0f 90 c1	 seto	 cl
  00082	f7 d9		 neg	 ecx
  00084	0b c8		 or	 ecx, eax
  00086	33 c0		 xor	 eax, eax
  00088	83 c1 04	 add	 ecx, 4
  0008b	0f 92 c0	 setb	 al
  0008e	f7 d8		 neg	 eax
  00090	0b c1		 or	 eax, ecx
  00092	50		 push	 eax
  00093	e8 00 00 00 00	 call	 ??_U@YAPAXI@Z		; operator new[]
  00098	59		 pop	 ecx
  00099	89 45 d0	 mov	 DWORD PTR $T11[ebp], eax
  0009c	83 65 fc 00	 and	 DWORD PTR __$EHRec$[ebp+8], 0
  000a0	83 7d d0 00	 cmp	 DWORD PTR $T11[ebp], 0
  000a4	74 2e		 je	 SHORT $LN33@LoadMeshs
  000a6	8b 45 d0	 mov	 eax, DWORD PTR $T11[ebp]
  000a9	8b 4d bc	 mov	 ecx, DWORD PTR $T9[ebp]
  000ac	89 08		 mov	 DWORD PTR [eax], ecx
  000ae	68 00 00 00 00	 push	 OFFSET ??1CGrannyMesh@@UAE@XZ ; CGrannyMesh::~CGrannyMesh
  000b3	68 00 00 00 00	 push	 OFFSET ??0CGrannyMesh@@QAE@XZ ; CGrannyMesh::CGrannyMesh
  000b8	ff 75 bc	 push	 DWORD PTR $T9[ebp]
  000bb	6a 38		 push	 56			; 00000038H
  000bd	8b 45 d0	 mov	 eax, DWORD PTR $T11[ebp]
  000c0	83 c0 04	 add	 eax, 4
  000c3	50		 push	 eax
  000c4	e8 00 00 00 00	 call	 ??_L@YGXPAXIIP6EX0@Z1@Z
  000c9	8b 45 d0	 mov	 eax, DWORD PTR $T11[ebp]
  000cc	83 c0 04	 add	 eax, 4
  000cf	89 45 ac	 mov	 DWORD PTR tv140[ebp], eax
  000d2	eb 04		 jmp	 SHORT $LN34@LoadMeshs
$LN33@LoadMeshs:
  000d4	83 65 ac 00	 and	 DWORD PTR tv140[ebp], 0
$LN34@LoadMeshs:
  000d8	8b 45 ac	 mov	 eax, DWORD PTR tv140[ebp]
  000db	89 45 98	 mov	 DWORD PTR $T6[ebp], eax
  000de	83 4d fc ff	 or	 DWORD PTR __$EHRec$[ebp+8], -1
  000e2	8b 45 ec	 mov	 eax, DWORD PTR _this$[ebp]
  000e5	8b 4d 98	 mov	 ecx, DWORD PTR $T6[ebp]
  000e8	89 48 10	 mov	 DWORD PTR [eax+16], ecx

; 174  : 
; 175  : 	m_dwFvF = 0;

  000eb	8b 45 ec	 mov	 eax, DWORD PTR _this$[ebp]
  000ee	83 a0 8c 00 00
	00 00		 and	 DWORD PTR [eax+140], 0

; 176  : 
; 177  : 	for (int m = 0; m < meshCount; ++m)

  000f5	83 65 d8 00	 and	 DWORD PTR _m$12[ebp], 0
  000f9	eb 07		 jmp	 SHORT $LN4@LoadMeshs
$LN2@LoadMeshs:
  000fb	8b 45 d8	 mov	 eax, DWORD PTR _m$12[ebp]
  000fe	40		 inc	 eax
  000ff	89 45 d8	 mov	 DWORD PTR _m$12[ebp], eax
$LN4@LoadMeshs:
  00102	8b 45 d8	 mov	 eax, DWORD PTR _m$12[ebp]
  00105	3b 45 cc	 cmp	 eax, DWORD PTR _meshCount$[ebp]
  00108	0f 8d 83 02 00
	00		 jge	 $LN3@LoadMeshs

; 178  : 	{
; 179  : 		CGrannyMesh& rMesh = m_meshs[m];

  0010e	6b 45 d8 38	 imul	 eax, DWORD PTR _m$12[ebp], 56
  00112	8b 4d ec	 mov	 ecx, DWORD PTR _this$[ebp]
  00115	03 41 10	 add	 eax, DWORD PTR [ecx+16]
  00118	89 45 dc	 mov	 DWORD PTR _rMesh$13[ebp], eax

; 180  : 		granny_mesh* pgrnMesh = m_pgrnModel->MeshBindings[m].Mesh;

  0011b	8b 45 ec	 mov	 eax, DWORD PTR _this$[ebp]
  0011e	8b 40 0c	 mov	 eax, DWORD PTR [eax+12]
  00121	8b 40 50	 mov	 eax, DWORD PTR [eax+80]
  00124	8b 4d d8	 mov	 ecx, DWORD PTR _m$12[ebp]
  00127	8b 04 88	 mov	 eax, DWORD PTR [eax+ecx*4]
  0012a	89 45 e8	 mov	 DWORD PTR _pgrnMesh$16[ebp], eax

; 181  : 
; 182  : 		if (GrannyMeshIsRigid(pgrnMesh))

  0012d	ff 75 e8	 push	 DWORD PTR _pgrnMesh$16[ebp]
  00130	ff 15 00 00 00
	00		 call	 DWORD PTR __imp__GrannyMeshIsRigid@4
  00136	0f b6 c0	 movzx	 eax, al
  00139	85 c0		 test	 eax, eax
  0013b	74 3a		 je	 SHORT $LN14@LoadMeshs

; 183  : 		{
; 184  : 			if (!rMesh.CreateFromGrannyMeshPointer(pgrnSkeleton, pgrnMesh, vtxRigidPos, idxPos, m_kMtrlPal))

  0013d	8b 45 ec	 mov	 eax, DWORD PTR _this$[ebp]
  00140	83 c0 78	 add	 eax, 120		; 00000078H
  00143	50		 push	 eax
  00144	ff 75 d4	 push	 DWORD PTR _idxPos$[ebp]
  00147	ff 75 c4	 push	 DWORD PTR _vtxRigidPos$[ebp]
  0014a	ff 75 e8	 push	 DWORD PTR _pgrnMesh$16[ebp]
  0014d	ff 75 a8	 push	 DWORD PTR _pgrnSkeleton$[ebp]
  00150	8b 4d dc	 mov	 ecx, DWORD PTR _rMesh$13[ebp]
  00153	e8 00 00 00 00	 call	 ?CreateFromGrannyMeshPointer@CGrannyMesh@@QAE_NPAUgranny_skeleton@@PAUgranny_mesh@@HHAAVCGrannyMaterialPalette@@@Z ; CGrannyMesh::CreateFromGrannyMeshPointer
  00158	0f b6 c0	 movzx	 eax, al
  0015b	85 c0		 test	 eax, eax
  0015d	75 07		 jne	 SHORT $LN16@LoadMeshs

; 185  : 				return false;

  0015f	32 c0		 xor	 al, al
  00161	e9 5e 03 00 00	 jmp	 $LN1@LoadMeshs
$LN16@LoadMeshs:

; 186  : 
; 187  : 			vtxRigidPos += GrannyGetMeshVertexCount(pgrnMesh);	

  00166	ff 75 e8	 push	 DWORD PTR _pgrnMesh$16[ebp]
  00169	ff 15 00 00 00
	00		 call	 DWORD PTR __imp__GrannyGetMeshVertexCount@4
  0016f	03 45 c4	 add	 eax, DWORD PTR _vtxRigidPos$[ebp]
  00172	89 45 c4	 mov	 DWORD PTR _vtxRigidPos$[ebp], eax

; 188  : 		}

  00175	eb 52		 jmp	 SHORT $LN15@LoadMeshs
$LN14@LoadMeshs:

; 189  : 		else
; 190  : 		{
; 191  : 			if (!rMesh.CreateFromGrannyMeshPointer(pgrnSkeleton, pgrnMesh, vtxDeformPos, idxPos, m_kMtrlPal))

  00177	8b 45 ec	 mov	 eax, DWORD PTR _this$[ebp]
  0017a	83 c0 78	 add	 eax, 120		; 00000078H
  0017d	50		 push	 eax
  0017e	ff 75 d4	 push	 DWORD PTR _idxPos$[ebp]
  00181	ff 75 c0	 push	 DWORD PTR _vtxDeformPos$[ebp]
  00184	ff 75 e8	 push	 DWORD PTR _pgrnMesh$16[ebp]
  00187	ff 75 a8	 push	 DWORD PTR _pgrnSkeleton$[ebp]
  0018a	8b 4d dc	 mov	 ecx, DWORD PTR _rMesh$13[ebp]
  0018d	e8 00 00 00 00	 call	 ?CreateFromGrannyMeshPointer@CGrannyMesh@@QAE_NPAUgranny_skeleton@@PAUgranny_mesh@@HHAAVCGrannyMaterialPalette@@@Z ; CGrannyMesh::CreateFromGrannyMeshPointer
  00192	0f b6 c0	 movzx	 eax, al
  00195	85 c0		 test	 eax, eax
  00197	75 07		 jne	 SHORT $LN17@LoadMeshs

; 192  : 				return false;

  00199	32 c0		 xor	 al, al
  0019b	e9 24 03 00 00	 jmp	 $LN1@LoadMeshs
$LN17@LoadMeshs:

; 193  : 
; 194  : 			vtxDeformPos += GrannyGetMeshVertexCount(pgrnMesh);

  001a0	ff 75 e8	 push	 DWORD PTR _pgrnMesh$16[ebp]
  001a3	ff 15 00 00 00
	00		 call	 DWORD PTR __imp__GrannyGetMeshVertexCount@4
  001a9	03 45 c0	 add	 eax, DWORD PTR _vtxDeformPos$[ebp]
  001ac	89 45 c0	 mov	 DWORD PTR _vtxDeformPos$[ebp], eax

; 195  : 			m_canDeformPNVertices |= rMesh.CanDeformPNTVertices();

  001af	8b 45 ec	 mov	 eax, DWORD PTR _this$[ebp]
  001b2	0f b6 58 74	 movzx	 ebx, BYTE PTR [eax+116]
  001b6	8b 4d dc	 mov	 ecx, DWORD PTR _rMesh$13[ebp]
  001b9	e8 00 00 00 00	 call	 ?CanDeformPNTVertices@CGrannyMesh@@QBE_NXZ ; CGrannyMesh::CanDeformPNTVertices
  001be	0f b6 c0	 movzx	 eax, al
  001c1	0b d8		 or	 ebx, eax
  001c3	8b 45 ec	 mov	 eax, DWORD PTR _this$[ebp]
  001c6	88 58 74	 mov	 BYTE PTR [eax+116], bl
$LN15@LoadMeshs:
; File D:\Metin2 Server Files\mainline\SRC_2014\Metin2Client\eterGrnLib\Mesh.h

; 97   : 		bool						HaveBlendThing() { return m_bHaveBlendThing; }

  001c9	8b 45 dc	 mov	 eax, DWORD PTR _rMesh$13[ebp]
  001cc	8a 40 36	 mov	 al, BYTE PTR [eax+54]
  001cf	88 45 f3	 mov	 BYTE PTR $T17[ebp], al
; File D:\Metin2 Server Files\mainline\SRC_2014\Metin2Client\eterGrnLib\Model.cpp

; 197  : 		m_bHaveBlendThing |= rMesh.HaveBlendThing();

  001d2	8b 45 ec	 mov	 eax, DWORD PTR _this$[ebp]
  001d5	0f b6 80 88 00
	00 00		 movzx	 eax, BYTE PTR [eax+136]
  001dc	0f b6 4d f3	 movzx	 ecx, BYTE PTR $T17[ebp]
  001e0	0b c1		 or	 eax, ecx
  001e2	8b 4d ec	 mov	 ecx, DWORD PTR _this$[ebp]
  001e5	88 81 88 00 00
	00		 mov	 BYTE PTR [ecx+136], al

; 198  : 
; 199  : 		granny_int32x grni32xTypeCount = GrannyGetTotalTypeSize(pgrnMesh->PrimaryVertexData->VertexType) / 32;

  001eb	8b 45 e8	 mov	 eax, DWORD PTR _pgrnMesh$16[ebp]
  001ee	8b 40 04	 mov	 eax, DWORD PTR [eax+4]
  001f1	ff 30		 push	 DWORD PTR [eax]
  001f3	ff 15 00 00 00
	00		 call	 DWORD PTR __imp__GrannyGetTotalTypeSize@4
  001f9	99		 cdq
  001fa	83 e2 1f	 and	 edx, 31			; 0000001fH
  001fd	03 c2		 add	 eax, edx
  001ff	c1 f8 05	 sar	 eax, 5
  00202	89 45 94	 mov	 DWORD PTR _grni32xTypeCount$5[ebp], eax

; 200  : 		int i = 0;

  00205	83 65 e4 00	 and	 DWORD PTR _i$15[ebp], 0
$LN5@LoadMeshs:

; 201  : 		while (i < grni32xTypeCount)

  00209	8b 45 e4	 mov	 eax, DWORD PTR _i$15[ebp]
  0020c	3b 45 94	 cmp	 eax, DWORD PTR _grni32xTypeCount$5[ebp]
  0020f	0f 8d 2f 01 00
	00		 jge	 $LN6@LoadMeshs

; 202  : 		{
; 203  : 			if (NULL == pgrnMesh->PrimaryVertexData->VertexType[i].Name || 0 == strlen(pgrnMesh->PrimaryVertexData->VertexType[i].Name))

  00215	8b 45 e8	 mov	 eax, DWORD PTR _pgrnMesh$16[ebp]
  00218	8b 40 04	 mov	 eax, DWORD PTR [eax+4]
  0021b	8b 4d e4	 mov	 ecx, DWORD PTR _i$15[ebp]
  0021e	c1 e1 05	 shl	 ecx, 5
  00221	8b 00		 mov	 eax, DWORD PTR [eax]
  00223	83 7c 08 04 00	 cmp	 DWORD PTR [eax+ecx+4], 0
  00228	74 1c		 je	 SHORT $LN19@LoadMeshs
  0022a	8b 45 e8	 mov	 eax, DWORD PTR _pgrnMesh$16[ebp]
  0022d	8b 40 04	 mov	 eax, DWORD PTR [eax+4]
  00230	8b 4d e4	 mov	 ecx, DWORD PTR _i$15[ebp]
  00233	c1 e1 05	 shl	 ecx, 5
  00236	8b 00		 mov	 eax, DWORD PTR [eax]
  00238	ff 74 08 04	 push	 DWORD PTR [eax+ecx+4]
  0023c	e8 00 00 00 00	 call	 _strlen
  00241	59		 pop	 ecx
  00242	85 c0		 test	 eax, eax
  00244	75 09		 jne	 SHORT $LN18@LoadMeshs
$LN19@LoadMeshs:

; 204  : 			{
; 205  : 				++i;

  00246	8b 45 e4	 mov	 eax, DWORD PTR _i$15[ebp]
  00249	40		 inc	 eax
  0024a	89 45 e4	 mov	 DWORD PTR _i$15[ebp], eax

; 206  : 				continue;

  0024d	eb ba		 jmp	 SHORT $LN5@LoadMeshs
$LN18@LoadMeshs:

; 207  : 			}
; 208  : 			if ( 0 == strcmp(pgrnMesh->PrimaryVertexData->VertexType[i].Name, GrannyVertexPositionName) )

  0024f	68 00 00 00 00	 push	 OFFSET ??_C@_08GCJNLIKG@Position@
  00254	8b 45 e8	 mov	 eax, DWORD PTR _pgrnMesh$16[ebp]
  00257	8b 40 04	 mov	 eax, DWORD PTR [eax+4]
  0025a	8b 4d e4	 mov	 ecx, DWORD PTR _i$15[ebp]
  0025d	c1 e1 05	 shl	 ecx, 5
  00260	8b 00		 mov	 eax, DWORD PTR [eax]
  00262	ff 74 08 04	 push	 DWORD PTR [eax+ecx+4]
  00266	e8 00 00 00 00	 call	 _strcmp
  0026b	59		 pop	 ecx
  0026c	59		 pop	 ecx
  0026d	85 c0		 test	 eax, eax
  0026f	75 1a		 jne	 SHORT $LN20@LoadMeshs

; 209  : 				m_dwFvF |= D3DFVF_XYZ;

  00271	8b 45 ec	 mov	 eax, DWORD PTR _this$[ebp]
  00274	8b 80 8c 00 00
	00		 mov	 eax, DWORD PTR [eax+140]
  0027a	83 c8 02	 or	 eax, 2
  0027d	8b 4d ec	 mov	 ecx, DWORD PTR _this$[ebp]
  00280	89 81 8c 00 00
	00		 mov	 DWORD PTR [ecx+140], eax
  00286	e9 ad 00 00 00	 jmp	 $LN21@LoadMeshs
$LN20@LoadMeshs:

; 210  : 			else if ( 0 == strcmp(pgrnMesh->PrimaryVertexData->VertexType[i].Name, GrannyVertexNormalName) )

  0028b	68 00 00 00 00	 push	 OFFSET ??_C@_06EFAGIKOH@Normal@
  00290	8b 45 e8	 mov	 eax, DWORD PTR _pgrnMesh$16[ebp]
  00293	8b 40 04	 mov	 eax, DWORD PTR [eax+4]
  00296	8b 4d e4	 mov	 ecx, DWORD PTR _i$15[ebp]
  00299	c1 e1 05	 shl	 ecx, 5
  0029c	8b 00		 mov	 eax, DWORD PTR [eax]
  0029e	ff 74 08 04	 push	 DWORD PTR [eax+ecx+4]
  002a2	e8 00 00 00 00	 call	 _strcmp
  002a7	59		 pop	 ecx
  002a8	59		 pop	 ecx
  002a9	85 c0		 test	 eax, eax
  002ab	75 17		 jne	 SHORT $LN22@LoadMeshs

; 211  : 				m_dwFvF |= D3DFVF_NORMAL;

  002ad	8b 45 ec	 mov	 eax, DWORD PTR _this$[ebp]
  002b0	8b 80 8c 00 00
	00		 mov	 eax, DWORD PTR [eax+140]
  002b6	83 c8 10	 or	 eax, 16			; 00000010H
  002b9	8b 4d ec	 mov	 ecx, DWORD PTR _this$[ebp]
  002bc	89 81 8c 00 00
	00		 mov	 DWORD PTR [ecx+140], eax
  002c2	eb 74		 jmp	 SHORT $LN21@LoadMeshs
$LN22@LoadMeshs:

; 212  : 			else if ( 0 == strcmp(pgrnMesh->PrimaryVertexData->VertexType[i].Name, GrannyVertexTextureCoordinatesName"0") )

  002c4	68 00 00 00 00	 push	 OFFSET ??_C@_0BE@MAKBLMOM@TextureCoordinates0@
  002c9	8b 45 e8	 mov	 eax, DWORD PTR _pgrnMesh$16[ebp]
  002cc	8b 40 04	 mov	 eax, DWORD PTR [eax+4]
  002cf	8b 4d e4	 mov	 ecx, DWORD PTR _i$15[ebp]
  002d2	c1 e1 05	 shl	 ecx, 5
  002d5	8b 00		 mov	 eax, DWORD PTR [eax]
  002d7	ff 74 08 04	 push	 DWORD PTR [eax+ecx+4]
  002db	e8 00 00 00 00	 call	 _strcmp
  002e0	59		 pop	 ecx
  002e1	59		 pop	 ecx
  002e2	85 c0		 test	 eax, eax
  002e4	75 19		 jne	 SHORT $LN24@LoadMeshs

; 213  : 				m_dwFvF |= D3DFVF_TEX1;

  002e6	8b 45 ec	 mov	 eax, DWORD PTR _this$[ebp]
  002e9	8b 80 8c 00 00
	00		 mov	 eax, DWORD PTR [eax+140]
  002ef	0d 00 01 00 00	 or	 eax, 256		; 00000100H
  002f4	8b 4d ec	 mov	 ecx, DWORD PTR _this$[ebp]
  002f7	89 81 8c 00 00
	00		 mov	 DWORD PTR [ecx+140], eax
  002fd	eb 39		 jmp	 SHORT $LN21@LoadMeshs
$LN24@LoadMeshs:

; 214  : 			else if ( 0 == strcmp(pgrnMesh->PrimaryVertexData->VertexType[i].Name, GrannyVertexTextureCoordinatesName"1") )

  002ff	68 00 00 00 00	 push	 OFFSET ??_C@_0BE@NJLKINKN@TextureCoordinates1@
  00304	8b 45 e8	 mov	 eax, DWORD PTR _pgrnMesh$16[ebp]
  00307	8b 40 04	 mov	 eax, DWORD PTR [eax+4]
  0030a	8b 4d e4	 mov	 ecx, DWORD PTR _i$15[ebp]
  0030d	c1 e1 05	 shl	 ecx, 5
  00310	8b 00		 mov	 eax, DWORD PTR [eax]
  00312	ff 74 08 04	 push	 DWORD PTR [eax+ecx+4]
  00316	e8 00 00 00 00	 call	 _strcmp
  0031b	59		 pop	 ecx
  0031c	59		 pop	 ecx
  0031d	85 c0		 test	 eax, eax
  0031f	75 17		 jne	 SHORT $LN21@LoadMeshs

; 215  : 				m_dwFvF |= D3DFVF_TEX2;

  00321	8b 45 ec	 mov	 eax, DWORD PTR _this$[ebp]
  00324	8b 80 8c 00 00
	00		 mov	 eax, DWORD PTR [eax+140]
  0032a	0d 00 02 00 00	 or	 eax, 512		; 00000200H
  0032f	8b 4d ec	 mov	 ecx, DWORD PTR _this$[ebp]
  00332	89 81 8c 00 00
	00		 mov	 DWORD PTR [ecx+140], eax
$LN21@LoadMeshs:

; 216  : 			++i;

  00338	8b 45 e4	 mov	 eax, DWORD PTR _i$15[ebp]
  0033b	40		 inc	 eax
  0033c	89 45 e4	 mov	 DWORD PTR _i$15[ebp], eax

; 217  : 		}

  0033f	e9 c5 fe ff ff	 jmp	 $LN5@LoadMeshs
$LN6@LoadMeshs:

; 218  : 
; 219  : 		vtxPos += GrannyGetMeshVertexCount(pgrnMesh);

  00344	ff 75 e8	 push	 DWORD PTR _pgrnMesh$16[ebp]
  00347	ff 15 00 00 00
	00		 call	 DWORD PTR __imp__GrannyGetMeshVertexCount@4
  0034d	03 45 b0	 add	 eax, DWORD PTR _vtxPos$[ebp]
  00350	89 45 b0	 mov	 DWORD PTR _vtxPos$[ebp], eax

; 220  : 		idxPos += GrannyGetMeshIndexCount(pgrnMesh);		

  00353	ff 75 e8	 push	 DWORD PTR _pgrnMesh$16[ebp]
  00356	ff 15 00 00 00
	00		 call	 DWORD PTR __imp__GrannyGetMeshIndexCount@4
  0035c	03 45 d4	 add	 eax, DWORD PTR _idxPos$[ebp]
  0035f	89 45 d4	 mov	 DWORD PTR _idxPos$[ebp], eax

; 221  : 
; 222  : 		if (rMesh.GetTriGroupNodeList(CGrannyMaterial::TYPE_DIFFUSE_PNT))

  00362	6a 00		 push	 0
  00364	8b 4d dc	 mov	 ecx, DWORD PTR _rMesh$13[ebp]
  00367	e8 00 00 00 00	 call	 ?GetTriGroupNodeList@CGrannyMesh@@QBEPBUSTriGroupNode@1@W4EType@CGrannyMaterial@@@Z ; CGrannyMesh::GetTriGroupNodeList
  0036c	85 c0		 test	 eax, eax
  0036e	74 07		 je	 SHORT $LN27@LoadMeshs

; 223  : 			++diffusePNTMeshNodeCount;

  00370	8b 45 b8	 mov	 eax, DWORD PTR _diffusePNTMeshNodeCount$[ebp]
  00373	40		 inc	 eax
  00374	89 45 b8	 mov	 DWORD PTR _diffusePNTMeshNodeCount$[ebp], eax
$LN27@LoadMeshs:

; 224  : 
; 225  : 		if (rMesh.GetTriGroupNodeList(CGrannyMaterial::TYPE_BLEND_PNT))

  00377	6a 01		 push	 1
  00379	8b 4d dc	 mov	 ecx, DWORD PTR _rMesh$13[ebp]
  0037c	e8 00 00 00 00	 call	 ?GetTriGroupNodeList@CGrannyMesh@@QBEPBUSTriGroupNode@1@W4EType@CGrannyMaterial@@@Z ; CGrannyMesh::GetTriGroupNodeList
  00381	85 c0		 test	 eax, eax
  00383	74 07		 je	 SHORT $LN28@LoadMeshs

; 226  : 			++blendPNTMeshNodeCount;

  00385	8b 45 b4	 mov	 eax, DWORD PTR _blendPNTMeshNodeCount$[ebp]
  00388	40		 inc	 eax
  00389	89 45 b4	 mov	 DWORD PTR _blendPNTMeshNodeCount$[ebp], eax
$LN28@LoadMeshs:

; 227  : 	}

  0038c	e9 6a fd ff ff	 jmp	 $LN2@LoadMeshs
$LN3@LoadMeshs:

; 228  : 
; 229  : 	m_meshNodeCapacity = diffusePNTMeshNodeCount + blendPNTMeshNodeCount + blendPNT2MeshNodeCount;

  00391	8b 45 b8	 mov	 eax, DWORD PTR _diffusePNTMeshNodeCount$[ebp]
  00394	03 45 b4	 add	 eax, DWORD PTR _blendPNTMeshNodeCount$[ebp]
  00397	03 45 90	 add	 eax, DWORD PTR _blendPNT2MeshNodeCount$[ebp]
  0039a	8b 4d ec	 mov	 ecx, DWORD PTR _this$[ebp]
  0039d	89 41 70	 mov	 DWORD PTR [ecx+112], eax

; 230  : 	m_meshNodes = new TMeshNode[m_meshNodeCapacity];

  003a0	33 c9		 xor	 ecx, ecx
  003a2	8b 45 ec	 mov	 eax, DWORD PTR _this$[ebp]
  003a5	8b 40 70	 mov	 eax, DWORD PTR [eax+112]
  003a8	6a 0c		 push	 12			; 0000000cH
  003aa	5a		 pop	 edx
  003ab	f7 e2		 mul	 edx
  003ad	0f 90 c1	 seto	 cl
  003b0	f7 d9		 neg	 ecx
  003b2	0b c8		 or	 ecx, eax
  003b4	51		 push	 ecx
  003b5	e8 00 00 00 00	 call	 ??_U@YAPAXI@Z		; operator new[]
  003ba	59		 pop	 ecx
  003bb	89 45 8c	 mov	 DWORD PTR $T4[ebp], eax
  003be	8b 45 ec	 mov	 eax, DWORD PTR _this$[ebp]
  003c1	8b 4d 8c	 mov	 ecx, DWORD PTR $T4[ebp]
  003c4	89 48 48	 mov	 DWORD PTR [eax+72], ecx

; 231  : 
; 232  : 	for (int n = 0; n < meshCount; ++n)

  003c7	83 65 e0 00	 and	 DWORD PTR _n$14[ebp], 0
  003cb	eb 07		 jmp	 SHORT $LN9@LoadMeshs
$LN7@LoadMeshs:
  003cd	8b 45 e0	 mov	 eax, DWORD PTR _n$14[ebp]
  003d0	40		 inc	 eax
  003d1	89 45 e0	 mov	 DWORD PTR _n$14[ebp], eax
$LN9@LoadMeshs:
  003d4	8b 45 e0	 mov	 eax, DWORD PTR _n$14[ebp]
  003d7	3b 45 cc	 cmp	 eax, DWORD PTR _meshCount$[ebp]
  003da	0f 8d 83 00 00
	00		 jge	 $LN8@LoadMeshs

; 233  : 	{
; 234  : 		CGrannyMesh& rMesh = m_meshs[n];

  003e0	6b 45 e0 38	 imul	 eax, DWORD PTR _n$14[ebp], 56
  003e4	8b 4d ec	 mov	 ecx, DWORD PTR _this$[ebp]
  003e7	03 41 10	 add	 eax, DWORD PTR [ecx+16]
  003ea	89 45 a0	 mov	 DWORD PTR _rMesh$8[ebp], eax

; 235  : 		granny_mesh* pgrnMesh = m_pgrnModel->MeshBindings[n].Mesh;

  003ed	8b 45 ec	 mov	 eax, DWORD PTR _this$[ebp]
  003f0	8b 40 0c	 mov	 eax, DWORD PTR [eax+12]
  003f3	8b 40 50	 mov	 eax, DWORD PTR [eax+80]
  003f6	8b 4d e0	 mov	 ecx, DWORD PTR _n$14[ebp]
  003f9	8b 04 88	 mov	 eax, DWORD PTR [eax+ecx*4]
  003fc	89 45 88	 mov	 DWORD PTR _pgrnMesh$3[ebp], eax

; 236  : 
; 237  : 		CGrannyMesh::EType eMeshType = GrannyMeshIsRigid(pgrnMesh) ? CGrannyMesh::TYPE_RIGID : CGrannyMesh::TYPE_DEFORM;

  003ff	ff 75 88	 push	 DWORD PTR _pgrnMesh$3[ebp]
  00402	ff 15 00 00 00
	00		 call	 DWORD PTR __imp__GrannyMeshIsRigid@4
  00408	0f b6 c0	 movzx	 eax, al
  0040b	85 c0		 test	 eax, eax
  0040d	74 06		 je	 SHORT $LN35@LoadMeshs
  0040f	83 65 a4 00	 and	 DWORD PTR tv312[ebp], 0
  00413	eb 07		 jmp	 SHORT $LN36@LoadMeshs
$LN35@LoadMeshs:
  00415	c7 45 a4 01 00
	00 00		 mov	 DWORD PTR tv312[ebp], 1
$LN36@LoadMeshs:
  0041c	8b 45 a4	 mov	 eax, DWORD PTR tv312[ebp]
  0041f	89 45 9c	 mov	 DWORD PTR _eMeshType$7[ebp], eax

; 238  : 
; 239  : 		if (rMesh.GetTriGroupNodeList(CGrannyMaterial::TYPE_DIFFUSE_PNT))

  00422	6a 00		 push	 0
  00424	8b 4d a0	 mov	 ecx, DWORD PTR _rMesh$8[ebp]
  00427	e8 00 00 00 00	 call	 ?GetTriGroupNodeList@CGrannyMesh@@QBEPBUSTriGroupNode@1@W4EType@CGrannyMaterial@@@Z ; CGrannyMesh::GetTriGroupNodeList
  0042c	85 c0		 test	 eax, eax
  0042e	74 10		 je	 SHORT $LN29@LoadMeshs

; 240  : 			AppendMeshNode(eMeshType, CGrannyMaterial::TYPE_DIFFUSE_PNT, n);

  00430	ff 75 e0	 push	 DWORD PTR _n$14[ebp]
  00433	6a 00		 push	 0
  00435	ff 75 9c	 push	 DWORD PTR _eMeshType$7[ebp]
  00438	8b 4d ec	 mov	 ecx, DWORD PTR _this$[ebp]
  0043b	e8 00 00 00 00	 call	 ?AppendMeshNode@CGrannyModel@@IAEXW4EType@CGrannyMesh@@W42CGrannyMaterial@@H@Z ; CGrannyModel::AppendMeshNode
$LN29@LoadMeshs:

; 241  : 
; 242  : 		if (rMesh.GetTriGroupNodeList(CGrannyMaterial::TYPE_BLEND_PNT))

  00440	6a 01		 push	 1
  00442	8b 4d a0	 mov	 ecx, DWORD PTR _rMesh$8[ebp]
  00445	e8 00 00 00 00	 call	 ?GetTriGroupNodeList@CGrannyMesh@@QBEPBUSTriGroupNode@1@W4EType@CGrannyMaterial@@@Z ; CGrannyMesh::GetTriGroupNodeList
  0044a	85 c0		 test	 eax, eax
  0044c	74 10		 je	 SHORT $LN30@LoadMeshs

; 243  : 			AppendMeshNode(eMeshType, CGrannyMaterial::TYPE_BLEND_PNT, n);

  0044e	ff 75 e0	 push	 DWORD PTR _n$14[ebp]
  00451	6a 01		 push	 1
  00453	ff 75 9c	 push	 DWORD PTR _eMeshType$7[ebp]
  00456	8b 4d ec	 mov	 ecx, DWORD PTR _this$[ebp]
  00459	e8 00 00 00 00	 call	 ?AppendMeshNode@CGrannyModel@@IAEXW4EType@CGrannyMesh@@W42CGrannyMaterial@@H@Z ; CGrannyModel::AppendMeshNode
$LN30@LoadMeshs:

; 244  : 	}

  0045e	e9 6a ff ff ff	 jmp	 $LN7@LoadMeshs
$LN8@LoadMeshs:

; 245  : 
; 246  : 	// For Dungeon Block
; 247  : 	if ((D3DFVF_XYZ|D3DFVF_NORMAL|D3DFVF_TEX1|D3DFVF_TEX2) == m_dwFvF)

  00463	8b 45 ec	 mov	 eax, DWORD PTR _this$[ebp]
  00466	81 b8 8c 00 00
	00 12 03 00 00	 cmp	 DWORD PTR [eax+140], 786 ; 00000312H
  00470	75 2c		 jne	 SHORT $LN31@LoadMeshs

; 248  : 	{
; 249  : 		for (int n = 0; n < meshCount; ++n)

  00472	83 65 c8 00	 and	 DWORD PTR _n$10[ebp], 0
  00476	eb 07		 jmp	 SHORT $LN12@LoadMeshs
$LN10@LoadMeshs:
  00478	8b 45 c8	 mov	 eax, DWORD PTR _n$10[ebp]
  0047b	40		 inc	 eax
  0047c	89 45 c8	 mov	 DWORD PTR _n$10[ebp], eax
$LN12@LoadMeshs:
  0047f	8b 45 c8	 mov	 eax, DWORD PTR _n$10[ebp]
  00482	3b 45 cc	 cmp	 eax, DWORD PTR _meshCount$[ebp]
  00485	7d 17		 jge	 SHORT $LN31@LoadMeshs

; 250  : 		{
; 251  : 			CGrannyMesh& rMesh = m_meshs[n];

  00487	6b 45 c8 38	 imul	 eax, DWORD PTR _n$10[ebp], 56
  0048b	8b 4d ec	 mov	 ecx, DWORD PTR _this$[ebp]
  0048e	03 41 10	 add	 eax, DWORD PTR [ecx+16]
  00491	89 45 84	 mov	 DWORD PTR _rMesh$2[ebp], eax

; 252  : 			rMesh.SetPNT2Mesh();

  00494	8b 4d 84	 mov	 ecx, DWORD PTR _rMesh$2[ebp]
  00497	e8 00 00 00 00	 call	 ?SetPNT2Mesh@CGrannyMesh@@QAEXXZ ; CGrannyMesh::SetPNT2Mesh

; 253  : 		}

  0049c	eb da		 jmp	 SHORT $LN10@LoadMeshs
$LN31@LoadMeshs:

; 254  : 	}
; 255  : 
; 256  : 	m_rigidVtxCount = vtxRigidPos;

  0049e	8b 45 ec	 mov	 eax, DWORD PTR _this$[ebp]
  004a1	8b 4d c4	 mov	 ecx, DWORD PTR _vtxRigidPos$[ebp]
  004a4	89 48 60	 mov	 DWORD PTR [eax+96], ecx

; 257  : 	m_deformVtxCount = vtxDeformPos;

  004a7	8b 45 ec	 mov	 eax, DWORD PTR _this$[ebp]
  004aa	8b 4d c0	 mov	 ecx, DWORD PTR _vtxDeformPos$[ebp]
  004ad	89 48 5c	 mov	 DWORD PTR [eax+92], ecx

; 258  : 
; 259  : 	m_vtxCount = vtxPos;

  004b0	8b 45 ec	 mov	 eax, DWORD PTR _this$[ebp]
  004b3	8b 4d b0	 mov	 ecx, DWORD PTR _vtxPos$[ebp]
  004b6	89 48 64	 mov	 DWORD PTR [eax+100], ecx

; 260  : 	m_idxCount = idxPos;

  004b9	8b 45 ec	 mov	 eax, DWORD PTR _this$[ebp]
  004bc	8b 4d d4	 mov	 ecx, DWORD PTR _idxPos$[ebp]
  004bf	89 48 68	 mov	 DWORD PTR [eax+104], ecx

; 261  : 	return true;

  004c2	b0 01		 mov	 al, 1
$LN1@LoadMeshs:

; 262  : }

  004c4	8b 4d f4	 mov	 ecx, DWORD PTR __$EHRec$[ebp]
  004c7	64 89 0d 00 00
	00 00		 mov	 DWORD PTR fs:0, ecx
  004ce	59		 pop	 ecx
  004cf	5b		 pop	 ebx
  004d0	c9		 leave
  004d1	c3		 ret	 0
_TEXT	ENDS
;	COMDAT text$x
text$x	SEGMENT
__unwindfunclet$?LoadMeshs@CGrannyModel@@IAE_NXZ$0:
  00000	33 db		 xor	 ebx, ebx
  00002	8b 45 bc	 mov	 eax, DWORD PTR $T9[ebp]
  00005	6a 38		 push	 56			; 00000038H
  00007	59		 pop	 ecx
  00008	f7 e1		 mul	 ecx
  0000a	0f 90 c3	 seto	 bl
  0000d	f7 db		 neg	 ebx
  0000f	0b d8		 or	 ebx, eax
  00011	33 c0		 xor	 eax, eax
  00013	83 c3 04	 add	 ebx, 4
  00016	0f 92 c0	 setb	 al
  00019	f7 d8		 neg	 eax
  0001b	0b c3		 or	 eax, ebx
  0001d	50		 push	 eax
  0001e	ff 75 d0	 push	 DWORD PTR $T11[ebp]
  00021	e8 00 00 00 00	 call	 ??_V@YAXPAXI@Z		; operator delete[]
  00026	59		 pop	 ecx
  00027	59		 pop	 ecx
  00028	c3		 ret	 0
  00029	cc		 int	 3
  0002a	cc		 int	 3
  0002b	cc		 int	 3
  0002c	cc		 int	 3
  0002d	cc		 int	 3
__ehhandler$?LoadMeshs@CGrannyModel@@IAE_NXZ:
  0002e	90		 npad	 1
  0002f	90		 npad	 1
  00030	8b 54 24 08	 mov	 edx, DWORD PTR [esp+8]
  00034	8d 42 0c	 lea	 eax, DWORD PTR [edx+12]
  00037	8b 4a 88	 mov	 ecx, DWORD PTR [edx-120]
  0003a	33 c8		 xor	 ecx, eax
  0003c	e8 00 00 00 00	 call	 @__security_check_cookie@4
  00041	b8 00 00 00 00	 mov	 eax, OFFSET __ehfuncinfo$?LoadMeshs@CGrannyModel@@IAE_NXZ
  00046	e9 00 00 00 00	 jmp	 ___CxxFrameHandler3
text$x	ENDS
?LoadMeshs@CGrannyModel@@IAE_NXZ ENDP			; CGrannyModel::LoadMeshs
; Function compile flags: /Odspy
; File D:\Metin2 Server Files\mainline\SRC_2014\Metin2Client\eterGrnLib\Model.cpp
;	COMDAT ?GetMaterialPalette@CGrannyModel@@QBEABVCGrannyMaterialPalette@@XZ
_TEXT	SEGMENT
_this$ = -4						; size = 4
?GetMaterialPalette@CGrannyModel@@QBEABVCGrannyMaterialPalette@@XZ PROC ; CGrannyModel::GetMaterialPalette, COMDAT
; _this$ = ecx

; 6    : {

  00000	55		 push	 ebp
  00001	8b ec		 mov	 ebp, esp
  00003	51		 push	 ecx
  00004	89 4d fc	 mov	 DWORD PTR _this$[ebp], ecx

; 7    : 	return m_kMtrlPal;

  00007	8b 45 fc	 mov	 eax, DWORD PTR _this$[ebp]
  0000a	83 c0 78	 add	 eax, 120		; 00000078H

; 8    : }

  0000d	c9		 leave
  0000e	c3		 ret	 0
?GetMaterialPalette@CGrannyModel@@QBEABVCGrannyMaterialPalette@@XZ ENDP ; CGrannyModel::GetMaterialPalette
_TEXT	ENDS
; Function compile flags: /Odspy
; File D:\Metin2 Server Files\mainline\SRC_2014\Metin2Client\eterGrnLib\Model.cpp
;	COMDAT ?UnlockVertices@CGrannyModel@@QBEXXZ
_TEXT	SEGMENT
_this$ = -4						; size = 4
?UnlockVertices@CGrannyModel@@QBEXXZ PROC		; CGrannyModel::UnlockVertices, COMDAT
; _this$ = ecx

; 100  : {

  00000	55		 push	 ebp
  00001	8b ec		 mov	 ebp, esp
  00003	51		 push	 ecx
  00004	89 4d fc	 mov	 DWORD PTR _this$[ebp], ecx

; 101  : 	m_idxBuf.Unlock();

  00007	8b 4d fc	 mov	 ecx, DWORD PTR _this$[ebp]
  0000a	83 c1 34	 add	 ecx, 52			; 00000034H
  0000d	e8 00 00 00 00	 call	 ?Unlock@CGraphicIndexBuffer@@QBEXXZ ; CGraphicIndexBuffer::Unlock

; 102  : 	m_pntVtxBuf.Unlock();

  00012	8b 4d fc	 mov	 ecx, DWORD PTR _this$[ebp]
  00015	83 c1 14	 add	 ecx, 20			; 00000014H
  00018	e8 00 00 00 00	 call	 ?Unlock@CGraphicVertexBuffer@@QBE_NXZ ; CGraphicVertexBuffer::Unlock

; 103  : }

  0001d	c9		 leave
  0001e	c3		 ret	 0
?UnlockVertices@CGrannyModel@@QBEXXZ ENDP		; CGrannyModel::UnlockVertices
_TEXT	ENDS
; Function compile flags: /Odspy
; File D:\Metin2 Server Files\mainline\SRC_2014\Metin2Client\eterGrnLib\Model.cpp
;	COMDAT ?LockVertices@CGrannyModel@@QBE_NPAPAX0@Z
_TEXT	SEGMENT
_this$ = -4						; size = 4
_indicies$ = 8						; size = 4
_vertices$ = 12						; size = 4
?LockVertices@CGrannyModel@@QBE_NPAPAX0@Z PROC		; CGrannyModel::LockVertices, COMDAT
; _this$ = ecx

; 86   : {

  00000	55		 push	 ebp
  00001	8b ec		 mov	 ebp, esp
  00003	51		 push	 ecx
  00004	89 4d fc	 mov	 DWORD PTR _this$[ebp], ecx

; 87   : 	if (!m_idxBuf.Lock(indicies))

  00007	ff 75 08	 push	 DWORD PTR _indicies$[ebp]
  0000a	8b 4d fc	 mov	 ecx, DWORD PTR _this$[ebp]
  0000d	83 c1 34	 add	 ecx, 52			; 00000034H
  00010	e8 00 00 00 00	 call	 ?Lock@CGraphicIndexBuffer@@QBE_NPAPAX@Z ; CGraphicIndexBuffer::Lock
  00015	0f b6 c0	 movzx	 eax, al
  00018	85 c0		 test	 eax, eax
  0001a	75 04		 jne	 SHORT $LN2@LockVertic

; 88   : 		return false;

  0001c	32 c0		 xor	 al, al
  0001e	eb 26		 jmp	 SHORT $LN1@LockVertic
$LN2@LockVertic:

; 89   : 
; 90   : 	if (!m_pntVtxBuf.Lock(vertices))

  00020	ff 75 0c	 push	 DWORD PTR _vertices$[ebp]
  00023	8b 4d fc	 mov	 ecx, DWORD PTR _this$[ebp]
  00026	83 c1 14	 add	 ecx, 20			; 00000014H
  00029	e8 00 00 00 00	 call	 ?Lock@CGraphicVertexBuffer@@QBE_NPAPAX@Z ; CGraphicVertexBuffer::Lock
  0002e	0f b6 c0	 movzx	 eax, al
  00031	85 c0		 test	 eax, eax
  00033	75 0f		 jne	 SHORT $LN3@LockVertic

; 91   : 	{
; 92   : 		m_idxBuf.Unlock();

  00035	8b 4d fc	 mov	 ecx, DWORD PTR _this$[ebp]
  00038	83 c1 34	 add	 ecx, 52			; 00000034H
  0003b	e8 00 00 00 00	 call	 ?Unlock@CGraphicIndexBuffer@@QBEXXZ ; CGraphicIndexBuffer::Unlock

; 93   : 		return false;

  00040	32 c0		 xor	 al, al
  00042	eb 02		 jmp	 SHORT $LN1@LockVertic
$LN3@LockVertic:

; 94   : 	}
; 95   : 
; 96   : 	return true;

  00044	b0 01		 mov	 al, 1
$LN1@LockVertic:

; 97   : }

  00046	c9		 leave
  00047	c2 08 00	 ret	 8
?LockVertices@CGrannyModel@@QBE_NPAPAX0@Z ENDP		; CGrannyModel::LockVertices
_TEXT	ENDS
; Function compile flags: /Odspy
; File D:\Metin2 Server Files\mainline\SRC_2014\Metin2Client\eterGrnLib\Model.cpp
;	COMDAT ?GetMeshNodeList@CGrannyModel@@QBEPBUSMeshNode@1@W4EType@CGrannyMesh@@W43CGrannyMaterial@@@Z
_TEXT	SEGMENT
_this$ = -4						; size = 4
_eMeshType$ = 8						; size = 4
_eMtrlType$ = 12					; size = 4
?GetMeshNodeList@CGrannyModel@@QBEPBUSMeshNode@1@W4EType@CGrannyMesh@@W43CGrannyMaterial@@@Z PROC ; CGrannyModel::GetMeshNodeList, COMDAT
; _this$ = ecx

; 11   : {

  00000	55		 push	 ebp
  00001	8b ec		 mov	 ebp, esp
  00003	51		 push	 ecx
  00004	89 4d fc	 mov	 DWORD PTR _this$[ebp], ecx

; 12   : 	return m_meshNodeLists[eMeshType][eMtrlType];

  00007	8b 45 08	 mov	 eax, DWORD PTR _eMeshType$[ebp]
  0000a	8b 4d fc	 mov	 ecx, DWORD PTR _this$[ebp]
  0000d	8d 44 c1 4c	 lea	 eax, DWORD PTR [ecx+eax*8+76]
  00011	8b 4d 0c	 mov	 ecx, DWORD PTR _eMtrlType$[ebp]
  00014	8b 04 88	 mov	 eax, DWORD PTR [eax+ecx*4]

; 13   : }

  00017	c9		 leave
  00018	c2 08 00	 ret	 8
?GetMeshNodeList@CGrannyModel@@QBEPBUSMeshNode@1@W4EType@CGrannyMesh@@W43CGrannyMaterial@@@Z ENDP ; CGrannyModel::GetMeshNodeList
_TEXT	ENDS
; Function compile flags: /Odspy
; File D:\Metin2 Server Files\mainline\SRC_2014\Metin2Client\eterGrnLib\Model.cpp
;	COMDAT ?GetD3DIndexBuffer@CGrannyModel@@QBEPAUIDirect3DIndexBuffer8@@XZ
_TEXT	SEGMENT
_this$ = -4						; size = 4
?GetD3DIndexBuffer@CGrannyModel@@QBEPAUIDirect3DIndexBuffer8@@XZ PROC ; CGrannyModel::GetD3DIndexBuffer, COMDAT
; _this$ = ecx

; 76   : {

  00000	55		 push	 ebp
  00001	8b ec		 mov	 ebp, esp
  00003	51		 push	 ecx
  00004	89 4d fc	 mov	 DWORD PTR _this$[ebp], ecx

; 77   : 	return m_idxBuf.GetD3DIndexBuffer();

  00007	8b 4d fc	 mov	 ecx, DWORD PTR _this$[ebp]
  0000a	83 c1 34	 add	 ecx, 52			; 00000034H
  0000d	e8 00 00 00 00	 call	 ?GetD3DIndexBuffer@CGraphicIndexBuffer@@QBEPAUIDirect3DIndexBuffer8@@XZ ; CGraphicIndexBuffer::GetD3DIndexBuffer

; 78   : }

  00012	c9		 leave
  00013	c3		 ret	 0
?GetD3DIndexBuffer@CGrannyModel@@QBEPAUIDirect3DIndexBuffer8@@XZ ENDP ; CGrannyModel::GetD3DIndexBuffer
_TEXT	ENDS
; Function compile flags: /Odspy
; File D:\Metin2 Server Files\mainline\SRC_2014\Metin2Client\eterGrnLib\Model.cpp
; File D:\Metin2 Server Files\mainline\SRC_2014\Metin2Client\eterlib\GrpVertexBuffer.h
; File D:\Metin2 Server Files\mainline\SRC_2014\Metin2Client\eterGrnLib\Model.cpp
;	COMDAT ?GetPNTD3DVertexBuffer@CGrannyModel@@QBEPAUIDirect3DVertexBuffer8@@XZ
_TEXT	SEGMENT
$T1 = -8						; size = 4
_this$ = -4						; size = 4
?GetPNTD3DVertexBuffer@CGrannyModel@@QBEPAUIDirect3DVertexBuffer8@@XZ PROC ; CGrannyModel::GetPNTD3DVertexBuffer, COMDAT
; _this$ = ecx

; 81   : {

  00000	55		 push	 ebp
  00001	8b ec		 mov	 ebp, esp
  00003	51		 push	 ecx
  00004	51		 push	 ecx
  00005	89 4d fc	 mov	 DWORD PTR _this$[ebp], ecx
; File D:\Metin2 Server Files\mainline\SRC_2014\Metin2Client\eterlib\GrpVertexBuffer.h

; 33   : 		inline	LPDIRECT3DVERTEXBUFFER8 GetD3DVertexBuffer() const	{ return m_lpd3dVB; }

  00008	8b 45 fc	 mov	 eax, DWORD PTR _this$[ebp]
  0000b	8b 40 18	 mov	 eax, DWORD PTR [eax+24]
  0000e	89 45 f8	 mov	 DWORD PTR $T1[ebp], eax
; File D:\Metin2 Server Files\mainline\SRC_2014\Metin2Client\eterGrnLib\Model.cpp

; 82   : 	return m_pntVtxBuf.GetD3DVertexBuffer();

  00011	8b 45 f8	 mov	 eax, DWORD PTR $T1[ebp]

; 83   : }

  00014	c9		 leave
  00015	c3		 ret	 0
?GetPNTD3DVertexBuffer@CGrannyModel@@QBEPAUIDirect3DVertexBuffer8@@XZ ENDP ; CGrannyModel::GetPNTD3DVertexBuffer
_TEXT	ENDS
; Function compile flags: /Odspy
; File D:\Metin2 Server Files\mainline\SRC_2014\Metin2Client\eterGrnLib\Model.cpp
;	COMDAT ?GetMeshPointer@CGrannyModel@@QBEPBVCGrannyMesh@@H@Z
_TEXT	SEGMENT
_this$ = -4						; size = 4
_iMesh$ = 8						; size = 4
?GetMeshPointer@CGrannyModel@@QBEPBVCGrannyMesh@@H@Z PROC ; CGrannyModel::GetMeshPointer, COMDAT
; _this$ = ecx

; 24   : {

  00000	55		 push	 ebp
  00001	8b ec		 mov	 ebp, esp
  00003	51		 push	 ecx
  00004	89 4d fc	 mov	 DWORD PTR _this$[ebp], ecx

; 25   : 	assert(CheckMeshIndex(iMesh));
; 26   : 	assert(m_meshs != NULL);
; 27   : 
; 28   : 	return m_meshs + iMesh;

  00007	6b 45 08 38	 imul	 eax, DWORD PTR _iMesh$[ebp], 56
  0000b	8b 4d fc	 mov	 ecx, DWORD PTR _this$[ebp]
  0000e	03 41 10	 add	 eax, DWORD PTR [ecx+16]

; 29   : }

  00011	c9		 leave
  00012	c2 04 00	 ret	 4
?GetMeshPointer@CGrannyModel@@QBEPBVCGrannyMesh@@H@Z ENDP ; CGrannyModel::GetMeshPointer
_TEXT	ENDS
; Function compile flags: /Odspy
; File D:\Metin2 Server Files\mainline\SRC_2014\Metin2Client\eterGrnLib\Model.cpp
;	COMDAT ?GetGrannyModelPointer@CGrannyModel@@QAEPAUgranny_model@@XZ
_TEXT	SEGMENT
_this$ = -4						; size = 4
?GetGrannyModelPointer@CGrannyModel@@QAEPAUgranny_model@@XZ PROC ; CGrannyModel::GetGrannyModelPointer, COMDAT
; _this$ = ecx

; 71   : {

  00000	55		 push	 ebp
  00001	8b ec		 mov	 ebp, esp
  00003	51		 push	 ecx
  00004	89 4d fc	 mov	 DWORD PTR _this$[ebp], ecx

; 72   : 	return m_pgrnModel;

  00007	8b 45 fc	 mov	 eax, DWORD PTR _this$[ebp]
  0000a	8b 40 0c	 mov	 eax, DWORD PTR [eax+12]

; 73   : }

  0000d	c9		 leave
  0000e	c3		 ret	 0
?GetGrannyModelPointer@CGrannyModel@@QAEPAUgranny_model@@XZ ENDP ; CGrannyModel::GetGrannyModelPointer
_TEXT	ENDS
; Function compile flags: /Odspy
; File D:\Metin2 Server Files\mainline\SRC_2014\Metin2Client\eterGrnLib\Model.cpp
;	COMDAT ?GetMeshPointer@CGrannyModel@@QAEPAVCGrannyMesh@@H@Z
_TEXT	SEGMENT
_this$ = -4						; size = 4
_iMesh$ = 8						; size = 4
?GetMeshPointer@CGrannyModel@@QAEPAVCGrannyMesh@@H@Z PROC ; CGrannyModel::GetMeshPointer, COMDAT
; _this$ = ecx

; 16   : {

  00000	55		 push	 ebp
  00001	8b ec		 mov	 ebp, esp
  00003	51		 push	 ecx
  00004	89 4d fc	 mov	 DWORD PTR _this$[ebp], ecx

; 17   : 	assert(CheckMeshIndex(iMesh));
; 18   : 	assert(m_meshs != NULL);
; 19   : 
; 20   : 	return m_meshs + iMesh;

  00007	6b 45 08 38	 imul	 eax, DWORD PTR _iMesh$[ebp], 56
  0000b	8b 4d fc	 mov	 ecx, DWORD PTR _this$[ebp]
  0000e	03 41 10	 add	 eax, DWORD PTR [ecx+16]

; 21   : }

  00011	c9		 leave
  00012	c2 04 00	 ret	 4
?GetMeshPointer@CGrannyModel@@QAEPAVCGrannyMesh@@H@Z ENDP ; CGrannyModel::GetMeshPointer
_TEXT	ENDS
; Function compile flags: /Odspy
; File D:\Metin2 Server Files\mainline\SRC_2014\Metin2Client\eterGrnLib\Model.cpp
;	COMDAT ?GetMeshCount@CGrannyModel@@QBEHXZ
_TEXT	SEGMENT
tv68 = -8						; size = 4
_this$ = -4						; size = 4
?GetMeshCount@CGrannyModel@@QBEHXZ PROC			; CGrannyModel::GetMeshCount, COMDAT
; _this$ = ecx

; 66   : {

  00000	55		 push	 ebp
  00001	8b ec		 mov	 ebp, esp
  00003	51		 push	 ecx
  00004	51		 push	 ecx
  00005	89 4d fc	 mov	 DWORD PTR _this$[ebp], ecx

; 67   : 	return m_pgrnModel ? m_pgrnModel->MeshBindingCount : 0;

  00008	8b 45 fc	 mov	 eax, DWORD PTR _this$[ebp]
  0000b	83 78 0c 00	 cmp	 DWORD PTR [eax+12], 0
  0000f	74 0e		 je	 SHORT $LN3@GetMeshCou
  00011	8b 45 fc	 mov	 eax, DWORD PTR _this$[ebp]
  00014	8b 40 0c	 mov	 eax, DWORD PTR [eax+12]
  00017	8b 40 4c	 mov	 eax, DWORD PTR [eax+76]
  0001a	89 45 f8	 mov	 DWORD PTR tv68[ebp], eax
  0001d	eb 04		 jmp	 SHORT $LN4@GetMeshCou
$LN3@GetMeshCou:
  0001f	83 65 f8 00	 and	 DWORD PTR tv68[ebp], 0
$LN4@GetMeshCou:
  00023	8b 45 f8	 mov	 eax, DWORD PTR tv68[ebp]

; 68   : }

  00026	c9		 leave
  00027	c3		 ret	 0
?GetMeshCount@CGrannyModel@@QBEHXZ ENDP			; CGrannyModel::GetMeshCount
_TEXT	ENDS
; Function compile flags: /Odspy
; File D:\Metin2 Server Files\mainline\SRC_2014\Metin2Client\eterGrnLib\Model.cpp
;	COMDAT ?GetIdxCount@CGrannyModel@@QAEHXZ
_TEXT	SEGMENT
_this$ = -4						; size = 4
?GetIdxCount@CGrannyModel@@QAEHXZ PROC			; CGrannyModel::GetIdxCount, COMDAT
; _this$ = ecx

; 307  : {

  00000	55		 push	 ebp
  00001	8b ec		 mov	 ebp, esp
  00003	51		 push	 ecx
  00004	89 4d fc	 mov	 DWORD PTR _this$[ebp], ecx

; 308  : 	return m_idxCount;

  00007	8b 45 fc	 mov	 eax, DWORD PTR _this$[ebp]
  0000a	8b 40 68	 mov	 eax, DWORD PTR [eax+104]

; 309  : }

  0000d	c9		 leave
  0000e	c3		 ret	 0
?GetIdxCount@CGrannyModel@@QAEHXZ ENDP			; CGrannyModel::GetIdxCount
_TEXT	ENDS
; Function compile flags: /Odspy
; File D:\Metin2 Server Files\mainline\SRC_2014\Metin2Client\eterGrnLib\Model.cpp
; File C:\Program Files (x86)\Microsoft Visual Studio\2019\Community\VC\Tools\MSVC\14.28.29333\include\vector
; File D:\Metin2 Server Files\mainline\SRC_2014\Metin2Client\eterGrnLib\Model.cpp
;	COMDAT ?DeformPNTVertices@CGrannyModel@@QBEXPAXPAUD3DXMATRIX@@ABV?$vector@PAUgranny_mesh_binding@@V?$allocator@PAUgranny_mesh_binding@@@std@@@std@@@Z
_TEXT	SEGMENT
$T1 = -24						; size = 4
__My_data$2 = -20					; size = 4
_meshCount$ = -16					; size = 4
_rMesh$3 = -12						; size = 4
_this$ = -8						; size = 4
_iMesh$4 = -4						; size = 4
_dstBaseVertices$ = 8					; size = 4
_boneMatrices$ = 12					; size = 4
_c_rvct_pgrnMeshBinding$ = 16				; size = 4
?DeformPNTVertices@CGrannyModel@@QBEXPAXPAUD3DXMATRIX@@ABV?$vector@PAUgranny_mesh_binding@@V?$allocator@PAUgranny_mesh_binding@@@std@@@std@@@Z PROC ; CGrannyModel::DeformPNTVertices, COMDAT
; _this$ = ecx

; 37   : {

  00000	55		 push	 ebp
  00001	8b ec		 mov	 ebp, esp
  00003	83 ec 18	 sub	 esp, 24			; 00000018H
  00006	89 4d f8	 mov	 DWORD PTR _this$[ebp], ecx

; 38   : 	int meshCount = GetMeshCount();

  00009	8b 4d f8	 mov	 ecx, DWORD PTR _this$[ebp]
  0000c	e8 00 00 00 00	 call	 ?GetMeshCount@CGrannyModel@@QBEHXZ ; CGrannyModel::GetMeshCount
  00011	89 45 f0	 mov	 DWORD PTR _meshCount$[ebp], eax

; 39   : 
; 40   : 	for (int iMesh = 0; iMesh < meshCount; ++iMesh)

  00014	83 65 fc 00	 and	 DWORD PTR _iMesh$4[ebp], 0
  00018	eb 07		 jmp	 SHORT $LN4@DeformPNTV
$LN2@DeformPNTV:
  0001a	8b 45 fc	 mov	 eax, DWORD PTR _iMesh$4[ebp]
  0001d	40		 inc	 eax
  0001e	89 45 fc	 mov	 DWORD PTR _iMesh$4[ebp], eax
$LN4@DeformPNTV:
  00021	8b 45 fc	 mov	 eax, DWORD PTR _iMesh$4[ebp]
  00024	3b 45 f0	 cmp	 eax, DWORD PTR _meshCount$[ebp]
  00027	7d 45		 jge	 SHORT $LN1@DeformPNTV

; 41   : 	{
; 42   : 		assert(iMesh < c_rvct_pgrnMeshBinding.size());
; 43   : 
; 44   : 		CGrannyMesh & rMesh = m_meshs[iMesh];

  00029	6b 45 fc 38	 imul	 eax, DWORD PTR _iMesh$4[ebp], 56
  0002d	8b 4d f8	 mov	 ecx, DWORD PTR _this$[ebp]
  00030	03 41 10	 add	 eax, DWORD PTR [ecx+16]
  00033	89 45 f4	 mov	 DWORD PTR _rMesh$3[ebp], eax

; 45   : 		if (rMesh.CanDeformPNTVertices())

  00036	8b 4d f4	 mov	 ecx, DWORD PTR _rMesh$3[ebp]
  00039	e8 00 00 00 00	 call	 ?CanDeformPNTVertices@CGrannyMesh@@QBE_NXZ ; CGrannyMesh::CanDeformPNTVertices
  0003e	0f b6 c0	 movzx	 eax, al
  00041	85 c0		 test	 eax, eax
  00043	74 27		 je	 SHORT $LN5@DeformPNTV
; File C:\Program Files (x86)\Microsoft Visual Studio\2019\Community\VC\Tools\MSVC\14.28.29333\include\vector

; 1508 :         auto& _My_data = _Mypair._Myval2;

  00045	8b 45 10	 mov	 eax, DWORD PTR _c_rvct_pgrnMeshBinding$[ebp]
  00048	89 45 ec	 mov	 DWORD PTR __My_data$2[ebp], eax

; 1509 : #if _CONTAINER_DEBUG_LEVEL > 0
; 1510 :         _STL_VERIFY(
; 1511 :             _Pos < static_cast<size_type>(_My_data._Mylast - _My_data._Myfirst), "vector subscript out of range");
; 1512 : #endif // _CONTAINER_DEBUG_LEVEL > 0
; 1513 : 
; 1514 :         return _My_data._Myfirst[_Pos];

  0004b	8b 45 ec	 mov	 eax, DWORD PTR __My_data$2[ebp]
  0004e	8b 00		 mov	 eax, DWORD PTR [eax]
  00050	8b 4d fc	 mov	 ecx, DWORD PTR _iMesh$4[ebp]
  00053	8d 04 88	 lea	 eax, DWORD PTR [eax+ecx*4]
  00056	89 45 e8	 mov	 DWORD PTR $T1[ebp], eax
; File D:\Metin2 Server Files\mainline\SRC_2014\Metin2Client\eterGrnLib\Model.cpp

; 46   : 			rMesh.DeformPNTVertices(dstBaseVertices, boneMatrices, c_rvct_pgrnMeshBinding[iMesh]);

  00059	8b 45 e8	 mov	 eax, DWORD PTR $T1[ebp]
  0005c	ff 30		 push	 DWORD PTR [eax]
  0005e	ff 75 0c	 push	 DWORD PTR _boneMatrices$[ebp]
  00061	ff 75 08	 push	 DWORD PTR _dstBaseVertices$[ebp]
  00064	8b 4d f4	 mov	 ecx, DWORD PTR _rMesh$3[ebp]
  00067	e8 00 00 00 00	 call	 ?DeformPNTVertices@CGrannyMesh@@QBEXPAXPAUD3DXMATRIX@@PAUgranny_mesh_binding@@@Z ; CGrannyMesh::DeformPNTVertices
$LN5@DeformPNTV:

; 47   : 	}

  0006c	eb ac		 jmp	 SHORT $LN2@DeformPNTV
$LN1@DeformPNTV:

; 48   : }

  0006e	c9		 leave
  0006f	c2 0c 00	 ret	 12			; 0000000cH
?DeformPNTVertices@CGrannyModel@@QBEXPAXPAUD3DXMATRIX@@ABV?$vector@PAUgranny_mesh_binding@@V?$allocator@PAUgranny_mesh_binding@@@std@@@std@@@Z ENDP ; CGrannyModel::DeformPNTVertices
_TEXT	ENDS
; Function compile flags: /Odspy
; File D:\Metin2 Server Files\mainline\SRC_2014\Metin2Client\eterGrnLib\Model.cpp
;	COMDAT ?CanDeformPNTVertices@CGrannyModel@@QBE_NXZ
_TEXT	SEGMENT
_this$ = -4						; size = 4
?CanDeformPNTVertices@CGrannyModel@@QBE_NXZ PROC	; CGrannyModel::CanDeformPNTVertices, COMDAT
; _this$ = ecx

; 32   : {

  00000	55		 push	 ebp
  00001	8b ec		 mov	 ebp, esp
  00003	51		 push	 ecx
  00004	89 4d fc	 mov	 DWORD PTR _this$[ebp], ecx

; 33   : 	return m_canDeformPNVertices;

  00007	8b 45 fc	 mov	 eax, DWORD PTR _this$[ebp]
  0000a	8a 40 74	 mov	 al, BYTE PTR [eax+116]

; 34   : }

  0000d	c9		 leave
  0000e	c3		 ret	 0
?CanDeformPNTVertices@CGrannyModel@@QBE_NXZ ENDP	; CGrannyModel::CanDeformPNTVertices
_TEXT	ENDS
; Function compile flags: /Odspy
; File D:\Metin2 Server Files\mainline\SRC_2014\Metin2Client\eterGrnLib\Model.cpp
;	COMDAT ?GetVertexCount@CGrannyModel@@QBEHXZ
_TEXT	SEGMENT
_this$ = -4						; size = 4
?GetVertexCount@CGrannyModel@@QBEHXZ PROC		; CGrannyModel::GetVertexCount, COMDAT
; _this$ = ecx

; 61   : {

  00000	55		 push	 ebp
  00001	8b ec		 mov	 ebp, esp
  00003	51		 push	 ecx
  00004	89 4d fc	 mov	 DWORD PTR _this$[ebp], ecx

; 62   : 	return m_vtxCount;

  00007	8b 45 fc	 mov	 eax, DWORD PTR _this$[ebp]
  0000a	8b 40 64	 mov	 eax, DWORD PTR [eax+100]

; 63   : }

  0000d	c9		 leave
  0000e	c3		 ret	 0
?GetVertexCount@CGrannyModel@@QBEHXZ ENDP		; CGrannyModel::GetVertexCount
_TEXT	ENDS
; Function compile flags: /Odspy
; File D:\Metin2 Server Files\mainline\SRC_2014\Metin2Client\eterGrnLib\Model.cpp
;	COMDAT ?GetDeformVertexCount@CGrannyModel@@QBEHXZ
_TEXT	SEGMENT
_this$ = -4						; size = 4
?GetDeformVertexCount@CGrannyModel@@QBEHXZ PROC		; CGrannyModel::GetDeformVertexCount, COMDAT
; _this$ = ecx

; 56   : {

  00000	55		 push	 ebp
  00001	8b ec		 mov	 ebp, esp
  00003	51		 push	 ecx
  00004	89 4d fc	 mov	 DWORD PTR _this$[ebp], ecx

; 57   : 	return m_deformVtxCount;

  00007	8b 45 fc	 mov	 eax, DWORD PTR _this$[ebp]
  0000a	8b 40 5c	 mov	 eax, DWORD PTR [eax+92]

; 58   : }

  0000d	c9		 leave
  0000e	c3		 ret	 0
?GetDeformVertexCount@CGrannyModel@@QBEHXZ ENDP		; CGrannyModel::GetDeformVertexCount
_TEXT	ENDS
; Function compile flags: /Odspy
; File D:\Metin2 Server Files\mainline\SRC_2014\Metin2Client\eterGrnLib\Model.cpp
;	COMDAT ?GetRigidVertexCount@CGrannyModel@@QBEHXZ
_TEXT	SEGMENT
_this$ = -4						; size = 4
?GetRigidVertexCount@CGrannyModel@@QBEHXZ PROC		; CGrannyModel::GetRigidVertexCount, COMDAT
; _this$ = ecx

; 51   : {

  00000	55		 push	 ebp
  00001	8b ec		 mov	 ebp, esp
  00003	51		 push	 ecx
  00004	89 4d fc	 mov	 DWORD PTR _this$[ebp], ecx

; 52   : 	return m_rigidVtxCount;

  00007	8b 45 fc	 mov	 eax, DWORD PTR _this$[ebp]
  0000a	8b 40 60	 mov	 eax, DWORD PTR [eax+96]

; 53   : }

  0000d	c9		 leave
  0000e	c3		 ret	 0
?GetRigidVertexCount@CGrannyModel@@QBEHXZ ENDP		; CGrannyModel::GetRigidVertexCount
_TEXT	ENDS
; Function compile flags: /Odspy
; File D:\Metin2 Server Files\mainline\SRC_2014\Metin2Client\eterGrnLib\Model.cpp
;	COMDAT ?Destroy@CGrannyModel@@QAEXXZ
_TEXT	SEGMENT
tv85 = -24						; size = 4
$T1 = -20						; size = 4
tv84 = -16						; size = 4
$T2 = -12						; size = 4
$T3 = -8						; size = 4
_this$ = -4						; size = 4
?Destroy@CGrannyModel@@QAEXXZ PROC			; CGrannyModel::Destroy, COMDAT
; _this$ = ecx

; 347  : {	

  00000	55		 push	 ebp
  00001	8b ec		 mov	 ebp, esp
  00003	83 ec 18	 sub	 esp, 24			; 00000018H
  00006	89 4d fc	 mov	 DWORD PTR _this$[ebp], ecx

; 348  : 	m_kMtrlPal.Clear();

  00009	8b 4d fc	 mov	 ecx, DWORD PTR _this$[ebp]
  0000c	83 c1 78	 add	 ecx, 120		; 00000078H
  0000f	e8 00 00 00 00	 call	 ?Clear@CGrannyMaterialPalette@@QAEXXZ ; CGrannyMaterialPalette::Clear

; 349  : 	
; 350  : 	if (m_meshNodes)

  00014	8b 45 fc	 mov	 eax, DWORD PTR _this$[ebp]
  00017	83 78 48 00	 cmp	 DWORD PTR [eax+72], 0
  0001b	74 12		 je	 SHORT $LN2@Destroy

; 351  : 		delete [] m_meshNodes;

  0001d	8b 45 fc	 mov	 eax, DWORD PTR _this$[ebp]
  00020	8b 40 48	 mov	 eax, DWORD PTR [eax+72]
  00023	89 45 ec	 mov	 DWORD PTR $T1[ebp], eax
  00026	ff 75 ec	 push	 DWORD PTR $T1[ebp]
  00029	e8 00 00 00 00	 call	 ??_V@YAXPAX@Z		; operator delete[]
  0002e	59		 pop	 ecx
$LN2@Destroy:

; 352  : 
; 353  : 	if (m_meshs)

  0002f	8b 45 fc	 mov	 eax, DWORD PTR _this$[ebp]
  00032	83 78 10 00	 cmp	 DWORD PTR [eax+16], 0
  00036	74 4f		 je	 SHORT $LN3@Destroy

; 354  : 		delete [] m_meshs;

  00038	8b 45 fc	 mov	 eax, DWORD PTR _this$[ebp]
  0003b	8b 40 10	 mov	 eax, DWORD PTR [eax+16]
  0003e	89 45 f8	 mov	 DWORD PTR $T3[ebp], eax
  00041	8b 45 f8	 mov	 eax, DWORD PTR $T3[ebp]
  00044	89 45 f4	 mov	 DWORD PTR $T2[ebp], eax
  00047	83 7d f4 00	 cmp	 DWORD PTR $T2[ebp], 0
  0004b	74 36		 je	 SHORT $LN7@Destroy
  0004d	8b 45 f4	 mov	 eax, DWORD PTR $T2[ebp]
  00050	83 78 fc 00	 cmp	 DWORD PTR [eax-4], 0
  00054	74 11		 je	 SHORT $LN5@Destroy
  00056	6a 03		 push	 3
  00058	8b 45 f8	 mov	 eax, DWORD PTR $T3[ebp]
  0005b	8b 00		 mov	 eax, DWORD PTR [eax]
  0005d	8b 4d f8	 mov	 ecx, DWORD PTR $T3[ebp]
  00060	ff 10		 call	 DWORD PTR [eax]
  00062	89 45 f0	 mov	 DWORD PTR tv84[ebp], eax
  00065	eb 14		 jmp	 SHORT $LN6@Destroy
$LN5@Destroy:
  00067	6a 04		 push	 4
  00069	8b 45 f4	 mov	 eax, DWORD PTR $T2[ebp]
  0006c	83 e8 04	 sub	 eax, 4
  0006f	50		 push	 eax
  00070	e8 00 00 00 00	 call	 ??_V@YAXPAXI@Z		; operator delete[]
  00075	59		 pop	 ecx
  00076	59		 pop	 ecx
  00077	83 65 f0 00	 and	 DWORD PTR tv84[ebp], 0
$LN6@Destroy:
  0007b	8b 45 f0	 mov	 eax, DWORD PTR tv84[ebp]
  0007e	89 45 e8	 mov	 DWORD PTR tv85[ebp], eax
  00081	eb 04		 jmp	 SHORT $LN3@Destroy
$LN7@Destroy:
  00083	83 65 e8 00	 and	 DWORD PTR tv85[ebp], 0
$LN3@Destroy:

; 355  : 
; 356  : 	m_pntVtxBuf.Destroy();

  00087	8b 4d fc	 mov	 ecx, DWORD PTR _this$[ebp]
  0008a	83 c1 14	 add	 ecx, 20			; 00000014H
  0008d	e8 00 00 00 00	 call	 ?Destroy@CGraphicVertexBuffer@@QAEXXZ ; CGraphicVertexBuffer::Destroy

; 357  : 	m_idxBuf.Destroy();

  00092	8b 4d fc	 mov	 ecx, DWORD PTR _this$[ebp]
  00095	83 c1 34	 add	 ecx, 52			; 00000034H
  00098	e8 00 00 00 00	 call	 ?Destroy@CGraphicIndexBuffer@@QAEXXZ ; CGraphicIndexBuffer::Destroy

; 358  : 
; 359  : 	Initialize();

  0009d	8b 4d fc	 mov	 ecx, DWORD PTR _this$[ebp]
  000a0	e8 00 00 00 00	 call	 ?Initialize@CGrannyModel@@IAEXXZ ; CGrannyModel::Initialize

; 360  : }

  000a5	c9		 leave
  000a6	c3		 ret	 0
?Destroy@CGrannyModel@@QAEXXZ ENDP			; CGrannyModel::Destroy
_TEXT	ENDS
; Function compile flags: /Odspy
; File D:\Metin2 Server Files\mainline\SRC_2014\Metin2Client\eterGrnLib\Model.cpp
;	COMDAT ?DestroyDeviceObjects@CGrannyModel@@QAEXXZ
_TEXT	SEGMENT
_this$ = -4						; size = 4
?DestroyDeviceObjects@CGrannyModel@@QAEXXZ PROC		; CGrannyModel::DestroyDeviceObjects, COMDAT
; _this$ = ecx

; 333  : {

  00000	55		 push	 ebp
  00001	8b ec		 mov	 ebp, esp
  00003	51		 push	 ecx
  00004	89 4d fc	 mov	 DWORD PTR _this$[ebp], ecx

; 334  : 	m_pntVtxBuf.DestroyDeviceObjects();

  00007	8b 4d fc	 mov	 ecx, DWORD PTR _this$[ebp]
  0000a	83 c1 14	 add	 ecx, 20			; 00000014H
  0000d	e8 00 00 00 00	 call	 ?DestroyDeviceObjects@CGraphicVertexBuffer@@QAEXXZ ; CGraphicVertexBuffer::DestroyDeviceObjects

; 335  : 	m_idxBuf.DestroyDeviceObjects();

  00012	8b 4d fc	 mov	 ecx, DWORD PTR _this$[ebp]
  00015	83 c1 34	 add	 ecx, 52			; 00000034H
  00018	e8 00 00 00 00	 call	 ?DestroyDeviceObjects@CGraphicIndexBuffer@@QAEXXZ ; CGraphicIndexBuffer::DestroyDeviceObjects

; 336  : }

  0001d	c9		 leave
  0001e	c3		 ret	 0
?DestroyDeviceObjects@CGrannyModel@@QAEXXZ ENDP		; CGrannyModel::DestroyDeviceObjects
_TEXT	ENDS
; Function compile flags: /Odspy
; File D:\Metin2 Server Files\mainline\SRC_2014\Metin2Client\eterGrnLib\Model.cpp
;	COMDAT ?CreateDeviceObjects@CGrannyModel@@QAE_NXZ
_TEXT	SEGMENT
_rMesh$1 = -16						; size = 4
_meshCount$ = -12					; size = 4
_i$2 = -8						; size = 4
_this$ = -4						; size = 4
?CreateDeviceObjects@CGrannyModel@@QAE_NXZ PROC		; CGrannyModel::CreateDeviceObjects, COMDAT
; _this$ = ecx

; 312  : {

  00000	55		 push	 ebp
  00001	8b ec		 mov	 ebp, esp
  00003	83 ec 10	 sub	 esp, 16			; 00000010H
  00006	89 4d fc	 mov	 DWORD PTR _this$[ebp], ecx

; 313  : 	if (m_rigidVtxCount > 0)

  00009	8b 45 fc	 mov	 eax, DWORD PTR _this$[ebp]
  0000c	83 78 60 00	 cmp	 DWORD PTR [eax+96], 0
  00010	7e 16		 jle	 SHORT $LN5@CreateDevi

; 314  : 		if (!m_pntVtxBuf.CreateDeviceObjects())

  00012	8b 4d fc	 mov	 ecx, DWORD PTR _this$[ebp]
  00015	83 c1 14	 add	 ecx, 20			; 00000014H
  00018	e8 00 00 00 00	 call	 ?CreateDeviceObjects@CGraphicVertexBuffer@@QAE_NXZ ; CGraphicVertexBuffer::CreateDeviceObjects
  0001d	0f b6 c0	 movzx	 eax, al
  00020	85 c0		 test	 eax, eax
  00022	75 04		 jne	 SHORT $LN5@CreateDevi

; 315  : 			return false;

  00024	32 c0		 xor	 al, al
  00026	eb 58		 jmp	 SHORT $LN1@CreateDevi
$LN5@CreateDevi:

; 316  : 
; 317  : 	if (m_idxCount > 0)

  00028	8b 45 fc	 mov	 eax, DWORD PTR _this$[ebp]
  0002b	83 78 68 00	 cmp	 DWORD PTR [eax+104], 0
  0002f	7e 16		 jle	 SHORT $LN7@CreateDevi

; 318  : 		if (!m_idxBuf.CreateDeviceObjects())

  00031	8b 4d fc	 mov	 ecx, DWORD PTR _this$[ebp]
  00034	83 c1 34	 add	 ecx, 52			; 00000034H
  00037	e8 00 00 00 00	 call	 ?CreateDeviceObjects@CGraphicIndexBuffer@@QAE_NXZ ; CGraphicIndexBuffer::CreateDeviceObjects
  0003c	0f b6 c0	 movzx	 eax, al
  0003f	85 c0		 test	 eax, eax
  00041	75 04		 jne	 SHORT $LN7@CreateDevi

; 319  : 			return false;

  00043	32 c0		 xor	 al, al
  00045	eb 39		 jmp	 SHORT $LN1@CreateDevi
$LN7@CreateDevi:

; 320  : 
; 321  : 	int meshCount = GetMeshCount();

  00047	8b 4d fc	 mov	 ecx, DWORD PTR _this$[ebp]
  0004a	e8 00 00 00 00	 call	 ?GetMeshCount@CGrannyModel@@QBEHXZ ; CGrannyModel::GetMeshCount
  0004f	89 45 f4	 mov	 DWORD PTR _meshCount$[ebp], eax

; 322  : 
; 323  : 	for (int i = 0; i < meshCount; ++i)

  00052	83 65 f8 00	 and	 DWORD PTR _i$2[ebp], 0
  00056	eb 07		 jmp	 SHORT $LN4@CreateDevi
$LN2@CreateDevi:
  00058	8b 45 f8	 mov	 eax, DWORD PTR _i$2[ebp]
  0005b	40		 inc	 eax
  0005c	89 45 f8	 mov	 DWORD PTR _i$2[ebp], eax
$LN4@CreateDevi:
  0005f	8b 45 f8	 mov	 eax, DWORD PTR _i$2[ebp]
  00062	3b 45 f4	 cmp	 eax, DWORD PTR _meshCount$[ebp]
  00065	7d 17		 jge	 SHORT $LN3@CreateDevi

; 324  : 	{
; 325  : 		CGrannyMesh& rMesh = m_meshs[i];

  00067	6b 45 f8 38	 imul	 eax, DWORD PTR _i$2[ebp], 56
  0006b	8b 4d fc	 mov	 ecx, DWORD PTR _this$[ebp]
  0006e	03 41 10	 add	 eax, DWORD PTR [ecx+16]
  00071	89 45 f0	 mov	 DWORD PTR _rMesh$1[ebp], eax

; 326  : 		rMesh.RebuildTriGroupNodeList();

  00074	8b 4d f0	 mov	 ecx, DWORD PTR _rMesh$1[ebp]
  00077	e8 00 00 00 00	 call	 ?RebuildTriGroupNodeList@CGrannyMesh@@QAEXXZ ; CGrannyMesh::RebuildTriGroupNodeList

; 327  : 	}

  0007c	eb da		 jmp	 SHORT $LN2@CreateDevi
$LN3@CreateDevi:

; 328  : 			
; 329  : 	return true;

  0007e	b0 01		 mov	 al, 1
$LN1@CreateDevi:

; 330  : }

  00080	c9		 leave
  00081	c3		 ret	 0
?CreateDeviceObjects@CGrannyModel@@QAE_NXZ ENDP		; CGrannyModel::CreateDeviceObjects
_TEXT	ENDS
; Function compile flags: /Odspy
; File D:\Metin2 Server Files\mainline\SRC_2014\Metin2Client\eterGrnLib\Model.cpp
;	COMDAT ?CreateFromGrannyModelPointer@CGrannyModel@@QAE_NPAUgranny_model@@@Z
_TEXT	SEGMENT
_this$ = -4						; size = 4
_pgrnModel$ = 8						; size = 4
?CreateFromGrannyModelPointer@CGrannyModel@@QAE_NPAUgranny_model@@@Z PROC ; CGrannyModel::CreateFromGrannyModelPointer, COMDAT
; _this$ = ecx

; 287  : {

  00000	55		 push	 ebp
  00001	8b ec		 mov	 ebp, esp
  00003	51		 push	 ecx
  00004	89 4d fc	 mov	 DWORD PTR _this$[ebp], ecx

; 288  : 	assert(IsEmpty());
; 289  : 
; 290  : 	m_pgrnModel = pgrnModel;

  00007	8b 45 fc	 mov	 eax, DWORD PTR _this$[ebp]
  0000a	8b 4d 08	 mov	 ecx, DWORD PTR _pgrnModel$[ebp]
  0000d	89 48 0c	 mov	 DWORD PTR [eax+12], ecx

; 291  : 
; 292  : 	if (!LoadMeshs())

  00010	8b 4d fc	 mov	 ecx, DWORD PTR _this$[ebp]
  00013	e8 00 00 00 00	 call	 ?LoadMeshs@CGrannyModel@@IAE_NXZ ; CGrannyModel::LoadMeshs
  00018	0f b6 c0	 movzx	 eax, al
  0001b	85 c0		 test	 eax, eax
  0001d	75 04		 jne	 SHORT $LN2@CreateFrom

; 293  : 		return false;

  0001f	32 c0		 xor	 al, al
  00021	eb 30		 jmp	 SHORT $LN1@CreateFrom
$LN2@CreateFrom:

; 294  : 
; 295  : 	if (!__LoadVertices())

  00023	8b 4d fc	 mov	 ecx, DWORD PTR _this$[ebp]
  00026	e8 00 00 00 00	 call	 ?__LoadVertices@CGrannyModel@@IAE_NXZ ; CGrannyModel::__LoadVertices
  0002b	0f b6 c0	 movzx	 eax, al
  0002e	85 c0		 test	 eax, eax
  00030	75 04		 jne	 SHORT $LN3@CreateFrom

; 296  : 		return false;

  00032	32 c0		 xor	 al, al
  00034	eb 1d		 jmp	 SHORT $LN1@CreateFrom
$LN3@CreateFrom:

; 297  : 
; 298  : 	if (!LoadIndices())

  00036	8b 4d fc	 mov	 ecx, DWORD PTR _this$[ebp]
  00039	e8 00 00 00 00	 call	 ?LoadIndices@CGrannyModel@@IAE_NXZ ; CGrannyModel::LoadIndices
  0003e	0f b6 c0	 movzx	 eax, al
  00041	85 c0		 test	 eax, eax
  00043	75 04		 jne	 SHORT $LN4@CreateFrom

; 299  : 		return false;

  00045	32 c0		 xor	 al, al
  00047	eb 0a		 jmp	 SHORT $LN1@CreateFrom
$LN4@CreateFrom:

; 300  : 
; 301  : 	AddReference();

  00049	8b 4d fc	 mov	 ecx, DWORD PTR _this$[ebp]
  0004c	e8 00 00 00 00	 call	 ?AddReference@CReferenceObject@@QAEXXZ ; CReferenceObject::AddReference

; 302  : 
; 303  : 	return true;

  00051	b0 01		 mov	 al, 1
$LN1@CreateFrom:

; 304  : }

  00053	c9		 leave
  00054	c2 04 00	 ret	 4
?CreateFromGrannyModelPointer@CGrannyModel@@QAE_NPAUgranny_model@@@Z ENDP ; CGrannyModel::CreateFromGrannyModelPointer
_TEXT	ENDS
; Function compile flags: /Odspy
; File D:\Metin2 Server Files\mainline\SRC_2014\Metin2Client\eterGrnLib\Model.cpp
;	COMDAT ?IsEmpty@CGrannyModel@@QBE_NXZ
_TEXT	SEGMENT
_this$ = -4						; size = 4
?IsEmpty@CGrannyModel@@QBE_NXZ PROC			; CGrannyModel::IsEmpty, COMDAT
; _this$ = ecx

; 339  : {

  00000	55		 push	 ebp
  00001	8b ec		 mov	 ebp, esp
  00003	51		 push	 ecx
  00004	89 4d fc	 mov	 DWORD PTR _this$[ebp], ecx

; 340  : 	if (m_pgrnModel)

  00007	8b 45 fc	 mov	 eax, DWORD PTR _this$[ebp]
  0000a	83 78 0c 00	 cmp	 DWORD PTR [eax+12], 0
  0000e	74 04		 je	 SHORT $LN2@IsEmpty

; 341  : 		return false;

  00010	32 c0		 xor	 al, al
  00012	eb 02		 jmp	 SHORT $LN1@IsEmpty
$LN2@IsEmpty:

; 342  : 
; 343  : 	return true;

  00014	b0 01		 mov	 al, 1
$LN1@IsEmpty:

; 344  : }

  00016	c9		 leave
  00017	c3		 ret	 0
?IsEmpty@CGrannyModel@@QBE_NXZ ENDP			; CGrannyModel::IsEmpty
_TEXT	ENDS
; Function compile flags: /Odspy
; File D:\Metin2 Server Files\mainline\SRC_2014\Metin2Client\eterGrnLib\Model.cpp
;	COMDAT ??1CGrannyModel@@UAE@XZ
_TEXT	SEGMENT
_this$ = -16						; size = 4
__$EHRec$ = -12						; size = 12
??1CGrannyModel@@UAE@XZ PROC				; CGrannyModel::~CGrannyModel, COMDAT
; _this$ = ecx

; 417  : {

  00000	55		 push	 ebp
  00001	8b ec		 mov	 ebp, esp
  00003	6a ff		 push	 -1
  00005	68 00 00 00 00	 push	 __ehhandler$??1CGrannyModel@@UAE@XZ
  0000a	64 a1 00 00 00
	00		 mov	 eax, DWORD PTR fs:0
  00010	50		 push	 eax
  00011	51		 push	 ecx
  00012	a1 00 00 00 00	 mov	 eax, DWORD PTR ___security_cookie
  00017	33 c5		 xor	 eax, ebp
  00019	50		 push	 eax
  0001a	8d 45 f4	 lea	 eax, DWORD PTR __$EHRec$[ebp]
  0001d	64 a3 00 00 00
	00		 mov	 DWORD PTR fs:0, eax
  00023	89 4d f0	 mov	 DWORD PTR _this$[ebp], ecx
  00026	8b 45 f0	 mov	 eax, DWORD PTR _this$[ebp]
  00029	c7 00 00 00 00
	00		 mov	 DWORD PTR [eax], OFFSET ??_7CGrannyModel@@6B@

; 418  : 	Destroy();

  0002f	8b 4d f0	 mov	 ecx, DWORD PTR _this$[ebp]
  00032	e8 00 00 00 00	 call	 ?Destroy@CGrannyModel@@QAEXXZ ; CGrannyModel::Destroy

; 419  : }

  00037	8b 4d f0	 mov	 ecx, DWORD PTR _this$[ebp]
  0003a	83 c1 78	 add	 ecx, 120		; 00000078H
  0003d	e8 00 00 00 00	 call	 ??1CGrannyMaterialPalette@@UAE@XZ ; CGrannyMaterialPalette::~CGrannyMaterialPalette
  00042	8b 4d f0	 mov	 ecx, DWORD PTR _this$[ebp]
  00045	83 c1 34	 add	 ecx, 52			; 00000034H
  00048	e8 00 00 00 00	 call	 ??1CGraphicIndexBuffer@@UAE@XZ ; CGraphicIndexBuffer::~CGraphicIndexBuffer
  0004d	8b 4d f0	 mov	 ecx, DWORD PTR _this$[ebp]
  00050	83 c1 14	 add	 ecx, 20			; 00000014H
  00053	e8 00 00 00 00	 call	 ??1CGraphicVertexBuffer@@UAE@XZ ; CGraphicVertexBuffer::~CGraphicVertexBuffer
  00058	8b 4d f0	 mov	 ecx, DWORD PTR _this$[ebp]
  0005b	e8 00 00 00 00	 call	 ??1CReferenceObject@@UAE@XZ ; CReferenceObject::~CReferenceObject
  00060	8b 4d f4	 mov	 ecx, DWORD PTR __$EHRec$[ebp]
  00063	64 89 0d 00 00
	00 00		 mov	 DWORD PTR fs:0, ecx
  0006a	59		 pop	 ecx
  0006b	c9		 leave
  0006c	c3		 ret	 0
  0006d	cc		 int	 3
  0006e	cc		 int	 3
  0006f	cc		 int	 3
  00070	cc		 int	 3
  00071	cc		 int	 3
_TEXT	ENDS
;	COMDAT text$x
text$x	SEGMENT
__ehhandler$??1CGrannyModel@@UAE@XZ:
  00000	90		 npad	 1
  00001	90		 npad	 1
  00002	8b 54 24 08	 mov	 edx, DWORD PTR [esp+8]
  00006	8d 42 0c	 lea	 eax, DWORD PTR [edx+12]
  00009	8b 4a f8	 mov	 ecx, DWORD PTR [edx-8]
  0000c	33 c8		 xor	 ecx, eax
  0000e	e8 00 00 00 00	 call	 @__security_check_cookie@4
  00013	b8 00 00 00 00	 mov	 eax, OFFSET __ehfuncinfo$??1CGrannyModel@@UAE@XZ
  00018	e9 00 00 00 00	 jmp	 ___CxxFrameHandler3
text$x	ENDS
??1CGrannyModel@@UAE@XZ ENDP				; CGrannyModel::~CGrannyModel
; Function compile flags: /Odspy
; File D:\Metin2 Server Files\mainline\SRC_2014\Metin2Client\eterGrnLib\Model.cpp
;	COMDAT ??0CGrannyModel@@QAE@XZ
_TEXT	SEGMENT
_this$ = -16						; size = 4
__$EHRec$ = -12						; size = 12
??0CGrannyModel@@QAE@XZ PROC				; CGrannyModel::CGrannyModel, COMDAT
; _this$ = ecx

; 412  : {

  00000	55		 push	 ebp
  00001	8b ec		 mov	 ebp, esp
  00003	6a ff		 push	 -1
  00005	68 00 00 00 00	 push	 __ehhandler$??0CGrannyModel@@QAE@XZ
  0000a	64 a1 00 00 00
	00		 mov	 eax, DWORD PTR fs:0
  00010	50		 push	 eax
  00011	51		 push	 ecx
  00012	a1 00 00 00 00	 mov	 eax, DWORD PTR ___security_cookie
  00017	33 c5		 xor	 eax, ebp
  00019	50		 push	 eax
  0001a	8d 45 f4	 lea	 eax, DWORD PTR __$EHRec$[ebp]
  0001d	64 a3 00 00 00
	00		 mov	 DWORD PTR fs:0, eax
  00023	89 4d f0	 mov	 DWORD PTR _this$[ebp], ecx
  00026	8b 4d f0	 mov	 ecx, DWORD PTR _this$[ebp]
  00029	e8 00 00 00 00	 call	 ??0CReferenceObject@@QAE@XZ ; CReferenceObject::CReferenceObject
  0002e	83 65 fc 00	 and	 DWORD PTR __$EHRec$[ebp+8], 0
  00032	8b 45 f0	 mov	 eax, DWORD PTR _this$[ebp]
  00035	c7 00 00 00 00
	00		 mov	 DWORD PTR [eax], OFFSET ??_7CGrannyModel@@6B@
  0003b	8b 4d f0	 mov	 ecx, DWORD PTR _this$[ebp]
  0003e	83 c1 14	 add	 ecx, 20			; 00000014H
  00041	e8 00 00 00 00	 call	 ??0CGraphicVertexBuffer@@QAE@XZ ; CGraphicVertexBuffer::CGraphicVertexBuffer
  00046	c6 45 fc 01	 mov	 BYTE PTR __$EHRec$[ebp+8], 1
  0004a	8b 4d f0	 mov	 ecx, DWORD PTR _this$[ebp]
  0004d	83 c1 34	 add	 ecx, 52			; 00000034H
  00050	e8 00 00 00 00	 call	 ??0CGraphicIndexBuffer@@QAE@XZ ; CGraphicIndexBuffer::CGraphicIndexBuffer
  00055	c6 45 fc 02	 mov	 BYTE PTR __$EHRec$[ebp+8], 2
  00059	8b 4d f0	 mov	 ecx, DWORD PTR _this$[ebp]
  0005c	83 c1 78	 add	 ecx, 120		; 00000078H
  0005f	e8 00 00 00 00	 call	 ??0CGrannyMaterialPalette@@QAE@XZ ; CGrannyMaterialPalette::CGrannyMaterialPalette
  00064	c6 45 fc 03	 mov	 BYTE PTR __$EHRec$[ebp+8], 3

; 413  : 	Initialize();

  00068	8b 4d f0	 mov	 ecx, DWORD PTR _this$[ebp]
  0006b	e8 00 00 00 00	 call	 ?Initialize@CGrannyModel@@IAEXXZ ; CGrannyModel::Initialize

; 414  : }

  00070	83 4d fc ff	 or	 DWORD PTR __$EHRec$[ebp+8], -1
  00074	8b 45 f0	 mov	 eax, DWORD PTR _this$[ebp]
  00077	8b 4d f4	 mov	 ecx, DWORD PTR __$EHRec$[ebp]
  0007a	64 89 0d 00 00
	00 00		 mov	 DWORD PTR fs:0, ecx
  00081	59		 pop	 ecx
  00082	c9		 leave
  00083	c3		 ret	 0
_TEXT	ENDS
;	COMDAT text$x
text$x	SEGMENT
__unwindfunclet$??0CGrannyModel@@QAE@XZ$0:
  00000	8b 4d f0	 mov	 ecx, DWORD PTR _this$[ebp]
  00003	e9 00 00 00 00	 jmp	 ??1CReferenceObject@@UAE@XZ ; CReferenceObject::~CReferenceObject
__unwindfunclet$??0CGrannyModel@@QAE@XZ$1:
  00008	8b 4d f0	 mov	 ecx, DWORD PTR _this$[ebp]
  0000b	83 c1 14	 add	 ecx, 20			; 00000014H
  0000e	e9 00 00 00 00	 jmp	 ??1CGraphicVertexBuffer@@UAE@XZ ; CGraphicVertexBuffer::~CGraphicVertexBuffer
__unwindfunclet$??0CGrannyModel@@QAE@XZ$2:
  00013	8b 4d f0	 mov	 ecx, DWORD PTR _this$[ebp]
  00016	83 c1 34	 add	 ecx, 52			; 00000034H
  00019	e9 00 00 00 00	 jmp	 ??1CGraphicIndexBuffer@@UAE@XZ ; CGraphicIndexBuffer::~CGraphicIndexBuffer
__unwindfunclet$??0CGrannyModel@@QAE@XZ$3:
  0001e	8b 4d f0	 mov	 ecx, DWORD PTR _this$[ebp]
  00021	83 c1 78	 add	 ecx, 120		; 00000078H
  00024	e9 00 00 00 00	 jmp	 ??1CGrannyMaterialPalette@@UAE@XZ ; CGrannyMaterialPalette::~CGrannyMaterialPalette
  00029	cc		 int	 3
  0002a	cc		 int	 3
  0002b	cc		 int	 3
  0002c	cc		 int	 3
  0002d	cc		 int	 3
__ehhandler$??0CGrannyModel@@QAE@XZ:
  0002e	90		 npad	 1
  0002f	90		 npad	 1
  00030	8b 54 24 08	 mov	 edx, DWORD PTR [esp+8]
  00034	8d 42 0c	 lea	 eax, DWORD PTR [edx+12]
  00037	8b 4a f8	 mov	 ecx, DWORD PTR [edx-8]
  0003a	33 c8		 xor	 ecx, eax
  0003c	e8 00 00 00 00	 call	 @__security_check_cookie@4
  00041	b8 00 00 00 00	 mov	 eax, OFFSET __ehfuncinfo$??0CGrannyModel@@QAE@XZ
  00046	e9 00 00 00 00	 jmp	 ___CxxFrameHandler3
text$x	ENDS
??0CGrannyModel@@QAE@XZ ENDP				; CGrannyModel::CGrannyModel
; Function compile flags: /Odspy
;	COMDAT ??_ECGrannyMesh@@UAEPAXI@Z
_TEXT	SEGMENT
_this$ = -16						; size = 4
__$EHRec$ = -12						; size = 12
___flags$ = 8						; size = 4
??_ECGrannyMesh@@UAEPAXI@Z PROC				; CGrannyMesh::`vector deleting destructor', COMDAT
; _this$ = ecx
  00000	55		 push	 ebp
  00001	8b ec		 mov	 ebp, esp
  00003	6a ff		 push	 -1
  00005	68 00 00 00 00	 push	 __ehhandler$??_ECGrannyMesh@@UAEPAXI@Z
  0000a	64 a1 00 00 00
	00		 mov	 eax, DWORD PTR fs:0
  00010	50		 push	 eax
  00011	51		 push	 ecx
  00012	a1 00 00 00 00	 mov	 eax, DWORD PTR ___security_cookie
  00017	33 c5		 xor	 eax, ebp
  00019	50		 push	 eax
  0001a	8d 45 f4	 lea	 eax, DWORD PTR __$EHRec$[ebp]
  0001d	64 a3 00 00 00
	00		 mov	 DWORD PTR fs:0, eax
  00023	89 4d f0	 mov	 DWORD PTR _this$[ebp], ecx
  00026	8b 45 08	 mov	 eax, DWORD PTR ___flags$[ebp]
  00029	83 e0 02	 and	 eax, 2
  0002c	74 3e		 je	 SHORT $LN2@vector
  0002e	68 00 00 00 00	 push	 OFFSET ??1CGrannyMesh@@UAE@XZ ; CGrannyMesh::~CGrannyMesh
  00033	8b 45 f0	 mov	 eax, DWORD PTR _this$[ebp]
  00036	ff 70 fc	 push	 DWORD PTR [eax-4]
  00039	6a 38		 push	 56			; 00000038H
  0003b	ff 75 f0	 push	 DWORD PTR _this$[ebp]
  0003e	e8 00 00 00 00	 call	 ??_M@YGXPAXIIP6EX0@Z@Z
  00043	8b 45 08	 mov	 eax, DWORD PTR ___flags$[ebp]
  00046	83 e0 01	 and	 eax, 1
  00049	74 19		 je	 SHORT $LN3@vector
  0004b	8b 45 f0	 mov	 eax, DWORD PTR _this$[ebp]
  0004e	6b 40 fc 38	 imul	 eax, DWORD PTR [eax-4], 56
  00052	83 c0 04	 add	 eax, 4
  00055	50		 push	 eax
  00056	8b 45 f0	 mov	 eax, DWORD PTR _this$[ebp]
  00059	83 e8 04	 sub	 eax, 4
  0005c	50		 push	 eax
  0005d	e8 00 00 00 00	 call	 ??_V@YAXPAXI@Z		; operator delete[]
  00062	59		 pop	 ecx
  00063	59		 pop	 ecx
$LN3@vector:
  00064	8b 45 f0	 mov	 eax, DWORD PTR _this$[ebp]
  00067	83 e8 04	 sub	 eax, 4
  0006a	eb 1f		 jmp	 SHORT $LN5@vector
$LN2@vector:
  0006c	8b 4d f0	 mov	 ecx, DWORD PTR _this$[ebp]
  0006f	e8 00 00 00 00	 call	 ??1CGrannyMesh@@UAE@XZ	; CGrannyMesh::~CGrannyMesh
  00074	8b 45 08	 mov	 eax, DWORD PTR ___flags$[ebp]
  00077	83 e0 01	 and	 eax, 1
  0007a	74 0c		 je	 SHORT $LN4@vector
  0007c	6a 38		 push	 56			; 00000038H
  0007e	ff 75 f0	 push	 DWORD PTR _this$[ebp]
  00081	e8 00 00 00 00	 call	 ??3@YAXPAXI@Z		; operator delete
  00086	59		 pop	 ecx
  00087	59		 pop	 ecx
$LN4@vector:
  00088	8b 45 f0	 mov	 eax, DWORD PTR _this$[ebp]
$LN5@vector:
  0008b	8b 4d f4	 mov	 ecx, DWORD PTR __$EHRec$[ebp]
  0008e	64 89 0d 00 00
	00 00		 mov	 DWORD PTR fs:0, ecx
  00095	59		 pop	 ecx
  00096	c9		 leave
  00097	c2 04 00	 ret	 4
  0009a	cc		 int	 3
  0009b	cc		 int	 3
  0009c	cc		 int	 3
  0009d	cc		 int	 3
  0009e	cc		 int	 3
_TEXT	ENDS
;	COMDAT text$x
text$x	SEGMENT
__ehhandler$??_ECGrannyMesh@@UAEPAXI@Z:
  00000	90		 npad	 1
  00001	90		 npad	 1
  00002	8b 54 24 08	 mov	 edx, DWORD PTR [esp+8]
  00006	8d 42 0c	 lea	 eax, DWORD PTR [edx+12]
  00009	8b 4a f8	 mov	 ecx, DWORD PTR [edx-8]
  0000c	33 c8		 xor	 ecx, eax
  0000e	e8 00 00 00 00	 call	 @__security_check_cookie@4
  00013	b8 00 00 00 00	 mov	 eax, OFFSET __ehfuncinfo$??_ECGrannyMesh@@UAEPAXI@Z
  00018	e9 00 00 00 00	 jmp	 ___CxxFrameHandler3
text$x	ENDS
??_ECGrannyMesh@@UAEPAXI@Z ENDP				; CGrannyMesh::`vector deleting destructor'
END
