; Listing generated by Microsoft (R) Optimizing Compiler Version 19.28.29335.0 

	TITLE	D:\Metin2 Server Files\mainline\SRC_2014\Metin2Client\eterGrnLib\ModelInstanceModel.cpp
	.686P
	.XMM
	include listing.inc
	.model	flat

INCLUDELIB LIBCMT
INCLUDELIB OLDNAMES

PUBLIC	??_H@YGXPAXIIP6EPAX0@Z@Z			; `vector constructor iterator'
PUBLIC	??0exception@std@@QAE@ABV01@@Z			; std::exception::exception
PUBLIC	?what@exception@std@@UBEPBDXZ			; std::exception::what
PUBLIC	??_Gexception@std@@UAEPAXI@Z			; std::exception::`scalar deleting destructor'
PUBLIC	??0bad_alloc@std@@QAE@ABV01@@Z			; std::bad_alloc::bad_alloc
PUBLIC	??_Gbad_alloc@std@@UAEPAXI@Z			; std::bad_alloc::`scalar deleting destructor'
PUBLIC	??0bad_array_new_length@std@@QAE@XZ		; std::bad_array_new_length::bad_array_new_length
PUBLIC	??1bad_array_new_length@std@@UAE@XZ		; std::bad_array_new_length::~bad_array_new_length
PUBLIC	??0bad_array_new_length@std@@QAE@ABV01@@Z	; std::bad_array_new_length::bad_array_new_length
PUBLIC	??_Gbad_array_new_length@std@@UAEPAXI@Z		; std::bad_array_new_length::`scalar deleting destructor'
PUBLIC	?_Throw_bad_array_new_length@std@@YAXXZ		; std::_Throw_bad_array_new_length
PUBLIC	?_Adjust_manually_vector_aligned@std@@YAXAAPAXAAI@Z ; std::_Adjust_manually_vector_aligned
PUBLIC	?Clear@CGrannyModelInstance@@QAEXXZ		; CGrannyModelInstance::Clear
PUBLIC	?SetMainModelPointer@CGrannyModelInstance@@QAEXPAVCGrannyModel@@PAVCGraphicVertexBuffer@@@Z ; CGrannyModelInstance::SetMainModelPointer
PUBLIC	?SetLinkedModelPointer@CGrannyModelInstance@@QAEXPAVCGrannyModel@@PAVCGraphicVertexBuffer@@PAPAV1@@Z ; CGrannyModelInstance::SetLinkedModelPointer
PUBLIC	?GetDeformableVertexCount@CGrannyModelInstance@@QAEKXZ ; CGrannyModelInstance::GetDeformableVertexCount
PUBLIC	?GetVertexCount@CGrannyModelInstance@@QAEKXZ	; CGrannyModelInstance::GetVertexCount
PUBLIC	?GetBoneMatrixPointer@CGrannyModelInstance@@QBEPBMH@Z ; CGrannyModelInstance::GetBoneMatrixPointer
PUBLIC	?GetCompositeBoneMatrixPointer@CGrannyModelInstance@@QBEPBMH@Z ; CGrannyModelInstance::GetCompositeBoneMatrixPointer
PUBLIC	?GetBoneIndexByName@CGrannyModelInstance@@QBE_NPBDPAH@Z ; CGrannyModelInstance::GetBoneIndexByName
PUBLIC	?ReloadTexture@CGrannyModelInstance@@QAEXXZ	; CGrannyModelInstance::ReloadTexture
PUBLIC	?__DestroyModelInstance@CGrannyModelInstance@@IAEXXZ ; CGrannyModelInstance::__DestroyModelInstance
PUBLIC	?__DestroyMeshMatrices@CGrannyModelInstance@@IAEXXZ ; CGrannyModelInstance::__DestroyMeshMatrices
PUBLIC	?__DestroyDynamicVertexBuffer@CGrannyModelInstance@@IAEXXZ ; CGrannyModelInstance::__DestroyDynamicVertexBuffer
PUBLIC	?__CreateModelInstance@CGrannyModelInstance@@IAEXXZ ; CGrannyModelInstance::__CreateModelInstance
PUBLIC	?__CreateMeshMatrices@CGrannyModelInstance@@IAEXXZ ; CGrannyModelInstance::__CreateMeshMatrices
PUBLIC	?__CreateDynamicVertexBuffer@CGrannyModelInstance@@IAEXXZ ; CGrannyModelInstance::__CreateDynamicVertexBuffer
PUBLIC	?__DestroyWorldPose@CGrannyModelInstance@@IAEXXZ ; CGrannyModelInstance::__DestroyWorldPose
PUBLIC	?__CreateWorldPose@CGrannyModelInstance@@IAEXPAV1@@Z ; CGrannyModelInstance::__CreateWorldPose
PUBLIC	?__CreateMeshBindingVector@CGrannyModelInstance@@IAE_NPAV1@@Z ; CGrannyModelInstance::__CreateMeshBindingVector
PUBLIC	?__DestroyMeshBindingVector@CGrannyModelInstance@@IAEXXZ ; CGrannyModelInstance::__DestroyMeshBindingVector
PUBLIC	?__GetMeshBoneIndices@CGrannyModelInstance@@IBEPAHI@Z ; CGrannyModelInstance::__GetMeshBoneIndices
PUBLIC	?__IsDeformableVertexBuffer@CGrannyModelInstance@@IAE_NXZ ; CGrannyModelInstance::__IsDeformableVertexBuffer
PUBLIC	?__SetSharedDeformableVertexBuffer@CGrannyModelInstance@@IAEXPAVCGraphicVertexBuffer@@@Z ; CGrannyModelInstance::__SetSharedDeformableVertexBuffer
PUBLIC	?__GetDeformableD3DVertexBufferPtr@CGrannyModelInstance@@IAEPAUIDirect3DVertexBuffer8@@XZ ; CGrannyModelInstance::__GetDeformableD3DVertexBufferPtr
PUBLIC	?__GetDeformableVertexBufferRef@CGrannyModelInstance@@IAEAAVCGraphicVertexBuffer@@XZ ; CGrannyModelInstance::__GetDeformableVertexBufferRef
PUBLIC	?__GetWorldPosePtr@CGrannyModelInstance@@IBEPAUgranny_world_pose@@XZ ; CGrannyModelInstance::__GetWorldPosePtr
PUBLIC	?deallocate@?$allocator@PAUgranny_mesh_binding@@@std@@QAEXQAPAUgranny_mesh_binding@@I@Z ; std::allocator<granny_mesh_binding *>::deallocate
PUBLIC	?_Reallocate_exactly@?$vector@PAUgranny_mesh_binding@@V?$allocator@PAUgranny_mesh_binding@@@std@@@std@@AAEXI@Z ; std::vector<granny_mesh_binding *,std::allocator<granny_mesh_binding *> >::_Reallocate_exactly
PUBLIC	?reserve@?$vector@PAUgranny_mesh_binding@@V?$allocator@PAUgranny_mesh_binding@@@std@@@std@@QAEXI@Z ; std::vector<granny_mesh_binding *,std::allocator<granny_mesh_binding *> >::reserve
PUBLIC	?clear@?$vector@PAUgranny_mesh_binding@@V?$allocator@PAUgranny_mesh_binding@@@std@@@std@@QAEXXZ ; std::vector<granny_mesh_binding *,std::allocator<granny_mesh_binding *> >::clear
PUBLIC	?_Destroy@?$vector@PAUgranny_mesh_binding@@V?$allocator@PAUgranny_mesh_binding@@@std@@@std@@AAEXPAPAUgranny_mesh_binding@@0@Z ; std::vector<granny_mesh_binding *,std::allocator<granny_mesh_binding *> >::_Destroy
PUBLIC	?_Calculate_growth@?$vector@PAUgranny_mesh_binding@@V?$allocator@PAUgranny_mesh_binding@@@std@@@std@@ABEII@Z ; std::vector<granny_mesh_binding *,std::allocator<granny_mesh_binding *> >::_Calculate_growth
PUBLIC	?_Change_array@?$vector@PAUgranny_mesh_binding@@V?$allocator@PAUgranny_mesh_binding@@@std@@@std@@AAEXQAPAUgranny_mesh_binding@@II@Z ; std::vector<granny_mesh_binding *,std::allocator<granny_mesh_binding *> >::_Change_array
PUBLIC	?_Xlength@?$vector@PAUgranny_mesh_binding@@V?$allocator@PAUgranny_mesh_binding@@@std@@@std@@CAXXZ ; std::vector<granny_mesh_binding *,std::allocator<granny_mesh_binding *> >::_Xlength
PUBLIC	?_Getal@?$vector@PAUgranny_mesh_binding@@V?$allocator@PAUgranny_mesh_binding@@@std@@@std@@AAEAAV?$allocator@PAUgranny_mesh_binding@@@2@XZ ; std::vector<granny_mesh_binding *,std::allocator<granny_mesh_binding *> >::_Getal
PUBLIC	??$emplace_back@PAUgranny_mesh_binding@@@?$vector@PAUgranny_mesh_binding@@V?$allocator@PAUgranny_mesh_binding@@@std@@@std@@QAEX$$QAPAUgranny_mesh_binding@@@Z ; std::vector<granny_mesh_binding *,std::allocator<granny_mesh_binding *> >::emplace_back<granny_mesh_binding *>
PUBLIC	??$_Emplace_back_with_unused_capacity@PAUgranny_mesh_binding@@@?$vector@PAUgranny_mesh_binding@@V?$allocator@PAUgranny_mesh_binding@@@std@@@std@@AAEX$$QAPAUgranny_mesh_binding@@@Z ; std::vector<granny_mesh_binding *,std::allocator<granny_mesh_binding *> >::_Emplace_back_with_unused_capacity<granny_mesh_binding *>
PUBLIC	??$_Emplace_reallocate@PAUgranny_mesh_binding@@@?$vector@PAUgranny_mesh_binding@@V?$allocator@PAUgranny_mesh_binding@@@std@@@std@@QAEPAPAUgranny_mesh_binding@@QAPAU2@$$QAPAU2@@Z ; std::vector<granny_mesh_binding *,std::allocator<granny_mesh_binding *> >::_Emplace_reallocate<granny_mesh_binding *>
PUBLIC	??$_Destroy_range@V?$allocator@PAUgranny_mesh_binding@@@std@@@std@@YAXPAPAUgranny_mesh_binding@@QAPAU1@AAV?$allocator@PAUgranny_mesh_binding@@@0@@Z ; std::_Destroy_range<std::allocator<granny_mesh_binding *> >
PUBLIC	??$_Allocate@$07U_Default_allocate_traits@std@@$0A@@std@@YAPAXI@Z ; std::_Allocate<8,std::_Default_allocate_traits,0>
PUBLIC	??$_Deallocate@$07$0A@@std@@YAXPAXI@Z		; std::_Deallocate<8,0>
PUBLIC	??$_Uninitialized_move@PAPAUgranny_mesh_binding@@V?$allocator@PAUgranny_mesh_binding@@@std@@@std@@YAPAPAUgranny_mesh_binding@@QAPAU1@0PAPAU1@AAV?$allocator@PAUgranny_mesh_binding@@@0@@Z ; std::_Uninitialized_move<granny_mesh_binding * *,std::allocator<granny_mesh_binding *> >
PUBLIC	??$_Allocate_manually_vector_aligned@U_Default_allocate_traits@std@@@std@@YAPAXI@Z ; std::_Allocate_manually_vector_aligned<std::_Default_allocate_traits>
PUBLIC	??$_Copy_memmove@PAPAUgranny_mesh_binding@@PAPAU1@@std@@YAPAPAUgranny_mesh_binding@@PAPAU1@00@Z ; std::_Copy_memmove<granny_mesh_binding * *,granny_mesh_binding * *>
PUBLIC	??_7exception@std@@6B@				; std::exception::`vftable'
PUBLIC	??_C@_0BC@EOODALEL@Unknown?5exception@		; `string'
PUBLIC	??_7bad_alloc@std@@6B@				; std::bad_alloc::`vftable'
PUBLIC	??_7bad_array_new_length@std@@6B@		; std::bad_array_new_length::`vftable'
PUBLIC	??_C@_0BF@KINCDENJ@bad?5array?5new?5length@	; `string'
PUBLIC	__TI3?AVbad_array_new_length@std@@
PUBLIC	__CTA3?AVbad_array_new_length@std@@
PUBLIC	??_R0?AVbad_array_new_length@std@@@8		; std::bad_array_new_length `RTTI Type Descriptor'
PUBLIC	__CT??_R0?AVbad_array_new_length@std@@@8??0bad_array_new_length@std@@QAE@ABV01@@Z12
PUBLIC	??_R0?AVbad_alloc@std@@@8			; std::bad_alloc `RTTI Type Descriptor'
PUBLIC	__CT??_R0?AVbad_alloc@std@@@8??0bad_alloc@std@@QAE@ABV01@@Z12
PUBLIC	??_R0?AVexception@std@@@8			; std::exception `RTTI Type Descriptor'
PUBLIC	__CT??_R0?AVexception@std@@@8??0exception@std@@QAE@ABV01@@Z12
PUBLIC	??_C@_0BA@FOIKENOD@vector?5too?5long@		; `string'
PUBLIC	??_R4exception@std@@6B@				; std::exception::`RTTI Complete Object Locator'
PUBLIC	??_R3exception@std@@8				; std::exception::`RTTI Class Hierarchy Descriptor'
PUBLIC	??_R2exception@std@@8				; std::exception::`RTTI Base Class Array'
PUBLIC	??_R1A@?0A@EA@exception@std@@8			; std::exception::`RTTI Base Class Descriptor at (0,-1,0,64)'
PUBLIC	??_R4bad_alloc@std@@6B@				; std::bad_alloc::`RTTI Complete Object Locator'
PUBLIC	??_R3bad_alloc@std@@8				; std::bad_alloc::`RTTI Class Hierarchy Descriptor'
PUBLIC	??_R2bad_alloc@std@@8				; std::bad_alloc::`RTTI Base Class Array'
PUBLIC	??_R1A@?0A@EA@bad_alloc@std@@8			; std::bad_alloc::`RTTI Base Class Descriptor at (0,-1,0,64)'
PUBLIC	??_R4bad_array_new_length@std@@6B@		; std::bad_array_new_length::`RTTI Complete Object Locator'
PUBLIC	??_R3bad_array_new_length@std@@8		; std::bad_array_new_length::`RTTI Class Hierarchy Descriptor'
PUBLIC	??_R2bad_array_new_length@std@@8		; std::bad_array_new_length::`RTTI Base Class Array'
PUBLIC	??_R1A@?0A@EA@bad_array_new_length@std@@8	; std::bad_array_new_length::`RTTI Base Class Descriptor at (0,-1,0,64)'
EXTRN	??2@YAPAXI@Z:PROC				; operator new
EXTRN	??3@YAXPAXI@Z:PROC				; operator delete
EXTRN	??_U@YAPAXI@Z:PROC				; operator new[]
EXTRN	??_V@YAXPAX@Z:PROC				; operator delete[]
EXTRN	__imp__GrannyInstantiateModel@4:PROC
EXTRN	__imp__GrannyFreeModelInstance@4:PROC
EXTRN	__imp__GrannyGetSourceSkeleton@4:PROC
EXTRN	__imp__GrannyNewMeshBinding@12:PROC
EXTRN	__imp__GrannyFreeMeshBinding@4:PROC
EXTRN	__imp__GrannyGetMeshBindingToBoneIndices@4:PROC
EXTRN	__imp__GrannyFindBoneByName@12:PROC
EXTRN	__imp__GrannyNewWorldPose@4:PROC
EXTRN	__imp__GrannyFreeWorldPose@4:PROC
EXTRN	__imp__GrannyGetWorldPose4x4@8:PROC
EXTRN	__imp__GrannyGetWorldPoseComposite4x4@8:PROC
EXTRN	__invalid_parameter_noinfo_noreturn:PROC
EXTRN	_memmove:PROC
EXTRN	___std_exception_copy:PROC
EXTRN	___std_exception_destroy:PROC
EXTRN	??_Eexception@std@@UAEPAXI@Z:PROC		; std::exception::`vector deleting destructor'
EXTRN	??_Ebad_alloc@std@@UAEPAXI@Z:PROC		; std::bad_alloc::`vector deleting destructor'
EXTRN	??_Ebad_array_new_length@std@@UAEPAXI@Z:PROC	; std::bad_array_new_length::`vector deleting destructor'
EXTRN	?_Xlength_error@std@@YAXPBD@Z:PROC		; std::_Xlength_error
EXTRN	?AddReference@CReferenceObject@@QAEXXZ:PROC	; CReferenceObject::AddReference
EXTRN	?Release@CReferenceObject@@QAEXXZ:PROC		; CReferenceObject::Release
EXTRN	?Destroy@CGraphicVertexBuffer@@QAEXXZ:PROC	; CGraphicVertexBuffer::Destroy
EXTRN	?IsEmpty@CGraphicVertexBuffer@@QBE_NXZ:PROC	; CGraphicVertexBuffer::IsEmpty
EXTRN	?Clear@CGrannyMaterialPalette@@QAEXXZ:PROC	; CGrannyMaterialPalette::Clear
EXTRN	?Copy@CGrannyMaterialPalette@@QAEXABV1@@Z:PROC	; CGrannyMaterialPalette::Copy
EXTRN	?GetDeformVertexCount@CGrannyModel@@QBEHXZ:PROC	; CGrannyModel::GetDeformVertexCount
EXTRN	?GetVertexCount@CGrannyModel@@QBEHXZ:PROC	; CGrannyModel::GetVertexCount
EXTRN	?GetMeshCount@CGrannyModel@@QBEHXZ:PROC		; CGrannyModel::GetMeshCount
EXTRN	?GetGrannyModelPointer@CGrannyModel@@QAEPAUgranny_model@@XZ:PROC ; CGrannyModel::GetGrannyModelPointer
EXTRN	?GetMaterialPalette@CGrannyModel@@QBEABVCGrannyMaterialPalette@@XZ:PROC ; CGrannyModel::GetMaterialPalette
EXTRN	?DestroyDeviceObjects@CGrannyModelInstance@@QAEXXZ:PROC ; CGrannyModelInstance::DestroyDeviceObjects
EXTRN	?ResetLocalTime@CGrannyModelInstance@@QAEHXZ:PROC ; CGrannyModelInstance::ResetLocalTime
EXTRN	?__Initialize@CGrannyModelInstance@@IAEXXZ:PROC	; CGrannyModelInstance::__Initialize
EXTRN	@__security_check_cookie@4:PROC
EXTRN	__CxxThrowException@8:PROC
EXTRN	___CxxFrameHandler3:PROC
EXTRN	??_7type_info@@6B@:QWORD			; type_info::`vftable'
EXTRN	___security_cookie:DWORD
;	COMDAT ??_R1A@?0A@EA@bad_array_new_length@std@@8
rdata$r	SEGMENT
??_R1A@?0A@EA@bad_array_new_length@std@@8 DD FLAT:??_R0?AVbad_array_new_length@std@@@8 ; std::bad_array_new_length::`RTTI Base Class Descriptor at (0,-1,0,64)'
	DD	02H
	DD	00H
	DD	0ffffffffH
	DD	00H
	DD	040H
	DD	FLAT:??_R3bad_array_new_length@std@@8
rdata$r	ENDS
;	COMDAT ??_R2bad_array_new_length@std@@8
rdata$r	SEGMENT
??_R2bad_array_new_length@std@@8 DD FLAT:??_R1A@?0A@EA@bad_array_new_length@std@@8 ; std::bad_array_new_length::`RTTI Base Class Array'
	DD	FLAT:??_R1A@?0A@EA@bad_alloc@std@@8
	DD	FLAT:??_R1A@?0A@EA@exception@std@@8
rdata$r	ENDS
;	COMDAT ??_R3bad_array_new_length@std@@8
rdata$r	SEGMENT
??_R3bad_array_new_length@std@@8 DD 00H			; std::bad_array_new_length::`RTTI Class Hierarchy Descriptor'
	DD	00H
	DD	03H
	DD	FLAT:??_R2bad_array_new_length@std@@8
rdata$r	ENDS
;	COMDAT ??_R4bad_array_new_length@std@@6B@
rdata$r	SEGMENT
??_R4bad_array_new_length@std@@6B@ DD 00H		; std::bad_array_new_length::`RTTI Complete Object Locator'
	DD	00H
	DD	00H
	DD	FLAT:??_R0?AVbad_array_new_length@std@@@8
	DD	FLAT:??_R3bad_array_new_length@std@@8
rdata$r	ENDS
;	COMDAT ??_R1A@?0A@EA@bad_alloc@std@@8
rdata$r	SEGMENT
??_R1A@?0A@EA@bad_alloc@std@@8 DD FLAT:??_R0?AVbad_alloc@std@@@8 ; std::bad_alloc::`RTTI Base Class Descriptor at (0,-1,0,64)'
	DD	01H
	DD	00H
	DD	0ffffffffH
	DD	00H
	DD	040H
	DD	FLAT:??_R3bad_alloc@std@@8
rdata$r	ENDS
;	COMDAT ??_R2bad_alloc@std@@8
rdata$r	SEGMENT
??_R2bad_alloc@std@@8 DD FLAT:??_R1A@?0A@EA@bad_alloc@std@@8 ; std::bad_alloc::`RTTI Base Class Array'
	DD	FLAT:??_R1A@?0A@EA@exception@std@@8
rdata$r	ENDS
;	COMDAT ??_R3bad_alloc@std@@8
rdata$r	SEGMENT
??_R3bad_alloc@std@@8 DD 00H				; std::bad_alloc::`RTTI Class Hierarchy Descriptor'
	DD	00H
	DD	02H
	DD	FLAT:??_R2bad_alloc@std@@8
rdata$r	ENDS
;	COMDAT ??_R4bad_alloc@std@@6B@
rdata$r	SEGMENT
??_R4bad_alloc@std@@6B@ DD 00H				; std::bad_alloc::`RTTI Complete Object Locator'
	DD	00H
	DD	00H
	DD	FLAT:??_R0?AVbad_alloc@std@@@8
	DD	FLAT:??_R3bad_alloc@std@@8
rdata$r	ENDS
;	COMDAT ??_R1A@?0A@EA@exception@std@@8
rdata$r	SEGMENT
??_R1A@?0A@EA@exception@std@@8 DD FLAT:??_R0?AVexception@std@@@8 ; std::exception::`RTTI Base Class Descriptor at (0,-1,0,64)'
	DD	00H
	DD	00H
	DD	0ffffffffH
	DD	00H
	DD	040H
	DD	FLAT:??_R3exception@std@@8
rdata$r	ENDS
;	COMDAT ??_R2exception@std@@8
rdata$r	SEGMENT
??_R2exception@std@@8 DD FLAT:??_R1A@?0A@EA@exception@std@@8 ; std::exception::`RTTI Base Class Array'
rdata$r	ENDS
;	COMDAT ??_R3exception@std@@8
rdata$r	SEGMENT
??_R3exception@std@@8 DD 00H				; std::exception::`RTTI Class Hierarchy Descriptor'
	DD	00H
	DD	01H
	DD	FLAT:??_R2exception@std@@8
rdata$r	ENDS
;	COMDAT ??_R4exception@std@@6B@
rdata$r	SEGMENT
??_R4exception@std@@6B@ DD 00H				; std::exception::`RTTI Complete Object Locator'
	DD	00H
	DD	00H
	DD	FLAT:??_R0?AVexception@std@@@8
	DD	FLAT:??_R3exception@std@@8
rdata$r	ENDS
;	COMDAT ??_C@_0BA@FOIKENOD@vector?5too?5long@
CONST	SEGMENT
??_C@_0BA@FOIKENOD@vector?5too?5long@ DB 'vector too long', 00H ; `string'
CONST	ENDS
;	COMDAT __CT??_R0?AVexception@std@@@8??0exception@std@@QAE@ABV01@@Z12
xdata$x	SEGMENT
__CT??_R0?AVexception@std@@@8??0exception@std@@QAE@ABV01@@Z12 DD 00H
	DD	FLAT:??_R0?AVexception@std@@@8
	DD	00H
	DD	0ffffffffH
	ORG $+4
	DD	0cH
	DD	FLAT:??0exception@std@@QAE@ABV01@@Z
xdata$x	ENDS
;	COMDAT ??_R0?AVexception@std@@@8
data$r	SEGMENT
??_R0?AVexception@std@@@8 DD FLAT:??_7type_info@@6B@	; std::exception `RTTI Type Descriptor'
	DD	00H
	DB	'.?AVexception@std@@', 00H
data$r	ENDS
;	COMDAT __CT??_R0?AVbad_alloc@std@@@8??0bad_alloc@std@@QAE@ABV01@@Z12
xdata$x	SEGMENT
__CT??_R0?AVbad_alloc@std@@@8??0bad_alloc@std@@QAE@ABV01@@Z12 DD 010H
	DD	FLAT:??_R0?AVbad_alloc@std@@@8
	DD	00H
	DD	0ffffffffH
	ORG $+4
	DD	0cH
	DD	FLAT:??0bad_alloc@std@@QAE@ABV01@@Z
xdata$x	ENDS
;	COMDAT ??_R0?AVbad_alloc@std@@@8
data$r	SEGMENT
??_R0?AVbad_alloc@std@@@8 DD FLAT:??_7type_info@@6B@	; std::bad_alloc `RTTI Type Descriptor'
	DD	00H
	DB	'.?AVbad_alloc@std@@', 00H
data$r	ENDS
;	COMDAT __CT??_R0?AVbad_array_new_length@std@@@8??0bad_array_new_length@std@@QAE@ABV01@@Z12
xdata$x	SEGMENT
__CT??_R0?AVbad_array_new_length@std@@@8??0bad_array_new_length@std@@QAE@ABV01@@Z12 DD 00H
	DD	FLAT:??_R0?AVbad_array_new_length@std@@@8
	DD	00H
	DD	0ffffffffH
	ORG $+4
	DD	0cH
	DD	FLAT:??0bad_array_new_length@std@@QAE@ABV01@@Z
xdata$x	ENDS
;	COMDAT ??_R0?AVbad_array_new_length@std@@@8
data$r	SEGMENT
??_R0?AVbad_array_new_length@std@@@8 DD FLAT:??_7type_info@@6B@ ; std::bad_array_new_length `RTTI Type Descriptor'
	DD	00H
	DB	'.?AVbad_array_new_length@std@@', 00H
data$r	ENDS
;	COMDAT __CTA3?AVbad_array_new_length@std@@
xdata$x	SEGMENT
__CTA3?AVbad_array_new_length@std@@ DD 03H
	DD	FLAT:__CT??_R0?AVbad_array_new_length@std@@@8??0bad_array_new_length@std@@QAE@ABV01@@Z12
	DD	FLAT:__CT??_R0?AVbad_alloc@std@@@8??0bad_alloc@std@@QAE@ABV01@@Z12
	DD	FLAT:__CT??_R0?AVexception@std@@@8??0exception@std@@QAE@ABV01@@Z12
xdata$x	ENDS
;	COMDAT __TI3?AVbad_array_new_length@std@@
xdata$x	SEGMENT
__TI3?AVbad_array_new_length@std@@ DD 00H
	DD	FLAT:??1bad_array_new_length@std@@UAE@XZ
	DD	00H
	DD	FLAT:__CTA3?AVbad_array_new_length@std@@
xdata$x	ENDS
;	COMDAT ??_C@_0BF@KINCDENJ@bad?5array?5new?5length@
CONST	SEGMENT
??_C@_0BF@KINCDENJ@bad?5array?5new?5length@ DB 'bad array new length', 00H ; `string'
CONST	ENDS
;	COMDAT ??_7bad_array_new_length@std@@6B@
CONST	SEGMENT
??_7bad_array_new_length@std@@6B@ DD FLAT:??_R4bad_array_new_length@std@@6B@ ; std::bad_array_new_length::`vftable'
	DD	FLAT:??_Ebad_array_new_length@std@@UAEPAXI@Z
	DD	FLAT:?what@exception@std@@UBEPBDXZ
CONST	ENDS
;	COMDAT ??_7bad_alloc@std@@6B@
CONST	SEGMENT
??_7bad_alloc@std@@6B@ DD FLAT:??_R4bad_alloc@std@@6B@	; std::bad_alloc::`vftable'
	DD	FLAT:??_Ebad_alloc@std@@UAEPAXI@Z
	DD	FLAT:?what@exception@std@@UBEPBDXZ
CONST	ENDS
;	COMDAT ??_C@_0BC@EOODALEL@Unknown?5exception@
CONST	SEGMENT
??_C@_0BC@EOODALEL@Unknown?5exception@ DB 'Unknown exception', 00H ; `string'
CONST	ENDS
;	COMDAT ??_7exception@std@@6B@
CONST	SEGMENT
??_7exception@std@@6B@ DD FLAT:??_R4exception@std@@6B@	; std::exception::`vftable'
	DD	FLAT:??_Eexception@std@@UAEPAXI@Z
	DD	FLAT:?what@exception@std@@UBEPBDXZ
CONST	ENDS
;	COMDAT xdata$x
xdata$x	SEGMENT
__ehfuncinfo$??$_Deallocate@$07$0A@@std@@YAXPAXI@Z DD 019930522H
	DD	00H
	DD	00H
	DD	2 DUP(00H)
	DD	2 DUP(00H)
	DD	00H
	DD	05H
xdata$x	ENDS
;	COMDAT xdata$x
xdata$x	SEGMENT
__catchsym$??$_Emplace_reallocate@PAUgranny_mesh_binding@@@?$vector@PAUgranny_mesh_binding@@V?$allocator@PAUgranny_mesh_binding@@@std@@@std@@QAEPAPAUgranny_mesh_binding@@QAPAU2@$$QAPAU2@@Z$32 DD 040H
	DD	00H
	DD	00H
	DD	FLAT:__catch$??$_Emplace_reallocate@PAUgranny_mesh_binding@@@?$vector@PAUgranny_mesh_binding@@V?$allocator@PAUgranny_mesh_binding@@@std@@@std@@QAEPAPAUgranny_mesh_binding@@QAPAU2@$$QAPAU2@@Z$0
__unwindtable$??$_Emplace_reallocate@PAUgranny_mesh_binding@@@?$vector@PAUgranny_mesh_binding@@V?$allocator@PAUgranny_mesh_binding@@@std@@@std@@QAEPAPAUgranny_mesh_binding@@QAPAU2@$$QAPAU2@@Z DD 0ffffffffH
	DD	00H
	DD	0ffffffffH
	DD	00H
__tryblocktable$??$_Emplace_reallocate@PAUgranny_mesh_binding@@@?$vector@PAUgranny_mesh_binding@@V?$allocator@PAUgranny_mesh_binding@@@std@@@std@@QAEPAPAUgranny_mesh_binding@@QAPAU2@$$QAPAU2@@Z DD 00H
	DD	00H
	DD	01H
	DD	01H
	DD	FLAT:__catchsym$??$_Emplace_reallocate@PAUgranny_mesh_binding@@@?$vector@PAUgranny_mesh_binding@@V?$allocator@PAUgranny_mesh_binding@@@std@@@std@@QAEPAPAUgranny_mesh_binding@@QAPAU2@$$QAPAU2@@Z$32
__ehfuncinfo$??$_Emplace_reallocate@PAUgranny_mesh_binding@@@?$vector@PAUgranny_mesh_binding@@V?$allocator@PAUgranny_mesh_binding@@@std@@@std@@QAEPAPAUgranny_mesh_binding@@QAPAU2@$$QAPAU2@@Z DD 019930522H
	DD	02H
	DD	FLAT:__unwindtable$??$_Emplace_reallocate@PAUgranny_mesh_binding@@@?$vector@PAUgranny_mesh_binding@@V?$allocator@PAUgranny_mesh_binding@@@std@@@std@@QAEPAPAUgranny_mesh_binding@@QAPAU2@$$QAPAU2@@Z
	DD	01H
	DD	FLAT:__tryblocktable$??$_Emplace_reallocate@PAUgranny_mesh_binding@@@?$vector@PAUgranny_mesh_binding@@V?$allocator@PAUgranny_mesh_binding@@@std@@@std@@QAEPAPAUgranny_mesh_binding@@QAPAU2@$$QAPAU2@@Z
	DD	2 DUP(00H)
	DD	00H
	DD	01H
xdata$x	ENDS
;	COMDAT xdata$x
xdata$x	SEGMENT
__catchsym$?_Reallocate_exactly@?$vector@PAUgranny_mesh_binding@@V?$allocator@PAUgranny_mesh_binding@@@std@@@std@@AAEXI@Z$11 DD 040H
	DD	00H
	DD	00H
	DD	FLAT:__catch$?_Reallocate_exactly@?$vector@PAUgranny_mesh_binding@@V?$allocator@PAUgranny_mesh_binding@@@std@@@std@@AAEXI@Z$0
__unwindtable$?_Reallocate_exactly@?$vector@PAUgranny_mesh_binding@@V?$allocator@PAUgranny_mesh_binding@@@std@@@std@@AAEXI@Z DD 0ffffffffH
	DD	00H
	DD	0ffffffffH
	DD	00H
__tryblocktable$?_Reallocate_exactly@?$vector@PAUgranny_mesh_binding@@V?$allocator@PAUgranny_mesh_binding@@@std@@@std@@AAEXI@Z DD 00H
	DD	00H
	DD	01H
	DD	01H
	DD	FLAT:__catchsym$?_Reallocate_exactly@?$vector@PAUgranny_mesh_binding@@V?$allocator@PAUgranny_mesh_binding@@@std@@@std@@AAEXI@Z$11
__ehfuncinfo$?_Reallocate_exactly@?$vector@PAUgranny_mesh_binding@@V?$allocator@PAUgranny_mesh_binding@@@std@@@std@@AAEXI@Z DD 019930522H
	DD	02H
	DD	FLAT:__unwindtable$?_Reallocate_exactly@?$vector@PAUgranny_mesh_binding@@V?$allocator@PAUgranny_mesh_binding@@@std@@@std@@AAEXI@Z
	DD	01H
	DD	FLAT:__tryblocktable$?_Reallocate_exactly@?$vector@PAUgranny_mesh_binding@@V?$allocator@PAUgranny_mesh_binding@@@std@@@std@@AAEXI@Z
	DD	2 DUP(00H)
	DD	00H
	DD	01H
xdata$x	ENDS
; Function compile flags: /Odspy
; File C:\Program Files (x86)\Microsoft Visual Studio\2019\Community\VC\Tools\MSVC\14.28.29333\include\xutility
;	COMDAT ??$_Copy_memmove@PAPAUgranny_mesh_binding@@PAPAU1@@std@@YAPAPAUgranny_mesh_binding@@PAPAU1@00@Z
_TEXT	SEGMENT
__Last_ch$ = -16					; size = 4
__Count$ = -12						; size = 4
__Dest_ch$ = -8						; size = 4
__First_ch$ = -4					; size = 4
__First$ = 8						; size = 4
__Last$ = 12						; size = 4
__Dest$ = 16						; size = 4
??$_Copy_memmove@PAPAUgranny_mesh_binding@@PAPAU1@@std@@YAPAPAUgranny_mesh_binding@@PAPAU1@00@Z PROC ; std::_Copy_memmove<granny_mesh_binding * *,granny_mesh_binding * *>, COMDAT

; 4360 : _OutIt _Copy_memmove(_InIt _First, _InIt _Last, _OutIt _Dest) {

  00000	55		 push	 ebp
  00001	8b ec		 mov	 ebp, esp
  00003	83 ec 10	 sub	 esp, 16			; 00000010H

; 4361 :     const char* const _First_ch = const_cast<const char*>(reinterpret_cast<const volatile char*>(_First));

  00006	8b 45 08	 mov	 eax, DWORD PTR __First$[ebp]
  00009	89 45 fc	 mov	 DWORD PTR __First_ch$[ebp], eax

; 4362 :     const char* const _Last_ch  = const_cast<const char*>(reinterpret_cast<const volatile char*>(_Last));

  0000c	8b 45 0c	 mov	 eax, DWORD PTR __Last$[ebp]
  0000f	89 45 f0	 mov	 DWORD PTR __Last_ch$[ebp], eax

; 4363 :     char* const _Dest_ch        = const_cast<char*>(reinterpret_cast<volatile char*>(_Dest));

  00012	8b 45 10	 mov	 eax, DWORD PTR __Dest$[ebp]
  00015	89 45 f8	 mov	 DWORD PTR __Dest_ch$[ebp], eax

; 4364 :     const auto _Count           = static_cast<size_t>(_Last_ch - _First_ch);

  00018	8b 45 f0	 mov	 eax, DWORD PTR __Last_ch$[ebp]
  0001b	2b 45 fc	 sub	 eax, DWORD PTR __First_ch$[ebp]
  0001e	89 45 f4	 mov	 DWORD PTR __Count$[ebp], eax

; 4365 :     _CSTD memmove(_Dest_ch, _First_ch, _Count);

  00021	ff 75 f4	 push	 DWORD PTR __Count$[ebp]
  00024	ff 75 fc	 push	 DWORD PTR __First_ch$[ebp]
  00027	ff 75 f8	 push	 DWORD PTR __Dest_ch$[ebp]
  0002a	e8 00 00 00 00	 call	 _memmove
  0002f	83 c4 0c	 add	 esp, 12			; 0000000cH

; 4366 :     return reinterpret_cast<_OutIt>(_Dest_ch + _Count);

  00032	8b 45 f8	 mov	 eax, DWORD PTR __Dest_ch$[ebp]
  00035	03 45 f4	 add	 eax, DWORD PTR __Count$[ebp]

; 4367 : }

  00038	c9		 leave
  00039	c3		 ret	 0
??$_Copy_memmove@PAPAUgranny_mesh_binding@@PAPAU1@@std@@YAPAPAUgranny_mesh_binding@@PAPAU1@00@Z ENDP ; std::_Copy_memmove<granny_mesh_binding * *,granny_mesh_binding * *>
_TEXT	ENDS
; Function compile flags: /Odspy
; File C:\Program Files (x86)\Microsoft Visual Studio\2019\Community\VC\Tools\MSVC\14.28.29333\include\xmemory
;	COMDAT ??$_Allocate_manually_vector_aligned@U_Default_allocate_traits@std@@@std@@YAPAXI@Z
_TEXT	SEGMENT
__Ptr$ = -12						; size = 4
__Block_size$ = -8					; size = 4
__Ptr_container$ = -4					; size = 4
__Bytes$ = 8						; size = 4
??$_Allocate_manually_vector_aligned@U_Default_allocate_traits@std@@@std@@YAPAXI@Z PROC ; std::_Allocate_manually_vector_aligned<std::_Default_allocate_traits>, COMDAT

; 113  : __declspec(allocator) void* _Allocate_manually_vector_aligned(const size_t _Bytes) {

  00000	55		 push	 ebp
  00001	8b ec		 mov	 ebp, esp
  00003	83 ec 0c	 sub	 esp, 12			; 0000000cH

; 114  :     // allocate _Bytes manually aligned to at least _Big_allocation_alignment
; 115  :     const size_t _Block_size = _Non_user_size + _Bytes;

  00006	8b 45 08	 mov	 eax, DWORD PTR __Bytes$[ebp]
  00009	83 c0 23	 add	 eax, 35			; 00000023H
  0000c	89 45 f8	 mov	 DWORD PTR __Block_size$[ebp], eax

; 116  :     if (_Block_size <= _Bytes) {

  0000f	8b 45 f8	 mov	 eax, DWORD PTR __Block_size$[ebp]
  00012	3b 45 08	 cmp	 eax, DWORD PTR __Bytes$[ebp]
  00015	77 05		 ja	 SHORT $LN12@Allocate_m

; 117  :         _Throw_bad_array_new_length(); // add overflow

  00017	e8 00 00 00 00	 call	 ?_Throw_bad_array_new_length@std@@YAXXZ ; std::_Throw_bad_array_new_length
$LN12@Allocate_m:

; 77   :         return ::operator new(_Bytes);

  0001c	ff 75 f8	 push	 DWORD PTR __Block_size$[ebp]
  0001f	e8 00 00 00 00	 call	 ??2@YAPAXI@Z		; operator new
  00024	59		 pop	 ecx

; 118  :     }
; 119  : 
; 120  :     const uintptr_t _Ptr_container = reinterpret_cast<uintptr_t>(_Traits::_Allocate(_Block_size));

  00025	89 45 fc	 mov	 DWORD PTR __Ptr_container$[ebp], eax
$LN4@Allocate_m:

; 121  :     _STL_VERIFY(_Ptr_container != 0, "invalid argument"); // validate even in release since we're doing p[-1]

  00028	83 7d fc 00	 cmp	 DWORD PTR __Ptr_container$[ebp], 0
  0002c	74 02		 je	 SHORT $LN7@Allocate_m
  0002e	eb 09		 jmp	 SHORT $LN2@Allocate_m
$LN7@Allocate_m:
  00030	e8 00 00 00 00	 call	 __invalid_parameter_noinfo_noreturn
  00035	33 c0		 xor	 eax, eax
  00037	75 f7		 jne	 SHORT $LN7@Allocate_m
$LN2@Allocate_m:
  00039	33 c0		 xor	 eax, eax
  0003b	75 eb		 jne	 SHORT $LN4@Allocate_m

; 122  :     void* const _Ptr = reinterpret_cast<void*>((_Ptr_container + _Non_user_size) & ~(_Big_allocation_alignment - 1));

  0003d	8b 45 fc	 mov	 eax, DWORD PTR __Ptr_container$[ebp]
  00040	83 c0 23	 add	 eax, 35			; 00000023H
  00043	83 e0 e0	 and	 eax, -32		; ffffffe0H
  00046	89 45 f4	 mov	 DWORD PTR __Ptr$[ebp], eax

; 123  :     static_cast<uintptr_t*>(_Ptr)[-1] = _Ptr_container;

  00049	6a 04		 push	 4
  0004b	58		 pop	 eax
  0004c	6b c0 ff	 imul	 eax, eax, -1
  0004f	8b 4d f4	 mov	 ecx, DWORD PTR __Ptr$[ebp]
  00052	8b 55 fc	 mov	 edx, DWORD PTR __Ptr_container$[ebp]
  00055	89 14 01	 mov	 DWORD PTR [ecx+eax], edx

; 124  : 
; 125  : #ifdef _DEBUG
; 126  :     static_cast<uintptr_t*>(_Ptr)[-2] = _Big_allocation_sentinel;
; 127  : #endif // _DEBUG
; 128  :     return _Ptr;

  00058	8b 45 f4	 mov	 eax, DWORD PTR __Ptr$[ebp]
$LN11@Allocate_m:

; 129  : }

  0005b	c9		 leave
  0005c	c3		 ret	 0
??$_Allocate_manually_vector_aligned@U_Default_allocate_traits@std@@@std@@YAPAXI@Z ENDP ; std::_Allocate_manually_vector_aligned<std::_Default_allocate_traits>
_TEXT	ENDS
; Function compile flags: /Odspy
; File C:\Program Files (x86)\Microsoft Visual Studio\2019\Community\VC\Tools\MSVC\14.28.29333\include\xmemory
; File C:\Program Files (x86)\Microsoft Visual Studio\2019\Community\VC\Tools\MSVC\14.28.29333\include\xstddef
; File C:\Program Files (x86)\Microsoft Visual Studio\2019\Community\VC\Tools\MSVC\14.28.29333\include\xmemory
;	COMDAT ??$_Uninitialized_move@PAPAUgranny_mesh_binding@@V?$allocator@PAUgranny_mesh_binding@@@std@@@std@@YAPAPAUgranny_mesh_binding@@QAPAU1@0PAPAU1@AAV?$allocator@PAUgranny_mesh_binding@@@0@@Z
_TEXT	SEGMENT
$T1 = -12						; size = 4
__UFirst$ = -8						; size = 4
__ULast$ = -4						; size = 4
__First$ = 8						; size = 4
__Last$ = 12						; size = 4
__Dest$ = 16						; size = 4
__Al$ = 20						; size = 4
??$_Uninitialized_move@PAPAUgranny_mesh_binding@@V?$allocator@PAUgranny_mesh_binding@@@std@@@std@@YAPAPAUgranny_mesh_binding@@QAPAU1@0PAPAU1@AAV?$allocator@PAUgranny_mesh_binding@@@0@@Z PROC ; std::_Uninitialized_move<granny_mesh_binding * *,std::allocator<granny_mesh_binding *> >, COMDAT

; 1685 :     const _InIt _First, const _InIt _Last, _Alloc_ptr_t<_Alloc> _Dest, _Alloc& _Al) {

  00000	55		 push	 ebp
  00001	8b ec		 mov	 ebp, esp
  00003	83 ec 0c	 sub	 esp, 12			; 0000000cH

; 1686 :     // move [_First, _Last) to raw _Dest, using _Al
; 1687 :     // note: only called internally from elsewhere in the STL
; 1688 :     using _Ptrval     = typename _Alloc::value_type*;
; 1689 :     auto _UFirst      = _Get_unwrapped(_First);

  00006	8b 45 08	 mov	 eax, DWORD PTR __First$[ebp]
  00009	89 45 f8	 mov	 DWORD PTR __UFirst$[ebp], eax

; 1690 :     const auto _ULast = _Get_unwrapped(_Last);

  0000c	8b 45 0c	 mov	 eax, DWORD PTR __Last$[ebp]
  0000f	89 45 fc	 mov	 DWORD PTR __ULast$[ebp], eax
; File C:\Program Files (x86)\Microsoft Visual Studio\2019\Community\VC\Tools\MSVC\14.28.29333\include\xstddef

; 289  :     return _Ptr;

  00012	8b 45 10	 mov	 eax, DWORD PTR __Dest$[ebp]
  00015	89 45 f4	 mov	 DWORD PTR $T1[ebp], eax
; File C:\Program Files (x86)\Microsoft Visual Studio\2019\Community\VC\Tools\MSVC\14.28.29333\include\xmemory

; 1693 :         _Copy_memmove(_UFirst, _ULast, _Unfancy(_Dest));

  00018	ff 75 f4	 push	 DWORD PTR $T1[ebp]
  0001b	ff 75 fc	 push	 DWORD PTR __ULast$[ebp]
  0001e	ff 75 f8	 push	 DWORD PTR __UFirst$[ebp]
  00021	e8 00 00 00 00	 call	 ??$_Copy_memmove@PAPAUgranny_mesh_binding@@PAPAU1@@std@@YAPAPAUgranny_mesh_binding@@PAPAU1@00@Z ; std::_Copy_memmove<granny_mesh_binding * *,granny_mesh_binding * *>
  00026	83 c4 0c	 add	 esp, 12			; 0000000cH

; 1694 :         return _Dest + (_ULast - _UFirst);

  00029	8b 45 fc	 mov	 eax, DWORD PTR __ULast$[ebp]
  0002c	2b 45 f8	 sub	 eax, DWORD PTR __UFirst$[ebp]
  0002f	c1 f8 02	 sar	 eax, 2
  00032	8b 4d 10	 mov	 ecx, DWORD PTR __Dest$[ebp]
  00035	8d 04 81	 lea	 eax, DWORD PTR [ecx+eax*4]

; 1695 :     } else {
; 1696 :         _Uninitialized_backout_al<_Alloc> _Backout{_Dest, _Al};
; 1697 :         for (; _UFirst != _ULast; ++_UFirst) {
; 1698 :             _Backout._Emplace_back(_STD move(*_UFirst));
; 1699 :         }
; 1700 : 
; 1701 :         return _Backout._Release();
; 1702 :     }
; 1703 : }

  00038	c9		 leave
  00039	c3		 ret	 0
??$_Uninitialized_move@PAPAUgranny_mesh_binding@@V?$allocator@PAUgranny_mesh_binding@@@std@@@std@@YAPAPAUgranny_mesh_binding@@QAPAU1@0PAPAU1@AAV?$allocator@PAUgranny_mesh_binding@@@0@@Z ENDP ; std::_Uninitialized_move<granny_mesh_binding * *,std::allocator<granny_mesh_binding *> >
_TEXT	ENDS
; Function compile flags: /Odspy
; File C:\Program Files (x86)\Microsoft Visual Studio\2019\Community\VC\Tools\MSVC\14.28.29333\include\xmemory
;	COMDAT ??$_Deallocate@$07$0A@@std@@YAXPAXI@Z
_TEXT	SEGMENT
__$EHRec$ = -12						; size = 12
__Ptr$ = 8						; size = 4
__Bytes$ = 12						; size = 4
??$_Deallocate@$07$0A@@std@@YAXPAXI@Z PROC		; std::_Deallocate<8,0>, COMDAT

; 213  : void _Deallocate(void* _Ptr, size_t _Bytes) noexcept {

  00000	55		 push	 ebp
  00001	8b ec		 mov	 ebp, esp
  00003	6a ff		 push	 -1
  00005	68 00 00 00 00	 push	 __ehhandler$??$_Deallocate@$07$0A@@std@@YAXPAXI@Z
  0000a	64 a1 00 00 00
	00		 mov	 eax, DWORD PTR fs:0
  00010	50		 push	 eax
  00011	a1 00 00 00 00	 mov	 eax, DWORD PTR ___security_cookie
  00016	33 c5		 xor	 eax, ebp
  00018	50		 push	 eax
  00019	8d 45 f4	 lea	 eax, DWORD PTR __$EHRec$[ebp]
  0001c	64 a3 00 00 00
	00		 mov	 DWORD PTR fs:0, eax

; 214  :     // deallocate storage allocated by _Allocate when !_HAS_ALIGNED_NEW || _Align <= __STDCPP_DEFAULT_NEW_ALIGNMENT__
; 215  : #if defined(_M_IX86) || defined(_M_X64)
; 216  :     if (_Bytes >= _Big_allocation_threshold) { // boost the alignment of big allocations to help autovectorization

  00022	81 7d 0c 00 10
	00 00		 cmp	 DWORD PTR __Bytes$[ebp], 4096 ; 00001000H
  00029	72 0f		 jb	 SHORT $LN2@Deallocate

; 217  :         _Adjust_manually_vector_aligned(_Ptr, _Bytes);

  0002b	8d 45 0c	 lea	 eax, DWORD PTR __Bytes$[ebp]
  0002e	50		 push	 eax
  0002f	8d 45 08	 lea	 eax, DWORD PTR __Ptr$[ebp]
  00032	50		 push	 eax
  00033	e8 00 00 00 00	 call	 ?_Adjust_manually_vector_aligned@std@@YAXAAPAXAAI@Z ; std::_Adjust_manually_vector_aligned
  00038	59		 pop	 ecx
  00039	59		 pop	 ecx
$LN2@Deallocate:

; 218  :     }
; 219  : #endif // defined(_M_IX86) || defined(_M_X64)
; 220  : 
; 221  :     ::operator delete(_Ptr, _Bytes);

  0003a	ff 75 0c	 push	 DWORD PTR __Bytes$[ebp]
  0003d	ff 75 08	 push	 DWORD PTR __Ptr$[ebp]
  00040	e8 00 00 00 00	 call	 ??3@YAXPAXI@Z		; operator delete
  00045	59		 pop	 ecx
  00046	59		 pop	 ecx

; 222  : }

  00047	8b 4d f4	 mov	 ecx, DWORD PTR __$EHRec$[ebp]
  0004a	64 89 0d 00 00
	00 00		 mov	 DWORD PTR fs:0, ecx
  00051	59		 pop	 ecx
  00052	c9		 leave
  00053	c3		 ret	 0
  00054	cc		 int	 3
  00055	cc		 int	 3
  00056	cc		 int	 3
  00057	cc		 int	 3
  00058	cc		 int	 3
_TEXT	ENDS
;	COMDAT text$x
text$x	SEGMENT
__ehhandler$??$_Deallocate@$07$0A@@std@@YAXPAXI@Z:
  00000	90		 npad	 1
  00001	90		 npad	 1
  00002	8b 54 24 08	 mov	 edx, DWORD PTR [esp+8]
  00006	8d 42 0c	 lea	 eax, DWORD PTR [edx+12]
  00009	8b 4a fc	 mov	 ecx, DWORD PTR [edx-4]
  0000c	33 c8		 xor	 ecx, eax
  0000e	e8 00 00 00 00	 call	 @__security_check_cookie@4
  00013	b8 00 00 00 00	 mov	 eax, OFFSET __ehfuncinfo$??$_Deallocate@$07$0A@@std@@YAXPAXI@Z
  00018	e9 00 00 00 00	 jmp	 ___CxxFrameHandler3
text$x	ENDS
??$_Deallocate@$07$0A@@std@@YAXPAXI@Z ENDP		; std::_Deallocate<8,0>
; Function compile flags: /Odspy
; File C:\Program Files (x86)\Microsoft Visual Studio\2019\Community\VC\Tools\MSVC\14.28.29333\include\xmemory
;	COMDAT ??$_Allocate@$07U_Default_allocate_traits@std@@$0A@@std@@YAPAXI@Z
_TEXT	SEGMENT
__Bytes$ = 8						; size = 4
??$_Allocate@$07U_Default_allocate_traits@std@@$0A@@std@@YAPAXI@Z PROC ; std::_Allocate<8,std::_Default_allocate_traits,0>, COMDAT

; 197  : __declspec(allocator) void* _Allocate(const size_t _Bytes) {

  00000	55		 push	 ebp
  00001	8b ec		 mov	 ebp, esp

; 198  :     // allocate _Bytes when !_HAS_ALIGNED_NEW || _Align <= __STDCPP_DEFAULT_NEW_ALIGNMENT__
; 199  : #if defined(_M_IX86) || defined(_M_X64)
; 200  :     if (_Bytes >= _Big_allocation_threshold) { // boost the alignment of big allocations to help autovectorization

  00003	81 7d 08 00 10
	00 00		 cmp	 DWORD PTR __Bytes$[ebp], 4096 ; 00001000H
  0000a	72 0b		 jb	 SHORT $LN2@Allocate

; 201  :         return _Allocate_manually_vector_aligned<_Traits>(_Bytes);

  0000c	ff 75 08	 push	 DWORD PTR __Bytes$[ebp]
  0000f	e8 00 00 00 00	 call	 ??$_Allocate_manually_vector_aligned@U_Default_allocate_traits@std@@@std@@YAPAXI@Z ; std::_Allocate_manually_vector_aligned<std::_Default_allocate_traits>
  00014	59		 pop	 ecx
  00015	eb 13		 jmp	 SHORT $LN1@Allocate
$LN2@Allocate:

; 202  :     }
; 203  : #endif // defined(_M_IX86) || defined(_M_X64)
; 204  : 
; 205  :     if (_Bytes != 0) {

  00017	83 7d 08 00	 cmp	 DWORD PTR __Bytes$[ebp], 0
  0001b	74 0b		 je	 SHORT $LN3@Allocate

; 77   :         return ::operator new(_Bytes);

  0001d	ff 75 08	 push	 DWORD PTR __Bytes$[ebp]
  00020	e8 00 00 00 00	 call	 ??2@YAPAXI@Z		; operator new
  00025	59		 pop	 ecx

; 206  :         return _Traits::_Allocate(_Bytes);

  00026	eb 02		 jmp	 SHORT $LN1@Allocate
$LN3@Allocate:

; 207  :     }
; 208  : 
; 209  :     return nullptr;

  00028	33 c0		 xor	 eax, eax
$LN1@Allocate:

; 210  : }

  0002a	5d		 pop	 ebp
  0002b	c3		 ret	 0
??$_Allocate@$07U_Default_allocate_traits@std@@$0A@@std@@YAPAXI@Z ENDP ; std::_Allocate<8,std::_Default_allocate_traits,0>
_TEXT	ENDS
; Function compile flags: /Odspy
; File C:\Program Files (x86)\Microsoft Visual Studio\2019\Community\VC\Tools\MSVC\14.28.29333\include\xmemory
;	COMDAT ??$_Destroy_range@V?$allocator@PAUgranny_mesh_binding@@@std@@@std@@YAXPAPAUgranny_mesh_binding@@QAPAU1@AAV?$allocator@PAUgranny_mesh_binding@@@0@@Z
_TEXT	SEGMENT
__First$ = 8						; size = 4
__Last$ = 12						; size = 4
__Al$ = 16						; size = 4
??$_Destroy_range@V?$allocator@PAUgranny_mesh_binding@@@std@@@std@@YAXPAPAUgranny_mesh_binding@@QAPAU1@AAV?$allocator@PAUgranny_mesh_binding@@@0@@Z PROC ; std::_Destroy_range<std::allocator<granny_mesh_binding *> >, COMDAT

; 962  :     _Alloc_ptr_t<_Alloc> _First, const _Alloc_ptr_t<_Alloc> _Last, _Alloc& _Al) noexcept {

  00000	55		 push	 ebp
  00001	8b ec		 mov	 ebp, esp

; 963  :     // note that this is an optimization for debug mode codegen; in release mode the BE removes all of this
; 964  :     using _Ty = typename _Alloc::value_type;
; 965  :     if _CONSTEXPR_IF (!conjunction_v<is_trivially_destructible<_Ty>, _Uses_default_destroy<_Alloc, _Ty*>>) {
; 966  :         for (; _First != _Last; ++_First) {
; 967  :             allocator_traits<_Alloc>::destroy(_Al, _Unfancy(_First));
; 968  :         }
; 969  :     }
; 970  : }

  00003	5d		 pop	 ebp
  00004	c3		 ret	 0
??$_Destroy_range@V?$allocator@PAUgranny_mesh_binding@@@std@@@std@@YAXPAPAUgranny_mesh_binding@@QAPAU1@AAV?$allocator@PAUgranny_mesh_binding@@@0@@Z ENDP ; std::_Destroy_range<std::allocator<granny_mesh_binding *> >
_TEXT	ENDS
; Function compile flags: /Odspy
; File C:\Program Files (x86)\Microsoft Visual Studio\2019\Community\VC\Tools\MSVC\14.28.29333\include\vector
; File C:\Program Files (x86)\Microsoft Visual Studio\2019\Community\VC\Tools\MSVC\14.28.29333\include\xmemory
; File C:\Program Files (x86)\Microsoft Visual Studio\2019\Community\VC\Tools\MSVC\14.28.29333\include\vector
; File C:\Program Files (x86)\Microsoft Visual Studio\2019\Community\VC\Tools\MSVC\14.28.29333\include\xmemory
; File C:\Program Files (x86)\Microsoft Visual Studio\2019\Community\VC\Tools\MSVC\14.28.29333\include\vector
; File C:\Program Files (x86)\Microsoft Visual Studio\2019\Community\VC\Tools\MSVC\14.28.29333\include\xmemory
; File C:\Program Files (x86)\Microsoft Visual Studio\2019\Community\VC\Tools\MSVC\14.28.29333\include\limits
; File C:\Program Files (x86)\Microsoft Visual Studio\2019\Community\VC\Tools\MSVC\14.28.29333\include\vector
; File C:\Program Files (x86)\Microsoft Visual Studio\2019\Community\VC\Tools\MSVC\14.28.29333\include\utility
; File C:\Program Files (x86)\Microsoft Visual Studio\2019\Community\VC\Tools\MSVC\14.28.29333\include\vector
; File C:\Program Files (x86)\Microsoft Visual Studio\2019\Community\VC\Tools\MSVC\14.28.29333\include\xmemory
; File C:\Program Files (x86)\Microsoft Visual Studio\2019\Community\VC\Tools\MSVC\14.28.29333\include\vector
; File C:\Program Files (x86)\Microsoft Visual Studio\2019\Community\VC\Tools\MSVC\14.28.29333\include\type_traits
; File C:\Program Files (x86)\Microsoft Visual Studio\2019\Community\VC\Tools\MSVC\14.28.29333\include\vector
; File C:\Program Files (x86)\Microsoft Visual Studio\2019\Community\VC\Tools\MSVC\14.28.29333\include\xstddef
; File C:\Program Files (x86)\Microsoft Visual Studio\2019\Community\VC\Tools\MSVC\14.28.29333\include\vcruntime_new.h
; File C:\Program Files (x86)\Microsoft Visual Studio\2019\Community\VC\Tools\MSVC\14.28.29333\include\type_traits
; File C:\Program Files (x86)\Microsoft Visual Studio\2019\Community\VC\Tools\MSVC\14.28.29333\include\xmemory
; File C:\Program Files (x86)\Microsoft Visual Studio\2019\Community\VC\Tools\MSVC\14.28.29333\include\vector
; File C:\Program Files (x86)\Microsoft Visual Studio\2019\Community\VC\Tools\MSVC\14.28.29333\include\xmemory
; File C:\Program Files (x86)\Microsoft Visual Studio\2019\Community\VC\Tools\MSVC\14.28.29333\include\vector
; File C:\Program Files (x86)\Microsoft Visual Studio\2019\Community\VC\Tools\MSVC\14.28.29333\include\xmemory
; File C:\Program Files (x86)\Microsoft Visual Studio\2019\Community\VC\Tools\MSVC\14.28.29333\include\vector
; File C:\Program Files (x86)\Microsoft Visual Studio\2019\Community\VC\Tools\MSVC\14.28.29333\include\xmemory
; File C:\Program Files (x86)\Microsoft Visual Studio\2019\Community\VC\Tools\MSVC\14.28.29333\include\vector
;	COMDAT ??$_Emplace_reallocate@PAUgranny_mesh_binding@@@?$vector@PAUgranny_mesh_binding@@V?$allocator@PAUgranny_mesh_binding@@@std@@@std@@QAEPAPAUgranny_mesh_binding@@QAPAU2@$$QAPAU2@@Z
_TEXT	SEGMENT
__Max_possible$2 = -68					; size = 4
$T3 = -64						; size = 4
__Al$ = -60						; size = 4
__Last$ = -56						; size = 4
$T4 = -52						; size = 4
$T5 = -48						; size = 4
__First$ = -44						; size = 4
$T6 = -40						; size = 4
$T7 = -36						; size = 4
__First$ = -32						; size = 4
__Last$ = -28						; size = 4
$T8 = -24						; size = 4
$T9 = -20						; size = 4
__$EHRec$ = -16						; size = 16
$T10 = 0						; size = 4
$T11 = 4						; size = 4
$T12 = 8						; size = 4
$T13 = 12						; size = 4
$T14 = 16						; size = 4
$T15 = 20						; size = 4
$T16 = 24						; size = 4
$T17 = 28						; size = 4
$T18 = 32						; size = 4
$T19 = 36						; size = 4
$T20 = 40						; size = 4
__Newsize$ = 44						; size = 4
__Constructed_last$ = 48				; size = 4
__Oldsize$ = 52						; size = 4
tv172 = 56						; size = 4
$T21 = 60						; size = 4
$T22 = 64						; size = 4
__My_data$ = 68						; size = 4
__Constructed_first$ = 72				; size = 4
___formal$ = 76						; size = 1
__Overflow_is_possible$23 = 83				; size = 1
__Newcapacity$ = 84					; size = 4
__Mylast$ = 88						; size = 4
__Myfirst$ = 92						; size = 4
__Whereoff$ = 96					; size = 4
$T24 = 103						; size = 1
_this$ = 104						; size = 4
__Newvec$ = 108						; size = 4
__Whereptr$ = 120					; size = 4
_<_Val_0>$ = 124					; size = 4
??$_Emplace_reallocate@PAUgranny_mesh_binding@@@?$vector@PAUgranny_mesh_binding@@V?$allocator@PAUgranny_mesh_binding@@@std@@@std@@QAEPAPAUgranny_mesh_binding@@QAPAU2@$$QAPAU2@@Z PROC ; std::vector<granny_mesh_binding *,std::allocator<granny_mesh_binding *> >::_Emplace_reallocate<granny_mesh_binding *>, COMDAT
; _this$ = ecx

; 725  :     pointer _Emplace_reallocate(const pointer _Whereptr, _Valty&&... _Val) {

  00000	55		 push	 ebp
  00001	8d 6c 24 90	 lea	 ebp, DWORD PTR [esp-112]
  00005	83 ec 70	 sub	 esp, 112		; 00000070H
  00008	6a ff		 push	 -1
  0000a	68 00 00 00 00	 push	 __ehhandler$??$_Emplace_reallocate@PAUgranny_mesh_binding@@@?$vector@PAUgranny_mesh_binding@@V?$allocator@PAUgranny_mesh_binding@@@std@@@std@@QAEPAPAUgranny_mesh_binding@@QAPAU2@$$QAPAU2@@Z
  0000f	64 a1 00 00 00
	00		 mov	 eax, DWORD PTR fs:0
  00015	50		 push	 eax
  00016	51		 push	 ecx
  00017	83 ec 34	 sub	 esp, 52			; 00000034H
  0001a	53		 push	 ebx
  0001b	56		 push	 esi
  0001c	57		 push	 edi
  0001d	a1 00 00 00 00	 mov	 eax, DWORD PTR ___security_cookie
  00022	33 c5		 xor	 eax, ebp
  00024	50		 push	 eax
  00025	8d 45 f4	 lea	 eax, DWORD PTR __$EHRec$[ebp+4]
  00028	64 a3 00 00 00
	00		 mov	 DWORD PTR fs:0, eax
  0002e	89 65 f0	 mov	 DWORD PTR __$EHRec$[ebp], esp
  00031	89 4d 68	 mov	 DWORD PTR _this$[ebp], ecx

; 1733 :         return _Mypair._Get_first();

  00034	8b 45 68	 mov	 eax, DWORD PTR _this$[ebp]
; File C:\Program Files (x86)\Microsoft Visual Studio\2019\Community\VC\Tools\MSVC\14.28.29333\include\xmemory

; 1347 :         return *this;

  00037	89 45 28	 mov	 DWORD PTR $T20[ebp], eax
; File C:\Program Files (x86)\Microsoft Visual Studio\2019\Community\VC\Tools\MSVC\14.28.29333\include\vector

; 1733 :         return _Mypair._Get_first();

  0003a	8b 45 28	 mov	 eax, DWORD PTR $T20[ebp]
  0003d	89 45 c4	 mov	 DWORD PTR __Al$[ebp], eax

; 726  :         // reallocate and insert by perfectly forwarding _Val at _Whereptr
; 727  :         _Alty& _Al        = _Getal();
; 728  :         auto& _My_data    = _Mypair._Myval2;

  00040	8b 45 68	 mov	 eax, DWORD PTR _this$[ebp]
  00043	89 45 44	 mov	 DWORD PTR __My_data$[ebp], eax

; 729  :         pointer& _Myfirst = _My_data._Myfirst;

  00046	8b 45 44	 mov	 eax, DWORD PTR __My_data$[ebp]
  00049	89 45 5c	 mov	 DWORD PTR __Myfirst$[ebp], eax

; 730  :         pointer& _Mylast  = _My_data._Mylast;

  0004c	8b 45 44	 mov	 eax, DWORD PTR __My_data$[ebp]
  0004f	83 c0 04	 add	 eax, 4
  00052	89 45 58	 mov	 DWORD PTR __Mylast$[ebp], eax

; 731  : 
; 732  :         _STL_INTERNAL_CHECK(_Mylast == _My_data._Myend); // check that we have no unused capacity
; 733  : 
; 734  :         const auto _Whereoff = static_cast<size_type>(_Whereptr - _Myfirst);

  00055	8b 45 5c	 mov	 eax, DWORD PTR __Myfirst$[ebp]
  00058	8b 4d 78	 mov	 ecx, DWORD PTR __Whereptr$[ebp]
  0005b	2b 08		 sub	 ecx, DWORD PTR [eax]
  0005d	c1 f9 02	 sar	 ecx, 2
  00060	89 4d 60	 mov	 DWORD PTR __Whereoff$[ebp], ecx

; 735  :         const auto _Oldsize  = static_cast<size_type>(_Mylast - _Myfirst);

  00063	8b 45 58	 mov	 eax, DWORD PTR __Mylast$[ebp]
  00066	8b 4d 5c	 mov	 ecx, DWORD PTR __Myfirst$[ebp]
  00069	8b 00		 mov	 eax, DWORD PTR [eax]
  0006b	2b 01		 sub	 eax, DWORD PTR [ecx]
  0006d	c1 f8 02	 sar	 eax, 2
  00070	89 45 34	 mov	 DWORD PTR __Oldsize$[ebp], eax

; 1737 :         return _Mypair._Get_first();

  00073	8b 45 68	 mov	 eax, DWORD PTR _this$[ebp]
; File C:\Program Files (x86)\Microsoft Visual Studio\2019\Community\VC\Tools\MSVC\14.28.29333\include\xmemory

; 1351 :         return *this;

  00076	89 45 24	 mov	 DWORD PTR $T19[ebp], eax
; File C:\Program Files (x86)\Microsoft Visual Studio\2019\Community\VC\Tools\MSVC\14.28.29333\include\vector

; 1737 :         return _Mypair._Get_first();

  00079	8b 45 24	 mov	 eax, DWORD PTR $T19[ebp]
  0007c	89 45 c0	 mov	 DWORD PTR $T3[ebp], eax
; File C:\Program Files (x86)\Microsoft Visual Studio\2019\Community\VC\Tools\MSVC\14.28.29333\include\xmemory

; 710  :         return static_cast<size_t>(-1) / sizeof(value_type);

  0007f	c7 45 40 ff ff
	ff 3f		 mov	 DWORD PTR $T22[ebp], 1073741823 ; 3fffffffH
; File C:\Program Files (x86)\Microsoft Visual Studio\2019\Community\VC\Tools\MSVC\14.28.29333\include\limits

; 557  :         return INT_MAX;

  00086	c7 45 20 ff ff
	ff 7f		 mov	 DWORD PTR $T18[ebp], 2147483647 ; 7fffffffH
; File C:\Program Files (x86)\Microsoft Visual Studio\2019\Community\VC\Tools\MSVC\14.28.29333\include\vector

; 1488 :         return (_STD min)(

  0008d	8b 45 20	 mov	 eax, DWORD PTR $T18[ebp]
  00090	89 45 3c	 mov	 DWORD PTR $T21[ebp], eax
; File C:\Program Files (x86)\Microsoft Visual Studio\2019\Community\VC\Tools\MSVC\14.28.29333\include\utility

; 68   :     return _Right < _Left ? _Right : _Left;

  00093	8b 45 40	 mov	 eax, DWORD PTR $T22[ebp]
  00096	3b 45 3c	 cmp	 eax, DWORD PTR $T21[ebp]
  00099	73 08		 jae	 SHORT $LN34@Emplace_re
  0009b	8d 45 40	 lea	 eax, DWORD PTR $T22[ebp]
  0009e	89 45 38	 mov	 DWORD PTR tv172[ebp], eax
  000a1	eb 06		 jmp	 SHORT $LN35@Emplace_re
$LN34@Emplace_re:
  000a3	8d 45 3c	 lea	 eax, DWORD PTR $T21[ebp]
  000a6	89 45 38	 mov	 DWORD PTR tv172[ebp], eax
$LN35@Emplace_re:
  000a9	8b 45 38	 mov	 eax, DWORD PTR tv172[ebp]
  000ac	89 45 1c	 mov	 DWORD PTR $T17[ebp], eax
  000af	8b 45 1c	 mov	 eax, DWORD PTR $T17[ebp]
  000b2	89 45 18	 mov	 DWORD PTR $T16[ebp], eax
; File C:\Program Files (x86)\Microsoft Visual Studio\2019\Community\VC\Tools\MSVC\14.28.29333\include\vector

; 1488 :         return (_STD min)(

  000b5	8b 45 18	 mov	 eax, DWORD PTR $T16[ebp]
  000b8	8b 00		 mov	 eax, DWORD PTR [eax]
  000ba	89 45 14	 mov	 DWORD PTR $T15[ebp], eax

; 736  : 
; 737  :         if (_Oldsize == max_size()) {

  000bd	8b 45 34	 mov	 eax, DWORD PTR __Oldsize$[ebp]
  000c0	3b 45 14	 cmp	 eax, DWORD PTR $T15[ebp]
  000c3	75 05		 jne	 SHORT $LN2@Emplace_re

; 738  :             _Xlength();

  000c5	e8 00 00 00 00	 call	 ?_Xlength@?$vector@PAUgranny_mesh_binding@@V?$allocator@PAUgranny_mesh_binding@@@std@@@std@@CAXXZ ; std::vector<granny_mesh_binding *,std::allocator<granny_mesh_binding *> >::_Xlength
$LN2@Emplace_re:

; 739  :         }
; 740  : 
; 741  :         const size_type _Newsize     = _Oldsize + 1;

  000ca	8b 45 34	 mov	 eax, DWORD PTR __Oldsize$[ebp]
  000cd	40		 inc	 eax
  000ce	89 45 2c	 mov	 DWORD PTR __Newsize$[ebp], eax

; 742  :         const size_type _Newcapacity = _Calculate_growth(_Newsize);

  000d1	ff 75 2c	 push	 DWORD PTR __Newsize$[ebp]
  000d4	8b 4d 68	 mov	 ecx, DWORD PTR _this$[ebp]
  000d7	e8 00 00 00 00	 call	 ?_Calculate_growth@?$vector@PAUgranny_mesh_binding@@V?$allocator@PAUgranny_mesh_binding@@@std@@@std@@ABEII@Z ; std::vector<granny_mesh_binding *,std::allocator<granny_mesh_binding *> >::_Calculate_growth
  000dc	89 45 54	 mov	 DWORD PTR __Newcapacity$[ebp], eax
; File C:\Program Files (x86)\Microsoft Visual Studio\2019\Community\VC\Tools\MSVC\14.28.29333\include\xmemory

; 56   :     constexpr bool _Overflow_is_possible = _Ty_size > 1;

  000df	c6 45 53 01	 mov	 BYTE PTR __Overflow_is_possible$23[ebp], 1

; 57   : 
; 58   :     if _CONSTEXPR_IF (_Overflow_is_possible) {
; 59   :         constexpr size_t _Max_possible = static_cast<size_t>(-1) / _Ty_size;

  000e3	c7 45 bc ff ff
	ff 3f		 mov	 DWORD PTR __Max_possible$2[ebp], 1073741823 ; 3fffffffH

; 60   :         if (_Count > _Max_possible) {

  000ea	81 7d 54 ff ff
	ff 3f		 cmp	 DWORD PTR __Newcapacity$[ebp], 1073741823 ; 3fffffffH
  000f1	76 05		 jbe	 SHORT $LN67@Emplace_re

; 61   :             _Throw_bad_array_new_length(); // multiply overflow

  000f3	e8 00 00 00 00	 call	 ?_Throw_bad_array_new_length@std@@YAXXZ ; std::_Throw_bad_array_new_length
$LN67@Emplace_re:

; 62   :         }
; 63   :     }
; 64   : 
; 65   :     return _Count * _Ty_size;

  000f8	8b 45 54	 mov	 eax, DWORD PTR __Newcapacity$[ebp]
  000fb	c1 e0 02	 shl	 eax, 2
  000fe	89 45 10	 mov	 DWORD PTR $T14[ebp], eax

; 814  :         return static_cast<_Ty*>(_Allocate<_New_alignof<_Ty>>(_Get_size_of_n<sizeof(_Ty)>(_Count)));

  00101	ff 75 10	 push	 DWORD PTR $T14[ebp]
  00104	e8 00 00 00 00	 call	 ??$_Allocate@$07U_Default_allocate_traits@std@@$0A@@std@@YAPAXI@Z ; std::_Allocate<8,std::_Default_allocate_traits,0>
  00109	59		 pop	 ecx
  0010a	89 45 6c	 mov	 DWORD PTR __Newvec$[ebp], eax
; File C:\Program Files (x86)\Microsoft Visual Studio\2019\Community\VC\Tools\MSVC\14.28.29333\include\vector

; 745  :         const pointer _Constructed_last = _Newvec + _Whereoff + 1;

  0010d	8b 45 60	 mov	 eax, DWORD PTR __Whereoff$[ebp]
  00110	8b 4d 6c	 mov	 ecx, DWORD PTR __Newvec$[ebp]
  00113	8d 44 81 04	 lea	 eax, DWORD PTR [ecx+eax*4+4]
  00117	89 45 30	 mov	 DWORD PTR __Constructed_last$[ebp], eax

; 746  :         pointer _Constructed_first      = _Constructed_last;

  0011a	8b 45 30	 mov	 eax, DWORD PTR __Constructed_last$[ebp]
  0011d	89 45 48	 mov	 DWORD PTR __Constructed_first$[ebp], eax

; 747  : 
; 748  :         _TRY_BEGIN

  00120	83 65 fc 00	 and	 DWORD PTR __$EHRec$[ebp+12], 0
; File C:\Program Files (x86)\Microsoft Visual Studio\2019\Community\VC\Tools\MSVC\14.28.29333\include\type_traits

; 1443 :     return static_cast<_Ty&&>(_Arg);

  00124	8b 45 7c	 mov	 eax, DWORD PTR _<_Val_0>$[ebp]
  00127	89 45 08	 mov	 DWORD PTR $T12[ebp], eax
; File C:\Program Files (x86)\Microsoft Visual Studio\2019\Community\VC\Tools\MSVC\14.28.29333\include\vector

; 749  :         _Alty_traits::construct(_Al, _Unfancy(_Newvec + _Whereoff), _STD forward<_Valty>(_Val)...);

  0012a	8b 45 60	 mov	 eax, DWORD PTR __Whereoff$[ebp]
  0012d	8b 4d 6c	 mov	 ecx, DWORD PTR __Newvec$[ebp]
  00130	8d 04 81	 lea	 eax, DWORD PTR [ecx+eax*4]
; File C:\Program Files (x86)\Microsoft Visual Studio\2019\Community\VC\Tools\MSVC\14.28.29333\include\xstddef

; 289  :     return _Ptr;

  00133	89 45 0c	 mov	 DWORD PTR $T13[ebp], eax
; File C:\Program Files (x86)\Microsoft Visual Studio\2019\Community\VC\Tools\MSVC\14.28.29333\include\vcruntime_new.h

; 169  :         return _Where;

  00136	8b 45 0c	 mov	 eax, DWORD PTR $T13[ebp]
  00139	89 45 04	 mov	 DWORD PTR $T11[ebp], eax
; File C:\Program Files (x86)\Microsoft Visual Studio\2019\Community\VC\Tools\MSVC\14.28.29333\include\type_traits

; 1443 :     return static_cast<_Ty&&>(_Arg);

  0013c	8b 45 08	 mov	 eax, DWORD PTR $T12[ebp]
  0013f	89 45 00	 mov	 DWORD PTR $T10[ebp], eax
; File C:\Program Files (x86)\Microsoft Visual Studio\2019\Community\VC\Tools\MSVC\14.28.29333\include\xmemory

; 701  :         ::new (const_cast<void*>(static_cast<const volatile void*>(_Ptr))) _Objty(_STD forward<_Types>(_Args)...);

  00142	8b 45 04	 mov	 eax, DWORD PTR $T11[ebp]
  00145	8b 4d 00	 mov	 ecx, DWORD PTR $T10[ebp]
  00148	8b 09		 mov	 ecx, DWORD PTR [ecx]
  0014a	89 08		 mov	 DWORD PTR [eax], ecx
; File C:\Program Files (x86)\Microsoft Visual Studio\2019\Community\VC\Tools\MSVC\14.28.29333\include\vector

; 750  :         _Constructed_first = _Newvec + _Whereoff;

  0014c	8b 45 60	 mov	 eax, DWORD PTR __Whereoff$[ebp]
  0014f	8b 4d 6c	 mov	 ecx, DWORD PTR __Newvec$[ebp]
  00152	8d 04 81	 lea	 eax, DWORD PTR [ecx+eax*4]
  00155	89 45 48	 mov	 DWORD PTR __Constructed_first$[ebp], eax

; 751  : 
; 752  :         if (_Whereptr == _Mylast) { // at back, provide strong guarantee

  00158	8b 45 58	 mov	 eax, DWORD PTR __Mylast$[ebp]
  0015b	8b 4d 78	 mov	 ecx, DWORD PTR __Whereptr$[ebp]
  0015e	3b 08		 cmp	 ecx, DWORD PTR [eax]
  00160	75 3d		 jne	 SHORT $LN4@Emplace_re

; 753  :             _Umove_if_noexcept(_Myfirst, _Mylast, _Newvec);

  00162	8b 45 58	 mov	 eax, DWORD PTR __Mylast$[ebp]
  00165	8b 00		 mov	 eax, DWORD PTR [eax]
  00167	89 45 e4	 mov	 DWORD PTR __Last$[ebp], eax
  0016a	8b 45 5c	 mov	 eax, DWORD PTR __Myfirst$[ebp]
  0016d	8b 00		 mov	 eax, DWORD PTR [eax]
  0016f	89 45 e0	 mov	 DWORD PTR __First$[ebp], eax

; 1607 :         _Umove_if_noexcept1(_First, _Last, _Dest,

  00172	33 c0		 xor	 eax, eax
  00174	88 45 67	 mov	 BYTE PTR $T24[ebp], al
  00177	8a 45 67	 mov	 al, BYTE PTR $T24[ebp]
  0017a	88 45 4c	 mov	 BYTE PTR ___formal$[ebp], al

; 1733 :         return _Mypair._Get_first();

  0017d	8b 45 68	 mov	 eax, DWORD PTR _this$[ebp]
; File C:\Program Files (x86)\Microsoft Visual Studio\2019\Community\VC\Tools\MSVC\14.28.29333\include\xmemory

; 1347 :         return *this;

  00180	89 45 ec	 mov	 DWORD PTR $T9[ebp], eax
; File C:\Program Files (x86)\Microsoft Visual Studio\2019\Community\VC\Tools\MSVC\14.28.29333\include\vector

; 1733 :         return _Mypair._Get_first();

  00183	8b 45 ec	 mov	 eax, DWORD PTR $T9[ebp]
  00186	89 45 e8	 mov	 DWORD PTR $T8[ebp], eax

; 1597 :         _Uninitialized_move(_First, _Last, _Dest, _Getal());

  00189	ff 75 e8	 push	 DWORD PTR $T8[ebp]
  0018c	ff 75 6c	 push	 DWORD PTR __Newvec$[ebp]
  0018f	ff 75 e4	 push	 DWORD PTR __Last$[ebp]
  00192	ff 75 e0	 push	 DWORD PTR __First$[ebp]
  00195	e8 00 00 00 00	 call	 ??$_Uninitialized_move@PAPAUgranny_mesh_binding@@V?$allocator@PAUgranny_mesh_binding@@@std@@@std@@YAPAPAUgranny_mesh_binding@@QAPAU1@0PAPAU1@AAV?$allocator@PAUgranny_mesh_binding@@@0@@Z ; std::_Uninitialized_move<granny_mesh_binding * *,std::allocator<granny_mesh_binding *> >
  0019a	83 c4 10	 add	 esp, 16			; 00000010H

; 754  :         } else { // provide basic guarantee

  0019d	eb 5e		 jmp	 SHORT $LN5@Emplace_re
$LN4@Emplace_re:

; 755  :             _Umove(_Myfirst, _Whereptr, _Newvec);

  0019f	8b 45 5c	 mov	 eax, DWORD PTR __Myfirst$[ebp]
  001a2	8b 00		 mov	 eax, DWORD PTR [eax]
  001a4	89 45 d4	 mov	 DWORD PTR __First$[ebp], eax

; 1733 :         return _Mypair._Get_first();

  001a7	8b 45 68	 mov	 eax, DWORD PTR _this$[ebp]
; File C:\Program Files (x86)\Microsoft Visual Studio\2019\Community\VC\Tools\MSVC\14.28.29333\include\xmemory

; 1347 :         return *this;

  001aa	89 45 dc	 mov	 DWORD PTR $T7[ebp], eax
; File C:\Program Files (x86)\Microsoft Visual Studio\2019\Community\VC\Tools\MSVC\14.28.29333\include\vector

; 1733 :         return _Mypair._Get_first();

  001ad	8b 45 dc	 mov	 eax, DWORD PTR $T7[ebp]
  001b0	89 45 d8	 mov	 DWORD PTR $T6[ebp], eax

; 1592 :         return _Uninitialized_move(_First, _Last, _Dest, _Getal());

  001b3	ff 75 d8	 push	 DWORD PTR $T6[ebp]
  001b6	ff 75 6c	 push	 DWORD PTR __Newvec$[ebp]
  001b9	ff 75 78	 push	 DWORD PTR __Whereptr$[ebp]
  001bc	ff 75 d4	 push	 DWORD PTR __First$[ebp]
  001bf	e8 00 00 00 00	 call	 ??$_Uninitialized_move@PAPAUgranny_mesh_binding@@V?$allocator@PAUgranny_mesh_binding@@@std@@@std@@YAPAPAUgranny_mesh_binding@@QAPAU1@0PAPAU1@AAV?$allocator@PAUgranny_mesh_binding@@@0@@Z ; std::_Uninitialized_move<granny_mesh_binding * *,std::allocator<granny_mesh_binding *> >
  001c4	83 c4 10	 add	 esp, 16			; 00000010H

; 756  :             _Constructed_first = _Newvec;

  001c7	8b 45 6c	 mov	 eax, DWORD PTR __Newvec$[ebp]
  001ca	89 45 48	 mov	 DWORD PTR __Constructed_first$[ebp], eax

; 757  :             _Umove(_Whereptr, _Mylast, _Newvec + _Whereoff + 1);

  001cd	8b 45 58	 mov	 eax, DWORD PTR __Mylast$[ebp]
  001d0	8b 00		 mov	 eax, DWORD PTR [eax]
  001d2	89 45 c8	 mov	 DWORD PTR __Last$[ebp], eax

; 1733 :         return _Mypair._Get_first();

  001d5	8b 45 68	 mov	 eax, DWORD PTR _this$[ebp]
; File C:\Program Files (x86)\Microsoft Visual Studio\2019\Community\VC\Tools\MSVC\14.28.29333\include\xmemory

; 1347 :         return *this;

  001d8	89 45 d0	 mov	 DWORD PTR $T5[ebp], eax
; File C:\Program Files (x86)\Microsoft Visual Studio\2019\Community\VC\Tools\MSVC\14.28.29333\include\vector

; 1733 :         return _Mypair._Get_first();

  001db	8b 45 d0	 mov	 eax, DWORD PTR $T5[ebp]
  001de	89 45 cc	 mov	 DWORD PTR $T4[ebp], eax

; 1592 :         return _Uninitialized_move(_First, _Last, _Dest, _Getal());

  001e1	ff 75 cc	 push	 DWORD PTR $T4[ebp]

; 757  :             _Umove(_Whereptr, _Mylast, _Newvec + _Whereoff + 1);

  001e4	8b 45 60	 mov	 eax, DWORD PTR __Whereoff$[ebp]
  001e7	8b 4d 6c	 mov	 ecx, DWORD PTR __Newvec$[ebp]
  001ea	8d 44 81 04	 lea	 eax, DWORD PTR [ecx+eax*4+4]

; 1592 :         return _Uninitialized_move(_First, _Last, _Dest, _Getal());

  001ee	50		 push	 eax
  001ef	ff 75 c8	 push	 DWORD PTR __Last$[ebp]
  001f2	ff 75 78	 push	 DWORD PTR __Whereptr$[ebp]
  001f5	e8 00 00 00 00	 call	 ??$_Uninitialized_move@PAPAUgranny_mesh_binding@@V?$allocator@PAUgranny_mesh_binding@@@std@@@std@@YAPAPAUgranny_mesh_binding@@QAPAU1@0PAPAU1@AAV?$allocator@PAUgranny_mesh_binding@@@0@@Z ; std::_Uninitialized_move<granny_mesh_binding * *,std::allocator<granny_mesh_binding *> >
  001fa	83 c4 10	 add	 esp, 16			; 00000010H
$LN5@Emplace_re:

; 757  :             _Umove(_Whereptr, _Mylast, _Newvec + _Whereoff + 1);

  001fd	eb 2b		 jmp	 SHORT $LN7@Emplace_re
__catch$??$_Emplace_reallocate@PAUgranny_mesh_binding@@@?$vector@PAUgranny_mesh_binding@@V?$allocator@PAUgranny_mesh_binding@@@std@@@std@@QAEPAPAUgranny_mesh_binding@@QAPAU2@$$QAPAU2@@Z$0:

; 758  :         }
; 759  :         _CATCH_ALL
; 760  :         _Destroy(_Constructed_first, _Constructed_last);

  001ff	ff 75 30	 push	 DWORD PTR __Constructed_last$[ebp]
  00202	ff 75 48	 push	 DWORD PTR __Constructed_first$[ebp]
  00205	8b 4d 68	 mov	 ecx, DWORD PTR _this$[ebp]
  00208	e8 00 00 00 00	 call	 ?_Destroy@?$vector@PAUgranny_mesh_binding@@V?$allocator@PAUgranny_mesh_binding@@@std@@@std@@AAEXPAPAUgranny_mesh_binding@@0@Z ; std::vector<granny_mesh_binding *,std::allocator<granny_mesh_binding *> >::_Destroy

; 761  :         _Al.deallocate(_Newvec, _Newcapacity);

  0020d	ff 75 54	 push	 DWORD PTR __Newcapacity$[ebp]
  00210	ff 75 6c	 push	 DWORD PTR __Newvec$[ebp]
  00213	8b 4d c4	 mov	 ecx, DWORD PTR __Al$[ebp]
  00216	e8 00 00 00 00	 call	 ?deallocate@?$allocator@PAUgranny_mesh_binding@@@std@@QAEXQAPAUgranny_mesh_binding@@I@Z ; std::allocator<granny_mesh_binding *>::deallocate

; 762  :         _RERAISE;

  0021b	6a 00		 push	 0
  0021d	6a 00		 push	 0
  0021f	e8 00 00 00 00	 call	 __CxxThrowException@8

; 763  :         _CATCH_END

  00224	b8 00 00 00 00	 mov	 eax, $LN10@Emplace_re
  00229	c3		 ret	 0
$LN7@Emplace_re:
  0022a	83 4d fc ff	 or	 DWORD PTR __$EHRec$[ebp+12], -1
  0022e	eb 04		 jmp	 SHORT __tryend$??$_Emplace_reallocate@PAUgranny_mesh_binding@@@?$vector@PAUgranny_mesh_binding@@V?$allocator@PAUgranny_mesh_binding@@@std@@@std@@QAEPAPAUgranny_mesh_binding@@QAPAU2@$$QAPAU2@@Z$1
$LN10@Emplace_re:
; File C:\Program Files (x86)\Microsoft Visual Studio\2019\Community\VC\Tools\MSVC\14.28.29333\include\xmemory
  00230	83 4d fc ff	 or	 DWORD PTR __$EHRec$[ebp+12], -1
__tryend$??$_Emplace_reallocate@PAUgranny_mesh_binding@@@?$vector@PAUgranny_mesh_binding@@V?$allocator@PAUgranny_mesh_binding@@@std@@@std@@QAEPAPAUgranny_mesh_binding@@QAPAU2@$$QAPAU2@@Z$1:
; File C:\Program Files (x86)\Microsoft Visual Studio\2019\Community\VC\Tools\MSVC\14.28.29333\include\vector

; 764  : 
; 765  :         _Change_array(_Newvec, _Newsize, _Newcapacity);

  00234	ff 75 54	 push	 DWORD PTR __Newcapacity$[ebp]
  00237	ff 75 2c	 push	 DWORD PTR __Newsize$[ebp]
  0023a	ff 75 6c	 push	 DWORD PTR __Newvec$[ebp]
  0023d	8b 4d 68	 mov	 ecx, DWORD PTR _this$[ebp]
  00240	e8 00 00 00 00	 call	 ?_Change_array@?$vector@PAUgranny_mesh_binding@@V?$allocator@PAUgranny_mesh_binding@@@std@@@std@@AAEXQAPAUgranny_mesh_binding@@II@Z ; std::vector<granny_mesh_binding *,std::allocator<granny_mesh_binding *> >::_Change_array

; 766  :         return _Newvec + _Whereoff;

  00245	8b 45 60	 mov	 eax, DWORD PTR __Whereoff$[ebp]
  00248	8b 4d 6c	 mov	 ecx, DWORD PTR __Newvec$[ebp]
  0024b	8d 04 81	 lea	 eax, DWORD PTR [ecx+eax*4]
$LN70@Emplace_re:

; 767  :     }

  0024e	8b 4d f4	 mov	 ecx, DWORD PTR __$EHRec$[ebp+4]
  00251	64 89 0d 00 00
	00 00		 mov	 DWORD PTR fs:0, ecx
  00258	59		 pop	 ecx
  00259	5f		 pop	 edi
  0025a	5e		 pop	 esi
  0025b	5b		 pop	 ebx
  0025c	83 c5 70	 add	 ebp, 112		; 00000070H
  0025f	c9		 leave
  00260	c2 08 00	 ret	 8
  00263	cc		 int	 3
  00264	cc		 int	 3
  00265	cc		 int	 3
  00266	cc		 int	 3
  00267	cc		 int	 3
_TEXT	ENDS
;	COMDAT text$x
text$x	SEGMENT
__ehhandler$??$_Emplace_reallocate@PAUgranny_mesh_binding@@@?$vector@PAUgranny_mesh_binding@@V?$allocator@PAUgranny_mesh_binding@@@std@@@std@@QAEPAPAUgranny_mesh_binding@@QAPAU2@$$QAPAU2@@Z:
  00000	90		 npad	 1
  00001	90		 npad	 1
  00002	8b 54 24 08	 mov	 edx, DWORD PTR [esp+8]
  00006	8d 42 0c	 lea	 eax, DWORD PTR [edx+12]
  00009	8b 4a b8	 mov	 ecx, DWORD PTR [edx-72]
  0000c	33 c8		 xor	 ecx, eax
  0000e	e8 00 00 00 00	 call	 @__security_check_cookie@4
  00013	b8 00 00 00 00	 mov	 eax, OFFSET __ehfuncinfo$??$_Emplace_reallocate@PAUgranny_mesh_binding@@@?$vector@PAUgranny_mesh_binding@@V?$allocator@PAUgranny_mesh_binding@@@std@@@std@@QAEPAPAUgranny_mesh_binding@@QAPAU2@$$QAPAU2@@Z
  00018	e9 00 00 00 00	 jmp	 ___CxxFrameHandler3
text$x	ENDS
??$_Emplace_reallocate@PAUgranny_mesh_binding@@@?$vector@PAUgranny_mesh_binding@@V?$allocator@PAUgranny_mesh_binding@@@std@@@std@@QAEPAPAUgranny_mesh_binding@@QAPAU2@$$QAPAU2@@Z ENDP ; std::vector<granny_mesh_binding *,std::allocator<granny_mesh_binding *> >::_Emplace_reallocate<granny_mesh_binding *>
; Function compile flags: /Odspy
; File C:\Program Files (x86)\Microsoft Visual Studio\2019\Community\VC\Tools\MSVC\14.28.29333\include\vector
; File C:\Program Files (x86)\Microsoft Visual Studio\2019\Community\VC\Tools\MSVC\14.28.29333\include\type_traits
; File C:\Program Files (x86)\Microsoft Visual Studio\2019\Community\VC\Tools\MSVC\14.28.29333\include\vector
; File C:\Program Files (x86)\Microsoft Visual Studio\2019\Community\VC\Tools\MSVC\14.28.29333\include\xstddef
; File C:\Program Files (x86)\Microsoft Visual Studio\2019\Community\VC\Tools\MSVC\14.28.29333\include\vector
; File C:\Program Files (x86)\Microsoft Visual Studio\2019\Community\VC\Tools\MSVC\14.28.29333\include\xmemory
; File C:\Program Files (x86)\Microsoft Visual Studio\2019\Community\VC\Tools\MSVC\14.28.29333\include\vector
; File C:\Program Files (x86)\Microsoft Visual Studio\2019\Community\VC\Tools\MSVC\14.28.29333\include\vcruntime_new.h
; File C:\Program Files (x86)\Microsoft Visual Studio\2019\Community\VC\Tools\MSVC\14.28.29333\include\type_traits
; File C:\Program Files (x86)\Microsoft Visual Studio\2019\Community\VC\Tools\MSVC\14.28.29333\include\xmemory
; File C:\Program Files (x86)\Microsoft Visual Studio\2019\Community\VC\Tools\MSVC\14.28.29333\include\vector
;	COMDAT ??$_Emplace_back_with_unused_capacity@PAUgranny_mesh_binding@@@?$vector@PAUgranny_mesh_binding@@V?$allocator@PAUgranny_mesh_binding@@@std@@@std@@AAEX$$QAPAUgranny_mesh_binding@@@Z
_TEXT	SEGMENT
__Result$ = -44						; size = 4
$T1 = -40						; size = 4
$T2 = -36						; size = 4
$T3 = -32						; size = 4
$T4 = -28						; size = 4
$T5 = -24						; size = 4
$T6 = -20						; size = 4
__Ptr$ = -16						; size = 4
__My_data$ = -12					; size = 4
_this$ = -8						; size = 4
__Mylast$ = -4						; size = 4
_<_Val_0>$ = 8						; size = 4
??$_Emplace_back_with_unused_capacity@PAUgranny_mesh_binding@@@?$vector@PAUgranny_mesh_binding@@V?$allocator@PAUgranny_mesh_binding@@@std@@@std@@AAEX$$QAPAUgranny_mesh_binding@@@Z PROC ; std::vector<granny_mesh_binding *,std::allocator<granny_mesh_binding *> >::_Emplace_back_with_unused_capacity<granny_mesh_binding *>, COMDAT
; _this$ = ecx

; 682  :     decltype(auto) _Emplace_back_with_unused_capacity(_Valty&&... _Val) {

  00000	55		 push	 ebp
  00001	8b ec		 mov	 ebp, esp
  00003	83 ec 2c	 sub	 esp, 44			; 0000002cH
  00006	89 4d f8	 mov	 DWORD PTR _this$[ebp], ecx

; 683  :         // insert by perfectly forwarding into element at end, provide strong guarantee
; 684  :         auto& _My_data   = _Mypair._Myval2;

  00009	8b 45 f8	 mov	 eax, DWORD PTR _this$[ebp]
  0000c	89 45 f4	 mov	 DWORD PTR __My_data$[ebp], eax

; 685  :         pointer& _Mylast = _My_data._Mylast;

  0000f	8b 45 f4	 mov	 eax, DWORD PTR __My_data$[ebp]
  00012	83 c0 04	 add	 eax, 4
  00015	89 45 fc	 mov	 DWORD PTR __Mylast$[ebp], eax
; File C:\Program Files (x86)\Microsoft Visual Studio\2019\Community\VC\Tools\MSVC\14.28.29333\include\type_traits

; 1443 :     return static_cast<_Ty&&>(_Arg);

  00018	8b 45 08	 mov	 eax, DWORD PTR _<_Val_0>$[ebp]
  0001b	89 45 e4	 mov	 DWORD PTR $T4[ebp], eax
; File C:\Program Files (x86)\Microsoft Visual Studio\2019\Community\VC\Tools\MSVC\14.28.29333\include\vector

; 687  :         _Alty_traits::construct(_Getal(), _Unfancy(_Mylast), _STD forward<_Valty>(_Val)...);

  0001e	8b 45 fc	 mov	 eax, DWORD PTR __Mylast$[ebp]
  00021	8b 00		 mov	 eax, DWORD PTR [eax]
  00023	89 45 f0	 mov	 DWORD PTR __Ptr$[ebp], eax
; File C:\Program Files (x86)\Microsoft Visual Studio\2019\Community\VC\Tools\MSVC\14.28.29333\include\xstddef

; 289  :     return _Ptr;

  00026	8b 45 f0	 mov	 eax, DWORD PTR __Ptr$[ebp]
  00029	89 45 e8	 mov	 DWORD PTR $T5[ebp], eax
; File C:\Program Files (x86)\Microsoft Visual Studio\2019\Community\VC\Tools\MSVC\14.28.29333\include\vector

; 1733 :         return _Mypair._Get_first();

  0002c	8b 45 f8	 mov	 eax, DWORD PTR _this$[ebp]
; File C:\Program Files (x86)\Microsoft Visual Studio\2019\Community\VC\Tools\MSVC\14.28.29333\include\xmemory

; 1347 :         return *this;

  0002f	89 45 ec	 mov	 DWORD PTR $T6[ebp], eax
; File C:\Program Files (x86)\Microsoft Visual Studio\2019\Community\VC\Tools\MSVC\14.28.29333\include\vector

; 1733 :         return _Mypair._Get_first();

  00032	8b 45 ec	 mov	 eax, DWORD PTR $T6[ebp]
  00035	89 45 d8	 mov	 DWORD PTR $T1[ebp], eax
; File C:\Program Files (x86)\Microsoft Visual Studio\2019\Community\VC\Tools\MSVC\14.28.29333\include\vcruntime_new.h

; 169  :         return _Where;

  00038	8b 45 e8	 mov	 eax, DWORD PTR $T5[ebp]
  0003b	89 45 e0	 mov	 DWORD PTR $T3[ebp], eax
; File C:\Program Files (x86)\Microsoft Visual Studio\2019\Community\VC\Tools\MSVC\14.28.29333\include\type_traits

; 1443 :     return static_cast<_Ty&&>(_Arg);

  0003e	8b 45 e4	 mov	 eax, DWORD PTR $T4[ebp]
  00041	89 45 dc	 mov	 DWORD PTR $T2[ebp], eax
; File C:\Program Files (x86)\Microsoft Visual Studio\2019\Community\VC\Tools\MSVC\14.28.29333\include\xmemory

; 701  :         ::new (const_cast<void*>(static_cast<const volatile void*>(_Ptr))) _Objty(_STD forward<_Types>(_Args)...);

  00044	8b 45 e0	 mov	 eax, DWORD PTR $T3[ebp]
  00047	8b 4d dc	 mov	 ecx, DWORD PTR $T2[ebp]
  0004a	8b 09		 mov	 ecx, DWORD PTR [ecx]
  0004c	89 08		 mov	 DWORD PTR [eax], ecx
; File C:\Program Files (x86)\Microsoft Visual Studio\2019\Community\VC\Tools\MSVC\14.28.29333\include\vector

; 689  :         _Ty& _Result = *_Mylast;

  0004e	8b 45 fc	 mov	 eax, DWORD PTR __Mylast$[ebp]
  00051	8b 00		 mov	 eax, DWORD PTR [eax]
  00053	89 45 d4	 mov	 DWORD PTR __Result$[ebp], eax

; 690  :         ++_Mylast;

  00056	8b 45 fc	 mov	 eax, DWORD PTR __Mylast$[ebp]
  00059	8b 00		 mov	 eax, DWORD PTR [eax]
  0005b	83 c0 04	 add	 eax, 4
  0005e	8b 4d fc	 mov	 ecx, DWORD PTR __Mylast$[ebp]
  00061	89 01		 mov	 DWORD PTR [ecx], eax

; 691  : #if _HAS_CXX17
; 692  :         return _Result;
; 693  : #else // ^^^ _HAS_CXX17 ^^^ // vvv !_HAS_CXX17 vvv
; 694  :         (void) _Result;
; 695  : #endif // _HAS_CXX17
; 696  :     }

  00063	c9		 leave
  00064	c2 04 00	 ret	 4
??$_Emplace_back_with_unused_capacity@PAUgranny_mesh_binding@@@?$vector@PAUgranny_mesh_binding@@V?$allocator@PAUgranny_mesh_binding@@@std@@@std@@AAEX$$QAPAUgranny_mesh_binding@@@Z ENDP ; std::vector<granny_mesh_binding *,std::allocator<granny_mesh_binding *> >::_Emplace_back_with_unused_capacity<granny_mesh_binding *>
_TEXT	ENDS
; Function compile flags: /Odspy
; File C:\Program Files (x86)\Microsoft Visual Studio\2019\Community\VC\Tools\MSVC\14.28.29333\include\vector
; File C:\Program Files (x86)\Microsoft Visual Studio\2019\Community\VC\Tools\MSVC\14.28.29333\include\type_traits
; File C:\Program Files (x86)\Microsoft Visual Studio\2019\Community\VC\Tools\MSVC\14.28.29333\include\vector
; File C:\Program Files (x86)\Microsoft Visual Studio\2019\Community\VC\Tools\MSVC\14.28.29333\include\type_traits
; File C:\Program Files (x86)\Microsoft Visual Studio\2019\Community\VC\Tools\MSVC\14.28.29333\include\vector
;	COMDAT ??$emplace_back@PAUgranny_mesh_binding@@@?$vector@PAUgranny_mesh_binding@@V?$allocator@PAUgranny_mesh_binding@@@std@@@std@@QAEX$$QAPAUgranny_mesh_binding@@@Z
_TEXT	SEGMENT
__Result$ = -24						; size = 4
$T1 = -20						; size = 4
$T2 = -16						; size = 4
__Mylast$ = -12						; size = 4
__My_data$ = -8						; size = 4
_this$ = -4						; size = 4
_<_Val_0>$ = 8						; size = 4
??$emplace_back@PAUgranny_mesh_binding@@@?$vector@PAUgranny_mesh_binding@@V?$allocator@PAUgranny_mesh_binding@@@std@@@std@@QAEX$$QAPAUgranny_mesh_binding@@@Z PROC ; std::vector<granny_mesh_binding *,std::allocator<granny_mesh_binding *> >::emplace_back<granny_mesh_binding *>, COMDAT
; _this$ = ecx

; 700  :     decltype(auto) emplace_back(_Valty&&... _Val) {

  00000	55		 push	 ebp
  00001	8b ec		 mov	 ebp, esp
  00003	83 ec 18	 sub	 esp, 24			; 00000018H
  00006	89 4d fc	 mov	 DWORD PTR _this$[ebp], ecx

; 701  :         // insert by perfectly forwarding into element at end, provide strong guarantee
; 702  :         auto& _My_data   = _Mypair._Myval2;

  00009	8b 45 fc	 mov	 eax, DWORD PTR _this$[ebp]
  0000c	89 45 f8	 mov	 DWORD PTR __My_data$[ebp], eax

; 703  :         pointer& _Mylast = _My_data._Mylast;

  0000f	8b 45 f8	 mov	 eax, DWORD PTR __My_data$[ebp]
  00012	83 c0 04	 add	 eax, 4
  00015	89 45 f4	 mov	 DWORD PTR __Mylast$[ebp], eax

; 704  :         if (_Mylast != _My_data._Myend) {

  00018	8b 45 f4	 mov	 eax, DWORD PTR __Mylast$[ebp]
  0001b	8b 4d f8	 mov	 ecx, DWORD PTR __My_data$[ebp]
  0001e	8b 00		 mov	 eax, DWORD PTR [eax]
  00020	3b 41 08	 cmp	 eax, DWORD PTR [ecx+8]
  00023	74 13		 je	 SHORT $LN2@emplace_ba
; File C:\Program Files (x86)\Microsoft Visual Studio\2019\Community\VC\Tools\MSVC\14.28.29333\include\type_traits

; 1443 :     return static_cast<_Ty&&>(_Arg);

  00025	8b 45 08	 mov	 eax, DWORD PTR _<_Val_0>$[ebp]
  00028	89 45 f0	 mov	 DWORD PTR $T2[ebp], eax
; File C:\Program Files (x86)\Microsoft Visual Studio\2019\Community\VC\Tools\MSVC\14.28.29333\include\vector

; 705  :             return _Emplace_back_with_unused_capacity(_STD forward<_Valty>(_Val)...);

  0002b	ff 75 f0	 push	 DWORD PTR $T2[ebp]
  0002e	8b 4d fc	 mov	 ecx, DWORD PTR _this$[ebp]
  00031	e8 00 00 00 00	 call	 ??$_Emplace_back_with_unused_capacity@PAUgranny_mesh_binding@@@?$vector@PAUgranny_mesh_binding@@V?$allocator@PAUgranny_mesh_binding@@@std@@@std@@AAEX$$QAPAUgranny_mesh_binding@@@Z ; std::vector<granny_mesh_binding *,std::allocator<granny_mesh_binding *> >::_Emplace_back_with_unused_capacity<granny_mesh_binding *>
  00036	eb 19		 jmp	 SHORT $LN1@emplace_ba
$LN2@emplace_ba:
; File C:\Program Files (x86)\Microsoft Visual Studio\2019\Community\VC\Tools\MSVC\14.28.29333\include\type_traits

; 1443 :     return static_cast<_Ty&&>(_Arg);

  00038	8b 45 08	 mov	 eax, DWORD PTR _<_Val_0>$[ebp]
  0003b	89 45 ec	 mov	 DWORD PTR $T1[ebp], eax
; File C:\Program Files (x86)\Microsoft Visual Studio\2019\Community\VC\Tools\MSVC\14.28.29333\include\vector

; 708  :         _Ty& _Result = *_Emplace_reallocate(_Mylast, _STD forward<_Valty>(_Val)...);

  0003e	ff 75 ec	 push	 DWORD PTR $T1[ebp]
  00041	8b 45 f4	 mov	 eax, DWORD PTR __Mylast$[ebp]
  00044	ff 30		 push	 DWORD PTR [eax]
  00046	8b 4d fc	 mov	 ecx, DWORD PTR _this$[ebp]
  00049	e8 00 00 00 00	 call	 ??$_Emplace_reallocate@PAUgranny_mesh_binding@@@?$vector@PAUgranny_mesh_binding@@V?$allocator@PAUgranny_mesh_binding@@@std@@@std@@QAEPAPAUgranny_mesh_binding@@QAPAU2@$$QAPAU2@@Z ; std::vector<granny_mesh_binding *,std::allocator<granny_mesh_binding *> >::_Emplace_reallocate<granny_mesh_binding *>
  0004e	89 45 e8	 mov	 DWORD PTR __Result$[ebp], eax
$LN1@emplace_ba:

; 709  : #if _HAS_CXX17
; 710  :         return _Result;
; 711  : #else // ^^^ _HAS_CXX17 ^^^ // vvv !_HAS_CXX17 vvv
; 712  :         (void) _Result;
; 713  : #endif // _HAS_CXX17
; 714  :     }

  00051	c9		 leave
  00052	c2 04 00	 ret	 4
??$emplace_back@PAUgranny_mesh_binding@@@?$vector@PAUgranny_mesh_binding@@V?$allocator@PAUgranny_mesh_binding@@@std@@@std@@QAEX$$QAPAUgranny_mesh_binding@@@Z ENDP ; std::vector<granny_mesh_binding *,std::allocator<granny_mesh_binding *> >::emplace_back<granny_mesh_binding *>
_TEXT	ENDS
; Function compile flags: /Odspy
; File C:\Program Files (x86)\Microsoft Visual Studio\2019\Community\VC\Tools\MSVC\14.28.29333\include\vector
; File C:\Program Files (x86)\Microsoft Visual Studio\2019\Community\VC\Tools\MSVC\14.28.29333\include\xmemory
; File C:\Program Files (x86)\Microsoft Visual Studio\2019\Community\VC\Tools\MSVC\14.28.29333\include\vector
;	COMDAT ?_Getal@?$vector@PAUgranny_mesh_binding@@V?$allocator@PAUgranny_mesh_binding@@@std@@@std@@AAEAAV?$allocator@PAUgranny_mesh_binding@@@2@XZ
_TEXT	SEGMENT
$T1 = -8						; size = 4
_this$ = -4						; size = 4
?_Getal@?$vector@PAUgranny_mesh_binding@@V?$allocator@PAUgranny_mesh_binding@@@std@@@std@@AAEAAV?$allocator@PAUgranny_mesh_binding@@@2@XZ PROC ; std::vector<granny_mesh_binding *,std::allocator<granny_mesh_binding *> >::_Getal, COMDAT
; _this$ = ecx

; 1732 :     _Alty& _Getal() noexcept {

  00000	55		 push	 ebp
  00001	8b ec		 mov	 ebp, esp
  00003	51		 push	 ecx
  00004	51		 push	 ecx
  00005	89 4d fc	 mov	 DWORD PTR _this$[ebp], ecx

; 1733 :         return _Mypair._Get_first();

  00008	8b 45 fc	 mov	 eax, DWORD PTR _this$[ebp]
; File C:\Program Files (x86)\Microsoft Visual Studio\2019\Community\VC\Tools\MSVC\14.28.29333\include\xmemory

; 1347 :         return *this;

  0000b	89 45 f8	 mov	 DWORD PTR $T1[ebp], eax
; File C:\Program Files (x86)\Microsoft Visual Studio\2019\Community\VC\Tools\MSVC\14.28.29333\include\vector

; 1733 :         return _Mypair._Get_first();

  0000e	8b 45 f8	 mov	 eax, DWORD PTR $T1[ebp]

; 1734 :     }

  00011	c9		 leave
  00012	c3		 ret	 0
?_Getal@?$vector@PAUgranny_mesh_binding@@V?$allocator@PAUgranny_mesh_binding@@@std@@@std@@AAEAAV?$allocator@PAUgranny_mesh_binding@@@2@XZ ENDP ; std::vector<granny_mesh_binding *,std::allocator<granny_mesh_binding *> >::_Getal
_TEXT	ENDS
; Function compile flags: /Odspy
; File C:\Program Files (x86)\Microsoft Visual Studio\2019\Community\VC\Tools\MSVC\14.28.29333\include\vector
;	COMDAT ?_Xlength@?$vector@PAUgranny_mesh_binding@@V?$allocator@PAUgranny_mesh_binding@@@std@@@std@@CAXXZ
_TEXT	SEGMENT
?_Xlength@?$vector@PAUgranny_mesh_binding@@V?$allocator@PAUgranny_mesh_binding@@@std@@@std@@CAXXZ PROC ; std::vector<granny_mesh_binding *,std::allocator<granny_mesh_binding *> >::_Xlength, COMDAT

; 1704 :     [[noreturn]] static void _Xlength() {

  00000	55		 push	 ebp
  00001	8b ec		 mov	 ebp, esp

; 1705 :         _Xlength_error("vector too long");

  00003	68 00 00 00 00	 push	 OFFSET ??_C@_0BA@FOIKENOD@vector?5too?5long@
  00008	e8 00 00 00 00	 call	 ?_Xlength_error@std@@YAXPBD@Z ; std::_Xlength_error
$LN2@Xlength:

; 1706 :     }

  0000d	5d		 pop	 ebp
  0000e	c3		 ret	 0
?_Xlength@?$vector@PAUgranny_mesh_binding@@V?$allocator@PAUgranny_mesh_binding@@@std@@@std@@CAXXZ ENDP ; std::vector<granny_mesh_binding *,std::allocator<granny_mesh_binding *> >::_Xlength
_TEXT	ENDS
; Function compile flags: /Odspy
; File C:\Program Files (x86)\Microsoft Visual Studio\2019\Community\VC\Tools\MSVC\14.28.29333\include\vector
; File C:\Program Files (x86)\Microsoft Visual Studio\2019\Community\VC\Tools\MSVC\14.28.29333\include\xmemory
; File C:\Program Files (x86)\Microsoft Visual Studio\2019\Community\VC\Tools\MSVC\14.28.29333\include\vector
; File C:\Program Files (x86)\Microsoft Visual Studio\2019\Community\VC\Tools\MSVC\14.28.29333\include\xmemory
; File C:\Program Files (x86)\Microsoft Visual Studio\2019\Community\VC\Tools\MSVC\14.28.29333\include\vector
; File C:\Program Files (x86)\Microsoft Visual Studio\2019\Community\VC\Tools\MSVC\14.28.29333\include\xmemory
; File C:\Program Files (x86)\Microsoft Visual Studio\2019\Community\VC\Tools\MSVC\14.28.29333\include\vector
;	COMDAT ?_Change_array@?$vector@PAUgranny_mesh_binding@@V?$allocator@PAUgranny_mesh_binding@@@std@@@std@@AAEXQAPAUgranny_mesh_binding@@II@Z
_TEXT	SEGMENT
$T1 = -52						; size = 4
__Ptr$ = -48						; size = 4
__Count$ = -44						; size = 4
$T2 = -40						; size = 4
__First$ = -36						; size = 4
__Last$ = -32						; size = 4
$T3 = -28						; size = 4
$T4 = -24						; size = 4
__Myend$ = -20						; size = 4
__Mylast$ = -16						; size = 4
_this$ = -12						; size = 4
__My_data$ = -8						; size = 4
__Myfirst$ = -4						; size = 4
__Newvec$ = 8						; size = 4
__Newsize$ = 12						; size = 4
__Newcapacity$ = 16					; size = 4
?_Change_array@?$vector@PAUgranny_mesh_binding@@V?$allocator@PAUgranny_mesh_binding@@@std@@@std@@AAEXQAPAUgranny_mesh_binding@@II@Z PROC ; std::vector<granny_mesh_binding *,std::allocator<granny_mesh_binding *> >::_Change_array, COMDAT
; _this$ = ecx

; 1667 :     void _Change_array(const pointer _Newvec, const size_type _Newsize, const size_type _Newcapacity) {

  00000	55		 push	 ebp
  00001	8b ec		 mov	 ebp, esp
  00003	83 ec 34	 sub	 esp, 52			; 00000034H
  00006	89 4d f4	 mov	 DWORD PTR _this$[ebp], ecx

; 1668 :         // orphan all iterators, discard old array, acquire new array
; 1669 :         auto& _My_data    = _Mypair._Myval2;

  00009	8b 45 f4	 mov	 eax, DWORD PTR _this$[ebp]
  0000c	89 45 f8	 mov	 DWORD PTR __My_data$[ebp], eax

; 1670 :         pointer& _Myfirst = _My_data._Myfirst;

  0000f	8b 45 f8	 mov	 eax, DWORD PTR __My_data$[ebp]
  00012	89 45 fc	 mov	 DWORD PTR __Myfirst$[ebp], eax

; 1671 :         pointer& _Mylast  = _My_data._Mylast;

  00015	8b 45 f8	 mov	 eax, DWORD PTR __My_data$[ebp]
  00018	83 c0 04	 add	 eax, 4
  0001b	89 45 f0	 mov	 DWORD PTR __Mylast$[ebp], eax

; 1672 :         pointer& _Myend   = _My_data._Myend;

  0001e	8b 45 f8	 mov	 eax, DWORD PTR __My_data$[ebp]
  00021	83 c0 08	 add	 eax, 8
  00024	89 45 ec	 mov	 DWORD PTR __Myend$[ebp], eax

; 1673 : 
; 1674 :         _My_data._Orphan_all();
; 1675 : 
; 1676 :         if (_Myfirst) { // destroy and deallocate old array

  00027	8b 45 fc	 mov	 eax, DWORD PTR __Myfirst$[ebp]
  0002a	83 38 00	 cmp	 DWORD PTR [eax], 0
  0002d	74 62		 je	 SHORT $LN2@Change_arr

; 1677 :             _Destroy(_Myfirst, _Mylast);

  0002f	8b 45 f0	 mov	 eax, DWORD PTR __Mylast$[ebp]
  00032	8b 00		 mov	 eax, DWORD PTR [eax]
  00034	89 45 e0	 mov	 DWORD PTR __Last$[ebp], eax
  00037	8b 45 fc	 mov	 eax, DWORD PTR __Myfirst$[ebp]
  0003a	8b 00		 mov	 eax, DWORD PTR [eax]
  0003c	89 45 dc	 mov	 DWORD PTR __First$[ebp], eax

; 1733 :         return _Mypair._Get_first();

  0003f	8b 45 f4	 mov	 eax, DWORD PTR _this$[ebp]
; File C:\Program Files (x86)\Microsoft Visual Studio\2019\Community\VC\Tools\MSVC\14.28.29333\include\xmemory

; 1347 :         return *this;

  00042	89 45 e8	 mov	 DWORD PTR $T4[ebp], eax
; File C:\Program Files (x86)\Microsoft Visual Studio\2019\Community\VC\Tools\MSVC\14.28.29333\include\vector

; 1733 :         return _Mypair._Get_first();

  00045	8b 45 e8	 mov	 eax, DWORD PTR $T4[ebp]
  00048	89 45 e4	 mov	 DWORD PTR $T3[ebp], eax

; 1612 :         _Destroy_range(_First, _Last, _Getal());

  0004b	ff 75 e4	 push	 DWORD PTR $T3[ebp]
  0004e	ff 75 e0	 push	 DWORD PTR __Last$[ebp]
  00051	ff 75 dc	 push	 DWORD PTR __First$[ebp]
  00054	e8 00 00 00 00	 call	 ??$_Destroy_range@V?$allocator@PAUgranny_mesh_binding@@@std@@@std@@YAXPAPAUgranny_mesh_binding@@QAPAU1@AAV?$allocator@PAUgranny_mesh_binding@@@0@@Z ; std::_Destroy_range<std::allocator<granny_mesh_binding *> >
  00059	83 c4 0c	 add	 esp, 12			; 0000000cH

; 1733 :         return _Mypair._Get_first();

  0005c	8b 45 f4	 mov	 eax, DWORD PTR _this$[ebp]
; File C:\Program Files (x86)\Microsoft Visual Studio\2019\Community\VC\Tools\MSVC\14.28.29333\include\xmemory

; 1347 :         return *this;

  0005f	89 45 d8	 mov	 DWORD PTR $T2[ebp], eax
; File C:\Program Files (x86)\Microsoft Visual Studio\2019\Community\VC\Tools\MSVC\14.28.29333\include\vector

; 1733 :         return _Mypair._Get_first();

  00062	8b 45 d8	 mov	 eax, DWORD PTR $T2[ebp]
  00065	89 45 cc	 mov	 DWORD PTR $T1[ebp], eax

; 1678 :             _Getal().deallocate(_Myfirst, static_cast<size_type>(_Myend - _Myfirst));

  00068	8b 45 ec	 mov	 eax, DWORD PTR __Myend$[ebp]
  0006b	8b 4d fc	 mov	 ecx, DWORD PTR __Myfirst$[ebp]
  0006e	8b 00		 mov	 eax, DWORD PTR [eax]
  00070	2b 01		 sub	 eax, DWORD PTR [ecx]
  00072	c1 f8 02	 sar	 eax, 2
  00075	89 45 d4	 mov	 DWORD PTR __Count$[ebp], eax
  00078	8b 45 fc	 mov	 eax, DWORD PTR __Myfirst$[ebp]
  0007b	8b 00		 mov	 eax, DWORD PTR [eax]
  0007d	89 45 d0	 mov	 DWORD PTR __Ptr$[ebp], eax
; File C:\Program Files (x86)\Microsoft Visual Studio\2019\Community\VC\Tools\MSVC\14.28.29333\include\xmemory

; 810  :         _Deallocate<_New_alignof<_Ty>>(_Ptr, sizeof(_Ty) * _Count);

  00080	8b 45 d4	 mov	 eax, DWORD PTR __Count$[ebp]
  00083	c1 e0 02	 shl	 eax, 2
  00086	50		 push	 eax
  00087	ff 75 d0	 push	 DWORD PTR __Ptr$[ebp]
  0008a	e8 00 00 00 00	 call	 ??$_Deallocate@$07$0A@@std@@YAXPAXI@Z ; std::_Deallocate<8,0>
  0008f	59		 pop	 ecx
  00090	59		 pop	 ecx
$LN2@Change_arr:
; File C:\Program Files (x86)\Microsoft Visual Studio\2019\Community\VC\Tools\MSVC\14.28.29333\include\vector

; 1681 :         _Myfirst = _Newvec;

  00091	8b 45 fc	 mov	 eax, DWORD PTR __Myfirst$[ebp]
  00094	8b 4d 08	 mov	 ecx, DWORD PTR __Newvec$[ebp]
  00097	89 08		 mov	 DWORD PTR [eax], ecx

; 1682 :         _Mylast  = _Newvec + _Newsize;

  00099	8b 45 0c	 mov	 eax, DWORD PTR __Newsize$[ebp]
  0009c	8b 4d 08	 mov	 ecx, DWORD PTR __Newvec$[ebp]
  0009f	8d 04 81	 lea	 eax, DWORD PTR [ecx+eax*4]
  000a2	8b 4d f0	 mov	 ecx, DWORD PTR __Mylast$[ebp]
  000a5	89 01		 mov	 DWORD PTR [ecx], eax

; 1683 :         _Myend   = _Newvec + _Newcapacity;

  000a7	8b 45 10	 mov	 eax, DWORD PTR __Newcapacity$[ebp]
  000aa	8b 4d 08	 mov	 ecx, DWORD PTR __Newvec$[ebp]
  000ad	8d 04 81	 lea	 eax, DWORD PTR [ecx+eax*4]
  000b0	8b 4d ec	 mov	 ecx, DWORD PTR __Myend$[ebp]
  000b3	89 01		 mov	 DWORD PTR [ecx], eax

; 1684 :     }

  000b5	c9		 leave
  000b6	c2 0c 00	 ret	 12			; 0000000cH
?_Change_array@?$vector@PAUgranny_mesh_binding@@V?$allocator@PAUgranny_mesh_binding@@@std@@@std@@AAEXQAPAUgranny_mesh_binding@@II@Z ENDP ; std::vector<granny_mesh_binding *,std::allocator<granny_mesh_binding *> >::_Change_array
_TEXT	ENDS
; Function compile flags: /Odspy
; File C:\Program Files (x86)\Microsoft Visual Studio\2019\Community\VC\Tools\MSVC\14.28.29333\include\vector
; File C:\Program Files (x86)\Microsoft Visual Studio\2019\Community\VC\Tools\MSVC\14.28.29333\include\xmemory
; File C:\Program Files (x86)\Microsoft Visual Studio\2019\Community\VC\Tools\MSVC\14.28.29333\include\vector
; File C:\Program Files (x86)\Microsoft Visual Studio\2019\Community\VC\Tools\MSVC\14.28.29333\include\xmemory
; File C:\Program Files (x86)\Microsoft Visual Studio\2019\Community\VC\Tools\MSVC\14.28.29333\include\limits
; File C:\Program Files (x86)\Microsoft Visual Studio\2019\Community\VC\Tools\MSVC\14.28.29333\include\vector
; File C:\Program Files (x86)\Microsoft Visual Studio\2019\Community\VC\Tools\MSVC\14.28.29333\include\utility
; File C:\Program Files (x86)\Microsoft Visual Studio\2019\Community\VC\Tools\MSVC\14.28.29333\include\vector
;	COMDAT ?_Calculate_growth@?$vector@PAUgranny_mesh_binding@@V?$allocator@PAUgranny_mesh_binding@@@std@@@std@@ABEII@Z
_TEXT	SEGMENT
$T1 = -52						; size = 4
$T2 = -48						; size = 4
$T3 = -44						; size = 4
$T4 = -40						; size = 4
$T5 = -36						; size = 4
__Geometric$ = -32					; size = 4
__Max$ = -28						; size = 4
tv82 = -24						; size = 4
$T6 = -20						; size = 4
$T7 = -16						; size = 4
_this$ = -12						; size = 4
__My_data$8 = -8					; size = 4
__Oldcapacity$ = -4					; size = 4
__Newsize$ = 8						; size = 4
?_Calculate_growth@?$vector@PAUgranny_mesh_binding@@V?$allocator@PAUgranny_mesh_binding@@@std@@@std@@ABEII@Z PROC ; std::vector<granny_mesh_binding *,std::allocator<granny_mesh_binding *> >::_Calculate_growth, COMDAT
; _this$ = ecx

; 1615 :     size_type _Calculate_growth(const size_type _Newsize) const {

  00000	55		 push	 ebp
  00001	8b ec		 mov	 ebp, esp
  00003	83 ec 34	 sub	 esp, 52			; 00000034H
  00006	89 4d f4	 mov	 DWORD PTR _this$[ebp], ecx

; 1493 :         auto& _My_data = _Mypair._Myval2;

  00009	8b 45 f4	 mov	 eax, DWORD PTR _this$[ebp]
  0000c	89 45 f8	 mov	 DWORD PTR __My_data$8[ebp], eax

; 1494 :         return static_cast<size_type>(_My_data._Myend - _My_data._Myfirst);

  0000f	8b 45 f8	 mov	 eax, DWORD PTR __My_data$8[ebp]
  00012	8b 4d f8	 mov	 ecx, DWORD PTR __My_data$8[ebp]
  00015	8b 40 08	 mov	 eax, DWORD PTR [eax+8]
  00018	2b 01		 sub	 eax, DWORD PTR [ecx]
  0001a	c1 f8 02	 sar	 eax, 2
  0001d	89 45 fc	 mov	 DWORD PTR __Oldcapacity$[ebp], eax

; 1737 :         return _Mypair._Get_first();

  00020	8b 45 f4	 mov	 eax, DWORD PTR _this$[ebp]
; File C:\Program Files (x86)\Microsoft Visual Studio\2019\Community\VC\Tools\MSVC\14.28.29333\include\xmemory

; 1351 :         return *this;

  00023	89 45 dc	 mov	 DWORD PTR $T5[ebp], eax
; File C:\Program Files (x86)\Microsoft Visual Studio\2019\Community\VC\Tools\MSVC\14.28.29333\include\vector

; 1737 :         return _Mypair._Get_first();

  00026	8b 45 dc	 mov	 eax, DWORD PTR $T5[ebp]
  00029	89 45 cc	 mov	 DWORD PTR $T1[ebp], eax
; File C:\Program Files (x86)\Microsoft Visual Studio\2019\Community\VC\Tools\MSVC\14.28.29333\include\xmemory

; 710  :         return static_cast<size_t>(-1) / sizeof(value_type);

  0002c	c7 45 f0 ff ff
	ff 3f		 mov	 DWORD PTR $T7[ebp], 1073741823 ; 3fffffffH
; File C:\Program Files (x86)\Microsoft Visual Studio\2019\Community\VC\Tools\MSVC\14.28.29333\include\limits

; 557  :         return INT_MAX;

  00033	c7 45 d8 ff ff
	ff 7f		 mov	 DWORD PTR $T4[ebp], 2147483647 ; 7fffffffH
; File C:\Program Files (x86)\Microsoft Visual Studio\2019\Community\VC\Tools\MSVC\14.28.29333\include\vector

; 1488 :         return (_STD min)(

  0003a	8b 45 d8	 mov	 eax, DWORD PTR $T4[ebp]
  0003d	89 45 ec	 mov	 DWORD PTR $T6[ebp], eax
; File C:\Program Files (x86)\Microsoft Visual Studio\2019\Community\VC\Tools\MSVC\14.28.29333\include\utility

; 68   :     return _Right < _Left ? _Right : _Left;

  00040	8b 45 f0	 mov	 eax, DWORD PTR $T7[ebp]
  00043	3b 45 ec	 cmp	 eax, DWORD PTR $T6[ebp]
  00046	73 08		 jae	 SHORT $LN25@Calculate_
  00048	8d 45 f0	 lea	 eax, DWORD PTR $T7[ebp]
  0004b	89 45 e8	 mov	 DWORD PTR tv82[ebp], eax
  0004e	eb 06		 jmp	 SHORT $LN26@Calculate_
$LN25@Calculate_:
  00050	8d 45 ec	 lea	 eax, DWORD PTR $T6[ebp]
  00053	89 45 e8	 mov	 DWORD PTR tv82[ebp], eax
$LN26@Calculate_:
  00056	8b 45 e8	 mov	 eax, DWORD PTR tv82[ebp]
  00059	89 45 d4	 mov	 DWORD PTR $T3[ebp], eax
  0005c	8b 45 d4	 mov	 eax, DWORD PTR $T3[ebp]
  0005f	89 45 d0	 mov	 DWORD PTR $T2[ebp], eax
; File C:\Program Files (x86)\Microsoft Visual Studio\2019\Community\VC\Tools\MSVC\14.28.29333\include\vector

; 1488 :         return (_STD min)(

  00062	8b 45 d0	 mov	 eax, DWORD PTR $T2[ebp]
  00065	8b 00		 mov	 eax, DWORD PTR [eax]
  00067	89 45 e4	 mov	 DWORD PTR __Max$[ebp], eax

; 1616 :         // given _Oldcapacity and _Newsize, calculate geometric growth
; 1617 :         const size_type _Oldcapacity = capacity();
; 1618 :         const auto _Max              = max_size();
; 1619 : 
; 1620 :         if (_Oldcapacity > _Max - _Oldcapacity / 2) {

  0006a	8b 45 fc	 mov	 eax, DWORD PTR __Oldcapacity$[ebp]
  0006d	d1 e8		 shr	 eax, 1
  0006f	8b 4d e4	 mov	 ecx, DWORD PTR __Max$[ebp]
  00072	2b c8		 sub	 ecx, eax
  00074	39 4d fc	 cmp	 DWORD PTR __Oldcapacity$[ebp], ecx
  00077	76 05		 jbe	 SHORT $LN2@Calculate_

; 1621 :             return _Max; // geometric growth would overflow

  00079	8b 45 e4	 mov	 eax, DWORD PTR __Max$[ebp]
  0007c	eb 1b		 jmp	 SHORT $LN1@Calculate_
$LN2@Calculate_:

; 1622 :         }
; 1623 : 
; 1624 :         const size_type _Geometric = _Oldcapacity + _Oldcapacity / 2;

  0007e	8b 45 fc	 mov	 eax, DWORD PTR __Oldcapacity$[ebp]
  00081	d1 e8		 shr	 eax, 1
  00083	03 45 fc	 add	 eax, DWORD PTR __Oldcapacity$[ebp]
  00086	89 45 e0	 mov	 DWORD PTR __Geometric$[ebp], eax

; 1625 : 
; 1626 :         if (_Geometric < _Newsize) {

  00089	8b 45 e0	 mov	 eax, DWORD PTR __Geometric$[ebp]
  0008c	3b 45 08	 cmp	 eax, DWORD PTR __Newsize$[ebp]
  0008f	73 05		 jae	 SHORT $LN3@Calculate_

; 1627 :             return _Newsize; // geometric growth would be insufficient

  00091	8b 45 08	 mov	 eax, DWORD PTR __Newsize$[ebp]
  00094	eb 03		 jmp	 SHORT $LN1@Calculate_
$LN3@Calculate_:

; 1628 :         }
; 1629 : 
; 1630 :         return _Geometric; // geometric growth is sufficient

  00096	8b 45 e0	 mov	 eax, DWORD PTR __Geometric$[ebp]
$LN1@Calculate_:

; 1631 :     }

  00099	c9		 leave
  0009a	c2 04 00	 ret	 4
?_Calculate_growth@?$vector@PAUgranny_mesh_binding@@V?$allocator@PAUgranny_mesh_binding@@@std@@@std@@ABEII@Z ENDP ; std::vector<granny_mesh_binding *,std::allocator<granny_mesh_binding *> >::_Calculate_growth
_TEXT	ENDS
; Function compile flags: /Odspy
; File C:\Program Files (x86)\Microsoft Visual Studio\2019\Community\VC\Tools\MSVC\14.28.29333\include\vector
; File C:\Program Files (x86)\Microsoft Visual Studio\2019\Community\VC\Tools\MSVC\14.28.29333\include\xmemory
; File C:\Program Files (x86)\Microsoft Visual Studio\2019\Community\VC\Tools\MSVC\14.28.29333\include\vector
;	COMDAT ?_Destroy@?$vector@PAUgranny_mesh_binding@@V?$allocator@PAUgranny_mesh_binding@@@std@@@std@@AAEXPAPAUgranny_mesh_binding@@0@Z
_TEXT	SEGMENT
$T1 = -12						; size = 4
$T2 = -8						; size = 4
_this$ = -4						; size = 4
__First$ = 8						; size = 4
__Last$ = 12						; size = 4
?_Destroy@?$vector@PAUgranny_mesh_binding@@V?$allocator@PAUgranny_mesh_binding@@@std@@@std@@AAEXPAPAUgranny_mesh_binding@@0@Z PROC ; std::vector<granny_mesh_binding *,std::allocator<granny_mesh_binding *> >::_Destroy, COMDAT
; _this$ = ecx

; 1611 :     void _Destroy(pointer _First, pointer _Last) { // destroy [_First, _Last) using allocator

  00000	55		 push	 ebp
  00001	8b ec		 mov	 ebp, esp
  00003	83 ec 0c	 sub	 esp, 12			; 0000000cH
  00006	89 4d fc	 mov	 DWORD PTR _this$[ebp], ecx

; 1733 :         return _Mypair._Get_first();

  00009	8b 45 fc	 mov	 eax, DWORD PTR _this$[ebp]
; File C:\Program Files (x86)\Microsoft Visual Studio\2019\Community\VC\Tools\MSVC\14.28.29333\include\xmemory

; 1347 :         return *this;

  0000c	89 45 f8	 mov	 DWORD PTR $T2[ebp], eax
; File C:\Program Files (x86)\Microsoft Visual Studio\2019\Community\VC\Tools\MSVC\14.28.29333\include\vector

; 1733 :         return _Mypair._Get_first();

  0000f	8b 45 f8	 mov	 eax, DWORD PTR $T2[ebp]
  00012	89 45 f4	 mov	 DWORD PTR $T1[ebp], eax

; 1612 :         _Destroy_range(_First, _Last, _Getal());

  00015	ff 75 f4	 push	 DWORD PTR $T1[ebp]
  00018	ff 75 0c	 push	 DWORD PTR __Last$[ebp]
  0001b	ff 75 08	 push	 DWORD PTR __First$[ebp]
  0001e	e8 00 00 00 00	 call	 ??$_Destroy_range@V?$allocator@PAUgranny_mesh_binding@@@std@@@std@@YAXPAPAUgranny_mesh_binding@@QAPAU1@AAV?$allocator@PAUgranny_mesh_binding@@@0@@Z ; std::_Destroy_range<std::allocator<granny_mesh_binding *> >
  00023	83 c4 0c	 add	 esp, 12			; 0000000cH

; 1613 :     }

  00026	c9		 leave
  00027	c2 08 00	 ret	 8
?_Destroy@?$vector@PAUgranny_mesh_binding@@V?$allocator@PAUgranny_mesh_binding@@@std@@@std@@AAEXPAPAUgranny_mesh_binding@@0@Z ENDP ; std::vector<granny_mesh_binding *,std::allocator<granny_mesh_binding *> >::_Destroy
_TEXT	ENDS
; Function compile flags: /Odspy
; File C:\Program Files (x86)\Microsoft Visual Studio\2019\Community\VC\Tools\MSVC\14.28.29333\include\vector
; File C:\Program Files (x86)\Microsoft Visual Studio\2019\Community\VC\Tools\MSVC\14.28.29333\include\xmemory
; File C:\Program Files (x86)\Microsoft Visual Studio\2019\Community\VC\Tools\MSVC\14.28.29333\include\vector
;	COMDAT ?clear@?$vector@PAUgranny_mesh_binding@@V?$allocator@PAUgranny_mesh_binding@@@std@@@std@@QAEXXZ
_TEXT	SEGMENT
__First$ = -32						; size = 4
__Last$ = -28						; size = 4
$T1 = -24						; size = 4
$T2 = -20						; size = 4
__Myfirst$ = -16					; size = 4
__Mylast$ = -12						; size = 4
_this$ = -8						; size = 4
__My_data$ = -4						; size = 4
?clear@?$vector@PAUgranny_mesh_binding@@V?$allocator@PAUgranny_mesh_binding@@@std@@@std@@QAEXXZ PROC ; std::vector<granny_mesh_binding *,std::allocator<granny_mesh_binding *> >::clear, COMDAT
; _this$ = ecx

; 1383 :     void clear() noexcept { // erase all

  00000	55		 push	 ebp
  00001	8b ec		 mov	 ebp, esp
  00003	83 ec 20	 sub	 esp, 32			; 00000020H
  00006	89 4d f8	 mov	 DWORD PTR _this$[ebp], ecx

; 1384 :         auto& _My_data    = _Mypair._Myval2;

  00009	8b 45 f8	 mov	 eax, DWORD PTR _this$[ebp]
  0000c	89 45 fc	 mov	 DWORD PTR __My_data$[ebp], eax

; 1385 :         pointer& _Myfirst = _My_data._Myfirst;

  0000f	8b 45 fc	 mov	 eax, DWORD PTR __My_data$[ebp]
  00012	89 45 f0	 mov	 DWORD PTR __Myfirst$[ebp], eax

; 1386 :         pointer& _Mylast  = _My_data._Mylast;

  00015	8b 45 fc	 mov	 eax, DWORD PTR __My_data$[ebp]
  00018	83 c0 04	 add	 eax, 4
  0001b	89 45 f4	 mov	 DWORD PTR __Mylast$[ebp], eax

; 1387 : 
; 1388 :         _My_data._Orphan_all();
; 1389 :         _Destroy(_Myfirst, _Mylast);

  0001e	8b 45 f4	 mov	 eax, DWORD PTR __Mylast$[ebp]
  00021	8b 00		 mov	 eax, DWORD PTR [eax]
  00023	89 45 e4	 mov	 DWORD PTR __Last$[ebp], eax
  00026	8b 45 f0	 mov	 eax, DWORD PTR __Myfirst$[ebp]
  00029	8b 00		 mov	 eax, DWORD PTR [eax]
  0002b	89 45 e0	 mov	 DWORD PTR __First$[ebp], eax

; 1733 :         return _Mypair._Get_first();

  0002e	8b 45 f8	 mov	 eax, DWORD PTR _this$[ebp]
; File C:\Program Files (x86)\Microsoft Visual Studio\2019\Community\VC\Tools\MSVC\14.28.29333\include\xmemory

; 1347 :         return *this;

  00031	89 45 ec	 mov	 DWORD PTR $T2[ebp], eax
; File C:\Program Files (x86)\Microsoft Visual Studio\2019\Community\VC\Tools\MSVC\14.28.29333\include\vector

; 1733 :         return _Mypair._Get_first();

  00034	8b 45 ec	 mov	 eax, DWORD PTR $T2[ebp]
  00037	89 45 e8	 mov	 DWORD PTR $T1[ebp], eax

; 1612 :         _Destroy_range(_First, _Last, _Getal());

  0003a	ff 75 e8	 push	 DWORD PTR $T1[ebp]
  0003d	ff 75 e4	 push	 DWORD PTR __Last$[ebp]
  00040	ff 75 e0	 push	 DWORD PTR __First$[ebp]
  00043	e8 00 00 00 00	 call	 ??$_Destroy_range@V?$allocator@PAUgranny_mesh_binding@@@std@@@std@@YAXPAPAUgranny_mesh_binding@@QAPAU1@AAV?$allocator@PAUgranny_mesh_binding@@@0@@Z ; std::_Destroy_range<std::allocator<granny_mesh_binding *> >
  00048	83 c4 0c	 add	 esp, 12			; 0000000cH

; 1390 :         _Mylast = _Myfirst;

  0004b	8b 45 f4	 mov	 eax, DWORD PTR __Mylast$[ebp]
  0004e	8b 4d f0	 mov	 ecx, DWORD PTR __Myfirst$[ebp]
  00051	8b 09		 mov	 ecx, DWORD PTR [ecx]
  00053	89 08		 mov	 DWORD PTR [eax], ecx

; 1391 :     }

  00055	c9		 leave
  00056	c3		 ret	 0
?clear@?$vector@PAUgranny_mesh_binding@@V?$allocator@PAUgranny_mesh_binding@@@std@@@std@@QAEXXZ ENDP ; std::vector<granny_mesh_binding *,std::allocator<granny_mesh_binding *> >::clear
_TEXT	ENDS
; Function compile flags: /Odspy
; File C:\Program Files (x86)\Microsoft Visual Studio\2019\Community\VC\Tools\MSVC\14.28.29333\include\vector
; File C:\Program Files (x86)\Microsoft Visual Studio\2019\Community\VC\Tools\MSVC\14.28.29333\include\xmemory
; File C:\Program Files (x86)\Microsoft Visual Studio\2019\Community\VC\Tools\MSVC\14.28.29333\include\vector
; File C:\Program Files (x86)\Microsoft Visual Studio\2019\Community\VC\Tools\MSVC\14.28.29333\include\xmemory
; File C:\Program Files (x86)\Microsoft Visual Studio\2019\Community\VC\Tools\MSVC\14.28.29333\include\limits
; File C:\Program Files (x86)\Microsoft Visual Studio\2019\Community\VC\Tools\MSVC\14.28.29333\include\vector
; File C:\Program Files (x86)\Microsoft Visual Studio\2019\Community\VC\Tools\MSVC\14.28.29333\include\utility
; File C:\Program Files (x86)\Microsoft Visual Studio\2019\Community\VC\Tools\MSVC\14.28.29333\include\vector
;	COMDAT ?reserve@?$vector@PAUgranny_mesh_binding@@V?$allocator@PAUgranny_mesh_binding@@@std@@@std@@QAEXI@Z
_TEXT	SEGMENT
$T1 = -48						; size = 4
$T2 = -44						; size = 4
$T3 = -40						; size = 4
$T4 = -36						; size = 4
$T5 = -32						; size = 4
$T6 = -28						; size = 4
$T7 = -24						; size = 4
tv81 = -20						; size = 4
$T8 = -16						; size = 4
$T9 = -12						; size = 4
__My_data$10 = -8					; size = 4
_this$ = -4						; size = 4
__Newcapacity$ = 8					; size = 4
?reserve@?$vector@PAUgranny_mesh_binding@@V?$allocator@PAUgranny_mesh_binding@@@std@@@std@@QAEXI@Z PROC ; std::vector<granny_mesh_binding *,std::allocator<granny_mesh_binding *> >::reserve, COMDAT
; _this$ = ecx

; 1304 :     void reserve(_CRT_GUARDOVERFLOW const size_type _Newcapacity) {

  00000	55		 push	 ebp
  00001	8b ec		 mov	 ebp, esp
  00003	83 ec 30	 sub	 esp, 48			; 00000030H
  00006	89 4d fc	 mov	 DWORD PTR _this$[ebp], ecx

; 1493 :         auto& _My_data = _Mypair._Myval2;

  00009	8b 45 fc	 mov	 eax, DWORD PTR _this$[ebp]
  0000c	89 45 f8	 mov	 DWORD PTR __My_data$10[ebp], eax

; 1494 :         return static_cast<size_type>(_My_data._Myend - _My_data._Myfirst);

  0000f	8b 45 f8	 mov	 eax, DWORD PTR __My_data$10[ebp]
  00012	8b 4d f8	 mov	 ecx, DWORD PTR __My_data$10[ebp]
  00015	8b 40 08	 mov	 eax, DWORD PTR [eax+8]
  00018	2b 01		 sub	 eax, DWORD PTR [ecx]
  0001a	c1 f8 02	 sar	 eax, 2
  0001d	89 45 e8	 mov	 DWORD PTR $T7[ebp], eax

; 1305 :         // increase capacity to _Newcapacity (without geometric growth), provide strong guarantee
; 1306 :         if (_Newcapacity > capacity()) { // something to do (reserve() never shrinks)

  00020	8b 45 08	 mov	 eax, DWORD PTR __Newcapacity$[ebp]
  00023	3b 45 e8	 cmp	 eax, DWORD PTR $T7[ebp]
  00026	76 62		 jbe	 SHORT $LN4@reserve

; 1737 :         return _Mypair._Get_first();

  00028	8b 45 fc	 mov	 eax, DWORD PTR _this$[ebp]
; File C:\Program Files (x86)\Microsoft Visual Studio\2019\Community\VC\Tools\MSVC\14.28.29333\include\xmemory

; 1351 :         return *this;

  0002b	89 45 e4	 mov	 DWORD PTR $T6[ebp], eax
; File C:\Program Files (x86)\Microsoft Visual Studio\2019\Community\VC\Tools\MSVC\14.28.29333\include\vector

; 1737 :         return _Mypair._Get_first();

  0002e	8b 45 e4	 mov	 eax, DWORD PTR $T6[ebp]
  00031	89 45 d0	 mov	 DWORD PTR $T1[ebp], eax
; File C:\Program Files (x86)\Microsoft Visual Studio\2019\Community\VC\Tools\MSVC\14.28.29333\include\xmemory

; 710  :         return static_cast<size_t>(-1) / sizeof(value_type);

  00034	c7 45 f4 ff ff
	ff 3f		 mov	 DWORD PTR $T9[ebp], 1073741823 ; 3fffffffH
; File C:\Program Files (x86)\Microsoft Visual Studio\2019\Community\VC\Tools\MSVC\14.28.29333\include\limits

; 557  :         return INT_MAX;

  0003b	c7 45 e0 ff ff
	ff 7f		 mov	 DWORD PTR $T5[ebp], 2147483647 ; 7fffffffH
; File C:\Program Files (x86)\Microsoft Visual Studio\2019\Community\VC\Tools\MSVC\14.28.29333\include\vector

; 1488 :         return (_STD min)(

  00042	8b 45 e0	 mov	 eax, DWORD PTR $T5[ebp]
  00045	89 45 f0	 mov	 DWORD PTR $T8[ebp], eax
; File C:\Program Files (x86)\Microsoft Visual Studio\2019\Community\VC\Tools\MSVC\14.28.29333\include\utility

; 68   :     return _Right < _Left ? _Right : _Left;

  00048	8b 45 f4	 mov	 eax, DWORD PTR $T9[ebp]
  0004b	3b 45 f0	 cmp	 eax, DWORD PTR $T8[ebp]
  0004e	73 08		 jae	 SHORT $LN25@reserve
  00050	8d 45 f4	 lea	 eax, DWORD PTR $T9[ebp]
  00053	89 45 ec	 mov	 DWORD PTR tv81[ebp], eax
  00056	eb 06		 jmp	 SHORT $LN26@reserve
$LN25@reserve:
  00058	8d 45 f0	 lea	 eax, DWORD PTR $T8[ebp]
  0005b	89 45 ec	 mov	 DWORD PTR tv81[ebp], eax
$LN26@reserve:
  0005e	8b 45 ec	 mov	 eax, DWORD PTR tv81[ebp]
  00061	89 45 dc	 mov	 DWORD PTR $T4[ebp], eax
  00064	8b 45 dc	 mov	 eax, DWORD PTR $T4[ebp]
  00067	89 45 d8	 mov	 DWORD PTR $T3[ebp], eax
; File C:\Program Files (x86)\Microsoft Visual Studio\2019\Community\VC\Tools\MSVC\14.28.29333\include\vector

; 1488 :         return (_STD min)(

  0006a	8b 45 d8	 mov	 eax, DWORD PTR $T3[ebp]
  0006d	8b 00		 mov	 eax, DWORD PTR [eax]
  0006f	89 45 d4	 mov	 DWORD PTR $T2[ebp], eax

; 1307 :             if (_Newcapacity > max_size()) {

  00072	8b 45 08	 mov	 eax, DWORD PTR __Newcapacity$[ebp]
  00075	3b 45 d4	 cmp	 eax, DWORD PTR $T2[ebp]
  00078	76 05		 jbe	 SHORT $LN3@reserve

; 1308 :                 _Xlength();

  0007a	e8 00 00 00 00	 call	 ?_Xlength@?$vector@PAUgranny_mesh_binding@@V?$allocator@PAUgranny_mesh_binding@@@std@@@std@@CAXXZ ; std::vector<granny_mesh_binding *,std::allocator<granny_mesh_binding *> >::_Xlength
$LN3@reserve:

; 1309 :             }
; 1310 : 
; 1311 :             _Reallocate_exactly(_Newcapacity);

  0007f	ff 75 08	 push	 DWORD PTR __Newcapacity$[ebp]
  00082	8b 4d fc	 mov	 ecx, DWORD PTR _this$[ebp]
  00085	e8 00 00 00 00	 call	 ?_Reallocate_exactly@?$vector@PAUgranny_mesh_binding@@V?$allocator@PAUgranny_mesh_binding@@@std@@@std@@AAEXI@Z ; std::vector<granny_mesh_binding *,std::allocator<granny_mesh_binding *> >::_Reallocate_exactly
$LN4@reserve:

; 1312 :         }
; 1313 :     }

  0008a	c9		 leave
  0008b	c2 04 00	 ret	 4
?reserve@?$vector@PAUgranny_mesh_binding@@V?$allocator@PAUgranny_mesh_binding@@@std@@@std@@QAEXI@Z ENDP ; std::vector<granny_mesh_binding *,std::allocator<granny_mesh_binding *> >::reserve
_TEXT	ENDS
; Function compile flags: /Odspy
; File C:\Program Files (x86)\Microsoft Visual Studio\2019\Community\VC\Tools\MSVC\14.28.29333\include\vector
; File C:\Program Files (x86)\Microsoft Visual Studio\2019\Community\VC\Tools\MSVC\14.28.29333\include\xmemory
; File C:\Program Files (x86)\Microsoft Visual Studio\2019\Community\VC\Tools\MSVC\14.28.29333\include\vector
; File C:\Program Files (x86)\Microsoft Visual Studio\2019\Community\VC\Tools\MSVC\14.28.29333\include\xmemory
; File C:\Program Files (x86)\Microsoft Visual Studio\2019\Community\VC\Tools\MSVC\14.28.29333\include\vector
; File C:\Program Files (x86)\Microsoft Visual Studio\2019\Community\VC\Tools\MSVC\14.28.29333\include\xmemory
; File C:\Program Files (x86)\Microsoft Visual Studio\2019\Community\VC\Tools\MSVC\14.28.29333\include\vector
;	COMDAT ?_Reallocate_exactly@?$vector@PAUgranny_mesh_binding@@V?$allocator@PAUgranny_mesh_binding@@@std@@@std@@AAEXI@Z
_TEXT	SEGMENT
__Max_possible$2 = -80					; size = 4
$T3 = -76						; size = 4
__Size$ = -72						; size = 4
__First$ = -68						; size = 4
__Last$ = -64						; size = 4
$T4 = -60						; size = 4
$T5 = -56						; size = 4
$T6 = -52						; size = 4
$T7 = -48						; size = 4
__Myfirst$ = -44					; size = 4
__Mylast$ = -40						; size = 4
__My_data$ = -36					; size = 4
__Newvec$ = -32						; size = 4
_this$ = -28						; size = 4
___formal$ = -24					; size = 1
__Overflow_is_possible$8 = -18				; size = 1
$T9 = -17						; size = 1
__$EHRec$ = -16						; size = 16
__Newcapacity$ = 8					; size = 4
?_Reallocate_exactly@?$vector@PAUgranny_mesh_binding@@V?$allocator@PAUgranny_mesh_binding@@@std@@@std@@AAEXI@Z PROC ; std::vector<granny_mesh_binding *,std::allocator<granny_mesh_binding *> >::_Reallocate_exactly, COMDAT
; _this$ = ecx

; 1251 :     void _Reallocate_exactly(const size_type _Newcapacity) {

  00000	55		 push	 ebp
  00001	8b ec		 mov	 ebp, esp
  00003	6a ff		 push	 -1
  00005	68 00 00 00 00	 push	 __ehhandler$?_Reallocate_exactly@?$vector@PAUgranny_mesh_binding@@V?$allocator@PAUgranny_mesh_binding@@@std@@@std@@AAEXI@Z
  0000a	64 a1 00 00 00
	00		 mov	 eax, DWORD PTR fs:0
  00010	50		 push	 eax
  00011	51		 push	 ecx
  00012	83 ec 40	 sub	 esp, 64			; 00000040H
  00015	53		 push	 ebx
  00016	56		 push	 esi
  00017	57		 push	 edi
  00018	a1 00 00 00 00	 mov	 eax, DWORD PTR ___security_cookie
  0001d	33 c5		 xor	 eax, ebp
  0001f	50		 push	 eax
  00020	8d 45 f4	 lea	 eax, DWORD PTR __$EHRec$[ebp+4]
  00023	64 a3 00 00 00
	00		 mov	 DWORD PTR fs:0, eax
  00029	89 65 f0	 mov	 DWORD PTR __$EHRec$[ebp], esp
  0002c	89 4d e4	 mov	 DWORD PTR _this$[ebp], ecx

; 1252 :         // set capacity to _Newcapacity (without geometric growth), provide strong guarantee
; 1253 :         auto& _My_data    = _Mypair._Myval2;

  0002f	8b 45 e4	 mov	 eax, DWORD PTR _this$[ebp]
  00032	89 45 dc	 mov	 DWORD PTR __My_data$[ebp], eax

; 1254 :         pointer& _Myfirst = _My_data._Myfirst;

  00035	8b 45 dc	 mov	 eax, DWORD PTR __My_data$[ebp]
  00038	89 45 d4	 mov	 DWORD PTR __Myfirst$[ebp], eax

; 1255 :         pointer& _Mylast  = _My_data._Mylast;

  0003b	8b 45 dc	 mov	 eax, DWORD PTR __My_data$[ebp]
  0003e	83 c0 04	 add	 eax, 4
  00041	89 45 d8	 mov	 DWORD PTR __Mylast$[ebp], eax

; 1256 : 
; 1257 :         const auto _Size = static_cast<size_type>(_Mylast - _Myfirst);

  00044	8b 45 d8	 mov	 eax, DWORD PTR __Mylast$[ebp]
  00047	8b 4d d4	 mov	 ecx, DWORD PTR __Myfirst$[ebp]
  0004a	8b 00		 mov	 eax, DWORD PTR [eax]
  0004c	2b 01		 sub	 eax, DWORD PTR [ecx]
  0004e	c1 f8 02	 sar	 eax, 2
  00051	89 45 b8	 mov	 DWORD PTR __Size$[ebp], eax

; 1733 :         return _Mypair._Get_first();

  00054	8b 45 e4	 mov	 eax, DWORD PTR _this$[ebp]
; File C:\Program Files (x86)\Microsoft Visual Studio\2019\Community\VC\Tools\MSVC\14.28.29333\include\xmemory

; 1347 :         return *this;

  00057	89 45 d0	 mov	 DWORD PTR $T7[ebp], eax
; File C:\Program Files (x86)\Microsoft Visual Studio\2019\Community\VC\Tools\MSVC\14.28.29333\include\vector

; 1733 :         return _Mypair._Get_first();

  0005a	8b 45 d0	 mov	 eax, DWORD PTR $T7[ebp]
  0005d	89 45 b4	 mov	 DWORD PTR $T3[ebp], eax
; File C:\Program Files (x86)\Microsoft Visual Studio\2019\Community\VC\Tools\MSVC\14.28.29333\include\xmemory

; 56   :     constexpr bool _Overflow_is_possible = _Ty_size > 1;

  00060	c6 45 ee 01	 mov	 BYTE PTR __Overflow_is_possible$8[ebp], 1

; 57   : 
; 58   :     if _CONSTEXPR_IF (_Overflow_is_possible) {
; 59   :         constexpr size_t _Max_possible = static_cast<size_t>(-1) / _Ty_size;

  00064	c7 45 b0 ff ff
	ff 3f		 mov	 DWORD PTR __Max_possible$2[ebp], 1073741823 ; 3fffffffH

; 60   :         if (_Count > _Max_possible) {

  0006b	81 7d 08 ff ff
	ff 3f		 cmp	 DWORD PTR __Newcapacity$[ebp], 1073741823 ; 3fffffffH
  00072	76 05		 jbe	 SHORT $LN17@Reallocate

; 61   :             _Throw_bad_array_new_length(); // multiply overflow

  00074	e8 00 00 00 00	 call	 ?_Throw_bad_array_new_length@std@@YAXXZ ; std::_Throw_bad_array_new_length
$LN17@Reallocate:

; 62   :         }
; 63   :     }
; 64   : 
; 65   :     return _Count * _Ty_size;

  00079	8b 45 08	 mov	 eax, DWORD PTR __Newcapacity$[ebp]
  0007c	c1 e0 02	 shl	 eax, 2
  0007f	89 45 cc	 mov	 DWORD PTR $T6[ebp], eax

; 814  :         return static_cast<_Ty*>(_Allocate<_New_alignof<_Ty>>(_Get_size_of_n<sizeof(_Ty)>(_Count)));

  00082	ff 75 cc	 push	 DWORD PTR $T6[ebp]
  00085	e8 00 00 00 00	 call	 ??$_Allocate@$07U_Default_allocate_traits@std@@$0A@@std@@YAPAXI@Z ; std::_Allocate<8,std::_Default_allocate_traits,0>
  0008a	59		 pop	 ecx
  0008b	89 45 e0	 mov	 DWORD PTR __Newvec$[ebp], eax
; File C:\Program Files (x86)\Microsoft Visual Studio\2019\Community\VC\Tools\MSVC\14.28.29333\include\vector

; 1261 :         _TRY_BEGIN

  0008e	83 65 fc 00	 and	 DWORD PTR __$EHRec$[ebp+12], 0

; 1262 :         _Umove_if_noexcept(_Myfirst, _Mylast, _Newvec);

  00092	8b 45 d8	 mov	 eax, DWORD PTR __Mylast$[ebp]
  00095	8b 00		 mov	 eax, DWORD PTR [eax]
  00097	89 45 c0	 mov	 DWORD PTR __Last$[ebp], eax
  0009a	8b 45 d4	 mov	 eax, DWORD PTR __Myfirst$[ebp]
  0009d	8b 00		 mov	 eax, DWORD PTR [eax]
  0009f	89 45 bc	 mov	 DWORD PTR __First$[ebp], eax

; 1607 :         _Umove_if_noexcept1(_First, _Last, _Dest,

  000a2	33 c0		 xor	 eax, eax
  000a4	88 45 ef	 mov	 BYTE PTR $T9[ebp], al
  000a7	8a 45 ef	 mov	 al, BYTE PTR $T9[ebp]
  000aa	88 45 e8	 mov	 BYTE PTR ___formal$[ebp], al

; 1733 :         return _Mypair._Get_first();

  000ad	8b 45 e4	 mov	 eax, DWORD PTR _this$[ebp]
; File C:\Program Files (x86)\Microsoft Visual Studio\2019\Community\VC\Tools\MSVC\14.28.29333\include\xmemory

; 1347 :         return *this;

  000b0	89 45 c8	 mov	 DWORD PTR $T5[ebp], eax
; File C:\Program Files (x86)\Microsoft Visual Studio\2019\Community\VC\Tools\MSVC\14.28.29333\include\vector

; 1733 :         return _Mypair._Get_first();

  000b3	8b 45 c8	 mov	 eax, DWORD PTR $T5[ebp]
  000b6	89 45 c4	 mov	 DWORD PTR $T4[ebp], eax

; 1597 :         _Uninitialized_move(_First, _Last, _Dest, _Getal());

  000b9	ff 75 c4	 push	 DWORD PTR $T4[ebp]
  000bc	ff 75 e0	 push	 DWORD PTR __Newvec$[ebp]
  000bf	ff 75 c0	 push	 DWORD PTR __Last$[ebp]
  000c2	ff 75 bc	 push	 DWORD PTR __First$[ebp]
  000c5	e8 00 00 00 00	 call	 ??$_Uninitialized_move@PAPAUgranny_mesh_binding@@V?$allocator@PAUgranny_mesh_binding@@@std@@@std@@YAPAPAUgranny_mesh_binding@@QAPAU1@0PAPAU1@AAV?$allocator@PAUgranny_mesh_binding@@@0@@Z ; std::_Uninitialized_move<granny_mesh_binding * *,std::allocator<granny_mesh_binding *> >
  000ca	83 c4 10	 add	 esp, 16			; 00000010H

; 1262 :         _Umove_if_noexcept(_Myfirst, _Mylast, _Newvec);

  000cd	eb 24		 jmp	 SHORT $LN4@Reallocate
__catch$?_Reallocate_exactly@?$vector@PAUgranny_mesh_binding@@V?$allocator@PAUgranny_mesh_binding@@@std@@@std@@AAEXI@Z$0:

; 1263 :         _CATCH_ALL
; 1264 :         _Getal().deallocate(_Newvec, _Newcapacity);

  000cf	ff 75 08	 push	 DWORD PTR __Newcapacity$[ebp]
  000d2	ff 75 e0	 push	 DWORD PTR __Newvec$[ebp]
  000d5	8b 4d e4	 mov	 ecx, DWORD PTR _this$[ebp]
  000d8	e8 00 00 00 00	 call	 ?_Getal@?$vector@PAUgranny_mesh_binding@@V?$allocator@PAUgranny_mesh_binding@@@std@@@std@@AAEAAV?$allocator@PAUgranny_mesh_binding@@@2@XZ ; std::vector<granny_mesh_binding *,std::allocator<granny_mesh_binding *> >::_Getal
  000dd	8b c8		 mov	 ecx, eax
  000df	e8 00 00 00 00	 call	 ?deallocate@?$allocator@PAUgranny_mesh_binding@@@std@@QAEXQAPAUgranny_mesh_binding@@I@Z ; std::allocator<granny_mesh_binding *>::deallocate

; 1265 :         _RERAISE;

  000e4	6a 00		 push	 0
  000e6	6a 00		 push	 0
  000e8	e8 00 00 00 00	 call	 __CxxThrowException@8

; 1266 :         _CATCH_END

  000ed	b8 00 00 00 00	 mov	 eax, $LN7@Reallocate
  000f2	c3		 ret	 0
$LN4@Reallocate:
  000f3	83 4d fc ff	 or	 DWORD PTR __$EHRec$[ebp+12], -1
  000f7	eb 04		 jmp	 SHORT __tryend$?_Reallocate_exactly@?$vector@PAUgranny_mesh_binding@@V?$allocator@PAUgranny_mesh_binding@@@std@@@std@@AAEXI@Z$1
$LN7@Reallocate:
; File C:\Program Files (x86)\Microsoft Visual Studio\2019\Community\VC\Tools\MSVC\14.28.29333\include\xmemory
  000f9	83 4d fc ff	 or	 DWORD PTR __$EHRec$[ebp+12], -1
__tryend$?_Reallocate_exactly@?$vector@PAUgranny_mesh_binding@@V?$allocator@PAUgranny_mesh_binding@@@std@@@std@@AAEXI@Z$1:
; File C:\Program Files (x86)\Microsoft Visual Studio\2019\Community\VC\Tools\MSVC\14.28.29333\include\vector

; 1267 : 
; 1268 :         _Change_array(_Newvec, _Size, _Newcapacity);

  000fd	ff 75 08	 push	 DWORD PTR __Newcapacity$[ebp]
  00100	ff 75 b8	 push	 DWORD PTR __Size$[ebp]
  00103	ff 75 e0	 push	 DWORD PTR __Newvec$[ebp]
  00106	8b 4d e4	 mov	 ecx, DWORD PTR _this$[ebp]
  00109	e8 00 00 00 00	 call	 ?_Change_array@?$vector@PAUgranny_mesh_binding@@V?$allocator@PAUgranny_mesh_binding@@@std@@@std@@AAEXQAPAUgranny_mesh_binding@@II@Z ; std::vector<granny_mesh_binding *,std::allocator<granny_mesh_binding *> >::_Change_array
$LN20@Reallocate:

; 1269 :     }

  0010e	8b 4d f4	 mov	 ecx, DWORD PTR __$EHRec$[ebp+4]
  00111	64 89 0d 00 00
	00 00		 mov	 DWORD PTR fs:0, ecx
  00118	59		 pop	 ecx
  00119	5f		 pop	 edi
  0011a	5e		 pop	 esi
  0011b	5b		 pop	 ebx
  0011c	c9		 leave
  0011d	c2 04 00	 ret	 4
  00120	cc		 int	 3
  00121	cc		 int	 3
  00122	cc		 int	 3
  00123	cc		 int	 3
  00124	cc		 int	 3
_TEXT	ENDS
;	COMDAT text$x
text$x	SEGMENT
__ehhandler$?_Reallocate_exactly@?$vector@PAUgranny_mesh_binding@@V?$allocator@PAUgranny_mesh_binding@@@std@@@std@@AAEXI@Z:
  00000	90		 npad	 1
  00001	90		 npad	 1
  00002	8b 54 24 08	 mov	 edx, DWORD PTR [esp+8]
  00006	8d 42 0c	 lea	 eax, DWORD PTR [edx+12]
  00009	8b 4a ac	 mov	 ecx, DWORD PTR [edx-84]
  0000c	33 c8		 xor	 ecx, eax
  0000e	e8 00 00 00 00	 call	 @__security_check_cookie@4
  00013	b8 00 00 00 00	 mov	 eax, OFFSET __ehfuncinfo$?_Reallocate_exactly@?$vector@PAUgranny_mesh_binding@@V?$allocator@PAUgranny_mesh_binding@@@std@@@std@@AAEXI@Z
  00018	e9 00 00 00 00	 jmp	 ___CxxFrameHandler3
text$x	ENDS
?_Reallocate_exactly@?$vector@PAUgranny_mesh_binding@@V?$allocator@PAUgranny_mesh_binding@@@std@@@std@@AAEXI@Z ENDP ; std::vector<granny_mesh_binding *,std::allocator<granny_mesh_binding *> >::_Reallocate_exactly
; Function compile flags: /Odspy
; File C:\Program Files (x86)\Microsoft Visual Studio\2019\Community\VC\Tools\MSVC\14.28.29333\include\xmemory
;	COMDAT ?deallocate@?$allocator@PAUgranny_mesh_binding@@@std@@QAEXQAPAUgranny_mesh_binding@@I@Z
_TEXT	SEGMENT
_this$ = -4						; size = 4
__Ptr$ = 8						; size = 4
__Count$ = 12						; size = 4
?deallocate@?$allocator@PAUgranny_mesh_binding@@@std@@QAEXQAPAUgranny_mesh_binding@@I@Z PROC ; std::allocator<granny_mesh_binding *>::deallocate, COMDAT
; _this$ = ecx

; 808  :     void deallocate(_Ty* const _Ptr, const size_t _Count) {

  00000	55		 push	 ebp
  00001	8b ec		 mov	 ebp, esp
  00003	51		 push	 ecx
  00004	89 4d fc	 mov	 DWORD PTR _this$[ebp], ecx

; 809  :         // no overflow check on the following multiply; we assume _Allocate did that check
; 810  :         _Deallocate<_New_alignof<_Ty>>(_Ptr, sizeof(_Ty) * _Count);

  00007	8b 45 0c	 mov	 eax, DWORD PTR __Count$[ebp]
  0000a	c1 e0 02	 shl	 eax, 2
  0000d	50		 push	 eax
  0000e	ff 75 08	 push	 DWORD PTR __Ptr$[ebp]
  00011	e8 00 00 00 00	 call	 ??$_Deallocate@$07$0A@@std@@YAXPAXI@Z ; std::_Deallocate<8,0>
  00016	59		 pop	 ecx
  00017	59		 pop	 ecx

; 811  :     }

  00018	c9		 leave
  00019	c2 08 00	 ret	 8
?deallocate@?$allocator@PAUgranny_mesh_binding@@@std@@QAEXQAPAUgranny_mesh_binding@@I@Z ENDP ; std::allocator<granny_mesh_binding *>::deallocate
_TEXT	ENDS
; Function compile flags: /Odspy
; File D:\Metin2 Server Files\mainline\SRC_2014\Metin2Client\eterGrnLib\ModelInstanceModel.cpp
;	COMDAT ?__GetWorldPosePtr@CGrannyModelInstance@@IBEPAUgranny_world_pose@@XZ
_TEXT	SEGMENT
_this$ = -4						; size = 4
?__GetWorldPosePtr@CGrannyModelInstance@@IBEPAUgranny_world_pose@@XZ PROC ; CGrannyModelInstance::__GetWorldPosePtr, COMDAT
; _this$ = ecx

; 66   : {

  00000	55		 push	 ebp
  00001	8b ec		 mov	 ebp, esp
  00003	51		 push	 ecx
  00004	89 4d fc	 mov	 DWORD PTR _this$[ebp], ecx

; 67   : 	if (m_pgrnWorldPoseReal)

  00007	8b 45 fc	 mov	 eax, DWORD PTR _this$[ebp]
  0000a	83 78 3c 00	 cmp	 DWORD PTR [eax+60], 0
  0000e	74 08		 je	 SHORT $LN2@GetWorldPo

; 68   : 		return m_pgrnWorldPoseReal;

  00010	8b 45 fc	 mov	 eax, DWORD PTR _this$[ebp]
  00013	8b 40 3c	 mov	 eax, DWORD PTR [eax+60]
  00016	eb 23		 jmp	 SHORT $LN1@GetWorldPo
$LN2@GetWorldPo:

; 69   : 	
; 70   : 	if (m_ppkSkeletonInst && *m_ppkSkeletonInst)

  00018	8b 45 fc	 mov	 eax, DWORD PTR _this$[ebp]
  0001b	83 78 74 00	 cmp	 DWORD PTR [eax+116], 0
  0001f	74 18		 je	 SHORT $LN3@GetWorldPo
  00021	8b 45 fc	 mov	 eax, DWORD PTR _this$[ebp]
  00024	8b 40 74	 mov	 eax, DWORD PTR [eax+116]
  00027	83 38 00	 cmp	 DWORD PTR [eax], 0
  0002a	74 0d		 je	 SHORT $LN3@GetWorldPo

; 71   : 		return (*m_ppkSkeletonInst)->m_pgrnWorldPoseReal;

  0002c	8b 45 fc	 mov	 eax, DWORD PTR _this$[ebp]
  0002f	8b 40 74	 mov	 eax, DWORD PTR [eax+116]
  00032	8b 00		 mov	 eax, DWORD PTR [eax]
  00034	8b 40 3c	 mov	 eax, DWORD PTR [eax+60]
  00037	eb 02		 jmp	 SHORT $LN1@GetWorldPo
$LN3@GetWorldPo:

; 72   : 
; 73   : 	assert(m_ppkSkeletonInst!=NULL && "__GetWorldPosePtr - NO HAVE SKELETON");		
; 74   : 	return NULL;	

  00039	33 c0		 xor	 eax, eax
$LN1@GetWorldPo:

; 75   : }

  0003b	c9		 leave
  0003c	c3		 ret	 0
?__GetWorldPosePtr@CGrannyModelInstance@@IBEPAUgranny_world_pose@@XZ ENDP ; CGrannyModelInstance::__GetWorldPosePtr
_TEXT	ENDS
; Function compile flags: /Odspy
; File D:\Metin2 Server Files\mainline\SRC_2014\Metin2Client\eterGrnLib\ModelInstanceModel.cpp
;	COMDAT ?__GetDeformableVertexBufferRef@CGrannyModelInstance@@IAEAAVCGraphicVertexBuffer@@XZ
_TEXT	SEGMENT
_this$ = -4						; size = 4
?__GetDeformableVertexBufferRef@CGrannyModelInstance@@IAEAAVCGraphicVertexBuffer@@XZ PROC ; CGrannyModelInstance::__GetDeformableVertexBufferRef, COMDAT
; _this$ = ecx

; 217  : {

  00000	55		 push	 ebp
  00001	8b ec		 mov	 ebp, esp
  00003	51		 push	 ecx
  00004	89 4d fc	 mov	 DWORD PTR _this$[ebp], ecx

; 218  : 	if (m_pkSharedDeformableVertexBuffer)

  00007	8b 45 fc	 mov	 eax, DWORD PTR _this$[ebp]
  0000a	83 78 4c 00	 cmp	 DWORD PTR [eax+76], 0
  0000e	74 08		 je	 SHORT $LN2@GetDeforma

; 219  : 		return *m_pkSharedDeformableVertexBuffer;

  00010	8b 45 fc	 mov	 eax, DWORD PTR _this$[ebp]
  00013	8b 40 4c	 mov	 eax, DWORD PTR [eax+76]
  00016	eb 06		 jmp	 SHORT $LN1@GetDeforma
$LN2@GetDeforma:

; 220  : 
; 221  : 	return m_kLocalDeformableVertexBuffer;

  00018	8b 45 fc	 mov	 eax, DWORD PTR _this$[ebp]
  0001b	83 c0 50	 add	 eax, 80			; 00000050H
$LN1@GetDeforma:

; 222  : }

  0001e	c9		 leave
  0001f	c3		 ret	 0
?__GetDeformableVertexBufferRef@CGrannyModelInstance@@IAEAAVCGraphicVertexBuffer@@XZ ENDP ; CGrannyModelInstance::__GetDeformableVertexBufferRef
_TEXT	ENDS
; Function compile flags: /Odspy
; File D:\Metin2 Server Files\mainline\SRC_2014\Metin2Client\eterGrnLib\ModelInstanceModel.cpp
; File D:\Metin2 Server Files\mainline\SRC_2014\Metin2Client\eterlib\GrpVertexBuffer.h
; File D:\Metin2 Server Files\mainline\SRC_2014\Metin2Client\eterGrnLib\ModelInstanceModel.cpp
;	COMDAT ?__GetDeformableD3DVertexBufferPtr@CGrannyModelInstance@@IAEPAUIDirect3DVertexBuffer8@@XZ
_TEXT	SEGMENT
$T1 = -12						; size = 4
_this$ = -8						; size = 4
_this$ = -4						; size = 4
?__GetDeformableD3DVertexBufferPtr@CGrannyModelInstance@@IAEPAUIDirect3DVertexBuffer8@@XZ PROC ; CGrannyModelInstance::__GetDeformableD3DVertexBufferPtr, COMDAT
; _this$ = ecx

; 212  : {

  00000	55		 push	 ebp
  00001	8b ec		 mov	 ebp, esp
  00003	83 ec 0c	 sub	 esp, 12			; 0000000cH
  00006	89 4d fc	 mov	 DWORD PTR _this$[ebp], ecx

; 213  : 	return __GetDeformableVertexBufferRef().GetD3DVertexBuffer();

  00009	8b 4d fc	 mov	 ecx, DWORD PTR _this$[ebp]
  0000c	e8 00 00 00 00	 call	 ?__GetDeformableVertexBufferRef@CGrannyModelInstance@@IAEAAVCGraphicVertexBuffer@@XZ ; CGrannyModelInstance::__GetDeformableVertexBufferRef
  00011	89 45 f8	 mov	 DWORD PTR _this$[ebp], eax
; File D:\Metin2 Server Files\mainline\SRC_2014\Metin2Client\eterlib\GrpVertexBuffer.h

; 33   : 		inline	LPDIRECT3DVERTEXBUFFER8 GetD3DVertexBuffer() const	{ return m_lpd3dVB; }

  00014	8b 45 f8	 mov	 eax, DWORD PTR _this$[ebp]
  00017	8b 40 04	 mov	 eax, DWORD PTR [eax+4]
  0001a	89 45 f4	 mov	 DWORD PTR $T1[ebp], eax
; File D:\Metin2 Server Files\mainline\SRC_2014\Metin2Client\eterGrnLib\ModelInstanceModel.cpp

; 213  : 	return __GetDeformableVertexBufferRef().GetD3DVertexBuffer();

  0001d	8b 45 f4	 mov	 eax, DWORD PTR $T1[ebp]

; 214  : }

  00020	c9		 leave
  00021	c3		 ret	 0
?__GetDeformableD3DVertexBufferPtr@CGrannyModelInstance@@IAEPAUIDirect3DVertexBuffer8@@XZ ENDP ; CGrannyModelInstance::__GetDeformableD3DVertexBufferPtr
_TEXT	ENDS
; Function compile flags: /Odspy
; File D:\Metin2 Server Files\mainline\SRC_2014\Metin2Client\eterGrnLib\ModelInstanceModel.cpp
;	COMDAT ?__SetSharedDeformableVertexBuffer@CGrannyModelInstance@@IAEXPAVCGraphicVertexBuffer@@@Z
_TEXT	SEGMENT
_this$ = -4						; size = 4
_pkSharedDeformableVertexBuffer$ = 8			; size = 4
?__SetSharedDeformableVertexBuffer@CGrannyModelInstance@@IAEXPAVCGraphicVertexBuffer@@@Z PROC ; CGrannyModelInstance::__SetSharedDeformableVertexBuffer, COMDAT
; _this$ = ecx

; 199  : {

  00000	55		 push	 ebp
  00001	8b ec		 mov	 ebp, esp
  00003	51		 push	 ecx
  00004	89 4d fc	 mov	 DWORD PTR _this$[ebp], ecx

; 200  : 	m_pkSharedDeformableVertexBuffer = pkSharedDeformableVertexBuffer;

  00007	8b 45 fc	 mov	 eax, DWORD PTR _this$[ebp]
  0000a	8b 4d 08	 mov	 ecx, DWORD PTR _pkSharedDeformableVertexBuffer$[ebp]
  0000d	89 48 4c	 mov	 DWORD PTR [eax+76], ecx

; 201  : }

  00010	c9		 leave
  00011	c2 04 00	 ret	 4
?__SetSharedDeformableVertexBuffer@CGrannyModelInstance@@IAEXPAVCGraphicVertexBuffer@@@Z ENDP ; CGrannyModelInstance::__SetSharedDeformableVertexBuffer
_TEXT	ENDS
; Function compile flags: /Odspy
; File D:\Metin2 Server Files\mainline\SRC_2014\Metin2Client\eterGrnLib\ModelInstanceModel.cpp
;	COMDAT ?__IsDeformableVertexBuffer@CGrannyModelInstance@@IAE_NXZ
_TEXT	SEGMENT
_this$ = -4						; size = 4
?__IsDeformableVertexBuffer@CGrannyModelInstance@@IAE_NXZ PROC ; CGrannyModelInstance::__IsDeformableVertexBuffer, COMDAT
; _this$ = ecx

; 204  : {

  00000	55		 push	 ebp
  00001	8b ec		 mov	 ebp, esp
  00003	51		 push	 ecx
  00004	89 4d fc	 mov	 DWORD PTR _this$[ebp], ecx

; 205  : 	if (m_pkSharedDeformableVertexBuffer)

  00007	8b 45 fc	 mov	 eax, DWORD PTR _this$[ebp]
  0000a	83 78 4c 00	 cmp	 DWORD PTR [eax+76], 0
  0000e	74 04		 je	 SHORT $LN2@IsDeformab

; 206  : 		return true;

  00010	b0 01		 mov	 al, 1
  00012	eb 0b		 jmp	 SHORT $LN1@IsDeformab
$LN2@IsDeformab:

; 207  : 
; 208  : 	return m_kLocalDeformableVertexBuffer.IsEmpty();

  00014	8b 4d fc	 mov	 ecx, DWORD PTR _this$[ebp]
  00017	83 c1 50	 add	 ecx, 80			; 00000050H
  0001a	e8 00 00 00 00	 call	 ?IsEmpty@CGraphicVertexBuffer@@QBE_NXZ ; CGraphicVertexBuffer::IsEmpty
$LN1@IsDeformab:

; 209  : }

  0001f	c9		 leave
  00020	c3		 ret	 0
?__IsDeformableVertexBuffer@CGrannyModelInstance@@IAE_NXZ ENDP ; CGrannyModelInstance::__IsDeformableVertexBuffer
_TEXT	ENDS
; Function compile flags: /Odspy
; File D:\Metin2 Server Files\mainline\SRC_2014\Metin2Client\eterGrnLib\ModelInstanceModel.cpp
; File C:\Program Files (x86)\Microsoft Visual Studio\2019\Community\VC\Tools\MSVC\14.28.29333\include\vector
; File D:\Metin2 Server Files\mainline\SRC_2014\Metin2Client\eterGrnLib\ModelInstanceModel.cpp
;	COMDAT ?__GetMeshBoneIndices@CGrannyModelInstance@@IBEPAHI@Z
_TEXT	SEGMENT
$T1 = -12						; size = 4
__My_data$2 = -8					; size = 4
_this$ = -4						; size = 4
_iMeshBinding$ = 8					; size = 4
?__GetMeshBoneIndices@CGrannyModelInstance@@IBEPAHI@Z PROC ; CGrannyModelInstance::__GetMeshBoneIndices, COMDAT
; _this$ = ecx

; 78   : {

  00000	55		 push	 ebp
  00001	8b ec		 mov	 ebp, esp
  00003	83 ec 0c	 sub	 esp, 12			; 0000000cH
  00006	89 4d fc	 mov	 DWORD PTR _this$[ebp], ecx
; File C:\Program Files (x86)\Microsoft Visual Studio\2019\Community\VC\Tools\MSVC\14.28.29333\include\vector

; 1508 :         auto& _My_data = _Mypair._Myval2;

  00009	8b 45 fc	 mov	 eax, DWORD PTR _this$[ebp]
  0000c	83 c0 40	 add	 eax, 64			; 00000040H
  0000f	89 45 f8	 mov	 DWORD PTR __My_data$2[ebp], eax

; 1509 : #if _CONTAINER_DEBUG_LEVEL > 0
; 1510 :         _STL_VERIFY(
; 1511 :             _Pos < static_cast<size_type>(_My_data._Mylast - _My_data._Myfirst), "vector subscript out of range");
; 1512 : #endif // _CONTAINER_DEBUG_LEVEL > 0
; 1513 : 
; 1514 :         return _My_data._Myfirst[_Pos];

  00012	8b 45 f8	 mov	 eax, DWORD PTR __My_data$2[ebp]
  00015	8b 00		 mov	 eax, DWORD PTR [eax]
  00017	8b 4d 08	 mov	 ecx, DWORD PTR _iMeshBinding$[ebp]
  0001a	8d 04 88	 lea	 eax, DWORD PTR [eax+ecx*4]
  0001d	89 45 f4	 mov	 DWORD PTR $T1[ebp], eax
; File D:\Metin2 Server Files\mainline\SRC_2014\Metin2Client\eterGrnLib\ModelInstanceModel.cpp

; 80   : 	return (int*)GrannyGetMeshBindingToBoneIndices(m_vct_pgrnMeshBinding[iMeshBinding]);

  00020	8b 45 f4	 mov	 eax, DWORD PTR $T1[ebp]
  00023	ff 30		 push	 DWORD PTR [eax]
  00025	ff 15 00 00 00
	00		 call	 DWORD PTR __imp__GrannyGetMeshBindingToBoneIndices@4

; 81   : }

  0002b	c9		 leave
  0002c	c2 04 00	 ret	 4
?__GetMeshBoneIndices@CGrannyModelInstance@@IBEPAHI@Z ENDP ; CGrannyModelInstance::__GetMeshBoneIndices
_TEXT	ENDS
; Function compile flags: /Odspy
; File D:\Metin2 Server Files\mainline\SRC_2014\Metin2Client\eterGrnLib\ModelInstanceModel.cpp
; File C:\Program Files (x86)\Microsoft Visual Studio\2019\Community\VC\Tools\MSVC\14.28.29333\include\vector
; File C:\Program Files (x86)\Microsoft Visual Studio\2019\Community\VC\Tools\MSVC\14.28.29333\include\xstddef
; File C:\Program Files (x86)\Microsoft Visual Studio\2019\Community\VC\Tools\MSVC\14.28.29333\include\vector
; File C:\Program Files (x86)\Microsoft Visual Studio\2019\Community\VC\Tools\MSVC\14.28.29333\include\xstddef
; File C:\Program Files (x86)\Microsoft Visual Studio\2019\Community\VC\Tools\MSVC\14.28.29333\include\vector
; File D:\Metin2 Server Files\mainline\SRC_2014\Metin2Client\eterGrnLib\ModelInstanceModel.cpp
; File C:\Program Files (x86)\Microsoft Visual Studio\2019\Community\VC\Tools\MSVC\14.28.29333\include\vector
; File C:\Program Files (x86)\Microsoft Visual Studio\2019\Community\VC\Tools\MSVC\14.28.29333\include\xstddef
; File C:\Program Files (x86)\Microsoft Visual Studio\2019\Community\VC\Tools\MSVC\14.28.29333\include\vector
; File C:\Program Files (x86)\Microsoft Visual Studio\2019\Community\VC\Tools\MSVC\14.28.29333\include\algorithm
; File C:\Program Files (x86)\Microsoft Visual Studio\2019\Community\VC\Tools\MSVC\14.28.29333\include\vector
; File C:\Program Files (x86)\Microsoft Visual Studio\2019\Community\VC\Tools\MSVC\14.28.29333\include\xstddef
; File C:\Program Files (x86)\Microsoft Visual Studio\2019\Community\VC\Tools\MSVC\14.28.29333\include\vector
; File C:\Program Files (x86)\Microsoft Visual Studio\2019\Community\VC\Tools\MSVC\14.28.29333\include\algorithm
; File D:\Metin2 Server Files\mainline\SRC_2014\Metin2Client\eterGrnLib\ModelInstanceModel.cpp
;	COMDAT ?__DestroyMeshBindingVector@CGrannyModelInstance@@IAEXXZ
_TEXT	SEGMENT
$T1 = -88						; size = 4
$T2 = -84						; size = 4
__Func$ = -80						; size = 4
__ULast$3 = -76						; size = 4
$T4 = -72						; size = 4
$T5 = -68						; size = 4
__Ptr$6 = -64						; size = 4
__Last$ = -60						; size = 4
$T7 = -56						; size = 4
$T8 = -52						; size = 4
__Ptr$9 = -48						; size = 4
__First$ = -44						; size = 4
$T10 = -40						; size = 4
$T11 = -36						; size = 4
$T12 = -32						; size = 4
___param0$ = -28					; size = 4
$T13 = -24						; size = 4
___param0$ = -20					; size = 4
__My_data$14 = -16					; size = 4
__My_data$15 = -12					; size = 4
_this$ = -8						; size = 4
__UFirst$16 = -4					; size = 4
?__DestroyMeshBindingVector@CGrannyModelInstance@@IAEXXZ PROC ; CGrannyModelInstance::__DestroyMeshBindingVector, COMDAT
; _this$ = ecx

; 108  : {

  00000	55		 push	 ebp
  00001	8b ec		 mov	 ebp, esp
  00003	83 ec 58	 sub	 esp, 88			; 00000058H
  00006	89 4d f8	 mov	 DWORD PTR _this$[ebp], ecx
; File C:\Program Files (x86)\Microsoft Visual Studio\2019\Community\VC\Tools\MSVC\14.28.29333\include\vector

; 1420 :         auto& _My_data = _Mypair._Myval2;

  00009	8b 45 f8	 mov	 eax, DWORD PTR _this$[ebp]
  0000c	83 c0 40	 add	 eax, 64			; 00000040H
  0000f	89 45 f4	 mov	 DWORD PTR __My_data$15[ebp], eax
; File C:\Program Files (x86)\Microsoft Visual Studio\2019\Community\VC\Tools\MSVC\14.28.29333\include\xstddef

; 275  :     return __builtin_addressof(_Val);

  00012	8b 45 f4	 mov	 eax, DWORD PTR __My_data$15[ebp]
  00015	89 45 ac	 mov	 DWORD PTR $T2[ebp], eax
; File C:\Program Files (x86)\Microsoft Visual Studio\2019\Community\VC\Tools\MSVC\14.28.29333\include\vector

; 1421 :         return iterator(_My_data._Mylast, _STD addressof(_My_data));

  00018	8b 45 f4	 mov	 eax, DWORD PTR __My_data$15[ebp]
  0001b	8b 40 04	 mov	 eax, DWORD PTR [eax+4]
  0001e	89 45 ec	 mov	 DWORD PTR ___param0$[ebp], eax

; 42   :     _Vector_const_iterator(_Tptr _Parg, const _Container_base* _Pvector) noexcept : _Ptr(_Parg) {

  00021	8b 45 ec	 mov	 eax, DWORD PTR ___param0$[ebp]
  00024	89 45 e8	 mov	 DWORD PTR $T13[ebp], eax

; 1421 :         return iterator(_My_data._Mylast, _STD addressof(_My_data));

  00027	8d 45 e8	 lea	 eax, DWORD PTR $T13[ebp]
  0002a	89 45 dc	 mov	 DWORD PTR $T11[ebp], eax

; 1410 :         auto& _My_data = _Mypair._Myval2;

  0002d	8b 45 f8	 mov	 eax, DWORD PTR _this$[ebp]
  00030	83 c0 40	 add	 eax, 64			; 00000040H
  00033	89 45 f0	 mov	 DWORD PTR __My_data$14[ebp], eax
; File C:\Program Files (x86)\Microsoft Visual Studio\2019\Community\VC\Tools\MSVC\14.28.29333\include\xstddef

; 275  :     return __builtin_addressof(_Val);

  00036	8b 45 f0	 mov	 eax, DWORD PTR __My_data$14[ebp]
  00039	89 45 a8	 mov	 DWORD PTR $T1[ebp], eax
; File C:\Program Files (x86)\Microsoft Visual Studio\2019\Community\VC\Tools\MSVC\14.28.29333\include\vector

; 1411 :         return iterator(_My_data._Myfirst, _STD addressof(_My_data));

  0003c	8b 45 f0	 mov	 eax, DWORD PTR __My_data$14[ebp]
  0003f	8b 00		 mov	 eax, DWORD PTR [eax]
  00041	89 45 e4	 mov	 DWORD PTR ___param0$[ebp], eax

; 42   :     _Vector_const_iterator(_Tptr _Parg, const _Container_base* _Pvector) noexcept : _Ptr(_Parg) {

  00044	8b 45 e4	 mov	 eax, DWORD PTR ___param0$[ebp]
  00047	89 45 e0	 mov	 DWORD PTR $T12[ebp], eax

; 1411 :         return iterator(_My_data._Myfirst, _STD addressof(_My_data));

  0004a	8d 45 e0	 lea	 eax, DWORD PTR $T12[ebp]
  0004d	89 45 d8	 mov	 DWORD PTR $T10[ebp], eax
; File D:\Metin2 Server Files\mainline\SRC_2014\Metin2Client\eterGrnLib\ModelInstanceModel.cpp

; 109  : 	std::for_each(m_vct_pgrnMeshBinding.begin(), m_vct_pgrnMeshBinding.end(), GrannyFreeMeshBinding);

  00050	a1 00 00 00 00	 mov	 eax, DWORD PTR __imp__GrannyFreeMeshBinding@4
  00055	89 45 b0	 mov	 DWORD PTR __Func$[ebp], eax
  00058	8b 45 dc	 mov	 eax, DWORD PTR $T11[ebp]
  0005b	8b 00		 mov	 eax, DWORD PTR [eax]
  0005d	89 45 c4	 mov	 DWORD PTR __Last$[ebp], eax
  00060	8b 45 d8	 mov	 eax, DWORD PTR $T10[ebp]
  00063	8b 00		 mov	 eax, DWORD PTR [eax]
  00065	89 45 d4	 mov	 DWORD PTR __First$[ebp], eax
; File C:\Program Files (x86)\Microsoft Visual Studio\2019\Community\VC\Tools\MSVC\14.28.29333\include\vector

; 310  :         return _Unfancy(this->_Ptr);

  00068	8b 45 d4	 mov	 eax, DWORD PTR __First$[ebp]
  0006b	89 45 d0	 mov	 DWORD PTR __Ptr$9[ebp], eax
; File C:\Program Files (x86)\Microsoft Visual Studio\2019\Community\VC\Tools\MSVC\14.28.29333\include\xstddef

; 289  :     return _Ptr;

  0006e	8b 45 d0	 mov	 eax, DWORD PTR __Ptr$9[ebp]
  00071	89 45 cc	 mov	 DWORD PTR $T8[ebp], eax
; File C:\Program Files (x86)\Microsoft Visual Studio\2019\Community\VC\Tools\MSVC\14.28.29333\include\vector

; 310  :         return _Unfancy(this->_Ptr);

  00074	8b 45 cc	 mov	 eax, DWORD PTR $T8[ebp]
  00077	89 45 c8	 mov	 DWORD PTR $T7[ebp], eax
; File C:\Program Files (x86)\Microsoft Visual Studio\2019\Community\VC\Tools\MSVC\14.28.29333\include\algorithm

; 305  :     auto _UFirst      = _Get_unwrapped(_First);

  0007a	8b 45 c8	 mov	 eax, DWORD PTR $T7[ebp]
  0007d	89 45 fc	 mov	 DWORD PTR __UFirst$16[ebp], eax
; File C:\Program Files (x86)\Microsoft Visual Studio\2019\Community\VC\Tools\MSVC\14.28.29333\include\vector

; 310  :         return _Unfancy(this->_Ptr);

  00080	8b 45 c4	 mov	 eax, DWORD PTR __Last$[ebp]
  00083	89 45 c0	 mov	 DWORD PTR __Ptr$6[ebp], eax
; File C:\Program Files (x86)\Microsoft Visual Studio\2019\Community\VC\Tools\MSVC\14.28.29333\include\xstddef

; 289  :     return _Ptr;

  00086	8b 45 c0	 mov	 eax, DWORD PTR __Ptr$6[ebp]
  00089	89 45 bc	 mov	 DWORD PTR $T5[ebp], eax
; File C:\Program Files (x86)\Microsoft Visual Studio\2019\Community\VC\Tools\MSVC\14.28.29333\include\vector

; 310  :         return _Unfancy(this->_Ptr);

  0008c	8b 45 bc	 mov	 eax, DWORD PTR $T5[ebp]
  0008f	89 45 b8	 mov	 DWORD PTR $T4[ebp], eax
; File C:\Program Files (x86)\Microsoft Visual Studio\2019\Community\VC\Tools\MSVC\14.28.29333\include\algorithm

; 306  :     const auto _ULast = _Get_unwrapped(_Last);

  00092	8b 45 b8	 mov	 eax, DWORD PTR $T4[ebp]
  00095	89 45 b4	 mov	 DWORD PTR __ULast$3[ebp], eax

; 307  :     for (; _UFirst != _ULast; ++_UFirst) {

  00098	eb 09		 jmp	 SHORT $LN36@DestroyMes
$LN34@DestroyMes:
  0009a	8b 45 fc	 mov	 eax, DWORD PTR __UFirst$16[ebp]
  0009d	83 c0 04	 add	 eax, 4
  000a0	89 45 fc	 mov	 DWORD PTR __UFirst$16[ebp], eax
$LN36@DestroyMes:
  000a3	8b 45 fc	 mov	 eax, DWORD PTR __UFirst$16[ebp]
  000a6	3b 45 b4	 cmp	 eax, DWORD PTR __ULast$3[ebp]
  000a9	74 0a		 je	 SHORT $LN33@DestroyMes

; 308  :         _Func(*_UFirst);

  000ab	8b 45 fc	 mov	 eax, DWORD PTR __UFirst$16[ebp]
  000ae	ff 30		 push	 DWORD PTR [eax]
  000b0	ff 55 b0	 call	 DWORD PTR __Func$[ebp]

; 309  :     }

  000b3	eb e5		 jmp	 SHORT $LN34@DestroyMes
$LN33@DestroyMes:
; File D:\Metin2 Server Files\mainline\SRC_2014\Metin2Client\eterGrnLib\ModelInstanceModel.cpp

; 110  : 	m_vct_pgrnMeshBinding.clear();		

  000b5	8b 4d f8	 mov	 ecx, DWORD PTR _this$[ebp]
  000b8	83 c1 40	 add	 ecx, 64			; 00000040H
  000bb	e8 00 00 00 00	 call	 ?clear@?$vector@PAUgranny_mesh_binding@@V?$allocator@PAUgranny_mesh_binding@@@std@@@std@@QAEXXZ ; std::vector<granny_mesh_binding *,std::allocator<granny_mesh_binding *> >::clear

; 111  : }

  000c0	c9		 leave
  000c1	c3		 ret	 0
?__DestroyMeshBindingVector@CGrannyModelInstance@@IAEXXZ ENDP ; CGrannyModelInstance::__DestroyMeshBindingVector
_TEXT	ENDS
; Function compile flags: /Odspy
; File D:\Metin2 Server Files\mainline\SRC_2014\Metin2Client\eterGrnLib\ModelInstanceModel.cpp
; File C:\Program Files (x86)\Microsoft Visual Studio\2019\Community\VC\Tools\MSVC\14.28.29333\include\type_traits
; File C:\Program Files (x86)\Microsoft Visual Studio\2019\Community\VC\Tools\MSVC\14.28.29333\include\vector
; File D:\Metin2 Server Files\mainline\SRC_2014\Metin2Client\eterGrnLib\ModelInstanceModel.cpp
; File C:\Program Files (x86)\Microsoft Visual Studio\2019\Community\VC\Tools\MSVC\14.28.29333\include\vector
; File D:\Metin2 Server Files\mainline\SRC_2014\Metin2Client\eterGrnLib\ModelInstanceModel.cpp
;	COMDAT ?__CreateMeshBindingVector@CGrannyModelInstance@@IAE_NPAV1@@Z
_TEXT	SEGMENT
$T1 = -24						; size = 4
$T2 = -20						; size = 4
_pgrnDstSkeleton$ = -16					; size = 4
_this$ = -12						; size = 4
_iMeshBinding$ = -8					; size = 4
_pgrnModel$ = -4					; size = 4
_pkDstModelInst$ = 8					; size = 4
?__CreateMeshBindingVector@CGrannyModelInstance@@IAE_NPAV1@@Z PROC ; CGrannyModelInstance::__CreateMeshBindingVector, COMDAT
; _this$ = ecx

; 84   : {

  00000	55		 push	 ebp
  00001	8b ec		 mov	 ebp, esp
  00003	83 ec 18	 sub	 esp, 24			; 00000018H
  00006	89 4d f4	 mov	 DWORD PTR _this$[ebp], ecx

; 85   : 	assert(m_vct_pgrnMeshBinding.empty());
; 86   : 
; 87   : 	if (!m_pModel)

  00009	8b 45 f4	 mov	 eax, DWORD PTR _this$[ebp]
  0000c	83 78 04 00	 cmp	 DWORD PTR [eax+4], 0
  00010	75 07		 jne	 SHORT $LN5@CreateMesh

; 88   : 		return false;	

  00012	32 c0		 xor	 al, al
  00014	e9 b2 00 00 00	 jmp	 $LN1@CreateMesh
$LN5@CreateMesh:

; 89   : 	
; 90   : 	granny_model* pgrnModel = m_pModel->GetGrannyModelPointer();

  00019	8b 45 f4	 mov	 eax, DWORD PTR _this$[ebp]
  0001c	8b 48 04	 mov	 ecx, DWORD PTR [eax+4]
  0001f	e8 00 00 00 00	 call	 ?GetGrannyModelPointer@CGrannyModel@@QAEPAUgranny_model@@XZ ; CGrannyModel::GetGrannyModelPointer
  00024	89 45 fc	 mov	 DWORD PTR _pgrnModel$[ebp], eax

; 91   : 	if (!pgrnModel)

  00027	83 7d fc 00	 cmp	 DWORD PTR _pgrnModel$[ebp], 0
  0002b	75 07		 jne	 SHORT $LN6@CreateMesh

; 92   : 		return false;

  0002d	32 c0		 xor	 al, al
  0002f	e9 97 00 00 00	 jmp	 $LN1@CreateMesh
$LN6@CreateMesh:

; 93   : 
; 94   : 	granny_skeleton* pgrnDstSkeleton = pgrnModel->Skeleton;

  00034	8b 45 fc	 mov	 eax, DWORD PTR _pgrnModel$[ebp]
  00037	8b 40 04	 mov	 eax, DWORD PTR [eax+4]
  0003a	89 45 f0	 mov	 DWORD PTR _pgrnDstSkeleton$[ebp], eax

; 95   : 	if (pkDstModelInst && pkDstModelInst->m_pModel && pkDstModelInst->m_pModel->GetGrannyModelPointer())

  0003d	83 7d 08 00	 cmp	 DWORD PTR _pkDstModelInst$[ebp], 0
  00041	74 29		 je	 SHORT $LN7@CreateMesh
  00043	8b 45 08	 mov	 eax, DWORD PTR _pkDstModelInst$[ebp]
  00046	83 78 04 00	 cmp	 DWORD PTR [eax+4], 0
  0004a	74 20		 je	 SHORT $LN7@CreateMesh
  0004c	8b 45 08	 mov	 eax, DWORD PTR _pkDstModelInst$[ebp]
  0004f	8b 48 04	 mov	 ecx, DWORD PTR [eax+4]
  00052	e8 00 00 00 00	 call	 ?GetGrannyModelPointer@CGrannyModel@@QAEPAUgranny_model@@XZ ; CGrannyModel::GetGrannyModelPointer
  00057	85 c0		 test	 eax, eax
  00059	74 11		 je	 SHORT $LN7@CreateMesh

; 96   : 		pgrnDstSkeleton = pkDstModelInst->m_pModel->GetGrannyModelPointer()->Skeleton;

  0005b	8b 45 08	 mov	 eax, DWORD PTR _pkDstModelInst$[ebp]
  0005e	8b 48 04	 mov	 ecx, DWORD PTR [eax+4]
  00061	e8 00 00 00 00	 call	 ?GetGrannyModelPointer@CGrannyModel@@QAEPAUgranny_model@@XZ ; CGrannyModel::GetGrannyModelPointer
  00066	8b 40 04	 mov	 eax, DWORD PTR [eax+4]
  00069	89 45 f0	 mov	 DWORD PTR _pgrnDstSkeleton$[ebp], eax
$LN7@CreateMesh:

; 97   : 	
; 98   : 	m_vct_pgrnMeshBinding.reserve(pgrnModel->MeshBindingCount);

  0006c	8b 45 fc	 mov	 eax, DWORD PTR _pgrnModel$[ebp]
  0006f	ff 70 4c	 push	 DWORD PTR [eax+76]
  00072	8b 4d f4	 mov	 ecx, DWORD PTR _this$[ebp]
  00075	83 c1 40	 add	 ecx, 64			; 00000040H
  00078	e8 00 00 00 00	 call	 ?reserve@?$vector@PAUgranny_mesh_binding@@V?$allocator@PAUgranny_mesh_binding@@@std@@@std@@QAEXI@Z ; std::vector<granny_mesh_binding *,std::allocator<granny_mesh_binding *> >::reserve

; 99   : 
; 100  : 	granny_int32 iMeshBinding;
; 101  : 	for (iMeshBinding = 0; iMeshBinding != pgrnModel->MeshBindingCount; ++iMeshBinding)

  0007d	83 65 f8 00	 and	 DWORD PTR _iMeshBinding$[ebp], 0
  00081	eb 07		 jmp	 SHORT $LN4@CreateMesh
$LN2@CreateMesh:
  00083	8b 45 f8	 mov	 eax, DWORD PTR _iMeshBinding$[ebp]
  00086	40		 inc	 eax
  00087	89 45 f8	 mov	 DWORD PTR _iMeshBinding$[ebp], eax
$LN4@CreateMesh:
  0008a	8b 45 fc	 mov	 eax, DWORD PTR _pgrnModel$[ebp]
  0008d	8b 4d f8	 mov	 ecx, DWORD PTR _iMeshBinding$[ebp]
  00090	3b 48 4c	 cmp	 ecx, DWORD PTR [eax+76]
  00093	74 34		 je	 SHORT $LN3@CreateMesh

; 102  : 		m_vct_pgrnMeshBinding.push_back(GrannyNewMeshBinding(pgrnModel->MeshBindings[iMeshBinding].Mesh, pgrnModel->Skeleton, pgrnDstSkeleton));

  00095	ff 75 f0	 push	 DWORD PTR _pgrnDstSkeleton$[ebp]
  00098	8b 45 fc	 mov	 eax, DWORD PTR _pgrnModel$[ebp]
  0009b	ff 70 04	 push	 DWORD PTR [eax+4]
  0009e	8b 45 fc	 mov	 eax, DWORD PTR _pgrnModel$[ebp]
  000a1	8b 40 50	 mov	 eax, DWORD PTR [eax+80]
  000a4	8b 4d f8	 mov	 ecx, DWORD PTR _iMeshBinding$[ebp]
  000a7	ff 34 88	 push	 DWORD PTR [eax+ecx*4]
  000aa	ff 15 00 00 00
	00		 call	 DWORD PTR __imp__GrannyNewMeshBinding@12
  000b0	89 45 ec	 mov	 DWORD PTR $T2[ebp], eax
; File C:\Program Files (x86)\Microsoft Visual Studio\2019\Community\VC\Tools\MSVC\14.28.29333\include\type_traits

; 1455 :     return static_cast<remove_reference_t<_Ty>&&>(_Arg);

  000b3	8d 45 ec	 lea	 eax, DWORD PTR $T2[ebp]
  000b6	89 45 e8	 mov	 DWORD PTR $T1[ebp], eax
; File C:\Program Files (x86)\Microsoft Visual Studio\2019\Community\VC\Tools\MSVC\14.28.29333\include\vector

; 721  :         emplace_back(_STD move(_Val));

  000b9	ff 75 e8	 push	 DWORD PTR $T1[ebp]
; File D:\Metin2 Server Files\mainline\SRC_2014\Metin2Client\eterGrnLib\ModelInstanceModel.cpp

; 102  : 		m_vct_pgrnMeshBinding.push_back(GrannyNewMeshBinding(pgrnModel->MeshBindings[iMeshBinding].Mesh, pgrnModel->Skeleton, pgrnDstSkeleton));

  000bc	8b 4d f4	 mov	 ecx, DWORD PTR _this$[ebp]
  000bf	83 c1 40	 add	 ecx, 64			; 00000040H
; File C:\Program Files (x86)\Microsoft Visual Studio\2019\Community\VC\Tools\MSVC\14.28.29333\include\vector

; 721  :         emplace_back(_STD move(_Val));

  000c2	e8 00 00 00 00	 call	 ??$emplace_back@PAUgranny_mesh_binding@@@?$vector@PAUgranny_mesh_binding@@V?$allocator@PAUgranny_mesh_binding@@@std@@@std@@QAEX$$QAPAUgranny_mesh_binding@@@Z ; std::vector<granny_mesh_binding *,std::allocator<granny_mesh_binding *> >::emplace_back<granny_mesh_binding *>
; File D:\Metin2 Server Files\mainline\SRC_2014\Metin2Client\eterGrnLib\ModelInstanceModel.cpp

; 102  : 		m_vct_pgrnMeshBinding.push_back(GrannyNewMeshBinding(pgrnModel->MeshBindings[iMeshBinding].Mesh, pgrnModel->Skeleton, pgrnDstSkeleton));

  000c7	eb ba		 jmp	 SHORT $LN2@CreateMesh
$LN3@CreateMesh:

; 103  : 
; 104  : 	return true;

  000c9	b0 01		 mov	 al, 1
$LN1@CreateMesh:

; 105  : }

  000cb	c9		 leave
  000cc	c2 04 00	 ret	 4
?__CreateMeshBindingVector@CGrannyModelInstance@@IAE_NPAV1@@Z ENDP ; CGrannyModelInstance::__CreateMeshBindingVector
_TEXT	ENDS
; Function compile flags: /Odspy
; File D:\Metin2 Server Files\mainline\SRC_2014\Metin2Client\eterGrnLib\ModelInstanceModel.cpp
;	COMDAT ?__CreateWorldPose@CGrannyModelInstance@@IAEXPAV1@@Z
_TEXT	SEGMENT
_pgrnSkeleton$ = -8					; size = 4
_this$ = -4						; size = 4
_pkSkeletonInst$ = 8					; size = 4
?__CreateWorldPose@CGrannyModelInstance@@IAEXPAV1@@Z PROC ; CGrannyModelInstance::__CreateWorldPose, COMDAT
; _this$ = ecx

; 117  : {

  00000	55		 push	 ebp
  00001	8b ec		 mov	 ebp, esp
  00003	51		 push	 ecx
  00004	51		 push	 ecx
  00005	89 4d fc	 mov	 DWORD PTR _this$[ebp], ecx

; 118  : 	assert(m_pgrnModelInstance != NULL);
; 119  : 	assert(m_pgrnWorldPoseReal == NULL);
; 120  : 
; 121  : 	// WORK
; 122  : 	if (pkSkeletonInst)

  00008	83 7d 08 00	 cmp	 DWORD PTR _pkSkeletonInst$[ebp], 0
  0000c	74 02		 je	 SHORT $LN2@CreateWorl

; 123  : 		return;	

  0000e	eb 21		 jmp	 SHORT $LN1@CreateWorl
$LN2@CreateWorl:

; 124  : 	// END_OF_WORK
; 125  : 
; 126  : 	granny_skeleton * pgrnSkeleton = GrannyGetSourceSkeleton(m_pgrnModelInstance);		

  00010	8b 45 fc	 mov	 eax, DWORD PTR _this$[ebp]
  00013	ff 70 08	 push	 DWORD PTR [eax+8]
  00016	ff 15 00 00 00
	00		 call	 DWORD PTR __imp__GrannyGetSourceSkeleton@4
  0001c	89 45 f8	 mov	 DWORD PTR _pgrnSkeleton$[ebp], eax

; 127  : 
; 128  : 	// WORK
; 129  : 	m_pgrnWorldPoseReal = GrannyNewWorldPose(pgrnSkeleton->BoneCount);	

  0001f	8b 45 f8	 mov	 eax, DWORD PTR _pgrnSkeleton$[ebp]
  00022	ff 70 04	 push	 DWORD PTR [eax+4]
  00025	ff 15 00 00 00
	00		 call	 DWORD PTR __imp__GrannyNewWorldPose@4
  0002b	8b 4d fc	 mov	 ecx, DWORD PTR _this$[ebp]
  0002e	89 41 3c	 mov	 DWORD PTR [ecx+60], eax
$LN1@CreateWorl:

; 130  : 	// END_OF_WORK
; 131  : }

  00031	c9		 leave
  00032	c2 04 00	 ret	 4
?__CreateWorldPose@CGrannyModelInstance@@IAEXPAV1@@Z ENDP ; CGrannyModelInstance::__CreateWorldPose
_TEXT	ENDS
; Function compile flags: /Odspy
; File D:\Metin2 Server Files\mainline\SRC_2014\Metin2Client\eterGrnLib\ModelInstanceModel.cpp
;	COMDAT ?__DestroyWorldPose@CGrannyModelInstance@@IAEXXZ
_TEXT	SEGMENT
_this$ = -4						; size = 4
?__DestroyWorldPose@CGrannyModelInstance@@IAEXXZ PROC	; CGrannyModelInstance::__DestroyWorldPose, COMDAT
; _this$ = ecx

; 134  : {

  00000	55		 push	 ebp
  00001	8b ec		 mov	 ebp, esp
  00003	51		 push	 ecx
  00004	89 4d fc	 mov	 DWORD PTR _this$[ebp], ecx

; 135  : 	if (!m_pgrnWorldPoseReal)

  00007	8b 45 fc	 mov	 eax, DWORD PTR _this$[ebp]
  0000a	83 78 3c 00	 cmp	 DWORD PTR [eax+60], 0
  0000e	75 02		 jne	 SHORT $LN2@DestroyWor

; 136  : 		return;

  00010	eb 13		 jmp	 SHORT $LN1@DestroyWor
$LN2@DestroyWor:

; 137  : 
; 138  : 	GrannyFreeWorldPose(m_pgrnWorldPoseReal);

  00012	8b 45 fc	 mov	 eax, DWORD PTR _this$[ebp]
  00015	ff 70 3c	 push	 DWORD PTR [eax+60]
  00018	ff 15 00 00 00
	00		 call	 DWORD PTR __imp__GrannyFreeWorldPose@4

; 139  : 	m_pgrnWorldPoseReal = NULL;	

  0001e	8b 45 fc	 mov	 eax, DWORD PTR _this$[ebp]
  00021	83 60 3c 00	 and	 DWORD PTR [eax+60], 0
$LN1@DestroyWor:

; 140  : }

  00025	c9		 leave
  00026	c3		 ret	 0
?__DestroyWorldPose@CGrannyModelInstance@@IAEXXZ ENDP	; CGrannyModelInstance::__DestroyWorldPose
_TEXT	ENDS
; Function compile flags: /Odspy
; File D:\Metin2 Server Files\mainline\SRC_2014\Metin2Client\eterGrnLib\ModelInstanceModel.cpp
;	COMDAT ?__CreateDynamicVertexBuffer@CGrannyModelInstance@@IAEXXZ
_TEXT	SEGMENT
_vtxCount$ = -8						; size = 4
_this$ = -4						; size = 4
?__CreateDynamicVertexBuffer@CGrannyModelInstance@@IAEXXZ PROC ; CGrannyModelInstance::__CreateDynamicVertexBuffer, COMDAT
; _this$ = ecx

; 225  : {

  00000	55		 push	 ebp
  00001	8b ec		 mov	 ebp, esp
  00003	51		 push	 ecx
  00004	51		 push	 ecx
  00005	89 4d fc	 mov	 DWORD PTR _this$[ebp], ecx

; 226  : 	assert(m_pModel != NULL);
; 227  : 	assert(m_kLocalDeformableVertexBuffer.IsEmpty());
; 228  : 
; 229  : 	int vtxCount = m_pModel->GetDeformVertexCount();

  00008	8b 45 fc	 mov	 eax, DWORD PTR _this$[ebp]
  0000b	8b 48 04	 mov	 ecx, DWORD PTR [eax+4]
  0000e	e8 00 00 00 00	 call	 ?GetDeformVertexCount@CGrannyModel@@QBEHXZ ; CGrannyModel::GetDeformVertexCount
  00013	89 45 f8	 mov	 DWORD PTR _vtxCount$[ebp], eax

; 230  : 
; 231  : 	if (0 != vtxCount)

  00016	83 7d f8 00	 cmp	 DWORD PTR _vtxCount$[ebp], 0
  0001a	74 1b		 je	 SHORT $LN1@CreateDyna

; 232  : 	{
; 233  : 		if (!m_kLocalDeformableVertexBuffer.Create(vtxCount,

  0001c	6a 01		 push	 1
  0001e	6a 08		 push	 8
  00020	68 12 01 00 00	 push	 274			; 00000112H
  00025	ff 75 f8	 push	 DWORD PTR _vtxCount$[ebp]
  00028	8b 4d fc	 mov	 ecx, DWORD PTR _this$[ebp]
  0002b	83 c1 50	 add	 ecx, 80			; 00000050H
  0002e	8b 45 fc	 mov	 eax, DWORD PTR _this$[ebp]
  00031	8b 40 50	 mov	 eax, DWORD PTR [eax+80]
  00034	ff 50 04	 call	 DWORD PTR [eax+4]
$LN1@CreateDyna:

; 234  : 									   D3DFVF_XYZ|D3DFVF_NORMAL|D3DFVF_TEX1,
; 235  : 									   //D3DUSAGE_DYNAMIC, D3DPOOL_SYSTEMMEM
; 236  : 									   
; 237  : 									   D3DUSAGE_WRITEONLY, D3DPOOL_MANAGED 
; 238  : 		))
; 239  : 			return;
; 240  : 	}	
; 241  : }

  00037	c9		 leave
  00038	c3		 ret	 0
?__CreateDynamicVertexBuffer@CGrannyModelInstance@@IAEXXZ ENDP ; CGrannyModelInstance::__CreateDynamicVertexBuffer
_TEXT	ENDS
; Function compile flags: /Odspy
; File D:\Metin2 Server Files\mainline\SRC_2014\Metin2Client\eterGrnLib\ModelInstanceModel.cpp
;	COMDAT ?__CreateMeshMatrices@CGrannyModelInstance@@IAEXXZ
_TEXT	SEGMENT
$T1 = -36						; size = 4
tv135 = -32						; size = 4
_meshCount$ = -28					; size = 4
tv95 = -24						; size = 4
___t$ = -20						; size = 4
$T2 = -16						; size = 4
_this$ = -12						; size = 4
$T3 = -8						; size = 4
___n$ = -4						; size = 4
?__CreateMeshMatrices@CGrannyModelInstance@@IAEXXZ PROC	; CGrannyModelInstance::__CreateMeshMatrices, COMDAT
; _this$ = ecx

; 161  : {

  00000	55		 push	 ebp
  00001	8b ec		 mov	 ebp, esp
  00003	83 ec 24	 sub	 esp, 36			; 00000024H
  00006	89 4d f4	 mov	 DWORD PTR _this$[ebp], ecx

; 162  : 	assert(m_pModel != NULL);
; 163  : 	
; 164  : 	if (m_pModel->GetMeshCount() <= 0) //   ( )   ..

  00009	8b 45 f4	 mov	 eax, DWORD PTR _this$[ebp]
  0000c	8b 48 04	 mov	 ecx, DWORD PTR [eax+4]
  0000f	e8 00 00 00 00	 call	 ?GetMeshCount@CGrannyModel@@QBEHXZ ; CGrannyModel::GetMeshCount
  00014	85 c0		 test	 eax, eax
  00016	7f 02		 jg	 SHORT $LN2@CreateMesh

; 165  : 		return;

  00018	eb 7a		 jmp	 SHORT $LN1@CreateMesh
$LN2@CreateMesh:

; 166  : 	
; 167  : 	int meshCount = m_pModel->GetMeshCount();	

  0001a	8b 45 f4	 mov	 eax, DWORD PTR _this$[ebp]
  0001d	8b 48 04	 mov	 ecx, DWORD PTR [eax+4]
  00020	e8 00 00 00 00	 call	 ?GetMeshCount@CGrannyModel@@QBEHXZ ; CGrannyModel::GetMeshCount
  00025	89 45 e4	 mov	 DWORD PTR _meshCount$[ebp], eax

; 168  : 	m_meshMatrices = new D3DXMATRIX[meshCount];

  00028	8b 45 e4	 mov	 eax, DWORD PTR _meshCount$[ebp]
  0002b	89 45 f0	 mov	 DWORD PTR $T2[ebp], eax
  0002e	33 c9		 xor	 ecx, ecx
  00030	8b 45 f0	 mov	 eax, DWORD PTR $T2[ebp]
  00033	6a 40		 push	 64			; 00000040H
  00035	5a		 pop	 edx
  00036	f7 e2		 mul	 edx
  00038	0f 90 c1	 seto	 cl
  0003b	f7 d9		 neg	 ecx
  0003d	0b c8		 or	 ecx, eax
  0003f	51		 push	 ecx
  00040	e8 00 00 00 00	 call	 ??_U@YAPAXI@Z		; operator new[]
  00045	59		 pop	 ecx
  00046	89 45 f8	 mov	 DWORD PTR $T3[ebp], eax
  00049	83 7d f8 00	 cmp	 DWORD PTR $T3[ebp], 0
  0004d	74 32		 je	 SHORT $LN4@CreateMesh
  0004f	8b 45 f0	 mov	 eax, DWORD PTR $T2[ebp]
  00052	89 45 fc	 mov	 DWORD PTR ___n$[ebp], eax
  00055	8b 45 f8	 mov	 eax, DWORD PTR $T3[ebp]
  00058	89 45 ec	 mov	 DWORD PTR ___t$[ebp], eax
$LN8@CreateMesh:
  0005b	8b 45 fc	 mov	 eax, DWORD PTR ___n$[ebp]
  0005e	89 45 e0	 mov	 DWORD PTR tv135[ebp], eax
  00061	8b 45 fc	 mov	 eax, DWORD PTR ___n$[ebp]
  00064	48		 dec	 eax
  00065	89 45 fc	 mov	 DWORD PTR ___n$[ebp], eax
  00068	83 7d e0 00	 cmp	 DWORD PTR tv135[ebp], 0
  0006c	76 0b		 jbe	 SHORT $LN7@CreateMesh
  0006e	8b 45 ec	 mov	 eax, DWORD PTR ___t$[ebp]
  00071	83 c0 40	 add	 eax, 64			; 00000040H
  00074	89 45 ec	 mov	 DWORD PTR ___t$[ebp], eax
  00077	eb e2		 jmp	 SHORT $LN8@CreateMesh
$LN7@CreateMesh:
  00079	8b 45 f8	 mov	 eax, DWORD PTR $T3[ebp]
  0007c	89 45 e8	 mov	 DWORD PTR tv95[ebp], eax
  0007f	eb 04		 jmp	 SHORT $LN5@CreateMesh
$LN4@CreateMesh:
  00081	83 65 e8 00	 and	 DWORD PTR tv95[ebp], 0
$LN5@CreateMesh:
  00085	8b 45 e8	 mov	 eax, DWORD PTR tv95[ebp]
  00088	89 45 dc	 mov	 DWORD PTR $T1[ebp], eax
  0008b	8b 45 f4	 mov	 eax, DWORD PTR _this$[ebp]
  0008e	8b 4d dc	 mov	 ecx, DWORD PTR $T1[ebp]
  00091	89 48 14	 mov	 DWORD PTR [eax+20], ecx
$LN1@CreateMesh:

; 169  : }

  00094	c9		 leave
  00095	c3		 ret	 0
?__CreateMeshMatrices@CGrannyModelInstance@@IAEXXZ ENDP	; CGrannyModelInstance::__CreateMeshMatrices
_TEXT	ENDS
; Function compile flags: /Odspy
; File D:\Metin2 Server Files\mainline\SRC_2014\Metin2Client\eterGrnLib\ModelInstanceModel.cpp
;	COMDAT ?__CreateModelInstance@CGrannyModelInstance@@IAEXXZ
_TEXT	SEGMENT
_pgrnModel$ = -8					; size = 4
_this$ = -4						; size = 4
?__CreateModelInstance@CGrannyModelInstance@@IAEXXZ PROC ; CGrannyModelInstance::__CreateModelInstance, COMDAT
; _this$ = ecx

; 143  : {	

  00000	55		 push	 ebp
  00001	8b ec		 mov	 ebp, esp
  00003	51		 push	 ecx
  00004	51		 push	 ecx
  00005	89 4d fc	 mov	 DWORD PTR _this$[ebp], ecx

; 144  : 	assert(m_pModel != NULL);
; 145  : 	assert(m_pgrnModelInstance == NULL);
; 146  : 
; 147  : 	const granny_model * pgrnModel = m_pModel->GetGrannyModelPointer();	

  00008	8b 45 fc	 mov	 eax, DWORD PTR _this$[ebp]
  0000b	8b 48 04	 mov	 ecx, DWORD PTR [eax+4]
  0000e	e8 00 00 00 00	 call	 ?GetGrannyModelPointer@CGrannyModel@@QAEPAUgranny_model@@XZ ; CGrannyModel::GetGrannyModelPointer
  00013	89 45 f8	 mov	 DWORD PTR _pgrnModel$[ebp], eax

; 148  : 	m_pgrnModelInstance = GrannyInstantiateModel(pgrnModel);

  00016	ff 75 f8	 push	 DWORD PTR _pgrnModel$[ebp]
  00019	ff 15 00 00 00
	00		 call	 DWORD PTR __imp__GrannyInstantiateModel@4
  0001f	8b 4d fc	 mov	 ecx, DWORD PTR _this$[ebp]
  00022	89 41 08	 mov	 DWORD PTR [ecx+8], eax

; 149  : }

  00025	c9		 leave
  00026	c3		 ret	 0
?__CreateModelInstance@CGrannyModelInstance@@IAEXXZ ENDP ; CGrannyModelInstance::__CreateModelInstance
_TEXT	ENDS
; Function compile flags: /Odspy
; File D:\Metin2 Server Files\mainline\SRC_2014\Metin2Client\eterGrnLib\ModelInstanceModel.cpp
;	COMDAT ?__DestroyDynamicVertexBuffer@CGrannyModelInstance@@IAEXXZ
_TEXT	SEGMENT
_this$ = -4						; size = 4
?__DestroyDynamicVertexBuffer@CGrannyModelInstance@@IAEXXZ PROC ; CGrannyModelInstance::__DestroyDynamicVertexBuffer, COMDAT
; _this$ = ecx

; 244  : {

  00000	55		 push	 ebp
  00001	8b ec		 mov	 ebp, esp
  00003	51		 push	 ecx
  00004	89 4d fc	 mov	 DWORD PTR _this$[ebp], ecx

; 245  : 	m_kLocalDeformableVertexBuffer.Destroy();

  00007	8b 4d fc	 mov	 ecx, DWORD PTR _this$[ebp]
  0000a	83 c1 50	 add	 ecx, 80			; 00000050H
  0000d	e8 00 00 00 00	 call	 ?Destroy@CGraphicVertexBuffer@@QAEXXZ ; CGraphicVertexBuffer::Destroy

; 246  : 	m_pkSharedDeformableVertexBuffer = NULL;

  00012	8b 45 fc	 mov	 eax, DWORD PTR _this$[ebp]
  00015	83 60 4c 00	 and	 DWORD PTR [eax+76], 0

; 247  : }

  00019	c9		 leave
  0001a	c3		 ret	 0
?__DestroyDynamicVertexBuffer@CGrannyModelInstance@@IAEXXZ ENDP ; CGrannyModelInstance::__DestroyDynamicVertexBuffer
_TEXT	ENDS
; Function compile flags: /Odspy
; File D:\Metin2 Server Files\mainline\SRC_2014\Metin2Client\eterGrnLib\ModelInstanceModel.cpp
;	COMDAT ?__DestroyMeshMatrices@CGrannyModelInstance@@IAEXXZ
_TEXT	SEGMENT
$T1 = -8						; size = 4
_this$ = -4						; size = 4
?__DestroyMeshMatrices@CGrannyModelInstance@@IAEXXZ PROC ; CGrannyModelInstance::__DestroyMeshMatrices, COMDAT
; _this$ = ecx

; 172  : {

  00000	55		 push	 ebp
  00001	8b ec		 mov	 ebp, esp
  00003	51		 push	 ecx
  00004	51		 push	 ecx
  00005	89 4d fc	 mov	 DWORD PTR _this$[ebp], ecx

; 173  : 	if (!m_meshMatrices)

  00008	8b 45 fc	 mov	 eax, DWORD PTR _this$[ebp]
  0000b	83 78 14 00	 cmp	 DWORD PTR [eax+20], 0
  0000f	75 02		 jne	 SHORT $LN2@DestroyMes

; 174  : 		return;

  00011	eb 19		 jmp	 SHORT $LN1@DestroyMes
$LN2@DestroyMes:

; 175  : 
; 176  : 	delete [] m_meshMatrices;

  00013	8b 45 fc	 mov	 eax, DWORD PTR _this$[ebp]
  00016	8b 40 14	 mov	 eax, DWORD PTR [eax+20]
  00019	89 45 f8	 mov	 DWORD PTR $T1[ebp], eax
  0001c	ff 75 f8	 push	 DWORD PTR $T1[ebp]
  0001f	e8 00 00 00 00	 call	 ??_V@YAXPAX@Z		; operator delete[]
  00024	59		 pop	 ecx

; 177  : 	m_meshMatrices = NULL;

  00025	8b 45 fc	 mov	 eax, DWORD PTR _this$[ebp]
  00028	83 60 14 00	 and	 DWORD PTR [eax+20], 0
$LN1@DestroyMes:

; 178  : }

  0002c	c9		 leave
  0002d	c3		 ret	 0
?__DestroyMeshMatrices@CGrannyModelInstance@@IAEXXZ ENDP ; CGrannyModelInstance::__DestroyMeshMatrices
_TEXT	ENDS
; Function compile flags: /Odspy
; File D:\Metin2 Server Files\mainline\SRC_2014\Metin2Client\eterGrnLib\ModelInstanceModel.cpp
;	COMDAT ?__DestroyModelInstance@CGrannyModelInstance@@IAEXXZ
_TEXT	SEGMENT
_this$ = -4						; size = 4
?__DestroyModelInstance@CGrannyModelInstance@@IAEXXZ PROC ; CGrannyModelInstance::__DestroyModelInstance, COMDAT
; _this$ = ecx

; 152  : {

  00000	55		 push	 ebp
  00001	8b ec		 mov	 ebp, esp
  00003	51		 push	 ecx
  00004	89 4d fc	 mov	 DWORD PTR _this$[ebp], ecx

; 153  : 	if (!m_pgrnModelInstance) 

  00007	8b 45 fc	 mov	 eax, DWORD PTR _this$[ebp]
  0000a	83 78 08 00	 cmp	 DWORD PTR [eax+8], 0
  0000e	75 02		 jne	 SHORT $LN2@DestroyMod

; 154  : 		return;

  00010	eb 13		 jmp	 SHORT $LN1@DestroyMod
$LN2@DestroyMod:

; 155  : 
; 156  : 	GrannyFreeModelInstance(m_pgrnModelInstance);

  00012	8b 45 fc	 mov	 eax, DWORD PTR _this$[ebp]
  00015	ff 70 08	 push	 DWORD PTR [eax+8]
  00018	ff 15 00 00 00
	00		 call	 DWORD PTR __imp__GrannyFreeModelInstance@4

; 157  : 	m_pgrnModelInstance = NULL;

  0001e	8b 45 fc	 mov	 eax, DWORD PTR _this$[ebp]
  00021	83 60 08 00	 and	 DWORD PTR [eax+8], 0
$LN1@DestroyMod:

; 158  : }

  00025	c9		 leave
  00026	c3		 ret	 0
?__DestroyModelInstance@CGrannyModelInstance@@IAEXXZ ENDP ; CGrannyModelInstance::__DestroyModelInstance
_TEXT	ENDS
; Function compile flags: /Odspy
; File D:\Metin2 Server Files\mainline\SRC_2014\Metin2Client\eterGrnLib\ModelInstanceModel.cpp
;	COMDAT ?ReloadTexture@CGrannyModelInstance@@QAEXXZ
_TEXT	SEGMENT
_this$ = -4						; size = 4
?ReloadTexture@CGrannyModelInstance@@QAEXXZ PROC	; CGrannyModelInstance::ReloadTexture, COMDAT
; _this$ = ecx

; 283  : {

  00000	55		 push	 ebp
  00001	8b ec		 mov	 ebp, esp
  00003	51		 push	 ecx
  00004	89 4d fc	 mov	 DWORD PTR _this$[ebp], ecx

; 284  : 	assert("   - CGrannyModelInstance::ReloadTexture()");
; 285  : /*
; 286  : 	assert(m_pModel != NULL);
; 287  : 	const CGrannyMaterialPalette & c_rGrannyMaterialPalette = m_pModel->GetMaterialPalette();
; 288  : 	DWORD dwMaterialCount = c_rGrannyMaterialPalette.GetMaterialCount();
; 289  : 	for (DWORD dwMtrIndex = 0; dwMtrIndex < dwMaterialCount; ++dwMtrIndex)
; 290  : 	{
; 291  : 		const CGrannyMaterial & c_rGrannyMaterial = c_rGrannyMaterialPalette.GetMaterialRef(dwMtrIndex);
; 292  : 		CGraphicImage * pImageStage0 = c_rGrannyMaterial.GetImagePointer(0);
; 293  : 		if (pImageStage0)
; 294  : 			pImageStage0->Reload();
; 295  : 		CGraphicImage * pImageStage1 = c_rGrannyMaterial.GetImagePointer(1);
; 296  : 		if (pImageStage1)
; 297  : 			pImageStage1->Reload();
; 298  : 	}
; 299  : */
; 300  : }

  00007	c9		 leave
  00008	c3		 ret	 0
?ReloadTexture@CGrannyModelInstance@@QAEXXZ ENDP	; CGrannyModelInstance::ReloadTexture
_TEXT	ENDS
; Function compile flags: /Odspy
; File D:\Metin2 Server Files\mainline\SRC_2014\Metin2Client\eterGrnLib\ModelInstanceModel.cpp
;	COMDAT ?GetBoneIndexByName@CGrannyModelInstance@@QBE_NPBDPAH@Z
_TEXT	SEGMENT
_pgrnSkeleton$ = -8					; size = 4
_this$ = -4						; size = 4
_c_szBoneName$ = 8					; size = 4
_pBoneIndex$ = 12					; size = 4
?GetBoneIndexByName@CGrannyModelInstance@@QBE_NPBDPAH@Z PROC ; CGrannyModelInstance::GetBoneIndexByName, COMDAT
; _this$ = ecx

; 252  : {

  00000	55		 push	 ebp
  00001	8b ec		 mov	 ebp, esp
  00003	51		 push	 ecx
  00004	51		 push	 ecx
  00005	89 4d fc	 mov	 DWORD PTR _this$[ebp], ecx

; 253  : 	assert(m_pgrnModelInstance != NULL);
; 254  : 
; 255  : 	granny_skeleton * pgrnSkeleton = GrannyGetSourceSkeleton(m_pgrnModelInstance);

  00008	8b 45 fc	 mov	 eax, DWORD PTR _this$[ebp]
  0000b	ff 70 08	 push	 DWORD PTR [eax+8]
  0000e	ff 15 00 00 00
	00		 call	 DWORD PTR __imp__GrannyGetSourceSkeleton@4
  00014	89 45 f8	 mov	 DWORD PTR _pgrnSkeleton$[ebp], eax

; 256  : 
; 257  : 	if (!GrannyFindBoneByName(pgrnSkeleton, c_szBoneName, pBoneIndex))

  00017	ff 75 0c	 push	 DWORD PTR _pBoneIndex$[ebp]
  0001a	ff 75 08	 push	 DWORD PTR _c_szBoneName$[ebp]
  0001d	ff 75 f8	 push	 DWORD PTR _pgrnSkeleton$[ebp]
  00020	ff 15 00 00 00
	00		 call	 DWORD PTR __imp__GrannyFindBoneByName@12
  00026	0f b6 c0	 movzx	 eax, al
  00029	85 c0		 test	 eax, eax
  0002b	75 04		 jne	 SHORT $LN2@GetBoneInd

; 258  : 		return false;

  0002d	32 c0		 xor	 al, al
  0002f	eb 02		 jmp	 SHORT $LN1@GetBoneInd
$LN2@GetBoneInd:

; 259  : 
; 260  : 	return true;

  00031	b0 01		 mov	 al, 1
$LN1@GetBoneInd:

; 261  : }

  00033	c9		 leave
  00034	c2 08 00	 ret	 8
?GetBoneIndexByName@CGrannyModelInstance@@QBE_NPBDPAH@Z ENDP ; CGrannyModelInstance::GetBoneIndexByName
_TEXT	ENDS
; Function compile flags: /Odspy
; File D:\Metin2 Server Files\mainline\SRC_2014\Metin2Client\eterGrnLib\ModelInstanceModel.cpp
;	COMDAT ?GetCompositeBoneMatrixPointer@CGrannyModelInstance@@QBEPBMH@Z
_TEXT	SEGMENT
_this$ = -4						; size = 4
_iBone$ = 8						; size = 4
?GetCompositeBoneMatrixPointer@CGrannyModelInstance@@QBEPBMH@Z PROC ; CGrannyModelInstance::GetCompositeBoneMatrixPointer, COMDAT
; _this$ = ecx

; 276  : {

  00000	55		 push	 ebp
  00001	8b ec		 mov	 ebp, esp
  00003	51		 push	 ecx
  00004	89 4d fc	 mov	 DWORD PTR _this$[ebp], ecx

; 277  : 	// NOTE : GrannyGetWorldPose4x4     ..   
; 278  : 	//        GrannyGetWorldPose4x4  matrix     
; 279  : 	return GrannyGetWorldPoseComposite4x4(__GetWorldPosePtr(), iBone);

  00007	ff 75 08	 push	 DWORD PTR _iBone$[ebp]
  0000a	8b 4d fc	 mov	 ecx, DWORD PTR _this$[ebp]
  0000d	e8 00 00 00 00	 call	 ?__GetWorldPosePtr@CGrannyModelInstance@@IBEPAUgranny_world_pose@@XZ ; CGrannyModelInstance::__GetWorldPosePtr
  00012	50		 push	 eax
  00013	ff 15 00 00 00
	00		 call	 DWORD PTR __imp__GrannyGetWorldPoseComposite4x4@8

; 280  : }

  00019	c9		 leave
  0001a	c2 04 00	 ret	 4
?GetCompositeBoneMatrixPointer@CGrannyModelInstance@@QBEPBMH@Z ENDP ; CGrannyModelInstance::GetCompositeBoneMatrixPointer
_TEXT	ENDS
; Function compile flags: /Odspy
; File D:\Metin2 Server Files\mainline\SRC_2014\Metin2Client\eterGrnLib\ModelInstanceModel.cpp
;	COMDAT ?GetBoneMatrixPointer@CGrannyModelInstance@@QBEPBMH@Z
_TEXT	SEGMENT
_pModel$1 = -12						; size = 4
_bones$ = -8						; size = 4
_this$ = -4						; size = 4
_iBone$ = 8						; size = 4
?GetBoneMatrixPointer@CGrannyModelInstance@@QBEPBMH@Z PROC ; CGrannyModelInstance::GetBoneMatrixPointer, COMDAT
; _this$ = ecx

; 264  : {

  00000	55		 push	 ebp
  00001	8b ec		 mov	 ebp, esp
  00003	83 ec 0c	 sub	 esp, 12			; 0000000cH
  00006	89 4d fc	 mov	 DWORD PTR _this$[ebp], ecx

; 265  : 	const float* bones = GrannyGetWorldPose4x4(__GetWorldPosePtr(), iBone);

  00009	ff 75 08	 push	 DWORD PTR _iBone$[ebp]
  0000c	8b 4d fc	 mov	 ecx, DWORD PTR _this$[ebp]
  0000f	e8 00 00 00 00	 call	 ?__GetWorldPosePtr@CGrannyModelInstance@@IBEPAUgranny_world_pose@@XZ ; CGrannyModelInstance::__GetWorldPosePtr
  00014	50		 push	 eax
  00015	ff 15 00 00 00
	00		 call	 DWORD PTR __imp__GrannyGetWorldPose4x4@8
  0001b	89 45 f8	 mov	 DWORD PTR _bones$[ebp], eax

; 266  : 	if (!bones)

  0001e	83 7d f8 00	 cmp	 DWORD PTR _bones$[ebp], 0
  00022	75 12		 jne	 SHORT $LN2@GetBoneMat

; 267  : 	{
; 268  : 		granny_model* pModel = m_pModel->GetGrannyModelPointer();		

  00024	8b 45 fc	 mov	 eax, DWORD PTR _this$[ebp]
  00027	8b 48 04	 mov	 ecx, DWORD PTR [eax+4]
  0002a	e8 00 00 00 00	 call	 ?GetGrannyModelPointer@CGrannyModel@@QAEPAUgranny_model@@XZ ; CGrannyModel::GetGrannyModelPointer
  0002f	89 45 f4	 mov	 DWORD PTR _pModel$1[ebp], eax

; 269  : 		//TraceError("GrannyModelInstance(%s).GetBoneMatrixPointer(boneIndex(%d)).NOT_FOUND_BONE", pModel->Name, iBone);
; 270  : 		return NULL;

  00032	33 c0		 xor	 eax, eax
  00034	eb 03		 jmp	 SHORT $LN1@GetBoneMat
$LN2@GetBoneMat:

; 271  : 	}
; 272  : 	return bones;

  00036	8b 45 f8	 mov	 eax, DWORD PTR _bones$[ebp]
$LN1@GetBoneMat:

; 273  : }

  00039	c9		 leave
  0003a	c2 04 00	 ret	 4
?GetBoneMatrixPointer@CGrannyModelInstance@@QBEPBMH@Z ENDP ; CGrannyModelInstance::GetBoneMatrixPointer
_TEXT	ENDS
; Function compile flags: /Odspy
; File D:\Metin2 Server Files\mainline\SRC_2014\Metin2Client\eterGrnLib\ModelInstanceModel.cpp
;	COMDAT ?GetVertexCount@CGrannyModelInstance@@QAEKXZ
_TEXT	SEGMENT
_this$ = -4						; size = 4
?GetVertexCount@CGrannyModelInstance@@QAEKXZ PROC	; CGrannyModelInstance::GetVertexCount, COMDAT
; _this$ = ecx

; 189  : {

  00000	55		 push	 ebp
  00001	8b ec		 mov	 ebp, esp
  00003	51		 push	 ecx
  00004	89 4d fc	 mov	 DWORD PTR _this$[ebp], ecx

; 190  : 	if (!m_pModel)

  00007	8b 45 fc	 mov	 eax, DWORD PTR _this$[ebp]
  0000a	83 78 04 00	 cmp	 DWORD PTR [eax+4], 0
  0000e	75 04		 jne	 SHORT $LN2@GetVertexC

; 191  : 		return 0;

  00010	33 c0		 xor	 eax, eax
  00012	eb 0b		 jmp	 SHORT $LN1@GetVertexC
$LN2@GetVertexC:

; 192  : 
; 193  : 	return m_pModel->GetVertexCount();

  00014	8b 45 fc	 mov	 eax, DWORD PTR _this$[ebp]
  00017	8b 48 04	 mov	 ecx, DWORD PTR [eax+4]
  0001a	e8 00 00 00 00	 call	 ?GetVertexCount@CGrannyModel@@QBEHXZ ; CGrannyModel::GetVertexCount
$LN1@GetVertexC:

; 194  : }

  0001f	c9		 leave
  00020	c3		 ret	 0
?GetVertexCount@CGrannyModelInstance@@QAEKXZ ENDP	; CGrannyModelInstance::GetVertexCount
_TEXT	ENDS
; Function compile flags: /Odspy
; File D:\Metin2 Server Files\mainline\SRC_2014\Metin2Client\eterGrnLib\ModelInstanceModel.cpp
;	COMDAT ?GetDeformableVertexCount@CGrannyModelInstance@@QAEKXZ
_TEXT	SEGMENT
_this$ = -4						; size = 4
?GetDeformableVertexCount@CGrannyModelInstance@@QAEKXZ PROC ; CGrannyModelInstance::GetDeformableVertexCount, COMDAT
; _this$ = ecx

; 181  : {

  00000	55		 push	 ebp
  00001	8b ec		 mov	 ebp, esp
  00003	51		 push	 ecx
  00004	89 4d fc	 mov	 DWORD PTR _this$[ebp], ecx

; 182  : 	if (!m_pModel)

  00007	8b 45 fc	 mov	 eax, DWORD PTR _this$[ebp]
  0000a	83 78 04 00	 cmp	 DWORD PTR [eax+4], 0
  0000e	75 04		 jne	 SHORT $LN2@GetDeforma

; 183  : 		return 0;

  00010	33 c0		 xor	 eax, eax
  00012	eb 0b		 jmp	 SHORT $LN1@GetDeforma
$LN2@GetDeforma:

; 184  : 
; 185  : 	return m_pModel->GetDeformVertexCount();

  00014	8b 45 fc	 mov	 eax, DWORD PTR _this$[ebp]
  00017	8b 48 04	 mov	 ecx, DWORD PTR [eax+4]
  0001a	e8 00 00 00 00	 call	 ?GetDeformVertexCount@CGrannyModel@@QBEHXZ ; CGrannyModel::GetDeformVertexCount
$LN1@GetDeforma:

; 186  : }

  0001f	c9		 leave
  00020	c3		 ret	 0
?GetDeformableVertexCount@CGrannyModelInstance@@QAEKXZ ENDP ; CGrannyModelInstance::GetDeformableVertexCount
_TEXT	ENDS
; Function compile flags: /Odspy
; File D:\Metin2 Server Files\mainline\SRC_2014\Metin2Client\eterGrnLib\ModelInstanceModel.cpp
;	COMDAT ?SetLinkedModelPointer@CGrannyModelInstance@@QAEXPAVCGrannyModel@@PAVCGraphicVertexBuffer@@PAPAV1@@Z
_TEXT	SEGMENT
_this$ = -4						; size = 4
_pkModel$ = 8						; size = 4
_pkSharedDeformableVertexBuffer$ = 12			; size = 4
_ppkSkeletonInst$ = 16					; size = 4
?SetLinkedModelPointer@CGrannyModelInstance@@QAEXPAVCGrannyModel@@PAVCGraphicVertexBuffer@@PAPAV1@@Z PROC ; CGrannyModelInstance::SetLinkedModelPointer, COMDAT
; _this$ = ecx

; 26   : {

  00000	55		 push	 ebp
  00001	8b ec		 mov	 ebp, esp
  00003	51		 push	 ecx
  00004	89 4d fc	 mov	 DWORD PTR _this$[ebp], ecx

; 27   : 	Clear();

  00007	8b 4d fc	 mov	 ecx, DWORD PTR _this$[ebp]
  0000a	e8 00 00 00 00	 call	 ?Clear@CGrannyModelInstance@@QAEXXZ ; CGrannyModelInstance::Clear

; 28   : 
; 29   : 	if (m_pModel)

  0000f	8b 45 fc	 mov	 eax, DWORD PTR _this$[ebp]
  00012	83 78 04 00	 cmp	 DWORD PTR [eax+4], 0
  00016	74 0b		 je	 SHORT $LN2@SetLinkedM

; 30   : 		m_pModel->Release();

  00018	8b 45 fc	 mov	 eax, DWORD PTR _this$[ebp]
  0001b	8b 48 04	 mov	 ecx, DWORD PTR [eax+4]
  0001e	e8 00 00 00 00	 call	 ?Release@CReferenceObject@@QAEXXZ ; CReferenceObject::Release
$LN2@SetLinkedM:

; 31   : 
; 32   : 	m_pModel = pkModel;

  00023	8b 45 fc	 mov	 eax, DWORD PTR _this$[ebp]
  00026	8b 4d 08	 mov	 ecx, DWORD PTR _pkModel$[ebp]
  00029	89 48 04	 mov	 DWORD PTR [eax+4], ecx

; 33   : 
; 34   : 	m_pModel->AddReference();

  0002c	8b 45 fc	 mov	 eax, DWORD PTR _this$[ebp]
  0002f	8b 48 04	 mov	 ecx, DWORD PTR [eax+4]
  00032	e8 00 00 00 00	 call	 ?AddReference@CReferenceObject@@QAEXXZ ; CReferenceObject::AddReference

; 35   : 	
; 36   : 	if (pkSharedDeformableVertexBuffer)

  00037	83 7d 0c 00	 cmp	 DWORD PTR _pkSharedDeformableVertexBuffer$[ebp], 0
  0003b	74 0d		 je	 SHORT $LN3@SetLinkedM

; 37   : 		__SetSharedDeformableVertexBuffer(pkSharedDeformableVertexBuffer);

  0003d	ff 75 0c	 push	 DWORD PTR _pkSharedDeformableVertexBuffer$[ebp]
  00040	8b 4d fc	 mov	 ecx, DWORD PTR _this$[ebp]
  00043	e8 00 00 00 00	 call	 ?__SetSharedDeformableVertexBuffer@CGrannyModelInstance@@IAEXPAVCGraphicVertexBuffer@@@Z ; CGrannyModelInstance::__SetSharedDeformableVertexBuffer
  00048	eb 08		 jmp	 SHORT $LN4@SetLinkedM
$LN3@SetLinkedM:

; 38   : 	else
; 39   : 		__CreateDynamicVertexBuffer();

  0004a	8b 4d fc	 mov	 ecx, DWORD PTR _this$[ebp]
  0004d	e8 00 00 00 00	 call	 ?__CreateDynamicVertexBuffer@CGrannyModelInstance@@IAEXXZ ; CGrannyModelInstance::__CreateDynamicVertexBuffer
$LN4@SetLinkedM:

; 40   : 
; 41   : 	__CreateModelInstance();

  00052	8b 4d fc	 mov	 ecx, DWORD PTR _this$[ebp]
  00055	e8 00 00 00 00	 call	 ?__CreateModelInstance@CGrannyModelInstance@@IAEXXZ ; CGrannyModelInstance::__CreateModelInstance

; 42   : 	
; 43   : 	// WORK
; 44   : 	if (ppkSkeletonInst && *ppkSkeletonInst)

  0005a	83 7d 10 00	 cmp	 DWORD PTR _ppkSkeletonInst$[ebp], 0
  0005e	74 2d		 je	 SHORT $LN5@SetLinkedM
  00060	8b 45 10	 mov	 eax, DWORD PTR _ppkSkeletonInst$[ebp]
  00063	83 38 00	 cmp	 DWORD PTR [eax], 0
  00066	74 25		 je	 SHORT $LN5@SetLinkedM

; 45   : 	{
; 46   : 		m_ppkSkeletonInst = ppkSkeletonInst;

  00068	8b 45 fc	 mov	 eax, DWORD PTR _this$[ebp]
  0006b	8b 4d 10	 mov	 ecx, DWORD PTR _ppkSkeletonInst$[ebp]
  0006e	89 48 74	 mov	 DWORD PTR [eax+116], ecx

; 47   : 		__CreateWorldPose(*ppkSkeletonInst);			

  00071	8b 45 10	 mov	 eax, DWORD PTR _ppkSkeletonInst$[ebp]
  00074	ff 30		 push	 DWORD PTR [eax]
  00076	8b 4d fc	 mov	 ecx, DWORD PTR _this$[ebp]
  00079	e8 00 00 00 00	 call	 ?__CreateWorldPose@CGrannyModelInstance@@IAEXPAV1@@Z ; CGrannyModelInstance::__CreateWorldPose

; 48   : 		__CreateMeshBindingVector(*ppkSkeletonInst);

  0007e	8b 45 10	 mov	 eax, DWORD PTR _ppkSkeletonInst$[ebp]
  00081	ff 30		 push	 DWORD PTR [eax]
  00083	8b 4d fc	 mov	 ecx, DWORD PTR _this$[ebp]
  00086	e8 00 00 00 00	 call	 ?__CreateMeshBindingVector@CGrannyModelInstance@@IAE_NPAV1@@Z ; CGrannyModelInstance::__CreateMeshBindingVector

; 49   : 	}

  0008b	eb 14		 jmp	 SHORT $LN6@SetLinkedM
$LN5@SetLinkedM:

; 50   : 	else
; 51   : 	{
; 52   : 		__CreateWorldPose(NULL);			

  0008d	6a 00		 push	 0
  0008f	8b 4d fc	 mov	 ecx, DWORD PTR _this$[ebp]
  00092	e8 00 00 00 00	 call	 ?__CreateWorldPose@CGrannyModelInstance@@IAEXPAV1@@Z ; CGrannyModelInstance::__CreateWorldPose

; 53   : 		__CreateMeshBindingVector(NULL);

  00097	6a 00		 push	 0
  00099	8b 4d fc	 mov	 ecx, DWORD PTR _this$[ebp]
  0009c	e8 00 00 00 00	 call	 ?__CreateMeshBindingVector@CGrannyModelInstance@@IAE_NPAV1@@Z ; CGrannyModelInstance::__CreateMeshBindingVector
$LN6@SetLinkedM:

; 54   : 	}
; 55   : 	// END_OF_WORK	
; 56   : 
; 57   : 	__CreateMeshMatrices();

  000a1	8b 4d fc	 mov	 ecx, DWORD PTR _this$[ebp]
  000a4	e8 00 00 00 00	 call	 ?__CreateMeshMatrices@CGrannyModelInstance@@IAEXXZ ; CGrannyModelInstance::__CreateMeshMatrices

; 58   : 
; 59   : 	ResetLocalTime();

  000a9	8b 4d fc	 mov	 ecx, DWORD PTR _this$[ebp]
  000ac	e8 00 00 00 00	 call	 ?ResetLocalTime@CGrannyModelInstance@@QAEHXZ ; CGrannyModelInstance::ResetLocalTime

; 60   : 	
; 61   : 	m_kMtrlPal.Copy(pkModel->GetMaterialPalette());

  000b1	8b 4d 08	 mov	 ecx, DWORD PTR _pkModel$[ebp]
  000b4	e8 00 00 00 00	 call	 ?GetMaterialPalette@CGrannyModel@@QBEABVCGrannyMaterialPalette@@XZ ; CGrannyModel::GetMaterialPalette
  000b9	50		 push	 eax
  000ba	8b 4d fc	 mov	 ecx, DWORD PTR _this$[ebp]
  000bd	83 c1 2c	 add	 ecx, 44			; 0000002cH
  000c0	e8 00 00 00 00	 call	 ?Copy@CGrannyMaterialPalette@@QAEXABV1@@Z ; CGrannyMaterialPalette::Copy

; 62   : }

  000c5	c9		 leave
  000c6	c2 0c 00	 ret	 12			; 0000000cH
?SetLinkedModelPointer@CGrannyModelInstance@@QAEXPAVCGrannyModel@@PAVCGraphicVertexBuffer@@PAPAV1@@Z ENDP ; CGrannyModelInstance::SetLinkedModelPointer
_TEXT	ENDS
; Function compile flags: /Odspy
; File D:\Metin2 Server Files\mainline\SRC_2014\Metin2Client\eterGrnLib\ModelInstanceModel.cpp
;	COMDAT ?SetMainModelPointer@CGrannyModelInstance@@QAEXPAVCGrannyModel@@PAVCGraphicVertexBuffer@@@Z
_TEXT	SEGMENT
_this$ = -4						; size = 4
_pModel$ = 8						; size = 4
_pkSharedDeformableVertexBuffer$ = 12			; size = 4
?SetMainModelPointer@CGrannyModelInstance@@QAEXPAVCGrannyModel@@PAVCGraphicVertexBuffer@@@Z PROC ; CGrannyModelInstance::SetMainModelPointer, COMDAT
; _this$ = ecx

; 21   : {

  00000	55		 push	 ebp
  00001	8b ec		 mov	 ebp, esp
  00003	51		 push	 ecx
  00004	89 4d fc	 mov	 DWORD PTR _this$[ebp], ecx

; 22   : 	SetLinkedModelPointer(pModel, pkSharedDeformableVertexBuffer, NULL);

  00007	6a 00		 push	 0
  00009	ff 75 0c	 push	 DWORD PTR _pkSharedDeformableVertexBuffer$[ebp]
  0000c	ff 75 08	 push	 DWORD PTR _pModel$[ebp]
  0000f	8b 4d fc	 mov	 ecx, DWORD PTR _this$[ebp]
  00012	e8 00 00 00 00	 call	 ?SetLinkedModelPointer@CGrannyModelInstance@@QAEXPAVCGrannyModel@@PAVCGraphicVertexBuffer@@PAPAV1@@Z ; CGrannyModelInstance::SetLinkedModelPointer

; 23   : }

  00017	c9		 leave
  00018	c2 08 00	 ret	 8
?SetMainModelPointer@CGrannyModelInstance@@QAEXPAVCGrannyModel@@PAVCGraphicVertexBuffer@@@Z ENDP ; CGrannyModelInstance::SetMainModelPointer
_TEXT	ENDS
; Function compile flags: /Odspy
; File D:\Metin2 Server Files\mainline\SRC_2014\Metin2Client\eterGrnLib\ModelInstanceModel.cpp
;	COMDAT ?Clear@CGrannyModelInstance@@QAEXXZ
_TEXT	SEGMENT
_this$ = -4						; size = 4
?Clear@CGrannyModelInstance@@QAEXXZ PROC		; CGrannyModelInstance::Clear, COMDAT
; _this$ = ecx

; 6    : {

  00000	55		 push	 ebp
  00001	8b ec		 mov	 ebp, esp
  00003	51		 push	 ecx
  00004	89 4d fc	 mov	 DWORD PTR _this$[ebp], ecx

; 7    : 	m_kMtrlPal.Clear();

  00007	8b 4d fc	 mov	 ecx, DWORD PTR _this$[ebp]
  0000a	83 c1 2c	 add	 ecx, 44			; 0000002cH
  0000d	e8 00 00 00 00	 call	 ?Clear@CGrannyMaterialPalette@@QAEXXZ ; CGrannyMaterialPalette::Clear

; 8    : 	
; 9    : 	DestroyDeviceObjects();

  00012	8b 4d fc	 mov	 ecx, DWORD PTR _this$[ebp]
  00015	e8 00 00 00 00	 call	 ?DestroyDeviceObjects@CGrannyModelInstance@@QAEXXZ ; CGrannyModelInstance::DestroyDeviceObjects

; 10   : 	// WORK
; 11   : 	__DestroyMeshBindingVector();

  0001a	8b 4d fc	 mov	 ecx, DWORD PTR _this$[ebp]
  0001d	e8 00 00 00 00	 call	 ?__DestroyMeshBindingVector@CGrannyModelInstance@@IAEXXZ ; CGrannyModelInstance::__DestroyMeshBindingVector

; 12   : 	// END_OF_WORK
; 13   : 	__DestroyMeshMatrices();

  00022	8b 4d fc	 mov	 ecx, DWORD PTR _this$[ebp]
  00025	e8 00 00 00 00	 call	 ?__DestroyMeshMatrices@CGrannyModelInstance@@IAEXXZ ; CGrannyModelInstance::__DestroyMeshMatrices

; 14   : 	__DestroyModelInstance();

  0002a	8b 4d fc	 mov	 ecx, DWORD PTR _this$[ebp]
  0002d	e8 00 00 00 00	 call	 ?__DestroyModelInstance@CGrannyModelInstance@@IAEXXZ ; CGrannyModelInstance::__DestroyModelInstance

; 15   : 	__DestroyWorldPose();

  00032	8b 4d fc	 mov	 ecx, DWORD PTR _this$[ebp]
  00035	e8 00 00 00 00	 call	 ?__DestroyWorldPose@CGrannyModelInstance@@IAEXXZ ; CGrannyModelInstance::__DestroyWorldPose

; 16   : 
; 17   : 	__Initialize();

  0003a	8b 4d fc	 mov	 ecx, DWORD PTR _this$[ebp]
  0003d	e8 00 00 00 00	 call	 ?__Initialize@CGrannyModelInstance@@IAEXXZ ; CGrannyModelInstance::__Initialize

; 18   : }

  00042	c9		 leave
  00043	c3		 ret	 0
?Clear@CGrannyModelInstance@@QAEXXZ ENDP		; CGrannyModelInstance::Clear
_TEXT	ENDS
; Function compile flags: /Odspy
; File C:\Program Files (x86)\Microsoft Visual Studio\2019\Community\VC\Tools\MSVC\14.28.29333\include\xmemory
;	COMDAT ?_Adjust_manually_vector_aligned@std@@YAXAAPAXAAI@Z
_TEXT	SEGMENT
__Min_back_shift$ = -16					; size = 4
__Ptr_user$ = -12					; size = 4
__Ptr_container$ = -8					; size = 4
__Back_shift$ = -4					; size = 4
__Ptr$ = 8						; size = 4
__Bytes$ = 12						; size = 4
?_Adjust_manually_vector_aligned@std@@YAXAAPAXAAI@Z PROC ; std::_Adjust_manually_vector_aligned, COMDAT

; 132  : inline void _Adjust_manually_vector_aligned(void*& _Ptr, size_t& _Bytes) {

  00000	55		 push	 ebp
  00001	8b ec		 mov	 ebp, esp
  00003	83 ec 10	 sub	 esp, 16			; 00000010H

; 133  :     // adjust parameters from _Allocate_manually_vector_aligned to pass to operator delete
; 134  :     _Bytes += _Non_user_size;

  00006	8b 45 0c	 mov	 eax, DWORD PTR __Bytes$[ebp]
  00009	8b 00		 mov	 eax, DWORD PTR [eax]
  0000b	83 c0 23	 add	 eax, 35			; 00000023H
  0000e	8b 4d 0c	 mov	 ecx, DWORD PTR __Bytes$[ebp]
  00011	89 01		 mov	 DWORD PTR [ecx], eax

; 135  : 
; 136  :     const uintptr_t* const _Ptr_user = reinterpret_cast<uintptr_t*>(_Ptr);

  00013	8b 45 08	 mov	 eax, DWORD PTR __Ptr$[ebp]
  00016	8b 00		 mov	 eax, DWORD PTR [eax]
  00018	89 45 f4	 mov	 DWORD PTR __Ptr_user$[ebp], eax

; 137  :     const uintptr_t _Ptr_container   = _Ptr_user[-1];

  0001b	6a 04		 push	 4
  0001d	58		 pop	 eax
  0001e	6b c0 ff	 imul	 eax, eax, -1
  00021	8b 4d f4	 mov	 ecx, DWORD PTR __Ptr_user$[ebp]
  00024	8b 04 01	 mov	 eax, DWORD PTR [ecx+eax]
  00027	89 45 f8	 mov	 DWORD PTR __Ptr_container$[ebp], eax

; 138  : 
; 139  :     // If the following asserts, it likely means that we are performing
; 140  :     // an aligned delete on memory coming from an unaligned allocation.
; 141  :     _STL_ASSERT(_Ptr_user[-2] == _Big_allocation_sentinel, "invalid argument");
; 142  : 
; 143  :     // Extra paranoia on aligned allocation/deallocation; ensure _Ptr_container is
; 144  :     // in range [_Min_back_shift, _Non_user_size]
; 145  : #ifdef _DEBUG
; 146  :     constexpr uintptr_t _Min_back_shift = 2 * sizeof(void*);
; 147  : #else // ^^^ _DEBUG ^^^ // vvv !_DEBUG vvv
; 148  :     constexpr uintptr_t _Min_back_shift = sizeof(void*);

  0002a	c7 45 f0 04 00
	00 00		 mov	 DWORD PTR __Min_back_shift$[ebp], 4

; 149  : #endif // _DEBUG
; 150  :     const uintptr_t _Back_shift = reinterpret_cast<uintptr_t>(_Ptr) - _Ptr_container;

  00031	8b 45 08	 mov	 eax, DWORD PTR __Ptr$[ebp]
  00034	8b 00		 mov	 eax, DWORD PTR [eax]
  00036	2b 45 f8	 sub	 eax, DWORD PTR __Ptr_container$[ebp]
  00039	89 45 fc	 mov	 DWORD PTR __Back_shift$[ebp], eax
$LN4@Adjust_man:

; 151  :     _STL_VERIFY(_Back_shift >= _Min_back_shift && _Back_shift <= _Non_user_size, "invalid argument");

  0003c	83 7d fc 04	 cmp	 DWORD PTR __Back_shift$[ebp], 4
  00040	72 08		 jb	 SHORT $LN7@Adjust_man
  00042	83 7d fc 23	 cmp	 DWORD PTR __Back_shift$[ebp], 35 ; 00000023H
  00046	77 02		 ja	 SHORT $LN7@Adjust_man
  00048	eb 09		 jmp	 SHORT $LN2@Adjust_man
$LN7@Adjust_man:
  0004a	e8 00 00 00 00	 call	 __invalid_parameter_noinfo_noreturn
  0004f	33 c0		 xor	 eax, eax
  00051	75 f7		 jne	 SHORT $LN7@Adjust_man
$LN2@Adjust_man:
  00053	33 c0		 xor	 eax, eax
  00055	75 e5		 jne	 SHORT $LN4@Adjust_man

; 152  :     _Ptr = reinterpret_cast<void*>(_Ptr_container);

  00057	8b 45 08	 mov	 eax, DWORD PTR __Ptr$[ebp]
  0005a	8b 4d f8	 mov	 ecx, DWORD PTR __Ptr_container$[ebp]
  0005d	89 08		 mov	 DWORD PTR [eax], ecx
$LN10@Adjust_man:

; 153  : }

  0005f	c9		 leave
  00060	c3		 ret	 0
?_Adjust_manually_vector_aligned@std@@YAXAAPAXAAI@Z ENDP ; std::_Adjust_manually_vector_aligned
_TEXT	ENDS
; Function compile flags: /Odspy
; File C:\Program Files (x86)\Microsoft Visual Studio\2019\Community\VC\Tools\MSVC\14.28.29333\include\exception
;	COMDAT ?_Throw_bad_array_new_length@std@@YAXXZ
_TEXT	SEGMENT
$T1 = -12						; size = 12
?_Throw_bad_array_new_length@std@@YAXXZ PROC		; std::_Throw_bad_array_new_length, COMDAT

; 320  : [[noreturn]] inline void _Throw_bad_array_new_length() {

  00000	55		 push	 ebp
  00001	8b ec		 mov	 ebp, esp
  00003	83 ec 0c	 sub	 esp, 12			; 0000000cH

; 321  :     _THROW(bad_array_new_length{});

  00006	8d 4d f4	 lea	 ecx, DWORD PTR $T1[ebp]
  00009	e8 00 00 00 00	 call	 ??0bad_array_new_length@std@@QAE@XZ ; std::bad_array_new_length::bad_array_new_length
  0000e	68 00 00 00 00	 push	 OFFSET __TI3?AVbad_array_new_length@std@@
  00013	8d 45 f4	 lea	 eax, DWORD PTR $T1[ebp]
  00016	50		 push	 eax
  00017	e8 00 00 00 00	 call	 __CxxThrowException@8
$LN2@Throw_bad_:

; 322  : }

  0001c	c9		 leave
  0001d	c3		 ret	 0
?_Throw_bad_array_new_length@std@@YAXXZ ENDP		; std::_Throw_bad_array_new_length
_TEXT	ENDS
; Function compile flags: /Odspy
; File C:\Program Files (x86)\Microsoft Visual Studio\2019\Community\VC\Tools\MSVC\14.28.29333\include\vcruntime_exception.h
;	COMDAT ??_Gbad_array_new_length@std@@UAEPAXI@Z
_TEXT	SEGMENT
_this$ = -4						; size = 4
___flags$ = 8						; size = 4
??_Gbad_array_new_length@std@@UAEPAXI@Z PROC		; std::bad_array_new_length::`scalar deleting destructor', COMDAT
; _this$ = ecx
  00000	55		 push	 ebp
  00001	8b ec		 mov	 ebp, esp
  00003	51		 push	 ecx
  00004	89 4d fc	 mov	 DWORD PTR _this$[ebp], ecx

; 89   :     {

  00007	8b 45 fc	 mov	 eax, DWORD PTR _this$[ebp]
  0000a	c7 00 00 00 00
	00		 mov	 DWORD PTR [eax], OFFSET ??_7exception@std@@6B@

; 90   :         __std_exception_destroy(&_Data);

  00010	8b 45 fc	 mov	 eax, DWORD PTR _this$[ebp]
  00013	83 c0 04	 add	 eax, 4
  00016	50		 push	 eax
  00017	e8 00 00 00 00	 call	 ___std_exception_destroy
  0001c	59		 pop	 ecx
  0001d	8b 45 08	 mov	 eax, DWORD PTR ___flags$[ebp]
  00020	83 e0 01	 and	 eax, 1
  00023	74 0c		 je	 SHORT $LN2@scalar
  00025	6a 0c		 push	 12			; 0000000cH
  00027	ff 75 fc	 push	 DWORD PTR _this$[ebp]
  0002a	e8 00 00 00 00	 call	 ??3@YAXPAXI@Z		; operator delete
  0002f	59		 pop	 ecx
  00030	59		 pop	 ecx
$LN2@scalar:
  00031	8b 45 fc	 mov	 eax, DWORD PTR _this$[ebp]
  00034	c9		 leave
  00035	c2 04 00	 ret	 4
??_Gbad_array_new_length@std@@UAEPAXI@Z ENDP		; std::bad_array_new_length::`scalar deleting destructor'
_TEXT	ENDS
; Function compile flags: /Odspy
;	COMDAT ??0bad_array_new_length@std@@QAE@ABV01@@Z
_TEXT	SEGMENT
_this$ = -4						; size = 4
___that$ = 8						; size = 4
??0bad_array_new_length@std@@QAE@ABV01@@Z PROC		; std::bad_array_new_length::bad_array_new_length, COMDAT
; _this$ = ecx
  00000	55		 push	 ebp
  00001	8b ec		 mov	 ebp, esp
  00003	51		 push	 ecx
  00004	89 4d fc	 mov	 DWORD PTR _this$[ebp], ecx
  00007	ff 75 08	 push	 DWORD PTR ___that$[ebp]
  0000a	8b 4d fc	 mov	 ecx, DWORD PTR _this$[ebp]
  0000d	e8 00 00 00 00	 call	 ??0exception@std@@QAE@ABV01@@Z ; std::exception::exception
  00012	8b 45 fc	 mov	 eax, DWORD PTR _this$[ebp]
  00015	c7 00 00 00 00
	00		 mov	 DWORD PTR [eax], OFFSET ??_7bad_alloc@std@@6B@
  0001b	8b 45 fc	 mov	 eax, DWORD PTR _this$[ebp]
  0001e	c7 00 00 00 00
	00		 mov	 DWORD PTR [eax], OFFSET ??_7bad_array_new_length@std@@6B@
  00024	8b 45 fc	 mov	 eax, DWORD PTR _this$[ebp]
  00027	c9		 leave
  00028	c2 04 00	 ret	 4
??0bad_array_new_length@std@@QAE@ABV01@@Z ENDP		; std::bad_array_new_length::bad_array_new_length
_TEXT	ENDS
; Function compile flags: /Odspy
; File C:\Program Files (x86)\Microsoft Visual Studio\2019\Community\VC\Tools\MSVC\14.28.29333\include\vcruntime_exception.h
;	COMDAT ??1bad_array_new_length@std@@UAE@XZ
_TEXT	SEGMENT
_this$ = -4						; size = 4
??1bad_array_new_length@std@@UAE@XZ PROC		; std::bad_array_new_length::~bad_array_new_length, COMDAT
; _this$ = ecx
  00000	55		 push	 ebp
  00001	8b ec		 mov	 ebp, esp
  00003	51		 push	 ecx
  00004	89 4d fc	 mov	 DWORD PTR _this$[ebp], ecx

; 89   :     {

  00007	8b 45 fc	 mov	 eax, DWORD PTR _this$[ebp]
  0000a	c7 00 00 00 00
	00		 mov	 DWORD PTR [eax], OFFSET ??_7exception@std@@6B@

; 90   :         __std_exception_destroy(&_Data);

  00010	8b 45 fc	 mov	 eax, DWORD PTR _this$[ebp]
  00013	83 c0 04	 add	 eax, 4
  00016	50		 push	 eax
  00017	e8 00 00 00 00	 call	 ___std_exception_destroy
  0001c	59		 pop	 ecx
  0001d	c9		 leave
  0001e	c3		 ret	 0
??1bad_array_new_length@std@@UAE@XZ ENDP		; std::bad_array_new_length::~bad_array_new_length
_TEXT	ENDS
; Function compile flags: /Odspy
; File C:\Program Files (x86)\Microsoft Visual Studio\2019\Community\VC\Tools\MSVC\14.28.29333\include\vcruntime_exception.h
;	COMDAT ??0bad_array_new_length@std@@QAE@XZ
_TEXT	SEGMENT
_this$ = -4						; size = 4
??0bad_array_new_length@std@@QAE@XZ PROC		; std::bad_array_new_length::bad_array_new_length, COMDAT
; _this$ = ecx

; 141  :     {

  00000	55		 push	 ebp
  00001	8b ec		 mov	 ebp, esp
  00003	51		 push	 ecx
  00004	89 4d fc	 mov	 DWORD PTR _this$[ebp], ecx

; 66   :     {

  00007	8b 45 fc	 mov	 eax, DWORD PTR _this$[ebp]
  0000a	c7 00 00 00 00
	00		 mov	 DWORD PTR [eax], OFFSET ??_7exception@std@@6B@

; 65   :         : _Data()

  00010	33 c0		 xor	 eax, eax
  00012	8b 4d fc	 mov	 ecx, DWORD PTR _this$[ebp]
  00015	83 c1 04	 add	 ecx, 4
  00018	89 01		 mov	 DWORD PTR [ecx], eax
  0001a	89 41 04	 mov	 DWORD PTR [ecx+4], eax

; 67   :         _Data._What = _Message;

  0001d	8b 45 fc	 mov	 eax, DWORD PTR _this$[ebp]
  00020	c7 40 04 00 00
	00 00		 mov	 DWORD PTR [eax+4], OFFSET ??_C@_0BF@KINCDENJ@bad?5array?5new?5length@

; 130  :     {

  00027	8b 45 fc	 mov	 eax, DWORD PTR _this$[ebp]
  0002a	c7 00 00 00 00
	00		 mov	 DWORD PTR [eax], OFFSET ??_7bad_alloc@std@@6B@

; 141  :     {

  00030	8b 45 fc	 mov	 eax, DWORD PTR _this$[ebp]
  00033	c7 00 00 00 00
	00		 mov	 DWORD PTR [eax], OFFSET ??_7bad_array_new_length@std@@6B@

; 142  :     }

  00039	8b 45 fc	 mov	 eax, DWORD PTR _this$[ebp]
  0003c	c9		 leave
  0003d	c3		 ret	 0
??0bad_array_new_length@std@@QAE@XZ ENDP		; std::bad_array_new_length::bad_array_new_length
_TEXT	ENDS
; Function compile flags: /Odspy
; File C:\Program Files (x86)\Microsoft Visual Studio\2019\Community\VC\Tools\MSVC\14.28.29333\include\vcruntime_exception.h
;	COMDAT ??_Gbad_alloc@std@@UAEPAXI@Z
_TEXT	SEGMENT
_this$ = -4						; size = 4
___flags$ = 8						; size = 4
??_Gbad_alloc@std@@UAEPAXI@Z PROC			; std::bad_alloc::`scalar deleting destructor', COMDAT
; _this$ = ecx
  00000	55		 push	 ebp
  00001	8b ec		 mov	 ebp, esp
  00003	51		 push	 ecx
  00004	89 4d fc	 mov	 DWORD PTR _this$[ebp], ecx

; 89   :     {

  00007	8b 45 fc	 mov	 eax, DWORD PTR _this$[ebp]
  0000a	c7 00 00 00 00
	00		 mov	 DWORD PTR [eax], OFFSET ??_7exception@std@@6B@

; 90   :         __std_exception_destroy(&_Data);

  00010	8b 45 fc	 mov	 eax, DWORD PTR _this$[ebp]
  00013	83 c0 04	 add	 eax, 4
  00016	50		 push	 eax
  00017	e8 00 00 00 00	 call	 ___std_exception_destroy
  0001c	59		 pop	 ecx
  0001d	8b 45 08	 mov	 eax, DWORD PTR ___flags$[ebp]
  00020	83 e0 01	 and	 eax, 1
  00023	74 0c		 je	 SHORT $LN2@scalar
  00025	6a 0c		 push	 12			; 0000000cH
  00027	ff 75 fc	 push	 DWORD PTR _this$[ebp]
  0002a	e8 00 00 00 00	 call	 ??3@YAXPAXI@Z		; operator delete
  0002f	59		 pop	 ecx
  00030	59		 pop	 ecx
$LN2@scalar:
  00031	8b 45 fc	 mov	 eax, DWORD PTR _this$[ebp]
  00034	c9		 leave
  00035	c2 04 00	 ret	 4
??_Gbad_alloc@std@@UAEPAXI@Z ENDP			; std::bad_alloc::`scalar deleting destructor'
_TEXT	ENDS
; Function compile flags: /Odspy
;	COMDAT ??0bad_alloc@std@@QAE@ABV01@@Z
_TEXT	SEGMENT
_this$ = -4						; size = 4
___that$ = 8						; size = 4
??0bad_alloc@std@@QAE@ABV01@@Z PROC			; std::bad_alloc::bad_alloc, COMDAT
; _this$ = ecx
  00000	55		 push	 ebp
  00001	8b ec		 mov	 ebp, esp
  00003	51		 push	 ecx
  00004	89 4d fc	 mov	 DWORD PTR _this$[ebp], ecx
  00007	ff 75 08	 push	 DWORD PTR ___that$[ebp]
  0000a	8b 4d fc	 mov	 ecx, DWORD PTR _this$[ebp]
  0000d	e8 00 00 00 00	 call	 ??0exception@std@@QAE@ABV01@@Z ; std::exception::exception
  00012	8b 45 fc	 mov	 eax, DWORD PTR _this$[ebp]
  00015	c7 00 00 00 00
	00		 mov	 DWORD PTR [eax], OFFSET ??_7bad_alloc@std@@6B@
  0001b	8b 45 fc	 mov	 eax, DWORD PTR _this$[ebp]
  0001e	c9		 leave
  0001f	c2 04 00	 ret	 4
??0bad_alloc@std@@QAE@ABV01@@Z ENDP			; std::bad_alloc::bad_alloc
_TEXT	ENDS
; Function compile flags: /Odspy
; File C:\Program Files (x86)\Microsoft Visual Studio\2019\Community\VC\Tools\MSVC\14.28.29333\include\vcruntime_exception.h
;	COMDAT ??_Gexception@std@@UAEPAXI@Z
_TEXT	SEGMENT
_this$ = -4						; size = 4
___flags$ = 8						; size = 4
??_Gexception@std@@UAEPAXI@Z PROC			; std::exception::`scalar deleting destructor', COMDAT
; _this$ = ecx
  00000	55		 push	 ebp
  00001	8b ec		 mov	 ebp, esp
  00003	51		 push	 ecx
  00004	89 4d fc	 mov	 DWORD PTR _this$[ebp], ecx

; 89   :     {

  00007	8b 45 fc	 mov	 eax, DWORD PTR _this$[ebp]
  0000a	c7 00 00 00 00
	00		 mov	 DWORD PTR [eax], OFFSET ??_7exception@std@@6B@

; 90   :         __std_exception_destroy(&_Data);

  00010	8b 45 fc	 mov	 eax, DWORD PTR _this$[ebp]
  00013	83 c0 04	 add	 eax, 4
  00016	50		 push	 eax
  00017	e8 00 00 00 00	 call	 ___std_exception_destroy
  0001c	59		 pop	 ecx
  0001d	8b 45 08	 mov	 eax, DWORD PTR ___flags$[ebp]
  00020	83 e0 01	 and	 eax, 1
  00023	74 0c		 je	 SHORT $LN2@scalar
  00025	6a 0c		 push	 12			; 0000000cH
  00027	ff 75 fc	 push	 DWORD PTR _this$[ebp]
  0002a	e8 00 00 00 00	 call	 ??3@YAXPAXI@Z		; operator delete
  0002f	59		 pop	 ecx
  00030	59		 pop	 ecx
$LN2@scalar:
  00031	8b 45 fc	 mov	 eax, DWORD PTR _this$[ebp]
  00034	c9		 leave
  00035	c2 04 00	 ret	 4
??_Gexception@std@@UAEPAXI@Z ENDP			; std::exception::`scalar deleting destructor'
_TEXT	ENDS
; Function compile flags: /Odspy
; File C:\Program Files (x86)\Microsoft Visual Studio\2019\Community\VC\Tools\MSVC\14.28.29333\include\vcruntime_exception.h
;	COMDAT ?what@exception@std@@UBEPBDXZ
_TEXT	SEGMENT
tv69 = -8						; size = 4
_this$ = -4						; size = 4
?what@exception@std@@UBEPBDXZ PROC			; std::exception::what, COMDAT
; _this$ = ecx

; 94   :     {

  00000	55		 push	 ebp
  00001	8b ec		 mov	 ebp, esp
  00003	51		 push	 ecx
  00004	51		 push	 ecx
  00005	89 4d fc	 mov	 DWORD PTR _this$[ebp], ecx

; 95   :         return _Data._What ? _Data._What : "Unknown exception";

  00008	8b 45 fc	 mov	 eax, DWORD PTR _this$[ebp]
  0000b	83 78 04 00	 cmp	 DWORD PTR [eax+4], 0
  0000f	74 0b		 je	 SHORT $LN3@what
  00011	8b 45 fc	 mov	 eax, DWORD PTR _this$[ebp]
  00014	8b 40 04	 mov	 eax, DWORD PTR [eax+4]
  00017	89 45 f8	 mov	 DWORD PTR tv69[ebp], eax
  0001a	eb 07		 jmp	 SHORT $LN4@what
$LN3@what:
  0001c	c7 45 f8 00 00
	00 00		 mov	 DWORD PTR tv69[ebp], OFFSET ??_C@_0BC@EOODALEL@Unknown?5exception@
$LN4@what:
  00023	8b 45 f8	 mov	 eax, DWORD PTR tv69[ebp]

; 96   :     }

  00026	c9		 leave
  00027	c3		 ret	 0
?what@exception@std@@UBEPBDXZ ENDP			; std::exception::what
_TEXT	ENDS
; Function compile flags: /Odspy
; File C:\Program Files (x86)\Microsoft Visual Studio\2019\Community\VC\Tools\MSVC\14.28.29333\include\vcruntime_exception.h
;	COMDAT ??0exception@std@@QAE@ABV01@@Z
_TEXT	SEGMENT
_this$ = -4						; size = 4
__Other$ = 8						; size = 4
??0exception@std@@QAE@ABV01@@Z PROC			; std::exception::exception, COMDAT
; _this$ = ecx

; 72   :     {

  00000	55		 push	 ebp
  00001	8b ec		 mov	 ebp, esp
  00003	51		 push	 ecx
  00004	89 4d fc	 mov	 DWORD PTR _this$[ebp], ecx
  00007	8b 45 fc	 mov	 eax, DWORD PTR _this$[ebp]
  0000a	c7 00 00 00 00
	00		 mov	 DWORD PTR [eax], OFFSET ??_7exception@std@@6B@

; 71   :         : _Data()

  00010	33 c0		 xor	 eax, eax
  00012	8b 4d fc	 mov	 ecx, DWORD PTR _this$[ebp]
  00015	83 c1 04	 add	 ecx, 4
  00018	89 01		 mov	 DWORD PTR [ecx], eax
  0001a	89 41 04	 mov	 DWORD PTR [ecx+4], eax

; 73   :         __std_exception_copy(&_Other._Data, &_Data);

  0001d	8b 45 fc	 mov	 eax, DWORD PTR _this$[ebp]
  00020	83 c0 04	 add	 eax, 4
  00023	50		 push	 eax
  00024	8b 45 08	 mov	 eax, DWORD PTR __Other$[ebp]
  00027	83 c0 04	 add	 eax, 4
  0002a	50		 push	 eax
  0002b	e8 00 00 00 00	 call	 ___std_exception_copy
  00030	59		 pop	 ecx
  00031	59		 pop	 ecx

; 74   :     }

  00032	8b 45 fc	 mov	 eax, DWORD PTR _this$[ebp]
  00035	c9		 leave
  00036	c2 04 00	 ret	 4
??0exception@std@@QAE@ABV01@@Z ENDP			; std::exception::exception
_TEXT	ENDS
; Function compile flags: /Odspy
;	COMDAT ??_H@YGXPAXIIP6EPAX0@Z@Z
_TEXT	SEGMENT
tv66 = -4						; size = 4
___t$ = 8						; size = 4
___s$ = 12						; size = 4
___n$ = 16						; size = 4
___f$ = 20						; size = 4
??_H@YGXPAXIIP6EPAX0@Z@Z PROC				; `vector constructor iterator', COMDAT
  00000	55		 push	 ebp
  00001	8b ec		 mov	 ebp, esp
  00003	51		 push	 ecx
$LN2@vector:
  00004	8b 45 10	 mov	 eax, DWORD PTR ___n$[ebp]
  00007	89 45 fc	 mov	 DWORD PTR tv66[ebp], eax
  0000a	8b 45 10	 mov	 eax, DWORD PTR ___n$[ebp]
  0000d	48		 dec	 eax
  0000e	89 45 10	 mov	 DWORD PTR ___n$[ebp], eax
  00011	83 7d fc 00	 cmp	 DWORD PTR tv66[ebp], 0
  00015	76 11		 jbe	 SHORT $LN1@vector
  00017	8b 4d 08	 mov	 ecx, DWORD PTR ___t$[ebp]
  0001a	ff 55 14	 call	 DWORD PTR ___f$[ebp]
  0001d	8b 45 08	 mov	 eax, DWORD PTR ___t$[ebp]
  00020	03 45 0c	 add	 eax, DWORD PTR ___s$[ebp]
  00023	89 45 08	 mov	 DWORD PTR ___t$[ebp], eax
  00026	eb dc		 jmp	 SHORT $LN2@vector
$LN1@vector:
  00028	c9		 leave
  00029	c2 10 00	 ret	 16			; 00000010H
??_H@YGXPAXIIP6EPAX0@Z@Z ENDP				; `vector constructor iterator'
_TEXT	ENDS
END
