; Listing generated by Microsoft (R) Optimizing Compiler Version 19.28.29335.0 

	TITLE	D:\Metin2 Server Files\mainline\SRC_2014\Metin2Client\eterGrnLib\Motion.cpp
	.686P
	.XMM
	include listing.inc
	.model	flat

INCLUDELIB LIBCMT
INCLUDELIB OLDNAMES

PUBLIC	??0CGrannyMotion@@QAE@XZ			; CGrannyMotion::CGrannyMotion
PUBLIC	??1CGrannyMotion@@UAE@XZ			; CGrannyMotion::~CGrannyMotion
PUBLIC	?IsEmpty@CGrannyMotion@@QAE_NXZ			; CGrannyMotion::IsEmpty
PUBLIC	?Destroy@CGrannyMotion@@QAEXXZ			; CGrannyMotion::Destroy
PUBLIC	?BindGrannyAnimation@CGrannyMotion@@QAE_NPAUgranny_animation@@@Z ; CGrannyMotion::BindGrannyAnimation
PUBLIC	?GetGrannyAnimationPointer@CGrannyMotion@@QBEPAUgranny_animation@@XZ ; CGrannyMotion::GetGrannyAnimationPointer
PUBLIC	?GetName@CGrannyMotion@@QBEPBDXZ		; CGrannyMotion::GetName
PUBLIC	?GetDuration@CGrannyMotion@@QBEMXZ		; CGrannyMotion::GetDuration
PUBLIC	?GetTextTrack@CGrannyMotion@@QBEXPBDPAHPAM@Z	; CGrannyMotion::GetTextTrack
PUBLIC	?Initialize@CGrannyMotion@@IAEXXZ		; CGrannyMotion::Initialize
PUBLIC	??_GCGrannyMotion@@UAEPAXI@Z			; CGrannyMotion::`scalar deleting destructor'
PUBLIC	??_7CGrannyMotion@@6B@				; CGrannyMotion::`vftable'
PUBLIC	??_R4CGrannyMotion@@6B@				; CGrannyMotion::`RTTI Complete Object Locator'
PUBLIC	??_R0?AVCGrannyMotion@@@8			; CGrannyMotion `RTTI Type Descriptor'
PUBLIC	??_R3CGrannyMotion@@8				; CGrannyMotion::`RTTI Class Hierarchy Descriptor'
PUBLIC	??_R2CGrannyMotion@@8				; CGrannyMotion::`RTTI Base Class Array'
PUBLIC	??_R1A@?0A@EA@CGrannyMotion@@8			; CGrannyMotion::`RTTI Base Class Descriptor at (0,-1,0,64)'
EXTRN	??3@YAXPAXI@Z:PROC				; operator delete
EXTRN	_stricmp:PROC
EXTRN	??_ECGrannyMotion@@UAEPAXI@Z:PROC		; CGrannyMotion::`vector deleting destructor'
EXTRN	@__security_check_cookie@4:PROC
EXTRN	___CxxFrameHandler3:PROC
EXTRN	??_7type_info@@6B@:QWORD			; type_info::`vftable'
EXTRN	___security_cookie:DWORD
EXTRN	__fltused:DWORD
;	COMDAT ??_R1A@?0A@EA@CGrannyMotion@@8
rdata$r	SEGMENT
??_R1A@?0A@EA@CGrannyMotion@@8 DD FLAT:??_R0?AVCGrannyMotion@@@8 ; CGrannyMotion::`RTTI Base Class Descriptor at (0,-1,0,64)'
	DD	00H
	DD	00H
	DD	0ffffffffH
	DD	00H
	DD	040H
	DD	FLAT:??_R3CGrannyMotion@@8
rdata$r	ENDS
;	COMDAT ??_R2CGrannyMotion@@8
rdata$r	SEGMENT
??_R2CGrannyMotion@@8 DD FLAT:??_R1A@?0A@EA@CGrannyMotion@@8 ; CGrannyMotion::`RTTI Base Class Array'
rdata$r	ENDS
;	COMDAT ??_R3CGrannyMotion@@8
rdata$r	SEGMENT
??_R3CGrannyMotion@@8 DD 00H				; CGrannyMotion::`RTTI Class Hierarchy Descriptor'
	DD	00H
	DD	01H
	DD	FLAT:??_R2CGrannyMotion@@8
rdata$r	ENDS
;	COMDAT ??_R0?AVCGrannyMotion@@@8
data$rs	SEGMENT
??_R0?AVCGrannyMotion@@@8 DD FLAT:??_7type_info@@6B@	; CGrannyMotion `RTTI Type Descriptor'
	DD	00H
	DB	'.?AVCGrannyMotion@@', 00H
data$rs	ENDS
;	COMDAT ??_R4CGrannyMotion@@6B@
rdata$r	SEGMENT
??_R4CGrannyMotion@@6B@ DD 00H				; CGrannyMotion::`RTTI Complete Object Locator'
	DD	00H
	DD	00H
	DD	FLAT:??_R0?AVCGrannyMotion@@@8
	DD	FLAT:??_R3CGrannyMotion@@8
rdata$r	ENDS
;	COMDAT ??_7CGrannyMotion@@6B@
CONST	SEGMENT
??_7CGrannyMotion@@6B@ DD FLAT:??_R4CGrannyMotion@@6B@	; CGrannyMotion::`vftable'
	DD	FLAT:??_ECGrannyMotion@@UAEPAXI@Z
CONST	ENDS
;	COMDAT xdata$x
xdata$x	SEGMENT
__ehfuncinfo$??1CGrannyMotion@@UAE@XZ DD 019930522H
	DD	00H
	DD	00H
	DD	2 DUP(00H)
	DD	2 DUP(00H)
	DD	00H
	DD	05H
xdata$x	ENDS
; Function compile flags: /Odspy
;	COMDAT ??_GCGrannyMotion@@UAEPAXI@Z
_TEXT	SEGMENT
_this$ = -4						; size = 4
___flags$ = 8						; size = 4
??_GCGrannyMotion@@UAEPAXI@Z PROC			; CGrannyMotion::`scalar deleting destructor', COMDAT
; _this$ = ecx
  00000	55		 push	 ebp
  00001	8b ec		 mov	 ebp, esp
  00003	51		 push	 ecx
  00004	89 4d fc	 mov	 DWORD PTR _this$[ebp], ecx
  00007	8b 4d fc	 mov	 ecx, DWORD PTR _this$[ebp]
  0000a	e8 00 00 00 00	 call	 ??1CGrannyMotion@@UAE@XZ ; CGrannyMotion::~CGrannyMotion
  0000f	8b 45 08	 mov	 eax, DWORD PTR ___flags$[ebp]
  00012	83 e0 01	 and	 eax, 1
  00015	74 0c		 je	 SHORT $LN2@scalar
  00017	6a 08		 push	 8
  00019	ff 75 fc	 push	 DWORD PTR _this$[ebp]
  0001c	e8 00 00 00 00	 call	 ??3@YAXPAXI@Z		; operator delete
  00021	59		 pop	 ecx
  00022	59		 pop	 ecx
$LN2@scalar:
  00023	8b 45 fc	 mov	 eax, DWORD PTR _this$[ebp]
  00026	c9		 leave
  00027	c2 04 00	 ret	 4
??_GCGrannyMotion@@UAEPAXI@Z ENDP			; CGrannyMotion::`scalar deleting destructor'
_TEXT	ENDS
; Function compile flags: /Odspy
; File D:\Metin2 Server Files\mainline\SRC_2014\Metin2Client\eterGrnLib\Motion.cpp
;	COMDAT ?Initialize@CGrannyMotion@@IAEXXZ
_TEXT	SEGMENT
_this$ = -4						; size = 4
?Initialize@CGrannyMotion@@IAEXXZ PROC			; CGrannyMotion::Initialize, COMDAT
; _this$ = ecx

; 25   : {

  00000	55		 push	 ebp
  00001	8b ec		 mov	 ebp, esp
  00003	51		 push	 ecx
  00004	89 4d fc	 mov	 DWORD PTR _this$[ebp], ecx

; 26   : 	m_pgrnAni = NULL;

  00007	8b 45 fc	 mov	 eax, DWORD PTR _this$[ebp]
  0000a	83 60 04 00	 and	 DWORD PTR [eax+4], 0

; 27   : }

  0000e	c9		 leave
  0000f	c3		 ret	 0
?Initialize@CGrannyMotion@@IAEXXZ ENDP			; CGrannyMotion::Initialize
_TEXT	ENDS
; Function compile flags: /Odspy
; File D:\Metin2 Server Files\mainline\SRC_2014\Metin2Client\eterGrnLib\Motion.cpp
;	COMDAT ?GetTextTrack@CGrannyMotion@@QBEXPBDPAHPAM@Z
_TEXT	SEGMENT
_pTrack$ = -20						; size = 4
_this$ = -16						; size = 4
_rTextTrack$1 = -12					; size = 4
_i$2 = -8						; size = 4
_j$3 = -4						; size = 4
_c_szTextTrackName$ = 8					; size = 4
_pCount$ = 12						; size = 4
_pArray$ = 16						; size = 4
?GetTextTrack@CGrannyMotion@@QBEXPBDPAHPAM@Z PROC	; CGrannyMotion::GetTextTrack, COMDAT
; _this$ = ecx

; 53   : {

  00000	55		 push	 ebp
  00001	8b ec		 mov	 ebp, esp
  00003	83 ec 14	 sub	 esp, 20			; 00000014H
  00006	56		 push	 esi
  00007	89 4d f0	 mov	 DWORD PTR _this$[ebp], ecx

; 54   : 	if (m_pgrnAni->TrackGroupCount != 1)
; 55   : 	{
; 56   : //		assert(!"CGrannyMotion::GetTextTrack - TrackCount is not 1");
; 57   : 	}
; 58   : 
; 59   : 	granny_track_group * pTrack = m_pgrnAni->TrackGroups[0];

  0000a	8b 45 f0	 mov	 eax, DWORD PTR _this$[ebp]
  0000d	8b 40 04	 mov	 eax, DWORD PTR [eax+4]
  00010	6a 04		 push	 4
  00012	59		 pop	 ecx
  00013	6b c9 00	 imul	 ecx, ecx, 0
  00016	8b 40 14	 mov	 eax, DWORD PTR [eax+20]
  00019	8b 04 01	 mov	 eax, DWORD PTR [ecx+eax]
  0001c	89 45 ec	 mov	 DWORD PTR _pTrack$[ebp], eax

; 60   : 
; 61   : 	for (int i = 0; i < pTrack->TextTrackCount; ++i)

  0001f	83 65 f8 00	 and	 DWORD PTR _i$2[ebp], 0
  00023	eb 07		 jmp	 SHORT $LN4@GetTextTra
$LN2@GetTextTra:
  00025	8b 45 f8	 mov	 eax, DWORD PTR _i$2[ebp]
  00028	40		 inc	 eax
  00029	89 45 f8	 mov	 DWORD PTR _i$2[ebp], eax
$LN4@GetTextTra:
  0002c	8b 45 ec	 mov	 eax, DWORD PTR _pTrack$[ebp]
  0002f	8b 4d f8	 mov	 ecx, DWORD PTR _i$2[ebp]
  00032	3b 48 1c	 cmp	 ecx, DWORD PTR [eax+28]
  00035	7d 66		 jge	 SHORT $LN3@GetTextTra

; 62   : 	{
; 63   : 		granny_text_track & rTextTrack = pTrack->TextTracks[i];

  00037	6b 45 f8 0c	 imul	 eax, DWORD PTR _i$2[ebp], 12
  0003b	8b 4d ec	 mov	 ecx, DWORD PTR _pTrack$[ebp]
  0003e	03 41 20	 add	 eax, DWORD PTR [ecx+32]
  00041	89 45 f4	 mov	 DWORD PTR _rTextTrack$1[ebp], eax

; 64   : 
; 65   : 		for (int j = 0; j < rTextTrack.EntryCount; ++j)

  00044	83 65 fc 00	 and	 DWORD PTR _j$3[ebp], 0
  00048	eb 07		 jmp	 SHORT $LN7@GetTextTra
$LN5@GetTextTra:
  0004a	8b 45 fc	 mov	 eax, DWORD PTR _j$3[ebp]
  0004d	40		 inc	 eax
  0004e	89 45 fc	 mov	 DWORD PTR _j$3[ebp], eax
$LN7@GetTextTra:
  00051	8b 45 f4	 mov	 eax, DWORD PTR _rTextTrack$1[ebp]
  00054	8b 4d fc	 mov	 ecx, DWORD PTR _j$3[ebp]
  00057	3b 48 04	 cmp	 ecx, DWORD PTR [eax+4]
  0005a	7d 3f		 jge	 SHORT $LN6@GetTextTra

; 66   : 			if (!stricmp(c_szTextTrackName, rTextTrack.Entries[j].Text))

  0005c	8b 45 f4	 mov	 eax, DWORD PTR _rTextTrack$1[ebp]
  0005f	8b 40 08	 mov	 eax, DWORD PTR [eax+8]
  00062	8b 4d fc	 mov	 ecx, DWORD PTR _j$3[ebp]
  00065	ff 74 c8 04	 push	 DWORD PTR [eax+ecx*8+4]
  00069	ff 75 08	 push	 DWORD PTR _c_szTextTrackName$[ebp]
  0006c	e8 00 00 00 00	 call	 _stricmp
  00071	59		 pop	 ecx
  00072	59		 pop	 ecx
  00073	85 c0		 test	 eax, eax
  00075	75 22		 jne	 SHORT $LN9@GetTextTra

; 67   : 				pArray[(*pCount)++] = rTextTrack.Entries[j].TimeStamp;

  00077	8b 45 f4	 mov	 eax, DWORD PTR _rTextTrack$1[ebp]
  0007a	8b 40 08	 mov	 eax, DWORD PTR [eax+8]
  0007d	8b 4d 0c	 mov	 ecx, DWORD PTR _pCount$[ebp]
  00080	8b 09		 mov	 ecx, DWORD PTR [ecx]
  00082	8b 55 10	 mov	 edx, DWORD PTR _pArray$[ebp]
  00085	8b 75 fc	 mov	 esi, DWORD PTR _j$3[ebp]
  00088	8b 04 f0	 mov	 eax, DWORD PTR [eax+esi*8]
  0008b	89 04 8a	 mov	 DWORD PTR [edx+ecx*4], eax
  0008e	8b 45 0c	 mov	 eax, DWORD PTR _pCount$[ebp]
  00091	8b 00		 mov	 eax, DWORD PTR [eax]
  00093	40		 inc	 eax
  00094	8b 4d 0c	 mov	 ecx, DWORD PTR _pCount$[ebp]
  00097	89 01		 mov	 DWORD PTR [ecx], eax
$LN9@GetTextTra:
  00099	eb af		 jmp	 SHORT $LN5@GetTextTra
$LN6@GetTextTra:

; 68   : 	}

  0009b	eb 88		 jmp	 SHORT $LN2@GetTextTra
$LN3@GetTextTra:

; 69   : }

  0009d	5e		 pop	 esi
  0009e	c9		 leave
  0009f	c2 0c 00	 ret	 12			; 0000000cH
?GetTextTrack@CGrannyMotion@@QBEXPBDPAHPAM@Z ENDP	; CGrannyMotion::GetTextTrack
_TEXT	ENDS
; Function compile flags: /Odspy
; File D:\Metin2 Server Files\mainline\SRC_2014\Metin2Client\eterGrnLib\Motion.cpp
;	COMDAT ?GetDuration@CGrannyMotion@@QBEMXZ
_TEXT	SEGMENT
_this$ = -4						; size = 4
?GetDuration@CGrannyMotion@@QBEMXZ PROC			; CGrannyMotion::GetDuration, COMDAT
; _this$ = ecx

; 48   : {

  00000	55		 push	 ebp
  00001	8b ec		 mov	 ebp, esp
  00003	51		 push	 ecx
  00004	89 4d fc	 mov	 DWORD PTR _this$[ebp], ecx

; 49   : 	return m_pgrnAni->Duration;

  00007	8b 45 fc	 mov	 eax, DWORD PTR _this$[ebp]
  0000a	8b 40 04	 mov	 eax, DWORD PTR [eax+4]
  0000d	d9 40 04	 fld	 DWORD PTR [eax+4]

; 50   : }

  00010	c9		 leave
  00011	c3		 ret	 0
?GetDuration@CGrannyMotion@@QBEMXZ ENDP			; CGrannyMotion::GetDuration
_TEXT	ENDS
; Function compile flags: /Odspy
; File D:\Metin2 Server Files\mainline\SRC_2014\Metin2Client\eterGrnLib\Motion.cpp
;	COMDAT ?GetName@CGrannyMotion@@QBEPBDXZ
_TEXT	SEGMENT
_this$ = -4						; size = 4
?GetName@CGrannyMotion@@QBEPBDXZ PROC			; CGrannyMotion::GetName, COMDAT
; _this$ = ecx

; 43   : {

  00000	55		 push	 ebp
  00001	8b ec		 mov	 ebp, esp
  00003	51		 push	 ecx
  00004	89 4d fc	 mov	 DWORD PTR _this$[ebp], ecx

; 44   : 	return m_pgrnAni->Name;

  00007	8b 45 fc	 mov	 eax, DWORD PTR _this$[ebp]
  0000a	8b 40 04	 mov	 eax, DWORD PTR [eax+4]
  0000d	8b 00		 mov	 eax, DWORD PTR [eax]

; 45   : }

  0000f	c9		 leave
  00010	c3		 ret	 0
?GetName@CGrannyMotion@@QBEPBDXZ ENDP			; CGrannyMotion::GetName
_TEXT	ENDS
; Function compile flags: /Odspy
; File D:\Metin2 Server Files\mainline\SRC_2014\Metin2Client\eterGrnLib\Motion.cpp
;	COMDAT ?GetGrannyAnimationPointer@CGrannyMotion@@QBEPAUgranny_animation@@XZ
_TEXT	SEGMENT
_this$ = -4						; size = 4
?GetGrannyAnimationPointer@CGrannyMotion@@QBEPAUgranny_animation@@XZ PROC ; CGrannyMotion::GetGrannyAnimationPointer, COMDAT
; _this$ = ecx

; 38   : {

  00000	55		 push	 ebp
  00001	8b ec		 mov	 ebp, esp
  00003	51		 push	 ecx
  00004	89 4d fc	 mov	 DWORD PTR _this$[ebp], ecx

; 39   : 	return m_pgrnAni;

  00007	8b 45 fc	 mov	 eax, DWORD PTR _this$[ebp]
  0000a	8b 40 04	 mov	 eax, DWORD PTR [eax+4]

; 40   : }

  0000d	c9		 leave
  0000e	c3		 ret	 0
?GetGrannyAnimationPointer@CGrannyMotion@@QBEPAUgranny_animation@@XZ ENDP ; CGrannyMotion::GetGrannyAnimationPointer
_TEXT	ENDS
; Function compile flags: /Odspy
; File D:\Metin2 Server Files\mainline\SRC_2014\Metin2Client\eterGrnLib\Motion.cpp
;	COMDAT ?BindGrannyAnimation@CGrannyMotion@@QAE_NPAUgranny_animation@@@Z
_TEXT	SEGMENT
_this$ = -4						; size = 4
_pgrnAni$ = 8						; size = 4
?BindGrannyAnimation@CGrannyMotion@@QAE_NPAUgranny_animation@@@Z PROC ; CGrannyMotion::BindGrannyAnimation, COMDAT
; _this$ = ecx

; 30   : {

  00000	55		 push	 ebp
  00001	8b ec		 mov	 ebp, esp
  00003	51		 push	 ecx
  00004	89 4d fc	 mov	 DWORD PTR _this$[ebp], ecx

; 31   : 	assert(IsEmpty());
; 32   : 
; 33   : 	m_pgrnAni = pgrnAni;

  00007	8b 45 fc	 mov	 eax, DWORD PTR _this$[ebp]
  0000a	8b 4d 08	 mov	 ecx, DWORD PTR _pgrnAni$[ebp]
  0000d	89 48 04	 mov	 DWORD PTR [eax+4], ecx

; 34   : 	return true;

  00010	b0 01		 mov	 al, 1

; 35   : }

  00012	c9		 leave
  00013	c2 04 00	 ret	 4
?BindGrannyAnimation@CGrannyMotion@@QAE_NPAUgranny_animation@@@Z ENDP ; CGrannyMotion::BindGrannyAnimation
_TEXT	ENDS
; Function compile flags: /Odspy
; File D:\Metin2 Server Files\mainline\SRC_2014\Metin2Client\eterGrnLib\Motion.cpp
;	COMDAT ?Destroy@CGrannyMotion@@QAEXXZ
_TEXT	SEGMENT
_this$ = -4						; size = 4
?Destroy@CGrannyMotion@@QAEXXZ PROC			; CGrannyMotion::Destroy, COMDAT
; _this$ = ecx

; 20   : {

  00000	55		 push	 ebp
  00001	8b ec		 mov	 ebp, esp
  00003	51		 push	 ecx
  00004	89 4d fc	 mov	 DWORD PTR _this$[ebp], ecx

; 21   : 	Initialize();

  00007	8b 4d fc	 mov	 ecx, DWORD PTR _this$[ebp]
  0000a	e8 00 00 00 00	 call	 ?Initialize@CGrannyMotion@@IAEXXZ ; CGrannyMotion::Initialize

; 22   : }

  0000f	c9		 leave
  00010	c3		 ret	 0
?Destroy@CGrannyMotion@@QAEXXZ ENDP			; CGrannyMotion::Destroy
_TEXT	ENDS
; Function compile flags: /Odspy
; File D:\Metin2 Server Files\mainline\SRC_2014\Metin2Client\eterGrnLib\Motion.cpp
;	COMDAT ?IsEmpty@CGrannyMotion@@QAE_NXZ
_TEXT	SEGMENT
_this$ = -8						; size = 4
tv66 = -1						; size = 1
?IsEmpty@CGrannyMotion@@QAE_NXZ PROC			; CGrannyMotion::IsEmpty, COMDAT
; _this$ = ecx

; 15   : {

  00000	55		 push	 ebp
  00001	8b ec		 mov	 ebp, esp
  00003	51		 push	 ecx
  00004	51		 push	 ecx
  00005	89 4d f8	 mov	 DWORD PTR _this$[ebp], ecx

; 16   : 	return m_pgrnAni ? false : true;

  00008	8b 45 f8	 mov	 eax, DWORD PTR _this$[ebp]
  0000b	83 78 04 00	 cmp	 DWORD PTR [eax+4], 0
  0000f	74 06		 je	 SHORT $LN3@IsEmpty
  00011	c6 45 ff 00	 mov	 BYTE PTR tv66[ebp], 0
  00015	eb 04		 jmp	 SHORT $LN4@IsEmpty
$LN3@IsEmpty:
  00017	c6 45 ff 01	 mov	 BYTE PTR tv66[ebp], 1
$LN4@IsEmpty:
  0001b	8a 45 ff	 mov	 al, BYTE PTR tv66[ebp]

; 17   : }

  0001e	c9		 leave
  0001f	c3		 ret	 0
?IsEmpty@CGrannyMotion@@QAE_NXZ ENDP			; CGrannyMotion::IsEmpty
_TEXT	ENDS
; Function compile flags: /Odspy
; File D:\Metin2 Server Files\mainline\SRC_2014\Metin2Client\eterGrnLib\Motion.cpp
;	COMDAT ??1CGrannyMotion@@UAE@XZ
_TEXT	SEGMENT
_this$ = -16						; size = 4
__$EHRec$ = -12						; size = 12
??1CGrannyMotion@@UAE@XZ PROC				; CGrannyMotion::~CGrannyMotion, COMDAT
; _this$ = ecx

; 10   : {

  00000	55		 push	 ebp
  00001	8b ec		 mov	 ebp, esp
  00003	6a ff		 push	 -1
  00005	68 00 00 00 00	 push	 __ehhandler$??1CGrannyMotion@@UAE@XZ
  0000a	64 a1 00 00 00
	00		 mov	 eax, DWORD PTR fs:0
  00010	50		 push	 eax
  00011	51		 push	 ecx
  00012	a1 00 00 00 00	 mov	 eax, DWORD PTR ___security_cookie
  00017	33 c5		 xor	 eax, ebp
  00019	50		 push	 eax
  0001a	8d 45 f4	 lea	 eax, DWORD PTR __$EHRec$[ebp]
  0001d	64 a3 00 00 00
	00		 mov	 DWORD PTR fs:0, eax
  00023	89 4d f0	 mov	 DWORD PTR _this$[ebp], ecx
  00026	8b 45 f0	 mov	 eax, DWORD PTR _this$[ebp]
  00029	c7 00 00 00 00
	00		 mov	 DWORD PTR [eax], OFFSET ??_7CGrannyMotion@@6B@

; 11   : 	Destroy();

  0002f	8b 4d f0	 mov	 ecx, DWORD PTR _this$[ebp]
  00032	e8 00 00 00 00	 call	 ?Destroy@CGrannyMotion@@QAEXXZ ; CGrannyMotion::Destroy

; 12   : }

  00037	8b 4d f4	 mov	 ecx, DWORD PTR __$EHRec$[ebp]
  0003a	64 89 0d 00 00
	00 00		 mov	 DWORD PTR fs:0, ecx
  00041	59		 pop	 ecx
  00042	c9		 leave
  00043	c3		 ret	 0
  00044	cc		 int	 3
  00045	cc		 int	 3
  00046	cc		 int	 3
  00047	cc		 int	 3
  00048	cc		 int	 3
_TEXT	ENDS
;	COMDAT text$x
text$x	SEGMENT
__ehhandler$??1CGrannyMotion@@UAE@XZ:
  00000	90		 npad	 1
  00001	90		 npad	 1
  00002	8b 54 24 08	 mov	 edx, DWORD PTR [esp+8]
  00006	8d 42 0c	 lea	 eax, DWORD PTR [edx+12]
  00009	8b 4a f8	 mov	 ecx, DWORD PTR [edx-8]
  0000c	33 c8		 xor	 ecx, eax
  0000e	e8 00 00 00 00	 call	 @__security_check_cookie@4
  00013	b8 00 00 00 00	 mov	 eax, OFFSET __ehfuncinfo$??1CGrannyMotion@@UAE@XZ
  00018	e9 00 00 00 00	 jmp	 ___CxxFrameHandler3
text$x	ENDS
??1CGrannyMotion@@UAE@XZ ENDP				; CGrannyMotion::~CGrannyMotion
; Function compile flags: /Odspy
; File D:\Metin2 Server Files\mainline\SRC_2014\Metin2Client\eterGrnLib\Motion.cpp
;	COMDAT ??0CGrannyMotion@@QAE@XZ
_TEXT	SEGMENT
_this$ = -4						; size = 4
??0CGrannyMotion@@QAE@XZ PROC				; CGrannyMotion::CGrannyMotion, COMDAT
; _this$ = ecx

; 5    : {

  00000	55		 push	 ebp
  00001	8b ec		 mov	 ebp, esp
  00003	51		 push	 ecx
  00004	89 4d fc	 mov	 DWORD PTR _this$[ebp], ecx
  00007	8b 45 fc	 mov	 eax, DWORD PTR _this$[ebp]
  0000a	c7 00 00 00 00
	00		 mov	 DWORD PTR [eax], OFFSET ??_7CGrannyMotion@@6B@

; 6    : 	Initialize();

  00010	8b 4d fc	 mov	 ecx, DWORD PTR _this$[ebp]
  00013	e8 00 00 00 00	 call	 ?Initialize@CGrannyMotion@@IAEXXZ ; CGrannyMotion::Initialize

; 7    : }

  00018	8b 45 fc	 mov	 eax, DWORD PTR _this$[ebp]
  0001b	c9		 leave
  0001c	c3		 ret	 0
??0CGrannyMotion@@QAE@XZ ENDP				; CGrannyMotion::CGrannyMotion
_TEXT	ENDS
END
