; Listing generated by Microsoft (R) Optimizing Compiler Version 19.28.29335.0 

	TITLE	D:\Metin2 Server Files\mainline\SRC_2014\Metin2Client\eterGrnLib\ThingInstance.cpp
	.686P
	.XMM
	include listing.inc
	.model	flat

INCLUDELIB LIBCMT
INCLUDELIB OLDNAMES

CONST	SEGMENT
?piecewise_construct@std@@3Upiecewise_construct_t@1@B	ORG $+1 ; std::piecewise_construct
CONST	ENDS
PUBLIC	??0exception@std@@QAE@ABV01@@Z			; std::exception::exception
PUBLIC	?what@exception@std@@UBEPBDXZ			; std::exception::what
PUBLIC	??_Gexception@std@@UAEPAXI@Z			; std::exception::`scalar deleting destructor'
PUBLIC	??0bad_alloc@std@@QAE@ABV01@@Z			; std::bad_alloc::bad_alloc
PUBLIC	??_Gbad_alloc@std@@UAEPAXI@Z			; std::bad_alloc::`scalar deleting destructor'
PUBLIC	??0bad_array_new_length@std@@QAE@XZ		; std::bad_array_new_length::bad_array_new_length
PUBLIC	??1bad_array_new_length@std@@UAE@XZ		; std::bad_array_new_length::~bad_array_new_length
PUBLIC	??0bad_array_new_length@std@@QAE@ABV01@@Z	; std::bad_array_new_length::bad_array_new_length
PUBLIC	??_Gbad_array_new_length@std@@UAEPAXI@Z		; std::bad_array_new_length::`scalar deleting destructor'
PUBLIC	?_Throw_bad_array_new_length@std@@YAXXZ		; std::_Throw_bad_array_new_length
PUBLIC	?_Adjust_manually_vector_aligned@std@@YAXAAPAXAAI@Z ; std::_Adjust_manually_vector_aligned
PUBLIC	?_Myptr@?$_String_val@U?$_Simple_types@D@std@@@std@@QBEPBDXZ ; std::_String_val<std::_Simple_types<char> >::_Myptr
PUBLIC	?c_str@?$basic_string@DU?$char_traits@D@std@@V?$allocator@D@2@@std@@QBEPBDXZ ; std::basic_string<char,std::char_traits<char>,std::allocator<char> >::c_str
PUBLIC	?_Throw_tree_length_error@std@@YAXXZ		; std::_Throw_tree_length_error
PUBLIC	??RFSetMotionPointer@CGrannyLODController@@QAEXPAV1@@Z ; CGrannyLODController::FSetMotionPointer::operator()
PUBLIC	??RFChangeMotionPointer@CGrannyLODController@@QAEXPAV1@@Z ; CGrannyLODController::FChangeMotionPointer::operator()
PUBLIC	?HaveBlendThing@CGrannyLODController@@QAE_NXZ	; CGrannyLODController::HaveBlendThing
PUBLIC	?deallocate@?$allocator@PAV?$CRef@VCGraphicThing@@@@@std@@QAEXQAPAV?$CRef@VCGraphicThing@@@@I@Z ; std::allocator<CRef<CGraphicThing> *>::deallocate
PUBLIC	??0?$vector@PAV?$CRef@VCGraphicThing@@@@V?$allocator@PAV?$CRef@VCGraphicThing@@@@@std@@@std@@QAE@$$QAV01@@Z ; std::vector<CRef<CGraphicThing> *,std::allocator<CRef<CGraphicThing> *> >::vector<CRef<CGraphicThing> *,std::allocator<CRef<CGraphicThing> *> >
PUBLIC	?clear@?$vector@PAV?$CRef@VCGraphicThing@@@@V?$allocator@PAV?$CRef@VCGraphicThing@@@@@std@@@std@@QAEXXZ ; std::vector<CRef<CGraphicThing> *,std::allocator<CRef<CGraphicThing> *> >::clear
PUBLIC	?_Destroy@?$vector@PAV?$CRef@VCGraphicThing@@@@V?$allocator@PAV?$CRef@VCGraphicThing@@@@@std@@@std@@AAEXPAPAV?$CRef@VCGraphicThing@@@@0@Z ; std::vector<CRef<CGraphicThing> *,std::allocator<CRef<CGraphicThing> *> >::_Destroy
PUBLIC	?_Calculate_growth@?$vector@PAV?$CRef@VCGraphicThing@@@@V?$allocator@PAV?$CRef@VCGraphicThing@@@@@std@@@std@@ABEII@Z ; std::vector<CRef<CGraphicThing> *,std::allocator<CRef<CGraphicThing> *> >::_Calculate_growth
PUBLIC	?_Change_array@?$vector@PAV?$CRef@VCGraphicThing@@@@V?$allocator@PAV?$CRef@VCGraphicThing@@@@@std@@@std@@AAEXQAPAV?$CRef@VCGraphicThing@@@@II@Z ; std::vector<CRef<CGraphicThing> *,std::allocator<CRef<CGraphicThing> *> >::_Change_array
PUBLIC	?_Tidy@?$vector@PAV?$CRef@VCGraphicThing@@@@V?$allocator@PAV?$CRef@VCGraphicThing@@@@@std@@@std@@AAEXXZ ; std::vector<CRef<CGraphicThing> *,std::allocator<CRef<CGraphicThing> *> >::_Tidy
PUBLIC	?_Xlength@?$vector@PAV?$CRef@VCGraphicThing@@@@V?$allocator@PAV?$CRef@VCGraphicThing@@@@@std@@@std@@CAXXZ ; std::vector<CRef<CGraphicThing> *,std::allocator<CRef<CGraphicThing> *> >::_Xlength
PUBLIC	?GetType@CGraphicThingInstance@@UBEHXZ		; CGraphicThingInstance::GetType
PUBLIC	??0CGraphicThingInstance@@QAE@XZ		; CGraphicThingInstance::CGraphicThingInstance
PUBLIC	??1CGraphicThingInstance@@UAE@XZ		; CGraphicThingInstance::~CGraphicThingInstance
PUBLIC	?DeformNoSkin@CGraphicThingInstance@@QAEXXZ	; CGraphicThingInstance::DeformNoSkin
PUBLIC	?UpdateLODLevel@CGraphicThingInstance@@QAEXXZ	; CGraphicThingInstance::UpdateLODLevel
PUBLIC	?UpdateTime@CGraphicThingInstance@@QAEXXZ	; CGraphicThingInstance::UpdateTime
PUBLIC	?DeformAll@CGraphicThingInstance@@QAEXXZ	; CGraphicThingInstance::DeformAll
PUBLIC	?LessRenderOrder@CGraphicThingInstance@@QAE_NPAV1@@Z ; CGraphicThingInstance::LessRenderOrder
PUBLIC	?Picking@CGraphicThingInstance@@QAE_NABUD3DXVECTOR3@@0AAM1@Z ; CGraphicThingInstance::Picking
PUBLIC	?OnInitialize@CGraphicThingInstance@@UAEXXZ	; CGraphicThingInstance::OnInitialize
PUBLIC	?CreateDeviceObjects@CGraphicThingInstance@@QAE_NXZ ; CGraphicThingInstance::CreateDeviceObjects
PUBLIC	?DestroyDeviceObjects@CGraphicThingInstance@@QAEXXZ ; CGraphicThingInstance::DestroyDeviceObjects
PUBLIC	?ReserveModelInstance@CGraphicThingInstance@@QAEXH@Z ; CGraphicThingInstance::ReserveModelInstance
PUBLIC	?ReserveModelThing@CGraphicThingInstance@@QAEXH@Z ; CGraphicThingInstance::ReserveModelThing
PUBLIC	?CheckModelInstanceIndex@CGraphicThingInstance@@QAE_NH@Z ; CGraphicThingInstance::CheckModelInstanceIndex
PUBLIC	?CheckModelThingIndex@CGraphicThingInstance@@QAE_NH@Z ; CGraphicThingInstance::CheckModelThingIndex
PUBLIC	?CheckMotionThingIndex@CGraphicThingInstance@@QAE_NK@Z ; CGraphicThingInstance::CheckMotionThingIndex
PUBLIC	?GetMotionThingPointer@CGraphicThingInstance@@QAE_NKPAPAVCGraphicThing@@@Z ; CGraphicThingInstance::GetMotionThingPointer
PUBLIC	?IsMotionThing@CGraphicThingInstance@@QAE_NXZ	; CGraphicThingInstance::IsMotionThing
PUBLIC	?RegisterModelThing@CGraphicThingInstance@@QAEXHPAVCGraphicThing@@@Z ; CGraphicThingInstance::RegisterModelThing
PUBLIC	?RegisterLODThing@CGraphicThingInstance@@QAEXHPAVCGraphicThing@@@Z ; CGraphicThingInstance::RegisterLODThing
PUBLIC	?RegisterMotionThing@CGraphicThingInstance@@QAEXKPAVCGraphicThing@@@Z ; CGraphicThingInstance::RegisterMotionThing
PUBLIC	?SetModelInstance@CGraphicThingInstance@@QAE_NHHHH@Z ; CGraphicThingInstance::SetModelInstance
PUBLIC	?SetEndStopMotion@CGraphicThingInstance@@QAEXXZ	; CGraphicThingInstance::SetEndStopMotion
PUBLIC	?SetMotionAtEnd@CGraphicThingInstance@@QAEXXZ	; CGraphicThingInstance::SetMotionAtEnd
PUBLIC	?AttachModelInstance@CGraphicThingInstance@@QAEXHPBDH@Z ; CGraphicThingInstance::AttachModelInstance
PUBLIC	?AttachModelInstance@CGraphicThingInstance@@QAEXHPBDAAV1@H@Z ; CGraphicThingInstance::AttachModelInstance
PUBLIC	?DetachModelInstance@CGraphicThingInstance@@QAEXHAAV1@H@Z ; CGraphicThingInstance::DetachModelInstance
PUBLIC	?FindBoneIndex@CGraphicThingInstance@@QAE_NHPBDPAH@Z ; CGraphicThingInstance::FindBoneIndex
PUBLIC	?GetBonePosition@CGraphicThingInstance@@QAE_NHHPAM00@Z ; CGraphicThingInstance::GetBonePosition
PUBLIC	?ResetLocalTime@CGraphicThingInstance@@QAEXXZ	; CGraphicThingInstance::ResetLocalTime
PUBLIC	?InsertDelay@CGraphicThingInstance@@QAEXM@Z	; CGraphicThingInstance::InsertDelay
PUBLIC	?SetMaterialImagePointer@CGraphicThingInstance@@QAEXIPBDPAVCGraphicImage@@@Z ; CGraphicThingInstance::SetMaterialImagePointer
PUBLIC	?SetMaterialData@CGraphicThingInstance@@QAEXIPBDUSMaterialData@@@Z ; CGraphicThingInstance::SetMaterialData
PUBLIC	?SetSpecularInfo@CGraphicThingInstance@@QAEXIPBDHM@Z ; CGraphicThingInstance::SetSpecularInfo
PUBLIC	?__SetLocalTime@CGraphicThingInstance@@QAEXM@Z	; CGraphicThingInstance::__SetLocalTime
PUBLIC	?GetLastLocalTime@CGraphicThingInstance@@QAEMXZ	; CGraphicThingInstance::GetLastLocalTime
PUBLIC	?GetLocalTime@CGraphicThingInstance@@QAEMXZ	; CGraphicThingInstance::GetLocalTime
PUBLIC	?GetSecondElapsed@CGraphicThingInstance@@QAEMXZ	; CGraphicThingInstance::GetSecondElapsed
PUBLIC	?GetAverageSecondElapsed@CGraphicThingInstance@@QAEMXZ ; CGraphicThingInstance::GetAverageSecondElapsed
PUBLIC	?GetLODLevel@CGraphicThingInstance@@QAEEK@Z	; CGraphicThingInstance::GetLODLevel
PUBLIC	?GetHeight@CGraphicThingInstance@@QAEMXZ	; CGraphicThingInstance::GetHeight
PUBLIC	?RenderWithOneTexture@CGraphicThingInstance@@QAEXXZ ; CGraphicThingInstance::RenderWithOneTexture
PUBLIC	?RenderWithTwoTexture@CGraphicThingInstance@@QAEXXZ ; CGraphicThingInstance::RenderWithTwoTexture
PUBLIC	?BlendRenderWithOneTexture@CGraphicThingInstance@@QAEXXZ ; CGraphicThingInstance::BlendRenderWithOneTexture
PUBLIC	?BlendRenderWithTwoTexture@CGraphicThingInstance@@QAEXXZ ; CGraphicThingInstance::BlendRenderWithTwoTexture
PUBLIC	?GetLODControllerCount@CGraphicThingInstance@@QBEKXZ ; CGraphicThingInstance::GetLODControllerCount
PUBLIC	?GetLODControllerPointer@CGraphicThingInstance@@QBEPAVCGrannyLODController@@K@Z ; CGraphicThingInstance::GetLODControllerPointer
PUBLIC	?GetLODControllerPointer@CGraphicThingInstance@@QAEPAVCGrannyLODController@@K@Z ; CGraphicThingInstance::GetLODControllerPointer
PUBLIC	?ReloadTexture@CGraphicThingInstance@@QAEXXZ	; CGraphicThingInstance::ReloadTexture
PUBLIC	?GetBaseThingPtr@CGraphicThingInstance@@QAEPAVCGraphicThing@@XZ ; CGraphicThingInstance::GetBaseThingPtr
PUBLIC	?SetMotion@CGraphicThingInstance@@QAE_NKMHM@Z	; CGraphicThingInstance::SetMotion
PUBLIC	?ChangeMotion@CGraphicThingInstance@@QAE_NKHM@Z	; CGraphicThingInstance::ChangeMotion
PUBLIC	?Intersect@CGraphicThingInstance@@QAE_NPAM00@Z	; CGraphicThingInstance::Intersect
PUBLIC	?GetBoundBox@CGraphicThingInstance@@QAEXPAUD3DXVECTOR3@@0@Z ; CGraphicThingInstance::GetBoundBox
PUBLIC	?GetBoundBox@CGraphicThingInstance@@QAEHKPAUD3DXVECTOR3@@0@Z ; CGraphicThingInstance::GetBoundBox
PUBLIC	?GetBoneMatrix@CGraphicThingInstance@@QAEHKKPAPAUD3DXMATRIX@@@Z ; CGraphicThingInstance::GetBoneMatrix
PUBLIC	?GetCompositeBoneMatrix@CGraphicThingInstance@@QAEHKKPAPAUD3DXMATRIX@@@Z ; CGraphicThingInstance::GetCompositeBoneMatrix
PUBLIC	?UpdateTransform@CGraphicThingInstance@@QAEXPAUD3DXMATRIX@@MH@Z ; CGraphicThingInstance::UpdateTransform
PUBLIC	?BuildBoundingSphere@CGraphicThingInstance@@QAEXXZ ; CGraphicThingInstance::BuildBoundingSphere
PUBLIC	?BuildBoundingAABB@CGraphicThingInstance@@QAEXXZ ; CGraphicThingInstance::BuildBoundingAABB
PUBLIC	?CalculateBBox@CGraphicThingInstance@@UAEXXZ	; CGraphicThingInstance::CalculateBBox
PUBLIC	?GetBoundingSphere@CGraphicThingInstance@@UAE_NAAUD3DXVECTOR3@@AAM@Z ; CGraphicThingInstance::GetBoundingSphere
PUBLIC	?GetBoundingAABB@CGraphicThingInstance@@UAE_NAAUD3DXVECTOR3@@0@Z ; CGraphicThingInstance::GetBoundingAABB
PUBLIC	?OnClear@CGraphicThingInstance@@MAEXXZ		; CGraphicThingInstance::OnClear
PUBLIC	?OnDeform@CGraphicThingInstance@@MAEXXZ		; CGraphicThingInstance::OnDeform
PUBLIC	?OnUpdate@CGraphicThingInstance@@MAEXXZ		; CGraphicThingInstance::OnUpdate
PUBLIC	?OnRender@CGraphicThingInstance@@MAEXXZ		; CGraphicThingInstance::OnRender
PUBLIC	?OnBlendRender@CGraphicThingInstance@@MAEXXZ	; CGraphicThingInstance::OnBlendRender
PUBLIC	?OnRenderToShadowMap@CGraphicThingInstance@@MAEXXZ ; CGraphicThingInstance::OnRenderToShadowMap
PUBLIC	?OnRenderShadow@CGraphicThingInstance@@MAEXXZ	; CGraphicThingInstance::OnRenderShadow
PUBLIC	?OnRenderPCBlocker@CGraphicThingInstance@@MAEXXZ ; CGraphicThingInstance::OnRenderPCBlocker
PUBLIC	?deallocate@?$allocator@PAVCGrannyLODController@@@std@@QAEXQAPAVCGrannyLODController@@I@Z ; std::allocator<CGrannyLODController *>::deallocate
PUBLIC	??1?$vector@PAVCGrannyLODController@@V?$allocator@PAVCGrannyLODController@@@std@@@std@@QAE@XZ ; std::vector<CGrannyLODController *,std::allocator<CGrannyLODController *> >::~vector<CGrannyLODController *,std::allocator<CGrannyLODController *> >
PUBLIC	?clear@?$vector@PAVCGrannyLODController@@V?$allocator@PAVCGrannyLODController@@@std@@@std@@QAEXXZ ; std::vector<CGrannyLODController *,std::allocator<CGrannyLODController *> >::clear
PUBLIC	?_Destroy@?$vector@PAVCGrannyLODController@@V?$allocator@PAVCGrannyLODController@@@std@@@std@@AAEXPAPAVCGrannyLODController@@0@Z ; std::vector<CGrannyLODController *,std::allocator<CGrannyLODController *> >::_Destroy
PUBLIC	?_Calculate_growth@?$vector@PAVCGrannyLODController@@V?$allocator@PAVCGrannyLODController@@@std@@@std@@ABEII@Z ; std::vector<CGrannyLODController *,std::allocator<CGrannyLODController *> >::_Calculate_growth
PUBLIC	?_Change_array@?$vector@PAVCGrannyLODController@@V?$allocator@PAVCGrannyLODController@@@std@@@std@@AAEXQAPAVCGrannyLODController@@II@Z ; std::vector<CGrannyLODController *,std::allocator<CGrannyLODController *> >::_Change_array
PUBLIC	?_Tidy@?$vector@PAVCGrannyLODController@@V?$allocator@PAVCGrannyLODController@@@std@@@std@@AAEXXZ ; std::vector<CGrannyLODController *,std::allocator<CGrannyLODController *> >::_Tidy
PUBLIC	?_Xlength@?$vector@PAVCGrannyLODController@@V?$allocator@PAVCGrannyLODController@@@std@@@std@@CAXXZ ; std::vector<CGrannyLODController *,std::allocator<CGrannyLODController *> >::_Xlength
PUBLIC	?deallocate@?$allocator@USModelThingSet@CGraphicThingInstance@@@std@@QAEXQAUSModelThingSet@CGraphicThingInstance@@I@Z ; std::allocator<CGraphicThingInstance::SModelThingSet>::deallocate
PUBLIC	??1?$vector@USModelThingSet@CGraphicThingInstance@@V?$allocator@USModelThingSet@CGraphicThingInstance@@@std@@@std@@QAE@XZ ; std::vector<CGraphicThingInstance::SModelThingSet,std::allocator<CGraphicThingInstance::SModelThingSet> >::~vector<CGraphicThingInstance::SModelThingSet,std::allocator<CGraphicThingInstance::SModelThingSet> >
PUBLIC	?_Destroy@?$vector@USModelThingSet@CGraphicThingInstance@@V?$allocator@USModelThingSet@CGraphicThingInstance@@@std@@@std@@AAEXPAUSModelThingSet@CGraphicThingInstance@@0@Z ; std::vector<CGraphicThingInstance::SModelThingSet,std::allocator<CGraphicThingInstance::SModelThingSet> >::_Destroy
PUBLIC	?_Calculate_growth@?$vector@USModelThingSet@CGraphicThingInstance@@V?$allocator@USModelThingSet@CGraphicThingInstance@@@std@@@std@@ABEII@Z ; std::vector<CGraphicThingInstance::SModelThingSet,std::allocator<CGraphicThingInstance::SModelThingSet> >::_Calculate_growth
PUBLIC	?_Change_array@?$vector@USModelThingSet@CGraphicThingInstance@@V?$allocator@USModelThingSet@CGraphicThingInstance@@@std@@@std@@AAEXQAUSModelThingSet@CGraphicThingInstance@@II@Z ; std::vector<CGraphicThingInstance::SModelThingSet,std::allocator<CGraphicThingInstance::SModelThingSet> >::_Change_array
PUBLIC	?_Tidy@?$vector@USModelThingSet@CGraphicThingInstance@@V?$allocator@USModelThingSet@CGraphicThingInstance@@@std@@@std@@AAEXXZ ; std::vector<CGraphicThingInstance::SModelThingSet,std::allocator<CGraphicThingInstance::SModelThingSet> >::_Tidy
PUBLIC	?_Xlength@?$vector@USModelThingSet@CGraphicThingInstance@@V?$allocator@USModelThingSet@CGraphicThingInstance@@@std@@@std@@CAXXZ ; std::vector<CGraphicThingInstance::SModelThingSet,std::allocator<CGraphicThingInstance::SModelThingSet> >::_Xlength
PUBLIC	?_Getal@?$vector@USModelThingSet@CGraphicThingInstance@@V?$allocator@USModelThingSet@CGraphicThingInstance@@@std@@@std@@AAEAAV?$allocator@USModelThingSet@CGraphicThingInstance@@@2@XZ ; std::vector<CGraphicThingInstance::SModelThingSet,std::allocator<CGraphicThingInstance::SModelThingSet> >::_Getal
PUBLIC	??0?$_Tree@V?$_Tmap_traits@KPAV?$CRef@VCGraphicThing@@@@U?$less@K@std@@V?$allocator@U?$pair@$$CBKPAV?$CRef@VCGraphicThing@@@@@std@@@3@$0A@@std@@@std@@QAE@ABU?$less@K@1@@Z ; std::_Tree<std::_Tmap_traits<unsigned long,CRef<CGraphicThing> *,std::less<unsigned long>,std::allocator<std::pair<unsigned long const ,CRef<CGraphicThing> *> >,0> >::_Tree<std::_Tmap_traits<unsigned long,CRef<CGraphicThing> *,std::less<unsigned long>,std::allocator<std::pair<unsigned long const ,CRef<CGraphicThing> *> >,0> >
PUBLIC	??1?$_Tree@V?$_Tmap_traits@KPAV?$CRef@VCGraphicThing@@@@U?$less@K@std@@V?$allocator@U?$pair@$$CBKPAV?$CRef@VCGraphicThing@@@@@std@@@3@$0A@@std@@@std@@QAE@XZ ; std::_Tree<std::_Tmap_traits<unsigned long,CRef<CGraphicThing> *,std::less<unsigned long>,std::allocator<std::pair<unsigned long const ,CRef<CGraphicThing> *> >,0> >::~_Tree<std::_Tmap_traits<unsigned long,CRef<CGraphicThing> *,std::less<unsigned long>,std::allocator<std::pair<unsigned long const ,CRef<CGraphicThing> *> >,0> >
PUBLIC	?begin@?$_Tree@V?$_Tmap_traits@KPAV?$CRef@VCGraphicThing@@@@U?$less@K@std@@V?$allocator@U?$pair@$$CBKPAV?$CRef@VCGraphicThing@@@@@std@@@3@$0A@@std@@@std@@QAE?AV?$_Tree_iterator@V?$_Tree_val@U?$_Tree_simple_types@U?$pair@$$CBKPAV?$CRef@VCGraphicThing@@@@@std@@@std@@@std@@@2@XZ ; std::_Tree<std::_Tmap_traits<unsigned long,CRef<CGraphicThing> *,std::less<unsigned long>,std::allocator<std::pair<unsigned long const ,CRef<CGraphicThing> *> >,0> >::begin
PUBLIC	?max_size@?$_Tree@V?$_Tmap_traits@KPAV?$CRef@VCGraphicThing@@@@U?$less@K@std@@V?$allocator@U?$pair@$$CBKPAV?$CRef@VCGraphicThing@@@@@std@@@3@$0A@@std@@@std@@QBEIXZ ; std::_Tree<std::_Tmap_traits<unsigned long,CRef<CGraphicThing> *,std::less<unsigned long>,std::allocator<std::pair<unsigned long const ,CRef<CGraphicThing> *> >,0> >::max_size
PUBLIC	?empty@?$_Tree@V?$_Tmap_traits@KPAV?$CRef@VCGraphicThing@@@@U?$less@K@std@@V?$allocator@U?$pair@$$CBKPAV?$CRef@VCGraphicThing@@@@@std@@@3@$0A@@std@@@std@@QBE_NXZ ; std::_Tree<std::_Tmap_traits<unsigned long,CRef<CGraphicThing> *,std::less<unsigned long>,std::allocator<std::pair<unsigned long const ,CRef<CGraphicThing> *> >,0> >::empty
PUBLIC	?clear@?$_Tree@V?$_Tmap_traits@KPAV?$CRef@VCGraphicThing@@@@U?$less@K@std@@V?$allocator@U?$pair@$$CBKPAV?$CRef@VCGraphicThing@@@@@std@@@3@$0A@@std@@@std@@QAEXXZ ; std::_Tree<std::_Tmap_traits<unsigned long,CRef<CGraphicThing> *,std::less<unsigned long>,std::allocator<std::pair<unsigned long const ,CRef<CGraphicThing> *> >,0> >::clear
PUBLIC	?find@?$_Tree@V?$_Tmap_traits@KPAV?$CRef@VCGraphicThing@@@@U?$less@K@std@@V?$allocator@U?$pair@$$CBKPAV?$CRef@VCGraphicThing@@@@@std@@@3@$0A@@std@@@std@@QAE?AV?$_Tree_iterator@V?$_Tree_val@U?$_Tree_simple_types@U?$pair@$$CBKPAV?$CRef@VCGraphicThing@@@@@std@@@std@@@std@@@2@ABK@Z ; std::_Tree<std::_Tmap_traits<unsigned long,CRef<CGraphicThing> *,std::less<unsigned long>,std::allocator<std::pair<unsigned long const ,CRef<CGraphicThing> *> >,0> >::find
PUBLIC	?_Check_grow_by_1@?$_Tree@V?$_Tmap_traits@KPAV?$CRef@VCGraphicThing@@@@U?$less@K@std@@V?$allocator@U?$pair@$$CBKPAV?$CRef@VCGraphicThing@@@@@std@@@3@$0A@@std@@@std@@IAEXXZ ; std::_Tree<std::_Tmap_traits<unsigned long,CRef<CGraphicThing> *,std::less<unsigned long>,std::allocator<std::pair<unsigned long const ,CRef<CGraphicThing> *> >,0> >::_Check_grow_by_1
PUBLIC	?_Alloc_sentinel_and_proxy@?$_Tree@V?$_Tmap_traits@KPAV?$CRef@VCGraphicThing@@@@U?$less@K@std@@V?$allocator@U?$pair@$$CBKPAV?$CRef@VCGraphicThing@@@@@std@@@3@$0A@@std@@@std@@IAEXXZ ; std::_Tree<std::_Tmap_traits<unsigned long,CRef<CGraphicThing> *,std::less<unsigned long>,std::allocator<std::pair<unsigned long const ,CRef<CGraphicThing> *> >,0> >::_Alloc_sentinel_and_proxy
PUBLIC	?_Lrotate@?$_Tree_val@U?$_Tree_simple_types@U?$pair@$$CBKPAV?$CRef@VCGraphicThing@@@@@std@@@std@@@std@@QAEXPAU?$_Tree_node@U?$pair@$$CBKPAV?$CRef@VCGraphicThing@@@@@std@@PAX@2@@Z ; std::_Tree_val<std::_Tree_simple_types<std::pair<unsigned long const ,CRef<CGraphicThing> *> > >::_Lrotate
PUBLIC	?_Rrotate@?$_Tree_val@U?$_Tree_simple_types@U?$pair@$$CBKPAV?$CRef@VCGraphicThing@@@@@std@@@std@@@std@@QAEXPAU?$_Tree_node@U?$pair@$$CBKPAV?$CRef@VCGraphicThing@@@@@std@@PAX@2@@Z ; std::_Tree_val<std::_Tree_simple_types<std::pair<unsigned long const ,CRef<CGraphicThing> *> > >::_Rrotate
PUBLIC	?_Insert_node@?$_Tree_val@U?$_Tree_simple_types@U?$pair@$$CBKPAV?$CRef@VCGraphicThing@@@@@std@@@std@@@std@@QAEPAU?$_Tree_node@U?$pair@$$CBKPAV?$CRef@VCGraphicThing@@@@@std@@PAX@2@U?$_Tree_id@PAU?$_Tree_node@U?$pair@$$CBKPAV?$CRef@VCGraphicThing@@@@@std@@PAX@std@@@2@QAU32@@Z ; std::_Tree_val<std::_Tree_simple_types<std::pair<unsigned long const ,CRef<CGraphicThing> *> > >::_Insert_node
PUBLIC	??1?$map@KPAV?$CRef@VCGraphicThing@@@@U?$less@K@std@@V?$allocator@U?$pair@$$CBKPAV?$CRef@VCGraphicThing@@@@@std@@@3@@std@@QAE@XZ ; std::map<unsigned long,CRef<CGraphicThing> *,std::less<unsigned long>,std::allocator<std::pair<unsigned long const ,CRef<CGraphicThing> *> > >::~map<unsigned long,CRef<CGraphicThing> *,std::less<unsigned long>,std::allocator<std::pair<unsigned long const ,CRef<CGraphicThing> *> > >
PUBLIC	?OnUpdateCollisionData@CGraphicThingInstance@@MAEXPBV?$vector@VCStaticCollisionData@@V?$allocator@VCStaticCollisionData@@@std@@@std@@@Z ; CGraphicThingInstance::OnUpdateCollisionData
PUBLIC	?OnUpdateHeighInstance@CGraphicThingInstance@@MAEXPAVCAttributeInstance@@@Z ; CGraphicThingInstance::OnUpdateHeighInstance
PUBLIC	?OnGetObjectHeight@CGraphicThingInstance@@MAE_NMMPAM@Z ; CGraphicThingInstance::OnGetObjectHeight
PUBLIC	?CreateSystem@CGraphicThingInstance@@SAXI@Z	; CGraphicThingInstance::CreateSystem
PUBLIC	?DestroySystem@CGraphicThingInstance@@SAXXZ	; CGraphicThingInstance::DestroySystem
PUBLIC	?New@CGraphicThingInstance@@SAPAV1@XZ		; CGraphicThingInstance::New
PUBLIC	?Delete@CGraphicThingInstance@@SAXPAV1@@Z	; CGraphicThingInstance::Delete
PUBLIC	?HaveBlendThing@CGraphicThingInstance@@QAE_NXZ	; CGraphicThingInstance::HaveBlendThing
PUBLIC	??_GCGraphicThingInstance@@UAEPAXI@Z		; CGraphicThingInstance::`scalar deleting destructor'
PUBLIC	??0?$CRef@VCGraphicThing@@@@QAE@ABV0@@Z		; CRef<CGraphicThing>::CRef<CGraphicThing>
PUBLIC	?SetPointer@?$CRef@VCGraphicThing@@@@QAEXPAVCReferenceObject@@@Z ; CRef<CGraphicThing>::SetPointer
PUBLIC	??_G?$CRef@VCGraphicThing@@@@QAEPAXI@Z		; CRef<CGraphicThing>::`scalar deleting destructor'
PUBLIC	??$stl_wipe@V?$vector@PAV?$CRef@VCGraphicThing@@@@V?$allocator@PAV?$CRef@VCGraphicThing@@@@@std@@@std@@@@YAXAAV?$vector@PAV?$CRef@VCGraphicThing@@@@V?$allocator@PAV?$CRef@VCGraphicThing@@@@@std@@@std@@@Z ; stl_wipe<std::vector<CRef<CGraphicThing> *,std::allocator<CRef<CGraphicThing> *> > >
PUBLIC	??0?$CDynamicPool@VCGraphicThingInstance@@@@QAE@XZ ; CDynamicPool<CGraphicThingInstance>::CDynamicPool<CGraphicThingInstance>
PUBLIC	??1?$CDynamicPool@VCGraphicThingInstance@@@@UAE@XZ ; CDynamicPool<CGraphicThingInstance>::~CDynamicPool<CGraphicThingInstance>
PUBLIC	?Destroy@?$CDynamicPool@VCGraphicThingInstance@@@@QAEXXZ ; CDynamicPool<CGraphicThingInstance>::Destroy
PUBLIC	?Alloc@?$CDynamicPool@VCGraphicThingInstance@@@@QAEPAVCGraphicThingInstance@@XZ ; CDynamicPool<CGraphicThingInstance>::Alloc
PUBLIC	?Delete@?$CDynamicPool@VCGraphicThingInstance@@@@KAXPAVCGraphicThingInstance@@@Z ; CDynamicPool<CGraphicThingInstance>::Delete
PUBLIC	?deallocate@?$allocator@PAVCGraphicThingInstance@@@std@@QAEXQAPAVCGraphicThingInstance@@I@Z ; std::allocator<CGraphicThingInstance *>::deallocate
PUBLIC	?_Reallocate_exactly@?$vector@PAVCGraphicThingInstance@@V?$allocator@PAVCGraphicThingInstance@@@std@@@std@@AAEXI@Z ; std::vector<CGraphicThingInstance *,std::allocator<CGraphicThingInstance *> >::_Reallocate_exactly
PUBLIC	?reserve@?$vector@PAVCGraphicThingInstance@@V?$allocator@PAVCGraphicThingInstance@@@std@@@std@@QAEXI@Z ; std::vector<CGraphicThingInstance *,std::allocator<CGraphicThingInstance *> >::reserve
PUBLIC	?clear@?$vector@PAVCGraphicThingInstance@@V?$allocator@PAVCGraphicThingInstance@@@std@@@std@@QAEXXZ ; std::vector<CGraphicThingInstance *,std::allocator<CGraphicThingInstance *> >::clear
PUBLIC	?_Destroy@?$vector@PAVCGraphicThingInstance@@V?$allocator@PAVCGraphicThingInstance@@@std@@@std@@AAEXPAPAVCGraphicThingInstance@@0@Z ; std::vector<CGraphicThingInstance *,std::allocator<CGraphicThingInstance *> >::_Destroy
PUBLIC	?_Calculate_growth@?$vector@PAVCGraphicThingInstance@@V?$allocator@PAVCGraphicThingInstance@@@std@@@std@@ABEII@Z ; std::vector<CGraphicThingInstance *,std::allocator<CGraphicThingInstance *> >::_Calculate_growth
PUBLIC	?_Change_array@?$vector@PAVCGraphicThingInstance@@V?$allocator@PAVCGraphicThingInstance@@@std@@@std@@AAEXQAPAVCGraphicThingInstance@@II@Z ; std::vector<CGraphicThingInstance *,std::allocator<CGraphicThingInstance *> >::_Change_array
PUBLIC	?_Tidy@?$vector@PAVCGraphicThingInstance@@V?$allocator@PAVCGraphicThingInstance@@@std@@@std@@AAEXXZ ; std::vector<CGraphicThingInstance *,std::allocator<CGraphicThingInstance *> >::_Tidy
PUBLIC	?_Xlength@?$vector@PAVCGraphicThingInstance@@V?$allocator@PAVCGraphicThingInstance@@@std@@@std@@CAXXZ ; std::vector<CGraphicThingInstance *,std::allocator<CGraphicThingInstance *> >::_Xlength
PUBLIC	?_Getal@?$vector@PAVCGraphicThingInstance@@V?$allocator@PAVCGraphicThingInstance@@@std@@@std@@AAEAAV?$allocator@PAVCGraphicThingInstance@@@2@XZ ; std::vector<CGraphicThingInstance *,std::allocator<CGraphicThingInstance *> >::_Getal
PUBLIC	??_G?$CDynamicPool@VCGraphicThingInstance@@@@UAEPAXI@Z ; CDynamicPool<CGraphicThingInstance>::`scalar deleting destructor'
PUBLIC	??$for_each@V?$_Vector_iterator@V?$_Vector_val@U?$_Simple_types@PAVCGrannyLODController@@@std@@@std@@@std@@UFCreateDeviceObjects@CGrannyLODController@@@std@@YA?AUFCreateDeviceObjects@CGrannyLODController@@V?$_Vector_iterator@V?$_Vector_val@U?$_Simple_types@PAVCGrannyLODController@@@std@@@std@@@0@0U12@@Z ; std::for_each<std::_Vector_iterator<std::_Vector_val<std::_Simple_types<CGrannyLODController *> > >,CGrannyLODController::FCreateDeviceObjects>
PUBLIC	??$for_each@V?$_Vector_iterator@V?$_Vector_val@U?$_Simple_types@PAVCGrannyLODController@@@std@@@std@@@std@@UFDestroyDeviceObjects@CGrannyLODController@@@std@@YA?AUFDestroyDeviceObjects@CGrannyLODController@@V?$_Vector_iterator@V?$_Vector_val@U?$_Simple_types@PAVCGrannyLODController@@@std@@@std@@@0@0U12@@Z ; std::for_each<std::_Vector_iterator<std::_Vector_val<std::_Simple_types<CGrannyLODController *> > >,CGrannyLODController::FDestroyDeviceObjects>
PUBLIC	??E?$_Tree_unchecked_const_iterator@V?$_Tree_val@U?$_Tree_simple_types@U?$pair@$$CBKPAV?$CRef@VCGraphicThing@@@@@std@@@std@@@std@@U_Iterator_base0@2@@std@@QAEAAV01@XZ ; std::_Tree_unchecked_const_iterator<std::_Tree_val<std::_Tree_simple_types<std::pair<unsigned long const ,CRef<CGraphicThing> *> > >,std::_Iterator_base0>::operator++
PUBLIC	??$stl_wipe@V?$vector@PAVCGrannyLODController@@V?$allocator@PAVCGrannyLODController@@@std@@@std@@@@YAXAAV?$vector@PAVCGrannyLODController@@V?$allocator@PAVCGrannyLODController@@@std@@@std@@@Z ; stl_wipe<std::vector<CGrannyLODController *,std::allocator<CGrannyLODController *> > >
PUBLIC	??$for_each@V?$_Vector_iterator@V?$_Vector_val@U?$_Simple_types@PAVCGrannyLODController@@@std@@@std@@@std@@UFEndStopMotionPointer@CGrannyLODController@@@std@@YA?AUFEndStopMotionPointer@CGrannyLODController@@V?$_Vector_iterator@V?$_Vector_val@U?$_Simple_types@PAVCGrannyLODController@@@std@@@std@@@0@0U12@@Z ; std::for_each<std::_Vector_iterator<std::_Vector_val<std::_Simple_types<CGrannyLODController *> > >,CGrannyLODController::FEndStopMotionPointer>
PUBLIC	??$insert@$0A@$0A@@?$_Tree@V?$_Tmap_traits@KPAV?$CRef@VCGraphicThing@@@@U?$less@K@std@@V?$allocator@U?$pair@$$CBKPAV?$CRef@VCGraphicThing@@@@@std@@@3@$0A@@std@@@std@@QAE?AU?$pair@V?$_Tree_iterator@V?$_Tree_val@U?$_Tree_simple_types@U?$pair@$$CBKPAV?$CRef@VCGraphicThing@@@@@std@@@std@@@std@@@std@@_N@1@$$QAU?$pair@$$CBKPAV?$CRef@VCGraphicThing@@@@@1@@Z ; std::_Tree<std::_Tmap_traits<unsigned long,CRef<CGraphicThing> *,std::less<unsigned long>,std::allocator<std::pair<unsigned long const ,CRef<CGraphicThing> *> >,0> >::insert<0,0>
PUBLIC	??$for_each@V?$_Vector_iterator@V?$_Vector_val@U?$_Simple_types@PAVCGrannyLODController@@@std@@@std@@@std@@UFResetLocalTime@CGrannyLODController@@@std@@YA?AUFResetLocalTime@CGrannyLODController@@V?$_Vector_iterator@V?$_Vector_val@U?$_Simple_types@PAVCGrannyLODController@@@std@@@std@@@0@0U12@@Z ; std::for_each<std::_Vector_iterator<std::_Vector_val<std::_Simple_types<CGrannyLODController *> > >,CGrannyLODController::FResetLocalTime>
PUBLIC	??$for_each@V?$_Vector_iterator@V?$_Vector_val@U?$_Simple_types@PAVCGrannyLODController@@@std@@@std@@@std@@UFBoundBox@CGrannyLODController@@@std@@YA?AUFBoundBox@CGrannyLODController@@V?$_Vector_iterator@V?$_Vector_val@U?$_Simple_types@PAVCGrannyLODController@@@std@@@std@@@0@0U12@@Z ; std::for_each<std::_Vector_iterator<std::_Vector_val<std::_Simple_types<CGrannyLODController *> > >,CGrannyLODController::FBoundBox>
PUBLIC	??$for_each@V?$_Vector_iterator@V?$_Vector_val@U?$_Simple_types@PAVCGrannyLODController@@@std@@@std@@@std@@UFDeformAll@CGrannyLODController@@@std@@YA?AUFDeformAll@CGrannyLODController@@V?$_Vector_iterator@V?$_Vector_val@U?$_Simple_types@PAVCGrannyLODController@@@std@@@std@@@0@0U12@@Z ; std::for_each<std::_Vector_iterator<std::_Vector_val<std::_Simple_types<CGrannyLODController *> > >,CGrannyLODController::FDeformAll>
PUBLIC	??$for_each@V?$_Vector_iterator@V?$_Vector_val@U?$_Simple_types@PAVCGrannyLODController@@@std@@@std@@@std@@UFDeform@CGrannyLODController@@@std@@YA?AUFDeform@CGrannyLODController@@V?$_Vector_iterator@V?$_Vector_val@U?$_Simple_types@PAVCGrannyLODController@@@std@@@std@@@0@0U12@@Z ; std::for_each<std::_Vector_iterator<std::_Vector_val<std::_Simple_types<CGrannyLODController *> > >,CGrannyLODController::FDeform>
PUBLIC	??$for_each@V?$_Vector_iterator@V?$_Vector_val@U?$_Simple_types@PAVCGrannyLODController@@@std@@@std@@@std@@UFSetLocalTime@CGrannyLODController@@@std@@YA?AUFSetLocalTime@CGrannyLODController@@V?$_Vector_iterator@V?$_Vector_val@U?$_Simple_types@PAVCGrannyLODController@@@std@@@std@@@0@0U12@@Z ; std::for_each<std::_Vector_iterator<std::_Vector_val<std::_Simple_types<CGrannyLODController *> > >,CGrannyLODController::FSetLocalTime>
PUBLIC	??$for_each@V?$_Vector_iterator@V?$_Vector_val@U?$_Simple_types@PAVCGrannyLODController@@@std@@@std@@@std@@UFUpdateLODLevel@CGrannyLODController@@@std@@YA?AUFUpdateLODLevel@CGrannyLODController@@V?$_Vector_iterator@V?$_Vector_val@U?$_Simple_types@PAVCGrannyLODController@@@std@@@std@@@0@0U12@@Z ; std::for_each<std::_Vector_iterator<std::_Vector_val<std::_Simple_types<CGrannyLODController *> > >,CGrannyLODController::FUpdateLODLevel>
PUBLIC	??$for_each@V?$_Vector_iterator@V?$_Vector_val@U?$_Simple_types@PAVCGrannyLODController@@@std@@@std@@@std@@UFUpdateTime@CGrannyLODController@@@std@@YA?AUFUpdateTime@CGrannyLODController@@V?$_Vector_iterator@V?$_Vector_val@U?$_Simple_types@PAVCGrannyLODController@@@std@@@std@@@0@0U12@@Z ; std::for_each<std::_Vector_iterator<std::_Vector_val<std::_Simple_types<CGrannyLODController *> > >,CGrannyLODController::FUpdateTime>
PUBLIC	??$for_each@V?$_Vector_iterator@V?$_Vector_val@U?$_Simple_types@PAVCGrannyLODController@@@std@@@std@@@std@@UFRenderWithOneTexture@CGrannyLODController@@@std@@YA?AUFRenderWithOneTexture@CGrannyLODController@@V?$_Vector_iterator@V?$_Vector_val@U?$_Simple_types@PAVCGrannyLODController@@@std@@@std@@@0@0U12@@Z ; std::for_each<std::_Vector_iterator<std::_Vector_val<std::_Simple_types<CGrannyLODController *> > >,CGrannyLODController::FRenderWithOneTexture>
PUBLIC	??$for_each@V?$_Vector_iterator@V?$_Vector_val@U?$_Simple_types@PAVCGrannyLODController@@@std@@@std@@@std@@UFBlendRenderWithOneTexture@CGrannyLODController@@@std@@YA?AUFBlendRenderWithOneTexture@CGrannyLODController@@V?$_Vector_iterator@V?$_Vector_val@U?$_Simple_types@PAVCGrannyLODController@@@std@@@std@@@0@0U12@@Z ; std::for_each<std::_Vector_iterator<std::_Vector_val<std::_Simple_types<CGrannyLODController *> > >,CGrannyLODController::FBlendRenderWithOneTexture>
PUBLIC	??$for_each@V?$_Vector_iterator@V?$_Vector_val@U?$_Simple_types@PAVCGrannyLODController@@@std@@@std@@@std@@UFRenderWithTwoTexture@CGrannyLODController@@@std@@YA?AUFRenderWithTwoTexture@CGrannyLODController@@V?$_Vector_iterator@V?$_Vector_val@U?$_Simple_types@PAVCGrannyLODController@@@std@@@std@@@0@0U12@@Z ; std::for_each<std::_Vector_iterator<std::_Vector_val<std::_Simple_types<CGrannyLODController *> > >,CGrannyLODController::FRenderWithTwoTexture>
PUBLIC	??$for_each@V?$_Vector_iterator@V?$_Vector_val@U?$_Simple_types@PAVCGrannyLODController@@@std@@@std@@@std@@UFRenderToShadowMap@CGrannyLODController@@@std@@YA?AUFRenderToShadowMap@CGrannyLODController@@V?$_Vector_iterator@V?$_Vector_val@U?$_Simple_types@PAVCGrannyLODController@@@std@@@std@@@0@0U12@@Z ; std::for_each<std::_Vector_iterator<std::_Vector_val<std::_Simple_types<CGrannyLODController *> > >,CGrannyLODController::FRenderToShadowMap>
PUBLIC	??$for_each@V?$_Vector_iterator@V?$_Vector_val@U?$_Simple_types@PAVCGrannyLODController@@@std@@@std@@@std@@UFRenderShadow@CGrannyLODController@@@std@@YA?AUFRenderShadow@CGrannyLODController@@V?$_Vector_iterator@V?$_Vector_val@U?$_Simple_types@PAVCGrannyLODController@@@std@@@std@@@0@0U12@@Z ; std::for_each<std::_Vector_iterator<std::_Vector_val<std::_Simple_types<CGrannyLODController *> > >,CGrannyLODController::FRenderShadow>
PUBLIC	??$for_each@V?$_Vector_iterator@V?$_Vector_val@U?$_Simple_types@PAVCGrannyLODController@@@std@@@std@@@std@@UFReloadTexture@CGrannyLODController@@@std@@YA?AUFReloadTexture@CGrannyLODController@@V?$_Vector_iterator@V?$_Vector_val@U?$_Simple_types@PAVCGrannyLODController@@@std@@@std@@@0@0U12@@Z ; std::for_each<std::_Vector_iterator<std::_Vector_val<std::_Simple_types<CGrannyLODController *> > >,CGrannyLODController::FReloadTexture>
PUBLIC	??$stl_wipe_second@V?$map@KPAV?$CRef@VCGraphicThing@@@@U?$less@K@std@@V?$allocator@U?$pair@$$CBKPAV?$CRef@VCGraphicThing@@@@@std@@@3@@std@@@@YAXAAV?$map@KPAV?$CRef@VCGraphicThing@@@@U?$less@K@std@@V?$allocator@U?$pair@$$CBKPAV?$CRef@VCGraphicThing@@@@@std@@@3@@std@@@Z ; stl_wipe_second<std::map<unsigned long,CRef<CGraphicThing> *,std::less<unsigned long>,std::allocator<std::pair<unsigned long const ,CRef<CGraphicThing> *> > > >
PUBLIC	??$for_each@V?$_Vector_iterator@V?$_Vector_val@U?$_Simple_types@PAVCGraphicThingInstance@@@std@@@std@@@std@@P6AXPAVCGraphicThingInstance@@@Z@std@@YAP6AXPAVCGraphicThingInstance@@@ZV?$_Vector_iterator@V?$_Vector_val@U?$_Simple_types@PAVCGraphicThingInstance@@@std@@@std@@@0@1P6AX0@Z@Z ; std::for_each<std::_Vector_iterator<std::_Vector_val<std::_Simple_types<CGraphicThingInstance *> > >,void (__cdecl*)(CGraphicThingInstance *)>
PUBLIC	??$_Try_emplace@ABK$$V@?$map@KPAV?$CRef@VCGraphicThing@@@@U?$less@K@std@@V?$allocator@U?$pair@$$CBKPAV?$CRef@VCGraphicThing@@@@@std@@@3@@std@@AAE?AU?$pair@PAU?$_Tree_node@U?$pair@$$CBKPAV?$CRef@VCGraphicThing@@@@@std@@PAX@std@@_N@1@ABK@Z ; std::map<unsigned long,CRef<CGraphicThing> *,std::less<unsigned long>,std::allocator<std::pair<unsigned long const ,CRef<CGraphicThing> *> > >::_Try_emplace<unsigned long const &>
PUBLIC	??$_Find@K@?$_Tree@V?$_Tmap_traits@KPAV?$CRef@VCGraphicThing@@@@U?$less@K@std@@V?$allocator@U?$pair@$$CBKPAV?$CRef@VCGraphicThing@@@@@std@@@3@$0A@@std@@@std@@ABEPAU?$_Tree_node@U?$pair@$$CBKPAV?$CRef@VCGraphicThing@@@@@std@@PAX@1@ABK@Z ; std::_Tree<std::_Tmap_traits<unsigned long,CRef<CGraphicThing> *,std::less<unsigned long>,std::allocator<std::pair<unsigned long const ,CRef<CGraphicThing> *> >,0> >::_Find<unsigned long>
PUBLIC	??$_Resize@U_Value_init_tag@std@@@?$vector@USModelThingSet@CGraphicThingInstance@@V?$allocator@USModelThingSet@CGraphicThingInstance@@@std@@@std@@AAEXIABU_Value_init_tag@1@@Z ; std::vector<CGraphicThingInstance::SModelThingSet,std::allocator<CGraphicThingInstance::SModelThingSet> >::_Resize<std::_Value_init_tag>
PUBLIC	??$emplace_back@ABQAVCGrannyLODController@@@?$vector@PAVCGrannyLODController@@V?$allocator@PAVCGrannyLODController@@@std@@@std@@QAEXABQAVCGrannyLODController@@@Z ; std::vector<CGrannyLODController *,std::allocator<CGrannyLODController *> >::emplace_back<CGrannyLODController * const &>
PUBLIC	??$_Emplace_back_with_unused_capacity@ABQAVCGrannyLODController@@@?$vector@PAVCGrannyLODController@@V?$allocator@PAVCGrannyLODController@@@std@@@std@@AAEXABQAVCGrannyLODController@@@Z ; std::vector<CGrannyLODController *,std::allocator<CGrannyLODController *> >::_Emplace_back_with_unused_capacity<CGrannyLODController * const &>
PUBLIC	??$_Emplace_reallocate@ABQAVCGrannyLODController@@@?$vector@PAVCGrannyLODController@@V?$allocator@PAVCGrannyLODController@@@std@@@std@@QAEPAPAVCGrannyLODController@@QAPAV2@ABQAV2@@Z ; std::vector<CGrannyLODController *,std::allocator<CGrannyLODController *> >::_Emplace_reallocate<CGrannyLODController * const &>
PUBLIC	??$emplace_back@ABQAV?$CRef@VCGraphicThing@@@@@?$vector@PAV?$CRef@VCGraphicThing@@@@V?$allocator@PAV?$CRef@VCGraphicThing@@@@@std@@@std@@QAEXABQAV?$CRef@VCGraphicThing@@@@@Z ; std::vector<CRef<CGraphicThing> *,std::allocator<CRef<CGraphicThing> *> >::emplace_back<CRef<CGraphicThing> * const &>
PUBLIC	??$_Emplace_back_with_unused_capacity@ABQAV?$CRef@VCGraphicThing@@@@@?$vector@PAV?$CRef@VCGraphicThing@@@@V?$allocator@PAV?$CRef@VCGraphicThing@@@@@std@@@std@@AAEXABQAV?$CRef@VCGraphicThing@@@@@Z ; std::vector<CRef<CGraphicThing> *,std::allocator<CRef<CGraphicThing> *> >::_Emplace_back_with_unused_capacity<CRef<CGraphicThing> * const &>
PUBLIC	??$_Emplace_reallocate@ABQAV?$CRef@VCGraphicThing@@@@@?$vector@PAV?$CRef@VCGraphicThing@@@@V?$allocator@PAV?$CRef@VCGraphicThing@@@@@std@@@std@@QAEPAPAV?$CRef@VCGraphicThing@@@@QAPAV2@ABQAV2@@Z ; std::vector<CRef<CGraphicThing> *,std::allocator<CRef<CGraphicThing> *> >::_Emplace_reallocate<CRef<CGraphicThing> * const &>
PUBLIC	??$emplace_back@ABQAVCGraphicThingInstance@@@?$vector@PAVCGraphicThingInstance@@V?$allocator@PAVCGraphicThingInstance@@@std@@@std@@QAEXABQAVCGraphicThingInstance@@@Z ; std::vector<CGraphicThingInstance *,std::allocator<CGraphicThingInstance *> >::emplace_back<CGraphicThingInstance * const &>
PUBLIC	??$_Emplace_back_with_unused_capacity@ABQAVCGraphicThingInstance@@@?$vector@PAVCGraphicThingInstance@@V?$allocator@PAVCGraphicThingInstance@@@std@@@std@@AAEXABQAVCGraphicThingInstance@@@Z ; std::vector<CGraphicThingInstance *,std::allocator<CGraphicThingInstance *> >::_Emplace_back_with_unused_capacity<CGraphicThingInstance * const &>
PUBLIC	??$_Emplace_reallocate@ABQAVCGraphicThingInstance@@@?$vector@PAVCGraphicThingInstance@@V?$allocator@PAVCGraphicThingInstance@@@std@@@std@@QAEPAPAVCGraphicThingInstance@@QAPAV2@ABQAV2@@Z ; std::vector<CGraphicThingInstance *,std::allocator<CGraphicThingInstance *> >::_Emplace_reallocate<CGraphicThingInstance * const &>
PUBLIC	??$_Destroy_range@V?$allocator@PAVCGraphicThingInstance@@@std@@@std@@YAXPAPAVCGraphicThingInstance@@QAPAV1@AAV?$allocator@PAVCGraphicThingInstance@@@0@@Z ; std::_Destroy_range<std::allocator<CGraphicThingInstance *> >
PUBLIC	??$_Buyheadnode@V?$allocator@U?$_Tree_node@U?$pair@$$CBKPAV?$CRef@VCGraphicThing@@@@@std@@PAX@std@@@std@@@?$_Tree_node@U?$pair@$$CBKPAV?$CRef@VCGraphicThing@@@@@std@@PAX@std@@SAPAU01@AAV?$allocator@U?$_Tree_node@U?$pair@$$CBKPAV?$CRef@VCGraphicThing@@@@@std@@PAX@std@@@1@@Z ; std::_Tree_node<std::pair<unsigned long const ,CRef<CGraphicThing> *>,void *>::_Buyheadnode<std::allocator<std::_Tree_node<std::pair<unsigned long const ,CRef<CGraphicThing> *>,void *> > >
PUBLIC	??$_Destroy_range@V?$allocator@USModelThingSet@CGraphicThingInstance@@@std@@@std@@YAXPAUSModelThingSet@CGraphicThingInstance@@QAU12@AAV?$allocator@USModelThingSet@CGraphicThingInstance@@@0@@Z ; std::_Destroy_range<std::allocator<CGraphicThingInstance::SModelThingSet> >
PUBLIC	??$_Deallocate@$07$0A@@std@@YAXPAXI@Z		; std::_Deallocate<8,0>
PUBLIC	??$_Destroy_range@V?$allocator@PAVCGrannyLODController@@@std@@@std@@YAXPAPAVCGrannyLODController@@QAPAV1@AAV?$allocator@PAVCGrannyLODController@@@0@@Z ; std::_Destroy_range<std::allocator<CGrannyLODController *> >
PUBLIC	??$_Allocate@$07U_Default_allocate_traits@std@@$0A@@std@@YAPAXI@Z ; std::_Allocate<8,std::_Default_allocate_traits,0>
PUBLIC	??$_Uninitialized_move@PAPAVCGraphicThingInstance@@V?$allocator@PAVCGraphicThingInstance@@@std@@@std@@YAPAPAVCGraphicThingInstance@@QAPAV1@0PAPAV1@AAV?$allocator@PAVCGraphicThingInstance@@@0@@Z ; std::_Uninitialized_move<CGraphicThingInstance * *,std::allocator<CGraphicThingInstance *> >
PUBLIC	??$_Emplace@U?$pair@$$CBKPAV?$CRef@VCGraphicThing@@@@@std@@@?$_Tree@V?$_Tmap_traits@KPAV?$CRef@VCGraphicThing@@@@U?$less@K@std@@V?$allocator@U?$pair@$$CBKPAV?$CRef@VCGraphicThing@@@@@std@@@3@$0A@@std@@@std@@IAE?AU?$pair@PAU?$_Tree_node@U?$pair@$$CBKPAV?$CRef@VCGraphicThing@@@@@std@@PAX@std@@_N@1@$$QAU?$pair@$$CBKPAV?$CRef@VCGraphicThing@@@@@1@@Z ; std::_Tree<std::_Tmap_traits<unsigned long,CRef<CGraphicThing> *,std::less<unsigned long>,std::allocator<std::pair<unsigned long const ,CRef<CGraphicThing> *> >,0> >::_Emplace<std::pair<unsigned long const ,CRef<CGraphicThing> *> >
PUBLIC	??$_Find_lower_bound@K@?$_Tree@V?$_Tmap_traits@KPAV?$CRef@VCGraphicThing@@@@U?$less@K@std@@V?$allocator@U?$pair@$$CBKPAV?$CRef@VCGraphicThing@@@@@std@@@3@$0A@@std@@@std@@IBE?AU?$_Tree_find_result@PAU?$_Tree_node@U?$pair@$$CBKPAV?$CRef@VCGraphicThing@@@@@std@@PAX@std@@@1@ABK@Z ; std::_Tree<std::_Tmap_traits<unsigned long,CRef<CGraphicThing> *,std::less<unsigned long>,std::allocator<std::pair<unsigned long const ,CRef<CGraphicThing> *> >,0> >::_Find_lower_bound<unsigned long>
PUBLIC	?_Allocate@?$_Alloc_construct_ptr@V?$allocator@U?$_Tree_node@U?$pair@$$CBKPAV?$CRef@VCGraphicThing@@@@@std@@PAX@std@@@std@@@std@@QAEXXZ ; std::_Alloc_construct_ptr<std::allocator<std::_Tree_node<std::pair<unsigned long const ,CRef<CGraphicThing> *>,void *> > >::_Allocate
PUBLIC	??1?$_Alloc_construct_ptr@V?$allocator@U?$_Tree_node@U?$pair@$$CBKPAV?$CRef@VCGraphicThing@@@@@std@@PAX@std@@@std@@@std@@QAE@XZ ; std::_Alloc_construct_ptr<std::allocator<std::_Tree_node<std::pair<unsigned long const ,CRef<CGraphicThing> *>,void *> > >::~_Alloc_construct_ptr<std::allocator<std::_Tree_node<std::pair<unsigned long const ,CRef<CGraphicThing> *>,void *> > >
PUBLIC	??1?$_Tree_temp_node_alloc@V?$allocator@U?$_Tree_node@U?$pair@$$CBKPAV?$CRef@VCGraphicThing@@@@@std@@PAX@std@@@std@@@std@@QAE@XZ ; std::_Tree_temp_node_alloc<std::allocator<std::_Tree_node<std::pair<unsigned long const ,CRef<CGraphicThing> *>,void *> > >::~_Tree_temp_node_alloc<std::allocator<std::_Tree_node<std::pair<unsigned long const ,CRef<CGraphicThing> *>,void *> > >
PUBLIC	??1?$_Tree_temp_node@V?$allocator@U?$_Tree_node@U?$pair@$$CBKPAV?$CRef@VCGraphicThing@@@@@std@@PAX@std@@@std@@@std@@QAE@XZ ; std::_Tree_temp_node<std::allocator<std::_Tree_node<std::pair<unsigned long const ,CRef<CGraphicThing> *>,void *> > >::~_Tree_temp_node<std::allocator<std::_Tree_node<std::pair<unsigned long const ,CRef<CGraphicThing> *>,void *> > >
PUBLIC	??$?0ABUpiecewise_construct_t@std@@V?$tuple@ABK@1@V?$tuple@$$V@1@@?$_Tree_temp_node@V?$allocator@U?$_Tree_node@U?$pair@$$CBKPAV?$CRef@VCGraphicThing@@@@@std@@PAX@std@@@std@@@std@@QAE@AAV?$allocator@U?$_Tree_node@U?$pair@$$CBKPAV?$CRef@VCGraphicThing@@@@@std@@PAX@std@@@1@PAU?$_Tree_node@U?$pair@$$CBKPAV?$CRef@VCGraphicThing@@@@@std@@PAX@1@ABUpiecewise_construct_t@1@$$QAV?$tuple@ABK@1@$$QAV?$tuple@$$V@1@@Z ; std::_Tree_temp_node<std::allocator<std::_Tree_node<std::pair<unsigned long const ,CRef<CGraphicThing> *>,void *> > >::_Tree_temp_node<std::allocator<std::_Tree_node<std::pair<unsigned long const ,CRef<CGraphicThing> *>,void *> > ><std::piecewise_construct_t const &,std::tuple<unsigned long const &>,std::tuple<> >
PUBLIC	??$_Erase_tree@V?$allocator@U?$_Tree_node@U?$pair@$$CBKPAV?$CRef@VCGraphicThing@@@@@std@@PAX@std@@@std@@@?$_Tree_val@U?$_Tree_simple_types@U?$pair@$$CBKPAV?$CRef@VCGraphicThing@@@@@std@@@std@@@std@@QAEXAAV?$allocator@U?$_Tree_node@U?$pair@$$CBKPAV?$CRef@VCGraphicThing@@@@@std@@PAX@std@@@1@PAU?$_Tree_node@U?$pair@$$CBKPAV?$CRef@VCGraphicThing@@@@@std@@PAX@1@@Z ; std::_Tree_val<std::_Tree_simple_types<std::pair<unsigned long const ,CRef<CGraphicThing> *> > >::_Erase_tree<std::allocator<std::_Tree_node<std::pair<unsigned long const ,CRef<CGraphicThing> *>,void *> > >
PUBLIC	??$_Freenode0@V?$allocator@U?$_Tree_node@U?$pair@$$CBKPAV?$CRef@VCGraphicThing@@@@@std@@PAX@std@@@std@@@?$_Tree_node@U?$pair@$$CBKPAV?$CRef@VCGraphicThing@@@@@std@@PAX@std@@SAXAAV?$allocator@U?$_Tree_node@U?$pair@$$CBKPAV?$CRef@VCGraphicThing@@@@@std@@PAX@std@@@1@PAU01@@Z ; std::_Tree_node<std::pair<unsigned long const ,CRef<CGraphicThing> *>,void *>::_Freenode0<std::allocator<std::_Tree_node<std::pair<unsigned long const ,CRef<CGraphicThing> *>,void *> > >
PUBLIC	??$_Resize_reallocate@U_Value_init_tag@std@@@?$vector@USModelThingSet@CGraphicThingInstance@@V?$allocator@USModelThingSet@CGraphicThingInstance@@@std@@@std@@AAEXIABU_Value_init_tag@1@@Z ; std::vector<CGraphicThingInstance::SModelThingSet,std::allocator<CGraphicThingInstance::SModelThingSet> >::_Resize_reallocate<std::_Value_init_tag>
PUBLIC	??$_Construct_in_place@PAU?$_Tree_node@U?$pair@$$CBKPAV?$CRef@VCGraphicThing@@@@@std@@PAX@std@@ABQAU12@@std@@YAXAAPAU?$_Tree_node@U?$pair@$$CBKPAV?$CRef@VCGraphicThing@@@@@std@@PAX@0@ABQAU10@@Z ; std::_Construct_in_place<std::_Tree_node<std::pair<unsigned long const ,CRef<CGraphicThing> *>,void *> *,std::_Tree_node<std::pair<unsigned long const ,CRef<CGraphicThing> *>,void *> * const &>
PUBLIC	??$_Allocate_manually_vector_aligned@U_Default_allocate_traits@std@@@std@@YAPAXI@Z ; std::_Allocate_manually_vector_aligned<std::_Default_allocate_traits>
PUBLIC	??$_Copy_memmove@PAPAVCGraphicThingInstance@@PAPAV1@@std@@YAPAPAVCGraphicThingInstance@@PAPAV1@00@Z ; std::_Copy_memmove<CGraphicThingInstance * *,CGraphicThingInstance * *>
PUBLIC	??$_Destroy_in_place@PAU?$_Tree_node@U?$pair@$$CBKPAV?$CRef@VCGraphicThing@@@@@std@@PAX@std@@@std@@YAXAAPAU?$_Tree_node@U?$pair@$$CBKPAV?$CRef@VCGraphicThing@@@@@std@@PAX@0@@Z ; std::_Destroy_in_place<std::_Tree_node<std::pair<unsigned long const ,CRef<CGraphicThing> *>,void *> *>
PUBLIC	??$_Uninitialized_value_construct_n@V?$allocator@USModelThingSet@CGraphicThingInstance@@@std@@@std@@YAPAUSModelThingSet@CGraphicThingInstance@@PAU12@IAAV?$allocator@USModelThingSet@CGraphicThingInstance@@@0@@Z ; std::_Uninitialized_value_construct_n<std::allocator<CGraphicThingInstance::SModelThingSet> >
PUBLIC	??$_Uninitialized_move@PAPAVCGrannyLODController@@V?$allocator@PAVCGrannyLODController@@@std@@@std@@YAPAPAVCGrannyLODController@@QAPAV1@0PAPAV1@AAV?$allocator@PAVCGrannyLODController@@@0@@Z ; std::_Uninitialized_move<CGrannyLODController * *,std::allocator<CGrannyLODController *> >
PUBLIC	??$_Destroy_range@V?$allocator@PAV?$CRef@VCGraphicThing@@@@@std@@@std@@YAXPAPAV?$CRef@VCGraphicThing@@@@QAPAV1@AAV?$allocator@PAV?$CRef@VCGraphicThing@@@@@0@@Z ; std::_Destroy_range<std::allocator<CRef<CGraphicThing> *> >
PUBLIC	??$_Uninitialized_move@PAPAV?$CRef@VCGraphicThing@@@@V?$allocator@PAV?$CRef@VCGraphicThing@@@@@std@@@std@@YAPAPAV?$CRef@VCGraphicThing@@@@QAPAV1@0PAPAV1@AAV?$allocator@PAV?$CRef@VCGraphicThing@@@@@0@@Z ; std::_Uninitialized_move<CRef<CGraphicThing> * *,std::allocator<CRef<CGraphicThing> *> >
PUBLIC	??$?0U?$pair@$$CBKPAV?$CRef@VCGraphicThing@@@@@std@@@?$_Tree_temp_node@V?$allocator@U?$_Tree_node@U?$pair@$$CBKPAV?$CRef@VCGraphicThing@@@@@std@@PAX@std@@@std@@@std@@QAE@AAV?$allocator@U?$_Tree_node@U?$pair@$$CBKPAV?$CRef@VCGraphicThing@@@@@std@@PAX@std@@@1@PAU?$_Tree_node@U?$pair@$$CBKPAV?$CRef@VCGraphicThing@@@@@std@@PAX@1@$$QAU?$pair@$$CBKPAV?$CRef@VCGraphicThing@@@@@1@@Z ; std::_Tree_temp_node<std::allocator<std::_Tree_node<std::pair<unsigned long const ,CRef<CGraphicThing> *>,void *> > >::_Tree_temp_node<std::allocator<std::_Tree_node<std::pair<unsigned long const ,CRef<CGraphicThing> *>,void *> > ><std::pair<unsigned long const ,CRef<CGraphicThing> *> >
PUBLIC	??$construct@U?$pair@$$CBKPAV?$CRef@VCGraphicThing@@@@@std@@ABUpiecewise_construct_t@2@V?$tuple@ABK@2@V?$tuple@$$V@2@@?$_Default_allocator_traits@V?$allocator@U?$_Tree_node@U?$pair@$$CBKPAV?$CRef@VCGraphicThing@@@@@std@@PAX@std@@@std@@@std@@SAXAAV?$allocator@U?$_Tree_node@U?$pair@$$CBKPAV?$CRef@VCGraphicThing@@@@@std@@PAX@std@@@1@QAU?$pair@$$CBKPAV?$CRef@VCGraphicThing@@@@@1@ABUpiecewise_construct_t@1@$$QAV?$tuple@ABK@1@$$QAV?$tuple@$$V@1@@Z ; std::_Default_allocator_traits<std::allocator<std::_Tree_node<std::pair<unsigned long const ,CRef<CGraphicThing> *>,void *> > >::construct<std::pair<unsigned long const ,CRef<CGraphicThing> *>,std::piecewise_construct_t const &,std::tuple<unsigned long const &>,std::tuple<> >
PUBLIC	??$_Construct_in_place@PAU?$_Tree_node@U?$pair@$$CBKPAV?$CRef@VCGraphicThing@@@@@std@@PAX@std@@AAPAU12@@std@@YAXAAPAU?$_Tree_node@U?$pair@$$CBKPAV?$CRef@VCGraphicThing@@@@@std@@PAX@0@0@Z ; std::_Construct_in_place<std::_Tree_node<std::pair<unsigned long const ,CRef<CGraphicThing> *>,void *> *,std::_Tree_node<std::pair<unsigned long const ,CRef<CGraphicThing> *>,void *> * &>
PUBLIC	??1?$_Uninitialized_backout_al@V?$allocator@USModelThingSet@CGraphicThingInstance@@@std@@@std@@QAE@XZ ; std::_Uninitialized_backout_al<std::allocator<CGraphicThingInstance::SModelThingSet> >::~_Uninitialized_backout_al<std::allocator<CGraphicThingInstance::SModelThingSet> >
PUBLIC	??$_Emplace_back@$$V@?$_Uninitialized_backout_al@V?$allocator@USModelThingSet@CGraphicThingInstance@@@std@@@std@@QAEXXZ ; std::_Uninitialized_backout_al<std::allocator<CGraphicThingInstance::SModelThingSet> >::_Emplace_back<>
PUBLIC	??$_Copy_memmove@PAPAVCGrannyLODController@@PAPAV1@@std@@YAPAPAVCGrannyLODController@@PAPAV1@00@Z ; std::_Copy_memmove<CGrannyLODController * *,CGrannyLODController * *>
PUBLIC	??$_Copy_memmove@PAPAV?$CRef@VCGraphicThing@@@@PAPAV1@@std@@YAPAPAV?$CRef@VCGraphicThing@@@@PAPAV1@00@Z ; std::_Copy_memmove<CRef<CGraphicThing> * *,CRef<CGraphicThing> * *>
PUBLIC	??$_Uninitialized_move@PAUSModelThingSet@CGraphicThingInstance@@V?$allocator@USModelThingSet@CGraphicThingInstance@@@std@@@std@@YAPAUSModelThingSet@CGraphicThingInstance@@QAU12@0PAU12@AAV?$allocator@USModelThingSet@CGraphicThingInstance@@@0@@Z ; std::_Uninitialized_move<CGraphicThingInstance::SModelThingSet *,std::allocator<CGraphicThingInstance::SModelThingSet> >
PUBLIC	??$_Emplace_back@USModelThingSet@CGraphicThingInstance@@@?$_Uninitialized_backout_al@V?$allocator@USModelThingSet@CGraphicThingInstance@@@std@@@std@@QAEX$$QAUSModelThingSet@CGraphicThingInstance@@@Z ; std::_Uninitialized_backout_al<std::allocator<CGraphicThingInstance::SModelThingSet> >::_Emplace_back<CGraphicThingInstance::SModelThingSet>
PUBLIC	??_7exception@std@@6B@				; std::exception::`vftable'
PUBLIC	??_C@_0BC@EOODALEL@Unknown?5exception@		; `string'
PUBLIC	??_7bad_alloc@std@@6B@				; std::bad_alloc::`vftable'
PUBLIC	??_7bad_array_new_length@std@@6B@		; std::bad_array_new_length::`vftable'
PUBLIC	??_C@_0BF@KINCDENJ@bad?5array?5new?5length@	; `string'
PUBLIC	__TI3?AVbad_array_new_length@std@@
PUBLIC	__CTA3?AVbad_array_new_length@std@@
PUBLIC	??_R0?AVbad_array_new_length@std@@@8		; std::bad_array_new_length `RTTI Type Descriptor'
PUBLIC	__CT??_R0?AVbad_array_new_length@std@@@8??0bad_array_new_length@std@@QAE@ABV01@@Z12
PUBLIC	??_R0?AVbad_alloc@std@@@8			; std::bad_alloc `RTTI Type Descriptor'
PUBLIC	__CT??_R0?AVbad_alloc@std@@@8??0bad_alloc@std@@QAE@ABV01@@Z12
PUBLIC	??_R0?AVexception@std@@@8			; std::exception `RTTI Type Descriptor'
PUBLIC	__CT??_R0?AVexception@std@@@8??0exception@std@@QAE@ABV01@@Z12
PUBLIC	??_C@_0BB@GCADKGJO@map?1set?5too?5long@		; `string'
PUBLIC	?ms_singleton@?$CSingleton@VCCameraManager@@@@0PAVCCameraManager@@A ; CSingleton<CCameraManager>::ms_singleton
PUBLIC	?ms_singleton@?$CSingleton@VCTimer@@@@0PAVCTimer@@A ; CSingleton<CTimer>::ms_singleton
PUBLIC	?ms_kPool@CGraphicThingInstance@@2V?$CDynamicPool@VCGraphicThingInstance@@@@A ; CGraphicThingInstance::ms_kPool
PUBLIC	??_7CGraphicThingInstance@@6B@			; CGraphicThingInstance::`vftable'
PUBLIC	??_7?$CDynamicPool@VCGraphicThingInstance@@@@6B@ ; CDynamicPool<CGraphicThingInstance>::`vftable'
PUBLIC	??_C@_0GI@OAKDPIDM@CGraphicThingInstance?3?3AttachMo@ ; `string'
PUBLIC	??_C@_0FH@FOLHJMIP@CGraphicThingInstance?3?3AttachMo@ ; `string'
PUBLIC	??_C@_0FN@FDKPIIBK@CGraphicThingInstance?3?3SetModel@ ; `string'
PUBLIC	??_C@_0IG@CNBHAOPI@CGraphicThingInstance?3?3SetModel@ ; `string'
PUBLIC	??_C@_0HL@PNAAKLOK@CGraphicThingInstance?3?3SetMater@ ; `string'
PUBLIC	??_C@_0GM@CIGLBIHL@CGraphicThingInstance?3?3SetMater@ ; `string'
PUBLIC	??_C@_0FG@DKLHHMAO@CGraphicThingInstance?3?3SetMater@ ; `string'
PUBLIC	??_C@_0EH@ILONCBFP@CGraphicThingInstance?3?3SetMater@ ; `string'
PUBLIC	??_C@_0FG@IDFCAGB@CGraphicThingInstance?3?3SetSpecu@ ; `string'
PUBLIC	??_C@_0EH@ILOLFLHJ@CGraphicThingInstance?3?3SetSpecu@ ; `string'
PUBLIC	??_C@_0EL@BCFDDCFO@CGraphicThingInstance?3?3Register@ ; `string'
PUBLIC	??_C@_0ED@LMOOEEKB@CGraphicThingInstance?3?3UpdateLO@ ; `string'
PUBLIC	??_C@_0BA@FOIKENOD@vector?5too?5long@		; `string'
PUBLIC	??_R4exception@std@@6B@				; std::exception::`RTTI Complete Object Locator'
PUBLIC	??_R3exception@std@@8				; std::exception::`RTTI Class Hierarchy Descriptor'
PUBLIC	??_R2exception@std@@8				; std::exception::`RTTI Base Class Array'
PUBLIC	??_R1A@?0A@EA@exception@std@@8			; std::exception::`RTTI Base Class Descriptor at (0,-1,0,64)'
PUBLIC	??_R4bad_alloc@std@@6B@				; std::bad_alloc::`RTTI Complete Object Locator'
PUBLIC	??_R3bad_alloc@std@@8				; std::bad_alloc::`RTTI Class Hierarchy Descriptor'
PUBLIC	??_R2bad_alloc@std@@8				; std::bad_alloc::`RTTI Base Class Array'
PUBLIC	??_R1A@?0A@EA@bad_alloc@std@@8			; std::bad_alloc::`RTTI Base Class Descriptor at (0,-1,0,64)'
PUBLIC	??_R4bad_array_new_length@std@@6B@		; std::bad_array_new_length::`RTTI Complete Object Locator'
PUBLIC	??_R3bad_array_new_length@std@@8		; std::bad_array_new_length::`RTTI Class Hierarchy Descriptor'
PUBLIC	??_R2bad_array_new_length@std@@8		; std::bad_array_new_length::`RTTI Base Class Array'
PUBLIC	??_R1A@?0A@EA@bad_array_new_length@std@@8	; std::bad_array_new_length::`RTTI Base Class Descriptor at (0,-1,0,64)'
PUBLIC	??_R4CGraphicThingInstance@@6B@			; CGraphicThingInstance::`RTTI Complete Object Locator'
PUBLIC	??_R0?AVCGraphicThingInstance@@@8		; CGraphicThingInstance `RTTI Type Descriptor'
PUBLIC	??_R3CGraphicThingInstance@@8			; CGraphicThingInstance::`RTTI Class Hierarchy Descriptor'
PUBLIC	??_R2CGraphicThingInstance@@8			; CGraphicThingInstance::`RTTI Base Class Array'
PUBLIC	??_R1A@?0A@EA@CGraphicThingInstance@@8		; CGraphicThingInstance::`RTTI Base Class Descriptor at (0,-1,0,64)'
PUBLIC	??_R1A@?0A@EA@CGraphicObjectInstance@@8		; CGraphicObjectInstance::`RTTI Base Class Descriptor at (0,-1,0,64)'
PUBLIC	??_R0?AVCGraphicObjectInstance@@@8		; CGraphicObjectInstance `RTTI Type Descriptor'
PUBLIC	??_R3CGraphicObjectInstance@@8			; CGraphicObjectInstance::`RTTI Class Hierarchy Descriptor'
PUBLIC	??_R2CGraphicObjectInstance@@8			; CGraphicObjectInstance::`RTTI Base Class Array'
PUBLIC	??_R1A@?0A@EA@CGraphicCollisionObject@@8	; CGraphicCollisionObject::`RTTI Base Class Descriptor at (0,-1,0,64)'
PUBLIC	??_R0?AVCGraphicCollisionObject@@@8		; CGraphicCollisionObject `RTTI Type Descriptor'
PUBLIC	??_R3CGraphicCollisionObject@@8			; CGraphicCollisionObject::`RTTI Class Hierarchy Descriptor'
PUBLIC	??_R2CGraphicCollisionObject@@8			; CGraphicCollisionObject::`RTTI Base Class Array'
PUBLIC	??_R1A@?0A@EA@CGraphicBase@@8			; CGraphicBase::`RTTI Base Class Descriptor at (0,-1,0,64)'
PUBLIC	??_R0?AVCGraphicBase@@@8			; CGraphicBase `RTTI Type Descriptor'
PUBLIC	??_R3CGraphicBase@@8				; CGraphicBase::`RTTI Class Hierarchy Descriptor'
PUBLIC	??_R2CGraphicBase@@8				; CGraphicBase::`RTTI Base Class Array'
PUBLIC	??_R4?$CDynamicPool@VCGraphicThingInstance@@@@6B@ ; CDynamicPool<CGraphicThingInstance>::`RTTI Complete Object Locator'
PUBLIC	??_R0?AV?$CDynamicPool@VCGraphicThingInstance@@@@@8 ; CDynamicPool<CGraphicThingInstance> `RTTI Type Descriptor'
PUBLIC	??_R3?$CDynamicPool@VCGraphicThingInstance@@@@8	; CDynamicPool<CGraphicThingInstance>::`RTTI Class Hierarchy Descriptor'
PUBLIC	??_R2?$CDynamicPool@VCGraphicThingInstance@@@@8	; CDynamicPool<CGraphicThingInstance>::`RTTI Base Class Array'
PUBLIC	??_R1A@?0A@EA@?$CDynamicPool@VCGraphicThingInstance@@@@8 ; CDynamicPool<CGraphicThingInstance>::`RTTI Base Class Descriptor at (0,-1,0,64)'
PUBLIC	__real@00000000
PUBLIC	__real@3cf5c28f
PUBLIC	__real@3f000000
PUBLIC	__real@3f800000
PUBLIC	__real@40800000
PUBLIC	__real@42480000
PUBLIC	__real@47c35000
PUBLIC	__real@bf800000
PUBLIC	__real@c7c35000
EXTRN	??2@YAPAXI@Z:PROC				; operator new
EXTRN	??3@YAXPAXI@Z:PROC				; operator delete
EXTRN	_atexit:PROC
EXTRN	___std_terminate:PROC
EXTRN	__invalid_parameter_noinfo_noreturn:PROC
EXTRN	_memmove:PROC
EXTRN	_fabs:PROC
EXTRN	_sqrt:PROC
EXTRN	___std_exception_copy:PROC
EXTRN	___std_exception_destroy:PROC
EXTRN	??_Eexception@std@@UAEPAXI@Z:PROC		; std::exception::`vector deleting destructor'
EXTRN	??_Ebad_alloc@std@@UAEPAXI@Z:PROC		; std::bad_alloc::`vector deleting destructor'
EXTRN	??_Ebad_array_new_length@std@@UAEPAXI@Z:PROC	; std::bad_array_new_length::`vector deleting destructor'
EXTRN	?_Xlength_error@std@@YAXPBD@Z:PROC		; std::_Xlength_error
EXTRN	?TraceError@@YAXPBDZZ:PROC			; TraceError
EXTRN	_D3DXVec3TransformCoord@12:PROC
EXTRN	_D3DXVec4Transform@12:PROC
EXTRN	?GetCurrentCamera@CCameraManager@@QAEPAVCCamera@@XZ:PROC ; CCameraManager::GetCurrentCamera
EXTRN	?GetElapsedSecond@CTimer@@QAEMXZ:PROC		; CTimer::GetElapsedSecond
EXTRN	?AddReference@CReferenceObject@@QAEXXZ:PROC	; CReferenceObject::AddReference
EXTRN	?Release@CReferenceObject@@QAEXXZ:PROC		; CReferenceObject::Release
EXTRN	?Picking@CAttributeInstance@@QAE_NABUD3DXVECTOR3@@0AAM1@Z:PROC ; CAttributeInstance::Picking
EXTRN	?GetHeight@CAttributeInstance@@QAEHMMPAM@Z:PROC	; CAttributeInstance::GetHeight
EXTRN	??0CGraphicObjectInstance@@QAE@XZ:PROC		; CGraphicObjectInstance::CGraphicObjectInstance
EXTRN	??1CGraphicObjectInstance@@UAE@XZ:PROC		; CGraphicObjectInstance::~CGraphicObjectInstance
EXTRN	?GetPosition@CGraphicObjectInstance@@QBEABUD3DXVECTOR3@@XZ:PROC ; CGraphicObjectInstance::GetPosition
EXTRN	?Clear@CGraphicObjectInstance@@QAEXXZ:PROC	; CGraphicObjectInstance::Clear
EXTRN	?isShow@CGraphicObjectInstance@@QAE_NXZ:PROC	; CGraphicObjectInstance::isShow
EXTRN	?GetTransform@CGraphicObjectInstance@@QAEAAUD3DXMATRIX@@XZ:PROC ; CGraphicObjectInstance::GetTransform
EXTRN	?Initialize@CGraphicObjectInstance@@QAEXXZ:PROC	; CGraphicObjectInstance::Initialize
EXTRN	?AddCollision@CGraphicObjectInstance@@QAEXPBVCStaticCollisionData@@PBUD3DXMATRIX@@@Z:PROC ; CGraphicObjectInstance::AddCollision
EXTRN	?SetHeightInstance@CGraphicObjectInstance@@QAEXPAVCAttributeInstance@@@Z:PROC ; CGraphicObjectInstance::SetHeightInstance
EXTRN	?CheckMotionIndex@CGraphicThing@@QBE_NH@Z:PROC	; CGraphicThing::CheckMotionIndex
EXTRN	?GetMotionPointer@CGraphicThing@@QAEPAVCGrannyMotion@@H@Z:PROC ; CGraphicThing::GetMotionPointer
EXTRN	?UpdateTransform@CGrannyModelInstance@@QAEXPAUD3DXMATRIX@@M@Z:PROC ; CGrannyModelInstance::UpdateTransform
EXTRN	?GetBoneMatrixPointer@CGrannyModelInstance@@QBEPBMH@Z:PROC ; CGrannyModelInstance::GetBoneMatrixPointer
EXTRN	?GetCompositeBoneMatrixPointer@CGrannyModelInstance@@QBEPBMH@Z:PROC ; CGrannyModelInstance::GetCompositeBoneMatrixPointer
EXTRN	?GetBoneIndexByName@CGrannyModelInstance@@QBE_NPBDPAH@Z:PROC ; CGrannyModelInstance::GetBoneIndexByName
EXTRN	?GetBoundBox@CGrannyModelInstance@@QAEXPAUD3DXVECTOR3@@0@Z:PROC ; CGrannyModelInstance::GetBoundBox
EXTRN	??0CGrannyLODController@@QAE@XZ:PROC		; CGrannyLODController::CGrannyLODController
EXTRN	?Clear@CGrannyLODController@@QAEXXZ:PROC	; CGrannyLODController::Clear
EXTRN	?CreateDeviceObjects@CGrannyLODController@@QAEXXZ:PROC ; CGrannyLODController::CreateDeviceObjects
EXTRN	?DestroyDeviceObjects@CGrannyLODController@@QAEXXZ:PROC ; CGrannyLODController::DestroyDeviceObjects
EXTRN	?AddModel@CGrannyLODController@@QAEXPAVCGraphicThing@@HPAV1@@Z:PROC ; CGrannyLODController::AddModel
EXTRN	?AttachModelInstance@CGrannyLODController@@QAEXPAV1@PBD@Z:PROC ; CGrannyLODController::AttachModelInstance
EXTRN	?DetachModelInstance@CGrannyLODController@@QAEXPAV1@@Z:PROC ; CGrannyLODController::DetachModelInstance
EXTRN	?SetMaterialImagePointer@CGrannyLODController@@QAEXPBDPAVCGraphicImage@@@Z:PROC ; CGrannyLODController::SetMaterialImagePointer
EXTRN	?SetMaterialData@CGrannyLODController@@QAEXPBDABUSMaterialData@@@Z:PROC ; CGrannyLODController::SetMaterialData
EXTRN	?SetSpecularInfo@CGrannyLODController@@QAEXPBDHM@Z:PROC ; CGrannyLODController::SetSpecularInfo
EXTRN	?RenderWithOneTexture@CGrannyLODController@@QAEXXZ:PROC ; CGrannyLODController::RenderWithOneTexture
EXTRN	?RenderWithTwoTexture@CGrannyLODController@@QAEXXZ:PROC ; CGrannyLODController::RenderWithTwoTexture
EXTRN	?BlendRenderWithOneTexture@CGrannyLODController@@QAEXXZ:PROC ; CGrannyLODController::BlendRenderWithOneTexture
EXTRN	?UpdateLODLevel@CGrannyLODController@@QAEXMM@Z:PROC ; CGrannyLODController::UpdateLODLevel
EXTRN	?UpdateTime@CGrannyLODController@@QAEXM@Z:PROC	; CGrannyLODController::UpdateTime
EXTRN	?Deform@CGrannyLODController@@QAEXPBUD3DXMATRIX@@@Z:PROC ; CGrannyLODController::Deform
EXTRN	?DeformNoSkin@CGrannyLODController@@QAEXPBUD3DXMATRIX@@@Z:PROC ; CGrannyLODController::DeformNoSkin
EXTRN	?DeformAll@CGrannyLODController@@QAEXPBUD3DXMATRIX@@@Z:PROC ; CGrannyLODController::DeformAll
EXTRN	?RenderToShadowMap@CGrannyLODController@@QAEXXZ:PROC ; CGrannyLODController::RenderToShadowMap
EXTRN	?RenderShadow@CGrannyLODController@@QAEXXZ:PROC	; CGrannyLODController::RenderShadow
EXTRN	?ReloadTexture@CGrannyLODController@@QAEXXZ:PROC ; CGrannyLODController::ReloadTexture
EXTRN	?GetBoundBox@CGrannyLODController@@QAEXPAUD3DXVECTOR3@@0@Z:PROC ; CGrannyLODController::GetBoundBox
EXTRN	?Intersect@CGrannyLODController@@QAE_NPBUD3DXMATRIX@@PAM11@Z:PROC ; CGrannyLODController::Intersect
EXTRN	?SetLocalTime@CGrannyLODController@@QAEXM@Z:PROC ; CGrannyLODController::SetLocalTime
EXTRN	?ResetLocalTime@CGrannyLODController@@QAEXXZ:PROC ; CGrannyLODController::ResetLocalTime
EXTRN	?SetMotionPointer@CGrannyLODController@@QAEXPBVCGrannyMotion@@MHM@Z:PROC ; CGrannyLODController::SetMotionPointer
EXTRN	?ChangeMotionPointer@CGrannyLODController@@QAEXPBVCGrannyMotion@@HM@Z:PROC ; CGrannyLODController::ChangeMotionPointer
EXTRN	?SetMotionAtEnd@CGrannyLODController@@QAEXXZ:PROC ; CGrannyLODController::SetMotionAtEnd
EXTRN	?isModelInstance@CGrannyLODController@@QAEHXZ:PROC ; CGrannyLODController::isModelInstance
EXTRN	?GetModelInstance@CGrannyLODController@@QAEPAVCGrannyModelInstance@@XZ:PROC ; CGrannyLODController::GetModelInstance
EXTRN	??_ECGraphicThingInstance@@UAEPAXI@Z:PROC	; CGraphicThingInstance::`vector deleting destructor'
EXTRN	??_E?$CDynamicPool@VCGraphicThingInstance@@@@UAEPAXI@Z:PROC ; CDynamicPool<CGraphicThingInstance>::`vector deleting destructor'
EXTRN	@__security_check_cookie@4:PROC
EXTRN	__CxxThrowException@8:PROC
EXTRN	___CxxFrameHandler3:PROC
EXTRN	??_7type_info@@6B@:QWORD			; type_info::`vftable'
EXTRN	___security_cookie:DWORD
EXTRN	__fltused:DWORD
;	COMDAT ?ms_singleton@?$CSingleton@VCCameraManager@@@@0PAVCCameraManager@@A
_BSS	SEGMENT
?ms_singleton@?$CSingleton@VCCameraManager@@@@0PAVCCameraManager@@A DD 01H DUP (?) ; CSingleton<CCameraManager>::ms_singleton
_BSS	ENDS
;	COMDAT ?ms_singleton@?$CSingleton@VCTimer@@@@0PAVCTimer@@A
_BSS	SEGMENT
?ms_singleton@?$CSingleton@VCTimer@@@@0PAVCTimer@@A DD 01H DUP (?) ; CSingleton<CTimer>::ms_singleton
_BSS	ENDS
_BSS	SEGMENT
?ms_kPool@CGraphicThingInstance@@2V?$CDynamicPool@VCGraphicThingInstance@@@@A DB 024H DUP (?) ; CGraphicThingInstance::ms_kPool
_BSS	ENDS
CRT$XCU	SEGMENT
??ms_kPool$initializer$@CGraphicThingInstance@@2P6AXXZA@@3P6AXXZA DD FLAT:??__E?ms_kPool@CGraphicThingInstance@@2V?$CDynamicPool@VCGraphicThingInstance@@@@A@@YAXXZ ; ??ms_kPool$initializer$@CGraphicThingInstance@@2P6AXXZA@@3P6AXXZA
CRT$XCU	ENDS
;	COMDAT __real@c7c35000
CONST	SEGMENT
__real@c7c35000 DD 0c7c35000r			; -100000
CONST	ENDS
;	COMDAT __real@bf800000
CONST	SEGMENT
__real@bf800000 DD 0bf800000r			; -1
CONST	ENDS
;	COMDAT __real@47c35000
CONST	SEGMENT
__real@47c35000 DD 047c35000r			; 100000
CONST	ENDS
;	COMDAT __real@42480000
CONST	SEGMENT
__real@42480000 DD 042480000r			; 50
CONST	ENDS
;	COMDAT __real@40800000
CONST	SEGMENT
__real@40800000 DD 040800000r			; 4
CONST	ENDS
;	COMDAT __real@3f800000
CONST	SEGMENT
__real@3f800000 DD 03f800000r			; 1
CONST	ENDS
;	COMDAT __real@3f000000
CONST	SEGMENT
__real@3f000000 DD 03f000000r			; 0.5
CONST	ENDS
;	COMDAT __real@3cf5c28f
CONST	SEGMENT
__real@3cf5c28f DD 03cf5c28fr			; 0.03
CONST	ENDS
;	COMDAT __real@00000000
CONST	SEGMENT
__real@00000000 DD 000000000r			; 0
CONST	ENDS
;	COMDAT ??_R1A@?0A@EA@?$CDynamicPool@VCGraphicThingInstance@@@@8
rdata$r	SEGMENT
??_R1A@?0A@EA@?$CDynamicPool@VCGraphicThingInstance@@@@8 DD FLAT:??_R0?AV?$CDynamicPool@VCGraphicThingInstance@@@@@8 ; CDynamicPool<CGraphicThingInstance>::`RTTI Base Class Descriptor at (0,-1,0,64)'
	DD	00H
	DD	00H
	DD	0ffffffffH
	DD	00H
	DD	040H
	DD	FLAT:??_R3?$CDynamicPool@VCGraphicThingInstance@@@@8
rdata$r	ENDS
;	COMDAT ??_R2?$CDynamicPool@VCGraphicThingInstance@@@@8
rdata$r	SEGMENT
??_R2?$CDynamicPool@VCGraphicThingInstance@@@@8 DD FLAT:??_R1A@?0A@EA@?$CDynamicPool@VCGraphicThingInstance@@@@8 ; CDynamicPool<CGraphicThingInstance>::`RTTI Base Class Array'
rdata$r	ENDS
;	COMDAT ??_R3?$CDynamicPool@VCGraphicThingInstance@@@@8
rdata$r	SEGMENT
??_R3?$CDynamicPool@VCGraphicThingInstance@@@@8 DD 00H	; CDynamicPool<CGraphicThingInstance>::`RTTI Class Hierarchy Descriptor'
	DD	00H
	DD	01H
	DD	FLAT:??_R2?$CDynamicPool@VCGraphicThingInstance@@@@8
rdata$r	ENDS
;	COMDAT ??_R0?AV?$CDynamicPool@VCGraphicThingInstance@@@@@8
data$rs	SEGMENT
??_R0?AV?$CDynamicPool@VCGraphicThingInstance@@@@@8 DD FLAT:??_7type_info@@6B@ ; CDynamicPool<CGraphicThingInstance> `RTTI Type Descriptor'
	DD	00H
	DB	'.?AV?$CDynamicPool@VCGraphicThingInstance@@@@', 00H
data$rs	ENDS
;	COMDAT ??_R4?$CDynamicPool@VCGraphicThingInstance@@@@6B@
rdata$r	SEGMENT
??_R4?$CDynamicPool@VCGraphicThingInstance@@@@6B@ DD 00H ; CDynamicPool<CGraphicThingInstance>::`RTTI Complete Object Locator'
	DD	00H
	DD	00H
	DD	FLAT:??_R0?AV?$CDynamicPool@VCGraphicThingInstance@@@@@8
	DD	FLAT:??_R3?$CDynamicPool@VCGraphicThingInstance@@@@8
rdata$r	ENDS
;	COMDAT ??_R2CGraphicBase@@8
rdata$r	SEGMENT
??_R2CGraphicBase@@8 DD FLAT:??_R1A@?0A@EA@CGraphicBase@@8 ; CGraphicBase::`RTTI Base Class Array'
rdata$r	ENDS
;	COMDAT ??_R3CGraphicBase@@8
rdata$r	SEGMENT
??_R3CGraphicBase@@8 DD 00H				; CGraphicBase::`RTTI Class Hierarchy Descriptor'
	DD	00H
	DD	01H
	DD	FLAT:??_R2CGraphicBase@@8
rdata$r	ENDS
;	COMDAT ??_R0?AVCGraphicBase@@@8
data$rs	SEGMENT
??_R0?AVCGraphicBase@@@8 DD FLAT:??_7type_info@@6B@	; CGraphicBase `RTTI Type Descriptor'
	DD	00H
	DB	'.?AVCGraphicBase@@', 00H
data$rs	ENDS
;	COMDAT ??_R1A@?0A@EA@CGraphicBase@@8
rdata$r	SEGMENT
??_R1A@?0A@EA@CGraphicBase@@8 DD FLAT:??_R0?AVCGraphicBase@@@8 ; CGraphicBase::`RTTI Base Class Descriptor at (0,-1,0,64)'
	DD	00H
	DD	00H
	DD	0ffffffffH
	DD	00H
	DD	040H
	DD	FLAT:??_R3CGraphicBase@@8
rdata$r	ENDS
;	COMDAT ??_R2CGraphicCollisionObject@@8
rdata$r	SEGMENT
??_R2CGraphicCollisionObject@@8 DD FLAT:??_R1A@?0A@EA@CGraphicCollisionObject@@8 ; CGraphicCollisionObject::`RTTI Base Class Array'
	DD	FLAT:??_R1A@?0A@EA@CGraphicBase@@8
rdata$r	ENDS
;	COMDAT ??_R3CGraphicCollisionObject@@8
rdata$r	SEGMENT
??_R3CGraphicCollisionObject@@8 DD 00H			; CGraphicCollisionObject::`RTTI Class Hierarchy Descriptor'
	DD	00H
	DD	02H
	DD	FLAT:??_R2CGraphicCollisionObject@@8
rdata$r	ENDS
;	COMDAT ??_R0?AVCGraphicCollisionObject@@@8
data$rs	SEGMENT
??_R0?AVCGraphicCollisionObject@@@8 DD FLAT:??_7type_info@@6B@ ; CGraphicCollisionObject `RTTI Type Descriptor'
	DD	00H
	DB	'.?AVCGraphicCollisionObject@@', 00H
data$rs	ENDS
;	COMDAT ??_R1A@?0A@EA@CGraphicCollisionObject@@8
rdata$r	SEGMENT
??_R1A@?0A@EA@CGraphicCollisionObject@@8 DD FLAT:??_R0?AVCGraphicCollisionObject@@@8 ; CGraphicCollisionObject::`RTTI Base Class Descriptor at (0,-1,0,64)'
	DD	01H
	DD	00H
	DD	0ffffffffH
	DD	00H
	DD	040H
	DD	FLAT:??_R3CGraphicCollisionObject@@8
rdata$r	ENDS
;	COMDAT ??_R2CGraphicObjectInstance@@8
rdata$r	SEGMENT
??_R2CGraphicObjectInstance@@8 DD FLAT:??_R1A@?0A@EA@CGraphicObjectInstance@@8 ; CGraphicObjectInstance::`RTTI Base Class Array'
	DD	FLAT:??_R1A@?0A@EA@CGraphicCollisionObject@@8
	DD	FLAT:??_R1A@?0A@EA@CGraphicBase@@8
rdata$r	ENDS
;	COMDAT ??_R3CGraphicObjectInstance@@8
rdata$r	SEGMENT
??_R3CGraphicObjectInstance@@8 DD 00H			; CGraphicObjectInstance::`RTTI Class Hierarchy Descriptor'
	DD	00H
	DD	03H
	DD	FLAT:??_R2CGraphicObjectInstance@@8
rdata$r	ENDS
;	COMDAT ??_R0?AVCGraphicObjectInstance@@@8
data$rs	SEGMENT
??_R0?AVCGraphicObjectInstance@@@8 DD FLAT:??_7type_info@@6B@ ; CGraphicObjectInstance `RTTI Type Descriptor'
	DD	00H
	DB	'.?AVCGraphicObjectInstance@@', 00H
data$rs	ENDS
;	COMDAT ??_R1A@?0A@EA@CGraphicObjectInstance@@8
rdata$r	SEGMENT
??_R1A@?0A@EA@CGraphicObjectInstance@@8 DD FLAT:??_R0?AVCGraphicObjectInstance@@@8 ; CGraphicObjectInstance::`RTTI Base Class Descriptor at (0,-1,0,64)'
	DD	02H
	DD	00H
	DD	0ffffffffH
	DD	00H
	DD	040H
	DD	FLAT:??_R3CGraphicObjectInstance@@8
rdata$r	ENDS
;	COMDAT ??_R1A@?0A@EA@CGraphicThingInstance@@8
rdata$r	SEGMENT
??_R1A@?0A@EA@CGraphicThingInstance@@8 DD FLAT:??_R0?AVCGraphicThingInstance@@@8 ; CGraphicThingInstance::`RTTI Base Class Descriptor at (0,-1,0,64)'
	DD	03H
	DD	00H
	DD	0ffffffffH
	DD	00H
	DD	040H
	DD	FLAT:??_R3CGraphicThingInstance@@8
rdata$r	ENDS
;	COMDAT ??_R2CGraphicThingInstance@@8
rdata$r	SEGMENT
??_R2CGraphicThingInstance@@8 DD FLAT:??_R1A@?0A@EA@CGraphicThingInstance@@8 ; CGraphicThingInstance::`RTTI Base Class Array'
	DD	FLAT:??_R1A@?0A@EA@CGraphicObjectInstance@@8
	DD	FLAT:??_R1A@?0A@EA@CGraphicCollisionObject@@8
	DD	FLAT:??_R1A@?0A@EA@CGraphicBase@@8
rdata$r	ENDS
;	COMDAT ??_R3CGraphicThingInstance@@8
rdata$r	SEGMENT
??_R3CGraphicThingInstance@@8 DD 00H			; CGraphicThingInstance::`RTTI Class Hierarchy Descriptor'
	DD	00H
	DD	04H
	DD	FLAT:??_R2CGraphicThingInstance@@8
rdata$r	ENDS
;	COMDAT ??_R0?AVCGraphicThingInstance@@@8
data$rs	SEGMENT
??_R0?AVCGraphicThingInstance@@@8 DD FLAT:??_7type_info@@6B@ ; CGraphicThingInstance `RTTI Type Descriptor'
	DD	00H
	DB	'.?AVCGraphicThingInstance@@', 00H
data$rs	ENDS
;	COMDAT ??_R4CGraphicThingInstance@@6B@
rdata$r	SEGMENT
??_R4CGraphicThingInstance@@6B@ DD 00H			; CGraphicThingInstance::`RTTI Complete Object Locator'
	DD	00H
	DD	00H
	DD	FLAT:??_R0?AVCGraphicThingInstance@@@8
	DD	FLAT:??_R3CGraphicThingInstance@@8
rdata$r	ENDS
;	COMDAT ??_R1A@?0A@EA@bad_array_new_length@std@@8
rdata$r	SEGMENT
??_R1A@?0A@EA@bad_array_new_length@std@@8 DD FLAT:??_R0?AVbad_array_new_length@std@@@8 ; std::bad_array_new_length::`RTTI Base Class Descriptor at (0,-1,0,64)'
	DD	02H
	DD	00H
	DD	0ffffffffH
	DD	00H
	DD	040H
	DD	FLAT:??_R3bad_array_new_length@std@@8
rdata$r	ENDS
;	COMDAT ??_R2bad_array_new_length@std@@8
rdata$r	SEGMENT
??_R2bad_array_new_length@std@@8 DD FLAT:??_R1A@?0A@EA@bad_array_new_length@std@@8 ; std::bad_array_new_length::`RTTI Base Class Array'
	DD	FLAT:??_R1A@?0A@EA@bad_alloc@std@@8
	DD	FLAT:??_R1A@?0A@EA@exception@std@@8
rdata$r	ENDS
;	COMDAT ??_R3bad_array_new_length@std@@8
rdata$r	SEGMENT
??_R3bad_array_new_length@std@@8 DD 00H			; std::bad_array_new_length::`RTTI Class Hierarchy Descriptor'
	DD	00H
	DD	03H
	DD	FLAT:??_R2bad_array_new_length@std@@8
rdata$r	ENDS
;	COMDAT ??_R4bad_array_new_length@std@@6B@
rdata$r	SEGMENT
??_R4bad_array_new_length@std@@6B@ DD 00H		; std::bad_array_new_length::`RTTI Complete Object Locator'
	DD	00H
	DD	00H
	DD	FLAT:??_R0?AVbad_array_new_length@std@@@8
	DD	FLAT:??_R3bad_array_new_length@std@@8
rdata$r	ENDS
;	COMDAT ??_R1A@?0A@EA@bad_alloc@std@@8
rdata$r	SEGMENT
??_R1A@?0A@EA@bad_alloc@std@@8 DD FLAT:??_R0?AVbad_alloc@std@@@8 ; std::bad_alloc::`RTTI Base Class Descriptor at (0,-1,0,64)'
	DD	01H
	DD	00H
	DD	0ffffffffH
	DD	00H
	DD	040H
	DD	FLAT:??_R3bad_alloc@std@@8
rdata$r	ENDS
;	COMDAT ??_R2bad_alloc@std@@8
rdata$r	SEGMENT
??_R2bad_alloc@std@@8 DD FLAT:??_R1A@?0A@EA@bad_alloc@std@@8 ; std::bad_alloc::`RTTI Base Class Array'
	DD	FLAT:??_R1A@?0A@EA@exception@std@@8
rdata$r	ENDS
;	COMDAT ??_R3bad_alloc@std@@8
rdata$r	SEGMENT
??_R3bad_alloc@std@@8 DD 00H				; std::bad_alloc::`RTTI Class Hierarchy Descriptor'
	DD	00H
	DD	02H
	DD	FLAT:??_R2bad_alloc@std@@8
rdata$r	ENDS
;	COMDAT ??_R4bad_alloc@std@@6B@
rdata$r	SEGMENT
??_R4bad_alloc@std@@6B@ DD 00H				; std::bad_alloc::`RTTI Complete Object Locator'
	DD	00H
	DD	00H
	DD	FLAT:??_R0?AVbad_alloc@std@@@8
	DD	FLAT:??_R3bad_alloc@std@@8
rdata$r	ENDS
;	COMDAT ??_R1A@?0A@EA@exception@std@@8
rdata$r	SEGMENT
??_R1A@?0A@EA@exception@std@@8 DD FLAT:??_R0?AVexception@std@@@8 ; std::exception::`RTTI Base Class Descriptor at (0,-1,0,64)'
	DD	00H
	DD	00H
	DD	0ffffffffH
	DD	00H
	DD	040H
	DD	FLAT:??_R3exception@std@@8
rdata$r	ENDS
;	COMDAT ??_R2exception@std@@8
rdata$r	SEGMENT
??_R2exception@std@@8 DD FLAT:??_R1A@?0A@EA@exception@std@@8 ; std::exception::`RTTI Base Class Array'
rdata$r	ENDS
;	COMDAT ??_R3exception@std@@8
rdata$r	SEGMENT
??_R3exception@std@@8 DD 00H				; std::exception::`RTTI Class Hierarchy Descriptor'
	DD	00H
	DD	01H
	DD	FLAT:??_R2exception@std@@8
rdata$r	ENDS
;	COMDAT ??_R4exception@std@@6B@
rdata$r	SEGMENT
??_R4exception@std@@6B@ DD 00H				; std::exception::`RTTI Complete Object Locator'
	DD	00H
	DD	00H
	DD	FLAT:??_R0?AVexception@std@@@8
	DD	FLAT:??_R3exception@std@@8
rdata$r	ENDS
;	COMDAT ??_C@_0BA@FOIKENOD@vector?5too?5long@
CONST	SEGMENT
??_C@_0BA@FOIKENOD@vector?5too?5long@ DB 'vector too long', 00H ; `string'
CONST	ENDS
;	COMDAT ??_C@_0ED@LMOOEEKB@CGraphicThingInstance?3?3UpdateLO@
CONST	SEGMENT
??_C@_0ED@LMOOEEKB@CGraphicThingInstance?3?3UpdateLO@ DB 'CGraphicThingIn'
	DB	'stance::UpdateLODLevel - GetCurrentCamera() == NULL', 00H ; `string'
CONST	ENDS
;	COMDAT ??_C@_0EL@BCFDDCFO@CGraphicThingInstance?3?3Register@
CONST	SEGMENT
??_C@_0EL@BCFDDCFO@CGraphicThingInstance?3?3Register@ DB 'CGraphicThingIn'
	DB	'stance::RegisterModelThing(iModelThing=%d, pModelThing=%s)', 0aH
	DB	00H						; `string'
CONST	ENDS
;	COMDAT ??_C@_0EH@ILOLFLHJ@CGraphicThingInstance?3?3SetSpecu@
CONST	SEGMENT
??_C@_0EH@ILOLFLHJ@CGraphicThingInstance?3?3SetSpecu@ DB 'CGraphicThingIn'
	DB	'stance::SetSpecularInfo(ePart(%d)) - ePart Data is NULL', 00H ; `string'
CONST	ENDS
;	COMDAT ??_C@_0FG@IDFCAGB@CGraphicThingInstance?3?3SetSpecu@
CONST	SEGMENT
??_C@_0FG@IDFCAGB@CGraphicThingInstance?3?3SetSpecu@ DB 'CGraphicThingIns'
	DB	'tance::SetSpecularInfo(ePart(%d)<uPartCount(%d)) - ePart OUT '
	DB	'OF RANGE', 00H				; `string'
CONST	ENDS
;	COMDAT ??_C@_0EH@ILONCBFP@CGraphicThingInstance?3?3SetMater@
CONST	SEGMENT
??_C@_0EH@ILONCBFP@CGraphicThingInstance?3?3SetMater@ DB 'CGraphicThingIn'
	DB	'stance::SetMaterialData(ePart(%d)) - ePart Data is NULL', 00H ; `string'
CONST	ENDS
;	COMDAT ??_C@_0FG@DKLHHMAO@CGraphicThingInstance?3?3SetMater@
CONST	SEGMENT
??_C@_0FG@DKLHHMAO@CGraphicThingInstance?3?3SetMater@ DB 'CGraphicThingIn'
	DB	'stance::SetMaterialData(ePart(%d)<uPartCount(%d)) - ePart OUT'
	DB	' OF RANGE', 00H				; `string'
CONST	ENDS
;	COMDAT ??_C@_0GM@CIGLBIHL@CGraphicThingInstance?3?3SetMater@
CONST	SEGMENT
??_C@_0GM@CIGLBIHL@CGraphicThingInstance?3?3SetMater@ DB 'CGraphicThingIn'
	DB	'stance::SetMaterialImagePointer(ePart(%d), c_szImageName=%s, '
	DB	'pImage=%s) - ePart Data is NULL', 00H	; `string'
CONST	ENDS
;	COMDAT ??_C@_0HL@PNAAKLOK@CGraphicThingInstance?3?3SetMater@
CONST	SEGMENT
??_C@_0HL@PNAAKLOK@CGraphicThingInstance?3?3SetMater@ DB 'CGraphicThingIn'
	DB	'stance::SetMaterialImagePointer(ePart(%d)<uPartCount(%d), c_s'
	DB	'zImageName=%s, pImage=%s) - ePart OUT OF RANGE', 00H ; `string'
CONST	ENDS
;	COMDAT ??_C@_0IG@CNBHAOPI@CGraphicThingInstance?3?3SetModel@
CONST	SEGMENT
??_C@_0IG@CNBHAOPI@CGraphicThingInstance?3?3SetModel@ DB 'CGraphicThingIn'
	DB	'stance::SetModelInstanceByOtherSkeletonInstance(iSkelInstance'
	DB	'=%d, iDstModelInstance=%d, pModelThing=%d, iSrcModel=%d)', 0aH
	DB	00H						; `string'
CONST	ENDS
;	COMDAT ??_C@_0FN@FDKPIIBK@CGraphicThingInstance?3?3SetModel@
CONST	SEGMENT
??_C@_0FN@FDKPIIBK@CGraphicThingInstance?3?3SetModel@ DB 'CGraphicThingIn'
	DB	'stance::SetModelInstance(iDstModelInstance=%d, pModelThing=%d'
	DB	', iSrcModel=%d)', 0aH, 00H			; `string'
CONST	ENDS
;	COMDAT ??_C@_0FH@FOLHJMIP@CGraphicThingInstance?3?3AttachMo@
CONST	SEGMENT
??_C@_0FH@FOLHJMIP@CGraphicThingInstance?3?3AttachMo@ DB 'CGraphicThingIn'
	DB	'stance::AttachModelInstance(iDstModelInstance=%d, iSrcModelIn'
	DB	'stance=%d)', 00H				; `string'
CONST	ENDS
;	COMDAT ??_C@_0GI@OAKDPIDM@CGraphicThingInstance?3?3AttachMo@
CONST	SEGMENT
??_C@_0GI@OAKDPIDM@CGraphicThingInstance?3?3AttachMo@ DB 'CGraphicThingIn'
	DB	'stance::AttachModelInstance(iDstModelInstance=%d, c_szBoneNam'
	DB	'e=%s, iSrcModelInstance=%d)', 00H		; `string'
CONST	ENDS
;	COMDAT ??_7?$CDynamicPool@VCGraphicThingInstance@@@@6B@
CONST	SEGMENT
??_7?$CDynamicPool@VCGraphicThingInstance@@@@6B@ DD FLAT:??_R4?$CDynamicPool@VCGraphicThingInstance@@@@6B@ ; CDynamicPool<CGraphicThingInstance>::`vftable'
	DD	FLAT:??_E?$CDynamicPool@VCGraphicThingInstance@@@@UAEPAXI@Z
CONST	ENDS
;	COMDAT ??_7CGraphicThingInstance@@6B@
CONST	SEGMENT
??_7CGraphicThingInstance@@6B@ DD FLAT:??_R4CGraphicThingInstance@@6B@ ; CGraphicThingInstance::`vftable'
	DD	FLAT:??_ECGraphicThingInstance@@UAEPAXI@Z
	DD	FLAT:?GetType@CGraphicThingInstance@@UBEHXZ
	DD	FLAT:?OnInitialize@CGraphicThingInstance@@UAEXXZ
	DD	FLAT:?GetBoundingSphere@CGraphicThingInstance@@UAE_NAAUD3DXVECTOR3@@AAM@Z
	DD	FLAT:?OnRender@CGraphicThingInstance@@MAEXXZ
	DD	FLAT:?OnBlendRender@CGraphicThingInstance@@MAEXXZ
	DD	FLAT:?OnRenderToShadowMap@CGraphicThingInstance@@MAEXXZ
	DD	FLAT:?OnRenderShadow@CGraphicThingInstance@@MAEXXZ
	DD	FLAT:?OnRenderPCBlocker@CGraphicThingInstance@@MAEXXZ
	DD	FLAT:?OnClear@CGraphicThingInstance@@MAEXXZ
	DD	FLAT:?OnUpdate@CGraphicThingInstance@@MAEXXZ
	DD	FLAT:?OnDeform@CGraphicThingInstance@@MAEXXZ
	DD	FLAT:?OnUpdateCollisionData@CGraphicThingInstance@@MAEXPBV?$vector@VCStaticCollisionData@@V?$allocator@VCStaticCollisionData@@@std@@@std@@@Z
	DD	FLAT:?OnUpdateHeighInstance@CGraphicThingInstance@@MAEXPAVCAttributeInstance@@@Z
	DD	FLAT:?OnGetObjectHeight@CGraphicThingInstance@@MAE_NMMPAM@Z
	DD	FLAT:?CalculateBBox@CGraphicThingInstance@@UAEXXZ
	DD	FLAT:?GetBoundingAABB@CGraphicThingInstance@@UAE_NAAUD3DXVECTOR3@@0@Z
CONST	ENDS
;	COMDAT ??_C@_0BB@GCADKGJO@map?1set?5too?5long@
CONST	SEGMENT
??_C@_0BB@GCADKGJO@map?1set?5too?5long@ DB 'map/set too long', 00H ; `string'
CONST	ENDS
;	COMDAT __CT??_R0?AVexception@std@@@8??0exception@std@@QAE@ABV01@@Z12
xdata$x	SEGMENT
__CT??_R0?AVexception@std@@@8??0exception@std@@QAE@ABV01@@Z12 DD 00H
	DD	FLAT:??_R0?AVexception@std@@@8
	DD	00H
	DD	0ffffffffH
	ORG $+4
	DD	0cH
	DD	FLAT:??0exception@std@@QAE@ABV01@@Z
xdata$x	ENDS
;	COMDAT ??_R0?AVexception@std@@@8
data$r	SEGMENT
??_R0?AVexception@std@@@8 DD FLAT:??_7type_info@@6B@	; std::exception `RTTI Type Descriptor'
	DD	00H
	DB	'.?AVexception@std@@', 00H
data$r	ENDS
;	COMDAT __CT??_R0?AVbad_alloc@std@@@8??0bad_alloc@std@@QAE@ABV01@@Z12
xdata$x	SEGMENT
__CT??_R0?AVbad_alloc@std@@@8??0bad_alloc@std@@QAE@ABV01@@Z12 DD 010H
	DD	FLAT:??_R0?AVbad_alloc@std@@@8
	DD	00H
	DD	0ffffffffH
	ORG $+4
	DD	0cH
	DD	FLAT:??0bad_alloc@std@@QAE@ABV01@@Z
xdata$x	ENDS
;	COMDAT ??_R0?AVbad_alloc@std@@@8
data$r	SEGMENT
??_R0?AVbad_alloc@std@@@8 DD FLAT:??_7type_info@@6B@	; std::bad_alloc `RTTI Type Descriptor'
	DD	00H
	DB	'.?AVbad_alloc@std@@', 00H
data$r	ENDS
;	COMDAT __CT??_R0?AVbad_array_new_length@std@@@8??0bad_array_new_length@std@@QAE@ABV01@@Z12
xdata$x	SEGMENT
__CT??_R0?AVbad_array_new_length@std@@@8??0bad_array_new_length@std@@QAE@ABV01@@Z12 DD 00H
	DD	FLAT:??_R0?AVbad_array_new_length@std@@@8
	DD	00H
	DD	0ffffffffH
	ORG $+4
	DD	0cH
	DD	FLAT:??0bad_array_new_length@std@@QAE@ABV01@@Z
xdata$x	ENDS
;	COMDAT ??_R0?AVbad_array_new_length@std@@@8
data$r	SEGMENT
??_R0?AVbad_array_new_length@std@@@8 DD FLAT:??_7type_info@@6B@ ; std::bad_array_new_length `RTTI Type Descriptor'
	DD	00H
	DB	'.?AVbad_array_new_length@std@@', 00H
data$r	ENDS
;	COMDAT __CTA3?AVbad_array_new_length@std@@
xdata$x	SEGMENT
__CTA3?AVbad_array_new_length@std@@ DD 03H
	DD	FLAT:__CT??_R0?AVbad_array_new_length@std@@@8??0bad_array_new_length@std@@QAE@ABV01@@Z12
	DD	FLAT:__CT??_R0?AVbad_alloc@std@@@8??0bad_alloc@std@@QAE@ABV01@@Z12
	DD	FLAT:__CT??_R0?AVexception@std@@@8??0exception@std@@QAE@ABV01@@Z12
xdata$x	ENDS
;	COMDAT __TI3?AVbad_array_new_length@std@@
xdata$x	SEGMENT
__TI3?AVbad_array_new_length@std@@ DD 00H
	DD	FLAT:??1bad_array_new_length@std@@UAE@XZ
	DD	00H
	DD	FLAT:__CTA3?AVbad_array_new_length@std@@
xdata$x	ENDS
;	COMDAT ??_C@_0BF@KINCDENJ@bad?5array?5new?5length@
CONST	SEGMENT
??_C@_0BF@KINCDENJ@bad?5array?5new?5length@ DB 'bad array new length', 00H ; `string'
CONST	ENDS
;	COMDAT ??_7bad_array_new_length@std@@6B@
CONST	SEGMENT
??_7bad_array_new_length@std@@6B@ DD FLAT:??_R4bad_array_new_length@std@@6B@ ; std::bad_array_new_length::`vftable'
	DD	FLAT:??_Ebad_array_new_length@std@@UAEPAXI@Z
	DD	FLAT:?what@exception@std@@UBEPBDXZ
CONST	ENDS
;	COMDAT ??_7bad_alloc@std@@6B@
CONST	SEGMENT
??_7bad_alloc@std@@6B@ DD FLAT:??_R4bad_alloc@std@@6B@	; std::bad_alloc::`vftable'
	DD	FLAT:??_Ebad_alloc@std@@UAEPAXI@Z
	DD	FLAT:?what@exception@std@@UBEPBDXZ
CONST	ENDS
;	COMDAT ??_C@_0BC@EOODALEL@Unknown?5exception@
CONST	SEGMENT
??_C@_0BC@EOODALEL@Unknown?5exception@ DB 'Unknown exception', 00H ; `string'
CONST	ENDS
;	COMDAT ??_7exception@std@@6B@
CONST	SEGMENT
??_7exception@std@@6B@ DD FLAT:??_R4exception@std@@6B@	; std::exception::`vftable'
	DD	FLAT:??_Eexception@std@@UAEPAXI@Z
	DD	FLAT:?what@exception@std@@UBEPBDXZ
CONST	ENDS
;	COMDAT xdata$x
xdata$x	SEGMENT
__unwindtable$??$_Uninitialized_move@PAUSModelThingSet@CGraphicThingInstance@@V?$allocator@USModelThingSet@CGraphicThingInstance@@@std@@@std@@YAPAUSModelThingSet@CGraphicThingInstance@@QAU12@0PAU12@AAV?$allocator@USModelThingSet@CGraphicThingInstance@@@0@@Z DD 0ffffffffH
	DD	FLAT:__unwindfunclet$??$_Uninitialized_move@PAUSModelThingSet@CGraphicThingInstance@@V?$allocator@USModelThingSet@CGraphicThingInstance@@@std@@@std@@YAPAUSModelThingSet@CGraphicThingInstance@@QAU12@0PAU12@AAV?$allocator@USModelThingSet@CGraphicThingInstance@@@0@@Z$0
__ehfuncinfo$??$_Uninitialized_move@PAUSModelThingSet@CGraphicThingInstance@@V?$allocator@USModelThingSet@CGraphicThingInstance@@@std@@@std@@YAPAUSModelThingSet@CGraphicThingInstance@@QAU12@0PAU12@AAV?$allocator@USModelThingSet@CGraphicThingInstance@@@0@@Z DD 019930522H
	DD	01H
	DD	FLAT:__unwindtable$??$_Uninitialized_move@PAUSModelThingSet@CGraphicThingInstance@@V?$allocator@USModelThingSet@CGraphicThingInstance@@@std@@@std@@YAPAUSModelThingSet@CGraphicThingInstance@@QAU12@0PAU12@AAV?$allocator@USModelThingSet@CGraphicThingInstance@@@0@@Z
	DD	2 DUP(00H)
	DD	2 DUP(00H)
	DD	00H
	DD	01H
xdata$x	ENDS
;	COMDAT xdata$x
xdata$x	SEGMENT
__unwindtable$??$?0U?$pair@$$CBKPAV?$CRef@VCGraphicThing@@@@@std@@@?$_Tree_temp_node@V?$allocator@U?$_Tree_node@U?$pair@$$CBKPAV?$CRef@VCGraphicThing@@@@@std@@PAX@std@@@std@@@std@@QAE@AAV?$allocator@U?$_Tree_node@U?$pair@$$CBKPAV?$CRef@VCGraphicThing@@@@@std@@PAX@std@@@1@PAU?$_Tree_node@U?$pair@$$CBKPAV?$CRef@VCGraphicThing@@@@@std@@PAX@1@$$QAU?$pair@$$CBKPAV?$CRef@VCGraphicThing@@@@@1@@Z DD 0ffffffffH
	DD	FLAT:__unwindfunclet$??$?0U?$pair@$$CBKPAV?$CRef@VCGraphicThing@@@@@std@@@?$_Tree_temp_node@V?$allocator@U?$_Tree_node@U?$pair@$$CBKPAV?$CRef@VCGraphicThing@@@@@std@@PAX@std@@@std@@@std@@QAE@AAV?$allocator@U?$_Tree_node@U?$pair@$$CBKPAV?$CRef@VCGraphicThing@@@@@std@@PAX@std@@@1@PAU?$_Tree_node@U?$pair@$$CBKPAV?$CRef@VCGraphicThing@@@@@std@@PAX@1@$$QAU?$pair@$$CBKPAV?$CRef@VCGraphicThing@@@@@1@@Z$1
__ehfuncinfo$??$?0U?$pair@$$CBKPAV?$CRef@VCGraphicThing@@@@@std@@@?$_Tree_temp_node@V?$allocator@U?$_Tree_node@U?$pair@$$CBKPAV?$CRef@VCGraphicThing@@@@@std@@PAX@std@@@std@@@std@@QAE@AAV?$allocator@U?$_Tree_node@U?$pair@$$CBKPAV?$CRef@VCGraphicThing@@@@@std@@PAX@std@@@1@PAU?$_Tree_node@U?$pair@$$CBKPAV?$CRef@VCGraphicThing@@@@@std@@PAX@1@$$QAU?$pair@$$CBKPAV?$CRef@VCGraphicThing@@@@@1@@Z DD 019930522H
	DD	01H
	DD	FLAT:__unwindtable$??$?0U?$pair@$$CBKPAV?$CRef@VCGraphicThing@@@@@std@@@?$_Tree_temp_node@V?$allocator@U?$_Tree_node@U?$pair@$$CBKPAV?$CRef@VCGraphicThing@@@@@std@@PAX@std@@@std@@@std@@QAE@AAV?$allocator@U?$_Tree_node@U?$pair@$$CBKPAV?$CRef@VCGraphicThing@@@@@std@@PAX@std@@@1@PAU?$_Tree_node@U?$pair@$$CBKPAV?$CRef@VCGraphicThing@@@@@std@@PAX@1@$$QAU?$pair@$$CBKPAV?$CRef@VCGraphicThing@@@@@1@@Z
	DD	2 DUP(00H)
	DD	2 DUP(00H)
	DD	00H
	DD	01H
xdata$x	ENDS
;	COMDAT xdata$x
xdata$x	SEGMENT
__unwindtable$??$_Uninitialized_value_construct_n@V?$allocator@USModelThingSet@CGraphicThingInstance@@@std@@@std@@YAPAUSModelThingSet@CGraphicThingInstance@@PAU12@IAAV?$allocator@USModelThingSet@CGraphicThingInstance@@@0@@Z DD 0ffffffffH
	DD	FLAT:__unwindfunclet$??$_Uninitialized_value_construct_n@V?$allocator@USModelThingSet@CGraphicThingInstance@@@std@@@std@@YAPAUSModelThingSet@CGraphicThingInstance@@PAU12@IAAV?$allocator@USModelThingSet@CGraphicThingInstance@@@0@@Z$0
__ehfuncinfo$??$_Uninitialized_value_construct_n@V?$allocator@USModelThingSet@CGraphicThingInstance@@@std@@@std@@YAPAUSModelThingSet@CGraphicThingInstance@@PAU12@IAAV?$allocator@USModelThingSet@CGraphicThingInstance@@@0@@Z DD 019930522H
	DD	01H
	DD	FLAT:__unwindtable$??$_Uninitialized_value_construct_n@V?$allocator@USModelThingSet@CGraphicThingInstance@@@std@@@std@@YAPAUSModelThingSet@CGraphicThingInstance@@PAU12@IAAV?$allocator@USModelThingSet@CGraphicThingInstance@@@0@@Z
	DD	2 DUP(00H)
	DD	2 DUP(00H)
	DD	00H
	DD	01H
xdata$x	ENDS
;	COMDAT xdata$x
xdata$x	SEGMENT
__catchsym$??$_Resize_reallocate@U_Value_init_tag@std@@@?$vector@USModelThingSet@CGraphicThingInstance@@V?$allocator@USModelThingSet@CGraphicThingInstance@@@std@@@std@@AAEXIABU_Value_init_tag@1@@Z$26 DD 040H
	DD	00H
	DD	00H
	DD	FLAT:__catch$??$_Resize_reallocate@U_Value_init_tag@std@@@?$vector@USModelThingSet@CGraphicThingInstance@@V?$allocator@USModelThingSet@CGraphicThingInstance@@@std@@@std@@AAEXIABU_Value_init_tag@1@@Z$0
__unwindtable$??$_Resize_reallocate@U_Value_init_tag@std@@@?$vector@USModelThingSet@CGraphicThingInstance@@V?$allocator@USModelThingSet@CGraphicThingInstance@@@std@@@std@@AAEXIABU_Value_init_tag@1@@Z DD 0ffffffffH
	DD	00H
	DD	0ffffffffH
	DD	00H
__tryblocktable$??$_Resize_reallocate@U_Value_init_tag@std@@@?$vector@USModelThingSet@CGraphicThingInstance@@V?$allocator@USModelThingSet@CGraphicThingInstance@@@std@@@std@@AAEXIABU_Value_init_tag@1@@Z DD 00H
	DD	00H
	DD	01H
	DD	01H
	DD	FLAT:__catchsym$??$_Resize_reallocate@U_Value_init_tag@std@@@?$vector@USModelThingSet@CGraphicThingInstance@@V?$allocator@USModelThingSet@CGraphicThingInstance@@@std@@@std@@AAEXIABU_Value_init_tag@1@@Z$26
__ehfuncinfo$??$_Resize_reallocate@U_Value_init_tag@std@@@?$vector@USModelThingSet@CGraphicThingInstance@@V?$allocator@USModelThingSet@CGraphicThingInstance@@@std@@@std@@AAEXIABU_Value_init_tag@1@@Z DD 019930522H
	DD	02H
	DD	FLAT:__unwindtable$??$_Resize_reallocate@U_Value_init_tag@std@@@?$vector@USModelThingSet@CGraphicThingInstance@@V?$allocator@USModelThingSet@CGraphicThingInstance@@@std@@@std@@AAEXIABU_Value_init_tag@1@@Z
	DD	01H
	DD	FLAT:__tryblocktable$??$_Resize_reallocate@U_Value_init_tag@std@@@?$vector@USModelThingSet@CGraphicThingInstance@@V?$allocator@USModelThingSet@CGraphicThingInstance@@@std@@@std@@AAEXIABU_Value_init_tag@1@@Z
	DD	2 DUP(00H)
	DD	00H
	DD	01H
xdata$x	ENDS
;	COMDAT xdata$x
xdata$x	SEGMENT
__unwindtable$??$?0ABUpiecewise_construct_t@std@@V?$tuple@ABK@1@V?$tuple@$$V@1@@?$_Tree_temp_node@V?$allocator@U?$_Tree_node@U?$pair@$$CBKPAV?$CRef@VCGraphicThing@@@@@std@@PAX@std@@@std@@@std@@QAE@AAV?$allocator@U?$_Tree_node@U?$pair@$$CBKPAV?$CRef@VCGraphicThing@@@@@std@@PAX@std@@@1@PAU?$_Tree_node@U?$pair@$$CBKPAV?$CRef@VCGraphicThing@@@@@std@@PAX@1@ABUpiecewise_construct_t@1@$$QAV?$tuple@ABK@1@$$QAV?$tuple@$$V@1@@Z DD 0ffffffffH
	DD	FLAT:__unwindfunclet$??$?0ABUpiecewise_construct_t@std@@V?$tuple@ABK@1@V?$tuple@$$V@1@@?$_Tree_temp_node@V?$allocator@U?$_Tree_node@U?$pair@$$CBKPAV?$CRef@VCGraphicThing@@@@@std@@PAX@std@@@std@@@std@@QAE@AAV?$allocator@U?$_Tree_node@U?$pair@$$CBKPAV?$CRef@VCGraphicThing@@@@@std@@PAX@std@@@1@PAU?$_Tree_node@U?$pair@$$CBKPAV?$CRef@VCGraphicThing@@@@@std@@PAX@1@ABUpiecewise_construct_t@1@$$QAV?$tuple@ABK@1@$$QAV?$tuple@$$V@1@@Z$1
	DD	0ffffffffH
	DD	FLAT:__unwindfunclet$??$?0ABUpiecewise_construct_t@std@@V?$tuple@ABK@1@V?$tuple@$$V@1@@?$_Tree_temp_node@V?$allocator@U?$_Tree_node@U?$pair@$$CBKPAV?$CRef@VCGraphicThing@@@@@std@@PAX@std@@@std@@@std@@QAE@AAV?$allocator@U?$_Tree_node@U?$pair@$$CBKPAV?$CRef@VCGraphicThing@@@@@std@@PAX@std@@@1@PAU?$_Tree_node@U?$pair@$$CBKPAV?$CRef@VCGraphicThing@@@@@std@@PAX@1@ABUpiecewise_construct_t@1@$$QAV?$tuple@ABK@1@$$QAV?$tuple@$$V@1@@Z$0
__ehfuncinfo$??$?0ABUpiecewise_construct_t@std@@V?$tuple@ABK@1@V?$tuple@$$V@1@@?$_Tree_temp_node@V?$allocator@U?$_Tree_node@U?$pair@$$CBKPAV?$CRef@VCGraphicThing@@@@@std@@PAX@std@@@std@@@std@@QAE@AAV?$allocator@U?$_Tree_node@U?$pair@$$CBKPAV?$CRef@VCGraphicThing@@@@@std@@PAX@std@@@1@PAU?$_Tree_node@U?$pair@$$CBKPAV?$CRef@VCGraphicThing@@@@@std@@PAX@1@ABUpiecewise_construct_t@1@$$QAV?$tuple@ABK@1@$$QAV?$tuple@$$V@1@@Z DD 019930522H
	DD	02H
	DD	FLAT:__unwindtable$??$?0ABUpiecewise_construct_t@std@@V?$tuple@ABK@1@V?$tuple@$$V@1@@?$_Tree_temp_node@V?$allocator@U?$_Tree_node@U?$pair@$$CBKPAV?$CRef@VCGraphicThing@@@@@std@@PAX@std@@@std@@@std@@QAE@AAV?$allocator@U?$_Tree_node@U?$pair@$$CBKPAV?$CRef@VCGraphicThing@@@@@std@@PAX@std@@@1@PAU?$_Tree_node@U?$pair@$$CBKPAV?$CRef@VCGraphicThing@@@@@std@@PAX@1@ABUpiecewise_construct_t@1@$$QAV?$tuple@ABK@1@$$QAV?$tuple@$$V@1@@Z
	DD	2 DUP(00H)
	DD	2 DUP(00H)
	DD	00H
	DD	01H
xdata$x	ENDS
;	COMDAT xdata$x
xdata$x	SEGMENT
__ehfuncinfo$??$_Deallocate@$07$0A@@std@@YAXPAXI@Z DD 019930522H
	DD	00H
	DD	00H
	DD	2 DUP(00H)
	DD	2 DUP(00H)
	DD	00H
	DD	05H
xdata$x	ENDS
;	COMDAT xdata$x
xdata$x	SEGMENT
__catchsym$??$_Emplace_reallocate@ABQAVCGraphicThingInstance@@@?$vector@PAVCGraphicThingInstance@@V?$allocator@PAVCGraphicThingInstance@@@std@@@std@@QAEPAPAVCGraphicThingInstance@@QAPAV2@ABQAV2@@Z$32 DD 040H
	DD	00H
	DD	00H
	DD	FLAT:__catch$??$_Emplace_reallocate@ABQAVCGraphicThingInstance@@@?$vector@PAVCGraphicThingInstance@@V?$allocator@PAVCGraphicThingInstance@@@std@@@std@@QAEPAPAVCGraphicThingInstance@@QAPAV2@ABQAV2@@Z$0
__unwindtable$??$_Emplace_reallocate@ABQAVCGraphicThingInstance@@@?$vector@PAVCGraphicThingInstance@@V?$allocator@PAVCGraphicThingInstance@@@std@@@std@@QAEPAPAVCGraphicThingInstance@@QAPAV2@ABQAV2@@Z DD 0ffffffffH
	DD	00H
	DD	0ffffffffH
	DD	00H
__tryblocktable$??$_Emplace_reallocate@ABQAVCGraphicThingInstance@@@?$vector@PAVCGraphicThingInstance@@V?$allocator@PAVCGraphicThingInstance@@@std@@@std@@QAEPAPAVCGraphicThingInstance@@QAPAV2@ABQAV2@@Z DD 00H
	DD	00H
	DD	01H
	DD	01H
	DD	FLAT:__catchsym$??$_Emplace_reallocate@ABQAVCGraphicThingInstance@@@?$vector@PAVCGraphicThingInstance@@V?$allocator@PAVCGraphicThingInstance@@@std@@@std@@QAEPAPAVCGraphicThingInstance@@QAPAV2@ABQAV2@@Z$32
__ehfuncinfo$??$_Emplace_reallocate@ABQAVCGraphicThingInstance@@@?$vector@PAVCGraphicThingInstance@@V?$allocator@PAVCGraphicThingInstance@@@std@@@std@@QAEPAPAVCGraphicThingInstance@@QAPAV2@ABQAV2@@Z DD 019930522H
	DD	02H
	DD	FLAT:__unwindtable$??$_Emplace_reallocate@ABQAVCGraphicThingInstance@@@?$vector@PAVCGraphicThingInstance@@V?$allocator@PAVCGraphicThingInstance@@@std@@@std@@QAEPAPAVCGraphicThingInstance@@QAPAV2@ABQAV2@@Z
	DD	01H
	DD	FLAT:__tryblocktable$??$_Emplace_reallocate@ABQAVCGraphicThingInstance@@@?$vector@PAVCGraphicThingInstance@@V?$allocator@PAVCGraphicThingInstance@@@std@@@std@@QAEPAPAVCGraphicThingInstance@@QAPAV2@ABQAV2@@Z
	DD	2 DUP(00H)
	DD	00H
	DD	01H
xdata$x	ENDS
;	COMDAT xdata$x
xdata$x	SEGMENT
__catchsym$??$_Emplace_reallocate@ABQAV?$CRef@VCGraphicThing@@@@@?$vector@PAV?$CRef@VCGraphicThing@@@@V?$allocator@PAV?$CRef@VCGraphicThing@@@@@std@@@std@@QAEPAPAV?$CRef@VCGraphicThing@@@@QAPAV2@ABQAV2@@Z$32 DD 040H
	DD	00H
	DD	00H
	DD	FLAT:__catch$??$_Emplace_reallocate@ABQAV?$CRef@VCGraphicThing@@@@@?$vector@PAV?$CRef@VCGraphicThing@@@@V?$allocator@PAV?$CRef@VCGraphicThing@@@@@std@@@std@@QAEPAPAV?$CRef@VCGraphicThing@@@@QAPAV2@ABQAV2@@Z$0
__unwindtable$??$_Emplace_reallocate@ABQAV?$CRef@VCGraphicThing@@@@@?$vector@PAV?$CRef@VCGraphicThing@@@@V?$allocator@PAV?$CRef@VCGraphicThing@@@@@std@@@std@@QAEPAPAV?$CRef@VCGraphicThing@@@@QAPAV2@ABQAV2@@Z DD 0ffffffffH
	DD	00H
	DD	0ffffffffH
	DD	00H
__tryblocktable$??$_Emplace_reallocate@ABQAV?$CRef@VCGraphicThing@@@@@?$vector@PAV?$CRef@VCGraphicThing@@@@V?$allocator@PAV?$CRef@VCGraphicThing@@@@@std@@@std@@QAEPAPAV?$CRef@VCGraphicThing@@@@QAPAV2@ABQAV2@@Z DD 00H
	DD	00H
	DD	01H
	DD	01H
	DD	FLAT:__catchsym$??$_Emplace_reallocate@ABQAV?$CRef@VCGraphicThing@@@@@?$vector@PAV?$CRef@VCGraphicThing@@@@V?$allocator@PAV?$CRef@VCGraphicThing@@@@@std@@@std@@QAEPAPAV?$CRef@VCGraphicThing@@@@QAPAV2@ABQAV2@@Z$32
__ehfuncinfo$??$_Emplace_reallocate@ABQAV?$CRef@VCGraphicThing@@@@@?$vector@PAV?$CRef@VCGraphicThing@@@@V?$allocator@PAV?$CRef@VCGraphicThing@@@@@std@@@std@@QAEPAPAV?$CRef@VCGraphicThing@@@@QAPAV2@ABQAV2@@Z DD 019930522H
	DD	02H
	DD	FLAT:__unwindtable$??$_Emplace_reallocate@ABQAV?$CRef@VCGraphicThing@@@@@?$vector@PAV?$CRef@VCGraphicThing@@@@V?$allocator@PAV?$CRef@VCGraphicThing@@@@@std@@@std@@QAEPAPAV?$CRef@VCGraphicThing@@@@QAPAV2@ABQAV2@@Z
	DD	01H
	DD	FLAT:__tryblocktable$??$_Emplace_reallocate@ABQAV?$CRef@VCGraphicThing@@@@@?$vector@PAV?$CRef@VCGraphicThing@@@@V?$allocator@PAV?$CRef@VCGraphicThing@@@@@std@@@std@@QAEPAPAV?$CRef@VCGraphicThing@@@@QAPAV2@ABQAV2@@Z
	DD	2 DUP(00H)
	DD	00H
	DD	01H
xdata$x	ENDS
;	COMDAT xdata$x
xdata$x	SEGMENT
__catchsym$??$_Emplace_reallocate@ABQAVCGrannyLODController@@@?$vector@PAVCGrannyLODController@@V?$allocator@PAVCGrannyLODController@@@std@@@std@@QAEPAPAVCGrannyLODController@@QAPAV2@ABQAV2@@Z$32 DD 040H
	DD	00H
	DD	00H
	DD	FLAT:__catch$??$_Emplace_reallocate@ABQAVCGrannyLODController@@@?$vector@PAVCGrannyLODController@@V?$allocator@PAVCGrannyLODController@@@std@@@std@@QAEPAPAVCGrannyLODController@@QAPAV2@ABQAV2@@Z$0
__unwindtable$??$_Emplace_reallocate@ABQAVCGrannyLODController@@@?$vector@PAVCGrannyLODController@@V?$allocator@PAVCGrannyLODController@@@std@@@std@@QAEPAPAVCGrannyLODController@@QAPAV2@ABQAV2@@Z DD 0ffffffffH
	DD	00H
	DD	0ffffffffH
	DD	00H
__tryblocktable$??$_Emplace_reallocate@ABQAVCGrannyLODController@@@?$vector@PAVCGrannyLODController@@V?$allocator@PAVCGrannyLODController@@@std@@@std@@QAEPAPAVCGrannyLODController@@QAPAV2@ABQAV2@@Z DD 00H
	DD	00H
	DD	01H
	DD	01H
	DD	FLAT:__catchsym$??$_Emplace_reallocate@ABQAVCGrannyLODController@@@?$vector@PAVCGrannyLODController@@V?$allocator@PAVCGrannyLODController@@@std@@@std@@QAEPAPAVCGrannyLODController@@QAPAV2@ABQAV2@@Z$32
__ehfuncinfo$??$_Emplace_reallocate@ABQAVCGrannyLODController@@@?$vector@PAVCGrannyLODController@@V?$allocator@PAVCGrannyLODController@@@std@@@std@@QAEPAPAVCGrannyLODController@@QAPAV2@ABQAV2@@Z DD 019930522H
	DD	02H
	DD	FLAT:__unwindtable$??$_Emplace_reallocate@ABQAVCGrannyLODController@@@?$vector@PAVCGrannyLODController@@V?$allocator@PAVCGrannyLODController@@@std@@@std@@QAEPAPAVCGrannyLODController@@QAPAV2@ABQAV2@@Z
	DD	01H
	DD	FLAT:__tryblocktable$??$_Emplace_reallocate@ABQAVCGrannyLODController@@@?$vector@PAVCGrannyLODController@@V?$allocator@PAVCGrannyLODController@@@std@@@std@@QAEPAPAVCGrannyLODController@@QAPAV2@ABQAV2@@Z
	DD	2 DUP(00H)
	DD	00H
	DD	01H
xdata$x	ENDS
;	COMDAT xdata$x
xdata$x	SEGMENT
__catchsym$?_Reallocate_exactly@?$vector@PAVCGraphicThingInstance@@V?$allocator@PAVCGraphicThingInstance@@@std@@@std@@AAEXI@Z$11 DD 040H
	DD	00H
	DD	00H
	DD	FLAT:__catch$?_Reallocate_exactly@?$vector@PAVCGraphicThingInstance@@V?$allocator@PAVCGraphicThingInstance@@@std@@@std@@AAEXI@Z$0
__unwindtable$?_Reallocate_exactly@?$vector@PAVCGraphicThingInstance@@V?$allocator@PAVCGraphicThingInstance@@@std@@@std@@AAEXI@Z DD 0ffffffffH
	DD	00H
	DD	0ffffffffH
	DD	00H
__tryblocktable$?_Reallocate_exactly@?$vector@PAVCGraphicThingInstance@@V?$allocator@PAVCGraphicThingInstance@@@std@@@std@@AAEXI@Z DD 00H
	DD	00H
	DD	01H
	DD	01H
	DD	FLAT:__catchsym$?_Reallocate_exactly@?$vector@PAVCGraphicThingInstance@@V?$allocator@PAVCGraphicThingInstance@@@std@@@std@@AAEXI@Z$11
__ehfuncinfo$?_Reallocate_exactly@?$vector@PAVCGraphicThingInstance@@V?$allocator@PAVCGraphicThingInstance@@@std@@@std@@AAEXI@Z DD 019930522H
	DD	02H
	DD	FLAT:__unwindtable$?_Reallocate_exactly@?$vector@PAVCGraphicThingInstance@@V?$allocator@PAVCGraphicThingInstance@@@std@@@std@@AAEXI@Z
	DD	01H
	DD	FLAT:__tryblocktable$?_Reallocate_exactly@?$vector@PAVCGraphicThingInstance@@V?$allocator@PAVCGraphicThingInstance@@@std@@@std@@AAEXI@Z
	DD	2 DUP(00H)
	DD	00H
	DD	01H
xdata$x	ENDS
;	COMDAT xdata$x
xdata$x	SEGMENT
__unwindtable$?Alloc@?$CDynamicPool@VCGraphicThingInstance@@@@QAEPAVCGraphicThingInstance@@XZ DD 0ffffffffH
	DD	FLAT:__unwindfunclet$?Alloc@?$CDynamicPool@VCGraphicThingInstance@@@@QAEPAVCGraphicThingInstance@@XZ$0
__ehfuncinfo$?Alloc@?$CDynamicPool@VCGraphicThingInstance@@@@QAEPAVCGraphicThingInstance@@XZ DD 019930522H
	DD	01H
	DD	FLAT:__unwindtable$?Alloc@?$CDynamicPool@VCGraphicThingInstance@@@@QAEPAVCGraphicThingInstance@@XZ
	DD	2 DUP(00H)
	DD	2 DUP(00H)
	DD	00H
	DD	01H
xdata$x	ENDS
;	COMDAT xdata$x
xdata$x	SEGMENT
__unwindtable$??_G?$CRef@VCGraphicThing@@@@QAEPAXI@Z DD 0ffffffffH
	DD	FLAT:___std_terminate
__ehfuncinfo$??_G?$CRef@VCGraphicThing@@@@QAEPAXI@Z DD 019930522H
	DD	01H
	DD	FLAT:__unwindtable$??_G?$CRef@VCGraphicThing@@@@QAEPAXI@Z
	DD	2 DUP(00H)
	DD	2 DUP(00H)
	DD	00H
	DD	05H
xdata$x	ENDS
;	COMDAT xdata$x
xdata$x	SEGMENT
__unwindtable$?GetBaseThingPtr@CGraphicThingInstance@@QAEPAVCGraphicThing@@XZ DD 0ffffffffH
	DD	FLAT:___std_terminate
__ehfuncinfo$?GetBaseThingPtr@CGraphicThingInstance@@QAEPAVCGraphicThing@@XZ DD 019930522H
	DD	01H
	DD	FLAT:__unwindtable$?GetBaseThingPtr@CGraphicThingInstance@@QAEPAVCGraphicThing@@XZ
	DD	2 DUP(00H)
	DD	2 DUP(00H)
	DD	00H
	DD	01H
xdata$x	ENDS
;	COMDAT xdata$x
xdata$x	SEGMENT
__unwindtable$?ReserveModelInstance@CGraphicThingInstance@@QAEXH@Z DD 0ffffffffH
	DD	FLAT:__unwindfunclet$?ReserveModelInstance@CGraphicThingInstance@@QAEXH@Z$0
__ehfuncinfo$?ReserveModelInstance@CGraphicThingInstance@@QAEXH@Z DD 019930522H
	DD	01H
	DD	FLAT:__unwindtable$?ReserveModelInstance@CGraphicThingInstance@@QAEXH@Z
	DD	2 DUP(00H)
	DD	2 DUP(00H)
	DD	00H
	DD	01H
xdata$x	ENDS
;	COMDAT xdata$x
xdata$x	SEGMENT
__unwindtable$??0CGraphicThingInstance@@QAE@XZ DD 0ffffffffH
	DD	FLAT:__unwindfunclet$??0CGraphicThingInstance@@QAE@XZ$0
	DD	00H
	DD	FLAT:__unwindfunclet$??0CGraphicThingInstance@@QAE@XZ$1
	DD	01H
	DD	FLAT:__unwindfunclet$??0CGraphicThingInstance@@QAE@XZ$2
	DD	02H
	DD	FLAT:__unwindfunclet$??0CGraphicThingInstance@@QAE@XZ$3
__ehfuncinfo$??0CGraphicThingInstance@@QAE@XZ DD 019930522H
	DD	04H
	DD	FLAT:__unwindtable$??0CGraphicThingInstance@@QAE@XZ
	DD	2 DUP(00H)
	DD	2 DUP(00H)
	DD	00H
	DD	01H
xdata$x	ENDS
; Function compile flags: /Odspy
; File C:\Program Files (x86)\Microsoft Visual Studio\2019\Community\VC\Tools\MSVC\14.28.29333\include\xmemory
; File C:\Program Files (x86)\Microsoft Visual Studio\2019\Community\VC\Tools\MSVC\14.28.29333\include\type_traits
; File C:\Program Files (x86)\Microsoft Visual Studio\2019\Community\VC\Tools\MSVC\14.28.29333\include\xmemory
; File C:\Program Files (x86)\Microsoft Visual Studio\2019\Community\VC\Tools\MSVC\14.28.29333\include\xstddef
; File C:\Program Files (x86)\Microsoft Visual Studio\2019\Community\VC\Tools\MSVC\14.28.29333\include\xmemory
; File C:\Program Files (x86)\Microsoft Visual Studio\2019\Community\VC\Tools\MSVC\14.28.29333\include\vcruntime_new.h
; File C:\Program Files (x86)\Microsoft Visual Studio\2019\Community\VC\Tools\MSVC\14.28.29333\include\type_traits
; File C:\Program Files (x86)\Microsoft Visual Studio\2019\Community\VC\Tools\MSVC\14.28.29333\include\xmemory
;	COMDAT ??$_Emplace_back@USModelThingSet@CGraphicThingInstance@@@?$_Uninitialized_backout_al@V?$allocator@USModelThingSet@CGraphicThingInstance@@@std@@@std@@QAEX$$QAUSModelThingSet@CGraphicThingInstance@@@Z
_TEXT	SEGMENT
___formal$ = -28					; size = 4
$T1 = -24						; size = 4
$T2 = -20						; size = 4
$T3 = -16						; size = 4
$T4 = -12						; size = 4
__Ptr$ = -8						; size = 4
_this$ = -4						; size = 4
_<_Vals_0>$ = 8						; size = 4
??$_Emplace_back@USModelThingSet@CGraphicThingInstance@@@?$_Uninitialized_backout_al@V?$allocator@USModelThingSet@CGraphicThingInstance@@@std@@@std@@QAEX$$QAUSModelThingSet@CGraphicThingInstance@@@Z PROC ; std::_Uninitialized_backout_al<std::allocator<CGraphicThingInstance::SModelThingSet> >::_Emplace_back<CGraphicThingInstance::SModelThingSet>, COMDAT
; _this$ = ecx

; 1545 :     void _Emplace_back(_Types&&... _Vals) { // construct a new element at *_Last and increment

  00000	55		 push	 ebp
  00001	8b ec		 mov	 ebp, esp
  00003	83 ec 1c	 sub	 esp, 28			; 0000001cH
  00006	89 4d fc	 mov	 DWORD PTR _this$[ebp], ecx
; File C:\Program Files (x86)\Microsoft Visual Studio\2019\Community\VC\Tools\MSVC\14.28.29333\include\type_traits

; 1443 :     return static_cast<_Ty&&>(_Arg);

  00009	8b 45 08	 mov	 eax, DWORD PTR _<_Vals_0>$[ebp]
  0000c	89 45 f0	 mov	 DWORD PTR $T3[ebp], eax
; File C:\Program Files (x86)\Microsoft Visual Studio\2019\Community\VC\Tools\MSVC\14.28.29333\include\xmemory

; 1546 :         allocator_traits<_Alloc>::construct(_Al, _Unfancy(_Last), _STD forward<_Types>(_Vals)...);

  0000f	8b 45 fc	 mov	 eax, DWORD PTR _this$[ebp]
  00012	8b 40 04	 mov	 eax, DWORD PTR [eax+4]
  00015	89 45 f8	 mov	 DWORD PTR __Ptr$[ebp], eax
; File C:\Program Files (x86)\Microsoft Visual Studio\2019\Community\VC\Tools\MSVC\14.28.29333\include\xstddef

; 289  :     return _Ptr;

  00018	8b 45 f8	 mov	 eax, DWORD PTR __Ptr$[ebp]
  0001b	89 45 f4	 mov	 DWORD PTR $T4[ebp], eax
; File C:\Program Files (x86)\Microsoft Visual Studio\2019\Community\VC\Tools\MSVC\14.28.29333\include\xmemory

; 1546 :         allocator_traits<_Alloc>::construct(_Al, _Unfancy(_Last), _STD forward<_Types>(_Vals)...);

  0001e	8b 45 fc	 mov	 eax, DWORD PTR _this$[ebp]
  00021	8b 40 08	 mov	 eax, DWORD PTR [eax+8]
  00024	89 45 e4	 mov	 DWORD PTR ___formal$[ebp], eax
; File C:\Program Files (x86)\Microsoft Visual Studio\2019\Community\VC\Tools\MSVC\14.28.29333\include\vcruntime_new.h

; 169  :         return _Where;

  00027	8b 45 f4	 mov	 eax, DWORD PTR $T4[ebp]
  0002a	89 45 e8	 mov	 DWORD PTR $T1[ebp], eax
; File C:\Program Files (x86)\Microsoft Visual Studio\2019\Community\VC\Tools\MSVC\14.28.29333\include\type_traits

; 1443 :     return static_cast<_Ty&&>(_Arg);

  0002d	8b 45 f0	 mov	 eax, DWORD PTR $T3[ebp]
  00030	89 45 ec	 mov	 DWORD PTR $T2[ebp], eax
  00033	ff 75 ec	 push	 DWORD PTR $T2[ebp]
  00036	8b 4d e8	 mov	 ecx, DWORD PTR $T1[ebp]
  00039	e8 00 00 00 00	 call	 ??0?$vector@PAV?$CRef@VCGraphicThing@@@@V?$allocator@PAV?$CRef@VCGraphicThing@@@@@std@@@std@@QAE@$$QAV01@@Z ; std::vector<CRef<CGraphicThing> *,std::allocator<CRef<CGraphicThing> *> >::vector<CRef<CGraphicThing> *,std::allocator<CRef<CGraphicThing> *> >
; File C:\Program Files (x86)\Microsoft Visual Studio\2019\Community\VC\Tools\MSVC\14.28.29333\include\xmemory

; 1547 :         ++_Last;

  0003e	8b 45 fc	 mov	 eax, DWORD PTR _this$[ebp]
  00041	8b 40 04	 mov	 eax, DWORD PTR [eax+4]
  00044	83 c0 0c	 add	 eax, 12			; 0000000cH
  00047	8b 4d fc	 mov	 ecx, DWORD PTR _this$[ebp]
  0004a	89 41 04	 mov	 DWORD PTR [ecx+4], eax

; 1548 :     }

  0004d	c9		 leave
  0004e	c2 04 00	 ret	 4
??$_Emplace_back@USModelThingSet@CGraphicThingInstance@@@?$_Uninitialized_backout_al@V?$allocator@USModelThingSet@CGraphicThingInstance@@@std@@@std@@QAEX$$QAUSModelThingSet@CGraphicThingInstance@@@Z ENDP ; std::_Uninitialized_backout_al<std::allocator<CGraphicThingInstance::SModelThingSet> >::_Emplace_back<CGraphicThingInstance::SModelThingSet>
_TEXT	ENDS
; Function compile flags: /Odspy
; File C:\Program Files (x86)\Microsoft Visual Studio\2019\Community\VC\Tools\MSVC\14.28.29333\include\xmemory
; File C:\Program Files (x86)\Microsoft Visual Studio\2019\Community\VC\Tools\MSVC\14.28.29333\include\type_traits
; File C:\Program Files (x86)\Microsoft Visual Studio\2019\Community\VC\Tools\MSVC\14.28.29333\include\xmemory
;	COMDAT ??$_Uninitialized_move@PAUSModelThingSet@CGraphicThingInstance@@V?$allocator@USModelThingSet@CGraphicThingInstance@@@std@@@std@@YAPAUSModelThingSet@CGraphicThingInstance@@QAU12@0PAU12@AAV?$allocator@USModelThingSet@CGraphicThingInstance@@@0@@Z
_TEXT	SEGMENT
__Backout$2 = -40					; size = 12
$T3 = -28						; size = 4
$T4 = -24						; size = 4
__ULast$ = -20						; size = 4
__UFirst$ = -16						; size = 4
__$EHRec$ = -12						; size = 12
__First$ = 8						; size = 4
__Last$ = 12						; size = 4
__Dest$ = 16						; size = 4
__Al$ = 20						; size = 4
??$_Uninitialized_move@PAUSModelThingSet@CGraphicThingInstance@@V?$allocator@USModelThingSet@CGraphicThingInstance@@@std@@@std@@YAPAUSModelThingSet@CGraphicThingInstance@@QAU12@0PAU12@AAV?$allocator@USModelThingSet@CGraphicThingInstance@@@0@@Z PROC ; std::_Uninitialized_move<CGraphicThingInstance::SModelThingSet *,std::allocator<CGraphicThingInstance::SModelThingSet> >, COMDAT

; 1685 :     const _InIt _First, const _InIt _Last, _Alloc_ptr_t<_Alloc> _Dest, _Alloc& _Al) {

  00000	55		 push	 ebp
  00001	8b ec		 mov	 ebp, esp
  00003	6a ff		 push	 -1
  00005	68 00 00 00 00	 push	 __ehhandler$??$_Uninitialized_move@PAUSModelThingSet@CGraphicThingInstance@@V?$allocator@USModelThingSet@CGraphicThingInstance@@@std@@@std@@YAPAUSModelThingSet@CGraphicThingInstance@@QAU12@0PAU12@AAV?$allocator@USModelThingSet@CGraphicThingInstance@@@0@@Z
  0000a	64 a1 00 00 00
	00		 mov	 eax, DWORD PTR fs:0
  00010	50		 push	 eax
  00011	83 ec 1c	 sub	 esp, 28			; 0000001cH
  00014	a1 00 00 00 00	 mov	 eax, DWORD PTR ___security_cookie
  00019	33 c5		 xor	 eax, ebp
  0001b	50		 push	 eax
  0001c	8d 45 f4	 lea	 eax, DWORD PTR __$EHRec$[ebp]
  0001f	64 a3 00 00 00
	00		 mov	 DWORD PTR fs:0, eax

; 1686 :     // move [_First, _Last) to raw _Dest, using _Al
; 1687 :     // note: only called internally from elsewhere in the STL
; 1688 :     using _Ptrval     = typename _Alloc::value_type*;
; 1689 :     auto _UFirst      = _Get_unwrapped(_First);

  00025	8b 45 08	 mov	 eax, DWORD PTR __First$[ebp]
  00028	89 45 f0	 mov	 DWORD PTR __UFirst$[ebp], eax

; 1690 :     const auto _ULast = _Get_unwrapped(_Last);

  0002b	8b 45 0c	 mov	 eax, DWORD PTR __Last$[ebp]
  0002e	89 45 ec	 mov	 DWORD PTR __ULast$[ebp], eax

; 1535 :     _Uninitialized_backout_al(pointer _Dest, _Alloc& _Al_) : _First(_Dest), _Last(_Dest), _Al(_Al_) {}

  00031	8b 45 10	 mov	 eax, DWORD PTR __Dest$[ebp]
  00034	89 45 d8	 mov	 DWORD PTR __Backout$2[ebp], eax
  00037	8b 45 10	 mov	 eax, DWORD PTR __Dest$[ebp]
  0003a	89 45 dc	 mov	 DWORD PTR __Backout$2[ebp+4], eax
  0003d	8b 45 14	 mov	 eax, DWORD PTR __Al$[ebp]
  00040	89 45 e0	 mov	 DWORD PTR __Backout$2[ebp+8], eax

; 1691 :     if constexpr (conjunction_v<bool_constant<_Ptr_move_cat<decltype(_UFirst), _Ptrval>::_Really_trivial>,
; 1692 :                       _Uses_default_construct<_Alloc, _Ptrval, decltype(_STD move(*_UFirst))>>) {
; 1693 :         _Copy_memmove(_UFirst, _ULast, _Unfancy(_Dest));
; 1694 :         return _Dest + (_ULast - _UFirst);
; 1695 :     } else {
; 1696 :         _Uninitialized_backout_al<_Alloc> _Backout{_Dest, _Al};

  00043	83 65 fc 00	 and	 DWORD PTR __$EHRec$[ebp+8], 0

; 1697 :         for (; _UFirst != _ULast; ++_UFirst) {

  00047	eb 09		 jmp	 SHORT $LN4@Uninitiali
$LN2@Uninitiali:
  00049	8b 45 f0	 mov	 eax, DWORD PTR __UFirst$[ebp]
  0004c	83 c0 0c	 add	 eax, 12			; 0000000cH
  0004f	89 45 f0	 mov	 DWORD PTR __UFirst$[ebp], eax
$LN4@Uninitiali:
  00052	8b 45 f0	 mov	 eax, DWORD PTR __UFirst$[ebp]
  00055	3b 45 ec	 cmp	 eax, DWORD PTR __ULast$[ebp]
  00058	74 13		 je	 SHORT $LN3@Uninitiali
; File C:\Program Files (x86)\Microsoft Visual Studio\2019\Community\VC\Tools\MSVC\14.28.29333\include\type_traits

; 1455 :     return static_cast<remove_reference_t<_Ty>&&>(_Arg);

  0005a	8b 45 f0	 mov	 eax, DWORD PTR __UFirst$[ebp]
  0005d	89 45 e8	 mov	 DWORD PTR $T4[ebp], eax
; File C:\Program Files (x86)\Microsoft Visual Studio\2019\Community\VC\Tools\MSVC\14.28.29333\include\xmemory

; 1698 :             _Backout._Emplace_back(_STD move(*_UFirst));

  00060	ff 75 e8	 push	 DWORD PTR $T4[ebp]
  00063	8d 4d d8	 lea	 ecx, DWORD PTR __Backout$2[ebp]
  00066	e8 00 00 00 00	 call	 ??$_Emplace_back@USModelThingSet@CGraphicThingInstance@@@?$_Uninitialized_backout_al@V?$allocator@USModelThingSet@CGraphicThingInstance@@@std@@@std@@QAEX$$QAUSModelThingSet@CGraphicThingInstance@@@Z ; std::_Uninitialized_backout_al<std::allocator<CGraphicThingInstance::SModelThingSet> >::_Emplace_back<CGraphicThingInstance::SModelThingSet>

; 1699 :         }

  0006b	eb dc		 jmp	 SHORT $LN2@Uninitiali
$LN3@Uninitiali:

; 1551 :         _First = _Last;

  0006d	8b 45 dc	 mov	 eax, DWORD PTR __Backout$2[ebp+4]
  00070	89 45 d8	 mov	 DWORD PTR __Backout$2[ebp], eax

; 1552 :         return _Last;

  00073	8b 45 dc	 mov	 eax, DWORD PTR __Backout$2[ebp+4]
  00076	89 45 e4	 mov	 DWORD PTR $T3[ebp], eax

; 1700 : 
; 1701 :         return _Backout._Release();

  00079	83 4d fc ff	 or	 DWORD PTR __$EHRec$[ebp+8], -1

; 1541 :         _Destroy_range(_First, _Last, _Al);

  0007d	ff 75 e0	 push	 DWORD PTR __Backout$2[ebp+8]
  00080	ff 75 dc	 push	 DWORD PTR __Backout$2[ebp+4]
  00083	ff 75 d8	 push	 DWORD PTR __Backout$2[ebp]
  00086	e8 00 00 00 00	 call	 ??$_Destroy_range@V?$allocator@USModelThingSet@CGraphicThingInstance@@@std@@@std@@YAXPAUSModelThingSet@CGraphicThingInstance@@QAU12@AAV?$allocator@USModelThingSet@CGraphicThingInstance@@@0@@Z ; std::_Destroy_range<std::allocator<CGraphicThingInstance::SModelThingSet> >
  0008b	83 c4 0c	 add	 esp, 12			; 0000000cH

; 1700 : 
; 1701 :         return _Backout._Release();

  0008e	8b 45 e4	 mov	 eax, DWORD PTR $T3[ebp]

; 1702 :     }
; 1703 : }

  00091	8b 4d f4	 mov	 ecx, DWORD PTR __$EHRec$[ebp]
  00094	64 89 0d 00 00
	00 00		 mov	 DWORD PTR fs:0, ecx
  0009b	59		 pop	 ecx
  0009c	c9		 leave
  0009d	c3		 ret	 0
_TEXT	ENDS
;	COMDAT text$x
text$x	SEGMENT
__unwindfunclet$??$_Uninitialized_move@PAUSModelThingSet@CGraphicThingInstance@@V?$allocator@USModelThingSet@CGraphicThingInstance@@@std@@@std@@YAPAUSModelThingSet@CGraphicThingInstance@@QAU12@0PAU12@AAV?$allocator@USModelThingSet@CGraphicThingInstance@@@0@@Z$0:
  00000	8d 4d d8	 lea	 ecx, DWORD PTR __Backout$2[ebp]
  00003	e9 00 00 00 00	 jmp	 ??1?$_Uninitialized_backout_al@V?$allocator@USModelThingSet@CGraphicThingInstance@@@std@@@std@@QAE@XZ ; std::_Uninitialized_backout_al<std::allocator<CGraphicThingInstance::SModelThingSet> >::~_Uninitialized_backout_al<std::allocator<CGraphicThingInstance::SModelThingSet> >
  00008	cc		 int	 3
  00009	cc		 int	 3
  0000a	cc		 int	 3
  0000b	cc		 int	 3
  0000c	cc		 int	 3
__ehhandler$??$_Uninitialized_move@PAUSModelThingSet@CGraphicThingInstance@@V?$allocator@USModelThingSet@CGraphicThingInstance@@@std@@@std@@YAPAUSModelThingSet@CGraphicThingInstance@@QAU12@0PAU12@AAV?$allocator@USModelThingSet@CGraphicThingInstance@@@0@@Z:
  0000d	90		 npad	 1
  0000e	90		 npad	 1
  0000f	8b 54 24 08	 mov	 edx, DWORD PTR [esp+8]
  00013	8d 42 0c	 lea	 eax, DWORD PTR [edx+12]
  00016	8b 4a e0	 mov	 ecx, DWORD PTR [edx-32]
  00019	33 c8		 xor	 ecx, eax
  0001b	e8 00 00 00 00	 call	 @__security_check_cookie@4
  00020	b8 00 00 00 00	 mov	 eax, OFFSET __ehfuncinfo$??$_Uninitialized_move@PAUSModelThingSet@CGraphicThingInstance@@V?$allocator@USModelThingSet@CGraphicThingInstance@@@std@@@std@@YAPAUSModelThingSet@CGraphicThingInstance@@QAU12@0PAU12@AAV?$allocator@USModelThingSet@CGraphicThingInstance@@@0@@Z
  00025	e9 00 00 00 00	 jmp	 ___CxxFrameHandler3
text$x	ENDS
??$_Uninitialized_move@PAUSModelThingSet@CGraphicThingInstance@@V?$allocator@USModelThingSet@CGraphicThingInstance@@@std@@@std@@YAPAUSModelThingSet@CGraphicThingInstance@@QAU12@0PAU12@AAV?$allocator@USModelThingSet@CGraphicThingInstance@@@0@@Z ENDP ; std::_Uninitialized_move<CGraphicThingInstance::SModelThingSet *,std::allocator<CGraphicThingInstance::SModelThingSet> >
; Function compile flags: /Odspy
; File C:\Program Files (x86)\Microsoft Visual Studio\2019\Community\VC\Tools\MSVC\14.28.29333\include\xutility
;	COMDAT ??$_Copy_memmove@PAPAV?$CRef@VCGraphicThing@@@@PAPAV1@@std@@YAPAPAV?$CRef@VCGraphicThing@@@@PAPAV1@00@Z
_TEXT	SEGMENT
__Last_ch$ = -16					; size = 4
__Count$ = -12						; size = 4
__Dest_ch$ = -8						; size = 4
__First_ch$ = -4					; size = 4
__First$ = 8						; size = 4
__Last$ = 12						; size = 4
__Dest$ = 16						; size = 4
??$_Copy_memmove@PAPAV?$CRef@VCGraphicThing@@@@PAPAV1@@std@@YAPAPAV?$CRef@VCGraphicThing@@@@PAPAV1@00@Z PROC ; std::_Copy_memmove<CRef<CGraphicThing> * *,CRef<CGraphicThing> * *>, COMDAT

; 4360 : _OutIt _Copy_memmove(_InIt _First, _InIt _Last, _OutIt _Dest) {

  00000	55		 push	 ebp
  00001	8b ec		 mov	 ebp, esp
  00003	83 ec 10	 sub	 esp, 16			; 00000010H

; 4361 :     const char* const _First_ch = const_cast<const char*>(reinterpret_cast<const volatile char*>(_First));

  00006	8b 45 08	 mov	 eax, DWORD PTR __First$[ebp]
  00009	89 45 fc	 mov	 DWORD PTR __First_ch$[ebp], eax

; 4362 :     const char* const _Last_ch  = const_cast<const char*>(reinterpret_cast<const volatile char*>(_Last));

  0000c	8b 45 0c	 mov	 eax, DWORD PTR __Last$[ebp]
  0000f	89 45 f0	 mov	 DWORD PTR __Last_ch$[ebp], eax

; 4363 :     char* const _Dest_ch        = const_cast<char*>(reinterpret_cast<volatile char*>(_Dest));

  00012	8b 45 10	 mov	 eax, DWORD PTR __Dest$[ebp]
  00015	89 45 f8	 mov	 DWORD PTR __Dest_ch$[ebp], eax

; 4364 :     const auto _Count           = static_cast<size_t>(_Last_ch - _First_ch);

  00018	8b 45 f0	 mov	 eax, DWORD PTR __Last_ch$[ebp]
  0001b	2b 45 fc	 sub	 eax, DWORD PTR __First_ch$[ebp]
  0001e	89 45 f4	 mov	 DWORD PTR __Count$[ebp], eax

; 4365 :     _CSTD memmove(_Dest_ch, _First_ch, _Count);

  00021	ff 75 f4	 push	 DWORD PTR __Count$[ebp]
  00024	ff 75 fc	 push	 DWORD PTR __First_ch$[ebp]
  00027	ff 75 f8	 push	 DWORD PTR __Dest_ch$[ebp]
  0002a	e8 00 00 00 00	 call	 _memmove
  0002f	83 c4 0c	 add	 esp, 12			; 0000000cH

; 4366 :     return reinterpret_cast<_OutIt>(_Dest_ch + _Count);

  00032	8b 45 f8	 mov	 eax, DWORD PTR __Dest_ch$[ebp]
  00035	03 45 f4	 add	 eax, DWORD PTR __Count$[ebp]

; 4367 : }

  00038	c9		 leave
  00039	c3		 ret	 0
??$_Copy_memmove@PAPAV?$CRef@VCGraphicThing@@@@PAPAV1@@std@@YAPAPAV?$CRef@VCGraphicThing@@@@PAPAV1@00@Z ENDP ; std::_Copy_memmove<CRef<CGraphicThing> * *,CRef<CGraphicThing> * *>
_TEXT	ENDS
; Function compile flags: /Odspy
; File C:\Program Files (x86)\Microsoft Visual Studio\2019\Community\VC\Tools\MSVC\14.28.29333\include\xutility
;	COMDAT ??$_Copy_memmove@PAPAVCGrannyLODController@@PAPAV1@@std@@YAPAPAVCGrannyLODController@@PAPAV1@00@Z
_TEXT	SEGMENT
__Last_ch$ = -16					; size = 4
__Count$ = -12						; size = 4
__Dest_ch$ = -8						; size = 4
__First_ch$ = -4					; size = 4
__First$ = 8						; size = 4
__Last$ = 12						; size = 4
__Dest$ = 16						; size = 4
??$_Copy_memmove@PAPAVCGrannyLODController@@PAPAV1@@std@@YAPAPAVCGrannyLODController@@PAPAV1@00@Z PROC ; std::_Copy_memmove<CGrannyLODController * *,CGrannyLODController * *>, COMDAT

; 4360 : _OutIt _Copy_memmove(_InIt _First, _InIt _Last, _OutIt _Dest) {

  00000	55		 push	 ebp
  00001	8b ec		 mov	 ebp, esp
  00003	83 ec 10	 sub	 esp, 16			; 00000010H

; 4361 :     const char* const _First_ch = const_cast<const char*>(reinterpret_cast<const volatile char*>(_First));

  00006	8b 45 08	 mov	 eax, DWORD PTR __First$[ebp]
  00009	89 45 fc	 mov	 DWORD PTR __First_ch$[ebp], eax

; 4362 :     const char* const _Last_ch  = const_cast<const char*>(reinterpret_cast<const volatile char*>(_Last));

  0000c	8b 45 0c	 mov	 eax, DWORD PTR __Last$[ebp]
  0000f	89 45 f0	 mov	 DWORD PTR __Last_ch$[ebp], eax

; 4363 :     char* const _Dest_ch        = const_cast<char*>(reinterpret_cast<volatile char*>(_Dest));

  00012	8b 45 10	 mov	 eax, DWORD PTR __Dest$[ebp]
  00015	89 45 f8	 mov	 DWORD PTR __Dest_ch$[ebp], eax

; 4364 :     const auto _Count           = static_cast<size_t>(_Last_ch - _First_ch);

  00018	8b 45 f0	 mov	 eax, DWORD PTR __Last_ch$[ebp]
  0001b	2b 45 fc	 sub	 eax, DWORD PTR __First_ch$[ebp]
  0001e	89 45 f4	 mov	 DWORD PTR __Count$[ebp], eax

; 4365 :     _CSTD memmove(_Dest_ch, _First_ch, _Count);

  00021	ff 75 f4	 push	 DWORD PTR __Count$[ebp]
  00024	ff 75 fc	 push	 DWORD PTR __First_ch$[ebp]
  00027	ff 75 f8	 push	 DWORD PTR __Dest_ch$[ebp]
  0002a	e8 00 00 00 00	 call	 _memmove
  0002f	83 c4 0c	 add	 esp, 12			; 0000000cH

; 4366 :     return reinterpret_cast<_OutIt>(_Dest_ch + _Count);

  00032	8b 45 f8	 mov	 eax, DWORD PTR __Dest_ch$[ebp]
  00035	03 45 f4	 add	 eax, DWORD PTR __Count$[ebp]

; 4367 : }

  00038	c9		 leave
  00039	c3		 ret	 0
??$_Copy_memmove@PAPAVCGrannyLODController@@PAPAV1@@std@@YAPAPAVCGrannyLODController@@PAPAV1@00@Z ENDP ; std::_Copy_memmove<CGrannyLODController * *,CGrannyLODController * *>
_TEXT	ENDS
; Function compile flags: /Odspy
; File C:\Program Files (x86)\Microsoft Visual Studio\2019\Community\VC\Tools\MSVC\14.28.29333\include\xmemory
; File C:\Program Files (x86)\Microsoft Visual Studio\2019\Community\VC\Tools\MSVC\14.28.29333\include\xstddef
; File C:\Program Files (x86)\Microsoft Visual Studio\2019\Community\VC\Tools\MSVC\14.28.29333\include\xmemory
; File C:\Program Files (x86)\Microsoft Visual Studio\2019\Community\VC\Tools\MSVC\14.28.29333\include\vcruntime_new.h
; File C:\Program Files (x86)\Microsoft Visual Studio\2019\Community\VC\Tools\MSVC\14.28.29333\include\xmemory
; File C:\Program Files (x86)\Microsoft Visual Studio\2019\Community\VC\Tools\MSVC\14.28.29333\include\vector
; File C:\Program Files (x86)\Microsoft Visual Studio\2019\Community\VC\Tools\MSVC\14.28.29333\include\xmemory
; File C:\Program Files (x86)\Microsoft Visual Studio\2019\Community\VC\Tools\MSVC\14.28.29333\include\vector
; File C:\Program Files (x86)\Microsoft Visual Studio\2019\Community\VC\Tools\MSVC\14.28.29333\include\xmemory
;	COMDAT ??$_Emplace_back@$$V@?$_Uninitialized_backout_al@V?$allocator@USModelThingSet@CGraphicThingInstance@@@std@@@std@@QAEXXZ
_TEXT	SEGMENT
___formal$ = -32					; size = 4
_this$1 = -28						; size = 4
_this$2 = -24						; size = 4
$T3 = -20						; size = 4
__Ptr$ = -16						; size = 4
$T4 = -12						; size = 4
_this$5 = -8						; size = 4
_this$ = -4						; size = 4
??$_Emplace_back@$$V@?$_Uninitialized_backout_al@V?$allocator@USModelThingSet@CGraphicThingInstance@@@std@@@std@@QAEXXZ PROC ; std::_Uninitialized_backout_al<std::allocator<CGraphicThingInstance::SModelThingSet> >::_Emplace_back<>, COMDAT
; _this$ = ecx

; 1545 :     void _Emplace_back(_Types&&... _Vals) { // construct a new element at *_Last and increment

  00000	55		 push	 ebp
  00001	8b ec		 mov	 ebp, esp
  00003	83 ec 20	 sub	 esp, 32			; 00000020H
  00006	57		 push	 edi
  00007	89 4d fc	 mov	 DWORD PTR _this$[ebp], ecx

; 1546 :         allocator_traits<_Alloc>::construct(_Al, _Unfancy(_Last), _STD forward<_Types>(_Vals)...);

  0000a	8b 45 fc	 mov	 eax, DWORD PTR _this$[ebp]
  0000d	8b 40 04	 mov	 eax, DWORD PTR [eax+4]
  00010	89 45 f0	 mov	 DWORD PTR __Ptr$[ebp], eax
; File C:\Program Files (x86)\Microsoft Visual Studio\2019\Community\VC\Tools\MSVC\14.28.29333\include\xstddef

; 289  :     return _Ptr;

  00013	8b 45 f0	 mov	 eax, DWORD PTR __Ptr$[ebp]
  00016	89 45 ec	 mov	 DWORD PTR $T3[ebp], eax
; File C:\Program Files (x86)\Microsoft Visual Studio\2019\Community\VC\Tools\MSVC\14.28.29333\include\xmemory

; 1546 :         allocator_traits<_Alloc>::construct(_Al, _Unfancy(_Last), _STD forward<_Types>(_Vals)...);

  00019	8b 45 fc	 mov	 eax, DWORD PTR _this$[ebp]
  0001c	8b 40 08	 mov	 eax, DWORD PTR [eax+8]
  0001f	89 45 e0	 mov	 DWORD PTR ___formal$[ebp], eax
; File C:\Program Files (x86)\Microsoft Visual Studio\2019\Community\VC\Tools\MSVC\14.28.29333\include\vcruntime_new.h

; 169  :         return _Where;

  00022	8b 45 ec	 mov	 eax, DWORD PTR $T3[ebp]
  00025	89 45 f4	 mov	 DWORD PTR $T4[ebp], eax
; File C:\Program Files (x86)\Microsoft Visual Studio\2019\Community\VC\Tools\MSVC\14.28.29333\include\xmemory

; 701  :         ::new (const_cast<void*>(static_cast<const volatile void*>(_Ptr))) _Objty(_STD forward<_Types>(_Args)...);

  00028	33 c0		 xor	 eax, eax
  0002a	8b 7d f4	 mov	 edi, DWORD PTR $T4[ebp]
  0002d	ab		 stosd
  0002e	ab		 stosd
  0002f	ab		 stosd
  00030	8b 45 f4	 mov	 eax, DWORD PTR $T4[ebp]
  00033	89 45 e8	 mov	 DWORD PTR _this$2[ebp], eax
; File C:\Program Files (x86)\Microsoft Visual Studio\2019\Community\VC\Tools\MSVC\14.28.29333\include\vector

; 445  :     vector() noexcept(is_nothrow_default_constructible_v<_Alty>) : _Mypair(_Zero_then_variadic_args_t{}) {

  00036	8b 45 e8	 mov	 eax, DWORD PTR _this$2[ebp]
  00039	89 45 e4	 mov	 DWORD PTR _this$1[ebp], eax
; File C:\Program Files (x86)\Microsoft Visual Studio\2019\Community\VC\Tools\MSVC\14.28.29333\include\xmemory

; 1339 :         : _Ty1(), _Myval2(_STD forward<_Other2>(_Val2)...) {}

  0003c	8b 45 e4	 mov	 eax, DWORD PTR _this$1[ebp]
  0003f	89 45 f8	 mov	 DWORD PTR _this$5[ebp], eax
; File C:\Program Files (x86)\Microsoft Visual Studio\2019\Community\VC\Tools\MSVC\14.28.29333\include\vector

; 375  :     _Vector_val() noexcept : _Myfirst(), _Mylast(), _Myend() {}

  00042	8b 45 f8	 mov	 eax, DWORD PTR _this$5[ebp]
  00045	83 20 00	 and	 DWORD PTR [eax], 0
  00048	8b 45 f8	 mov	 eax, DWORD PTR _this$5[ebp]
  0004b	83 60 04 00	 and	 DWORD PTR [eax+4], 0
  0004f	8b 45 f8	 mov	 eax, DWORD PTR _this$5[ebp]
  00052	83 60 08 00	 and	 DWORD PTR [eax+8], 0
; File C:\Program Files (x86)\Microsoft Visual Studio\2019\Community\VC\Tools\MSVC\14.28.29333\include\xmemory

; 1547 :         ++_Last;

  00056	8b 45 fc	 mov	 eax, DWORD PTR _this$[ebp]
  00059	8b 40 04	 mov	 eax, DWORD PTR [eax+4]
  0005c	83 c0 0c	 add	 eax, 12			; 0000000cH
  0005f	8b 4d fc	 mov	 ecx, DWORD PTR _this$[ebp]
  00062	89 41 04	 mov	 DWORD PTR [ecx+4], eax

; 1548 :     }

  00065	5f		 pop	 edi
  00066	c9		 leave
  00067	c3		 ret	 0
??$_Emplace_back@$$V@?$_Uninitialized_backout_al@V?$allocator@USModelThingSet@CGraphicThingInstance@@@std@@@std@@QAEXXZ ENDP ; std::_Uninitialized_backout_al<std::allocator<CGraphicThingInstance::SModelThingSet> >::_Emplace_back<>
_TEXT	ENDS
; Function compile flags: /Odspy
; File C:\Program Files (x86)\Microsoft Visual Studio\2019\Community\VC\Tools\MSVC\14.28.29333\include\xmemory
;	COMDAT ??1?$_Uninitialized_backout_al@V?$allocator@USModelThingSet@CGraphicThingInstance@@@std@@@std@@QAE@XZ
_TEXT	SEGMENT
_this$ = -4						; size = 4
??1?$_Uninitialized_backout_al@V?$allocator@USModelThingSet@CGraphicThingInstance@@@std@@@std@@QAE@XZ PROC ; std::_Uninitialized_backout_al<std::allocator<CGraphicThingInstance::SModelThingSet> >::~_Uninitialized_backout_al<std::allocator<CGraphicThingInstance::SModelThingSet> >, COMDAT
; _this$ = ecx

; 1540 :     ~_Uninitialized_backout_al() {

  00000	55		 push	 ebp
  00001	8b ec		 mov	 ebp, esp
  00003	51		 push	 ecx
  00004	89 4d fc	 mov	 DWORD PTR _this$[ebp], ecx

; 1541 :         _Destroy_range(_First, _Last, _Al);

  00007	8b 45 fc	 mov	 eax, DWORD PTR _this$[ebp]
  0000a	ff 70 08	 push	 DWORD PTR [eax+8]
  0000d	8b 45 fc	 mov	 eax, DWORD PTR _this$[ebp]
  00010	ff 70 04	 push	 DWORD PTR [eax+4]
  00013	8b 45 fc	 mov	 eax, DWORD PTR _this$[ebp]
  00016	ff 30		 push	 DWORD PTR [eax]
  00018	e8 00 00 00 00	 call	 ??$_Destroy_range@V?$allocator@USModelThingSet@CGraphicThingInstance@@@std@@@std@@YAXPAUSModelThingSet@CGraphicThingInstance@@QAU12@AAV?$allocator@USModelThingSet@CGraphicThingInstance@@@0@@Z ; std::_Destroy_range<std::allocator<CGraphicThingInstance::SModelThingSet> >
  0001d	83 c4 0c	 add	 esp, 12			; 0000000cH

; 1542 :     }

  00020	c9		 leave
  00021	c3		 ret	 0
??1?$_Uninitialized_backout_al@V?$allocator@USModelThingSet@CGraphicThingInstance@@@std@@@std@@QAE@XZ ENDP ; std::_Uninitialized_backout_al<std::allocator<CGraphicThingInstance::SModelThingSet> >::~_Uninitialized_backout_al<std::allocator<CGraphicThingInstance::SModelThingSet> >
_TEXT	ENDS
; Function compile flags: /Odspy
; File C:\Program Files (x86)\Microsoft Visual Studio\2019\Community\VC\Tools\MSVC\14.28.29333\include\xmemory
; File C:\Program Files (x86)\Microsoft Visual Studio\2019\Community\VC\Tools\MSVC\14.28.29333\include\xstddef
; File C:\Program Files (x86)\Microsoft Visual Studio\2019\Community\VC\Tools\MSVC\14.28.29333\include\vcruntime_new.h
; File C:\Program Files (x86)\Microsoft Visual Studio\2019\Community\VC\Tools\MSVC\14.28.29333\include\type_traits
; File C:\Program Files (x86)\Microsoft Visual Studio\2019\Community\VC\Tools\MSVC\14.28.29333\include\xmemory
;	COMDAT ??$_Construct_in_place@PAU?$_Tree_node@U?$pair@$$CBKPAV?$CRef@VCGraphicThing@@@@@std@@PAX@std@@AAPAU12@@std@@YAXAAPAU?$_Tree_node@U?$pair@$$CBKPAV?$CRef@VCGraphicThing@@@@@std@@PAX@0@0@Z
_TEXT	SEGMENT
$T1 = -12						; size = 4
$T2 = -8						; size = 4
$T3 = -4						; size = 4
__Obj$ = 8						; size = 4
_<_Args_0>$ = 12					; size = 4
??$_Construct_in_place@PAU?$_Tree_node@U?$pair@$$CBKPAV?$CRef@VCGraphicThing@@@@@std@@PAX@std@@AAPAU12@@std@@YAXAAPAU?$_Tree_node@U?$pair@$$CBKPAV?$CRef@VCGraphicThing@@@@@std@@PAX@0@0@Z PROC ; std::_Construct_in_place<std::_Tree_node<std::pair<unsigned long const ,CRef<CGraphicThing> *>,void *> *,std::_Tree_node<std::pair<unsigned long const ,CRef<CGraphicThing> *>,void *> * &>, COMDAT

; 228  : void _Construct_in_place(_Ty& _Obj, _Types&&... _Args) noexcept(is_nothrow_constructible_v<_Ty, _Types...>) {

  00000	55		 push	 ebp
  00001	8b ec		 mov	 ebp, esp
  00003	83 ec 0c	 sub	 esp, 12			; 0000000cH
; File C:\Program Files (x86)\Microsoft Visual Studio\2019\Community\VC\Tools\MSVC\14.28.29333\include\xstddef

; 275  :     return __builtin_addressof(_Val);

  00006	8b 45 08	 mov	 eax, DWORD PTR __Obj$[ebp]
  00009	89 45 fc	 mov	 DWORD PTR $T3[ebp], eax
; File C:\Program Files (x86)\Microsoft Visual Studio\2019\Community\VC\Tools\MSVC\14.28.29333\include\vcruntime_new.h

; 169  :         return _Where;

  0000c	8b 45 fc	 mov	 eax, DWORD PTR $T3[ebp]
  0000f	89 45 f8	 mov	 DWORD PTR $T2[ebp], eax
; File C:\Program Files (x86)\Microsoft Visual Studio\2019\Community\VC\Tools\MSVC\14.28.29333\include\type_traits

; 1443 :     return static_cast<_Ty&&>(_Arg);

  00012	8b 45 0c	 mov	 eax, DWORD PTR _<_Args_0>$[ebp]
  00015	89 45 f4	 mov	 DWORD PTR $T1[ebp], eax
; File C:\Program Files (x86)\Microsoft Visual Studio\2019\Community\VC\Tools\MSVC\14.28.29333\include\xmemory

; 229  :     ::new (const_cast<void*>(static_cast<const volatile void*>(_STD addressof(_Obj))))

  00018	8b 45 f8	 mov	 eax, DWORD PTR $T2[ebp]
  0001b	8b 4d f4	 mov	 ecx, DWORD PTR $T1[ebp]
  0001e	8b 09		 mov	 ecx, DWORD PTR [ecx]
  00020	89 08		 mov	 DWORD PTR [eax], ecx

; 230  :         _Ty(_STD forward<_Types>(_Args)...);
; 231  : }

  00022	c9		 leave
  00023	c3		 ret	 0
??$_Construct_in_place@PAU?$_Tree_node@U?$pair@$$CBKPAV?$CRef@VCGraphicThing@@@@@std@@PAX@std@@AAPAU12@@std@@YAXAAPAU?$_Tree_node@U?$pair@$$CBKPAV?$CRef@VCGraphicThing@@@@@std@@PAX@0@0@Z ENDP ; std::_Construct_in_place<std::_Tree_node<std::pair<unsigned long const ,CRef<CGraphicThing> *>,void *> *,std::_Tree_node<std::pair<unsigned long const ,CRef<CGraphicThing> *>,void *> * &>
_TEXT	ENDS
; Function compile flags: /Odspy
; File C:\Program Files (x86)\Microsoft Visual Studio\2019\Community\VC\Tools\MSVC\14.28.29333\include\xmemory
; File C:\Program Files (x86)\Microsoft Visual Studio\2019\Community\VC\Tools\MSVC\14.28.29333\include\vcruntime_new.h
; File C:\Program Files (x86)\Microsoft Visual Studio\2019\Community\VC\Tools\MSVC\14.28.29333\include\type_traits
; File C:\Program Files (x86)\Microsoft Visual Studio\2019\Community\VC\Tools\MSVC\14.28.29333\include\xmemory
; File C:\Program Files (x86)\Microsoft Visual Studio\2019\Community\VC\Tools\MSVC\14.28.29333\include\type_traits
; File C:\Program Files (x86)\Microsoft Visual Studio\2019\Community\VC\Tools\MSVC\14.28.29333\include\xmemory
; File D:\Metin2 Server Files\mainline\SRC_2014\Metin2Client\eterGrnLib\ThingInstance.cpp
; File C:\Program Files (x86)\Microsoft Visual Studio\2019\Community\VC\Tools\MSVC\14.28.29333\include\type_traits
; File C:\Program Files (x86)\Microsoft Visual Studio\2019\Community\VC\Tools\MSVC\14.28.29333\include\xmemory
; File C:\Program Files (x86)\Microsoft Visual Studio\2019\Community\VC\Tools\MSVC\14.28.29333\include\tuple
; File C:\Program Files (x86)\Microsoft Visual Studio\2019\Community\VC\Tools\MSVC\14.28.29333\include\type_traits
; File C:\Program Files (x86)\Microsoft Visual Studio\2019\Community\VC\Tools\MSVC\14.28.29333\include\tuple
; File C:\Program Files (x86)\Microsoft Visual Studio\2019\Community\VC\Tools\MSVC\14.28.29333\include\xmemory
;	COMDAT ??$construct@U?$pair@$$CBKPAV?$CRef@VCGraphicThing@@@@@std@@ABUpiecewise_construct_t@2@V?$tuple@ABK@2@V?$tuple@$$V@2@@?$_Default_allocator_traits@V?$allocator@U?$_Tree_node@U?$pair@$$CBKPAV?$CRef@VCGraphicThing@@@@@std@@PAX@std@@@std@@@std@@SAXAAV?$allocator@U?$_Tree_node@U?$pair@$$CBKPAV?$CRef@VCGraphicThing@@@@@std@@PAX@std@@@1@QAU?$pair@$$CBKPAV?$CRef@VCGraphicThing@@@@@1@ABUpiecewise_construct_t@1@$$QAV?$tuple@ABK@1@$$QAV?$tuple@$$V@1@@Z
_TEXT	SEGMENT
_this$ = -52						; size = 4
$T1 = -48						; size = 4
$T2 = -44						; size = 4
$T3 = -40						; size = 4
$T4 = -36						; size = 4
$T5 = -32						; size = 4
_this$ = -28						; size = 4
$T6 = -24						; size = 4
$T7 = -20						; size = 4
___formal$ = -16					; size = 1
___formal$ = -12					; size = 1
___formal$ = -8						; size = 1
$T8 = -3						; size = 1
$T9 = -2						; size = 1
$T10 = -1						; size = 1
___formal$ = 8						; size = 4
__Ptr$ = 12						; size = 4
_<_Args_0>$ = 16					; size = 4
_<_Args_1>$ = 20					; size = 4
_<_Args_2>$ = 24					; size = 4
??$construct@U?$pair@$$CBKPAV?$CRef@VCGraphicThing@@@@@std@@ABUpiecewise_construct_t@2@V?$tuple@ABK@2@V?$tuple@$$V@2@@?$_Default_allocator_traits@V?$allocator@U?$_Tree_node@U?$pair@$$CBKPAV?$CRef@VCGraphicThing@@@@@std@@PAX@std@@@std@@@std@@SAXAAV?$allocator@U?$_Tree_node@U?$pair@$$CBKPAV?$CRef@VCGraphicThing@@@@@std@@PAX@std@@@1@QAU?$pair@$$CBKPAV?$CRef@VCGraphicThing@@@@@1@ABUpiecewise_construct_t@1@$$QAV?$tuple@ABK@1@$$QAV?$tuple@$$V@1@@Z PROC ; std::_Default_allocator_traits<std::allocator<std::_Tree_node<std::pair<unsigned long const ,CRef<CGraphicThing> *>,void *> > >::construct<std::pair<unsigned long const ,CRef<CGraphicThing> *>,std::piecewise_construct_t const &,std::tuple<unsigned long const &>,std::tuple<> >, COMDAT

; 700  :     static void construct(_Alloc&, _Objty* const _Ptr, _Types&&... _Args) {

  00000	55		 push	 ebp
  00001	8b ec		 mov	 ebp, esp
  00003	83 ec 34	 sub	 esp, 52			; 00000034H
; File C:\Program Files (x86)\Microsoft Visual Studio\2019\Community\VC\Tools\MSVC\14.28.29333\include\vcruntime_new.h

; 169  :         return _Where;

  00006	8b 45 0c	 mov	 eax, DWORD PTR __Ptr$[ebp]
  00009	89 45 ec	 mov	 DWORD PTR $T7[ebp], eax
; File C:\Program Files (x86)\Microsoft Visual Studio\2019\Community\VC\Tools\MSVC\14.28.29333\include\type_traits

; 1443 :     return static_cast<_Ty&&>(_Arg);

  0000c	8b 45 18	 mov	 eax, DWORD PTR _<_Args_2>$[ebp]
  0000f	89 45 d0	 mov	 DWORD PTR $T1[ebp], eax
; File C:\Program Files (x86)\Microsoft Visual Studio\2019\Community\VC\Tools\MSVC\14.28.29333\include\xmemory

; 701  :         ::new (const_cast<void*>(static_cast<const volatile void*>(_Ptr))) _Objty(_STD forward<_Types>(_Args)...);

  00012	8d 45 fd	 lea	 eax, DWORD PTR $T8[ebp]
  00015	89 45 cc	 mov	 DWORD PTR _this$[ebp], eax
; File C:\Program Files (x86)\Microsoft Visual Studio\2019\Community\VC\Tools\MSVC\14.28.29333\include\type_traits

; 1443 :     return static_cast<_Ty&&>(_Arg);

  00018	8b 45 14	 mov	 eax, DWORD PTR _<_Args_1>$[ebp]
  0001b	89 45 e8	 mov	 DWORD PTR $T6[ebp], eax
; File C:\Program Files (x86)\Microsoft Visual Studio\2019\Community\VC\Tools\MSVC\14.28.29333\include\xmemory

; 701  :         ::new (const_cast<void*>(static_cast<const volatile void*>(_Ptr))) _Objty(_STD forward<_Types>(_Args)...);

  0001e	8d 45 dc	 lea	 eax, DWORD PTR $T4[ebp]
  00021	89 45 e4	 mov	 DWORD PTR _this$[ebp], eax
; File D:\Metin2 Server Files\mainline\SRC_2014\Metin2Client\eterGrnLib\ThingInstance.cpp

  00024	8b 45 e8	 mov	 eax, DWORD PTR $T6[ebp]
  00027	8b 00		 mov	 eax, DWORD PTR [eax]
  00029	8b 4d e4	 mov	 ecx, DWORD PTR _this$[ebp]
  0002c	89 01		 mov	 DWORD PTR [ecx], eax
; File C:\Program Files (x86)\Microsoft Visual Studio\2019\Community\VC\Tools\MSVC\14.28.29333\include\type_traits

; 1443 :     return static_cast<_Ty&&>(_Arg);

  0002e	8b 45 10	 mov	 eax, DWORD PTR _<_Args_0>$[ebp]
  00031	89 45 e0	 mov	 DWORD PTR $T5[ebp], eax
; File C:\Program Files (x86)\Microsoft Visual Studio\2019\Community\VC\Tools\MSVC\14.28.29333\include\xmemory

; 701  :         ::new (const_cast<void*>(static_cast<const volatile void*>(_Ptr))) _Objty(_STD forward<_Types>(_Args)...);

  00034	8b 45 e0	 mov	 eax, DWORD PTR $T5[ebp]
  00037	8a 00		 mov	 al, BYTE PTR [eax]
  00039	88 45 f8	 mov	 BYTE PTR ___formal$[ebp], al
; File C:\Program Files (x86)\Microsoft Visual Studio\2019\Community\VC\Tools\MSVC\14.28.29333\include\tuple

; 986  :     : pair(_Val1, _Val2, index_sequence_for<_Types1...>{}, index_sequence_for<_Types2...>{}) {}

  0003c	33 c0		 xor	 eax, eax
  0003e	88 45 ff	 mov	 BYTE PTR $T10[ebp], al
  00041	33 c0		 xor	 eax, eax
  00043	88 45 fe	 mov	 BYTE PTR $T9[ebp], al
  00046	8a 45 ff	 mov	 al, BYTE PTR $T10[ebp]
  00049	88 45 f4	 mov	 BYTE PTR ___formal$[ebp], al
  0004c	8a 45 fe	 mov	 al, BYTE PTR $T9[ebp]
  0004f	88 45 f0	 mov	 BYTE PTR ___formal$[ebp], al
; File C:\Program Files (x86)\Microsoft Visual Studio\2019\Community\VC\Tools\MSVC\14.28.29333\include\type_traits

; 1455 :     return static_cast<remove_reference_t<_Ty>&&>(_Arg);

  00052	8d 45 dc	 lea	 eax, DWORD PTR $T4[ebp]
  00055	89 45 d8	 mov	 DWORD PTR $T3[ebp], eax
; File C:\Program Files (x86)\Microsoft Visual Studio\2019\Community\VC\Tools\MSVC\14.28.29333\include\tuple

; 790  :     return static_cast<_Ty&&>(static_cast<_Ttype&>(_Tuple)._Myfirst._Val);

  00058	8b 45 d8	 mov	 eax, DWORD PTR $T3[ebp]
  0005b	8b 00		 mov	 eax, DWORD PTR [eax]
  0005d	89 45 d4	 mov	 DWORD PTR $T2[ebp], eax

; 980  :     : first(_STD get<_Indexes1>(_STD move(_Val1))...), second(_STD get<_Indexes2>(_STD move(_Val2))...) {}

  00060	8b 45 ec	 mov	 eax, DWORD PTR $T7[ebp]
  00063	8b 4d d4	 mov	 ecx, DWORD PTR $T2[ebp]
  00066	8b 09		 mov	 ecx, DWORD PTR [ecx]
  00068	89 08		 mov	 DWORD PTR [eax], ecx
  0006a	8b 45 ec	 mov	 eax, DWORD PTR $T7[ebp]
  0006d	83 60 04 00	 and	 DWORD PTR [eax+4], 0
; File C:\Program Files (x86)\Microsoft Visual Studio\2019\Community\VC\Tools\MSVC\14.28.29333\include\xmemory

; 702  :     }

  00071	c9		 leave
  00072	c3		 ret	 0
??$construct@U?$pair@$$CBKPAV?$CRef@VCGraphicThing@@@@@std@@ABUpiecewise_construct_t@2@V?$tuple@ABK@2@V?$tuple@$$V@2@@?$_Default_allocator_traits@V?$allocator@U?$_Tree_node@U?$pair@$$CBKPAV?$CRef@VCGraphicThing@@@@@std@@PAX@std@@@std@@@std@@SAXAAV?$allocator@U?$_Tree_node@U?$pair@$$CBKPAV?$CRef@VCGraphicThing@@@@@std@@PAX@std@@@1@QAU?$pair@$$CBKPAV?$CRef@VCGraphicThing@@@@@1@ABUpiecewise_construct_t@1@$$QAV?$tuple@ABK@1@$$QAV?$tuple@$$V@1@@Z ENDP ; std::_Default_allocator_traits<std::allocator<std::_Tree_node<std::pair<unsigned long const ,CRef<CGraphicThing> *>,void *> > >::construct<std::pair<unsigned long const ,CRef<CGraphicThing> *>,std::piecewise_construct_t const &,std::tuple<unsigned long const &>,std::tuple<> >
_TEXT	ENDS
; Function compile flags: /Odspy
; File C:\Program Files (x86)\Microsoft Visual Studio\2019\Community\VC\Tools\MSVC\14.28.29333\include\xtree
; File C:\Program Files (x86)\Microsoft Visual Studio\2019\Community\VC\Tools\MSVC\14.28.29333\include\xmemory
; File C:\Program Files (x86)\Microsoft Visual Studio\2019\Community\VC\Tools\MSVC\14.28.29333\include\xtree
; File C:\Program Files (x86)\Microsoft Visual Studio\2019\Community\VC\Tools\MSVC\14.28.29333\include\type_traits
; File C:\Program Files (x86)\Microsoft Visual Studio\2019\Community\VC\Tools\MSVC\14.28.29333\include\xtree
; File C:\Program Files (x86)\Microsoft Visual Studio\2019\Community\VC\Tools\MSVC\14.28.29333\include\xstddef
; File C:\Program Files (x86)\Microsoft Visual Studio\2019\Community\VC\Tools\MSVC\14.28.29333\include\xtree
; File C:\Program Files (x86)\Microsoft Visual Studio\2019\Community\VC\Tools\MSVC\14.28.29333\include\vcruntime_new.h
; File C:\Program Files (x86)\Microsoft Visual Studio\2019\Community\VC\Tools\MSVC\14.28.29333\include\type_traits
; File C:\Program Files (x86)\Microsoft Visual Studio\2019\Community\VC\Tools\MSVC\14.28.29333\include\xmemory
; File C:\Program Files (x86)\Microsoft Visual Studio\2019\Community\VC\Tools\MSVC\14.28.29333\include\xtree
;	COMDAT ??$?0U?$pair@$$CBKPAV?$CRef@VCGraphicThing@@@@@std@@@?$_Tree_temp_node@V?$allocator@U?$_Tree_node@U?$pair@$$CBKPAV?$CRef@VCGraphicThing@@@@@std@@PAX@std@@@std@@@std@@QAE@AAV?$allocator@U?$_Tree_node@U?$pair@$$CBKPAV?$CRef@VCGraphicThing@@@@@std@@PAX@std@@@1@PAU?$_Tree_node@U?$pair@$$CBKPAV?$CRef@VCGraphicThing@@@@@std@@PAX@1@$$QAU?$pair@$$CBKPAV?$CRef@VCGraphicThing@@@@@1@@Z
_TEXT	SEGMENT
___formal$ = -40					; size = 4
$T2 = -36						; size = 4
$T3 = -32						; size = 4
$T4 = -28						; size = 4
$T5 = -24						; size = 4
__Val$ = -20						; size = 4
_this$ = -16						; size = 4
__$EHRec$ = -12						; size = 12
__Al_$ = 8						; size = 4
__Myhead$ = 12						; size = 4
_<_Vals_0>$ = 16					; size = 4
??$?0U?$pair@$$CBKPAV?$CRef@VCGraphicThing@@@@@std@@@?$_Tree_temp_node@V?$allocator@U?$_Tree_node@U?$pair@$$CBKPAV?$CRef@VCGraphicThing@@@@@std@@PAX@std@@@std@@@std@@QAE@AAV?$allocator@U?$_Tree_node@U?$pair@$$CBKPAV?$CRef@VCGraphicThing@@@@@std@@PAX@std@@@1@PAU?$_Tree_node@U?$pair@$$CBKPAV?$CRef@VCGraphicThing@@@@@std@@PAX@1@$$QAU?$pair@$$CBKPAV?$CRef@VCGraphicThing@@@@@1@@Z PROC ; std::_Tree_temp_node<std::allocator<std::_Tree_node<std::pair<unsigned long const ,CRef<CGraphicThing> *>,void *> > >::_Tree_temp_node<std::allocator<std::_Tree_node<std::pair<unsigned long const ,CRef<CGraphicThing> *>,void *> > ><std::pair<unsigned long const ,CRef<CGraphicThing> *> >, COMDAT
; _this$ = ecx

; 805  :         : _Tree_temp_node_alloc<_Alnode>(_Al_) {

  00000	55		 push	 ebp
  00001	8b ec		 mov	 ebp, esp
  00003	6a ff		 push	 -1
  00005	68 00 00 00 00	 push	 __ehhandler$??$?0U?$pair@$$CBKPAV?$CRef@VCGraphicThing@@@@@std@@@?$_Tree_temp_node@V?$allocator@U?$_Tree_node@U?$pair@$$CBKPAV?$CRef@VCGraphicThing@@@@@std@@PAX@std@@@std@@@std@@QAE@AAV?$allocator@U?$_Tree_node@U?$pair@$$CBKPAV?$CRef@VCGraphicThing@@@@@std@@PAX@std@@@1@PAU?$_Tree_node@U?$pair@$$CBKPAV?$CRef@VCGraphicThing@@@@@std@@PAX@1@$$QAU?$pair@$$CBKPAV?$CRef@VCGraphicThing@@@@@1@@Z
  0000a	64 a1 00 00 00
	00		 mov	 eax, DWORD PTR fs:0
  00010	50		 push	 eax
  00011	83 ec 1c	 sub	 esp, 28			; 0000001cH
  00014	a1 00 00 00 00	 mov	 eax, DWORD PTR ___security_cookie
  00019	33 c5		 xor	 eax, ebp
  0001b	50		 push	 eax
  0001c	8d 45 f4	 lea	 eax, DWORD PTR __$EHRec$[ebp]
  0001f	64 a3 00 00 00
	00		 mov	 DWORD PTR fs:0, eax
  00025	89 4d f0	 mov	 DWORD PTR _this$[ebp], ecx
; File C:\Program Files (x86)\Microsoft Visual Studio\2019\Community\VC\Tools\MSVC\14.28.29333\include\xmemory

; 1045 :     explicit _Alloc_construct_ptr(_Alloc& _Al_) : _Al(_Al_), _Ptr(nullptr) {}

  00028	8b 45 f0	 mov	 eax, DWORD PTR _this$[ebp]
  0002b	8b 4d 08	 mov	 ecx, DWORD PTR __Al_$[ebp]
  0002e	89 08		 mov	 DWORD PTR [eax], ecx
  00030	8b 45 f0	 mov	 eax, DWORD PTR _this$[ebp]
  00033	83 60 04 00	 and	 DWORD PTR [eax+4], 0
; File C:\Program Files (x86)\Microsoft Visual Studio\2019\Community\VC\Tools\MSVC\14.28.29333\include\xtree

; 784  :     explicit _Tree_temp_node_alloc(_Alnode& _Al_) : _Alloc_construct_ptr<_Alnode>(_Al_) {

  00037	83 65 fc 00	 and	 DWORD PTR __$EHRec$[ebp+8], 0

; 785  :         _Alloc_construct_ptr<_Alnode>::_Allocate();

  0003b	8b 4d f0	 mov	 ecx, DWORD PTR _this$[ebp]
  0003e	e8 00 00 00 00	 call	 ?_Allocate@?$_Alloc_construct_ptr@V?$allocator@U?$_Tree_node@U?$pair@$$CBKPAV?$CRef@VCGraphicThing@@@@@std@@PAX@std@@@std@@@std@@QAEXXZ ; std::_Alloc_construct_ptr<std::allocator<std::_Tree_node<std::pair<unsigned long const ,CRef<CGraphicThing> *>,void *> > >::_Allocate

; 786  :     }

  00043	83 4d fc ff	 or	 DWORD PTR __$EHRec$[ebp+8], -1
; File C:\Program Files (x86)\Microsoft Visual Studio\2019\Community\VC\Tools\MSVC\14.28.29333\include\type_traits

; 1443 :     return static_cast<_Ty&&>(_Arg);

  00047	8b 45 10	 mov	 eax, DWORD PTR _<_Vals_0>$[ebp]
  0004a	89 45 e4	 mov	 DWORD PTR $T4[ebp], eax
; File C:\Program Files (x86)\Microsoft Visual Studio\2019\Community\VC\Tools\MSVC\14.28.29333\include\xtree

; 806  :         _Alnode_traits::construct(this->_Al, _STD addressof(this->_Ptr->_Myval), _STD forward<_Valtys>(_Vals)...);

  0004d	8b 45 f0	 mov	 eax, DWORD PTR _this$[ebp]
  00050	8b 40 04	 mov	 eax, DWORD PTR [eax+4]
  00053	83 c0 10	 add	 eax, 16			; 00000010H
  00056	89 45 ec	 mov	 DWORD PTR __Val$[ebp], eax
; File C:\Program Files (x86)\Microsoft Visual Studio\2019\Community\VC\Tools\MSVC\14.28.29333\include\xstddef

; 275  :     return __builtin_addressof(_Val);

  00059	8b 45 ec	 mov	 eax, DWORD PTR __Val$[ebp]
  0005c	89 45 e8	 mov	 DWORD PTR $T5[ebp], eax
; File C:\Program Files (x86)\Microsoft Visual Studio\2019\Community\VC\Tools\MSVC\14.28.29333\include\xtree

; 806  :         _Alnode_traits::construct(this->_Al, _STD addressof(this->_Ptr->_Myval), _STD forward<_Valtys>(_Vals)...);

  0005f	8b 45 f0	 mov	 eax, DWORD PTR _this$[ebp]
  00062	8b 00		 mov	 eax, DWORD PTR [eax]
  00064	89 45 d8	 mov	 DWORD PTR ___formal$[ebp], eax
; File C:\Program Files (x86)\Microsoft Visual Studio\2019\Community\VC\Tools\MSVC\14.28.29333\include\vcruntime_new.h

; 169  :         return _Where;

  00067	8b 45 e8	 mov	 eax, DWORD PTR $T5[ebp]
  0006a	89 45 dc	 mov	 DWORD PTR $T2[ebp], eax
; File C:\Program Files (x86)\Microsoft Visual Studio\2019\Community\VC\Tools\MSVC\14.28.29333\include\type_traits

; 1443 :     return static_cast<_Ty&&>(_Arg);

  0006d	8b 45 e4	 mov	 eax, DWORD PTR $T4[ebp]
  00070	89 45 e0	 mov	 DWORD PTR $T3[ebp], eax
; File C:\Program Files (x86)\Microsoft Visual Studio\2019\Community\VC\Tools\MSVC\14.28.29333\include\xmemory

; 701  :         ::new (const_cast<void*>(static_cast<const volatile void*>(_Ptr))) _Objty(_STD forward<_Types>(_Args)...);

  00073	8b 45 e0	 mov	 eax, DWORD PTR $T3[ebp]
  00076	8b 08		 mov	 ecx, DWORD PTR [eax]
  00078	8b 40 04	 mov	 eax, DWORD PTR [eax+4]
  0007b	8b 55 dc	 mov	 edx, DWORD PTR $T2[ebp]
  0007e	89 0a		 mov	 DWORD PTR [edx], ecx
  00080	89 42 04	 mov	 DWORD PTR [edx+4], eax
; File C:\Program Files (x86)\Microsoft Visual Studio\2019\Community\VC\Tools\MSVC\14.28.29333\include\xtree

; 807  :         _Construct_in_place(this->_Ptr->_Left, _Myhead);

  00083	8d 45 0c	 lea	 eax, DWORD PTR __Myhead$[ebp]
  00086	50		 push	 eax
  00087	8b 45 f0	 mov	 eax, DWORD PTR _this$[ebp]
  0008a	ff 70 04	 push	 DWORD PTR [eax+4]
  0008d	e8 00 00 00 00	 call	 ??$_Construct_in_place@PAU?$_Tree_node@U?$pair@$$CBKPAV?$CRef@VCGraphicThing@@@@@std@@PAX@std@@AAPAU12@@std@@YAXAAPAU?$_Tree_node@U?$pair@$$CBKPAV?$CRef@VCGraphicThing@@@@@std@@PAX@0@0@Z ; std::_Construct_in_place<std::_Tree_node<std::pair<unsigned long const ,CRef<CGraphicThing> *>,void *> *,std::_Tree_node<std::pair<unsigned long const ,CRef<CGraphicThing> *>,void *> * &>
  00092	59		 pop	 ecx
  00093	59		 pop	 ecx

; 808  :         _Construct_in_place(this->_Ptr->_Parent, _Myhead);

  00094	8d 45 0c	 lea	 eax, DWORD PTR __Myhead$[ebp]
  00097	50		 push	 eax
  00098	8b 45 f0	 mov	 eax, DWORD PTR _this$[ebp]
  0009b	8b 40 04	 mov	 eax, DWORD PTR [eax+4]
  0009e	83 c0 04	 add	 eax, 4
  000a1	50		 push	 eax
  000a2	e8 00 00 00 00	 call	 ??$_Construct_in_place@PAU?$_Tree_node@U?$pair@$$CBKPAV?$CRef@VCGraphicThing@@@@@std@@PAX@std@@AAPAU12@@std@@YAXAAPAU?$_Tree_node@U?$pair@$$CBKPAV?$CRef@VCGraphicThing@@@@@std@@PAX@0@0@Z ; std::_Construct_in_place<std::_Tree_node<std::pair<unsigned long const ,CRef<CGraphicThing> *>,void *> *,std::_Tree_node<std::pair<unsigned long const ,CRef<CGraphicThing> *>,void *> * &>
  000a7	59		 pop	 ecx
  000a8	59		 pop	 ecx

; 809  :         _Construct_in_place(this->_Ptr->_Right, _Myhead);

  000a9	8d 45 0c	 lea	 eax, DWORD PTR __Myhead$[ebp]
  000ac	50		 push	 eax
  000ad	8b 45 f0	 mov	 eax, DWORD PTR _this$[ebp]
  000b0	8b 40 04	 mov	 eax, DWORD PTR [eax+4]
  000b3	83 c0 08	 add	 eax, 8
  000b6	50		 push	 eax
  000b7	e8 00 00 00 00	 call	 ??$_Construct_in_place@PAU?$_Tree_node@U?$pair@$$CBKPAV?$CRef@VCGraphicThing@@@@@std@@PAX@std@@AAPAU12@@std@@YAXAAPAU?$_Tree_node@U?$pair@$$CBKPAV?$CRef@VCGraphicThing@@@@@std@@PAX@0@0@Z ; std::_Construct_in_place<std::_Tree_node<std::pair<unsigned long const ,CRef<CGraphicThing> *>,void *> *,std::_Tree_node<std::pair<unsigned long const ,CRef<CGraphicThing> *>,void *> * &>
  000bc	59		 pop	 ecx
  000bd	59		 pop	 ecx

; 810  :         this->_Ptr->_Color = _Red;

  000be	8b 45 f0	 mov	 eax, DWORD PTR _this$[ebp]
  000c1	8b 40 04	 mov	 eax, DWORD PTR [eax+4]
  000c4	c6 40 0c 00	 mov	 BYTE PTR [eax+12], 0

; 811  :         this->_Ptr->_Isnil = false;

  000c8	8b 45 f0	 mov	 eax, DWORD PTR _this$[ebp]
  000cb	8b 40 04	 mov	 eax, DWORD PTR [eax+4]
  000ce	c6 40 0d 00	 mov	 BYTE PTR [eax+13], 0

; 812  :     }

  000d2	8b 45 f0	 mov	 eax, DWORD PTR _this$[ebp]
  000d5	8b 4d f4	 mov	 ecx, DWORD PTR __$EHRec$[ebp]
  000d8	64 89 0d 00 00
	00 00		 mov	 DWORD PTR fs:0, ecx
  000df	59		 pop	 ecx
  000e0	c9		 leave
  000e1	c2 0c 00	 ret	 12			; 0000000cH
_TEXT	ENDS
;	COMDAT text$x
text$x	SEGMENT
__unwindfunclet$??$?0U?$pair@$$CBKPAV?$CRef@VCGraphicThing@@@@@std@@@?$_Tree_temp_node@V?$allocator@U?$_Tree_node@U?$pair@$$CBKPAV?$CRef@VCGraphicThing@@@@@std@@PAX@std@@@std@@@std@@QAE@AAV?$allocator@U?$_Tree_node@U?$pair@$$CBKPAV?$CRef@VCGraphicThing@@@@@std@@PAX@std@@@1@PAU?$_Tree_node@U?$pair@$$CBKPAV?$CRef@VCGraphicThing@@@@@std@@PAX@1@$$QAU?$pair@$$CBKPAV?$CRef@VCGraphicThing@@@@@1@@Z$1:
  00000	8b 4d f0	 mov	 ecx, DWORD PTR _this$[ebp]
  00003	e9 00 00 00 00	 jmp	 ??1?$_Alloc_construct_ptr@V?$allocator@U?$_Tree_node@U?$pair@$$CBKPAV?$CRef@VCGraphicThing@@@@@std@@PAX@std@@@std@@@std@@QAE@XZ ; std::_Alloc_construct_ptr<std::allocator<std::_Tree_node<std::pair<unsigned long const ,CRef<CGraphicThing> *>,void *> > >::~_Alloc_construct_ptr<std::allocator<std::_Tree_node<std::pair<unsigned long const ,CRef<CGraphicThing> *>,void *> > >
  00008	cc		 int	 3
  00009	cc		 int	 3
  0000a	cc		 int	 3
  0000b	cc		 int	 3
  0000c	cc		 int	 3
__ehhandler$??$?0U?$pair@$$CBKPAV?$CRef@VCGraphicThing@@@@@std@@@?$_Tree_temp_node@V?$allocator@U?$_Tree_node@U?$pair@$$CBKPAV?$CRef@VCGraphicThing@@@@@std@@PAX@std@@@std@@@std@@QAE@AAV?$allocator@U?$_Tree_node@U?$pair@$$CBKPAV?$CRef@VCGraphicThing@@@@@std@@PAX@std@@@1@PAU?$_Tree_node@U?$pair@$$CBKPAV?$CRef@VCGraphicThing@@@@@std@@PAX@1@$$QAU?$pair@$$CBKPAV?$CRef@VCGraphicThing@@@@@1@@Z:
  0000d	90		 npad	 1
  0000e	90		 npad	 1
  0000f	8b 54 24 08	 mov	 edx, DWORD PTR [esp+8]
  00013	8d 42 0c	 lea	 eax, DWORD PTR [edx+12]
  00016	8b 4a e0	 mov	 ecx, DWORD PTR [edx-32]
  00019	33 c8		 xor	 ecx, eax
  0001b	e8 00 00 00 00	 call	 @__security_check_cookie@4
  00020	b8 00 00 00 00	 mov	 eax, OFFSET __ehfuncinfo$??$?0U?$pair@$$CBKPAV?$CRef@VCGraphicThing@@@@@std@@@?$_Tree_temp_node@V?$allocator@U?$_Tree_node@U?$pair@$$CBKPAV?$CRef@VCGraphicThing@@@@@std@@PAX@std@@@std@@@std@@QAE@AAV?$allocator@U?$_Tree_node@U?$pair@$$CBKPAV?$CRef@VCGraphicThing@@@@@std@@PAX@std@@@1@PAU?$_Tree_node@U?$pair@$$CBKPAV?$CRef@VCGraphicThing@@@@@std@@PAX@1@$$QAU?$pair@$$CBKPAV?$CRef@VCGraphicThing@@@@@1@@Z
  00025	e9 00 00 00 00	 jmp	 ___CxxFrameHandler3
text$x	ENDS
??$?0U?$pair@$$CBKPAV?$CRef@VCGraphicThing@@@@@std@@@?$_Tree_temp_node@V?$allocator@U?$_Tree_node@U?$pair@$$CBKPAV?$CRef@VCGraphicThing@@@@@std@@PAX@std@@@std@@@std@@QAE@AAV?$allocator@U?$_Tree_node@U?$pair@$$CBKPAV?$CRef@VCGraphicThing@@@@@std@@PAX@std@@@1@PAU?$_Tree_node@U?$pair@$$CBKPAV?$CRef@VCGraphicThing@@@@@std@@PAX@1@$$QAU?$pair@$$CBKPAV?$CRef@VCGraphicThing@@@@@1@@Z ENDP ; std::_Tree_temp_node<std::allocator<std::_Tree_node<std::pair<unsigned long const ,CRef<CGraphicThing> *>,void *> > >::_Tree_temp_node<std::allocator<std::_Tree_node<std::pair<unsigned long const ,CRef<CGraphicThing> *>,void *> > ><std::pair<unsigned long const ,CRef<CGraphicThing> *> >
; Function compile flags: /Odspy
; File C:\Program Files (x86)\Microsoft Visual Studio\2019\Community\VC\Tools\MSVC\14.28.29333\include\xmemory
; File C:\Program Files (x86)\Microsoft Visual Studio\2019\Community\VC\Tools\MSVC\14.28.29333\include\xstddef
; File C:\Program Files (x86)\Microsoft Visual Studio\2019\Community\VC\Tools\MSVC\14.28.29333\include\xmemory
;	COMDAT ??$_Uninitialized_move@PAPAV?$CRef@VCGraphicThing@@@@V?$allocator@PAV?$CRef@VCGraphicThing@@@@@std@@@std@@YAPAPAV?$CRef@VCGraphicThing@@@@QAPAV1@0PAPAV1@AAV?$allocator@PAV?$CRef@VCGraphicThing@@@@@0@@Z
_TEXT	SEGMENT
$T1 = -12						; size = 4
__UFirst$ = -8						; size = 4
__ULast$ = -4						; size = 4
__First$ = 8						; size = 4
__Last$ = 12						; size = 4
__Dest$ = 16						; size = 4
__Al$ = 20						; size = 4
??$_Uninitialized_move@PAPAV?$CRef@VCGraphicThing@@@@V?$allocator@PAV?$CRef@VCGraphicThing@@@@@std@@@std@@YAPAPAV?$CRef@VCGraphicThing@@@@QAPAV1@0PAPAV1@AAV?$allocator@PAV?$CRef@VCGraphicThing@@@@@0@@Z PROC ; std::_Uninitialized_move<CRef<CGraphicThing> * *,std::allocator<CRef<CGraphicThing> *> >, COMDAT

; 1685 :     const _InIt _First, const _InIt _Last, _Alloc_ptr_t<_Alloc> _Dest, _Alloc& _Al) {

  00000	55		 push	 ebp
  00001	8b ec		 mov	 ebp, esp
  00003	83 ec 0c	 sub	 esp, 12			; 0000000cH

; 1686 :     // move [_First, _Last) to raw _Dest, using _Al
; 1687 :     // note: only called internally from elsewhere in the STL
; 1688 :     using _Ptrval     = typename _Alloc::value_type*;
; 1689 :     auto _UFirst      = _Get_unwrapped(_First);

  00006	8b 45 08	 mov	 eax, DWORD PTR __First$[ebp]
  00009	89 45 f8	 mov	 DWORD PTR __UFirst$[ebp], eax

; 1690 :     const auto _ULast = _Get_unwrapped(_Last);

  0000c	8b 45 0c	 mov	 eax, DWORD PTR __Last$[ebp]
  0000f	89 45 fc	 mov	 DWORD PTR __ULast$[ebp], eax
; File C:\Program Files (x86)\Microsoft Visual Studio\2019\Community\VC\Tools\MSVC\14.28.29333\include\xstddef

; 289  :     return _Ptr;

  00012	8b 45 10	 mov	 eax, DWORD PTR __Dest$[ebp]
  00015	89 45 f4	 mov	 DWORD PTR $T1[ebp], eax
; File C:\Program Files (x86)\Microsoft Visual Studio\2019\Community\VC\Tools\MSVC\14.28.29333\include\xmemory

; 1693 :         _Copy_memmove(_UFirst, _ULast, _Unfancy(_Dest));

  00018	ff 75 f4	 push	 DWORD PTR $T1[ebp]
  0001b	ff 75 fc	 push	 DWORD PTR __ULast$[ebp]
  0001e	ff 75 f8	 push	 DWORD PTR __UFirst$[ebp]
  00021	e8 00 00 00 00	 call	 ??$_Copy_memmove@PAPAV?$CRef@VCGraphicThing@@@@PAPAV1@@std@@YAPAPAV?$CRef@VCGraphicThing@@@@PAPAV1@00@Z ; std::_Copy_memmove<CRef<CGraphicThing> * *,CRef<CGraphicThing> * *>
  00026	83 c4 0c	 add	 esp, 12			; 0000000cH

; 1694 :         return _Dest + (_ULast - _UFirst);

  00029	8b 45 fc	 mov	 eax, DWORD PTR __ULast$[ebp]
  0002c	2b 45 f8	 sub	 eax, DWORD PTR __UFirst$[ebp]
  0002f	c1 f8 02	 sar	 eax, 2
  00032	8b 4d 10	 mov	 ecx, DWORD PTR __Dest$[ebp]
  00035	8d 04 81	 lea	 eax, DWORD PTR [ecx+eax*4]

; 1695 :     } else {
; 1696 :         _Uninitialized_backout_al<_Alloc> _Backout{_Dest, _Al};
; 1697 :         for (; _UFirst != _ULast; ++_UFirst) {
; 1698 :             _Backout._Emplace_back(_STD move(*_UFirst));
; 1699 :         }
; 1700 : 
; 1701 :         return _Backout._Release();
; 1702 :     }
; 1703 : }

  00038	c9		 leave
  00039	c3		 ret	 0
??$_Uninitialized_move@PAPAV?$CRef@VCGraphicThing@@@@V?$allocator@PAV?$CRef@VCGraphicThing@@@@@std@@@std@@YAPAPAV?$CRef@VCGraphicThing@@@@QAPAV1@0PAPAV1@AAV?$allocator@PAV?$CRef@VCGraphicThing@@@@@0@@Z ENDP ; std::_Uninitialized_move<CRef<CGraphicThing> * *,std::allocator<CRef<CGraphicThing> *> >
_TEXT	ENDS
; Function compile flags: /Odspy
; File C:\Program Files (x86)\Microsoft Visual Studio\2019\Community\VC\Tools\MSVC\14.28.29333\include\xmemory
;	COMDAT ??$_Destroy_range@V?$allocator@PAV?$CRef@VCGraphicThing@@@@@std@@@std@@YAXPAPAV?$CRef@VCGraphicThing@@@@QAPAV1@AAV?$allocator@PAV?$CRef@VCGraphicThing@@@@@0@@Z
_TEXT	SEGMENT
__First$ = 8						; size = 4
__Last$ = 12						; size = 4
__Al$ = 16						; size = 4
??$_Destroy_range@V?$allocator@PAV?$CRef@VCGraphicThing@@@@@std@@@std@@YAXPAPAV?$CRef@VCGraphicThing@@@@QAPAV1@AAV?$allocator@PAV?$CRef@VCGraphicThing@@@@@0@@Z PROC ; std::_Destroy_range<std::allocator<CRef<CGraphicThing> *> >, COMDAT

; 962  :     _Alloc_ptr_t<_Alloc> _First, const _Alloc_ptr_t<_Alloc> _Last, _Alloc& _Al) noexcept {

  00000	55		 push	 ebp
  00001	8b ec		 mov	 ebp, esp

; 963  :     // note that this is an optimization for debug mode codegen; in release mode the BE removes all of this
; 964  :     using _Ty = typename _Alloc::value_type;
; 965  :     if _CONSTEXPR_IF (!conjunction_v<is_trivially_destructible<_Ty>, _Uses_default_destroy<_Alloc, _Ty*>>) {
; 966  :         for (; _First != _Last; ++_First) {
; 967  :             allocator_traits<_Alloc>::destroy(_Al, _Unfancy(_First));
; 968  :         }
; 969  :     }
; 970  : }

  00003	5d		 pop	 ebp
  00004	c3		 ret	 0
??$_Destroy_range@V?$allocator@PAV?$CRef@VCGraphicThing@@@@@std@@@std@@YAXPAPAV?$CRef@VCGraphicThing@@@@QAPAV1@AAV?$allocator@PAV?$CRef@VCGraphicThing@@@@@0@@Z ENDP ; std::_Destroy_range<std::allocator<CRef<CGraphicThing> *> >
_TEXT	ENDS
; Function compile flags: /Odspy
; File C:\Program Files (x86)\Microsoft Visual Studio\2019\Community\VC\Tools\MSVC\14.28.29333\include\xmemory
; File C:\Program Files (x86)\Microsoft Visual Studio\2019\Community\VC\Tools\MSVC\14.28.29333\include\xstddef
; File C:\Program Files (x86)\Microsoft Visual Studio\2019\Community\VC\Tools\MSVC\14.28.29333\include\xmemory
;	COMDAT ??$_Uninitialized_move@PAPAVCGrannyLODController@@V?$allocator@PAVCGrannyLODController@@@std@@@std@@YAPAPAVCGrannyLODController@@QAPAV1@0PAPAV1@AAV?$allocator@PAVCGrannyLODController@@@0@@Z
_TEXT	SEGMENT
$T1 = -12						; size = 4
__UFirst$ = -8						; size = 4
__ULast$ = -4						; size = 4
__First$ = 8						; size = 4
__Last$ = 12						; size = 4
__Dest$ = 16						; size = 4
__Al$ = 20						; size = 4
??$_Uninitialized_move@PAPAVCGrannyLODController@@V?$allocator@PAVCGrannyLODController@@@std@@@std@@YAPAPAVCGrannyLODController@@QAPAV1@0PAPAV1@AAV?$allocator@PAVCGrannyLODController@@@0@@Z PROC ; std::_Uninitialized_move<CGrannyLODController * *,std::allocator<CGrannyLODController *> >, COMDAT

; 1685 :     const _InIt _First, const _InIt _Last, _Alloc_ptr_t<_Alloc> _Dest, _Alloc& _Al) {

  00000	55		 push	 ebp
  00001	8b ec		 mov	 ebp, esp
  00003	83 ec 0c	 sub	 esp, 12			; 0000000cH

; 1686 :     // move [_First, _Last) to raw _Dest, using _Al
; 1687 :     // note: only called internally from elsewhere in the STL
; 1688 :     using _Ptrval     = typename _Alloc::value_type*;
; 1689 :     auto _UFirst      = _Get_unwrapped(_First);

  00006	8b 45 08	 mov	 eax, DWORD PTR __First$[ebp]
  00009	89 45 f8	 mov	 DWORD PTR __UFirst$[ebp], eax

; 1690 :     const auto _ULast = _Get_unwrapped(_Last);

  0000c	8b 45 0c	 mov	 eax, DWORD PTR __Last$[ebp]
  0000f	89 45 fc	 mov	 DWORD PTR __ULast$[ebp], eax
; File C:\Program Files (x86)\Microsoft Visual Studio\2019\Community\VC\Tools\MSVC\14.28.29333\include\xstddef

; 289  :     return _Ptr;

  00012	8b 45 10	 mov	 eax, DWORD PTR __Dest$[ebp]
  00015	89 45 f4	 mov	 DWORD PTR $T1[ebp], eax
; File C:\Program Files (x86)\Microsoft Visual Studio\2019\Community\VC\Tools\MSVC\14.28.29333\include\xmemory

; 1693 :         _Copy_memmove(_UFirst, _ULast, _Unfancy(_Dest));

  00018	ff 75 f4	 push	 DWORD PTR $T1[ebp]
  0001b	ff 75 fc	 push	 DWORD PTR __ULast$[ebp]
  0001e	ff 75 f8	 push	 DWORD PTR __UFirst$[ebp]
  00021	e8 00 00 00 00	 call	 ??$_Copy_memmove@PAPAVCGrannyLODController@@PAPAV1@@std@@YAPAPAVCGrannyLODController@@PAPAV1@00@Z ; std::_Copy_memmove<CGrannyLODController * *,CGrannyLODController * *>
  00026	83 c4 0c	 add	 esp, 12			; 0000000cH

; 1694 :         return _Dest + (_ULast - _UFirst);

  00029	8b 45 fc	 mov	 eax, DWORD PTR __ULast$[ebp]
  0002c	2b 45 f8	 sub	 eax, DWORD PTR __UFirst$[ebp]
  0002f	c1 f8 02	 sar	 eax, 2
  00032	8b 4d 10	 mov	 ecx, DWORD PTR __Dest$[ebp]
  00035	8d 04 81	 lea	 eax, DWORD PTR [ecx+eax*4]

; 1695 :     } else {
; 1696 :         _Uninitialized_backout_al<_Alloc> _Backout{_Dest, _Al};
; 1697 :         for (; _UFirst != _ULast; ++_UFirst) {
; 1698 :             _Backout._Emplace_back(_STD move(*_UFirst));
; 1699 :         }
; 1700 : 
; 1701 :         return _Backout._Release();
; 1702 :     }
; 1703 : }

  00038	c9		 leave
  00039	c3		 ret	 0
??$_Uninitialized_move@PAPAVCGrannyLODController@@V?$allocator@PAVCGrannyLODController@@@std@@@std@@YAPAPAVCGrannyLODController@@QAPAV1@0PAPAV1@AAV?$allocator@PAVCGrannyLODController@@@0@@Z ENDP ; std::_Uninitialized_move<CGrannyLODController * *,std::allocator<CGrannyLODController *> >
_TEXT	ENDS
; Function compile flags: /Odspy
; File C:\Program Files (x86)\Microsoft Visual Studio\2019\Community\VC\Tools\MSVC\14.28.29333\include\xmemory
;	COMDAT ??$_Uninitialized_value_construct_n@V?$allocator@USModelThingSet@CGraphicThingInstance@@@std@@@std@@YAPAUSModelThingSet@CGraphicThingInstance@@PAU12@IAAV?$allocator@USModelThingSet@CGraphicThingInstance@@@0@@Z
_TEXT	SEGMENT
__Backout$2 = -28					; size = 12
$T3 = -16						; size = 4
__$EHRec$ = -12						; size = 12
__First$ = 8						; size = 4
__Count$ = 12						; size = 4
__Al$ = 16						; size = 4
??$_Uninitialized_value_construct_n@V?$allocator@USModelThingSet@CGraphicThingInstance@@@std@@@std@@YAPAUSModelThingSet@CGraphicThingInstance@@PAU12@IAAV?$allocator@USModelThingSet@CGraphicThingInstance@@@0@@Z PROC ; std::_Uninitialized_value_construct_n<std::allocator<CGraphicThingInstance::SModelThingSet> >, COMDAT

; 1862 :     _Alloc_ptr_t<_Alloc> _First, _Alloc_size_t<_Alloc> _Count, _Alloc& _Al) {

  00000	55		 push	 ebp
  00001	8b ec		 mov	 ebp, esp
  00003	6a ff		 push	 -1
  00005	68 00 00 00 00	 push	 __ehhandler$??$_Uninitialized_value_construct_n@V?$allocator@USModelThingSet@CGraphicThingInstance@@@std@@@std@@YAPAUSModelThingSet@CGraphicThingInstance@@PAU12@IAAV?$allocator@USModelThingSet@CGraphicThingInstance@@@0@@Z
  0000a	64 a1 00 00 00
	00		 mov	 eax, DWORD PTR fs:0
  00010	50		 push	 eax
  00011	83 ec 10	 sub	 esp, 16			; 00000010H
  00014	a1 00 00 00 00	 mov	 eax, DWORD PTR ___security_cookie
  00019	33 c5		 xor	 eax, ebp
  0001b	50		 push	 eax
  0001c	8d 45 f4	 lea	 eax, DWORD PTR __$EHRec$[ebp]
  0001f	64 a3 00 00 00
	00		 mov	 DWORD PTR fs:0, eax

; 1535 :     _Uninitialized_backout_al(pointer _Dest, _Alloc& _Al_) : _First(_Dest), _Last(_Dest), _Al(_Al_) {}

  00025	8b 45 08	 mov	 eax, DWORD PTR __First$[ebp]
  00028	89 45 e4	 mov	 DWORD PTR __Backout$2[ebp], eax
  0002b	8b 45 08	 mov	 eax, DWORD PTR __First$[ebp]
  0002e	89 45 e8	 mov	 DWORD PTR __Backout$2[ebp+4], eax
  00031	8b 45 10	 mov	 eax, DWORD PTR __Al$[ebp]
  00034	89 45 ec	 mov	 DWORD PTR __Backout$2[ebp+8], eax

; 1863 :     // value-initialize _Count objects to raw _First, using _Al
; 1864 :     using _Ptrty = typename _Alloc::value_type*;
; 1865 :     if constexpr (_Use_memset_value_construct_v<_Ptrty> && _Uses_default_construct<_Alloc, _Ptrty>::value) {
; 1866 :         auto _PFirst = _Unfancy(_First);
; 1867 :         _Zero_range(_PFirst, _PFirst + _Count);
; 1868 :         return _First + _Count;
; 1869 :     } else {
; 1870 :         _Uninitialized_backout_al<_Alloc> _Backout{_First, _Al};

  00037	83 65 fc 00	 and	 DWORD PTR __$EHRec$[ebp+8], 0

; 1871 :         for (; 0 < _Count; --_Count) {

  0003b	eb 07		 jmp	 SHORT $LN4@Uninitiali
$LN2@Uninitiali:
  0003d	8b 45 0c	 mov	 eax, DWORD PTR __Count$[ebp]
  00040	48		 dec	 eax
  00041	89 45 0c	 mov	 DWORD PTR __Count$[ebp], eax
$LN4@Uninitiali:
  00044	83 7d 0c 00	 cmp	 DWORD PTR __Count$[ebp], 0
  00048	76 0a		 jbe	 SHORT $LN3@Uninitiali

; 1872 :             _Backout._Emplace_back();

  0004a	8d 4d e4	 lea	 ecx, DWORD PTR __Backout$2[ebp]
  0004d	e8 00 00 00 00	 call	 ??$_Emplace_back@$$V@?$_Uninitialized_backout_al@V?$allocator@USModelThingSet@CGraphicThingInstance@@@std@@@std@@QAEXXZ ; std::_Uninitialized_backout_al<std::allocator<CGraphicThingInstance::SModelThingSet> >::_Emplace_back<>

; 1873 :         }

  00052	eb e9		 jmp	 SHORT $LN2@Uninitiali
$LN3@Uninitiali:

; 1551 :         _First = _Last;

  00054	8b 45 e8	 mov	 eax, DWORD PTR __Backout$2[ebp+4]
  00057	89 45 e4	 mov	 DWORD PTR __Backout$2[ebp], eax

; 1552 :         return _Last;

  0005a	8b 45 e8	 mov	 eax, DWORD PTR __Backout$2[ebp+4]
  0005d	89 45 f0	 mov	 DWORD PTR $T3[ebp], eax

; 1874 : 
; 1875 :         return _Backout._Release();

  00060	83 4d fc ff	 or	 DWORD PTR __$EHRec$[ebp+8], -1

; 1541 :         _Destroy_range(_First, _Last, _Al);

  00064	ff 75 ec	 push	 DWORD PTR __Backout$2[ebp+8]
  00067	ff 75 e8	 push	 DWORD PTR __Backout$2[ebp+4]
  0006a	ff 75 e4	 push	 DWORD PTR __Backout$2[ebp]
  0006d	e8 00 00 00 00	 call	 ??$_Destroy_range@V?$allocator@USModelThingSet@CGraphicThingInstance@@@std@@@std@@YAXPAUSModelThingSet@CGraphicThingInstance@@QAU12@AAV?$allocator@USModelThingSet@CGraphicThingInstance@@@0@@Z ; std::_Destroy_range<std::allocator<CGraphicThingInstance::SModelThingSet> >
  00072	83 c4 0c	 add	 esp, 12			; 0000000cH

; 1874 : 
; 1875 :         return _Backout._Release();

  00075	8b 45 f0	 mov	 eax, DWORD PTR $T3[ebp]

; 1876 :     }
; 1877 : }

  00078	8b 4d f4	 mov	 ecx, DWORD PTR __$EHRec$[ebp]
  0007b	64 89 0d 00 00
	00 00		 mov	 DWORD PTR fs:0, ecx
  00082	59		 pop	 ecx
  00083	c9		 leave
  00084	c3		 ret	 0
_TEXT	ENDS
;	COMDAT text$x
text$x	SEGMENT
__unwindfunclet$??$_Uninitialized_value_construct_n@V?$allocator@USModelThingSet@CGraphicThingInstance@@@std@@@std@@YAPAUSModelThingSet@CGraphicThingInstance@@PAU12@IAAV?$allocator@USModelThingSet@CGraphicThingInstance@@@0@@Z$0:
  00000	8d 4d e4	 lea	 ecx, DWORD PTR __Backout$2[ebp]
  00003	e9 00 00 00 00	 jmp	 ??1?$_Uninitialized_backout_al@V?$allocator@USModelThingSet@CGraphicThingInstance@@@std@@@std@@QAE@XZ ; std::_Uninitialized_backout_al<std::allocator<CGraphicThingInstance::SModelThingSet> >::~_Uninitialized_backout_al<std::allocator<CGraphicThingInstance::SModelThingSet> >
  00008	cc		 int	 3
  00009	cc		 int	 3
  0000a	cc		 int	 3
  0000b	cc		 int	 3
  0000c	cc		 int	 3
__ehhandler$??$_Uninitialized_value_construct_n@V?$allocator@USModelThingSet@CGraphicThingInstance@@@std@@@std@@YAPAUSModelThingSet@CGraphicThingInstance@@PAU12@IAAV?$allocator@USModelThingSet@CGraphicThingInstance@@@0@@Z:
  0000d	90		 npad	 1
  0000e	90		 npad	 1
  0000f	8b 54 24 08	 mov	 edx, DWORD PTR [esp+8]
  00013	8d 42 0c	 lea	 eax, DWORD PTR [edx+12]
  00016	8b 4a ec	 mov	 ecx, DWORD PTR [edx-20]
  00019	33 c8		 xor	 ecx, eax
  0001b	e8 00 00 00 00	 call	 @__security_check_cookie@4
  00020	b8 00 00 00 00	 mov	 eax, OFFSET __ehfuncinfo$??$_Uninitialized_value_construct_n@V?$allocator@USModelThingSet@CGraphicThingInstance@@@std@@@std@@YAPAUSModelThingSet@CGraphicThingInstance@@PAU12@IAAV?$allocator@USModelThingSet@CGraphicThingInstance@@@0@@Z
  00025	e9 00 00 00 00	 jmp	 ___CxxFrameHandler3
text$x	ENDS
??$_Uninitialized_value_construct_n@V?$allocator@USModelThingSet@CGraphicThingInstance@@@std@@@std@@YAPAUSModelThingSet@CGraphicThingInstance@@PAU12@IAAV?$allocator@USModelThingSet@CGraphicThingInstance@@@0@@Z ENDP ; std::_Uninitialized_value_construct_n<std::allocator<CGraphicThingInstance::SModelThingSet> >
; Function compile flags: /Odspy
; File C:\Program Files (x86)\Microsoft Visual Studio\2019\Community\VC\Tools\MSVC\14.28.29333\include\xmemory
;	COMDAT ??$_Destroy_in_place@PAU?$_Tree_node@U?$pair@$$CBKPAV?$CRef@VCGraphicThing@@@@@std@@PAX@std@@@std@@YAXAAPAU?$_Tree_node@U?$pair@$$CBKPAV?$CRef@VCGraphicThing@@@@@std@@PAX@0@@Z
_TEXT	SEGMENT
__Obj$ = 8						; size = 4
??$_Destroy_in_place@PAU?$_Tree_node@U?$pair@$$CBKPAV?$CRef@VCGraphicThing@@@@@std@@PAX@std@@@std@@YAXAAPAU?$_Tree_node@U?$pair@$$CBKPAV?$CRef@VCGraphicThing@@@@@std@@PAX@0@@Z PROC ; std::_Destroy_in_place<std::_Tree_node<std::pair<unsigned long const ,CRef<CGraphicThing> *>,void *> *>, COMDAT

; 270  : /* _CONSTEXPR20_DYNALLOC */ void _Destroy_in_place(_Ty& _Obj) noexcept {

  00000	55		 push	 ebp
  00001	8b ec		 mov	 ebp, esp

; 271  : #if _HAS_IF_CONSTEXPR
; 272  :     if constexpr (is_array_v<_Ty>) {
; 273  :         _Destroy_range(_Obj, _Obj + extent_v<_Ty>);
; 274  :     } else
; 275  : #endif // _HAS_IF_CONSTEXPR
; 276  :     {
; 277  :         _Obj.~_Ty();
; 278  :     }
; 279  : }

  00003	5d		 pop	 ebp
  00004	c3		 ret	 0
??$_Destroy_in_place@PAU?$_Tree_node@U?$pair@$$CBKPAV?$CRef@VCGraphicThing@@@@@std@@PAX@std@@@std@@YAXAAPAU?$_Tree_node@U?$pair@$$CBKPAV?$CRef@VCGraphicThing@@@@@std@@PAX@0@@Z ENDP ; std::_Destroy_in_place<std::_Tree_node<std::pair<unsigned long const ,CRef<CGraphicThing> *>,void *> *>
_TEXT	ENDS
; Function compile flags: /Odspy
; File C:\Program Files (x86)\Microsoft Visual Studio\2019\Community\VC\Tools\MSVC\14.28.29333\include\xutility
;	COMDAT ??$_Copy_memmove@PAPAVCGraphicThingInstance@@PAPAV1@@std@@YAPAPAVCGraphicThingInstance@@PAPAV1@00@Z
_TEXT	SEGMENT
__Last_ch$ = -16					; size = 4
__Count$ = -12						; size = 4
__Dest_ch$ = -8						; size = 4
__First_ch$ = -4					; size = 4
__First$ = 8						; size = 4
__Last$ = 12						; size = 4
__Dest$ = 16						; size = 4
??$_Copy_memmove@PAPAVCGraphicThingInstance@@PAPAV1@@std@@YAPAPAVCGraphicThingInstance@@PAPAV1@00@Z PROC ; std::_Copy_memmove<CGraphicThingInstance * *,CGraphicThingInstance * *>, COMDAT

; 4360 : _OutIt _Copy_memmove(_InIt _First, _InIt _Last, _OutIt _Dest) {

  00000	55		 push	 ebp
  00001	8b ec		 mov	 ebp, esp
  00003	83 ec 10	 sub	 esp, 16			; 00000010H

; 4361 :     const char* const _First_ch = const_cast<const char*>(reinterpret_cast<const volatile char*>(_First));

  00006	8b 45 08	 mov	 eax, DWORD PTR __First$[ebp]
  00009	89 45 fc	 mov	 DWORD PTR __First_ch$[ebp], eax

; 4362 :     const char* const _Last_ch  = const_cast<const char*>(reinterpret_cast<const volatile char*>(_Last));

  0000c	8b 45 0c	 mov	 eax, DWORD PTR __Last$[ebp]
  0000f	89 45 f0	 mov	 DWORD PTR __Last_ch$[ebp], eax

; 4363 :     char* const _Dest_ch        = const_cast<char*>(reinterpret_cast<volatile char*>(_Dest));

  00012	8b 45 10	 mov	 eax, DWORD PTR __Dest$[ebp]
  00015	89 45 f8	 mov	 DWORD PTR __Dest_ch$[ebp], eax

; 4364 :     const auto _Count           = static_cast<size_t>(_Last_ch - _First_ch);

  00018	8b 45 f0	 mov	 eax, DWORD PTR __Last_ch$[ebp]
  0001b	2b 45 fc	 sub	 eax, DWORD PTR __First_ch$[ebp]
  0001e	89 45 f4	 mov	 DWORD PTR __Count$[ebp], eax

; 4365 :     _CSTD memmove(_Dest_ch, _First_ch, _Count);

  00021	ff 75 f4	 push	 DWORD PTR __Count$[ebp]
  00024	ff 75 fc	 push	 DWORD PTR __First_ch$[ebp]
  00027	ff 75 f8	 push	 DWORD PTR __Dest_ch$[ebp]
  0002a	e8 00 00 00 00	 call	 _memmove
  0002f	83 c4 0c	 add	 esp, 12			; 0000000cH

; 4366 :     return reinterpret_cast<_OutIt>(_Dest_ch + _Count);

  00032	8b 45 f8	 mov	 eax, DWORD PTR __Dest_ch$[ebp]
  00035	03 45 f4	 add	 eax, DWORD PTR __Count$[ebp]

; 4367 : }

  00038	c9		 leave
  00039	c3		 ret	 0
??$_Copy_memmove@PAPAVCGraphicThingInstance@@PAPAV1@@std@@YAPAPAVCGraphicThingInstance@@PAPAV1@00@Z ENDP ; std::_Copy_memmove<CGraphicThingInstance * *,CGraphicThingInstance * *>
_TEXT	ENDS
; Function compile flags: /Odspy
; File C:\Program Files (x86)\Microsoft Visual Studio\2019\Community\VC\Tools\MSVC\14.28.29333\include\xmemory
;	COMDAT ??$_Allocate_manually_vector_aligned@U_Default_allocate_traits@std@@@std@@YAPAXI@Z
_TEXT	SEGMENT
__Ptr$ = -12						; size = 4
__Block_size$ = -8					; size = 4
__Ptr_container$ = -4					; size = 4
__Bytes$ = 8						; size = 4
??$_Allocate_manually_vector_aligned@U_Default_allocate_traits@std@@@std@@YAPAXI@Z PROC ; std::_Allocate_manually_vector_aligned<std::_Default_allocate_traits>, COMDAT

; 113  : __declspec(allocator) void* _Allocate_manually_vector_aligned(const size_t _Bytes) {

  00000	55		 push	 ebp
  00001	8b ec		 mov	 ebp, esp
  00003	83 ec 0c	 sub	 esp, 12			; 0000000cH

; 114  :     // allocate _Bytes manually aligned to at least _Big_allocation_alignment
; 115  :     const size_t _Block_size = _Non_user_size + _Bytes;

  00006	8b 45 08	 mov	 eax, DWORD PTR __Bytes$[ebp]
  00009	83 c0 23	 add	 eax, 35			; 00000023H
  0000c	89 45 f8	 mov	 DWORD PTR __Block_size$[ebp], eax

; 116  :     if (_Block_size <= _Bytes) {

  0000f	8b 45 f8	 mov	 eax, DWORD PTR __Block_size$[ebp]
  00012	3b 45 08	 cmp	 eax, DWORD PTR __Bytes$[ebp]
  00015	77 05		 ja	 SHORT $LN12@Allocate_m

; 117  :         _Throw_bad_array_new_length(); // add overflow

  00017	e8 00 00 00 00	 call	 ?_Throw_bad_array_new_length@std@@YAXXZ ; std::_Throw_bad_array_new_length
$LN12@Allocate_m:

; 77   :         return ::operator new(_Bytes);

  0001c	ff 75 f8	 push	 DWORD PTR __Block_size$[ebp]
  0001f	e8 00 00 00 00	 call	 ??2@YAPAXI@Z		; operator new
  00024	59		 pop	 ecx

; 118  :     }
; 119  : 
; 120  :     const uintptr_t _Ptr_container = reinterpret_cast<uintptr_t>(_Traits::_Allocate(_Block_size));

  00025	89 45 fc	 mov	 DWORD PTR __Ptr_container$[ebp], eax
$LN4@Allocate_m:

; 121  :     _STL_VERIFY(_Ptr_container != 0, "invalid argument"); // validate even in release since we're doing p[-1]

  00028	83 7d fc 00	 cmp	 DWORD PTR __Ptr_container$[ebp], 0
  0002c	74 02		 je	 SHORT $LN7@Allocate_m
  0002e	eb 09		 jmp	 SHORT $LN2@Allocate_m
$LN7@Allocate_m:
  00030	e8 00 00 00 00	 call	 __invalid_parameter_noinfo_noreturn
  00035	33 c0		 xor	 eax, eax
  00037	75 f7		 jne	 SHORT $LN7@Allocate_m
$LN2@Allocate_m:
  00039	33 c0		 xor	 eax, eax
  0003b	75 eb		 jne	 SHORT $LN4@Allocate_m

; 122  :     void* const _Ptr = reinterpret_cast<void*>((_Ptr_container + _Non_user_size) & ~(_Big_allocation_alignment - 1));

  0003d	8b 45 fc	 mov	 eax, DWORD PTR __Ptr_container$[ebp]
  00040	83 c0 23	 add	 eax, 35			; 00000023H
  00043	83 e0 e0	 and	 eax, -32		; ffffffe0H
  00046	89 45 f4	 mov	 DWORD PTR __Ptr$[ebp], eax

; 123  :     static_cast<uintptr_t*>(_Ptr)[-1] = _Ptr_container;

  00049	6a 04		 push	 4
  0004b	58		 pop	 eax
  0004c	6b c0 ff	 imul	 eax, eax, -1
  0004f	8b 4d f4	 mov	 ecx, DWORD PTR __Ptr$[ebp]
  00052	8b 55 fc	 mov	 edx, DWORD PTR __Ptr_container$[ebp]
  00055	89 14 01	 mov	 DWORD PTR [ecx+eax], edx

; 124  : 
; 125  : #ifdef _DEBUG
; 126  :     static_cast<uintptr_t*>(_Ptr)[-2] = _Big_allocation_sentinel;
; 127  : #endif // _DEBUG
; 128  :     return _Ptr;

  00058	8b 45 f4	 mov	 eax, DWORD PTR __Ptr$[ebp]
$LN11@Allocate_m:

; 129  : }

  0005b	c9		 leave
  0005c	c3		 ret	 0
??$_Allocate_manually_vector_aligned@U_Default_allocate_traits@std@@@std@@YAPAXI@Z ENDP ; std::_Allocate_manually_vector_aligned<std::_Default_allocate_traits>
_TEXT	ENDS
; Function compile flags: /Odspy
; File C:\Program Files (x86)\Microsoft Visual Studio\2019\Community\VC\Tools\MSVC\14.28.29333\include\xmemory
; File C:\Program Files (x86)\Microsoft Visual Studio\2019\Community\VC\Tools\MSVC\14.28.29333\include\xstddef
; File C:\Program Files (x86)\Microsoft Visual Studio\2019\Community\VC\Tools\MSVC\14.28.29333\include\vcruntime_new.h
; File C:\Program Files (x86)\Microsoft Visual Studio\2019\Community\VC\Tools\MSVC\14.28.29333\include\type_traits
; File C:\Program Files (x86)\Microsoft Visual Studio\2019\Community\VC\Tools\MSVC\14.28.29333\include\xmemory
;	COMDAT ??$_Construct_in_place@PAU?$_Tree_node@U?$pair@$$CBKPAV?$CRef@VCGraphicThing@@@@@std@@PAX@std@@ABQAU12@@std@@YAXAAPAU?$_Tree_node@U?$pair@$$CBKPAV?$CRef@VCGraphicThing@@@@@std@@PAX@0@ABQAU10@@Z
_TEXT	SEGMENT
$T1 = -12						; size = 4
$T2 = -8						; size = 4
$T3 = -4						; size = 4
__Obj$ = 8						; size = 4
_<_Args_0>$ = 12					; size = 4
??$_Construct_in_place@PAU?$_Tree_node@U?$pair@$$CBKPAV?$CRef@VCGraphicThing@@@@@std@@PAX@std@@ABQAU12@@std@@YAXAAPAU?$_Tree_node@U?$pair@$$CBKPAV?$CRef@VCGraphicThing@@@@@std@@PAX@0@ABQAU10@@Z PROC ; std::_Construct_in_place<std::_Tree_node<std::pair<unsigned long const ,CRef<CGraphicThing> *>,void *> *,std::_Tree_node<std::pair<unsigned long const ,CRef<CGraphicThing> *>,void *> * const &>, COMDAT

; 228  : void _Construct_in_place(_Ty& _Obj, _Types&&... _Args) noexcept(is_nothrow_constructible_v<_Ty, _Types...>) {

  00000	55		 push	 ebp
  00001	8b ec		 mov	 ebp, esp
  00003	83 ec 0c	 sub	 esp, 12			; 0000000cH
; File C:\Program Files (x86)\Microsoft Visual Studio\2019\Community\VC\Tools\MSVC\14.28.29333\include\xstddef

; 275  :     return __builtin_addressof(_Val);

  00006	8b 45 08	 mov	 eax, DWORD PTR __Obj$[ebp]
  00009	89 45 fc	 mov	 DWORD PTR $T3[ebp], eax
; File C:\Program Files (x86)\Microsoft Visual Studio\2019\Community\VC\Tools\MSVC\14.28.29333\include\vcruntime_new.h

; 169  :         return _Where;

  0000c	8b 45 fc	 mov	 eax, DWORD PTR $T3[ebp]
  0000f	89 45 f8	 mov	 DWORD PTR $T2[ebp], eax
; File C:\Program Files (x86)\Microsoft Visual Studio\2019\Community\VC\Tools\MSVC\14.28.29333\include\type_traits

; 1443 :     return static_cast<_Ty&&>(_Arg);

  00012	8b 45 0c	 mov	 eax, DWORD PTR _<_Args_0>$[ebp]
  00015	89 45 f4	 mov	 DWORD PTR $T1[ebp], eax
; File C:\Program Files (x86)\Microsoft Visual Studio\2019\Community\VC\Tools\MSVC\14.28.29333\include\xmemory

; 229  :     ::new (const_cast<void*>(static_cast<const volatile void*>(_STD addressof(_Obj))))

  00018	8b 45 f8	 mov	 eax, DWORD PTR $T2[ebp]
  0001b	8b 4d f4	 mov	 ecx, DWORD PTR $T1[ebp]
  0001e	8b 09		 mov	 ecx, DWORD PTR [ecx]
  00020	89 08		 mov	 DWORD PTR [eax], ecx

; 230  :         _Ty(_STD forward<_Types>(_Args)...);
; 231  : }

  00022	c9		 leave
  00023	c3		 ret	 0
??$_Construct_in_place@PAU?$_Tree_node@U?$pair@$$CBKPAV?$CRef@VCGraphicThing@@@@@std@@PAX@std@@ABQAU12@@std@@YAXAAPAU?$_Tree_node@U?$pair@$$CBKPAV?$CRef@VCGraphicThing@@@@@std@@PAX@0@ABQAU10@@Z ENDP ; std::_Construct_in_place<std::_Tree_node<std::pair<unsigned long const ,CRef<CGraphicThing> *>,void *> *,std::_Tree_node<std::pair<unsigned long const ,CRef<CGraphicThing> *>,void *> * const &>
_TEXT	ENDS
; Function compile flags: /Odspy
; File C:\Program Files (x86)\Microsoft Visual Studio\2019\Community\VC\Tools\MSVC\14.28.29333\include\vector
; File C:\Program Files (x86)\Microsoft Visual Studio\2019\Community\VC\Tools\MSVC\14.28.29333\include\xmemory
; File C:\Program Files (x86)\Microsoft Visual Studio\2019\Community\VC\Tools\MSVC\14.28.29333\include\vector
; File C:\Program Files (x86)\Microsoft Visual Studio\2019\Community\VC\Tools\MSVC\14.28.29333\include\xmemory
; File C:\Program Files (x86)\Microsoft Visual Studio\2019\Community\VC\Tools\MSVC\14.28.29333\include\limits
; File C:\Program Files (x86)\Microsoft Visual Studio\2019\Community\VC\Tools\MSVC\14.28.29333\include\vector
; File C:\Program Files (x86)\Microsoft Visual Studio\2019\Community\VC\Tools\MSVC\14.28.29333\include\utility
; File C:\Program Files (x86)\Microsoft Visual Studio\2019\Community\VC\Tools\MSVC\14.28.29333\include\vector
; File C:\Program Files (x86)\Microsoft Visual Studio\2019\Community\VC\Tools\MSVC\14.28.29333\include\xmemory
; File C:\Program Files (x86)\Microsoft Visual Studio\2019\Community\VC\Tools\MSVC\14.28.29333\include\vector
; File C:\Program Files (x86)\Microsoft Visual Studio\2019\Community\VC\Tools\MSVC\14.28.29333\include\xmemory
; File C:\Program Files (x86)\Microsoft Visual Studio\2019\Community\VC\Tools\MSVC\14.28.29333\include\vector
; File C:\Program Files (x86)\Microsoft Visual Studio\2019\Community\VC\Tools\MSVC\14.28.29333\include\xmemory
; File C:\Program Files (x86)\Microsoft Visual Studio\2019\Community\VC\Tools\MSVC\14.28.29333\include\vector
; File C:\Program Files (x86)\Microsoft Visual Studio\2019\Community\VC\Tools\MSVC\14.28.29333\include\xmemory
; File C:\Program Files (x86)\Microsoft Visual Studio\2019\Community\VC\Tools\MSVC\14.28.29333\include\vector
;	COMDAT ??$_Resize_reallocate@U_Value_init_tag@std@@@?$vector@USModelThingSet@CGraphicThingInstance@@V?$allocator@USModelThingSet@CGraphicThingInstance@@@std@@@std@@AAEXIABU_Value_init_tag@1@@Z
_TEXT	SEGMENT
__Max_possible$2 = -148					; size = 4
$T3 = -144						; size = 4
$T4 = -140						; size = 4
__First$ = -136						; size = 4
__Last$ = -132						; size = 4
$T5 = -128						; size = 4
$T6 = -124						; size = 4
tv244 = -120						; size = 4
$T7 = -116						; size = 4
$T8 = -112						; size = 4
$T9 = -108						; size = 4
$T10 = -104						; size = 4
$T11 = -100						; size = 4
$T12 = -96						; size = 4
$T13 = -92						; size = 4
$T14 = -88						; size = 4
$T15 = -84						; size = 4
__Appended_last$ = -80					; size = 4
__Myfirst$ = -76					; size = 4
__Mylast$ = -72						; size = 4
__Oldsize$ = -68					; size = 4
__My_data$ = -64					; size = 4
tv147 = -60						; size = 4
$T16 = -56						; size = 4
$T17 = -52						; size = 4
__Appended_first$ = -48					; size = 4
___formal$ = -44					; size = 1
___formal$ = -40					; size = 1
__Overflow_is_possible$18 = -33				; size = 1
__Newvec$ = -32						; size = 4
__Newcapacity$ = -28					; size = 4
$T19 = -21						; size = 1
_this$ = -20						; size = 4
__$EHRec$ = -16						; size = 16
__Newsize$ = 8						; size = 4
__Val$ = 12						; size = 4
??$_Resize_reallocate@U_Value_init_tag@std@@@?$vector@USModelThingSet@CGraphicThingInstance@@V?$allocator@USModelThingSet@CGraphicThingInstance@@@std@@@std@@AAEXIABU_Value_init_tag@1@@Z PROC ; std::vector<CGraphicThingInstance::SModelThingSet,std::allocator<CGraphicThingInstance::SModelThingSet> >::_Resize_reallocate<std::_Value_init_tag>, COMDAT
; _this$ = ecx

; 1182 :     void _Resize_reallocate(const size_type _Newsize, const _Ty2& _Val) {

  00000	55		 push	 ebp
  00001	8b ec		 mov	 ebp, esp
  00003	6a ff		 push	 -1
  00005	68 00 00 00 00	 push	 __ehhandler$??$_Resize_reallocate@U_Value_init_tag@std@@@?$vector@USModelThingSet@CGraphicThingInstance@@V?$allocator@USModelThingSet@CGraphicThingInstance@@@std@@@std@@AAEXIABU_Value_init_tag@1@@Z
  0000a	64 a1 00 00 00
	00		 mov	 eax, DWORD PTR fs:0
  00010	50		 push	 eax
  00011	51		 push	 ecx
  00012	81 ec 84 00 00
	00		 sub	 esp, 132		; 00000084H
  00018	53		 push	 ebx
  00019	56		 push	 esi
  0001a	57		 push	 edi
  0001b	a1 00 00 00 00	 mov	 eax, DWORD PTR ___security_cookie
  00020	33 c5		 xor	 eax, ebp
  00022	50		 push	 eax
  00023	8d 45 f4	 lea	 eax, DWORD PTR __$EHRec$[ebp+4]
  00026	64 a3 00 00 00
	00		 mov	 DWORD PTR fs:0, eax
  0002c	89 65 f0	 mov	 DWORD PTR __$EHRec$[ebp], esp
  0002f	89 4d ec	 mov	 DWORD PTR _this$[ebp], ecx

; 1737 :         return _Mypair._Get_first();

  00032	8b 45 ec	 mov	 eax, DWORD PTR _this$[ebp]
; File C:\Program Files (x86)\Microsoft Visual Studio\2019\Community\VC\Tools\MSVC\14.28.29333\include\xmemory

; 1351 :         return *this;

  00035	89 45 ac	 mov	 DWORD PTR $T15[ebp], eax
; File C:\Program Files (x86)\Microsoft Visual Studio\2019\Community\VC\Tools\MSVC\14.28.29333\include\vector

; 1737 :         return _Mypair._Get_first();

  00038	8b 45 ac	 mov	 eax, DWORD PTR $T15[ebp]
  0003b	89 85 74 ff ff
	ff		 mov	 DWORD PTR $T4[ebp], eax
; File C:\Program Files (x86)\Microsoft Visual Studio\2019\Community\VC\Tools\MSVC\14.28.29333\include\xmemory

; 710  :         return static_cast<size_t>(-1) / sizeof(value_type);

  00041	c7 45 cc 55 55
	55 15		 mov	 DWORD PTR $T17[ebp], 357913941 ; 15555555H
; File C:\Program Files (x86)\Microsoft Visual Studio\2019\Community\VC\Tools\MSVC\14.28.29333\include\limits

; 557  :         return INT_MAX;

  00048	c7 45 a8 ff ff
	ff 7f		 mov	 DWORD PTR $T14[ebp], 2147483647 ; 7fffffffH
; File C:\Program Files (x86)\Microsoft Visual Studio\2019\Community\VC\Tools\MSVC\14.28.29333\include\vector

; 1488 :         return (_STD min)(

  0004f	8b 45 a8	 mov	 eax, DWORD PTR $T14[ebp]
  00052	89 45 c8	 mov	 DWORD PTR $T16[ebp], eax
; File C:\Program Files (x86)\Microsoft Visual Studio\2019\Community\VC\Tools\MSVC\14.28.29333\include\utility

; 68   :     return _Right < _Left ? _Right : _Left;

  00055	8b 45 cc	 mov	 eax, DWORD PTR $T17[ebp]
  00058	3b 45 c8	 cmp	 eax, DWORD PTR $T16[ebp]
  0005b	73 08		 jae	 SHORT $LN26@Resize_rea
  0005d	8d 45 cc	 lea	 eax, DWORD PTR $T17[ebp]
  00060	89 45 c4	 mov	 DWORD PTR tv147[ebp], eax
  00063	eb 06		 jmp	 SHORT $LN27@Resize_rea
$LN26@Resize_rea:
  00065	8d 45 c8	 lea	 eax, DWORD PTR $T16[ebp]
  00068	89 45 c4	 mov	 DWORD PTR tv147[ebp], eax
$LN27@Resize_rea:
  0006b	8b 45 c4	 mov	 eax, DWORD PTR tv147[ebp]
  0006e	89 45 a4	 mov	 DWORD PTR $T13[ebp], eax
  00071	8b 45 a4	 mov	 eax, DWORD PTR $T13[ebp]
  00074	89 45 a0	 mov	 DWORD PTR $T12[ebp], eax
; File C:\Program Files (x86)\Microsoft Visual Studio\2019\Community\VC\Tools\MSVC\14.28.29333\include\vector

; 1488 :         return (_STD min)(

  00077	8b 45 a0	 mov	 eax, DWORD PTR $T12[ebp]
  0007a	8b 00		 mov	 eax, DWORD PTR [eax]
  0007c	89 45 9c	 mov	 DWORD PTR $T11[ebp], eax

; 1183 :         if (_Newsize > max_size()) {

  0007f	8b 45 08	 mov	 eax, DWORD PTR __Newsize$[ebp]
  00082	3b 45 9c	 cmp	 eax, DWORD PTR $T11[ebp]
  00085	76 05		 jbe	 SHORT $LN2@Resize_rea

; 1184 :             _Xlength();

  00087	e8 00 00 00 00	 call	 ?_Xlength@?$vector@USModelThingSet@CGraphicThingInstance@@V?$allocator@USModelThingSet@CGraphicThingInstance@@@std@@@std@@CAXXZ ; std::vector<CGraphicThingInstance::SModelThingSet,std::allocator<CGraphicThingInstance::SModelThingSet> >::_Xlength
$LN2@Resize_rea:

; 1185 :         }
; 1186 : 
; 1187 :         auto& _My_data    = _Mypair._Myval2;

  0008c	8b 45 ec	 mov	 eax, DWORD PTR _this$[ebp]
  0008f	89 45 c0	 mov	 DWORD PTR __My_data$[ebp], eax

; 1188 :         pointer& _Myfirst = _My_data._Myfirst;

  00092	8b 45 c0	 mov	 eax, DWORD PTR __My_data$[ebp]
  00095	89 45 b4	 mov	 DWORD PTR __Myfirst$[ebp], eax

; 1189 :         pointer& _Mylast  = _My_data._Mylast;

  00098	8b 45 c0	 mov	 eax, DWORD PTR __My_data$[ebp]
  0009b	83 c0 04	 add	 eax, 4
  0009e	89 45 b8	 mov	 DWORD PTR __Mylast$[ebp], eax

; 1190 : 
; 1191 :         const auto _Oldsize          = static_cast<size_type>(_Mylast - _Myfirst);

  000a1	8b 45 b8	 mov	 eax, DWORD PTR __Mylast$[ebp]
  000a4	8b 4d b4	 mov	 ecx, DWORD PTR __Myfirst$[ebp]
  000a7	8b 00		 mov	 eax, DWORD PTR [eax]
  000a9	2b 01		 sub	 eax, DWORD PTR [ecx]
  000ab	99		 cdq
  000ac	6a 0c		 push	 12			; 0000000cH
  000ae	59		 pop	 ecx
  000af	f7 f9		 idiv	 ecx
  000b1	89 45 bc	 mov	 DWORD PTR __Oldsize$[ebp], eax

; 1192 :         const size_type _Newcapacity = _Calculate_growth(_Newsize);

  000b4	ff 75 08	 push	 DWORD PTR __Newsize$[ebp]
  000b7	8b 4d ec	 mov	 ecx, DWORD PTR _this$[ebp]
  000ba	e8 00 00 00 00	 call	 ?_Calculate_growth@?$vector@USModelThingSet@CGraphicThingInstance@@V?$allocator@USModelThingSet@CGraphicThingInstance@@@std@@@std@@ABEII@Z ; std::vector<CGraphicThingInstance::SModelThingSet,std::allocator<CGraphicThingInstance::SModelThingSet> >::_Calculate_growth
  000bf	89 45 e4	 mov	 DWORD PTR __Newcapacity$[ebp], eax

; 1733 :         return _Mypair._Get_first();

  000c2	8b 45 ec	 mov	 eax, DWORD PTR _this$[ebp]
; File C:\Program Files (x86)\Microsoft Visual Studio\2019\Community\VC\Tools\MSVC\14.28.29333\include\xmemory

; 1347 :         return *this;

  000c5	89 45 98	 mov	 DWORD PTR $T10[ebp], eax
; File C:\Program Files (x86)\Microsoft Visual Studio\2019\Community\VC\Tools\MSVC\14.28.29333\include\vector

; 1733 :         return _Mypair._Get_first();

  000c8	8b 45 98	 mov	 eax, DWORD PTR $T10[ebp]
  000cb	89 85 70 ff ff
	ff		 mov	 DWORD PTR $T3[ebp], eax
; File C:\Program Files (x86)\Microsoft Visual Studio\2019\Community\VC\Tools\MSVC\14.28.29333\include\xmemory

; 56   :     constexpr bool _Overflow_is_possible = _Ty_size > 1;

  000d1	c6 45 df 01	 mov	 BYTE PTR __Overflow_is_possible$18[ebp], 1

; 57   : 
; 58   :     if _CONSTEXPR_IF (_Overflow_is_possible) {
; 59   :         constexpr size_t _Max_possible = static_cast<size_t>(-1) / _Ty_size;

  000d5	c7 85 6c ff ff
	ff 55 55 55 15	 mov	 DWORD PTR __Max_possible$2[ebp], 357913941 ; 15555555H

; 60   :         if (_Count > _Max_possible) {

  000df	81 7d e4 55 55
	55 15		 cmp	 DWORD PTR __Newcapacity$[ebp], 357913941 ; 15555555H
  000e6	76 05		 jbe	 SHORT $LN65@Resize_rea

; 61   :             _Throw_bad_array_new_length(); // multiply overflow

  000e8	e8 00 00 00 00	 call	 ?_Throw_bad_array_new_length@std@@YAXXZ ; std::_Throw_bad_array_new_length
$LN65@Resize_rea:

; 62   :         }
; 63   :     }
; 64   : 
; 65   :     return _Count * _Ty_size;

  000ed	6b 45 e4 0c	 imul	 eax, DWORD PTR __Newcapacity$[ebp], 12
  000f1	89 45 94	 mov	 DWORD PTR $T9[ebp], eax

; 814  :         return static_cast<_Ty*>(_Allocate<_New_alignof<_Ty>>(_Get_size_of_n<sizeof(_Ty)>(_Count)));

  000f4	ff 75 94	 push	 DWORD PTR $T9[ebp]
  000f7	e8 00 00 00 00	 call	 ??$_Allocate@$07U_Default_allocate_traits@std@@$0A@@std@@YAPAXI@Z ; std::_Allocate<8,std::_Default_allocate_traits,0>
  000fc	59		 pop	 ecx
  000fd	89 45 e0	 mov	 DWORD PTR __Newvec$[ebp], eax
; File C:\Program Files (x86)\Microsoft Visual Studio\2019\Community\VC\Tools\MSVC\14.28.29333\include\vector

; 1195 :         const pointer _Appended_first = _Newvec + _Oldsize;

  00100	6b 45 bc 0c	 imul	 eax, DWORD PTR __Oldsize$[ebp], 12
  00104	03 45 e0	 add	 eax, DWORD PTR __Newvec$[ebp]
  00107	89 45 d0	 mov	 DWORD PTR __Appended_first$[ebp], eax

; 1196 :         pointer _Appended_last        = _Appended_first;

  0010a	8b 45 d0	 mov	 eax, DWORD PTR __Appended_first$[ebp]
  0010d	89 45 b0	 mov	 DWORD PTR __Appended_last$[ebp], eax

; 1197 : 
; 1198 :         _TRY_BEGIN

  00110	83 65 fc 00	 and	 DWORD PTR __$EHRec$[ebp+12], 0

; 1199 :         _Appended_last = _Ufill(_Appended_first, _Newsize - _Oldsize, _Val);

  00114	8b 45 0c	 mov	 eax, DWORD PTR __Val$[ebp]
  00117	8a 00		 mov	 al, BYTE PTR [eax]
  00119	88 45 d8	 mov	 BYTE PTR ___formal$[ebp], al

; 1733 :         return _Mypair._Get_first();

  0011c	8b 45 ec	 mov	 eax, DWORD PTR _this$[ebp]
; File C:\Program Files (x86)\Microsoft Visual Studio\2019\Community\VC\Tools\MSVC\14.28.29333\include\xmemory

; 1347 :         return *this;

  0011f	89 45 90	 mov	 DWORD PTR $T8[ebp], eax
; File C:\Program Files (x86)\Microsoft Visual Studio\2019\Community\VC\Tools\MSVC\14.28.29333\include\vector

; 1733 :         return _Mypair._Get_first();

  00122	8b 45 90	 mov	 eax, DWORD PTR $T8[ebp]
  00125	89 45 8c	 mov	 DWORD PTR $T7[ebp], eax

; 1583 :         return _Uninitialized_value_construct_n(_Dest, _Count, _Getal());

  00128	ff 75 8c	 push	 DWORD PTR $T7[ebp]

; 1199 :         _Appended_last = _Ufill(_Appended_first, _Newsize - _Oldsize, _Val);

  0012b	8b 45 08	 mov	 eax, DWORD PTR __Newsize$[ebp]
  0012e	2b 45 bc	 sub	 eax, DWORD PTR __Oldsize$[ebp]

; 1583 :         return _Uninitialized_value_construct_n(_Dest, _Count, _Getal());

  00131	50		 push	 eax
  00132	ff 75 d0	 push	 DWORD PTR __Appended_first$[ebp]
  00135	e8 00 00 00 00	 call	 ??$_Uninitialized_value_construct_n@V?$allocator@USModelThingSet@CGraphicThingInstance@@@std@@@std@@YAPAUSModelThingSet@CGraphicThingInstance@@PAU12@IAAV?$allocator@USModelThingSet@CGraphicThingInstance@@@0@@Z ; std::_Uninitialized_value_construct_n<std::allocator<CGraphicThingInstance::SModelThingSet> >
  0013a	83 c4 0c	 add	 esp, 12			; 0000000cH
  0013d	89 45 88	 mov	 DWORD PTR tv244[ebp], eax

; 1199 :         _Appended_last = _Ufill(_Appended_first, _Newsize - _Oldsize, _Val);

  00140	8b 45 88	 mov	 eax, DWORD PTR tv244[ebp]
  00143	89 45 b0	 mov	 DWORD PTR __Appended_last$[ebp], eax

; 1200 :         _Umove_if_noexcept(_Myfirst, _Mylast, _Newvec);

  00146	8b 45 b8	 mov	 eax, DWORD PTR __Mylast$[ebp]
  00149	8b 00		 mov	 eax, DWORD PTR [eax]
  0014b	89 85 7c ff ff
	ff		 mov	 DWORD PTR __Last$[ebp], eax
  00151	8b 45 b4	 mov	 eax, DWORD PTR __Myfirst$[ebp]
  00154	8b 00		 mov	 eax, DWORD PTR [eax]
  00156	89 85 78 ff ff
	ff		 mov	 DWORD PTR __First$[ebp], eax

; 1607 :         _Umove_if_noexcept1(_First, _Last, _Dest,

  0015c	33 c0		 xor	 eax, eax
  0015e	88 45 eb	 mov	 BYTE PTR $T19[ebp], al
  00161	8a 45 eb	 mov	 al, BYTE PTR $T19[ebp]
  00164	88 45 d4	 mov	 BYTE PTR ___formal$[ebp], al

; 1733 :         return _Mypair._Get_first();

  00167	8b 45 ec	 mov	 eax, DWORD PTR _this$[ebp]
; File C:\Program Files (x86)\Microsoft Visual Studio\2019\Community\VC\Tools\MSVC\14.28.29333\include\xmemory

; 1347 :         return *this;

  0016a	89 45 84	 mov	 DWORD PTR $T6[ebp], eax
; File C:\Program Files (x86)\Microsoft Visual Studio\2019\Community\VC\Tools\MSVC\14.28.29333\include\vector

; 1733 :         return _Mypair._Get_first();

  0016d	8b 45 84	 mov	 eax, DWORD PTR $T6[ebp]
  00170	89 45 80	 mov	 DWORD PTR $T5[ebp], eax

; 1597 :         _Uninitialized_move(_First, _Last, _Dest, _Getal());

  00173	ff 75 80	 push	 DWORD PTR $T5[ebp]
  00176	ff 75 e0	 push	 DWORD PTR __Newvec$[ebp]
  00179	ff b5 7c ff ff
	ff		 push	 DWORD PTR __Last$[ebp]
  0017f	ff b5 78 ff ff
	ff		 push	 DWORD PTR __First$[ebp]
  00185	e8 00 00 00 00	 call	 ??$_Uninitialized_move@PAUSModelThingSet@CGraphicThingInstance@@V?$allocator@USModelThingSet@CGraphicThingInstance@@@std@@@std@@YAPAUSModelThingSet@CGraphicThingInstance@@QAU12@0PAU12@AAV?$allocator@USModelThingSet@CGraphicThingInstance@@@0@@Z ; std::_Uninitialized_move<CGraphicThingInstance::SModelThingSet *,std::allocator<CGraphicThingInstance::SModelThingSet> >
  0018a	83 c4 10	 add	 esp, 16			; 00000010H

; 1200 :         _Umove_if_noexcept(_Myfirst, _Mylast, _Newvec);

  0018d	eb 32		 jmp	 SHORT $LN5@Resize_rea
__catch$??$_Resize_reallocate@U_Value_init_tag@std@@@?$vector@USModelThingSet@CGraphicThingInstance@@V?$allocator@USModelThingSet@CGraphicThingInstance@@@std@@@std@@AAEXIABU_Value_init_tag@1@@Z$0:

; 1201 :         _CATCH_ALL
; 1202 :         _Destroy(_Appended_first, _Appended_last);

  0018f	ff 75 b0	 push	 DWORD PTR __Appended_last$[ebp]
  00192	ff 75 d0	 push	 DWORD PTR __Appended_first$[ebp]
  00195	8b 4d ec	 mov	 ecx, DWORD PTR _this$[ebp]
  00198	e8 00 00 00 00	 call	 ?_Destroy@?$vector@USModelThingSet@CGraphicThingInstance@@V?$allocator@USModelThingSet@CGraphicThingInstance@@@std@@@std@@AAEXPAUSModelThingSet@CGraphicThingInstance@@0@Z ; std::vector<CGraphicThingInstance::SModelThingSet,std::allocator<CGraphicThingInstance::SModelThingSet> >::_Destroy

; 1203 :         _Getal().deallocate(_Newvec, _Newcapacity);

  0019d	ff 75 e4	 push	 DWORD PTR __Newcapacity$[ebp]
  001a0	ff 75 e0	 push	 DWORD PTR __Newvec$[ebp]
  001a3	8b 4d ec	 mov	 ecx, DWORD PTR _this$[ebp]
  001a6	e8 00 00 00 00	 call	 ?_Getal@?$vector@USModelThingSet@CGraphicThingInstance@@V?$allocator@USModelThingSet@CGraphicThingInstance@@@std@@@std@@AAEAAV?$allocator@USModelThingSet@CGraphicThingInstance@@@2@XZ ; std::vector<CGraphicThingInstance::SModelThingSet,std::allocator<CGraphicThingInstance::SModelThingSet> >::_Getal
  001ab	8b c8		 mov	 ecx, eax
  001ad	e8 00 00 00 00	 call	 ?deallocate@?$allocator@USModelThingSet@CGraphicThingInstance@@@std@@QAEXQAUSModelThingSet@CGraphicThingInstance@@I@Z ; std::allocator<CGraphicThingInstance::SModelThingSet>::deallocate

; 1204 :         _RERAISE;

  001b2	6a 00		 push	 0
  001b4	6a 00		 push	 0
  001b6	e8 00 00 00 00	 call	 __CxxThrowException@8

; 1205 :         _CATCH_END

  001bb	b8 00 00 00 00	 mov	 eax, $LN8@Resize_rea
  001c0	c3		 ret	 0
$LN5@Resize_rea:
  001c1	83 4d fc ff	 or	 DWORD PTR __$EHRec$[ebp+12], -1
  001c5	eb 04		 jmp	 SHORT __tryend$??$_Resize_reallocate@U_Value_init_tag@std@@@?$vector@USModelThingSet@CGraphicThingInstance@@V?$allocator@USModelThingSet@CGraphicThingInstance@@@std@@@std@@AAEXIABU_Value_init_tag@1@@Z$1
$LN8@Resize_rea:
; File C:\Program Files (x86)\Microsoft Visual Studio\2019\Community\VC\Tools\MSVC\14.28.29333\include\xmemory
  001c7	83 4d fc ff	 or	 DWORD PTR __$EHRec$[ebp+12], -1
__tryend$??$_Resize_reallocate@U_Value_init_tag@std@@@?$vector@USModelThingSet@CGraphicThingInstance@@V?$allocator@USModelThingSet@CGraphicThingInstance@@@std@@@std@@AAEXIABU_Value_init_tag@1@@Z$1:
; File C:\Program Files (x86)\Microsoft Visual Studio\2019\Community\VC\Tools\MSVC\14.28.29333\include\vector

; 1206 : 
; 1207 :         _Change_array(_Newvec, _Newsize, _Newcapacity);

  001cb	ff 75 e4	 push	 DWORD PTR __Newcapacity$[ebp]
  001ce	ff 75 08	 push	 DWORD PTR __Newsize$[ebp]
  001d1	ff 75 e0	 push	 DWORD PTR __Newvec$[ebp]
  001d4	8b 4d ec	 mov	 ecx, DWORD PTR _this$[ebp]
  001d7	e8 00 00 00 00	 call	 ?_Change_array@?$vector@USModelThingSet@CGraphicThingInstance@@V?$allocator@USModelThingSet@CGraphicThingInstance@@@std@@@std@@AAEXQAUSModelThingSet@CGraphicThingInstance@@II@Z ; std::vector<CGraphicThingInstance::SModelThingSet,std::allocator<CGraphicThingInstance::SModelThingSet> >::_Change_array
$LN68@Resize_rea:

; 1208 :     }

  001dc	8b 4d f4	 mov	 ecx, DWORD PTR __$EHRec$[ebp+4]
  001df	64 89 0d 00 00
	00 00		 mov	 DWORD PTR fs:0, ecx
  001e6	59		 pop	 ecx
  001e7	5f		 pop	 edi
  001e8	5e		 pop	 esi
  001e9	5b		 pop	 ebx
  001ea	c9		 leave
  001eb	c2 08 00	 ret	 8
  001ee	cc		 int	 3
  001ef	cc		 int	 3
  001f0	cc		 int	 3
  001f1	cc		 int	 3
  001f2	cc		 int	 3
_TEXT	ENDS
;	COMDAT text$x
text$x	SEGMENT
__ehhandler$??$_Resize_reallocate@U_Value_init_tag@std@@@?$vector@USModelThingSet@CGraphicThingInstance@@V?$allocator@USModelThingSet@CGraphicThingInstance@@@std@@@std@@AAEXIABU_Value_init_tag@1@@Z:
  00000	90		 npad	 1
  00001	90		 npad	 1
  00002	8b 54 24 08	 mov	 edx, DWORD PTR [esp+8]
  00006	8d 42 0c	 lea	 eax, DWORD PTR [edx+12]
  00009	8b 8a 68 ff ff
	ff		 mov	 ecx, DWORD PTR [edx-152]
  0000f	33 c8		 xor	 ecx, eax
  00011	e8 00 00 00 00	 call	 @__security_check_cookie@4
  00016	b8 00 00 00 00	 mov	 eax, OFFSET __ehfuncinfo$??$_Resize_reallocate@U_Value_init_tag@std@@@?$vector@USModelThingSet@CGraphicThingInstance@@V?$allocator@USModelThingSet@CGraphicThingInstance@@@std@@@std@@AAEXIABU_Value_init_tag@1@@Z
  0001b	e9 00 00 00 00	 jmp	 ___CxxFrameHandler3
text$x	ENDS
??$_Resize_reallocate@U_Value_init_tag@std@@@?$vector@USModelThingSet@CGraphicThingInstance@@V?$allocator@USModelThingSet@CGraphicThingInstance@@@std@@@std@@AAEXIABU_Value_init_tag@1@@Z ENDP ; std::vector<CGraphicThingInstance::SModelThingSet,std::allocator<CGraphicThingInstance::SModelThingSet> >::_Resize_reallocate<std::_Value_init_tag>
; Function compile flags: /Odspy
; File C:\Program Files (x86)\Microsoft Visual Studio\2019\Community\VC\Tools\MSVC\14.28.29333\include\xtree
; File C:\Program Files (x86)\Microsoft Visual Studio\2019\Community\VC\Tools\MSVC\14.28.29333\include\xmemory
; File C:\Program Files (x86)\Microsoft Visual Studio\2019\Community\VC\Tools\MSVC\14.28.29333\include\xtree
;	COMDAT ??$_Freenode0@V?$allocator@U?$_Tree_node@U?$pair@$$CBKPAV?$CRef@VCGraphicThing@@@@@std@@PAX@std@@@std@@@?$_Tree_node@U?$pair@$$CBKPAV?$CRef@VCGraphicThing@@@@@std@@PAX@std@@SAXAAV?$allocator@U?$_Tree_node@U?$pair@$$CBKPAV?$CRef@VCGraphicThing@@@@@std@@PAX@std@@@1@PAU01@@Z
_TEXT	SEGMENT
__Al$ = 8						; size = 4
__Ptr$ = 12						; size = 4
??$_Freenode0@V?$allocator@U?$_Tree_node@U?$pair@$$CBKPAV?$CRef@VCGraphicThing@@@@@std@@PAX@std@@@std@@@?$_Tree_node@U?$pair@$$CBKPAV?$CRef@VCGraphicThing@@@@@std@@PAX@std@@SAXAAV?$allocator@U?$_Tree_node@U?$pair@$$CBKPAV?$CRef@VCGraphicThing@@@@@std@@PAX@std@@@1@PAU01@@Z PROC ; std::_Tree_node<std::pair<unsigned long const ,CRef<CGraphicThing> *>,void *>::_Freenode0<std::allocator<std::_Tree_node<std::pair<unsigned long const ,CRef<CGraphicThing> *>,void *> > >, COMDAT

; 368  :     static void _Freenode0(_Alloc& _Al, _Nodeptr _Ptr) noexcept {

  00000	55		 push	 ebp
  00001	8b ec		 mov	 ebp, esp

; 369  :         static_assert(is_same_v<typename _Alloc::value_type, _Tree_node>, "Bad _Freenode0 call");
; 370  :         _Destroy_in_place(_Ptr->_Left);

  00003	ff 75 0c	 push	 DWORD PTR __Ptr$[ebp]
  00006	e8 00 00 00 00	 call	 ??$_Destroy_in_place@PAU?$_Tree_node@U?$pair@$$CBKPAV?$CRef@VCGraphicThing@@@@@std@@PAX@std@@@std@@YAXAAPAU?$_Tree_node@U?$pair@$$CBKPAV?$CRef@VCGraphicThing@@@@@std@@PAX@0@@Z ; std::_Destroy_in_place<std::_Tree_node<std::pair<unsigned long const ,CRef<CGraphicThing> *>,void *> *>
  0000b	59		 pop	 ecx

; 371  :         _Destroy_in_place(_Ptr->_Parent);

  0000c	8b 45 0c	 mov	 eax, DWORD PTR __Ptr$[ebp]
  0000f	83 c0 04	 add	 eax, 4
  00012	50		 push	 eax
  00013	e8 00 00 00 00	 call	 ??$_Destroy_in_place@PAU?$_Tree_node@U?$pair@$$CBKPAV?$CRef@VCGraphicThing@@@@@std@@PAX@std@@@std@@YAXAAPAU?$_Tree_node@U?$pair@$$CBKPAV?$CRef@VCGraphicThing@@@@@std@@PAX@0@@Z ; std::_Destroy_in_place<std::_Tree_node<std::pair<unsigned long const ,CRef<CGraphicThing> *>,void *> *>
  00018	59		 pop	 ecx

; 372  :         _Destroy_in_place(_Ptr->_Right);

  00019	8b 45 0c	 mov	 eax, DWORD PTR __Ptr$[ebp]
  0001c	83 c0 08	 add	 eax, 8
  0001f	50		 push	 eax
  00020	e8 00 00 00 00	 call	 ??$_Destroy_in_place@PAU?$_Tree_node@U?$pair@$$CBKPAV?$CRef@VCGraphicThing@@@@@std@@PAX@std@@@std@@YAXAAPAU?$_Tree_node@U?$pair@$$CBKPAV?$CRef@VCGraphicThing@@@@@std@@PAX@0@@Z ; std::_Destroy_in_place<std::_Tree_node<std::pair<unsigned long const ,CRef<CGraphicThing> *>,void *> *>
  00025	59		 pop	 ecx
; File C:\Program Files (x86)\Microsoft Visual Studio\2019\Community\VC\Tools\MSVC\14.28.29333\include\xmemory

; 696  :         _Deallocate<_New_alignof<value_type>>(_Ptr, sizeof(value_type) * _Count);

  00026	33 c0		 xor	 eax, eax
  00028	40		 inc	 eax
  00029	6b c0 18	 imul	 eax, eax, 24
  0002c	50		 push	 eax
  0002d	ff 75 0c	 push	 DWORD PTR __Ptr$[ebp]
  00030	e8 00 00 00 00	 call	 ??$_Deallocate@$07$0A@@std@@YAXPAXI@Z ; std::_Deallocate<8,0>
  00035	59		 pop	 ecx
  00036	59		 pop	 ecx
; File C:\Program Files (x86)\Microsoft Visual Studio\2019\Community\VC\Tools\MSVC\14.28.29333\include\xtree

; 374  :     }

  00037	5d		 pop	 ebp
  00038	c3		 ret	 0
??$_Freenode0@V?$allocator@U?$_Tree_node@U?$pair@$$CBKPAV?$CRef@VCGraphicThing@@@@@std@@PAX@std@@@std@@@?$_Tree_node@U?$pair@$$CBKPAV?$CRef@VCGraphicThing@@@@@std@@PAX@std@@SAXAAV?$allocator@U?$_Tree_node@U?$pair@$$CBKPAV?$CRef@VCGraphicThing@@@@@std@@PAX@std@@@1@PAU01@@Z ENDP ; std::_Tree_node<std::pair<unsigned long const ,CRef<CGraphicThing> *>,void *>::_Freenode0<std::allocator<std::_Tree_node<std::pair<unsigned long const ,CRef<CGraphicThing> *>,void *> > >
_TEXT	ENDS
; Function compile flags: /Odspy
; File C:\Program Files (x86)\Microsoft Visual Studio\2019\Community\VC\Tools\MSVC\14.28.29333\include\xtree
; File C:\Program Files (x86)\Microsoft Visual Studio\2019\Community\VC\Tools\MSVC\14.28.29333\include\utility
; File C:\Program Files (x86)\Microsoft Visual Studio\2019\Community\VC\Tools\MSVC\14.28.29333\include\xtree
; File C:\Program Files (x86)\Microsoft Visual Studio\2019\Community\VC\Tools\MSVC\14.28.29333\include\xstddef
; File C:\Program Files (x86)\Microsoft Visual Studio\2019\Community\VC\Tools\MSVC\14.28.29333\include\xtree
;	COMDAT ??$_Erase_tree@V?$allocator@U?$_Tree_node@U?$pair@$$CBKPAV?$CRef@VCGraphicThing@@@@@std@@PAX@std@@@std@@@?$_Tree_val@U?$_Tree_simple_types@U?$pair@$$CBKPAV?$CRef@VCGraphicThing@@@@@std@@@std@@@std@@QAEXAAV?$allocator@U?$_Tree_node@U?$pair@$$CBKPAV?$CRef@VCGraphicThing@@@@@std@@PAX@std@@@1@PAU?$_Tree_node@U?$pair@$$CBKPAV?$CRef@VCGraphicThing@@@@@std@@PAX@1@@Z
_TEXT	SEGMENT
$T1 = -20						; size = 4
__Old_val$2 = -16					; size = 4
__New_val$ = -12					; size = 4
_this$ = -8						; size = 4
$T3 = -4						; size = 4
__Al$ = 8						; size = 4
__Rootnode$ = 12					; size = 4
??$_Erase_tree@V?$allocator@U?$_Tree_node@U?$pair@$$CBKPAV?$CRef@VCGraphicThing@@@@@std@@PAX@std@@@std@@@?$_Tree_val@U?$_Tree_simple_types@U?$pair@$$CBKPAV?$CRef@VCGraphicThing@@@@@std@@@std@@@std@@QAEXAAV?$allocator@U?$_Tree_node@U?$pair@$$CBKPAV?$CRef@VCGraphicThing@@@@@std@@PAX@std@@@1@PAU?$_Tree_node@U?$pair@$$CBKPAV?$CRef@VCGraphicThing@@@@@std@@PAX@1@@Z PROC ; std::_Tree_val<std::_Tree_simple_types<std::pair<unsigned long const ,CRef<CGraphicThing> *> > >::_Erase_tree<std::allocator<std::_Tree_node<std::pair<unsigned long const ,CRef<CGraphicThing> *>,void *> > >, COMDAT
; _this$ = ecx

; 742  :     void _Erase_tree(_Alnode& _Al, _Nodeptr _Rootnode) noexcept {

  00000	55		 push	 ebp
  00001	8b ec		 mov	 ebp, esp
  00003	83 ec 14	 sub	 esp, 20			; 00000014H
  00006	89 4d f8	 mov	 DWORD PTR _this$[ebp], ecx
$LN2@Erase_tree:

; 743  :         while (!_Rootnode->_Isnil) { // free subtrees, then node

  00009	8b 45 0c	 mov	 eax, DWORD PTR __Rootnode$[ebp]
  0000c	0f be 40 0d	 movsx	 eax, BYTE PTR [eax+13]
  00010	85 c0		 test	 eax, eax
  00012	75 43		 jne	 SHORT $LN4@Erase_tree

; 744  :             _Erase_tree(_Al, _Rootnode->_Right);

  00014	8b 45 0c	 mov	 eax, DWORD PTR __Rootnode$[ebp]
  00017	ff 70 08	 push	 DWORD PTR [eax+8]
  0001a	ff 75 08	 push	 DWORD PTR __Al$[ebp]
  0001d	8b 4d f8	 mov	 ecx, DWORD PTR _this$[ebp]
  00020	e8 00 00 00 00	 call	 ??$_Erase_tree@V?$allocator@U?$_Tree_node@U?$pair@$$CBKPAV?$CRef@VCGraphicThing@@@@@std@@PAX@std@@@std@@@?$_Tree_val@U?$_Tree_simple_types@U?$pair@$$CBKPAV?$CRef@VCGraphicThing@@@@@std@@@std@@@std@@QAEXAAV?$allocator@U?$_Tree_node@U?$pair@$$CBKPAV?$CRef@VCGraphicThing@@@@@std@@PAX@std@@@1@PAU?$_Tree_node@U?$pair@$$CBKPAV?$CRef@VCGraphicThing@@@@@std@@PAX@1@@Z ; std::_Tree_val<std::_Tree_simple_types<std::pair<unsigned long const ,CRef<CGraphicThing> *> > >::_Erase_tree<std::allocator<std::_Tree_node<std::pair<unsigned long const ,CRef<CGraphicThing> *>,void *> > >

; 745  :             _Alnode::value_type::_Freenode(_Al, _STD exchange(_Rootnode, _Rootnode->_Left));

  00025	8b 45 0c	 mov	 eax, DWORD PTR __Rootnode$[ebp]
  00028	89 45 f4	 mov	 DWORD PTR __New_val$[ebp], eax
; File C:\Program Files (x86)\Microsoft Visual Studio\2019\Community\VC\Tools\MSVC\14.28.29333\include\utility

; 598  :     _Ty _Old_val = static_cast<_Ty&&>(_Val);

  0002b	8b 45 0c	 mov	 eax, DWORD PTR __Rootnode$[ebp]
  0002e	89 45 f0	 mov	 DWORD PTR __Old_val$2[ebp], eax

; 599  :     _Val         = static_cast<_Other&&>(_New_val);

  00031	8b 45 f4	 mov	 eax, DWORD PTR __New_val$[ebp]
  00034	8b 00		 mov	 eax, DWORD PTR [eax]
  00036	89 45 0c	 mov	 DWORD PTR __Rootnode$[ebp], eax

; 600  :     return _Old_val;

  00039	8b 45 f0	 mov	 eax, DWORD PTR __Old_val$2[ebp]
  0003c	89 45 fc	 mov	 DWORD PTR $T3[ebp], eax
; File C:\Program Files (x86)\Microsoft Visual Studio\2019\Community\VC\Tools\MSVC\14.28.29333\include\xtree

; 379  :         allocator_traits<_Alloc>::destroy(_Al, _STD addressof(_Ptr->_Myval));

  0003f	8b 45 fc	 mov	 eax, DWORD PTR $T3[ebp]
  00042	83 c0 10	 add	 eax, 16			; 00000010H
; File C:\Program Files (x86)\Microsoft Visual Studio\2019\Community\VC\Tools\MSVC\14.28.29333\include\xstddef

; 275  :     return __builtin_addressof(_Val);

  00045	89 45 ec	 mov	 DWORD PTR $T1[ebp], eax
; File C:\Program Files (x86)\Microsoft Visual Studio\2019\Community\VC\Tools\MSVC\14.28.29333\include\xtree

; 380  :         _Freenode0(_Al, _Ptr);

  00048	ff 75 fc	 push	 DWORD PTR $T3[ebp]
  0004b	ff 75 08	 push	 DWORD PTR __Al$[ebp]
  0004e	e8 00 00 00 00	 call	 ??$_Freenode0@V?$allocator@U?$_Tree_node@U?$pair@$$CBKPAV?$CRef@VCGraphicThing@@@@@std@@PAX@std@@@std@@@?$_Tree_node@U?$pair@$$CBKPAV?$CRef@VCGraphicThing@@@@@std@@PAX@std@@SAXAAV?$allocator@U?$_Tree_node@U?$pair@$$CBKPAV?$CRef@VCGraphicThing@@@@@std@@PAX@std@@@1@PAU01@@Z ; std::_Tree_node<std::pair<unsigned long const ,CRef<CGraphicThing> *>,void *>::_Freenode0<std::allocator<std::_Tree_node<std::pair<unsigned long const ,CRef<CGraphicThing> *>,void *> > >
  00053	59		 pop	 ecx
  00054	59		 pop	 ecx

; 746  :         }

  00055	eb b2		 jmp	 SHORT $LN2@Erase_tree
$LN4@Erase_tree:

; 747  :     }

  00057	c9		 leave
  00058	c2 08 00	 ret	 8
??$_Erase_tree@V?$allocator@U?$_Tree_node@U?$pair@$$CBKPAV?$CRef@VCGraphicThing@@@@@std@@PAX@std@@@std@@@?$_Tree_val@U?$_Tree_simple_types@U?$pair@$$CBKPAV?$CRef@VCGraphicThing@@@@@std@@@std@@@std@@QAEXAAV?$allocator@U?$_Tree_node@U?$pair@$$CBKPAV?$CRef@VCGraphicThing@@@@@std@@PAX@std@@@1@PAU?$_Tree_node@U?$pair@$$CBKPAV?$CRef@VCGraphicThing@@@@@std@@PAX@1@@Z ENDP ; std::_Tree_val<std::_Tree_simple_types<std::pair<unsigned long const ,CRef<CGraphicThing> *> > >::_Erase_tree<std::allocator<std::_Tree_node<std::pair<unsigned long const ,CRef<CGraphicThing> *>,void *> > >
_TEXT	ENDS
; Function compile flags: /Odspy
; File C:\Program Files (x86)\Microsoft Visual Studio\2019\Community\VC\Tools\MSVC\14.28.29333\include\xtree
; File C:\Program Files (x86)\Microsoft Visual Studio\2019\Community\VC\Tools\MSVC\14.28.29333\include\xmemory
; File C:\Program Files (x86)\Microsoft Visual Studio\2019\Community\VC\Tools\MSVC\14.28.29333\include\xtree
; File C:\Program Files (x86)\Microsoft Visual Studio\2019\Community\VC\Tools\MSVC\14.28.29333\include\type_traits
; File C:\Program Files (x86)\Microsoft Visual Studio\2019\Community\VC\Tools\MSVC\14.28.29333\include\xtree
; File C:\Program Files (x86)\Microsoft Visual Studio\2019\Community\VC\Tools\MSVC\14.28.29333\include\xstddef
; File C:\Program Files (x86)\Microsoft Visual Studio\2019\Community\VC\Tools\MSVC\14.28.29333\include\xtree
;	COMDAT ??$?0ABUpiecewise_construct_t@std@@V?$tuple@ABK@1@V?$tuple@$$V@1@@?$_Tree_temp_node@V?$allocator@U?$_Tree_node@U?$pair@$$CBKPAV?$CRef@VCGraphicThing@@@@@std@@PAX@std@@@std@@@std@@QAE@AAV?$allocator@U?$_Tree_node@U?$pair@$$CBKPAV?$CRef@VCGraphicThing@@@@@std@@PAX@std@@@1@PAU?$_Tree_node@U?$pair@$$CBKPAV?$CRef@VCGraphicThing@@@@@std@@PAX@1@ABUpiecewise_construct_t@1@$$QAV?$tuple@ABK@1@$$QAV?$tuple@$$V@1@@Z
_TEXT	SEGMENT
$T2 = -36						; size = 4
$T3 = -32						; size = 4
$T4 = -28						; size = 4
$T5 = -24						; size = 4
__Val$ = -20						; size = 4
_this$ = -16						; size = 4
__$EHRec$ = -12						; size = 12
__Al_$ = 8						; size = 4
__Myhead$ = 12						; size = 4
_<_Vals_0>$ = 16					; size = 4
_<_Vals_1>$ = 20					; size = 4
_<_Vals_2>$ = 24					; size = 4
??$?0ABUpiecewise_construct_t@std@@V?$tuple@ABK@1@V?$tuple@$$V@1@@?$_Tree_temp_node@V?$allocator@U?$_Tree_node@U?$pair@$$CBKPAV?$CRef@VCGraphicThing@@@@@std@@PAX@std@@@std@@@std@@QAE@AAV?$allocator@U?$_Tree_node@U?$pair@$$CBKPAV?$CRef@VCGraphicThing@@@@@std@@PAX@std@@@1@PAU?$_Tree_node@U?$pair@$$CBKPAV?$CRef@VCGraphicThing@@@@@std@@PAX@1@ABUpiecewise_construct_t@1@$$QAV?$tuple@ABK@1@$$QAV?$tuple@$$V@1@@Z PROC ; std::_Tree_temp_node<std::allocator<std::_Tree_node<std::pair<unsigned long const ,CRef<CGraphicThing> *>,void *> > >::_Tree_temp_node<std::allocator<std::_Tree_node<std::pair<unsigned long const ,CRef<CGraphicThing> *>,void *> > ><std::piecewise_construct_t const &,std::tuple<unsigned long const &>,std::tuple<> >, COMDAT
; _this$ = ecx

; 805  :         : _Tree_temp_node_alloc<_Alnode>(_Al_) {

  00000	55		 push	 ebp
  00001	8b ec		 mov	 ebp, esp
  00003	6a ff		 push	 -1
  00005	68 00 00 00 00	 push	 __ehhandler$??$?0ABUpiecewise_construct_t@std@@V?$tuple@ABK@1@V?$tuple@$$V@1@@?$_Tree_temp_node@V?$allocator@U?$_Tree_node@U?$pair@$$CBKPAV?$CRef@VCGraphicThing@@@@@std@@PAX@std@@@std@@@std@@QAE@AAV?$allocator@U?$_Tree_node@U?$pair@$$CBKPAV?$CRef@VCGraphicThing@@@@@std@@PAX@std@@@1@PAU?$_Tree_node@U?$pair@$$CBKPAV?$CRef@VCGraphicThing@@@@@std@@PAX@1@ABUpiecewise_construct_t@1@$$QAV?$tuple@ABK@1@$$QAV?$tuple@$$V@1@@Z
  0000a	64 a1 00 00 00
	00		 mov	 eax, DWORD PTR fs:0
  00010	50		 push	 eax
  00011	83 ec 18	 sub	 esp, 24			; 00000018H
  00014	a1 00 00 00 00	 mov	 eax, DWORD PTR ___security_cookie
  00019	33 c5		 xor	 eax, ebp
  0001b	50		 push	 eax
  0001c	8d 45 f4	 lea	 eax, DWORD PTR __$EHRec$[ebp]
  0001f	64 a3 00 00 00
	00		 mov	 DWORD PTR fs:0, eax
  00025	89 4d f0	 mov	 DWORD PTR _this$[ebp], ecx
; File C:\Program Files (x86)\Microsoft Visual Studio\2019\Community\VC\Tools\MSVC\14.28.29333\include\xmemory

; 1045 :     explicit _Alloc_construct_ptr(_Alloc& _Al_) : _Al(_Al_), _Ptr(nullptr) {}

  00028	8b 45 f0	 mov	 eax, DWORD PTR _this$[ebp]
  0002b	8b 4d 08	 mov	 ecx, DWORD PTR __Al_$[ebp]
  0002e	89 08		 mov	 DWORD PTR [eax], ecx
  00030	8b 45 f0	 mov	 eax, DWORD PTR _this$[ebp]
  00033	83 60 04 00	 and	 DWORD PTR [eax+4], 0
; File C:\Program Files (x86)\Microsoft Visual Studio\2019\Community\VC\Tools\MSVC\14.28.29333\include\xtree

; 784  :     explicit _Tree_temp_node_alloc(_Alnode& _Al_) : _Alloc_construct_ptr<_Alnode>(_Al_) {

  00037	83 65 fc 00	 and	 DWORD PTR __$EHRec$[ebp+8], 0

; 785  :         _Alloc_construct_ptr<_Alnode>::_Allocate();

  0003b	8b 4d f0	 mov	 ecx, DWORD PTR _this$[ebp]
  0003e	e8 00 00 00 00	 call	 ?_Allocate@?$_Alloc_construct_ptr@V?$allocator@U?$_Tree_node@U?$pair@$$CBKPAV?$CRef@VCGraphicThing@@@@@std@@PAX@std@@@std@@@std@@QAEXXZ ; std::_Alloc_construct_ptr<std::allocator<std::_Tree_node<std::pair<unsigned long const ,CRef<CGraphicThing> *>,void *> > >::_Allocate

; 805  :         : _Tree_temp_node_alloc<_Alnode>(_Al_) {

  00043	c7 45 fc 01 00
	00 00		 mov	 DWORD PTR __$EHRec$[ebp+8], 1
; File C:\Program Files (x86)\Microsoft Visual Studio\2019\Community\VC\Tools\MSVC\14.28.29333\include\type_traits

; 1443 :     return static_cast<_Ty&&>(_Arg);

  0004a	8b 45 18	 mov	 eax, DWORD PTR _<_Vals_2>$[ebp]
  0004d	89 45 e8	 mov	 DWORD PTR $T5[ebp], eax
  00050	8b 45 14	 mov	 eax, DWORD PTR _<_Vals_1>$[ebp]
  00053	89 45 e4	 mov	 DWORD PTR $T4[ebp], eax
  00056	8b 45 10	 mov	 eax, DWORD PTR _<_Vals_0>$[ebp]
  00059	89 45 e0	 mov	 DWORD PTR $T3[ebp], eax
; File C:\Program Files (x86)\Microsoft Visual Studio\2019\Community\VC\Tools\MSVC\14.28.29333\include\xtree

; 806  :         _Alnode_traits::construct(this->_Al, _STD addressof(this->_Ptr->_Myval), _STD forward<_Valtys>(_Vals)...);

  0005c	8b 45 f0	 mov	 eax, DWORD PTR _this$[ebp]
  0005f	8b 40 04	 mov	 eax, DWORD PTR [eax+4]
  00062	83 c0 10	 add	 eax, 16			; 00000010H
  00065	89 45 ec	 mov	 DWORD PTR __Val$[ebp], eax
; File C:\Program Files (x86)\Microsoft Visual Studio\2019\Community\VC\Tools\MSVC\14.28.29333\include\xstddef

; 275  :     return __builtin_addressof(_Val);

  00068	8b 45 ec	 mov	 eax, DWORD PTR __Val$[ebp]
  0006b	89 45 dc	 mov	 DWORD PTR $T2[ebp], eax
; File C:\Program Files (x86)\Microsoft Visual Studio\2019\Community\VC\Tools\MSVC\14.28.29333\include\xtree

; 806  :         _Alnode_traits::construct(this->_Al, _STD addressof(this->_Ptr->_Myval), _STD forward<_Valtys>(_Vals)...);

  0006e	ff 75 e8	 push	 DWORD PTR $T5[ebp]
  00071	ff 75 e4	 push	 DWORD PTR $T4[ebp]
  00074	ff 75 e0	 push	 DWORD PTR $T3[ebp]
  00077	ff 75 dc	 push	 DWORD PTR $T2[ebp]
  0007a	8b 45 f0	 mov	 eax, DWORD PTR _this$[ebp]
  0007d	ff 30		 push	 DWORD PTR [eax]
  0007f	e8 00 00 00 00	 call	 ??$construct@U?$pair@$$CBKPAV?$CRef@VCGraphicThing@@@@@std@@ABUpiecewise_construct_t@2@V?$tuple@ABK@2@V?$tuple@$$V@2@@?$_Default_allocator_traits@V?$allocator@U?$_Tree_node@U?$pair@$$CBKPAV?$CRef@VCGraphicThing@@@@@std@@PAX@std@@@std@@@std@@SAXAAV?$allocator@U?$_Tree_node@U?$pair@$$CBKPAV?$CRef@VCGraphicThing@@@@@std@@PAX@std@@@1@QAU?$pair@$$CBKPAV?$CRef@VCGraphicThing@@@@@1@ABUpiecewise_construct_t@1@$$QAV?$tuple@ABK@1@$$QAV?$tuple@$$V@1@@Z ; std::_Default_allocator_traits<std::allocator<std::_Tree_node<std::pair<unsigned long const ,CRef<CGraphicThing> *>,void *> > >::construct<std::pair<unsigned long const ,CRef<CGraphicThing> *>,std::piecewise_construct_t const &,std::tuple<unsigned long const &>,std::tuple<> >
  00084	83 c4 14	 add	 esp, 20			; 00000014H

; 807  :         _Construct_in_place(this->_Ptr->_Left, _Myhead);

  00087	8d 45 0c	 lea	 eax, DWORD PTR __Myhead$[ebp]
  0008a	50		 push	 eax
  0008b	8b 45 f0	 mov	 eax, DWORD PTR _this$[ebp]
  0008e	ff 70 04	 push	 DWORD PTR [eax+4]
  00091	e8 00 00 00 00	 call	 ??$_Construct_in_place@PAU?$_Tree_node@U?$pair@$$CBKPAV?$CRef@VCGraphicThing@@@@@std@@PAX@std@@AAPAU12@@std@@YAXAAPAU?$_Tree_node@U?$pair@$$CBKPAV?$CRef@VCGraphicThing@@@@@std@@PAX@0@0@Z ; std::_Construct_in_place<std::_Tree_node<std::pair<unsigned long const ,CRef<CGraphicThing> *>,void *> *,std::_Tree_node<std::pair<unsigned long const ,CRef<CGraphicThing> *>,void *> * &>
  00096	59		 pop	 ecx
  00097	59		 pop	 ecx

; 808  :         _Construct_in_place(this->_Ptr->_Parent, _Myhead);

  00098	8d 45 0c	 lea	 eax, DWORD PTR __Myhead$[ebp]
  0009b	50		 push	 eax
  0009c	8b 45 f0	 mov	 eax, DWORD PTR _this$[ebp]
  0009f	8b 40 04	 mov	 eax, DWORD PTR [eax+4]
  000a2	83 c0 04	 add	 eax, 4
  000a5	50		 push	 eax
  000a6	e8 00 00 00 00	 call	 ??$_Construct_in_place@PAU?$_Tree_node@U?$pair@$$CBKPAV?$CRef@VCGraphicThing@@@@@std@@PAX@std@@AAPAU12@@std@@YAXAAPAU?$_Tree_node@U?$pair@$$CBKPAV?$CRef@VCGraphicThing@@@@@std@@PAX@0@0@Z ; std::_Construct_in_place<std::_Tree_node<std::pair<unsigned long const ,CRef<CGraphicThing> *>,void *> *,std::_Tree_node<std::pair<unsigned long const ,CRef<CGraphicThing> *>,void *> * &>
  000ab	59		 pop	 ecx
  000ac	59		 pop	 ecx

; 809  :         _Construct_in_place(this->_Ptr->_Right, _Myhead);

  000ad	8d 45 0c	 lea	 eax, DWORD PTR __Myhead$[ebp]
  000b0	50		 push	 eax
  000b1	8b 45 f0	 mov	 eax, DWORD PTR _this$[ebp]
  000b4	8b 40 04	 mov	 eax, DWORD PTR [eax+4]
  000b7	83 c0 08	 add	 eax, 8
  000ba	50		 push	 eax
  000bb	e8 00 00 00 00	 call	 ??$_Construct_in_place@PAU?$_Tree_node@U?$pair@$$CBKPAV?$CRef@VCGraphicThing@@@@@std@@PAX@std@@AAPAU12@@std@@YAXAAPAU?$_Tree_node@U?$pair@$$CBKPAV?$CRef@VCGraphicThing@@@@@std@@PAX@0@0@Z ; std::_Construct_in_place<std::_Tree_node<std::pair<unsigned long const ,CRef<CGraphicThing> *>,void *> *,std::_Tree_node<std::pair<unsigned long const ,CRef<CGraphicThing> *>,void *> * &>
  000c0	59		 pop	 ecx
  000c1	59		 pop	 ecx

; 810  :         this->_Ptr->_Color = _Red;

  000c2	8b 45 f0	 mov	 eax, DWORD PTR _this$[ebp]
  000c5	8b 40 04	 mov	 eax, DWORD PTR [eax+4]
  000c8	c6 40 0c 00	 mov	 BYTE PTR [eax+12], 0

; 811  :         this->_Ptr->_Isnil = false;

  000cc	8b 45 f0	 mov	 eax, DWORD PTR _this$[ebp]
  000cf	8b 40 04	 mov	 eax, DWORD PTR [eax+4]
  000d2	c6 40 0d 00	 mov	 BYTE PTR [eax+13], 0

; 812  :     }

  000d6	83 4d fc ff	 or	 DWORD PTR __$EHRec$[ebp+8], -1
  000da	8b 45 f0	 mov	 eax, DWORD PTR _this$[ebp]
  000dd	8b 4d f4	 mov	 ecx, DWORD PTR __$EHRec$[ebp]
  000e0	64 89 0d 00 00
	00 00		 mov	 DWORD PTR fs:0, ecx
  000e7	59		 pop	 ecx
  000e8	c9		 leave
  000e9	c2 14 00	 ret	 20			; 00000014H
_TEXT	ENDS
;	COMDAT text$x
text$x	SEGMENT
__unwindfunclet$??$?0ABUpiecewise_construct_t@std@@V?$tuple@ABK@1@V?$tuple@$$V@1@@?$_Tree_temp_node@V?$allocator@U?$_Tree_node@U?$pair@$$CBKPAV?$CRef@VCGraphicThing@@@@@std@@PAX@std@@@std@@@std@@QAE@AAV?$allocator@U?$_Tree_node@U?$pair@$$CBKPAV?$CRef@VCGraphicThing@@@@@std@@PAX@std@@@1@PAU?$_Tree_node@U?$pair@$$CBKPAV?$CRef@VCGraphicThing@@@@@std@@PAX@1@ABUpiecewise_construct_t@1@$$QAV?$tuple@ABK@1@$$QAV?$tuple@$$V@1@@Z$1:
  00000	8b 4d f0	 mov	 ecx, DWORD PTR _this$[ebp]
  00003	e9 00 00 00 00	 jmp	 ??1?$_Alloc_construct_ptr@V?$allocator@U?$_Tree_node@U?$pair@$$CBKPAV?$CRef@VCGraphicThing@@@@@std@@PAX@std@@@std@@@std@@QAE@XZ ; std::_Alloc_construct_ptr<std::allocator<std::_Tree_node<std::pair<unsigned long const ,CRef<CGraphicThing> *>,void *> > >::~_Alloc_construct_ptr<std::allocator<std::_Tree_node<std::pair<unsigned long const ,CRef<CGraphicThing> *>,void *> > >
__unwindfunclet$??$?0ABUpiecewise_construct_t@std@@V?$tuple@ABK@1@V?$tuple@$$V@1@@?$_Tree_temp_node@V?$allocator@U?$_Tree_node@U?$pair@$$CBKPAV?$CRef@VCGraphicThing@@@@@std@@PAX@std@@@std@@@std@@QAE@AAV?$allocator@U?$_Tree_node@U?$pair@$$CBKPAV?$CRef@VCGraphicThing@@@@@std@@PAX@std@@@1@PAU?$_Tree_node@U?$pair@$$CBKPAV?$CRef@VCGraphicThing@@@@@std@@PAX@1@ABUpiecewise_construct_t@1@$$QAV?$tuple@ABK@1@$$QAV?$tuple@$$V@1@@Z$0:
  00008	8b 4d f0	 mov	 ecx, DWORD PTR _this$[ebp]
  0000b	e9 00 00 00 00	 jmp	 ??1?$_Tree_temp_node_alloc@V?$allocator@U?$_Tree_node@U?$pair@$$CBKPAV?$CRef@VCGraphicThing@@@@@std@@PAX@std@@@std@@@std@@QAE@XZ
  00010	cc		 int	 3
  00011	cc		 int	 3
  00012	cc		 int	 3
  00013	cc		 int	 3
  00014	cc		 int	 3
__ehhandler$??$?0ABUpiecewise_construct_t@std@@V?$tuple@ABK@1@V?$tuple@$$V@1@@?$_Tree_temp_node@V?$allocator@U?$_Tree_node@U?$pair@$$CBKPAV?$CRef@VCGraphicThing@@@@@std@@PAX@std@@@std@@@std@@QAE@AAV?$allocator@U?$_Tree_node@U?$pair@$$CBKPAV?$CRef@VCGraphicThing@@@@@std@@PAX@std@@@1@PAU?$_Tree_node@U?$pair@$$CBKPAV?$CRef@VCGraphicThing@@@@@std@@PAX@1@ABUpiecewise_construct_t@1@$$QAV?$tuple@ABK@1@$$QAV?$tuple@$$V@1@@Z:
  00015	90		 npad	 1
  00016	90		 npad	 1
  00017	8b 54 24 08	 mov	 edx, DWORD PTR [esp+8]
  0001b	8d 42 0c	 lea	 eax, DWORD PTR [edx+12]
  0001e	8b 4a e4	 mov	 ecx, DWORD PTR [edx-28]
  00021	33 c8		 xor	 ecx, eax
  00023	e8 00 00 00 00	 call	 @__security_check_cookie@4
  00028	b8 00 00 00 00	 mov	 eax, OFFSET __ehfuncinfo$??$?0ABUpiecewise_construct_t@std@@V?$tuple@ABK@1@V?$tuple@$$V@1@@?$_Tree_temp_node@V?$allocator@U?$_Tree_node@U?$pair@$$CBKPAV?$CRef@VCGraphicThing@@@@@std@@PAX@std@@@std@@@std@@QAE@AAV?$allocator@U?$_Tree_node@U?$pair@$$CBKPAV?$CRef@VCGraphicThing@@@@@std@@PAX@std@@@1@PAU?$_Tree_node@U?$pair@$$CBKPAV?$CRef@VCGraphicThing@@@@@std@@PAX@1@ABUpiecewise_construct_t@1@$$QAV?$tuple@ABK@1@$$QAV?$tuple@$$V@1@@Z
  0002d	e9 00 00 00 00	 jmp	 ___CxxFrameHandler3
text$x	ENDS
??$?0ABUpiecewise_construct_t@std@@V?$tuple@ABK@1@V?$tuple@$$V@1@@?$_Tree_temp_node@V?$allocator@U?$_Tree_node@U?$pair@$$CBKPAV?$CRef@VCGraphicThing@@@@@std@@PAX@std@@@std@@@std@@QAE@AAV?$allocator@U?$_Tree_node@U?$pair@$$CBKPAV?$CRef@VCGraphicThing@@@@@std@@PAX@std@@@1@PAU?$_Tree_node@U?$pair@$$CBKPAV?$CRef@VCGraphicThing@@@@@std@@PAX@1@ABUpiecewise_construct_t@1@$$QAV?$tuple@ABK@1@$$QAV?$tuple@$$V@1@@Z ENDP ; std::_Tree_temp_node<std::allocator<std::_Tree_node<std::pair<unsigned long const ,CRef<CGraphicThing> *>,void *> > >::_Tree_temp_node<std::allocator<std::_Tree_node<std::pair<unsigned long const ,CRef<CGraphicThing> *>,void *> > ><std::piecewise_construct_t const &,std::tuple<unsigned long const &>,std::tuple<> >
; Function compile flags: /Odspy
; File C:\Program Files (x86)\Microsoft Visual Studio\2019\Community\VC\Tools\MSVC\14.28.29333\include\xtree
; File C:\Program Files (x86)\Microsoft Visual Studio\2019\Community\VC\Tools\MSVC\14.28.29333\include\xstddef
; File C:\Program Files (x86)\Microsoft Visual Studio\2019\Community\VC\Tools\MSVC\14.28.29333\include\xtree
;	COMDAT ??1?$_Tree_temp_node@V?$allocator@U?$_Tree_node@U?$pair@$$CBKPAV?$CRef@VCGraphicThing@@@@@std@@PAX@std@@@std@@@std@@QAE@XZ
_TEXT	SEGMENT
$T1 = -12						; size = 4
__Val$ = -8						; size = 4
_this$ = -4						; size = 4
??1?$_Tree_temp_node@V?$allocator@U?$_Tree_node@U?$pair@$$CBKPAV?$CRef@VCGraphicThing@@@@@std@@PAX@std@@@std@@@std@@QAE@XZ PROC ; std::_Tree_temp_node<std::allocator<std::_Tree_node<std::pair<unsigned long const ,CRef<CGraphicThing> *>,void *> > >::~_Tree_temp_node<std::allocator<std::_Tree_node<std::pair<unsigned long const ,CRef<CGraphicThing> *>,void *> > >, COMDAT
; _this$ = ecx

; 817  :     ~_Tree_temp_node() {

  00000	55		 push	 ebp
  00001	8b ec		 mov	 ebp, esp
  00003	83 ec 0c	 sub	 esp, 12			; 0000000cH
  00006	89 4d fc	 mov	 DWORD PTR _this$[ebp], ecx

; 818  :         if (this->_Ptr) {

  00009	8b 45 fc	 mov	 eax, DWORD PTR _this$[ebp]
  0000c	83 78 04 00	 cmp	 DWORD PTR [eax+4], 0
  00010	74 3e		 je	 SHORT $LN9@Tree_temp_

; 819  :             _Destroy_in_place(this->_Ptr->_Left);

  00012	8b 45 fc	 mov	 eax, DWORD PTR _this$[ebp]
  00015	ff 70 04	 push	 DWORD PTR [eax+4]
  00018	e8 00 00 00 00	 call	 ??$_Destroy_in_place@PAU?$_Tree_node@U?$pair@$$CBKPAV?$CRef@VCGraphicThing@@@@@std@@PAX@std@@@std@@YAXAAPAU?$_Tree_node@U?$pair@$$CBKPAV?$CRef@VCGraphicThing@@@@@std@@PAX@0@@Z ; std::_Destroy_in_place<std::_Tree_node<std::pair<unsigned long const ,CRef<CGraphicThing> *>,void *> *>
  0001d	59		 pop	 ecx

; 820  :             _Destroy_in_place(this->_Ptr->_Parent);

  0001e	8b 45 fc	 mov	 eax, DWORD PTR _this$[ebp]
  00021	8b 40 04	 mov	 eax, DWORD PTR [eax+4]
  00024	83 c0 04	 add	 eax, 4
  00027	50		 push	 eax
  00028	e8 00 00 00 00	 call	 ??$_Destroy_in_place@PAU?$_Tree_node@U?$pair@$$CBKPAV?$CRef@VCGraphicThing@@@@@std@@PAX@std@@@std@@YAXAAPAU?$_Tree_node@U?$pair@$$CBKPAV?$CRef@VCGraphicThing@@@@@std@@PAX@0@@Z ; std::_Destroy_in_place<std::_Tree_node<std::pair<unsigned long const ,CRef<CGraphicThing> *>,void *> *>
  0002d	59		 pop	 ecx

; 821  :             _Destroy_in_place(this->_Ptr->_Right);

  0002e	8b 45 fc	 mov	 eax, DWORD PTR _this$[ebp]
  00031	8b 40 04	 mov	 eax, DWORD PTR [eax+4]
  00034	83 c0 08	 add	 eax, 8
  00037	50		 push	 eax
  00038	e8 00 00 00 00	 call	 ??$_Destroy_in_place@PAU?$_Tree_node@U?$pair@$$CBKPAV?$CRef@VCGraphicThing@@@@@std@@PAX@std@@@std@@YAXAAPAU?$_Tree_node@U?$pair@$$CBKPAV?$CRef@VCGraphicThing@@@@@std@@PAX@0@@Z ; std::_Destroy_in_place<std::_Tree_node<std::pair<unsigned long const ,CRef<CGraphicThing> *>,void *> *>
  0003d	59		 pop	 ecx

; 822  :             _Alnode_traits::destroy(this->_Al, _STD addressof(this->_Ptr->_Myval));

  0003e	8b 45 fc	 mov	 eax, DWORD PTR _this$[ebp]
  00041	8b 40 04	 mov	 eax, DWORD PTR [eax+4]
  00044	83 c0 10	 add	 eax, 16			; 00000010H
  00047	89 45 f8	 mov	 DWORD PTR __Val$[ebp], eax
; File C:\Program Files (x86)\Microsoft Visual Studio\2019\Community\VC\Tools\MSVC\14.28.29333\include\xstddef

; 275  :     return __builtin_addressof(_Val);

  0004a	8b 45 f8	 mov	 eax, DWORD PTR __Val$[ebp]
  0004d	89 45 f4	 mov	 DWORD PTR $T1[ebp], eax
$LN9@Tree_temp_:
  00050	8b 4d fc	 mov	 ecx, DWORD PTR _this$[ebp]
  00053	e8 00 00 00 00	 call	 ??1?$_Alloc_construct_ptr@V?$allocator@U?$_Tree_node@U?$pair@$$CBKPAV?$CRef@VCGraphicThing@@@@@std@@PAX@std@@@std@@@std@@QAE@XZ ; std::_Alloc_construct_ptr<std::allocator<std::_Tree_node<std::pair<unsigned long const ,CRef<CGraphicThing> *>,void *> > >::~_Alloc_construct_ptr<std::allocator<std::_Tree_node<std::pair<unsigned long const ,CRef<CGraphicThing> *>,void *> > >
; File C:\Program Files (x86)\Microsoft Visual Studio\2019\Community\VC\Tools\MSVC\14.28.29333\include\xtree

; 824  :     }

  00058	c9		 leave
  00059	c3		 ret	 0
??1?$_Tree_temp_node@V?$allocator@U?$_Tree_node@U?$pair@$$CBKPAV?$CRef@VCGraphicThing@@@@@std@@PAX@std@@@std@@@std@@QAE@XZ ENDP ; std::_Tree_temp_node<std::allocator<std::_Tree_node<std::pair<unsigned long const ,CRef<CGraphicThing> *>,void *> > >::~_Tree_temp_node<std::allocator<std::_Tree_node<std::pair<unsigned long const ,CRef<CGraphicThing> *>,void *> > >
_TEXT	ENDS
; Function compile flags: /Odspy
;	COMDAT ??1?$_Tree_temp_node_alloc@V?$allocator@U?$_Tree_node@U?$pair@$$CBKPAV?$CRef@VCGraphicThing@@@@@std@@PAX@std@@@std@@@std@@QAE@XZ
_TEXT	SEGMENT
_this$ = -4						; size = 4
??1?$_Tree_temp_node_alloc@V?$allocator@U?$_Tree_node@U?$pair@$$CBKPAV?$CRef@VCGraphicThing@@@@@std@@PAX@std@@@std@@@std@@QAE@XZ PROC ; std::_Tree_temp_node_alloc<std::allocator<std::_Tree_node<std::pair<unsigned long const ,CRef<CGraphicThing> *>,void *> > >::~_Tree_temp_node_alloc<std::allocator<std::_Tree_node<std::pair<unsigned long const ,CRef<CGraphicThing> *>,void *> > >, COMDAT
; _this$ = ecx
  00000	55		 push	 ebp
  00001	8b ec		 mov	 ebp, esp
  00003	51		 push	 ecx
  00004	89 4d fc	 mov	 DWORD PTR _this$[ebp], ecx
  00007	8b 4d fc	 mov	 ecx, DWORD PTR _this$[ebp]
  0000a	e8 00 00 00 00	 call	 ??1?$_Alloc_construct_ptr@V?$allocator@U?$_Tree_node@U?$pair@$$CBKPAV?$CRef@VCGraphicThing@@@@@std@@PAX@std@@@std@@@std@@QAE@XZ ; std::_Alloc_construct_ptr<std::allocator<std::_Tree_node<std::pair<unsigned long const ,CRef<CGraphicThing> *>,void *> > >::~_Alloc_construct_ptr<std::allocator<std::_Tree_node<std::pair<unsigned long const ,CRef<CGraphicThing> *>,void *> > >
  0000f	c9		 leave
  00010	c3		 ret	 0
??1?$_Tree_temp_node_alloc@V?$allocator@U?$_Tree_node@U?$pair@$$CBKPAV?$CRef@VCGraphicThing@@@@@std@@PAX@std@@@std@@@std@@QAE@XZ ENDP ; std::_Tree_temp_node_alloc<std::allocator<std::_Tree_node<std::pair<unsigned long const ,CRef<CGraphicThing> *>,void *> > >::~_Tree_temp_node_alloc<std::allocator<std::_Tree_node<std::pair<unsigned long const ,CRef<CGraphicThing> *>,void *> > >
_TEXT	ENDS
; Function compile flags: /Odspy
; File C:\Program Files (x86)\Microsoft Visual Studio\2019\Community\VC\Tools\MSVC\14.28.29333\include\xmemory
;	COMDAT ??1?$_Alloc_construct_ptr@V?$allocator@U?$_Tree_node@U?$pair@$$CBKPAV?$CRef@VCGraphicThing@@@@@std@@PAX@std@@@std@@@std@@QAE@XZ
_TEXT	SEGMENT
_this$ = -12						; size = 4
__Ptr$ = -8						; size = 4
_this$ = -4						; size = 4
??1?$_Alloc_construct_ptr@V?$allocator@U?$_Tree_node@U?$pair@$$CBKPAV?$CRef@VCGraphicThing@@@@@std@@PAX@std@@@std@@@std@@QAE@XZ PROC ; std::_Alloc_construct_ptr<std::allocator<std::_Tree_node<std::pair<unsigned long const ,CRef<CGraphicThing> *>,void *> > >::~_Alloc_construct_ptr<std::allocator<std::_Tree_node<std::pair<unsigned long const ,CRef<CGraphicThing> *>,void *> > >, COMDAT
; _this$ = ecx

; 1056 :     ~_Alloc_construct_ptr() { // if this instance is engaged, deallocate storage

  00000	55		 push	 ebp
  00001	8b ec		 mov	 ebp, esp
  00003	83 ec 0c	 sub	 esp, 12			; 0000000cH
  00006	89 4d fc	 mov	 DWORD PTR _this$[ebp], ecx

; 1057 :         if (_Ptr) {

  00009	8b 45 fc	 mov	 eax, DWORD PTR _this$[ebp]
  0000c	83 78 04 00	 cmp	 DWORD PTR [eax+4], 0
  00010	74 22		 je	 SHORT $LN3@Alloc_cons

; 1058 :             _Al.deallocate(_Ptr, 1);

  00012	8b 45 fc	 mov	 eax, DWORD PTR _this$[ebp]
  00015	8b 40 04	 mov	 eax, DWORD PTR [eax+4]
  00018	89 45 f8	 mov	 DWORD PTR __Ptr$[ebp], eax
  0001b	8b 45 fc	 mov	 eax, DWORD PTR _this$[ebp]
  0001e	8b 00		 mov	 eax, DWORD PTR [eax]
  00020	89 45 f4	 mov	 DWORD PTR _this$[ebp], eax

; 810  :         _Deallocate<_New_alignof<_Ty>>(_Ptr, sizeof(_Ty) * _Count);

  00023	33 c0		 xor	 eax, eax
  00025	40		 inc	 eax
  00026	6b c0 18	 imul	 eax, eax, 24
  00029	50		 push	 eax
  0002a	ff 75 f8	 push	 DWORD PTR __Ptr$[ebp]
  0002d	e8 00 00 00 00	 call	 ??$_Deallocate@$07$0A@@std@@YAXPAXI@Z ; std::_Deallocate<8,0>
  00032	59		 pop	 ecx
  00033	59		 pop	 ecx
$LN3@Alloc_cons:

; 1059 :         }
; 1060 :     }

  00034	c9		 leave
  00035	c3		 ret	 0
??1?$_Alloc_construct_ptr@V?$allocator@U?$_Tree_node@U?$pair@$$CBKPAV?$CRef@VCGraphicThing@@@@@std@@PAX@std@@@std@@@std@@QAE@XZ ENDP ; std::_Alloc_construct_ptr<std::allocator<std::_Tree_node<std::pair<unsigned long const ,CRef<CGraphicThing> *>,void *> > >::~_Alloc_construct_ptr<std::allocator<std::_Tree_node<std::pair<unsigned long const ,CRef<CGraphicThing> *>,void *> > >
_TEXT	ENDS
; Function compile flags: /Odspy
; File C:\Program Files (x86)\Microsoft Visual Studio\2019\Community\VC\Tools\MSVC\14.28.29333\include\xmemory
;	COMDAT ?_Allocate@?$_Alloc_construct_ptr@V?$allocator@U?$_Tree_node@U?$pair@$$CBKPAV?$CRef@VCGraphicThing@@@@@std@@PAX@std@@@std@@@std@@QAEXXZ
_TEXT	SEGMENT
__Max_possible$1 = -24					; size = 4
_this$ = -20						; size = 4
$T2 = -16						; size = 4
$T3 = -12						; size = 4
_this$ = -8						; size = 4
__Overflow_is_possible$4 = -1				; size = 1
?_Allocate@?$_Alloc_construct_ptr@V?$allocator@U?$_Tree_node@U?$pair@$$CBKPAV?$CRef@VCGraphicThing@@@@@std@@PAX@std@@@std@@@std@@QAEXXZ PROC ; std::_Alloc_construct_ptr<std::allocator<std::_Tree_node<std::pair<unsigned long const ,CRef<CGraphicThing> *>,void *> > >::_Allocate, COMDAT
; _this$ = ecx

; 1051 :     void _Allocate() { // disengage *this, then allocate a new memory block

  00000	55		 push	 ebp
  00001	8b ec		 mov	 ebp, esp
  00003	83 ec 18	 sub	 esp, 24			; 00000018H
  00006	89 4d f8	 mov	 DWORD PTR _this$[ebp], ecx

; 1052 :         _Ptr = nullptr; // if allocate throws, prevents double-free

  00009	8b 45 f8	 mov	 eax, DWORD PTR _this$[ebp]
  0000c	83 60 04 00	 and	 DWORD PTR [eax+4], 0

; 1053 :         _Ptr = _Al.allocate(1);

  00010	8b 45 f8	 mov	 eax, DWORD PTR _this$[ebp]
  00013	8b 00		 mov	 eax, DWORD PTR [eax]
  00015	89 45 ec	 mov	 DWORD PTR _this$[ebp], eax

; 56   :     constexpr bool _Overflow_is_possible = _Ty_size > 1;

  00018	c6 45 ff 01	 mov	 BYTE PTR __Overflow_is_possible$4[ebp], 1

; 57   : 
; 58   :     if _CONSTEXPR_IF (_Overflow_is_possible) {
; 59   :         constexpr size_t _Max_possible = static_cast<size_t>(-1) / _Ty_size;

  0001c	c7 45 e8 aa aa
	aa 0a		 mov	 DWORD PTR __Max_possible$1[ebp], 178956970 ; 0aaaaaaaH

; 60   :         if (_Count > _Max_possible) {

  00023	33 c0		 xor	 eax, eax
  00025	40		 inc	 eax
  00026	3d aa aa aa 0a	 cmp	 eax, 178956970		; 0aaaaaaaH
  0002b	76 05		 jbe	 SHORT $LN6@Allocate

; 61   :             _Throw_bad_array_new_length(); // multiply overflow

  0002d	e8 00 00 00 00	 call	 ?_Throw_bad_array_new_length@std@@YAXXZ ; std::_Throw_bad_array_new_length
$LN6@Allocate:

; 62   :         }
; 63   :     }
; 64   : 
; 65   :     return _Count * _Ty_size;

  00032	33 c0		 xor	 eax, eax
  00034	40		 inc	 eax
  00035	6b c0 18	 imul	 eax, eax, 24
  00038	89 45 f4	 mov	 DWORD PTR $T3[ebp], eax

; 814  :         return static_cast<_Ty*>(_Allocate<_New_alignof<_Ty>>(_Get_size_of_n<sizeof(_Ty)>(_Count)));

  0003b	ff 75 f4	 push	 DWORD PTR $T3[ebp]
  0003e	e8 00 00 00 00	 call	 ??$_Allocate@$07U_Default_allocate_traits@std@@$0A@@std@@YAPAXI@Z ; std::_Allocate<8,std::_Default_allocate_traits,0>
  00043	59		 pop	 ecx
  00044	89 45 f0	 mov	 DWORD PTR $T2[ebp], eax

; 1053 :         _Ptr = _Al.allocate(1);

  00047	8b 45 f8	 mov	 eax, DWORD PTR _this$[ebp]
  0004a	8b 4d f0	 mov	 ecx, DWORD PTR $T2[ebp]
  0004d	89 48 04	 mov	 DWORD PTR [eax+4], ecx
$LN9@Allocate:

; 1054 :     }

  00050	c9		 leave
  00051	c3		 ret	 0
?_Allocate@?$_Alloc_construct_ptr@V?$allocator@U?$_Tree_node@U?$pair@$$CBKPAV?$CRef@VCGraphicThing@@@@@std@@PAX@std@@@std@@@std@@QAEXXZ ENDP ; std::_Alloc_construct_ptr<std::allocator<std::_Tree_node<std::pair<unsigned long const ,CRef<CGraphicThing> *>,void *> > >::_Allocate
_TEXT	ENDS
; Function compile flags: /Odspy
; File C:\Program Files (x86)\Microsoft Visual Studio\2019\Community\VC\Tools\MSVC\14.28.29333\include\xtree
; File C:\Program Files (x86)\Microsoft Visual Studio\2019\Community\VC\Tools\MSVC\14.28.29333\include\xstddef
; File C:\Program Files (x86)\Microsoft Visual Studio\2019\Community\VC\Tools\MSVC\14.28.29333\include\xtree
; File C:\Program Files (x86)\Microsoft Visual Studio\2019\Community\VC\Tools\MSVC\14.28.29333\include\xmemory
; File C:\Program Files (x86)\Microsoft Visual Studio\2019\Community\VC\Tools\MSVC\14.28.29333\include\xtree
; File C:\Program Files (x86)\Microsoft Visual Studio\2019\Community\VC\Tools\MSVC\14.28.29333\include\xstddef
; File C:\Program Files (x86)\Microsoft Visual Studio\2019\Community\VC\Tools\MSVC\14.28.29333\include\xtree
;	COMDAT ??$_Find_lower_bound@K@?$_Tree@V?$_Tmap_traits@KPAV?$CRef@VCGraphicThing@@@@U?$less@K@std@@V?$allocator@U?$pair@$$CBKPAV?$CRef@VCGraphicThing@@@@@std@@@3@$0A@@std@@@std@@IBE?AU?$_Tree_find_result@PAU?$_Tree_node@U?$pair@$$CBKPAV?$CRef@VCGraphicThing@@@@@std@@PAX@std@@@1@ABK@Z
_TEXT	SEGMENT
__Result$ = -40						; size = 12
$T1 = -28						; size = 4
$T2 = -24						; size = 4
$T3 = -20						; size = 4
tv64 = -16						; size = 4
_this$ = -12						; size = 4
__Scary$ = -8						; size = 4
__Trynode$ = -4						; size = 4
___$ReturnUdt$ = 8					; size = 4
__Keyval$ = 12						; size = 4
??$_Find_lower_bound@K@?$_Tree@V?$_Tmap_traits@KPAV?$CRef@VCGraphicThing@@@@U?$less@K@std@@V?$allocator@U?$pair@$$CBKPAV?$CRef@VCGraphicThing@@@@@std@@@3@$0A@@std@@@std@@IBE?AU?$_Tree_find_result@PAU?$_Tree_node@U?$pair@$$CBKPAV?$CRef@VCGraphicThing@@@@@std@@PAX@std@@@1@ABK@Z PROC ; std::_Tree<std::_Tmap_traits<unsigned long,CRef<CGraphicThing> *,std::less<unsigned long>,std::allocator<std::pair<unsigned long const ,CRef<CGraphicThing> *> >,0> >::_Find_lower_bound<unsigned long>, COMDAT
; _this$ = ecx

; 1699 :     _Tree_find_result<_Nodeptr> _Find_lower_bound(const _Keyty& _Keyval) const {

  00000	55		 push	 ebp
  00001	8b ec		 mov	 ebp, esp
  00003	83 ec 28	 sub	 esp, 40			; 00000028H
  00006	56		 push	 esi
  00007	57		 push	 edi
  00008	89 4d f4	 mov	 DWORD PTR _this$[ebp], ecx

; 2051 :         return _STD addressof(_Mypair._Myval2._Myval2);

  0000b	8b 45 f4	 mov	 eax, DWORD PTR _this$[ebp]
; File C:\Program Files (x86)\Microsoft Visual Studio\2019\Community\VC\Tools\MSVC\14.28.29333\include\xstddef

; 275  :     return __builtin_addressof(_Val);

  0000e	89 45 ec	 mov	 DWORD PTR $T3[ebp], eax
; File C:\Program Files (x86)\Microsoft Visual Studio\2019\Community\VC\Tools\MSVC\14.28.29333\include\xtree

; 2051 :         return _STD addressof(_Mypair._Myval2._Myval2);

  00011	8b 45 ec	 mov	 eax, DWORD PTR $T3[ebp]
  00014	89 45 f8	 mov	 DWORD PTR __Scary$[ebp], eax

; 1700 :         const auto _Scary = _Get_scary();
; 1701 :         _Tree_find_result<_Nodeptr> _Result{{_Scary->_Myhead->_Parent, _Tree_child::_Right}, _Scary->_Myhead};

  00017	8b 45 f8	 mov	 eax, DWORD PTR __Scary$[ebp]
  0001a	8b 00		 mov	 eax, DWORD PTR [eax]
  0001c	8b 40 04	 mov	 eax, DWORD PTR [eax+4]
  0001f	89 45 d8	 mov	 DWORD PTR __Result$[ebp], eax
  00022	83 65 dc 00	 and	 DWORD PTR __Result$[ebp+4], 0
  00026	8b 45 f8	 mov	 eax, DWORD PTR __Scary$[ebp]
  00029	8b 00		 mov	 eax, DWORD PTR [eax]
  0002b	89 45 e0	 mov	 DWORD PTR __Result$[ebp+8], eax

; 1702 :         _Nodeptr _Trynode = _Result._Location._Parent;

  0002e	8b 45 d8	 mov	 eax, DWORD PTR __Result$[ebp]
  00031	89 45 fc	 mov	 DWORD PTR __Trynode$[ebp], eax
$LN2@Find_lower:

; 1703 :         while (!_Trynode->_Isnil) {

  00034	8b 45 fc	 mov	 eax, DWORD PTR __Trynode$[ebp]
  00037	0f be 40 0d	 movsx	 eax, BYTE PTR [eax+13]
  0003b	85 c0		 test	 eax, eax
  0003d	75 5a		 jne	 SHORT $LN3@Find_lower

; 1704 :             _Result._Location._Parent = _Trynode;

  0003f	8b 45 fc	 mov	 eax, DWORD PTR __Trynode$[ebp]
  00042	89 45 d8	 mov	 DWORD PTR __Result$[ebp], eax

; 2035 :         return _Mypair._Get_first();

  00045	8b 45 f4	 mov	 eax, DWORD PTR _this$[ebp]
; File C:\Program Files (x86)\Microsoft Visual Studio\2019\Community\VC\Tools\MSVC\14.28.29333\include\xmemory

; 1351 :         return *this;

  00048	89 45 e8	 mov	 DWORD PTR $T2[ebp], eax
; File C:\Program Files (x86)\Microsoft Visual Studio\2019\Community\VC\Tools\MSVC\14.28.29333\include\xtree

; 2035 :         return _Mypair._Get_first();

  0004b	8b 45 e8	 mov	 eax, DWORD PTR $T2[ebp]
  0004e	89 45 e4	 mov	 DWORD PTR $T1[ebp], eax
; File C:\Program Files (x86)\Microsoft Visual Studio\2019\Community\VC\Tools\MSVC\14.28.29333\include\xstddef

; 127  :         return _Left < _Right;

  00051	8b 45 fc	 mov	 eax, DWORD PTR __Trynode$[ebp]
  00054	8b 4d 0c	 mov	 ecx, DWORD PTR __Keyval$[ebp]
  00057	8b 40 10	 mov	 eax, DWORD PTR [eax+16]
  0005a	3b 01		 cmp	 eax, DWORD PTR [ecx]
  0005c	73 09		 jae	 SHORT $LN23@Find_lower
  0005e	c7 45 f0 01 00
	00 00		 mov	 DWORD PTR tv64[ebp], 1
  00065	eb 04		 jmp	 SHORT $LN21@Find_lower
$LN23@Find_lower:
  00067	83 65 f0 00	 and	 DWORD PTR tv64[ebp], 0
$LN21@Find_lower:
; File C:\Program Files (x86)\Microsoft Visual Studio\2019\Community\VC\Tools\MSVC\14.28.29333\include\xtree

; 1705 :             if (_DEBUG_LT_PRED(_Getcomp(), _Traits::_Kfn(_Trynode->_Myval), _Keyval)) {

  0006b	0f b6 45 f0	 movzx	 eax, BYTE PTR tv64[ebp]
  0006f	85 c0		 test	 eax, eax
  00071	74 0f		 je	 SHORT $LN4@Find_lower

; 1706 :                 _Result._Location._Child = _Tree_child::_Right;

  00073	83 65 dc 00	 and	 DWORD PTR __Result$[ebp+4], 0

; 1707 :                 _Trynode                 = _Trynode->_Right;

  00077	8b 45 fc	 mov	 eax, DWORD PTR __Trynode$[ebp]
  0007a	8b 40 08	 mov	 eax, DWORD PTR [eax+8]
  0007d	89 45 fc	 mov	 DWORD PTR __Trynode$[ebp], eax

; 1708 :             } else {

  00080	eb 15		 jmp	 SHORT $LN5@Find_lower
$LN4@Find_lower:

; 1709 :                 _Result._Location._Child = _Tree_child::_Left;

  00082	c7 45 dc 01 00
	00 00		 mov	 DWORD PTR __Result$[ebp+4], 1

; 1710 :                 _Result._Bound           = _Trynode;

  00089	8b 45 fc	 mov	 eax, DWORD PTR __Trynode$[ebp]
  0008c	89 45 e0	 mov	 DWORD PTR __Result$[ebp+8], eax

; 1711 :                 _Trynode                 = _Trynode->_Left;

  0008f	8b 45 fc	 mov	 eax, DWORD PTR __Trynode$[ebp]
  00092	8b 00		 mov	 eax, DWORD PTR [eax]
  00094	89 45 fc	 mov	 DWORD PTR __Trynode$[ebp], eax
$LN5@Find_lower:

; 1712 :             }
; 1713 :         }

  00097	eb 9b		 jmp	 SHORT $LN2@Find_lower
$LN3@Find_lower:

; 1714 : 
; 1715 :         return _Result;

  00099	8d 75 d8	 lea	 esi, DWORD PTR __Result$[ebp]
  0009c	8b 7d 08	 mov	 edi, DWORD PTR ___$ReturnUdt$[ebp]
  0009f	a5		 movsd
  000a0	a5		 movsd
  000a1	a5		 movsd
  000a2	8b 45 08	 mov	 eax, DWORD PTR ___$ReturnUdt$[ebp]

; 1716 :     }

  000a5	5f		 pop	 edi
  000a6	5e		 pop	 esi
  000a7	c9		 leave
  000a8	c2 08 00	 ret	 8
??$_Find_lower_bound@K@?$_Tree@V?$_Tmap_traits@KPAV?$CRef@VCGraphicThing@@@@U?$less@K@std@@V?$allocator@U?$pair@$$CBKPAV?$CRef@VCGraphicThing@@@@@std@@@3@$0A@@std@@@std@@IBE?AU?$_Tree_find_result@PAU?$_Tree_node@U?$pair@$$CBKPAV?$CRef@VCGraphicThing@@@@@std@@PAX@std@@@1@ABK@Z ENDP ; std::_Tree<std::_Tmap_traits<unsigned long,CRef<CGraphicThing> *,std::less<unsigned long>,std::allocator<std::pair<unsigned long const ,CRef<CGraphicThing> *> >,0> >::_Find_lower_bound<unsigned long>
_TEXT	ENDS
; Function compile flags: /Odspy
; File C:\Program Files (x86)\Microsoft Visual Studio\2019\Community\VC\Tools\MSVC\14.28.29333\include\xtree
; File C:\Program Files (x86)\Microsoft Visual Studio\2019\Community\VC\Tools\MSVC\14.28.29333\include\xstddef
; File C:\Program Files (x86)\Microsoft Visual Studio\2019\Community\VC\Tools\MSVC\14.28.29333\include\xtree
; File C:\Program Files (x86)\Microsoft Visual Studio\2019\Community\VC\Tools\MSVC\14.28.29333\include\xmemory
; File C:\Program Files (x86)\Microsoft Visual Studio\2019\Community\VC\Tools\MSVC\14.28.29333\include\xtree
; File C:\Program Files (x86)\Microsoft Visual Studio\2019\Community\VC\Tools\MSVC\14.28.29333\include\xmemory
; File C:\Program Files (x86)\Microsoft Visual Studio\2019\Community\VC\Tools\MSVC\14.28.29333\include\xtree
; File C:\Program Files (x86)\Microsoft Visual Studio\2019\Community\VC\Tools\MSVC\14.28.29333\include\xstddef
; File C:\Program Files (x86)\Microsoft Visual Studio\2019\Community\VC\Tools\MSVC\14.28.29333\include\xtree
; File C:\Program Files (x86)\Microsoft Visual Studio\2019\Community\VC\Tools\MSVC\14.28.29333\include\type_traits
; File C:\Program Files (x86)\Microsoft Visual Studio\2019\Community\VC\Tools\MSVC\14.28.29333\include\utility
; File C:\Program Files (x86)\Microsoft Visual Studio\2019\Community\VC\Tools\MSVC\14.28.29333\include\type_traits
; File C:\Program Files (x86)\Microsoft Visual Studio\2019\Community\VC\Tools\MSVC\14.28.29333\include\utility
; File C:\Program Files (x86)\Microsoft Visual Studio\2019\Community\VC\Tools\MSVC\14.28.29333\include\xtree
; File C:\Program Files (x86)\Microsoft Visual Studio\2019\Community\VC\Tools\MSVC\14.28.29333\include\type_traits
; File C:\Program Files (x86)\Microsoft Visual Studio\2019\Community\VC\Tools\MSVC\14.28.29333\include\xtree
; File C:\Program Files (x86)\Microsoft Visual Studio\2019\Community\VC\Tools\MSVC\14.28.29333\include\xmemory
; File C:\Program Files (x86)\Microsoft Visual Studio\2019\Community\VC\Tools\MSVC\14.28.29333\include\xtree
; File C:\Program Files (x86)\Microsoft Visual Studio\2019\Community\VC\Tools\MSVC\14.28.29333\include\xmemory
; File C:\Program Files (x86)\Microsoft Visual Studio\2019\Community\VC\Tools\MSVC\14.28.29333\include\utility
; File C:\Program Files (x86)\Microsoft Visual Studio\2019\Community\VC\Tools\MSVC\14.28.29333\include\xmemory
; File C:\Program Files (x86)\Microsoft Visual Studio\2019\Community\VC\Tools\MSVC\14.28.29333\include\xtree
; File C:\Program Files (x86)\Microsoft Visual Studio\2019\Community\VC\Tools\MSVC\14.28.29333\include\type_traits
; File C:\Program Files (x86)\Microsoft Visual Studio\2019\Community\VC\Tools\MSVC\14.28.29333\include\utility
; File C:\Program Files (x86)\Microsoft Visual Studio\2019\Community\VC\Tools\MSVC\14.28.29333\include\type_traits
; File C:\Program Files (x86)\Microsoft Visual Studio\2019\Community\VC\Tools\MSVC\14.28.29333\include\utility
; File C:\Program Files (x86)\Microsoft Visual Studio\2019\Community\VC\Tools\MSVC\14.28.29333\include\xtree
;	COMDAT ??$_Emplace@U?$pair@$$CBKPAV?$CRef@VCGraphicThing@@@@@std@@@?$_Tree@V?$_Tmap_traits@KPAV?$CRef@VCGraphicThing@@@@U?$less@K@std@@V?$allocator@U?$pair@$$CBKPAV?$CRef@VCGraphicThing@@@@@std@@@3@$0A@@std@@@std@@IAE?AU?$pair@PAU?$_Tree_node@U?$pair@$$CBKPAV?$CRef@VCGraphicThing@@@@@std@@PAX@std@@_N@1@$$QAU?$pair@$$CBKPAV?$CRef@VCGraphicThing@@@@@1@@Z
_TEXT	SEGMENT
$T1 = -128						; size = 12
$T2 = -116						; size = 8
$T3 = -108						; size = 4
__Loc$ = -104						; size = 12
$T4 = -92						; size = 4
$T5 = -88						; size = 4
$T6 = -84						; size = 4
__Inserted$ = -80					; size = 4
$T7 = -76						; size = 4
__Old_val$8 = -72					; size = 4
$T9 = -68						; size = 4
$T10 = -64						; size = 4
$T11 = -60						; size = 4
$T12 = -56						; size = 4
$T13 = -52						; size = 4
$T14 = -48						; size = 4
$T15 = -44						; size = 4
$T16 = -40						; size = 4
$T17 = -36						; size = 4
__Scary$ = -32						; size = 4
__Val$ = -28						; size = 4
tv147 = -24						; size = 4
tv167 = -20						; size = 4
__Bound$ = -16						; size = 4
__Keyval$18 = -12					; size = 4
_this$ = -8						; size = 4
$T19 = -2						; size = 1
$T20 = -1						; size = 1
___$ReturnUdt$ = 8					; size = 4
_<_Vals_0>$ = 12					; size = 4
??$_Emplace@U?$pair@$$CBKPAV?$CRef@VCGraphicThing@@@@@std@@@?$_Tree@V?$_Tmap_traits@KPAV?$CRef@VCGraphicThing@@@@U?$less@K@std@@V?$allocator@U?$pair@$$CBKPAV?$CRef@VCGraphicThing@@@@@std@@@3@$0A@@std@@@std@@IAE?AU?$pair@PAU?$_Tree_node@U?$pair@$$CBKPAV?$CRef@VCGraphicThing@@@@@std@@PAX@std@@_N@1@$$QAU?$pair@$$CBKPAV?$CRef@VCGraphicThing@@@@@1@@Z PROC ; std::_Tree<std::_Tmap_traits<unsigned long,CRef<CGraphicThing> *,std::less<unsigned long>,std::allocator<std::pair<unsigned long const ,CRef<CGraphicThing> *> >,0> >::_Emplace<std::pair<unsigned long const ,CRef<CGraphicThing> *> >, COMDAT
; _this$ = ecx

; 1002 :     pair<_Nodeptr, bool> _Emplace(_Valtys&&... _Vals) {

  00000	55		 push	 ebp
  00001	8b ec		 mov	 ebp, esp
  00003	81 ec 80 00 00
	00		 sub	 esp, 128		; 00000080H
  00009	56		 push	 esi
  0000a	57		 push	 edi
  0000b	89 4d f8	 mov	 DWORD PTR _this$[ebp], ecx

; 2047 :         return _STD addressof(_Mypair._Myval2._Myval2);

  0000e	8b 45 f8	 mov	 eax, DWORD PTR _this$[ebp]
; File C:\Program Files (x86)\Microsoft Visual Studio\2019\Community\VC\Tools\MSVC\14.28.29333\include\xstddef

; 275  :     return __builtin_addressof(_Val);

  00011	89 45 dc	 mov	 DWORD PTR $T17[ebp], eax
; File C:\Program Files (x86)\Microsoft Visual Studio\2019\Community\VC\Tools\MSVC\14.28.29333\include\xtree

; 2047 :         return _STD addressof(_Mypair._Myval2._Myval2);

  00014	8b 45 dc	 mov	 eax, DWORD PTR $T17[ebp]
  00017	89 45 e0	 mov	 DWORD PTR __Scary$[ebp], eax
; File C:\Program Files (x86)\Microsoft Visual Studio\2019\Community\VC\Tools\MSVC\14.28.29333\include\xmemory

; 2000 :         return _Val.first;

  0001a	8b 45 0c	 mov	 eax, DWORD PTR _<_Vals_0>$[ebp]
; File C:\Program Files (x86)\Microsoft Visual Studio\2019\Community\VC\Tools\MSVC\14.28.29333\include\xtree

; 1008 :             const auto& _Keyval = _In_place_key_extractor::_Extract(_Vals...);

  0001d	89 45 f4	 mov	 DWORD PTR __Keyval$18[ebp], eax

; 1009 :             _Loc                = _Find_lower_bound(_Keyval);

  00020	ff 75 f4	 push	 DWORD PTR __Keyval$18[ebp]
  00023	8d 45 80	 lea	 eax, DWORD PTR $T1[ebp]
  00026	50		 push	 eax
  00027	8b 4d f8	 mov	 ecx, DWORD PTR _this$[ebp]
  0002a	e8 00 00 00 00	 call	 ??$_Find_lower_bound@K@?$_Tree@V?$_Tmap_traits@KPAV?$CRef@VCGraphicThing@@@@U?$less@K@std@@V?$allocator@U?$pair@$$CBKPAV?$CRef@VCGraphicThing@@@@@std@@@3@$0A@@std@@@std@@IBE?AU?$_Tree_find_result@PAU?$_Tree_node@U?$pair@$$CBKPAV?$CRef@VCGraphicThing@@@@@std@@PAX@std@@@1@ABK@Z ; std::_Tree<std::_Tmap_traits<unsigned long,CRef<CGraphicThing> *,std::less<unsigned long>,std::allocator<std::pair<unsigned long const ,CRef<CGraphicThing> *> >,0> >::_Find_lower_bound<unsigned long>
  0002f	8b f0		 mov	 esi, eax
  00031	8d 7d 98	 lea	 edi, DWORD PTR __Loc$[ebp]
  00034	a5		 movsd
  00035	a5		 movsd
  00036	a5		 movsd

; 1010 :             if (_Lower_bound_duplicate(_Loc._Bound, _Keyval)) {

  00037	8b 45 a0	 mov	 eax, DWORD PTR __Loc$[ebp+8]
  0003a	89 45 f0	 mov	 DWORD PTR __Bound$[ebp], eax

; 1695 :         return !_Bound->_Isnil && !_DEBUG_LT_PRED(_Getcomp(), _Keyval, _Traits::_Kfn(_Bound->_Myval));

  0003d	8b 45 f0	 mov	 eax, DWORD PTR __Bound$[ebp]
  00040	0f be 40 0d	 movsx	 eax, BYTE PTR [eax+13]
  00044	85 c0		 test	 eax, eax
  00046	75 37		 jne	 SHORT $LN39@Emplace

; 2035 :         return _Mypair._Get_first();

  00048	8b 45 f8	 mov	 eax, DWORD PTR _this$[ebp]
; File C:\Program Files (x86)\Microsoft Visual Studio\2019\Community\VC\Tools\MSVC\14.28.29333\include\xmemory

; 1351 :         return *this;

  0004b	89 45 d8	 mov	 DWORD PTR $T16[ebp], eax
; File C:\Program Files (x86)\Microsoft Visual Studio\2019\Community\VC\Tools\MSVC\14.28.29333\include\xtree

; 2035 :         return _Mypair._Get_first();

  0004e	8b 45 d8	 mov	 eax, DWORD PTR $T16[ebp]
  00051	89 45 94	 mov	 DWORD PTR $T3[ebp], eax
; File C:\Program Files (x86)\Microsoft Visual Studio\2019\Community\VC\Tools\MSVC\14.28.29333\include\xstddef

; 127  :         return _Left < _Right;

  00054	8b 45 f4	 mov	 eax, DWORD PTR __Keyval$18[ebp]
  00057	8b 4d f0	 mov	 ecx, DWORD PTR __Bound$[ebp]
  0005a	8b 00		 mov	 eax, DWORD PTR [eax]
  0005c	3b 41 10	 cmp	 eax, DWORD PTR [ecx+16]
  0005f	73 09		 jae	 SHORT $LN51@Emplace
  00061	c7 45 ec 01 00
	00 00		 mov	 DWORD PTR tv167[ebp], 1
  00068	eb 04		 jmp	 SHORT $LN49@Emplace
$LN51@Emplace:
  0006a	83 65 ec 00	 and	 DWORD PTR tv167[ebp], 0
$LN49@Emplace:
; File C:\Program Files (x86)\Microsoft Visual Studio\2019\Community\VC\Tools\MSVC\14.28.29333\include\xtree

; 1695 :         return !_Bound->_Isnil && !_DEBUG_LT_PRED(_Getcomp(), _Keyval, _Traits::_Kfn(_Bound->_Myval));

  0006e	0f b6 45 ec	 movzx	 eax, BYTE PTR tv167[ebp]
  00072	85 c0		 test	 eax, eax
  00074	75 09		 jne	 SHORT $LN39@Emplace
  00076	c7 45 e8 01 00
	00 00		 mov	 DWORD PTR tv147[ebp], 1
  0007d	eb 04		 jmp	 SHORT $LN37@Emplace
$LN39@Emplace:
  0007f	83 65 e8 00	 and	 DWORD PTR tv147[ebp], 0
$LN37@Emplace:

; 1010 :             if (_Lower_bound_duplicate(_Loc._Bound, _Keyval)) {

  00083	0f b6 45 e8	 movzx	 eax, BYTE PTR tv147[ebp]
  00087	85 c0		 test	 eax, eax
  00089	74 2d		 je	 SHORT $LN2@Emplace

; 1011 :                 return {_Loc._Bound, false};

  0008b	c6 45 ff 00	 mov	 BYTE PTR $T20[ebp], 0
; File C:\Program Files (x86)\Microsoft Visual Studio\2019\Community\VC\Tools\MSVC\14.28.29333\include\type_traits

; 1443 :     return static_cast<_Ty&&>(_Arg);

  0008f	8d 45 a0	 lea	 eax, DWORD PTR __Loc$[ebp+8]
  00092	89 45 d4	 mov	 DWORD PTR $T15[ebp], eax
; File C:\Program Files (x86)\Microsoft Visual Studio\2019\Community\VC\Tools\MSVC\14.28.29333\include\utility

; 190  :         : first(_STD forward<_Other1>(_Val1)), second(_STD forward<_Other2>(_Val2)) {}

  00095	8b 45 08	 mov	 eax, DWORD PTR ___$ReturnUdt$[ebp]
  00098	8b 4d d4	 mov	 ecx, DWORD PTR $T15[ebp]
  0009b	8b 09		 mov	 ecx, DWORD PTR [ecx]
  0009d	89 08		 mov	 DWORD PTR [eax], ecx
; File C:\Program Files (x86)\Microsoft Visual Studio\2019\Community\VC\Tools\MSVC\14.28.29333\include\type_traits

; 1443 :     return static_cast<_Ty&&>(_Arg);

  0009f	8d 45 ff	 lea	 eax, DWORD PTR $T20[ebp]
  000a2	89 45 d0	 mov	 DWORD PTR $T14[ebp], eax
; File C:\Program Files (x86)\Microsoft Visual Studio\2019\Community\VC\Tools\MSVC\14.28.29333\include\utility

; 190  :         : first(_STD forward<_Other1>(_Val1)), second(_STD forward<_Other2>(_Val2)) {}

  000a5	8b 45 08	 mov	 eax, DWORD PTR ___$ReturnUdt$[ebp]
  000a8	8b 4d d0	 mov	 ecx, DWORD PTR $T14[ebp]
  000ab	8a 09		 mov	 cl, BYTE PTR [ecx]
  000ad	88 48 04	 mov	 BYTE PTR [eax+4], cl
; File C:\Program Files (x86)\Microsoft Visual Studio\2019\Community\VC\Tools\MSVC\14.28.29333\include\xtree

; 1011 :                 return {_Loc._Bound, false};

  000b0	8b 45 08	 mov	 eax, DWORD PTR ___$ReturnUdt$[ebp]
  000b3	e9 9d 00 00 00	 jmp	 $LN1@Emplace
$LN2@Emplace:

; 1012 :             }
; 1013 : 
; 1014 :             _Check_grow_by_1();

  000b8	8b 4d f8	 mov	 ecx, DWORD PTR _this$[ebp]
  000bb	e8 00 00 00 00	 call	 ?_Check_grow_by_1@?$_Tree@V?$_Tmap_traits@KPAV?$CRef@VCGraphicThing@@@@U?$less@K@std@@V?$allocator@U?$pair@$$CBKPAV?$CRef@VCGraphicThing@@@@@std@@@3@$0A@@std@@@std@@IAEXXZ ; std::_Tree<std::_Tmap_traits<unsigned long,CRef<CGraphicThing> *,std::less<unsigned long>,std::allocator<std::pair<unsigned long const ,CRef<CGraphicThing> *> >,0> >::_Check_grow_by_1
; File C:\Program Files (x86)\Microsoft Visual Studio\2019\Community\VC\Tools\MSVC\14.28.29333\include\type_traits

; 1443 :     return static_cast<_Ty&&>(_Arg);

  000c0	8b 45 0c	 mov	 eax, DWORD PTR _<_Vals_0>$[ebp]
  000c3	89 45 c8	 mov	 DWORD PTR $T12[ebp], eax
; File C:\Program Files (x86)\Microsoft Visual Studio\2019\Community\VC\Tools\MSVC\14.28.29333\include\xtree

; 2039 :         return _Mypair._Myval2._Get_first();

  000c6	8b 45 f8	 mov	 eax, DWORD PTR _this$[ebp]
; File C:\Program Files (x86)\Microsoft Visual Studio\2019\Community\VC\Tools\MSVC\14.28.29333\include\xmemory

; 1347 :         return *this;

  000c9	89 45 cc	 mov	 DWORD PTR $T13[ebp], eax
; File C:\Program Files (x86)\Microsoft Visual Studio\2019\Community\VC\Tools\MSVC\14.28.29333\include\xtree

; 2039 :         return _Mypair._Myval2._Get_first();

  000cc	8b 45 cc	 mov	 eax, DWORD PTR $T13[ebp]
  000cf	89 45 c4	 mov	 DWORD PTR $T11[ebp], eax

; 1015 :             _Inserted = _Tree_temp_node<_Alnode>(_Getal(), _Scary->_Myhead, _STD forward<_Valtys>(_Vals)...)._Release();

  000d2	ff 75 c8	 push	 DWORD PTR $T12[ebp]
  000d5	8b 45 e0	 mov	 eax, DWORD PTR __Scary$[ebp]
  000d8	ff 30		 push	 DWORD PTR [eax]
  000da	ff 75 c4	 push	 DWORD PTR $T11[ebp]
  000dd	8d 4d 8c	 lea	 ecx, DWORD PTR $T2[ebp]
  000e0	e8 00 00 00 00	 call	 ??$?0U?$pair@$$CBKPAV?$CRef@VCGraphicThing@@@@@std@@@?$_Tree_temp_node@V?$allocator@U?$_Tree_node@U?$pair@$$CBKPAV?$CRef@VCGraphicThing@@@@@std@@PAX@std@@@std@@@std@@QAE@AAV?$allocator@U?$_Tree_node@U?$pair@$$CBKPAV?$CRef@VCGraphicThing@@@@@std@@PAX@std@@@1@PAU?$_Tree_node@U?$pair@$$CBKPAV?$CRef@VCGraphicThing@@@@@std@@PAX@1@$$QAU?$pair@$$CBKPAV?$CRef@VCGraphicThing@@@@@1@@Z ; std::_Tree_temp_node<std::allocator<std::_Tree_node<std::pair<unsigned long const ,CRef<CGraphicThing> *>,void *> > >::_Tree_temp_node<std::allocator<std::_Tree_node<std::pair<unsigned long const ,CRef<CGraphicThing> *>,void *> > ><std::pair<unsigned long const ,CRef<CGraphicThing> *> >
  000e5	89 45 c0	 mov	 DWORD PTR $T10[ebp], eax
; File C:\Program Files (x86)\Microsoft Visual Studio\2019\Community\VC\Tools\MSVC\14.28.29333\include\xmemory

; 1048 :         return _STD exchange(_Ptr, nullptr);

  000e8	83 65 bc 00	 and	 DWORD PTR $T9[ebp], 0
  000ec	8b 45 c0	 mov	 eax, DWORD PTR $T10[ebp]
  000ef	83 c0 04	 add	 eax, 4
  000f2	89 45 e4	 mov	 DWORD PTR __Val$[ebp], eax
; File C:\Program Files (x86)\Microsoft Visual Studio\2019\Community\VC\Tools\MSVC\14.28.29333\include\utility

; 598  :     _Ty _Old_val = static_cast<_Ty&&>(_Val);

