; Listing generated by Microsoft (R) Optimizing Compiler Version 19.28.29335.0 

	TITLE	D:\Metin2 Server Files\mainline\SRC_2014\Metin2Client\EterLib\Camera.cpp
	.686P
	.XMM
	include listing.inc
	.model	flat

INCLUDELIB LIBCMT
INCLUDELIB OLDNAMES

CONST	SEGMENT
?piecewise_construct@std@@3Upiecewise_construct_t@1@B	ORG $+1 ; std::piecewise_construct
CONST	ENDS
PUBLIC	??0exception@std@@QAE@ABV01@@Z			; std::exception::exception
PUBLIC	?what@exception@std@@UBEPBDXZ			; std::exception::what
PUBLIC	??_Gexception@std@@UAEPAXI@Z			; std::exception::`scalar deleting destructor'
PUBLIC	??0bad_alloc@std@@QAE@ABV01@@Z			; std::bad_alloc::bad_alloc
PUBLIC	??_Gbad_alloc@std@@UAEPAXI@Z			; std::bad_alloc::`scalar deleting destructor'
PUBLIC	??0bad_array_new_length@std@@QAE@XZ		; std::bad_array_new_length::bad_array_new_length
PUBLIC	??1bad_array_new_length@std@@UAE@XZ		; std::bad_array_new_length::~bad_array_new_length
PUBLIC	??0bad_array_new_length@std@@QAE@ABV01@@Z	; std::bad_array_new_length::bad_array_new_length
PUBLIC	??_Gbad_array_new_length@std@@UAEPAXI@Z		; std::bad_array_new_length::`scalar deleting destructor'
PUBLIC	?_Throw_bad_array_new_length@std@@YAXXZ		; std::_Throw_bad_array_new_length
PUBLIC	?_Adjust_manually_vector_aligned@std@@YAXAAPAXAAI@Z ; std::_Adjust_manually_vector_aligned
PUBLIC	?_Throw_tree_length_error@std@@YAXXZ		; std::_Throw_tree_length_error
PUBLIC	??$_Deallocate@$07$0A@@std@@YAXPAXI@Z		; std::_Deallocate<8,0>
PUBLIC	??$_Allocate@$07U_Default_allocate_traits@std@@$0A@@std@@YAPAXI@Z ; std::_Allocate<8,std::_Default_allocate_traits,0>
PUBLIC	??$_Allocate_manually_vector_aligned@U_Default_allocate_traits@std@@@std@@YAPAXI@Z ; std::_Allocate_manually_vector_aligned<std::_Default_allocate_traits>
PUBLIC	?SetDirection@CRay@@QAEXABUD3DXVECTOR3@@M@Z	; CRay::SetDirection
PUBLIC	??0CCamera@@QAE@XZ				; CCamera::CCamera
PUBLIC	??1CCamera@@UAE@XZ				; CCamera::~CCamera
PUBLIC	?SetCameraMaxDistance@CCamera@@SAXM@Z		; CCamera::SetCameraMaxDistance
PUBLIC	?Lock@CCamera@@QAEXXZ				; CCamera::Lock
PUBLIC	?Unlock@CCamera@@QAEXXZ				; CCamera::Unlock
PUBLIC	?IsLock@CCamera@@QAE_NXZ			; CCamera::IsLock
PUBLIC	?Wheel@CCamera@@QAEXH@Z				; CCamera::Wheel
PUBLIC	?Drag@CCamera@@QAE_NHHPAUtagPOINT@@@Z		; CCamera::Drag
PUBLIC	?EndDrag@CCamera@@QAE_NXZ			; CCamera::EndDrag
PUBLIC	?BeginDrag@CCamera@@QAEXHH@Z			; CCamera::BeginDrag
PUBLIC	?IsDraging@CCamera@@QAE_NXZ			; CCamera::IsDraging
PUBLIC	?SetResistance@CCamera@@QAEXM@Z			; CCamera::SetResistance
PUBLIC	?SetCameraState@CCamera@@QAEXW4_eCameraState_@@@Z ; CCamera::SetCameraState
PUBLIC	?IncreaseNumSrcreenBuilding@CCamera@@QAEXXZ	; CCamera::IncreaseNumSrcreenBuilding
PUBLIC	?ResetNumScreenBuilding@CCamera@@QAEXXZ		; CCamera::ResetNumScreenBuilding
PUBLIC	?SetViewParams@CCamera@@QAEXABUD3DXVECTOR3@@00@Z ; CCamera::SetViewParams
PUBLIC	?SetEye@CCamera@@QAEXABUD3DXVECTOR3@@@Z		; CCamera::SetEye
PUBLIC	?SetTarget@CCamera@@QAEXABUD3DXVECTOR3@@@Z	; CCamera::SetTarget
PUBLIC	?SetUp@CCamera@@QAEXABUD3DXVECTOR3@@@Z		; CCamera::SetUp
PUBLIC	?Pitch@CCamera@@QAEXM@Z				; CCamera::Pitch
PUBLIC	?Roll@CCamera@@QAEXM@Z				; CCamera::Roll
PUBLIC	?SetDistance@CCamera@@QAEXM@Z			; CCamera::SetDistance
PUBLIC	?Move@CCamera@@QAEXABUD3DXVECTOR3@@@Z		; CCamera::Move
PUBLIC	?Zoom@CCamera@@QAEXM@Z				; CCamera::Zoom
PUBLIC	?MoveAlongView@CCamera@@QAEXM@Z			; CCamera::MoveAlongView
PUBLIC	?MoveAlongCross@CCamera@@QAEXM@Z		; CCamera::MoveAlongCross
PUBLIC	?MoveAlongUp@CCamera@@QAEXM@Z			; CCamera::MoveAlongUp
PUBLIC	?MoveLateral@CCamera@@QAEXM@Z			; CCamera::MoveLateral
PUBLIC	?MoveFront@CCamera@@QAEXM@Z			; CCamera::MoveFront
PUBLIC	?MoveVertical@CCamera@@QAEXM@Z			; CCamera::MoveVertical
PUBLIC	?RotateEyeAroundTarget@CCamera@@QAEXMM@Z	; CCamera::RotateEyeAroundTarget
PUBLIC	?RotateEyeAroundPoint@CCamera@@QAEXABUD3DXVECTOR3@@MM@Z ; CCamera::RotateEyeAroundPoint
PUBLIC	?SetViewMatrix@CCamera@@IAEXXZ			; CCamera::SetViewMatrix
PUBLIC	?CalculateRoll@CCamera@@IAEXXZ			; CCamera::CalculateRoll
PUBLIC	?GetTargetHeight@CCamera@@QAEMXZ		; CCamera::GetTargetHeight
PUBLIC	?SetTargetHeight@CCamera@@QAEXM@Z		; CCamera::SetTargetHeight
PUBLIC	??_GCCamera@@UAEPAXI@Z				; CCamera::`scalar deleting destructor'
PUBLIC	??1?$CSingleton@VCCameraManager@@@@UAE@XZ	; CSingleton<CCameraManager>::~CSingleton<CCameraManager>
PUBLIC	??_G?$CSingleton@VCCameraManager@@@@UAEPAXI@Z	; CSingleton<CCameraManager>::`scalar deleting destructor'
PUBLIC	??0CCameraManager@@QAE@XZ			; CCameraManager::CCameraManager
PUBLIC	??1CCameraManager@@UAE@XZ			; CCameraManager::~CCameraManager
PUBLIC	?AddCamera@CCameraManager@@QAE_NE@Z		; CCameraManager::AddCamera
PUBLIC	?RemoveCamera@CCameraManager@@QAE_NE@Z		; CCameraManager::RemoveCamera
PUBLIC	?GetCurrentCamera@CCameraManager@@QAEPAVCCamera@@XZ ; CCameraManager::GetCurrentCamera
PUBLIC	?SetCurrentCamera@CCameraManager@@QAEXE@Z	; CCameraManager::SetCurrentCamera
PUBLIC	?ResetToPreviousCamera@CCameraManager@@QAEXXZ	; CCameraManager::ResetToPreviousCamera
PUBLIC	?isCurrentCamera@CCameraManager@@QAE_NE@Z	; CCameraManager::isCurrentCamera
PUBLIC	?GetCurrentCameraNum@CCameraManager@@QAEEXZ	; CCameraManager::GetCurrentCameraNum
PUBLIC	?isTerrainCollisionEnable@CCameraManager@@QAE_NXZ ; CCameraManager::isTerrainCollisionEnable
PUBLIC	?SetTerrainCollision@CCameraManager@@QAEX_N@Z	; CCameraManager::SetTerrainCollision
PUBLIC	??0?$_Tree@V?$_Tmap_traits@EPAVCCamera@@U?$less@E@std@@V?$allocator@U?$pair@$$CBEPAVCCamera@@@std@@@3@$0A@@std@@@std@@QAE@ABU?$less@E@1@@Z ; std::_Tree<std::_Tmap_traits<unsigned char,CCamera *,std::less<unsigned char>,std::allocator<std::pair<unsigned char const ,CCamera *> >,0> >::_Tree<std::_Tmap_traits<unsigned char,CCamera *,std::less<unsigned char>,std::allocator<std::pair<unsigned char const ,CCamera *> >,0> >
PUBLIC	??1?$_Tree@V?$_Tmap_traits@EPAVCCamera@@U?$less@E@std@@V?$allocator@U?$pair@$$CBEPAVCCamera@@@std@@@3@$0A@@std@@@std@@QAE@XZ ; std::_Tree<std::_Tmap_traits<unsigned char,CCamera *,std::less<unsigned char>,std::allocator<std::pair<unsigned char const ,CCamera *> >,0> >::~_Tree<std::_Tmap_traits<unsigned char,CCamera *,std::less<unsigned char>,std::allocator<std::pair<unsigned char const ,CCamera *> >,0> >
PUBLIC	?begin@?$_Tree@V?$_Tmap_traits@EPAVCCamera@@U?$less@E@std@@V?$allocator@U?$pair@$$CBEPAVCCamera@@@std@@@3@$0A@@std@@@std@@QAE?AV?$_Tree_iterator@V?$_Tree_val@U?$_Tree_simple_types@U?$pair@$$CBEPAVCCamera@@@std@@@std@@@std@@@2@XZ ; std::_Tree<std::_Tmap_traits<unsigned char,CCamera *,std::less<unsigned char>,std::allocator<std::pair<unsigned char const ,CCamera *> >,0> >::begin
PUBLIC	?max_size@?$_Tree@V?$_Tmap_traits@EPAVCCamera@@U?$less@E@std@@V?$allocator@U?$pair@$$CBEPAVCCamera@@@std@@@3@$0A@@std@@@std@@QBEIXZ ; std::_Tree<std::_Tmap_traits<unsigned char,CCamera *,std::less<unsigned char>,std::allocator<std::pair<unsigned char const ,CCamera *> >,0> >::max_size
PUBLIC	?_Erase_unchecked@?$_Tree@V?$_Tmap_traits@EPAVCCamera@@U?$less@E@std@@V?$allocator@U?$pair@$$CBEPAVCCamera@@@std@@@3@$0A@@std@@@std@@AAEPAU?$_Tree_node@U?$pair@$$CBEPAVCCamera@@@std@@PAX@2@V?$_Tree_unchecked_const_iterator@V?$_Tree_val@U?$_Tree_simple_types@U?$pair@$$CBEPAVCCamera@@@std@@@std@@@std@@U_Iterator_base0@2@@2@@Z ; std::_Tree<std::_Tmap_traits<unsigned char,CCamera *,std::less<unsigned char>,std::allocator<std::pair<unsigned char const ,CCamera *> >,0> >::_Erase_unchecked
PUBLIC	?clear@?$_Tree@V?$_Tmap_traits@EPAVCCamera@@U?$less@E@std@@V?$allocator@U?$pair@$$CBEPAVCCamera@@@std@@@3@$0A@@std@@@std@@QAEXXZ ; std::_Tree<std::_Tmap_traits<unsigned char,CCamera *,std::less<unsigned char>,std::allocator<std::pair<unsigned char const ,CCamera *> >,0> >::clear
PUBLIC	?find@?$_Tree@V?$_Tmap_traits@EPAVCCamera@@U?$less@E@std@@V?$allocator@U?$pair@$$CBEPAVCCamera@@@std@@@3@$0A@@std@@@std@@QAE?AV?$_Tree_iterator@V?$_Tree_val@U?$_Tree_simple_types@U?$pair@$$CBEPAVCCamera@@@std@@@std@@@std@@@2@ABE@Z ; std::_Tree<std::_Tmap_traits<unsigned char,CCamera *,std::less<unsigned char>,std::allocator<std::pair<unsigned char const ,CCamera *> >,0> >::find
PUBLIC	?_Check_grow_by_1@?$_Tree@V?$_Tmap_traits@EPAVCCamera@@U?$less@E@std@@V?$allocator@U?$pair@$$CBEPAVCCamera@@@std@@@3@$0A@@std@@@std@@IAEXXZ ; std::_Tree<std::_Tmap_traits<unsigned char,CCamera *,std::less<unsigned char>,std::allocator<std::pair<unsigned char const ,CCamera *> >,0> >::_Check_grow_by_1
PUBLIC	?_Alloc_sentinel_and_proxy@?$_Tree@V?$_Tmap_traits@EPAVCCamera@@U?$less@E@std@@V?$allocator@U?$pair@$$CBEPAVCCamera@@@std@@@3@$0A@@std@@@std@@IAEXXZ ; std::_Tree<std::_Tmap_traits<unsigned char,CCamera *,std::less<unsigned char>,std::allocator<std::pair<unsigned char const ,CCamera *> >,0> >::_Alloc_sentinel_and_proxy
PUBLIC	?_Lrotate@?$_Tree_val@U?$_Tree_simple_types@U?$pair@$$CBEPAVCCamera@@@std@@@std@@@std@@QAEXPAU?$_Tree_node@U?$pair@$$CBEPAVCCamera@@@std@@PAX@2@@Z ; std::_Tree_val<std::_Tree_simple_types<std::pair<unsigned char const ,CCamera *> > >::_Lrotate
PUBLIC	?_Rrotate@?$_Tree_val@U?$_Tree_simple_types@U?$pair@$$CBEPAVCCamera@@@std@@@std@@@std@@QAEXPAU?$_Tree_node@U?$pair@$$CBEPAVCCamera@@@std@@PAX@2@@Z ; std::_Tree_val<std::_Tree_simple_types<std::pair<unsigned char const ,CCamera *> > >::_Rrotate
PUBLIC	?_Extract@?$_Tree_val@U?$_Tree_simple_types@U?$pair@$$CBEPAVCCamera@@@std@@@std@@@std@@QAEPAU?$_Tree_node@U?$pair@$$CBEPAVCCamera@@@std@@PAX@2@V?$_Tree_unchecked_const_iterator@V?$_Tree_val@U?$_Tree_simple_types@U?$pair@$$CBEPAVCCamera@@@std@@@std@@@std@@U_Iterator_base0@2@@2@@Z ; std::_Tree_val<std::_Tree_simple_types<std::pair<unsigned char const ,CCamera *> > >::_Extract
PUBLIC	?_Insert_node@?$_Tree_val@U?$_Tree_simple_types@U?$pair@$$CBEPAVCCamera@@@std@@@std@@@std@@QAEPAU?$_Tree_node@U?$pair@$$CBEPAVCCamera@@@std@@PAX@2@U?$_Tree_id@PAU?$_Tree_node@U?$pair@$$CBEPAVCCamera@@@std@@PAX@std@@@2@QAU32@@Z ; std::_Tree_val<std::_Tree_simple_types<std::pair<unsigned char const ,CCamera *> > >::_Insert_node
PUBLIC	??1?$map@EPAVCCamera@@U?$less@E@std@@V?$allocator@U?$pair@$$CBEPAVCCamera@@@std@@@3@@std@@QAE@XZ ; std::map<unsigned char,CCamera *,std::less<unsigned char>,std::allocator<std::pair<unsigned char const ,CCamera *> > >::~map<unsigned char,CCamera *,std::less<unsigned char>,std::allocator<std::pair<unsigned char const ,CCamera *> > >
PUBLIC	??_GCCameraManager@@UAEPAXI@Z			; CCameraManager::`scalar deleting destructor'
PUBLIC	??E?$_Tree_unchecked_const_iterator@V?$_Tree_val@U?$_Tree_simple_types@U?$pair@$$CBEPAVCCamera@@@std@@@std@@@std@@U_Iterator_base0@2@@std@@QAEAAV01@XZ ; std::_Tree_unchecked_const_iterator<std::_Tree_val<std::_Tree_simple_types<std::pair<unsigned char const ,CCamera *> > >,std::_Iterator_base0>::operator++
PUBLIC	??$insert@$0A@$0A@@?$_Tree@V?$_Tmap_traits@EPAVCCamera@@U?$less@E@std@@V?$allocator@U?$pair@$$CBEPAVCCamera@@@std@@@3@$0A@@std@@@std@@QAE?AU?$pair@V?$_Tree_iterator@V?$_Tree_val@U?$_Tree_simple_types@U?$pair@$$CBEPAVCCamera@@@std@@@std@@@std@@@std@@_N@1@$$QAU?$pair@$$CBEPAVCCamera@@@1@@Z ; std::_Tree<std::_Tmap_traits<unsigned char,CCamera *,std::less<unsigned char>,std::allocator<std::pair<unsigned char const ,CCamera *> >,0> >::insert<0,0>
PUBLIC	??$erase@V?$_Tree_iterator@V?$_Tree_val@U?$_Tree_simple_types@U?$pair@$$CBEPAVCCamera@@@std@@@std@@@std@@@std@@$0A@@?$_Tree@V?$_Tmap_traits@EPAVCCamera@@U?$less@E@std@@V?$allocator@U?$pair@$$CBEPAVCCamera@@@std@@@3@$0A@@std@@@std@@QAE?AV?$_Tree_iterator@V?$_Tree_val@U?$_Tree_simple_types@U?$pair@$$CBEPAVCCamera@@@std@@@std@@@std@@@1@V21@@Z ; std::_Tree<std::_Tmap_traits<unsigned char,CCamera *,std::less<unsigned char>,std::allocator<std::pair<unsigned char const ,CCamera *> >,0> >::erase<std::_Tree_iterator<std::_Tree_val<std::_Tree_simple_types<std::pair<unsigned char const ,CCamera *> > > >,0>
PUBLIC	??$_Try_emplace@ABE$$V@?$map@EPAVCCamera@@U?$less@E@std@@V?$allocator@U?$pair@$$CBEPAVCCamera@@@std@@@3@@std@@AAE?AU?$pair@PAU?$_Tree_node@U?$pair@$$CBEPAVCCamera@@@std@@PAX@std@@_N@1@ABE@Z ; std::map<unsigned char,CCamera *,std::less<unsigned char>,std::allocator<std::pair<unsigned char const ,CCamera *> > >::_Try_emplace<unsigned char const &>
PUBLIC	??$_Find@E@?$_Tree@V?$_Tmap_traits@EPAVCCamera@@U?$less@E@std@@V?$allocator@U?$pair@$$CBEPAVCCamera@@@std@@@3@$0A@@std@@@std@@ABEPAU?$_Tree_node@U?$pair@$$CBEPAVCCamera@@@std@@PAX@1@ABE@Z ; std::_Tree<std::_Tmap_traits<unsigned char,CCamera *,std::less<unsigned char>,std::allocator<std::pair<unsigned char const ,CCamera *> >,0> >::_Find<unsigned char>
PUBLIC	??$_Erase_tree@V?$allocator@U?$_Tree_node@U?$pair@$$CBEPAVCCamera@@@std@@PAX@std@@@std@@@?$_Tree_val@U?$_Tree_simple_types@U?$pair@$$CBEPAVCCamera@@@std@@@std@@@std@@QAEXAAV?$allocator@U?$_Tree_node@U?$pair@$$CBEPAVCCamera@@@std@@PAX@std@@@1@PAU?$_Tree_node@U?$pair@$$CBEPAVCCamera@@@std@@PAX@1@@Z ; std::_Tree_val<std::_Tree_simple_types<std::pair<unsigned char const ,CCamera *> > >::_Erase_tree<std::allocator<std::_Tree_node<std::pair<unsigned char const ,CCamera *>,void *> > >
PUBLIC	??$_Buyheadnode@V?$allocator@U?$_Tree_node@U?$pair@$$CBEPAVCCamera@@@std@@PAX@std@@@std@@@?$_Tree_node@U?$pair@$$CBEPAVCCamera@@@std@@PAX@std@@SAPAU01@AAV?$allocator@U?$_Tree_node@U?$pair@$$CBEPAVCCamera@@@std@@PAX@std@@@1@@Z ; std::_Tree_node<std::pair<unsigned char const ,CCamera *>,void *>::_Buyheadnode<std::allocator<std::_Tree_node<std::pair<unsigned char const ,CCamera *>,void *> > >
PUBLIC	??$_Emplace@U?$pair@$$CBEPAVCCamera@@@std@@@?$_Tree@V?$_Tmap_traits@EPAVCCamera@@U?$less@E@std@@V?$allocator@U?$pair@$$CBEPAVCCamera@@@std@@@3@$0A@@std@@@std@@IAE?AU?$pair@PAU?$_Tree_node@U?$pair@$$CBEPAVCCamera@@@std@@PAX@std@@_N@1@$$QAU?$pair@$$CBEPAVCCamera@@@1@@Z ; std::_Tree<std::_Tmap_traits<unsigned char,CCamera *,std::less<unsigned char>,std::allocator<std::pair<unsigned char const ,CCamera *> >,0> >::_Emplace<std::pair<unsigned char const ,CCamera *> >
PUBLIC	??$_Find_lower_bound@E@?$_Tree@V?$_Tmap_traits@EPAVCCamera@@U?$less@E@std@@V?$allocator@U?$pair@$$CBEPAVCCamera@@@std@@@3@$0A@@std@@@std@@IBE?AU?$_Tree_find_result@PAU?$_Tree_node@U?$pair@$$CBEPAVCCamera@@@std@@PAX@std@@@1@ABE@Z ; std::_Tree<std::_Tmap_traits<unsigned char,CCamera *,std::less<unsigned char>,std::allocator<std::pair<unsigned char const ,CCamera *> >,0> >::_Find_lower_bound<unsigned char>
PUBLIC	??$_Lower_bound_duplicate@E@?$_Tree@V?$_Tmap_traits@EPAVCCamera@@U?$less@E@std@@V?$allocator@U?$pair@$$CBEPAVCCamera@@@std@@@3@$0A@@std@@@std@@IBE_NQAU?$_Tree_node@U?$pair@$$CBEPAVCCamera@@@std@@PAX@1@ABE@Z ; std::_Tree<std::_Tmap_traits<unsigned char,CCamera *,std::less<unsigned char>,std::allocator<std::pair<unsigned char const ,CCamera *> >,0> >::_Lower_bound_duplicate<unsigned char>
PUBLIC	?_Allocate@?$_Alloc_construct_ptr@V?$allocator@U?$_Tree_node@U?$pair@$$CBEPAVCCamera@@@std@@PAX@std@@@std@@@std@@QAEXXZ ; std::_Alloc_construct_ptr<std::allocator<std::_Tree_node<std::pair<unsigned char const ,CCamera *>,void *> > >::_Allocate
PUBLIC	??1?$_Alloc_construct_ptr@V?$allocator@U?$_Tree_node@U?$pair@$$CBEPAVCCamera@@@std@@PAX@std@@@std@@@std@@QAE@XZ ; std::_Alloc_construct_ptr<std::allocator<std::_Tree_node<std::pair<unsigned char const ,CCamera *>,void *> > >::~_Alloc_construct_ptr<std::allocator<std::_Tree_node<std::pair<unsigned char const ,CCamera *>,void *> > >
PUBLIC	??1?$_Tree_temp_node_alloc@V?$allocator@U?$_Tree_node@U?$pair@$$CBEPAVCCamera@@@std@@PAX@std@@@std@@@std@@QAE@XZ ; std::_Tree_temp_node_alloc<std::allocator<std::_Tree_node<std::pair<unsigned char const ,CCamera *>,void *> > >::~_Tree_temp_node_alloc<std::allocator<std::_Tree_node<std::pair<unsigned char const ,CCamera *>,void *> > >
PUBLIC	??1?$_Tree_temp_node@V?$allocator@U?$_Tree_node@U?$pair@$$CBEPAVCCamera@@@std@@PAX@std@@@std@@@std@@QAE@XZ ; std::_Tree_temp_node<std::allocator<std::_Tree_node<std::pair<unsigned char const ,CCamera *>,void *> > >::~_Tree_temp_node<std::allocator<std::_Tree_node<std::pair<unsigned char const ,CCamera *>,void *> > >
PUBLIC	??$?0ABUpiecewise_construct_t@std@@V?$tuple@ABE@1@V?$tuple@$$V@1@@?$_Tree_temp_node@V?$allocator@U?$_Tree_node@U?$pair@$$CBEPAVCCamera@@@std@@PAX@std@@@std@@@std@@QAE@AAV?$allocator@U?$_Tree_node@U?$pair@$$CBEPAVCCamera@@@std@@PAX@std@@@1@PAU?$_Tree_node@U?$pair@$$CBEPAVCCamera@@@std@@PAX@1@ABUpiecewise_construct_t@1@$$QAV?$tuple@ABE@1@$$QAV?$tuple@$$V@1@@Z ; std::_Tree_temp_node<std::allocator<std::_Tree_node<std::pair<unsigned char const ,CCamera *>,void *> > >::_Tree_temp_node<std::allocator<std::_Tree_node<std::pair<unsigned char const ,CCamera *>,void *> > ><std::piecewise_construct_t const &,std::tuple<unsigned char const &>,std::tuple<> >
PUBLIC	??$_Freenode0@V?$allocator@U?$_Tree_node@U?$pair@$$CBEPAVCCamera@@@std@@PAX@std@@@std@@@?$_Tree_node@U?$pair@$$CBEPAVCCamera@@@std@@PAX@std@@SAXAAV?$allocator@U?$_Tree_node@U?$pair@$$CBEPAVCCamera@@@std@@PAX@std@@@1@PAU01@@Z ; std::_Tree_node<std::pair<unsigned char const ,CCamera *>,void *>::_Freenode0<std::allocator<std::_Tree_node<std::pair<unsigned char const ,CCamera *>,void *> > >
PUBLIC	??$_Construct_in_place@PAU?$_Tree_node@U?$pair@$$CBEPAVCCamera@@@std@@PAX@std@@ABQAU12@@std@@YAXAAPAU?$_Tree_node@U?$pair@$$CBEPAVCCamera@@@std@@PAX@0@ABQAU10@@Z ; std::_Construct_in_place<std::_Tree_node<std::pair<unsigned char const ,CCamera *>,void *> *,std::_Tree_node<std::pair<unsigned char const ,CCamera *>,void *> * const &>
PUBLIC	??$_Destroy_in_place@PAU?$_Tree_node@U?$pair@$$CBEPAVCCamera@@@std@@PAX@std@@@std@@YAXAAPAU?$_Tree_node@U?$pair@$$CBEPAVCCamera@@@std@@PAX@0@@Z ; std::_Destroy_in_place<std::_Tree_node<std::pair<unsigned char const ,CCamera *>,void *> *>
PUBLIC	??$?0U?$pair@$$CBEPAVCCamera@@@std@@@?$_Tree_temp_node@V?$allocator@U?$_Tree_node@U?$pair@$$CBEPAVCCamera@@@std@@PAX@std@@@std@@@std@@QAE@AAV?$allocator@U?$_Tree_node@U?$pair@$$CBEPAVCCamera@@@std@@PAX@std@@@1@PAU?$_Tree_node@U?$pair@$$CBEPAVCCamera@@@std@@PAX@1@$$QAU?$pair@$$CBEPAVCCamera@@@1@@Z ; std::_Tree_temp_node<std::allocator<std::_Tree_node<std::pair<unsigned char const ,CCamera *>,void *> > >::_Tree_temp_node<std::allocator<std::_Tree_node<std::pair<unsigned char const ,CCamera *>,void *> > ><std::pair<unsigned char const ,CCamera *> >
PUBLIC	??$construct@U?$pair@$$CBEPAVCCamera@@@std@@ABUpiecewise_construct_t@2@V?$tuple@ABE@2@V?$tuple@$$V@2@@?$_Default_allocator_traits@V?$allocator@U?$_Tree_node@U?$pair@$$CBEPAVCCamera@@@std@@PAX@std@@@std@@@std@@SAXAAV?$allocator@U?$_Tree_node@U?$pair@$$CBEPAVCCamera@@@std@@PAX@std@@@1@QAU?$pair@$$CBEPAVCCamera@@@1@ABUpiecewise_construct_t@1@$$QAV?$tuple@ABE@1@$$QAV?$tuple@$$V@1@@Z ; std::_Default_allocator_traits<std::allocator<std::_Tree_node<std::pair<unsigned char const ,CCamera *>,void *> > >::construct<std::pair<unsigned char const ,CCamera *>,std::piecewise_construct_t const &,std::tuple<unsigned char const &>,std::tuple<> >
PUBLIC	??$_Construct_in_place@PAU?$_Tree_node@U?$pair@$$CBEPAVCCamera@@@std@@PAX@std@@AAPAU12@@std@@YAXAAPAU?$_Tree_node@U?$pair@$$CBEPAVCCamera@@@std@@PAX@0@0@Z ; std::_Construct_in_place<std::_Tree_node<std::pair<unsigned char const ,CCamera *>,void *> *,std::_Tree_node<std::pair<unsigned char const ,CCamera *>,void *> * &>
PUBLIC	??_7exception@std@@6B@				; std::exception::`vftable'
PUBLIC	??_C@_0BC@EOODALEL@Unknown?5exception@		; `string'
PUBLIC	??_7bad_alloc@std@@6B@				; std::bad_alloc::`vftable'
PUBLIC	??_7bad_array_new_length@std@@6B@		; std::bad_array_new_length::`vftable'
PUBLIC	??_C@_0BF@KINCDENJ@bad?5array?5new?5length@	; `string'
PUBLIC	__TI3?AVbad_array_new_length@std@@
PUBLIC	__CTA3?AVbad_array_new_length@std@@
PUBLIC	??_R0?AVbad_array_new_length@std@@@8		; std::bad_array_new_length `RTTI Type Descriptor'
PUBLIC	__CT??_R0?AVbad_array_new_length@std@@@8??0bad_array_new_length@std@@QAE@ABV01@@Z12
PUBLIC	??_R0?AVbad_alloc@std@@@8			; std::bad_alloc `RTTI Type Descriptor'
PUBLIC	__CT??_R0?AVbad_alloc@std@@@8??0bad_alloc@std@@QAE@ABV01@@Z12
PUBLIC	??_R0?AVexception@std@@@8			; std::exception `RTTI Type Descriptor'
PUBLIC	__CT??_R0?AVexception@std@@@8??0exception@std@@QAE@ABV01@@Z12
PUBLIC	??_C@_0BB@GCADKGJO@map?1set?5too?5long@		; `string'
PUBLIC	??_R4exception@std@@6B@				; std::exception::`RTTI Complete Object Locator'
PUBLIC	??_R3exception@std@@8				; std::exception::`RTTI Class Hierarchy Descriptor'
PUBLIC	??_R2exception@std@@8				; std::exception::`RTTI Base Class Array'
PUBLIC	??_R1A@?0A@EA@exception@std@@8			; std::exception::`RTTI Base Class Descriptor at (0,-1,0,64)'
PUBLIC	??_R4bad_alloc@std@@6B@				; std::bad_alloc::`RTTI Complete Object Locator'
PUBLIC	??_R3bad_alloc@std@@8				; std::bad_alloc::`RTTI Class Hierarchy Descriptor'
PUBLIC	??_R2bad_alloc@std@@8				; std::bad_alloc::`RTTI Base Class Array'
PUBLIC	??_R1A@?0A@EA@bad_alloc@std@@8			; std::bad_alloc::`RTTI Base Class Descriptor at (0,-1,0,64)'
PUBLIC	??_R4bad_array_new_length@std@@6B@		; std::bad_array_new_length::`RTTI Complete Object Locator'
PUBLIC	??_R3bad_array_new_length@std@@8		; std::bad_array_new_length::`RTTI Class Hierarchy Descriptor'
PUBLIC	??_R2bad_array_new_length@std@@8		; std::bad_array_new_length::`RTTI Base Class Array'
PUBLIC	??_R1A@?0A@EA@bad_array_new_length@std@@8	; std::bad_array_new_length::`RTTI Base Class Descriptor at (0,-1,0,64)'
PUBLIC	??_7CCamera@@6B@				; CCamera::`vftable'
PUBLIC	?ms_singleton@?$CSingleton@VCCameraManager@@@@0PAVCCameraManager@@A ; CSingleton<CCameraManager>::ms_singleton
PUBLIC	??_7?$CSingleton@VCCameraManager@@@@6B@		; CSingleton<CCameraManager>::`vftable'
PUBLIC	??_7CCameraManager@@6B@				; CCameraManager::`vftable'
PUBLIC	?aCameraManager@@3VCCameraManager@@A		; aCameraManager
PUBLIC	??_R4CCamera@@6B@				; CCamera::`RTTI Complete Object Locator'
PUBLIC	??_R0?AVCCamera@@@8				; CCamera `RTTI Type Descriptor'
PUBLIC	??_R3CCamera@@8					; CCamera::`RTTI Class Hierarchy Descriptor'
PUBLIC	??_R2CCamera@@8					; CCamera::`RTTI Base Class Array'
PUBLIC	??_R1A@?0A@EA@CCamera@@8			; CCamera::`RTTI Base Class Descriptor at (0,-1,0,64)'
PUBLIC	??_R4CCameraManager@@6B@			; CCameraManager::`RTTI Complete Object Locator'
PUBLIC	??_R0?AVCCameraManager@@@8			; CCameraManager `RTTI Type Descriptor'
PUBLIC	??_R3CCameraManager@@8				; CCameraManager::`RTTI Class Hierarchy Descriptor'
PUBLIC	??_R2CCameraManager@@8				; CCameraManager::`RTTI Base Class Array'
PUBLIC	??_R1A@?0A@EA@CCameraManager@@8			; CCameraManager::`RTTI Base Class Descriptor at (0,-1,0,64)'
PUBLIC	??_R1A@?0A@EA@?$CSingleton@VCCameraManager@@@@8	; CSingleton<CCameraManager>::`RTTI Base Class Descriptor at (0,-1,0,64)'
PUBLIC	??_R0?AV?$CSingleton@VCCameraManager@@@@@8	; CSingleton<CCameraManager> `RTTI Type Descriptor'
PUBLIC	??_R3?$CSingleton@VCCameraManager@@@@8		; CSingleton<CCameraManager>::`RTTI Class Hierarchy Descriptor'
PUBLIC	??_R2?$CSingleton@VCCameraManager@@@@8		; CSingleton<CCameraManager>::`RTTI Base Class Array'
PUBLIC	??_R4?$CSingleton@VCCameraManager@@@@6B@	; CSingleton<CCameraManager>::`RTTI Complete Object Locator'
PUBLIC	__real@00000000
PUBLIC	__real@3c8efa35
PUBLIC	__real@3e99999a
PUBLIC	__real@3f800000
PUBLIC	__real@40000000
PUBLIC	__real@40400000
PUBLIC	__real@40800000
PUBLIC	__real@42480000
PUBLIC	__real@42652ee0
PUBLIC	__real@42a00000
PUBLIC	__real@42c80000
PUBLIC	__real@43b40000
PUBLIC	__real@bf800000
PUBLIC	__real@c2a00000
PUBLIC	__real@c3b40000
PUBLIC	__xmm@80000000800000008000000080000000
EXTRN	??2@YAPAXI@Z:PROC				; operator new
EXTRN	??3@YAXPAXI@Z:PROC				; operator delete
EXTRN	_atexit:PROC
EXTRN	__invalid_parameter_noinfo_noreturn:PROC
EXTRN	_acos:PROC
EXTRN	_sqrt:PROC
EXTRN	_D3DXVec2Normalize@8:PROC
EXTRN	_D3DXVec3Normalize@8:PROC
EXTRN	_D3DXVec3TransformCoord@12:PROC
EXTRN	_D3DXMatrixfDeterminant@4:PROC
EXTRN	_D3DXMatrixMultiply@12:PROC
EXTRN	_D3DXMatrixInverse@12:PROC
EXTRN	_D3DXMatrixRotationZ@8:PROC
EXTRN	_D3DXMatrixRotationAxis@12:PROC
EXTRN	_D3DXMatrixLookAtRH@16:PROC
EXTRN	___std_exception_copy:PROC
EXTRN	___std_exception_destroy:PROC
EXTRN	??_Eexception@std@@UAEPAXI@Z:PROC		; std::exception::`vector deleting destructor'
EXTRN	??_Ebad_alloc@std@@UAEPAXI@Z:PROC		; std::bad_alloc::`vector deleting destructor'
EXTRN	??_Ebad_array_new_length@std@@UAEPAXI@Z:PROC	; std::bad_array_new_length::`vector deleting destructor'
EXTRN	?_Xlength_error@std@@YAXPBD@Z:PROC		; std::_Xlength_error
EXTRN	?fMIN@@YAMMM@Z:PROC				; fMIN
EXTRN	?fMAX@@YAMMM@Z:PROC				; fMAX
EXTRN	??_ECCamera@@UAEPAXI@Z:PROC			; CCamera::`vector deleting destructor'
EXTRN	??_E?$CSingleton@VCCameraManager@@@@UAEPAXI@Z:PROC ; CSingleton<CCameraManager>::`vector deleting destructor'
EXTRN	??_ECCameraManager@@UAEPAXI@Z:PROC		; CCameraManager::`vector deleting destructor'
EXTRN	@__security_check_cookie@4:PROC
EXTRN	__CxxThrowException@8:PROC
EXTRN	___CxxFrameHandler3:PROC
EXTRN	??_7type_info@@6B@:QWORD			; type_info::`vftable'
EXTRN	?CAMERA_MAX_DISTANCE@CCamera@@0MA:DWORD		; CCamera::CAMERA_MAX_DISTANCE
EXTRN	___security_cookie:DWORD
EXTRN	__fltused:DWORD
;	COMDAT ?ms_singleton@?$CSingleton@VCCameraManager@@@@0PAVCCameraManager@@A
_BSS	SEGMENT
?ms_singleton@?$CSingleton@VCCameraManager@@@@0PAVCCameraManager@@A DD 01H DUP (?) ; CSingleton<CCameraManager>::ms_singleton
_BSS	ENDS
_BSS	SEGMENT
?aCameraManager@@3VCCameraManager@@A DB 014H DUP (?)	; aCameraManager
_BSS	ENDS
CRT$XCU	SEGMENT
?aCameraManager$initializer$@@3P6AXXZA DD FLAT:??__EaCameraManager@@YAXXZ ; aCameraManager$initializer$
CRT$XCU	ENDS
;	COMDAT __xmm@80000000800000008000000080000000
CONST	SEGMENT
__xmm@80000000800000008000000080000000 DB 00H, 00H, 00H, 080H, 00H, 00H, 00H
	DB	080H, 00H, 00H, 00H, 080H, 00H, 00H, 00H, 080H
CONST	ENDS
;	COMDAT __real@c3b40000
CONST	SEGMENT
__real@c3b40000 DD 0c3b40000r			; -360
CONST	ENDS
;	COMDAT __real@c2a00000
CONST	SEGMENT
__real@c2a00000 DD 0c2a00000r			; -80
CONST	ENDS
;	COMDAT __real@bf800000
CONST	SEGMENT
__real@bf800000 DD 0bf800000r			; -1
CONST	ENDS
;	COMDAT __real@43b40000
CONST	SEGMENT
__real@43b40000 DD 043b40000r			; 360
CONST	ENDS
;	COMDAT __real@42c80000
CONST	SEGMENT
__real@42c80000 DD 042c80000r			; 100
CONST	ENDS
;	COMDAT __real@42a00000
CONST	SEGMENT
__real@42a00000 DD 042a00000r			; 80
CONST	ENDS
;	COMDAT __real@42652ee0
CONST	SEGMENT
__real@42652ee0 DD 042652ee0r			; 57.2958
CONST	ENDS
;	COMDAT __real@42480000
CONST	SEGMENT
__real@42480000 DD 042480000r			; 50
CONST	ENDS
;	COMDAT __real@40800000
CONST	SEGMENT
__real@40800000 DD 040800000r			; 4
CONST	ENDS
;	COMDAT __real@40400000
CONST	SEGMENT
__real@40400000 DD 040400000r			; 3
CONST	ENDS
;	COMDAT __real@40000000
CONST	SEGMENT
__real@40000000 DD 040000000r			; 2
CONST	ENDS
;	COMDAT __real@3f800000
CONST	SEGMENT
__real@3f800000 DD 03f800000r			; 1
CONST	ENDS
;	COMDAT __real@3e99999a
CONST	SEGMENT
__real@3e99999a DD 03e99999ar			; 0.3
CONST	ENDS
;	COMDAT __real@3c8efa35
CONST	SEGMENT
__real@3c8efa35 DD 03c8efa35r			; 0.0174533
CONST	ENDS
;	COMDAT __real@00000000
CONST	SEGMENT
__real@00000000 DD 000000000r			; 0
CONST	ENDS
;	COMDAT ??_R4?$CSingleton@VCCameraManager@@@@6B@
rdata$r	SEGMENT
??_R4?$CSingleton@VCCameraManager@@@@6B@ DD 00H		; CSingleton<CCameraManager>::`RTTI Complete Object Locator'
	DD	00H
	DD	00H
	DD	FLAT:??_R0?AV?$CSingleton@VCCameraManager@@@@@8
	DD	FLAT:??_R3?$CSingleton@VCCameraManager@@@@8
rdata$r	ENDS
;	COMDAT ??_R2?$CSingleton@VCCameraManager@@@@8
rdata$r	SEGMENT
??_R2?$CSingleton@VCCameraManager@@@@8 DD FLAT:??_R1A@?0A@EA@?$CSingleton@VCCameraManager@@@@8 ; CSingleton<CCameraManager>::`RTTI Base Class Array'
rdata$r	ENDS
;	COMDAT ??_R3?$CSingleton@VCCameraManager@@@@8
rdata$r	SEGMENT
??_R3?$CSingleton@VCCameraManager@@@@8 DD 00H		; CSingleton<CCameraManager>::`RTTI Class Hierarchy Descriptor'
	DD	00H
	DD	01H
	DD	FLAT:??_R2?$CSingleton@VCCameraManager@@@@8
rdata$r	ENDS
;	COMDAT ??_R0?AV?$CSingleton@VCCameraManager@@@@@8
data$rs	SEGMENT
??_R0?AV?$CSingleton@VCCameraManager@@@@@8 DD FLAT:??_7type_info@@6B@ ; CSingleton<CCameraManager> `RTTI Type Descriptor'
	DD	00H
	DB	'.?AV?$CSingleton@VCCameraManager@@@@', 00H
data$rs	ENDS
;	COMDAT ??_R1A@?0A@EA@?$CSingleton@VCCameraManager@@@@8
rdata$r	SEGMENT
??_R1A@?0A@EA@?$CSingleton@VCCameraManager@@@@8 DD FLAT:??_R0?AV?$CSingleton@VCCameraManager@@@@@8 ; CSingleton<CCameraManager>::`RTTI Base Class Descriptor at (0,-1,0,64)'
	DD	00H
	DD	00H
	DD	0ffffffffH
	DD	00H
	DD	040H
	DD	FLAT:??_R3?$CSingleton@VCCameraManager@@@@8
rdata$r	ENDS
;	COMDAT ??_R1A@?0A@EA@CCameraManager@@8
rdata$r	SEGMENT
??_R1A@?0A@EA@CCameraManager@@8 DD FLAT:??_R0?AVCCameraManager@@@8 ; CCameraManager::`RTTI Base Class Descriptor at (0,-1,0,64)'
	DD	01H
	DD	00H
	DD	0ffffffffH
	DD	00H
	DD	040H
	DD	FLAT:??_R3CCameraManager@@8
rdata$r	ENDS
;	COMDAT ??_R2CCameraManager@@8
rdata$r	SEGMENT
??_R2CCameraManager@@8 DD FLAT:??_R1A@?0A@EA@CCameraManager@@8 ; CCameraManager::`RTTI Base Class Array'
	DD	FLAT:??_R1A@?0A@EA@?$CSingleton@VCCameraManager@@@@8
rdata$r	ENDS
;	COMDAT ??_R3CCameraManager@@8
rdata$r	SEGMENT
??_R3CCameraManager@@8 DD 00H				; CCameraManager::`RTTI Class Hierarchy Descriptor'
	DD	00H
	DD	02H
	DD	FLAT:??_R2CCameraManager@@8
rdata$r	ENDS
;	COMDAT ??_R0?AVCCameraManager@@@8
data$rs	SEGMENT
??_R0?AVCCameraManager@@@8 DD FLAT:??_7type_info@@6B@	; CCameraManager `RTTI Type Descriptor'
	DD	00H
	DB	'.?AVCCameraManager@@', 00H
data$rs	ENDS
;	COMDAT ??_R4CCameraManager@@6B@
rdata$r	SEGMENT
??_R4CCameraManager@@6B@ DD 00H				; CCameraManager::`RTTI Complete Object Locator'
	DD	00H
	DD	00H
	DD	FLAT:??_R0?AVCCameraManager@@@8
	DD	FLAT:??_R3CCameraManager@@8
rdata$r	ENDS
;	COMDAT ??_R1A@?0A@EA@CCamera@@8
rdata$r	SEGMENT
??_R1A@?0A@EA@CCamera@@8 DD FLAT:??_R0?AVCCamera@@@8	; CCamera::`RTTI Base Class Descriptor at (0,-1,0,64)'
	DD	00H
	DD	00H
	DD	0ffffffffH
	DD	00H
	DD	040H
	DD	FLAT:??_R3CCamera@@8
rdata$r	ENDS
;	COMDAT ??_R2CCamera@@8
rdata$r	SEGMENT
??_R2CCamera@@8 DD FLAT:??_R1A@?0A@EA@CCamera@@8	; CCamera::`RTTI Base Class Array'
rdata$r	ENDS
;	COMDAT ??_R3CCamera@@8
rdata$r	SEGMENT
??_R3CCamera@@8 DD 00H					; CCamera::`RTTI Class Hierarchy Descriptor'
	DD	00H
	DD	01H
	DD	FLAT:??_R2CCamera@@8
rdata$r	ENDS
;	COMDAT ??_R0?AVCCamera@@@8
data$rs	SEGMENT
??_R0?AVCCamera@@@8 DD FLAT:??_7type_info@@6B@		; CCamera `RTTI Type Descriptor'
	DD	00H
	DB	'.?AVCCamera@@', 00H
data$rs	ENDS
;	COMDAT ??_R4CCamera@@6B@
rdata$r	SEGMENT
??_R4CCamera@@6B@ DD 00H				; CCamera::`RTTI Complete Object Locator'
	DD	00H
	DD	00H
	DD	FLAT:??_R0?AVCCamera@@@8
	DD	FLAT:??_R3CCamera@@8
rdata$r	ENDS
;	COMDAT ??_7CCameraManager@@6B@
CONST	SEGMENT
??_7CCameraManager@@6B@ DD FLAT:??_R4CCameraManager@@6B@ ; CCameraManager::`vftable'
	DD	FLAT:??_ECCameraManager@@UAEPAXI@Z
CONST	ENDS
;	COMDAT ??_7?$CSingleton@VCCameraManager@@@@6B@
CONST	SEGMENT
??_7?$CSingleton@VCCameraManager@@@@6B@ DD FLAT:??_R4?$CSingleton@VCCameraManager@@@@6B@ ; CSingleton<CCameraManager>::`vftable'
	DD	FLAT:??_E?$CSingleton@VCCameraManager@@@@UAEPAXI@Z
CONST	ENDS
;	COMDAT ??_7CCamera@@6B@
CONST	SEGMENT
??_7CCamera@@6B@ DD FLAT:??_R4CCamera@@6B@		; CCamera::`vftable'
	DD	FLAT:??_ECCamera@@UAEPAXI@Z
CONST	ENDS
;	COMDAT ??_R1A@?0A@EA@bad_array_new_length@std@@8
rdata$r	SEGMENT
??_R1A@?0A@EA@bad_array_new_length@std@@8 DD FLAT:??_R0?AVbad_array_new_length@std@@@8 ; std::bad_array_new_length::`RTTI Base Class Descriptor at (0,-1,0,64)'
	DD	02H
	DD	00H
	DD	0ffffffffH
	DD	00H
	DD	040H
	DD	FLAT:??_R3bad_array_new_length@std@@8
rdata$r	ENDS
;	COMDAT ??_R2bad_array_new_length@std@@8
rdata$r	SEGMENT
??_R2bad_array_new_length@std@@8 DD FLAT:??_R1A@?0A@EA@bad_array_new_length@std@@8 ; std::bad_array_new_length::`RTTI Base Class Array'
	DD	FLAT:??_R1A@?0A@EA@bad_alloc@std@@8
	DD	FLAT:??_R1A@?0A@EA@exception@std@@8
rdata$r	ENDS
;	COMDAT ??_R3bad_array_new_length@std@@8
rdata$r	SEGMENT
??_R3bad_array_new_length@std@@8 DD 00H			; std::bad_array_new_length::`RTTI Class Hierarchy Descriptor'
	DD	00H
	DD	03H
	DD	FLAT:??_R2bad_array_new_length@std@@8
rdata$r	ENDS
;	COMDAT ??_R4bad_array_new_length@std@@6B@
rdata$r	SEGMENT
??_R4bad_array_new_length@std@@6B@ DD 00H		; std::bad_array_new_length::`RTTI Complete Object Locator'
	DD	00H
	DD	00H
	DD	FLAT:??_R0?AVbad_array_new_length@std@@@8
	DD	FLAT:??_R3bad_array_new_length@std@@8
rdata$r	ENDS
;	COMDAT ??_R1A@?0A@EA@bad_alloc@std@@8
rdata$r	SEGMENT
??_R1A@?0A@EA@bad_alloc@std@@8 DD FLAT:??_R0?AVbad_alloc@std@@@8 ; std::bad_alloc::`RTTI Base Class Descriptor at (0,-1,0,64)'
	DD	01H
	DD	00H
	DD	0ffffffffH
	DD	00H
	DD	040H
	DD	FLAT:??_R3bad_alloc@std@@8
rdata$r	ENDS
;	COMDAT ??_R2bad_alloc@std@@8
rdata$r	SEGMENT
??_R2bad_alloc@std@@8 DD FLAT:??_R1A@?0A@EA@bad_alloc@std@@8 ; std::bad_alloc::`RTTI Base Class Array'
	DD	FLAT:??_R1A@?0A@EA@exception@std@@8
rdata$r	ENDS
;	COMDAT ??_R3bad_alloc@std@@8
rdata$r	SEGMENT
??_R3bad_alloc@std@@8 DD 00H				; std::bad_alloc::`RTTI Class Hierarchy Descriptor'
	DD	00H
	DD	02H
	DD	FLAT:??_R2bad_alloc@std@@8
rdata$r	ENDS
;	COMDAT ??_R4bad_alloc@std@@6B@
rdata$r	SEGMENT
??_R4bad_alloc@std@@6B@ DD 00H				; std::bad_alloc::`RTTI Complete Object Locator'
	DD	00H
	DD	00H
	DD	FLAT:??_R0?AVbad_alloc@std@@@8
	DD	FLAT:??_R3bad_alloc@std@@8
rdata$r	ENDS
;	COMDAT ??_R1A@?0A@EA@exception@std@@8
rdata$r	SEGMENT
??_R1A@?0A@EA@exception@std@@8 DD FLAT:??_R0?AVexception@std@@@8 ; std::exception::`RTTI Base Class Descriptor at (0,-1,0,64)'
	DD	00H
	DD	00H
	DD	0ffffffffH
	DD	00H
	DD	040H
	DD	FLAT:??_R3exception@std@@8
rdata$r	ENDS
;	COMDAT ??_R2exception@std@@8
rdata$r	SEGMENT
??_R2exception@std@@8 DD FLAT:??_R1A@?0A@EA@exception@std@@8 ; std::exception::`RTTI Base Class Array'
rdata$r	ENDS
;	COMDAT ??_R3exception@std@@8
rdata$r	SEGMENT
??_R3exception@std@@8 DD 00H				; std::exception::`RTTI Class Hierarchy Descriptor'
	DD	00H
	DD	01H
	DD	FLAT:??_R2exception@std@@8
rdata$r	ENDS
;	COMDAT ??_R4exception@std@@6B@
rdata$r	SEGMENT
??_R4exception@std@@6B@ DD 00H				; std::exception::`RTTI Complete Object Locator'
	DD	00H
	DD	00H
	DD	FLAT:??_R0?AVexception@std@@@8
	DD	FLAT:??_R3exception@std@@8
rdata$r	ENDS
;	COMDAT ??_C@_0BB@GCADKGJO@map?1set?5too?5long@
CONST	SEGMENT
??_C@_0BB@GCADKGJO@map?1set?5too?5long@ DB 'map/set too long', 00H ; `string'
CONST	ENDS
;	COMDAT __CT??_R0?AVexception@std@@@8??0exception@std@@QAE@ABV01@@Z12
xdata$x	SEGMENT
__CT??_R0?AVexception@std@@@8??0exception@std@@QAE@ABV01@@Z12 DD 00H
	DD	FLAT:??_R0?AVexception@std@@@8
	DD	00H
	DD	0ffffffffH
	ORG $+4
	DD	0cH
	DD	FLAT:??0exception@std@@QAE@ABV01@@Z
xdata$x	ENDS
;	COMDAT ??_R0?AVexception@std@@@8
data$r	SEGMENT
??_R0?AVexception@std@@@8 DD FLAT:??_7type_info@@6B@	; std::exception `RTTI Type Descriptor'
	DD	00H
	DB	'.?AVexception@std@@', 00H
data$r	ENDS
;	COMDAT __CT??_R0?AVbad_alloc@std@@@8??0bad_alloc@std@@QAE@ABV01@@Z12
xdata$x	SEGMENT
__CT??_R0?AVbad_alloc@std@@@8??0bad_alloc@std@@QAE@ABV01@@Z12 DD 010H
	DD	FLAT:??_R0?AVbad_alloc@std@@@8
	DD	00H
	DD	0ffffffffH
	ORG $+4
	DD	0cH
	DD	FLAT:??0bad_alloc@std@@QAE@ABV01@@Z
xdata$x	ENDS
;	COMDAT ??_R0?AVbad_alloc@std@@@8
data$r	SEGMENT
??_R0?AVbad_alloc@std@@@8 DD FLAT:??_7type_info@@6B@	; std::bad_alloc `RTTI Type Descriptor'
	DD	00H
	DB	'.?AVbad_alloc@std@@', 00H
data$r	ENDS
;	COMDAT __CT??_R0?AVbad_array_new_length@std@@@8??0bad_array_new_length@std@@QAE@ABV01@@Z12
xdata$x	SEGMENT
__CT??_R0?AVbad_array_new_length@std@@@8??0bad_array_new_length@std@@QAE@ABV01@@Z12 DD 00H
	DD	FLAT:??_R0?AVbad_array_new_length@std@@@8
	DD	00H
	DD	0ffffffffH
	ORG $+4
	DD	0cH
	DD	FLAT:??0bad_array_new_length@std@@QAE@ABV01@@Z
xdata$x	ENDS
;	COMDAT ??_R0?AVbad_array_new_length@std@@@8
data$r	SEGMENT
??_R0?AVbad_array_new_length@std@@@8 DD FLAT:??_7type_info@@6B@ ; std::bad_array_new_length `RTTI Type Descriptor'
	DD	00H
	DB	'.?AVbad_array_new_length@std@@', 00H
data$r	ENDS
;	COMDAT __CTA3?AVbad_array_new_length@std@@
xdata$x	SEGMENT
__CTA3?AVbad_array_new_length@std@@ DD 03H
	DD	FLAT:__CT??_R0?AVbad_array_new_length@std@@@8??0bad_array_new_length@std@@QAE@ABV01@@Z12
	DD	FLAT:__CT??_R0?AVbad_alloc@std@@@8??0bad_alloc@std@@QAE@ABV01@@Z12
	DD	FLAT:__CT??_R0?AVexception@std@@@8??0exception@std@@QAE@ABV01@@Z12
xdata$x	ENDS
;	COMDAT __TI3?AVbad_array_new_length@std@@
xdata$x	SEGMENT
__TI3?AVbad_array_new_length@std@@ DD 00H
	DD	FLAT:??1bad_array_new_length@std@@UAE@XZ
	DD	00H
	DD	FLAT:__CTA3?AVbad_array_new_length@std@@
xdata$x	ENDS
;	COMDAT ??_C@_0BF@KINCDENJ@bad?5array?5new?5length@
CONST	SEGMENT
??_C@_0BF@KINCDENJ@bad?5array?5new?5length@ DB 'bad array new length', 00H ; `string'
CONST	ENDS
;	COMDAT ??_7bad_array_new_length@std@@6B@
CONST	SEGMENT
??_7bad_array_new_length@std@@6B@ DD FLAT:??_R4bad_array_new_length@std@@6B@ ; std::bad_array_new_length::`vftable'
	DD	FLAT:??_Ebad_array_new_length@std@@UAEPAXI@Z
	DD	FLAT:?what@exception@std@@UBEPBDXZ
CONST	ENDS
;	COMDAT ??_7bad_alloc@std@@6B@
CONST	SEGMENT
??_7bad_alloc@std@@6B@ DD FLAT:??_R4bad_alloc@std@@6B@	; std::bad_alloc::`vftable'
	DD	FLAT:??_Ebad_alloc@std@@UAEPAXI@Z
	DD	FLAT:?what@exception@std@@UBEPBDXZ
CONST	ENDS
;	COMDAT ??_C@_0BC@EOODALEL@Unknown?5exception@
CONST	SEGMENT
??_C@_0BC@EOODALEL@Unknown?5exception@ DB 'Unknown exception', 00H ; `string'
CONST	ENDS
;	COMDAT ??_7exception@std@@6B@
CONST	SEGMENT
??_7exception@std@@6B@ DD FLAT:??_R4exception@std@@6B@	; std::exception::`vftable'
	DD	FLAT:??_Eexception@std@@UAEPAXI@Z
	DD	FLAT:?what@exception@std@@UBEPBDXZ
CONST	ENDS
;	COMDAT xdata$x
xdata$x	SEGMENT
__unwindtable$??$?0U?$pair@$$CBEPAVCCamera@@@std@@@?$_Tree_temp_node@V?$allocator@U?$_Tree_node@U?$pair@$$CBEPAVCCamera@@@std@@PAX@std@@@std@@@std@@QAE@AAV?$allocator@U?$_Tree_node@U?$pair@$$CBEPAVCCamera@@@std@@PAX@std@@@1@PAU?$_Tree_node@U?$pair@$$CBEPAVCCamera@@@std@@PAX@1@$$QAU?$pair@$$CBEPAVCCamera@@@1@@Z DD 0ffffffffH
	DD	FLAT:__unwindfunclet$??$?0U?$pair@$$CBEPAVCCamera@@@std@@@?$_Tree_temp_node@V?$allocator@U?$_Tree_node@U?$pair@$$CBEPAVCCamera@@@std@@PAX@std@@@std@@@std@@QAE@AAV?$allocator@U?$_Tree_node@U?$pair@$$CBEPAVCCamera@@@std@@PAX@std@@@1@PAU?$_Tree_node@U?$pair@$$CBEPAVCCamera@@@std@@PAX@1@$$QAU?$pair@$$CBEPAVCCamera@@@1@@Z$1
__ehfuncinfo$??$?0U?$pair@$$CBEPAVCCamera@@@std@@@?$_Tree_temp_node@V?$allocator@U?$_Tree_node@U?$pair@$$CBEPAVCCamera@@@std@@PAX@std@@@std@@@std@@QAE@AAV?$allocator@U?$_Tree_node@U?$pair@$$CBEPAVCCamera@@@std@@PAX@std@@@1@PAU?$_Tree_node@U?$pair@$$CBEPAVCCamera@@@std@@PAX@1@$$QAU?$pair@$$CBEPAVCCamera@@@1@@Z DD 019930522H
	DD	01H
	DD	FLAT:__unwindtable$??$?0U?$pair@$$CBEPAVCCamera@@@std@@@?$_Tree_temp_node@V?$allocator@U?$_Tree_node@U?$pair@$$CBEPAVCCamera@@@std@@PAX@std@@@std@@@std@@QAE@AAV?$allocator@U?$_Tree_node@U?$pair@$$CBEPAVCCamera@@@std@@PAX@std@@@1@PAU?$_Tree_node@U?$pair@$$CBEPAVCCamera@@@std@@PAX@1@$$QAU?$pair@$$CBEPAVCCamera@@@1@@Z
	DD	2 DUP(00H)
	DD	2 DUP(00H)
	DD	00H
	DD	01H
xdata$x	ENDS
;	COMDAT xdata$x
xdata$x	SEGMENT
__unwindtable$??$?0ABUpiecewise_construct_t@std@@V?$tuple@ABE@1@V?$tuple@$$V@1@@?$_Tree_temp_node@V?$allocator@U?$_Tree_node@U?$pair@$$CBEPAVCCamera@@@std@@PAX@std@@@std@@@std@@QAE@AAV?$allocator@U?$_Tree_node@U?$pair@$$CBEPAVCCamera@@@std@@PAX@std@@@1@PAU?$_Tree_node@U?$pair@$$CBEPAVCCamera@@@std@@PAX@1@ABUpiecewise_construct_t@1@$$QAV?$tuple@ABE@1@$$QAV?$tuple@$$V@1@@Z DD 0ffffffffH
	DD	FLAT:__unwindfunclet$??$?0ABUpiecewise_construct_t@std@@V?$tuple@ABE@1@V?$tuple@$$V@1@@?$_Tree_temp_node@V?$allocator@U?$_Tree_node@U?$pair@$$CBEPAVCCamera@@@std@@PAX@std@@@std@@@std@@QAE@AAV?$allocator@U?$_Tree_node@U?$pair@$$CBEPAVCCamera@@@std@@PAX@std@@@1@PAU?$_Tree_node@U?$pair@$$CBEPAVCCamera@@@std@@PAX@1@ABUpiecewise_construct_t@1@$$QAV?$tuple@ABE@1@$$QAV?$tuple@$$V@1@@Z$1
	DD	0ffffffffH
	DD	FLAT:__unwindfunclet$??$?0ABUpiecewise_construct_t@std@@V?$tuple@ABE@1@V?$tuple@$$V@1@@?$_Tree_temp_node@V?$allocator@U?$_Tree_node@U?$pair@$$CBEPAVCCamera@@@std@@PAX@std@@@std@@@std@@QAE@AAV?$allocator@U?$_Tree_node@U?$pair@$$CBEPAVCCamera@@@std@@PAX@std@@@1@PAU?$_Tree_node@U?$pair@$$CBEPAVCCamera@@@std@@PAX@1@ABUpiecewise_construct_t@1@$$QAV?$tuple@ABE@1@$$QAV?$tuple@$$V@1@@Z$0
__ehfuncinfo$??$?0ABUpiecewise_construct_t@std@@V?$tuple@ABE@1@V?$tuple@$$V@1@@?$_Tree_temp_node@V?$allocator@U?$_Tree_node@U?$pair@$$CBEPAVCCamera@@@std@@PAX@std@@@std@@@std@@QAE@AAV?$allocator@U?$_Tree_node@U?$pair@$$CBEPAVCCamera@@@std@@PAX@std@@@1@PAU?$_Tree_node@U?$pair@$$CBEPAVCCamera@@@std@@PAX@1@ABUpiecewise_construct_t@1@$$QAV?$tuple@ABE@1@$$QAV?$tuple@$$V@1@@Z DD 019930522H
	DD	02H
	DD	FLAT:__unwindtable$??$?0ABUpiecewise_construct_t@std@@V?$tuple@ABE@1@V?$tuple@$$V@1@@?$_Tree_temp_node@V?$allocator@U?$_Tree_node@U?$pair@$$CBEPAVCCamera@@@std@@PAX@std@@@std@@@std@@QAE@AAV?$allocator@U?$_Tree_node@U?$pair@$$CBEPAVCCamera@@@std@@PAX@std@@@1@PAU?$_Tree_node@U?$pair@$$CBEPAVCCamera@@@std@@PAX@1@ABUpiecewise_construct_t@1@$$QAV?$tuple@ABE@1@$$QAV?$tuple@$$V@1@@Z
	DD	2 DUP(00H)
	DD	2 DUP(00H)
	DD	00H
	DD	01H
xdata$x	ENDS
;	COMDAT xdata$x
xdata$x	SEGMENT
__unwindtable$?AddCamera@CCameraManager@@QAE_NE@Z DD 0ffffffffH
	DD	FLAT:__unwindfunclet$?AddCamera@CCameraManager@@QAE_NE@Z$0
__ehfuncinfo$?AddCamera@CCameraManager@@QAE_NE@Z DD 019930522H
	DD	01H
	DD	FLAT:__unwindtable$?AddCamera@CCameraManager@@QAE_NE@Z
	DD	2 DUP(00H)
	DD	2 DUP(00H)
	DD	00H
	DD	01H
xdata$x	ENDS
;	COMDAT xdata$x
xdata$x	SEGMENT
__unwindtable$??0CCameraManager@@QAE@XZ DD 0ffffffffH
	DD	FLAT:__unwindfunclet$??0CCameraManager@@QAE@XZ$0
	DD	00H
	DD	FLAT:__unwindfunclet$??0CCameraManager@@QAE@XZ$1
__ehfuncinfo$??0CCameraManager@@QAE@XZ DD 019930522H
	DD	02H
	DD	FLAT:__unwindtable$??0CCameraManager@@QAE@XZ
	DD	2 DUP(00H)
	DD	2 DUP(00H)
	DD	00H
	DD	01H
xdata$x	ENDS
;	COMDAT xdata$x
xdata$x	SEGMENT
__ehfuncinfo$??$_Deallocate@$07$0A@@std@@YAXPAXI@Z DD 019930522H
	DD	00H
	DD	00H
	DD	2 DUP(00H)
	DD	2 DUP(00H)
	DD	00H
	DD	05H
xdata$x	ENDS
; Function compile flags: /Odspy
; File C:\Program Files (x86)\Microsoft Visual Studio\2019\Community\VC\Tools\MSVC\14.28.29333\include\xmemory
; File C:\Program Files (x86)\Microsoft Visual Studio\2019\Community\VC\Tools\MSVC\14.28.29333\include\xstddef
; File C:\Program Files (x86)\Microsoft Visual Studio\2019\Community\VC\Tools\MSVC\14.28.29333\include\vcruntime_new.h
; File C:\Program Files (x86)\Microsoft Visual Studio\2019\Community\VC\Tools\MSVC\14.28.29333\include\type_traits
; File C:\Program Files (x86)\Microsoft Visual Studio\2019\Community\VC\Tools\MSVC\14.28.29333\include\xmemory
;	COMDAT ??$_Construct_in_place@PAU?$_Tree_node@U?$pair@$$CBEPAVCCamera@@@std@@PAX@std@@AAPAU12@@std@@YAXAAPAU?$_Tree_node@U?$pair@$$CBEPAVCCamera@@@std@@PAX@0@0@Z
_TEXT	SEGMENT
$T1 = -12						; size = 4
$T2 = -8						; size = 4
$T3 = -4						; size = 4
__Obj$ = 8						; size = 4
_<_Args_0>$ = 12					; size = 4
??$_Construct_in_place@PAU?$_Tree_node@U?$pair@$$CBEPAVCCamera@@@std@@PAX@std@@AAPAU12@@std@@YAXAAPAU?$_Tree_node@U?$pair@$$CBEPAVCCamera@@@std@@PAX@0@0@Z PROC ; std::_Construct_in_place<std::_Tree_node<std::pair<unsigned char const ,CCamera *>,void *> *,std::_Tree_node<std::pair<unsigned char const ,CCamera *>,void *> * &>, COMDAT

; 228  : void _Construct_in_place(_Ty& _Obj, _Types&&... _Args) noexcept(is_nothrow_constructible_v<_Ty, _Types...>) {

  00000	55		 push	 ebp
  00001	8b ec		 mov	 ebp, esp
  00003	83 ec 0c	 sub	 esp, 12			; 0000000cH
; File C:\Program Files (x86)\Microsoft Visual Studio\2019\Community\VC\Tools\MSVC\14.28.29333\include\xstddef

; 275  :     return __builtin_addressof(_Val);

  00006	8b 45 08	 mov	 eax, DWORD PTR __Obj$[ebp]
  00009	89 45 fc	 mov	 DWORD PTR $T3[ebp], eax
; File C:\Program Files (x86)\Microsoft Visual Studio\2019\Community\VC\Tools\MSVC\14.28.29333\include\vcruntime_new.h

; 169  :         return _Where;

  0000c	8b 45 fc	 mov	 eax, DWORD PTR $T3[ebp]
  0000f	89 45 f8	 mov	 DWORD PTR $T2[ebp], eax
; File C:\Program Files (x86)\Microsoft Visual Studio\2019\Community\VC\Tools\MSVC\14.28.29333\include\type_traits

; 1443 :     return static_cast<_Ty&&>(_Arg);

  00012	8b 45 0c	 mov	 eax, DWORD PTR _<_Args_0>$[ebp]
  00015	89 45 f4	 mov	 DWORD PTR $T1[ebp], eax
; File C:\Program Files (x86)\Microsoft Visual Studio\2019\Community\VC\Tools\MSVC\14.28.29333\include\xmemory

; 229  :     ::new (const_cast<void*>(static_cast<const volatile void*>(_STD addressof(_Obj))))

  00018	8b 45 f8	 mov	 eax, DWORD PTR $T2[ebp]
  0001b	8b 4d f4	 mov	 ecx, DWORD PTR $T1[ebp]
  0001e	8b 09		 mov	 ecx, DWORD PTR [ecx]
  00020	89 08		 mov	 DWORD PTR [eax], ecx

; 230  :         _Ty(_STD forward<_Types>(_Args)...);
; 231  : }

  00022	c9		 leave
  00023	c3		 ret	 0
??$_Construct_in_place@PAU?$_Tree_node@U?$pair@$$CBEPAVCCamera@@@std@@PAX@std@@AAPAU12@@std@@YAXAAPAU?$_Tree_node@U?$pair@$$CBEPAVCCamera@@@std@@PAX@0@0@Z ENDP ; std::_Construct_in_place<std::_Tree_node<std::pair<unsigned char const ,CCamera *>,void *> *,std::_Tree_node<std::pair<unsigned char const ,CCamera *>,void *> * &>
_TEXT	ENDS
; Function compile flags: /Odspy
; File C:\Program Files (x86)\Microsoft Visual Studio\2019\Community\VC\Tools\MSVC\14.28.29333\include\xmemory
; File C:\Program Files (x86)\Microsoft Visual Studio\2019\Community\VC\Tools\MSVC\14.28.29333\include\vcruntime_new.h
; File C:\Program Files (x86)\Microsoft Visual Studio\2019\Community\VC\Tools\MSVC\14.28.29333\include\type_traits
; File C:\Program Files (x86)\Microsoft Visual Studio\2019\Community\VC\Tools\MSVC\14.28.29333\include\xmemory
; File C:\Program Files (x86)\Microsoft Visual Studio\2019\Community\VC\Tools\MSVC\14.28.29333\include\type_traits
; File C:\Program Files (x86)\Microsoft Visual Studio\2019\Community\VC\Tools\MSVC\14.28.29333\include\xmemory
; File D:\Metin2 Server Files\mainline\SRC_2014\Metin2Client\EterLib\Camera.cpp
; File C:\Program Files (x86)\Microsoft Visual Studio\2019\Community\VC\Tools\MSVC\14.28.29333\include\type_traits
; File C:\Program Files (x86)\Microsoft Visual Studio\2019\Community\VC\Tools\MSVC\14.28.29333\include\xmemory
; File C:\Program Files (x86)\Microsoft Visual Studio\2019\Community\VC\Tools\MSVC\14.28.29333\include\tuple
; File C:\Program Files (x86)\Microsoft Visual Studio\2019\Community\VC\Tools\MSVC\14.28.29333\include\type_traits
; File C:\Program Files (x86)\Microsoft Visual Studio\2019\Community\VC\Tools\MSVC\14.28.29333\include\tuple
; File C:\Program Files (x86)\Microsoft Visual Studio\2019\Community\VC\Tools\MSVC\14.28.29333\include\xmemory
;	COMDAT ??$construct@U?$pair@$$CBEPAVCCamera@@@std@@ABUpiecewise_construct_t@2@V?$tuple@ABE@2@V?$tuple@$$V@2@@?$_Default_allocator_traits@V?$allocator@U?$_Tree_node@U?$pair@$$CBEPAVCCamera@@@std@@PAX@std@@@std@@@std@@SAXAAV?$allocator@U?$_Tree_node@U?$pair@$$CBEPAVCCamera@@@std@@PAX@std@@@1@QAU?$pair@$$CBEPAVCCamera@@@1@ABUpiecewise_construct_t@1@$$QAV?$tuple@ABE@1@$$QAV?$tuple@$$V@1@@Z
_TEXT	SEGMENT
_this$ = -52						; size = 4
$T1 = -48						; size = 4
$T2 = -44						; size = 4
$T3 = -40						; size = 4
$T4 = -36						; size = 4
$T5 = -32						; size = 4
_this$ = -28						; size = 4
$T6 = -24						; size = 4
$T7 = -20						; size = 4
___formal$ = -16					; size = 1
___formal$ = -12					; size = 1
___formal$ = -8						; size = 1
$T8 = -3						; size = 1
$T9 = -2						; size = 1
$T10 = -1						; size = 1
___formal$ = 8						; size = 4
__Ptr$ = 12						; size = 4
_<_Args_0>$ = 16					; size = 4
_<_Args_1>$ = 20					; size = 4
_<_Args_2>$ = 24					; size = 4
??$construct@U?$pair@$$CBEPAVCCamera@@@std@@ABUpiecewise_construct_t@2@V?$tuple@ABE@2@V?$tuple@$$V@2@@?$_Default_allocator_traits@V?$allocator@U?$_Tree_node@U?$pair@$$CBEPAVCCamera@@@std@@PAX@std@@@std@@@std@@SAXAAV?$allocator@U?$_Tree_node@U?$pair@$$CBEPAVCCamera@@@std@@PAX@std@@@1@QAU?$pair@$$CBEPAVCCamera@@@1@ABUpiecewise_construct_t@1@$$QAV?$tuple@ABE@1@$$QAV?$tuple@$$V@1@@Z PROC ; std::_Default_allocator_traits<std::allocator<std::_Tree_node<std::pair<unsigned char const ,CCamera *>,void *> > >::construct<std::pair<unsigned char const ,CCamera *>,std::piecewise_construct_t const &,std::tuple<unsigned char const &>,std::tuple<> >, COMDAT

; 700  :     static void construct(_Alloc&, _Objty* const _Ptr, _Types&&... _Args) {

  00000	55		 push	 ebp
  00001	8b ec		 mov	 ebp, esp
  00003	83 ec 34	 sub	 esp, 52			; 00000034H
; File C:\Program Files (x86)\Microsoft Visual Studio\2019\Community\VC\Tools\MSVC\14.28.29333\include\vcruntime_new.h

; 169  :         return _Where;

  00006	8b 45 0c	 mov	 eax, DWORD PTR __Ptr$[ebp]
  00009	89 45 ec	 mov	 DWORD PTR $T7[ebp], eax
; File C:\Program Files (x86)\Microsoft Visual Studio\2019\Community\VC\Tools\MSVC\14.28.29333\include\type_traits

; 1443 :     return static_cast<_Ty&&>(_Arg);

  0000c	8b 45 18	 mov	 eax, DWORD PTR _<_Args_2>$[ebp]
  0000f	89 45 d0	 mov	 DWORD PTR $T1[ebp], eax
; File C:\Program Files (x86)\Microsoft Visual Studio\2019\Community\VC\Tools\MSVC\14.28.29333\include\xmemory

; 701  :         ::new (const_cast<void*>(static_cast<const volatile void*>(_Ptr))) _Objty(_STD forward<_Types>(_Args)...);

  00012	8d 45 fd	 lea	 eax, DWORD PTR $T8[ebp]
  00015	89 45 cc	 mov	 DWORD PTR _this$[ebp], eax
; File C:\Program Files (x86)\Microsoft Visual Studio\2019\Community\VC\Tools\MSVC\14.28.29333\include\type_traits

; 1443 :     return static_cast<_Ty&&>(_Arg);

  00018	8b 45 14	 mov	 eax, DWORD PTR _<_Args_1>$[ebp]
  0001b	89 45 e8	 mov	 DWORD PTR $T6[ebp], eax
; File C:\Program Files (x86)\Microsoft Visual Studio\2019\Community\VC\Tools\MSVC\14.28.29333\include\xmemory

; 701  :         ::new (const_cast<void*>(static_cast<const volatile void*>(_Ptr))) _Objty(_STD forward<_Types>(_Args)...);

  0001e	8d 45 dc	 lea	 eax, DWORD PTR $T4[ebp]
  00021	89 45 e4	 mov	 DWORD PTR _this$[ebp], eax
; File D:\Metin2 Server Files\mainline\SRC_2014\Metin2Client\EterLib\Camera.cpp

  00024	8b 45 e8	 mov	 eax, DWORD PTR $T6[ebp]
  00027	8b 00		 mov	 eax, DWORD PTR [eax]
  00029	8b 4d e4	 mov	 ecx, DWORD PTR _this$[ebp]
  0002c	89 01		 mov	 DWORD PTR [ecx], eax
; File C:\Program Files (x86)\Microsoft Visual Studio\2019\Community\VC\Tools\MSVC\14.28.29333\include\type_traits

; 1443 :     return static_cast<_Ty&&>(_Arg);

  0002e	8b 45 10	 mov	 eax, DWORD PTR _<_Args_0>$[ebp]
  00031	89 45 e0	 mov	 DWORD PTR $T5[ebp], eax
; File C:\Program Files (x86)\Microsoft Visual Studio\2019\Community\VC\Tools\MSVC\14.28.29333\include\xmemory

; 701  :         ::new (const_cast<void*>(static_cast<const volatile void*>(_Ptr))) _Objty(_STD forward<_Types>(_Args)...);

  00034	8b 45 e0	 mov	 eax, DWORD PTR $T5[ebp]
  00037	8a 00		 mov	 al, BYTE PTR [eax]
  00039	88 45 f8	 mov	 BYTE PTR ___formal$[ebp], al
; File C:\Program Files (x86)\Microsoft Visual Studio\2019\Community\VC\Tools\MSVC\14.28.29333\include\tuple

; 986  :     : pair(_Val1, _Val2, index_sequence_for<_Types1...>{}, index_sequence_for<_Types2...>{}) {}

  0003c	33 c0		 xor	 eax, eax
  0003e	88 45 ff	 mov	 BYTE PTR $T10[ebp], al
  00041	33 c0		 xor	 eax, eax
  00043	88 45 fe	 mov	 BYTE PTR $T9[ebp], al
  00046	8a 45 ff	 mov	 al, BYTE PTR $T10[ebp]
  00049	88 45 f4	 mov	 BYTE PTR ___formal$[ebp], al
  0004c	8a 45 fe	 mov	 al, BYTE PTR $T9[ebp]
  0004f	88 45 f0	 mov	 BYTE PTR ___formal$[ebp], al
; File C:\Program Files (x86)\Microsoft Visual Studio\2019\Community\VC\Tools\MSVC\14.28.29333\include\type_traits

; 1455 :     return static_cast<remove_reference_t<_Ty>&&>(_Arg);

  00052	8d 45 dc	 lea	 eax, DWORD PTR $T4[ebp]
  00055	89 45 d8	 mov	 DWORD PTR $T3[ebp], eax
; File C:\Program Files (x86)\Microsoft Visual Studio\2019\Community\VC\Tools\MSVC\14.28.29333\include\tuple

; 790  :     return static_cast<_Ty&&>(static_cast<_Ttype&>(_Tuple)._Myfirst._Val);

  00058	8b 45 d8	 mov	 eax, DWORD PTR $T3[ebp]
  0005b	8b 00		 mov	 eax, DWORD PTR [eax]
  0005d	89 45 d4	 mov	 DWORD PTR $T2[ebp], eax

; 980  :     : first(_STD get<_Indexes1>(_STD move(_Val1))...), second(_STD get<_Indexes2>(_STD move(_Val2))...) {}

  00060	8b 45 ec	 mov	 eax, DWORD PTR $T7[ebp]
  00063	8b 4d d4	 mov	 ecx, DWORD PTR $T2[ebp]
  00066	8a 09		 mov	 cl, BYTE PTR [ecx]
  00068	88 08		 mov	 BYTE PTR [eax], cl
  0006a	8b 45 ec	 mov	 eax, DWORD PTR $T7[ebp]
  0006d	83 60 04 00	 and	 DWORD PTR [eax+4], 0
; File C:\Program Files (x86)\Microsoft Visual Studio\2019\Community\VC\Tools\MSVC\14.28.29333\include\xmemory

; 702  :     }

  00071	c9		 leave
  00072	c3		 ret	 0
??$construct@U?$pair@$$CBEPAVCCamera@@@std@@ABUpiecewise_construct_t@2@V?$tuple@ABE@2@V?$tuple@$$V@2@@?$_Default_allocator_traits@V?$allocator@U?$_Tree_node@U?$pair@$$CBEPAVCCamera@@@std@@PAX@std@@@std@@@std@@SAXAAV?$allocator@U?$_Tree_node@U?$pair@$$CBEPAVCCamera@@@std@@PAX@std@@@1@QAU?$pair@$$CBEPAVCCamera@@@1@ABUpiecewise_construct_t@1@$$QAV?$tuple@ABE@1@$$QAV?$tuple@$$V@1@@Z ENDP ; std::_Default_allocator_traits<std::allocator<std::_Tree_node<std::pair<unsigned char const ,CCamera *>,void *> > >::construct<std::pair<unsigned char const ,CCamera *>,std::piecewise_construct_t const &,std::tuple<unsigned char const &>,std::tuple<> >
_TEXT	ENDS
; Function compile flags: /Odspy
; File C:\Program Files (x86)\Microsoft Visual Studio\2019\Community\VC\Tools\MSVC\14.28.29333\include\xtree
; File C:\Program Files (x86)\Microsoft Visual Studio\2019\Community\VC\Tools\MSVC\14.28.29333\include\xmemory
; File C:\Program Files (x86)\Microsoft Visual Studio\2019\Community\VC\Tools\MSVC\14.28.29333\include\xtree
; File C:\Program Files (x86)\Microsoft Visual Studio\2019\Community\VC\Tools\MSVC\14.28.29333\include\type_traits
; File C:\Program Files (x86)\Microsoft Visual Studio\2019\Community\VC\Tools\MSVC\14.28.29333\include\xtree
; File C:\Program Files (x86)\Microsoft Visual Studio\2019\Community\VC\Tools\MSVC\14.28.29333\include\xstddef
; File C:\Program Files (x86)\Microsoft Visual Studio\2019\Community\VC\Tools\MSVC\14.28.29333\include\xtree
; File C:\Program Files (x86)\Microsoft Visual Studio\2019\Community\VC\Tools\MSVC\14.28.29333\include\vcruntime_new.h
; File C:\Program Files (x86)\Microsoft Visual Studio\2019\Community\VC\Tools\MSVC\14.28.29333\include\type_traits
; File C:\Program Files (x86)\Microsoft Visual Studio\2019\Community\VC\Tools\MSVC\14.28.29333\include\xmemory
; File C:\Program Files (x86)\Microsoft Visual Studio\2019\Community\VC\Tools\MSVC\14.28.29333\include\xtree
;	COMDAT ??$?0U?$pair@$$CBEPAVCCamera@@@std@@@?$_Tree_temp_node@V?$allocator@U?$_Tree_node@U?$pair@$$CBEPAVCCamera@@@std@@PAX@std@@@std@@@std@@QAE@AAV?$allocator@U?$_Tree_node@U?$pair@$$CBEPAVCCamera@@@std@@PAX@std@@@1@PAU?$_Tree_node@U?$pair@$$CBEPAVCCamera@@@std@@PAX@1@$$QAU?$pair@$$CBEPAVCCamera@@@1@@Z
_TEXT	SEGMENT
___formal$ = -40					; size = 4
$T2 = -36						; size = 4
$T3 = -32						; size = 4
$T4 = -28						; size = 4
$T5 = -24						; size = 4
__Val$ = -20						; size = 4
_this$ = -16						; size = 4
__$EHRec$ = -12						; size = 12
__Al_$ = 8						; size = 4
__Myhead$ = 12						; size = 4
_<_Vals_0>$ = 16					; size = 4
??$?0U?$pair@$$CBEPAVCCamera@@@std@@@?$_Tree_temp_node@V?$allocator@U?$_Tree_node@U?$pair@$$CBEPAVCCamera@@@std@@PAX@std@@@std@@@std@@QAE@AAV?$allocator@U?$_Tree_node@U?$pair@$$CBEPAVCCamera@@@std@@PAX@std@@@1@PAU?$_Tree_node@U?$pair@$$CBEPAVCCamera@@@std@@PAX@1@$$QAU?$pair@$$CBEPAVCCamera@@@1@@Z PROC ; std::_Tree_temp_node<std::allocator<std::_Tree_node<std::pair<unsigned char const ,CCamera *>,void *> > >::_Tree_temp_node<std::allocator<std::_Tree_node<std::pair<unsigned char const ,CCamera *>,void *> > ><std::pair<unsigned char const ,CCamera *> >, COMDAT
; _this$ = ecx

; 805  :         : _Tree_temp_node_alloc<_Alnode>(_Al_) {

  00000	55		 push	 ebp
  00001	8b ec		 mov	 ebp, esp
  00003	6a ff		 push	 -1
  00005	68 00 00 00 00	 push	 __ehhandler$??$?0U?$pair@$$CBEPAVCCamera@@@std@@@?$_Tree_temp_node@V?$allocator@U?$_Tree_node@U?$pair@$$CBEPAVCCamera@@@std@@PAX@std@@@std@@@std@@QAE@AAV?$allocator@U?$_Tree_node@U?$pair@$$CBEPAVCCamera@@@std@@PAX@std@@@1@PAU?$_Tree_node@U?$pair@$$CBEPAVCCamera@@@std@@PAX@1@$$QAU?$pair@$$CBEPAVCCamera@@@1@@Z
  0000a	64 a1 00 00 00
	00		 mov	 eax, DWORD PTR fs:0
  00010	50		 push	 eax
  00011	83 ec 1c	 sub	 esp, 28			; 0000001cH
  00014	a1 00 00 00 00	 mov	 eax, DWORD PTR ___security_cookie
  00019	33 c5		 xor	 eax, ebp
  0001b	50		 push	 eax
  0001c	8d 45 f4	 lea	 eax, DWORD PTR __$EHRec$[ebp]
  0001f	64 a3 00 00 00
	00		 mov	 DWORD PTR fs:0, eax
  00025	89 4d f0	 mov	 DWORD PTR _this$[ebp], ecx
; File C:\Program Files (x86)\Microsoft Visual Studio\2019\Community\VC\Tools\MSVC\14.28.29333\include\xmemory

; 1045 :     explicit _Alloc_construct_ptr(_Alloc& _Al_) : _Al(_Al_), _Ptr(nullptr) {}

  00028	8b 45 f0	 mov	 eax, DWORD PTR _this$[ebp]
  0002b	8b 4d 08	 mov	 ecx, DWORD PTR __Al_$[ebp]
  0002e	89 08		 mov	 DWORD PTR [eax], ecx
  00030	8b 45 f0	 mov	 eax, DWORD PTR _this$[ebp]
  00033	83 60 04 00	 and	 DWORD PTR [eax+4], 0
; File C:\Program Files (x86)\Microsoft Visual Studio\2019\Community\VC\Tools\MSVC\14.28.29333\include\xtree

; 784  :     explicit _Tree_temp_node_alloc(_Alnode& _Al_) : _Alloc_construct_ptr<_Alnode>(_Al_) {

  00037	83 65 fc 00	 and	 DWORD PTR __$EHRec$[ebp+8], 0

; 785  :         _Alloc_construct_ptr<_Alnode>::_Allocate();

  0003b	8b 4d f0	 mov	 ecx, DWORD PTR _this$[ebp]
  0003e	e8 00 00 00 00	 call	 ?_Allocate@?$_Alloc_construct_ptr@V?$allocator@U?$_Tree_node@U?$pair@$$CBEPAVCCamera@@@std@@PAX@std@@@std@@@std@@QAEXXZ ; std::_Alloc_construct_ptr<std::allocator<std::_Tree_node<std::pair<unsigned char const ,CCamera *>,void *> > >::_Allocate

; 786  :     }

  00043	83 4d fc ff	 or	 DWORD PTR __$EHRec$[ebp+8], -1
; File C:\Program Files (x86)\Microsoft Visual Studio\2019\Community\VC\Tools\MSVC\14.28.29333\include\type_traits

; 1443 :     return static_cast<_Ty&&>(_Arg);

  00047	8b 45 10	 mov	 eax, DWORD PTR _<_Vals_0>$[ebp]
  0004a	89 45 e4	 mov	 DWORD PTR $T4[ebp], eax
; File C:\Program Files (x86)\Microsoft Visual Studio\2019\Community\VC\Tools\MSVC\14.28.29333\include\xtree

; 806  :         _Alnode_traits::construct(this->_Al, _STD addressof(this->_Ptr->_Myval), _STD forward<_Valtys>(_Vals)...);

  0004d	8b 45 f0	 mov	 eax, DWORD PTR _this$[ebp]
  00050	8b 40 04	 mov	 eax, DWORD PTR [eax+4]
  00053	83 c0 10	 add	 eax, 16			; 00000010H
  00056	89 45 ec	 mov	 DWORD PTR __Val$[ebp], eax
; File C:\Program Files (x86)\Microsoft Visual Studio\2019\Community\VC\Tools\MSVC\14.28.29333\include\xstddef

; 275  :     return __builtin_addressof(_Val);

  00059	8b 45 ec	 mov	 eax, DWORD PTR __Val$[ebp]
  0005c	89 45 e8	 mov	 DWORD PTR $T5[ebp], eax
; File C:\Program Files (x86)\Microsoft Visual Studio\2019\Community\VC\Tools\MSVC\14.28.29333\include\xtree

; 806  :         _Alnode_traits::construct(this->_Al, _STD addressof(this->_Ptr->_Myval), _STD forward<_Valtys>(_Vals)...);

  0005f	8b 45 f0	 mov	 eax, DWORD PTR _this$[ebp]
  00062	8b 00		 mov	 eax, DWORD PTR [eax]
  00064	89 45 d8	 mov	 DWORD PTR ___formal$[ebp], eax
; File C:\Program Files (x86)\Microsoft Visual Studio\2019\Community\VC\Tools\MSVC\14.28.29333\include\vcruntime_new.h

; 169  :         return _Where;

  00067	8b 45 e8	 mov	 eax, DWORD PTR $T5[ebp]
  0006a	89 45 dc	 mov	 DWORD PTR $T2[ebp], eax
; File C:\Program Files (x86)\Microsoft Visual Studio\2019\Community\VC\Tools\MSVC\14.28.29333\include\type_traits

; 1443 :     return static_cast<_Ty&&>(_Arg);

  0006d	8b 45 e4	 mov	 eax, DWORD PTR $T4[ebp]
  00070	89 45 e0	 mov	 DWORD PTR $T3[ebp], eax
; File C:\Program Files (x86)\Microsoft Visual Studio\2019\Community\VC\Tools\MSVC\14.28.29333\include\xmemory

; 701  :         ::new (const_cast<void*>(static_cast<const volatile void*>(_Ptr))) _Objty(_STD forward<_Types>(_Args)...);

  00073	8b 45 e0	 mov	 eax, DWORD PTR $T3[ebp]
  00076	8b 08		 mov	 ecx, DWORD PTR [eax]
  00078	8b 40 04	 mov	 eax, DWORD PTR [eax+4]
  0007b	8b 55 dc	 mov	 edx, DWORD PTR $T2[ebp]
  0007e	89 0a		 mov	 DWORD PTR [edx], ecx
  00080	89 42 04	 mov	 DWORD PTR [edx+4], eax
; File C:\Program Files (x86)\Microsoft Visual Studio\2019\Community\VC\Tools\MSVC\14.28.29333\include\xtree

; 807  :         _Construct_in_place(this->_Ptr->_Left, _Myhead);

  00083	8d 45 0c	 lea	 eax, DWORD PTR __Myhead$[ebp]
  00086	50		 push	 eax
  00087	8b 45 f0	 mov	 eax, DWORD PTR _this$[ebp]
  0008a	ff 70 04	 push	 DWORD PTR [eax+4]
  0008d	e8 00 00 00 00	 call	 ??$_Construct_in_place@PAU?$_Tree_node@U?$pair@$$CBEPAVCCamera@@@std@@PAX@std@@AAPAU12@@std@@YAXAAPAU?$_Tree_node@U?$pair@$$CBEPAVCCamera@@@std@@PAX@0@0@Z ; std::_Construct_in_place<std::_Tree_node<std::pair<unsigned char const ,CCamera *>,void *> *,std::_Tree_node<std::pair<unsigned char const ,CCamera *>,void *> * &>
  00092	59		 pop	 ecx
  00093	59		 pop	 ecx

; 808  :         _Construct_in_place(this->_Ptr->_Parent, _Myhead);

  00094	8d 45 0c	 lea	 eax, DWORD PTR __Myhead$[ebp]
  00097	50		 push	 eax
  00098	8b 45 f0	 mov	 eax, DWORD PTR _this$[ebp]
  0009b	8b 40 04	 mov	 eax, DWORD PTR [eax+4]
  0009e	83 c0 04	 add	 eax, 4
  000a1	50		 push	 eax
  000a2	e8 00 00 00 00	 call	 ??$_Construct_in_place@PAU?$_Tree_node@U?$pair@$$CBEPAVCCamera@@@std@@PAX@std@@AAPAU12@@std@@YAXAAPAU?$_Tree_node@U?$pair@$$CBEPAVCCamera@@@std@@PAX@0@0@Z ; std::_Construct_in_place<std::_Tree_node<std::pair<unsigned char const ,CCamera *>,void *> *,std::_Tree_node<std::pair<unsigned char const ,CCamera *>,void *> * &>
  000a7	59		 pop	 ecx
  000a8	59		 pop	 ecx

; 809  :         _Construct_in_place(this->_Ptr->_Right, _Myhead);

  000a9	8d 45 0c	 lea	 eax, DWORD PTR __Myhead$[ebp]
  000ac	50		 push	 eax
  000ad	8b 45 f0	 mov	 eax, DWORD PTR _this$[ebp]
  000b0	8b 40 04	 mov	 eax, DWORD PTR [eax+4]
  000b3	83 c0 08	 add	 eax, 8
  000b6	50		 push	 eax
  000b7	e8 00 00 00 00	 call	 ??$_Construct_in_place@PAU?$_Tree_node@U?$pair@$$CBEPAVCCamera@@@std@@PAX@std@@AAPAU12@@std@@YAXAAPAU?$_Tree_node@U?$pair@$$CBEPAVCCamera@@@std@@PAX@0@0@Z ; std::_Construct_in_place<std::_Tree_node<std::pair<unsigned char const ,CCamera *>,void *> *,std::_Tree_node<std::pair<unsigned char const ,CCamera *>,void *> * &>
  000bc	59		 pop	 ecx
  000bd	59		 pop	 ecx

; 810  :         this->_Ptr->_Color = _Red;

  000be	8b 45 f0	 mov	 eax, DWORD PTR _this$[ebp]
  000c1	8b 40 04	 mov	 eax, DWORD PTR [eax+4]
  000c4	c6 40 0c 00	 mov	 BYTE PTR [eax+12], 0

; 811  :         this->_Ptr->_Isnil = false;

  000c8	8b 45 f0	 mov	 eax, DWORD PTR _this$[ebp]
  000cb	8b 40 04	 mov	 eax, DWORD PTR [eax+4]
  000ce	c6 40 0d 00	 mov	 BYTE PTR [eax+13], 0

; 812  :     }

  000d2	8b 45 f0	 mov	 eax, DWORD PTR _this$[ebp]
  000d5	8b 4d f4	 mov	 ecx, DWORD PTR __$EHRec$[ebp]
  000d8	64 89 0d 00 00
	00 00		 mov	 DWORD PTR fs:0, ecx
  000df	59		 pop	 ecx
  000e0	c9		 leave
  000e1	c2 0c 00	 ret	 12			; 0000000cH
_TEXT	ENDS
;	COMDAT text$x
text$x	SEGMENT
__unwindfunclet$??$?0U?$pair@$$CBEPAVCCamera@@@std@@@?$_Tree_temp_node@V?$allocator@U?$_Tree_node@U?$pair@$$CBEPAVCCamera@@@std@@PAX@std@@@std@@@std@@QAE@AAV?$allocator@U?$_Tree_node@U?$pair@$$CBEPAVCCamera@@@std@@PAX@std@@@1@PAU?$_Tree_node@U?$pair@$$CBEPAVCCamera@@@std@@PAX@1@$$QAU?$pair@$$CBEPAVCCamera@@@1@@Z$1:
  00000	8b 4d f0	 mov	 ecx, DWORD PTR _this$[ebp]
  00003	e9 00 00 00 00	 jmp	 ??1?$_Alloc_construct_ptr@V?$allocator@U?$_Tree_node@U?$pair@$$CBEPAVCCamera@@@std@@PAX@std@@@std@@@std@@QAE@XZ ; std::_Alloc_construct_ptr<std::allocator<std::_Tree_node<std::pair<unsigned char const ,CCamera *>,void *> > >::~_Alloc_construct_ptr<std::allocator<std::_Tree_node<std::pair<unsigned char const ,CCamera *>,void *> > >
  00008	cc		 int	 3
  00009	cc		 int	 3
  0000a	cc		 int	 3
  0000b	cc		 int	 3
  0000c	cc		 int	 3
__ehhandler$??$?0U?$pair@$$CBEPAVCCamera@@@std@@@?$_Tree_temp_node@V?$allocator@U?$_Tree_node@U?$pair@$$CBEPAVCCamera@@@std@@PAX@std@@@std@@@std@@QAE@AAV?$allocator@U?$_Tree_node@U?$pair@$$CBEPAVCCamera@@@std@@PAX@std@@@1@PAU?$_Tree_node@U?$pair@$$CBEPAVCCamera@@@std@@PAX@1@$$QAU?$pair@$$CBEPAVCCamera@@@1@@Z:
  0000d	90		 npad	 1
  0000e	90		 npad	 1
  0000f	8b 54 24 08	 mov	 edx, DWORD PTR [esp+8]
  00013	8d 42 0c	 lea	 eax, DWORD PTR [edx+12]
  00016	8b 4a e0	 mov	 ecx, DWORD PTR [edx-32]
  00019	33 c8		 xor	 ecx, eax
  0001b	e8 00 00 00 00	 call	 @__security_check_cookie@4
  00020	b8 00 00 00 00	 mov	 eax, OFFSET __ehfuncinfo$??$?0U?$pair@$$CBEPAVCCamera@@@std@@@?$_Tree_temp_node@V?$allocator@U?$_Tree_node@U?$pair@$$CBEPAVCCamera@@@std@@PAX@std@@@std@@@std@@QAE@AAV?$allocator@U?$_Tree_node@U?$pair@$$CBEPAVCCamera@@@std@@PAX@std@@@1@PAU?$_Tree_node@U?$pair@$$CBEPAVCCamera@@@std@@PAX@1@$$QAU?$pair@$$CBEPAVCCamera@@@1@@Z
  00025	e9 00 00 00 00	 jmp	 ___CxxFrameHandler3
text$x	ENDS
??$?0U?$pair@$$CBEPAVCCamera@@@std@@@?$_Tree_temp_node@V?$allocator@U?$_Tree_node@U?$pair@$$CBEPAVCCamera@@@std@@PAX@std@@@std@@@std@@QAE@AAV?$allocator@U?$_Tree_node@U?$pair@$$CBEPAVCCamera@@@std@@PAX@std@@@1@PAU?$_Tree_node@U?$pair@$$CBEPAVCCamera@@@std@@PAX@1@$$QAU?$pair@$$CBEPAVCCamera@@@1@@Z ENDP ; std::_Tree_temp_node<std::allocator<std::_Tree_node<std::pair<unsigned char const ,CCamera *>,void *> > >::_Tree_temp_node<std::allocator<std::_Tree_node<std::pair<unsigned char const ,CCamera *>,void *> > ><std::pair<unsigned char const ,CCamera *> >
; Function compile flags: /Odspy
; File C:\Program Files (x86)\Microsoft Visual Studio\2019\Community\VC\Tools\MSVC\14.28.29333\include\xmemory
;	COMDAT ??$_Destroy_in_place@PAU?$_Tree_node@U?$pair@$$CBEPAVCCamera@@@std@@PAX@std@@@std@@YAXAAPAU?$_Tree_node@U?$pair@$$CBEPAVCCamera@@@std@@PAX@0@@Z
_TEXT	SEGMENT
__Obj$ = 8						; size = 4
??$_Destroy_in_place@PAU?$_Tree_node@U?$pair@$$CBEPAVCCamera@@@std@@PAX@std@@@std@@YAXAAPAU?$_Tree_node@U?$pair@$$CBEPAVCCamera@@@std@@PAX@0@@Z PROC ; std::_Destroy_in_place<std::_Tree_node<std::pair<unsigned char const ,CCamera *>,void *> *>, COMDAT

; 270  : /* _CONSTEXPR20_DYNALLOC */ void _Destroy_in_place(_Ty& _Obj) noexcept {

  00000	55		 push	 ebp
  00001	8b ec		 mov	 ebp, esp

; 271  : #if _HAS_IF_CONSTEXPR
; 272  :     if constexpr (is_array_v<_Ty>) {
; 273  :         _Destroy_range(_Obj, _Obj + extent_v<_Ty>);
; 274  :     } else
; 275  : #endif // _HAS_IF_CONSTEXPR
; 276  :     {
; 277  :         _Obj.~_Ty();
; 278  :     }
; 279  : }

  00003	5d		 pop	 ebp
  00004	c3		 ret	 0
??$_Destroy_in_place@PAU?$_Tree_node@U?$pair@$$CBEPAVCCamera@@@std@@PAX@std@@@std@@YAXAAPAU?$_Tree_node@U?$pair@$$CBEPAVCCamera@@@std@@PAX@0@@Z ENDP ; std::_Destroy_in_place<std::_Tree_node<std::pair<unsigned char const ,CCamera *>,void *> *>
_TEXT	ENDS
; Function compile flags: /Odspy
; File C:\Program Files (x86)\Microsoft Visual Studio\2019\Community\VC\Tools\MSVC\14.28.29333\include\xmemory
; File C:\Program Files (x86)\Microsoft Visual Studio\2019\Community\VC\Tools\MSVC\14.28.29333\include\xstddef
; File C:\Program Files (x86)\Microsoft Visual Studio\2019\Community\VC\Tools\MSVC\14.28.29333\include\vcruntime_new.h
; File C:\Program Files (x86)\Microsoft Visual Studio\2019\Community\VC\Tools\MSVC\14.28.29333\include\type_traits
; File C:\Program Files (x86)\Microsoft Visual Studio\2019\Community\VC\Tools\MSVC\14.28.29333\include\xmemory
;	COMDAT ??$_Construct_in_place@PAU?$_Tree_node@U?$pair@$$CBEPAVCCamera@@@std@@PAX@std@@ABQAU12@@std@@YAXAAPAU?$_Tree_node@U?$pair@$$CBEPAVCCamera@@@std@@PAX@0@ABQAU10@@Z
_TEXT	SEGMENT
$T1 = -12						; size = 4
$T2 = -8						; size = 4
$T3 = -4						; size = 4
__Obj$ = 8						; size = 4
_<_Args_0>$ = 12					; size = 4
??$_Construct_in_place@PAU?$_Tree_node@U?$pair@$$CBEPAVCCamera@@@std@@PAX@std@@ABQAU12@@std@@YAXAAPAU?$_Tree_node@U?$pair@$$CBEPAVCCamera@@@std@@PAX@0@ABQAU10@@Z PROC ; std::_Construct_in_place<std::_Tree_node<std::pair<unsigned char const ,CCamera *>,void *> *,std::_Tree_node<std::pair<unsigned char const ,CCamera *>,void *> * const &>, COMDAT

; 228  : void _Construct_in_place(_Ty& _Obj, _Types&&... _Args) noexcept(is_nothrow_constructible_v<_Ty, _Types...>) {

  00000	55		 push	 ebp
  00001	8b ec		 mov	 ebp, esp
  00003	83 ec 0c	 sub	 esp, 12			; 0000000cH
; File C:\Program Files (x86)\Microsoft Visual Studio\2019\Community\VC\Tools\MSVC\14.28.29333\include\xstddef

; 275  :     return __builtin_addressof(_Val);

  00006	8b 45 08	 mov	 eax, DWORD PTR __Obj$[ebp]
  00009	89 45 fc	 mov	 DWORD PTR $T3[ebp], eax
; File C:\Program Files (x86)\Microsoft Visual Studio\2019\Community\VC\Tools\MSVC\14.28.29333\include\vcruntime_new.h

; 169  :         return _Where;

  0000c	8b 45 fc	 mov	 eax, DWORD PTR $T3[ebp]
  0000f	89 45 f8	 mov	 DWORD PTR $T2[ebp], eax
; File C:\Program Files (x86)\Microsoft Visual Studio\2019\Community\VC\Tools\MSVC\14.28.29333\include\type_traits

; 1443 :     return static_cast<_Ty&&>(_Arg);

  00012	8b 45 0c	 mov	 eax, DWORD PTR _<_Args_0>$[ebp]
  00015	89 45 f4	 mov	 DWORD PTR $T1[ebp], eax
; File C:\Program Files (x86)\Microsoft Visual Studio\2019\Community\VC\Tools\MSVC\14.28.29333\include\xmemory

; 229  :     ::new (const_cast<void*>(static_cast<const volatile void*>(_STD addressof(_Obj))))

  00018	8b 45 f8	 mov	 eax, DWORD PTR $T2[ebp]
  0001b	8b 4d f4	 mov	 ecx, DWORD PTR $T1[ebp]
  0001e	8b 09		 mov	 ecx, DWORD PTR [ecx]
  00020	89 08		 mov	 DWORD PTR [eax], ecx

; 230  :         _Ty(_STD forward<_Types>(_Args)...);
; 231  : }

  00022	c9		 leave
  00023	c3		 ret	 0
??$_Construct_in_place@PAU?$_Tree_node@U?$pair@$$CBEPAVCCamera@@@std@@PAX@std@@ABQAU12@@std@@YAXAAPAU?$_Tree_node@U?$pair@$$CBEPAVCCamera@@@std@@PAX@0@ABQAU10@@Z ENDP ; std::_Construct_in_place<std::_Tree_node<std::pair<unsigned char const ,CCamera *>,void *> *,std::_Tree_node<std::pair<unsigned char const ,CCamera *>,void *> * const &>
_TEXT	ENDS
; Function compile flags: /Odspy
; File C:\Program Files (x86)\Microsoft Visual Studio\2019\Community\VC\Tools\MSVC\14.28.29333\include\xtree
; File C:\Program Files (x86)\Microsoft Visual Studio\2019\Community\VC\Tools\MSVC\14.28.29333\include\xmemory
; File C:\Program Files (x86)\Microsoft Visual Studio\2019\Community\VC\Tools\MSVC\14.28.29333\include\xtree
;	COMDAT ??$_Freenode0@V?$allocator@U?$_Tree_node@U?$pair@$$CBEPAVCCamera@@@std@@PAX@std@@@std@@@?$_Tree_node@U?$pair@$$CBEPAVCCamera@@@std@@PAX@std@@SAXAAV?$allocator@U?$_Tree_node@U?$pair@$$CBEPAVCCamera@@@std@@PAX@std@@@1@PAU01@@Z
_TEXT	SEGMENT
__Al$ = 8						; size = 4
__Ptr$ = 12						; size = 4
??$_Freenode0@V?$allocator@U?$_Tree_node@U?$pair@$$CBEPAVCCamera@@@std@@PAX@std@@@std@@@?$_Tree_node@U?$pair@$$CBEPAVCCamera@@@std@@PAX@std@@SAXAAV?$allocator@U?$_Tree_node@U?$pair@$$CBEPAVCCamera@@@std@@PAX@std@@@1@PAU01@@Z PROC ; std::_Tree_node<std::pair<unsigned char const ,CCamera *>,void *>::_Freenode0<std::allocator<std::_Tree_node<std::pair<unsigned char const ,CCamera *>,void *> > >, COMDAT

; 368  :     static void _Freenode0(_Alloc& _Al, _Nodeptr _Ptr) noexcept {

  00000	55		 push	 ebp
  00001	8b ec		 mov	 ebp, esp

; 369  :         static_assert(is_same_v<typename _Alloc::value_type, _Tree_node>, "Bad _Freenode0 call");
; 370  :         _Destroy_in_place(_Ptr->_Left);

  00003	ff 75 0c	 push	 DWORD PTR __Ptr$[ebp]
  00006	e8 00 00 00 00	 call	 ??$_Destroy_in_place@PAU?$_Tree_node@U?$pair@$$CBEPAVCCamera@@@std@@PAX@std@@@std@@YAXAAPAU?$_Tree_node@U?$pair@$$CBEPAVCCamera@@@std@@PAX@0@@Z ; std::_Destroy_in_place<std::_Tree_node<std::pair<unsigned char const ,CCamera *>,void *> *>
  0000b	59		 pop	 ecx

; 371  :         _Destroy_in_place(_Ptr->_Parent);

  0000c	8b 45 0c	 mov	 eax, DWORD PTR __Ptr$[ebp]
  0000f	83 c0 04	 add	 eax, 4
  00012	50		 push	 eax
  00013	e8 00 00 00 00	 call	 ??$_Destroy_in_place@PAU?$_Tree_node@U?$pair@$$CBEPAVCCamera@@@std@@PAX@std@@@std@@YAXAAPAU?$_Tree_node@U?$pair@$$CBEPAVCCamera@@@std@@PAX@0@@Z ; std::_Destroy_in_place<std::_Tree_node<std::pair<unsigned char const ,CCamera *>,void *> *>
  00018	59		 pop	 ecx

; 372  :         _Destroy_in_place(_Ptr->_Right);

  00019	8b 45 0c	 mov	 eax, DWORD PTR __Ptr$[ebp]
  0001c	83 c0 08	 add	 eax, 8
  0001f	50		 push	 eax
  00020	e8 00 00 00 00	 call	 ??$_Destroy_in_place@PAU?$_Tree_node@U?$pair@$$CBEPAVCCamera@@@std@@PAX@std@@@std@@YAXAAPAU?$_Tree_node@U?$pair@$$CBEPAVCCamera@@@std@@PAX@0@@Z ; std::_Destroy_in_place<std::_Tree_node<std::pair<unsigned char const ,CCamera *>,void *> *>
  00025	59		 pop	 ecx
; File C:\Program Files (x86)\Microsoft Visual Studio\2019\Community\VC\Tools\MSVC\14.28.29333\include\xmemory

; 696  :         _Deallocate<_New_alignof<value_type>>(_Ptr, sizeof(value_type) * _Count);

  00026	33 c0		 xor	 eax, eax
  00028	40		 inc	 eax
  00029	6b c0 18	 imul	 eax, eax, 24
  0002c	50		 push	 eax
  0002d	ff 75 0c	 push	 DWORD PTR __Ptr$[ebp]
  00030	e8 00 00 00 00	 call	 ??$_Deallocate@$07$0A@@std@@YAXPAXI@Z ; std::_Deallocate<8,0>
  00035	59		 pop	 ecx
  00036	59		 pop	 ecx
; File C:\Program Files (x86)\Microsoft Visual Studio\2019\Community\VC\Tools\MSVC\14.28.29333\include\xtree

; 374  :     }

  00037	5d		 pop	 ebp
  00038	c3		 ret	 0
??$_Freenode0@V?$allocator@U?$_Tree_node@U?$pair@$$CBEPAVCCamera@@@std@@PAX@std@@@std@@@?$_Tree_node@U?$pair@$$CBEPAVCCamera@@@std@@PAX@std@@SAXAAV?$allocator@U?$_Tree_node@U?$pair@$$CBEPAVCCamera@@@std@@PAX@std@@@1@PAU01@@Z ENDP ; std::_Tree_node<std::pair<unsigned char const ,CCamera *>,void *>::_Freenode0<std::allocator<std::_Tree_node<std::pair<unsigned char const ,CCamera *>,void *> > >
_TEXT	ENDS
; Function compile flags: /Odspy
; File C:\Program Files (x86)\Microsoft Visual Studio\2019\Community\VC\Tools\MSVC\14.28.29333\include\xtree
; File C:\Program Files (x86)\Microsoft Visual Studio\2019\Community\VC\Tools\MSVC\14.28.29333\include\xmemory
; File C:\Program Files (x86)\Microsoft Visual Studio\2019\Community\VC\Tools\MSVC\14.28.29333\include\xtree
; File C:\Program Files (x86)\Microsoft Visual Studio\2019\Community\VC\Tools\MSVC\14.28.29333\include\type_traits
; File C:\Program Files (x86)\Microsoft Visual Studio\2019\Community\VC\Tools\MSVC\14.28.29333\include\xtree
; File C:\Program Files (x86)\Microsoft Visual Studio\2019\Community\VC\Tools\MSVC\14.28.29333\include\xstddef
; File C:\Program Files (x86)\Microsoft Visual Studio\2019\Community\VC\Tools\MSVC\14.28.29333\include\xtree
;	COMDAT ??$?0ABUpiecewise_construct_t@std@@V?$tuple@ABE@1@V?$tuple@$$V@1@@?$_Tree_temp_node@V?$allocator@U?$_Tree_node@U?$pair@$$CBEPAVCCamera@@@std@@PAX@std@@@std@@@std@@QAE@AAV?$allocator@U?$_Tree_node@U?$pair@$$CBEPAVCCamera@@@std@@PAX@std@@@1@PAU?$_Tree_node@U?$pair@$$CBEPAVCCamera@@@std@@PAX@1@ABUpiecewise_construct_t@1@$$QAV?$tuple@ABE@1@$$QAV?$tuple@$$V@1@@Z
_TEXT	SEGMENT
$T2 = -36						; size = 4
$T3 = -32						; size = 4
$T4 = -28						; size = 4
$T5 = -24						; size = 4
__Val$ = -20						; size = 4
_this$ = -16						; size = 4
__$EHRec$ = -12						; size = 12
__Al_$ = 8						; size = 4
__Myhead$ = 12						; size = 4
_<_Vals_0>$ = 16					; size = 4
_<_Vals_1>$ = 20					; size = 4
_<_Vals_2>$ = 24					; size = 4
??$?0ABUpiecewise_construct_t@std@@V?$tuple@ABE@1@V?$tuple@$$V@1@@?$_Tree_temp_node@V?$allocator@U?$_Tree_node@U?$pair@$$CBEPAVCCamera@@@std@@PAX@std@@@std@@@std@@QAE@AAV?$allocator@U?$_Tree_node@U?$pair@$$CBEPAVCCamera@@@std@@PAX@std@@@1@PAU?$_Tree_node@U?$pair@$$CBEPAVCCamera@@@std@@PAX@1@ABUpiecewise_construct_t@1@$$QAV?$tuple@ABE@1@$$QAV?$tuple@$$V@1@@Z PROC ; std::_Tree_temp_node<std::allocator<std::_Tree_node<std::pair<unsigned char const ,CCamera *>,void *> > >::_Tree_temp_node<std::allocator<std::_Tree_node<std::pair<unsigned char const ,CCamera *>,void *> > ><std::piecewise_construct_t const &,std::tuple<unsigned char const &>,std::tuple<> >, COMDAT
; _this$ = ecx

; 805  :         : _Tree_temp_node_alloc<_Alnode>(_Al_) {

  00000	55		 push	 ebp
  00001	8b ec		 mov	 ebp, esp
  00003	6a ff		 push	 -1
  00005	68 00 00 00 00	 push	 __ehhandler$??$?0ABUpiecewise_construct_t@std@@V?$tuple@ABE@1@V?$tuple@$$V@1@@?$_Tree_temp_node@V?$allocator@U?$_Tree_node@U?$pair@$$CBEPAVCCamera@@@std@@PAX@std@@@std@@@std@@QAE@AAV?$allocator@U?$_Tree_node@U?$pair@$$CBEPAVCCamera@@@std@@PAX@std@@@1@PAU?$_Tree_node@U?$pair@$$CBEPAVCCamera@@@std@@PAX@1@ABUpiecewise_construct_t@1@$$QAV?$tuple@ABE@1@$$QAV?$tuple@$$V@1@@Z
  0000a	64 a1 00 00 00
	00		 mov	 eax, DWORD PTR fs:0
  00010	50		 push	 eax
  00011	83 ec 18	 sub	 esp, 24			; 00000018H
  00014	a1 00 00 00 00	 mov	 eax, DWORD PTR ___security_cookie
  00019	33 c5		 xor	 eax, ebp
  0001b	50		 push	 eax
  0001c	8d 45 f4	 lea	 eax, DWORD PTR __$EHRec$[ebp]
  0001f	64 a3 00 00 00
	00		 mov	 DWORD PTR fs:0, eax
  00025	89 4d f0	 mov	 DWORD PTR _this$[ebp], ecx
; File C:\Program Files (x86)\Microsoft Visual Studio\2019\Community\VC\Tools\MSVC\14.28.29333\include\xmemory

; 1045 :     explicit _Alloc_construct_ptr(_Alloc& _Al_) : _Al(_Al_), _Ptr(nullptr) {}

  00028	8b 45 f0	 mov	 eax, DWORD PTR _this$[ebp]
  0002b	8b 4d 08	 mov	 ecx, DWORD PTR __Al_$[ebp]
  0002e	89 08		 mov	 DWORD PTR [eax], ecx
  00030	8b 45 f0	 mov	 eax, DWORD PTR _this$[ebp]
  00033	83 60 04 00	 and	 DWORD PTR [eax+4], 0
; File C:\Program Files (x86)\Microsoft Visual Studio\2019\Community\VC\Tools\MSVC\14.28.29333\include\xtree

; 784  :     explicit _Tree_temp_node_alloc(_Alnode& _Al_) : _Alloc_construct_ptr<_Alnode>(_Al_) {

  00037	83 65 fc 00	 and	 DWORD PTR __$EHRec$[ebp+8], 0

; 785  :         _Alloc_construct_ptr<_Alnode>::_Allocate();

  0003b	8b 4d f0	 mov	 ecx, DWORD PTR _this$[ebp]
  0003e	e8 00 00 00 00	 call	 ?_Allocate@?$_Alloc_construct_ptr@V?$allocator@U?$_Tree_node@U?$pair@$$CBEPAVCCamera@@@std@@PAX@std@@@std@@@std@@QAEXXZ ; std::_Alloc_construct_ptr<std::allocator<std::_Tree_node<std::pair<unsigned char const ,CCamera *>,void *> > >::_Allocate

; 805  :         : _Tree_temp_node_alloc<_Alnode>(_Al_) {

  00043	c7 45 fc 01 00
	00 00		 mov	 DWORD PTR __$EHRec$[ebp+8], 1
; File C:\Program Files (x86)\Microsoft Visual Studio\2019\Community\VC\Tools\MSVC\14.28.29333\include\type_traits

; 1443 :     return static_cast<_Ty&&>(_Arg);

  0004a	8b 45 18	 mov	 eax, DWORD PTR _<_Vals_2>$[ebp]
  0004d	89 45 e8	 mov	 DWORD PTR $T5[ebp], eax
  00050	8b 45 14	 mov	 eax, DWORD PTR _<_Vals_1>$[ebp]
  00053	89 45 e4	 mov	 DWORD PTR $T4[ebp], eax
  00056	8b 45 10	 mov	 eax, DWORD PTR _<_Vals_0>$[ebp]
  00059	89 45 e0	 mov	 DWORD PTR $T3[ebp], eax
; File C:\Program Files (x86)\Microsoft Visual Studio\2019\Community\VC\Tools\MSVC\14.28.29333\include\xtree

; 806  :         _Alnode_traits::construct(this->_Al, _STD addressof(this->_Ptr->_Myval), _STD forward<_Valtys>(_Vals)...);

  0005c	8b 45 f0	 mov	 eax, DWORD PTR _this$[ebp]
  0005f	8b 40 04	 mov	 eax, DWORD PTR [eax+4]
  00062	83 c0 10	 add	 eax, 16			; 00000010H
  00065	89 45 ec	 mov	 DWORD PTR __Val$[ebp], eax
; File C:\Program Files (x86)\Microsoft Visual Studio\2019\Community\VC\Tools\MSVC\14.28.29333\include\xstddef

; 275  :     return __builtin_addressof(_Val);

  00068	8b 45 ec	 mov	 eax, DWORD PTR __Val$[ebp]
  0006b	89 45 dc	 mov	 DWORD PTR $T2[ebp], eax
; File C:\Program Files (x86)\Microsoft Visual Studio\2019\Community\VC\Tools\MSVC\14.28.29333\include\xtree

; 806  :         _Alnode_traits::construct(this->_Al, _STD addressof(this->_Ptr->_Myval), _STD forward<_Valtys>(_Vals)...);

  0006e	ff 75 e8	 push	 DWORD PTR $T5[ebp]
  00071	ff 75 e4	 push	 DWORD PTR $T4[ebp]
  00074	ff 75 e0	 push	 DWORD PTR $T3[ebp]
  00077	ff 75 dc	 push	 DWORD PTR $T2[ebp]
  0007a	8b 45 f0	 mov	 eax, DWORD PTR _this$[ebp]
  0007d	ff 30		 push	 DWORD PTR [eax]
  0007f	e8 00 00 00 00	 call	 ??$construct@U?$pair@$$CBEPAVCCamera@@@std@@ABUpiecewise_construct_t@2@V?$tuple@ABE@2@V?$tuple@$$V@2@@?$_Default_allocator_traits@V?$allocator@U?$_Tree_node@U?$pair@$$CBEPAVCCamera@@@std@@PAX@std@@@std@@@std@@SAXAAV?$allocator@U?$_Tree_node@U?$pair@$$CBEPAVCCamera@@@std@@PAX@std@@@1@QAU?$pair@$$CBEPAVCCamera@@@1@ABUpiecewise_construct_t@1@$$QAV?$tuple@ABE@1@$$QAV?$tuple@$$V@1@@Z ; std::_Default_allocator_traits<std::allocator<std::_Tree_node<std::pair<unsigned char const ,CCamera *>,void *> > >::construct<std::pair<unsigned char const ,CCamera *>,std::piecewise_construct_t const &,std::tuple<unsigned char const &>,std::tuple<> >
  00084	83 c4 14	 add	 esp, 20			; 00000014H

; 807  :         _Construct_in_place(this->_Ptr->_Left, _Myhead);

  00087	8d 45 0c	 lea	 eax, DWORD PTR __Myhead$[ebp]
  0008a	50		 push	 eax
  0008b	8b 45 f0	 mov	 eax, DWORD PTR _this$[ebp]
  0008e	ff 70 04	 push	 DWORD PTR [eax+4]
  00091	e8 00 00 00 00	 call	 ??$_Construct_in_place@PAU?$_Tree_node@U?$pair@$$CBEPAVCCamera@@@std@@PAX@std@@AAPAU12@@std@@YAXAAPAU?$_Tree_node@U?$pair@$$CBEPAVCCamera@@@std@@PAX@0@0@Z ; std::_Construct_in_place<std::_Tree_node<std::pair<unsigned char const ,CCamera *>,void *> *,std::_Tree_node<std::pair<unsigned char const ,CCamera *>,void *> * &>
  00096	59		 pop	 ecx
  00097	59		 pop	 ecx

; 808  :         _Construct_in_place(this->_Ptr->_Parent, _Myhead);

  00098	8d 45 0c	 lea	 eax, DWORD PTR __Myhead$[ebp]
  0009b	50		 push	 eax
  0009c	8b 45 f0	 mov	 eax, DWORD PTR _this$[ebp]
  0009f	8b 40 04	 mov	 eax, DWORD PTR [eax+4]
  000a2	83 c0 04	 add	 eax, 4
  000a5	50		 push	 eax
  000a6	e8 00 00 00 00	 call	 ??$_Construct_in_place@PAU?$_Tree_node@U?$pair@$$CBEPAVCCamera@@@std@@PAX@std@@AAPAU12@@std@@YAXAAPAU?$_Tree_node@U?$pair@$$CBEPAVCCamera@@@std@@PAX@0@0@Z ; std::_Construct_in_place<std::_Tree_node<std::pair<unsigned char const ,CCamera *>,void *> *,std::_Tree_node<std::pair<unsigned char const ,CCamera *>,void *> * &>
  000ab	59		 pop	 ecx
  000ac	59		 pop	 ecx

; 809  :         _Construct_in_place(this->_Ptr->_Right, _Myhead);

  000ad	8d 45 0c	 lea	 eax, DWORD PTR __Myhead$[ebp]
  000b0	50		 push	 eax
  000b1	8b 45 f0	 mov	 eax, DWORD PTR _this$[ebp]
  000b4	8b 40 04	 mov	 eax, DWORD PTR [eax+4]
  000b7	83 c0 08	 add	 eax, 8
  000ba	50		 push	 eax
  000bb	e8 00 00 00 00	 call	 ??$_Construct_in_place@PAU?$_Tree_node@U?$pair@$$CBEPAVCCamera@@@std@@PAX@std@@AAPAU12@@std@@YAXAAPAU?$_Tree_node@U?$pair@$$CBEPAVCCamera@@@std@@PAX@0@0@Z ; std::_Construct_in_place<std::_Tree_node<std::pair<unsigned char const ,CCamera *>,void *> *,std::_Tree_node<std::pair<unsigned char const ,CCamera *>,void *> * &>
  000c0	59		 pop	 ecx
  000c1	59		 pop	 ecx

; 810  :         this->_Ptr->_Color = _Red;

  000c2	8b 45 f0	 mov	 eax, DWORD PTR _this$[ebp]
  000c5	8b 40 04	 mov	 eax, DWORD PTR [eax+4]
  000c8	c6 40 0c 00	 mov	 BYTE PTR [eax+12], 0

; 811  :         this->_Ptr->_Isnil = false;

  000cc	8b 45 f0	 mov	 eax, DWORD PTR _this$[ebp]
  000cf	8b 40 04	 mov	 eax, DWORD PTR [eax+4]
  000d2	c6 40 0d 00	 mov	 BYTE PTR [eax+13], 0

; 812  :     }

  000d6	83 4d fc ff	 or	 DWORD PTR __$EHRec$[ebp+8], -1
  000da	8b 45 f0	 mov	 eax, DWORD PTR _this$[ebp]
  000dd	8b 4d f4	 mov	 ecx, DWORD PTR __$EHRec$[ebp]
  000e0	64 89 0d 00 00
	00 00		 mov	 DWORD PTR fs:0, ecx
  000e7	59		 pop	 ecx
  000e8	c9		 leave
  000e9	c2 14 00	 ret	 20			; 00000014H
_TEXT	ENDS
;	COMDAT text$x
text$x	SEGMENT
__unwindfunclet$??$?0ABUpiecewise_construct_t@std@@V?$tuple@ABE@1@V?$tuple@$$V@1@@?$_Tree_temp_node@V?$allocator@U?$_Tree_node@U?$pair@$$CBEPAVCCamera@@@std@@PAX@std@@@std@@@std@@QAE@AAV?$allocator@U?$_Tree_node@U?$pair@$$CBEPAVCCamera@@@std@@PAX@std@@@1@PAU?$_Tree_node@U?$pair@$$CBEPAVCCamera@@@std@@PAX@1@ABUpiecewise_construct_t@1@$$QAV?$tuple@ABE@1@$$QAV?$tuple@$$V@1@@Z$1:
  00000	8b 4d f0	 mov	 ecx, DWORD PTR _this$[ebp]
  00003	e9 00 00 00 00	 jmp	 ??1?$_Alloc_construct_ptr@V?$allocator@U?$_Tree_node@U?$pair@$$CBEPAVCCamera@@@std@@PAX@std@@@std@@@std@@QAE@XZ ; std::_Alloc_construct_ptr<std::allocator<std::_Tree_node<std::pair<unsigned char const ,CCamera *>,void *> > >::~_Alloc_construct_ptr<std::allocator<std::_Tree_node<std::pair<unsigned char const ,CCamera *>,void *> > >
__unwindfunclet$??$?0ABUpiecewise_construct_t@std@@V?$tuple@ABE@1@V?$tuple@$$V@1@@?$_Tree_temp_node@V?$allocator@U?$_Tree_node@U?$pair@$$CBEPAVCCamera@@@std@@PAX@std@@@std@@@std@@QAE@AAV?$allocator@U?$_Tree_node@U?$pair@$$CBEPAVCCamera@@@std@@PAX@std@@@1@PAU?$_Tree_node@U?$pair@$$CBEPAVCCamera@@@std@@PAX@1@ABUpiecewise_construct_t@1@$$QAV?$tuple@ABE@1@$$QAV?$tuple@$$V@1@@Z$0:
  00008	8b 4d f0	 mov	 ecx, DWORD PTR _this$[ebp]
  0000b	e9 00 00 00 00	 jmp	 ??1?$_Tree_temp_node_alloc@V?$allocator@U?$_Tree_node@U?$pair@$$CBEPAVCCamera@@@std@@PAX@std@@@std@@@std@@QAE@XZ
  00010	cc		 int	 3
  00011	cc		 int	 3
  00012	cc		 int	 3
  00013	cc		 int	 3
  00014	cc		 int	 3
__ehhandler$??$?0ABUpiecewise_construct_t@std@@V?$tuple@ABE@1@V?$tuple@$$V@1@@?$_Tree_temp_node@V?$allocator@U?$_Tree_node@U?$pair@$$CBEPAVCCamera@@@std@@PAX@std@@@std@@@std@@QAE@AAV?$allocator@U?$_Tree_node@U?$pair@$$CBEPAVCCamera@@@std@@PAX@std@@@1@PAU?$_Tree_node@U?$pair@$$CBEPAVCCamera@@@std@@PAX@1@ABUpiecewise_construct_t@1@$$QAV?$tuple@ABE@1@$$QAV?$tuple@$$V@1@@Z:
  00015	90		 npad	 1
  00016	90		 npad	 1
  00017	8b 54 24 08	 mov	 edx, DWORD PTR [esp+8]
  0001b	8d 42 0c	 lea	 eax, DWORD PTR [edx+12]
  0001e	8b 4a e4	 mov	 ecx, DWORD PTR [edx-28]
  00021	33 c8		 xor	 ecx, eax
  00023	e8 00 00 00 00	 call	 @__security_check_cookie@4
  00028	b8 00 00 00 00	 mov	 eax, OFFSET __ehfuncinfo$??$?0ABUpiecewise_construct_t@std@@V?$tuple@ABE@1@V?$tuple@$$V@1@@?$_Tree_temp_node@V?$allocator@U?$_Tree_node@U?$pair@$$CBEPAVCCamera@@@std@@PAX@std@@@std@@@std@@QAE@AAV?$allocator@U?$_Tree_node@U?$pair@$$CBEPAVCCamera@@@std@@PAX@std@@@1@PAU?$_Tree_node@U?$pair@$$CBEPAVCCamera@@@std@@PAX@1@ABUpiecewise_construct_t@1@$$QAV?$tuple@ABE@1@$$QAV?$tuple@$$V@1@@Z
  0002d	e9 00 00 00 00	 jmp	 ___CxxFrameHandler3
text$x	ENDS
??$?0ABUpiecewise_construct_t@std@@V?$tuple@ABE@1@V?$tuple@$$V@1@@?$_Tree_temp_node@V?$allocator@U?$_Tree_node@U?$pair@$$CBEPAVCCamera@@@std@@PAX@std@@@std@@@std@@QAE@AAV?$allocator@U?$_Tree_node@U?$pair@$$CBEPAVCCamera@@@std@@PAX@std@@@1@PAU?$_Tree_node@U?$pair@$$CBEPAVCCamera@@@std@@PAX@1@ABUpiecewise_construct_t@1@$$QAV?$tuple@ABE@1@$$QAV?$tuple@$$V@1@@Z ENDP ; std::_Tree_temp_node<std::allocator<std::_Tree_node<std::pair<unsigned char const ,CCamera *>,void *> > >::_Tree_temp_node<std::allocator<std::_Tree_node<std::pair<unsigned char const ,CCamera *>,void *> > ><std::piecewise_construct_t const &,std::tuple<unsigned char const &>,std::tuple<> >
; Function compile flags: /Odspy
; File C:\Program Files (x86)\Microsoft Visual Studio\2019\Community\VC\Tools\MSVC\14.28.29333\include\xtree
; File C:\Program Files (x86)\Microsoft Visual Studio\2019\Community\VC\Tools\MSVC\14.28.29333\include\xstddef
; File C:\Program Files (x86)\Microsoft Visual Studio\2019\Community\VC\Tools\MSVC\14.28.29333\include\xtree
;	COMDAT ??1?$_Tree_temp_node@V?$allocator@U?$_Tree_node@U?$pair@$$CBEPAVCCamera@@@std@@PAX@std@@@std@@@std@@QAE@XZ
_TEXT	SEGMENT
$T1 = -12						; size = 4
__Val$ = -8						; size = 4
_this$ = -4						; size = 4
??1?$_Tree_temp_node@V?$allocator@U?$_Tree_node@U?$pair@$$CBEPAVCCamera@@@std@@PAX@std@@@std@@@std@@QAE@XZ PROC ; std::_Tree_temp_node<std::allocator<std::_Tree_node<std::pair<unsigned char const ,CCamera *>,void *> > >::~_Tree_temp_node<std::allocator<std::_Tree_node<std::pair<unsigned char const ,CCamera *>,void *> > >, COMDAT
; _this$ = ecx

; 817  :     ~_Tree_temp_node() {

  00000	55		 push	 ebp
  00001	8b ec		 mov	 ebp, esp
  00003	83 ec 0c	 sub	 esp, 12			; 0000000cH
  00006	89 4d fc	 mov	 DWORD PTR _this$[ebp], ecx

; 818  :         if (this->_Ptr) {

  00009	8b 45 fc	 mov	 eax, DWORD PTR _this$[ebp]
  0000c	83 78 04 00	 cmp	 DWORD PTR [eax+4], 0
  00010	74 3e		 je	 SHORT $LN9@Tree_temp_

; 819  :             _Destroy_in_place(this->_Ptr->_Left);

  00012	8b 45 fc	 mov	 eax, DWORD PTR _this$[ebp]
  00015	ff 70 04	 push	 DWORD PTR [eax+4]
  00018	e8 00 00 00 00	 call	 ??$_Destroy_in_place@PAU?$_Tree_node@U?$pair@$$CBEPAVCCamera@@@std@@PAX@std@@@std@@YAXAAPAU?$_Tree_node@U?$pair@$$CBEPAVCCamera@@@std@@PAX@0@@Z ; std::_Destroy_in_place<std::_Tree_node<std::pair<unsigned char const ,CCamera *>,void *> *>
  0001d	59		 pop	 ecx

; 820  :             _Destroy_in_place(this->_Ptr->_Parent);

  0001e	8b 45 fc	 mov	 eax, DWORD PTR _this$[ebp]
  00021	8b 40 04	 mov	 eax, DWORD PTR [eax+4]
  00024	83 c0 04	 add	 eax, 4
  00027	50		 push	 eax
  00028	e8 00 00 00 00	 call	 ??$_Destroy_in_place@PAU?$_Tree_node@U?$pair@$$CBEPAVCCamera@@@std@@PAX@std@@@std@@YAXAAPAU?$_Tree_node@U?$pair@$$CBEPAVCCamera@@@std@@PAX@0@@Z ; std::_Destroy_in_place<std::_Tree_node<std::pair<unsigned char const ,CCamera *>,void *> *>
  0002d	59		 pop	 ecx

; 821  :             _Destroy_in_place(this->_Ptr->_Right);

  0002e	8b 45 fc	 mov	 eax, DWORD PTR _this$[ebp]
  00031	8b 40 04	 mov	 eax, DWORD PTR [eax+4]
  00034	83 c0 08	 add	 eax, 8
  00037	50		 push	 eax
  00038	e8 00 00 00 00	 call	 ??$_Destroy_in_place@PAU?$_Tree_node@U?$pair@$$CBEPAVCCamera@@@std@@PAX@std@@@std@@YAXAAPAU?$_Tree_node@U?$pair@$$CBEPAVCCamera@@@std@@PAX@0@@Z ; std::_Destroy_in_place<std::_Tree_node<std::pair<unsigned char const ,CCamera *>,void *> *>
  0003d	59		 pop	 ecx

; 822  :             _Alnode_traits::destroy(this->_Al, _STD addressof(this->_Ptr->_Myval));

  0003e	8b 45 fc	 mov	 eax, DWORD PTR _this$[ebp]
  00041	8b 40 04	 mov	 eax, DWORD PTR [eax+4]
  00044	83 c0 10	 add	 eax, 16			; 00000010H
  00047	89 45 f8	 mov	 DWORD PTR __Val$[ebp], eax
; File C:\Program Files (x86)\Microsoft Visual Studio\2019\Community\VC\Tools\MSVC\14.28.29333\include\xstddef

; 275  :     return __builtin_addressof(_Val);

  0004a	8b 45 f8	 mov	 eax, DWORD PTR __Val$[ebp]
  0004d	89 45 f4	 mov	 DWORD PTR $T1[ebp], eax
$LN9@Tree_temp_:
  00050	8b 4d fc	 mov	 ecx, DWORD PTR _this$[ebp]
  00053	e8 00 00 00 00	 call	 ??1?$_Alloc_construct_ptr@V?$allocator@U?$_Tree_node@U?$pair@$$CBEPAVCCamera@@@std@@PAX@std@@@std@@@std@@QAE@XZ ; std::_Alloc_construct_ptr<std::allocator<std::_Tree_node<std::pair<unsigned char const ,CCamera *>,void *> > >::~_Alloc_construct_ptr<std::allocator<std::_Tree_node<std::pair<unsigned char const ,CCamera *>,void *> > >
; File C:\Program Files (x86)\Microsoft Visual Studio\2019\Community\VC\Tools\MSVC\14.28.29333\include\xtree

; 824  :     }

  00058	c9		 leave
  00059	c3		 ret	 0
??1?$_Tree_temp_node@V?$allocator@U?$_Tree_node@U?$pair@$$CBEPAVCCamera@@@std@@PAX@std@@@std@@@std@@QAE@XZ ENDP ; std::_Tree_temp_node<std::allocator<std::_Tree_node<std::pair<unsigned char const ,CCamera *>,void *> > >::~_Tree_temp_node<std::allocator<std::_Tree_node<std::pair<unsigned char const ,CCamera *>,void *> > >
_TEXT	ENDS
; Function compile flags: /Odspy
;	COMDAT ??1?$_Tree_temp_node_alloc@V?$allocator@U?$_Tree_node@U?$pair@$$CBEPAVCCamera@@@std@@PAX@std@@@std@@@std@@QAE@XZ
_TEXT	SEGMENT
_this$ = -4						; size = 4
??1?$_Tree_temp_node_alloc@V?$allocator@U?$_Tree_node@U?$pair@$$CBEPAVCCamera@@@std@@PAX@std@@@std@@@std@@QAE@XZ PROC ; std::_Tree_temp_node_alloc<std::allocator<std::_Tree_node<std::pair<unsigned char const ,CCamera *>,void *> > >::~_Tree_temp_node_alloc<std::allocator<std::_Tree_node<std::pair<unsigned char const ,CCamera *>,void *> > >, COMDAT
; _this$ = ecx
  00000	55		 push	 ebp
  00001	8b ec		 mov	 ebp, esp
  00003	51		 push	 ecx
  00004	89 4d fc	 mov	 DWORD PTR _this$[ebp], ecx
  00007	8b 4d fc	 mov	 ecx, DWORD PTR _this$[ebp]
  0000a	e8 00 00 00 00	 call	 ??1?$_Alloc_construct_ptr@V?$allocator@U?$_Tree_node@U?$pair@$$CBEPAVCCamera@@@std@@PAX@std@@@std@@@std@@QAE@XZ ; std::_Alloc_construct_ptr<std::allocator<std::_Tree_node<std::pair<unsigned char const ,CCamera *>,void *> > >::~_Alloc_construct_ptr<std::allocator<std::_Tree_node<std::pair<unsigned char const ,CCamera *>,void *> > >
  0000f	c9		 leave
  00010	c3		 ret	 0
??1?$_Tree_temp_node_alloc@V?$allocator@U?$_Tree_node@U?$pair@$$CBEPAVCCamera@@@std@@PAX@std@@@std@@@std@@QAE@XZ ENDP ; std::_Tree_temp_node_alloc<std::allocator<std::_Tree_node<std::pair<unsigned char const ,CCamera *>,void *> > >::~_Tree_temp_node_alloc<std::allocator<std::_Tree_node<std::pair<unsigned char const ,CCamera *>,void *> > >
_TEXT	ENDS
; Function compile flags: /Odspy
; File C:\Program Files (x86)\Microsoft Visual Studio\2019\Community\VC\Tools\MSVC\14.28.29333\include\xmemory
;	COMDAT ??1?$_Alloc_construct_ptr@V?$allocator@U?$_Tree_node@U?$pair@$$CBEPAVCCamera@@@std@@PAX@std@@@std@@@std@@QAE@XZ
_TEXT	SEGMENT
_this$ = -12						; size = 4
__Ptr$ = -8						; size = 4
_this$ = -4						; size = 4
??1?$_Alloc_construct_ptr@V?$allocator@U?$_Tree_node@U?$pair@$$CBEPAVCCamera@@@std@@PAX@std@@@std@@@std@@QAE@XZ PROC ; std::_Alloc_construct_ptr<std::allocator<std::_Tree_node<std::pair<unsigned char const ,CCamera *>,void *> > >::~_Alloc_construct_ptr<std::allocator<std::_Tree_node<std::pair<unsigned char const ,CCamera *>,void *> > >, COMDAT
; _this$ = ecx

; 1056 :     ~_Alloc_construct_ptr() { // if this instance is engaged, deallocate storage

  00000	55		 push	 ebp
  00001	8b ec		 mov	 ebp, esp
  00003	83 ec 0c	 sub	 esp, 12			; 0000000cH
  00006	89 4d fc	 mov	 DWORD PTR _this$[ebp], ecx

; 1057 :         if (_Ptr) {

  00009	8b 45 fc	 mov	 eax, DWORD PTR _this$[ebp]
  0000c	83 78 04 00	 cmp	 DWORD PTR [eax+4], 0
  00010	74 22		 je	 SHORT $LN3@Alloc_cons

; 1058 :             _Al.deallocate(_Ptr, 1);

  00012	8b 45 fc	 mov	 eax, DWORD PTR _this$[ebp]
  00015	8b 40 04	 mov	 eax, DWORD PTR [eax+4]
  00018	89 45 f8	 mov	 DWORD PTR __Ptr$[ebp], eax
  0001b	8b 45 fc	 mov	 eax, DWORD PTR _this$[ebp]
  0001e	8b 00		 mov	 eax, DWORD PTR [eax]
  00020	89 45 f4	 mov	 DWORD PTR _this$[ebp], eax

; 810  :         _Deallocate<_New_alignof<_Ty>>(_Ptr, sizeof(_Ty) * _Count);

  00023	33 c0		 xor	 eax, eax
  00025	40		 inc	 eax
  00026	6b c0 18	 imul	 eax, eax, 24
  00029	50		 push	 eax
  0002a	ff 75 f8	 push	 DWORD PTR __Ptr$[ebp]
  0002d	e8 00 00 00 00	 call	 ??$_Deallocate@$07$0A@@std@@YAXPAXI@Z ; std::_Deallocate<8,0>
  00032	59		 pop	 ecx
  00033	59		 pop	 ecx
$LN3@Alloc_cons:

; 1059 :         }
; 1060 :     }

  00034	c9		 leave
  00035	c3		 ret	 0
??1?$_Alloc_construct_ptr@V?$allocator@U?$_Tree_node@U?$pair@$$CBEPAVCCamera@@@std@@PAX@std@@@std@@@std@@QAE@XZ ENDP ; std::_Alloc_construct_ptr<std::allocator<std::_Tree_node<std::pair<unsigned char const ,CCamera *>,void *> > >::~_Alloc_construct_ptr<std::allocator<std::_Tree_node<std::pair<unsigned char const ,CCamera *>,void *> > >
_TEXT	ENDS
; Function compile flags: /Odspy
; File C:\Program Files (x86)\Microsoft Visual Studio\2019\Community\VC\Tools\MSVC\14.28.29333\include\xmemory
;	COMDAT ?_Allocate@?$_Alloc_construct_ptr@V?$allocator@U?$_Tree_node@U?$pair@$$CBEPAVCCamera@@@std@@PAX@std@@@std@@@std@@QAEXXZ
_TEXT	SEGMENT
__Max_possible$1 = -24					; size = 4
_this$ = -20						; size = 4
$T2 = -16						; size = 4
$T3 = -12						; size = 4
_this$ = -8						; size = 4
__Overflow_is_possible$4 = -1				; size = 1
?_Allocate@?$_Alloc_construct_ptr@V?$allocator@U?$_Tree_node@U?$pair@$$CBEPAVCCamera@@@std@@PAX@std@@@std@@@std@@QAEXXZ PROC ; std::_Alloc_construct_ptr<std::allocator<std::_Tree_node<std::pair<unsigned char const ,CCamera *>,void *> > >::_Allocate, COMDAT
; _this$ = ecx

; 1051 :     void _Allocate() { // disengage *this, then allocate a new memory block

  00000	55		 push	 ebp
  00001	8b ec		 mov	 ebp, esp
  00003	83 ec 18	 sub	 esp, 24			; 00000018H
  00006	89 4d f8	 mov	 DWORD PTR _this$[ebp], ecx

; 1052 :         _Ptr = nullptr; // if allocate throws, prevents double-free

  00009	8b 45 f8	 mov	 eax, DWORD PTR _this$[ebp]
  0000c	83 60 04 00	 and	 DWORD PTR [eax+4], 0

; 1053 :         _Ptr = _Al.allocate(1);

  00010	8b 45 f8	 mov	 eax, DWORD PTR _this$[ebp]
  00013	8b 00		 mov	 eax, DWORD PTR [eax]
  00015	89 45 ec	 mov	 DWORD PTR _this$[ebp], eax

; 56   :     constexpr bool _Overflow_is_possible = _Ty_size > 1;

  00018	c6 45 ff 01	 mov	 BYTE PTR __Overflow_is_possible$4[ebp], 1

; 57   : 
; 58   :     if _CONSTEXPR_IF (_Overflow_is_possible) {
; 59   :         constexpr size_t _Max_possible = static_cast<size_t>(-1) / _Ty_size;

  0001c	c7 45 e8 aa aa
	aa 0a		 mov	 DWORD PTR __Max_possible$1[ebp], 178956970 ; 0aaaaaaaH

; 60   :         if (_Count > _Max_possible) {

  00023	33 c0		 xor	 eax, eax
  00025	40		 inc	 eax
  00026	3d aa aa aa 0a	 cmp	 eax, 178956970		; 0aaaaaaaH
  0002b	76 05		 jbe	 SHORT $LN6@Allocate

; 61   :             _Throw_bad_array_new_length(); // multiply overflow

  0002d	e8 00 00 00 00	 call	 ?_Throw_bad_array_new_length@std@@YAXXZ ; std::_Throw_bad_array_new_length
$LN6@Allocate:

; 62   :         }
; 63   :     }
; 64   : 
; 65   :     return _Count * _Ty_size;

  00032	33 c0		 xor	 eax, eax
  00034	40		 inc	 eax
  00035	6b c0 18	 imul	 eax, eax, 24
  00038	89 45 f4	 mov	 DWORD PTR $T3[ebp], eax

; 814  :         return static_cast<_Ty*>(_Allocate<_New_alignof<_Ty>>(_Get_size_of_n<sizeof(_Ty)>(_Count)));

  0003b	ff 75 f4	 push	 DWORD PTR $T3[ebp]
  0003e	e8 00 00 00 00	 call	 ??$_Allocate@$07U_Default_allocate_traits@std@@$0A@@std@@YAPAXI@Z ; std::_Allocate<8,std::_Default_allocate_traits,0>
  00043	59		 pop	 ecx
  00044	89 45 f0	 mov	 DWORD PTR $T2[ebp], eax

; 1053 :         _Ptr = _Al.allocate(1);

  00047	8b 45 f8	 mov	 eax, DWORD PTR _this$[ebp]
  0004a	8b 4d f0	 mov	 ecx, DWORD PTR $T2[ebp]
  0004d	89 48 04	 mov	 DWORD PTR [eax+4], ecx
$LN9@Allocate:

; 1054 :     }

  00050	c9		 leave
  00051	c3		 ret	 0
?_Allocate@?$_Alloc_construct_ptr@V?$allocator@U?$_Tree_node@U?$pair@$$CBEPAVCCamera@@@std@@PAX@std@@@std@@@std@@QAEXXZ ENDP ; std::_Alloc_construct_ptr<std::allocator<std::_Tree_node<std::pair<unsigned char const ,CCamera *>,void *> > >::_Allocate
_TEXT	ENDS
; Function compile flags: /Odspy
; File C:\Program Files (x86)\Microsoft Visual Studio\2019\Community\VC\Tools\MSVC\14.28.29333\include\xtree
; File C:\Program Files (x86)\Microsoft Visual Studio\2019\Community\VC\Tools\MSVC\14.28.29333\include\xmemory
; File C:\Program Files (x86)\Microsoft Visual Studio\2019\Community\VC\Tools\MSVC\14.28.29333\include\xtree
; File C:\Program Files (x86)\Microsoft Visual Studio\2019\Community\VC\Tools\MSVC\14.28.29333\include\xstddef
; File C:\Program Files (x86)\Microsoft Visual Studio\2019\Community\VC\Tools\MSVC\14.28.29333\include\xtree
;	COMDAT ??$_Lower_bound_duplicate@E@?$_Tree@V?$_Tmap_traits@EPAVCCamera@@U?$less@E@std@@V?$allocator@U?$pair@$$CBEPAVCCamera@@@std@@@3@$0A@@std@@@std@@IBE_NQAU?$_Tree_node@U?$pair@$$CBEPAVCCamera@@@std@@PAX@1@ABE@Z
_TEXT	SEGMENT
$T1 = -20						; size = 4
$T2 = -16						; size = 4
_this$ = -12						; size = 4
tv78 = -8						; size = 4
tv88 = -4						; size = 4
__Bound$ = 8						; size = 4
__Keyval$ = 12						; size = 4
??$_Lower_bound_duplicate@E@?$_Tree@V?$_Tmap_traits@EPAVCCamera@@U?$less@E@std@@V?$allocator@U?$pair@$$CBEPAVCCamera@@@std@@@3@$0A@@std@@@std@@IBE_NQAU?$_Tree_node@U?$pair@$$CBEPAVCCamera@@@std@@PAX@1@ABE@Z PROC ; std::_Tree<std::_Tmap_traits<unsigned char,CCamera *,std::less<unsigned char>,std::allocator<std::pair<unsigned char const ,CCamera *> >,0> >::_Lower_bound_duplicate<unsigned char>, COMDAT
; _this$ = ecx

; 1694 :     bool _Lower_bound_duplicate(const _Nodeptr _Bound, const _Keyty& _Keyval) const {

  00000	55		 push	 ebp
  00001	8b ec		 mov	 ebp, esp
  00003	83 ec 14	 sub	 esp, 20			; 00000014H
  00006	89 4d f4	 mov	 DWORD PTR _this$[ebp], ecx

; 1695 :         return !_Bound->_Isnil && !_DEBUG_LT_PRED(_Getcomp(), _Keyval, _Traits::_Kfn(_Bound->_Myval));

  00009	8b 45 08	 mov	 eax, DWORD PTR __Bound$[ebp]
  0000c	0f be 40 0d	 movsx	 eax, BYTE PTR [eax+13]
  00010	85 c0		 test	 eax, eax
  00012	75 3b		 jne	 SHORT $LN3@Lower_boun

; 2035 :         return _Mypair._Get_first();

  00014	8b 45 f4	 mov	 eax, DWORD PTR _this$[ebp]
; File C:\Program Files (x86)\Microsoft Visual Studio\2019\Community\VC\Tools\MSVC\14.28.29333\include\xmemory

; 1351 :         return *this;

  00017	89 45 f0	 mov	 DWORD PTR $T2[ebp], eax
; File C:\Program Files (x86)\Microsoft Visual Studio\2019\Community\VC\Tools\MSVC\14.28.29333\include\xtree

; 2035 :         return _Mypair._Get_first();

  0001a	8b 45 f0	 mov	 eax, DWORD PTR $T2[ebp]
  0001d	89 45 ec	 mov	 DWORD PTR $T1[ebp], eax
; File C:\Program Files (x86)\Microsoft Visual Studio\2019\Community\VC\Tools\MSVC\14.28.29333\include\xstddef

; 127  :         return _Left < _Right;

  00020	8b 45 0c	 mov	 eax, DWORD PTR __Keyval$[ebp]
  00023	0f b6 00	 movzx	 eax, BYTE PTR [eax]
  00026	8b 4d 08	 mov	 ecx, DWORD PTR __Bound$[ebp]
  00029	0f b6 49 10	 movzx	 ecx, BYTE PTR [ecx+16]
  0002d	3b c1		 cmp	 eax, ecx
  0002f	7d 09		 jge	 SHORT $LN15@Lower_boun
  00031	c7 45 fc 01 00
	00 00		 mov	 DWORD PTR tv88[ebp], 1
  00038	eb 04		 jmp	 SHORT $LN13@Lower_boun
$LN15@Lower_boun:
  0003a	83 65 fc 00	 and	 DWORD PTR tv88[ebp], 0
$LN13@Lower_boun:
; File C:\Program Files (x86)\Microsoft Visual Studio\2019\Community\VC\Tools\MSVC\14.28.29333\include\xtree

; 1695 :         return !_Bound->_Isnil && !_DEBUG_LT_PRED(_Getcomp(), _Keyval, _Traits::_Kfn(_Bound->_Myval));

  0003e	0f b6 45 fc	 movzx	 eax, BYTE PTR tv88[ebp]
  00042	85 c0		 test	 eax, eax
  00044	75 09		 jne	 SHORT $LN3@Lower_boun
  00046	c7 45 f8 01 00
	00 00		 mov	 DWORD PTR tv78[ebp], 1
  0004d	eb 04		 jmp	 SHORT $LN4@Lower_boun
$LN3@Lower_boun:
  0004f	83 65 f8 00	 and	 DWORD PTR tv78[ebp], 0
$LN4@Lower_boun:
  00053	8a 45 f8	 mov	 al, BYTE PTR tv78[ebp]

; 1696 :     }

  00056	c9		 leave
  00057	c2 08 00	 ret	 8
??$_Lower_bound_duplicate@E@?$_Tree@V?$_Tmap_traits@EPAVCCamera@@U?$less@E@std@@V?$allocator@U?$pair@$$CBEPAVCCamera@@@std@@@3@$0A@@std@@@std@@IBE_NQAU?$_Tree_node@U?$pair@$$CBEPAVCCamera@@@std@@PAX@1@ABE@Z ENDP ; std::_Tree<std::_Tmap_traits<unsigned char,CCamera *,std::less<unsigned char>,std::allocator<std::pair<unsigned char const ,CCamera *> >,0> >::_Lower_bound_duplicate<unsigned char>
_TEXT	ENDS
; Function compile flags: /Odspy
; File C:\Program Files (x86)\Microsoft Visual Studio\2019\Community\VC\Tools\MSVC\14.28.29333\include\xtree
; File C:\Program Files (x86)\Microsoft Visual Studio\2019\Community\VC\Tools\MSVC\14.28.29333\include\xstddef
; File C:\Program Files (x86)\Microsoft Visual Studio\2019\Community\VC\Tools\MSVC\14.28.29333\include\xtree
; File C:\Program Files (x86)\Microsoft Visual Studio\2019\Community\VC\Tools\MSVC\14.28.29333\include\xmemory
; File C:\Program Files (x86)\Microsoft Visual Studio\2019\Community\VC\Tools\MSVC\14.28.29333\include\xtree
; File C:\Program Files (x86)\Microsoft Visual Studio\2019\Community\VC\Tools\MSVC\14.28.29333\include\xstddef
; File C:\Program Files (x86)\Microsoft Visual Studio\2019\Community\VC\Tools\MSVC\14.28.29333\include\xtree
;	COMDAT ??$_Find_lower_bound@E@?$_Tree@V?$_Tmap_traits@EPAVCCamera@@U?$less@E@std@@V?$allocator@U?$pair@$$CBEPAVCCamera@@@std@@@3@$0A@@std@@@std@@IBE?AU?$_Tree_find_result@PAU?$_Tree_node@U?$pair@$$CBEPAVCCamera@@@std@@PAX@std@@@1@ABE@Z
_TEXT	SEGMENT
__Result$ = -40						; size = 12
$T1 = -28						; size = 4
$T2 = -24						; size = 4
$T3 = -20						; size = 4
tv95 = -16						; size = 4
_this$ = -12						; size = 4
__Scary$ = -8						; size = 4
__Trynode$ = -4						; size = 4
___$ReturnUdt$ = 8					; size = 4
__Keyval$ = 12						; size = 4
??$_Find_lower_bound@E@?$_Tree@V?$_Tmap_traits@EPAVCCamera@@U?$less@E@std@@V?$allocator@U?$pair@$$CBEPAVCCamera@@@std@@@3@$0A@@std@@@std@@IBE?AU?$_Tree_find_result@PAU?$_Tree_node@U?$pair@$$CBEPAVCCamera@@@std@@PAX@std@@@1@ABE@Z PROC ; std::_Tree<std::_Tmap_traits<unsigned char,CCamera *,std::less<unsigned char>,std::allocator<std::pair<unsigned char const ,CCamera *> >,0> >::_Find_lower_bound<unsigned char>, COMDAT
; _this$ = ecx

; 1699 :     _Tree_find_result<_Nodeptr> _Find_lower_bound(const _Keyty& _Keyval) const {

  00000	55		 push	 ebp
  00001	8b ec		 mov	 ebp, esp
  00003	83 ec 28	 sub	 esp, 40			; 00000028H
  00006	56		 push	 esi
  00007	57		 push	 edi
  00008	89 4d f4	 mov	 DWORD PTR _this$[ebp], ecx

; 2051 :         return _STD addressof(_Mypair._Myval2._Myval2);

  0000b	8b 45 f4	 mov	 eax, DWORD PTR _this$[ebp]
; File C:\Program Files (x86)\Microsoft Visual Studio\2019\Community\VC\Tools\MSVC\14.28.29333\include\xstddef

; 275  :     return __builtin_addressof(_Val);

  0000e	89 45 ec	 mov	 DWORD PTR $T3[ebp], eax
; File C:\Program Files (x86)\Microsoft Visual Studio\2019\Community\VC\Tools\MSVC\14.28.29333\include\xtree

; 2051 :         return _STD addressof(_Mypair._Myval2._Myval2);

  00011	8b 45 ec	 mov	 eax, DWORD PTR $T3[ebp]
  00014	89 45 f8	 mov	 DWORD PTR __Scary$[ebp], eax

; 1700 :         const auto _Scary = _Get_scary();
; 1701 :         _Tree_find_result<_Nodeptr> _Result{{_Scary->_Myhead->_Parent, _Tree_child::_Right}, _Scary->_Myhead};

  00017	8b 45 f8	 mov	 eax, DWORD PTR __Scary$[ebp]
  0001a	8b 00		 mov	 eax, DWORD PTR [eax]
  0001c	8b 40 04	 mov	 eax, DWORD PTR [eax+4]
  0001f	89 45 d8	 mov	 DWORD PTR __Result$[ebp], eax
  00022	83 65 dc 00	 and	 DWORD PTR __Result$[ebp+4], 0
  00026	8b 45 f8	 mov	 eax, DWORD PTR __Scary$[ebp]
  00029	8b 00		 mov	 eax, DWORD PTR [eax]
  0002b	89 45 e0	 mov	 DWORD PTR __Result$[ebp+8], eax

; 1702 :         _Nodeptr _Trynode = _Result._Location._Parent;

  0002e	8b 45 d8	 mov	 eax, DWORD PTR __Result$[ebp]
  00031	89 45 fc	 mov	 DWORD PTR __Trynode$[ebp], eax
$LN2@Find_lower:

; 1703 :         while (!_Trynode->_Isnil) {

  00034	8b 45 fc	 mov	 eax, DWORD PTR __Trynode$[ebp]
  00037	0f be 40 0d	 movsx	 eax, BYTE PTR [eax+13]
  0003b	85 c0		 test	 eax, eax
  0003d	75 5e		 jne	 SHORT $LN3@Find_lower

; 1704 :             _Result._Location._Parent = _Trynode;

  0003f	8b 45 fc	 mov	 eax, DWORD PTR __Trynode$[ebp]
  00042	89 45 d8	 mov	 DWORD PTR __Result$[ebp], eax

; 2035 :         return _Mypair._Get_first();

  00045	8b 45 f4	 mov	 eax, DWORD PTR _this$[ebp]
; File C:\Program Files (x86)\Microsoft Visual Studio\2019\Community\VC\Tools\MSVC\14.28.29333\include\xmemory

; 1351 :         return *this;

  00048	89 45 e8	 mov	 DWORD PTR $T2[ebp], eax
; File C:\Program Files (x86)\Microsoft Visual Studio\2019\Community\VC\Tools\MSVC\14.28.29333\include\xtree

; 2035 :         return _Mypair._Get_first();

  0004b	8b 45 e8	 mov	 eax, DWORD PTR $T2[ebp]
  0004e	89 45 e4	 mov	 DWORD PTR $T1[ebp], eax
; File C:\Program Files (x86)\Microsoft Visual Studio\2019\Community\VC\Tools\MSVC\14.28.29333\include\xstddef

; 127  :         return _Left < _Right;

  00051	8b 45 fc	 mov	 eax, DWORD PTR __Trynode$[ebp]
  00054	0f b6 40 10	 movzx	 eax, BYTE PTR [eax+16]
  00058	8b 4d 0c	 mov	 ecx, DWORD PTR __Keyval$[ebp]
  0005b	0f b6 09	 movzx	 ecx, BYTE PTR [ecx]
  0005e	3b c1		 cmp	 eax, ecx
  00060	7d 09		 jge	 SHORT $LN23@Find_lower
  00062	c7 45 f0 01 00
	00 00		 mov	 DWORD PTR tv95[ebp], 1
  00069	eb 04		 jmp	 SHORT $LN21@Find_lower
$LN23@Find_lower:
  0006b	83 65 f0 00	 and	 DWORD PTR tv95[ebp], 0
$LN21@Find_lower:
; File C:\Program Files (x86)\Microsoft Visual Studio\2019\Community\VC\Tools\MSVC\14.28.29333\include\xtree

; 1705 :             if (_DEBUG_LT_PRED(_Getcomp(), _Traits::_Kfn(_Trynode->_Myval), _Keyval)) {

  0006f	0f b6 45 f0	 movzx	 eax, BYTE PTR tv95[ebp]
  00073	85 c0		 test	 eax, eax
  00075	74 0f		 je	 SHORT $LN4@Find_lower

; 1706 :                 _Result._Location._Child = _Tree_child::_Right;

  00077	83 65 dc 00	 and	 DWORD PTR __Result$[ebp+4], 0

; 1707 :                 _Trynode                 = _Trynode->_Right;

  0007b	8b 45 fc	 mov	 eax, DWORD PTR __Trynode$[ebp]
  0007e	8b 40 08	 mov	 eax, DWORD PTR [eax+8]
  00081	89 45 fc	 mov	 DWORD PTR __Trynode$[ebp], eax

; 1708 :             } else {

  00084	eb 15		 jmp	 SHORT $LN5@Find_lower
$LN4@Find_lower:

; 1709 :                 _Result._Location._Child = _Tree_child::_Left;

  00086	c7 45 dc 01 00
	00 00		 mov	 DWORD PTR __Result$[ebp+4], 1

; 1710 :                 _Result._Bound           = _Trynode;

  0008d	8b 45 fc	 mov	 eax, DWORD PTR __Trynode$[ebp]
  00090	89 45 e0	 mov	 DWORD PTR __Result$[ebp+8], eax

; 1711 :                 _Trynode                 = _Trynode->_Left;

  00093	8b 45 fc	 mov	 eax, DWORD PTR __Trynode$[ebp]
  00096	8b 00		 mov	 eax, DWORD PTR [eax]
  00098	89 45 fc	 mov	 DWORD PTR __Trynode$[ebp], eax
$LN5@Find_lower:

; 1712 :             }
; 1713 :         }

  0009b	eb 97		 jmp	 SHORT $LN2@Find_lower
$LN3@Find_lower:

; 1714 : 
; 1715 :         return _Result;

  0009d	8d 75 d8	 lea	 esi, DWORD PTR __Result$[ebp]
  000a0	8b 7d 08	 mov	 edi, DWORD PTR ___$ReturnUdt$[ebp]
  000a3	a5		 movsd
  000a4	a5		 movsd
  000a5	a5		 movsd
  000a6	8b 45 08	 mov	 eax, DWORD PTR ___$ReturnUdt$[ebp]

; 1716 :     }

  000a9	5f		 pop	 edi
  000aa	5e		 pop	 esi
  000ab	c9		 leave
  000ac	c2 08 00	 ret	 8
??$_Find_lower_bound@E@?$_Tree@V?$_Tmap_traits@EPAVCCamera@@U?$less@E@std@@V?$allocator@U?$pair@$$CBEPAVCCamera@@@std@@@3@$0A@@std@@@std@@IBE?AU?$_Tree_find_result@PAU?$_Tree_node@U?$pair@$$CBEPAVCCamera@@@std@@PAX@std@@@1@ABE@Z ENDP ; std::_Tree<std::_Tmap_traits<unsigned char,CCamera *,std::less<unsigned char>,std::allocator<std::pair<unsigned char const ,CCamera *> >,0> >::_Find_lower_bound<unsigned char>
_TEXT	ENDS
; Function compile flags: /Odspy
; File C:\Program Files (x86)\Microsoft Visual Studio\2019\Community\VC\Tools\MSVC\14.28.29333\include\xtree
; File C:\Program Files (x86)\Microsoft Visual Studio\2019\Community\VC\Tools\MSVC\14.28.29333\include\xstddef
; File C:\Program Files (x86)\Microsoft Visual Studio\2019\Community\VC\Tools\MSVC\14.28.29333\include\xtree
; File C:\Program Files (x86)\Microsoft Visual Studio\2019\Community\VC\Tools\MSVC\14.28.29333\include\xmemory
; File C:\Program Files (x86)\Microsoft Visual Studio\2019\Community\VC\Tools\MSVC\14.28.29333\include\xtree
; File C:\Program Files (x86)\Microsoft Visual Studio\2019\Community\VC\Tools\MSVC\14.28.29333\include\xmemory
; File C:\Program Files (x86)\Microsoft Visual Studio\2019\Community\VC\Tools\MSVC\14.28.29333\include\xtree
; File C:\Program Files (x86)\Microsoft Visual Studio\2019\Community\VC\Tools\MSVC\14.28.29333\include\xstddef
; File C:\Program Files (x86)\Microsoft Visual Studio\2019\Community\VC\Tools\MSVC\14.28.29333\include\xtree
; File C:\Program Files (x86)\Microsoft Visual Studio\2019\Community\VC\Tools\MSVC\14.28.29333\include\type_traits
; File C:\Program Files (x86)\Microsoft Visual Studio\2019\Community\VC\Tools\MSVC\14.28.29333\include\utility
; File C:\Program Files (x86)\Microsoft Visual Studio\2019\Community\VC\Tools\MSVC\14.28.29333\include\type_traits
; File C:\Program Files (x86)\Microsoft Visual Studio\2019\Community\VC\Tools\MSVC\14.28.29333\include\utility
; File C:\Program Files (x86)\Microsoft Visual Studio\2019\Community\VC\Tools\MSVC\14.28.29333\include\xtree
; File C:\Program Files (x86)\Microsoft Visual Studio\2019\Community\VC\Tools\MSVC\14.28.29333\include\type_traits
; File C:\Program Files (x86)\Microsoft Visual Studio\2019\Community\VC\Tools\MSVC\14.28.29333\include\xtree
; File C:\Program Files (x86)\Microsoft Visual Studio\2019\Community\VC\Tools\MSVC\14.28.29333\include\xmemory
; File C:\Program Files (x86)\Microsoft Visual Studio\2019\Community\VC\Tools\MSVC\14.28.29333\include\xtree
; File C:\Program Files (x86)\Microsoft Visual Studio\2019\Community\VC\Tools\MSVC\14.28.29333\include\xmemory
; File C:\Program Files (x86)\Microsoft Visual Studio\2019\Community\VC\Tools\MSVC\14.28.29333\include\utility
; File C:\Program Files (x86)\Microsoft Visual Studio\2019\Community\VC\Tools\MSVC\14.28.29333\include\xmemory
; File C:\Program Files (x86)\Microsoft Visual Studio\2019\Community\VC\Tools\MSVC\14.28.29333\include\xtree
; File C:\Program Files (x86)\Microsoft Visual Studio\2019\Community\VC\Tools\MSVC\14.28.29333\include\type_traits
; File C:\Program Files (x86)\Microsoft Visual Studio\2019\Community\VC\Tools\MSVC\14.28.29333\include\utility
; File C:\Program Files (x86)\Microsoft Visual Studio\2019\Community\VC\Tools\MSVC\14.28.29333\include\type_traits
; File C:\Program Files (x86)\Microsoft Visual Studio\2019\Community\VC\Tools\MSVC\14.28.29333\include\utility
; File C:\Program Files (x86)\Microsoft Visual Studio\2019\Community\VC\Tools\MSVC\14.28.29333\include\xtree
;	COMDAT ??$_Emplace@U?$pair@$$CBEPAVCCamera@@@std@@@?$_Tree@V?$_Tmap_traits@EPAVCCamera@@U?$less@E@std@@V?$allocator@U?$pair@$$CBEPAVCCamera@@@std@@@3@$0A@@std@@@std@@IAE?AU?$pair@PAU?$_Tree_node@U?$pair@$$CBEPAVCCamera@@@std@@PAX@std@@_N@1@$$QAU?$pair@$$CBEPAVCCamera@@@1@@Z
_TEXT	SEGMENT
$T1 = -128						; size = 12
$T2 = -116						; size = 8
$T3 = -108						; size = 4
__Loc$ = -104						; size = 12
$T4 = -92						; size = 4
$T5 = -88						; size = 4
$T6 = -84						; size = 4
__Inserted$ = -80					; size = 4
$T7 = -76						; size = 4
__Old_val$8 = -72					; size = 4
$T9 = -68						; size = 4
$T10 = -64						; size = 4
$T11 = -60						; size = 4
$T12 = -56						; size = 4
$T13 = -52						; size = 4
$T14 = -48						; size = 4
$T15 = -44						; size = 4
$T16 = -40						; size = 4
$T17 = -36						; size = 4
__Scary$ = -32						; size = 4
__Val$ = -28						; size = 4
tv149 = -24						; size = 4
tv177 = -20						; size = 4
__Bound$ = -16						; size = 4
__Keyval$18 = -12					; size = 4
_this$ = -8						; size = 4
$T19 = -2						; size = 1
$T20 = -1						; size = 1
___$ReturnUdt$ = 8					; size = 4
_<_Vals_0>$ = 12					; size = 4
??$_Emplace@U?$pair@$$CBEPAVCCamera@@@std@@@?$_Tree@V?$_Tmap_traits@EPAVCCamera@@U?$less@E@std@@V?$allocator@U?$pair@$$CBEPAVCCamera@@@std@@@3@$0A@@std@@@std@@IAE?AU?$pair@PAU?$_Tree_node@U?$pair@$$CBEPAVCCamera@@@std@@PAX@std@@_N@1@$$QAU?$pair@$$CBEPAVCCamera@@@1@@Z PROC ; std::_Tree<std::_Tmap_traits<unsigned char,CCamera *,std::less<unsigned char>,std::allocator<std::pair<unsigned char const ,CCamera *> >,0> >::_Emplace<std::pair<unsigned char const ,CCamera *> >, COMDAT
; _this$ = ecx

; 1002 :     pair<_Nodeptr, bool> _Emplace(_Valtys&&... _Vals) {

  00000	55		 push	 ebp
  00001	8b ec		 mov	 ebp, esp
  00003	81 ec 80 00 00
	00		 sub	 esp, 128		; 00000080H
  00009	56		 push	 esi
  0000a	57		 push	 edi
  0000b	89 4d f8	 mov	 DWORD PTR _this$[ebp], ecx

; 2047 :         return _STD addressof(_Mypair._Myval2._Myval2);

  0000e	8b 45 f8	 mov	 eax, DWORD PTR _this$[ebp]
; File C:\Program Files (x86)\Microsoft Visual Studio\2019\Community\VC\Tools\MSVC\14.28.29333\include\xstddef

; 275  :     return __builtin_addressof(_Val);

  00011	89 45 dc	 mov	 DWORD PTR $T17[ebp], eax
; File C:\Program Files (x86)\Microsoft Visual Studio\2019\Community\VC\Tools\MSVC\14.28.29333\include\xtree

; 2047 :         return _STD addressof(_Mypair._Myval2._Myval2);

  00014	8b 45 dc	 mov	 eax, DWORD PTR $T17[ebp]
  00017	89 45 e0	 mov	 DWORD PTR __Scary$[ebp], eax
; File C:\Program Files (x86)\Microsoft Visual Studio\2019\Community\VC\Tools\MSVC\14.28.29333\include\xmemory

; 2000 :         return _Val.first;

  0001a	8b 45 0c	 mov	 eax, DWORD PTR _<_Vals_0>$[ebp]
; File C:\Program Files (x86)\Microsoft Visual Studio\2019\Community\VC\Tools\MSVC\14.28.29333\include\xtree

; 1008 :             const auto& _Keyval = _In_place_key_extractor::_Extract(_Vals...);

  0001d	89 45 f4	 mov	 DWORD PTR __Keyval$18[ebp], eax

; 1009 :             _Loc                = _Find_lower_bound(_Keyval);

  00020	ff 75 f4	 push	 DWORD PTR __Keyval$18[ebp]
  00023	8d 45 80	 lea	 eax, DWORD PTR $T1[ebp]
  00026	50		 push	 eax
  00027	8b 4d f8	 mov	 ecx, DWORD PTR _this$[ebp]
  0002a	e8 00 00 00 00	 call	 ??$_Find_lower_bound@E@?$_Tree@V?$_Tmap_traits@EPAVCCamera@@U?$less@E@std@@V?$allocator@U?$pair@$$CBEPAVCCamera@@@std@@@3@$0A@@std@@@std@@IBE?AU?$_Tree_find_result@PAU?$_Tree_node@U?$pair@$$CBEPAVCCamera@@@std@@PAX@std@@@1@ABE@Z ; std::_Tree<std::_Tmap_traits<unsigned char,CCamera *,std::less<unsigned char>,std::allocator<std::pair<unsigned char const ,CCamera *> >,0> >::_Find_lower_bound<unsigned char>
  0002f	8b f0		 mov	 esi, eax
  00031	8d 7d 98	 lea	 edi, DWORD PTR __Loc$[ebp]
  00034	a5		 movsd
  00035	a5		 movsd
  00036	a5		 movsd

; 1010 :             if (_Lower_bound_duplicate(_Loc._Bound, _Keyval)) {

  00037	8b 45 a0	 mov	 eax, DWORD PTR __Loc$[ebp+8]
  0003a	89 45 f0	 mov	 DWORD PTR __Bound$[ebp], eax

; 1695 :         return !_Bound->_Isnil && !_DEBUG_LT_PRED(_Getcomp(), _Keyval, _Traits::_Kfn(_Bound->_Myval));

  0003d	8b 45 f0	 mov	 eax, DWORD PTR __Bound$[ebp]
  00040	0f be 40 0d	 movsx	 eax, BYTE PTR [eax+13]
  00044	85 c0		 test	 eax, eax
  00046	75 3b		 jne	 SHORT $LN39@Emplace

; 2035 :         return _Mypair._Get_first();

  00048	8b 45 f8	 mov	 eax, DWORD PTR _this$[ebp]
; File C:\Program Files (x86)\Microsoft Visual Studio\2019\Community\VC\Tools\MSVC\14.28.29333\include\xmemory

; 1351 :         return *this;

  0004b	89 45 d8	 mov	 DWORD PTR $T16[ebp], eax
; File C:\Program Files (x86)\Microsoft Visual Studio\2019\Community\VC\Tools\MSVC\14.28.29333\include\xtree

; 2035 :         return _Mypair._Get_first();

  0004e	8b 45 d8	 mov	 eax, DWORD PTR $T16[ebp]
  00051	89 45 94	 mov	 DWORD PTR $T3[ebp], eax
; File C:\Program Files (x86)\Microsoft Visual Studio\2019\Community\VC\Tools\MSVC\14.28.29333\include\xstddef

; 127  :         return _Left < _Right;

  00054	8b 45 f4	 mov	 eax, DWORD PTR __Keyval$18[ebp]
  00057	0f b6 00	 movzx	 eax, BYTE PTR [eax]
  0005a	8b 4d f0	 mov	 ecx, DWORD PTR __Bound$[ebp]
  0005d	0f b6 49 10	 movzx	 ecx, BYTE PTR [ecx+16]
  00061	3b c1		 cmp	 eax, ecx
  00063	7d 09		 jge	 SHORT $LN51@Emplace
  00065	c7 45 ec 01 00
	00 00		 mov	 DWORD PTR tv177[ebp], 1
  0006c	eb 04		 jmp	 SHORT $LN49@Emplace
$LN51@Emplace:
  0006e	83 65 ec 00	 and	 DWORD PTR tv177[ebp], 0
$LN49@Emplace:
; File C:\Program Files (x86)\Microsoft Visual Studio\2019\Community\VC\Tools\MSVC\14.28.29333\include\xtree

; 1695 :         return !_Bound->_Isnil && !_DEBUG_LT_PRED(_Getcomp(), _Keyval, _Traits::_Kfn(_Bound->_Myval));

  00072	0f b6 45 ec	 movzx	 eax, BYTE PTR tv177[ebp]
  00076	85 c0		 test	 eax, eax
  00078	75 09		 jne	 SHORT $LN39@Emplace
  0007a	c7 45 e8 01 00
	00 00		 mov	 DWORD PTR tv149[ebp], 1
  00081	eb 04		 jmp	 SHORT $LN37@Emplace
$LN39@Emplace:
  00083	83 65 e8 00	 and	 DWORD PTR tv149[ebp], 0
$LN37@Emplace:

; 1010 :             if (_Lower_bound_duplicate(_Loc._Bound, _Keyval)) {

  00087	0f b6 45 e8	 movzx	 eax, BYTE PTR tv149[ebp]
  0008b	85 c0		 test	 eax, eax
  0008d	74 2d		 je	 SHORT $LN2@Emplace

; 1011 :                 return {_Loc._Bound, false};

  0008f	c6 45 ff 00	 mov	 BYTE PTR $T20[ebp], 0
; File C:\Program Files (x86)\Microsoft Visual Studio\2019\Community\VC\Tools\MSVC\14.28.29333\include\type_traits

; 1443 :     return static_cast<_Ty&&>(_Arg);

  00093	8d 45 a0	 lea	 eax, DWORD PTR __Loc$[ebp+8]
  00096	89 45 d4	 mov	 DWORD PTR $T15[ebp], eax
; File C:\Program Files (x86)\Microsoft Visual Studio\2019\Community\VC\Tools\MSVC\14.28.29333\include\utility

; 190  :         : first(_STD forward<_Other1>(_Val1)), second(_STD forward<_Other2>(_Val2)) {}

  00099	8b 45 08	 mov	 eax, DWORD PTR ___$ReturnUdt$[ebp]
  0009c	8b 4d d4	 mov	 ecx, DWORD PTR $T15[ebp]
  0009f	8b 09		 mov	 ecx, DWORD PTR [ecx]
  000a1	89 08		 mov	 DWORD PTR [eax], ecx
; File C:\Program Files (x86)\Microsoft Visual Studio\2019\Community\VC\Tools\MSVC\14.28.29333\include\type_traits

; 1443 :     return static_cast<_Ty&&>(_Arg);

  000a3	8d 45 ff	 lea	 eax, DWORD PTR $T20[ebp]
  000a6	89 45 d0	 mov	 DWORD PTR $T14[ebp], eax
; File C:\Program Files (x86)\Microsoft Visual Studio\2019\Community\VC\Tools\MSVC\14.28.29333\include\utility

; 190  :         : first(_STD forward<_Other1>(_Val1)), second(_STD forward<_Other2>(_Val2)) {}

  000a9	8b 45 08	 mov	 eax, DWORD PTR ___$ReturnUdt$[ebp]
  000ac	8b 4d d0	 mov	 ecx, DWORD PTR $T14[ebp]
  000af	8a 09		 mov	 cl, BYTE PTR [ecx]
  000b1	88 48 04	 mov	 BYTE PTR [eax+4], cl
; File C:\Program Files (x86)\Microsoft Visual Studio\2019\Community\VC\Tools\MSVC\14.28.29333\include\xtree

; 1011 :                 return {_Loc._Bound, false};

  000b4	8b 45 08	 mov	 eax, DWORD PTR ___$ReturnUdt$[ebp]
  000b7	e9 9d 00 00 00	 jmp	 $LN1@Emplace
$LN2@Emplace:

; 1012 :             }
; 1013 : 
; 1014 :             _Check_grow_by_1();

  000bc	8b 4d f8	 mov	 ecx, DWORD PTR _this$[ebp]
  000bf	e8 00 00 00 00	 call	 ?_Check_grow_by_1@?$_Tree@V?$_Tmap_traits@EPAVCCamera@@U?$less@E@std@@V?$allocator@U?$pair@$$CBEPAVCCamera@@@std@@@3@$0A@@std@@@std@@IAEXXZ ; std::_Tree<std::_Tmap_traits<unsigned char,CCamera *,std::less<unsigned char>,std::allocator<std::pair<unsigned char const ,CCamera *> >,0> >::_Check_grow_by_1
; File C:\Program Files (x86)\Microsoft Visual Studio\2019\Community\VC\Tools\MSVC\14.28.29333\include\type_traits

; 1443 :     return static_cast<_Ty&&>(_Arg);

  000c4	8b 45 0c	 mov	 eax, DWORD PTR _<_Vals_0>$[ebp]
  000c7	89 45 c8	 mov	 DWORD PTR $T12[ebp], eax
; File C:\Program Files (x86)\Microsoft Visual Studio\2019\Community\VC\Tools\MSVC\14.28.29333\include\xtree

; 2039 :         return _Mypair._Myval2._Get_first();

  000ca	8b 45 f8	 mov	 eax, DWORD PTR _this$[ebp]
; File C:\Program Files (x86)\Microsoft Visual Studio\2019\Community\VC\Tools\MSVC\14.28.29333\include\xmemory

; 1347 :         return *this;

  000cd	89 45 cc	 mov	 DWORD PTR $T13[ebp], eax
; File C:\Program Files (x86)\Microsoft Visual Studio\2019\Community\VC\Tools\MSVC\14.28.29333\include\xtree

; 2039 :         return _Mypair._Myval2._Get_first();

  000d0	8b 45 cc	 mov	 eax, DWORD PTR $T13[ebp]
  000d3	89 45 c4	 mov	 DWORD PTR $T11[ebp], eax

; 1015 :             _Inserted = _Tree_temp_node<_Alnode>(_Getal(), _Scary->_Myhead, _STD forward<_Valtys>(_Vals)...)._Release();

  000d6	ff 75 c8	 push	 DWORD PTR $T12[ebp]
  000d9	8b 45 e0	 mov	 eax, DWORD PTR __Scary$[ebp]
  000dc	ff 30		 push	 DWORD PTR [eax]
  000de	ff 75 c4	 push	 DWORD PTR $T11[ebp]
  000e1	8d 4d 8c	 lea	 ecx, DWORD PTR $T2[ebp]
  000e4	e8 00 00 00 00	 call	 ??$?0U?$pair@$$CBEPAVCCamera@@@std@@@?$_Tree_temp_node@V?$allocator@U?$_Tree_node@U?$pair@$$CBEPAVCCamera@@@std@@PAX@std@@@std@@@std@@QAE@AAV?$allocator@U?$_Tree_node@U?$pair@$$CBEPAVCCamera@@@std@@PAX@std@@@1@PAU?$_Tree_node@U?$pair@$$CBEPAVCCamera@@@std@@PAX@1@$$QAU?$pair@$$CBEPAVCCamera@@@1@@Z ; std::_Tree_temp_node<std::allocator<std::_Tree_node<std::pair<unsigned char const ,CCamera *>,void *> > >::_Tree_temp_node<std::allocator<std::_Tree_node<std::pair<unsigned char const ,CCamera *>,void *> > ><std::pair<unsigned char const ,CCamera *> >
  000e9	89 45 c0	 mov	 DWORD PTR $T10[ebp], eax
; File C:\Program Files (x86)\Microsoft Visual Studio\2019\Community\VC\Tools\MSVC\14.28.29333\include\xmemory

; 1048 :         return _STD exchange(_Ptr, nullptr);

  000ec	83 65 bc 00	 and	 DWORD PTR $T9[ebp], 0
  000f0	8b 45 c0	 mov	 eax, DWORD PTR $T10[ebp]
  000f3	83 c0 04	 add	 eax, 4
  000f6	89 45 e4	 mov	 DWORD PTR __Val$[ebp], eax
; File C:\Program Files (x86)\Microsoft Visual Studio\2019\Community\VC\Tools\MSVC\14.28.29333\include\utility

; 598  :     _Ty _Old_val = static_cast<_Ty&&>(_Val);

  000f9	8b 45 e4	 mov	 eax, DWORD PTR __Val$[ebp]
  000fc	8b 00		 mov	 eax, DWORD PTR [eax]
  000fe	89 45 b8	 mov	 DWORD PTR __Old_val$8[ebp], eax

; 599  :     _Val         = static_cast<_Other&&>(_New_val);

  00101	8b 45 e4	 mov	 eax, DWORD PTR __Val$[ebp]
  00104	8b 4d bc	 mov	 ecx, DWORD PTR $T9[ebp]
  00107	89 08		 mov	 DWORD PTR [eax], ecx

; 600  :     return _Old_val;

  00109	8b 45 b8	 mov	 eax, DWORD PTR __Old_val$8[ebp]
  0010c	89 45 b4	 mov	 DWORD PTR $T7[ebp], eax
; File C:\Program Files (x86)\Microsoft Visual Studio\2019\Community\VC\Tools\MSVC\14.28.29333\include\xmemory

; 1048 :         return _STD exchange(_Ptr, nullptr);

  0010f	8b 45 b4	 mov	 eax, DWORD PTR $T7[ebp]
  00112	89 45 b0	 mov	 DWORD PTR __Inserted$[ebp], eax
; File C:\Program Files (x86)\Microsoft Visual Studio\2019\Community\VC\Tools\MSVC\14.28.29333\include\xtree

; 1015 :             _Inserted = _Tree_temp_node<_Alnode>(_Getal(), _Scary->_Myhead, _STD forward<_Valtys>(_Vals)...)._Release();

  00115	8d 4d 8c	 lea	 ecx, DWORD PTR $T2[ebp]
  00118	e8 00 00 00 00	 call	 ??1?$_Tree_temp_node@V?$allocator@U?$_Tree_node@U?$pair@$$CBEPAVCCamera@@@std@@PAX@std@@@std@@@std@@QAE@XZ ; std::_Tree_temp_node<std::allocator<std::_Tree_node<std::pair<unsigned char const ,CCamera *>,void *> > >::~_Tree_temp_node<std::allocator<std::_Tree_node<std::pair<unsigned char const ,CCamera *>,void *> > >

; 1034 :         return {_Scary->_Insert_node(_Loc._Location, _Inserted), true};

  0011d	ff 75 b0	 push	 DWORD PTR __Inserted$[ebp]
  00120	ff 75 9c	 push	 DWORD PTR __Loc$[ebp+4]
  00123	ff 75 98	 push	 DWORD PTR __Loc$[ebp]
  00126	8b 4d e0	 mov	 ecx, DWORD PTR __Scary$[ebp]
  00129	e8 00 00 00 00	 call	 ?_Insert_node@?$_Tree_val@U?$_Tree_simple_types@U?$pair@$$CBEPAVCCamera@@@std@@@std@@@std@@QAEPAU?$_Tree_node@U?$pair@$$CBEPAVCCamera@@@std@@PAX@2@U?$_Tree_id@PAU?$_Tree_node@U?$pair@$$CBEPAVCCamera@@@std@@PAX@std@@@2@QAU32@@Z ; std::_Tree_val<std::_Tree_simple_types<std::pair<unsigned char const ,CCamera *> > >::_Insert_node
  0012e	89 45 ac	 mov	 DWORD PTR $T6[ebp], eax
  00131	c6 45 fe 01	 mov	 BYTE PTR $T19[ebp], 1
; File C:\Program Files (x86)\Microsoft Visual Studio\2019\Community\VC\Tools\MSVC\14.28.29333\include\type_traits

; 1443 :     return static_cast<_Ty&&>(_Arg);

  00135	8d 45 ac	 lea	 eax, DWORD PTR $T6[ebp]
  00138	89 45 a8	 mov	 DWORD PTR $T5[ebp], eax
; File C:\Program Files (x86)\Microsoft Visual Studio\2019\Community\VC\Tools\MSVC\14.28.29333\include\utility

; 190  :         : first(_STD forward<_Other1>(_Val1)), second(_STD forward<_Other2>(_Val2)) {}

  0013b	8b 45 08	 mov	 eax, DWORD PTR ___$ReturnUdt$[ebp]
  0013e	8b 4d a8	 mov	 ecx, DWORD PTR $T5[ebp]
  00141	8b 09		 mov	 ecx, DWORD PTR [ecx]
  00143	89 08		 mov	 DWORD PTR [eax], ecx
; File C:\Program Files (x86)\Microsoft Visual Studio\2019\Community\VC\Tools\MSVC\14.28.29333\include\type_traits

; 1443 :     return static_cast<_Ty&&>(_Arg);

  00145	8d 45 fe	 lea	 eax, DWORD PTR $T19[ebp]
  00148	89 45 a4	 mov	 DWORD PTR $T4[ebp], eax
; File C:\Program Files (x86)\Microsoft Visual Studio\2019\Community\VC\Tools\MSVC\14.28.29333\include\utility

; 190  :         : first(_STD forward<_Other1>(_Val1)), second(_STD forward<_Other2>(_Val2)) {}

  0014b	8b 45 08	 mov	 eax, DWORD PTR ___$ReturnUdt$[ebp]
  0014e	8b 4d a4	 mov	 ecx, DWORD PTR $T4[ebp]
  00151	8a 09		 mov	 cl, BYTE PTR [ecx]
  00153	88 48 04	 mov	 BYTE PTR [eax+4], cl
; File C:\Program Files (x86)\Microsoft Visual Studio\2019\Community\VC\Tools\MSVC\14.28.29333\include\xtree

; 1034 :         return {_Scary->_Insert_node(_Loc._Location, _Inserted), true};

  00156	8b 45 08	 mov	 eax, DWORD PTR ___$ReturnUdt$[ebp]
$LN1@Emplace:

; 1035 :     }

  00159	5f		 pop	 edi
  0015a	5e		 pop	 esi
  0015b	c9		 leave
  0015c	c2 08 00	 ret	 8
??$_Emplace@U?$pair@$$CBEPAVCCamera@@@std@@@?$_Tree@V?$_Tmap_traits@EPAVCCamera@@U?$less@E@std@@V?$allocator@U?$pair@$$CBEPAVCCamera@@@std@@@3@$0A@@std@@@std@@IAE?AU?$pair@PAU?$_Tree_node@U?$pair@$$CBEPAVCCamera@@@std@@PAX@std@@_N@1@$$QAU?$pair@$$CBEPAVCCamera@@@1@@Z ENDP ; std::_Tree<std::_Tmap_traits<unsigned char,CCamera *,std::less<unsigned char>,std::allocator<std::pair<unsigned char const ,CCamera *> >,0> >::_Emplace<std::pair<unsigned char const ,CCamera *> >
_TEXT	ENDS
; Function compile flags: /Odspy
; File C:\Program Files (x86)\Microsoft Visual Studio\2019\Community\VC\Tools\MSVC\14.28.29333\include\xtree
; File C:\Program Files (x86)\Microsoft Visual Studio\2019\Community\VC\Tools\MSVC\14.28.29333\include\xmemory
; File C:\Program Files (x86)\Microsoft Visual Studio\2019\Community\VC\Tools\MSVC\14.28.29333\include\xtree
;	COMDAT ??$_Buyheadnode@V?$allocator@U?$_Tree_node@U?$pair@$$CBEPAVCCamera@@@std@@PAX@std@@@std@@@?$_Tree_node@U?$pair@$$CBEPAVCCamera@@@std@@PAX@std@@SAPAU01@AAV?$allocator@U?$_Tree_node@U?$pair@$$CBEPAVCCamera@@@std@@PAX@std@@@1@@Z
_TEXT	SEGMENT
__Max_possible$1 = -20					; size = 4
$T2 = -16						; size = 4
$T3 = -12						; size = 4
__Pnode$ = -8						; size = 4
__Overflow_is_possible$4 = -1				; size = 1
__Al$ = 8						; size = 4
??$_Buyheadnode@V?$allocator@U?$_Tree_node@U?$pair@$$CBEPAVCCamera@@@std@@PAX@std@@@std@@@?$_Tree_node@U?$pair@$$CBEPAVCCamera@@@std@@PAX@std@@SAPAU01@AAV?$allocator@U?$_Tree_node@U?$pair@$$CBEPAVCCamera@@@std@@PAX@std@@@1@@Z PROC ; std::_Tree_node<std::pair<unsigned char const ,CCamera *>,void *>::_Buyheadnode<std::allocator<std::_Tree_node<std::pair<unsigned char const ,CCamera *>,void *> > >, COMDAT

; 341  :     static _Nodeptr _Buyheadnode(_Alloc& _Al) {

  00000	55		 push	 ebp
  00001	8b ec		 mov	 ebp, esp
  00003	83 ec 14	 sub	 esp, 20			; 00000014H
; File C:\Program Files (x86)\Microsoft Visual Studio\2019\Community\VC\Tools\MSVC\14.28.29333\include\xmemory

; 56   :     constexpr bool _Overflow_is_possible = _Ty_size > 1;

  00006	c6 45 ff 01	 mov	 BYTE PTR __Overflow_is_possible$4[ebp], 1

; 57   : 
; 58   :     if _CONSTEXPR_IF (_Overflow_is_possible) {
; 59   :         constexpr size_t _Max_possible = static_cast<size_t>(-1) / _Ty_size;

  0000a	c7 45 ec aa aa
	aa 0a		 mov	 DWORD PTR __Max_possible$1[ebp], 178956970 ; 0aaaaaaaH

; 60   :         if (_Count > _Max_possible) {

  00011	33 c0		 xor	 eax, eax
  00013	40		 inc	 eax
  00014	3d aa aa aa 0a	 cmp	 eax, 178956970		; 0aaaaaaaH
  00019	76 05		 jbe	 SHORT $LN6@Buyheadnod

; 61   :             _Throw_bad_array_new_length(); // multiply overflow

  0001b	e8 00 00 00 00	 call	 ?_Throw_bad_array_new_length@std@@YAXXZ ; std::_Throw_bad_array_new_length
$LN6@Buyheadnod:

; 62   :         }
; 63   :     }
; 64   : 
; 65   :     return _Count * _Ty_size;

  00020	33 c0		 xor	 eax, eax
  00022	40		 inc	 eax
  00023	6b c0 18	 imul	 eax, eax, 24
  00026	89 45 f4	 mov	 DWORD PTR $T3[ebp], eax

; 814  :         return static_cast<_Ty*>(_Allocate<_New_alignof<_Ty>>(_Get_size_of_n<sizeof(_Ty)>(_Count)));

  00029	ff 75 f4	 push	 DWORD PTR $T3[ebp]
  0002c	e8 00 00 00 00	 call	 ??$_Allocate@$07U_Default_allocate_traits@std@@$0A@@std@@YAPAXI@Z ; std::_Allocate<8,std::_Default_allocate_traits,0>
  00031	59		 pop	 ecx
  00032	89 45 f0	 mov	 DWORD PTR $T2[ebp], eax
; File C:\Program Files (x86)\Microsoft Visual Studio\2019\Community\VC\Tools\MSVC\14.28.29333\include\xtree

; 343  :         const auto _Pnode = _Al.allocate(1);

  00035	8b 45 f0	 mov	 eax, DWORD PTR $T2[ebp]
  00038	89 45 f8	 mov	 DWORD PTR __Pnode$[ebp], eax

; 344  :         _Construct_in_place(_Pnode->_Left, _Pnode);

  0003b	8d 45 f8	 lea	 eax, DWORD PTR __Pnode$[ebp]
  0003e	50		 push	 eax
  0003f	ff 75 f8	 push	 DWORD PTR __Pnode$[ebp]
  00042	e8 00 00 00 00	 call	 ??$_Construct_in_place@PAU?$_Tree_node@U?$pair@$$CBEPAVCCamera@@@std@@PAX@std@@ABQAU12@@std@@YAXAAPAU?$_Tree_node@U?$pair@$$CBEPAVCCamera@@@std@@PAX@0@ABQAU10@@Z ; std::_Construct_in_place<std::_Tree_node<std::pair<unsigned char const ,CCamera *>,void *> *,std::_Tree_node<std::pair<unsigned char const ,CCamera *>,void *> * const &>
  00047	59		 pop	 ecx
  00048	59		 pop	 ecx

; 345  :         _Construct_in_place(_Pnode->_Parent, _Pnode);

  00049	8d 45 f8	 lea	 eax, DWORD PTR __Pnode$[ebp]
  0004c	50		 push	 eax
  0004d	8b 45 f8	 mov	 eax, DWORD PTR __Pnode$[ebp]
  00050	83 c0 04	 add	 eax, 4
  00053	50		 push	 eax
  00054	e8 00 00 00 00	 call	 ??$_Construct_in_place@PAU?$_Tree_node@U?$pair@$$CBEPAVCCamera@@@std@@PAX@std@@ABQAU12@@std@@YAXAAPAU?$_Tree_node@U?$pair@$$CBEPAVCCamera@@@std@@PAX@0@ABQAU10@@Z ; std::_Construct_in_place<std::_Tree_node<std::pair<unsigned char const ,CCamera *>,void *> *,std::_Tree_node<std::pair<unsigned char const ,CCamera *>,void *> * const &>
  00059	59		 pop	 ecx
  0005a	59		 pop	 ecx

; 346  :         _Construct_in_place(_Pnode->_Right, _Pnode);

  0005b	8d 45 f8	 lea	 eax, DWORD PTR __Pnode$[ebp]
  0005e	50		 push	 eax
  0005f	8b 45 f8	 mov	 eax, DWORD PTR __Pnode$[ebp]
  00062	83 c0 08	 add	 eax, 8
  00065	50		 push	 eax
  00066	e8 00 00 00 00	 call	 ??$_Construct_in_place@PAU?$_Tree_node@U?$pair@$$CBEPAVCCamera@@@std@@PAX@std@@ABQAU12@@std@@YAXAAPAU?$_Tree_node@U?$pair@$$CBEPAVCCamera@@@std@@PAX@0@ABQAU10@@Z ; std::_Construct_in_place<std::_Tree_node<std::pair<unsigned char const ,CCamera *>,void *> *,std::_Tree_node<std::pair<unsigned char const ,CCamera *>,void *> * const &>
  0006b	59		 pop	 ecx
  0006c	59		 pop	 ecx

; 347  :         _Pnode->_Color = _Black;

  0006d	8b 45 f8	 mov	 eax, DWORD PTR __Pnode$[ebp]
  00070	c6 40 0c 01	 mov	 BYTE PTR [eax+12], 1

; 348  :         _Pnode->_Isnil = true;

  00074	8b 45 f8	 mov	 eax, DWORD PTR __Pnode$[ebp]
  00077	c6 40 0d 01	 mov	 BYTE PTR [eax+13], 1

; 349  :         return _Pnode;

  0007b	8b 45 f8	 mov	 eax, DWORD PTR __Pnode$[ebp]
$LN9@Buyheadnod:

; 350  :     }

  0007e	c9		 leave
  0007f	c3		 ret	 0
??$_Buyheadnode@V?$allocator@U?$_Tree_node@U?$pair@$$CBEPAVCCamera@@@std@@PAX@std@@@std@@@?$_Tree_node@U?$pair@$$CBEPAVCCamera@@@std@@PAX@std@@SAPAU01@AAV?$allocator@U?$_Tree_node@U?$pair@$$CBEPAVCCamera@@@std@@PAX@std@@@1@@Z ENDP ; std::_Tree_node<std::pair<unsigned char const ,CCamera *>,void *>::_Buyheadnode<std::allocator<std::_Tree_node<std::pair<unsigned char const ,CCamera *>,void *> > >
_TEXT	ENDS
; Function compile flags: /Odspy
; File C:\Program Files (x86)\Microsoft Visual Studio\2019\Community\VC\Tools\MSVC\14.28.29333\include\xtree
; File C:\Program Files (x86)\Microsoft Visual Studio\2019\Community\VC\Tools\MSVC\14.28.29333\include\utility
; File C:\Program Files (x86)\Microsoft Visual Studio\2019\Community\VC\Tools\MSVC\14.28.29333\include\xtree
; File C:\Program Files (x86)\Microsoft Visual Studio\2019\Community\VC\Tools\MSVC\14.28.29333\include\xstddef
; File C:\Program Files (x86)\Microsoft Visual Studio\2019\Community\VC\Tools\MSVC\14.28.29333\include\xtree
;	COMDAT ??$_Erase_tree@V?$allocator@U?$_Tree_node@U?$pair@$$CBEPAVCCamera@@@std@@PAX@std@@@std@@@?$_Tree_val@U?$_Tree_simple_types@U?$pair@$$CBEPAVCCamera@@@std@@@std@@@std@@QAEXAAV?$allocator@U?$_Tree_node@U?$pair@$$CBEPAVCCamera@@@std@@PAX@std@@@1@PAU?$_Tree_node@U?$pair@$$CBEPAVCCamera@@@std@@PAX@1@@Z
_TEXT	SEGMENT
$T1 = -20						; size = 4
__Old_val$2 = -16					; size = 4
__New_val$ = -12					; size = 4
_this$ = -8						; size = 4
$T3 = -4						; size = 4
__Al$ = 8						; size = 4
__Rootnode$ = 12					; size = 4
??$_Erase_tree@V?$allocator@U?$_Tree_node@U?$pair@$$CBEPAVCCamera@@@std@@PAX@std@@@std@@@?$_Tree_val@U?$_Tree_simple_types@U?$pair@$$CBEPAVCCamera@@@std@@@std@@@std@@QAEXAAV?$allocator@U?$_Tree_node@U?$pair@$$CBEPAVCCamera@@@std@@PAX@std@@@1@PAU?$_Tree_node@U?$pair@$$CBEPAVCCamera@@@std@@PAX@1@@Z PROC ; std::_Tree_val<std::_Tree_simple_types<std::pair<unsigned char const ,CCamera *> > >::_Erase_tree<std::allocator<std::_Tree_node<std::pair<unsigned char const ,CCamera *>,void *> > >, COMDAT
; _this$ = ecx

; 742  :     void _Erase_tree(_Alnode& _Al, _Nodeptr _Rootnode) noexcept {

  00000	55		 push	 ebp
  00001	8b ec		 mov	 ebp, esp
  00003	83 ec 14	 sub	 esp, 20			; 00000014H
  00006	89 4d f8	 mov	 DWORD PTR _this$[ebp], ecx
$LN2@Erase_tree:

; 743  :         while (!_Rootnode->_Isnil) { // free subtrees, then node

  00009	8b 45 0c	 mov	 eax, DWORD PTR __Rootnode$[ebp]
  0000c	0f be 40 0d	 movsx	 eax, BYTE PTR [eax+13]
  00010	85 c0		 test	 eax, eax
  00012	75 43		 jne	 SHORT $LN4@Erase_tree

; 744  :             _Erase_tree(_Al, _Rootnode->_Right);

  00014	8b 45 0c	 mov	 eax, DWORD PTR __Rootnode$[ebp]
  00017	ff 70 08	 push	 DWORD PTR [eax+8]
  0001a	ff 75 08	 push	 DWORD PTR __Al$[ebp]
  0001d	8b 4d f8	 mov	 ecx, DWORD PTR _this$[ebp]
  00020	e8 00 00 00 00	 call	 ??$_Erase_tree@V?$allocator@U?$_Tree_node@U?$pair@$$CBEPAVCCamera@@@std@@PAX@std@@@std@@@?$_Tree_val@U?$_Tree_simple_types@U?$pair@$$CBEPAVCCamera@@@std@@@std@@@std@@QAEXAAV?$allocator@U?$_Tree_node@U?$pair@$$CBEPAVCCamera@@@std@@PAX@std@@@1@PAU?$_Tree_node@U?$pair@$$CBEPAVCCamera@@@std@@PAX@1@@Z ; std::_Tree_val<std::_Tree_simple_types<std::pair<unsigned char const ,CCamera *> > >::_Erase_tree<std::allocator<std::_Tree_node<std::pair<unsigned char const ,CCamera *>,void *> > >

; 745  :             _Alnode::value_type::_Freenode(_Al, _STD exchange(_Rootnode, _Rootnode->_Left));

  00025	8b 45 0c	 mov	 eax, DWORD PTR __Rootnode$[ebp]
  00028	89 45 f4	 mov	 DWORD PTR __New_val$[ebp], eax
; File C:\Program Files (x86)\Microsoft Visual Studio\2019\Community\VC\Tools\MSVC\14.28.29333\include\utility

; 598  :     _Ty _Old_val = static_cast<_Ty&&>(_Val);

  0002b	8b 45 0c	 mov	 eax, DWORD PTR __Rootnode$[ebp]
  0002e	89 45 f0	 mov	 DWORD PTR __Old_val$2[ebp], eax

; 599  :     _Val         = static_cast<_Other&&>(_New_val);

  00031	8b 45 f4	 mov	 eax, DWORD PTR __New_val$[ebp]
  00034	8b 00		 mov	 eax, DWORD PTR [eax]
  00036	89 45 0c	 mov	 DWORD PTR __Rootnode$[ebp], eax

; 600  :     return _Old_val;

  00039	8b 45 f0	 mov	 eax, DWORD PTR __Old_val$2[ebp]
  0003c	89 45 fc	 mov	 DWORD PTR $T3[ebp], eax
; File C:\Program Files (x86)\Microsoft Visual Studio\2019\Community\VC\Tools\MSVC\14.28.29333\include\xtree

; 379  :         allocator_traits<_Alloc>::destroy(_Al, _STD addressof(_Ptr->_Myval));

  0003f	8b 45 fc	 mov	 eax, DWORD PTR $T3[ebp]
  00042	83 c0 10	 add	 eax, 16			; 00000010H
; File C:\Program Files (x86)\Microsoft Visual Studio\2019\Community\VC\Tools\MSVC\14.28.29333\include\xstddef

; 275  :     return __builtin_addressof(_Val);

  00045	89 45 ec	 mov	 DWORD PTR $T1[ebp], eax
; File C:\Program Files (x86)\Microsoft Visual Studio\2019\Community\VC\Tools\MSVC\14.28.29333\include\xtree

; 380  :         _Freenode0(_Al, _Ptr);

  00048	ff 75 fc	 push	 DWORD PTR $T3[ebp]
  0004b	ff 75 08	 push	 DWORD PTR __Al$[ebp]
  0004e	e8 00 00 00 00	 call	 ??$_Freenode0@V?$allocator@U?$_Tree_node@U?$pair@$$CBEPAVCCamera@@@std@@PAX@std@@@std@@@?$_Tree_node@U?$pair@$$CBEPAVCCamera@@@std@@PAX@std@@SAXAAV?$allocator@U?$_Tree_node@U?$pair@$$CBEPAVCCamera@@@std@@PAX@std@@@1@PAU01@@Z ; std::_Tree_node<std::pair<unsigned char const ,CCamera *>,void *>::_Freenode0<std::allocator<std::_Tree_node<std::pair<unsigned char const ,CCamera *>,void *> > >
  00053	59		 pop	 ecx
  00054	59		 pop	 ecx

; 746  :         }

  00055	eb b2		 jmp	 SHORT $LN2@Erase_tree
$LN4@Erase_tree:

; 747  :     }

  00057	c9		 leave
  00058	c2 08 00	 ret	 8
??$_Erase_tree@V?$allocator@U?$_Tree_node@U?$pair@$$CBEPAVCCamera@@@std@@PAX@std@@@std@@@?$_Tree_val@U?$_Tree_simple_types@U?$pair@$$CBEPAVCCamera@@@std@@@std@@@std@@QAEXAAV?$allocator@U?$_Tree_node@U?$pair@$$CBEPAVCCamera@@@std@@PAX@std@@@1@PAU?$_Tree_node@U?$pair@$$CBEPAVCCamera@@@std@@PAX@1@@Z ENDP ; std::_Tree_val<std::_Tree_simple_types<std::pair<unsigned char const ,CCamera *> > >::_Erase_tree<std::allocator<std::_Tree_node<std::pair<unsigned char const ,CCamera *>,void *> > >
_TEXT	ENDS
; Function compile flags: /Odspy
; File C:\Program Files (x86)\Microsoft Visual Studio\2019\Community\VC\Tools\MSVC\14.28.29333\include\xtree
; File C:\Program Files (x86)\Microsoft Visual Studio\2019\Community\VC\Tools\MSVC\14.28.29333\include\xstddef
; File C:\Program Files (x86)\Microsoft Visual Studio\2019\Community\VC\Tools\MSVC\14.28.29333\include\xtree
;	COMDAT ??$_Find@E@?$_Tree@V?$_Tmap_traits@EPAVCCamera@@U?$less@E@std@@V?$allocator@U?$pair@$$CBEPAVCCamera@@@std@@@3@$0A@@std@@@std@@ABEPAU?$_Tree_node@U?$pair@$$CBEPAVCCamera@@@std@@PAX@1@ABE@Z
_TEXT	SEGMENT
__Loc$ = -24						; size = 12
$T1 = -12						; size = 4
$T2 = -8						; size = 4
_this$ = -4						; size = 4
__Keyval$ = 8						; size = 4
??$_Find@E@?$_Tree@V?$_Tmap_traits@EPAVCCamera@@U?$less@E@std@@V?$allocator@U?$pair@$$CBEPAVCCamera@@@std@@@3@$0A@@std@@@std@@ABEPAU?$_Tree_node@U?$pair@$$CBEPAVCCamera@@@std@@PAX@1@ABE@Z PROC ; std::_Tree<std::_Tmap_traits<unsigned char,CCamera *,std::less<unsigned char>,std::allocator<std::pair<unsigned char const ,CCamera *> >,0> >::_Find<unsigned char>, COMDAT
; _this$ = ecx

; 1457 :     _NODISCARD _Nodeptr _Find(const _Other& _Keyval) const {

  00000	55		 push	 ebp
  00001	8b ec		 mov	 ebp, esp
  00003	83 ec 18	 sub	 esp, 24			; 00000018H
  00006	89 4d fc	 mov	 DWORD PTR _this$[ebp], ecx

; 1458 :         const _Tree_find_result<_Nodeptr> _Loc = _Find_lower_bound(_Keyval);

  00009	ff 75 08	 push	 DWORD PTR __Keyval$[ebp]
  0000c	8d 45 e8	 lea	 eax, DWORD PTR __Loc$[ebp]
  0000f	50		 push	 eax
  00010	8b 4d fc	 mov	 ecx, DWORD PTR _this$[ebp]
  00013	e8 00 00 00 00	 call	 ??$_Find_lower_bound@E@?$_Tree@V?$_Tmap_traits@EPAVCCamera@@U?$less@E@std@@V?$allocator@U?$pair@$$CBEPAVCCamera@@@std@@@3@$0A@@std@@@std@@IBE?AU?$_Tree_find_result@PAU?$_Tree_node@U?$pair@$$CBEPAVCCamera@@@std@@PAX@std@@@1@ABE@Z ; std::_Tree<std::_Tmap_traits<unsigned char,CCamera *,std::less<unsigned char>,std::allocator<std::pair<unsigned char const ,CCamera *> >,0> >::_Find_lower_bound<unsigned char>

; 1459 :         if (_Lower_bound_duplicate(_Loc._Bound, _Keyval)) {

  00018	ff 75 08	 push	 DWORD PTR __Keyval$[ebp]
  0001b	ff 75 f0	 push	 DWORD PTR __Loc$[ebp+8]
  0001e	8b 4d fc	 mov	 ecx, DWORD PTR _this$[ebp]
  00021	e8 00 00 00 00	 call	 ??$_Lower_bound_duplicate@E@?$_Tree@V?$_Tmap_traits@EPAVCCamera@@U?$less@E@std@@V?$allocator@U?$pair@$$CBEPAVCCamera@@@std@@@3@$0A@@std@@@std@@IBE_NQAU?$_Tree_node@U?$pair@$$CBEPAVCCamera@@@std@@PAX@1@ABE@Z ; std::_Tree<std::_Tmap_traits<unsigned char,CCamera *,std::less<unsigned char>,std::allocator<std::pair<unsigned char const ,CCamera *> >,0> >::_Lower_bound_duplicate<unsigned char>
  00026	0f b6 c0	 movzx	 eax, al
  00029	85 c0		 test	 eax, eax
  0002b	74 05		 je	 SHORT $LN2@Find

; 1460 :             return _Loc._Bound;

  0002d	8b 45 f0	 mov	 eax, DWORD PTR __Loc$[ebp+8]
  00030	eb 11		 jmp	 SHORT $LN1@Find
$LN2@Find:

; 2051 :         return _STD addressof(_Mypair._Myval2._Myval2);

  00032	8b 45 fc	 mov	 eax, DWORD PTR _this$[ebp]
; File C:\Program Files (x86)\Microsoft Visual Studio\2019\Community\VC\Tools\MSVC\14.28.29333\include\xstddef

; 275  :     return __builtin_addressof(_Val);

  00035	89 45 f8	 mov	 DWORD PTR $T2[ebp], eax
; File C:\Program Files (x86)\Microsoft Visual Studio\2019\Community\VC\Tools\MSVC\14.28.29333\include\xtree

; 2051 :         return _STD addressof(_Mypair._Myval2._Myval2);

  00038	8b 45 f8	 mov	 eax, DWORD PTR $T2[ebp]
  0003b	89 45 f4	 mov	 DWORD PTR $T1[ebp], eax

; 1461 :         }
; 1462 : 
; 1463 :         return _Get_scary()->_Myhead;

  0003e	8b 45 f4	 mov	 eax, DWORD PTR $T1[ebp]
  00041	8b 00		 mov	 eax, DWORD PTR [eax]
$LN1@Find:

; 1464 :     }

  00043	c9		 leave
  00044	c2 04 00	 ret	 4
??$_Find@E@?$_Tree@V?$_Tmap_traits@EPAVCCamera@@U?$less@E@std@@V?$allocator@U?$pair@$$CBEPAVCCamera@@@std@@@3@$0A@@std@@@std@@ABEPAU?$_Tree_node@U?$pair@$$CBEPAVCCamera@@@std@@PAX@1@ABE@Z ENDP ; std::_Tree<std::_Tmap_traits<unsigned char,CCamera *,std::less<unsigned char>,std::allocator<std::pair<unsigned char const ,CCamera *> >,0> >::_Find<unsigned char>
_TEXT	ENDS
; Function compile flags: /Odspy
; File C:\Program Files (x86)\Microsoft Visual Studio\2019\Community\VC\Tools\MSVC\14.28.29333\include\map
; File C:\Program Files (x86)\Microsoft Visual Studio\2019\Community\VC\Tools\MSVC\14.28.29333\include\xtree
; File C:\Program Files (x86)\Microsoft Visual Studio\2019\Community\VC\Tools\MSVC\14.28.29333\include\xmemory
; File C:\Program Files (x86)\Microsoft Visual Studio\2019\Community\VC\Tools\MSVC\14.28.29333\include\xtree
; File C:\Program Files (x86)\Microsoft Visual Studio\2019\Community\VC\Tools\MSVC\14.28.29333\include\xstddef
; File C:\Program Files (x86)\Microsoft Visual Studio\2019\Community\VC\Tools\MSVC\14.28.29333\include\xtree
; File C:\Program Files (x86)\Microsoft Visual Studio\2019\Community\VC\Tools\MSVC\14.28.29333\include\map
; File C:\Program Files (x86)\Microsoft Visual Studio\2019\Community\VC\Tools\MSVC\14.28.29333\include\type_traits
; File C:\Program Files (x86)\Microsoft Visual Studio\2019\Community\VC\Tools\MSVC\14.28.29333\include\utility
; File C:\Program Files (x86)\Microsoft Visual Studio\2019\Community\VC\Tools\MSVC\14.28.29333\include\type_traits
; File C:\Program Files (x86)\Microsoft Visual Studio\2019\Community\VC\Tools\MSVC\14.28.29333\include\utility
; File C:\Program Files (x86)\Microsoft Visual Studio\2019\Community\VC\Tools\MSVC\14.28.29333\include\map
; File C:\Program Files (x86)\Microsoft Visual Studio\2019\Community\VC\Tools\MSVC\14.28.29333\include\xtree
; File C:\Program Files (x86)\Microsoft Visual Studio\2019\Community\VC\Tools\MSVC\14.28.29333\include\xstddef
; File C:\Program Files (x86)\Microsoft Visual Studio\2019\Community\VC\Tools\MSVC\14.28.29333\include\xtree
; File C:\Program Files (x86)\Microsoft Visual Studio\2019\Community\VC\Tools\MSVC\14.28.29333\include\tuple
; File C:\Program Files (x86)\Microsoft Visual Studio\2019\Community\VC\Tools\MSVC\14.28.29333\include\type_traits
; File C:\Program Files (x86)\Microsoft Visual Studio\2019\Community\VC\Tools\MSVC\14.28.29333\include\tuple
; File C:\Program Files (x86)\Microsoft Visual Studio\2019\Community\VC\Tools\MSVC\14.28.29333\include\type_traits
; File C:\Program Files (x86)\Microsoft Visual Studio\2019\Community\VC\Tools\MSVC\14.28.29333\include\tuple
; File C:\Program Files (x86)\Microsoft Visual Studio\2019\Community\VC\Tools\MSVC\14.28.29333\include\xtree
; File C:\Program Files (x86)\Microsoft Visual Studio\2019\Community\VC\Tools\MSVC\14.28.29333\include\xmemory
; File C:\Program Files (x86)\Microsoft Visual Studio\2019\Community\VC\Tools\MSVC\14.28.29333\include\xtree
; File C:\Program Files (x86)\Microsoft Visual Studio\2019\Community\VC\Tools\MSVC\14.28.29333\include\map
; File C:\Program Files (x86)\Microsoft Visual Studio\2019\Community\VC\Tools\MSVC\14.28.29333\include\xmemory
; File C:\Program Files (x86)\Microsoft Visual Studio\2019\Community\VC\Tools\MSVC\14.28.29333\include\utility
; File C:\Program Files (x86)\Microsoft Visual Studio\2019\Community\VC\Tools\MSVC\14.28.29333\include\xmemory
; File C:\Program Files (x86)\Microsoft Visual Studio\2019\Community\VC\Tools\MSVC\14.28.29333\include\map
; File C:\Program Files (x86)\Microsoft Visual Studio\2019\Community\VC\Tools\MSVC\14.28.29333\include\type_traits
; File C:\Program Files (x86)\Microsoft Visual Studio\2019\Community\VC\Tools\MSVC\14.28.29333\include\utility
; File C:\Program Files (x86)\Microsoft Visual Studio\2019\Community\VC\Tools\MSVC\14.28.29333\include\type_traits
; File C:\Program Files (x86)\Microsoft Visual Studio\2019\Community\VC\Tools\MSVC\14.28.29333\include\utility
; File C:\Program Files (x86)\Microsoft Visual Studio\2019\Community\VC\Tools\MSVC\14.28.29333\include\map
;	COMDAT ??$_Try_emplace@ABE$$V@?$map@EPAVCCamera@@U?$less@E@std@@V?$allocator@U?$pair@$$CBEPAVCCamera@@@std@@@3@@std@@AAE?AU?$pair@PAU?$_Tree_node@U?$pair@$$CBEPAVCCamera@@@std@@PAX@std@@_N@1@ABE@Z
_TEXT	SEGMENT
$T1 = -32						; size = 8
$T2 = -24						; size = 4
__Loc$ = -20						; size = 12
$T3 = -8						; size = 4
$T4 = -4						; size = 4
$T5 = 0							; size = 4
__Inserted$ = 4						; size = 4
$T6 = 8							; size = 4
__Old_val$7 = 12					; size = 4
$T8 = 16						; size = 4
$T9 = 20						; size = 4
$T10 = 24						; size = 4
$T11 = 28						; size = 4
$T12 = 32						; size = 4
$T13 = 36						; size = 4
$T14 = 40						; size = 4
$T15 = 44						; size = 4
_this$16 = 48						; size = 4
$T17 = 52						; size = 4
$T18 = 56						; size = 4
$T19 = 60						; size = 4
$T20 = 64						; size = 4
$T21 = 68						; size = 4
$T22 = 72						; size = 4
$T23 = 76						; size = 4
__Scary$ = 80						; size = 4
__Val$ = 84						; size = 4
tv170 = 88						; size = 4
tv198 = 92						; size = 4
__Bound$ = 96						; size = 4
$T24 = 103						; size = 1
_this$ = 104						; size = 4
$T25 = 110						; size = 1
$T26 = 111						; size = 1
___$ReturnUdt$ = 120					; size = 4
__Keyval$ = 124						; size = 4
??$_Try_emplace@ABE$$V@?$map@EPAVCCamera@@U?$less@E@std@@V?$allocator@U?$pair@$$CBEPAVCCamera@@@std@@@3@@std@@AAE?AU?$pair@PAU?$_Tree_node@U?$pair@$$CBEPAVCCamera@@@std@@PAX@std@@_N@1@ABE@Z PROC ; std::map<unsigned char,CCamera *,std::less<unsigned char>,std::allocator<std::pair<unsigned char const ,CCamera *> > >::_Try_emplace<unsigned char const &>, COMDAT
; _this$ = ecx

; 175  :     pair<_Nodeptr, bool> _Try_emplace(_Keyty&& _Keyval, _Mappedty&&... _Mapval) {

  00000	55		 push	 ebp
  00001	8d 6c 24 90	 lea	 ebp, DWORD PTR [esp-112]
  00005	81 ec 90 00 00
	00		 sub	 esp, 144		; 00000090H
  0000b	89 4d 68	 mov	 DWORD PTR _this$[ebp], ecx

; 176  :         const auto _Loc = _Mybase::_Find_lower_bound(_Keyval);

  0000e	ff 75 7c	 push	 DWORD PTR __Keyval$[ebp]
  00011	8d 45 ec	 lea	 eax, DWORD PTR __Loc$[ebp]
  00014	50		 push	 eax
  00015	8b 4d 68	 mov	 ecx, DWORD PTR _this$[ebp]
  00018	e8 00 00 00 00	 call	 ??$_Find_lower_bound@E@?$_Tree@V?$_Tmap_traits@EPAVCCamera@@U?$less@E@std@@V?$allocator@U?$pair@$$CBEPAVCCamera@@@std@@@3@$0A@@std@@@std@@IBE?AU?$_Tree_find_result@PAU?$_Tree_node@U?$pair@$$CBEPAVCCamera@@@std@@PAX@std@@@1@ABE@Z ; std::_Tree<std::_Tmap_traits<unsigned char,CCamera *,std::less<unsigned char>,std::allocator<std::pair<unsigned char const ,CCamera *> >,0> >::_Find_lower_bound<unsigned char>

; 177  :         if (_Mybase::_Lower_bound_duplicate(_Loc._Bound, _Keyval)) {

  0001d	8b 45 f4	 mov	 eax, DWORD PTR __Loc$[ebp+8]
  00020	89 45 60	 mov	 DWORD PTR __Bound$[ebp], eax
; File C:\Program Files (x86)\Microsoft Visual Studio\2019\Community\VC\Tools\MSVC\14.28.29333\include\xtree

; 1695 :         return !_Bound->_Isnil && !_DEBUG_LT_PRED(_Getcomp(), _Keyval, _Traits::_Kfn(_Bound->_Myval));

  00023	8b 45 60	 mov	 eax, DWORD PTR __Bound$[ebp]
  00026	0f be 40 0d	 movsx	 eax, BYTE PTR [eax+13]
  0002a	85 c0		 test	 eax, eax
  0002c	75 3b		 jne	 SHORT $LN31@Try_emplac

; 2035 :         return _Mypair._Get_first();

  0002e	8b 45 68	 mov	 eax, DWORD PTR _this$[ebp]
; File C:\Program Files (x86)\Microsoft Visual Studio\2019\Community\VC\Tools\MSVC\14.28.29333\include\xmemory

; 1351 :         return *this;

  00031	89 45 4c	 mov	 DWORD PTR $T23[ebp], eax
; File C:\Program Files (x86)\Microsoft Visual Studio\2019\Community\VC\Tools\MSVC\14.28.29333\include\xtree

; 2035 :         return _Mypair._Get_first();

  00034	8b 45 4c	 mov	 eax, DWORD PTR $T23[ebp]
  00037	89 45 e8	 mov	 DWORD PTR $T2[ebp], eax
; File C:\Program Files (x86)\Microsoft Visual Studio\2019\Community\VC\Tools\MSVC\14.28.29333\include\xstddef

; 127  :         return _Left < _Right;

  0003a	8b 45 7c	 mov	 eax, DWORD PTR __Keyval$[ebp]
  0003d	0f b6 00	 movzx	 eax, BYTE PTR [eax]
  00040	8b 4d 60	 mov	 ecx, DWORD PTR __Bound$[ebp]
  00043	0f b6 49 10	 movzx	 ecx, BYTE PTR [ecx+16]
  00047	3b c1		 cmp	 eax, ecx
  00049	7d 09		 jge	 SHORT $LN43@Try_emplac
  0004b	c7 45 5c 01 00
	00 00		 mov	 DWORD PTR tv198[ebp], 1
  00052	eb 04		 jmp	 SHORT $LN41@Try_emplac
$LN43@Try_emplac:
  00054	83 65 5c 00	 and	 DWORD PTR tv198[ebp], 0
$LN41@Try_emplac:
; File C:\Program Files (x86)\Microsoft Visual Studio\2019\Community\VC\Tools\MSVC\14.28.29333\include\xtree

; 1695 :         return !_Bound->_Isnil && !_DEBUG_LT_PRED(_Getcomp(), _Keyval, _Traits::_Kfn(_Bound->_Myval));

  00058	0f b6 45 5c	 movzx	 eax, BYTE PTR tv198[ebp]
  0005c	85 c0		 test	 eax, eax
  0005e	75 09		 jne	 SHORT $LN31@Try_emplac
  00060	c7 45 58 01 00
	00 00		 mov	 DWORD PTR tv170[ebp], 1
  00067	eb 04		 jmp	 SHORT $LN29@Try_emplac
$LN31@Try_emplac:
  00069	83 65 58 00	 and	 DWORD PTR tv170[ebp], 0
$LN29@Try_emplac:
; File C:\Program Files (x86)\Microsoft Visual Studio\2019\Community\VC\Tools\MSVC\14.28.29333\include\map

; 177  :         if (_Mybase::_Lower_bound_duplicate(_Loc._Bound, _Keyval)) {

  0006d	0f b6 45 58	 movzx	 eax, BYTE PTR tv170[ebp]
  00071	85 c0		 test	 eax, eax
  00073	74 2d		 je	 SHORT $LN2@Try_emplac

; 178  :             return {_Loc._Bound, false};

  00075	c6 45 6f 00	 mov	 BYTE PTR $T26[ebp], 0
; File C:\Program Files (x86)\Microsoft Visual Studio\2019\Community\VC\Tools\MSVC\14.28.29333\include\type_traits

; 1443 :     return static_cast<_Ty&&>(_Arg);

  00079	8d 45 f4	 lea	 eax, DWORD PTR __Loc$[ebp+8]
  0007c	89 45 48	 mov	 DWORD PTR $T22[ebp], eax
; File C:\Program Files (x86)\Microsoft Visual Studio\2019\Community\VC\Tools\MSVC\14.28.29333\include\utility

; 190  :         : first(_STD forward<_Other1>(_Val1)), second(_STD forward<_Other2>(_Val2)) {}

  0007f	8b 45 78	 mov	 eax, DWORD PTR ___$ReturnUdt$[ebp]
  00082	8b 4d 48	 mov	 ecx, DWORD PTR $T22[ebp]
  00085	8b 09		 mov	 ecx, DWORD PTR [ecx]
  00087	89 08		 mov	 DWORD PTR [eax], ecx
; File C:\Program Files (x86)\Microsoft Visual Studio\2019\Community\VC\Tools\MSVC\14.28.29333\include\type_traits

; 1443 :     return static_cast<_Ty&&>(_Arg);

  00089	8d 45 6f	 lea	 eax, DWORD PTR $T26[ebp]
  0008c	89 45 44	 mov	 DWORD PTR $T21[ebp], eax
; File C:\Program Files (x86)\Microsoft Visual Studio\2019\Community\VC\Tools\MSVC\14.28.29333\include\utility

; 190  :         : first(_STD forward<_Other1>(_Val1)), second(_STD forward<_Other2>(_Val2)) {}

  0008f	8b 45 78	 mov	 eax, DWORD PTR ___$ReturnUdt$[ebp]
  00092	8b 4d 44	 mov	 ecx, DWORD PTR $T21[ebp]
  00095	8a 09		 mov	 cl, BYTE PTR [ecx]
  00097	88 48 04	 mov	 BYTE PTR [eax+4], cl
; File C:\Program Files (x86)\Microsoft Visual Studio\2019\Community\VC\Tools\MSVC\14.28.29333\include\map

; 178  :             return {_Loc._Bound, false};

  0009a	8b 45 78	 mov	 eax, DWORD PTR ___$ReturnUdt$[ebp]
  0009d	e9 dd 00 00 00	 jmp	 $LN1@Try_emplac
$LN2@Try_emplac:

; 179  :         }
; 180  : 
; 181  :         _Mybase::_Check_grow_by_1();

  000a2	8b 4d 68	 mov	 ecx, DWORD PTR _this$[ebp]
  000a5	e8 00 00 00 00	 call	 ?_Check_grow_by_1@?$_Tree@V?$_Tmap_traits@EPAVCCamera@@U?$less@E@std@@V?$allocator@U?$pair@$$CBEPAVCCamera@@@std@@@3@$0A@@std@@@std@@IAEXXZ ; std::_Tree<std::_Tmap_traits<unsigned char,CCamera *,std::less<unsigned char>,std::allocator<std::pair<unsigned char const ,CCamera *> >,0> >::_Check_grow_by_1
; File C:\Program Files (x86)\Microsoft Visual Studio\2019\Community\VC\Tools\MSVC\14.28.29333\include\xtree

; 2047 :         return _STD addressof(_Mypair._Myval2._Myval2);

  000aa	8b 45 68	 mov	 eax, DWORD PTR _this$[ebp]
; File C:\Program Files (x86)\Microsoft Visual Studio\2019\Community\VC\Tools\MSVC\14.28.29333\include\xstddef

; 275  :     return __builtin_addressof(_Val);

  000ad	89 45 40	 mov	 DWORD PTR $T20[ebp], eax
; File C:\Program Files (x86)\Microsoft Visual Studio\2019\Community\VC\Tools\MSVC\14.28.29333\include\xtree

; 2047 :         return _STD addressof(_Mypair._Myval2._Myval2);

  000b0	8b 45 40	 mov	 eax, DWORD PTR $T20[ebp]
  000b3	89 45 50	 mov	 DWORD PTR __Scary$[ebp], eax
; File C:\Program Files (x86)\Microsoft Visual Studio\2019\Community\VC\Tools\MSVC\14.28.29333\include\tuple

; 854  :     return tuple<_Types&&...>(_STD forward<_Types>(_Args)...);

  000b6	8d 45 67	 lea	 eax, DWORD PTR $T24[ebp]
  000b9	89 45 20	 mov	 DWORD PTR $T12[ebp], eax
; File C:\Program Files (x86)\Microsoft Visual Studio\2019\Community\VC\Tools\MSVC\14.28.29333\include\type_traits

; 1443 :     return static_cast<_Ty&&>(_Arg);

  000bc	8b 45 7c	 mov	 eax, DWORD PTR __Keyval$[ebp]
  000bf	89 45 3c	 mov	 DWORD PTR $T19[ebp], eax
  000c2	8b 45 3c	 mov	 eax, DWORD PTR $T19[ebp]
  000c5	89 45 38	 mov	 DWORD PTR $T18[ebp], eax
  000c8	8b 45 38	 mov	 eax, DWORD PTR $T18[ebp]
  000cb	89 45 34	 mov	 DWORD PTR $T17[ebp], eax
; File C:\Program Files (x86)\Microsoft Visual Studio\2019\Community\VC\Tools\MSVC\14.28.29333\include\tuple

; 245  :         : _Mybase(_Exact_args_t{}, _STD forward<_Rest2>(_Rest_arg)...), _Myfirst(_STD forward<_This2>(_This_arg)) {}

  000ce	8d 45 28	 lea	 eax, DWORD PTR $T14[ebp]
  000d1	89 45 30	 mov	 DWORD PTR _this$16[ebp], eax
; File C:\Program Files (x86)\Microsoft Visual Studio\2019\Community\VC\Tools\MSVC\14.28.29333\include\type_traits

; 1443 :     return static_cast<_Ty&&>(_Arg);

  000d4	8b 45 34	 mov	 eax, DWORD PTR $T17[ebp]
  000d7	89 45 2c	 mov	 DWORD PTR $T15[ebp], eax
; File C:\Program Files (x86)\Microsoft Visual Studio\2019\Community\VC\Tools\MSVC\14.28.29333\include\tuple

; 163  :     constexpr _Tuple_val(_Other&& _Arg) : _Val(_STD forward<_Other>(_Arg)) {}

  000da	8b 45 30	 mov	 eax, DWORD PTR _this$16[ebp]
  000dd	8b 4d 2c	 mov	 ecx, DWORD PTR $T15[ebp]
  000e0	89 08		 mov	 DWORD PTR [eax], ecx

; 854  :     return tuple<_Types&&...>(_STD forward<_Types>(_Args)...);

  000e2	8d 45 28	 lea	 eax, DWORD PTR $T14[ebp]
  000e5	89 45 1c	 mov	 DWORD PTR $T11[ebp], eax
; File C:\Program Files (x86)\Microsoft Visual Studio\2019\Community\VC\Tools\MSVC\14.28.29333\include\xtree

; 2039 :         return _Mypair._Myval2._Get_first();

  000e8	8b 45 68	 mov	 eax, DWORD PTR _this$[ebp]
; File C:\Program Files (x86)\Microsoft Visual Studio\2019\Community\VC\Tools\MSVC\14.28.29333\include\xmemory

; 1347 :         return *this;

  000eb	89 45 24	 mov	 DWORD PTR $T13[ebp], eax
; File C:\Program Files (x86)\Microsoft Visual Studio\2019\Community\VC\Tools\MSVC\14.28.29333\include\xtree

; 2039 :         return _Mypair._Myval2._Get_first();

  000ee	8b 45 24	 mov	 eax, DWORD PTR $T13[ebp]
  000f1	89 45 18	 mov	 DWORD PTR $T10[ebp], eax
; File C:\Program Files (x86)\Microsoft Visual Studio\2019\Community\VC\Tools\MSVC\14.28.29333\include\map

; 184  :         const auto _Inserted = _Tree_temp_node<_Alnode>(_Mybase::_Getal(), _Scary->_Myhead, piecewise_construct,

  000f4	ff 75 20	 push	 DWORD PTR $T12[ebp]
  000f7	ff 75 1c	 push	 DWORD PTR $T11[ebp]
  000fa	68 00 00 00 00	 push	 OFFSET ?piecewise_construct@std@@3Upiecewise_construct_t@1@B
  000ff	8b 45 50	 mov	 eax, DWORD PTR __Scary$[ebp]
  00102	ff 30		 push	 DWORD PTR [eax]
  00104	ff 75 18	 push	 DWORD PTR $T10[ebp]
  00107	8d 4d e0	 lea	 ecx, DWORD PTR $T1[ebp]
  0010a	e8 00 00 00 00	 call	 ??$?0ABUpiecewise_construct_t@std@@V?$tuple@ABE@1@V?$tuple@$$V@1@@?$_Tree_temp_node@V?$allocator@U?$_Tree_node@U?$pair@$$CBEPAVCCamera@@@std@@PAX@std@@@std@@@std@@QAE@AAV?$allocator@U?$_Tree_node@U?$pair@$$CBEPAVCCamera@@@std@@PAX@std@@@1@PAU?$_Tree_node@U?$pair@$$CBEPAVCCamera@@@std@@PAX@1@ABUpiecewise_construct_t@1@$$QAV?$tuple@ABE@1@$$QAV?$tuple@$$V@1@@Z ; std::_Tree_temp_node<std::allocator<std::_Tree_node<std::pair<unsigned char const ,CCamera *>,void *> > >::_Tree_temp_node<std::allocator<std::_Tree_node<std::pair<unsigned char const ,CCamera *>,void *> > ><std::piecewise_construct_t const &,std::tuple<unsigned char const &>,std::tuple<> >
  0010f	89 45 14	 mov	 DWORD PTR $T9[ebp], eax
; File C:\Program Files (x86)\Microsoft Visual Studio\2019\Community\VC\Tools\MSVC\14.28.29333\include\xmemory

; 1048 :         return _STD exchange(_Ptr, nullptr);

  00112	83 65 10 00	 and	 DWORD PTR $T8[ebp], 0
  00116	8b 45 14	 mov	 eax, DWORD PTR $T9[ebp]
  00119	83 c0 04	 add	 eax, 4
  0011c	89 45 54	 mov	 DWORD PTR __Val$[ebp], eax
; File C:\Program Files (x86)\Microsoft Visual Studio\2019\Community\VC\Tools\MSVC\14.28.29333\include\utility

; 598  :     _Ty _Old_val = static_cast<_Ty&&>(_Val);

  0011f	8b 45 54	 mov	 eax, DWORD PTR __Val$[ebp]
  00122	8b 00		 mov	 eax, DWORD PTR [eax]
  00124	89 45 0c	 mov	 DWORD PTR __Old_val$7[ebp], eax

; 599  :     _Val         = static_cast<_Other&&>(_New_val);

  00127	8b 45 54	 mov	 eax, DWORD PTR __Val$[ebp]
  0012a	8b 4d 10	 mov	 ecx, DWORD PTR $T8[ebp]
  0012d	89 08		 mov	 DWORD PTR [eax], ecx

; 600  :     return _Old_val;

  0012f	8b 45 0c	 mov	 eax, DWORD PTR __Old_val$7[ebp]
  00132	89 45 08	 mov	 DWORD PTR $T6[ebp], eax
; File C:\Program Files (x86)\Microsoft Visual Studio\2019\Community\VC\Tools\MSVC\14.28.29333\include\xmemory

; 1048 :         return _STD exchange(_Ptr, nullptr);

  00135	8b 45 08	 mov	 eax, DWORD PTR $T6[ebp]
  00138	89 45 04	 mov	 DWORD PTR __Inserted$[ebp], eax
; File C:\Program Files (x86)\Microsoft Visual Studio\2019\Community\VC\Tools\MSVC\14.28.29333\include\map

; 184  :         const auto _Inserted = _Tree_temp_node<_Alnode>(_Mybase::_Getal(), _Scary->_Myhead, piecewise_construct,

  0013b	8d 4d e0	 lea	 ecx, DWORD PTR $T1[ebp]
  0013e	e8 00 00 00 00	 call	 ??1?$_Tree_temp_node@V?$allocator@U?$_Tree_node@U?$pair@$$CBEPAVCCamera@@@std@@PAX@std@@@std@@@std@@QAE@XZ ; std::_Tree_temp_node<std::allocator<std::_Tree_node<std::pair<unsigned char const ,CCamera *>,void *> > >::~_Tree_temp_node<std::allocator<std::_Tree_node<std::pair<unsigned char const ,CCamera *>,void *> > >

; 190  :         return {_Scary->_Insert_node(_Loc._Location, _Inserted), true};

  00143	ff 75 04	 push	 DWORD PTR __Inserted$[ebp]
  00146	ff 75 f0	 push	 DWORD PTR __Loc$[ebp+4]
  00149	ff 75 ec	 push	 DWORD PTR __Loc$[ebp]
  0014c	8b 4d 50	 mov	 ecx, DWORD PTR __Scary$[ebp]
  0014f	e8 00 00 00 00	 call	 ?_Insert_node@?$_Tree_val@U?$_Tree_simple_types@U?$pair@$$CBEPAVCCamera@@@std@@@std@@@std@@QAEPAU?$_Tree_node@U?$pair@$$CBEPAVCCamera@@@std@@PAX@2@U?$_Tree_id@PAU?$_Tree_node@U?$pair@$$CBEPAVCCamera@@@std@@PAX@std@@@2@QAU32@@Z ; std::_Tree_val<std::_Tree_simple_types<std::pair<unsigned char const ,CCamera *> > >::_Insert_node
  00154	89 45 00	 mov	 DWORD PTR $T5[ebp], eax
  00157	c6 45 6e 01	 mov	 BYTE PTR $T25[ebp], 1
; File C:\Program Files (x86)\Microsoft Visual Studio\2019\Community\VC\Tools\MSVC\14.28.29333\include\type_traits

; 1443 :     return static_cast<_Ty&&>(_Arg);

  0015b	8d 45 00	 lea	 eax, DWORD PTR $T5[ebp]
  0015e	89 45 fc	 mov	 DWORD PTR $T4[ebp], eax
; File C:\Program Files (x86)\Microsoft Visual Studio\2019\Community\VC\Tools\MSVC\14.28.29333\include\utility

; 190  :         : first(_STD forward<_Other1>(_Val1)), second(_STD forward<_Other2>(_Val2)) {}

  00161	8b 45 78	 mov	 eax, DWORD PTR ___$ReturnUdt$[ebp]
  00164	8b 4d fc	 mov	 ecx, DWORD PTR $T4[ebp]
  00167	8b 09		 mov	 ecx, DWORD PTR [ecx]
  00169	89 08		 mov	 DWORD PTR [eax], ecx
; File C:\Program Files (x86)\Microsoft Visual Studio\2019\Community\VC\Tools\MSVC\14.28.29333\include\type_traits

; 1443 :     return static_cast<_Ty&&>(_Arg);

  0016b	8d 45 6e	 lea	 eax, DWORD PTR $T25[ebp]
  0016e	89 45 f8	 mov	 DWORD PTR $T3[ebp], eax
; File C:\Program Files (x86)\Microsoft Visual Studio\2019\Community\VC\Tools\MSVC\14.28.29333\include\utility

; 190  :         : first(_STD forward<_Other1>(_Val1)), second(_STD forward<_Other2>(_Val2)) {}

  00171	8b 45 78	 mov	 eax, DWORD PTR ___$ReturnUdt$[ebp]
  00174	8b 4d f8	 mov	 ecx, DWORD PTR $T3[ebp]
  00177	8a 09		 mov	 cl, BYTE PTR [ecx]
  00179	88 48 04	 mov	 BYTE PTR [eax+4], cl
; File C:\Program Files (x86)\Microsoft Visual Studio\2019\Community\VC\Tools\MSVC\14.28.29333\include\map

; 190  :         return {_Scary->_Insert_node(_Loc._Location, _Inserted), true};

  0017c	8b 45 78	 mov	 eax, DWORD PTR ___$ReturnUdt$[ebp]
$LN1@Try_emplac:

; 191  :     }

  0017f	83 c5 70	 add	 ebp, 112		; 00000070H
  00182	c9		 leave
  00183	c2 08 00	 ret	 8
??$_Try_emplace@ABE$$V@?$map@EPAVCCamera@@U?$less@E@std@@V?$allocator@U?$pair@$$CBEPAVCCamera@@@std@@@3@@std@@AAE?AU?$pair@PAU?$_Tree_node@U?$pair@$$CBEPAVCCamera@@@std@@PAX@std@@_N@1@ABE@Z ENDP ; std::map<unsigned char,CCamera *,std::less<unsigned char>,std::allocator<std::pair<unsigned char const ,CCamera *> > >::_Try_emplace<unsigned char const &>
_TEXT	ENDS
; Function compile flags: /Odspy
; File C:\Program Files (x86)\Microsoft Visual Studio\2019\Community\VC\Tools\MSVC\14.28.29333\include\xtree
; File C:\Program Files (x86)\Microsoft Visual Studio\2019\Community\VC\Tools\MSVC\14.28.29333\include\xstddef
; File C:\Program Files (x86)\Microsoft Visual Studio\2019\Community\VC\Tools\MSVC\14.28.29333\include\xtree
; File C:\Program Files (x86)\Microsoft Visual Studio\2019\Community\VC\Tools\MSVC\14.28.29333\include\xmemory
; File C:\Program Files (x86)\Microsoft Visual Studio\2019\Community\VC\Tools\MSVC\14.28.29333\include\xtree
;	COMDAT ??$erase@V?$_Tree_iterator@V?$_Tree_val@U?$_Tree_simple_types@U?$pair@$$CBEPAVCCamera@@@std@@@std@@@std@@@std@@$0A@@?$_Tree@V?$_Tmap_traits@EPAVCCamera@@U?$less@E@std@@V?$allocator@U?$pair@$$CBEPAVCCamera@@@std@@@3@$0A@@std@@@std@@QAE?AV?$_Tree_iterator@V?$_Tree_val@U?$_Tree_simple_types@U?$pair@$$CBEPAVCCamera@@@std@@@std@@@std@@@1@V21@@Z
_TEXT	SEGMENT
$T1 = -36						; size = 4
__Scary$ = -32						; size = 4
___param0$ = -28					; size = 4
$T2 = -24						; size = 4
$T3 = -20						; size = 4
$T4 = -16						; size = 4
___param0$ = -12					; size = 4
$T5 = -8						; size = 4
_this$ = -4						; size = 4
___$ReturnUdt$ = 8					; size = 4
__Where$ = 12						; size = 4
??$erase@V?$_Tree_iterator@V?$_Tree_val@U?$_Tree_simple_types@U?$pair@$$CBEPAVCCamera@@@std@@@std@@@std@@@std@@$0A@@?$_Tree@V?$_Tmap_traits@EPAVCCamera@@U?$less@E@std@@V?$allocator@U?$pair@$$CBEPAVCCamera@@@std@@@3@$0A@@std@@@std@@QAE?AV?$_Tree_iterator@V?$_Tree_val@U?$_Tree_simple_types@U?$pair@$$CBEPAVCCamera@@@std@@@std@@@std@@@1@V21@@Z PROC ; std::_Tree<std::_Tmap_traits<unsigned char,CCamera *,std::less<unsigned char>,std::allocator<std::pair<unsigned char const ,CCamera *> >,0> >::erase<std::_Tree_iterator<std::_Tree_val<std::_Tree_simple_types<std::pair<unsigned char const ,CCamera *> > > >,0>, COMDAT
; _this$ = ecx

; 1413 :     iterator erase(iterator _Where) noexcept /* strengthened */ {

  00000	55		 push	 ebp
  00001	8b ec		 mov	 ebp, esp
  00003	83 ec 24	 sub	 esp, 36			; 00000024H
  00006	89 4d fc	 mov	 DWORD PTR _this$[ebp], ecx

; 2047 :         return _STD addressof(_Mypair._Myval2._Myval2);

  00009	8b 45 fc	 mov	 eax, DWORD PTR _this$[ebp]
; File C:\Program Files (x86)\Microsoft Visual Studio\2019\Community\VC\Tools\MSVC\14.28.29333\include\xstddef

; 275  :     return __builtin_addressof(_Val);

  0000c	89 45 f8	 mov	 DWORD PTR $T5[ebp], eax
; File C:\Program Files (x86)\Microsoft Visual Studio\2019\Community\VC\Tools\MSVC\14.28.29333\include\xtree

; 2047 :         return _STD addressof(_Mypair._Myval2._Myval2);

  0000f	8b 45 f8	 mov	 eax, DWORD PTR $T5[ebp]
  00012	89 45 e0	 mov	 DWORD PTR __Scary$[ebp], eax
; File C:\Program Files (x86)\Microsoft Visual Studio\2019\Community\VC\Tools\MSVC\14.28.29333\include\xmemory

; 1079 :         return nullptr;

  00015	83 65 dc 00	 and	 DWORD PTR $T1[ebp], 0
; File C:\Program Files (x86)\Microsoft Visual Studio\2019\Community\VC\Tools\MSVC\14.28.29333\include\xtree

; 305  :         return _Tree_unchecked_iterator<_Mytree>(this->_Ptr, static_cast<const _Mytree*>(this->_Getcont()));

  00019	8b 45 0c	 mov	 eax, DWORD PTR __Where$[ebp]
  0001c	89 45 f4	 mov	 DWORD PTR ___param0$[ebp], eax

; 39   :     _Tree_unchecked_const_iterator(_Nodeptr _Pnode, const _Mytree* _Plist) noexcept : _Ptr(_Pnode) {

  0001f	8b 45 f4	 mov	 eax, DWORD PTR ___param0$[ebp]
  00022	89 45 f0	 mov	 DWORD PTR $T4[ebp], eax

; 305  :         return _Tree_unchecked_iterator<_Mytree>(this->_Ptr, static_cast<const _Mytree*>(this->_Getcont()));

  00025	8d 45 f0	 lea	 eax, DWORD PTR $T4[ebp]
  00028	89 45 ec	 mov	 DWORD PTR $T3[ebp], eax

; 1414 :         const auto _Scary = _Get_scary();
; 1415 : #if _ITERATOR_DEBUG_LEVEL == 2
; 1416 :         _STL_VERIFY(_Where._Getcont() == _Scary, "map/set erase iterator from incorrect container");
; 1417 :         _STL_VERIFY(!_Where._Ptr->_Isnil, "cannot erase map/set end() iterator");
; 1418 : #endif // _ITERATOR_DEBUG_LEVEL == 2
; 1419 :         return iterator(_Erase_unchecked(_Where._Unwrapped()), _Scary);

  0002b	8b 45 ec	 mov	 eax, DWORD PTR $T3[ebp]
  0002e	8b 00		 mov	 eax, DWORD PTR [eax]
  00030	89 45 e8	 mov	 DWORD PTR $T2[ebp], eax
  00033	ff 75 e8	 push	 DWORD PTR $T2[ebp]
  00036	8b 4d fc	 mov	 ecx, DWORD PTR _this$[ebp]
  00039	e8 00 00 00 00	 call	 ?_Erase_unchecked@?$_Tree@V?$_Tmap_traits@EPAVCCamera@@U?$less@E@std@@V?$allocator@U?$pair@$$CBEPAVCCamera@@@std@@@3@$0A@@std@@@std@@AAEPAU?$_Tree_node@U?$pair@$$CBEPAVCCamera@@@std@@PAX@2@V?$_Tree_unchecked_const_iterator@V?$_Tree_val@U?$_Tree_simple_types@U?$pair@$$CBEPAVCCamera@@@std@@@std@@@std@@U_Iterator_base0@2@@2@@Z ; std::_Tree<std::_Tmap_traits<unsigned char,CCamera *,std::less<unsigned char>,std::allocator<std::pair<unsigned char const ,CCamera *> >,0> >::_Erase_unchecked
  0003e	89 45 e4	 mov	 DWORD PTR ___param0$[ebp], eax

; 39   :     _Tree_unchecked_const_iterator(_Nodeptr _Pnode, const _Mytree* _Plist) noexcept : _Ptr(_Pnode) {

  00041	8b 45 08	 mov	 eax, DWORD PTR ___$ReturnUdt$[ebp]
  00044	8b 4d e4	 mov	 ecx, DWORD PTR ___param0$[ebp]
  00047	89 08		 mov	 DWORD PTR [eax], ecx

; 1414 :         const auto _Scary = _Get_scary();
; 1415 : #if _ITERATOR_DEBUG_LEVEL == 2
; 1416 :         _STL_VERIFY(_Where._Getcont() == _Scary, "map/set erase iterator from incorrect container");
; 1417 :         _STL_VERIFY(!_Where._Ptr->_Isnil, "cannot erase map/set end() iterator");
; 1418 : #endif // _ITERATOR_DEBUG_LEVEL == 2
; 1419 :         return iterator(_Erase_unchecked(_Where._Unwrapped()), _Scary);

  00049	8b 45 08	 mov	 eax, DWORD PTR ___$ReturnUdt$[ebp]

; 1420 :     }

  0004c	c9		 leave
  0004d	c2 08 00	 ret	 8
??$erase@V?$_Tree_iterator@V?$_Tree_val@U?$_Tree_simple_types@U?$pair@$$CBEPAVCCamera@@@std@@@std@@@std@@@std@@$0A@@?$_Tree@V?$_Tmap_traits@EPAVCCamera@@U?$less@E@std@@V?$allocator@U?$pair@$$CBEPAVCCamera@@@std@@@3@$0A@@std@@@std@@QAE?AV?$_Tree_iterator@V?$_Tree_val@U?$_Tree_simple_types@U?$pair@$$CBEPAVCCamera@@@std@@@std@@@std@@@1@V21@@Z ENDP ; std::_Tree<std::_Tmap_traits<unsigned char,CCamera *,std::less<unsigned char>,std::allocator<std::pair<unsigned char const ,CCamera *> >,0> >::erase<std::_Tree_iterator<std::_Tree_val<std::_Tree_simple_types<std::pair<unsigned char const ,CCamera *> > > >,0>
_TEXT	ENDS
; Function compile flags: /Odspy
; File C:\Program Files (x86)\Microsoft Visual Studio\2019\Community\VC\Tools\MSVC\14.28.29333\include\xtree
; File C:\Program Files (x86)\Microsoft Visual Studio\2019\Community\VC\Tools\MSVC\14.28.29333\include\type_traits
; File C:\Program Files (x86)\Microsoft Visual Studio\2019\Community\VC\Tools\MSVC\14.28.29333\include\xtree
; File C:\Program Files (x86)\Microsoft Visual Studio\2019\Community\VC\Tools\MSVC\14.28.29333\include\xstddef
; File C:\Program Files (x86)\Microsoft Visual Studio\2019\Community\VC\Tools\MSVC\14.28.29333\include\xtree
; File C:\Program Files (x86)\Microsoft Visual Studio\2019\Community\VC\Tools\MSVC\14.28.29333\include\type_traits
; File C:\Program Files (x86)\Microsoft Visual Studio\2019\Community\VC\Tools\MSVC\14.28.29333\include\utility
; File C:\Program Files (x86)\Microsoft Visual Studio\2019\Community\VC\Tools\MSVC\14.28.29333\include\type_traits
; File C:\Program Files (x86)\Microsoft Visual Studio\2019\Community\VC\Tools\MSVC\14.28.29333\include\utility
; File C:\Program Files (x86)\Microsoft Visual Studio\2019\Community\VC\Tools\MSVC\14.28.29333\include\xtree
;	COMDAT ??$insert@$0A@$0A@@?$_Tree@V?$_Tmap_traits@EPAVCCamera@@U?$less@E@std@@V?$allocator@U?$pair@$$CBEPAVCCamera@@@std@@@3@$0A@@std@@@std@@QAE?AU?$pair@V?$_Tree_iterator@V?$_Tree_val@U?$_Tree_simple_types@U?$pair@$$CBEPAVCCamera@@@std@@@std@@@std@@@std@@_N@1@$$QAU?$pair@$$CBEPAVCCamera@@@1@@Z
_TEXT	SEGMENT
__Result$ = -40						; size = 8
$T1 = -32						; size = 4
$T2 = -28						; size = 4
$T3 = -24						; size = 4
$T4 = -20						; size = 4
___param0$ = -16					; size = 4
$T5 = -12						; size = 4
$T6 = -8						; size = 4
_this$ = -4						; size = 4
___$ReturnUdt$ = 8					; size = 4
__Val$ = 12						; size = 4
??$insert@$0A@$0A@@?$_Tree@V?$_Tmap_traits@EPAVCCamera@@U?$less@E@std@@V?$allocator@U?$pair@$$CBEPAVCCamera@@@std@@@3@$0A@@std@@@std@@QAE?AU?$pair@V?$_Tree_iterator@V?$_Tree_val@U?$_Tree_simple_types@U?$pair@$$CBEPAVCCamera@@@std@@@std@@@std@@@std@@_N@1@$$QAU?$pair@$$CBEPAVCCamera@@@1@@Z PROC ; std::_Tree<std::_Tmap_traits<unsigned char,CCamera *,std::less<unsigned char>,std::allocator<std::pair<unsigned char const ,CCamera *> >,0> >::insert<0,0>, COMDAT
; _this$ = ecx

; 1343 :     pair<iterator, bool> insert(value_type&& _Val) {

  00000	55		 push	 ebp
  00001	8b ec		 mov	 ebp, esp
  00003	83 ec 28	 sub	 esp, 40			; 00000028H
  00006	89 4d fc	 mov	 DWORD PTR _this$[ebp], ecx
; File C:\Program Files (x86)\Microsoft Visual Studio\2019\Community\VC\Tools\MSVC\14.28.29333\include\type_traits

; 1455 :     return static_cast<remove_reference_t<_Ty>&&>(_Arg);

  00009	8b 45 0c	 mov	 eax, DWORD PTR __Val$[ebp]
  0000c	89 45 f8	 mov	 DWORD PTR $T6[ebp], eax
; File C:\Program Files (x86)\Microsoft Visual Studio\2019\Community\VC\Tools\MSVC\14.28.29333\include\xtree

; 1344 :         const auto _Result = _Emplace(_STD move(_Val));

  0000f	ff 75 f8	 push	 DWORD PTR $T6[ebp]
  00012	8d 45 d8	 lea	 eax, DWORD PTR __Result$[ebp]
  00015	50		 push	 eax
  00016	8b 4d fc	 mov	 ecx, DWORD PTR _this$[ebp]
  00019	e8 00 00 00 00	 call	 ??$_Emplace@U?$pair@$$CBEPAVCCamera@@@std@@@?$_Tree@V?$_Tmap_traits@EPAVCCamera@@U?$less@E@std@@V?$allocator@U?$pair@$$CBEPAVCCamera@@@std@@@3@$0A@@std@@@std@@IAE?AU?$pair@PAU?$_Tree_node@U?$pair@$$CBEPAVCCamera@@@std@@PAX@std@@_N@1@$$QAU?$pair@$$CBEPAVCCamera@@@1@@Z ; std::_Tree<std::_Tmap_traits<unsigned char,CCamera *,std::less<unsigned char>,std::allocator<std::pair<unsigned char const ,CCamera *> >,0> >::_Emplace<std::pair<unsigned char const ,CCamera *> >

; 2047 :         return _STD addressof(_Mypair._Myval2._Myval2);

  0001e	8b 45 fc	 mov	 eax, DWORD PTR _this$[ebp]
; File C:\Program Files (x86)\Microsoft Visual Studio\2019\Community\VC\Tools\MSVC\14.28.29333\include\xstddef

; 275  :     return __builtin_addressof(_Val);

  00021	89 45 f4	 mov	 DWORD PTR $T5[ebp], eax
; File C:\Program Files (x86)\Microsoft Visual Studio\2019\Community\VC\Tools\MSVC\14.28.29333\include\xtree

; 2047 :         return _STD addressof(_Mypair._Myval2._Myval2);

  00024	8b 45 f4	 mov	 eax, DWORD PTR $T5[ebp]
  00027	89 45 e0	 mov	 DWORD PTR $T1[ebp], eax

; 1345 :         return {iterator(_Result.first, _Get_scary()), _Result.second};

  0002a	8b 45 d8	 mov	 eax, DWORD PTR __Result$[ebp]
  0002d	89 45 f0	 mov	 DWORD PTR ___param0$[ebp], eax

; 39   :     _Tree_unchecked_const_iterator(_Nodeptr _Pnode, const _Mytree* _Plist) noexcept : _Ptr(_Pnode) {

  00030	8b 45 f0	 mov	 eax, DWORD PTR ___param0$[ebp]
  00033	89 45 ec	 mov	 DWORD PTR $T4[ebp], eax
; File C:\Program Files (x86)\Microsoft Visual Studio\2019\Community\VC\Tools\MSVC\14.28.29333\include\type_traits

; 1443 :     return static_cast<_Ty&&>(_Arg);

  00036	8d 45 ec	 lea	 eax, DWORD PTR $T4[ebp]
  00039	89 45 e8	 mov	 DWORD PTR $T3[ebp], eax
; File C:\Program Files (x86)\Microsoft Visual Studio\2019\Community\VC\Tools\MSVC\14.28.29333\include\utility

; 190  :         : first(_STD forward<_Other1>(_Val1)), second(_STD forward<_Other2>(_Val2)) {}

  0003c	8b 45 e8	 mov	 eax, DWORD PTR $T3[ebp]
  0003f	8b 00		 mov	 eax, DWORD PTR [eax]
  00041	8b 4d 08	 mov	 ecx, DWORD PTR ___$ReturnUdt$[ebp]
  00044	89 01		 mov	 DWORD PTR [ecx], eax
; File C:\Program Files (x86)\Microsoft Visual Studio\2019\Community\VC\Tools\MSVC\14.28.29333\include\type_traits

; 1443 :     return static_cast<_Ty&&>(_Arg);

  00046	8d 45 dc	 lea	 eax, DWORD PTR __Result$[ebp+4]
  00049	89 45 e4	 mov	 DWORD PTR $T2[ebp], eax
; File C:\Program Files (x86)\Microsoft Visual Studio\2019\Community\VC\Tools\MSVC\14.28.29333\include\utility

; 190  :         : first(_STD forward<_Other1>(_Val1)), second(_STD forward<_Other2>(_Val2)) {}

  0004c	8b 45 08	 mov	 eax, DWORD PTR ___$ReturnUdt$[ebp]
  0004f	8b 4d e4	 mov	 ecx, DWORD PTR $T2[ebp]
  00052	8a 09		 mov	 cl, BYTE PTR [ecx]
  00054	88 48 04	 mov	 BYTE PTR [eax+4], cl
; File C:\Program Files (x86)\Microsoft Visual Studio\2019\Community\VC\Tools\MSVC\14.28.29333\include\xtree

; 1345 :         return {iterator(_Result.first, _Get_scary()), _Result.second};

  00057	8b 45 08	 mov	 eax, DWORD PTR ___$ReturnUdt$[ebp]

; 1346 :     }

  0005a	c9		 leave
  0005b	c2 08 00	 ret	 8
??$insert@$0A@$0A@@?$_Tree@V?$_Tmap_traits@EPAVCCamera@@U?$less@E@std@@V?$allocator@U?$pair@$$CBEPAVCCamera@@@std@@@3@$0A@@std@@@std@@QAE?AU?$pair@V?$_Tree_iterator@V?$_Tree_val@U?$_Tree_simple_types@U?$pair@$$CBEPAVCCamera@@@std@@@std@@@std@@@std@@_N@1@$$QAU?$pair@$$CBEPAVCCamera@@@1@@Z ENDP ; std::_Tree<std::_Tmap_traits<unsigned char,CCamera *,std::less<unsigned char>,std::allocator<std::pair<unsigned char const ,CCamera *> >,0> >::insert<0,0>
_TEXT	ENDS
; Function compile flags: /Odspy
; File C:\Program Files (x86)\Microsoft Visual Studio\2019\Community\VC\Tools\MSVC\14.28.29333\include\xtree
;	COMDAT ??E?$_Tree_unchecked_const_iterator@V?$_Tree_val@U?$_Tree_simple_types@U?$pair@$$CBEPAVCCamera@@@std@@@std@@@std@@U_Iterator_base0@2@@std@@QAEAAV01@XZ
_TEXT	SEGMENT
$T1 = -16						; size = 4
__Pnode$ = -12						; size = 4
__Pnode$2 = -8						; size = 4
_this$ = -4						; size = 4
??E?$_Tree_unchecked_const_iterator@V?$_Tree_val@U?$_Tree_simple_types@U?$pair@$$CBEPAVCCamera@@@std@@@std@@@std@@U_Iterator_base0@2@@std@@QAEAAV01@XZ PROC ; std::_Tree_unchecked_const_iterator<std::_Tree_val<std::_Tree_simple_types<std::pair<unsigned char const ,CCamera *> > >,std::_Iterator_base0>::operator++, COMDAT
; _this$ = ecx

; 51   :     _Tree_unchecked_const_iterator& operator++() noexcept {

  00000	55		 push	 ebp
  00001	8b ec		 mov	 ebp, esp
  00003	83 ec 10	 sub	 esp, 16			; 00000010H
  00006	89 4d fc	 mov	 DWORD PTR _this$[ebp], ecx

; 52   :         if (_Ptr->_Right->_Isnil) { // climb looking for right subtree

  00009	8b 45 fc	 mov	 eax, DWORD PTR _this$[ebp]
  0000c	8b 00		 mov	 eax, DWORD PTR [eax]
  0000e	8b 40 08	 mov	 eax, DWORD PTR [eax+8]
  00011	0f be 40 0d	 movsx	 eax, BYTE PTR [eax+13]
  00015	85 c0		 test	 eax, eax
  00017	74 37		 je	 SHORT $LN4@operator
$LN2@operator:

; 53   :             _Nodeptr _Pnode;
; 54   :             while (!(_Pnode = _Ptr->_Parent)->_Isnil && _Ptr == _Pnode->_Right) {

  00019	8b 45 fc	 mov	 eax, DWORD PTR _this$[ebp]
  0001c	8b 00		 mov	 eax, DWORD PTR [eax]
  0001e	8b 40 04	 mov	 eax, DWORD PTR [eax+4]
  00021	89 45 f8	 mov	 DWORD PTR __Pnode$2[ebp], eax
  00024	8b 45 f8	 mov	 eax, DWORD PTR __Pnode$2[ebp]
  00027	0f be 40 0d	 movsx	 eax, BYTE PTR [eax+13]
  0002b	85 c0		 test	 eax, eax
  0002d	75 17		 jne	 SHORT $LN3@operator
  0002f	8b 45 fc	 mov	 eax, DWORD PTR _this$[ebp]
  00032	8b 4d f8	 mov	 ecx, DWORD PTR __Pnode$2[ebp]
  00035	8b 00		 mov	 eax, DWORD PTR [eax]
  00037	3b 41 08	 cmp	 eax, DWORD PTR [ecx+8]
  0003a	75 0a		 jne	 SHORT $LN3@operator

; 55   :                 _Ptr = _Pnode; // ==> parent while right subtree

  0003c	8b 45 fc	 mov	 eax, DWORD PTR _this$[ebp]
  0003f	8b 4d f8	 mov	 ecx, DWORD PTR __Pnode$2[ebp]
  00042	89 08		 mov	 DWORD PTR [eax], ecx

; 56   :             }

  00044	eb d3		 jmp	 SHORT $LN2@operator
$LN3@operator:

; 57   : 
; 58   :             _Ptr = _Pnode; // ==> parent (head if end())

  00046	8b 45 fc	 mov	 eax, DWORD PTR _this$[ebp]
  00049	8b 4d f8	 mov	 ecx, DWORD PTR __Pnode$2[ebp]
  0004c	89 08		 mov	 DWORD PTR [eax], ecx

; 59   :         } else {

  0004e	eb 30		 jmp	 SHORT $LN5@operator
$LN4@operator:

; 60   :             _Ptr = _Mytree::_Min(_Ptr->_Right); // ==> smallest of right subtree

  00050	8b 45 fc	 mov	 eax, DWORD PTR _this$[ebp]
  00053	8b 00		 mov	 eax, DWORD PTR [eax]
  00055	8b 40 08	 mov	 eax, DWORD PTR [eax+8]
  00058	89 45 f4	 mov	 DWORD PTR __Pnode$[ebp], eax
$LN8@operator:

; 451  :         while (!_Pnode->_Left->_Isnil) {

  0005b	8b 45 f4	 mov	 eax, DWORD PTR __Pnode$[ebp]
  0005e	8b 00		 mov	 eax, DWORD PTR [eax]
  00060	0f be 40 0d	 movsx	 eax, BYTE PTR [eax+13]
  00064	85 c0		 test	 eax, eax
  00066	75 0a		 jne	 SHORT $LN9@operator

; 452  :             _Pnode = _Pnode->_Left;

  00068	8b 45 f4	 mov	 eax, DWORD PTR __Pnode$[ebp]
  0006b	8b 00		 mov	 eax, DWORD PTR [eax]
  0006d	89 45 f4	 mov	 DWORD PTR __Pnode$[ebp], eax

; 453  :         }

  00070	eb e9		 jmp	 SHORT $LN8@operator
$LN9@operator:

; 454  : 
; 455  :         return _Pnode;

  00072	8b 45 f4	 mov	 eax, DWORD PTR __Pnode$[ebp]
  00075	89 45 f0	 mov	 DWORD PTR $T1[ebp], eax

; 60   :             _Ptr = _Mytree::_Min(_Ptr->_Right); // ==> smallest of right subtree

  00078	8b 45 fc	 mov	 eax, DWORD PTR _this$[ebp]
  0007b	8b 4d f0	 mov	 ecx, DWORD PTR $T1[ebp]
  0007e	89 08		 mov	 DWORD PTR [eax], ecx
$LN5@operator:

; 61   :         }
; 62   : 
; 63   :         return *this;

  00080	8b 45 fc	 mov	 eax, DWORD PTR _this$[ebp]

; 64   :     }

  00083	c9		 leave
  00084	c3		 ret	 0
??E?$_Tree_unchecked_const_iterator@V?$_Tree_val@U?$_Tree_simple_types@U?$pair@$$CBEPAVCCamera@@@std@@@std@@@std@@U_Iterator_base0@2@@std@@QAEAAV01@XZ ENDP ; std::_Tree_unchecked_const_iterator<std::_Tree_val<std::_Tree_simple_types<std::pair<unsigned char const ,CCamera *> > >,std::_Iterator_base0>::operator++
_TEXT	ENDS
; Function compile flags: /Odspy
;	COMDAT ??__FaCameraManager@@YAXXZ
text$yd	SEGMENT
??__FaCameraManager@@YAXXZ PROC				; `dynamic atexit destructor for 'aCameraManager'', COMDAT
  00000	55		 push	 ebp
  00001	8b ec		 mov	 ebp, esp
  00003	b9 00 00 00 00	 mov	 ecx, OFFSET ?aCameraManager@@3VCCameraManager@@A ; aCameraManager
  00008	e8 00 00 00 00	 call	 ??1CCameraManager@@UAE@XZ ; CCameraManager::~CCameraManager
  0000d	5d		 pop	 ebp
  0000e	c3		 ret	 0
??__FaCameraManager@@YAXXZ ENDP				; `dynamic atexit destructor for 'aCameraManager''
text$yd	ENDS
; Function compile flags: /Odspy
; File D:\Metin2 Server Files\mainline\SRC_2014\Metin2Client\EterLib\Camera.cpp
;	COMDAT ??__EaCameraManager@@YAXXZ
text$di	SEGMENT
??__EaCameraManager@@YAXXZ PROC				; `dynamic initializer for 'aCameraManager'', COMDAT

; 11   : CCameraManager aCameraManager;	// CCameraManager Instance

  00000	55		 push	 ebp
  00001	8b ec		 mov	 ebp, esp
  00003	b9 00 00 00 00	 mov	 ecx, OFFSET ?aCameraManager@@3VCCameraManager@@A ; aCameraManager
  00008	e8 00 00 00 00	 call	 ??0CCameraManager@@QAE@XZ ; CCameraManager::CCameraManager
  0000d	68 00 00 00 00	 push	 OFFSET ??__FaCameraManager@@YAXXZ ; `dynamic atexit destructor for 'aCameraManager''
  00012	e8 00 00 00 00	 call	 _atexit
  00017	59		 pop	 ecx
  00018	5d		 pop	 ebp
  00019	c3		 ret	 0
??__EaCameraManager@@YAXXZ ENDP				; `dynamic initializer for 'aCameraManager''
text$di	ENDS
; Function compile flags: /Odspy
;	COMDAT ??_GCCameraManager@@UAEPAXI@Z
_TEXT	SEGMENT
_this$ = -4						; size = 4
___flags$ = 8						; size = 4
??_GCCameraManager@@UAEPAXI@Z PROC			; CCameraManager::`scalar deleting destructor', COMDAT
; _this$ = ecx
  00000	55		 push	 ebp
  00001	8b ec		 mov	 ebp, esp
  00003	51		 push	 ecx
  00004	89 4d fc	 mov	 DWORD PTR _this$[ebp], ecx
  00007	8b 4d fc	 mov	 ecx, DWORD PTR _this$[ebp]
  0000a	e8 00 00 00 00	 call	 ??1CCameraManager@@UAE@XZ ; CCameraManager::~CCameraManager
  0000f	8b 45 08	 mov	 eax, DWORD PTR ___flags$[ebp]
  00012	83 e0 01	 and	 eax, 1
  00015	74 0c		 je	 SHORT $LN2@scalar
  00017	6a 14		 push	 20			; 00000014H
  00019	ff 75 fc	 push	 DWORD PTR _this$[ebp]
  0001c	e8 00 00 00 00	 call	 ??3@YAXPAXI@Z		; operator delete
  00021	59		 pop	 ecx
  00022	59		 pop	 ecx
$LN2@scalar:
  00023	8b 45 fc	 mov	 eax, DWORD PTR _this$[ebp]
  00026	c9		 leave
  00027	c2 04 00	 ret	 4
??_GCCameraManager@@UAEPAXI@Z ENDP			; CCameraManager::`scalar deleting destructor'
_TEXT	ENDS
; Function compile flags: /Odspy
;	COMDAT ??1?$map@EPAVCCamera@@U?$less@E@std@@V?$allocator@U?$pair@$$CBEPAVCCamera@@@std@@@3@@std@@QAE@XZ
_TEXT	SEGMENT
_this$ = -4						; size = 4
??1?$map@EPAVCCamera@@U?$less@E@std@@V?$allocator@U?$pair@$$CBEPAVCCamera@@@std@@@3@@std@@QAE@XZ PROC ; std::map<unsigned char,CCamera *,std::less<unsigned char>,std::allocator<std::pair<unsigned char const ,CCamera *> > >::~map<unsigned char,CCamera *,std::less<unsigned char>,std::allocator<std::pair<unsigned char const ,CCamera *> > >, COMDAT
; _this$ = ecx
  00000	55		 push	 ebp
  00001	8b ec		 mov	 ebp, esp
  00003	51		 push	 ecx
  00004	89 4d fc	 mov	 DWORD PTR _this$[ebp], ecx
  00007	8b 4d fc	 mov	 ecx, DWORD PTR _this$[ebp]
  0000a	e8 00 00 00 00	 call	 ??1?$_Tree@V?$_Tmap_traits@EPAVCCamera@@U?$less@E@std@@V?$allocator@U?$pair@$$CBEPAVCCamera@@@std@@@3@$0A@@std@@@std@@QAE@XZ ; std::_Tree<std::_Tmap_traits<unsigned char,CCamera *,std::less<unsigned char>,std::allocator<std::pair<unsigned char const ,CCamera *> >,0> >::~_Tree<std::_Tmap_traits<unsigned char,CCamera *,std::less<unsigned char>,std::allocator<std::pair<unsigned char const ,CCamera *> >,0> >
  0000f	c9		 leave
  00010	c3		 ret	 0
??1?$map@EPAVCCamera@@U?$less@E@std@@V?$allocator@U?$pair@$$CBEPAVCCamera@@@std@@@3@@std@@QAE@XZ ENDP ; std::map<unsigned char,CCamera *,std::less<unsigned char>,std::allocator<std::pair<unsigned char const ,CCamera *> > >::~map<unsigned char,CCamera *,std::less<unsigned char>,std::allocator<std::pair<unsigned char const ,CCamera *> > >
_TEXT	ENDS
; Function compile flags: /Odspy
; File C:\Program Files (x86)\Microsoft Visual Studio\2019\Community\VC\Tools\MSVC\14.28.29333\include\xtree
;	COMDAT ?_Insert_node@?$_Tree_val@U?$_Tree_simple_types@U?$pair@$$CBEPAVCCamera@@@std@@@std@@@std@@QAEPAU?$_Tree_node@U?$pair@$$CBEPAVCCamera@@@std@@PAX@2@U?$_Tree_id@PAU?$_Tree_node@U?$pair@$$CBEPAVCCamera@@@std@@PAX@std@@@2@QAU32@@Z
_TEXT	SEGMENT
__Parent_sibling$1 = -20				; size = 4
__Parent_sibling$2 = -16				; size = 4
_this$ = -12						; size = 4
__Head$ = -8						; size = 4
__Pnode$3 = -4						; size = 4
__Loc$ = 8						; size = 8
__Newnode$ = 16						; size = 4
?_Insert_node@?$_Tree_val@U?$_Tree_simple_types@U?$pair@$$CBEPAVCCamera@@@std@@@std@@@std@@QAEPAU?$_Tree_node@U?$pair@$$CBEPAVCCamera@@@std@@PAX@2@U?$_Tree_id@PAU?$_Tree_node@U?$pair@$$CBEPAVCCamera@@@std@@PAX@std@@@2@QAU32@@Z PROC ; std::_Tree_val<std::_Tree_simple_types<std::pair<unsigned char const ,CCamera *> > >::_Insert_node, COMDAT
; _this$ = ecx

; 644  :     _Nodeptr _Insert_node(const _Tree_id<_Nodeptr> _Loc, const _Nodeptr _Newnode) noexcept {

  00000	55		 push	 ebp
  00001	8b ec		 mov	 ebp, esp
  00003	83 ec 14	 sub	 esp, 20			; 00000014H
  00006	89 4d f4	 mov	 DWORD PTR _this$[ebp], ecx

; 645  :         ++_Mysize;

  00009	8b 45 f4	 mov	 eax, DWORD PTR _this$[ebp]
  0000c	8b 40 04	 mov	 eax, DWORD PTR [eax+4]
  0000f	40		 inc	 eax
  00010	8b 4d f4	 mov	 ecx, DWORD PTR _this$[ebp]
  00013	89 41 04	 mov	 DWORD PTR [ecx+4], eax

; 646  :         const auto _Head  = _Myhead;

  00016	8b 45 f4	 mov	 eax, DWORD PTR _this$[ebp]
  00019	8b 00		 mov	 eax, DWORD PTR [eax]
  0001b	89 45 f8	 mov	 DWORD PTR __Head$[ebp], eax

; 647  :         _Newnode->_Parent = _Loc._Parent;

  0001e	8b 45 10	 mov	 eax, DWORD PTR __Newnode$[ebp]
  00021	8b 4d 08	 mov	 ecx, DWORD PTR __Loc$[ebp]
  00024	89 48 04	 mov	 DWORD PTR [eax+4], ecx

; 648  :         if (_Loc._Parent == _Head) { // first node in tree, just set head values

  00027	8b 45 08	 mov	 eax, DWORD PTR __Loc$[ebp]
  0002a	3b 45 f8	 cmp	 eax, DWORD PTR __Head$[ebp]
  0002d	75 29		 jne	 SHORT $LN5@Insert_nod

; 649  :             _Head->_Left     = _Newnode;

  0002f	8b 45 f8	 mov	 eax, DWORD PTR __Head$[ebp]
  00032	8b 4d 10	 mov	 ecx, DWORD PTR __Newnode$[ebp]
  00035	89 08		 mov	 DWORD PTR [eax], ecx

; 650  :             _Head->_Parent   = _Newnode;

  00037	8b 45 f8	 mov	 eax, DWORD PTR __Head$[ebp]
  0003a	8b 4d 10	 mov	 ecx, DWORD PTR __Newnode$[ebp]
  0003d	89 48 04	 mov	 DWORD PTR [eax+4], ecx

; 651  :             _Head->_Right    = _Newnode;

  00040	8b 45 f8	 mov	 eax, DWORD PTR __Head$[ebp]
  00043	8b 4d 10	 mov	 ecx, DWORD PTR __Newnode$[ebp]
  00046	89 48 08	 mov	 DWORD PTR [eax+8], ecx

; 652  :             _Newnode->_Color = _Black; // the root is black

  00049	8b 45 10	 mov	 eax, DWORD PTR __Newnode$[ebp]
  0004c	c6 40 0c 01	 mov	 BYTE PTR [eax+12], 1

; 653  :             return _Newnode;

  00050	8b 45 10	 mov	 eax, DWORD PTR __Newnode$[ebp]
  00053	e9 a3 01 00 00	 jmp	 $LN18@Insert_nod
$LN5@Insert_nod:

; 654  :         }
; 655  : 
; 656  :         _STL_INTERNAL_CHECK(_Loc._Child != _Tree_child::_Unused);
; 657  :         if (_Loc._Child == _Tree_child::_Right) { // add to right of _Loc._Parent

  00058	83 7d 0c 00	 cmp	 DWORD PTR __Loc$[ebp+4], 0
  0005c	75 1f		 jne	 SHORT $LN6@Insert_nod

; 658  :             _STL_INTERNAL_CHECK(_Loc._Parent->_Right->_Isnil);
; 659  :             _Loc._Parent->_Right = _Newnode;

  0005e	8b 45 08	 mov	 eax, DWORD PTR __Loc$[ebp]
  00061	8b 4d 10	 mov	 ecx, DWORD PTR __Newnode$[ebp]
  00064	89 48 08	 mov	 DWORD PTR [eax+8], ecx

; 660  :             if (_Loc._Parent == _Head->_Right) { // remember rightmost node

  00067	8b 45 f8	 mov	 eax, DWORD PTR __Head$[ebp]
  0006a	8b 4d 08	 mov	 ecx, DWORD PTR __Loc$[ebp]
  0006d	3b 48 08	 cmp	 ecx, DWORD PTR [eax+8]
  00070	75 09		 jne	 SHORT $LN8@Insert_nod

; 661  :                 _Head->_Right = _Newnode;

  00072	8b 45 f8	 mov	 eax, DWORD PTR __Head$[ebp]
  00075	8b 4d 10	 mov	 ecx, DWORD PTR __Newnode$[ebp]
  00078	89 48 08	 mov	 DWORD PTR [eax+8], ecx
$LN8@Insert_nod:

; 662  :             }
; 663  :         } else { // add to left of _Loc._Parent

  0007b	eb 1a		 jmp	 SHORT $LN7@Insert_nod
$LN6@Insert_nod:

; 664  :             _STL_INTERNAL_CHECK(_Loc._Parent->_Left->_Isnil);
; 665  :             _Loc._Parent->_Left = _Newnode;

  0007d	8b 45 08	 mov	 eax, DWORD PTR __Loc$[ebp]
  00080	8b 4d 10	 mov	 ecx, DWORD PTR __Newnode$[ebp]
  00083	89 08		 mov	 DWORD PTR [eax], ecx

; 666  :             if (_Loc._Parent == _Head->_Left) { // remember leftmost node

  00085	8b 45 f8	 mov	 eax, DWORD PTR __Head$[ebp]
  00088	8b 4d 08	 mov	 ecx, DWORD PTR __Loc$[ebp]
  0008b	3b 08		 cmp	 ecx, DWORD PTR [eax]
  0008d	75 08		 jne	 SHORT $LN7@Insert_nod

; 667  :                 _Head->_Left = _Newnode;

  0008f	8b 45 f8	 mov	 eax, DWORD PTR __Head$[ebp]
  00092	8b 4d 10	 mov	 ecx, DWORD PTR __Newnode$[ebp]
  00095	89 08		 mov	 DWORD PTR [eax], ecx
$LN7@Insert_nod:

; 668  :             }
; 669  :         }
; 670  : 
; 671  :         for (_Nodeptr _Pnode = _Newnode; _Pnode->_Parent->_Color == _Red;) {

  00097	8b 45 10	 mov	 eax, DWORD PTR __Newnode$[ebp]
  0009a	89 45 fc	 mov	 DWORD PTR __Pnode$3[ebp], eax
$LN4@Insert_nod:
  0009d	8b 45 fc	 mov	 eax, DWORD PTR __Pnode$3[ebp]
  000a0	8b 40 04	 mov	 eax, DWORD PTR [eax+4]
  000a3	0f be 40 0c	 movsx	 eax, BYTE PTR [eax+12]
  000a7	85 c0		 test	 eax, eax
  000a9	0f 85 3f 01 00
	00		 jne	 $LN3@Insert_nod

; 672  :             if (_Pnode->_Parent == _Pnode->_Parent->_Parent->_Left) { // fixup red-red in left subtree

  000af	8b 45 fc	 mov	 eax, DWORD PTR __Pnode$3[ebp]
  000b2	8b 40 04	 mov	 eax, DWORD PTR [eax+4]
  000b5	8b 40 04	 mov	 eax, DWORD PTR [eax+4]
  000b8	8b 4d fc	 mov	 ecx, DWORD PTR __Pnode$3[ebp]
  000bb	8b 49 04	 mov	 ecx, DWORD PTR [ecx+4]
  000be	3b 08		 cmp	 ecx, DWORD PTR [eax]
  000c0	0f 85 95 00 00
	00		 jne	 $LN10@Insert_nod

; 673  :                 const auto _Parent_sibling = _Pnode->_Parent->_Parent->_Right;

  000c6	8b 45 fc	 mov	 eax, DWORD PTR __Pnode$3[ebp]
  000c9	8b 40 04	 mov	 eax, DWORD PTR [eax+4]
  000cc	8b 40 04	 mov	 eax, DWORD PTR [eax+4]
  000cf	8b 40 08	 mov	 eax, DWORD PTR [eax+8]
  000d2	89 45 f0	 mov	 DWORD PTR __Parent_sibling$2[ebp], eax

; 674  :                 if (_Parent_sibling->_Color == _Red) { // parent's sibling has two red children, blacken both

  000d5	8b 45 f0	 mov	 eax, DWORD PTR __Parent_sibling$2[ebp]
  000d8	0f be 40 0c	 movsx	 eax, BYTE PTR [eax+12]
  000dc	85 c0		 test	 eax, eax
  000de	75 2c		 jne	 SHORT $LN12@Insert_nod

; 675  :                     _Pnode->_Parent->_Color          = _Black;

  000e0	8b 45 fc	 mov	 eax, DWORD PTR __Pnode$3[ebp]
  000e3	8b 40 04	 mov	 eax, DWORD PTR [eax+4]
  000e6	c6 40 0c 01	 mov	 BYTE PTR [eax+12], 1

; 676  :                     _Parent_sibling->_Color          = _Black;

  000ea	8b 45 f0	 mov	 eax, DWORD PTR __Parent_sibling$2[ebp]
  000ed	c6 40 0c 01	 mov	 BYTE PTR [eax+12], 1

; 677  :                     _Pnode->_Parent->_Parent->_Color = _Red;

  000f1	8b 45 fc	 mov	 eax, DWORD PTR __Pnode$3[ebp]
  000f4	8b 40 04	 mov	 eax, DWORD PTR [eax+4]
  000f7	8b 40 04	 mov	 eax, DWORD PTR [eax+4]
  000fa	c6 40 0c 00	 mov	 BYTE PTR [eax+12], 0

; 678  :                     _Pnode                           = _Pnode->_Parent->_Parent;

  000fe	8b 45 fc	 mov	 eax, DWORD PTR __Pnode$3[ebp]
  00101	8b 40 04	 mov	 eax, DWORD PTR [eax+4]
  00104	8b 40 04	 mov	 eax, DWORD PTR [eax+4]
  00107	89 45 fc	 mov	 DWORD PTR __Pnode$3[ebp], eax

; 679  :                 } else { // parent's sibling has red and black children

  0010a	eb 4a		 jmp	 SHORT $LN13@Insert_nod
$LN12@Insert_nod:

; 680  :                     if (_Pnode == _Pnode->_Parent->_Right) { // rotate right child to left

  0010c	8b 45 fc	 mov	 eax, DWORD PTR __Pnode$3[ebp]
  0010f	8b 40 04	 mov	 eax, DWORD PTR [eax+4]
  00112	8b 4d fc	 mov	 ecx, DWORD PTR __Pnode$3[ebp]
  00115	3b 48 08	 cmp	 ecx, DWORD PTR [eax+8]
  00118	75 14		 jne	 SHORT $LN14@Insert_nod

; 681  :                         _Pnode = _Pnode->_Parent;

  0011a	8b 45 fc	 mov	 eax, DWORD PTR __Pnode$3[ebp]
  0011d	8b 40 04	 mov	 eax, DWORD PTR [eax+4]
  00120	89 45 fc	 mov	 DWORD PTR __Pnode$3[ebp], eax

; 682  :                         _Lrotate(_Pnode);

  00123	ff 75 fc	 push	 DWORD PTR __Pnode$3[ebp]
  00126	8b 4d f4	 mov	 ecx, DWORD PTR _this$[ebp]
  00129	e8 00 00 00 00	 call	 ?_Lrotate@?$_Tree_val@U?$_Tree_simple_types@U?$pair@$$CBEPAVCCamera@@@std@@@std@@@std@@QAEXPAU?$_Tree_node@U?$pair@$$CBEPAVCCamera@@@std@@PAX@2@@Z ; std::_Tree_val<std::_Tree_simple_types<std::pair<unsigned char const ,CCamera *> > >::_Lrotate
$LN14@Insert_nod:

; 683  :                     }
; 684  : 
; 685  :                     _Pnode->_Parent->_Color          = _Black; // propagate red up

  0012e	8b 45 fc	 mov	 eax, DWORD PTR __Pnode$3[ebp]
  00131	8b 40 04	 mov	 eax, DWORD PTR [eax+4]
  00134	c6 40 0c 01	 mov	 BYTE PTR [eax+12], 1

; 686  :                     _Pnode->_Parent->_Parent->_Color = _Red;

  00138	8b 45 fc	 mov	 eax, DWORD PTR __Pnode$3[ebp]
  0013b	8b 40 04	 mov	 eax, DWORD PTR [eax+4]
  0013e	8b 40 04	 mov	 eax, DWORD PTR [eax+4]
  00141	c6 40 0c 00	 mov	 BYTE PTR [eax+12], 0

; 687  :                     _Rrotate(_Pnode->_Parent->_Parent);

  00145	8b 45 fc	 mov	 eax, DWORD PTR __Pnode$3[ebp]
  00148	8b 40 04	 mov	 eax, DWORD PTR [eax+4]
  0014b	ff 70 04	 push	 DWORD PTR [eax+4]
  0014e	8b 4d f4	 mov	 ecx, DWORD PTR _this$[ebp]
  00151	e8 00 00 00 00	 call	 ?_Rrotate@?$_Tree_val@U?$_Tree_simple_types@U?$pair@$$CBEPAVCCamera@@@std@@@std@@@std@@QAEXPAU?$_Tree_node@U?$pair@$$CBEPAVCCamera@@@std@@PAX@2@@Z ; std::_Tree_val<std::_Tree_simple_types<std::pair<unsigned char const ,CCamera *> > >::_Rrotate
$LN13@Insert_nod:

; 688  :                 }
; 689  :             } else { // fixup red-red in right subtree

  00156	e9 8e 00 00 00	 jmp	 $LN11@Insert_nod
$LN10@Insert_nod:

; 690  :                 const auto _Parent_sibling = _Pnode->_Parent->_Parent->_Left;

  0015b	8b 45 fc	 mov	 eax, DWORD PTR __Pnode$3[ebp]
  0015e	8b 40 04	 mov	 eax, DWORD PTR [eax+4]
  00161	8b 40 04	 mov	 eax, DWORD PTR [eax+4]
  00164	8b 00		 mov	 eax, DWORD PTR [eax]
  00166	89 45 ec	 mov	 DWORD PTR __Parent_sibling$1[ebp], eax

; 691  :                 if (_Parent_sibling->_Color == _Red) { // parent's sibling has two red children, blacken both

  00169	8b 45 ec	 mov	 eax, DWORD PTR __Parent_sibling$1[ebp]
  0016c	0f be 40 0c	 movsx	 eax, BYTE PTR [eax+12]
  00170	85 c0		 test	 eax, eax
  00172	75 2c		 jne	 SHORT $LN15@Insert_nod

; 692  :                     _Pnode->_Parent->_Color          = _Black;

  00174	8b 45 fc	 mov	 eax, DWORD PTR __Pnode$3[ebp]
  00177	8b 40 04	 mov	 eax, DWORD PTR [eax+4]
  0017a	c6 40 0c 01	 mov	 BYTE PTR [eax+12], 1

; 693  :                     _Parent_sibling->_Color          = _Black;

  0017e	8b 45 ec	 mov	 eax, DWORD PTR __Parent_sibling$1[ebp]
  00181	c6 40 0c 01	 mov	 BYTE PTR [eax+12], 1

; 694  :                     _Pnode->_Parent->_Parent->_Color = _Red;

  00185	8b 45 fc	 mov	 eax, DWORD PTR __Pnode$3[ebp]
  00188	8b 40 04	 mov	 eax, DWORD PTR [eax+4]
  0018b	8b 40 04	 mov	 eax, DWORD PTR [eax+4]
  0018e	c6 40 0c 00	 mov	 BYTE PTR [eax+12], 0

; 695  :                     _Pnode                           = _Pnode->_Parent->_Parent;

  00192	8b 45 fc	 mov	 eax, DWORD PTR __Pnode$3[ebp]
  00195	8b 40 04	 mov	 eax, DWORD PTR [eax+4]
  00198	8b 40 04	 mov	 eax, DWORD PTR [eax+4]
  0019b	89 45 fc	 mov	 DWORD PTR __Pnode$3[ebp], eax

; 696  :                 } else { // parent's sibling has red and black children

  0019e	eb 49		 jmp	 SHORT $LN11@Insert_nod
$LN15@Insert_nod:

; 697  :                     if (_Pnode == _Pnode->_Parent->_Left) { // rotate left child to right

  001a0	8b 45 fc	 mov	 eax, DWORD PTR __Pnode$3[ebp]
  001a3	8b 40 04	 mov	 eax, DWORD PTR [eax+4]
  001a6	8b 4d fc	 mov	 ecx, DWORD PTR __Pnode$3[ebp]
  001a9	3b 08		 cmp	 ecx, DWORD PTR [eax]
  001ab	75 14		 jne	 SHORT $LN17@Insert_nod

; 698  :                         _Pnode = _Pnode->_Parent;

  001ad	8b 45 fc	 mov	 eax, DWORD PTR __Pnode$3[ebp]
  001b0	8b 40 04	 mov	 eax, DWORD PTR [eax+4]
  001b3	89 45 fc	 mov	 DWORD PTR __Pnode$3[ebp], eax

; 699  :                         _Rrotate(_Pnode);

  001b6	ff 75 fc	 push	 DWORD PTR __Pnode$3[ebp]
  001b9	8b 4d f4	 mov	 ecx, DWORD PTR _this$[ebp]
  001bc	e8 00 00 00 00	 call	 ?_Rrotate@?$_Tree_val@U?$_Tree_simple_types@U?$pair@$$CBEPAVCCamera@@@std@@@std@@@std@@QAEXPAU?$_Tree_node@U?$pair@$$CBEPAVCCamera@@@std@@PAX@2@@Z ; std::_Tree_val<std::_Tree_simple_types<std::pair<unsigned char const ,CCamera *> > >::_Rrotate
$LN17@Insert_nod:

; 700  :                     }
; 701  : 
; 702  :                     _Pnode->_Parent->_Color          = _Black; // propagate red up

  001c1	8b 45 fc	 mov	 eax, DWORD PTR __Pnode$3[ebp]
  001c4	8b 40 04	 mov	 eax, DWORD PTR [eax+4]
  001c7	c6 40 0c 01	 mov	 BYTE PTR [eax+12], 1

; 703  :                     _Pnode->_Parent->_Parent->_Color = _Red;

  001cb	8b 45 fc	 mov	 eax, DWORD PTR __Pnode$3[ebp]
  001ce	8b 40 04	 mov	 eax, DWORD PTR [eax+4]
  001d1	8b 40 04	 mov	 eax, DWORD PTR [eax+4]
  001d4	c6 40 0c 00	 mov	 BYTE PTR [eax+12], 0

; 704  :                     _Lrotate(_Pnode->_Parent->_Parent);

  001d8	8b 45 fc	 mov	 eax, DWORD PTR __Pnode$3[ebp]
  001db	8b 40 04	 mov	 eax, DWORD PTR [eax+4]
  001de	ff 70 04	 push	 DWORD PTR [eax+4]
  001e1	8b 4d f4	 mov	 ecx, DWORD PTR _this$[ebp]
  001e4	e8 00 00 00 00	 call	 ?_Lrotate@?$_Tree_val@U?$_Tree_simple_types@U?$pair@$$CBEPAVCCamera@@@std@@@std@@@std@@QAEXPAU?$_Tree_node@U?$pair@$$CBEPAVCCamera@@@std@@PAX@2@@Z ; std::_Tree_val<std::_Tree_simple_types<std::pair<unsigned char const ,CCamera *> > >::_Lrotate
$LN11@Insert_nod:

; 705  :                 }
; 706  :             }
; 707  :         }

  001e9	e9 af fe ff ff	 jmp	 $LN4@Insert_nod
$LN3@Insert_nod:

; 708  : 
; 709  :         _Head->_Parent->_Color = _Black; // root is always black

  001ee	8b 45 f8	 mov	 eax, DWORD PTR __Head$[ebp]
  001f1	8b 40 04	 mov	 eax, DWORD PTR [eax+4]
  001f4	c6 40 0c 01	 mov	 BYTE PTR [eax+12], 1

; 710  :         return _Newnode;

  001f8	8b 45 10	 mov	 eax, DWORD PTR __Newnode$[ebp]
$LN18@Insert_nod:

; 711  :     }

  001fb	c9		 leave
  001fc	c2 0c 00	 ret	 12			; 0000000cH
?_Insert_node@?$_Tree_val@U?$_Tree_simple_types@U?$pair@$$CBEPAVCCamera@@@std@@@std@@@std@@QAEPAU?$_Tree_node@U?$pair@$$CBEPAVCCamera@@@std@@PAX@2@U?$_Tree_id@PAU?$_Tree_node@U?$pair@$$CBEPAVCCamera@@@std@@PAX@std@@@2@QAU32@@Z ENDP ; std::_Tree_val<std::_Tree_simple_types<std::pair<unsigned char const ,CCamera *> > >::_Insert_node
_TEXT	ENDS
; Function compile flags: /Odspy
; File C:\Program Files (x86)\Microsoft Visual Studio\2019\Community\VC\Tools\MSVC\14.28.29333\include\xtree
; File C:\Program Files (x86)\Microsoft Visual Studio\2019\Community\VC\Tools\MSVC\14.28.29333\include\type_traits
; File C:\Program Files (x86)\Microsoft Visual Studio\2019\Community\VC\Tools\MSVC\14.28.29333\include\utility
; File C:\Program Files (x86)\Microsoft Visual Studio\2019\Community\VC\Tools\MSVC\14.28.29333\include\type_traits
; File C:\Program Files (x86)\Microsoft Visual Studio\2019\Community\VC\Tools\MSVC\14.28.29333\include\utility
; File C:\Program Files (x86)\Microsoft Visual Studio\2019\Community\VC\Tools\MSVC\14.28.29333\include\type_traits
; File C:\Program Files (x86)\Microsoft Visual Studio\2019\Community\VC\Tools\MSVC\14.28.29333\include\utility
; File C:\Program Files (x86)\Microsoft Visual Studio\2019\Community\VC\Tools\MSVC\14.28.29333\include\xtree
;	COMDAT ?_Extract@?$_Tree_val@U?$_Tree_simple_types@U?$pair@$$CBEPAVCCamera@@@std@@@std@@@std@@QAEPAU?$_Tree_node@U?$pair@$$CBEPAVCCamera@@@std@@PAX@2@V?$_Tree_unchecked_const_iterator@V?$_Tree_val@U?$_Tree_simple_types@U?$pair@$$CBEPAVCCamera@@@std@@@std@@@std@@U_Iterator_base0@2@@2@@Z
_TEXT	SEGMENT
$T1 = -68						; size = 4
$T2 = -64						; size = 4
$T3 = -60						; size = 4
$T4 = -56						; size = 4
$T5 = -52						; size = 4
__Right$ = -48						; size = 4
__Left$ = -44						; size = 4
tv144 = -40						; size = 4
tv133 = -36						; size = 4
__Pnode$ = -32						; size = 4
__Pnode$ = -28						; size = 4
_this$ = -24						; size = 4
__Erasednode$ = -20					; size = 4
__Fixnode$ = -16					; size = 4
__Fixnodeparent$ = -12					; size = 4
__Pnode$ = -8						; size = 4
__Tmp$6 = -1						; size = 1
__Where$ = 8						; size = 4
?_Extract@?$_Tree_val@U?$_Tree_simple_types@U?$pair@$$CBEPAVCCamera@@@std@@@std@@@std@@QAEPAU?$_Tree_node@U?$pair@$$CBEPAVCCamera@@@std@@PAX@2@V?$_Tree_unchecked_const_iterator@V?$_Tree_val@U?$_Tree_simple_types@U?$pair@$$CBEPAVCCamera@@@std@@@std@@@std@@U_Iterator_base0@2@@2@@Z PROC ; std::_Tree_val<std::_Tree_simple_types<std::pair<unsigned char const ,CCamera *> > >::_Extract, COMDAT
; _this$ = ecx

; 502  :     _Nodeptr _Extract(_Unchecked_const_iterator _Where) noexcept {

  00000	55		 push	 ebp
  00001	8b ec		 mov	 ebp, esp
  00003	83 ec 44	 sub	 esp, 68			; 00000044H
  00006	89 4d e8	 mov	 DWORD PTR _this$[ebp], ecx

; 503  :         _Nodeptr _Erasednode = _Where._Ptr; // node to erase

  00009	8b 45 08	 mov	 eax, DWORD PTR __Where$[ebp]
  0000c	89 45 ec	 mov	 DWORD PTR __Erasednode$[ebp], eax

; 504  :         ++_Where; // save successor iterator for return

  0000f	8d 4d 08	 lea	 ecx, DWORD PTR __Where$[ebp]
  00012	e8 00 00 00 00	 call	 ??E?$_Tree_unchecked_const_iterator@V?$_Tree_val@U?$_Tree_simple_types@U?$pair@$$CBEPAVCCamera@@@std@@@std@@@std@@U_Iterator_base0@2@@std@@QAEAAV01@XZ ; std::_Tree_unchecked_const_iterator<std::_Tree_val<std::_Tree_simple_types<std::pair<unsigned char const ,CCamera *> > >,std::_Iterator_base0>::operator++

; 505  : 
; 506  :         _Nodeptr _Fixnode; // the node to recolor as needed
; 507  :         _Nodeptr _Fixnodeparent; // parent of _Fixnode (which may be nil)
; 508  :         _Nodeptr _Pnode = _Erasednode;

  00017	8b 45 ec	 mov	 eax, DWORD PTR __Erasednode$[ebp]
  0001a	89 45 f8	 mov	 DWORD PTR __Pnode$[ebp], eax

; 509  : 
; 510  :         if (_Pnode->_Left->_Isnil) {

  0001d	8b 45 f8	 mov	 eax, DWORD PTR __Pnode$[ebp]
  00020	8b 00		 mov	 eax, DWORD PTR [eax]
  00022	0f be 40 0d	 movsx	 eax, BYTE PTR [eax+13]
  00026	85 c0		 test	 eax, eax
  00028	74 0b		 je	 SHORT $LN5@Extract

; 511  :             _Fixnode = _Pnode->_Right; // stitch up right subtree

  0002a	8b 45 f8	 mov	 eax, DWORD PTR __Pnode$[ebp]
  0002d	8b 40 08	 mov	 eax, DWORD PTR [eax+8]
  00030	89 45 f0	 mov	 DWORD PTR __Fixnode$[ebp], eax
  00033	eb 27		 jmp	 SHORT $LN6@Extract
$LN5@Extract:

; 512  :         } else if (_Pnode->_Right->_Isnil) {

  00035	8b 45 f8	 mov	 eax, DWORD PTR __Pnode$[ebp]
  00038	8b 40 08	 mov	 eax, DWORD PTR [eax+8]
  0003b	0f be 40 0d	 movsx	 eax, BYTE PTR [eax+13]
  0003f	85 c0		 test	 eax, eax
  00041	74 0a		 je	 SHORT $LN7@Extract

; 513  :             _Fixnode = _Pnode->_Left; // stitch up left subtree

  00043	8b 45 f8	 mov	 eax, DWORD PTR __Pnode$[ebp]
  00046	8b 00		 mov	 eax, DWORD PTR [eax]
  00048	89 45 f0	 mov	 DWORD PTR __Fixnode$[ebp], eax

; 514  :         } else { // two subtrees, must lift successor node to replace erased

  0004b	eb 0f		 jmp	 SHORT $LN6@Extract
$LN7@Extract:

; 515  :             _Pnode   = _Where._Ptr; // _Pnode is successor node

  0004d	8b 45 08	 mov	 eax, DWORD PTR __Where$[ebp]
  00050	89 45 f8	 mov	 DWORD PTR __Pnode$[ebp], eax

; 516  :             _Fixnode = _Pnode->_Right; // _Fixnode is only subtree

  00053	8b 45 f8	 mov	 eax, DWORD PTR __Pnode$[ebp]
  00056	8b 40 08	 mov	 eax, DWORD PTR [eax+8]
  00059	89 45 f0	 mov	 DWORD PTR __Fixnode$[ebp], eax
$LN6@Extract:

; 517  :         }
; 518  : 
; 519  :         if (_Pnode == _Erasednode) { // at most one subtree, relink it

  0005c	8b 45 f8	 mov	 eax, DWORD PTR __Pnode$[ebp]
  0005f	3b 45 ec	 cmp	 eax, DWORD PTR __Erasednode$[ebp]
  00062	0f 85 01 01 00
	00		 jne	 $LN9@Extract

; 520  :             _Fixnodeparent = _Erasednode->_Parent;

  00068	8b 45 ec	 mov	 eax, DWORD PTR __Erasednode$[ebp]
  0006b	8b 40 04	 mov	 eax, DWORD PTR [eax+4]
  0006e	89 45 f4	 mov	 DWORD PTR __Fixnodeparent$[ebp], eax

; 521  :             if (!_Fixnode->_Isnil) {

  00071	8b 45 f0	 mov	 eax, DWORD PTR __Fixnode$[ebp]
  00074	0f be 40 0d	 movsx	 eax, BYTE PTR [eax+13]
  00078	85 c0		 test	 eax, eax
  0007a	75 09		 jne	 SHORT $LN11@Extract

; 522  :                 _Fixnode->_Parent = _Fixnodeparent; // link up

  0007c	8b 45 f0	 mov	 eax, DWORD PTR __Fixnode$[ebp]
  0007f	8b 4d f4	 mov	 ecx, DWORD PTR __Fixnodeparent$[ebp]
  00082	89 48 04	 mov	 DWORD PTR [eax+4], ecx
$LN11@Extract:

; 523  :             }
; 524  : 
; 525  :             if (_Myhead->_Parent == _Erasednode) {

  00085	8b 45 e8	 mov	 eax, DWORD PTR _this$[ebp]
  00088	8b 00		 mov	 eax, DWORD PTR [eax]
  0008a	8b 40 04	 mov	 eax, DWORD PTR [eax+4]
  0008d	3b 45 ec	 cmp	 eax, DWORD PTR __Erasednode$[ebp]
  00090	75 0d		 jne	 SHORT $LN12@Extract

; 526  :                 _Myhead->_Parent = _Fixnode; // link down from root

  00092	8b 45 e8	 mov	 eax, DWORD PTR _this$[ebp]
  00095	8b 00		 mov	 eax, DWORD PTR [eax]
  00097	8b 4d f0	 mov	 ecx, DWORD PTR __Fixnode$[ebp]
  0009a	89 48 04	 mov	 DWORD PTR [eax+4], ecx
  0009d	eb 1d		 jmp	 SHORT $LN13@Extract
$LN12@Extract:

; 527  :             } else if (_Fixnodeparent->_Left == _Erasednode) {

  0009f	8b 45 f4	 mov	 eax, DWORD PTR __Fixnodeparent$[ebp]
  000a2	8b 00		 mov	 eax, DWORD PTR [eax]
  000a4	3b 45 ec	 cmp	 eax, DWORD PTR __Erasednode$[ebp]
  000a7	75 0a		 jne	 SHORT $LN14@Extract

; 528  :                 _Fixnodeparent->_Left = _Fixnode; // link down to left

  000a9	8b 45 f4	 mov	 eax, DWORD PTR __Fixnodeparent$[ebp]
  000ac	8b 4d f0	 mov	 ecx, DWORD PTR __Fixnode$[ebp]
  000af	89 08		 mov	 DWORD PTR [eax], ecx

; 529  :             } else {

  000b1	eb 09		 jmp	 SHORT $LN13@Extract
$LN14@Extract:

; 530  :                 _Fixnodeparent->_Right = _Fixnode; // link down to right

  000b3	8b 45 f4	 mov	 eax, DWORD PTR __Fixnodeparent$[ebp]
  000b6	8b 4d f0	 mov	 ecx, DWORD PTR __Fixnode$[ebp]
  000b9	89 48 08	 mov	 DWORD PTR [eax+8], ecx
$LN13@Extract:

; 531  :             }
; 532  : 
; 533  :             if (_Myhead->_Left == _Erasednode) {

  000bc	8b 45 e8	 mov	 eax, DWORD PTR _this$[ebp]
  000bf	8b 00		 mov	 eax, DWORD PTR [eax]
  000c1	8b 00		 mov	 eax, DWORD PTR [eax]
  000c3	3b 45 ec	 cmp	 eax, DWORD PTR __Erasednode$[ebp]
  000c6	75 46		 jne	 SHORT $LN16@Extract

; 534  :                 _Myhead->_Left = _Fixnode->_Isnil ? _Fixnodeparent // smallest is parent of erased node

  000c8	8b 45 f0	 mov	 eax, DWORD PTR __Fixnode$[ebp]
  000cb	0f be 40 0d	 movsx	 eax, BYTE PTR [eax+13]
  000cf	85 c0		 test	 eax, eax
  000d1	74 08		 je	 SHORT $LN42@Extract
  000d3	8b 45 f4	 mov	 eax, DWORD PTR __Fixnodeparent$[ebp]
  000d6	89 45 dc	 mov	 DWORD PTR tv133[ebp], eax
  000d9	eb 29		 jmp	 SHORT $LN43@Extract
$LN42@Extract:
  000db	8b 45 f0	 mov	 eax, DWORD PTR __Fixnode$[ebp]
  000de	89 45 e4	 mov	 DWORD PTR __Pnode$[ebp], eax
  000e1	8b 45 c0	 mov	 eax, DWORD PTR $T2[ebp]
  000e4	89 45 dc	 mov	 DWORD PTR tv133[ebp], eax
$LN59@Extract:

; 451  :         while (!_Pnode->_Left->_Isnil) {

  000e7	8b 45 e4	 mov	 eax, DWORD PTR __Pnode$[ebp]
  000ea	8b 00		 mov	 eax, DWORD PTR [eax]
  000ec	0f be 40 0d	 movsx	 eax, BYTE PTR [eax+13]
  000f0	85 c0		 test	 eax, eax
  000f2	75 0a		 jne	 SHORT $LN60@Extract

; 452  :             _Pnode = _Pnode->_Left;

  000f4	8b 45 e4	 mov	 eax, DWORD PTR __Pnode$[ebp]
  000f7	8b 00		 mov	 eax, DWORD PTR [eax]
  000f9	89 45 e4	 mov	 DWORD PTR __Pnode$[ebp], eax

; 453  :         }

  000fc	eb e9		 jmp	 SHORT $LN59@Extract
$LN60@Extract:

; 454  : 
; 455  :         return _Pnode;

  000fe	8b 45 e4	 mov	 eax, DWORD PTR __Pnode$[ebp]
  00101	89 45 dc	 mov	 DWORD PTR tv133[ebp], eax
$LN43@Extract:

; 534  :                 _Myhead->_Left = _Fixnode->_Isnil ? _Fixnodeparent // smallest is parent of erased node

  00104	8b 45 e8	 mov	 eax, DWORD PTR _this$[ebp]
  00107	8b 00		 mov	 eax, DWORD PTR [eax]
  00109	8b 4d dc	 mov	 ecx, DWORD PTR tv133[ebp]
  0010c	89 08		 mov	 DWORD PTR [eax], ecx
$LN16@Extract:

; 535  :                                                   : _Min(_Fixnode); // smallest in relinked subtree
; 536  :             }
; 537  : 
; 538  :             if (_Myhead->_Right == _Erasednode) {

  0010e	8b 45 e8	 mov	 eax, DWORD PTR _this$[ebp]
  00111	8b 00		 mov	 eax, DWORD PTR [eax]
  00113	8b 40 08	 mov	 eax, DWORD PTR [eax+8]
  00116	3b 45 ec	 cmp	 eax, DWORD PTR __Erasednode$[ebp]
  00119	75 49		 jne	 SHORT $LN17@Extract

; 539  :                 _Myhead->_Right = _Fixnode->_Isnil ? _Fixnodeparent // largest is parent of erased node

  0011b	8b 45 f0	 mov	 eax, DWORD PTR __Fixnode$[ebp]
  0011e	0f be 40 0d	 movsx	 eax, BYTE PTR [eax+13]
  00122	85 c0		 test	 eax, eax
  00124	74 08		 je	 SHORT $LN44@Extract
  00126	8b 45 f4	 mov	 eax, DWORD PTR __Fixnodeparent$[ebp]
  00129	89 45 d8	 mov	 DWORD PTR tv144[ebp], eax
  0012c	eb 2b		 jmp	 SHORT $LN45@Extract
$LN44@Extract:
  0012e	8b 45 f0	 mov	 eax, DWORD PTR __Fixnode$[ebp]
  00131	89 45 e0	 mov	 DWORD PTR __Pnode$[ebp], eax
  00134	8b 45 bc	 mov	 eax, DWORD PTR $T1[ebp]
  00137	89 45 d8	 mov	 DWORD PTR tv144[ebp], eax
$LN64@Extract:

; 443  :         while (!_Pnode->_Right->_Isnil) {

  0013a	8b 45 e0	 mov	 eax, DWORD PTR __Pnode$[ebp]
  0013d	8b 40 08	 mov	 eax, DWORD PTR [eax+8]
  00140	0f be 40 0d	 movsx	 eax, BYTE PTR [eax+13]
  00144	85 c0		 test	 eax, eax
  00146	75 0b		 jne	 SHORT $LN65@Extract

; 444  :             _Pnode = _Pnode->_Right;

  00148	8b 45 e0	 mov	 eax, DWORD PTR __Pnode$[ebp]
  0014b	8b 40 08	 mov	 eax, DWORD PTR [eax+8]
  0014e	89 45 e0	 mov	 DWORD PTR __Pnode$[ebp], eax

; 445  :         }

  00151	eb e7		 jmp	 SHORT $LN64@Extract
$LN65@Extract:

; 446  : 
; 447  :         return _Pnode;

  00153	8b 45 e0	 mov	 eax, DWORD PTR __Pnode$[ebp]
  00156	89 45 d8	 mov	 DWORD PTR tv144[ebp], eax
$LN45@Extract:

; 539  :                 _Myhead->_Right = _Fixnode->_Isnil ? _Fixnodeparent // largest is parent of erased node

  00159	8b 45 e8	 mov	 eax, DWORD PTR _this$[ebp]
  0015c	8b 00		 mov	 eax, DWORD PTR [eax]
  0015e	8b 4d d8	 mov	 ecx, DWORD PTR tv144[ebp]
  00161	89 48 08	 mov	 DWORD PTR [eax+8], ecx
$LN17@Extract:

; 540  :                                                    : _Max(_Fixnode); // largest in relinked subtree
; 541  :             }
; 542  :         } else { // erased has two subtrees, _Pnode is successor to erased

  00164	e9 f1 00 00 00	 jmp	 $LN10@Extract
$LN9@Extract:

; 543  :             _Erasednode->_Left->_Parent = _Pnode; // link left up

  00169	8b 45 ec	 mov	 eax, DWORD PTR __Erasednode$[ebp]
  0016c	8b 00		 mov	 eax, DWORD PTR [eax]
  0016e	8b 4d f8	 mov	 ecx, DWORD PTR __Pnode$[ebp]
  00171	89 48 04	 mov	 DWORD PTR [eax+4], ecx

; 544  :             _Pnode->_Left               = _Erasednode->_Left; // link successor down

  00174	8b 45 f8	 mov	 eax, DWORD PTR __Pnode$[ebp]
  00177	8b 4d ec	 mov	 ecx, DWORD PTR __Erasednode$[ebp]
  0017a	8b 09		 mov	 ecx, DWORD PTR [ecx]
  0017c	89 08		 mov	 DWORD PTR [eax], ecx

; 545  : 
; 546  :             if (_Pnode == _Erasednode->_Right) {

  0017e	8b 45 ec	 mov	 eax, DWORD PTR __Erasednode$[ebp]
  00181	8b 4d f8	 mov	 ecx, DWORD PTR __Pnode$[ebp]
  00184	3b 48 08	 cmp	 ecx, DWORD PTR [eax+8]
  00187	75 08		 jne	 SHORT $LN18@Extract

; 547  :                 _Fixnodeparent = _Pnode; // successor is next to erased

  00189	8b 45 f8	 mov	 eax, DWORD PTR __Pnode$[ebp]
  0018c	89 45 f4	 mov	 DWORD PTR __Fixnodeparent$[ebp], eax

; 548  :             } else { // successor further down, link in place of erased

  0018f	eb 3d		 jmp	 SHORT $LN19@Extract
$LN18@Extract:

; 549  :                 _Fixnodeparent = _Pnode->_Parent; // parent is successor's

  00191	8b 45 f8	 mov	 eax, DWORD PTR __Pnode$[ebp]
  00194	8b 40 04	 mov	 eax, DWORD PTR [eax+4]
  00197	89 45 f4	 mov	 DWORD PTR __Fixnodeparent$[ebp], eax

; 550  :                 if (!_Fixnode->_Isnil) {

  0019a	8b 45 f0	 mov	 eax, DWORD PTR __Fixnode$[ebp]
  0019d	0f be 40 0d	 movsx	 eax, BYTE PTR [eax+13]
  001a1	85 c0		 test	 eax, eax
  001a3	75 09		 jne	 SHORT $LN20@Extract

; 551  :                     _Fixnode->_Parent = _Fixnodeparent; // link fix up

  001a5	8b 45 f0	 mov	 eax, DWORD PTR __Fixnode$[ebp]
  001a8	8b 4d f4	 mov	 ecx, DWORD PTR __Fixnodeparent$[ebp]
  001ab	89 48 04	 mov	 DWORD PTR [eax+4], ecx
$LN20@Extract:

; 552  :                 }
; 553  : 
; 554  :                 _Fixnodeparent->_Left        = _Fixnode; // link fix down

  001ae	8b 45 f4	 mov	 eax, DWORD PTR __Fixnodeparent$[ebp]
  001b1	8b 4d f0	 mov	 ecx, DWORD PTR __Fixnode$[ebp]
  001b4	89 08		 mov	 DWORD PTR [eax], ecx

; 555  :                 _Pnode->_Right               = _Erasednode->_Right; // link next down

  001b6	8b 45 f8	 mov	 eax, DWORD PTR __Pnode$[ebp]
  001b9	8b 4d ec	 mov	 ecx, DWORD PTR __Erasednode$[ebp]
  001bc	8b 49 08	 mov	 ecx, DWORD PTR [ecx+8]
  001bf	89 48 08	 mov	 DWORD PTR [eax+8], ecx

; 556  :                 _Erasednode->_Right->_Parent = _Pnode; // right up

  001c2	8b 45 ec	 mov	 eax, DWORD PTR __Erasednode$[ebp]
  001c5	8b 40 08	 mov	 eax, DWORD PTR [eax+8]
  001c8	8b 4d f8	 mov	 ecx, DWORD PTR __Pnode$[ebp]
  001cb	89 48 04	 mov	 DWORD PTR [eax+4], ecx
$LN19@Extract:

; 557  :             }
; 558  : 
; 559  :             if (_Myhead->_Parent == _Erasednode) {

  001ce	8b 45 e8	 mov	 eax, DWORD PTR _this$[ebp]
  001d1	8b 00		 mov	 eax, DWORD PTR [eax]
  001d3	8b 40 04	 mov	 eax, DWORD PTR [eax+4]
  001d6	3b 45 ec	 cmp	 eax, DWORD PTR __Erasednode$[ebp]
  001d9	75 0d		 jne	 SHORT $LN21@Extract

; 560  :                 _Myhead->_Parent = _Pnode; // link down from root

  001db	8b 45 e8	 mov	 eax, DWORD PTR _this$[ebp]
  001de	8b 00		 mov	 eax, DWORD PTR [eax]
  001e0	8b 4d f8	 mov	 ecx, DWORD PTR __Pnode$[ebp]
  001e3	89 48 04	 mov	 DWORD PTR [eax+4], ecx
  001e6	eb 26		 jmp	 SHORT $LN22@Extract
$LN21@Extract:

; 561  :             } else if (_Erasednode->_Parent->_Left == _Erasednode) {

  001e8	8b 45 ec	 mov	 eax, DWORD PTR __Erasednode$[ebp]
  001eb	8b 40 04	 mov	 eax, DWORD PTR [eax+4]
  001ee	8b 00		 mov	 eax, DWORD PTR [eax]
  001f0	3b 45 ec	 cmp	 eax, DWORD PTR __Erasednode$[ebp]
  001f3	75 0d		 jne	 SHORT $LN23@Extract

; 562  :                 _Erasednode->_Parent->_Left = _Pnode; // link down to left

  001f5	8b 45 ec	 mov	 eax, DWORD PTR __Erasednode$[ebp]
  001f8	8b 40 04	 mov	 eax, DWORD PTR [eax+4]
  001fb	8b 4d f8	 mov	 ecx, DWORD PTR __Pnode$[ebp]
  001fe	89 08		 mov	 DWORD PTR [eax], ecx

; 563  :             } else {

  00200	eb 0c		 jmp	 SHORT $LN22@Extract
$LN23@Extract:

; 564  :                 _Erasednode->_Parent->_Right = _Pnode; // link down to right

  00202	8b 45 ec	 mov	 eax, DWORD PTR __Erasednode$[ebp]
  00205	8b 40 04	 mov	 eax, DWORD PTR [eax+4]
  00208	8b 4d f8	 mov	 ecx, DWORD PTR __Pnode$[ebp]
  0020b	89 48 08	 mov	 DWORD PTR [eax+8], ecx
$LN22@Extract:

; 565  :             }
; 566  : 
; 567  :             _Pnode->_Parent = _Erasednode->_Parent; // link successor up

  0020e	8b 45 f8	 mov	 eax, DWORD PTR __Pnode$[ebp]
  00211	8b 4d ec	 mov	 ecx, DWORD PTR __Erasednode$[ebp]
  00214	8b 49 04	 mov	 ecx, DWORD PTR [ecx+4]
  00217	89 48 04	 mov	 DWORD PTR [eax+4], ecx

; 568  :             _STD swap(_Pnode->_Color, _Erasednode->_Color); // recolor it

  0021a	8b 45 ec	 mov	 eax, DWORD PTR __Erasednode$[ebp]
  0021d	83 c0 0c	 add	 eax, 12			; 0000000cH
  00220	89 45 d0	 mov	 DWORD PTR __Right$[ebp], eax
  00223	8b 45 f8	 mov	 eax, DWORD PTR __Pnode$[ebp]
  00226	83 c0 0c	 add	 eax, 12			; 0000000cH
  00229	89 45 d4	 mov	 DWORD PTR __Left$[ebp], eax
; File C:\Program Files (x86)\Microsoft Visual Studio\2019\Community\VC\Tools\MSVC\14.28.29333\include\type_traits

; 1455 :     return static_cast<remove_reference_t<_Ty>&&>(_Arg);

  0022c	8b 45 d4	 mov	 eax, DWORD PTR __Left$[ebp]
  0022f	89 45 cc	 mov	 DWORD PTR $T5[ebp], eax
; File C:\Program Files (x86)\Microsoft Visual Studio\2019\Community\VC\Tools\MSVC\14.28.29333\include\utility

; 104  :     _Ty _Tmp = _STD move(_Left);

  00232	8b 45 cc	 mov	 eax, DWORD PTR $T5[ebp]
  00235	8a 00		 mov	 al, BYTE PTR [eax]
  00237	88 45 ff	 mov	 BYTE PTR __Tmp$6[ebp], al
; File C:\Program Files (x86)\Microsoft Visual Studio\2019\Community\VC\Tools\MSVC\14.28.29333\include\type_traits

; 1455 :     return static_cast<remove_reference_t<_Ty>&&>(_Arg);

  0023a	8b 45 d0	 mov	 eax, DWORD PTR __Right$[ebp]
  0023d	89 45 c8	 mov	 DWORD PTR $T4[ebp], eax
; File C:\Program Files (x86)\Microsoft Visual Studio\2019\Community\VC\Tools\MSVC\14.28.29333\include\utility

; 105  :     _Left    = _STD move(_Right);

  00240	8b 45 d4	 mov	 eax, DWORD PTR __Left$[ebp]
  00243	8b 4d c8	 mov	 ecx, DWORD PTR $T4[ebp]
  00246	8a 09		 mov	 cl, BYTE PTR [ecx]
  00248	88 08		 mov	 BYTE PTR [eax], cl
; File C:\Program Files (x86)\Microsoft Visual Studio\2019\Community\VC\Tools\MSVC\14.28.29333\include\type_traits

; 1455 :     return static_cast<remove_reference_t<_Ty>&&>(_Arg);

  0024a	8d 45 ff	 lea	 eax, DWORD PTR __Tmp$6[ebp]
  0024d	89 45 c4	 mov	 DWORD PTR $T3[ebp], eax
; File C:\Program Files (x86)\Microsoft Visual Studio\2019\Community\VC\Tools\MSVC\14.28.29333\include\utility

; 106  :     _Right   = _STD move(_Tmp);

  00250	8b 45 d0	 mov	 eax, DWORD PTR __Right$[ebp]
  00253	8b 4d c4	 mov	 ecx, DWORD PTR $T3[ebp]
  00256	8a 09		 mov	 cl, BYTE PTR [ecx]
  00258	88 08		 mov	 BYTE PTR [eax], cl
$LN10@Extract:
; File C:\Program Files (x86)\Microsoft Visual Studio\2019\Community\VC\Tools\MSVC\14.28.29333\include\xtree

; 571  :         if (_Erasednode->_Color == _Black) { // erasing black link, must recolor/rebalance tree

  0025a	8b 45 ec	 mov	 eax, DWORD PTR __Erasednode$[ebp]
  0025d	0f be 40 0c	 movsx	 eax, BYTE PTR [eax+12]
  00261	83 f8 01	 cmp	 eax, 1
  00264	0f 85 f4 01 00
	00		 jne	 $LN25@Extract

; 572  :             for (; _Fixnode != _Myhead->_Parent && _Fixnode->_Color == _Black; _Fixnodeparent = _Fixnode->_Parent) {

  0026a	eb 09		 jmp	 SHORT $LN4@Extract
$LN2@Extract:
  0026c	8b 45 f0	 mov	 eax, DWORD PTR __Fixnode$[ebp]
  0026f	8b 40 04	 mov	 eax, DWORD PTR [eax+4]
  00272	89 45 f4	 mov	 DWORD PTR __Fixnodeparent$[ebp], eax
$LN4@Extract:
  00275	8b 45 e8	 mov	 eax, DWORD PTR _this$[ebp]
  00278	8b 00		 mov	 eax, DWORD PTR [eax]
  0027a	8b 4d f0	 mov	 ecx, DWORD PTR __Fixnode$[ebp]
  0027d	3b 48 04	 cmp	 ecx, DWORD PTR [eax+4]
  00280	0f 84 d1 01 00
	00		 je	 $LN3@Extract
  00286	8b 45 f0	 mov	 eax, DWORD PTR __Fixnode$[ebp]
  00289	0f be 40 0c	 movsx	 eax, BYTE PTR [eax+12]
  0028d	83 f8 01	 cmp	 eax, 1
  00290	0f 85 c1 01 00
	00		 jne	 $LN3@Extract

; 573  :                 if (_Fixnode == _Fixnodeparent->_Left) { // fixup left subtree

  00296	8b 45 f4	 mov	 eax, DWORD PTR __Fixnodeparent$[ebp]
  00299	8b 4d f0	 mov	 ecx, DWORD PTR __Fixnode$[ebp]
  0029c	3b 08		 cmp	 ecx, DWORD PTR [eax]
  0029e	0f 85 dd 00 00
	00		 jne	 $LN26@Extract

; 574  :                     _Pnode = _Fixnodeparent->_Right;

  002a4	8b 45 f4	 mov	 eax, DWORD PTR __Fixnodeparent$[ebp]
  002a7	8b 40 08	 mov	 eax, DWORD PTR [eax+8]
  002aa	89 45 f8	 mov	 DWORD PTR __Pnode$[ebp], eax

; 575  :                     if (_Pnode->_Color == _Red) { // rotate red up from right subtree

  002ad	8b 45 f8	 mov	 eax, DWORD PTR __Pnode$[ebp]
  002b0	0f be 40 0c	 movsx	 eax, BYTE PTR [eax+12]
  002b4	85 c0		 test	 eax, eax
  002b6	75 22		 jne	 SHORT $LN28@Extract

; 576  :                         _Pnode->_Color         = _Black;

  002b8	8b 45 f8	 mov	 eax, DWORD PTR __Pnode$[ebp]
  002bb	c6 40 0c 01	 mov	 BYTE PTR [eax+12], 1

; 577  :                         _Fixnodeparent->_Color = _Red;

  002bf	8b 45 f4	 mov	 eax, DWORD PTR __Fixnodeparent$[ebp]
  002c2	c6 40 0c 00	 mov	 BYTE PTR [eax+12], 0

; 578  :                         _Lrotate(_Fixnodeparent);

  002c6	ff 75 f4	 push	 DWORD PTR __Fixnodeparent$[ebp]
  002c9	8b 4d e8	 mov	 ecx, DWORD PTR _this$[ebp]
  002cc	e8 00 00 00 00	 call	 ?_Lrotate@?$_Tree_val@U?$_Tree_simple_types@U?$pair@$$CBEPAVCCamera@@@std@@@std@@@std@@QAEXPAU?$_Tree_node@U?$pair@$$CBEPAVCCamera@@@std@@PAX@2@@Z ; std::_Tree_val<std::_Tree_simple_types<std::pair<unsigned char const ,CCamera *> > >::_Lrotate

; 579  :                         _Pnode = _Fixnodeparent->_Right;

  002d1	8b 45 f4	 mov	 eax, DWORD PTR __Fixnodeparent$[ebp]
  002d4	8b 40 08	 mov	 eax, DWORD PTR [eax+8]
  002d7	89 45 f8	 mov	 DWORD PTR __Pnode$[ebp], eax
$LN28@Extract:

; 580  :                     }
; 581  : 
; 582  :                     if (_Pnode->_Isnil) {

  002da	8b 45 f8	 mov	 eax, DWORD PTR __Pnode$[ebp]
  002dd	0f be 40 0d	 movsx	 eax, BYTE PTR [eax+13]
  002e1	85 c0		 test	 eax, eax
  002e3	74 0b		 je	 SHORT $LN29@Extract

; 583  :                         _Fixnode = _Fixnodeparent; // shouldn't happen

  002e5	8b 45 f4	 mov	 eax, DWORD PTR __Fixnodeparent$[ebp]
  002e8	89 45 f0	 mov	 DWORD PTR __Fixnode$[ebp], eax

; 584  :                     } else if (_Pnode->_Left->_Color == _Black

  002eb	e9 8c 00 00 00	 jmp	 $LN30@Extract
$LN29@Extract:

; 585  :                                && _Pnode->_Right->_Color == _Black) { // redden right subtree with black children

  002f0	8b 45 f8	 mov	 eax, DWORD PTR __Pnode$[ebp]
  002f3	8b 00		 mov	 eax, DWORD PTR [eax]
  002f5	0f be 40 0c	 movsx	 eax, BYTE PTR [eax+12]
  002f9	83 f8 01	 cmp	 eax, 1
  002fc	75 1e		 jne	 SHORT $LN31@Extract
  002fe	8b 45 f8	 mov	 eax, DWORD PTR __Pnode$[ebp]
  00301	8b 40 08	 mov	 eax, DWORD PTR [eax+8]
  00304	0f be 40 0c	 movsx	 eax, BYTE PTR [eax+12]
  00308	83 f8 01	 cmp	 eax, 1
  0030b	75 0f		 jne	 SHORT $LN31@Extract

; 586  :                         _Pnode->_Color = _Red;

  0030d	8b 45 f8	 mov	 eax, DWORD PTR __Pnode$[ebp]
  00310	c6 40 0c 00	 mov	 BYTE PTR [eax+12], 0

; 587  :                         _Fixnode       = _Fixnodeparent;

  00314	8b 45 f4	 mov	 eax, DWORD PTR __Fixnodeparent$[ebp]
  00317	89 45 f0	 mov	 DWORD PTR __Fixnode$[ebp], eax

; 588  :                     } else { // must rearrange right subtree

  0031a	eb 60		 jmp	 SHORT $LN30@Extract
$LN31@Extract:

; 589  :                         if (_Pnode->_Right->_Color == _Black) { // rotate red up from left sub-subtree

  0031c	8b 45 f8	 mov	 eax, DWORD PTR __Pnode$[ebp]
  0031f	8b 40 08	 mov	 eax, DWORD PTR [eax+8]
  00322	0f be 40 0c	 movsx	 eax, BYTE PTR [eax+12]
  00326	83 f8 01	 cmp	 eax, 1
  00329	75 24		 jne	 SHORT $LN33@Extract

; 590  :                             _Pnode->_Left->_Color = _Black;

  0032b	8b 45 f8	 mov	 eax, DWORD PTR __Pnode$[ebp]
  0032e	8b 00		 mov	 eax, DWORD PTR [eax]
  00330	c6 40 0c 01	 mov	 BYTE PTR [eax+12], 1

; 591  :                             _Pnode->_Color        = _Red;

  00334	8b 45 f8	 mov	 eax, DWORD PTR __Pnode$[ebp]
  00337	c6 40 0c 00	 mov	 BYTE PTR [eax+12], 0

; 592  :                             _Rrotate(_Pnode);

  0033b	ff 75 f8	 push	 DWORD PTR __Pnode$[ebp]
  0033e	8b 4d e8	 mov	 ecx, DWORD PTR _this$[ebp]
  00341	e8 00 00 00 00	 call	 ?_Rrotate@?$_Tree_val@U?$_Tree_simple_types@U?$pair@$$CBEPAVCCamera@@@std@@@std@@@std@@QAEXPAU?$_Tree_node@U?$pair@$$CBEPAVCCamera@@@std@@PAX@2@@Z ; std::_Tree_val<std::_Tree_simple_types<std::pair<unsigned char const ,CCamera *> > >::_Rrotate

; 593  :                             _Pnode = _Fixnodeparent->_Right;

  00346	8b 45 f4	 mov	 eax, DWORD PTR __Fixnodeparent$[ebp]
  00349	8b 40 08	 mov	 eax, DWORD PTR [eax+8]
  0034c	89 45 f8	 mov	 DWORD PTR __Pnode$[ebp], eax
$LN33@Extract:

; 594  :                         }
; 595  : 
; 596  :                         _Pnode->_Color         = _Fixnodeparent->_Color;

  0034f	8b 45 f8	 mov	 eax, DWORD PTR __Pnode$[ebp]
  00352	8b 4d f4	 mov	 ecx, DWORD PTR __Fixnodeparent$[ebp]
  00355	8a 49 0c	 mov	 cl, BYTE PTR [ecx+12]
  00358	88 48 0c	 mov	 BYTE PTR [eax+12], cl

; 597  :                         _Fixnodeparent->_Color = _Black;

  0035b	8b 45 f4	 mov	 eax, DWORD PTR __Fixnodeparent$[ebp]
  0035e	c6 40 0c 01	 mov	 BYTE PTR [eax+12], 1

; 598  :                         _Pnode->_Right->_Color = _Black;

  00362	8b 45 f8	 mov	 eax, DWORD PTR __Pnode$[ebp]
  00365	8b 40 08	 mov	 eax, DWORD PTR [eax+8]
  00368	c6 40 0c 01	 mov	 BYTE PTR [eax+12], 1

; 599  :                         _Lrotate(_Fixnodeparent);

  0036c	ff 75 f4	 push	 DWORD PTR __Fixnodeparent$[ebp]
  0036f	8b 4d e8	 mov	 ecx, DWORD PTR _this$[ebp]
  00372	e8 00 00 00 00	 call	 ?_Lrotate@?$_Tree_val@U?$_Tree_simple_types@U?$pair@$$CBEPAVCCamera@@@std@@@std@@@std@@QAEXPAU?$_Tree_node@U?$pair@$$CBEPAVCCamera@@@std@@PAX@2@@Z ; std::_Tree_val<std::_Tree_simple_types<std::pair<unsigned char const ,CCamera *> > >::_Lrotate

; 600  :                         break; // tree now recolored/rebalanced

  00377	e9 db 00 00 00	 jmp	 $LN3@Extract
$LN30@Extract:

; 601  :                     }
; 602  :                 } else { // fixup right subtree

  0037c	e9 d1 00 00 00	 jmp	 $LN27@Extract
$LN26@Extract:

; 603  :                     _Pnode = _Fixnodeparent->_Left;

  00381	8b 45 f4	 mov	 eax, DWORD PTR __Fixnodeparent$[ebp]
  00384	8b 00		 mov	 eax, DWORD PTR [eax]
  00386	89 45 f8	 mov	 DWORD PTR __Pnode$[ebp], eax

; 604  :                     if (_Pnode->_Color == _Red) { // rotate red up from left subtree

  00389	8b 45 f8	 mov	 eax, DWORD PTR __Pnode$[ebp]
  0038c	0f be 40 0c	 movsx	 eax, BYTE PTR [eax+12]
  00390	85 c0		 test	 eax, eax
  00392	75 21		 jne	 SHORT $LN34@Extract

; 605  :                         _Pnode->_Color         = _Black;

  00394	8b 45 f8	 mov	 eax, DWORD PTR __Pnode$[ebp]
  00397	c6 40 0c 01	 mov	 BYTE PTR [eax+12], 1

; 606  :                         _Fixnodeparent->_Color = _Red;

  0039b	8b 45 f4	 mov	 eax, DWORD PTR __Fixnodeparent$[ebp]
  0039e	c6 40 0c 00	 mov	 BYTE PTR [eax+12], 0

; 607  :                         _Rrotate(_Fixnodeparent);

  003a2	ff 75 f4	 push	 DWORD PTR __Fixnodeparent$[ebp]
  003a5	8b 4d e8	 mov	 ecx, DWORD PTR _this$[ebp]
  003a8	e8 00 00 00 00	 call	 ?_Rrotate@?$_Tree_val@U?$_Tree_simple_types@U?$pair@$$CBEPAVCCamera@@@std@@@std@@@std@@QAEXPAU?$_Tree_node@U?$pair@$$CBEPAVCCamera@@@std@@PAX@2@@Z ; std::_Tree_val<std::_Tree_simple_types<std::pair<unsigned char const ,CCamera *> > >::_Rrotate

; 608  :                         _Pnode = _Fixnodeparent->_Left;

  003ad	8b 45 f4	 mov	 eax, DWORD PTR __Fixnodeparent$[ebp]
  003b0	8b 00		 mov	 eax, DWORD PTR [eax]
  003b2	89 45 f8	 mov	 DWORD PTR __Pnode$[ebp], eax
$LN34@Extract:

; 609  :                     }
; 610  : 
; 611  :                     if (_Pnode->_Isnil) {

  003b5	8b 45 f8	 mov	 eax, DWORD PTR __Pnode$[ebp]
  003b8	0f be 40 0d	 movsx	 eax, BYTE PTR [eax+13]
  003bc	85 c0		 test	 eax, eax
  003be	74 0b		 je	 SHORT $LN35@Extract

; 612  :                         _Fixnode = _Fixnodeparent; // shouldn't happen

  003c0	8b 45 f4	 mov	 eax, DWORD PTR __Fixnodeparent$[ebp]
  003c3	89 45 f0	 mov	 DWORD PTR __Fixnode$[ebp], eax

; 613  :                     } else if (_Pnode->_Right->_Color == _Black

  003c6	e9 87 00 00 00	 jmp	 $LN27@Extract
$LN35@Extract:

; 614  :                                && _Pnode->_Left->_Color == _Black) { // redden left subtree with black children

  003cb	8b 45 f8	 mov	 eax, DWORD PTR __Pnode$[ebp]
  003ce	8b 40 08	 mov	 eax, DWORD PTR [eax+8]
  003d1	0f be 40 0c	 movsx	 eax, BYTE PTR [eax+12]
  003d5	83 f8 01	 cmp	 eax, 1
  003d8	75 1d		 jne	 SHORT $LN37@Extract
  003da	8b 45 f8	 mov	 eax, DWORD PTR __Pnode$[ebp]
  003dd	8b 00		 mov	 eax, DWORD PTR [eax]
  003df	0f be 40 0c	 movsx	 eax, BYTE PTR [eax+12]
  003e3	83 f8 01	 cmp	 eax, 1
  003e6	75 0f		 jne	 SHORT $LN37@Extract

; 615  :                         _Pnode->_Color = _Red;

  003e8	8b 45 f8	 mov	 eax, DWORD PTR __Pnode$[ebp]
  003eb	c6 40 0c 00	 mov	 BYTE PTR [eax+12], 0

; 616  :                         _Fixnode       = _Fixnodeparent;

  003ef	8b 45 f4	 mov	 eax, DWORD PTR __Fixnodeparent$[ebp]
  003f2	89 45 f0	 mov	 DWORD PTR __Fixnode$[ebp], eax

; 617  :                     } else { // must rearrange left subtree

  003f5	eb 5b		 jmp	 SHORT $LN27@Extract
$LN37@Extract:

; 618  :                         if (_Pnode->_Left->_Color == _Black) { // rotate red up from right sub-subtree

  003f7	8b 45 f8	 mov	 eax, DWORD PTR __Pnode$[ebp]
  003fa	8b 00		 mov	 eax, DWORD PTR [eax]
  003fc	0f be 40 0c	 movsx	 eax, BYTE PTR [eax+12]
  00400	83 f8 01	 cmp	 eax, 1
  00403	75 24		 jne	 SHORT $LN39@Extract

; 619  :                             _Pnode->_Right->_Color = _Black;

  00405	8b 45 f8	 mov	 eax, DWORD PTR __Pnode$[ebp]
  00408	8b 40 08	 mov	 eax, DWORD PTR [eax+8]
  0040b	c6 40 0c 01	 mov	 BYTE PTR [eax+12], 1

; 620  :                             _Pnode->_Color         = _Red;

  0040f	8b 45 f8	 mov	 eax, DWORD PTR __Pnode$[ebp]
  00412	c6 40 0c 00	 mov	 BYTE PTR [eax+12], 0

; 621  :                             _Lrotate(_Pnode);

  00416	ff 75 f8	 push	 DWORD PTR __Pnode$[ebp]
  00419	8b 4d e8	 mov	 ecx, DWORD PTR _this$[ebp]
  0041c	e8 00 00 00 00	 call	 ?_Lrotate@?$_Tree_val@U?$_Tree_simple_types@U?$pair@$$CBEPAVCCamera@@@std@@@std@@@std@@QAEXPAU?$_Tree_node@U?$pair@$$CBEPAVCCamera@@@std@@PAX@2@@Z ; std::_Tree_val<std::_Tree_simple_types<std::pair<unsigned char const ,CCamera *> > >::_Lrotate

; 622  :                             _Pnode = _Fixnodeparent->_Left;

  00421	8b 45 f4	 mov	 eax, DWORD PTR __Fixnodeparent$[ebp]
  00424	8b 00		 mov	 eax, DWORD PTR [eax]
  00426	89 45 f8	 mov	 DWORD PTR __Pnode$[ebp], eax
$LN39@Extract:

; 623  :                         }
; 624  : 
; 625  :                         _Pnode->_Color         = _Fixnodeparent->_Color;

  00429	8b 45 f8	 mov	 eax, DWORD PTR __Pnode$[ebp]
  0042c	8b 4d f4	 mov	 ecx, DWORD PTR __Fixnodeparent$[ebp]
  0042f	8a 49 0c	 mov	 cl, BYTE PTR [ecx+12]
  00432	88 48 0c	 mov	 BYTE PTR [eax+12], cl

; 626  :                         _Fixnodeparent->_Color = _Black;

  00435	8b 45 f4	 mov	 eax, DWORD PTR __Fixnodeparent$[ebp]
  00438	c6 40 0c 01	 mov	 BYTE PTR [eax+12], 1

; 627  :                         _Pnode->_Left->_Color  = _Black;

  0043c	8b 45 f8	 mov	 eax, DWORD PTR __Pnode$[ebp]
  0043f	8b 00		 mov	 eax, DWORD PTR [eax]
  00441	c6 40 0c 01	 mov	 BYTE PTR [eax+12], 1

; 628  :                         _Rrotate(_Fixnodeparent);

  00445	ff 75 f4	 push	 DWORD PTR __Fixnodeparent$[ebp]
  00448	8b 4d e8	 mov	 ecx, DWORD PTR _this$[ebp]
  0044b	e8 00 00 00 00	 call	 ?_Rrotate@?$_Tree_val@U?$_Tree_simple_types@U?$pair@$$CBEPAVCCamera@@@std@@@std@@@std@@QAEXPAU?$_Tree_node@U?$pair@$$CBEPAVCCamera@@@std@@PAX@2@@Z ; std::_Tree_val<std::_Tree_simple_types<std::pair<unsigned char const ,CCamera *> > >::_Rrotate

; 629  :                         break; // tree now recolored/rebalanced

  00450	eb 05		 jmp	 SHORT $LN3@Extract
$LN27@Extract:

; 630  :                     }
; 631  :                 }
; 632  :             }

  00452	e9 15 fe ff ff	 jmp	 $LN2@Extract
$LN3@Extract:

; 633  : 
; 634  :             _Fixnode->_Color = _Black; // stopping node is black

  00457	8b 45 f0	 mov	 eax, DWORD PTR __Fixnode$[ebp]
  0045a	c6 40 0c 01	 mov	 BYTE PTR [eax+12], 1
$LN25@Extract:

; 635  :         }
; 636  : 
; 637  :         if (0 < _Mysize) {

  0045e	8b 45 e8	 mov	 eax, DWORD PTR _this$[ebp]
  00461	83 78 04 00	 cmp	 DWORD PTR [eax+4], 0
  00465	76 0d		 jbe	 SHORT $LN40@Extract

; 638  :             --_Mysize;

  00467	8b 45 e8	 mov	 eax, DWORD PTR _this$[ebp]
  0046a	8b 40 04	 mov	 eax, DWORD PTR [eax+4]
  0046d	48		 dec	 eax
  0046e	8b 4d e8	 mov	 ecx, DWORD PTR _this$[ebp]
  00471	89 41 04	 mov	 DWORD PTR [ecx+4], eax
$LN40@Extract:

; 639  :         }
; 640  : 
; 641  :         return _Erasednode;

  00474	8b 45 ec	 mov	 eax, DWORD PTR __Erasednode$[ebp]

; 642  :     }

  00477	c9		 leave
  00478	c2 04 00	 ret	 4
?_Extract@?$_Tree_val@U?$_Tree_simple_types@U?$pair@$$CBEPAVCCamera@@@std@@@std@@@std@@QAEPAU?$_Tree_node@U?$pair@$$CBEPAVCCamera@@@std@@PAX@2@V?$_Tree_unchecked_const_iterator@V?$_Tree_val@U?$_Tree_simple_types@U?$pair@$$CBEPAVCCamera@@@std@@@std@@@std@@U_Iterator_base0@2@@2@@Z ENDP ; std::_Tree_val<std::_Tree_simple_types<std::pair<unsigned char const ,CCamera *> > >::_Extract
_TEXT	ENDS
; Function compile flags: /Odspy
; File C:\Program Files (x86)\Microsoft Visual Studio\2019\Community\VC\Tools\MSVC\14.28.29333\include\xtree
;	COMDAT ?_Rrotate@?$_Tree_val@U?$_Tree_simple_types@U?$pair@$$CBEPAVCCamera@@@std@@@std@@@std@@QAEXPAU?$_Tree_node@U?$pair@$$CBEPAVCCamera@@@std@@PAX@2@@Z
_TEXT	SEGMENT
_this$ = -8						; size = 4
__Pnode$ = -4						; size = 4
__Wherenode$ = 8					; size = 4
?_Rrotate@?$_Tree_val@U?$_Tree_simple_types@U?$pair@$$CBEPAVCCamera@@@std@@@std@@@std@@QAEXPAU?$_Tree_node@U?$pair@$$CBEPAVCCamera@@@std@@PAX@2@@Z PROC ; std::_Tree_val<std::_Tree_simple_types<std::pair<unsigned char const ,CCamera *> > >::_Rrotate, COMDAT
; _this$ = ecx

; 480  :     void _Rrotate(_Nodeptr _Wherenode) noexcept { // promote left node to root of subtree

  00000	55		 push	 ebp
  00001	8b ec		 mov	 ebp, esp
  00003	51		 push	 ecx
  00004	51		 push	 ecx
  00005	89 4d f8	 mov	 DWORD PTR _this$[ebp], ecx

; 481  :         _Nodeptr _Pnode   = _Wherenode->_Left;

  00008	8b 45 08	 mov	 eax, DWORD PTR __Wherenode$[ebp]
  0000b	8b 00		 mov	 eax, DWORD PTR [eax]
  0000d	89 45 fc	 mov	 DWORD PTR __Pnode$[ebp], eax

; 482  :         _Wherenode->_Left = _Pnode->_Right;

  00010	8b 45 08	 mov	 eax, DWORD PTR __Wherenode$[ebp]
  00013	8b 4d fc	 mov	 ecx, DWORD PTR __Pnode$[ebp]
  00016	8b 49 08	 mov	 ecx, DWORD PTR [ecx+8]
  00019	89 08		 mov	 DWORD PTR [eax], ecx

; 483  : 
; 484  :         if (!_Pnode->_Right->_Isnil) {

  0001b	8b 45 fc	 mov	 eax, DWORD PTR __Pnode$[ebp]
  0001e	8b 40 08	 mov	 eax, DWORD PTR [eax+8]
  00021	0f be 40 0d	 movsx	 eax, BYTE PTR [eax+13]
  00025	85 c0		 test	 eax, eax
  00027	75 0c		 jne	 SHORT $LN2@Rrotate

; 485  :             _Pnode->_Right->_Parent = _Wherenode;

  00029	8b 45 fc	 mov	 eax, DWORD PTR __Pnode$[ebp]
  0002c	8b 40 08	 mov	 eax, DWORD PTR [eax+8]
  0002f	8b 4d 08	 mov	 ecx, DWORD PTR __Wherenode$[ebp]
  00032	89 48 04	 mov	 DWORD PTR [eax+4], ecx
$LN2@Rrotate:

; 486  :         }
; 487  : 
; 488  :         _Pnode->_Parent = _Wherenode->_Parent;

  00035	8b 45 fc	 mov	 eax, DWORD PTR __Pnode$[ebp]
  00038	8b 4d 08	 mov	 ecx, DWORD PTR __Wherenode$[ebp]
  0003b	8b 49 04	 mov	 ecx, DWORD PTR [ecx+4]
  0003e	89 48 04	 mov	 DWORD PTR [eax+4], ecx

; 489  : 
; 490  :         if (_Wherenode == _Myhead->_Parent) {

  00041	8b 45 f8	 mov	 eax, DWORD PTR _this$[ebp]
  00044	8b 00		 mov	 eax, DWORD PTR [eax]
  00046	8b 4d 08	 mov	 ecx, DWORD PTR __Wherenode$[ebp]
  00049	3b 48 04	 cmp	 ecx, DWORD PTR [eax+4]
  0004c	75 0d		 jne	 SHORT $LN3@Rrotate

; 491  :             _Myhead->_Parent = _Pnode;

  0004e	8b 45 f8	 mov	 eax, DWORD PTR _this$[ebp]
  00051	8b 00		 mov	 eax, DWORD PTR [eax]
  00053	8b 4d fc	 mov	 ecx, DWORD PTR __Pnode$[ebp]
  00056	89 48 04	 mov	 DWORD PTR [eax+4], ecx
  00059	eb 27		 jmp	 SHORT $LN4@Rrotate
$LN3@Rrotate:

; 492  :         } else if (_Wherenode == _Wherenode->_Parent->_Right) {

  0005b	8b 45 08	 mov	 eax, DWORD PTR __Wherenode$[ebp]
  0005e	8b 40 04	 mov	 eax, DWORD PTR [eax+4]
  00061	8b 4d 08	 mov	 ecx, DWORD PTR __Wherenode$[ebp]
  00064	3b 48 08	 cmp	 ecx, DWORD PTR [eax+8]
  00067	75 0e		 jne	 SHORT $LN5@Rrotate

; 493  :             _Wherenode->_Parent->_Right = _Pnode;

  00069	8b 45 08	 mov	 eax, DWORD PTR __Wherenode$[ebp]
  0006c	8b 40 04	 mov	 eax, DWORD PTR [eax+4]
  0006f	8b 4d fc	 mov	 ecx, DWORD PTR __Pnode$[ebp]
  00072	89 48 08	 mov	 DWORD PTR [eax+8], ecx

; 494  :         } else {

  00075	eb 0b		 jmp	 SHORT $LN4@Rrotate
$LN5@Rrotate:

; 495  :             _Wherenode->_Parent->_Left = _Pnode;

  00077	8b 45 08	 mov	 eax, DWORD PTR __Wherenode$[ebp]
  0007a	8b 40 04	 mov	 eax, DWORD PTR [eax+4]
  0007d	8b 4d fc	 mov	 ecx, DWORD PTR __Pnode$[ebp]
  00080	89 08		 mov	 DWORD PTR [eax], ecx
$LN4@Rrotate:

; 496  :         }
; 497  : 
; 498  :         _Pnode->_Right      = _Wherenode;

  00082	8b 45 fc	 mov	 eax, DWORD PTR __Pnode$[ebp]
  00085	8b 4d 08	 mov	 ecx, DWORD PTR __Wherenode$[ebp]
  00088	89 48 08	 mov	 DWORD PTR [eax+8], ecx

; 499  :         _Wherenode->_Parent = _Pnode;

  0008b	8b 45 08	 mov	 eax, DWORD PTR __Wherenode$[ebp]
  0008e	8b 4d fc	 mov	 ecx, DWORD PTR __Pnode$[ebp]
  00091	89 48 04	 mov	 DWORD PTR [eax+4], ecx

; 500  :     }

  00094	c9		 leave
  00095	c2 04 00	 ret	 4
?_Rrotate@?$_Tree_val@U?$_Tree_simple_types@U?$pair@$$CBEPAVCCamera@@@std@@@std@@@std@@QAEXPAU?$_Tree_node@U?$pair@$$CBEPAVCCamera@@@std@@PAX@2@@Z ENDP ; std::_Tree_val<std::_Tree_simple_types<std::pair<unsigned char const ,CCamera *> > >::_Rrotate
_TEXT	ENDS
; Function compile flags: /Odspy
; File C:\Program Files (x86)\Microsoft Visual Studio\2019\Community\VC\Tools\MSVC\14.28.29333\include\xtree
;	COMDAT ?_Lrotate@?$_Tree_val@U?$_Tree_simple_types@U?$pair@$$CBEPAVCCamera@@@std@@@std@@@std@@QAEXPAU?$_Tree_node@U?$pair@$$CBEPAVCCamera@@@std@@PAX@2@@Z
_TEXT	SEGMENT
_this$ = -8						; size = 4
__Pnode$ = -4						; size = 4
__Wherenode$ = 8					; size = 4
?_Lrotate@?$_Tree_val@U?$_Tree_simple_types@U?$pair@$$CBEPAVCCamera@@@std@@@std@@@std@@QAEXPAU?$_Tree_node@U?$pair@$$CBEPAVCCamera@@@std@@PAX@2@@Z PROC ; std::_Tree_val<std::_Tree_simple_types<std::pair<unsigned char const ,CCamera *> > >::_Lrotate, COMDAT
; _this$ = ecx

; 458  :     void _Lrotate(_Nodeptr _Wherenode) noexcept { // promote right node to root of subtree

  00000	55		 push	 ebp
  00001	8b ec		 mov	 ebp, esp
  00003	51		 push	 ecx
  00004	51		 push	 ecx
  00005	89 4d f8	 mov	 DWORD PTR _this$[ebp], ecx

; 459  :         _Nodeptr _Pnode    = _Wherenode->_Right;

  00008	8b 45 08	 mov	 eax, DWORD PTR __Wherenode$[ebp]
  0000b	8b 40 08	 mov	 eax, DWORD PTR [eax+8]
  0000e	89 45 fc	 mov	 DWORD PTR __Pnode$[ebp], eax

; 460  :         _Wherenode->_Right = _Pnode->_Left;

  00011	8b 45 08	 mov	 eax, DWORD PTR __Wherenode$[ebp]
  00014	8b 4d fc	 mov	 ecx, DWORD PTR __Pnode$[ebp]
  00017	8b 09		 mov	 ecx, DWORD PTR [ecx]
  00019	89 48 08	 mov	 DWORD PTR [eax+8], ecx

; 461  : 
; 462  :         if (!_Pnode->_Left->_Isnil) {

  0001c	8b 45 fc	 mov	 eax, DWORD PTR __Pnode$[ebp]
  0001f	8b 00		 mov	 eax, DWORD PTR [eax]
  00021	0f be 40 0d	 movsx	 eax, BYTE PTR [eax+13]
  00025	85 c0		 test	 eax, eax
  00027	75 0b		 jne	 SHORT $LN2@Lrotate

; 463  :             _Pnode->_Left->_Parent = _Wherenode;

  00029	8b 45 fc	 mov	 eax, DWORD PTR __Pnode$[ebp]
  0002c	8b 00		 mov	 eax, DWORD PTR [eax]
  0002e	8b 4d 08	 mov	 ecx, DWORD PTR __Wherenode$[ebp]
  00031	89 48 04	 mov	 DWORD PTR [eax+4], ecx
$LN2@Lrotate:

; 464  :         }
; 465  : 
; 466  :         _Pnode->_Parent = _Wherenode->_Parent;

  00034	8b 45 fc	 mov	 eax, DWORD PTR __Pnode$[ebp]
  00037	8b 4d 08	 mov	 ecx, DWORD PTR __Wherenode$[ebp]
  0003a	8b 49 04	 mov	 ecx, DWORD PTR [ecx+4]
  0003d	89 48 04	 mov	 DWORD PTR [eax+4], ecx

; 467  : 
; 468  :         if (_Wherenode == _Myhead->_Parent) {

  00040	8b 45 f8	 mov	 eax, DWORD PTR _this$[ebp]
  00043	8b 00		 mov	 eax, DWORD PTR [eax]
  00045	8b 4d 08	 mov	 ecx, DWORD PTR __Wherenode$[ebp]
  00048	3b 48 04	 cmp	 ecx, DWORD PTR [eax+4]
  0004b	75 0d		 jne	 SHORT $LN3@Lrotate

; 469  :             _Myhead->_Parent = _Pnode;

  0004d	8b 45 f8	 mov	 eax, DWORD PTR _this$[ebp]
  00050	8b 00		 mov	 eax, DWORD PTR [eax]
  00052	8b 4d fc	 mov	 ecx, DWORD PTR __Pnode$[ebp]
  00055	89 48 04	 mov	 DWORD PTR [eax+4], ecx
  00058	eb 26		 jmp	 SHORT $LN4@Lrotate
$LN3@Lrotate:

; 470  :         } else if (_Wherenode == _Wherenode->_Parent->_Left) {

  0005a	8b 45 08	 mov	 eax, DWORD PTR __Wherenode$[ebp]
  0005d	8b 40 04	 mov	 eax, DWORD PTR [eax+4]
  00060	8b 4d 08	 mov	 ecx, DWORD PTR __Wherenode$[ebp]
  00063	3b 08		 cmp	 ecx, DWORD PTR [eax]
  00065	75 0d		 jne	 SHORT $LN5@Lrotate

; 471  :             _Wherenode->_Parent->_Left = _Pnode;

  00067	8b 45 08	 mov	 eax, DWORD PTR __Wherenode$[ebp]
  0006a	8b 40 04	 mov	 eax, DWORD PTR [eax+4]
  0006d	8b 4d fc	 mov	 ecx, DWORD PTR __Pnode$[ebp]
  00070	89 08		 mov	 DWORD PTR [eax], ecx

; 472  :         } else {

  00072	eb 0c		 jmp	 SHORT $LN4@Lrotate
$LN5@Lrotate:

; 473  :             _Wherenode->_Parent->_Right = _Pnode;

  00074	8b 45 08	 mov	 eax, DWORD PTR __Wherenode$[ebp]
  00077	8b 40 04	 mov	 eax, DWORD PTR [eax+4]
  0007a	8b 4d fc	 mov	 ecx, DWORD PTR __Pnode$[ebp]
  0007d	89 48 08	 mov	 DWORD PTR [eax+8], ecx
$LN4@Lrotate:

; 474  :         }
; 475  : 
; 476  :         _Pnode->_Left       = _Wherenode;

  00080	8b 45 fc	 mov	 eax, DWORD PTR __Pnode$[ebp]
  00083	8b 4d 08	 mov	 ecx, DWORD PTR __Wherenode$[ebp]
  00086	89 08		 mov	 DWORD PTR [eax], ecx

; 477  :         _Wherenode->_Parent = _Pnode;

  00088	8b 45 08	 mov	 eax, DWORD PTR __Wherenode$[ebp]
  0008b	8b 4d fc	 mov	 ecx, DWORD PTR __Pnode$[ebp]
  0008e	89 48 04	 mov	 DWORD PTR [eax+4], ecx

; 478  :     }

  00091	c9		 leave
  00092	c2 04 00	 ret	 4
?_Lrotate@?$_Tree_val@U?$_Tree_simple_types@U?$pair@$$CBEPAVCCamera@@@std@@@std@@@std@@QAEXPAU?$_Tree_node@U?$pair@$$CBEPAVCCamera@@@std@@PAX@2@@Z ENDP ; std::_Tree_val<std::_Tree_simple_types<std::pair<unsigned char const ,CCamera *> > >::_Lrotate
_TEXT	ENDS
; Function compile flags: /Odspy
; File C:\Program Files (x86)\Microsoft Visual Studio\2019\Community\VC\Tools\MSVC\14.28.29333\include\xtree
; File C:\Program Files (x86)\Microsoft Visual Studio\2019\Community\VC\Tools\MSVC\14.28.29333\include\xstddef
; File C:\Program Files (x86)\Microsoft Visual Studio\2019\Community\VC\Tools\MSVC\14.28.29333\include\xtree
; File C:\Program Files (x86)\Microsoft Visual Studio\2019\Community\VC\Tools\MSVC\14.28.29333\include\xmemory
; File C:\Program Files (x86)\Microsoft Visual Studio\2019\Community\VC\Tools\MSVC\14.28.29333\include\xtree
;	COMDAT ?_Alloc_sentinel_and_proxy@?$_Tree@V?$_Tmap_traits@EPAVCCamera@@U?$less@E@std@@V?$allocator@U?$pair@$$CBEPAVCCamera@@@std@@@3@$0A@@std@@@std@@IAEXXZ
_TEXT	SEGMENT
__Alproxy$ = -28					; size = 4
__Scary$ = -24						; size = 4
$T1 = -20						; size = 4
$T2 = -16						; size = 4
$T3 = -12						; size = 4
_this$ = -8						; size = 4
_$S12$ = -1						; size = 1
?_Alloc_sentinel_and_proxy@?$_Tree@V?$_Tmap_traits@EPAVCCamera@@U?$less@E@std@@V?$allocator@U?$pair@$$CBEPAVCCamera@@@std@@@3@$0A@@std@@@std@@IAEXXZ PROC ; std::_Tree<std::_Tmap_traits<unsigned char,CCamera *,std::less<unsigned char>,std::allocator<std::pair<unsigned char const ,CCamera *> >,0> >::_Alloc_sentinel_and_proxy, COMDAT
; _this$ = ecx

; 2017 :     void _Alloc_sentinel_and_proxy() {

  00000	55		 push	 ebp
  00001	8b ec		 mov	 ebp, esp
  00003	83 ec 1c	 sub	 esp, 28			; 0000001cH
  00006	89 4d f8	 mov	 DWORD PTR _this$[ebp], ecx

; 2047 :         return _STD addressof(_Mypair._Myval2._Myval2);

  00009	8b 45 f8	 mov	 eax, DWORD PTR _this$[ebp]
; File C:\Program Files (x86)\Microsoft Visual Studio\2019\Community\VC\Tools\MSVC\14.28.29333\include\xstddef

; 275  :     return __builtin_addressof(_Val);

  0000c	89 45 f4	 mov	 DWORD PTR $T3[ebp], eax
; File C:\Program Files (x86)\Microsoft Visual Studio\2019\Community\VC\Tools\MSVC\14.28.29333\include\xtree

; 2047 :         return _STD addressof(_Mypair._Myval2._Myval2);

  0000f	8b 45 f4	 mov	 eax, DWORD PTR $T3[ebp]
  00012	89 45 e8	 mov	 DWORD PTR __Scary$[ebp], eax

; 2018 :         const auto _Scary = _Get_scary();
; 2019 :         auto&& _Alproxy   = _GET_PROXY_ALLOCATOR(_Alnode, _Getal());

  00015	8d 45 ff	 lea	 eax, DWORD PTR _$S12$[ebp]
  00018	89 45 e4	 mov	 DWORD PTR __Alproxy$[ebp], eax

; 2039 :         return _Mypair._Myval2._Get_first();

  0001b	8b 45 f8	 mov	 eax, DWORD PTR _this$[ebp]
; File C:\Program Files (x86)\Microsoft Visual Studio\2019\Community\VC\Tools\MSVC\14.28.29333\include\xmemory

; 1347 :         return *this;

  0001e	89 45 f0	 mov	 DWORD PTR $T2[ebp], eax
; File C:\Program Files (x86)\Microsoft Visual Studio\2019\Community\VC\Tools\MSVC\14.28.29333\include\xtree

; 2039 :         return _Mypair._Myval2._Get_first();

  00021	8b 45 f0	 mov	 eax, DWORD PTR $T2[ebp]
  00024	89 45 ec	 mov	 DWORD PTR $T1[ebp], eax

; 2020 :         _Container_proxy_ptr<_Alnode> _Proxy(_Alproxy, *_Scary);
; 2021 :         _Scary->_Myhead = _Node::_Buyheadnode(_Getal());

  00027	ff 75 ec	 push	 DWORD PTR $T1[ebp]
  0002a	e8 00 00 00 00	 call	 ??$_Buyheadnode@V?$allocator@U?$_Tree_node@U?$pair@$$CBEPAVCCamera@@@std@@PAX@std@@@std@@@?$_Tree_node@U?$pair@$$CBEPAVCCamera@@@std@@PAX@std@@SAPAU01@AAV?$allocator@U?$_Tree_node@U?$pair@$$CBEPAVCCamera@@@std@@PAX@std@@@1@@Z ; std::_Tree_node<std::pair<unsigned char const ,CCamera *>,void *>::_Buyheadnode<std::allocator<std::_Tree_node<std::pair<unsigned char const ,CCamera *>,void *> > >
  0002f	59		 pop	 ecx
  00030	8b 4d e8	 mov	 ecx, DWORD PTR __Scary$[ebp]
  00033	89 01		 mov	 DWORD PTR [ecx], eax

; 2022 :         _Proxy._Release();
; 2023 :     }

  00035	c9		 leave
  00036	c3		 ret	 0
?_Alloc_sentinel_and_proxy@?$_Tree@V?$_Tmap_traits@EPAVCCamera@@U?$less@E@std@@V?$allocator@U?$pair@$$CBEPAVCCamera@@@std@@@3@$0A@@std@@@std@@IAEXXZ ENDP ; std::_Tree<std::_Tmap_traits<unsigned char,CCamera *,std::less<unsigned char>,std::allocator<std::pair<unsigned char const ,CCamera *> >,0> >::_Alloc_sentinel_and_proxy
_TEXT	ENDS
; Function compile flags: /Odspy
; File C:\Program Files (x86)\Microsoft Visual Studio\2019\Community\VC\Tools\MSVC\14.28.29333\include\xtree
; File C:\Program Files (x86)\Microsoft Visual Studio\2019\Community\VC\Tools\MSVC\14.28.29333\include\xstddef
; File C:\Program Files (x86)\Microsoft Visual Studio\2019\Community\VC\Tools\MSVC\14.28.29333\include\xtree
;	COMDAT ?_Check_grow_by_1@?$_Tree@V?$_Tmap_traits@EPAVCCamera@@U?$less@E@std@@V?$allocator@U?$pair@$$CBEPAVCCamera@@@std@@@3@$0A@@std@@@std@@IAEXXZ
_TEXT	SEGMENT
$T1 = -12						; size = 4
$T2 = -8						; size = 4
_this$ = -4						; size = 4
?_Check_grow_by_1@?$_Tree@V?$_Tmap_traits@EPAVCCamera@@U?$less@E@std@@V?$allocator@U?$pair@$$CBEPAVCCamera@@@std@@@3@$0A@@std@@@std@@IAEXXZ PROC ; std::_Tree<std::_Tmap_traits<unsigned char,CCamera *,std::less<unsigned char>,std::allocator<std::pair<unsigned char const ,CCamera *> >,0> >::_Check_grow_by_1, COMDAT
; _this$ = ecx

; 1718 :     void _Check_grow_by_1() {

  00000	55		 push	 ebp
  00001	8b ec		 mov	 ebp, esp
  00003	83 ec 0c	 sub	 esp, 12			; 0000000cH
  00006	89 4d fc	 mov	 DWORD PTR _this$[ebp], ecx

; 2047 :         return _STD addressof(_Mypair._Myval2._Myval2);

  00009	8b 45 fc	 mov	 eax, DWORD PTR _this$[ebp]
; File C:\Program Files (x86)\Microsoft Visual Studio\2019\Community\VC\Tools\MSVC\14.28.29333\include\xstddef

; 275  :     return __builtin_addressof(_Val);

  0000c	89 45 f8	 mov	 DWORD PTR $T2[ebp], eax
; File C:\Program Files (x86)\Microsoft Visual Studio\2019\Community\VC\Tools\MSVC\14.28.29333\include\xtree

; 2047 :         return _STD addressof(_Mypair._Myval2._Myval2);

  0000f	8b 45 f8	 mov	 eax, DWORD PTR $T2[ebp]
  00012	89 45 f4	 mov	 DWORD PTR $T1[ebp], eax

; 1719 :         if (max_size() == _Get_scary()->_Mysize) {

  00015	8b 4d fc	 mov	 ecx, DWORD PTR _this$[ebp]
  00018	e8 00 00 00 00	 call	 ?max_size@?$_Tree@V?$_Tmap_traits@EPAVCCamera@@U?$less@E@std@@V?$allocator@U?$pair@$$CBEPAVCCamera@@@std@@@3@$0A@@std@@@std@@QBEIXZ ; std::_Tree<std::_Tmap_traits<unsigned char,CCamera *,std::less<unsigned char>,std::allocator<std::pair<unsigned char const ,CCamera *> >,0> >::max_size
  0001d	8b 4d f4	 mov	 ecx, DWORD PTR $T1[ebp]
  00020	3b 41 04	 cmp	 eax, DWORD PTR [ecx+4]
  00023	75 05		 jne	 SHORT $LN3@Check_grow

; 1720 :             _Throw_tree_length_error();

  00025	e8 00 00 00 00	 call	 ?_Throw_tree_length_error@std@@YAXXZ ; std::_Throw_tree_length_error
$LN3@Check_grow:

; 1721 :         }
; 1722 :     }

  0002a	c9		 leave
  0002b	c3		 ret	 0
?_Check_grow_by_1@?$_Tree@V?$_Tmap_traits@EPAVCCamera@@U?$less@E@std@@V?$allocator@U?$pair@$$CBEPAVCCamera@@@std@@@3@$0A@@std@@@std@@IAEXXZ ENDP ; std::_Tree<std::_Tmap_traits<unsigned char,CCamera *,std::less<unsigned char>,std::allocator<std::pair<unsigned char const ,CCamera *> >,0> >::_Check_grow_by_1
_TEXT	ENDS
; Function compile flags: /Odspy
; File C:\Program Files (x86)\Microsoft Visual Studio\2019\Community\VC\Tools\MSVC\14.28.29333\include\xtree
; File C:\Program Files (x86)\Microsoft Visual Studio\2019\Community\VC\Tools\MSVC\14.28.29333\include\xstddef
; File C:\Program Files (x86)\Microsoft Visual Studio\2019\Community\VC\Tools\MSVC\14.28.29333\include\xtree
;	COMDAT ?find@?$_Tree@V?$_Tmap_traits@EPAVCCamera@@U?$less@E@std@@V?$allocator@U?$pair@$$CBEPAVCCamera@@@std@@@3@$0A@@std@@@std@@QAE?AV?$_Tree_iterator@V?$_Tree_val@U?$_Tree_simple_types@U?$pair@$$CBEPAVCCamera@@@std@@@std@@@std@@@2@ABE@Z
_TEXT	SEGMENT
$T1 = -16						; size = 4
___param0$ = -12					; size = 4
$T2 = -8						; size = 4
_this$ = -4						; size = 4
___$ReturnUdt$ = 8					; size = 4
__Keyval$ = 12						; size = 4
?find@?$_Tree@V?$_Tmap_traits@EPAVCCamera@@U?$less@E@std@@V?$allocator@U?$pair@$$CBEPAVCCamera@@@std@@@3@$0A@@std@@@std@@QAE?AV?$_Tree_iterator@V?$_Tree_val@U?$_Tree_simple_types@U?$pair@$$CBEPAVCCamera@@@std@@@std@@@std@@@2@ABE@Z PROC ; std::_Tree<std::_Tmap_traits<unsigned char,CCamera *,std::less<unsigned char>,std::allocator<std::pair<unsigned char const ,CCamera *> >,0> >::find, COMDAT
; _this$ = ecx

; 1467 :     _NODISCARD iterator find(const key_type& _Keyval) {

  00000	55		 push	 ebp
  00001	8b ec		 mov	 ebp, esp
  00003	83 ec 10	 sub	 esp, 16			; 00000010H
  00006	89 4d fc	 mov	 DWORD PTR _this$[ebp], ecx

; 2047 :         return _STD addressof(_Mypair._Myval2._Myval2);

  00009	8b 45 fc	 mov	 eax, DWORD PTR _this$[ebp]
; File C:\Program Files (x86)\Microsoft Visual Studio\2019\Community\VC\Tools\MSVC\14.28.29333\include\xstddef

; 275  :     return __builtin_addressof(_Val);

  0000c	89 45 f8	 mov	 DWORD PTR $T2[ebp], eax
; File C:\Program Files (x86)\Microsoft Visual Studio\2019\Community\VC\Tools\MSVC\14.28.29333\include\xtree

; 2047 :         return _STD addressof(_Mypair._Myval2._Myval2);

  0000f	8b 45 f8	 mov	 eax, DWORD PTR $T2[ebp]
  00012	89 45 f0	 mov	 DWORD PTR $T1[ebp], eax

; 1468 :         return iterator(_Find(_Keyval), _Get_scary());

  00015	ff 75 0c	 push	 DWORD PTR __Keyval$[ebp]
  00018	8b 4d fc	 mov	 ecx, DWORD PTR _this$[ebp]
  0001b	e8 00 00 00 00	 call	 ??$_Find@E@?$_Tree@V?$_Tmap_traits@EPAVCCamera@@U?$less@E@std@@V?$allocator@U?$pair@$$CBEPAVCCamera@@@std@@@3@$0A@@std@@@std@@ABEPAU?$_Tree_node@U?$pair@$$CBEPAVCCamera@@@std@@PAX@1@ABE@Z ; std::_Tree<std::_Tmap_traits<unsigned char,CCamera *,std::less<unsigned char>,std::allocator<std::pair<unsigned char const ,CCamera *> >,0> >::_Find<unsigned char>
  00020	89 45 f4	 mov	 DWORD PTR ___param0$[ebp], eax

; 39   :     _Tree_unchecked_const_iterator(_Nodeptr _Pnode, const _Mytree* _Plist) noexcept : _Ptr(_Pnode) {

  00023	8b 45 08	 mov	 eax, DWORD PTR ___$ReturnUdt$[ebp]
  00026	8b 4d f4	 mov	 ecx, DWORD PTR ___param0$[ebp]
  00029	89 08		 mov	 DWORD PTR [eax], ecx

; 1468 :         return iterator(_Find(_Keyval), _Get_scary());

  0002b	8b 45 08	 mov	 eax, DWORD PTR ___$ReturnUdt$[ebp]

; 1469 :     }

  0002e	c9		 leave
  0002f	c2 08 00	 ret	 8
?find@?$_Tree@V?$_Tmap_traits@EPAVCCamera@@U?$less@E@std@@V?$allocator@U?$pair@$$CBEPAVCCamera@@@std@@@3@$0A@@std@@@std@@QAE?AV?$_Tree_iterator@V?$_Tree_val@U?$_Tree_simple_types@U?$pair@$$CBEPAVCCamera@@@std@@@std@@@std@@@2@ABE@Z ENDP ; std::_Tree<std::_Tmap_traits<unsigned char,CCamera *,std::less<unsigned char>,std::allocator<std::pair<unsigned char const ,CCamera *> >,0> >::find
_TEXT	ENDS
; Function compile flags: /Odspy
; File C:\Program Files (x86)\Microsoft Visual Studio\2019\Community\VC\Tools\MSVC\14.28.29333\include\xtree
; File C:\Program Files (x86)\Microsoft Visual Studio\2019\Community\VC\Tools\MSVC\14.28.29333\include\xstddef
; File C:\Program Files (x86)\Microsoft Visual Studio\2019\Community\VC\Tools\MSVC\14.28.29333\include\xtree
; File C:\Program Files (x86)\Microsoft Visual Studio\2019\Community\VC\Tools\MSVC\14.28.29333\include\xmemory
; File C:\Program Files (x86)\Microsoft Visual Studio\2019\Community\VC\Tools\MSVC\14.28.29333\include\xtree
;	COMDAT ?clear@?$_Tree@V?$_Tmap_traits@EPAVCCamera@@U?$less@E@std@@V?$allocator@U?$pair@$$CBEPAVCCamera@@@std@@@3@$0A@@std@@@std@@QAEXXZ
_TEXT	SEGMENT
$T1 = -24						; size = 4
$T2 = -20						; size = 4
$T3 = -16						; size = 4
_this$ = -12						; size = 4
__Scary$ = -8						; size = 4
__Head$ = -4						; size = 4
?clear@?$_Tree@V?$_Tmap_traits@EPAVCCamera@@U?$less@E@std@@V?$allocator@U?$pair@$$CBEPAVCCamera@@@std@@@3@$0A@@std@@@std@@QAEXXZ PROC ; std::_Tree<std::_Tmap_traits<unsigned char,CCamera *,std::less<unsigned char>,std::allocator<std::pair<unsigned char const ,CCamera *> >,0> >::clear, COMDAT
; _this$ = ecx

; 1444 :     void clear() noexcept {

  00000	55		 push	 ebp
  00001	8b ec		 mov	 ebp, esp
  00003	83 ec 18	 sub	 esp, 24			; 00000018H
  00006	89 4d f4	 mov	 DWORD PTR _this$[ebp], ecx

; 2047 :         return _STD addressof(_Mypair._Myval2._Myval2);

  00009	8b 45 f4	 mov	 eax, DWORD PTR _this$[ebp]
; File C:\Program Files (x86)\Microsoft Visual Studio\2019\Community\VC\Tools\MSVC\14.28.29333\include\xstddef

; 275  :     return __builtin_addressof(_Val);

  0000c	89 45 f0	 mov	 DWORD PTR $T3[ebp], eax
; File C:\Program Files (x86)\Microsoft Visual Studio\2019\Community\VC\Tools\MSVC\14.28.29333\include\xtree

; 2047 :         return _STD addressof(_Mypair._Myval2._Myval2);

  0000f	8b 45 f0	 mov	 eax, DWORD PTR $T3[ebp]
  00012	89 45 f8	 mov	 DWORD PTR __Scary$[ebp], eax

; 1445 :         const auto _Scary = _Get_scary();
; 1446 :         _Scary->_Orphan_ptr(nullptr);
; 1447 :         auto _Head = _Scary->_Myhead;

  00015	8b 45 f8	 mov	 eax, DWORD PTR __Scary$[ebp]
  00018	8b 00		 mov	 eax, DWORD PTR [eax]
  0001a	89 45 fc	 mov	 DWORD PTR __Head$[ebp], eax

; 2039 :         return _Mypair._Myval2._Get_first();

  0001d	8b 45 f4	 mov	 eax, DWORD PTR _this$[ebp]
; File C:\Program Files (x86)\Microsoft Visual Studio\2019\Community\VC\Tools\MSVC\14.28.29333\include\xmemory

; 1347 :         return *this;

  00020	89 45 ec	 mov	 DWORD PTR $T2[ebp], eax
; File C:\Program Files (x86)\Microsoft Visual Studio\2019\Community\VC\Tools\MSVC\14.28.29333\include\xtree

; 2039 :         return _Mypair._Myval2._Get_first();

  00023	8b 45 ec	 mov	 eax, DWORD PTR $T2[ebp]
  00026	89 45 e8	 mov	 DWORD PTR $T1[ebp], eax

; 1448 :         _Scary->_Erase_tree(_Getal(), _Head->_Parent);

  00029	8b 45 fc	 mov	 eax, DWORD PTR __Head$[ebp]
  0002c	ff 70 04	 push	 DWORD PTR [eax+4]
  0002f	ff 75 e8	 push	 DWORD PTR $T1[ebp]
  00032	8b 4d f8	 mov	 ecx, DWORD PTR __Scary$[ebp]
  00035	e8 00 00 00 00	 call	 ??$_Erase_tree@V?$allocator@U?$_Tree_node@U?$pair@$$CBEPAVCCamera@@@std@@PAX@std@@@std@@@?$_Tree_val@U?$_Tree_simple_types@U?$pair@$$CBEPAVCCamera@@@std@@@std@@@std@@QAEXAAV?$allocator@U?$_Tree_node@U?$pair@$$CBEPAVCCamera@@@std@@PAX@std@@@1@PAU?$_Tree_node@U?$pair@$$CBEPAVCCamera@@@std@@PAX@1@@Z ; std::_Tree_val<std::_Tree_simple_types<std::pair<unsigned char const ,CCamera *> > >::_Erase_tree<std::allocator<std::_Tree_node<std::pair<unsigned char const ,CCamera *>,void *> > >

; 1449 :         _Head->_Parent  = _Head;

  0003a	8b 45 fc	 mov	 eax, DWORD PTR __Head$[ebp]
  0003d	8b 4d fc	 mov	 ecx, DWORD PTR __Head$[ebp]
  00040	89 48 04	 mov	 DWORD PTR [eax+4], ecx

; 1450 :         _Head->_Left    = _Head;

  00043	8b 45 fc	 mov	 eax, DWORD PTR __Head$[ebp]
  00046	8b 4d fc	 mov	 ecx, DWORD PTR __Head$[ebp]
  00049	89 08		 mov	 DWORD PTR [eax], ecx

; 1451 :         _Head->_Right   = _Head;

  0004b	8b 45 fc	 mov	 eax, DWORD PTR __Head$[ebp]
  0004e	8b 4d fc	 mov	 ecx, DWORD PTR __Head$[ebp]
  00051	89 48 08	 mov	 DWORD PTR [eax+8], ecx

; 1452 :         _Scary->_Mysize = 0;

  00054	8b 45 f8	 mov	 eax, DWORD PTR __Scary$[ebp]
  00057	83 60 04 00	 and	 DWORD PTR [eax+4], 0

; 1453 :     }

  0005b	c9		 leave
  0005c	c3		 ret	 0
?clear@?$_Tree@V?$_Tmap_traits@EPAVCCamera@@U?$less@E@std@@V?$allocator@U?$pair@$$CBEPAVCCamera@@@std@@@3@$0A@@std@@@std@@QAEXXZ ENDP ; std::_Tree<std::_Tmap_traits<unsigned char,CCamera *,std::less<unsigned char>,std::allocator<std::pair<unsigned char const ,CCamera *> >,0> >::clear
_TEXT	ENDS
; Function compile flags: /Odspy
; File C:\Program Files (x86)\Microsoft Visual Studio\2019\Community\VC\Tools\MSVC\14.28.29333\include\xtree
; File C:\Program Files (x86)\Microsoft Visual Studio\2019\Community\VC\Tools\MSVC\14.28.29333\include\xstddef
; File C:\Program Files (x86)\Microsoft Visual Studio\2019\Community\VC\Tools\MSVC\14.28.29333\include\xtree
; File C:\Program Files (x86)\Microsoft Visual Studio\2019\Community\VC\Tools\MSVC\14.28.29333\include\xmemory
; File C:\Program Files (x86)\Microsoft Visual Studio\2019\Community\VC\Tools\MSVC\14.28.29333\include\xtree
; File C:\Program Files (x86)\Microsoft Visual Studio\2019\Community\VC\Tools\MSVC\14.28.29333\include\xstddef
; File C:\Program Files (x86)\Microsoft Visual Studio\2019\Community\VC\Tools\MSVC\14.28.29333\include\xtree
;	COMDAT ?_Erase_unchecked@?$_Tree@V?$_Tmap_traits@EPAVCCamera@@U?$less@E@std@@V?$allocator@U?$pair@$$CBEPAVCCamera@@@std@@@3@$0A@@std@@@std@@AAEPAU?$_Tree_node@U?$pair@$$CBEPAVCCamera@@@std@@PAX@2@V?$_Tree_unchecked_const_iterator@V?$_Tree_val@U?$_Tree_simple_types@U?$pair@$$CBEPAVCCamera@@@std@@@std@@@std@@U_Iterator_base0@2@@2@@Z
_TEXT	SEGMENT
$T1 = -32						; size = 4
$T2 = -28						; size = 4
$T3 = -24						; size = 4
__Scary$ = -20						; size = 4
$T4 = -16						; size = 4
__Successor$ = -12					; size = 4
__Erasednode$ = -8					; size = 4
_this$ = -4						; size = 4
__Where$ = 8						; size = 4
?_Erase_unchecked@?$_Tree@V?$_Tmap_traits@EPAVCCamera@@U?$less@E@std@@V?$allocator@U?$pair@$$CBEPAVCCamera@@@std@@@3@$0A@@std@@@std@@AAEPAU?$_Tree_node@U?$pair@$$CBEPAVCCamera@@@std@@PAX@2@V?$_Tree_unchecked_const_iterator@V?$_Tree_val@U?$_Tree_simple_types@U?$pair@$$CBEPAVCCamera@@@std@@@std@@@std@@U_Iterator_base0@2@@2@@Z PROC ; std::_Tree<std::_Tmap_traits<unsigned char,CCamera *,std::less<unsigned char>,std::allocator<std::pair<unsigned char const ,CCamera *> >,0> >::_Erase_unchecked, COMDAT
; _this$ = ecx

; 1385 :     _Nodeptr _Erase_unchecked(_Unchecked_const_iterator _Where) noexcept {

  00000	55		 push	 ebp
  00001	8b ec		 mov	 ebp, esp
  00003	83 ec 20	 sub	 esp, 32			; 00000020H
  00006	89 4d fc	 mov	 DWORD PTR _this$[ebp], ecx

; 2047 :         return _STD addressof(_Mypair._Myval2._Myval2);

  00009	8b 45 fc	 mov	 eax, DWORD PTR _this$[ebp]
; File C:\Program Files (x86)\Microsoft Visual Studio\2019\Community\VC\Tools\MSVC\14.28.29333\include\xstddef

; 275  :     return __builtin_addressof(_Val);

  0000c	89 45 f0	 mov	 DWORD PTR $T4[ebp], eax
; File C:\Program Files (x86)\Microsoft Visual Studio\2019\Community\VC\Tools\MSVC\14.28.29333\include\xtree

; 2047 :         return _STD addressof(_Mypair._Myval2._Myval2);

  0000f	8b 45 f0	 mov	 eax, DWORD PTR $T4[ebp]
  00012	89 45 ec	 mov	 DWORD PTR __Scary$[ebp], eax

; 1386 :         const auto _Scary                    = _Get_scary();
; 1387 :         _Unchecked_const_iterator _Successor = _Where;

  00015	8b 45 08	 mov	 eax, DWORD PTR __Where$[ebp]
  00018	89 45 f4	 mov	 DWORD PTR __Successor$[ebp], eax

; 1388 :         ++_Successor; // save successor iterator for return

  0001b	8d 4d f4	 lea	 ecx, DWORD PTR __Successor$[ebp]
  0001e	e8 00 00 00 00	 call	 ??E?$_Tree_unchecked_const_iterator@V?$_Tree_val@U?$_Tree_simple_types@U?$pair@$$CBEPAVCCamera@@@std@@@std@@@std@@U_Iterator_base0@2@@std@@QAEAAV01@XZ ; std::_Tree_unchecked_const_iterator<std::_Tree_val<std::_Tree_simple_types<std::pair<unsigned char const ,CCamera *> > >,std::_Iterator_base0>::operator++

; 1389 :         _Nodeptr _Erasednode = _Scary->_Extract(_Where); // node to erase

  00023	ff 75 08	 push	 DWORD PTR __Where$[ebp]
  00026	8b 4d ec	 mov	 ecx, DWORD PTR __Scary$[ebp]
  00029	e8 00 00 00 00	 call	 ?_Extract@?$_Tree_val@U?$_Tree_simple_types@U?$pair@$$CBEPAVCCamera@@@std@@@std@@@std@@QAEPAU?$_Tree_node@U?$pair@$$CBEPAVCCamera@@@std@@PAX@2@V?$_Tree_unchecked_const_iterator@V?$_Tree_val@U?$_Tree_simple_types@U?$pair@$$CBEPAVCCamera@@@std@@@std@@@std@@U_Iterator_base0@2@@2@@Z ; std::_Tree_val<std::_Tree_simple_types<std::pair<unsigned char const ,CCamera *> > >::_Extract
  0002e	89 45 f8	 mov	 DWORD PTR __Erasednode$[ebp], eax

; 2039 :         return _Mypair._Myval2._Get_first();

  00031	8b 45 fc	 mov	 eax, DWORD PTR _this$[ebp]
; File C:\Program Files (x86)\Microsoft Visual Studio\2019\Community\VC\Tools\MSVC\14.28.29333\include\xmemory

; 1347 :         return *this;

  00034	89 45 e8	 mov	 DWORD PTR $T3[ebp], eax
; File C:\Program Files (x86)\Microsoft Visual Studio\2019\Community\VC\Tools\MSVC\14.28.29333\include\xtree

; 2039 :         return _Mypair._Myval2._Get_first();

  00037	8b 45 e8	 mov	 eax, DWORD PTR $T3[ebp]
  0003a	89 45 e4	 mov	 DWORD PTR $T2[ebp], eax

; 379  :         allocator_traits<_Alloc>::destroy(_Al, _STD addressof(_Ptr->_Myval));

  0003d	8b 45 f8	 mov	 eax, DWORD PTR __Erasednode$[ebp]
  00040	83 c0 10	 add	 eax, 16			; 00000010H
; File C:\Program Files (x86)\Microsoft Visual Studio\2019\Community\VC\Tools\MSVC\14.28.29333\include\xstddef

; 275  :     return __builtin_addressof(_Val);

  00043	89 45 e0	 mov	 DWORD PTR $T1[ebp], eax
; File C:\Program Files (x86)\Microsoft Visual Studio\2019\Community\VC\Tools\MSVC\14.28.29333\include\xtree

; 380  :         _Freenode0(_Al, _Ptr);

  00046	ff 75 f8	 push	 DWORD PTR __Erasednode$[ebp]
  00049	ff 75 e4	 push	 DWORD PTR $T2[ebp]
  0004c	e8 00 00 00 00	 call	 ??$_Freenode0@V?$allocator@U?$_Tree_node@U?$pair@$$CBEPAVCCamera@@@std@@PAX@std@@@std@@@?$_Tree_node@U?$pair@$$CBEPAVCCamera@@@std@@PAX@std@@SAXAAV?$allocator@U?$_Tree_node@U?$pair@$$CBEPAVCCamera@@@std@@PAX@std@@@1@PAU01@@Z ; std::_Tree_node<std::pair<unsigned char const ,CCamera *>,void *>::_Freenode0<std::allocator<std::_Tree_node<std::pair<unsigned char const ,CCamera *>,void *> > >
  00051	59		 pop	 ecx
  00052	59		 pop	 ecx

; 1390 :         _Scary->_Orphan_ptr(_Erasednode);
; 1391 :         _Node::_Freenode(_Getal(), _Erasednode); // delete erased node
; 1392 :         return _Successor._Ptr; // return successor nodeptr

  00053	8b 45 f4	 mov	 eax, DWORD PTR __Successor$[ebp]

; 1393 :     }

  00056	c9		 leave
  00057	c2 04 00	 ret	 4
?_Erase_unchecked@?$_Tree@V?$_Tmap_traits@EPAVCCamera@@U?$less@E@std@@V?$allocator@U?$pair@$$CBEPAVCCamera@@@std@@@3@$0A@@std@@@std@@AAEPAU?$_Tree_node@U?$pair@$$CBEPAVCCamera@@@std@@PAX@2@V?$_Tree_unchecked_const_iterator@V?$_Tree_val@U?$_Tree_simple_types@U?$pair@$$CBEPAVCCamera@@@std@@@std@@@std@@U_Iterator_base0@2@@2@@Z ENDP ; std::_Tree<std::_Tmap_traits<unsigned char,CCamera *,std::less<unsigned char>,std::allocator<std::pair<unsigned char const ,CCamera *> >,0> >::_Erase_unchecked
_TEXT	ENDS
; Function compile flags: /Odspy
; File C:\Program Files (x86)\Microsoft Visual Studio\2019\Community\VC\Tools\MSVC\14.28.29333\include\xtree
; File C:\Program Files (x86)\Microsoft Visual Studio\2019\Community\VC\Tools\MSVC\14.28.29333\include\xmemory
; File C:\Program Files (x86)\Microsoft Visual Studio\2019\Community\VC\Tools\MSVC\14.28.29333\include\xtree
; File C:\Program Files (x86)\Microsoft Visual Studio\2019\Community\VC\Tools\MSVC\14.28.29333\include\xmemory
; File C:\Program Files (x86)\Microsoft Visual Studio\2019\Community\VC\Tools\MSVC\14.28.29333\include\limits
; File C:\Program Files (x86)\Microsoft Visual Studio\2019\Community\VC\Tools\MSVC\14.28.29333\include\xtree
; File C:\Program Files (x86)\Microsoft Visual Studio\2019\Community\VC\Tools\MSVC\14.28.29333\include\utility
; File C:\Program Files (x86)\Microsoft Visual Studio\2019\Community\VC\Tools\MSVC\14.28.29333\include\xtree
;	COMDAT ?max_size@?$_Tree@V?$_Tmap_traits@EPAVCCamera@@U?$less@E@std@@V?$allocator@U?$pair@$$CBEPAVCCamera@@@std@@@3@$0A@@std@@@std@@QBEIXZ
_TEXT	SEGMENT
$T1 = -36						; size = 4
$T2 = -32						; size = 4
$T3 = -28						; size = 4
$T4 = -24						; size = 4
$T5 = -20						; size = 4
_this$ = -16						; size = 4
tv68 = -12						; size = 4
$T6 = -8						; size = 4
$T7 = -4						; size = 4
?max_size@?$_Tree@V?$_Tmap_traits@EPAVCCamera@@U?$less@E@std@@V?$allocator@U?$pair@$$CBEPAVCCamera@@@std@@@3@$0A@@std@@@std@@QBEIXZ PROC ; std::_Tree<std::_Tmap_traits<unsigned char,CCamera *,std::less<unsigned char>,std::allocator<std::pair<unsigned char const ,CCamera *> >,0> >::max_size, COMDAT
; _this$ = ecx

; 1310 :     _NODISCARD size_type max_size() const noexcept {

  00000	55		 push	 ebp
  00001	8b ec		 mov	 ebp, esp
  00003	83 ec 24	 sub	 esp, 36			; 00000024H
  00006	89 4d f0	 mov	 DWORD PTR _this$[ebp], ecx

; 2043 :         return _Mypair._Myval2._Get_first();

  00009	8b 45 f0	 mov	 eax, DWORD PTR _this$[ebp]
; File C:\Program Files (x86)\Microsoft Visual Studio\2019\Community\VC\Tools\MSVC\14.28.29333\include\xmemory

; 1351 :         return *this;

  0000c	89 45 ec	 mov	 DWORD PTR $T5[ebp], eax
; File C:\Program Files (x86)\Microsoft Visual Studio\2019\Community\VC\Tools\MSVC\14.28.29333\include\xtree

; 2043 :         return _Mypair._Myval2._Get_first();

  0000f	8b 45 ec	 mov	 eax, DWORD PTR $T5[ebp]
  00012	89 45 dc	 mov	 DWORD PTR $T1[ebp], eax
; File C:\Program Files (x86)\Microsoft Visual Studio\2019\Community\VC\Tools\MSVC\14.28.29333\include\xmemory

; 710  :         return static_cast<size_t>(-1) / sizeof(value_type);

  00015	c7 45 fc aa aa
	aa 0a		 mov	 DWORD PTR $T7[ebp], 178956970 ; 0aaaaaaaH
; File C:\Program Files (x86)\Microsoft Visual Studio\2019\Community\VC\Tools\MSVC\14.28.29333\include\limits

; 557  :         return INT_MAX;

  0001c	c7 45 e8 ff ff
	ff 7f		 mov	 DWORD PTR $T4[ebp], 2147483647 ; 7fffffffH
; File C:\Program Files (x86)\Microsoft Visual Studio\2019\Community\VC\Tools\MSVC\14.28.29333\include\xtree

; 1311 :         return (_STD min)(

  00023	8b 45 e8	 mov	 eax, DWORD PTR $T4[ebp]
  00026	89 45 f8	 mov	 DWORD PTR $T6[ebp], eax
; File C:\Program Files (x86)\Microsoft Visual Studio\2019\Community\VC\Tools\MSVC\14.28.29333\include\utility

; 68   :     return _Right < _Left ? _Right : _Left;

  00029	8b 45 fc	 mov	 eax, DWORD PTR $T7[ebp]
  0002c	3b 45 f8	 cmp	 eax, DWORD PTR $T6[ebp]
  0002f	73 08		 jae	 SHORT $LN17@max_size
  00031	8d 45 fc	 lea	 eax, DWORD PTR $T7[ebp]
  00034	89 45 f4	 mov	 DWORD PTR tv68[ebp], eax
  00037	eb 06		 jmp	 SHORT $LN18@max_size
$LN17@max_size:
  00039	8d 45 f8	 lea	 eax, DWORD PTR $T6[ebp]
  0003c	89 45 f4	 mov	 DWORD PTR tv68[ebp], eax
$LN18@max_size:
  0003f	8b 45 f4	 mov	 eax, DWORD PTR tv68[ebp]
  00042	89 45 e4	 mov	 DWORD PTR $T3[ebp], eax
  00045	8b 45 e4	 mov	 eax, DWORD PTR $T3[ebp]
  00048	89 45 e0	 mov	 DWORD PTR $T2[ebp], eax
; File C:\Program Files (x86)\Microsoft Visual Studio\2019\Community\VC\Tools\MSVC\14.28.29333\include\xtree

; 1311 :         return (_STD min)(

  0004b	8b 45 e0	 mov	 eax, DWORD PTR $T2[ebp]
  0004e	8b 00		 mov	 eax, DWORD PTR [eax]

; 1312 :             static_cast<size_type>((numeric_limits<difference_type>::max)()), _Alnode_traits::max_size(_Getal()));
; 1313 :     }

  00050	c9		 leave
  00051	c3		 ret	 0
?max_size@?$_Tree@V?$_Tmap_traits@EPAVCCamera@@U?$less@E@std@@V?$allocator@U?$pair@$$CBEPAVCCamera@@@std@@@3@$0A@@std@@@std@@QBEIXZ ENDP ; std::_Tree<std::_Tmap_traits<unsigned char,CCamera *,std::less<unsigned char>,std::allocator<std::pair<unsigned char const ,CCamera *> >,0> >::max_size
_TEXT	ENDS
; Function compile flags: /Odspy
; File C:\Program Files (x86)\Microsoft Visual Studio\2019\Community\VC\Tools\MSVC\14.28.29333\include\xtree
; File C:\Program Files (x86)\Microsoft Visual Studio\2019\Community\VC\Tools\MSVC\14.28.29333\include\xstddef
; File C:\Program Files (x86)\Microsoft Visual Studio\2019\Community\VC\Tools\MSVC\14.28.29333\include\xtree
;	COMDAT ?begin@?$_Tree@V?$_Tmap_traits@EPAVCCamera@@U?$less@E@std@@V?$allocator@U?$pair@$$CBEPAVCCamera@@@std@@@3@$0A@@std@@@std@@QAE?AV?$_Tree_iterator@V?$_Tree_val@U?$_Tree_simple_types@U?$pair@$$CBEPAVCCamera@@@std@@@std@@@std@@@2@XZ
_TEXT	SEGMENT
___param0$ = -16					; size = 4
__Scary$ = -12						; size = 4
$T1 = -8						; size = 4
_this$ = -4						; size = 4
___$ReturnUdt$ = 8					; size = 4
?begin@?$_Tree@V?$_Tmap_traits@EPAVCCamera@@U?$less@E@std@@V?$allocator@U?$pair@$$CBEPAVCCamera@@@std@@@3@$0A@@std@@@std@@QAE?AV?$_Tree_iterator@V?$_Tree_val@U?$_Tree_simple_types@U?$pair@$$CBEPAVCCamera@@@std@@@std@@@std@@@2@XZ PROC ; std::_Tree<std::_Tmap_traits<unsigned char,CCamera *,std::less<unsigned char>,std::allocator<std::pair<unsigned char const ,CCamera *> >,0> >::begin, COMDAT
; _this$ = ecx

; 1238 :     _NODISCARD iterator begin() noexcept {

  00000	55		 push	 ebp
  00001	8b ec		 mov	 ebp, esp
  00003	83 ec 10	 sub	 esp, 16			; 00000010H
  00006	89 4d fc	 mov	 DWORD PTR _this$[ebp], ecx

; 2047 :         return _STD addressof(_Mypair._Myval2._Myval2);

  00009	8b 45 fc	 mov	 eax, DWORD PTR _this$[ebp]
; File C:\Program Files (x86)\Microsoft Visual Studio\2019\Community\VC\Tools\MSVC\14.28.29333\include\xstddef

; 275  :     return __builtin_addressof(_Val);

  0000c	89 45 f8	 mov	 DWORD PTR $T1[ebp], eax
; File C:\Program Files (x86)\Microsoft Visual Studio\2019\Community\VC\Tools\MSVC\14.28.29333\include\xtree

; 2047 :         return _STD addressof(_Mypair._Myval2._Myval2);

  0000f	8b 45 f8	 mov	 eax, DWORD PTR $T1[ebp]
  00012	89 45 f4	 mov	 DWORD PTR __Scary$[ebp], eax

; 1239 :         const auto _Scary = _Get_scary();
; 1240 :         return iterator(_Scary->_Myhead->_Left, _Scary);

  00015	8b 45 f4	 mov	 eax, DWORD PTR __Scary$[ebp]
  00018	8b 00		 mov	 eax, DWORD PTR [eax]
  0001a	8b 00		 mov	 eax, DWORD PTR [eax]
  0001c	89 45 f0	 mov	 DWORD PTR ___param0$[ebp], eax

; 39   :     _Tree_unchecked_const_iterator(_Nodeptr _Pnode, const _Mytree* _Plist) noexcept : _Ptr(_Pnode) {

  0001f	8b 45 08	 mov	 eax, DWORD PTR ___$ReturnUdt$[ebp]
  00022	8b 4d f0	 mov	 ecx, DWORD PTR ___param0$[ebp]
  00025	89 08		 mov	 DWORD PTR [eax], ecx

; 1239 :         const auto _Scary = _Get_scary();
; 1240 :         return iterator(_Scary->_Myhead->_Left, _Scary);

  00027	8b 45 08	 mov	 eax, DWORD PTR ___$ReturnUdt$[ebp]

; 1241 :     }

  0002a	c9		 leave
  0002b	c2 04 00	 ret	 4
?begin@?$_Tree@V?$_Tmap_traits@EPAVCCamera@@U?$less@E@std@@V?$allocator@U?$pair@$$CBEPAVCCamera@@@std@@@3@$0A@@std@@@std@@QAE?AV?$_Tree_iterator@V?$_Tree_val@U?$_Tree_simple_types@U?$pair@$$CBEPAVCCamera@@@std@@@std@@@std@@@2@XZ ENDP ; std::_Tree<std::_Tmap_traits<unsigned char,CCamera *,std::less<unsigned char>,std::allocator<std::pair<unsigned char const ,CCamera *> >,0> >::begin
_TEXT	ENDS
; Function compile flags: /Odspy
; File C:\Program Files (x86)\Microsoft Visual Studio\2019\Community\VC\Tools\MSVC\14.28.29333\include\xtree
; File C:\Program Files (x86)\Microsoft Visual Studio\2019\Community\VC\Tools\MSVC\14.28.29333\include\xstddef
; File C:\Program Files (x86)\Microsoft Visual Studio\2019\Community\VC\Tools\MSVC\14.28.29333\include\xtree
; File C:\Program Files (x86)\Microsoft Visual Studio\2019\Community\VC\Tools\MSVC\14.28.29333\include\xmemory
; File C:\Program Files (x86)\Microsoft Visual Studio\2019\Community\VC\Tools\MSVC\14.28.29333\include\xtree
;	COMDAT ??1?$_Tree@V?$_Tmap_traits@EPAVCCamera@@U?$less@E@std@@V?$allocator@U?$pair@$$CBEPAVCCamera@@@std@@@3@$0A@@std@@@std@@QAE@XZ
_TEXT	SEGMENT
$T1 = -20						; size = 4
$T2 = -16						; size = 4
$T3 = -12						; size = 4
_this$ = -8						; size = 4
__Scary$ = -4						; size = 4
??1?$_Tree@V?$_Tmap_traits@EPAVCCamera@@U?$less@E@std@@V?$allocator@U?$pair@$$CBEPAVCCamera@@@std@@@3@$0A@@std@@@std@@QAE@XZ PROC ; std::_Tree<std::_Tmap_traits<unsigned char,CCamera *,std::less<unsigned char>,std::allocator<std::pair<unsigned char const ,CCamera *> >,0> >::~_Tree<std::_Tmap_traits<unsigned char,CCamera *,std::less<unsigned char>,std::allocator<std::pair<unsigned char const ,CCamera *> >,0> >, COMDAT
; _this$ = ecx

; 1189 :     ~_Tree() noexcept {

  00000	55		 push	 ebp
  00001	8b ec		 mov	 ebp, esp
  00003	83 ec 14	 sub	 esp, 20			; 00000014H
  00006	89 4d f8	 mov	 DWORD PTR _this$[ebp], ecx

; 2047 :         return _STD addressof(_Mypair._Myval2._Myval2);

  00009	8b 45 f8	 mov	 eax, DWORD PTR _this$[ebp]
; File C:\Program Files (x86)\Microsoft Visual Studio\2019\Community\VC\Tools\MSVC\14.28.29333\include\xstddef

; 275  :     return __builtin_addressof(_Val);

  0000c	89 45 f0	 mov	 DWORD PTR $T2[ebp], eax
; File C:\Program Files (x86)\Microsoft Visual Studio\2019\Community\VC\Tools\MSVC\14.28.29333\include\xtree

; 2047 :         return _STD addressof(_Mypair._Myval2._Myval2);

  0000f	8b 45 f0	 mov	 eax, DWORD PTR $T2[ebp]
  00012	89 45 fc	 mov	 DWORD PTR __Scary$[ebp], eax

; 2039 :         return _Mypair._Myval2._Get_first();

  00015	8b 45 f8	 mov	 eax, DWORD PTR _this$[ebp]
; File C:\Program Files (x86)\Microsoft Visual Studio\2019\Community\VC\Tools\MSVC\14.28.29333\include\xmemory

; 1347 :         return *this;

  00018	89 45 ec	 mov	 DWORD PTR $T1[ebp], eax
; File C:\Program Files (x86)\Microsoft Visual Studio\2019\Community\VC\Tools\MSVC\14.28.29333\include\xtree

; 2039 :         return _Mypair._Myval2._Get_first();

  0001b	8b 45 ec	 mov	 eax, DWORD PTR $T1[ebp]
  0001e	89 45 f4	 mov	 DWORD PTR $T3[ebp], eax

; 752  :         _Erase_tree(_Al, _Myhead->_Parent);

  00021	8b 45 fc	 mov	 eax, DWORD PTR __Scary$[ebp]
  00024	8b 00		 mov	 eax, DWORD PTR [eax]
  00026	ff 70 04	 push	 DWORD PTR [eax+4]
  00029	ff 75 f4	 push	 DWORD PTR $T3[ebp]
  0002c	8b 4d fc	 mov	 ecx, DWORD PTR __Scary$[ebp]
  0002f	e8 00 00 00 00	 call	 ??$_Erase_tree@V?$allocator@U?$_Tree_node@U?$pair@$$CBEPAVCCamera@@@std@@PAX@std@@@std@@@?$_Tree_val@U?$_Tree_simple_types@U?$pair@$$CBEPAVCCamera@@@std@@@std@@@std@@QAEXAAV?$allocator@U?$_Tree_node@U?$pair@$$CBEPAVCCamera@@@std@@PAX@std@@@1@PAU?$_Tree_node@U?$pair@$$CBEPAVCCamera@@@std@@PAX@1@@Z ; std::_Tree_val<std::_Tree_simple_types<std::pair<unsigned char const ,CCamera *> > >::_Erase_tree<std::allocator<std::_Tree_node<std::pair<unsigned char const ,CCamera *>,void *> > >

; 753  :         _Alnode::value_type::_Freenode0(_Al, _Myhead);

  00034	8b 45 fc	 mov	 eax, DWORD PTR __Scary$[ebp]
  00037	ff 30		 push	 DWORD PTR [eax]
  00039	ff 75 f4	 push	 DWORD PTR $T3[ebp]
  0003c	e8 00 00 00 00	 call	 ??$_Freenode0@V?$allocator@U?$_Tree_node@U?$pair@$$CBEPAVCCamera@@@std@@PAX@std@@@std@@@?$_Tree_node@U?$pair@$$CBEPAVCCamera@@@std@@PAX@std@@SAXAAV?$allocator@U?$_Tree_node@U?$pair@$$CBEPAVCCamera@@@std@@PAX@std@@@1@PAU01@@Z ; std::_Tree_node<std::pair<unsigned char const ,CCamera *>,void *>::_Freenode0<std::allocator<std::_Tree_node<std::pair<unsigned char const ,CCamera *>,void *> > >
  00041	59		 pop	 ecx
  00042	59		 pop	 ecx

; 1190 :         const auto _Scary = _Get_scary();
; 1191 :         _Scary->_Erase_head(_Getal());
; 1192 : #if _ITERATOR_DEBUG_LEVEL != 0 // TRANSITION, ABI
; 1193 :         auto&& _Alproxy = _GET_PROXY_ALLOCATOR(_Alnode, _Getal());
; 1194 :         _Delete_plain_internal(_Alproxy, _Scary->_Myproxy);
; 1195 : #endif // _ITERATOR_DEBUG_LEVEL != 0
; 1196 :     }

  00043	c9		 leave
  00044	c3		 ret	 0
??1?$_Tree@V?$_Tmap_traits@EPAVCCamera@@U?$less@E@std@@V?$allocator@U?$pair@$$CBEPAVCCamera@@@std@@@3@$0A@@std@@@std@@QAE@XZ ENDP ; std::_Tree<std::_Tmap_traits<unsigned char,CCamera *,std::less<unsigned char>,std::allocator<std::pair<unsigned char const ,CCamera *> >,0> >::~_Tree<std::_Tmap_traits<unsigned char,CCamera *,std::less<unsigned char>,std::allocator<std::pair<unsigned char const ,CCamera *> >,0> >
_TEXT	ENDS
; Function compile flags: /Odspy
; File C:\Program Files (x86)\Microsoft Visual Studio\2019\Community\VC\Tools\MSVC\14.28.29333\include\xtree
; File C:\Program Files (x86)\Microsoft Visual Studio\2019\Community\VC\Tools\MSVC\14.28.29333\include\type_traits
; File C:\Program Files (x86)\Microsoft Visual Studio\2019\Community\VC\Tools\MSVC\14.28.29333\include\xmemory
; File C:\Program Files (x86)\Microsoft Visual Studio\2019\Community\VC\Tools\MSVC\14.28.29333\include\xtree
;	COMDAT ??0?$_Tree@V?$_Tmap_traits@EPAVCCamera@@U?$less@E@std@@V?$allocator@U?$pair@$$CBEPAVCCamera@@@std@@@3@$0A@@std@@@std@@QAE@ABU?$less@E@1@@Z
_TEXT	SEGMENT
_this$ = -28						; size = 4
_this$ = -24						; size = 4
$T1 = -20						; size = 4
_this$2 = -16						; size = 4
_this$ = -12						; size = 4
___formal$ = -8						; size = 1
$T3 = -1						; size = 1
__Parg$ = 8						; size = 4
??0?$_Tree@V?$_Tmap_traits@EPAVCCamera@@U?$less@E@std@@V?$allocator@U?$pair@$$CBEPAVCCamera@@@std@@@3@$0A@@std@@@std@@QAE@ABU?$less@E@1@@Z PROC ; std::_Tree<std::_Tmap_traits<unsigned char,CCamera *,std::less<unsigned char>,std::allocator<std::pair<unsigned char const ,CCamera *> >,0> >::_Tree<std::_Tmap_traits<unsigned char,CCamera *,std::less<unsigned char>,std::allocator<std::pair<unsigned char const ,CCamera *> >,0> >, COMDAT
; _this$ = ecx

; 885  :     _Tree(const key_compare& _Parg) : _Mypair(_One_then_variadic_args_t{}, _Parg, _Zero_then_variadic_args_t{}) {

  00000	55		 push	 ebp
  00001	8b ec		 mov	 ebp, esp
  00003	83 ec 1c	 sub	 esp, 28			; 0000001cH
  00006	89 4d f4	 mov	 DWORD PTR _this$[ebp], ecx
  00009	8b 45 f4	 mov	 eax, DWORD PTR _this$[ebp]
  0000c	89 45 e8	 mov	 DWORD PTR _this$[ebp], eax
; File C:\Program Files (x86)\Microsoft Visual Studio\2019\Community\VC\Tools\MSVC\14.28.29333\include\type_traits

; 1443 :     return static_cast<_Ty&&>(_Arg);

  0000f	8d 45 ff	 lea	 eax, DWORD PTR $T3[ebp]
  00012	89 45 ec	 mov	 DWORD PTR $T1[ebp], eax
; File C:\Program Files (x86)\Microsoft Visual Studio\2019\Community\VC\Tools\MSVC\14.28.29333\include\xmemory

; 1344 :         : _Ty1(_STD forward<_Other1>(_Val1)), _Myval2(_STD forward<_Other2>(_Val2)...) {}

  00015	8b 45 ec	 mov	 eax, DWORD PTR $T1[ebp]
  00018	8a 00		 mov	 al, BYTE PTR [eax]
  0001a	88 45 f8	 mov	 BYTE PTR ___formal$[ebp], al
  0001d	8b 45 e8	 mov	 eax, DWORD PTR _this$[ebp]
  00020	89 45 e4	 mov	 DWORD PTR _this$[ebp], eax

; 1339 :         : _Ty1(), _Myval2(_STD forward<_Other2>(_Val2)...) {}

  00023	8b 45 e4	 mov	 eax, DWORD PTR _this$[ebp]
  00026	89 45 f0	 mov	 DWORD PTR _this$2[ebp], eax
; File C:\Program Files (x86)\Microsoft Visual Studio\2019\Community\VC\Tools\MSVC\14.28.29333\include\xtree

; 435  :     _Tree_val() noexcept : _Myhead(), _Mysize(0) {}

  00029	8b 45 f0	 mov	 eax, DWORD PTR _this$2[ebp]
  0002c	83 20 00	 and	 DWORD PTR [eax], 0
  0002f	8b 45 f0	 mov	 eax, DWORD PTR _this$2[ebp]
  00032	83 60 04 00	 and	 DWORD PTR [eax+4], 0

; 886  :         _Alloc_sentinel_and_proxy();

  00036	8b 4d f4	 mov	 ecx, DWORD PTR _this$[ebp]
  00039	e8 00 00 00 00	 call	 ?_Alloc_sentinel_and_proxy@?$_Tree@V?$_Tmap_traits@EPAVCCamera@@U?$less@E@std@@V?$allocator@U?$pair@$$CBEPAVCCamera@@@std@@@3@$0A@@std@@@std@@IAEXXZ ; std::_Tree<std::_Tmap_traits<unsigned char,CCamera *,std::less<unsigned char>,std::allocator<std::pair<unsigned char const ,CCamera *> >,0> >::_Alloc_sentinel_and_proxy

; 887  :     }

  0003e	8b 45 f4	 mov	 eax, DWORD PTR _this$[ebp]
  00041	c9		 leave
  00042	c2 04 00	 ret	 4
??0?$_Tree@V?$_Tmap_traits@EPAVCCamera@@U?$less@E@std@@V?$allocator@U?$pair@$$CBEPAVCCamera@@@std@@@3@$0A@@std@@@std@@QAE@ABU?$less@E@1@@Z ENDP ; std::_Tree<std::_Tmap_traits<unsigned char,CCamera *,std::less<unsigned char>,std::allocator<std::pair<unsigned char const ,CCamera *> >,0> >::_Tree<std::_Tmap_traits<unsigned char,CCamera *,std::less<unsigned char>,std::allocator<std::pair<unsigned char const ,CCamera *> >,0> >
_TEXT	ENDS
; Function compile flags: /Odspy
; File D:\Metin2 Server Files\mainline\SRC_2014\Metin2Client\EterLib\Camera.cpp
; File D:\Metin2 Server Files\mainline\SRC_2014\Metin2Client\EterLib\Camera.h
; File D:\Metin2 Server Files\mainline\SRC_2014\Metin2Client\EterLib\Camera.cpp
;	COMDAT ?SetTerrainCollision@CCameraManager@@QAEX_N@Z
_TEXT	SEGMENT
_this$ = -8						; size = 4
_this$ = -4						; size = 4
_bEnable$ = 8						; size = 1
?SetTerrainCollision@CCameraManager@@QAEX_N@Z PROC	; CCameraManager::SetTerrainCollision, COMDAT
; _this$ = ecx

; 630  : {

  00000	55		 push	 ebp
  00001	8b ec		 mov	 ebp, esp
  00003	51		 push	 ecx
  00004	51		 push	 ecx
  00005	89 4d fc	 mov	 DWORD PTR _this$[ebp], ecx

; 631  : 	m_pCurrentCamera->SetTerrainCollision(bEnable);

  00008	8b 45 fc	 mov	 eax, DWORD PTR _this$[ebp]
  0000b	8b 40 0c	 mov	 eax, DWORD PTR [eax+12]
  0000e	89 45 f8	 mov	 DWORD PTR _this$[ebp], eax
; File D:\Metin2 Server Files\mainline\SRC_2014\Metin2Client\EterLib\Camera.h

; 235  : 		void SetTerrainCollision(bool bEnable) { m_bProcessTerrainCollision = bEnable; }

  00011	8b 45 f8	 mov	 eax, DWORD PTR _this$[ebp]
  00014	8a 4d 08	 mov	 cl, BYTE PTR _bEnable$[ebp]
  00017	88 88 34 03 00
	00		 mov	 BYTE PTR [eax+820], cl
; File D:\Metin2 Server Files\mainline\SRC_2014\Metin2Client\EterLib\Camera.cpp

; 632  : }

  0001d	c9		 leave
  0001e	c2 04 00	 ret	 4
?SetTerrainCollision@CCameraManager@@QAEX_N@Z ENDP	; CCameraManager::SetTerrainCollision
_TEXT	ENDS
; Function compile flags: /Odspy
; File D:\Metin2 Server Files\mainline\SRC_2014\Metin2Client\EterLib\Camera.cpp
; File D:\Metin2 Server Files\mainline\SRC_2014\Metin2Client\EterLib\Camera.h
; File D:\Metin2 Server Files\mainline\SRC_2014\Metin2Client\EterLib\Camera.cpp
;	COMDAT ?isTerrainCollisionEnable@CCameraManager@@QAE_NXZ
_TEXT	SEGMENT
_this$ = -8						; size = 4
$T1 = -1						; size = 1
?isTerrainCollisionEnable@CCameraManager@@QAE_NXZ PROC	; CCameraManager::isTerrainCollisionEnable, COMDAT
; _this$ = ecx

; 625  : {

  00000	55		 push	 ebp
  00001	8b ec		 mov	 ebp, esp
  00003	51		 push	 ecx
  00004	51		 push	 ecx
  00005	89 4d f8	 mov	 DWORD PTR _this$[ebp], ecx
; File D:\Metin2 Server Files\mainline\SRC_2014\Metin2Client\EterLib\Camera.h

; 234  : 		bool isTerrainCollisionEnable() { return m_bProcessTerrainCollision; }

  00008	8b 45 f8	 mov	 eax, DWORD PTR _this$[ebp]
  0000b	8b 40 0c	 mov	 eax, DWORD PTR [eax+12]
  0000e	8a 80 34 03 00
	00		 mov	 al, BYTE PTR [eax+820]
  00014	88 45 ff	 mov	 BYTE PTR $T1[ebp], al
; File D:\Metin2 Server Files\mainline\SRC_2014\Metin2Client\EterLib\Camera.cpp

; 626  : 	return m_pCurrentCamera->isTerrainCollisionEnable();

  00017	8a 45 ff	 mov	 al, BYTE PTR $T1[ebp]

; 627  : }

  0001a	c9		 leave
  0001b	c3		 ret	 0
?isTerrainCollisionEnable@CCameraManager@@QAE_NXZ ENDP	; CCameraManager::isTerrainCollisionEnable
_TEXT	ENDS
; Function compile flags: /Odspy
; File D:\Metin2 Server Files\mainline\SRC_2014\Metin2Client\EterLib\Camera.cpp
; File C:\Program Files (x86)\Microsoft Visual Studio\2019\Community\VC\Tools\MSVC\14.28.29333\include\xtree
; File C:\Program Files (x86)\Microsoft Visual Studio\2019\Community\VC\Tools\MSVC\14.28.29333\include\xstddef
; File C:\Program Files (x86)\Microsoft Visual Studio\2019\Community\VC\Tools\MSVC\14.28.29333\include\xtree
; File D:\Metin2 Server Files\mainline\SRC_2014\Metin2Client\EterLib\Camera.cpp
; File C:\Program Files (x86)\Microsoft Visual Studio\2019\Community\VC\Tools\MSVC\14.28.29333\include\xtree
; File D:\Metin2 Server Files\mainline\SRC_2014\Metin2Client\EterLib\Camera.cpp
; File C:\Program Files (x86)\Microsoft Visual Studio\2019\Community\VC\Tools\MSVC\14.28.29333\include\xtree
; File D:\Metin2 Server Files\mainline\SRC_2014\Metin2Client\EterLib\Camera.cpp
;	COMDAT ?GetCurrentCameraNum@CCameraManager@@QAEEXZ
_TEXT	SEGMENT
$T1 = -56						; size = 4
$T2 = -52						; size = 4
$T3 = -48						; size = 4
$T4 = -44						; size = 4
$T5 = -40						; size = 4
$T6 = -36						; size = 4
___param0$ = -32					; size = 4
__Scary$7 = -28						; size = 4
$T8 = -24						; size = 4
tv172 = -20						; size = 4
tv199 = -16						; size = 4
_itor$9 = -12						; size = 4
_this$ = -8						; size = 4
$T10 = -2						; size = 1
$T11 = -1						; size = 1
?GetCurrentCameraNum@CCameraManager@@QAEEXZ PROC	; CCameraManager::GetCurrentCameraNum, COMDAT
; _this$ = ecx

; 615  : {

  00000	55		 push	 ebp
  00001	8b ec		 mov	 ebp, esp
  00003	83 ec 38	 sub	 esp, 56			; 00000038H
  00006	89 4d f8	 mov	 DWORD PTR _this$[ebp], ecx

; 616  : 	if (!m_pCurrentCamera)

  00009	8b 45 f8	 mov	 eax, DWORD PTR _this$[ebp]
  0000c	83 78 0c 00	 cmp	 DWORD PTR [eax+12], 0
  00010	75 07		 jne	 SHORT $LN5@GetCurrent

; 617  : 		return NO_CURRENT_CAMERA;

  00012	32 c0		 xor	 al, al
  00014	e9 b6 00 00 00	 jmp	 $LN1@GetCurrent
$LN5@GetCurrent:

; 618  : 	for (TCameraMap::iterator itor = m_CameraMap.begin(); itor != m_CameraMap.end(); ++itor)

  00019	8d 45 f4	 lea	 eax, DWORD PTR _itor$9[ebp]
  0001c	50		 push	 eax
  0001d	8b 4d f8	 mov	 ecx, DWORD PTR _this$[ebp]
  00020	83 c1 04	 add	 ecx, 4
  00023	e8 00 00 00 00	 call	 ?begin@?$_Tree@V?$_Tmap_traits@EPAVCCamera@@U?$less@E@std@@V?$allocator@U?$pair@$$CBEPAVCCamera@@@std@@@3@$0A@@std@@@std@@QAE?AV?$_Tree_iterator@V?$_Tree_val@U?$_Tree_simple_types@U?$pair@$$CBEPAVCCamera@@@std@@@std@@@std@@@2@XZ ; std::_Tree<std::_Tmap_traits<unsigned char,CCamera *,std::less<unsigned char>,std::allocator<std::pair<unsigned char const ,CCamera *> >,0> >::begin
  00028	eb 08		 jmp	 SHORT $LN4@GetCurrent
$LN2@GetCurrent:
; File C:\Program Files (x86)\Microsoft Visual Studio\2019\Community\VC\Tools\MSVC\14.28.29333\include\xtree

; 198  :         _Mybase::operator++();

  0002a	8d 4d f4	 lea	 ecx, DWORD PTR _itor$9[ebp]
  0002d	e8 00 00 00 00	 call	 ??E?$_Tree_unchecked_const_iterator@V?$_Tree_val@U?$_Tree_simple_types@U?$pair@$$CBEPAVCCamera@@@std@@@std@@@std@@U_Iterator_base0@2@@std@@QAEAAV01@XZ ; std::_Tree_unchecked_const_iterator<std::_Tree_val<std::_Tree_simple_types<std::pair<unsigned char const ,CCamera *> > >,std::_Iterator_base0>::operator++
$LN4@GetCurrent:

; 2047 :         return _STD addressof(_Mypair._Myval2._Myval2);

  00032	8b 45 f8	 mov	 eax, DWORD PTR _this$[ebp]
  00035	83 c0 04	 add	 eax, 4
; File C:\Program Files (x86)\Microsoft Visual Studio\2019\Community\VC\Tools\MSVC\14.28.29333\include\xstddef

; 275  :     return __builtin_addressof(_Val);

  00038	89 45 e8	 mov	 DWORD PTR $T8[ebp], eax
; File C:\Program Files (x86)\Microsoft Visual Studio\2019\Community\VC\Tools\MSVC\14.28.29333\include\xtree

; 2047 :         return _STD addressof(_Mypair._Myval2._Myval2);

  0003b	8b 45 e8	 mov	 eax, DWORD PTR $T8[ebp]
  0003e	89 45 e4	 mov	 DWORD PTR __Scary$7[ebp], eax

; 1250 :         return iterator(_Scary->_Myhead, _Scary);

  00041	8b 45 e4	 mov	 eax, DWORD PTR __Scary$7[ebp]
  00044	8b 00		 mov	 eax, DWORD PTR [eax]
  00046	89 45 e0	 mov	 DWORD PTR ___param0$[ebp], eax

; 39   :     _Tree_unchecked_const_iterator(_Nodeptr _Pnode, const _Mytree* _Plist) noexcept : _Ptr(_Pnode) {

  00049	8b 45 e0	 mov	 eax, DWORD PTR ___param0$[ebp]
  0004c	89 45 dc	 mov	 DWORD PTR $T6[ebp], eax

; 1250 :         return iterator(_Scary->_Myhead, _Scary);

  0004f	8d 45 dc	 lea	 eax, DWORD PTR $T6[ebp]
  00052	89 45 d8	 mov	 DWORD PTR $T5[ebp], eax

; 232  :         return this->_Ptr == _Right._Ptr;

  00055	8b 45 d8	 mov	 eax, DWORD PTR $T5[ebp]
  00058	8b 4d f4	 mov	 ecx, DWORD PTR _itor$9[ebp]
  0005b	3b 08		 cmp	 ecx, DWORD PTR [eax]
  0005d	75 09		 jne	 SHORT $LN75@GetCurrent
  0005f	c7 45 f0 01 00
	00 00		 mov	 DWORD PTR tv199[ebp], 1
  00066	eb 04		 jmp	 SHORT $LN76@GetCurrent
$LN75@GetCurrent:
  00068	83 65 f0 00	 and	 DWORD PTR tv199[ebp], 0
$LN76@GetCurrent:
  0006c	8a 45 f0	 mov	 al, BYTE PTR tv199[ebp]
  0006f	88 45 ff	 mov	 BYTE PTR $T11[ebp], al

; 236  :         return !(*this == _Right);

  00072	0f b6 45 ff	 movzx	 eax, BYTE PTR $T11[ebp]
  00076	85 c0		 test	 eax, eax
  00078	75 09		 jne	 SHORT $LN70@GetCurrent
  0007a	c7 45 ec 01 00
	00 00		 mov	 DWORD PTR tv172[ebp], 1
  00081	eb 04		 jmp	 SHORT $LN71@GetCurrent
$LN70@GetCurrent:
  00083	83 65 ec 00	 and	 DWORD PTR tv172[ebp], 0
$LN71@GetCurrent:
  00087	8a 45 ec	 mov	 al, BYTE PTR tv172[ebp]
  0008a	88 45 fe	 mov	 BYTE PTR $T10[ebp], al
; File D:\Metin2 Server Files\mainline\SRC_2014\Metin2Client\EterLib\Camera.cpp

; 618  : 	for (TCameraMap::iterator itor = m_CameraMap.begin(); itor != m_CameraMap.end(); ++itor)

  0008d	0f b6 45 fe	 movzx	 eax, BYTE PTR $T10[ebp]
  00091	85 c0		 test	 eax, eax
  00093	74 38		 je	 SHORT $LN3@GetCurrent
; File C:\Program Files (x86)\Microsoft Visual Studio\2019\Community\VC\Tools\MSVC\14.28.29333\include\xtree

; 185  :         return this->_Ptr->_Myval;

  00095	8b 45 f4	 mov	 eax, DWORD PTR _itor$9[ebp]
  00098	83 c0 10	 add	 eax, 16			; 00000010H
  0009b	89 45 d4	 mov	 DWORD PTR $T4[ebp], eax

; 273  :         return const_cast<reference>(_Mybase::operator*());

  0009e	8b 45 d4	 mov	 eax, DWORD PTR $T4[ebp]
  000a1	89 45 d0	 mov	 DWORD PTR $T3[ebp], eax
; File D:\Metin2 Server Files\mainline\SRC_2014\Metin2Client\EterLib\Camera.cpp

; 619  : 		if(m_pCurrentCamera == (*itor).second)

  000a4	8b 45 f8	 mov	 eax, DWORD PTR _this$[ebp]
  000a7	8b 4d d0	 mov	 ecx, DWORD PTR $T3[ebp]
  000aa	8b 40 0c	 mov	 eax, DWORD PTR [eax+12]
  000ad	3b 41 04	 cmp	 eax, DWORD PTR [ecx+4]
  000b0	75 16		 jne	 SHORT $LN6@GetCurrent
; File C:\Program Files (x86)\Microsoft Visual Studio\2019\Community\VC\Tools\MSVC\14.28.29333\include\xtree

; 185  :         return this->_Ptr->_Myval;

  000b2	8b 45 f4	 mov	 eax, DWORD PTR _itor$9[ebp]
  000b5	83 c0 10	 add	 eax, 16			; 00000010H
  000b8	89 45 cc	 mov	 DWORD PTR $T2[ebp], eax

; 273  :         return const_cast<reference>(_Mybase::operator*());

  000bb	8b 45 cc	 mov	 eax, DWORD PTR $T2[ebp]
  000be	89 45 c8	 mov	 DWORD PTR $T1[ebp], eax
; File D:\Metin2 Server Files\mainline\SRC_2014\Metin2Client\EterLib\Camera.cpp

; 620  : 			return (*itor).first;

  000c1	8b 45 c8	 mov	 eax, DWORD PTR $T1[ebp]
  000c4	8a 00		 mov	 al, BYTE PTR [eax]
  000c6	eb 07		 jmp	 SHORT $LN1@GetCurrent
$LN6@GetCurrent:
  000c8	e9 5d ff ff ff	 jmp	 $LN2@GetCurrent
$LN3@GetCurrent:

; 621  : 	return NO_CURRENT_CAMERA;

  000cd	32 c0		 xor	 al, al
$LN1@GetCurrent:

; 622  : }

  000cf	c9		 leave
  000d0	c3		 ret	 0
?GetCurrentCameraNum@CCameraManager@@QAEEXZ ENDP	; CCameraManager::GetCurrentCameraNum
_TEXT	ENDS
; Function compile flags: /Odspy
; File D:\Metin2 Server Files\mainline\SRC_2014\Metin2Client\EterLib\Camera.cpp
; File C:\Program Files (x86)\Microsoft Visual Studio\2019\Community\VC\Tools\MSVC\14.28.29333\include\map
; File D:\Metin2 Server Files\mainline\SRC_2014\Metin2Client\EterLib\Camera.cpp
; File C:\Program Files (x86)\Microsoft Visual Studio\2019\Community\VC\Tools\MSVC\14.28.29333\include\map
; File D:\Metin2 Server Files\mainline\SRC_2014\Metin2Client\EterLib\Camera.cpp
;	COMDAT ?isCurrentCamera@CCameraManager@@QAE_NE@Z
_TEXT	SEGMENT
$T1 = -16						; size = 8
$T2 = -8						; size = 4
_this$ = -4						; size = 4
_ucCameraNum$ = 8					; size = 1
?isCurrentCamera@CCameraManager@@QAE_NE@Z PROC		; CCameraManager::isCurrentCamera, COMDAT
; _this$ = ecx

; 590  : {

  00000	55		 push	 ebp
  00001	8b ec		 mov	 ebp, esp
  00003	83 ec 10	 sub	 esp, 16			; 00000010H
  00006	89 4d fc	 mov	 DWORD PTR _this$[ebp], ecx
; File C:\Program Files (x86)\Microsoft Visual Studio\2019\Community\VC\Tools\MSVC\14.28.29333\include\map

; 325  :         return _Try_emplace(_Keyval).first->_Myval.second;

  00009	8d 45 08	 lea	 eax, DWORD PTR _ucCameraNum$[ebp]
  0000c	50		 push	 eax
  0000d	8d 45 f0	 lea	 eax, DWORD PTR $T1[ebp]
  00010	50		 push	 eax
; File D:\Metin2 Server Files\mainline\SRC_2014\Metin2Client\EterLib\Camera.cpp

; 591  : 	if (m_CameraMap[ucCameraNum] == m_pCurrentCamera)

  00011	8b 4d fc	 mov	 ecx, DWORD PTR _this$[ebp]
  00014	83 c1 04	 add	 ecx, 4
; File C:\Program Files (x86)\Microsoft Visual Studio\2019\Community\VC\Tools\MSVC\14.28.29333\include\map

; 325  :         return _Try_emplace(_Keyval).first->_Myval.second;

  00017	e8 00 00 00 00	 call	 ??$_Try_emplace@ABE$$V@?$map@EPAVCCamera@@U?$less@E@std@@V?$allocator@U?$pair@$$CBEPAVCCamera@@@std@@@3@@std@@AAE?AU?$pair@PAU?$_Tree_node@U?$pair@$$CBEPAVCCamera@@@std@@PAX@std@@_N@1@ABE@Z ; std::map<unsigned char,CCamera *,std::less<unsigned char>,std::allocator<std::pair<unsigned char const ,CCamera *> > >::_Try_emplace<unsigned char const &>
  0001c	8b 00		 mov	 eax, DWORD PTR [eax]
  0001e	83 c0 14	 add	 eax, 20			; 00000014H
  00021	89 45 f8	 mov	 DWORD PTR $T2[ebp], eax
; File D:\Metin2 Server Files\mainline\SRC_2014\Metin2Client\EterLib\Camera.cpp

; 591  : 	if (m_CameraMap[ucCameraNum] == m_pCurrentCamera)

  00024	8b 45 f8	 mov	 eax, DWORD PTR $T2[ebp]
  00027	8b 4d fc	 mov	 ecx, DWORD PTR _this$[ebp]
  0002a	8b 00		 mov	 eax, DWORD PTR [eax]
  0002c	3b 41 0c	 cmp	 eax, DWORD PTR [ecx+12]
  0002f	75 04		 jne	 SHORT $LN2@isCurrentC

; 592  : 		return true;

  00031	b0 01		 mov	 al, 1
  00033	eb 02		 jmp	 SHORT $LN1@isCurrentC
$LN2@isCurrentC:

; 593  : 	return false;

  00035	32 c0		 xor	 al, al
$LN1@isCurrentC:

; 594  : }

  00037	c9		 leave
  00038	c2 04 00	 ret	 4
?isCurrentCamera@CCameraManager@@QAE_NE@Z ENDP		; CCameraManager::isCurrentCamera
_TEXT	ENDS
; Function compile flags: /Odspy
; File D:\Metin2 Server Files\mainline\SRC_2014\Metin2Client\EterLib\Camera.cpp
;	COMDAT ?ResetToPreviousCamera@CCameraManager@@QAEXXZ
_TEXT	SEGMENT
_this$ = -4						; size = 4
?ResetToPreviousCamera@CCameraManager@@QAEXXZ PROC	; CCameraManager::ResetToPreviousCamera, COMDAT
; _this$ = ecx

; 582  : {

  00000	55		 push	 ebp
  00001	8b ec		 mov	 ebp, esp
  00003	51		 push	 ecx
  00004	89 4d fc	 mov	 DWORD PTR _this$[ebp], ecx

; 583  : 	if (!m_pPreviousCamera)
; 584  : 		assert(false);
; 585  : 	m_pCurrentCamera = m_pPreviousCamera;

  00007	8b 45 fc	 mov	 eax, DWORD PTR _this$[ebp]
  0000a	8b 4d fc	 mov	 ecx, DWORD PTR _this$[ebp]
  0000d	8b 49 10	 mov	 ecx, DWORD PTR [ecx+16]
  00010	89 48 0c	 mov	 DWORD PTR [eax+12], ecx

; 586  : 	m_pPreviousCamera = NULL;

  00013	8b 45 fc	 mov	 eax, DWORD PTR _this$[ebp]
  00016	83 60 10 00	 and	 DWORD PTR [eax+16], 0

; 587  : }

  0001a	c9		 leave
  0001b	c3		 ret	 0
?ResetToPreviousCamera@CCameraManager@@QAEXXZ ENDP	; CCameraManager::ResetToPreviousCamera
_TEXT	ENDS
; Function compile flags: /Odspy
; File D:\Metin2 Server Files\mainline\SRC_2014\Metin2Client\EterLib\Camera.cpp
; File C:\Program Files (x86)\Microsoft Visual Studio\2019\Community\VC\Tools\MSVC\14.28.29333\include\map
; File D:\Metin2 Server Files\mainline\SRC_2014\Metin2Client\EterLib\Camera.cpp
; File C:\Program Files (x86)\Microsoft Visual Studio\2019\Community\VC\Tools\MSVC\14.28.29333\include\map
; File D:\Metin2 Server Files\mainline\SRC_2014\Metin2Client\EterLib\Camera.cpp
; File C:\Program Files (x86)\Microsoft Visual Studio\2019\Community\VC\Tools\MSVC\14.28.29333\include\map
; File D:\Metin2 Server Files\mainline\SRC_2014\Metin2Client\EterLib\Camera.cpp
; File C:\Program Files (x86)\Microsoft Visual Studio\2019\Community\VC\Tools\MSVC\14.28.29333\include\map
; File D:\Metin2 Server Files\mainline\SRC_2014\Metin2Client\EterLib\Camera.cpp
;	COMDAT ?SetCurrentCamera@CCameraManager@@QAEXE@Z
_TEXT	SEGMENT
$T1 = -24						; size = 8
$T2 = -16						; size = 8
$T3 = -8						; size = 4
_this$ = -4						; size = 4
_ucCameraNum$ = 8					; size = 1
?SetCurrentCamera@CCameraManager@@QAEXE@Z PROC		; CCameraManager::SetCurrentCamera, COMDAT
; _this$ = ecx

; 574  : {

  00000	55		 push	 ebp
  00001	8b ec		 mov	 ebp, esp
  00003	83 ec 18	 sub	 esp, 24			; 00000018H
  00006	89 4d fc	 mov	 DWORD PTR _this$[ebp], ecx
; File C:\Program Files (x86)\Microsoft Visual Studio\2019\Community\VC\Tools\MSVC\14.28.29333\include\map

; 325  :         return _Try_emplace(_Keyval).first->_Myval.second;

  00009	8d 45 08	 lea	 eax, DWORD PTR _ucCameraNum$[ebp]
  0000c	50		 push	 eax
  0000d	8d 45 f0	 lea	 eax, DWORD PTR $T2[ebp]
  00010	50		 push	 eax
; File D:\Metin2 Server Files\mainline\SRC_2014\Metin2Client\EterLib\Camera.cpp

; 575  : 	if (m_pCurrentCamera != m_CameraMap[ucCameraNum])

  00011	8b 4d fc	 mov	 ecx, DWORD PTR _this$[ebp]
  00014	83 c1 04	 add	 ecx, 4
; File C:\Program Files (x86)\Microsoft Visual Studio\2019\Community\VC\Tools\MSVC\14.28.29333\include\map

; 325  :         return _Try_emplace(_Keyval).first->_Myval.second;

  00017	e8 00 00 00 00	 call	 ??$_Try_emplace@ABE$$V@?$map@EPAVCCamera@@U?$less@E@std@@V?$allocator@U?$pair@$$CBEPAVCCamera@@@std@@@3@@std@@AAE?AU?$pair@PAU?$_Tree_node@U?$pair@$$CBEPAVCCamera@@@std@@PAX@std@@_N@1@ABE@Z ; std::map<unsigned char,CCamera *,std::less<unsigned char>,std::allocator<std::pair<unsigned char const ,CCamera *> > >::_Try_emplace<unsigned char const &>
  0001c	8b 00		 mov	 eax, DWORD PTR [eax]
  0001e	83 c0 14	 add	 eax, 20			; 00000014H
  00021	89 45 f8	 mov	 DWORD PTR $T3[ebp], eax
; File D:\Metin2 Server Files\mainline\SRC_2014\Metin2Client\EterLib\Camera.cpp

; 575  : 	if (m_pCurrentCamera != m_CameraMap[ucCameraNum])

  00024	8b 45 fc	 mov	 eax, DWORD PTR _this$[ebp]
  00027	8b 4d f8	 mov	 ecx, DWORD PTR $T3[ebp]
  0002a	8b 40 0c	 mov	 eax, DWORD PTR [eax+12]
  0002d	3b 01		 cmp	 eax, DWORD PTR [ecx]
  0002f	74 0c		 je	 SHORT $LN6@SetCurrent

; 576  : 		m_pPreviousCamera = m_pCurrentCamera;

  00031	8b 45 fc	 mov	 eax, DWORD PTR _this$[ebp]
  00034	8b 4d fc	 mov	 ecx, DWORD PTR _this$[ebp]
  00037	8b 49 0c	 mov	 ecx, DWORD PTR [ecx+12]
  0003a	89 48 10	 mov	 DWORD PTR [eax+16], ecx
$LN6@SetCurrent:
; File C:\Program Files (x86)\Microsoft Visual Studio\2019\Community\VC\Tools\MSVC\14.28.29333\include\map

; 325  :         return _Try_emplace(_Keyval).first->_Myval.second;

  0003d	8d 45 08	 lea	 eax, DWORD PTR _ucCameraNum$[ebp]
  00040	50		 push	 eax
  00041	8d 45 e8	 lea	 eax, DWORD PTR $T1[ebp]
  00044	50		 push	 eax
; File D:\Metin2 Server Files\mainline\SRC_2014\Metin2Client\EterLib\Camera.cpp

; 578  : 	m_pCurrentCamera = m_CameraMap[ucCameraNum];

  00045	8b 4d fc	 mov	 ecx, DWORD PTR _this$[ebp]
  00048	83 c1 04	 add	 ecx, 4
; File C:\Program Files (x86)\Microsoft Visual Studio\2019\Community\VC\Tools\MSVC\14.28.29333\include\map

; 325  :         return _Try_emplace(_Keyval).first->_Myval.second;

  0004b	e8 00 00 00 00	 call	 ??$_Try_emplace@ABE$$V@?$map@EPAVCCamera@@U?$less@E@std@@V?$allocator@U?$pair@$$CBEPAVCCamera@@@std@@@3@@std@@AAE?AU?$pair@PAU?$_Tree_node@U?$pair@$$CBEPAVCCamera@@@std@@PAX@std@@_N@1@ABE@Z ; std::map<unsigned char,CCamera *,std::less<unsigned char>,std::allocator<std::pair<unsigned char const ,CCamera *> > >::_Try_emplace<unsigned char const &>
; File D:\Metin2 Server Files\mainline\SRC_2014\Metin2Client\EterLib\Camera.cpp

; 578  : 	m_pCurrentCamera = m_CameraMap[ucCameraNum];

  00050	8b 00		 mov	 eax, DWORD PTR [eax]
  00052	8b 4d fc	 mov	 ecx, DWORD PTR _this$[ebp]
  00055	8b 40 14	 mov	 eax, DWORD PTR [eax+20]
  00058	89 41 0c	 mov	 DWORD PTR [ecx+12], eax

; 579  : }

  0005b	c9		 leave
  0005c	c2 04 00	 ret	 4
?SetCurrentCamera@CCameraManager@@QAEXE@Z ENDP		; CCameraManager::SetCurrentCamera
_TEXT	ENDS
; Function compile flags: /Odspy
; File D:\Metin2 Server Files\mainline\SRC_2014\Metin2Client\EterLib\Camera.cpp
;	COMDAT ?GetCurrentCamera@CCameraManager@@QAEPAVCCamera@@XZ
_TEXT	SEGMENT
_this$ = -4						; size = 4
?GetCurrentCamera@CCameraManager@@QAEPAVCCamera@@XZ PROC ; CCameraManager::GetCurrentCamera, COMDAT
; _this$ = ecx

; 567  : {

  00000	55		 push	 ebp
  00001	8b ec		 mov	 ebp, esp
  00003	51		 push	 ecx
  00004	89 4d fc	 mov	 DWORD PTR _this$[ebp], ecx

; 568  : 	if (!m_pCurrentCamera)
; 569  : 		assert(false);
; 570  : 	return m_pCurrentCamera;

  00007	8b 45 fc	 mov	 eax, DWORD PTR _this$[ebp]
  0000a	8b 40 0c	 mov	 eax, DWORD PTR [eax+12]

; 571  : }

  0000d	c9		 leave
  0000e	c3		 ret	 0
?GetCurrentCamera@CCameraManager@@QAEPAVCCamera@@XZ ENDP ; CCameraManager::GetCurrentCamera
_TEXT	ENDS
; Function compile flags: /Odspy
; File D:\Metin2 Server Files\mainline\SRC_2014\Metin2Client\EterLib\Camera.cpp
; File C:\Program Files (x86)\Microsoft Visual Studio\2019\Community\VC\Tools\MSVC\14.28.29333\include\xtree
; File C:\Program Files (x86)\Microsoft Visual Studio\2019\Community\VC\Tools\MSVC\14.28.29333\include\xstddef
; File C:\Program Files (x86)\Microsoft Visual Studio\2019\Community\VC\Tools\MSVC\14.28.29333\include\xtree
; File D:\Metin2 Server Files\mainline\SRC_2014\Metin2Client\EterLib\Camera.cpp
;	COMDAT ?RemoveCamera@CCameraManager@@QAE_NE@Z
_TEXT	SEGMENT
$T1 = -40						; size = 4
$T2 = -36						; size = 4
$T3 = -32						; size = 4
___param0$ = -28					; size = 4
__Scary$4 = -24						; size = 4
$T5 = -20						; size = 4
_itor$ = -16						; size = 4
tv193 = -12						; size = 4
_this$ = -8						; size = 4
$T6 = -1						; size = 1
_ucCameraNum$ = 8					; size = 1
?RemoveCamera@CCameraManager@@QAE_NE@Z PROC		; CCameraManager::RemoveCamera, COMDAT
; _this$ = ecx

; 606  : {

  00000	55		 push	 ebp
  00001	8b ec		 mov	 ebp, esp
  00003	83 ec 28	 sub	 esp, 40			; 00000028H
  00006	89 4d f8	 mov	 DWORD PTR _this$[ebp], ecx

; 607  : 	TCameraMap::iterator itor = m_CameraMap.find(ucCameraNum);

  00009	8d 45 08	 lea	 eax, DWORD PTR _ucCameraNum$[ebp]
  0000c	50		 push	 eax
  0000d	8d 45 f0	 lea	 eax, DWORD PTR _itor$[ebp]
  00010	50		 push	 eax
  00011	8b 4d f8	 mov	 ecx, DWORD PTR _this$[ebp]
  00014	83 c1 04	 add	 ecx, 4
  00017	e8 00 00 00 00	 call	 ?find@?$_Tree@V?$_Tmap_traits@EPAVCCamera@@U?$less@E@std@@V?$allocator@U?$pair@$$CBEPAVCCamera@@@std@@@3@$0A@@std@@@std@@QAE?AV?$_Tree_iterator@V?$_Tree_val@U?$_Tree_simple_types@U?$pair@$$CBEPAVCCamera@@@std@@@std@@@std@@@2@ABE@Z ; std::_Tree<std::_Tmap_traits<unsigned char,CCamera *,std::less<unsigned char>,std::allocator<std::pair<unsigned char const ,CCamera *> >,0> >::find
; File C:\Program Files (x86)\Microsoft Visual Studio\2019\Community\VC\Tools\MSVC\14.28.29333\include\xtree

; 2047 :         return _STD addressof(_Mypair._Myval2._Myval2);

  0001c	8b 45 f8	 mov	 eax, DWORD PTR _this$[ebp]
  0001f	83 c0 04	 add	 eax, 4
; File C:\Program Files (x86)\Microsoft Visual Studio\2019\Community\VC\Tools\MSVC\14.28.29333\include\xstddef

; 275  :     return __builtin_addressof(_Val);

  00022	89 45 ec	 mov	 DWORD PTR $T5[ebp], eax
; File C:\Program Files (x86)\Microsoft Visual Studio\2019\Community\VC\Tools\MSVC\14.28.29333\include\xtree

; 2047 :         return _STD addressof(_Mypair._Myval2._Myval2);

  00025	8b 45 ec	 mov	 eax, DWORD PTR $T5[ebp]
  00028	89 45 e8	 mov	 DWORD PTR __Scary$4[ebp], eax

; 1250 :         return iterator(_Scary->_Myhead, _Scary);

  0002b	8b 45 e8	 mov	 eax, DWORD PTR __Scary$4[ebp]
  0002e	8b 00		 mov	 eax, DWORD PTR [eax]
  00030	89 45 e4	 mov	 DWORD PTR ___param0$[ebp], eax

; 39   :     _Tree_unchecked_const_iterator(_Nodeptr _Pnode, const _Mytree* _Plist) noexcept : _Ptr(_Pnode) {

  00033	8b 45 e4	 mov	 eax, DWORD PTR ___param0$[ebp]
  00036	89 45 e0	 mov	 DWORD PTR $T3[ebp], eax

; 1250 :         return iterator(_Scary->_Myhead, _Scary);

  00039	8d 45 e0	 lea	 eax, DWORD PTR $T3[ebp]
  0003c	89 45 dc	 mov	 DWORD PTR $T2[ebp], eax

; 232  :         return this->_Ptr == _Right._Ptr;

  0003f	8b 45 dc	 mov	 eax, DWORD PTR $T2[ebp]
  00042	8b 00		 mov	 eax, DWORD PTR [eax]
  00044	3b 45 f0	 cmp	 eax, DWORD PTR _itor$[ebp]
  00047	75 09		 jne	 SHORT $LN72@RemoveCame
  00049	c7 45 f4 01 00
	00 00		 mov	 DWORD PTR tv193[ebp], 1
  00050	eb 04		 jmp	 SHORT $LN73@RemoveCame
$LN72@RemoveCame:
  00052	83 65 f4 00	 and	 DWORD PTR tv193[ebp], 0
$LN73@RemoveCame:
  00056	8a 45 f4	 mov	 al, BYTE PTR tv193[ebp]
  00059	88 45 ff	 mov	 BYTE PTR $T6[ebp], al
; File D:\Metin2 Server Files\mainline\SRC_2014\Metin2Client\EterLib\Camera.cpp

; 608  : 	if(m_CameraMap.end() == itor)

  0005c	0f b6 45 ff	 movzx	 eax, BYTE PTR $T6[ebp]
  00060	85 c0		 test	 eax, eax
  00062	74 04		 je	 SHORT $LN2@RemoveCame

; 609  : 		return false;

  00064	32 c0		 xor	 al, al
  00066	eb 14		 jmp	 SHORT $LN1@RemoveCame
$LN2@RemoveCame:

; 610  : 	m_CameraMap.erase(itor);

  00068	ff 75 f0	 push	 DWORD PTR _itor$[ebp]
  0006b	8d 45 d8	 lea	 eax, DWORD PTR $T1[ebp]
  0006e	50		 push	 eax
  0006f	8b 4d f8	 mov	 ecx, DWORD PTR _this$[ebp]
  00072	83 c1 04	 add	 ecx, 4
  00075	e8 00 00 00 00	 call	 ??$erase@V?$_Tree_iterator@V?$_Tree_val@U?$_Tree_simple_types@U?$pair@$$CBEPAVCCamera@@@std@@@std@@@std@@@std@@$0A@@?$_Tree@V?$_Tmap_traits@EPAVCCamera@@U?$less@E@std@@V?$allocator@U?$pair@$$CBEPAVCCamera@@@std@@@3@$0A@@std@@@std@@QAE?AV?$_Tree_iterator@V?$_Tree_val@U?$_Tree_simple_types@U?$pair@$$CBEPAVCCamera@@@std@@@std@@@std@@@1@V21@@Z ; std::_Tree<std::_Tmap_traits<unsigned char,CCamera *,std::less<unsigned char>,std::allocator<std::pair<unsigned char const ,CCamera *> >,0> >::erase<std::_Tree_iterator<std::_Tree_val<std::_Tree_simple_types<std::pair<unsigned char const ,CCamera *> > > >,0>

; 611  : 	return true;

  0007a	b0 01		 mov	 al, 1
$LN1@RemoveCame:

; 612  : }

  0007c	c9		 leave
  0007d	c2 04 00	 ret	 4
?RemoveCamera@CCameraManager@@QAE_NE@Z ENDP		; CCameraManager::RemoveCamera
_TEXT	ENDS
; Function compile flags: /Odspy
; File D:\Metin2 Server Files\mainline\SRC_2014\Metin2Client\EterLib\Camera.cpp
; File C:\Program Files (x86)\Microsoft Visual Studio\2019\Community\VC\Tools\MSVC\14.28.29333\include\xtree
; File C:\Program Files (x86)\Microsoft Visual Studio\2019\Community\VC\Tools\MSVC\14.28.29333\include\xstddef
; File C:\Program Files (x86)\Microsoft Visual Studio\2019\Community\VC\Tools\MSVC\14.28.29333\include\xtree
; File C:\Program Files (x86)\Microsoft Visual Studio\2019\Community\VC\Tools\MSVC\14.28.29333\include\xstddef
; File C:\Program Files (x86)\Microsoft Visual Studio\2019\Community\VC\Tools\MSVC\14.28.29333\include\xtree
; File D:\Metin2 Server Files\mainline\SRC_2014\Metin2Client\EterLib\Camera.cpp
; File C:\Program Files (x86)\Microsoft Visual Studio\2019\Community\VC\Tools\MSVC\14.28.29333\include\type_traits
; File C:\Program Files (x86)\Microsoft Visual Studio\2019\Community\VC\Tools\MSVC\14.28.29333\include\utility
; File C:\Program Files (x86)\Microsoft Visual Studio\2019\Community\VC\Tools\MSVC\14.28.29333\include\type_traits
; File C:\Program Files (x86)\Microsoft Visual Studio\2019\Community\VC\Tools\MSVC\14.28.29333\include\utility
; File D:\Metin2 Server Files\mainline\SRC_2014\Metin2Client\EterLib\Camera.cpp
;	COMDAT ?AddCamera@CCameraManager@@QAE_NE@Z
_TEXT	SEGMENT
$T2 = -108						; size = 8
$T3 = -100						; size = 8
$T4 = -92						; size = 4
$T5 = -88						; size = 4
$T6 = -84						; size = 4
$T7 = -80						; size = 4
$T8 = -76						; size = 4
$T9 = -72						; size = 4
$T10 = -68						; size = 4
$T11 = -64						; size = 4
___param0$ = -60					; size = 4
__Scary$12 = -56					; size = 4
$T13 = -52						; size = 4
___param0$ = -48					; size = 4
$T14 = -44						; size = 4
tv146 = -40						; size = 4
$T15 = -36						; size = 4
tv185 = -32						; size = 4
tv222 = -28						; size = 4
_this$ = -24						; size = 4
_this$ = -20						; size = 4
$T16 = -14						; size = 1
$T17 = -13						; size = 1
__$EHRec$ = -12						; size = 12
_ucCameraNum$ = 8					; size = 1
?AddCamera@CCameraManager@@QAE_NE@Z PROC		; CCameraManager::AddCamera, COMDAT
; _this$ = ecx

; 598  : {

  00000	55		 push	 ebp
  00001	8b ec		 mov	 ebp, esp
  00003	6a ff		 push	 -1
  00005	68 00 00 00 00	 push	 __ehhandler$?AddCamera@CCameraManager@@QAE_NE@Z
  0000a	64 a1 00 00 00
	00		 mov	 eax, DWORD PTR fs:0
  00010	50		 push	 eax
  00011	83 ec 60	 sub	 esp, 96			; 00000060H
  00014	a1 00 00 00 00	 mov	 eax, DWORD PTR ___security_cookie
  00019	33 c5		 xor	 eax, ebp
  0001b	50		 push	 eax
  0001c	8d 45 f4	 lea	 eax, DWORD PTR __$EHRec$[ebp]
  0001f	64 a3 00 00 00
	00		 mov	 DWORD PTR fs:0, eax
  00025	89 4d ec	 mov	 DWORD PTR _this$[ebp], ecx

; 599  : 	if(m_CameraMap.end() != m_CameraMap.find(ucCameraNum))

  00028	8b 45 ec	 mov	 eax, DWORD PTR _this$[ebp]
  0002b	83 c0 04	 add	 eax, 4
  0002e	89 45 e8	 mov	 DWORD PTR _this$[ebp], eax
; File C:\Program Files (x86)\Microsoft Visual Studio\2019\Community\VC\Tools\MSVC\14.28.29333\include\xtree

; 2047 :         return _STD addressof(_Mypair._Myval2._Myval2);

  00031	8b 45 e8	 mov	 eax, DWORD PTR _this$[ebp]
; File C:\Program Files (x86)\Microsoft Visual Studio\2019\Community\VC\Tools\MSVC\14.28.29333\include\xstddef

; 275  :     return __builtin_addressof(_Val);

  00034	89 45 d4	 mov	 DWORD PTR $T14[ebp], eax
; File C:\Program Files (x86)\Microsoft Visual Studio\2019\Community\VC\Tools\MSVC\14.28.29333\include\xtree

; 2047 :         return _STD addressof(_Mypair._Myval2._Myval2);

  00037	8b 45 d4	 mov	 eax, DWORD PTR $T14[ebp]
  0003a	89 45 a4	 mov	 DWORD PTR $T4[ebp], eax

; 1468 :         return iterator(_Find(_Keyval), _Get_scary());

  0003d	8d 45 08	 lea	 eax, DWORD PTR _ucCameraNum$[ebp]
  00040	50		 push	 eax
  00041	8b 4d e8	 mov	 ecx, DWORD PTR _this$[ebp]
  00044	e8 00 00 00 00	 call	 ??$_Find@E@?$_Tree@V?$_Tmap_traits@EPAVCCamera@@U?$less@E@std@@V?$allocator@U?$pair@$$CBEPAVCCamera@@@std@@@3@$0A@@std@@@std@@ABEPAU?$_Tree_node@U?$pair@$$CBEPAVCCamera@@@std@@PAX@1@ABE@Z ; std::_Tree<std::_Tmap_traits<unsigned char,CCamera *,std::less<unsigned char>,std::allocator<std::pair<unsigned char const ,CCamera *> >,0> >::_Find<unsigned char>
  00049	89 45 d0	 mov	 DWORD PTR ___param0$[ebp], eax

; 39   :     _Tree_unchecked_const_iterator(_Nodeptr _Pnode, const _Mytree* _Plist) noexcept : _Ptr(_Pnode) {

  0004c	8b 45 d0	 mov	 eax, DWORD PTR ___param0$[ebp]
  0004f	89 45 b8	 mov	 DWORD PTR $T9[ebp], eax

; 2047 :         return _STD addressof(_Mypair._Myval2._Myval2);

  00052	8b 45 ec	 mov	 eax, DWORD PTR _this$[ebp]
  00055	83 c0 04	 add	 eax, 4
; File C:\Program Files (x86)\Microsoft Visual Studio\2019\Community\VC\Tools\MSVC\14.28.29333\include\xstddef

; 275  :     return __builtin_addressof(_Val);

  00058	89 45 cc	 mov	 DWORD PTR $T13[ebp], eax
; File C:\Program Files (x86)\Microsoft Visual Studio\2019\Community\VC\Tools\MSVC\14.28.29333\include\xtree

; 2047 :         return _STD addressof(_Mypair._Myval2._Myval2);

  0005b	8b 45 cc	 mov	 eax, DWORD PTR $T13[ebp]
  0005e	89 45 c8	 mov	 DWORD PTR __Scary$12[ebp], eax

; 1250 :         return iterator(_Scary->_Myhead, _Scary);

  00061	8b 45 c8	 mov	 eax, DWORD PTR __Scary$12[ebp]
  00064	8b 00		 mov	 eax, DWORD PTR [eax]
  00066	89 45 c4	 mov	 DWORD PTR ___param0$[ebp], eax

; 39   :     _Tree_unchecked_const_iterator(_Nodeptr _Pnode, const _Mytree* _Plist) noexcept : _Ptr(_Pnode) {

  00069	8b 45 c4	 mov	 eax, DWORD PTR ___param0$[ebp]
  0006c	89 45 c0	 mov	 DWORD PTR $T11[ebp], eax

; 1250 :         return iterator(_Scary->_Myhead, _Scary);

  0006f	8d 45 c0	 lea	 eax, DWORD PTR $T11[ebp]
  00072	89 45 bc	 mov	 DWORD PTR $T10[ebp], eax

; 232  :         return this->_Ptr == _Right._Ptr;

  00075	8b 45 bc	 mov	 eax, DWORD PTR $T10[ebp]
  00078	8b 00		 mov	 eax, DWORD PTR [eax]
  0007a	3b 45 b8	 cmp	 eax, DWORD PTR $T9[ebp]
  0007d	75 09		 jne	 SHORT $LN80@AddCamera
  0007f	c7 45 e4 01 00
	00 00		 mov	 DWORD PTR tv222[ebp], 1
  00086	eb 04		 jmp	 SHORT $LN81@AddCamera
$LN80@AddCamera:
  00088	83 65 e4 00	 and	 DWORD PTR tv222[ebp], 0
$LN81@AddCamera:
  0008c	8a 45 e4	 mov	 al, BYTE PTR tv222[ebp]
  0008f	88 45 f3	 mov	 BYTE PTR $T17[ebp], al

; 236  :         return !(*this == _Right);

  00092	0f b6 45 f3	 movzx	 eax, BYTE PTR $T17[ebp]
  00096	85 c0		 test	 eax, eax
  00098	75 09		 jne	 SHORT $LN75@AddCamera
  0009a	c7 45 e0 01 00
	00 00		 mov	 DWORD PTR tv185[ebp], 1
  000a1	eb 04		 jmp	 SHORT $LN76@AddCamera
$LN75@AddCamera:
  000a3	83 65 e0 00	 and	 DWORD PTR tv185[ebp], 0
$LN76@AddCamera:
  000a7	8a 45 e0	 mov	 al, BYTE PTR tv185[ebp]
  000aa	88 45 f2	 mov	 BYTE PTR $T16[ebp], al
; File D:\Metin2 Server Files\mainline\SRC_2014\Metin2Client\EterLib\Camera.cpp

; 599  : 	if(m_CameraMap.end() != m_CameraMap.find(ucCameraNum))

  000ad	0f b6 45 f2	 movzx	 eax, BYTE PTR $T16[ebp]
  000b1	85 c0		 test	 eax, eax
  000b3	74 04		 je	 SHORT $LN2@AddCamera

; 600  : 		return false;

  000b5	32 c0		 xor	 al, al
  000b7	eb 6a		 jmp	 SHORT $LN1@AddCamera
$LN2@AddCamera:

; 601  : 	m_CameraMap.insert(TCameraMap::value_type(ucCameraNum, new CCamera));

  000b9	68 38 03 00 00	 push	 824			; 00000338H
  000be	e8 00 00 00 00	 call	 ??2@YAPAXI@Z		; operator new
  000c3	59		 pop	 ecx
  000c4	89 45 dc	 mov	 DWORD PTR $T15[ebp], eax
  000c7	83 65 fc 00	 and	 DWORD PTR __$EHRec$[ebp+8], 0
  000cb	83 7d dc 00	 cmp	 DWORD PTR $T15[ebp], 0
  000cf	74 0d		 je	 SHORT $LN4@AddCamera
  000d1	8b 4d dc	 mov	 ecx, DWORD PTR $T15[ebp]
  000d4	e8 00 00 00 00	 call	 ??0CCamera@@QAE@XZ	; CCamera::CCamera
  000d9	89 45 d8	 mov	 DWORD PTR tv146[ebp], eax
  000dc	eb 04		 jmp	 SHORT $LN5@AddCamera
$LN4@AddCamera:
  000de	83 65 d8 00	 and	 DWORD PTR tv146[ebp], 0
$LN5@AddCamera:
  000e2	8b 45 d8	 mov	 eax, DWORD PTR tv146[ebp]
  000e5	89 45 b4	 mov	 DWORD PTR $T8[ebp], eax
  000e8	83 4d fc ff	 or	 DWORD PTR __$EHRec$[ebp+8], -1
  000ec	8b 45 b4	 mov	 eax, DWORD PTR $T8[ebp]
  000ef	89 45 ac	 mov	 DWORD PTR $T6[ebp], eax
; File C:\Program Files (x86)\Microsoft Visual Studio\2019\Community\VC\Tools\MSVC\14.28.29333\include\type_traits

; 1443 :     return static_cast<_Ty&&>(_Arg);

  000f2	8d 45 08	 lea	 eax, DWORD PTR _ucCameraNum$[ebp]
  000f5	89 45 b0	 mov	 DWORD PTR $T7[ebp], eax
; File C:\Program Files (x86)\Microsoft Visual Studio\2019\Community\VC\Tools\MSVC\14.28.29333\include\utility

; 190  :         : first(_STD forward<_Other1>(_Val1)), second(_STD forward<_Other2>(_Val2)) {}

  000f8	8b 45 b0	 mov	 eax, DWORD PTR $T7[ebp]
  000fb	8a 00		 mov	 al, BYTE PTR [eax]
  000fd	88 45 9c	 mov	 BYTE PTR $T3[ebp], al
; File C:\Program Files (x86)\Microsoft Visual Studio\2019\Community\VC\Tools\MSVC\14.28.29333\include\type_traits

; 1443 :     return static_cast<_Ty&&>(_Arg);

  00100	8d 45 ac	 lea	 eax, DWORD PTR $T6[ebp]
  00103	89 45 a8	 mov	 DWORD PTR $T5[ebp], eax
; File C:\Program Files (x86)\Microsoft Visual Studio\2019\Community\VC\Tools\MSVC\14.28.29333\include\utility

; 190  :         : first(_STD forward<_Other1>(_Val1)), second(_STD forward<_Other2>(_Val2)) {}

  00106	8b 45 a8	 mov	 eax, DWORD PTR $T5[ebp]
  00109	8b 00		 mov	 eax, DWORD PTR [eax]
  0010b	89 45 a0	 mov	 DWORD PTR $T3[ebp+4], eax
; File D:\Metin2 Server Files\mainline\SRC_2014\Metin2Client\EterLib\Camera.cpp

; 601  : 	m_CameraMap.insert(TCameraMap::value_type(ucCameraNum, new CCamera));

  0010e	8d 45 9c	 lea	 eax, DWORD PTR $T3[ebp]
  00111	50		 push	 eax
  00112	8d 45 94	 lea	 eax, DWORD PTR $T2[ebp]
  00115	50		 push	 eax
  00116	8b 4d ec	 mov	 ecx, DWORD PTR _this$[ebp]
  00119	83 c1 04	 add	 ecx, 4
  0011c	e8 00 00 00 00	 call	 ??$insert@$0A@$0A@@?$_Tree@V?$_Tmap_traits@EPAVCCamera@@U?$less@E@std@@V?$allocator@U?$pair@$$CBEPAVCCamera@@@std@@@3@$0A@@std@@@std@@QAE?AU?$pair@V?$_Tree_iterator@V?$_Tree_val@U?$_Tree_simple_types@U?$pair@$$CBEPAVCCamera@@@std@@@std@@@std@@@std@@_N@1@$$QAU?$pair@$$CBEPAVCCamera@@@1@@Z ; std::_Tree<std::_Tmap_traits<unsigned char,CCamera *,std::less<unsigned char>,std::allocator<std::pair<unsigned char const ,CCamera *> >,0> >::insert<0,0>

; 602  : 	return true;

  00121	b0 01		 mov	 al, 1
$LN1@AddCamera:

; 603  : }

  00123	8b 4d f4	 mov	 ecx, DWORD PTR __$EHRec$[ebp]
  00126	64 89 0d 00 00
	00 00		 mov	 DWORD PTR fs:0, ecx
  0012d	59		 pop	 ecx
  0012e	c9		 leave
  0012f	c2 04 00	 ret	 4
_TEXT	ENDS
;	COMDAT text$x
text$x	SEGMENT
__unwindfunclet$?AddCamera@CCameraManager@@QAE_NE@Z$0:
  00000	68 38 03 00 00	 push	 824			; 00000338H
  00005	ff 75 dc	 push	 DWORD PTR $T15[ebp]
  00008	e8 00 00 00 00	 call	 ??3@YAXPAXI@Z		; operator delete
  0000d	59		 pop	 ecx
  0000e	59		 pop	 ecx
  0000f	c3		 ret	 0
  00010	cc		 int	 3
  00011	cc		 int	 3
  00012	cc		 int	 3
  00013	cc		 int	 3
  00014	cc		 int	 3
__ehhandler$?AddCamera@CCameraManager@@QAE_NE@Z:
  00015	90		 npad	 1
  00016	90		 npad	 1
  00017	8b 54 24 08	 mov	 edx, DWORD PTR [esp+8]
  0001b	8d 42 0c	 lea	 eax, DWORD PTR [edx+12]
  0001e	8b 4a 9c	 mov	 ecx, DWORD PTR [edx-100]
  00021	33 c8		 xor	 ecx, eax
  00023	e8 00 00 00 00	 call	 @__security_check_cookie@4
  00028	b8 00 00 00 00	 mov	 eax, OFFSET __ehfuncinfo$?AddCamera@CCameraManager@@QAE_NE@Z
  0002d	e9 00 00 00 00	 jmp	 ___CxxFrameHandler3
text$x	ENDS
?AddCamera@CCameraManager@@QAE_NE@Z ENDP		; CCameraManager::AddCamera
; Function compile flags: /Odspy
; File D:\Metin2 Server Files\mainline\SRC_2014\Metin2Client\EterLib\Camera.cpp
; File C:\Program Files (x86)\Microsoft Visual Studio\2019\Community\VC\Tools\MSVC\14.28.29333\include\xtree
; File C:\Program Files (x86)\Microsoft Visual Studio\2019\Community\VC\Tools\MSVC\14.28.29333\include\xstddef
; File C:\Program Files (x86)\Microsoft Visual Studio\2019\Community\VC\Tools\MSVC\14.28.29333\include\xtree
; File D:\Metin2 Server Files\mainline\SRC_2014\Metin2Client\EterLib\Camera.cpp
; File C:\Program Files (x86)\Microsoft Visual Studio\2019\Community\VC\Tools\MSVC\14.28.29333\include\xtree
; File C:\Program Files (x86)\Microsoft Visual Studio\2019\Community\VC\Tools\MSVC\14.28.29333\include\xstddef
; File C:\Program Files (x86)\Microsoft Visual Studio\2019\Community\VC\Tools\MSVC\14.28.29333\include\xtree
; File D:\Metin2 Server Files\mainline\SRC_2014\Metin2Client\EterLib\Camera.cpp
; File C:\Program Files (x86)\Microsoft Visual Studio\2019\Community\VC\Tools\MSVC\14.28.29333\include\xtree
; File D:\Metin2 Server Files\mainline\SRC_2014\Metin2Client\EterLib\Camera.cpp
; File D:\Metin2 Server Files\mainline\SRC_2014\Metin2Client\eterBase\Singleton.h
; File D:\Metin2 Server Files\mainline\SRC_2014\Metin2Client\EterLib\Camera.cpp
;	COMDAT ??1CCameraManager@@UAE@XZ
_TEXT	SEGMENT
tv146 = -68						; size = 4
$T1 = -64						; size = 4
$T2 = -60						; size = 4
$T3 = -56						; size = 4
$T4 = -52						; size = 4
___param0$ = -48					; size = 4
__Scary$5 = -44						; size = 4
$T6 = -40						; size = 4
___param0$ = -36					; size = 4
__Scary$7 = -32						; size = 4
$T8 = -28						; size = 4
tv194 = -24						; size = 4
tv221 = -20						; size = 4
$T9 = -16						; size = 4
_itor$10 = -12						; size = 4
_this$ = -8						; size = 4
$T11 = -2						; size = 1
$T12 = -1						; size = 1
??1CCameraManager@@UAE@XZ PROC				; CCameraManager::~CCameraManager, COMDAT
; _this$ = ecx

; 558  : {

  00000	55		 push	 ebp
  00001	8b ec		 mov	 ebp, esp
  00003	83 ec 44	 sub	 esp, 68			; 00000044H
  00006	89 4d f8	 mov	 DWORD PTR _this$[ebp], ecx
  00009	8b 45 f8	 mov	 eax, DWORD PTR _this$[ebp]
  0000c	c7 00 00 00 00
	00		 mov	 DWORD PTR [eax], OFFSET ??_7CCameraManager@@6B@
; File C:\Program Files (x86)\Microsoft Visual Studio\2019\Community\VC\Tools\MSVC\14.28.29333\include\xtree

; 2047 :         return _STD addressof(_Mypair._Myval2._Myval2);

  00012	8b 45 f8	 mov	 eax, DWORD PTR _this$[ebp]
  00015	83 c0 04	 add	 eax, 4
; File C:\Program Files (x86)\Microsoft Visual Studio\2019\Community\VC\Tools\MSVC\14.28.29333\include\xstddef

; 275  :     return __builtin_addressof(_Val);

  00018	89 45 e4	 mov	 DWORD PTR $T8[ebp], eax
; File C:\Program Files (x86)\Microsoft Visual Studio\2019\Community\VC\Tools\MSVC\14.28.29333\include\xtree

; 2047 :         return _STD addressof(_Mypair._Myval2._Myval2);

  0001b	8b 45 e4	 mov	 eax, DWORD PTR $T8[ebp]
  0001e	89 45 e0	 mov	 DWORD PTR __Scary$7[ebp], eax

; 1240 :         return iterator(_Scary->_Myhead->_Left, _Scary);

  00021	8b 45 e0	 mov	 eax, DWORD PTR __Scary$7[ebp]
  00024	8b 00		 mov	 eax, DWORD PTR [eax]
  00026	8b 00		 mov	 eax, DWORD PTR [eax]
  00028	89 45 dc	 mov	 DWORD PTR ___param0$[ebp], eax

; 39   :     _Tree_unchecked_const_iterator(_Nodeptr _Pnode, const _Mytree* _Plist) noexcept : _Ptr(_Pnode) {

  0002b	8b 45 dc	 mov	 eax, DWORD PTR ___param0$[ebp]
  0002e	89 45 f4	 mov	 DWORD PTR _itor$10[ebp], eax
; File D:\Metin2 Server Files\mainline\SRC_2014\Metin2Client\EterLib\Camera.cpp

; 559  : 	for (TCameraMap::iterator itor = m_CameraMap.begin(); itor != m_CameraMap.end(); ++itor)

  00031	eb 08		 jmp	 SHORT $LN4@CCameraMan
$LN2@CCameraMan:
; File C:\Program Files (x86)\Microsoft Visual Studio\2019\Community\VC\Tools\MSVC\14.28.29333\include\xtree

; 198  :         _Mybase::operator++();

  00033	8d 4d f4	 lea	 ecx, DWORD PTR _itor$10[ebp]
  00036	e8 00 00 00 00	 call	 ??E?$_Tree_unchecked_const_iterator@V?$_Tree_val@U?$_Tree_simple_types@U?$pair@$$CBEPAVCCamera@@@std@@@std@@@std@@U_Iterator_base0@2@@std@@QAEAAV01@XZ ; std::_Tree_unchecked_const_iterator<std::_Tree_val<std::_Tree_simple_types<std::pair<unsigned char const ,CCamera *> > >,std::_Iterator_base0>::operator++
$LN4@CCameraMan:

; 2047 :         return _STD addressof(_Mypair._Myval2._Myval2);

  0003b	8b 45 f8	 mov	 eax, DWORD PTR _this$[ebp]
  0003e	83 c0 04	 add	 eax, 4
; File C:\Program Files (x86)\Microsoft Visual Studio\2019\Community\VC\Tools\MSVC\14.28.29333\include\xstddef

; 275  :     return __builtin_addressof(_Val);

  00041	89 45 d8	 mov	 DWORD PTR $T6[ebp], eax
; File C:\Program Files (x86)\Microsoft Visual Studio\2019\Community\VC\Tools\MSVC\14.28.29333\include\xtree

; 2047 :         return _STD addressof(_Mypair._Myval2._Myval2);

  00044	8b 45 d8	 mov	 eax, DWORD PTR $T6[ebp]
  00047	89 45 d4	 mov	 DWORD PTR __Scary$5[ebp], eax

; 1250 :         return iterator(_Scary->_Myhead, _Scary);

  0004a	8b 45 d4	 mov	 eax, DWORD PTR __Scary$5[ebp]
  0004d	8b 00		 mov	 eax, DWORD PTR [eax]
  0004f	89 45 d0	 mov	 DWORD PTR ___param0$[ebp], eax

; 39   :     _Tree_unchecked_const_iterator(_Nodeptr _Pnode, const _Mytree* _Plist) noexcept : _Ptr(_Pnode) {

  00052	8b 45 d0	 mov	 eax, DWORD PTR ___param0$[ebp]
  00055	89 45 cc	 mov	 DWORD PTR $T4[ebp], eax

; 1250 :         return iterator(_Scary->_Myhead, _Scary);

  00058	8d 45 cc	 lea	 eax, DWORD PTR $T4[ebp]
  0005b	89 45 c8	 mov	 DWORD PTR $T3[ebp], eax

; 232  :         return this->_Ptr == _Right._Ptr;

  0005e	8b 45 c8	 mov	 eax, DWORD PTR $T3[ebp]
  00061	8b 4d f4	 mov	 ecx, DWORD PTR _itor$10[ebp]
  00064	3b 08		 cmp	 ecx, DWORD PTR [eax]
  00066	75 09		 jne	 SHORT $LN75@CCameraMan
  00068	c7 45 ec 01 00
	00 00		 mov	 DWORD PTR tv221[ebp], 1
  0006f	eb 04		 jmp	 SHORT $LN76@CCameraMan
$LN75@CCameraMan:
  00071	83 65 ec 00	 and	 DWORD PTR tv221[ebp], 0
$LN76@CCameraMan:
  00075	8a 45 ec	 mov	 al, BYTE PTR tv221[ebp]
  00078	88 45 ff	 mov	 BYTE PTR $T12[ebp], al

; 236  :         return !(*this == _Right);

  0007b	0f b6 45 ff	 movzx	 eax, BYTE PTR $T12[ebp]
  0007f	85 c0		 test	 eax, eax
  00081	75 09		 jne	 SHORT $LN70@CCameraMan
  00083	c7 45 e8 01 00
	00 00		 mov	 DWORD PTR tv194[ebp], 1
  0008a	eb 04		 jmp	 SHORT $LN71@CCameraMan
$LN70@CCameraMan:
  0008c	83 65 e8 00	 and	 DWORD PTR tv194[ebp], 0
$LN71@CCameraMan:
  00090	8a 45 e8	 mov	 al, BYTE PTR tv194[ebp]
  00093	88 45 fe	 mov	 BYTE PTR $T11[ebp], al
; File D:\Metin2 Server Files\mainline\SRC_2014\Metin2Client\EterLib\Camera.cpp

; 559  : 	for (TCameraMap::iterator itor = m_CameraMap.begin(); itor != m_CameraMap.end(); ++itor)

  00096	0f b6 45 fe	 movzx	 eax, BYTE PTR $T11[ebp]
  0009a	85 c0		 test	 eax, eax
  0009c	74 38		 je	 SHORT $LN3@CCameraMan
; File C:\Program Files (x86)\Microsoft Visual Studio\2019\Community\VC\Tools\MSVC\14.28.29333\include\xtree

; 185  :         return this->_Ptr->_Myval;

  0009e	8b 45 f4	 mov	 eax, DWORD PTR _itor$10[ebp]
  000a1	83 c0 10	 add	 eax, 16			; 00000010H
  000a4	89 45 c4	 mov	 DWORD PTR $T2[ebp], eax

; 273  :         return const_cast<reference>(_Mybase::operator*());

  000a7	8b 45 c4	 mov	 eax, DWORD PTR $T2[ebp]
  000aa	89 45 c0	 mov	 DWORD PTR $T1[ebp], eax
; File D:\Metin2 Server Files\mainline\SRC_2014\Metin2Client\EterLib\Camera.cpp

; 561  : 		delete (*itor).second;

  000ad	8b 45 c0	 mov	 eax, DWORD PTR $T1[ebp]
  000b0	8b 40 04	 mov	 eax, DWORD PTR [eax+4]
  000b3	89 45 f0	 mov	 DWORD PTR $T9[ebp], eax
  000b6	83 7d f0 00	 cmp	 DWORD PTR $T9[ebp], 0
  000ba	74 11		 je	 SHORT $LN6@CCameraMan
  000bc	6a 01		 push	 1
  000be	8b 45 f0	 mov	 eax, DWORD PTR $T9[ebp]
  000c1	8b 00		 mov	 eax, DWORD PTR [eax]
  000c3	8b 4d f0	 mov	 ecx, DWORD PTR $T9[ebp]
  000c6	ff 10		 call	 DWORD PTR [eax]
  000c8	89 45 bc	 mov	 DWORD PTR tv146[ebp], eax
  000cb	eb 04		 jmp	 SHORT $LN7@CCameraMan
$LN6@CCameraMan:
  000cd	83 65 bc 00	 and	 DWORD PTR tv146[ebp], 0
$LN7@CCameraMan:

; 562  : 	}

  000d1	e9 5d ff ff ff	 jmp	 $LN2@CCameraMan
$LN3@CCameraMan:

; 563  : 	m_CameraMap.clear();

  000d6	8b 4d f8	 mov	 ecx, DWORD PTR _this$[ebp]
  000d9	83 c1 04	 add	 ecx, 4
  000dc	e8 00 00 00 00	 call	 ?clear@?$_Tree@V?$_Tmap_traits@EPAVCCamera@@U?$less@E@std@@V?$allocator@U?$pair@$$CBEPAVCCamera@@@std@@@3@$0A@@std@@@std@@QAEXXZ ; std::_Tree<std::_Tmap_traits<unsigned char,CCamera *,std::less<unsigned char>,std::allocator<std::pair<unsigned char const ,CCamera *> >,0> >::clear

; 564  : }

  000e1	8b 4d f8	 mov	 ecx, DWORD PTR _this$[ebp]
  000e4	83 c1 04	 add	 ecx, 4
  000e7	e8 00 00 00 00	 call	 ??1?$_Tree@V?$_Tmap_traits@EPAVCCamera@@U?$less@E@std@@V?$allocator@U?$pair@$$CBEPAVCCamera@@@std@@@3@$0A@@std@@@std@@QAE@XZ ; std::_Tree<std::_Tmap_traits<unsigned char,CCamera *,std::less<unsigned char>,std::allocator<std::pair<unsigned char const ,CCamera *> >,0> >::~_Tree<std::_Tmap_traits<unsigned char,CCamera *,std::less<unsigned char>,std::allocator<std::pair<unsigned char const ,CCamera *> >,0> >
; File D:\Metin2 Server Files\mainline\SRC_2014\Metin2Client\eterBase\Singleton.h

; 19   : 	{ 

  000ec	8b 45 f8	 mov	 eax, DWORD PTR _this$[ebp]
  000ef	c7 00 00 00 00
	00		 mov	 DWORD PTR [eax], OFFSET ??_7?$CSingleton@VCCameraManager@@@@6B@

; 20   : 		assert(ms_singleton);
; 21   : 		ms_singleton = 0; 

  000f5	83 25 00 00 00
	00 00		 and	 DWORD PTR ?ms_singleton@?$CSingleton@VCCameraManager@@@@0PAVCCameraManager@@A, 0 ; CSingleton<CCameraManager>::ms_singleton
; File D:\Metin2 Server Files\mainline\SRC_2014\Metin2Client\EterLib\Camera.cpp

; 564  : }

  000fc	c9		 leave
  000fd	c3		 ret	 0
??1CCameraManager@@UAE@XZ ENDP				; CCameraManager::~CCameraManager
_TEXT	ENDS
; Function compile flags: /Odspy
; File D:\Metin2 Server Files\mainline\SRC_2014\Metin2Client\EterLib\Camera.cpp
; File D:\Metin2 Server Files\mainline\SRC_2014\Metin2Client\eterBase\Singleton.h
; File D:\Metin2 Server Files\mainline\SRC_2014\Metin2Client\EterLib\Camera.cpp
; File C:\Program Files (x86)\Microsoft Visual Studio\2019\Community\VC\Tools\MSVC\14.28.29333\include\map
; File D:\Metin2 Server Files\mainline\SRC_2014\Metin2Client\EterLib\Camera.cpp
;	COMDAT ??0CCameraManager@@QAE@XZ
_TEXT	SEGMENT
_this$ = -28						; size = 4
_offset$2 = -24						; size = 4
_this$ = -20						; size = 4
$T3 = -13						; size = 1
__$EHRec$ = -12						; size = 12
??0CCameraManager@@QAE@XZ PROC				; CCameraManager::CCameraManager, COMDAT
; _this$ = ecx

; 550  : {

  00000	55		 push	 ebp
  00001	8b ec		 mov	 ebp, esp
  00003	6a ff		 push	 -1
  00005	68 00 00 00 00	 push	 __ehhandler$??0CCameraManager@@QAE@XZ
  0000a	64 a1 00 00 00
	00		 mov	 eax, DWORD PTR fs:0
  00010	50		 push	 eax
  00011	83 ec 10	 sub	 esp, 16			; 00000010H
  00014	a1 00 00 00 00	 mov	 eax, DWORD PTR ___security_cookie
  00019	33 c5		 xor	 eax, ebp
  0001b	50		 push	 eax
  0001c	8d 45 f4	 lea	 eax, DWORD PTR __$EHRec$[ebp]
  0001f	64 a3 00 00 00
	00		 mov	 DWORD PTR fs:0, eax
  00025	89 4d ec	 mov	 DWORD PTR _this$[ebp], ecx
; File D:\Metin2 Server Files\mainline\SRC_2014\Metin2Client\eterBase\Singleton.h

; 12   : 	{ 

  00028	8b 45 ec	 mov	 eax, DWORD PTR _this$[ebp]
  0002b	c7 00 00 00 00
	00		 mov	 DWORD PTR [eax], OFFSET ??_7?$CSingleton@VCCameraManager@@@@6B@

; 13   : 		assert(!ms_singleton);
; 14   : 		int offset = (int) (T*) 1 - (int) (CSingleton <T>*) (T*) 1; 

  00031	33 c0		 xor	 eax, eax
  00033	89 45 e8	 mov	 DWORD PTR _offset$2[ebp], eax

; 15   : 		ms_singleton = (T*) ((int) this + offset);

  00036	8b 45 ec	 mov	 eax, DWORD PTR _this$[ebp]
  00039	03 45 e8	 add	 eax, DWORD PTR _offset$2[ebp]
  0003c	a3 00 00 00 00	 mov	 DWORD PTR ?ms_singleton@?$CSingleton@VCCameraManager@@@@0PAVCCameraManager@@A, eax ; CSingleton<CCameraManager>::ms_singleton
; File D:\Metin2 Server Files\mainline\SRC_2014\Metin2Client\EterLib\Camera.cpp

; 550  : {

  00041	83 65 fc 00	 and	 DWORD PTR __$EHRec$[ebp+8], 0
  00045	8b 45 ec	 mov	 eax, DWORD PTR _this$[ebp]
  00048	c7 00 00 00 00
	00		 mov	 DWORD PTR [eax], OFFSET ??_7CCameraManager@@6B@
  0004e	8b 45 ec	 mov	 eax, DWORD PTR _this$[ebp]
  00051	83 c0 04	 add	 eax, 4
  00054	89 45 e4	 mov	 DWORD PTR _this$[ebp], eax
; File C:\Program Files (x86)\Microsoft Visual Studio\2019\Community\VC\Tools\MSVC\14.28.29333\include\map

; 107  :     map() : _Mybase(key_compare()) {}

  00057	8d 45 f3	 lea	 eax, DWORD PTR $T3[ebp]
  0005a	50		 push	 eax
  0005b	8b 4d e4	 mov	 ecx, DWORD PTR _this$[ebp]
  0005e	e8 00 00 00 00	 call	 ??0?$_Tree@V?$_Tmap_traits@EPAVCCamera@@U?$less@E@std@@V?$allocator@U?$pair@$$CBEPAVCCamera@@@std@@@3@$0A@@std@@@std@@QAE@ABU?$less@E@1@@Z ; std::_Tree<std::_Tmap_traits<unsigned char,CCamera *,std::less<unsigned char>,std::allocator<std::pair<unsigned char const ,CCamera *> >,0> >::_Tree<std::_Tmap_traits<unsigned char,CCamera *,std::less<unsigned char>,std::allocator<std::pair<unsigned char const ,CCamera *> >,0> >
; File D:\Metin2 Server Files\mainline\SRC_2014\Metin2Client\EterLib\Camera.cpp

; 550  : {

  00063	c6 45 fc 01	 mov	 BYTE PTR __$EHRec$[ebp+8], 1

; 548  : m_pCurrentCamera(NULL),

  00067	8b 45 ec	 mov	 eax, DWORD PTR _this$[ebp]
  0006a	83 60 0c 00	 and	 DWORD PTR [eax+12], 0

; 549  : m_pPreviousCamera(NULL)

  0006e	8b 45 ec	 mov	 eax, DWORD PTR _this$[ebp]
  00071	83 60 10 00	 and	 DWORD PTR [eax+16], 0

; 551  : 	AddCamera(DEFAULT_PERSPECTIVE_CAMERA);

  00075	6a 01		 push	 1
  00077	8b 4d ec	 mov	 ecx, DWORD PTR _this$[ebp]
  0007a	e8 00 00 00 00	 call	 ?AddCamera@CCameraManager@@QAE_NE@Z ; CCameraManager::AddCamera

; 552  : 	AddCamera(DEFAULT_ORTHO_CAMERA);

  0007f	6a 02		 push	 2
  00081	8b 4d ec	 mov	 ecx, DWORD PTR _this$[ebp]
  00084	e8 00 00 00 00	 call	 ?AddCamera@CCameraManager@@QAE_NE@Z ; CCameraManager::AddCamera

; 553  : 
; 554  : 	SetCurrentCamera(DEFAULT_PERSPECTIVE_CAMERA);

  00089	6a 01		 push	 1
  0008b	8b 4d ec	 mov	 ecx, DWORD PTR _this$[ebp]
  0008e	e8 00 00 00 00	 call	 ?SetCurrentCamera@CCameraManager@@QAEXE@Z ; CCameraManager::SetCurrentCamera

; 555  : }

  00093	83 4d fc ff	 or	 DWORD PTR __$EHRec$[ebp+8], -1
  00097	8b 45 ec	 mov	 eax, DWORD PTR _this$[ebp]
  0009a	8b 4d f4	 mov	 ecx, DWORD PTR __$EHRec$[ebp]
  0009d	64 89 0d 00 00
	00 00		 mov	 DWORD PTR fs:0, ecx
  000a4	59		 pop	 ecx
  000a5	c9		 leave
  000a6	c3		 ret	 0
_TEXT	ENDS
;	COMDAT text$x
text$x	SEGMENT
__unwindfunclet$??0CCameraManager@@QAE@XZ$0:
  00000	8b 4d ec	 mov	 ecx, DWORD PTR _this$[ebp]
  00003	e9 00 00 00 00	 jmp	 ??1?$CSingleton@VCCameraManager@@@@UAE@XZ ; CSingleton<CCameraManager>::~CSingleton<CCameraManager>
__unwindfunclet$??0CCameraManager@@QAE@XZ$1:
  00008	8b 4d ec	 mov	 ecx, DWORD PTR _this$[ebp]
  0000b	83 c1 04	 add	 ecx, 4
  0000e	e9 00 00 00 00	 jmp	 ??1?$map@EPAVCCamera@@U?$less@E@std@@V?$allocator@U?$pair@$$CBEPAVCCamera@@@std@@@3@@std@@QAE@XZ
  00013	cc		 int	 3
  00014	cc		 int	 3
  00015	cc		 int	 3
  00016	cc		 int	 3
  00017	cc		 int	 3
__ehhandler$??0CCameraManager@@QAE@XZ:
  00018	90		 npad	 1
  00019	90		 npad	 1
  0001a	8b 54 24 08	 mov	 edx, DWORD PTR [esp+8]
  0001e	8d 42 0c	 lea	 eax, DWORD PTR [edx+12]
  00021	8b 4a ec	 mov	 ecx, DWORD PTR [edx-20]
  00024	33 c8		 xor	 ecx, eax
  00026	e8 00 00 00 00	 call	 @__security_check_cookie@4
  0002b	b8 00 00 00 00	 mov	 eax, OFFSET __ehfuncinfo$??0CCameraManager@@QAE@XZ
  00030	e9 00 00 00 00	 jmp	 ___CxxFrameHandler3
text$x	ENDS
??0CCameraManager@@QAE@XZ ENDP				; CCameraManager::CCameraManager
; Function compile flags: /Odspy
; File D:\Metin2 Server Files\mainline\SRC_2014\Metin2Client\eterBase\Singleton.h
;	COMDAT ??_G?$CSingleton@VCCameraManager@@@@UAEPAXI@Z
_TEXT	SEGMENT
_this$ = -4						; size = 4
___flags$ = 8						; size = 4
??_G?$CSingleton@VCCameraManager@@@@UAEPAXI@Z PROC	; CSingleton<CCameraManager>::`scalar deleting destructor', COMDAT
; _this$ = ecx
  00000	55		 push	 ebp
  00001	8b ec		 mov	 ebp, esp
  00003	51		 push	 ecx
  00004	89 4d fc	 mov	 DWORD PTR _this$[ebp], ecx

; 19   : 	{ 

  00007	8b 45 fc	 mov	 eax, DWORD PTR _this$[ebp]
  0000a	c7 00 00 00 00
	00		 mov	 DWORD PTR [eax], OFFSET ??_7?$CSingleton@VCCameraManager@@@@6B@

; 20   : 		assert(ms_singleton);
; 21   : 		ms_singleton = 0; 

  00010	83 25 00 00 00
	00 00		 and	 DWORD PTR ?ms_singleton@?$CSingleton@VCCameraManager@@@@0PAVCCameraManager@@A, 0 ; CSingleton<CCameraManager>::ms_singleton
  00017	8b 45 08	 mov	 eax, DWORD PTR ___flags$[ebp]
  0001a	83 e0 01	 and	 eax, 1
  0001d	74 0c		 je	 SHORT $LN2@scalar
  0001f	6a 04		 push	 4
  00021	ff 75 fc	 push	 DWORD PTR _this$[ebp]
  00024	e8 00 00 00 00	 call	 ??3@YAXPAXI@Z		; operator delete
  00029	59		 pop	 ecx
  0002a	59		 pop	 ecx
$LN2@scalar:
  0002b	8b 45 fc	 mov	 eax, DWORD PTR _this$[ebp]
  0002e	c9		 leave
  0002f	c2 04 00	 ret	 4
??_G?$CSingleton@VCCameraManager@@@@UAEPAXI@Z ENDP	; CSingleton<CCameraManager>::`scalar deleting destructor'
_TEXT	ENDS
; Function compile flags: /Odspy
; File D:\Metin2 Server Files\mainline\SRC_2014\Metin2Client\eterBase\Singleton.h
;	COMDAT ??1?$CSingleton@VCCameraManager@@@@UAE@XZ
_TEXT	SEGMENT
_this$ = -4						; size = 4
??1?$CSingleton@VCCameraManager@@@@UAE@XZ PROC		; CSingleton<CCameraManager>::~CSingleton<CCameraManager>, COMDAT
; _this$ = ecx

; 19   : 	{ 

  00000	55		 push	 ebp
  00001	8b ec		 mov	 ebp, esp
  00003	51		 push	 ecx
  00004	89 4d fc	 mov	 DWORD PTR _this$[ebp], ecx
  00007	8b 45 fc	 mov	 eax, DWORD PTR _this$[ebp]
  0000a	c7 00 00 00 00
	00		 mov	 DWORD PTR [eax], OFFSET ??_7?$CSingleton@VCCameraManager@@@@6B@

; 20   : 		assert(ms_singleton);
; 21   : 		ms_singleton = 0; 

  00010	83 25 00 00 00
	00 00		 and	 DWORD PTR ?ms_singleton@?$CSingleton@VCCameraManager@@@@0PAVCCameraManager@@A, 0 ; CSingleton<CCameraManager>::ms_singleton

; 22   : 	}

  00017	c9		 leave
  00018	c3		 ret	 0
??1?$CSingleton@VCCameraManager@@@@UAE@XZ ENDP		; CSingleton<CCameraManager>::~CSingleton<CCameraManager>
_TEXT	ENDS
; Function compile flags: /Odspy
;	COMDAT ??_GCCamera@@UAEPAXI@Z
_TEXT	SEGMENT
_this$ = -4						; size = 4
___flags$ = 8						; size = 4
??_GCCamera@@UAEPAXI@Z PROC				; CCamera::`scalar deleting destructor', COMDAT
; _this$ = ecx
  00000	55		 push	 ebp
  00001	8b ec		 mov	 ebp, esp
  00003	51		 push	 ecx
  00004	89 4d fc	 mov	 DWORD PTR _this$[ebp], ecx
  00007	8b 4d fc	 mov	 ecx, DWORD PTR _this$[ebp]
  0000a	e8 00 00 00 00	 call	 ??1CCamera@@UAE@XZ	; CCamera::~CCamera
  0000f	8b 45 08	 mov	 eax, DWORD PTR ___flags$[ebp]
  00012	83 e0 01	 and	 eax, 1
  00015	74 0f		 je	 SHORT $LN2@scalar
  00017	68 38 03 00 00	 push	 824			; 00000338H
  0001c	ff 75 fc	 push	 DWORD PTR _this$[ebp]
  0001f	e8 00 00 00 00	 call	 ??3@YAXPAXI@Z		; operator delete
  00024	59		 pop	 ecx
  00025	59		 pop	 ecx
$LN2@scalar:
  00026	8b 45 fc	 mov	 eax, DWORD PTR _this$[ebp]
  00029	c9		 leave
  0002a	c2 04 00	 ret	 4
??_GCCamera@@UAEPAXI@Z ENDP				; CCamera::`scalar deleting destructor'
_TEXT	ENDS
; Function compile flags: /Odspy
; File D:\Metin2 Server Files\mainline\SRC_2014\Metin2Client\EterLib\Camera.cpp
;	COMDAT ?SetTargetHeight@CCamera@@QAEXM@Z
_TEXT	SEGMENT
_this$ = -4						; size = 4
_fTarget$ = 8						; size = 4
?SetTargetHeight@CCamera@@QAEXM@Z PROC			; CCamera::SetTargetHeight, COMDAT
; _this$ = ecx

; 24   : {

  00000	55		 push	 ebp
  00001	8b ec		 mov	 ebp, esp
  00003	51		 push	 ecx
  00004	89 4d fc	 mov	 DWORD PTR _this$[ebp], ecx

; 25   : 	m_fTarget_=fTarget;	

  00007	8b 45 fc	 mov	 eax, DWORD PTR _this$[ebp]
  0000a	f3 0f 10 45 08	 movss	 xmm0, DWORD PTR _fTarget$[ebp]
  0000f	f3 0f 11 80 f8
	02 00 00	 movss	 DWORD PTR [eax+760], xmm0

; 26   : }

  00017	c9		 leave
  00018	c2 04 00	 ret	 4
?SetTargetHeight@CCamera@@QAEXM@Z ENDP			; CCamera::SetTargetHeight
_TEXT	ENDS
; Function compile flags: /Odspy
; File D:\Metin2 Server Files\mainline\SRC_2014\Metin2Client\EterLib\Camera.cpp
;	COMDAT ?GetTargetHeight@CCamera@@QAEMXZ
_TEXT	SEGMENT
_this$ = -4						; size = 4
?GetTargetHeight@CCamera@@QAEMXZ PROC			; CCamera::GetTargetHeight, COMDAT
; _this$ = ecx

; 19   : {

  00000	55		 push	 ebp
  00001	8b ec		 mov	 ebp, esp
  00003	51		 push	 ecx
  00004	89 4d fc	 mov	 DWORD PTR _this$[ebp], ecx

; 20   : 	return m_fTarget_;

  00007	8b 45 fc	 mov	 eax, DWORD PTR _this$[ebp]
  0000a	d9 80 f8 02 00
	00		 fld	 DWORD PTR [eax+760]

; 21   : }

  00010	c9		 leave
  00011	c3		 ret	 0
?GetTargetHeight@CCamera@@QAEMXZ ENDP			; CCamera::GetTargetHeight
_TEXT	ENDS
; Function compile flags: /Odspy
; File D:\Metin2 Server Files\mainline\SRC_2014\Metin2Client\EterLib\Camera.cpp
; File D:\Metin2 Server Files\mainline\SRC_2014\M2Data\include\d3dx8math.inl
; File D:\Metin2 Server Files\mainline\SRC_2014\Metin2Client\EterLib\Camera.cpp
; File C:\Program Files (x86)\Windows Kits\10\Include\10.0.18362.0\ucrt\corecrt_math.h
; File D:\Metin2 Server Files\mainline\SRC_2014\Metin2Client\EterLib\Camera.cpp
; File D:\Metin2 Server Files\mainline\SRC_2014\M2Data\include\d3dx8math.inl
; File D:\Metin2 Server Files\mainline\SRC_2014\Metin2Client\EterLib\Camera.cpp
;	COMDAT ?CalculateRoll@CCamera@@IAEXXZ
_TEXT	SEGMENT
$T1 = -36						; size = 8
$T2 = -28						; size = 8
_v2ViewXY$ = -20					; size = 8
_fCross$ = -12						; size = 4
_this$ = -8						; size = 4
_fDot$ = -4						; size = 4
?CalculateRoll@CCamera@@IAEXXZ PROC			; CCamera::CalculateRoll, COMDAT
; _this$ = ecx

; 521  : {

  00000	55		 push	 ebp
  00001	8b ec		 mov	 ebp, esp
  00003	83 ec 24	 sub	 esp, 36			; 00000024H
  00006	89 4d f8	 mov	 DWORD PTR _this$[ebp], ecx

; 522  : 	D3DXVECTOR2 v2ViewXY;
; 523  : 	v2ViewXY.x = m_v3View.x;

  00009	8b 45 f8	 mov	 eax, DWORD PTR _this$[ebp]
  0000c	f3 0f 10 40 54	 movss	 xmm0, DWORD PTR [eax+84]
  00011	f3 0f 11 45 ec	 movss	 DWORD PTR _v2ViewXY$[ebp], xmm0

; 524  : 	v2ViewXY.y = m_v3View.y;

  00016	8b 45 f8	 mov	 eax, DWORD PTR _this$[ebp]
  00019	f3 0f 10 40 58	 movss	 xmm0, DWORD PTR [eax+88]
  0001e	f3 0f 11 45 f0	 movss	 DWORD PTR _v2ViewXY$[ebp+4], xmm0

; 525  :  	D3DXVec2Normalize(&v2ViewXY, &v2ViewXY);

  00023	8d 45 ec	 lea	 eax, DWORD PTR _v2ViewXY$[ebp]
  00026	50		 push	 eax
  00027	8d 45 ec	 lea	 eax, DWORD PTR _v2ViewXY$[ebp]
  0002a	50		 push	 eax
  0002b	e8 00 00 00 00	 call	 _D3DXVec2Normalize@8
; File D:\Metin2 Server Files\mainline\SRC_2014\M2Data\include\d3dx8math.inl

; 41   :     x = fx;

  00030	0f 57 c0	 xorps	 xmm0, xmm0
  00033	f3 0f 11 45 e4	 movss	 DWORD PTR $T2[ebp], xmm0

; 42   :     y = fy;

  00038	f3 0f 10 05 00
	00 00 00	 movss	 xmm0, DWORD PTR __real@3f800000
  00040	f3 0f 11 45 e8	 movss	 DWORD PTR $T2[ebp+4], xmm0

; 1132 :     return pV1->x * pV2->x + pV1->y * pV2->y;

  00045	f3 0f 10 45 f0	 movss	 xmm0, DWORD PTR _v2ViewXY$[ebp+4]
  0004a	f3 0f 59 45 e8	 mulss	 xmm0, DWORD PTR $T2[ebp+4]
  0004f	f3 0f 10 4d ec	 movss	 xmm1, DWORD PTR _v2ViewXY$[ebp]
  00054	f3 0f 59 4d e4	 mulss	 xmm1, DWORD PTR $T2[ebp]
  00059	f3 0f 58 c8	 addss	 xmm1, xmm0
; File D:\Metin2 Server Files\mainline\SRC_2014\Metin2Client\EterLib\Camera.cpp

; 526  : 	float fDot = D3DXVec2Dot(&v2ViewXY, &D3DXVECTOR2(0.0f, 1.0f));

  0005d	f3 0f 11 4d fc	 movss	 DWORD PTR _fDot$[ebp], xmm1

; 527  : 	if (fDot >= 1)

  00062	f3 0f 10 45 fc	 movss	 xmm0, DWORD PTR _fDot$[ebp]
  00067	0f 2f 05 00 00
	00 00		 comiss	 xmm0, DWORD PTR __real@3f800000
  0006e	72 0f		 jb	 SHORT $LN2@CalculateR

; 528  : 		fDot = 1;

  00070	f3 0f 10 05 00
	00 00 00	 movss	 xmm0, DWORD PTR __real@3f800000
  00078	f3 0f 11 45 fc	 movss	 DWORD PTR _fDot$[ebp], xmm0
  0007d	eb 1b		 jmp	 SHORT $LN4@CalculateR
$LN2@CalculateR:

; 529  : 	else if (fDot <= -1)

  0007f	f3 0f 10 05 00
	00 00 00	 movss	 xmm0, DWORD PTR __real@bf800000
  00087	0f 2f 45 fc	 comiss	 xmm0, DWORD PTR _fDot$[ebp]
  0008b	72 0d		 jb	 SHORT $LN4@CalculateR

; 530  : 		fDot = -1;

  0008d	f3 0f 10 05 00
	00 00 00	 movss	 xmm0, DWORD PTR __real@bf800000
  00095	f3 0f 11 45 fc	 movss	 DWORD PTR _fDot$[ebp], xmm0
$LN4@CalculateR:
; File C:\Program Files (x86)\Windows Kits\10\Include\10.0.18362.0\ucrt\corecrt_math.h

; 624  :             return (float)acos(_X);

  0009a	f3 0f 5a 45 fc	 cvtss2sd xmm0, DWORD PTR _fDot$[ebp]
  0009f	51		 push	 ecx
  000a0	51		 push	 ecx
  000a1	f2 0f 11 04 24	 movsd	 QWORD PTR [esp], xmm0
  000a6	e8 00 00 00 00	 call	 _acos
  000ab	59		 pop	 ecx
  000ac	59		 pop	 ecx
; File D:\Metin2 Server Files\mainline\SRC_2014\Metin2Client\EterLib\Camera.cpp

; 531  : 	fDot = acosf(fDot);

  000ad	d9 5d fc	 fstp	 DWORD PTR _fDot$[ebp]

; 532  : 	fDot *= (180.0f / D3DX_PI);

  000b0	f3 0f 10 45 fc	 movss	 xmm0, DWORD PTR _fDot$[ebp]
  000b5	f3 0f 59 05 00
	00 00 00	 mulss	 xmm0, DWORD PTR __real@42652ee0
  000bd	f3 0f 11 45 fc	 movss	 DWORD PTR _fDot$[ebp], xmm0
; File D:\Metin2 Server Files\mainline\SRC_2014\M2Data\include\d3dx8math.inl

; 41   :     x = fx;

  000c2	0f 57 c0	 xorps	 xmm0, xmm0
  000c5	f3 0f 11 45 dc	 movss	 DWORD PTR $T1[ebp], xmm0

; 42   :     y = fy;

  000ca	f3 0f 10 05 00
	00 00 00	 movss	 xmm0, DWORD PTR __real@3f800000
  000d2	f3 0f 11 45 e0	 movss	 DWORD PTR $T1[ebp+4], xmm0

; 1143 :     return pV1->x * pV2->y - pV1->y * pV2->x;

  000d7	f3 0f 10 45 f0	 movss	 xmm0, DWORD PTR _v2ViewXY$[ebp+4]
  000dc	f3 0f 59 45 dc	 mulss	 xmm0, DWORD PTR $T1[ebp]
  000e1	f3 0f 10 4d ec	 movss	 xmm1, DWORD PTR _v2ViewXY$[ebp]
  000e6	f3 0f 59 4d e0	 mulss	 xmm1, DWORD PTR $T1[ebp+4]
  000eb	f3 0f 5c c8	 subss	 xmm1, xmm0
; File D:\Metin2 Server Files\mainline\SRC_2014\Metin2Client\EterLib\Camera.cpp

; 533  : 	float fCross = D3DXVec2CCW (&v2ViewXY, &D3DXVECTOR2(0.0f, 1.0f));

  000ef	f3 0f 11 4d f4	 movss	 DWORD PTR _fCross$[ebp], xmm1

; 534  : 	if ( 0 > fCross)

  000f4	0f 57 c0	 xorps	 xmm0, xmm0
  000f7	0f 2f 45 f4	 comiss	 xmm0, DWORD PTR _fCross$[ebp]
  000fb	76 11		 jbe	 SHORT $LN5@CalculateR

; 535  : 	{
; 536  : 		fDot = -fDot;

  000fd	f3 0f 10 45 fc	 movss	 xmm0, DWORD PTR _fDot$[ebp]
  00102	0f 57 05 00 00
	00 00		 xorps	 xmm0, DWORD PTR __xmm@80000000800000008000000080000000
  00109	f3 0f 11 45 fc	 movss	 DWORD PTR _fDot$[ebp], xmm0
$LN5@CalculateR:

; 537  : 	}
; 538  : 
; 539  : 	m_fRoll = fDot;

  0010e	8b 45 f8	 mov	 eax, DWORD PTR _this$[ebp]
  00111	f3 0f 10 45 fc	 movss	 xmm0, DWORD PTR _fDot$[ebp]
  00116	f3 0f 11 80 30
	01 00 00	 movss	 DWORD PTR [eax+304], xmm0

; 540  : 
; 541  : }

  0011e	c9		 leave
  0011f	c3		 ret	 0
?CalculateRoll@CCamera@@IAEXXZ ENDP			; CCamera::CalculateRoll
_TEXT	ENDS
; Function compile flags: /Odspy
; File D:\Metin2 Server Files\mainline\SRC_2014\Metin2Client\EterLib\Camera.cpp
; File D:\Metin2 Server Files\mainline\SRC_2014\M2Data\include\d3dx8math.inl
; File D:\Metin2 Server Files\mainline\SRC_2014\Metin2Client\EterLib\Camera.cpp
; File D:\Metin2 Server Files\mainline\SRC_2014\M2Data\include\d3dx8math.inl
; File D:\Metin2 Server Files\mainline\SRC_2014\Metin2Client\EterLib\Camera.cpp
; File D:\Metin2 Server Files\mainline\SRC_2014\M2Data\include\d3dx8math.inl
; File C:\Program Files (x86)\Windows Kits\10\Include\10.0.18362.0\ucrt\corecrt_math.h
; File D:\Metin2 Server Files\mainline\SRC_2014\Metin2Client\EterLib\Camera.cpp
; File D:\Metin2 Server Files\mainline\SRC_2014\M2Data\include\d3dx8math.inl
; File D:\Metin2 Server Files\mainline\SRC_2014\Metin2Client\EterLib\Camera.cpp
; File D:\Metin2 Server Files\mainline\SRC_2014\M2Data\include\d3dx8math.inl
; File D:\Metin2 Server Files\mainline\SRC_2014\Metin2Client\EterLib\Camera.cpp
; File D:\Metin2 Server Files\mainline\SRC_2014\M2Data\include\d3dx8math.inl
; File D:\Metin2 Server Files\mainline\SRC_2014\Metin2Client\EterLib\Camera.cpp
; File D:\Metin2 Server Files\mainline\SRC_2014\M2Data\include\d3dx8math.inl
; File D:\Metin2 Server Files\mainline\SRC_2014\Metin2Client\EterLib\Camera.cpp
; File C:\Program Files (x86)\Windows Kits\10\Include\10.0.18362.0\ucrt\corecrt_math.h
; File D:\Metin2 Server Files\mainline\SRC_2014\Metin2Client\EterLib\Camera.cpp
; File D:\Metin2 Server Files\mainline\SRC_2014\Metin2Client\EterLib\Ray.h
; File D:\Metin2 Server Files\mainline\SRC_2014\Metin2Client\EterLib\Camera.cpp
; File D:\Metin2 Server Files\mainline\SRC_2014\Metin2Client\EterLib\Ray.h
; File D:\Metin2 Server Files\mainline\SRC_2014\Metin2Client\EterLib\Camera.cpp
; File D:\Metin2 Server Files\mainline\SRC_2014\Metin2Client\EterLib\Ray.h
; File D:\Metin2 Server Files\mainline\SRC_2014\Metin2Client\EterLib\Camera.cpp
; File D:\Metin2 Server Files\mainline\SRC_2014\Metin2Client\EterLib\Ray.h
; File D:\Metin2 Server Files\mainline\SRC_2014\Metin2Client\EterLib\Camera.cpp
; File D:\Metin2 Server Files\mainline\SRC_2014\Metin2Client\EterLib\Ray.h
; File D:\Metin2 Server Files\mainline\SRC_2014\Metin2Client\EterLib\Camera.cpp
; File D:\Metin2 Server Files\mainline\SRC_2014\Metin2Client\EterLib\Ray.h
; File D:\Metin2 Server Files\mainline\SRC_2014\Metin2Client\EterLib\Camera.cpp
; File D:\Metin2 Server Files\mainline\SRC_2014\Metin2Client\EterLib\Ray.h
; File D:\Metin2 Server Files\mainline\SRC_2014\Metin2Client\EterLib\Camera.cpp
; File D:\Metin2 Server Files\mainline\SRC_2014\M2Data\include\d3dx8math.inl
; File D:\Metin2 Server Files\mainline\SRC_2014\Metin2Client\EterLib\Camera.cpp
; File D:\Metin2 Server Files\mainline\SRC_2014\M2Data\include\d3dx8math.inl
; File D:\Metin2 Server Files\mainline\SRC_2014\Metin2Client\EterLib\Camera.cpp
; File D:\Metin2 Server Files\mainline\SRC_2014\M2Data\include\d3dx8math.inl
; File D:\Metin2 Server Files\mainline\SRC_2014\Metin2Client\EterLib\Camera.cpp
; File D:\Metin2 Server Files\mainline\SRC_2014\M2Data\include\d3dx8math.inl
; File C:\Program Files (x86)\Windows Kits\10\Include\10.0.18362.0\ucrt\corecrt_math.h
; File D:\Metin2 Server Files\mainline\SRC_2014\M2Data\include\d3dx8math.inl
; File D:\Metin2 Server Files\mainline\SRC_2014\Metin2Client\EterLib\Camera.cpp
; File D:\Metin2 Server Files\mainline\SRC_2014\M2Data\include\d3dx8math.inl
; File D:\Metin2 Server Files\mainline\SRC_2014\Metin2Client\EterLib\Camera.cpp
; File D:\Metin2 Server Files\mainline\SRC_2014\Metin2Client\EterLib\Ray.h
; File D:\Metin2 Server Files\mainline\SRC_2014\Metin2Client\EterLib\Camera.cpp
; File D:\Metin2 Server Files\mainline\SRC_2014\Metin2Client\EterLib\Ray.h
; File D:\Metin2 Server Files\mainline\SRC_2014\Metin2Client\EterLib\Camera.cpp
; File D:\Metin2 Server Files\mainline\SRC_2014\Metin2Client\EterLib\Ray.h
; File D:\Metin2 Server Files\mainline\SRC_2014\Metin2Client\EterLib\Camera.cpp
; File D:\Metin2 Server Files\mainline\SRC_2014\Metin2Client\EterLib\Ray.h
; File D:\Metin2 Server Files\mainline\SRC_2014\Metin2Client\EterLib\Camera.cpp
; File D:\Metin2 Server Files\mainline\SRC_2014\M2Data\include\d3dx8math.inl
; File C:\Program Files (x86)\Windows Kits\10\Include\10.0.18362.0\ucrt\corecrt_math.h
; File D:\Metin2 Server Files\mainline\SRC_2014\M2Data\include\d3dx8math.inl
; File D:\Metin2 Server Files\mainline\SRC_2014\Metin2Client\EterLib\Camera.cpp
; File D:\Metin2 Server Files\mainline\SRC_2014\M2Data\include\d3dx8math.inl
; File D:\Metin2 Server Files\mainline\SRC_2014\Metin2Client\EterLib\Camera.cpp
; File D:\Metin2 Server Files\mainline\SRC_2014\M2Data\include\d3dx8math.inl
; File C:\Program Files (x86)\Windows Kits\10\Include\10.0.18362.0\ucrt\corecrt_math.h
; File D:\Metin2 Server Files\mainline\SRC_2014\M2Data\include\d3dx8math.inl
; File D:\Metin2 Server Files\mainline\SRC_2014\Metin2Client\EterLib\Camera.cpp
; File D:\Metin2 Server Files\mainline\SRC_2014\M2Data\include\d3dx8math.inl
; File D:\Metin2 Server Files\mainline\SRC_2014\Metin2Client\EterLib\Camera.cpp
; File D:\Metin2 Server Files\mainline\SRC_2014\M2Data\include\d3dx8math.inl
; File C:\Program Files (x86)\Windows Kits\10\Include\10.0.18362.0\ucrt\corecrt_math.h
; File D:\Metin2 Server Files\mainline\SRC_2014\M2Data\include\d3dx8math.inl
; File D:\Metin2 Server Files\mainline\SRC_2014\Metin2Client\EterLib\Camera.cpp
; File D:\Metin2 Server Files\mainline\SRC_2014\M2Data\include\d3dx8math.inl
; File D:\Metin2 Server Files\mainline\SRC_2014\Metin2Client\EterLib\Camera.cpp
; File D:\Metin2 Server Files\mainline\SRC_2014\M2Data\include\d3dx8math.inl
; File C:\Program Files (x86)\Windows Kits\10\Include\10.0.18362.0\ucrt\corecrt_math.h
; File D:\Metin2 Server Files\mainline\SRC_2014\M2Data\include\d3dx8math.inl
; File D:\Metin2 Server Files\mainline\SRC_2014\Metin2Client\EterLib\Camera.cpp
; File D:\Metin2 Server Files\mainline\SRC_2014\M2Data\include\d3dx8math.inl
; File D:\Metin2 Server Files\mainline\SRC_2014\Metin2Client\EterLib\Camera.cpp
;	COMDAT ?SetViewMatrix@CCamera@@IAEXXZ
_TEXT	SEGMENT
_fz$ = -832						; size = 4
_fy$ = -828						; size = 4
_fz$ = -824						; size = 4
_fx$ = -820						; size = 4
_fy$ = -816						; size = 4
_fz$ = -812						; size = 4
_fx$ = -808						; size = 4
_fy$ = -804						; size = 4
_fz$ = -800						; size = 4
_fx$ = -796						; size = 4
_fy$ = -792						; size = 4
_fz$ = -788						; size = 4
__X$ = -784						; size = 4
_fx$ = -780						; size = 4
_fy$ = -776						; size = 4
_fz$ = -772						; size = 4
_fx$ = -768						; size = 4
_fy$ = -764						; size = 4
_fy$ = -760						; size = 4
_fz$ = -756						; size = 4
$T1 = -752						; size = 4
_fx$ = -748						; size = 4
_fy$ = -744						; size = 4
_fz$ = -740						; size = 4
_fx$ = -736						; size = 4
_fy$ = -732						; size = 4
_fz$ = -728						; size = 4
__X$ = -724						; size = 4
$T2 = -720						; size = 4
_fz$ = -716						; size = 4
_fy$ = -712						; size = 4
_fx$ = -708						; size = 4
_fz$ = -704						; size = 4
_fy$ = -700						; size = 4
_fx$ = -696						; size = 4
__X$ = -692						; size = 4
_fx$ = -688						; size = 4
_fy$ = -684						; size = 4
_fx$ = -680						; size = 4
_fz$ = -676						; size = 4
_fy$ = -672						; size = 4
_fx$ = -668						; size = 4
$T3 = -664						; size = 4
_fz$ = -660						; size = 4
_fy$ = -656						; size = 4
_fx$ = -652						; size = 4
_fz$ = -648						; size = 4
_fy$ = -644						; size = 4
_fx$ = -640						; size = 4
__X$ = -636						; size = 4
_fz$ = -632						; size = 4
_fy$ = -628						; size = 4
_fx$ = -624						; size = 4
_fz$ = -620						; size = 4
_fy$ = -616						; size = 4
_fx$ = -612						; size = 4
$T4 = -608						; size = 4
_fz$ = -604						; size = 4
_fy$ = -600						; size = 4
_fx$ = -596						; size = 4
_fz$ = -592						; size = 4
_fy$ = -588						; size = 4
_fx$ = -584						; size = 4
__X$ = -580						; size = 4
_fz$ = -576						; size = 4
_fy$ = -572						; size = 4
_fx$ = -568						; size = 4
_fz$ = -564						; size = 4
_fy$ = -560						; size = 4
_fx$ = -556						; size = 4
$T5 = -552						; size = 4
_fz$ = -548						; size = 4
_fy$ = -544						; size = 4
_fx$ = -540						; size = 4
_fz$ = -536						; size = 4
_fx$ = -532						; size = 4
_fz$ = -528						; size = 4
_fy$ = -524						; size = 4
_fx$ = -520						; size = 4
_fDeterminantD3DMatView$ = -516				; size = 4
__X$ = -512						; size = 4
_pOut$ = -508						; size = 4
_pOut$ = -504						; size = 4
__X$ = -500						; size = 4
_fz$ = -496						; size = 4
_fy$ = -492						; size = 4
_fx$ = -488						; size = 4
_fz$ = -484						; size = 4
_fy$ = -480						; size = 4
_fx$ = -476						; size = 4
_f$ = -472						; size = 4
_f$ = -468						; size = 4
_v$ = -464						; size = 4
_f$ = -460						; size = 4
_v$ = -456						; size = 4
_f$ = -452						; size = 4
_v$ = -448						; size = 4
_f$ = -444						; size = 4
_v$ = -440						; size = 4
_f$ = -436						; size = 4
_v$ = -432						; size = 4
_f$ = -428						; size = 4
_v$ = -424						; size = 4
_f$ = -420						; size = 4
_v$ = -416						; size = 4
_v$ = -412						; size = 4
_f$ = -408						; size = 4
_v$ = -404						; size = 4
_f$ = -400						; size = 4
_v$ = -396						; size = 4
_this$ = -392						; size = 4
_this$ = -388						; size = 4
_this$ = -384						; size = 4
_pV1$ = -380						; size = 4
_this$ = -376						; size = 4
_v$ = -372						; size = 4
_this$ = -368						; size = 4
_pV2$ = -364						; size = 4
_pV1$ = -360						; size = 4
_pV2$ = -356						; size = 4
_pV1$ = -352						; size = 4
_pV$ = -348						; size = 4
_this$ = -344						; size = 4
$T6 = -340						; size = 12
$T7 = -328						; size = 12
_v$8 = -316						; size = 12
_v$9 = -304						; size = 12
$T10 = -292						; size = 12
$T11 = -280						; size = 12
$T12 = -268						; size = 12
$T13 = -256						; size = 12
$T14 = -244						; size = 12
$T15 = -232						; size = 12
$T16 = -220						; size = 12
$T17 = -208						; size = 12
$T18 = -196						; size = 12
$T19 = -184						; size = 12
$T20 = -172						; size = 12
$T21 = -160						; size = 12
$T22 = -148						; size = 12
$T23 = -136						; size = 12
$T24 = -124						; size = 12
$T25 = -112						; size = 12
$T26 = -100						; size = 12
$T27 = -88						; size = 12
$T28 = -76						; size = 12
$T29 = -64						; size = 12
$T30 = -52						; size = 12
$T31 = -40						; size = 12
$T32 = -28						; size = 12
_v3CenterRay$ = -16					; size = 12
__$ArrayPad$ = -4					; size = 4
?SetViewMatrix@CCamera@@IAEXXZ PROC			; CCamera::SetViewMatrix, COMDAT
; _this$ = ecx

; 256  : {

  00000	55		 push	 ebp
  00001	8b ec		 mov	 ebp, esp
  00003	81 ec 40 03 00
	00		 sub	 esp, 832		; 00000340H
  00009	a1 00 00 00 00	 mov	 eax, DWORD PTR ___security_cookie
  0000e	33 c5		 xor	 eax, ebp
  00010	89 45 fc	 mov	 DWORD PTR __$ArrayPad$[ebp], eax
  00013	56		 push	 esi
  00014	57		 push	 edi
  00015	89 8d a8 fe ff
	ff		 mov	 DWORD PTR _this$[ebp], ecx

; 257  : 	m_v3View = m_v3Target - m_v3Eye;

  0001b	8b 85 a8 fe ff
	ff		 mov	 eax, DWORD PTR _this$[ebp]
  00021	83 c0 30	 add	 eax, 48			; 00000030H
  00024	89 85 8c fe ff
	ff		 mov	 DWORD PTR _v$[ebp], eax
  0002a	8b 85 a8 fe ff
	ff		 mov	 eax, DWORD PTR _this$[ebp]
  00030	83 c0 3c	 add	 eax, 60			; 0000003cH
  00033	89 85 90 fe ff
	ff		 mov	 DWORD PTR _this$[ebp], eax
; File D:\Metin2 Server Files\mainline\SRC_2014\M2Data\include\d3dx8math.inl

; 263  :     return D3DXVECTOR3(x - v.x, y - v.y, z - v.z);

  00039	8b 85 90 fe ff
	ff		 mov	 eax, DWORD PTR _this$[ebp]
  0003f	8b 8d 8c fe ff
	ff		 mov	 ecx, DWORD PTR _v$[ebp]
  00045	f3 0f 10 00	 movss	 xmm0, DWORD PTR [eax]
  00049	f3 0f 5c 01	 subss	 xmm0, DWORD PTR [ecx]
  0004d	f3 0f 11 85 24
	fe ff ff	 movss	 DWORD PTR _fx$[ebp], xmm0
  00055	8b 85 90 fe ff
	ff		 mov	 eax, DWORD PTR _this$[ebp]
  0005b	8b 8d 8c fe ff
	ff		 mov	 ecx, DWORD PTR _v$[ebp]
  00061	f3 0f 10 40 04	 movss	 xmm0, DWORD PTR [eax+4]
  00066	f3 0f 5c 41 04	 subss	 xmm0, DWORD PTR [ecx+4]
  0006b	f3 0f 11 85 20
	fe ff ff	 movss	 DWORD PTR _fy$[ebp], xmm0
  00073	8b 85 90 fe ff
	ff		 mov	 eax, DWORD PTR _this$[ebp]
  00079	8b 8d 8c fe ff
	ff		 mov	 ecx, DWORD PTR _v$[ebp]
  0007f	f3 0f 10 40 08	 movss	 xmm0, DWORD PTR [eax+8]
  00084	f3 0f 5c 41 08	 subss	 xmm0, DWORD PTR [ecx+8]
  00089	f3 0f 11 85 1c
	fe ff ff	 movss	 DWORD PTR _fz$[ebp], xmm0

; 180  :     x = fx;

  00091	f3 0f 10 85 24
	fe ff ff	 movss	 xmm0, DWORD PTR _fx$[ebp]
  00099	f3 0f 11 85 b8
	fe ff ff	 movss	 DWORD PTR $T7[ebp], xmm0

; 181  :     y = fy;

  000a1	f3 0f 10 85 20
	fe ff ff	 movss	 xmm0, DWORD PTR _fy$[ebp]
  000a9	f3 0f 11 85 bc
	fe ff ff	 movss	 DWORD PTR $T7[ebp+4], xmm0

; 182  :     z = fz;

  000b1	f3 0f 10 85 1c
	fe ff ff	 movss	 xmm0, DWORD PTR _fz$[ebp]
  000b9	f3 0f 11 85 c0
	fe ff ff	 movss	 DWORD PTR $T7[ebp+8], xmm0
; File D:\Metin2 Server Files\mainline\SRC_2014\Metin2Client\EterLib\Camera.cpp

; 257  : 	m_v3View = m_v3Target - m_v3Eye;

  000c1	8b bd a8 fe ff
	ff		 mov	 edi, DWORD PTR _this$[ebp]
  000c7	83 c7 54	 add	 edi, 84			; 00000054H
  000ca	8d b5 b8 fe ff
	ff		 lea	 esi, DWORD PTR $T7[ebp]
  000d0	a5		 movsd
  000d1	a5		 movsd
  000d2	a5		 movsd

; 258  : 	D3DXVECTOR3 v3CenterRay = -m_v3View;

  000d3	8b 85 a8 fe ff
	ff		 mov	 eax, DWORD PTR _this$[ebp]
  000d9	83 c0 54	 add	 eax, 84			; 00000054H
  000dc	89 85 88 fe ff
	ff		 mov	 DWORD PTR _this$[ebp], eax
; File D:\Metin2 Server Files\mainline\SRC_2014\M2Data\include\d3dx8math.inl

; 249  :     return D3DXVECTOR3(-x, -y, -z);

  000e2	8b 85 88 fe ff
	ff		 mov	 eax, DWORD PTR _this$[ebp]
  000e8	f3 0f 10 00	 movss	 xmm0, DWORD PTR [eax]
  000ec	0f 57 05 00 00
	00 00		 xorps	 xmm0, DWORD PTR __xmm@80000000800000008000000080000000
  000f3	f3 0f 11 85 18
	fe ff ff	 movss	 DWORD PTR _fx$[ebp], xmm0
  000fb	8b 85 88 fe ff
	ff		 mov	 eax, DWORD PTR _this$[ebp]
  00101	f3 0f 10 40 04	 movss	 xmm0, DWORD PTR [eax+4]
  00106	0f 57 05 00 00
	00 00		 xorps	 xmm0, DWORD PTR __xmm@80000000800000008000000080000000
  0010d	f3 0f 11 85 14
	fe ff ff	 movss	 DWORD PTR _fy$[ebp], xmm0
  00115	8b 85 88 fe ff
	ff		 mov	 eax, DWORD PTR _this$[ebp]
  0011b	f3 0f 10 40 08	 movss	 xmm0, DWORD PTR [eax+8]
  00120	0f 57 05 00 00
	00 00		 xorps	 xmm0, DWORD PTR __xmm@80000000800000008000000080000000
  00127	f3 0f 11 85 10
	fe ff ff	 movss	 DWORD PTR _fz$[ebp], xmm0

; 180  :     x = fx;

  0012f	f3 0f 10 85 18
	fe ff ff	 movss	 xmm0, DWORD PTR _fx$[ebp]
  00137	f3 0f 11 45 f0	 movss	 DWORD PTR _v3CenterRay$[ebp], xmm0

; 181  :     y = fy;

  0013c	f3 0f 10 85 14
	fe ff ff	 movss	 xmm0, DWORD PTR _fy$[ebp]
  00144	f3 0f 11 45 f4	 movss	 DWORD PTR _v3CenterRay$[ebp+4], xmm0

; 182  :     z = fz;

  00149	f3 0f 10 85 10
	fe ff ff	 movss	 xmm0, DWORD PTR _fz$[ebp]
  00151	f3 0f 11 45 f8	 movss	 DWORD PTR _v3CenterRay$[ebp+8], xmm0
; File D:\Metin2 Server Files\mainline\SRC_2014\Metin2Client\EterLib\Camera.cpp

; 259  :  	CalculateRoll();

  00156	8b 8d a8 fe ff
	ff		 mov	 ecx, DWORD PTR _this$[ebp]
  0015c	e8 00 00 00 00	 call	 ?CalculateRoll@CCamera@@IAEXXZ ; CCamera::CalculateRoll

; 260  : 	m_fDistance = D3DXVec3Length(&m_v3View);

  00161	8b 85 a8 fe ff
	ff		 mov	 eax, DWORD PTR _this$[ebp]
  00167	83 c0 54	 add	 eax, 84			; 00000054H
  0016a	89 85 a4 fe ff
	ff		 mov	 DWORD PTR _pV$[ebp], eax
; File D:\Metin2 Server Files\mainline\SRC_2014\M2Data\include\d3dx8math.inl

; 1239 :     return sqrtf(pV->x * pV->x + pV->y * pV->y + pV->z * pV->z);

  00170	8b 85 a4 fe ff
	ff		 mov	 eax, DWORD PTR _pV$[ebp]
  00176	8b 8d a4 fe ff
	ff		 mov	 ecx, DWORD PTR _pV$[ebp]
  0017c	f3 0f 10 40 08	 movss	 xmm0, DWORD PTR [eax+8]
  00181	f3 0f 59 41 08	 mulss	 xmm0, DWORD PTR [ecx+8]
  00186	8b 85 a4 fe ff
	ff		 mov	 eax, DWORD PTR _pV$[ebp]
  0018c	8b 8d a4 fe ff
	ff		 mov	 ecx, DWORD PTR _pV$[ebp]
  00192	f3 0f 10 48 04	 movss	 xmm1, DWORD PTR [eax+4]
  00197	f3 0f 59 49 04	 mulss	 xmm1, DWORD PTR [ecx+4]
  0019c	8b 85 a4 fe ff
	ff		 mov	 eax, DWORD PTR _pV$[ebp]
  001a2	8b 8d a4 fe ff
	ff		 mov	 ecx, DWORD PTR _pV$[ebp]
  001a8	f3 0f 10 10	 movss	 xmm2, DWORD PTR [eax]
  001ac	f3 0f 59 11	 mulss	 xmm2, DWORD PTR [ecx]
  001b0	f3 0f 58 d1	 addss	 xmm2, xmm1
  001b4	f3 0f 58 d0	 addss	 xmm2, xmm0
  001b8	f3 0f 11 95 0c
	fe ff ff	 movss	 DWORD PTR __X$[ebp], xmm2
; File C:\Program Files (x86)\Windows Kits\10\Include\10.0.18362.0\ucrt\corecrt_math.h

; 760  :             return (float)sqrt(_X);

  001c0	f3 0f 5a 85 0c
	fe ff ff	 cvtss2sd xmm0, DWORD PTR __X$[ebp]
  001c8	51		 push	 ecx
  001c9	51		 push	 ecx
  001ca	f2 0f 11 04 24	 movsd	 QWORD PTR [esp], xmm0
  001cf	e8 00 00 00 00	 call	 _sqrt
  001d4	59		 pop	 ecx
  001d5	59		 pop	 ecx
; File D:\Metin2 Server Files\mainline\SRC_2014\Metin2Client\EterLib\Camera.cpp

; 260  : 	m_fDistance = D3DXVec3Length(&m_v3View);

  001d6	8b 85 a8 fe ff
	ff		 mov	 eax, DWORD PTR _this$[ebp]
  001dc	d9 98 34 01 00
	00		 fstp	 DWORD PTR [eax+308]

; 261  : 	assert(m_fDistance >= 0);
; 262  : 	D3DXVec3Normalize(&m_v3View , &m_v3View);

  001e2	8b 85 a8 fe ff
	ff		 mov	 eax, DWORD PTR _this$[ebp]
  001e8	83 c0 54	 add	 eax, 84			; 00000054H
  001eb	50		 push	 eax
  001ec	8b 85 a8 fe ff
	ff		 mov	 eax, DWORD PTR _this$[ebp]
  001f2	83 c0 54	 add	 eax, 84			; 00000054H
  001f5	50		 push	 eax
  001f6	e8 00 00 00 00	 call	 _D3DXVec3Normalize@8

; 263  : 
; 264  :     D3DXVec3Cross(&m_v3Cross, &m_v3Up, &m_v3View);

  001fb	8b 85 a8 fe ff
	ff		 mov	 eax, DWORD PTR _this$[ebp]
  00201	83 c0 54	 add	 eax, 84			; 00000054H
  00204	89 85 9c fe ff
	ff		 mov	 DWORD PTR _pV2$[ebp], eax
  0020a	8b 85 a8 fe ff
	ff		 mov	 eax, DWORD PTR _this$[ebp]
  00210	83 c0 48	 add	 eax, 72			; 00000048H
  00213	89 85 a0 fe ff
	ff		 mov	 DWORD PTR _pV1$[ebp], eax
  00219	8b 85 a8 fe ff
	ff		 mov	 eax, DWORD PTR _this$[ebp]
  0021f	83 c0 60	 add	 eax, 96			; 00000060H
  00222	89 85 08 fe ff
	ff		 mov	 DWORD PTR _pOut$[ebp], eax
; File D:\Metin2 Server Files\mainline\SRC_2014\M2Data\include\d3dx8math.inl

; 1277 :     v.x = pV1->y * pV2->z - pV1->z * pV2->y;

  00228	8b 85 a0 fe ff
	ff		 mov	 eax, DWORD PTR _pV1$[ebp]
  0022e	8b 8d 9c fe ff
	ff		 mov	 ecx, DWORD PTR _pV2$[ebp]
  00234	f3 0f 10 40 04	 movss	 xmm0, DWORD PTR [eax+4]
  00239	f3 0f 59 41 08	 mulss	 xmm0, DWORD PTR [ecx+8]
  0023e	8b 85 a0 fe ff
	ff		 mov	 eax, DWORD PTR _pV1$[ebp]
  00244	8b 8d 9c fe ff
	ff		 mov	 ecx, DWORD PTR _pV2$[ebp]
  0024a	f3 0f 10 48 08	 movss	 xmm1, DWORD PTR [eax+8]
  0024f	f3 0f 59 49 04	 mulss	 xmm1, DWORD PTR [ecx+4]
  00254	f3 0f 5c c1	 subss	 xmm0, xmm1
  00258	f3 0f 11 85 c4
	fe ff ff	 movss	 DWORD PTR _v$8[ebp], xmm0

; 1278 :     v.y = pV1->z * pV2->x - pV1->x * pV2->z;

  00260	8b 85 a0 fe ff
	ff		 mov	 eax, DWORD PTR _pV1$[ebp]
  00266	8b 8d 9c fe ff
	ff		 mov	 ecx, DWORD PTR _pV2$[ebp]
  0026c	f3 0f 10 40 08	 movss	 xmm0, DWORD PTR [eax+8]
  00271	f3 0f 59 01	 mulss	 xmm0, DWORD PTR [ecx]
  00275	8b 85 a0 fe ff
	ff		 mov	 eax, DWORD PTR _pV1$[ebp]
  0027b	8b 8d 9c fe ff
	ff		 mov	 ecx, DWORD PTR _pV2$[ebp]
  00281	f3 0f 10 08	 movss	 xmm1, DWORD PTR [eax]
  00285	f3 0f 59 49 08	 mulss	 xmm1, DWORD PTR [ecx+8]
  0028a	f3 0f 5c c1	 subss	 xmm0, xmm1
  0028e	f3 0f 11 85 c8
	fe ff ff	 movss	 DWORD PTR _v$8[ebp+4], xmm0

; 1279 :     v.z = pV1->x * pV2->y - pV1->y * pV2->x;

  00296	8b 85 a0 fe ff
	ff		 mov	 eax, DWORD PTR _pV1$[ebp]
  0029c	8b 8d 9c fe ff
	ff		 mov	 ecx, DWORD PTR _pV2$[ebp]
  002a2	f3 0f 10 00	 movss	 xmm0, DWORD PTR [eax]
  002a6	f3 0f 59 41 04	 mulss	 xmm0, DWORD PTR [ecx+4]
  002ab	8b 85 a0 fe ff
	ff		 mov	 eax, DWORD PTR _pV1$[ebp]
  002b1	8b 8d 9c fe ff
	ff		 mov	 ecx, DWORD PTR _pV2$[ebp]
  002b7	f3 0f 10 48 04	 movss	 xmm1, DWORD PTR [eax+4]
  002bc	f3 0f 59 09	 mulss	 xmm1, DWORD PTR [ecx]
  002c0	f3 0f 5c c1	 subss	 xmm0, xmm1
  002c4	f3 0f 11 85 cc
	fe ff ff	 movss	 DWORD PTR _v$8[ebp+8], xmm0

; 1280 : 
; 1281 :     *pOut = v;

  002cc	8d b5 c4 fe ff
	ff		 lea	 esi, DWORD PTR _v$8[ebp]
  002d2	8b bd 08 fe ff
	ff		 mov	 edi, DWORD PTR _pOut$[ebp]
  002d8	a5		 movsd
  002d9	a5		 movsd
  002da	a5		 movsd
; File D:\Metin2 Server Files\mainline\SRC_2014\Metin2Client\EterLib\Camera.cpp

; 265  : 	D3DXVec3Normalize(&m_v3Cross, &m_v3Cross);

  002db	8b 85 a8 fe ff
	ff		 mov	 eax, DWORD PTR _this$[ebp]
  002e1	83 c0 60	 add	 eax, 96			; 00000060H
  002e4	50		 push	 eax
  002e5	8b 85 a8 fe ff
	ff		 mov	 eax, DWORD PTR _this$[ebp]
  002eb	83 c0 60	 add	 eax, 96			; 00000060H
  002ee	50		 push	 eax
  002ef	e8 00 00 00 00	 call	 _D3DXVec3Normalize@8

; 266  : 
; 267  :     D3DXVec3Cross(&m_v3Up, &m_v3View, &m_v3Cross);

  002f4	8b 85 a8 fe ff
	ff		 mov	 eax, DWORD PTR _this$[ebp]
  002fa	83 c0 60	 add	 eax, 96			; 00000060H
  002fd	89 85 94 fe ff
	ff		 mov	 DWORD PTR _pV2$[ebp], eax
  00303	8b 85 a8 fe ff
	ff		 mov	 eax, DWORD PTR _this$[ebp]
  00309	83 c0 54	 add	 eax, 84			; 00000054H
  0030c	89 85 98 fe ff
	ff		 mov	 DWORD PTR _pV1$[ebp], eax
  00312	8b 85 a8 fe ff
	ff		 mov	 eax, DWORD PTR _this$[ebp]
  00318	83 c0 48	 add	 eax, 72			; 00000048H
  0031b	89 85 04 fe ff
	ff		 mov	 DWORD PTR _pOut$[ebp], eax
; File D:\Metin2 Server Files\mainline\SRC_2014\M2Data\include\d3dx8math.inl

; 1277 :     v.x = pV1->y * pV2->z - pV1->z * pV2->y;

  00321	8b 85 98 fe ff
	ff		 mov	 eax, DWORD PTR _pV1$[ebp]
  00327	8b 8d 94 fe ff
	ff		 mov	 ecx, DWORD PTR _pV2$[ebp]
  0032d	f3 0f 10 40 04	 movss	 xmm0, DWORD PTR [eax+4]
  00332	f3 0f 59 41 08	 mulss	 xmm0, DWORD PTR [ecx+8]
  00337	8b 85 98 fe ff
	ff		 mov	 eax, DWORD PTR _pV1$[ebp]
  0033d	8b 8d 94 fe ff
	ff		 mov	 ecx, DWORD PTR _pV2$[ebp]
  00343	f3 0f 10 48 08	 movss	 xmm1, DWORD PTR [eax+8]
  00348	f3 0f 59 49 04	 mulss	 xmm1, DWORD PTR [ecx+4]
  0034d	f3 0f 5c c1	 subss	 xmm0, xmm1
  00351	f3 0f 11 85 d0
	fe ff ff	 movss	 DWORD PTR _v$9[ebp], xmm0

; 1278 :     v.y = pV1->z * pV2->x - pV1->x * pV2->z;

  00359	8b 85 98 fe ff
	ff		 mov	 eax, DWORD PTR _pV1$[ebp]
  0035f	8b 8d 94 fe ff
	ff		 mov	 ecx, DWORD PTR _pV2$[ebp]
  00365	f3 0f 10 40 08	 movss	 xmm0, DWORD PTR [eax+8]
  0036a	f3 0f 59 01	 mulss	 xmm0, DWORD PTR [ecx]
  0036e	8b 85 98 fe ff
	ff		 mov	 eax, DWORD PTR _pV1$[ebp]
  00374	8b 8d 94 fe ff
	ff		 mov	 ecx, DWORD PTR _pV2$[ebp]
  0037a	f3 0f 10 08	 movss	 xmm1, DWORD PTR [eax]
  0037e	f3 0f 59 49 08	 mulss	 xmm1, DWORD PTR [ecx+8]
  00383	f3 0f 5c c1	 subss	 xmm0, xmm1
  00387	f3 0f 11 85 d4
	fe ff ff	 movss	 DWORD PTR _v$9[ebp+4], xmm0

; 1279 :     v.z = pV1->x * pV2->y - pV1->y * pV2->x;

  0038f	8b 85 98 fe ff
	ff		 mov	 eax, DWORD PTR _pV1$[ebp]
  00395	8b 8d 94 fe ff
	ff		 mov	 ecx, DWORD PTR _pV2$[ebp]
  0039b	f3 0f 10 00	 movss	 xmm0, DWORD PTR [eax]
  0039f	f3 0f 59 41 04	 mulss	 xmm0, DWORD PTR [ecx+4]
  003a4	8b 85 98 fe ff
	ff		 mov	 eax, DWORD PTR _pV1$[ebp]
  003aa	8b 8d 94 fe ff
	ff		 mov	 ecx, DWORD PTR _pV2$[ebp]
  003b0	f3 0f 10 48 04	 movss	 xmm1, DWORD PTR [eax+4]
  003b5	f3 0f 59 09	 mulss	 xmm1, DWORD PTR [ecx]
  003b9	f3 0f 5c c1	 subss	 xmm0, xmm1
  003bd	f3 0f 11 85 d8
	fe ff ff	 movss	 DWORD PTR _v$9[ebp+8], xmm0

; 1280 : 
; 1281 :     *pOut = v;

  003c5	8d b5 d0 fe ff
	ff		 lea	 esi, DWORD PTR _v$9[ebp]
  003cb	8b bd 04 fe ff
	ff		 mov	 edi, DWORD PTR _pOut$[ebp]
  003d1	a5		 movsd
  003d2	a5		 movsd
  003d3	a5		 movsd
; File D:\Metin2 Server Files\mainline\SRC_2014\Metin2Client\EterLib\Camera.cpp

; 268  : 	D3DXVec3Normalize(&m_v3Up, &m_v3Up);

  003d4	8b 85 a8 fe ff
	ff		 mov	 eax, DWORD PTR _this$[ebp]
  003da	83 c0 48	 add	 eax, 72			; 00000048H
  003dd	50		 push	 eax
  003de	8b 85 a8 fe ff
	ff		 mov	 eax, DWORD PTR _this$[ebp]
  003e4	83 c0 48	 add	 eax, 72			; 00000048H
  003e7	50		 push	 eax
  003e8	e8 00 00 00 00	 call	 _D3DXVec3Normalize@8
; File D:\Metin2 Server Files\mainline\SRC_2014\M2Data\include\d3dx8math.inl

; 180  :     x = fx;

  003ed	0f 57 c0	 xorps	 xmm0, xmm0
  003f0	f3 0f 11 85 30
	ff ff ff	 movss	 DWORD PTR $T17[ebp], xmm0

; 181  :     y = fy;

  003f8	0f 57 c0	 xorps	 xmm0, xmm0
  003fb	f3 0f 11 85 34
	ff ff ff	 movss	 DWORD PTR $T17[ebp+4], xmm0

; 182  :     z = fz;

  00403	f3 0f 10 05 00
	00 00 00	 movss	 xmm0, DWORD PTR __real@3f800000
  0040b	f3 0f 11 85 38
	ff ff ff	 movss	 DWORD PTR $T17[ebp+8], xmm0
; File D:\Metin2 Server Files\mainline\SRC_2014\Metin2Client\EterLib\Camera.cpp

; 270  : 	m_fPitch = D3DXVec3Dot(&m_v3Up, &D3DXVECTOR3(0.0f, 0.0f, 1.0f));// / D3DXVec2Length(&v2ViewYZ);

  00413	8b 85 a8 fe ff
	ff		 mov	 eax, DWORD PTR _this$[ebp]
  00419	83 c0 48	 add	 eax, 72			; 00000048H
  0041c	89 85 84 fe ff
	ff		 mov	 DWORD PTR _pV1$[ebp], eax
; File D:\Metin2 Server Files\mainline\SRC_2014\M2Data\include\d3dx8math.inl

; 1264 :     return pV1->x * pV2->x + pV1->y * pV2->y + pV1->z * pV2->z;

  00422	8b 85 84 fe ff
	ff		 mov	 eax, DWORD PTR _pV1$[ebp]
  00428	f3 0f 10 40 08	 movss	 xmm0, DWORD PTR [eax+8]
  0042d	f3 0f 59 85 38
	ff ff ff	 mulss	 xmm0, DWORD PTR $T17[ebp+8]
  00435	8b 85 84 fe ff
	ff		 mov	 eax, DWORD PTR _pV1$[ebp]
  0043b	f3 0f 10 48 04	 movss	 xmm1, DWORD PTR [eax+4]
  00440	f3 0f 59 8d 34
	ff ff ff	 mulss	 xmm1, DWORD PTR $T17[ebp+4]
  00448	8b 85 84 fe ff
	ff		 mov	 eax, DWORD PTR _pV1$[ebp]
  0044e	f3 0f 10 10	 movss	 xmm2, DWORD PTR [eax]
  00452	f3 0f 59 95 30
	ff ff ff	 mulss	 xmm2, DWORD PTR $T17[ebp]
  0045a	f3 0f 58 d1	 addss	 xmm2, xmm1
  0045e	f3 0f 58 d0	 addss	 xmm2, xmm0
; File D:\Metin2 Server Files\mainline\SRC_2014\Metin2Client\EterLib\Camera.cpp

; 270  : 	m_fPitch = D3DXVec3Dot(&m_v3Up, &D3DXVECTOR3(0.0f, 0.0f, 1.0f));// / D3DXVec2Length(&v2ViewYZ);

  00462	8b 85 a8 fe ff
	ff		 mov	 eax, DWORD PTR _this$[ebp]
  00468	f3 0f 11 90 2c
	01 00 00	 movss	 DWORD PTR [eax+300], xmm2

; 271  : 	if (m_fPitch >= 1)

  00470	8b 85 a8 fe ff
	ff		 mov	 eax, DWORD PTR _this$[ebp]
  00476	f3 0f 10 80 2c
	01 00 00	 movss	 xmm0, DWORD PTR [eax+300]
  0047e	0f 2f 05 00 00
	00 00		 comiss	 xmm0, DWORD PTR __real@3f800000
  00485	72 18		 jb	 SHORT $LN2@SetViewMat

; 272  : 		m_fPitch = 1;

  00487	8b 85 a8 fe ff
	ff		 mov	 eax, DWORD PTR _this$[ebp]
  0048d	f3 0f 10 05 00
	00 00 00	 movss	 xmm0, DWORD PTR __real@3f800000
  00495	f3 0f 11 80 2c
	01 00 00	 movss	 DWORD PTR [eax+300], xmm0
  0049d	eb 2d		 jmp	 SHORT $LN4@SetViewMat
$LN2@SetViewMat:

; 273  : 	else if (m_fPitch <= -1)

  0049f	8b 85 a8 fe ff
	ff		 mov	 eax, DWORD PTR _this$[ebp]
  004a5	f3 0f 10 05 00
	00 00 00	 movss	 xmm0, DWORD PTR __real@bf800000
  004ad	0f 2f 80 2c 01
	00 00		 comiss	 xmm0, DWORD PTR [eax+300]
  004b4	72 16		 jb	 SHORT $LN4@SetViewMat

; 274  : 		m_fPitch = -1;

  004b6	8b 85 a8 fe ff
	ff		 mov	 eax, DWORD PTR _this$[ebp]
  004bc	f3 0f 10 05 00
	00 00 00	 movss	 xmm0, DWORD PTR __real@bf800000
  004c4	f3 0f 11 80 2c
	01 00 00	 movss	 DWORD PTR [eax+300], xmm0
$LN4@SetViewMat:

; 275  : 	m_fPitch = acosf(m_fPitch);

  004cc	8b 85 a8 fe ff
	ff		 mov	 eax, DWORD PTR _this$[ebp]
  004d2	f3 0f 10 80 2c
	01 00 00	 movss	 xmm0, DWORD PTR [eax+300]
  004da	f3 0f 11 85 00
	fe ff ff	 movss	 DWORD PTR __X$[ebp], xmm0
; File C:\Program Files (x86)\Windows Kits\10\Include\10.0.18362.0\ucrt\corecrt_math.h

; 624  :             return (float)acos(_X);

  004e2	f3 0f 5a 85 00
	fe ff ff	 cvtss2sd xmm0, DWORD PTR __X$[ebp]
  004ea	51		 push	 ecx
  004eb	51		 push	 ecx
  004ec	f2 0f 11 04 24	 movsd	 QWORD PTR [esp], xmm0
  004f1	e8 00 00 00 00	 call	 _acos
  004f6	59		 pop	 ecx
  004f7	59		 pop	 ecx
; File D:\Metin2 Server Files\mainline\SRC_2014\Metin2Client\EterLib\Camera.cpp

; 275  : 	m_fPitch = acosf(m_fPitch);

  004f8	8b 85 a8 fe ff
	ff		 mov	 eax, DWORD PTR _this$[ebp]
  004fe	d9 98 2c 01 00
	00		 fstp	 DWORD PTR [eax+300]

; 276  : 	m_fPitch *= (180.0f / D3DX_PI);

  00504	8b 85 a8 fe ff
	ff		 mov	 eax, DWORD PTR _this$[ebp]
  0050a	f3 0f 10 80 2c
	01 00 00	 movss	 xmm0, DWORD PTR [eax+300]
  00512	f3 0f 59 05 00
	00 00 00	 mulss	 xmm0, DWORD PTR __real@42652ee0
  0051a	8b 85 a8 fe ff
	ff		 mov	 eax, DWORD PTR _this$[ebp]
  00520	f3 0f 11 80 2c
	01 00 00	 movss	 DWORD PTR [eax+300], xmm0

; 277  : 	if ( 0 < m_v3View.z )

  00528	8b 85 a8 fe ff
	ff		 mov	 eax, DWORD PTR _this$[ebp]
  0052e	f3 0f 10 40 5c	 movss	 xmm0, DWORD PTR [eax+92]
  00533	0f 2f 05 00 00
	00 00		 comiss	 xmm0, DWORD PTR __real@00000000
  0053a	76 23		 jbe	 SHORT $LN5@SetViewMat

; 278  : 		m_fPitch = -m_fPitch;

  0053c	8b 85 a8 fe ff
	ff		 mov	 eax, DWORD PTR _this$[ebp]
  00542	f3 0f 10 80 2c
	01 00 00	 movss	 xmm0, DWORD PTR [eax+300]
  0054a	0f 57 05 00 00
	00 00		 xorps	 xmm0, DWORD PTR __xmm@80000000800000008000000080000000
  00551	8b 85 a8 fe ff
	ff		 mov	 eax, DWORD PTR _this$[ebp]
  00557	f3 0f 11 80 2c
	01 00 00	 movss	 DWORD PTR [eax+300], xmm0
$LN5@SetViewMat:

; 279  : 
; 280  : 	D3DXMatrixLookAtRH(&m_matView, &m_v3Eye, &m_v3Target, &m_v3Up);

  0055f	8b 85 a8 fe ff
	ff		 mov	 eax, DWORD PTR _this$[ebp]
  00565	83 c0 48	 add	 eax, 72			; 00000048H
  00568	50		 push	 eax
  00569	8b 85 a8 fe ff
	ff		 mov	 eax, DWORD PTR _this$[ebp]
  0056f	83 c0 3c	 add	 eax, 60			; 0000003cH
  00572	50		 push	 eax
  00573	8b 85 a8 fe ff
	ff		 mov	 eax, DWORD PTR _this$[ebp]
  00579	83 c0 30	 add	 eax, 48			; 00000030H
  0057c	50		 push	 eax
  0057d	8b 85 a8 fe ff
	ff		 mov	 eax, DWORD PTR _this$[ebp]
  00583	83 c0 6c	 add	 eax, 108		; 0000006cH
  00586	50		 push	 eax
  00587	e8 00 00 00 00	 call	 _D3DXMatrixLookAtRH@16

; 281  : 
; 282  : 	float fDeterminantD3DMatView = D3DXMatrixfDeterminant(&m_matView);

  0058c	8b 85 a8 fe ff
	ff		 mov	 eax, DWORD PTR _this$[ebp]
  00592	83 c0 6c	 add	 eax, 108		; 0000006cH
  00595	50		 push	 eax
  00596	e8 00 00 00 00	 call	 _D3DXMatrixfDeterminant@4
  0059b	d9 9d fc fd ff
	ff		 fstp	 DWORD PTR _fDeterminantD3DMatView$[ebp]

; 283  :     D3DXMatrixInverse(&m_matInverseView, &fDeterminantD3DMatView, &m_matView);

  005a1	8b 85 a8 fe ff
	ff		 mov	 eax, DWORD PTR _this$[ebp]
  005a7	83 c0 6c	 add	 eax, 108		; 0000006cH
  005aa	50		 push	 eax
  005ab	8d 85 fc fd ff
	ff		 lea	 eax, DWORD PTR _fDeterminantD3DMatView$[ebp]
  005b1	50		 push	 eax
  005b2	8b 85 a8 fe ff
	ff		 mov	 eax, DWORD PTR _this$[ebp]
  005b8	05 ac 00 00 00	 add	 eax, 172		; 000000acH
  005bd	50		 push	 eax
  005be	e8 00 00 00 00	 call	 _D3DXMatrixInverse@12

; 284  : 
; 285  : 	m_matBillboard = m_matInverseView;

  005c3	8b b5 a8 fe ff
	ff		 mov	 esi, DWORD PTR _this$[ebp]
  005c9	81 c6 ac 00 00
	00		 add	 esi, 172		; 000000acH
  005cf	8b bd a8 fe ff
	ff		 mov	 edi, DWORD PTR _this$[ebp]
  005d5	81 c7 ec 00 00
	00		 add	 edi, 236		; 000000ecH
  005db	6a 10		 push	 16			; 00000010H
  005dd	59		 pop	 ecx
  005de	f3 a5		 rep movsd

; 286  :     m_matBillboard._41 = 0.0f;

  005e0	8b 85 a8 fe ff
	ff		 mov	 eax, DWORD PTR _this$[ebp]
  005e6	0f 57 c0	 xorps	 xmm0, xmm0
  005e9	f3 0f 11 80 1c
	01 00 00	 movss	 DWORD PTR [eax+284], xmm0

; 287  :     m_matBillboard._42 = 0.0f;

  005f1	8b 85 a8 fe ff
	ff		 mov	 eax, DWORD PTR _this$[ebp]
  005f7	0f 57 c0	 xorps	 xmm0, xmm0
  005fa	f3 0f 11 80 20
	01 00 00	 movss	 DWORD PTR [eax+288], xmm0

; 288  :     m_matBillboard._43 = 0.0f;

  00602	8b 85 a8 fe ff
	ff		 mov	 eax, DWORD PTR _this$[ebp]
  00608	0f 57 c0	 xorps	 xmm0, xmm0
  0060b	f3 0f 11 80 24
	01 00 00	 movss	 DWORD PTR [eax+292], xmm0

; 289  : 
; 290  : 	m_ViewRay.SetStartPoint(m_v3Target);

  00613	8b b5 a8 fe ff
	ff		 mov	 esi, DWORD PTR _this$[ebp]
  00619	83 c6 3c	 add	 esi, 60			; 0000003cH
; File D:\Metin2 Server Files\mainline\SRC_2014\Metin2Client\EterLib\Ray.h

; 22   : 			m_v3Start = v3Start;

  0061c	8b bd a8 fe ff
	ff		 mov	 edi, DWORD PTR _this$[ebp]
  00622	81 c7 28 02 00
	00		 add	 edi, 552		; 00000228H
  00628	a5		 movsd
  00629	a5		 movsd
  0062a	a5		 movsd
; File D:\Metin2 Server Files\mainline\SRC_2014\Metin2Client\EterLib\Camera.cpp

; 291  : 	m_ViewRay.SetDirection(v3CenterRay, m_fDistance);

  0062b	8b 85 a8 fe ff
	ff		 mov	 eax, DWORD PTR _this$[ebp]
  00631	51		 push	 ecx
  00632	f3 0f 10 80 34
	01 00 00	 movss	 xmm0, DWORD PTR [eax+308]
  0063a	f3 0f 11 04 24	 movss	 DWORD PTR [esp], xmm0
  0063f	8d 45 f0	 lea	 eax, DWORD PTR _v3CenterRay$[ebp]
  00642	50		 push	 eax
  00643	8b 8d a8 fe ff
	ff		 mov	 ecx, DWORD PTR _this$[ebp]
  00649	81 c1 28 02 00
	00		 add	 ecx, 552		; 00000228H
  0064f	e8 00 00 00 00	 call	 ?SetDirection@CRay@@QAEXABUD3DXVECTOR3@@M@Z ; CRay::SetDirection

; 292  : 
; 293  : 	m_kCameraBottomToTerrainRay.SetStartPoint(m_v3Eye);

  00654	8b b5 a8 fe ff
	ff		 mov	 esi, DWORD PTR _this$[ebp]
  0065a	83 c6 30	 add	 esi, 48			; 00000030H
; File D:\Metin2 Server Files\mainline\SRC_2014\Metin2Client\EterLib\Ray.h

; 22   : 			m_v3Start = v3Start;

  0065d	8b bd a8 fe ff
	ff		 mov	 edi, DWORD PTR _this$[ebp]
  00663	81 c7 38 01 00
	00		 add	 edi, 312		; 00000138H
  00669	a5		 movsd
  0066a	a5		 movsd
  0066b	a5		 movsd
; File D:\Metin2 Server Files\mainline\SRC_2014\Metin2Client\EterLib\Camera.cpp

; 294  : 	m_kCameraFrontToTerrainRay.SetStartPoint(m_v3Eye);

  0066c	8b b5 a8 fe ff
	ff		 mov	 esi, DWORD PTR _this$[ebp]
  00672	83 c6 30	 add	 esi, 48			; 00000030H
; File D:\Metin2 Server Files\mainline\SRC_2014\Metin2Client\EterLib\Ray.h

; 22   : 			m_v3Start = v3Start;

  00675	8b bd a8 fe ff
	ff		 mov	 edi, DWORD PTR _this$[ebp]
  0067b	81 c7 60 01 00
	00		 add	 edi, 352		; 00000160H
  00681	a5		 movsd
  00682	a5		 movsd
  00683	a5		 movsd
; File D:\Metin2 Server Files\mainline\SRC_2014\Metin2Client\EterLib\Camera.cpp

; 295  : 	m_kCameraBackToTerrainRay.SetStartPoint(m_v3Eye);

  00684	8b b5 a8 fe ff
	ff		 mov	 esi, DWORD PTR _this$[ebp]
  0068a	83 c6 30	 add	 esi, 48			; 00000030H
; File D:\Metin2 Server Files\mainline\SRC_2014\Metin2Client\EterLib\Ray.h

; 22   : 			m_v3Start = v3Start;

  0068d	8b bd a8 fe ff
	ff		 mov	 edi, DWORD PTR _this$[ebp]
  00693	81 c7 88 01 00
	00		 add	 edi, 392		; 00000188H
  00699	a5		 movsd
  0069a	a5		 movsd
  0069b	a5		 movsd
; File D:\Metin2 Server Files\mainline\SRC_2014\Metin2Client\EterLib\Camera.cpp

; 296  : 	m_kCameraLeftToTerrainRay.SetStartPoint(m_v3Eye);

  0069c	8b b5 a8 fe ff
	ff		 mov	 esi, DWORD PTR _this$[ebp]
  006a2	83 c6 30	 add	 esi, 48			; 00000030H
; File D:\Metin2 Server Files\mainline\SRC_2014\Metin2Client\EterLib\Ray.h

; 22   : 			m_v3Start = v3Start;

  006a5	8b bd a8 fe ff
	ff		 mov	 edi, DWORD PTR _this$[ebp]
  006ab	81 c7 b0 01 00
	00		 add	 edi, 432		; 000001b0H
  006b1	a5		 movsd
  006b2	a5		 movsd
  006b3	a5		 movsd
; File D:\Metin2 Server Files\mainline\SRC_2014\Metin2Client\EterLib\Camera.cpp

; 297  : 	m_kCameraRightToTerrainRay.SetStartPoint(m_v3Eye);

  006b4	8b b5 a8 fe ff
	ff		 mov	 esi, DWORD PTR _this$[ebp]
  006ba	83 c6 30	 add	 esi, 48			; 00000030H
; File D:\Metin2 Server Files\mainline\SRC_2014\Metin2Client\EterLib\Ray.h

; 22   : 			m_v3Start = v3Start;

  006bd	8b bd a8 fe ff
	ff		 mov	 edi, DWORD PTR _this$[ebp]
  006c3	81 c7 d8 01 00
	00		 add	 edi, 472		; 000001d8H
  006c9	a5		 movsd
  006ca	a5		 movsd
  006cb	a5		 movsd
; File D:\Metin2 Server Files\mainline\SRC_2014\Metin2Client\EterLib\Camera.cpp

; 298  : 	m_kTargetToCameraBottomRay.SetStartPoint(m_v3Target);

  006cc	8b b5 a8 fe ff
	ff		 mov	 esi, DWORD PTR _this$[ebp]
  006d2	83 c6 3c	 add	 esi, 60			; 0000003cH
; File D:\Metin2 Server Files\mainline\SRC_2014\Metin2Client\EterLib\Ray.h

; 22   : 			m_v3Start = v3Start;

  006d5	8b bd a8 fe ff
	ff		 mov	 edi, DWORD PTR _this$[ebp]
  006db	81 c7 00 02 00
	00		 add	 edi, 512		; 00000200H
  006e1	a5		 movsd
  006e2	a5		 movsd
  006e3	a5		 movsd
; File D:\Metin2 Server Files\mainline\SRC_2014\Metin2Client\EterLib\Camera.cpp

; 300  : 	m_kCameraBottomToTerrainRay.SetDirection(-m_v3Up, 2.0f * m_fTerrainCollisionRadius);

  006e4	8b 85 a8 fe ff
	ff		 mov	 eax, DWORD PTR _this$[ebp]
  006ea	83 c0 48	 add	 eax, 72			; 00000048H
  006ed	89 85 80 fe ff
	ff		 mov	 DWORD PTR _this$[ebp], eax
; File D:\Metin2 Server Files\mainline\SRC_2014\M2Data\include\d3dx8math.inl

; 249  :     return D3DXVECTOR3(-x, -y, -z);

  006f3	8b 85 80 fe ff
	ff		 mov	 eax, DWORD PTR _this$[ebp]
  006f9	f3 0f 10 00	 movss	 xmm0, DWORD PTR [eax]
  006fd	0f 57 05 00 00
	00 00		 xorps	 xmm0, DWORD PTR __xmm@80000000800000008000000080000000
  00704	f3 0f 11 85 f8
	fd ff ff	 movss	 DWORD PTR _fx$[ebp], xmm0
  0070c	8b 85 80 fe ff
	ff		 mov	 eax, DWORD PTR _this$[ebp]
  00712	f3 0f 10 40 04	 movss	 xmm0, DWORD PTR [eax+4]
  00717	0f 57 05 00 00
	00 00		 xorps	 xmm0, DWORD PTR __xmm@80000000800000008000000080000000
  0071e	f3 0f 11 85 f4
	fd ff ff	 movss	 DWORD PTR _fy$[ebp], xmm0
  00726	8b 85 80 fe ff
	ff		 mov	 eax, DWORD PTR _this$[ebp]
  0072c	f3 0f 10 40 08	 movss	 xmm0, DWORD PTR [eax+8]
  00731	0f 57 05 00 00
	00 00		 xorps	 xmm0, DWORD PTR __xmm@80000000800000008000000080000000
  00738	f3 0f 11 85 f0
	fd ff ff	 movss	 DWORD PTR _fz$[ebp], xmm0

; 180  :     x = fx;

  00740	f3 0f 10 85 f8
	fd ff ff	 movss	 xmm0, DWORD PTR _fx$[ebp]
  00748	f3 0f 11 85 dc
	fe ff ff	 movss	 DWORD PTR $T10[ebp], xmm0

; 181  :     y = fy;

  00750	f3 0f 10 85 f4
	fd ff ff	 movss	 xmm0, DWORD PTR _fy$[ebp]
  00758	f3 0f 11 85 e0
	fe ff ff	 movss	 DWORD PTR $T10[ebp+4], xmm0

; 182  :     z = fz;

  00760	f3 0f 10 85 f0
	fd ff ff	 movss	 xmm0, DWORD PTR _fz$[ebp]
  00768	f3 0f 11 85 e4
	fe ff ff	 movss	 DWORD PTR $T10[ebp+8], xmm0
; File D:\Metin2 Server Files\mainline\SRC_2014\Metin2Client\EterLib\Camera.cpp

; 300  : 	m_kCameraBottomToTerrainRay.SetDirection(-m_v3Up, 2.0f * m_fTerrainCollisionRadius);

  00770	8b 85 a8 fe ff
	ff		 mov	 eax, DWORD PTR _this$[ebp]
  00776	f3 0f 10 05 00
	00 00 00	 movss	 xmm0, DWORD PTR __real@40000000
  0077e	f3 0f 59 80 f0
	02 00 00	 mulss	 xmm0, DWORD PTR [eax+752]
  00786	51		 push	 ecx
  00787	f3 0f 11 04 24	 movss	 DWORD PTR [esp], xmm0
  0078c	8d 85 dc fe ff
	ff		 lea	 eax, DWORD PTR $T10[ebp]
  00792	50		 push	 eax
  00793	8b 8d a8 fe ff
	ff		 mov	 ecx, DWORD PTR _this$[ebp]
  00799	81 c1 38 01 00
	00		 add	 ecx, 312		; 00000138H
  0079f	e8 00 00 00 00	 call	 ?SetDirection@CRay@@QAEXABUD3DXVECTOR3@@M@Z ; CRay::SetDirection

; 301  : 	m_kCameraFrontToTerrainRay.SetDirection(m_v3View, 4.0f * m_fTerrainCollisionRadius);

  007a4	8b 85 a8 fe ff
	ff		 mov	 eax, DWORD PTR _this$[ebp]
  007aa	f3 0f 10 05 00
	00 00 00	 movss	 xmm0, DWORD PTR __real@40800000
  007b2	f3 0f 59 80 f0
	02 00 00	 mulss	 xmm0, DWORD PTR [eax+752]
  007ba	51		 push	 ecx
  007bb	f3 0f 11 04 24	 movss	 DWORD PTR [esp], xmm0
  007c0	8b 85 a8 fe ff
	ff		 mov	 eax, DWORD PTR _this$[ebp]
  007c6	83 c0 54	 add	 eax, 84			; 00000054H
  007c9	50		 push	 eax
  007ca	8b 8d a8 fe ff
	ff		 mov	 ecx, DWORD PTR _this$[ebp]
  007d0	81 c1 60 01 00
	00		 add	 ecx, 352		; 00000160H
  007d6	e8 00 00 00 00	 call	 ?SetDirection@CRay@@QAEXABUD3DXVECTOR3@@M@Z ; CRay::SetDirection

; 302  : 	m_kCameraBackToTerrainRay.SetDirection(-m_v3View, m_fTerrainCollisionRadius);

  007db	8b 85 a8 fe ff
	ff		 mov	 eax, DWORD PTR _this$[ebp]
  007e1	83 c0 54	 add	 eax, 84			; 00000054H
  007e4	89 85 7c fe ff
	ff		 mov	 DWORD PTR _this$[ebp], eax
; File D:\Metin2 Server Files\mainline\SRC_2014\M2Data\include\d3dx8math.inl

; 249  :     return D3DXVECTOR3(-x, -y, -z);

  007ea	8b 85 7c fe ff
	ff		 mov	 eax, DWORD PTR _this$[ebp]
  007f0	f3 0f 10 00	 movss	 xmm0, DWORD PTR [eax]
  007f4	0f 57 05 00 00
	00 00		 xorps	 xmm0, DWORD PTR __xmm@80000000800000008000000080000000
  007fb	f3 0f 11 85 ec
	fd ff ff	 movss	 DWORD PTR _fx$[ebp], xmm0
  00803	8b 85 7c fe ff
	ff		 mov	 eax, DWORD PTR _this$[ebp]
  00809	f3 0f 10 40 04	 movss	 xmm0, DWORD PTR [eax+4]
  0080e	0f 57 05 00 00
	00 00		 xorps	 xmm0, DWORD PTR __xmm@80000000800000008000000080000000
  00815	f3 0f 11 85 c4
	fc ff ff	 movss	 DWORD PTR _fy$[ebp], xmm0
  0081d	8b 85 7c fe ff
	ff		 mov	 eax, DWORD PTR _this$[ebp]
  00823	f3 0f 10 40 08	 movss	 xmm0, DWORD PTR [eax+8]
  00828	0f 57 05 00 00
	00 00		 xorps	 xmm0, DWORD PTR __xmm@80000000800000008000000080000000
  0082f	f3 0f 11 85 c8
	fc ff ff	 movss	 DWORD PTR _fz$[ebp], xmm0

; 180  :     x = fx;

  00837	f3 0f 10 85 ec
	fd ff ff	 movss	 xmm0, DWORD PTR _fx$[ebp]
  0083f	f3 0f 11 85 e8
	fe ff ff	 movss	 DWORD PTR $T11[ebp], xmm0

; 181  :     y = fy;

  00847	f3 0f 10 85 c4
	fc ff ff	 movss	 xmm0, DWORD PTR _fy$[ebp]
  0084f	f3 0f 11 85 ec
	fe ff ff	 movss	 DWORD PTR $T11[ebp+4], xmm0

; 182  :     z = fz;

  00857	f3 0f 10 85 c8
	fc ff ff	 movss	 xmm0, DWORD PTR _fz$[ebp]
  0085f	f3 0f 11 85 f0
	fe ff ff	 movss	 DWORD PTR $T11[ebp+8], xmm0
; File D:\Metin2 Server Files\mainline\SRC_2014\Metin2Client\EterLib\Camera.cpp

; 302  : 	m_kCameraBackToTerrainRay.SetDirection(-m_v3View, m_fTerrainCollisionRadius);

  00867	8b 85 a8 fe ff
	ff		 mov	 eax, DWORD PTR _this$[ebp]
  0086d	51		 push	 ecx
  0086e	f3 0f 10 80 f0
	02 00 00	 movss	 xmm0, DWORD PTR [eax+752]
  00876	f3 0f 11 04 24	 movss	 DWORD PTR [esp], xmm0
  0087b	8d 85 e8 fe ff
	ff		 lea	 eax, DWORD PTR $T11[ebp]
  00881	50		 push	 eax
  00882	8b 8d a8 fe ff
	ff		 mov	 ecx, DWORD PTR _this$[ebp]
  00888	81 c1 88 01 00
	00		 add	 ecx, 392		; 00000188H
  0088e	e8 00 00 00 00	 call	 ?SetDirection@CRay@@QAEXABUD3DXVECTOR3@@M@Z ; CRay::SetDirection

; 303  : 	m_kCameraLeftToTerrainRay.SetDirection(-m_v3Cross, 3.0f * m_fTerrainCollisionRadius);

  00893	8b 85 a8 fe ff
	ff		 mov	 eax, DWORD PTR _this$[ebp]
  00899	83 c0 60	 add	 eax, 96			; 00000060H
  0089c	89 85 78 fe ff
	ff		 mov	 DWORD PTR _this$[ebp], eax
; File D:\Metin2 Server Files\mainline\SRC_2014\M2Data\include\d3dx8math.inl

; 249  :     return D3DXVECTOR3(-x, -y, -z);

  008a2	8b 85 78 fe ff
	ff		 mov	 eax, DWORD PTR _this$[ebp]
  008a8	f3 0f 10 00	 movss	 xmm0, DWORD PTR [eax]
  008ac	0f 57 05 00 00
	00 00		 xorps	 xmm0, DWORD PTR __xmm@80000000800000008000000080000000
  008b3	f3 0f 11 85 cc
	fc ff ff	 movss	 DWORD PTR _fx$[ebp], xmm0
  008bb	8b 85 78 fe ff
	ff		 mov	 eax, DWORD PTR _this$[ebp]
  008c1	f3 0f 10 40 04	 movss	 xmm0, DWORD PTR [eax+4]
  008c6	0f 57 05 00 00
	00 00		 xorps	 xmm0, DWORD PTR __xmm@80000000800000008000000080000000
  008cd	f3 0f 11 85 d0
	fc ff ff	 movss	 DWORD PTR _fy$[ebp], xmm0
  008d5	8b 85 78 fe ff
	ff		 mov	 eax, DWORD PTR _this$[ebp]
  008db	f3 0f 10 40 08	 movss	 xmm0, DWORD PTR [eax+8]
  008e0	0f 57 05 00 00
	00 00		 xorps	 xmm0, DWORD PTR __xmm@80000000800000008000000080000000
  008e7	f3 0f 11 85 d4
	fc ff ff	 movss	 DWORD PTR _fz$[ebp], xmm0

; 180  :     x = fx;

  008ef	f3 0f 10 85 cc
	fc ff ff	 movss	 xmm0, DWORD PTR _fx$[ebp]
  008f7	f3 0f 11 85 f4
	fe ff ff	 movss	 DWORD PTR $T12[ebp], xmm0

; 181  :     y = fy;

  008ff	f3 0f 10 85 d0
	fc ff ff	 movss	 xmm0, DWORD PTR _fy$[ebp]
  00907	f3 0f 11 85 f8
	fe ff ff	 movss	 DWORD PTR $T12[ebp+4], xmm0

; 182  :     z = fz;

  0090f	f3 0f 10 85 d4
	fc ff ff	 movss	 xmm0, DWORD PTR _fz$[ebp]
  00917	f3 0f 11 85 fc
	fe ff ff	 movss	 DWORD PTR $T12[ebp+8], xmm0
; File D:\Metin2 Server Files\mainline\SRC_2014\Metin2Client\EterLib\Camera.cpp

; 303  : 	m_kCameraLeftToTerrainRay.SetDirection(-m_v3Cross, 3.0f * m_fTerrainCollisionRadius);

  0091f	8b 85 a8 fe ff
	ff		 mov	 eax, DWORD PTR _this$[ebp]
  00925	f3 0f 10 05 00
	00 00 00	 movss	 xmm0, DWORD PTR __real@40400000
  0092d	f3 0f 59 80 f0
	02 00 00	 mulss	 xmm0, DWORD PTR [eax+752]
  00935	51		 push	 ecx
  00936	f3 0f 11 04 24	 movss	 DWORD PTR [esp], xmm0
  0093b	8d 85 f4 fe ff
	ff		 lea	 eax, DWORD PTR $T12[ebp]
  00941	50		 push	 eax
  00942	8b 8d a8 fe ff
	ff		 mov	 ecx, DWORD PTR _this$[ebp]
  00948	81 c1 b0 01 00
	00		 add	 ecx, 432		; 000001b0H
  0094e	e8 00 00 00 00	 call	 ?SetDirection@CRay@@QAEXABUD3DXVECTOR3@@M@Z ; CRay::SetDirection

; 304  : 	m_kCameraRightToTerrainRay.SetDirection(m_v3Cross, 3.0f * m_fTerrainCollisionRadius);

  00953	8b 85 a8 fe ff
	ff		 mov	 eax, DWORD PTR _this$[ebp]
  00959	f3 0f 10 05 00
	00 00 00	 movss	 xmm0, DWORD PTR __real@40400000
  00961	f3 0f 59 80 f0
	02 00 00	 mulss	 xmm0, DWORD PTR [eax+752]
  00969	51		 push	 ecx
  0096a	f3 0f 11 04 24	 movss	 DWORD PTR [esp], xmm0
  0096f	8b 85 a8 fe ff
	ff		 mov	 eax, DWORD PTR _this$[ebp]
  00975	83 c0 60	 add	 eax, 96			; 00000060H
  00978	50		 push	 eax
  00979	8b 8d a8 fe ff
	ff		 mov	 ecx, DWORD PTR _this$[ebp]
  0097f	81 c1 d8 01 00
	00		 add	 ecx, 472		; 000001d8H
  00985	e8 00 00 00 00	 call	 ?SetDirection@CRay@@QAEXABUD3DXVECTOR3@@M@Z ; CRay::SetDirection

; 305  : 	m_kTargetToCameraBottomRay.SetDirection(v3CenterRay - m_fTerrainCollisionRadius * m_v3Up,

  0098a	8b 85 a8 fe ff
	ff		 mov	 eax, DWORD PTR _this$[ebp]
  00990	83 c0 48	 add	 eax, 72			; 00000048H
  00993	89 85 74 fe ff
	ff		 mov	 DWORD PTR _v$[ebp], eax
  00999	8b 85 a8 fe ff
	ff		 mov	 eax, DWORD PTR _this$[ebp]
  0099f	f3 0f 10 80 f0
	02 00 00	 movss	 xmm0, DWORD PTR [eax+752]
  009a7	f3 0f 11 85 70
	fe ff ff	 movss	 DWORD PTR _f$[ebp], xmm0
; File D:\Metin2 Server Files\mainline\SRC_2014\M2Data\include\d3dx8math.inl

; 283  :     return D3DXVECTOR3(f * v.x, f * v.y, f * v.z);

  009af	8b 85 74 fe ff
	ff		 mov	 eax, DWORD PTR _v$[ebp]
  009b5	f3 0f 10 85 70
	fe ff ff	 movss	 xmm0, DWORD PTR _f$[ebp]
  009bd	f3 0f 59 00	 mulss	 xmm0, DWORD PTR [eax]
  009c1	f3 0f 11 85 d8
	fc ff ff	 movss	 DWORD PTR _fx$[ebp], xmm0
  009c9	8b 85 74 fe ff
	ff		 mov	 eax, DWORD PTR _v$[ebp]
  009cf	f3 0f 10 85 70
	fe ff ff	 movss	 xmm0, DWORD PTR _f$[ebp]
  009d7	f3 0f 59 40 04	 mulss	 xmm0, DWORD PTR [eax+4]
  009dc	f3 0f 11 85 dc
	fc ff ff	 movss	 DWORD PTR _fy$[ebp], xmm0
  009e4	8b 85 74 fe ff
	ff		 mov	 eax, DWORD PTR _v$[ebp]
  009ea	f3 0f 10 85 70
	fe ff ff	 movss	 xmm0, DWORD PTR _f$[ebp]
  009f2	f3 0f 59 40 08	 mulss	 xmm0, DWORD PTR [eax+8]
  009f7	f3 0f 11 85 e0
	fc ff ff	 movss	 DWORD PTR _fz$[ebp], xmm0

; 180  :     x = fx;

  009ff	f3 0f 10 85 d8
	fc ff ff	 movss	 xmm0, DWORD PTR _fx$[ebp]
  00a07	f3 0f 11 85 3c
	ff ff ff	 movss	 DWORD PTR $T18[ebp], xmm0

; 181  :     y = fy;

  00a0f	f3 0f 10 85 dc
	fc ff ff	 movss	 xmm0, DWORD PTR _fy$[ebp]
  00a17	f3 0f 11 85 40
	ff ff ff	 movss	 DWORD PTR $T18[ebp+4], xmm0

; 182  :     z = fz;

  00a1f	f3 0f 10 85 e0
	fc ff ff	 movss	 xmm0, DWORD PTR _fz$[ebp]
  00a27	f3 0f 11 85 44
	ff ff ff	 movss	 DWORD PTR $T18[ebp+8], xmm0

; 263  :     return D3DXVECTOR3(x - v.x, y - v.y, z - v.z);

  00a2f	f3 0f 10 45 f0	 movss	 xmm0, DWORD PTR _v3CenterRay$[ebp]
  00a34	f3 0f 5c 85 3c
	ff ff ff	 subss	 xmm0, DWORD PTR $T18[ebp]
  00a3c	f3 0f 11 85 e4
	fc ff ff	 movss	 DWORD PTR _fx$[ebp], xmm0
  00a44	f3 0f 10 45 f4	 movss	 xmm0, DWORD PTR _v3CenterRay$[ebp+4]
  00a49	f3 0f 5c 85 40
	ff ff ff	 subss	 xmm0, DWORD PTR $T18[ebp+4]
  00a51	f3 0f 11 85 e8
	fc ff ff	 movss	 DWORD PTR _fy$[ebp], xmm0
  00a59	f3 0f 10 45 f8	 movss	 xmm0, DWORD PTR _v3CenterRay$[ebp+8]
  00a5e	f3 0f 5c 85 44
	ff ff ff	 subss	 xmm0, DWORD PTR $T18[ebp+8]
  00a66	f3 0f 11 85 ec
	fc ff ff	 movss	 DWORD PTR _fz$[ebp], xmm0

; 180  :     x = fx;

  00a6e	f3 0f 10 85 e4
	fc ff ff	 movss	 xmm0, DWORD PTR _fx$[ebp]
  00a76	f3 0f 11 45 e4	 movss	 DWORD PTR $T32[ebp], xmm0

; 181  :     y = fy;

  00a7b	f3 0f 10 85 e8
	fc ff ff	 movss	 xmm0, DWORD PTR _fy$[ebp]
  00a83	f3 0f 11 45 e8	 movss	 DWORD PTR $T32[ebp+4], xmm0

; 182  :     z = fz;

  00a88	f3 0f 10 85 ec
	fc ff ff	 movss	 xmm0, DWORD PTR _fz$[ebp]
  00a90	f3 0f 11 45 ec	 movss	 DWORD PTR $T32[ebp+8], xmm0

; 1239 :     return sqrtf(pV->x * pV->x + pV->y * pV->y + pV->z * pV->z);

  00a95	f3 0f 10 45 ec	 movss	 xmm0, DWORD PTR $T32[ebp+8]
  00a9a	f3 0f 59 45 ec	 mulss	 xmm0, DWORD PTR $T32[ebp+8]
  00a9f	f3 0f 10 4d e8	 movss	 xmm1, DWORD PTR $T32[ebp+4]
  00aa4	f3 0f 59 4d e8	 mulss	 xmm1, DWORD PTR $T32[ebp+4]
  00aa9	f3 0f 10 55 e4	 movss	 xmm2, DWORD PTR $T32[ebp]
  00aae	f3 0f 59 55 e4	 mulss	 xmm2, DWORD PTR $T32[ebp]
  00ab3	f3 0f 58 d1	 addss	 xmm2, xmm1
  00ab7	f3 0f 58 d0	 addss	 xmm2, xmm0
  00abb	f3 0f 11 95 f0
	fc ff ff	 movss	 DWORD PTR __X$[ebp], xmm2
; File C:\Program Files (x86)\Windows Kits\10\Include\10.0.18362.0\ucrt\corecrt_math.h

; 760  :             return (float)sqrt(_X);

  00ac3	f3 0f 5a 85 f0
	fc ff ff	 cvtss2sd xmm0, DWORD PTR __X$[ebp]
  00acb	51		 push	 ecx
  00acc	51		 push	 ecx
  00acd	f2 0f 11 04 24	 movsd	 QWORD PTR [esp], xmm0
  00ad2	e8 00 00 00 00	 call	 _sqrt
  00ad7	59		 pop	 ecx
  00ad8	59		 pop	 ecx
; File D:\Metin2 Server Files\mainline\SRC_2014\M2Data\include\d3dx8math.inl

; 1239 :     return sqrtf(pV->x * pV->x + pV->y * pV->y + pV->z * pV->z);

  00ad9	d9 9d 10 fd ff
	ff		 fstp	 DWORD PTR $T1[ebp]
; File D:\Metin2 Server Files\mainline\SRC_2014\Metin2Client\EterLib\Camera.cpp

; 305  : 	m_kTargetToCameraBottomRay.SetDirection(v3CenterRay - m_fTerrainCollisionRadius * m_v3Up,

  00adf	8b 85 a8 fe ff
	ff		 mov	 eax, DWORD PTR _this$[ebp]
  00ae5	83 c0 48	 add	 eax, 72			; 00000048H
  00ae8	89 85 6c fe ff
	ff		 mov	 DWORD PTR _v$[ebp], eax
  00aee	8b 85 a8 fe ff
	ff		 mov	 eax, DWORD PTR _this$[ebp]
  00af4	f3 0f 10 80 f0
	02 00 00	 movss	 xmm0, DWORD PTR [eax+752]
  00afc	f3 0f 11 85 68
	fe ff ff	 movss	 DWORD PTR _f$[ebp], xmm0
; File D:\Metin2 Server Files\mainline\SRC_2014\M2Data\include\d3dx8math.inl

; 283  :     return D3DXVECTOR3(f * v.x, f * v.y, f * v.z);

  00b04	8b 85 6c fe ff
	ff		 mov	 eax, DWORD PTR _v$[ebp]
  00b0a	f3 0f 10 85 68
	fe ff ff	 movss	 xmm0, DWORD PTR _f$[ebp]
  00b12	f3 0f 59 00	 mulss	 xmm0, DWORD PTR [eax]
  00b16	f3 0f 11 85 f4
	fc ff ff	 movss	 DWORD PTR _fx$[ebp], xmm0
  00b1e	8b 85 6c fe ff
	ff		 mov	 eax, DWORD PTR _v$[ebp]
  00b24	f3 0f 10 85 68
	fe ff ff	 movss	 xmm0, DWORD PTR _f$[ebp]
  00b2c	f3 0f 59 40 04	 mulss	 xmm0, DWORD PTR [eax+4]
  00b31	f3 0f 11 85 f8
	fc ff ff	 movss	 DWORD PTR _fy$[ebp], xmm0
  00b39	8b 85 6c fe ff
	ff		 mov	 eax, DWORD PTR _v$[ebp]
  00b3f	f3 0f 10 85 68
	fe ff ff	 movss	 xmm0, DWORD PTR _f$[ebp]
  00b47	f3 0f 59 40 08	 mulss	 xmm0, DWORD PTR [eax+8]
  00b4c	f3 0f 11 85 fc
	fc ff ff	 movss	 DWORD PTR _fz$[ebp], xmm0

; 180  :     x = fx;

  00b54	f3 0f 10 85 f4
	fc ff ff	 movss	 xmm0, DWORD PTR _fx$[ebp]
  00b5c	f3 0f 11 85 48
	ff ff ff	 movss	 DWORD PTR $T19[ebp], xmm0

; 181  :     y = fy;

  00b64	f3 0f 10 85 f8
	fc ff ff	 movss	 xmm0, DWORD PTR _fy$[ebp]
  00b6c	f3 0f 11 85 4c
	ff ff ff	 movss	 DWORD PTR $T19[ebp+4], xmm0

; 182  :     z = fz;

  00b74	f3 0f 10 85 fc
	fc ff ff	 movss	 xmm0, DWORD PTR _fz$[ebp]
  00b7c	f3 0f 11 85 50
	ff ff ff	 movss	 DWORD PTR $T19[ebp+8], xmm0

; 263  :     return D3DXVECTOR3(x - v.x, y - v.y, z - v.z);

  00b84	f3 0f 10 45 f0	 movss	 xmm0, DWORD PTR _v3CenterRay$[ebp]
  00b89	f3 0f 5c 85 48
	ff ff ff	 subss	 xmm0, DWORD PTR $T19[ebp]
  00b91	f3 0f 11 85 00
	fd ff ff	 movss	 DWORD PTR _fx$[ebp], xmm0
  00b99	f3 0f 10 45 f4	 movss	 xmm0, DWORD PTR _v3CenterRay$[ebp+4]
  00b9e	f3 0f 5c 85 4c
	ff ff ff	 subss	 xmm0, DWORD PTR $T19[ebp+4]
  00ba6	f3 0f 11 85 04
	fd ff ff	 movss	 DWORD PTR _fy$[ebp], xmm0
  00bae	f3 0f 10 45 f8	 movss	 xmm0, DWORD PTR _v3CenterRay$[ebp+8]
  00bb3	f3 0f 5c 85 50
	ff ff ff	 subss	 xmm0, DWORD PTR $T19[ebp+8]
  00bbb	f3 0f 11 85 0c
	fd ff ff	 movss	 DWORD PTR _fz$[ebp], xmm0

; 180  :     x = fx;

  00bc3	f3 0f 10 85 00
	fd ff ff	 movss	 xmm0, DWORD PTR _fx$[ebp]
  00bcb	f3 0f 11 85 00
	ff ff ff	 movss	 DWORD PTR $T13[ebp], xmm0

; 181  :     y = fy;

  00bd3	f3 0f 10 85 04
	fd ff ff	 movss	 xmm0, DWORD PTR _fy$[ebp]
  00bdb	f3 0f 11 85 04
	ff ff ff	 movss	 DWORD PTR $T13[ebp+4], xmm0

; 182  :     z = fz;

  00be3	f3 0f 10 85 0c
	fd ff ff	 movss	 xmm0, DWORD PTR _fz$[ebp]
  00beb	f3 0f 11 85 08
	ff ff ff	 movss	 DWORD PTR $T13[ebp+8], xmm0
; File D:\Metin2 Server Files\mainline\SRC_2014\Metin2Client\EterLib\Camera.cpp

; 305  : 	m_kTargetToCameraBottomRay.SetDirection(v3CenterRay - m_fTerrainCollisionRadius * m_v3Up,

  00bf3	51		 push	 ecx
  00bf4	f3 0f 10 85 10
	fd ff ff	 movss	 xmm0, DWORD PTR $T1[ebp]
  00bfc	f3 0f 11 04 24	 movss	 DWORD PTR [esp], xmm0
  00c01	8d 85 00 ff ff
	ff		 lea	 eax, DWORD PTR $T13[ebp]
  00c07	50		 push	 eax
  00c08	8b 8d a8 fe ff
	ff		 mov	 ecx, DWORD PTR _this$[ebp]
  00c0e	81 c1 00 02 00
	00		 add	 ecx, 512		; 00000200H
  00c14	e8 00 00 00 00	 call	 ?SetDirection@CRay@@QAEXABUD3DXVECTOR3@@M@Z ; CRay::SetDirection

; 306  : 		D3DXVec3Length(&(v3CenterRay - m_fTerrainCollisionRadius * m_v3Up)));
; 307  : 
; 308  : 	m_kLeftObjectCollisionRay.SetStartPoint(m_v3Target);

  00c19	8b b5 a8 fe ff
	ff		 mov	 esi, DWORD PTR _this$[ebp]
  00c1f	83 c6 3c	 add	 esi, 60			; 0000003cH
; File D:\Metin2 Server Files\mainline\SRC_2014\Metin2Client\EterLib\Ray.h

; 22   : 			m_v3Start = v3Start;

  00c22	8b bd a8 fe ff
	ff		 mov	 edi, DWORD PTR _this$[ebp]
  00c28	81 c7 50 02 00
	00		 add	 edi, 592		; 00000250H
  00c2e	a5		 movsd
  00c2f	a5		 movsd
  00c30	a5		 movsd
; File D:\Metin2 Server Files\mainline\SRC_2014\Metin2Client\EterLib\Camera.cpp

; 309  : 	m_kTopObjectCollisionRay.SetStartPoint(m_v3Target);

  00c31	8b b5 a8 fe ff
	ff		 mov	 esi, DWORD PTR _this$[ebp]
  00c37	83 c6 3c	 add	 esi, 60			; 0000003cH
; File D:\Metin2 Server Files\mainline\SRC_2014\Metin2Client\EterLib\Ray.h

; 22   : 			m_v3Start = v3Start;

  00c3a	8b bd a8 fe ff
	ff		 mov	 edi, DWORD PTR _this$[ebp]
  00c40	81 c7 78 02 00
	00		 add	 edi, 632		; 00000278H
  00c46	a5		 movsd
  00c47	a5		 movsd
  00c48	a5		 movsd
; File D:\Metin2 Server Files\mainline\SRC_2014\Metin2Client\EterLib\Camera.cpp

; 310  : 	m_kRightObjectCollisionRay.SetStartPoint(m_v3Target);

  00c49	8b b5 a8 fe ff
	ff		 mov	 esi, DWORD PTR _this$[ebp]
  00c4f	83 c6 3c	 add	 esi, 60			; 0000003cH
; File D:\Metin2 Server Files\mainline\SRC_2014\Metin2Client\EterLib\Ray.h

; 22   : 			m_v3Start = v3Start;

  00c52	8b bd a8 fe ff
	ff		 mov	 edi, DWORD PTR _this$[ebp]
  00c58	81 c7 a0 02 00
	00		 add	 edi, 672		; 000002a0H
  00c5e	a5		 movsd
  00c5f	a5		 movsd
  00c60	a5		 movsd
; File D:\Metin2 Server Files\mainline\SRC_2014\Metin2Client\EterLib\Camera.cpp

; 311  : 	m_kBottomObjectCollisionRay.SetStartPoint(m_v3Target);

  00c61	8b b5 a8 fe ff
	ff		 mov	 esi, DWORD PTR _this$[ebp]
  00c67	83 c6 3c	 add	 esi, 60			; 0000003cH
; File D:\Metin2 Server Files\mainline\SRC_2014\Metin2Client\EterLib\Ray.h

; 22   : 			m_v3Start = v3Start;

  00c6a	8b bd a8 fe ff
	ff		 mov	 edi, DWORD PTR _this$[ebp]
  00c70	81 c7 c8 02 00
	00		 add	 edi, 712		; 000002c8H
  00c76	a5		 movsd
  00c77	a5		 movsd
  00c78	a5		 movsd
; File D:\Metin2 Server Files\mainline\SRC_2014\Metin2Client\EterLib\Camera.cpp

; 313  : 	m_kLeftObjectCollisionRay.SetDirection(v3CenterRay + m_fObjectCollisionRadius * m_v3Cross,

  00c79	8b 85 a8 fe ff
	ff		 mov	 eax, DWORD PTR _this$[ebp]
  00c7f	83 c0 60	 add	 eax, 96			; 00000060H
  00c82	89 85 64 fe ff
	ff		 mov	 DWORD PTR _v$[ebp], eax
  00c88	8b 85 a8 fe ff
	ff		 mov	 eax, DWORD PTR _this$[ebp]
  00c8e	f3 0f 10 80 f4
	02 00 00	 movss	 xmm0, DWORD PTR [eax+756]
  00c96	f3 0f 11 85 28
	fe ff ff	 movss	 DWORD PTR _f$[ebp], xmm0
; File D:\Metin2 Server Files\mainline\SRC_2014\M2Data\include\d3dx8math.inl

; 283  :     return D3DXVECTOR3(f * v.x, f * v.y, f * v.z);

  00c9e	8b 85 64 fe ff
	ff		 mov	 eax, DWORD PTR _v$[ebp]
  00ca4	f3 0f 10 85 28
	fe ff ff	 movss	 xmm0, DWORD PTR _f$[ebp]
  00cac	f3 0f 59 00	 mulss	 xmm0, DWORD PTR [eax]
  00cb0	f3 0f 11 85 14
	fd ff ff	 movss	 DWORD PTR _fx$[ebp], xmm0
  00cb8	8b 85 64 fe ff
	ff		 mov	 eax, DWORD PTR _v$[ebp]
  00cbe	f3 0f 10 85 28
	fe ff ff	 movss	 xmm0, DWORD PTR _f$[ebp]
  00cc6	f3 0f 59 40 04	 mulss	 xmm0, DWORD PTR [eax+4]
  00ccb	f3 0f 11 85 18
	fd ff ff	 movss	 DWORD PTR _fy$[ebp], xmm0
  00cd3	8b 85 64 fe ff
	ff		 mov	 eax, DWORD PTR _v$[ebp]
  00cd9	f3 0f 10 85 28
	fe ff ff	 movss	 xmm0, DWORD PTR _f$[ebp]
  00ce1	f3 0f 59 40 08	 mulss	 xmm0, DWORD PTR [eax+8]
  00ce6	f3 0f 11 85 1c
	fd ff ff	 movss	 DWORD PTR _fz$[ebp], xmm0

; 180  :     x = fx;

  00cee	f3 0f 10 85 14
	fd ff ff	 movss	 xmm0, DWORD PTR _fx$[ebp]
  00cf6	f3 0f 11 45 9c	 movss	 DWORD PTR $T26[ebp], xmm0

; 181  :     y = fy;

  00cfb	f3 0f 10 85 18
	fd ff ff	 movss	 xmm0, DWORD PTR _fy$[ebp]
  00d03	f3 0f 11 45 a0	 movss	 DWORD PTR $T26[ebp+4], xmm0

; 182  :     z = fz;

  00d08	f3 0f 10 85 1c
	fd ff ff	 movss	 xmm0, DWORD PTR _fz$[ebp]
  00d10	f3 0f 11 45 a4	 movss	 DWORD PTR $T26[ebp+8], xmm0

; 257  :     return D3DXVECTOR3(x + v.x, y + v.y, z + v.z);

  00d15	f3 0f 10 45 f0	 movss	 xmm0, DWORD PTR _v3CenterRay$[ebp]
  00d1a	f3 0f 58 45 9c	 addss	 xmm0, DWORD PTR $T26[ebp]
  00d1f	f3 0f 11 85 20
	fd ff ff	 movss	 DWORD PTR _fx$[ebp], xmm0
  00d27	f3 0f 10 45 f4	 movss	 xmm0, DWORD PTR _v3CenterRay$[ebp+4]
  00d2c	f3 0f 58 45 a0	 addss	 xmm0, DWORD PTR $T26[ebp+4]
  00d31	f3 0f 11 85 24
	fd ff ff	 movss	 DWORD PTR _fy$[ebp], xmm0
  00d39	f3 0f 10 45 f8	 movss	 xmm0, DWORD PTR _v3CenterRay$[ebp+8]
  00d3e	f3 0f 58 45 a4	 addss	 xmm0, DWORD PTR $T26[ebp+8]
  00d43	f3 0f 11 85 28
	fd ff ff	 movss	 DWORD PTR _fz$[ebp], xmm0

; 180  :     x = fx;

  00d4b	f3 0f 10 85 20
	fd ff ff	 movss	 xmm0, DWORD PTR _fx$[ebp]
  00d53	f3 0f 11 45 c0	 movss	 DWORD PTR $T29[ebp], xmm0

; 181  :     y = fy;

  00d58	f3 0f 10 85 24
	fd ff ff	 movss	 xmm0, DWORD PTR _fy$[ebp]
  00d60	f3 0f 11 45 c4	 movss	 DWORD PTR $T29[ebp+4], xmm0

; 182  :     z = fz;

  00d65	f3 0f 10 85 28
	fd ff ff	 movss	 xmm0, DWORD PTR _fz$[ebp]
  00d6d	f3 0f 11 45 c8	 movss	 DWORD PTR $T29[ebp+8], xmm0

; 1239 :     return sqrtf(pV->x * pV->x + pV->y * pV->y + pV->z * pV->z);

  00d72	f3 0f 10 45 c8	 movss	 xmm0, DWORD PTR $T29[ebp+8]
  00d77	f3 0f 59 45 c8	 mulss	 xmm0, DWORD PTR $T29[ebp+8]
  00d7c	f3 0f 10 4d c4	 movss	 xmm1, DWORD PTR $T29[ebp+4]
  00d81	f3 0f 59 4d c4	 mulss	 xmm1, DWORD PTR $T29[ebp+4]
  00d86	f3 0f 10 55 c0	 movss	 xmm2, DWORD PTR $T29[ebp]
  00d8b	f3 0f 59 55 c0	 mulss	 xmm2, DWORD PTR $T29[ebp]
  00d90	f3 0f 58 d1	 addss	 xmm2, xmm1
  00d94	f3 0f 58 d0	 addss	 xmm2, xmm0
  00d98	f3 0f 11 95 2c
	fd ff ff	 movss	 DWORD PTR __X$[ebp], xmm2
; File C:\Program Files (x86)\Windows Kits\10\Include\10.0.18362.0\ucrt\corecrt_math.h

; 760  :             return (float)sqrt(_X);

  00da0	f3 0f 5a 85 2c
	fd ff ff	 cvtss2sd xmm0, DWORD PTR __X$[ebp]
  00da8	51		 push	 ecx
  00da9	51		 push	 ecx
  00daa	f2 0f 11 04 24	 movsd	 QWORD PTR [esp], xmm0
  00daf	e8 00 00 00 00	 call	 _sqrt
  00db4	59		 pop	 ecx
  00db5	59		 pop	 ecx
; File D:\Metin2 Server Files\mainline\SRC_2014\M2Data\include\d3dx8math.inl

; 1239 :     return sqrtf(pV->x * pV->x + pV->y * pV->y + pV->z * pV->z);

  00db6	d9 9d d8 fd ff
	ff		 fstp	 DWORD PTR $T5[ebp]
; File D:\Metin2 Server Files\mainline\SRC_2014\Metin2Client\EterLib\Camera.cpp

; 313  : 	m_kLeftObjectCollisionRay.SetDirection(v3CenterRay + m_fObjectCollisionRadius * m_v3Cross,

  00dbc	8b 85 a8 fe ff
	ff		 mov	 eax, DWORD PTR _this$[ebp]
  00dc2	83 c0 60	 add	 eax, 96			; 00000060H
  00dc5	89 85 60 fe ff
	ff		 mov	 DWORD PTR _v$[ebp], eax
  00dcb	8b 85 a8 fe ff
	ff		 mov	 eax, DWORD PTR _this$[ebp]
  00dd1	f3 0f 10 80 f4
	02 00 00	 movss	 xmm0, DWORD PTR [eax+756]
  00dd9	f3 0f 11 85 5c
	fe ff ff	 movss	 DWORD PTR _f$[ebp], xmm0
; File D:\Metin2 Server Files\mainline\SRC_2014\M2Data\include\d3dx8math.inl

; 283  :     return D3DXVECTOR3(f * v.x, f * v.y, f * v.z);

  00de1	8b 85 60 fe ff
	ff		 mov	 eax, DWORD PTR _v$[ebp]
  00de7	f3 0f 10 85 5c
	fe ff ff	 movss	 xmm0, DWORD PTR _f$[ebp]
  00def	f3 0f 59 00	 mulss	 xmm0, DWORD PTR [eax]
  00df3	f3 0f 11 85 50
	fd ff ff	 movss	 DWORD PTR _fx$[ebp], xmm0
  00dfb	8b 85 60 fe ff
	ff		 mov	 eax, DWORD PTR _v$[ebp]
  00e01	f3 0f 10 85 5c
	fe ff ff	 movss	 xmm0, DWORD PTR _f$[ebp]
  00e09	f3 0f 59 40 04	 mulss	 xmm0, DWORD PTR [eax+4]
  00e0e	f3 0f 11 85 08
	fd ff ff	 movss	 DWORD PTR _fy$[ebp], xmm0
  00e16	8b 85 60 fe ff
	ff		 mov	 eax, DWORD PTR _v$[ebp]
  00e1c	f3 0f 10 85 5c
	fe ff ff	 movss	 xmm0, DWORD PTR _f$[ebp]
  00e24	f3 0f 59 40 08	 mulss	 xmm0, DWORD PTR [eax+8]
  00e29	f3 0f 11 85 e8
	fd ff ff	 movss	 DWORD PTR _fz$[ebp], xmm0

; 180  :     x = fx;

  00e31	f3 0f 10 85 50
	fd ff ff	 movss	 xmm0, DWORD PTR _fx$[ebp]
  00e39	f3 0f 11 85 54
	ff ff ff	 movss	 DWORD PTR $T20[ebp], xmm0

; 181  :     y = fy;

  00e41	f3 0f 10 85 08
	fd ff ff	 movss	 xmm0, DWORD PTR _fy$[ebp]
  00e49	f3 0f 11 85 58
	ff ff ff	 movss	 DWORD PTR $T20[ebp+4], xmm0

; 182  :     z = fz;

  00e51	f3 0f 10 85 e8
	fd ff ff	 movss	 xmm0, DWORD PTR _fz$[ebp]
  00e59	f3 0f 11 85 5c
	ff ff ff	 movss	 DWORD PTR $T20[ebp+8], xmm0

; 257  :     return D3DXVECTOR3(x + v.x, y + v.y, z + v.z);

  00e61	f3 0f 10 45 f0	 movss	 xmm0, DWORD PTR _v3CenterRay$[ebp]
  00e66	f3 0f 58 85 54
	ff ff ff	 addss	 xmm0, DWORD PTR $T20[ebp]
  00e6e	f3 0f 11 85 e4
	fd ff ff	 movss	 DWORD PTR _fx$[ebp], xmm0
  00e76	f3 0f 10 45 f4	 movss	 xmm0, DWORD PTR _v3CenterRay$[ebp+4]
  00e7b	f3 0f 58 85 58
	ff ff ff	 addss	 xmm0, DWORD PTR $T20[ebp+4]
  00e83	f3 0f 11 85 e0
	fd ff ff	 movss	 DWORD PTR _fy$[ebp], xmm0
  00e8b	f3 0f 10 45 f8	 movss	 xmm0, DWORD PTR _v3CenterRay$[ebp+8]
  00e90	f3 0f 58 85 5c
	ff ff ff	 addss	 xmm0, DWORD PTR $T20[ebp+8]
  00e98	f3 0f 11 85 dc
	fd ff ff	 movss	 DWORD PTR _fz$[ebp], xmm0

; 180  :     x = fx;

  00ea0	f3 0f 10 85 e4
	fd ff ff	 movss	 xmm0, DWORD PTR _fx$[ebp]
  00ea8	f3 0f 11 85 0c
	ff ff ff	 movss	 DWORD PTR $T14[ebp], xmm0

; 181  :     y = fy;

  00eb0	f3 0f 10 85 e0
	fd ff ff	 movss	 xmm0, DWORD PTR _fy$[ebp]
  00eb8	f3 0f 11 85 10
	ff ff ff	 movss	 DWORD PTR $T14[ebp+4], xmm0

; 182  :     z = fz;

  00ec0	f3 0f 10 85 dc
	fd ff ff	 movss	 xmm0, DWORD PTR _fz$[ebp]
  00ec8	f3 0f 11 85 14
	ff ff ff	 movss	 DWORD PTR $T14[ebp+8], xmm0
; File D:\Metin2 Server Files\mainline\SRC_2014\Metin2Client\EterLib\Camera.cpp

; 313  : 	m_kLeftObjectCollisionRay.SetDirection(v3CenterRay + m_fObjectCollisionRadius * m_v3Cross,

  00ed0	51		 push	 ecx
  00ed1	f3 0f 10 85 d8
	fd ff ff	 movss	 xmm0, DWORD PTR $T5[ebp]
  00ed9	f3 0f 11 04 24	 movss	 DWORD PTR [esp], xmm0
  00ede	8d 85 0c ff ff
	ff		 lea	 eax, DWORD PTR $T14[ebp]
  00ee4	50		 push	 eax
  00ee5	8b 8d a8 fe ff
	ff		 mov	 ecx, DWORD PTR _this$[ebp]
  00eeb	81 c1 50 02 00
	00		 add	 ecx, 592		; 00000250H
  00ef1	e8 00 00 00 00	 call	 ?SetDirection@CRay@@QAEXABUD3DXVECTOR3@@M@Z ; CRay::SetDirection

; 315  : 	m_kRightObjectCollisionRay.SetDirection(v3CenterRay - m_fObjectCollisionRadius * m_v3Cross,

  00ef6	8b 85 a8 fe ff
	ff		 mov	 eax, DWORD PTR _this$[ebp]
  00efc	83 c0 60	 add	 eax, 96			; 00000060H
  00eff	89 85 58 fe ff
	ff		 mov	 DWORD PTR _v$[ebp], eax
  00f05	8b 85 a8 fe ff
	ff		 mov	 eax, DWORD PTR _this$[ebp]
  00f0b	f3 0f 10 80 f4
	02 00 00	 movss	 xmm0, DWORD PTR [eax+756]
  00f13	f3 0f 11 85 54
	fe ff ff	 movss	 DWORD PTR _f$[ebp], xmm0
; File D:\Metin2 Server Files\mainline\SRC_2014\M2Data\include\d3dx8math.inl

; 283  :     return D3DXVECTOR3(f * v.x, f * v.y, f * v.z);

  00f1b	8b 85 58 fe ff
	ff		 mov	 eax, DWORD PTR _v$[ebp]
  00f21	f3 0f 10 85 54
	fe ff ff	 movss	 xmm0, DWORD PTR _f$[ebp]
  00f29	f3 0f 59 00	 mulss	 xmm0, DWORD PTR [eax]
  00f2d	f3 0f 11 85 d4
	fd ff ff	 movss	 DWORD PTR _fx$[ebp], xmm0
  00f35	8b 85 58 fe ff
	ff		 mov	 eax, DWORD PTR _v$[ebp]
  00f3b	f3 0f 10 85 54
	fe ff ff	 movss	 xmm0, DWORD PTR _f$[ebp]
  00f43	f3 0f 59 40 04	 mulss	 xmm0, DWORD PTR [eax+4]
  00f48	f3 0f 11 85 d0
	fd ff ff	 movss	 DWORD PTR _fy$[ebp], xmm0
  00f50	8b 85 58 fe ff
	ff		 mov	 eax, DWORD PTR _v$[ebp]
  00f56	f3 0f 10 85 54
	fe ff ff	 movss	 xmm0, DWORD PTR _f$[ebp]
  00f5e	f3 0f 59 40 08	 mulss	 xmm0, DWORD PTR [eax+8]
  00f63	f3 0f 11 85 cc
	fd ff ff	 movss	 DWORD PTR _fz$[ebp], xmm0

; 180  :     x = fx;

  00f6b	f3 0f 10 85 d4
	fd ff ff	 movss	 xmm0, DWORD PTR _fx$[ebp]
  00f73	f3 0f 11 85 60
	ff ff ff	 movss	 DWORD PTR $T21[ebp], xmm0

; 181  :     y = fy;

  00f7b	f3 0f 10 85 d0
	fd ff ff	 movss	 xmm0, DWORD PTR _fy$[ebp]
  00f83	f3 0f 11 85 64
	ff ff ff	 movss	 DWORD PTR $T21[ebp+4], xmm0

; 182  :     z = fz;

  00f8b	f3 0f 10 85 cc
	fd ff ff	 movss	 xmm0, DWORD PTR _fz$[ebp]
  00f93	f3 0f 11 85 68
	ff ff ff	 movss	 DWORD PTR $T21[ebp+8], xmm0

; 263  :     return D3DXVECTOR3(x - v.x, y - v.y, z - v.z);

  00f9b	f3 0f 10 45 f0	 movss	 xmm0, DWORD PTR _v3CenterRay$[ebp]
  00fa0	f3 0f 5c 85 60
	ff ff ff	 subss	 xmm0, DWORD PTR $T21[ebp]
  00fa8	f3 0f 11 85 c8
	fd ff ff	 movss	 DWORD PTR _fx$[ebp], xmm0
  00fb0	f3 0f 10 45 f4	 movss	 xmm0, DWORD PTR _v3CenterRay$[ebp+4]
  00fb5	f3 0f 5c 85 64
	ff ff ff	 subss	 xmm0, DWORD PTR $T21[ebp+4]
  00fbd	f3 0f 11 85 c4
	fd ff ff	 movss	 DWORD PTR _fy$[ebp], xmm0
  00fc5	f3 0f 10 45 f8	 movss	 xmm0, DWORD PTR _v3CenterRay$[ebp+8]
  00fca	f3 0f 5c 85 68
	ff ff ff	 subss	 xmm0, DWORD PTR $T21[ebp+8]
  00fd2	f3 0f 11 85 c0
	fd ff ff	 movss	 DWORD PTR _fz$[ebp], xmm0

; 180  :     x = fx;

  00fda	f3 0f 10 85 c8
	fd ff ff	 movss	 xmm0, DWORD PTR _fx$[ebp]
  00fe2	f3 0f 11 45 cc	 movss	 DWORD PTR $T30[ebp], xmm0

; 181  :     y = fy;

  00fe7	f3 0f 10 85 c4
	fd ff ff	 movss	 xmm0, DWORD PTR _fy$[ebp]
  00fef	f3 0f 11 45 d0	 movss	 DWORD PTR $T30[ebp+4], xmm0

; 182  :     z = fz;

  00ff4	f3 0f 10 85 c0
	fd ff ff	 movss	 xmm0, DWORD PTR _fz$[ebp]
  00ffc	f3 0f 11 45 d4	 movss	 DWORD PTR $T30[ebp+8], xmm0

; 1239 :     return sqrtf(pV->x * pV->x + pV->y * pV->y + pV->z * pV->z);

  01001	f3 0f 10 45 d4	 movss	 xmm0, DWORD PTR $T30[ebp+8]
  01006	f3 0f 59 45 d4	 mulss	 xmm0, DWORD PTR $T30[ebp+8]
  0100b	f3 0f 10 4d d0	 movss	 xmm1, DWORD PTR $T30[ebp+4]
  01010	f3 0f 59 4d d0	 mulss	 xmm1, DWORD PTR $T30[ebp+4]
  01015	f3 0f 10 55 cc	 movss	 xmm2, DWORD PTR $T30[ebp]
  0101a	f3 0f 59 55 cc	 mulss	 xmm2, DWORD PTR $T30[ebp]
  0101f	f3 0f 58 d1	 addss	 xmm2, xmm1
  01023	f3 0f 58 d0	 addss	 xmm2, xmm0
  01027	f3 0f 11 95 bc
	fd ff ff	 movss	 DWORD PTR __X$[ebp], xmm2
; File C:\Program Files (x86)\Windows Kits\10\Include\10.0.18362.0\ucrt\corecrt_math.h

; 760  :             return (float)sqrt(_X);

  0102f	f3 0f 5a 85 bc
	fd ff ff	 cvtss2sd xmm0, DWORD PTR __X$[ebp]
  01037	51		 push	 ecx
  01038	51		 push	 ecx
  01039	f2 0f 11 04 24	 movsd	 QWORD PTR [esp], xmm0
  0103e	e8 00 00 00 00	 call	 _sqrt
  01043	59		 pop	 ecx
  01044	59		 pop	 ecx
; File D:\Metin2 Server Files\mainline\SRC_2014\M2Data\include\d3dx8math.inl

; 1239 :     return sqrtf(pV->x * pV->x + pV->y * pV->y + pV->z * pV->z);

  01045	d9 9d a0 fd ff
	ff		 fstp	 DWORD PTR $T4[ebp]
; File D:\Metin2 Server Files\mainline\SRC_2014\Metin2Client\EterLib\Camera.cpp

; 315  : 	m_kRightObjectCollisionRay.SetDirection(v3CenterRay - m_fObjectCollisionRadius * m_v3Cross,

  0104b	8b 85 a8 fe ff
	ff		 mov	 eax, DWORD PTR _this$[ebp]
  01051	83 c0 60	 add	 eax, 96			; 00000060H
  01054	89 85 50 fe ff
	ff		 mov	 DWORD PTR _v$[ebp], eax
  0105a	8b 85 a8 fe ff
	ff		 mov	 eax, DWORD PTR _this$[ebp]
  01060	f3 0f 10 80 f4
	02 00 00	 movss	 xmm0, DWORD PTR [eax+756]
  01068	f3 0f 11 85 4c
	fe ff ff	 movss	 DWORD PTR _f$[ebp], xmm0
; File D:\Metin2 Server Files\mainline\SRC_2014\M2Data\include\d3dx8math.inl

; 283  :     return D3DXVECTOR3(f * v.x, f * v.y, f * v.z);

  01070	8b 85 50 fe ff
	ff		 mov	 eax, DWORD PTR _v$[ebp]
  01076	f3 0f 10 85 4c
	fe ff ff	 movss	 xmm0, DWORD PTR _f$[ebp]
  0107e	f3 0f 59 00	 mulss	 xmm0, DWORD PTR [eax]
  01082	f3 0f 11 85 b8
	fd ff ff	 movss	 DWORD PTR _fx$[ebp], xmm0
  0108a	8b 85 50 fe ff
	ff		 mov	 eax, DWORD PTR _v$[ebp]
  01090	f3 0f 10 85 4c
	fe ff ff	 movss	 xmm0, DWORD PTR _f$[ebp]
  01098	f3 0f 59 40 04	 mulss	 xmm0, DWORD PTR [eax+4]
  0109d	f3 0f 11 85 b4
	fd ff ff	 movss	 DWORD PTR _fy$[ebp], xmm0
  010a5	8b 85 50 fe ff
	ff		 mov	 eax, DWORD PTR _v$[ebp]
  010ab	f3 0f 10 85 4c
	fe ff ff	 movss	 xmm0, DWORD PTR _f$[ebp]
  010b3	f3 0f 59 40 08	 mulss	 xmm0, DWORD PTR [eax+8]
  010b8	f3 0f 11 85 b0
	fd ff ff	 movss	 DWORD PTR _fz$[ebp], xmm0

; 180  :     x = fx;

  010c0	f3 0f 10 85 b8
	fd ff ff	 movss	 xmm0, DWORD PTR _fx$[ebp]
  010c8	f3 0f 11 85 6c
	ff ff ff	 movss	 DWORD PTR $T22[ebp], xmm0

; 181  :     y = fy;

  010d0	f3 0f 10 85 b4
	fd ff ff	 movss	 xmm0, DWORD PTR _fy$[ebp]
  010d8	f3 0f 11 85 70
	ff ff ff	 movss	 DWORD PTR $T22[ebp+4], xmm0

; 182  :     z = fz;

  010e0	f3 0f 10 85 b0
	fd ff ff	 movss	 xmm0, DWORD PTR _fz$[ebp]
  010e8	f3 0f 11 85 74
	ff ff ff	 movss	 DWORD PTR $T22[ebp+8], xmm0

; 263  :     return D3DXVECTOR3(x - v.x, y - v.y, z - v.z);

  010f0	f3 0f 10 45 f0	 movss	 xmm0, DWORD PTR _v3CenterRay$[ebp]
  010f5	f3 0f 5c 85 6c
	ff ff ff	 subss	 xmm0, DWORD PTR $T22[ebp]
  010fd	f3 0f 11 85 ac
	fd ff ff	 movss	 DWORD PTR _fx$[ebp], xmm0
  01105	f3 0f 10 45 f4	 movss	 xmm0, DWORD PTR _v3CenterRay$[ebp+4]
  0110a	f3 0f 5c 85 70
	ff ff ff	 subss	 xmm0, DWORD PTR $T22[ebp+4]
  01112	f3 0f 11 85 a8
	fd ff ff	 movss	 DWORD PTR _fy$[ebp], xmm0
  0111a	f3 0f 10 45 f8	 movss	 xmm0, DWORD PTR _v3CenterRay$[ebp+8]
  0111f	f3 0f 5c 85 74
	ff ff ff	 subss	 xmm0, DWORD PTR $T22[ebp+8]
  01127	f3 0f 11 85 a4
	fd ff ff	 movss	 DWORD PTR _fz$[ebp], xmm0

; 180  :     x = fx;

  0112f	f3 0f 10 85 ac
	fd ff ff	 movss	 xmm0, DWORD PTR _fx$[ebp]
  01137	f3 0f 11 85 18
	ff ff ff	 movss	 DWORD PTR $T15[ebp], xmm0

; 181  :     y = fy;

  0113f	f3 0f 10 85 a8
	fd ff ff	 movss	 xmm0, DWORD PTR _fy$[ebp]
  01147	f3 0f 11 85 1c
	ff ff ff	 movss	 DWORD PTR $T15[ebp+4], xmm0

; 182  :     z = fz;

  0114f	f3 0f 10 85 a4
	fd ff ff	 movss	 xmm0, DWORD PTR _fz$[ebp]
  01157	f3 0f 11 85 20
	ff ff ff	 movss	 DWORD PTR $T15[ebp+8], xmm0
; File D:\Metin2 Server Files\mainline\SRC_2014\Metin2Client\EterLib\Camera.cpp

; 315  : 	m_kRightObjectCollisionRay.SetDirection(v3CenterRay - m_fObjectCollisionRadius * m_v3Cross,

  0115f	51		 push	 ecx
  01160	f3 0f 10 85 a0
	fd ff ff	 movss	 xmm0, DWORD PTR $T4[ebp]
  01168	f3 0f 11 04 24	 movss	 DWORD PTR [esp], xmm0
  0116d	8d 85 18 ff ff
	ff		 lea	 eax, DWORD PTR $T15[ebp]
  01173	50		 push	 eax
  01174	8b 8d a8 fe ff
	ff		 mov	 ecx, DWORD PTR _this$[ebp]
  0117a	81 c1 a0 02 00
	00		 add	 ecx, 672		; 000002a0H
  01180	e8 00 00 00 00	 call	 ?SetDirection@CRay@@QAEXABUD3DXVECTOR3@@M@Z ; CRay::SetDirection

; 317  : 	m_kTopObjectCollisionRay.SetDirection(v3CenterRay + m_fObjectCollisionRadius * m_v3Up,

  01185	8b 85 a8 fe ff
	ff		 mov	 eax, DWORD PTR _this$[ebp]
  0118b	83 c0 48	 add	 eax, 72			; 00000048H
  0118e	89 85 48 fe ff
	ff		 mov	 DWORD PTR _v$[ebp], eax
  01194	8b 85 a8 fe ff
	ff		 mov	 eax, DWORD PTR _this$[ebp]
  0119a	f3 0f 10 80 f4
	02 00 00	 movss	 xmm0, DWORD PTR [eax+756]
  011a2	f3 0f 11 85 44
	fe ff ff	 movss	 DWORD PTR _f$[ebp], xmm0
; File D:\Metin2 Server Files\mainline\SRC_2014\M2Data\include\d3dx8math.inl

; 283  :     return D3DXVECTOR3(f * v.x, f * v.y, f * v.z);

  011aa	8b 85 48 fe ff
	ff		 mov	 eax, DWORD PTR _v$[ebp]
  011b0	f3 0f 10 85 44
	fe ff ff	 movss	 xmm0, DWORD PTR _f$[ebp]
  011b8	f3 0f 59 00	 mulss	 xmm0, DWORD PTR [eax]
  011bc	f3 0f 11 85 9c
	fd ff ff	 movss	 DWORD PTR _fx$[ebp], xmm0
  011c4	8b 85 48 fe ff
	ff		 mov	 eax, DWORD PTR _v$[ebp]
  011ca	f3 0f 10 85 44
	fe ff ff	 movss	 xmm0, DWORD PTR _f$[ebp]
  011d2	f3 0f 59 40 04	 mulss	 xmm0, DWORD PTR [eax+4]
  011d7	f3 0f 11 85 98
	fd ff ff	 movss	 DWORD PTR _fy$[ebp], xmm0
  011df	8b 85 48 fe ff
	ff		 mov	 eax, DWORD PTR _v$[ebp]
  011e5	f3 0f 10 85 44
	fe ff ff	 movss	 xmm0, DWORD PTR _f$[ebp]
  011ed	f3 0f 59 40 08	 mulss	 xmm0, DWORD PTR [eax+8]
  011f2	f3 0f 11 85 94
	fd ff ff	 movss	 DWORD PTR _fz$[ebp], xmm0

; 180  :     x = fx;

  011fa	f3 0f 10 85 9c
	fd ff ff	 movss	 xmm0, DWORD PTR _fx$[ebp]
  01202	f3 0f 11 85 78
	ff ff ff	 movss	 DWORD PTR $T23[ebp], xmm0

; 181  :     y = fy;

  0120a	f3 0f 10 85 98
	fd ff ff	 movss	 xmm0, DWORD PTR _fy$[ebp]
  01212	f3 0f 11 85 7c
	ff ff ff	 movss	 DWORD PTR $T23[ebp+4], xmm0

; 182  :     z = fz;

  0121a	f3 0f 10 85 94
	fd ff ff	 movss	 xmm0, DWORD PTR _fz$[ebp]
  01222	f3 0f 11 45 80	 movss	 DWORD PTR $T23[ebp+8], xmm0

; 257  :     return D3DXVECTOR3(x + v.x, y + v.y, z + v.z);

  01227	f3 0f 10 45 f0	 movss	 xmm0, DWORD PTR _v3CenterRay$[ebp]
  0122c	f3 0f 58 85 78
	ff ff ff	 addss	 xmm0, DWORD PTR $T23[ebp]
  01234	f3 0f 11 85 90
	fd ff ff	 movss	 DWORD PTR _fx$[ebp], xmm0
  0123c	f3 0f 10 45 f4	 movss	 xmm0, DWORD PTR _v3CenterRay$[ebp+4]
  01241	f3 0f 58 85 7c
	ff ff ff	 addss	 xmm0, DWORD PTR $T23[ebp+4]
  01249	f3 0f 11 85 8c
	fd ff ff	 movss	 DWORD PTR _fy$[ebp], xmm0
  01251	f3 0f 10 45 f8	 movss	 xmm0, DWORD PTR _v3CenterRay$[ebp+8]
  01256	f3 0f 58 45 80	 addss	 xmm0, DWORD PTR $T23[ebp+8]
  0125b	f3 0f 11 85 88
	fd ff ff	 movss	 DWORD PTR _fz$[ebp], xmm0

; 180  :     x = fx;

  01263	f3 0f 10 85 90
	fd ff ff	 movss	 xmm0, DWORD PTR _fx$[ebp]
  0126b	f3 0f 11 45 d8	 movss	 DWORD PTR $T31[ebp], xmm0

; 181  :     y = fy;

  01270	f3 0f 10 85 8c
	fd ff ff	 movss	 xmm0, DWORD PTR _fy$[ebp]
  01278	f3 0f 11 45 dc	 movss	 DWORD PTR $T31[ebp+4], xmm0

; 182  :     z = fz;

  0127d	f3 0f 10 85 88
	fd ff ff	 movss	 xmm0, DWORD PTR _fz$[ebp]
  01285	f3 0f 11 45 e0	 movss	 DWORD PTR $T31[ebp+8], xmm0

; 1239 :     return sqrtf(pV->x * pV->x + pV->y * pV->y + pV->z * pV->z);

  0128a	f3 0f 10 45 e0	 movss	 xmm0, DWORD PTR $T31[ebp+8]
  0128f	f3 0f 59 45 e0	 mulss	 xmm0, DWORD PTR $T31[ebp+8]
  01294	f3 0f 10 4d dc	 movss	 xmm1, DWORD PTR $T31[ebp+4]
  01299	f3 0f 59 4d dc	 mulss	 xmm1, DWORD PTR $T31[ebp+4]
  0129e	f3 0f 10 55 d8	 movss	 xmm2, DWORD PTR $T31[ebp]
  012a3	f3 0f 59 55 d8	 mulss	 xmm2, DWORD PTR $T31[ebp]
  012a8	f3 0f 58 d1	 addss	 xmm2, xmm1
  012ac	f3 0f 58 d0	 addss	 xmm2, xmm0
  012b0	f3 0f 11 95 84
	fd ff ff	 movss	 DWORD PTR __X$[ebp], xmm2
; File C:\Program Files (x86)\Windows Kits\10\Include\10.0.18362.0\ucrt\corecrt_math.h

; 760  :             return (float)sqrt(_X);

  012b8	f3 0f 5a 85 84
	fd ff ff	 cvtss2sd xmm0, DWORD PTR __X$[ebp]
  012c0	51		 push	 ecx
  012c1	51		 push	 ecx
  012c2	f2 0f 11 04 24	 movsd	 QWORD PTR [esp], xmm0
  012c7	e8 00 00 00 00	 call	 _sqrt
  012cc	59		 pop	 ecx
  012cd	59		 pop	 ecx
; File D:\Metin2 Server Files\mainline\SRC_2014\M2Data\include\d3dx8math.inl

; 1239 :     return sqrtf(pV->x * pV->x + pV->y * pV->y + pV->z * pV->z);

  012ce	d9 9d 68 fd ff
	ff		 fstp	 DWORD PTR $T3[ebp]
; File D:\Metin2 Server Files\mainline\SRC_2014\Metin2Client\EterLib\Camera.cpp

; 317  : 	m_kTopObjectCollisionRay.SetDirection(v3CenterRay + m_fObjectCollisionRadius * m_v3Up,

  012d4	8b 85 a8 fe ff
	ff		 mov	 eax, DWORD PTR _this$[ebp]
  012da	83 c0 48	 add	 eax, 72			; 00000048H
  012dd	89 85 40 fe ff
	ff		 mov	 DWORD PTR _v$[ebp], eax
  012e3	8b 85 a8 fe ff
	ff		 mov	 eax, DWORD PTR _this$[ebp]
  012e9	f3 0f 10 80 f4
	02 00 00	 movss	 xmm0, DWORD PTR [eax+756]
  012f1	f3 0f 11 85 3c
	fe ff ff	 movss	 DWORD PTR _f$[ebp], xmm0
; File D:\Metin2 Server Files\mainline\SRC_2014\M2Data\include\d3dx8math.inl

; 283  :     return D3DXVECTOR3(f * v.x, f * v.y, f * v.z);

  012f9	8b 85 40 fe ff
	ff		 mov	 eax, DWORD PTR _v$[ebp]
  012ff	f3 0f 10 85 3c
	fe ff ff	 movss	 xmm0, DWORD PTR _f$[ebp]
  01307	f3 0f 59 00	 mulss	 xmm0, DWORD PTR [eax]
  0130b	f3 0f 11 85 80
	fd ff ff	 movss	 DWORD PTR _fx$[ebp], xmm0
  01313	8b 85 40 fe ff
	ff		 mov	 eax, DWORD PTR _v$[ebp]
  01319	f3 0f 10 85 3c
	fe ff ff	 movss	 xmm0, DWORD PTR _f$[ebp]
  01321	f3 0f 59 40 04	 mulss	 xmm0, DWORD PTR [eax+4]
  01326	f3 0f 11 85 7c
	fd ff ff	 movss	 DWORD PTR _fy$[ebp], xmm0
  0132e	8b 85 40 fe ff
	ff		 mov	 eax, DWORD PTR _v$[ebp]
  01334	f3 0f 10 85 3c
	fe ff ff	 movss	 xmm0, DWORD PTR _f$[ebp]
  0133c	f3 0f 59 40 08	 mulss	 xmm0, DWORD PTR [eax+8]
  01341	f3 0f 11 85 78
	fd ff ff	 movss	 DWORD PTR _fz$[ebp], xmm0

; 180  :     x = fx;

  01349	f3 0f 10 85 80
	fd ff ff	 movss	 xmm0, DWORD PTR _fx$[ebp]
  01351	f3 0f 11 45 a8	 movss	 DWORD PTR $T27[ebp], xmm0

; 181  :     y = fy;

  01356	f3 0f 10 85 7c
	fd ff ff	 movss	 xmm0, DWORD PTR _fy$[ebp]
  0135e	f3 0f 11 45 ac	 movss	 DWORD PTR $T27[ebp+4], xmm0

; 182  :     z = fz;

  01363	f3 0f 10 85 78
	fd ff ff	 movss	 xmm0, DWORD PTR _fz$[ebp]
  0136b	f3 0f 11 45 b0	 movss	 DWORD PTR $T27[ebp+8], xmm0

; 257  :     return D3DXVECTOR3(x + v.x, y + v.y, z + v.z);

  01370	f3 0f 10 45 f0	 movss	 xmm0, DWORD PTR _v3CenterRay$[ebp]
  01375	f3 0f 58 45 a8	 addss	 xmm0, DWORD PTR $T27[ebp]
  0137a	f3 0f 11 85 74
	fd ff ff	 movss	 DWORD PTR _fx$[ebp], xmm0
  01382	f3 0f 10 45 f4	 movss	 xmm0, DWORD PTR _v3CenterRay$[ebp+4]
  01387	f3 0f 58 45 ac	 addss	 xmm0, DWORD PTR $T27[ebp+4]
  0138c	f3 0f 11 85 70
	fd ff ff	 movss	 DWORD PTR _fy$[ebp], xmm0
  01394	f3 0f 10 45 f8	 movss	 xmm0, DWORD PTR _v3CenterRay$[ebp+8]
  01399	f3 0f 58 45 b0	 addss	 xmm0, DWORD PTR $T27[ebp+8]
  0139e	f3 0f 11 85 6c
	fd ff ff	 movss	 DWORD PTR _fz$[ebp], xmm0

; 180  :     x = fx;

  013a6	f3 0f 10 85 74
	fd ff ff	 movss	 xmm0, DWORD PTR _fx$[ebp]
  013ae	f3 0f 11 85 24
	ff ff ff	 movss	 DWORD PTR $T16[ebp], xmm0

; 181  :     y = fy;

  013b6	f3 0f 10 85 70
	fd ff ff	 movss	 xmm0, DWORD PTR _fy$[ebp]
  013be	f3 0f 11 85 28
	ff ff ff	 movss	 DWORD PTR $T16[ebp+4], xmm0

; 182  :     z = fz;

  013c6	f3 0f 10 85 6c
	fd ff ff	 movss	 xmm0, DWORD PTR _fz$[ebp]
  013ce	f3 0f 11 85 2c
	ff ff ff	 movss	 DWORD PTR $T16[ebp+8], xmm0
; File D:\Metin2 Server Files\mainline\SRC_2014\Metin2Client\EterLib\Camera.cpp

; 317  : 	m_kTopObjectCollisionRay.SetDirection(v3CenterRay + m_fObjectCollisionRadius * m_v3Up,

  013d6	51		 push	 ecx
  013d7	f3 0f 10 85 68
	fd ff ff	 movss	 xmm0, DWORD PTR $T3[ebp]
  013df	f3 0f 11 04 24	 movss	 DWORD PTR [esp], xmm0
  013e4	8d 85 24 ff ff
	ff		 lea	 eax, DWORD PTR $T16[ebp]
  013ea	50		 push	 eax
  013eb	8b 8d a8 fe ff
	ff		 mov	 ecx, DWORD PTR _this$[ebp]
  013f1	81 c1 78 02 00
	00		 add	 ecx, 632		; 00000278H
  013f7	e8 00 00 00 00	 call	 ?SetDirection@CRay@@QAEXABUD3DXVECTOR3@@M@Z ; CRay::SetDirection

; 319  : 	m_kBottomObjectCollisionRay.SetDirection(v3CenterRay - m_fObjectCollisionRadius * m_v3Up,

  013fc	8b 85 a8 fe ff
	ff		 mov	 eax, DWORD PTR _this$[ebp]
  01402	83 c0 48	 add	 eax, 72			; 00000048H
  01405	89 85 38 fe ff
	ff		 mov	 DWORD PTR _v$[ebp], eax
  0140b	8b 85 a8 fe ff
	ff		 mov	 eax, DWORD PTR _this$[ebp]
  01411	f3 0f 10 80 f4
	02 00 00	 movss	 xmm0, DWORD PTR [eax+756]
  01419	f3 0f 11 85 34
	fe ff ff	 movss	 DWORD PTR _f$[ebp], xmm0
; File D:\Metin2 Server Files\mainline\SRC_2014\M2Data\include\d3dx8math.inl

; 283  :     return D3DXVECTOR3(f * v.x, f * v.y, f * v.z);

  01421	8b 85 38 fe ff
	ff		 mov	 eax, DWORD PTR _v$[ebp]
  01427	f3 0f 10 85 34
	fe ff ff	 movss	 xmm0, DWORD PTR _f$[ebp]
  0142f	f3 0f 59 00	 mulss	 xmm0, DWORD PTR [eax]
  01433	f3 0f 11 85 64
	fd ff ff	 movss	 DWORD PTR _fx$[ebp], xmm0
  0143b	8b 85 38 fe ff
	ff		 mov	 eax, DWORD PTR _v$[ebp]
  01441	f3 0f 10 85 34
	fe ff ff	 movss	 xmm0, DWORD PTR _f$[ebp]
  01449	f3 0f 59 40 04	 mulss	 xmm0, DWORD PTR [eax+4]
  0144e	f3 0f 11 85 60
	fd ff ff	 movss	 DWORD PTR _fy$[ebp], xmm0
  01456	8b 85 38 fe ff
	ff		 mov	 eax, DWORD PTR _v$[ebp]
  0145c	f3 0f 10 85 34
	fe ff ff	 movss	 xmm0, DWORD PTR _f$[ebp]
  01464	f3 0f 59 40 08	 mulss	 xmm0, DWORD PTR [eax+8]
  01469	f3 0f 11 85 5c
	fd ff ff	 movss	 DWORD PTR _fz$[ebp], xmm0

; 180  :     x = fx;

  01471	f3 0f 10 85 64
	fd ff ff	 movss	 xmm0, DWORD PTR _fx$[ebp]
  01479	f3 0f 11 45 84	 movss	 DWORD PTR $T24[ebp], xmm0

; 181  :     y = fy;

  0147e	f3 0f 10 85 60
	fd ff ff	 movss	 xmm0, DWORD PTR _fy$[ebp]
  01486	f3 0f 11 45 88	 movss	 DWORD PTR $T24[ebp+4], xmm0

; 182  :     z = fz;

  0148b	f3 0f 10 85 5c
	fd ff ff	 movss	 xmm0, DWORD PTR _fz$[ebp]
  01493	f3 0f 11 45 8c	 movss	 DWORD PTR $T24[ebp+8], xmm0

; 257  :     return D3DXVECTOR3(x + v.x, y + v.y, z + v.z);

  01498	f3 0f 10 45 f0	 movss	 xmm0, DWORD PTR _v3CenterRay$[ebp]
  0149d	f3 0f 58 45 84	 addss	 xmm0, DWORD PTR $T24[ebp]
  014a2	f3 0f 11 85 58
	fd ff ff	 movss	 DWORD PTR _fx$[ebp], xmm0
  014aa	f3 0f 10 45 f4	 movss	 xmm0, DWORD PTR _v3CenterRay$[ebp+4]
  014af	f3 0f 58 45 88	 addss	 xmm0, DWORD PTR $T24[ebp+4]
  014b4	f3 0f 11 85 54
	fd ff ff	 movss	 DWORD PTR _fy$[ebp], xmm0
  014bc	f3 0f 10 45 f8	 movss	 xmm0, DWORD PTR _v3CenterRay$[ebp+8]
  014c1	f3 0f 58 45 8c	 addss	 xmm0, DWORD PTR $T24[ebp+8]
  014c6	f3 0f 11 85 c0
	fc ff ff	 movss	 DWORD PTR _fz$[ebp], xmm0

; 180  :     x = fx;

  014ce	f3 0f 10 85 58
	fd ff ff	 movss	 xmm0, DWORD PTR _fx$[ebp]
  014d6	f3 0f 11 45 b4	 movss	 DWORD PTR $T28[ebp], xmm0

; 181  :     y = fy;

  014db	f3 0f 10 85 54
	fd ff ff	 movss	 xmm0, DWORD PTR _fy$[ebp]
  014e3	f3 0f 11 45 b8	 movss	 DWORD PTR $T28[ebp+4], xmm0

; 182  :     z = fz;

  014e8	f3 0f 10 85 c0
	fc ff ff	 movss	 xmm0, DWORD PTR _fz$[ebp]
  014f0	f3 0f 11 45 bc	 movss	 DWORD PTR $T28[ebp+8], xmm0

; 1239 :     return sqrtf(pV->x * pV->x + pV->y * pV->y + pV->z * pV->z);

  014f5	f3 0f 10 45 bc	 movss	 xmm0, DWORD PTR $T28[ebp+8]
  014fa	f3 0f 59 45 bc	 mulss	 xmm0, DWORD PTR $T28[ebp+8]
  014ff	f3 0f 10 4d b8	 movss	 xmm1, DWORD PTR $T28[ebp+4]
  01504	f3 0f 59 4d b8	 mulss	 xmm1, DWORD PTR $T28[ebp+4]
  01509	f3 0f 10 55 b4	 movss	 xmm2, DWORD PTR $T28[ebp]
  0150e	f3 0f 59 55 b4	 mulss	 xmm2, DWORD PTR $T28[ebp]
  01513	f3 0f 58 d1	 addss	 xmm2, xmm1
  01517	f3 0f 58 d0	 addss	 xmm2, xmm0
  0151b	f3 0f 11 95 4c
	fd ff ff	 movss	 DWORD PTR __X$[ebp], xmm2
; File C:\Program Files (x86)\Windows Kits\10\Include\10.0.18362.0\ucrt\corecrt_math.h

; 760  :             return (float)sqrt(_X);

  01523	f3 0f 5a 85 4c
	fd ff ff	 cvtss2sd xmm0, DWORD PTR __X$[ebp]
  0152b	51		 push	 ecx
  0152c	51		 push	 ecx
  0152d	f2 0f 11 04 24	 movsd	 QWORD PTR [esp], xmm0
  01532	e8 00 00 00 00	 call	 _sqrt
  01537	59		 pop	 ecx
  01538	59		 pop	 ecx
; File D:\Metin2 Server Files\mainline\SRC_2014\M2Data\include\d3dx8math.inl

; 1239 :     return sqrtf(pV->x * pV->x + pV->y * pV->y + pV->z * pV->z);

  01539	d9 9d 30 fd ff
	ff		 fstp	 DWORD PTR $T2[ebp]
; File D:\Metin2 Server Files\mainline\SRC_2014\Metin2Client\EterLib\Camera.cpp

; 319  : 	m_kBottomObjectCollisionRay.SetDirection(v3CenterRay - m_fObjectCollisionRadius * m_v3Up,

  0153f	8b 85 a8 fe ff
	ff		 mov	 eax, DWORD PTR _this$[ebp]
  01545	83 c0 48	 add	 eax, 72			; 00000048H
  01548	89 85 30 fe ff
	ff		 mov	 DWORD PTR _v$[ebp], eax
  0154e	8b 85 a8 fe ff
	ff		 mov	 eax, DWORD PTR _this$[ebp]
  01554	f3 0f 10 80 f4
	02 00 00	 movss	 xmm0, DWORD PTR [eax+756]
  0155c	f3 0f 11 85 2c
	fe ff ff	 movss	 DWORD PTR _f$[ebp], xmm0
; File D:\Metin2 Server Files\mainline\SRC_2014\M2Data\include\d3dx8math.inl

; 283  :     return D3DXVECTOR3(f * v.x, f * v.y, f * v.z);

  01564	8b 85 30 fe ff
	ff		 mov	 eax, DWORD PTR _v$[ebp]
  0156a	f3 0f 10 85 2c
	fe ff ff	 movss	 xmm0, DWORD PTR _f$[ebp]
  01572	f3 0f 59 00	 mulss	 xmm0, DWORD PTR [eax]
  01576	f3 0f 11 85 48
	fd ff ff	 movss	 DWORD PTR _fx$[ebp], xmm0
  0157e	8b 85 30 fe ff
	ff		 mov	 eax, DWORD PTR _v$[ebp]
  01584	f3 0f 10 85 2c
	fe ff ff	 movss	 xmm0, DWORD PTR _f$[ebp]
  0158c	f3 0f 59 40 04	 mulss	 xmm0, DWORD PTR [eax+4]
  01591	f3 0f 11 85 44
	fd ff ff	 movss	 DWORD PTR _fy$[ebp], xmm0
  01599	8b 85 30 fe ff
	ff		 mov	 eax, DWORD PTR _v$[ebp]
  0159f	f3 0f 10 85 2c
	fe ff ff	 movss	 xmm0, DWORD PTR _f$[ebp]
  015a7	f3 0f 59 40 08	 mulss	 xmm0, DWORD PTR [eax+8]
  015ac	f3 0f 11 85 40
	fd ff ff	 movss	 DWORD PTR _fz$[ebp], xmm0

; 180  :     x = fx;

  015b4	f3 0f 10 85 48
	fd ff ff	 movss	 xmm0, DWORD PTR _fx$[ebp]
  015bc	f3 0f 11 45 90	 movss	 DWORD PTR $T25[ebp], xmm0

; 181  :     y = fy;

  015c1	f3 0f 10 85 44
	fd ff ff	 movss	 xmm0, DWORD PTR _fy$[ebp]
  015c9	f3 0f 11 45 94	 movss	 DWORD PTR $T25[ebp+4], xmm0

; 182  :     z = fz;

  015ce	f3 0f 10 85 40
	fd ff ff	 movss	 xmm0, DWORD PTR _fz$[ebp]
  015d6	f3 0f 11 45 98	 movss	 DWORD PTR $T25[ebp+8], xmm0

; 263  :     return D3DXVECTOR3(x - v.x, y - v.y, z - v.z);

  015db	f3 0f 10 45 f0	 movss	 xmm0, DWORD PTR _v3CenterRay$[ebp]
  015e0	f3 0f 5c 45 90	 subss	 xmm0, DWORD PTR $T25[ebp]
  015e5	f3 0f 11 85 3c
	fd ff ff	 movss	 DWORD PTR _fx$[ebp], xmm0
  015ed	f3 0f 10 45 f4	 movss	 xmm0, DWORD PTR _v3CenterRay$[ebp+4]
  015f2	f3 0f 5c 45 94	 subss	 xmm0, DWORD PTR $T25[ebp+4]
  015f7	f3 0f 11 85 38
	fd ff ff	 movss	 DWORD PTR _fy$[ebp], xmm0
  015ff	f3 0f 10 45 f8	 movss	 xmm0, DWORD PTR _v3CenterRay$[ebp+8]
  01604	f3 0f 5c 45 98	 subss	 xmm0, DWORD PTR $T25[ebp+8]
  01609	f3 0f 11 85 34
	fd ff ff	 movss	 DWORD PTR _fz$[ebp], xmm0

; 180  :     x = fx;

  01611	f3 0f 10 85 3c
	fd ff ff	 movss	 xmm0, DWORD PTR _fx$[ebp]
  01619	f3 0f 11 85 ac
	fe ff ff	 movss	 DWORD PTR $T6[ebp], xmm0

; 181  :     y = fy;

  01621	f3 0f 10 85 38
	fd ff ff	 movss	 xmm0, DWORD PTR _fy$[ebp]
  01629	f3 0f 11 85 b0
	fe ff ff	 movss	 DWORD PTR $T6[ebp+4], xmm0

; 182  :     z = fz;

  01631	f3 0f 10 85 34
	fd ff ff	 movss	 xmm0, DWORD PTR _fz$[ebp]
  01639	f3 0f 11 85 b4
	fe ff ff	 movss	 DWORD PTR $T6[ebp+8], xmm0
; File D:\Metin2 Server Files\mainline\SRC_2014\Metin2Client\EterLib\Camera.cpp

; 319  : 	m_kBottomObjectCollisionRay.SetDirection(v3CenterRay - m_fObjectCollisionRadius * m_v3Up,

  01641	51		 push	 ecx
  01642	f3 0f 10 85 30
	fd ff ff	 movss	 xmm0, DWORD PTR $T2[ebp]
  0164a	f3 0f 11 04 24	 movss	 DWORD PTR [esp], xmm0
  0164f	8d 85 ac fe ff
	ff		 lea	 eax, DWORD PTR $T6[ebp]
  01655	50		 push	 eax
  01656	8b 8d a8 fe ff
	ff		 mov	 ecx, DWORD PTR _this$[ebp]
  0165c	81 c1 c8 02 00
	00		 add	 ecx, 712		; 000002c8H
  01662	e8 00 00 00 00	 call	 ?SetDirection@CRay@@QAEXABUD3DXVECTOR3@@M@Z ; CRay::SetDirection

; 320  : 		D3DXVec3Length(&(v3CenterRay + m_fObjectCollisionRadius * m_v3Up)));
; 321  : }

  01667	5f		 pop	 edi
  01668	5e		 pop	 esi
  01669	8b 4d fc	 mov	 ecx, DWORD PTR __$ArrayPad$[ebp]
  0166c	33 cd		 xor	 ecx, ebp
  0166e	e8 00 00 00 00	 call	 @__security_check_cookie@4
  01673	c9		 leave
  01674	c3		 ret	 0
?SetViewMatrix@CCamera@@IAEXXZ ENDP			; CCamera::SetViewMatrix
_TEXT	ENDS
; Function compile flags: /Odspy
; File D:\Metin2 Server Files\mainline\SRC_2014\Metin2Client\EterLib\Camera.cpp
; File D:\Metin2 Server Files\mainline\SRC_2014\M2Data\include\d3dx8math.inl
; File D:\Metin2 Server Files\mainline\SRC_2014\Metin2Client\EterLib\Camera.cpp
; File D:\Metin2 Server Files\mainline\SRC_2014\M2Data\include\d3dx8math.inl
; File D:\Metin2 Server Files\mainline\SRC_2014\Metin2Client\EterLib\Camera.cpp
; File D:\Metin2 Server Files\mainline\SRC_2014\M2Data\include\d3dx8math.inl
; File D:\Metin2 Server Files\mainline\SRC_2014\Metin2Client\EterLib\Camera.cpp
; File D:\Metin2 Server Files\mainline\SRC_2014\M2Data\include\d3dx8math.inl
; File D:\Metin2 Server Files\mainline\SRC_2014\Metin2Client\EterLib\Camera.cpp
; File D:\Metin2 Server Files\mainline\SRC_2014\M2Data\include\d3dx8math.inl
; File D:\Metin2 Server Files\mainline\SRC_2014\Metin2Client\EterLib\Camera.cpp
; File D:\Metin2 Server Files\mainline\SRC_2014\M2Data\include\d3dx8math.inl
; File D:\Metin2 Server Files\mainline\SRC_2014\Metin2Client\EterLib\Camera.cpp
; File D:\Metin2 Server Files\mainline\SRC_2014\M2Data\include\d3dx8math.inl
; File D:\Metin2 Server Files\mainline\SRC_2014\Metin2Client\EterLib\Camera.cpp
; File D:\Metin2 Server Files\mainline\SRC_2014\M2Data\include\d3dx8math.inl
; File D:\Metin2 Server Files\mainline\SRC_2014\Metin2Client\EterLib\Camera.cpp
;	COMDAT ?RotateEyeAroundPoint@CCamera@@QAEXABUD3DXVECTOR3@@MM@Z
_TEXT	SEGMENT
_fz$ = -452						; size = 4
_fy$ = -448						; size = 4
_fx$ = -444						; size = 4
_fz$ = -440						; size = 4
_fy$ = -436						; size = 4
_fx$ = -432						; size = 4
_fz$ = -428						; size = 4
_fy$ = -424						; size = 4
_fx$ = -420						; size = 4
_fz$ = -416						; size = 4
_fy$ = -412						; size = 4
_fx$ = -408						; size = 4
_this$ = -404						; size = 4
_this$ = -400						; size = 4
_v$ = -396						; size = 4
_this$ = -392						; size = 4
_this$ = -388						; size = 4
_this$ = -384						; size = 4
_this$ = -380						; size = 4
_this$ = -376						; size = 4
$T1 = -372						; size = 64
_matT$2 = -308						; size = 64
_matRotPitch$ = -244					; size = 64
_matRotRoll$ = -180					; size = 64
_matRot$ = -116						; size = 64
$T3 = -52						; size = 12
$T4 = -40						; size = 12
$T5 = -28						; size = 12
_v3Temp$ = -16						; size = 12
__$ArrayPad$ = -4					; size = 4
_v3Point$ = 8						; size = 4
_fPitchDegree$ = 12					; size = 4
_fRollDegree$ = 16					; size = 4
?RotateEyeAroundPoint@CCamera@@QAEXABUD3DXVECTOR3@@MM@Z PROC ; CCamera::RotateEyeAroundPoint, COMDAT
; _this$ = ecx

; 471  : {

  00000	55		 push	 ebp
  00001	8b ec		 mov	 ebp, esp
  00003	81 ec c4 01 00
	00		 sub	 esp, 452		; 000001c4H
  00009	a1 00 00 00 00	 mov	 eax, DWORD PTR ___security_cookie
  0000e	33 c5		 xor	 eax, ebp
  00010	89 45 fc	 mov	 DWORD PTR __$ArrayPad$[ebp], eax
  00013	56		 push	 esi
  00014	57		 push	 edi
  00015	89 8d 88 fe ff
	ff		 mov	 DWORD PTR _this$[ebp], ecx

; 472  : //	if (IsLock())
; 473  : //		return;
; 474  : 
; 475  : 	D3DXMATRIX matRot, matRotPitch, matRotRoll;
; 476  : 
; 477  : 	D3DXMatrixRotationAxis(&matRotPitch, &m_v3Cross, D3DXToRadian(fPitchDegree));

  0001b	f3 0f 10 45 0c	 movss	 xmm0, DWORD PTR _fPitchDegree$[ebp]
  00020	f3 0f 59 05 00
	00 00 00	 mulss	 xmm0, DWORD PTR __real@3c8efa35
  00028	51		 push	 ecx
  00029	f3 0f 11 04 24	 movss	 DWORD PTR [esp], xmm0
  0002e	8b 85 88 fe ff
	ff		 mov	 eax, DWORD PTR _this$[ebp]
  00034	83 c0 60	 add	 eax, 96			; 00000060H
  00037	50		 push	 eax
  00038	8d 85 0c ff ff
	ff		 lea	 eax, DWORD PTR _matRotPitch$[ebp]
  0003e	50		 push	 eax
  0003f	e8 00 00 00 00	 call	 _D3DXMatrixRotationAxis@12

; 478  : 
; 479  : 	D3DXMatrixRotationZ(&matRotRoll, -D3DXToRadian(fRollDegree));

  00044	f3 0f 10 45 10	 movss	 xmm0, DWORD PTR _fRollDegree$[ebp]
  00049	f3 0f 59 05 00
	00 00 00	 mulss	 xmm0, DWORD PTR __real@3c8efa35
  00051	0f 57 05 00 00
	00 00		 xorps	 xmm0, DWORD PTR __xmm@80000000800000008000000080000000
  00058	51		 push	 ecx
  00059	f3 0f 11 04 24	 movss	 DWORD PTR [esp], xmm0
  0005e	8d 85 4c ff ff
	ff		 lea	 eax, DWORD PTR _matRotRoll$[ebp]
  00064	50		 push	 eax
  00065	e8 00 00 00 00	 call	 _D3DXMatrixRotationZ@8
; File D:\Metin2 Server Files\mainline\SRC_2014\M2Data\include\d3dx8math.inl

; 580  :     D3DXMatrixMultiply(&matT, this, &mat);

  0006a	8d 85 4c ff ff
	ff		 lea	 eax, DWORD PTR _matRotRoll$[ebp]
  00070	50		 push	 eax
  00071	8d 85 0c ff ff
	ff		 lea	 eax, DWORD PTR _matRotPitch$[ebp]
  00077	50		 push	 eax
  00078	8d 85 cc fe ff
	ff		 lea	 eax, DWORD PTR _matT$2[ebp]
  0007e	50		 push	 eax
  0007f	e8 00 00 00 00	 call	 _D3DXMatrixMultiply@12

; 581  :     return matT;

  00084	6a 10		 push	 16			; 00000010H
  00086	59		 pop	 ecx
  00087	8d b5 cc fe ff
	ff		 lea	 esi, DWORD PTR _matT$2[ebp]
  0008d	8d bd 8c fe ff
	ff		 lea	 edi, DWORD PTR $T1[ebp]
  00093	f3 a5		 rep movsd
; File D:\Metin2 Server Files\mainline\SRC_2014\Metin2Client\EterLib\Camera.cpp

; 480  : 	matRot = matRotPitch * matRotRoll;

  00095	6a 10		 push	 16			; 00000010H
  00097	59		 pop	 ecx
  00098	8d b5 8c fe ff
	ff		 lea	 esi, DWORD PTR $T1[ebp]
  0009e	8d 7d 8c	 lea	 edi, DWORD PTR _matRot$[ebp]
  000a1	f3 a5		 rep movsd

; 481  : 	
; 482  : 	D3DXVECTOR3 v3Temp = m_v3Eye - v3Point;

  000a3	8b 85 88 fe ff
	ff		 mov	 eax, DWORD PTR _this$[ebp]
  000a9	83 c0 30	 add	 eax, 48			; 00000030H
  000ac	89 85 78 fe ff
	ff		 mov	 DWORD PTR _this$[ebp], eax
; File D:\Metin2 Server Files\mainline\SRC_2014\M2Data\include\d3dx8math.inl

; 263  :     return D3DXVECTOR3(x - v.x, y - v.y, z - v.z);

  000b2	8b 85 78 fe ff
	ff		 mov	 eax, DWORD PTR _this$[ebp]
  000b8	8b 4d 08	 mov	 ecx, DWORD PTR _v3Point$[ebp]
  000bb	f3 0f 10 00	 movss	 xmm0, DWORD PTR [eax]
  000bf	f3 0f 5c 01	 subss	 xmm0, DWORD PTR [ecx]
  000c3	f3 0f 11 85 68
	fe ff ff	 movss	 DWORD PTR _fx$[ebp], xmm0
  000cb	8b 85 78 fe ff
	ff		 mov	 eax, DWORD PTR _this$[ebp]
  000d1	8b 4d 08	 mov	 ecx, DWORD PTR _v3Point$[ebp]
  000d4	f3 0f 10 40 04	 movss	 xmm0, DWORD PTR [eax+4]
  000d9	f3 0f 5c 41 04	 subss	 xmm0, DWORD PTR [ecx+4]
  000de	f3 0f 11 85 64
	fe ff ff	 movss	 DWORD PTR _fy$[ebp], xmm0
  000e6	8b 85 78 fe ff
	ff		 mov	 eax, DWORD PTR _this$[ebp]
  000ec	8b 4d 08	 mov	 ecx, DWORD PTR _v3Point$[ebp]
  000ef	f3 0f 10 40 08	 movss	 xmm0, DWORD PTR [eax+8]
  000f4	f3 0f 5c 41 08	 subss	 xmm0, DWORD PTR [ecx+8]
  000f9	f3 0f 11 85 60
	fe ff ff	 movss	 DWORD PTR _fz$[ebp], xmm0

; 180  :     x = fx;

  00101	f3 0f 10 85 68
	fe ff ff	 movss	 xmm0, DWORD PTR _fx$[ebp]
  00109	f3 0f 11 45 f0	 movss	 DWORD PTR _v3Temp$[ebp], xmm0

; 181  :     y = fy;

  0010e	f3 0f 10 85 64
	fe ff ff	 movss	 xmm0, DWORD PTR _fy$[ebp]
  00116	f3 0f 11 45 f4	 movss	 DWORD PTR _v3Temp$[ebp+4], xmm0

; 182  :     z = fz;

  0011b	f3 0f 10 85 60
	fe ff ff	 movss	 xmm0, DWORD PTR _fz$[ebp]
  00123	f3 0f 11 45 f8	 movss	 DWORD PTR _v3Temp$[ebp+8], xmm0
; File D:\Metin2 Server Files\mainline\SRC_2014\Metin2Client\EterLib\Camera.cpp

; 483  : 	D3DXVec3TransformCoord(&m_v3Eye, &v3Temp, &matRot);

  00128	8d 45 8c	 lea	 eax, DWORD PTR _matRot$[ebp]
  0012b	50		 push	 eax
  0012c	8d 45 f0	 lea	 eax, DWORD PTR _v3Temp$[ebp]
  0012f	50		 push	 eax
  00130	8b 85 88 fe ff
	ff		 mov	 eax, DWORD PTR _this$[ebp]
  00136	83 c0 30	 add	 eax, 48			; 00000030H
  00139	50		 push	 eax
  0013a	e8 00 00 00 00	 call	 _D3DXVec3TransformCoord@12

; 484  : 	m_v3Eye += v3Point;

  0013f	8b 85 88 fe ff
	ff		 mov	 eax, DWORD PTR _this$[ebp]
  00145	83 c0 30	 add	 eax, 48			; 00000030H
  00148	89 85 84 fe ff
	ff		 mov	 DWORD PTR _this$[ebp], eax
; File D:\Metin2 Server Files\mainline\SRC_2014\M2Data\include\d3dx8math.inl

; 204  :     x += v.x;

  0014e	8b 85 84 fe ff
	ff		 mov	 eax, DWORD PTR _this$[ebp]
  00154	8b 4d 08	 mov	 ecx, DWORD PTR _v3Point$[ebp]
  00157	f3 0f 10 00	 movss	 xmm0, DWORD PTR [eax]
  0015b	f3 0f 58 01	 addss	 xmm0, DWORD PTR [ecx]
  0015f	8b 85 84 fe ff
	ff		 mov	 eax, DWORD PTR _this$[ebp]
  00165	f3 0f 11 00	 movss	 DWORD PTR [eax], xmm0

; 205  :     y += v.y;

  00169	8b 85 84 fe ff
	ff		 mov	 eax, DWORD PTR _this$[ebp]
  0016f	8b 4d 08	 mov	 ecx, DWORD PTR _v3Point$[ebp]
  00172	f3 0f 10 40 04	 movss	 xmm0, DWORD PTR [eax+4]
  00177	f3 0f 58 41 04	 addss	 xmm0, DWORD PTR [ecx+4]
  0017c	8b 85 84 fe ff
	ff		 mov	 eax, DWORD PTR _this$[ebp]
  00182	f3 0f 11 40 04	 movss	 DWORD PTR [eax+4], xmm0

; 206  :     z += v.z;

  00187	8b 85 84 fe ff
	ff		 mov	 eax, DWORD PTR _this$[ebp]
  0018d	8b 4d 08	 mov	 ecx, DWORD PTR _v3Point$[ebp]
  00190	f3 0f 10 40 08	 movss	 xmm0, DWORD PTR [eax+8]
  00195	f3 0f 58 41 08	 addss	 xmm0, DWORD PTR [ecx+8]
  0019a	8b 85 84 fe ff
	ff		 mov	 eax, DWORD PTR _this$[ebp]
  001a0	f3 0f 11 40 08	 movss	 DWORD PTR [eax+8], xmm0
; File D:\Metin2 Server Files\mainline\SRC_2014\Metin2Client\EterLib\Camera.cpp

; 486  : 	D3DXVec3TransformCoord(&m_v3Up, &(v3Temp + m_v3Up), &matRot);

  001a5	8b 85 88 fe ff
	ff		 mov	 eax, DWORD PTR _this$[ebp]
  001ab	83 c0 48	 add	 eax, 72			; 00000048H
  001ae	89 85 74 fe ff
	ff		 mov	 DWORD PTR _v$[ebp], eax
; File D:\Metin2 Server Files\mainline\SRC_2014\M2Data\include\d3dx8math.inl

; 257  :     return D3DXVECTOR3(x + v.x, y + v.y, z + v.z);

  001b4	8b 85 74 fe ff
	ff		 mov	 eax, DWORD PTR _v$[ebp]
  001ba	f3 0f 10 45 f0	 movss	 xmm0, DWORD PTR _v3Temp$[ebp]
  001bf	f3 0f 58 00	 addss	 xmm0, DWORD PTR [eax]
  001c3	f3 0f 11 85 5c
	fe ff ff	 movss	 DWORD PTR _fx$[ebp], xmm0
  001cb	8b 85 74 fe ff
	ff		 mov	 eax, DWORD PTR _v$[ebp]
  001d1	f3 0f 10 45 f4	 movss	 xmm0, DWORD PTR _v3Temp$[ebp+4]
  001d6	f3 0f 58 40 04	 addss	 xmm0, DWORD PTR [eax+4]
  001db	f3 0f 11 85 58
	fe ff ff	 movss	 DWORD PTR _fy$[ebp], xmm0
  001e3	8b 85 74 fe ff
	ff		 mov	 eax, DWORD PTR _v$[ebp]
  001e9	f3 0f 10 45 f8	 movss	 xmm0, DWORD PTR _v3Temp$[ebp+8]
  001ee	f3 0f 58 40 08	 addss	 xmm0, DWORD PTR [eax+8]
  001f3	f3 0f 11 85 54
	fe ff ff	 movss	 DWORD PTR _fz$[ebp], xmm0

; 180  :     x = fx;

  001fb	f3 0f 10 85 5c
	fe ff ff	 movss	 xmm0, DWORD PTR _fx$[ebp]
  00203	f3 0f 11 45 d8	 movss	 DWORD PTR $T4[ebp], xmm0

; 181  :     y = fy;

  00208	f3 0f 10 85 58
	fe ff ff	 movss	 xmm0, DWORD PTR _fy$[ebp]
  00210	f3 0f 11 45 dc	 movss	 DWORD PTR $T4[ebp+4], xmm0

; 182  :     z = fz;

  00215	f3 0f 10 85 54
	fe ff ff	 movss	 xmm0, DWORD PTR _fz$[ebp]
  0021d	f3 0f 11 45 e0	 movss	 DWORD PTR $T4[ebp+8], xmm0
; File D:\Metin2 Server Files\mainline\SRC_2014\Metin2Client\EterLib\Camera.cpp

; 486  : 	D3DXVec3TransformCoord(&m_v3Up, &(v3Temp + m_v3Up), &matRot);

  00222	8d 45 8c	 lea	 eax, DWORD PTR _matRot$[ebp]
  00225	50		 push	 eax
  00226	8d 45 d8	 lea	 eax, DWORD PTR $T4[ebp]
  00229	50		 push	 eax
  0022a	8b 85 88 fe ff
	ff		 mov	 eax, DWORD PTR _this$[ebp]
  00230	83 c0 48	 add	 eax, 72			; 00000048H
  00233	50		 push	 eax
  00234	e8 00 00 00 00	 call	 _D3DXVec3TransformCoord@12

; 487  : 	m_v3Up -= (m_v3Eye - v3Point);

  00239	8b 85 88 fe ff
	ff		 mov	 eax, DWORD PTR _this$[ebp]
  0023f	83 c0 30	 add	 eax, 48			; 00000030H
  00242	89 85 70 fe ff
	ff		 mov	 DWORD PTR _this$[ebp], eax
; File D:\Metin2 Server Files\mainline\SRC_2014\M2Data\include\d3dx8math.inl

; 263  :     return D3DXVECTOR3(x - v.x, y - v.y, z - v.z);

  00248	8b 85 70 fe ff
	ff		 mov	 eax, DWORD PTR _this$[ebp]
  0024e	8b 4d 08	 mov	 ecx, DWORD PTR _v3Point$[ebp]
  00251	f3 0f 10 00	 movss	 xmm0, DWORD PTR [eax]
  00255	f3 0f 5c 01	 subss	 xmm0, DWORD PTR [ecx]
  00259	f3 0f 11 85 50
	fe ff ff	 movss	 DWORD PTR _fx$[ebp], xmm0
  00261	8b 85 70 fe ff
	ff		 mov	 eax, DWORD PTR _this$[ebp]
  00267	8b 4d 08	 mov	 ecx, DWORD PTR _v3Point$[ebp]
  0026a	f3 0f 10 40 04	 movss	 xmm0, DWORD PTR [eax+4]
  0026f	f3 0f 5c 41 04	 subss	 xmm0, DWORD PTR [ecx+4]
  00274	f3 0f 11 85 4c
	fe ff ff	 movss	 DWORD PTR _fy$[ebp], xmm0
  0027c	8b 85 70 fe ff
	ff		 mov	 eax, DWORD PTR _this$[ebp]
  00282	8b 4d 08	 mov	 ecx, DWORD PTR _v3Point$[ebp]
  00285	f3 0f 10 40 08	 movss	 xmm0, DWORD PTR [eax+8]
  0028a	f3 0f 5c 41 08	 subss	 xmm0, DWORD PTR [ecx+8]
  0028f	f3 0f 11 85 48
	fe ff ff	 movss	 DWORD PTR _fz$[ebp], xmm0

; 180  :     x = fx;

  00297	f3 0f 10 85 50
	fe ff ff	 movss	 xmm0, DWORD PTR _fx$[ebp]
  0029f	f3 0f 11 45 e4	 movss	 DWORD PTR $T5[ebp], xmm0

; 181  :     y = fy;

  002a4	f3 0f 10 85 4c
	fe ff ff	 movss	 xmm0, DWORD PTR _fy$[ebp]
  002ac	f3 0f 11 45 e8	 movss	 DWORD PTR $T5[ebp+4], xmm0

; 182  :     z = fz;

  002b1	f3 0f 10 85 48
	fe ff ff	 movss	 xmm0, DWORD PTR _fz$[ebp]
  002b9	f3 0f 11 45 ec	 movss	 DWORD PTR $T5[ebp+8], xmm0
; File D:\Metin2 Server Files\mainline\SRC_2014\Metin2Client\EterLib\Camera.cpp

; 487  : 	m_v3Up -= (m_v3Eye - v3Point);

  002be	8b 85 88 fe ff
	ff		 mov	 eax, DWORD PTR _this$[ebp]
  002c4	83 c0 48	 add	 eax, 72			; 00000048H
  002c7	89 85 80 fe ff
	ff		 mov	 DWORD PTR _this$[ebp], eax
; File D:\Metin2 Server Files\mainline\SRC_2014\M2Data\include\d3dx8math.inl

; 213  :     x -= v.x;

  002cd	8b 85 80 fe ff
	ff		 mov	 eax, DWORD PTR _this$[ebp]
  002d3	f3 0f 10 00	 movss	 xmm0, DWORD PTR [eax]
  002d7	f3 0f 5c 45 e4	 subss	 xmm0, DWORD PTR $T5[ebp]
  002dc	8b 85 80 fe ff
	ff		 mov	 eax, DWORD PTR _this$[ebp]
  002e2	f3 0f 11 00	 movss	 DWORD PTR [eax], xmm0

; 214  :     y -= v.y;

  002e6	8b 85 80 fe ff
	ff		 mov	 eax, DWORD PTR _this$[ebp]
  002ec	f3 0f 10 40 04	 movss	 xmm0, DWORD PTR [eax+4]
  002f1	f3 0f 5c 45 e8	 subss	 xmm0, DWORD PTR $T5[ebp+4]
  002f6	8b 85 80 fe ff
	ff		 mov	 eax, DWORD PTR _this$[ebp]
  002fc	f3 0f 11 40 04	 movss	 DWORD PTR [eax+4], xmm0

; 215  :     z -= v.z;

  00301	8b 85 80 fe ff
	ff		 mov	 eax, DWORD PTR _this$[ebp]
  00307	f3 0f 10 40 08	 movss	 xmm0, DWORD PTR [eax+8]
  0030c	f3 0f 5c 45 ec	 subss	 xmm0, DWORD PTR $T5[ebp+8]
  00311	8b 85 80 fe ff
	ff		 mov	 eax, DWORD PTR _this$[ebp]
  00317	f3 0f 11 40 08	 movss	 DWORD PTR [eax+8], xmm0
; File D:\Metin2 Server Files\mainline\SRC_2014\Metin2Client\EterLib\Camera.cpp

; 489  : 	v3Temp = m_v3Target - v3Point;

  0031c	8b 85 88 fe ff
	ff		 mov	 eax, DWORD PTR _this$[ebp]
  00322	83 c0 3c	 add	 eax, 60			; 0000003cH
  00325	89 85 6c fe ff
	ff		 mov	 DWORD PTR _this$[ebp], eax
; File D:\Metin2 Server Files\mainline\SRC_2014\M2Data\include\d3dx8math.inl

; 263  :     return D3DXVECTOR3(x - v.x, y - v.y, z - v.z);

  0032b	8b 85 6c fe ff
	ff		 mov	 eax, DWORD PTR _this$[ebp]
  00331	8b 4d 08	 mov	 ecx, DWORD PTR _v3Point$[ebp]
  00334	f3 0f 10 00	 movss	 xmm0, DWORD PTR [eax]
  00338	f3 0f 5c 01	 subss	 xmm0, DWORD PTR [ecx]
  0033c	f3 0f 11 85 44
	fe ff ff	 movss	 DWORD PTR _fx$[ebp], xmm0
  00344	8b 85 6c fe ff
	ff		 mov	 eax, DWORD PTR _this$[ebp]
  0034a	8b 4d 08	 mov	 ecx, DWORD PTR _v3Point$[ebp]
  0034d	f3 0f 10 40 04	 movss	 xmm0, DWORD PTR [eax+4]
  00352	f3 0f 5c 41 04	 subss	 xmm0, DWORD PTR [ecx+4]
  00357	f3 0f 11 85 40
	fe ff ff	 movss	 DWORD PTR _fy$[ebp], xmm0
  0035f	8b 85 6c fe ff
	ff		 mov	 eax, DWORD PTR _this$[ebp]
  00365	8b 4d 08	 mov	 ecx, DWORD PTR _v3Point$[ebp]
  00368	f3 0f 10 40 08	 movss	 xmm0, DWORD PTR [eax+8]
  0036d	f3 0f 5c 41 08	 subss	 xmm0, DWORD PTR [ecx+8]
  00372	f3 0f 11 85 3c
	fe ff ff	 movss	 DWORD PTR _fz$[ebp], xmm0

; 180  :     x = fx;

  0037a	f3 0f 10 85 44
	fe ff ff	 movss	 xmm0, DWORD PTR _fx$[ebp]
  00382	f3 0f 11 45 cc	 movss	 DWORD PTR $T3[ebp], xmm0

; 181  :     y = fy;

  00387	f3 0f 10 85 40
	fe ff ff	 movss	 xmm0, DWORD PTR _fy$[ebp]
  0038f	f3 0f 11 45 d0	 movss	 DWORD PTR $T3[ebp+4], xmm0

; 182  :     z = fz;

  00394	f3 0f 10 85 3c
	fe ff ff	 movss	 xmm0, DWORD PTR _fz$[ebp]
  0039c	f3 0f 11 45 d4	 movss	 DWORD PTR $T3[ebp+8], xmm0
; File D:\Metin2 Server Files\mainline\SRC_2014\Metin2Client\EterLib\Camera.cpp

; 489  : 	v3Temp = m_v3Target - v3Point;

  003a1	8d 75 cc	 lea	 esi, DWORD PTR $T3[ebp]
  003a4	8d 7d f0	 lea	 edi, DWORD PTR _v3Temp$[ebp]
  003a7	a5		 movsd
  003a8	a5		 movsd
  003a9	a5		 movsd

; 490  : 	D3DXVec3TransformCoord(&m_v3Target, &v3Temp, &matRot);

  003aa	8d 45 8c	 lea	 eax, DWORD PTR _matRot$[ebp]
  003ad	50		 push	 eax
  003ae	8d 45 f0	 lea	 eax, DWORD PTR _v3Temp$[ebp]
  003b1	50		 push	 eax
  003b2	8b 85 88 fe ff
	ff		 mov	 eax, DWORD PTR _this$[ebp]
  003b8	83 c0 3c	 add	 eax, 60			; 0000003cH
  003bb	50		 push	 eax
  003bc	e8 00 00 00 00	 call	 _D3DXVec3TransformCoord@12

; 491  : 	m_v3Target += v3Point;

  003c1	8b 85 88 fe ff
	ff		 mov	 eax, DWORD PTR _this$[ebp]
  003c7	83 c0 3c	 add	 eax, 60			; 0000003cH
  003ca	89 85 7c fe ff
	ff		 mov	 DWORD PTR _this$[ebp], eax
; File D:\Metin2 Server Files\mainline\SRC_2014\M2Data\include\d3dx8math.inl

; 204  :     x += v.x;

  003d0	8b 85 7c fe ff
	ff		 mov	 eax, DWORD PTR _this$[ebp]
  003d6	8b 4d 08	 mov	 ecx, DWORD PTR _v3Point$[ebp]
  003d9	f3 0f 10 00	 movss	 xmm0, DWORD PTR [eax]
  003dd	f3 0f 58 01	 addss	 xmm0, DWORD PTR [ecx]
  003e1	8b 85 7c fe ff
	ff		 mov	 eax, DWORD PTR _this$[ebp]
  003e7	f3 0f 11 00	 movss	 DWORD PTR [eax], xmm0

; 205  :     y += v.y;

  003eb	8b 85 7c fe ff
	ff		 mov	 eax, DWORD PTR _this$[ebp]
  003f1	8b 4d 08	 mov	 ecx, DWORD PTR _v3Point$[ebp]
  003f4	f3 0f 10 40 04	 movss	 xmm0, DWORD PTR [eax+4]
  003f9	f3 0f 58 41 04	 addss	 xmm0, DWORD PTR [ecx+4]
  003fe	8b 85 7c fe ff
	ff		 mov	 eax, DWORD PTR _this$[ebp]
  00404	f3 0f 11 40 04	 movss	 DWORD PTR [eax+4], xmm0

; 206  :     z += v.z;

  00409	8b 85 7c fe ff
	ff		 mov	 eax, DWORD PTR _this$[ebp]
  0040f	8b 4d 08	 mov	 ecx, DWORD PTR _v3Point$[ebp]
  00412	f3 0f 10 40 08	 movss	 xmm0, DWORD PTR [eax+8]
  00417	f3 0f 58 41 08	 addss	 xmm0, DWORD PTR [ecx+8]
  0041c	8b 85 7c fe ff
	ff		 mov	 eax, DWORD PTR _this$[ebp]
  00422	f3 0f 11 40 08	 movss	 DWORD PTR [eax+8], xmm0
; File D:\Metin2 Server Files\mainline\SRC_2014\Metin2Client\EterLib\Camera.cpp

; 493  : 	SetViewMatrix();

  00427	8b 8d 88 fe ff
	ff		 mov	 ecx, DWORD PTR _this$[ebp]
  0042d	e8 00 00 00 00	 call	 ?SetViewMatrix@CCamera@@IAEXXZ ; CCamera::SetViewMatrix

; 494  : }

  00432	5f		 pop	 edi
  00433	5e		 pop	 esi
  00434	8b 4d fc	 mov	 ecx, DWORD PTR __$ArrayPad$[ebp]
  00437	33 cd		 xor	 ecx, ebp
  00439	e8 00 00 00 00	 call	 @__security_check_cookie@4
  0043e	c9		 leave
  0043f	c2 0c 00	 ret	 12			; 0000000cH
?RotateEyeAroundPoint@CCamera@@QAEXABUD3DXVECTOR3@@MM@Z ENDP ; CCamera::RotateEyeAroundPoint
_TEXT	ENDS
; Function compile flags: /Odspy
; File D:\Metin2 Server Files\mainline\SRC_2014\Metin2Client\EterLib\Camera.cpp
; File D:\Metin2 Server Files\mainline\SRC_2014\M2Data\include\d3dx8math.inl
; File D:\Metin2 Server Files\mainline\SRC_2014\Metin2Client\EterLib\Camera.cpp
; File D:\Metin2 Server Files\mainline\SRC_2014\M2Data\include\d3dx8math.inl
; File D:\Metin2 Server Files\mainline\SRC_2014\Metin2Client\EterLib\Camera.cpp
; File D:\Metin2 Server Files\mainline\SRC_2014\M2Data\include\d3dx8math.inl
; File D:\Metin2 Server Files\mainline\SRC_2014\Metin2Client\EterLib\Camera.cpp
;	COMDAT ?RotateEyeAroundTarget@CCamera@@QAEXMM@Z
_TEXT	SEGMENT
_fz$ = -380						; size = 4
_fy$ = -376						; size = 4
_fx$ = -372						; size = 4
_v$ = -368						; size = 4
_v$ = -364						; size = 4
_this$ = -360						; size = 4
_this$ = -356						; size = 4
_this$ = -352						; size = 4
_matRot$ = -348						; size = 64
$T1 = -284						; size = 64
_matT$2 = -220						; size = 64
_matRotPitch$ = -156					; size = 64
_matRotRoll$ = -92					; size = 64
$T3 = -28						; size = 12
_v3Temp$ = -16						; size = 12
__$ArrayPad$ = -4					; size = 4
_fPitchDegree$ = 8					; size = 4
_fRollDegree$ = 12					; size = 4
?RotateEyeAroundTarget@CCamera@@QAEXMM@Z PROC		; CCamera::RotateEyeAroundTarget, COMDAT
; _this$ = ecx

; 435  : {

  00000	55		 push	 ebp
  00001	8b ec		 mov	 ebp, esp
  00003	81 ec 7c 01 00
	00		 sub	 esp, 380		; 0000017cH
  00009	a1 00 00 00 00	 mov	 eax, DWORD PTR ___security_cookie
  0000e	33 c5		 xor	 eax, ebp
  00010	89 45 fc	 mov	 DWORD PTR __$ArrayPad$[ebp], eax
  00013	56		 push	 esi
  00014	57		 push	 edi
  00015	89 8d a0 fe ff
	ff		 mov	 DWORD PTR _this$[ebp], ecx

; 436  : 	if (IsLock())

  0001b	8b 8d a0 fe ff
	ff		 mov	 ecx, DWORD PTR _this$[ebp]
  00021	e8 00 00 00 00	 call	 ?IsLock@CCamera@@QAE_NXZ ; CCamera::IsLock
  00026	0f b6 c0	 movzx	 eax, al
  00029	85 c0		 test	 eax, eax
  0002b	74 05		 je	 SHORT $LN2@RotateEyeA

; 437  : 		return;

  0002d	e9 f3 02 00 00	 jmp	 $LN1@RotateEyeA
$LN2@RotateEyeA:

; 438  : 
; 439  : 	D3DXMATRIX matRot, matRotPitch, matRotRoll;
; 440  : 
; 441  : 	//   ...
; 442  : 	if (m_fPitch + fPitchDegree > 80.0f)

  00032	8b 85 a0 fe ff
	ff		 mov	 eax, DWORD PTR _this$[ebp]
  00038	f3 0f 10 80 2c
	01 00 00	 movss	 xmm0, DWORD PTR [eax+300]
  00040	f3 0f 58 45 08	 addss	 xmm0, DWORD PTR _fPitchDegree$[ebp]
  00045	0f 2f 05 00 00
	00 00		 comiss	 xmm0, DWORD PTR __real@42a00000
  0004c	76 1d		 jbe	 SHORT $LN3@RotateEyeA

; 443  : 	{
; 444  : 		fPitchDegree = 80.0f - m_fPitch;

  0004e	8b 85 a0 fe ff
	ff		 mov	 eax, DWORD PTR _this$[ebp]
  00054	f3 0f 10 05 00
	00 00 00	 movss	 xmm0, DWORD PTR __real@42a00000
  0005c	f3 0f 5c 80 2c
	01 00 00	 subss	 xmm0, DWORD PTR [eax+300]
  00064	f3 0f 11 45 08	 movss	 DWORD PTR _fPitchDegree$[ebp], xmm0

; 445  : 	}

  00069	eb 3b		 jmp	 SHORT $LN5@RotateEyeA
$LN3@RotateEyeA:

; 446  : 	else if( m_fPitch + fPitchDegree < -80.0f)

  0006b	8b 85 a0 fe ff
	ff		 mov	 eax, DWORD PTR _this$[ebp]
  00071	f3 0f 10 80 2c
	01 00 00	 movss	 xmm0, DWORD PTR [eax+300]
  00079	f3 0f 58 45 08	 addss	 xmm0, DWORD PTR _fPitchDegree$[ebp]
  0007e	f3 0f 10 0d 00
	00 00 00	 movss	 xmm1, DWORD PTR __real@c2a00000
  00086	0f 2f c8	 comiss	 xmm1, xmm0
  00089	76 1b		 jbe	 SHORT $LN5@RotateEyeA

; 447  : 	{
; 448  : 		fPitchDegree = -80.0f - m_fPitch;

  0008b	8b 85 a0 fe ff
	ff		 mov	 eax, DWORD PTR _this$[ebp]
  00091	f3 0f 10 05 00
	00 00 00	 movss	 xmm0, DWORD PTR __real@c2a00000
  00099	f3 0f 5c 80 2c
	01 00 00	 subss	 xmm0, DWORD PTR [eax+300]
  000a1	f3 0f 11 45 08	 movss	 DWORD PTR _fPitchDegree$[ebp], xmm0
$LN5@RotateEyeA:

; 449  : 	}
; 450  : 
; 451  : 	D3DXMatrixRotationAxis(&matRotPitch, &m_v3Cross, D3DXToRadian(fPitchDegree));

  000a6	f3 0f 10 45 08	 movss	 xmm0, DWORD PTR _fPitchDegree$[ebp]
  000ab	f3 0f 59 05 00
	00 00 00	 mulss	 xmm0, DWORD PTR __real@3c8efa35
  000b3	51		 push	 ecx
  000b4	f3 0f 11 04 24	 movss	 DWORD PTR [esp], xmm0
  000b9	8b 85 a0 fe ff
	ff		 mov	 eax, DWORD PTR _this$[ebp]
  000bf	83 c0 60	 add	 eax, 96			; 00000060H
  000c2	50		 push	 eax
  000c3	8d 85 64 ff ff
	ff		 lea	 eax, DWORD PTR _matRotPitch$[ebp]
  000c9	50		 push	 eax
  000ca	e8 00 00 00 00	 call	 _D3DXMatrixRotationAxis@12

; 452  : 
; 453  : 	D3DXMatrixRotationZ(&matRotRoll, -D3DXToRadian(fRollDegree));

  000cf	f3 0f 10 45 0c	 movss	 xmm0, DWORD PTR _fRollDegree$[ebp]
  000d4	f3 0f 59 05 00
	00 00 00	 mulss	 xmm0, DWORD PTR __real@3c8efa35
  000dc	0f 57 05 00 00
	00 00		 xorps	 xmm0, DWORD PTR __xmm@80000000800000008000000080000000
  000e3	51		 push	 ecx
  000e4	f3 0f 11 04 24	 movss	 DWORD PTR [esp], xmm0
  000e9	8d 45 a4	 lea	 eax, DWORD PTR _matRotRoll$[ebp]
  000ec	50		 push	 eax
  000ed	e8 00 00 00 00	 call	 _D3DXMatrixRotationZ@8
; File D:\Metin2 Server Files\mainline\SRC_2014\M2Data\include\d3dx8math.inl

; 580  :     D3DXMatrixMultiply(&matT, this, &mat);

  000f2	8d 45 a4	 lea	 eax, DWORD PTR _matRotRoll$[ebp]
  000f5	50		 push	 eax
  000f6	8d 85 64 ff ff
	ff		 lea	 eax, DWORD PTR _matRotPitch$[ebp]
  000fc	50		 push	 eax
  000fd	8d 85 24 ff ff
	ff		 lea	 eax, DWORD PTR _matT$2[ebp]
  00103	50		 push	 eax
  00104	e8 00 00 00 00	 call	 _D3DXMatrixMultiply@12

; 581  :     return matT;

  00109	6a 10		 push	 16			; 00000010H
  0010b	59		 pop	 ecx
  0010c	8d b5 24 ff ff
	ff		 lea	 esi, DWORD PTR _matT$2[ebp]
  00112	8d bd e4 fe ff
	ff		 lea	 edi, DWORD PTR $T1[ebp]
  00118	f3 a5		 rep movsd
; File D:\Metin2 Server Files\mainline\SRC_2014\Metin2Client\EterLib\Camera.cpp

; 454  : 	matRot = matRotPitch * matRotRoll;

  0011a	6a 10		 push	 16			; 00000010H
  0011c	59		 pop	 ecx
  0011d	8d b5 e4 fe ff
	ff		 lea	 esi, DWORD PTR $T1[ebp]
  00123	8d bd a4 fe ff
	ff		 lea	 edi, DWORD PTR _matRot$[ebp]
  00129	f3 a5		 rep movsd

; 455  : 
; 456  : 	D3DXVECTOR3 v3Temp = m_v3Eye - m_v3Target;

  0012b	8b 85 a0 fe ff
	ff		 mov	 eax, DWORD PTR _this$[ebp]
  00131	83 c0 3c	 add	 eax, 60			; 0000003cH
  00134	89 85 94 fe ff
	ff		 mov	 DWORD PTR _v$[ebp], eax
  0013a	8b 85 a0 fe ff
	ff		 mov	 eax, DWORD PTR _this$[ebp]
  00140	83 c0 30	 add	 eax, 48			; 00000030H
  00143	89 85 98 fe ff
	ff		 mov	 DWORD PTR _this$[ebp], eax
; File D:\Metin2 Server Files\mainline\SRC_2014\M2Data\include\d3dx8math.inl

; 263  :     return D3DXVECTOR3(x - v.x, y - v.y, z - v.z);

  00149	8b 85 98 fe ff
	ff		 mov	 eax, DWORD PTR _this$[ebp]
  0014f	8b 8d 94 fe ff
	ff		 mov	 ecx, DWORD PTR _v$[ebp]
  00155	f3 0f 10 00	 movss	 xmm0, DWORD PTR [eax]
  00159	f3 0f 5c 01	 subss	 xmm0, DWORD PTR [ecx]
  0015d	f3 0f 11 85 8c
	fe ff ff	 movss	 DWORD PTR _fx$[ebp], xmm0
  00165	8b 85 98 fe ff
	ff		 mov	 eax, DWORD PTR _this$[ebp]
  0016b	8b 8d 94 fe ff
	ff		 mov	 ecx, DWORD PTR _v$[ebp]
  00171	f3 0f 10 40 04	 movss	 xmm0, DWORD PTR [eax+4]
  00176	f3 0f 5c 41 04	 subss	 xmm0, DWORD PTR [ecx+4]
  0017b	f3 0f 11 85 88
	fe ff ff	 movss	 DWORD PTR _fy$[ebp], xmm0
  00183	8b 85 98 fe ff
	ff		 mov	 eax, DWORD PTR _this$[ebp]
  00189	8b 8d 94 fe ff
	ff		 mov	 ecx, DWORD PTR _v$[ebp]
  0018f	f3 0f 10 40 08	 movss	 xmm0, DWORD PTR [eax+8]
  00194	f3 0f 5c 41 08	 subss	 xmm0, DWORD PTR [ecx+8]
  00199	f3 0f 11 85 84
	fe ff ff	 movss	 DWORD PTR _fz$[ebp], xmm0

; 180  :     x = fx;

  001a1	f3 0f 10 85 8c
	fe ff ff	 movss	 xmm0, DWORD PTR _fx$[ebp]
  001a9	f3 0f 11 45 f0	 movss	 DWORD PTR _v3Temp$[ebp], xmm0

; 181  :     y = fy;

  001ae	f3 0f 10 85 88
	fe ff ff	 movss	 xmm0, DWORD PTR _fy$[ebp]
  001b6	f3 0f 11 45 f4	 movss	 DWORD PTR _v3Temp$[ebp+4], xmm0

; 182  :     z = fz;

  001bb	f3 0f 10 85 84
	fe ff ff	 movss	 xmm0, DWORD PTR _fz$[ebp]
  001c3	f3 0f 11 45 f8	 movss	 DWORD PTR _v3Temp$[ebp+8], xmm0
; File D:\Metin2 Server Files\mainline\SRC_2014\Metin2Client\EterLib\Camera.cpp

; 457  : 	D3DXVec3TransformCoord(&m_v3Eye, &v3Temp, &matRot);

  001c8	8d 85 a4 fe ff
	ff		 lea	 eax, DWORD PTR _matRot$[ebp]
  001ce	50		 push	 eax
  001cf	8d 45 f0	 lea	 eax, DWORD PTR _v3Temp$[ebp]
  001d2	50		 push	 eax
  001d3	8b 85 a0 fe ff
	ff		 mov	 eax, DWORD PTR _this$[ebp]
  001d9	83 c0 30	 add	 eax, 48			; 00000030H
  001dc	50		 push	 eax
  001dd	e8 00 00 00 00	 call	 _D3DXVec3TransformCoord@12

; 458  : 	m_v3Eye += m_v3Target;

  001e2	8b 85 a0 fe ff
	ff		 mov	 eax, DWORD PTR _this$[ebp]
  001e8	83 c0 3c	 add	 eax, 60			; 0000003cH
  001eb	89 85 90 fe ff
	ff		 mov	 DWORD PTR _v$[ebp], eax
  001f1	8b 85 a0 fe ff
	ff		 mov	 eax, DWORD PTR _this$[ebp]
  001f7	83 c0 30	 add	 eax, 48			; 00000030H
  001fa	89 85 9c fe ff
	ff		 mov	 DWORD PTR _this$[ebp], eax
; File D:\Metin2 Server Files\mainline\SRC_2014\M2Data\include\d3dx8math.inl

; 204  :     x += v.x;

  00200	8b 85 9c fe ff
	ff		 mov	 eax, DWORD PTR _this$[ebp]
  00206	8b 8d 90 fe ff
	ff		 mov	 ecx, DWORD PTR _v$[ebp]
  0020c	f3 0f 10 00	 movss	 xmm0, DWORD PTR [eax]
  00210	f3 0f 58 01	 addss	 xmm0, DWORD PTR [ecx]
  00214	8b 85 9c fe ff
	ff		 mov	 eax, DWORD PTR _this$[ebp]
  0021a	f3 0f 11 00	 movss	 DWORD PTR [eax], xmm0

; 205  :     y += v.y;

  0021e	8b 85 9c fe ff
	ff		 mov	 eax, DWORD PTR _this$[ebp]
  00224	8b 8d 90 fe ff
	ff		 mov	 ecx, DWORD PTR _v$[ebp]
  0022a	f3 0f 10 40 04	 movss	 xmm0, DWORD PTR [eax+4]
  0022f	f3 0f 58 41 04	 addss	 xmm0, DWORD PTR [ecx+4]
  00234	8b 85 9c fe ff
	ff		 mov	 eax, DWORD PTR _this$[ebp]
  0023a	f3 0f 11 40 04	 movss	 DWORD PTR [eax+4], xmm0

; 206  :     z += v.z;

  0023f	8b 85 9c fe ff
	ff		 mov	 eax, DWORD PTR _this$[ebp]
  00245	8b 8d 90 fe ff
	ff		 mov	 ecx, DWORD PTR _v$[ebp]
  0024b	f3 0f 10 40 08	 movss	 xmm0, DWORD PTR [eax+8]
  00250	f3 0f 58 41 08	 addss	 xmm0, DWORD PTR [ecx+8]
  00255	8b 85 9c fe ff
	ff		 mov	 eax, DWORD PTR _this$[ebp]
  0025b	f3 0f 11 40 08	 movss	 DWORD PTR [eax+8], xmm0

; 180  :     x = fx;

  00260	0f 57 c0	 xorps	 xmm0, xmm0
  00263	f3 0f 11 45 e4	 movss	 DWORD PTR $T3[ebp], xmm0

; 181  :     y = fy;

  00268	0f 57 c0	 xorps	 xmm0, xmm0
  0026b	f3 0f 11 45 e8	 movss	 DWORD PTR $T3[ebp+4], xmm0

; 182  :     z = fz;

  00270	f3 0f 10 05 00
	00 00 00	 movss	 xmm0, DWORD PTR __real@3f800000
  00278	f3 0f 11 45 ec	 movss	 DWORD PTR $T3[ebp+8], xmm0
; File D:\Metin2 Server Files\mainline\SRC_2014\Metin2Client\EterLib\Camera.cpp

; 460  : 	SetUp(D3DXVECTOR3(0.0f, 0.0f, 1.0f));

  0027d	8d 45 e4	 lea	 eax, DWORD PTR $T3[ebp]
  00280	50		 push	 eax
  00281	8b 8d a0 fe ff
	ff		 mov	 ecx, DWORD PTR _this$[ebp]
  00287	e8 00 00 00 00	 call	 ?SetUp@CCamera@@QAEXABUD3DXVECTOR3@@@Z ; CCamera::SetUp

; 461  : 
; 462  : 	m_fRoll += fRollDegree;

  0028c	8b 85 a0 fe ff
	ff		 mov	 eax, DWORD PTR _this$[ebp]
  00292	f3 0f 10 80 30
	01 00 00	 movss	 xmm0, DWORD PTR [eax+304]
  0029a	f3 0f 58 45 0c	 addss	 xmm0, DWORD PTR _fRollDegree$[ebp]
  0029f	8b 85 a0 fe ff
	ff		 mov	 eax, DWORD PTR _this$[ebp]
  002a5	f3 0f 11 80 30
	01 00 00	 movss	 DWORD PTR [eax+304], xmm0

; 463  : 
; 464  : 	if (m_fRoll > 360.0f)

  002ad	8b 85 a0 fe ff
	ff		 mov	 eax, DWORD PTR _this$[ebp]
  002b3	f3 0f 10 80 30
	01 00 00	 movss	 xmm0, DWORD PTR [eax+304]
  002bb	0f 2f 05 00 00
	00 00		 comiss	 xmm0, DWORD PTR __real@43b40000
  002c2	76 26		 jbe	 SHORT $LN6@RotateEyeA

; 465  : 		m_fRoll -= 360.0f;

  002c4	8b 85 a0 fe ff
	ff		 mov	 eax, DWORD PTR _this$[ebp]
  002ca	f3 0f 10 80 30
	01 00 00	 movss	 xmm0, DWORD PTR [eax+304]
  002d2	f3 0f 5c 05 00
	00 00 00	 subss	 xmm0, DWORD PTR __real@43b40000
  002da	8b 85 a0 fe ff
	ff		 mov	 eax, DWORD PTR _this$[ebp]
  002e0	f3 0f 11 80 30
	01 00 00	 movss	 DWORD PTR [eax+304], xmm0
  002e8	eb 3b		 jmp	 SHORT $LN8@RotateEyeA
$LN6@RotateEyeA:

; 466  : 	else if (m_fRoll < -360.0f)

  002ea	8b 85 a0 fe ff
	ff		 mov	 eax, DWORD PTR _this$[ebp]
  002f0	f3 0f 10 05 00
	00 00 00	 movss	 xmm0, DWORD PTR __real@c3b40000
  002f8	0f 2f 80 30 01
	00 00		 comiss	 xmm0, DWORD PTR [eax+304]
  002ff	76 24		 jbe	 SHORT $LN8@RotateEyeA

; 467  : 		m_fRoll += 360.0f;

  00301	8b 85 a0 fe ff
	ff		 mov	 eax, DWORD PTR _this$[ebp]
  00307	f3 0f 10 80 30
	01 00 00	 movss	 xmm0, DWORD PTR [eax+304]
  0030f	f3 0f 58 05 00
	00 00 00	 addss	 xmm0, DWORD PTR __real@43b40000
  00317	8b 85 a0 fe ff
	ff		 mov	 eax, DWORD PTR _this$[ebp]
  0031d	f3 0f 11 80 30
	01 00 00	 movss	 DWORD PTR [eax+304], xmm0
$LN8@RotateEyeA:
$LN1@RotateEyeA:

; 468  : }

  00325	5f		 pop	 edi
  00326	5e		 pop	 esi
  00327	8b 4d fc	 mov	 ecx, DWORD PTR __$ArrayPad$[ebp]
  0032a	33 cd		 xor	 ecx, ebp
  0032c	e8 00 00 00 00	 call	 @__security_check_cookie@4
  00331	c9		 leave
  00332	c2 08 00	 ret	 8
?RotateEyeAroundTarget@CCamera@@QAEXMM@Z ENDP		; CCamera::RotateEyeAroundTarget
_TEXT	ENDS
; Function compile flags: /Odspy
; File D:\Metin2 Server Files\mainline\SRC_2014\Metin2Client\EterLib\Camera.cpp
;	COMDAT ?MoveVertical@CCamera@@QAEXM@Z
_TEXT	SEGMENT
_this$ = -4						; size = 4
_fDistance$ = 8						; size = 4
?MoveVertical@CCamera@@QAEXM@Z PROC			; CCamera::MoveVertical, COMDAT
; _this$ = ecx

; 412  : {

  00000	55		 push	 ebp
  00001	8b ec		 mov	 ebp, esp
  00003	51		 push	 ecx
  00004	89 4d fc	 mov	 DWORD PTR _this$[ebp], ecx

; 413  : 	if (IsLock())

  00007	8b 4d fc	 mov	 ecx, DWORD PTR _this$[ebp]
  0000a	e8 00 00 00 00	 call	 ?IsLock@CCamera@@QAE_NXZ ; CCamera::IsLock
  0000f	0f b6 c0	 movzx	 eax, al
  00012	85 c0		 test	 eax, eax
  00014	74 02		 je	 SHORT $LN2@MoveVertic

; 414  : 		return;

  00016	eb 32		 jmp	 SHORT $LN1@MoveVertic
$LN2@MoveVertic:

; 415  : 
; 416  : 	m_v3Eye.z += fDistance;

  00018	8b 45 fc	 mov	 eax, DWORD PTR _this$[ebp]
  0001b	f3 0f 10 40 38	 movss	 xmm0, DWORD PTR [eax+56]
  00020	f3 0f 58 45 08	 addss	 xmm0, DWORD PTR _fDistance$[ebp]
  00025	8b 45 fc	 mov	 eax, DWORD PTR _this$[ebp]
  00028	f3 0f 11 40 38	 movss	 DWORD PTR [eax+56], xmm0

; 417  : 	m_v3Target.z += fDistance;

  0002d	8b 45 fc	 mov	 eax, DWORD PTR _this$[ebp]
  00030	f3 0f 10 40 44	 movss	 xmm0, DWORD PTR [eax+68]
  00035	f3 0f 58 45 08	 addss	 xmm0, DWORD PTR _fDistance$[ebp]
  0003a	8b 45 fc	 mov	 eax, DWORD PTR _this$[ebp]
  0003d	f3 0f 11 40 44	 movss	 DWORD PTR [eax+68], xmm0

; 418  : 
; 419  : 	SetViewMatrix();

  00042	8b 4d fc	 mov	 ecx, DWORD PTR _this$[ebp]
  00045	e8 00 00 00 00	 call	 ?SetViewMatrix@CCamera@@IAEXXZ ; CCamera::SetViewMatrix
$LN1@MoveVertic:

; 420  : }

  0004a	c9		 leave
  0004b	c2 04 00	 ret	 4
?MoveVertical@CCamera@@QAEXM@Z ENDP			; CCamera::MoveVertical
_TEXT	ENDS
; Function compile flags: /Odspy
; File D:\Metin2 Server Files\mainline\SRC_2014\Metin2Client\EterLib\Camera.cpp
; File D:\Metin2 Server Files\mainline\SRC_2014\M2Data\include\d3dx8math.inl
; File D:\Metin2 Server Files\mainline\SRC_2014\Metin2Client\EterLib\Camera.cpp
; File D:\Metin2 Server Files\mainline\SRC_2014\M2Data\include\d3dx8math.inl
; File D:\Metin2 Server Files\mainline\SRC_2014\Metin2Client\EterLib\Camera.cpp
; File D:\Metin2 Server Files\mainline\SRC_2014\M2Data\include\d3dx8math.inl
; File D:\Metin2 Server Files\mainline\SRC_2014\Metin2Client\EterLib\Camera.cpp
; File D:\Metin2 Server Files\mainline\SRC_2014\M2Data\include\d3dx8math.inl
; File D:\Metin2 Server Files\mainline\SRC_2014\Metin2Client\EterLib\Camera.cpp
;	COMDAT ?MoveFront@CCamera@@QAEXM@Z
_TEXT	SEGMENT
_fz$ = -84						; size = 4
_fy$ = -80						; size = 4
_fx$ = -76						; size = 4
_fz$ = -72						; size = 4
_fy$ = -68						; size = 4
_fx$ = -64						; size = 4
_fy$ = -60						; size = 4
_fx$ = -56						; size = 4
_this$ = -52						; size = 4
_this$ = -48						; size = 4
_this$ = -44						; size = 4
$T1 = -40						; size = 12
$T2 = -28						; size = 12
_v3Temp$ = -16						; size = 12
__$ArrayPad$ = -4					; size = 4
_fDistance$ = 8						; size = 4
?MoveFront@CCamera@@QAEXM@Z PROC			; CCamera::MoveFront, COMDAT
; _this$ = ecx

; 398  : {	

  00000	55		 push	 ebp
  00001	8b ec		 mov	 ebp, esp
  00003	83 ec 54	 sub	 esp, 84			; 00000054H
  00006	a1 00 00 00 00	 mov	 eax, DWORD PTR ___security_cookie
  0000b	33 c5		 xor	 eax, ebp
  0000d	89 45 fc	 mov	 DWORD PTR __$ArrayPad$[ebp], eax
  00010	89 4d cc	 mov	 DWORD PTR _this$[ebp], ecx

; 399  : 	if (IsLock())

  00013	8b 4d cc	 mov	 ecx, DWORD PTR _this$[ebp]
  00016	e8 00 00 00 00	 call	 ?IsLock@CCamera@@QAE_NXZ ; CCamera::IsLock
  0001b	0f b6 c0	 movzx	 eax, al
  0001e	85 c0		 test	 eax, eax
  00020	74 05		 je	 SHORT $LN2@MoveFront

; 400  : 		return;

  00022	e9 6d 01 00 00	 jmp	 $LN1@MoveFront
$LN2@MoveFront:

; 401  : 
; 402  : 	D3DXVECTOR3 v3Temp = D3DXVECTOR3(m_v3View.x, m_v3View.y, 0.0f);

  00027	8b 45 cc	 mov	 eax, DWORD PTR _this$[ebp]
  0002a	f3 0f 10 40 54	 movss	 xmm0, DWORD PTR [eax+84]
  0002f	f3 0f 11 45 c8	 movss	 DWORD PTR _fx$[ebp], xmm0
  00034	8b 45 cc	 mov	 eax, DWORD PTR _this$[ebp]
  00037	f3 0f 10 40 58	 movss	 xmm0, DWORD PTR [eax+88]
  0003c	f3 0f 11 45 c4	 movss	 DWORD PTR _fy$[ebp], xmm0
; File D:\Metin2 Server Files\mainline\SRC_2014\M2Data\include\d3dx8math.inl

; 180  :     x = fx;

  00041	f3 0f 10 45 c8	 movss	 xmm0, DWORD PTR _fx$[ebp]
  00046	f3 0f 11 45 f0	 movss	 DWORD PTR _v3Temp$[ebp], xmm0

; 181  :     y = fy;

  0004b	f3 0f 10 45 c4	 movss	 xmm0, DWORD PTR _fy$[ebp]
  00050	f3 0f 11 45 f4	 movss	 DWORD PTR _v3Temp$[ebp+4], xmm0

; 182  :     z = fz;

  00055	0f 57 c0	 xorps	 xmm0, xmm0
  00058	f3 0f 11 45 f8	 movss	 DWORD PTR _v3Temp$[ebp+8], xmm0
; File D:\Metin2 Server Files\mainline\SRC_2014\Metin2Client\EterLib\Camera.cpp

; 403  : 	D3DXVec3Normalize(&v3Temp, &v3Temp);

  0005d	8d 45 f0	 lea	 eax, DWORD PTR _v3Temp$[ebp]
  00060	50		 push	 eax
  00061	8d 45 f0	 lea	 eax, DWORD PTR _v3Temp$[ebp]
  00064	50		 push	 eax
  00065	e8 00 00 00 00	 call	 _D3DXVec3Normalize@8
; File D:\Metin2 Server Files\mainline\SRC_2014\M2Data\include\d3dx8math.inl

; 269  :     return D3DXVECTOR3(x * f, y * f, z * f);

  0006a	f3 0f 10 45 f0	 movss	 xmm0, DWORD PTR _v3Temp$[ebp]
  0006f	f3 0f 59 45 08	 mulss	 xmm0, DWORD PTR _fDistance$[ebp]
  00074	f3 0f 11 45 c0	 movss	 DWORD PTR _fx$[ebp], xmm0
  00079	f3 0f 10 45 f4	 movss	 xmm0, DWORD PTR _v3Temp$[ebp+4]
  0007e	f3 0f 59 45 08	 mulss	 xmm0, DWORD PTR _fDistance$[ebp]
  00083	f3 0f 11 45 bc	 movss	 DWORD PTR _fy$[ebp], xmm0
  00088	f3 0f 10 45 f8	 movss	 xmm0, DWORD PTR _v3Temp$[ebp+8]
  0008d	f3 0f 59 45 08	 mulss	 xmm0, DWORD PTR _fDistance$[ebp]
  00092	f3 0f 11 45 b8	 movss	 DWORD PTR _fz$[ebp], xmm0

; 180  :     x = fx;

  00097	f3 0f 10 45 c0	 movss	 xmm0, DWORD PTR _fx$[ebp]
  0009c	f3 0f 11 45 e4	 movss	 DWORD PTR $T2[ebp], xmm0

; 181  :     y = fy;

  000a1	f3 0f 10 45 bc	 movss	 xmm0, DWORD PTR _fy$[ebp]
  000a6	f3 0f 11 45 e8	 movss	 DWORD PTR $T2[ebp+4], xmm0

; 182  :     z = fz;

  000ab	f3 0f 10 45 b8	 movss	 xmm0, DWORD PTR _fz$[ebp]
  000b0	f3 0f 11 45 ec	 movss	 DWORD PTR $T2[ebp+8], xmm0
; File D:\Metin2 Server Files\mainline\SRC_2014\Metin2Client\EterLib\Camera.cpp

; 405  : 	m_v3Eye += v3Temp * fDistance; 

  000b5	8b 45 cc	 mov	 eax, DWORD PTR _this$[ebp]
  000b8	83 c0 30	 add	 eax, 48			; 00000030H
  000bb	89 45 d4	 mov	 DWORD PTR _this$[ebp], eax
; File D:\Metin2 Server Files\mainline\SRC_2014\M2Data\include\d3dx8math.inl

; 204  :     x += v.x;

  000be	8b 45 d4	 mov	 eax, DWORD PTR _this$[ebp]
  000c1	f3 0f 10 00	 movss	 xmm0, DWORD PTR [eax]
  000c5	f3 0f 58 45 e4	 addss	 xmm0, DWORD PTR $T2[ebp]
  000ca	8b 45 d4	 mov	 eax, DWORD PTR _this$[ebp]
  000cd	f3 0f 11 00	 movss	 DWORD PTR [eax], xmm0

; 205  :     y += v.y;

  000d1	8b 45 d4	 mov	 eax, DWORD PTR _this$[ebp]
  000d4	f3 0f 10 40 04	 movss	 xmm0, DWORD PTR [eax+4]
  000d9	f3 0f 58 45 e8	 addss	 xmm0, DWORD PTR $T2[ebp+4]
  000de	8b 45 d4	 mov	 eax, DWORD PTR _this$[ebp]
  000e1	f3 0f 11 40 04	 movss	 DWORD PTR [eax+4], xmm0

; 206  :     z += v.z;

  000e6	8b 45 d4	 mov	 eax, DWORD PTR _this$[ebp]
  000e9	f3 0f 10 40 08	 movss	 xmm0, DWORD PTR [eax+8]
  000ee	f3 0f 58 45 ec	 addss	 xmm0, DWORD PTR $T2[ebp+8]
  000f3	8b 45 d4	 mov	 eax, DWORD PTR _this$[ebp]
  000f6	f3 0f 11 40 08	 movss	 DWORD PTR [eax+8], xmm0

; 269  :     return D3DXVECTOR3(x * f, y * f, z * f);

  000fb	f3 0f 10 45 f0	 movss	 xmm0, DWORD PTR _v3Temp$[ebp]
  00100	f3 0f 59 45 08	 mulss	 xmm0, DWORD PTR _fDistance$[ebp]
  00105	f3 0f 11 45 b4	 movss	 DWORD PTR _fx$[ebp], xmm0
  0010a	f3 0f 10 45 f4	 movss	 xmm0, DWORD PTR _v3Temp$[ebp+4]
  0010f	f3 0f 59 45 08	 mulss	 xmm0, DWORD PTR _fDistance$[ebp]
  00114	f3 0f 11 45 b0	 movss	 DWORD PTR _fy$[ebp], xmm0
  00119	f3 0f 10 45 f8	 movss	 xmm0, DWORD PTR _v3Temp$[ebp+8]
  0011e	f3 0f 59 45 08	 mulss	 xmm0, DWORD PTR _fDistance$[ebp]
  00123	f3 0f 11 45 ac	 movss	 DWORD PTR _fz$[ebp], xmm0

; 180  :     x = fx;

  00128	f3 0f 10 45 b4	 movss	 xmm0, DWORD PTR _fx$[ebp]
  0012d	f3 0f 11 45 d8	 movss	 DWORD PTR $T1[ebp], xmm0

; 181  :     y = fy;

  00132	f3 0f 10 45 b0	 movss	 xmm0, DWORD PTR _fy$[ebp]
  00137	f3 0f 11 45 dc	 movss	 DWORD PTR $T1[ebp+4], xmm0

; 182  :     z = fz;

  0013c	f3 0f 10 45 ac	 movss	 xmm0, DWORD PTR _fz$[ebp]
  00141	f3 0f 11 45 e0	 movss	 DWORD PTR $T1[ebp+8], xmm0
; File D:\Metin2 Server Files\mainline\SRC_2014\Metin2Client\EterLib\Camera.cpp

; 406  : 	m_v3Target += v3Temp * fDistance;

  00146	8b 45 cc	 mov	 eax, DWORD PTR _this$[ebp]
  00149	83 c0 3c	 add	 eax, 60			; 0000003cH
  0014c	89 45 d0	 mov	 DWORD PTR _this$[ebp], eax
; File D:\Metin2 Server Files\mainline\SRC_2014\M2Data\include\d3dx8math.inl

; 204  :     x += v.x;

  0014f	8b 45 d0	 mov	 eax, DWORD PTR _this$[ebp]
  00152	f3 0f 10 00	 movss	 xmm0, DWORD PTR [eax]
  00156	f3 0f 58 45 d8	 addss	 xmm0, DWORD PTR $T1[ebp]
  0015b	8b 45 d0	 mov	 eax, DWORD PTR _this$[ebp]
  0015e	f3 0f 11 00	 movss	 DWORD PTR [eax], xmm0

; 205  :     y += v.y;

  00162	8b 45 d0	 mov	 eax, DWORD PTR _this$[ebp]
  00165	f3 0f 10 40 04	 movss	 xmm0, DWORD PTR [eax+4]
  0016a	f3 0f 58 45 dc	 addss	 xmm0, DWORD PTR $T1[ebp+4]
  0016f	8b 45 d0	 mov	 eax, DWORD PTR _this$[ebp]
  00172	f3 0f 11 40 04	 movss	 DWORD PTR [eax+4], xmm0

; 206  :     z += v.z;

  00177	8b 45 d0	 mov	 eax, DWORD PTR _this$[ebp]
  0017a	f3 0f 10 40 08	 movss	 xmm0, DWORD PTR [eax+8]
  0017f	f3 0f 58 45 e0	 addss	 xmm0, DWORD PTR $T1[ebp+8]
  00184	8b 45 d0	 mov	 eax, DWORD PTR _this$[ebp]
  00187	f3 0f 11 40 08	 movss	 DWORD PTR [eax+8], xmm0
; File D:\Metin2 Server Files\mainline\SRC_2014\Metin2Client\EterLib\Camera.cpp

; 408  : 	SetViewMatrix();	

  0018c	8b 4d cc	 mov	 ecx, DWORD PTR _this$[ebp]
  0018f	e8 00 00 00 00	 call	 ?SetViewMatrix@CCamera@@IAEXXZ ; CCamera::SetViewMatrix
$LN1@MoveFront:

; 409  : }

  00194	8b 4d fc	 mov	 ecx, DWORD PTR __$ArrayPad$[ebp]
  00197	33 cd		 xor	 ecx, ebp
  00199	e8 00 00 00 00	 call	 @__security_check_cookie@4
  0019e	c9		 leave
  0019f	c2 04 00	 ret	 4
?MoveFront@CCamera@@QAEXM@Z ENDP			; CCamera::MoveFront
_TEXT	ENDS
; Function compile flags: /Odspy
; File D:\Metin2 Server Files\mainline\SRC_2014\Metin2Client\EterLib\Camera.cpp
;	COMDAT ?MoveLateral@CCamera@@QAEXM@Z
_TEXT	SEGMENT
_this$ = -4						; size = 4
_fDistance$ = 8						; size = 4
?MoveLateral@CCamera@@QAEXM@Z PROC			; CCamera::MoveLateral, COMDAT
; _this$ = ecx

; 390  : {

  00000	55		 push	 ebp
  00001	8b ec		 mov	 ebp, esp
  00003	51		 push	 ecx
  00004	89 4d fc	 mov	 DWORD PTR _this$[ebp], ecx

; 391  : 	if (IsLock())

  00007	8b 4d fc	 mov	 ecx, DWORD PTR _this$[ebp]
  0000a	e8 00 00 00 00	 call	 ?IsLock@CCamera@@QAE_NXZ ; CCamera::IsLock
  0000f	0f b6 c0	 movzx	 eax, al
  00012	85 c0		 test	 eax, eax
  00014	74 02		 je	 SHORT $LN2@MoveLatera

; 392  : 		return;

  00016	eb 13		 jmp	 SHORT $LN1@MoveLatera
$LN2@MoveLatera:

; 393  : 
; 394  : 	MoveAlongCross(fDistance);

  00018	51		 push	 ecx
  00019	f3 0f 10 45 08	 movss	 xmm0, DWORD PTR _fDistance$[ebp]
  0001e	f3 0f 11 04 24	 movss	 DWORD PTR [esp], xmm0
  00023	8b 4d fc	 mov	 ecx, DWORD PTR _this$[ebp]
  00026	e8 00 00 00 00	 call	 ?MoveAlongCross@CCamera@@QAEXM@Z ; CCamera::MoveAlongCross
$LN1@MoveLatera:

; 395  : }

  0002b	c9		 leave
  0002c	c2 04 00	 ret	 4
?MoveLateral@CCamera@@QAEXM@Z ENDP			; CCamera::MoveLateral
_TEXT	ENDS
; Function compile flags: /Odspy
; File D:\Metin2 Server Files\mainline\SRC_2014\Metin2Client\EterLib\Camera.cpp
; File D:\Metin2 Server Files\mainline\SRC_2014\M2Data\include\d3dx8math.inl
; File D:\Metin2 Server Files\mainline\SRC_2014\Metin2Client\EterLib\Camera.cpp
; File D:\Metin2 Server Files\mainline\SRC_2014\M2Data\include\d3dx8math.inl
; File D:\Metin2 Server Files\mainline\SRC_2014\Metin2Client\EterLib\Camera.cpp
; File D:\Metin2 Server Files\mainline\SRC_2014\M2Data\include\d3dx8math.inl
; File D:\Metin2 Server Files\mainline\SRC_2014\Metin2Client\EterLib\Camera.cpp
;	COMDAT ?MoveAlongUp@CCamera@@QAEXM@Z
_TEXT	SEGMENT
_fz$ = -76						; size = 4
_fy$ = -72						; size = 4
_fx$ = -68						; size = 4
_fz$ = -64						; size = 4
_fy$ = -60						; size = 4
_fx$ = -56						; size = 4
_this$ = -52						; size = 4
_this$ = -48						; size = 4
_this$ = -44						; size = 4
$T1 = -40						; size = 12
$T2 = -28						; size = 12
_v3Temp$ = -16						; size = 12
__$ArrayPad$ = -4					; size = 4
_fDistance$ = 8						; size = 4
?MoveAlongUp@CCamera@@QAEXM@Z PROC			; CCamera::MoveAlongUp, COMDAT
; _this$ = ecx

; 378  : {

  00000	55		 push	 ebp
  00001	8b ec		 mov	 ebp, esp
  00003	83 ec 4c	 sub	 esp, 76			; 0000004cH
  00006	a1 00 00 00 00	 mov	 eax, DWORD PTR ___security_cookie
  0000b	33 c5		 xor	 eax, ebp
  0000d	89 45 fc	 mov	 DWORD PTR __$ArrayPad$[ebp], eax
  00010	89 4d cc	 mov	 DWORD PTR _this$[ebp], ecx

; 379  : 	if (IsLock())

  00013	8b 4d cc	 mov	 ecx, DWORD PTR _this$[ebp]
  00016	e8 00 00 00 00	 call	 ?IsLock@CCamera@@QAE_NXZ ; CCamera::IsLock
  0001b	0f b6 c0	 movzx	 eax, al
  0001e	85 c0		 test	 eax, eax
  00020	74 05		 je	 SHORT $LN2@MoveAlongU

; 380  : 		return;

  00022	e9 3a 01 00 00	 jmp	 $LN1@MoveAlongU
$LN2@MoveAlongU:

; 381  : 
; 382  : 	D3DXVECTOR3 v3Temp ;
; 383  : 	D3DXVec3Normalize(&v3Temp, &m_v3Up);

  00027	8b 45 cc	 mov	 eax, DWORD PTR _this$[ebp]
  0002a	83 c0 48	 add	 eax, 72			; 00000048H
  0002d	50		 push	 eax
  0002e	8d 45 f0	 lea	 eax, DWORD PTR _v3Temp$[ebp]
  00031	50		 push	 eax
  00032	e8 00 00 00 00	 call	 _D3DXVec3Normalize@8
; File D:\Metin2 Server Files\mainline\SRC_2014\M2Data\include\d3dx8math.inl

; 269  :     return D3DXVECTOR3(x * f, y * f, z * f);

  00037	f3 0f 10 45 f0	 movss	 xmm0, DWORD PTR _v3Temp$[ebp]
  0003c	f3 0f 59 45 08	 mulss	 xmm0, DWORD PTR _fDistance$[ebp]
  00041	f3 0f 11 45 c8	 movss	 DWORD PTR _fx$[ebp], xmm0
  00046	f3 0f 10 45 f4	 movss	 xmm0, DWORD PTR _v3Temp$[ebp+4]
  0004b	f3 0f 59 45 08	 mulss	 xmm0, DWORD PTR _fDistance$[ebp]
  00050	f3 0f 11 45 c4	 movss	 DWORD PTR _fy$[ebp], xmm0
  00055	f3 0f 10 45 f8	 movss	 xmm0, DWORD PTR _v3Temp$[ebp+8]
  0005a	f3 0f 59 45 08	 mulss	 xmm0, DWORD PTR _fDistance$[ebp]
  0005f	f3 0f 11 45 c0	 movss	 DWORD PTR _fz$[ebp], xmm0

; 180  :     x = fx;

  00064	f3 0f 10 45 c8	 movss	 xmm0, DWORD PTR _fx$[ebp]
  00069	f3 0f 11 45 e4	 movss	 DWORD PTR $T2[ebp], xmm0

; 181  :     y = fy;

  0006e	f3 0f 10 45 c4	 movss	 xmm0, DWORD PTR _fy$[ebp]
  00073	f3 0f 11 45 e8	 movss	 DWORD PTR $T2[ebp+4], xmm0

; 182  :     z = fz;

  00078	f3 0f 10 45 c0	 movss	 xmm0, DWORD PTR _fz$[ebp]
  0007d	f3 0f 11 45 ec	 movss	 DWORD PTR $T2[ebp+8], xmm0
; File D:\Metin2 Server Files\mainline\SRC_2014\Metin2Client\EterLib\Camera.cpp

; 384  : 	m_v3Target += v3Temp * fDistance;

  00082	8b 45 cc	 mov	 eax, DWORD PTR _this$[ebp]
  00085	83 c0 3c	 add	 eax, 60			; 0000003cH
  00088	89 45 d4	 mov	 DWORD PTR _this$[ebp], eax
; File D:\Metin2 Server Files\mainline\SRC_2014\M2Data\include\d3dx8math.inl

; 204  :     x += v.x;

  0008b	8b 45 d4	 mov	 eax, DWORD PTR _this$[ebp]
  0008e	f3 0f 10 00	 movss	 xmm0, DWORD PTR [eax]
  00092	f3 0f 58 45 e4	 addss	 xmm0, DWORD PTR $T2[ebp]
  00097	8b 45 d4	 mov	 eax, DWORD PTR _this$[ebp]
  0009a	f3 0f 11 00	 movss	 DWORD PTR [eax], xmm0

; 205  :     y += v.y;

  0009e	8b 45 d4	 mov	 eax, DWORD PTR _this$[ebp]
  000a1	f3 0f 10 40 04	 movss	 xmm0, DWORD PTR [eax+4]
  000a6	f3 0f 58 45 e8	 addss	 xmm0, DWORD PTR $T2[ebp+4]
  000ab	8b 45 d4	 mov	 eax, DWORD PTR _this$[ebp]
  000ae	f3 0f 11 40 04	 movss	 DWORD PTR [eax+4], xmm0

; 206  :     z += v.z;

  000b3	8b 45 d4	 mov	 eax, DWORD PTR _this$[ebp]
  000b6	f3 0f 10 40 08	 movss	 xmm0, DWORD PTR [eax+8]
  000bb	f3 0f 58 45 ec	 addss	 xmm0, DWORD PTR $T2[ebp+8]
  000c0	8b 45 d4	 mov	 eax, DWORD PTR _this$[ebp]
  000c3	f3 0f 11 40 08	 movss	 DWORD PTR [eax+8], xmm0

; 269  :     return D3DXVECTOR3(x * f, y * f, z * f);

  000c8	f3 0f 10 45 f0	 movss	 xmm0, DWORD PTR _v3Temp$[ebp]
  000cd	f3 0f 59 45 08	 mulss	 xmm0, DWORD PTR _fDistance$[ebp]
  000d2	f3 0f 11 45 bc	 movss	 DWORD PTR _fx$[ebp], xmm0
  000d7	f3 0f 10 45 f4	 movss	 xmm0, DWORD PTR _v3Temp$[ebp+4]
  000dc	f3 0f 59 45 08	 mulss	 xmm0, DWORD PTR _fDistance$[ebp]
  000e1	f3 0f 11 45 b8	 movss	 DWORD PTR _fy$[ebp], xmm0
  000e6	f3 0f 10 45 f8	 movss	 xmm0, DWORD PTR _v3Temp$[ebp+8]
  000eb	f3 0f 59 45 08	 mulss	 xmm0, DWORD PTR _fDistance$[ebp]
  000f0	f3 0f 11 45 b4	 movss	 DWORD PTR _fz$[ebp], xmm0

; 180  :     x = fx;

  000f5	f3 0f 10 45 bc	 movss	 xmm0, DWORD PTR _fx$[ebp]
  000fa	f3 0f 11 45 d8	 movss	 DWORD PTR $T1[ebp], xmm0

; 181  :     y = fy;

  000ff	f3 0f 10 45 b8	 movss	 xmm0, DWORD PTR _fy$[ebp]
  00104	f3 0f 11 45 dc	 movss	 DWORD PTR $T1[ebp+4], xmm0

; 182  :     z = fz;

  00109	f3 0f 10 45 b4	 movss	 xmm0, DWORD PTR _fz$[ebp]
  0010e	f3 0f 11 45 e0	 movss	 DWORD PTR $T1[ebp+8], xmm0
; File D:\Metin2 Server Files\mainline\SRC_2014\Metin2Client\EterLib\Camera.cpp

; 385  : 	m_v3Eye += v3Temp * fDistance;

  00113	8b 45 cc	 mov	 eax, DWORD PTR _this$[ebp]
  00116	83 c0 30	 add	 eax, 48			; 00000030H
  00119	89 45 d0	 mov	 DWORD PTR _this$[ebp], eax
; File D:\Metin2 Server Files\mainline\SRC_2014\M2Data\include\d3dx8math.inl

; 204  :     x += v.x;

  0011c	8b 45 d0	 mov	 eax, DWORD PTR _this$[ebp]
  0011f	f3 0f 10 00	 movss	 xmm0, DWORD PTR [eax]
  00123	f3 0f 58 45 d8	 addss	 xmm0, DWORD PTR $T1[ebp]
  00128	8b 45 d0	 mov	 eax, DWORD PTR _this$[ebp]
  0012b	f3 0f 11 00	 movss	 DWORD PTR [eax], xmm0

; 205  :     y += v.y;

  0012f	8b 45 d0	 mov	 eax, DWORD PTR _this$[ebp]
  00132	f3 0f 10 40 04	 movss	 xmm0, DWORD PTR [eax+4]
  00137	f3 0f 58 45 dc	 addss	 xmm0, DWORD PTR $T1[ebp+4]
  0013c	8b 45 d0	 mov	 eax, DWORD PTR _this$[ebp]
  0013f	f3 0f 11 40 04	 movss	 DWORD PTR [eax+4], xmm0

; 206  :     z += v.z;

  00144	8b 45 d0	 mov	 eax, DWORD PTR _this$[ebp]
  00147	f3 0f 10 40 08	 movss	 xmm0, DWORD PTR [eax+8]
  0014c	f3 0f 58 45 e0	 addss	 xmm0, DWORD PTR $T1[ebp+8]
  00151	8b 45 d0	 mov	 eax, DWORD PTR _this$[ebp]
  00154	f3 0f 11 40 08	 movss	 DWORD PTR [eax+8], xmm0
; File D:\Metin2 Server Files\mainline\SRC_2014\Metin2Client\EterLib\Camera.cpp

; 386  : 	SetViewMatrix();

  00159	8b 4d cc	 mov	 ecx, DWORD PTR _this$[ebp]
  0015c	e8 00 00 00 00	 call	 ?SetViewMatrix@CCamera@@IAEXXZ ; CCamera::SetViewMatrix
$LN1@MoveAlongU:

; 387  : }

  00161	8b 4d fc	 mov	 ecx, DWORD PTR __$ArrayPad$[ebp]
  00164	33 cd		 xor	 ecx, ebp
  00166	e8 00 00 00 00	 call	 @__security_check_cookie@4
  0016b	c9		 leave
  0016c	c2 04 00	 ret	 4
?MoveAlongUp@CCamera@@QAEXM@Z ENDP			; CCamera::MoveAlongUp
_TEXT	ENDS
; Function compile flags: /Odspy
; File D:\Metin2 Server Files\mainline\SRC_2014\Metin2Client\EterLib\Camera.cpp
; File D:\Metin2 Server Files\mainline\SRC_2014\M2Data\include\d3dx8math.inl
; File D:\Metin2 Server Files\mainline\SRC_2014\Metin2Client\EterLib\Camera.cpp
; File D:\Metin2 Server Files\mainline\SRC_2014\M2Data\include\d3dx8math.inl
; File D:\Metin2 Server Files\mainline\SRC_2014\Metin2Client\EterLib\Camera.cpp
; File D:\Metin2 Server Files\mainline\SRC_2014\M2Data\include\d3dx8math.inl
; File D:\Metin2 Server Files\mainline\SRC_2014\Metin2Client\EterLib\Camera.cpp
;	COMDAT ?MoveAlongCross@CCamera@@QAEXM@Z
_TEXT	SEGMENT
_fz$ = -76						; size = 4
_fy$ = -72						; size = 4
_fx$ = -68						; size = 4
_fz$ = -64						; size = 4
_fy$ = -60						; size = 4
_fx$ = -56						; size = 4
_this$ = -52						; size = 4
_this$ = -48						; size = 4
_this$ = -44						; size = 4
$T1 = -40						; size = 12
$T2 = -28						; size = 12
_v3Temp$ = -16						; size = 12
__$ArrayPad$ = -4					; size = 4
_fDistance$ = 8						; size = 4
?MoveAlongCross@CCamera@@QAEXM@Z PROC			; CCamera::MoveAlongCross, COMDAT
; _this$ = ecx

; 364  : {

  00000	55		 push	 ebp
  00001	8b ec		 mov	 ebp, esp
  00003	83 ec 4c	 sub	 esp, 76			; 0000004cH
  00006	a1 00 00 00 00	 mov	 eax, DWORD PTR ___security_cookie
  0000b	33 c5		 xor	 eax, ebp
  0000d	89 45 fc	 mov	 DWORD PTR __$ArrayPad$[ebp], eax
  00010	89 4d cc	 mov	 DWORD PTR _this$[ebp], ecx

; 365  : 	if (IsLock())

  00013	8b 4d cc	 mov	 ecx, DWORD PTR _this$[ebp]
  00016	e8 00 00 00 00	 call	 ?IsLock@CCamera@@QAE_NXZ ; CCamera::IsLock
  0001b	0f b6 c0	 movzx	 eax, al
  0001e	85 c0		 test	 eax, eax
  00020	74 05		 je	 SHORT $LN2@MoveAlongC

; 366  : 		return;

  00022	e9 3a 01 00 00	 jmp	 $LN1@MoveAlongC
$LN2@MoveAlongC:

; 367  : 
; 368  : 	D3DXVECTOR3 v3Temp;
; 369  : 	D3DXVec3Normalize(&v3Temp, &m_v3Cross);

  00027	8b 45 cc	 mov	 eax, DWORD PTR _this$[ebp]
  0002a	83 c0 60	 add	 eax, 96			; 00000060H
  0002d	50		 push	 eax
  0002e	8d 45 f0	 lea	 eax, DWORD PTR _v3Temp$[ebp]
  00031	50		 push	 eax
  00032	e8 00 00 00 00	 call	 _D3DXVec3Normalize@8
; File D:\Metin2 Server Files\mainline\SRC_2014\M2Data\include\d3dx8math.inl

; 269  :     return D3DXVECTOR3(x * f, y * f, z * f);

  00037	f3 0f 10 45 f0	 movss	 xmm0, DWORD PTR _v3Temp$[ebp]
  0003c	f3 0f 59 45 08	 mulss	 xmm0, DWORD PTR _fDistance$[ebp]
  00041	f3 0f 11 45 c8	 movss	 DWORD PTR _fx$[ebp], xmm0
  00046	f3 0f 10 45 f4	 movss	 xmm0, DWORD PTR _v3Temp$[ebp+4]
  0004b	f3 0f 59 45 08	 mulss	 xmm0, DWORD PTR _fDistance$[ebp]
  00050	f3 0f 11 45 c4	 movss	 DWORD PTR _fy$[ebp], xmm0
  00055	f3 0f 10 45 f8	 movss	 xmm0, DWORD PTR _v3Temp$[ebp+8]
  0005a	f3 0f 59 45 08	 mulss	 xmm0, DWORD PTR _fDistance$[ebp]
  0005f	f3 0f 11 45 c0	 movss	 DWORD PTR _fz$[ebp], xmm0

; 180  :     x = fx;

  00064	f3 0f 10 45 c8	 movss	 xmm0, DWORD PTR _fx$[ebp]
  00069	f3 0f 11 45 e4	 movss	 DWORD PTR $T2[ebp], xmm0

; 181  :     y = fy;

  0006e	f3 0f 10 45 c4	 movss	 xmm0, DWORD PTR _fy$[ebp]
  00073	f3 0f 11 45 e8	 movss	 DWORD PTR $T2[ebp+4], xmm0

; 182  :     z = fz;

  00078	f3 0f 10 45 c0	 movss	 xmm0, DWORD PTR _fz$[ebp]
  0007d	f3 0f 11 45 ec	 movss	 DWORD PTR $T2[ebp+8], xmm0
; File D:\Metin2 Server Files\mainline\SRC_2014\Metin2Client\EterLib\Camera.cpp

; 371  : 	m_v3Eye += v3Temp * fDistance;

  00082	8b 45 cc	 mov	 eax, DWORD PTR _this$[ebp]
  00085	83 c0 30	 add	 eax, 48			; 00000030H
  00088	89 45 d4	 mov	 DWORD PTR _this$[ebp], eax
; File D:\Metin2 Server Files\mainline\SRC_2014\M2Data\include\d3dx8math.inl

; 204  :     x += v.x;

  0008b	8b 45 d4	 mov	 eax, DWORD PTR _this$[ebp]
  0008e	f3 0f 10 00	 movss	 xmm0, DWORD PTR [eax]
  00092	f3 0f 58 45 e4	 addss	 xmm0, DWORD PTR $T2[ebp]
  00097	8b 45 d4	 mov	 eax, DWORD PTR _this$[ebp]
  0009a	f3 0f 11 00	 movss	 DWORD PTR [eax], xmm0

; 205  :     y += v.y;

  0009e	8b 45 d4	 mov	 eax, DWORD PTR _this$[ebp]
  000a1	f3 0f 10 40 04	 movss	 xmm0, DWORD PTR [eax+4]
  000a6	f3 0f 58 45 e8	 addss	 xmm0, DWORD PTR $T2[ebp+4]
  000ab	8b 45 d4	 mov	 eax, DWORD PTR _this$[ebp]
  000ae	f3 0f 11 40 04	 movss	 DWORD PTR [eax+4], xmm0

; 206  :     z += v.z;

  000b3	8b 45 d4	 mov	 eax, DWORD PTR _this$[ebp]
  000b6	f3 0f 10 40 08	 movss	 xmm0, DWORD PTR [eax+8]
  000bb	f3 0f 58 45 ec	 addss	 xmm0, DWORD PTR $T2[ebp+8]
  000c0	8b 45 d4	 mov	 eax, DWORD PTR _this$[ebp]
  000c3	f3 0f 11 40 08	 movss	 DWORD PTR [eax+8], xmm0

; 269  :     return D3DXVECTOR3(x * f, y * f, z * f);

  000c8	f3 0f 10 45 f0	 movss	 xmm0, DWORD PTR _v3Temp$[ebp]
  000cd	f3 0f 59 45 08	 mulss	 xmm0, DWORD PTR _fDistance$[ebp]
  000d2	f3 0f 11 45 bc	 movss	 DWORD PTR _fx$[ebp], xmm0
  000d7	f3 0f 10 45 f4	 movss	 xmm0, DWORD PTR _v3Temp$[ebp+4]
  000dc	f3 0f 59 45 08	 mulss	 xmm0, DWORD PTR _fDistance$[ebp]
  000e1	f3 0f 11 45 b8	 movss	 DWORD PTR _fy$[ebp], xmm0
  000e6	f3 0f 10 45 f8	 movss	 xmm0, DWORD PTR _v3Temp$[ebp+8]
  000eb	f3 0f 59 45 08	 mulss	 xmm0, DWORD PTR _fDistance$[ebp]
  000f0	f3 0f 11 45 b4	 movss	 DWORD PTR _fz$[ebp], xmm0

; 180  :     x = fx;

  000f5	f3 0f 10 45 bc	 movss	 xmm0, DWORD PTR _fx$[ebp]
  000fa	f3 0f 11 45 d8	 movss	 DWORD PTR $T1[ebp], xmm0

; 181  :     y = fy;

  000ff	f3 0f 10 45 b8	 movss	 xmm0, DWORD PTR _fy$[ebp]
  00104	f3 0f 11 45 dc	 movss	 DWORD PTR $T1[ebp+4], xmm0

; 182  :     z = fz;

  00109	f3 0f 10 45 b4	 movss	 xmm0, DWORD PTR _fz$[ebp]
  0010e	f3 0f 11 45 e0	 movss	 DWORD PTR $T1[ebp+8], xmm0
; File D:\Metin2 Server Files\mainline\SRC_2014\Metin2Client\EterLib\Camera.cpp

; 372  : 	m_v3Target += v3Temp * fDistance;

  00113	8b 45 cc	 mov	 eax, DWORD PTR _this$[ebp]
  00116	83 c0 3c	 add	 eax, 60			; 0000003cH
  00119	89 45 d0	 mov	 DWORD PTR _this$[ebp], eax
; File D:\Metin2 Server Files\mainline\SRC_2014\M2Data\include\d3dx8math.inl

; 204  :     x += v.x;

  0011c	8b 45 d0	 mov	 eax, DWORD PTR _this$[ebp]
  0011f	f3 0f 10 00	 movss	 xmm0, DWORD PTR [eax]
  00123	f3 0f 58 45 d8	 addss	 xmm0, DWORD PTR $T1[ebp]
  00128	8b 45 d0	 mov	 eax, DWORD PTR _this$[ebp]
  0012b	f3 0f 11 00	 movss	 DWORD PTR [eax], xmm0

; 205  :     y += v.y;

  0012f	8b 45 d0	 mov	 eax, DWORD PTR _this$[ebp]
  00132	f3 0f 10 40 04	 movss	 xmm0, DWORD PTR [eax+4]
  00137	f3 0f 58 45 dc	 addss	 xmm0, DWORD PTR $T1[ebp+4]
  0013c	8b 45 d0	 mov	 eax, DWORD PTR _this$[ebp]
  0013f	f3 0f 11 40 04	 movss	 DWORD PTR [eax+4], xmm0

; 206  :     z += v.z;

  00144	8b 45 d0	 mov	 eax, DWORD PTR _this$[ebp]
  00147	f3 0f 10 40 08	 movss	 xmm0, DWORD PTR [eax+8]
  0014c	f3 0f 58 45 e0	 addss	 xmm0, DWORD PTR $T1[ebp+8]
  00151	8b 45 d0	 mov	 eax, DWORD PTR _this$[ebp]
  00154	f3 0f 11 40 08	 movss	 DWORD PTR [eax+8], xmm0
; File D:\Metin2 Server Files\mainline\SRC_2014\Metin2Client\EterLib\Camera.cpp

; 374  : 	SetViewMatrix();

  00159	8b 4d cc	 mov	 ecx, DWORD PTR _this$[ebp]
  0015c	e8 00 00 00 00	 call	 ?SetViewMatrix@CCamera@@IAEXXZ ; CCamera::SetViewMatrix
$LN1@MoveAlongC:

; 375  : }

  00161	8b 4d fc	 mov	 ecx, DWORD PTR __$ArrayPad$[ebp]
  00164	33 cd		 xor	 ecx, ebp
  00166	e8 00 00 00 00	 call	 @__security_check_cookie@4
  0016b	c9		 leave
  0016c	c2 04 00	 ret	 4
?MoveAlongCross@CCamera@@QAEXM@Z ENDP			; CCamera::MoveAlongCross
_TEXT	ENDS
; Function compile flags: /Odspy
; File D:\Metin2 Server Files\mainline\SRC_2014\Metin2Client\EterLib\Camera.cpp
; File D:\Metin2 Server Files\mainline\SRC_2014\M2Data\include\d3dx8math.inl
; File D:\Metin2 Server Files\mainline\SRC_2014\Metin2Client\EterLib\Camera.cpp
; File D:\Metin2 Server Files\mainline\SRC_2014\M2Data\include\d3dx8math.inl
; File D:\Metin2 Server Files\mainline\SRC_2014\Metin2Client\EterLib\Camera.cpp
; File D:\Metin2 Server Files\mainline\SRC_2014\M2Data\include\d3dx8math.inl
; File D:\Metin2 Server Files\mainline\SRC_2014\Metin2Client\EterLib\Camera.cpp
;	COMDAT ?MoveAlongView@CCamera@@QAEXM@Z
_TEXT	SEGMENT
_fz$ = -76						; size = 4
_fy$ = -72						; size = 4
_fx$ = -68						; size = 4
_fz$ = -64						; size = 4
_fy$ = -60						; size = 4
_fx$ = -56						; size = 4
_this$ = -52						; size = 4
_this$ = -48						; size = 4
_this$ = -44						; size = 4
$T1 = -40						; size = 12
$T2 = -28						; size = 12
_v3Temp$ = -16						; size = 12
__$ArrayPad$ = -4					; size = 4
_fDistance$ = 8						; size = 4
?MoveAlongView@CCamera@@QAEXM@Z PROC			; CCamera::MoveAlongView, COMDAT
; _this$ = ecx

; 350  : {

  00000	55		 push	 ebp
  00001	8b ec		 mov	 ebp, esp
  00003	83 ec 4c	 sub	 esp, 76			; 0000004cH
  00006	a1 00 00 00 00	 mov	 eax, DWORD PTR ___security_cookie
  0000b	33 c5		 xor	 eax, ebp
  0000d	89 45 fc	 mov	 DWORD PTR __$ArrayPad$[ebp], eax
  00010	89 4d cc	 mov	 DWORD PTR _this$[ebp], ecx

; 351  : 	if (IsLock())

  00013	8b 4d cc	 mov	 ecx, DWORD PTR _this$[ebp]
  00016	e8 00 00 00 00	 call	 ?IsLock@CCamera@@QAE_NXZ ; CCamera::IsLock
  0001b	0f b6 c0	 movzx	 eax, al
  0001e	85 c0		 test	 eax, eax
  00020	74 05		 je	 SHORT $LN2@MoveAlongV

; 352  : 		return;

  00022	e9 3a 01 00 00	 jmp	 $LN1@MoveAlongV
$LN2@MoveAlongV:

; 353  : 
; 354  : 	D3DXVECTOR3 v3Temp;
; 355  : 	D3DXVec3Normalize(&v3Temp, &m_v3View);

  00027	8b 45 cc	 mov	 eax, DWORD PTR _this$[ebp]
  0002a	83 c0 54	 add	 eax, 84			; 00000054H
  0002d	50		 push	 eax
  0002e	8d 45 f0	 lea	 eax, DWORD PTR _v3Temp$[ebp]
  00031	50		 push	 eax
  00032	e8 00 00 00 00	 call	 _D3DXVec3Normalize@8
; File D:\Metin2 Server Files\mainline\SRC_2014\M2Data\include\d3dx8math.inl

; 269  :     return D3DXVECTOR3(x * f, y * f, z * f);

  00037	f3 0f 10 45 f0	 movss	 xmm0, DWORD PTR _v3Temp$[ebp]
  0003c	f3 0f 59 45 08	 mulss	 xmm0, DWORD PTR _fDistance$[ebp]
  00041	f3 0f 11 45 c8	 movss	 DWORD PTR _fx$[ebp], xmm0
  00046	f3 0f 10 45 f4	 movss	 xmm0, DWORD PTR _v3Temp$[ebp+4]
  0004b	f3 0f 59 45 08	 mulss	 xmm0, DWORD PTR _fDistance$[ebp]
  00050	f3 0f 11 45 c4	 movss	 DWORD PTR _fy$[ebp], xmm0
  00055	f3 0f 10 45 f8	 movss	 xmm0, DWORD PTR _v3Temp$[ebp+8]
  0005a	f3 0f 59 45 08	 mulss	 xmm0, DWORD PTR _fDistance$[ebp]
  0005f	f3 0f 11 45 c0	 movss	 DWORD PTR _fz$[ebp], xmm0

; 180  :     x = fx;

  00064	f3 0f 10 45 c8	 movss	 xmm0, DWORD PTR _fx$[ebp]
  00069	f3 0f 11 45 e4	 movss	 DWORD PTR $T2[ebp], xmm0

; 181  :     y = fy;

  0006e	f3 0f 10 45 c4	 movss	 xmm0, DWORD PTR _fy$[ebp]
  00073	f3 0f 11 45 e8	 movss	 DWORD PTR $T2[ebp+4], xmm0

; 182  :     z = fz;

  00078	f3 0f 10 45 c0	 movss	 xmm0, DWORD PTR _fz$[ebp]
  0007d	f3 0f 11 45 ec	 movss	 DWORD PTR $T2[ebp+8], xmm0
; File D:\Metin2 Server Files\mainline\SRC_2014\Metin2Client\EterLib\Camera.cpp

; 357  : 	m_v3Eye += v3Temp * fDistance;

  00082	8b 45 cc	 mov	 eax, DWORD PTR _this$[ebp]
  00085	83 c0 30	 add	 eax, 48			; 00000030H
  00088	89 45 d4	 mov	 DWORD PTR _this$[ebp], eax
; File D:\Metin2 Server Files\mainline\SRC_2014\M2Data\include\d3dx8math.inl

; 204  :     x += v.x;

  0008b	8b 45 d4	 mov	 eax, DWORD PTR _this$[ebp]
  0008e	f3 0f 10 00	 movss	 xmm0, DWORD PTR [eax]
  00092	f3 0f 58 45 e4	 addss	 xmm0, DWORD PTR $T2[ebp]
  00097	8b 45 d4	 mov	 eax, DWORD PTR _this$[ebp]
  0009a	f3 0f 11 00	 movss	 DWORD PTR [eax], xmm0

; 205  :     y += v.y;

  0009e	8b 45 d4	 mov	 eax, DWORD PTR _this$[ebp]
  000a1	f3 0f 10 40 04	 movss	 xmm0, DWORD PTR [eax+4]
  000a6	f3 0f 58 45 e8	 addss	 xmm0, DWORD PTR $T2[ebp+4]
  000ab	8b 45 d4	 mov	 eax, DWORD PTR _this$[ebp]
  000ae	f3 0f 11 40 04	 movss	 DWORD PTR [eax+4], xmm0

; 206  :     z += v.z;

  000b3	8b 45 d4	 mov	 eax, DWORD PTR _this$[ebp]
  000b6	f3 0f 10 40 08	 movss	 xmm0, DWORD PTR [eax+8]
  000bb	f3 0f 58 45 ec	 addss	 xmm0, DWORD PTR $T2[ebp+8]
  000c0	8b 45 d4	 mov	 eax, DWORD PTR _this$[ebp]
  000c3	f3 0f 11 40 08	 movss	 DWORD PTR [eax+8], xmm0

; 269  :     return D3DXVECTOR3(x * f, y * f, z * f);

  000c8	f3 0f 10 45 f0	 movss	 xmm0, DWORD PTR _v3Temp$[ebp]
  000cd	f3 0f 59 45 08	 mulss	 xmm0, DWORD PTR _fDistance$[ebp]
  000d2	f3 0f 11 45 bc	 movss	 DWORD PTR _fx$[ebp], xmm0
  000d7	f3 0f 10 45 f4	 movss	 xmm0, DWORD PTR _v3Temp$[ebp+4]
  000dc	f3 0f 59 45 08	 mulss	 xmm0, DWORD PTR _fDistance$[ebp]
  000e1	f3 0f 11 45 b8	 movss	 DWORD PTR _fy$[ebp], xmm0
  000e6	f3 0f 10 45 f8	 movss	 xmm0, DWORD PTR _v3Temp$[ebp+8]
  000eb	f3 0f 59 45 08	 mulss	 xmm0, DWORD PTR _fDistance$[ebp]
  000f0	f3 0f 11 45 b4	 movss	 DWORD PTR _fz$[ebp], xmm0

; 180  :     x = fx;

  000f5	f3 0f 10 45 bc	 movss	 xmm0, DWORD PTR _fx$[ebp]
  000fa	f3 0f 11 45 d8	 movss	 DWORD PTR $T1[ebp], xmm0

; 181  :     y = fy;

  000ff	f3 0f 10 45 b8	 movss	 xmm0, DWORD PTR _fy$[ebp]
  00104	f3 0f 11 45 dc	 movss	 DWORD PTR $T1[ebp+4], xmm0

; 182  :     z = fz;

  00109	f3 0f 10 45 b4	 movss	 xmm0, DWORD PTR _fz$[ebp]
  0010e	f3 0f 11 45 e0	 movss	 DWORD PTR $T1[ebp+8], xmm0
; File D:\Metin2 Server Files\mainline\SRC_2014\Metin2Client\EterLib\Camera.cpp

; 358  : 	m_v3Target += v3Temp * fDistance;

  00113	8b 45 cc	 mov	 eax, DWORD PTR _this$[ebp]
  00116	83 c0 3c	 add	 eax, 60			; 0000003cH
  00119	89 45 d0	 mov	 DWORD PTR _this$[ebp], eax
; File D:\Metin2 Server Files\mainline\SRC_2014\M2Data\include\d3dx8math.inl

; 204  :     x += v.x;

  0011c	8b 45 d0	 mov	 eax, DWORD PTR _this$[ebp]
  0011f	f3 0f 10 00	 movss	 xmm0, DWORD PTR [eax]
  00123	f3 0f 58 45 d8	 addss	 xmm0, DWORD PTR $T1[ebp]
  00128	8b 45 d0	 mov	 eax, DWORD PTR _this$[ebp]
  0012b	f3 0f 11 00	 movss	 DWORD PTR [eax], xmm0

; 205  :     y += v.y;

  0012f	8b 45 d0	 mov	 eax, DWORD PTR _this$[ebp]
  00132	f3 0f 10 40 04	 movss	 xmm0, DWORD PTR [eax+4]
  00137	f3 0f 58 45 dc	 addss	 xmm0, DWORD PTR $T1[ebp+4]
  0013c	8b 45 d0	 mov	 eax, DWORD PTR _this$[ebp]
  0013f	f3 0f 11 40 04	 movss	 DWORD PTR [eax+4], xmm0

; 206  :     z += v.z;

  00144	8b 45 d0	 mov	 eax, DWORD PTR _this$[ebp]
  00147	f3 0f 10 40 08	 movss	 xmm0, DWORD PTR [eax+8]
  0014c	f3 0f 58 45 e0	 addss	 xmm0, DWORD PTR $T1[ebp+8]
  00151	8b 45 d0	 mov	 eax, DWORD PTR _this$[ebp]
  00154	f3 0f 11 40 08	 movss	 DWORD PTR [eax+8], xmm0
; File D:\Metin2 Server Files\mainline\SRC_2014\Metin2Client\EterLib\Camera.cpp

; 360  : 	SetViewMatrix();

  00159	8b 4d cc	 mov	 ecx, DWORD PTR _this$[ebp]
  0015c	e8 00 00 00 00	 call	 ?SetViewMatrix@CCamera@@IAEXXZ ; CCamera::SetViewMatrix
$LN1@MoveAlongV:

; 361  : }

  00161	8b 4d fc	 mov	 ecx, DWORD PTR __$ArrayPad$[ebp]
  00164	33 cd		 xor	 ecx, ebp
  00166	e8 00 00 00 00	 call	 @__security_check_cookie@4
  0016b	c9		 leave
  0016c	c2 04 00	 ret	 4
?MoveAlongView@CCamera@@QAEXM@Z ENDP			; CCamera::MoveAlongView
_TEXT	ENDS
; Function compile flags: /Odspy
; File D:\Metin2 Server Files\mainline\SRC_2014\Metin2Client\EterLib\Camera.cpp
; File D:\Metin2 Server Files\mainline\SRC_2014\M2Data\include\d3dx8math.inl
; File D:\Metin2 Server Files\mainline\SRC_2014\Metin2Client\EterLib\Camera.cpp
; File D:\Metin2 Server Files\mainline\SRC_2014\M2Data\include\d3dx8math.inl
; File D:\Metin2 Server Files\mainline\SRC_2014\Metin2Client\EterLib\Camera.cpp
;	COMDAT ?Zoom@CCamera@@QAEXM@Z
_TEXT	SEGMENT
_fz$ = -68						; size = 4
_fy$ = -64						; size = 4
_fx$ = -60						; size = 4
_fz$ = -56						; size = 4
_fy$ = -52						; size = 4
_fx$ = -48						; size = 4
_v$ = -44						; size = 4
_v$ = -40						; size = 4
_this$ = -36						; size = 4
_this$ = -32						; size = 4
$T1 = -28						; size = 12
_v3Temp$ = -16						; size = 12
__$ArrayPad$ = -4					; size = 4
_fRatio$ = 8						; size = 4
?Zoom@CCamera@@QAEXM@Z PROC				; CCamera::Zoom, COMDAT
; _this$ = ecx

; 335  : {

  00000	55		 push	 ebp
  00001	8b ec		 mov	 ebp, esp
  00003	83 ec 44	 sub	 esp, 68			; 00000044H
  00006	a1 00 00 00 00	 mov	 eax, DWORD PTR ___security_cookie
  0000b	33 c5		 xor	 eax, ebp
  0000d	89 45 fc	 mov	 DWORD PTR __$ArrayPad$[ebp], eax
  00010	56		 push	 esi
  00011	57		 push	 edi
  00012	89 4d e0	 mov	 DWORD PTR _this$[ebp], ecx

; 336  : 	if (IsLock())

  00015	8b 4d e0	 mov	 ecx, DWORD PTR _this$[ebp]
  00018	e8 00 00 00 00	 call	 ?IsLock@CCamera@@QAE_NXZ ; CCamera::IsLock
  0001d	0f b6 c0	 movzx	 eax, al
  00020	85 c0		 test	 eax, eax
  00022	74 05		 je	 SHORT $LN2@Zoom

; 337  : 		return;

  00024	e9 21 01 00 00	 jmp	 $LN1@Zoom
$LN2@Zoom:

; 338  : 
; 339  : 	if (fRatio == 1.0f)

  00029	f3 0f 10 45 08	 movss	 xmm0, DWORD PTR _fRatio$[ebp]
  0002e	0f 2e 05 00 00
	00 00		 ucomiss xmm0, DWORD PTR __real@3f800000
  00035	9f		 lahf
  00036	f6 c4 44	 test	 ah, 68			; 00000044H
  00039	7a 05		 jp	 SHORT $LN3@Zoom

; 340  : 		return;

  0003b	e9 0a 01 00 00	 jmp	 $LN1@Zoom
$LN3@Zoom:

; 341  : 
; 342  : 	D3DXVECTOR3 v3Temp = m_v3Eye - m_v3Target;

  00040	8b 45 e0	 mov	 eax, DWORD PTR _this$[ebp]
  00043	83 c0 3c	 add	 eax, 60			; 0000003cH
  00046	89 45 d8	 mov	 DWORD PTR _v$[ebp], eax
  00049	8b 45 e0	 mov	 eax, DWORD PTR _this$[ebp]
  0004c	83 c0 30	 add	 eax, 48			; 00000030H
  0004f	89 45 dc	 mov	 DWORD PTR _this$[ebp], eax
; File D:\Metin2 Server Files\mainline\SRC_2014\M2Data\include\d3dx8math.inl

; 263  :     return D3DXVECTOR3(x - v.x, y - v.y, z - v.z);

  00052	8b 45 dc	 mov	 eax, DWORD PTR _this$[ebp]
  00055	8b 4d d8	 mov	 ecx, DWORD PTR _v$[ebp]
  00058	f3 0f 10 00	 movss	 xmm0, DWORD PTR [eax]
  0005c	f3 0f 5c 01	 subss	 xmm0, DWORD PTR [ecx]
  00060	f3 0f 11 45 d0	 movss	 DWORD PTR _fx$[ebp], xmm0
  00065	8b 45 dc	 mov	 eax, DWORD PTR _this$[ebp]
  00068	8b 4d d8	 mov	 ecx, DWORD PTR _v$[ebp]
  0006b	f3 0f 10 40 04	 movss	 xmm0, DWORD PTR [eax+4]
  00070	f3 0f 5c 41 04	 subss	 xmm0, DWORD PTR [ecx+4]
  00075	f3 0f 11 45 cc	 movss	 DWORD PTR _fy$[ebp], xmm0
  0007a	8b 45 dc	 mov	 eax, DWORD PTR _this$[ebp]
  0007d	8b 4d d8	 mov	 ecx, DWORD PTR _v$[ebp]
  00080	f3 0f 10 40 08	 movss	 xmm0, DWORD PTR [eax+8]
  00085	f3 0f 5c 41 08	 subss	 xmm0, DWORD PTR [ecx+8]
  0008a	f3 0f 11 45 c8	 movss	 DWORD PTR _fz$[ebp], xmm0

; 180  :     x = fx;

  0008f	f3 0f 10 45 d0	 movss	 xmm0, DWORD PTR _fx$[ebp]
  00094	f3 0f 11 45 f0	 movss	 DWORD PTR _v3Temp$[ebp], xmm0

; 181  :     y = fy;

  00099	f3 0f 10 45 cc	 movss	 xmm0, DWORD PTR _fy$[ebp]
  0009e	f3 0f 11 45 f4	 movss	 DWORD PTR _v3Temp$[ebp+4], xmm0

; 182  :     z = fz;

  000a3	f3 0f 10 45 c8	 movss	 xmm0, DWORD PTR _fz$[ebp]
  000a8	f3 0f 11 45 f8	 movss	 DWORD PTR _v3Temp$[ebp+8], xmm0

; 222  :     x *= f;

  000ad	f3 0f 10 45 f0	 movss	 xmm0, DWORD PTR _v3Temp$[ebp]
  000b2	f3 0f 59 45 08	 mulss	 xmm0, DWORD PTR _fRatio$[ebp]
  000b7	f3 0f 11 45 f0	 movss	 DWORD PTR _v3Temp$[ebp], xmm0

; 223  :     y *= f;

  000bc	f3 0f 10 45 f4	 movss	 xmm0, DWORD PTR _v3Temp$[ebp+4]
  000c1	f3 0f 59 45 08	 mulss	 xmm0, DWORD PTR _fRatio$[ebp]
  000c6	f3 0f 11 45 f4	 movss	 DWORD PTR _v3Temp$[ebp+4], xmm0

; 224  :     z *= f;

  000cb	f3 0f 10 45 f8	 movss	 xmm0, DWORD PTR _v3Temp$[ebp+8]
  000d0	f3 0f 59 45 08	 mulss	 xmm0, DWORD PTR _fRatio$[ebp]
  000d5	f3 0f 11 45 f8	 movss	 DWORD PTR _v3Temp$[ebp+8], xmm0
; File D:\Metin2 Server Files\mainline\SRC_2014\Metin2Client\EterLib\Camera.cpp

; 344  : 	m_v3Eye = v3Temp + m_v3Target;

  000da	8b 45 e0	 mov	 eax, DWORD PTR _this$[ebp]
  000dd	83 c0 3c	 add	 eax, 60			; 0000003cH
  000e0	89 45 d4	 mov	 DWORD PTR _v$[ebp], eax
; File D:\Metin2 Server Files\mainline\SRC_2014\M2Data\include\d3dx8math.inl

; 257  :     return D3DXVECTOR3(x + v.x, y + v.y, z + v.z);

  000e3	8b 45 d4	 mov	 eax, DWORD PTR _v$[ebp]
  000e6	f3 0f 10 45 f0	 movss	 xmm0, DWORD PTR _v3Temp$[ebp]
  000eb	f3 0f 58 00	 addss	 xmm0, DWORD PTR [eax]
  000ef	f3 0f 11 45 c4	 movss	 DWORD PTR _fx$[ebp], xmm0
  000f4	8b 45 d4	 mov	 eax, DWORD PTR _v$[ebp]
  000f7	f3 0f 10 45 f4	 movss	 xmm0, DWORD PTR _v3Temp$[ebp+4]
  000fc	f3 0f 58 40 04	 addss	 xmm0, DWORD PTR [eax+4]
  00101	f3 0f 11 45 c0	 movss	 DWORD PTR _fy$[ebp], xmm0
  00106	8b 45 d4	 mov	 eax, DWORD PTR _v$[ebp]
  00109	f3 0f 10 45 f8	 movss	 xmm0, DWORD PTR _v3Temp$[ebp+8]
  0010e	f3 0f 58 40 08	 addss	 xmm0, DWORD PTR [eax+8]
  00113	f3 0f 11 45 bc	 movss	 DWORD PTR _fz$[ebp], xmm0

; 180  :     x = fx;

  00118	f3 0f 10 45 c4	 movss	 xmm0, DWORD PTR _fx$[ebp]
  0011d	f3 0f 11 45 e4	 movss	 DWORD PTR $T1[ebp], xmm0

; 181  :     y = fy;

  00122	f3 0f 10 45 c0	 movss	 xmm0, DWORD PTR _fy$[ebp]
  00127	f3 0f 11 45 e8	 movss	 DWORD PTR $T1[ebp+4], xmm0

; 182  :     z = fz;

  0012c	f3 0f 10 45 bc	 movss	 xmm0, DWORD PTR _fz$[ebp]
  00131	f3 0f 11 45 ec	 movss	 DWORD PTR $T1[ebp+8], xmm0
; File D:\Metin2 Server Files\mainline\SRC_2014\Metin2Client\EterLib\Camera.cpp

; 344  : 	m_v3Eye = v3Temp + m_v3Target;

  00136	8b 7d e0	 mov	 edi, DWORD PTR _this$[ebp]
  00139	83 c7 30	 add	 edi, 48			; 00000030H
  0013c	8d 75 e4	 lea	 esi, DWORD PTR $T1[ebp]
  0013f	a5		 movsd
  00140	a5		 movsd
  00141	a5		 movsd

; 345  : 
; 346  : 	SetViewMatrix();

  00142	8b 4d e0	 mov	 ecx, DWORD PTR _this$[ebp]
  00145	e8 00 00 00 00	 call	 ?SetViewMatrix@CCamera@@IAEXXZ ; CCamera::SetViewMatrix
$LN1@Zoom:

; 347  : }

  0014a	5f		 pop	 edi
  0014b	5e		 pop	 esi
  0014c	8b 4d fc	 mov	 ecx, DWORD PTR __$ArrayPad$[ebp]
  0014f	33 cd		 xor	 ecx, ebp
  00151	e8 00 00 00 00	 call	 @__security_check_cookie@4
  00156	c9		 leave
  00157	c2 04 00	 ret	 4
?Zoom@CCamera@@QAEXM@Z ENDP				; CCamera::Zoom
_TEXT	ENDS
; Function compile flags: /Odspy
; File D:\Metin2 Server Files\mainline\SRC_2014\Metin2Client\EterLib\Camera.cpp
; File D:\Metin2 Server Files\mainline\SRC_2014\M2Data\include\d3dx8math.inl
; File D:\Metin2 Server Files\mainline\SRC_2014\Metin2Client\EterLib\Camera.cpp
; File D:\Metin2 Server Files\mainline\SRC_2014\M2Data\include\d3dx8math.inl
; File D:\Metin2 Server Files\mainline\SRC_2014\Metin2Client\EterLib\Camera.cpp
;	COMDAT ?Move@CCamera@@QAEXABUD3DXVECTOR3@@@Z
_TEXT	SEGMENT
_this$ = -12						; size = 4
_this$ = -8						; size = 4
_this$ = -4						; size = 4
_v3Displacement$ = 8					; size = 4
?Move@CCamera@@QAEXABUD3DXVECTOR3@@@Z PROC		; CCamera::Move, COMDAT
; _this$ = ecx

; 324  : {

  00000	55		 push	 ebp
  00001	8b ec		 mov	 ebp, esp
  00003	83 ec 0c	 sub	 esp, 12			; 0000000cH
  00006	89 4d f4	 mov	 DWORD PTR _this$[ebp], ecx

; 325  : 	if (IsLock())

  00009	8b 4d f4	 mov	 ecx, DWORD PTR _this$[ebp]
  0000c	e8 00 00 00 00	 call	 ?IsLock@CCamera@@QAE_NXZ ; CCamera::IsLock
  00011	0f b6 c0	 movzx	 eax, al
  00014	85 c0		 test	 eax, eax
  00016	74 05		 je	 SHORT $LN2@Move

; 326  : 		return;

  00018	e9 a4 00 00 00	 jmp	 $LN1@Move
$LN2@Move:

; 327  : 
; 328  : 	m_v3Eye += v3Displacement;

  0001d	8b 45 f4	 mov	 eax, DWORD PTR _this$[ebp]
  00020	83 c0 30	 add	 eax, 48			; 00000030H
  00023	89 45 fc	 mov	 DWORD PTR _this$[ebp], eax
; File D:\Metin2 Server Files\mainline\SRC_2014\M2Data\include\d3dx8math.inl

; 204  :     x += v.x;

  00026	8b 45 fc	 mov	 eax, DWORD PTR _this$[ebp]
  00029	8b 4d 08	 mov	 ecx, DWORD PTR _v3Displacement$[ebp]
  0002c	f3 0f 10 00	 movss	 xmm0, DWORD PTR [eax]
  00030	f3 0f 58 01	 addss	 xmm0, DWORD PTR [ecx]
  00034	8b 45 fc	 mov	 eax, DWORD PTR _this$[ebp]
  00037	f3 0f 11 00	 movss	 DWORD PTR [eax], xmm0

; 205  :     y += v.y;

  0003b	8b 45 fc	 mov	 eax, DWORD PTR _this$[ebp]
  0003e	8b 4d 08	 mov	 ecx, DWORD PTR _v3Displacement$[ebp]
  00041	f3 0f 10 40 04	 movss	 xmm0, DWORD PTR [eax+4]
  00046	f3 0f 58 41 04	 addss	 xmm0, DWORD PTR [ecx+4]
  0004b	8b 45 fc	 mov	 eax, DWORD PTR _this$[ebp]
  0004e	f3 0f 11 40 04	 movss	 DWORD PTR [eax+4], xmm0

; 206  :     z += v.z;

  00053	8b 45 fc	 mov	 eax, DWORD PTR _this$[ebp]
  00056	8b 4d 08	 mov	 ecx, DWORD PTR _v3Displacement$[ebp]
  00059	f3 0f 10 40 08	 movss	 xmm0, DWORD PTR [eax+8]
  0005e	f3 0f 58 41 08	 addss	 xmm0, DWORD PTR [ecx+8]
  00063	8b 45 fc	 mov	 eax, DWORD PTR _this$[ebp]
  00066	f3 0f 11 40 08	 movss	 DWORD PTR [eax+8], xmm0
; File D:\Metin2 Server Files\mainline\SRC_2014\Metin2Client\EterLib\Camera.cpp

; 329  : 	m_v3Target += v3Displacement; 

  0006b	8b 45 f4	 mov	 eax, DWORD PTR _this$[ebp]
  0006e	83 c0 3c	 add	 eax, 60			; 0000003cH
  00071	89 45 f8	 mov	 DWORD PTR _this$[ebp], eax
; File D:\Metin2 Server Files\mainline\SRC_2014\M2Data\include\d3dx8math.inl

; 204  :     x += v.x;

  00074	8b 45 f8	 mov	 eax, DWORD PTR _this$[ebp]
  00077	8b 4d 08	 mov	 ecx, DWORD PTR _v3Displacement$[ebp]
  0007a	f3 0f 10 00	 movss	 xmm0, DWORD PTR [eax]
  0007e	f3 0f 58 01	 addss	 xmm0, DWORD PTR [ecx]
  00082	8b 45 f8	 mov	 eax, DWORD PTR _this$[ebp]
  00085	f3 0f 11 00	 movss	 DWORD PTR [eax], xmm0

; 205  :     y += v.y;

  00089	8b 45 f8	 mov	 eax, DWORD PTR _this$[ebp]
  0008c	8b 4d 08	 mov	 ecx, DWORD PTR _v3Displacement$[ebp]
  0008f	f3 0f 10 40 04	 movss	 xmm0, DWORD PTR [eax+4]
  00094	f3 0f 58 41 04	 addss	 xmm0, DWORD PTR [ecx+4]
  00099	8b 45 f8	 mov	 eax, DWORD PTR _this$[ebp]
  0009c	f3 0f 11 40 04	 movss	 DWORD PTR [eax+4], xmm0

; 206  :     z += v.z;

  000a1	8b 45 f8	 mov	 eax, DWORD PTR _this$[ebp]
  000a4	8b 4d 08	 mov	 ecx, DWORD PTR _v3Displacement$[ebp]
  000a7	f3 0f 10 40 08	 movss	 xmm0, DWORD PTR [eax+8]
  000ac	f3 0f 58 41 08	 addss	 xmm0, DWORD PTR [ecx+8]
  000b1	8b 45 f8	 mov	 eax, DWORD PTR _this$[ebp]
  000b4	f3 0f 11 40 08	 movss	 DWORD PTR [eax+8], xmm0
; File D:\Metin2 Server Files\mainline\SRC_2014\Metin2Client\EterLib\Camera.cpp

; 331  : 	SetViewMatrix();

  000b9	8b 4d f4	 mov	 ecx, DWORD PTR _this$[ebp]
  000bc	e8 00 00 00 00	 call	 ?SetViewMatrix@CCamera@@IAEXXZ ; CCamera::SetViewMatrix
$LN1@Move:

; 332  : }

  000c1	c9		 leave
  000c2	c2 04 00	 ret	 4
?Move@CCamera@@QAEXABUD3DXVECTOR3@@@Z ENDP		; CCamera::Move
_TEXT	ENDS
; Function compile flags: /Odspy
; File D:\Metin2 Server Files\mainline\SRC_2014\Metin2Client\EterLib\Camera.cpp
;	COMDAT ?SetDistance@CCamera@@QAEXM@Z
_TEXT	SEGMENT
_this$ = -4						; size = 4
_fdistance$ = 8						; size = 4
?SetDistance@CCamera@@QAEXM@Z PROC			; CCamera::SetDistance, COMDAT
; _this$ = ecx

; 513  : {

  00000	55		 push	 ebp
  00001	8b ec		 mov	 ebp, esp
  00003	51		 push	 ecx
  00004	89 4d fc	 mov	 DWORD PTR _this$[ebp], ecx

; 514  : //	if (IsLock())
; 515  : //		return;
; 516  : 
; 517  : 	Zoom(fdistance/m_fDistance);

  00007	8b 45 fc	 mov	 eax, DWORD PTR _this$[ebp]
  0000a	f3 0f 10 45 08	 movss	 xmm0, DWORD PTR _fdistance$[ebp]
  0000f	f3 0f 5e 80 34
	01 00 00	 divss	 xmm0, DWORD PTR [eax+308]
  00017	51		 push	 ecx
  00018	f3 0f 11 04 24	 movss	 DWORD PTR [esp], xmm0
  0001d	8b 4d fc	 mov	 ecx, DWORD PTR _this$[ebp]
  00020	e8 00 00 00 00	 call	 ?Zoom@CCamera@@QAEXM@Z	; CCamera::Zoom

; 518  : }

  00025	c9		 leave
  00026	c2 04 00	 ret	 4
?SetDistance@CCamera@@QAEXM@Z ENDP			; CCamera::SetDistance
_TEXT	ENDS
; Function compile flags: /Odspy
; File D:\Metin2 Server Files\mainline\SRC_2014\Metin2Client\EterLib\Camera.cpp
;	COMDAT ?Roll@CCamera@@QAEXM@Z
_TEXT	SEGMENT
_this$ = -4						; size = 4
_fRollDelta$ = 8					; size = 4
?Roll@CCamera@@QAEXM@Z PROC				; CCamera::Roll, COMDAT
; _this$ = ecx

; 505  : {

  00000	55		 push	 ebp
  00001	8b ec		 mov	 ebp, esp
  00003	51		 push	 ecx
  00004	89 4d fc	 mov	 DWORD PTR _this$[ebp], ecx

; 506  : //	if (IsLock())
; 507  : //		return;
; 508  : 
; 509  : 	RotateEyeAroundTarget(0.0f, fRollDelta);

  00007	51		 push	 ecx
  00008	f3 0f 10 45 08	 movss	 xmm0, DWORD PTR _fRollDelta$[ebp]
  0000d	f3 0f 11 04 24	 movss	 DWORD PTR [esp], xmm0
  00012	51		 push	 ecx
  00013	0f 57 c0	 xorps	 xmm0, xmm0
  00016	f3 0f 11 04 24	 movss	 DWORD PTR [esp], xmm0
  0001b	8b 4d fc	 mov	 ecx, DWORD PTR _this$[ebp]
  0001e	e8 00 00 00 00	 call	 ?RotateEyeAroundTarget@CCamera@@QAEXMM@Z ; CCamera::RotateEyeAroundTarget

; 510  : }

  00023	c9		 leave
  00024	c2 04 00	 ret	 4
?Roll@CCamera@@QAEXM@Z ENDP				; CCamera::Roll
_TEXT	ENDS
; Function compile flags: /Odspy
; File D:\Metin2 Server Files\mainline\SRC_2014\Metin2Client\EterLib\Camera.cpp
;	COMDAT ?Pitch@CCamera@@QAEXM@Z
_TEXT	SEGMENT
_this$ = -4						; size = 4
_fPitchDelta$ = 8					; size = 4
?Pitch@CCamera@@QAEXM@Z PROC				; CCamera::Pitch, COMDAT
; _this$ = ecx

; 497  : {

  00000	55		 push	 ebp
  00001	8b ec		 mov	 ebp, esp
  00003	51		 push	 ecx
  00004	89 4d fc	 mov	 DWORD PTR _this$[ebp], ecx

; 498  : //	if (IsLock())
; 499  : //		return;
; 500  : 
; 501  : 	RotateEyeAroundTarget(fPitchDelta, 0.0f);

  00007	51		 push	 ecx
  00008	0f 57 c0	 xorps	 xmm0, xmm0
  0000b	f3 0f 11 04 24	 movss	 DWORD PTR [esp], xmm0
  00010	51		 push	 ecx
  00011	f3 0f 10 45 08	 movss	 xmm0, DWORD PTR _fPitchDelta$[ebp]
  00016	f3 0f 11 04 24	 movss	 DWORD PTR [esp], xmm0
  0001b	8b 4d fc	 mov	 ecx, DWORD PTR _this$[ebp]
  0001e	e8 00 00 00 00	 call	 ?RotateEyeAroundTarget@CCamera@@QAEXMM@Z ; CCamera::RotateEyeAroundTarget

; 502  : }

  00023	c9		 leave
  00024	c2 04 00	 ret	 4
?Pitch@CCamera@@QAEXM@Z ENDP				; CCamera::Pitch
_TEXT	ENDS
; Function compile flags: /Odspy
; File D:\Metin2 Server Files\mainline\SRC_2014\Metin2Client\EterLib\Camera.cpp
;	COMDAT ?SetUp@CCamera@@QAEXABUD3DXVECTOR3@@@Z
_TEXT	SEGMENT
_this$ = -4						; size = 4
_v3Up$ = 8						; size = 4
?SetUp@CCamera@@QAEXABUD3DXVECTOR3@@@Z PROC		; CCamera::SetUp, COMDAT
; _this$ = ecx

; 246  : {

  00000	55		 push	 ebp
  00001	8b ec		 mov	 ebp, esp
  00003	51		 push	 ecx
  00004	56		 push	 esi
  00005	57		 push	 edi
  00006	89 4d fc	 mov	 DWORD PTR _this$[ebp], ecx

; 247  : 	if (IsLock())

  00009	8b 4d fc	 mov	 ecx, DWORD PTR _this$[ebp]
  0000c	e8 00 00 00 00	 call	 ?IsLock@CCamera@@QAE_NXZ ; CCamera::IsLock
  00011	0f b6 c0	 movzx	 eax, al
  00014	85 c0		 test	 eax, eax
  00016	74 02		 je	 SHORT $LN2@SetUp

; 248  : 		return;

  00018	eb 14		 jmp	 SHORT $LN1@SetUp
$LN2@SetUp:

; 249  : 
; 250  :     m_v3Up = v3Up;

  0001a	8b 7d fc	 mov	 edi, DWORD PTR _this$[ebp]
  0001d	83 c7 48	 add	 edi, 72			; 00000048H
  00020	8b 75 08	 mov	 esi, DWORD PTR _v3Up$[ebp]
  00023	a5		 movsd
  00024	a5		 movsd
  00025	a5		 movsd

; 251  : 
; 252  : 	SetViewMatrix();

  00026	8b 4d fc	 mov	 ecx, DWORD PTR _this$[ebp]
  00029	e8 00 00 00 00	 call	 ?SetViewMatrix@CCamera@@IAEXXZ ; CCamera::SetViewMatrix
$LN1@SetUp:

; 253  : }

  0002e	5f		 pop	 edi
  0002f	5e		 pop	 esi
  00030	c9		 leave
  00031	c2 04 00	 ret	 4
?SetUp@CCamera@@QAEXABUD3DXVECTOR3@@@Z ENDP		; CCamera::SetUp
_TEXT	ENDS
; Function compile flags: /Odspy
; File D:\Metin2 Server Files\mainline\SRC_2014\Metin2Client\EterLib\Camera.cpp
;	COMDAT ?SetTarget@CCamera@@QAEXABUD3DXVECTOR3@@@Z
_TEXT	SEGMENT
_this$ = -4						; size = 4
_v3Target$ = 8						; size = 4
?SetTarget@CCamera@@QAEXABUD3DXVECTOR3@@@Z PROC		; CCamera::SetTarget, COMDAT
; _this$ = ecx

; 236  : {

  00000	55		 push	 ebp
  00001	8b ec		 mov	 ebp, esp
  00003	51		 push	 ecx
  00004	56		 push	 esi
  00005	57		 push	 edi
  00006	89 4d fc	 mov	 DWORD PTR _this$[ebp], ecx

; 237  : 	if (IsLock())

  00009	8b 4d fc	 mov	 ecx, DWORD PTR _this$[ebp]
  0000c	e8 00 00 00 00	 call	 ?IsLock@CCamera@@QAE_NXZ ; CCamera::IsLock
  00011	0f b6 c0	 movzx	 eax, al
  00014	85 c0		 test	 eax, eax
  00016	74 02		 je	 SHORT $LN2@SetTarget

; 238  : 		return;

  00018	eb 14		 jmp	 SHORT $LN1@SetTarget
$LN2@SetTarget:

; 239  : 
; 240  :     m_v3Target = v3Target;

  0001a	8b 7d fc	 mov	 edi, DWORD PTR _this$[ebp]
  0001d	83 c7 3c	 add	 edi, 60			; 0000003cH
  00020	8b 75 08	 mov	 esi, DWORD PTR _v3Target$[ebp]
  00023	a5		 movsd
  00024	a5		 movsd
  00025	a5		 movsd

; 241  : 
; 242  : 	SetViewMatrix();

  00026	8b 4d fc	 mov	 ecx, DWORD PTR _this$[ebp]
  00029	e8 00 00 00 00	 call	 ?SetViewMatrix@CCamera@@IAEXXZ ; CCamera::SetViewMatrix
$LN1@SetTarget:

; 243  : }

  0002e	5f		 pop	 edi
  0002f	5e		 pop	 esi
  00030	c9		 leave
  00031	c2 04 00	 ret	 4
?SetTarget@CCamera@@QAEXABUD3DXVECTOR3@@@Z ENDP		; CCamera::SetTarget
_TEXT	ENDS
; Function compile flags: /Odspy
; File D:\Metin2 Server Files\mainline\SRC_2014\Metin2Client\EterLib\Camera.cpp
;	COMDAT ?SetEye@CCamera@@QAEXABUD3DXVECTOR3@@@Z
_TEXT	SEGMENT
_this$ = -4						; size = 4
_v3Eye$ = 8						; size = 4
?SetEye@CCamera@@QAEXABUD3DXVECTOR3@@@Z PROC		; CCamera::SetEye, COMDAT
; _this$ = ecx

; 226  : {

  00000	55		 push	 ebp
  00001	8b ec		 mov	 ebp, esp
  00003	51		 push	 ecx
  00004	56		 push	 esi
  00005	57		 push	 edi
  00006	89 4d fc	 mov	 DWORD PTR _this$[ebp], ecx

; 227  : 	if (IsLock())

  00009	8b 4d fc	 mov	 ecx, DWORD PTR _this$[ebp]
  0000c	e8 00 00 00 00	 call	 ?IsLock@CCamera@@QAE_NXZ ; CCamera::IsLock
  00011	0f b6 c0	 movzx	 eax, al
  00014	85 c0		 test	 eax, eax
  00016	74 02		 je	 SHORT $LN2@SetEye

; 228  : 		return;

  00018	eb 14		 jmp	 SHORT $LN1@SetEye
$LN2@SetEye:

; 229  : 
; 230  :     m_v3Eye = v3Eye;

  0001a	8b 7d fc	 mov	 edi, DWORD PTR _this$[ebp]
  0001d	83 c7 30	 add	 edi, 48			; 00000030H
  00020	8b 75 08	 mov	 esi, DWORD PTR _v3Eye$[ebp]
  00023	a5		 movsd
  00024	a5		 movsd
  00025	a5		 movsd

; 231  : 
; 232  : 	SetViewMatrix();

  00026	8b 4d fc	 mov	 ecx, DWORD PTR _this$[ebp]
  00029	e8 00 00 00 00	 call	 ?SetViewMatrix@CCamera@@IAEXXZ ; CCamera::SetViewMatrix
$LN1@SetEye:

; 233  : }

  0002e	5f		 pop	 edi
  0002f	5e		 pop	 esi
  00030	c9		 leave
  00031	c2 04 00	 ret	 4
?SetEye@CCamera@@QAEXABUD3DXVECTOR3@@@Z ENDP		; CCamera::SetEye
_TEXT	ENDS
; Function compile flags: /Odspy
; File D:\Metin2 Server Files\mainline\SRC_2014\Metin2Client\EterLib\Camera.cpp
;	COMDAT ?SetViewParams@CCamera@@QAEXABUD3DXVECTOR3@@00@Z
_TEXT	SEGMENT
_this$ = -4						; size = 4
_v3Eye$ = 8						; size = 4
_v3Target$ = 12						; size = 4
_v3Up$ = 16						; size = 4
?SetViewParams@CCamera@@QAEXABUD3DXVECTOR3@@00@Z PROC	; CCamera::SetViewParams, COMDAT
; _this$ = ecx

; 213  : {

  00000	55		 push	 ebp
  00001	8b ec		 mov	 ebp, esp
  00003	51		 push	 ecx
  00004	56		 push	 esi
  00005	57		 push	 edi
  00006	89 4d fc	 mov	 DWORD PTR _this$[ebp], ecx

; 214  : 	if (IsLock())

  00009	8b 4d fc	 mov	 ecx, DWORD PTR _this$[ebp]
  0000c	e8 00 00 00 00	 call	 ?IsLock@CCamera@@QAE_NXZ ; CCamera::IsLock
  00011	0f b6 c0	 movzx	 eax, al
  00014	85 c0		 test	 eax, eax
  00016	74 02		 je	 SHORT $LN2@SetViewPar

; 215  : 		return;

  00018	eb 2c		 jmp	 SHORT $LN1@SetViewPar
$LN2@SetViewPar:

; 216  : 
; 217  :     // Set attributes for the view matrix
; 218  :     m_v3Eye = v3Eye;

  0001a	8b 7d fc	 mov	 edi, DWORD PTR _this$[ebp]
  0001d	83 c7 30	 add	 edi, 48			; 00000030H
  00020	8b 75 08	 mov	 esi, DWORD PTR _v3Eye$[ebp]
  00023	a5		 movsd
  00024	a5		 movsd
  00025	a5		 movsd

; 219  :     m_v3Target = v3Target;

  00026	8b 7d fc	 mov	 edi, DWORD PTR _this$[ebp]
  00029	83 c7 3c	 add	 edi, 60			; 0000003cH
  0002c	8b 75 0c	 mov	 esi, DWORD PTR _v3Target$[ebp]
  0002f	a5		 movsd
  00030	a5		 movsd
  00031	a5		 movsd

; 220  :     m_v3Up = v3Up;

  00032	8b 7d fc	 mov	 edi, DWORD PTR _this$[ebp]
  00035	83 c7 48	 add	 edi, 72			; 00000048H
  00038	8b 75 10	 mov	 esi, DWORD PTR _v3Up$[ebp]
  0003b	a5		 movsd
  0003c	a5		 movsd
  0003d	a5		 movsd

; 221  : 
; 222  : 	SetViewMatrix();

  0003e	8b 4d fc	 mov	 ecx, DWORD PTR _this$[ebp]
  00041	e8 00 00 00 00	 call	 ?SetViewMatrix@CCamera@@IAEXXZ ; CCamera::SetViewMatrix
$LN1@SetViewPar:

; 223  : }

  00046	5f		 pop	 edi
  00047	5e		 pop	 esi
  00048	c9		 leave
  00049	c2 0c 00	 ret	 12			; 0000000cH
?SetViewParams@CCamera@@QAEXABUD3DXVECTOR3@@00@Z ENDP	; CCamera::SetViewParams
_TEXT	ENDS
; Function compile flags: /Odspy
; File D:\Metin2 Server Files\mainline\SRC_2014\Metin2Client\EterLib\Camera.cpp
;	COMDAT ?ResetNumScreenBuilding@CCamera@@QAEXXZ
_TEXT	SEGMENT
_this$ = -4						; size = 4
?ResetNumScreenBuilding@CCamera@@QAEXXZ PROC		; CCamera::ResetNumScreenBuilding, COMDAT
; _this$ = ecx

; 206  : {

  00000	55		 push	 ebp
  00001	8b ec		 mov	 ebp, esp
  00003	51		 push	 ecx
  00004	89 4d fc	 mov	 DWORD PTR _this$[ebp], ecx

; 207  : 	m_ulNumScreenBuilding = 0;

  00007	8b 45 fc	 mov	 eax, DWORD PTR _this$[ebp]
  0000a	83 60 28 00	 and	 DWORD PTR [eax+40], 0

; 208  : }

  0000e	c9		 leave
  0000f	c3		 ret	 0
?ResetNumScreenBuilding@CCamera@@QAEXXZ ENDP		; CCamera::ResetNumScreenBuilding
_TEXT	ENDS
; Function compile flags: /Odspy
; File D:\Metin2 Server Files\mainline\SRC_2014\Metin2Client\EterLib\Camera.cpp
;	COMDAT ?IncreaseNumSrcreenBuilding@CCamera@@QAEXXZ
_TEXT	SEGMENT
_this$ = -4						; size = 4
?IncreaseNumSrcreenBuilding@CCamera@@QAEXXZ PROC	; CCamera::IncreaseNumSrcreenBuilding, COMDAT
; _this$ = ecx

; 201  : {

  00000	55		 push	 ebp
  00001	8b ec		 mov	 ebp, esp
  00003	51		 push	 ecx
  00004	89 4d fc	 mov	 DWORD PTR _this$[ebp], ecx

; 202  : 	++m_ulNumScreenBuilding;

  00007	8b 45 fc	 mov	 eax, DWORD PTR _this$[ebp]
  0000a	8b 40 28	 mov	 eax, DWORD PTR [eax+40]
  0000d	40		 inc	 eax
  0000e	8b 4d fc	 mov	 ecx, DWORD PTR _this$[ebp]
  00011	89 41 28	 mov	 DWORD PTR [ecx+40], eax

; 203  : }

  00014	c9		 leave
  00015	c3		 ret	 0
?IncreaseNumSrcreenBuilding@CCamera@@QAEXXZ ENDP	; CCamera::IncreaseNumSrcreenBuilding
_TEXT	ENDS
; Function compile flags: /Odspy
; File D:\Metin2 Server Files\mainline\SRC_2014\Metin2Client\EterLib\Camera.cpp
;	COMDAT ?SetCameraState@CCamera@@QAEXW4_eCameraState_@@@Z
_TEXT	SEGMENT
_this$ = -4						; size = 4
_eNewCameraState$ = 8					; size = 4
?SetCameraState@CCamera@@QAEXW4_eCameraState_@@@Z PROC	; CCamera::SetCameraState, COMDAT
; _this$ = ecx

; 179  : {

  00000	55		 push	 ebp
  00001	8b ec		 mov	 ebp, esp
  00003	51		 push	 ecx
  00004	89 4d fc	 mov	 DWORD PTR _this$[ebp], ecx

; 180  : 	if (eNewCameraState == m_eCameraState)

  00007	8b 45 fc	 mov	 eax, DWORD PTR _this$[ebp]
  0000a	8b 4d 08	 mov	 ecx, DWORD PTR _eNewCameraState$[ebp]
  0000d	3b 48 04	 cmp	 ecx, DWORD PTR [eax+4]
  00010	75 02		 jne	 SHORT $LN2@SetCameraS

; 181  : 		return;

  00012	eb 15		 jmp	 SHORT $LN1@SetCameraS
$LN2@SetCameraS:

; 182  : 
; 183  : 	m_eCameraStatePrev = m_eCameraState;

  00014	8b 45 fc	 mov	 eax, DWORD PTR _this$[ebp]
  00017	8b 4d fc	 mov	 ecx, DWORD PTR _this$[ebp]
  0001a	8b 49 04	 mov	 ecx, DWORD PTR [ecx+4]
  0001d	89 48 08	 mov	 DWORD PTR [eax+8], ecx

; 184  : 	m_eCameraState = eNewCameraState;

  00020	8b 45 fc	 mov	 eax, DWORD PTR _this$[ebp]
  00023	8b 4d 08	 mov	 ecx, DWORD PTR _eNewCameraState$[ebp]
  00026	89 48 04	 mov	 DWORD PTR [eax+4], ecx
$LN1@SetCameraS:

; 185  : 
; 186  : /*
; 187  : 	if ((CAMERA_STATE_NORMAL == m_eCameraStatePrev))
; 188  : 	{
; 189  : 		m_fDistanceBackup = m_fDistance;
; 190  : 		m_fPitchBackup = m_fPitch;
; 191  : 		m_fRollBackup = m_fRoll;
; 192  : 	}
; 193  : 	else if ((CAMERA_STATE_CANTGODOWN == m_eCameraStatePrev) && (CAMERA_STATE_CANTGODOWN == m_eCameraState) )
; 194  : 	{
; 195  : 		m_v3EyeBackup = m_v3Eye;
; 196  : 	}
; 197  : */
; 198  : }

  00029	c9		 leave
  0002a	c2 04 00	 ret	 4
?SetCameraState@CCamera@@QAEXW4_eCameraState_@@@Z ENDP	; CCamera::SetCameraState
_TEXT	ENDS
; Function compile flags: /Odspy
; File D:\Metin2 Server Files\mainline\SRC_2014\Metin2Client\EterLib\Camera.cpp
;	COMDAT ?SetResistance@CCamera@@QAEXM@Z
_TEXT	SEGMENT
_this$ = -4						; size = 4
_fResistance$ = 8					; size = 4
?SetResistance@CCamera@@QAEXM@Z PROC			; CCamera::SetResistance, COMDAT
; _this$ = ecx

; 86   : {

  00000	55		 push	 ebp
  00001	8b ec		 mov	 ebp, esp
  00003	51		 push	 ecx
  00004	89 4d fc	 mov	 DWORD PTR _this$[ebp], ecx

; 87   : 	m_fResistance = c_fDefaultResistance * fResistance;

  00007	f3 0f 10 05 00
	00 00 00	 movss	 xmm0, DWORD PTR __real@3e99999a
  0000f	f3 0f 59 45 08	 mulss	 xmm0, DWORD PTR _fResistance$[ebp]
  00014	8b 45 fc	 mov	 eax, DWORD PTR _this$[ebp]
  00017	f3 0f 11 80 30
	03 00 00	 movss	 DWORD PTR [eax+816], xmm0

; 88   : }

  0001f	c9		 leave
  00020	c2 04 00	 ret	 4
?SetResistance@CCamera@@QAEXM@Z ENDP			; CCamera::SetResistance
_TEXT	ENDS
; Function compile flags: /Odspy
; File D:\Metin2 Server Files\mainline\SRC_2014\Metin2Client\EterLib\Camera.cpp
;	COMDAT ?IsDraging@CCamera@@QAE_NXZ
_TEXT	SEGMENT
_this$ = -4						; size = 4
?IsDraging@CCamera@@QAE_NXZ PROC			; CCamera::IsDraging, COMDAT
; _this$ = ecx

; 111  : {

  00000	55		 push	 ebp
  00001	8b ec		 mov	 ebp, esp
  00003	51		 push	 ecx
  00004	89 4d fc	 mov	 DWORD PTR _this$[ebp], ecx

; 112  : 	if (IsLock())

  00007	8b 4d fc	 mov	 ecx, DWORD PTR _this$[ebp]
  0000a	e8 00 00 00 00	 call	 ?IsLock@CCamera@@QAE_NXZ ; CCamera::IsLock
  0000f	0f b6 c0	 movzx	 eax, al
  00012	85 c0		 test	 eax, eax
  00014	74 04		 je	 SHORT $LN2@IsDraging

; 113  : 		return false;

  00016	32 c0		 xor	 al, al
  00018	eb 09		 jmp	 SHORT $LN1@IsDraging
$LN2@IsDraging:

; 114  : 
; 115  : 	return m_bDrag;

  0001a	8b 45 fc	 mov	 eax, DWORD PTR _this$[ebp]
  0001d	8a 80 14 03 00
	00		 mov	 al, BYTE PTR [eax+788]
$LN1@IsDraging:

; 116  : }

  00023	c9		 leave
  00024	c3		 ret	 0
?IsDraging@CCamera@@QAE_NXZ ENDP			; CCamera::IsDraging
_TEXT	ENDS
; Function compile flags: /Odspy
; File D:\Metin2 Server Files\mainline\SRC_2014\Metin2Client\EterLib\Camera.cpp
;	COMDAT ?BeginDrag@CCamera@@QAEXHH@Z
_TEXT	SEGMENT
_this$ = -4						; size = 4
_nMouseX$ = 8						; size = 4
_nMouseY$ = 12						; size = 4
?BeginDrag@CCamera@@QAEXHH@Z PROC			; CCamera::BeginDrag, COMDAT
; _this$ = ecx

; 99   : {

  00000	55		 push	 ebp
  00001	8b ec		 mov	 ebp, esp
  00003	51		 push	 ecx
  00004	89 4d fc	 mov	 DWORD PTR _this$[ebp], ecx

; 100  : 	if (IsLock())

  00007	8b 4d fc	 mov	 ecx, DWORD PTR _this$[ebp]
  0000a	e8 00 00 00 00	 call	 ?IsLock@CCamera@@QAE_NXZ ; CCamera::IsLock
  0000f	0f b6 c0	 movzx	 eax, al
  00012	85 c0		 test	 eax, eax
  00014	74 02		 je	 SHORT $LN2@BeginDrag

; 101  : 		return;

  00016	eb 3e		 jmp	 SHORT $LN1@BeginDrag
$LN2@BeginDrag:

; 102  : 
; 103  : 	m_bDrag = true;

  00018	8b 45 fc	 mov	 eax, DWORD PTR _this$[ebp]
  0001b	c6 80 14 03 00
	00 01		 mov	 BYTE PTR [eax+788], 1

; 104  : 	m_lMousePosX = nMouseX;

  00022	8b 45 fc	 mov	 eax, DWORD PTR _this$[ebp]
  00025	8b 4d 08	 mov	 ecx, DWORD PTR _nMouseX$[ebp]
  00028	89 88 0c 03 00
	00		 mov	 DWORD PTR [eax+780], ecx

; 105  : 	m_lMousePosY = nMouseY;

  0002e	8b 45 fc	 mov	 eax, DWORD PTR _this$[ebp]
  00031	8b 4d 0c	 mov	 ecx, DWORD PTR _nMouseY$[ebp]
  00034	89 88 10 03 00
	00		 mov	 DWORD PTR [eax+784], ecx

; 106  : 	m_fPitchSum = 0.0f;

  0003a	8b 45 fc	 mov	 eax, DWORD PTR _this$[ebp]
  0003d	0f 57 c0	 xorps	 xmm0, xmm0
  00040	f3 0f 11 80 04
	03 00 00	 movss	 DWORD PTR [eax+772], xmm0

; 107  : 	m_fRollSum = 0.0f;

  00048	8b 45 fc	 mov	 eax, DWORD PTR _this$[ebp]
  0004b	0f 57 c0	 xorps	 xmm0, xmm0
  0004e	f3 0f 11 80 08
	03 00 00	 movss	 DWORD PTR [eax+776], xmm0
$LN1@BeginDrag:

; 108  : }

  00056	c9		 leave
  00057	c2 08 00	 ret	 8
?BeginDrag@CCamera@@QAEXHH@Z ENDP			; CCamera::BeginDrag
_TEXT	ENDS
; Function compile flags: /Odspy
; File D:\Metin2 Server Files\mainline\SRC_2014\Metin2Client\EterLib\Camera.cpp
;	COMDAT ?EndDrag@CCamera@@QAE_NXZ
_TEXT	SEGMENT
_fSum$ = -8						; size = 4
_this$ = -4						; size = 4
?EndDrag@CCamera@@QAE_NXZ PROC				; CCamera::EndDrag, COMDAT
; _this$ = ecx

; 119  : {

  00000	55		 push	 ebp
  00001	8b ec		 mov	 ebp, esp
  00003	51		 push	 ecx
  00004	51		 push	 ecx
  00005	89 4d fc	 mov	 DWORD PTR _this$[ebp], ecx

; 120  : 	if (IsLock())

  00008	8b 4d fc	 mov	 ecx, DWORD PTR _this$[ebp]
  0000b	e8 00 00 00 00	 call	 ?IsLock@CCamera@@QAE_NXZ ; CCamera::IsLock
  00010	0f b6 c0	 movzx	 eax, al
  00013	85 c0		 test	 eax, eax
  00015	74 04		 je	 SHORT $LN2@EndDrag

; 121  : 		return false;

  00017	32 c0		 xor	 al, al
  00019	eb 7f		 jmp	 SHORT $LN1@EndDrag
$LN2@EndDrag:

; 122  : 
; 123  : 	m_bDrag = false;

  0001b	8b 45 fc	 mov	 eax, DWORD PTR _this$[ebp]
  0001e	c6 80 14 03 00
	00 00		 mov	 BYTE PTR [eax+788], 0

; 124  : 
; 125  : 	float fSum=sqrt(m_fPitchSum*m_fPitchSum+m_fRollSum*m_fRollSum);

  00025	8b 45 fc	 mov	 eax, DWORD PTR _this$[ebp]
  00028	8b 4d fc	 mov	 ecx, DWORD PTR _this$[ebp]
  0002b	f3 0f 10 80 04
	03 00 00	 movss	 xmm0, DWORD PTR [eax+772]
  00033	f3 0f 59 81 04
	03 00 00	 mulss	 xmm0, DWORD PTR [ecx+772]
  0003b	8b 45 fc	 mov	 eax, DWORD PTR _this$[ebp]
  0003e	8b 4d fc	 mov	 ecx, DWORD PTR _this$[ebp]
  00041	f3 0f 10 88 08
	03 00 00	 movss	 xmm1, DWORD PTR [eax+776]
  00049	f3 0f 59 89 08
	03 00 00	 mulss	 xmm1, DWORD PTR [ecx+776]
  00051	f3 0f 58 c1	 addss	 xmm0, xmm1
  00055	f3 0f 5a c0	 cvtss2sd xmm0, xmm0
  00059	51		 push	 ecx
  0005a	51		 push	 ecx
  0005b	f2 0f 11 04 24	 movsd	 QWORD PTR [esp], xmm0
  00060	e8 00 00 00 00	 call	 _sqrt
  00065	59		 pop	 ecx
  00066	59		 pop	 ecx
  00067	d9 5d f8	 fstp	 DWORD PTR _fSum$[ebp]

; 126  : 
; 127  : 	m_fPitchSum = 0.0f;

  0006a	8b 45 fc	 mov	 eax, DWORD PTR _this$[ebp]
  0006d	0f 57 c0	 xorps	 xmm0, xmm0
  00070	f3 0f 11 80 04
	03 00 00	 movss	 DWORD PTR [eax+772], xmm0

; 128  : 	m_fRollSum = 0.0f;

  00078	8b 45 fc	 mov	 eax, DWORD PTR _this$[ebp]
  0007b	0f 57 c0	 xorps	 xmm0, xmm0
  0007e	f3 0f 11 80 08
	03 00 00	 movss	 DWORD PTR [eax+776], xmm0

; 129  : 	
; 130  : 	if (fSum<1.0f)

  00086	f3 0f 10 05 00
	00 00 00	 movss	 xmm0, DWORD PTR __real@3f800000
  0008e	0f 2f 45 f8	 comiss	 xmm0, DWORD PTR _fSum$[ebp]
  00092	76 04		 jbe	 SHORT $LN3@EndDrag

; 131  : 		return false;

  00094	32 c0		 xor	 al, al
  00096	eb 02		 jmp	 SHORT $LN1@EndDrag
$LN3@EndDrag:

; 132  : 
; 133  : 	return true;

  00098	b0 01		 mov	 al, 1
$LN1@EndDrag:

; 134  : }

  0009a	c9		 leave
  0009b	c3		 ret	 0
?EndDrag@CCamera@@QAE_NXZ ENDP				; CCamera::EndDrag
_TEXT	ENDS
; Function compile flags: /Odspy
; File D:\Metin2 Server Files\mainline\SRC_2014\Metin2Client\EterLib\Camera.cpp
; File D:\Metin2 Server Files\mainline\SRC_2014\Metin2Client\EterLib\Camera.h
; File D:\Metin2 Server Files\mainline\SRC_2014\Metin2Client\EterLib\Camera.cpp
; File D:\Metin2 Server Files\mainline\SRC_2014\Metin2Client\EterLib\Camera.h
; File D:\Metin2 Server Files\mainline\SRC_2014\Metin2Client\EterLib\Camera.cpp
; File D:\Metin2 Server Files\mainline\SRC_2014\Metin2Client\EterLib\Camera.h
; File D:\Metin2 Server Files\mainline\SRC_2014\Metin2Client\EterLib\Camera.cpp
;	COMDAT ?Drag@CCamera@@QAE_NHHPAUtagPOINT@@@Z
_TEXT	SEGMENT
$T1 = -32						; size = 4
$T2 = -28						; size = 4
$T3 = -24						; size = 4
_lMouseX$ = -20						; size = 4
_lMouseY$ = -16						; size = 4
_fNewPitchVelocity$ = -12				; size = 4
_fNewRotationVelocity$ = -8				; size = 4
_this$ = -4						; size = 4
_nMouseX$ = 8						; size = 4
_nMouseY$ = 12						; size = 4
_lpReturnPoint$ = 16					; size = 4
?Drag@CCamera@@QAE_NHHPAUtagPOINT@@@Z PROC		; CCamera::Drag, COMDAT
; _this$ = ecx

; 137  : {

  00000	55		 push	 ebp
  00001	8b ec		 mov	 ebp, esp
  00003	83 ec 20	 sub	 esp, 32			; 00000020H
  00006	89 4d fc	 mov	 DWORD PTR _this$[ebp], ecx

; 138  : 	if (IsLock())

  00009	8b 4d fc	 mov	 ecx, DWORD PTR _this$[ebp]
  0000c	e8 00 00 00 00	 call	 ?IsLock@CCamera@@QAE_NXZ ; CCamera::IsLock
  00011	0f b6 c0	 movzx	 eax, al
  00014	85 c0		 test	 eax, eax
  00016	74 07		 je	 SHORT $LN2@Drag

; 139  : 		return false;

  00018	32 c0		 xor	 al, al
  0001a	e9 92 01 00 00	 jmp	 $LN1@Drag
$LN2@Drag:

; 140  : 
; 141  : 	if (!m_bDrag)

  0001f	8b 45 fc	 mov	 eax, DWORD PTR _this$[ebp]
  00022	0f b6 80 14 03
	00 00		 movzx	 eax, BYTE PTR [eax+788]
  00029	85 c0		 test	 eax, eax
  0002b	75 3c		 jne	 SHORT $LN3@Drag

; 142  : 	{
; 143  : 		m_lMousePosX = nMouseX;

  0002d	8b 45 fc	 mov	 eax, DWORD PTR _this$[ebp]
  00030	8b 4d 08	 mov	 ecx, DWORD PTR _nMouseX$[ebp]
  00033	89 88 0c 03 00
	00		 mov	 DWORD PTR [eax+780], ecx

; 144  : 		m_lMousePosY = nMouseY;

  00039	8b 45 fc	 mov	 eax, DWORD PTR _this$[ebp]
  0003c	8b 4d 0c	 mov	 ecx, DWORD PTR _nMouseY$[ebp]
  0003f	89 88 10 03 00
	00		 mov	 DWORD PTR [eax+784], ecx

; 145  : 		lpReturnPoint->x = m_lMousePosX;

  00045	8b 45 10	 mov	 eax, DWORD PTR _lpReturnPoint$[ebp]
  00048	8b 4d fc	 mov	 ecx, DWORD PTR _this$[ebp]
  0004b	8b 89 0c 03 00
	00		 mov	 ecx, DWORD PTR [ecx+780]
  00051	89 08		 mov	 DWORD PTR [eax], ecx

; 146  : 		lpReturnPoint->y = m_lMousePosY;

  00053	8b 45 10	 mov	 eax, DWORD PTR _lpReturnPoint$[ebp]
  00056	8b 4d fc	 mov	 ecx, DWORD PTR _this$[ebp]
  00059	8b 89 10 03 00
	00		 mov	 ecx, DWORD PTR [ecx+784]
  0005f	89 48 04	 mov	 DWORD PTR [eax+4], ecx

; 147  : 		return false;

  00062	32 c0		 xor	 al, al
  00064	e9 48 01 00 00	 jmp	 $LN1@Drag
$LN3@Drag:

; 148  : 	}
; 149  : 	
; 150  : 	long lMouseX = nMouseX;

  00069	8b 45 08	 mov	 eax, DWORD PTR _nMouseX$[ebp]
  0006c	89 45 ec	 mov	 DWORD PTR _lMouseX$[ebp], eax

; 151  : 	long lMouseY = nMouseY;

  0006f	8b 45 0c	 mov	 eax, DWORD PTR _nMouseY$[ebp]
  00072	89 45 f0	 mov	 DWORD PTR _lMouseY$[ebp], eax

; 152  : 	
; 153  : 	float fNewPitchVelocity = (float)(lMouseY - m_lMousePosY) * m_fResistance;

  00075	8b 45 fc	 mov	 eax, DWORD PTR _this$[ebp]
  00078	8b 4d f0	 mov	 ecx, DWORD PTR _lMouseY$[ebp]
  0007b	2b 88 10 03 00
	00		 sub	 ecx, DWORD PTR [eax+784]
  00081	f3 0f 2a c1	 cvtsi2ss xmm0, ecx
  00085	8b 45 fc	 mov	 eax, DWORD PTR _this$[ebp]
  00088	f3 0f 59 80 30
	03 00 00	 mulss	 xmm0, DWORD PTR [eax+816]
  00090	f3 0f 11 45 f4	 movss	 DWORD PTR _fNewPitchVelocity$[ebp], xmm0

; 154  : 	float fNewRotationVelocity = (float)(lMouseX - m_lMousePosX) * m_fResistance;

  00095	8b 45 fc	 mov	 eax, DWORD PTR _this$[ebp]
  00098	8b 4d ec	 mov	 ecx, DWORD PTR _lMouseX$[ebp]
  0009b	2b 88 0c 03 00
	00		 sub	 ecx, DWORD PTR [eax+780]
  000a1	f3 0f 2a c1	 cvtsi2ss xmm0, ecx
  000a5	8b 45 fc	 mov	 eax, DWORD PTR _this$[ebp]
  000a8	f3 0f 59 80 30
	03 00 00	 mulss	 xmm0, DWORD PTR [eax+816]
  000b0	f3 0f 11 45 f8	 movss	 DWORD PTR _fNewRotationVelocity$[ebp], xmm0

; 155  : 
; 156  : 	m_fPitchSum += fNewPitchVelocity;

  000b5	8b 45 fc	 mov	 eax, DWORD PTR _this$[ebp]
  000b8	f3 0f 10 80 04
	03 00 00	 movss	 xmm0, DWORD PTR [eax+772]
  000c0	f3 0f 58 45 f4	 addss	 xmm0, DWORD PTR _fNewPitchVelocity$[ebp]
  000c5	8b 45 fc	 mov	 eax, DWORD PTR _this$[ebp]
  000c8	f3 0f 11 80 04
	03 00 00	 movss	 DWORD PTR [eax+772], xmm0

; 157  : 	m_fRollSum += fNewRotationVelocity;

  000d0	8b 45 fc	 mov	 eax, DWORD PTR _this$[ebp]
  000d3	f3 0f 10 80 08
	03 00 00	 movss	 xmm0, DWORD PTR [eax+776]
  000db	f3 0f 58 45 f8	 addss	 xmm0, DWORD PTR _fNewRotationVelocity$[ebp]
  000e0	8b 45 fc	 mov	 eax, DWORD PTR _this$[ebp]
  000e3	f3 0f 11 80 08
	03 00 00	 movss	 DWORD PTR [eax+776], xmm0
; File D:\Metin2 Server Files\mainline\SRC_2014\Metin2Client\EterLib\Camera.h

; 154  : 		eCameraState GetCameraState() {return m_eCameraState;}

  000eb	8b 45 fc	 mov	 eax, DWORD PTR _this$[ebp]
  000ee	8b 40 04	 mov	 eax, DWORD PTR [eax+4]
  000f1	89 45 e8	 mov	 DWORD PTR $T3[ebp], eax
; File D:\Metin2 Server Files\mainline\SRC_2014\Metin2Client\EterLib\Camera.cpp

; 160  : 	if (CAMERA_STATE_CANTGOLEFT == GetCameraState())

  000f4	83 7d e8 03	 cmp	 DWORD PTR $T3[ebp], 3
  000f8	75 1e		 jne	 SHORT $LN4@Drag

; 161  : 		fNewRotationVelocity = fMAX(0.0f, fNewRotationVelocity);

  000fa	51		 push	 ecx
  000fb	f3 0f 10 45 f8	 movss	 xmm0, DWORD PTR _fNewRotationVelocity$[ebp]
  00100	f3 0f 11 04 24	 movss	 DWORD PTR [esp], xmm0
  00105	51		 push	 ecx
  00106	0f 57 c0	 xorps	 xmm0, xmm0
  00109	f3 0f 11 04 24	 movss	 DWORD PTR [esp], xmm0
  0010e	e8 00 00 00 00	 call	 ?fMAX@@YAMMM@Z		; fMAX
  00113	59		 pop	 ecx
  00114	59		 pop	 ecx
  00115	d9 5d f8	 fstp	 DWORD PTR _fNewRotationVelocity$[ebp]
$LN4@Drag:
; File D:\Metin2 Server Files\mainline\SRC_2014\Metin2Client\EterLib\Camera.h

; 154  : 		eCameraState GetCameraState() {return m_eCameraState;}

  00118	8b 45 fc	 mov	 eax, DWORD PTR _this$[ebp]
  0011b	8b 40 04	 mov	 eax, DWORD PTR [eax+4]
  0011e	89 45 e4	 mov	 DWORD PTR $T2[ebp], eax
; File D:\Metin2 Server Files\mainline\SRC_2014\Metin2Client\EterLib\Camera.cpp

; 162  : 	if (CAMERA_STATE_CANTGORIGHT == GetCameraState())

  00121	83 7d e4 02	 cmp	 DWORD PTR $T2[ebp], 2
  00125	75 1e		 jne	 SHORT $LN5@Drag

; 163  : 		fNewRotationVelocity = fMIN(0.0f, fNewRotationVelocity);

  00127	51		 push	 ecx
  00128	f3 0f 10 45 f8	 movss	 xmm0, DWORD PTR _fNewRotationVelocity$[ebp]
  0012d	f3 0f 11 04 24	 movss	 DWORD PTR [esp], xmm0
  00132	51		 push	 ecx
  00133	0f 57 c0	 xorps	 xmm0, xmm0
  00136	f3 0f 11 04 24	 movss	 DWORD PTR [esp], xmm0
  0013b	e8 00 00 00 00	 call	 ?fMIN@@YAMMM@Z		; fMIN
  00140	59		 pop	 ecx
  00141	59		 pop	 ecx
  00142	d9 5d f8	 fstp	 DWORD PTR _fNewRotationVelocity$[ebp]
$LN5@Drag:
; File D:\Metin2 Server Files\mainline\SRC_2014\Metin2Client\EterLib\Camera.h

; 154  : 		eCameraState GetCameraState() {return m_eCameraState;}

  00145	8b 45 fc	 mov	 eax, DWORD PTR _this$[ebp]
  00148	8b 40 04	 mov	 eax, DWORD PTR [eax+4]
  0014b	89 45 e0	 mov	 DWORD PTR $T1[ebp], eax
; File D:\Metin2 Server Files\mainline\SRC_2014\Metin2Client\EterLib\Camera.cpp

; 164  : 	if (CAMERA_STATE_CANTGODOWN == GetCameraState())

  0014e	83 7d e0 01	 cmp	 DWORD PTR $T1[ebp], 1
  00152	75 1e		 jne	 SHORT $LN6@Drag

; 165  : 		fNewPitchVelocity = fMAX(0.0f, fNewPitchVelocity);

  00154	51		 push	 ecx
  00155	f3 0f 10 45 f4	 movss	 xmm0, DWORD PTR _fNewPitchVelocity$[ebp]
  0015a	f3 0f 11 04 24	 movss	 DWORD PTR [esp], xmm0
  0015f	51		 push	 ecx
  00160	0f 57 c0	 xorps	 xmm0, xmm0
  00163	f3 0f 11 04 24	 movss	 DWORD PTR [esp], xmm0
  00168	e8 00 00 00 00	 call	 ?fMAX@@YAMMM@Z		; fMAX
  0016d	59		 pop	 ecx
  0016e	59		 pop	 ecx
  0016f	d9 5d f4	 fstp	 DWORD PTR _fNewPitchVelocity$[ebp]
$LN6@Drag:

; 166  : 	
; 167  : 	m_v3AngularVelocity.x = fNewRotationVelocity;

  00172	8b 45 fc	 mov	 eax, DWORD PTR _this$[ebp]
  00175	f3 0f 10 45 f8	 movss	 xmm0, DWORD PTR _fNewRotationVelocity$[ebp]
  0017a	f3 0f 11 80 24
	03 00 00	 movss	 DWORD PTR [eax+804], xmm0

; 168  : 	m_v3AngularVelocity.z = fNewPitchVelocity;

  00182	8b 45 fc	 mov	 eax, DWORD PTR _this$[ebp]
  00185	f3 0f 10 45 f4	 movss	 xmm0, DWORD PTR _fNewPitchVelocity$[ebp]
  0018a	f3 0f 11 80 2c
	03 00 00	 movss	 DWORD PTR [eax+812], xmm0

; 169  : 
; 170  : 	lpReturnPoint->x = m_lMousePosX;

  00192	8b 45 10	 mov	 eax, DWORD PTR _lpReturnPoint$[ebp]
  00195	8b 4d fc	 mov	 ecx, DWORD PTR _this$[ebp]
  00198	8b 89 0c 03 00
	00		 mov	 ecx, DWORD PTR [ecx+780]
  0019e	89 08		 mov	 DWORD PTR [eax], ecx

; 171  : 	lpReturnPoint->y = m_lMousePosY;

  001a0	8b 45 10	 mov	 eax, DWORD PTR _lpReturnPoint$[ebp]
  001a3	8b 4d fc	 mov	 ecx, DWORD PTR _this$[ebp]
  001a6	8b 89 10 03 00
	00		 mov	 ecx, DWORD PTR [ecx+784]
  001ac	89 48 04	 mov	 DWORD PTR [eax+4], ecx

; 172  : 	return true;

  001af	b0 01		 mov	 al, 1
$LN1@Drag:

; 173  : }

  001b1	c9		 leave
  001b2	c2 0c 00	 ret	 12			; 0000000cH
?Drag@CCamera@@QAE_NHHPAUtagPOINT@@@Z ENDP		; CCamera::Drag
_TEXT	ENDS
; Function compile flags: /Odspy
; File D:\Metin2 Server Files\mainline\SRC_2014\Metin2Client\EterLib\Camera.cpp
;	COMDAT ?Wheel@CCamera@@QAEXH@Z
_TEXT	SEGMENT
_this$ = -4						; size = 4
_nLen$ = 8						; size = 4
?Wheel@CCamera@@QAEXH@Z PROC				; CCamera::Wheel, COMDAT
; _this$ = ecx

; 91   : {

  00000	55		 push	 ebp
  00001	8b ec		 mov	 ebp, esp
  00003	51		 push	 ecx
  00004	89 4d fc	 mov	 DWORD PTR _this$[ebp], ecx

; 92   : 	if (IsLock())

  00007	8b 4d fc	 mov	 ecx, DWORD PTR _this$[ebp]
  0000a	e8 00 00 00 00	 call	 ?IsLock@CCamera@@QAE_NXZ ; CCamera::IsLock
  0000f	0f b6 c0	 movzx	 eax, al
  00012	85 c0		 test	 eax, eax
  00014	74 02		 je	 SHORT $LN2@Wheel

; 93   : 		return;

  00016	eb 1b		 jmp	 SHORT $LN1@Wheel
$LN2@Wheel:

; 94   : 
; 95   : 	m_v3AngularVelocity.y = (float)(nLen) * m_fResistance;

  00018	f3 0f 2a 45 08	 cvtsi2ss xmm0, DWORD PTR _nLen$[ebp]
  0001d	8b 45 fc	 mov	 eax, DWORD PTR _this$[ebp]
  00020	f3 0f 59 80 30
	03 00 00	 mulss	 xmm0, DWORD PTR [eax+816]
  00028	8b 45 fc	 mov	 eax, DWORD PTR _this$[ebp]
  0002b	f3 0f 11 80 28
	03 00 00	 movss	 DWORD PTR [eax+808], xmm0
$LN1@Wheel:

; 96   : }

  00033	c9		 leave
  00034	c2 04 00	 ret	 4
?Wheel@CCamera@@QAEXH@Z ENDP				; CCamera::Wheel
_TEXT	ENDS
; Function compile flags: /Odspy
; File D:\Metin2 Server Files\mainline\SRC_2014\Metin2Client\EterLib\Camera.cpp
;	COMDAT ?IsLock@CCamera@@QAE_NXZ
_TEXT	SEGMENT
_this$ = -4						; size = 4
?IsLock@CCamera@@QAE_NXZ PROC				; CCamera::IsLock, COMDAT
; _this$ = ecx

; 81   : {

  00000	55		 push	 ebp
  00001	8b ec		 mov	 ebp, esp
  00003	51		 push	 ecx
  00004	89 4d fc	 mov	 DWORD PTR _this$[ebp], ecx

; 82   : 	return m_isLock;

  00007	8b 45 fc	 mov	 eax, DWORD PTR _this$[ebp]
  0000a	8a 40 2c	 mov	 al, BYTE PTR [eax+44]

; 83   : }

  0000d	c9		 leave
  0000e	c3		 ret	 0
?IsLock@CCamera@@QAE_NXZ ENDP				; CCamera::IsLock
_TEXT	ENDS
; Function compile flags: /Odspy
; File D:\Metin2 Server Files\mainline\SRC_2014\Metin2Client\EterLib\Camera.cpp
;	COMDAT ?Unlock@CCamera@@QAEXXZ
_TEXT	SEGMENT
_this$ = -4						; size = 4
?Unlock@CCamera@@QAEXXZ PROC				; CCamera::Unlock, COMDAT
; _this$ = ecx

; 76   : {

  00000	55		 push	 ebp
  00001	8b ec		 mov	 ebp, esp
  00003	51		 push	 ecx
  00004	89 4d fc	 mov	 DWORD PTR _this$[ebp], ecx

; 77   : 	m_isLock = false;

  00007	8b 45 fc	 mov	 eax, DWORD PTR _this$[ebp]
  0000a	c6 40 2c 00	 mov	 BYTE PTR [eax+44], 0

; 78   : }

  0000e	c9		 leave
  0000f	c3		 ret	 0
?Unlock@CCamera@@QAEXXZ ENDP				; CCamera::Unlock
_TEXT	ENDS
; Function compile flags: /Odspy
; File D:\Metin2 Server Files\mainline\SRC_2014\Metin2Client\EterLib\Camera.cpp
;	COMDAT ?Lock@CCamera@@QAEXXZ
_TEXT	SEGMENT
_this$ = -4						; size = 4
?Lock@CCamera@@QAEXXZ PROC				; CCamera::Lock, COMDAT
; _this$ = ecx

; 71   : {

  00000	55		 push	 ebp
  00001	8b ec		 mov	 ebp, esp
  00003	51		 push	 ecx
  00004	89 4d fc	 mov	 DWORD PTR _this$[ebp], ecx

; 72   : 	m_isLock = true;

  00007	8b 45 fc	 mov	 eax, DWORD PTR _this$[ebp]
  0000a	c6 40 2c 01	 mov	 BYTE PTR [eax+44], 1

; 73   : }

  0000e	c9		 leave
  0000f	c3		 ret	 0
?Lock@CCamera@@QAEXXZ ENDP				; CCamera::Lock
_TEXT	ENDS
; Function compile flags: /Odspy
; File D:\Metin2 Server Files\mainline\SRC_2014\Metin2Client\EterLib\Camera.cpp
;	COMDAT ?SetCameraMaxDistance@CCamera@@SAXM@Z
_TEXT	SEGMENT
_fMax$ = 8						; size = 4
?SetCameraMaxDistance@CCamera@@SAXM@Z PROC		; CCamera::SetCameraMaxDistance, COMDAT

; 14   : {

  00000	55		 push	 ebp
  00001	8b ec		 mov	 ebp, esp

; 15   : 	CAMERA_MAX_DISTANCE = fMax;

  00003	f3 0f 10 45 08	 movss	 xmm0, DWORD PTR _fMax$[ebp]
  00008	f3 0f 11 05 00
	00 00 00	 movss	 DWORD PTR ?CAMERA_MAX_DISTANCE@CCamera@@0MA, xmm0

; 16   : }

  00010	5d		 pop	 ebp
  00011	c3		 ret	 0
?SetCameraMaxDistance@CCamera@@SAXM@Z ENDP		; CCamera::SetCameraMaxDistance
_TEXT	ENDS
; Function compile flags: /Odspy
; File D:\Metin2 Server Files\mainline\SRC_2014\Metin2Client\EterLib\Camera.cpp
;	COMDAT ??1CCamera@@UAE@XZ
_TEXT	SEGMENT
_this$ = -4						; size = 4
??1CCamera@@UAE@XZ PROC					; CCamera::~CCamera, COMDAT
; _this$ = ecx

; 67   : {

  00000	55		 push	 ebp
  00001	8b ec		 mov	 ebp, esp
  00003	51		 push	 ecx
  00004	89 4d fc	 mov	 DWORD PTR _this$[ebp], ecx
  00007	8b 45 fc	 mov	 eax, DWORD PTR _this$[ebp]
  0000a	c7 00 00 00 00
	00		 mov	 DWORD PTR [eax], OFFSET ??_7CCamera@@6B@

; 68   : }

  00010	c9		 leave
  00011	c3		 ret	 0
??1CCamera@@UAE@XZ ENDP					; CCamera::~CCamera
_TEXT	ENDS
; Function compile flags: /Odspy
; File D:\Metin2 Server Files\mainline\SRC_2014\Metin2Client\EterLib\Camera.cpp
; File D:\Metin2 Server Files\mainline\SRC_2014\M2Data\include\d3dx8math.inl
; File D:\Metin2 Server Files\mainline\SRC_2014\Metin2Client\EterLib\Camera.cpp
; File D:\Metin2 Server Files\mainline\SRC_2014\M2Data\include\d3dx8math.inl
; File D:\Metin2 Server Files\mainline\SRC_2014\Metin2Client\EterLib\Camera.cpp
; File D:\Metin2 Server Files\mainline\SRC_2014\M2Data\include\d3dx8math.inl
; File D:\Metin2 Server Files\mainline\SRC_2014\Metin2Client\EterLib\Camera.cpp
;	COMDAT ??0CCamera@@QAE@XZ
_TEXT	SEGMENT
_this$ = -68						; size = 4
$T1 = -64						; size = 12
$T2 = -52						; size = 12
$T3 = -40						; size = 12
$T4 = -28						; size = 12
$T5 = -16						; size = 12
__$ArrayPad$ = -4					; size = 4
??0CCamera@@QAE@XZ PROC					; CCamera::CCamera, COMDAT
; _this$ = ecx

; 39   : {

  00000	55		 push	 ebp
  00001	8b ec		 mov	 ebp, esp
  00003	83 ec 44	 sub	 esp, 68			; 00000044H
  00006	a1 00 00 00 00	 mov	 eax, DWORD PTR ___security_cookie
  0000b	33 c5		 xor	 eax, ebp
  0000d	89 45 fc	 mov	 DWORD PTR __$ArrayPad$[ebp], eax
  00010	56		 push	 esi
  00011	57		 push	 edi
  00012	89 4d bc	 mov	 DWORD PTR _this$[ebp], ecx
  00015	8b 45 bc	 mov	 eax, DWORD PTR _this$[ebp]
  00018	c7 00 00 00 00
	00		 mov	 DWORD PTR [eax], OFFSET ??_7CCamera@@6B@

; 38   : m_isLock(false)

  0001e	8b 45 bc	 mov	 eax, DWORD PTR _this$[ebp]
  00021	c6 40 2c 00	 mov	 BYTE PTR [eax+44], 0

; 35   : m_fEyeGroundHeightRatio(0.3f),

  00025	8b 45 bc	 mov	 eax, DWORD PTR _this$[ebp]
  00028	f3 0f 10 05 00
	00 00 00	 movss	 xmm0, DWORD PTR __real@3e99999a
  00030	f3 0f 11 80 fc
	02 00 00	 movss	 DWORD PTR [eax+764], xmm0

; 36   : m_fTargetHeightLimitRatio(2.0f),

  00038	8b 45 bc	 mov	 eax, DWORD PTR _this$[ebp]
  0003b	f3 0f 10 05 00
	00 00 00	 movss	 xmm0, DWORD PTR __real@40000000
  00043	f3 0f 11 80 00
	03 00 00	 movss	 DWORD PTR [eax+768], xmm0

; 37   : m_fResistance(c_fDefaultResistance),

  0004b	8b 45 bc	 mov	 eax, DWORD PTR _this$[ebp]
  0004e	f3 0f 10 05 00
	00 00 00	 movss	 xmm0, DWORD PTR __real@3e99999a
  00056	f3 0f 11 80 30
	03 00 00	 movss	 DWORD PTR [eax+816], xmm0

; 40   : 	m_fDistance						= 1.0f;

  0005e	8b 45 bc	 mov	 eax, DWORD PTR _this$[ebp]
  00061	f3 0f 10 05 00
	00 00 00	 movss	 xmm0, DWORD PTR __real@3f800000
  00069	f3 0f 11 80 34
	01 00 00	 movss	 DWORD PTR [eax+308], xmm0

; 41   : 	m_eCameraState					= CAMERA_STATE_NORMAL;

  00071	8b 45 bc	 mov	 eax, DWORD PTR _this$[ebp]
  00074	83 60 04 00	 and	 DWORD PTR [eax+4], 0

; 42   : 	m_eCameraStatePrev				= CAMERA_STATE_NORMAL;

  00078	8b 45 bc	 mov	 eax, DWORD PTR _this$[ebp]
  0007b	83 60 08 00	 and	 DWORD PTR [eax+8], 0

; 43   : 	m_ulNumScreenBuilding			= 0;

  0007f	8b 45 bc	 mov	 eax, DWORD PTR _this$[ebp]
  00082	83 60 28 00	 and	 DWORD PTR [eax+40], 0

; 44   : 
; 45   : 	m_fPitchSum = 0.0f;

  00086	8b 45 bc	 mov	 eax, DWORD PTR _this$[ebp]
  00089	0f 57 c0	 xorps	 xmm0, xmm0
  0008c	f3 0f 11 80 04
	03 00 00	 movss	 DWORD PTR [eax+772], xmm0

; 46   : 	m_fRollSum = 0.0f;

  00094	8b 45 bc	 mov	 eax, DWORD PTR _this$[ebp]
  00097	0f 57 c0	 xorps	 xmm0, xmm0
  0009a	f3 0f 11 80 08
	03 00 00	 movss	 DWORD PTR [eax+776], xmm0

; 47   : 
; 48   : 	m_fTerrainCollisionRadius		= 50.0f;

  000a2	8b 45 bc	 mov	 eax, DWORD PTR _this$[ebp]
  000a5	f3 0f 10 05 00
	00 00 00	 movss	 xmm0, DWORD PTR __real@42480000
  000ad	f3 0f 11 80 f0
	02 00 00	 movss	 DWORD PTR [eax+752], xmm0

; 49   : 	m_fObjectCollisionRadius		= 50.0f;

  000b5	8b 45 bc	 mov	 eax, DWORD PTR _this$[ebp]
  000b8	f3 0f 10 05 00
	00 00 00	 movss	 xmm0, DWORD PTR __real@42480000
  000c0	f3 0f 11 80 f4
	02 00 00	 movss	 DWORD PTR [eax+756], xmm0

; 50   : 
; 51   : 	m_bDrag							= false;

  000c8	8b 45 bc	 mov	 eax, DWORD PTR _this$[ebp]
  000cb	c6 80 14 03 00
	00 00		 mov	 BYTE PTR [eax+788], 0

; 52   : 
; 53   : 	m_lMousePosX					= -1;

  000d2	8b 45 bc	 mov	 eax, DWORD PTR _this$[ebp]
  000d5	83 88 0c 03 00
	00 ff		 or	 DWORD PTR [eax+780], -1

; 54   : 	m_lMousePosY					= -1;

  000dc	8b 45 bc	 mov	 eax, DWORD PTR _this$[ebp]
  000df	83 88 10 03 00
	00 ff		 or	 DWORD PTR [eax+784], -1

; 55   : 
; 56   : 	m_fTarget_						= CAMERA_TARGET_STANDARD;

  000e6	8b 45 bc	 mov	 eax, DWORD PTR _this$[ebp]
  000e9	f3 0f 10 05 00
	00 00 00	 movss	 xmm0, DWORD PTR __real@42c80000
  000f1	f3 0f 11 80 f8
	02 00 00	 movss	 DWORD PTR [eax+760], xmm0
; File D:\Metin2 Server Files\mainline\SRC_2014\M2Data\include\d3dx8math.inl

; 180  :     x = fx;

  000f9	0f 57 c0	 xorps	 xmm0, xmm0
  000fc	f3 0f 11 45 f0	 movss	 DWORD PTR $T5[ebp], xmm0

; 181  :     y = fy;

  00101	0f 57 c0	 xorps	 xmm0, xmm0
  00104	f3 0f 11 45 f4	 movss	 DWORD PTR $T5[ebp+4], xmm0

; 182  :     z = fz;

  00109	0f 57 c0	 xorps	 xmm0, xmm0
  0010c	f3 0f 11 45 f8	 movss	 DWORD PTR $T5[ebp+8], xmm0
; File D:\Metin2 Server Files\mainline\SRC_2014\Metin2Client\EterLib\Camera.cpp

; 58   : 	m_v3AngularAcceleration			= D3DXVECTOR3(0.0f, 0.0f, 0.0f);

  00111	8b 7d bc	 mov	 edi, DWORD PTR _this$[ebp]
  00114	81 c7 18 03 00
	00		 add	 edi, 792		; 00000318H
  0011a	8d 75 f0	 lea	 esi, DWORD PTR $T5[ebp]
  0011d	a5		 movsd
  0011e	a5		 movsd
  0011f	a5		 movsd
; File D:\Metin2 Server Files\mainline\SRC_2014\M2Data\include\d3dx8math.inl

; 180  :     x = fx;

  00120	0f 57 c0	 xorps	 xmm0, xmm0
  00123	f3 0f 11 45 e4	 movss	 DWORD PTR $T4[ebp], xmm0

; 181  :     y = fy;

  00128	0f 57 c0	 xorps	 xmm0, xmm0
  0012b	f3 0f 11 45 e8	 movss	 DWORD PTR $T4[ebp+4], xmm0

; 182  :     z = fz;

  00130	0f 57 c0	 xorps	 xmm0, xmm0
  00133	f3 0f 11 45 ec	 movss	 DWORD PTR $T4[ebp+8], xmm0
; File D:\Metin2 Server Files\mainline\SRC_2014\Metin2Client\EterLib\Camera.cpp

; 59   : 	m_v3AngularVelocity				= D3DXVECTOR3(0.0f, 0.0f, 0.0f);

  00138	8b 7d bc	 mov	 edi, DWORD PTR _this$[ebp]
  0013b	81 c7 24 03 00
	00		 add	 edi, 804		; 00000324H
  00141	8d 75 e4	 lea	 esi, DWORD PTR $T4[ebp]
  00144	a5		 movsd
  00145	a5		 movsd
  00146	a5		 movsd

; 60   : 
; 61   : 	m_bProcessTerrainCollision		= true;

  00147	8b 45 bc	 mov	 eax, DWORD PTR _this$[ebp]
  0014a	c6 80 34 03 00
	00 01		 mov	 BYTE PTR [eax+820], 1
; File D:\Metin2 Server Files\mainline\SRC_2014\M2Data\include\d3dx8math.inl

; 180  :     x = fx;

  00151	0f 57 c0	 xorps	 xmm0, xmm0
  00154	f3 0f 11 45 d8	 movss	 DWORD PTR $T3[ebp], xmm0

; 181  :     y = fy;

  00159	f3 0f 10 05 00
	00 00 00	 movss	 xmm0, DWORD PTR __real@3f800000
  00161	f3 0f 11 45 dc	 movss	 DWORD PTR $T3[ebp+4], xmm0

; 182  :     z = fz;

  00166	0f 57 c0	 xorps	 xmm0, xmm0
  00169	f3 0f 11 45 e0	 movss	 DWORD PTR $T3[ebp+8], xmm0

; 180  :     x = fx;

  0016e	0f 57 c0	 xorps	 xmm0, xmm0
  00171	f3 0f 11 45 cc	 movss	 DWORD PTR $T2[ebp], xmm0

; 181  :     y = fy;

  00176	0f 57 c0	 xorps	 xmm0, xmm0
  00179	f3 0f 11 45 d0	 movss	 DWORD PTR $T2[ebp+4], xmm0

; 182  :     z = fz;

  0017e	0f 57 c0	 xorps	 xmm0, xmm0
  00181	f3 0f 11 45 d4	 movss	 DWORD PTR $T2[ebp+8], xmm0

; 180  :     x = fx;

  00186	0f 57 c0	 xorps	 xmm0, xmm0
  00189	f3 0f 11 45 c0	 movss	 DWORD PTR $T1[ebp], xmm0

; 181  :     y = fy;

  0018e	0f 57 c0	 xorps	 xmm0, xmm0
  00191	f3 0f 11 45 c4	 movss	 DWORD PTR $T1[ebp+4], xmm0

; 182  :     z = fz;

  00196	f3 0f 10 05 00
	00 00 00	 movss	 xmm0, DWORD PTR __real@3f800000
  0019e	f3 0f 11 45 c8	 movss	 DWORD PTR $T1[ebp+8], xmm0
; File D:\Metin2 Server Files\mainline\SRC_2014\Metin2Client\EterLib\Camera.cpp

; 63   :     SetViewParams(D3DXVECTOR3(0.0f,0.0f,1.0f), D3DXVECTOR3(0.0f,0.0f,0.0f), D3DXVECTOR3(0.0f,1.0f,0.0f));

  001a3	8d 45 d8	 lea	 eax, DWORD PTR $T3[ebp]
  001a6	50		 push	 eax
  001a7	8d 45 cc	 lea	 eax, DWORD PTR $T2[ebp]
  001aa	50		 push	 eax
  001ab	8d 45 c0	 lea	 eax, DWORD PTR $T1[ebp]
  001ae	50		 push	 eax
  001af	8b 4d bc	 mov	 ecx, DWORD PTR _this$[ebp]
  001b2	e8 00 00 00 00	 call	 ?SetViewParams@CCamera@@QAEXABUD3DXVECTOR3@@00@Z ; CCamera::SetViewParams

; 64   : }

  001b7	8b 45 bc	 mov	 eax, DWORD PTR _this$[ebp]
  001ba	5f		 pop	 edi
  001bb	5e		 pop	 esi
  001bc	8b 4d fc	 mov	 ecx, DWORD PTR __$ArrayPad$[ebp]
  001bf	33 cd		 xor	 ecx, ebp
  001c1	e8 00 00 00 00	 call	 @__security_check_cookie@4
  001c6	c9		 leave
  001c7	c3		 ret	 0
??0CCamera@@QAE@XZ ENDP					; CCamera::CCamera
_TEXT	ENDS
; Function compile flags: /Odspy
; File D:\Metin2 Server Files\mainline\SRC_2014\Metin2Client\EterLib\Ray.h
; File D:\Metin2 Server Files\mainline\SRC_2014\M2Data\include\d3dx8math.inl
; File D:\Metin2 Server Files\mainline\SRC_2014\Metin2Client\EterLib\Ray.h
; File D:\Metin2 Server Files\mainline\SRC_2014\M2Data\include\d3dx8math.inl
; File D:\Metin2 Server Files\mainline\SRC_2014\Metin2Client\EterLib\Ray.h
;	COMDAT ?SetDirection@CRay@@QAEXABUD3DXVECTOR3@@M@Z
_TEXT	SEGMENT
_fz$ = -68						; size = 4
_fy$ = -64						; size = 4
_fx$ = -60						; size = 4
_fz$ = -56						; size = 4
_fy$ = -52						; size = 4
_fx$ = -48						; size = 4
_this$ = -44						; size = 4
_f$ = -40						; size = 4
_v$ = -36						; size = 4
_this$ = -32						; size = 4
$T1 = -28						; size = 12
$T2 = -16						; size = 12
__$ArrayPad$ = -4					; size = 4
_v3Dir$ = 8						; size = 4
_fRayRange$ = 12					; size = 4
?SetDirection@CRay@@QAEXABUD3DXVECTOR3@@M@Z PROC	; CRay::SetDirection, COMDAT
; _this$ = ecx

; 26   : 		{

  00000	55		 push	 ebp
  00001	8b ec		 mov	 ebp, esp
  00003	83 ec 44	 sub	 esp, 68			; 00000044H
  00006	a1 00 00 00 00	 mov	 eax, DWORD PTR ___security_cookie
  0000b	33 c5		 xor	 eax, ebp
  0000d	89 45 fc	 mov	 DWORD PTR __$ArrayPad$[ebp], eax
  00010	56		 push	 esi
  00011	57		 push	 edi
  00012	89 4d e0	 mov	 DWORD PTR _this$[ebp], ecx

; 27   : 			assert(fRayRange >= 0);
; 28   : 			m_v3Direction = v3Dir;

  00015	8b 7d e0	 mov	 edi, DWORD PTR _this$[ebp]
  00018	83 c7 18	 add	 edi, 24			; 00000018H
  0001b	8b 75 08	 mov	 esi, DWORD PTR _v3Dir$[ebp]
  0001e	a5		 movsd
  0001f	a5		 movsd
  00020	a5		 movsd

; 29   : 			D3DXVec3Normalize(&m_v3Direction, &m_v3Direction);

  00021	8b 45 e0	 mov	 eax, DWORD PTR _this$[ebp]
  00024	83 c0 18	 add	 eax, 24			; 00000018H
  00027	50		 push	 eax
  00028	8b 45 e0	 mov	 eax, DWORD PTR _this$[ebp]
  0002b	83 c0 18	 add	 eax, 24			; 00000018H
  0002e	50		 push	 eax
  0002f	e8 00 00 00 00	 call	 _D3DXVec3Normalize@8

; 30   : 			m_fRayRange = fRayRange;

  00034	8b 45 e0	 mov	 eax, DWORD PTR _this$[ebp]
  00037	f3 0f 10 45 0c	 movss	 xmm0, DWORD PTR _fRayRange$[ebp]
  0003c	f3 0f 11 40 24	 movss	 DWORD PTR [eax+36], xmm0

; 31   : 			m_v3End = m_v3Start + m_fRayRange * m_v3Direction;

  00041	8b 45 e0	 mov	 eax, DWORD PTR _this$[ebp]
  00044	83 c0 18	 add	 eax, 24			; 00000018H
  00047	89 45 dc	 mov	 DWORD PTR _v$[ebp], eax
  0004a	8b 45 e0	 mov	 eax, DWORD PTR _this$[ebp]
  0004d	f3 0f 10 40 24	 movss	 xmm0, DWORD PTR [eax+36]
  00052	f3 0f 11 45 d8	 movss	 DWORD PTR _f$[ebp], xmm0
; File D:\Metin2 Server Files\mainline\SRC_2014\M2Data\include\d3dx8math.inl

; 283  :     return D3DXVECTOR3(f * v.x, f * v.y, f * v.z);

  00057	8b 45 dc	 mov	 eax, DWORD PTR _v$[ebp]
  0005a	f3 0f 10 45 d8	 movss	 xmm0, DWORD PTR _f$[ebp]
  0005f	f3 0f 59 00	 mulss	 xmm0, DWORD PTR [eax]
  00063	f3 0f 11 45 d0	 movss	 DWORD PTR _fx$[ebp], xmm0
  00068	8b 45 dc	 mov	 eax, DWORD PTR _v$[ebp]
  0006b	f3 0f 10 45 d8	 movss	 xmm0, DWORD PTR _f$[ebp]
  00070	f3 0f 59 40 04	 mulss	 xmm0, DWORD PTR [eax+4]
  00075	f3 0f 11 45 cc	 movss	 DWORD PTR _fy$[ebp], xmm0
  0007a	8b 45 dc	 mov	 eax, DWORD PTR _v$[ebp]
  0007d	f3 0f 10 45 d8	 movss	 xmm0, DWORD PTR _f$[ebp]
  00082	f3 0f 59 40 08	 mulss	 xmm0, DWORD PTR [eax+8]
  00087	f3 0f 11 45 c8	 movss	 DWORD PTR _fz$[ebp], xmm0

; 180  :     x = fx;

  0008c	f3 0f 10 45 d0	 movss	 xmm0, DWORD PTR _fx$[ebp]
  00091	f3 0f 11 45 f0	 movss	 DWORD PTR $T2[ebp], xmm0

; 181  :     y = fy;

  00096	f3 0f 10 45 cc	 movss	 xmm0, DWORD PTR _fy$[ebp]
  0009b	f3 0f 11 45 f4	 movss	 DWORD PTR $T2[ebp+4], xmm0

; 182  :     z = fz;

  000a0	f3 0f 10 45 c8	 movss	 xmm0, DWORD PTR _fz$[ebp]
  000a5	f3 0f 11 45 f8	 movss	 DWORD PTR $T2[ebp+8], xmm0
; File D:\Metin2 Server Files\mainline\SRC_2014\Metin2Client\EterLib\Ray.h

; 31   : 			m_v3End = m_v3Start + m_fRayRange * m_v3Direction;

  000aa	8b 45 e0	 mov	 eax, DWORD PTR _this$[ebp]
  000ad	89 45 d4	 mov	 DWORD PTR _this$[ebp], eax
; File D:\Metin2 Server Files\mainline\SRC_2014\M2Data\include\d3dx8math.inl

; 257  :     return D3DXVECTOR3(x + v.x, y + v.y, z + v.z);

  000b0	8b 45 d4	 mov	 eax, DWORD PTR _this$[ebp]
  000b3	f3 0f 10 00	 movss	 xmm0, DWORD PTR [eax]
  000b7	f3 0f 58 45 f0	 addss	 xmm0, DWORD PTR $T2[ebp]
  000bc	f3 0f 11 45 c4	 movss	 DWORD PTR _fx$[ebp], xmm0
  000c1	8b 45 d4	 mov	 eax, DWORD PTR _this$[ebp]
  000c4	f3 0f 10 40 04	 movss	 xmm0, DWORD PTR [eax+4]
  000c9	f3 0f 58 45 f4	 addss	 xmm0, DWORD PTR $T2[ebp+4]
  000ce	f3 0f 11 45 c0	 movss	 DWORD PTR _fy$[ebp], xmm0
  000d3	8b 45 d4	 mov	 eax, DWORD PTR _this$[ebp]
  000d6	f3 0f 10 40 08	 movss	 xmm0, DWORD PTR [eax+8]
  000db	f3 0f 58 45 f8	 addss	 xmm0, DWORD PTR $T2[ebp+8]
  000e0	f3 0f 11 45 bc	 movss	 DWORD PTR _fz$[ebp], xmm0

; 180  :     x = fx;

  000e5	f3 0f 10 45 c4	 movss	 xmm0, DWORD PTR _fx$[ebp]
  000ea	f3 0f 11 45 e4	 movss	 DWORD PTR $T1[ebp], xmm0

; 181  :     y = fy;

  000ef	f3 0f 10 45 c0	 movss	 xmm0, DWORD PTR _fy$[ebp]
  000f4	f3 0f 11 45 e8	 movss	 DWORD PTR $T1[ebp+4], xmm0

; 182  :     z = fz;

  000f9	f3 0f 10 45 bc	 movss	 xmm0, DWORD PTR _fz$[ebp]
  000fe	f3 0f 11 45 ec	 movss	 DWORD PTR $T1[ebp+8], xmm0
; File D:\Metin2 Server Files\mainline\SRC_2014\Metin2Client\EterLib\Ray.h

; 31   : 			m_v3End = m_v3Start + m_fRayRange * m_v3Direction;

  00103	8b 7d e0	 mov	 edi, DWORD PTR _this$[ebp]
  00106	83 c7 0c	 add	 edi, 12			; 0000000cH
  00109	8d 75 e4	 lea	 esi, DWORD PTR $T1[ebp]
  0010c	a5		 movsd
  0010d	a5		 movsd
  0010e	a5		 movsd

; 32   : 		}

  0010f	5f		 pop	 edi
  00110	5e		 pop	 esi
  00111	8b 4d fc	 mov	 ecx, DWORD PTR __$ArrayPad$[ebp]
  00114	33 cd		 xor	 ecx, ebp
  00116	e8 00 00 00 00	 call	 @__security_check_cookie@4
  0011b	c9		 leave
  0011c	c2 08 00	 ret	 8
?SetDirection@CRay@@QAEXABUD3DXVECTOR3@@M@Z ENDP	; CRay::SetDirection
_TEXT	ENDS
; Function compile flags: /Odspy
; File C:\Program Files (x86)\Microsoft Visual Studio\2019\Community\VC\Tools\MSVC\14.28.29333\include\xmemory
;	COMDAT ??$_Allocate_manually_vector_aligned@U_Default_allocate_traits@std@@@std@@YAPAXI@Z
_TEXT	SEGMENT
__Ptr$ = -12						; size = 4
__Block_size$ = -8					; size = 4
__Ptr_container$ = -4					; size = 4
__Bytes$ = 8						; size = 4
??$_Allocate_manually_vector_aligned@U_Default_allocate_traits@std@@@std@@YAPAXI@Z PROC ; std::_Allocate_manually_vector_aligned<std::_Default_allocate_traits>, COMDAT

; 113  : __declspec(allocator) void* _Allocate_manually_vector_aligned(const size_t _Bytes) {

  00000	55		 push	 ebp
  00001	8b ec		 mov	 ebp, esp
  00003	83 ec 0c	 sub	 esp, 12			; 0000000cH

; 114  :     // allocate _Bytes manually aligned to at least _Big_allocation_alignment
; 115  :     const size_t _Block_size = _Non_user_size + _Bytes;

  00006	8b 45 08	 mov	 eax, DWORD PTR __Bytes$[ebp]
  00009	83 c0 23	 add	 eax, 35			; 00000023H
  0000c	89 45 f8	 mov	 DWORD PTR __Block_size$[ebp], eax

; 116  :     if (_Block_size <= _Bytes) {

  0000f	8b 45 f8	 mov	 eax, DWORD PTR __Block_size$[ebp]
  00012	3b 45 08	 cmp	 eax, DWORD PTR __Bytes$[ebp]
  00015	77 05		 ja	 SHORT $LN12@Allocate_m

; 117  :         _Throw_bad_array_new_length(); // add overflow

  00017	e8 00 00 00 00	 call	 ?_Throw_bad_array_new_length@std@@YAXXZ ; std::_Throw_bad_array_new_length
$LN12@Allocate_m:

; 77   :         return ::operator new(_Bytes);

  0001c	ff 75 f8	 push	 DWORD PTR __Block_size$[ebp]
  0001f	e8 00 00 00 00	 call	 ??2@YAPAXI@Z		; operator new
  00024	59		 pop	 ecx

; 118  :     }
; 119  : 
; 120  :     const uintptr_t _Ptr_container = reinterpret_cast<uintptr_t>(_Traits::_Allocate(_Block_size));

  00025	89 45 fc	 mov	 DWORD PTR __Ptr_container$[ebp], eax
$LN4@Allocate_m:

; 121  :     _STL_VERIFY(_Ptr_container != 0, "invalid argument"); // validate even in release since we're doing p[-1]

  00028	83 7d fc 00	 cmp	 DWORD PTR __Ptr_container$[ebp], 0
  0002c	74 02		 je	 SHORT $LN7@Allocate_m
  0002e	eb 09		 jmp	 SHORT $LN2@Allocate_m
$LN7@Allocate_m:
  00030	e8 00 00 00 00	 call	 __invalid_parameter_noinfo_noreturn
  00035	33 c0		 xor	 eax, eax
  00037	75 f7		 jne	 SHORT $LN7@Allocate_m
$LN2@Allocate_m:
  00039	33 c0		 xor	 eax, eax
  0003b	75 eb		 jne	 SHORT $LN4@Allocate_m

; 122  :     void* const _Ptr = reinterpret_cast<void*>((_Ptr_container + _Non_user_size) & ~(_Big_allocation_alignment - 1));

  0003d	8b 45 fc	 mov	 eax, DWORD PTR __Ptr_container$[ebp]
  00040	83 c0 23	 add	 eax, 35			; 00000023H
  00043	83 e0 e0	 and	 eax, -32		; ffffffe0H
  00046	89 45 f4	 mov	 DWORD PTR __Ptr$[ebp], eax

; 123  :     static_cast<uintptr_t*>(_Ptr)[-1] = _Ptr_container;

  00049	6a 04		 push	 4
  0004b	58		 pop	 eax
  0004c	6b c0 ff	 imul	 eax, eax, -1
  0004f	8b 4d f4	 mov	 ecx, DWORD PTR __Ptr$[ebp]
  00052	8b 55 fc	 mov	 edx, DWORD PTR __Ptr_container$[ebp]
  00055	89 14 01	 mov	 DWORD PTR [ecx+eax], edx

; 124  : 
; 125  : #ifdef _DEBUG
; 126  :     static_cast<uintptr_t*>(_Ptr)[-2] = _Big_allocation_sentinel;
; 127  : #endif // _DEBUG
; 128  :     return _Ptr;

  00058	8b 45 f4	 mov	 eax, DWORD PTR __Ptr$[ebp]
$LN11@Allocate_m:

; 129  : }

  0005b	c9		 leave
  0005c	c3		 ret	 0
??$_Allocate_manually_vector_aligned@U_Default_allocate_traits@std@@@std@@YAPAXI@Z ENDP ; std::_Allocate_manually_vector_aligned<std::_Default_allocate_traits>
_TEXT	ENDS
; Function compile flags: /Odspy
; File C:\Program Files (x86)\Microsoft Visual Studio\2019\Community\VC\Tools\MSVC\14.28.29333\include\xmemory
;	COMDAT ??$_Allocate@$07U_Default_allocate_traits@std@@$0A@@std@@YAPAXI@Z
_TEXT	SEGMENT
__Bytes$ = 8						; size = 4
??$_Allocate@$07U_Default_allocate_traits@std@@$0A@@std@@YAPAXI@Z PROC ; std::_Allocate<8,std::_Default_allocate_traits,0>, COMDAT

; 197  : __declspec(allocator) void* _Allocate(const size_t _Bytes) {

  00000	55		 push	 ebp
  00001	8b ec		 mov	 ebp, esp

; 198  :     // allocate _Bytes when !_HAS_ALIGNED_NEW || _Align <= __STDCPP_DEFAULT_NEW_ALIGNMENT__
; 199  : #if defined(_M_IX86) || defined(_M_X64)
; 200  :     if (_Bytes >= _Big_allocation_threshold) { // boost the alignment of big allocations to help autovectorization

  00003	81 7d 08 00 10
	00 00		 cmp	 DWORD PTR __Bytes$[ebp], 4096 ; 00001000H
  0000a	72 0b		 jb	 SHORT $LN2@Allocate

; 201  :         return _Allocate_manually_vector_aligned<_Traits>(_Bytes);

  0000c	ff 75 08	 push	 DWORD PTR __Bytes$[ebp]
  0000f	e8 00 00 00 00	 call	 ??$_Allocate_manually_vector_aligned@U_Default_allocate_traits@std@@@std@@YAPAXI@Z ; std::_Allocate_manually_vector_aligned<std::_Default_allocate_traits>
  00014	59		 pop	 ecx
  00015	eb 13		 jmp	 SHORT $LN1@Allocate
$LN2@Allocate:

; 202  :     }
; 203  : #endif // defined(_M_IX86) || defined(_M_X64)
; 204  : 
; 205  :     if (_Bytes != 0) {

  00017	83 7d 08 00	 cmp	 DWORD PTR __Bytes$[ebp], 0
  0001b	74 0b		 je	 SHORT $LN3@Allocate

; 77   :         return ::operator new(_Bytes);

  0001d	ff 75 08	 push	 DWORD PTR __Bytes$[ebp]
  00020	e8 00 00 00 00	 call	 ??2@YAPAXI@Z		; operator new
  00025	59		 pop	 ecx

; 206  :         return _Traits::_Allocate(_Bytes);

  00026	eb 02		 jmp	 SHORT $LN1@Allocate
$LN3@Allocate:

; 207  :     }
; 208  : 
; 209  :     return nullptr;

  00028	33 c0		 xor	 eax, eax
$LN1@Allocate:

; 210  : }

  0002a	5d		 pop	 ebp
  0002b	c3		 ret	 0
??$_Allocate@$07U_Default_allocate_traits@std@@$0A@@std@@YAPAXI@Z ENDP ; std::_Allocate<8,std::_Default_allocate_traits,0>
_TEXT	ENDS
; Function compile flags: /Odspy
; File C:\Program Files (x86)\Microsoft Visual Studio\2019\Community\VC\Tools\MSVC\14.28.29333\include\xmemory
;	COMDAT ??$_Deallocate@$07$0A@@std@@YAXPAXI@Z
_TEXT	SEGMENT
__$EHRec$ = -12						; size = 12
__Ptr$ = 8						; size = 4
__Bytes$ = 12						; size = 4
??$_Deallocate@$07$0A@@std@@YAXPAXI@Z PROC		; std::_Deallocate<8,0>, COMDAT

; 213  : void _Deallocate(void* _Ptr, size_t _Bytes) noexcept {

  00000	55		 push	 ebp
  00001	8b ec		 mov	 ebp, esp
  00003	6a ff		 push	 -1
  00005	68 00 00 00 00	 push	 __ehhandler$??$_Deallocate@$07$0A@@std@@YAXPAXI@Z
  0000a	64 a1 00 00 00
	00		 mov	 eax, DWORD PTR fs:0
  00010	50		 push	 eax
  00011	a1 00 00 00 00	 mov	 eax, DWORD PTR ___security_cookie
  00016	33 c5		 xor	 eax, ebp
  00018	50		 push	 eax
  00019	8d 45 f4	 lea	 eax, DWORD PTR __$EHRec$[ebp]
  0001c	64 a3 00 00 00
	00		 mov	 DWORD PTR fs:0, eax

; 214  :     // deallocate storage allocated by _Allocate when !_HAS_ALIGNED_NEW || _Align <= __STDCPP_DEFAULT_NEW_ALIGNMENT__
; 215  : #if defined(_M_IX86) || defined(_M_X64)
; 216  :     if (_Bytes >= _Big_allocation_threshold) { // boost the alignment of big allocations to help autovectorization

  00022	81 7d 0c 00 10
	00 00		 cmp	 DWORD PTR __Bytes$[ebp], 4096 ; 00001000H
  00029	72 0f		 jb	 SHORT $LN2@Deallocate

; 217  :         _Adjust_manually_vector_aligned(_Ptr, _Bytes);

  0002b	8d 45 0c	 lea	 eax, DWORD PTR __Bytes$[ebp]
  0002e	50		 push	 eax
  0002f	8d 45 08	 lea	 eax, DWORD PTR __Ptr$[ebp]
  00032	50		 push	 eax
  00033	e8 00 00 00 00	 call	 ?_Adjust_manually_vector_aligned@std@@YAXAAPAXAAI@Z ; std::_Adjust_manually_vector_aligned
  00038	59		 pop	 ecx
  00039	59		 pop	 ecx
$LN2@Deallocate:

; 218  :     }
; 219  : #endif // defined(_M_IX86) || defined(_M_X64)
; 220  : 
; 221  :     ::operator delete(_Ptr, _Bytes);

  0003a	ff 75 0c	 push	 DWORD PTR __Bytes$[ebp]
  0003d	ff 75 08	 push	 DWORD PTR __Ptr$[ebp]
  00040	e8 00 00 00 00	 call	 ??3@YAXPAXI@Z		; operator delete
  00045	59		 pop	 ecx
  00046	59		 pop	 ecx

; 222  : }

  00047	8b 4d f4	 mov	 ecx, DWORD PTR __$EHRec$[ebp]
  0004a	64 89 0d 00 00
	00 00		 mov	 DWORD PTR fs:0, ecx
  00051	59		 pop	 ecx
  00052	c9		 leave
  00053	c3		 ret	 0
  00054	cc		 int	 3
  00055	cc		 int	 3
  00056	cc		 int	 3
  00057	cc		 int	 3
  00058	cc		 int	 3
_TEXT	ENDS
;	COMDAT text$x
text$x	SEGMENT
__ehhandler$??$_Deallocate@$07$0A@@std@@YAXPAXI@Z:
  00000	90		 npad	 1
  00001	90		 npad	 1
  00002	8b 54 24 08	 mov	 edx, DWORD PTR [esp+8]
  00006	8d 42 0c	 lea	 eax, DWORD PTR [edx+12]
  00009	8b 4a fc	 mov	 ecx, DWORD PTR [edx-4]
  0000c	33 c8		 xor	 ecx, eax
  0000e	e8 00 00 00 00	 call	 @__security_check_cookie@4
  00013	b8 00 00 00 00	 mov	 eax, OFFSET __ehfuncinfo$??$_Deallocate@$07$0A@@std@@YAXPAXI@Z
  00018	e9 00 00 00 00	 jmp	 ___CxxFrameHandler3
text$x	ENDS
??$_Deallocate@$07$0A@@std@@YAXPAXI@Z ENDP		; std::_Deallocate<8,0>
; Function compile flags: /Odspy
; File C:\Program Files (x86)\Microsoft Visual Studio\2019\Community\VC\Tools\MSVC\14.28.29333\include\xtree
;	COMDAT ?_Throw_tree_length_error@std@@YAXXZ
_TEXT	SEGMENT
?_Throw_tree_length_error@std@@YAXXZ PROC		; std::_Throw_tree_length_error, COMDAT

; 414  : [[noreturn]] inline void _Throw_tree_length_error() {

  00000	55		 push	 ebp
  00001	8b ec		 mov	 ebp, esp

; 415  :     _Xlength_error("map/set too long");

  00003	68 00 00 00 00	 push	 OFFSET ??_C@_0BB@GCADKGJO@map?1set?5too?5long@
  00008	e8 00 00 00 00	 call	 ?_Xlength_error@std@@YAXPBD@Z ; std::_Xlength_error
$LN2@Throw_tree:

; 416  : }

  0000d	5d		 pop	 ebp
  0000e	c3		 ret	 0
?_Throw_tree_length_error@std@@YAXXZ ENDP		; std::_Throw_tree_length_error
_TEXT	ENDS
; Function compile flags: /Odspy
; File C:\Program Files (x86)\Microsoft Visual Studio\2019\Community\VC\Tools\MSVC\14.28.29333\include\xmemory
;	COMDAT ?_Adjust_manually_vector_aligned@std@@YAXAAPAXAAI@Z
_TEXT	SEGMENT
__Min_back_shift$ = -16					; size = 4
__Ptr_user$ = -12					; size = 4
__Ptr_container$ = -8					; size = 4
__Back_shift$ = -4					; size = 4
__Ptr$ = 8						; size = 4
__Bytes$ = 12						; size = 4
?_Adjust_manually_vector_aligned@std@@YAXAAPAXAAI@Z PROC ; std::_Adjust_manually_vector_aligned, COMDAT

; 132  : inline void _Adjust_manually_vector_aligned(void*& _Ptr, size_t& _Bytes) {

  00000	55		 push	 ebp
  00001	8b ec		 mov	 ebp, esp
  00003	83 ec 10	 sub	 esp, 16			; 00000010H

; 133  :     // adjust parameters from _Allocate_manually_vector_aligned to pass to operator delete
; 134  :     _Bytes += _Non_user_size;

  00006	8b 45 0c	 mov	 eax, DWORD PTR __Bytes$[ebp]
  00009	8b 00		 mov	 eax, DWORD PTR [eax]
  0000b	83 c0 23	 add	 eax, 35			; 00000023H
  0000e	8b 4d 0c	 mov	 ecx, DWORD PTR __Bytes$[ebp]
  00011	89 01		 mov	 DWORD PTR [ecx], eax

; 135  : 
; 136  :     const uintptr_t* const _Ptr_user = reinterpret_cast<uintptr_t*>(_Ptr);

  00013	8b 45 08	 mov	 eax, DWORD PTR __Ptr$[ebp]
  00016	8b 00		 mov	 eax, DWORD PTR [eax]
  00018	89 45 f4	 mov	 DWORD PTR __Ptr_user$[ebp], eax

; 137  :     const uintptr_t _Ptr_container   = _Ptr_user[-1];

  0001b	6a 04		 push	 4
  0001d	58		 pop	 eax
  0001e	6b c0 ff	 imul	 eax, eax, -1
  00021	8b 4d f4	 mov	 ecx, DWORD PTR __Ptr_user$[ebp]
  00024	8b 04 01	 mov	 eax, DWORD PTR [ecx+eax]
  00027	89 45 f8	 mov	 DWORD PTR __Ptr_container$[ebp], eax

; 138  : 
; 139  :     // If the following asserts, it likely means that we are performing
; 140  :     // an aligned delete on memory coming from an unaligned allocation.
; 141  :     _STL_ASSERT(_Ptr_user[-2] == _Big_allocation_sentinel, "invalid argument");
; 142  : 
; 143  :     // Extra paranoia on aligned allocation/deallocation; ensure _Ptr_container is
; 144  :     // in range [_Min_back_shift, _Non_user_size]
; 145  : #ifdef _DEBUG
; 146  :     constexpr uintptr_t _Min_back_shift = 2 * sizeof(void*);
; 147  : #else // ^^^ _DEBUG ^^^ // vvv !_DEBUG vvv
; 148  :     constexpr uintptr_t _Min_back_shift = sizeof(void*);

  0002a	c7 45 f0 04 00
	00 00		 mov	 DWORD PTR __Min_back_shift$[ebp], 4

; 149  : #endif // _DEBUG
; 150  :     const uintptr_t _Back_shift = reinterpret_cast<uintptr_t>(_Ptr) - _Ptr_container;

  00031	8b 45 08	 mov	 eax, DWORD PTR __Ptr$[ebp]
  00034	8b 00		 mov	 eax, DWORD PTR [eax]
  00036	2b 45 f8	 sub	 eax, DWORD PTR __Ptr_container$[ebp]
  00039	89 45 fc	 mov	 DWORD PTR __Back_shift$[ebp], eax
$LN4@Adjust_man:

; 151  :     _STL_VERIFY(_Back_shift >= _Min_back_shift && _Back_shift <= _Non_user_size, "invalid argument");

  0003c	83 7d fc 04	 cmp	 DWORD PTR __Back_shift$[ebp], 4
  00040	72 08		 jb	 SHORT $LN7@Adjust_man
  00042	83 7d fc 23	 cmp	 DWORD PTR __Back_shift$[ebp], 35 ; 00000023H
  00046	77 02		 ja	 SHORT $LN7@Adjust_man
  00048	eb 09		 jmp	 SHORT $LN2@Adjust_man
$LN7@Adjust_man:
  0004a	e8 00 00 00 00	 call	 __invalid_parameter_noinfo_noreturn
  0004f	33 c0		 xor	 eax, eax
  00051	75 f7		 jne	 SHORT $LN7@Adjust_man
$LN2@Adjust_man:
  00053	33 c0		 xor	 eax, eax
  00055	75 e5		 jne	 SHORT $LN4@Adjust_man

; 152  :     _Ptr = reinterpret_cast<void*>(_Ptr_container);

  00057	8b 45 08	 mov	 eax, DWORD PTR __Ptr$[ebp]
  0005a	8b 4d f8	 mov	 ecx, DWORD PTR __Ptr_container$[ebp]
  0005d	89 08		 mov	 DWORD PTR [eax], ecx
$LN10@Adjust_man:

; 153  : }

  0005f	c9		 leave
  00060	c3		 ret	 0
?_Adjust_manually_vector_aligned@std@@YAXAAPAXAAI@Z ENDP ; std::_Adjust_manually_vector_aligned
_TEXT	ENDS
; Function compile flags: /Odspy
; File C:\Program Files (x86)\Microsoft Visual Studio\2019\Community\VC\Tools\MSVC\14.28.29333\include\exception
;	COMDAT ?_Throw_bad_array_new_length@std@@YAXXZ
_TEXT	SEGMENT
$T1 = -12						; size = 12
?_Throw_bad_array_new_length@std@@YAXXZ PROC		; std::_Throw_bad_array_new_length, COMDAT

; 320  : [[noreturn]] inline void _Throw_bad_array_new_length() {

  00000	55		 push	 ebp
  00001	8b ec		 mov	 ebp, esp
  00003	83 ec 0c	 sub	 esp, 12			; 0000000cH

; 321  :     _THROW(bad_array_new_length{});

  00006	8d 4d f4	 lea	 ecx, DWORD PTR $T1[ebp]
  00009	e8 00 00 00 00	 call	 ??0bad_array_new_length@std@@QAE@XZ ; std::bad_array_new_length::bad_array_new_length
  0000e	68 00 00 00 00	 push	 OFFSET __TI3?AVbad_array_new_length@std@@
  00013	8d 45 f4	 lea	 eax, DWORD PTR $T1[ebp]
  00016	50		 push	 eax
  00017	e8 00 00 00 00	 call	 __CxxThrowException@8
$LN2@Throw_bad_:

; 322  : }

  0001c	c9		 leave
  0001d	c3		 ret	 0
?_Throw_bad_array_new_length@std@@YAXXZ ENDP		; std::_Throw_bad_array_new_length
_TEXT	ENDS
; Function compile flags: /Odspy
; File C:\Program Files (x86)\Microsoft Visual Studio\2019\Community\VC\Tools\MSVC\14.28.29333\include\vcruntime_exception.h
;	COMDAT ??_Gbad_array_new_length@std@@UAEPAXI@Z
_TEXT	SEGMENT
_this$ = -4						; size = 4
___flags$ = 8						; size = 4
??_Gbad_array_new_length@std@@UAEPAXI@Z PROC		; std::bad_array_new_length::`scalar deleting destructor', COMDAT
; _this$ = ecx
  00000	55		 push	 ebp
  00001	8b ec		 mov	 ebp, esp
  00003	51		 push	 ecx
  00004	89 4d fc	 mov	 DWORD PTR _this$[ebp], ecx

; 89   :     {

  00007	8b 45 fc	 mov	 eax, DWORD PTR _this$[ebp]
  0000a	c7 00 00 00 00
	00		 mov	 DWORD PTR [eax], OFFSET ??_7exception@std@@6B@

; 90   :         __std_exception_destroy(&_Data);

  00010	8b 45 fc	 mov	 eax, DWORD PTR _this$[ebp]
  00013	83 c0 04	 add	 eax, 4
  00016	50		 push	 eax
  00017	e8 00 00 00 00	 call	 ___std_exception_destroy
  0001c	59		 pop	 ecx
  0001d	8b 45 08	 mov	 eax, DWORD PTR ___flags$[ebp]
  00020	83 e0 01	 and	 eax, 1
  00023	74 0c		 je	 SHORT $LN2@scalar
  00025	6a 0c		 push	 12			; 0000000cH
  00027	ff 75 fc	 push	 DWORD PTR _this$[ebp]
  0002a	e8 00 00 00 00	 call	 ??3@YAXPAXI@Z		; operator delete
  0002f	59		 pop	 ecx
  00030	59		 pop	 ecx
$LN2@scalar:
  00031	8b 45 fc	 mov	 eax, DWORD PTR _this$[ebp]
  00034	c9		 leave
  00035	c2 04 00	 ret	 4
??_Gbad_array_new_length@std@@UAEPAXI@Z ENDP		; std::bad_array_new_length::`scalar deleting destructor'
_TEXT	ENDS
; Function compile flags: /Odspy
;	COMDAT ??0bad_array_new_length@std@@QAE@ABV01@@Z
_TEXT	SEGMENT
_this$ = -4						; size = 4
___that$ = 8						; size = 4
??0bad_array_new_length@std@@QAE@ABV01@@Z PROC		; std::bad_array_new_length::bad_array_new_length, COMDAT
; _this$ = ecx
  00000	55		 push	 ebp
  00001	8b ec		 mov	 ebp, esp
  00003	51		 push	 ecx
  00004	89 4d fc	 mov	 DWORD PTR _this$[ebp], ecx
  00007	ff 75 08	 push	 DWORD PTR ___that$[ebp]
  0000a	8b 4d fc	 mov	 ecx, DWORD PTR _this$[ebp]
  0000d	e8 00 00 00 00	 call	 ??0exception@std@@QAE@ABV01@@Z ; std::exception::exception
  00012	8b 45 fc	 mov	 eax, DWORD PTR _this$[ebp]
  00015	c7 00 00 00 00
	00		 mov	 DWORD PTR [eax], OFFSET ??_7bad_alloc@std@@6B@
  0001b	8b 45 fc	 mov	 eax, DWORD PTR _this$[ebp]
  0001e	c7 00 00 00 00
	00		 mov	 DWORD PTR [eax], OFFSET ??_7bad_array_new_length@std@@6B@
  00024	8b 45 fc	 mov	 eax, DWORD PTR _this$[ebp]
  00027	c9		 leave
  00028	c2 04 00	 ret	 4
??0bad_array_new_length@std@@QAE@ABV01@@Z ENDP		; std::bad_array_new_length::bad_array_new_length
_TEXT	ENDS
; Function compile flags: /Odspy
; File C:\Program Files (x86)\Microsoft Visual Studio\2019\Community\VC\Tools\MSVC\14.28.29333\include\vcruntime_exception.h
;	COMDAT ??1bad_array_new_length@std@@UAE@XZ
_TEXT	SEGMENT
_this$ = -4						; size = 4
??1bad_array_new_length@std@@UAE@XZ PROC		; std::bad_array_new_length::~bad_array_new_length, COMDAT
; _this$ = ecx
  00000	55		 push	 ebp
  00001	8b ec		 mov	 ebp, esp
  00003	51		 push	 ecx
  00004	89 4d fc	 mov	 DWORD PTR _this$[ebp], ecx

; 89   :     {

  00007	8b 45 fc	 mov	 eax, DWORD PTR _this$[ebp]
  0000a	c7 00 00 00 00
	00		 mov	 DWORD PTR [eax], OFFSET ??_7exception@std@@6B@

; 90   :         __std_exception_destroy(&_Data);

  00010	8b 45 fc	 mov	 eax, DWORD PTR _this$[ebp]
  00013	83 c0 04	 add	 eax, 4
  00016	50		 push	 eax
  00017	e8 00 00 00 00	 call	 ___std_exception_destroy
  0001c	59		 pop	 ecx
  0001d	c9		 leave
  0001e	c3		 ret	 0
??1bad_array_new_length@std@@UAE@XZ ENDP		; std::bad_array_new_length::~bad_array_new_length
_TEXT	ENDS
; Function compile flags: /Odspy
; File C:\Program Files (x86)\Microsoft Visual Studio\2019\Community\VC\Tools\MSVC\14.28.29333\include\vcruntime_exception.h
;	COMDAT ??0bad_array_new_length@std@@QAE@XZ
_TEXT	SEGMENT
_this$ = -4						; size = 4
??0bad_array_new_length@std@@QAE@XZ PROC		; std::bad_array_new_length::bad_array_new_length, COMDAT
; _this$ = ecx

; 141  :     {

  00000	55		 push	 ebp
  00001	8b ec		 mov	 ebp, esp
  00003	51		 push	 ecx
  00004	89 4d fc	 mov	 DWORD PTR _this$[ebp], ecx

; 66   :     {

  00007	8b 45 fc	 mov	 eax, DWORD PTR _this$[ebp]
  0000a	c7 00 00 00 00
	00		 mov	 DWORD PTR [eax], OFFSET ??_7exception@std@@6B@

; 65   :         : _Data()

  00010	33 c0		 xor	 eax, eax
  00012	8b 4d fc	 mov	 ecx, DWORD PTR _this$[ebp]
  00015	83 c1 04	 add	 ecx, 4
  00018	89 01		 mov	 DWORD PTR [ecx], eax
  0001a	89 41 04	 mov	 DWORD PTR [ecx+4], eax

; 67   :         _Data._What = _Message;

  0001d	8b 45 fc	 mov	 eax, DWORD PTR _this$[ebp]
  00020	c7 40 04 00 00
	00 00		 mov	 DWORD PTR [eax+4], OFFSET ??_C@_0BF@KINCDENJ@bad?5array?5new?5length@

; 130  :     {

  00027	8b 45 fc	 mov	 eax, DWORD PTR _this$[ebp]
  0002a	c7 00 00 00 00
	00		 mov	 DWORD PTR [eax], OFFSET ??_7bad_alloc@std@@6B@

; 141  :     {

  00030	8b 45 fc	 mov	 eax, DWORD PTR _this$[ebp]
  00033	c7 00 00 00 00
	00		 mov	 DWORD PTR [eax], OFFSET ??_7bad_array_new_length@std@@6B@

; 142  :     }

  00039	8b 45 fc	 mov	 eax, DWORD PTR _this$[ebp]
  0003c	c9		 leave
  0003d	c3		 ret	 0
??0bad_array_new_length@std@@QAE@XZ ENDP		; std::bad_array_new_length::bad_array_new_length
_TEXT	ENDS
; Function compile flags: /Odspy
; File C:\Program Files (x86)\Microsoft Visual Studio\2019\Community\VC\Tools\MSVC\14.28.29333\include\vcruntime_exception.h
;	COMDAT ??_Gbad_alloc@std@@UAEPAXI@Z
_TEXT	SEGMENT
_this$ = -4						; size = 4
___flags$ = 8						; size = 4
??_Gbad_alloc@std@@UAEPAXI@Z PROC			; std::bad_alloc::`scalar deleting destructor', COMDAT
; _this$ = ecx
  00000	55		 push	 ebp
  00001	8b ec		 mov	 ebp, esp
  00003	51		 push	 ecx
  00004	89 4d fc	 mov	 DWORD PTR _this$[ebp], ecx

; 89   :     {

  00007	8b 45 fc	 mov	 eax, DWORD PTR _this$[ebp]
  0000a	c7 00 00 00 00
	00		 mov	 DWORD PTR [eax], OFFSET ??_7exception@std@@6B@

; 90   :         __std_exception_destroy(&_Data);

  00010	8b 45 fc	 mov	 eax, DWORD PTR _this$[ebp]
  00013	83 c0 04	 add	 eax, 4
  00016	50		 push	 eax
  00017	e8 00 00 00 00	 call	 ___std_exception_destroy
  0001c	59		 pop	 ecx
  0001d	8b 45 08	 mov	 eax, DWORD PTR ___flags$[ebp]
  00020	83 e0 01	 and	 eax, 1
  00023	74 0c		 je	 SHORT $LN2@scalar
  00025	6a 0c		 push	 12			; 0000000cH
  00027	ff 75 fc	 push	 DWORD PTR _this$[ebp]
  0002a	e8 00 00 00 00	 call	 ??3@YAXPAXI@Z		; operator delete
  0002f	59		 pop	 ecx
  00030	59		 pop	 ecx
$LN2@scalar:
  00031	8b 45 fc	 mov	 eax, DWORD PTR _this$[ebp]
  00034	c9		 leave
  00035	c2 04 00	 ret	 4
??_Gbad_alloc@std@@UAEPAXI@Z ENDP			; std::bad_alloc::`scalar deleting destructor'
_TEXT	ENDS
; Function compile flags: /Odspy
;	COMDAT ??0bad_alloc@std@@QAE@ABV01@@Z
_TEXT	SEGMENT
_this$ = -4						; size = 4
___that$ = 8						; size = 4
??0bad_alloc@std@@QAE@ABV01@@Z PROC			; std::bad_alloc::bad_alloc, COMDAT
; _this$ = ecx
  00000	55		 push	 ebp
  00001	8b ec		 mov	 ebp, esp
  00003	51		 push	 ecx
  00004	89 4d fc	 mov	 DWORD PTR _this$[ebp], ecx
  00007	ff 75 08	 push	 DWORD PTR ___that$[ebp]
  0000a	8b 4d fc	 mov	 ecx, DWORD PTR _this$[ebp]
  0000d	e8 00 00 00 00	 call	 ??0exception@std@@QAE@ABV01@@Z ; std::exception::exception
  00012	8b 45 fc	 mov	 eax, DWORD PTR _this$[ebp]
  00015	c7 00 00 00 00
	00		 mov	 DWORD PTR [eax], OFFSET ??_7bad_alloc@std@@6B@
  0001b	8b 45 fc	 mov	 eax, DWORD PTR _this$[ebp]
  0001e	c9		 leave
  0001f	c2 04 00	 ret	 4
??0bad_alloc@std@@QAE@ABV01@@Z ENDP			; std::bad_alloc::bad_alloc
_TEXT	ENDS
; Function compile flags: /Odspy
; File C:\Program Files (x86)\Microsoft Visual Studio\2019\Community\VC\Tools\MSVC\14.28.29333\include\vcruntime_exception.h
;	COMDAT ??_Gexception@std@@UAEPAXI@Z
_TEXT	SEGMENT
_this$ = -4						; size = 4
___flags$ = 8						; size = 4
??_Gexception@std@@UAEPAXI@Z PROC			; std::exception::`scalar deleting destructor', COMDAT
; _this$ = ecx
  00000	55		 push	 ebp
  00001	8b ec		 mov	 ebp, esp
  00003	51		 push	 ecx
  00004	89 4d fc	 mov	 DWORD PTR _this$[ebp], ecx

; 89   :     {

  00007	8b 45 fc	 mov	 eax, DWORD PTR _this$[ebp]
  0000a	c7 00 00 00 00
	00		 mov	 DWORD PTR [eax], OFFSET ??_7exception@std@@6B@

; 90   :         __std_exception_destroy(&_Data);

  00010	8b 45 fc	 mov	 eax, DWORD PTR _this$[ebp]
  00013	83 c0 04	 add	 eax, 4
  00016	50		 push	 eax
  00017	e8 00 00 00 00	 call	 ___std_exception_destroy
  0001c	59		 pop	 ecx
  0001d	8b 45 08	 mov	 eax, DWORD PTR ___flags$[ebp]
  00020	83 e0 01	 and	 eax, 1
  00023	74 0c		 je	 SHORT $LN2@scalar
  00025	6a 0c		 push	 12			; 0000000cH
  00027	ff 75 fc	 push	 DWORD PTR _this$[ebp]
  0002a	e8 00 00 00 00	 call	 ??3@YAXPAXI@Z		; operator delete
  0002f	59		 pop	 ecx
  00030	59		 pop	 ecx
$LN2@scalar:
  00031	8b 45 fc	 mov	 eax, DWORD PTR _this$[ebp]
  00034	c9		 leave
  00035	c2 04 00	 ret	 4
??_Gexception@std@@UAEPAXI@Z ENDP			; std::exception::`scalar deleting destructor'
_TEXT	ENDS
; Function compile flags: /Odspy
; File C:\Program Files (x86)\Microsoft Visual Studio\2019\Community\VC\Tools\MSVC\14.28.29333\include\vcruntime_exception.h
;	COMDAT ?what@exception@std@@UBEPBDXZ
_TEXT	SEGMENT
tv69 = -8						; size = 4
_this$ = -4						; size = 4
?what@exception@std@@UBEPBDXZ PROC			; std::exception::what, COMDAT
; _this$ = ecx

; 94   :     {

  00000	55		 push	 ebp
  00001	8b ec		 mov	 ebp, esp
  00003	51		 push	 ecx
  00004	51		 push	 ecx
  00005	89 4d fc	 mov	 DWORD PTR _this$[ebp], ecx

; 95   :         return _Data._What ? _Data._What : "Unknown exception";

  00008	8b 45 fc	 mov	 eax, DWORD PTR _this$[ebp]
  0000b	83 78 04 00	 cmp	 DWORD PTR [eax+4], 0
  0000f	74 0b		 je	 SHORT $LN3@what
  00011	8b 45 fc	 mov	 eax, DWORD PTR _this$[ebp]
  00014	8b 40 04	 mov	 eax, DWORD PTR [eax+4]
  00017	89 45 f8	 mov	 DWORD PTR tv69[ebp], eax
  0001a	eb 07		 jmp	 SHORT $LN4@what
$LN3@what:
  0001c	c7 45 f8 00 00
	00 00		 mov	 DWORD PTR tv69[ebp], OFFSET ??_C@_0BC@EOODALEL@Unknown?5exception@
$LN4@what:
  00023	8b 45 f8	 mov	 eax, DWORD PTR tv69[ebp]

; 96   :     }

  00026	c9		 leave
  00027	c3		 ret	 0
?what@exception@std@@UBEPBDXZ ENDP			; std::exception::what
_TEXT	ENDS
; Function compile flags: /Odspy
; File C:\Program Files (x86)\Microsoft Visual Studio\2019\Community\VC\Tools\MSVC\14.28.29333\include\vcruntime_exception.h
;	COMDAT ??0exception@std@@QAE@ABV01@@Z
_TEXT	SEGMENT
_this$ = -4						; size = 4
__Other$ = 8						; size = 4
??0exception@std@@QAE@ABV01@@Z PROC			; std::exception::exception, COMDAT
; _this$ = ecx

; 72   :     {

  00000	55		 push	 ebp
  00001	8b ec		 mov	 ebp, esp
  00003	51		 push	 ecx
  00004	89 4d fc	 mov	 DWORD PTR _this$[ebp], ecx
  00007	8b 45 fc	 mov	 eax, DWORD PTR _this$[ebp]
  0000a	c7 00 00 00 00
	00		 mov	 DWORD PTR [eax], OFFSET ??_7exception@std@@6B@

; 71   :         : _Data()

  00010	33 c0		 xor	 eax, eax
  00012	8b 4d fc	 mov	 ecx, DWORD PTR _this$[ebp]
  00015	83 c1 04	 add	 ecx, 4
  00018	89 01		 mov	 DWORD PTR [ecx], eax
  0001a	89 41 04	 mov	 DWORD PTR [ecx+4], eax

; 73   :         __std_exception_copy(&_Other._Data, &_Data);

  0001d	8b 45 fc	 mov	 eax, DWORD PTR _this$[ebp]
  00020	83 c0 04	 add	 eax, 4
  00023	50		 push	 eax
  00024	8b 45 08	 mov	 eax, DWORD PTR __Other$[ebp]
  00027	83 c0 04	 add	 eax, 4
  0002a	50		 push	 eax
  0002b	e8 00 00 00 00	 call	 ___std_exception_copy
  00030	59		 pop	 ecx
  00031	59		 pop	 ecx

; 74   :     }

  00032	8b 45 fc	 mov	 eax, DWORD PTR _this$[ebp]
  00035	c9		 leave
  00036	c2 04 00	 ret	 4
??0exception@std@@QAE@ABV01@@Z ENDP			; std::exception::exception
_TEXT	ENDS
END
