; Listing generated by Microsoft (R) Optimizing Compiler Version 19.28.29335.0 

	TITLE	D:\Metin2 Server Files\mainline\SRC_2014\Metin2Client\EterLib\CullingManager.cpp
	.686P
	.XMM
	include listing.inc
	.model	flat

INCLUDELIB LIBCMT
INCLUDELIB OLDNAMES

PUBLIC	??0exception@std@@QAE@ABV01@@Z			; std::exception::exception
PUBLIC	?what@exception@std@@UBEPBDXZ			; std::exception::what
PUBLIC	??_Gexception@std@@UAEPAXI@Z			; std::exception::`scalar deleting destructor'
PUBLIC	??0bad_alloc@std@@QAE@ABV01@@Z			; std::bad_alloc::bad_alloc
PUBLIC	??_Gbad_alloc@std@@UAEPAXI@Z			; std::bad_alloc::`scalar deleting destructor'
PUBLIC	??0bad_array_new_length@std@@QAE@XZ		; std::bad_array_new_length::bad_array_new_length
PUBLIC	??1bad_array_new_length@std@@UAE@XZ		; std::bad_array_new_length::~bad_array_new_length
PUBLIC	??0bad_array_new_length@std@@QAE@ABV01@@Z	; std::bad_array_new_length::bad_array_new_length
PUBLIC	??_Gbad_array_new_length@std@@UAEPAXI@Z		; std::bad_array_new_length::`scalar deleting destructor'
PUBLIC	?_Throw_bad_array_new_length@std@@YAXXZ		; std::_Throw_bad_array_new_length
PUBLIC	?_Adjust_manually_vector_aligned@std@@YAXAAPAXAAI@Z ; std::_Adjust_manually_vector_aligned
PUBLIC	??$_Deallocate@$07$0A@@std@@YAXPAXI@Z		; std::_Deallocate<8,0>
PUBLIC	??$_Allocate@$07U_Default_allocate_traits@std@@$0A@@std@@YAPAXI@Z ; std::_Allocate<8,std::_Default_allocate_traits,0>
PUBLIC	??$_Allocate_manually_vector_aligned@U_Default_allocate_traits@std@@@std@@YAPAXI@Z ; std::_Allocate_manually_vector_aligned<std::_Default_allocate_traits>
PUBLIC	??1SpherePackCallback@@UAE@XZ			; SpherePackCallback::~SpherePackCallback
PUBLIC	?VisibilityCallback@SpherePackCallback@@UAEXABVFrustum@@PAVSpherePack@@W4ViewState@@@Z ; SpherePackCallback::VisibilityCallback
PUBLIC	?RayTraceCallback@SpherePackCallback@@UAEXABVVector3d@@0M0PAVSpherePack@@@Z ; SpherePackCallback::RayTraceCallback
PUBLIC	?RangeTestCallback@SpherePackCallback@@UAEXABVVector3d@@MPAVSpherePack@@W4ViewState@@@Z ; SpherePackCallback::RangeTestCallback
PUBLIC	?PointTest2dCallback@SpherePackCallback@@UAEXABVVector3d@@PAVSpherePack@@W4ViewState@@@Z ; SpherePackCallback::PointTest2dCallback
PUBLIC	??_GSpherePackCallback@@UAEPAXI@Z		; SpherePackCallback::`scalar deleting destructor'
PUBLIC	??1?$CSingleton@VCCullingManager@@@@UAE@XZ	; CSingleton<CCullingManager>::~CSingleton<CCullingManager>
PUBLIC	??_G?$CSingleton@VCCullingManager@@@@UAEPAXI@Z	; CSingleton<CCullingManager>::`scalar deleting destructor'
PUBLIC	??0CCullingManager@@QAE@XZ			; CCullingManager::CCullingManager
PUBLIC	??1CCullingManager@@UAE@XZ			; CCullingManager::~CCullingManager
PUBLIC	?RayTraceCallback@CCullingManager@@UAEXABVVector3d@@0M0PAVSpherePack@@@Z ; CCullingManager::RayTraceCallback
PUBLIC	?VisibilityCallback@CCullingManager@@UAEXABVFrustum@@PAVSpherePack@@W4ViewState@@@Z ; CCullingManager::VisibilityCallback
PUBLIC	?RangeTestCallback@CCullingManager@@UAEXABVVector3d@@MPAVSpherePack@@W4ViewState@@@Z ; CCullingManager::RangeTestCallback
PUBLIC	?Reset@CCullingManager@@QAEXXZ			; CCullingManager::Reset
PUBLIC	?Update@CCullingManager@@QAEXXZ			; CCullingManager::Update
PUBLIC	?Process@CCullingManager@@QAEXXZ		; CCullingManager::Process
PUBLIC	?FindRange@CCullingManager@@QAEXABVVector3d@@M@Z ; CCullingManager::FindRange
PUBLIC	?FindRay@CCullingManager@@QAEXABVVector3d@@0@Z	; CCullingManager::FindRay
PUBLIC	?FindRayDistance@CCullingManager@@QAEXABVVector3d@@0M@Z ; CCullingManager::FindRayDistance
PUBLIC	?Register@CCullingManager@@QAEPAVSpherePack@@PAVCGraphicObjectInstance@@@Z ; CCullingManager::Register
PUBLIC	?Unregister@CCullingManager@@QAEXPAVSpherePack@@@Z ; CCullingManager::Unregister
PUBLIC	?deallocate@?$allocator@PAVCGraphicObjectInstance@@@std@@QAEXQAPAVCGraphicObjectInstance@@I@Z ; std::allocator<CGraphicObjectInstance *>::deallocate
PUBLIC	??1?$vector@PAVCGraphicObjectInstance@@V?$allocator@PAVCGraphicObjectInstance@@@std@@@std@@QAE@XZ ; std::vector<CGraphicObjectInstance *,std::allocator<CGraphicObjectInstance *> >::~vector<CGraphicObjectInstance *,std::allocator<CGraphicObjectInstance *> >
PUBLIC	?clear@?$vector@PAVCGraphicObjectInstance@@V?$allocator@PAVCGraphicObjectInstance@@@std@@@std@@QAEXXZ ; std::vector<CGraphicObjectInstance *,std::allocator<CGraphicObjectInstance *> >::clear
PUBLIC	?_Destroy@?$vector@PAVCGraphicObjectInstance@@V?$allocator@PAVCGraphicObjectInstance@@@std@@@std@@AAEXPAPAVCGraphicObjectInstance@@0@Z ; std::vector<CGraphicObjectInstance *,std::allocator<CGraphicObjectInstance *> >::_Destroy
PUBLIC	?_Calculate_growth@?$vector@PAVCGraphicObjectInstance@@V?$allocator@PAVCGraphicObjectInstance@@@std@@@std@@ABEII@Z ; std::vector<CGraphicObjectInstance *,std::allocator<CGraphicObjectInstance *> >::_Calculate_growth
PUBLIC	?_Change_array@?$vector@PAVCGraphicObjectInstance@@V?$allocator@PAVCGraphicObjectInstance@@@std@@@std@@AAEXQAPAVCGraphicObjectInstance@@II@Z ; std::vector<CGraphicObjectInstance *,std::allocator<CGraphicObjectInstance *> >::_Change_array
PUBLIC	?_Tidy@?$vector@PAVCGraphicObjectInstance@@V?$allocator@PAVCGraphicObjectInstance@@@std@@@std@@AAEXXZ ; std::vector<CGraphicObjectInstance *,std::allocator<CGraphicObjectInstance *> >::_Tidy
PUBLIC	?_Xlength@?$vector@PAVCGraphicObjectInstance@@V?$allocator@PAVCGraphicObjectInstance@@@std@@@std@@CAXXZ ; std::vector<CGraphicObjectInstance *,std::allocator<CGraphicObjectInstance *> >::_Xlength
PUBLIC	??_GCCullingManager@@UAEPAXI@Z			; CCullingManager::`scalar deleting destructor'
PUBLIC	??$emplace_back@PAVCGraphicObjectInstance@@@?$vector@PAVCGraphicObjectInstance@@V?$allocator@PAVCGraphicObjectInstance@@@std@@@std@@QAEX$$QAPAVCGraphicObjectInstance@@@Z ; std::vector<CGraphicObjectInstance *,std::allocator<CGraphicObjectInstance *> >::emplace_back<CGraphicObjectInstance *>
PUBLIC	??$_Emplace_back_with_unused_capacity@PAVCGraphicObjectInstance@@@?$vector@PAVCGraphicObjectInstance@@V?$allocator@PAVCGraphicObjectInstance@@@std@@@std@@AAEX$$QAPAVCGraphicObjectInstance@@@Z ; std::vector<CGraphicObjectInstance *,std::allocator<CGraphicObjectInstance *> >::_Emplace_back_with_unused_capacity<CGraphicObjectInstance *>
PUBLIC	??$_Emplace_reallocate@PAVCGraphicObjectInstance@@@?$vector@PAVCGraphicObjectInstance@@V?$allocator@PAVCGraphicObjectInstance@@@std@@@std@@QAEPAPAVCGraphicObjectInstance@@QAPAV2@$$QAPAV2@@Z ; std::vector<CGraphicObjectInstance *,std::allocator<CGraphicObjectInstance *> >::_Emplace_reallocate<CGraphicObjectInstance *>
PUBLIC	??$_Destroy_range@V?$allocator@PAVCGraphicObjectInstance@@@std@@@std@@YAXPAPAVCGraphicObjectInstance@@QAPAV1@AAV?$allocator@PAVCGraphicObjectInstance@@@0@@Z ; std::_Destroy_range<std::allocator<CGraphicObjectInstance *> >
PUBLIC	??$_Uninitialized_move@PAPAVCGraphicObjectInstance@@V?$allocator@PAVCGraphicObjectInstance@@@std@@@std@@YAPAPAVCGraphicObjectInstance@@QAPAV1@0PAPAV1@AAV?$allocator@PAVCGraphicObjectInstance@@@0@@Z ; std::_Uninitialized_move<CGraphicObjectInstance * *,std::allocator<CGraphicObjectInstance *> >
PUBLIC	??$_Copy_memmove@PAPAVCGraphicObjectInstance@@PAPAV1@@std@@YAPAPAVCGraphicObjectInstance@@PAPAV1@00@Z ; std::_Copy_memmove<CGraphicObjectInstance * *,CGraphicObjectInstance * *>
PUBLIC	??_ECCullingManager@@W3AEPAXI@Z			; [thunk]:CCullingManager::`vector deleting destructor'
PUBLIC	??_ECCullingManager@@W7AEPAXI@Z			; [thunk]:CCullingManager::`vector deleting destructor'
PUBLIC	??_7exception@std@@6B@				; std::exception::`vftable'
PUBLIC	??_C@_0BC@EOODALEL@Unknown?5exception@		; `string'
PUBLIC	??_7bad_alloc@std@@6B@				; std::bad_alloc::`vftable'
PUBLIC	??_7bad_array_new_length@std@@6B@		; std::bad_array_new_length::`vftable'
PUBLIC	??_C@_0BF@KINCDENJ@bad?5array?5new?5length@	; `string'
PUBLIC	__TI3?AVbad_array_new_length@std@@
PUBLIC	__CTA3?AVbad_array_new_length@std@@
PUBLIC	??_R0?AVbad_array_new_length@std@@@8		; std::bad_array_new_length `RTTI Type Descriptor'
PUBLIC	__CT??_R0?AVbad_array_new_length@std@@@8??0bad_array_new_length@std@@QAE@ABV01@@Z12
PUBLIC	??_R0?AVbad_alloc@std@@@8			; std::bad_alloc `RTTI Type Descriptor'
PUBLIC	__CT??_R0?AVbad_alloc@std@@@8??0bad_alloc@std@@QAE@ABV01@@Z12
PUBLIC	??_R0?AVexception@std@@@8			; std::exception `RTTI Type Descriptor'
PUBLIC	__CT??_R0?AVexception@std@@@8??0exception@std@@QAE@ABV01@@Z12
PUBLIC	??_R4exception@std@@6B@				; std::exception::`RTTI Complete Object Locator'
PUBLIC	??_R3exception@std@@8				; std::exception::`RTTI Class Hierarchy Descriptor'
PUBLIC	??_R2exception@std@@8				; std::exception::`RTTI Base Class Array'
PUBLIC	??_R1A@?0A@EA@exception@std@@8			; std::exception::`RTTI Base Class Descriptor at (0,-1,0,64)'
PUBLIC	??_R4bad_alloc@std@@6B@				; std::bad_alloc::`RTTI Complete Object Locator'
PUBLIC	??_R3bad_alloc@std@@8				; std::bad_alloc::`RTTI Class Hierarchy Descriptor'
PUBLIC	??_R2bad_alloc@std@@8				; std::bad_alloc::`RTTI Base Class Array'
PUBLIC	??_R1A@?0A@EA@bad_alloc@std@@8			; std::bad_alloc::`RTTI Base Class Descriptor at (0,-1,0,64)'
PUBLIC	??_R4bad_array_new_length@std@@6B@		; std::bad_array_new_length::`RTTI Complete Object Locator'
PUBLIC	??_R3bad_array_new_length@std@@8		; std::bad_array_new_length::`RTTI Class Hierarchy Descriptor'
PUBLIC	??_R2bad_array_new_length@std@@8		; std::bad_array_new_length::`RTTI Base Class Array'
PUBLIC	??_R1A@?0A@EA@bad_array_new_length@std@@8	; std::bad_array_new_length::`RTTI Base Class Descriptor at (0,-1,0,64)'
PUBLIC	??_7SpherePackCallback@@6B@			; SpherePackCallback::`vftable'
PUBLIC	?ms_singleton@?$CSingleton@VCCullingManager@@@@0PAVCCullingManager@@A ; CSingleton<CCullingManager>::ms_singleton
PUBLIC	??_7?$CSingleton@VCCullingManager@@@@6B@	; CSingleton<CCullingManager>::`vftable'
PUBLIC	??_7CCullingManager@@6B?$CSingleton@VCCullingManager@@@@@ ; CCullingManager::`vftable'
PUBLIC	??_7CCullingManager@@6BSpherePackCallback@@@	; CCullingManager::`vftable'
PUBLIC	??_7CCullingManager@@6BCScreen@@@		; CCullingManager::`vftable'
PUBLIC	??_C@_0BA@FOIKENOD@vector?5too?5long@		; `string'
PUBLIC	??_R4SpherePackCallback@@6B@			; SpherePackCallback::`RTTI Complete Object Locator'
PUBLIC	??_R0?AVSpherePackCallback@@@8			; SpherePackCallback `RTTI Type Descriptor'
PUBLIC	??_R3SpherePackCallback@@8			; SpherePackCallback::`RTTI Class Hierarchy Descriptor'
PUBLIC	??_R2SpherePackCallback@@8			; SpherePackCallback::`RTTI Base Class Array'
PUBLIC	??_R1A@?0A@EA@SpherePackCallback@@8		; SpherePackCallback::`RTTI Base Class Descriptor at (0,-1,0,64)'
PUBLIC	??_R4CCullingManager@@6B?$CSingleton@VCCullingManager@@@@@ ; CCullingManager::`RTTI Complete Object Locator'
PUBLIC	??_R0?AVCCullingManager@@@8			; CCullingManager `RTTI Type Descriptor'
PUBLIC	??_R3CCullingManager@@8				; CCullingManager::`RTTI Class Hierarchy Descriptor'
PUBLIC	??_R2CCullingManager@@8				; CCullingManager::`RTTI Base Class Array'
PUBLIC	??_R1A@?0A@EA@CCullingManager@@8		; CCullingManager::`RTTI Base Class Descriptor at (0,-1,0,64)'
PUBLIC	??_R1A@?0A@EA@?$CSingleton@VCCullingManager@@@@8 ; CSingleton<CCullingManager>::`RTTI Base Class Descriptor at (0,-1,0,64)'
PUBLIC	??_R0?AV?$CSingleton@VCCullingManager@@@@@8	; CSingleton<CCullingManager> `RTTI Type Descriptor'
PUBLIC	??_R3?$CSingleton@VCCullingManager@@@@8		; CSingleton<CCullingManager>::`RTTI Class Hierarchy Descriptor'
PUBLIC	??_R2?$CSingleton@VCCullingManager@@@@8		; CSingleton<CCullingManager>::`RTTI Base Class Array'
PUBLIC	??_R13?0A@EA@SpherePackCallback@@8		; SpherePackCallback::`RTTI Base Class Descriptor at (4,-1,0,64)'
PUBLIC	??_R17?0A@EN@CScreen@@8				; CScreen::`RTTI Base Class Descriptor at (8,-1,0,77)'
PUBLIC	??_R0?AVCScreen@@@8				; CScreen `RTTI Type Descriptor'
PUBLIC	??_R3CScreen@@8					; CScreen::`RTTI Class Hierarchy Descriptor'
PUBLIC	??_R2CScreen@@8					; CScreen::`RTTI Base Class Array'
PUBLIC	??_R1A@?0A@EA@CScreen@@8			; CScreen::`RTTI Base Class Descriptor at (0,-1,0,64)'
PUBLIC	??_R1A@?0A@EA@CGraphicCollisionObject@@8	; CGraphicCollisionObject::`RTTI Base Class Descriptor at (0,-1,0,64)'
PUBLIC	??_R0?AVCGraphicCollisionObject@@@8		; CGraphicCollisionObject `RTTI Type Descriptor'
PUBLIC	??_R3CGraphicCollisionObject@@8			; CGraphicCollisionObject::`RTTI Class Hierarchy Descriptor'
PUBLIC	??_R2CGraphicCollisionObject@@8			; CGraphicCollisionObject::`RTTI Base Class Array'
PUBLIC	??_R1A@?0A@EA@CGraphicBase@@8			; CGraphicBase::`RTTI Base Class Descriptor at (0,-1,0,64)'
PUBLIC	??_R0?AVCGraphicBase@@@8			; CGraphicBase `RTTI Type Descriptor'
PUBLIC	??_R3CGraphicBase@@8				; CGraphicBase::`RTTI Class Hierarchy Descriptor'
PUBLIC	??_R2CGraphicBase@@8				; CGraphicBase::`RTTI Base Class Array'
PUBLIC	??_R17?0A@EJ@CGraphicCollisionObject@@8		; CGraphicCollisionObject::`RTTI Base Class Descriptor at (8,-1,0,73)'
PUBLIC	??_R17?0A@EJ@CGraphicBase@@8			; CGraphicBase::`RTTI Base Class Descriptor at (8,-1,0,73)'
PUBLIC	??_R4CCullingManager@@6BSpherePackCallback@@@	; CCullingManager::`RTTI Complete Object Locator'
PUBLIC	??_R4CCullingManager@@6BCScreen@@@		; CCullingManager::`RTTI Complete Object Locator'
PUBLIC	??_R4?$CSingleton@VCCullingManager@@@@6B@	; CSingleton<CCullingManager>::`RTTI Complete Object Locator'
PUBLIC	__real@43c80000
PUBLIC	__real@44c80000
PUBLIC	__real@45c80000
PUBLIC	__real@bf800000
EXTRN	??2@YAPAXI@Z:PROC				; operator new
EXTRN	??3@YAXPAXI@Z:PROC				; operator delete
EXTRN	__invalid_parameter_noinfo_noreturn:PROC
EXTRN	_memmove:PROC
EXTRN	___std_exception_copy:PROC
EXTRN	___std_exception_destroy:PROC
EXTRN	??_Eexception@std@@UAEPAXI@Z:PROC		; std::exception::`vector deleting destructor'
EXTRN	??_Ebad_alloc@std@@UAEPAXI@Z:PROC		; std::bad_alloc::`vector deleting destructor'
EXTRN	??_Ebad_array_new_length@std@@UAEPAXI@Z:PROC	; std::bad_array_new_length::`vector deleting destructor'
EXTRN	?_Xlength_error@std@@YAXPBD@Z:PROC		; std::_Xlength_error
EXTRN	?UpdateProjMatrix@CGraphicBase@@QAEXXZ:PROC	; CGraphicBase::UpdateProjMatrix
EXTRN	?UpdateViewMatrix@CGraphicBase@@QAEXXZ:PROC	; CGraphicBase::UpdateViewMatrix
EXTRN	??0CScreen@@QAE@XZ:PROC				; CScreen::CScreen
EXTRN	??1CScreen@@UAE@XZ:PROC				; CScreen::~CScreen
EXTRN	?BuildViewFrustum@CScreen@@QAEXXZ:PROC		; CScreen::BuildViewFrustum
EXTRN	??_ESpherePackCallback@@UAEPAXI@Z:PROC		; SpherePackCallback::`vector deleting destructor'
EXTRN	??0SpherePackFactory@@QAE@HMMM@Z:PROC		; SpherePackFactory::SpherePackFactory
EXTRN	?Process@SpherePackFactory@@QAEXXZ:PROC		; SpherePackFactory::Process
EXTRN	?AddSphere_@SpherePackFactory@@QAEPAVSpherePack@@ABVVector3d@@MPAX_NH@Z:PROC ; SpherePackFactory::AddSphere_
EXTRN	?Remove@SpherePackFactory@@QAEXPAVSpherePack@@@Z:PROC ; SpherePackFactory::Remove
EXTRN	?FrustumTest@SpherePackFactory@@QAEXABVFrustum@@PAVSpherePackCallback@@@Z:PROC ; SpherePackFactory::FrustumTest
EXTRN	?RayTrace@SpherePackFactory@@QAEXABVVector3d@@0PAVSpherePackCallback@@@Z:PROC ; SpherePackFactory::RayTrace
EXTRN	?RangeTest@SpherePackFactory@@QAEXABVVector3d@@MPAVSpherePackCallback@@@Z:PROC ; SpherePackFactory::RangeTest
EXTRN	?Reset@SpherePackFactory@@QAEXXZ:PROC		; SpherePackFactory::Reset
EXTRN	??_E?$CSingleton@VCCullingManager@@@@UAEPAXI@Z:PROC ; CSingleton<CCullingManager>::`vector deleting destructor'
EXTRN	??_ECCullingManager@@UAEPAXI@Z:PROC		; CCullingManager::`vector deleting destructor'
EXTRN	?Show@CGraphicObjectInstance@@QAEXXZ:PROC	; CGraphicObjectInstance::Show
EXTRN	?Hide@CGraphicObjectInstance@@QAEXXZ:PROC	; CGraphicObjectInstance::Hide
EXTRN	@__security_check_cookie@4:PROC
EXTRN	__CxxThrowException@8:PROC
EXTRN	___CxxFrameHandler3:PROC
EXTRN	??_7type_info@@6B@:QWORD			; type_info::`vftable'
EXTRN	?ms_frustum@CScreen@@1VFrustum@@A:BYTE		; CScreen::ms_frustum
EXTRN	___security_cookie:DWORD
EXTRN	__fltused:DWORD
;	COMDAT ?ms_singleton@?$CSingleton@VCCullingManager@@@@0PAVCCullingManager@@A
_BSS	SEGMENT
?ms_singleton@?$CSingleton@VCCullingManager@@@@0PAVCCullingManager@@A DD 01H DUP (?) ; CSingleton<CCullingManager>::ms_singleton
_BSS	ENDS
;	COMDAT __real@bf800000
CONST	SEGMENT
__real@bf800000 DD 0bf800000r			; -1
CONST	ENDS
;	COMDAT __real@45c80000
CONST	SEGMENT
__real@45c80000 DD 045c80000r			; 6400
CONST	ENDS
;	COMDAT __real@44c80000
CONST	SEGMENT
__real@44c80000 DD 044c80000r			; 1600
CONST	ENDS
;	COMDAT __real@43c80000
CONST	SEGMENT
__real@43c80000 DD 043c80000r			; 400
CONST	ENDS
;	COMDAT ??_R4?$CSingleton@VCCullingManager@@@@6B@
rdata$r	SEGMENT
??_R4?$CSingleton@VCCullingManager@@@@6B@ DD 00H	; CSingleton<CCullingManager>::`RTTI Complete Object Locator'
	DD	00H
	DD	00H
	DD	FLAT:??_R0?AV?$CSingleton@VCCullingManager@@@@@8
	DD	FLAT:??_R3?$CSingleton@VCCullingManager@@@@8
rdata$r	ENDS
;	COMDAT ??_R4CCullingManager@@6BCScreen@@@
rdata$r	SEGMENT
??_R4CCullingManager@@6BCScreen@@@ DD 00H		; CCullingManager::`RTTI Complete Object Locator'
	DD	08H
	DD	00H
	DD	FLAT:??_R0?AVCCullingManager@@@8
	DD	FLAT:??_R3CCullingManager@@8
rdata$r	ENDS
;	COMDAT ??_R4CCullingManager@@6BSpherePackCallback@@@
rdata$r	SEGMENT
??_R4CCullingManager@@6BSpherePackCallback@@@ DD 00H	; CCullingManager::`RTTI Complete Object Locator'
	DD	04H
	DD	00H
	DD	FLAT:??_R0?AVCCullingManager@@@8
	DD	FLAT:??_R3CCullingManager@@8
rdata$r	ENDS
;	COMDAT ??_R17?0A@EJ@CGraphicBase@@8
rdata$r	SEGMENT
??_R17?0A@EJ@CGraphicBase@@8 DD FLAT:??_R0?AVCGraphicBase@@@8 ; CGraphicBase::`RTTI Base Class Descriptor at (8,-1,0,73)'
	DD	00H
	DD	08H
	DD	0ffffffffH
	DD	00H
	DD	049H
	DD	FLAT:??_R3CGraphicBase@@8
rdata$r	ENDS
;	COMDAT ??_R17?0A@EJ@CGraphicCollisionObject@@8
rdata$r	SEGMENT
??_R17?0A@EJ@CGraphicCollisionObject@@8 DD FLAT:??_R0?AVCGraphicCollisionObject@@@8 ; CGraphicCollisionObject::`RTTI Base Class Descriptor at (8,-1,0,73)'
	DD	01H
	DD	08H
	DD	0ffffffffH
	DD	00H
	DD	049H
	DD	FLAT:??_R3CGraphicCollisionObject@@8
rdata$r	ENDS
;	COMDAT ??_R2CGraphicBase@@8
rdata$r	SEGMENT
??_R2CGraphicBase@@8 DD FLAT:??_R1A@?0A@EA@CGraphicBase@@8 ; CGraphicBase::`RTTI Base Class Array'
rdata$r	ENDS
;	COMDAT ??_R3CGraphicBase@@8
rdata$r	SEGMENT
??_R3CGraphicBase@@8 DD 00H				; CGraphicBase::`RTTI Class Hierarchy Descriptor'
	DD	00H
	DD	01H
	DD	FLAT:??_R2CGraphicBase@@8
rdata$r	ENDS
;	COMDAT ??_R0?AVCGraphicBase@@@8
data$rs	SEGMENT
??_R0?AVCGraphicBase@@@8 DD FLAT:??_7type_info@@6B@	; CGraphicBase `RTTI Type Descriptor'
	DD	00H
	DB	'.?AVCGraphicBase@@', 00H
data$rs	ENDS
;	COMDAT ??_R1A@?0A@EA@CGraphicBase@@8
rdata$r	SEGMENT
??_R1A@?0A@EA@CGraphicBase@@8 DD FLAT:??_R0?AVCGraphicBase@@@8 ; CGraphicBase::`RTTI Base Class Descriptor at (0,-1,0,64)'
	DD	00H
	DD	00H
	DD	0ffffffffH
	DD	00H
	DD	040H
	DD	FLAT:??_R3CGraphicBase@@8
rdata$r	ENDS
;	COMDAT ??_R2CGraphicCollisionObject@@8
rdata$r	SEGMENT
??_R2CGraphicCollisionObject@@8 DD FLAT:??_R1A@?0A@EA@CGraphicCollisionObject@@8 ; CGraphicCollisionObject::`RTTI Base Class Array'
	DD	FLAT:??_R1A@?0A@EA@CGraphicBase@@8
rdata$r	ENDS
;	COMDAT ??_R3CGraphicCollisionObject@@8
rdata$r	SEGMENT
??_R3CGraphicCollisionObject@@8 DD 00H			; CGraphicCollisionObject::`RTTI Class Hierarchy Descriptor'
	DD	00H
	DD	02H
	DD	FLAT:??_R2CGraphicCollisionObject@@8
rdata$r	ENDS
;	COMDAT ??_R0?AVCGraphicCollisionObject@@@8
data$rs	SEGMENT
??_R0?AVCGraphicCollisionObject@@@8 DD FLAT:??_7type_info@@6B@ ; CGraphicCollisionObject `RTTI Type Descriptor'
	DD	00H
	DB	'.?AVCGraphicCollisionObject@@', 00H
data$rs	ENDS
;	COMDAT ??_R1A@?0A@EA@CGraphicCollisionObject@@8
rdata$r	SEGMENT
??_R1A@?0A@EA@CGraphicCollisionObject@@8 DD FLAT:??_R0?AVCGraphicCollisionObject@@@8 ; CGraphicCollisionObject::`RTTI Base Class Descriptor at (0,-1,0,64)'
	DD	01H
	DD	00H
	DD	0ffffffffH
	DD	00H
	DD	040H
	DD	FLAT:??_R3CGraphicCollisionObject@@8
rdata$r	ENDS
;	COMDAT ??_R1A@?0A@EA@CScreen@@8
rdata$r	SEGMENT
??_R1A@?0A@EA@CScreen@@8 DD FLAT:??_R0?AVCScreen@@@8	; CScreen::`RTTI Base Class Descriptor at (0,-1,0,64)'
	DD	02H
	DD	00H
	DD	0ffffffffH
	DD	00H
	DD	040H
	DD	FLAT:??_R3CScreen@@8
rdata$r	ENDS
;	COMDAT ??_R2CScreen@@8
rdata$r	SEGMENT
??_R2CScreen@@8 DD FLAT:??_R1A@?0A@EA@CScreen@@8	; CScreen::`RTTI Base Class Array'
	DD	FLAT:??_R1A@?0A@EA@CGraphicCollisionObject@@8
	DD	FLAT:??_R1A@?0A@EA@CGraphicBase@@8
rdata$r	ENDS
;	COMDAT ??_R3CScreen@@8
rdata$r	SEGMENT
??_R3CScreen@@8 DD 00H					; CScreen::`RTTI Class Hierarchy Descriptor'
	DD	00H
	DD	03H
	DD	FLAT:??_R2CScreen@@8
rdata$r	ENDS
;	COMDAT ??_R0?AVCScreen@@@8
data$rs	SEGMENT
??_R0?AVCScreen@@@8 DD FLAT:??_7type_info@@6B@		; CScreen `RTTI Type Descriptor'
	DD	00H
	DB	'.?AVCScreen@@', 00H
data$rs	ENDS
;	COMDAT ??_R17?0A@EN@CScreen@@8
rdata$r	SEGMENT
??_R17?0A@EN@CScreen@@8 DD FLAT:??_R0?AVCScreen@@@8	; CScreen::`RTTI Base Class Descriptor at (8,-1,0,77)'
	DD	02H
	DD	08H
	DD	0ffffffffH
	DD	00H
	DD	04dH
	DD	FLAT:??_R3CScreen@@8
rdata$r	ENDS
;	COMDAT ??_R13?0A@EA@SpherePackCallback@@8
rdata$r	SEGMENT
??_R13?0A@EA@SpherePackCallback@@8 DD FLAT:??_R0?AVSpherePackCallback@@@8 ; SpherePackCallback::`RTTI Base Class Descriptor at (4,-1,0,64)'
	DD	00H
	DD	04H
	DD	0ffffffffH
	DD	00H
	DD	040H
	DD	FLAT:??_R3SpherePackCallback@@8
rdata$r	ENDS
;	COMDAT ??_R2?$CSingleton@VCCullingManager@@@@8
rdata$r	SEGMENT
??_R2?$CSingleton@VCCullingManager@@@@8 DD FLAT:??_R1A@?0A@EA@?$CSingleton@VCCullingManager@@@@8 ; CSingleton<CCullingManager>::`RTTI Base Class Array'
rdata$r	ENDS
;	COMDAT ??_R3?$CSingleton@VCCullingManager@@@@8
rdata$r	SEGMENT
??_R3?$CSingleton@VCCullingManager@@@@8 DD 00H		; CSingleton<CCullingManager>::`RTTI Class Hierarchy Descriptor'
	DD	00H
	DD	01H
	DD	FLAT:??_R2?$CSingleton@VCCullingManager@@@@8
rdata$r	ENDS
;	COMDAT ??_R0?AV?$CSingleton@VCCullingManager@@@@@8
data$rs	SEGMENT
??_R0?AV?$CSingleton@VCCullingManager@@@@@8 DD FLAT:??_7type_info@@6B@ ; CSingleton<CCullingManager> `RTTI Type Descriptor'
	DD	00H
	DB	'.?AV?$CSingleton@VCCullingManager@@@@', 00H
data$rs	ENDS
;	COMDAT ??_R1A@?0A@EA@?$CSingleton@VCCullingManager@@@@8
rdata$r	SEGMENT
??_R1A@?0A@EA@?$CSingleton@VCCullingManager@@@@8 DD FLAT:??_R0?AV?$CSingleton@VCCullingManager@@@@@8 ; CSingleton<CCullingManager>::`RTTI Base Class Descriptor at (0,-1,0,64)'
	DD	00H
	DD	00H
	DD	0ffffffffH
	DD	00H
	DD	040H
	DD	FLAT:??_R3?$CSingleton@VCCullingManager@@@@8
rdata$r	ENDS
;	COMDAT ??_R1A@?0A@EA@CCullingManager@@8
rdata$r	SEGMENT
??_R1A@?0A@EA@CCullingManager@@8 DD FLAT:??_R0?AVCCullingManager@@@8 ; CCullingManager::`RTTI Base Class Descriptor at (0,-1,0,64)'
	DD	05H
	DD	00H
	DD	0ffffffffH
	DD	00H
	DD	040H
	DD	FLAT:??_R3CCullingManager@@8
rdata$r	ENDS
;	COMDAT ??_R2CCullingManager@@8
rdata$r	SEGMENT
??_R2CCullingManager@@8 DD FLAT:??_R1A@?0A@EA@CCullingManager@@8 ; CCullingManager::`RTTI Base Class Array'
	DD	FLAT:??_R1A@?0A@EA@?$CSingleton@VCCullingManager@@@@8
	DD	FLAT:??_R13?0A@EA@SpherePackCallback@@8
	DD	FLAT:??_R17?0A@EN@CScreen@@8
	DD	FLAT:??_R17?0A@EJ@CGraphicCollisionObject@@8
	DD	FLAT:??_R17?0A@EJ@CGraphicBase@@8
rdata$r	ENDS
;	COMDAT ??_R3CCullingManager@@8
rdata$r	SEGMENT
??_R3CCullingManager@@8 DD 00H				; CCullingManager::`RTTI Class Hierarchy Descriptor'
	DD	01H
	DD	06H
	DD	FLAT:??_R2CCullingManager@@8
rdata$r	ENDS
;	COMDAT ??_R0?AVCCullingManager@@@8
data$rs	SEGMENT
??_R0?AVCCullingManager@@@8 DD FLAT:??_7type_info@@6B@	; CCullingManager `RTTI Type Descriptor'
	DD	00H
	DB	'.?AVCCullingManager@@', 00H
data$rs	ENDS
;	COMDAT ??_R4CCullingManager@@6B?$CSingleton@VCCullingManager@@@@@
rdata$r	SEGMENT
??_R4CCullingManager@@6B?$CSingleton@VCCullingManager@@@@@ DD 00H ; CCullingManager::`RTTI Complete Object Locator'
	DD	00H
	DD	00H
	DD	FLAT:??_R0?AVCCullingManager@@@8
	DD	FLAT:??_R3CCullingManager@@8
rdata$r	ENDS
;	COMDAT ??_R1A@?0A@EA@SpherePackCallback@@8
rdata$r	SEGMENT
??_R1A@?0A@EA@SpherePackCallback@@8 DD FLAT:??_R0?AVSpherePackCallback@@@8 ; SpherePackCallback::`RTTI Base Class Descriptor at (0,-1,0,64)'
	DD	00H
	DD	00H
	DD	0ffffffffH
	DD	00H
	DD	040H
	DD	FLAT:??_R3SpherePackCallback@@8
rdata$r	ENDS
;	COMDAT ??_R2SpherePackCallback@@8
rdata$r	SEGMENT
??_R2SpherePackCallback@@8 DD FLAT:??_R1A@?0A@EA@SpherePackCallback@@8 ; SpherePackCallback::`RTTI Base Class Array'
rdata$r	ENDS
;	COMDAT ??_R3SpherePackCallback@@8
rdata$r	SEGMENT
??_R3SpherePackCallback@@8 DD 00H			; SpherePackCallback::`RTTI Class Hierarchy Descriptor'
	DD	00H
	DD	01H
	DD	FLAT:??_R2SpherePackCallback@@8
rdata$r	ENDS
;	COMDAT ??_R0?AVSpherePackCallback@@@8
data$rs	SEGMENT
??_R0?AVSpherePackCallback@@@8 DD FLAT:??_7type_info@@6B@ ; SpherePackCallback `RTTI Type Descriptor'
	DD	00H
	DB	'.?AVSpherePackCallback@@', 00H
data$rs	ENDS
;	COMDAT ??_R4SpherePackCallback@@6B@
rdata$r	SEGMENT
??_R4SpherePackCallback@@6B@ DD 00H			; SpherePackCallback::`RTTI Complete Object Locator'
	DD	00H
	DD	00H
	DD	FLAT:??_R0?AVSpherePackCallback@@@8
	DD	FLAT:??_R3SpherePackCallback@@8
rdata$r	ENDS
;	COMDAT ??_C@_0BA@FOIKENOD@vector?5too?5long@
CONST	SEGMENT
??_C@_0BA@FOIKENOD@vector?5too?5long@ DB 'vector too long', 00H ; `string'
CONST	ENDS
;	COMDAT ??_7CCullingManager@@6BCScreen@@@
CONST	SEGMENT
??_7CCullingManager@@6BCScreen@@@ DD FLAT:??_R4CCullingManager@@6BCScreen@@@ ; CCullingManager::`vftable'
	DD	FLAT:??_ECCullingManager@@W7AEPAXI@Z
CONST	ENDS
;	COMDAT ??_7CCullingManager@@6BSpherePackCallback@@@
CONST	SEGMENT
??_7CCullingManager@@6BSpherePackCallback@@@ DD FLAT:??_R4CCullingManager@@6BSpherePackCallback@@@ ; CCullingManager::`vftable'
	DD	FLAT:??_ECCullingManager@@W3AEPAXI@Z
	DD	FLAT:?VisibilityCallback@CCullingManager@@UAEXABVFrustum@@PAVSpherePack@@W4ViewState@@@Z
	DD	FLAT:?RayTraceCallback@CCullingManager@@UAEXABVVector3d@@0M0PAVSpherePack@@@Z
	DD	FLAT:?RangeTestCallback@CCullingManager@@UAEXABVVector3d@@MPAVSpherePack@@W4ViewState@@@Z
	DD	FLAT:?PointTest2dCallback@SpherePackCallback@@UAEXABVVector3d@@PAVSpherePack@@W4ViewState@@@Z
CONST	ENDS
;	COMDAT ??_7CCullingManager@@6B?$CSingleton@VCCullingManager@@@@@
CONST	SEGMENT
??_7CCullingManager@@6B?$CSingleton@VCCullingManager@@@@@ DD FLAT:??_R4CCullingManager@@6B?$CSingleton@VCCullingManager@@@@@ ; CCullingManager::`vftable'
	DD	FLAT:??_ECCullingManager@@UAEPAXI@Z
CONST	ENDS
;	COMDAT ??_7?$CSingleton@VCCullingManager@@@@6B@
CONST	SEGMENT
??_7?$CSingleton@VCCullingManager@@@@6B@ DD FLAT:??_R4?$CSingleton@VCCullingManager@@@@6B@ ; CSingleton<CCullingManager>::`vftable'
	DD	FLAT:??_E?$CSingleton@VCCullingManager@@@@UAEPAXI@Z
CONST	ENDS
;	COMDAT ??_7SpherePackCallback@@6B@
CONST	SEGMENT
??_7SpherePackCallback@@6B@ DD FLAT:??_R4SpherePackCallback@@6B@ ; SpherePackCallback::`vftable'
	DD	FLAT:??_ESpherePackCallback@@UAEPAXI@Z
	DD	FLAT:?VisibilityCallback@SpherePackCallback@@UAEXABVFrustum@@PAVSpherePack@@W4ViewState@@@Z
	DD	FLAT:?RayTraceCallback@SpherePackCallback@@UAEXABVVector3d@@0M0PAVSpherePack@@@Z
	DD	FLAT:?RangeTestCallback@SpherePackCallback@@UAEXABVVector3d@@MPAVSpherePack@@W4ViewState@@@Z
	DD	FLAT:?PointTest2dCallback@SpherePackCallback@@UAEXABVVector3d@@PAVSpherePack@@W4ViewState@@@Z
CONST	ENDS
;	COMDAT ??_R1A@?0A@EA@bad_array_new_length@std@@8
rdata$r	SEGMENT
??_R1A@?0A@EA@bad_array_new_length@std@@8 DD FLAT:??_R0?AVbad_array_new_length@std@@@8 ; std::bad_array_new_length::`RTTI Base Class Descriptor at (0,-1,0,64)'
	DD	02H
	DD	00H
	DD	0ffffffffH
	DD	00H
	DD	040H
	DD	FLAT:??_R3bad_array_new_length@std@@8
rdata$r	ENDS
;	COMDAT ??_R2bad_array_new_length@std@@8
rdata$r	SEGMENT
??_R2bad_array_new_length@std@@8 DD FLAT:??_R1A@?0A@EA@bad_array_new_length@std@@8 ; std::bad_array_new_length::`RTTI Base Class Array'
	DD	FLAT:??_R1A@?0A@EA@bad_alloc@std@@8
	DD	FLAT:??_R1A@?0A@EA@exception@std@@8
rdata$r	ENDS
;	COMDAT ??_R3bad_array_new_length@std@@8
rdata$r	SEGMENT
??_R3bad_array_new_length@std@@8 DD 00H			; std::bad_array_new_length::`RTTI Class Hierarchy Descriptor'
	DD	00H
	DD	03H
	DD	FLAT:??_R2bad_array_new_length@std@@8
rdata$r	ENDS
;	COMDAT ??_R4bad_array_new_length@std@@6B@
rdata$r	SEGMENT
??_R4bad_array_new_length@std@@6B@ DD 00H		; std::bad_array_new_length::`RTTI Complete Object Locator'
	DD	00H
	DD	00H
	DD	FLAT:??_R0?AVbad_array_new_length@std@@@8
	DD	FLAT:??_R3bad_array_new_length@std@@8
rdata$r	ENDS
;	COMDAT ??_R1A@?0A@EA@bad_alloc@std@@8
rdata$r	SEGMENT
??_R1A@?0A@EA@bad_alloc@std@@8 DD FLAT:??_R0?AVbad_alloc@std@@@8 ; std::bad_alloc::`RTTI Base Class Descriptor at (0,-1,0,64)'
	DD	01H
	DD	00H
	DD	0ffffffffH
	DD	00H
	DD	040H
	DD	FLAT:??_R3bad_alloc@std@@8
rdata$r	ENDS
;	COMDAT ??_R2bad_alloc@std@@8
rdata$r	SEGMENT
??_R2bad_alloc@std@@8 DD FLAT:??_R1A@?0A@EA@bad_alloc@std@@8 ; std::bad_alloc::`RTTI Base Class Array'
	DD	FLAT:??_R1A@?0A@EA@exception@std@@8
rdata$r	ENDS
;	COMDAT ??_R3bad_alloc@std@@8
rdata$r	SEGMENT
??_R3bad_alloc@std@@8 DD 00H				; std::bad_alloc::`RTTI Class Hierarchy Descriptor'
	DD	00H
	DD	02H
	DD	FLAT:??_R2bad_alloc@std@@8
rdata$r	ENDS
;	COMDAT ??_R4bad_alloc@std@@6B@
rdata$r	SEGMENT
??_R4bad_alloc@std@@6B@ DD 00H				; std::bad_alloc::`RTTI Complete Object Locator'
	DD	00H
	DD	00H
	DD	FLAT:??_R0?AVbad_alloc@std@@@8
	DD	FLAT:??_R3bad_alloc@std@@8
rdata$r	ENDS
;	COMDAT ??_R1A@?0A@EA@exception@std@@8
rdata$r	SEGMENT
??_R1A@?0A@EA@exception@std@@8 DD FLAT:??_R0?AVexception@std@@@8 ; std::exception::`RTTI Base Class Descriptor at (0,-1,0,64)'
	DD	00H
	DD	00H
	DD	0ffffffffH
	DD	00H
	DD	040H
	DD	FLAT:??_R3exception@std@@8
rdata$r	ENDS
;	COMDAT ??_R2exception@std@@8
rdata$r	SEGMENT
??_R2exception@std@@8 DD FLAT:??_R1A@?0A@EA@exception@std@@8 ; std::exception::`RTTI Base Class Array'
rdata$r	ENDS
;	COMDAT ??_R3exception@std@@8
rdata$r	SEGMENT
??_R3exception@std@@8 DD 00H				; std::exception::`RTTI Class Hierarchy Descriptor'
	DD	00H
	DD	01H
	DD	FLAT:??_R2exception@std@@8
rdata$r	ENDS
;	COMDAT ??_R4exception@std@@6B@
rdata$r	SEGMENT
??_R4exception@std@@6B@ DD 00H				; std::exception::`RTTI Complete Object Locator'
	DD	00H
	DD	00H
	DD	FLAT:??_R0?AVexception@std@@@8
	DD	FLAT:??_R3exception@std@@8
rdata$r	ENDS
;	COMDAT __CT??_R0?AVexception@std@@@8??0exception@std@@QAE@ABV01@@Z12
xdata$x	SEGMENT
__CT??_R0?AVexception@std@@@8??0exception@std@@QAE@ABV01@@Z12 DD 00H
	DD	FLAT:??_R0?AVexception@std@@@8
	DD	00H
	DD	0ffffffffH
	ORG $+4
	DD	0cH
	DD	FLAT:??0exception@std@@QAE@ABV01@@Z
xdata$x	ENDS
;	COMDAT ??_R0?AVexception@std@@@8
data$r	SEGMENT
??_R0?AVexception@std@@@8 DD FLAT:??_7type_info@@6B@	; std::exception `RTTI Type Descriptor'
	DD	00H
	DB	'.?AVexception@std@@', 00H
data$r	ENDS
;	COMDAT __CT??_R0?AVbad_alloc@std@@@8??0bad_alloc@std@@QAE@ABV01@@Z12
xdata$x	SEGMENT
__CT??_R0?AVbad_alloc@std@@@8??0bad_alloc@std@@QAE@ABV01@@Z12 DD 010H
	DD	FLAT:??_R0?AVbad_alloc@std@@@8
	DD	00H
	DD	0ffffffffH
	ORG $+4
	DD	0cH
	DD	FLAT:??0bad_alloc@std@@QAE@ABV01@@Z
xdata$x	ENDS
;	COMDAT ??_R0?AVbad_alloc@std@@@8
data$r	SEGMENT
??_R0?AVbad_alloc@std@@@8 DD FLAT:??_7type_info@@6B@	; std::bad_alloc `RTTI Type Descriptor'
	DD	00H
	DB	'.?AVbad_alloc@std@@', 00H
data$r	ENDS
;	COMDAT __CT??_R0?AVbad_array_new_length@std@@@8??0bad_array_new_length@std@@QAE@ABV01@@Z12
xdata$x	SEGMENT
__CT??_R0?AVbad_array_new_length@std@@@8??0bad_array_new_length@std@@QAE@ABV01@@Z12 DD 00H
	DD	FLAT:??_R0?AVbad_array_new_length@std@@@8
	DD	00H
	DD	0ffffffffH
	ORG $+4
	DD	0cH
	DD	FLAT:??0bad_array_new_length@std@@QAE@ABV01@@Z
xdata$x	ENDS
;	COMDAT ??_R0?AVbad_array_new_length@std@@@8
data$r	SEGMENT
??_R0?AVbad_array_new_length@std@@@8 DD FLAT:??_7type_info@@6B@ ; std::bad_array_new_length `RTTI Type Descriptor'
	DD	00H
	DB	'.?AVbad_array_new_length@std@@', 00H
data$r	ENDS
;	COMDAT __CTA3?AVbad_array_new_length@std@@
xdata$x	SEGMENT
__CTA3?AVbad_array_new_length@std@@ DD 03H
	DD	FLAT:__CT??_R0?AVbad_array_new_length@std@@@8??0bad_array_new_length@std@@QAE@ABV01@@Z12
	DD	FLAT:__CT??_R0?AVbad_alloc@std@@@8??0bad_alloc@std@@QAE@ABV01@@Z12
	DD	FLAT:__CT??_R0?AVexception@std@@@8??0exception@std@@QAE@ABV01@@Z12
xdata$x	ENDS
;	COMDAT __TI3?AVbad_array_new_length@std@@
xdata$x	SEGMENT
__TI3?AVbad_array_new_length@std@@ DD 00H
	DD	FLAT:??1bad_array_new_length@std@@UAE@XZ
	DD	00H
	DD	FLAT:__CTA3?AVbad_array_new_length@std@@
xdata$x	ENDS
;	COMDAT ??_C@_0BF@KINCDENJ@bad?5array?5new?5length@
CONST	SEGMENT
??_C@_0BF@KINCDENJ@bad?5array?5new?5length@ DB 'bad array new length', 00H ; `string'
CONST	ENDS
;	COMDAT ??_7bad_array_new_length@std@@6B@
CONST	SEGMENT
??_7bad_array_new_length@std@@6B@ DD FLAT:??_R4bad_array_new_length@std@@6B@ ; std::bad_array_new_length::`vftable'
	DD	FLAT:??_Ebad_array_new_length@std@@UAEPAXI@Z
	DD	FLAT:?what@exception@std@@UBEPBDXZ
CONST	ENDS
;	COMDAT ??_7bad_alloc@std@@6B@
CONST	SEGMENT
??_7bad_alloc@std@@6B@ DD FLAT:??_R4bad_alloc@std@@6B@	; std::bad_alloc::`vftable'
	DD	FLAT:??_Ebad_alloc@std@@UAEPAXI@Z
	DD	FLAT:?what@exception@std@@UBEPBDXZ
CONST	ENDS
;	COMDAT ??_C@_0BC@EOODALEL@Unknown?5exception@
CONST	SEGMENT
??_C@_0BC@EOODALEL@Unknown?5exception@ DB 'Unknown exception', 00H ; `string'
CONST	ENDS
;	COMDAT ??_7exception@std@@6B@
CONST	SEGMENT
??_7exception@std@@6B@ DD FLAT:??_R4exception@std@@6B@	; std::exception::`vftable'
	DD	FLAT:??_Eexception@std@@UAEPAXI@Z
	DD	FLAT:?what@exception@std@@UBEPBDXZ
CONST	ENDS
;	COMDAT xdata$x
xdata$x	SEGMENT
__catchsym$??$_Emplace_reallocate@PAVCGraphicObjectInstance@@@?$vector@PAVCGraphicObjectInstance@@V?$allocator@PAVCGraphicObjectInstance@@@std@@@std@@QAEPAPAVCGraphicObjectInstance@@QAPAV2@$$QAPAV2@@Z$32 DD 040H
	DD	00H
	DD	00H
	DD	FLAT:__catch$??$_Emplace_reallocate@PAVCGraphicObjectInstance@@@?$vector@PAVCGraphicObjectInstance@@V?$allocator@PAVCGraphicObjectInstance@@@std@@@std@@QAEPAPAVCGraphicObjectInstance@@QAPAV2@$$QAPAV2@@Z$0
__unwindtable$??$_Emplace_reallocate@PAVCGraphicObjectInstance@@@?$vector@PAVCGraphicObjectInstance@@V?$allocator@PAVCGraphicObjectInstance@@@std@@@std@@QAEPAPAVCGraphicObjectInstance@@QAPAV2@$$QAPAV2@@Z DD 0ffffffffH
	DD	00H
	DD	0ffffffffH
	DD	00H
__tryblocktable$??$_Emplace_reallocate@PAVCGraphicObjectInstance@@@?$vector@PAVCGraphicObjectInstance@@V?$allocator@PAVCGraphicObjectInstance@@@std@@@std@@QAEPAPAVCGraphicObjectInstance@@QAPAV2@$$QAPAV2@@Z DD 00H
	DD	00H
	DD	01H
	DD	01H
	DD	FLAT:__catchsym$??$_Emplace_reallocate@PAVCGraphicObjectInstance@@@?$vector@PAVCGraphicObjectInstance@@V?$allocator@PAVCGraphicObjectInstance@@@std@@@std@@QAEPAPAVCGraphicObjectInstance@@QAPAV2@$$QAPAV2@@Z$32
__ehfuncinfo$??$_Emplace_reallocate@PAVCGraphicObjectInstance@@@?$vector@PAVCGraphicObjectInstance@@V?$allocator@PAVCGraphicObjectInstance@@@std@@@std@@QAEPAPAVCGraphicObjectInstance@@QAPAV2@$$QAPAV2@@Z DD 019930522H
	DD	02H
	DD	FLAT:__unwindtable$??$_Emplace_reallocate@PAVCGraphicObjectInstance@@@?$vector@PAVCGraphicObjectInstance@@V?$allocator@PAVCGraphicObjectInstance@@@std@@@std@@QAEPAPAVCGraphicObjectInstance@@QAPAV2@$$QAPAV2@@Z
	DD	01H
	DD	FLAT:__tryblocktable$??$_Emplace_reallocate@PAVCGraphicObjectInstance@@@?$vector@PAVCGraphicObjectInstance@@V?$allocator@PAVCGraphicObjectInstance@@@std@@@std@@QAEPAPAVCGraphicObjectInstance@@QAPAV2@$$QAPAV2@@Z
	DD	2 DUP(00H)
	DD	00H
	DD	01H
xdata$x	ENDS
;	COMDAT xdata$x
xdata$x	SEGMENT
__ehfuncinfo$??0CCullingManager@@QAE@XZ DD 019930522H
	DD	05H
	DD	FLAT:__unwindtable$??0CCullingManager@@QAE@XZ
	DD	2 DUP(00H)
	DD	2 DUP(00H)
	DD	00H
	DD	01H
__unwindtable$??0CCullingManager@@QAE@XZ DD 0ffffffffH
	DD	FLAT:__unwindfunclet$??0CCullingManager@@QAE@XZ$0
	DD	00H
	DD	FLAT:__unwindfunclet$??0CCullingManager@@QAE@XZ$1
	DD	01H
	DD	FLAT:__unwindfunclet$??0CCullingManager@@QAE@XZ$2
	DD	02H
	DD	FLAT:__unwindfunclet$??0CCullingManager@@QAE@XZ$3
	DD	03H
	DD	FLAT:__unwindfunclet$??0CCullingManager@@QAE@XZ$4
xdata$x	ENDS
;	COMDAT xdata$x
xdata$x	SEGMENT
__ehfuncinfo$??$_Deallocate@$07$0A@@std@@YAXPAXI@Z DD 019930522H
	DD	00H
	DD	00H
	DD	2 DUP(00H)
	DD	2 DUP(00H)
	DD	00H
	DD	05H
xdata$x	ENDS
; Function compile flags: /Odspy
;	COMDAT ??_ECCullingManager@@W7AEPAXI@Z
_TEXT	SEGMENT
??_ECCullingManager@@W7AEPAXI@Z PROC			; [thunk]:CCullingManager::`vector deleting destructor', COMDAT
  00000	83 e9 08	 sub	 ecx, 8
  00003	e9 00 00 00 00	 jmp	 ??_ECCullingManager@@UAEPAXI@Z
??_ECCullingManager@@W7AEPAXI@Z ENDP			; [thunk]:CCullingManager::`vector deleting destructor'
_TEXT	ENDS
; Function compile flags: /Odspy
;	COMDAT ??_ECCullingManager@@W3AEPAXI@Z
_TEXT	SEGMENT
??_ECCullingManager@@W3AEPAXI@Z PROC			; [thunk]:CCullingManager::`vector deleting destructor', COMDAT
  00000	83 e9 04	 sub	 ecx, 4
  00003	e9 00 00 00 00	 jmp	 ??_ECCullingManager@@UAEPAXI@Z
??_ECCullingManager@@W3AEPAXI@Z ENDP			; [thunk]:CCullingManager::`vector deleting destructor'
_TEXT	ENDS
; Function compile flags: /Odspy
; File C:\Program Files (x86)\Microsoft Visual Studio\2019\Community\VC\Tools\MSVC\14.28.29333\include\xutility
;	COMDAT ??$_Copy_memmove@PAPAVCGraphicObjectInstance@@PAPAV1@@std@@YAPAPAVCGraphicObjectInstance@@PAPAV1@00@Z
_TEXT	SEGMENT
__Last_ch$ = -16					; size = 4
__Count$ = -12						; size = 4
__Dest_ch$ = -8						; size = 4
__First_ch$ = -4					; size = 4
__First$ = 8						; size = 4
__Last$ = 12						; size = 4
__Dest$ = 16						; size = 4
??$_Copy_memmove@PAPAVCGraphicObjectInstance@@PAPAV1@@std@@YAPAPAVCGraphicObjectInstance@@PAPAV1@00@Z PROC ; std::_Copy_memmove<CGraphicObjectInstance * *,CGraphicObjectInstance * *>, COMDAT

; 4360 : _OutIt _Copy_memmove(_InIt _First, _InIt _Last, _OutIt _Dest) {

  00000	55		 push	 ebp
  00001	8b ec		 mov	 ebp, esp
  00003	83 ec 10	 sub	 esp, 16			; 00000010H

; 4361 :     const char* const _First_ch = const_cast<const char*>(reinterpret_cast<const volatile char*>(_First));

  00006	8b 45 08	 mov	 eax, DWORD PTR __First$[ebp]
  00009	89 45 fc	 mov	 DWORD PTR __First_ch$[ebp], eax

; 4362 :     const char* const _Last_ch  = const_cast<const char*>(reinterpret_cast<const volatile char*>(_Last));

  0000c	8b 45 0c	 mov	 eax, DWORD PTR __Last$[ebp]
  0000f	89 45 f0	 mov	 DWORD PTR __Last_ch$[ebp], eax

; 4363 :     char* const _Dest_ch        = const_cast<char*>(reinterpret_cast<volatile char*>(_Dest));

  00012	8b 45 10	 mov	 eax, DWORD PTR __Dest$[ebp]
  00015	89 45 f8	 mov	 DWORD PTR __Dest_ch$[ebp], eax

; 4364 :     const auto _Count           = static_cast<size_t>(_Last_ch - _First_ch);

  00018	8b 45 f0	 mov	 eax, DWORD PTR __Last_ch$[ebp]
  0001b	2b 45 fc	 sub	 eax, DWORD PTR __First_ch$[ebp]
  0001e	89 45 f4	 mov	 DWORD PTR __Count$[ebp], eax

; 4365 :     _CSTD memmove(_Dest_ch, _First_ch, _Count);

  00021	ff 75 f4	 push	 DWORD PTR __Count$[ebp]
  00024	ff 75 fc	 push	 DWORD PTR __First_ch$[ebp]
  00027	ff 75 f8	 push	 DWORD PTR __Dest_ch$[ebp]
  0002a	e8 00 00 00 00	 call	 _memmove
  0002f	83 c4 0c	 add	 esp, 12			; 0000000cH

; 4366 :     return reinterpret_cast<_OutIt>(_Dest_ch + _Count);

  00032	8b 45 f8	 mov	 eax, DWORD PTR __Dest_ch$[ebp]
  00035	03 45 f4	 add	 eax, DWORD PTR __Count$[ebp]

; 4367 : }

  00038	c9		 leave
  00039	c3		 ret	 0
??$_Copy_memmove@PAPAVCGraphicObjectInstance@@PAPAV1@@std@@YAPAPAVCGraphicObjectInstance@@PAPAV1@00@Z ENDP ; std::_Copy_memmove<CGraphicObjectInstance * *,CGraphicObjectInstance * *>
_TEXT	ENDS
; Function compile flags: /Odspy
; File C:\Program Files (x86)\Microsoft Visual Studio\2019\Community\VC\Tools\MSVC\14.28.29333\include\xmemory
; File C:\Program Files (x86)\Microsoft Visual Studio\2019\Community\VC\Tools\MSVC\14.28.29333\include\xstddef
; File C:\Program Files (x86)\Microsoft Visual Studio\2019\Community\VC\Tools\MSVC\14.28.29333\include\xmemory
;	COMDAT ??$_Uninitialized_move@PAPAVCGraphicObjectInstance@@V?$allocator@PAVCGraphicObjectInstance@@@std@@@std@@YAPAPAVCGraphicObjectInstance@@QAPAV1@0PAPAV1@AAV?$allocator@PAVCGraphicObjectInstance@@@0@@Z
_TEXT	SEGMENT
$T1 = -12						; size = 4
__UFirst$ = -8						; size = 4
__ULast$ = -4						; size = 4
__First$ = 8						; size = 4
__Last$ = 12						; size = 4
__Dest$ = 16						; size = 4
__Al$ = 20						; size = 4
??$_Uninitialized_move@PAPAVCGraphicObjectInstance@@V?$allocator@PAVCGraphicObjectInstance@@@std@@@std@@YAPAPAVCGraphicObjectInstance@@QAPAV1@0PAPAV1@AAV?$allocator@PAVCGraphicObjectInstance@@@0@@Z PROC ; std::_Uninitialized_move<CGraphicObjectInstance * *,std::allocator<CGraphicObjectInstance *> >, COMDAT

; 1685 :     const _InIt _First, const _InIt _Last, _Alloc_ptr_t<_Alloc> _Dest, _Alloc& _Al) {

  00000	55		 push	 ebp
  00001	8b ec		 mov	 ebp, esp
  00003	83 ec 0c	 sub	 esp, 12			; 0000000cH

; 1686 :     // move [_First, _Last) to raw _Dest, using _Al
; 1687 :     // note: only called internally from elsewhere in the STL
; 1688 :     using _Ptrval     = typename _Alloc::value_type*;
; 1689 :     auto _UFirst      = _Get_unwrapped(_First);

  00006	8b 45 08	 mov	 eax, DWORD PTR __First$[ebp]
  00009	89 45 f8	 mov	 DWORD PTR __UFirst$[ebp], eax

; 1690 :     const auto _ULast = _Get_unwrapped(_Last);

  0000c	8b 45 0c	 mov	 eax, DWORD PTR __Last$[ebp]
  0000f	89 45 fc	 mov	 DWORD PTR __ULast$[ebp], eax
; File C:\Program Files (x86)\Microsoft Visual Studio\2019\Community\VC\Tools\MSVC\14.28.29333\include\xstddef

; 289  :     return _Ptr;

  00012	8b 45 10	 mov	 eax, DWORD PTR __Dest$[ebp]
  00015	89 45 f4	 mov	 DWORD PTR $T1[ebp], eax
; File C:\Program Files (x86)\Microsoft Visual Studio\2019\Community\VC\Tools\MSVC\14.28.29333\include\xmemory

; 1693 :         _Copy_memmove(_UFirst, _ULast, _Unfancy(_Dest));

  00018	ff 75 f4	 push	 DWORD PTR $T1[ebp]
  0001b	ff 75 fc	 push	 DWORD PTR __ULast$[ebp]
  0001e	ff 75 f8	 push	 DWORD PTR __UFirst$[ebp]
  00021	e8 00 00 00 00	 call	 ??$_Copy_memmove@PAPAVCGraphicObjectInstance@@PAPAV1@@std@@YAPAPAVCGraphicObjectInstance@@PAPAV1@00@Z ; std::_Copy_memmove<CGraphicObjectInstance * *,CGraphicObjectInstance * *>
  00026	83 c4 0c	 add	 esp, 12			; 0000000cH

; 1694 :         return _Dest + (_ULast - _UFirst);

  00029	8b 45 fc	 mov	 eax, DWORD PTR __ULast$[ebp]
  0002c	2b 45 f8	 sub	 eax, DWORD PTR __UFirst$[ebp]
  0002f	c1 f8 02	 sar	 eax, 2
  00032	8b 4d 10	 mov	 ecx, DWORD PTR __Dest$[ebp]
  00035	8d 04 81	 lea	 eax, DWORD PTR [ecx+eax*4]

; 1695 :     } else {
; 1696 :         _Uninitialized_backout_al<_Alloc> _Backout{_Dest, _Al};
; 1697 :         for (; _UFirst != _ULast; ++_UFirst) {
; 1698 :             _Backout._Emplace_back(_STD move(*_UFirst));
; 1699 :         }
; 1700 : 
; 1701 :         return _Backout._Release();
; 1702 :     }
; 1703 : }

  00038	c9		 leave
  00039	c3		 ret	 0
??$_Uninitialized_move@PAPAVCGraphicObjectInstance@@V?$allocator@PAVCGraphicObjectInstance@@@std@@@std@@YAPAPAVCGraphicObjectInstance@@QAPAV1@0PAPAV1@AAV?$allocator@PAVCGraphicObjectInstance@@@0@@Z ENDP ; std::_Uninitialized_move<CGraphicObjectInstance * *,std::allocator<CGraphicObjectInstance *> >
_TEXT	ENDS
; Function compile flags: /Odspy
; File C:\Program Files (x86)\Microsoft Visual Studio\2019\Community\VC\Tools\MSVC\14.28.29333\include\xmemory
;	COMDAT ??$_Destroy_range@V?$allocator@PAVCGraphicObjectInstance@@@std@@@std@@YAXPAPAVCGraphicObjectInstance@@QAPAV1@AAV?$allocator@PAVCGraphicObjectInstance@@@0@@Z
_TEXT	SEGMENT
__First$ = 8						; size = 4
__Last$ = 12						; size = 4
__Al$ = 16						; size = 4
??$_Destroy_range@V?$allocator@PAVCGraphicObjectInstance@@@std@@@std@@YAXPAPAVCGraphicObjectInstance@@QAPAV1@AAV?$allocator@PAVCGraphicObjectInstance@@@0@@Z PROC ; std::_Destroy_range<std::allocator<CGraphicObjectInstance *> >, COMDAT

; 962  :     _Alloc_ptr_t<_Alloc> _First, const _Alloc_ptr_t<_Alloc> _Last, _Alloc& _Al) noexcept {

  00000	55		 push	 ebp
  00001	8b ec		 mov	 ebp, esp

; 963  :     // note that this is an optimization for debug mode codegen; in release mode the BE removes all of this
; 964  :     using _Ty = typename _Alloc::value_type;
; 965  :     if _CONSTEXPR_IF (!conjunction_v<is_trivially_destructible<_Ty>, _Uses_default_destroy<_Alloc, _Ty*>>) {
; 966  :         for (; _First != _Last; ++_First) {
; 967  :             allocator_traits<_Alloc>::destroy(_Al, _Unfancy(_First));
; 968  :         }
; 969  :     }
; 970  : }

  00003	5d		 pop	 ebp
  00004	c3		 ret	 0
??$_Destroy_range@V?$allocator@PAVCGraphicObjectInstance@@@std@@@std@@YAXPAPAVCGraphicObjectInstance@@QAPAV1@AAV?$allocator@PAVCGraphicObjectInstance@@@0@@Z ENDP ; std::_Destroy_range<std::allocator<CGraphicObjectInstance *> >
_TEXT	ENDS
; Function compile flags: /Odspy
; File C:\Program Files (x86)\Microsoft Visual Studio\2019\Community\VC\Tools\MSVC\14.28.29333\include\vector
; File C:\Program Files (x86)\Microsoft Visual Studio\2019\Community\VC\Tools\MSVC\14.28.29333\include\xmemory
; File C:\Program Files (x86)\Microsoft Visual Studio\2019\Community\VC\Tools\MSVC\14.28.29333\include\vector
; File C:\Program Files (x86)\Microsoft Visual Studio\2019\Community\VC\Tools\MSVC\14.28.29333\include\xmemory
; File C:\Program Files (x86)\Microsoft Visual Studio\2019\Community\VC\Tools\MSVC\14.28.29333\include\vector
; File C:\Program Files (x86)\Microsoft Visual Studio\2019\Community\VC\Tools\MSVC\14.28.29333\include\xmemory
; File C:\Program Files (x86)\Microsoft Visual Studio\2019\Community\VC\Tools\MSVC\14.28.29333\include\limits
; File C:\Program Files (x86)\Microsoft Visual Studio\2019\Community\VC\Tools\MSVC\14.28.29333\include\vector
; File C:\Program Files (x86)\Microsoft Visual Studio\2019\Community\VC\Tools\MSVC\14.28.29333\include\utility
; File C:\Program Files (x86)\Microsoft Visual Studio\2019\Community\VC\Tools\MSVC\14.28.29333\include\vector
; File C:\Program Files (x86)\Microsoft Visual Studio\2019\Community\VC\Tools\MSVC\14.28.29333\include\xmemory
; File C:\Program Files (x86)\Microsoft Visual Studio\2019\Community\VC\Tools\MSVC\14.28.29333\include\vector
; File C:\Program Files (x86)\Microsoft Visual Studio\2019\Community\VC\Tools\MSVC\14.28.29333\include\type_traits
; File C:\Program Files (x86)\Microsoft Visual Studio\2019\Community\VC\Tools\MSVC\14.28.29333\include\vector
; File C:\Program Files (x86)\Microsoft Visual Studio\2019\Community\VC\Tools\MSVC\14.28.29333\include\xstddef
; File C:\Program Files (x86)\Microsoft Visual Studio\2019\Community\VC\Tools\MSVC\14.28.29333\include\vcruntime_new.h
; File C:\Program Files (x86)\Microsoft Visual Studio\2019\Community\VC\Tools\MSVC\14.28.29333\include\type_traits
; File C:\Program Files (x86)\Microsoft Visual Studio\2019\Community\VC\Tools\MSVC\14.28.29333\include\xmemory
; File C:\Program Files (x86)\Microsoft Visual Studio\2019\Community\VC\Tools\MSVC\14.28.29333\include\vector
; File C:\Program Files (x86)\Microsoft Visual Studio\2019\Community\VC\Tools\MSVC\14.28.29333\include\xmemory
; File C:\Program Files (x86)\Microsoft Visual Studio\2019\Community\VC\Tools\MSVC\14.28.29333\include\vector
; File C:\Program Files (x86)\Microsoft Visual Studio\2019\Community\VC\Tools\MSVC\14.28.29333\include\xmemory
; File C:\Program Files (x86)\Microsoft Visual Studio\2019\Community\VC\Tools\MSVC\14.28.29333\include\vector
; File C:\Program Files (x86)\Microsoft Visual Studio\2019\Community\VC\Tools\MSVC\14.28.29333\include\xmemory
; File C:\Program Files (x86)\Microsoft Visual Studio\2019\Community\VC\Tools\MSVC\14.28.29333\include\vector
;	COMDAT ??$_Emplace_reallocate@PAVCGraphicObjectInstance@@@?$vector@PAVCGraphicObjectInstance@@V?$allocator@PAVCGraphicObjectInstance@@@std@@@std@@QAEPAPAVCGraphicObjectInstance@@QAPAV2@$$QAPAV2@@Z
_TEXT	SEGMENT
__Max_possible$2 = -68					; size = 4
$T3 = -64						; size = 4
__Al$ = -60						; size = 4
__Last$ = -56						; size = 4
$T4 = -52						; size = 4
$T5 = -48						; size = 4
__First$ = -44						; size = 4
$T6 = -40						; size = 4
$T7 = -36						; size = 4
__First$ = -32						; size = 4
__Last$ = -28						; size = 4
$T8 = -24						; size = 4
$T9 = -20						; size = 4
__$EHRec$ = -16						; size = 16
$T10 = 0						; size = 4
$T11 = 4						; size = 4
$T12 = 8						; size = 4
$T13 = 12						; size = 4
$T14 = 16						; size = 4
$T15 = 20						; size = 4
$T16 = 24						; size = 4
$T17 = 28						; size = 4
$T18 = 32						; size = 4
$T19 = 36						; size = 4
$T20 = 40						; size = 4
__Newsize$ = 44						; size = 4
__Constructed_last$ = 48				; size = 4
__Oldsize$ = 52						; size = 4
tv172 = 56						; size = 4
$T21 = 60						; size = 4
$T22 = 64						; size = 4
__My_data$ = 68						; size = 4
__Constructed_first$ = 72				; size = 4
___formal$ = 76						; size = 1
__Overflow_is_possible$23 = 83				; size = 1
__Newcapacity$ = 84					; size = 4
__Mylast$ = 88						; size = 4
__Myfirst$ = 92						; size = 4
__Whereoff$ = 96					; size = 4
$T24 = 103						; size = 1
_this$ = 104						; size = 4
__Newvec$ = 108						; size = 4
__Whereptr$ = 120					; size = 4
_<_Val_0>$ = 124					; size = 4
??$_Emplace_reallocate@PAVCGraphicObjectInstance@@@?$vector@PAVCGraphicObjectInstance@@V?$allocator@PAVCGraphicObjectInstance@@@std@@@std@@QAEPAPAVCGraphicObjectInstance@@QAPAV2@$$QAPAV2@@Z PROC ; std::vector<CGraphicObjectInstance *,std::allocator<CGraphicObjectInstance *> >::_Emplace_reallocate<CGraphicObjectInstance *>, COMDAT
; _this$ = ecx

; 725  :     pointer _Emplace_reallocate(const pointer _Whereptr, _Valty&&... _Val) {

  00000	55		 push	 ebp
  00001	8d 6c 24 90	 lea	 ebp, DWORD PTR [esp-112]
  00005	83 ec 70	 sub	 esp, 112		; 00000070H
  00008	6a ff		 push	 -1
  0000a	68 00 00 00 00	 push	 __ehhandler$??$_Emplace_reallocate@PAVCGraphicObjectInstance@@@?$vector@PAVCGraphicObjectInstance@@V?$allocator@PAVCGraphicObjectInstance@@@std@@@std@@QAEPAPAVCGraphicObjectInstance@@QAPAV2@$$QAPAV2@@Z
  0000f	64 a1 00 00 00
	00		 mov	 eax, DWORD PTR fs:0
  00015	50		 push	 eax
  00016	51		 push	 ecx
  00017	83 ec 34	 sub	 esp, 52			; 00000034H
  0001a	53		 push	 ebx
  0001b	56		 push	 esi
  0001c	57		 push	 edi
  0001d	a1 00 00 00 00	 mov	 eax, DWORD PTR ___security_cookie
  00022	33 c5		 xor	 eax, ebp
  00024	50		 push	 eax
  00025	8d 45 f4	 lea	 eax, DWORD PTR __$EHRec$[ebp+4]
  00028	64 a3 00 00 00
	00		 mov	 DWORD PTR fs:0, eax
  0002e	89 65 f0	 mov	 DWORD PTR __$EHRec$[ebp], esp
  00031	89 4d 68	 mov	 DWORD PTR _this$[ebp], ecx

; 1733 :         return _Mypair._Get_first();

  00034	8b 45 68	 mov	 eax, DWORD PTR _this$[ebp]
; File C:\Program Files (x86)\Microsoft Visual Studio\2019\Community\VC\Tools\MSVC\14.28.29333\include\xmemory

; 1347 :         return *this;

  00037	89 45 28	 mov	 DWORD PTR $T20[ebp], eax
; File C:\Program Files (x86)\Microsoft Visual Studio\2019\Community\VC\Tools\MSVC\14.28.29333\include\vector

; 1733 :         return _Mypair._Get_first();

  0003a	8b 45 28	 mov	 eax, DWORD PTR $T20[ebp]
  0003d	89 45 c4	 mov	 DWORD PTR __Al$[ebp], eax

; 726  :         // reallocate and insert by perfectly forwarding _Val at _Whereptr
; 727  :         _Alty& _Al        = _Getal();
; 728  :         auto& _My_data    = _Mypair._Myval2;

  00040	8b 45 68	 mov	 eax, DWORD PTR _this$[ebp]
  00043	89 45 44	 mov	 DWORD PTR __My_data$[ebp], eax

; 729  :         pointer& _Myfirst = _My_data._Myfirst;

  00046	8b 45 44	 mov	 eax, DWORD PTR __My_data$[ebp]
  00049	89 45 5c	 mov	 DWORD PTR __Myfirst$[ebp], eax

; 730  :         pointer& _Mylast  = _My_data._Mylast;

  0004c	8b 45 44	 mov	 eax, DWORD PTR __My_data$[ebp]
  0004f	83 c0 04	 add	 eax, 4
  00052	89 45 58	 mov	 DWORD PTR __Mylast$[ebp], eax

; 731  : 
; 732  :         _STL_INTERNAL_CHECK(_Mylast == _My_data._Myend); // check that we have no unused capacity
; 733  : 
; 734  :         const auto _Whereoff = static_cast<size_type>(_Whereptr - _Myfirst);

  00055	8b 45 5c	 mov	 eax, DWORD PTR __Myfirst$[ebp]
  00058	8b 4d 78	 mov	 ecx, DWORD PTR __Whereptr$[ebp]
  0005b	2b 08		 sub	 ecx, DWORD PTR [eax]
  0005d	c1 f9 02	 sar	 ecx, 2
  00060	89 4d 60	 mov	 DWORD PTR __Whereoff$[ebp], ecx

; 735  :         const auto _Oldsize  = static_cast<size_type>(_Mylast - _Myfirst);

  00063	8b 45 58	 mov	 eax, DWORD PTR __Mylast$[ebp]
  00066	8b 4d 5c	 mov	 ecx, DWORD PTR __Myfirst$[ebp]
  00069	8b 00		 mov	 eax, DWORD PTR [eax]
  0006b	2b 01		 sub	 eax, DWORD PTR [ecx]
  0006d	c1 f8 02	 sar	 eax, 2
  00070	89 45 34	 mov	 DWORD PTR __Oldsize$[ebp], eax

; 1737 :         return _Mypair._Get_first();

  00073	8b 45 68	 mov	 eax, DWORD PTR _this$[ebp]
; File C:\Program Files (x86)\Microsoft Visual Studio\2019\Community\VC\Tools\MSVC\14.28.29333\include\xmemory

; 1351 :         return *this;

  00076	89 45 24	 mov	 DWORD PTR $T19[ebp], eax
; File C:\Program Files (x86)\Microsoft Visual Studio\2019\Community\VC\Tools\MSVC\14.28.29333\include\vector

; 1737 :         return _Mypair._Get_first();

  00079	8b 45 24	 mov	 eax, DWORD PTR $T19[ebp]
  0007c	89 45 c0	 mov	 DWORD PTR $T3[ebp], eax
; File C:\Program Files (x86)\Microsoft Visual Studio\2019\Community\VC\Tools\MSVC\14.28.29333\include\xmemory

; 710  :         return static_cast<size_t>(-1) / sizeof(value_type);

  0007f	c7 45 40 ff ff
	ff 3f		 mov	 DWORD PTR $T22[ebp], 1073741823 ; 3fffffffH
; File C:\Program Files (x86)\Microsoft Visual Studio\2019\Community\VC\Tools\MSVC\14.28.29333\include\limits

; 557  :         return INT_MAX;

  00086	c7 45 20 ff ff
	ff 7f		 mov	 DWORD PTR $T18[ebp], 2147483647 ; 7fffffffH
; File C:\Program Files (x86)\Microsoft Visual Studio\2019\Community\VC\Tools\MSVC\14.28.29333\include\vector

; 1488 :         return (_STD min)(

  0008d	8b 45 20	 mov	 eax, DWORD PTR $T18[ebp]
  00090	89 45 3c	 mov	 DWORD PTR $T21[ebp], eax
; File C:\Program Files (x86)\Microsoft Visual Studio\2019\Community\VC\Tools\MSVC\14.28.29333\include\utility

; 68   :     return _Right < _Left ? _Right : _Left;

  00093	8b 45 40	 mov	 eax, DWORD PTR $T22[ebp]
  00096	3b 45 3c	 cmp	 eax, DWORD PTR $T21[ebp]
  00099	73 08		 jae	 SHORT $LN34@Emplace_re
  0009b	8d 45 40	 lea	 eax, DWORD PTR $T22[ebp]
  0009e	89 45 38	 mov	 DWORD PTR tv172[ebp], eax
  000a1	eb 06		 jmp	 SHORT $LN35@Emplace_re
$LN34@Emplace_re:
  000a3	8d 45 3c	 lea	 eax, DWORD PTR $T21[ebp]
  000a6	89 45 38	 mov	 DWORD PTR tv172[ebp], eax
$LN35@Emplace_re:
  000a9	8b 45 38	 mov	 eax, DWORD PTR tv172[ebp]
  000ac	89 45 1c	 mov	 DWORD PTR $T17[ebp], eax
  000af	8b 45 1c	 mov	 eax, DWORD PTR $T17[ebp]
  000b2	89 45 18	 mov	 DWORD PTR $T16[ebp], eax
; File C:\Program Files (x86)\Microsoft Visual Studio\2019\Community\VC\Tools\MSVC\14.28.29333\include\vector

; 1488 :         return (_STD min)(

  000b5	8b 45 18	 mov	 eax, DWORD PTR $T16[ebp]
  000b8	8b 00		 mov	 eax, DWORD PTR [eax]
  000ba	89 45 14	 mov	 DWORD PTR $T15[ebp], eax

; 736  : 
; 737  :         if (_Oldsize == max_size()) {

  000bd	8b 45 34	 mov	 eax, DWORD PTR __Oldsize$[ebp]
  000c0	3b 45 14	 cmp	 eax, DWORD PTR $T15[ebp]
  000c3	75 05		 jne	 SHORT $LN2@Emplace_re

; 738  :             _Xlength();

  000c5	e8 00 00 00 00	 call	 ?_Xlength@?$vector@PAVCGraphicObjectInstance@@V?$allocator@PAVCGraphicObjectInstance@@@std@@@std@@CAXXZ ; std::vector<CGraphicObjectInstance *,std::allocator<CGraphicObjectInstance *> >::_Xlength
$LN2@Emplace_re:

; 739  :         }
; 740  : 
; 741  :         const size_type _Newsize     = _Oldsize + 1;

  000ca	8b 45 34	 mov	 eax, DWORD PTR __Oldsize$[ebp]
  000cd	40		 inc	 eax
  000ce	89 45 2c	 mov	 DWORD PTR __Newsize$[ebp], eax

; 742  :         const size_type _Newcapacity = _Calculate_growth(_Newsize);

  000d1	ff 75 2c	 push	 DWORD PTR __Newsize$[ebp]
  000d4	8b 4d 68	 mov	 ecx, DWORD PTR _this$[ebp]
  000d7	e8 00 00 00 00	 call	 ?_Calculate_growth@?$vector@PAVCGraphicObjectInstance@@V?$allocator@PAVCGraphicObjectInstance@@@std@@@std@@ABEII@Z ; std::vector<CGraphicObjectInstance *,std::allocator<CGraphicObjectInstance *> >::_Calculate_growth
  000dc	89 45 54	 mov	 DWORD PTR __Newcapacity$[ebp], eax
; File C:\Program Files (x86)\Microsoft Visual Studio\2019\Community\VC\Tools\MSVC\14.28.29333\include\xmemory

; 56   :     constexpr bool _Overflow_is_possible = _Ty_size > 1;

  000df	c6 45 53 01	 mov	 BYTE PTR __Overflow_is_possible$23[ebp], 1

; 57   : 
; 58   :     if _CONSTEXPR_IF (_Overflow_is_possible) {
; 59   :         constexpr size_t _Max_possible = static_cast<size_t>(-1) / _Ty_size;

  000e3	c7 45 bc ff ff
	ff 3f		 mov	 DWORD PTR __Max_possible$2[ebp], 1073741823 ; 3fffffffH

; 60   :         if (_Count > _Max_possible) {

  000ea	81 7d 54 ff ff
	ff 3f		 cmp	 DWORD PTR __Newcapacity$[ebp], 1073741823 ; 3fffffffH
  000f1	76 05		 jbe	 SHORT $LN67@Emplace_re

; 61   :             _Throw_bad_array_new_length(); // multiply overflow

  000f3	e8 00 00 00 00	 call	 ?_Throw_bad_array_new_length@std@@YAXXZ ; std::_Throw_bad_array_new_length
$LN67@Emplace_re:

; 62   :         }
; 63   :     }
; 64   : 
; 65   :     return _Count * _Ty_size;

  000f8	8b 45 54	 mov	 eax, DWORD PTR __Newcapacity$[ebp]
  000fb	c1 e0 02	 shl	 eax, 2
  000fe	89 45 10	 mov	 DWORD PTR $T14[ebp], eax

; 814  :         return static_cast<_Ty*>(_Allocate<_New_alignof<_Ty>>(_Get_size_of_n<sizeof(_Ty)>(_Count)));

  00101	ff 75 10	 push	 DWORD PTR $T14[ebp]
  00104	e8 00 00 00 00	 call	 ??$_Allocate@$07U_Default_allocate_traits@std@@$0A@@std@@YAPAXI@Z ; std::_Allocate<8,std::_Default_allocate_traits,0>
  00109	59		 pop	 ecx
  0010a	89 45 6c	 mov	 DWORD PTR __Newvec$[ebp], eax
; File C:\Program Files (x86)\Microsoft Visual Studio\2019\Community\VC\Tools\MSVC\14.28.29333\include\vector

; 745  :         const pointer _Constructed_last = _Newvec + _Whereoff + 1;

  0010d	8b 45 60	 mov	 eax, DWORD PTR __Whereoff$[ebp]
  00110	8b 4d 6c	 mov	 ecx, DWORD PTR __Newvec$[ebp]
  00113	8d 44 81 04	 lea	 eax, DWORD PTR [ecx+eax*4+4]
  00117	89 45 30	 mov	 DWORD PTR __Constructed_last$[ebp], eax

; 746  :         pointer _Constructed_first      = _Constructed_last;

  0011a	8b 45 30	 mov	 eax, DWORD PTR __Constructed_last$[ebp]
  0011d	89 45 48	 mov	 DWORD PTR __Constructed_first$[ebp], eax

; 747  : 
; 748  :         _TRY_BEGIN

  00120	83 65 fc 00	 and	 DWORD PTR __$EHRec$[ebp+12], 0
; File C:\Program Files (x86)\Microsoft Visual Studio\2019\Community\VC\Tools\MSVC\14.28.29333\include\type_traits

; 1443 :     return static_cast<_Ty&&>(_Arg);

  00124	8b 45 7c	 mov	 eax, DWORD PTR _<_Val_0>$[ebp]
  00127	89 45 08	 mov	 DWORD PTR $T12[ebp], eax
; File C:\Program Files (x86)\Microsoft Visual Studio\2019\Community\VC\Tools\MSVC\14.28.29333\include\vector

; 749  :         _Alty_traits::construct(_Al, _Unfancy(_Newvec + _Whereoff), _STD forward<_Valty>(_Val)...);

  0012a	8b 45 60	 mov	 eax, DWORD PTR __Whereoff$[ebp]
  0012d	8b 4d 6c	 mov	 ecx, DWORD PTR __Newvec$[ebp]
  00130	8d 04 81	 lea	 eax, DWORD PTR [ecx+eax*4]
; File C:\Program Files (x86)\Microsoft Visual Studio\2019\Community\VC\Tools\MSVC\14.28.29333\include\xstddef

; 289  :     return _Ptr;

  00133	89 45 0c	 mov	 DWORD PTR $T13[ebp], eax
; File C:\Program Files (x86)\Microsoft Visual Studio\2019\Community\VC\Tools\MSVC\14.28.29333\include\vcruntime_new.h

; 169  :         return _Where;

  00136	8b 45 0c	 mov	 eax, DWORD PTR $T13[ebp]
  00139	89 45 04	 mov	 DWORD PTR $T11[ebp], eax
; File C:\Program Files (x86)\Microsoft Visual Studio\2019\Community\VC\Tools\MSVC\14.28.29333\include\type_traits

; 1443 :     return static_cast<_Ty&&>(_Arg);

  0013c	8b 45 08	 mov	 eax, DWORD PTR $T12[ebp]
  0013f	89 45 00	 mov	 DWORD PTR $T10[ebp], eax
; File C:\Program Files (x86)\Microsoft Visual Studio\2019\Community\VC\Tools\MSVC\14.28.29333\include\xmemory

; 701  :         ::new (const_cast<void*>(static_cast<const volatile void*>(_Ptr))) _Objty(_STD forward<_Types>(_Args)...);

  00142	8b 45 04	 mov	 eax, DWORD PTR $T11[ebp]
  00145	8b 4d 00	 mov	 ecx, DWORD PTR $T10[ebp]
  00148	8b 09		 mov	 ecx, DWORD PTR [ecx]
  0014a	89 08		 mov	 DWORD PTR [eax], ecx
; File C:\Program Files (x86)\Microsoft Visual Studio\2019\Community\VC\Tools\MSVC\14.28.29333\include\vector

; 750  :         _Constructed_first = _Newvec + _Whereoff;

  0014c	8b 45 60	 mov	 eax, DWORD PTR __Whereoff$[ebp]
  0014f	8b 4d 6c	 mov	 ecx, DWORD PTR __Newvec$[ebp]
  00152	8d 04 81	 lea	 eax, DWORD PTR [ecx+eax*4]
  00155	89 45 48	 mov	 DWORD PTR __Constructed_first$[ebp], eax

; 751  : 
; 752  :         if (_Whereptr == _Mylast) { // at back, provide strong guarantee

  00158	8b 45 58	 mov	 eax, DWORD PTR __Mylast$[ebp]
  0015b	8b 4d 78	 mov	 ecx, DWORD PTR __Whereptr$[ebp]
  0015e	3b 08		 cmp	 ecx, DWORD PTR [eax]
  00160	75 3d		 jne	 SHORT $LN4@Emplace_re

; 753  :             _Umove_if_noexcept(_Myfirst, _Mylast, _Newvec);

  00162	8b 45 58	 mov	 eax, DWORD PTR __Mylast$[ebp]
  00165	8b 00		 mov	 eax, DWORD PTR [eax]
  00167	89 45 e4	 mov	 DWORD PTR __Last$[ebp], eax
  0016a	8b 45 5c	 mov	 eax, DWORD PTR __Myfirst$[ebp]
  0016d	8b 00		 mov	 eax, DWORD PTR [eax]
  0016f	89 45 e0	 mov	 DWORD PTR __First$[ebp], eax

; 1607 :         _Umove_if_noexcept1(_First, _Last, _Dest,

  00172	33 c0		 xor	 eax, eax
  00174	88 45 67	 mov	 BYTE PTR $T24[ebp], al
  00177	8a 45 67	 mov	 al, BYTE PTR $T24[ebp]
  0017a	88 45 4c	 mov	 BYTE PTR ___formal$[ebp], al

; 1733 :         return _Mypair._Get_first();

  0017d	8b 45 68	 mov	 eax, DWORD PTR _this$[ebp]
; File C:\Program Files (x86)\Microsoft Visual Studio\2019\Community\VC\Tools\MSVC\14.28.29333\include\xmemory

; 1347 :         return *this;

  00180	89 45 ec	 mov	 DWORD PTR $T9[ebp], eax
; File C:\Program Files (x86)\Microsoft Visual Studio\2019\Community\VC\Tools\MSVC\14.28.29333\include\vector

; 1733 :         return _Mypair._Get_first();

  00183	8b 45 ec	 mov	 eax, DWORD PTR $T9[ebp]
  00186	89 45 e8	 mov	 DWORD PTR $T8[ebp], eax

; 1597 :         _Uninitialized_move(_First, _Last, _Dest, _Getal());

  00189	ff 75 e8	 push	 DWORD PTR $T8[ebp]
  0018c	ff 75 6c	 push	 DWORD PTR __Newvec$[ebp]
  0018f	ff 75 e4	 push	 DWORD PTR __Last$[ebp]
  00192	ff 75 e0	 push	 DWORD PTR __First$[ebp]
  00195	e8 00 00 00 00	 call	 ??$_Uninitialized_move@PAPAVCGraphicObjectInstance@@V?$allocator@PAVCGraphicObjectInstance@@@std@@@std@@YAPAPAVCGraphicObjectInstance@@QAPAV1@0PAPAV1@AAV?$allocator@PAVCGraphicObjectInstance@@@0@@Z ; std::_Uninitialized_move<CGraphicObjectInstance * *,std::allocator<CGraphicObjectInstance *> >
  0019a	83 c4 10	 add	 esp, 16			; 00000010H

; 754  :         } else { // provide basic guarantee

  0019d	eb 5e		 jmp	 SHORT $LN5@Emplace_re
$LN4@Emplace_re:

; 755  :             _Umove(_Myfirst, _Whereptr, _Newvec);

  0019f	8b 45 5c	 mov	 eax, DWORD PTR __Myfirst$[ebp]
  001a2	8b 00		 mov	 eax, DWORD PTR [eax]
  001a4	89 45 d4	 mov	 DWORD PTR __First$[ebp], eax

; 1733 :         return _Mypair._Get_first();

  001a7	8b 45 68	 mov	 eax, DWORD PTR _this$[ebp]
; File C:\Program Files (x86)\Microsoft Visual Studio\2019\Community\VC\Tools\MSVC\14.28.29333\include\xmemory

; 1347 :         return *this;

  001aa	89 45 dc	 mov	 DWORD PTR $T7[ebp], eax
; File C:\Program Files (x86)\Microsoft Visual Studio\2019\Community\VC\Tools\MSVC\14.28.29333\include\vector

; 1733 :         return _Mypair._Get_first();

  001ad	8b 45 dc	 mov	 eax, DWORD PTR $T7[ebp]
  001b0	89 45 d8	 mov	 DWORD PTR $T6[ebp], eax

; 1592 :         return _Uninitialized_move(_First, _Last, _Dest, _Getal());

  001b3	ff 75 d8	 push	 DWORD PTR $T6[ebp]
  001b6	ff 75 6c	 push	 DWORD PTR __Newvec$[ebp]
  001b9	ff 75 78	 push	 DWORD PTR __Whereptr$[ebp]
  001bc	ff 75 d4	 push	 DWORD PTR __First$[ebp]
  001bf	e8 00 00 00 00	 call	 ??$_Uninitialized_move@PAPAVCGraphicObjectInstance@@V?$allocator@PAVCGraphicObjectInstance@@@std@@@std@@YAPAPAVCGraphicObjectInstance@@QAPAV1@0PAPAV1@AAV?$allocator@PAVCGraphicObjectInstance@@@0@@Z ; std::_Uninitialized_move<CGraphicObjectInstance * *,std::allocator<CGraphicObjectInstance *> >
  001c4	83 c4 10	 add	 esp, 16			; 00000010H

; 756  :             _Constructed_first = _Newvec;

  001c7	8b 45 6c	 mov	 eax, DWORD PTR __Newvec$[ebp]
  001ca	89 45 48	 mov	 DWORD PTR __Constructed_first$[ebp], eax

; 757  :             _Umove(_Whereptr, _Mylast, _Newvec + _Whereoff + 1);

  001cd	8b 45 58	 mov	 eax, DWORD PTR __Mylast$[ebp]
  001d0	8b 00		 mov	 eax, DWORD PTR [eax]
  001d2	89 45 c8	 mov	 DWORD PTR __Last$[ebp], eax

; 1733 :         return _Mypair._Get_first();

  001d5	8b 45 68	 mov	 eax, DWORD PTR _this$[ebp]
; File C:\Program Files (x86)\Microsoft Visual Studio\2019\Community\VC\Tools\MSVC\14.28.29333\include\xmemory

; 1347 :         return *this;

  001d8	89 45 d0	 mov	 DWORD PTR $T5[ebp], eax
; File C:\Program Files (x86)\Microsoft Visual Studio\2019\Community\VC\Tools\MSVC\14.28.29333\include\vector

; 1733 :         return _Mypair._Get_first();

  001db	8b 45 d0	 mov	 eax, DWORD PTR $T5[ebp]
  001de	89 45 cc	 mov	 DWORD PTR $T4[ebp], eax

; 1592 :         return _Uninitialized_move(_First, _Last, _Dest, _Getal());

  001e1	ff 75 cc	 push	 DWORD PTR $T4[ebp]

; 757  :             _Umove(_Whereptr, _Mylast, _Newvec + _Whereoff + 1);

  001e4	8b 45 60	 mov	 eax, DWORD PTR __Whereoff$[ebp]
  001e7	8b 4d 6c	 mov	 ecx, DWORD PTR __Newvec$[ebp]
  001ea	8d 44 81 04	 lea	 eax, DWORD PTR [ecx+eax*4+4]

; 1592 :         return _Uninitialized_move(_First, _Last, _Dest, _Getal());

  001ee	50		 push	 eax
  001ef	ff 75 c8	 push	 DWORD PTR __Last$[ebp]
  001f2	ff 75 78	 push	 DWORD PTR __Whereptr$[ebp]
  001f5	e8 00 00 00 00	 call	 ??$_Uninitialized_move@PAPAVCGraphicObjectInstance@@V?$allocator@PAVCGraphicObjectInstance@@@std@@@std@@YAPAPAVCGraphicObjectInstance@@QAPAV1@0PAPAV1@AAV?$allocator@PAVCGraphicObjectInstance@@@0@@Z ; std::_Uninitialized_move<CGraphicObjectInstance * *,std::allocator<CGraphicObjectInstance *> >
  001fa	83 c4 10	 add	 esp, 16			; 00000010H
$LN5@Emplace_re:

; 757  :             _Umove(_Whereptr, _Mylast, _Newvec + _Whereoff + 1);

  001fd	eb 2b		 jmp	 SHORT $LN7@Emplace_re
__catch$??$_Emplace_reallocate@PAVCGraphicObjectInstance@@@?$vector@PAVCGraphicObjectInstance@@V?$allocator@PAVCGraphicObjectInstance@@@std@@@std@@QAEPAPAVCGraphicObjectInstance@@QAPAV2@$$QAPAV2@@Z$0:

; 758  :         }
; 759  :         _CATCH_ALL
; 760  :         _Destroy(_Constructed_first, _Constructed_last);

  001ff	ff 75 30	 push	 DWORD PTR __Constructed_last$[ebp]
  00202	ff 75 48	 push	 DWORD PTR __Constructed_first$[ebp]
  00205	8b 4d 68	 mov	 ecx, DWORD PTR _this$[ebp]
  00208	e8 00 00 00 00	 call	 ?_Destroy@?$vector@PAVCGraphicObjectInstance@@V?$allocator@PAVCGraphicObjectInstance@@@std@@@std@@AAEXPAPAVCGraphicObjectInstance@@0@Z ; std::vector<CGraphicObjectInstance *,std::allocator<CGraphicObjectInstance *> >::_Destroy

; 761  :         _Al.deallocate(_Newvec, _Newcapacity);

  0020d	ff 75 54	 push	 DWORD PTR __Newcapacity$[ebp]
  00210	ff 75 6c	 push	 DWORD PTR __Newvec$[ebp]
  00213	8b 4d c4	 mov	 ecx, DWORD PTR __Al$[ebp]
  00216	e8 00 00 00 00	 call	 ?deallocate@?$allocator@PAVCGraphicObjectInstance@@@std@@QAEXQAPAVCGraphicObjectInstance@@I@Z ; std::allocator<CGraphicObjectInstance *>::deallocate

; 762  :         _RERAISE;

  0021b	6a 00		 push	 0
  0021d	6a 00		 push	 0
  0021f	e8 00 00 00 00	 call	 __CxxThrowException@8

; 763  :         _CATCH_END

  00224	b8 00 00 00 00	 mov	 eax, $LN10@Emplace_re
  00229	c3		 ret	 0
$LN7@Emplace_re:
  0022a	83 4d fc ff	 or	 DWORD PTR __$EHRec$[ebp+12], -1
  0022e	eb 04		 jmp	 SHORT __tryend$??$_Emplace_reallocate@PAVCGraphicObjectInstance@@@?$vector@PAVCGraphicObjectInstance@@V?$allocator@PAVCGraphicObjectInstance@@@std@@@std@@QAEPAPAVCGraphicObjectInstance@@QAPAV2@$$QAPAV2@@Z$1
$LN10@Emplace_re:
; File C:\Program Files (x86)\Microsoft Visual Studio\2019\Community\VC\Tools\MSVC\14.28.29333\include\xmemory
  00230	83 4d fc ff	 or	 DWORD PTR __$EHRec$[ebp+12], -1
__tryend$??$_Emplace_reallocate@PAVCGraphicObjectInstance@@@?$vector@PAVCGraphicObjectInstance@@V?$allocator@PAVCGraphicObjectInstance@@@std@@@std@@QAEPAPAVCGraphicObjectInstance@@QAPAV2@$$QAPAV2@@Z$1:
; File C:\Program Files (x86)\Microsoft Visual Studio\2019\Community\VC\Tools\MSVC\14.28.29333\include\vector

; 764  : 
; 765  :         _Change_array(_Newvec, _Newsize, _Newcapacity);

  00234	ff 75 54	 push	 DWORD PTR __Newcapacity$[ebp]
  00237	ff 75 2c	 push	 DWORD PTR __Newsize$[ebp]
  0023a	ff 75 6c	 push	 DWORD PTR __Newvec$[ebp]
  0023d	8b 4d 68	 mov	 ecx, DWORD PTR _this$[ebp]
  00240	e8 00 00 00 00	 call	 ?_Change_array@?$vector@PAVCGraphicObjectInstance@@V?$allocator@PAVCGraphicObjectInstance@@@std@@@std@@AAEXQAPAVCGraphicObjectInstance@@II@Z ; std::vector<CGraphicObjectInstance *,std::allocator<CGraphicObjectInstance *> >::_Change_array

; 766  :         return _Newvec + _Whereoff;

  00245	8b 45 60	 mov	 eax, DWORD PTR __Whereoff$[ebp]
  00248	8b 4d 6c	 mov	 ecx, DWORD PTR __Newvec$[ebp]
  0024b	8d 04 81	 lea	 eax, DWORD PTR [ecx+eax*4]
$LN70@Emplace_re:

; 767  :     }

  0024e	8b 4d f4	 mov	 ecx, DWORD PTR __$EHRec$[ebp+4]
  00251	64 89 0d 00 00
	00 00		 mov	 DWORD PTR fs:0, ecx
  00258	59		 pop	 ecx
  00259	5f		 pop	 edi
  0025a	5e		 pop	 esi
  0025b	5b		 pop	 ebx
  0025c	83 c5 70	 add	 ebp, 112		; 00000070H
  0025f	c9		 leave
  00260	c2 08 00	 ret	 8
  00263	cc		 int	 3
  00264	cc		 int	 3
  00265	cc		 int	 3
  00266	cc		 int	 3
  00267	cc		 int	 3
_TEXT	ENDS
;	COMDAT text$x
text$x	SEGMENT
__ehhandler$??$_Emplace_reallocate@PAVCGraphicObjectInstance@@@?$vector@PAVCGraphicObjectInstance@@V?$allocator@PAVCGraphicObjectInstance@@@std@@@std@@QAEPAPAVCGraphicObjectInstance@@QAPAV2@$$QAPAV2@@Z:
  00000	90		 npad	 1
  00001	90		 npad	 1
  00002	8b 54 24 08	 mov	 edx, DWORD PTR [esp+8]
  00006	8d 42 0c	 lea	 eax, DWORD PTR [edx+12]
  00009	8b 4a b8	 mov	 ecx, DWORD PTR [edx-72]
  0000c	33 c8		 xor	 ecx, eax
  0000e	e8 00 00 00 00	 call	 @__security_check_cookie@4
  00013	b8 00 00 00 00	 mov	 eax, OFFSET __ehfuncinfo$??$_Emplace_reallocate@PAVCGraphicObjectInstance@@@?$vector@PAVCGraphicObjectInstance@@V?$allocator@PAVCGraphicObjectInstance@@@std@@@std@@QAEPAPAVCGraphicObjectInstance@@QAPAV2@$$QAPAV2@@Z
  00018	e9 00 00 00 00	 jmp	 ___CxxFrameHandler3
text$x	ENDS
??$_Emplace_reallocate@PAVCGraphicObjectInstance@@@?$vector@PAVCGraphicObjectInstance@@V?$allocator@PAVCGraphicObjectInstance@@@std@@@std@@QAEPAPAVCGraphicObjectInstance@@QAPAV2@$$QAPAV2@@Z ENDP ; std::vector<CGraphicObjectInstance *,std::allocator<CGraphicObjectInstance *> >::_Emplace_reallocate<CGraphicObjectInstance *>
; Function compile flags: /Odspy
; File C:\Program Files (x86)\Microsoft Visual Studio\2019\Community\VC\Tools\MSVC\14.28.29333\include\vector
; File C:\Program Files (x86)\Microsoft Visual Studio\2019\Community\VC\Tools\MSVC\14.28.29333\include\type_traits
; File C:\Program Files (x86)\Microsoft Visual Studio\2019\Community\VC\Tools\MSVC\14.28.29333\include\vector
; File C:\Program Files (x86)\Microsoft Visual Studio\2019\Community\VC\Tools\MSVC\14.28.29333\include\xstddef
; File C:\Program Files (x86)\Microsoft Visual Studio\2019\Community\VC\Tools\MSVC\14.28.29333\include\vector
; File C:\Program Files (x86)\Microsoft Visual Studio\2019\Community\VC\Tools\MSVC\14.28.29333\include\xmemory
; File C:\Program Files (x86)\Microsoft Visual Studio\2019\Community\VC\Tools\MSVC\14.28.29333\include\vector
; File C:\Program Files (x86)\Microsoft Visual Studio\2019\Community\VC\Tools\MSVC\14.28.29333\include\vcruntime_new.h
; File C:\Program Files (x86)\Microsoft Visual Studio\2019\Community\VC\Tools\MSVC\14.28.29333\include\type_traits
; File C:\Program Files (x86)\Microsoft Visual Studio\2019\Community\VC\Tools\MSVC\14.28.29333\include\xmemory
; File C:\Program Files (x86)\Microsoft Visual Studio\2019\Community\VC\Tools\MSVC\14.28.29333\include\vector
;	COMDAT ??$_Emplace_back_with_unused_capacity@PAVCGraphicObjectInstance@@@?$vector@PAVCGraphicObjectInstance@@V?$allocator@PAVCGraphicObjectInstance@@@std@@@std@@AAEX$$QAPAVCGraphicObjectInstance@@@Z
_TEXT	SEGMENT
__Result$ = -44						; size = 4
$T1 = -40						; size = 4
$T2 = -36						; size = 4
$T3 = -32						; size = 4
$T4 = -28						; size = 4
$T5 = -24						; size = 4
$T6 = -20						; size = 4
__Ptr$ = -16						; size = 4
__My_data$ = -12					; size = 4
_this$ = -8						; size = 4
__Mylast$ = -4						; size = 4
_<_Val_0>$ = 8						; size = 4
??$_Emplace_back_with_unused_capacity@PAVCGraphicObjectInstance@@@?$vector@PAVCGraphicObjectInstance@@V?$allocator@PAVCGraphicObjectInstance@@@std@@@std@@AAEX$$QAPAVCGraphicObjectInstance@@@Z PROC ; std::vector<CGraphicObjectInstance *,std::allocator<CGraphicObjectInstance *> >::_Emplace_back_with_unused_capacity<CGraphicObjectInstance *>, COMDAT
; _this$ = ecx

; 682  :     decltype(auto) _Emplace_back_with_unused_capacity(_Valty&&... _Val) {

  00000	55		 push	 ebp
  00001	8b ec		 mov	 ebp, esp
  00003	83 ec 2c	 sub	 esp, 44			; 0000002cH
  00006	89 4d f8	 mov	 DWORD PTR _this$[ebp], ecx

; 683  :         // insert by perfectly forwarding into element at end, provide strong guarantee
; 684  :         auto& _My_data   = _Mypair._Myval2;

  00009	8b 45 f8	 mov	 eax, DWORD PTR _this$[ebp]
  0000c	89 45 f4	 mov	 DWORD PTR __My_data$[ebp], eax

; 685  :         pointer& _Mylast = _My_data._Mylast;

  0000f	8b 45 f4	 mov	 eax, DWORD PTR __My_data$[ebp]
  00012	83 c0 04	 add	 eax, 4
  00015	89 45 fc	 mov	 DWORD PTR __Mylast$[ebp], eax
; File C:\Program Files (x86)\Microsoft Visual Studio\2019\Community\VC\Tools\MSVC\14.28.29333\include\type_traits

; 1443 :     return static_cast<_Ty&&>(_Arg);

  00018	8b 45 08	 mov	 eax, DWORD PTR _<_Val_0>$[ebp]
  0001b	89 45 e4	 mov	 DWORD PTR $T4[ebp], eax
; File C:\Program Files (x86)\Microsoft Visual Studio\2019\Community\VC\Tools\MSVC\14.28.29333\include\vector

; 687  :         _Alty_traits::construct(_Getal(), _Unfancy(_Mylast), _STD forward<_Valty>(_Val)...);

  0001e	8b 45 fc	 mov	 eax, DWORD PTR __Mylast$[ebp]
  00021	8b 00		 mov	 eax, DWORD PTR [eax]
  00023	89 45 f0	 mov	 DWORD PTR __Ptr$[ebp], eax
; File C:\Program Files (x86)\Microsoft Visual Studio\2019\Community\VC\Tools\MSVC\14.28.29333\include\xstddef

; 289  :     return _Ptr;

  00026	8b 45 f0	 mov	 eax, DWORD PTR __Ptr$[ebp]
  00029	89 45 e8	 mov	 DWORD PTR $T5[ebp], eax
; File C:\Program Files (x86)\Microsoft Visual Studio\2019\Community\VC\Tools\MSVC\14.28.29333\include\vector

; 1733 :         return _Mypair._Get_first();

  0002c	8b 45 f8	 mov	 eax, DWORD PTR _this$[ebp]
; File C:\Program Files (x86)\Microsoft Visual Studio\2019\Community\VC\Tools\MSVC\14.28.29333\include\xmemory

; 1347 :         return *this;

  0002f	89 45 ec	 mov	 DWORD PTR $T6[ebp], eax
; File C:\Program Files (x86)\Microsoft Visual Studio\2019\Community\VC\Tools\MSVC\14.28.29333\include\vector

; 1733 :         return _Mypair._Get_first();

  00032	8b 45 ec	 mov	 eax, DWORD PTR $T6[ebp]
  00035	89 45 d8	 mov	 DWORD PTR $T1[ebp], eax
; File C:\Program Files (x86)\Microsoft Visual Studio\2019\Community\VC\Tools\MSVC\14.28.29333\include\vcruntime_new.h

; 169  :         return _Where;

  00038	8b 45 e8	 mov	 eax, DWORD PTR $T5[ebp]
  0003b	89 45 e0	 mov	 DWORD PTR $T3[ebp], eax
; File C:\Program Files (x86)\Microsoft Visual Studio\2019\Community\VC\Tools\MSVC\14.28.29333\include\type_traits

; 1443 :     return static_cast<_Ty&&>(_Arg);

  0003e	8b 45 e4	 mov	 eax, DWORD PTR $T4[ebp]
  00041	89 45 dc	 mov	 DWORD PTR $T2[ebp], eax
; File C:\Program Files (x86)\Microsoft Visual Studio\2019\Community\VC\Tools\MSVC\14.28.29333\include\xmemory

; 701  :         ::new (const_cast<void*>(static_cast<const volatile void*>(_Ptr))) _Objty(_STD forward<_Types>(_Args)...);

  00044	8b 45 e0	 mov	 eax, DWORD PTR $T3[ebp]
  00047	8b 4d dc	 mov	 ecx, DWORD PTR $T2[ebp]
  0004a	8b 09		 mov	 ecx, DWORD PTR [ecx]
  0004c	89 08		 mov	 DWORD PTR [eax], ecx
; File C:\Program Files (x86)\Microsoft Visual Studio\2019\Community\VC\Tools\MSVC\14.28.29333\include\vector

; 689  :         _Ty& _Result = *_Mylast;

  0004e	8b 45 fc	 mov	 eax, DWORD PTR __Mylast$[ebp]
  00051	8b 00		 mov	 eax, DWORD PTR [eax]
  00053	89 45 d4	 mov	 DWORD PTR __Result$[ebp], eax

; 690  :         ++_Mylast;

  00056	8b 45 fc	 mov	 eax, DWORD PTR __Mylast$[ebp]
  00059	8b 00		 mov	 eax, DWORD PTR [eax]
  0005b	83 c0 04	 add	 eax, 4
  0005e	8b 4d fc	 mov	 ecx, DWORD PTR __Mylast$[ebp]
  00061	89 01		 mov	 DWORD PTR [ecx], eax

; 691  : #if _HAS_CXX17
; 692  :         return _Result;
; 693  : #else // ^^^ _HAS_CXX17 ^^^ // vvv !_HAS_CXX17 vvv
; 694  :         (void) _Result;
; 695  : #endif // _HAS_CXX17
; 696  :     }

  00063	c9		 leave
  00064	c2 04 00	 ret	 4
??$_Emplace_back_with_unused_capacity@PAVCGraphicObjectInstance@@@?$vector@PAVCGraphicObjectInstance@@V?$allocator@PAVCGraphicObjectInstance@@@std@@@std@@AAEX$$QAPAVCGraphicObjectInstance@@@Z ENDP ; std::vector<CGraphicObjectInstance *,std::allocator<CGraphicObjectInstance *> >::_Emplace_back_with_unused_capacity<CGraphicObjectInstance *>
_TEXT	ENDS
; Function compile flags: /Odspy
; File C:\Program Files (x86)\Microsoft Visual Studio\2019\Community\VC\Tools\MSVC\14.28.29333\include\vector
; File C:\Program Files (x86)\Microsoft Visual Studio\2019\Community\VC\Tools\MSVC\14.28.29333\include\type_traits
; File C:\Program Files (x86)\Microsoft Visual Studio\2019\Community\VC\Tools\MSVC\14.28.29333\include\vector
; File C:\Program Files (x86)\Microsoft Visual Studio\2019\Community\VC\Tools\MSVC\14.28.29333\include\type_traits
; File C:\Program Files (x86)\Microsoft Visual Studio\2019\Community\VC\Tools\MSVC\14.28.29333\include\vector
;	COMDAT ??$emplace_back@PAVCGraphicObjectInstance@@@?$vector@PAVCGraphicObjectInstance@@V?$allocator@PAVCGraphicObjectInstance@@@std@@@std@@QAEX$$QAPAVCGraphicObjectInstance@@@Z
_TEXT	SEGMENT
__Result$ = -24						; size = 4
$T1 = -20						; size = 4
$T2 = -16						; size = 4
__Mylast$ = -12						; size = 4
__My_data$ = -8						; size = 4
_this$ = -4						; size = 4
_<_Val_0>$ = 8						; size = 4
??$emplace_back@PAVCGraphicObjectInstance@@@?$vector@PAVCGraphicObjectInstance@@V?$allocator@PAVCGraphicObjectInstance@@@std@@@std@@QAEX$$QAPAVCGraphicObjectInstance@@@Z PROC ; std::vector<CGraphicObjectInstance *,std::allocator<CGraphicObjectInstance *> >::emplace_back<CGraphicObjectInstance *>, COMDAT
; _this$ = ecx

; 700  :     decltype(auto) emplace_back(_Valty&&... _Val) {

  00000	55		 push	 ebp
  00001	8b ec		 mov	 ebp, esp
  00003	83 ec 18	 sub	 esp, 24			; 00000018H
  00006	89 4d fc	 mov	 DWORD PTR _this$[ebp], ecx

; 701  :         // insert by perfectly forwarding into element at end, provide strong guarantee
; 702  :         auto& _My_data   = _Mypair._Myval2;

  00009	8b 45 fc	 mov	 eax, DWORD PTR _this$[ebp]
  0000c	89 45 f8	 mov	 DWORD PTR __My_data$[ebp], eax

; 703  :         pointer& _Mylast = _My_data._Mylast;

  0000f	8b 45 f8	 mov	 eax, DWORD PTR __My_data$[ebp]
  00012	83 c0 04	 add	 eax, 4
  00015	89 45 f4	 mov	 DWORD PTR __Mylast$[ebp], eax

; 704  :         if (_Mylast != _My_data._Myend) {

  00018	8b 45 f4	 mov	 eax, DWORD PTR __Mylast$[ebp]
  0001b	8b 4d f8	 mov	 ecx, DWORD PTR __My_data$[ebp]
  0001e	8b 00		 mov	 eax, DWORD PTR [eax]
  00020	3b 41 08	 cmp	 eax, DWORD PTR [ecx+8]
  00023	74 13		 je	 SHORT $LN2@emplace_ba
; File C:\Program Files (x86)\Microsoft Visual Studio\2019\Community\VC\Tools\MSVC\14.28.29333\include\type_traits

; 1443 :     return static_cast<_Ty&&>(_Arg);

  00025	8b 45 08	 mov	 eax, DWORD PTR _<_Val_0>$[ebp]
  00028	89 45 f0	 mov	 DWORD PTR $T2[ebp], eax
; File C:\Program Files (x86)\Microsoft Visual Studio\2019\Community\VC\Tools\MSVC\14.28.29333\include\vector

; 705  :             return _Emplace_back_with_unused_capacity(_STD forward<_Valty>(_Val)...);

  0002b	ff 75 f0	 push	 DWORD PTR $T2[ebp]
  0002e	8b 4d fc	 mov	 ecx, DWORD PTR _this$[ebp]
  00031	e8 00 00 00 00	 call	 ??$_Emplace_back_with_unused_capacity@PAVCGraphicObjectInstance@@@?$vector@PAVCGraphicObjectInstance@@V?$allocator@PAVCGraphicObjectInstance@@@std@@@std@@AAEX$$QAPAVCGraphicObjectInstance@@@Z ; std::vector<CGraphicObjectInstance *,std::allocator<CGraphicObjectInstance *> >::_Emplace_back_with_unused_capacity<CGraphicObjectInstance *>
  00036	eb 19		 jmp	 SHORT $LN1@emplace_ba
$LN2@emplace_ba:
; File C:\Program Files (x86)\Microsoft Visual Studio\2019\Community\VC\Tools\MSVC\14.28.29333\include\type_traits

; 1443 :     return static_cast<_Ty&&>(_Arg);

  00038	8b 45 08	 mov	 eax, DWORD PTR _<_Val_0>$[ebp]
  0003b	89 45 ec	 mov	 DWORD PTR $T1[ebp], eax
; File C:\Program Files (x86)\Microsoft Visual Studio\2019\Community\VC\Tools\MSVC\14.28.29333\include\vector

; 708  :         _Ty& _Result = *_Emplace_reallocate(_Mylast, _STD forward<_Valty>(_Val)...);

  0003e	ff 75 ec	 push	 DWORD PTR $T1[ebp]
  00041	8b 45 f4	 mov	 eax, DWORD PTR __Mylast$[ebp]
  00044	ff 30		 push	 DWORD PTR [eax]
  00046	8b 4d fc	 mov	 ecx, DWORD PTR _this$[ebp]
  00049	e8 00 00 00 00	 call	 ??$_Emplace_reallocate@PAVCGraphicObjectInstance@@@?$vector@PAVCGraphicObjectInstance@@V?$allocator@PAVCGraphicObjectInstance@@@std@@@std@@QAEPAPAVCGraphicObjectInstance@@QAPAV2@$$QAPAV2@@Z ; std::vector<CGraphicObjectInstance *,std::allocator<CGraphicObjectInstance *> >::_Emplace_reallocate<CGraphicObjectInstance *>
  0004e	89 45 e8	 mov	 DWORD PTR __Result$[ebp], eax
$LN1@emplace_ba:

; 709  : #if _HAS_CXX17
; 710  :         return _Result;
; 711  : #else // ^^^ _HAS_CXX17 ^^^ // vvv !_HAS_CXX17 vvv
; 712  :         (void) _Result;
; 713  : #endif // _HAS_CXX17
; 714  :     }

  00051	c9		 leave
  00052	c2 04 00	 ret	 4
??$emplace_back@PAVCGraphicObjectInstance@@@?$vector@PAVCGraphicObjectInstance@@V?$allocator@PAVCGraphicObjectInstance@@@std@@@std@@QAEX$$QAPAVCGraphicObjectInstance@@@Z ENDP ; std::vector<CGraphicObjectInstance *,std::allocator<CGraphicObjectInstance *> >::emplace_back<CGraphicObjectInstance *>
_TEXT	ENDS
; Function compile flags: /Odspy
;	COMDAT ??_GCCullingManager@@UAEPAXI@Z
_TEXT	SEGMENT
_this$ = -4						; size = 4
___flags$ = 8						; size = 4
??_GCCullingManager@@UAEPAXI@Z PROC			; CCullingManager::`scalar deleting destructor', COMDAT
; _this$ = ecx
  00000	55		 push	 ebp
  00001	8b ec		 mov	 ebp, esp
  00003	51		 push	 ecx
  00004	89 4d fc	 mov	 DWORD PTR _this$[ebp], ecx
  00007	8b 4d fc	 mov	 ecx, DWORD PTR _this$[ebp]
  0000a	e8 00 00 00 00	 call	 ??1CCullingManager@@UAE@XZ ; CCullingManager::~CCullingManager
  0000f	8b 45 08	 mov	 eax, DWORD PTR ___flags$[ebp]
  00012	83 e0 01	 and	 eax, 1
  00015	74 0c		 je	 SHORT $LN2@scalar
  00017	6a 20		 push	 32			; 00000020H
  00019	ff 75 fc	 push	 DWORD PTR _this$[ebp]
  0001c	e8 00 00 00 00	 call	 ??3@YAXPAXI@Z		; operator delete
  00021	59		 pop	 ecx
  00022	59		 pop	 ecx
$LN2@scalar:
  00023	8b 45 fc	 mov	 eax, DWORD PTR _this$[ebp]
  00026	c9		 leave
  00027	c2 04 00	 ret	 4
??_GCCullingManager@@UAEPAXI@Z ENDP			; CCullingManager::`scalar deleting destructor'
_TEXT	ENDS
; Function compile flags: /Odspy
; File C:\Program Files (x86)\Microsoft Visual Studio\2019\Community\VC\Tools\MSVC\14.28.29333\include\vector
;	COMDAT ?_Xlength@?$vector@PAVCGraphicObjectInstance@@V?$allocator@PAVCGraphicObjectInstance@@@std@@@std@@CAXXZ
_TEXT	SEGMENT
?_Xlength@?$vector@PAVCGraphicObjectInstance@@V?$allocator@PAVCGraphicObjectInstance@@@std@@@std@@CAXXZ PROC ; std::vector<CGraphicObjectInstance *,std::allocator<CGraphicObjectInstance *> >::_Xlength, COMDAT

; 1704 :     [[noreturn]] static void _Xlength() {

  00000	55		 push	 ebp
  00001	8b ec		 mov	 ebp, esp

; 1705 :         _Xlength_error("vector too long");

  00003	68 00 00 00 00	 push	 OFFSET ??_C@_0BA@FOIKENOD@vector?5too?5long@
  00008	e8 00 00 00 00	 call	 ?_Xlength_error@std@@YAXPBD@Z ; std::_Xlength_error
$LN2@Xlength:

; 1706 :     }

  0000d	5d		 pop	 ebp
  0000e	c3		 ret	 0
?_Xlength@?$vector@PAVCGraphicObjectInstance@@V?$allocator@PAVCGraphicObjectInstance@@@std@@@std@@CAXXZ ENDP ; std::vector<CGraphicObjectInstance *,std::allocator<CGraphicObjectInstance *> >::_Xlength
_TEXT	ENDS
; Function compile flags: /Odspy
; File C:\Program Files (x86)\Microsoft Visual Studio\2019\Community\VC\Tools\MSVC\14.28.29333\include\vector
; File C:\Program Files (x86)\Microsoft Visual Studio\2019\Community\VC\Tools\MSVC\14.28.29333\include\xmemory
; File C:\Program Files (x86)\Microsoft Visual Studio\2019\Community\VC\Tools\MSVC\14.28.29333\include\vector
; File C:\Program Files (x86)\Microsoft Visual Studio\2019\Community\VC\Tools\MSVC\14.28.29333\include\xmemory
; File C:\Program Files (x86)\Microsoft Visual Studio\2019\Community\VC\Tools\MSVC\14.28.29333\include\vector
; File C:\Program Files (x86)\Microsoft Visual Studio\2019\Community\VC\Tools\MSVC\14.28.29333\include\xmemory
; File C:\Program Files (x86)\Microsoft Visual Studio\2019\Community\VC\Tools\MSVC\14.28.29333\include\vector
;	COMDAT ?_Tidy@?$vector@PAVCGraphicObjectInstance@@V?$allocator@PAVCGraphicObjectInstance@@@std@@@std@@AAEXXZ
_TEXT	SEGMENT
$T1 = -52						; size = 4
__Ptr$ = -48						; size = 4
__Count$ = -44						; size = 4
$T2 = -40						; size = 4
__First$ = -36						; size = 4
__Last$ = -32						; size = 4
$T3 = -28						; size = 4
$T4 = -24						; size = 4
__Myend$ = -20						; size = 4
__Mylast$ = -16						; size = 4
_this$ = -12						; size = 4
__My_data$ = -8						; size = 4
__Myfirst$ = -4						; size = 4
?_Tidy@?$vector@PAVCGraphicObjectInstance@@V?$allocator@PAVCGraphicObjectInstance@@@std@@@std@@AAEXXZ PROC ; std::vector<CGraphicObjectInstance *,std::allocator<CGraphicObjectInstance *> >::_Tidy, COMDAT
; _this$ = ecx

; 1686 :     void _Tidy() noexcept { // free all storage

  00000	55		 push	 ebp
  00001	8b ec		 mov	 ebp, esp
  00003	83 ec 34	 sub	 esp, 52			; 00000034H
  00006	89 4d f4	 mov	 DWORD PTR _this$[ebp], ecx

; 1687 :         auto& _My_data    = _Mypair._Myval2;

  00009	8b 45 f4	 mov	 eax, DWORD PTR _this$[ebp]
  0000c	89 45 f8	 mov	 DWORD PTR __My_data$[ebp], eax

; 1688 :         pointer& _Myfirst = _My_data._Myfirst;

  0000f	8b 45 f8	 mov	 eax, DWORD PTR __My_data$[ebp]
  00012	89 45 fc	 mov	 DWORD PTR __Myfirst$[ebp], eax

; 1689 :         pointer& _Mylast  = _My_data._Mylast;

  00015	8b 45 f8	 mov	 eax, DWORD PTR __My_data$[ebp]
  00018	83 c0 04	 add	 eax, 4
  0001b	89 45 f0	 mov	 DWORD PTR __Mylast$[ebp], eax

; 1690 :         pointer& _Myend   = _My_data._Myend;

  0001e	8b 45 f8	 mov	 eax, DWORD PTR __My_data$[ebp]
  00021	83 c0 08	 add	 eax, 8
  00024	89 45 ec	 mov	 DWORD PTR __Myend$[ebp], eax

; 1691 : 
; 1692 :         _My_data._Orphan_all();
; 1693 : 
; 1694 :         if (_Myfirst) { // destroy and deallocate old array

  00027	8b 45 fc	 mov	 eax, DWORD PTR __Myfirst$[ebp]
  0002a	83 38 00	 cmp	 DWORD PTR [eax], 0
  0002d	74 74		 je	 SHORT $LN3@Tidy

; 1695 :             _Destroy(_Myfirst, _Mylast);

  0002f	8b 45 f0	 mov	 eax, DWORD PTR __Mylast$[ebp]
  00032	8b 00		 mov	 eax, DWORD PTR [eax]
  00034	89 45 e0	 mov	 DWORD PTR __Last$[ebp], eax
  00037	8b 45 fc	 mov	 eax, DWORD PTR __Myfirst$[ebp]
  0003a	8b 00		 mov	 eax, DWORD PTR [eax]
  0003c	89 45 dc	 mov	 DWORD PTR __First$[ebp], eax

; 1733 :         return _Mypair._Get_first();

  0003f	8b 45 f4	 mov	 eax, DWORD PTR _this$[ebp]
; File C:\Program Files (x86)\Microsoft Visual Studio\2019\Community\VC\Tools\MSVC\14.28.29333\include\xmemory

; 1347 :         return *this;

  00042	89 45 e8	 mov	 DWORD PTR $T4[ebp], eax
; File C:\Program Files (x86)\Microsoft Visual Studio\2019\Community\VC\Tools\MSVC\14.28.29333\include\vector

; 1733 :         return _Mypair._Get_first();

  00045	8b 45 e8	 mov	 eax, DWORD PTR $T4[ebp]
  00048	89 45 e4	 mov	 DWORD PTR $T3[ebp], eax

; 1612 :         _Destroy_range(_First, _Last, _Getal());

  0004b	ff 75 e4	 push	 DWORD PTR $T3[ebp]
  0004e	ff 75 e0	 push	 DWORD PTR __Last$[ebp]
  00051	ff 75 dc	 push	 DWORD PTR __First$[ebp]
  00054	e8 00 00 00 00	 call	 ??$_Destroy_range@V?$allocator@PAVCGraphicObjectInstance@@@std@@@std@@YAXPAPAVCGraphicObjectInstance@@QAPAV1@AAV?$allocator@PAVCGraphicObjectInstance@@@0@@Z ; std::_Destroy_range<std::allocator<CGraphicObjectInstance *> >
  00059	83 c4 0c	 add	 esp, 12			; 0000000cH

; 1733 :         return _Mypair._Get_first();

  0005c	8b 45 f4	 mov	 eax, DWORD PTR _this$[ebp]
; File C:\Program Files (x86)\Microsoft Visual Studio\2019\Community\VC\Tools\MSVC\14.28.29333\include\xmemory

; 1347 :         return *this;

  0005f	89 45 d8	 mov	 DWORD PTR $T2[ebp], eax
; File C:\Program Files (x86)\Microsoft Visual Studio\2019\Community\VC\Tools\MSVC\14.28.29333\include\vector

; 1733 :         return _Mypair._Get_first();

  00062	8b 45 d8	 mov	 eax, DWORD PTR $T2[ebp]
  00065	89 45 cc	 mov	 DWORD PTR $T1[ebp], eax

; 1696 :             _Getal().deallocate(_Myfirst, static_cast<size_type>(_Myend - _Myfirst));

  00068	8b 45 ec	 mov	 eax, DWORD PTR __Myend$[ebp]
  0006b	8b 4d fc	 mov	 ecx, DWORD PTR __Myfirst$[ebp]
  0006e	8b 00		 mov	 eax, DWORD PTR [eax]
  00070	2b 01		 sub	 eax, DWORD PTR [ecx]
  00072	c1 f8 02	 sar	 eax, 2
  00075	89 45 d4	 mov	 DWORD PTR __Count$[ebp], eax
  00078	8b 45 fc	 mov	 eax, DWORD PTR __Myfirst$[ebp]
  0007b	8b 00		 mov	 eax, DWORD PTR [eax]
  0007d	89 45 d0	 mov	 DWORD PTR __Ptr$[ebp], eax
; File C:\Program Files (x86)\Microsoft Visual Studio\2019\Community\VC\Tools\MSVC\14.28.29333\include\xmemory

; 810  :         _Deallocate<_New_alignof<_Ty>>(_Ptr, sizeof(_Ty) * _Count);

  00080	8b 45 d4	 mov	 eax, DWORD PTR __Count$[ebp]
  00083	c1 e0 02	 shl	 eax, 2
  00086	50		 push	 eax
  00087	ff 75 d0	 push	 DWORD PTR __Ptr$[ebp]
  0008a	e8 00 00 00 00	 call	 ??$_Deallocate@$07$0A@@std@@YAXPAXI@Z ; std::_Deallocate<8,0>
  0008f	59		 pop	 ecx
  00090	59		 pop	 ecx
; File C:\Program Files (x86)\Microsoft Visual Studio\2019\Community\VC\Tools\MSVC\14.28.29333\include\vector

; 1698 :             _Myfirst = pointer();

  00091	8b 45 fc	 mov	 eax, DWORD PTR __Myfirst$[ebp]
  00094	83 20 00	 and	 DWORD PTR [eax], 0

; 1699 :             _Mylast  = pointer();

  00097	8b 45 f0	 mov	 eax, DWORD PTR __Mylast$[ebp]
  0009a	83 20 00	 and	 DWORD PTR [eax], 0

; 1700 :             _Myend   = pointer();

  0009d	8b 45 ec	 mov	 eax, DWORD PTR __Myend$[ebp]
  000a0	83 20 00	 and	 DWORD PTR [eax], 0
$LN3@Tidy:

; 1701 :         }
; 1702 :     }

  000a3	c9		 leave
  000a4	c3		 ret	 0
?_Tidy@?$vector@PAVCGraphicObjectInstance@@V?$allocator@PAVCGraphicObjectInstance@@@std@@@std@@AAEXXZ ENDP ; std::vector<CGraphicObjectInstance *,std::allocator<CGraphicObjectInstance *> >::_Tidy
_TEXT	ENDS
; Function compile flags: /Odspy
; File C:\Program Files (x86)\Microsoft Visual Studio\2019\Community\VC\Tools\MSVC\14.28.29333\include\vector
; File C:\Program Files (x86)\Microsoft Visual Studio\2019\Community\VC\Tools\MSVC\14.28.29333\include\xmemory
; File C:\Program Files (x86)\Microsoft Visual Studio\2019\Community\VC\Tools\MSVC\14.28.29333\include\vector
; File C:\Program Files (x86)\Microsoft Visual Studio\2019\Community\VC\Tools\MSVC\14.28.29333\include\xmemory
; File C:\Program Files (x86)\Microsoft Visual Studio\2019\Community\VC\Tools\MSVC\14.28.29333\include\vector
; File C:\Program Files (x86)\Microsoft Visual Studio\2019\Community\VC\Tools\MSVC\14.28.29333\include\xmemory
; File C:\Program Files (x86)\Microsoft Visual Studio\2019\Community\VC\Tools\MSVC\14.28.29333\include\vector
;	COMDAT ?_Change_array@?$vector@PAVCGraphicObjectInstance@@V?$allocator@PAVCGraphicObjectInstance@@@std@@@std@@AAEXQAPAVCGraphicObjectInstance@@II@Z
_TEXT	SEGMENT
$T1 = -52						; size = 4
__Ptr$ = -48						; size = 4
__Count$ = -44						; size = 4
$T2 = -40						; size = 4
__First$ = -36						; size = 4
__Last$ = -32						; size = 4
$T3 = -28						; size = 4
$T4 = -24						; size = 4
__Myend$ = -20						; size = 4
__Mylast$ = -16						; size = 4
_this$ = -12						; size = 4
__My_data$ = -8						; size = 4
__Myfirst$ = -4						; size = 4
__Newvec$ = 8						; size = 4
__Newsize$ = 12						; size = 4
__Newcapacity$ = 16					; size = 4
?_Change_array@?$vector@PAVCGraphicObjectInstance@@V?$allocator@PAVCGraphicObjectInstance@@@std@@@std@@AAEXQAPAVCGraphicObjectInstance@@II@Z PROC ; std::vector<CGraphicObjectInstance *,std::allocator<CGraphicObjectInstance *> >::_Change_array, COMDAT
; _this$ = ecx

; 1667 :     void _Change_array(const pointer _Newvec, const size_type _Newsize, const size_type _Newcapacity) {

  00000	55		 push	 ebp
  00001	8b ec		 mov	 ebp, esp
  00003	83 ec 34	 sub	 esp, 52			; 00000034H
  00006	89 4d f4	 mov	 DWORD PTR _this$[ebp], ecx

; 1668 :         // orphan all iterators, discard old array, acquire new array
; 1669 :         auto& _My_data    = _Mypair._Myval2;

  00009	8b 45 f4	 mov	 eax, DWORD PTR _this$[ebp]
  0000c	89 45 f8	 mov	 DWORD PTR __My_data$[ebp], eax

; 1670 :         pointer& _Myfirst = _My_data._Myfirst;

  0000f	8b 45 f8	 mov	 eax, DWORD PTR __My_data$[ebp]
  00012	89 45 fc	 mov	 DWORD PTR __Myfirst$[ebp], eax

; 1671 :         pointer& _Mylast  = _My_data._Mylast;

  00015	8b 45 f8	 mov	 eax, DWORD PTR __My_data$[ebp]
  00018	83 c0 04	 add	 eax, 4
  0001b	89 45 f0	 mov	 DWORD PTR __Mylast$[ebp], eax

; 1672 :         pointer& _Myend   = _My_data._Myend;

  0001e	8b 45 f8	 mov	 eax, DWORD PTR __My_data$[ebp]
  00021	83 c0 08	 add	 eax, 8
  00024	89 45 ec	 mov	 DWORD PTR __Myend$[ebp], eax

; 1673 : 
; 1674 :         _My_data._Orphan_all();
; 1675 : 
; 1676 :         if (_Myfirst) { // destroy and deallocate old array

  00027	8b 45 fc	 mov	 eax, DWORD PTR __Myfirst$[ebp]
  0002a	83 38 00	 cmp	 DWORD PTR [eax], 0
  0002d	74 62		 je	 SHORT $LN2@Change_arr

; 1677 :             _Destroy(_Myfirst, _Mylast);

  0002f	8b 45 f0	 mov	 eax, DWORD PTR __Mylast$[ebp]
  00032	8b 00		 mov	 eax, DWORD PTR [eax]
  00034	89 45 e0	 mov	 DWORD PTR __Last$[ebp], eax
  00037	8b 45 fc	 mov	 eax, DWORD PTR __Myfirst$[ebp]
  0003a	8b 00		 mov	 eax, DWORD PTR [eax]
  0003c	89 45 dc	 mov	 DWORD PTR __First$[ebp], eax

; 1733 :         return _Mypair._Get_first();

  0003f	8b 45 f4	 mov	 eax, DWORD PTR _this$[ebp]
; File C:\Program Files (x86)\Microsoft Visual Studio\2019\Community\VC\Tools\MSVC\14.28.29333\include\xmemory

; 1347 :         return *this;

  00042	89 45 e8	 mov	 DWORD PTR $T4[ebp], eax
; File C:\Program Files (x86)\Microsoft Visual Studio\2019\Community\VC\Tools\MSVC\14.28.29333\include\vector

; 1733 :         return _Mypair._Get_first();

  00045	8b 45 e8	 mov	 eax, DWORD PTR $T4[ebp]
  00048	89 45 e4	 mov	 DWORD PTR $T3[ebp], eax

; 1612 :         _Destroy_range(_First, _Last, _Getal());

  0004b	ff 75 e4	 push	 DWORD PTR $T3[ebp]
  0004e	ff 75 e0	 push	 DWORD PTR __Last$[ebp]
  00051	ff 75 dc	 push	 DWORD PTR __First$[ebp]
  00054	e8 00 00 00 00	 call	 ??$_Destroy_range@V?$allocator@PAVCGraphicObjectInstance@@@std@@@std@@YAXPAPAVCGraphicObjectInstance@@QAPAV1@AAV?$allocator@PAVCGraphicObjectInstance@@@0@@Z ; std::_Destroy_range<std::allocator<CGraphicObjectInstance *> >
  00059	83 c4 0c	 add	 esp, 12			; 0000000cH

; 1733 :         return _Mypair._Get_first();

  0005c	8b 45 f4	 mov	 eax, DWORD PTR _this$[ebp]
; File C:\Program Files (x86)\Microsoft Visual Studio\2019\Community\VC\Tools\MSVC\14.28.29333\include\xmemory

; 1347 :         return *this;

  0005f	89 45 d8	 mov	 DWORD PTR $T2[ebp], eax
; File C:\Program Files (x86)\Microsoft Visual Studio\2019\Community\VC\Tools\MSVC\14.28.29333\include\vector

; 1733 :         return _Mypair._Get_first();

  00062	8b 45 d8	 mov	 eax, DWORD PTR $T2[ebp]
  00065	89 45 cc	 mov	 DWORD PTR $T1[ebp], eax

; 1678 :             _Getal().deallocate(_Myfirst, static_cast<size_type>(_Myend - _Myfirst));

  00068	8b 45 ec	 mov	 eax, DWORD PTR __Myend$[ebp]
  0006b	8b 4d fc	 mov	 ecx, DWORD PTR __Myfirst$[ebp]
  0006e	8b 00		 mov	 eax, DWORD PTR [eax]
  00070	2b 01		 sub	 eax, DWORD PTR [ecx]
  00072	c1 f8 02	 sar	 eax, 2
  00075	89 45 d4	 mov	 DWORD PTR __Count$[ebp], eax
  00078	8b 45 fc	 mov	 eax, DWORD PTR __Myfirst$[ebp]
  0007b	8b 00		 mov	 eax, DWORD PTR [eax]
  0007d	89 45 d0	 mov	 DWORD PTR __Ptr$[ebp], eax
; File C:\Program Files (x86)\Microsoft Visual Studio\2019\Community\VC\Tools\MSVC\14.28.29333\include\xmemory

; 810  :         _Deallocate<_New_alignof<_Ty>>(_Ptr, sizeof(_Ty) * _Count);

  00080	8b 45 d4	 mov	 eax, DWORD PTR __Count$[ebp]
  00083	c1 e0 02	 shl	 eax, 2
  00086	50		 push	 eax
  00087	ff 75 d0	 push	 DWORD PTR __Ptr$[ebp]
  0008a	e8 00 00 00 00	 call	 ??$_Deallocate@$07$0A@@std@@YAXPAXI@Z ; std::_Deallocate<8,0>
  0008f	59		 pop	 ecx
  00090	59		 pop	 ecx
$LN2@Change_arr:
; File C:\Program Files (x86)\Microsoft Visual Studio\2019\Community\VC\Tools\MSVC\14.28.29333\include\vector

; 1681 :         _Myfirst = _Newvec;

  00091	8b 45 fc	 mov	 eax, DWORD PTR __Myfirst$[ebp]
  00094	8b 4d 08	 mov	 ecx, DWORD PTR __Newvec$[ebp]
  00097	89 08		 mov	 DWORD PTR [eax], ecx

; 1682 :         _Mylast  = _Newvec + _Newsize;

  00099	8b 45 0c	 mov	 eax, DWORD PTR __Newsize$[ebp]
  0009c	8b 4d 08	 mov	 ecx, DWORD PTR __Newvec$[ebp]
  0009f	8d 04 81	 lea	 eax, DWORD PTR [ecx+eax*4]
  000a2	8b 4d f0	 mov	 ecx, DWORD PTR __Mylast$[ebp]
  000a5	89 01		 mov	 DWORD PTR [ecx], eax

; 1683 :         _Myend   = _Newvec + _Newcapacity;

  000a7	8b 45 10	 mov	 eax, DWORD PTR __Newcapacity$[ebp]
  000aa	8b 4d 08	 mov	 ecx, DWORD PTR __Newvec$[ebp]
  000ad	8d 04 81	 lea	 eax, DWORD PTR [ecx+eax*4]
  000b0	8b 4d ec	 mov	 ecx, DWORD PTR __Myend$[ebp]
  000b3	89 01		 mov	 DWORD PTR [ecx], eax

; 1684 :     }

  000b5	c9		 leave
  000b6	c2 0c 00	 ret	 12			; 0000000cH
?_Change_array@?$vector@PAVCGraphicObjectInstance@@V?$allocator@PAVCGraphicObjectInstance@@@std@@@std@@AAEXQAPAVCGraphicObjectInstance@@II@Z ENDP ; std::vector<CGraphicObjectInstance *,std::allocator<CGraphicObjectInstance *> >::_Change_array
_TEXT	ENDS
; Function compile flags: /Odspy
; File C:\Program Files (x86)\Microsoft Visual Studio\2019\Community\VC\Tools\MSVC\14.28.29333\include\vector
; File C:\Program Files (x86)\Microsoft Visual Studio\2019\Community\VC\Tools\MSVC\14.28.29333\include\xmemory
; File C:\Program Files (x86)\Microsoft Visual Studio\2019\Community\VC\Tools\MSVC\14.28.29333\include\vector
; File C:\Program Files (x86)\Microsoft Visual Studio\2019\Community\VC\Tools\MSVC\14.28.29333\include\xmemory
; File C:\Program Files (x86)\Microsoft Visual Studio\2019\Community\VC\Tools\MSVC\14.28.29333\include\limits
; File C:\Program Files (x86)\Microsoft Visual Studio\2019\Community\VC\Tools\MSVC\14.28.29333\include\vector
; File C:\Program Files (x86)\Microsoft Visual Studio\2019\Community\VC\Tools\MSVC\14.28.29333\include\utility
; File C:\Program Files (x86)\Microsoft Visual Studio\2019\Community\VC\Tools\MSVC\14.28.29333\include\vector
;	COMDAT ?_Calculate_growth@?$vector@PAVCGraphicObjectInstance@@V?$allocator@PAVCGraphicObjectInstance@@@std@@@std@@ABEII@Z
_TEXT	SEGMENT
$T1 = -52						; size = 4
$T2 = -48						; size = 4
$T3 = -44						; size = 4
$T4 = -40						; size = 4
$T5 = -36						; size = 4
__Geometric$ = -32					; size = 4
__Max$ = -28						; size = 4
tv82 = -24						; size = 4
$T6 = -20						; size = 4
$T7 = -16						; size = 4
_this$ = -12						; size = 4
__My_data$8 = -8					; size = 4
__Oldcapacity$ = -4					; size = 4
__Newsize$ = 8						; size = 4
?_Calculate_growth@?$vector@PAVCGraphicObjectInstance@@V?$allocator@PAVCGraphicObjectInstance@@@std@@@std@@ABEII@Z PROC ; std::vector<CGraphicObjectInstance *,std::allocator<CGraphicObjectInstance *> >::_Calculate_growth, COMDAT
; _this$ = ecx

; 1615 :     size_type _Calculate_growth(const size_type _Newsize) const {

  00000	55		 push	 ebp
  00001	8b ec		 mov	 ebp, esp
  00003	83 ec 34	 sub	 esp, 52			; 00000034H
  00006	89 4d f4	 mov	 DWORD PTR _this$[ebp], ecx

; 1493 :         auto& _My_data = _Mypair._Myval2;

  00009	8b 45 f4	 mov	 eax, DWORD PTR _this$[ebp]
  0000c	89 45 f8	 mov	 DWORD PTR __My_data$8[ebp], eax

; 1494 :         return static_cast<size_type>(_My_data._Myend - _My_data._Myfirst);

  0000f	8b 45 f8	 mov	 eax, DWORD PTR __My_data$8[ebp]
  00012	8b 4d f8	 mov	 ecx, DWORD PTR __My_data$8[ebp]
  00015	8b 40 08	 mov	 eax, DWORD PTR [eax+8]
  00018	2b 01		 sub	 eax, DWORD PTR [ecx]
  0001a	c1 f8 02	 sar	 eax, 2
  0001d	89 45 fc	 mov	 DWORD PTR __Oldcapacity$[ebp], eax

; 1737 :         return _Mypair._Get_first();

  00020	8b 45 f4	 mov	 eax, DWORD PTR _this$[ebp]
; File C:\Program Files (x86)\Microsoft Visual Studio\2019\Community\VC\Tools\MSVC\14.28.29333\include\xmemory

; 1351 :         return *this;

  00023	89 45 dc	 mov	 DWORD PTR $T5[ebp], eax
; File C:\Program Files (x86)\Microsoft Visual Studio\2019\Community\VC\Tools\MSVC\14.28.29333\include\vector

; 1737 :         return _Mypair._Get_first();

  00026	8b 45 dc	 mov	 eax, DWORD PTR $T5[ebp]
  00029	89 45 cc	 mov	 DWORD PTR $T1[ebp], eax
; File C:\Program Files (x86)\Microsoft Visual Studio\2019\Community\VC\Tools\MSVC\14.28.29333\include\xmemory

; 710  :         return static_cast<size_t>(-1) / sizeof(value_type);

  0002c	c7 45 f0 ff ff
	ff 3f		 mov	 DWORD PTR $T7[ebp], 1073741823 ; 3fffffffH
; File C:\Program Files (x86)\Microsoft Visual Studio\2019\Community\VC\Tools\MSVC\14.28.29333\include\limits

; 557  :         return INT_MAX;

  00033	c7 45 d8 ff ff
	ff 7f		 mov	 DWORD PTR $T4[ebp], 2147483647 ; 7fffffffH
; File C:\Program Files (x86)\Microsoft Visual Studio\2019\Community\VC\Tools\MSVC\14.28.29333\include\vector

; 1488 :         return (_STD min)(

  0003a	8b 45 d8	 mov	 eax, DWORD PTR $T4[ebp]
  0003d	89 45 ec	 mov	 DWORD PTR $T6[ebp], eax
; File C:\Program Files (x86)\Microsoft Visual Studio\2019\Community\VC\Tools\MSVC\14.28.29333\include\utility

; 68   :     return _Right < _Left ? _Right : _Left;

  00040	8b 45 f0	 mov	 eax, DWORD PTR $T7[ebp]
  00043	3b 45 ec	 cmp	 eax, DWORD PTR $T6[ebp]
  00046	73 08		 jae	 SHORT $LN25@Calculate_
  00048	8d 45 f0	 lea	 eax, DWORD PTR $T7[ebp]
  0004b	89 45 e8	 mov	 DWORD PTR tv82[ebp], eax
  0004e	eb 06		 jmp	 SHORT $LN26@Calculate_
$LN25@Calculate_:
  00050	8d 45 ec	 lea	 eax, DWORD PTR $T6[ebp]
  00053	89 45 e8	 mov	 DWORD PTR tv82[ebp], eax
$LN26@Calculate_:
  00056	8b 45 e8	 mov	 eax, DWORD PTR tv82[ebp]
  00059	89 45 d4	 mov	 DWORD PTR $T3[ebp], eax
  0005c	8b 45 d4	 mov	 eax, DWORD PTR $T3[ebp]
  0005f	89 45 d0	 mov	 DWORD PTR $T2[ebp], eax
; File C:\Program Files (x86)\Microsoft Visual Studio\2019\Community\VC\Tools\MSVC\14.28.29333\include\vector

; 1488 :         return (_STD min)(

  00062	8b 45 d0	 mov	 eax, DWORD PTR $T2[ebp]
  00065	8b 00		 mov	 eax, DWORD PTR [eax]
  00067	89 45 e4	 mov	 DWORD PTR __Max$[ebp], eax

; 1616 :         // given _Oldcapacity and _Newsize, calculate geometric growth
; 1617 :         const size_type _Oldcapacity = capacity();
; 1618 :         const auto _Max              = max_size();
; 1619 : 
; 1620 :         if (_Oldcapacity > _Max - _Oldcapacity / 2) {

  0006a	8b 45 fc	 mov	 eax, DWORD PTR __Oldcapacity$[ebp]
  0006d	d1 e8		 shr	 eax, 1
  0006f	8b 4d e4	 mov	 ecx, DWORD PTR __Max$[ebp]
  00072	2b c8		 sub	 ecx, eax
  00074	39 4d fc	 cmp	 DWORD PTR __Oldcapacity$[ebp], ecx
  00077	76 05		 jbe	 SHORT $LN2@Calculate_

; 1621 :             return _Max; // geometric growth would overflow

  00079	8b 45 e4	 mov	 eax, DWORD PTR __Max$[ebp]
  0007c	eb 1b		 jmp	 SHORT $LN1@Calculate_
$LN2@Calculate_:

; 1622 :         }
; 1623 : 
; 1624 :         const size_type _Geometric = _Oldcapacity + _Oldcapacity / 2;

  0007e	8b 45 fc	 mov	 eax, DWORD PTR __Oldcapacity$[ebp]
  00081	d1 e8		 shr	 eax, 1
  00083	03 45 fc	 add	 eax, DWORD PTR __Oldcapacity$[ebp]
  00086	89 45 e0	 mov	 DWORD PTR __Geometric$[ebp], eax

; 1625 : 
; 1626 :         if (_Geometric < _Newsize) {

  00089	8b 45 e0	 mov	 eax, DWORD PTR __Geometric$[ebp]
  0008c	3b 45 08	 cmp	 eax, DWORD PTR __Newsize$[ebp]
  0008f	73 05		 jae	 SHORT $LN3@Calculate_

; 1627 :             return _Newsize; // geometric growth would be insufficient

  00091	8b 45 08	 mov	 eax, DWORD PTR __Newsize$[ebp]
  00094	eb 03		 jmp	 SHORT $LN1@Calculate_
$LN3@Calculate_:

; 1628 :         }
; 1629 : 
; 1630 :         return _Geometric; // geometric growth is sufficient

  00096	8b 45 e0	 mov	 eax, DWORD PTR __Geometric$[ebp]
$LN1@Calculate_:

; 1631 :     }

  00099	c9		 leave
  0009a	c2 04 00	 ret	 4
?_Calculate_growth@?$vector@PAVCGraphicObjectInstance@@V?$allocator@PAVCGraphicObjectInstance@@@std@@@std@@ABEII@Z ENDP ; std::vector<CGraphicObjectInstance *,std::allocator<CGraphicObjectInstance *> >::_Calculate_growth
_TEXT	ENDS
; Function compile flags: /Odspy
; File C:\Program Files (x86)\Microsoft Visual Studio\2019\Community\VC\Tools\MSVC\14.28.29333\include\vector
; File C:\Program Files (x86)\Microsoft Visual Studio\2019\Community\VC\Tools\MSVC\14.28.29333\include\xmemory
; File C:\Program Files (x86)\Microsoft Visual Studio\2019\Community\VC\Tools\MSVC\14.28.29333\include\vector
;	COMDAT ?_Destroy@?$vector@PAVCGraphicObjectInstance@@V?$allocator@PAVCGraphicObjectInstance@@@std@@@std@@AAEXPAPAVCGraphicObjectInstance@@0@Z
_TEXT	SEGMENT
$T1 = -12						; size = 4
$T2 = -8						; size = 4
_this$ = -4						; size = 4
__First$ = 8						; size = 4
__Last$ = 12						; size = 4
?_Destroy@?$vector@PAVCGraphicObjectInstance@@V?$allocator@PAVCGraphicObjectInstance@@@std@@@std@@AAEXPAPAVCGraphicObjectInstance@@0@Z PROC ; std::vector<CGraphicObjectInstance *,std::allocator<CGraphicObjectInstance *> >::_Destroy, COMDAT
; _this$ = ecx

; 1611 :     void _Destroy(pointer _First, pointer _Last) { // destroy [_First, _Last) using allocator

  00000	55		 push	 ebp
  00001	8b ec		 mov	 ebp, esp
  00003	83 ec 0c	 sub	 esp, 12			; 0000000cH
  00006	89 4d fc	 mov	 DWORD PTR _this$[ebp], ecx

; 1733 :         return _Mypair._Get_first();

  00009	8b 45 fc	 mov	 eax, DWORD PTR _this$[ebp]
; File C:\Program Files (x86)\Microsoft Visual Studio\2019\Community\VC\Tools\MSVC\14.28.29333\include\xmemory

; 1347 :         return *this;

  0000c	89 45 f8	 mov	 DWORD PTR $T2[ebp], eax
; File C:\Program Files (x86)\Microsoft Visual Studio\2019\Community\VC\Tools\MSVC\14.28.29333\include\vector

; 1733 :         return _Mypair._Get_first();

  0000f	8b 45 f8	 mov	 eax, DWORD PTR $T2[ebp]
  00012	89 45 f4	 mov	 DWORD PTR $T1[ebp], eax

; 1612 :         _Destroy_range(_First, _Last, _Getal());

  00015	ff 75 f4	 push	 DWORD PTR $T1[ebp]
  00018	ff 75 0c	 push	 DWORD PTR __Last$[ebp]
  0001b	ff 75 08	 push	 DWORD PTR __First$[ebp]
  0001e	e8 00 00 00 00	 call	 ??$_Destroy_range@V?$allocator@PAVCGraphicObjectInstance@@@std@@@std@@YAXPAPAVCGraphicObjectInstance@@QAPAV1@AAV?$allocator@PAVCGraphicObjectInstance@@@0@@Z ; std::_Destroy_range<std::allocator<CGraphicObjectInstance *> >
  00023	83 c4 0c	 add	 esp, 12			; 0000000cH

; 1613 :     }

  00026	c9		 leave
  00027	c2 08 00	 ret	 8
?_Destroy@?$vector@PAVCGraphicObjectInstance@@V?$allocator@PAVCGraphicObjectInstance@@@std@@@std@@AAEXPAPAVCGraphicObjectInstance@@0@Z ENDP ; std::vector<CGraphicObjectInstance *,std::allocator<CGraphicObjectInstance *> >::_Destroy
_TEXT	ENDS
; Function compile flags: /Odspy
; File C:\Program Files (x86)\Microsoft Visual Studio\2019\Community\VC\Tools\MSVC\14.28.29333\include\vector
; File C:\Program Files (x86)\Microsoft Visual Studio\2019\Community\VC\Tools\MSVC\14.28.29333\include\xmemory
; File C:\Program Files (x86)\Microsoft Visual Studio\2019\Community\VC\Tools\MSVC\14.28.29333\include\vector
;	COMDAT ?clear@?$vector@PAVCGraphicObjectInstance@@V?$allocator@PAVCGraphicObjectInstance@@@std@@@std@@QAEXXZ
_TEXT	SEGMENT
__First$ = -32						; size = 4
__Last$ = -28						; size = 4
$T1 = -24						; size = 4
$T2 = -20						; size = 4
__Myfirst$ = -16					; size = 4
__Mylast$ = -12						; size = 4
_this$ = -8						; size = 4
__My_data$ = -4						; size = 4
?clear@?$vector@PAVCGraphicObjectInstance@@V?$allocator@PAVCGraphicObjectInstance@@@std@@@std@@QAEXXZ PROC ; std::vector<CGraphicObjectInstance *,std::allocator<CGraphicObjectInstance *> >::clear, COMDAT
; _this$ = ecx

; 1383 :     void clear() noexcept { // erase all

  00000	55		 push	 ebp
  00001	8b ec		 mov	 ebp, esp
  00003	83 ec 20	 sub	 esp, 32			; 00000020H
  00006	89 4d f8	 mov	 DWORD PTR _this$[ebp], ecx

; 1384 :         auto& _My_data    = _Mypair._Myval2;

  00009	8b 45 f8	 mov	 eax, DWORD PTR _this$[ebp]
  0000c	89 45 fc	 mov	 DWORD PTR __My_data$[ebp], eax

; 1385 :         pointer& _Myfirst = _My_data._Myfirst;

  0000f	8b 45 fc	 mov	 eax, DWORD PTR __My_data$[ebp]
  00012	89 45 f0	 mov	 DWORD PTR __Myfirst$[ebp], eax

; 1386 :         pointer& _Mylast  = _My_data._Mylast;

  00015	8b 45 fc	 mov	 eax, DWORD PTR __My_data$[ebp]
  00018	83 c0 04	 add	 eax, 4
  0001b	89 45 f4	 mov	 DWORD PTR __Mylast$[ebp], eax

; 1387 : 
; 1388 :         _My_data._Orphan_all();
; 1389 :         _Destroy(_Myfirst, _Mylast);

  0001e	8b 45 f4	 mov	 eax, DWORD PTR __Mylast$[ebp]
  00021	8b 00		 mov	 eax, DWORD PTR [eax]
  00023	89 45 e4	 mov	 DWORD PTR __Last$[ebp], eax
  00026	8b 45 f0	 mov	 eax, DWORD PTR __Myfirst$[ebp]
  00029	8b 00		 mov	 eax, DWORD PTR [eax]
  0002b	89 45 e0	 mov	 DWORD PTR __First$[ebp], eax

; 1733 :         return _Mypair._Get_first();

  0002e	8b 45 f8	 mov	 eax, DWORD PTR _this$[ebp]
; File C:\Program Files (x86)\Microsoft Visual Studio\2019\Community\VC\Tools\MSVC\14.28.29333\include\xmemory

; 1347 :         return *this;

  00031	89 45 ec	 mov	 DWORD PTR $T2[ebp], eax
; File C:\Program Files (x86)\Microsoft Visual Studio\2019\Community\VC\Tools\MSVC\14.28.29333\include\vector

; 1733 :         return _Mypair._Get_first();

  00034	8b 45 ec	 mov	 eax, DWORD PTR $T2[ebp]
  00037	89 45 e8	 mov	 DWORD PTR $T1[ebp], eax

; 1612 :         _Destroy_range(_First, _Last, _Getal());

  0003a	ff 75 e8	 push	 DWORD PTR $T1[ebp]
  0003d	ff 75 e4	 push	 DWORD PTR __Last$[ebp]
  00040	ff 75 e0	 push	 DWORD PTR __First$[ebp]
  00043	e8 00 00 00 00	 call	 ??$_Destroy_range@V?$allocator@PAVCGraphicObjectInstance@@@std@@@std@@YAXPAPAVCGraphicObjectInstance@@QAPAV1@AAV?$allocator@PAVCGraphicObjectInstance@@@0@@Z ; std::_Destroy_range<std::allocator<CGraphicObjectInstance *> >
  00048	83 c4 0c	 add	 esp, 12			; 0000000cH

; 1390 :         _Mylast = _Myfirst;

  0004b	8b 45 f4	 mov	 eax, DWORD PTR __Mylast$[ebp]
  0004e	8b 4d f0	 mov	 ecx, DWORD PTR __Myfirst$[ebp]
  00051	8b 09		 mov	 ecx, DWORD PTR [ecx]
  00053	89 08		 mov	 DWORD PTR [eax], ecx

; 1391 :     }

  00055	c9		 leave
  00056	c3		 ret	 0
?clear@?$vector@PAVCGraphicObjectInstance@@V?$allocator@PAVCGraphicObjectInstance@@@std@@@std@@QAEXXZ ENDP ; std::vector<CGraphicObjectInstance *,std::allocator<CGraphicObjectInstance *> >::clear
_TEXT	ENDS
; Function compile flags: /Odspy
; File C:\Program Files (x86)\Microsoft Visual Studio\2019\Community\VC\Tools\MSVC\14.28.29333\include\vector
;	COMDAT ??1?$vector@PAVCGraphicObjectInstance@@V?$allocator@PAVCGraphicObjectInstance@@@std@@@std@@QAE@XZ
_TEXT	SEGMENT
_this$ = -4						; size = 4
??1?$vector@PAVCGraphicObjectInstance@@V?$allocator@PAVCGraphicObjectInstance@@@std@@@std@@QAE@XZ PROC ; std::vector<CGraphicObjectInstance *,std::allocator<CGraphicObjectInstance *> >::~vector<CGraphicObjectInstance *,std::allocator<CGraphicObjectInstance *> >, COMDAT
; _this$ = ecx

; 672  :     ~vector() noexcept {

  00000	55		 push	 ebp
  00001	8b ec		 mov	 ebp, esp
  00003	51		 push	 ecx
  00004	89 4d fc	 mov	 DWORD PTR _this$[ebp], ecx

; 673  :         _Tidy();

  00007	8b 4d fc	 mov	 ecx, DWORD PTR _this$[ebp]
  0000a	e8 00 00 00 00	 call	 ?_Tidy@?$vector@PAVCGraphicObjectInstance@@V?$allocator@PAVCGraphicObjectInstance@@@std@@@std@@AAEXXZ ; std::vector<CGraphicObjectInstance *,std::allocator<CGraphicObjectInstance *> >::_Tidy

; 674  : #if _ITERATOR_DEBUG_LEVEL != 0
; 675  :         auto&& _Alproxy = _GET_PROXY_ALLOCATOR(_Alty, _Getal());
; 676  :         _Delete_plain_internal(_Alproxy, _STD exchange(_Mypair._Myval2._Myproxy, nullptr));
; 677  : #endif // _ITERATOR_DEBUG_LEVEL != 0
; 678  :     }

  0000f	c9		 leave
  00010	c3		 ret	 0
??1?$vector@PAVCGraphicObjectInstance@@V?$allocator@PAVCGraphicObjectInstance@@@std@@@std@@QAE@XZ ENDP ; std::vector<CGraphicObjectInstance *,std::allocator<CGraphicObjectInstance *> >::~vector<CGraphicObjectInstance *,std::allocator<CGraphicObjectInstance *> >
_TEXT	ENDS
; Function compile flags: /Odspy
; File C:\Program Files (x86)\Microsoft Visual Studio\2019\Community\VC\Tools\MSVC\14.28.29333\include\xmemory
;	COMDAT ?deallocate@?$allocator@PAVCGraphicObjectInstance@@@std@@QAEXQAPAVCGraphicObjectInstance@@I@Z
_TEXT	SEGMENT
_this$ = -4						; size = 4
__Ptr$ = 8						; size = 4
__Count$ = 12						; size = 4
?deallocate@?$allocator@PAVCGraphicObjectInstance@@@std@@QAEXQAPAVCGraphicObjectInstance@@I@Z PROC ; std::allocator<CGraphicObjectInstance *>::deallocate, COMDAT
; _this$ = ecx

; 808  :     void deallocate(_Ty* const _Ptr, const size_t _Count) {

  00000	55		 push	 ebp
  00001	8b ec		 mov	 ebp, esp
  00003	51		 push	 ecx
  00004	89 4d fc	 mov	 DWORD PTR _this$[ebp], ecx

; 809  :         // no overflow check on the following multiply; we assume _Allocate did that check
; 810  :         _Deallocate<_New_alignof<_Ty>>(_Ptr, sizeof(_Ty) * _Count);

  00007	8b 45 0c	 mov	 eax, DWORD PTR __Count$[ebp]
  0000a	c1 e0 02	 shl	 eax, 2
  0000d	50		 push	 eax
  0000e	ff 75 08	 push	 DWORD PTR __Ptr$[ebp]
  00011	e8 00 00 00 00	 call	 ??$_Deallocate@$07$0A@@std@@YAXPAXI@Z ; std::_Deallocate<8,0>
  00016	59		 pop	 ecx
  00017	59		 pop	 ecx

; 811  :     }

  00018	c9		 leave
  00019	c2 08 00	 ret	 8
?deallocate@?$allocator@PAVCGraphicObjectInstance@@@std@@QAEXQAPAVCGraphicObjectInstance@@I@Z ENDP ; std::allocator<CGraphicObjectInstance *>::deallocate
_TEXT	ENDS
; Function compile flags: /Odspy
; File D:\Metin2 Server Files\mainline\SRC_2014\Metin2Client\EterLib\CullingManager.cpp
;	COMDAT ?Unregister@CCullingManager@@QAEXPAVSpherePack@@@Z
_TEXT	SEGMENT
_this$ = -4						; size = 4
_h$ = 8							; size = 4
?Unregister@CCullingManager@@QAEXPAVSpherePack@@@Z PROC	; CCullingManager::Unregister, COMDAT
; _this$ = ecx

; 131  : {

  00000	55		 push	 ebp
  00001	8b ec		 mov	 ebp, esp
  00003	51		 push	 ecx
  00004	89 4d fc	 mov	 DWORD PTR _this$[ebp], ecx

; 132  : #ifdef COUNT_SHOWING_SPHERE
; 133  : 	if (((CGraphicObjectInstance*)h->GetUserData())->isShow())
; 134  : 	{
; 135  : 		Tracef("DE : %p  ",h->GetUserData());
; 136  : 		showingcount--;
; 137  : 		Tracef("show size : %5d\n",showingcount);
; 138  : 	}
; 139  : #endif
; 140  : 	m_Factory->Remove(h);

  00007	ff 75 08	 push	 DWORD PTR _h$[ebp]
  0000a	8b 45 fc	 mov	 eax, DWORD PTR _this$[ebp]
  0000d	8b 48 1c	 mov	 ecx, DWORD PTR [eax+28]
  00010	e8 00 00 00 00	 call	 ?Remove@SpherePackFactory@@QAEXPAVSpherePack@@@Z ; SpherePackFactory::Remove

; 141  : }

  00015	c9		 leave
  00016	c2 04 00	 ret	 4
?Unregister@CCullingManager@@QAEXPAVSpherePack@@@Z ENDP	; CCullingManager::Unregister
_TEXT	ENDS
; Function compile flags: /Odspy
; File D:\Metin2 Server Files\mainline\SRC_2014\Metin2Client\EterLib\CullingManager.cpp
;	COMDAT ?Register@CCullingManager@@QAEPAVSpherePack@@PAVCGraphicObjectInstance@@@Z
_TEXT	SEGMENT
_this$ = -24						; size = 4
_radius$ = -20						; size = 4
_center$ = -16						; size = 12
__$ArrayPad$ = -4					; size = 4
_obj$ = 8						; size = 4
?Register@CCullingManager@@QAEPAVSpherePack@@PAVCGraphicObjectInstance@@@Z PROC ; CCullingManager::Register, COMDAT
; _this$ = ecx

; 117  : {

  00000	55		 push	 ebp
  00001	8b ec		 mov	 ebp, esp
  00003	83 ec 18	 sub	 esp, 24			; 00000018H
  00006	a1 00 00 00 00	 mov	 eax, DWORD PTR ___security_cookie
  0000b	33 c5		 xor	 eax, ebp
  0000d	89 45 fc	 mov	 DWORD PTR __$ArrayPad$[ebp], eax
  00010	89 4d e8	 mov	 DWORD PTR _this$[ebp], ecx

; 118  : 	assert(obj);
; 119  : #ifdef COUNT_SHOWING_SPHERE
; 120  : 	Tracef("CR : %p  ",obj);
; 121  : 	showingcount++;
; 122  : 	Tracef("show size : %5d\n",showingcount);
; 123  : #endif
; 124  : 	Vector3d center;
; 125  : 	float radius;
; 126  : 	obj->GetBoundingSphere(center,radius);

  00013	8d 45 ec	 lea	 eax, DWORD PTR _radius$[ebp]
  00016	50		 push	 eax
  00017	8d 45 f0	 lea	 eax, DWORD PTR _center$[ebp]
  0001a	50		 push	 eax
  0001b	8b 45 08	 mov	 eax, DWORD PTR _obj$[ebp]
  0001e	8b 00		 mov	 eax, DWORD PTR [eax]
  00020	8b 4d 08	 mov	 ecx, DWORD PTR _obj$[ebp]
  00023	ff 50 0c	 call	 DWORD PTR [eax+12]

; 127  : 	return m_Factory->AddSphere_(center,radius,obj, false);

  00026	6a 04		 push	 4
  00028	6a 00		 push	 0
  0002a	ff 75 08	 push	 DWORD PTR _obj$[ebp]
  0002d	51		 push	 ecx
  0002e	f3 0f 10 45 ec	 movss	 xmm0, DWORD PTR _radius$[ebp]
  00033	f3 0f 11 04 24	 movss	 DWORD PTR [esp], xmm0
  00038	8d 45 f0	 lea	 eax, DWORD PTR _center$[ebp]
  0003b	50		 push	 eax
  0003c	8b 45 e8	 mov	 eax, DWORD PTR _this$[ebp]
  0003f	8b 48 1c	 mov	 ecx, DWORD PTR [eax+28]
  00042	e8 00 00 00 00	 call	 ?AddSphere_@SpherePackFactory@@QAEPAVSpherePack@@ABVVector3d@@MPAX_NH@Z ; SpherePackFactory::AddSphere_

; 128  : }

  00047	8b 4d fc	 mov	 ecx, DWORD PTR __$ArrayPad$[ebp]
  0004a	33 cd		 xor	 ecx, ebp
  0004c	e8 00 00 00 00	 call	 @__security_check_cookie@4
  00051	c9		 leave
  00052	c2 04 00	 ret	 4
?Register@CCullingManager@@QAEPAVSpherePack@@PAVCGraphicObjectInstance@@@Z ENDP ; CCullingManager::Register
_TEXT	ENDS
; Function compile flags: /Odspy
; File D:\Metin2 Server Files\mainline\SRC_2014\Metin2Client\EterLib\CullingManager.cpp
;	COMDAT ?FindRayDistance@CCullingManager@@QAEXABVVector3d@@0M@Z
_TEXT	SEGMENT
tv73 = -8						; size = 4
_this$ = -4						; size = 4
_p1$ = 8						; size = 4
_dir$ = 12						; size = 4
_distance$ = 16						; size = 4
?FindRayDistance@CCullingManager@@QAEXABVVector3d@@0M@Z PROC ; CCullingManager::FindRayDistance, COMDAT
; _this$ = ecx

; 172  : {

  00000	55		 push	 ebp
  00001	8b ec		 mov	 ebp, esp
  00003	51		 push	 ecx
  00004	51		 push	 ecx
  00005	89 4d fc	 mov	 DWORD PTR _this$[ebp], ecx

; 173  : 	m_RayFarDistance = distance;

  00008	8b 45 fc	 mov	 eax, DWORD PTR _this$[ebp]
  0000b	f3 0f 10 45 10	 movss	 xmm0, DWORD PTR _distance$[ebp]
  00010	f3 0f 11 40 18	 movss	 DWORD PTR [eax+24], xmm0

; 174  : 	m_list.clear();

  00015	8b 4d fc	 mov	 ecx, DWORD PTR _this$[ebp]
  00018	83 c1 0c	 add	 ecx, 12			; 0000000cH
  0001b	e8 00 00 00 00	 call	 ?clear@?$vector@PAVCGraphicObjectInstance@@V?$allocator@PAVCGraphicObjectInstance@@@std@@@std@@QAEXXZ ; std::vector<CGraphicObjectInstance *,std::allocator<CGraphicObjectInstance *> >::clear

; 175  : 	m_Factory->RayTrace(p1,dir,this);

  00020	83 7d fc 00	 cmp	 DWORD PTR _this$[ebp], 0
  00024	74 0b		 je	 SHORT $LN3@FindRayDis
  00026	8b 45 fc	 mov	 eax, DWORD PTR _this$[ebp]
  00029	83 c0 04	 add	 eax, 4
  0002c	89 45 f8	 mov	 DWORD PTR tv73[ebp], eax
  0002f	eb 04		 jmp	 SHORT $LN4@FindRayDis
$LN3@FindRayDis:
  00031	83 65 f8 00	 and	 DWORD PTR tv73[ebp], 0
$LN4@FindRayDis:
  00035	ff 75 f8	 push	 DWORD PTR tv73[ebp]
  00038	ff 75 0c	 push	 DWORD PTR _dir$[ebp]
  0003b	ff 75 08	 push	 DWORD PTR _p1$[ebp]
  0003e	8b 45 fc	 mov	 eax, DWORD PTR _this$[ebp]
  00041	8b 48 1c	 mov	 ecx, DWORD PTR [eax+28]
  00044	e8 00 00 00 00	 call	 ?RayTrace@SpherePackFactory@@QAEXABVVector3d@@0PAVSpherePackCallback@@@Z ; SpherePackFactory::RayTrace

; 176  : }

  00049	c9		 leave
  0004a	c2 0c 00	 ret	 12			; 0000000cH
?FindRayDistance@CCullingManager@@QAEXABVVector3d@@0M@Z ENDP ; CCullingManager::FindRayDistance
_TEXT	ENDS
; Function compile flags: /Odspy
; File D:\Metin2 Server Files\mainline\SRC_2014\Metin2Client\EterLib\CullingManager.cpp
;	COMDAT ?FindRay@CCullingManager@@QAEXABVVector3d@@0@Z
_TEXT	SEGMENT
tv73 = -8						; size = 4
_this$ = -4						; size = 4
_p1$ = 8						; size = 4
_dir$ = 12						; size = 4
?FindRay@CCullingManager@@QAEXABVVector3d@@0@Z PROC	; CCullingManager::FindRay, COMDAT
; _this$ = ecx

; 165  : {

  00000	55		 push	 ebp
  00001	8b ec		 mov	 ebp, esp
  00003	51		 push	 ecx
  00004	51		 push	 ecx
  00005	89 4d fc	 mov	 DWORD PTR _this$[ebp], ecx

; 166  : 	m_RayFarDistance = -1;

  00008	8b 45 fc	 mov	 eax, DWORD PTR _this$[ebp]
  0000b	f3 0f 10 05 00
	00 00 00	 movss	 xmm0, DWORD PTR __real@bf800000
  00013	f3 0f 11 40 18	 movss	 DWORD PTR [eax+24], xmm0

; 167  : 	m_list.clear();

  00018	8b 4d fc	 mov	 ecx, DWORD PTR _this$[ebp]
  0001b	83 c1 0c	 add	 ecx, 12			; 0000000cH
  0001e	e8 00 00 00 00	 call	 ?clear@?$vector@PAVCGraphicObjectInstance@@V?$allocator@PAVCGraphicObjectInstance@@@std@@@std@@QAEXXZ ; std::vector<CGraphicObjectInstance *,std::allocator<CGraphicObjectInstance *> >::clear

; 168  : 	m_Factory->RayTrace(p1,dir,this);

  00023	83 7d fc 00	 cmp	 DWORD PTR _this$[ebp], 0
  00027	74 0b		 je	 SHORT $LN3@FindRay
  00029	8b 45 fc	 mov	 eax, DWORD PTR _this$[ebp]
  0002c	83 c0 04	 add	 eax, 4
  0002f	89 45 f8	 mov	 DWORD PTR tv73[ebp], eax
  00032	eb 04		 jmp	 SHORT $LN4@FindRay
$LN3@FindRay:
  00034	83 65 f8 00	 and	 DWORD PTR tv73[ebp], 0
$LN4@FindRay:
  00038	ff 75 f8	 push	 DWORD PTR tv73[ebp]
  0003b	ff 75 0c	 push	 DWORD PTR _dir$[ebp]
  0003e	ff 75 08	 push	 DWORD PTR _p1$[ebp]
  00041	8b 45 fc	 mov	 eax, DWORD PTR _this$[ebp]
  00044	8b 48 1c	 mov	 ecx, DWORD PTR [eax+28]
  00047	e8 00 00 00 00	 call	 ?RayTrace@SpherePackFactory@@QAEXABVVector3d@@0PAVSpherePackCallback@@@Z ; SpherePackFactory::RayTrace

; 169  : }

  0004c	c9		 leave
  0004d	c2 08 00	 ret	 8
?FindRay@CCullingManager@@QAEXABVVector3d@@0@Z ENDP	; CCullingManager::FindRay
_TEXT	ENDS
; Function compile flags: /Odspy
; File D:\Metin2 Server Files\mainline\SRC_2014\Metin2Client\EterLib\CullingManager.cpp
;	COMDAT ?FindRange@CCullingManager@@QAEXABVVector3d@@M@Z
_TEXT	SEGMENT
tv72 = -8						; size = 4
_this$ = -4						; size = 4
_p$ = 8							; size = 4
_radius$ = 12						; size = 4
?FindRange@CCullingManager@@QAEXABVVector3d@@M@Z PROC	; CCullingManager::FindRange, COMDAT
; _this$ = ecx

; 159  : {

  00000	55		 push	 ebp
  00001	8b ec		 mov	 ebp, esp
  00003	51		 push	 ecx
  00004	51		 push	 ecx
  00005	89 4d fc	 mov	 DWORD PTR _this$[ebp], ecx

; 160  : 	m_list.clear();

  00008	8b 4d fc	 mov	 ecx, DWORD PTR _this$[ebp]
  0000b	83 c1 0c	 add	 ecx, 12			; 0000000cH
  0000e	e8 00 00 00 00	 call	 ?clear@?$vector@PAVCGraphicObjectInstance@@V?$allocator@PAVCGraphicObjectInstance@@@std@@@std@@QAEXXZ ; std::vector<CGraphicObjectInstance *,std::allocator<CGraphicObjectInstance *> >::clear

; 161  : 	m_Factory->RangeTest(p, radius, this);

  00013	83 7d fc 00	 cmp	 DWORD PTR _this$[ebp], 0
  00017	74 0b		 je	 SHORT $LN3@FindRange
  00019	8b 45 fc	 mov	 eax, DWORD PTR _this$[ebp]
  0001c	83 c0 04	 add	 eax, 4
  0001f	89 45 f8	 mov	 DWORD PTR tv72[ebp], eax
  00022	eb 04		 jmp	 SHORT $LN4@FindRange
$LN3@FindRange:
  00024	83 65 f8 00	 and	 DWORD PTR tv72[ebp], 0
$LN4@FindRange:
  00028	ff 75 f8	 push	 DWORD PTR tv72[ebp]
  0002b	51		 push	 ecx
  0002c	f3 0f 10 45 0c	 movss	 xmm0, DWORD PTR _radius$[ebp]
  00031	f3 0f 11 04 24	 movss	 DWORD PTR [esp], xmm0
  00036	ff 75 08	 push	 DWORD PTR _p$[ebp]
  00039	8b 45 fc	 mov	 eax, DWORD PTR _this$[ebp]
  0003c	8b 48 1c	 mov	 ecx, DWORD PTR [eax+28]
  0003f	e8 00 00 00 00	 call	 ?RangeTest@SpherePackFactory@@QAEXABVVector3d@@MPAVSpherePackCallback@@@Z ; SpherePackFactory::RangeTest

; 162  : }

  00044	c9		 leave
  00045	c2 08 00	 ret	 8
?FindRange@CCullingManager@@QAEXABVVector3d@@M@Z ENDP	; CCullingManager::FindRange
_TEXT	ENDS
; Function compile flags: /Odspy
; File D:\Metin2 Server Files\mainline\SRC_2014\Metin2Client\EterLib\CullingManager.cpp
;	COMDAT ?Process@CCullingManager@@QAEXXZ
_TEXT	SEGMENT
tv85 = -8						; size = 4
_this$ = -4						; size = 4
?Process@CCullingManager@@QAEXXZ PROC			; CCullingManager::Process, COMDAT
; _this$ = ecx

; 106  : {

  00000	55		 push	 ebp
  00001	8b ec		 mov	 ebp, esp
  00003	51		 push	 ecx
  00004	51		 push	 ecx
  00005	89 4d fc	 mov	 DWORD PTR _this$[ebp], ecx

; 107  : 	//DWORD time = ELTimer_GetMSec();
; 108  : 	//Frustum f;
; 109  : 	UpdateViewMatrix();

  00008	8b 4d fc	 mov	 ecx, DWORD PTR _this$[ebp]
  0000b	83 c1 08	 add	 ecx, 8
  0000e	e8 00 00 00 00	 call	 ?UpdateViewMatrix@CGraphicBase@@QAEXXZ ; CGraphicBase::UpdateViewMatrix

; 110  : 	UpdateProjMatrix();

  00013	8b 4d fc	 mov	 ecx, DWORD PTR _this$[ebp]
  00016	83 c1 08	 add	 ecx, 8
  00019	e8 00 00 00 00	 call	 ?UpdateProjMatrix@CGraphicBase@@QAEXXZ ; CGraphicBase::UpdateProjMatrix

; 111  : 	BuildViewFrustum();

  0001e	8b 4d fc	 mov	 ecx, DWORD PTR _this$[ebp]
  00021	83 c1 08	 add	 ecx, 8
  00024	e8 00 00 00 00	 call	 ?BuildViewFrustum@CScreen@@QAEXXZ ; CScreen::BuildViewFrustum

; 112  : 	m_Factory->FrustumTest(GetFrustum(), this);

  00029	83 7d fc 00	 cmp	 DWORD PTR _this$[ebp], 0
  0002d	74 0b		 je	 SHORT $LN3@Process
  0002f	8b 45 fc	 mov	 eax, DWORD PTR _this$[ebp]
  00032	83 c0 04	 add	 eax, 4
  00035	89 45 f8	 mov	 DWORD PTR tv85[ebp], eax
  00038	eb 04		 jmp	 SHORT $LN5@Process
$LN3@Process:
  0003a	83 65 f8 00	 and	 DWORD PTR tv85[ebp], 0
$LN5@Process:
  0003e	ff 75 f8	 push	 DWORD PTR tv85[ebp]
  00041	68 00 00 00 00	 push	 OFFSET ?ms_frustum@CScreen@@1VFrustum@@A ; CScreen::ms_frustum
  00046	8b 45 fc	 mov	 eax, DWORD PTR _this$[ebp]
  00049	8b 48 1c	 mov	 ecx, DWORD PTR [eax+28]
  0004c	e8 00 00 00 00	 call	 ?FrustumTest@SpherePackFactory@@QAEXABVFrustum@@PAVSpherePackCallback@@@Z ; SpherePackFactory::FrustumTest

; 113  : 	//Tracef("cull process : %3d  ",ELTimer_GetMSec()-time);
; 114  : }

  00051	c9		 leave
  00052	c3		 ret	 0
?Process@CCullingManager@@QAEXXZ ENDP			; CCullingManager::Process
_TEXT	ENDS
; Function compile flags: /Odspy
; File D:\Metin2 Server Files\mainline\SRC_2014\Metin2Client\EterLib\CullingManager.cpp
;	COMDAT ?Update@CCullingManager@@QAEXXZ
_TEXT	SEGMENT
_this$ = -4						; size = 4
?Update@CCullingManager@@QAEXXZ PROC			; CCullingManager::Update, COMDAT
; _this$ = ecx

; 94   : {

  00000	55		 push	 ebp
  00001	8b ec		 mov	 ebp, esp
  00003	51		 push	 ecx
  00004	89 4d fc	 mov	 DWORD PTR _this$[ebp], ecx

; 95   : 	// TODO : update each object
; 96   : 	//    
; 97   : 
; 98   : 	//DWORD time = ELTimer_GetMSec();
; 99   : 	//Reset();
; 100  : 
; 101  : 	m_Factory->Process();

  00007	8b 45 fc	 mov	 eax, DWORD PTR _this$[ebp]
  0000a	8b 48 1c	 mov	 ecx, DWORD PTR [eax+28]
  0000d	e8 00 00 00 00	 call	 ?Process@SpherePackFactory@@QAEXXZ ; SpherePackFactory::Process

; 102  : 	//Tracef("cull update : %3d  ",ELTimer_GetMSec()-time);
; 103  : }

  00012	c9		 leave
  00013	c3		 ret	 0
?Update@CCullingManager@@QAEXXZ ENDP			; CCullingManager::Update
_TEXT	ENDS
; Function compile flags: /Odspy
; File D:\Metin2 Server Files\mainline\SRC_2014\Metin2Client\EterLib\CullingManager.cpp
;	COMDAT ?Reset@CCullingManager@@QAEXXZ
_TEXT	SEGMENT
_this$ = -4						; size = 4
?Reset@CCullingManager@@QAEXXZ PROC			; CCullingManager::Reset, COMDAT
; _this$ = ecx

; 89   : {

  00000	55		 push	 ebp
  00001	8b ec		 mov	 ebp, esp
  00003	51		 push	 ecx
  00004	89 4d fc	 mov	 DWORD PTR _this$[ebp], ecx

; 90   : 	m_Factory->Reset();

  00007	8b 45 fc	 mov	 eax, DWORD PTR _this$[ebp]
  0000a	8b 48 1c	 mov	 ecx, DWORD PTR [eax+28]
  0000d	e8 00 00 00 00	 call	 ?Reset@SpherePackFactory@@QAEXXZ ; SpherePackFactory::Reset

; 91   : }

  00012	c9		 leave
  00013	c3		 ret	 0
?Reset@CCullingManager@@QAEXXZ ENDP			; CCullingManager::Reset
_TEXT	ENDS
; Function compile flags: /Odspy
; File D:\Metin2 Server Files\mainline\SRC_2014\Metin2Client\EterLib\CullingManager.cpp
; File D:\Metin2 Server Files\mainline\SRC_2014\Metin2Client\SphereLib\spherepack.h
; File D:\Metin2 Server Files\mainline\SRC_2014\Metin2Client\EterLib\CullingManager.cpp
; File C:\Program Files (x86)\Microsoft Visual Studio\2019\Community\VC\Tools\MSVC\14.28.29333\include\type_traits
; File C:\Program Files (x86)\Microsoft Visual Studio\2019\Community\VC\Tools\MSVC\14.28.29333\include\vector
; File D:\Metin2 Server Files\mainline\SRC_2014\Metin2Client\EterLib\CullingManager.cpp
; File C:\Program Files (x86)\Microsoft Visual Studio\2019\Community\VC\Tools\MSVC\14.28.29333\include\vector
; File D:\Metin2 Server Files\mainline\SRC_2014\Metin2Client\EterLib\CullingManager.cpp
;	COMDAT ?RangeTestCallback@CCullingManager@@UAEXABVVector3d@@MPAVSpherePack@@W4ViewState@@@Z
_TEXT	SEGMENT
_this$ = -16						; size = 4
$T1 = -12						; size = 4
$T2 = -8						; size = 4
$T3 = -4						; size = 4
___formal$ = 8						; size = 4
___formal$ = 12						; size = 4
_sphere$ = 16						; size = 4
_state$ = 20						; size = 4
?RangeTestCallback@CCullingManager@@UAEXABVVector3d@@MPAVSpherePack@@W4ViewState@@@Z PROC ; CCullingManager::RangeTestCallback, COMDAT
; _this$ = ecx

; 75   : {

  00000	55		 push	 ebp
  00001	8b ec		 mov	 ebp, esp
  00003	83 ec 10	 sub	 esp, 16			; 00000010H
  00006	89 4d f0	 mov	 DWORD PTR _this$[ebp], ecx

; 76   : #ifdef SPHERELIB_STRICT
; 77   : 		if (sphere->IS_SPHERE)
; 78   : 			puts("CCullingManager::RangeTestCallback");
; 79   : #endif
; 80   : 	if (state!=VS_OUTSIDE)

  00009	83 7d 14 02	 cmp	 DWORD PTR _state$[ebp], 2
  0000d	74 23		 je	 SHORT $LN1@RangeTestC
; File D:\Metin2 Server Files\mainline\SRC_2014\Metin2Client\SphereLib\spherepack.h

; 209  : 	void * GetUserData(void) const { return mUserData; };

  0000f	8b 45 10	 mov	 eax, DWORD PTR _sphere$[ebp]
  00012	8b 40 44	 mov	 eax, DWORD PTR [eax+68]
  00015	89 45 fc	 mov	 DWORD PTR $T3[ebp], eax
; File D:\Metin2 Server Files\mainline\SRC_2014\Metin2Client\EterLib\CullingManager.cpp

; 82   : 		m_list.push_back((CGraphicObjectInstance *)sphere->GetUserData());

  00018	8b 45 fc	 mov	 eax, DWORD PTR $T3[ebp]
  0001b	89 45 f8	 mov	 DWORD PTR $T2[ebp], eax
; File C:\Program Files (x86)\Microsoft Visual Studio\2019\Community\VC\Tools\MSVC\14.28.29333\include\type_traits

; 1455 :     return static_cast<remove_reference_t<_Ty>&&>(_Arg);

  0001e	8d 45 f8	 lea	 eax, DWORD PTR $T2[ebp]
  00021	89 45 f4	 mov	 DWORD PTR $T1[ebp], eax
; File C:\Program Files (x86)\Microsoft Visual Studio\2019\Community\VC\Tools\MSVC\14.28.29333\include\vector

; 721  :         emplace_back(_STD move(_Val));

  00024	ff 75 f4	 push	 DWORD PTR $T1[ebp]
; File D:\Metin2 Server Files\mainline\SRC_2014\Metin2Client\EterLib\CullingManager.cpp

; 82   : 		m_list.push_back((CGraphicObjectInstance *)sphere->GetUserData());

  00027	8b 4d f0	 mov	 ecx, DWORD PTR _this$[ebp]
  0002a	83 c1 08	 add	 ecx, 8
; File C:\Program Files (x86)\Microsoft Visual Studio\2019\Community\VC\Tools\MSVC\14.28.29333\include\vector

; 721  :         emplace_back(_STD move(_Val));

  0002d	e8 00 00 00 00	 call	 ??$emplace_back@PAVCGraphicObjectInstance@@@?$vector@PAVCGraphicObjectInstance@@V?$allocator@PAVCGraphicObjectInstance@@@std@@@std@@QAEX$$QAPAVCGraphicObjectInstance@@@Z ; std::vector<CGraphicObjectInstance *,std::allocator<CGraphicObjectInstance *> >::emplace_back<CGraphicObjectInstance *>
$LN1@RangeTestC:
; File D:\Metin2 Server Files\mainline\SRC_2014\Metin2Client\EterLib\CullingManager.cpp

; 86   : }

  00032	c9		 leave
  00033	c2 10 00	 ret	 16			; 00000010H
?RangeTestCallback@CCullingManager@@UAEXABVVector3d@@MPAVSpherePack@@W4ViewState@@@Z ENDP ; CCullingManager::RangeTestCallback
_TEXT	ENDS
; Function compile flags: /Odspy
; File D:\Metin2 Server Files\mainline\SRC_2014\Metin2Client\EterLib\CullingManager.cpp
; File D:\Metin2 Server Files\mainline\SRC_2014\Metin2Client\SphereLib\spherepack.h
; File D:\Metin2 Server Files\mainline\SRC_2014\Metin2Client\EterLib\CullingManager.cpp
;	COMDAT ?VisibilityCallback@CCullingManager@@UAEXABVFrustum@@PAVSpherePack@@W4ViewState@@@Z
_TEXT	SEGMENT
_this$ = -8						; size = 4
_pInstance$ = -4					; size = 4
___formal$ = 8						; size = 4
_sphere$ = 12						; size = 4
_state$ = 16						; size = 4
?VisibilityCallback@CCullingManager@@UAEXABVFrustum@@PAVSpherePack@@W4ViewState@@@Z PROC ; CCullingManager::VisibilityCallback, COMDAT
; _this$ = ecx

; 33   : {

  00000	55		 push	 ebp
  00001	8b ec		 mov	 ebp, esp
  00003	51		 push	 ecx
  00004	51		 push	 ecx
  00005	89 4d f8	 mov	 DWORD PTR _this$[ebp], ecx
; File D:\Metin2 Server Files\mainline\SRC_2014\Metin2Client\SphereLib\spherepack.h

; 209  : 	void * GetUserData(void) const { return mUserData; };

  00008	8b 45 0c	 mov	 eax, DWORD PTR _sphere$[ebp]
  0000b	8b 40 44	 mov	 eax, DWORD PTR [eax+68]
  0000e	89 45 fc	 mov	 DWORD PTR _pInstance$[ebp], eax
; File D:\Metin2 Server Files\mainline\SRC_2014\Metin2Client\EterLib\CullingManager.cpp

; 47   : 	if (state == VS_OUTSIDE)

  00011	83 7d 10 02	 cmp	 DWORD PTR _state$[ebp], 2
  00015	75 0a		 jne	 SHORT $LN2@Visibility

; 48   : 	{
; 49   : #ifdef COUNT_SHOWING_SPHERE
; 50   : 		if (pInstance->isShow())
; 51   : 		{
; 52   : 			Tracef("SH : %p  ",sphere->GetUserData());
; 53   : 			showingcount--;
; 54   : 			Tracef("show size : %5d\n",showingcount);
; 55   : 		}
; 56   : 
; 57   : #endif
; 58   : 		pInstance->Hide();

  00017	8b 4d fc	 mov	 ecx, DWORD PTR _pInstance$[ebp]
  0001a	e8 00 00 00 00	 call	 ?Hide@CGraphicObjectInstance@@QAEXXZ ; CGraphicObjectInstance::Hide

; 59   : 	}

  0001f	eb 08		 jmp	 SHORT $LN1@Visibility
$LN2@Visibility:

; 60   : 	else
; 61   : 	{
; 62   : #ifdef COUNT_SHOWING_SPHERE
; 63   : 		if (!pInstance->isShow())
; 64   : 		{
; 65   : 			Tracef("HS : %p  ",sphere->GetUserData());
; 66   : 			showingcount++;
; 67   : 			Tracef("show size : %5d\n",showingcount);
; 68   : 		}
; 69   : #endif
; 70   : 		pInstance->Show();

  00021	8b 4d fc	 mov	 ecx, DWORD PTR _pInstance$[ebp]
  00024	e8 00 00 00 00	 call	 ?Show@CGraphicObjectInstance@@QAEXXZ ; CGraphicObjectInstance::Show
$LN1@Visibility:

; 71   : 	}
; 72   : }

  00029	c9		 leave
  0002a	c2 0c 00	 ret	 12			; 0000000cH
?VisibilityCallback@CCullingManager@@UAEXABVFrustum@@PAVSpherePack@@W4ViewState@@@Z ENDP ; CCullingManager::VisibilityCallback
_TEXT	ENDS
; Function compile flags: /Odspy
; File D:\Metin2 Server Files\mainline\SRC_2014\Metin2Client\EterLib\CullingManager.cpp
; File D:\Metin2 Server Files\mainline\SRC_2014\Metin2Client\SphereLib\spherepack.h
; File D:\Metin2 Server Files\mainline\SRC_2014\Metin2Client\EterLib\CullingManager.cpp
; File C:\Program Files (x86)\Microsoft Visual Studio\2019\Community\VC\Tools\MSVC\14.28.29333\include\type_traits
; File C:\Program Files (x86)\Microsoft Visual Studio\2019\Community\VC\Tools\MSVC\14.28.29333\include\vector
; File D:\Metin2 Server Files\mainline\SRC_2014\Metin2Client\EterLib\CullingManager.cpp
; File C:\Program Files (x86)\Microsoft Visual Studio\2019\Community\VC\Tools\MSVC\14.28.29333\include\vector
; File D:\Metin2 Server Files\mainline\SRC_2014\Metin2Client\EterLib\CullingManager.cpp
;	COMDAT ?RayTraceCallback@CCullingManager@@UAEXABVVector3d@@0M0PAVSpherePack@@@Z
_TEXT	SEGMENT
$T1 = -16						; size = 4
$T2 = -12						; size = 4
$T3 = -8						; size = 4
_this$ = -4						; size = 4
___formal$ = 8						; size = 4
___formal$ = 12						; size = 4
_distance$ = 16						; size = 4
___formal$ = 20						; size = 4
_sphere$ = 24						; size = 4
?RayTraceCallback@CCullingManager@@UAEXABVVector3d@@0M0PAVSpherePack@@@Z PROC ; CCullingManager::RayTraceCallback, COMDAT
; _this$ = ecx

; 16   : {

  00000	55		 push	 ebp
  00001	8b ec		 mov	 ebp, esp
  00003	83 ec 10	 sub	 esp, 16			; 00000010H
  00006	89 4d fc	 mov	 DWORD PTR _this$[ebp], ecx

; 17   : 	//if (state!=VS_OUTSIDE)
; 18   : 	//{
; 19   : 	if (m_RayFarDistance<=0.0f || m_RayFarDistance>=distance)

  00009	8b 45 fc	 mov	 eax, DWORD PTR _this$[ebp]
  0000c	0f 57 c0	 xorps	 xmm0, xmm0
  0000f	0f 2f 40 14	 comiss	 xmm0, DWORD PTR [eax+20]
  00013	73 0e		 jae	 SHORT $LN3@RayTraceCa
  00015	8b 45 fc	 mov	 eax, DWORD PTR _this$[ebp]
  00018	f3 0f 10 40 14	 movss	 xmm0, DWORD PTR [eax+20]
  0001d	0f 2f 45 10	 comiss	 xmm0, DWORD PTR _distance$[ebp]
  00021	72 23		 jb	 SHORT $LN7@RayTraceCa
$LN3@RayTraceCa:
; File D:\Metin2 Server Files\mainline\SRC_2014\Metin2Client\SphereLib\spherepack.h

; 209  : 	void * GetUserData(void) const { return mUserData; };

  00023	8b 45 18	 mov	 eax, DWORD PTR _sphere$[ebp]
  00026	8b 40 44	 mov	 eax, DWORD PTR [eax+68]
  00029	89 45 f8	 mov	 DWORD PTR $T3[ebp], eax
; File D:\Metin2 Server Files\mainline\SRC_2014\Metin2Client\EterLib\CullingManager.cpp

; 25   : 		m_list.push_back((CGraphicObjectInstance *)sphere->GetUserData());

  0002c	8b 45 f8	 mov	 eax, DWORD PTR $T3[ebp]
  0002f	89 45 f4	 mov	 DWORD PTR $T2[ebp], eax
; File C:\Program Files (x86)\Microsoft Visual Studio\2019\Community\VC\Tools\MSVC\14.28.29333\include\type_traits

; 1455 :     return static_cast<remove_reference_t<_Ty>&&>(_Arg);

  00032	8d 45 f4	 lea	 eax, DWORD PTR $T2[ebp]
  00035	89 45 f0	 mov	 DWORD PTR $T1[ebp], eax
; File C:\Program Files (x86)\Microsoft Visual Studio\2019\Community\VC\Tools\MSVC\14.28.29333\include\vector

; 721  :         emplace_back(_STD move(_Val));

  00038	ff 75 f0	 push	 DWORD PTR $T1[ebp]
; File D:\Metin2 Server Files\mainline\SRC_2014\Metin2Client\EterLib\CullingManager.cpp

; 25   : 		m_list.push_back((CGraphicObjectInstance *)sphere->GetUserData());

  0003b	8b 4d fc	 mov	 ecx, DWORD PTR _this$[ebp]
  0003e	83 c1 08	 add	 ecx, 8
; File C:\Program Files (x86)\Microsoft Visual Studio\2019\Community\VC\Tools\MSVC\14.28.29333\include\vector

; 721  :         emplace_back(_STD move(_Val));

  00041	e8 00 00 00 00	 call	 ??$emplace_back@PAVCGraphicObjectInstance@@@?$vector@PAVCGraphicObjectInstance@@V?$allocator@PAVCGraphicObjectInstance@@@std@@@std@@QAEX$$QAPAVCGraphicObjectInstance@@@Z ; std::vector<CGraphicObjectInstance *,std::allocator<CGraphicObjectInstance *> >::emplace_back<CGraphicObjectInstance *>
$LN7@RayTraceCa:
; File D:\Metin2 Server Files\mainline\SRC_2014\Metin2Client\EterLib\CullingManager.cpp

; 29   : }

  00046	c9		 leave
  00047	c2 14 00	 ret	 20			; 00000014H
?RayTraceCallback@CCullingManager@@UAEXABVVector3d@@0M0PAVSpherePack@@@Z ENDP ; CCullingManager::RayTraceCallback
_TEXT	ENDS
; Function compile flags: /Odspy
; File D:\Metin2 Server Files\mainline\SRC_2014\Metin2Client\EterLib\CullingManager.cpp
; File C:\Program Files (x86)\Microsoft Visual Studio\2019\Community\VC\Tools\MSVC\14.28.29333\include\vector
; File D:\Metin2 Server Files\mainline\SRC_2014\Metin2Client\EterLib\CullingManager.cpp
; File D:\Metin2 Server Files\mainline\SRC_2014\Metin2Client\SphereLib\spherepack.h
; File D:\Metin2 Server Files\mainline\SRC_2014\Metin2Client\eterbase\Singleton.h
; File D:\Metin2 Server Files\mainline\SRC_2014\Metin2Client\EterLib\CullingManager.cpp
;	COMDAT ??1CCullingManager@@UAE@XZ
_TEXT	SEGMENT
tv139 = -12						; size = 4
$T1 = -8						; size = 4
_this$ = -4						; size = 4
??1CCullingManager@@UAE@XZ PROC				; CCullingManager::~CCullingManager, COMDAT
; _this$ = ecx

; 154  : {

  00000	55		 push	 ebp
  00001	8b ec		 mov	 ebp, esp
  00003	83 ec 0c	 sub	 esp, 12			; 0000000cH
  00006	89 4d fc	 mov	 DWORD PTR _this$[ebp], ecx
  00009	8b 45 fc	 mov	 eax, DWORD PTR _this$[ebp]
  0000c	c7 00 00 00 00
	00		 mov	 DWORD PTR [eax], OFFSET ??_7CCullingManager@@6B?$CSingleton@VCCullingManager@@@@@
  00012	8b 45 fc	 mov	 eax, DWORD PTR _this$[ebp]
  00015	c7 40 04 00 00
	00 00		 mov	 DWORD PTR [eax+4], OFFSET ??_7CCullingManager@@6BSpherePackCallback@@@
  0001c	8b 45 fc	 mov	 eax, DWORD PTR _this$[ebp]
  0001f	c7 40 08 00 00
	00 00		 mov	 DWORD PTR [eax+8], OFFSET ??_7CCullingManager@@6BCScreen@@@

; 155  : 	delete m_Factory;

  00026	8b 45 fc	 mov	 eax, DWORD PTR _this$[ebp]
  00029	8b 40 1c	 mov	 eax, DWORD PTR [eax+28]
  0002c	89 45 f8	 mov	 DWORD PTR $T1[ebp], eax
  0002f	83 7d f8 00	 cmp	 DWORD PTR $T1[ebp], 0
  00033	74 11		 je	 SHORT $LN3@CCullingMa
  00035	6a 01		 push	 1
  00037	8b 45 f8	 mov	 eax, DWORD PTR $T1[ebp]
  0003a	8b 00		 mov	 eax, DWORD PTR [eax]
  0003c	8b 4d f8	 mov	 ecx, DWORD PTR $T1[ebp]
  0003f	ff 10		 call	 DWORD PTR [eax]
  00041	89 45 f4	 mov	 DWORD PTR tv139[ebp], eax
  00044	eb 04		 jmp	 SHORT $LN1@CCullingMa
$LN3@CCullingMa:
  00046	83 65 f4 00	 and	 DWORD PTR tv139[ebp], 0
$LN1@CCullingMa:

; 156  : }

  0004a	8b 4d fc	 mov	 ecx, DWORD PTR _this$[ebp]
  0004d	83 c1 0c	 add	 ecx, 12			; 0000000cH
; File C:\Program Files (x86)\Microsoft Visual Studio\2019\Community\VC\Tools\MSVC\14.28.29333\include\vector

; 673  :         _Tidy();

  00050	e8 00 00 00 00	 call	 ?_Tidy@?$vector@PAVCGraphicObjectInstance@@V?$allocator@PAVCGraphicObjectInstance@@@std@@@std@@AAEXXZ ; std::vector<CGraphicObjectInstance *,std::allocator<CGraphicObjectInstance *> >::_Tidy
; File D:\Metin2 Server Files\mainline\SRC_2014\Metin2Client\EterLib\CullingManager.cpp

; 156  : }

  00055	8b 4d fc	 mov	 ecx, DWORD PTR _this$[ebp]
  00058	83 c1 08	 add	 ecx, 8
  0005b	e8 00 00 00 00	 call	 ??1CScreen@@UAE@XZ	; CScreen::~CScreen
; File D:\Metin2 Server Files\mainline\SRC_2014\Metin2Client\SphereLib\spherepack.h

; 56   : 	virtual ~SpherePackCallback() {}

  00060	8b 45 fc	 mov	 eax, DWORD PTR _this$[ebp]
  00063	c7 40 04 00 00
	00 00		 mov	 DWORD PTR [eax+4], OFFSET ??_7SpherePackCallback@@6B@
; File D:\Metin2 Server Files\mainline\SRC_2014\Metin2Client\eterbase\Singleton.h

; 19   : 	{ 

  0006a	8b 45 fc	 mov	 eax, DWORD PTR _this$[ebp]
  0006d	c7 00 00 00 00
	00		 mov	 DWORD PTR [eax], OFFSET ??_7?$CSingleton@VCCullingManager@@@@6B@

; 20   : 		assert(ms_singleton);
; 21   : 		ms_singleton = 0; 

  00073	83 25 00 00 00
	00 00		 and	 DWORD PTR ?ms_singleton@?$CSingleton@VCCullingManager@@@@0PAVCCullingManager@@A, 0 ; CSingleton<CCullingManager>::ms_singleton
; File D:\Metin2 Server Files\mainline\SRC_2014\Metin2Client\EterLib\CullingManager.cpp

; 156  : }

  0007a	c9		 leave
  0007b	c3		 ret	 0
??1CCullingManager@@UAE@XZ ENDP				; CCullingManager::~CCullingManager
_TEXT	ENDS
; Function compile flags: /Odspy
; File D:\Metin2 Server Files\mainline\SRC_2014\Metin2Client\EterLib\CullingManager.cpp
; File D:\Metin2 Server Files\mainline\SRC_2014\Metin2Client\eterbase\Singleton.h
; File D:\Metin2 Server Files\mainline\SRC_2014\Metin2Client\EterLib\CullingManager.cpp
; File D:\Metin2 Server Files\mainline\SRC_2014\Metin2Client\SphereLib\spherepack.h
; File D:\Metin2 Server Files\mainline\SRC_2014\Metin2Client\EterLib\CullingManager.cpp
; File C:\Program Files (x86)\Microsoft Visual Studio\2019\Community\VC\Tools\MSVC\14.28.29333\include\vector
; File C:\Program Files (x86)\Microsoft Visual Studio\2019\Community\VC\Tools\MSVC\14.28.29333\include\xmemory
; File C:\Program Files (x86)\Microsoft Visual Studio\2019\Community\VC\Tools\MSVC\14.28.29333\include\vector
; File D:\Metin2 Server Files\mainline\SRC_2014\Metin2Client\EterLib\CullingManager.cpp
;	COMDAT ??0CCullingManager@@QAE@XZ
_TEXT	SEGMENT
$T2 = -48						; size = 4
_this$ = -44						; size = 4
_this$ = -40						; size = 4
_this$ = -36						; size = 4
_offset$3 = -32						; size = 4
tv165 = -28						; size = 4
$T4 = -24						; size = 4
_this$5 = -20						; size = 4
_this$ = -16						; size = 4
__$EHRec$ = -12						; size = 12
??0CCullingManager@@QAE@XZ PROC				; CCullingManager::CCullingManager, COMDAT
; _this$ = ecx

; 144  : {

  00000	55		 push	 ebp
  00001	8b ec		 mov	 ebp, esp
  00003	6a ff		 push	 -1
  00005	68 00 00 00 00	 push	 __ehhandler$??0CCullingManager@@QAE@XZ
  0000a	64 a1 00 00 00
	00		 mov	 eax, DWORD PTR fs:0
  00010	50		 push	 eax
  00011	83 ec 24	 sub	 esp, 36			; 00000024H
  00014	a1 00 00 00 00	 mov	 eax, DWORD PTR ___security_cookie
  00019	33 c5		 xor	 eax, ebp
  0001b	50		 push	 eax
  0001c	8d 45 f4	 lea	 eax, DWORD PTR __$EHRec$[ebp]
  0001f	64 a3 00 00 00
	00		 mov	 DWORD PTR fs:0, eax
  00025	89 4d f0	 mov	 DWORD PTR _this$[ebp], ecx
; File D:\Metin2 Server Files\mainline\SRC_2014\Metin2Client\eterbase\Singleton.h

; 12   : 	{ 

  00028	8b 45 f0	 mov	 eax, DWORD PTR _this$[ebp]
  0002b	c7 00 00 00 00
	00		 mov	 DWORD PTR [eax], OFFSET ??_7?$CSingleton@VCCullingManager@@@@6B@

; 13   : 		assert(!ms_singleton);
; 14   : 		int offset = (int) (T*) 1 - (int) (CSingleton <T>*) (T*) 1; 

  00031	33 c0		 xor	 eax, eax
  00033	89 45 e0	 mov	 DWORD PTR _offset$3[ebp], eax

; 15   : 		ms_singleton = (T*) ((int) this + offset);

  00036	8b 45 f0	 mov	 eax, DWORD PTR _this$[ebp]
  00039	03 45 e0	 add	 eax, DWORD PTR _offset$3[ebp]
  0003c	a3 00 00 00 00	 mov	 DWORD PTR ?ms_singleton@?$CSingleton@VCCullingManager@@@@0PAVCCullingManager@@A, eax ; CSingleton<CCullingManager>::ms_singleton
; File D:\Metin2 Server Files\mainline\SRC_2014\Metin2Client\EterLib\CullingManager.cpp

; 144  : {

  00041	83 65 fc 00	 and	 DWORD PTR __$EHRec$[ebp+8], 0
  00045	8b 45 f0	 mov	 eax, DWORD PTR _this$[ebp]
  00048	83 c0 04	 add	 eax, 4
  0004b	89 45 dc	 mov	 DWORD PTR _this$[ebp], eax
; File D:\Metin2 Server Files\mainline\SRC_2014\Metin2Client\SphereLib\spherepack.h

; 55   : 	SpherePackCallback() {}

  0004e	8b 45 dc	 mov	 eax, DWORD PTR _this$[ebp]
  00051	c7 00 00 00 00
	00		 mov	 DWORD PTR [eax], OFFSET ??_7SpherePackCallback@@6B@
; File D:\Metin2 Server Files\mainline\SRC_2014\Metin2Client\EterLib\CullingManager.cpp

; 144  : {

  00057	c6 45 fc 01	 mov	 BYTE PTR __$EHRec$[ebp+8], 1
  0005b	8b 4d f0	 mov	 ecx, DWORD PTR _this$[ebp]
  0005e	83 c1 08	 add	 ecx, 8
  00061	e8 00 00 00 00	 call	 ??0CScreen@@QAE@XZ	; CScreen::CScreen
  00066	c6 45 fc 02	 mov	 BYTE PTR __$EHRec$[ebp+8], 2
  0006a	8b 45 f0	 mov	 eax, DWORD PTR _this$[ebp]
  0006d	c7 00 00 00 00
	00		 mov	 DWORD PTR [eax], OFFSET ??_7CCullingManager@@6B?$CSingleton@VCCullingManager@@@@@
  00073	8b 45 f0	 mov	 eax, DWORD PTR _this$[ebp]
  00076	c7 40 04 00 00
	00 00		 mov	 DWORD PTR [eax+4], OFFSET ??_7CCullingManager@@6BSpherePackCallback@@@
  0007d	8b 45 f0	 mov	 eax, DWORD PTR _this$[ebp]
  00080	c7 40 08 00 00
	00 00		 mov	 DWORD PTR [eax+8], OFFSET ??_7CCullingManager@@6BCScreen@@@
  00087	8b 45 f0	 mov	 eax, DWORD PTR _this$[ebp]
  0008a	83 c0 0c	 add	 eax, 12			; 0000000cH
  0008d	89 45 d8	 mov	 DWORD PTR _this$[ebp], eax
; File C:\Program Files (x86)\Microsoft Visual Studio\2019\Community\VC\Tools\MSVC\14.28.29333\include\vector

; 445  :     vector() noexcept(is_nothrow_default_constructible_v<_Alty>) : _Mypair(_Zero_then_variadic_args_t{}) {

  00090	8b 45 d8	 mov	 eax, DWORD PTR _this$[ebp]
  00093	89 45 d4	 mov	 DWORD PTR _this$[ebp], eax
; File C:\Program Files (x86)\Microsoft Visual Studio\2019\Community\VC\Tools\MSVC\14.28.29333\include\xmemory

; 1339 :         : _Ty1(), _Myval2(_STD forward<_Other2>(_Val2)...) {}

  00096	8b 45 d4	 mov	 eax, DWORD PTR _this$[ebp]
  00099	89 45 ec	 mov	 DWORD PTR _this$5[ebp], eax
; File C:\Program Files (x86)\Microsoft Visual Studio\2019\Community\VC\Tools\MSVC\14.28.29333\include\vector

; 375  :     _Vector_val() noexcept : _Myfirst(), _Mylast(), _Myend() {}

  0009c	8b 45 ec	 mov	 eax, DWORD PTR _this$5[ebp]
  0009f	83 20 00	 and	 DWORD PTR [eax], 0
  000a2	8b 45 ec	 mov	 eax, DWORD PTR _this$5[ebp]
  000a5	83 60 04 00	 and	 DWORD PTR [eax+4], 0
  000a9	8b 45 ec	 mov	 eax, DWORD PTR _this$5[ebp]
  000ac	83 60 08 00	 and	 DWORD PTR [eax+8], 0
; File D:\Metin2 Server Files\mainline\SRC_2014\Metin2Client\EterLib\CullingManager.cpp

; 144  : {

  000b0	c6 45 fc 03	 mov	 BYTE PTR __$EHRec$[ebp+8], 3

; 145  : 	m_Factory = new SpherePackFactory(

  000b4	6a 40		 push	 64			; 00000040H
  000b6	e8 00 00 00 00	 call	 ??2@YAPAXI@Z		; operator new
  000bb	59		 pop	 ecx
  000bc	89 45 e8	 mov	 DWORD PTR $T4[ebp], eax
  000bf	c6 45 fc 04	 mov	 BYTE PTR __$EHRec$[ebp+8], 4
  000c3	83 7d e8 00	 cmp	 DWORD PTR $T4[ebp], 0
  000c7	74 3c		 je	 SHORT $LN3@CCullingMa
  000c9	51		 push	 ecx
  000ca	f3 0f 10 05 00
	00 00 00	 movss	 xmm0, DWORD PTR __real@43c80000
  000d2	f3 0f 11 04 24	 movss	 DWORD PTR [esp], xmm0
  000d7	51		 push	 ecx
  000d8	f3 0f 10 05 00
	00 00 00	 movss	 xmm0, DWORD PTR __real@44c80000
  000e0	f3 0f 11 04 24	 movss	 DWORD PTR [esp], xmm0
  000e5	51		 push	 ecx
  000e6	f3 0f 10 05 00
	00 00 00	 movss	 xmm0, DWORD PTR __real@45c80000
  000ee	f3 0f 11 04 24	 movss	 DWORD PTR [esp], xmm0
  000f3	68 10 27 00 00	 push	 10000			; 00002710H
  000f8	8b 4d e8	 mov	 ecx, DWORD PTR $T4[ebp]
  000fb	e8 00 00 00 00	 call	 ??0SpherePackFactory@@QAE@HMMM@Z ; SpherePackFactory::SpherePackFactory
  00100	89 45 e4	 mov	 DWORD PTR tv165[ebp], eax
  00103	eb 04		 jmp	 SHORT $LN4@CCullingMa
$LN3@CCullingMa:
  00105	83 65 e4 00	 and	 DWORD PTR tv165[ebp], 0
$LN4@CCullingMa:
  00109	8b 45 e4	 mov	 eax, DWORD PTR tv165[ebp]
  0010c	89 45 d0	 mov	 DWORD PTR $T2[ebp], eax
  0010f	c6 45 fc 03	 mov	 BYTE PTR __$EHRec$[ebp+8], 3
  00113	8b 45 f0	 mov	 eax, DWORD PTR _this$[ebp]
  00116	8b 4d d0	 mov	 ecx, DWORD PTR $T2[ebp]
  00119	89 48 1c	 mov	 DWORD PTR [eax+28], ecx

; 146  : 		10000,	// maximum count
; 147  : 		6400,	// root radius
; 148  : 		1600,	// leaf radius
; 149  : 		400		// extra radius
; 150  : 		);
; 151  : }

  0011c	83 4d fc ff	 or	 DWORD PTR __$EHRec$[ebp+8], -1
  00120	8b 45 f0	 mov	 eax, DWORD PTR _this$[ebp]
  00123	8b 4d f4	 mov	 ecx, DWORD PTR __$EHRec$[ebp]
  00126	64 89 0d 00 00
	00 00		 mov	 DWORD PTR fs:0, ecx
  0012d	59		 pop	 ecx
  0012e	c9		 leave
  0012f	c3		 ret	 0
_TEXT	ENDS
;	COMDAT text$x
text$x	SEGMENT
__unwindfunclet$??0CCullingManager@@QAE@XZ$0:
  00000	8b 4d f0	 mov	 ecx, DWORD PTR _this$[ebp]
  00003	e9 00 00 00 00	 jmp	 ??1?$CSingleton@VCCullingManager@@@@UAE@XZ ; CSingleton<CCullingManager>::~CSingleton<CCullingManager>
__unwindfunclet$??0CCullingManager@@QAE@XZ$1:
  00008	8b 4d f0	 mov	 ecx, DWORD PTR _this$[ebp]
  0000b	83 c1 04	 add	 ecx, 4
  0000e	e9 00 00 00 00	 jmp	 ??1SpherePackCallback@@UAE@XZ ; SpherePackCallback::~SpherePackCallback
__unwindfunclet$??0CCullingManager@@QAE@XZ$2:
  00013	8b 4d f0	 mov	 ecx, DWORD PTR _this$[ebp]
  00016	83 c1 08	 add	 ecx, 8
  00019	e9 00 00 00 00	 jmp	 ??1CScreen@@UAE@XZ	; CScreen::~CScreen
__unwindfunclet$??0CCullingManager@@QAE@XZ$3:
  0001e	8b 4d f0	 mov	 ecx, DWORD PTR _this$[ebp]
  00021	83 c1 0c	 add	 ecx, 12			; 0000000cH
  00024	e9 00 00 00 00	 jmp	 ??1?$vector@PAVCGraphicObjectInstance@@V?$allocator@PAVCGraphicObjectInstance@@@std@@@std@@QAE@XZ ; std::vector<CGraphicObjectInstance *,std::allocator<CGraphicObjectInstance *> >::~vector<CGraphicObjectInstance *,std::allocator<CGraphicObjectInstance *> >
__unwindfunclet$??0CCullingManager@@QAE@XZ$4:
  00029	6a 40		 push	 64			; 00000040H
  0002b	ff 75 e8	 push	 DWORD PTR $T4[ebp]
  0002e	e8 00 00 00 00	 call	 ??3@YAXPAXI@Z		; operator delete
  00033	59		 pop	 ecx
  00034	59		 pop	 ecx
  00035	c3		 ret	 0
  00036	cc		 int	 3
  00037	cc		 int	 3
  00038	cc		 int	 3
  00039	cc		 int	 3
  0003a	cc		 int	 3
__ehhandler$??0CCullingManager@@QAE@XZ:
  0003b	90		 npad	 1
  0003c	90		 npad	 1
  0003d	8b 54 24 08	 mov	 edx, DWORD PTR [esp+8]
  00041	8d 42 0c	 lea	 eax, DWORD PTR [edx+12]
  00044	8b 4a d8	 mov	 ecx, DWORD PTR [edx-40]
  00047	33 c8		 xor	 ecx, eax
  00049	e8 00 00 00 00	 call	 @__security_check_cookie@4
  0004e	b8 00 00 00 00	 mov	 eax, OFFSET __ehfuncinfo$??0CCullingManager@@QAE@XZ
  00053	e9 00 00 00 00	 jmp	 ___CxxFrameHandler3
text$x	ENDS
??0CCullingManager@@QAE@XZ ENDP				; CCullingManager::CCullingManager
; Function compile flags: /Odspy
; File D:\Metin2 Server Files\mainline\SRC_2014\Metin2Client\eterbase\Singleton.h
;	COMDAT ??_G?$CSingleton@VCCullingManager@@@@UAEPAXI@Z
_TEXT	SEGMENT
_this$ = -4						; size = 4
___flags$ = 8						; size = 4
??_G?$CSingleton@VCCullingManager@@@@UAEPAXI@Z PROC	; CSingleton<CCullingManager>::`scalar deleting destructor', COMDAT
; _this$ = ecx
  00000	55		 push	 ebp
  00001	8b ec		 mov	 ebp, esp
  00003	51		 push	 ecx
  00004	89 4d fc	 mov	 DWORD PTR _this$[ebp], ecx

; 19   : 	{ 

  00007	8b 45 fc	 mov	 eax, DWORD PTR _this$[ebp]
  0000a	c7 00 00 00 00
	00		 mov	 DWORD PTR [eax], OFFSET ??_7?$CSingleton@VCCullingManager@@@@6B@

; 20   : 		assert(ms_singleton);
; 21   : 		ms_singleton = 0; 

  00010	83 25 00 00 00
	00 00		 and	 DWORD PTR ?ms_singleton@?$CSingleton@VCCullingManager@@@@0PAVCCullingManager@@A, 0 ; CSingleton<CCullingManager>::ms_singleton
  00017	8b 45 08	 mov	 eax, DWORD PTR ___flags$[ebp]
  0001a	83 e0 01	 and	 eax, 1
  0001d	74 0c		 je	 SHORT $LN2@scalar
  0001f	6a 04		 push	 4
  00021	ff 75 fc	 push	 DWORD PTR _this$[ebp]
  00024	e8 00 00 00 00	 call	 ??3@YAXPAXI@Z		; operator delete
  00029	59		 pop	 ecx
  0002a	59		 pop	 ecx
$LN2@scalar:
  0002b	8b 45 fc	 mov	 eax, DWORD PTR _this$[ebp]
  0002e	c9		 leave
  0002f	c2 04 00	 ret	 4
??_G?$CSingleton@VCCullingManager@@@@UAEPAXI@Z ENDP	; CSingleton<CCullingManager>::`scalar deleting destructor'
_TEXT	ENDS
; Function compile flags: /Odspy
; File D:\Metin2 Server Files\mainline\SRC_2014\Metin2Client\eterbase\Singleton.h
;	COMDAT ??1?$CSingleton@VCCullingManager@@@@UAE@XZ
_TEXT	SEGMENT
_this$ = -4						; size = 4
??1?$CSingleton@VCCullingManager@@@@UAE@XZ PROC		; CSingleton<CCullingManager>::~CSingleton<CCullingManager>, COMDAT
; _this$ = ecx

; 19   : 	{ 

  00000	55		 push	 ebp
  00001	8b ec		 mov	 ebp, esp
  00003	51		 push	 ecx
  00004	89 4d fc	 mov	 DWORD PTR _this$[ebp], ecx
  00007	8b 45 fc	 mov	 eax, DWORD PTR _this$[ebp]
  0000a	c7 00 00 00 00
	00		 mov	 DWORD PTR [eax], OFFSET ??_7?$CSingleton@VCCullingManager@@@@6B@

; 20   : 		assert(ms_singleton);
; 21   : 		ms_singleton = 0; 

  00010	83 25 00 00 00
	00 00		 and	 DWORD PTR ?ms_singleton@?$CSingleton@VCCullingManager@@@@0PAVCCullingManager@@A, 0 ; CSingleton<CCullingManager>::ms_singleton

; 22   : 	}

  00017	c9		 leave
  00018	c3		 ret	 0
??1?$CSingleton@VCCullingManager@@@@UAE@XZ ENDP		; CSingleton<CCullingManager>::~CSingleton<CCullingManager>
_TEXT	ENDS
; Function compile flags: /Odspy
; File D:\Metin2 Server Files\mainline\SRC_2014\Metin2Client\SphereLib\spherepack.h
;	COMDAT ??_GSpherePackCallback@@UAEPAXI@Z
_TEXT	SEGMENT
_this$ = -4						; size = 4
___flags$ = 8						; size = 4
??_GSpherePackCallback@@UAEPAXI@Z PROC			; SpherePackCallback::`scalar deleting destructor', COMDAT
; _this$ = ecx
  00000	55		 push	 ebp
  00001	8b ec		 mov	 ebp, esp
  00003	51		 push	 ecx
  00004	89 4d fc	 mov	 DWORD PTR _this$[ebp], ecx

; 56   : 	virtual ~SpherePackCallback() {}

  00007	8b 45 fc	 mov	 eax, DWORD PTR _this$[ebp]
  0000a	c7 00 00 00 00
	00		 mov	 DWORD PTR [eax], OFFSET ??_7SpherePackCallback@@6B@
  00010	8b 45 08	 mov	 eax, DWORD PTR ___flags$[ebp]
  00013	83 e0 01	 and	 eax, 1
  00016	74 0c		 je	 SHORT $LN2@scalar
  00018	6a 04		 push	 4
  0001a	ff 75 fc	 push	 DWORD PTR _this$[ebp]
  0001d	e8 00 00 00 00	 call	 ??3@YAXPAXI@Z		; operator delete
  00022	59		 pop	 ecx
  00023	59		 pop	 ecx
$LN2@scalar:
  00024	8b 45 fc	 mov	 eax, DWORD PTR _this$[ebp]
  00027	c9		 leave
  00028	c2 04 00	 ret	 4
??_GSpherePackCallback@@UAEPAXI@Z ENDP			; SpherePackCallback::`scalar deleting destructor'
_TEXT	ENDS
; Function compile flags: /Odspy
; File D:\Metin2 Server Files\mainline\SRC_2014\Metin2Client\SphereLib\spherepack.h
;	COMDAT ?PointTest2dCallback@SpherePackCallback@@UAEXABVVector3d@@PAVSpherePack@@W4ViewState@@@Z
_TEXT	SEGMENT
_this$ = -4						; size = 4
_searchpos$ = 8						; size = 4
_sphere$ = 12						; size = 4
_state$ = 16						; size = 4
?PointTest2dCallback@SpherePackCallback@@UAEXABVVector3d@@PAVSpherePack@@W4ViewState@@@Z PROC ; SpherePackCallback::PointTest2dCallback, COMDAT
; _this$ = ecx

; 79   : 	{};

  00000	55		 push	 ebp
  00001	8b ec		 mov	 ebp, esp
  00003	51		 push	 ecx
  00004	89 4d fc	 mov	 DWORD PTR _this$[ebp], ecx
  00007	c9		 leave
  00008	c2 0c 00	 ret	 12			; 0000000cH
?PointTest2dCallback@SpherePackCallback@@UAEXABVVector3d@@PAVSpherePack@@W4ViewState@@@Z ENDP ; SpherePackCallback::PointTest2dCallback
_TEXT	ENDS
; Function compile flags: /Odspy
; File D:\Metin2 Server Files\mainline\SRC_2014\Metin2Client\SphereLib\spherepack.h
;	COMDAT ?RangeTestCallback@SpherePackCallback@@UAEXABVVector3d@@MPAVSpherePack@@W4ViewState@@@Z
_TEXT	SEGMENT
_this$ = -4						; size = 4
_searchpos$ = 8						; size = 4
_distance$ = 12						; size = 4
_sphere$ = 16						; size = 4
_state$ = 20						; size = 4
?RangeTestCallback@SpherePackCallback@@UAEXABVVector3d@@MPAVSpherePack@@W4ViewState@@@Z PROC ; SpherePackCallback::RangeTestCallback, COMDAT
; _this$ = ecx

; 74   : 	{};

  00000	55		 push	 ebp
  00001	8b ec		 mov	 ebp, esp
  00003	51		 push	 ecx
  00004	89 4d fc	 mov	 DWORD PTR _this$[ebp], ecx
  00007	c9		 leave
  00008	c2 10 00	 ret	 16			; 00000010H
?RangeTestCallback@SpherePackCallback@@UAEXABVVector3d@@MPAVSpherePack@@W4ViewState@@@Z ENDP ; SpherePackCallback::RangeTestCallback
_TEXT	ENDS
; Function compile flags: /Odspy
; File D:\Metin2 Server Files\mainline\SRC_2014\Metin2Client\SphereLib\spherepack.h
;	COMDAT ?RayTraceCallback@SpherePackCallback@@UAEXABVVector3d@@0M0PAVSpherePack@@@Z
_TEXT	SEGMENT
_this$ = -4						; size = 4
_p1$ = 8						; size = 4
_dir$ = 12						; size = 4
_distance$ = 16						; size = 4
_sect$ = 20						; size = 4
_sphere$ = 24						; size = 4
?RayTraceCallback@SpherePackCallback@@UAEXABVVector3d@@0M0PAVSpherePack@@@Z PROC ; SpherePackCallback::RayTraceCallback, COMDAT
; _this$ = ecx

; 68   : 	{};

  00000	55		 push	 ebp
  00001	8b ec		 mov	 ebp, esp
  00003	51		 push	 ecx
  00004	89 4d fc	 mov	 DWORD PTR _this$[ebp], ecx
  00007	c9		 leave
  00008	c2 14 00	 ret	 20			; 00000014H
?RayTraceCallback@SpherePackCallback@@UAEXABVVector3d@@0M0PAVSpherePack@@@Z ENDP ; SpherePackCallback::RayTraceCallback
_TEXT	ENDS
; Function compile flags: /Odspy
; File D:\Metin2 Server Files\mainline\SRC_2014\Metin2Client\SphereLib\spherepack.h
;	COMDAT ?VisibilityCallback@SpherePackCallback@@UAEXABVFrustum@@PAVSpherePack@@W4ViewState@@@Z
_TEXT	SEGMENT
_this$ = -4						; size = 4
_f$ = 8							; size = 4
_sphere$ = 12						; size = 4
_state$ = 16						; size = 4
?VisibilityCallback@SpherePackCallback@@UAEXABVFrustum@@PAVSpherePack@@W4ViewState@@@Z PROC ; SpherePackCallback::VisibilityCallback, COMDAT
; _this$ = ecx

; 61   : 	{};

  00000	55		 push	 ebp
  00001	8b ec		 mov	 ebp, esp
  00003	51		 push	 ecx
  00004	89 4d fc	 mov	 DWORD PTR _this$[ebp], ecx
  00007	c9		 leave
  00008	c2 0c 00	 ret	 12			; 0000000cH
?VisibilityCallback@SpherePackCallback@@UAEXABVFrustum@@PAVSpherePack@@W4ViewState@@@Z ENDP ; SpherePackCallback::VisibilityCallback
_TEXT	ENDS
; Function compile flags: /Odspy
; File D:\Metin2 Server Files\mainline\SRC_2014\Metin2Client\SphereLib\spherepack.h
;	COMDAT ??1SpherePackCallback@@UAE@XZ
_TEXT	SEGMENT
_this$ = -4						; size = 4
??1SpherePackCallback@@UAE@XZ PROC			; SpherePackCallback::~SpherePackCallback, COMDAT
; _this$ = ecx

; 56   : 	virtual ~SpherePackCallback() {}

  00000	55		 push	 ebp
  00001	8b ec		 mov	 ebp, esp
  00003	51		 push	 ecx
  00004	89 4d fc	 mov	 DWORD PTR _this$[ebp], ecx
  00007	8b 45 fc	 mov	 eax, DWORD PTR _this$[ebp]
  0000a	c7 00 00 00 00
	00		 mov	 DWORD PTR [eax], OFFSET ??_7SpherePackCallback@@6B@
  00010	c9		 leave
  00011	c3		 ret	 0
??1SpherePackCallback@@UAE@XZ ENDP			; SpherePackCallback::~SpherePackCallback
_TEXT	ENDS
; Function compile flags: /Odspy
; File C:\Program Files (x86)\Microsoft Visual Studio\2019\Community\VC\Tools\MSVC\14.28.29333\include\xmemory
;	COMDAT ??$_Allocate_manually_vector_aligned@U_Default_allocate_traits@std@@@std@@YAPAXI@Z
_TEXT	SEGMENT
__Ptr$ = -12						; size = 4
__Block_size$ = -8					; size = 4
__Ptr_container$ = -4					; size = 4
__Bytes$ = 8						; size = 4
??$_Allocate_manually_vector_aligned@U_Default_allocate_traits@std@@@std@@YAPAXI@Z PROC ; std::_Allocate_manually_vector_aligned<std::_Default_allocate_traits>, COMDAT

; 113  : __declspec(allocator) void* _Allocate_manually_vector_aligned(const size_t _Bytes) {

  00000	55		 push	 ebp
  00001	8b ec		 mov	 ebp, esp
  00003	83 ec 0c	 sub	 esp, 12			; 0000000cH

; 114  :     // allocate _Bytes manually aligned to at least _Big_allocation_alignment
; 115  :     const size_t _Block_size = _Non_user_size + _Bytes;

  00006	8b 45 08	 mov	 eax, DWORD PTR __Bytes$[ebp]
  00009	83 c0 23	 add	 eax, 35			; 00000023H
  0000c	89 45 f8	 mov	 DWORD PTR __Block_size$[ebp], eax

; 116  :     if (_Block_size <= _Bytes) {

  0000f	8b 45 f8	 mov	 eax, DWORD PTR __Block_size$[ebp]
  00012	3b 45 08	 cmp	 eax, DWORD PTR __Bytes$[ebp]
  00015	77 05		 ja	 SHORT $LN12@Allocate_m

; 117  :         _Throw_bad_array_new_length(); // add overflow

  00017	e8 00 00 00 00	 call	 ?_Throw_bad_array_new_length@std@@YAXXZ ; std::_Throw_bad_array_new_length
$LN12@Allocate_m:

; 77   :         return ::operator new(_Bytes);

  0001c	ff 75 f8	 push	 DWORD PTR __Block_size$[ebp]
  0001f	e8 00 00 00 00	 call	 ??2@YAPAXI@Z		; operator new
  00024	59		 pop	 ecx

; 118  :     }
; 119  : 
; 120  :     const uintptr_t _Ptr_container = reinterpret_cast<uintptr_t>(_Traits::_Allocate(_Block_size));

  00025	89 45 fc	 mov	 DWORD PTR __Ptr_container$[ebp], eax
$LN4@Allocate_m:

; 121  :     _STL_VERIFY(_Ptr_container != 0, "invalid argument"); // validate even in release since we're doing p[-1]

  00028	83 7d fc 00	 cmp	 DWORD PTR __Ptr_container$[ebp], 0
  0002c	74 02		 je	 SHORT $LN7@Allocate_m
  0002e	eb 09		 jmp	 SHORT $LN2@Allocate_m
$LN7@Allocate_m:
  00030	e8 00 00 00 00	 call	 __invalid_parameter_noinfo_noreturn
  00035	33 c0		 xor	 eax, eax
  00037	75 f7		 jne	 SHORT $LN7@Allocate_m
$LN2@Allocate_m:
  00039	33 c0		 xor	 eax, eax
  0003b	75 eb		 jne	 SHORT $LN4@Allocate_m

; 122  :     void* const _Ptr = reinterpret_cast<void*>((_Ptr_container + _Non_user_size) & ~(_Big_allocation_alignment - 1));

  0003d	8b 45 fc	 mov	 eax, DWORD PTR __Ptr_container$[ebp]
  00040	83 c0 23	 add	 eax, 35			; 00000023H
  00043	83 e0 e0	 and	 eax, -32		; ffffffe0H
  00046	89 45 f4	 mov	 DWORD PTR __Ptr$[ebp], eax

; 123  :     static_cast<uintptr_t*>(_Ptr)[-1] = _Ptr_container;

  00049	6a 04		 push	 4
  0004b	58		 pop	 eax
  0004c	6b c0 ff	 imul	 eax, eax, -1
  0004f	8b 4d f4	 mov	 ecx, DWORD PTR __Ptr$[ebp]
  00052	8b 55 fc	 mov	 edx, DWORD PTR __Ptr_container$[ebp]
  00055	89 14 01	 mov	 DWORD PTR [ecx+eax], edx

; 124  : 
; 125  : #ifdef _DEBUG
; 126  :     static_cast<uintptr_t*>(_Ptr)[-2] = _Big_allocation_sentinel;
; 127  : #endif // _DEBUG
; 128  :     return _Ptr;

  00058	8b 45 f4	 mov	 eax, DWORD PTR __Ptr$[ebp]
$LN11@Allocate_m:

; 129  : }

  0005b	c9		 leave
  0005c	c3		 ret	 0
??$_Allocate_manually_vector_aligned@U_Default_allocate_traits@std@@@std@@YAPAXI@Z ENDP ; std::_Allocate_manually_vector_aligned<std::_Default_allocate_traits>
_TEXT	ENDS
; Function compile flags: /Odspy
; File C:\Program Files (x86)\Microsoft Visual Studio\2019\Community\VC\Tools\MSVC\14.28.29333\include\xmemory
;	COMDAT ??$_Allocate@$07U_Default_allocate_traits@std@@$0A@@std@@YAPAXI@Z
_TEXT	SEGMENT
__Bytes$ = 8						; size = 4
??$_Allocate@$07U_Default_allocate_traits@std@@$0A@@std@@YAPAXI@Z PROC ; std::_Allocate<8,std::_Default_allocate_traits,0>, COMDAT

; 197  : __declspec(allocator) void* _Allocate(const size_t _Bytes) {

  00000	55		 push	 ebp
  00001	8b ec		 mov	 ebp, esp

; 198  :     // allocate _Bytes when !_HAS_ALIGNED_NEW || _Align <= __STDCPP_DEFAULT_NEW_ALIGNMENT__
; 199  : #if defined(_M_IX86) || defined(_M_X64)
; 200  :     if (_Bytes >= _Big_allocation_threshold) { // boost the alignment of big allocations to help autovectorization

  00003	81 7d 08 00 10
	00 00		 cmp	 DWORD PTR __Bytes$[ebp], 4096 ; 00001000H
  0000a	72 0b		 jb	 SHORT $LN2@Allocate

; 201  :         return _Allocate_manually_vector_aligned<_Traits>(_Bytes);

  0000c	ff 75 08	 push	 DWORD PTR __Bytes$[ebp]
  0000f	e8 00 00 00 00	 call	 ??$_Allocate_manually_vector_aligned@U_Default_allocate_traits@std@@@std@@YAPAXI@Z ; std::_Allocate_manually_vector_aligned<std::_Default_allocate_traits>
  00014	59		 pop	 ecx
  00015	eb 13		 jmp	 SHORT $LN1@Allocate
$LN2@Allocate:

; 202  :     }
; 203  : #endif // defined(_M_IX86) || defined(_M_X64)
; 204  : 
; 205  :     if (_Bytes != 0) {

  00017	83 7d 08 00	 cmp	 DWORD PTR __Bytes$[ebp], 0
  0001b	74 0b		 je	 SHORT $LN3@Allocate

; 77   :         return ::operator new(_Bytes);

  0001d	ff 75 08	 push	 DWORD PTR __Bytes$[ebp]
  00020	e8 00 00 00 00	 call	 ??2@YAPAXI@Z		; operator new
  00025	59		 pop	 ecx

; 206  :         return _Traits::_Allocate(_Bytes);

  00026	eb 02		 jmp	 SHORT $LN1@Allocate
$LN3@Allocate:

; 207  :     }
; 208  : 
; 209  :     return nullptr;

  00028	33 c0		 xor	 eax, eax
$LN1@Allocate:

; 210  : }

  0002a	5d		 pop	 ebp
  0002b	c3		 ret	 0
??$_Allocate@$07U_Default_allocate_traits@std@@$0A@@std@@YAPAXI@Z ENDP ; std::_Allocate<8,std::_Default_allocate_traits,0>
_TEXT	ENDS
; Function compile flags: /Odspy
; File C:\Program Files (x86)\Microsoft Visual Studio\2019\Community\VC\Tools\MSVC\14.28.29333\include\xmemory
;	COMDAT ??$_Deallocate@$07$0A@@std@@YAXPAXI@Z
_TEXT	SEGMENT
__$EHRec$ = -12						; size = 12
__Ptr$ = 8						; size = 4
__Bytes$ = 12						; size = 4
??$_Deallocate@$07$0A@@std@@YAXPAXI@Z PROC		; std::_Deallocate<8,0>, COMDAT

; 213  : void _Deallocate(void* _Ptr, size_t _Bytes) noexcept {

  00000	55		 push	 ebp
  00001	8b ec		 mov	 ebp, esp
  00003	6a ff		 push	 -1
  00005	68 00 00 00 00	 push	 __ehhandler$??$_Deallocate@$07$0A@@std@@YAXPAXI@Z
  0000a	64 a1 00 00 00
	00		 mov	 eax, DWORD PTR fs:0
  00010	50		 push	 eax
  00011	a1 00 00 00 00	 mov	 eax, DWORD PTR ___security_cookie
  00016	33 c5		 xor	 eax, ebp
  00018	50		 push	 eax
  00019	8d 45 f4	 lea	 eax, DWORD PTR __$EHRec$[ebp]
  0001c	64 a3 00 00 00
	00		 mov	 DWORD PTR fs:0, eax

; 214  :     // deallocate storage allocated by _Allocate when !_HAS_ALIGNED_NEW || _Align <= __STDCPP_DEFAULT_NEW_ALIGNMENT__
; 215  : #if defined(_M_IX86) || defined(_M_X64)
; 216  :     if (_Bytes >= _Big_allocation_threshold) { // boost the alignment of big allocations to help autovectorization

  00022	81 7d 0c 00 10
	00 00		 cmp	 DWORD PTR __Bytes$[ebp], 4096 ; 00001000H
  00029	72 0f		 jb	 SHORT $LN2@Deallocate

; 217  :         _Adjust_manually_vector_aligned(_Ptr, _Bytes);

  0002b	8d 45 0c	 lea	 eax, DWORD PTR __Bytes$[ebp]
  0002e	50		 push	 eax
  0002f	8d 45 08	 lea	 eax, DWORD PTR __Ptr$[ebp]
  00032	50		 push	 eax
  00033	e8 00 00 00 00	 call	 ?_Adjust_manually_vector_aligned@std@@YAXAAPAXAAI@Z ; std::_Adjust_manually_vector_aligned
  00038	59		 pop	 ecx
  00039	59		 pop	 ecx
$LN2@Deallocate:

; 218  :     }
; 219  : #endif // defined(_M_IX86) || defined(_M_X64)
; 220  : 
; 221  :     ::operator delete(_Ptr, _Bytes);

  0003a	ff 75 0c	 push	 DWORD PTR __Bytes$[ebp]
  0003d	ff 75 08	 push	 DWORD PTR __Ptr$[ebp]
  00040	e8 00 00 00 00	 call	 ??3@YAXPAXI@Z		; operator delete
  00045	59		 pop	 ecx
  00046	59		 pop	 ecx

; 222  : }

  00047	8b 4d f4	 mov	 ecx, DWORD PTR __$EHRec$[ebp]
  0004a	64 89 0d 00 00
	00 00		 mov	 DWORD PTR fs:0, ecx
  00051	59		 pop	 ecx
  00052	c9		 leave
  00053	c3		 ret	 0
  00054	cc		 int	 3
  00055	cc		 int	 3
  00056	cc		 int	 3
  00057	cc		 int	 3
  00058	cc		 int	 3
_TEXT	ENDS
;	COMDAT text$x
text$x	SEGMENT
__ehhandler$??$_Deallocate@$07$0A@@std@@YAXPAXI@Z:
  00000	90		 npad	 1
  00001	90		 npad	 1
  00002	8b 54 24 08	 mov	 edx, DWORD PTR [esp+8]
  00006	8d 42 0c	 lea	 eax, DWORD PTR [edx+12]
  00009	8b 4a fc	 mov	 ecx, DWORD PTR [edx-4]
  0000c	33 c8		 xor	 ecx, eax
  0000e	e8 00 00 00 00	 call	 @__security_check_cookie@4
  00013	b8 00 00 00 00	 mov	 eax, OFFSET __ehfuncinfo$??$_Deallocate@$07$0A@@std@@YAXPAXI@Z
  00018	e9 00 00 00 00	 jmp	 ___CxxFrameHandler3
text$x	ENDS
??$_Deallocate@$07$0A@@std@@YAXPAXI@Z ENDP		; std::_Deallocate<8,0>
; Function compile flags: /Odspy
; File C:\Program Files (x86)\Microsoft Visual Studio\2019\Community\VC\Tools\MSVC\14.28.29333\include\xmemory
;	COMDAT ?_Adjust_manually_vector_aligned@std@@YAXAAPAXAAI@Z
_TEXT	SEGMENT
__Min_back_shift$ = -16					; size = 4
__Ptr_user$ = -12					; size = 4
__Ptr_container$ = -8					; size = 4
__Back_shift$ = -4					; size = 4
__Ptr$ = 8						; size = 4
__Bytes$ = 12						; size = 4
?_Adjust_manually_vector_aligned@std@@YAXAAPAXAAI@Z PROC ; std::_Adjust_manually_vector_aligned, COMDAT

; 132  : inline void _Adjust_manually_vector_aligned(void*& _Ptr, size_t& _Bytes) {

  00000	55		 push	 ebp
  00001	8b ec		 mov	 ebp, esp
  00003	83 ec 10	 sub	 esp, 16			; 00000010H

; 133  :     // adjust parameters from _Allocate_manually_vector_aligned to pass to operator delete
; 134  :     _Bytes += _Non_user_size;

  00006	8b 45 0c	 mov	 eax, DWORD PTR __Bytes$[ebp]
  00009	8b 00		 mov	 eax, DWORD PTR [eax]
  0000b	83 c0 23	 add	 eax, 35			; 00000023H
  0000e	8b 4d 0c	 mov	 ecx, DWORD PTR __Bytes$[ebp]
  00011	89 01		 mov	 DWORD PTR [ecx], eax

; 135  : 
; 136  :     const uintptr_t* const _Ptr_user = reinterpret_cast<uintptr_t*>(_Ptr);

  00013	8b 45 08	 mov	 eax, DWORD PTR __Ptr$[ebp]
  00016	8b 00		 mov	 eax, DWORD PTR [eax]
  00018	89 45 f4	 mov	 DWORD PTR __Ptr_user$[ebp], eax

; 137  :     const uintptr_t _Ptr_container   = _Ptr_user[-1];

  0001b	6a 04		 push	 4
  0001d	58		 pop	 eax
  0001e	6b c0 ff	 imul	 eax, eax, -1
  00021	8b 4d f4	 mov	 ecx, DWORD PTR __Ptr_user$[ebp]
  00024	8b 04 01	 mov	 eax, DWORD PTR [ecx+eax]
  00027	89 45 f8	 mov	 DWORD PTR __Ptr_container$[ebp], eax

; 138  : 
; 139  :     // If the following asserts, it likely means that we are performing
; 140  :     // an aligned delete on memory coming from an unaligned allocation.
; 141  :     _STL_ASSERT(_Ptr_user[-2] == _Big_allocation_sentinel, "invalid argument");
; 142  : 
; 143  :     // Extra paranoia on aligned allocation/deallocation; ensure _Ptr_container is
; 144  :     // in range [_Min_back_shift, _Non_user_size]
; 145  : #ifdef _DEBUG
; 146  :     constexpr uintptr_t _Min_back_shift = 2 * sizeof(void*);
; 147  : #else // ^^^ _DEBUG ^^^ // vvv !_DEBUG vvv
; 148  :     constexpr uintptr_t _Min_back_shift = sizeof(void*);

  0002a	c7 45 f0 04 00
	00 00		 mov	 DWORD PTR __Min_back_shift$[ebp], 4

; 149  : #endif // _DEBUG
; 150  :     const uintptr_t _Back_shift = reinterpret_cast<uintptr_t>(_Ptr) - _Ptr_container;

  00031	8b 45 08	 mov	 eax, DWORD PTR __Ptr$[ebp]
  00034	8b 00		 mov	 eax, DWORD PTR [eax]
  00036	2b 45 f8	 sub	 eax, DWORD PTR __Ptr_container$[ebp]
  00039	89 45 fc	 mov	 DWORD PTR __Back_shift$[ebp], eax
$LN4@Adjust_man:

; 151  :     _STL_VERIFY(_Back_shift >= _Min_back_shift && _Back_shift <= _Non_user_size, "invalid argument");

  0003c	83 7d fc 04	 cmp	 DWORD PTR __Back_shift$[ebp], 4
  00040	72 08		 jb	 SHORT $LN7@Adjust_man
  00042	83 7d fc 23	 cmp	 DWORD PTR __Back_shift$[ebp], 35 ; 00000023H
  00046	77 02		 ja	 SHORT $LN7@Adjust_man
  00048	eb 09		 jmp	 SHORT $LN2@Adjust_man
$LN7@Adjust_man:
  0004a	e8 00 00 00 00	 call	 __invalid_parameter_noinfo_noreturn
  0004f	33 c0		 xor	 eax, eax
  00051	75 f7		 jne	 SHORT $LN7@Adjust_man
$LN2@Adjust_man:
  00053	33 c0		 xor	 eax, eax
  00055	75 e5		 jne	 SHORT $LN4@Adjust_man

; 152  :     _Ptr = reinterpret_cast<void*>(_Ptr_container);

  00057	8b 45 08	 mov	 eax, DWORD PTR __Ptr$[ebp]
  0005a	8b 4d f8	 mov	 ecx, DWORD PTR __Ptr_container$[ebp]
  0005d	89 08		 mov	 DWORD PTR [eax], ecx
$LN10@Adjust_man:

; 153  : }

  0005f	c9		 leave
  00060	c3		 ret	 0
?_Adjust_manually_vector_aligned@std@@YAXAAPAXAAI@Z ENDP ; std::_Adjust_manually_vector_aligned
_TEXT	ENDS
; Function compile flags: /Odspy
; File C:\Program Files (x86)\Microsoft Visual Studio\2019\Community\VC\Tools\MSVC\14.28.29333\include\exception
;	COMDAT ?_Throw_bad_array_new_length@std@@YAXXZ
_TEXT	SEGMENT
$T1 = -12						; size = 12
?_Throw_bad_array_new_length@std@@YAXXZ PROC		; std::_Throw_bad_array_new_length, COMDAT

; 320  : [[noreturn]] inline void _Throw_bad_array_new_length() {

  00000	55		 push	 ebp
  00001	8b ec		 mov	 ebp, esp
  00003	83 ec 0c	 sub	 esp, 12			; 0000000cH

; 321  :     _THROW(bad_array_new_length{});

  00006	8d 4d f4	 lea	 ecx, DWORD PTR $T1[ebp]
  00009	e8 00 00 00 00	 call	 ??0bad_array_new_length@std@@QAE@XZ ; std::bad_array_new_length::bad_array_new_length
  0000e	68 00 00 00 00	 push	 OFFSET __TI3?AVbad_array_new_length@std@@
  00013	8d 45 f4	 lea	 eax, DWORD PTR $T1[ebp]
  00016	50		 push	 eax
  00017	e8 00 00 00 00	 call	 __CxxThrowException@8
$LN2@Throw_bad_:

; 322  : }

  0001c	c9		 leave
  0001d	c3		 ret	 0
?_Throw_bad_array_new_length@std@@YAXXZ ENDP		; std::_Throw_bad_array_new_length
_TEXT	ENDS
; Function compile flags: /Odspy
; File C:\Program Files (x86)\Microsoft Visual Studio\2019\Community\VC\Tools\MSVC\14.28.29333\include\vcruntime_exception.h
;	COMDAT ??_Gbad_array_new_length@std@@UAEPAXI@Z
_TEXT	SEGMENT
_this$ = -4						; size = 4
___flags$ = 8						; size = 4
??_Gbad_array_new_length@std@@UAEPAXI@Z PROC		; std::bad_array_new_length::`scalar deleting destructor', COMDAT
; _this$ = ecx
  00000	55		 push	 ebp
  00001	8b ec		 mov	 ebp, esp
  00003	51		 push	 ecx
  00004	89 4d fc	 mov	 DWORD PTR _this$[ebp], ecx

; 89   :     {

  00007	8b 45 fc	 mov	 eax, DWORD PTR _this$[ebp]
  0000a	c7 00 00 00 00
	00		 mov	 DWORD PTR [eax], OFFSET ??_7exception@std@@6B@

; 90   :         __std_exception_destroy(&_Data);

  00010	8b 45 fc	 mov	 eax, DWORD PTR _this$[ebp]
  00013	83 c0 04	 add	 eax, 4
  00016	50		 push	 eax
  00017	e8 00 00 00 00	 call	 ___std_exception_destroy
  0001c	59		 pop	 ecx
  0001d	8b 45 08	 mov	 eax, DWORD PTR ___flags$[ebp]
  00020	83 e0 01	 and	 eax, 1
  00023	74 0c		 je	 SHORT $LN2@scalar
  00025	6a 0c		 push	 12			; 0000000cH
  00027	ff 75 fc	 push	 DWORD PTR _this$[ebp]
  0002a	e8 00 00 00 00	 call	 ??3@YAXPAXI@Z		; operator delete
  0002f	59		 pop	 ecx
  00030	59		 pop	 ecx
$LN2@scalar:
  00031	8b 45 fc	 mov	 eax, DWORD PTR _this$[ebp]
  00034	c9		 leave
  00035	c2 04 00	 ret	 4
??_Gbad_array_new_length@std@@UAEPAXI@Z ENDP		; std::bad_array_new_length::`scalar deleting destructor'
_TEXT	ENDS
; Function compile flags: /Odspy
;	COMDAT ??0bad_array_new_length@std@@QAE@ABV01@@Z
_TEXT	SEGMENT
_this$ = -4						; size = 4
___that$ = 8						; size = 4
??0bad_array_new_length@std@@QAE@ABV01@@Z PROC		; std::bad_array_new_length::bad_array_new_length, COMDAT
; _this$ = ecx
  00000	55		 push	 ebp
  00001	8b ec		 mov	 ebp, esp
  00003	51		 push	 ecx
  00004	89 4d fc	 mov	 DWORD PTR _this$[ebp], ecx
  00007	ff 75 08	 push	 DWORD PTR ___that$[ebp]
  0000a	8b 4d fc	 mov	 ecx, DWORD PTR _this$[ebp]
  0000d	e8 00 00 00 00	 call	 ??0exception@std@@QAE@ABV01@@Z ; std::exception::exception
  00012	8b 45 fc	 mov	 eax, DWORD PTR _this$[ebp]
  00015	c7 00 00 00 00
	00		 mov	 DWORD PTR [eax], OFFSET ??_7bad_alloc@std@@6B@
  0001b	8b 45 fc	 mov	 eax, DWORD PTR _this$[ebp]
  0001e	c7 00 00 00 00
	00		 mov	 DWORD PTR [eax], OFFSET ??_7bad_array_new_length@std@@6B@
  00024	8b 45 fc	 mov	 eax, DWORD PTR _this$[ebp]
  00027	c9		 leave
  00028	c2 04 00	 ret	 4
??0bad_array_new_length@std@@QAE@ABV01@@Z ENDP		; std::bad_array_new_length::bad_array_new_length
_TEXT	ENDS
; Function compile flags: /Odspy
; File C:\Program Files (x86)\Microsoft Visual Studio\2019\Community\VC\Tools\MSVC\14.28.29333\include\vcruntime_exception.h
;	COMDAT ??1bad_array_new_length@std@@UAE@XZ
_TEXT	SEGMENT
_this$ = -4						; size = 4
??1bad_array_new_length@std@@UAE@XZ PROC		; std::bad_array_new_length::~bad_array_new_length, COMDAT
; _this$ = ecx
  00000	55		 push	 ebp
  00001	8b ec		 mov	 ebp, esp
  00003	51		 push	 ecx
  00004	89 4d fc	 mov	 DWORD PTR _this$[ebp], ecx

; 89   :     {

  00007	8b 45 fc	 mov	 eax, DWORD PTR _this$[ebp]
  0000a	c7 00 00 00 00
	00		 mov	 DWORD PTR [eax], OFFSET ??_7exception@std@@6B@

; 90   :         __std_exception_destroy(&_Data);

  00010	8b 45 fc	 mov	 eax, DWORD PTR _this$[ebp]
  00013	83 c0 04	 add	 eax, 4
  00016	50		 push	 eax
  00017	e8 00 00 00 00	 call	 ___std_exception_destroy
  0001c	59		 pop	 ecx
  0001d	c9		 leave
  0001e	c3		 ret	 0
??1bad_array_new_length@std@@UAE@XZ ENDP		; std::bad_array_new_length::~bad_array_new_length
_TEXT	ENDS
; Function compile flags: /Odspy
; File C:\Program Files (x86)\Microsoft Visual Studio\2019\Community\VC\Tools\MSVC\14.28.29333\include\vcruntime_exception.h
;	COMDAT ??0bad_array_new_length@std@@QAE@XZ
_TEXT	SEGMENT
_this$ = -4						; size = 4
??0bad_array_new_length@std@@QAE@XZ PROC		; std::bad_array_new_length::bad_array_new_length, COMDAT
; _this$ = ecx

; 141  :     {

  00000	55		 push	 ebp
  00001	8b ec		 mov	 ebp, esp
  00003	51		 push	 ecx
  00004	89 4d fc	 mov	 DWORD PTR _this$[ebp], ecx

; 66   :     {

  00007	8b 45 fc	 mov	 eax, DWORD PTR _this$[ebp]
  0000a	c7 00 00 00 00
	00		 mov	 DWORD PTR [eax], OFFSET ??_7exception@std@@6B@

; 65   :         : _Data()

  00010	33 c0		 xor	 eax, eax
  00012	8b 4d fc	 mov	 ecx, DWORD PTR _this$[ebp]
  00015	83 c1 04	 add	 ecx, 4
  00018	89 01		 mov	 DWORD PTR [ecx], eax
  0001a	89 41 04	 mov	 DWORD PTR [ecx+4], eax

; 67   :         _Data._What = _Message;

  0001d	8b 45 fc	 mov	 eax, DWORD PTR _this$[ebp]
  00020	c7 40 04 00 00
	00 00		 mov	 DWORD PTR [eax+4], OFFSET ??_C@_0BF@KINCDENJ@bad?5array?5new?5length@

; 130  :     {

  00027	8b 45 fc	 mov	 eax, DWORD PTR _this$[ebp]
  0002a	c7 00 00 00 00
	00		 mov	 DWORD PTR [eax], OFFSET ??_7bad_alloc@std@@6B@

; 141  :     {

  00030	8b 45 fc	 mov	 eax, DWORD PTR _this$[ebp]
  00033	c7 00 00 00 00
	00		 mov	 DWORD PTR [eax], OFFSET ??_7bad_array_new_length@std@@6B@

; 142  :     }

  00039	8b 45 fc	 mov	 eax, DWORD PTR _this$[ebp]
  0003c	c9		 leave
  0003d	c3		 ret	 0
??0bad_array_new_length@std@@QAE@XZ ENDP		; std::bad_array_new_length::bad_array_new_length
_TEXT	ENDS
; Function compile flags: /Odspy
; File C:\Program Files (x86)\Microsoft Visual Studio\2019\Community\VC\Tools\MSVC\14.28.29333\include\vcruntime_exception.h
;	COMDAT ??_Gbad_alloc@std@@UAEPAXI@Z
_TEXT	SEGMENT
_this$ = -4						; size = 4
___flags$ = 8						; size = 4
??_Gbad_alloc@std@@UAEPAXI@Z PROC			; std::bad_alloc::`scalar deleting destructor', COMDAT
; _this$ = ecx
  00000	55		 push	 ebp
  00001	8b ec		 mov	 ebp, esp
  00003	51		 push	 ecx
  00004	89 4d fc	 mov	 DWORD PTR _this$[ebp], ecx

; 89   :     {

  00007	8b 45 fc	 mov	 eax, DWORD PTR _this$[ebp]
  0000a	c7 00 00 00 00
	00		 mov	 DWORD PTR [eax], OFFSET ??_7exception@std@@6B@

; 90   :         __std_exception_destroy(&_Data);

  00010	8b 45 fc	 mov	 eax, DWORD PTR _this$[ebp]
  00013	83 c0 04	 add	 eax, 4
  00016	50		 push	 eax
  00017	e8 00 00 00 00	 call	 ___std_exception_destroy
  0001c	59		 pop	 ecx
  0001d	8b 45 08	 mov	 eax, DWORD PTR ___flags$[ebp]
  00020	83 e0 01	 and	 eax, 1
  00023	74 0c		 je	 SHORT $LN2@scalar
  00025	6a 0c		 push	 12			; 0000000cH
  00027	ff 75 fc	 push	 DWORD PTR _this$[ebp]
  0002a	e8 00 00 00 00	 call	 ??3@YAXPAXI@Z		; operator delete
  0002f	59		 pop	 ecx
  00030	59		 pop	 ecx
$LN2@scalar:
  00031	8b 45 fc	 mov	 eax, DWORD PTR _this$[ebp]
  00034	c9		 leave
  00035	c2 04 00	 ret	 4
??_Gbad_alloc@std@@UAEPAXI@Z ENDP			; std::bad_alloc::`scalar deleting destructor'
_TEXT	ENDS
; Function compile flags: /Odspy
;	COMDAT ??0bad_alloc@std@@QAE@ABV01@@Z
_TEXT	SEGMENT
_this$ = -4						; size = 4
___that$ = 8						; size = 4
??0bad_alloc@std@@QAE@ABV01@@Z PROC			; std::bad_alloc::bad_alloc, COMDAT
; _this$ = ecx
  00000	55		 push	 ebp
  00001	8b ec		 mov	 ebp, esp
  00003	51		 push	 ecx
  00004	89 4d fc	 mov	 DWORD PTR _this$[ebp], ecx
  00007	ff 75 08	 push	 DWORD PTR ___that$[ebp]
  0000a	8b 4d fc	 mov	 ecx, DWORD PTR _this$[ebp]
  0000d	e8 00 00 00 00	 call	 ??0exception@std@@QAE@ABV01@@Z ; std::exception::exception
  00012	8b 45 fc	 mov	 eax, DWORD PTR _this$[ebp]
  00015	c7 00 00 00 00
	00		 mov	 DWORD PTR [eax], OFFSET ??_7bad_alloc@std@@6B@
  0001b	8b 45 fc	 mov	 eax, DWORD PTR _this$[ebp]
  0001e	c9		 leave
  0001f	c2 04 00	 ret	 4
??0bad_alloc@std@@QAE@ABV01@@Z ENDP			; std::bad_alloc::bad_alloc
_TEXT	ENDS
; Function compile flags: /Odspy
; File C:\Program Files (x86)\Microsoft Visual Studio\2019\Community\VC\Tools\MSVC\14.28.29333\include\vcruntime_exception.h
;	COMDAT ??_Gexception@std@@UAEPAXI@Z
_TEXT	SEGMENT
_this$ = -4						; size = 4
___flags$ = 8						; size = 4
??_Gexception@std@@UAEPAXI@Z PROC			; std::exception::`scalar deleting destructor', COMDAT
; _this$ = ecx
  00000	55		 push	 ebp
  00001	8b ec		 mov	 ebp, esp
  00003	51		 push	 ecx
  00004	89 4d fc	 mov	 DWORD PTR _this$[ebp], ecx

; 89   :     {

  00007	8b 45 fc	 mov	 eax, DWORD PTR _this$[ebp]
  0000a	c7 00 00 00 00
	00		 mov	 DWORD PTR [eax], OFFSET ??_7exception@std@@6B@

; 90   :         __std_exception_destroy(&_Data);

  00010	8b 45 fc	 mov	 eax, DWORD PTR _this$[ebp]
  00013	83 c0 04	 add	 eax, 4
  00016	50		 push	 eax
  00017	e8 00 00 00 00	 call	 ___std_exception_destroy
  0001c	59		 pop	 ecx
  0001d	8b 45 08	 mov	 eax, DWORD PTR ___flags$[ebp]
  00020	83 e0 01	 and	 eax, 1
  00023	74 0c		 je	 SHORT $LN2@scalar
  00025	6a 0c		 push	 12			; 0000000cH
  00027	ff 75 fc	 push	 DWORD PTR _this$[ebp]
  0002a	e8 00 00 00 00	 call	 ??3@YAXPAXI@Z		; operator delete
  0002f	59		 pop	 ecx
  00030	59		 pop	 ecx
$LN2@scalar:
  00031	8b 45 fc	 mov	 eax, DWORD PTR _this$[ebp]
  00034	c9		 leave
  00035	c2 04 00	 ret	 4
??_Gexception@std@@UAEPAXI@Z ENDP			; std::exception::`scalar deleting destructor'
_TEXT	ENDS
; Function compile flags: /Odspy
; File C:\Program Files (x86)\Microsoft Visual Studio\2019\Community\VC\Tools\MSVC\14.28.29333\include\vcruntime_exception.h
;	COMDAT ?what@exception@std@@UBEPBDXZ
_TEXT	SEGMENT
tv69 = -8						; size = 4
_this$ = -4						; size = 4
?what@exception@std@@UBEPBDXZ PROC			; std::exception::what, COMDAT
; _this$ = ecx

; 94   :     {

  00000	55		 push	 ebp
  00001	8b ec		 mov	 ebp, esp
  00003	51		 push	 ecx
  00004	51		 push	 ecx
  00005	89 4d fc	 mov	 DWORD PTR _this$[ebp], ecx

; 95   :         return _Data._What ? _Data._What : "Unknown exception";

  00008	8b 45 fc	 mov	 eax, DWORD PTR _this$[ebp]
  0000b	83 78 04 00	 cmp	 DWORD PTR [eax+4], 0
  0000f	74 0b		 je	 SHORT $LN3@what
  00011	8b 45 fc	 mov	 eax, DWORD PTR _this$[ebp]
  00014	8b 40 04	 mov	 eax, DWORD PTR [eax+4]
  00017	89 45 f8	 mov	 DWORD PTR tv69[ebp], eax
  0001a	eb 07		 jmp	 SHORT $LN4@what
$LN3@what:
  0001c	c7 45 f8 00 00
	00 00		 mov	 DWORD PTR tv69[ebp], OFFSET ??_C@_0BC@EOODALEL@Unknown?5exception@
$LN4@what:
  00023	8b 45 f8	 mov	 eax, DWORD PTR tv69[ebp]

; 96   :     }

  00026	c9		 leave
  00027	c3		 ret	 0
?what@exception@std@@UBEPBDXZ ENDP			; std::exception::what
_TEXT	ENDS
; Function compile flags: /Odspy
; File C:\Program Files (x86)\Microsoft Visual Studio\2019\Community\VC\Tools\MSVC\14.28.29333\include\vcruntime_exception.h
;	COMDAT ??0exception@std@@QAE@ABV01@@Z
_TEXT	SEGMENT
_this$ = -4						; size = 4
__Other$ = 8						; size = 4
??0exception@std@@QAE@ABV01@@Z PROC			; std::exception::exception, COMDAT
; _this$ = ecx

; 72   :     {

  00000	55		 push	 ebp
  00001	8b ec		 mov	 ebp, esp
  00003	51		 push	 ecx
  00004	89 4d fc	 mov	 DWORD PTR _this$[ebp], ecx
  00007	8b 45 fc	 mov	 eax, DWORD PTR _this$[ebp]
  0000a	c7 00 00 00 00
	00		 mov	 DWORD PTR [eax], OFFSET ??_7exception@std@@6B@

; 71   :         : _Data()

  00010	33 c0		 xor	 eax, eax
  00012	8b 4d fc	 mov	 ecx, DWORD PTR _this$[ebp]
  00015	83 c1 04	 add	 ecx, 4
  00018	89 01		 mov	 DWORD PTR [ecx], eax
  0001a	89 41 04	 mov	 DWORD PTR [ecx+4], eax

; 73   :         __std_exception_copy(&_Other._Data, &_Data);

  0001d	8b 45 fc	 mov	 eax, DWORD PTR _this$[ebp]
  00020	83 c0 04	 add	 eax, 4
  00023	50		 push	 eax
  00024	8b 45 08	 mov	 eax, DWORD PTR __Other$[ebp]
  00027	83 c0 04	 add	 eax, 4
  0002a	50		 push	 eax
  0002b	e8 00 00 00 00	 call	 ___std_exception_copy
  00030	59		 pop	 ecx
  00031	59		 pop	 ecx

; 74   :     }

  00032	8b 45 fc	 mov	 eax, DWORD PTR _this$[ebp]
  00035	c9		 leave
  00036	c2 04 00	 ret	 4
??0exception@std@@QAE@ABV01@@Z ENDP			; std::exception::exception
_TEXT	ENDS
END
