; Listing generated by Microsoft (R) Optimizing Compiler Version 19.28.29335.0 

	TITLE	D:\Metin2 Server Files\mainline\SRC_2014\Metin2Client\EterLib\GrpBase.cpp
	.686P
	.XMM
	include listing.inc
	.model	flat

INCLUDELIB LIBCMT
INCLUDELIB OLDNAMES

PUBLIC	?ms_lpSphereMesh@CGraphicBase@@1PAUID3DXMesh@@A	; CGraphicBase::ms_lpSphereMesh
PUBLIC	?ms_lpCylinderMesh@CGraphicBase@@1PAUID3DXMesh@@A ; CGraphicBase::ms_lpCylinderMesh
PUBLIC	?ms_hLastResult@CGraphicBase@@1JA		; CGraphicBase::ms_hLastResult
PUBLIC	?ms_iWidth@CGraphicBase@@1HA			; CGraphicBase::ms_iWidth
PUBLIC	?ms_iHeight@CGraphicBase@@1HA			; CGraphicBase::ms_iHeight
PUBLIC	?ms_iD3DAdapterInfo@CGraphicBase@@1IA		; CGraphicBase::ms_iD3DAdapterInfo
PUBLIC	?ms_iD3DDevInfo@CGraphicBase@@1IA		; CGraphicBase::ms_iD3DDevInfo
PUBLIC	?ms_iD3DModeInfo@CGraphicBase@@1IA		; CGraphicBase::ms_iD3DModeInfo
PUBLIC	?ms_hWnd@CGraphicBase@@1PAUHWND__@@A		; CGraphicBase::ms_hWnd
PUBLIC	?ms_hDC@CGraphicBase@@1PAUHDC__@@A		; CGraphicBase::ms_hDC
PUBLIC	?ms_lpd3d@CGraphicBase@@1PAUIDirect3D8@@A	; CGraphicBase::ms_lpd3d
PUBLIC	?ms_lpd3dDevice@CGraphicBase@@1PAUIDirect3DDevice8@@A ; CGraphicBase::ms_lpd3dDevice
PUBLIC	?ms_lpd3dMatStack@CGraphicBase@@1PAUID3DXMatrixStack@@A ; CGraphicBase::ms_lpd3dMatStack
PUBLIC	?ms_Viewport@CGraphicBase@@1U_D3DVIEWPORT8@@A	; CGraphicBase::ms_Viewport
PUBLIC	?ms_faceCount@CGraphicBase@@1KA			; CGraphicBase::ms_faceCount
PUBLIC	?ms_d3dCaps@CGraphicBase@@1U_D3DCAPS8@@A	; CGraphicBase::ms_d3dCaps
PUBLIC	?ms_d3dPresentParameter@CGraphicBase@@1U_D3DPRESENT_PARAMETERS_@@A ; CGraphicBase::ms_d3dPresentParameter
PUBLIC	?ms_dwD3DBehavior@CGraphicBase@@1KA		; CGraphicBase::ms_dwD3DBehavior
PUBLIC	?ms_ptVS@CGraphicBase@@1KA			; CGraphicBase::ms_ptVS
PUBLIC	?ms_pntVS@CGraphicBase@@1KA			; CGraphicBase::ms_pntVS
PUBLIC	?ms_pnt2VS@CGraphicBase@@1KA			; CGraphicBase::ms_pnt2VS
PUBLIC	?ms_fFieldOfView@CGraphicBase@@1MA		; CGraphicBase::ms_fFieldOfView
PUBLIC	?ms_fAspect@CGraphicBase@@1MA			; CGraphicBase::ms_fAspect
PUBLIC	?ms_fNearY@CGraphicBase@@1MA			; CGraphicBase::ms_fNearY
PUBLIC	?ms_fFarY@CGraphicBase@@1MA			; CGraphicBase::ms_fFarY
PUBLIC	?ms_dwWavingEndTime@CGraphicBase@@1KA		; CGraphicBase::ms_dwWavingEndTime
PUBLIC	?ms_iWavingPower@CGraphicBase@@1HA		; CGraphicBase::ms_iWavingPower
PUBLIC	?ms_dwFlashingEndTime@CGraphicBase@@1KA		; CGraphicBase::ms_dwFlashingEndTime
PUBLIC	?ms_bSupportDXT@CGraphicBase@@1_NA		; CGraphicBase::ms_bSupportDXT
PUBLIC	?ms_isLowTextureMemory@CGraphicBase@@1_NA	; CGraphicBase::ms_isLowTextureMemory
PUBLIC	?ms_isHighTextureMemory@CGraphicBase@@1_NA	; CGraphicBase::ms_isHighTextureMemory
PUBLIC	?ms_alpd3dPDTVB@CGraphicBase@@1PAPAUIDirect3DVertexBuffer8@@A ; CGraphicBase::ms_alpd3dPDTVB
PUBLIC	?ms_alpd3dDefIB@CGraphicBase@@1PAPAUIDirect3DIndexBuffer8@@A ; CGraphicBase::ms_alpd3dDefIB
_BSS	SEGMENT
?ms_lpSphereMesh@CGraphicBase@@1PAUID3DXMesh@@A DD 01H DUP (?) ; CGraphicBase::ms_lpSphereMesh
?ms_lpCylinderMesh@CGraphicBase@@1PAUID3DXMesh@@A DD 01H DUP (?) ; CGraphicBase::ms_lpCylinderMesh
?ms_hLastResult@CGraphicBase@@1JA DD 01H DUP (?)	; CGraphicBase::ms_hLastResult
?ms_iWidth@CGraphicBase@@1HA DD 01H DUP (?)		; CGraphicBase::ms_iWidth
?ms_iHeight@CGraphicBase@@1HA DD 01H DUP (?)		; CGraphicBase::ms_iHeight
?ms_iD3DAdapterInfo@CGraphicBase@@1IA DD 01H DUP (?)	; CGraphicBase::ms_iD3DAdapterInfo
?ms_iD3DDevInfo@CGraphicBase@@1IA DD 01H DUP (?)	; CGraphicBase::ms_iD3DDevInfo
?ms_iD3DModeInfo@CGraphicBase@@1IA DD 01H DUP (?)	; CGraphicBase::ms_iD3DModeInfo
?ms_hWnd@CGraphicBase@@1PAUHWND__@@A DD 01H DUP (?)	; CGraphicBase::ms_hWnd
?ms_hDC@CGraphicBase@@1PAUHDC__@@A DD 01H DUP (?)	; CGraphicBase::ms_hDC
?ms_lpd3d@CGraphicBase@@1PAUIDirect3D8@@A DD 01H DUP (?) ; CGraphicBase::ms_lpd3d
?ms_lpd3dDevice@CGraphicBase@@1PAUIDirect3DDevice8@@A DD 01H DUP (?) ; CGraphicBase::ms_lpd3dDevice
?ms_lpd3dMatStack@CGraphicBase@@1PAUID3DXMatrixStack@@A DD 01H DUP (?) ; CGraphicBase::ms_lpd3dMatStack
?ms_Viewport@CGraphicBase@@1U_D3DVIEWPORT8@@A DB 018H DUP (?) ; CGraphicBase::ms_Viewport
?ms_faceCount@CGraphicBase@@1KA DD 01H DUP (?)		; CGraphicBase::ms_faceCount
?ms_d3dCaps@CGraphicBase@@1U_D3DCAPS8@@A DB 0d4H DUP (?) ; CGraphicBase::ms_d3dCaps
?ms_d3dPresentParameter@CGraphicBase@@1U_D3DPRESENT_PARAMETERS_@@A DB 034H DUP (?) ; CGraphicBase::ms_d3dPresentParameter
?ms_dwD3DBehavior@CGraphicBase@@1KA DD 01H DUP (?)	; CGraphicBase::ms_dwD3DBehavior
?ms_ptVS@CGraphicBase@@1KA DD 01H DUP (?)		; CGraphicBase::ms_ptVS
?ms_pntVS@CGraphicBase@@1KA DD 01H DUP (?)		; CGraphicBase::ms_pntVS
?ms_pnt2VS@CGraphicBase@@1KA DD 01H DUP (?)		; CGraphicBase::ms_pnt2VS
?ms_fFieldOfView@CGraphicBase@@1MA DD 01H DUP (?)	; CGraphicBase::ms_fFieldOfView
?ms_fAspect@CGraphicBase@@1MA DD 01H DUP (?)		; CGraphicBase::ms_fAspect
?ms_fNearY@CGraphicBase@@1MA DD 01H DUP (?)		; CGraphicBase::ms_fNearY
?ms_fFarY@CGraphicBase@@1MA DD 01H DUP (?)		; CGraphicBase::ms_fFarY
?ms_dwWavingEndTime@CGraphicBase@@1KA DD 01H DUP (?)	; CGraphicBase::ms_dwWavingEndTime
?ms_iWavingPower@CGraphicBase@@1HA DD 01H DUP (?)	; CGraphicBase::ms_iWavingPower
?ms_dwFlashingEndTime@CGraphicBase@@1KA DD 01H DUP (?)	; CGraphicBase::ms_dwFlashingEndTime
?ms_isLowTextureMemory@CGraphicBase@@1_NA DB 01H DUP (?) ; CGraphicBase::ms_isLowTextureMemory
	ALIGN	4

?ms_isHighTextureMemory@CGraphicBase@@1_NA DB 01H DUP (?) ; CGraphicBase::ms_isHighTextureMemory
	ALIGN	4

?ms_alpd3dPDTVB@CGraphicBase@@1PAPAUIDirect3DVertexBuffer8@@A DD 064H DUP (?) ; CGraphicBase::ms_alpd3dPDTVB
?ms_alpd3dDefIB@CGraphicBase@@1PAPAUIDirect3DIndexBuffer8@@A DD 07H DUP (?) ; CGraphicBase::ms_alpd3dDefIB
_BSS	ENDS
_DATA	SEGMENT
?ms_bSupportDXT@CGraphicBase@@1_NA DB 01H		; CGraphicBase::ms_bSupportDXT
_DATA	ENDS
PUBLIC	??_H@YGXPAXIIP6EPAX0@Z@Z			; `vector constructor iterator'
PUBLIC	?PixelPositionToD3DXVECTOR3@@YAXABUD3DXVECTOR3@@PAU1@@Z ; PixelPositionToD3DXVECTOR3
PUBLIC	?D3DXVECTOR3ToPixelPosition@@YAXABUD3DXVECTOR3@@PAU1@@Z ; D3DXVECTOR3ToPixelPosition
PUBLIC	?GetAvailableTextureMemory@CGraphicBase@@SAKXZ	; CGraphicBase::GetAvailableTextureMemory
PUBLIC	?GetViewMatrix@CGraphicBase@@SAABUD3DXMATRIX@@XZ ; CGraphicBase::GetViewMatrix
PUBLIC	?GetIdentityMatrix@CGraphicBase@@SAABUD3DXMATRIX@@XZ ; CGraphicBase::GetIdentityMatrix
PUBLIC	??0CGraphicBase@@QAE@XZ				; CGraphicBase::CGraphicBase
PUBLIC	??1CGraphicBase@@UAE@XZ				; CGraphicBase::~CGraphicBase
PUBLIC	?SetSimpleCamera@CGraphicBase@@QAEXMMMMM@Z	; CGraphicBase::SetSimpleCamera
PUBLIC	?SetEyeCamera@CGraphicBase@@QAEXMMMMMMMMM@Z	; CGraphicBase::SetEyeCamera
PUBLIC	?SetAroundCamera@CGraphicBase@@QAEXMMMM@Z	; CGraphicBase::SetAroundCamera
PUBLIC	?SetPositionCamera@CGraphicBase@@QAEXMMMMMM@Z	; CGraphicBase::SetPositionCamera
PUBLIC	?GetTargetPosition@CGraphicBase@@QAEXPAM00@Z	; CGraphicBase::GetTargetPosition
PUBLIC	?GetCameraPosition@CGraphicBase@@QAEXPAM00@Z	; CGraphicBase::GetCameraPosition
PUBLIC	?SetOrtho2D@CGraphicBase@@QAEXMMM@Z		; CGraphicBase::SetOrtho2D
PUBLIC	?SetOrtho3D@CGraphicBase@@QAEXMMMM@Z		; CGraphicBase::SetOrtho3D
PUBLIC	?SetPerspective@CGraphicBase@@QAEXMMMM@Z	; CGraphicBase::SetPerspective
PUBLIC	?GetFOV@CGraphicBase@@QAEMXZ			; CGraphicBase::GetFOV
PUBLIC	?PushMatrix@CGraphicBase@@QAEXXZ		; CGraphicBase::PushMatrix
PUBLIC	?MultMatrix@CGraphicBase@@QAEXPBUD3DXMATRIX@@@Z	; CGraphicBase::MultMatrix
PUBLIC	?MultMatrixLocal@CGraphicBase@@QAEXPBUD3DXMATRIX@@@Z ; CGraphicBase::MultMatrixLocal
PUBLIC	?Translate@CGraphicBase@@QAEXMMM@Z		; CGraphicBase::Translate
PUBLIC	?Rotate@CGraphicBase@@QAEXMMMM@Z		; CGraphicBase::Rotate
PUBLIC	?RotateLocal@CGraphicBase@@QAEXMMMM@Z		; CGraphicBase::RotateLocal
PUBLIC	?RotateYawPitchRollLocal@CGraphicBase@@QAEXMMM@Z ; CGraphicBase::RotateYawPitchRollLocal
PUBLIC	?Scale@CGraphicBase@@QAEXMMM@Z			; CGraphicBase::Scale
PUBLIC	?PopMatrix@CGraphicBase@@QAEXXZ			; CGraphicBase::PopMatrix
PUBLIC	?LoadMatrix@CGraphicBase@@QAEXABUD3DXMATRIX@@@Z	; CGraphicBase::LoadMatrix
PUBLIC	?GetMatrix@CGraphicBase@@QBEXPAUD3DXMATRIX@@@Z	; CGraphicBase::GetMatrix
PUBLIC	?GetMatrixPointer@CGraphicBase@@QBEPBUD3DXMATRIX@@XZ ; CGraphicBase::GetMatrixPointer
PUBLIC	?GetSphereMatrix@CGraphicBase@@QAEXPAUD3DXMATRIX@@M@Z ; CGraphicBase::GetSphereMatrix
PUBLIC	?InitScreenEffect@CGraphicBase@@QAEXXZ		; CGraphicBase::InitScreenEffect
PUBLIC	?SetScreenEffectWaving@CGraphicBase@@QAEXMH@Z	; CGraphicBase::SetScreenEffectWaving
PUBLIC	?SetScreenEffectFlashing@CGraphicBase@@QAEXMABUD3DXCOLOR@@@Z ; CGraphicBase::SetScreenEffectFlashing
PUBLIC	?GetColor@CGraphicBase@@QAEKMMMM@Z		; CGraphicBase::GetColor
PUBLIC	?GetFaceCount@CGraphicBase@@QAEKXZ		; CGraphicBase::GetFaceCount
PUBLIC	?ResetFaceCount@CGraphicBase@@QAEXXZ		; CGraphicBase::ResetFaceCount
PUBLIC	?GetLastResult@CGraphicBase@@QAEJXZ		; CGraphicBase::GetLastResult
PUBLIC	?UpdateProjMatrix@CGraphicBase@@QAEXXZ		; CGraphicBase::UpdateProjMatrix
PUBLIC	?UpdateViewMatrix@CGraphicBase@@QAEXXZ		; CGraphicBase::UpdateViewMatrix
PUBLIC	?SetViewport@CGraphicBase@@QAEXKKKKMM@Z		; CGraphicBase::SetViewport
PUBLIC	?GetBackBufferSize@CGraphicBase@@SAXPAI0@Z	; CGraphicBase::GetBackBufferSize
PUBLIC	?IsTLVertexClipping@CGraphicBase@@SA_NXZ	; CGraphicBase::IsTLVertexClipping
PUBLIC	?IsFastTNL@CGraphicBase@@SA_NXZ			; CGraphicBase::IsFastTNL
PUBLIC	?IsLowTextureMemory@CGraphicBase@@SA_NXZ	; CGraphicBase::IsLowTextureMemory
PUBLIC	?IsHighTextureMemory@CGraphicBase@@SA_NXZ	; CGraphicBase::IsHighTextureMemory
PUBLIC	?SetDefaultIndexBuffer@CGraphicBase@@SAXI@Z	; CGraphicBase::SetDefaultIndexBuffer
PUBLIC	?SetPDTStream@CGraphicBase@@SA_NPAUSPDTVertexRaw@@I@Z ; CGraphicBase::SetPDTStream
PUBLIC	?SetPDTStream@CGraphicBase@@SA_NPAUSPDTVertex@@I@Z ; CGraphicBase::SetPDTStream
PUBLIC	?UpdatePipeLineMatrix@CGraphicBase@@IAEXXZ	; CGraphicBase::UpdatePipeLineMatrix
PUBLIC	??_GCGraphicBase@@UAEPAXI@Z			; CGraphicBase::`scalar deleting destructor'
PUBLIC	?ms_singleton@?$CSingleton@VCTimer@@@@0PAVCTimer@@A ; CSingleton<CTimer>::ms_singleton
PUBLIC	?ms_matIdentity@CGraphicBase@@1UD3DXMATRIX@@A	; CGraphicBase::ms_matIdentity
PUBLIC	?ms_matView@CGraphicBase@@1UD3DXMATRIX@@A	; CGraphicBase::ms_matView
PUBLIC	?ms_matProj@CGraphicBase@@1UD3DXMATRIX@@A	; CGraphicBase::ms_matProj
PUBLIC	?ms_matInverseView@CGraphicBase@@1UD3DXMATRIX@@A ; CGraphicBase::ms_matInverseView
PUBLIC	?ms_matInverseViewYAxis@CGraphicBase@@1UD3DXMATRIX@@A ; CGraphicBase::ms_matInverseViewYAxis
PUBLIC	?ms_matWorld@CGraphicBase@@1UD3DXMATRIX@@A	; CGraphicBase::ms_matWorld
PUBLIC	?ms_matWorldView@CGraphicBase@@1UD3DXMATRIX@@A	; CGraphicBase::ms_matWorldView
PUBLIC	?ms_kD3DDetector@CGraphicBase@@1VD3D_CDisplayModeAutoDetector@@A ; CGraphicBase::ms_kD3DDetector
PUBLIC	?ms_matScreen0@CGraphicBase@@1UD3DXMATRIX@@A	; CGraphicBase::ms_matScreen0
PUBLIC	?ms_matScreen1@CGraphicBase@@1UD3DXMATRIX@@A	; CGraphicBase::ms_matScreen1
PUBLIC	?ms_matScreen2@CGraphicBase@@1UD3DXMATRIX@@A	; CGraphicBase::ms_matScreen2
PUBLIC	?ms_vtPickRayOrig@CGraphicBase@@1UD3DXVECTOR3@@A ; CGraphicBase::ms_vtPickRayOrig
PUBLIC	?ms_vtPickRayDir@CGraphicBase@@1UD3DXVECTOR3@@A	; CGraphicBase::ms_vtPickRayDir
PUBLIC	?ms_FlashingColor@CGraphicBase@@1UD3DXCOLOR@@A	; CGraphicBase::ms_FlashingColor
PUBLIC	?ms_Ray@CGraphicBase@@1VCRay@@A			; CGraphicBase::ms_Ray
PUBLIC	??_7CGraphicBase@@6B@				; CGraphicBase::`vftable'
PUBLIC	?ms_singleton@?$CSingleton@VCCameraManager@@@@0PAVCCameraManager@@A ; CSingleton<CCameraManager>::ms_singleton
PUBLIC	?ms_singleton@?$CSingleton@VCStateManager@@@@0PAVCStateManager@@A ; CSingleton<CStateManager>::ms_singleton
PUBLIC	??_R4CGraphicBase@@6B@				; CGraphicBase::`RTTI Complete Object Locator'
PUBLIC	??_R0?AVCGraphicBase@@@8			; CGraphicBase `RTTI Type Descriptor'
PUBLIC	??_R3CGraphicBase@@8				; CGraphicBase::`RTTI Class Hierarchy Descriptor'
PUBLIC	??_R2CGraphicBase@@8				; CGraphicBase::`RTTI Base Class Array'
PUBLIC	??_R1A@?0A@EA@CGraphicBase@@8			; CGraphicBase::`RTTI Base Class Descriptor at (0,-1,0,64)'
PUBLIC	__real@3c8efa35
PUBLIC	__real@3f800000
PUBLIC	__real@41200000
PUBLIC	__real@42a00000
PUBLIC	__real@437f0000
PUBLIC	__real@447a0000
PUBLIC	__real@c2a00000
PUBLIC	__xmm@80000000800000008000000080000000
EXTRN	??3@YAXPAXI@Z:PROC				; operator delete
EXTRN	_atexit:PROC
EXTRN	_rand:PROC
EXTRN	_memcpy:PROC
EXTRN	_D3DXMatrixMultiply@12:PROC
EXTRN	_D3DXMatrixInverse@12:PROC
EXTRN	_D3DXMatrixPerspectiveFovRH@20:PROC
EXTRN	_D3DXMatrixOrthoRH@20:PROC
EXTRN	_D3DXMatrixOrthoOffCenterRH@28:PROC
EXTRN	?fMIN@@YAMMM@Z:PROC				; fMIN
EXTRN	?fMAX@@YAMMM@Z:PROC				; fMAX
EXTRN	?GetCurrentMillisecond@CTimer@@QAEKXZ:PROC	; CTimer::GetCurrentMillisecond
EXTRN	?ELTimer_GetMSec@@YAKXZ:PROC			; ELTimer_GetMSec
EXTRN	??0D3D_CDisplayModeAutoDetector@@QAE@XZ:PROC	; D3D_CDisplayModeAutoDetector::D3D_CDisplayModeAutoDetector
EXTRN	??1D3D_CDisplayModeAutoDetector@@QAE@XZ:PROC	; D3D_CDisplayModeAutoDetector::~D3D_CDisplayModeAutoDetector
EXTRN	??_ECGraphicBase@@UAEPAXI@Z:PROC		; CGraphicBase::`vector deleting destructor'
EXTRN	?SetViewParams@CCamera@@QAEXABUD3DXVECTOR3@@00@Z:PROC ; CCamera::SetViewParams
EXTRN	?SetTarget@CCamera@@QAEXABUD3DXVECTOR3@@@Z:PROC	; CCamera::SetTarget
EXTRN	?Move@CCamera@@QAEXABUD3DXVECTOR3@@@Z:PROC	; CCamera::Move
EXTRN	?RotateEyeAroundTarget@CCamera@@QAEXMM@Z:PROC	; CCamera::RotateEyeAroundTarget
EXTRN	?GetCurrentCamera@CCameraManager@@QAEPAVCCamera@@XZ:PROC ; CCameraManager::GetCurrentCamera
EXTRN	?SetTransform@CStateManager@@QAEXW4_D3DTRANSFORMSTATETYPE@@PBU_D3DMATRIX@@@Z:PROC ; CStateManager::SetTransform
EXTRN	?GetTransform@CStateManager@@QAEXW4_D3DTRANSFORMSTATETYPE@@PAU_D3DMATRIX@@@Z:PROC ; CStateManager::GetTransform
EXTRN	?SetStreamSource@CStateManager@@QAEXIPAUIDirect3DVertexBuffer8@@I@Z:PROC ; CStateManager::SetStreamSource
EXTRN	?SetIndices@CStateManager@@QAEXPAUIDirect3DIndexBuffer8@@I@Z:PROC ; CStateManager::SetIndices
EXTRN	@__security_check_cookie@4:PROC
EXTRN	??_7type_info@@6B@:QWORD			; type_info::`vftable'
EXTRN	___security_cookie:DWORD
EXTRN	__fltused:DWORD
;	COMDAT ?ms_singleton@?$CSingleton@VCTimer@@@@0PAVCTimer@@A
_BSS	SEGMENT
?ms_singleton@?$CSingleton@VCTimer@@@@0PAVCTimer@@A DD 01H DUP (?) ; CSingleton<CTimer>::ms_singleton
_BSS	ENDS
_BSS	SEGMENT
?ms_matIdentity@CGraphicBase@@1UD3DXMATRIX@@A DB 040H DUP (?) ; CGraphicBase::ms_matIdentity
?ms_matView@CGraphicBase@@1UD3DXMATRIX@@A DB 040H DUP (?) ; CGraphicBase::ms_matView
?ms_matProj@CGraphicBase@@1UD3DXMATRIX@@A DB 040H DUP (?) ; CGraphicBase::ms_matProj
?ms_matInverseView@CGraphicBase@@1UD3DXMATRIX@@A DB 040H DUP (?) ; CGraphicBase::ms_matInverseView
?ms_matInverseViewYAxis@CGraphicBase@@1UD3DXMATRIX@@A DB 040H DUP (?) ; CGraphicBase::ms_matInverseViewYAxis
?ms_matWorld@CGraphicBase@@1UD3DXMATRIX@@A DB 040H DUP (?) ; CGraphicBase::ms_matWorld
?ms_matWorldView@CGraphicBase@@1UD3DXMATRIX@@A DB 040H DUP (?) ; CGraphicBase::ms_matWorldView
?ms_kD3DDetector@CGraphicBase@@1VD3D_CDisplayModeAutoDetector@@A DB 031974H DUP (?) ; CGraphicBase::ms_kD3DDetector
?ms_matScreen0@CGraphicBase@@1UD3DXMATRIX@@A DB 040H DUP (?) ; CGraphicBase::ms_matScreen0
?ms_matScreen1@CGraphicBase@@1UD3DXMATRIX@@A DB 040H DUP (?) ; CGraphicBase::ms_matScreen1
?ms_matScreen2@CGraphicBase@@1UD3DXMATRIX@@A DB 040H DUP (?) ; CGraphicBase::ms_matScreen2
?ms_vtPickRayOrig@CGraphicBase@@1UD3DXVECTOR3@@A DB 0cH DUP (?) ; CGraphicBase::ms_vtPickRayOrig
?ms_vtPickRayDir@CGraphicBase@@1UD3DXVECTOR3@@A DB 0cH DUP (?) ; CGraphicBase::ms_vtPickRayDir
?ms_FlashingColor@CGraphicBase@@1UD3DXCOLOR@@A DB 010H DUP (?) ; CGraphicBase::ms_FlashingColor
?ms_Ray@CGraphicBase@@1VCRay@@A DB 028H DUP (?)		; CGraphicBase::ms_Ray
_BSS	ENDS
;	COMDAT ?ms_singleton@?$CSingleton@VCCameraManager@@@@0PAVCCameraManager@@A
_BSS	SEGMENT
?ms_singleton@?$CSingleton@VCCameraManager@@@@0PAVCCameraManager@@A DD 01H DUP (?) ; CSingleton<CCameraManager>::ms_singleton
_BSS	ENDS
;	COMDAT ?ms_singleton@?$CSingleton@VCStateManager@@@@0PAVCStateManager@@A
_BSS	SEGMENT
?ms_singleton@?$CSingleton@VCStateManager@@@@0PAVCStateManager@@A DD 01H DUP (?) ; CSingleton<CStateManager>::ms_singleton
_BSS	ENDS
;	COMDAT ?s_dwVBPos@?1??SetPDTStream@CGraphicBase@@SA_NPAUSPDTVertexRaw@@I@Z@4KA
_BSS	SEGMENT
?s_dwVBPos@?1??SetPDTStream@CGraphicBase@@SA_NPAUSPDTVertexRaw@@I@Z@4KA DD 01H DUP (?) ; `CGraphicBase::SetPDTStream'::`2'::s_dwVBPos
_BSS	ENDS
;	COMDAT ?s_dwNextUpdateTime@?1??GetAvailableTextureMemory@CGraphicBase@@SAKXZ@4KA
_BSS	SEGMENT
?s_dwNextUpdateTime@?1??GetAvailableTextureMemory@CGraphicBase@@SAKXZ@4KA DD 01H DUP (?) ; `CGraphicBase::GetAvailableTextureMemory'::`2'::s_dwNextUpdateTime
_BSS	ENDS
;	COMDAT ?s_dwTexMemSize@?1??GetAvailableTextureMemory@CGraphicBase@@SAKXZ@4KA
_BSS	SEGMENT
?s_dwTexMemSize@?1??GetAvailableTextureMemory@CGraphicBase@@SAKXZ@4KA DD 01H DUP (?) ; `CGraphicBase::GetAvailableTextureMemory'::`2'::s_dwTexMemSize
_BSS	ENDS
CRT$XCU	SEGMENT
??ms_kD3DDetector$initializer$@CGraphicBase@@1P6AXXZA@@3P6AXXZA DD FLAT:??__E?ms_kD3DDetector@CGraphicBase@@1VD3D_CDisplayModeAutoDetector@@A@@YAXXZ ; ??ms_kD3DDetector$initializer$@CGraphicBase@@1P6AXXZA@@3P6AXXZA
CRT$XCU	ENDS
;	COMDAT __xmm@80000000800000008000000080000000
CONST	SEGMENT
__xmm@80000000800000008000000080000000 DB 00H, 00H, 00H, 080H, 00H, 00H, 00H
	DB	080H, 00H, 00H, 00H, 080H, 00H, 00H, 00H, 080H
CONST	ENDS
;	COMDAT __real@c2a00000
CONST	SEGMENT
__real@c2a00000 DD 0c2a00000r			; -80
CONST	ENDS
;	COMDAT __real@447a0000
CONST	SEGMENT
__real@447a0000 DD 0447a0000r			; 1000
CONST	ENDS
;	COMDAT __real@437f0000
CONST	SEGMENT
__real@437f0000 DD 0437f0000r			; 255
CONST	ENDS
;	COMDAT __real@42a00000
CONST	SEGMENT
__real@42a00000 DD 042a00000r			; 80
CONST	ENDS
;	COMDAT __real@41200000
CONST	SEGMENT
__real@41200000 DD 041200000r			; 10
CONST	ENDS
;	COMDAT __real@3f800000
CONST	SEGMENT
__real@3f800000 DD 03f800000r			; 1
CONST	ENDS
;	COMDAT __real@3c8efa35
CONST	SEGMENT
__real@3c8efa35 DD 03c8efa35r			; 0.0174533
CONST	ENDS
;	COMDAT ??_R1A@?0A@EA@CGraphicBase@@8
rdata$r	SEGMENT
??_R1A@?0A@EA@CGraphicBase@@8 DD FLAT:??_R0?AVCGraphicBase@@@8 ; CGraphicBase::`RTTI Base Class Descriptor at (0,-1,0,64)'
	DD	00H
	DD	00H
	DD	0ffffffffH
	DD	00H
	DD	040H
	DD	FLAT:??_R3CGraphicBase@@8
rdata$r	ENDS
;	COMDAT ??_R2CGraphicBase@@8
rdata$r	SEGMENT
??_R2CGraphicBase@@8 DD FLAT:??_R1A@?0A@EA@CGraphicBase@@8 ; CGraphicBase::`RTTI Base Class Array'
rdata$r	ENDS
;	COMDAT ??_R3CGraphicBase@@8
rdata$r	SEGMENT
??_R3CGraphicBase@@8 DD 00H				; CGraphicBase::`RTTI Class Hierarchy Descriptor'
	DD	00H
	DD	01H
	DD	FLAT:??_R2CGraphicBase@@8
rdata$r	ENDS
;	COMDAT ??_R0?AVCGraphicBase@@@8
data$rs	SEGMENT
??_R0?AVCGraphicBase@@@8 DD FLAT:??_7type_info@@6B@	; CGraphicBase `RTTI Type Descriptor'
	DD	00H
	DB	'.?AVCGraphicBase@@', 00H
data$rs	ENDS
;	COMDAT ??_R4CGraphicBase@@6B@
rdata$r	SEGMENT
??_R4CGraphicBase@@6B@ DD 00H				; CGraphicBase::`RTTI Complete Object Locator'
	DD	00H
	DD	00H
	DD	FLAT:??_R0?AVCGraphicBase@@@8
	DD	FLAT:??_R3CGraphicBase@@8
rdata$r	ENDS
;	COMDAT ??_7CGraphicBase@@6B@
CONST	SEGMENT
??_7CGraphicBase@@6B@ DD FLAT:??_R4CGraphicBase@@6B@	; CGraphicBase::`vftable'
	DD	FLAT:??_ECGraphicBase@@UAEPAXI@Z
CONST	ENDS
CRT$XCU	SEGMENT
??ms_matIdentity$initializer$@CGraphicBase@@1P6AXXZA@@3P6AXXZA DD FLAT:??__E?ms_matIdentity@CGraphicBase@@1UD3DXMATRIX@@A@@YAXXZ ; ??ms_matIdentity$initializer$@CGraphicBase@@1P6AXXZA@@3P6AXXZA
CRT$XCU	ENDS
CRT$XCU	SEGMENT
??ms_matView$initializer$@CGraphicBase@@1P6AXXZA@@3P6AXXZA DD FLAT:??__E?ms_matView@CGraphicBase@@1UD3DXMATRIX@@A@@YAXXZ ; ??ms_matView$initializer$@CGraphicBase@@1P6AXXZA@@3P6AXXZA
CRT$XCU	ENDS
CRT$XCU	SEGMENT
??ms_matProj$initializer$@CGraphicBase@@1P6AXXZA@@3P6AXXZA DD FLAT:??__E?ms_matProj@CGraphicBase@@1UD3DXMATRIX@@A@@YAXXZ ; ??ms_matProj$initializer$@CGraphicBase@@1P6AXXZA@@3P6AXXZA
CRT$XCU	ENDS
CRT$XCU	SEGMENT
??ms_matInverseView$initializer$@CGraphicBase@@1P6AXXZA@@3P6AXXZA DD FLAT:??__E?ms_matInverseView@CGraphicBase@@1UD3DXMATRIX@@A@@YAXXZ ; ??ms_matInverseView$initializer$@CGraphicBase@@1P6AXXZA@@3P6AXXZA
CRT$XCU	ENDS
CRT$XCU	SEGMENT
??ms_matInverseViewYAxis$initializer$@CGraphicBase@@1P6AXXZA@@3P6AXXZA DD FLAT:??__E?ms_matInverseViewYAxis@CGraphicBase@@1UD3DXMATRIX@@A@@YAXXZ ; ??ms_matInverseViewYAxis$initializer$@CGraphicBase@@1P6AXXZA@@3P6AXXZA
CRT$XCU	ENDS
CRT$XCU	SEGMENT
??ms_matWorld$initializer$@CGraphicBase@@1P6AXXZA@@3P6AXXZA DD FLAT:??__E?ms_matWorld@CGraphicBase@@1UD3DXMATRIX@@A@@YAXXZ ; ??ms_matWorld$initializer$@CGraphicBase@@1P6AXXZA@@3P6AXXZA
CRT$XCU	ENDS
CRT$XCU	SEGMENT
??ms_matWorldView$initializer$@CGraphicBase@@1P6AXXZA@@3P6AXXZA DD FLAT:??__E?ms_matWorldView@CGraphicBase@@1UD3DXMATRIX@@A@@YAXXZ ; ??ms_matWorldView$initializer$@CGraphicBase@@1P6AXXZA@@3P6AXXZA
CRT$XCU	ENDS
CRT$XCU	SEGMENT
??ms_matScreen0$initializer$@CGraphicBase@@1P6AXXZA@@3P6AXXZA DD FLAT:??__E?ms_matScreen0@CGraphicBase@@1UD3DXMATRIX@@A@@YAXXZ ; ??ms_matScreen0$initializer$@CGraphicBase@@1P6AXXZA@@3P6AXXZA
CRT$XCU	ENDS
CRT$XCU	SEGMENT
??ms_matScreen1$initializer$@CGraphicBase@@1P6AXXZA@@3P6AXXZA DD FLAT:??__E?ms_matScreen1@CGraphicBase@@1UD3DXMATRIX@@A@@YAXXZ ; ??ms_matScreen1$initializer$@CGraphicBase@@1P6AXXZA@@3P6AXXZA
CRT$XCU	ENDS
CRT$XCU	SEGMENT
??ms_matScreen2$initializer$@CGraphicBase@@1P6AXXZA@@3P6AXXZA DD FLAT:??__E?ms_matScreen2@CGraphicBase@@1UD3DXMATRIX@@A@@YAXXZ ; ??ms_matScreen2$initializer$@CGraphicBase@@1P6AXXZA@@3P6AXXZA
CRT$XCU	ENDS
CRT$XCU	SEGMENT
??ms_vtPickRayOrig$initializer$@CGraphicBase@@1P6AXXZA@@3P6AXXZA DD FLAT:??__E?ms_vtPickRayOrig@CGraphicBase@@1UD3DXVECTOR3@@A@@YAXXZ ; ??ms_vtPickRayOrig$initializer$@CGraphicBase@@1P6AXXZA@@3P6AXXZA
CRT$XCU	ENDS
CRT$XCU	SEGMENT
??ms_vtPickRayDir$initializer$@CGraphicBase@@1P6AXXZA@@3P6AXXZA DD FLAT:??__E?ms_vtPickRayDir@CGraphicBase@@1UD3DXVECTOR3@@A@@YAXXZ ; ??ms_vtPickRayDir$initializer$@CGraphicBase@@1P6AXXZA@@3P6AXXZA
CRT$XCU	ENDS
CRT$XCU	SEGMENT
??ms_FlashingColor$initializer$@CGraphicBase@@1P6AXXZA@@3P6AXXZA DD FLAT:??__E?ms_FlashingColor@CGraphicBase@@1UD3DXCOLOR@@A@@YAXXZ ; ??ms_FlashingColor$initializer$@CGraphicBase@@1P6AXXZA@@3P6AXXZA
CRT$XCU	ENDS
CRT$XCU	SEGMENT
??ms_Ray$initializer$@CGraphicBase@@1P6AXXZA@@3P6AXXZA DD FLAT:??__E?ms_Ray@CGraphicBase@@1VCRay@@A@@YAXXZ ; ??ms_Ray$initializer$@CGraphicBase@@1P6AXXZA@@3P6AXXZA
CRT$XCU	ENDS
; Function compile flags: /Odspy
; File D:\Metin2 Server Files\mainline\SRC_2014\Metin2Client\EterLib\GrpBase.cpp
;	COMDAT ??__E?ms_Ray@CGraphicBase@@1VCRay@@A@@YAXXZ
text$di	SEGMENT
??__E?ms_Ray@CGraphicBase@@1VCRay@@A@@YAXXZ PROC	; `dynamic initializer for 'CGraphicBase::ms_Ray'', COMDAT

; 79   : CRay					CGraphicBase::ms_Ray;

  00000	55		 push	 ebp
  00001	8b ec		 mov	 ebp, esp
  00003	5d		 pop	 ebp
  00004	c3		 ret	 0
??__E?ms_Ray@CGraphicBase@@1VCRay@@A@@YAXXZ ENDP	; `dynamic initializer for 'CGraphicBase::ms_Ray''
text$di	ENDS
; Function compile flags: /Odspy
; File D:\Metin2 Server Files\mainline\SRC_2014\Metin2Client\EterLib\GrpBase.cpp
;	COMDAT ??__E?ms_FlashingColor@CGraphicBase@@1UD3DXCOLOR@@A@@YAXXZ
text$di	SEGMENT
??__E?ms_FlashingColor@CGraphicBase@@1UD3DXCOLOR@@A@@YAXXZ PROC ; `dynamic initializer for 'CGraphicBase::ms_FlashingColor'', COMDAT

; 76   : D3DXCOLOR				CGraphicBase::ms_FlashingColor;

  00000	55		 push	 ebp
  00001	8b ec		 mov	 ebp, esp
  00003	5d		 pop	 ebp
  00004	c3		 ret	 0
??__E?ms_FlashingColor@CGraphicBase@@1UD3DXCOLOR@@A@@YAXXZ ENDP ; `dynamic initializer for 'CGraphicBase::ms_FlashingColor''
text$di	ENDS
; Function compile flags: /Odspy
; File D:\Metin2 Server Files\mainline\SRC_2014\Metin2Client\EterLib\GrpBase.cpp
;	COMDAT ??__E?ms_vtPickRayDir@CGraphicBase@@1UD3DXVECTOR3@@A@@YAXXZ
text$di	SEGMENT
??__E?ms_vtPickRayDir@CGraphicBase@@1UD3DXVECTOR3@@A@@YAXXZ PROC ; `dynamic initializer for 'CGraphicBase::ms_vtPickRayDir'', COMDAT

; 66   : D3DXVECTOR3				CGraphicBase::ms_vtPickRayDir;

  00000	55		 push	 ebp
  00001	8b ec		 mov	 ebp, esp
  00003	5d		 pop	 ebp
  00004	c3		 ret	 0
??__E?ms_vtPickRayDir@CGraphicBase@@1UD3DXVECTOR3@@A@@YAXXZ ENDP ; `dynamic initializer for 'CGraphicBase::ms_vtPickRayDir''
text$di	ENDS
; Function compile flags: /Odspy
; File D:\Metin2 Server Files\mainline\SRC_2014\Metin2Client\EterLib\GrpBase.cpp
;	COMDAT ??__E?ms_vtPickRayOrig@CGraphicBase@@1UD3DXVECTOR3@@A@@YAXXZ
text$di	SEGMENT
??__E?ms_vtPickRayOrig@CGraphicBase@@1UD3DXVECTOR3@@A@@YAXXZ PROC ; `dynamic initializer for 'CGraphicBase::ms_vtPickRayOrig'', COMDAT

; 65   : D3DXVECTOR3				CGraphicBase::ms_vtPickRayOrig;

  00000	55		 push	 ebp
  00001	8b ec		 mov	 ebp, esp
  00003	5d		 pop	 ebp
  00004	c3		 ret	 0
??__E?ms_vtPickRayOrig@CGraphicBase@@1UD3DXVECTOR3@@A@@YAXXZ ENDP ; `dynamic initializer for 'CGraphicBase::ms_vtPickRayOrig''
text$di	ENDS
; Function compile flags: /Odspy
; File D:\Metin2 Server Files\mainline\SRC_2014\Metin2Client\EterLib\GrpBase.cpp
;	COMDAT ??__E?ms_matScreen2@CGraphicBase@@1UD3DXMATRIX@@A@@YAXXZ
text$di	SEGMENT
??__E?ms_matScreen2@CGraphicBase@@1UD3DXMATRIX@@A@@YAXXZ PROC ; `dynamic initializer for 'CGraphicBase::ms_matScreen2'', COMDAT

; 63   : D3DXMATRIX				CGraphicBase::ms_matScreen2;

  00000	55		 push	 ebp
  00001	8b ec		 mov	 ebp, esp
  00003	5d		 pop	 ebp
  00004	c3		 ret	 0
??__E?ms_matScreen2@CGraphicBase@@1UD3DXMATRIX@@A@@YAXXZ ENDP ; `dynamic initializer for 'CGraphicBase::ms_matScreen2''
text$di	ENDS
; Function compile flags: /Odspy
; File D:\Metin2 Server Files\mainline\SRC_2014\Metin2Client\EterLib\GrpBase.cpp
;	COMDAT ??__E?ms_matScreen1@CGraphicBase@@1UD3DXMATRIX@@A@@YAXXZ
text$di	SEGMENT
??__E?ms_matScreen1@CGraphicBase@@1UD3DXMATRIX@@A@@YAXXZ PROC ; `dynamic initializer for 'CGraphicBase::ms_matScreen1'', COMDAT

; 62   : D3DXMATRIX				CGraphicBase::ms_matScreen1;

  00000	55		 push	 ebp
  00001	8b ec		 mov	 ebp, esp
  00003	5d		 pop	 ebp
  00004	c3		 ret	 0
??__E?ms_matScreen1@CGraphicBase@@1UD3DXMATRIX@@A@@YAXXZ ENDP ; `dynamic initializer for 'CGraphicBase::ms_matScreen1''
text$di	ENDS
; Function compile flags: /Odspy
; File D:\Metin2 Server Files\mainline\SRC_2014\Metin2Client\EterLib\GrpBase.cpp
;	COMDAT ??__E?ms_matScreen0@CGraphicBase@@1UD3DXMATRIX@@A@@YAXXZ
text$di	SEGMENT
??__E?ms_matScreen0@CGraphicBase@@1UD3DXMATRIX@@A@@YAXXZ PROC ; `dynamic initializer for 'CGraphicBase::ms_matScreen0'', COMDAT

; 61   : D3DXMATRIX				CGraphicBase::ms_matScreen0;

  00000	55		 push	 ebp
  00001	8b ec		 mov	 ebp, esp
  00003	5d		 pop	 ebp
  00004	c3		 ret	 0
??__E?ms_matScreen0@CGraphicBase@@1UD3DXMATRIX@@A@@YAXXZ ENDP ; `dynamic initializer for 'CGraphicBase::ms_matScreen0''
text$di	ENDS
; Function compile flags: /Odspy
; File D:\Metin2 Server Files\mainline\SRC_2014\Metin2Client\EterLib\GrpBase.cpp
;	COMDAT ??__E?ms_matWorldView@CGraphicBase@@1UD3DXMATRIX@@A@@YAXXZ
text$di	SEGMENT
??__E?ms_matWorldView@CGraphicBase@@1UD3DXMATRIX@@A@@YAXXZ PROC ; `dynamic initializer for 'CGraphicBase::ms_matWorldView'', COMDAT

; 59   : D3DXMATRIX				CGraphicBase::ms_matWorldView;

  00000	55		 push	 ebp
  00001	8b ec		 mov	 ebp, esp
  00003	5d		 pop	 ebp
  00004	c3		 ret	 0
??__E?ms_matWorldView@CGraphicBase@@1UD3DXMATRIX@@A@@YAXXZ ENDP ; `dynamic initializer for 'CGraphicBase::ms_matWorldView''
text$di	ENDS
; Function compile flags: /Odspy
; File D:\Metin2 Server Files\mainline\SRC_2014\Metin2Client\EterLib\GrpBase.cpp
;	COMDAT ??__E?ms_matWorld@CGraphicBase@@1UD3DXMATRIX@@A@@YAXXZ
text$di	SEGMENT
??__E?ms_matWorld@CGraphicBase@@1UD3DXMATRIX@@A@@YAXXZ PROC ; `dynamic initializer for 'CGraphicBase::ms_matWorld'', COMDAT

; 58   : D3DXMATRIX				CGraphicBase::ms_matWorld;

  00000	55		 push	 ebp
  00001	8b ec		 mov	 ebp, esp
  00003	5d		 pop	 ebp
  00004	c3		 ret	 0
??__E?ms_matWorld@CGraphicBase@@1UD3DXMATRIX@@A@@YAXXZ ENDP ; `dynamic initializer for 'CGraphicBase::ms_matWorld''
text$di	ENDS
; Function compile flags: /Odspy
; File D:\Metin2 Server Files\mainline\SRC_2014\Metin2Client\EterLib\GrpBase.cpp
;	COMDAT ??__E?ms_matInverseViewYAxis@CGraphicBase@@1UD3DXMATRIX@@A@@YAXXZ
text$di	SEGMENT
??__E?ms_matInverseViewYAxis@CGraphicBase@@1UD3DXMATRIX@@A@@YAXXZ PROC ; `dynamic initializer for 'CGraphicBase::ms_matInverseViewYAxis'', COMDAT

; 56   : D3DXMATRIX				CGraphicBase::ms_matInverseViewYAxis;

  00000	55		 push	 ebp
  00001	8b ec		 mov	 ebp, esp
  00003	5d		 pop	 ebp
  00004	c3		 ret	 0
??__E?ms_matInverseViewYAxis@CGraphicBase@@1UD3DXMATRIX@@A@@YAXXZ ENDP ; `dynamic initializer for 'CGraphicBase::ms_matInverseViewYAxis''
text$di	ENDS
; Function compile flags: /Odspy
; File D:\Metin2 Server Files\mainline\SRC_2014\Metin2Client\EterLib\GrpBase.cpp
;	COMDAT ??__E?ms_matInverseView@CGraphicBase@@1UD3DXMATRIX@@A@@YAXXZ
text$di	SEGMENT
??__E?ms_matInverseView@CGraphicBase@@1UD3DXMATRIX@@A@@YAXXZ PROC ; `dynamic initializer for 'CGraphicBase::ms_matInverseView'', COMDAT

; 55   : D3DXMATRIX				CGraphicBase::ms_matInverseView;

  00000	55		 push	 ebp
  00001	8b ec		 mov	 ebp, esp
  00003	5d		 pop	 ebp
  00004	c3		 ret	 0
??__E?ms_matInverseView@CGraphicBase@@1UD3DXMATRIX@@A@@YAXXZ ENDP ; `dynamic initializer for 'CGraphicBase::ms_matInverseView''
text$di	ENDS
; Function compile flags: /Odspy
; File D:\Metin2 Server Files\mainline\SRC_2014\Metin2Client\EterLib\GrpBase.cpp
;	COMDAT ??__E?ms_matProj@CGraphicBase@@1UD3DXMATRIX@@A@@YAXXZ
text$di	SEGMENT
??__E?ms_matProj@CGraphicBase@@1UD3DXMATRIX@@A@@YAXXZ PROC ; `dynamic initializer for 'CGraphicBase::ms_matProj'', COMDAT

; 54   : D3DXMATRIX				CGraphicBase::ms_matProj;

  00000	55		 push	 ebp
  00001	8b ec		 mov	 ebp, esp
  00003	5d		 pop	 ebp
  00004	c3		 ret	 0
??__E?ms_matProj@CGraphicBase@@1UD3DXMATRIX@@A@@YAXXZ ENDP ; `dynamic initializer for 'CGraphicBase::ms_matProj''
text$di	ENDS
; Function compile flags: /Odspy
; File D:\Metin2 Server Files\mainline\SRC_2014\Metin2Client\EterLib\GrpBase.cpp
;	COMDAT ??__E?ms_matView@CGraphicBase@@1UD3DXMATRIX@@A@@YAXXZ
text$di	SEGMENT
??__E?ms_matView@CGraphicBase@@1UD3DXMATRIX@@A@@YAXXZ PROC ; `dynamic initializer for 'CGraphicBase::ms_matView'', COMDAT

; 53   : D3DXMATRIX				CGraphicBase::ms_matView;

  00000	55		 push	 ebp
  00001	8b ec		 mov	 ebp, esp
  00003	5d		 pop	 ebp
  00004	c3		 ret	 0
??__E?ms_matView@CGraphicBase@@1UD3DXMATRIX@@A@@YAXXZ ENDP ; `dynamic initializer for 'CGraphicBase::ms_matView''
text$di	ENDS
; Function compile flags: /Odspy
; File D:\Metin2 Server Files\mainline\SRC_2014\Metin2Client\EterLib\GrpBase.cpp
;	COMDAT ??__E?ms_matIdentity@CGraphicBase@@1UD3DXMATRIX@@A@@YAXXZ
text$di	SEGMENT
??__E?ms_matIdentity@CGraphicBase@@1UD3DXMATRIX@@A@@YAXXZ PROC ; `dynamic initializer for 'CGraphicBase::ms_matIdentity'', COMDAT

; 51   : D3DXMATRIX				CGraphicBase::ms_matIdentity;

  00000	55		 push	 ebp
  00001	8b ec		 mov	 ebp, esp
  00003	5d		 pop	 ebp
  00004	c3		 ret	 0
??__E?ms_matIdentity@CGraphicBase@@1UD3DXMATRIX@@A@@YAXXZ ENDP ; `dynamic initializer for 'CGraphicBase::ms_matIdentity''
text$di	ENDS
; Function compile flags: /Odspy
;	COMDAT ??__F?ms_kD3DDetector@CGraphicBase@@1VD3D_CDisplayModeAutoDetector@@A@@YAXXZ
text$yd	SEGMENT
??__F?ms_kD3DDetector@CGraphicBase@@1VD3D_CDisplayModeAutoDetector@@A@@YAXXZ PROC ; `dynamic atexit destructor for 'CGraphicBase::ms_kD3DDetector'', COMDAT
  00000	55		 push	 ebp
  00001	8b ec		 mov	 ebp, esp
  00003	b9 00 00 00 00	 mov	 ecx, OFFSET ?ms_kD3DDetector@CGraphicBase@@1VD3D_CDisplayModeAutoDetector@@A ; CGraphicBase::ms_kD3DDetector
  00008	e8 00 00 00 00	 call	 ??1D3D_CDisplayModeAutoDetector@@QAE@XZ ; D3D_CDisplayModeAutoDetector::~D3D_CDisplayModeAutoDetector
  0000d	5d		 pop	 ebp
  0000e	c3		 ret	 0
??__F?ms_kD3DDetector@CGraphicBase@@1VD3D_CDisplayModeAutoDetector@@A@@YAXXZ ENDP ; `dynamic atexit destructor for 'CGraphicBase::ms_kD3DDetector''
text$yd	ENDS
; Function compile flags: /Odspy
; File D:\Metin2 Server Files\mainline\SRC_2014\Metin2Client\EterLib\GrpBase.cpp
;	COMDAT ??__E?ms_kD3DDetector@CGraphicBase@@1VD3D_CDisplayModeAutoDetector@@A@@YAXXZ
text$di	SEGMENT
??__E?ms_kD3DDetector@CGraphicBase@@1VD3D_CDisplayModeAutoDetector@@A@@YAXXZ PROC ; `dynamic initializer for 'CGraphicBase::ms_kD3DDetector'', COMDAT

; 25   : D3D_CDisplayModeAutoDetector				CGraphicBase::ms_kD3DDetector;

  00000	55		 push	 ebp
  00001	8b ec		 mov	 ebp, esp
  00003	b9 00 00 00 00	 mov	 ecx, OFFSET ?ms_kD3DDetector@CGraphicBase@@1VD3D_CDisplayModeAutoDetector@@A ; CGraphicBase::ms_kD3DDetector
  00008	e8 00 00 00 00	 call	 ??0D3D_CDisplayModeAutoDetector@@QAE@XZ ; D3D_CDisplayModeAutoDetector::D3D_CDisplayModeAutoDetector
  0000d	68 00 00 00 00	 push	 OFFSET ??__F?ms_kD3DDetector@CGraphicBase@@1VD3D_CDisplayModeAutoDetector@@A@@YAXXZ ; `dynamic atexit destructor for 'CGraphicBase::ms_kD3DDetector''
  00012	e8 00 00 00 00	 call	 _atexit
  00017	59		 pop	 ecx
  00018	5d		 pop	 ebp
  00019	c3		 ret	 0
??__E?ms_kD3DDetector@CGraphicBase@@1VD3D_CDisplayModeAutoDetector@@A@@YAXXZ ENDP ; `dynamic initializer for 'CGraphicBase::ms_kD3DDetector''
text$di	ENDS
; Function compile flags: /Odspy
;	COMDAT ??_GCGraphicBase@@UAEPAXI@Z
_TEXT	SEGMENT
_this$ = -4						; size = 4
___flags$ = 8						; size = 4
??_GCGraphicBase@@UAEPAXI@Z PROC			; CGraphicBase::`scalar deleting destructor', COMDAT
; _this$ = ecx
  00000	55		 push	 ebp
  00001	8b ec		 mov	 ebp, esp
  00003	51		 push	 ecx
  00004	89 4d fc	 mov	 DWORD PTR _this$[ebp], ecx
  00007	8b 4d fc	 mov	 ecx, DWORD PTR _this$[ebp]
  0000a	e8 00 00 00 00	 call	 ??1CGraphicBase@@UAE@XZ	; CGraphicBase::~CGraphicBase
  0000f	8b 45 08	 mov	 eax, DWORD PTR ___flags$[ebp]
  00012	83 e0 01	 and	 eax, 1
  00015	74 0c		 je	 SHORT $LN2@scalar
  00017	6a 04		 push	 4
  00019	ff 75 fc	 push	 DWORD PTR _this$[ebp]
  0001c	e8 00 00 00 00	 call	 ??3@YAXPAXI@Z		; operator delete
  00021	59		 pop	 ecx
  00022	59		 pop	 ecx
$LN2@scalar:
  00023	8b 45 fc	 mov	 eax, DWORD PTR _this$[ebp]
  00026	c9		 leave
  00027	c2 04 00	 ret	 4
??_GCGraphicBase@@UAEPAXI@Z ENDP			; CGraphicBase::`scalar deleting destructor'
_TEXT	ENDS
; Function compile flags: /Odspy
; File D:\Metin2 Server Files\mainline\SRC_2014\Metin2Client\EterLib\GrpBase.cpp
;	COMDAT ?UpdatePipeLineMatrix@CGraphicBase@@IAEXXZ
_TEXT	SEGMENT
_this$ = -4						; size = 4
?UpdatePipeLineMatrix@CGraphicBase@@IAEXXZ PROC		; CGraphicBase::UpdatePipeLineMatrix, COMDAT
; _this$ = ecx

; 347  : {

  00000	55		 push	 ebp
  00001	8b ec		 mov	 ebp, esp
  00003	51		 push	 ecx
  00004	89 4d fc	 mov	 DWORD PTR _this$[ebp], ecx

; 348  : 	UpdateProjMatrix();

  00007	8b 4d fc	 mov	 ecx, DWORD PTR _this$[ebp]
  0000a	e8 00 00 00 00	 call	 ?UpdateProjMatrix@CGraphicBase@@QAEXXZ ; CGraphicBase::UpdateProjMatrix

; 349  : 	UpdateViewMatrix();

  0000f	8b 4d fc	 mov	 ecx, DWORD PTR _this$[ebp]
  00012	e8 00 00 00 00	 call	 ?UpdateViewMatrix@CGraphicBase@@QAEXXZ ; CGraphicBase::UpdateViewMatrix

; 350  : }

  00017	c9		 leave
  00018	c3		 ret	 0
?UpdatePipeLineMatrix@CGraphicBase@@IAEXXZ ENDP		; CGraphicBase::UpdatePipeLineMatrix
_TEXT	ENDS
; Function compile flags: /Odspy
; File D:\Metin2 Server Files\mainline\SRC_2014\Metin2Client\EterLib\GrpBase.cpp
;	COMDAT ?SetPDTStream@CGraphicBase@@SA_NPAUSPDTVertex@@I@Z
_TEXT	SEGMENT
_pVertices$ = 8						; size = 4
_uVtxCount$ = 12					; size = 4
?SetPDTStream@CGraphicBase@@SA_NPAUSPDTVertex@@I@Z PROC	; CGraphicBase::SetPDTStream, COMDAT

; 147  : {

  00000	55		 push	 ebp
  00001	8b ec		 mov	 ebp, esp

; 148  : 	return SetPDTStream((SPDTVertexRaw*)pVertices, uVtxCount);

  00003	ff 75 0c	 push	 DWORD PTR _uVtxCount$[ebp]
  00006	ff 75 08	 push	 DWORD PTR _pVertices$[ebp]
  00009	e8 00 00 00 00	 call	 ?SetPDTStream@CGraphicBase@@SA_NPAUSPDTVertexRaw@@I@Z ; CGraphicBase::SetPDTStream
  0000e	59		 pop	 ecx
  0000f	59		 pop	 ecx

; 149  : }

  00010	5d		 pop	 ebp
  00011	c3		 ret	 0
?SetPDTStream@CGraphicBase@@SA_NPAUSPDTVertex@@I@Z ENDP	; CGraphicBase::SetPDTStream
_TEXT	ENDS
; Function compile flags: /Odspy
; File D:\Metin2 Server Files\mainline\SRC_2014\Metin2Client\EterLib\GrpBase.cpp
;	COMDAT ?SetPDTStream@CGraphicBase@@SA_NPAUSPDTVertexRaw@@I@Z
_TEXT	SEGMENT
_pDstVertices$ = -8					; size = 4
_plpd3dFillRectVB$ = -4					; size = 4
_pSrcVertices$ = 8					; size = 4
_uVtxCount$ = 12					; size = 4
?SetPDTStream@CGraphicBase@@SA_NPAUSPDTVertexRaw@@I@Z PROC ; CGraphicBase::SetPDTStream, COMDAT

; 152  : {

  00000	55		 push	 ebp
  00001	8b ec		 mov	 ebp, esp
  00003	51		 push	 ecx
  00004	51		 push	 ecx

; 153  : 	if (!uVtxCount)

  00005	83 7d 0c 00	 cmp	 DWORD PTR _uVtxCount$[ebp], 0
  00009	75 07		 jne	 SHORT $LN2@SetPDTStre

; 154  : 		return false;

  0000b	32 c0		 xor	 al, al
  0000d	e9 9a 00 00 00	 jmp	 $LN1@SetPDTStre
$LN2@SetPDTStre:

; 155  : 
; 156  : 	static DWORD s_dwVBPos=0;
; 157  : 
; 158  : 	if (s_dwVBPos>=PDT_VERTEXBUFFER_NUM)

  00012	83 3d 00 00 00
	00 64		 cmp	 DWORD PTR ?s_dwVBPos@?1??SetPDTStream@CGraphicBase@@SA_NPAUSPDTVertexRaw@@I@Z@4KA, 100 ; 00000064H
  00019	72 07		 jb	 SHORT $LN3@SetPDTStre

; 159  : 		s_dwVBPos=0;

  0001b	83 25 00 00 00
	00 00		 and	 DWORD PTR ?s_dwVBPos@?1??SetPDTStream@CGraphicBase@@SA_NPAUSPDTVertexRaw@@I@Z@4KA, 0
$LN3@SetPDTStre:

; 160  : 
; 161  : 	IDirect3DVertexBuffer8* plpd3dFillRectVB=ms_alpd3dPDTVB[s_dwVBPos];

  00022	a1 00 00 00 00	 mov	 eax, DWORD PTR ?s_dwVBPos@?1??SetPDTStream@CGraphicBase@@SA_NPAUSPDTVertexRaw@@I@Z@4KA
  00027	8b 04 85 00 00
	00 00		 mov	 eax, DWORD PTR ?ms_alpd3dPDTVB@CGraphicBase@@1PAPAUIDirect3DVertexBuffer8@@A[eax*4]
  0002e	89 45 fc	 mov	 DWORD PTR _plpd3dFillRectVB$[ebp], eax

; 162  : 	++s_dwVBPos;

  00031	a1 00 00 00 00	 mov	 eax, DWORD PTR ?s_dwVBPos@?1??SetPDTStream@CGraphicBase@@SA_NPAUSPDTVertexRaw@@I@Z@4KA
  00036	40		 inc	 eax
  00037	a3 00 00 00 00	 mov	 DWORD PTR ?s_dwVBPos@?1??SetPDTStream@CGraphicBase@@SA_NPAUSPDTVertexRaw@@I@Z@4KA, eax

; 163  : 
; 164  : 	assert(PDT_VERTEX_NUM>=uVtxCount);
; 165  : 	if (uVtxCount >= PDT_VERTEX_NUM)

  0003c	83 7d 0c 10	 cmp	 DWORD PTR _uVtxCount$[ebp], 16 ; 00000010H
  00040	72 04		 jb	 SHORT $LN4@SetPDTStre

; 166  : 		return false;

  00042	32 c0		 xor	 al, al
  00044	eb 66		 jmp	 SHORT $LN1@SetPDTStre
$LN4@SetPDTStre:

; 167  : 
; 168  : 	TPDTVertex* pDstVertices;
; 169  : 	if (FAILED(

  00046	68 00 20 00 00	 push	 8192			; 00002000H
  0004b	8d 45 f8	 lea	 eax, DWORD PTR _pDstVertices$[ebp]
  0004e	50		 push	 eax
  0004f	6b 45 0c 18	 imul	 eax, DWORD PTR _uVtxCount$[ebp], 24
  00053	50		 push	 eax
  00054	6a 00		 push	 0
  00056	8b 45 fc	 mov	 eax, DWORD PTR _plpd3dFillRectVB$[ebp]
  00059	8b 00		 mov	 eax, DWORD PTR [eax]
  0005b	ff 75 fc	 push	 DWORD PTR _plpd3dFillRectVB$[ebp]
  0005e	ff 50 2c	 call	 DWORD PTR [eax+44]
  00061	85 c0		 test	 eax, eax
  00063	7d 15		 jge	 SHORT $LN5@SetPDTStre

; 170  : 		plpd3dFillRectVB->Lock(0, sizeof(TPDTVertex)*uVtxCount, (BYTE**)&pDstVertices, D3DLOCK_DISCARD)
; 171  : 	)) 
; 172  : 	{
; 173  : 		STATEMANAGER.SetStreamSource(0, NULL, 0);

  00065	6a 00		 push	 0
  00067	6a 00		 push	 0
  00069	6a 00		 push	 0
  0006b	8b 0d 00 00 00
	00		 mov	 ecx, DWORD PTR ?ms_singleton@?$CSingleton@VCStateManager@@@@0PAVCStateManager@@A ; CSingleton<CStateManager>::ms_singleton
  00071	e8 00 00 00 00	 call	 ?SetStreamSource@CStateManager@@QAEXIPAUIDirect3DVertexBuffer8@@I@Z ; CStateManager::SetStreamSource

; 174  : 		return false;

  00076	32 c0		 xor	 al, al
  00078	eb 32		 jmp	 SHORT $LN1@SetPDTStre
$LN5@SetPDTStre:

; 175  : 	}
; 176  : 	
; 177  : 	
; 178  : 	memcpy(pDstVertices, pSrcVertices, sizeof(TPDTVertex)*uVtxCount);

  0007a	6b 45 0c 18	 imul	 eax, DWORD PTR _uVtxCount$[ebp], 24
  0007e	50		 push	 eax
  0007f	ff 75 08	 push	 DWORD PTR _pSrcVertices$[ebp]
  00082	ff 75 f8	 push	 DWORD PTR _pDstVertices$[ebp]
  00085	e8 00 00 00 00	 call	 _memcpy
  0008a	83 c4 0c	 add	 esp, 12			; 0000000cH

; 179  : 
; 180  : 	plpd3dFillRectVB->Unlock();

  0008d	8b 45 fc	 mov	 eax, DWORD PTR _plpd3dFillRectVB$[ebp]
  00090	8b 00		 mov	 eax, DWORD PTR [eax]
  00092	ff 75 fc	 push	 DWORD PTR _plpd3dFillRectVB$[ebp]
  00095	ff 50 30	 call	 DWORD PTR [eax+48]

; 181  : 
; 182  : 	STATEMANAGER.SetStreamSource(0, plpd3dFillRectVB, sizeof(TPDTVertex));	

  00098	6a 18		 push	 24			; 00000018H
  0009a	ff 75 fc	 push	 DWORD PTR _plpd3dFillRectVB$[ebp]
  0009d	6a 00		 push	 0
  0009f	8b 0d 00 00 00
	00		 mov	 ecx, DWORD PTR ?ms_singleton@?$CSingleton@VCStateManager@@@@0PAVCStateManager@@A ; CSingleton<CStateManager>::ms_singleton
  000a5	e8 00 00 00 00	 call	 ?SetStreamSource@CStateManager@@QAEXIPAUIDirect3DVertexBuffer8@@I@Z ; CStateManager::SetStreamSource

; 183  : 
; 184  : 	return true;

  000aa	b0 01		 mov	 al, 1
$LN1@SetPDTStre:

; 185  : }

  000ac	c9		 leave
  000ad	c3		 ret	 0
?SetPDTStream@CGraphicBase@@SA_NPAUSPDTVertexRaw@@I@Z ENDP ; CGraphicBase::SetPDTStream
_TEXT	ENDS
; Function compile flags: /Odspy
; File D:\Metin2 Server Files\mainline\SRC_2014\Metin2Client\EterLib\GrpBase.cpp
;	COMDAT ?SetDefaultIndexBuffer@CGraphicBase@@SAXI@Z
_TEXT	SEGMENT
_eDefIB$ = 8						; size = 4
?SetDefaultIndexBuffer@CGraphicBase@@SAXI@Z PROC	; CGraphicBase::SetDefaultIndexBuffer, COMDAT

; 139  : {

  00000	55		 push	 ebp
  00001	8b ec		 mov	 ebp, esp

; 140  : 	if (eDefIB>=DEFAULT_IB_NUM)

  00003	83 7d 08 07	 cmp	 DWORD PTR _eDefIB$[ebp], 7
  00007	72 02		 jb	 SHORT $LN4@SetDefault

; 141  : 		return;

  00009	eb 17		 jmp	 SHORT $LN1@SetDefault
$LN4@SetDefault:

; 142  : 
; 143  : 	STATEMANAGER.SetIndices(ms_alpd3dDefIB[eDefIB], 0);

  0000b	6a 00		 push	 0
  0000d	8b 45 08	 mov	 eax, DWORD PTR _eDefIB$[ebp]
  00010	ff 34 85 00 00
	00 00		 push	 DWORD PTR ?ms_alpd3dDefIB@CGraphicBase@@1PAPAUIDirect3DIndexBuffer8@@A[eax*4]
  00017	8b 0d 00 00 00
	00		 mov	 ecx, DWORD PTR ?ms_singleton@?$CSingleton@VCStateManager@@@@0PAVCStateManager@@A ; CSingleton<CStateManager>::ms_singleton
  0001d	e8 00 00 00 00	 call	 ?SetIndices@CStateManager@@QAEXPAUIDirect3DIndexBuffer8@@I@Z ; CStateManager::SetIndices
$LN1@SetDefault:

; 144  : }

  00022	5d		 pop	 ebp
  00023	c3		 ret	 0
?SetDefaultIndexBuffer@CGraphicBase@@SAXI@Z ENDP	; CGraphicBase::SetDefaultIndexBuffer
_TEXT	ENDS
; Function compile flags: /Odspy
; File D:\Metin2 Server Files\mainline\SRC_2014\Metin2Client\EterLib\GrpBase.cpp
;	COMDAT ?IsHighTextureMemory@CGraphicBase@@SA_NXZ
_TEXT	SEGMENT
?IsHighTextureMemory@CGraphicBase@@SA_NXZ PROC		; CGraphicBase::IsHighTextureMemory, COMDAT

; 109  : {

  00000	55		 push	 ebp
  00001	8b ec		 mov	 ebp, esp

; 110  : 	return ms_isHighTextureMemory;

  00003	a0 00 00 00 00	 mov	 al, BYTE PTR ?ms_isHighTextureMemory@CGraphicBase@@1_NA ; CGraphicBase::ms_isHighTextureMemory

; 111  : }

  00008	5d		 pop	 ebp
  00009	c3		 ret	 0
?IsHighTextureMemory@CGraphicBase@@SA_NXZ ENDP		; CGraphicBase::IsHighTextureMemory
_TEXT	ENDS
; Function compile flags: /Odspy
; File D:\Metin2 Server Files\mainline\SRC_2014\Metin2Client\EterLib\GrpBase.cpp
;	COMDAT ?IsLowTextureMemory@CGraphicBase@@SA_NXZ
_TEXT	SEGMENT
?IsLowTextureMemory@CGraphicBase@@SA_NXZ PROC		; CGraphicBase::IsLowTextureMemory, COMDAT

; 104  : {

  00000	55		 push	 ebp
  00001	8b ec		 mov	 ebp, esp

; 105  : 	return ms_isLowTextureMemory;

  00003	a0 00 00 00 00	 mov	 al, BYTE PTR ?ms_isLowTextureMemory@CGraphicBase@@1_NA ; CGraphicBase::ms_isLowTextureMemory

; 106  : }

  00008	5d		 pop	 ebp
  00009	c3		 ret	 0
?IsLowTextureMemory@CGraphicBase@@SA_NXZ ENDP		; CGraphicBase::IsLowTextureMemory
_TEXT	ENDS
; Function compile flags: /Odspy
; File D:\Metin2 Server Files\mainline\SRC_2014\Metin2Client\EterLib\GrpBase.cpp
;	COMDAT ?IsFastTNL@CGraphicBase@@SA_NXZ
_TEXT	SEGMENT
?IsFastTNL@CGraphicBase@@SA_NXZ PROC			; CGraphicBase::IsFastTNL, COMDAT

; 114  : { 

  00000	55		 push	 ebp
  00001	8b ec		 mov	 ebp, esp

; 115  : 	if (ms_dwD3DBehavior & D3DCREATE_HARDWARE_VERTEXPROCESSING ||

  00003	a1 00 00 00 00	 mov	 eax, DWORD PTR ?ms_dwD3DBehavior@CGraphicBase@@1KA ; CGraphicBase::ms_dwD3DBehavior
  00008	83 e0 40	 and	 eax, 64			; 00000040H
  0000b	75 0c		 jne	 SHORT $LN3@IsFastTNL
  0000d	a1 00 00 00 00	 mov	 eax, DWORD PTR ?ms_dwD3DBehavior@CGraphicBase@@1KA ; CGraphicBase::ms_dwD3DBehavior
  00012	25 80 00 00 00	 and	 eax, 128		; 00000080H
  00017	74 10		 je	 SHORT $LN2@IsFastTNL
$LN3@IsFastTNL:

; 116  : 		ms_dwD3DBehavior & D3DCREATE_MIXED_VERTEXPROCESSING)
; 117  : 	{
; 118  : 		if (ms_d3dCaps.VertexShaderVersion>D3DVS_VERSION(1,0))

  00019	81 3d c4 00 00
	00 00 01 fe ff	 cmp	 DWORD PTR ?ms_d3dCaps@CGraphicBase@@1U_D3DCAPS8@@A+196, -130816 ; fffe0100H
  00023	76 04		 jbe	 SHORT $LN2@IsFastTNL

; 119  : 			return true;

  00025	b0 01		 mov	 al, 1
  00027	eb 02		 jmp	 SHORT $LN1@IsFastTNL
$LN2@IsFastTNL:

; 120  : 	}
; 121  : 	return false;

  00029	32 c0		 xor	 al, al
$LN1@IsFastTNL:

; 122  : }

  0002b	5d		 pop	 ebp
  0002c	c3		 ret	 0
?IsFastTNL@CGraphicBase@@SA_NXZ ENDP			; CGraphicBase::IsFastTNL
_TEXT	ENDS
; Function compile flags: /Odspy
; File D:\Metin2 Server Files\mainline\SRC_2014\Metin2Client\EterLib\GrpBase.cpp
;	COMDAT ?IsTLVertexClipping@CGraphicBase@@SA_NXZ
_TEXT	SEGMENT
?IsTLVertexClipping@CGraphicBase@@SA_NXZ PROC		; CGraphicBase::IsTLVertexClipping, COMDAT

; 125  : {

  00000	55		 push	 ebp
  00001	8b ec		 mov	 ebp, esp

; 126  : 	if (ms_d3dCaps.PrimitiveMiscCaps & D3DPMISCCAPS_CLIPTLVERTS)

  00003	a1 20 00 00 00	 mov	 eax, DWORD PTR ?ms_d3dCaps@CGraphicBase@@1U_D3DCAPS8@@A+32
  00008	25 00 02 00 00	 and	 eax, 512		; 00000200H
  0000d	74 04		 je	 SHORT $LN2@IsTLVertex

; 127  : 		return true;

  0000f	b0 01		 mov	 al, 1
  00011	eb 02		 jmp	 SHORT $LN1@IsTLVertex
$LN2@IsTLVertex:

; 128  : 
; 129  : 	return false;

  00013	32 c0		 xor	 al, al
$LN1@IsTLVertex:

; 130  : }

  00015	5d		 pop	 ebp
  00016	c3		 ret	 0
?IsTLVertexClipping@CGraphicBase@@SA_NXZ ENDP		; CGraphicBase::IsTLVertexClipping
_TEXT	ENDS
; Function compile flags: /Odspy
; File D:\Metin2 Server Files\mainline\SRC_2014\Metin2Client\EterLib\GrpBase.cpp
;	COMDAT ?GetBackBufferSize@CGraphicBase@@SAXPAI0@Z
_TEXT	SEGMENT
_puWidth$ = 8						; size = 4
_puHeight$ = 12						; size = 4
?GetBackBufferSize@CGraphicBase@@SAXPAI0@Z PROC		; CGraphicBase::GetBackBufferSize, COMDAT

; 133  : {

  00000	55		 push	 ebp
  00001	8b ec		 mov	 ebp, esp

; 134  : 	*puWidth=ms_d3dPresentParameter.BackBufferWidth;

  00003	8b 45 08	 mov	 eax, DWORD PTR _puWidth$[ebp]
  00006	8b 0d 00 00 00
	00		 mov	 ecx, DWORD PTR ?ms_d3dPresentParameter@CGraphicBase@@1U_D3DPRESENT_PARAMETERS_@@A
  0000c	89 08		 mov	 DWORD PTR [eax], ecx

; 135  : 	*puHeight=ms_d3dPresentParameter.BackBufferHeight;

  0000e	8b 45 0c	 mov	 eax, DWORD PTR _puHeight$[ebp]
  00011	8b 0d 04 00 00
	00		 mov	 ecx, DWORD PTR ?ms_d3dPresentParameter@CGraphicBase@@1U_D3DPRESENT_PARAMETERS_@@A+4
  00017	89 08		 mov	 DWORD PTR [eax], ecx

; 136  : }

  00019	5d		 pop	 ebp
  0001a	c3		 ret	 0
?GetBackBufferSize@CGraphicBase@@SAXPAI0@Z ENDP		; CGraphicBase::GetBackBufferSize
_TEXT	ENDS
; Function compile flags: /Odspy
; File D:\Metin2 Server Files\mainline\SRC_2014\Metin2Client\EterLib\GrpBase.cpp
;	COMDAT ?SetViewport@CGraphicBase@@QAEXKKKKMM@Z
_TEXT	SEGMENT
_this$ = -4						; size = 4
_dwX$ = 8						; size = 4
_dwY$ = 12						; size = 4
_dwWidth$ = 16						; size = 4
_dwHeight$ = 20						; size = 4
_fMinZ$ = 24						; size = 4
_fMaxZ$ = 28						; size = 4
?SetViewport@CGraphicBase@@QAEXKKKKMM@Z PROC		; CGraphicBase::SetViewport, COMDAT
; _this$ = ecx

; 353  : {

  00000	55		 push	 ebp
  00001	8b ec		 mov	 ebp, esp
  00003	51		 push	 ecx
  00004	89 4d fc	 mov	 DWORD PTR _this$[ebp], ecx

; 354  : 	ms_Viewport.X = dwX;

  00007	8b 45 08	 mov	 eax, DWORD PTR _dwX$[ebp]
  0000a	a3 00 00 00 00	 mov	 DWORD PTR ?ms_Viewport@CGraphicBase@@1U_D3DVIEWPORT8@@A, eax

; 355  : 	ms_Viewport.Y = dwY;

  0000f	8b 45 0c	 mov	 eax, DWORD PTR _dwY$[ebp]
  00012	a3 04 00 00 00	 mov	 DWORD PTR ?ms_Viewport@CGraphicBase@@1U_D3DVIEWPORT8@@A+4, eax

; 356  : 	ms_Viewport.Width = dwWidth;

  00017	8b 45 10	 mov	 eax, DWORD PTR _dwWidth$[ebp]
  0001a	a3 08 00 00 00	 mov	 DWORD PTR ?ms_Viewport@CGraphicBase@@1U_D3DVIEWPORT8@@A+8, eax

; 357  : 	ms_Viewport.Height = dwHeight;

  0001f	8b 45 14	 mov	 eax, DWORD PTR _dwHeight$[ebp]
  00022	a3 0c 00 00 00	 mov	 DWORD PTR ?ms_Viewport@CGraphicBase@@1U_D3DVIEWPORT8@@A+12, eax

; 358  : 	ms_Viewport.MinZ = fMinZ;

  00027	f3 0f 10 45 18	 movss	 xmm0, DWORD PTR _fMinZ$[ebp]
  0002c	f3 0f 11 05 10
	00 00 00	 movss	 DWORD PTR ?ms_Viewport@CGraphicBase@@1U_D3DVIEWPORT8@@A+16, xmm0

; 359  : 	ms_Viewport.MaxZ = fMaxZ;

  00034	f3 0f 10 45 1c	 movss	 xmm0, DWORD PTR _fMaxZ$[ebp]
  00039	f3 0f 11 05 14
	00 00 00	 movss	 DWORD PTR ?ms_Viewport@CGraphicBase@@1U_D3DVIEWPORT8@@A+20, xmm0

; 360  : }

  00041	c9		 leave
  00042	c2 18 00	 ret	 24			; 00000018H
?SetViewport@CGraphicBase@@QAEXKKKKMM@Z ENDP		; CGraphicBase::SetViewport
_TEXT	ENDS
; Function compile flags: /Odspy
; File D:\Metin2 Server Files\mainline\SRC_2014\Metin2Client\EterLib\GrpBase.cpp
; File D:\Metin2 Server Files\mainline\SRC_2014\Metin2Client\eterBase\Singleton.h
; File D:\Metin2 Server Files\mainline\SRC_2014\Metin2Client\EterLib\GrpBase.cpp
; File D:\Metin2 Server Files\mainline\SRC_2014\Metin2Client\EterLib\Camera.h
; File D:\Metin2 Server Files\mainline\SRC_2014\Metin2Client\EterLib\GrpBase.cpp
;	COMDAT ?UpdateViewMatrix@CGraphicBase@@QAEXXZ
_TEXT	SEGMENT
_this$ = -12						; size = 4
$T1 = -8						; size = 4
_pkCamera$ = -4						; size = 4
?UpdateViewMatrix@CGraphicBase@@QAEXXZ PROC		; CGraphicBase::UpdateViewMatrix, COMDAT
; _this$ = ecx

; 331  : {

  00000	55		 push	 ebp
  00001	8b ec		 mov	 ebp, esp
  00003	83 ec 0c	 sub	 esp, 12			; 0000000cH
  00006	56		 push	 esi
  00007	57		 push	 edi
  00008	89 4d f4	 mov	 DWORD PTR _this$[ebp], ecx
; File D:\Metin2 Server Files\mainline\SRC_2014\Metin2Client\eterBase\Singleton.h

; 27   : 		return (*ms_singleton);

  0000b	a1 00 00 00 00	 mov	 eax, DWORD PTR ?ms_singleton@?$CSingleton@VCCameraManager@@@@0PAVCCameraManager@@A ; CSingleton<CCameraManager>::ms_singleton
  00010	89 45 f8	 mov	 DWORD PTR $T1[ebp], eax
; File D:\Metin2 Server Files\mainline\SRC_2014\Metin2Client\EterLib\GrpBase.cpp

; 332  : 	CCamera* pkCamera=CCameraManager::Instance().GetCurrentCamera();

  00013	8b 4d f8	 mov	 ecx, DWORD PTR $T1[ebp]
  00016	e8 00 00 00 00	 call	 ?GetCurrentCamera@CCameraManager@@QAEPAVCCamera@@XZ ; CCameraManager::GetCurrentCamera
  0001b	89 45 fc	 mov	 DWORD PTR _pkCamera$[ebp], eax

; 333  : 	if (!pkCamera)

  0001e	83 7d fc 00	 cmp	 DWORD PTR _pkCamera$[ebp], 0
  00022	75 02		 jne	 SHORT $LN2@UpdateView

; 334  : 		return;

  00024	eb 73		 jmp	 SHORT $LN1@UpdateView
$LN2@UpdateView:
; File D:\Metin2 Server Files\mainline\SRC_2014\Metin2Client\EterLib\Camera.h

; 174  : 		const D3DXMATRIX & GetViewMatrix() const		{ return m_matView; }

  00026	8b 75 fc	 mov	 esi, DWORD PTR _pkCamera$[ebp]
  00029	83 c6 6c	 add	 esi, 108		; 0000006cH
; File D:\Metin2 Server Files\mainline\SRC_2014\Metin2Client\EterLib\GrpBase.cpp

; 336  : 	ms_matView = pkCamera->GetViewMatrix();

  0002c	6a 10		 push	 16			; 00000010H
  0002e	59		 pop	 ecx
  0002f	bf 00 00 00 00	 mov	 edi, OFFSET ?ms_matView@CGraphicBase@@1UD3DXMATRIX@@A ; CGraphicBase::ms_matView
  00034	f3 a5		 rep movsd

; 337  : 	STATEMANAGER.SetTransform(D3DTS_VIEW, &ms_matView);

  00036	68 00 00 00 00	 push	 OFFSET ?ms_matView@CGraphicBase@@1UD3DXMATRIX@@A ; CGraphicBase::ms_matView
  0003b	6a 02		 push	 2
  0003d	8b 0d 00 00 00
	00		 mov	 ecx, DWORD PTR ?ms_singleton@?$CSingleton@VCStateManager@@@@0PAVCStateManager@@A ; CSingleton<CStateManager>::ms_singleton
  00043	e8 00 00 00 00	 call	 ?SetTransform@CStateManager@@QAEXW4_D3DTRANSFORMSTATETYPE@@PBU_D3DMATRIX@@@Z ; CStateManager::SetTransform

; 338  : 
; 339  : 	D3DXMatrixInverse(&ms_matInverseView, NULL, &ms_matView);

  00048	68 00 00 00 00	 push	 OFFSET ?ms_matView@CGraphicBase@@1UD3DXMATRIX@@A ; CGraphicBase::ms_matView
  0004d	6a 00		 push	 0
  0004f	68 00 00 00 00	 push	 OFFSET ?ms_matInverseView@CGraphicBase@@1UD3DXMATRIX@@A ; CGraphicBase::ms_matInverseView
  00054	e8 00 00 00 00	 call	 _D3DXMatrixInverse@12

; 340  : 	ms_matInverseViewYAxis._11 = ms_matInverseView._11;

  00059	f3 0f 10 05 00
	00 00 00	 movss	 xmm0, DWORD PTR ?ms_matInverseView@CGraphicBase@@1UD3DXMATRIX@@A
  00061	f3 0f 11 05 00
	00 00 00	 movss	 DWORD PTR ?ms_matInverseViewYAxis@CGraphicBase@@1UD3DXMATRIX@@A, xmm0

; 341  : 	ms_matInverseViewYAxis._12 = ms_matInverseView._12;

  00069	f3 0f 10 05 04
	00 00 00	 movss	 xmm0, DWORD PTR ?ms_matInverseView@CGraphicBase@@1UD3DXMATRIX@@A+4
  00071	f3 0f 11 05 04
	00 00 00	 movss	 DWORD PTR ?ms_matInverseViewYAxis@CGraphicBase@@1UD3DXMATRIX@@A+4, xmm0

; 342  : 	ms_matInverseViewYAxis._21 = ms_matInverseView._21;

  00079	f3 0f 10 05 10
	00 00 00	 movss	 xmm0, DWORD PTR ?ms_matInverseView@CGraphicBase@@1UD3DXMATRIX@@A+16
  00081	f3 0f 11 05 10
	00 00 00	 movss	 DWORD PTR ?ms_matInverseViewYAxis@CGraphicBase@@1UD3DXMATRIX@@A+16, xmm0

; 343  : 	ms_matInverseViewYAxis._22 = ms_matInverseView._22;

  00089	f3 0f 10 05 14
	00 00 00	 movss	 xmm0, DWORD PTR ?ms_matInverseView@CGraphicBase@@1UD3DXMATRIX@@A+20
  00091	f3 0f 11 05 14
	00 00 00	 movss	 DWORD PTR ?ms_matInverseViewYAxis@CGraphicBase@@1UD3DXMATRIX@@A+20, xmm0
$LN1@UpdateView:

; 344  : }

  00099	5f		 pop	 edi
  0009a	5e		 pop	 esi
  0009b	c9		 leave
  0009c	c3		 ret	 0
?UpdateViewMatrix@CGraphicBase@@QAEXXZ ENDP		; CGraphicBase::UpdateViewMatrix
_TEXT	ENDS
; Function compile flags: /Odspy
; File D:\Metin2 Server Files\mainline\SRC_2014\Metin2Client\EterLib\GrpBase.cpp
;	COMDAT ?UpdateProjMatrix@CGraphicBase@@QAEXXZ
_TEXT	SEGMENT
_this$ = -4						; size = 4
?UpdateProjMatrix@CGraphicBase@@QAEXXZ PROC		; CGraphicBase::UpdateProjMatrix, COMDAT
; _this$ = ecx

; 326  : {

  00000	55		 push	 ebp
  00001	8b ec		 mov	 ebp, esp
  00003	51		 push	 ecx
  00004	89 4d fc	 mov	 DWORD PTR _this$[ebp], ecx

; 327  : 	STATEMANAGER.SetTransform(D3DTS_PROJECTION, &ms_matProj);

  00007	68 00 00 00 00	 push	 OFFSET ?ms_matProj@CGraphicBase@@1UD3DXMATRIX@@A ; CGraphicBase::ms_matProj
  0000c	6a 03		 push	 3
  0000e	8b 0d 00 00 00
	00		 mov	 ecx, DWORD PTR ?ms_singleton@?$CSingleton@VCStateManager@@@@0PAVCStateManager@@A ; CSingleton<CStateManager>::ms_singleton
  00014	e8 00 00 00 00	 call	 ?SetTransform@CStateManager@@QAEXW4_D3DTRANSFORMSTATETYPE@@PBU_D3DMATRIX@@@Z ; CStateManager::SetTransform

; 328  : }

  00019	c9		 leave
  0001a	c3		 ret	 0
?UpdateProjMatrix@CGraphicBase@@QAEXXZ ENDP		; CGraphicBase::UpdateProjMatrix
_TEXT	ENDS
; Function compile flags: /Odspy
; File D:\Metin2 Server Files\mainline\SRC_2014\Metin2Client\EterLib\GrpBase.cpp
;	COMDAT ?GetLastResult@CGraphicBase@@QAEJXZ
_TEXT	SEGMENT
_this$ = -4						; size = 4
?GetLastResult@CGraphicBase@@QAEJXZ PROC		; CGraphicBase::GetLastResult, COMDAT
; _this$ = ecx

; 502  : {

  00000	55		 push	 ebp
  00001	8b ec		 mov	 ebp, esp
  00003	51		 push	 ecx
  00004	89 4d fc	 mov	 DWORD PTR _this$[ebp], ecx

; 503  : 	return ms_hLastResult;

  00007	a1 00 00 00 00	 mov	 eax, DWORD PTR ?ms_hLastResult@CGraphicBase@@1JA ; CGraphicBase::ms_hLastResult

; 504  : }

  0000c	c9		 leave
  0000d	c3		 ret	 0
?GetLastResult@CGraphicBase@@QAEJXZ ENDP		; CGraphicBase::GetLastResult
_TEXT	ENDS
; Function compile flags: /Odspy
; File D:\Metin2 Server Files\mainline\SRC_2014\Metin2Client\EterLib\GrpBase.cpp
;	COMDAT ?ResetFaceCount@CGraphicBase@@QAEXXZ
_TEXT	SEGMENT
_this$ = -4						; size = 4
?ResetFaceCount@CGraphicBase@@QAEXXZ PROC		; CGraphicBase::ResetFaceCount, COMDAT
; _this$ = ecx

; 497  : {

  00000	55		 push	 ebp
  00001	8b ec		 mov	 ebp, esp
  00003	51		 push	 ecx
  00004	89 4d fc	 mov	 DWORD PTR _this$[ebp], ecx

; 498  : 	ms_faceCount = 0;

  00007	83 25 00 00 00
	00 00		 and	 DWORD PTR ?ms_faceCount@CGraphicBase@@1KA, 0 ; CGraphicBase::ms_faceCount

; 499  : }

  0000e	c9		 leave
  0000f	c3		 ret	 0
?ResetFaceCount@CGraphicBase@@QAEXXZ ENDP		; CGraphicBase::ResetFaceCount
_TEXT	ENDS
; Function compile flags: /Odspy
; File D:\Metin2 Server Files\mainline\SRC_2014\Metin2Client\EterLib\GrpBase.cpp
;	COMDAT ?GetFaceCount@CGraphicBase@@QAEKXZ
_TEXT	SEGMENT
_this$ = -4						; size = 4
?GetFaceCount@CGraphicBase@@QAEKXZ PROC			; CGraphicBase::GetFaceCount, COMDAT
; _this$ = ecx

; 492  : {

  00000	55		 push	 ebp
  00001	8b ec		 mov	 ebp, esp
  00003	51		 push	 ecx
  00004	89 4d fc	 mov	 DWORD PTR _this$[ebp], ecx

; 493  : 	return ms_faceCount;

  00007	a1 00 00 00 00	 mov	 eax, DWORD PTR ?ms_faceCount@CGraphicBase@@1KA ; CGraphicBase::ms_faceCount

; 494  : }

  0000c	c9		 leave
  0000d	c3		 ret	 0
?GetFaceCount@CGraphicBase@@QAEKXZ ENDP			; CGraphicBase::GetFaceCount
_TEXT	ENDS
; Function compile flags: /Odspy
; File D:\Metin2 Server Files\mainline\SRC_2014\Metin2Client\EterLib\GrpBase.cpp
;	COMDAT ?GetColor@CGraphicBase@@QAEKMMMM@Z
_TEXT	SEGMENT
_this$ = -8						; size = 4
_argb$ = -4						; size = 4
_r$ = 8							; size = 4
_g$ = 12						; size = 4
_b$ = 16						; size = 4
_a$ = 20						; size = 4
?GetColor@CGraphicBase@@QAEKMMMM@Z PROC			; CGraphicBase::GetColor, COMDAT
; _this$ = ecx

; 459  : {

  00000	55		 push	 ebp
  00001	8b ec		 mov	 ebp, esp
  00003	51		 push	 ecx
  00004	51		 push	 ecx
  00005	89 4d f8	 mov	 DWORD PTR _this$[ebp], ecx

; 460  : 	BYTE argb[4] =
; 461  : 	{
; 462  : 		(BYTE) (255.0f * b),

  00008	f3 0f 10 05 00
	00 00 00	 movss	 xmm0, DWORD PTR __real@437f0000
  00010	f3 0f 59 45 10	 mulss	 xmm0, DWORD PTR _b$[ebp]
  00015	f3 0f 2c c0	 cvttss2si eax, xmm0
  00019	88 45 fc	 mov	 BYTE PTR _argb$[ebp], al

; 463  : 		(BYTE) (255.0f * g),

  0001c	f3 0f 10 05 00
	00 00 00	 movss	 xmm0, DWORD PTR __real@437f0000
  00024	f3 0f 59 45 0c	 mulss	 xmm0, DWORD PTR _g$[ebp]
  00029	f3 0f 2c c0	 cvttss2si eax, xmm0
  0002d	88 45 fd	 mov	 BYTE PTR _argb$[ebp+1], al

; 464  : 		(BYTE) (255.0f * r),

  00030	f3 0f 10 05 00
	00 00 00	 movss	 xmm0, DWORD PTR __real@437f0000
  00038	f3 0f 59 45 08	 mulss	 xmm0, DWORD PTR _r$[ebp]
  0003d	f3 0f 2c c0	 cvttss2si eax, xmm0
  00041	88 45 fe	 mov	 BYTE PTR _argb$[ebp+2], al

; 465  : 		(BYTE) (255.0f * a)

  00044	f3 0f 10 05 00
	00 00 00	 movss	 xmm0, DWORD PTR __real@437f0000
  0004c	f3 0f 59 45 14	 mulss	 xmm0, DWORD PTR _a$[ebp]
  00051	f3 0f 2c c0	 cvttss2si eax, xmm0
  00055	88 45 ff	 mov	 BYTE PTR _argb$[ebp+3], al

; 466  : 	};
; 467  : 
; 468  : 	return *((DWORD *) argb);

  00058	8b 45 fc	 mov	 eax, DWORD PTR _argb$[ebp]

; 469  : }

  0005b	c9		 leave
  0005c	c2 10 00	 ret	 16			; 00000010H
?GetColor@CGraphicBase@@QAEKMMMM@Z ENDP			; CGraphicBase::GetColor
_TEXT	ENDS
; Function compile flags: /Odspy
; File D:\Metin2 Server Files\mainline\SRC_2014\Metin2Client\EterLib\GrpBase.cpp
; File D:\Metin2 Server Files\mainline\SRC_2014\Metin2Client\eterBase\Singleton.h
; File D:\Metin2 Server Files\mainline\SRC_2014\Metin2Client\EterLib\GrpBase.cpp
;	COMDAT ?SetScreenEffectFlashing@CGraphicBase@@QAEXMABUD3DXCOLOR@@@Z
_TEXT	SEGMENT
_this$ = -8						; size = 4
$T1 = -4						; size = 4
_fDuringTime$ = 8					; size = 4
_c_rColor$ = 12						; size = 4
?SetScreenEffectFlashing@CGraphicBase@@QAEXMABUD3DXCOLOR@@@Z PROC ; CGraphicBase::SetScreenEffectFlashing, COMDAT
; _this$ = ecx

; 486  : {

  00000	55		 push	 ebp
  00001	8b ec		 mov	 ebp, esp
  00003	51		 push	 ecx
  00004	51		 push	 ecx
  00005	56		 push	 esi
  00006	57		 push	 edi
  00007	89 4d f8	 mov	 DWORD PTR _this$[ebp], ecx
; File D:\Metin2 Server Files\mainline\SRC_2014\Metin2Client\eterBase\Singleton.h

; 27   : 		return (*ms_singleton);

  0000a	a1 00 00 00 00	 mov	 eax, DWORD PTR ?ms_singleton@?$CSingleton@VCTimer@@@@0PAVCTimer@@A ; CSingleton<CTimer>::ms_singleton
  0000f	89 45 fc	 mov	 DWORD PTR $T1[ebp], eax
; File D:\Metin2 Server Files\mainline\SRC_2014\Metin2Client\EterLib\GrpBase.cpp

; 487  : 	ms_dwFlashingEndTime = CTimer::Instance().GetCurrentMillisecond() + long(fDuringTime * 1000.0f);

  00012	8b 4d fc	 mov	 ecx, DWORD PTR $T1[ebp]
  00015	e8 00 00 00 00	 call	 ?GetCurrentMillisecond@CTimer@@QAEKXZ ; CTimer::GetCurrentMillisecond
  0001a	f3 0f 10 45 08	 movss	 xmm0, DWORD PTR _fDuringTime$[ebp]
  0001f	f3 0f 59 05 00
	00 00 00	 mulss	 xmm0, DWORD PTR __real@447a0000
  00027	f3 0f 2c c8	 cvttss2si ecx, xmm0
  0002b	03 c1		 add	 eax, ecx
  0002d	a3 00 00 00 00	 mov	 DWORD PTR ?ms_dwFlashingEndTime@CGraphicBase@@1KA, eax ; CGraphicBase::ms_dwFlashingEndTime

; 488  : 	ms_FlashingColor = c_rColor;

  00032	8b 75 0c	 mov	 esi, DWORD PTR _c_rColor$[ebp]
  00035	bf 00 00 00 00	 mov	 edi, OFFSET ?ms_FlashingColor@CGraphicBase@@1UD3DXCOLOR@@A ; CGraphicBase::ms_FlashingColor
  0003a	a5		 movsd
  0003b	a5		 movsd
  0003c	a5		 movsd
  0003d	a5		 movsd

; 489  : }

  0003e	5f		 pop	 edi
  0003f	5e		 pop	 esi
  00040	c9		 leave
  00041	c2 08 00	 ret	 8
?SetScreenEffectFlashing@CGraphicBase@@QAEXMABUD3DXCOLOR@@@Z ENDP ; CGraphicBase::SetScreenEffectFlashing
_TEXT	ENDS
; Function compile flags: /Odspy
; File D:\Metin2 Server Files\mainline\SRC_2014\Metin2Client\EterLib\GrpBase.cpp
; File D:\Metin2 Server Files\mainline\SRC_2014\Metin2Client\eterBase\Singleton.h
; File D:\Metin2 Server Files\mainline\SRC_2014\Metin2Client\EterLib\GrpBase.cpp
;	COMDAT ?SetScreenEffectWaving@CGraphicBase@@QAEXMH@Z
_TEXT	SEGMENT
_this$ = -8						; size = 4
$T1 = -4						; size = 4
_fDuringTime$ = 8					; size = 4
_iPower$ = 12						; size = 4
?SetScreenEffectWaving@CGraphicBase@@QAEXMH@Z PROC	; CGraphicBase::SetScreenEffectWaving, COMDAT
; _this$ = ecx

; 480  : {

  00000	55		 push	 ebp
  00001	8b ec		 mov	 ebp, esp
  00003	51		 push	 ecx
  00004	51		 push	 ecx
  00005	89 4d f8	 mov	 DWORD PTR _this$[ebp], ecx
; File D:\Metin2 Server Files\mainline\SRC_2014\Metin2Client\eterBase\Singleton.h

; 27   : 		return (*ms_singleton);

  00008	a1 00 00 00 00	 mov	 eax, DWORD PTR ?ms_singleton@?$CSingleton@VCTimer@@@@0PAVCTimer@@A ; CSingleton<CTimer>::ms_singleton
  0000d	89 45 fc	 mov	 DWORD PTR $T1[ebp], eax
; File D:\Metin2 Server Files\mainline\SRC_2014\Metin2Client\EterLib\GrpBase.cpp

; 481  : 	ms_dwWavingEndTime = CTimer::Instance().GetCurrentMillisecond() + long(fDuringTime * 1000.0f);

  00010	8b 4d fc	 mov	 ecx, DWORD PTR $T1[ebp]
  00013	e8 00 00 00 00	 call	 ?GetCurrentMillisecond@CTimer@@QAEKXZ ; CTimer::GetCurrentMillisecond
  00018	f3 0f 10 45 08	 movss	 xmm0, DWORD PTR _fDuringTime$[ebp]
  0001d	f3 0f 59 05 00
	00 00 00	 mulss	 xmm0, DWORD PTR __real@447a0000
  00025	f3 0f 2c c8	 cvttss2si ecx, xmm0
  00029	03 c1		 add	 eax, ecx
  0002b	a3 00 00 00 00	 mov	 DWORD PTR ?ms_dwWavingEndTime@CGraphicBase@@1KA, eax ; CGraphicBase::ms_dwWavingEndTime

; 482  : 	ms_iWavingPower = iPower;

  00030	8b 45 0c	 mov	 eax, DWORD PTR _iPower$[ebp]
  00033	a3 00 00 00 00	 mov	 DWORD PTR ?ms_iWavingPower@CGraphicBase@@1HA, eax ; CGraphicBase::ms_iWavingPower

; 483  : }

  00038	c9		 leave
  00039	c2 08 00	 ret	 8
?SetScreenEffectWaving@CGraphicBase@@QAEXMH@Z ENDP	; CGraphicBase::SetScreenEffectWaving
_TEXT	ENDS
; Function compile flags: /Odspy
; File D:\Metin2 Server Files\mainline\SRC_2014\Metin2Client\EterLib\GrpBase.cpp
; File D:\Metin2 Server Files\mainline\SRC_2014\M2Data\include\d3dx8math.inl
; File D:\Metin2 Server Files\mainline\SRC_2014\Metin2Client\EterLib\GrpBase.cpp
;	COMDAT ?InitScreenEffect@CGraphicBase@@QAEXXZ
_TEXT	SEGMENT
$T1 = -20						; size = 16
_this$ = -4						; size = 4
?InitScreenEffect@CGraphicBase@@QAEXXZ PROC		; CGraphicBase::InitScreenEffect, COMDAT
; _this$ = ecx

; 472  : {

  00000	55		 push	 ebp
  00001	8b ec		 mov	 ebp, esp
  00003	83 ec 14	 sub	 esp, 20			; 00000014H
  00006	56		 push	 esi
  00007	57		 push	 edi
  00008	89 4d fc	 mov	 DWORD PTR _this$[ebp], ecx

; 473  : 	ms_dwWavingEndTime = 0;

  0000b	83 25 00 00 00
	00 00		 and	 DWORD PTR ?ms_dwWavingEndTime@CGraphicBase@@1KA, 0 ; CGraphicBase::ms_dwWavingEndTime

; 474  : 	ms_dwFlashingEndTime = 0;

  00012	83 25 00 00 00
	00 00		 and	 DWORD PTR ?ms_dwFlashingEndTime@CGraphicBase@@1KA, 0 ; CGraphicBase::ms_dwFlashingEndTime

; 475  : 	ms_iWavingPower = 0;

  00019	83 25 00 00 00
	00 00		 and	 DWORD PTR ?ms_iWavingPower@CGraphicBase@@1HA, 0 ; CGraphicBase::ms_iWavingPower
; File D:\Metin2 Server Files\mainline\SRC_2014\M2Data\include\d3dx8math.inl

; 920  :     r = fr;

  00020	0f 57 c0	 xorps	 xmm0, xmm0
  00023	f3 0f 11 45 ec	 movss	 DWORD PTR $T1[ebp], xmm0

; 921  :     g = fg;

  00028	0f 57 c0	 xorps	 xmm0, xmm0
  0002b	f3 0f 11 45 f0	 movss	 DWORD PTR $T1[ebp+4], xmm0

; 922  :     b = fb;

  00030	0f 57 c0	 xorps	 xmm0, xmm0
  00033	f3 0f 11 45 f4	 movss	 DWORD PTR $T1[ebp+8], xmm0

; 923  :     a = fa;

  00038	0f 57 c0	 xorps	 xmm0, xmm0
  0003b	f3 0f 11 45 f8	 movss	 DWORD PTR $T1[ebp+12], xmm0
; File D:\Metin2 Server Files\mainline\SRC_2014\Metin2Client\EterLib\GrpBase.cpp

; 476  : 	ms_FlashingColor = D3DXCOLOR(0.0f, 0.0f, 0.0f, 0.0f);

  00040	8d 75 ec	 lea	 esi, DWORD PTR $T1[ebp]
  00043	bf 00 00 00 00	 mov	 edi, OFFSET ?ms_FlashingColor@CGraphicBase@@1UD3DXCOLOR@@A ; CGraphicBase::ms_FlashingColor
  00048	a5		 movsd
  00049	a5		 movsd
  0004a	a5		 movsd
  0004b	a5		 movsd

; 477  : }

  0004c	5f		 pop	 edi
  0004d	5e		 pop	 esi
  0004e	c9		 leave
  0004f	c3		 ret	 0
?InitScreenEffect@CGraphicBase@@QAEXXZ ENDP		; CGraphicBase::InitScreenEffect
_TEXT	ENDS
; Function compile flags: /Odspy
; File D:\Metin2 Server Files\mainline\SRC_2014\Metin2Client\EterLib\GrpBase.cpp
; File D:\Metin2 Server Files\mainline\SRC_2014\M2Data\include\d3dx8math.inl
; File D:\Metin2 Server Files\mainline\SRC_2014\Metin2Client\EterLib\GrpBase.cpp
;	COMDAT ?GetSphereMatrix@CGraphicBase@@QAEXPAUD3DXMATRIX@@M@Z
_TEXT	SEGMENT
_this$ = -4						; size = 4
_pMatrix$ = 8						; size = 4
_fValue$ = 12						; size = 4
?GetSphereMatrix@CGraphicBase@@QAEXPAUD3DXMATRIX@@M@Z PROC ; CGraphicBase::GetSphereMatrix, COMDAT
; _this$ = ecx

; 389  : {

  00000	55		 push	 ebp
  00001	8b ec		 mov	 ebp, esp
  00003	51		 push	 ecx
  00004	89 4d fc	 mov	 DWORD PTR _this$[ebp], ecx
; File D:\Metin2 Server Files\mainline\SRC_2014\M2Data\include\d3dx8math.inl

; 1516 :     pOut->m[0][1] = pOut->m[0][2] = pOut->m[0][3] =

  00007	6a 10		 push	 16			; 00000010H
  00009	58		 pop	 eax
  0000a	6b c0 03	 imul	 eax, eax, 3
  0000d	03 45 08	 add	 eax, DWORD PTR _pMatrix$[ebp]
  00010	6a 04		 push	 4
  00012	59		 pop	 ecx
  00013	d1 e1		 shl	 ecx, 1
  00015	0f 57 c0	 xorps	 xmm0, xmm0
  00018	f3 0f 11 04 08	 movss	 DWORD PTR [eax+ecx], xmm0
  0001d	6a 10		 push	 16			; 00000010H
  0001f	58		 pop	 eax
  00020	6b c0 03	 imul	 eax, eax, 3
  00023	03 45 08	 add	 eax, DWORD PTR _pMatrix$[ebp]
  00026	6a 04		 push	 4
  00028	59		 pop	 ecx
  00029	c1 e1 00	 shl	 ecx, 0
  0002c	0f 57 c0	 xorps	 xmm0, xmm0
  0002f	f3 0f 11 04 08	 movss	 DWORD PTR [eax+ecx], xmm0
  00034	6a 10		 push	 16			; 00000010H
  00036	58		 pop	 eax
  00037	6b c0 03	 imul	 eax, eax, 3
  0003a	03 45 08	 add	 eax, DWORD PTR _pMatrix$[ebp]
  0003d	6a 04		 push	 4
  0003f	59		 pop	 ecx
  00040	6b c9 00	 imul	 ecx, ecx, 0
  00043	0f 57 c0	 xorps	 xmm0, xmm0
  00046	f3 0f 11 04 08	 movss	 DWORD PTR [eax+ecx], xmm0
  0004b	6a 10		 push	 16			; 00000010H
  0004d	58		 pop	 eax
  0004e	d1 e0		 shl	 eax, 1
  00050	03 45 08	 add	 eax, DWORD PTR _pMatrix$[ebp]
  00053	6a 04		 push	 4
  00055	59		 pop	 ecx
  00056	6b c9 03	 imul	 ecx, ecx, 3
  00059	0f 57 c0	 xorps	 xmm0, xmm0
  0005c	f3 0f 11 04 08	 movss	 DWORD PTR [eax+ecx], xmm0
  00061	6a 10		 push	 16			; 00000010H
  00063	58		 pop	 eax
  00064	d1 e0		 shl	 eax, 1
  00066	03 45 08	 add	 eax, DWORD PTR _pMatrix$[ebp]
  00069	6a 04		 push	 4
  0006b	59		 pop	 ecx
  0006c	c1 e1 00	 shl	 ecx, 0
  0006f	0f 57 c0	 xorps	 xmm0, xmm0
  00072	f3 0f 11 04 08	 movss	 DWORD PTR [eax+ecx], xmm0
  00077	6a 10		 push	 16			; 00000010H
  00079	58		 pop	 eax
  0007a	d1 e0		 shl	 eax, 1
  0007c	03 45 08	 add	 eax, DWORD PTR _pMatrix$[ebp]
  0007f	6a 04		 push	 4
  00081	59		 pop	 ecx
  00082	6b c9 00	 imul	 ecx, ecx, 0
  00085	0f 57 c0	 xorps	 xmm0, xmm0
  00088	f3 0f 11 04 08	 movss	 DWORD PTR [eax+ecx], xmm0
  0008d	6a 10		 push	 16			; 00000010H
  0008f	58		 pop	 eax
  00090	c1 e0 00	 shl	 eax, 0
  00093	03 45 08	 add	 eax, DWORD PTR _pMatrix$[ebp]
  00096	6a 04		 push	 4
  00098	59		 pop	 ecx
  00099	6b c9 03	 imul	 ecx, ecx, 3
  0009c	0f 57 c0	 xorps	 xmm0, xmm0
  0009f	f3 0f 11 04 08	 movss	 DWORD PTR [eax+ecx], xmm0
  000a4	6a 10		 push	 16			; 00000010H
  000a6	58		 pop	 eax
  000a7	c1 e0 00	 shl	 eax, 0
  000aa	03 45 08	 add	 eax, DWORD PTR _pMatrix$[ebp]
  000ad	6a 04		 push	 4
  000af	59		 pop	 ecx
  000b0	d1 e1		 shl	 ecx, 1
  000b2	0f 57 c0	 xorps	 xmm0, xmm0
  000b5	f3 0f 11 04 08	 movss	 DWORD PTR [eax+ecx], xmm0
  000ba	6a 10		 push	 16			; 00000010H
  000bc	58		 pop	 eax
  000bd	c1 e0 00	 shl	 eax, 0
  000c0	03 45 08	 add	 eax, DWORD PTR _pMatrix$[ebp]
  000c3	6a 04		 push	 4
  000c5	59		 pop	 ecx
  000c6	6b c9 00	 imul	 ecx, ecx, 0
  000c9	0f 57 c0	 xorps	 xmm0, xmm0
  000cc	f3 0f 11 04 08	 movss	 DWORD PTR [eax+ecx], xmm0
  000d1	6a 10		 push	 16			; 00000010H
  000d3	58		 pop	 eax
  000d4	6b c0 00	 imul	 eax, eax, 0
  000d7	03 45 08	 add	 eax, DWORD PTR _pMatrix$[ebp]
  000da	6a 04		 push	 4
  000dc	59		 pop	 ecx
  000dd	6b c9 03	 imul	 ecx, ecx, 3
  000e0	0f 57 c0	 xorps	 xmm0, xmm0
  000e3	f3 0f 11 04 08	 movss	 DWORD PTR [eax+ecx], xmm0
  000e8	6a 10		 push	 16			; 00000010H
  000ea	58		 pop	 eax
  000eb	6b c0 00	 imul	 eax, eax, 0
  000ee	03 45 08	 add	 eax, DWORD PTR _pMatrix$[ebp]
  000f1	6a 04		 push	 4
  000f3	59		 pop	 ecx
  000f4	d1 e1		 shl	 ecx, 1
  000f6	0f 57 c0	 xorps	 xmm0, xmm0
  000f9	f3 0f 11 04 08	 movss	 DWORD PTR [eax+ecx], xmm0
  000fe	6a 10		 push	 16			; 00000010H
  00100	58		 pop	 eax
  00101	6b c0 00	 imul	 eax, eax, 0
  00104	03 45 08	 add	 eax, DWORD PTR _pMatrix$[ebp]
  00107	6a 04		 push	 4
  00109	59		 pop	 ecx
  0010a	c1 e1 00	 shl	 ecx, 0
  0010d	0f 57 c0	 xorps	 xmm0, xmm0
  00110	f3 0f 11 04 08	 movss	 DWORD PTR [eax+ecx], xmm0

; 1517 :     pOut->m[1][0] = pOut->m[1][2] = pOut->m[1][3] =
; 1518 :     pOut->m[2][0] = pOut->m[2][1] = pOut->m[2][3] =
; 1519 :     pOut->m[3][0] = pOut->m[3][1] = pOut->m[3][2] = 0.0f;
; 1520 : 
; 1521 :     pOut->m[0][0] = pOut->m[1][1] = pOut->m[2][2] = pOut->m[3][3] = 1.0f;

  00115	6a 10		 push	 16			; 00000010H
  00117	58		 pop	 eax
  00118	6b c0 03	 imul	 eax, eax, 3
  0011b	03 45 08	 add	 eax, DWORD PTR _pMatrix$[ebp]
  0011e	6a 04		 push	 4
  00120	59		 pop	 ecx
  00121	6b c9 03	 imul	 ecx, ecx, 3
  00124	f3 0f 10 05 00
	00 00 00	 movss	 xmm0, DWORD PTR __real@3f800000
  0012c	f3 0f 11 04 08	 movss	 DWORD PTR [eax+ecx], xmm0
  00131	6a 10		 push	 16			; 00000010H
  00133	58		 pop	 eax
  00134	d1 e0		 shl	 eax, 1
  00136	03 45 08	 add	 eax, DWORD PTR _pMatrix$[ebp]
  00139	6a 04		 push	 4
  0013b	59		 pop	 ecx
  0013c	d1 e1		 shl	 ecx, 1
  0013e	f3 0f 10 05 00
	00 00 00	 movss	 xmm0, DWORD PTR __real@3f800000
  00146	f3 0f 11 04 08	 movss	 DWORD PTR [eax+ecx], xmm0
  0014b	6a 10		 push	 16			; 00000010H
  0014d	58		 pop	 eax
  0014e	c1 e0 00	 shl	 eax, 0
  00151	03 45 08	 add	 eax, DWORD PTR _pMatrix$[ebp]
  00154	6a 04		 push	 4
  00156	59		 pop	 ecx
  00157	c1 e1 00	 shl	 ecx, 0
  0015a	f3 0f 10 05 00
	00 00 00	 movss	 xmm0, DWORD PTR __real@3f800000
  00162	f3 0f 11 04 08	 movss	 DWORD PTR [eax+ecx], xmm0
  00167	6a 10		 push	 16			; 00000010H
  00169	58		 pop	 eax
  0016a	6b c0 00	 imul	 eax, eax, 0
  0016d	03 45 08	 add	 eax, DWORD PTR _pMatrix$[ebp]
  00170	6a 04		 push	 4
  00172	59		 pop	 ecx
  00173	6b c9 00	 imul	 ecx, ecx, 0
  00176	f3 0f 10 05 00
	00 00 00	 movss	 xmm0, DWORD PTR __real@3f800000
  0017e	f3 0f 11 04 08	 movss	 DWORD PTR [eax+ecx], xmm0
; File D:\Metin2 Server Files\mainline\SRC_2014\Metin2Client\EterLib\GrpBase.cpp

; 391  : 	pMatrix->_11 = fValue * ms_matWorldView._11;

  00183	f3 0f 10 45 0c	 movss	 xmm0, DWORD PTR _fValue$[ebp]
  00188	f3 0f 59 05 00
	00 00 00	 mulss	 xmm0, DWORD PTR ?ms_matWorldView@CGraphicBase@@1UD3DXMATRIX@@A
  00190	8b 45 08	 mov	 eax, DWORD PTR _pMatrix$[ebp]
  00193	f3 0f 11 00	 movss	 DWORD PTR [eax], xmm0

; 392  : 	pMatrix->_21 = fValue * ms_matWorldView._21;

  00197	f3 0f 10 45 0c	 movss	 xmm0, DWORD PTR _fValue$[ebp]
  0019c	f3 0f 59 05 10
	00 00 00	 mulss	 xmm0, DWORD PTR ?ms_matWorldView@CGraphicBase@@1UD3DXMATRIX@@A+16
  001a4	8b 45 08	 mov	 eax, DWORD PTR _pMatrix$[ebp]
  001a7	f3 0f 11 40 10	 movss	 DWORD PTR [eax+16], xmm0

; 393  : 	pMatrix->_31 = fValue * ms_matWorldView._31;

  001ac	f3 0f 10 45 0c	 movss	 xmm0, DWORD PTR _fValue$[ebp]
  001b1	f3 0f 59 05 20
	00 00 00	 mulss	 xmm0, DWORD PTR ?ms_matWorldView@CGraphicBase@@1UD3DXMATRIX@@A+32
  001b9	8b 45 08	 mov	 eax, DWORD PTR _pMatrix$[ebp]
  001bc	f3 0f 11 40 20	 movss	 DWORD PTR [eax+32], xmm0

; 394  : 	pMatrix->_41 = fValue;

  001c1	8b 45 08	 mov	 eax, DWORD PTR _pMatrix$[ebp]
  001c4	f3 0f 10 45 0c	 movss	 xmm0, DWORD PTR _fValue$[ebp]
  001c9	f3 0f 11 40 30	 movss	 DWORD PTR [eax+48], xmm0

; 395  : 	pMatrix->_12 = -fValue * ms_matWorldView._12;

  001ce	f3 0f 10 45 0c	 movss	 xmm0, DWORD PTR _fValue$[ebp]
  001d3	0f 57 05 00 00
	00 00		 xorps	 xmm0, DWORD PTR __xmm@80000000800000008000000080000000
  001da	f3 0f 59 05 04
	00 00 00	 mulss	 xmm0, DWORD PTR ?ms_matWorldView@CGraphicBase@@1UD3DXMATRIX@@A+4
  001e2	8b 45 08	 mov	 eax, DWORD PTR _pMatrix$[ebp]
  001e5	f3 0f 11 40 04	 movss	 DWORD PTR [eax+4], xmm0

; 396  : 	pMatrix->_22 = -fValue * ms_matWorldView._22;

  001ea	f3 0f 10 45 0c	 movss	 xmm0, DWORD PTR _fValue$[ebp]
  001ef	0f 57 05 00 00
	00 00		 xorps	 xmm0, DWORD PTR __xmm@80000000800000008000000080000000
  001f6	f3 0f 59 05 14
	00 00 00	 mulss	 xmm0, DWORD PTR ?ms_matWorldView@CGraphicBase@@1UD3DXMATRIX@@A+20
  001fe	8b 45 08	 mov	 eax, DWORD PTR _pMatrix$[ebp]
  00201	f3 0f 11 40 14	 movss	 DWORD PTR [eax+20], xmm0

; 397  : 	pMatrix->_32 = -fValue * ms_matWorldView._32;

  00206	f3 0f 10 45 0c	 movss	 xmm0, DWORD PTR _fValue$[ebp]
  0020b	0f 57 05 00 00
	00 00		 xorps	 xmm0, DWORD PTR __xmm@80000000800000008000000080000000
  00212	f3 0f 59 05 24
	00 00 00	 mulss	 xmm0, DWORD PTR ?ms_matWorldView@CGraphicBase@@1UD3DXMATRIX@@A+36
  0021a	8b 45 08	 mov	 eax, DWORD PTR _pMatrix$[ebp]
  0021d	f3 0f 11 40 24	 movss	 DWORD PTR [eax+36], xmm0

; 398  : 	pMatrix->_42 = -fValue;

  00222	f3 0f 10 45 0c	 movss	 xmm0, DWORD PTR _fValue$[ebp]
  00227	0f 57 05 00 00
	00 00		 xorps	 xmm0, DWORD PTR __xmm@80000000800000008000000080000000
  0022e	8b 45 08	 mov	 eax, DWORD PTR _pMatrix$[ebp]
  00231	f3 0f 11 40 34	 movss	 DWORD PTR [eax+52], xmm0

; 399  : }

  00236	c9		 leave
  00237	c2 08 00	 ret	 8
?GetSphereMatrix@CGraphicBase@@QAEXPAUD3DXMATRIX@@M@Z ENDP ; CGraphicBase::GetSphereMatrix
_TEXT	ENDS
; Function compile flags: /Odspy
; File D:\Metin2 Server Files\mainline\SRC_2014\Metin2Client\EterLib\GrpBase.cpp
;	COMDAT ?GetMatrixPointer@CGraphicBase@@QBEPBUD3DXMATRIX@@XZ
_TEXT	SEGMENT
_this$ = -4						; size = 4
?GetMatrixPointer@CGraphicBase@@QBEPBUD3DXMATRIX@@XZ PROC ; CGraphicBase::GetMatrixPointer, COMDAT
; _this$ = ecx

; 383  : {

  00000	55		 push	 ebp
  00001	8b ec		 mov	 ebp, esp
  00003	51		 push	 ecx
  00004	89 4d fc	 mov	 DWORD PTR _this$[ebp], ecx

; 384  : 	assert(ms_lpd3dMatStack!=NULL);
; 385  : 	return ms_lpd3dMatStack->GetTop();

  00007	a1 00 00 00 00	 mov	 eax, DWORD PTR ?ms_lpd3dMatStack@CGraphicBase@@1PAUID3DXMatrixStack@@A ; CGraphicBase::ms_lpd3dMatStack
  0000c	8b 00		 mov	 eax, DWORD PTR [eax]
  0000e	ff 35 00 00 00
	00		 push	 DWORD PTR ?ms_lpd3dMatStack@CGraphicBase@@1PAUID3DXMatrixStack@@A ; CGraphicBase::ms_lpd3dMatStack
  00014	ff 50 44	 call	 DWORD PTR [eax+68]

; 386  : }

  00017	c9		 leave
  00018	c3		 ret	 0
?GetMatrixPointer@CGraphicBase@@QBEPBUD3DXMATRIX@@XZ ENDP ; CGraphicBase::GetMatrixPointer
_TEXT	ENDS
; Function compile flags: /Odspy
; File D:\Metin2 Server Files\mainline\SRC_2014\Metin2Client\EterLib\GrpBase.cpp
;	COMDAT ?GetMatrix@CGraphicBase@@QBEXPAUD3DXMATRIX@@@Z
_TEXT	SEGMENT
_this$ = -4						; size = 4
_pRetMatrix$ = 8					; size = 4
?GetMatrix@CGraphicBase@@QBEXPAUD3DXMATRIX@@@Z PROC	; CGraphicBase::GetMatrix, COMDAT
; _this$ = ecx

; 377  : {

  00000	55		 push	 ebp
  00001	8b ec		 mov	 ebp, esp
  00003	51		 push	 ecx
  00004	56		 push	 esi
  00005	57		 push	 edi
  00006	89 4d fc	 mov	 DWORD PTR _this$[ebp], ecx

; 378  : 	assert(ms_lpd3dMatStack != NULL);
; 379  : 	*pRetMatrix = *ms_lpd3dMatStack->GetTop();

  00009	a1 00 00 00 00	 mov	 eax, DWORD PTR ?ms_lpd3dMatStack@CGraphicBase@@1PAUID3DXMatrixStack@@A ; CGraphicBase::ms_lpd3dMatStack
  0000e	8b 00		 mov	 eax, DWORD PTR [eax]
  00010	ff 35 00 00 00
	00		 push	 DWORD PTR ?ms_lpd3dMatStack@CGraphicBase@@1PAUID3DXMatrixStack@@A ; CGraphicBase::ms_lpd3dMatStack
  00016	ff 50 44	 call	 DWORD PTR [eax+68]
  00019	6a 10		 push	 16			; 00000010H
  0001b	59		 pop	 ecx
  0001c	8b f0		 mov	 esi, eax
  0001e	8b 7d 08	 mov	 edi, DWORD PTR _pRetMatrix$[ebp]
  00021	f3 a5		 rep movsd

; 380  : }

  00023	5f		 pop	 edi
  00024	5e		 pop	 esi
  00025	c9		 leave
  00026	c2 04 00	 ret	 4
?GetMatrix@CGraphicBase@@QBEXPAUD3DXMATRIX@@@Z ENDP	; CGraphicBase::GetMatrix
_TEXT	ENDS
; Function compile flags: /Odspy
; File D:\Metin2 Server Files\mainline\SRC_2014\Metin2Client\EterLib\GrpBase.cpp
;	COMDAT ?LoadMatrix@CGraphicBase@@QAEXABUD3DXMATRIX@@@Z
_TEXT	SEGMENT
_this$ = -4						; size = 4
_c_rSrcMatrix$ = 8					; size = 4
?LoadMatrix@CGraphicBase@@QAEXABUD3DXMATRIX@@@Z PROC	; CGraphicBase::LoadMatrix, COMDAT
; _this$ = ecx

; 449  : {

  00000	55		 push	 ebp
  00001	8b ec		 mov	 ebp, esp
  00003	51		 push	 ecx
  00004	89 4d fc	 mov	 DWORD PTR _this$[ebp], ecx

; 450  : 	ms_lpd3dMatStack->LoadMatrix(&c_rSrcMatrix);

  00007	ff 75 08	 push	 DWORD PTR _c_rSrcMatrix$[ebp]
  0000a	a1 00 00 00 00	 mov	 eax, DWORD PTR ?ms_lpd3dMatStack@CGraphicBase@@1PAUID3DXMatrixStack@@A ; CGraphicBase::ms_lpd3dMatStack
  0000f	8b 00		 mov	 eax, DWORD PTR [eax]
  00011	ff 35 00 00 00
	00		 push	 DWORD PTR ?ms_lpd3dMatStack@CGraphicBase@@1PAUID3DXMatrixStack@@A ; CGraphicBase::ms_lpd3dMatStack
  00017	ff 50 18	 call	 DWORD PTR [eax+24]

; 451  : }

  0001a	c9		 leave
  0001b	c2 04 00	 ret	 4
?LoadMatrix@CGraphicBase@@QAEXABUD3DXMATRIX@@@Z ENDP	; CGraphicBase::LoadMatrix
_TEXT	ENDS
; Function compile flags: /Odspy
; File D:\Metin2 Server Files\mainline\SRC_2014\Metin2Client\EterLib\GrpBase.cpp
;	COMDAT ?PopMatrix@CGraphicBase@@QAEXXZ
_TEXT	SEGMENT
_this$ = -4						; size = 4
?PopMatrix@CGraphicBase@@QAEXXZ PROC			; CGraphicBase::PopMatrix, COMDAT
; _this$ = ecx

; 454  : {

  00000	55		 push	 ebp
  00001	8b ec		 mov	 ebp, esp
  00003	51		 push	 ecx
  00004	89 4d fc	 mov	 DWORD PTR _this$[ebp], ecx

; 455  : 	ms_lpd3dMatStack->Pop();

  00007	a1 00 00 00 00	 mov	 eax, DWORD PTR ?ms_lpd3dMatStack@CGraphicBase@@1PAUID3DXMatrixStack@@A ; CGraphicBase::ms_lpd3dMatStack
  0000c	8b 00		 mov	 eax, DWORD PTR [eax]
  0000e	ff 35 00 00 00
	00		 push	 DWORD PTR ?ms_lpd3dMatStack@CGraphicBase@@1PAUID3DXMatrixStack@@A ; CGraphicBase::ms_lpd3dMatStack
  00014	ff 50 0c	 call	 DWORD PTR [eax+12]

; 456  : }

  00017	c9		 leave
  00018	c3		 ret	 0
?PopMatrix@CGraphicBase@@QAEXXZ ENDP			; CGraphicBase::PopMatrix
_TEXT	ENDS
; Function compile flags: /Odspy
; File D:\Metin2 Server Files\mainline\SRC_2014\Metin2Client\EterLib\GrpBase.cpp
;	COMDAT ?Scale@CGraphicBase@@QAEXMMM@Z
_TEXT	SEGMENT
_this$ = -4						; size = 4
_x$ = 8							; size = 4
_y$ = 12						; size = 4
_z$ = 16						; size = 4
?Scale@CGraphicBase@@QAEXMMM@Z PROC			; CGraphicBase::Scale, COMDAT
; _this$ = ecx

; 412  : {

  00000	55		 push	 ebp
  00001	8b ec		 mov	 ebp, esp
  00003	51		 push	 ecx
  00004	89 4d fc	 mov	 DWORD PTR _this$[ebp], ecx

; 413  : 	ms_lpd3dMatStack->Scale(x, y, z);

  00007	51		 push	 ecx
  00008	f3 0f 10 45 10	 movss	 xmm0, DWORD PTR _z$[ebp]
  0000d	f3 0f 11 04 24	 movss	 DWORD PTR [esp], xmm0
  00012	51		 push	 ecx
  00013	f3 0f 10 45 0c	 movss	 xmm0, DWORD PTR _y$[ebp]
  00018	f3 0f 11 04 24	 movss	 DWORD PTR [esp], xmm0
  0001d	51		 push	 ecx
  0001e	f3 0f 10 45 08	 movss	 xmm0, DWORD PTR _x$[ebp]
  00023	f3 0f 11 04 24	 movss	 DWORD PTR [esp], xmm0
  00028	a1 00 00 00 00	 mov	 eax, DWORD PTR ?ms_lpd3dMatStack@CGraphicBase@@1PAUID3DXMatrixStack@@A ; CGraphicBase::ms_lpd3dMatStack
  0002d	8b 00		 mov	 eax, DWORD PTR [eax]
  0002f	ff 35 00 00 00
	00		 push	 DWORD PTR ?ms_lpd3dMatStack@CGraphicBase@@1PAUID3DXMatrixStack@@A ; CGraphicBase::ms_lpd3dMatStack
  00035	ff 50 34	 call	 DWORD PTR [eax+52]

; 414  : }

  00038	c9		 leave
  00039	c2 0c 00	 ret	 12			; 0000000cH
?Scale@CGraphicBase@@QAEXMMM@Z ENDP			; CGraphicBase::Scale
_TEXT	ENDS
; Function compile flags: /Odspy
; File D:\Metin2 Server Files\mainline\SRC_2014\Metin2Client\EterLib\GrpBase.cpp
;	COMDAT ?RotateYawPitchRollLocal@CGraphicBase@@QAEXMMM@Z
_TEXT	SEGMENT
_this$ = -4						; size = 4
_fYaw$ = 8						; size = 4
_fPitch$ = 12						; size = 4
_fRoll$ = 16						; size = 4
?RotateYawPitchRollLocal@CGraphicBase@@QAEXMMM@Z PROC	; CGraphicBase::RotateYawPitchRollLocal, COMDAT
; _this$ = ecx

; 439  : {

  00000	55		 push	 ebp
  00001	8b ec		 mov	 ebp, esp
  00003	51		 push	 ecx
  00004	89 4d fc	 mov	 DWORD PTR _this$[ebp], ecx

; 440  : 	ms_lpd3dMatStack->RotateYawPitchRollLocal(D3DXToRadian(fYaw), D3DXToRadian(fPitch), D3DXToRadian(fRoll));

  00007	f3 0f 10 45 10	 movss	 xmm0, DWORD PTR _fRoll$[ebp]
  0000c	f3 0f 59 05 00
	00 00 00	 mulss	 xmm0, DWORD PTR __real@3c8efa35
  00014	51		 push	 ecx
  00015	f3 0f 11 04 24	 movss	 DWORD PTR [esp], xmm0
  0001a	f3 0f 10 45 0c	 movss	 xmm0, DWORD PTR _fPitch$[ebp]
  0001f	f3 0f 59 05 00
	00 00 00	 mulss	 xmm0, DWORD PTR __real@3c8efa35
  00027	51		 push	 ecx
  00028	f3 0f 11 04 24	 movss	 DWORD PTR [esp], xmm0
  0002d	f3 0f 10 45 08	 movss	 xmm0, DWORD PTR _fYaw$[ebp]
  00032	f3 0f 59 05 00
	00 00 00	 mulss	 xmm0, DWORD PTR __real@3c8efa35
  0003a	51		 push	 ecx
  0003b	f3 0f 11 04 24	 movss	 DWORD PTR [esp], xmm0
  00040	a1 00 00 00 00	 mov	 eax, DWORD PTR ?ms_lpd3dMatStack@CGraphicBase@@1PAUID3DXMatrixStack@@A ; CGraphicBase::ms_lpd3dMatStack
  00045	8b 00		 mov	 eax, DWORD PTR [eax]
  00047	ff 35 00 00 00
	00		 push	 DWORD PTR ?ms_lpd3dMatStack@CGraphicBase@@1PAUID3DXMatrixStack@@A ; CGraphicBase::ms_lpd3dMatStack
  0004d	ff 50 30	 call	 DWORD PTR [eax+48]

; 441  : }

  00050	c9		 leave
  00051	c2 0c 00	 ret	 12			; 0000000cH
?RotateYawPitchRollLocal@CGraphicBase@@QAEXMMM@Z ENDP	; CGraphicBase::RotateYawPitchRollLocal
_TEXT	ENDS
; Function compile flags: /Odspy
; File D:\Metin2 Server Files\mainline\SRC_2014\Metin2Client\EterLib\GrpBase.cpp
; File D:\Metin2 Server Files\mainline\SRC_2014\M2Data\include\d3dx8math.inl
; File D:\Metin2 Server Files\mainline\SRC_2014\Metin2Client\EterLib\GrpBase.cpp
;	COMDAT ?RotateLocal@CGraphicBase@@QAEXMMMM@Z
_TEXT	SEGMENT
_this$ = -20						; size = 4
_vec$ = -16						; size = 12
__$ArrayPad$ = -4					; size = 4
_degree$ = 8						; size = 4
_x$ = 12						; size = 4
_y$ = 16						; size = 4
_z$ = 20						; size = 4
?RotateLocal@CGraphicBase@@QAEXMMMM@Z PROC		; CGraphicBase::RotateLocal, COMDAT
; _this$ = ecx

; 423  : {

  00000	55		 push	 ebp
  00001	8b ec		 mov	 ebp, esp
  00003	83 ec 14	 sub	 esp, 20			; 00000014H
  00006	a1 00 00 00 00	 mov	 eax, DWORD PTR ___security_cookie
  0000b	33 c5		 xor	 eax, ebp
  0000d	89 45 fc	 mov	 DWORD PTR __$ArrayPad$[ebp], eax
  00010	89 4d ec	 mov	 DWORD PTR _this$[ebp], ecx
; File D:\Metin2 Server Files\mainline\SRC_2014\M2Data\include\d3dx8math.inl

; 180  :     x = fx;

  00013	f3 0f 10 45 0c	 movss	 xmm0, DWORD PTR _x$[ebp]
  00018	f3 0f 11 45 f0	 movss	 DWORD PTR _vec$[ebp], xmm0

; 181  :     y = fy;

  0001d	f3 0f 10 45 10	 movss	 xmm0, DWORD PTR _y$[ebp]
  00022	f3 0f 11 45 f4	 movss	 DWORD PTR _vec$[ebp+4], xmm0

; 182  :     z = fz;

  00027	f3 0f 10 45 14	 movss	 xmm0, DWORD PTR _z$[ebp]
  0002c	f3 0f 11 45 f8	 movss	 DWORD PTR _vec$[ebp+8], xmm0
; File D:\Metin2 Server Files\mainline\SRC_2014\Metin2Client\EterLib\GrpBase.cpp

; 425  : 	ms_lpd3dMatStack->RotateAxisLocal(&vec, D3DXToRadian(degree));

  00031	f3 0f 10 45 08	 movss	 xmm0, DWORD PTR _degree$[ebp]
  00036	f3 0f 59 05 00
	00 00 00	 mulss	 xmm0, DWORD PTR __real@3c8efa35
  0003e	51		 push	 ecx
  0003f	f3 0f 11 04 24	 movss	 DWORD PTR [esp], xmm0
  00044	8d 45 f0	 lea	 eax, DWORD PTR _vec$[ebp]
  00047	50		 push	 eax
  00048	a1 00 00 00 00	 mov	 eax, DWORD PTR ?ms_lpd3dMatStack@CGraphicBase@@1PAUID3DXMatrixStack@@A ; CGraphicBase::ms_lpd3dMatStack
  0004d	8b 00		 mov	 eax, DWORD PTR [eax]
  0004f	ff 35 00 00 00
	00		 push	 DWORD PTR ?ms_lpd3dMatStack@CGraphicBase@@1PAUID3DXMatrixStack@@A ; CGraphicBase::ms_lpd3dMatStack
  00055	ff 50 28	 call	 DWORD PTR [eax+40]

; 426  : }

  00058	8b 4d fc	 mov	 ecx, DWORD PTR __$ArrayPad$[ebp]
  0005b	33 cd		 xor	 ecx, ebp
  0005d	e8 00 00 00 00	 call	 @__security_check_cookie@4
  00062	c9		 leave
  00063	c2 10 00	 ret	 16			; 00000010H
?RotateLocal@CGraphicBase@@QAEXMMMM@Z ENDP		; CGraphicBase::RotateLocal
_TEXT	ENDS
; Function compile flags: /Odspy
; File D:\Metin2 Server Files\mainline\SRC_2014\Metin2Client\EterLib\GrpBase.cpp
; File D:\Metin2 Server Files\mainline\SRC_2014\M2Data\include\d3dx8math.inl
; File D:\Metin2 Server Files\mainline\SRC_2014\Metin2Client\EterLib\GrpBase.cpp
;	COMDAT ?Rotate@CGraphicBase@@QAEXMMMM@Z
_TEXT	SEGMENT
_this$ = -20						; size = 4
_vec$ = -16						; size = 12
__$ArrayPad$ = -4					; size = 4
_degree$ = 8						; size = 4
_x$ = 12						; size = 4
_y$ = 16						; size = 4
_z$ = 20						; size = 4
?Rotate@CGraphicBase@@QAEXMMMM@Z PROC			; CGraphicBase::Rotate, COMDAT
; _this$ = ecx

; 417  : {

  00000	55		 push	 ebp
  00001	8b ec		 mov	 ebp, esp
  00003	83 ec 14	 sub	 esp, 20			; 00000014H
  00006	a1 00 00 00 00	 mov	 eax, DWORD PTR ___security_cookie
  0000b	33 c5		 xor	 eax, ebp
  0000d	89 45 fc	 mov	 DWORD PTR __$ArrayPad$[ebp], eax
  00010	89 4d ec	 mov	 DWORD PTR _this$[ebp], ecx
; File D:\Metin2 Server Files\mainline\SRC_2014\M2Data\include\d3dx8math.inl

; 180  :     x = fx;

  00013	f3 0f 10 45 0c	 movss	 xmm0, DWORD PTR _x$[ebp]
  00018	f3 0f 11 45 f0	 movss	 DWORD PTR _vec$[ebp], xmm0

; 181  :     y = fy;

  0001d	f3 0f 10 45 10	 movss	 xmm0, DWORD PTR _y$[ebp]
  00022	f3 0f 11 45 f4	 movss	 DWORD PTR _vec$[ebp+4], xmm0

; 182  :     z = fz;

  00027	f3 0f 10 45 14	 movss	 xmm0, DWORD PTR _z$[ebp]
  0002c	f3 0f 11 45 f8	 movss	 DWORD PTR _vec$[ebp+8], xmm0
; File D:\Metin2 Server Files\mainline\SRC_2014\Metin2Client\EterLib\GrpBase.cpp

; 419  : 	ms_lpd3dMatStack->RotateAxis(&vec, D3DXToRadian(degree));

  00031	f3 0f 10 45 08	 movss	 xmm0, DWORD PTR _degree$[ebp]
  00036	f3 0f 59 05 00
	00 00 00	 mulss	 xmm0, DWORD PTR __real@3c8efa35
  0003e	51		 push	 ecx
  0003f	f3 0f 11 04 24	 movss	 DWORD PTR [esp], xmm0
  00044	8d 45 f0	 lea	 eax, DWORD PTR _vec$[ebp]
  00047	50		 push	 eax
  00048	a1 00 00 00 00	 mov	 eax, DWORD PTR ?ms_lpd3dMatStack@CGraphicBase@@1PAUID3DXMatrixStack@@A ; CGraphicBase::ms_lpd3dMatStack
  0004d	8b 00		 mov	 eax, DWORD PTR [eax]
  0004f	ff 35 00 00 00
	00		 push	 DWORD PTR ?ms_lpd3dMatStack@CGraphicBase@@1PAUID3DXMatrixStack@@A ; CGraphicBase::ms_lpd3dMatStack
  00055	ff 50 24	 call	 DWORD PTR [eax+36]

; 420  : }

  00058	8b 4d fc	 mov	 ecx, DWORD PTR __$ArrayPad$[ebp]
  0005b	33 cd		 xor	 ecx, ebp
  0005d	e8 00 00 00 00	 call	 @__security_check_cookie@4
  00062	c9		 leave
  00063	c2 10 00	 ret	 16			; 00000010H
?Rotate@CGraphicBase@@QAEXMMMM@Z ENDP			; CGraphicBase::Rotate
_TEXT	ENDS
; Function compile flags: /Odspy
; File D:\Metin2 Server Files\mainline\SRC_2014\Metin2Client\EterLib\GrpBase.cpp
;	COMDAT ?Translate@CGraphicBase@@QAEXMMM@Z
_TEXT	SEGMENT
_this$ = -4						; size = 4
_x$ = 8							; size = 4
_y$ = 12						; size = 4
_z$ = 16						; size = 4
?Translate@CGraphicBase@@QAEXMMM@Z PROC			; CGraphicBase::Translate, COMDAT
; _this$ = ecx

; 444  : {

  00000	55		 push	 ebp
  00001	8b ec		 mov	 ebp, esp
  00003	51		 push	 ecx
  00004	89 4d fc	 mov	 DWORD PTR _this$[ebp], ecx

; 445  : 	ms_lpd3dMatStack->Translate(x, y, z);

  00007	51		 push	 ecx
  00008	f3 0f 10 45 10	 movss	 xmm0, DWORD PTR _z$[ebp]
  0000d	f3 0f 11 04 24	 movss	 DWORD PTR [esp], xmm0
  00012	51		 push	 ecx
  00013	f3 0f 10 45 0c	 movss	 xmm0, DWORD PTR _y$[ebp]
  00018	f3 0f 11 04 24	 movss	 DWORD PTR [esp], xmm0
  0001d	51		 push	 ecx
  0001e	f3 0f 10 45 08	 movss	 xmm0, DWORD PTR _x$[ebp]
  00023	f3 0f 11 04 24	 movss	 DWORD PTR [esp], xmm0
  00028	a1 00 00 00 00	 mov	 eax, DWORD PTR ?ms_lpd3dMatStack@CGraphicBase@@1PAUID3DXMatrixStack@@A ; CGraphicBase::ms_lpd3dMatStack
  0002d	8b 00		 mov	 eax, DWORD PTR [eax]
  0002f	ff 35 00 00 00
	00		 push	 DWORD PTR ?ms_lpd3dMatStack@CGraphicBase@@1PAUID3DXMatrixStack@@A ; CGraphicBase::ms_lpd3dMatStack
  00035	ff 50 3c	 call	 DWORD PTR [eax+60]

; 446  : }

  00038	c9		 leave
  00039	c2 0c 00	 ret	 12			; 0000000cH
?Translate@CGraphicBase@@QAEXMMM@Z ENDP			; CGraphicBase::Translate
_TEXT	ENDS
; Function compile flags: /Odspy
; File D:\Metin2 Server Files\mainline\SRC_2014\Metin2Client\EterLib\GrpBase.cpp
;	COMDAT ?MultMatrixLocal@CGraphicBase@@QAEXPBUD3DXMATRIX@@@Z
_TEXT	SEGMENT
_this$ = -4						; size = 4
_pMat$ = 8						; size = 4
?MultMatrixLocal@CGraphicBase@@QAEXPBUD3DXMATRIX@@@Z PROC ; CGraphicBase::MultMatrixLocal, COMDAT
; _this$ = ecx

; 434  : {

  00000	55		 push	 ebp
  00001	8b ec		 mov	 ebp, esp
  00003	51		 push	 ecx
  00004	89 4d fc	 mov	 DWORD PTR _this$[ebp], ecx

; 435  : 	ms_lpd3dMatStack->MultMatrixLocal(pMat);

  00007	ff 75 08	 push	 DWORD PTR _pMat$[ebp]
  0000a	a1 00 00 00 00	 mov	 eax, DWORD PTR ?ms_lpd3dMatStack@CGraphicBase@@1PAUID3DXMatrixStack@@A ; CGraphicBase::ms_lpd3dMatStack
  0000f	8b 00		 mov	 eax, DWORD PTR [eax]
  00011	ff 35 00 00 00
	00		 push	 DWORD PTR ?ms_lpd3dMatStack@CGraphicBase@@1PAUID3DXMatrixStack@@A ; CGraphicBase::ms_lpd3dMatStack
  00017	ff 50 20	 call	 DWORD PTR [eax+32]

; 436  : }

  0001a	c9		 leave
  0001b	c2 04 00	 ret	 4
?MultMatrixLocal@CGraphicBase@@QAEXPBUD3DXMATRIX@@@Z ENDP ; CGraphicBase::MultMatrixLocal
_TEXT	ENDS
; Function compile flags: /Odspy
; File D:\Metin2 Server Files\mainline\SRC_2014\Metin2Client\EterLib\GrpBase.cpp
;	COMDAT ?MultMatrix@CGraphicBase@@QAEXPBUD3DXMATRIX@@@Z
_TEXT	SEGMENT
_this$ = -4						; size = 4
_pMat$ = 8						; size = 4
?MultMatrix@CGraphicBase@@QAEXPBUD3DXMATRIX@@@Z PROC	; CGraphicBase::MultMatrix, COMDAT
; _this$ = ecx

; 429  : {

  00000	55		 push	 ebp
  00001	8b ec		 mov	 ebp, esp
  00003	51		 push	 ecx
  00004	89 4d fc	 mov	 DWORD PTR _this$[ebp], ecx

; 430  : 	ms_lpd3dMatStack->MultMatrix(pMat);

  00007	ff 75 08	 push	 DWORD PTR _pMat$[ebp]
  0000a	a1 00 00 00 00	 mov	 eax, DWORD PTR ?ms_lpd3dMatStack@CGraphicBase@@1PAUID3DXMatrixStack@@A ; CGraphicBase::ms_lpd3dMatStack
  0000f	8b 00		 mov	 eax, DWORD PTR [eax]
  00011	ff 35 00 00 00
	00		 push	 DWORD PTR ?ms_lpd3dMatStack@CGraphicBase@@1PAUID3DXMatrixStack@@A ; CGraphicBase::ms_lpd3dMatStack
  00017	ff 50 1c	 call	 DWORD PTR [eax+28]

; 431  : }

  0001a	c9		 leave
  0001b	c2 04 00	 ret	 4
?MultMatrix@CGraphicBase@@QAEXPBUD3DXMATRIX@@@Z ENDP	; CGraphicBase::MultMatrix
_TEXT	ENDS
; Function compile flags: /Odspy
; File D:\Metin2 Server Files\mainline\SRC_2014\Metin2Client\EterLib\GrpBase.cpp
;	COMDAT ?PushMatrix@CGraphicBase@@QAEXXZ
_TEXT	SEGMENT
_this$ = -4						; size = 4
?PushMatrix@CGraphicBase@@QAEXXZ PROC			; CGraphicBase::PushMatrix, COMDAT
; _this$ = ecx

; 407  : {

  00000	55		 push	 ebp
  00001	8b ec		 mov	 ebp, esp
  00003	51		 push	 ecx
  00004	89 4d fc	 mov	 DWORD PTR _this$[ebp], ecx

; 408  : 	ms_lpd3dMatStack->Push();

  00007	a1 00 00 00 00	 mov	 eax, DWORD PTR ?ms_lpd3dMatStack@CGraphicBase@@1PAUID3DXMatrixStack@@A ; CGraphicBase::ms_lpd3dMatStack
  0000c	8b 00		 mov	 eax, DWORD PTR [eax]
  0000e	ff 35 00 00 00
	00		 push	 DWORD PTR ?ms_lpd3dMatStack@CGraphicBase@@1PAUID3DXMatrixStack@@A ; CGraphicBase::ms_lpd3dMatStack
  00014	ff 50 10	 call	 DWORD PTR [eax+16]

; 409  : }

  00017	c9		 leave
  00018	c3		 ret	 0
?PushMatrix@CGraphicBase@@QAEXXZ ENDP			; CGraphicBase::PushMatrix
_TEXT	ENDS
; Function compile flags: /Odspy
; File D:\Metin2 Server Files\mainline\SRC_2014\Metin2Client\EterLib\GrpBase.cpp
;	COMDAT ?GetFOV@CGraphicBase@@QAEMXZ
_TEXT	SEGMENT
_this$ = -4						; size = 4
?GetFOV@CGraphicBase@@QAEMXZ PROC			; CGraphicBase::GetFOV, COMDAT
; _this$ = ecx

; 402  : {

  00000	55		 push	 ebp
  00001	8b ec		 mov	 ebp, esp
  00003	51		 push	 ecx
  00004	89 4d fc	 mov	 DWORD PTR _this$[ebp], ecx

; 403  : 	return ms_fFieldOfView;

  00007	d9 05 00 00 00
	00		 fld	 DWORD PTR ?ms_fFieldOfView@CGraphicBase@@1MA ; CGraphicBase::ms_fFieldOfView

; 404  : }

  0000d	c9		 leave
  0000e	c3		 ret	 0
?GetFOV@CGraphicBase@@QAEMXZ ENDP			; CGraphicBase::GetFOV
_TEXT	ENDS
; Function compile flags: /Odspy
; File D:\Metin2 Server Files\mainline\SRC_2014\Metin2Client\EterLib\GrpBase.cpp
;	COMDAT ?SetPerspective@CGraphicBase@@QAEXMMMM@Z
_TEXT	SEGMENT
_this$ = -4						; size = 4
_fov$ = 8						; size = 4
_aspect$ = 12						; size = 4
_nearz$ = 16						; size = 4
_farz$ = 20						; size = 4
?SetPerspective@CGraphicBase@@QAEXMMMM@Z PROC		; CGraphicBase::SetPerspective, COMDAT
; _this$ = ecx

; 307  : {

  00000	55		 push	 ebp
  00001	8b ec		 mov	 ebp, esp
  00003	51		 push	 ecx
  00004	89 4d fc	 mov	 DWORD PTR _this$[ebp], ecx

; 308  : 	ms_fFieldOfView = fov;

  00007	f3 0f 10 45 08	 movss	 xmm0, DWORD PTR _fov$[ebp]
  0000c	f3 0f 11 05 00
	00 00 00	 movss	 DWORD PTR ?ms_fFieldOfView@CGraphicBase@@1MA, xmm0

; 309  : 
; 310  : 
; 311  : 	//if (ms_d3dPresentParameter.BackBufferWidth>0 && ms_d3dPresentParameter.BackBufferHeight>0)
; 312  : 	//	ms_fAspect = float(ms_d3dPresentParameter.BackBufferWidth)/float(ms_d3dPresentParameter.BackBufferHeight);
; 313  : 	//else
; 314  : 	ms_fAspect = aspect;

  00014	f3 0f 10 45 0c	 movss	 xmm0, DWORD PTR _aspect$[ebp]
  00019	f3 0f 11 05 00
	00 00 00	 movss	 DWORD PTR ?ms_fAspect@CGraphicBase@@1MA, xmm0

; 315  : 
; 316  : 	ms_fNearY = nearz;

  00021	f3 0f 10 45 10	 movss	 xmm0, DWORD PTR _nearz$[ebp]
  00026	f3 0f 11 05 00
	00 00 00	 movss	 DWORD PTR ?ms_fNearY@CGraphicBase@@1MA, xmm0

; 317  : 	ms_fFarY = farz;

  0002e	f3 0f 10 45 14	 movss	 xmm0, DWORD PTR _farz$[ebp]
  00033	f3 0f 11 05 00
	00 00 00	 movss	 DWORD PTR ?ms_fFarY@CGraphicBase@@1MA, xmm0

; 318  : 
; 319  : 	//CCameraManager::Instance().SetCurrentCamera(CCameraManager::DEFAULT_PERSPECTIVE_CAMERA);
; 320  : 	D3DXMatrixPerspectiveFovRH(&ms_matProj, D3DXToRadian(fov), ms_fAspect, nearz, farz);		

  0003b	51		 push	 ecx
  0003c	f3 0f 10 45 14	 movss	 xmm0, DWORD PTR _farz$[ebp]
  00041	f3 0f 11 04 24	 movss	 DWORD PTR [esp], xmm0
  00046	51		 push	 ecx
  00047	f3 0f 10 45 10	 movss	 xmm0, DWORD PTR _nearz$[ebp]
  0004c	f3 0f 11 04 24	 movss	 DWORD PTR [esp], xmm0
  00051	51		 push	 ecx
  00052	f3 0f 10 05 00
	00 00 00	 movss	 xmm0, DWORD PTR ?ms_fAspect@CGraphicBase@@1MA
  0005a	f3 0f 11 04 24	 movss	 DWORD PTR [esp], xmm0
  0005f	f3 0f 10 45 08	 movss	 xmm0, DWORD PTR _fov$[ebp]
  00064	f3 0f 59 05 00
	00 00 00	 mulss	 xmm0, DWORD PTR __real@3c8efa35
  0006c	51		 push	 ecx
  0006d	f3 0f 11 04 24	 movss	 DWORD PTR [esp], xmm0
  00072	68 00 00 00 00	 push	 OFFSET ?ms_matProj@CGraphicBase@@1UD3DXMATRIX@@A ; CGraphicBase::ms_matProj
  00077	e8 00 00 00 00	 call	 _D3DXMatrixPerspectiveFovRH@20

; 321  : 	//UpdatePipeLineMatrix();
; 322  : 	UpdateProjMatrix();

  0007c	8b 4d fc	 mov	 ecx, DWORD PTR _this$[ebp]
  0007f	e8 00 00 00 00	 call	 ?UpdateProjMatrix@CGraphicBase@@QAEXXZ ; CGraphicBase::UpdateProjMatrix

; 323  : }

  00084	c9		 leave
  00085	c2 10 00	 ret	 16			; 00000010H
?SetPerspective@CGraphicBase@@QAEXMMMM@Z ENDP		; CGraphicBase::SetPerspective
_TEXT	ENDS
; Function compile flags: /Odspy
; File D:\Metin2 Server Files\mainline\SRC_2014\Metin2Client\EterLib\GrpBase.cpp
;	COMDAT ?SetOrtho3D@CGraphicBase@@QAEXMMMM@Z
_TEXT	SEGMENT
_this$ = -4						; size = 4
_hres$ = 8						; size = 4
_vres$ = 12						; size = 4
_zmin$ = 16						; size = 4
_zmax$ = 20						; size = 4
?SetOrtho3D@CGraphicBase@@QAEXMMMM@Z PROC		; CGraphicBase::SetOrtho3D, COMDAT
; _this$ = ecx

; 299  : {

  00000	55		 push	 ebp
  00001	8b ec		 mov	 ebp, esp
  00003	51		 push	 ecx
  00004	89 4d fc	 mov	 DWORD PTR _this$[ebp], ecx

; 300  : 	//CCameraManager::Instance().SetCurrentCamera(CCameraManager::DEFAULT_PERSPECTIVE_CAMERA);
; 301  : 	D3DXMatrixOrthoRH(&ms_matProj, hres, vres, zmin, zmax);

  00007	51		 push	 ecx
  00008	f3 0f 10 45 14	 movss	 xmm0, DWORD PTR _zmax$[ebp]
  0000d	f3 0f 11 04 24	 movss	 DWORD PTR [esp], xmm0
  00012	51		 push	 ecx
  00013	f3 0f 10 45 10	 movss	 xmm0, DWORD PTR _zmin$[ebp]
  00018	f3 0f 11 04 24	 movss	 DWORD PTR [esp], xmm0
  0001d	51		 push	 ecx
  0001e	f3 0f 10 45 0c	 movss	 xmm0, DWORD PTR _vres$[ebp]
  00023	f3 0f 11 04 24	 movss	 DWORD PTR [esp], xmm0
  00028	51		 push	 ecx
  00029	f3 0f 10 45 08	 movss	 xmm0, DWORD PTR _hres$[ebp]
  0002e	f3 0f 11 04 24	 movss	 DWORD PTR [esp], xmm0
  00033	68 00 00 00 00	 push	 OFFSET ?ms_matProj@CGraphicBase@@1UD3DXMATRIX@@A ; CGraphicBase::ms_matProj
  00038	e8 00 00 00 00	 call	 _D3DXMatrixOrthoRH@20

; 302  : 	//UpdatePipeLineMatrix();
; 303  : 	UpdateProjMatrix();

  0003d	8b 4d fc	 mov	 ecx, DWORD PTR _this$[ebp]
  00040	e8 00 00 00 00	 call	 ?UpdateProjMatrix@CGraphicBase@@QAEXXZ ; CGraphicBase::UpdateProjMatrix

; 304  : }

  00045	c9		 leave
  00046	c2 10 00	 ret	 16			; 00000010H
?SetOrtho3D@CGraphicBase@@QAEXMMMM@Z ENDP		; CGraphicBase::SetOrtho3D
_TEXT	ENDS
; Function compile flags: /Odspy
; File D:\Metin2 Server Files\mainline\SRC_2014\Metin2Client\EterLib\GrpBase.cpp
;	COMDAT ?SetOrtho2D@CGraphicBase@@QAEXMMM@Z
_TEXT	SEGMENT
_this$ = -4						; size = 4
_hres$ = 8						; size = 4
_vres$ = 12						; size = 4
_zres$ = 16						; size = 4
?SetOrtho2D@CGraphicBase@@QAEXMMM@Z PROC		; CGraphicBase::SetOrtho2D, COMDAT
; _this$ = ecx

; 291  : {

  00000	55		 push	 ebp
  00001	8b ec		 mov	 ebp, esp
  00003	51		 push	 ecx
  00004	89 4d fc	 mov	 DWORD PTR _this$[ebp], ecx

; 292  : 	//CCameraManager::Instance().SetCurrentCamera(CCameraManager::DEFAULT_ORTHO_CAMERA);
; 293  : 	D3DXMatrixOrthoOffCenterRH(&ms_matProj, 0, hres, vres, 0, 0, zres);

  00007	51		 push	 ecx
  00008	f3 0f 10 45 10	 movss	 xmm0, DWORD PTR _zres$[ebp]
  0000d	f3 0f 11 04 24	 movss	 DWORD PTR [esp], xmm0
  00012	51		 push	 ecx
  00013	0f 57 c0	 xorps	 xmm0, xmm0
  00016	f3 0f 11 04 24	 movss	 DWORD PTR [esp], xmm0
  0001b	51		 push	 ecx
  0001c	0f 57 c0	 xorps	 xmm0, xmm0
  0001f	f3 0f 11 04 24	 movss	 DWORD PTR [esp], xmm0
  00024	51		 push	 ecx
  00025	f3 0f 10 45 0c	 movss	 xmm0, DWORD PTR _vres$[ebp]
  0002a	f3 0f 11 04 24	 movss	 DWORD PTR [esp], xmm0
  0002f	51		 push	 ecx
  00030	f3 0f 10 45 08	 movss	 xmm0, DWORD PTR _hres$[ebp]
  00035	f3 0f 11 04 24	 movss	 DWORD PTR [esp], xmm0
  0003a	51		 push	 ecx
  0003b	0f 57 c0	 xorps	 xmm0, xmm0
  0003e	f3 0f 11 04 24	 movss	 DWORD PTR [esp], xmm0
  00043	68 00 00 00 00	 push	 OFFSET ?ms_matProj@CGraphicBase@@1UD3DXMATRIX@@A ; CGraphicBase::ms_matProj
  00048	e8 00 00 00 00	 call	 _D3DXMatrixOrthoOffCenterRH@28

; 294  : 	//UpdatePipeLineMatrix();
; 295  : 	UpdateProjMatrix();

  0004d	8b 4d fc	 mov	 ecx, DWORD PTR _this$[ebp]
  00050	e8 00 00 00 00	 call	 ?UpdateProjMatrix@CGraphicBase@@QAEXXZ ; CGraphicBase::UpdateProjMatrix

; 296  : }

  00055	c9		 leave
  00056	c2 0c 00	 ret	 12			; 0000000cH
?SetOrtho2D@CGraphicBase@@QAEXMMM@Z ENDP		; CGraphicBase::SetOrtho2D
_TEXT	ENDS
; Function compile flags: /Odspy
; File D:\Metin2 Server Files\mainline\SRC_2014\Metin2Client\EterLib\GrpBase.cpp
; File D:\Metin2 Server Files\mainline\SRC_2014\Metin2Client\eterBase\Singleton.h
; File D:\Metin2 Server Files\mainline\SRC_2014\Metin2Client\EterLib\GrpBase.cpp
; File D:\Metin2 Server Files\mainline\SRC_2014\Metin2Client\eterBase\Singleton.h
; File D:\Metin2 Server Files\mainline\SRC_2014\Metin2Client\EterLib\GrpBase.cpp
; File D:\Metin2 Server Files\mainline\SRC_2014\Metin2Client\eterBase\Singleton.h
; File D:\Metin2 Server Files\mainline\SRC_2014\Metin2Client\EterLib\GrpBase.cpp
;	COMDAT ?GetCameraPosition@CGraphicBase@@QAEXPAM00@Z
_TEXT	SEGMENT
_this$ = -28						; size = 4
_this$ = -24						; size = 4
$T1 = -20						; size = 4
_this$ = -16						; size = 4
$T2 = -12						; size = 4
_this$ = -8						; size = 4
$T3 = -4						; size = 4
_px$ = 8						; size = 4
_py$ = 12						; size = 4
_pz$ = 16						; size = 4
?GetCameraPosition@CGraphicBase@@QAEXPAM00@Z PROC	; CGraphicBase::GetCameraPosition, COMDAT
; _this$ = ecx

; 370  : {

  00000	55		 push	 ebp
  00001	8b ec		 mov	 ebp, esp
  00003	83 ec 1c	 sub	 esp, 28			; 0000001cH
  00006	89 4d e4	 mov	 DWORD PTR _this$[ebp], ecx
; File D:\Metin2 Server Files\mainline\SRC_2014\Metin2Client\eterBase\Singleton.h

; 27   : 		return (*ms_singleton);

  00009	a1 00 00 00 00	 mov	 eax, DWORD PTR ?ms_singleton@?$CSingleton@VCCameraManager@@@@0PAVCCameraManager@@A ; CSingleton<CCameraManager>::ms_singleton
  0000e	89 45 fc	 mov	 DWORD PTR $T3[ebp], eax
; File D:\Metin2 Server Files\mainline\SRC_2014\Metin2Client\EterLib\GrpBase.cpp

; 371  : 	*px = CCameraManager::Instance().GetCurrentCamera()->GetEye().x;

  00011	8b 4d fc	 mov	 ecx, DWORD PTR $T3[ebp]
  00014	e8 00 00 00 00	 call	 ?GetCurrentCamera@CCameraManager@@QAEPAVCCamera@@XZ ; CCameraManager::GetCurrentCamera
  00019	89 45 f8	 mov	 DWORD PTR _this$[ebp], eax
  0001c	8b 45 08	 mov	 eax, DWORD PTR _px$[ebp]
  0001f	8b 4d f8	 mov	 ecx, DWORD PTR _this$[ebp]
  00022	8b 49 30	 mov	 ecx, DWORD PTR [ecx+48]
  00025	89 08		 mov	 DWORD PTR [eax], ecx
; File D:\Metin2 Server Files\mainline\SRC_2014\Metin2Client\eterBase\Singleton.h

; 27   : 		return (*ms_singleton);

  00027	a1 00 00 00 00	 mov	 eax, DWORD PTR ?ms_singleton@?$CSingleton@VCCameraManager@@@@0PAVCCameraManager@@A ; CSingleton<CCameraManager>::ms_singleton
  0002c	89 45 f4	 mov	 DWORD PTR $T2[ebp], eax
; File D:\Metin2 Server Files\mainline\SRC_2014\Metin2Client\EterLib\GrpBase.cpp

; 372  : 	*py = CCameraManager::Instance().GetCurrentCamera()->GetEye().y;

  0002f	8b 4d f4	 mov	 ecx, DWORD PTR $T2[ebp]
  00032	e8 00 00 00 00	 call	 ?GetCurrentCamera@CCameraManager@@QAEPAVCCamera@@XZ ; CCameraManager::GetCurrentCamera
  00037	89 45 f0	 mov	 DWORD PTR _this$[ebp], eax
  0003a	8b 45 0c	 mov	 eax, DWORD PTR _py$[ebp]
  0003d	8b 4d f0	 mov	 ecx, DWORD PTR _this$[ebp]
  00040	8b 49 34	 mov	 ecx, DWORD PTR [ecx+52]
  00043	89 08		 mov	 DWORD PTR [eax], ecx
; File D:\Metin2 Server Files\mainline\SRC_2014\Metin2Client\eterBase\Singleton.h

; 27   : 		return (*ms_singleton);

  00045	a1 00 00 00 00	 mov	 eax, DWORD PTR ?ms_singleton@?$CSingleton@VCCameraManager@@@@0PAVCCameraManager@@A ; CSingleton<CCameraManager>::ms_singleton
  0004a	89 45 ec	 mov	 DWORD PTR $T1[ebp], eax
; File D:\Metin2 Server Files\mainline\SRC_2014\Metin2Client\EterLib\GrpBase.cpp

; 373  : 	*pz = CCameraManager::Instance().GetCurrentCamera()->GetEye().z;

  0004d	8b 4d ec	 mov	 ecx, DWORD PTR $T1[ebp]
  00050	e8 00 00 00 00	 call	 ?GetCurrentCamera@CCameraManager@@QAEPAVCCamera@@XZ ; CCameraManager::GetCurrentCamera
  00055	89 45 e8	 mov	 DWORD PTR _this$[ebp], eax
  00058	8b 45 10	 mov	 eax, DWORD PTR _pz$[ebp]
  0005b	8b 4d e8	 mov	 ecx, DWORD PTR _this$[ebp]
  0005e	8b 49 38	 mov	 ecx, DWORD PTR [ecx+56]
  00061	89 08		 mov	 DWORD PTR [eax], ecx

; 374  : }

  00063	c9		 leave
  00064	c2 0c 00	 ret	 12			; 0000000cH
?GetCameraPosition@CGraphicBase@@QAEXPAM00@Z ENDP	; CGraphicBase::GetCameraPosition
_TEXT	ENDS
; Function compile flags: /Odspy
; File D:\Metin2 Server Files\mainline\SRC_2014\Metin2Client\EterLib\GrpBase.cpp
; File D:\Metin2 Server Files\mainline\SRC_2014\Metin2Client\eterBase\Singleton.h
; File D:\Metin2 Server Files\mainline\SRC_2014\Metin2Client\EterLib\GrpBase.cpp
; File D:\Metin2 Server Files\mainline\SRC_2014\Metin2Client\eterBase\Singleton.h
; File D:\Metin2 Server Files\mainline\SRC_2014\Metin2Client\EterLib\GrpBase.cpp
; File D:\Metin2 Server Files\mainline\SRC_2014\Metin2Client\eterBase\Singleton.h
; File D:\Metin2 Server Files\mainline\SRC_2014\Metin2Client\EterLib\GrpBase.cpp
;	COMDAT ?GetTargetPosition@CGraphicBase@@QAEXPAM00@Z
_TEXT	SEGMENT
_this$ = -28						; size = 4
_this$ = -24						; size = 4
$T1 = -20						; size = 4
_this$ = -16						; size = 4
$T2 = -12						; size = 4
_this$ = -8						; size = 4
$T3 = -4						; size = 4
_px$ = 8						; size = 4
_py$ = 12						; size = 4
_pz$ = 16						; size = 4
?GetTargetPosition@CGraphicBase@@QAEXPAM00@Z PROC	; CGraphicBase::GetTargetPosition, COMDAT
; _this$ = ecx

; 363  : {

  00000	55		 push	 ebp
  00001	8b ec		 mov	 ebp, esp
  00003	83 ec 1c	 sub	 esp, 28			; 0000001cH
  00006	89 4d e4	 mov	 DWORD PTR _this$[ebp], ecx
; File D:\Metin2 Server Files\mainline\SRC_2014\Metin2Client\eterBase\Singleton.h

; 27   : 		return (*ms_singleton);

  00009	a1 00 00 00 00	 mov	 eax, DWORD PTR ?ms_singleton@?$CSingleton@VCCameraManager@@@@0PAVCCameraManager@@A ; CSingleton<CCameraManager>::ms_singleton
  0000e	89 45 fc	 mov	 DWORD PTR $T3[ebp], eax
; File D:\Metin2 Server Files\mainline\SRC_2014\Metin2Client\EterLib\GrpBase.cpp

; 364  : 	*px = CCameraManager::Instance().GetCurrentCamera()->GetTarget().x;

  00011	8b 4d fc	 mov	 ecx, DWORD PTR $T3[ebp]
  00014	e8 00 00 00 00	 call	 ?GetCurrentCamera@CCameraManager@@QAEPAVCCamera@@XZ ; CCameraManager::GetCurrentCamera
  00019	89 45 f8	 mov	 DWORD PTR _this$[ebp], eax
  0001c	8b 45 08	 mov	 eax, DWORD PTR _px$[ebp]
  0001f	8b 4d f8	 mov	 ecx, DWORD PTR _this$[ebp]
  00022	8b 49 3c	 mov	 ecx, DWORD PTR [ecx+60]
  00025	89 08		 mov	 DWORD PTR [eax], ecx
; File D:\Metin2 Server Files\mainline\SRC_2014\Metin2Client\eterBase\Singleton.h

; 27   : 		return (*ms_singleton);

  00027	a1 00 00 00 00	 mov	 eax, DWORD PTR ?ms_singleton@?$CSingleton@VCCameraManager@@@@0PAVCCameraManager@@A ; CSingleton<CCameraManager>::ms_singleton
  0002c	89 45 f4	 mov	 DWORD PTR $T2[ebp], eax
; File D:\Metin2 Server Files\mainline\SRC_2014\Metin2Client\EterLib\GrpBase.cpp

; 365  : 	*py = CCameraManager::Instance().GetCurrentCamera()->GetTarget().y;

  0002f	8b 4d f4	 mov	 ecx, DWORD PTR $T2[ebp]
  00032	e8 00 00 00 00	 call	 ?GetCurrentCamera@CCameraManager@@QAEPAVCCamera@@XZ ; CCameraManager::GetCurrentCamera
  00037	89 45 f0	 mov	 DWORD PTR _this$[ebp], eax
  0003a	8b 45 0c	 mov	 eax, DWORD PTR _py$[ebp]
  0003d	8b 4d f0	 mov	 ecx, DWORD PTR _this$[ebp]
  00040	8b 49 40	 mov	 ecx, DWORD PTR [ecx+64]
  00043	89 08		 mov	 DWORD PTR [eax], ecx
; File D:\Metin2 Server Files\mainline\SRC_2014\Metin2Client\eterBase\Singleton.h

; 27   : 		return (*ms_singleton);

  00045	a1 00 00 00 00	 mov	 eax, DWORD PTR ?ms_singleton@?$CSingleton@VCCameraManager@@@@0PAVCCameraManager@@A ; CSingleton<CCameraManager>::ms_singleton
  0004a	89 45 ec	 mov	 DWORD PTR $T1[ebp], eax
; File D:\Metin2 Server Files\mainline\SRC_2014\Metin2Client\EterLib\GrpBase.cpp

; 366  : 	*pz = CCameraManager::Instance().GetCurrentCamera()->GetTarget().z;

  0004d	8b 4d ec	 mov	 ecx, DWORD PTR $T1[ebp]
  00050	e8 00 00 00 00	 call	 ?GetCurrentCamera@CCameraManager@@QAEPAVCCamera@@XZ ; CCameraManager::GetCurrentCamera
  00055	89 45 e8	 mov	 DWORD PTR _this$[ebp], eax
  00058	8b 45 10	 mov	 eax, DWORD PTR _pz$[ebp]
  0005b	8b 4d e8	 mov	 ecx, DWORD PTR _this$[ebp]
  0005e	8b 49 44	 mov	 ecx, DWORD PTR [ecx+68]
  00061	89 08		 mov	 DWORD PTR [eax], ecx

; 367  : }

  00063	c9		 leave
  00064	c2 0c 00	 ret	 12			; 0000000cH
?GetTargetPosition@CGraphicBase@@QAEXPAM00@Z ENDP	; CGraphicBase::GetTargetPosition
_TEXT	ENDS
; Function compile flags: /Odspy
; File D:\Metin2 Server Files\mainline\SRC_2014\Metin2Client\EterLib\GrpBase.cpp
; File D:\Metin2 Server Files\mainline\SRC_2014\Metin2Client\eterBase\Singleton.h
; File D:\Metin2 Server Files\mainline\SRC_2014\Metin2Client\EterLib\GrpBase.cpp
; File D:\Metin2 Server Files\mainline\SRC_2014\Metin2Client\eterBase\Singleton.h
; File D:\Metin2 Server Files\mainline\SRC_2014\Metin2Client\EterLib\GrpBase.cpp
; File D:\Metin2 Server Files\mainline\SRC_2014\M2Data\include\d3dx8math.inl
; File D:\Metin2 Server Files\mainline\SRC_2014\Metin2Client\EterLib\GrpBase.cpp
; File D:\Metin2 Server Files\mainline\SRC_2014\M2Data\include\d3dx8math.inl
; File D:\Metin2 Server Files\mainline\SRC_2014\Metin2Client\EterLib\GrpBase.cpp
; File D:\Metin2 Server Files\mainline\SRC_2014\M2Data\include\d3dx8math.inl
; File D:\Metin2 Server Files\mainline\SRC_2014\Metin2Client\EterLib\GrpBase.cpp
;	COMDAT ?SetPositionCamera@CGraphicBase@@QAEXMMMMMM@Z
_TEXT	SEGMENT
_this$ = -68						; size = 4
$T1 = -64						; size = 4
$T2 = -60						; size = 4
_pCamera$ = -56						; size = 4
$T3 = -52						; size = 12
$T4 = -40						; size = 12
$T5 = -28						; size = 12
$T6 = -16						; size = 12
__$ArrayPad$ = -4					; size = 4
_fx$ = 8						; size = 4
_fy$ = 12						; size = 4
_fz$ = 16						; size = 4
_distance$ = 20						; size = 4
_pitch$ = 24						; size = 4
_roll$ = 28						; size = 4
?SetPositionCamera@CGraphicBase@@QAEXMMMMMM@Z PROC	; CGraphicBase::SetPositionCamera, COMDAT
; _this$ = ecx

; 261  : {

  00000	55		 push	 ebp
  00001	8b ec		 mov	 ebp, esp
  00003	83 ec 44	 sub	 esp, 68			; 00000044H
  00006	a1 00 00 00 00	 mov	 eax, DWORD PTR ___security_cookie
  0000b	33 c5		 xor	 eax, ebp
  0000d	89 45 fc	 mov	 DWORD PTR __$ArrayPad$[ebp], eax
  00010	89 4d bc	 mov	 DWORD PTR _this$[ebp], ecx
; File D:\Metin2 Server Files\mainline\SRC_2014\Metin2Client\eterBase\Singleton.h

; 27   : 		return (*ms_singleton);

  00013	a1 00 00 00 00	 mov	 eax, DWORD PTR ?ms_singleton@?$CSingleton@VCTimer@@@@0PAVCTimer@@A ; CSingleton<CTimer>::ms_singleton
  00018	89 45 c4	 mov	 DWORD PTR $T2[ebp], eax
; File D:\Metin2 Server Files\mainline\SRC_2014\Metin2Client\EterLib\GrpBase.cpp

; 263  : 	if (ms_dwWavingEndTime > CTimer::Instance().GetCurrentMillisecond())

  0001b	8b 4d c4	 mov	 ecx, DWORD PTR $T2[ebp]
  0001e	e8 00 00 00 00	 call	 ?GetCurrentMillisecond@CTimer@@QAEKXZ ; CTimer::GetCurrentMillisecond
  00023	39 05 00 00 00
	00		 cmp	 DWORD PTR ?ms_dwWavingEndTime@CGraphicBase@@1KA, eax ; CGraphicBase::ms_dwWavingEndTime
  00029	76 6f		 jbe	 SHORT $LN3@SetPositio

; 264  : 	{
; 265  : 		if (ms_iWavingPower>0)

  0002b	83 3d 00 00 00
	00 00		 cmp	 DWORD PTR ?ms_iWavingPower@CGraphicBase@@1HA, 0 ; CGraphicBase::ms_iWavingPower
  00032	7e 66		 jle	 SHORT $LN3@SetPositio

; 266  : 		{
; 267  : 			fx += float(rand() % ms_iWavingPower) / 10.0f;

  00034	e8 00 00 00 00	 call	 _rand
  00039	99		 cdq
  0003a	f7 3d 00 00 00
	00		 idiv	 DWORD PTR ?ms_iWavingPower@CGraphicBase@@1HA ; CGraphicBase::ms_iWavingPower
  00040	f3 0f 2a c2	 cvtsi2ss xmm0, edx
  00044	f3 0f 5e 05 00
	00 00 00	 divss	 xmm0, DWORD PTR __real@41200000
  0004c	f3 0f 58 45 08	 addss	 xmm0, DWORD PTR _fx$[ebp]
  00051	f3 0f 11 45 08	 movss	 DWORD PTR _fx$[ebp], xmm0

; 268  : 			fy += float(rand() % ms_iWavingPower) / 10.0f;

  00056	e8 00 00 00 00	 call	 _rand
  0005b	99		 cdq
  0005c	f7 3d 00 00 00
	00		 idiv	 DWORD PTR ?ms_iWavingPower@CGraphicBase@@1HA ; CGraphicBase::ms_iWavingPower
  00062	f3 0f 2a c2	 cvtsi2ss xmm0, edx
  00066	f3 0f 5e 05 00
	00 00 00	 divss	 xmm0, DWORD PTR __real@41200000
  0006e	f3 0f 58 45 0c	 addss	 xmm0, DWORD PTR _fy$[ebp]
  00073	f3 0f 11 45 0c	 movss	 DWORD PTR _fy$[ebp], xmm0

; 269  : 			fz += float(rand() % ms_iWavingPower) / 10.0f;

  00078	e8 00 00 00 00	 call	 _rand
  0007d	99		 cdq
  0007e	f7 3d 00 00 00
	00		 idiv	 DWORD PTR ?ms_iWavingPower@CGraphicBase@@1HA ; CGraphicBase::ms_iWavingPower
  00084	f3 0f 2a c2	 cvtsi2ss xmm0, edx
  00088	f3 0f 5e 05 00
	00 00 00	 divss	 xmm0, DWORD PTR __real@41200000
  00090	f3 0f 58 45 10	 addss	 xmm0, DWORD PTR _fz$[ebp]
  00095	f3 0f 11 45 10	 movss	 DWORD PTR _fz$[ebp], xmm0
$LN3@SetPositio:
; File D:\Metin2 Server Files\mainline\SRC_2014\Metin2Client\eterBase\Singleton.h

; 27   : 		return (*ms_singleton);

  0009a	a1 00 00 00 00	 mov	 eax, DWORD PTR ?ms_singleton@?$CSingleton@VCCameraManager@@@@0PAVCCameraManager@@A ; CSingleton<CCameraManager>::ms_singleton
  0009f	89 45 c0	 mov	 DWORD PTR $T1[ebp], eax
; File D:\Metin2 Server Files\mainline\SRC_2014\Metin2Client\EterLib\GrpBase.cpp

; 273  : 	CCamera * pCamera = CCameraManager::Instance().GetCurrentCamera();

  000a2	8b 4d c0	 mov	 ecx, DWORD PTR $T1[ebp]
  000a5	e8 00 00 00 00	 call	 ?GetCurrentCamera@CCameraManager@@QAEPAVCCamera@@XZ ; CCameraManager::GetCurrentCamera
  000aa	89 45 c8	 mov	 DWORD PTR _pCamera$[ebp], eax

; 274  : 	if (!pCamera)

  000ad	83 7d c8 00	 cmp	 DWORD PTR _pCamera$[ebp], 0
  000b1	75 05		 jne	 SHORT $LN4@SetPositio

; 275  : 		return;

  000b3	e9 1f 01 00 00	 jmp	 $LN1@SetPositio
$LN4@SetPositio:
; File D:\Metin2 Server Files\mainline\SRC_2014\M2Data\include\d3dx8math.inl

; 180  :     x = fx;

  000b8	0f 57 c0	 xorps	 xmm0, xmm0
  000bb	f3 0f 11 45 f0	 movss	 DWORD PTR $T6[ebp], xmm0

; 181  :     y = fy;

  000c0	0f 57 c0	 xorps	 xmm0, xmm0
  000c3	f3 0f 11 45 f4	 movss	 DWORD PTR $T6[ebp+4], xmm0

; 182  :     z = fz;

  000c8	f3 0f 10 05 00
	00 00 00	 movss	 xmm0, DWORD PTR __real@3f800000
  000d0	f3 0f 11 45 f8	 movss	 DWORD PTR $T6[ebp+8], xmm0

; 180  :     x = fx;

  000d5	0f 57 c0	 xorps	 xmm0, xmm0
  000d8	f3 0f 11 45 e4	 movss	 DWORD PTR $T5[ebp], xmm0

; 181  :     y = fy;

  000dd	0f 57 c0	 xorps	 xmm0, xmm0
  000e0	f3 0f 11 45 e8	 movss	 DWORD PTR $T5[ebp+4], xmm0

; 182  :     z = fz;

  000e5	0f 57 c0	 xorps	 xmm0, xmm0
  000e8	f3 0f 11 45 ec	 movss	 DWORD PTR $T5[ebp+8], xmm0

; 180  :     x = fx;

  000ed	0f 57 c0	 xorps	 xmm0, xmm0
  000f0	f3 0f 11 45 d8	 movss	 DWORD PTR $T4[ebp], xmm0
; File D:\Metin2 Server Files\mainline\SRC_2014\Metin2Client\EterLib\GrpBase.cpp

; 277  : 	pCamera->SetViewParams(D3DXVECTOR3(0.0f, -distance, 0.0f), D3DXVECTOR3(0.0f, 0.0f, 0.0f), D3DXVECTOR3(0.0f, 0.0f, 1.0f));

  000f5	f3 0f 10 45 14	 movss	 xmm0, DWORD PTR _distance$[ebp]
  000fa	0f 57 05 00 00
	00 00		 xorps	 xmm0, DWORD PTR __xmm@80000000800000008000000080000000
; File D:\Metin2 Server Files\mainline\SRC_2014\M2Data\include\d3dx8math.inl

; 181  :     y = fy;

  00101	f3 0f 11 45 dc	 movss	 DWORD PTR $T4[ebp+4], xmm0

; 182  :     z = fz;

  00106	0f 57 c0	 xorps	 xmm0, xmm0
  00109	f3 0f 11 45 e0	 movss	 DWORD PTR $T4[ebp+8], xmm0
; File D:\Metin2 Server Files\mainline\SRC_2014\Metin2Client\EterLib\GrpBase.cpp

; 277  : 	pCamera->SetViewParams(D3DXVECTOR3(0.0f, -distance, 0.0f), D3DXVECTOR3(0.0f, 0.0f, 0.0f), D3DXVECTOR3(0.0f, 0.0f, 1.0f));

  0010e	8d 45 f0	 lea	 eax, DWORD PTR $T6[ebp]
  00111	50		 push	 eax
  00112	8d 45 e4	 lea	 eax, DWORD PTR $T5[ebp]
  00115	50		 push	 eax
  00116	8d 45 d8	 lea	 eax, DWORD PTR $T4[ebp]
  00119	50		 push	 eax
  0011a	8b 4d c8	 mov	 ecx, DWORD PTR _pCamera$[ebp]
  0011d	e8 00 00 00 00	 call	 ?SetViewParams@CCamera@@QAEXABUD3DXVECTOR3@@00@Z ; CCamera::SetViewParams

; 278  : 	pitch = fMIN(80.0f, fMAX(-80.0f, pitch) );

  00122	51		 push	 ecx
  00123	f3 0f 10 45 18	 movss	 xmm0, DWORD PTR _pitch$[ebp]
  00128	f3 0f 11 04 24	 movss	 DWORD PTR [esp], xmm0
  0012d	51		 push	 ecx
  0012e	f3 0f 10 05 00
	00 00 00	 movss	 xmm0, DWORD PTR __real@c2a00000
  00136	f3 0f 11 04 24	 movss	 DWORD PTR [esp], xmm0
  0013b	e8 00 00 00 00	 call	 ?fMAX@@YAMMM@Z		; fMAX
  00140	59		 pop	 ecx
  00141	59		 pop	 ecx
  00142	51		 push	 ecx
  00143	d9 1c 24	 fstp	 DWORD PTR [esp]
  00146	51		 push	 ecx
  00147	f3 0f 10 05 00
	00 00 00	 movss	 xmm0, DWORD PTR __real@42a00000
  0014f	f3 0f 11 04 24	 movss	 DWORD PTR [esp], xmm0
  00154	e8 00 00 00 00	 call	 ?fMIN@@YAMMM@Z		; fMIN
  00159	59		 pop	 ecx
  0015a	59		 pop	 ecx
  0015b	d9 5d 18	 fstp	 DWORD PTR _pitch$[ebp]

; 279  : //	Tracef("SetPosition Camera : %f, %f\n", pitch, roll);
; 280  : 	pCamera->RotateEyeAroundTarget(pitch, roll);

  0015e	51		 push	 ecx
  0015f	f3 0f 10 45 1c	 movss	 xmm0, DWORD PTR _roll$[ebp]
  00164	f3 0f 11 04 24	 movss	 DWORD PTR [esp], xmm0
  00169	51		 push	 ecx
  0016a	f3 0f 10 45 18	 movss	 xmm0, DWORD PTR _pitch$[ebp]
  0016f	f3 0f 11 04 24	 movss	 DWORD PTR [esp], xmm0
  00174	8b 4d c8	 mov	 ecx, DWORD PTR _pCamera$[ebp]
  00177	e8 00 00 00 00	 call	 ?RotateEyeAroundTarget@CCamera@@QAEXMM@Z ; CCamera::RotateEyeAroundTarget
; File D:\Metin2 Server Files\mainline\SRC_2014\M2Data\include\d3dx8math.inl

; 180  :     x = fx;

  0017c	f3 0f 10 45 08	 movss	 xmm0, DWORD PTR _fx$[ebp]
  00181	f3 0f 11 45 cc	 movss	 DWORD PTR $T3[ebp], xmm0

; 181  :     y = fy;

  00186	f3 0f 10 45 0c	 movss	 xmm0, DWORD PTR _fy$[ebp]
  0018b	f3 0f 11 45 d0	 movss	 DWORD PTR $T3[ebp+4], xmm0

; 182  :     z = fz;

  00190	f3 0f 10 45 10	 movss	 xmm0, DWORD PTR _fz$[ebp]
  00195	f3 0f 11 45 d4	 movss	 DWORD PTR $T3[ebp+8], xmm0
; File D:\Metin2 Server Files\mainline\SRC_2014\Metin2Client\EterLib\GrpBase.cpp

; 281  : 	pCamera->Move(D3DXVECTOR3(fx, fy, fz));

  0019a	8d 45 cc	 lea	 eax, DWORD PTR $T3[ebp]
  0019d	50		 push	 eax
  0019e	8b 4d c8	 mov	 ecx, DWORD PTR _pCamera$[ebp]
  001a1	e8 00 00 00 00	 call	 ?Move@CCamera@@QAEXABUD3DXVECTOR3@@@Z ; CCamera::Move

; 282  : 
; 283  : 	UpdateViewMatrix();

  001a6	8b 4d bc	 mov	 ecx, DWORD PTR _this$[ebp]
  001a9	e8 00 00 00 00	 call	 ?UpdateViewMatrix@CGraphicBase@@QAEXXZ ; CGraphicBase::UpdateViewMatrix

; 284  : 
; 285  : 	// This is levites's virtual(?) code which you should not trust.
; 286  : 	STATEMANAGER.GetTransform(D3DTS_WORLD, &ms_matWorld);

  001ae	68 00 00 00 00	 push	 OFFSET ?ms_matWorld@CGraphicBase@@1UD3DXMATRIX@@A ; CGraphicBase::ms_matWorld
  001b3	68 00 01 00 00	 push	 256			; 00000100H
  001b8	8b 0d 00 00 00
	00		 mov	 ecx, DWORD PTR ?ms_singleton@?$CSingleton@VCStateManager@@@@0PAVCStateManager@@A ; CSingleton<CStateManager>::ms_singleton
  001be	e8 00 00 00 00	 call	 ?GetTransform@CStateManager@@QAEXW4_D3DTRANSFORMSTATETYPE@@PAU_D3DMATRIX@@@Z ; CStateManager::GetTransform

; 287  : 	D3DXMatrixMultiply(&ms_matWorldView, &ms_matWorld, &ms_matView);

  001c3	68 00 00 00 00	 push	 OFFSET ?ms_matView@CGraphicBase@@1UD3DXMATRIX@@A ; CGraphicBase::ms_matView
  001c8	68 00 00 00 00	 push	 OFFSET ?ms_matWorld@CGraphicBase@@1UD3DXMATRIX@@A ; CGraphicBase::ms_matWorld
  001cd	68 00 00 00 00	 push	 OFFSET ?ms_matWorldView@CGraphicBase@@1UD3DXMATRIX@@A ; CGraphicBase::ms_matWorldView
  001d2	e8 00 00 00 00	 call	 _D3DXMatrixMultiply@12
$LN1@SetPositio:

; 288  : }

  001d7	8b 4d fc	 mov	 ecx, DWORD PTR __$ArrayPad$[ebp]
  001da	33 cd		 xor	 ecx, ebp
  001dc	e8 00 00 00 00	 call	 @__security_check_cookie@4
  001e1	c9		 leave
  001e2	c2 18 00	 ret	 24			; 00000018H
?SetPositionCamera@CGraphicBase@@QAEXMMMMMM@Z ENDP	; CGraphicBase::SetPositionCamera
_TEXT	ENDS
; Function compile flags: /Odspy
; File D:\Metin2 Server Files\mainline\SRC_2014\Metin2Client\EterLib\GrpBase.cpp
; File D:\Metin2 Server Files\mainline\SRC_2014\Metin2Client\eterBase\Singleton.h
; File D:\Metin2 Server Files\mainline\SRC_2014\Metin2Client\EterLib\GrpBase.cpp
; File D:\Metin2 Server Files\mainline\SRC_2014\M2Data\include\d3dx8math.inl
; File D:\Metin2 Server Files\mainline\SRC_2014\Metin2Client\EterLib\GrpBase.cpp
; File D:\Metin2 Server Files\mainline\SRC_2014\M2Data\include\d3dx8math.inl
; File D:\Metin2 Server Files\mainline\SRC_2014\Metin2Client\EterLib\GrpBase.cpp
; File D:\Metin2 Server Files\mainline\SRC_2014\Metin2Client\EterLib\Camera.h
; File D:\Metin2 Server Files\mainline\SRC_2014\Metin2Client\EterLib\GrpBase.cpp
;	COMDAT ?SetAroundCamera@CGraphicBase@@QAEXMMMM@Z
_TEXT	SEGMENT
_this$ = -64						; size = 4
$T1 = -60						; size = 4
_pCamera$ = -56						; size = 4
_v3Target$ = -52					; size = 12
$T2 = -40						; size = 12
$T3 = -28						; size = 12
$T4 = -16						; size = 12
__$ArrayPad$ = -4					; size = 4
_distance$ = 8						; size = 4
_pitch$ = 12						; size = 4
_roll$ = 16						; size = 4
_lookAtZ$ = 20						; size = 4
?SetAroundCamera@CGraphicBase@@QAEXMMMM@Z PROC		; CGraphicBase::SetAroundCamera, COMDAT
; _this$ = ecx

; 244  : {

  00000	55		 push	 ebp
  00001	8b ec		 mov	 ebp, esp
  00003	83 ec 40	 sub	 esp, 64			; 00000040H
  00006	a1 00 00 00 00	 mov	 eax, DWORD PTR ___security_cookie
  0000b	33 c5		 xor	 eax, ebp
  0000d	89 45 fc	 mov	 DWORD PTR __$ArrayPad$[ebp], eax
  00010	56		 push	 esi
  00011	57		 push	 edi
  00012	89 4d c0	 mov	 DWORD PTR _this$[ebp], ecx
; File D:\Metin2 Server Files\mainline\SRC_2014\Metin2Client\eterBase\Singleton.h

; 27   : 		return (*ms_singleton);

  00015	a1 00 00 00 00	 mov	 eax, DWORD PTR ?ms_singleton@?$CSingleton@VCCameraManager@@@@0PAVCCameraManager@@A ; CSingleton<CCameraManager>::ms_singleton
  0001a	89 45 c4	 mov	 DWORD PTR $T1[ebp], eax
; File D:\Metin2 Server Files\mainline\SRC_2014\Metin2Client\EterLib\GrpBase.cpp

; 245  : 	CCamera * pCamera = CCameraManager::Instance().GetCurrentCamera();

  0001d	8b 4d c4	 mov	 ecx, DWORD PTR $T1[ebp]
  00020	e8 00 00 00 00	 call	 ?GetCurrentCamera@CCameraManager@@QAEPAVCCamera@@XZ ; CCameraManager::GetCurrentCamera
  00025	89 45 c8	 mov	 DWORD PTR _pCamera$[ebp], eax
; File D:\Metin2 Server Files\mainline\SRC_2014\M2Data\include\d3dx8math.inl

; 180  :     x = fx;

  00028	0f 57 c0	 xorps	 xmm0, xmm0
  0002b	f3 0f 11 45 f0	 movss	 DWORD PTR $T4[ebp], xmm0

; 181  :     y = fy;

  00030	0f 57 c0	 xorps	 xmm0, xmm0
  00033	f3 0f 11 45 f4	 movss	 DWORD PTR $T4[ebp+4], xmm0

; 182  :     z = fz;

  00038	f3 0f 10 05 00
	00 00 00	 movss	 xmm0, DWORD PTR __real@3f800000
  00040	f3 0f 11 45 f8	 movss	 DWORD PTR $T4[ebp+8], xmm0

; 180  :     x = fx;

  00045	0f 57 c0	 xorps	 xmm0, xmm0
  00048	f3 0f 11 45 e4	 movss	 DWORD PTR $T3[ebp], xmm0

; 181  :     y = fy;

  0004d	0f 57 c0	 xorps	 xmm0, xmm0
  00050	f3 0f 11 45 e8	 movss	 DWORD PTR $T3[ebp+4], xmm0

; 182  :     z = fz;

  00055	0f 57 c0	 xorps	 xmm0, xmm0
  00058	f3 0f 11 45 ec	 movss	 DWORD PTR $T3[ebp+8], xmm0

; 180  :     x = fx;

  0005d	0f 57 c0	 xorps	 xmm0, xmm0
  00060	f3 0f 11 45 d8	 movss	 DWORD PTR $T2[ebp], xmm0
; File D:\Metin2 Server Files\mainline\SRC_2014\Metin2Client\EterLib\GrpBase.cpp

; 246  : 	pCamera->SetViewParams(D3DXVECTOR3(0.0f, -distance, 0.0f), D3DXVECTOR3(0.0f, 0.0f, 0.0f), D3DXVECTOR3(0.0f, 0.0f, 1.0f));

  00065	f3 0f 10 45 08	 movss	 xmm0, DWORD PTR _distance$[ebp]
  0006a	0f 57 05 00 00
	00 00		 xorps	 xmm0, DWORD PTR __xmm@80000000800000008000000080000000
; File D:\Metin2 Server Files\mainline\SRC_2014\M2Data\include\d3dx8math.inl

; 181  :     y = fy;

  00071	f3 0f 11 45 dc	 movss	 DWORD PTR $T2[ebp+4], xmm0

; 182  :     z = fz;

  00076	0f 57 c0	 xorps	 xmm0, xmm0
  00079	f3 0f 11 45 e0	 movss	 DWORD PTR $T2[ebp+8], xmm0
; File D:\Metin2 Server Files\mainline\SRC_2014\Metin2Client\EterLib\GrpBase.cpp

; 246  : 	pCamera->SetViewParams(D3DXVECTOR3(0.0f, -distance, 0.0f), D3DXVECTOR3(0.0f, 0.0f, 0.0f), D3DXVECTOR3(0.0f, 0.0f, 1.0f));

  0007e	8d 45 f0	 lea	 eax, DWORD PTR $T4[ebp]
  00081	50		 push	 eax
  00082	8d 45 e4	 lea	 eax, DWORD PTR $T3[ebp]
  00085	50		 push	 eax
  00086	8d 45 d8	 lea	 eax, DWORD PTR $T2[ebp]
  00089	50		 push	 eax
  0008a	8b 4d c8	 mov	 ecx, DWORD PTR _pCamera$[ebp]
  0008d	e8 00 00 00 00	 call	 ?SetViewParams@CCamera@@QAEXABUD3DXVECTOR3@@00@Z ; CCamera::SetViewParams

; 247  : 	pCamera->RotateEyeAroundTarget(pitch, roll);

  00092	51		 push	 ecx
  00093	f3 0f 10 45 10	 movss	 xmm0, DWORD PTR _roll$[ebp]
  00098	f3 0f 11 04 24	 movss	 DWORD PTR [esp], xmm0
  0009d	51		 push	 ecx
  0009e	f3 0f 10 45 0c	 movss	 xmm0, DWORD PTR _pitch$[ebp]
  000a3	f3 0f 11 04 24	 movss	 DWORD PTR [esp], xmm0
  000a8	8b 4d c8	 mov	 ecx, DWORD PTR _pCamera$[ebp]
  000ab	e8 00 00 00 00	 call	 ?RotateEyeAroundTarget@CCamera@@QAEXMM@Z ; CCamera::RotateEyeAroundTarget
; File D:\Metin2 Server Files\mainline\SRC_2014\Metin2Client\EterLib\Camera.h

; 169  : 		const D3DXVECTOR3 & GetTarget() const	{ return m_v3Target; }

  000b0	8b 75 c8	 mov	 esi, DWORD PTR _pCamera$[ebp]
  000b3	83 c6 3c	 add	 esi, 60			; 0000003cH
; File D:\Metin2 Server Files\mainline\SRC_2014\Metin2Client\EterLib\GrpBase.cpp

; 248  : 	D3DXVECTOR3 v3Target = pCamera->GetTarget();

  000b6	8d 7d cc	 lea	 edi, DWORD PTR _v3Target$[ebp]
  000b9	a5		 movsd
  000ba	a5		 movsd
  000bb	a5		 movsd

; 249  : 	v3Target.z = lookAtZ;

  000bc	f3 0f 10 45 14	 movss	 xmm0, DWORD PTR _lookAtZ$[ebp]
  000c1	f3 0f 11 45 d4	 movss	 DWORD PTR _v3Target$[ebp+8], xmm0

; 250  : 	pCamera->SetTarget(v3Target);

  000c6	8d 45 cc	 lea	 eax, DWORD PTR _v3Target$[ebp]
  000c9	50		 push	 eax
  000ca	8b 4d c8	 mov	 ecx, DWORD PTR _pCamera$[ebp]
  000cd	e8 00 00 00 00	 call	 ?SetTarget@CCamera@@QAEXABUD3DXVECTOR3@@@Z ; CCamera::SetTarget

; 251  : // 	pCamera->Move(v3Target);
; 252  : 
; 253  : 	UpdateViewMatrix();

  000d2	8b 4d c0	 mov	 ecx, DWORD PTR _this$[ebp]
  000d5	e8 00 00 00 00	 call	 ?UpdateViewMatrix@CGraphicBase@@QAEXXZ ; CGraphicBase::UpdateViewMatrix

; 254  : 
; 255  : 	// This is levites's virtual(?) code which you should not trust.
; 256  : 	ms_lpd3dDevice->GetTransform(D3DTS_WORLD, &ms_matWorld);

  000da	68 00 00 00 00	 push	 OFFSET ?ms_matWorld@CGraphicBase@@1UD3DXMATRIX@@A ; CGraphicBase::ms_matWorld
  000df	68 00 01 00 00	 push	 256			; 00000100H
  000e4	a1 00 00 00 00	 mov	 eax, DWORD PTR ?ms_lpd3dDevice@CGraphicBase@@1PAUIDirect3DDevice8@@A ; CGraphicBase::ms_lpd3dDevice
  000e9	8b 00		 mov	 eax, DWORD PTR [eax]
  000eb	ff 35 00 00 00
	00		 push	 DWORD PTR ?ms_lpd3dDevice@CGraphicBase@@1PAUIDirect3DDevice8@@A ; CGraphicBase::ms_lpd3dDevice
  000f1	ff 90 98 00 00
	00		 call	 DWORD PTR [eax+152]

; 257  : 	D3DXMatrixMultiply(&ms_matWorldView, &ms_matWorld, &ms_matView);

  000f7	68 00 00 00 00	 push	 OFFSET ?ms_matView@CGraphicBase@@1UD3DXMATRIX@@A ; CGraphicBase::ms_matView
  000fc	68 00 00 00 00	 push	 OFFSET ?ms_matWorld@CGraphicBase@@1UD3DXMATRIX@@A ; CGraphicBase::ms_matWorld
  00101	68 00 00 00 00	 push	 OFFSET ?ms_matWorldView@CGraphicBase@@1UD3DXMATRIX@@A ; CGraphicBase::ms_matWorldView
  00106	e8 00 00 00 00	 call	 _D3DXMatrixMultiply@12

; 258  : }

  0010b	5f		 pop	 edi
  0010c	5e		 pop	 esi
  0010d	8b 4d fc	 mov	 ecx, DWORD PTR __$ArrayPad$[ebp]
  00110	33 cd		 xor	 ecx, ebp
  00112	e8 00 00 00 00	 call	 @__security_check_cookie@4
  00117	c9		 leave
  00118	c2 10 00	 ret	 16			; 00000010H
?SetAroundCamera@CGraphicBase@@QAEXMMMM@Z ENDP		; CGraphicBase::SetAroundCamera
_TEXT	ENDS
; Function compile flags: /Odspy
; File D:\Metin2 Server Files\mainline\SRC_2014\Metin2Client\EterLib\GrpBase.cpp
; File D:\Metin2 Server Files\mainline\SRC_2014\M2Data\include\d3dx8math.inl
; File D:\Metin2 Server Files\mainline\SRC_2014\Metin2Client\eterBase\Singleton.h
; File D:\Metin2 Server Files\mainline\SRC_2014\Metin2Client\EterLib\GrpBase.cpp
;	COMDAT ?SetEyeCamera@CGraphicBase@@QAEXMMMMMMMMM@Z
_TEXT	SEGMENT
_this$ = -48						; size = 4
$T1 = -44						; size = 4
_vectorEye$ = -40					; size = 12
_vectorCenter$ = -28					; size = 12
_vectorUp$ = -16					; size = 12
__$ArrayPad$ = -4					; size = 4
_xEye$ = 8						; size = 4
_yEye$ = 12						; size = 4
_zEye$ = 16						; size = 4
_xCenter$ = 20						; size = 4
_yCenter$ = 24						; size = 4
_zCenter$ = 28						; size = 4
_xUp$ = 32						; size = 4
_yUp$ = 36						; size = 4
_zUp$ = 40						; size = 4
?SetEyeCamera@CGraphicBase@@QAEXMMMMMMMMM@Z PROC	; CGraphicBase::SetEyeCamera, COMDAT
; _this$ = ecx

; 217  : {

  00000	55		 push	 ebp
  00001	8b ec		 mov	 ebp, esp
  00003	83 ec 30	 sub	 esp, 48			; 00000030H
  00006	a1 00 00 00 00	 mov	 eax, DWORD PTR ___security_cookie
  0000b	33 c5		 xor	 eax, ebp
  0000d	89 45 fc	 mov	 DWORD PTR __$ArrayPad$[ebp], eax
  00010	89 4d d0	 mov	 DWORD PTR _this$[ebp], ecx
; File D:\Metin2 Server Files\mainline\SRC_2014\M2Data\include\d3dx8math.inl

; 180  :     x = fx;

  00013	f3 0f 10 45 08	 movss	 xmm0, DWORD PTR _xEye$[ebp]
  00018	f3 0f 11 45 d8	 movss	 DWORD PTR _vectorEye$[ebp], xmm0

; 181  :     y = fy;

  0001d	f3 0f 10 45 0c	 movss	 xmm0, DWORD PTR _yEye$[ebp]
  00022	f3 0f 11 45 dc	 movss	 DWORD PTR _vectorEye$[ebp+4], xmm0

; 182  :     z = fz;

  00027	f3 0f 10 45 10	 movss	 xmm0, DWORD PTR _zEye$[ebp]
  0002c	f3 0f 11 45 e0	 movss	 DWORD PTR _vectorEye$[ebp+8], xmm0

; 180  :     x = fx;

  00031	f3 0f 10 45 14	 movss	 xmm0, DWORD PTR _xCenter$[ebp]
  00036	f3 0f 11 45 e4	 movss	 DWORD PTR _vectorCenter$[ebp], xmm0

; 181  :     y = fy;

  0003b	f3 0f 10 45 18	 movss	 xmm0, DWORD PTR _yCenter$[ebp]
  00040	f3 0f 11 45 e8	 movss	 DWORD PTR _vectorCenter$[ebp+4], xmm0

; 182  :     z = fz;

  00045	f3 0f 10 45 1c	 movss	 xmm0, DWORD PTR _zCenter$[ebp]
  0004a	f3 0f 11 45 ec	 movss	 DWORD PTR _vectorCenter$[ebp+8], xmm0

; 180  :     x = fx;

  0004f	f3 0f 10 45 20	 movss	 xmm0, DWORD PTR _xUp$[ebp]
  00054	f3 0f 11 45 f0	 movss	 DWORD PTR _vectorUp$[ebp], xmm0

; 181  :     y = fy;

  00059	f3 0f 10 45 24	 movss	 xmm0, DWORD PTR _yUp$[ebp]
  0005e	f3 0f 11 45 f4	 movss	 DWORD PTR _vectorUp$[ebp+4], xmm0

; 182  :     z = fz;

  00063	f3 0f 10 45 28	 movss	 xmm0, DWORD PTR _zUp$[ebp]
  00068	f3 0f 11 45 f8	 movss	 DWORD PTR _vectorUp$[ebp+8], xmm0
; File D:\Metin2 Server Files\mainline\SRC_2014\Metin2Client\eterBase\Singleton.h

; 27   : 		return (*ms_singleton);

  0006d	a1 00 00 00 00	 mov	 eax, DWORD PTR ?ms_singleton@?$CSingleton@VCCameraManager@@@@0PAVCCameraManager@@A ; CSingleton<CCameraManager>::ms_singleton
  00072	89 45 d4	 mov	 DWORD PTR $T1[ebp], eax
; File D:\Metin2 Server Files\mainline\SRC_2014\Metin2Client\EterLib\GrpBase.cpp

; 223  : 	CCameraManager::Instance().GetCurrentCamera()->SetViewParams(vectorEye, vectorCenter, vectorUp);

  00075	8d 45 f0	 lea	 eax, DWORD PTR _vectorUp$[ebp]
  00078	50		 push	 eax
  00079	8d 45 e4	 lea	 eax, DWORD PTR _vectorCenter$[ebp]
  0007c	50		 push	 eax
  0007d	8d 45 d8	 lea	 eax, DWORD PTR _vectorEye$[ebp]
  00080	50		 push	 eax
  00081	8b 4d d4	 mov	 ecx, DWORD PTR $T1[ebp]
  00084	e8 00 00 00 00	 call	 ?GetCurrentCamera@CCameraManager@@QAEPAVCCamera@@XZ ; CCameraManager::GetCurrentCamera
  00089	8b c8		 mov	 ecx, eax
  0008b	e8 00 00 00 00	 call	 ?SetViewParams@CCamera@@QAEXABUD3DXVECTOR3@@00@Z ; CCamera::SetViewParams

; 224  : 	UpdateViewMatrix();

  00090	8b 4d d0	 mov	 ecx, DWORD PTR _this$[ebp]
  00093	e8 00 00 00 00	 call	 ?UpdateViewMatrix@CGraphicBase@@QAEXXZ ; CGraphicBase::UpdateViewMatrix

; 225  : }

  00098	8b 4d fc	 mov	 ecx, DWORD PTR __$ArrayPad$[ebp]
  0009b	33 cd		 xor	 ecx, ebp
  0009d	e8 00 00 00 00	 call	 @__security_check_cookie@4
  000a2	c9		 leave
  000a3	c2 24 00	 ret	 36			; 00000024H
?SetEyeCamera@CGraphicBase@@QAEXMMMMMMMMM@Z ENDP	; CGraphicBase::SetEyeCamera
_TEXT	ENDS
; Function compile flags: /Odspy
; File D:\Metin2 Server Files\mainline\SRC_2014\Metin2Client\EterLib\GrpBase.cpp
; File D:\Metin2 Server Files\mainline\SRC_2014\Metin2Client\eterBase\Singleton.h
; File D:\Metin2 Server Files\mainline\SRC_2014\Metin2Client\EterLib\GrpBase.cpp
; File D:\Metin2 Server Files\mainline\SRC_2014\M2Data\include\d3dx8math.inl
; File D:\Metin2 Server Files\mainline\SRC_2014\Metin2Client\EterLib\GrpBase.cpp
;	COMDAT ?SetSimpleCamera@CGraphicBase@@QAEXMMMMM@Z
_TEXT	SEGMENT
_this$ = -64						; size = 4
$T1 = -60						; size = 4
_pCamera$ = -56						; size = 4
_vectorEye$ = -52					; size = 12
$T2 = -40						; size = 12
$T3 = -28						; size = 12
$T4 = -16						; size = 12
__$ArrayPad$ = -4					; size = 4
_x$ = 8							; size = 4
_y$ = 12						; size = 4
_z$ = 16						; size = 4
_pitch$ = 20						; size = 4
_roll$ = 24						; size = 4
?SetSimpleCamera@CGraphicBase@@QAEXMMMMM@Z PROC		; CGraphicBase::SetSimpleCamera, COMDAT
; _this$ = ecx

; 228  : {

  00000	55		 push	 ebp
  00001	8b ec		 mov	 ebp, esp
  00003	83 ec 40	 sub	 esp, 64			; 00000040H
  00006	a1 00 00 00 00	 mov	 eax, DWORD PTR ___security_cookie
  0000b	33 c5		 xor	 eax, ebp
  0000d	89 45 fc	 mov	 DWORD PTR __$ArrayPad$[ebp], eax
  00010	89 4d c0	 mov	 DWORD PTR _this$[ebp], ecx
; File D:\Metin2 Server Files\mainline\SRC_2014\Metin2Client\eterBase\Singleton.h

; 27   : 		return (*ms_singleton);

  00013	a1 00 00 00 00	 mov	 eax, DWORD PTR ?ms_singleton@?$CSingleton@VCCameraManager@@@@0PAVCCameraManager@@A ; CSingleton<CCameraManager>::ms_singleton
  00018	89 45 c4	 mov	 DWORD PTR $T1[ebp], eax
; File D:\Metin2 Server Files\mainline\SRC_2014\Metin2Client\EterLib\GrpBase.cpp

; 229  : 	CCamera * pCamera = CCameraManager::Instance().GetCurrentCamera();

  0001b	8b 4d c4	 mov	 ecx, DWORD PTR $T1[ebp]
  0001e	e8 00 00 00 00	 call	 ?GetCurrentCamera@CCameraManager@@QAEPAVCCamera@@XZ ; CCameraManager::GetCurrentCamera
  00023	89 45 c8	 mov	 DWORD PTR _pCamera$[ebp], eax
; File D:\Metin2 Server Files\mainline\SRC_2014\M2Data\include\d3dx8math.inl

; 180  :     x = fx;

  00026	f3 0f 10 45 08	 movss	 xmm0, DWORD PTR _x$[ebp]
  0002b	f3 0f 11 45 cc	 movss	 DWORD PTR _vectorEye$[ebp], xmm0

; 181  :     y = fy;

  00030	f3 0f 10 45 0c	 movss	 xmm0, DWORD PTR _y$[ebp]
  00035	f3 0f 11 45 d0	 movss	 DWORD PTR _vectorEye$[ebp+4], xmm0

; 182  :     z = fz;

  0003a	f3 0f 10 45 10	 movss	 xmm0, DWORD PTR _z$[ebp]
  0003f	f3 0f 11 45 d4	 movss	 DWORD PTR _vectorEye$[ebp+8], xmm0

; 180  :     x = fx;

  00044	0f 57 c0	 xorps	 xmm0, xmm0
  00047	f3 0f 11 45 f0	 movss	 DWORD PTR $T4[ebp], xmm0

; 181  :     y = fy;

  0004c	0f 57 c0	 xorps	 xmm0, xmm0
  0004f	f3 0f 11 45 f4	 movss	 DWORD PTR $T4[ebp+4], xmm0

; 182  :     z = fz;

  00054	f3 0f 10 05 00
	00 00 00	 movss	 xmm0, DWORD PTR __real@3f800000
  0005c	f3 0f 11 45 f8	 movss	 DWORD PTR $T4[ebp+8], xmm0

; 180  :     x = fx;

  00061	0f 57 c0	 xorps	 xmm0, xmm0
  00064	f3 0f 11 45 e4	 movss	 DWORD PTR $T3[ebp], xmm0

; 181  :     y = fy;

  00069	0f 57 c0	 xorps	 xmm0, xmm0
  0006c	f3 0f 11 45 e8	 movss	 DWORD PTR $T3[ebp+4], xmm0

; 182  :     z = fz;

  00071	0f 57 c0	 xorps	 xmm0, xmm0
  00074	f3 0f 11 45 ec	 movss	 DWORD PTR $T3[ebp+8], xmm0

; 180  :     x = fx;

  00079	0f 57 c0	 xorps	 xmm0, xmm0
  0007c	f3 0f 11 45 d8	 movss	 DWORD PTR $T2[ebp], xmm0

; 181  :     y = fy;

  00081	f3 0f 10 45 0c	 movss	 xmm0, DWORD PTR _y$[ebp]
  00086	f3 0f 11 45 dc	 movss	 DWORD PTR $T2[ebp+4], xmm0

; 182  :     z = fz;

  0008b	0f 57 c0	 xorps	 xmm0, xmm0
  0008e	f3 0f 11 45 e0	 movss	 DWORD PTR $T2[ebp+8], xmm0
; File D:\Metin2 Server Files\mainline\SRC_2014\Metin2Client\EterLib\GrpBase.cpp

; 232  : 	pCamera->SetViewParams(D3DXVECTOR3(0.0f, y, 0.0f), D3DXVECTOR3(0.0f, 0.0f, 0.0f), D3DXVECTOR3(0.0f, 0.0f, 1.0f));

  00093	8d 45 f0	 lea	 eax, DWORD PTR $T4[ebp]
  00096	50		 push	 eax
  00097	8d 45 e4	 lea	 eax, DWORD PTR $T3[ebp]
  0009a	50		 push	 eax
  0009b	8d 45 d8	 lea	 eax, DWORD PTR $T2[ebp]
  0009e	50		 push	 eax
  0009f	8b 4d c8	 mov	 ecx, DWORD PTR _pCamera$[ebp]
  000a2	e8 00 00 00 00	 call	 ?SetViewParams@CCamera@@QAEXABUD3DXVECTOR3@@00@Z ; CCamera::SetViewParams

; 233  : 	pCamera->RotateEyeAroundTarget(pitch, roll);

  000a7	51		 push	 ecx
  000a8	f3 0f 10 45 18	 movss	 xmm0, DWORD PTR _roll$[ebp]
  000ad	f3 0f 11 04 24	 movss	 DWORD PTR [esp], xmm0
  000b2	51		 push	 ecx
  000b3	f3 0f 10 45 14	 movss	 xmm0, DWORD PTR _pitch$[ebp]
  000b8	f3 0f 11 04 24	 movss	 DWORD PTR [esp], xmm0
  000bd	8b 4d c8	 mov	 ecx, DWORD PTR _pCamera$[ebp]
  000c0	e8 00 00 00 00	 call	 ?RotateEyeAroundTarget@CCamera@@QAEXMM@Z ; CCamera::RotateEyeAroundTarget

; 234  : 	pCamera->Move(vectorEye);

  000c5	8d 45 cc	 lea	 eax, DWORD PTR _vectorEye$[ebp]
  000c8	50		 push	 eax
  000c9	8b 4d c8	 mov	 ecx, DWORD PTR _pCamera$[ebp]
  000cc	e8 00 00 00 00	 call	 ?Move@CCamera@@QAEXABUD3DXVECTOR3@@@Z ; CCamera::Move

; 235  : 
; 236  : 	UpdateViewMatrix();

  000d1	8b 4d c0	 mov	 ecx, DWORD PTR _this$[ebp]
  000d4	e8 00 00 00 00	 call	 ?UpdateViewMatrix@CGraphicBase@@QAEXXZ ; CGraphicBase::UpdateViewMatrix

; 237  : 
; 238  : 	// This is levites's virtual(?) code which you should not trust.
; 239  : 	ms_lpd3dDevice->GetTransform(D3DTS_WORLD, &ms_matWorld);

  000d9	68 00 00 00 00	 push	 OFFSET ?ms_matWorld@CGraphicBase@@1UD3DXMATRIX@@A ; CGraphicBase::ms_matWorld
  000de	68 00 01 00 00	 push	 256			; 00000100H
  000e3	a1 00 00 00 00	 mov	 eax, DWORD PTR ?ms_lpd3dDevice@CGraphicBase@@1PAUIDirect3DDevice8@@A ; CGraphicBase::ms_lpd3dDevice
  000e8	8b 00		 mov	 eax, DWORD PTR [eax]
  000ea	ff 35 00 00 00
	00		 push	 DWORD PTR ?ms_lpd3dDevice@CGraphicBase@@1PAUIDirect3DDevice8@@A ; CGraphicBase::ms_lpd3dDevice
  000f0	ff 90 98 00 00
	00		 call	 DWORD PTR [eax+152]

; 240  : 	D3DXMatrixMultiply(&ms_matWorldView, &ms_matWorld, &ms_matView);

  000f6	68 00 00 00 00	 push	 OFFSET ?ms_matView@CGraphicBase@@1UD3DXMATRIX@@A ; CGraphicBase::ms_matView
  000fb	68 00 00 00 00	 push	 OFFSET ?ms_matWorld@CGraphicBase@@1UD3DXMATRIX@@A ; CGraphicBase::ms_matWorld
  00100	68 00 00 00 00	 push	 OFFSET ?ms_matWorldView@CGraphicBase@@1UD3DXMATRIX@@A ; CGraphicBase::ms_matWorldView
  00105	e8 00 00 00 00	 call	 _D3DXMatrixMultiply@12

; 241  : }

  0010a	8b 4d fc	 mov	 ecx, DWORD PTR __$ArrayPad$[ebp]
  0010d	33 cd		 xor	 ecx, ebp
  0010f	e8 00 00 00 00	 call	 @__security_check_cookie@4
  00114	c9		 leave
  00115	c2 14 00	 ret	 20			; 00000014H
?SetSimpleCamera@CGraphicBase@@QAEXMMMMM@Z ENDP		; CGraphicBase::SetSimpleCamera
_TEXT	ENDS
; Function compile flags: /Odspy
; File D:\Metin2 Server Files\mainline\SRC_2014\Metin2Client\EterLib\GrpBase.cpp
;	COMDAT ??1CGraphicBase@@UAE@XZ
_TEXT	SEGMENT
_this$ = -4						; size = 4
??1CGraphicBase@@UAE@XZ PROC				; CGraphicBase::~CGraphicBase, COMDAT
; _this$ = ecx

; 511  : {

  00000	55		 push	 ebp
  00001	8b ec		 mov	 ebp, esp
  00003	51		 push	 ecx
  00004	89 4d fc	 mov	 DWORD PTR _this$[ebp], ecx
  00007	8b 45 fc	 mov	 eax, DWORD PTR _this$[ebp]
  0000a	c7 00 00 00 00
	00		 mov	 DWORD PTR [eax], OFFSET ??_7CGraphicBase@@6B@

; 512  : }

  00010	c9		 leave
  00011	c3		 ret	 0
??1CGraphicBase@@UAE@XZ ENDP				; CGraphicBase::~CGraphicBase
_TEXT	ENDS
; Function compile flags: /Odspy
; File D:\Metin2 Server Files\mainline\SRC_2014\Metin2Client\EterLib\GrpBase.cpp
;	COMDAT ??0CGraphicBase@@QAE@XZ
_TEXT	SEGMENT
_this$ = -4						; size = 4
??0CGraphicBase@@QAE@XZ PROC				; CGraphicBase::CGraphicBase, COMDAT
; _this$ = ecx

; 507  : {

  00000	55		 push	 ebp
  00001	8b ec		 mov	 ebp, esp
  00003	51		 push	 ecx
  00004	89 4d fc	 mov	 DWORD PTR _this$[ebp], ecx
  00007	8b 45 fc	 mov	 eax, DWORD PTR _this$[ebp]
  0000a	c7 00 00 00 00
	00		 mov	 DWORD PTR [eax], OFFSET ??_7CGraphicBase@@6B@

; 508  : }

  00010	8b 45 fc	 mov	 eax, DWORD PTR _this$[ebp]
  00013	c9		 leave
  00014	c3		 ret	 0
??0CGraphicBase@@QAE@XZ ENDP				; CGraphicBase::CGraphicBase
_TEXT	ENDS
; Function compile flags: /Odspy
; File D:\Metin2 Server Files\mainline\SRC_2014\Metin2Client\EterLib\GrpBase.cpp
;	COMDAT ?GetIdentityMatrix@CGraphicBase@@SAABUD3DXMATRIX@@XZ
_TEXT	SEGMENT
?GetIdentityMatrix@CGraphicBase@@SAABUD3DXMATRIX@@XZ PROC ; CGraphicBase::GetIdentityMatrix, COMDAT

; 210  : {

  00000	55		 push	 ebp
  00001	8b ec		 mov	 ebp, esp

; 211  : 	return ms_matIdentity;

  00003	b8 00 00 00 00	 mov	 eax, OFFSET ?ms_matIdentity@CGraphicBase@@1UD3DXMATRIX@@A ; CGraphicBase::ms_matIdentity

; 212  : }

  00008	5d		 pop	 ebp
  00009	c3		 ret	 0
?GetIdentityMatrix@CGraphicBase@@SAABUD3DXMATRIX@@XZ ENDP ; CGraphicBase::GetIdentityMatrix
_TEXT	ENDS
; Function compile flags: /Odspy
; File D:\Metin2 Server Files\mainline\SRC_2014\Metin2Client\EterLib\GrpBase.cpp
;	COMDAT ?GetViewMatrix@CGraphicBase@@SAABUD3DXMATRIX@@XZ
_TEXT	SEGMENT
?GetViewMatrix@CGraphicBase@@SAABUD3DXMATRIX@@XZ PROC	; CGraphicBase::GetViewMatrix, COMDAT

; 205  : {

  00000	55		 push	 ebp
  00001	8b ec		 mov	 ebp, esp

; 206  : 	return ms_matView;

  00003	b8 00 00 00 00	 mov	 eax, OFFSET ?ms_matView@CGraphicBase@@1UD3DXMATRIX@@A ; CGraphicBase::ms_matView

; 207  : }

  00008	5d		 pop	 ebp
  00009	c3		 ret	 0
?GetViewMatrix@CGraphicBase@@SAABUD3DXMATRIX@@XZ ENDP	; CGraphicBase::GetViewMatrix
_TEXT	ENDS
; Function compile flags: /Odspy
; File D:\Metin2 Server Files\mainline\SRC_2014\Metin2Client\EterLib\GrpBase.cpp
;	COMDAT ?GetAvailableTextureMemory@CGraphicBase@@SAKXZ
_TEXT	SEGMENT
_dwCurTime$ = -4					; size = 4
?GetAvailableTextureMemory@CGraphicBase@@SAKXZ PROC	; CGraphicBase::GetAvailableTextureMemory, COMDAT

; 188  : {

  00000	55		 push	 ebp
  00001	8b ec		 mov	 ebp, esp
  00003	51		 push	 ecx

; 189  : 	assert(ms_lpd3dDevice!=NULL && "CGraphicBase::GetAvailableTextureMemory - D3DDevice is EMPTY");
; 190  : 
; 191  : 	static DWORD s_dwNextUpdateTime=0;
; 192  : 	static DWORD s_dwTexMemSize=0;//ms_lpd3dDevice->GetAvailableTextureMem();
; 193  : 
; 194  : 	DWORD dwCurTime=ELTimer_GetMSec();

  00004	e8 00 00 00 00	 call	 ?ELTimer_GetMSec@@YAKXZ	; ELTimer_GetMSec
  00009	89 45 fc	 mov	 DWORD PTR _dwCurTime$[ebp], eax

; 195  : 	if (s_dwNextUpdateTime<dwCurTime)

  0000c	a1 00 00 00 00	 mov	 eax, DWORD PTR ?s_dwNextUpdateTime@?1??GetAvailableTextureMemory@CGraphicBase@@SAKXZ@4KA
  00011	3b 45 fc	 cmp	 eax, DWORD PTR _dwCurTime$[ebp]
  00014	73 22		 jae	 SHORT $LN2@GetAvailab

; 196  : 	{
; 197  : 		s_dwNextUpdateTime=dwCurTime+5000;

  00016	8b 45 fc	 mov	 eax, DWORD PTR _dwCurTime$[ebp]
  00019	05 88 13 00 00	 add	 eax, 5000		; 00001388H
  0001e	a3 00 00 00 00	 mov	 DWORD PTR ?s_dwNextUpdateTime@?1??GetAvailableTextureMemory@CGraphicBase@@SAKXZ@4KA, eax

; 198  : 		s_dwTexMemSize=ms_lpd3dDevice->GetAvailableTextureMem();

  00023	a1 00 00 00 00	 mov	 eax, DWORD PTR ?ms_lpd3dDevice@CGraphicBase@@1PAUIDirect3DDevice8@@A ; CGraphicBase::ms_lpd3dDevice
  00028	8b 00		 mov	 eax, DWORD PTR [eax]
  0002a	ff 35 00 00 00
	00		 push	 DWORD PTR ?ms_lpd3dDevice@CGraphicBase@@1PAUIDirect3DDevice8@@A ; CGraphicBase::ms_lpd3dDevice
  00030	ff 50 10	 call	 DWORD PTR [eax+16]
  00033	a3 00 00 00 00	 mov	 DWORD PTR ?s_dwTexMemSize@?1??GetAvailableTextureMemory@CGraphicBase@@SAKXZ@4KA, eax
$LN2@GetAvailab:

; 199  : 	}
; 200  : 
; 201  : 	return s_dwTexMemSize;

  00038	a1 00 00 00 00	 mov	 eax, DWORD PTR ?s_dwTexMemSize@?1??GetAvailableTextureMemory@CGraphicBase@@SAKXZ@4KA

; 202  : }

  0003d	c9		 leave
  0003e	c3		 ret	 0
?GetAvailableTextureMemory@CGraphicBase@@SAKXZ ENDP	; CGraphicBase::GetAvailableTextureMemory
_TEXT	ENDS
; Function compile flags: /Odspy
; File D:\Metin2 Server Files\mainline\SRC_2014\Metin2Client\EterLib\GrpBase.cpp
;	COMDAT ?D3DXVECTOR3ToPixelPosition@@YAXABUD3DXVECTOR3@@PAU1@@Z
_TEXT	SEGMENT
_c_rv3Src$ = 8						; size = 4
_pv3Dst$ = 12						; size = 4
?D3DXVECTOR3ToPixelPosition@@YAXABUD3DXVECTOR3@@PAU1@@Z PROC ; D3DXVECTOR3ToPixelPosition, COMDAT

; 16   : {

  00000	55		 push	 ebp
  00001	8b ec		 mov	 ebp, esp

; 17   : 	pv3Dst->x=+c_rv3Src.x;

  00003	8b 45 0c	 mov	 eax, DWORD PTR _pv3Dst$[ebp]
  00006	8b 4d 08	 mov	 ecx, DWORD PTR _c_rv3Src$[ebp]
  00009	8b 09		 mov	 ecx, DWORD PTR [ecx]
  0000b	89 08		 mov	 DWORD PTR [eax], ecx

; 18   : 	pv3Dst->y=-c_rv3Src.y;

  0000d	8b 45 08	 mov	 eax, DWORD PTR _c_rv3Src$[ebp]
  00010	f3 0f 10 40 04	 movss	 xmm0, DWORD PTR [eax+4]
  00015	0f 57 05 00 00
	00 00		 xorps	 xmm0, DWORD PTR __xmm@80000000800000008000000080000000
  0001c	8b 45 0c	 mov	 eax, DWORD PTR _pv3Dst$[ebp]
  0001f	f3 0f 11 40 04	 movss	 DWORD PTR [eax+4], xmm0

; 19   : 	pv3Dst->z=+c_rv3Src.z;

  00024	8b 45 0c	 mov	 eax, DWORD PTR _pv3Dst$[ebp]
  00027	8b 4d 08	 mov	 ecx, DWORD PTR _c_rv3Src$[ebp]
  0002a	8b 49 08	 mov	 ecx, DWORD PTR [ecx+8]
  0002d	89 48 08	 mov	 DWORD PTR [eax+8], ecx

; 20   : }

  00030	5d		 pop	 ebp
  00031	c3		 ret	 0
?D3DXVECTOR3ToPixelPosition@@YAXABUD3DXVECTOR3@@PAU1@@Z ENDP ; D3DXVECTOR3ToPixelPosition
_TEXT	ENDS
; Function compile flags: /Odspy
; File D:\Metin2 Server Files\mainline\SRC_2014\Metin2Client\EterLib\GrpBase.cpp
;	COMDAT ?PixelPositionToD3DXVECTOR3@@YAXABUD3DXVECTOR3@@PAU1@@Z
_TEXT	SEGMENT
_c_rkPPosSrc$ = 8					; size = 4
_pv3Dst$ = 12						; size = 4
?PixelPositionToD3DXVECTOR3@@YAXABUD3DXVECTOR3@@PAU1@@Z PROC ; PixelPositionToD3DXVECTOR3, COMDAT

; 9    : {

  00000	55		 push	 ebp
  00001	8b ec		 mov	 ebp, esp

; 10   : 	pv3Dst->x=+c_rkPPosSrc.x;

  00003	8b 45 0c	 mov	 eax, DWORD PTR _pv3Dst$[ebp]
  00006	8b 4d 08	 mov	 ecx, DWORD PTR _c_rkPPosSrc$[ebp]
  00009	8b 09		 mov	 ecx, DWORD PTR [ecx]
  0000b	89 08		 mov	 DWORD PTR [eax], ecx

; 11   : 	pv3Dst->y=-c_rkPPosSrc.y;

  0000d	8b 45 08	 mov	 eax, DWORD PTR _c_rkPPosSrc$[ebp]
  00010	f3 0f 10 40 04	 movss	 xmm0, DWORD PTR [eax+4]
  00015	0f 57 05 00 00
	00 00		 xorps	 xmm0, DWORD PTR __xmm@80000000800000008000000080000000
  0001c	8b 45 0c	 mov	 eax, DWORD PTR _pv3Dst$[ebp]
  0001f	f3 0f 11 40 04	 movss	 DWORD PTR [eax+4], xmm0

; 12   : 	pv3Dst->z=+c_rkPPosSrc.z;

  00024	8b 45 0c	 mov	 eax, DWORD PTR _pv3Dst$[ebp]
  00027	8b 4d 08	 mov	 ecx, DWORD PTR _c_rkPPosSrc$[ebp]
  0002a	8b 49 08	 mov	 ecx, DWORD PTR [ecx+8]
  0002d	89 48 08	 mov	 DWORD PTR [eax+8], ecx

; 13   : }

  00030	5d		 pop	 ebp
  00031	c3		 ret	 0
?PixelPositionToD3DXVECTOR3@@YAXABUD3DXVECTOR3@@PAU1@@Z ENDP ; PixelPositionToD3DXVECTOR3
_TEXT	ENDS
; Function compile flags: /Odspy
;	COMDAT ??_H@YGXPAXIIP6EPAX0@Z@Z
_TEXT	SEGMENT
tv66 = -4						; size = 4
___t$ = 8						; size = 4
___s$ = 12						; size = 4
___n$ = 16						; size = 4
___f$ = 20						; size = 4
??_H@YGXPAXIIP6EPAX0@Z@Z PROC				; `vector constructor iterator', COMDAT
  00000	55		 push	 ebp
  00001	8b ec		 mov	 ebp, esp
  00003	51		 push	 ecx
$LN2@vector:
  00004	8b 45 10	 mov	 eax, DWORD PTR ___n$[ebp]
  00007	89 45 fc	 mov	 DWORD PTR tv66[ebp], eax
  0000a	8b 45 10	 mov	 eax, DWORD PTR ___n$[ebp]
  0000d	48		 dec	 eax
  0000e	89 45 10	 mov	 DWORD PTR ___n$[ebp], eax
  00011	83 7d fc 00	 cmp	 DWORD PTR tv66[ebp], 0
  00015	76 11		 jbe	 SHORT $LN1@vector
  00017	8b 4d 08	 mov	 ecx, DWORD PTR ___t$[ebp]
  0001a	ff 55 14	 call	 DWORD PTR ___f$[ebp]
  0001d	8b 45 08	 mov	 eax, DWORD PTR ___t$[ebp]
  00020	03 45 0c	 add	 eax, DWORD PTR ___s$[ebp]
  00023	89 45 08	 mov	 DWORD PTR ___t$[ebp], eax
  00026	eb dc		 jmp	 SHORT $LN2@vector
$LN1@vector:
  00028	c9		 leave
  00029	c2 10 00	 ret	 16			; 00000010H
??_H@YGXPAXIIP6EPAX0@Z@Z ENDP				; `vector constructor iterator'
_TEXT	ENDS
END
