; Listing generated by Microsoft (R) Optimizing Compiler Version 19.28.29335.0 

	TITLE	D:\Metin2 Server Files\mainline\SRC_2014\Metin2Client\EterLib\GrpColorInstance.cpp
	.686P
	.XMM
	include listing.inc
	.model	flat

INCLUDELIB LIBCMT
INCLUDELIB OLDNAMES

PUBLIC	??0CGraphicColorInstance@@QAE@XZ		; CGraphicColorInstance::CGraphicColorInstance
PUBLIC	??1CGraphicColorInstance@@UAE@XZ		; CGraphicColorInstance::~CGraphicColorInstance
PUBLIC	?Clear@CGraphicColorInstance@@QAEXXZ		; CGraphicColorInstance::Clear
PUBLIC	?SetColorReference@CGraphicColorInstance@@QAEXABVCGraphicColor@@@Z ; CGraphicColorInstance::SetColorReference
PUBLIC	?BlendColorReference@CGraphicColorInstance@@QAEXKABVCGraphicColor@@@Z ; CGraphicColorInstance::BlendColorReference
PUBLIC	?Update@CGraphicColorInstance@@QAEXXZ		; CGraphicColorInstance::Update
PUBLIC	?GetCurrentColorReference@CGraphicColorInstance@@QBEABVCGraphicColor@@XZ ; CGraphicColorInstance::GetCurrentColorReference
PUBLIC	?GetTickCount@CGraphicColorInstance@@IAEKXZ	; CGraphicColorInstance::GetTickCount
PUBLIC	??_GCGraphicColorInstance@@UAEPAXI@Z		; CGraphicColorInstance::`scalar deleting destructor'
PUBLIC	??_7CGraphicColorInstance@@6B@			; CGraphicColorInstance::`vftable'
PUBLIC	?ms_singleton@?$CSingleton@VCTimer@@@@0PAVCTimer@@A ; CSingleton<CTimer>::ms_singleton
PUBLIC	??_R4CGraphicColorInstance@@6B@			; CGraphicColorInstance::`RTTI Complete Object Locator'
PUBLIC	??_R0?AVCGraphicColorInstance@@@8		; CGraphicColorInstance `RTTI Type Descriptor'
PUBLIC	??_R3CGraphicColorInstance@@8			; CGraphicColorInstance::`RTTI Class Hierarchy Descriptor'
PUBLIC	??_R2CGraphicColorInstance@@8			; CGraphicColorInstance::`RTTI Base Class Array'
PUBLIC	??_R1A@?0A@EA@CGraphicColorInstance@@8		; CGraphicColorInstance::`RTTI Base Class Descriptor at (0,-1,0,64)'
PUBLIC	__xmm@41f00000000000000000000000000000
EXTRN	??3@YAXPAXI@Z:PROC				; operator delete
EXTRN	??0CGraphicColor@@QAE@XZ:PROC			; CGraphicColor::CGraphicColor
EXTRN	??1CGraphicColor@@QAE@XZ:PROC			; CGraphicColor::~CGraphicColor
EXTRN	?Clear@CGraphicColor@@QAEXXZ:PROC		; CGraphicColor::Clear
EXTRN	?Blend@CGraphicColor@@QAEXMABV1@0@Z:PROC	; CGraphicColor::Blend
EXTRN	??_ECGraphicColorInstance@@UAEPAXI@Z:PROC	; CGraphicColorInstance::`vector deleting destructor'
EXTRN	?GetCurrentMillisecond@CTimer@@QAEKXZ:PROC	; CTimer::GetCurrentMillisecond
EXTRN	@__security_check_cookie@4:PROC
EXTRN	___CxxFrameHandler3:PROC
EXTRN	??_7type_info@@6B@:QWORD			; type_info::`vftable'
EXTRN	___security_cookie:DWORD
EXTRN	__fltused:DWORD
;	COMDAT ?ms_singleton@?$CSingleton@VCTimer@@@@0PAVCTimer@@A
_BSS	SEGMENT
?ms_singleton@?$CSingleton@VCTimer@@@@0PAVCTimer@@A DD 01H DUP (?) ; CSingleton<CTimer>::ms_singleton
_BSS	ENDS
;	COMDAT __xmm@41f00000000000000000000000000000
CONST	SEGMENT
__xmm@41f00000000000000000000000000000 DB 00H, 00H, 00H, 00H, 00H, 00H, 00H
	DB	00H, 00H, 00H, 00H, 00H, 00H, 00H, 0f0H, 'A'
CONST	ENDS
;	COMDAT ??_R1A@?0A@EA@CGraphicColorInstance@@8
rdata$r	SEGMENT
??_R1A@?0A@EA@CGraphicColorInstance@@8 DD FLAT:??_R0?AVCGraphicColorInstance@@@8 ; CGraphicColorInstance::`RTTI Base Class Descriptor at (0,-1,0,64)'
	DD	00H
	DD	00H
	DD	0ffffffffH
	DD	00H
	DD	040H
	DD	FLAT:??_R3CGraphicColorInstance@@8
rdata$r	ENDS
;	COMDAT ??_R2CGraphicColorInstance@@8
rdata$r	SEGMENT
??_R2CGraphicColorInstance@@8 DD FLAT:??_R1A@?0A@EA@CGraphicColorInstance@@8 ; CGraphicColorInstance::`RTTI Base Class Array'
rdata$r	ENDS
;	COMDAT ??_R3CGraphicColorInstance@@8
rdata$r	SEGMENT
??_R3CGraphicColorInstance@@8 DD 00H			; CGraphicColorInstance::`RTTI Class Hierarchy Descriptor'
	DD	00H
	DD	01H
	DD	FLAT:??_R2CGraphicColorInstance@@8
rdata$r	ENDS
;	COMDAT ??_R0?AVCGraphicColorInstance@@@8
data$rs	SEGMENT
??_R0?AVCGraphicColorInstance@@@8 DD FLAT:??_7type_info@@6B@ ; CGraphicColorInstance `RTTI Type Descriptor'
	DD	00H
	DB	'.?AVCGraphicColorInstance@@', 00H
data$rs	ENDS
;	COMDAT ??_R4CGraphicColorInstance@@6B@
rdata$r	SEGMENT
??_R4CGraphicColorInstance@@6B@ DD 00H			; CGraphicColorInstance::`RTTI Complete Object Locator'
	DD	00H
	DD	00H
	DD	FLAT:??_R0?AVCGraphicColorInstance@@@8
	DD	FLAT:??_R3CGraphicColorInstance@@8
rdata$r	ENDS
;	COMDAT ??_7CGraphicColorInstance@@6B@
CONST	SEGMENT
??_7CGraphicColorInstance@@6B@ DD FLAT:??_R4CGraphicColorInstance@@6B@ ; CGraphicColorInstance::`vftable'
	DD	FLAT:??_ECGraphicColorInstance@@UAEPAXI@Z
CONST	ENDS
;	COMDAT xdata$x
xdata$x	SEGMENT
__unwindtable$??0CGraphicColorInstance@@QAE@XZ DD 0ffffffffH
	DD	FLAT:__unwindfunclet$??0CGraphicColorInstance@@QAE@XZ$0
	DD	00H
	DD	FLAT:__unwindfunclet$??0CGraphicColorInstance@@QAE@XZ$1
__ehfuncinfo$??0CGraphicColorInstance@@QAE@XZ DD 019930522H
	DD	02H
	DD	FLAT:__unwindtable$??0CGraphicColorInstance@@QAE@XZ
	DD	2 DUP(00H)
	DD	2 DUP(00H)
	DD	00H
	DD	01H
xdata$x	ENDS
; Function compile flags: /Odspy
;	COMDAT ??_GCGraphicColorInstance@@UAEPAXI@Z
_TEXT	SEGMENT
_this$ = -4						; size = 4
___flags$ = 8						; size = 4
??_GCGraphicColorInstance@@UAEPAXI@Z PROC		; CGraphicColorInstance::`scalar deleting destructor', COMDAT
; _this$ = ecx
  00000	55		 push	 ebp
  00001	8b ec		 mov	 ebp, esp
  00003	51		 push	 ecx
  00004	89 4d fc	 mov	 DWORD PTR _this$[ebp], ecx
  00007	8b 4d fc	 mov	 ecx, DWORD PTR _this$[ebp]
  0000a	e8 00 00 00 00	 call	 ??1CGraphicColorInstance@@UAE@XZ ; CGraphicColorInstance::~CGraphicColorInstance
  0000f	8b 45 08	 mov	 eax, DWORD PTR ___flags$[ebp]
  00012	83 e0 01	 and	 eax, 1
  00015	74 0c		 je	 SHORT $LN2@scalar
  00017	6a 3c		 push	 60			; 0000003cH
  00019	ff 75 fc	 push	 DWORD PTR _this$[ebp]
  0001c	e8 00 00 00 00	 call	 ??3@YAXPAXI@Z		; operator delete
  00021	59		 pop	 ecx
  00022	59		 pop	 ecx
$LN2@scalar:
  00023	8b 45 fc	 mov	 eax, DWORD PTR _this$[ebp]
  00026	c9		 leave
  00027	c2 04 00	 ret	 4
??_GCGraphicColorInstance@@UAEPAXI@Z ENDP		; CGraphicColorInstance::`scalar deleting destructor'
_TEXT	ENDS
; Function compile flags: /Odspy
; File D:\Metin2 Server Files\mainline\SRC_2014\Metin2Client\EterLib\GrpColorInstance.cpp
; File D:\Metin2 Server Files\mainline\SRC_2014\Metin2Client\eterBase\Singleton.h
; File D:\Metin2 Server Files\mainline\SRC_2014\Metin2Client\EterLib\GrpColorInstance.cpp
;	COMDAT ?GetTickCount@CGraphicColorInstance@@IAEKXZ
_TEXT	SEGMENT
_this$ = -8						; size = 4
$T1 = -4						; size = 4
?GetTickCount@CGraphicColorInstance@@IAEKXZ PROC	; CGraphicColorInstance::GetTickCount, COMDAT
; _this$ = ecx

; 57   : {

  00000	55		 push	 ebp
  00001	8b ec		 mov	 ebp, esp
  00003	51		 push	 ecx
  00004	51		 push	 ecx
  00005	89 4d f8	 mov	 DWORD PTR _this$[ebp], ecx
; File D:\Metin2 Server Files\mainline\SRC_2014\Metin2Client\eterBase\Singleton.h

; 27   : 		return (*ms_singleton);

  00008	a1 00 00 00 00	 mov	 eax, DWORD PTR ?ms_singleton@?$CSingleton@VCTimer@@@@0PAVCTimer@@A ; CSingleton<CTimer>::ms_singleton
  0000d	89 45 fc	 mov	 DWORD PTR $T1[ebp], eax
; File D:\Metin2 Server Files\mainline\SRC_2014\Metin2Client\EterLib\GrpColorInstance.cpp

; 58   : 	return CTimer::Instance().GetCurrentMillisecond();

  00010	8b 4d fc	 mov	 ecx, DWORD PTR $T1[ebp]
  00013	e8 00 00 00 00	 call	 ?GetCurrentMillisecond@CTimer@@QAEKXZ ; CTimer::GetCurrentMillisecond

; 59   : }

  00018	c9		 leave
  00019	c3		 ret	 0
?GetTickCount@CGraphicColorInstance@@IAEKXZ ENDP	; CGraphicColorInstance::GetTickCount
_TEXT	ENDS
; Function compile flags: /Odspy
; File D:\Metin2 Server Files\mainline\SRC_2014\Metin2Client\EterLib\GrpColorInstance.cpp
;	COMDAT ?GetCurrentColorReference@CGraphicColorInstance@@QBEABVCGraphicColor@@XZ
_TEXT	SEGMENT
_this$ = -4						; size = 4
?GetCurrentColorReference@CGraphicColorInstance@@QBEABVCGraphicColor@@XZ PROC ; CGraphicColorInstance::GetCurrentColorReference, COMDAT
; _this$ = ecx

; 62   : {

  00000	55		 push	 ebp
  00001	8b ec		 mov	 ebp, esp
  00003	51		 push	 ecx
  00004	89 4d fc	 mov	 DWORD PTR _this$[ebp], ecx

; 63   : 	return m_curColor;

  00007	8b 45 fc	 mov	 eax, DWORD PTR _this$[ebp]
  0000a	83 c0 24	 add	 eax, 36			; 00000024H

; 64   : }

  0000d	c9		 leave
  0000e	c3		 ret	 0
?GetCurrentColorReference@CGraphicColorInstance@@QBEABVCGraphicColor@@XZ ENDP ; CGraphicColorInstance::GetCurrentColorReference
_TEXT	ENDS
; Function compile flags: /Odspy
; File D:\Metin2 Server Files\mainline\SRC_2014\Metin2Client\EterLib\GrpColorInstance.cpp
;	COMDAT ?Update@CGraphicColorInstance@@QAEXXZ
_TEXT	SEGMENT
tv137 = -36						; size = 8
tv95 = -28						; size = 8
_curTime$ = -20						; size = 4
tv133 = -16						; size = 4
tv91 = -12						; size = 4
_elapsedTime$ = -8					; size = 4
_this$ = -4						; size = 4
?Update@CGraphicColorInstance@@QAEXXZ PROC		; CGraphicColorInstance::Update, COMDAT
; _this$ = ecx

; 42   : {

  00000	55		 push	 ebp
  00001	8b ec		 mov	 ebp, esp
  00003	83 ec 24	 sub	 esp, 36			; 00000024H
  00006	56		 push	 esi
  00007	57		 push	 edi
  00008	89 4d fc	 mov	 DWORD PTR _this$[ebp], ecx

; 43   : 	DWORD curTime = GetCurrentTime();

  0000b	8b 4d fc	 mov	 ecx, DWORD PTR _this$[ebp]
  0000e	e8 00 00 00 00	 call	 ?GetTickCount@CGraphicColorInstance@@IAEKXZ ; CGraphicColorInstance::GetTickCount
  00013	89 45 ec	 mov	 DWORD PTR _curTime$[ebp], eax

; 44   : 	DWORD elapsedTime = curTime - m_baseTime;

  00016	8b 45 fc	 mov	 eax, DWORD PTR _this$[ebp]
  00019	8b 4d ec	 mov	 ecx, DWORD PTR _curTime$[ebp]
  0001c	2b 48 34	 sub	 ecx, DWORD PTR [eax+52]
  0001f	89 4d f8	 mov	 DWORD PTR _elapsedTime$[ebp], ecx

; 45   : 
; 46   : 	if (elapsedTime < m_blendTime)

  00022	8b 45 fc	 mov	 eax, DWORD PTR _this$[ebp]
  00025	8b 4d f8	 mov	 ecx, DWORD PTR _elapsedTime$[ebp]
  00028	3b 48 38	 cmp	 ecx, DWORD PTR [eax+56]
  0002b	73 70		 jae	 SHORT $LN2@Update

; 47   : 	{
; 48   : 		m_curColor.Blend(elapsedTime/float(m_blendTime), m_srcColor, m_dstColor);

  0002d	8b 45 fc	 mov	 eax, DWORD PTR _this$[ebp]
  00030	83 c0 14	 add	 eax, 20			; 00000014H
  00033	50		 push	 eax
  00034	8b 45 fc	 mov	 eax, DWORD PTR _this$[ebp]
  00037	83 c0 04	 add	 eax, 4
  0003a	50		 push	 eax
  0003b	8b 45 f8	 mov	 eax, DWORD PTR _elapsedTime$[ebp]
  0003e	89 45 f4	 mov	 DWORD PTR tv91[ebp], eax
  00041	f2 0f 2a 45 f4	 cvtsi2sd xmm0, DWORD PTR tv91[ebp]
  00046	8b 45 f4	 mov	 eax, DWORD PTR tv91[ebp]
  00049	c1 e8 1f	 shr	 eax, 31			; 0000001fH
  0004c	f2 0f 58 04 c5
	00 00 00 00	 addsd	 xmm0, QWORD PTR __xmm@41f00000000000000000000000000000[eax*8]
  00055	f2 0f 11 45 e4	 movsd	 QWORD PTR tv95[ebp], xmm0
  0005a	f2 0f 5a 45 e4	 cvtsd2ss xmm0, QWORD PTR tv95[ebp]
  0005f	8b 45 fc	 mov	 eax, DWORD PTR _this$[ebp]
  00062	8b 40 38	 mov	 eax, DWORD PTR [eax+56]
  00065	89 45 f0	 mov	 DWORD PTR tv133[ebp], eax
  00068	f2 0f 2a 4d f0	 cvtsi2sd xmm1, DWORD PTR tv133[ebp]
  0006d	8b 45 f0	 mov	 eax, DWORD PTR tv133[ebp]
  00070	c1 e8 1f	 shr	 eax, 31			; 0000001fH
  00073	f2 0f 58 0c c5
	00 00 00 00	 addsd	 xmm1, QWORD PTR __xmm@41f00000000000000000000000000000[eax*8]
  0007c	f2 0f 11 4d dc	 movsd	 QWORD PTR tv137[ebp], xmm1
  00081	f2 0f 5a 4d dc	 cvtsd2ss xmm1, QWORD PTR tv137[ebp]
  00086	f3 0f 5e c1	 divss	 xmm0, xmm1
  0008a	51		 push	 ecx
  0008b	f3 0f 11 04 24	 movss	 DWORD PTR [esp], xmm0
  00090	8b 4d fc	 mov	 ecx, DWORD PTR _this$[ebp]
  00093	83 c1 24	 add	 ecx, 36			; 00000024H
  00096	e8 00 00 00 00	 call	 ?Blend@CGraphicColor@@QAEXMABV1@0@Z ; CGraphicColor::Blend

; 49   : 	}

  0009b	eb 10		 jmp	 SHORT $LN3@Update
$LN2@Update:

; 50   : 	else
; 51   : 	{
; 52   : 		m_curColor=m_dstColor;

  0009d	8b 75 fc	 mov	 esi, DWORD PTR _this$[ebp]
  000a0	83 c6 14	 add	 esi, 20			; 00000014H
  000a3	8b 7d fc	 mov	 edi, DWORD PTR _this$[ebp]
  000a6	83 c7 24	 add	 edi, 36			; 00000024H
  000a9	a5		 movsd
  000aa	a5		 movsd
  000ab	a5		 movsd
  000ac	a5		 movsd
$LN3@Update:

; 53   : 	}
; 54   : }

  000ad	5f		 pop	 edi
  000ae	5e		 pop	 esi
  000af	c9		 leave
  000b0	c3		 ret	 0
?Update@CGraphicColorInstance@@QAEXXZ ENDP		; CGraphicColorInstance::Update
_TEXT	ENDS
; Function compile flags: /Odspy
; File D:\Metin2 Server Files\mainline\SRC_2014\Metin2Client\EterLib\GrpColorInstance.cpp
;	COMDAT ?BlendColorReference@CGraphicColorInstance@@QAEXKABVCGraphicColor@@@Z
_TEXT	SEGMENT
_this$ = -4						; size = 4
_blendTime$ = 8						; size = 4
_c_rDstColor$ = 12					; size = 4
?BlendColorReference@CGraphicColorInstance@@QAEXKABVCGraphicColor@@@Z PROC ; CGraphicColorInstance::BlendColorReference, COMDAT
; _this$ = ecx

; 33   : {

  00000	55		 push	 ebp
  00001	8b ec		 mov	 ebp, esp
  00003	51		 push	 ecx
  00004	56		 push	 esi
  00005	57		 push	 edi
  00006	89 4d fc	 mov	 DWORD PTR _this$[ebp], ecx

; 34   : 	m_baseTime = GetCurrentTime();

  00009	8b 4d fc	 mov	 ecx, DWORD PTR _this$[ebp]
  0000c	e8 00 00 00 00	 call	 ?GetTickCount@CGraphicColorInstance@@IAEKXZ ; CGraphicColorInstance::GetTickCount
  00011	8b 4d fc	 mov	 ecx, DWORD PTR _this$[ebp]
  00014	89 41 34	 mov	 DWORD PTR [ecx+52], eax

; 35   : 	m_blendTime = blendTime;

  00017	8b 45 fc	 mov	 eax, DWORD PTR _this$[ebp]
  0001a	8b 4d 08	 mov	 ecx, DWORD PTR _blendTime$[ebp]
  0001d	89 48 38	 mov	 DWORD PTR [eax+56], ecx

; 36   : 
; 37   : 	m_srcColor = m_curColor;

  00020	8b 75 fc	 mov	 esi, DWORD PTR _this$[ebp]
  00023	83 c6 24	 add	 esi, 36			; 00000024H
  00026	8b 7d fc	 mov	 edi, DWORD PTR _this$[ebp]
  00029	83 c7 04	 add	 edi, 4
  0002c	a5		 movsd
  0002d	a5		 movsd
  0002e	a5		 movsd
  0002f	a5		 movsd

; 38   : 	m_dstColor = c_rDstColor;

  00030	8b 7d fc	 mov	 edi, DWORD PTR _this$[ebp]
  00033	83 c7 14	 add	 edi, 20			; 00000014H
  00036	8b 75 0c	 mov	 esi, DWORD PTR _c_rDstColor$[ebp]
  00039	a5		 movsd
  0003a	a5		 movsd
  0003b	a5		 movsd
  0003c	a5		 movsd

; 39   : }

  0003d	5f		 pop	 edi
  0003e	5e		 pop	 esi
  0003f	c9		 leave
  00040	c2 08 00	 ret	 8
?BlendColorReference@CGraphicColorInstance@@QAEXKABVCGraphicColor@@@Z ENDP ; CGraphicColorInstance::BlendColorReference
_TEXT	ENDS
; Function compile flags: /Odspy
; File D:\Metin2 Server Files\mainline\SRC_2014\Metin2Client\EterLib\GrpColorInstance.cpp
;	COMDAT ?SetColorReference@CGraphicColorInstance@@QAEXABVCGraphicColor@@@Z
_TEXT	SEGMENT
_this$ = -4						; size = 4
_c_rSrcColor$ = 8					; size = 4
?SetColorReference@CGraphicColorInstance@@QAEXABVCGraphicColor@@@Z PROC ; CGraphicColorInstance::SetColorReference, COMDAT
; _this$ = ecx

; 26   : {

  00000	55		 push	 ebp
  00001	8b ec		 mov	 ebp, esp
  00003	51		 push	 ecx
  00004	56		 push	 esi
  00005	57		 push	 edi
  00006	89 4d fc	 mov	 DWORD PTR _this$[ebp], ecx

; 27   : 	m_srcColor = c_rSrcColor;	

  00009	8b 7d fc	 mov	 edi, DWORD PTR _this$[ebp]
  0000c	83 c7 04	 add	 edi, 4
  0000f	8b 75 08	 mov	 esi, DWORD PTR _c_rSrcColor$[ebp]
  00012	a5		 movsd
  00013	a5		 movsd
  00014	a5		 movsd
  00015	a5		 movsd

; 28   : 	m_dstColor = c_rSrcColor;

  00016	8b 7d fc	 mov	 edi, DWORD PTR _this$[ebp]
  00019	83 c7 14	 add	 edi, 20			; 00000014H
  0001c	8b 75 08	 mov	 esi, DWORD PTR _c_rSrcColor$[ebp]
  0001f	a5		 movsd
  00020	a5		 movsd
  00021	a5		 movsd
  00022	a5		 movsd

; 29   : 	m_curColor = c_rSrcColor;

  00023	8b 7d fc	 mov	 edi, DWORD PTR _this$[ebp]
  00026	83 c7 24	 add	 edi, 36			; 00000024H
  00029	8b 75 08	 mov	 esi, DWORD PTR _c_rSrcColor$[ebp]
  0002c	a5		 movsd
  0002d	a5		 movsd
  0002e	a5		 movsd
  0002f	a5		 movsd

; 30   : }

  00030	5f		 pop	 edi
  00031	5e		 pop	 esi
  00032	c9		 leave
  00033	c2 04 00	 ret	 4
?SetColorReference@CGraphicColorInstance@@QAEXABVCGraphicColor@@@Z ENDP ; CGraphicColorInstance::SetColorReference
_TEXT	ENDS
; Function compile flags: /Odspy
; File D:\Metin2 Server Files\mainline\SRC_2014\Metin2Client\EterLib\GrpColorInstance.cpp
;	COMDAT ?Clear@CGraphicColorInstance@@QAEXXZ
_TEXT	SEGMENT
_this$ = -4						; size = 4
?Clear@CGraphicColorInstance@@QAEXXZ PROC		; CGraphicColorInstance::Clear, COMDAT
; _this$ = ecx

; 16   : {

  00000	55		 push	 ebp
  00001	8b ec		 mov	 ebp, esp
  00003	51		 push	 ecx
  00004	89 4d fc	 mov	 DWORD PTR _this$[ebp], ecx

; 17   : 	m_srcColor.Clear();

  00007	8b 4d fc	 mov	 ecx, DWORD PTR _this$[ebp]
  0000a	83 c1 04	 add	 ecx, 4
  0000d	e8 00 00 00 00	 call	 ?Clear@CGraphicColor@@QAEXXZ ; CGraphicColor::Clear

; 18   : 	m_dstColor.Clear();

  00012	8b 4d fc	 mov	 ecx, DWORD PTR _this$[ebp]
  00015	83 c1 14	 add	 ecx, 20			; 00000014H
  00018	e8 00 00 00 00	 call	 ?Clear@CGraphicColor@@QAEXXZ ; CGraphicColor::Clear

; 19   : 	m_curColor.Clear();

  0001d	8b 4d fc	 mov	 ecx, DWORD PTR _this$[ebp]
  00020	83 c1 24	 add	 ecx, 36			; 00000024H
  00023	e8 00 00 00 00	 call	 ?Clear@CGraphicColor@@QAEXXZ ; CGraphicColor::Clear

; 20   : 
; 21   : 	m_baseTime=0;

  00028	8b 45 fc	 mov	 eax, DWORD PTR _this$[ebp]
  0002b	83 60 34 00	 and	 DWORD PTR [eax+52], 0

; 22   : 	m_blendTime=0;

  0002f	8b 45 fc	 mov	 eax, DWORD PTR _this$[ebp]
  00032	83 60 38 00	 and	 DWORD PTR [eax+56], 0

; 23   : }

  00036	c9		 leave
  00037	c3		 ret	 0
?Clear@CGraphicColorInstance@@QAEXXZ ENDP		; CGraphicColorInstance::Clear
_TEXT	ENDS
; Function compile flags: /Odspy
; File D:\Metin2 Server Files\mainline\SRC_2014\Metin2Client\EterLib\GrpColorInstance.cpp
;	COMDAT ??1CGraphicColorInstance@@UAE@XZ
_TEXT	SEGMENT
_this$ = -4						; size = 4
??1CGraphicColorInstance@@UAE@XZ PROC			; CGraphicColorInstance::~CGraphicColorInstance, COMDAT
; _this$ = ecx

; 12   : {

  00000	55		 push	 ebp
  00001	8b ec		 mov	 ebp, esp
  00003	51		 push	 ecx
  00004	89 4d fc	 mov	 DWORD PTR _this$[ebp], ecx
  00007	8b 45 fc	 mov	 eax, DWORD PTR _this$[ebp]
  0000a	c7 00 00 00 00
	00		 mov	 DWORD PTR [eax], OFFSET ??_7CGraphicColorInstance@@6B@

; 13   : }

  00010	8b 4d fc	 mov	 ecx, DWORD PTR _this$[ebp]
  00013	83 c1 24	 add	 ecx, 36			; 00000024H
  00016	e8 00 00 00 00	 call	 ??1CGraphicColor@@QAE@XZ ; CGraphicColor::~CGraphicColor
  0001b	8b 4d fc	 mov	 ecx, DWORD PTR _this$[ebp]
  0001e	83 c1 14	 add	 ecx, 20			; 00000014H
  00021	e8 00 00 00 00	 call	 ??1CGraphicColor@@QAE@XZ ; CGraphicColor::~CGraphicColor
  00026	8b 4d fc	 mov	 ecx, DWORD PTR _this$[ebp]
  00029	83 c1 04	 add	 ecx, 4
  0002c	e8 00 00 00 00	 call	 ??1CGraphicColor@@QAE@XZ ; CGraphicColor::~CGraphicColor
  00031	c9		 leave
  00032	c3		 ret	 0
??1CGraphicColorInstance@@UAE@XZ ENDP			; CGraphicColorInstance::~CGraphicColorInstance
_TEXT	ENDS
; Function compile flags: /Odspy
; File D:\Metin2 Server Files\mainline\SRC_2014\Metin2Client\EterLib\GrpColorInstance.cpp
;	COMDAT ??0CGraphicColorInstance@@QAE@XZ
_TEXT	SEGMENT
_this$ = -16						; size = 4
__$EHRec$ = -12						; size = 12
??0CGraphicColorInstance@@QAE@XZ PROC			; CGraphicColorInstance::CGraphicColorInstance, COMDAT
; _this$ = ecx

; 6    : {

  00000	55		 push	 ebp
  00001	8b ec		 mov	 ebp, esp
  00003	6a ff		 push	 -1
  00005	68 00 00 00 00	 push	 __ehhandler$??0CGraphicColorInstance@@QAE@XZ
  0000a	64 a1 00 00 00
	00		 mov	 eax, DWORD PTR fs:0
  00010	50		 push	 eax
  00011	51		 push	 ecx
  00012	a1 00 00 00 00	 mov	 eax, DWORD PTR ___security_cookie
  00017	33 c5		 xor	 eax, ebp
  00019	50		 push	 eax
  0001a	8d 45 f4	 lea	 eax, DWORD PTR __$EHRec$[ebp]
  0001d	64 a3 00 00 00
	00		 mov	 DWORD PTR fs:0, eax
  00023	89 4d f0	 mov	 DWORD PTR _this$[ebp], ecx
  00026	8b 45 f0	 mov	 eax, DWORD PTR _this$[ebp]
  00029	c7 00 00 00 00
	00		 mov	 DWORD PTR [eax], OFFSET ??_7CGraphicColorInstance@@6B@
  0002f	8b 4d f0	 mov	 ecx, DWORD PTR _this$[ebp]
  00032	83 c1 04	 add	 ecx, 4
  00035	e8 00 00 00 00	 call	 ??0CGraphicColor@@QAE@XZ ; CGraphicColor::CGraphicColor
  0003a	83 65 fc 00	 and	 DWORD PTR __$EHRec$[ebp+8], 0
  0003e	8b 4d f0	 mov	 ecx, DWORD PTR _this$[ebp]
  00041	83 c1 14	 add	 ecx, 20			; 00000014H
  00044	e8 00 00 00 00	 call	 ??0CGraphicColor@@QAE@XZ ; CGraphicColor::CGraphicColor
  00049	c6 45 fc 01	 mov	 BYTE PTR __$EHRec$[ebp+8], 1
  0004d	8b 4d f0	 mov	 ecx, DWORD PTR _this$[ebp]
  00050	83 c1 24	 add	 ecx, 36			; 00000024H
  00053	e8 00 00 00 00	 call	 ??0CGraphicColor@@QAE@XZ ; CGraphicColor::CGraphicColor

; 7    : 	m_baseTime=0;

  00058	8b 45 f0	 mov	 eax, DWORD PTR _this$[ebp]
  0005b	83 60 34 00	 and	 DWORD PTR [eax+52], 0

; 8    : 	m_blendTime=0;

  0005f	8b 45 f0	 mov	 eax, DWORD PTR _this$[ebp]
  00062	83 60 38 00	 and	 DWORD PTR [eax+56], 0

; 9    : }

  00066	83 4d fc ff	 or	 DWORD PTR __$EHRec$[ebp+8], -1
  0006a	8b 45 f0	 mov	 eax, DWORD PTR _this$[ebp]
  0006d	8b 4d f4	 mov	 ecx, DWORD PTR __$EHRec$[ebp]
  00070	64 89 0d 00 00
	00 00		 mov	 DWORD PTR fs:0, ecx
  00077	59		 pop	 ecx
  00078	c9		 leave
  00079	c3		 ret	 0
_TEXT	ENDS
;	COMDAT text$x
text$x	SEGMENT
__unwindfunclet$??0CGraphicColorInstance@@QAE@XZ$0:
  00000	8b 4d f0	 mov	 ecx, DWORD PTR _this$[ebp]
  00003	83 c1 04	 add	 ecx, 4
  00006	e9 00 00 00 00	 jmp	 ??1CGraphicColor@@QAE@XZ ; CGraphicColor::~CGraphicColor
__unwindfunclet$??0CGraphicColorInstance@@QAE@XZ$1:
  0000b	8b 4d f0	 mov	 ecx, DWORD PTR _this$[ebp]
  0000e	83 c1 14	 add	 ecx, 20			; 00000014H
  00011	e9 00 00 00 00	 jmp	 ??1CGraphicColor@@QAE@XZ ; CGraphicColor::~CGraphicColor
  00016	cc		 int	 3
  00017	cc		 int	 3
  00018	cc		 int	 3
  00019	cc		 int	 3
  0001a	cc		 int	 3
__ehhandler$??0CGraphicColorInstance@@QAE@XZ:
  0001b	90		 npad	 1
  0001c	90		 npad	 1
  0001d	8b 54 24 08	 mov	 edx, DWORD PTR [esp+8]
  00021	8d 42 0c	 lea	 eax, DWORD PTR [edx+12]
  00024	8b 4a f8	 mov	 ecx, DWORD PTR [edx-8]
  00027	33 c8		 xor	 ecx, eax
  00029	e8 00 00 00 00	 call	 @__security_check_cookie@4
  0002e	b8 00 00 00 00	 mov	 eax, OFFSET __ehfuncinfo$??0CGraphicColorInstance@@QAE@XZ
  00033	e9 00 00 00 00	 jmp	 ___CxxFrameHandler3
text$x	ENDS
??0CGraphicColorInstance@@QAE@XZ ENDP			; CGraphicColorInstance::CGraphicColorInstance
END
