; Listing generated by Microsoft (R) Optimizing Compiler Version 19.28.29335.0 

	TITLE	D:\Metin2 Server Files\mainline\SRC_2014\Metin2Client\EterLib\GrpColor.cpp
	.686P
	.XMM
	include listing.inc
	.model	flat

INCLUDELIB LIBCMT
INCLUDELIB OLDNAMES

PUBLIC	??0CGraphicColor@@QAE@ABV0@@Z			; CGraphicColor::CGraphicColor
PUBLIC	??0CGraphicColor@@QAE@MMMM@Z			; CGraphicColor::CGraphicColor
PUBLIC	??0CGraphicColor@@QAE@K@Z			; CGraphicColor::CGraphicColor
PUBLIC	??0CGraphicColor@@QAE@XZ			; CGraphicColor::CGraphicColor
PUBLIC	??1CGraphicColor@@QAE@XZ			; CGraphicColor::~CGraphicColor
PUBLIC	?Clear@CGraphicColor@@QAEXXZ			; CGraphicColor::Clear
PUBLIC	?Set@CGraphicColor@@QAEXMMMM@Z			; CGraphicColor::Set
PUBLIC	?Set@CGraphicColor@@QAEXABV1@@Z			; CGraphicColor::Set
PUBLIC	?Set@CGraphicColor@@QAEXK@Z			; CGraphicColor::Set
PUBLIC	?Blend@CGraphicColor@@QAEXMABV1@0@Z		; CGraphicColor::Blend
PUBLIC	?GetPackValue@CGraphicColor@@QBEKXZ		; CGraphicColor::GetPackValue
PUBLIC	__real@3f800000
PUBLIC	__real@437f0000
PUBLIC	__xmm@41f00000000000000000000000000000
EXTRN	__fltused:DWORD
;	COMDAT __xmm@41f00000000000000000000000000000
CONST	SEGMENT
__xmm@41f00000000000000000000000000000 DB 00H, 00H, 00H, 00H, 00H, 00H, 00H
	DB	00H, 00H, 00H, 00H, 00H, 00H, 00H, 0f0H, 'A'
CONST	ENDS
;	COMDAT __real@437f0000
CONST	SEGMENT
__real@437f0000 DD 0437f0000r			; 255
CONST	ENDS
;	COMDAT __real@3f800000
CONST	SEGMENT
__real@3f800000 DD 03f800000r			; 1
CONST	ENDS
; Function compile flags: /Odspy
; File D:\Metin2 Server Files\mainline\SRC_2014\Metin2Client\EterLib\GrpColor.cpp
;	COMDAT ?GetPackValue@CGraphicColor@@QBEKXZ
_TEXT	SEGMENT
_this$ = -8						; size = 4
_packValue$ = -4					; size = 4
?GetPackValue@CGraphicColor@@QBEKXZ PROC		; CGraphicColor::GetPackValue, COMDAT
; _this$ = ecx

; 67   : {

  00000	55		 push	 ebp
  00001	8b ec		 mov	 ebp, esp
  00003	51		 push	 ecx
  00004	51		 push	 ecx
  00005	89 4d f8	 mov	 DWORD PTR _this$[ebp], ecx

; 68   : 	DWORD packValue=0;

  00008	83 65 fc 00	 and	 DWORD PTR _packValue$[ebp], 0

; 69   : 	
; 70   : 	packValue  = int(255.0f * m_a);packValue <<= 8;

  0000c	8b 45 f8	 mov	 eax, DWORD PTR _this$[ebp]
  0000f	f3 0f 10 05 00
	00 00 00	 movss	 xmm0, DWORD PTR __real@437f0000
  00017	f3 0f 59 40 0c	 mulss	 xmm0, DWORD PTR [eax+12]
  0001c	f3 0f 2c c0	 cvttss2si eax, xmm0
  00020	89 45 fc	 mov	 DWORD PTR _packValue$[ebp], eax
  00023	8b 45 fc	 mov	 eax, DWORD PTR _packValue$[ebp]
  00026	c1 e0 08	 shl	 eax, 8
  00029	89 45 fc	 mov	 DWORD PTR _packValue$[ebp], eax

; 71   : 	packValue |= int(255.0f * m_r);packValue <<= 8;

  0002c	8b 45 f8	 mov	 eax, DWORD PTR _this$[ebp]
  0002f	f3 0f 10 05 00
	00 00 00	 movss	 xmm0, DWORD PTR __real@437f0000
  00037	f3 0f 59 00	 mulss	 xmm0, DWORD PTR [eax]
  0003b	f3 0f 2c c0	 cvttss2si eax, xmm0
  0003f	0b 45 fc	 or	 eax, DWORD PTR _packValue$[ebp]
  00042	89 45 fc	 mov	 DWORD PTR _packValue$[ebp], eax
  00045	8b 45 fc	 mov	 eax, DWORD PTR _packValue$[ebp]
  00048	c1 e0 08	 shl	 eax, 8
  0004b	89 45 fc	 mov	 DWORD PTR _packValue$[ebp], eax

; 72   : 	packValue |= int(255.0f * m_g);packValue <<= 8;

  0004e	8b 45 f8	 mov	 eax, DWORD PTR _this$[ebp]
  00051	f3 0f 10 05 00
	00 00 00	 movss	 xmm0, DWORD PTR __real@437f0000
  00059	f3 0f 59 40 04	 mulss	 xmm0, DWORD PTR [eax+4]
  0005e	f3 0f 2c c0	 cvttss2si eax, xmm0
  00062	0b 45 fc	 or	 eax, DWORD PTR _packValue$[ebp]
  00065	89 45 fc	 mov	 DWORD PTR _packValue$[ebp], eax
  00068	8b 45 fc	 mov	 eax, DWORD PTR _packValue$[ebp]
  0006b	c1 e0 08	 shl	 eax, 8
  0006e	89 45 fc	 mov	 DWORD PTR _packValue$[ebp], eax

; 73   : 	packValue |= int(255.0f * m_b);

  00071	8b 45 f8	 mov	 eax, DWORD PTR _this$[ebp]
  00074	f3 0f 10 05 00
	00 00 00	 movss	 xmm0, DWORD PTR __real@437f0000
  0007c	f3 0f 59 40 08	 mulss	 xmm0, DWORD PTR [eax+8]
  00081	f3 0f 2c c0	 cvttss2si eax, xmm0
  00085	0b 45 fc	 or	 eax, DWORD PTR _packValue$[ebp]
  00088	89 45 fc	 mov	 DWORD PTR _packValue$[ebp], eax

; 74   : 
; 75   : 	return packValue;

  0008b	8b 45 fc	 mov	 eax, DWORD PTR _packValue$[ebp]

; 76   : }

  0008e	c9		 leave
  0008f	c3		 ret	 0
?GetPackValue@CGraphicColor@@QBEKXZ ENDP		; CGraphicColor::GetPackValue
_TEXT	ENDS
; Function compile flags: /Odspy
; File D:\Metin2 Server Files\mainline\SRC_2014\Metin2Client\EterLib\GrpColor.cpp
;	COMDAT ?Blend@CGraphicColor@@QAEXMABV1@0@Z
_TEXT	SEGMENT
_this$ = -8						; size = 4
_q$ = -4						; size = 4
_p$ = 8							; size = 4
_c_rSrcColor$ = 12					; size = 4
_c_rDstColor$ = 16					; size = 4
?Blend@CGraphicColor@@QAEXMABV1@0@Z PROC		; CGraphicColor::Blend, COMDAT
; _this$ = ecx

; 50   : {

  00000	55		 push	 ebp
  00001	8b ec		 mov	 ebp, esp
  00003	51		 push	 ecx
  00004	51		 push	 ecx
  00005	89 4d f8	 mov	 DWORD PTR _this$[ebp], ecx

; 51   : 	float q=1.0f-p;

  00008	f3 0f 10 05 00
	00 00 00	 movss	 xmm0, DWORD PTR __real@3f800000
  00010	f3 0f 5c 45 08	 subss	 xmm0, DWORD PTR _p$[ebp]
  00015	f3 0f 11 45 fc	 movss	 DWORD PTR _q$[ebp], xmm0

; 52   : 	m_r=c_rSrcColor.m_r*q+c_rDstColor.m_r*p;

  0001a	8b 45 0c	 mov	 eax, DWORD PTR _c_rSrcColor$[ebp]
  0001d	f3 0f 10 00	 movss	 xmm0, DWORD PTR [eax]
  00021	f3 0f 59 45 fc	 mulss	 xmm0, DWORD PTR _q$[ebp]
  00026	8b 45 10	 mov	 eax, DWORD PTR _c_rDstColor$[ebp]
  00029	f3 0f 10 08	 movss	 xmm1, DWORD PTR [eax]
  0002d	f3 0f 59 4d 08	 mulss	 xmm1, DWORD PTR _p$[ebp]
  00032	f3 0f 58 c1	 addss	 xmm0, xmm1
  00036	8b 45 f8	 mov	 eax, DWORD PTR _this$[ebp]
  00039	f3 0f 11 00	 movss	 DWORD PTR [eax], xmm0

; 53   : 	m_g=c_rSrcColor.m_g*q+c_rDstColor.m_g*p;

  0003d	8b 45 0c	 mov	 eax, DWORD PTR _c_rSrcColor$[ebp]
  00040	f3 0f 10 40 04	 movss	 xmm0, DWORD PTR [eax+4]
  00045	f3 0f 59 45 fc	 mulss	 xmm0, DWORD PTR _q$[ebp]
  0004a	8b 45 10	 mov	 eax, DWORD PTR _c_rDstColor$[ebp]
  0004d	f3 0f 10 48 04	 movss	 xmm1, DWORD PTR [eax+4]
  00052	f3 0f 59 4d 08	 mulss	 xmm1, DWORD PTR _p$[ebp]
  00057	f3 0f 58 c1	 addss	 xmm0, xmm1
  0005b	8b 45 f8	 mov	 eax, DWORD PTR _this$[ebp]
  0005e	f3 0f 11 40 04	 movss	 DWORD PTR [eax+4], xmm0

; 54   : 	m_b=c_rSrcColor.m_b*q+c_rDstColor.m_b*p;

  00063	8b 45 0c	 mov	 eax, DWORD PTR _c_rSrcColor$[ebp]
  00066	f3 0f 10 40 08	 movss	 xmm0, DWORD PTR [eax+8]
  0006b	f3 0f 59 45 fc	 mulss	 xmm0, DWORD PTR _q$[ebp]
  00070	8b 45 10	 mov	 eax, DWORD PTR _c_rDstColor$[ebp]
  00073	f3 0f 10 48 08	 movss	 xmm1, DWORD PTR [eax+8]
  00078	f3 0f 59 4d 08	 mulss	 xmm1, DWORD PTR _p$[ebp]
  0007d	f3 0f 58 c1	 addss	 xmm0, xmm1
  00081	8b 45 f8	 mov	 eax, DWORD PTR _this$[ebp]
  00084	f3 0f 11 40 08	 movss	 DWORD PTR [eax+8], xmm0

; 55   : 	m_a=c_rSrcColor.m_a*q+c_rDstColor.m_a*p;

  00089	8b 45 0c	 mov	 eax, DWORD PTR _c_rSrcColor$[ebp]
  0008c	f3 0f 10 40 0c	 movss	 xmm0, DWORD PTR [eax+12]
  00091	f3 0f 59 45 fc	 mulss	 xmm0, DWORD PTR _q$[ebp]
  00096	8b 45 10	 mov	 eax, DWORD PTR _c_rDstColor$[ebp]
  00099	f3 0f 10 48 0c	 movss	 xmm1, DWORD PTR [eax+12]
  0009e	f3 0f 59 4d 08	 mulss	 xmm1, DWORD PTR _p$[ebp]
  000a3	f3 0f 58 c1	 addss	 xmm0, xmm1
  000a7	8b 45 f8	 mov	 eax, DWORD PTR _this$[ebp]
  000aa	f3 0f 11 40 0c	 movss	 DWORD PTR [eax+12], xmm0

; 56   : }

  000af	c9		 leave
  000b0	c2 0c 00	 ret	 12			; 0000000cH
?Blend@CGraphicColor@@QAEXMABV1@0@Z ENDP		; CGraphicColor::Blend
_TEXT	ENDS
; Function compile flags: /Odspy
; File D:\Metin2 Server Files\mainline\SRC_2014\Metin2Client\EterLib\GrpColor.cpp
;	COMDAT ?Set@CGraphicColor@@QAEXK@Z
_TEXT	SEGMENT
tv151 = -52						; size = 8
tv140 = -44						; size = 8
tv129 = -36						; size = 8
tv86 = -28						; size = 8
tv147 = -20						; size = 4
tv137 = -16						; size = 4
tv94 = -12						; size = 4
tv83 = -8						; size = 4
_this$ = -4						; size = 4
_pack$ = 8						; size = 4
?Set@CGraphicColor@@QAEXK@Z PROC			; CGraphicColor::Set, COMDAT
; _this$ = ecx

; 59   : {

  00000	55		 push	 ebp
  00001	8b ec		 mov	 ebp, esp
  00003	83 ec 34	 sub	 esp, 52			; 00000034H
  00006	89 4d fc	 mov	 DWORD PTR _this$[ebp], ecx

; 60   : 	m_b = (pack & 0xff) / 255.0f; pack >>= 8;

  00009	8b 45 08	 mov	 eax, DWORD PTR _pack$[ebp]
  0000c	25 ff 00 00 00	 and	 eax, 255		; 000000ffH
  00011	89 45 f8	 mov	 DWORD PTR tv83[ebp], eax
  00014	f2 0f 2a 45 f8	 cvtsi2sd xmm0, DWORD PTR tv83[ebp]
  00019	8b 45 f8	 mov	 eax, DWORD PTR tv83[ebp]
  0001c	c1 e8 1f	 shr	 eax, 31			; 0000001fH
  0001f	f2 0f 58 04 c5
	00 00 00 00	 addsd	 xmm0, QWORD PTR __xmm@41f00000000000000000000000000000[eax*8]
  00028	f2 0f 11 45 e4	 movsd	 QWORD PTR tv86[ebp], xmm0
  0002d	f2 0f 5a 45 e4	 cvtsd2ss xmm0, QWORD PTR tv86[ebp]
  00032	f3 0f 5e 05 00
	00 00 00	 divss	 xmm0, DWORD PTR __real@437f0000
  0003a	8b 45 fc	 mov	 eax, DWORD PTR _this$[ebp]
  0003d	f3 0f 11 40 08	 movss	 DWORD PTR [eax+8], xmm0
  00042	8b 45 08	 mov	 eax, DWORD PTR _pack$[ebp]
  00045	c1 e8 08	 shr	 eax, 8
  00048	89 45 08	 mov	 DWORD PTR _pack$[ebp], eax

; 61   : 	m_g = (pack & 0xff) / 255.0f; pack >>= 8;

  0004b	8b 45 08	 mov	 eax, DWORD PTR _pack$[ebp]
  0004e	25 ff 00 00 00	 and	 eax, 255		; 000000ffH
  00053	89 45 f4	 mov	 DWORD PTR tv94[ebp], eax
  00056	f2 0f 2a 45 f4	 cvtsi2sd xmm0, DWORD PTR tv94[ebp]
  0005b	8b 45 f4	 mov	 eax, DWORD PTR tv94[ebp]
  0005e	c1 e8 1f	 shr	 eax, 31			; 0000001fH
  00061	f2 0f 58 04 c5
	00 00 00 00	 addsd	 xmm0, QWORD PTR __xmm@41f00000000000000000000000000000[eax*8]
  0006a	f2 0f 11 45 dc	 movsd	 QWORD PTR tv129[ebp], xmm0
  0006f	f2 0f 5a 45 dc	 cvtsd2ss xmm0, QWORD PTR tv129[ebp]
  00074	f3 0f 5e 05 00
	00 00 00	 divss	 xmm0, DWORD PTR __real@437f0000
  0007c	8b 45 fc	 mov	 eax, DWORD PTR _this$[ebp]
  0007f	f3 0f 11 40 04	 movss	 DWORD PTR [eax+4], xmm0
  00084	8b 45 08	 mov	 eax, DWORD PTR _pack$[ebp]
  00087	c1 e8 08	 shr	 eax, 8
  0008a	89 45 08	 mov	 DWORD PTR _pack$[ebp], eax

; 62   : 	m_r = (pack & 0xff) / 255.0f; pack >>= 8;

  0008d	8b 45 08	 mov	 eax, DWORD PTR _pack$[ebp]
  00090	25 ff 00 00 00	 and	 eax, 255		; 000000ffH
  00095	89 45 f0	 mov	 DWORD PTR tv137[ebp], eax
  00098	f2 0f 2a 45 f0	 cvtsi2sd xmm0, DWORD PTR tv137[ebp]
  0009d	8b 45 f0	 mov	 eax, DWORD PTR tv137[ebp]
  000a0	c1 e8 1f	 shr	 eax, 31			; 0000001fH
  000a3	f2 0f 58 04 c5
	00 00 00 00	 addsd	 xmm0, QWORD PTR __xmm@41f00000000000000000000000000000[eax*8]
  000ac	f2 0f 11 45 d4	 movsd	 QWORD PTR tv140[ebp], xmm0
  000b1	f2 0f 5a 45 d4	 cvtsd2ss xmm0, QWORD PTR tv140[ebp]
  000b6	f3 0f 5e 05 00
	00 00 00	 divss	 xmm0, DWORD PTR __real@437f0000
  000be	8b 45 fc	 mov	 eax, DWORD PTR _this$[ebp]
  000c1	f3 0f 11 00	 movss	 DWORD PTR [eax], xmm0
  000c5	8b 45 08	 mov	 eax, DWORD PTR _pack$[ebp]
  000c8	c1 e8 08	 shr	 eax, 8
  000cb	89 45 08	 mov	 DWORD PTR _pack$[ebp], eax

; 63   : 	m_a = (pack) / 255.0f;

  000ce	8b 45 08	 mov	 eax, DWORD PTR _pack$[ebp]
  000d1	89 45 ec	 mov	 DWORD PTR tv147[ebp], eax
  000d4	f2 0f 2a 45 ec	 cvtsi2sd xmm0, DWORD PTR tv147[ebp]
  000d9	8b 45 ec	 mov	 eax, DWORD PTR tv147[ebp]
  000dc	c1 e8 1f	 shr	 eax, 31			; 0000001fH
  000df	f2 0f 58 04 c5
	00 00 00 00	 addsd	 xmm0, QWORD PTR __xmm@41f00000000000000000000000000000[eax*8]
  000e8	f2 0f 11 45 cc	 movsd	 QWORD PTR tv151[ebp], xmm0
  000ed	f2 0f 5a 45 cc	 cvtsd2ss xmm0, QWORD PTR tv151[ebp]
  000f2	f3 0f 5e 05 00
	00 00 00	 divss	 xmm0, DWORD PTR __real@437f0000
  000fa	8b 45 fc	 mov	 eax, DWORD PTR _this$[ebp]
  000fd	f3 0f 11 40 0c	 movss	 DWORD PTR [eax+12], xmm0

; 64   : }

  00102	c9		 leave
  00103	c2 04 00	 ret	 4
?Set@CGraphicColor@@QAEXK@Z ENDP			; CGraphicColor::Set
_TEXT	ENDS
; Function compile flags: /Odspy
; File D:\Metin2 Server Files\mainline\SRC_2014\Metin2Client\EterLib\GrpColor.cpp
;	COMDAT ?Set@CGraphicColor@@QAEXABV1@@Z
_TEXT	SEGMENT
_this$ = -4						; size = 4
_c_rSrcColor$ = 8					; size = 4
?Set@CGraphicColor@@QAEXABV1@@Z PROC			; CGraphicColor::Set, COMDAT
; _this$ = ecx

; 42   : {

  00000	55		 push	 ebp
  00001	8b ec		 mov	 ebp, esp
  00003	51		 push	 ecx
  00004	89 4d fc	 mov	 DWORD PTR _this$[ebp], ecx

; 43   : 	m_r=c_rSrcColor.m_r;

  00007	8b 45 fc	 mov	 eax, DWORD PTR _this$[ebp]
  0000a	8b 4d 08	 mov	 ecx, DWORD PTR _c_rSrcColor$[ebp]
  0000d	8b 09		 mov	 ecx, DWORD PTR [ecx]
  0000f	89 08		 mov	 DWORD PTR [eax], ecx

; 44   : 	m_g=c_rSrcColor.m_g;

  00011	8b 45 fc	 mov	 eax, DWORD PTR _this$[ebp]
  00014	8b 4d 08	 mov	 ecx, DWORD PTR _c_rSrcColor$[ebp]
  00017	8b 49 04	 mov	 ecx, DWORD PTR [ecx+4]
  0001a	89 48 04	 mov	 DWORD PTR [eax+4], ecx

; 45   : 	m_b=c_rSrcColor.m_b;

  0001d	8b 45 fc	 mov	 eax, DWORD PTR _this$[ebp]
  00020	8b 4d 08	 mov	 ecx, DWORD PTR _c_rSrcColor$[ebp]
  00023	8b 49 08	 mov	 ecx, DWORD PTR [ecx+8]
  00026	89 48 08	 mov	 DWORD PTR [eax+8], ecx

; 46   : 	m_a=c_rSrcColor.m_a;

  00029	8b 45 fc	 mov	 eax, DWORD PTR _this$[ebp]
  0002c	8b 4d 08	 mov	 ecx, DWORD PTR _c_rSrcColor$[ebp]
  0002f	8b 49 0c	 mov	 ecx, DWORD PTR [ecx+12]
  00032	89 48 0c	 mov	 DWORD PTR [eax+12], ecx

; 47   : }

  00035	c9		 leave
  00036	c2 04 00	 ret	 4
?Set@CGraphicColor@@QAEXABV1@@Z ENDP			; CGraphicColor::Set
_TEXT	ENDS
; Function compile flags: /Odspy
; File D:\Metin2 Server Files\mainline\SRC_2014\Metin2Client\EterLib\GrpColor.cpp
;	COMDAT ?Set@CGraphicColor@@QAEXMMMM@Z
_TEXT	SEGMENT
_this$ = -4						; size = 4
_r$ = 8							; size = 4
_g$ = 12						; size = 4
_b$ = 16						; size = 4
_a$ = 20						; size = 4
?Set@CGraphicColor@@QAEXMMMM@Z PROC			; CGraphicColor::Set, COMDAT
; _this$ = ecx

; 34   : {

  00000	55		 push	 ebp
  00001	8b ec		 mov	 ebp, esp
  00003	51		 push	 ecx
  00004	89 4d fc	 mov	 DWORD PTR _this$[ebp], ecx

; 35   : 	m_r=r;

  00007	8b 45 fc	 mov	 eax, DWORD PTR _this$[ebp]
  0000a	f3 0f 10 45 08	 movss	 xmm0, DWORD PTR _r$[ebp]
  0000f	f3 0f 11 00	 movss	 DWORD PTR [eax], xmm0

; 36   : 	m_g=g;

  00013	8b 45 fc	 mov	 eax, DWORD PTR _this$[ebp]
  00016	f3 0f 10 45 0c	 movss	 xmm0, DWORD PTR _g$[ebp]
  0001b	f3 0f 11 40 04	 movss	 DWORD PTR [eax+4], xmm0

; 37   : 	m_b=b;

  00020	8b 45 fc	 mov	 eax, DWORD PTR _this$[ebp]
  00023	f3 0f 10 45 10	 movss	 xmm0, DWORD PTR _b$[ebp]
  00028	f3 0f 11 40 08	 movss	 DWORD PTR [eax+8], xmm0

; 38   : 	m_a=a;

  0002d	8b 45 fc	 mov	 eax, DWORD PTR _this$[ebp]
  00030	f3 0f 10 45 14	 movss	 xmm0, DWORD PTR _a$[ebp]
  00035	f3 0f 11 40 0c	 movss	 DWORD PTR [eax+12], xmm0

; 39   : }

  0003a	c9		 leave
  0003b	c2 10 00	 ret	 16			; 00000010H
?Set@CGraphicColor@@QAEXMMMM@Z ENDP			; CGraphicColor::Set
_TEXT	ENDS
; Function compile flags: /Odspy
; File D:\Metin2 Server Files\mainline\SRC_2014\Metin2Client\EterLib\GrpColor.cpp
;	COMDAT ?Clear@CGraphicColor@@QAEXXZ
_TEXT	SEGMENT
_this$ = -4						; size = 4
?Clear@CGraphicColor@@QAEXXZ PROC			; CGraphicColor::Clear, COMDAT
; _this$ = ecx

; 29   : {

  00000	55		 push	 ebp
  00001	8b ec		 mov	 ebp, esp
  00003	51		 push	 ecx
  00004	89 4d fc	 mov	 DWORD PTR _this$[ebp], ecx

; 30   : 	Set(1.0f, 1.0f, 1.0f, 1.0f);

  00007	51		 push	 ecx
  00008	f3 0f 10 05 00
	00 00 00	 movss	 xmm0, DWORD PTR __real@3f800000
  00010	f3 0f 11 04 24	 movss	 DWORD PTR [esp], xmm0
  00015	51		 push	 ecx
  00016	f3 0f 10 05 00
	00 00 00	 movss	 xmm0, DWORD PTR __real@3f800000
  0001e	f3 0f 11 04 24	 movss	 DWORD PTR [esp], xmm0
  00023	51		 push	 ecx
  00024	f3 0f 10 05 00
	00 00 00	 movss	 xmm0, DWORD PTR __real@3f800000
  0002c	f3 0f 11 04 24	 movss	 DWORD PTR [esp], xmm0
  00031	51		 push	 ecx
  00032	f3 0f 10 05 00
	00 00 00	 movss	 xmm0, DWORD PTR __real@3f800000
  0003a	f3 0f 11 04 24	 movss	 DWORD PTR [esp], xmm0
  0003f	8b 4d fc	 mov	 ecx, DWORD PTR _this$[ebp]
  00042	e8 00 00 00 00	 call	 ?Set@CGraphicColor@@QAEXMMMM@Z ; CGraphicColor::Set

; 31   : }

  00047	c9		 leave
  00048	c3		 ret	 0
?Clear@CGraphicColor@@QAEXXZ ENDP			; CGraphicColor::Clear
_TEXT	ENDS
; Function compile flags: /Odspy
; File D:\Metin2 Server Files\mainline\SRC_2014\Metin2Client\EterLib\GrpColor.cpp
;	COMDAT ??1CGraphicColor@@QAE@XZ
_TEXT	SEGMENT
_this$ = -4						; size = 4
??1CGraphicColor@@QAE@XZ PROC				; CGraphicColor::~CGraphicColor, COMDAT
; _this$ = ecx

; 25   : {

  00000	55		 push	 ebp
  00001	8b ec		 mov	 ebp, esp
  00003	51		 push	 ecx
  00004	89 4d fc	 mov	 DWORD PTR _this$[ebp], ecx

; 26   : }

  00007	c9		 leave
  00008	c3		 ret	 0
??1CGraphicColor@@QAE@XZ ENDP				; CGraphicColor::~CGraphicColor
_TEXT	ENDS
; Function compile flags: /Odspy
; File D:\Metin2 Server Files\mainline\SRC_2014\Metin2Client\EterLib\GrpColor.cpp
;	COMDAT ??0CGraphicColor@@QAE@XZ
_TEXT	SEGMENT
_this$ = -4						; size = 4
??0CGraphicColor@@QAE@XZ PROC				; CGraphicColor::CGraphicColor, COMDAT
; _this$ = ecx

; 5    : {

  00000	55		 push	 ebp
  00001	8b ec		 mov	 ebp, esp
  00003	51		 push	 ecx
  00004	89 4d fc	 mov	 DWORD PTR _this$[ebp], ecx

; 6    : 	Clear();

  00007	8b 4d fc	 mov	 ecx, DWORD PTR _this$[ebp]
  0000a	e8 00 00 00 00	 call	 ?Clear@CGraphicColor@@QAEXXZ ; CGraphicColor::Clear

; 7    : }

  0000f	8b 45 fc	 mov	 eax, DWORD PTR _this$[ebp]
  00012	c9		 leave
  00013	c3		 ret	 0
??0CGraphicColor@@QAE@XZ ENDP				; CGraphicColor::CGraphicColor
_TEXT	ENDS
; Function compile flags: /Odspy
; File D:\Metin2 Server Files\mainline\SRC_2014\Metin2Client\EterLib\GrpColor.cpp
;	COMDAT ??0CGraphicColor@@QAE@K@Z
_TEXT	SEGMENT
_this$ = -4						; size = 4
_color$ = 8						; size = 4
??0CGraphicColor@@QAE@K@Z PROC				; CGraphicColor::CGraphicColor, COMDAT
; _this$ = ecx

; 20   : {

  00000	55		 push	 ebp
  00001	8b ec		 mov	 ebp, esp
  00003	51		 push	 ecx
  00004	89 4d fc	 mov	 DWORD PTR _this$[ebp], ecx

; 21   : 	Set(color);

  00007	ff 75 08	 push	 DWORD PTR _color$[ebp]
  0000a	8b 4d fc	 mov	 ecx, DWORD PTR _this$[ebp]
  0000d	e8 00 00 00 00	 call	 ?Set@CGraphicColor@@QAEXK@Z ; CGraphicColor::Set

; 22   : }

  00012	8b 45 fc	 mov	 eax, DWORD PTR _this$[ebp]
  00015	c9		 leave
  00016	c2 04 00	 ret	 4
??0CGraphicColor@@QAE@K@Z ENDP				; CGraphicColor::CGraphicColor
_TEXT	ENDS
; Function compile flags: /Odspy
; File D:\Metin2 Server Files\mainline\SRC_2014\Metin2Client\EterLib\GrpColor.cpp
;	COMDAT ??0CGraphicColor@@QAE@MMMM@Z
_TEXT	SEGMENT
_this$ = -4						; size = 4
_r$ = 8							; size = 4
_g$ = 12						; size = 4
_b$ = 16						; size = 4
_a$ = 20						; size = 4
??0CGraphicColor@@QAE@MMMM@Z PROC			; CGraphicColor::CGraphicColor, COMDAT
; _this$ = ecx

; 15   : {

  00000	55		 push	 ebp
  00001	8b ec		 mov	 ebp, esp
  00003	51		 push	 ecx
  00004	89 4d fc	 mov	 DWORD PTR _this$[ebp], ecx

; 16   : 	Set(r, g, b, a);

  00007	51		 push	 ecx
  00008	f3 0f 10 45 14	 movss	 xmm0, DWORD PTR _a$[ebp]
  0000d	f3 0f 11 04 24	 movss	 DWORD PTR [esp], xmm0
  00012	51		 push	 ecx
  00013	f3 0f 10 45 10	 movss	 xmm0, DWORD PTR _b$[ebp]
  00018	f3 0f 11 04 24	 movss	 DWORD PTR [esp], xmm0
  0001d	51		 push	 ecx
  0001e	f3 0f 10 45 0c	 movss	 xmm0, DWORD PTR _g$[ebp]
  00023	f3 0f 11 04 24	 movss	 DWORD PTR [esp], xmm0
  00028	51		 push	 ecx
  00029	f3 0f 10 45 08	 movss	 xmm0, DWORD PTR _r$[ebp]
  0002e	f3 0f 11 04 24	 movss	 DWORD PTR [esp], xmm0
  00033	8b 4d fc	 mov	 ecx, DWORD PTR _this$[ebp]
  00036	e8 00 00 00 00	 call	 ?Set@CGraphicColor@@QAEXMMMM@Z ; CGraphicColor::Set

; 17   : }

  0003b	8b 45 fc	 mov	 eax, DWORD PTR _this$[ebp]
  0003e	c9		 leave
  0003f	c2 10 00	 ret	 16			; 00000010H
??0CGraphicColor@@QAE@MMMM@Z ENDP			; CGraphicColor::CGraphicColor
_TEXT	ENDS
; Function compile flags: /Odspy
; File D:\Metin2 Server Files\mainline\SRC_2014\Metin2Client\EterLib\GrpColor.cpp
;	COMDAT ??0CGraphicColor@@QAE@ABV0@@Z
_TEXT	SEGMENT
_this$ = -4						; size = 4
_c_rSrcColor$ = 8					; size = 4
??0CGraphicColor@@QAE@ABV0@@Z PROC			; CGraphicColor::CGraphicColor, COMDAT
; _this$ = ecx

; 10   : {

  00000	55		 push	 ebp
  00001	8b ec		 mov	 ebp, esp
  00003	51		 push	 ecx
  00004	89 4d fc	 mov	 DWORD PTR _this$[ebp], ecx

; 11   : 	Set(c_rSrcColor);

  00007	ff 75 08	 push	 DWORD PTR _c_rSrcColor$[ebp]
  0000a	8b 4d fc	 mov	 ecx, DWORD PTR _this$[ebp]
  0000d	e8 00 00 00 00	 call	 ?Set@CGraphicColor@@QAEXABV1@@Z ; CGraphicColor::Set

; 12   : }

  00012	8b 45 fc	 mov	 eax, DWORD PTR _this$[ebp]
  00015	c9		 leave
  00016	c2 04 00	 ret	 4
??0CGraphicColor@@QAE@ABV0@@Z ENDP			; CGraphicColor::CGraphicColor
_TEXT	ENDS
END
