; Listing generated by Microsoft (R) Optimizing Compiler Version 19.28.29335.0 

	TITLE	D:\Metin2 Server Files\mainline\SRC_2014\Metin2Client\EterLib\GrpCollisionObject.cpp
	.686P
	.XMM
	include listing.inc
	.model	flat

INCLUDELIB LIBCMT
INCLUDELIB OLDNAMES

PUBLIC	??_H@YGXPAXIIP6EPAX0@Z@Z			; `vector constructor iterator'
PUBLIC	??0CGraphicCollisionObject@@QAE@XZ		; CGraphicCollisionObject::CGraphicCollisionObject
PUBLIC	??1CGraphicCollisionObject@@UAE@XZ		; CGraphicCollisionObject::~CGraphicCollisionObject
PUBLIC	?IntersectTriangle@CGraphicCollisionObject@@IAE_NABUD3DXVECTOR3@@0000PAM11@Z ; CGraphicCollisionObject::IntersectTriangle
PUBLIC	?IntersectBoundBox@CGraphicCollisionObject@@IAE_NPBUD3DXMATRIX@@ABUSBoundBox@@PAM22@Z ; CGraphicCollisionObject::IntersectBoundBox
PUBLIC	?IntersectCube@CGraphicCollisionObject@@IAE_NPBUD3DXMATRIX@@MMMMMMAAUD3DXVECTOR3@@1PAM22@Z ; CGraphicCollisionObject::IntersectCube
PUBLIC	?IntersectIndexedMesh@CGraphicCollisionObject@@IAE_NPBUD3DXMATRIX@@PBXHH1HAAUD3DXVECTOR3@@2PAM33@Z ; CGraphicCollisionObject::IntersectIndexedMesh
PUBLIC	?IntersectMesh@CGraphicCollisionObject@@IAE_NPBUD3DXMATRIX@@PBXKKAAUD3DXVECTOR3@@2PAM33@Z ; CGraphicCollisionObject::IntersectMesh
PUBLIC	?IntersectSphere@CGraphicCollisionObject@@IAE_NABUD3DXVECTOR3@@M00@Z ; CGraphicCollisionObject::IntersectSphere
PUBLIC	?IntersectCylinder@CGraphicCollisionObject@@IAE_NABUD3DXVECTOR3@@MM00@Z ; CGraphicCollisionObject::IntersectCylinder
PUBLIC	?IntersectSphere@CGraphicCollisionObject@@IAE_NABUD3DXVECTOR3@@M@Z ; CGraphicCollisionObject::IntersectSphere
PUBLIC	?IntersectCylinder@CGraphicCollisionObject@@IAE_NABUD3DXVECTOR3@@MM@Z ; CGraphicCollisionObject::IntersectCylinder
PUBLIC	??_GCGraphicCollisionObject@@UAEPAXI@Z		; CGraphicCollisionObject::`scalar deleting destructor'
PUBLIC	??_7CGraphicCollisionObject@@6B@		; CGraphicCollisionObject::`vftable'
PUBLIC	??_C@_0FD@DGCNMMBC@The?5vertex?5count?5of?5mesh?5which?5@ ; `string'
PUBLIC	??_R4CGraphicCollisionObject@@6B@		; CGraphicCollisionObject::`RTTI Complete Object Locator'
PUBLIC	??_R0?AVCGraphicCollisionObject@@@8		; CGraphicCollisionObject `RTTI Type Descriptor'
PUBLIC	??_R3CGraphicCollisionObject@@8			; CGraphicCollisionObject::`RTTI Class Hierarchy Descriptor'
PUBLIC	??_R2CGraphicCollisionObject@@8			; CGraphicCollisionObject::`RTTI Base Class Array'
PUBLIC	??_R1A@?0A@EA@CGraphicCollisionObject@@8	; CGraphicCollisionObject::`RTTI Base Class Descriptor at (0,-1,0,64)'
PUBLIC	??_R1A@?0A@EA@CGraphicBase@@8			; CGraphicBase::`RTTI Base Class Descriptor at (0,-1,0,64)'
PUBLIC	??_R0?AVCGraphicBase@@@8			; CGraphicBase `RTTI Type Descriptor'
PUBLIC	??_R3CGraphicBase@@8				; CGraphicBase::`RTTI Class Hierarchy Descriptor'
PUBLIC	??_R2CGraphicBase@@8				; CGraphicBase::`RTTI Base Class Array'
PUBLIC	__real@00000000
PUBLIC	__real@38d1b717
PUBLIC	__real@3f800000
PUBLIC	__real@40000000
PUBLIC	__real@40800000
PUBLIC	__xmm@80000000800000008000000080000000
EXTRN	??3@YAXPAXI@Z:PROC				; operator delete
EXTRN	__Init_thread_header:PROC
EXTRN	__Init_thread_footer:PROC
EXTRN	_sqrt:PROC
EXTRN	_D3DXVec3TransformCoord@12:PROC
EXTRN	?Tracef@@YAXPBDZZ:PROC				; Tracef
EXTRN	??0CGraphicBase@@QAE@XZ:PROC			; CGraphicBase::CGraphicBase
EXTRN	??1CGraphicBase@@UAE@XZ:PROC			; CGraphicBase::~CGraphicBase
EXTRN	??_ECGraphicCollisionObject@@UAEPAXI@Z:PROC	; CGraphicCollisionObject::`vector deleting destructor'
EXTRN	@__security_check_cookie@4:PROC
EXTRN	__Init_thread_epoch:DWORD
EXTRN	??_7type_info@@6B@:QWORD			; type_info::`vftable'
EXTRN	?ms_vtPickRayOrig@CGraphicBase@@1UD3DXVECTOR3@@A:BYTE ; CGraphicBase::ms_vtPickRayOrig
EXTRN	?ms_vtPickRayDir@CGraphicBase@@1UD3DXVECTOR3@@A:BYTE ; CGraphicBase::ms_vtPickRayDir
EXTRN	___security_cookie:DWORD
EXTRN	__fltused:DWORD
EXTRN	__tls_array:DWORD
EXTRN	__tls_index:DWORD
;	COMDAT ?s_v3PositionArray@?1??IntersectIndexedMesh@CGraphicCollisionObject@@IAE_NPBUD3DXMATRIX@@PBXHH1HAAUD3DXVECTOR3@@2PAM33@Z@4PAU4@A
_BSS	SEGMENT
?s_v3PositionArray@?1??IntersectIndexedMesh@CGraphicCollisionObject@@IAE_NPBUD3DXMATRIX@@PBXHH1HAAUD3DXVECTOR3@@2PAM33@Z@4PAU4@A DB 03000H DUP (?) ; `CGraphicCollisionObject::IntersectIndexedMesh'::`2'::s_v3PositionArray
_BSS	ENDS
;	COMDAT ?$TSS0@?1??IntersectIndexedMesh@CGraphicCollisionObject@@IAE_NPBUD3DXMATRIX@@PBXHH1HAAUD3DXVECTOR3@@2PAM33@Z@4HA
_BSS	SEGMENT
?$TSS0@?1??IntersectIndexedMesh@CGraphicCollisionObject@@IAE_NPBUD3DXMATRIX@@PBXHH1HAAUD3DXVECTOR3@@2PAM33@Z@4HA DD 01H DUP (?) ; `CGraphicCollisionObject::IntersectIndexedMesh'::`2'::$TSS0
_BSS	ENDS
;	COMDAT ?s_dwPositionCount@?1??IntersectIndexedMesh@CGraphicCollisionObject@@IAE_NPBUD3DXMATRIX@@PBXHH1HAAUD3DXVECTOR3@@2PAM33@Z@4KA
_BSS	SEGMENT
?s_dwPositionCount@?1??IntersectIndexedMesh@CGraphicCollisionObject@@IAE_NPBUD3DXMATRIX@@PBXHH1HAAUD3DXVECTOR3@@2PAM33@Z@4KA DD 01H DUP (?) ; `CGraphicCollisionObject::IntersectIndexedMesh'::`2'::s_dwPositionCount
_BSS	ENDS
;	COMDAT __xmm@80000000800000008000000080000000
CONST	SEGMENT
__xmm@80000000800000008000000080000000 DB 00H, 00H, 00H, 080H, 00H, 00H, 00H
	DB	080H, 00H, 00H, 00H, 080H, 00H, 00H, 00H, 080H
CONST	ENDS
;	COMDAT __real@40800000
CONST	SEGMENT
__real@40800000 DD 040800000r			; 4
CONST	ENDS
;	COMDAT __real@40000000
CONST	SEGMENT
__real@40000000 DD 040000000r			; 2
CONST	ENDS
;	COMDAT __real@3f800000
CONST	SEGMENT
__real@3f800000 DD 03f800000r			; 1
CONST	ENDS
;	COMDAT __real@38d1b717
CONST	SEGMENT
__real@38d1b717 DD 038d1b717r			; 0.0001
CONST	ENDS
;	COMDAT __real@00000000
CONST	SEGMENT
__real@00000000 DD 000000000r			; 0
CONST	ENDS
;	COMDAT ??_R2CGraphicBase@@8
rdata$r	SEGMENT
??_R2CGraphicBase@@8 DD FLAT:??_R1A@?0A@EA@CGraphicBase@@8 ; CGraphicBase::`RTTI Base Class Array'
rdata$r	ENDS
;	COMDAT ??_R3CGraphicBase@@8
rdata$r	SEGMENT
??_R3CGraphicBase@@8 DD 00H				; CGraphicBase::`RTTI Class Hierarchy Descriptor'
	DD	00H
	DD	01H
	DD	FLAT:??_R2CGraphicBase@@8
rdata$r	ENDS
;	COMDAT ??_R0?AVCGraphicBase@@@8
data$rs	SEGMENT
??_R0?AVCGraphicBase@@@8 DD FLAT:??_7type_info@@6B@	; CGraphicBase `RTTI Type Descriptor'
	DD	00H
	DB	'.?AVCGraphicBase@@', 00H
data$rs	ENDS
;	COMDAT ??_R1A@?0A@EA@CGraphicBase@@8
rdata$r	SEGMENT
??_R1A@?0A@EA@CGraphicBase@@8 DD FLAT:??_R0?AVCGraphicBase@@@8 ; CGraphicBase::`RTTI Base Class Descriptor at (0,-1,0,64)'
	DD	00H
	DD	00H
	DD	0ffffffffH
	DD	00H
	DD	040H
	DD	FLAT:??_R3CGraphicBase@@8
rdata$r	ENDS
;	COMDAT ??_R1A@?0A@EA@CGraphicCollisionObject@@8
rdata$r	SEGMENT
??_R1A@?0A@EA@CGraphicCollisionObject@@8 DD FLAT:??_R0?AVCGraphicCollisionObject@@@8 ; CGraphicCollisionObject::`RTTI Base Class Descriptor at (0,-1,0,64)'
	DD	01H
	DD	00H
	DD	0ffffffffH
	DD	00H
	DD	040H
	DD	FLAT:??_R3CGraphicCollisionObject@@8
rdata$r	ENDS
;	COMDAT ??_R2CGraphicCollisionObject@@8
rdata$r	SEGMENT
??_R2CGraphicCollisionObject@@8 DD FLAT:??_R1A@?0A@EA@CGraphicCollisionObject@@8 ; CGraphicCollisionObject::`RTTI Base Class Array'
	DD	FLAT:??_R1A@?0A@EA@CGraphicBase@@8
rdata$r	ENDS
;	COMDAT ??_R3CGraphicCollisionObject@@8
rdata$r	SEGMENT
??_R3CGraphicCollisionObject@@8 DD 00H			; CGraphicCollisionObject::`RTTI Class Hierarchy Descriptor'
	DD	00H
	DD	02H
	DD	FLAT:??_R2CGraphicCollisionObject@@8
rdata$r	ENDS
;	COMDAT ??_R0?AVCGraphicCollisionObject@@@8
data$rs	SEGMENT
??_R0?AVCGraphicCollisionObject@@@8 DD FLAT:??_7type_info@@6B@ ; CGraphicCollisionObject `RTTI Type Descriptor'
	DD	00H
	DB	'.?AVCGraphicCollisionObject@@', 00H
data$rs	ENDS
;	COMDAT ??_R4CGraphicCollisionObject@@6B@
rdata$r	SEGMENT
??_R4CGraphicCollisionObject@@6B@ DD 00H		; CGraphicCollisionObject::`RTTI Complete Object Locator'
	DD	00H
	DD	00H
	DD	FLAT:??_R0?AVCGraphicCollisionObject@@@8
	DD	FLAT:??_R3CGraphicCollisionObject@@8
rdata$r	ENDS
;	COMDAT ??_C@_0FD@DGCNMMBC@The?5vertex?5count?5of?5mesh?5which?5@
CONST	SEGMENT
??_C@_0FD@DGCNMMBC@The?5vertex?5count?5of?5mesh?5which?5@ DB 'The vertex '
	DB	'count of mesh which is worked collision detection is too much'
	DB	' : %d / %d', 00H				; `string'
CONST	ENDS
;	COMDAT ?c_awFillCubeIndices@?1??IntersectCube@CGraphicCollisionObject@@IAE_NPBUD3DXMATRIX@@MMMMMMAAUD3DXVECTOR3@@1PAM22@Z@4QBGB
CONST	SEGMENT
?c_awFillCubeIndices@?1??IntersectCube@CGraphicCollisionObject@@IAE_NPBUD3DXMATRIX@@MMMMMMAAUD3DXVECTOR3@@1PAM22@Z@4QBGB DW 00H ; `CGraphicCollisionObject::IntersectCube'::`2'::c_awFillCubeIndices
	DW	01H
	DW	02H
	DW	01H
	DW	03H
	DW	02H
	DW	02H
	DW	00H
	DW	06H
	DW	00H
	DW	04H
	DW	06H
	DW	00H
	DW	01H
	DW	04H
	DW	01H
	DW	05H
	DW	04H
	DW	01H
	DW	03H
	DW	05H
	DW	03H
	DW	07H
	DW	05H
	DW	03H
	DW	02H
	DW	07H
	DW	02H
	DW	06H
	DW	07H
	DW	04H
	DW	05H
	DW	06H
	DW	05H
	DW	07H
	DW	06H
CONST	ENDS
;	COMDAT ??_7CGraphicCollisionObject@@6B@
CONST	SEGMENT
??_7CGraphicCollisionObject@@6B@ DD FLAT:??_R4CGraphicCollisionObject@@6B@ ; CGraphicCollisionObject::`vftable'
	DD	FLAT:??_ECGraphicCollisionObject@@UAEPAXI@Z
CONST	ENDS
; Function compile flags: /Odspy
;	COMDAT ??_GCGraphicCollisionObject@@UAEPAXI@Z
_TEXT	SEGMENT
_this$ = -4						; size = 4
___flags$ = 8						; size = 4
??_GCGraphicCollisionObject@@UAEPAXI@Z PROC		; CGraphicCollisionObject::`scalar deleting destructor', COMDAT
; _this$ = ecx
  00000	55		 push	 ebp
  00001	8b ec		 mov	 ebp, esp
  00003	51		 push	 ecx
  00004	89 4d fc	 mov	 DWORD PTR _this$[ebp], ecx
  00007	8b 4d fc	 mov	 ecx, DWORD PTR _this$[ebp]
  0000a	e8 00 00 00 00	 call	 ??1CGraphicCollisionObject@@UAE@XZ ; CGraphicCollisionObject::~CGraphicCollisionObject
  0000f	8b 45 08	 mov	 eax, DWORD PTR ___flags$[ebp]
  00012	83 e0 01	 and	 eax, 1
  00015	74 0c		 je	 SHORT $LN2@scalar
  00017	6a 04		 push	 4
  00019	ff 75 fc	 push	 DWORD PTR _this$[ebp]
  0001c	e8 00 00 00 00	 call	 ??3@YAXPAXI@Z		; operator delete
  00021	59		 pop	 ecx
  00022	59		 pop	 ecx
$LN2@scalar:
  00023	8b 45 fc	 mov	 eax, DWORD PTR _this$[ebp]
  00026	c9		 leave
  00027	c2 04 00	 ret	 4
??_GCGraphicCollisionObject@@UAEPAXI@Z ENDP		; CGraphicCollisionObject::`scalar deleting destructor'
_TEXT	ENDS
; Function compile flags: /Odspy
; File D:\Metin2 Server Files\mainline\SRC_2014\Metin2Client\EterLib\GrpCollisionObject.cpp
;	COMDAT ?IntersectCylinder@CGraphicCollisionObject@@IAE_NABUD3DXVECTOR3@@MM@Z
_TEXT	SEGMENT
_this$ = -4						; size = 4
_c_rv3Position$ = 8					; size = 4
_fRadius$ = 12						; size = 4
_fHeight$ = 16						; size = 4
?IntersectCylinder@CGraphicCollisionObject@@IAE_NABUD3DXVECTOR3@@MM@Z PROC ; CGraphicCollisionObject::IntersectCylinder, COMDAT
; _this$ = ecx

; 230  : {

  00000	55		 push	 ebp
  00001	8b ec		 mov	 ebp, esp
  00003	51		 push	 ecx
  00004	89 4d fc	 mov	 DWORD PTR _this$[ebp], ecx

; 231  : 	return CGraphicCollisionObject::IntersectCylinder(c_rv3Position, fRadius, fHeight, ms_vtPickRayOrig, ms_vtPickRayDir);

  00007	68 00 00 00 00	 push	 OFFSET ?ms_vtPickRayDir@CGraphicBase@@1UD3DXVECTOR3@@A ; CGraphicBase::ms_vtPickRayDir
  0000c	68 00 00 00 00	 push	 OFFSET ?ms_vtPickRayOrig@CGraphicBase@@1UD3DXVECTOR3@@A ; CGraphicBase::ms_vtPickRayOrig
  00011	51		 push	 ecx
  00012	f3 0f 10 45 10	 movss	 xmm0, DWORD PTR _fHeight$[ebp]
  00017	f3 0f 11 04 24	 movss	 DWORD PTR [esp], xmm0
  0001c	51		 push	 ecx
  0001d	f3 0f 10 45 0c	 movss	 xmm0, DWORD PTR _fRadius$[ebp]
  00022	f3 0f 11 04 24	 movss	 DWORD PTR [esp], xmm0
  00027	ff 75 08	 push	 DWORD PTR _c_rv3Position$[ebp]
  0002a	8b 4d fc	 mov	 ecx, DWORD PTR _this$[ebp]
  0002d	e8 00 00 00 00	 call	 ?IntersectCylinder@CGraphicCollisionObject@@IAE_NABUD3DXVECTOR3@@MM00@Z ; CGraphicCollisionObject::IntersectCylinder

; 232  : }

  00032	c9		 leave
  00033	c2 0c 00	 ret	 12			; 0000000cH
?IntersectCylinder@CGraphicCollisionObject@@IAE_NABUD3DXVECTOR3@@MM@Z ENDP ; CGraphicCollisionObject::IntersectCylinder
_TEXT	ENDS
; Function compile flags: /Odspy
; File D:\Metin2 Server Files\mainline\SRC_2014\Metin2Client\EterLib\GrpCollisionObject.cpp
;	COMDAT ?IntersectSphere@CGraphicCollisionObject@@IAE_NABUD3DXVECTOR3@@M@Z
_TEXT	SEGMENT
_this$ = -4						; size = 4
_c_rv3Position$ = 8					; size = 4
_fRadius$ = 12						; size = 4
?IntersectSphere@CGraphicCollisionObject@@IAE_NABUD3DXVECTOR3@@M@Z PROC ; CGraphicCollisionObject::IntersectSphere, COMDAT
; _this$ = ecx

; 225  : {

  00000	55		 push	 ebp
  00001	8b ec		 mov	 ebp, esp
  00003	51		 push	 ecx
  00004	89 4d fc	 mov	 DWORD PTR _this$[ebp], ecx

; 226  : 	return CGraphicCollisionObject::IntersectSphere(c_rv3Position, fRadius, ms_vtPickRayOrig, ms_vtPickRayDir);

  00007	68 00 00 00 00	 push	 OFFSET ?ms_vtPickRayDir@CGraphicBase@@1UD3DXVECTOR3@@A ; CGraphicBase::ms_vtPickRayDir
  0000c	68 00 00 00 00	 push	 OFFSET ?ms_vtPickRayOrig@CGraphicBase@@1UD3DXVECTOR3@@A ; CGraphicBase::ms_vtPickRayOrig
  00011	51		 push	 ecx
  00012	f3 0f 10 45 0c	 movss	 xmm0, DWORD PTR _fRadius$[ebp]
  00017	f3 0f 11 04 24	 movss	 DWORD PTR [esp], xmm0
  0001c	ff 75 08	 push	 DWORD PTR _c_rv3Position$[ebp]
  0001f	8b 4d fc	 mov	 ecx, DWORD PTR _this$[ebp]
  00022	e8 00 00 00 00	 call	 ?IntersectSphere@CGraphicCollisionObject@@IAE_NABUD3DXVECTOR3@@M00@Z ; CGraphicCollisionObject::IntersectSphere

; 227  : }

  00027	c9		 leave
  00028	c2 08 00	 ret	 8
?IntersectSphere@CGraphicCollisionObject@@IAE_NABUD3DXVECTOR3@@M@Z ENDP ; CGraphicCollisionObject::IntersectSphere
_TEXT	ENDS
; Function compile flags: /Odspy
; File D:\Metin2 Server Files\mainline\SRC_2014\Metin2Client\EterLib\GrpCollisionObject.cpp
; File D:\Metin2 Server Files\mainline\SRC_2014\M2Data\include\d3dx8math.inl
; File D:\Metin2 Server Files\mainline\SRC_2014\Metin2Client\EterLib\GrpCollisionObject.cpp
; File C:\Program Files (x86)\Windows Kits\10\Include\10.0.18362.0\ucrt\corecrt_math.h
; File D:\Metin2 Server Files\mainline\SRC_2014\Metin2Client\EterLib\GrpCollisionObject.cpp
; File C:\Program Files (x86)\Windows Kits\10\Include\10.0.18362.0\ucrt\corecrt_math.h
; File D:\Metin2 Server Files\mainline\SRC_2014\Metin2Client\EterLib\GrpCollisionObject.cpp
;	COMDAT ?IntersectCylinder@CGraphicCollisionObject@@IAE_NABUD3DXVECTOR3@@MM00@Z
_TEXT	SEGMENT
_this$ = -88						; size = 4
_tMinus$1 = -84						; size = 4
_tPlus$2 = -80						; size = 4
tv353 = -76						; size = 4
tv375 = -72						; size = 4
tv352 = -68						; size = 4
tv345 = -64						; size = 4
tv373 = -60						; size = 4
tv344 = -56						; size = 4
_c$ = -52						; size = 4
_fz$ = -48						; size = 4
_fy$ = -44						; size = 4
_fx$ = -40						; size = 4
_fzPlus$3 = -36						; size = 4
_fzMinus$4 = -32					; size = 4
_D$ = -28						; size = 4
_a$ = -24						; size = 4
_b$ = -20						; size = 4
_v3RayOriginal$ = -16					; size = 12
__$ArrayPad$ = -4					; size = 4
_c_rv3Position$ = 8					; size = 4
_fRadius$ = 12						; size = 4
_fHeight$ = 16						; size = 4
_c_rv3RayOriginal$ = 20					; size = 4
_c_rv3RayDirection$ = 24				; size = 4
?IntersectCylinder@CGraphicCollisionObject@@IAE_NABUD3DXVECTOR3@@MM00@Z PROC ; CGraphicCollisionObject::IntersectCylinder, COMDAT
; _this$ = ecx

; 197  : {

  00000	55		 push	 ebp
  00001	8b ec		 mov	 ebp, esp
  00003	83 ec 58	 sub	 esp, 88			; 00000058H
  00006	a1 00 00 00 00	 mov	 eax, DWORD PTR ___security_cookie
  0000b	33 c5		 xor	 eax, ebp
  0000d	89 45 fc	 mov	 DWORD PTR __$ArrayPad$[ebp], eax
  00010	89 4d a8	 mov	 DWORD PTR _this$[ebp], ecx
; File D:\Metin2 Server Files\mainline\SRC_2014\M2Data\include\d3dx8math.inl

; 263  :     return D3DXVECTOR3(x - v.x, y - v.y, z - v.z);

  00013	8b 45 14	 mov	 eax, DWORD PTR _c_rv3RayOriginal$[ebp]
  00016	8b 4d 08	 mov	 ecx, DWORD PTR _c_rv3Position$[ebp]
  00019	f3 0f 10 00	 movss	 xmm0, DWORD PTR [eax]
  0001d	f3 0f 5c 01	 subss	 xmm0, DWORD PTR [ecx]
  00021	f3 0f 11 45 d8	 movss	 DWORD PTR _fx$[ebp], xmm0
  00026	8b 45 14	 mov	 eax, DWORD PTR _c_rv3RayOriginal$[ebp]
  00029	8b 4d 08	 mov	 ecx, DWORD PTR _c_rv3Position$[ebp]
  0002c	f3 0f 10 40 04	 movss	 xmm0, DWORD PTR [eax+4]
  00031	f3 0f 5c 41 04	 subss	 xmm0, DWORD PTR [ecx+4]
  00036	f3 0f 11 45 d4	 movss	 DWORD PTR _fy$[ebp], xmm0
  0003b	8b 45 14	 mov	 eax, DWORD PTR _c_rv3RayOriginal$[ebp]
  0003e	8b 4d 08	 mov	 ecx, DWORD PTR _c_rv3Position$[ebp]
  00041	f3 0f 10 40 08	 movss	 xmm0, DWORD PTR [eax+8]
  00046	f3 0f 5c 41 08	 subss	 xmm0, DWORD PTR [ecx+8]
  0004b	f3 0f 11 45 d0	 movss	 DWORD PTR _fz$[ebp], xmm0

; 180  :     x = fx;

  00050	f3 0f 10 45 d8	 movss	 xmm0, DWORD PTR _fx$[ebp]
  00055	f3 0f 11 45 f0	 movss	 DWORD PTR _v3RayOriginal$[ebp], xmm0

; 181  :     y = fy;

  0005a	f3 0f 10 45 d4	 movss	 xmm0, DWORD PTR _fy$[ebp]
  0005f	f3 0f 11 45 f4	 movss	 DWORD PTR _v3RayOriginal$[ebp+4], xmm0

; 182  :     z = fz;

  00064	f3 0f 10 45 d0	 movss	 xmm0, DWORD PTR _fz$[ebp]
  00069	f3 0f 11 45 f8	 movss	 DWORD PTR _v3RayOriginal$[ebp+8], xmm0
; File D:\Metin2 Server Files\mainline\SRC_2014\Metin2Client\EterLib\GrpCollisionObject.cpp

; 200  : 	float a = c_rv3RayDirection.x * c_rv3RayDirection.x + c_rv3RayDirection.y * c_rv3RayDirection.y;

  0006e	8b 45 18	 mov	 eax, DWORD PTR _c_rv3RayDirection$[ebp]
  00071	8b 4d 18	 mov	 ecx, DWORD PTR _c_rv3RayDirection$[ebp]
  00074	f3 0f 10 00	 movss	 xmm0, DWORD PTR [eax]
  00078	f3 0f 59 01	 mulss	 xmm0, DWORD PTR [ecx]
  0007c	8b 45 18	 mov	 eax, DWORD PTR _c_rv3RayDirection$[ebp]
  0007f	8b 4d 18	 mov	 ecx, DWORD PTR _c_rv3RayDirection$[ebp]
  00082	f3 0f 10 48 04	 movss	 xmm1, DWORD PTR [eax+4]
  00087	f3 0f 59 49 04	 mulss	 xmm1, DWORD PTR [ecx+4]
  0008c	f3 0f 58 c1	 addss	 xmm0, xmm1
  00090	f3 0f 11 45 e8	 movss	 DWORD PTR _a$[ebp], xmm0

; 201  : 	float b = 2 * (v3RayOriginal.x * c_rv3RayDirection.x + v3RayOriginal.y * c_rv3RayDirection.y);

  00095	8b 45 18	 mov	 eax, DWORD PTR _c_rv3RayDirection$[ebp]
  00098	f3 0f 10 45 f0	 movss	 xmm0, DWORD PTR _v3RayOriginal$[ebp]
  0009d	f3 0f 59 00	 mulss	 xmm0, DWORD PTR [eax]
  000a1	8b 45 18	 mov	 eax, DWORD PTR _c_rv3RayDirection$[ebp]
  000a4	f3 0f 10 4d f4	 movss	 xmm1, DWORD PTR _v3RayOriginal$[ebp+4]
  000a9	f3 0f 59 48 04	 mulss	 xmm1, DWORD PTR [eax+4]
  000ae	f3 0f 58 c1	 addss	 xmm0, xmm1
  000b2	f3 0f 59 05 00
	00 00 00	 mulss	 xmm0, DWORD PTR __real@40000000
  000ba	f3 0f 11 45 ec	 movss	 DWORD PTR _b$[ebp], xmm0

; 202  : 	float c = v3RayOriginal.x * v3RayOriginal.x + v3RayOriginal.y * v3RayOriginal.y - fRadius*fRadius;

  000bf	f3 0f 10 45 f0	 movss	 xmm0, DWORD PTR _v3RayOriginal$[ebp]
  000c4	f3 0f 59 45 f0	 mulss	 xmm0, DWORD PTR _v3RayOriginal$[ebp]
  000c9	f3 0f 10 4d f4	 movss	 xmm1, DWORD PTR _v3RayOriginal$[ebp+4]
  000ce	f3 0f 59 4d f4	 mulss	 xmm1, DWORD PTR _v3RayOriginal$[ebp+4]
  000d3	f3 0f 58 c1	 addss	 xmm0, xmm1
  000d7	f3 0f 10 4d 0c	 movss	 xmm1, DWORD PTR _fRadius$[ebp]
  000dc	f3 0f 59 4d 0c	 mulss	 xmm1, DWORD PTR _fRadius$[ebp]
  000e1	f3 0f 5c c1	 subss	 xmm0, xmm1
  000e5	f3 0f 11 45 cc	 movss	 DWORD PTR _c$[ebp], xmm0

; 203  : 
; 204  : 	float D = b * b - 4 * a * c;

  000ea	f3 0f 10 45 ec	 movss	 xmm0, DWORD PTR _b$[ebp]
  000ef	f3 0f 59 45 ec	 mulss	 xmm0, DWORD PTR _b$[ebp]
  000f4	f3 0f 10 0d 00
	00 00 00	 movss	 xmm1, DWORD PTR __real@40800000
  000fc	f3 0f 59 4d e8	 mulss	 xmm1, DWORD PTR _a$[ebp]
  00101	f3 0f 59 4d cc	 mulss	 xmm1, DWORD PTR _c$[ebp]
  00106	f3 0f 5c c1	 subss	 xmm0, xmm1
  0010a	f3 0f 11 45 e4	 movss	 DWORD PTR _D$[ebp], xmm0

; 205  : 	if (D > 0)

  0010f	f3 0f 10 45 e4	 movss	 xmm0, DWORD PTR _D$[ebp]
  00114	0f 2f 05 00 00
	00 00		 comiss	 xmm0, DWORD PTR __real@00000000
  0011b	0f 86 29 01 00
	00		 jbe	 $LN6@IntersectC

; 206  : 	if (0.0f != a)

  00121	0f 57 c0	 xorps	 xmm0, xmm0
  00124	0f 2e 45 e8	 ucomiss xmm0, DWORD PTR _a$[ebp]
  00128	9f		 lahf
  00129	f6 c4 44	 test	 ah, 68			; 00000044H
  0012c	0f 8b 18 01 00
	00		 jnp	 $LN6@IntersectC

; 208  : 		float tPlus = (-b + sqrtf(D)) / (2 * a);

  00132	f3 0f 10 45 ec	 movss	 xmm0, DWORD PTR _b$[ebp]
  00137	0f 57 05 00 00
	00 00		 xorps	 xmm0, DWORD PTR __xmm@80000000800000008000000080000000
; File C:\Program Files (x86)\Windows Kits\10\Include\10.0.18362.0\ucrt\corecrt_math.h

; 760  :             return (float)sqrt(_X);

  0013e	f3 0f 5a 4d e4	 cvtss2sd xmm1, DWORD PTR _D$[ebp]
  00143	51		 push	 ecx
  00144	51		 push	 ecx
  00145	f2 0f 11 0c 24	 movsd	 QWORD PTR [esp], xmm1
  0014a	f3 0f 11 45 c4	 movss	 DWORD PTR tv373[ebp], xmm0
  0014f	e8 00 00 00 00	 call	 _sqrt
  00154	59		 pop	 ecx
  00155	59		 pop	 ecx
  00156	d9 5d c8	 fstp	 DWORD PTR tv344[ebp]
  00159	d9 45 c8	 fld	 DWORD PTR tv344[ebp]
  0015c	d9 5d c0	 fstp	 DWORD PTR tv345[ebp]
; File D:\Metin2 Server Files\mainline\SRC_2014\Metin2Client\EterLib\GrpCollisionObject.cpp

; 208  : 		float tPlus = (-b + sqrtf(D)) / (2 * a);

  0015f	f3 0f 10 45 c4	 movss	 xmm0, DWORD PTR tv373[ebp]
  00164	f3 0f 58 45 c0	 addss	 xmm0, DWORD PTR tv345[ebp]
  00169	f3 0f 10 0d 00
	00 00 00	 movss	 xmm1, DWORD PTR __real@40000000
  00171	f3 0f 59 4d e8	 mulss	 xmm1, DWORD PTR _a$[ebp]
  00176	f3 0f 5e c1	 divss	 xmm0, xmm1
  0017a	f3 0f 11 45 b0	 movss	 DWORD PTR _tPlus$2[ebp], xmm0

; 209  : 		float tMinus = (-b - sqrtf(D)) / (2 * a);

  0017f	f3 0f 10 45 ec	 movss	 xmm0, DWORD PTR _b$[ebp]
  00184	0f 57 05 00 00
	00 00		 xorps	 xmm0, DWORD PTR __xmm@80000000800000008000000080000000
; File C:\Program Files (x86)\Windows Kits\10\Include\10.0.18362.0\ucrt\corecrt_math.h

; 760  :             return (float)sqrt(_X);

  0018b	f3 0f 5a 4d e4	 cvtss2sd xmm1, DWORD PTR _D$[ebp]
  00190	51		 push	 ecx
  00191	51		 push	 ecx
  00192	f2 0f 11 0c 24	 movsd	 QWORD PTR [esp], xmm1
  00197	f3 0f 11 45 b8	 movss	 DWORD PTR tv375[ebp], xmm0
  0019c	e8 00 00 00 00	 call	 _sqrt
  001a1	59		 pop	 ecx
  001a2	59		 pop	 ecx
  001a3	d9 5d bc	 fstp	 DWORD PTR tv352[ebp]
  001a6	d9 45 bc	 fld	 DWORD PTR tv352[ebp]
  001a9	d9 5d b4	 fstp	 DWORD PTR tv353[ebp]
; File D:\Metin2 Server Files\mainline\SRC_2014\Metin2Client\EterLib\GrpCollisionObject.cpp

; 209  : 		float tMinus = (-b - sqrtf(D)) / (2 * a);

  001ac	f3 0f 10 45 b8	 movss	 xmm0, DWORD PTR tv375[ebp]
  001b1	f3 0f 5c 45 b4	 subss	 xmm0, DWORD PTR tv353[ebp]
  001b6	f3 0f 10 0d 00
	00 00 00	 movss	 xmm1, DWORD PTR __real@40000000
  001be	f3 0f 59 4d e8	 mulss	 xmm1, DWORD PTR _a$[ebp]
  001c3	f3 0f 5e c1	 divss	 xmm0, xmm1
  001c7	f3 0f 11 45 ac	 movss	 DWORD PTR _tMinus$1[ebp], xmm0

; 210  : 		float fzPlus = v3RayOriginal.z + tPlus * c_rv3RayDirection.z;

  001cc	8b 45 18	 mov	 eax, DWORD PTR _c_rv3RayDirection$[ebp]
  001cf	f3 0f 10 45 b0	 movss	 xmm0, DWORD PTR _tPlus$2[ebp]
  001d4	f3 0f 59 40 08	 mulss	 xmm0, DWORD PTR [eax+8]
  001d9	f3 0f 58 45 f8	 addss	 xmm0, DWORD PTR _v3RayOriginal$[ebp+8]
  001de	f3 0f 11 45 dc	 movss	 DWORD PTR _fzPlus$3[ebp], xmm0

; 211  : 		float fzMinus = v3RayOriginal.z + tMinus * c_rv3RayDirection.z;

  001e3	8b 45 18	 mov	 eax, DWORD PTR _c_rv3RayDirection$[ebp]
  001e6	f3 0f 10 45 ac	 movss	 xmm0, DWORD PTR _tMinus$1[ebp]
  001eb	f3 0f 59 40 08	 mulss	 xmm0, DWORD PTR [eax+8]
  001f0	f3 0f 58 45 f8	 addss	 xmm0, DWORD PTR _v3RayOriginal$[ebp+8]
  001f5	f3 0f 11 45 e0	 movss	 DWORD PTR _fzMinus$4[ebp], xmm0

; 212  : 
; 213  : 		if (fzPlus > 0.0f && fzPlus <= fHeight)

  001fa	f3 0f 10 45 dc	 movss	 xmm0, DWORD PTR _fzPlus$3[ebp]
  001ff	0f 2f 05 00 00
	00 00		 comiss	 xmm0, DWORD PTR __real@00000000
  00206	76 0f		 jbe	 SHORT $LN4@IntersectC
  00208	f3 0f 10 45 10	 movss	 xmm0, DWORD PTR _fHeight$[ebp]
  0020d	0f 2f 45 dc	 comiss	 xmm0, DWORD PTR _fzPlus$3[ebp]
  00211	72 04		 jb	 SHORT $LN4@IntersectC

; 214  : 			return true;

  00213	b0 01		 mov	 al, 1
  00215	eb 35		 jmp	 SHORT $LN1@IntersectC
$LN4@IntersectC:

; 215  : 		if (fzMinus > 0.0f && fzMinus <= fHeight)

  00217	f3 0f 10 45 e0	 movss	 xmm0, DWORD PTR _fzMinus$4[ebp]
  0021c	0f 2f 05 00 00
	00 00		 comiss	 xmm0, DWORD PTR __real@00000000
  00223	76 0f		 jbe	 SHORT $LN5@IntersectC
  00225	f3 0f 10 45 10	 movss	 xmm0, DWORD PTR _fHeight$[ebp]
  0022a	0f 2f 45 e0	 comiss	 xmm0, DWORD PTR _fzMinus$4[ebp]
  0022e	72 04		 jb	 SHORT $LN5@IntersectC

; 216  : 			return true;

  00230	b0 01		 mov	 al, 1
  00232	eb 18		 jmp	 SHORT $LN1@IntersectC
$LN5@IntersectC:

; 217  : 		if (fzMinus * fzPlus < 0.0f)

  00234	f3 0f 10 45 e0	 movss	 xmm0, DWORD PTR _fzMinus$4[ebp]
  00239	f3 0f 59 45 dc	 mulss	 xmm0, DWORD PTR _fzPlus$3[ebp]
  0023e	0f 57 c9	 xorps	 xmm1, xmm1
  00241	0f 2f c8	 comiss	 xmm1, xmm0
  00244	76 04		 jbe	 SHORT $LN6@IntersectC

; 218  : 			return true;

  00246	b0 01		 mov	 al, 1
  00248	eb 02		 jmp	 SHORT $LN1@IntersectC
$LN6@IntersectC:

; 219  : 	}
; 220  : 
; 221  : 	return false;

  0024a	32 c0		 xor	 al, al
$LN1@IntersectC:

; 222  : }

  0024c	8b 4d fc	 mov	 ecx, DWORD PTR __$ArrayPad$[ebp]
  0024f	33 cd		 xor	 ecx, ebp
  00251	e8 00 00 00 00	 call	 @__security_check_cookie@4
  00256	c9		 leave
  00257	c2 14 00	 ret	 20			; 00000014H
?IntersectCylinder@CGraphicCollisionObject@@IAE_NABUD3DXVECTOR3@@MM00@Z ENDP ; CGraphicCollisionObject::IntersectCylinder
_TEXT	ENDS
; Function compile flags: /Odspy
; File D:\Metin2 Server Files\mainline\SRC_2014\Metin2Client\EterLib\GrpCollisionObject.cpp
; File D:\Metin2 Server Files\mainline\SRC_2014\M2Data\include\d3dx8math.inl
; File D:\Metin2 Server Files\mainline\SRC_2014\Metin2Client\EterLib\GrpCollisionObject.cpp
; File D:\Metin2 Server Files\mainline\SRC_2014\M2Data\include\d3dx8math.inl
; File D:\Metin2 Server Files\mainline\SRC_2014\Metin2Client\EterLib\GrpCollisionObject.cpp
; File D:\Metin2 Server Files\mainline\SRC_2014\M2Data\include\d3dx8math.inl
; File D:\Metin2 Server Files\mainline\SRC_2014\Metin2Client\EterLib\GrpCollisionObject.cpp
;	COMDAT ?IntersectSphere@CGraphicCollisionObject@@IAE_NABUD3DXVECTOR3@@M00@Z
_TEXT	SEGMENT
_this$ = -48						; size = 4
_D$ = -44						; size = 4
_c$ = -40						; size = 4
_a$ = -36						; size = 4
_fz$ = -32						; size = 4
_fy$ = -28						; size = 4
_fx$ = -24						; size = 4
_b$ = -20						; size = 4
_v3RayOriginal$ = -16					; size = 12
__$ArrayPad$ = -4					; size = 4
_c_rv3Position$ = 8					; size = 4
_fRadius$ = 12						; size = 4
_c_rv3RayOriginal$ = 16					; size = 4
_c_rv3RayDirection$ = 20				; size = 4
?IntersectSphere@CGraphicCollisionObject@@IAE_NABUD3DXVECTOR3@@M00@Z PROC ; CGraphicCollisionObject::IntersectSphere, COMDAT
; _this$ = ecx

; 181  : {

  00000	55		 push	 ebp
  00001	8b ec		 mov	 ebp, esp
  00003	83 ec 30	 sub	 esp, 48			; 00000030H
  00006	a1 00 00 00 00	 mov	 eax, DWORD PTR ___security_cookie
  0000b	33 c5		 xor	 eax, ebp
  0000d	89 45 fc	 mov	 DWORD PTR __$ArrayPad$[ebp], eax
  00010	89 4d d0	 mov	 DWORD PTR _this$[ebp], ecx
; File D:\Metin2 Server Files\mainline\SRC_2014\M2Data\include\d3dx8math.inl

; 263  :     return D3DXVECTOR3(x - v.x, y - v.y, z - v.z);

  00013	8b 45 10	 mov	 eax, DWORD PTR _c_rv3RayOriginal$[ebp]
  00016	8b 4d 08	 mov	 ecx, DWORD PTR _c_rv3Position$[ebp]
  00019	f3 0f 10 00	 movss	 xmm0, DWORD PTR [eax]
  0001d	f3 0f 5c 01	 subss	 xmm0, DWORD PTR [ecx]
  00021	f3 0f 11 45 e8	 movss	 DWORD PTR _fx$[ebp], xmm0
  00026	8b 45 10	 mov	 eax, DWORD PTR _c_rv3RayOriginal$[ebp]
  00029	8b 4d 08	 mov	 ecx, DWORD PTR _c_rv3Position$[ebp]
  0002c	f3 0f 10 40 04	 movss	 xmm0, DWORD PTR [eax+4]
  00031	f3 0f 5c 41 04	 subss	 xmm0, DWORD PTR [ecx+4]
  00036	f3 0f 11 45 e4	 movss	 DWORD PTR _fy$[ebp], xmm0
  0003b	8b 45 10	 mov	 eax, DWORD PTR _c_rv3RayOriginal$[ebp]
  0003e	8b 4d 08	 mov	 ecx, DWORD PTR _c_rv3Position$[ebp]
  00041	f3 0f 10 40 08	 movss	 xmm0, DWORD PTR [eax+8]
  00046	f3 0f 5c 41 08	 subss	 xmm0, DWORD PTR [ecx+8]
  0004b	f3 0f 11 45 e0	 movss	 DWORD PTR _fz$[ebp], xmm0

; 180  :     x = fx;

  00050	f3 0f 10 45 e8	 movss	 xmm0, DWORD PTR _fx$[ebp]
  00055	f3 0f 11 45 f0	 movss	 DWORD PTR _v3RayOriginal$[ebp], xmm0

; 181  :     y = fy;

  0005a	f3 0f 10 45 e4	 movss	 xmm0, DWORD PTR _fy$[ebp]
  0005f	f3 0f 11 45 f4	 movss	 DWORD PTR _v3RayOriginal$[ebp+4], xmm0

; 182  :     z = fz;

  00064	f3 0f 10 45 e0	 movss	 xmm0, DWORD PTR _fz$[ebp]
  00069	f3 0f 11 45 f8	 movss	 DWORD PTR _v3RayOriginal$[ebp+8], xmm0

; 1264 :     return pV1->x * pV2->x + pV1->y * pV2->y + pV1->z * pV2->z;

  0006e	8b 45 14	 mov	 eax, DWORD PTR _c_rv3RayDirection$[ebp]
  00071	8b 4d 14	 mov	 ecx, DWORD PTR _c_rv3RayDirection$[ebp]
  00074	f3 0f 10 40 08	 movss	 xmm0, DWORD PTR [eax+8]
  00079	f3 0f 59 41 08	 mulss	 xmm0, DWORD PTR [ecx+8]
  0007e	8b 45 14	 mov	 eax, DWORD PTR _c_rv3RayDirection$[ebp]
  00081	8b 4d 14	 mov	 ecx, DWORD PTR _c_rv3RayDirection$[ebp]
  00084	f3 0f 10 48 04	 movss	 xmm1, DWORD PTR [eax+4]
  00089	f3 0f 59 49 04	 mulss	 xmm1, DWORD PTR [ecx+4]
  0008e	8b 45 14	 mov	 eax, DWORD PTR _c_rv3RayDirection$[ebp]
  00091	8b 4d 14	 mov	 ecx, DWORD PTR _c_rv3RayDirection$[ebp]
  00094	f3 0f 10 10	 movss	 xmm2, DWORD PTR [eax]
  00098	f3 0f 59 11	 mulss	 xmm2, DWORD PTR [ecx]
  0009c	f3 0f 58 d1	 addss	 xmm2, xmm1
  000a0	f3 0f 58 d0	 addss	 xmm2, xmm0
; File D:\Metin2 Server Files\mainline\SRC_2014\Metin2Client\EterLib\GrpCollisionObject.cpp

; 184  : 	float a = D3DXVec3Dot(&c_rv3RayDirection, &c_rv3RayDirection);

  000a4	f3 0f 11 55 dc	 movss	 DWORD PTR _a$[ebp], xmm2
; File D:\Metin2 Server Files\mainline\SRC_2014\M2Data\include\d3dx8math.inl

; 1264 :     return pV1->x * pV2->x + pV1->y * pV2->y + pV1->z * pV2->z;

  000a9	8b 45 14	 mov	 eax, DWORD PTR _c_rv3RayDirection$[ebp]
  000ac	f3 0f 10 45 f8	 movss	 xmm0, DWORD PTR _v3RayOriginal$[ebp+8]
  000b1	f3 0f 59 40 08	 mulss	 xmm0, DWORD PTR [eax+8]
  000b6	8b 45 14	 mov	 eax, DWORD PTR _c_rv3RayDirection$[ebp]
  000b9	f3 0f 10 4d f4	 movss	 xmm1, DWORD PTR _v3RayOriginal$[ebp+4]
  000be	f3 0f 59 48 04	 mulss	 xmm1, DWORD PTR [eax+4]
  000c3	8b 45 14	 mov	 eax, DWORD PTR _c_rv3RayDirection$[ebp]
  000c6	f3 0f 10 55 f0	 movss	 xmm2, DWORD PTR _v3RayOriginal$[ebp]
  000cb	f3 0f 59 10	 mulss	 xmm2, DWORD PTR [eax]
  000cf	f3 0f 58 d1	 addss	 xmm2, xmm1
  000d3	f3 0f 58 d0	 addss	 xmm2, xmm0
; File D:\Metin2 Server Files\mainline\SRC_2014\Metin2Client\EterLib\GrpCollisionObject.cpp

; 185  : 	float b = 2 * D3DXVec3Dot(&v3RayOriginal, &c_rv3RayDirection);

  000d7	f3 0f 59 15 00
	00 00 00	 mulss	 xmm2, DWORD PTR __real@40000000
  000df	f3 0f 11 55 ec	 movss	 DWORD PTR _b$[ebp], xmm2

; 186  : 	float c = D3DXVec3Dot(&v3RayOriginal, &v3RayOriginal) - fRadius * fRadius;

  000e4	f3 0f 10 45 0c	 movss	 xmm0, DWORD PTR _fRadius$[ebp]
  000e9	f3 0f 59 45 0c	 mulss	 xmm0, DWORD PTR _fRadius$[ebp]
; File D:\Metin2 Server Files\mainline\SRC_2014\M2Data\include\d3dx8math.inl

; 1264 :     return pV1->x * pV2->x + pV1->y * pV2->y + pV1->z * pV2->z;

  000ee	f3 0f 10 4d f8	 movss	 xmm1, DWORD PTR _v3RayOriginal$[ebp+8]
  000f3	f3 0f 59 4d f8	 mulss	 xmm1, DWORD PTR _v3RayOriginal$[ebp+8]
  000f8	f3 0f 10 55 f4	 movss	 xmm2, DWORD PTR _v3RayOriginal$[ebp+4]
  000fd	f3 0f 59 55 f4	 mulss	 xmm2, DWORD PTR _v3RayOriginal$[ebp+4]
  00102	f3 0f 10 5d f0	 movss	 xmm3, DWORD PTR _v3RayOriginal$[ebp]
  00107	f3 0f 59 5d f0	 mulss	 xmm3, DWORD PTR _v3RayOriginal$[ebp]
  0010c	f3 0f 58 da	 addss	 xmm3, xmm2
  00110	f3 0f 58 d9	 addss	 xmm3, xmm1
; File D:\Metin2 Server Files\mainline\SRC_2014\Metin2Client\EterLib\GrpCollisionObject.cpp

; 186  : 	float c = D3DXVec3Dot(&v3RayOriginal, &v3RayOriginal) - fRadius * fRadius;

  00114	f3 0f 5c d8	 subss	 xmm3, xmm0
  00118	f3 0f 11 5d d8	 movss	 DWORD PTR _c$[ebp], xmm3

; 187  : 
; 188  : 	float D = b * b - 4 * a * c;

  0011d	f3 0f 10 45 ec	 movss	 xmm0, DWORD PTR _b$[ebp]
  00122	f3 0f 59 45 ec	 mulss	 xmm0, DWORD PTR _b$[ebp]
  00127	f3 0f 10 0d 00
	00 00 00	 movss	 xmm1, DWORD PTR __real@40800000
  0012f	f3 0f 59 4d dc	 mulss	 xmm1, DWORD PTR _a$[ebp]
  00134	f3 0f 59 4d d8	 mulss	 xmm1, DWORD PTR _c$[ebp]
  00139	f3 0f 5c c1	 subss	 xmm0, xmm1
  0013d	f3 0f 11 45 d4	 movss	 DWORD PTR _D$[ebp], xmm0

; 189  : 
; 190  : 	if (D >= 0)

  00142	f3 0f 10 45 d4	 movss	 xmm0, DWORD PTR _D$[ebp]
  00147	0f 2f 05 00 00
	00 00		 comiss	 xmm0, DWORD PTR __real@00000000
  0014e	72 04		 jb	 SHORT $LN2@IntersectS

; 191  : 		return true;

  00150	b0 01		 mov	 al, 1
  00152	eb 02		 jmp	 SHORT $LN1@IntersectS
$LN2@IntersectS:

; 192  : 
; 193  : 	return false;

  00154	32 c0		 xor	 al, al
$LN1@IntersectS:

; 194  : }

  00156	8b 4d fc	 mov	 ecx, DWORD PTR __$ArrayPad$[ebp]
  00159	33 cd		 xor	 ecx, ebp
  0015b	e8 00 00 00 00	 call	 @__security_check_cookie@4
  00160	c9		 leave
  00161	c2 10 00	 ret	 16			; 00000010H
?IntersectSphere@CGraphicCollisionObject@@IAE_NABUD3DXVECTOR3@@M00@Z ENDP ; CGraphicCollisionObject::IntersectSphere
_TEXT	ENDS
; Function compile flags: /Odspy
; File D:\Metin2 Server Files\mainline\SRC_2014\Metin2Client\EterLib\GrpCollisionObject.cpp
;	COMDAT ?IntersectMesh@CGraphicCollisionObject@@IAE_NPBUD3DXMATRIX@@PBXKKAAUD3DXVECTOR3@@2PAM33@Z
_TEXT	SEGMENT
_this$ = -64						; size = 4
tv140 = -60						; size = 4
___t$ = -56						; size = 4
_i$1 = -52						; size = 4
___n$ = -48						; size = 4
_pcurVtx$ = -44						; size = 4
_v3Vertex$ = -40					; size = 36
__$ArrayPad$ = -4					; size = 4
_c_pmatWorld$ = 8					; size = 4
_vertices$ = 12						; size = 4
_dwStep$ = 16						; size = 4
_dwvtxCount$ = 20					; size = 4
_RayOriginal$ = 24					; size = 4
_RayDirection$ = 28					; size = 4
_pu$ = 32						; size = 4
_pv$ = 36						; size = 4
_pt$ = 40						; size = 4
?IntersectMesh@CGraphicCollisionObject@@IAE_NPBUD3DXMATRIX@@PBXKKAAUD3DXVECTOR3@@2PAM33@Z PROC ; CGraphicCollisionObject::IntersectMesh, COMDAT
; _this$ = ecx

; 95   : {

  00000	55		 push	 ebp
  00001	8b ec		 mov	 ebp, esp
  00003	83 ec 40	 sub	 esp, 64			; 00000040H
  00006	a1 00 00 00 00	 mov	 eax, DWORD PTR ___security_cookie
  0000b	33 c5		 xor	 eax, ebp
  0000d	89 45 fc	 mov	 DWORD PTR __$ArrayPad$[ebp], eax
  00010	89 4d c0	 mov	 DWORD PTR _this$[ebp], ecx

; 96   : 	char * pcurVtx = (char *) vertices;

  00013	8b 45 0c	 mov	 eax, DWORD PTR _vertices$[ebp]
  00016	89 45 d4	 mov	 DWORD PTR _pcurVtx$[ebp], eax

; 97   : 
; 98   : 	D3DXVECTOR3 v3Vertex[3];

  00019	c7 45 d0 03 00
	00 00		 mov	 DWORD PTR ___n$[ebp], 3
  00020	8d 45 d8	 lea	 eax, DWORD PTR _v3Vertex$[ebp]
  00023	89 45 c8	 mov	 DWORD PTR ___t$[ebp], eax
$LN8@IntersectM:
  00026	8b 45 d0	 mov	 eax, DWORD PTR ___n$[ebp]
  00029	89 45 c4	 mov	 DWORD PTR tv140[ebp], eax
  0002c	8b 45 d0	 mov	 eax, DWORD PTR ___n$[ebp]
  0002f	48		 dec	 eax
  00030	89 45 d0	 mov	 DWORD PTR ___n$[ebp], eax
  00033	83 7d c4 00	 cmp	 DWORD PTR tv140[ebp], 0
  00037	76 0b		 jbe	 SHORT $LN7@IntersectM
  00039	8b 45 c8	 mov	 eax, DWORD PTR ___t$[ebp]
  0003c	83 c0 0c	 add	 eax, 12			; 0000000cH
  0003f	89 45 c8	 mov	 DWORD PTR ___t$[ebp], eax
  00042	eb e2		 jmp	 SHORT $LN8@IntersectM
$LN7@IntersectM:

; 99   : 
; 100  : 	for (DWORD i = 0; i < dwvtxCount; i += 3)

  00044	83 65 cc 00	 and	 DWORD PTR _i$1[ebp], 0
  00048	eb 09		 jmp	 SHORT $LN4@IntersectM
$LN2@IntersectM:
  0004a	8b 45 cc	 mov	 eax, DWORD PTR _i$1[ebp]
  0004d	83 c0 03	 add	 eax, 3
  00050	89 45 cc	 mov	 DWORD PTR _i$1[ebp], eax
$LN4@IntersectM:
  00053	8b 45 cc	 mov	 eax, DWORD PTR _i$1[ebp]
  00056	3b 45 14	 cmp	 eax, DWORD PTR _dwvtxCount$[ebp]
  00059	0f 83 a3 00 00
	00		 jae	 $LN3@IntersectM

; 101  : 	{
; 102  : 		D3DXVec3TransformCoord(&v3Vertex[0], (D3DXVECTOR3*)pcurVtx, c_pmatWorld);

  0005f	ff 75 08	 push	 DWORD PTR _c_pmatWorld$[ebp]
  00062	ff 75 d4	 push	 DWORD PTR _pcurVtx$[ebp]
  00065	6a 0c		 push	 12			; 0000000cH
  00067	58		 pop	 eax
  00068	6b c0 00	 imul	 eax, eax, 0
  0006b	8d 44 05 d8	 lea	 eax, DWORD PTR _v3Vertex$[ebp+eax]
  0006f	50		 push	 eax
  00070	e8 00 00 00 00	 call	 _D3DXVec3TransformCoord@12

; 103  : 		pcurVtx += dwStep;

  00075	8b 45 d4	 mov	 eax, DWORD PTR _pcurVtx$[ebp]
  00078	03 45 10	 add	 eax, DWORD PTR _dwStep$[ebp]
  0007b	89 45 d4	 mov	 DWORD PTR _pcurVtx$[ebp], eax

; 104  : 
; 105  : 		D3DXVec3TransformCoord(&v3Vertex[1], (D3DXVECTOR3*)pcurVtx, c_pmatWorld);

  0007e	ff 75 08	 push	 DWORD PTR _c_pmatWorld$[ebp]
  00081	ff 75 d4	 push	 DWORD PTR _pcurVtx$[ebp]
  00084	6a 0c		 push	 12			; 0000000cH
  00086	58		 pop	 eax
  00087	c1 e0 00	 shl	 eax, 0
  0008a	8d 44 05 d8	 lea	 eax, DWORD PTR _v3Vertex$[ebp+eax]
  0008e	50		 push	 eax
  0008f	e8 00 00 00 00	 call	 _D3DXVec3TransformCoord@12

; 106  : 		pcurVtx += dwStep;

  00094	8b 45 d4	 mov	 eax, DWORD PTR _pcurVtx$[ebp]
  00097	03 45 10	 add	 eax, DWORD PTR _dwStep$[ebp]
  0009a	89 45 d4	 mov	 DWORD PTR _pcurVtx$[ebp], eax

; 107  : 
; 108  : 		D3DXVec3TransformCoord(&v3Vertex[2], (D3DXVECTOR3*)pcurVtx, c_pmatWorld);

  0009d	ff 75 08	 push	 DWORD PTR _c_pmatWorld$[ebp]
  000a0	ff 75 d4	 push	 DWORD PTR _pcurVtx$[ebp]
  000a3	6a 0c		 push	 12			; 0000000cH
  000a5	58		 pop	 eax
  000a6	d1 e0		 shl	 eax, 1
  000a8	8d 44 05 d8	 lea	 eax, DWORD PTR _v3Vertex$[ebp+eax]
  000ac	50		 push	 eax
  000ad	e8 00 00 00 00	 call	 _D3DXVec3TransformCoord@12

; 109  : 		pcurVtx += dwStep;

  000b2	8b 45 d4	 mov	 eax, DWORD PTR _pcurVtx$[ebp]
  000b5	03 45 10	 add	 eax, DWORD PTR _dwStep$[ebp]
  000b8	89 45 d4	 mov	 DWORD PTR _pcurVtx$[ebp], eax

; 110  : 
; 111  : 		if (IntersectTriangle(RayOriginal, RayDirection, 

  000bb	ff 75 28	 push	 DWORD PTR _pt$[ebp]
  000be	ff 75 24	 push	 DWORD PTR _pv$[ebp]
  000c1	ff 75 20	 push	 DWORD PTR _pu$[ebp]
  000c4	6a 0c		 push	 12			; 0000000cH
  000c6	58		 pop	 eax
  000c7	d1 e0		 shl	 eax, 1
  000c9	8d 44 05 d8	 lea	 eax, DWORD PTR _v3Vertex$[ebp+eax]
  000cd	50		 push	 eax
  000ce	6a 0c		 push	 12			; 0000000cH
  000d0	58		 pop	 eax
  000d1	c1 e0 00	 shl	 eax, 0
  000d4	8d 44 05 d8	 lea	 eax, DWORD PTR _v3Vertex$[ebp+eax]
  000d8	50		 push	 eax
  000d9	6a 0c		 push	 12			; 0000000cH
  000db	58		 pop	 eax
  000dc	6b c0 00	 imul	 eax, eax, 0
  000df	8d 44 05 d8	 lea	 eax, DWORD PTR _v3Vertex$[ebp+eax]
  000e3	50		 push	 eax
  000e4	ff 75 1c	 push	 DWORD PTR _RayDirection$[ebp]
  000e7	ff 75 18	 push	 DWORD PTR _RayOriginal$[ebp]
  000ea	8b 4d c0	 mov	 ecx, DWORD PTR _this$[ebp]
  000ed	e8 00 00 00 00	 call	 ?IntersectTriangle@CGraphicCollisionObject@@IAE_NABUD3DXVECTOR3@@0000PAM11@Z ; CGraphicCollisionObject::IntersectTriangle
  000f2	0f b6 c0	 movzx	 eax, al
  000f5	85 c0		 test	 eax, eax
  000f7	74 04		 je	 SHORT $LN5@IntersectM

; 112  : 							  v3Vertex[0], v3Vertex[1], v3Vertex[2],
; 113  : 							  pu, pv, pt))
; 114  : 		{
; 115  : 			return true;

  000f9	b0 01		 mov	 al, 1
  000fb	eb 07		 jmp	 SHORT $LN1@IntersectM
$LN5@IntersectM:

; 116  : 		}
; 117  : 	}

  000fd	e9 48 ff ff ff	 jmp	 $LN2@IntersectM
$LN3@IntersectM:

; 118  : 
; 119  : 	return false;

  00102	32 c0		 xor	 al, al
$LN1@IntersectM:

; 120  : }

  00104	8b 4d fc	 mov	 ecx, DWORD PTR __$ArrayPad$[ebp]
  00107	33 cd		 xor	 ecx, ebp
  00109	e8 00 00 00 00	 call	 @__security_check_cookie@4
  0010e	c9		 leave
  0010f	c2 24 00	 ret	 36			; 00000024H
?IntersectMesh@CGraphicCollisionObject@@IAE_NPBUD3DXMATRIX@@PBXKKAAUD3DXVECTOR3@@2PAM33@Z ENDP ; CGraphicCollisionObject::IntersectMesh
_TEXT	ENDS
; Function compile flags: /Odspy
; File D:\Metin2 Server Files\mainline\SRC_2014\Metin2Client\EterLib\GrpCollisionObject.cpp
;	COMDAT ?IntersectIndexedMesh@CGraphicCollisionObject@@IAE_NPBUD3DXMATRIX@@PBXHH1HAAUD3DXVECTOR3@@2PAM33@Z
_TEXT	SEGMENT
_this$ = -44						; size = 4
tv94 = -40						; size = 4
tv89 = -36						; size = 4
_pos$1 = -32						; size = 4
tv82 = -28						; size = 4
tv158 = -24						; size = 4
___t$ = -20						; size = 4
_triCount$ = -16					; size = 4
_pcurVtx$ = -12						; size = 4
___n$ = -8						; size = 4
_pcurIdx$ = -4						; size = 4
_c_pmatWorld$ = 8					; size = 4
_vertices$ = 12						; size = 4
_step$ = 16						; size = 4
_vtxCount$ = 20						; size = 4
_indices$ = 24						; size = 4
_idxCount$ = 28						; size = 4
_RayOriginal$ = 32					; size = 4
_RayDirection$ = 36					; size = 4
_pu$ = 40						; size = 4
_pv$ = 44						; size = 4
_pt$ = 48						; size = 4
?IntersectIndexedMesh@CGraphicCollisionObject@@IAE_NPBUD3DXMATRIX@@PBXHH1HAAUD3DXVECTOR3@@2PAM33@Z PROC ; CGraphicCollisionObject::IntersectIndexedMesh, COMDAT
; _this$ = ecx

; 51   : {

  00000	55		 push	 ebp
  00001	8b ec		 mov	 ebp, esp
  00003	83 ec 2c	 sub	 esp, 44			; 0000002cH
  00006	89 4d d4	 mov	 DWORD PTR _this$[ebp], ecx

; 52   : 	static D3DXVECTOR3 s_v3PositionArray[c_iLimitVertexCount];

  00009	a1 00 00 00 00	 mov	 eax, DWORD PTR __tls_index
  0000e	64 8b 0d 00 00
	00 00		 mov	 ecx, DWORD PTR fs:__tls_array
  00015	8b 04 81	 mov	 eax, DWORD PTR [ecx+eax*4]
  00018	8b 0d 00 00 00
	00		 mov	 ecx, DWORD PTR ?$TSS0@?1??IntersectIndexedMesh@CGraphicCollisionObject@@IAE_NPBUD3DXMATRIX@@PBXHH1HAAUD3DXVECTOR3@@2PAM33@Z@4HA
  0001e	3b 88 00 00 00
	00		 cmp	 ecx, DWORD PTR __Init_thread_epoch[eax]
  00024	7e 4b		 jle	 SHORT $LN2@IntersectI
  00026	68 00 00 00 00	 push	 OFFSET ?$TSS0@?1??IntersectIndexedMesh@CGraphicCollisionObject@@IAE_NPBUD3DXMATRIX@@PBXHH1HAAUD3DXVECTOR3@@2PAM33@Z@4HA
  0002b	e8 00 00 00 00	 call	 __Init_thread_header
  00030	59		 pop	 ecx
  00031	83 3d 00 00 00
	00 ff		 cmp	 DWORD PTR ?$TSS0@?1??IntersectIndexedMesh@CGraphicCollisionObject@@IAE_NPBUD3DXMATRIX@@PBXHH1HAAUD3DXVECTOR3@@2PAM33@Z@4HA, -1
  00038	75 37		 jne	 SHORT $LN2@IntersectI
  0003a	c7 45 f8 00 04
	00 00		 mov	 DWORD PTR ___n$[ebp], 1024 ; 00000400H
  00041	c7 45 ec 00 00
	00 00		 mov	 DWORD PTR ___t$[ebp], OFFSET ?s_v3PositionArray@?1??IntersectIndexedMesh@CGraphicCollisionObject@@IAE_NPBUD3DXMATRIX@@PBXHH1HAAUD3DXVECTOR3@@2PAM33@Z@4PAU4@A
$LN12@IntersectI:
  00048	8b 45 f8	 mov	 eax, DWORD PTR ___n$[ebp]
  0004b	89 45 e8	 mov	 DWORD PTR tv158[ebp], eax
  0004e	8b 45 f8	 mov	 eax, DWORD PTR ___n$[ebp]
  00051	48		 dec	 eax
  00052	89 45 f8	 mov	 DWORD PTR ___n$[ebp], eax
  00055	83 7d e8 00	 cmp	 DWORD PTR tv158[ebp], 0
  00059	76 0b		 jbe	 SHORT $LN11@IntersectI
  0005b	8b 45 ec	 mov	 eax, DWORD PTR ___t$[ebp]
  0005e	83 c0 0c	 add	 eax, 12			; 0000000cH
  00061	89 45 ec	 mov	 DWORD PTR ___t$[ebp], eax
  00064	eb e2		 jmp	 SHORT $LN12@IntersectI
$LN11@IntersectI:
  00066	68 00 00 00 00	 push	 OFFSET ?$TSS0@?1??IntersectIndexedMesh@CGraphicCollisionObject@@IAE_NPBUD3DXMATRIX@@PBXHH1HAAUD3DXVECTOR3@@2PAM33@Z@4HA
  0006b	e8 00 00 00 00	 call	 __Init_thread_footer
  00070	59		 pop	 ecx
$LN2@IntersectI:

; 53   : 	static DWORD s_dwPositionCount;
; 54   : 
; 55   : 	if (vtxCount > c_iLimitVertexCount)

  00071	81 7d 14 00 04
	00 00		 cmp	 DWORD PTR _vtxCount$[ebp], 1024 ; 00000400H
  00078	7e 1c		 jle	 SHORT $LN7@IntersectI

; 56   : 	{
; 57   : 		Tracef("The vertex count of mesh which is worked collision detection is too much : %d / %d", vtxCount, c_iLimitVertexCount);

  0007a	68 00 04 00 00	 push	 1024			; 00000400H
  0007f	ff 75 14	 push	 DWORD PTR _vtxCount$[ebp]
  00082	68 00 00 00 00	 push	 OFFSET ??_C@_0FD@DGCNMMBC@The?5vertex?5count?5of?5mesh?5which?5@
  00087	e8 00 00 00 00	 call	 ?Tracef@@YAXPBDZZ	; Tracef
  0008c	83 c4 0c	 add	 esp, 12			; 0000000cH

; 58   : 		return false;

  0008f	32 c0		 xor	 al, al
  00091	e9 f1 00 00 00	 jmp	 $LN1@IntersectI
$LN7@IntersectI:

; 59   : 	}
; 60   : 
; 61   : 	s_dwPositionCount = 0;

  00096	83 25 00 00 00
	00 00		 and	 DWORD PTR ?s_dwPositionCount@?1??IntersectIndexedMesh@CGraphicCollisionObject@@IAE_NPBUD3DXMATRIX@@PBXHH1HAAUD3DXVECTOR3@@2PAM33@Z@4KA, 0

; 62   : 
; 63   : 	char* pcurVtx = (char*)vertices;

  0009d	8b 45 0c	 mov	 eax, DWORD PTR _vertices$[ebp]
  000a0	89 45 f4	 mov	 DWORD PTR _pcurVtx$[ebp], eax
$LN3@IntersectI:

; 64   : 
; 65   : 	while (vtxCount--)

  000a3	8b 45 14	 mov	 eax, DWORD PTR _vtxCount$[ebp]
  000a6	89 45 e4	 mov	 DWORD PTR tv82[ebp], eax
  000a9	8b 45 14	 mov	 eax, DWORD PTR _vtxCount$[ebp]
  000ac	48		 dec	 eax
  000ad	89 45 14	 mov	 DWORD PTR _vtxCount$[ebp], eax
  000b0	83 7d e4 00	 cmp	 DWORD PTR tv82[ebp], 0
  000b4	74 39		 je	 SHORT $LN4@IntersectI

; 66   : 	{
; 67   : 		float* pos = (float*)pcurVtx;

  000b6	8b 45 f4	 mov	 eax, DWORD PTR _pcurVtx$[ebp]
  000b9	89 45 e0	 mov	 DWORD PTR _pos$1[ebp], eax

; 68   : 
; 69   : 		D3DXVec3TransformCoord(&s_v3PositionArray[s_dwPositionCount++], (D3DXVECTOR3*)pos, c_pmatWorld);

  000bc	6b 05 00 00 00
	00 0c		 imul	 eax, DWORD PTR ?s_dwPositionCount@?1??IntersectIndexedMesh@CGraphicCollisionObject@@IAE_NPBUD3DXMATRIX@@PBXHH1HAAUD3DXVECTOR3@@2PAM33@Z@4KA, 12
  000c3	05 00 00 00 00	 add	 eax, OFFSET ?s_v3PositionArray@?1??IntersectIndexedMesh@CGraphicCollisionObject@@IAE_NPBUD3DXMATRIX@@PBXHH1HAAUD3DXVECTOR3@@2PAM33@Z@4PAU4@A
  000c8	89 45 dc	 mov	 DWORD PTR tv89[ebp], eax
  000cb	a1 00 00 00 00	 mov	 eax, DWORD PTR ?s_dwPositionCount@?1??IntersectIndexedMesh@CGraphicCollisionObject@@IAE_NPBUD3DXMATRIX@@PBXHH1HAAUD3DXVECTOR3@@2PAM33@Z@4KA
  000d0	40		 inc	 eax
  000d1	a3 00 00 00 00	 mov	 DWORD PTR ?s_dwPositionCount@?1??IntersectIndexedMesh@CGraphicCollisionObject@@IAE_NPBUD3DXMATRIX@@PBXHH1HAAUD3DXVECTOR3@@2PAM33@Z@4KA, eax
  000d6	ff 75 08	 push	 DWORD PTR _c_pmatWorld$[ebp]
  000d9	ff 75 e0	 push	 DWORD PTR _pos$1[ebp]
  000dc	ff 75 dc	 push	 DWORD PTR tv89[ebp]
  000df	e8 00 00 00 00	 call	 _D3DXVec3TransformCoord@12

; 70   : 
; 71   : 		pcurVtx += step;

  000e4	8b 45 f4	 mov	 eax, DWORD PTR _pcurVtx$[ebp]
  000e7	03 45 10	 add	 eax, DWORD PTR _step$[ebp]
  000ea	89 45 f4	 mov	 DWORD PTR _pcurVtx$[ebp], eax

; 72   : 	}

  000ed	eb b4		 jmp	 SHORT $LN3@IntersectI
$LN4@IntersectI:

; 73   : 
; 74   : 	WORD* pcurIdx = (WORD*)indices;

  000ef	8b 45 18	 mov	 eax, DWORD PTR _indices$[ebp]
  000f2	89 45 fc	 mov	 DWORD PTR _pcurIdx$[ebp], eax

; 75   : 
; 76   : 	int triCount = idxCount / 3;

  000f5	8b 45 1c	 mov	 eax, DWORD PTR _idxCount$[ebp]
  000f8	99		 cdq
  000f9	6a 03		 push	 3
  000fb	59		 pop	 ecx
  000fc	f7 f9		 idiv	 ecx
  000fe	89 45 f0	 mov	 DWORD PTR _triCount$[ebp], eax
$LN5@IntersectI:

; 77   : 	while (triCount--)

  00101	8b 45 f0	 mov	 eax, DWORD PTR _triCount$[ebp]
  00104	89 45 d8	 mov	 DWORD PTR tv94[ebp], eax
  00107	8b 45 f0	 mov	 eax, DWORD PTR _triCount$[ebp]
  0010a	48		 dec	 eax
  0010b	89 45 f0	 mov	 DWORD PTR _triCount$[ebp], eax
  0010e	83 7d d8 00	 cmp	 DWORD PTR tv94[ebp], 0
  00112	74 71		 je	 SHORT $LN6@IntersectI

; 78   : 	{
; 79   : 		if (IntersectTriangle(RayOriginal, RayDirection, 

  00114	ff 75 30	 push	 DWORD PTR _pt$[ebp]
  00117	ff 75 2c	 push	 DWORD PTR _pv$[ebp]
  0011a	ff 75 28	 push	 DWORD PTR _pu$[ebp]
  0011d	6a 02		 push	 2
  0011f	58		 pop	 eax
  00120	d1 e0		 shl	 eax, 1
  00122	8b 4d fc	 mov	 ecx, DWORD PTR _pcurIdx$[ebp]
  00125	0f b7 04 01	 movzx	 eax, WORD PTR [ecx+eax]
  00129	6b c0 0c	 imul	 eax, eax, 12
  0012c	05 00 00 00 00	 add	 eax, OFFSET ?s_v3PositionArray@?1??IntersectIndexedMesh@CGraphicCollisionObject@@IAE_NPBUD3DXMATRIX@@PBXHH1HAAUD3DXVECTOR3@@2PAM33@Z@4PAU4@A
  00131	50		 push	 eax
  00132	6a 02		 push	 2
  00134	58		 pop	 eax
  00135	c1 e0 00	 shl	 eax, 0
  00138	8b 4d fc	 mov	 ecx, DWORD PTR _pcurIdx$[ebp]
  0013b	0f b7 04 01	 movzx	 eax, WORD PTR [ecx+eax]
  0013f	6b c0 0c	 imul	 eax, eax, 12
  00142	05 00 00 00 00	 add	 eax, OFFSET ?s_v3PositionArray@?1??IntersectIndexedMesh@CGraphicCollisionObject@@IAE_NPBUD3DXMATRIX@@PBXHH1HAAUD3DXVECTOR3@@2PAM33@Z@4PAU4@A
  00147	50		 push	 eax
  00148	6a 02		 push	 2
  0014a	58		 pop	 eax
  0014b	6b c0 00	 imul	 eax, eax, 0
  0014e	8b 4d fc	 mov	 ecx, DWORD PTR _pcurIdx$[ebp]
  00151	0f b7 04 01	 movzx	 eax, WORD PTR [ecx+eax]
  00155	6b c0 0c	 imul	 eax, eax, 12
  00158	05 00 00 00 00	 add	 eax, OFFSET ?s_v3PositionArray@?1??IntersectIndexedMesh@CGraphicCollisionObject@@IAE_NPBUD3DXMATRIX@@PBXHH1HAAUD3DXVECTOR3@@2PAM33@Z@4PAU4@A
  0015d	50		 push	 eax
  0015e	ff 75 24	 push	 DWORD PTR _RayDirection$[ebp]
  00161	ff 75 20	 push	 DWORD PTR _RayOriginal$[ebp]
  00164	8b 4d d4	 mov	 ecx, DWORD PTR _this$[ebp]
  00167	e8 00 00 00 00	 call	 ?IntersectTriangle@CGraphicCollisionObject@@IAE_NABUD3DXVECTOR3@@0000PAM11@Z ; CGraphicCollisionObject::IntersectTriangle
  0016c	0f b6 c0	 movzx	 eax, al
  0016f	85 c0		 test	 eax, eax
  00171	74 04		 je	 SHORT $LN8@IntersectI

; 80   : 							  s_v3PositionArray[pcurIdx[0]],
; 81   : 							  s_v3PositionArray[pcurIdx[1]],
; 82   : 							  s_v3PositionArray[pcurIdx[2]],
; 83   : 							  pu, pv, pt))
; 84   : 		{
; 85   : 			return true;

  00173	b0 01		 mov	 al, 1
  00175	eb 10		 jmp	 SHORT $LN1@IntersectI
$LN8@IntersectI:

; 86   : 		}
; 87   : 
; 88   : 		pcurIdx += 3;

  00177	8b 45 fc	 mov	 eax, DWORD PTR _pcurIdx$[ebp]
  0017a	83 c0 06	 add	 eax, 6
  0017d	89 45 fc	 mov	 DWORD PTR _pcurIdx$[ebp], eax

; 89   : 	}

  00180	e9 7c ff ff ff	 jmp	 $LN5@IntersectI
$LN6@IntersectI:

; 90   : 
; 91   : 	return false;

  00185	32 c0		 xor	 al, al
$LN1@IntersectI:

; 92   : }

  00187	c9		 leave
  00188	c2 2c 00	 ret	 44			; 0000002cH
?IntersectIndexedMesh@CGraphicCollisionObject@@IAE_NPBUD3DXMATRIX@@PBXHH1HAAUD3DXVECTOR3@@2PAM33@Z ENDP ; CGraphicCollisionObject::IntersectIndexedMesh
_TEXT	ENDS
; Function compile flags: /Odspy
; File D:\Metin2 Server Files\mainline\SRC_2014\Metin2Client\EterLib\GrpCollisionObject.cpp
; File D:\Metin2 Server Files\mainline\SRC_2014\M2Data\include\d3dx8math.inl
; File D:\Metin2 Server Files\mainline\SRC_2014\Metin2Client\EterLib\GrpCollisionObject.cpp
; File D:\Metin2 Server Files\mainline\SRC_2014\M2Data\include\d3dx8math.inl
; File D:\Metin2 Server Files\mainline\SRC_2014\Metin2Client\EterLib\GrpCollisionObject.cpp
; File D:\Metin2 Server Files\mainline\SRC_2014\M2Data\include\d3dx8math.inl
; File D:\Metin2 Server Files\mainline\SRC_2014\Metin2Client\EterLib\GrpCollisionObject.cpp
; File D:\Metin2 Server Files\mainline\SRC_2014\M2Data\include\d3dx8math.inl
; File D:\Metin2 Server Files\mainline\SRC_2014\Metin2Client\EterLib\GrpCollisionObject.cpp
; File D:\Metin2 Server Files\mainline\SRC_2014\M2Data\include\d3dx8math.inl
; File D:\Metin2 Server Files\mainline\SRC_2014\Metin2Client\EterLib\GrpCollisionObject.cpp
; File D:\Metin2 Server Files\mainline\SRC_2014\M2Data\include\d3dx8math.inl
; File D:\Metin2 Server Files\mainline\SRC_2014\Metin2Client\EterLib\GrpCollisionObject.cpp
; File D:\Metin2 Server Files\mainline\SRC_2014\M2Data\include\d3dx8math.inl
; File D:\Metin2 Server Files\mainline\SRC_2014\Metin2Client\EterLib\GrpCollisionObject.cpp
; File D:\Metin2 Server Files\mainline\SRC_2014\M2Data\include\d3dx8math.inl
; File D:\Metin2 Server Files\mainline\SRC_2014\Metin2Client\EterLib\GrpCollisionObject.cpp
;	COMDAT ?IntersectCube@CGraphicCollisionObject@@IAE_NPBUD3DXMATRIX@@MMMMMMAAUD3DXVECTOR3@@1PAM22@Z
_TEXT	SEGMENT
_this$ = -140						; size = 4
tv179 = -136						; size = 4
___t$ = -132						; size = 4
___n$ = -128						; size = 4
$T1 = -124						; size = 12
$T2 = -112						; size = 12
$T3 = -100						; size = 12
$T4 = -88						; size = 12
$T5 = -76						; size = 12
$T6 = -64						; size = 12
$T7 = -52						; size = 12
$T8 = -40						; size = 12
_posVertices$ = -28					; size = 96
__$ArrayPad$ = 68					; size = 4
_c_pmatWorld$ = 80					; size = 4
_sx$ = 84						; size = 4
_sy$ = 88						; size = 4
_sz$ = 92						; size = 4
_ex$ = 96						; size = 4
_ey$ = 100						; size = 4
_ez$ = 104						; size = 4
_RayOriginal$ = 108					; size = 4
_RayDirection$ = 112					; size = 4
_pu$ = 116						; size = 4
_pv$ = 120						; size = 4
_pt$ = 124						; size = 4
?IntersectCube@CGraphicCollisionObject@@IAE_NPBUD3DXMATRIX@@MMMMMMAAUD3DXVECTOR3@@1PAM22@Z PROC ; CGraphicCollisionObject::IntersectCube, COMDAT
; _this$ = ecx

; 11   : {

  00000	55		 push	 ebp
  00001	8d 6c 24 b8	 lea	 ebp, DWORD PTR [esp-72]
  00005	81 ec d4 00 00
	00		 sub	 esp, 212		; 000000d4H
  0000b	a1 00 00 00 00	 mov	 eax, DWORD PTR ___security_cookie
  00010	33 c5		 xor	 eax, ebp
  00012	89 45 44	 mov	 DWORD PTR __$ArrayPad$[ebp], eax
  00015	56		 push	 esi
  00016	57		 push	 edi
  00017	89 8d 74 ff ff
	ff		 mov	 DWORD PTR _this$[ebp], ecx

; 12   : 	TPosition posVertices[8];

  0001d	c7 45 80 08 00
	00 00		 mov	 DWORD PTR ___n$[ebp], 8
  00024	8d 45 e4	 lea	 eax, DWORD PTR _posVertices$[ebp]
  00027	89 85 7c ff ff
	ff		 mov	 DWORD PTR ___t$[ebp], eax
$LN4@IntersectC:
  0002d	8b 45 80	 mov	 eax, DWORD PTR ___n$[ebp]
  00030	89 85 78 ff ff
	ff		 mov	 DWORD PTR tv179[ebp], eax
  00036	8b 45 80	 mov	 eax, DWORD PTR ___n$[ebp]
  00039	48		 dec	 eax
  0003a	89 45 80	 mov	 DWORD PTR ___n$[ebp], eax
  0003d	83 bd 78 ff ff
	ff 00		 cmp	 DWORD PTR tv179[ebp], 0
  00044	76 11		 jbe	 SHORT $LN5@IntersectC
  00046	8b 85 7c ff ff
	ff		 mov	 eax, DWORD PTR ___t$[ebp]
  0004c	83 c0 0c	 add	 eax, 12			; 0000000cH
  0004f	89 85 7c ff ff
	ff		 mov	 DWORD PTR ___t$[ebp], eax
  00055	eb d6		 jmp	 SHORT $LN4@IntersectC
$LN5@IntersectC:
; File D:\Metin2 Server Files\mainline\SRC_2014\M2Data\include\d3dx8math.inl

; 180  :     x = fx;

  00057	f3 0f 10 45 54	 movss	 xmm0, DWORD PTR _sx$[ebp]
  0005c	f3 0f 11 45 d8	 movss	 DWORD PTR $T8[ebp], xmm0

; 181  :     y = fy;

  00061	f3 0f 10 45 58	 movss	 xmm0, DWORD PTR _sy$[ebp]
  00066	f3 0f 11 45 dc	 movss	 DWORD PTR $T8[ebp+4], xmm0

; 182  :     z = fz;

  0006b	f3 0f 10 45 5c	 movss	 xmm0, DWORD PTR _sz$[ebp]
  00070	f3 0f 11 45 e0	 movss	 DWORD PTR $T8[ebp+8], xmm0
; File D:\Metin2 Server Files\mainline\SRC_2014\Metin2Client\EterLib\GrpCollisionObject.cpp

; 14   : 	posVertices[0] = TPosition(sx, sy, sz);

  00075	6a 0c		 push	 12			; 0000000cH
  00077	58		 pop	 eax
  00078	6b c0 00	 imul	 eax, eax, 0
  0007b	8d 7c 05 e4	 lea	 edi, DWORD PTR _posVertices$[ebp+eax]
  0007f	8d 75 d8	 lea	 esi, DWORD PTR $T8[ebp]
  00082	a5		 movsd
  00083	a5		 movsd
  00084	a5		 movsd
; File D:\Metin2 Server Files\mainline\SRC_2014\M2Data\include\d3dx8math.inl

; 180  :     x = fx;

  00085	f3 0f 10 45 60	 movss	 xmm0, DWORD PTR _ex$[ebp]
  0008a	f3 0f 11 45 cc	 movss	 DWORD PTR $T7[ebp], xmm0

; 181  :     y = fy;

  0008f	f3 0f 10 45 58	 movss	 xmm0, DWORD PTR _sy$[ebp]
  00094	f3 0f 11 45 d0	 movss	 DWORD PTR $T7[ebp+4], xmm0

; 182  :     z = fz;

  00099	f3 0f 10 45 5c	 movss	 xmm0, DWORD PTR _sz$[ebp]
  0009e	f3 0f 11 45 d4	 movss	 DWORD PTR $T7[ebp+8], xmm0
; File D:\Metin2 Server Files\mainline\SRC_2014\Metin2Client\EterLib\GrpCollisionObject.cpp

; 15   : 	posVertices[1] = TPosition(ex, sy, sz);

  000a3	6a 0c		 push	 12			; 0000000cH
  000a5	58		 pop	 eax
  000a6	c1 e0 00	 shl	 eax, 0
  000a9	8d 7c 05 e4	 lea	 edi, DWORD PTR _posVertices$[ebp+eax]
  000ad	8d 75 cc	 lea	 esi, DWORD PTR $T7[ebp]
  000b0	a5		 movsd
  000b1	a5		 movsd
  000b2	a5		 movsd
; File D:\Metin2 Server Files\mainline\SRC_2014\M2Data\include\d3dx8math.inl

; 180  :     x = fx;

  000b3	f3 0f 10 45 54	 movss	 xmm0, DWORD PTR _sx$[ebp]
  000b8	f3 0f 11 45 c0	 movss	 DWORD PTR $T6[ebp], xmm0

; 181  :     y = fy;

  000bd	f3 0f 10 45 64	 movss	 xmm0, DWORD PTR _ey$[ebp]
  000c2	f3 0f 11 45 c4	 movss	 DWORD PTR $T6[ebp+4], xmm0

; 182  :     z = fz;

  000c7	f3 0f 10 45 5c	 movss	 xmm0, DWORD PTR _sz$[ebp]
  000cc	f3 0f 11 45 c8	 movss	 DWORD PTR $T6[ebp+8], xmm0
; File D:\Metin2 Server Files\mainline\SRC_2014\Metin2Client\EterLib\GrpCollisionObject.cpp

; 16   : 	posVertices[2] = TPosition(sx, ey, sz);

  000d1	6a 0c		 push	 12			; 0000000cH
  000d3	58		 pop	 eax
  000d4	d1 e0		 shl	 eax, 1
  000d6	8d 7c 05 e4	 lea	 edi, DWORD PTR _posVertices$[ebp+eax]
  000da	8d 75 c0	 lea	 esi, DWORD PTR $T6[ebp]
  000dd	a5		 movsd
  000de	a5		 movsd
  000df	a5		 movsd
; File D:\Metin2 Server Files\mainline\SRC_2014\M2Data\include\d3dx8math.inl

; 180  :     x = fx;

  000e0	f3 0f 10 45 60	 movss	 xmm0, DWORD PTR _ex$[ebp]
  000e5	f3 0f 11 45 b4	 movss	 DWORD PTR $T5[ebp], xmm0

; 181  :     y = fy;

  000ea	f3 0f 10 45 64	 movss	 xmm0, DWORD PTR _ey$[ebp]
  000ef	f3 0f 11 45 b8	 movss	 DWORD PTR $T5[ebp+4], xmm0

; 182  :     z = fz;

  000f4	f3 0f 10 45 5c	 movss	 xmm0, DWORD PTR _sz$[ebp]
  000f9	f3 0f 11 45 bc	 movss	 DWORD PTR $T5[ebp+8], xmm0
; File D:\Metin2 Server Files\mainline\SRC_2014\Metin2Client\EterLib\GrpCollisionObject.cpp

; 17   : 	posVertices[3] = TPosition(ex, ey, sz);

  000fe	6a 0c		 push	 12			; 0000000cH
  00100	58		 pop	 eax
  00101	6b c0 03	 imul	 eax, eax, 3
  00104	8d 7c 05 e4	 lea	 edi, DWORD PTR _posVertices$[ebp+eax]
  00108	8d 75 b4	 lea	 esi, DWORD PTR $T5[ebp]
  0010b	a5		 movsd
  0010c	a5		 movsd
  0010d	a5		 movsd
; File D:\Metin2 Server Files\mainline\SRC_2014\M2Data\include\d3dx8math.inl

; 180  :     x = fx;

  0010e	f3 0f 10 45 54	 movss	 xmm0, DWORD PTR _sx$[ebp]
  00113	f3 0f 11 45 a8	 movss	 DWORD PTR $T4[ebp], xmm0

; 181  :     y = fy;

  00118	f3 0f 10 45 58	 movss	 xmm0, DWORD PTR _sy$[ebp]
  0011d	f3 0f 11 45 ac	 movss	 DWORD PTR $T4[ebp+4], xmm0

; 182  :     z = fz;

  00122	f3 0f 10 45 68	 movss	 xmm0, DWORD PTR _ez$[ebp]
  00127	f3 0f 11 45 b0	 movss	 DWORD PTR $T4[ebp+8], xmm0
; File D:\Metin2 Server Files\mainline\SRC_2014\Metin2Client\EterLib\GrpCollisionObject.cpp

; 18   : 	posVertices[4] = TPosition(sx, sy, ez);

  0012c	6a 0c		 push	 12			; 0000000cH
  0012e	58		 pop	 eax
  0012f	c1 e0 02	 shl	 eax, 2
  00132	8d 7c 05 e4	 lea	 edi, DWORD PTR _posVertices$[ebp+eax]
  00136	8d 75 a8	 lea	 esi, DWORD PTR $T4[ebp]
  00139	a5		 movsd
  0013a	a5		 movsd
  0013b	a5		 movsd
; File D:\Metin2 Server Files\mainline\SRC_2014\M2Data\include\d3dx8math.inl

; 180  :     x = fx;

  0013c	f3 0f 10 45 60	 movss	 xmm0, DWORD PTR _ex$[ebp]
  00141	f3 0f 11 45 9c	 movss	 DWORD PTR $T3[ebp], xmm0

; 181  :     y = fy;

  00146	f3 0f 10 45 58	 movss	 xmm0, DWORD PTR _sy$[ebp]
  0014b	f3 0f 11 45 a0	 movss	 DWORD PTR $T3[ebp+4], xmm0

; 182  :     z = fz;

  00150	f3 0f 10 45 68	 movss	 xmm0, DWORD PTR _ez$[ebp]
  00155	f3 0f 11 45 a4	 movss	 DWORD PTR $T3[ebp+8], xmm0
; File D:\Metin2 Server Files\mainline\SRC_2014\Metin2Client\EterLib\GrpCollisionObject.cpp

; 19   : 	posVertices[5] = TPosition(ex, sy, ez);

  0015a	6a 0c		 push	 12			; 0000000cH
  0015c	58		 pop	 eax
  0015d	6b c0 05	 imul	 eax, eax, 5
  00160	8d 7c 05 e4	 lea	 edi, DWORD PTR _posVertices$[ebp+eax]
  00164	8d 75 9c	 lea	 esi, DWORD PTR $T3[ebp]
  00167	a5		 movsd
  00168	a5		 movsd
  00169	a5		 movsd
; File D:\Metin2 Server Files\mainline\SRC_2014\M2Data\include\d3dx8math.inl

; 180  :     x = fx;

  0016a	f3 0f 10 45 54	 movss	 xmm0, DWORD PTR _sx$[ebp]
  0016f	f3 0f 11 45 90	 movss	 DWORD PTR $T2[ebp], xmm0

; 181  :     y = fy;

  00174	f3 0f 10 45 64	 movss	 xmm0, DWORD PTR _ey$[ebp]
  00179	f3 0f 11 45 94	 movss	 DWORD PTR $T2[ebp+4], xmm0

; 182  :     z = fz;

  0017e	f3 0f 10 45 68	 movss	 xmm0, DWORD PTR _ez$[ebp]
  00183	f3 0f 11 45 98	 movss	 DWORD PTR $T2[ebp+8], xmm0
; File D:\Metin2 Server Files\mainline\SRC_2014\Metin2Client\EterLib\GrpCollisionObject.cpp

; 20   : 	posVertices[6] = TPosition(sx, ey, ez);

  00188	6a 0c		 push	 12			; 0000000cH
  0018a	58		 pop	 eax
  0018b	6b c0 06	 imul	 eax, eax, 6
  0018e	8d 7c 05 e4	 lea	 edi, DWORD PTR _posVertices$[ebp+eax]
  00192	8d 75 90	 lea	 esi, DWORD PTR $T2[ebp]
  00195	a5		 movsd
  00196	a5		 movsd
  00197	a5		 movsd
; File D:\Metin2 Server Files\mainline\SRC_2014\M2Data\include\d3dx8math.inl

; 180  :     x = fx;

  00198	f3 0f 10 45 60	 movss	 xmm0, DWORD PTR _ex$[ebp]
  0019d	f3 0f 11 45 84	 movss	 DWORD PTR $T1[ebp], xmm0

; 181  :     y = fy;

  001a2	f3 0f 10 45 64	 movss	 xmm0, DWORD PTR _ey$[ebp]
  001a7	f3 0f 11 45 88	 movss	 DWORD PTR $T1[ebp+4], xmm0

; 182  :     z = fz;

  001ac	f3 0f 10 45 68	 movss	 xmm0, DWORD PTR _ez$[ebp]
  001b1	f3 0f 11 45 8c	 movss	 DWORD PTR $T1[ebp+8], xmm0
; File D:\Metin2 Server Files\mainline\SRC_2014\Metin2Client\EterLib\GrpCollisionObject.cpp

; 21   : 	posVertices[7] = TPosition(ex, ey, ez);

  001b6	6a 0c		 push	 12			; 0000000cH
  001b8	58		 pop	 eax
  001b9	6b c0 07	 imul	 eax, eax, 7
  001bc	8d 7c 05 e4	 lea	 edi, DWORD PTR _posVertices$[ebp+eax]
  001c0	8d 75 84	 lea	 esi, DWORD PTR $T1[ebp]
  001c3	a5		 movsd
  001c4	a5		 movsd
  001c5	a5		 movsd

; 22   : 
; 23   : 	static const WORD c_awFillCubeIndices[36] = { 
; 24   : 		0, 1, 2, 1, 3, 2,
; 25   : 		2, 0, 6, 0, 4, 6,
; 26   : 		0, 1, 4, 1, 5, 4,
; 27   : 		1, 3, 5, 3, 7, 5,
; 28   : 		3, 2, 7, 2, 6, 7,
; 29   : 		4, 5, 6, 5, 7, 6,
; 30   : 	};
; 31   : 
; 32   : 	return IntersectIndexedMesh(

  001c6	ff 75 7c	 push	 DWORD PTR _pt$[ebp]
  001c9	ff 75 78	 push	 DWORD PTR _pv$[ebp]
  001cc	ff 75 74	 push	 DWORD PTR _pu$[ebp]
  001cf	ff 75 70	 push	 DWORD PTR _RayDirection$[ebp]
  001d2	ff 75 6c	 push	 DWORD PTR _RayOriginal$[ebp]
  001d5	6a 24		 push	 36			; 00000024H
  001d7	68 00 00 00 00	 push	 OFFSET ?c_awFillCubeIndices@?1??IntersectCube@CGraphicCollisionObject@@IAE_NPBUD3DXMATRIX@@MMMMMMAAUD3DXVECTOR3@@1PAM22@Z@4QBGB
  001dc	6a 08		 push	 8
  001de	6a 0c		 push	 12			; 0000000cH
  001e0	8d 45 e4	 lea	 eax, DWORD PTR _posVertices$[ebp]
  001e3	50		 push	 eax
  001e4	ff 75 50	 push	 DWORD PTR _c_pmatWorld$[ebp]
  001e7	8b 8d 74 ff ff
	ff		 mov	 ecx, DWORD PTR _this$[ebp]
  001ed	e8 00 00 00 00	 call	 ?IntersectIndexedMesh@CGraphicCollisionObject@@IAE_NPBUD3DXMATRIX@@PBXHH1HAAUD3DXVECTOR3@@2PAM33@Z ; CGraphicCollisionObject::IntersectIndexedMesh

; 33   : 		c_pmatWorld,
; 34   : 		posVertices,
; 35   : 		sizeof(TPosition),
; 36   : 		8,
; 37   : 		c_awFillCubeIndices,
; 38   : 		36,
; 39   : 		RayOriginal,
; 40   : 		RayDirection,
; 41   : 		pu,
; 42   : 		pv,
; 43   : 		pt
; 44   : 	);
; 45   : }

  001f2	5f		 pop	 edi
  001f3	5e		 pop	 esi
  001f4	8b 4d 44	 mov	 ecx, DWORD PTR __$ArrayPad$[ebp]
  001f7	33 cd		 xor	 ecx, ebp
  001f9	e8 00 00 00 00	 call	 @__security_check_cookie@4
  001fe	83 c5 48	 add	 ebp, 72			; 00000048H
  00201	c9		 leave
  00202	c2 30 00	 ret	 48			; 00000030H
?IntersectCube@CGraphicCollisionObject@@IAE_NPBUD3DXMATRIX@@MMMMMMAAUD3DXVECTOR3@@1PAM22@Z ENDP ; CGraphicCollisionObject::IntersectCube
_TEXT	ENDS
; Function compile flags: /Odspy
; File D:\Metin2 Server Files\mainline\SRC_2014\Metin2Client\EterLib\GrpCollisionObject.cpp
;	COMDAT ?IntersectBoundBox@CGraphicCollisionObject@@IAE_NPBUD3DXMATRIX@@ABUSBoundBox@@PAM22@Z
_TEXT	SEGMENT
_this$ = -4						; size = 4
_c_pmatWorld$ = 8					; size = 4
_c_rboundBox$ = 12					; size = 4
_pu$ = 16						; size = 4
_pv$ = 20						; size = 4
_pt$ = 24						; size = 4
?IntersectBoundBox@CGraphicCollisionObject@@IAE_NPBUD3DXMATRIX@@ABUSBoundBox@@PAM22@Z PROC ; CGraphicCollisionObject::IntersectBoundBox, COMDAT
; _this$ = ecx

; 5    : {

  00000	55		 push	 ebp
  00001	8b ec		 mov	 ebp, esp
  00003	51		 push	 ecx
  00004	89 4d fc	 mov	 DWORD PTR _this$[ebp], ecx

; 6    : 	return IntersectCube(c_pmatWorld, c_rboundBox.sx, c_rboundBox.sy, c_rboundBox.sz, c_rboundBox.ex, c_rboundBox.ey, c_rboundBox.ez, ms_vtPickRayOrig, ms_vtPickRayDir, pu, pv, pt);

  00007	ff 75 18	 push	 DWORD PTR _pt$[ebp]
  0000a	ff 75 14	 push	 DWORD PTR _pv$[ebp]
  0000d	ff 75 10	 push	 DWORD PTR _pu$[ebp]
  00010	68 00 00 00 00	 push	 OFFSET ?ms_vtPickRayDir@CGraphicBase@@1UD3DXVECTOR3@@A ; CGraphicBase::ms_vtPickRayDir
  00015	68 00 00 00 00	 push	 OFFSET ?ms_vtPickRayOrig@CGraphicBase@@1UD3DXVECTOR3@@A ; CGraphicBase::ms_vtPickRayOrig
  0001a	8b 45 0c	 mov	 eax, DWORD PTR _c_rboundBox$[ebp]
  0001d	51		 push	 ecx
  0001e	f3 0f 10 40 14	 movss	 xmm0, DWORD PTR [eax+20]
  00023	f3 0f 11 04 24	 movss	 DWORD PTR [esp], xmm0
  00028	8b 45 0c	 mov	 eax, DWORD PTR _c_rboundBox$[ebp]
  0002b	51		 push	 ecx
  0002c	f3 0f 10 40 10	 movss	 xmm0, DWORD PTR [eax+16]
  00031	f3 0f 11 04 24	 movss	 DWORD PTR [esp], xmm0
  00036	8b 45 0c	 mov	 eax, DWORD PTR _c_rboundBox$[ebp]
  00039	51		 push	 ecx
  0003a	f3 0f 10 40 0c	 movss	 xmm0, DWORD PTR [eax+12]
  0003f	f3 0f 11 04 24	 movss	 DWORD PTR [esp], xmm0
  00044	8b 45 0c	 mov	 eax, DWORD PTR _c_rboundBox$[ebp]
  00047	51		 push	 ecx
  00048	f3 0f 10 40 08	 movss	 xmm0, DWORD PTR [eax+8]
  0004d	f3 0f 11 04 24	 movss	 DWORD PTR [esp], xmm0
  00052	8b 45 0c	 mov	 eax, DWORD PTR _c_rboundBox$[ebp]
  00055	51		 push	 ecx
  00056	f3 0f 10 40 04	 movss	 xmm0, DWORD PTR [eax+4]
  0005b	f3 0f 11 04 24	 movss	 DWORD PTR [esp], xmm0
  00060	8b 45 0c	 mov	 eax, DWORD PTR _c_rboundBox$[ebp]
  00063	51		 push	 ecx
  00064	f3 0f 10 00	 movss	 xmm0, DWORD PTR [eax]
  00068	f3 0f 11 04 24	 movss	 DWORD PTR [esp], xmm0
  0006d	ff 75 08	 push	 DWORD PTR _c_pmatWorld$[ebp]
  00070	8b 4d fc	 mov	 ecx, DWORD PTR _this$[ebp]
  00073	e8 00 00 00 00	 call	 ?IntersectCube@CGraphicCollisionObject@@IAE_NPBUD3DXMATRIX@@MMMMMMAAUD3DXVECTOR3@@1PAM22@Z ; CGraphicCollisionObject::IntersectCube

; 7    : }

  00078	c9		 leave
  00079	c2 14 00	 ret	 20			; 00000014H
?IntersectBoundBox@CGraphicCollisionObject@@IAE_NPBUD3DXMATRIX@@ABUSBoundBox@@PAM22@Z ENDP ; CGraphicCollisionObject::IntersectBoundBox
_TEXT	ENDS
; Function compile flags: /Odspy
; File D:\Metin2 Server Files\mainline\SRC_2014\Metin2Client\EterLib\GrpCollisionObject.cpp
; File D:\Metin2 Server Files\mainline\SRC_2014\M2Data\include\d3dx8math.inl
; File D:\Metin2 Server Files\mainline\SRC_2014\Metin2Client\EterLib\GrpCollisionObject.cpp
; File D:\Metin2 Server Files\mainline\SRC_2014\M2Data\include\d3dx8math.inl
; File D:\Metin2 Server Files\mainline\SRC_2014\Metin2Client\EterLib\GrpCollisionObject.cpp
; File D:\Metin2 Server Files\mainline\SRC_2014\M2Data\include\d3dx8math.inl
; File D:\Metin2 Server Files\mainline\SRC_2014\Metin2Client\EterLib\GrpCollisionObject.cpp
; File D:\Metin2 Server Files\mainline\SRC_2014\M2Data\include\d3dx8math.inl
; File D:\Metin2 Server Files\mainline\SRC_2014\Metin2Client\EterLib\GrpCollisionObject.cpp
; File D:\Metin2 Server Files\mainline\SRC_2014\M2Data\include\d3dx8math.inl
; File D:\Metin2 Server Files\mainline\SRC_2014\Metin2Client\EterLib\GrpCollisionObject.cpp
; File D:\Metin2 Server Files\mainline\SRC_2014\M2Data\include\d3dx8math.inl
; File D:\Metin2 Server Files\mainline\SRC_2014\Metin2Client\EterLib\GrpCollisionObject.cpp
; File D:\Metin2 Server Files\mainline\SRC_2014\M2Data\include\d3dx8math.inl
; File D:\Metin2 Server Files\mainline\SRC_2014\Metin2Client\EterLib\GrpCollisionObject.cpp
;	COMDAT ?IntersectTriangle@CGraphicCollisionObject@@IAE_NABUD3DXVECTOR3@@0000PAM11@Z
_TEXT	SEGMENT
_this$ = -256						; size = 4
_fz$ = -252						; size = 4
_fx$ = -248						; size = 4
_fy$ = -244						; size = 4
_fz$ = -240						; size = 4
_fx$ = -236						; size = 4
_fy$ = -232						; size = 4
_fz$ = -228						; size = 4
_fx$ = -224						; size = 4
_fy$ = -220						; size = 4
_fz$ = -216						; size = 4
_fx$ = -212						; size = 4
_fy$ = -208						; size = 4
_fz$ = -204						; size = 4
_fy$ = -200						; size = 4
_fx$ = -196						; size = 4
_fz$ = -192						; size = 4
_fy$ = -188						; size = 4
_fx$ = -184						; size = 4
_fz$ = -180						; size = 4
_fy$ = -176						; size = 4
_fx$ = -172						; size = 4
_t$ = -168						; size = 4
_fInvDet$ = -164					; size = 4
_v$ = -160						; size = 4
_det$ = -156						; size = 4
_u$ = -152						; size = 4
_v$1 = -148						; size = 12
$T2 = -136						; size = 12
$T3 = -124						; size = 12
_v$4 = -112						; size = 12
$T5 = -100						; size = 12
$T6 = -88						; size = 12
_pvec$ = -76						; size = 12
_qvec$ = -64						; size = 12
_tvec$ = -52						; size = 12
_spot$ = -40						; size = 12
_edge2$ = -28						; size = 12
_edge1$ = -16						; size = 12
__$ArrayPad$ = -4					; size = 4
_c_orig$ = 8						; size = 4
_c_dir$ = 12						; size = 4
_c_v0$ = 16						; size = 4
_c_v1$ = 20						; size = 4
_c_v2$ = 24						; size = 4
_pu$ = 28						; size = 4
_pv$ = 32						; size = 4
_pt$ = 36						; size = 4
?IntersectTriangle@CGraphicCollisionObject@@IAE_NABUD3DXVECTOR3@@0000PAM11@Z PROC ; CGraphicCollisionObject::IntersectTriangle, COMDAT
; _this$ = ecx

; 130  : {

  00000	55		 push	 ebp
  00001	8b ec		 mov	 ebp, esp
  00003	81 ec 00 01 00
	00		 sub	 esp, 256		; 00000100H
  00009	a1 00 00 00 00	 mov	 eax, DWORD PTR ___security_cookie
  0000e	33 c5		 xor	 eax, ebp
  00010	89 45 fc	 mov	 DWORD PTR __$ArrayPad$[ebp], eax
  00013	56		 push	 esi
  00014	57		 push	 edi
  00015	89 8d 00 ff ff
	ff		 mov	 DWORD PTR _this$[ebp], ecx
; File D:\Metin2 Server Files\mainline\SRC_2014\M2Data\include\d3dx8math.inl

; 263  :     return D3DXVECTOR3(x - v.x, y - v.y, z - v.z);

  0001b	8b 45 14	 mov	 eax, DWORD PTR _c_v1$[ebp]
  0001e	8b 4d 10	 mov	 ecx, DWORD PTR _c_v0$[ebp]
  00021	f3 0f 10 00	 movss	 xmm0, DWORD PTR [eax]
  00025	f3 0f 5c 01	 subss	 xmm0, DWORD PTR [ecx]
  00029	f3 0f 11 85 54
	ff ff ff	 movss	 DWORD PTR _fx$[ebp], xmm0
  00031	8b 45 14	 mov	 eax, DWORD PTR _c_v1$[ebp]
  00034	8b 4d 10	 mov	 ecx, DWORD PTR _c_v0$[ebp]
  00037	f3 0f 10 40 04	 movss	 xmm0, DWORD PTR [eax+4]
  0003c	f3 0f 5c 41 04	 subss	 xmm0, DWORD PTR [ecx+4]
  00041	f3 0f 11 85 50
	ff ff ff	 movss	 DWORD PTR _fy$[ebp], xmm0
  00049	8b 45 14	 mov	 eax, DWORD PTR _c_v1$[ebp]
  0004c	8b 4d 10	 mov	 ecx, DWORD PTR _c_v0$[ebp]
  0004f	f3 0f 10 40 08	 movss	 xmm0, DWORD PTR [eax+8]
  00054	f3 0f 5c 41 08	 subss	 xmm0, DWORD PTR [ecx+8]
  00059	f3 0f 11 85 4c
	ff ff ff	 movss	 DWORD PTR _fz$[ebp], xmm0

; 180  :     x = fx;

  00061	f3 0f 10 85 54
	ff ff ff	 movss	 xmm0, DWORD PTR _fx$[ebp]
  00069	f3 0f 11 45 f0	 movss	 DWORD PTR _edge1$[ebp], xmm0

; 181  :     y = fy;

  0006e	f3 0f 10 85 50
	ff ff ff	 movss	 xmm0, DWORD PTR _fy$[ebp]
  00076	f3 0f 11 45 f4	 movss	 DWORD PTR _edge1$[ebp+4], xmm0

; 182  :     z = fz;

  0007b	f3 0f 10 85 4c
	ff ff ff	 movss	 xmm0, DWORD PTR _fz$[ebp]
  00083	f3 0f 11 45 f8	 movss	 DWORD PTR _edge1$[ebp+8], xmm0

; 263  :     return D3DXVECTOR3(x - v.x, y - v.y, z - v.z);

  00088	8b 45 18	 mov	 eax, DWORD PTR _c_v2$[ebp]
  0008b	8b 4d 10	 mov	 ecx, DWORD PTR _c_v0$[ebp]
  0008e	f3 0f 10 00	 movss	 xmm0, DWORD PTR [eax]
  00092	f3 0f 5c 01	 subss	 xmm0, DWORD PTR [ecx]
  00096	f3 0f 11 85 08
	ff ff ff	 movss	 DWORD PTR _fx$[ebp], xmm0
  0009e	8b 45 18	 mov	 eax, DWORD PTR _c_v2$[ebp]
  000a1	8b 4d 10	 mov	 ecx, DWORD PTR _c_v0$[ebp]
  000a4	f3 0f 10 40 04	 movss	 xmm0, DWORD PTR [eax+4]
  000a9	f3 0f 5c 41 04	 subss	 xmm0, DWORD PTR [ecx+4]
  000ae	f3 0f 11 85 0c
	ff ff ff	 movss	 DWORD PTR _fy$[ebp], xmm0
  000b6	8b 45 18	 mov	 eax, DWORD PTR _c_v2$[ebp]
  000b9	8b 4d 10	 mov	 ecx, DWORD PTR _c_v0$[ebp]
  000bc	f3 0f 10 40 08	 movss	 xmm0, DWORD PTR [eax+8]
  000c1	f3 0f 5c 41 08	 subss	 xmm0, DWORD PTR [ecx+8]
  000c6	f3 0f 11 85 10
	ff ff ff	 movss	 DWORD PTR _fz$[ebp], xmm0

; 180  :     x = fx;

  000ce	f3 0f 10 85 08
	ff ff ff	 movss	 xmm0, DWORD PTR _fx$[ebp]
  000d6	f3 0f 11 45 e4	 movss	 DWORD PTR _edge2$[ebp], xmm0

; 181  :     y = fy;

  000db	f3 0f 10 85 0c
	ff ff ff	 movss	 xmm0, DWORD PTR _fy$[ebp]
  000e3	f3 0f 11 45 e8	 movss	 DWORD PTR _edge2$[ebp+4], xmm0

; 182  :     z = fz;

  000e8	f3 0f 10 85 10
	ff ff ff	 movss	 xmm0, DWORD PTR _fz$[ebp]
  000f0	f3 0f 11 45 ec	 movss	 DWORD PTR _edge2$[ebp+8], xmm0

; 1277 :     v.x = pV1->y * pV2->z - pV1->z * pV2->y;

  000f5	8b 45 0c	 mov	 eax, DWORD PTR _c_dir$[ebp]
  000f8	f3 0f 10 40 04	 movss	 xmm0, DWORD PTR [eax+4]
  000fd	f3 0f 59 45 ec	 mulss	 xmm0, DWORD PTR _edge2$[ebp+8]
  00102	8b 45 0c	 mov	 eax, DWORD PTR _c_dir$[ebp]
  00105	f3 0f 10 48 08	 movss	 xmm1, DWORD PTR [eax+8]
  0010a	f3 0f 59 4d e8	 mulss	 xmm1, DWORD PTR _edge2$[ebp+4]
  0010f	f3 0f 5c c1	 subss	 xmm0, xmm1
  00113	f3 0f 11 85 6c
	ff ff ff	 movss	 DWORD PTR _v$1[ebp], xmm0

; 1278 :     v.y = pV1->z * pV2->x - pV1->x * pV2->z;

  0011b	8b 45 0c	 mov	 eax, DWORD PTR _c_dir$[ebp]
  0011e	f3 0f 10 40 08	 movss	 xmm0, DWORD PTR [eax+8]
  00123	f3 0f 59 45 e4	 mulss	 xmm0, DWORD PTR _edge2$[ebp]
  00128	8b 45 0c	 mov	 eax, DWORD PTR _c_dir$[ebp]
  0012b	f3 0f 10 08	 movss	 xmm1, DWORD PTR [eax]
  0012f	f3 0f 59 4d ec	 mulss	 xmm1, DWORD PTR _edge2$[ebp+8]
  00134	f3 0f 5c c1	 subss	 xmm0, xmm1
  00138	f3 0f 11 85 70
	ff ff ff	 movss	 DWORD PTR _v$1[ebp+4], xmm0

; 1279 :     v.z = pV1->x * pV2->y - pV1->y * pV2->x;

  00140	8b 45 0c	 mov	 eax, DWORD PTR _c_dir$[ebp]
  00143	f3 0f 10 00	 movss	 xmm0, DWORD PTR [eax]
  00147	f3 0f 59 45 e8	 mulss	 xmm0, DWORD PTR _edge2$[ebp+4]
  0014c	8b 45 0c	 mov	 eax, DWORD PTR _c_dir$[ebp]
  0014f	f3 0f 10 48 04	 movss	 xmm1, DWORD PTR [eax+4]
  00154	f3 0f 59 4d e4	 mulss	 xmm1, DWORD PTR _edge2$[ebp]
  00159	f3 0f 5c c1	 subss	 xmm0, xmm1
  0015d	f3 0f 11 85 74
	ff ff ff	 movss	 DWORD PTR _v$1[ebp+8], xmm0

; 1280 : 
; 1281 :     *pOut = v;

  00165	8d b5 6c ff ff
	ff		 lea	 esi, DWORD PTR _v$1[ebp]
  0016b	8d 7d b4	 lea	 edi, DWORD PTR _pvec$[ebp]
  0016e	a5		 movsd
  0016f	a5		 movsd
  00170	a5		 movsd

; 1264 :     return pV1->x * pV2->x + pV1->y * pV2->y + pV1->z * pV2->z;

  00171	f3 0f 10 45 f8	 movss	 xmm0, DWORD PTR _edge1$[ebp+8]
  00176	f3 0f 59 45 bc	 mulss	 xmm0, DWORD PTR _pvec$[ebp+8]
  0017b	f3 0f 10 4d f4	 movss	 xmm1, DWORD PTR _edge1$[ebp+4]
  00180	f3 0f 59 4d b8	 mulss	 xmm1, DWORD PTR _pvec$[ebp+4]
  00185	f3 0f 10 55 f0	 movss	 xmm2, DWORD PTR _edge1$[ebp]
  0018a	f3 0f 59 55 b4	 mulss	 xmm2, DWORD PTR _pvec$[ebp]
  0018f	f3 0f 58 d1	 addss	 xmm2, xmm1
  00193	f3 0f 58 d0	 addss	 xmm2, xmm0
; File D:\Metin2 Server Files\mainline\SRC_2014\Metin2Client\EterLib\GrpCollisionObject.cpp

; 136  :     FLOAT det = D3DXVec3Dot(&edge1, &pvec);

  00197	f3 0f 11 95 64
	ff ff ff	 movss	 DWORD PTR _det$[ebp], xmm2

; 137  :     D3DXVECTOR3 tvec;
; 138  : 
; 139  :     if (det > 0)

  0019f	f3 0f 10 85 64
	ff ff ff	 movss	 xmm0, DWORD PTR _det$[ebp]
  001a7	0f 2f 05 00 00
	00 00		 comiss	 xmm0, DWORD PTR __real@00000000
  001ae	0f 86 84 00 00
	00		 jbe	 $LN2@IntersectT
; File D:\Metin2 Server Files\mainline\SRC_2014\M2Data\include\d3dx8math.inl

; 263  :     return D3DXVECTOR3(x - v.x, y - v.y, z - v.z);

  001b4	8b 45 08	 mov	 eax, DWORD PTR _c_orig$[ebp]
  001b7	8b 4d 10	 mov	 ecx, DWORD PTR _c_v0$[ebp]
  001ba	f3 0f 10 00	 movss	 xmm0, DWORD PTR [eax]
  001be	f3 0f 5c 01	 subss	 xmm0, DWORD PTR [ecx]
  001c2	f3 0f 11 85 14
	ff ff ff	 movss	 DWORD PTR _fx$[ebp], xmm0
  001ca	8b 45 08	 mov	 eax, DWORD PTR _c_orig$[ebp]
  001cd	8b 4d 10	 mov	 ecx, DWORD PTR _c_v0$[ebp]
  001d0	f3 0f 10 40 04	 movss	 xmm0, DWORD PTR [eax+4]
  001d5	f3 0f 5c 41 04	 subss	 xmm0, DWORD PTR [ecx+4]
  001da	f3 0f 11 85 18
	ff ff ff	 movss	 DWORD PTR _fy$[ebp], xmm0
  001e2	8b 45 08	 mov	 eax, DWORD PTR _c_orig$[ebp]
  001e5	8b 4d 10	 mov	 ecx, DWORD PTR _c_v0$[ebp]
  001e8	f3 0f 10 40 08	 movss	 xmm0, DWORD PTR [eax+8]
  001ed	f3 0f 5c 41 08	 subss	 xmm0, DWORD PTR [ecx+8]
  001f2	f3 0f 11 85 1c
	ff ff ff	 movss	 DWORD PTR _fz$[ebp], xmm0

; 180  :     x = fx;

  001fa	f3 0f 10 85 14
	ff ff ff	 movss	 xmm0, DWORD PTR _fx$[ebp]
  00202	f3 0f 11 85 78
	ff ff ff	 movss	 DWORD PTR $T2[ebp], xmm0

; 181  :     y = fy;

  0020a	f3 0f 10 85 18
	ff ff ff	 movss	 xmm0, DWORD PTR _fy$[ebp]
  00212	f3 0f 11 85 7c
	ff ff ff	 movss	 DWORD PTR $T2[ebp+4], xmm0

; 182  :     z = fz;

  0021a	f3 0f 10 85 1c
	ff ff ff	 movss	 xmm0, DWORD PTR _fz$[ebp]
  00222	f3 0f 11 45 80	 movss	 DWORD PTR $T2[ebp+8], xmm0
; File D:\Metin2 Server Files\mainline\SRC_2014\Metin2Client\EterLib\GrpCollisionObject.cpp

; 141  : 		tvec = c_orig - c_v0;

  00227	8d b5 78 ff ff
	ff		 lea	 esi, DWORD PTR $T2[ebp]
  0022d	8d 7d cc	 lea	 edi, DWORD PTR _tvec$[ebp]
  00230	a5		 movsd
  00231	a5		 movsd
  00232	a5		 movsd

; 142  :     }

  00233	e9 8d 00 00 00	 jmp	 $LN3@IntersectT
$LN2@IntersectT:
; File D:\Metin2 Server Files\mainline\SRC_2014\M2Data\include\d3dx8math.inl

; 263  :     return D3DXVECTOR3(x - v.x, y - v.y, z - v.z);

  00238	8b 45 10	 mov	 eax, DWORD PTR _c_v0$[ebp]
  0023b	8b 4d 08	 mov	 ecx, DWORD PTR _c_orig$[ebp]
  0023e	f3 0f 10 00	 movss	 xmm0, DWORD PTR [eax]
  00242	f3 0f 5c 01	 subss	 xmm0, DWORD PTR [ecx]
  00246	f3 0f 11 85 20
	ff ff ff	 movss	 DWORD PTR _fx$[ebp], xmm0
  0024e	8b 45 10	 mov	 eax, DWORD PTR _c_v0$[ebp]
  00251	8b 4d 08	 mov	 ecx, DWORD PTR _c_orig$[ebp]
  00254	f3 0f 10 40 04	 movss	 xmm0, DWORD PTR [eax+4]
  00259	f3 0f 5c 41 04	 subss	 xmm0, DWORD PTR [ecx+4]
  0025e	f3 0f 11 85 24
	ff ff ff	 movss	 DWORD PTR _fy$[ebp], xmm0
  00266	8b 45 10	 mov	 eax, DWORD PTR _c_v0$[ebp]
  00269	8b 4d 08	 mov	 ecx, DWORD PTR _c_orig$[ebp]
  0026c	f3 0f 10 40 08	 movss	 xmm0, DWORD PTR [eax+8]
  00271	f3 0f 5c 41 08	 subss	 xmm0, DWORD PTR [ecx+8]
  00276	f3 0f 11 85 28
	ff ff ff	 movss	 DWORD PTR _fz$[ebp], xmm0

; 180  :     x = fx;

  0027e	f3 0f 10 85 20
	ff ff ff	 movss	 xmm0, DWORD PTR _fx$[ebp]
  00286	f3 0f 11 45 84	 movss	 DWORD PTR $T3[ebp], xmm0

; 181  :     y = fy;

  0028b	f3 0f 10 85 24
	ff ff ff	 movss	 xmm0, DWORD PTR _fy$[ebp]
  00293	f3 0f 11 45 88	 movss	 DWORD PTR $T3[ebp+4], xmm0

; 182  :     z = fz;

  00298	f3 0f 10 85 28
	ff ff ff	 movss	 xmm0, DWORD PTR _fz$[ebp]
  002a0	f3 0f 11 45 8c	 movss	 DWORD PTR $T3[ebp+8], xmm0
; File D:\Metin2 Server Files\mainline\SRC_2014\Metin2Client\EterLib\GrpCollisionObject.cpp

; 145  : 		tvec = c_v0 - c_orig;

  002a5	8d 75 84	 lea	 esi, DWORD PTR $T3[ebp]
  002a8	8d 7d cc	 lea	 edi, DWORD PTR _tvec$[ebp]
  002ab	a5		 movsd
  002ac	a5		 movsd
  002ad	a5		 movsd

; 146  : 		det = -det;

  002ae	f3 0f 10 85 64
	ff ff ff	 movss	 xmm0, DWORD PTR _det$[ebp]
  002b6	0f 57 05 00 00
	00 00		 xorps	 xmm0, DWORD PTR __xmm@80000000800000008000000080000000
  002bd	f3 0f 11 85 64
	ff ff ff	 movss	 DWORD PTR _det$[ebp], xmm0
$LN3@IntersectT:

; 147  :     }
; 148  : 
; 149  :     if (det < 0.0001f)

  002c5	f3 0f 10 05 00
	00 00 00	 movss	 xmm0, DWORD PTR __real@38d1b717
  002cd	0f 2f 85 64 ff
	ff ff		 comiss	 xmm0, DWORD PTR _det$[ebp]
  002d4	76 07		 jbe	 SHORT $LN4@IntersectT

; 150  : 		return false;

  002d6	32 c0		 xor	 al, al
  002d8	e9 29 03 00 00	 jmp	 $LN1@IntersectT
$LN4@IntersectT:
; File D:\Metin2 Server Files\mainline\SRC_2014\M2Data\include\d3dx8math.inl

; 1264 :     return pV1->x * pV2->x + pV1->y * pV2->y + pV1->z * pV2->z;

  002dd	f3 0f 10 45 d4	 movss	 xmm0, DWORD PTR _tvec$[ebp+8]
  002e2	f3 0f 59 45 bc	 mulss	 xmm0, DWORD PTR _pvec$[ebp+8]
  002e7	f3 0f 10 4d d0	 movss	 xmm1, DWORD PTR _tvec$[ebp+4]
  002ec	f3 0f 59 4d b8	 mulss	 xmm1, DWORD PTR _pvec$[ebp+4]
  002f1	f3 0f 10 55 cc	 movss	 xmm2, DWORD PTR _tvec$[ebp]
  002f6	f3 0f 59 55 b4	 mulss	 xmm2, DWORD PTR _pvec$[ebp]
  002fb	f3 0f 58 d1	 addss	 xmm2, xmm1
  002ff	f3 0f 58 d0	 addss	 xmm2, xmm0
; File D:\Metin2 Server Files\mainline\SRC_2014\Metin2Client\EterLib\GrpCollisionObject.cpp

; 153  :     u = D3DXVec3Dot(&tvec, &pvec);

  00303	f3 0f 11 95 68
	ff ff ff	 movss	 DWORD PTR _u$[ebp], xmm2

; 154  :     if (u < 0.0f || u > det)

  0030b	0f 57 c0	 xorps	 xmm0, xmm0
  0030e	0f 2f 85 68 ff
	ff ff		 comiss	 xmm0, DWORD PTR _u$[ebp]
  00315	77 11		 ja	 SHORT $LN6@IntersectT
  00317	f3 0f 10 85 68
	ff ff ff	 movss	 xmm0, DWORD PTR _u$[ebp]
  0031f	0f 2f 85 64 ff
	ff ff		 comiss	 xmm0, DWORD PTR _det$[ebp]
  00326	76 07		 jbe	 SHORT $LN5@IntersectT
$LN6@IntersectT:

; 155  : 		return false;

  00328	32 c0		 xor	 al, al
  0032a	e9 d7 02 00 00	 jmp	 $LN1@IntersectT
$LN5@IntersectT:
; File D:\Metin2 Server Files\mainline\SRC_2014\M2Data\include\d3dx8math.inl

; 1277 :     v.x = pV1->y * pV2->z - pV1->z * pV2->y;

  0032f	f3 0f 10 45 d0	 movss	 xmm0, DWORD PTR _tvec$[ebp+4]
  00334	f3 0f 59 45 f8	 mulss	 xmm0, DWORD PTR _edge1$[ebp+8]
  00339	f3 0f 10 4d d4	 movss	 xmm1, DWORD PTR _tvec$[ebp+8]
  0033e	f3 0f 59 4d f4	 mulss	 xmm1, DWORD PTR _edge1$[ebp+4]
  00343	f3 0f 5c c1	 subss	 xmm0, xmm1
  00347	f3 0f 11 45 90	 movss	 DWORD PTR _v$4[ebp], xmm0

; 1278 :     v.y = pV1->z * pV2->x - pV1->x * pV2->z;

  0034c	f3 0f 10 45 d4	 movss	 xmm0, DWORD PTR _tvec$[ebp+8]
  00351	f3 0f 59 45 f0	 mulss	 xmm0, DWORD PTR _edge1$[ebp]
  00356	f3 0f 10 4d cc	 movss	 xmm1, DWORD PTR _tvec$[ebp]
  0035b	f3 0f 59 4d f8	 mulss	 xmm1, DWORD PTR _edge1$[ebp+8]
  00360	f3 0f 5c c1	 subss	 xmm0, xmm1
  00364	f3 0f 11 45 94	 movss	 DWORD PTR _v$4[ebp+4], xmm0

; 1279 :     v.z = pV1->x * pV2->y - pV1->y * pV2->x;

  00369	f3 0f 10 45 cc	 movss	 xmm0, DWORD PTR _tvec$[ebp]
  0036e	f3 0f 59 45 f4	 mulss	 xmm0, DWORD PTR _edge1$[ebp+4]
  00373	f3 0f 10 4d d0	 movss	 xmm1, DWORD PTR _tvec$[ebp+4]
  00378	f3 0f 59 4d f0	 mulss	 xmm1, DWORD PTR _edge1$[ebp]
  0037d	f3 0f 5c c1	 subss	 xmm0, xmm1
  00381	f3 0f 11 45 98	 movss	 DWORD PTR _v$4[ebp+8], xmm0

; 1280 : 
; 1281 :     *pOut = v;

  00386	8d 75 90	 lea	 esi, DWORD PTR _v$4[ebp]
  00389	8d 7d c0	 lea	 edi, DWORD PTR _qvec$[ebp]
  0038c	a5		 movsd
  0038d	a5		 movsd
  0038e	a5		 movsd

; 1264 :     return pV1->x * pV2->x + pV1->y * pV2->y + pV1->z * pV2->z;

  0038f	8b 45 0c	 mov	 eax, DWORD PTR _c_dir$[ebp]
  00392	f3 0f 10 40 08	 movss	 xmm0, DWORD PTR [eax+8]
  00397	f3 0f 59 45 c8	 mulss	 xmm0, DWORD PTR _qvec$[ebp+8]
  0039c	8b 45 0c	 mov	 eax, DWORD PTR _c_dir$[ebp]
  0039f	f3 0f 10 48 04	 movss	 xmm1, DWORD PTR [eax+4]
  003a4	f3 0f 59 4d c4	 mulss	 xmm1, DWORD PTR _qvec$[ebp+4]
  003a9	8b 45 0c	 mov	 eax, DWORD PTR _c_dir$[ebp]
  003ac	f3 0f 10 10	 movss	 xmm2, DWORD PTR [eax]
  003b0	f3 0f 59 55 c0	 mulss	 xmm2, DWORD PTR _qvec$[ebp]
  003b5	f3 0f 58 d1	 addss	 xmm2, xmm1
  003b9	f3 0f 58 d0	 addss	 xmm2, xmm0
; File D:\Metin2 Server Files\mainline\SRC_2014\Metin2Client\EterLib\GrpCollisionObject.cpp

; 160  :     v = D3DXVec3Dot(&c_dir, &qvec);

  003bd	f3 0f 11 95 60
	ff ff ff	 movss	 DWORD PTR _v$[ebp], xmm2

; 161  :     if (v < 0.0f || u + v > det)

  003c5	0f 57 c0	 xorps	 xmm0, xmm0
  003c8	0f 2f 85 60 ff
	ff ff		 comiss	 xmm0, DWORD PTR _v$[ebp]
  003cf	77 19		 ja	 SHORT $LN8@IntersectT
  003d1	f3 0f 10 85 68
	ff ff ff	 movss	 xmm0, DWORD PTR _u$[ebp]
  003d9	f3 0f 58 85 60
	ff ff ff	 addss	 xmm0, DWORD PTR _v$[ebp]
  003e1	0f 2f 85 64 ff
	ff ff		 comiss	 xmm0, DWORD PTR _det$[ebp]
  003e8	76 07		 jbe	 SHORT $LN7@IntersectT
$LN8@IntersectT:

; 162  : 		return false;

  003ea	32 c0		 xor	 al, al
  003ec	e9 15 02 00 00	 jmp	 $LN1@IntersectT
$LN7@IntersectT:
; File D:\Metin2 Server Files\mainline\SRC_2014\M2Data\include\d3dx8math.inl

; 1264 :     return pV1->x * pV2->x + pV1->y * pV2->y + pV1->z * pV2->z;

  003f1	f3 0f 10 45 ec	 movss	 xmm0, DWORD PTR _edge2$[ebp+8]
  003f6	f3 0f 59 45 c8	 mulss	 xmm0, DWORD PTR _qvec$[ebp+8]
  003fb	f3 0f 10 4d e8	 movss	 xmm1, DWORD PTR _edge2$[ebp+4]
  00400	f3 0f 59 4d c4	 mulss	 xmm1, DWORD PTR _qvec$[ebp+4]
  00405	f3 0f 10 55 e4	 movss	 xmm2, DWORD PTR _edge2$[ebp]
  0040a	f3 0f 59 55 c0	 mulss	 xmm2, DWORD PTR _qvec$[ebp]
  0040f	f3 0f 58 d1	 addss	 xmm2, xmm1
  00413	f3 0f 58 d0	 addss	 xmm2, xmm0
; File D:\Metin2 Server Files\mainline\SRC_2014\Metin2Client\EterLib\GrpCollisionObject.cpp

; 164  :     t = D3DXVec3Dot(&edge2, &qvec);

  00417	f3 0f 11 95 58
	ff ff ff	 movss	 DWORD PTR _t$[ebp], xmm2

; 165  :     FLOAT fInvDet = 1.0f / det;

  0041f	f3 0f 10 05 00
	00 00 00	 movss	 xmm0, DWORD PTR __real@3f800000
  00427	f3 0f 5e 85 64
	ff ff ff	 divss	 xmm0, DWORD PTR _det$[ebp]
  0042f	f3 0f 11 85 5c
	ff ff ff	 movss	 DWORD PTR _fInvDet$[ebp], xmm0

; 166  :     t *= fInvDet;

  00437	f3 0f 10 85 58
	ff ff ff	 movss	 xmm0, DWORD PTR _t$[ebp]
  0043f	f3 0f 59 85 5c
	ff ff ff	 mulss	 xmm0, DWORD PTR _fInvDet$[ebp]
  00447	f3 0f 11 85 58
	ff ff ff	 movss	 DWORD PTR _t$[ebp], xmm0

; 167  :     u *= fInvDet;

  0044f	f3 0f 10 85 68
	ff ff ff	 movss	 xmm0, DWORD PTR _u$[ebp]
  00457	f3 0f 59 85 5c
	ff ff ff	 mulss	 xmm0, DWORD PTR _fInvDet$[ebp]
  0045f	f3 0f 11 85 68
	ff ff ff	 movss	 DWORD PTR _u$[ebp], xmm0

; 168  :     v *= fInvDet;

  00467	f3 0f 10 85 60
	ff ff ff	 movss	 xmm0, DWORD PTR _v$[ebp]
  0046f	f3 0f 59 85 5c
	ff ff ff	 mulss	 xmm0, DWORD PTR _fInvDet$[ebp]
  00477	f3 0f 11 85 60
	ff ff ff	 movss	 DWORD PTR _v$[ebp], xmm0
; File D:\Metin2 Server Files\mainline\SRC_2014\M2Data\include\d3dx8math.inl

; 269  :     return D3DXVECTOR3(x * f, y * f, z * f);

  0047f	f3 0f 10 45 e4	 movss	 xmm0, DWORD PTR _edge2$[ebp]
  00484	f3 0f 59 85 60
	ff ff ff	 mulss	 xmm0, DWORD PTR _v$[ebp]
  0048c	f3 0f 11 85 2c
	ff ff ff	 movss	 DWORD PTR _fx$[ebp], xmm0
  00494	f3 0f 10 45 e8	 movss	 xmm0, DWORD PTR _edge2$[ebp+4]
  00499	f3 0f 59 85 60
	ff ff ff	 mulss	 xmm0, DWORD PTR _v$[ebp]
  004a1	f3 0f 11 85 30
	ff ff ff	 movss	 DWORD PTR _fy$[ebp], xmm0
  004a9	f3 0f 10 45 ec	 movss	 xmm0, DWORD PTR _edge2$[ebp+8]
  004ae	f3 0f 59 85 60
	ff ff ff	 mulss	 xmm0, DWORD PTR _v$[ebp]
  004b6	f3 0f 11 85 04
	ff ff ff	 movss	 DWORD PTR _fz$[ebp], xmm0

; 180  :     x = fx;

  004be	f3 0f 10 85 2c
	ff ff ff	 movss	 xmm0, DWORD PTR _fx$[ebp]
  004c6	f3 0f 11 45 9c	 movss	 DWORD PTR $T5[ebp], xmm0

; 181  :     y = fy;

  004cb	f3 0f 10 85 30
	ff ff ff	 movss	 xmm0, DWORD PTR _fy$[ebp]
  004d3	f3 0f 11 45 a0	 movss	 DWORD PTR $T5[ebp+4], xmm0

; 182  :     z = fz;

  004d8	f3 0f 10 85 04
	ff ff ff	 movss	 xmm0, DWORD PTR _fz$[ebp]
  004e0	f3 0f 11 45 a4	 movss	 DWORD PTR $T5[ebp+8], xmm0

; 269  :     return D3DXVECTOR3(x * f, y * f, z * f);

  004e5	f3 0f 10 45 f0	 movss	 xmm0, DWORD PTR _edge1$[ebp]
  004ea	f3 0f 59 85 68
	ff ff ff	 mulss	 xmm0, DWORD PTR _u$[ebp]
  004f2	f3 0f 11 85 48
	ff ff ff	 movss	 DWORD PTR _fx$[ebp], xmm0
  004fa	f3 0f 10 45 f4	 movss	 xmm0, DWORD PTR _edge1$[ebp+4]
  004ff	f3 0f 59 85 68
	ff ff ff	 mulss	 xmm0, DWORD PTR _u$[ebp]
  00507	f3 0f 11 85 44
	ff ff ff	 movss	 DWORD PTR _fy$[ebp], xmm0
  0050f	f3 0f 10 45 f8	 movss	 xmm0, DWORD PTR _edge1$[ebp+8]
  00514	f3 0f 59 85 68
	ff ff ff	 mulss	 xmm0, DWORD PTR _u$[ebp]
  0051c	f3 0f 11 85 40
	ff ff ff	 movss	 DWORD PTR _fz$[ebp], xmm0

; 180  :     x = fx;

  00524	f3 0f 10 85 48
	ff ff ff	 movss	 xmm0, DWORD PTR _fx$[ebp]
  0052c	f3 0f 11 45 a8	 movss	 DWORD PTR $T6[ebp], xmm0

; 181  :     y = fy;

  00531	f3 0f 10 85 44
	ff ff ff	 movss	 xmm0, DWORD PTR _fy$[ebp]
  00539	f3 0f 11 45 ac	 movss	 DWORD PTR $T6[ebp+4], xmm0

; 182  :     z = fz;

  0053e	f3 0f 10 85 40
	ff ff ff	 movss	 xmm0, DWORD PTR _fz$[ebp]
  00546	f3 0f 11 45 b0	 movss	 DWORD PTR $T6[ebp+8], xmm0

; 257  :     return D3DXVECTOR3(x + v.x, y + v.y, z + v.z);

  0054b	f3 0f 10 45 a8	 movss	 xmm0, DWORD PTR $T6[ebp]
  00550	f3 0f 58 45 9c	 addss	 xmm0, DWORD PTR $T5[ebp]
  00555	f3 0f 11 85 3c
	ff ff ff	 movss	 DWORD PTR _fx$[ebp], xmm0
  0055d	f3 0f 10 45 ac	 movss	 xmm0, DWORD PTR $T6[ebp+4]
  00562	f3 0f 58 45 a0	 addss	 xmm0, DWORD PTR $T5[ebp+4]
  00567	f3 0f 11 85 38
	ff ff ff	 movss	 DWORD PTR _fy$[ebp], xmm0
  0056f	f3 0f 10 45 b0	 movss	 xmm0, DWORD PTR $T6[ebp+8]
  00574	f3 0f 58 45 a4	 addss	 xmm0, DWORD PTR $T5[ebp+8]
  00579	f3 0f 11 85 34
	ff ff ff	 movss	 DWORD PTR _fz$[ebp], xmm0

; 180  :     x = fx;

  00581	f3 0f 10 85 3c
	ff ff ff	 movss	 xmm0, DWORD PTR _fx$[ebp]
  00589	f3 0f 11 45 d8	 movss	 DWORD PTR _spot$[ebp], xmm0

; 181  :     y = fy;

  0058e	f3 0f 10 85 38
	ff ff ff	 movss	 xmm0, DWORD PTR _fy$[ebp]
  00596	f3 0f 11 45 dc	 movss	 DWORD PTR _spot$[ebp+4], xmm0

; 182  :     z = fz;

  0059b	f3 0f 10 85 34
	ff ff ff	 movss	 xmm0, DWORD PTR _fz$[ebp]
  005a3	f3 0f 11 45 e0	 movss	 DWORD PTR _spot$[ebp+8], xmm0

; 204  :     x += v.x;

  005a8	8b 45 10	 mov	 eax, DWORD PTR _c_v0$[ebp]
  005ab	f3 0f 10 45 d8	 movss	 xmm0, DWORD PTR _spot$[ebp]
  005b0	f3 0f 58 00	 addss	 xmm0, DWORD PTR [eax]
  005b4	f3 0f 11 45 d8	 movss	 DWORD PTR _spot$[ebp], xmm0

; 205  :     y += v.y;

  005b9	8b 45 10	 mov	 eax, DWORD PTR _c_v0$[ebp]
  005bc	f3 0f 10 45 dc	 movss	 xmm0, DWORD PTR _spot$[ebp+4]
  005c1	f3 0f 58 40 04	 addss	 xmm0, DWORD PTR [eax+4]
  005c6	f3 0f 11 45 dc	 movss	 DWORD PTR _spot$[ebp+4], xmm0

; 206  :     z += v.z;

  005cb	8b 45 10	 mov	 eax, DWORD PTR _c_v0$[ebp]
  005ce	f3 0f 10 45 e0	 movss	 xmm0, DWORD PTR _spot$[ebp+8]
  005d3	f3 0f 58 40 08	 addss	 xmm0, DWORD PTR [eax+8]
  005d8	f3 0f 11 45 e0	 movss	 DWORD PTR _spot$[ebp+8], xmm0
; File D:\Metin2 Server Files\mainline\SRC_2014\Metin2Client\EterLib\GrpCollisionObject.cpp

; 173  : 	*pu = spot.x;

  005dd	8b 45 1c	 mov	 eax, DWORD PTR _pu$[ebp]
  005e0	f3 0f 10 45 d8	 movss	 xmm0, DWORD PTR _spot$[ebp]
  005e5	f3 0f 11 00	 movss	 DWORD PTR [eax], xmm0

; 174  : 	*pv = spot.y;

  005e9	8b 45 20	 mov	 eax, DWORD PTR _pv$[ebp]
  005ec	f3 0f 10 45 dc	 movss	 xmm0, DWORD PTR _spot$[ebp+4]
  005f1	f3 0f 11 00	 movss	 DWORD PTR [eax], xmm0

; 175  : 	*pt = t;

  005f5	8b 45 24	 mov	 eax, DWORD PTR _pt$[ebp]
  005f8	f3 0f 10 85 58
	ff ff ff	 movss	 xmm0, DWORD PTR _t$[ebp]
  00600	f3 0f 11 00	 movss	 DWORD PTR [eax], xmm0

; 176  : 
; 177  : 	return true;

  00604	b0 01		 mov	 al, 1
$LN1@IntersectT:

; 178  : }

  00606	5f		 pop	 edi
  00607	5e		 pop	 esi
  00608	8b 4d fc	 mov	 ecx, DWORD PTR __$ArrayPad$[ebp]
  0060b	33 cd		 xor	 ecx, ebp
  0060d	e8 00 00 00 00	 call	 @__security_check_cookie@4
  00612	c9		 leave
  00613	c2 20 00	 ret	 32			; 00000020H
?IntersectTriangle@CGraphicCollisionObject@@IAE_NABUD3DXVECTOR3@@0000PAM11@Z ENDP ; CGraphicCollisionObject::IntersectTriangle
_TEXT	ENDS
; Function compile flags: /Odspy
; File D:\Metin2 Server Files\mainline\SRC_2014\Metin2Client\EterLib\GrpCollisionObject.cpp
;	COMDAT ??1CGraphicCollisionObject@@UAE@XZ
_TEXT	SEGMENT
_this$ = -4						; size = 4
??1CGraphicCollisionObject@@UAE@XZ PROC			; CGraphicCollisionObject::~CGraphicCollisionObject, COMDAT
; _this$ = ecx

; 239  : {

  00000	55		 push	 ebp
  00001	8b ec		 mov	 ebp, esp
  00003	51		 push	 ecx
  00004	89 4d fc	 mov	 DWORD PTR _this$[ebp], ecx
  00007	8b 45 fc	 mov	 eax, DWORD PTR _this$[ebp]
  0000a	c7 00 00 00 00
	00		 mov	 DWORD PTR [eax], OFFSET ??_7CGraphicCollisionObject@@6B@

; 240  : }

  00010	8b 4d fc	 mov	 ecx, DWORD PTR _this$[ebp]
  00013	e8 00 00 00 00	 call	 ??1CGraphicBase@@UAE@XZ	; CGraphicBase::~CGraphicBase
  00018	c9		 leave
  00019	c3		 ret	 0
??1CGraphicCollisionObject@@UAE@XZ ENDP			; CGraphicCollisionObject::~CGraphicCollisionObject
_TEXT	ENDS
; Function compile flags: /Odspy
; File D:\Metin2 Server Files\mainline\SRC_2014\Metin2Client\EterLib\GrpCollisionObject.cpp
;	COMDAT ??0CGraphicCollisionObject@@QAE@XZ
_TEXT	SEGMENT
_this$ = -4						; size = 4
??0CGraphicCollisionObject@@QAE@XZ PROC			; CGraphicCollisionObject::CGraphicCollisionObject, COMDAT
; _this$ = ecx

; 235  : {

  00000	55		 push	 ebp
  00001	8b ec		 mov	 ebp, esp
  00003	51		 push	 ecx
  00004	89 4d fc	 mov	 DWORD PTR _this$[ebp], ecx
  00007	8b 4d fc	 mov	 ecx, DWORD PTR _this$[ebp]
  0000a	e8 00 00 00 00	 call	 ??0CGraphicBase@@QAE@XZ	; CGraphicBase::CGraphicBase
  0000f	8b 45 fc	 mov	 eax, DWORD PTR _this$[ebp]
  00012	c7 00 00 00 00
	00		 mov	 DWORD PTR [eax], OFFSET ??_7CGraphicCollisionObject@@6B@

; 236  : }

  00018	8b 45 fc	 mov	 eax, DWORD PTR _this$[ebp]
  0001b	c9		 leave
  0001c	c3		 ret	 0
??0CGraphicCollisionObject@@QAE@XZ ENDP			; CGraphicCollisionObject::CGraphicCollisionObject
_TEXT	ENDS
; Function compile flags: /Odspy
;	COMDAT ??_H@YGXPAXIIP6EPAX0@Z@Z
_TEXT	SEGMENT
tv66 = -4						; size = 4
___t$ = 8						; size = 4
___s$ = 12						; size = 4
___n$ = 16						; size = 4
___f$ = 20						; size = 4
??_H@YGXPAXIIP6EPAX0@Z@Z PROC				; `vector constructor iterator', COMDAT
  00000	55		 push	 ebp
  00001	8b ec		 mov	 ebp, esp
  00003	51		 push	 ecx
$LN2@vector:
  00004	8b 45 10	 mov	 eax, DWORD PTR ___n$[ebp]
  00007	89 45 fc	 mov	 DWORD PTR tv66[ebp], eax
  0000a	8b 45 10	 mov	 eax, DWORD PTR ___n$[ebp]
  0000d	48		 dec	 eax
  0000e	89 45 10	 mov	 DWORD PTR ___n$[ebp], eax
  00011	83 7d fc 00	 cmp	 DWORD PTR tv66[ebp], 0
  00015	76 11		 jbe	 SHORT $LN1@vector
  00017	8b 4d 08	 mov	 ecx, DWORD PTR ___t$[ebp]
  0001a	ff 55 14	 call	 DWORD PTR ___f$[ebp]
  0001d	8b 45 08	 mov	 eax, DWORD PTR ___t$[ebp]
  00020	03 45 0c	 add	 eax, DWORD PTR ___s$[ebp]
  00023	89 45 08	 mov	 DWORD PTR ___t$[ebp], eax
  00026	eb dc		 jmp	 SHORT $LN2@vector
$LN1@vector:
  00028	c9		 leave
  00029	c2 10 00	 ret	 16			; 00000010H
??_H@YGXPAXIIP6EPAX0@Z@Z ENDP				; `vector constructor iterator'
_TEXT	ENDS
END
