; Listing generated by Microsoft (R) Optimizing Compiler Version 19.28.29335.0 

	TITLE	D:\Metin2 Server Files\mainline\SRC_2014\Metin2Client\EterLib\GrpDIB.cpp
	.686P
	.XMM
	include listing.inc
	.model	flat

INCLUDELIB LIBCMT
INCLUDELIB OLDNAMES

PUBLIC	??0CGraphicDib@@QAE@XZ				; CGraphicDib::CGraphicDib
PUBLIC	??1CGraphicDib@@UAE@XZ				; CGraphicDib::~CGraphicDib
PUBLIC	?Destroy@CGraphicDib@@QAEXXZ			; CGraphicDib::Destroy
PUBLIC	?Create@CGraphicDib@@QAE_NPAUHDC__@@HH@Z	; CGraphicDib::Create
PUBLIC	?SetBkMode@CGraphicDib@@QAEXH@Z			; CGraphicDib::SetBkMode
PUBLIC	?TextOutA@CGraphicDib@@QAEXHHPBD@Z		; CGraphicDib::TextOutA
PUBLIC	?Put@CGraphicDib@@QAEXPAUHDC__@@HH@Z		; CGraphicDib::Put
PUBLIC	?GetWidth@CGraphicDib@@QAEHXZ			; CGraphicDib::GetWidth
PUBLIC	?GetHeight@CGraphicDib@@QAEHXZ			; CGraphicDib::GetHeight
PUBLIC	?GetPointer@CGraphicDib@@QAEPAXXZ		; CGraphicDib::GetPointer
PUBLIC	?GetDCHandle@CGraphicDib@@QAEPAUHDC__@@XZ	; CGraphicDib::GetDCHandle
PUBLIC	?Initialize@CGraphicDib@@IAEXXZ			; CGraphicDib::Initialize
PUBLIC	??_GCGraphicDib@@UAEPAXI@Z			; CGraphicDib::`scalar deleting destructor'
PUBLIC	??_7CGraphicDib@@6B@				; CGraphicDib::`vftable'
PUBLIC	??_R4CGraphicDib@@6B@				; CGraphicDib::`RTTI Complete Object Locator'
PUBLIC	??_R0?AVCGraphicDib@@@8				; CGraphicDib `RTTI Type Descriptor'
PUBLIC	??_R3CGraphicDib@@8				; CGraphicDib::`RTTI Class Hierarchy Descriptor'
PUBLIC	??_R2CGraphicDib@@8				; CGraphicDib::`RTTI Base Class Array'
PUBLIC	??_R1A@?0A@EA@CGraphicDib@@8			; CGraphicDib::`RTTI Base Class Descriptor at (0,-1,0,64)'
EXTRN	??3@YAXPAXI@Z:PROC				; operator delete
EXTRN	_memset:PROC
EXTRN	_strlen:PROC
EXTRN	__imp__CreateCompatibleDC@4:PROC
EXTRN	__imp__DeleteDC@4:PROC
EXTRN	__imp__DeleteObject@4:PROC
EXTRN	__imp__SelectObject@8:PROC
EXTRN	__imp__SetBkColor@8:PROC
EXTRN	__imp__SetBkMode@8:PROC
EXTRN	__imp__SetDIBitsToDevice@48:PROC
EXTRN	__imp__SetTextColor@8:PROC
EXTRN	__imp__CreateDIBSection@24:PROC
EXTRN	__imp__TextOutA@20:PROC
EXTRN	??_ECGraphicDib@@UAEPAXI@Z:PROC			; CGraphicDib::`vector deleting destructor'
EXTRN	@__security_check_cookie@4:PROC
EXTRN	___CxxFrameHandler3:PROC
EXTRN	??_7type_info@@6B@:QWORD			; type_info::`vftable'
EXTRN	___security_cookie:DWORD
;	COMDAT ??_R1A@?0A@EA@CGraphicDib@@8
rdata$r	SEGMENT
??_R1A@?0A@EA@CGraphicDib@@8 DD FLAT:??_R0?AVCGraphicDib@@@8 ; CGraphicDib::`RTTI Base Class Descriptor at (0,-1,0,64)'
	DD	00H
	DD	00H
	DD	0ffffffffH
	DD	00H
	DD	040H
	DD	FLAT:??_R3CGraphicDib@@8
rdata$r	ENDS
;	COMDAT ??_R2CGraphicDib@@8
rdata$r	SEGMENT
??_R2CGraphicDib@@8 DD FLAT:??_R1A@?0A@EA@CGraphicDib@@8 ; CGraphicDib::`RTTI Base Class Array'
rdata$r	ENDS
;	COMDAT ??_R3CGraphicDib@@8
rdata$r	SEGMENT
??_R3CGraphicDib@@8 DD 00H				; CGraphicDib::`RTTI Class Hierarchy Descriptor'
	DD	00H
	DD	01H
	DD	FLAT:??_R2CGraphicDib@@8
rdata$r	ENDS
;	COMDAT ??_R0?AVCGraphicDib@@@8
data$rs	SEGMENT
??_R0?AVCGraphicDib@@@8 DD FLAT:??_7type_info@@6B@	; CGraphicDib `RTTI Type Descriptor'
	DD	00H
	DB	'.?AVCGraphicDib@@', 00H
data$rs	ENDS
;	COMDAT ??_R4CGraphicDib@@6B@
rdata$r	SEGMENT
??_R4CGraphicDib@@6B@ DD 00H				; CGraphicDib::`RTTI Complete Object Locator'
	DD	00H
	DD	00H
	DD	FLAT:??_R0?AVCGraphicDib@@@8
	DD	FLAT:??_R3CGraphicDib@@8
rdata$r	ENDS
;	COMDAT ??_7CGraphicDib@@6B@
CONST	SEGMENT
??_7CGraphicDib@@6B@ DD FLAT:??_R4CGraphicDib@@6B@	; CGraphicDib::`vftable'
	DD	FLAT:??_ECGraphicDib@@UAEPAXI@Z
CONST	ENDS
;	COMDAT xdata$x
xdata$x	SEGMENT
__ehfuncinfo$??1CGraphicDib@@UAE@XZ DD 019930522H
	DD	00H
	DD	00H
	DD	2 DUP(00H)
	DD	2 DUP(00H)
	DD	00H
	DD	05H
xdata$x	ENDS
; Function compile flags: /Odspy
;	COMDAT ??_GCGraphicDib@@UAEPAXI@Z
_TEXT	SEGMENT
_this$ = -4						; size = 4
___flags$ = 8						; size = 4
??_GCGraphicDib@@UAEPAXI@Z PROC				; CGraphicDib::`scalar deleting destructor', COMDAT
; _this$ = ecx
  00000	55		 push	 ebp
  00001	8b ec		 mov	 ebp, esp
  00003	51		 push	 ecx
  00004	89 4d fc	 mov	 DWORD PTR _this$[ebp], ecx
  00007	8b 4d fc	 mov	 ecx, DWORD PTR _this$[ebp]
  0000a	e8 00 00 00 00	 call	 ??1CGraphicDib@@UAE@XZ	; CGraphicDib::~CGraphicDib
  0000f	8b 45 08	 mov	 eax, DWORD PTR ___flags$[ebp]
  00012	83 e0 01	 and	 eax, 1
  00015	74 0c		 je	 SHORT $LN2@scalar
  00017	6a 44		 push	 68			; 00000044H
  00019	ff 75 fc	 push	 DWORD PTR _this$[ebp]
  0001c	e8 00 00 00 00	 call	 ??3@YAXPAXI@Z		; operator delete
  00021	59		 pop	 ecx
  00022	59		 pop	 ecx
$LN2@scalar:
  00023	8b 45 fc	 mov	 eax, DWORD PTR _this$[ebp]
  00026	c9		 leave
  00027	c2 04 00	 ret	 4
??_GCGraphicDib@@UAEPAXI@Z ENDP				; CGraphicDib::`scalar deleting destructor'
_TEXT	ENDS
; Function compile flags: /Odspy
; File D:\Metin2 Server Files\mainline\SRC_2014\Metin2Client\EterLib\GrpDIB.cpp
;	COMDAT ?Initialize@CGraphicDib@@IAEXXZ
_TEXT	SEGMENT
_this$ = -4						; size = 4
?Initialize@CGraphicDib@@IAEXXZ PROC			; CGraphicDib::Initialize, COMDAT
; _this$ = ecx

; 15   : {

  00000	55		 push	 ebp
  00001	8b ec		 mov	 ebp, esp
  00003	51		 push	 ecx
  00004	89 4d fc	 mov	 DWORD PTR _this$[ebp], ecx

; 16   : 	m_hDC=NULL;

  00007	8b 45 fc	 mov	 eax, DWORD PTR _this$[ebp]
  0000a	83 60 04 00	 and	 DWORD PTR [eax+4], 0

; 17   : 	m_hBmp=NULL;

  0000e	8b 45 fc	 mov	 eax, DWORD PTR _this$[ebp]
  00011	83 60 08 00	 and	 DWORD PTR [eax+8], 0

; 18   : 	m_pvBuf=NULL;

  00015	8b 45 fc	 mov	 eax, DWORD PTR _this$[ebp]
  00018	83 60 40 00	 and	 DWORD PTR [eax+64], 0

; 19   : 	m_width=0;

  0001c	8b 45 fc	 mov	 eax, DWORD PTR _this$[ebp]
  0001f	83 60 38 00	 and	 DWORD PTR [eax+56], 0

; 20   : 	m_height=0;

  00023	8b 45 fc	 mov	 eax, DWORD PTR _this$[ebp]
  00026	83 60 3c 00	 and	 DWORD PTR [eax+60], 0

; 21   : }

  0002a	c9		 leave
  0002b	c3		 ret	 0
?Initialize@CGraphicDib@@IAEXXZ ENDP			; CGraphicDib::Initialize
_TEXT	ENDS
; Function compile flags: /Odspy
; File D:\Metin2 Server Files\mainline\SRC_2014\Metin2Client\EterLib\GrpDIB.cpp
;	COMDAT ?GetDCHandle@CGraphicDib@@QAEPAUHDC__@@XZ
_TEXT	SEGMENT
_this$ = -4						; size = 4
?GetDCHandle@CGraphicDib@@QAEPAUHDC__@@XZ PROC		; CGraphicDib::GetDCHandle, COMDAT
; _this$ = ecx

; 68   : {

  00000	55		 push	 ebp
  00001	8b ec		 mov	 ebp, esp
  00003	51		 push	 ecx
  00004	89 4d fc	 mov	 DWORD PTR _this$[ebp], ecx

; 69   : 	return m_hDC;

  00007	8b 45 fc	 mov	 eax, DWORD PTR _this$[ebp]
  0000a	8b 40 04	 mov	 eax, DWORD PTR [eax+4]

; 70   : }

  0000d	c9		 leave
  0000e	c3		 ret	 0
?GetDCHandle@CGraphicDib@@QAEPAUHDC__@@XZ ENDP		; CGraphicDib::GetDCHandle
_TEXT	ENDS
; Function compile flags: /Odspy
; File D:\Metin2 Server Files\mainline\SRC_2014\Metin2Client\EterLib\GrpDIB.cpp
;	COMDAT ?GetPointer@CGraphicDib@@QAEPAXXZ
_TEXT	SEGMENT
_this$ = -4						; size = 4
?GetPointer@CGraphicDib@@QAEPAXXZ PROC			; CGraphicDib::GetPointer, COMDAT
; _this$ = ecx

; 102  : {

  00000	55		 push	 ebp
  00001	8b ec		 mov	 ebp, esp
  00003	51		 push	 ecx
  00004	89 4d fc	 mov	 DWORD PTR _this$[ebp], ecx

; 103  : 	return m_pvBuf;

  00007	8b 45 fc	 mov	 eax, DWORD PTR _this$[ebp]
  0000a	8b 40 40	 mov	 eax, DWORD PTR [eax+64]

; 104  : }

  0000d	c9		 leave
  0000e	c3		 ret	 0
?GetPointer@CGraphicDib@@QAEPAXXZ ENDP			; CGraphicDib::GetPointer
_TEXT	ENDS
; Function compile flags: /Odspy
; File D:\Metin2 Server Files\mainline\SRC_2014\Metin2Client\EterLib\GrpDIB.cpp
;	COMDAT ?GetHeight@CGraphicDib@@QAEHXZ
_TEXT	SEGMENT
_this$ = -4						; size = 4
?GetHeight@CGraphicDib@@QAEHXZ PROC			; CGraphicDib::GetHeight, COMDAT
; _this$ = ecx

; 112  : {

  00000	55		 push	 ebp
  00001	8b ec		 mov	 ebp, esp
  00003	51		 push	 ecx
  00004	89 4d fc	 mov	 DWORD PTR _this$[ebp], ecx

; 113  : 	return m_height;

  00007	8b 45 fc	 mov	 eax, DWORD PTR _this$[ebp]
  0000a	8b 40 3c	 mov	 eax, DWORD PTR [eax+60]

; 114  : }

  0000d	c9		 leave
  0000e	c3		 ret	 0
?GetHeight@CGraphicDib@@QAEHXZ ENDP			; CGraphicDib::GetHeight
_TEXT	ENDS
; Function compile flags: /Odspy
; File D:\Metin2 Server Files\mainline\SRC_2014\Metin2Client\EterLib\GrpDIB.cpp
;	COMDAT ?GetWidth@CGraphicDib@@QAEHXZ
_TEXT	SEGMENT
_this$ = -4						; size = 4
?GetWidth@CGraphicDib@@QAEHXZ PROC			; CGraphicDib::GetWidth, COMDAT
; _this$ = ecx

; 107  : {

  00000	55		 push	 ebp
  00001	8b ec		 mov	 ebp, esp
  00003	51		 push	 ecx
  00004	89 4d fc	 mov	 DWORD PTR _this$[ebp], ecx

; 108  : 	return m_width;

  00007	8b 45 fc	 mov	 eax, DWORD PTR _this$[ebp]
  0000a	8b 40 38	 mov	 eax, DWORD PTR [eax+56]

; 109  : }

  0000d	c9		 leave
  0000e	c3		 ret	 0
?GetWidth@CGraphicDib@@QAEHXZ ENDP			; CGraphicDib::GetWidth
_TEXT	ENDS
; Function compile flags: /Odspy
; File D:\Metin2 Server Files\mainline\SRC_2014\Metin2Client\EterLib\GrpDIB.cpp
;	COMDAT ?Put@CGraphicDib@@QAEXPAUHDC__@@HH@Z
_TEXT	SEGMENT
_this$ = -4						; size = 4
_hDC$ = 8						; size = 4
_x$ = 12						; size = 4
_y$ = 16						; size = 4
?Put@CGraphicDib@@QAEXPAUHDC__@@HH@Z PROC		; CGraphicDib::Put, COMDAT
; _this$ = ecx

; 84   : {

  00000	55		 push	 ebp
  00001	8b ec		 mov	 ebp, esp
  00003	51		 push	 ecx
  00004	89 4d fc	 mov	 DWORD PTR _this$[ebp], ecx

; 85   : 	SetDIBitsToDevice(

  00007	6a 00		 push	 0
  00009	8b 45 fc	 mov	 eax, DWORD PTR _this$[ebp]
  0000c	83 c0 0c	 add	 eax, 12			; 0000000cH
  0000f	50		 push	 eax
  00010	8b 45 fc	 mov	 eax, DWORD PTR _this$[ebp]
  00013	ff 70 40	 push	 DWORD PTR [eax+64]
  00016	8b 45 fc	 mov	 eax, DWORD PTR _this$[ebp]
  00019	ff 70 3c	 push	 DWORD PTR [eax+60]
  0001c	6a 00		 push	 0
  0001e	6a 00		 push	 0
  00020	6a 00		 push	 0
  00022	8b 45 fc	 mov	 eax, DWORD PTR _this$[ebp]
  00025	ff 70 3c	 push	 DWORD PTR [eax+60]
  00028	8b 45 fc	 mov	 eax, DWORD PTR _this$[ebp]
  0002b	ff 70 38	 push	 DWORD PTR [eax+56]
  0002e	ff 75 10	 push	 DWORD PTR _y$[ebp]
  00031	ff 75 0c	 push	 DWORD PTR _x$[ebp]
  00034	ff 75 08	 push	 DWORD PTR _hDC$[ebp]
  00037	ff 15 00 00 00
	00		 call	 DWORD PTR __imp__SetDIBitsToDevice@48

; 86   : 	  hDC,     
; 87   : 	  x,       
; 88   : 	  y,       
; 89   : 	  m_width, 
; 90   : 	  m_height,
; 91   : 	  0,
; 92   : 	  0,
; 93   : 	  0,
; 94   : 	  m_height,
; 95   : 	  m_pvBuf,
; 96   : 	  &m_bmi,
; 97   : 	  DIB_RGB_COLORS
; 98   : 	);
; 99   : }

  0003d	c9		 leave
  0003e	c2 0c 00	 ret	 12			; 0000000cH
?Put@CGraphicDib@@QAEXPAUHDC__@@HH@Z ENDP		; CGraphicDib::Put
_TEXT	ENDS
; Function compile flags: /Odspy
; File D:\Metin2 Server Files\mainline\SRC_2014\Metin2Client\EterLib\GrpDIB.cpp
;	COMDAT ?TextOutA@CGraphicDib@@QAEXHHPBD@Z
_TEXT	SEGMENT
_this$ = -4						; size = 4
_ix$ = 8						; size = 4
_iy$ = 12						; size = 4
_c_szText$ = 16						; size = 4
?TextOutA@CGraphicDib@@QAEXHHPBD@Z PROC			; CGraphicDib::TextOutA, COMDAT
; _this$ = ecx

; 78   : {

  00000	55		 push	 ebp
  00001	8b ec		 mov	 ebp, esp
  00003	51		 push	 ecx
  00004	89 4d fc	 mov	 DWORD PTR _this$[ebp], ecx

; 79   : 	::SetBkColor(m_hDC, 0);	

  00007	6a 00		 push	 0
  00009	8b 45 fc	 mov	 eax, DWORD PTR _this$[ebp]
  0000c	ff 70 04	 push	 DWORD PTR [eax+4]
  0000f	ff 15 00 00 00
	00		 call	 DWORD PTR __imp__SetBkColor@8

; 80   : 	::TextOut(m_hDC, ix, iy, c_szText, strlen(c_szText));

  00015	ff 75 10	 push	 DWORD PTR _c_szText$[ebp]
  00018	e8 00 00 00 00	 call	 _strlen
  0001d	59		 pop	 ecx
  0001e	50		 push	 eax
  0001f	ff 75 10	 push	 DWORD PTR _c_szText$[ebp]
  00022	ff 75 0c	 push	 DWORD PTR _iy$[ebp]
  00025	ff 75 08	 push	 DWORD PTR _ix$[ebp]
  00028	8b 45 fc	 mov	 eax, DWORD PTR _this$[ebp]
  0002b	ff 70 04	 push	 DWORD PTR [eax+4]
  0002e	ff 15 00 00 00
	00		 call	 DWORD PTR __imp__TextOutA@20

; 81   : }

  00034	c9		 leave
  00035	c2 0c 00	 ret	 12			; 0000000cH
?TextOutA@CGraphicDib@@QAEXHHPBD@Z ENDP			; CGraphicDib::TextOutA
_TEXT	ENDS
; Function compile flags: /Odspy
; File D:\Metin2 Server Files\mainline\SRC_2014\Metin2Client\EterLib\GrpDIB.cpp
;	COMDAT ?SetBkMode@CGraphicDib@@QAEXH@Z
_TEXT	SEGMENT
_this$ = -4						; size = 4
_iBkMode$ = 8						; size = 4
?SetBkMode@CGraphicDib@@QAEXH@Z PROC			; CGraphicDib::SetBkMode, COMDAT
; _this$ = ecx

; 73   : {

  00000	55		 push	 ebp
  00001	8b ec		 mov	 ebp, esp
  00003	51		 push	 ecx
  00004	89 4d fc	 mov	 DWORD PTR _this$[ebp], ecx

; 74   : 	::SetBkMode(m_hDC, iBkMode);

  00007	ff 75 08	 push	 DWORD PTR _iBkMode$[ebp]
  0000a	8b 45 fc	 mov	 eax, DWORD PTR _this$[ebp]
  0000d	ff 70 04	 push	 DWORD PTR [eax+4]
  00010	ff 15 00 00 00
	00		 call	 DWORD PTR __imp__SetBkMode@8

; 75   : }

  00016	c9		 leave
  00017	c2 04 00	 ret	 4
?SetBkMode@CGraphicDib@@QAEXH@Z ENDP			; CGraphicDib::SetBkMode
_TEXT	ENDS
; Function compile flags: /Odspy
; File D:\Metin2 Server Files\mainline\SRC_2014\Metin2Client\EterLib\GrpDIB.cpp
;	COMDAT ?Create@CGraphicDib@@QAE_NPAUHDC__@@HH@Z
_TEXT	SEGMENT
_this$ = -4						; size = 4
_hDC$ = 8						; size = 4
_width$ = 12						; size = 4
_height$ = 16						; size = 4
?Create@CGraphicDib@@QAE_NPAUHDC__@@HH@Z PROC		; CGraphicDib::Create, COMDAT
; _this$ = ecx

; 32   : {

  00000	55		 push	 ebp
  00001	8b ec		 mov	 ebp, esp
  00003	51		 push	 ecx
  00004	89 4d fc	 mov	 DWORD PTR _this$[ebp], ecx

; 33   : 	Destroy();

  00007	8b 4d fc	 mov	 ecx, DWORD PTR _this$[ebp]
  0000a	e8 00 00 00 00	 call	 ?Destroy@CGraphicDib@@QAEXXZ ; CGraphicDib::Destroy

; 34   : 
; 35   : 	m_width = width;

  0000f	8b 45 fc	 mov	 eax, DWORD PTR _this$[ebp]
  00012	8b 4d 0c	 mov	 ecx, DWORD PTR _width$[ebp]
  00015	89 48 38	 mov	 DWORD PTR [eax+56], ecx

; 36   : 	m_height = height;

  00018	8b 45 fc	 mov	 eax, DWORD PTR _this$[ebp]
  0001b	8b 4d 10	 mov	 ecx, DWORD PTR _height$[ebp]
  0001e	89 48 3c	 mov	 DWORD PTR [eax+60], ecx

; 37   : 
; 38   : 	ZeroMemory(&m_bmi.bmiHeader,  sizeof(BITMAPINFOHEADER));

  00021	6a 28		 push	 40			; 00000028H
  00023	6a 00		 push	 0
  00025	8b 45 fc	 mov	 eax, DWORD PTR _this$[ebp]
  00028	83 c0 0c	 add	 eax, 12			; 0000000cH
  0002b	50		 push	 eax
  0002c	e8 00 00 00 00	 call	 _memset
  00031	83 c4 0c	 add	 esp, 12			; 0000000cH

; 39   : 	m_bmi.bmiHeader.biSize        = sizeof(BITMAPINFOHEADER);

  00034	8b 45 fc	 mov	 eax, DWORD PTR _this$[ebp]
  00037	c7 40 0c 28 00
	00 00		 mov	 DWORD PTR [eax+12], 40	; 00000028H

; 40   : 	m_bmi.bmiHeader.biWidth       =  m_width;

  0003e	8b 45 fc	 mov	 eax, DWORD PTR _this$[ebp]
  00041	8b 4d fc	 mov	 ecx, DWORD PTR _this$[ebp]
  00044	8b 49 38	 mov	 ecx, DWORD PTR [ecx+56]
  00047	89 48 10	 mov	 DWORD PTR [eax+16], ecx

; 41   : 	m_bmi.bmiHeader.biHeight      = -m_height;

  0004a	8b 45 fc	 mov	 eax, DWORD PTR _this$[ebp]
  0004d	8b 40 3c	 mov	 eax, DWORD PTR [eax+60]
  00050	f7 d8		 neg	 eax
  00052	8b 4d fc	 mov	 ecx, DWORD PTR _this$[ebp]
  00055	89 41 14	 mov	 DWORD PTR [ecx+20], eax

; 42   : 	m_bmi.bmiHeader.biPlanes      = 1;			

  00058	33 c0		 xor	 eax, eax
  0005a	40		 inc	 eax
  0005b	8b 4d fc	 mov	 ecx, DWORD PTR _this$[ebp]
  0005e	66 89 41 18	 mov	 WORD PTR [ecx+24], ax

; 43   : 	m_bmi.bmiHeader.biBitCount    = 32;

  00062	6a 20		 push	 32			; 00000020H
  00064	58		 pop	 eax
  00065	8b 4d fc	 mov	 ecx, DWORD PTR _this$[ebp]
  00068	66 89 41 1a	 mov	 WORD PTR [ecx+26], ax

; 44   : 	m_bmi.bmiHeader.biCompression = BI_RGB;

  0006c	8b 45 fc	 mov	 eax, DWORD PTR _this$[ebp]
  0006f	83 60 1c 00	 and	 DWORD PTR [eax+28], 0

; 45   : 
; 46   : 	m_hDC=CreateCompatibleDC(hDC);

  00073	ff 75 08	 push	 DWORD PTR _hDC$[ebp]
  00076	ff 15 00 00 00
	00		 call	 DWORD PTR __imp__CreateCompatibleDC@4
  0007c	8b 4d fc	 mov	 ecx, DWORD PTR _this$[ebp]
  0007f	89 41 04	 mov	 DWORD PTR [ecx+4], eax

; 47   : 	if (!m_hDC)

  00082	8b 45 fc	 mov	 eax, DWORD PTR _this$[ebp]
  00085	83 78 04 00	 cmp	 DWORD PTR [eax+4], 0
  00089	75 04		 jne	 SHORT $LN2@Create

; 48   : 	{
; 49   : 		assert(!"CGraphicDib::Create CreateCompatibleDC Error");
; 50   : 		return false;

  0008b	32 c0		 xor	 al, al
  0008d	eb 58		 jmp	 SHORT $LN1@Create
$LN2@Create:

; 51   : 	}
; 52   : 
; 53   : 	m_hBmp=CreateDIBSection(m_hDC, &m_bmi, DIB_RGB_COLORS, &m_pvBuf, NULL, 0);

  0008f	6a 00		 push	 0
  00091	6a 00		 push	 0
  00093	8b 45 fc	 mov	 eax, DWORD PTR _this$[ebp]
  00096	83 c0 40	 add	 eax, 64			; 00000040H
  00099	50		 push	 eax
  0009a	6a 00		 push	 0
  0009c	8b 45 fc	 mov	 eax, DWORD PTR _this$[ebp]
  0009f	83 c0 0c	 add	 eax, 12			; 0000000cH
  000a2	50		 push	 eax
  000a3	8b 45 fc	 mov	 eax, DWORD PTR _this$[ebp]
  000a6	ff 70 04	 push	 DWORD PTR [eax+4]
  000a9	ff 15 00 00 00
	00		 call	 DWORD PTR __imp__CreateDIBSection@24
  000af	8b 4d fc	 mov	 ecx, DWORD PTR _this$[ebp]
  000b2	89 41 08	 mov	 DWORD PTR [ecx+8], eax

; 54   : 	if (!m_hBmp)

  000b5	8b 45 fc	 mov	 eax, DWORD PTR _this$[ebp]
  000b8	83 78 08 00	 cmp	 DWORD PTR [eax+8], 0
  000bc	75 04		 jne	 SHORT $LN3@Create

; 55   : 	{
; 56   : 		assert(!"CGraphicDib::Create CreateDIBSection Error");
; 57   : 		return false;

  000be	32 c0		 xor	 al, al
  000c0	eb 25		 jmp	 SHORT $LN1@Create
$LN3@Create:

; 58   : 	}
; 59   : 
; 60   : 	SelectObject(m_hDC, m_hBmp);

  000c2	8b 45 fc	 mov	 eax, DWORD PTR _this$[ebp]
  000c5	ff 70 08	 push	 DWORD PTR [eax+8]
  000c8	8b 45 fc	 mov	 eax, DWORD PTR _this$[ebp]
  000cb	ff 70 04	 push	 DWORD PTR [eax+4]
  000ce	ff 15 00 00 00
	00		 call	 DWORD PTR __imp__SelectObject@8

; 61   : 
; 62   : 	::SetTextColor(m_hDC, RGB(255, 255, 255));

  000d4	68 ff ff ff 00	 push	 16777215		; 00ffffffH
  000d9	8b 45 fc	 mov	 eax, DWORD PTR _this$[ebp]
  000dc	ff 70 04	 push	 DWORD PTR [eax+4]
  000df	ff 15 00 00 00
	00		 call	 DWORD PTR __imp__SetTextColor@8

; 63   : 
; 64   : 	return true;

  000e5	b0 01		 mov	 al, 1
$LN1@Create:

; 65   : }

  000e7	c9		 leave
  000e8	c2 0c 00	 ret	 12			; 0000000cH
?Create@CGraphicDib@@QAE_NPAUHDC__@@HH@Z ENDP		; CGraphicDib::Create
_TEXT	ENDS
; Function compile flags: /Odspy
; File D:\Metin2 Server Files\mainline\SRC_2014\Metin2Client\EterLib\GrpDIB.cpp
;	COMDAT ?Destroy@CGraphicDib@@QAEXXZ
_TEXT	SEGMENT
_this$ = -4						; size = 4
?Destroy@CGraphicDib@@QAEXXZ PROC			; CGraphicDib::Destroy, COMDAT
; _this$ = ecx

; 24   : {			

  00000	55		 push	 ebp
  00001	8b ec		 mov	 ebp, esp
  00003	51		 push	 ecx
  00004	89 4d fc	 mov	 DWORD PTR _this$[ebp], ecx

; 25   : 	if (m_hBmp) DeleteObject(m_hBmp);			

  00007	8b 45 fc	 mov	 eax, DWORD PTR _this$[ebp]
  0000a	83 78 08 00	 cmp	 DWORD PTR [eax+8], 0
  0000e	74 0c		 je	 SHORT $LN2@Destroy
  00010	8b 45 fc	 mov	 eax, DWORD PTR _this$[ebp]
  00013	ff 70 08	 push	 DWORD PTR [eax+8]
  00016	ff 15 00 00 00
	00		 call	 DWORD PTR __imp__DeleteObject@4
$LN2@Destroy:

; 26   : 	if (m_hDC)	DeleteDC(m_hDC);

  0001c	8b 45 fc	 mov	 eax, DWORD PTR _this$[ebp]
  0001f	83 78 04 00	 cmp	 DWORD PTR [eax+4], 0
  00023	74 0c		 je	 SHORT $LN3@Destroy
  00025	8b 45 fc	 mov	 eax, DWORD PTR _this$[ebp]
  00028	ff 70 04	 push	 DWORD PTR [eax+4]
  0002b	ff 15 00 00 00
	00		 call	 DWORD PTR __imp__DeleteDC@4
$LN3@Destroy:

; 27   : 	
; 28   : 	Initialize();			

  00031	8b 4d fc	 mov	 ecx, DWORD PTR _this$[ebp]
  00034	e8 00 00 00 00	 call	 ?Initialize@CGraphicDib@@IAEXXZ ; CGraphicDib::Initialize

; 29   : }

  00039	c9		 leave
  0003a	c3		 ret	 0
?Destroy@CGraphicDib@@QAEXXZ ENDP			; CGraphicDib::Destroy
_TEXT	ENDS
; Function compile flags: /Odspy
; File D:\Metin2 Server Files\mainline\SRC_2014\Metin2Client\EterLib\GrpDIB.cpp
;	COMDAT ??1CGraphicDib@@UAE@XZ
_TEXT	SEGMENT
_this$ = -16						; size = 4
__$EHRec$ = -12						; size = 12
??1CGraphicDib@@UAE@XZ PROC				; CGraphicDib::~CGraphicDib, COMDAT
; _this$ = ecx

; 10   : {

  00000	55		 push	 ebp
  00001	8b ec		 mov	 ebp, esp
  00003	6a ff		 push	 -1
  00005	68 00 00 00 00	 push	 __ehhandler$??1CGraphicDib@@UAE@XZ
  0000a	64 a1 00 00 00
	00		 mov	 eax, DWORD PTR fs:0
  00010	50		 push	 eax
  00011	51		 push	 ecx
  00012	a1 00 00 00 00	 mov	 eax, DWORD PTR ___security_cookie
  00017	33 c5		 xor	 eax, ebp
  00019	50		 push	 eax
  0001a	8d 45 f4	 lea	 eax, DWORD PTR __$EHRec$[ebp]
  0001d	64 a3 00 00 00
	00		 mov	 DWORD PTR fs:0, eax
  00023	89 4d f0	 mov	 DWORD PTR _this$[ebp], ecx
  00026	8b 45 f0	 mov	 eax, DWORD PTR _this$[ebp]
  00029	c7 00 00 00 00
	00		 mov	 DWORD PTR [eax], OFFSET ??_7CGraphicDib@@6B@

; 11   : 	Destroy();

  0002f	8b 4d f0	 mov	 ecx, DWORD PTR _this$[ebp]
  00032	e8 00 00 00 00	 call	 ?Destroy@CGraphicDib@@QAEXXZ ; CGraphicDib::Destroy

; 12   : }

  00037	8b 4d f4	 mov	 ecx, DWORD PTR __$EHRec$[ebp]
  0003a	64 89 0d 00 00
	00 00		 mov	 DWORD PTR fs:0, ecx
  00041	59		 pop	 ecx
  00042	c9		 leave
  00043	c3		 ret	 0
  00044	cc		 int	 3
  00045	cc		 int	 3
  00046	cc		 int	 3
  00047	cc		 int	 3
  00048	cc		 int	 3
_TEXT	ENDS
;	COMDAT text$x
text$x	SEGMENT
__ehhandler$??1CGraphicDib@@UAE@XZ:
  00000	90		 npad	 1
  00001	90		 npad	 1
  00002	8b 54 24 08	 mov	 edx, DWORD PTR [esp+8]
  00006	8d 42 0c	 lea	 eax, DWORD PTR [edx+12]
  00009	8b 4a f8	 mov	 ecx, DWORD PTR [edx-8]
  0000c	33 c8		 xor	 ecx, eax
  0000e	e8 00 00 00 00	 call	 @__security_check_cookie@4
  00013	b8 00 00 00 00	 mov	 eax, OFFSET __ehfuncinfo$??1CGraphicDib@@UAE@XZ
  00018	e9 00 00 00 00	 jmp	 ___CxxFrameHandler3
text$x	ENDS
??1CGraphicDib@@UAE@XZ ENDP				; CGraphicDib::~CGraphicDib
; Function compile flags: /Odspy
; File D:\Metin2 Server Files\mainline\SRC_2014\Metin2Client\EterLib\GrpDIB.cpp
;	COMDAT ??0CGraphicDib@@QAE@XZ
_TEXT	SEGMENT
_this$ = -4						; size = 4
??0CGraphicDib@@QAE@XZ PROC				; CGraphicDib::CGraphicDib, COMDAT
; _this$ = ecx

; 5    : {

  00000	55		 push	 ebp
  00001	8b ec		 mov	 ebp, esp
  00003	51		 push	 ecx
  00004	89 4d fc	 mov	 DWORD PTR _this$[ebp], ecx
  00007	8b 45 fc	 mov	 eax, DWORD PTR _this$[ebp]
  0000a	c7 00 00 00 00
	00		 mov	 DWORD PTR [eax], OFFSET ??_7CGraphicDib@@6B@

; 6    : 	Initialize();

  00010	8b 4d fc	 mov	 ecx, DWORD PTR _this$[ebp]
  00013	e8 00 00 00 00	 call	 ?Initialize@CGraphicDib@@IAEXXZ ; CGraphicDib::Initialize

; 7    : }

  00018	8b 45 fc	 mov	 eax, DWORD PTR _this$[ebp]
  0001b	c9		 leave
  0001c	c3		 ret	 0
??0CGraphicDib@@QAE@XZ ENDP				; CGraphicDib::CGraphicDib
_TEXT	ENDS
END
