; Listing generated by Microsoft (R) Optimizing Compiler Version 19.28.29335.0 

	TITLE	D:\Metin2 Server Files\mainline\SRC_2014\Metin2Client\EterLib\GrpD3DXBuffer.cpp
	.686P
	.XMM
	include listing.inc
	.model	flat

INCLUDELIB LIBCMT
INCLUDELIB OLDNAMES

PUBLIC	??0CDirect3DXBuffer@@QAE@XZ			; CDirect3DXBuffer::CDirect3DXBuffer
PUBLIC	??0CDirect3DXBuffer@@QAE@PAUID3DXBuffer@@@Z	; CDirect3DXBuffer::CDirect3DXBuffer
PUBLIC	??1CDirect3DXBuffer@@UAE@XZ			; CDirect3DXBuffer::~CDirect3DXBuffer
PUBLIC	?Destroy@CDirect3DXBuffer@@QAEXXZ		; CDirect3DXBuffer::Destroy
PUBLIC	?Create@CDirect3DXBuffer@@QAEXPAUID3DXBuffer@@@Z ; CDirect3DXBuffer::Create
PUBLIC	?GetPointer@CDirect3DXBuffer@@QAEPAXXZ		; CDirect3DXBuffer::GetPointer
PUBLIC	?GetSize@CDirect3DXBuffer@@QAEHXZ		; CDirect3DXBuffer::GetSize
PUBLIC	??_GCDirect3DXBuffer@@UAEPAXI@Z			; CDirect3DXBuffer::`scalar deleting destructor'
PUBLIC	??_7CDirect3DXBuffer@@6B@			; CDirect3DXBuffer::`vftable'
PUBLIC	??_R4CDirect3DXBuffer@@6B@			; CDirect3DXBuffer::`RTTI Complete Object Locator'
PUBLIC	??_R0?AVCDirect3DXBuffer@@@8			; CDirect3DXBuffer `RTTI Type Descriptor'
PUBLIC	??_R3CDirect3DXBuffer@@8			; CDirect3DXBuffer::`RTTI Class Hierarchy Descriptor'
PUBLIC	??_R2CDirect3DXBuffer@@8			; CDirect3DXBuffer::`RTTI Base Class Array'
PUBLIC	??_R1A@?0A@EA@CDirect3DXBuffer@@8		; CDirect3DXBuffer::`RTTI Base Class Descriptor at (0,-1,0,64)'
EXTRN	??3@YAXPAXI@Z:PROC				; operator delete
EXTRN	??_ECDirect3DXBuffer@@UAEPAXI@Z:PROC		; CDirect3DXBuffer::`vector deleting destructor'
EXTRN	@__security_check_cookie@4:PROC
EXTRN	___CxxFrameHandler3:PROC
EXTRN	??_7type_info@@6B@:QWORD			; type_info::`vftable'
EXTRN	___security_cookie:DWORD
;	COMDAT ??_R1A@?0A@EA@CDirect3DXBuffer@@8
rdata$r	SEGMENT
??_R1A@?0A@EA@CDirect3DXBuffer@@8 DD FLAT:??_R0?AVCDirect3DXBuffer@@@8 ; CDirect3DXBuffer::`RTTI Base Class Descriptor at (0,-1,0,64)'
	DD	00H
	DD	00H
	DD	0ffffffffH
	DD	00H
	DD	040H
	DD	FLAT:??_R3CDirect3DXBuffer@@8
rdata$r	ENDS
;	COMDAT ??_R2CDirect3DXBuffer@@8
rdata$r	SEGMENT
??_R2CDirect3DXBuffer@@8 DD FLAT:??_R1A@?0A@EA@CDirect3DXBuffer@@8 ; CDirect3DXBuffer::`RTTI Base Class Array'
rdata$r	ENDS
;	COMDAT ??_R3CDirect3DXBuffer@@8
rdata$r	SEGMENT
??_R3CDirect3DXBuffer@@8 DD 00H				; CDirect3DXBuffer::`RTTI Class Hierarchy Descriptor'
	DD	00H
	DD	01H
	DD	FLAT:??_R2CDirect3DXBuffer@@8
rdata$r	ENDS
;	COMDAT ??_R0?AVCDirect3DXBuffer@@@8
data$rs	SEGMENT
??_R0?AVCDirect3DXBuffer@@@8 DD FLAT:??_7type_info@@6B@	; CDirect3DXBuffer `RTTI Type Descriptor'
	DD	00H
	DB	'.?AVCDirect3DXBuffer@@', 00H
data$rs	ENDS
;	COMDAT ??_R4CDirect3DXBuffer@@6B@
rdata$r	SEGMENT
??_R4CDirect3DXBuffer@@6B@ DD 00H			; CDirect3DXBuffer::`RTTI Complete Object Locator'
	DD	00H
	DD	00H
	DD	FLAT:??_R0?AVCDirect3DXBuffer@@@8
	DD	FLAT:??_R3CDirect3DXBuffer@@8
rdata$r	ENDS
;	COMDAT ??_7CDirect3DXBuffer@@6B@
CONST	SEGMENT
??_7CDirect3DXBuffer@@6B@ DD FLAT:??_R4CDirect3DXBuffer@@6B@ ; CDirect3DXBuffer::`vftable'
	DD	FLAT:??_ECDirect3DXBuffer@@UAEPAXI@Z
CONST	ENDS
;	COMDAT xdata$x
xdata$x	SEGMENT
__ehfuncinfo$??1CDirect3DXBuffer@@UAE@XZ DD 019930522H
	DD	00H
	DD	00H
	DD	2 DUP(00H)
	DD	2 DUP(00H)
	DD	00H
	DD	05H
xdata$x	ENDS
; Function compile flags: /Odspy
;	COMDAT ??_GCDirect3DXBuffer@@UAEPAXI@Z
_TEXT	SEGMENT
_this$ = -4						; size = 4
___flags$ = 8						; size = 4
??_GCDirect3DXBuffer@@UAEPAXI@Z PROC			; CDirect3DXBuffer::`scalar deleting destructor', COMDAT
; _this$ = ecx
  00000	55		 push	 ebp
  00001	8b ec		 mov	 ebp, esp
  00003	51		 push	 ecx
  00004	89 4d fc	 mov	 DWORD PTR _this$[ebp], ecx
  00007	8b 4d fc	 mov	 ecx, DWORD PTR _this$[ebp]
  0000a	e8 00 00 00 00	 call	 ??1CDirect3DXBuffer@@UAE@XZ ; CDirect3DXBuffer::~CDirect3DXBuffer
  0000f	8b 45 08	 mov	 eax, DWORD PTR ___flags$[ebp]
  00012	83 e0 01	 and	 eax, 1
  00015	74 0c		 je	 SHORT $LN2@scalar
  00017	6a 08		 push	 8
  00019	ff 75 fc	 push	 DWORD PTR _this$[ebp]
  0001c	e8 00 00 00 00	 call	 ??3@YAXPAXI@Z		; operator delete
  00021	59		 pop	 ecx
  00022	59		 pop	 ecx
$LN2@scalar:
  00023	8b 45 fc	 mov	 eax, DWORD PTR _this$[ebp]
  00026	c9		 leave
  00027	c2 04 00	 ret	 4
??_GCDirect3DXBuffer@@UAEPAXI@Z ENDP			; CDirect3DXBuffer::`scalar deleting destructor'
_TEXT	ENDS
; Function compile flags: /Odspy
; File D:\Metin2 Server Files\mainline\SRC_2014\Metin2Client\EterLib\GrpD3DXBuffer.cpp
;	COMDAT ?GetSize@CDirect3DXBuffer@@QAEHXZ
_TEXT	SEGMENT
_this$ = -4						; size = 4
?GetSize@CDirect3DXBuffer@@QAEHXZ PROC			; CDirect3DXBuffer::GetSize, COMDAT
; _this$ = ecx

; 38   : {

  00000	55		 push	 ebp
  00001	8b ec		 mov	 ebp, esp
  00003	51		 push	 ecx
  00004	89 4d fc	 mov	 DWORD PTR _this$[ebp], ecx

; 39   : 	assert(m_lpd3dxBuffer!=NULL);
; 40   : 	return m_lpd3dxBuffer->GetBufferSize();

  00007	8b 45 fc	 mov	 eax, DWORD PTR _this$[ebp]
  0000a	8b 40 04	 mov	 eax, DWORD PTR [eax+4]
  0000d	8b 4d fc	 mov	 ecx, DWORD PTR _this$[ebp]
  00010	8b 00		 mov	 eax, DWORD PTR [eax]
  00012	ff 71 04	 push	 DWORD PTR [ecx+4]
  00015	ff 50 10	 call	 DWORD PTR [eax+16]

; 41   : }

  00018	c9		 leave
  00019	c3		 ret	 0
?GetSize@CDirect3DXBuffer@@QAEHXZ ENDP			; CDirect3DXBuffer::GetSize
_TEXT	ENDS
; Function compile flags: /Odspy
; File D:\Metin2 Server Files\mainline\SRC_2014\Metin2Client\EterLib\GrpD3DXBuffer.cpp
;	COMDAT ?GetPointer@CDirect3DXBuffer@@QAEPAXXZ
_TEXT	SEGMENT
_this$ = -4						; size = 4
?GetPointer@CDirect3DXBuffer@@QAEPAXXZ PROC		; CDirect3DXBuffer::GetPointer, COMDAT
; _this$ = ecx

; 32   : {

  00000	55		 push	 ebp
  00001	8b ec		 mov	 ebp, esp
  00003	51		 push	 ecx
  00004	89 4d fc	 mov	 DWORD PTR _this$[ebp], ecx

; 33   : 	assert(m_lpd3dxBuffer!=NULL);
; 34   : 	return m_lpd3dxBuffer->GetBufferPointer();

  00007	8b 45 fc	 mov	 eax, DWORD PTR _this$[ebp]
  0000a	8b 40 04	 mov	 eax, DWORD PTR [eax+4]
  0000d	8b 4d fc	 mov	 ecx, DWORD PTR _this$[ebp]
  00010	8b 00		 mov	 eax, DWORD PTR [eax]
  00012	ff 71 04	 push	 DWORD PTR [ecx+4]
  00015	ff 50 0c	 call	 DWORD PTR [eax+12]

; 35   : }

  00018	c9		 leave
  00019	c3		 ret	 0
?GetPointer@CDirect3DXBuffer@@QAEPAXXZ ENDP		; CDirect3DXBuffer::GetPointer
_TEXT	ENDS
; Function compile flags: /Odspy
; File D:\Metin2 Server Files\mainline\SRC_2014\Metin2Client\EterLib\GrpD3DXBuffer.cpp
;	COMDAT ?Create@CDirect3DXBuffer@@QAEXPAUID3DXBuffer@@@Z
_TEXT	SEGMENT
_this$ = -4						; size = 4
_lpd3dxBuffer$ = 8					; size = 4
?Create@CDirect3DXBuffer@@QAEXPAUID3DXBuffer@@@Z PROC	; CDirect3DXBuffer::Create, COMDAT
; _this$ = ecx

; 26   : {

  00000	55		 push	 ebp
  00001	8b ec		 mov	 ebp, esp
  00003	51		 push	 ecx
  00004	89 4d fc	 mov	 DWORD PTR _this$[ebp], ecx

; 27   : 	Destroy();

  00007	8b 4d fc	 mov	 ecx, DWORD PTR _this$[ebp]
  0000a	e8 00 00 00 00	 call	 ?Destroy@CDirect3DXBuffer@@QAEXXZ ; CDirect3DXBuffer::Destroy

; 28   : 	m_lpd3dxBuffer=lpd3dxBuffer;

  0000f	8b 45 fc	 mov	 eax, DWORD PTR _this$[ebp]
  00012	8b 4d 08	 mov	 ecx, DWORD PTR _lpd3dxBuffer$[ebp]
  00015	89 48 04	 mov	 DWORD PTR [eax+4], ecx

; 29   : }

  00018	c9		 leave
  00019	c2 04 00	 ret	 4
?Create@CDirect3DXBuffer@@QAEXPAUID3DXBuffer@@@Z ENDP	; CDirect3DXBuffer::Create
_TEXT	ENDS
; Function compile flags: /Odspy
; File D:\Metin2 Server Files\mainline\SRC_2014\Metin2Client\EterLib\GrpD3DXBuffer.cpp
; File D:\Metin2 Server Files\mainline\SRC_2014\Metin2Client\eterBase\Stl.h
; File D:\Metin2 Server Files\mainline\SRC_2014\Metin2Client\EterLib\GrpD3DXBuffer.cpp
;	COMDAT ?Destroy@CDirect3DXBuffer@@QAEXXZ
_TEXT	SEGMENT
_this$ = -8						; size = 4
_rpObject$ = -4						; size = 4
?Destroy@CDirect3DXBuffer@@QAEXXZ PROC			; CDirect3DXBuffer::Destroy, COMDAT
; _this$ = ecx

; 21   : {

  00000	55		 push	 ebp
  00001	8b ec		 mov	 ebp, esp
  00003	51		 push	 ecx
  00004	51		 push	 ecx
  00005	89 4d f8	 mov	 DWORD PTR _this$[ebp], ecx

; 22   : 	safe_release(m_lpd3dxBuffer);

  00008	8b 45 f8	 mov	 eax, DWORD PTR _this$[ebp]
  0000b	83 c0 04	 add	 eax, 4
  0000e	89 45 fc	 mov	 DWORD PTR _rpObject$[ebp], eax
; File D:\Metin2 Server Files\mainline\SRC_2014\Metin2Client\eterBase\Stl.h

; 138  : 	if (!rpObject)

  00011	8b 45 fc	 mov	 eax, DWORD PTR _rpObject$[ebp]
  00014	83 38 00	 cmp	 DWORD PTR [eax], 0
  00017	75 02		 jne	 SHORT $LN4@Destroy

; 139  : 		return;

  00019	eb 15		 jmp	 SHORT $LN1@Destroy
$LN4@Destroy:

; 140  : 	
; 141  : 	rpObject->Release();

  0001b	8b 45 fc	 mov	 eax, DWORD PTR _rpObject$[ebp]
  0001e	8b 00		 mov	 eax, DWORD PTR [eax]
  00020	8b 4d fc	 mov	 ecx, DWORD PTR _rpObject$[ebp]
  00023	8b 00		 mov	 eax, DWORD PTR [eax]
  00025	ff 31		 push	 DWORD PTR [ecx]
  00027	ff 50 08	 call	 DWORD PTR [eax+8]

; 142  : 	rpObject = NULL;

  0002a	8b 45 fc	 mov	 eax, DWORD PTR _rpObject$[ebp]
  0002d	83 20 00	 and	 DWORD PTR [eax], 0
$LN1@Destroy:
; File D:\Metin2 Server Files\mainline\SRC_2014\Metin2Client\EterLib\GrpD3DXBuffer.cpp

; 23   : }

  00030	c9		 leave
  00031	c3		 ret	 0
?Destroy@CDirect3DXBuffer@@QAEXXZ ENDP			; CDirect3DXBuffer::Destroy
_TEXT	ENDS
; Function compile flags: /Odspy
; File D:\Metin2 Server Files\mainline\SRC_2014\Metin2Client\EterLib\GrpD3DXBuffer.cpp
;	COMDAT ??1CDirect3DXBuffer@@UAE@XZ
_TEXT	SEGMENT
_this$ = -16						; size = 4
__$EHRec$ = -12						; size = 12
??1CDirect3DXBuffer@@UAE@XZ PROC			; CDirect3DXBuffer::~CDirect3DXBuffer, COMDAT
; _this$ = ecx

; 16   : {

  00000	55		 push	 ebp
  00001	8b ec		 mov	 ebp, esp
  00003	6a ff		 push	 -1
  00005	68 00 00 00 00	 push	 __ehhandler$??1CDirect3DXBuffer@@UAE@XZ
  0000a	64 a1 00 00 00
	00		 mov	 eax, DWORD PTR fs:0
  00010	50		 push	 eax
  00011	51		 push	 ecx
  00012	a1 00 00 00 00	 mov	 eax, DWORD PTR ___security_cookie
  00017	33 c5		 xor	 eax, ebp
  00019	50		 push	 eax
  0001a	8d 45 f4	 lea	 eax, DWORD PTR __$EHRec$[ebp]
  0001d	64 a3 00 00 00
	00		 mov	 DWORD PTR fs:0, eax
  00023	89 4d f0	 mov	 DWORD PTR _this$[ebp], ecx
  00026	8b 45 f0	 mov	 eax, DWORD PTR _this$[ebp]
  00029	c7 00 00 00 00
	00		 mov	 DWORD PTR [eax], OFFSET ??_7CDirect3DXBuffer@@6B@

; 17   : 	Destroy();

  0002f	8b 4d f0	 mov	 ecx, DWORD PTR _this$[ebp]
  00032	e8 00 00 00 00	 call	 ?Destroy@CDirect3DXBuffer@@QAEXXZ ; CDirect3DXBuffer::Destroy

; 18   : }

  00037	8b 4d f4	 mov	 ecx, DWORD PTR __$EHRec$[ebp]
  0003a	64 89 0d 00 00
	00 00		 mov	 DWORD PTR fs:0, ecx
  00041	59		 pop	 ecx
  00042	c9		 leave
  00043	c3		 ret	 0
  00044	cc		 int	 3
  00045	cc		 int	 3
  00046	cc		 int	 3
  00047	cc		 int	 3
  00048	cc		 int	 3
_TEXT	ENDS
;	COMDAT text$x
text$x	SEGMENT
__ehhandler$??1CDirect3DXBuffer@@UAE@XZ:
  00000	90		 npad	 1
  00001	90		 npad	 1
  00002	8b 54 24 08	 mov	 edx, DWORD PTR [esp+8]
  00006	8d 42 0c	 lea	 eax, DWORD PTR [edx+12]
  00009	8b 4a f8	 mov	 ecx, DWORD PTR [edx-8]
  0000c	33 c8		 xor	 ecx, eax
  0000e	e8 00 00 00 00	 call	 @__security_check_cookie@4
  00013	b8 00 00 00 00	 mov	 eax, OFFSET __ehfuncinfo$??1CDirect3DXBuffer@@UAE@XZ
  00018	e9 00 00 00 00	 jmp	 ___CxxFrameHandler3
text$x	ENDS
??1CDirect3DXBuffer@@UAE@XZ ENDP			; CDirect3DXBuffer::~CDirect3DXBuffer
; Function compile flags: /Odspy
; File D:\Metin2 Server Files\mainline\SRC_2014\Metin2Client\EterLib\GrpD3DXBuffer.cpp
;	COMDAT ??0CDirect3DXBuffer@@QAE@PAUID3DXBuffer@@@Z
_TEXT	SEGMENT
_this$ = -4						; size = 4
_lpd3dxBuffer$ = 8					; size = 4
??0CDirect3DXBuffer@@QAE@PAUID3DXBuffer@@@Z PROC	; CDirect3DXBuffer::CDirect3DXBuffer, COMDAT
; _this$ = ecx

; 11   : {

  00000	55		 push	 ebp
  00001	8b ec		 mov	 ebp, esp
  00003	51		 push	 ecx
  00004	89 4d fc	 mov	 DWORD PTR _this$[ebp], ecx
  00007	8b 45 fc	 mov	 eax, DWORD PTR _this$[ebp]
  0000a	c7 00 00 00 00
	00		 mov	 DWORD PTR [eax], OFFSET ??_7CDirect3DXBuffer@@6B@

; 12   : 	m_lpd3dxBuffer=lpd3dxBuffer;

  00010	8b 45 fc	 mov	 eax, DWORD PTR _this$[ebp]
  00013	8b 4d 08	 mov	 ecx, DWORD PTR _lpd3dxBuffer$[ebp]
  00016	89 48 04	 mov	 DWORD PTR [eax+4], ecx

; 13   : }

  00019	8b 45 fc	 mov	 eax, DWORD PTR _this$[ebp]
  0001c	c9		 leave
  0001d	c2 04 00	 ret	 4
??0CDirect3DXBuffer@@QAE@PAUID3DXBuffer@@@Z ENDP	; CDirect3DXBuffer::CDirect3DXBuffer
_TEXT	ENDS
; Function compile flags: /Odspy
; File D:\Metin2 Server Files\mainline\SRC_2014\Metin2Client\EterLib\GrpD3DXBuffer.cpp
;	COMDAT ??0CDirect3DXBuffer@@QAE@XZ
_TEXT	SEGMENT
_this$ = -4						; size = 4
??0CDirect3DXBuffer@@QAE@XZ PROC			; CDirect3DXBuffer::CDirect3DXBuffer, COMDAT
; _this$ = ecx

; 6    : {

  00000	55		 push	 ebp
  00001	8b ec		 mov	 ebp, esp
  00003	51		 push	 ecx
  00004	89 4d fc	 mov	 DWORD PTR _this$[ebp], ecx
  00007	8b 45 fc	 mov	 eax, DWORD PTR _this$[ebp]
  0000a	c7 00 00 00 00
	00		 mov	 DWORD PTR [eax], OFFSET ??_7CDirect3DXBuffer@@6B@

; 7    : 	m_lpd3dxBuffer=NULL;

  00010	8b 45 fc	 mov	 eax, DWORD PTR _this$[ebp]
  00013	83 60 04 00	 and	 DWORD PTR [eax+4], 0

; 8    : }

  00017	8b 45 fc	 mov	 eax, DWORD PTR _this$[ebp]
  0001a	c9		 leave
  0001b	c3		 ret	 0
??0CDirect3DXBuffer@@QAE@XZ ENDP			; CDirect3DXBuffer::CDirect3DXBuffer
_TEXT	ENDS
END
