; Listing generated by Microsoft (R) Optimizing Compiler Version 19.28.29335.0 

	TITLE	D:\Metin2 Server Files\mainline\SRC_2014\Metin2Client\EterLib\GrpFontTexture.cpp
	.686P
	.XMM
	include listing.inc
	.model	flat

INCLUDELIB LIBCMT
INCLUDELIB OLDNAMES

CONST	SEGMENT
?piecewise_construct@std@@3Upiecewise_construct_t@1@B	ORG $+1 ; std::piecewise_construct
CONST	ENDS
PUBLIC	??0exception@std@@QAE@ABV01@@Z			; std::exception::exception
PUBLIC	?what@exception@std@@UBEPBDXZ			; std::exception::what
PUBLIC	??_Gexception@std@@UAEPAXI@Z			; std::exception::`scalar deleting destructor'
PUBLIC	??0bad_alloc@std@@QAE@ABV01@@Z			; std::bad_alloc::bad_alloc
PUBLIC	??_Gbad_alloc@std@@UAEPAXI@Z			; std::bad_alloc::`scalar deleting destructor'
PUBLIC	??0bad_array_new_length@std@@QAE@XZ		; std::bad_array_new_length::bad_array_new_length
PUBLIC	??1bad_array_new_length@std@@UAE@XZ		; std::bad_array_new_length::~bad_array_new_length
PUBLIC	??0bad_array_new_length@std@@QAE@ABV01@@Z	; std::bad_array_new_length::bad_array_new_length
PUBLIC	??_Gbad_array_new_length@std@@UAEPAXI@Z		; std::bad_array_new_length::`scalar deleting destructor'
PUBLIC	?_Throw_bad_array_new_length@std@@YAXXZ		; std::_Throw_bad_array_new_length
PUBLIC	?_Adjust_manually_vector_aligned@std@@YAXAAPAXAAI@Z ; std::_Adjust_manually_vector_aligned
PUBLIC	?_Throw_tree_length_error@std@@YAXXZ		; std::_Throw_tree_length_error
PUBLIC	??$_Deallocate@$07$0A@@std@@YAXPAXI@Z		; std::_Deallocate<8,0>
PUBLIC	??$_Allocate@$07U_Default_allocate_traits@std@@$0A@@std@@YAPAXI@Z ; std::_Allocate<8,std::_Default_allocate_traits,0>
PUBLIC	??$_Allocate_manually_vector_aligned@U_Default_allocate_traits@std@@@std@@YAPAXI@Z ; std::_Allocate_manually_vector_aligned<std::_Default_allocate_traits>
PUBLIC	??0CGraphicFontTexture@@QAE@XZ			; CGraphicFontTexture::CGraphicFontTexture
PUBLIC	??1CGraphicFontTexture@@UAE@XZ			; CGraphicFontTexture::~CGraphicFontTexture
PUBLIC	?Destroy@CGraphicFontTexture@@QAEXXZ		; CGraphicFontTexture::Destroy
PUBLIC	?Create@CGraphicFontTexture@@QAE_NPBDH_N@Z	; CGraphicFontTexture::Create
PUBLIC	?CreateDeviceObjects@CGraphicFontTexture@@QAE_NXZ ; CGraphicFontTexture::CreateDeviceObjects
PUBLIC	?DestroyDeviceObjects@CGraphicFontTexture@@QAEXXZ ; CGraphicFontTexture::DestroyDeviceObjects
PUBLIC	?CheckTextureIndex@CGraphicFontTexture@@QAE_NK@Z ; CGraphicFontTexture::CheckTextureIndex
PUBLIC	?SelectTexture@CGraphicFontTexture@@QAEXK@Z	; CGraphicFontTexture::SelectTexture
PUBLIC	?UpdateTexture@CGraphicFontTexture@@QAE_NXZ	; CGraphicFontTexture::UpdateTexture
PUBLIC	?GetCharacterInfomation@CGraphicFontTexture@@QAEPAUSCharacterInfomation@1@G_W@Z ; CGraphicFontTexture::GetCharacterInfomation
PUBLIC	?UpdateCharacterInfomation@CGraphicFontTexture@@QAEPAUSCharacterInfomation@1@U?$pair@G_W@std@@@Z ; CGraphicFontTexture::UpdateCharacterInfomation
PUBLIC	?IsEmpty@CGraphicFontTexture@@UBE_NXZ		; CGraphicFontTexture::IsEmpty
PUBLIC	?Initialize@CGraphicFontTexture@@IAEXXZ		; CGraphicFontTexture::Initialize
PUBLIC	?AppendTexture@CGraphicFontTexture@@IAE_NXZ	; CGraphicFontTexture::AppendTexture
PUBLIC	?GetFont@CGraphicFontTexture@@IAEPAUHFONT__@@G@Z ; CGraphicFontTexture::GetFont
PUBLIC	?deallocate@?$allocator@PAVCGraphicImageTexture@@@std@@QAEXQAPAVCGraphicImageTexture@@I@Z ; std::allocator<CGraphicImageTexture *>::deallocate
PUBLIC	??1?$vector@PAVCGraphicImageTexture@@V?$allocator@PAVCGraphicImageTexture@@@std@@@std@@QAE@XZ ; std::vector<CGraphicImageTexture *,std::allocator<CGraphicImageTexture *> >::~vector<CGraphicImageTexture *,std::allocator<CGraphicImageTexture *> >
PUBLIC	?clear@?$vector@PAVCGraphicImageTexture@@V?$allocator@PAVCGraphicImageTexture@@@std@@@std@@QAEXXZ ; std::vector<CGraphicImageTexture *,std::allocator<CGraphicImageTexture *> >::clear
PUBLIC	?_Destroy@?$vector@PAVCGraphicImageTexture@@V?$allocator@PAVCGraphicImageTexture@@@std@@@std@@AAEXPAPAVCGraphicImageTexture@@0@Z ; std::vector<CGraphicImageTexture *,std::allocator<CGraphicImageTexture *> >::_Destroy
PUBLIC	?_Calculate_growth@?$vector@PAVCGraphicImageTexture@@V?$allocator@PAVCGraphicImageTexture@@@std@@@std@@ABEII@Z ; std::vector<CGraphicImageTexture *,std::allocator<CGraphicImageTexture *> >::_Calculate_growth
PUBLIC	?_Change_array@?$vector@PAVCGraphicImageTexture@@V?$allocator@PAVCGraphicImageTexture@@@std@@@std@@AAEXQAPAVCGraphicImageTexture@@II@Z ; std::vector<CGraphicImageTexture *,std::allocator<CGraphicImageTexture *> >::_Change_array
PUBLIC	?_Tidy@?$vector@PAVCGraphicImageTexture@@V?$allocator@PAVCGraphicImageTexture@@@std@@@std@@AAEXXZ ; std::vector<CGraphicImageTexture *,std::allocator<CGraphicImageTexture *> >::_Tidy
PUBLIC	?_Xlength@?$vector@PAVCGraphicImageTexture@@V?$allocator@PAVCGraphicImageTexture@@@std@@@std@@CAXXZ ; std::vector<CGraphicImageTexture *,std::allocator<CGraphicImageTexture *> >::_Xlength
PUBLIC	??0?$_Tree@V?$_Tmap_traits@U?$pair@G_W@std@@USCharacterInfomation@CGraphicFontTexture@@U?$less@U?$pair@G_W@std@@@2@V?$allocator@U?$pair@$$CBU?$pair@G_W@std@@USCharacterInfomation@CGraphicFontTexture@@@std@@@2@$0A@@std@@@std@@QAE@ABU?$less@U?$pair@G_W@std@@@1@@Z ; std::_Tree<std::_Tmap_traits<std::pair<unsigned short,wchar_t>,CGraphicFontTexture::SCharacterInfomation,std::less<std::pair<unsigned short,wchar_t> >,std::allocator<std::pair<std::pair<unsigned short,wchar_t> const ,CGraphicFontTexture::SCharacterInfomation> >,0> >::_Tree<std::_Tmap_traits<std::pair<unsigned short,wchar_t>,CGraphicFontTexture::SCharacterInfomation,std::less<std::pair<unsigned short,wchar_t> >,std::allocator<std::pair<std::pair<unsigned short,wchar_t> const ,CGraphicFontTexture::SCharacterInfomation> >,0> >
PUBLIC	??1?$_Tree@V?$_Tmap_traits@U?$pair@G_W@std@@USCharacterInfomation@CGraphicFontTexture@@U?$less@U?$pair@G_W@std@@@2@V?$allocator@U?$pair@$$CBU?$pair@G_W@std@@USCharacterInfomation@CGraphicFontTexture@@@std@@@2@$0A@@std@@@std@@QAE@XZ ; std::_Tree<std::_Tmap_traits<std::pair<unsigned short,wchar_t>,CGraphicFontTexture::SCharacterInfomation,std::less<std::pair<unsigned short,wchar_t> >,std::allocator<std::pair<std::pair<unsigned short,wchar_t> const ,CGraphicFontTexture::SCharacterInfomation> >,0> >::~_Tree<std::_Tmap_traits<std::pair<unsigned short,wchar_t>,CGraphicFontTexture::SCharacterInfomation,std::less<std::pair<unsigned short,wchar_t> >,std::allocator<std::pair<std::pair<unsigned short,wchar_t> const ,CGraphicFontTexture::SCharacterInfomation> >,0> >
PUBLIC	?max_size@?$_Tree@V?$_Tmap_traits@U?$pair@G_W@std@@USCharacterInfomation@CGraphicFontTexture@@U?$less@U?$pair@G_W@std@@@2@V?$allocator@U?$pair@$$CBU?$pair@G_W@std@@USCharacterInfomation@CGraphicFontTexture@@@std@@@2@$0A@@std@@@std@@QBEIXZ ; std::_Tree<std::_Tmap_traits<std::pair<unsigned short,wchar_t>,CGraphicFontTexture::SCharacterInfomation,std::less<std::pair<unsigned short,wchar_t> >,std::allocator<std::pair<std::pair<unsigned short,wchar_t> const ,CGraphicFontTexture::SCharacterInfomation> >,0> >::max_size
PUBLIC	?clear@?$_Tree@V?$_Tmap_traits@U?$pair@G_W@std@@USCharacterInfomation@CGraphicFontTexture@@U?$less@U?$pair@G_W@std@@@2@V?$allocator@U?$pair@$$CBU?$pair@G_W@std@@USCharacterInfomation@CGraphicFontTexture@@@std@@@2@$0A@@std@@@std@@QAEXXZ ; std::_Tree<std::_Tmap_traits<std::pair<unsigned short,wchar_t>,CGraphicFontTexture::SCharacterInfomation,std::less<std::pair<unsigned short,wchar_t> >,std::allocator<std::pair<std::pair<unsigned short,wchar_t> const ,CGraphicFontTexture::SCharacterInfomation> >,0> >::clear
PUBLIC	?find@?$_Tree@V?$_Tmap_traits@U?$pair@G_W@std@@USCharacterInfomation@CGraphicFontTexture@@U?$less@U?$pair@G_W@std@@@2@V?$allocator@U?$pair@$$CBU?$pair@G_W@std@@USCharacterInfomation@CGraphicFontTexture@@@std@@@2@$0A@@std@@@std@@QAE?AV?$_Tree_iterator@V?$_Tree_val@U?$_Tree_simple_types@U?$pair@$$CBU?$pair@G_W@std@@USCharacterInfomation@CGraphicFontTexture@@@std@@@std@@@std@@@2@ABU?$pair@G_W@2@@Z ; std::_Tree<std::_Tmap_traits<std::pair<unsigned short,wchar_t>,CGraphicFontTexture::SCharacterInfomation,std::less<std::pair<unsigned short,wchar_t> >,std::allocator<std::pair<std::pair<unsigned short,wchar_t> const ,CGraphicFontTexture::SCharacterInfomation> >,0> >::find
PUBLIC	?_Check_grow_by_1@?$_Tree@V?$_Tmap_traits@U?$pair@G_W@std@@USCharacterInfomation@CGraphicFontTexture@@U?$less@U?$pair@G_W@std@@@2@V?$allocator@U?$pair@$$CBU?$pair@G_W@std@@USCharacterInfomation@CGraphicFontTexture@@@std@@@2@$0A@@std@@@std@@IAEXXZ ; std::_Tree<std::_Tmap_traits<std::pair<unsigned short,wchar_t>,CGraphicFontTexture::SCharacterInfomation,std::less<std::pair<unsigned short,wchar_t> >,std::allocator<std::pair<std::pair<unsigned short,wchar_t> const ,CGraphicFontTexture::SCharacterInfomation> >,0> >::_Check_grow_by_1
PUBLIC	?_Alloc_sentinel_and_proxy@?$_Tree@V?$_Tmap_traits@U?$pair@G_W@std@@USCharacterInfomation@CGraphicFontTexture@@U?$less@U?$pair@G_W@std@@@2@V?$allocator@U?$pair@$$CBU?$pair@G_W@std@@USCharacterInfomation@CGraphicFontTexture@@@std@@@2@$0A@@std@@@std@@IAEXXZ ; std::_Tree<std::_Tmap_traits<std::pair<unsigned short,wchar_t>,CGraphicFontTexture::SCharacterInfomation,std::less<std::pair<unsigned short,wchar_t> >,std::allocator<std::pair<std::pair<unsigned short,wchar_t> const ,CGraphicFontTexture::SCharacterInfomation> >,0> >::_Alloc_sentinel_and_proxy
PUBLIC	?_Lrotate@?$_Tree_val@U?$_Tree_simple_types@U?$pair@$$CBU?$pair@G_W@std@@USCharacterInfomation@CGraphicFontTexture@@@std@@@std@@@std@@QAEXPAU?$_Tree_node@U?$pair@$$CBU?$pair@G_W@std@@USCharacterInfomation@CGraphicFontTexture@@@std@@PAX@2@@Z ; std::_Tree_val<std::_Tree_simple_types<std::pair<std::pair<unsigned short,wchar_t> const ,CGraphicFontTexture::SCharacterInfomation> > >::_Lrotate
PUBLIC	?_Rrotate@?$_Tree_val@U?$_Tree_simple_types@U?$pair@$$CBU?$pair@G_W@std@@USCharacterInfomation@CGraphicFontTexture@@@std@@@std@@@std@@QAEXPAU?$_Tree_node@U?$pair@$$CBU?$pair@G_W@std@@USCharacterInfomation@CGraphicFontTexture@@@std@@PAX@2@@Z ; std::_Tree_val<std::_Tree_simple_types<std::pair<std::pair<unsigned short,wchar_t> const ,CGraphicFontTexture::SCharacterInfomation> > >::_Rrotate
PUBLIC	?_Insert_node@?$_Tree_val@U?$_Tree_simple_types@U?$pair@$$CBU?$pair@G_W@std@@USCharacterInfomation@CGraphicFontTexture@@@std@@@std@@@std@@QAEPAU?$_Tree_node@U?$pair@$$CBU?$pair@G_W@std@@USCharacterInfomation@CGraphicFontTexture@@@std@@PAX@2@U?$_Tree_id@PAU?$_Tree_node@U?$pair@$$CBU?$pair@G_W@std@@USCharacterInfomation@CGraphicFontTexture@@@std@@PAX@std@@@2@QAU32@@Z ; std::_Tree_val<std::_Tree_simple_types<std::pair<std::pair<unsigned short,wchar_t> const ,CGraphicFontTexture::SCharacterInfomation> > >::_Insert_node
PUBLIC	??1?$map@U?$pair@G_W@std@@USCharacterInfomation@CGraphicFontTexture@@U?$less@U?$pair@G_W@std@@@2@V?$allocator@U?$pair@$$CBU?$pair@G_W@std@@USCharacterInfomation@CGraphicFontTexture@@@std@@@2@@std@@QAE@XZ ; std::map<std::pair<unsigned short,wchar_t>,CGraphicFontTexture::SCharacterInfomation,std::less<std::pair<unsigned short,wchar_t> >,std::allocator<std::pair<std::pair<unsigned short,wchar_t> const ,CGraphicFontTexture::SCharacterInfomation> > >::~map<std::pair<unsigned short,wchar_t>,CGraphicFontTexture::SCharacterInfomation,std::less<std::pair<unsigned short,wchar_t> >,std::allocator<std::pair<std::pair<unsigned short,wchar_t> const ,CGraphicFontTexture::SCharacterInfomation> > >
PUBLIC	??0?$_Tree@V?$_Tmap_traits@GPAUHFONT__@@U?$less@G@std@@V?$allocator@U?$pair@$$CBGPAUHFONT__@@@std@@@3@$0A@@std@@@std@@QAE@ABU?$less@G@1@@Z ; std::_Tree<std::_Tmap_traits<unsigned short,HFONT__ *,std::less<unsigned short>,std::allocator<std::pair<unsigned short const ,HFONT__ *> >,0> >::_Tree<std::_Tmap_traits<unsigned short,HFONT__ *,std::less<unsigned short>,std::allocator<std::pair<unsigned short const ,HFONT__ *> >,0> >
PUBLIC	??1?$_Tree@V?$_Tmap_traits@GPAUHFONT__@@U?$less@G@std@@V?$allocator@U?$pair@$$CBGPAUHFONT__@@@std@@@3@$0A@@std@@@std@@QAE@XZ ; std::_Tree<std::_Tmap_traits<unsigned short,HFONT__ *,std::less<unsigned short>,std::allocator<std::pair<unsigned short const ,HFONT__ *> >,0> >::~_Tree<std::_Tmap_traits<unsigned short,HFONT__ *,std::less<unsigned short>,std::allocator<std::pair<unsigned short const ,HFONT__ *> >,0> >
PUBLIC	?max_size@?$_Tree@V?$_Tmap_traits@GPAUHFONT__@@U?$less@G@std@@V?$allocator@U?$pair@$$CBGPAUHFONT__@@@std@@@3@$0A@@std@@@std@@QBEIXZ ; std::_Tree<std::_Tmap_traits<unsigned short,HFONT__ *,std::less<unsigned short>,std::allocator<std::pair<unsigned short const ,HFONT__ *> >,0> >::max_size
PUBLIC	?clear@?$_Tree@V?$_Tmap_traits@GPAUHFONT__@@U?$less@G@std@@V?$allocator@U?$pair@$$CBGPAUHFONT__@@@std@@@3@$0A@@std@@@std@@QAEXXZ ; std::_Tree<std::_Tmap_traits<unsigned short,HFONT__ *,std::less<unsigned short>,std::allocator<std::pair<unsigned short const ,HFONT__ *> >,0> >::clear
PUBLIC	?find@?$_Tree@V?$_Tmap_traits@GPAUHFONT__@@U?$less@G@std@@V?$allocator@U?$pair@$$CBGPAUHFONT__@@@std@@@3@$0A@@std@@@std@@QAE?AV?$_Tree_iterator@V?$_Tree_val@U?$_Tree_simple_types@U?$pair@$$CBGPAUHFONT__@@@std@@@std@@@std@@@2@ABG@Z ; std::_Tree<std::_Tmap_traits<unsigned short,HFONT__ *,std::less<unsigned short>,std::allocator<std::pair<unsigned short const ,HFONT__ *> >,0> >::find
PUBLIC	?_Check_grow_by_1@?$_Tree@V?$_Tmap_traits@GPAUHFONT__@@U?$less@G@std@@V?$allocator@U?$pair@$$CBGPAUHFONT__@@@std@@@3@$0A@@std@@@std@@IAEXXZ ; std::_Tree<std::_Tmap_traits<unsigned short,HFONT__ *,std::less<unsigned short>,std::allocator<std::pair<unsigned short const ,HFONT__ *> >,0> >::_Check_grow_by_1
PUBLIC	?_Alloc_sentinel_and_proxy@?$_Tree@V?$_Tmap_traits@GPAUHFONT__@@U?$less@G@std@@V?$allocator@U?$pair@$$CBGPAUHFONT__@@@std@@@3@$0A@@std@@@std@@IAEXXZ ; std::_Tree<std::_Tmap_traits<unsigned short,HFONT__ *,std::less<unsigned short>,std::allocator<std::pair<unsigned short const ,HFONT__ *> >,0> >::_Alloc_sentinel_and_proxy
PUBLIC	?_Lrotate@?$_Tree_val@U?$_Tree_simple_types@U?$pair@$$CBGPAUHFONT__@@@std@@@std@@@std@@QAEXPAU?$_Tree_node@U?$pair@$$CBGPAUHFONT__@@@std@@PAX@2@@Z ; std::_Tree_val<std::_Tree_simple_types<std::pair<unsigned short const ,HFONT__ *> > >::_Lrotate
PUBLIC	?_Rrotate@?$_Tree_val@U?$_Tree_simple_types@U?$pair@$$CBGPAUHFONT__@@@std@@@std@@@std@@QAEXPAU?$_Tree_node@U?$pair@$$CBGPAUHFONT__@@@std@@PAX@2@@Z ; std::_Tree_val<std::_Tree_simple_types<std::pair<unsigned short const ,HFONT__ *> > >::_Rrotate
PUBLIC	?_Insert_node@?$_Tree_val@U?$_Tree_simple_types@U?$pair@$$CBGPAUHFONT__@@@std@@@std@@@std@@QAEPAU?$_Tree_node@U?$pair@$$CBGPAUHFONT__@@@std@@PAX@2@U?$_Tree_id@PAU?$_Tree_node@U?$pair@$$CBGPAUHFONT__@@@std@@PAX@std@@@2@QAU32@@Z ; std::_Tree_val<std::_Tree_simple_types<std::pair<unsigned short const ,HFONT__ *> > >::_Insert_node
PUBLIC	??1?$map@GPAUHFONT__@@U?$less@G@std@@V?$allocator@U?$pair@$$CBGPAUHFONT__@@@std@@@3@@std@@QAE@XZ ; std::map<unsigned short,HFONT__ *,std::less<unsigned short>,std::allocator<std::pair<unsigned short const ,HFONT__ *> > >::~map<unsigned short,HFONT__ *,std::less<unsigned short>,std::allocator<std::pair<unsigned short const ,HFONT__ *> > >
PUBLIC	??_GCGraphicFontTexture@@UAEPAXI@Z		; CGraphicFontTexture::`scalar deleting destructor'
PUBLIC	??$stl_wipe@V?$vector@PAVCGraphicImageTexture@@V?$allocator@PAVCGraphicImageTexture@@@std@@@std@@@@YAXAAV?$vector@PAVCGraphicImageTexture@@V?$allocator@PAVCGraphicImageTexture@@@std@@@std@@@Z ; stl_wipe<std::vector<CGraphicImageTexture *,std::allocator<CGraphicImageTexture *> > >
PUBLIC	??E?$_Tree_unchecked_const_iterator@V?$_Tree_val@U?$_Tree_simple_types@U?$pair@$$CBGPAUHFONT__@@@std@@@std@@@std@@U_Iterator_base0@2@@std@@QAEAAV01@XZ ; std::_Tree_unchecked_const_iterator<std::_Tree_val<std::_Tree_simple_types<std::pair<unsigned short const ,HFONT__ *> > >,std::_Iterator_base0>::operator++
PUBLIC	??$insert@$0A@$0A@@?$_Tree@V?$_Tmap_traits@GPAUHFONT__@@U?$less@G@std@@V?$allocator@U?$pair@$$CBGPAUHFONT__@@@std@@@3@$0A@@std@@@std@@QAE?AU?$pair@V?$_Tree_iterator@V?$_Tree_val@U?$_Tree_simple_types@U?$pair@$$CBGPAUHFONT__@@@std@@@std@@@std@@@std@@_N@1@$$QAU?$pair@$$CBGPAUHFONT__@@@1@@Z ; std::_Tree<std::_Tmap_traits<unsigned short,HFONT__ *,std::less<unsigned short>,std::allocator<std::pair<unsigned short const ,HFONT__ *> >,0> >::insert<0,0>
PUBLIC	??$_Find@G@?$_Tree@V?$_Tmap_traits@GPAUHFONT__@@U?$less@G@std@@V?$allocator@U?$pair@$$CBGPAUHFONT__@@@std@@@3@$0A@@std@@@std@@ABEPAU?$_Tree_node@U?$pair@$$CBGPAUHFONT__@@@std@@PAX@1@ABG@Z ; std::_Tree<std::_Tmap_traits<unsigned short,HFONT__ *,std::less<unsigned short>,std::allocator<std::pair<unsigned short const ,HFONT__ *> >,0> >::_Find<unsigned short>
PUBLIC	??$_Erase_tree@V?$allocator@U?$_Tree_node@U?$pair@$$CBGPAUHFONT__@@@std@@PAX@std@@@std@@@?$_Tree_val@U?$_Tree_simple_types@U?$pair@$$CBGPAUHFONT__@@@std@@@std@@@std@@QAEXAAV?$allocator@U?$_Tree_node@U?$pair@$$CBGPAUHFONT__@@@std@@PAX@std@@@1@PAU?$_Tree_node@U?$pair@$$CBGPAUHFONT__@@@std@@PAX@1@@Z ; std::_Tree_val<std::_Tree_simple_types<std::pair<unsigned short const ,HFONT__ *> > >::_Erase_tree<std::allocator<std::_Tree_node<std::pair<unsigned short const ,HFONT__ *>,void *> > >
PUBLIC	??$_Try_emplace@ABU?$pair@G_W@std@@$$V@?$map@U?$pair@G_W@std@@USCharacterInfomation@CGraphicFontTexture@@U?$less@U?$pair@G_W@std@@@2@V?$allocator@U?$pair@$$CBU?$pair@G_W@std@@USCharacterInfomation@CGraphicFontTexture@@@std@@@2@@std@@AAE?AU?$pair@PAU?$_Tree_node@U?$pair@$$CBU?$pair@G_W@std@@USCharacterInfomation@CGraphicFontTexture@@@std@@PAX@std@@_N@1@ABU?$pair@G_W@1@@Z ; std::map<std::pair<unsigned short,wchar_t>,CGraphicFontTexture::SCharacterInfomation,std::less<std::pair<unsigned short,wchar_t> >,std::allocator<std::pair<std::pair<unsigned short,wchar_t> const ,CGraphicFontTexture::SCharacterInfomation> > >::_Try_emplace<std::pair<unsigned short,wchar_t> const &>
PUBLIC	??$_Find@U?$pair@G_W@std@@@?$_Tree@V?$_Tmap_traits@U?$pair@G_W@std@@USCharacterInfomation@CGraphicFontTexture@@U?$less@U?$pair@G_W@std@@@2@V?$allocator@U?$pair@$$CBU?$pair@G_W@std@@USCharacterInfomation@CGraphicFontTexture@@@std@@@2@$0A@@std@@@std@@ABEPAU?$_Tree_node@U?$pair@$$CBU?$pair@G_W@std@@USCharacterInfomation@CGraphicFontTexture@@@std@@PAX@1@ABU?$pair@G_W@1@@Z ; std::_Tree<std::_Tmap_traits<std::pair<unsigned short,wchar_t>,CGraphicFontTexture::SCharacterInfomation,std::less<std::pair<unsigned short,wchar_t> >,std::allocator<std::pair<std::pair<unsigned short,wchar_t> const ,CGraphicFontTexture::SCharacterInfomation> >,0> >::_Find<std::pair<unsigned short,wchar_t> >
PUBLIC	??$_Erase_tree@V?$allocator@U?$_Tree_node@U?$pair@$$CBU?$pair@G_W@std@@USCharacterInfomation@CGraphicFontTexture@@@std@@PAX@std@@@std@@@?$_Tree_val@U?$_Tree_simple_types@U?$pair@$$CBU?$pair@G_W@std@@USCharacterInfomation@CGraphicFontTexture@@@std@@@std@@@std@@QAEXAAV?$allocator@U?$_Tree_node@U?$pair@$$CBU?$pair@G_W@std@@USCharacterInfomation@CGraphicFontTexture@@@std@@PAX@std@@@1@PAU?$_Tree_node@U?$pair@$$CBU?$pair@G_W@std@@USCharacterInfomation@CGraphicFontTexture@@@std@@PAX@1@@Z ; std::_Tree_val<std::_Tree_simple_types<std::pair<std::pair<unsigned short,wchar_t> const ,CGraphicFontTexture::SCharacterInfomation> > >::_Erase_tree<std::allocator<std::_Tree_node<std::pair<std::pair<unsigned short,wchar_t> const ,CGraphicFontTexture::SCharacterInfomation>,void *> > >
PUBLIC	??$emplace_back@ABQAVCGraphicImageTexture@@@?$vector@PAVCGraphicImageTexture@@V?$allocator@PAVCGraphicImageTexture@@@std@@@std@@QAEXABQAVCGraphicImageTexture@@@Z ; std::vector<CGraphicImageTexture *,std::allocator<CGraphicImageTexture *> >::emplace_back<CGraphicImageTexture * const &>
PUBLIC	??$_Emplace_back_with_unused_capacity@ABQAVCGraphicImageTexture@@@?$vector@PAVCGraphicImageTexture@@V?$allocator@PAVCGraphicImageTexture@@@std@@@std@@AAEXABQAVCGraphicImageTexture@@@Z ; std::vector<CGraphicImageTexture *,std::allocator<CGraphicImageTexture *> >::_Emplace_back_with_unused_capacity<CGraphicImageTexture * const &>
PUBLIC	??$_Emplace_reallocate@ABQAVCGraphicImageTexture@@@?$vector@PAVCGraphicImageTexture@@V?$allocator@PAVCGraphicImageTexture@@@std@@@std@@QAEPAPAVCGraphicImageTexture@@QAPAV2@ABQAV2@@Z ; std::vector<CGraphicImageTexture *,std::allocator<CGraphicImageTexture *> >::_Emplace_reallocate<CGraphicImageTexture * const &>
PUBLIC	??$_Buyheadnode@V?$allocator@U?$_Tree_node@U?$pair@$$CBGPAUHFONT__@@@std@@PAX@std@@@std@@@?$_Tree_node@U?$pair@$$CBGPAUHFONT__@@@std@@PAX@std@@SAPAU01@AAV?$allocator@U?$_Tree_node@U?$pair@$$CBGPAUHFONT__@@@std@@PAX@std@@@1@@Z ; std::_Tree_node<std::pair<unsigned short const ,HFONT__ *>,void *>::_Buyheadnode<std::allocator<std::_Tree_node<std::pair<unsigned short const ,HFONT__ *>,void *> > >
PUBLIC	??$_Buyheadnode@V?$allocator@U?$_Tree_node@U?$pair@$$CBU?$pair@G_W@std@@USCharacterInfomation@CGraphicFontTexture@@@std@@PAX@std@@@std@@@?$_Tree_node@U?$pair@$$CBU?$pair@G_W@std@@USCharacterInfomation@CGraphicFontTexture@@@std@@PAX@std@@SAPAU01@AAV?$allocator@U?$_Tree_node@U?$pair@$$CBU?$pair@G_W@std@@USCharacterInfomation@CGraphicFontTexture@@@std@@PAX@std@@@1@@Z ; std::_Tree_node<std::pair<std::pair<unsigned short,wchar_t> const ,CGraphicFontTexture::SCharacterInfomation>,void *>::_Buyheadnode<std::allocator<std::_Tree_node<std::pair<std::pair<unsigned short,wchar_t> const ,CGraphicFontTexture::SCharacterInfomation>,void *> > >
PUBLIC	??$_Destroy_range@V?$allocator@PAVCGraphicImageTexture@@@std@@@std@@YAXPAPAVCGraphicImageTexture@@QAPAV1@AAV?$allocator@PAVCGraphicImageTexture@@@0@@Z ; std::_Destroy_range<std::allocator<CGraphicImageTexture *> >
PUBLIC	??$_Emplace@U?$pair@$$CBGPAUHFONT__@@@std@@@?$_Tree@V?$_Tmap_traits@GPAUHFONT__@@U?$less@G@std@@V?$allocator@U?$pair@$$CBGPAUHFONT__@@@std@@@3@$0A@@std@@@std@@IAE?AU?$pair@PAU?$_Tree_node@U?$pair@$$CBGPAUHFONT__@@@std@@PAX@std@@_N@1@$$QAU?$pair@$$CBGPAUHFONT__@@@1@@Z ; std::_Tree<std::_Tmap_traits<unsigned short,HFONT__ *,std::less<unsigned short>,std::allocator<std::pair<unsigned short const ,HFONT__ *> >,0> >::_Emplace<std::pair<unsigned short const ,HFONT__ *> >
PUBLIC	??$_Find_lower_bound@G@?$_Tree@V?$_Tmap_traits@GPAUHFONT__@@U?$less@G@std@@V?$allocator@U?$pair@$$CBGPAUHFONT__@@@std@@@3@$0A@@std@@@std@@IBE?AU?$_Tree_find_result@PAU?$_Tree_node@U?$pair@$$CBGPAUHFONT__@@@std@@PAX@std@@@1@ABG@Z ; std::_Tree<std::_Tmap_traits<unsigned short,HFONT__ *,std::less<unsigned short>,std::allocator<std::pair<unsigned short const ,HFONT__ *> >,0> >::_Find_lower_bound<unsigned short>
PUBLIC	??$_Lower_bound_duplicate@G@?$_Tree@V?$_Tmap_traits@GPAUHFONT__@@U?$less@G@std@@V?$allocator@U?$pair@$$CBGPAUHFONT__@@@std@@@3@$0A@@std@@@std@@IBE_NQAU?$_Tree_node@U?$pair@$$CBGPAUHFONT__@@@std@@PAX@1@ABG@Z ; std::_Tree<std::_Tmap_traits<unsigned short,HFONT__ *,std::less<unsigned short>,std::allocator<std::pair<unsigned short const ,HFONT__ *> >,0> >::_Lower_bound_duplicate<unsigned short>
PUBLIC	??$_Freenode0@V?$allocator@U?$_Tree_node@U?$pair@$$CBGPAUHFONT__@@@std@@PAX@std@@@std@@@?$_Tree_node@U?$pair@$$CBGPAUHFONT__@@@std@@PAX@std@@SAXAAV?$allocator@U?$_Tree_node@U?$pair@$$CBGPAUHFONT__@@@std@@PAX@std@@@1@PAU01@@Z ; std::_Tree_node<std::pair<unsigned short const ,HFONT__ *>,void *>::_Freenode0<std::allocator<std::_Tree_node<std::pair<unsigned short const ,HFONT__ *>,void *> > >
PUBLIC	??$_Find_lower_bound@U?$pair@G_W@std@@@?$_Tree@V?$_Tmap_traits@U?$pair@G_W@std@@USCharacterInfomation@CGraphicFontTexture@@U?$less@U?$pair@G_W@std@@@2@V?$allocator@U?$pair@$$CBU?$pair@G_W@std@@USCharacterInfomation@CGraphicFontTexture@@@std@@@2@$0A@@std@@@std@@IBE?AU?$_Tree_find_result@PAU?$_Tree_node@U?$pair@$$CBU?$pair@G_W@std@@USCharacterInfomation@CGraphicFontTexture@@@std@@PAX@std@@@1@ABU?$pair@G_W@1@@Z ; std::_Tree<std::_Tmap_traits<std::pair<unsigned short,wchar_t>,CGraphicFontTexture::SCharacterInfomation,std::less<std::pair<unsigned short,wchar_t> >,std::allocator<std::pair<std::pair<unsigned short,wchar_t> const ,CGraphicFontTexture::SCharacterInfomation> >,0> >::_Find_lower_bound<std::pair<unsigned short,wchar_t> >
PUBLIC	??$_Lower_bound_duplicate@U?$pair@G_W@std@@@?$_Tree@V?$_Tmap_traits@U?$pair@G_W@std@@USCharacterInfomation@CGraphicFontTexture@@U?$less@U?$pair@G_W@std@@@2@V?$allocator@U?$pair@$$CBU?$pair@G_W@std@@USCharacterInfomation@CGraphicFontTexture@@@std@@@2@$0A@@std@@@std@@IBE_NQAU?$_Tree_node@U?$pair@$$CBU?$pair@G_W@std@@USCharacterInfomation@CGraphicFontTexture@@@std@@PAX@1@ABU?$pair@G_W@1@@Z ; std::_Tree<std::_Tmap_traits<std::pair<unsigned short,wchar_t>,CGraphicFontTexture::SCharacterInfomation,std::less<std::pair<unsigned short,wchar_t> >,std::allocator<std::pair<std::pair<unsigned short,wchar_t> const ,CGraphicFontTexture::SCharacterInfomation> >,0> >::_Lower_bound_duplicate<std::pair<unsigned short,wchar_t> >
PUBLIC	?_Allocate@?$_Alloc_construct_ptr@V?$allocator@U?$_Tree_node@U?$pair@$$CBU?$pair@G_W@std@@USCharacterInfomation@CGraphicFontTexture@@@std@@PAX@std@@@std@@@std@@QAEXXZ ; std::_Alloc_construct_ptr<std::allocator<std::_Tree_node<std::pair<std::pair<unsigned short,wchar_t> const ,CGraphicFontTexture::SCharacterInfomation>,void *> > >::_Allocate
PUBLIC	??1?$_Alloc_construct_ptr@V?$allocator@U?$_Tree_node@U?$pair@$$CBU?$pair@G_W@std@@USCharacterInfomation@CGraphicFontTexture@@@std@@PAX@std@@@std@@@std@@QAE@XZ ; std::_Alloc_construct_ptr<std::allocator<std::_Tree_node<std::pair<std::pair<unsigned short,wchar_t> const ,CGraphicFontTexture::SCharacterInfomation>,void *> > >::~_Alloc_construct_ptr<std::allocator<std::_Tree_node<std::pair<std::pair<unsigned short,wchar_t> const ,CGraphicFontTexture::SCharacterInfomation>,void *> > >
PUBLIC	??1?$_Tree_temp_node_alloc@V?$allocator@U?$_Tree_node@U?$pair@$$CBU?$pair@G_W@std@@USCharacterInfomation@CGraphicFontTexture@@@std@@PAX@std@@@std@@@std@@QAE@XZ ; std::_Tree_temp_node_alloc<std::allocator<std::_Tree_node<std::pair<std::pair<unsigned short,wchar_t> const ,CGraphicFontTexture::SCharacterInfomation>,void *> > >::~_Tree_temp_node_alloc<std::allocator<std::_Tree_node<std::pair<std::pair<unsigned short,wchar_t> const ,CGraphicFontTexture::SCharacterInfomation>,void *> > >
PUBLIC	??1?$_Tree_temp_node@V?$allocator@U?$_Tree_node@U?$pair@$$CBU?$pair@G_W@std@@USCharacterInfomation@CGraphicFontTexture@@@std@@PAX@std@@@std@@@std@@QAE@XZ ; std::_Tree_temp_node<std::allocator<std::_Tree_node<std::pair<std::pair<unsigned short,wchar_t> const ,CGraphicFontTexture::SCharacterInfomation>,void *> > >::~_Tree_temp_node<std::allocator<std::_Tree_node<std::pair<std::pair<unsigned short,wchar_t> const ,CGraphicFontTexture::SCharacterInfomation>,void *> > >
PUBLIC	??$?0ABUpiecewise_construct_t@std@@V?$tuple@ABU?$pair@G_W@std@@@1@V?$tuple@$$V@1@@?$_Tree_temp_node@V?$allocator@U?$_Tree_node@U?$pair@$$CBU?$pair@G_W@std@@USCharacterInfomation@CGraphicFontTexture@@@std@@PAX@std@@@std@@@std@@QAE@AAV?$allocator@U?$_Tree_node@U?$pair@$$CBU?$pair@G_W@std@@USCharacterInfomation@CGraphicFontTexture@@@std@@PAX@std@@@1@PAU?$_Tree_node@U?$pair@$$CBU?$pair@G_W@std@@USCharacterInfomation@CGraphicFontTexture@@@std@@PAX@1@ABUpiecewise_construct_t@1@$$QAV?$tuple@ABU?$pair@G_W@std@@@1@$$QAV?$tuple@$$V@1@@Z ; std::_Tree_temp_node<std::allocator<std::_Tree_node<std::pair<std::pair<unsigned short,wchar_t> const ,CGraphicFontTexture::SCharacterInfomation>,void *> > >::_Tree_temp_node<std::allocator<std::_Tree_node<std::pair<std::pair<unsigned short,wchar_t> const ,CGraphicFontTexture::SCharacterInfomation>,void *> > ><std::piecewise_construct_t const &,std::tuple<std::pair<unsigned short,wchar_t> const &>,std::tuple<> >
PUBLIC	??$_Freenode0@V?$allocator@U?$_Tree_node@U?$pair@$$CBU?$pair@G_W@std@@USCharacterInfomation@CGraphicFontTexture@@@std@@PAX@std@@@std@@@?$_Tree_node@U?$pair@$$CBU?$pair@G_W@std@@USCharacterInfomation@CGraphicFontTexture@@@std@@PAX@std@@SAXAAV?$allocator@U?$_Tree_node@U?$pair@$$CBU?$pair@G_W@std@@USCharacterInfomation@CGraphicFontTexture@@@std@@PAX@std@@@1@PAU01@@Z ; std::_Tree_node<std::pair<std::pair<unsigned short,wchar_t> const ,CGraphicFontTexture::SCharacterInfomation>,void *>::_Freenode0<std::allocator<std::_Tree_node<std::pair<std::pair<unsigned short,wchar_t> const ,CGraphicFontTexture::SCharacterInfomation>,void *> > >
PUBLIC	??$_Construct_in_place@PAU?$_Tree_node@U?$pair@$$CBGPAUHFONT__@@@std@@PAX@std@@ABQAU12@@std@@YAXAAPAU?$_Tree_node@U?$pair@$$CBGPAUHFONT__@@@std@@PAX@0@ABQAU10@@Z ; std::_Construct_in_place<std::_Tree_node<std::pair<unsigned short const ,HFONT__ *>,void *> *,std::_Tree_node<std::pair<unsigned short const ,HFONT__ *>,void *> * const &>
PUBLIC	??$_Construct_in_place@PAU?$_Tree_node@U?$pair@$$CBU?$pair@G_W@std@@USCharacterInfomation@CGraphicFontTexture@@@std@@PAX@std@@ABQAU12@@std@@YAXAAPAU?$_Tree_node@U?$pair@$$CBU?$pair@G_W@std@@USCharacterInfomation@CGraphicFontTexture@@@std@@PAX@0@ABQAU10@@Z ; std::_Construct_in_place<std::_Tree_node<std::pair<std::pair<unsigned short,wchar_t> const ,CGraphicFontTexture::SCharacterInfomation>,void *> *,std::_Tree_node<std::pair<std::pair<unsigned short,wchar_t> const ,CGraphicFontTexture::SCharacterInfomation>,void *> * const &>
PUBLIC	??$_Destroy_in_place@PAU?$_Tree_node@U?$pair@$$CBU?$pair@G_W@std@@USCharacterInfomation@CGraphicFontTexture@@@std@@PAX@std@@@std@@YAXAAPAU?$_Tree_node@U?$pair@$$CBU?$pair@G_W@std@@USCharacterInfomation@CGraphicFontTexture@@@std@@PAX@0@@Z ; std::_Destroy_in_place<std::_Tree_node<std::pair<std::pair<unsigned short,wchar_t> const ,CGraphicFontTexture::SCharacterInfomation>,void *> *>
PUBLIC	??$_Uninitialized_move@PAPAVCGraphicImageTexture@@V?$allocator@PAVCGraphicImageTexture@@@std@@@std@@YAPAPAVCGraphicImageTexture@@QAPAV1@0PAPAV1@AAV?$allocator@PAVCGraphicImageTexture@@@0@@Z ; std::_Uninitialized_move<CGraphicImageTexture * *,std::allocator<CGraphicImageTexture *> >
PUBLIC	?_Allocate@?$_Alloc_construct_ptr@V?$allocator@U?$_Tree_node@U?$pair@$$CBGPAUHFONT__@@@std@@PAX@std@@@std@@@std@@QAEXXZ ; std::_Alloc_construct_ptr<std::allocator<std::_Tree_node<std::pair<unsigned short const ,HFONT__ *>,void *> > >::_Allocate
PUBLIC	??1?$_Alloc_construct_ptr@V?$allocator@U?$_Tree_node@U?$pair@$$CBGPAUHFONT__@@@std@@PAX@std@@@std@@@std@@QAE@XZ ; std::_Alloc_construct_ptr<std::allocator<std::_Tree_node<std::pair<unsigned short const ,HFONT__ *>,void *> > >::~_Alloc_construct_ptr<std::allocator<std::_Tree_node<std::pair<unsigned short const ,HFONT__ *>,void *> > >
PUBLIC	??1?$_Tree_temp_node@V?$allocator@U?$_Tree_node@U?$pair@$$CBGPAUHFONT__@@@std@@PAX@std@@@std@@@std@@QAE@XZ ; std::_Tree_temp_node<std::allocator<std::_Tree_node<std::pair<unsigned short const ,HFONT__ *>,void *> > >::~_Tree_temp_node<std::allocator<std::_Tree_node<std::pair<unsigned short const ,HFONT__ *>,void *> > >
PUBLIC	??$?0U?$pair@$$CBGPAUHFONT__@@@std@@@?$_Tree_temp_node@V?$allocator@U?$_Tree_node@U?$pair@$$CBGPAUHFONT__@@@std@@PAX@std@@@std@@@std@@QAE@AAV?$allocator@U?$_Tree_node@U?$pair@$$CBGPAUHFONT__@@@std@@PAX@std@@@1@PAU?$_Tree_node@U?$pair@$$CBGPAUHFONT__@@@std@@PAX@1@$$QAU?$pair@$$CBGPAUHFONT__@@@1@@Z ; std::_Tree_temp_node<std::allocator<std::_Tree_node<std::pair<unsigned short const ,HFONT__ *>,void *> > >::_Tree_temp_node<std::allocator<std::_Tree_node<std::pair<unsigned short const ,HFONT__ *>,void *> > ><std::pair<unsigned short const ,HFONT__ *> >
PUBLIC	??$_Destroy_in_place@PAU?$_Tree_node@U?$pair@$$CBGPAUHFONT__@@@std@@PAX@std@@@std@@YAXAAPAU?$_Tree_node@U?$pair@$$CBGPAUHFONT__@@@std@@PAX@0@@Z ; std::_Destroy_in_place<std::_Tree_node<std::pair<unsigned short const ,HFONT__ *>,void *> *>
PUBLIC	??$construct@U?$pair@$$CBU?$pair@G_W@std@@USCharacterInfomation@CGraphicFontTexture@@@std@@ABUpiecewise_construct_t@2@V?$tuple@ABU?$pair@G_W@std@@@2@V?$tuple@$$V@2@@?$_Default_allocator_traits@V?$allocator@U?$_Tree_node@U?$pair@$$CBU?$pair@G_W@std@@USCharacterInfomation@CGraphicFontTexture@@@std@@PAX@std@@@std@@@std@@SAXAAV?$allocator@U?$_Tree_node@U?$pair@$$CBU?$pair@G_W@std@@USCharacterInfomation@CGraphicFontTexture@@@std@@PAX@std@@@1@QAU?$pair@$$CBU?$pair@G_W@std@@USCharacterInfomation@CGraphicFontTexture@@@1@ABUpiecewise_construct_t@1@$$QAV?$tuple@ABU?$pair@G_W@std@@@1@$$QAV?$tuple@$$V@1@@Z ; std::_Default_allocator_traits<std::allocator<std::_Tree_node<std::pair<std::pair<unsigned short,wchar_t> const ,CGraphicFontTexture::SCharacterInfomation>,void *> > >::construct<std::pair<std::pair<unsigned short,wchar_t> const ,CGraphicFontTexture::SCharacterInfomation>,std::piecewise_construct_t const &,std::tuple<std::pair<unsigned short,wchar_t> const &>,std::tuple<> >
PUBLIC	??$_Construct_in_place@PAU?$_Tree_node@U?$pair@$$CBU?$pair@G_W@std@@USCharacterInfomation@CGraphicFontTexture@@@std@@PAX@std@@AAPAU12@@std@@YAXAAPAU?$_Tree_node@U?$pair@$$CBU?$pair@G_W@std@@USCharacterInfomation@CGraphicFontTexture@@@std@@PAX@0@0@Z ; std::_Construct_in_place<std::_Tree_node<std::pair<std::pair<unsigned short,wchar_t> const ,CGraphicFontTexture::SCharacterInfomation>,void *> *,std::_Tree_node<std::pair<std::pair<unsigned short,wchar_t> const ,CGraphicFontTexture::SCharacterInfomation>,void *> * &>
PUBLIC	??$_Copy_memmove@PAPAVCGraphicImageTexture@@PAPAV1@@std@@YAPAPAVCGraphicImageTexture@@PAPAV1@00@Z ; std::_Copy_memmove<CGraphicImageTexture * *,CGraphicImageTexture * *>
PUBLIC	??$_Construct_in_place@PAU?$_Tree_node@U?$pair@$$CBGPAUHFONT__@@@std@@PAX@std@@AAPAU12@@std@@YAXAAPAU?$_Tree_node@U?$pair@$$CBGPAUHFONT__@@@std@@PAX@0@0@Z ; std::_Construct_in_place<std::_Tree_node<std::pair<unsigned short const ,HFONT__ *>,void *> *,std::_Tree_node<std::pair<unsigned short const ,HFONT__ *>,void *> * &>
PUBLIC	??_7exception@std@@6B@				; std::exception::`vftable'
PUBLIC	??_C@_0BC@EOODALEL@Unknown?5exception@		; `string'
PUBLIC	??_7bad_alloc@std@@6B@				; std::bad_alloc::`vftable'
PUBLIC	??_7bad_array_new_length@std@@6B@		; std::bad_array_new_length::`vftable'
PUBLIC	??_C@_0BF@KINCDENJ@bad?5array?5new?5length@	; `string'
PUBLIC	__TI3?AVbad_array_new_length@std@@
PUBLIC	__CTA3?AVbad_array_new_length@std@@
PUBLIC	??_R0?AVbad_array_new_length@std@@@8		; std::bad_array_new_length `RTTI Type Descriptor'
PUBLIC	__CT??_R0?AVbad_array_new_length@std@@@8??0bad_array_new_length@std@@QAE@ABV01@@Z12
PUBLIC	??_R0?AVbad_alloc@std@@@8			; std::bad_alloc `RTTI Type Descriptor'
PUBLIC	__CT??_R0?AVbad_alloc@std@@@8??0bad_alloc@std@@QAE@ABV01@@Z12
PUBLIC	??_R0?AVexception@std@@@8			; std::exception `RTTI Type Descriptor'
PUBLIC	__CT??_R0?AVexception@std@@@8??0exception@std@@QAE@ABV01@@Z12
PUBLIC	??_C@_0BB@GCADKGJO@map?1set?5too?5long@		; `string'
PUBLIC	??_R4exception@std@@6B@				; std::exception::`RTTI Complete Object Locator'
PUBLIC	??_R3exception@std@@8				; std::exception::`RTTI Class Hierarchy Descriptor'
PUBLIC	??_R2exception@std@@8				; std::exception::`RTTI Base Class Array'
PUBLIC	??_R1A@?0A@EA@exception@std@@8			; std::exception::`RTTI Base Class Descriptor at (0,-1,0,64)'
PUBLIC	??_R4bad_alloc@std@@6B@				; std::bad_alloc::`RTTI Complete Object Locator'
PUBLIC	??_R3bad_alloc@std@@8				; std::bad_alloc::`RTTI Class Hierarchy Descriptor'
PUBLIC	??_R2bad_alloc@std@@8				; std::bad_alloc::`RTTI Base Class Array'
PUBLIC	??_R1A@?0A@EA@bad_alloc@std@@8			; std::bad_alloc::`RTTI Base Class Descriptor at (0,-1,0,64)'
PUBLIC	??_R4bad_array_new_length@std@@6B@		; std::bad_array_new_length::`RTTI Complete Object Locator'
PUBLIC	??_R3bad_array_new_length@std@@8		; std::bad_array_new_length::`RTTI Class Hierarchy Descriptor'
PUBLIC	??_R2bad_array_new_length@std@@8		; std::bad_array_new_length::`RTTI Base Class Array'
PUBLIC	??_R1A@?0A@EA@bad_array_new_length@std@@8	; std::bad_array_new_length::`RTTI Base Class Descriptor at (0,-1,0,64)'
PUBLIC	??_7CGraphicFontTexture@@6B@			; CGraphicFontTexture::`vftable'
PUBLIC	??_C@_0BA@FOIKENOD@vector?5too?5long@		; `string'
PUBLIC	??_R4CGraphicFontTexture@@6B@			; CGraphicFontTexture::`RTTI Complete Object Locator'
PUBLIC	??_R0?AVCGraphicFontTexture@@@8			; CGraphicFontTexture `RTTI Type Descriptor'
PUBLIC	??_R3CGraphicFontTexture@@8			; CGraphicFontTexture::`RTTI Class Hierarchy Descriptor'
PUBLIC	??_R2CGraphicFontTexture@@8			; CGraphicFontTexture::`RTTI Base Class Array'
PUBLIC	??_R1A@?0A@EA@CGraphicFontTexture@@8		; CGraphicFontTexture::`RTTI Base Class Descriptor at (0,-1,0,64)'
PUBLIC	??_R1A@?0A@EA@CGraphicTexture@@8		; CGraphicTexture::`RTTI Base Class Descriptor at (0,-1,0,64)'
PUBLIC	??_R0?AVCGraphicTexture@@@8			; CGraphicTexture `RTTI Type Descriptor'
PUBLIC	??_R3CGraphicTexture@@8				; CGraphicTexture::`RTTI Class Hierarchy Descriptor'
PUBLIC	??_R2CGraphicTexture@@8				; CGraphicTexture::`RTTI Base Class Array'
PUBLIC	??_R1A@?0A@EA@CGraphicBase@@8			; CGraphicBase::`RTTI Base Class Descriptor at (0,-1,0,64)'
PUBLIC	??_R0?AVCGraphicBase@@@8			; CGraphicBase `RTTI Type Descriptor'
PUBLIC	??_R3CGraphicBase@@8				; CGraphicBase::`RTTI Class Hierarchy Descriptor'
PUBLIC	??_R2CGraphicBase@@8				; CGraphicBase::`RTTI Base Class Array'
PUBLIC	__real@00000000
PUBLIC	__real@3f800000
EXTRN	??2@YAPAXI@Z:PROC				; operator new
EXTRN	??3@YAXPAXI@Z:PROC				; operator delete
EXTRN	__invalid_parameter_noinfo_noreturn:PROC
EXTRN	_memmove:PROC
EXTRN	_memset:PROC
EXTRN	_strcpy:PROC
EXTRN	_strncpy:PROC
EXTRN	__imp__CreateFontIndirectA@4:PROC
EXTRN	__imp__DeleteObject@4:PROC
EXTRN	__imp__GetCharABCWidthsFloatW@16:PROC
EXTRN	__imp__GetTextExtentPoint32W@16:PROC
EXTRN	__imp__SelectObject@8:PROC
EXTRN	__imp__SetBkColor@8:PROC
EXTRN	__imp__SetTextColor@8:PROC
EXTRN	__imp__TextOutW@20:PROC
EXTRN	_ceil:PROC
EXTRN	___std_exception_copy:PROC
EXTRN	___std_exception_destroy:PROC
EXTRN	??_Eexception@std@@UAEPAXI@Z:PROC		; std::exception::`vector deleting destructor'
EXTRN	??_Ebad_alloc@std@@UAEPAXI@Z:PROC		; std::bad_alloc::`vector deleting destructor'
EXTRN	??_Ebad_array_new_length@std@@UAEPAXI@Z:PROC	; std::bad_array_new_length::`vector deleting destructor'
EXTRN	?_Xlength_error@std@@YAXPBD@Z:PROC		; std::_Xlength_error
EXTRN	?GetD3DTexture@CGraphicTexture@@QBEPAUIDirect3DTexture8@@XZ:PROC ; CGraphicTexture::GetD3DTexture
EXTRN	??0CGraphicTexture@@IAE@XZ:PROC			; CGraphicTexture::CGraphicTexture
EXTRN	??1CGraphicTexture@@MAE@XZ:PROC			; CGraphicTexture::~CGraphicTexture
EXTRN	?Destroy@CGraphicTexture@@IAEXXZ:PROC		; CGraphicTexture::Destroy
EXTRN	?Initialize@CGraphicTexture@@IAEXXZ:PROC	; CGraphicTexture::Initialize
EXTRN	??0CGraphicImageTexture@@QAE@XZ:PROC		; CGraphicImageTexture::CGraphicImageTexture
EXTRN	?Create@CGraphicImageTexture@@QAE_NIIW4_D3DFORMAT@@K@Z:PROC ; CGraphicImageTexture::Create
EXTRN	?Lock@CGraphicImageTexture@@QAE_NPAHPAPAXH@Z:PROC ; CGraphicImageTexture::Lock
EXTRN	?Unlock@CGraphicImageTexture@@QAEXH@Z:PROC	; CGraphicImageTexture::Unlock
EXTRN	??0CGraphicDib@@QAE@XZ:PROC			; CGraphicDib::CGraphicDib
EXTRN	??1CGraphicDib@@UAE@XZ:PROC			; CGraphicDib::~CGraphicDib
EXTRN	?Destroy@CGraphicDib@@QAEXXZ:PROC		; CGraphicDib::Destroy
EXTRN	?Create@CGraphicDib@@QAE_NPAUHDC__@@HH@Z:PROC	; CGraphicDib::Create
EXTRN	?GetWidth@CGraphicDib@@QAEHXZ:PROC		; CGraphicDib::GetWidth
EXTRN	?GetHeight@CGraphicDib@@QAEHXZ:PROC		; CGraphicDib::GetHeight
EXTRN	?GetPointer@CGraphicDib@@QAEPAXXZ:PROC		; CGraphicDib::GetPointer
EXTRN	?GetDCHandle@CGraphicDib@@QAEPAUHDC__@@XZ:PROC	; CGraphicDib::GetDCHandle
EXTRN	??_ECGraphicFontTexture@@UAEPAXI@Z:PROC		; CGraphicFontTexture::`vector deleting destructor'
EXTRN	?GetCharsetFromCodePage@@YAHG@Z:PROC		; GetCharsetFromCodePage
EXTRN	?GetDefaultCodePage@@YAKXZ:PROC			; GetDefaultCodePage
EXTRN	?GetMaxTextureWidth@@YAKXZ:PROC			; GetMaxTextureWidth
EXTRN	?GetMaxTextureHeight@@YAKXZ:PROC		; GetMaxTextureHeight
EXTRN	@__security_check_cookie@4:PROC
EXTRN	__CxxThrowException@8:PROC
EXTRN	___CxxFrameHandler3:PROC
EXTRN	__ftol2_sse:PROC
EXTRN	??_7type_info@@6B@:QWORD			; type_info::`vftable'
EXTRN	?ms_hDC@CGraphicBase@@1PAUHDC__@@A:DWORD	; CGraphicBase::ms_hDC
EXTRN	___security_cookie:DWORD
EXTRN	__fltused:DWORD
;	COMDAT __real@3f800000
CONST	SEGMENT
__real@3f800000 DD 03f800000r			; 1
CONST	ENDS
;	COMDAT __real@00000000
CONST	SEGMENT
__real@00000000 DD 000000000r			; 0
CONST	ENDS
;	COMDAT ??_R2CGraphicBase@@8
rdata$r	SEGMENT
??_R2CGraphicBase@@8 DD FLAT:??_R1A@?0A@EA@CGraphicBase@@8 ; CGraphicBase::`RTTI Base Class Array'
rdata$r	ENDS
;	COMDAT ??_R3CGraphicBase@@8
rdata$r	SEGMENT
??_R3CGraphicBase@@8 DD 00H				; CGraphicBase::`RTTI Class Hierarchy Descriptor'
	DD	00H
	DD	01H
	DD	FLAT:??_R2CGraphicBase@@8
rdata$r	ENDS
;	COMDAT ??_R0?AVCGraphicBase@@@8
data$rs	SEGMENT
??_R0?AVCGraphicBase@@@8 DD FLAT:??_7type_info@@6B@	; CGraphicBase `RTTI Type Descriptor'
	DD	00H
	DB	'.?AVCGraphicBase@@', 00H
data$rs	ENDS
;	COMDAT ??_R1A@?0A@EA@CGraphicBase@@8
rdata$r	SEGMENT
??_R1A@?0A@EA@CGraphicBase@@8 DD FLAT:??_R0?AVCGraphicBase@@@8 ; CGraphicBase::`RTTI Base Class Descriptor at (0,-1,0,64)'
	DD	00H
	DD	00H
	DD	0ffffffffH
	DD	00H
	DD	040H
	DD	FLAT:??_R3CGraphicBase@@8
rdata$r	ENDS
;	COMDAT ??_R2CGraphicTexture@@8
rdata$r	SEGMENT
??_R2CGraphicTexture@@8 DD FLAT:??_R1A@?0A@EA@CGraphicTexture@@8 ; CGraphicTexture::`RTTI Base Class Array'
	DD	FLAT:??_R1A@?0A@EA@CGraphicBase@@8
rdata$r	ENDS
;	COMDAT ??_R3CGraphicTexture@@8
rdata$r	SEGMENT
??_R3CGraphicTexture@@8 DD 00H				; CGraphicTexture::`RTTI Class Hierarchy Descriptor'
	DD	00H
	DD	02H
	DD	FLAT:??_R2CGraphicTexture@@8
rdata$r	ENDS
;	COMDAT ??_R0?AVCGraphicTexture@@@8
data$rs	SEGMENT
??_R0?AVCGraphicTexture@@@8 DD FLAT:??_7type_info@@6B@	; CGraphicTexture `RTTI Type Descriptor'
	DD	00H
	DB	'.?AVCGraphicTexture@@', 00H
data$rs	ENDS
;	COMDAT ??_R1A@?0A@EA@CGraphicTexture@@8
rdata$r	SEGMENT
??_R1A@?0A@EA@CGraphicTexture@@8 DD FLAT:??_R0?AVCGraphicTexture@@@8 ; CGraphicTexture::`RTTI Base Class Descriptor at (0,-1,0,64)'
	DD	01H
	DD	00H
	DD	0ffffffffH
	DD	00H
	DD	040H
	DD	FLAT:??_R3CGraphicTexture@@8
rdata$r	ENDS
;	COMDAT ??_R1A@?0A@EA@CGraphicFontTexture@@8
rdata$r	SEGMENT
??_R1A@?0A@EA@CGraphicFontTexture@@8 DD FLAT:??_R0?AVCGraphicFontTexture@@@8 ; CGraphicFontTexture::`RTTI Base Class Descriptor at (0,-1,0,64)'
	DD	02H
	DD	00H
	DD	0ffffffffH
	DD	00H
	DD	040H
	DD	FLAT:??_R3CGraphicFontTexture@@8
rdata$r	ENDS
;	COMDAT ??_R2CGraphicFontTexture@@8
rdata$r	SEGMENT
??_R2CGraphicFontTexture@@8 DD FLAT:??_R1A@?0A@EA@CGraphicFontTexture@@8 ; CGraphicFontTexture::`RTTI Base Class Array'
	DD	FLAT:??_R1A@?0A@EA@CGraphicTexture@@8
	DD	FLAT:??_R1A@?0A@EA@CGraphicBase@@8
rdata$r	ENDS
;	COMDAT ??_R3CGraphicFontTexture@@8
rdata$r	SEGMENT
??_R3CGraphicFontTexture@@8 DD 00H			; CGraphicFontTexture::`RTTI Class Hierarchy Descriptor'
	DD	00H
	DD	03H
	DD	FLAT:??_R2CGraphicFontTexture@@8
rdata$r	ENDS
;	COMDAT ??_R0?AVCGraphicFontTexture@@@8
data$rs	SEGMENT
??_R0?AVCGraphicFontTexture@@@8 DD FLAT:??_7type_info@@6B@ ; CGraphicFontTexture `RTTI Type Descriptor'
	DD	00H
	DB	'.?AVCGraphicFontTexture@@', 00H
data$rs	ENDS
;	COMDAT ??_R4CGraphicFontTexture@@6B@
rdata$r	SEGMENT
??_R4CGraphicFontTexture@@6B@ DD 00H			; CGraphicFontTexture::`RTTI Complete Object Locator'
	DD	00H
	DD	00H
	DD	FLAT:??_R0?AVCGraphicFontTexture@@@8
	DD	FLAT:??_R3CGraphicFontTexture@@8
rdata$r	ENDS
;	COMDAT ??_C@_0BA@FOIKENOD@vector?5too?5long@
CONST	SEGMENT
??_C@_0BA@FOIKENOD@vector?5too?5long@ DB 'vector too long', 00H ; `string'
CONST	ENDS
;	COMDAT ??_7CGraphicFontTexture@@6B@
CONST	SEGMENT
??_7CGraphicFontTexture@@6B@ DD FLAT:??_R4CGraphicFontTexture@@6B@ ; CGraphicFontTexture::`vftable'
	DD	FLAT:??_ECGraphicFontTexture@@UAEPAXI@Z
	DD	FLAT:?IsEmpty@CGraphicFontTexture@@UBE_NXZ
CONST	ENDS
;	COMDAT ??_R1A@?0A@EA@bad_array_new_length@std@@8
rdata$r	SEGMENT
??_R1A@?0A@EA@bad_array_new_length@std@@8 DD FLAT:??_R0?AVbad_array_new_length@std@@@8 ; std::bad_array_new_length::`RTTI Base Class Descriptor at (0,-1,0,64)'
	DD	02H
	DD	00H
	DD	0ffffffffH
	DD	00H
	DD	040H
	DD	FLAT:??_R3bad_array_new_length@std@@8
rdata$r	ENDS
;	COMDAT ??_R2bad_array_new_length@std@@8
rdata$r	SEGMENT
??_R2bad_array_new_length@std@@8 DD FLAT:??_R1A@?0A@EA@bad_array_new_length@std@@8 ; std::bad_array_new_length::`RTTI Base Class Array'
	DD	FLAT:??_R1A@?0A@EA@bad_alloc@std@@8
	DD	FLAT:??_R1A@?0A@EA@exception@std@@8
rdata$r	ENDS
;	COMDAT ??_R3bad_array_new_length@std@@8
rdata$r	SEGMENT
??_R3bad_array_new_length@std@@8 DD 00H			; std::bad_array_new_length::`RTTI Class Hierarchy Descriptor'
	DD	00H
	DD	03H
	DD	FLAT:??_R2bad_array_new_length@std@@8
rdata$r	ENDS
;	COMDAT ??_R4bad_array_new_length@std@@6B@
rdata$r	SEGMENT
??_R4bad_array_new_length@std@@6B@ DD 00H		; std::bad_array_new_length::`RTTI Complete Object Locator'
	DD	00H
	DD	00H
	DD	FLAT:??_R0?AVbad_array_new_length@std@@@8
	DD	FLAT:??_R3bad_array_new_length@std@@8
rdata$r	ENDS
;	COMDAT ??_R1A@?0A@EA@bad_alloc@std@@8
rdata$r	SEGMENT
??_R1A@?0A@EA@bad_alloc@std@@8 DD FLAT:??_R0?AVbad_alloc@std@@@8 ; std::bad_alloc::`RTTI Base Class Descriptor at (0,-1,0,64)'
	DD	01H
	DD	00H
	DD	0ffffffffH
	DD	00H
	DD	040H
	DD	FLAT:??_R3bad_alloc@std@@8
rdata$r	ENDS
;	COMDAT ??_R2bad_alloc@std@@8
rdata$r	SEGMENT
??_R2bad_alloc@std@@8 DD FLAT:??_R1A@?0A@EA@bad_alloc@std@@8 ; std::bad_alloc::`RTTI Base Class Array'
	DD	FLAT:??_R1A@?0A@EA@exception@std@@8
rdata$r	ENDS
;	COMDAT ??_R3bad_alloc@std@@8
rdata$r	SEGMENT
??_R3bad_alloc@std@@8 DD 00H				; std::bad_alloc::`RTTI Class Hierarchy Descriptor'
	DD	00H
	DD	02H
	DD	FLAT:??_R2bad_alloc@std@@8
rdata$r	ENDS
;	COMDAT ??_R4bad_alloc@std@@6B@
rdata$r	SEGMENT
??_R4bad_alloc@std@@6B@ DD 00H				; std::bad_alloc::`RTTI Complete Object Locator'
	DD	00H
	DD	00H
	DD	FLAT:??_R0?AVbad_alloc@std@@@8
	DD	FLAT:??_R3bad_alloc@std@@8
rdata$r	ENDS
;	COMDAT ??_R1A@?0A@EA@exception@std@@8
rdata$r	SEGMENT
??_R1A@?0A@EA@exception@std@@8 DD FLAT:??_R0?AVexception@std@@@8 ; std::exception::`RTTI Base Class Descriptor at (0,-1,0,64)'
	DD	00H
	DD	00H
	DD	0ffffffffH
	DD	00H
	DD	040H
	DD	FLAT:??_R3exception@std@@8
rdata$r	ENDS
;	COMDAT ??_R2exception@std@@8
rdata$r	SEGMENT
??_R2exception@std@@8 DD FLAT:??_R1A@?0A@EA@exception@std@@8 ; std::exception::`RTTI Base Class Array'
rdata$r	ENDS
;	COMDAT ??_R3exception@std@@8
rdata$r	SEGMENT
??_R3exception@std@@8 DD 00H				; std::exception::`RTTI Class Hierarchy Descriptor'
	DD	00H
	DD	01H
	DD	FLAT:??_R2exception@std@@8
rdata$r	ENDS
;	COMDAT ??_R4exception@std@@6B@
rdata$r	SEGMENT
??_R4exception@std@@6B@ DD 00H				; std::exception::`RTTI Complete Object Locator'
	DD	00H
	DD	00H
	DD	FLAT:??_R0?AVexception@std@@@8
	DD	FLAT:??_R3exception@std@@8
rdata$r	ENDS
;	COMDAT ??_C@_0BB@GCADKGJO@map?1set?5too?5long@
CONST	SEGMENT
??_C@_0BB@GCADKGJO@map?1set?5too?5long@ DB 'map/set too long', 00H ; `string'
CONST	ENDS
;	COMDAT __CT??_R0?AVexception@std@@@8??0exception@std@@QAE@ABV01@@Z12
xdata$x	SEGMENT
__CT??_R0?AVexception@std@@@8??0exception@std@@QAE@ABV01@@Z12 DD 00H
	DD	FLAT:??_R0?AVexception@std@@@8
	DD	00H
	DD	0ffffffffH
	ORG $+4
	DD	0cH
	DD	FLAT:??0exception@std@@QAE@ABV01@@Z
xdata$x	ENDS
;	COMDAT ??_R0?AVexception@std@@@8
data$r	SEGMENT
??_R0?AVexception@std@@@8 DD FLAT:??_7type_info@@6B@	; std::exception `RTTI Type Descriptor'
	DD	00H
	DB	'.?AVexception@std@@', 00H
data$r	ENDS
;	COMDAT __CT??_R0?AVbad_alloc@std@@@8??0bad_alloc@std@@QAE@ABV01@@Z12
xdata$x	SEGMENT
__CT??_R0?AVbad_alloc@std@@@8??0bad_alloc@std@@QAE@ABV01@@Z12 DD 010H
	DD	FLAT:??_R0?AVbad_alloc@std@@@8
	DD	00H
	DD	0ffffffffH
	ORG $+4
	DD	0cH
	DD	FLAT:??0bad_alloc@std@@QAE@ABV01@@Z
xdata$x	ENDS
;	COMDAT ??_R0?AVbad_alloc@std@@@8
data$r	SEGMENT
??_R0?AVbad_alloc@std@@@8 DD FLAT:??_7type_info@@6B@	; std::bad_alloc `RTTI Type Descriptor'
	DD	00H
	DB	'.?AVbad_alloc@std@@', 00H
data$r	ENDS
;	COMDAT __CT??_R0?AVbad_array_new_length@std@@@8??0bad_array_new_length@std@@QAE@ABV01@@Z12
xdata$x	SEGMENT
__CT??_R0?AVbad_array_new_length@std@@@8??0bad_array_new_length@std@@QAE@ABV01@@Z12 DD 00H
	DD	FLAT:??_R0?AVbad_array_new_length@std@@@8
	DD	00H
	DD	0ffffffffH
	ORG $+4
	DD	0cH
	DD	FLAT:??0bad_array_new_length@std@@QAE@ABV01@@Z
xdata$x	ENDS
;	COMDAT ??_R0?AVbad_array_new_length@std@@@8
data$r	SEGMENT
??_R0?AVbad_array_new_length@std@@@8 DD FLAT:??_7type_info@@6B@ ; std::bad_array_new_length `RTTI Type Descriptor'
	DD	00H
	DB	'.?AVbad_array_new_length@std@@', 00H
data$r	ENDS
;	COMDAT __CTA3?AVbad_array_new_length@std@@
xdata$x	SEGMENT
__CTA3?AVbad_array_new_length@std@@ DD 03H
	DD	FLAT:__CT??_R0?AVbad_array_new_length@std@@@8??0bad_array_new_length@std@@QAE@ABV01@@Z12
	DD	FLAT:__CT??_R0?AVbad_alloc@std@@@8??0bad_alloc@std@@QAE@ABV01@@Z12
	DD	FLAT:__CT??_R0?AVexception@std@@@8??0exception@std@@QAE@ABV01@@Z12
xdata$x	ENDS
;	COMDAT __TI3?AVbad_array_new_length@std@@
xdata$x	SEGMENT
__TI3?AVbad_array_new_length@std@@ DD 00H
	DD	FLAT:??1bad_array_new_length@std@@UAE@XZ
	DD	00H
	DD	FLAT:__CTA3?AVbad_array_new_length@std@@
xdata$x	ENDS
;	COMDAT ??_C@_0BF@KINCDENJ@bad?5array?5new?5length@
CONST	SEGMENT
??_C@_0BF@KINCDENJ@bad?5array?5new?5length@ DB 'bad array new length', 00H ; `string'
CONST	ENDS
;	COMDAT ??_7bad_array_new_length@std@@6B@
CONST	SEGMENT
??_7bad_array_new_length@std@@6B@ DD FLAT:??_R4bad_array_new_length@std@@6B@ ; std::bad_array_new_length::`vftable'
	DD	FLAT:??_Ebad_array_new_length@std@@UAEPAXI@Z
	DD	FLAT:?what@exception@std@@UBEPBDXZ
CONST	ENDS
;	COMDAT ??_7bad_alloc@std@@6B@
CONST	SEGMENT
??_7bad_alloc@std@@6B@ DD FLAT:??_R4bad_alloc@std@@6B@	; std::bad_alloc::`vftable'
	DD	FLAT:??_Ebad_alloc@std@@UAEPAXI@Z
	DD	FLAT:?what@exception@std@@UBEPBDXZ
CONST	ENDS
;	COMDAT ??_C@_0BC@EOODALEL@Unknown?5exception@
CONST	SEGMENT
??_C@_0BC@EOODALEL@Unknown?5exception@ DB 'Unknown exception', 00H ; `string'
CONST	ENDS
;	COMDAT ??_7exception@std@@6B@
CONST	SEGMENT
??_7exception@std@@6B@ DD FLAT:??_R4exception@std@@6B@	; std::exception::`vftable'
	DD	FLAT:??_Eexception@std@@UAEPAXI@Z
	DD	FLAT:?what@exception@std@@UBEPBDXZ
CONST	ENDS
;	COMDAT xdata$x
xdata$x	SEGMENT
__unwindtable$??$?0U?$pair@$$CBGPAUHFONT__@@@std@@@?$_Tree_temp_node@V?$allocator@U?$_Tree_node@U?$pair@$$CBGPAUHFONT__@@@std@@PAX@std@@@std@@@std@@QAE@AAV?$allocator@U?$_Tree_node@U?$pair@$$CBGPAUHFONT__@@@std@@PAX@std@@@1@PAU?$_Tree_node@U?$pair@$$CBGPAUHFONT__@@@std@@PAX@1@$$QAU?$pair@$$CBGPAUHFONT__@@@1@@Z DD 0ffffffffH
	DD	FLAT:__unwindfunclet$??$?0U?$pair@$$CBGPAUHFONT__@@@std@@@?$_Tree_temp_node@V?$allocator@U?$_Tree_node@U?$pair@$$CBGPAUHFONT__@@@std@@PAX@std@@@std@@@std@@QAE@AAV?$allocator@U?$_Tree_node@U?$pair@$$CBGPAUHFONT__@@@std@@PAX@std@@@1@PAU?$_Tree_node@U?$pair@$$CBGPAUHFONT__@@@std@@PAX@1@$$QAU?$pair@$$CBGPAUHFONT__@@@1@@Z$1
__ehfuncinfo$??$?0U?$pair@$$CBGPAUHFONT__@@@std@@@?$_Tree_temp_node@V?$allocator@U?$_Tree_node@U?$pair@$$CBGPAUHFONT__@@@std@@PAX@std@@@std@@@std@@QAE@AAV?$allocator@U?$_Tree_node@U?$pair@$$CBGPAUHFONT__@@@std@@PAX@std@@@1@PAU?$_Tree_node@U?$pair@$$CBGPAUHFONT__@@@std@@PAX@1@$$QAU?$pair@$$CBGPAUHFONT__@@@1@@Z DD 019930522H
	DD	01H
	DD	FLAT:__unwindtable$??$?0U?$pair@$$CBGPAUHFONT__@@@std@@@?$_Tree_temp_node@V?$allocator@U?$_Tree_node@U?$pair@$$CBGPAUHFONT__@@@std@@PAX@std@@@std@@@std@@QAE@AAV?$allocator@U?$_Tree_node@U?$pair@$$CBGPAUHFONT__@@@std@@PAX@std@@@1@PAU?$_Tree_node@U?$pair@$$CBGPAUHFONT__@@@std@@PAX@1@$$QAU?$pair@$$CBGPAUHFONT__@@@1@@Z
	DD	2 DUP(00H)
	DD	2 DUP(00H)
	DD	00H
	DD	01H
xdata$x	ENDS
;	COMDAT xdata$x
xdata$x	SEGMENT
__unwindtable$??$?0ABUpiecewise_construct_t@std@@V?$tuple@ABU?$pair@G_W@std@@@1@V?$tuple@$$V@1@@?$_Tree_temp_node@V?$allocator@U?$_Tree_node@U?$pair@$$CBU?$pair@G_W@std@@USCharacterInfomation@CGraphicFontTexture@@@std@@PAX@std@@@std@@@std@@QAE@AAV?$allocator@U?$_Tree_node@U?$pair@$$CBU?$pair@G_W@std@@USCharacterInfomation@CGraphicFontTexture@@@std@@PAX@std@@@1@PAU?$_Tree_node@U?$pair@$$CBU?$pair@G_W@std@@USCharacterInfomation@CGraphicFontTexture@@@std@@PAX@1@ABUpiecewise_construct_t@1@$$QAV?$tuple@ABU?$pair@G_W@std@@@1@$$QAV?$tuple@$$V@1@@Z DD 0ffffffffH
	DD	FLAT:__unwindfunclet$??$?0ABUpiecewise_construct_t@std@@V?$tuple@ABU?$pair@G_W@std@@@1@V?$tuple@$$V@1@@?$_Tree_temp_node@V?$allocator@U?$_Tree_node@U?$pair@$$CBU?$pair@G_W@std@@USCharacterInfomation@CGraphicFontTexture@@@std@@PAX@std@@@std@@@std@@QAE@AAV?$allocator@U?$_Tree_node@U?$pair@$$CBU?$pair@G_W@std@@USCharacterInfomation@CGraphicFontTexture@@@std@@PAX@std@@@1@PAU?$_Tree_node@U?$pair@$$CBU?$pair@G_W@std@@USCharacterInfomation@CGraphicFontTexture@@@std@@PAX@1@ABUpiecewise_construct_t@1@$$QAV?$tuple@ABU?$pair@G_W@std@@@1@$$QAV?$tuple@$$V@1@@Z$1
	DD	0ffffffffH
	DD	FLAT:__unwindfunclet$??$?0ABUpiecewise_construct_t@std@@V?$tuple@ABU?$pair@G_W@std@@@1@V?$tuple@$$V@1@@?$_Tree_temp_node@V?$allocator@U?$_Tree_node@U?$pair@$$CBU?$pair@G_W@std@@USCharacterInfomation@CGraphicFontTexture@@@std@@PAX@std@@@std@@@std@@QAE@AAV?$allocator@U?$_Tree_node@U?$pair@$$CBU?$pair@G_W@std@@USCharacterInfomation@CGraphicFontTexture@@@std@@PAX@std@@@1@PAU?$_Tree_node@U?$pair@$$CBU?$pair@G_W@std@@USCharacterInfomation@CGraphicFontTexture@@@std@@PAX@1@ABUpiecewise_construct_t@1@$$QAV?$tuple@ABU?$pair@G_W@std@@@1@$$QAV?$tuple@$$V@1@@Z$0
__ehfuncinfo$??$?0ABUpiecewise_construct_t@std@@V?$tuple@ABU?$pair@G_W@std@@@1@V?$tuple@$$V@1@@?$_Tree_temp_node@V?$allocator@U?$_Tree_node@U?$pair@$$CBU?$pair@G_W@std@@USCharacterInfomation@CGraphicFontTexture@@@std@@PAX@std@@@std@@@std@@QAE@AAV?$allocator@U?$_Tree_node@U?$pair@$$CBU?$pair@G_W@std@@USCharacterInfomation@CGraphicFontTexture@@@std@@PAX@std@@@1@PAU?$_Tree_node@U?$pair@$$CBU?$pair@G_W@std@@USCharacterInfomation@CGraphicFontTexture@@@std@@PAX@1@ABUpiecewise_construct_t@1@$$QAV?$tuple@ABU?$pair@G_W@std@@@1@$$QAV?$tuple@$$V@1@@Z DD 019930522H
	DD	02H
	DD	FLAT:__unwindtable$??$?0ABUpiecewise_construct_t@std@@V?$tuple@ABU?$pair@G_W@std@@@1@V?$tuple@$$V@1@@?$_Tree_temp_node@V?$allocator@U?$_Tree_node@U?$pair@$$CBU?$pair@G_W@std@@USCharacterInfomation@CGraphicFontTexture@@@std@@PAX@std@@@std@@@std@@QAE@AAV?$allocator@U?$_Tree_node@U?$pair@$$CBU?$pair@G_W@std@@USCharacterInfomation@CGraphicFontTexture@@@std@@PAX@std@@@1@PAU?$_Tree_node@U?$pair@$$CBU?$pair@G_W@std@@USCharacterInfomation@CGraphicFontTexture@@@std@@PAX@1@ABUpiecewise_construct_t@1@$$QAV?$tuple@ABU?$pair@G_W@std@@@1@$$QAV?$tuple@$$V@1@@Z
	DD	2 DUP(00H)
	DD	2 DUP(00H)
	DD	00H
	DD	01H
xdata$x	ENDS
;	COMDAT xdata$x
xdata$x	SEGMENT
__catchsym$??$_Emplace_reallocate@ABQAVCGraphicImageTexture@@@?$vector@PAVCGraphicImageTexture@@V?$allocator@PAVCGraphicImageTexture@@@std@@@std@@QAEPAPAVCGraphicImageTexture@@QAPAV2@ABQAV2@@Z$32 DD 040H
	DD	00H
	DD	00H
	DD	FLAT:__catch$??$_Emplace_reallocate@ABQAVCGraphicImageTexture@@@?$vector@PAVCGraphicImageTexture@@V?$allocator@PAVCGraphicImageTexture@@@std@@@std@@QAEPAPAVCGraphicImageTexture@@QAPAV2@ABQAV2@@Z$0
__unwindtable$??$_Emplace_reallocate@ABQAVCGraphicImageTexture@@@?$vector@PAVCGraphicImageTexture@@V?$allocator@PAVCGraphicImageTexture@@@std@@@std@@QAEPAPAVCGraphicImageTexture@@QAPAV2@ABQAV2@@Z DD 0ffffffffH
	DD	00H
	DD	0ffffffffH
	DD	00H
__tryblocktable$??$_Emplace_reallocate@ABQAVCGraphicImageTexture@@@?$vector@PAVCGraphicImageTexture@@V?$allocator@PAVCGraphicImageTexture@@@std@@@std@@QAEPAPAVCGraphicImageTexture@@QAPAV2@ABQAV2@@Z DD 00H
	DD	00H
	DD	01H
	DD	01H
	DD	FLAT:__catchsym$??$_Emplace_reallocate@ABQAVCGraphicImageTexture@@@?$vector@PAVCGraphicImageTexture@@V?$allocator@PAVCGraphicImageTexture@@@std@@@std@@QAEPAPAVCGraphicImageTexture@@QAPAV2@ABQAV2@@Z$32
__ehfuncinfo$??$_Emplace_reallocate@ABQAVCGraphicImageTexture@@@?$vector@PAVCGraphicImageTexture@@V?$allocator@PAVCGraphicImageTexture@@@std@@@std@@QAEPAPAVCGraphicImageTexture@@QAPAV2@ABQAV2@@Z DD 019930522H
	DD	02H
	DD	FLAT:__unwindtable$??$_Emplace_reallocate@ABQAVCGraphicImageTexture@@@?$vector@PAVCGraphicImageTexture@@V?$allocator@PAVCGraphicImageTexture@@@std@@@std@@QAEPAPAVCGraphicImageTexture@@QAPAV2@ABQAV2@@Z
	DD	01H
	DD	FLAT:__tryblocktable$??$_Emplace_reallocate@ABQAVCGraphicImageTexture@@@?$vector@PAVCGraphicImageTexture@@V?$allocator@PAVCGraphicImageTexture@@@std@@@std@@QAEPAPAVCGraphicImageTexture@@QAPAV2@ABQAV2@@Z
	DD	2 DUP(00H)
	DD	00H
	DD	01H
xdata$x	ENDS
;	COMDAT xdata$x
xdata$x	SEGMENT
__unwindtable$?AppendTexture@CGraphicFontTexture@@IAE_NXZ DD 0ffffffffH
	DD	FLAT:__unwindfunclet$?AppendTexture@CGraphicFontTexture@@IAE_NXZ$0
__ehfuncinfo$?AppendTexture@CGraphicFontTexture@@IAE_NXZ DD 019930522H
	DD	01H
	DD	FLAT:__unwindtable$?AppendTexture@CGraphicFontTexture@@IAE_NXZ
	DD	2 DUP(00H)
	DD	2 DUP(00H)
	DD	00H
	DD	01H
xdata$x	ENDS
;	COMDAT xdata$x
xdata$x	SEGMENT
__ehfuncinfo$??1CGraphicFontTexture@@UAE@XZ DD 019930522H
	DD	00H
	DD	00H
	DD	2 DUP(00H)
	DD	2 DUP(00H)
	DD	00H
	DD	05H
xdata$x	ENDS
;	COMDAT xdata$x
xdata$x	SEGMENT
__ehfuncinfo$??0CGraphicFontTexture@@QAE@XZ DD 019930522H
	DD	05H
	DD	FLAT:__unwindtable$??0CGraphicFontTexture@@QAE@XZ
	DD	2 DUP(00H)
	DD	2 DUP(00H)
	DD	00H
	DD	01H
__unwindtable$??0CGraphicFontTexture@@QAE@XZ DD 0ffffffffH
	DD	FLAT:__unwindfunclet$??0CGraphicFontTexture@@QAE@XZ$0
	DD	00H
	DD	FLAT:__unwindfunclet$??0CGraphicFontTexture@@QAE@XZ$1
	DD	01H
	DD	FLAT:__unwindfunclet$??0CGraphicFontTexture@@QAE@XZ$2
	DD	02H
	DD	FLAT:__unwindfunclet$??0CGraphicFontTexture@@QAE@XZ$3
	DD	03H
	DD	FLAT:__unwindfunclet$??0CGraphicFontTexture@@QAE@XZ$4
xdata$x	ENDS
;	COMDAT xdata$x
xdata$x	SEGMENT
__ehfuncinfo$??$_Deallocate@$07$0A@@std@@YAXPAXI@Z DD 019930522H
	DD	00H
	DD	00H
	DD	2 DUP(00H)
	DD	2 DUP(00H)
	DD	00H
	DD	05H
xdata$x	ENDS
; Function compile flags: /Odspy
; File C:\Program Files (x86)\Microsoft Visual Studio\2019\Community\VC\Tools\MSVC\14.28.29333\include\xmemory
; File C:\Program Files (x86)\Microsoft Visual Studio\2019\Community\VC\Tools\MSVC\14.28.29333\include\xstddef
; File C:\Program Files (x86)\Microsoft Visual Studio\2019\Community\VC\Tools\MSVC\14.28.29333\include\vcruntime_new.h
; File C:\Program Files (x86)\Microsoft Visual Studio\2019\Community\VC\Tools\MSVC\14.28.29333\include\type_traits
; File C:\Program Files (x86)\Microsoft Visual Studio\2019\Community\VC\Tools\MSVC\14.28.29333\include\xmemory
;	COMDAT ??$_Construct_in_place@PAU?$_Tree_node@U?$pair@$$CBGPAUHFONT__@@@std@@PAX@std@@AAPAU12@@std@@YAXAAPAU?$_Tree_node@U?$pair@$$CBGPAUHFONT__@@@std@@PAX@0@0@Z
_TEXT	SEGMENT
$T1 = -12						; size = 4
$T2 = -8						; size = 4
$T3 = -4						; size = 4
__Obj$ = 8						; size = 4
_<_Args_0>$ = 12					; size = 4
??$_Construct_in_place@PAU?$_Tree_node@U?$pair@$$CBGPAUHFONT__@@@std@@PAX@std@@AAPAU12@@std@@YAXAAPAU?$_Tree_node@U?$pair@$$CBGPAUHFONT__@@@std@@PAX@0@0@Z PROC ; std::_Construct_in_place<std::_Tree_node<std::pair<unsigned short const ,HFONT__ *>,void *> *,std::_Tree_node<std::pair<unsigned short const ,HFONT__ *>,void *> * &>, COMDAT

; 228  : void _Construct_in_place(_Ty& _Obj, _Types&&... _Args) noexcept(is_nothrow_constructible_v<_Ty, _Types...>) {

  00000	55		 push	 ebp
  00001	8b ec		 mov	 ebp, esp
  00003	83 ec 0c	 sub	 esp, 12			; 0000000cH
; File C:\Program Files (x86)\Microsoft Visual Studio\2019\Community\VC\Tools\MSVC\14.28.29333\include\xstddef

; 275  :     return __builtin_addressof(_Val);

  00006	8b 45 08	 mov	 eax, DWORD PTR __Obj$[ebp]
  00009	89 45 fc	 mov	 DWORD PTR $T3[ebp], eax
; File C:\Program Files (x86)\Microsoft Visual Studio\2019\Community\VC\Tools\MSVC\14.28.29333\include\vcruntime_new.h

; 169  :         return _Where;

  0000c	8b 45 fc	 mov	 eax, DWORD PTR $T3[ebp]
  0000f	89 45 f8	 mov	 DWORD PTR $T2[ebp], eax
; File C:\Program Files (x86)\Microsoft Visual Studio\2019\Community\VC\Tools\MSVC\14.28.29333\include\type_traits

; 1443 :     return static_cast<_Ty&&>(_Arg);

  00012	8b 45 0c	 mov	 eax, DWORD PTR _<_Args_0>$[ebp]
  00015	89 45 f4	 mov	 DWORD PTR $T1[ebp], eax
; File C:\Program Files (x86)\Microsoft Visual Studio\2019\Community\VC\Tools\MSVC\14.28.29333\include\xmemory

; 229  :     ::new (const_cast<void*>(static_cast<const volatile void*>(_STD addressof(_Obj))))

  00018	8b 45 f8	 mov	 eax, DWORD PTR $T2[ebp]
  0001b	8b 4d f4	 mov	 ecx, DWORD PTR $T1[ebp]
  0001e	8b 09		 mov	 ecx, DWORD PTR [ecx]
  00020	89 08		 mov	 DWORD PTR [eax], ecx

; 230  :         _Ty(_STD forward<_Types>(_Args)...);
; 231  : }

  00022	c9		 leave
  00023	c3		 ret	 0
??$_Construct_in_place@PAU?$_Tree_node@U?$pair@$$CBGPAUHFONT__@@@std@@PAX@std@@AAPAU12@@std@@YAXAAPAU?$_Tree_node@U?$pair@$$CBGPAUHFONT__@@@std@@PAX@0@0@Z ENDP ; std::_Construct_in_place<std::_Tree_node<std::pair<unsigned short const ,HFONT__ *>,void *> *,std::_Tree_node<std::pair<unsigned short const ,HFONT__ *>,void *> * &>
_TEXT	ENDS
; Function compile flags: /Odspy
; File C:\Program Files (x86)\Microsoft Visual Studio\2019\Community\VC\Tools\MSVC\14.28.29333\include\xutility
;	COMDAT ??$_Copy_memmove@PAPAVCGraphicImageTexture@@PAPAV1@@std@@YAPAPAVCGraphicImageTexture@@PAPAV1@00@Z
_TEXT	SEGMENT
__Last_ch$ = -16					; size = 4
__Count$ = -12						; size = 4
__Dest_ch$ = -8						; size = 4
__First_ch$ = -4					; size = 4
__First$ = 8						; size = 4
__Last$ = 12						; size = 4
__Dest$ = 16						; size = 4
??$_Copy_memmove@PAPAVCGraphicImageTexture@@PAPAV1@@std@@YAPAPAVCGraphicImageTexture@@PAPAV1@00@Z PROC ; std::_Copy_memmove<CGraphicImageTexture * *,CGraphicImageTexture * *>, COMDAT

; 4360 : _OutIt _Copy_memmove(_InIt _First, _InIt _Last, _OutIt _Dest) {

  00000	55		 push	 ebp
  00001	8b ec		 mov	 ebp, esp
  00003	83 ec 10	 sub	 esp, 16			; 00000010H

; 4361 :     const char* const _First_ch = const_cast<const char*>(reinterpret_cast<const volatile char*>(_First));

  00006	8b 45 08	 mov	 eax, DWORD PTR __First$[ebp]
  00009	89 45 fc	 mov	 DWORD PTR __First_ch$[ebp], eax

; 4362 :     const char* const _Last_ch  = const_cast<const char*>(reinterpret_cast<const volatile char*>(_Last));

  0000c	8b 45 0c	 mov	 eax, DWORD PTR __Last$[ebp]
  0000f	89 45 f0	 mov	 DWORD PTR __Last_ch$[ebp], eax

; 4363 :     char* const _Dest_ch        = const_cast<char*>(reinterpret_cast<volatile char*>(_Dest));

  00012	8b 45 10	 mov	 eax, DWORD PTR __Dest$[ebp]
  00015	89 45 f8	 mov	 DWORD PTR __Dest_ch$[ebp], eax

; 4364 :     const auto _Count           = static_cast<size_t>(_Last_ch - _First_ch);

  00018	8b 45 f0	 mov	 eax, DWORD PTR __Last_ch$[ebp]
  0001b	2b 45 fc	 sub	 eax, DWORD PTR __First_ch$[ebp]
  0001e	89 45 f4	 mov	 DWORD PTR __Count$[ebp], eax

; 4365 :     _CSTD memmove(_Dest_ch, _First_ch, _Count);

  00021	ff 75 f4	 push	 DWORD PTR __Count$[ebp]
  00024	ff 75 fc	 push	 DWORD PTR __First_ch$[ebp]
  00027	ff 75 f8	 push	 DWORD PTR __Dest_ch$[ebp]
  0002a	e8 00 00 00 00	 call	 _memmove
  0002f	83 c4 0c	 add	 esp, 12			; 0000000cH

; 4366 :     return reinterpret_cast<_OutIt>(_Dest_ch + _Count);

  00032	8b 45 f8	 mov	 eax, DWORD PTR __Dest_ch$[ebp]
  00035	03 45 f4	 add	 eax, DWORD PTR __Count$[ebp]

; 4367 : }

  00038	c9		 leave
  00039	c3		 ret	 0
??$_Copy_memmove@PAPAVCGraphicImageTexture@@PAPAV1@@std@@YAPAPAVCGraphicImageTexture@@PAPAV1@00@Z ENDP ; std::_Copy_memmove<CGraphicImageTexture * *,CGraphicImageTexture * *>
_TEXT	ENDS
; Function compile flags: /Odspy
; File C:\Program Files (x86)\Microsoft Visual Studio\2019\Community\VC\Tools\MSVC\14.28.29333\include\xmemory
; File C:\Program Files (x86)\Microsoft Visual Studio\2019\Community\VC\Tools\MSVC\14.28.29333\include\xstddef
; File C:\Program Files (x86)\Microsoft Visual Studio\2019\Community\VC\Tools\MSVC\14.28.29333\include\vcruntime_new.h
; File C:\Program Files (x86)\Microsoft Visual Studio\2019\Community\VC\Tools\MSVC\14.28.29333\include\type_traits
; File C:\Program Files (x86)\Microsoft Visual Studio\2019\Community\VC\Tools\MSVC\14.28.29333\include\xmemory
;	COMDAT ??$_Construct_in_place@PAU?$_Tree_node@U?$pair@$$CBU?$pair@G_W@std@@USCharacterInfomation@CGraphicFontTexture@@@std@@PAX@std@@AAPAU12@@std@@YAXAAPAU?$_Tree_node@U?$pair@$$CBU?$pair@G_W@std@@USCharacterInfomation@CGraphicFontTexture@@@std@@PAX@0@0@Z
_TEXT	SEGMENT
$T1 = -12						; size = 4
$T2 = -8						; size = 4
$T3 = -4						; size = 4
__Obj$ = 8						; size = 4
_<_Args_0>$ = 12					; size = 4
??$_Construct_in_place@PAU?$_Tree_node@U?$pair@$$CBU?$pair@G_W@std@@USCharacterInfomation@CGraphicFontTexture@@@std@@PAX@std@@AAPAU12@@std@@YAXAAPAU?$_Tree_node@U?$pair@$$CBU?$pair@G_W@std@@USCharacterInfomation@CGraphicFontTexture@@@std@@PAX@0@0@Z PROC ; std::_Construct_in_place<std::_Tree_node<std::pair<std::pair<unsigned short,wchar_t> const ,CGraphicFontTexture::SCharacterInfomation>,void *> *,std::_Tree_node<std::pair<std::pair<unsigned short,wchar_t> const ,CGraphicFontTexture::SCharacterInfomation>,void *> * &>, COMDAT

; 228  : void _Construct_in_place(_Ty& _Obj, _Types&&... _Args) noexcept(is_nothrow_constructible_v<_Ty, _Types...>) {

  00000	55		 push	 ebp
  00001	8b ec		 mov	 ebp, esp
  00003	83 ec 0c	 sub	 esp, 12			; 0000000cH
; File C:\Program Files (x86)\Microsoft Visual Studio\2019\Community\VC\Tools\MSVC\14.28.29333\include\xstddef

; 275  :     return __builtin_addressof(_Val);

  00006	8b 45 08	 mov	 eax, DWORD PTR __Obj$[ebp]
  00009	89 45 fc	 mov	 DWORD PTR $T3[ebp], eax
; File C:\Program Files (x86)\Microsoft Visual Studio\2019\Community\VC\Tools\MSVC\14.28.29333\include\vcruntime_new.h

; 169  :         return _Where;

  0000c	8b 45 fc	 mov	 eax, DWORD PTR $T3[ebp]
  0000f	89 45 f8	 mov	 DWORD PTR $T2[ebp], eax
; File C:\Program Files (x86)\Microsoft Visual Studio\2019\Community\VC\Tools\MSVC\14.28.29333\include\type_traits

; 1443 :     return static_cast<_Ty&&>(_Arg);

  00012	8b 45 0c	 mov	 eax, DWORD PTR _<_Args_0>$[ebp]
  00015	89 45 f4	 mov	 DWORD PTR $T1[ebp], eax
; File C:\Program Files (x86)\Microsoft Visual Studio\2019\Community\VC\Tools\MSVC\14.28.29333\include\xmemory

; 229  :     ::new (const_cast<void*>(static_cast<const volatile void*>(_STD addressof(_Obj))))

  00018	8b 45 f8	 mov	 eax, DWORD PTR $T2[ebp]
  0001b	8b 4d f4	 mov	 ecx, DWORD PTR $T1[ebp]
  0001e	8b 09		 mov	 ecx, DWORD PTR [ecx]
  00020	89 08		 mov	 DWORD PTR [eax], ecx

; 230  :         _Ty(_STD forward<_Types>(_Args)...);
; 231  : }

  00022	c9		 leave
  00023	c3		 ret	 0
??$_Construct_in_place@PAU?$_Tree_node@U?$pair@$$CBU?$pair@G_W@std@@USCharacterInfomation@CGraphicFontTexture@@@std@@PAX@std@@AAPAU12@@std@@YAXAAPAU?$_Tree_node@U?$pair@$$CBU?$pair@G_W@std@@USCharacterInfomation@CGraphicFontTexture@@@std@@PAX@0@0@Z ENDP ; std::_Construct_in_place<std::_Tree_node<std::pair<std::pair<unsigned short,wchar_t> const ,CGraphicFontTexture::SCharacterInfomation>,void *> *,std::_Tree_node<std::pair<std::pair<unsigned short,wchar_t> const ,CGraphicFontTexture::SCharacterInfomation>,void *> * &>
_TEXT	ENDS
; Function compile flags: /Odspy
; File C:\Program Files (x86)\Microsoft Visual Studio\2019\Community\VC\Tools\MSVC\14.28.29333\include\xmemory
; File C:\Program Files (x86)\Microsoft Visual Studio\2019\Community\VC\Tools\MSVC\14.28.29333\include\vcruntime_new.h
; File C:\Program Files (x86)\Microsoft Visual Studio\2019\Community\VC\Tools\MSVC\14.28.29333\include\type_traits
; File C:\Program Files (x86)\Microsoft Visual Studio\2019\Community\VC\Tools\MSVC\14.28.29333\include\xmemory
; File C:\Program Files (x86)\Microsoft Visual Studio\2019\Community\VC\Tools\MSVC\14.28.29333\include\type_traits
; File C:\Program Files (x86)\Microsoft Visual Studio\2019\Community\VC\Tools\MSVC\14.28.29333\include\xmemory
; File D:\Metin2 Server Files\mainline\SRC_2014\Metin2Client\EterLib\GrpFontTexture.cpp
; File C:\Program Files (x86)\Microsoft Visual Studio\2019\Community\VC\Tools\MSVC\14.28.29333\include\type_traits
; File C:\Program Files (x86)\Microsoft Visual Studio\2019\Community\VC\Tools\MSVC\14.28.29333\include\xmemory
; File C:\Program Files (x86)\Microsoft Visual Studio\2019\Community\VC\Tools\MSVC\14.28.29333\include\tuple
; File C:\Program Files (x86)\Microsoft Visual Studio\2019\Community\VC\Tools\MSVC\14.28.29333\include\type_traits
; File C:\Program Files (x86)\Microsoft Visual Studio\2019\Community\VC\Tools\MSVC\14.28.29333\include\tuple
; File C:\Program Files (x86)\Microsoft Visual Studio\2019\Community\VC\Tools\MSVC\14.28.29333\include\xmemory
;	COMDAT ??$construct@U?$pair@$$CBU?$pair@G_W@std@@USCharacterInfomation@CGraphicFontTexture@@@std@@ABUpiecewise_construct_t@2@V?$tuple@ABU?$pair@G_W@std@@@2@V?$tuple@$$V@2@@?$_Default_allocator_traits@V?$allocator@U?$_Tree_node@U?$pair@$$CBU?$pair@G_W@std@@USCharacterInfomation@CGraphicFontTexture@@@std@@PAX@std@@@std@@@std@@SAXAAV?$allocator@U?$_Tree_node@U?$pair@$$CBU?$pair@G_W@std@@USCharacterInfomation@CGraphicFontTexture@@@std@@PAX@std@@@1@QAU?$pair@$$CBU?$pair@G_W@std@@USCharacterInfomation@CGraphicFontTexture@@@1@ABUpiecewise_construct_t@1@$$QAV?$tuple@ABU?$pair@G_W@std@@@1@$$QAV?$tuple@$$V@1@@Z
_TEXT	SEGMENT
_this$ = -52						; size = 4
$T1 = -48						; size = 4
$T2 = -44						; size = 4
$T3 = -40						; size = 4
$T4 = -36						; size = 4
$T5 = -32						; size = 4
_this$ = -28						; size = 4
$T6 = -24						; size = 4
$T7 = -20						; size = 4
___formal$ = -16					; size = 1
___formal$ = -12					; size = 1
___formal$ = -8						; size = 1
$T8 = -3						; size = 1
$T9 = -2						; size = 1
$T10 = -1						; size = 1
___formal$ = 8						; size = 4
__Ptr$ = 12						; size = 4
_<_Args_0>$ = 16					; size = 4
_<_Args_1>$ = 20					; size = 4
_<_Args_2>$ = 24					; size = 4
??$construct@U?$pair@$$CBU?$pair@G_W@std@@USCharacterInfomation@CGraphicFontTexture@@@std@@ABUpiecewise_construct_t@2@V?$tuple@ABU?$pair@G_W@std@@@2@V?$tuple@$$V@2@@?$_Default_allocator_traits@V?$allocator@U?$_Tree_node@U?$pair@$$CBU?$pair@G_W@std@@USCharacterInfomation@CGraphicFontTexture@@@std@@PAX@std@@@std@@@std@@SAXAAV?$allocator@U?$_Tree_node@U?$pair@$$CBU?$pair@G_W@std@@USCharacterInfomation@CGraphicFontTexture@@@std@@PAX@std@@@1@QAU?$pair@$$CBU?$pair@G_W@std@@USCharacterInfomation@CGraphicFontTexture@@@1@ABUpiecewise_construct_t@1@$$QAV?$tuple@ABU?$pair@G_W@std@@@1@$$QAV?$tuple@$$V@1@@Z PROC ; std::_Default_allocator_traits<std::allocator<std::_Tree_node<std::pair<std::pair<unsigned short,wchar_t> const ,CGraphicFontTexture::SCharacterInfomation>,void *> > >::construct<std::pair<std::pair<unsigned short,wchar_t> const ,CGraphicFontTexture::SCharacterInfomation>,std::piecewise_construct_t const &,std::tuple<std::pair<unsigned short,wchar_t> const &>,std::tuple<> >, COMDAT

; 700  :     static void construct(_Alloc&, _Objty* const _Ptr, _Types&&... _Args) {

  00000	55		 push	 ebp
  00001	8b ec		 mov	 ebp, esp
  00003	83 ec 34	 sub	 esp, 52			; 00000034H
  00006	57		 push	 edi
; File C:\Program Files (x86)\Microsoft Visual Studio\2019\Community\VC\Tools\MSVC\14.28.29333\include\vcruntime_new.h

; 169  :         return _Where;

  00007	8b 45 0c	 mov	 eax, DWORD PTR __Ptr$[ebp]
  0000a	89 45 ec	 mov	 DWORD PTR $T7[ebp], eax
; File C:\Program Files (x86)\Microsoft Visual Studio\2019\Community\VC\Tools\MSVC\14.28.29333\include\type_traits

; 1443 :     return static_cast<_Ty&&>(_Arg);

  0000d	8b 45 18	 mov	 eax, DWORD PTR _<_Args_2>$[ebp]
  00010	89 45 d0	 mov	 DWORD PTR $T1[ebp], eax
; File C:\Program Files (x86)\Microsoft Visual Studio\2019\Community\VC\Tools\MSVC\14.28.29333\include\xmemory

; 701  :         ::new (const_cast<void*>(static_cast<const volatile void*>(_Ptr))) _Objty(_STD forward<_Types>(_Args)...);

  00013	8d 45 fd	 lea	 eax, DWORD PTR $T8[ebp]
  00016	89 45 cc	 mov	 DWORD PTR _this$[ebp], eax
; File C:\Program Files (x86)\Microsoft Visual Studio\2019\Community\VC\Tools\MSVC\14.28.29333\include\type_traits

; 1443 :     return static_cast<_Ty&&>(_Arg);

  00019	8b 45 14	 mov	 eax, DWORD PTR _<_Args_1>$[ebp]
  0001c	89 45 e8	 mov	 DWORD PTR $T6[ebp], eax
; File C:\Program Files (x86)\Microsoft Visual Studio\2019\Community\VC\Tools\MSVC\14.28.29333\include\xmemory

; 701  :         ::new (const_cast<void*>(static_cast<const volatile void*>(_Ptr))) _Objty(_STD forward<_Types>(_Args)...);

  0001f	8d 45 dc	 lea	 eax, DWORD PTR $T4[ebp]
  00022	89 45 e4	 mov	 DWORD PTR _this$[ebp], eax
; File D:\Metin2 Server Files\mainline\SRC_2014\Metin2Client\EterLib\GrpFontTexture.cpp

  00025	8b 45 e8	 mov	 eax, DWORD PTR $T6[ebp]
  00028	8b 00		 mov	 eax, DWORD PTR [eax]
  0002a	8b 4d e4	 mov	 ecx, DWORD PTR _this$[ebp]
  0002d	89 01		 mov	 DWORD PTR [ecx], eax
; File C:\Program Files (x86)\Microsoft Visual Studio\2019\Community\VC\Tools\MSVC\14.28.29333\include\type_traits

; 1443 :     return static_cast<_Ty&&>(_Arg);

  0002f	8b 45 10	 mov	 eax, DWORD PTR _<_Args_0>$[ebp]
  00032	89 45 e0	 mov	 DWORD PTR $T5[ebp], eax
; File C:\Program Files (x86)\Microsoft Visual Studio\2019\Community\VC\Tools\MSVC\14.28.29333\include\xmemory

; 701  :         ::new (const_cast<void*>(static_cast<const volatile void*>(_Ptr))) _Objty(_STD forward<_Types>(_Args)...);

  00035	8b 45 e0	 mov	 eax, DWORD PTR $T5[ebp]
  00038	8a 00		 mov	 al, BYTE PTR [eax]
  0003a	88 45 f8	 mov	 BYTE PTR ___formal$[ebp], al
; File C:\Program Files (x86)\Microsoft Visual Studio\2019\Community\VC\Tools\MSVC\14.28.29333\include\tuple

; 986  :     : pair(_Val1, _Val2, index_sequence_for<_Types1...>{}, index_sequence_for<_Types2...>{}) {}

  0003d	33 c0		 xor	 eax, eax
  0003f	88 45 ff	 mov	 BYTE PTR $T10[ebp], al
  00042	33 c0		 xor	 eax, eax
  00044	88 45 fe	 mov	 BYTE PTR $T9[ebp], al
  00047	8a 45 ff	 mov	 al, BYTE PTR $T10[ebp]
  0004a	88 45 f4	 mov	 BYTE PTR ___formal$[ebp], al
  0004d	8a 45 fe	 mov	 al, BYTE PTR $T9[ebp]
  00050	88 45 f0	 mov	 BYTE PTR ___formal$[ebp], al
; File C:\Program Files (x86)\Microsoft Visual Studio\2019\Community\VC\Tools\MSVC\14.28.29333\include\type_traits

; 1455 :     return static_cast<remove_reference_t<_Ty>&&>(_Arg);

  00053	8d 45 dc	 lea	 eax, DWORD PTR $T4[ebp]
  00056	89 45 d8	 mov	 DWORD PTR $T3[ebp], eax
; File C:\Program Files (x86)\Microsoft Visual Studio\2019\Community\VC\Tools\MSVC\14.28.29333\include\tuple

; 790  :     return static_cast<_Ty&&>(static_cast<_Ttype&>(_Tuple)._Myfirst._Val);

  00059	8b 45 d8	 mov	 eax, DWORD PTR $T3[ebp]
  0005c	8b 00		 mov	 eax, DWORD PTR [eax]
  0005e	89 45 d4	 mov	 DWORD PTR $T2[ebp], eax

; 980  :     : first(_STD get<_Indexes1>(_STD move(_Val1))...), second(_STD get<_Indexes2>(_STD move(_Val2))...) {}

  00061	8b 45 d4	 mov	 eax, DWORD PTR $T2[ebp]
  00064	8b 00		 mov	 eax, DWORD PTR [eax]
  00066	8b 4d ec	 mov	 ecx, DWORD PTR $T7[ebp]
  00069	89 01		 mov	 DWORD PTR [ecx], eax
  0006b	6a 07		 push	 7
  0006d	59		 pop	 ecx
  0006e	33 c0		 xor	 eax, eax
  00070	8b 7d ec	 mov	 edi, DWORD PTR $T7[ebp]
  00073	83 c7 04	 add	 edi, 4
  00076	f3 ab		 rep stosd
; File C:\Program Files (x86)\Microsoft Visual Studio\2019\Community\VC\Tools\MSVC\14.28.29333\include\xmemory

; 702  :     }

  00078	5f		 pop	 edi
  00079	c9		 leave
  0007a	c3		 ret	 0
??$construct@U?$pair@$$CBU?$pair@G_W@std@@USCharacterInfomation@CGraphicFontTexture@@@std@@ABUpiecewise_construct_t@2@V?$tuple@ABU?$pair@G_W@std@@@2@V?$tuple@$$V@2@@?$_Default_allocator_traits@V?$allocator@U?$_Tree_node@U?$pair@$$CBU?$pair@G_W@std@@USCharacterInfomation@CGraphicFontTexture@@@std@@PAX@std@@@std@@@std@@SAXAAV?$allocator@U?$_Tree_node@U?$pair@$$CBU?$pair@G_W@std@@USCharacterInfomation@CGraphicFontTexture@@@std@@PAX@std@@@1@QAU?$pair@$$CBU?$pair@G_W@std@@USCharacterInfomation@CGraphicFontTexture@@@1@ABUpiecewise_construct_t@1@$$QAV?$tuple@ABU?$pair@G_W@std@@@1@$$QAV?$tuple@$$V@1@@Z ENDP ; std::_Default_allocator_traits<std::allocator<std::_Tree_node<std::pair<std::pair<unsigned short,wchar_t> const ,CGraphicFontTexture::SCharacterInfomation>,void *> > >::construct<std::pair<std::pair<unsigned short,wchar_t> const ,CGraphicFontTexture::SCharacterInfomation>,std::piecewise_construct_t const &,std::tuple<std::pair<unsigned short,wchar_t> const &>,std::tuple<> >
_TEXT	ENDS
; Function compile flags: /Odspy
; File C:\Program Files (x86)\Microsoft Visual Studio\2019\Community\VC\Tools\MSVC\14.28.29333\include\xmemory
;	COMDAT ??$_Destroy_in_place@PAU?$_Tree_node@U?$pair@$$CBGPAUHFONT__@@@std@@PAX@std@@@std@@YAXAAPAU?$_Tree_node@U?$pair@$$CBGPAUHFONT__@@@std@@PAX@0@@Z
_TEXT	SEGMENT
__Obj$ = 8						; size = 4
??$_Destroy_in_place@PAU?$_Tree_node@U?$pair@$$CBGPAUHFONT__@@@std@@PAX@std@@@std@@YAXAAPAU?$_Tree_node@U?$pair@$$CBGPAUHFONT__@@@std@@PAX@0@@Z PROC ; std::_Destroy_in_place<std::_Tree_node<std::pair<unsigned short const ,HFONT__ *>,void *> *>, COMDAT

; 270  : /* _CONSTEXPR20_DYNALLOC */ void _Destroy_in_place(_Ty& _Obj) noexcept {

  00000	55		 push	 ebp
  00001	8b ec		 mov	 ebp, esp

; 271  : #if _HAS_IF_CONSTEXPR
; 272  :     if constexpr (is_array_v<_Ty>) {
; 273  :         _Destroy_range(_Obj, _Obj + extent_v<_Ty>);
; 274  :     } else
; 275  : #endif // _HAS_IF_CONSTEXPR
; 276  :     {
; 277  :         _Obj.~_Ty();
; 278  :     }
; 279  : }

  00003	5d		 pop	 ebp
  00004	c3		 ret	 0
??$_Destroy_in_place@PAU?$_Tree_node@U?$pair@$$CBGPAUHFONT__@@@std@@PAX@std@@@std@@YAXAAPAU?$_Tree_node@U?$pair@$$CBGPAUHFONT__@@@std@@PAX@0@@Z ENDP ; std::_Destroy_in_place<std::_Tree_node<std::pair<unsigned short const ,HFONT__ *>,void *> *>
_TEXT	ENDS
; Function compile flags: /Odspy
; File C:\Program Files (x86)\Microsoft Visual Studio\2019\Community\VC\Tools\MSVC\14.28.29333\include\xtree
; File C:\Program Files (x86)\Microsoft Visual Studio\2019\Community\VC\Tools\MSVC\14.28.29333\include\xmemory
; File C:\Program Files (x86)\Microsoft Visual Studio\2019\Community\VC\Tools\MSVC\14.28.29333\include\xtree
; File C:\Program Files (x86)\Microsoft Visual Studio\2019\Community\VC\Tools\MSVC\14.28.29333\include\type_traits
; File C:\Program Files (x86)\Microsoft Visual Studio\2019\Community\VC\Tools\MSVC\14.28.29333\include\xtree
; File C:\Program Files (x86)\Microsoft Visual Studio\2019\Community\VC\Tools\MSVC\14.28.29333\include\xstddef
; File C:\Program Files (x86)\Microsoft Visual Studio\2019\Community\VC\Tools\MSVC\14.28.29333\include\xtree
; File C:\Program Files (x86)\Microsoft Visual Studio\2019\Community\VC\Tools\MSVC\14.28.29333\include\vcruntime_new.h
; File C:\Program Files (x86)\Microsoft Visual Studio\2019\Community\VC\Tools\MSVC\14.28.29333\include\type_traits
; File C:\Program Files (x86)\Microsoft Visual Studio\2019\Community\VC\Tools\MSVC\14.28.29333\include\xmemory
; File C:\Program Files (x86)\Microsoft Visual Studio\2019\Community\VC\Tools\MSVC\14.28.29333\include\xtree
;	COMDAT ??$?0U?$pair@$$CBGPAUHFONT__@@@std@@@?$_Tree_temp_node@V?$allocator@U?$_Tree_node@U?$pair@$$CBGPAUHFONT__@@@std@@PAX@std@@@std@@@std@@QAE@AAV?$allocator@U?$_Tree_node@U?$pair@$$CBGPAUHFONT__@@@std@@PAX@std@@@1@PAU?$_Tree_node@U?$pair@$$CBGPAUHFONT__@@@std@@PAX@1@$$QAU?$pair@$$CBGPAUHFONT__@@@1@@Z
_TEXT	SEGMENT
___formal$ = -40					; size = 4
$T2 = -36						; size = 4
$T3 = -32						; size = 4
$T4 = -28						; size = 4
$T5 = -24						; size = 4
__Val$ = -20						; size = 4
_this$ = -16						; size = 4
__$EHRec$ = -12						; size = 12
__Al_$ = 8						; size = 4
__Myhead$ = 12						; size = 4
_<_Vals_0>$ = 16					; size = 4
??$?0U?$pair@$$CBGPAUHFONT__@@@std@@@?$_Tree_temp_node@V?$allocator@U?$_Tree_node@U?$pair@$$CBGPAUHFONT__@@@std@@PAX@std@@@std@@@std@@QAE@AAV?$allocator@U?$_Tree_node@U?$pair@$$CBGPAUHFONT__@@@std@@PAX@std@@@1@PAU?$_Tree_node@U?$pair@$$CBGPAUHFONT__@@@std@@PAX@1@$$QAU?$pair@$$CBGPAUHFONT__@@@1@@Z PROC ; std::_Tree_temp_node<std::allocator<std::_Tree_node<std::pair<unsigned short const ,HFONT__ *>,void *> > >::_Tree_temp_node<std::allocator<std::_Tree_node<std::pair<unsigned short const ,HFONT__ *>,void *> > ><std::pair<unsigned short const ,HFONT__ *> >, COMDAT
; _this$ = ecx

; 805  :         : _Tree_temp_node_alloc<_Alnode>(_Al_) {

  00000	55		 push	 ebp
  00001	8b ec		 mov	 ebp, esp
  00003	6a ff		 push	 -1
  00005	68 00 00 00 00	 push	 __ehhandler$??$?0U?$pair@$$CBGPAUHFONT__@@@std@@@?$_Tree_temp_node@V?$allocator@U?$_Tree_node@U?$pair@$$CBGPAUHFONT__@@@std@@PAX@std@@@std@@@std@@QAE@AAV?$allocator@U?$_Tree_node@U?$pair@$$CBGPAUHFONT__@@@std@@PAX@std@@@1@PAU?$_Tree_node@U?$pair@$$CBGPAUHFONT__@@@std@@PAX@1@$$QAU?$pair@$$CBGPAUHFONT__@@@1@@Z
  0000a	64 a1 00 00 00
	00		 mov	 eax, DWORD PTR fs:0
  00010	50		 push	 eax
  00011	83 ec 1c	 sub	 esp, 28			; 0000001cH
  00014	a1 00 00 00 00	 mov	 eax, DWORD PTR ___security_cookie
  00019	33 c5		 xor	 eax, ebp
  0001b	50		 push	 eax
  0001c	8d 45 f4	 lea	 eax, DWORD PTR __$EHRec$[ebp]
  0001f	64 a3 00 00 00
	00		 mov	 DWORD PTR fs:0, eax
  00025	89 4d f0	 mov	 DWORD PTR _this$[ebp], ecx
; File C:\Program Files (x86)\Microsoft Visual Studio\2019\Community\VC\Tools\MSVC\14.28.29333\include\xmemory

; 1045 :     explicit _Alloc_construct_ptr(_Alloc& _Al_) : _Al(_Al_), _Ptr(nullptr) {}

  00028	8b 45 f0	 mov	 eax, DWORD PTR _this$[ebp]
  0002b	8b 4d 08	 mov	 ecx, DWORD PTR __Al_$[ebp]
  0002e	89 08		 mov	 DWORD PTR [eax], ecx
  00030	8b 45 f0	 mov	 eax, DWORD PTR _this$[ebp]
  00033	83 60 04 00	 and	 DWORD PTR [eax+4], 0
; File C:\Program Files (x86)\Microsoft Visual Studio\2019\Community\VC\Tools\MSVC\14.28.29333\include\xtree

; 784  :     explicit _Tree_temp_node_alloc(_Alnode& _Al_) : _Alloc_construct_ptr<_Alnode>(_Al_) {

  00037	83 65 fc 00	 and	 DWORD PTR __$EHRec$[ebp+8], 0

; 785  :         _Alloc_construct_ptr<_Alnode>::_Allocate();

  0003b	8b 4d f0	 mov	 ecx, DWORD PTR _this$[ebp]
  0003e	e8 00 00 00 00	 call	 ?_Allocate@?$_Alloc_construct_ptr@V?$allocator@U?$_Tree_node@U?$pair@$$CBGPAUHFONT__@@@std@@PAX@std@@@std@@@std@@QAEXXZ ; std::_Alloc_construct_ptr<std::allocator<std::_Tree_node<std::pair<unsigned short const ,HFONT__ *>,void *> > >::_Allocate

; 786  :     }

  00043	83 4d fc ff	 or	 DWORD PTR __$EHRec$[ebp+8], -1
; File C:\Program Files (x86)\Microsoft Visual Studio\2019\Community\VC\Tools\MSVC\14.28.29333\include\type_traits

; 1443 :     return static_cast<_Ty&&>(_Arg);

  00047	8b 45 10	 mov	 eax, DWORD PTR _<_Vals_0>$[ebp]
  0004a	89 45 e4	 mov	 DWORD PTR $T4[ebp], eax
; File C:\Program Files (x86)\Microsoft Visual Studio\2019\Community\VC\Tools\MSVC\14.28.29333\include\xtree

; 806  :         _Alnode_traits::construct(this->_Al, _STD addressof(this->_Ptr->_Myval), _STD forward<_Valtys>(_Vals)...);

  0004d	8b 45 f0	 mov	 eax, DWORD PTR _this$[ebp]
  00050	8b 40 04	 mov	 eax, DWORD PTR [eax+4]
  00053	83 c0 10	 add	 eax, 16			; 00000010H
  00056	89 45 ec	 mov	 DWORD PTR __Val$[ebp], eax
; File C:\Program Files (x86)\Microsoft Visual Studio\2019\Community\VC\Tools\MSVC\14.28.29333\include\xstddef

; 275  :     return __builtin_addressof(_Val);

  00059	8b 45 ec	 mov	 eax, DWORD PTR __Val$[ebp]
  0005c	89 45 e8	 mov	 DWORD PTR $T5[ebp], eax
; File C:\Program Files (x86)\Microsoft Visual Studio\2019\Community\VC\Tools\MSVC\14.28.29333\include\xtree

; 806  :         _Alnode_traits::construct(this->_Al, _STD addressof(this->_Ptr->_Myval), _STD forward<_Valtys>(_Vals)...);

  0005f	8b 45 f0	 mov	 eax, DWORD PTR _this$[ebp]
  00062	8b 00		 mov	 eax, DWORD PTR [eax]
  00064	89 45 d8	 mov	 DWORD PTR ___formal$[ebp], eax
; File C:\Program Files (x86)\Microsoft Visual Studio\2019\Community\VC\Tools\MSVC\14.28.29333\include\vcruntime_new.h

; 169  :         return _Where;

  00067	8b 45 e8	 mov	 eax, DWORD PTR $T5[ebp]
  0006a	89 45 dc	 mov	 DWORD PTR $T2[ebp], eax
; File C:\Program Files (x86)\Microsoft Visual Studio\2019\Community\VC\Tools\MSVC\14.28.29333\include\type_traits

; 1443 :     return static_cast<_Ty&&>(_Arg);

  0006d	8b 45 e4	 mov	 eax, DWORD PTR $T4[ebp]
  00070	89 45 e0	 mov	 DWORD PTR $T3[ebp], eax
; File C:\Program Files (x86)\Microsoft Visual Studio\2019\Community\VC\Tools\MSVC\14.28.29333\include\xmemory

; 701  :         ::new (const_cast<void*>(static_cast<const volatile void*>(_Ptr))) _Objty(_STD forward<_Types>(_Args)...);

  00073	8b 45 e0	 mov	 eax, DWORD PTR $T3[ebp]
  00076	8b 08		 mov	 ecx, DWORD PTR [eax]
  00078	8b 40 04	 mov	 eax, DWORD PTR [eax+4]
  0007b	8b 55 dc	 mov	 edx, DWORD PTR $T2[ebp]
  0007e	89 0a		 mov	 DWORD PTR [edx], ecx
  00080	89 42 04	 mov	 DWORD PTR [edx+4], eax
; File C:\Program Files (x86)\Microsoft Visual Studio\2019\Community\VC\Tools\MSVC\14.28.29333\include\xtree

; 807  :         _Construct_in_place(this->_Ptr->_Left, _Myhead);

  00083	8d 45 0c	 lea	 eax, DWORD PTR __Myhead$[ebp]
  00086	50		 push	 eax
  00087	8b 45 f0	 mov	 eax, DWORD PTR _this$[ebp]
  0008a	ff 70 04	 push	 DWORD PTR [eax+4]
  0008d	e8 00 00 00 00	 call	 ??$_Construct_in_place@PAU?$_Tree_node@U?$pair@$$CBGPAUHFONT__@@@std@@PAX@std@@AAPAU12@@std@@YAXAAPAU?$_Tree_node@U?$pair@$$CBGPAUHFONT__@@@std@@PAX@0@0@Z ; std::_Construct_in_place<std::_Tree_node<std::pair<unsigned short const ,HFONT__ *>,void *> *,std::_Tree_node<std::pair<unsigned short const ,HFONT__ *>,void *> * &>
  00092	59		 pop	 ecx
  00093	59		 pop	 ecx

; 808  :         _Construct_in_place(this->_Ptr->_Parent, _Myhead);

  00094	8d 45 0c	 lea	 eax, DWORD PTR __Myhead$[ebp]
  00097	50		 push	 eax
  00098	8b 45 f0	 mov	 eax, DWORD PTR _this$[ebp]
  0009b	8b 40 04	 mov	 eax, DWORD PTR [eax+4]
  0009e	83 c0 04	 add	 eax, 4
  000a1	50		 push	 eax
  000a2	e8 00 00 00 00	 call	 ??$_Construct_in_place@PAU?$_Tree_node@U?$pair@$$CBGPAUHFONT__@@@std@@PAX@std@@AAPAU12@@std@@YAXAAPAU?$_Tree_node@U?$pair@$$CBGPAUHFONT__@@@std@@PAX@0@0@Z ; std::_Construct_in_place<std::_Tree_node<std::pair<unsigned short const ,HFONT__ *>,void *> *,std::_Tree_node<std::pair<unsigned short const ,HFONT__ *>,void *> * &>
  000a7	59		 pop	 ecx
  000a8	59		 pop	 ecx

; 809  :         _Construct_in_place(this->_Ptr->_Right, _Myhead);

  000a9	8d 45 0c	 lea	 eax, DWORD PTR __Myhead$[ebp]
  000ac	50		 push	 eax
  000ad	8b 45 f0	 mov	 eax, DWORD PTR _this$[ebp]
  000b0	8b 40 04	 mov	 eax, DWORD PTR [eax+4]
  000b3	83 c0 08	 add	 eax, 8
  000b6	50		 push	 eax
  000b7	e8 00 00 00 00	 call	 ??$_Construct_in_place@PAU?$_Tree_node@U?$pair@$$CBGPAUHFONT__@@@std@@PAX@std@@AAPAU12@@std@@YAXAAPAU?$_Tree_node@U?$pair@$$CBGPAUHFONT__@@@std@@PAX@0@0@Z ; std::_Construct_in_place<std::_Tree_node<std::pair<unsigned short const ,HFONT__ *>,void *> *,std::_Tree_node<std::pair<unsigned short const ,HFONT__ *>,void *> * &>
  000bc	59		 pop	 ecx
  000bd	59		 pop	 ecx

; 810  :         this->_Ptr->_Color = _Red;

  000be	8b 45 f0	 mov	 eax, DWORD PTR _this$[ebp]
  000c1	8b 40 04	 mov	 eax, DWORD PTR [eax+4]
  000c4	c6 40 0c 00	 mov	 BYTE PTR [eax+12], 0

; 811  :         this->_Ptr->_Isnil = false;

  000c8	8b 45 f0	 mov	 eax, DWORD PTR _this$[ebp]
  000cb	8b 40 04	 mov	 eax, DWORD PTR [eax+4]
  000ce	c6 40 0d 00	 mov	 BYTE PTR [eax+13], 0

; 812  :     }

  000d2	8b 45 f0	 mov	 eax, DWORD PTR _this$[ebp]
  000d5	8b 4d f4	 mov	 ecx, DWORD PTR __$EHRec$[ebp]
  000d8	64 89 0d 00 00
	00 00		 mov	 DWORD PTR fs:0, ecx
  000df	59		 pop	 ecx
  000e0	c9		 leave
  000e1	c2 0c 00	 ret	 12			; 0000000cH
_TEXT	ENDS
;	COMDAT text$x
text$x	SEGMENT
__unwindfunclet$??$?0U?$pair@$$CBGPAUHFONT__@@@std@@@?$_Tree_temp_node@V?$allocator@U?$_Tree_node@U?$pair@$$CBGPAUHFONT__@@@std@@PAX@std@@@std@@@std@@QAE@AAV?$allocator@U?$_Tree_node@U?$pair@$$CBGPAUHFONT__@@@std@@PAX@std@@@1@PAU?$_Tree_node@U?$pair@$$CBGPAUHFONT__@@@std@@PAX@1@$$QAU?$pair@$$CBGPAUHFONT__@@@1@@Z$1:
  00000	8b 4d f0	 mov	 ecx, DWORD PTR _this$[ebp]
  00003	e9 00 00 00 00	 jmp	 ??1?$_Alloc_construct_ptr@V?$allocator@U?$_Tree_node@U?$pair@$$CBGPAUHFONT__@@@std@@PAX@std@@@std@@@std@@QAE@XZ ; std::_Alloc_construct_ptr<std::allocator<std::_Tree_node<std::pair<unsigned short const ,HFONT__ *>,void *> > >::~_Alloc_construct_ptr<std::allocator<std::_Tree_node<std::pair<unsigned short const ,HFONT__ *>,void *> > >
  00008	cc		 int	 3
  00009	cc		 int	 3
  0000a	cc		 int	 3
  0000b	cc		 int	 3
  0000c	cc		 int	 3
__ehhandler$??$?0U?$pair@$$CBGPAUHFONT__@@@std@@@?$_Tree_temp_node@V?$allocator@U?$_Tree_node@U?$pair@$$CBGPAUHFONT__@@@std@@PAX@std@@@std@@@std@@QAE@AAV?$allocator@U?$_Tree_node@U?$pair@$$CBGPAUHFONT__@@@std@@PAX@std@@@1@PAU?$_Tree_node@U?$pair@$$CBGPAUHFONT__@@@std@@PAX@1@$$QAU?$pair@$$CBGPAUHFONT__@@@1@@Z:
  0000d	90		 npad	 1
  0000e	90		 npad	 1
  0000f	8b 54 24 08	 mov	 edx, DWORD PTR [esp+8]
  00013	8d 42 0c	 lea	 eax, DWORD PTR [edx+12]
  00016	8b 4a e0	 mov	 ecx, DWORD PTR [edx-32]
  00019	33 c8		 xor	 ecx, eax
  0001b	e8 00 00 00 00	 call	 @__security_check_cookie@4
  00020	b8 00 00 00 00	 mov	 eax, OFFSET __ehfuncinfo$??$?0U?$pair@$$CBGPAUHFONT__@@@std@@@?$_Tree_temp_node@V?$allocator@U?$_Tree_node@U?$pair@$$CBGPAUHFONT__@@@std@@PAX@std@@@std@@@std@@QAE@AAV?$allocator@U?$_Tree_node@U?$pair@$$CBGPAUHFONT__@@@std@@PAX@std@@@1@PAU?$_Tree_node@U?$pair@$$CBGPAUHFONT__@@@std@@PAX@1@$$QAU?$pair@$$CBGPAUHFONT__@@@1@@Z
  00025	e9 00 00 00 00	 jmp	 ___CxxFrameHandler3
text$x	ENDS
??$?0U?$pair@$$CBGPAUHFONT__@@@std@@@?$_Tree_temp_node@V?$allocator@U?$_Tree_node@U?$pair@$$CBGPAUHFONT__@@@std@@PAX@std@@@std@@@std@@QAE@AAV?$allocator@U?$_Tree_node@U?$pair@$$CBGPAUHFONT__@@@std@@PAX@std@@@1@PAU?$_Tree_node@U?$pair@$$CBGPAUHFONT__@@@std@@PAX@1@$$QAU?$pair@$$CBGPAUHFONT__@@@1@@Z ENDP ; std::_Tree_temp_node<std::allocator<std::_Tree_node<std::pair<unsigned short const ,HFONT__ *>,void *> > >::_Tree_temp_node<std::allocator<std::_Tree_node<std::pair<unsigned short const ,HFONT__ *>,void *> > ><std::pair<unsigned short const ,HFONT__ *> >
; Function compile flags: /Odspy
; File C:\Program Files (x86)\Microsoft Visual Studio\2019\Community\VC\Tools\MSVC\14.28.29333\include\xtree
; File C:\Program Files (x86)\Microsoft Visual Studio\2019\Community\VC\Tools\MSVC\14.28.29333\include\xstddef
; File C:\Program Files (x86)\Microsoft Visual Studio\2019\Community\VC\Tools\MSVC\14.28.29333\include\xtree
;	COMDAT ??1?$_Tree_temp_node@V?$allocator@U?$_Tree_node@U?$pair@$$CBGPAUHFONT__@@@std@@PAX@std@@@std@@@std@@QAE@XZ
_TEXT	SEGMENT
$T1 = -12						; size = 4
__Val$ = -8						; size = 4
_this$ = -4						; size = 4
??1?$_Tree_temp_node@V?$allocator@U?$_Tree_node@U?$pair@$$CBGPAUHFONT__@@@std@@PAX@std@@@std@@@std@@QAE@XZ PROC ; std::_Tree_temp_node<std::allocator<std::_Tree_node<std::pair<unsigned short const ,HFONT__ *>,void *> > >::~_Tree_temp_node<std::allocator<std::_Tree_node<std::pair<unsigned short const ,HFONT__ *>,void *> > >, COMDAT
; _this$ = ecx

; 817  :     ~_Tree_temp_node() {

  00000	55		 push	 ebp
  00001	8b ec		 mov	 ebp, esp
  00003	83 ec 0c	 sub	 esp, 12			; 0000000cH
  00006	89 4d fc	 mov	 DWORD PTR _this$[ebp], ecx

; 818  :         if (this->_Ptr) {

  00009	8b 45 fc	 mov	 eax, DWORD PTR _this$[ebp]
  0000c	83 78 04 00	 cmp	 DWORD PTR [eax+4], 0
  00010	74 3e		 je	 SHORT $LN9@Tree_temp_

; 819  :             _Destroy_in_place(this->_Ptr->_Left);

  00012	8b 45 fc	 mov	 eax, DWORD PTR _this$[ebp]
  00015	ff 70 04	 push	 DWORD PTR [eax+4]
  00018	e8 00 00 00 00	 call	 ??$_Destroy_in_place@PAU?$_Tree_node@U?$pair@$$CBGPAUHFONT__@@@std@@PAX@std@@@std@@YAXAAPAU?$_Tree_node@U?$pair@$$CBGPAUHFONT__@@@std@@PAX@0@@Z ; std::_Destroy_in_place<std::_Tree_node<std::pair<unsigned short const ,HFONT__ *>,void *> *>
  0001d	59		 pop	 ecx

; 820  :             _Destroy_in_place(this->_Ptr->_Parent);

  0001e	8b 45 fc	 mov	 eax, DWORD PTR _this$[ebp]
  00021	8b 40 04	 mov	 eax, DWORD PTR [eax+4]
  00024	83 c0 04	 add	 eax, 4
  00027	50		 push	 eax
  00028	e8 00 00 00 00	 call	 ??$_Destroy_in_place@PAU?$_Tree_node@U?$pair@$$CBGPAUHFONT__@@@std@@PAX@std@@@std@@YAXAAPAU?$_Tree_node@U?$pair@$$CBGPAUHFONT__@@@std@@PAX@0@@Z ; std::_Destroy_in_place<std::_Tree_node<std::pair<unsigned short const ,HFONT__ *>,void *> *>
  0002d	59		 pop	 ecx

; 821  :             _Destroy_in_place(this->_Ptr->_Right);

  0002e	8b 45 fc	 mov	 eax, DWORD PTR _this$[ebp]
  00031	8b 40 04	 mov	 eax, DWORD PTR [eax+4]
  00034	83 c0 08	 add	 eax, 8
  00037	50		 push	 eax
  00038	e8 00 00 00 00	 call	 ??$_Destroy_in_place@PAU?$_Tree_node@U?$pair@$$CBGPAUHFONT__@@@std@@PAX@std@@@std@@YAXAAPAU?$_Tree_node@U?$pair@$$CBGPAUHFONT__@@@std@@PAX@0@@Z ; std::_Destroy_in_place<std::_Tree_node<std::pair<unsigned short const ,HFONT__ *>,void *> *>
  0003d	59		 pop	 ecx

; 822  :             _Alnode_traits::destroy(this->_Al, _STD addressof(this->_Ptr->_Myval));

  0003e	8b 45 fc	 mov	 eax, DWORD PTR _this$[ebp]
  00041	8b 40 04	 mov	 eax, DWORD PTR [eax+4]
  00044	83 c0 10	 add	 eax, 16			; 00000010H
  00047	89 45 f8	 mov	 DWORD PTR __Val$[ebp], eax
; File C:\Program Files (x86)\Microsoft Visual Studio\2019\Community\VC\Tools\MSVC\14.28.29333\include\xstddef

; 275  :     return __builtin_addressof(_Val);

  0004a	8b 45 f8	 mov	 eax, DWORD PTR __Val$[ebp]
  0004d	89 45 f4	 mov	 DWORD PTR $T1[ebp], eax
$LN9@Tree_temp_:
  00050	8b 4d fc	 mov	 ecx, DWORD PTR _this$[ebp]
  00053	e8 00 00 00 00	 call	 ??1?$_Alloc_construct_ptr@V?$allocator@U?$_Tree_node@U?$pair@$$CBGPAUHFONT__@@@std@@PAX@std@@@std@@@std@@QAE@XZ ; std::_Alloc_construct_ptr<std::allocator<std::_Tree_node<std::pair<unsigned short const ,HFONT__ *>,void *> > >::~_Alloc_construct_ptr<std::allocator<std::_Tree_node<std::pair<unsigned short const ,HFONT__ *>,void *> > >
; File C:\Program Files (x86)\Microsoft Visual Studio\2019\Community\VC\Tools\MSVC\14.28.29333\include\xtree

; 824  :     }

  00058	c9		 leave
  00059	c3		 ret	 0
??1?$_Tree_temp_node@V?$allocator@U?$_Tree_node@U?$pair@$$CBGPAUHFONT__@@@std@@PAX@std@@@std@@@std@@QAE@XZ ENDP ; std::_Tree_temp_node<std::allocator<std::_Tree_node<std::pair<unsigned short const ,HFONT__ *>,void *> > >::~_Tree_temp_node<std::allocator<std::_Tree_node<std::pair<unsigned short const ,HFONT__ *>,void *> > >
_TEXT	ENDS
; Function compile flags: /Odspy
; File C:\Program Files (x86)\Microsoft Visual Studio\2019\Community\VC\Tools\MSVC\14.28.29333\include\xmemory
;	COMDAT ??1?$_Alloc_construct_ptr@V?$allocator@U?$_Tree_node@U?$pair@$$CBGPAUHFONT__@@@std@@PAX@std@@@std@@@std@@QAE@XZ
_TEXT	SEGMENT
_this$ = -12						; size = 4
__Ptr$ = -8						; size = 4
_this$ = -4						; size = 4
??1?$_Alloc_construct_ptr@V?$allocator@U?$_Tree_node@U?$pair@$$CBGPAUHFONT__@@@std@@PAX@std@@@std@@@std@@QAE@XZ PROC ; std::_Alloc_construct_ptr<std::allocator<std::_Tree_node<std::pair<unsigned short const ,HFONT__ *>,void *> > >::~_Alloc_construct_ptr<std::allocator<std::_Tree_node<std::pair<unsigned short const ,HFONT__ *>,void *> > >, COMDAT
; _this$ = ecx

; 1056 :     ~_Alloc_construct_ptr() { // if this instance is engaged, deallocate storage

  00000	55		 push	 ebp
  00001	8b ec		 mov	 ebp, esp
  00003	83 ec 0c	 sub	 esp, 12			; 0000000cH
  00006	89 4d fc	 mov	 DWORD PTR _this$[ebp], ecx

; 1057 :         if (_Ptr) {

  00009	8b 45 fc	 mov	 eax, DWORD PTR _this$[ebp]
  0000c	83 78 04 00	 cmp	 DWORD PTR [eax+4], 0
  00010	74 22		 je	 SHORT $LN3@Alloc_cons

; 1058 :             _Al.deallocate(_Ptr, 1);

  00012	8b 45 fc	 mov	 eax, DWORD PTR _this$[ebp]
  00015	8b 40 04	 mov	 eax, DWORD PTR [eax+4]
  00018	89 45 f8	 mov	 DWORD PTR __Ptr$[ebp], eax
  0001b	8b 45 fc	 mov	 eax, DWORD PTR _this$[ebp]
  0001e	8b 00		 mov	 eax, DWORD PTR [eax]
  00020	89 45 f4	 mov	 DWORD PTR _this$[ebp], eax

; 810  :         _Deallocate<_New_alignof<_Ty>>(_Ptr, sizeof(_Ty) * _Count);

  00023	33 c0		 xor	 eax, eax
  00025	40		 inc	 eax
  00026	6b c0 18	 imul	 eax, eax, 24
  00029	50		 push	 eax
  0002a	ff 75 f8	 push	 DWORD PTR __Ptr$[ebp]
  0002d	e8 00 00 00 00	 call	 ??$_Deallocate@$07$0A@@std@@YAXPAXI@Z ; std::_Deallocate<8,0>
  00032	59		 pop	 ecx
  00033	59		 pop	 ecx
$LN3@Alloc_cons:

; 1059 :         }
; 1060 :     }

  00034	c9		 leave
  00035	c3		 ret	 0
??1?$_Alloc_construct_ptr@V?$allocator@U?$_Tree_node@U?$pair@$$CBGPAUHFONT__@@@std@@PAX@std@@@std@@@std@@QAE@XZ ENDP ; std::_Alloc_construct_ptr<std::allocator<std::_Tree_node<std::pair<unsigned short const ,HFONT__ *>,void *> > >::~_Alloc_construct_ptr<std::allocator<std::_Tree_node<std::pair<unsigned short const ,HFONT__ *>,void *> > >
_TEXT	ENDS
; Function compile flags: /Odspy
; File C:\Program Files (x86)\Microsoft Visual Studio\2019\Community\VC\Tools\MSVC\14.28.29333\include\xmemory
;	COMDAT ?_Allocate@?$_Alloc_construct_ptr@V?$allocator@U?$_Tree_node@U?$pair@$$CBGPAUHFONT__@@@std@@PAX@std@@@std@@@std@@QAEXXZ
_TEXT	SEGMENT
__Max_possible$1 = -24					; size = 4
_this$ = -20						; size = 4
$T2 = -16						; size = 4
$T3 = -12						; size = 4
_this$ = -8						; size = 4
__Overflow_is_possible$4 = -1				; size = 1
?_Allocate@?$_Alloc_construct_ptr@V?$allocator@U?$_Tree_node@U?$pair@$$CBGPAUHFONT__@@@std@@PAX@std@@@std@@@std@@QAEXXZ PROC ; std::_Alloc_construct_ptr<std::allocator<std::_Tree_node<std::pair<unsigned short const ,HFONT__ *>,void *> > >::_Allocate, COMDAT
; _this$ = ecx

; 1051 :     void _Allocate() { // disengage *this, then allocate a new memory block

  00000	55		 push	 ebp
  00001	8b ec		 mov	 ebp, esp
  00003	83 ec 18	 sub	 esp, 24			; 00000018H
  00006	89 4d f8	 mov	 DWORD PTR _this$[ebp], ecx

; 1052 :         _Ptr = nullptr; // if allocate throws, prevents double-free

  00009	8b 45 f8	 mov	 eax, DWORD PTR _this$[ebp]
  0000c	83 60 04 00	 and	 DWORD PTR [eax+4], 0

; 1053 :         _Ptr = _Al.allocate(1);

  00010	8b 45 f8	 mov	 eax, DWORD PTR _this$[ebp]
  00013	8b 00		 mov	 eax, DWORD PTR [eax]
  00015	89 45 ec	 mov	 DWORD PTR _this$[ebp], eax

; 56   :     constexpr bool _Overflow_is_possible = _Ty_size > 1;

  00018	c6 45 ff 01	 mov	 BYTE PTR __Overflow_is_possible$4[ebp], 1

; 57   : 
; 58   :     if _CONSTEXPR_IF (_Overflow_is_possible) {
; 59   :         constexpr size_t _Max_possible = static_cast<size_t>(-1) / _Ty_size;

  0001c	c7 45 e8 aa aa
	aa 0a		 mov	 DWORD PTR __Max_possible$1[ebp], 178956970 ; 0aaaaaaaH

; 60   :         if (_Count > _Max_possible) {

  00023	33 c0		 xor	 eax, eax
  00025	40		 inc	 eax
  00026	3d aa aa aa 0a	 cmp	 eax, 178956970		; 0aaaaaaaH
  0002b	76 05		 jbe	 SHORT $LN6@Allocate

; 61   :             _Throw_bad_array_new_length(); // multiply overflow

  0002d	e8 00 00 00 00	 call	 ?_Throw_bad_array_new_length@std@@YAXXZ ; std::_Throw_bad_array_new_length
$LN6@Allocate:

; 62   :         }
; 63   :     }
; 64   : 
; 65   :     return _Count * _Ty_size;

  00032	33 c0		 xor	 eax, eax
  00034	40		 inc	 eax
  00035	6b c0 18	 imul	 eax, eax, 24
  00038	89 45 f4	 mov	 DWORD PTR $T3[ebp], eax

; 814  :         return static_cast<_Ty*>(_Allocate<_New_alignof<_Ty>>(_Get_size_of_n<sizeof(_Ty)>(_Count)));

  0003b	ff 75 f4	 push	 DWORD PTR $T3[ebp]
  0003e	e8 00 00 00 00	 call	 ??$_Allocate@$07U_Default_allocate_traits@std@@$0A@@std@@YAPAXI@Z ; std::_Allocate<8,std::_Default_allocate_traits,0>
  00043	59		 pop	 ecx
  00044	89 45 f0	 mov	 DWORD PTR $T2[ebp], eax

; 1053 :         _Ptr = _Al.allocate(1);

  00047	8b 45 f8	 mov	 eax, DWORD PTR _this$[ebp]
  0004a	8b 4d f0	 mov	 ecx, DWORD PTR $T2[ebp]
  0004d	89 48 04	 mov	 DWORD PTR [eax+4], ecx
$LN9@Allocate:

; 1054 :     }

  00050	c9		 leave
  00051	c3		 ret	 0
?_Allocate@?$_Alloc_construct_ptr@V?$allocator@U?$_Tree_node@U?$pair@$$CBGPAUHFONT__@@@std@@PAX@std@@@std@@@std@@QAEXXZ ENDP ; std::_Alloc_construct_ptr<std::allocator<std::_Tree_node<std::pair<unsigned short const ,HFONT__ *>,void *> > >::_Allocate
_TEXT	ENDS
; Function compile flags: /Odspy
; File C:\Program Files (x86)\Microsoft Visual Studio\2019\Community\VC\Tools\MSVC\14.28.29333\include\xmemory
; File C:\Program Files (x86)\Microsoft Visual Studio\2019\Community\VC\Tools\MSVC\14.28.29333\include\xstddef
; File C:\Program Files (x86)\Microsoft Visual Studio\2019\Community\VC\Tools\MSVC\14.28.29333\include\xmemory
;	COMDAT ??$_Uninitialized_move@PAPAVCGraphicImageTexture@@V?$allocator@PAVCGraphicImageTexture@@@std@@@std@@YAPAPAVCGraphicImageTexture@@QAPAV1@0PAPAV1@AAV?$allocator@PAVCGraphicImageTexture@@@0@@Z
_TEXT	SEGMENT
$T1 = -12						; size = 4
__UFirst$ = -8						; size = 4
__ULast$ = -4						; size = 4
__First$ = 8						; size = 4
__Last$ = 12						; size = 4
__Dest$ = 16						; size = 4
__Al$ = 20						; size = 4
??$_Uninitialized_move@PAPAVCGraphicImageTexture@@V?$allocator@PAVCGraphicImageTexture@@@std@@@std@@YAPAPAVCGraphicImageTexture@@QAPAV1@0PAPAV1@AAV?$allocator@PAVCGraphicImageTexture@@@0@@Z PROC ; std::_Uninitialized_move<CGraphicImageTexture * *,std::allocator<CGraphicImageTexture *> >, COMDAT

; 1685 :     const _InIt _First, const _InIt _Last, _Alloc_ptr_t<_Alloc> _Dest, _Alloc& _Al) {

  00000	55		 push	 ebp
  00001	8b ec		 mov	 ebp, esp
  00003	83 ec 0c	 sub	 esp, 12			; 0000000cH

; 1686 :     // move [_First, _Last) to raw _Dest, using _Al
; 1687 :     // note: only called internally from elsewhere in the STL
; 1688 :     using _Ptrval     = typename _Alloc::value_type*;
; 1689 :     auto _UFirst      = _Get_unwrapped(_First);

  00006	8b 45 08	 mov	 eax, DWORD PTR __First$[ebp]
  00009	89 45 f8	 mov	 DWORD PTR __UFirst$[ebp], eax

; 1690 :     const auto _ULast = _Get_unwrapped(_Last);

  0000c	8b 45 0c	 mov	 eax, DWORD PTR __Last$[ebp]
  0000f	89 45 fc	 mov	 DWORD PTR __ULast$[ebp], eax
; File C:\Program Files (x86)\Microsoft Visual Studio\2019\Community\VC\Tools\MSVC\14.28.29333\include\xstddef

; 289  :     return _Ptr;

  00012	8b 45 10	 mov	 eax, DWORD PTR __Dest$[ebp]
  00015	89 45 f4	 mov	 DWORD PTR $T1[ebp], eax
; File C:\Program Files (x86)\Microsoft Visual Studio\2019\Community\VC\Tools\MSVC\14.28.29333\include\xmemory

; 1693 :         _Copy_memmove(_UFirst, _ULast, _Unfancy(_Dest));

  00018	ff 75 f4	 push	 DWORD PTR $T1[ebp]
  0001b	ff 75 fc	 push	 DWORD PTR __ULast$[ebp]
  0001e	ff 75 f8	 push	 DWORD PTR __UFirst$[ebp]
  00021	e8 00 00 00 00	 call	 ??$_Copy_memmove@PAPAVCGraphicImageTexture@@PAPAV1@@std@@YAPAPAVCGraphicImageTexture@@PAPAV1@00@Z ; std::_Copy_memmove<CGraphicImageTexture * *,CGraphicImageTexture * *>
  00026	83 c4 0c	 add	 esp, 12			; 0000000cH

; 1694 :         return _Dest + (_ULast - _UFirst);

  00029	8b 45 fc	 mov	 eax, DWORD PTR __ULast$[ebp]
  0002c	2b 45 f8	 sub	 eax, DWORD PTR __UFirst$[ebp]
  0002f	c1 f8 02	 sar	 eax, 2
  00032	8b 4d 10	 mov	 ecx, DWORD PTR __Dest$[ebp]
  00035	8d 04 81	 lea	 eax, DWORD PTR [ecx+eax*4]

; 1695 :     } else {
; 1696 :         _Uninitialized_backout_al<_Alloc> _Backout{_Dest, _Al};
; 1697 :         for (; _UFirst != _ULast; ++_UFirst) {
; 1698 :             _Backout._Emplace_back(_STD move(*_UFirst));
; 1699 :         }
; 1700 : 
; 1701 :         return _Backout._Release();
; 1702 :     }
; 1703 : }

  00038	c9		 leave
  00039	c3		 ret	 0
??$_Uninitialized_move@PAPAVCGraphicImageTexture@@V?$allocator@PAVCGraphicImageTexture@@@std@@@std@@YAPAPAVCGraphicImageTexture@@QAPAV1@0PAPAV1@AAV?$allocator@PAVCGraphicImageTexture@@@0@@Z ENDP ; std::_Uninitialized_move<CGraphicImageTexture * *,std::allocator<CGraphicImageTexture *> >
_TEXT	ENDS
; Function compile flags: /Odspy
; File C:\Program Files (x86)\Microsoft Visual Studio\2019\Community\VC\Tools\MSVC\14.28.29333\include\xmemory
;	COMDAT ??$_Destroy_in_place@PAU?$_Tree_node@U?$pair@$$CBU?$pair@G_W@std@@USCharacterInfomation@CGraphicFontTexture@@@std@@PAX@std@@@std@@YAXAAPAU?$_Tree_node@U?$pair@$$CBU?$pair@G_W@std@@USCharacterInfomation@CGraphicFontTexture@@@std@@PAX@0@@Z
_TEXT	SEGMENT
__Obj$ = 8						; size = 4
??$_Destroy_in_place@PAU?$_Tree_node@U?$pair@$$CBU?$pair@G_W@std@@USCharacterInfomation@CGraphicFontTexture@@@std@@PAX@std@@@std@@YAXAAPAU?$_Tree_node@U?$pair@$$CBU?$pair@G_W@std@@USCharacterInfomation@CGraphicFontTexture@@@std@@PAX@0@@Z PROC ; std::_Destroy_in_place<std::_Tree_node<std::pair<std::pair<unsigned short,wchar_t> const ,CGraphicFontTexture::SCharacterInfomation>,void *> *>, COMDAT

; 270  : /* _CONSTEXPR20_DYNALLOC */ void _Destroy_in_place(_Ty& _Obj) noexcept {

  00000	55		 push	 ebp
  00001	8b ec		 mov	 ebp, esp

; 271  : #if _HAS_IF_CONSTEXPR
; 272  :     if constexpr (is_array_v<_Ty>) {
; 273  :         _Destroy_range(_Obj, _Obj + extent_v<_Ty>);
; 274  :     } else
; 275  : #endif // _HAS_IF_CONSTEXPR
; 276  :     {
; 277  :         _Obj.~_Ty();
; 278  :     }
; 279  : }

  00003	5d		 pop	 ebp
  00004	c3		 ret	 0
??$_Destroy_in_place@PAU?$_Tree_node@U?$pair@$$CBU?$pair@G_W@std@@USCharacterInfomation@CGraphicFontTexture@@@std@@PAX@std@@@std@@YAXAAPAU?$_Tree_node@U?$pair@$$CBU?$pair@G_W@std@@USCharacterInfomation@CGraphicFontTexture@@@std@@PAX@0@@Z ENDP ; std::_Destroy_in_place<std::_Tree_node<std::pair<std::pair<unsigned short,wchar_t> const ,CGraphicFontTexture::SCharacterInfomation>,void *> *>
_TEXT	ENDS
; Function compile flags: /Odspy
; File C:\Program Files (x86)\Microsoft Visual Studio\2019\Community\VC\Tools\MSVC\14.28.29333\include\xmemory
; File C:\Program Files (x86)\Microsoft Visual Studio\2019\Community\VC\Tools\MSVC\14.28.29333\include\xstddef
; File C:\Program Files (x86)\Microsoft Visual Studio\2019\Community\VC\Tools\MSVC\14.28.29333\include\vcruntime_new.h
; File C:\Program Files (x86)\Microsoft Visual Studio\2019\Community\VC\Tools\MSVC\14.28.29333\include\type_traits
; File C:\Program Files (x86)\Microsoft Visual Studio\2019\Community\VC\Tools\MSVC\14.28.29333\include\xmemory
;	COMDAT ??$_Construct_in_place@PAU?$_Tree_node@U?$pair@$$CBU?$pair@G_W@std@@USCharacterInfomation@CGraphicFontTexture@@@std@@PAX@std@@ABQAU12@@std@@YAXAAPAU?$_Tree_node@U?$pair@$$CBU?$pair@G_W@std@@USCharacterInfomation@CGraphicFontTexture@@@std@@PAX@0@ABQAU10@@Z
_TEXT	SEGMENT
$T1 = -12						; size = 4
$T2 = -8						; size = 4
$T3 = -4						; size = 4
__Obj$ = 8						; size = 4
_<_Args_0>$ = 12					; size = 4
??$_Construct_in_place@PAU?$_Tree_node@U?$pair@$$CBU?$pair@G_W@std@@USCharacterInfomation@CGraphicFontTexture@@@std@@PAX@std@@ABQAU12@@std@@YAXAAPAU?$_Tree_node@U?$pair@$$CBU?$pair@G_W@std@@USCharacterInfomation@CGraphicFontTexture@@@std@@PAX@0@ABQAU10@@Z PROC ; std::_Construct_in_place<std::_Tree_node<std::pair<std::pair<unsigned short,wchar_t> const ,CGraphicFontTexture::SCharacterInfomation>,void *> *,std::_Tree_node<std::pair<std::pair<unsigned short,wchar_t> const ,CGraphicFontTexture::SCharacterInfomation>,void *> * const &>, COMDAT

; 228  : void _Construct_in_place(_Ty& _Obj, _Types&&... _Args) noexcept(is_nothrow_constructible_v<_Ty, _Types...>) {

  00000	55		 push	 ebp
  00001	8b ec		 mov	 ebp, esp
  00003	83 ec 0c	 sub	 esp, 12			; 0000000cH
; File C:\Program Files (x86)\Microsoft Visual Studio\2019\Community\VC\Tools\MSVC\14.28.29333\include\xstddef

; 275  :     return __builtin_addressof(_Val);

  00006	8b 45 08	 mov	 eax, DWORD PTR __Obj$[ebp]
  00009	89 45 fc	 mov	 DWORD PTR $T3[ebp], eax
; File C:\Program Files (x86)\Microsoft Visual Studio\2019\Community\VC\Tools\MSVC\14.28.29333\include\vcruntime_new.h

; 169  :         return _Where;

  0000c	8b 45 fc	 mov	 eax, DWORD PTR $T3[ebp]
  0000f	89 45 f8	 mov	 DWORD PTR $T2[ebp], eax
; File C:\Program Files (x86)\Microsoft Visual Studio\2019\Community\VC\Tools\MSVC\14.28.29333\include\type_traits

; 1443 :     return static_cast<_Ty&&>(_Arg);

  00012	8b 45 0c	 mov	 eax, DWORD PTR _<_Args_0>$[ebp]
  00015	89 45 f4	 mov	 DWORD PTR $T1[ebp], eax
; File C:\Program Files (x86)\Microsoft Visual Studio\2019\Community\VC\Tools\MSVC\14.28.29333\include\xmemory

; 229  :     ::new (const_cast<void*>(static_cast<const volatile void*>(_STD addressof(_Obj))))

  00018	8b 45 f8	 mov	 eax, DWORD PTR $T2[ebp]
  0001b	8b 4d f4	 mov	 ecx, DWORD PTR $T1[ebp]
  0001e	8b 09		 mov	 ecx, DWORD PTR [ecx]
  00020	89 08		 mov	 DWORD PTR [eax], ecx

; 230  :         _Ty(_STD forward<_Types>(_Args)...);
; 231  : }

  00022	c9		 leave
  00023	c3		 ret	 0
??$_Construct_in_place@PAU?$_Tree_node@U?$pair@$$CBU?$pair@G_W@std@@USCharacterInfomation@CGraphicFontTexture@@@std@@PAX@std@@ABQAU12@@std@@YAXAAPAU?$_Tree_node@U?$pair@$$CBU?$pair@G_W@std@@USCharacterInfomation@CGraphicFontTexture@@@std@@PAX@0@ABQAU10@@Z ENDP ; std::_Construct_in_place<std::_Tree_node<std::pair<std::pair<unsigned short,wchar_t> const ,CGraphicFontTexture::SCharacterInfomation>,void *> *,std::_Tree_node<std::pair<std::pair<unsigned short,wchar_t> const ,CGraphicFontTexture::SCharacterInfomation>,void *> * const &>
_TEXT	ENDS
; Function compile flags: /Odspy
; File C:\Program Files (x86)\Microsoft Visual Studio\2019\Community\VC\Tools\MSVC\14.28.29333\include\xmemory
; File C:\Program Files (x86)\Microsoft Visual Studio\2019\Community\VC\Tools\MSVC\14.28.29333\include\xstddef
; File C:\Program Files (x86)\Microsoft Visual Studio\2019\Community\VC\Tools\MSVC\14.28.29333\include\vcruntime_new.h
; File C:\Program Files (x86)\Microsoft Visual Studio\2019\Community\VC\Tools\MSVC\14.28.29333\include\type_traits
; File C:\Program Files (x86)\Microsoft Visual Studio\2019\Community\VC\Tools\MSVC\14.28.29333\include\xmemory
;	COMDAT ??$_Construct_in_place@PAU?$_Tree_node@U?$pair@$$CBGPAUHFONT__@@@std@@PAX@std@@ABQAU12@@std@@YAXAAPAU?$_Tree_node@U?$pair@$$CBGPAUHFONT__@@@std@@PAX@0@ABQAU10@@Z
_TEXT	SEGMENT
$T1 = -12						; size = 4
$T2 = -8						; size = 4
$T3 = -4						; size = 4
__Obj$ = 8						; size = 4
_<_Args_0>$ = 12					; size = 4
??$_Construct_in_place@PAU?$_Tree_node@U?$pair@$$CBGPAUHFONT__@@@std@@PAX@std@@ABQAU12@@std@@YAXAAPAU?$_Tree_node@U?$pair@$$CBGPAUHFONT__@@@std@@PAX@0@ABQAU10@@Z PROC ; std::_Construct_in_place<std::_Tree_node<std::pair<unsigned short const ,HFONT__ *>,void *> *,std::_Tree_node<std::pair<unsigned short const ,HFONT__ *>,void *> * const &>, COMDAT

; 228  : void _Construct_in_place(_Ty& _Obj, _Types&&... _Args) noexcept(is_nothrow_constructible_v<_Ty, _Types...>) {

  00000	55		 push	 ebp
  00001	8b ec		 mov	 ebp, esp
  00003	83 ec 0c	 sub	 esp, 12			; 0000000cH
; File C:\Program Files (x86)\Microsoft Visual Studio\2019\Community\VC\Tools\MSVC\14.28.29333\include\xstddef

; 275  :     return __builtin_addressof(_Val);

  00006	8b 45 08	 mov	 eax, DWORD PTR __Obj$[ebp]
  00009	89 45 fc	 mov	 DWORD PTR $T3[ebp], eax
; File C:\Program Files (x86)\Microsoft Visual Studio\2019\Community\VC\Tools\MSVC\14.28.29333\include\vcruntime_new.h

; 169  :         return _Where;

  0000c	8b 45 fc	 mov	 eax, DWORD PTR $T3[ebp]
  0000f	89 45 f8	 mov	 DWORD PTR $T2[ebp], eax
; File C:\Program Files (x86)\Microsoft Visual Studio\2019\Community\VC\Tools\MSVC\14.28.29333\include\type_traits

; 1443 :     return static_cast<_Ty&&>(_Arg);

  00012	8b 45 0c	 mov	 eax, DWORD PTR _<_Args_0>$[ebp]
  00015	89 45 f4	 mov	 DWORD PTR $T1[ebp], eax
; File C:\Program Files (x86)\Microsoft Visual Studio\2019\Community\VC\Tools\MSVC\14.28.29333\include\xmemory

; 229  :     ::new (const_cast<void*>(static_cast<const volatile void*>(_STD addressof(_Obj))))

  00018	8b 45 f8	 mov	 eax, DWORD PTR $T2[ebp]
  0001b	8b 4d f4	 mov	 ecx, DWORD PTR $T1[ebp]
  0001e	8b 09		 mov	 ecx, DWORD PTR [ecx]
  00020	89 08		 mov	 DWORD PTR [eax], ecx

; 230  :         _Ty(_STD forward<_Types>(_Args)...);
; 231  : }

  00022	c9		 leave
  00023	c3		 ret	 0
??$_Construct_in_place@PAU?$_Tree_node@U?$pair@$$CBGPAUHFONT__@@@std@@PAX@std@@ABQAU12@@std@@YAXAAPAU?$_Tree_node@U?$pair@$$CBGPAUHFONT__@@@std@@PAX@0@ABQAU10@@Z ENDP ; std::_Construct_in_place<std::_Tree_node<std::pair<unsigned short const ,HFONT__ *>,void *> *,std::_Tree_node<std::pair<unsigned short const ,HFONT__ *>,void *> * const &>
_TEXT	ENDS
; Function compile flags: /Odspy
; File C:\Program Files (x86)\Microsoft Visual Studio\2019\Community\VC\Tools\MSVC\14.28.29333\include\xtree
; File C:\Program Files (x86)\Microsoft Visual Studio\2019\Community\VC\Tools\MSVC\14.28.29333\include\xmemory
; File C:\Program Files (x86)\Microsoft Visual Studio\2019\Community\VC\Tools\MSVC\14.28.29333\include\xtree
;	COMDAT ??$_Freenode0@V?$allocator@U?$_Tree_node@U?$pair@$$CBU?$pair@G_W@std@@USCharacterInfomation@CGraphicFontTexture@@@std@@PAX@std@@@std@@@?$_Tree_node@U?$pair@$$CBU?$pair@G_W@std@@USCharacterInfomation@CGraphicFontTexture@@@std@@PAX@std@@SAXAAV?$allocator@U?$_Tree_node@U?$pair@$$CBU?$pair@G_W@std@@USCharacterInfomation@CGraphicFontTexture@@@std@@PAX@std@@@1@PAU01@@Z
_TEXT	SEGMENT
__Al$ = 8						; size = 4
__Ptr$ = 12						; size = 4
??$_Freenode0@V?$allocator@U?$_Tree_node@U?$pair@$$CBU?$pair@G_W@std@@USCharacterInfomation@CGraphicFontTexture@@@std@@PAX@std@@@std@@@?$_Tree_node@U?$pair@$$CBU?$pair@G_W@std@@USCharacterInfomation@CGraphicFontTexture@@@std@@PAX@std@@SAXAAV?$allocator@U?$_Tree_node@U?$pair@$$CBU?$pair@G_W@std@@USCharacterInfomation@CGraphicFontTexture@@@std@@PAX@std@@@1@PAU01@@Z PROC ; std::_Tree_node<std::pair<std::pair<unsigned short,wchar_t> const ,CGraphicFontTexture::SCharacterInfomation>,void *>::_Freenode0<std::allocator<std::_Tree_node<std::pair<std::pair<unsigned short,wchar_t> const ,CGraphicFontTexture::SCharacterInfomation>,void *> > >, COMDAT

; 368  :     static void _Freenode0(_Alloc& _Al, _Nodeptr _Ptr) noexcept {

  00000	55		 push	 ebp
  00001	8b ec		 mov	 ebp, esp

; 369  :         static_assert(is_same_v<typename _Alloc::value_type, _Tree_node>, "Bad _Freenode0 call");
; 370  :         _Destroy_in_place(_Ptr->_Left);

  00003	ff 75 0c	 push	 DWORD PTR __Ptr$[ebp]
  00006	e8 00 00 00 00	 call	 ??$_Destroy_in_place@PAU?$_Tree_node@U?$pair@$$CBU?$pair@G_W@std@@USCharacterInfomation@CGraphicFontTexture@@@std@@PAX@std@@@std@@YAXAAPAU?$_Tree_node@U?$pair@$$CBU?$pair@G_W@std@@USCharacterInfomation@CGraphicFontTexture@@@std@@PAX@0@@Z ; std::_Destroy_in_place<std::_Tree_node<std::pair<std::pair<unsigned short,wchar_t> const ,CGraphicFontTexture::SCharacterInfomation>,void *> *>
  0000b	59		 pop	 ecx

; 371  :         _Destroy_in_place(_Ptr->_Parent);

  0000c	8b 45 0c	 mov	 eax, DWORD PTR __Ptr$[ebp]
  0000f	83 c0 04	 add	 eax, 4
  00012	50		 push	 eax
  00013	e8 00 00 00 00	 call	 ??$_Destroy_in_place@PAU?$_Tree_node@U?$pair@$$CBU?$pair@G_W@std@@USCharacterInfomation@CGraphicFontTexture@@@std@@PAX@std@@@std@@YAXAAPAU?$_Tree_node@U?$pair@$$CBU?$pair@G_W@std@@USCharacterInfomation@CGraphicFontTexture@@@std@@PAX@0@@Z ; std::_Destroy_in_place<std::_Tree_node<std::pair<std::pair<unsigned short,wchar_t> const ,CGraphicFontTexture::SCharacterInfomation>,void *> *>
  00018	59		 pop	 ecx

; 372  :         _Destroy_in_place(_Ptr->_Right);

  00019	8b 45 0c	 mov	 eax, DWORD PTR __Ptr$[ebp]
  0001c	83 c0 08	 add	 eax, 8
  0001f	50		 push	 eax
  00020	e8 00 00 00 00	 call	 ??$_Destroy_in_place@PAU?$_Tree_node@U?$pair@$$CBU?$pair@G_W@std@@USCharacterInfomation@CGraphicFontTexture@@@std@@PAX@std@@@std@@YAXAAPAU?$_Tree_node@U?$pair@$$CBU?$pair@G_W@std@@USCharacterInfomation@CGraphicFontTexture@@@std@@PAX@0@@Z ; std::_Destroy_in_place<std::_Tree_node<std::pair<std::pair<unsigned short,wchar_t> const ,CGraphicFontTexture::SCharacterInfomation>,void *> *>
  00025	59		 pop	 ecx
; File C:\Program Files (x86)\Microsoft Visual Studio\2019\Community\VC\Tools\MSVC\14.28.29333\include\xmemory

; 696  :         _Deallocate<_New_alignof<value_type>>(_Ptr, sizeof(value_type) * _Count);

  00026	33 c0		 xor	 eax, eax
  00028	40		 inc	 eax
  00029	6b c0 30	 imul	 eax, eax, 48
  0002c	50		 push	 eax
  0002d	ff 75 0c	 push	 DWORD PTR __Ptr$[ebp]
  00030	e8 00 00 00 00	 call	 ??$_Deallocate@$07$0A@@std@@YAXPAXI@Z ; std::_Deallocate<8,0>
  00035	59		 pop	 ecx
  00036	59		 pop	 ecx
; File C:\Program Files (x86)\Microsoft Visual Studio\2019\Community\VC\Tools\MSVC\14.28.29333\include\xtree

; 374  :     }

  00037	5d		 pop	 ebp
  00038	c3		 ret	 0
??$_Freenode0@V?$allocator@U?$_Tree_node@U?$pair@$$CBU?$pair@G_W@std@@USCharacterInfomation@CGraphicFontTexture@@@std@@PAX@std@@@std@@@?$_Tree_node@U?$pair@$$CBU?$pair@G_W@std@@USCharacterInfomation@CGraphicFontTexture@@@std@@PAX@std@@SAXAAV?$allocator@U?$_Tree_node@U?$pair@$$CBU?$pair@G_W@std@@USCharacterInfomation@CGraphicFontTexture@@@std@@PAX@std@@@1@PAU01@@Z ENDP ; std::_Tree_node<std::pair<std::pair<unsigned short,wchar_t> const ,CGraphicFontTexture::SCharacterInfomation>,void *>::_Freenode0<std::allocator<std::_Tree_node<std::pair<std::pair<unsigned short,wchar_t> const ,CGraphicFontTexture::SCharacterInfomation>,void *> > >
_TEXT	ENDS
; Function compile flags: /Odspy
; File C:\Program Files (x86)\Microsoft Visual Studio\2019\Community\VC\Tools\MSVC\14.28.29333\include\xtree
; File C:\Program Files (x86)\Microsoft Visual Studio\2019\Community\VC\Tools\MSVC\14.28.29333\include\xmemory
; File C:\Program Files (x86)\Microsoft Visual Studio\2019\Community\VC\Tools\MSVC\14.28.29333\include\xtree
; File C:\Program Files (x86)\Microsoft Visual Studio\2019\Community\VC\Tools\MSVC\14.28.29333\include\type_traits
; File C:\Program Files (x86)\Microsoft Visual Studio\2019\Community\VC\Tools\MSVC\14.28.29333\include\xtree
; File C:\Program Files (x86)\Microsoft Visual Studio\2019\Community\VC\Tools\MSVC\14.28.29333\include\xstddef
; File C:\Program Files (x86)\Microsoft Visual Studio\2019\Community\VC\Tools\MSVC\14.28.29333\include\xtree
;	COMDAT ??$?0ABUpiecewise_construct_t@std@@V?$tuple@ABU?$pair@G_W@std@@@1@V?$tuple@$$V@1@@?$_Tree_temp_node@V?$allocator@U?$_Tree_node@U?$pair@$$CBU?$pair@G_W@std@@USCharacterInfomation@CGraphicFontTexture@@@std@@PAX@std@@@std@@@std@@QAE@AAV?$allocator@U?$_Tree_node@U?$pair@$$CBU?$pair@G_W@std@@USCharacterInfomation@CGraphicFontTexture@@@std@@PAX@std@@@1@PAU?$_Tree_node@U?$pair@$$CBU?$pair@G_W@std@@USCharacterInfomation@CGraphicFontTexture@@@std@@PAX@1@ABUpiecewise_construct_t@1@$$QAV?$tuple@ABU?$pair@G_W@std@@@1@$$QAV?$tuple@$$V@1@@Z
_TEXT	SEGMENT
$T2 = -36						; size = 4
$T3 = -32						; size = 4
$T4 = -28						; size = 4
$T5 = -24						; size = 4
__Val$ = -20						; size = 4
_this$ = -16						; size = 4
__$EHRec$ = -12						; size = 12
__Al_$ = 8						; size = 4
__Myhead$ = 12						; size = 4
_<_Vals_0>$ = 16					; size = 4
_<_Vals_1>$ = 20					; size = 4
_<_Vals_2>$ = 24					; size = 4
??$?0ABUpiecewise_construct_t@std@@V?$tuple@ABU?$pair@G_W@std@@@1@V?$tuple@$$V@1@@?$_Tree_temp_node@V?$allocator@U?$_Tree_node@U?$pair@$$CBU?$pair@G_W@std@@USCharacterInfomation@CGraphicFontTexture@@@std@@PAX@std@@@std@@@std@@QAE@AAV?$allocator@U?$_Tree_node@U?$pair@$$CBU?$pair@G_W@std@@USCharacterInfomation@CGraphicFontTexture@@@std@@PAX@std@@@1@PAU?$_Tree_node@U?$pair@$$CBU?$pair@G_W@std@@USCharacterInfomation@CGraphicFontTexture@@@std@@PAX@1@ABUpiecewise_construct_t@1@$$QAV?$tuple@ABU?$pair@G_W@std@@@1@$$QAV?$tuple@$$V@1@@Z PROC ; std::_Tree_temp_node<std::allocator<std::_Tree_node<std::pair<std::pair<unsigned short,wchar_t> const ,CGraphicFontTexture::SCharacterInfomation>,void *> > >::_Tree_temp_node<std::allocator<std::_Tree_node<std::pair<std::pair<unsigned short,wchar_t> const ,CGraphicFontTexture::SCharacterInfomation>,void *> > ><std::piecewise_construct_t const &,std::tuple<std::pair<unsigned short,wchar_t> const &>,std::tuple<> >, COMDAT
; _this$ = ecx

; 805  :         : _Tree_temp_node_alloc<_Alnode>(_Al_) {

  00000	55		 push	 ebp
  00001	8b ec		 mov	 ebp, esp
  00003	6a ff		 push	 -1
  00005	68 00 00 00 00	 push	 __ehhandler$??$?0ABUpiecewise_construct_t@std@@V?$tuple@ABU?$pair@G_W@std@@@1@V?$tuple@$$V@1@@?$_Tree_temp_node@V?$allocator@U?$_Tree_node@U?$pair@$$CBU?$pair@G_W@std@@USCharacterInfomation@CGraphicFontTexture@@@std@@PAX@std@@@std@@@std@@QAE@AAV?$allocator@U?$_Tree_node@U?$pair@$$CBU?$pair@G_W@std@@USCharacterInfomation@CGraphicFontTexture@@@std@@PAX@std@@@1@PAU?$_Tree_node@U?$pair@$$CBU?$pair@G_W@std@@USCharacterInfomation@CGraphicFontTexture@@@std@@PAX@1@ABUpiecewise_construct_t@1@$$QAV?$tuple@ABU?$pair@G_W@std@@@1@$$QAV?$tuple@$$V@1@@Z
  0000a	64 a1 00 00 00
	00		 mov	 eax, DWORD PTR fs:0
  00010	50		 push	 eax
  00011	83 ec 18	 sub	 esp, 24			; 00000018H
  00014	a1 00 00 00 00	 mov	 eax, DWORD PTR ___security_cookie
  00019	33 c5		 xor	 eax, ebp
  0001b	50		 push	 eax
  0001c	8d 45 f4	 lea	 eax, DWORD PTR __$EHRec$[ebp]
  0001f	64 a3 00 00 00
	00		 mov	 DWORD PTR fs:0, eax
  00025	89 4d f0	 mov	 DWORD PTR _this$[ebp], ecx
; File C:\Program Files (x86)\Microsoft Visual Studio\2019\Community\VC\Tools\MSVC\14.28.29333\include\xmemory

; 1045 :     explicit _Alloc_construct_ptr(_Alloc& _Al_) : _Al(_Al_), _Ptr(nullptr) {}

  00028	8b 45 f0	 mov	 eax, DWORD PTR _this$[ebp]
  0002b	8b 4d 08	 mov	 ecx, DWORD PTR __Al_$[ebp]
  0002e	89 08		 mov	 DWORD PTR [eax], ecx
  00030	8b 45 f0	 mov	 eax, DWORD PTR _this$[ebp]
  00033	83 60 04 00	 and	 DWORD PTR [eax+4], 0
; File C:\Program Files (x86)\Microsoft Visual Studio\2019\Community\VC\Tools\MSVC\14.28.29333\include\xtree

; 784  :     explicit _Tree_temp_node_alloc(_Alnode& _Al_) : _Alloc_construct_ptr<_Alnode>(_Al_) {

  00037	83 65 fc 00	 and	 DWORD PTR __$EHRec$[ebp+8], 0

; 785  :         _Alloc_construct_ptr<_Alnode>::_Allocate();

  0003b	8b 4d f0	 mov	 ecx, DWORD PTR _this$[ebp]
  0003e	e8 00 00 00 00	 call	 ?_Allocate@?$_Alloc_construct_ptr@V?$allocator@U?$_Tree_node@U?$pair@$$CBU?$pair@G_W@std@@USCharacterInfomation@CGraphicFontTexture@@@std@@PAX@std@@@std@@@std@@QAEXXZ ; std::_Alloc_construct_ptr<std::allocator<std::_Tree_node<std::pair<std::pair<unsigned short,wchar_t> const ,CGraphicFontTexture::SCharacterInfomation>,void *> > >::_Allocate

; 805  :         : _Tree_temp_node_alloc<_Alnode>(_Al_) {

  00043	c7 45 fc 01 00
	00 00		 mov	 DWORD PTR __$EHRec$[ebp+8], 1
; File C:\Program Files (x86)\Microsoft Visual Studio\2019\Community\VC\Tools\MSVC\14.28.29333\include\type_traits

; 1443 :     return static_cast<_Ty&&>(_Arg);

  0004a	8b 45 18	 mov	 eax, DWORD PTR _<_Vals_2>$[ebp]
  0004d	89 45 e8	 mov	 DWORD PTR $T5[ebp], eax
  00050	8b 45 14	 mov	 eax, DWORD PTR _<_Vals_1>$[ebp]
  00053	89 45 e4	 mov	 DWORD PTR $T4[ebp], eax
  00056	8b 45 10	 mov	 eax, DWORD PTR _<_Vals_0>$[ebp]
  00059	89 45 e0	 mov	 DWORD PTR $T3[ebp], eax
; File C:\Program Files (x86)\Microsoft Visual Studio\2019\Community\VC\Tools\MSVC\14.28.29333\include\xtree

; 806  :         _Alnode_traits::construct(this->_Al, _STD addressof(this->_Ptr->_Myval), _STD forward<_Valtys>(_Vals)...);

  0005c	8b 45 f0	 mov	 eax, DWORD PTR _this$[ebp]
  0005f	8b 40 04	 mov	 eax, DWORD PTR [eax+4]
  00062	83 c0 10	 add	 eax, 16			; 00000010H
  00065	89 45 ec	 mov	 DWORD PTR __Val$[ebp], eax
; File C:\Program Files (x86)\Microsoft Visual Studio\2019\Community\VC\Tools\MSVC\14.28.29333\include\xstddef

; 275  :     return __builtin_addressof(_Val);

  00068	8b 45 ec	 mov	 eax, DWORD PTR __Val$[ebp]
  0006b	89 45 dc	 mov	 DWORD PTR $T2[ebp], eax
; File C:\Program Files (x86)\Microsoft Visual Studio\2019\Community\VC\Tools\MSVC\14.28.29333\include\xtree

; 806  :         _Alnode_traits::construct(this->_Al, _STD addressof(this->_Ptr->_Myval), _STD forward<_Valtys>(_Vals)...);

  0006e	ff 75 e8	 push	 DWORD PTR $T5[ebp]
  00071	ff 75 e4	 push	 DWORD PTR $T4[ebp]
  00074	ff 75 e0	 push	 DWORD PTR $T3[ebp]
  00077	ff 75 dc	 push	 DWORD PTR $T2[ebp]
  0007a	8b 45 f0	 mov	 eax, DWORD PTR _this$[ebp]
  0007d	ff 30		 push	 DWORD PTR [eax]
  0007f	e8 00 00 00 00	 call	 ??$construct@U?$pair@$$CBU?$pair@G_W@std@@USCharacterInfomation@CGraphicFontTexture@@@std@@ABUpiecewise_construct_t@2@V?$tuple@ABU?$pair@G_W@std@@@2@V?$tuple@$$V@2@@?$_Default_allocator_traits@V?$allocator@U?$_Tree_node@U?$pair@$$CBU?$pair@G_W@std@@USCharacterInfomation@CGraphicFontTexture@@@std@@PAX@std@@@std@@@std@@SAXAAV?$allocator@U?$_Tree_node@U?$pair@$$CBU?$pair@G_W@std@@USCharacterInfomation@CGraphicFontTexture@@@std@@PAX@std@@@1@QAU?$pair@$$CBU?$pair@G_W@std@@USCharacterInfomation@CGraphicFontTexture@@@1@ABUpiecewise_construct_t@1@$$QAV?$tuple@ABU?$pair@G_W@std@@@1@$$QAV?$tuple@$$V@1@@Z ; std::_Default_allocator_traits<std::allocator<std::_Tree_node<std::pair<std::pair<unsigned short,wchar_t> const ,CGraphicFontTexture::SCharacterInfomation>,void *> > >::construct<std::pair<std::pair<unsigned short,wchar_t> const ,CGraphicFontTexture::SCharacterInfomation>,std::piecewise_construct_t const &,std::tuple<std::pair<unsigned short,wchar_t> const &>,std::tuple<> >
  00084	83 c4 14	 add	 esp, 20			; 00000014H

; 807  :         _Construct_in_place(this->_Ptr->_Left, _Myhead);

  00087	8d 45 0c	 lea	 eax, DWORD PTR __Myhead$[ebp]
  0008a	50		 push	 eax
  0008b	8b 45 f0	 mov	 eax, DWORD PTR _this$[ebp]
  0008e	ff 70 04	 push	 DWORD PTR [eax+4]
  00091	e8 00 00 00 00	 call	 ??$_Construct_in_place@PAU?$_Tree_node@U?$pair@$$CBU?$pair@G_W@std@@USCharacterInfomation@CGraphicFontTexture@@@std@@PAX@std@@AAPAU12@@std@@YAXAAPAU?$_Tree_node@U?$pair@$$CBU?$pair@G_W@std@@USCharacterInfomation@CGraphicFontTexture@@@std@@PAX@0@0@Z ; std::_Construct_in_place<std::_Tree_node<std::pair<std::pair<unsigned short,wchar_t> const ,CGraphicFontTexture::SCharacterInfomation>,void *> *,std::_Tree_node<std::pair<std::pair<unsigned short,wchar_t> const ,CGraphicFontTexture::SCharacterInfomation>,void *> * &>
  00096	59		 pop	 ecx
  00097	59		 pop	 ecx

; 808  :         _Construct_in_place(this->_Ptr->_Parent, _Myhead);

  00098	8d 45 0c	 lea	 eax, DWORD PTR __Myhead$[ebp]
  0009b	50		 push	 eax
  0009c	8b 45 f0	 mov	 eax, DWORD PTR _this$[ebp]
  0009f	8b 40 04	 mov	 eax, DWORD PTR [eax+4]
  000a2	83 c0 04	 add	 eax, 4
  000a5	50		 push	 eax
  000a6	e8 00 00 00 00	 call	 ??$_Construct_in_place@PAU?$_Tree_node@U?$pair@$$CBU?$pair@G_W@std@@USCharacterInfomation@CGraphicFontTexture@@@std@@PAX@std@@AAPAU12@@std@@YAXAAPAU?$_Tree_node@U?$pair@$$CBU?$pair@G_W@std@@USCharacterInfomation@CGraphicFontTexture@@@std@@PAX@0@0@Z ; std::_Construct_in_place<std::_Tree_node<std::pair<std::pair<unsigned short,wchar_t> const ,CGraphicFontTexture::SCharacterInfomation>,void *> *,std::_Tree_node<std::pair<std::pair<unsigned short,wchar_t> const ,CGraphicFontTexture::SCharacterInfomation>,void *> * &>
  000ab	59		 pop	 ecx
  000ac	59		 pop	 ecx

; 809  :         _Construct_in_place(this->_Ptr->_Right, _Myhead);

  000ad	8d 45 0c	 lea	 eax, DWORD PTR __Myhead$[ebp]
  000b0	50		 push	 eax
  000b1	8b 45 f0	 mov	 eax, DWORD PTR _this$[ebp]
  000b4	8b 40 04	 mov	 eax, DWORD PTR [eax+4]
  000b7	83 c0 08	 add	 eax, 8
  000ba	50		 push	 eax
  000bb	e8 00 00 00 00	 call	 ??$_Construct_in_place@PAU?$_Tree_node@U?$pair@$$CBU?$pair@G_W@std@@USCharacterInfomation@CGraphicFontTexture@@@std@@PAX@std@@AAPAU12@@std@@YAXAAPAU?$_Tree_node@U?$pair@$$CBU?$pair@G_W@std@@USCharacterInfomation@CGraphicFontTexture@@@std@@PAX@0@0@Z ; std::_Construct_in_place<std::_Tree_node<std::pair<std::pair<unsigned short,wchar_t> const ,CGraphicFontTexture::SCharacterInfomation>,void *> *,std::_Tree_node<std::pair<std::pair<unsigned short,wchar_t> const ,CGraphicFontTexture::SCharacterInfomation>,void *> * &>
  000c0	59		 pop	 ecx
  000c1	59		 pop	 ecx

; 810  :         this->_Ptr->_Color = _Red;

  000c2	8b 45 f0	 mov	 eax, DWORD PTR _this$[ebp]
  000c5	8b 40 04	 mov	 eax, DWORD PTR [eax+4]
  000c8	c6 40 0c 00	 mov	 BYTE PTR [eax+12], 0

; 811  :         this->_Ptr->_Isnil = false;

  000cc	8b 45 f0	 mov	 eax, DWORD PTR _this$[ebp]
  000cf	8b 40 04	 mov	 eax, DWORD PTR [eax+4]
  000d2	c6 40 0d 00	 mov	 BYTE PTR [eax+13], 0

; 812  :     }

  000d6	83 4d fc ff	 or	 DWORD PTR __$EHRec$[ebp+8], -1
  000da	8b 45 f0	 mov	 eax, DWORD PTR _this$[ebp]
  000dd	8b 4d f4	 mov	 ecx, DWORD PTR __$EHRec$[ebp]
  000e0	64 89 0d 00 00
	00 00		 mov	 DWORD PTR fs:0, ecx
  000e7	59		 pop	 ecx
  000e8	c9		 leave
  000e9	c2 14 00	 ret	 20			; 00000014H
_TEXT	ENDS
;	COMDAT text$x
text$x	SEGMENT
__unwindfunclet$??$?0ABUpiecewise_construct_t@std@@V?$tuple@ABU?$pair@G_W@std@@@1@V?$tuple@$$V@1@@?$_Tree_temp_node@V?$allocator@U?$_Tree_node@U?$pair@$$CBU?$pair@G_W@std@@USCharacterInfomation@CGraphicFontTexture@@@std@@PAX@std@@@std@@@std@@QAE@AAV?$allocator@U?$_Tree_node@U?$pair@$$CBU?$pair@G_W@std@@USCharacterInfomation@CGraphicFontTexture@@@std@@PAX@std@@@1@PAU?$_Tree_node@U?$pair@$$CBU?$pair@G_W@std@@USCharacterInfomation@CGraphicFontTexture@@@std@@PAX@1@ABUpiecewise_construct_t@1@$$QAV?$tuple@ABU?$pair@G_W@std@@@1@$$QAV?$tuple@$$V@1@@Z$1:
  00000	8b 4d f0	 mov	 ecx, DWORD PTR _this$[ebp]
  00003	e9 00 00 00 00	 jmp	 ??1?$_Alloc_construct_ptr@V?$allocator@U?$_Tree_node@U?$pair@$$CBU?$pair@G_W@std@@USCharacterInfomation@CGraphicFontTexture@@@std@@PAX@std@@@std@@@std@@QAE@XZ ; std::_Alloc_construct_ptr<std::allocator<std::_Tree_node<std::pair<std::pair<unsigned short,wchar_t> const ,CGraphicFontTexture::SCharacterInfomation>,void *> > >::~_Alloc_construct_ptr<std::allocator<std::_Tree_node<std::pair<std::pair<unsigned short,wchar_t> const ,CGraphicFontTexture::SCharacterInfomation>,void *> > >
__unwindfunclet$??$?0ABUpiecewise_construct_t@std@@V?$tuple@ABU?$pair@G_W@std@@@1@V?$tuple@$$V@1@@?$_Tree_temp_node@V?$allocator@U?$_Tree_node@U?$pair@$$CBU?$pair@G_W@std@@USCharacterInfomation@CGraphicFontTexture@@@std@@PAX@std@@@std@@@std@@QAE@AAV?$allocator@U?$_Tree_node@U?$pair@$$CBU?$pair@G_W@std@@USCharacterInfomation@CGraphicFontTexture@@@std@@PAX@std@@@1@PAU?$_Tree_node@U?$pair@$$CBU?$pair@G_W@std@@USCharacterInfomation@CGraphicFontTexture@@@std@@PAX@1@ABUpiecewise_construct_t@1@$$QAV?$tuple@ABU?$pair@G_W@std@@@1@$$QAV?$tuple@$$V@1@@Z$0:
  00008	8b 4d f0	 mov	 ecx, DWORD PTR _this$[ebp]
  0000b	e9 00 00 00 00	 jmp	 ??1?$_Tree_temp_node_alloc@V?$allocator@U?$_Tree_node@U?$pair@$$CBU?$pair@G_W@std@@USCharacterInfomation@CGraphicFontTexture@@@std@@PAX@std@@@std@@@std@@QAE@XZ
  00010	cc		 int	 3
  00011	cc		 int	 3
  00012	cc		 int	 3
  00013	cc		 int	 3
  00014	cc		 int	 3
__ehhandler$??$?0ABUpiecewise_construct_t@std@@V?$tuple@ABU?$pair@G_W@std@@@1@V?$tuple@$$V@1@@?$_Tree_temp_node@V?$allocator@U?$_Tree_node@U?$pair@$$CBU?$pair@G_W@std@@USCharacterInfomation@CGraphicFontTexture@@@std@@PAX@std@@@std@@@std@@QAE@AAV?$allocator@U?$_Tree_node@U?$pair@$$CBU?$pair@G_W@std@@USCharacterInfomation@CGraphicFontTexture@@@std@@PAX@std@@@1@PAU?$_Tree_node@U?$pair@$$CBU?$pair@G_W@std@@USCharacterInfomation@CGraphicFontTexture@@@std@@PAX@1@ABUpiecewise_construct_t@1@$$QAV?$tuple@ABU?$pair@G_W@std@@@1@$$QAV?$tuple@$$V@1@@Z:
  00015	90		 npad	 1
  00016	90		 npad	 1
  00017	8b 54 24 08	 mov	 edx, DWORD PTR [esp+8]
  0001b	8d 42 0c	 lea	 eax, DWORD PTR [edx+12]
  0001e	8b 4a e4	 mov	 ecx, DWORD PTR [edx-28]
  00021	33 c8		 xor	 ecx, eax
  00023	e8 00 00 00 00	 call	 @__security_check_cookie@4
  00028	b8 00 00 00 00	 mov	 eax, OFFSET __ehfuncinfo$??$?0ABUpiecewise_construct_t@std@@V?$tuple@ABU?$pair@G_W@std@@@1@V?$tuple@$$V@1@@?$_Tree_temp_node@V?$allocator@U?$_Tree_node@U?$pair@$$CBU?$pair@G_W@std@@USCharacterInfomation@CGraphicFontTexture@@@std@@PAX@std@@@std@@@std@@QAE@AAV?$allocator@U?$_Tree_node@U?$pair@$$CBU?$pair@G_W@std@@USCharacterInfomation@CGraphicFontTexture@@@std@@PAX@std@@@1@PAU?$_Tree_node@U?$pair@$$CBU?$pair@G_W@std@@USCharacterInfomation@CGraphicFontTexture@@@std@@PAX@1@ABUpiecewise_construct_t@1@$$QAV?$tuple@ABU?$pair@G_W@std@@@1@$$QAV?$tuple@$$V@1@@Z
  0002d	e9 00 00 00 00	 jmp	 ___CxxFrameHandler3
text$x	ENDS
??$?0ABUpiecewise_construct_t@std@@V?$tuple@ABU?$pair@G_W@std@@@1@V?$tuple@$$V@1@@?$_Tree_temp_node@V?$allocator@U?$_Tree_node@U?$pair@$$CBU?$pair@G_W@std@@USCharacterInfomation@CGraphicFontTexture@@@std@@PAX@std@@@std@@@std@@QAE@AAV?$allocator@U?$_Tree_node@U?$pair@$$CBU?$pair@G_W@std@@USCharacterInfomation@CGraphicFontTexture@@@std@@PAX@std@@@1@PAU?$_Tree_node@U?$pair@$$CBU?$pair@G_W@std@@USCharacterInfomation@CGraphicFontTexture@@@std@@PAX@1@ABUpiecewise_construct_t@1@$$QAV?$tuple@ABU?$pair@G_W@std@@@1@$$QAV?$tuple@$$V@1@@Z ENDP ; std::_Tree_temp_node<std::allocator<std::_Tree_node<std::pair<std::pair<unsigned short,wchar_t> const ,CGraphicFontTexture::SCharacterInfomation>,void *> > >::_Tree_temp_node<std::allocator<std::_Tree_node<std::pair<std::pair<unsigned short,wchar_t> const ,CGraphicFontTexture::SCharacterInfomation>,void *> > ><std::piecewise_construct_t const &,std::tuple<std::pair<unsigned short,wchar_t> const &>,std::tuple<> >
; Function compile flags: /Odspy
; File C:\Program Files (x86)\Microsoft Visual Studio\2019\Community\VC\Tools\MSVC\14.28.29333\include\xtree
; File C:\Program Files (x86)\Microsoft Visual Studio\2019\Community\VC\Tools\MSVC\14.28.29333\include\xstddef
; File C:\Program Files (x86)\Microsoft Visual Studio\2019\Community\VC\Tools\MSVC\14.28.29333\include\xtree
;	COMDAT ??1?$_Tree_temp_node@V?$allocator@U?$_Tree_node@U?$pair@$$CBU?$pair@G_W@std@@USCharacterInfomation@CGraphicFontTexture@@@std@@PAX@std@@@std@@@std@@QAE@XZ
_TEXT	SEGMENT
$T1 = -12						; size = 4
__Val$ = -8						; size = 4
_this$ = -4						; size = 4
??1?$_Tree_temp_node@V?$allocator@U?$_Tree_node@U?$pair@$$CBU?$pair@G_W@std@@USCharacterInfomation@CGraphicFontTexture@@@std@@PAX@std@@@std@@@std@@QAE@XZ PROC ; std::_Tree_temp_node<std::allocator<std::_Tree_node<std::pair<std::pair<unsigned short,wchar_t> const ,CGraphicFontTexture::SCharacterInfomation>,void *> > >::~_Tree_temp_node<std::allocator<std::_Tree_node<std::pair<std::pair<unsigned short,wchar_t> const ,CGraphicFontTexture::SCharacterInfomation>,void *> > >, COMDAT
; _this$ = ecx

; 817  :     ~_Tree_temp_node() {

  00000	55		 push	 ebp
  00001	8b ec		 mov	 ebp, esp
  00003	83 ec 0c	 sub	 esp, 12			; 0000000cH
  00006	89 4d fc	 mov	 DWORD PTR _this$[ebp], ecx

; 818  :         if (this->_Ptr) {

  00009	8b 45 fc	 mov	 eax, DWORD PTR _this$[ebp]
  0000c	83 78 04 00	 cmp	 DWORD PTR [eax+4], 0
  00010	74 3e		 je	 SHORT $LN9@Tree_temp_

; 819  :             _Destroy_in_place(this->_Ptr->_Left);

  00012	8b 45 fc	 mov	 eax, DWORD PTR _this$[ebp]
  00015	ff 70 04	 push	 DWORD PTR [eax+4]
  00018	e8 00 00 00 00	 call	 ??$_Destroy_in_place@PAU?$_Tree_node@U?$pair@$$CBU?$pair@G_W@std@@USCharacterInfomation@CGraphicFontTexture@@@std@@PAX@std@@@std@@YAXAAPAU?$_Tree_node@U?$pair@$$CBU?$pair@G_W@std@@USCharacterInfomation@CGraphicFontTexture@@@std@@PAX@0@@Z ; std::_Destroy_in_place<std::_Tree_node<std::pair<std::pair<unsigned short,wchar_t> const ,CGraphicFontTexture::SCharacterInfomation>,void *> *>
  0001d	59		 pop	 ecx

; 820  :             _Destroy_in_place(this->_Ptr->_Parent);

  0001e	8b 45 fc	 mov	 eax, DWORD PTR _this$[ebp]
  00021	8b 40 04	 mov	 eax, DWORD PTR [eax+4]
  00024	83 c0 04	 add	 eax, 4
  00027	50		 push	 eax
  00028	e8 00 00 00 00	 call	 ??$_Destroy_in_place@PAU?$_Tree_node@U?$pair@$$CBU?$pair@G_W@std@@USCharacterInfomation@CGraphicFontTexture@@@std@@PAX@std@@@std@@YAXAAPAU?$_Tree_node@U?$pair@$$CBU?$pair@G_W@std@@USCharacterInfomation@CGraphicFontTexture@@@std@@PAX@0@@Z ; std::_Destroy_in_place<std::_Tree_node<std::pair<std::pair<unsigned short,wchar_t> const ,CGraphicFontTexture::SCharacterInfomation>,void *> *>
  0002d	59		 pop	 ecx

; 821  :             _Destroy_in_place(this->_Ptr->_Right);

  0002e	8b 45 fc	 mov	 eax, DWORD PTR _this$[ebp]
  00031	8b 40 04	 mov	 eax, DWORD PTR [eax+4]
  00034	83 c0 08	 add	 eax, 8
  00037	50		 push	 eax
  00038	e8 00 00 00 00	 call	 ??$_Destroy_in_place@PAU?$_Tree_node@U?$pair@$$CBU?$pair@G_W@std@@USCharacterInfomation@CGraphicFontTexture@@@std@@PAX@std@@@std@@YAXAAPAU?$_Tree_node@U?$pair@$$CBU?$pair@G_W@std@@USCharacterInfomation@CGraphicFontTexture@@@std@@PAX@0@@Z ; std::_Destroy_in_place<std::_Tree_node<std::pair<std::pair<unsigned short,wchar_t> const ,CGraphicFontTexture::SCharacterInfomation>,void *> *>
  0003d	59		 pop	 ecx

; 822  :             _Alnode_traits::destroy(this->_Al, _STD addressof(this->_Ptr->_Myval));

  0003e	8b 45 fc	 mov	 eax, DWORD PTR _this$[ebp]
  00041	8b 40 04	 mov	 eax, DWORD PTR [eax+4]
  00044	83 c0 10	 add	 eax, 16			; 00000010H
  00047	89 45 f8	 mov	 DWORD PTR __Val$[ebp], eax
; File C:\Program Files (x86)\Microsoft Visual Studio\2019\Community\VC\Tools\MSVC\14.28.29333\include\xstddef

; 275  :     return __builtin_addressof(_Val);

  0004a	8b 45 f8	 mov	 eax, DWORD PTR __Val$[ebp]
  0004d	89 45 f4	 mov	 DWORD PTR $T1[ebp], eax
$LN9@Tree_temp_:
  00050	8b 4d fc	 mov	 ecx, DWORD PTR _this$[ebp]
  00053	e8 00 00 00 00	 call	 ??1?$_Alloc_construct_ptr@V?$allocator@U?$_Tree_node@U?$pair@$$CBU?$pair@G_W@std@@USCharacterInfomation@CGraphicFontTexture@@@std@@PAX@std@@@std@@@std@@QAE@XZ ; std::_Alloc_construct_ptr<std::allocator<std::_Tree_node<std::pair<std::pair<unsigned short,wchar_t> const ,CGraphicFontTexture::SCharacterInfomation>,void *> > >::~_Alloc_construct_ptr<std::allocator<std::_Tree_node<std::pair<std::pair<unsigned short,wchar_t> const ,CGraphicFontTexture::SCharacterInfomation>,void *> > >
; File C:\Program Files (x86)\Microsoft Visual Studio\2019\Community\VC\Tools\MSVC\14.28.29333\include\xtree

; 824  :     }

  00058	c9		 leave
  00059	c3		 ret	 0
??1?$_Tree_temp_node@V?$allocator@U?$_Tree_node@U?$pair@$$CBU?$pair@G_W@std@@USCharacterInfomation@CGraphicFontTexture@@@std@@PAX@std@@@std@@@std@@QAE@XZ ENDP ; std::_Tree_temp_node<std::allocator<std::_Tree_node<std::pair<std::pair<unsigned short,wchar_t> const ,CGraphicFontTexture::SCharacterInfomation>,void *> > >::~_Tree_temp_node<std::allocator<std::_Tree_node<std::pair<std::pair<unsigned short,wchar_t> const ,CGraphicFontTexture::SCharacterInfomation>,void *> > >
_TEXT	ENDS
; Function compile flags: /Odspy
;	COMDAT ??1?$_Tree_temp_node_alloc@V?$allocator@U?$_Tree_node@U?$pair@$$CBU?$pair@G_W@std@@USCharacterInfomation@CGraphicFontTexture@@@std@@PAX@std@@@std@@@std@@QAE@XZ
_TEXT	SEGMENT
_this$ = -4						; size = 4
??1?$_Tree_temp_node_alloc@V?$allocator@U?$_Tree_node@U?$pair@$$CBU?$pair@G_W@std@@USCharacterInfomation@CGraphicFontTexture@@@std@@PAX@std@@@std@@@std@@QAE@XZ PROC ; std::_Tree_temp_node_alloc<std::allocator<std::_Tree_node<std::pair<std::pair<unsigned short,wchar_t> const ,CGraphicFontTexture::SCharacterInfomation>,void *> > >::~_Tree_temp_node_alloc<std::allocator<std::_Tree_node<std::pair<std::pair<unsigned short,wchar_t> const ,CGraphicFontTexture::SCharacterInfomation>,void *> > >, COMDAT
; _this$ = ecx
  00000	55		 push	 ebp
  00001	8b ec		 mov	 ebp, esp
  00003	51		 push	 ecx
  00004	89 4d fc	 mov	 DWORD PTR _this$[ebp], ecx
  00007	8b 4d fc	 mov	 ecx, DWORD PTR _this$[ebp]
  0000a	e8 00 00 00 00	 call	 ??1?$_Alloc_construct_ptr@V?$allocator@U?$_Tree_node@U?$pair@$$CBU?$pair@G_W@std@@USCharacterInfomation@CGraphicFontTexture@@@std@@PAX@std@@@std@@@std@@QAE@XZ ; std::_Alloc_construct_ptr<std::allocator<std::_Tree_node<std::pair<std::pair<unsigned short,wchar_t> const ,CGraphicFontTexture::SCharacterInfomation>,void *> > >::~_Alloc_construct_ptr<std::allocator<std::_Tree_node<std::pair<std::pair<unsigned short,wchar_t> const ,CGraphicFontTexture::SCharacterInfomation>,void *> > >
  0000f	c9		 leave
  00010	c3		 ret	 0
??1?$_Tree_temp_node_alloc@V?$allocator@U?$_Tree_node@U?$pair@$$CBU?$pair@G_W@std@@USCharacterInfomation@CGraphicFontTexture@@@std@@PAX@std@@@std@@@std@@QAE@XZ ENDP ; std::_Tree_temp_node_alloc<std::allocator<std::_Tree_node<std::pair<std::pair<unsigned short,wchar_t> const ,CGraphicFontTexture::SCharacterInfomation>,void *> > >::~_Tree_temp_node_alloc<std::allocator<std::_Tree_node<std::pair<std::pair<unsigned short,wchar_t> const ,CGraphicFontTexture::SCharacterInfomation>,void *> > >
_TEXT	ENDS
; Function compile flags: /Odspy
; File C:\Program Files (x86)\Microsoft Visual Studio\2019\Community\VC\Tools\MSVC\14.28.29333\include\xmemory
;	COMDAT ??1?$_Alloc_construct_ptr@V?$allocator@U?$_Tree_node@U?$pair@$$CBU?$pair@G_W@std@@USCharacterInfomation@CGraphicFontTexture@@@std@@PAX@std@@@std@@@std@@QAE@XZ
_TEXT	SEGMENT
_this$ = -12						; size = 4
__Ptr$ = -8						; size = 4
_this$ = -4						; size = 4
??1?$_Alloc_construct_ptr@V?$allocator@U?$_Tree_node@U?$pair@$$CBU?$pair@G_W@std@@USCharacterInfomation@CGraphicFontTexture@@@std@@PAX@std@@@std@@@std@@QAE@XZ PROC ; std::_Alloc_construct_ptr<std::allocator<std::_Tree_node<std::pair<std::pair<unsigned short,wchar_t> const ,CGraphicFontTexture::SCharacterInfomation>,void *> > >::~_Alloc_construct_ptr<std::allocator<std::_Tree_node<std::pair<std::pair<unsigned short,wchar_t> const ,CGraphicFontTexture::SCharacterInfomation>,void *> > >, COMDAT
; _this$ = ecx

; 1056 :     ~_Alloc_construct_ptr() { // if this instance is engaged, deallocate storage

  00000	55		 push	 ebp
  00001	8b ec		 mov	 ebp, esp
  00003	83 ec 0c	 sub	 esp, 12			; 0000000cH
  00006	89 4d fc	 mov	 DWORD PTR _this$[ebp], ecx

; 1057 :         if (_Ptr) {

  00009	8b 45 fc	 mov	 eax, DWORD PTR _this$[ebp]
  0000c	83 78 04 00	 cmp	 DWORD PTR [eax+4], 0
  00010	74 22		 je	 SHORT $LN3@Alloc_cons

; 1058 :             _Al.deallocate(_Ptr, 1);

  00012	8b 45 fc	 mov	 eax, DWORD PTR _this$[ebp]
  00015	8b 40 04	 mov	 eax, DWORD PTR [eax+4]
  00018	89 45 f8	 mov	 DWORD PTR __Ptr$[ebp], eax
  0001b	8b 45 fc	 mov	 eax, DWORD PTR _this$[ebp]
  0001e	8b 00		 mov	 eax, DWORD PTR [eax]
  00020	89 45 f4	 mov	 DWORD PTR _this$[ebp], eax

; 810  :         _Deallocate<_New_alignof<_Ty>>(_Ptr, sizeof(_Ty) * _Count);

  00023	33 c0		 xor	 eax, eax
  00025	40		 inc	 eax
  00026	6b c0 30	 imul	 eax, eax, 48
  00029	50		 push	 eax
  0002a	ff 75 f8	 push	 DWORD PTR __Ptr$[ebp]
  0002d	e8 00 00 00 00	 call	 ??$_Deallocate@$07$0A@@std@@YAXPAXI@Z ; std::_Deallocate<8,0>
  00032	59		 pop	 ecx
  00033	59		 pop	 ecx
$LN3@Alloc_cons:

; 1059 :         }
; 1060 :     }

  00034	c9		 leave
  00035	c3		 ret	 0
??1?$_Alloc_construct_ptr@V?$allocator@U?$_Tree_node@U?$pair@$$CBU?$pair@G_W@std@@USCharacterInfomation@CGraphicFontTexture@@@std@@PAX@std@@@std@@@std@@QAE@XZ ENDP ; std::_Alloc_construct_ptr<std::allocator<std::_Tree_node<std::pair<std::pair<unsigned short,wchar_t> const ,CGraphicFontTexture::SCharacterInfomation>,void *> > >::~_Alloc_construct_ptr<std::allocator<std::_Tree_node<std::pair<std::pair<unsigned short,wchar_t> const ,CGraphicFontTexture::SCharacterInfomation>,void *> > >
_TEXT	ENDS
; Function compile flags: /Odspy
; File C:\Program Files (x86)\Microsoft Visual Studio\2019\Community\VC\Tools\MSVC\14.28.29333\include\xmemory
;	COMDAT ?_Allocate@?$_Alloc_construct_ptr@V?$allocator@U?$_Tree_node@U?$pair@$$CBU?$pair@G_W@std@@USCharacterInfomation@CGraphicFontTexture@@@std@@PAX@std@@@std@@@std@@QAEXXZ
_TEXT	SEGMENT
__Max_possible$1 = -24					; size = 4
_this$ = -20						; size = 4
$T2 = -16						; size = 4
$T3 = -12						; size = 4
_this$ = -8						; size = 4
__Overflow_is_possible$4 = -1				; size = 1
?_Allocate@?$_Alloc_construct_ptr@V?$allocator@U?$_Tree_node@U?$pair@$$CBU?$pair@G_W@std@@USCharacterInfomation@CGraphicFontTexture@@@std@@PAX@std@@@std@@@std@@QAEXXZ PROC ; std::_Alloc_construct_ptr<std::allocator<std::_Tree_node<std::pair<std::pair<unsigned short,wchar_t> const ,CGraphicFontTexture::SCharacterInfomation>,void *> > >::_Allocate, COMDAT
; _this$ = ecx

; 1051 :     void _Allocate() { // disengage *this, then allocate a new memory block

  00000	55		 push	 ebp
  00001	8b ec		 mov	 ebp, esp
  00003	83 ec 18	 sub	 esp, 24			; 00000018H
  00006	89 4d f8	 mov	 DWORD PTR _this$[ebp], ecx

; 1052 :         _Ptr = nullptr; // if allocate throws, prevents double-free

  00009	8b 45 f8	 mov	 eax, DWORD PTR _this$[ebp]
  0000c	83 60 04 00	 and	 DWORD PTR [eax+4], 0

; 1053 :         _Ptr = _Al.allocate(1);

  00010	8b 45 f8	 mov	 eax, DWORD PTR _this$[ebp]
  00013	8b 00		 mov	 eax, DWORD PTR [eax]
  00015	89 45 ec	 mov	 DWORD PTR _this$[ebp], eax

; 56   :     constexpr bool _Overflow_is_possible = _Ty_size > 1;

  00018	c6 45 ff 01	 mov	 BYTE PTR __Overflow_is_possible$4[ebp], 1

; 57   : 
; 58   :     if _CONSTEXPR_IF (_Overflow_is_possible) {
; 59   :         constexpr size_t _Max_possible = static_cast<size_t>(-1) / _Ty_size;

  0001c	c7 45 e8 55 55
	55 05		 mov	 DWORD PTR __Max_possible$1[ebp], 89478485 ; 05555555H

; 60   :         if (_Count > _Max_possible) {

  00023	33 c0		 xor	 eax, eax
  00025	40		 inc	 eax
  00026	3d 55 55 55 05	 cmp	 eax, 89478485		; 05555555H
  0002b	76 05		 jbe	 SHORT $LN6@Allocate

; 61   :             _Throw_bad_array_new_length(); // multiply overflow

  0002d	e8 00 00 00 00	 call	 ?_Throw_bad_array_new_length@std@@YAXXZ ; std::_Throw_bad_array_new_length
$LN6@Allocate:

; 62   :         }
; 63   :     }
; 64   : 
; 65   :     return _Count * _Ty_size;

  00032	33 c0		 xor	 eax, eax
  00034	40		 inc	 eax
  00035	6b c0 30	 imul	 eax, eax, 48
  00038	89 45 f4	 mov	 DWORD PTR $T3[ebp], eax

; 814  :         return static_cast<_Ty*>(_Allocate<_New_alignof<_Ty>>(_Get_size_of_n<sizeof(_Ty)>(_Count)));

  0003b	ff 75 f4	 push	 DWORD PTR $T3[ebp]
  0003e	e8 00 00 00 00	 call	 ??$_Allocate@$07U_Default_allocate_traits@std@@$0A@@std@@YAPAXI@Z ; std::_Allocate<8,std::_Default_allocate_traits,0>
  00043	59		 pop	 ecx
  00044	89 45 f0	 mov	 DWORD PTR $T2[ebp], eax

; 1053 :         _Ptr = _Al.allocate(1);

  00047	8b 45 f8	 mov	 eax, DWORD PTR _this$[ebp]
  0004a	8b 4d f0	 mov	 ecx, DWORD PTR $T2[ebp]
  0004d	89 48 04	 mov	 DWORD PTR [eax+4], ecx
$LN9@Allocate:

; 1054 :     }

  00050	c9		 leave
  00051	c3		 ret	 0
?_Allocate@?$_Alloc_construct_ptr@V?$allocator@U?$_Tree_node@U?$pair@$$CBU?$pair@G_W@std@@USCharacterInfomation@CGraphicFontTexture@@@std@@PAX@std@@@std@@@std@@QAEXXZ ENDP ; std::_Alloc_construct_ptr<std::allocator<std::_Tree_node<std::pair<std::pair<unsigned short,wchar_t> const ,CGraphicFontTexture::SCharacterInfomation>,void *> > >::_Allocate
_TEXT	ENDS
; Function compile flags: /Odspy
; File C:\Program Files (x86)\Microsoft Visual Studio\2019\Community\VC\Tools\MSVC\14.28.29333\include\xtree
; File C:\Program Files (x86)\Microsoft Visual Studio\2019\Community\VC\Tools\MSVC\14.28.29333\include\xmemory
; File C:\Program Files (x86)\Microsoft Visual Studio\2019\Community\VC\Tools\MSVC\14.28.29333\include\xtree
; File C:\Program Files (x86)\Microsoft Visual Studio\2019\Community\VC\Tools\MSVC\14.28.29333\include\map
; File C:\Program Files (x86)\Microsoft Visual Studio\2019\Community\VC\Tools\MSVC\14.28.29333\include\xtree
; File C:\Program Files (x86)\Microsoft Visual Studio\2019\Community\VC\Tools\MSVC\14.28.29333\include\utility
; File C:\Program Files (x86)\Microsoft Visual Studio\2019\Community\VC\Tools\MSVC\14.28.29333\include\xtree
;	COMDAT ??$_Lower_bound_duplicate@U?$pair@G_W@std@@@?$_Tree@V?$_Tmap_traits@U?$pair@G_W@std@@USCharacterInfomation@CGraphicFontTexture@@U?$less@U?$pair@G_W@std@@@2@V?$allocator@U?$pair@$$CBU?$pair@G_W@std@@USCharacterInfomation@CGraphicFontTexture@@@std@@@2@$0A@@std@@@std@@IBE_NQAU?$_Tree_node@U?$pair@$$CBU?$pair@G_W@std@@USCharacterInfomation@CGraphicFontTexture@@@std@@PAX@1@ABU?$pair@G_W@1@@Z
_TEXT	SEGMENT
$T1 = -24						; size = 4
$T2 = -20						; size = 4
_this$ = -16						; size = 4
tv78 = -12						; size = 4
tv135 = -8						; size = 4
__Right$ = -4						; size = 4
__Bound$ = 8						; size = 4
__Keyval$ = 12						; size = 4
??$_Lower_bound_duplicate@U?$pair@G_W@std@@@?$_Tree@V?$_Tmap_traits@U?$pair@G_W@std@@USCharacterInfomation@CGraphicFontTexture@@U?$less@U?$pair@G_W@std@@@2@V?$allocator@U?$pair@$$CBU?$pair@G_W@std@@USCharacterInfomation@CGraphicFontTexture@@@std@@@2@$0A@@std@@@std@@IBE_NQAU?$_Tree_node@U?$pair@$$CBU?$pair@G_W@std@@USCharacterInfomation@CGraphicFontTexture@@@std@@PAX@1@ABU?$pair@G_W@1@@Z PROC ; std::_Tree<std::_Tmap_traits<std::pair<unsigned short,wchar_t>,CGraphicFontTexture::SCharacterInfomation,std::less<std::pair<unsigned short,wchar_t> >,std::allocator<std::pair<std::pair<unsigned short,wchar_t> const ,CGraphicFontTexture::SCharacterInfomation> >,0> >::_Lower_bound_duplicate<std::pair<unsigned short,wchar_t> >, COMDAT
; _this$ = ecx

; 1694 :     bool _Lower_bound_duplicate(const _Nodeptr _Bound, const _Keyty& _Keyval) const {

  00000	55		 push	 ebp
  00001	8b ec		 mov	 ebp, esp
  00003	83 ec 18	 sub	 esp, 24			; 00000018H
  00006	89 4d f0	 mov	 DWORD PTR _this$[ebp], ecx

; 1695 :         return !_Bound->_Isnil && !_DEBUG_LT_PRED(_Getcomp(), _Keyval, _Traits::_Kfn(_Bound->_Myval));

  00009	8b 45 08	 mov	 eax, DWORD PTR __Bound$[ebp]
  0000c	0f be 40 0d	 movsx	 eax, BYTE PTR [eax+13]
  00010	85 c0		 test	 eax, eax
  00012	75 65		 jne	 SHORT $LN3@Lower_boun

; 2035 :         return _Mypair._Get_first();

  00014	8b 45 f0	 mov	 eax, DWORD PTR _this$[ebp]
; File C:\Program Files (x86)\Microsoft Visual Studio\2019\Community\VC\Tools\MSVC\14.28.29333\include\xmemory

; 1351 :         return *this;

  00017	89 45 ec	 mov	 DWORD PTR $T2[ebp], eax
; File C:\Program Files (x86)\Microsoft Visual Studio\2019\Community\VC\Tools\MSVC\14.28.29333\include\xtree

; 2035 :         return _Mypair._Get_first();

  0001a	8b 45 ec	 mov	 eax, DWORD PTR $T2[ebp]
  0001d	89 45 e8	 mov	 DWORD PTR $T1[ebp], eax
; File C:\Program Files (x86)\Microsoft Visual Studio\2019\Community\VC\Tools\MSVC\14.28.29333\include\map

; 69   :         return _Val.first;

  00020	8b 45 08	 mov	 eax, DWORD PTR __Bound$[ebp]
  00023	83 c0 10	 add	 eax, 16			; 00000010H
; File C:\Program Files (x86)\Microsoft Visual Studio\2019\Community\VC\Tools\MSVC\14.28.29333\include\xtree

; 1695 :         return !_Bound->_Isnil && !_DEBUG_LT_PRED(_Getcomp(), _Keyval, _Traits::_Kfn(_Bound->_Myval));

  00026	89 45 fc	 mov	 DWORD PTR __Right$[ebp], eax
; File C:\Program Files (x86)\Microsoft Visual Studio\2019\Community\VC\Tools\MSVC\14.28.29333\include\utility

; 352  :     return _Left.first < _Right.first || (!(_Right.first < _Left.first) && _Left.second < _Right.second);

  00029	8b 45 0c	 mov	 eax, DWORD PTR __Keyval$[ebp]
  0002c	0f b7 00	 movzx	 eax, WORD PTR [eax]
  0002f	8b 4d fc	 mov	 ecx, DWORD PTR __Right$[ebp]
  00032	0f b7 09	 movzx	 ecx, WORD PTR [ecx]
  00035	3b c1		 cmp	 eax, ecx
  00037	7c 28		 jl	 SHORT $LN18@Lower_boun
  00039	8b 45 fc	 mov	 eax, DWORD PTR __Right$[ebp]
  0003c	0f b7 00	 movzx	 eax, WORD PTR [eax]
  0003f	8b 4d 0c	 mov	 ecx, DWORD PTR __Keyval$[ebp]
  00042	0f b7 09	 movzx	 ecx, WORD PTR [ecx]
  00045	3b c1		 cmp	 eax, ecx
  00047	7c 12		 jl	 SHORT $LN17@Lower_boun
  00049	8b 45 0c	 mov	 eax, DWORD PTR __Keyval$[ebp]
  0004c	0f b7 40 02	 movzx	 eax, WORD PTR [eax+2]
  00050	8b 4d fc	 mov	 ecx, DWORD PTR __Right$[ebp]
  00053	0f b7 49 02	 movzx	 ecx, WORD PTR [ecx+2]
  00057	3b c1		 cmp	 eax, ecx
  00059	7c 06		 jl	 SHORT $LN18@Lower_boun
$LN17@Lower_boun:
  0005b	83 65 f8 00	 and	 DWORD PTR tv135[ebp], 0
  0005f	eb 07		 jmp	 SHORT $LN13@Lower_boun
$LN18@Lower_boun:
  00061	c7 45 f8 01 00
	00 00		 mov	 DWORD PTR tv135[ebp], 1
$LN13@Lower_boun:
; File C:\Program Files (x86)\Microsoft Visual Studio\2019\Community\VC\Tools\MSVC\14.28.29333\include\xtree

; 1695 :         return !_Bound->_Isnil && !_DEBUG_LT_PRED(_Getcomp(), _Keyval, _Traits::_Kfn(_Bound->_Myval));

  00068	0f b6 45 f8	 movzx	 eax, BYTE PTR tv135[ebp]
  0006c	85 c0		 test	 eax, eax
  0006e	75 09		 jne	 SHORT $LN3@Lower_boun
  00070	c7 45 f4 01 00
	00 00		 mov	 DWORD PTR tv78[ebp], 1
  00077	eb 04		 jmp	 SHORT $LN4@Lower_boun
$LN3@Lower_boun:
  00079	83 65 f4 00	 and	 DWORD PTR tv78[ebp], 0
$LN4@Lower_boun:
  0007d	8a 45 f4	 mov	 al, BYTE PTR tv78[ebp]

; 1696 :     }

  00080	c9		 leave
  00081	c2 08 00	 ret	 8
??$_Lower_bound_duplicate@U?$pair@G_W@std@@@?$_Tree@V?$_Tmap_traits@U?$pair@G_W@std@@USCharacterInfomation@CGraphicFontTexture@@U?$less@U?$pair@G_W@std@@@2@V?$allocator@U?$pair@$$CBU?$pair@G_W@std@@USCharacterInfomation@CGraphicFontTexture@@@std@@@2@$0A@@std@@@std@@IBE_NQAU?$_Tree_node@U?$pair@$$CBU?$pair@G_W@std@@USCharacterInfomation@CGraphicFontTexture@@@std@@PAX@1@ABU?$pair@G_W@1@@Z ENDP ; std::_Tree<std::_Tmap_traits<std::pair<unsigned short,wchar_t>,CGraphicFontTexture::SCharacterInfomation,std::less<std::pair<unsigned short,wchar_t> >,std::allocator<std::pair<std::pair<unsigned short,wchar_t> const ,CGraphicFontTexture::SCharacterInfomation> >,0> >::_Lower_bound_duplicate<std::pair<unsigned short,wchar_t> >
_TEXT	ENDS
; Function compile flags: /Odspy
; File C:\Program Files (x86)\Microsoft Visual Studio\2019\Community\VC\Tools\MSVC\14.28.29333\include\xtree
; File C:\Program Files (x86)\Microsoft Visual Studio\2019\Community\VC\Tools\MSVC\14.28.29333\include\xstddef
; File C:\Program Files (x86)\Microsoft Visual Studio\2019\Community\VC\Tools\MSVC\14.28.29333\include\xtree
; File C:\Program Files (x86)\Microsoft Visual Studio\2019\Community\VC\Tools\MSVC\14.28.29333\include\xmemory
; File C:\Program Files (x86)\Microsoft Visual Studio\2019\Community\VC\Tools\MSVC\14.28.29333\include\xtree
; File C:\Program Files (x86)\Microsoft Visual Studio\2019\Community\VC\Tools\MSVC\14.28.29333\include\map
; File C:\Program Files (x86)\Microsoft Visual Studio\2019\Community\VC\Tools\MSVC\14.28.29333\include\xtree
; File C:\Program Files (x86)\Microsoft Visual Studio\2019\Community\VC\Tools\MSVC\14.28.29333\include\utility
; File C:\Program Files (x86)\Microsoft Visual Studio\2019\Community\VC\Tools\MSVC\14.28.29333\include\xtree
;	COMDAT ??$_Find_lower_bound@U?$pair@G_W@std@@@?$_Tree@V?$_Tmap_traits@U?$pair@G_W@std@@USCharacterInfomation@CGraphicFontTexture@@U?$less@U?$pair@G_W@std@@@2@V?$allocator@U?$pair@$$CBU?$pair@G_W@std@@USCharacterInfomation@CGraphicFontTexture@@@std@@@2@$0A@@std@@@std@@IBE?AU?$_Tree_find_result@PAU?$_Tree_node@U?$pair@$$CBU?$pair@G_W@std@@USCharacterInfomation@CGraphicFontTexture@@@std@@PAX@std@@@1@ABU?$pair@G_W@1@@Z
_TEXT	SEGMENT
__Result$ = -44						; size = 12
$T1 = -32						; size = 4
$T2 = -28						; size = 4
$T3 = -24						; size = 4
tv142 = -20						; size = 4
_this$ = -16						; size = 4
__Scary$ = -12						; size = 4
__Left$ = -8						; size = 4
__Trynode$ = -4						; size = 4
___$ReturnUdt$ = 8					; size = 4
__Keyval$ = 12						; size = 4
??$_Find_lower_bound@U?$pair@G_W@std@@@?$_Tree@V?$_Tmap_traits@U?$pair@G_W@std@@USCharacterInfomation@CGraphicFontTexture@@U?$less@U?$pair@G_W@std@@@2@V?$allocator@U?$pair@$$CBU?$pair@G_W@std@@USCharacterInfomation@CGraphicFontTexture@@@std@@@2@$0A@@std@@@std@@IBE?AU?$_Tree_find_result@PAU?$_Tree_node@U?$pair@$$CBU?$pair@G_W@std@@USCharacterInfomation@CGraphicFontTexture@@@std@@PAX@std@@@1@ABU?$pair@G_W@1@@Z PROC ; std::_Tree<std::_Tmap_traits<std::pair<unsigned short,wchar_t>,CGraphicFontTexture::SCharacterInfomation,std::less<std::pair<unsigned short,wchar_t> >,std::allocator<std::pair<std::pair<unsigned short,wchar_t> const ,CGraphicFontTexture::SCharacterInfomation> >,0> >::_Find_lower_bound<std::pair<unsigned short,wchar_t> >, COMDAT
; _this$ = ecx

; 1699 :     _Tree_find_result<_Nodeptr> _Find_lower_bound(const _Keyty& _Keyval) const {

  00000	55		 push	 ebp
  00001	8b ec		 mov	 ebp, esp
  00003	83 ec 2c	 sub	 esp, 44			; 0000002cH
  00006	56		 push	 esi
  00007	57		 push	 edi
  00008	89 4d f0	 mov	 DWORD PTR _this$[ebp], ecx

; 2051 :         return _STD addressof(_Mypair._Myval2._Myval2);

  0000b	8b 45 f0	 mov	 eax, DWORD PTR _this$[ebp]
; File C:\Program Files (x86)\Microsoft Visual Studio\2019\Community\VC\Tools\MSVC\14.28.29333\include\xstddef

; 275  :     return __builtin_addressof(_Val);

  0000e	89 45 e8	 mov	 DWORD PTR $T3[ebp], eax
; File C:\Program Files (x86)\Microsoft Visual Studio\2019\Community\VC\Tools\MSVC\14.28.29333\include\xtree

; 2051 :         return _STD addressof(_Mypair._Myval2._Myval2);

  00011	8b 45 e8	 mov	 eax, DWORD PTR $T3[ebp]
  00014	89 45 f4	 mov	 DWORD PTR __Scary$[ebp], eax

; 1700 :         const auto _Scary = _Get_scary();
; 1701 :         _Tree_find_result<_Nodeptr> _Result{{_Scary->_Myhead->_Parent, _Tree_child::_Right}, _Scary->_Myhead};

  00017	8b 45 f4	 mov	 eax, DWORD PTR __Scary$[ebp]
  0001a	8b 00		 mov	 eax, DWORD PTR [eax]
  0001c	8b 40 04	 mov	 eax, DWORD PTR [eax+4]
  0001f	89 45 d4	 mov	 DWORD PTR __Result$[ebp], eax
  00022	83 65 d8 00	 and	 DWORD PTR __Result$[ebp+4], 0
  00026	8b 45 f4	 mov	 eax, DWORD PTR __Scary$[ebp]
  00029	8b 00		 mov	 eax, DWORD PTR [eax]
  0002b	89 45 dc	 mov	 DWORD PTR __Result$[ebp+8], eax

; 1702 :         _Nodeptr _Trynode = _Result._Location._Parent;

  0002e	8b 45 d4	 mov	 eax, DWORD PTR __Result$[ebp]
  00031	89 45 fc	 mov	 DWORD PTR __Trynode$[ebp], eax
$LN2@Find_lower:

; 1703 :         while (!_Trynode->_Isnil) {

  00034	8b 45 fc	 mov	 eax, DWORD PTR __Trynode$[ebp]
  00037	0f be 40 0d	 movsx	 eax, BYTE PTR [eax+13]
  0003b	85 c0		 test	 eax, eax
  0003d	0f 85 8b 00 00
	00		 jne	 $LN3@Find_lower

; 1704 :             _Result._Location._Parent = _Trynode;

  00043	8b 45 fc	 mov	 eax, DWORD PTR __Trynode$[ebp]
  00046	89 45 d4	 mov	 DWORD PTR __Result$[ebp], eax

; 2035 :         return _Mypair._Get_first();

  00049	8b 45 f0	 mov	 eax, DWORD PTR _this$[ebp]
; File C:\Program Files (x86)\Microsoft Visual Studio\2019\Community\VC\Tools\MSVC\14.28.29333\include\xmemory

; 1351 :         return *this;

  0004c	89 45 e4	 mov	 DWORD PTR $T2[ebp], eax
; File C:\Program Files (x86)\Microsoft Visual Studio\2019\Community\VC\Tools\MSVC\14.28.29333\include\xtree

; 2035 :         return _Mypair._Get_first();

  0004f	8b 45 e4	 mov	 eax, DWORD PTR $T2[ebp]
  00052	89 45 e0	 mov	 DWORD PTR $T1[ebp], eax
; File C:\Program Files (x86)\Microsoft Visual Studio\2019\Community\VC\Tools\MSVC\14.28.29333\include\map

; 69   :         return _Val.first;

  00055	8b 45 fc	 mov	 eax, DWORD PTR __Trynode$[ebp]
  00058	83 c0 10	 add	 eax, 16			; 00000010H
; File C:\Program Files (x86)\Microsoft Visual Studio\2019\Community\VC\Tools\MSVC\14.28.29333\include\xtree

; 1705 :             if (_DEBUG_LT_PRED(_Getcomp(), _Traits::_Kfn(_Trynode->_Myval), _Keyval)) {

  0005b	89 45 f8	 mov	 DWORD PTR __Left$[ebp], eax
; File C:\Program Files (x86)\Microsoft Visual Studio\2019\Community\VC\Tools\MSVC\14.28.29333\include\utility

; 352  :     return _Left.first < _Right.first || (!(_Right.first < _Left.first) && _Left.second < _Right.second);

  0005e	8b 45 f8	 mov	 eax, DWORD PTR __Left$[ebp]
  00061	0f b7 00	 movzx	 eax, WORD PTR [eax]
  00064	8b 4d 0c	 mov	 ecx, DWORD PTR __Keyval$[ebp]
  00067	0f b7 09	 movzx	 ecx, WORD PTR [ecx]
  0006a	3b c1		 cmp	 eax, ecx
  0006c	7c 28		 jl	 SHORT $LN26@Find_lower
  0006e	8b 45 0c	 mov	 eax, DWORD PTR __Keyval$[ebp]
  00071	0f b7 00	 movzx	 eax, WORD PTR [eax]
  00074	8b 4d f8	 mov	 ecx, DWORD PTR __Left$[ebp]
  00077	0f b7 09	 movzx	 ecx, WORD PTR [ecx]
  0007a	3b c1		 cmp	 eax, ecx
  0007c	7c 12		 jl	 SHORT $LN25@Find_lower
  0007e	8b 45 f8	 mov	 eax, DWORD PTR __Left$[ebp]
  00081	0f b7 40 02	 movzx	 eax, WORD PTR [eax+2]
  00085	8b 4d 0c	 mov	 ecx, DWORD PTR __Keyval$[ebp]
  00088	0f b7 49 02	 movzx	 ecx, WORD PTR [ecx+2]
  0008c	3b c1		 cmp	 eax, ecx
  0008e	7c 06		 jl	 SHORT $LN26@Find_lower
$LN25@Find_lower:
  00090	83 65 ec 00	 and	 DWORD PTR tv142[ebp], 0
  00094	eb 07		 jmp	 SHORT $LN21@Find_lower
$LN26@Find_lower:
  00096	c7 45 ec 01 00
	00 00		 mov	 DWORD PTR tv142[ebp], 1
$LN21@Find_lower:
; File C:\Program Files (x86)\Microsoft Visual Studio\2019\Community\VC\Tools\MSVC\14.28.29333\include\xtree

; 1705 :             if (_DEBUG_LT_PRED(_Getcomp(), _Traits::_Kfn(_Trynode->_Myval), _Keyval)) {

  0009d	0f b6 45 ec	 movzx	 eax, BYTE PTR tv142[ebp]
  000a1	85 c0		 test	 eax, eax
  000a3	74 0f		 je	 SHORT $LN4@Find_lower

; 1706 :                 _Result._Location._Child = _Tree_child::_Right;

  000a5	83 65 d8 00	 and	 DWORD PTR __Result$[ebp+4], 0

; 1707 :                 _Trynode                 = _Trynode->_Right;

  000a9	8b 45 fc	 mov	 eax, DWORD PTR __Trynode$[ebp]
  000ac	8b 40 08	 mov	 eax, DWORD PTR [eax+8]
  000af	89 45 fc	 mov	 DWORD PTR __Trynode$[ebp], eax

; 1708 :             } else {

  000b2	eb 15		 jmp	 SHORT $LN5@Find_lower
$LN4@Find_lower:

; 1709 :                 _Result._Location._Child = _Tree_child::_Left;

  000b4	c7 45 d8 01 00
	00 00		 mov	 DWORD PTR __Result$[ebp+4], 1

; 1710 :                 _Result._Bound           = _Trynode;

  000bb	8b 45 fc	 mov	 eax, DWORD PTR __Trynode$[ebp]
  000be	89 45 dc	 mov	 DWORD PTR __Result$[ebp+8], eax

; 1711 :                 _Trynode                 = _Trynode->_Left;

  000c1	8b 45 fc	 mov	 eax, DWORD PTR __Trynode$[ebp]
  000c4	8b 00		 mov	 eax, DWORD PTR [eax]
  000c6	89 45 fc	 mov	 DWORD PTR __Trynode$[ebp], eax
$LN5@Find_lower:

; 1712 :             }
; 1713 :         }

  000c9	e9 66 ff ff ff	 jmp	 $LN2@Find_lower
$LN3@Find_lower:

; 1714 : 
; 1715 :         return _Result;

  000ce	8d 75 d4	 lea	 esi, DWORD PTR __Result$[ebp]
  000d1	8b 7d 08	 mov	 edi, DWORD PTR ___$ReturnUdt$[ebp]
  000d4	a5		 movsd
  000d5	a5		 movsd
  000d6	a5		 movsd
  000d7	8b 45 08	 mov	 eax, DWORD PTR ___$ReturnUdt$[ebp]

; 1716 :     }

  000da	5f		 pop	 edi
  000db	5e		 pop	 esi
  000dc	c9		 leave
  000dd	c2 08 00	 ret	 8
??$_Find_lower_bound@U?$pair@G_W@std@@@?$_Tree@V?$_Tmap_traits@U?$pair@G_W@std@@USCharacterInfomation@CGraphicFontTexture@@U?$less@U?$pair@G_W@std@@@2@V?$allocator@U?$pair@$$CBU?$pair@G_W@std@@USCharacterInfomation@CGraphicFontTexture@@@std@@@2@$0A@@std@@@std@@IBE?AU?$_Tree_find_result@PAU?$_Tree_node@U?$pair@$$CBU?$pair@G_W@std@@USCharacterInfomation@CGraphicFontTexture@@@std@@PAX@std@@@1@ABU?$pair@G_W@1@@Z ENDP ; std::_Tree<std::_Tmap_traits<std::pair<unsigned short,wchar_t>,CGraphicFontTexture::SCharacterInfomation,std::less<std::pair<unsigned short,wchar_t> >,std::allocator<std::pair<std::pair<unsigned short,wchar_t> const ,CGraphicFontTexture::SCharacterInfomation> >,0> >::_Find_lower_bound<std::pair<unsigned short,wchar_t> >
_TEXT	ENDS
; Function compile flags: /Odspy
; File C:\Program Files (x86)\Microsoft Visual Studio\2019\Community\VC\Tools\MSVC\14.28.29333\include\xtree
; File C:\Program Files (x86)\Microsoft Visual Studio\2019\Community\VC\Tools\MSVC\14.28.29333\include\xmemory
; File C:\Program Files (x86)\Microsoft Visual Studio\2019\Community\VC\Tools\MSVC\14.28.29333\include\xtree
;	COMDAT ??$_Freenode0@V?$allocator@U?$_Tree_node@U?$pair@$$CBGPAUHFONT__@@@std@@PAX@std@@@std@@@?$_Tree_node@U?$pair@$$CBGPAUHFONT__@@@std@@PAX@std@@SAXAAV?$allocator@U?$_Tree_node@U?$pair@$$CBGPAUHFONT__@@@std@@PAX@std@@@1@PAU01@@Z
_TEXT	SEGMENT
__Al$ = 8						; size = 4
__Ptr$ = 12						; size = 4
??$_Freenode0@V?$allocator@U?$_Tree_node@U?$pair@$$CBGPAUHFONT__@@@std@@PAX@std@@@std@@@?$_Tree_node@U?$pair@$$CBGPAUHFONT__@@@std@@PAX@std@@SAXAAV?$allocator@U?$_Tree_node@U?$pair@$$CBGPAUHFONT__@@@std@@PAX@std@@@1@PAU01@@Z PROC ; std::_Tree_node<std::pair<unsigned short const ,HFONT__ *>,void *>::_Freenode0<std::allocator<std::_Tree_node<std::pair<unsigned short const ,HFONT__ *>,void *> > >, COMDAT

; 368  :     static void _Freenode0(_Alloc& _Al, _Nodeptr _Ptr) noexcept {

  00000	55		 push	 ebp
  00001	8b ec		 mov	 ebp, esp

; 369  :         static_assert(is_same_v<typename _Alloc::value_type, _Tree_node>, "Bad _Freenode0 call");
; 370  :         _Destroy_in_place(_Ptr->_Left);

  00003	ff 75 0c	 push	 DWORD PTR __Ptr$[ebp]
  00006	e8 00 00 00 00	 call	 ??$_Destroy_in_place@PAU?$_Tree_node@U?$pair@$$CBGPAUHFONT__@@@std@@PAX@std@@@std@@YAXAAPAU?$_Tree_node@U?$pair@$$CBGPAUHFONT__@@@std@@PAX@0@@Z ; std::_Destroy_in_place<std::_Tree_node<std::pair<unsigned short const ,HFONT__ *>,void *> *>
  0000b	59		 pop	 ecx

; 371  :         _Destroy_in_place(_Ptr->_Parent);

  0000c	8b 45 0c	 mov	 eax, DWORD PTR __Ptr$[ebp]
  0000f	83 c0 04	 add	 eax, 4
  00012	50		 push	 eax
  00013	e8 00 00 00 00	 call	 ??$_Destroy_in_place@PAU?$_Tree_node@U?$pair@$$CBGPAUHFONT__@@@std@@PAX@std@@@std@@YAXAAPAU?$_Tree_node@U?$pair@$$CBGPAUHFONT__@@@std@@PAX@0@@Z ; std::_Destroy_in_place<std::_Tree_node<std::pair<unsigned short const ,HFONT__ *>,void *> *>
  00018	59		 pop	 ecx

; 372  :         _Destroy_in_place(_Ptr->_Right);

  00019	8b 45 0c	 mov	 eax, DWORD PTR __Ptr$[ebp]
  0001c	83 c0 08	 add	 eax, 8
  0001f	50		 push	 eax
  00020	e8 00 00 00 00	 call	 ??$_Destroy_in_place@PAU?$_Tree_node@U?$pair@$$CBGPAUHFONT__@@@std@@PAX@std@@@std@@YAXAAPAU?$_Tree_node@U?$pair@$$CBGPAUHFONT__@@@std@@PAX@0@@Z ; std::_Destroy_in_place<std::_Tree_node<std::pair<unsigned short const ,HFONT__ *>,void *> *>
  00025	59		 pop	 ecx
; File C:\Program Files (x86)\Microsoft Visual Studio\2019\Community\VC\Tools\MSVC\14.28.29333\include\xmemory

; 696  :         _Deallocate<_New_alignof<value_type>>(_Ptr, sizeof(value_type) * _Count);

  00026	33 c0		 xor	 eax, eax
  00028	40		 inc	 eax
  00029	6b c0 18	 imul	 eax, eax, 24
  0002c	50		 push	 eax
  0002d	ff 75 0c	 push	 DWORD PTR __Ptr$[ebp]
  00030	e8 00 00 00 00	 call	 ??$_Deallocate@$07$0A@@std@@YAXPAXI@Z ; std::_Deallocate<8,0>
  00035	59		 pop	 ecx
  00036	59		 pop	 ecx
; File C:\Program Files (x86)\Microsoft Visual Studio\2019\Community\VC\Tools\MSVC\14.28.29333\include\xtree

; 374  :     }

  00037	5d		 pop	 ebp
  00038	c3		 ret	 0
??$_Freenode0@V?$allocator@U?$_Tree_node@U?$pair@$$CBGPAUHFONT__@@@std@@PAX@std@@@std@@@?$_Tree_node@U?$pair@$$CBGPAUHFONT__@@@std@@PAX@std@@SAXAAV?$allocator@U?$_Tree_node@U?$pair@$$CBGPAUHFONT__@@@std@@PAX@std@@@1@PAU01@@Z ENDP ; std::_Tree_node<std::pair<unsigned short const ,HFONT__ *>,void *>::_Freenode0<std::allocator<std::_Tree_node<std::pair<unsigned short const ,HFONT__ *>,void *> > >
_TEXT	ENDS
; Function compile flags: /Odspy
; File C:\Program Files (x86)\Microsoft Visual Studio\2019\Community\VC\Tools\MSVC\14.28.29333\include\xtree
; File C:\Program Files (x86)\Microsoft Visual Studio\2019\Community\VC\Tools\MSVC\14.28.29333\include\xmemory
; File C:\Program Files (x86)\Microsoft Visual Studio\2019\Community\VC\Tools\MSVC\14.28.29333\include\xtree
; File C:\Program Files (x86)\Microsoft Visual Studio\2019\Community\VC\Tools\MSVC\14.28.29333\include\xstddef
; File C:\Program Files (x86)\Microsoft Visual Studio\2019\Community\VC\Tools\MSVC\14.28.29333\include\xtree
;	COMDAT ??$_Lower_bound_duplicate@G@?$_Tree@V?$_Tmap_traits@GPAUHFONT__@@U?$less@G@std@@V?$allocator@U?$pair@$$CBGPAUHFONT__@@@std@@@3@$0A@@std@@@std@@IBE_NQAU?$_Tree_node@U?$pair@$$CBGPAUHFONT__@@@std@@PAX@1@ABG@Z
_TEXT	SEGMENT
$T1 = -20						; size = 4
$T2 = -16						; size = 4
_this$ = -12						; size = 4
tv78 = -8						; size = 4
tv88 = -4						; size = 4
__Bound$ = 8						; size = 4
__Keyval$ = 12						; size = 4
??$_Lower_bound_duplicate@G@?$_Tree@V?$_Tmap_traits@GPAUHFONT__@@U?$less@G@std@@V?$allocator@U?$pair@$$CBGPAUHFONT__@@@std@@@3@$0A@@std@@@std@@IBE_NQAU?$_Tree_node@U?$pair@$$CBGPAUHFONT__@@@std@@PAX@1@ABG@Z PROC ; std::_Tree<std::_Tmap_traits<unsigned short,HFONT__ *,std::less<unsigned short>,std::allocator<std::pair<unsigned short const ,HFONT__ *> >,0> >::_Lower_bound_duplicate<unsigned short>, COMDAT
; _this$ = ecx

; 1694 :     bool _Lower_bound_duplicate(const _Nodeptr _Bound, const _Keyty& _Keyval) const {

  00000	55		 push	 ebp
  00001	8b ec		 mov	 ebp, esp
  00003	83 ec 14	 sub	 esp, 20			; 00000014H
  00006	89 4d f4	 mov	 DWORD PTR _this$[ebp], ecx

; 1695 :         return !_Bound->_Isnil && !_DEBUG_LT_PRED(_Getcomp(), _Keyval, _Traits::_Kfn(_Bound->_Myval));

  00009	8b 45 08	 mov	 eax, DWORD PTR __Bound$[ebp]
  0000c	0f be 40 0d	 movsx	 eax, BYTE PTR [eax+13]
  00010	85 c0		 test	 eax, eax
  00012	75 3b		 jne	 SHORT $LN3@Lower_boun

; 2035 :         return _Mypair._Get_first();

  00014	8b 45 f4	 mov	 eax, DWORD PTR _this$[ebp]
; File C:\Program Files (x86)\Microsoft Visual Studio\2019\Community\VC\Tools\MSVC\14.28.29333\include\xmemory

; 1351 :         return *this;

  00017	89 45 f0	 mov	 DWORD PTR $T2[ebp], eax
; File C:\Program Files (x86)\Microsoft Visual Studio\2019\Community\VC\Tools\MSVC\14.28.29333\include\xtree

; 2035 :         return _Mypair._Get_first();

  0001a	8b 45 f0	 mov	 eax, DWORD PTR $T2[ebp]
  0001d	89 45 ec	 mov	 DWORD PTR $T1[ebp], eax
; File C:\Program Files (x86)\Microsoft Visual Studio\2019\Community\VC\Tools\MSVC\14.28.29333\include\xstddef

; 127  :         return _Left < _Right;

  00020	8b 45 0c	 mov	 eax, DWORD PTR __Keyval$[ebp]
  00023	0f b7 00	 movzx	 eax, WORD PTR [eax]
  00026	8b 4d 08	 mov	 ecx, DWORD PTR __Bound$[ebp]
  00029	0f b7 49 10	 movzx	 ecx, WORD PTR [ecx+16]
  0002d	3b c1		 cmp	 eax, ecx
  0002f	7d 09		 jge	 SHORT $LN15@Lower_boun
  00031	c7 45 fc 01 00
	00 00		 mov	 DWORD PTR tv88[ebp], 1
  00038	eb 04		 jmp	 SHORT $LN13@Lower_boun
$LN15@Lower_boun:
  0003a	83 65 fc 00	 and	 DWORD PTR tv88[ebp], 0
$LN13@Lower_boun:
; File C:\Program Files (x86)\Microsoft Visual Studio\2019\Community\VC\Tools\MSVC\14.28.29333\include\xtree

; 1695 :         return !_Bound->_Isnil && !_DEBUG_LT_PRED(_Getcomp(), _Keyval, _Traits::_Kfn(_Bound->_Myval));

  0003e	0f b6 45 fc	 movzx	 eax, BYTE PTR tv88[ebp]
  00042	85 c0		 test	 eax, eax
  00044	75 09		 jne	 SHORT $LN3@Lower_boun
  00046	c7 45 f8 01 00
	00 00		 mov	 DWORD PTR tv78[ebp], 1
  0004d	eb 04		 jmp	 SHORT $LN4@Lower_boun
$LN3@Lower_boun:
  0004f	83 65 f8 00	 and	 DWORD PTR tv78[ebp], 0
$LN4@Lower_boun:
  00053	8a 45 f8	 mov	 al, BYTE PTR tv78[ebp]

; 1696 :     }

  00056	c9		 leave
  00057	c2 08 00	 ret	 8
??$_Lower_bound_duplicate@G@?$_Tree@V?$_Tmap_traits@GPAUHFONT__@@U?$less@G@std@@V?$allocator@U?$pair@$$CBGPAUHFONT__@@@std@@@3@$0A@@std@@@std@@IBE_NQAU?$_Tree_node@U?$pair@$$CBGPAUHFONT__@@@std@@PAX@1@ABG@Z ENDP ; std::_Tree<std::_Tmap_traits<unsigned short,HFONT__ *,std::less<unsigned short>,std::allocator<std::pair<unsigned short const ,HFONT__ *> >,0> >::_Lower_bound_duplicate<unsigned short>
_TEXT	ENDS
; Function compile flags: /Odspy
; File C:\Program Files (x86)\Microsoft Visual Studio\2019\Community\VC\Tools\MSVC\14.28.29333\include\xtree
; File C:\Program Files (x86)\Microsoft Visual Studio\2019\Community\VC\Tools\MSVC\14.28.29333\include\xstddef
; File C:\Program Files (x86)\Microsoft Visual Studio\2019\Community\VC\Tools\MSVC\14.28.29333\include\xtree
; File C:\Program Files (x86)\Microsoft Visual Studio\2019\Community\VC\Tools\MSVC\14.28.29333\include\xmemory
; File C:\Program Files (x86)\Microsoft Visual Studio\2019\Community\VC\Tools\MSVC\14.28.29333\include\xtree
; File C:\Program Files (x86)\Microsoft Visual Studio\2019\Community\VC\Tools\MSVC\14.28.29333\include\xstddef
; File C:\Program Files (x86)\Microsoft Visual Studio\2019\Community\VC\Tools\MSVC\14.28.29333\include\xtree
;	COMDAT ??$_Find_lower_bound@G@?$_Tree@V?$_Tmap_traits@GPAUHFONT__@@U?$less@G@std@@V?$allocator@U?$pair@$$CBGPAUHFONT__@@@std@@@3@$0A@@std@@@std@@IBE?AU?$_Tree_find_result@PAU?$_Tree_node@U?$pair@$$CBGPAUHFONT__@@@std@@PAX@std@@@1@ABG@Z
_TEXT	SEGMENT
__Result$ = -40						; size = 12
$T1 = -28						; size = 4
$T2 = -24						; size = 4
$T3 = -20						; size = 4
tv95 = -16						; size = 4
_this$ = -12						; size = 4
__Scary$ = -8						; size = 4
__Trynode$ = -4						; size = 4
___$ReturnUdt$ = 8					; size = 4
__Keyval$ = 12						; size = 4
??$_Find_lower_bound@G@?$_Tree@V?$_Tmap_traits@GPAUHFONT__@@U?$less@G@std@@V?$allocator@U?$pair@$$CBGPAUHFONT__@@@std@@@3@$0A@@std@@@std@@IBE?AU?$_Tree_find_result@PAU?$_Tree_node@U?$pair@$$CBGPAUHFONT__@@@std@@PAX@std@@@1@ABG@Z PROC ; std::_Tree<std::_Tmap_traits<unsigned short,HFONT__ *,std::less<unsigned short>,std::allocator<std::pair<unsigned short const ,HFONT__ *> >,0> >::_Find_lower_bound<unsigned short>, COMDAT
; _this$ = ecx

; 1699 :     _Tree_find_result<_Nodeptr> _Find_lower_bound(const _Keyty& _Keyval) const {

  00000	55		 push	 ebp
  00001	8b ec		 mov	 ebp, esp
  00003	83 ec 28	 sub	 esp, 40			; 00000028H
  00006	56		 push	 esi
  00007	57		 push	 edi
  00008	89 4d f4	 mov	 DWORD PTR _this$[ebp], ecx

; 2051 :         return _STD addressof(_Mypair._Myval2._Myval2);

  0000b	8b 45 f4	 mov	 eax, DWORD PTR _this$[ebp]
; File C:\Program Files (x86)\Microsoft Visual Studio\2019\Community\VC\Tools\MSVC\14.28.29333\include\xstddef

; 275  :     return __builtin_addressof(_Val);

  0000e	89 45 ec	 mov	 DWORD PTR $T3[ebp], eax
; File C:\Program Files (x86)\Microsoft Visual Studio\2019\Community\VC\Tools\MSVC\14.28.29333\include\xtree

; 2051 :         return _STD addressof(_Mypair._Myval2._Myval2);

  00011	8b 45 ec	 mov	 eax, DWORD PTR $T3[ebp]
  00014	89 45 f8	 mov	 DWORD PTR __Scary$[ebp], eax

; 1700 :         const auto _Scary = _Get_scary();
; 1701 :         _Tree_find_result<_Nodeptr> _Result{{_Scary->_Myhead->_Parent, _Tree_child::_Right}, _Scary->_Myhead};

  00017	8b 45 f8	 mov	 eax, DWORD PTR __Scary$[ebp]
  0001a	8b 00		 mov	 eax, DWORD PTR [eax]
  0001c	8b 40 04	 mov	 eax, DWORD PTR [eax+4]
  0001f	89 45 d8	 mov	 DWORD PTR __Result$[ebp], eax
  00022	83 65 dc 00	 and	 DWORD PTR __Result$[ebp+4], 0
  00026	8b 45 f8	 mov	 eax, DWORD PTR __Scary$[ebp]
  00029	8b 00		 mov	 eax, DWORD PTR [eax]
  0002b	89 45 e0	 mov	 DWORD PTR __Result$[ebp+8], eax

; 1702 :         _Nodeptr _Trynode = _Result._Location._Parent;

  0002e	8b 45 d8	 mov	 eax, DWORD PTR __Result$[ebp]
  00031	89 45 fc	 mov	 DWORD PTR __Trynode$[ebp], eax
$LN2@Find_lower:

; 1703 :         while (!_Trynode->_Isnil) {

  00034	8b 45 fc	 mov	 eax, DWORD PTR __Trynode$[ebp]
  00037	0f be 40 0d	 movsx	 eax, BYTE PTR [eax+13]
  0003b	85 c0		 test	 eax, eax
  0003d	75 5e		 jne	 SHORT $LN3@Find_lower

; 1704 :             _Result._Location._Parent = _Trynode;

  0003f	8b 45 fc	 mov	 eax, DWORD PTR __Trynode$[ebp]
  00042	89 45 d8	 mov	 DWORD PTR __Result$[ebp], eax

; 2035 :         return _Mypair._Get_first();

  00045	8b 45 f4	 mov	 eax, DWORD PTR _this$[ebp]
; File C:\Program Files (x86)\Microsoft Visual Studio\2019\Community\VC\Tools\MSVC\14.28.29333\include\xmemory

; 1351 :         return *this;

  00048	89 45 e8	 mov	 DWORD PTR $T2[ebp], eax
; File C:\Program Files (x86)\Microsoft Visual Studio\2019\Community\VC\Tools\MSVC\14.28.29333\include\xtree

; 2035 :         return _Mypair._Get_first();

  0004b	8b 45 e8	 mov	 eax, DWORD PTR $T2[ebp]
  0004e	89 45 e4	 mov	 DWORD PTR $T1[ebp], eax
; File C:\Program Files (x86)\Microsoft Visual Studio\2019\Community\VC\Tools\MSVC\14.28.29333\include\xstddef

; 127  :         return _Left < _Right;

  00051	8b 45 fc	 mov	 eax, DWORD PTR __Trynode$[ebp]
  00054	0f b7 40 10	 movzx	 eax, WORD PTR [eax+16]
  00058	8b 4d 0c	 mov	 ecx, DWORD PTR __Keyval$[ebp]
  0005b	0f b7 09	 movzx	 ecx, WORD PTR [ecx]
  0005e	3b c1		 cmp	 eax, ecx
  00060	7d 09		 jge	 SHORT $LN23@Find_lower
  00062	c7 45 f0 01 00
	00 00		 mov	 DWORD PTR tv95[ebp], 1
  00069	eb 04		 jmp	 SHORT $LN21@Find_lower
$LN23@Find_lower:
  0006b	83 65 f0 00	 and	 DWORD PTR tv95[ebp], 0
$LN21@Find_lower:
; File C:\Program Files (x86)\Microsoft Visual Studio\2019\Community\VC\Tools\MSVC\14.28.29333\include\xtree

; 1705 :             if (_DEBUG_LT_PRED(_Getcomp(), _Traits::_Kfn(_Trynode->_Myval), _Keyval)) {

  0006f	0f b6 45 f0	 movzx	 eax, BYTE PTR tv95[ebp]
  00073	85 c0		 test	 eax, eax
  00075	74 0f		 je	 SHORT $LN4@Find_lower

; 1706 :                 _Result._Location._Child = _Tree_child::_Right;

  00077	83 65 dc 00	 and	 DWORD PTR __Result$[ebp+4], 0

; 1707 :                 _Trynode                 = _Trynode->_Right;

  0007b	8b 45 fc	 mov	 eax, DWORD PTR __Trynode$[ebp]
  0007e	8b 40 08	 mov	 eax, DWORD PTR [eax+8]
  00081	89 45 fc	 mov	 DWORD PTR __Trynode$[ebp], eax

; 1708 :             } else {

  00084	eb 15		 jmp	 SHORT $LN5@Find_lower
$LN4@Find_lower:

; 1709 :                 _Result._Location._Child = _Tree_child::_Left;

  00086	c7 45 dc 01 00
	00 00		 mov	 DWORD PTR __Result$[ebp+4], 1

; 1710 :                 _Result._Bound           = _Trynode;

  0008d	8b 45 fc	 mov	 eax, DWORD PTR __Trynode$[ebp]
  00090	89 45 e0	 mov	 DWORD PTR __Result$[ebp+8], eax

; 1711 :                 _Trynode                 = _Trynode->_Left;

  00093	8b 45 fc	 mov	 eax, DWORD PTR __Trynode$[ebp]
  00096	8b 00		 mov	 eax, DWORD PTR [eax]
  00098	89 45 fc	 mov	 DWORD PTR __Trynode$[ebp], eax
$LN5@Find_lower:

; 1712 :             }
; 1713 :         }

  0009b	eb 97		 jmp	 SHORT $LN2@Find_lower
$LN3@Find_lower:

; 1714 : 
; 1715 :         return _Result;

  0009d	8d 75 d8	 lea	 esi, DWORD PTR __Result$[ebp]
  000a0	8b 7d 08	 mov	 edi, DWORD PTR ___$ReturnUdt$[ebp]
  000a3	a5		 movsd
  000a4	a5		 movsd
  000a5	a5		 movsd
  000a6	8b 45 08	 mov	 eax, DWORD PTR ___$ReturnUdt$[ebp]

; 1716 :     }

  000a9	5f		 pop	 edi
  000aa	5e		 pop	 esi
  000ab	c9		 leave
  000ac	c2 08 00	 ret	 8
??$_Find_lower_bound@G@?$_Tree@V?$_Tmap_traits@GPAUHFONT__@@U?$less@G@std@@V?$allocator@U?$pair@$$CBGPAUHFONT__@@@std@@@3@$0A@@std@@@std@@IBE?AU?$_Tree_find_result@PAU?$_Tree_node@U?$pair@$$CBGPAUHFONT__@@@std@@PAX@std@@@1@ABG@Z ENDP ; std::_Tree<std::_Tmap_traits<unsigned short,HFONT__ *,std::less<unsigned short>,std::allocator<std::pair<unsigned short const ,HFONT__ *> >,0> >::_Find_lower_bound<unsigned short>
_TEXT	ENDS
; Function compile flags: /Odspy
; File C:\Program Files (x86)\Microsoft Visual Studio\2019\Community\VC\Tools\MSVC\14.28.29333\include\xtree
; File C:\Program Files (x86)\Microsoft Visual Studio\2019\Community\VC\Tools\MSVC\14.28.29333\include\xstddef
; File C:\Program Files (x86)\Microsoft Visual Studio\2019\Community\VC\Tools\MSVC\14.28.29333\include\xtree
; File C:\Program Files (x86)\Microsoft Visual Studio\2019\Community\VC\Tools\MSVC\14.28.29333\include\xmemory
; File C:\Program Files (x86)\Microsoft Visual Studio\2019\Community\VC\Tools\MSVC\14.28.29333\include\xtree
; File C:\Program Files (x86)\Microsoft Visual Studio\2019\Community\VC\Tools\MSVC\14.28.29333\include\xmemory
; File C:\Program Files (x86)\Microsoft Visual Studio\2019\Community\VC\Tools\MSVC\14.28.29333\include\xtree
; File C:\Program Files (x86)\Microsoft Visual Studio\2019\Community\VC\Tools\MSVC\14.28.29333\include\xstddef
; File C:\Program Files (x86)\Microsoft Visual Studio\2019\Community\VC\Tools\MSVC\14.28.29333\include\xtree
; File C:\Program Files (x86)\Microsoft Visual Studio\2019\Community\VC\Tools\MSVC\14.28.29333\include\type_traits
; File C:\Program Files (x86)\Microsoft Visual Studio\2019\Community\VC\Tools\MSVC\14.28.29333\include\utility
; File C:\Program Files (x86)\Microsoft Visual Studio\2019\Community\VC\Tools\MSVC\14.28.29333\include\type_traits
; File C:\Program Files (x86)\Microsoft Visual Studio\2019\Community\VC\Tools\MSVC\14.28.29333\include\utility
; File C:\Program Files (x86)\Microsoft Visual Studio\2019\Community\VC\Tools\MSVC\14.28.29333\include\xtree
; File C:\Program Files (x86)\Microsoft Visual Studio\2019\Community\VC\Tools\MSVC\14.28.29333\include\type_traits
; File C:\Program Files (x86)\Microsoft Visual Studio\2019\Community\VC\Tools\MSVC\14.28.29333\include\xtree
; File C:\Program Files (x86)\Microsoft Visual Studio\2019\Community\VC\Tools\MSVC\14.28.29333\include\xmemory
; File C:\Program Files (x86)\Microsoft Visual Studio\2019\Community\VC\Tools\MSVC\14.28.29333\include\xtree
; File C:\Program Files (x86)\Microsoft Visual Studio\2019\Community\VC\Tools\MSVC\14.28.29333\include\xmemory
; File C:\Program Files (x86)\Microsoft Visual Studio\2019\Community\VC\Tools\MSVC\14.28.29333\include\utility
; File C:\Program Files (x86)\Microsoft Visual Studio\2019\Community\VC\Tools\MSVC\14.28.29333\include\xmemory
; File C:\Program Files (x86)\Microsoft Visual Studio\2019\Community\VC\Tools\MSVC\14.28.29333\include\xtree
; File C:\Program Files (x86)\Microsoft Visual Studio\2019\Community\VC\Tools\MSVC\14.28.29333\include\type_traits
; File C:\Program Files (x86)\Microsoft Visual Studio\2019\Community\VC\Tools\MSVC\14.28.29333\include\utility
; File C:\Program Files (x86)\Microsoft Visual Studio\2019\Community\VC\Tools\MSVC\14.28.29333\include\type_traits
; File C:\Program Files (x86)\Microsoft Visual Studio\2019\Community\VC\Tools\MSVC\14.28.29333\include\utility
; File C:\Program Files (x86)\Microsoft Visual Studio\2019\Community\VC\Tools\MSVC\14.28.29333\include\xtree
;	COMDAT ??$_Emplace@U?$pair@$$CBGPAUHFONT__@@@std@@@?$_Tree@V?$_Tmap_traits@GPAUHFONT__@@U?$less@G@std@@V?$allocator@U?$pair@$$CBGPAUHFONT__@@@std@@@3@$0A@@std@@@std@@IAE?AU?$pair@PAU?$_Tree_node@U?$pair@$$CBGPAUHFONT__@@@std@@PAX@std@@_N@1@$$QAU?$pair@$$CBGPAUHFONT__@@@1@@Z
_TEXT	SEGMENT
$T1 = -128						; size = 12
$T2 = -116						; size = 8
$T3 = -108						; size = 4
__Loc$ = -104						; size = 12
$T4 = -92						; size = 4
$T5 = -88						; size = 4
$T6 = -84						; size = 4
__Inserted$ = -80					; size = 4
$T7 = -76						; size = 4
__Old_val$8 = -72					; size = 4
$T9 = -68						; size = 4
$T10 = -64						; size = 4
$T11 = -60						; size = 4
$T12 = -56						; size = 4
$T13 = -52						; size = 4
$T14 = -48						; size = 4
$T15 = -44						; size = 4
$T16 = -40						; size = 4
$T17 = -36						; size = 4
__Scary$ = -32						; size = 4
__Val$ = -28						; size = 4
tv149 = -24						; size = 4
tv177 = -20						; size = 4
__Bound$ = -16						; size = 4
__Keyval$18 = -12					; size = 4
_this$ = -8						; size = 4
$T19 = -2						; size = 1
$T20 = -1						; size = 1
___$ReturnUdt$ = 8					; size = 4
_<_Vals_0>$ = 12					; size = 4
??$_Emplace@U?$pair@$$CBGPAUHFONT__@@@std@@@?$_Tree@V?$_Tmap_traits@GPAUHFONT__@@U?$less@G@std@@V?$allocator@U?$pair@$$CBGPAUHFONT__@@@std@@@3@$0A@@std@@@std@@IAE?AU?$pair@PAU?$_Tree_node@U?$pair@$$CBGPAUHFONT__@@@std@@PAX@std@@_N@1@$$QAU?$pair@$$CBGPAUHFONT__@@@1@@Z PROC ; std::_Tree<std::_Tmap_traits<unsigned short,HFONT__ *,std::less<unsigned short>,std::allocator<std::pair<unsigned short const ,HFONT__ *> >,0> >::_Emplace<std::pair<unsigned short const ,HFONT__ *> >, COMDAT
; _this$ = ecx

; 1002 :     pair<_Nodeptr, bool> _Emplace(_Valtys&&... _Vals) {

  00000	55		 push	 ebp
  00001	8b ec		 mov	 ebp, esp
  00003	81 ec 80 00 00
	00		 sub	 esp, 128		; 00000080H
  00009	56		 push	 esi
  0000a	57		 push	 edi
  0000b	89 4d f8	 mov	 DWORD PTR _this$[ebp], ecx

; 2047 :         return _STD addressof(_Mypair._Myval2._Myval2);

  0000e	8b 45 f8	 mov	 eax, DWORD PTR _this$[ebp]
; File C:\Program Files (x86)\Microsoft Visual Studio\2019\Community\VC\Tools\MSVC\14.28.29333\include\xstddef

; 275  :     return __builtin_addressof(_Val);

  00011	89 45 dc	 mov	 DWORD PTR $T17[ebp], eax
; File C:\Program Files (x86)\Microsoft Visual Studio\2019\Community\VC\Tools\MSVC\14.28.29333\include\xtree

; 2047 :         return _STD addressof(_Mypair._Myval2._Myval2);

  00014	8b 45 dc	 mov	 eax, DWORD PTR $T17[ebp]
  00017	89 45 e0	 mov	 DWORD PTR __Scary$[ebp], eax
; File C:\Program Files (x86)\Microsoft Visual Studio\2019\Community\VC\Tools\MSVC\14.28.29333\include\xmemory

; 2000 :         return _Val.first;

  0001a	8b 45 0c	 mov	 eax, DWORD PTR _<_Vals_0>$[ebp]
; File C:\Program Files (x86)\Microsoft Visual Studio\2019\Community\VC\Tools\MSVC\14.28.29333\include\xtree

; 1008 :             const auto& _Keyval = _In_place_key_extractor::_Extract(_Vals...);

  0001d	89 45 f4	 mov	 DWORD PTR __Keyval$18[ebp], eax

; 1009 :             _Loc                = _Find_lower_bound(_Keyval);

  00020	ff 75 f4	 push	 DWORD PTR __Keyval$18[ebp]
  00023	8d 45 80	 lea	 eax, DWORD PTR $T1[ebp]
  00026	50		 push	 eax
  00027	8b 4d f8	 mov	 ecx, DWORD PTR _this$[ebp]
  0002a	e8 00 00 00 00	 call	 ??$_Find_lower_bound@G@?$_Tree@V?$_Tmap_traits@GPAUHFONT__@@U?$less@G@std@@V?$allocator@U?$pair@$$CBGPAUHFONT__@@@std@@@3@$0A@@std@@@std@@IBE?AU?$_Tree_find_result@PAU?$_Tree_node@U?$pair@$$CBGPAUHFONT__@@@std@@PAX@std@@@1@ABG@Z ; std::_Tree<std::_Tmap_traits<unsigned short,HFONT__ *,std::less<unsigned short>,std::allocator<std::pair<unsigned short const ,HFONT__ *> >,0> >::_Find_lower_bound<unsigned short>
  0002f	8b f0		 mov	 esi, eax
  00031	8d 7d 98	 lea	 edi, DWORD PTR __Loc$[ebp]
  00034	a5		 movsd
  00035	a5		 movsd
  00036	a5		 movsd

; 1010 :             if (_Lower_bound_duplicate(_Loc._Bound, _Keyval)) {

  00037	8b 45 a0	 mov	 eax, DWORD PTR __Loc$[ebp+8]
  0003a	89 45 f0	 mov	 DWORD PTR __Bound$[ebp], eax

; 1695 :         return !_Bound->_Isnil && !_DEBUG_LT_PRED(_Getcomp(), _Keyval, _Traits::_Kfn(_Bound->_Myval));

  0003d	8b 45 f0	 mov	 eax, DWORD PTR __Bound$[ebp]
  00040	0f be 40 0d	 movsx	 eax, BYTE PTR [eax+13]
  00044	85 c0		 test	 eax, eax
  00046	75 3b		 jne	 SHORT $LN39@Emplace

; 2035 :         return _Mypair._Get_first();

  00048	8b 45 f8	 mov	 eax, DWORD PTR _this$[ebp]
; File C:\Program Files (x86)\Microsoft Visual Studio\2019\Community\VC\Tools\MSVC\14.28.29333\include\xmemory

; 1351 :         return *this;

  0004b	89 45 d8	 mov	 DWORD PTR $T16[ebp], eax
; File C:\Program Files (x86)\Microsoft Visual Studio\2019\Community\VC\Tools\MSVC\14.28.29333\include\xtree

; 2035 :         return _Mypair._Get_first();

  0004e	8b 45 d8	 mov	 eax, DWORD PTR $T16[ebp]
  00051	89 45 94	 mov	 DWORD PTR $T3[ebp], eax
; File C:\Program Files (x86)\Microsoft Visual Studio\2019\Community\VC\Tools\MSVC\14.28.29333\include\xstddef

; 127  :         return _Left < _Right;

  00054	8b 45 f4	 mov	 eax, DWORD PTR __Keyval$18[ebp]
  00057	0f b7 00	 movzx	 eax, WORD PTR [eax]
  0005a	8b 4d f0	 mov	 ecx, DWORD PTR __Bound$[ebp]
  0005d	0f b7 49 10	 movzx	 ecx, WORD PTR [ecx+16]
  00061	3b c1		 cmp	 eax, ecx
  00063	7d 09		 jge	 SHORT $LN51@Emplace
  00065	c7 45 ec 01 00
	00 00		 mov	 DWORD PTR tv177[ebp], 1
  0006c	eb 04		 jmp	 SHORT $LN49@Emplace
$LN51@Emplace:
  0006e	83 65 ec 00	 and	 DWORD PTR tv177[ebp], 0
$LN49@Emplace:
; File C:\Program Files (x86)\Microsoft Visual Studio\2019\Community\VC\Tools\MSVC\14.28.29333\include\xtree

; 1695 :         return !_Bound->_Isnil && !_DEBUG_LT_PRED(_Getcomp(), _Keyval, _Traits::_Kfn(_Bound->_Myval));

  00072	0f b6 45 ec	 movzx	 eax, BYTE PTR tv177[ebp]
  00076	85 c0		 test	 eax, eax
  00078	75 09		 jne	 SHORT $LN39@Emplace
  0007a	c7 45 e8 01 00
	00 00		 mov	 DWORD PTR tv149[ebp], 1
  00081	eb 04		 jmp	 SHORT $LN37@Emplace
$LN39@Emplace:
  00083	83 65 e8 00	 and	 DWORD PTR tv149[ebp], 0
$LN37@Emplace:

; 1010 :             if (_Lower_bound_duplicate(_Loc._Bound, _Keyval)) {

  00087	0f b6 45 e8	 movzx	 eax, BYTE PTR tv149[ebp]
  0008b	85 c0		 test	 eax, eax
  0008d	74 2d		 je	 SHORT $LN2@Emplace

; 1011 :                 return {_Loc._Bound, false};

  0008f	c6 45 ff 00	 mov	 BYTE PTR $T20[ebp], 0
; File C:\Program Files (x86)\Microsoft Visual Studio\2019\Community\VC\Tools\MSVC\14.28.29333\include\type_traits

; 1443 :     return static_cast<_Ty&&>(_Arg);

  00093	8d 45 a0	 lea	 eax, DWORD PTR __Loc$[ebp+8]
  00096	89 45 d4	 mov	 DWORD PTR $T15[ebp], eax
; File C:\Program Files (x86)\Microsoft Visual Studio\2019\Community\VC\Tools\MSVC\14.28.29333\include\utility

; 190  :         : first(_STD forward<_Other1>(_Val1)), second(_STD forward<_Other2>(_Val2)) {}

  00099	8b 45 08	 mov	 eax, DWORD PTR ___$ReturnUdt$[ebp]
  0009c	8b 4d d4	 mov	 ecx, DWORD PTR $T15[ebp]
  0009f	8b 09		 mov	 ecx, DWORD PTR [ecx]
  000a1	89 08		 mov	 DWORD PTR [eax], ecx
; File C:\Program Files (x86)\Microsoft Visual Studio\2019\Community\VC\Tools\MSVC\14.28.29333\include\type_traits

; 1443 :     return static_cast<_Ty&&>(_Arg);

  000a3	8d 45 ff	 lea	 eax, DWORD PTR $T20[ebp]
  000a6	89 45 d0	 mov	 DWORD PTR $T14[ebp], eax
; File C:\Program Files (x86)\Microsoft Visual Studio\2019\Community\VC\Tools\MSVC\14.28.29333\include\utility

; 190  :         : first(_STD forward<_Other1>(_Val1)), second(_STD forward<_Other2>(_Val2)) {}

  000a9	8b 45 08	 mov	 eax, DWORD PTR ___$ReturnUdt$[ebp]
  000ac	8b 4d d0	 mov	 ecx, DWORD PTR $T14[ebp]
  000af	8a 09		 mov	 cl, BYTE PTR [ecx]
  000b1	88 48 04	 mov	 BYTE PTR [eax+4], cl
; File C:\Program Files (x86)\Microsoft Visual Studio\2019\Community\VC\Tools\MSVC\14.28.29333\include\xtree

; 1011 :                 return {_Loc._Bound, false};

  000b4	8b 45 08	 mov	 eax, DWORD PTR ___$ReturnUdt$[ebp]
  000b7	e9 9d 00 00 00	 jmp	 $LN1@Emplace
$LN2@Emplace:

; 1012 :             }
; 1013 : 
; 1014 :             _Check_grow_by_1();

  000bc	8b 4d f8	 mov	 ecx, DWORD PTR _this$[ebp]
  000bf	e8 00 00 00 00	 call	 ?_Check_grow_by_1@?$_Tree@V?$_Tmap_traits@GPAUHFONT__@@U?$less@G@std@@V?$allocator@U?$pair@$$CBGPAUHFONT__@@@std@@@3@$0A@@std@@@std@@IAEXXZ ; std::_Tree<std::_Tmap_traits<unsigned short,HFONT__ *,std::less<unsigned short>,std::allocator<std::pair<unsigned short const ,HFONT__ *> >,0> >::_Check_grow_by_1
; File C:\Program Files (x86)\Microsoft Visual Studio\2019\Community\VC\Tools\MSVC\14.28.29333\include\type_traits

; 1443 :     return static_cast<_Ty&&>(_Arg);

  000c4	8b 45 0c	 mov	 eax, DWORD PTR _<_Vals_0>$[ebp]
  000c7	89 45 c8	 mov	 DWORD PTR $T12[ebp], eax
; File C:\Program Files (x86)\Microsoft Visual Studio\2019\Community\VC\Tools\MSVC\14.28.29333\include\xtree

; 2039 :         return _Mypair._Myval2._Get_first();

  000ca	8b 45 f8	 mov	 eax, DWORD PTR _this$[ebp]
; File C:\Program Files (x86)\Microsoft Visual Studio\2019\Community\VC\Tools\MSVC\14.28.29333\include\xmemory

; 1347 :         return *this;

  000cd	89 45 cc	 mov	 DWORD PTR $T13[ebp], eax
; File C:\Program Files (x86)\Microsoft Visual Studio\2019\Community\VC\Tools\MSVC\14.28.29333\include\xtree

; 2039 :         return _Mypair._Myval2._Get_first();

  000d0	8b 45 cc	 mov	 eax, DWORD PTR $T13[ebp]
  000d3	89 45 c4	 mov	 DWORD PTR $T11[ebp], eax

; 1015 :             _Inserted = _Tree_temp_node<_Alnode>(_Getal(), _Scary->_Myhead, _STD forward<_Valtys>(_Vals)...)._Release();

  000d6	ff 75 c8	 push	 DWORD PTR $T12[ebp]
  000d9	8b 45 e0	 mov	 eax, DWORD PTR __Scary$[ebp]
  000dc	ff 30		 push	 DWORD PTR [eax]
  000de	ff 75 c4	 push	 DWORD PTR $T11[ebp]
  000e1	8d 4d 8c	 lea	 ecx, DWORD PTR $T2[ebp]
  000e4	e8 00 00 00 00	 call	 ??$?0U?$pair@$$CBGPAUHFONT__@@@std@@@?$_Tree_temp_node@V?$allocator@U?$_Tree_node@U?$pair@$$CBGPAUHFONT__@@@std@@PAX@std@@@std@@@std@@QAE@AAV?$allocator@U?$_Tree_node@U?$pair@$$CBGPAUHFONT__@@@std@@PAX@std@@@1@PAU?$_Tree_node@U?$pair@$$CBGPAUHFONT__@@@std@@PAX@1@$$QAU?$pair@$$CBGPAUHFONT__@@@1@@Z ; std::_Tree_temp_node<std::allocator<std::_Tree_node<std::pair<unsigned short const ,HFONT__ *>,void *> > >::_Tree_temp_node<std::allocator<std::_Tree_node<std::pair<unsigned short const ,HFONT__ *>,void *> > ><std::pair<unsigned short const ,HFONT__ *> >
  000e9	89 45 c0	 mov	 DWORD PTR $T10[ebp], eax
; File C:\Program Files (x86)\Microsoft Visual Studio\2019\Community\VC\Tools\MSVC\14.28.29333\include\xmemory

; 1048 :         return _STD exchange(_Ptr, nullptr);

  000ec	83 65 bc 00	 and	 DWORD PTR $T9[ebp], 0
  000f0	8b 45 c0	 mov	 eax, DWORD PTR $T10[ebp]
  000f3	83 c0 04	 add	 eax, 4
  000f6	89 45 e4	 mov	 DWORD PTR __Val$[ebp], eax
; File C:\Program Files (x86)\Microsoft Visual Studio\2019\Community\VC\Tools\MSVC\14.28.29333\include\utility

; 598  :     _Ty _Old_val = static_cast<_Ty&&>(_Val);

  000f9	8b 45 e4	 mov	 eax, DWORD PTR __Val$[ebp]
  000fc	8b 00		 mov	 eax, DWORD PTR [eax]
  000fe	89 45 b8	 mov	 DWORD PTR __Old_val$8[ebp], eax

; 599  :     _Val         = static_cast<_Other&&>(_New_val);

  00101	8b 45 e4	 mov	 eax, DWORD PTR __Val$[ebp]
  00104	8b 4d bc	 mov	 ecx, DWORD PTR $T9[ebp]
  00107	89 08		 mov	 DWORD PTR [eax], ecx

; 600  :     return _Old_val;

  00109	8b 45 b8	 mov	 eax, DWORD PTR __Old_val$8[ebp]
  0010c	89 45 b4	 mov	 DWORD PTR $T7[ebp], eax
; File C:\Program Files (x86)\Microsoft Visual Studio\2019\Community\VC\Tools\MSVC\14.28.29333\include\xmemory

; 1048 :         return _STD exchange(_Ptr, nullptr);

  0010f	8b 45 b4	 mov	 eax, DWORD PTR $T7[ebp]
  00112	89 45 b0	 mov	 DWORD PTR __Inserted$[ebp], eax
; File C:\Program Files (x86)\Microsoft Visual Studio\2019\Community\VC\Tools\MSVC\14.28.29333\include\xtree

; 1015 :             _Inserted = _Tree_temp_node<_Alnode>(_Getal(), _Scary->_Myhead, _STD forward<_Valtys>(_Vals)...)._Release();

  00115	8d 4d 8c	 lea	 ecx, DWORD PTR $T2[ebp]
  00118	e8 00 00 00 00	 call	 ??1?$_Tree_temp_node@V?$allocator@U?$_Tree_node@U?$pair@$$CBGPAUHFONT__@@@std@@PAX@std@@@std@@@std@@QAE@XZ ; std::_Tree_temp_node<std::allocator<std::_Tree_node<std::pair<unsigned short const ,HFONT__ *>,void *> > >::~_Tree_temp_node<std::allocator<std::_Tree_node<std::pair<unsigned short const ,HFONT__ *>,void *> > >

; 1034 :         return {_Scary->_Insert_node(_Loc._Location, _Inserted), true};

  0011d	ff 75 b0	 push	 DWORD PTR __Inserted$[ebp]
  00120	ff 75 9c	 push	 DWORD PTR __Loc$[ebp+4]
  00123	ff 75 98	 push	 DWORD PTR __Loc$[ebp]
  00126	8b 4d e0	 mov	 ecx, DWORD PTR __Scary$[ebp]
  00129	e8 00 00 00 00	 call	 ?_Insert_node@?$_Tree_val@U?$_Tree_simple_types@U?$pair@$$CBGPAUHFONT__@@@std@@@std@@@std@@QAEPAU?$_Tree_node@U?$pair@$$CBGPAUHFONT__@@@std@@PAX@2@U?$_Tree_id@PAU?$_Tree_node@U?$pair@$$CBGPAUHFONT__@@@std@@PAX@std@@@2@QAU32@@Z ; std::_Tree_val<std::_Tree_simple_types<std::pair<unsigned short const ,HFONT__ *> > >::_Insert_node
  0012e	89 45 ac	 mov	 DWORD PTR $T6[ebp], eax
  00131	c6 45 fe 01	 mov	 BYTE PTR $T19[ebp], 1
; File C:\Program Files (x86)\Microsoft Visual Studio\2019\Community\VC\Tools\MSVC\14.28.29333\include\type_traits

; 1443 :     return static_cast<_Ty&&>(_Arg);

  00135	8d 45 ac	 lea	 eax, DWORD PTR $T6[ebp]
  00138	89 45 a8	 mov	 DWORD PTR $T5[ebp], eax
; File C:\Program Files (x86)\Microsoft Visual Studio\2019\Community\VC\Tools\MSVC\14.28.29333\include\utility

; 190  :         : first(_STD forward<_Other1>(_Val1)), second(_STD forward<_Other2>(_Val2)) {}

  0013b	8b 45 08	 mov	 eax, DWORD PTR ___$ReturnUdt$[ebp]
  0013e	8b 4d a8	 mov	 ecx, DWORD PTR $T5[ebp]
  00141	8b 09		 mov	 ecx, DWORD PTR [ecx]
  00143	89 08		 mov	 DWORD PTR [eax], ecx
; File C:\Program Files (x86)\Microsoft Visual Studio\2019\Community\VC\Tools\MSVC\14.28.29333\include\type_traits

; 1443 :     return static_cast<_Ty&&>(_Arg);

  00145	8d 45 fe	 lea	 eax, DWORD PTR $T19[ebp]
  00148	89 45 a4	 mov	 DWORD PTR $T4[ebp], eax
; File C:\Program Files (x86)\Microsoft Visual Studio\2019\Community\VC\Tools\MSVC\14.28.29333\include\utility

; 190  :         : first(_STD forward<_Other1>(_Val1)), second(_STD forward<_Other2>(_Val2)) {}

  0014b	8b 45 08	 mov	 eax, DWORD PTR ___$ReturnUdt$[ebp]
  0014e	8b 4d a4	 mov	 ecx, DWORD PTR $T4[ebp]
  00151	8a 09		 mov	 cl, BYTE PTR [ecx]
  00153	88 48 04	 mov	 BYTE PTR [eax+4], cl
; File C:\Program Files (x86)\Microsoft Visual Studio\2019\Community\VC\Tools\MSVC\14.28.29333\include\xtree

; 1034 :         return {_Scary->_Insert_node(_Loc._Location, _Inserted), true};

  00156	8b 45 08	 mov	 eax, DWORD PTR ___$ReturnUdt$[ebp]
$LN1@Emplace:

; 1035 :     }

  00159	5f		 pop	 edi
  0015a	5e		 pop	 esi
  0015b	c9		 leave
  0015c	c2 08 00	 ret	 8
??$_Emplace@U?$pair@$$CBGPAUHFONT__@@@std@@@?$_Tree@V?$_Tmap_traits@GPAUHFONT__@@U?$less@G@std@@V?$allocator@U?$pair@$$CBGPAUHFONT__@@@std@@@3@$0A@@std@@@std@@IAE?AU?$pair@PAU?$_Tree_node@U?$pair@$$CBGPAUHFONT__@@@std@@PAX@std@@_N@1@$$QAU?$pair@$$CBGPAUHFONT__@@@1@@Z ENDP ; std::_Tree<std::_Tmap_traits<unsigned short,HFONT__ *,std::less<unsigned short>,std::allocator<std::pair<unsigned short const ,HFONT__ *> >,0> >::_Emplace<std::pair<unsigned short const ,HFONT__ *> >
_TEXT	ENDS
; Function compile flags: /Odspy
; File C:\Program Files (x86)\Microsoft Visual Studio\2019\Community\VC\Tools\MSVC\14.28.29333\include\xmemory
;	COMDAT ??$_Destroy_range@V?$allocator@PAVCGraphicImageTexture@@@std@@@std@@YAXPAPAVCGraphicImageTexture@@QAPAV1@AAV?$allocator@PAVCGraphicImageTexture@@@0@@Z
_TEXT	SEGMENT
__First$ = 8						; size = 4
__Last$ = 12						; size = 4
__Al$ = 16						; size = 4
??$_Destroy_range@V?$allocator@PAVCGraphicImageTexture@@@std@@@std@@YAXPAPAVCGraphicImageTexture@@QAPAV1@AAV?$allocator@PAVCGraphicImageTexture@@@0@@Z PROC ; std::_Destroy_range<std::allocator<CGraphicImageTexture *> >, COMDAT

; 962  :     _Alloc_ptr_t<_Alloc> _First, const _Alloc_ptr_t<_Alloc> _Last, _Alloc& _Al) noexcept {

  00000	55		 push	 ebp
  00001	8b ec		 mov	 ebp, esp

; 963  :     // note that this is an optimization for debug mode codegen; in release mode the BE removes all of this
; 964  :     using _Ty = typename _Alloc::value_type;
; 965  :     if _CONSTEXPR_IF (!conjunction_v<is_trivially_destructible<_Ty>, _Uses_default_destroy<_Alloc, _Ty*>>) {
; 966  :         for (; _First != _Last; ++_First) {
; 967  :             allocator_traits<_Alloc>::destroy(_Al, _Unfancy(_First));
; 968  :         }
; 969  :     }
; 970  : }

  00003	5d		 pop	 ebp
  00004	c3		 ret	 0
??$_Destroy_range@V?$allocator@PAVCGraphicImageTexture@@@std@@@std@@YAXPAPAVCGraphicImageTexture@@QAPAV1@AAV?$allocator@PAVCGraphicImageTexture@@@0@@Z ENDP ; std::_Destroy_range<std::allocator<CGraphicImageTexture *> >
_TEXT	ENDS
; Function compile flags: /Odspy
; File C:\Program Files (x86)\Microsoft Visual Studio\2019\Community\VC\Tools\MSVC\14.28.29333\include\xtree
; File C:\Program Files (x86)\Microsoft Visual Studio\2019\Community\VC\Tools\MSVC\14.28.29333\include\xmemory
; File C:\Program Files (x86)\Microsoft Visual Studio\2019\Community\VC\Tools\MSVC\14.28.29333\include\xtree
;	COMDAT ??$_Buyheadnode@V?$allocator@U?$_Tree_node@U?$pair@$$CBU?$pair@G_W@std@@USCharacterInfomation@CGraphicFontTexture@@@std@@PAX@std@@@std@@@?$_Tree_node@U?$pair@$$CBU?$pair@G_W@std@@USCharacterInfomation@CGraphicFontTexture@@@std@@PAX@std@@SAPAU01@AAV?$allocator@U?$_Tree_node@U?$pair@$$CBU?$pair@G_W@std@@USCharacterInfomation@CGraphicFontTexture@@@std@@PAX@std@@@1@@Z
_TEXT	SEGMENT
__Max_possible$1 = -20					; size = 4
$T2 = -16						; size = 4
$T3 = -12						; size = 4
__Pnode$ = -8						; size = 4
__Overflow_is_possible$4 = -1				; size = 1
__Al$ = 8						; size = 4
??$_Buyheadnode@V?$allocator@U?$_Tree_node@U?$pair@$$CBU?$pair@G_W@std@@USCharacterInfomation@CGraphicFontTexture@@@std@@PAX@std@@@std@@@?$_Tree_node@U?$pair@$$CBU?$pair@G_W@std@@USCharacterInfomation@CGraphicFontTexture@@@std@@PAX@std@@SAPAU01@AAV?$allocator@U?$_Tree_node@U?$pair@$$CBU?$pair@G_W@std@@USCharacterInfomation@CGraphicFontTexture@@@std@@PAX@std@@@1@@Z PROC ; std::_Tree_node<std::pair<std::pair<unsigned short,wchar_t> const ,CGraphicFontTexture::SCharacterInfomation>,void *>::_Buyheadnode<std::allocator<std::_Tree_node<std::pair<std::pair<unsigned short,wchar_t> const ,CGraphicFontTexture::SCharacterInfomation>,void *> > >, COMDAT

; 341  :     static _Nodeptr _Buyheadnode(_Alloc& _Al) {

  00000	55		 push	 ebp
  00001	8b ec		 mov	 ebp, esp
  00003	83 ec 14	 sub	 esp, 20			; 00000014H
; File C:\Program Files (x86)\Microsoft Visual Studio\2019\Community\VC\Tools\MSVC\14.28.29333\include\xmemory

; 56   :     constexpr bool _Overflow_is_possible = _Ty_size > 1;

  00006	c6 45 ff 01	 mov	 BYTE PTR __Overflow_is_possible$4[ebp], 1

; 57   : 
; 58   :     if _CONSTEXPR_IF (_Overflow_is_possible) {
; 59   :         constexpr size_t _Max_possible = static_cast<size_t>(-1) / _Ty_size;

  0000a	c7 45 ec 55 55
	55 05		 mov	 DWORD PTR __Max_possible$1[ebp], 89478485 ; 05555555H

; 60   :         if (_Count > _Max_possible) {

  00011	33 c0		 xor	 eax, eax
  00013	40		 inc	 eax
  00014	3d 55 55 55 05	 cmp	 eax, 89478485		; 05555555H
  00019	76 05		 jbe	 SHORT $LN6@Buyheadnod

; 61   :             _Throw_bad_array_new_length(); // multiply overflow

  0001b	e8 00 00 00 00	 call	 ?_Throw_bad_array_new_length@std@@YAXXZ ; std::_Throw_bad_array_new_length
$LN6@Buyheadnod:

; 62   :         }
; 63   :     }
; 64   : 
; 65   :     return _Count * _Ty_size;

  00020	33 c0		 xor	 eax, eax
  00022	40		 inc	 eax
  00023	6b c0 30	 imul	 eax, eax, 48
  00026	89 45 f4	 mov	 DWORD PTR $T3[ebp], eax

; 814  :         return static_cast<_Ty*>(_Allocate<_New_alignof<_Ty>>(_Get_size_of_n<sizeof(_Ty)>(_Count)));

  00029	ff 75 f4	 push	 DWORD PTR $T3[ebp]
  0002c	e8 00 00 00 00	 call	 ??$_Allocate@$07U_Default_allocate_traits@std@@$0A@@std@@YAPAXI@Z ; std::_Allocate<8,std::_Default_allocate_traits,0>
  00031	59		 pop	 ecx
  00032	89 45 f0	 mov	 DWORD PTR $T2[ebp], eax
; File C:\Program Files (x86)\Microsoft Visual Studio\2019\Community\VC\Tools\MSVC\14.28.29333\include\xtree

; 343  :         const auto _Pnode = _Al.allocate(1);

  00035	8b 45 f0	 mov	 eax, DWORD PTR $T2[ebp]
  00038	89 45 f8	 mov	 DWORD PTR __Pnode$[ebp], eax

; 344  :         _Construct_in_place(_Pnode->_Left, _Pnode);

  0003b	8d 45 f8	 lea	 eax, DWORD PTR __Pnode$[ebp]
  0003e	50		 push	 eax
  0003f	ff 75 f8	 push	 DWORD PTR __Pnode$[ebp]
  00042	e8 00 00 00 00	 call	 ??$_Construct_in_place@PAU?$_Tree_node@U?$pair@$$CBU?$pair@G_W@std@@USCharacterInfomation@CGraphicFontTexture@@@std@@PAX@std@@ABQAU12@@std@@YAXAAPAU?$_Tree_node@U?$pair@$$CBU?$pair@G_W@std@@USCharacterInfomation@CGraphicFontTexture@@@std@@PAX@0@ABQAU10@@Z ; std::_Construct_in_place<std::_Tree_node<std::pair<std::pair<unsigned short,wchar_t> const ,CGraphicFontTexture::SCharacterInfomation>,void *> *,std::_Tree_node<std::pair<std::pair<unsigned short,wchar_t> const ,CGraphicFontTexture::SCharacterInfomation>,void *> * const &>
  00047	59		 pop	 ecx
  00048	59		 pop	 ecx

; 345  :         _Construct_in_place(_Pnode->_Parent, _Pnode);

  00049	8d 45 f8	 lea	 eax, DWORD PTR __Pnode$[ebp]
  0004c	50		 push	 eax
  0004d	8b 45 f8	 mov	 eax, DWORD PTR __Pnode$[ebp]
  00050	83 c0 04	 add	 eax, 4
  00053	50		 push	 eax
  00054	e8 00 00 00 00	 call	 ??$_Construct_in_place@PAU?$_Tree_node@U?$pair@$$CBU?$pair@G_W@std@@USCharacterInfomation@CGraphicFontTexture@@@std@@PAX@std@@ABQAU12@@std@@YAXAAPAU?$_Tree_node@U?$pair@$$CBU?$pair@G_W@std@@USCharacterInfomation@CGraphicFontTexture@@@std@@PAX@0@ABQAU10@@Z ; std::_Construct_in_place<std::_Tree_node<std::pair<std::pair<unsigned short,wchar_t> const ,CGraphicFontTexture::SCharacterInfomation>,void *> *,std::_Tree_node<std::pair<std::pair<unsigned short,wchar_t> const ,CGraphicFontTexture::SCharacterInfomation>,void *> * const &>
  00059	59		 pop	 ecx
  0005a	59		 pop	 ecx

; 346  :         _Construct_in_place(_Pnode->_Right, _Pnode);

  0005b	8d 45 f8	 lea	 eax, DWORD PTR __Pnode$[ebp]
  0005e	50		 push	 eax
  0005f	8b 45 f8	 mov	 eax, DWORD PTR __Pnode$[ebp]
  00062	83 c0 08	 add	 eax, 8
  00065	50		 push	 eax
  00066	e8 00 00 00 00	 call	 ??$_Construct_in_place@PAU?$_Tree_node@U?$pair@$$CBU?$pair@G_W@std@@USCharacterInfomation@CGraphicFontTexture@@@std@@PAX@std@@ABQAU12@@std@@YAXAAPAU?$_Tree_node@U?$pair@$$CBU?$pair@G_W@std@@USCharacterInfomation@CGraphicFontTexture@@@std@@PAX@0@ABQAU10@@Z ; std::_Construct_in_place<std::_Tree_node<std::pair<std::pair<unsigned short,wchar_t> const ,CGraphicFontTexture::SCharacterInfomation>,void *> *,std::_Tree_node<std::pair<std::pair<unsigned short,wchar_t> const ,CGraphicFontTexture::SCharacterInfomation>,void *> * const &>
  0006b	59		 pop	 ecx
  0006c	59		 pop	 ecx

; 347  :         _Pnode->_Color = _Black;

  0006d	8b 45 f8	 mov	 eax, DWORD PTR __Pnode$[ebp]
  00070	c6 40 0c 01	 mov	 BYTE PTR [eax+12], 1

; 348  :         _Pnode->_Isnil = true;

  00074	8b 45 f8	 mov	 eax, DWORD PTR __Pnode$[ebp]
  00077	c6 40 0d 01	 mov	 BYTE PTR [eax+13], 1

; 349  :         return _Pnode;

  0007b	8b 45 f8	 mov	 eax, DWORD PTR __Pnode$[ebp]
$LN9@Buyheadnod:

; 350  :     }

  0007e	c9		 leave
  0007f	c3		 ret	 0
??$_Buyheadnode@V?$allocator@U?$_Tree_node@U?$pair@$$CBU?$pair@G_W@std@@USCharacterInfomation@CGraphicFontTexture@@@std@@PAX@std@@@std@@@?$_Tree_node@U?$pair@$$CBU?$pair@G_W@std@@USCharacterInfomation@CGraphicFontTexture@@@std@@PAX@std@@SAPAU01@AAV?$allocator@U?$_Tree_node@U?$pair@$$CBU?$pair@G_W@std@@USCharacterInfomation@CGraphicFontTexture@@@std@@PAX@std@@@1@@Z ENDP ; std::_Tree_node<std::pair<std::pair<unsigned short,wchar_t> const ,CGraphicFontTexture::SCharacterInfomation>,void *>::_Buyheadnode<std::allocator<std::_Tree_node<std::pair<std::pair<unsigned short,wchar_t> const ,CGraphicFontTexture::SCharacterInfomation>,void *> > >
_TEXT	ENDS
; Function compile flags: /Odspy
; File C:\Program Files (x86)\Microsoft Visual Studio\2019\Community\VC\Tools\MSVC\14.28.29333\include\xtree
; File C:\Program Files (x86)\Microsoft Visual Studio\2019\Community\VC\Tools\MSVC\14.28.29333\include\xmemory
; File C:\Program Files (x86)\Microsoft Visual Studio\2019\Community\VC\Tools\MSVC\14.28.29333\include\xtree
;	COMDAT ??$_Buyheadnode@V?$allocator@U?$_Tree_node@U?$pair@$$CBGPAUHFONT__@@@std@@PAX@std@@@std@@@?$_Tree_node@U?$pair@$$CBGPAUHFONT__@@@std@@PAX@std@@SAPAU01@AAV?$allocator@U?$_Tree_node@U?$pair@$$CBGPAUHFONT__@@@std@@PAX@std@@@1@@Z
_TEXT	SEGMENT
__Max_possible$1 = -20					; size = 4
$T2 = -16						; size = 4
$T3 = -12						; size = 4
__Pnode$ = -8						; size = 4
__Overflow_is_possible$4 = -1				; size = 1
__Al$ = 8						; size = 4
??$_Buyheadnode@V?$allocator@U?$_Tree_node@U?$pair@$$CBGPAUHFONT__@@@std@@PAX@std@@@std@@@?$_Tree_node@U?$pair@$$CBGPAUHFONT__@@@std@@PAX@std@@SAPAU01@AAV?$allocator@U?$_Tree_node@U?$pair@$$CBGPAUHFONT__@@@std@@PAX@std@@@1@@Z PROC ; std::_Tree_node<std::pair<unsigned short const ,HFONT__ *>,void *>::_Buyheadnode<std::allocator<std::_Tree_node<std::pair<unsigned short const ,HFONT__ *>,void *> > >, COMDAT

; 341  :     static _Nodeptr _Buyheadnode(_Alloc& _Al) {

  00000	55		 push	 ebp
  00001	8b ec		 mov	 ebp, esp
  00003	83 ec 14	 sub	 esp, 20			; 00000014H
; File C:\Program Files (x86)\Microsoft Visual Studio\2019\Community\VC\Tools\MSVC\14.28.29333\include\xmemory

; 56   :     constexpr bool _Overflow_is_possible = _Ty_size > 1;

  00006	c6 45 ff 01	 mov	 BYTE PTR __Overflow_is_possible$4[ebp], 1

; 57   : 
; 58   :     if _CONSTEXPR_IF (_Overflow_is_possible) {
; 59   :         constexpr size_t _Max_possible = static_cast<size_t>(-1) / _Ty_size;

  0000a	c7 45 ec aa aa
	aa 0a		 mov	 DWORD PTR __Max_possible$1[ebp], 178956970 ; 0aaaaaaaH

; 60   :         if (_Count > _Max_possible) {

  00011	33 c0		 xor	 eax, eax
  00013	40		 inc	 eax
  00014	3d aa aa aa 0a	 cmp	 eax, 178956970		; 0aaaaaaaH
  00019	76 05		 jbe	 SHORT $LN6@Buyheadnod

; 61   :             _Throw_bad_array_new_length(); // multiply overflow

  0001b	e8 00 00 00 00	 call	 ?_Throw_bad_array_new_length@std@@YAXXZ ; std::_Throw_bad_array_new_length
$LN6@Buyheadnod:

; 62   :         }
; 63   :     }
; 64   : 
; 65   :     return _Count * _Ty_size;

  00020	33 c0		 xor	 eax, eax
  00022	40		 inc	 eax
  00023	6b c0 18	 imul	 eax, eax, 24
  00026	89 45 f4	 mov	 DWORD PTR $T3[ebp], eax

; 814  :         return static_cast<_Ty*>(_Allocate<_New_alignof<_Ty>>(_Get_size_of_n<sizeof(_Ty)>(_Count)));

  00029	ff 75 f4	 push	 DWORD PTR $T3[ebp]
  0002c	e8 00 00 00 00	 call	 ??$_Allocate@$07U_Default_allocate_traits@std@@$0A@@std@@YAPAXI@Z ; std::_Allocate<8,std::_Default_allocate_traits,0>
  00031	59		 pop	 ecx
  00032	89 45 f0	 mov	 DWORD PTR $T2[ebp], eax
; File C:\Program Files (x86)\Microsoft Visual Studio\2019\Community\VC\Tools\MSVC\14.28.29333\include\xtree

; 343  :         const auto _Pnode = _Al.allocate(1);

  00035	8b 45 f0	 mov	 eax, DWORD PTR $T2[ebp]
  00038	89 45 f8	 mov	 DWORD PTR __Pnode$[ebp], eax

; 344  :         _Construct_in_place(_Pnode->_Left, _Pnode);

  0003b	8d 45 f8	 lea	 eax, DWORD PTR __Pnode$[ebp]
  0003e	50		 push	 eax
  0003f	ff 75 f8	 push	 DWORD PTR __Pnode$[ebp]
  00042	e8 00 00 00 00	 call	 ??$_Construct_in_place@PAU?$_Tree_node@U?$pair@$$CBGPAUHFONT__@@@std@@PAX@std@@ABQAU12@@std@@YAXAAPAU?$_Tree_node@U?$pair@$$CBGPAUHFONT__@@@std@@PAX@0@ABQAU10@@Z ; std::_Construct_in_place<std::_Tree_node<std::pair<unsigned short const ,HFONT__ *>,void *> *,std::_Tree_node<std::pair<unsigned short const ,HFONT__ *>,void *> * const &>
  00047	59		 pop	 ecx
  00048	59		 pop	 ecx

; 345  :         _Construct_in_place(_Pnode->_Parent, _Pnode);

  00049	8d 45 f8	 lea	 eax, DWORD PTR __Pnode$[ebp]
  0004c	50		 push	 eax
  0004d	8b 45 f8	 mov	 eax, DWORD PTR __Pnode$[ebp]
  00050	83 c0 04	 add	 eax, 4
  00053	50		 push	 eax
  00054	e8 00 00 00 00	 call	 ??$_Construct_in_place@PAU?$_Tree_node@U?$pair@$$CBGPAUHFONT__@@@std@@PAX@std@@ABQAU12@@std@@YAXAAPAU?$_Tree_node@U?$pair@$$CBGPAUHFONT__@@@std@@PAX@0@ABQAU10@@Z ; std::_Construct_in_place<std::_Tree_node<std::pair<unsigned short const ,HFONT__ *>,void *> *,std::_Tree_node<std::pair<unsigned short const ,HFONT__ *>,void *> * const &>
  00059	59		 pop	 ecx
  0005a	59		 pop	 ecx

; 346  :         _Construct_in_place(_Pnode->_Right, _Pnode);

  0005b	8d 45 f8	 lea	 eax, DWORD PTR __Pnode$[ebp]
  0005e	50		 push	 eax
  0005f	8b 45 f8	 mov	 eax, DWORD PTR __Pnode$[ebp]
  00062	83 c0 08	 add	 eax, 8
  00065	50		 push	 eax
  00066	e8 00 00 00 00	 call	 ??$_Construct_in_place@PAU?$_Tree_node@U?$pair@$$CBGPAUHFONT__@@@std@@PAX@std@@ABQAU12@@std@@YAXAAPAU?$_Tree_node@U?$pair@$$CBGPAUHFONT__@@@std@@PAX@0@ABQAU10@@Z ; std::_Construct_in_place<std::_Tree_node<std::pair<unsigned short const ,HFONT__ *>,void *> *,std::_Tree_node<std::pair<unsigned short const ,HFONT__ *>,void *> * const &>
  0006b	59		 pop	 ecx
  0006c	59		 pop	 ecx

; 347  :         _Pnode->_Color = _Black;

  0006d	8b 45 f8	 mov	 eax, DWORD PTR __Pnode$[ebp]
  00070	c6 40 0c 01	 mov	 BYTE PTR [eax+12], 1

; 348  :         _Pnode->_Isnil = true;

  00074	8b 45 f8	 mov	 eax, DWORD PTR __Pnode$[ebp]
  00077	c6 40 0d 01	 mov	 BYTE PTR [eax+13], 1

; 349  :         return _Pnode;

  0007b	8b 45 f8	 mov	 eax, DWORD PTR __Pnode$[ebp]
$LN9@Buyheadnod:

; 350  :     }

  0007e	c9		 leave
  0007f	c3		 ret	 0
??$_Buyheadnode@V?$allocator@U?$_Tree_node@U?$pair@$$CBGPAUHFONT__@@@std@@PAX@std@@@std@@@?$_Tree_node@U?$pair@$$CBGPAUHFONT__@@@std@@PAX@std@@SAPAU01@AAV?$allocator@U?$_Tree_node@U?$pair@$$CBGPAUHFONT__@@@std@@PAX@std@@@1@@Z ENDP ; std::_Tree_node<std::pair<unsigned short const ,HFONT__ *>,void *>::_Buyheadnode<std::allocator<std::_Tree_node<std::pair<unsigned short const ,HFONT__ *>,void *> > >
_TEXT	ENDS
; Function compile flags: /Odspy
; File C:\Program Files (x86)\Microsoft Visual Studio\2019\Community\VC\Tools\MSVC\14.28.29333\include\vector
; File C:\Program Files (x86)\Microsoft Visual Studio\2019\Community\VC\Tools\MSVC\14.28.29333\include\xmemory
; File C:\Program Files (x86)\Microsoft Visual Studio\2019\Community\VC\Tools\MSVC\14.28.29333\include\vector
; File C:\Program Files (x86)\Microsoft Visual Studio\2019\Community\VC\Tools\MSVC\14.28.29333\include\xmemory
; File C:\Program Files (x86)\Microsoft Visual Studio\2019\Community\VC\Tools\MSVC\14.28.29333\include\vector
; File C:\Program Files (x86)\Microsoft Visual Studio\2019\Community\VC\Tools\MSVC\14.28.29333\include\xmemory
; File C:\Program Files (x86)\Microsoft Visual Studio\2019\Community\VC\Tools\MSVC\14.28.29333\include\limits
; File C:\Program Files (x86)\Microsoft Visual Studio\2019\Community\VC\Tools\MSVC\14.28.29333\include\vector
; File C:\Program Files (x86)\Microsoft Visual Studio\2019\Community\VC\Tools\MSVC\14.28.29333\include\utility
; File C:\Program Files (x86)\Microsoft Visual Studio\2019\Community\VC\Tools\MSVC\14.28.29333\include\vector
; File C:\Program Files (x86)\Microsoft Visual Studio\2019\Community\VC\Tools\MSVC\14.28.29333\include\xmemory
; File C:\Program Files (x86)\Microsoft Visual Studio\2019\Community\VC\Tools\MSVC\14.28.29333\include\vector
; File C:\Program Files (x86)\Microsoft Visual Studio\2019\Community\VC\Tools\MSVC\14.28.29333\include\type_traits
; File C:\Program Files (x86)\Microsoft Visual Studio\2019\Community\VC\Tools\MSVC\14.28.29333\include\vector
; File C:\Program Files (x86)\Microsoft Visual Studio\2019\Community\VC\Tools\MSVC\14.28.29333\include\xstddef
; File C:\Program Files (x86)\Microsoft Visual Studio\2019\Community\VC\Tools\MSVC\14.28.29333\include\vcruntime_new.h
; File C:\Program Files (x86)\Microsoft Visual Studio\2019\Community\VC\Tools\MSVC\14.28.29333\include\type_traits
; File C:\Program Files (x86)\Microsoft Visual Studio\2019\Community\VC\Tools\MSVC\14.28.29333\include\xmemory
; File C:\Program Files (x86)\Microsoft Visual Studio\2019\Community\VC\Tools\MSVC\14.28.29333\include\vector
; File C:\Program Files (x86)\Microsoft Visual Studio\2019\Community\VC\Tools\MSVC\14.28.29333\include\xmemory
; File C:\Program Files (x86)\Microsoft Visual Studio\2019\Community\VC\Tools\MSVC\14.28.29333\include\vector
; File C:\Program Files (x86)\Microsoft Visual Studio\2019\Community\VC\Tools\MSVC\14.28.29333\include\xmemory
; File C:\Program Files (x86)\Microsoft Visual Studio\2019\Community\VC\Tools\MSVC\14.28.29333\include\vector
; File C:\Program Files (x86)\Microsoft Visual Studio\2019\Community\VC\Tools\MSVC\14.28.29333\include\xmemory
; File C:\Program Files (x86)\Microsoft Visual Studio\2019\Community\VC\Tools\MSVC\14.28.29333\include\vector
;	COMDAT ??$_Emplace_reallocate@ABQAVCGraphicImageTexture@@@?$vector@PAVCGraphicImageTexture@@V?$allocator@PAVCGraphicImageTexture@@@std@@@std@@QAEPAPAVCGraphicImageTexture@@QAPAV2@ABQAV2@@Z
_TEXT	SEGMENT
__Max_possible$2 = -68					; size = 4
$T3 = -64						; size = 4
__Al$ = -60						; size = 4
__Last$ = -56						; size = 4
$T4 = -52						; size = 4
$T5 = -48						; size = 4
__First$ = -44						; size = 4
$T6 = -40						; size = 4
$T7 = -36						; size = 4
__First$ = -32						; size = 4
__Last$ = -28						; size = 4
$T8 = -24						; size = 4
$T9 = -20						; size = 4
__$EHRec$ = -16						; size = 16
$T10 = 0						; size = 4
$T11 = 4						; size = 4
$T12 = 8						; size = 4
$T13 = 12						; size = 4
$T14 = 16						; size = 4
$T15 = 20						; size = 4
$T16 = 24						; size = 4
$T17 = 28						; size = 4
$T18 = 32						; size = 4
$T19 = 36						; size = 4
$T20 = 40						; size = 4
__Newsize$ = 44						; size = 4
__Constructed_last$ = 48				; size = 4
__Oldsize$ = 52						; size = 4
tv172 = 56						; size = 4
$T21 = 60						; size = 4
$T22 = 64						; size = 4
__My_data$ = 68						; size = 4
__Constructed_first$ = 72				; size = 4
___formal$ = 76						; size = 1
__Overflow_is_possible$23 = 83				; size = 1
__Newcapacity$ = 84					; size = 4
__Mylast$ = 88						; size = 4
__Myfirst$ = 92						; size = 4
__Whereoff$ = 96					; size = 4
$T24 = 103						; size = 1
_this$ = 104						; size = 4
__Newvec$ = 108						; size = 4
__Whereptr$ = 120					; size = 4
_<_Val_0>$ = 124					; size = 4
??$_Emplace_reallocate@ABQAVCGraphicImageTexture@@@?$vector@PAVCGraphicImageTexture@@V?$allocator@PAVCGraphicImageTexture@@@std@@@std@@QAEPAPAVCGraphicImageTexture@@QAPAV2@ABQAV2@@Z PROC ; std::vector<CGraphicImageTexture *,std::allocator<CGraphicImageTexture *> >::_Emplace_reallocate<CGraphicImageTexture * const &>, COMDAT
; _this$ = ecx

; 725  :     pointer _Emplace_reallocate(const pointer _Whereptr, _Valty&&... _Val) {

  00000	55		 push	 ebp
  00001	8d 6c 24 90	 lea	 ebp, DWORD PTR [esp-112]
  00005	83 ec 70	 sub	 esp, 112		; 00000070H
  00008	6a ff		 push	 -1
  0000a	68 00 00 00 00	 push	 __ehhandler$??$_Emplace_reallocate@ABQAVCGraphicImageTexture@@@?$vector@PAVCGraphicImageTexture@@V?$allocator@PAVCGraphicImageTexture@@@std@@@std@@QAEPAPAVCGraphicImageTexture@@QAPAV2@ABQAV2@@Z
  0000f	64 a1 00 00 00
	00		 mov	 eax, DWORD PTR fs:0
  00015	50		 push	 eax
  00016	51		 push	 ecx
  00017	83 ec 34	 sub	 esp, 52			; 00000034H
  0001a	53		 push	 ebx
  0001b	56		 push	 esi
  0001c	57		 push	 edi
  0001d	a1 00 00 00 00	 mov	 eax, DWORD PTR ___security_cookie
  00022	33 c5		 xor	 eax, ebp
  00024	50		 push	 eax
  00025	8d 45 f4	 lea	 eax, DWORD PTR __$EHRec$[ebp+4]
  00028	64 a3 00 00 00
	00		 mov	 DWORD PTR fs:0, eax
  0002e	89 65 f0	 mov	 DWORD PTR __$EHRec$[ebp], esp
  00031	89 4d 68	 mov	 DWORD PTR _this$[ebp], ecx

; 1733 :         return _Mypair._Get_first();

  00034	8b 45 68	 mov	 eax, DWORD PTR _this$[ebp]
; File C:\Program Files (x86)\Microsoft Visual Studio\2019\Community\VC\Tools\MSVC\14.28.29333\include\xmemory

; 1347 :         return *this;

  00037	89 45 28	 mov	 DWORD PTR $T20[ebp], eax
; File C:\Program Files (x86)\Microsoft Visual Studio\2019\Community\VC\Tools\MSVC\14.28.29333\include\vector

; 1733 :         return _Mypair._Get_first();

  0003a	8b 45 28	 mov	 eax, DWORD PTR $T20[ebp]
  0003d	89 45 c4	 mov	 DWORD PTR __Al$[ebp], eax

; 726  :         // reallocate and insert by perfectly forwarding _Val at _Whereptr
; 727  :         _Alty& _Al        = _Getal();
; 728  :         auto& _My_data    = _Mypair._Myval2;

  00040	8b 45 68	 mov	 eax, DWORD PTR _this$[ebp]
  00043	89 45 44	 mov	 DWORD PTR __My_data$[ebp], eax

; 729  :         pointer& _Myfirst = _My_data._Myfirst;

  00046	8b 45 44	 mov	 eax, DWORD PTR __My_data$[ebp]
  00049	89 45 5c	 mov	 DWORD PTR __Myfirst$[ebp], eax

; 730  :         pointer& _Mylast  = _My_data._Mylast;

  0004c	8b 45 44	 mov	 eax, DWORD PTR __My_data$[ebp]
  0004f	83 c0 04	 add	 eax, 4
  00052	89 45 58	 mov	 DWORD PTR __Mylast$[ebp], eax

; 731  : 
; 732  :         _STL_INTERNAL_CHECK(_Mylast == _My_data._Myend); // check that we have no unused capacity
; 733  : 
; 734  :         const auto _Whereoff = static_cast<size_type>(_Whereptr - _Myfirst);

  00055	8b 45 5c	 mov	 eax, DWORD PTR __Myfirst$[ebp]
  00058	8b 4d 78	 mov	 ecx, DWORD PTR __Whereptr$[ebp]
  0005b	2b 08		 sub	 ecx, DWORD PTR [eax]
  0005d	c1 f9 02	 sar	 ecx, 2
  00060	89 4d 60	 mov	 DWORD PTR __Whereoff$[ebp], ecx

; 735  :         const auto _Oldsize  = static_cast<size_type>(_Mylast - _Myfirst);

  00063	8b 45 58	 mov	 eax, DWORD PTR __Mylast$[ebp]
  00066	8b 4d 5c	 mov	 ecx, DWORD PTR __Myfirst$[ebp]
  00069	8b 00		 mov	 eax, DWORD PTR [eax]
  0006b	2b 01		 sub	 eax, DWORD PTR [ecx]
  0006d	c1 f8 02	 sar	 eax, 2
  00070	89 45 34	 mov	 DWORD PTR __Oldsize$[ebp], eax

; 1737 :         return _Mypair._Get_first();

  00073	8b 45 68	 mov	 eax, DWORD PTR _this$[ebp]
; File C:\Program Files (x86)\Microsoft Visual Studio\2019\Community\VC\Tools\MSVC\14.28.29333\include\xmemory

; 1351 :         return *this;

  00076	89 45 24	 mov	 DWORD PTR $T19[ebp], eax
; File C:\Program Files (x86)\Microsoft Visual Studio\2019\Community\VC\Tools\MSVC\14.28.29333\include\vector

; 1737 :         return _Mypair._Get_first();

  00079	8b 45 24	 mov	 eax, DWORD PTR $T19[ebp]
  0007c	89 45 c0	 mov	 DWORD PTR $T3[ebp], eax
; File C:\Program Files (x86)\Microsoft Visual Studio\2019\Community\VC\Tools\MSVC\14.28.29333\include\xmemory

; 710  :         return static_cast<size_t>(-1) / sizeof(value_type);

  0007f	c7 45 40 ff ff
	ff 3f		 mov	 DWORD PTR $T22[ebp], 1073741823 ; 3fffffffH
; File C:\Program Files (x86)\Microsoft Visual Studio\2019\Community\VC\Tools\MSVC\14.28.29333\include\limits

; 557  :         return INT_MAX;

  00086	c7 45 20 ff ff
	ff 7f		 mov	 DWORD PTR $T18[ebp], 2147483647 ; 7fffffffH
; File C:\Program Files (x86)\Microsoft Visual Studio\2019\Community\VC\Tools\MSVC\14.28.29333\include\vector

; 1488 :         return (_STD min)(

  0008d	8b 45 20	 mov	 eax, DWORD PTR $T18[ebp]
  00090	89 45 3c	 mov	 DWORD PTR $T21[ebp], eax
; File C:\Program Files (x86)\Microsoft Visual Studio\2019\Community\VC\Tools\MSVC\14.28.29333\include\utility

; 68   :     return _Right < _Left ? _Right : _Left;

  00093	8b 45 40	 mov	 eax, DWORD PTR $T22[ebp]
  00096	3b 45 3c	 cmp	 eax, DWORD PTR $T21[ebp]
  00099	73 08		 jae	 SHORT $LN34@Emplace_re
  0009b	8d 45 40	 lea	 eax, DWORD PTR $T22[ebp]
  0009e	89 45 38	 mov	 DWORD PTR tv172[ebp], eax
  000a1	eb 06		 jmp	 SHORT $LN35@Emplace_re
$LN34@Emplace_re:
  000a3	8d 45 3c	 lea	 eax, DWORD PTR $T21[ebp]
  000a6	89 45 38	 mov	 DWORD PTR tv172[ebp], eax
$LN35@Emplace_re:
  000a9	8b 45 38	 mov	 eax, DWORD PTR tv172[ebp]
  000ac	89 45 1c	 mov	 DWORD PTR $T17[ebp], eax
  000af	8b 45 1c	 mov	 eax, DWORD PTR $T17[ebp]
  000b2	89 45 18	 mov	 DWORD PTR $T16[ebp], eax
; File C:\Program Files (x86)\Microsoft Visual Studio\2019\Community\VC\Tools\MSVC\14.28.29333\include\vector

; 1488 :         return (_STD min)(

  000b5	8b 45 18	 mov	 eax, DWORD PTR $T16[ebp]
  000b8	8b 00		 mov	 eax, DWORD PTR [eax]
  000ba	89 45 14	 mov	 DWORD PTR $T15[ebp], eax

; 736  : 
; 737  :         if (_Oldsize == max_size()) {

  000bd	8b 45 34	 mov	 eax, DWORD PTR __Oldsize$[ebp]
  000c0	3b 45 14	 cmp	 eax, DWORD PTR $T15[ebp]
  000c3	75 05		 jne	 SHORT $LN2@Emplace_re

; 738  :             _Xlength();

  000c5	e8 00 00 00 00	 call	 ?_Xlength@?$vector@PAVCGraphicImageTexture@@V?$allocator@PAVCGraphicImageTexture@@@std@@@std@@CAXXZ ; std::vector<CGraphicImageTexture *,std::allocator<CGraphicImageTexture *> >::_Xlength
$LN2@Emplace_re:

; 739  :         }
; 740  : 
; 741  :         const size_type _Newsize     = _Oldsize + 1;

  000ca	8b 45 34	 mov	 eax, DWORD PTR __Oldsize$[ebp]
  000cd	40		 inc	 eax
  000ce	89 45 2c	 mov	 DWORD PTR __Newsize$[ebp], eax

; 742  :         const size_type _Newcapacity = _Calculate_growth(_Newsize);

  000d1	ff 75 2c	 push	 DWORD PTR __Newsize$[ebp]
  000d4	8b 4d 68	 mov	 ecx, DWORD PTR _this$[ebp]
  000d7	e8 00 00 00 00	 call	 ?_Calculate_growth@?$vector@PAVCGraphicImageTexture@@V?$allocator@PAVCGraphicImageTexture@@@std@@@std@@ABEII@Z ; std::vector<CGraphicImageTexture *,std::allocator<CGraphicImageTexture *> >::_Calculate_growth
  000dc	89 45 54	 mov	 DWORD PTR __Newcapacity$[ebp], eax
; File C:\Program Files (x86)\Microsoft Visual Studio\2019\Community\VC\Tools\MSVC\14.28.29333\include\xmemory

; 56   :     constexpr bool _Overflow_is_possible = _Ty_size > 1;

  000df	c6 45 53 01	 mov	 BYTE PTR __Overflow_is_possible$23[ebp], 1

; 57   : 
; 58   :     if _CONSTEXPR_IF (_Overflow_is_possible) {
; 59   :         constexpr size_t _Max_possible = static_cast<size_t>(-1) / _Ty_size;

  000e3	c7 45 bc ff ff
	ff 3f		 mov	 DWORD PTR __Max_possible$2[ebp], 1073741823 ; 3fffffffH

; 60   :         if (_Count > _Max_possible) {

  000ea	81 7d 54 ff ff
	ff 3f		 cmp	 DWORD PTR __Newcapacity$[ebp], 1073741823 ; 3fffffffH
  000f1	76 05		 jbe	 SHORT $LN67@Emplace_re

; 61   :             _Throw_bad_array_new_length(); // multiply overflow

  000f3	e8 00 00 00 00	 call	 ?_Throw_bad_array_new_length@std@@YAXXZ ; std::_Throw_bad_array_new_length
$LN67@Emplace_re:

; 62   :         }
; 63   :     }
; 64   : 
; 65   :     return _Count * _Ty_size;

  000f8	8b 45 54	 mov	 eax, DWORD PTR __Newcapacity$[ebp]
  000fb	c1 e0 02	 shl	 eax, 2
  000fe	89 45 10	 mov	 DWORD PTR $T14[ebp], eax

; 814  :         return static_cast<_Ty*>(_Allocate<_New_alignof<_Ty>>(_Get_size_of_n<sizeof(_Ty)>(_Count)));

  00101	ff 75 10	 push	 DWORD PTR $T14[ebp]
  00104	e8 00 00 00 00	 call	 ??$_Allocate@$07U_Default_allocate_traits@std@@$0A@@std@@YAPAXI@Z ; std::_Allocate<8,std::_Default_allocate_traits,0>
  00109	59		 pop	 ecx
  0010a	89 45 6c	 mov	 DWORD PTR __Newvec$[ebp], eax
; File C:\Program Files (x86)\Microsoft Visual Studio\2019\Community\VC\Tools\MSVC\14.28.29333\include\vector

; 745  :         const pointer _Constructed_last = _Newvec + _Whereoff + 1;

  0010d	8b 45 60	 mov	 eax, DWORD PTR __Whereoff$[ebp]
  00110	8b 4d 6c	 mov	 ecx, DWORD PTR __Newvec$[ebp]
  00113	8d 44 81 04	 lea	 eax, DWORD PTR [ecx+eax*4+4]
  00117	89 45 30	 mov	 DWORD PTR __Constructed_last$[ebp], eax

; 746  :         pointer _Constructed_first      = _Constructed_last;

  0011a	8b 45 30	 mov	 eax, DWORD PTR __Constructed_last$[ebp]
  0011d	89 45 48	 mov	 DWORD PTR __Constructed_first$[ebp], eax

; 747  : 
; 748  :         _TRY_BEGIN

  00120	83 65 fc 00	 and	 DWORD PTR __$EHRec$[ebp+12], 0
; File C:\Program Files (x86)\Microsoft Visual Studio\2019\Community\VC\Tools\MSVC\14.28.29333\include\type_traits

; 1443 :     return static_cast<_Ty&&>(_Arg);

  00124	8b 45 7c	 mov	 eax, DWORD PTR _<_Val_0>$[ebp]
  00127	89 45 08	 mov	 DWORD PTR $T12[ebp], eax
; File C:\Program Files (x86)\Microsoft Visual Studio\2019\Community\VC\Tools\MSVC\14.28.29333\include\vector

; 749  :         _Alty_traits::construct(_Al, _Unfancy(_Newvec + _Whereoff), _STD forward<_Valty>(_Val)...);

  0012a	8b 45 60	 mov	 eax, DWORD PTR __Whereoff$[ebp]
  0012d	8b 4d 6c	 mov	 ecx, DWORD PTR __Newvec$[ebp]
  00130	8d 04 81	 lea	 eax, DWORD PTR [ecx+eax*4]
; File C:\Program Files (x86)\Microsoft Visual Studio\2019\Community\VC\Tools\MSVC\14.28.29333\include\xstddef

; 289  :     return _Ptr;

  00133	89 45 0c	 mov	 DWORD PTR $T13[ebp], eax
; File C:\Program Files (x86)\Microsoft Visual Studio\2019\Community\VC\Tools\MSVC\14.28.29333\include\vcruntime_new.h

; 169  :         return _Where;

  00136	8b 45 0c	 mov	 eax, DWORD PTR $T13[ebp]
  00139	89 45 04	 mov	 DWORD PTR $T11[ebp], eax
; File C:\Program Files (x86)\Microsoft Visual Studio\2019\Community\VC\Tools\MSVC\14.28.29333\include\type_traits

; 1443 :     return static_cast<_Ty&&>(_Arg);

  0013c	8b 45 08	 mov	 eax, DWORD PTR $T12[ebp]
  0013f	89 45 00	 mov	 DWORD PTR $T10[ebp], eax
; File C:\Program Files (x86)\Microsoft Visual Studio\2019\Community\VC\Tools\MSVC\14.28.29333\include\xmemory

; 701  :         ::new (const_cast<void*>(static_cast<const volatile void*>(_Ptr))) _Objty(_STD forward<_Types>(_Args)...);

  00142	8b 45 04	 mov	 eax, DWORD PTR $T11[ebp]
  00145	8b 4d 00	 mov	 ecx, DWORD PTR $T10[ebp]
  00148	8b 09		 mov	 ecx, DWORD PTR [ecx]
  0014a	89 08		 mov	 DWORD PTR [eax], ecx
; File C:\Program Files (x86)\Microsoft Visual Studio\2019\Community\VC\Tools\MSVC\14.28.29333\include\vector

; 750  :         _Constructed_first = _Newvec + _Whereoff;

  0014c	8b 45 60	 mov	 eax, DWORD PTR __Whereoff$[ebp]
  0014f	8b 4d 6c	 mov	 ecx, DWORD PTR __Newvec$[ebp]
  00152	8d 04 81	 lea	 eax, DWORD PTR [ecx+eax*4]
  00155	89 45 48	 mov	 DWORD PTR __Constructed_first$[ebp], eax

; 751  : 
; 752  :         if (_Whereptr == _Mylast) { // at back, provide strong guarantee

  00158	8b 45 58	 mov	 eax, DWORD PTR __Mylast$[ebp]
  0015b	8b 4d 78	 mov	 ecx, DWORD PTR __Whereptr$[ebp]
  0015e	3b 08		 cmp	 ecx, DWORD PTR [eax]
  00160	75 3d		 jne	 SHORT $LN4@Emplace_re

; 753  :             _Umove_if_noexcept(_Myfirst, _Mylast, _Newvec);

  00162	8b 45 58	 mov	 eax, DWORD PTR __Mylast$[ebp]
  00165	8b 00		 mov	 eax, DWORD PTR [eax]
  00167	89 45 e4	 mov	 DWORD PTR __Last$[ebp], eax
  0016a	8b 45 5c	 mov	 eax, DWORD PTR __Myfirst$[ebp]
  0016d	8b 00		 mov	 eax, DWORD PTR [eax]
  0016f	89 45 e0	 mov	 DWORD PTR __First$[ebp], eax

; 1607 :         _Umove_if_noexcept1(_First, _Last, _Dest,

  00172	33 c0		 xor	 eax, eax
  00174	88 45 67	 mov	 BYTE PTR $T24[ebp], al
  00177	8a 45 67	 mov	 al, BYTE PTR $T24[ebp]
  0017a	88 45 4c	 mov	 BYTE PTR ___formal$[ebp], al

; 1733 :         return _Mypair._Get_first();

  0017d	8b 45 68	 mov	 eax, DWORD PTR _this$[ebp]
; File C:\Program Files (x86)\Microsoft Visual Studio\2019\Community\VC\Tools\MSVC\14.28.29333\include\xmemory

; 1347 :         return *this;

  00180	89 45 ec	 mov	 DWORD PTR $T9[ebp], eax
; File C:\Program Files (x86)\Microsoft Visual Studio\2019\Community\VC\Tools\MSVC\14.28.29333\include\vector

; 1733 :         return _Mypair._Get_first();

  00183	8b 45 ec	 mov	 eax, DWORD PTR $T9[ebp]
  00186	89 45 e8	 mov	 DWORD PTR $T8[ebp], eax

; 1597 :         _Uninitialized_move(_First, _Last, _Dest, _Getal());

  00189	ff 75 e8	 push	 DWORD PTR $T8[ebp]
  0018c	ff 75 6c	 push	 DWORD PTR __Newvec$[ebp]
  0018f	ff 75 e4	 push	 DWORD PTR __Last$[ebp]
  00192	ff 75 e0	 push	 DWORD PTR __First$[ebp]
  00195	e8 00 00 00 00	 call	 ??$_Uninitialized_move@PAPAVCGraphicImageTexture@@V?$allocator@PAVCGraphicImageTexture@@@std@@@std@@YAPAPAVCGraphicImageTexture@@QAPAV1@0PAPAV1@AAV?$allocator@PAVCGraphicImageTexture@@@0@@Z ; std::_Uninitialized_move<CGraphicImageTexture * *,std::allocator<CGraphicImageTexture *> >
  0019a	83 c4 10	 add	 esp, 16			; 00000010H

; 754  :         } else { // provide basic guarantee

  0019d	eb 5e		 jmp	 SHORT $LN5@Emplace_re
$LN4@Emplace_re:

; 755  :             _Umove(_Myfirst, _Whereptr, _Newvec);

  0019f	8b 45 5c	 mov	 eax, DWORD PTR __Myfirst$[ebp]
  001a2	8b 00		 mov	 eax, DWORD PTR [eax]
  001a4	89 45 d4	 mov	 DWORD PTR __First$[ebp], eax

; 1733 :         return _Mypair._Get_first();

  001a7	8b 45 68	 mov	 eax, DWORD PTR _this$[ebp]
; File C:\Program Files (x86)\Microsoft Visual Studio\2019\Community\VC\Tools\MSVC\14.28.29333\include\xmemory

; 1347 :         return *this;

  001aa	89 45 dc	 mov	 DWORD PTR $T7[ebp], eax
; File C:\Program Files (x86)\Microsoft Visual Studio\2019\Community\VC\Tools\MSVC\14.28.29333\include\vector

; 1733 :         return _Mypair._Get_first();

  001ad	8b 45 dc	 mov	 eax, DWORD PTR $T7[ebp]
  001b0	89 45 d8	 mov	 DWORD PTR $T6[ebp], eax

; 1592 :         return _Uninitialized_move(_First, _Last, _Dest, _Getal());

  001b3	ff 75 d8	 push	 DWORD PTR $T6[ebp]
  001b6	ff 75 6c	 push	 DWORD PTR __Newvec$[ebp]
  001b9	ff 75 78	 push	 DWORD PTR __Whereptr$[ebp]
  001bc	ff 75 d4	 push	 DWORD PTR __First$[ebp]
  001bf	e8 00 00 00 00	 call	 ??$_Uninitialized_move@PAPAVCGraphicImageTexture@@V?$allocator@PAVCGraphicImageTexture@@@std@@@std@@YAPAPAVCGraphicImageTexture@@QAPAV1@0PAPAV1@AAV?$allocator@PAVCGraphicImageTexture@@@0@@Z ; std::_Uninitialized_move<CGraphicImageTexture * *,std::allocator<CGraphicImageTexture *> >
  001c4	83 c4 10	 add	 esp, 16			; 00000010H

; 756  :             _Constructed_first = _Newvec;

  001c7	8b 45 6c	 mov	 eax, DWORD PTR __Newvec$[ebp]
  001ca	89 45 48	 mov	 DWORD PTR __Constructed_first$[ebp], eax

; 757  :             _Umove(_Whereptr, _Mylast, _Newvec + _Whereoff + 1);

  001cd	8b 45 58	 mov	 eax, DWORD PTR __Mylast$[ebp]
  001d0	8b 00		 mov	 eax, DWORD PTR [eax]
  001d2	89 45 c8	 mov	 DWORD PTR __Last$[ebp], eax

; 1733 :         return _Mypair._Get_first();

  001d5	8b 45 68	 mov	 eax, DWORD PTR _this$[ebp]
; File C:\Program Files (x86)\Microsoft Visual Studio\2019\Community\VC\Tools\MSVC\14.28.29333\include\xmemory

; 1347 :         return *this;

  001d8	89 45 d0	 mov	 DWORD PTR $T5[ebp], eax
; File C:\Program Files (x86)\Microsoft Visual Studio\2019\Community\VC\Tools\MSVC\14.28.29333\include\vector

; 1733 :         return _Mypair._Get_first();

  001db	8b 45 d0	 mov	 eax, DWORD PTR $T5[ebp]
  001de	89 45 cc	 mov	 DWORD PTR $T4[ebp], eax

; 1592 :         return _Uninitialized_move(_First, _Last, _Dest, _Getal());

  001e1	ff 75 cc	 push	 DWORD PTR $T4[ebp]

; 757  :             _Umove(_Whereptr, _Mylast, _Newvec + _Whereoff + 1);

  001e4	8b 45 60	 mov	 eax, DWORD PTR __Whereoff$[ebp]
  001e7	8b 4d 6c	 mov	 ecx, DWORD PTR __Newvec$[ebp]
  001ea	8d 44 81 04	 lea	 eax, DWORD PTR [ecx+eax*4+4]

; 1592 :         return _Uninitialized_move(_First, _Last, _Dest, _Getal());

  001ee	50		 push	 eax
  001ef	ff 75 c8	 push	 DWORD PTR __Last$[ebp]
  001f2	ff 75 78	 push	 DWORD PTR __Whereptr$[ebp]
  001f5	e8 00 00 00 00	 call	 ??$_Uninitialized_move@PAPAVCGraphicImageTexture@@V?$allocator@PAVCGraphicImageTexture@@@std@@@std@@YAPAPAVCGraphicImageTexture@@QAPAV1@0PAPAV1@AAV?$allocator@PAVCGraphicImageTexture@@@0@@Z ; std::_Uninitialized_move<CGraphicImageTexture * *,std::allocator<CGraphicImageTexture *> >
  001fa	83 c4 10	 add	 esp, 16			; 00000010H
$LN5@Emplace_re:

; 757  :             _Umove(_Whereptr, _Mylast, _Newvec + _Whereoff + 1);

  001fd	eb 2b		 jmp	 SHORT $LN7@Emplace_re
__catch$??$_Emplace_reallocate@ABQAVCGraphicImageTexture@@@?$vector@PAVCGraphicImageTexture@@V?$allocator@PAVCGraphicImageTexture@@@std@@@std@@QAEPAPAVCGraphicImageTexture@@QAPAV2@ABQAV2@@Z$0:

; 758  :         }
; 759  :         _CATCH_ALL
; 760  :         _Destroy(_Constructed_first, _Constructed_last);

  001ff	ff 75 30	 push	 DWORD PTR __Constructed_last$[ebp]
  00202	ff 75 48	 push	 DWORD PTR __Constructed_first$[ebp]
  00205	8b 4d 68	 mov	 ecx, DWORD PTR _this$[ebp]
  00208	e8 00 00 00 00	 call	 ?_Destroy@?$vector@PAVCGraphicImageTexture@@V?$allocator@PAVCGraphicImageTexture@@@std@@@std@@AAEXPAPAVCGraphicImageTexture@@0@Z ; std::vector<CGraphicImageTexture *,std::allocator<CGraphicImageTexture *> >::_Destroy

; 761  :         _Al.deallocate(_Newvec, _Newcapacity);

  0020d	ff 75 54	 push	 DWORD PTR __Newcapacity$[ebp]
  00210	ff 75 6c	 push	 DWORD PTR __Newvec$[ebp]
  00213	8b 4d c4	 mov	 ecx, DWORD PTR __Al$[ebp]
  00216	e8 00 00 00 00	 call	 ?deallocate@?$allocator@PAVCGraphicImageTexture@@@std@@QAEXQAPAVCGraphicImageTexture@@I@Z ; std::allocator<CGraphicImageTexture *>::deallocate

; 762  :         _RERAISE;

  0021b	6a 00		 push	 0
  0021d	6a 00		 push	 0
  0021f	e8 00 00 00 00	 call	 __CxxThrowException@8

; 763  :         _CATCH_END

  00224	b8 00 00 00 00	 mov	 eax, $LN10@Emplace_re
  00229	c3		 ret	 0
$LN7@Emplace_re:
  0022a	83 4d fc ff	 or	 DWORD PTR __$EHRec$[ebp+12], -1
  0022e	eb 04		 jmp	 SHORT __tryend$??$_Emplace_reallocate@ABQAVCGraphicImageTexture@@@?$vector@PAVCGraphicImageTexture@@V?$allocator@PAVCGraphicImageTexture@@@std@@@std@@QAEPAPAVCGraphicImageTexture@@QAPAV2@ABQAV2@@Z$1
$LN10@Emplace_re:
; File C:\Program Files (x86)\Microsoft Visual Studio\2019\Community\VC\Tools\MSVC\14.28.29333\include\xmemory
  00230	83 4d fc ff	 or	 DWORD PTR __$EHRec$[ebp+12], -1
__tryend$??$_Emplace_reallocate@ABQAVCGraphicImageTexture@@@?$vector@PAVCGraphicImageTexture@@V?$allocator@PAVCGraphicImageTexture@@@std@@@std@@QAEPAPAVCGraphicImageTexture@@QAPAV2@ABQAV2@@Z$1:
; File C:\Program Files (x86)\Microsoft Visual Studio\2019\Community\VC\Tools\MSVC\14.28.29333\include\vector

; 764  : 
; 765  :         _Change_array(_Newvec, _Newsize, _Newcapacity);

  00234	ff 75 54	 push	 DWORD PTR __Newcapacity$[ebp]
  00237	ff 75 2c	 push	 DWORD PTR __Newsize$[ebp]
  0023a	ff 75 6c	 push	 DWORD PTR __Newvec$[ebp]
  0023d	8b 4d 68	 mov	 ecx, DWORD PTR _this$[ebp]
  00240	e8 00 00 00 00	 call	 ?_Change_array@?$vector@PAVCGraphicImageTexture@@V?$allocator@PAVCGraphicImageTexture@@@std@@@std@@AAEXQAPAVCGraphicImageTexture@@II@Z ; std::vector<CGraphicImageTexture *,std::allocator<CGraphicImageTexture *> >::_Change_array

; 766  :         return _Newvec + _Whereoff;

  00245	8b 45 60	 mov	 eax, DWORD PTR __Whereoff$[ebp]
  00248	8b 4d 6c	 mov	 ecx, DWORD PTR __Newvec$[ebp]
  0024b	8d 04 81	 lea	 eax, DWORD PTR [ecx+eax*4]
$LN70@Emplace_re:

; 767  :     }

  0024e	8b 4d f4	 mov	 ecx, DWORD PTR __$EHRec$[ebp+4]
  00251	64 89 0d 00 00
	00 00		 mov	 DWORD PTR fs:0, ecx
  00258	59		 pop	 ecx
  00259	5f		 pop	 edi
  0025a	5e		 pop	 esi
  0025b	5b		 pop	 ebx
  0025c	83 c5 70	 add	 ebp, 112		; 00000070H
  0025f	c9		 leave
  00260	c2 08 00	 ret	 8
  00263	cc		 int	 3
  00264	cc		 int	 3
  00265	cc		 int	 3
  00266	cc		 int	 3
  00267	cc		 int	 3
_TEXT	ENDS
;	COMDAT text$x
text$x	SEGMENT
__ehhandler$??$_Emplace_reallocate@ABQAVCGraphicImageTexture@@@?$vector@PAVCGraphicImageTexture@@V?$allocator@PAVCGraphicImageTexture@@@std@@@std@@QAEPAPAVCGraphicImageTexture@@QAPAV2@ABQAV2@@Z:
  00000	90		 npad	 1
  00001	90		 npad	 1
  00002	8b 54 24 08	 mov	 edx, DWORD PTR [esp+8]
  00006	8d 42 0c	 lea	 eax, DWORD PTR [edx+12]
  00009	8b 4a b8	 mov	 ecx, DWORD PTR [edx-72]
  0000c	33 c8		 xor	 ecx, eax
  0000e	e8 00 00 00 00	 call	 @__security_check_cookie@4
  00013	b8 00 00 00 00	 mov	 eax, OFFSET __ehfuncinfo$??$_Emplace_reallocate@ABQAVCGraphicImageTexture@@@?$vector@PAVCGraphicImageTexture@@V?$allocator@PAVCGraphicImageTexture@@@std@@@std@@QAEPAPAVCGraphicImageTexture@@QAPAV2@ABQAV2@@Z
  00018	e9 00 00 00 00	 jmp	 ___CxxFrameHandler3
text$x	ENDS
??$_Emplace_reallocate@ABQAVCGraphicImageTexture@@@?$vector@PAVCGraphicImageTexture@@V?$allocator@PAVCGraphicImageTexture@@@std@@@std@@QAEPAPAVCGraphicImageTexture@@QAPAV2@ABQAV2@@Z ENDP ; std::vector<CGraphicImageTexture *,std::allocator<CGraphicImageTexture *> >::_Emplace_reallocate<CGraphicImageTexture * const &>
; Function compile flags: /Odspy
; File C:\Program Files (x86)\Microsoft Visual Studio\2019\Community\VC\Tools\MSVC\14.28.29333\include\vector
; File C:\Program Files (x86)\Microsoft Visual Studio\2019\Community\VC\Tools\MSVC\14.28.29333\include\type_traits
; File C:\Program Files (x86)\Microsoft Visual Studio\2019\Community\VC\Tools\MSVC\14.28.29333\include\vector
; File C:\Program Files (x86)\Microsoft Visual Studio\2019\Community\VC\Tools\MSVC\14.28.29333\include\xstddef
; File C:\Program Files (x86)\Microsoft Visual Studio\2019\Community\VC\Tools\MSVC\14.28.29333\include\vector
; File C:\Program Files (x86)\Microsoft Visual Studio\2019\Community\VC\Tools\MSVC\14.28.29333\include\xmemory
; File C:\Program Files (x86)\Microsoft Visual Studio\2019\Community\VC\Tools\MSVC\14.28.29333\include\vector
; File C:\Program Files (x86)\Microsoft Visual Studio\2019\Community\VC\Tools\MSVC\14.28.29333\include\vcruntime_new.h
; File C:\Program Files (x86)\Microsoft Visual Studio\2019\Community\VC\Tools\MSVC\14.28.29333\include\type_traits
; File C:\Program Files (x86)\Microsoft Visual Studio\2019\Community\VC\Tools\MSVC\14.28.29333\include\xmemory
; File C:\Program Files (x86)\Microsoft Visual Studio\2019\Community\VC\Tools\MSVC\14.28.29333\include\vector
;	COMDAT ??$_Emplace_back_with_unused_capacity@ABQAVCGraphicImageTexture@@@?$vector@PAVCGraphicImageTexture@@V?$allocator@PAVCGraphicImageTexture@@@std@@@std@@AAEXABQAVCGraphicImageTexture@@@Z
_TEXT	SEGMENT
__Result$ = -44						; size = 4
$T1 = -40						; size = 4
$T2 = -36						; size = 4
$T3 = -32						; size = 4
$T4 = -28						; size = 4
$T5 = -24						; size = 4
$T6 = -20						; size = 4
__Ptr$ = -16						; size = 4
__My_data$ = -12					; size = 4
_this$ = -8						; size = 4
__Mylast$ = -4						; size = 4
_<_Val_0>$ = 8						; size = 4
??$_Emplace_back_with_unused_capacity@ABQAVCGraphicImageTexture@@@?$vector@PAVCGraphicImageTexture@@V?$allocator@PAVCGraphicImageTexture@@@std@@@std@@AAEXABQAVCGraphicImageTexture@@@Z PROC ; std::vector<CGraphicImageTexture *,std::allocator<CGraphicImageTexture *> >::_Emplace_back_with_unused_capacity<CGraphicImageTexture * const &>, COMDAT
; _this$ = ecx

; 682  :     decltype(auto) _Emplace_back_with_unused_capacity(_Valty&&... _Val) {

  00000	55		 push	 ebp
  00001	8b ec		 mov	 ebp, esp
  00003	83 ec 2c	 sub	 esp, 44			; 0000002cH
  00006	89 4d f8	 mov	 DWORD PTR _this$[ebp], ecx

; 683  :         // insert by perfectly forwarding into element at end, provide strong guarantee
; 684  :         auto& _My_data   = _Mypair._Myval2;

  00009	8b 45 f8	 mov	 eax, DWORD PTR _this$[ebp]
  0000c	89 45 f4	 mov	 DWORD PTR __My_data$[ebp], eax

; 685  :         pointer& _Mylast = _My_data._Mylast;

  0000f	8b 45 f4	 mov	 eax, DWORD PTR __My_data$[ebp]
  00012	83 c0 04	 add	 eax, 4
  00015	89 45 fc	 mov	 DWORD PTR __Mylast$[ebp], eax
; File C:\Program Files (x86)\Microsoft Visual Studio\2019\Community\VC\Tools\MSVC\14.28.29333\include\type_traits

; 1443 :     return static_cast<_Ty&&>(_Arg);

  00018	8b 45 08	 mov	 eax, DWORD PTR _<_Val_0>$[ebp]
  0001b	89 45 e4	 mov	 DWORD PTR $T4[ebp], eax
; File C:\Program Files (x86)\Microsoft Visual Studio\2019\Community\VC\Tools\MSVC\14.28.29333\include\vector

; 687  :         _Alty_traits::construct(_Getal(), _Unfancy(_Mylast), _STD forward<_Valty>(_Val)...);

  0001e	8b 45 fc	 mov	 eax, DWORD PTR __Mylast$[ebp]
  00021	8b 00		 mov	 eax, DWORD PTR [eax]
  00023	89 45 f0	 mov	 DWORD PTR __Ptr$[ebp], eax
; File C:\Program Files (x86)\Microsoft Visual Studio\2019\Community\VC\Tools\MSVC\14.28.29333\include\xstddef

; 289  :     return _Ptr;

  00026	8b 45 f0	 mov	 eax, DWORD PTR __Ptr$[ebp]
  00029	89 45 e8	 mov	 DWORD PTR $T5[ebp], eax
; File C:\Program Files (x86)\Microsoft Visual Studio\2019\Community\VC\Tools\MSVC\14.28.29333\include\vector

; 1733 :         return _Mypair._Get_first();

  0002c	8b 45 f8	 mov	 eax, DWORD PTR _this$[ebp]
; File C:\Program Files (x86)\Microsoft Visual Studio\2019\Community\VC\Tools\MSVC\14.28.29333\include\xmemory

; 1347 :         return *this;

  0002f	89 45 ec	 mov	 DWORD PTR $T6[ebp], eax
; File C:\Program Files (x86)\Microsoft Visual Studio\2019\Community\VC\Tools\MSVC\14.28.29333\include\vector

; 1733 :         return _Mypair._Get_first();

  00032	8b 45 ec	 mov	 eax, DWORD PTR $T6[ebp]
  00035	89 45 d8	 mov	 DWORD PTR $T1[ebp], eax
; File C:\Program Files (x86)\Microsoft Visual Studio\2019\Community\VC\Tools\MSVC\14.28.29333\include\vcruntime_new.h

; 169  :         return _Where;

  00038	8b 45 e8	 mov	 eax, DWORD PTR $T5[ebp]
  0003b	89 45 e0	 mov	 DWORD PTR $T3[ebp], eax
; File C:\Program Files (x86)\Microsoft Visual Studio\2019\Community\VC\Tools\MSVC\14.28.29333\include\type_traits

; 1443 :     return static_cast<_Ty&&>(_Arg);

  0003e	8b 45 e4	 mov	 eax, DWORD PTR $T4[ebp]
  00041	89 45 dc	 mov	 DWORD PTR $T2[ebp], eax
; File C:\Program Files (x86)\Microsoft Visual Studio\2019\Community\VC\Tools\MSVC\14.28.29333\include\xmemory

; 701  :         ::new (const_cast<void*>(static_cast<const volatile void*>(_Ptr))) _Objty(_STD forward<_Types>(_Args)...);

  00044	8b 45 e0	 mov	 eax, DWORD PTR $T3[ebp]
  00047	8b 4d dc	 mov	 ecx, DWORD PTR $T2[ebp]
  0004a	8b 09		 mov	 ecx, DWORD PTR [ecx]
  0004c	89 08		 mov	 DWORD PTR [eax], ecx
; File C:\Program Files (x86)\Microsoft Visual Studio\2019\Community\VC\Tools\MSVC\14.28.29333\include\vector

; 689  :         _Ty& _Result = *_Mylast;

  0004e	8b 45 fc	 mov	 eax, DWORD PTR __Mylast$[ebp]
  00051	8b 00		 mov	 eax, DWORD PTR [eax]
  00053	89 45 d4	 mov	 DWORD PTR __Result$[ebp], eax

; 690  :         ++_Mylast;

  00056	8b 45 fc	 mov	 eax, DWORD PTR __Mylast$[ebp]
  00059	8b 00		 mov	 eax, DWORD PTR [eax]
  0005b	83 c0 04	 add	 eax, 4
  0005e	8b 4d fc	 mov	 ecx, DWORD PTR __Mylast$[ebp]
  00061	89 01		 mov	 DWORD PTR [ecx], eax

; 691  : #if _HAS_CXX17
; 692  :         return _Result;
; 693  : #else // ^^^ _HAS_CXX17 ^^^ // vvv !_HAS_CXX17 vvv
; 694  :         (void) _Result;
; 695  : #endif // _HAS_CXX17
; 696  :     }

  00063	c9		 leave
  00064	c2 04 00	 ret	 4
??$_Emplace_back_with_unused_capacity@ABQAVCGraphicImageTexture@@@?$vector@PAVCGraphicImageTexture@@V?$allocator@PAVCGraphicImageTexture@@@std@@@std@@AAEXABQAVCGraphicImageTexture@@@Z ENDP ; std::vector<CGraphicImageTexture *,std::allocator<CGraphicImageTexture *> >::_Emplace_back_with_unused_capacity<CGraphicImageTexture * const &>
_TEXT	ENDS
; Function compile flags: /Odspy
; File C:\Program Files (x86)\Microsoft Visual Studio\2019\Community\VC\Tools\MSVC\14.28.29333\include\vector
; File C:\Program Files (x86)\Microsoft Visual Studio\2019\Community\VC\Tools\MSVC\14.28.29333\include\type_traits
; File C:\Program Files (x86)\Microsoft Visual Studio\2019\Community\VC\Tools\MSVC\14.28.29333\include\vector
; File C:\Program Files (x86)\Microsoft Visual Studio\2019\Community\VC\Tools\MSVC\14.28.29333\include\type_traits
; File C:\Program Files (x86)\Microsoft Visual Studio\2019\Community\VC\Tools\MSVC\14.28.29333\include\vector
;	COMDAT ??$emplace_back@ABQAVCGraphicImageTexture@@@?$vector@PAVCGraphicImageTexture@@V?$allocator@PAVCGraphicImageTexture@@@std@@@std@@QAEXABQAVCGraphicImageTexture@@@Z
_TEXT	SEGMENT
__Result$ = -24						; size = 4
$T1 = -20						; size = 4
$T2 = -16						; size = 4
__Mylast$ = -12						; size = 4
__My_data$ = -8						; size = 4
_this$ = -4						; size = 4
_<_Val_0>$ = 8						; size = 4
??$emplace_back@ABQAVCGraphicImageTexture@@@?$vector@PAVCGraphicImageTexture@@V?$allocator@PAVCGraphicImageTexture@@@std@@@std@@QAEXABQAVCGraphicImageTexture@@@Z PROC ; std::vector<CGraphicImageTexture *,std::allocator<CGraphicImageTexture *> >::emplace_back<CGraphicImageTexture * const &>, COMDAT
; _this$ = ecx

; 700  :     decltype(auto) emplace_back(_Valty&&... _Val) {

  00000	55		 push	 ebp
  00001	8b ec		 mov	 ebp, esp
  00003	83 ec 18	 sub	 esp, 24			; 00000018H
  00006	89 4d fc	 mov	 DWORD PTR _this$[ebp], ecx

; 701  :         // insert by perfectly forwarding into element at end, provide strong guarantee
; 702  :         auto& _My_data   = _Mypair._Myval2;

  00009	8b 45 fc	 mov	 eax, DWORD PTR _this$[ebp]
  0000c	89 45 f8	 mov	 DWORD PTR __My_data$[ebp], eax

; 703  :         pointer& _Mylast = _My_data._Mylast;

  0000f	8b 45 f8	 mov	 eax, DWORD PTR __My_data$[ebp]
  00012	83 c0 04	 add	 eax, 4
  00015	89 45 f4	 mov	 DWORD PTR __Mylast$[ebp], eax

; 704  :         if (_Mylast != _My_data._Myend) {

  00018	8b 45 f4	 mov	 eax, DWORD PTR __Mylast$[ebp]
  0001b	8b 4d f8	 mov	 ecx, DWORD PTR __My_data$[ebp]
  0001e	8b 00		 mov	 eax, DWORD PTR [eax]
  00020	3b 41 08	 cmp	 eax, DWORD PTR [ecx+8]
  00023	74 13		 je	 SHORT $LN2@emplace_ba
; File C:\Program Files (x86)\Microsoft Visual Studio\2019\Community\VC\Tools\MSVC\14.28.29333\include\type_traits

; 1443 :     return static_cast<_Ty&&>(_Arg);

  00025	8b 45 08	 mov	 eax, DWORD PTR _<_Val_0>$[ebp]
  00028	89 45 f0	 mov	 DWORD PTR $T2[ebp], eax
; File C:\Program Files (x86)\Microsoft Visual Studio\2019\Community\VC\Tools\MSVC\14.28.29333\include\vector

; 705  :             return _Emplace_back_with_unused_capacity(_STD forward<_Valty>(_Val)...);

  0002b	ff 75 f0	 push	 DWORD PTR $T2[ebp]
  0002e	8b 4d fc	 mov	 ecx, DWORD PTR _this$[ebp]
  00031	e8 00 00 00 00	 call	 ??$_Emplace_back_with_unused_capacity@ABQAVCGraphicImageTexture@@@?$vector@PAVCGraphicImageTexture@@V?$allocator@PAVCGraphicImageTexture@@@std@@@std@@AAEXABQAVCGraphicImageTexture@@@Z ; std::vector<CGraphicImageTexture *,std::allocator<CGraphicImageTexture *> >::_Emplace_back_with_unused_capacity<CGraphicImageTexture * const &>
  00036	eb 19		 jmp	 SHORT $LN1@emplace_ba
$LN2@emplace_ba:
; File C:\Program Files (x86)\Microsoft Visual Studio\2019\Community\VC\Tools\MSVC\14.28.29333\include\type_traits

; 1443 :     return static_cast<_Ty&&>(_Arg);

  00038	8b 45 08	 mov	 eax, DWORD PTR _<_Val_0>$[ebp]
  0003b	89 45 ec	 mov	 DWORD PTR $T1[ebp], eax
; File C:\Program Files (x86)\Microsoft Visual Studio\2019\Community\VC\Tools\MSVC\14.28.29333\include\vector

; 708  :         _Ty& _Result = *_Emplace_reallocate(_Mylast, _STD forward<_Valty>(_Val)...);

  0003e	ff 75 ec	 push	 DWORD PTR $T1[ebp]
  00041	8b 45 f4	 mov	 eax, DWORD PTR __Mylast$[ebp]
  00044	ff 30		 push	 DWORD PTR [eax]
  00046	8b 4d fc	 mov	 ecx, DWORD PTR _this$[ebp]
  00049	e8 00 00 00 00	 call	 ??$_Emplace_reallocate@ABQAVCGraphicImageTexture@@@?$vector@PAVCGraphicImageTexture@@V?$allocator@PAVCGraphicImageTexture@@@std@@@std@@QAEPAPAVCGraphicImageTexture@@QAPAV2@ABQAV2@@Z ; std::vector<CGraphicImageTexture *,std::allocator<CGraphicImageTexture *> >::_Emplace_reallocate<CGraphicImageTexture * const &>
  0004e	89 45 e8	 mov	 DWORD PTR __Result$[ebp], eax
$LN1@emplace_ba:

; 709  : #if _HAS_CXX17
; 710  :         return _Result;
; 711  : #else // ^^^ _HAS_CXX17 ^^^ // vvv !_HAS_CXX17 vvv
; 712  :         (void) _Result;
; 713  : #endif // _HAS_CXX17
; 714  :     }

  00051	c9		 leave
  00052	c2 04 00	 ret	 4
??$emplace_back@ABQAVCGraphicImageTexture@@@?$vector@PAVCGraphicImageTexture@@V?$allocator@PAVCGraphicImageTexture@@@std@@@std@@QAEXABQAVCGraphicImageTexture@@@Z ENDP ; std::vector<CGraphicImageTexture *,std::allocator<CGraphicImageTexture *> >::emplace_back<CGraphicImageTexture * const &>
_TEXT	ENDS
; Function compile flags: /Odspy
; File C:\Program Files (x86)\Microsoft Visual Studio\2019\Community\VC\Tools\MSVC\14.28.29333\include\xtree
; File C:\Program Files (x86)\Microsoft Visual Studio\2019\Community\VC\Tools\MSVC\14.28.29333\include\utility
; File C:\Program Files (x86)\Microsoft Visual Studio\2019\Community\VC\Tools\MSVC\14.28.29333\include\xtree
; File C:\Program Files (x86)\Microsoft Visual Studio\2019\Community\VC\Tools\MSVC\14.28.29333\include\xstddef
; File C:\Program Files (x86)\Microsoft Visual Studio\2019\Community\VC\Tools\MSVC\14.28.29333\include\xtree
;	COMDAT ??$_Erase_tree@V?$allocator@U?$_Tree_node@U?$pair@$$CBU?$pair@G_W@std@@USCharacterInfomation@CGraphicFontTexture@@@std@@PAX@std@@@std@@@?$_Tree_val@U?$_Tree_simple_types@U?$pair@$$CBU?$pair@G_W@std@@USCharacterInfomation@CGraphicFontTexture@@@std@@@std@@@std@@QAEXAAV?$allocator@U?$_Tree_node@U?$pair@$$CBU?$pair@G_W@std@@USCharacterInfomation@CGraphicFontTexture@@@std@@PAX@std@@@1@PAU?$_Tree_node@U?$pair@$$CBU?$pair@G_W@std@@USCharacterInfomation@CGraphicFontTexture@@@std@@PAX@1@@Z
_TEXT	SEGMENT
$T1 = -20						; size = 4
__Old_val$2 = -16					; size = 4
__New_val$ = -12					; size = 4
_this$ = -8						; size = 4
$T3 = -4						; size = 4
__Al$ = 8						; size = 4
__Rootnode$ = 12					; size = 4
??$_Erase_tree@V?$allocator@U?$_Tree_node@U?$pair@$$CBU?$pair@G_W@std@@USCharacterInfomation@CGraphicFontTexture@@@std@@PAX@std@@@std@@@?$_Tree_val@U?$_Tree_simple_types@U?$pair@$$CBU?$pair@G_W@std@@USCharacterInfomation@CGraphicFontTexture@@@std@@@std@@@std@@QAEXAAV?$allocator@U?$_Tree_node@U?$pair@$$CBU?$pair@G_W@std@@USCharacterInfomation@CGraphicFontTexture@@@std@@PAX@std@@@1@PAU?$_Tree_node@U?$pair@$$CBU?$pair@G_W@std@@USCharacterInfomation@CGraphicFontTexture@@@std@@PAX@1@@Z PROC ; std::_Tree_val<std::_Tree_simple_types<std::pair<std::pair<unsigned short,wchar_t> const ,CGraphicFontTexture::SCharacterInfomation> > >::_Erase_tree<std::allocator<std::_Tree_node<std::pair<std::pair<unsigned short,wchar_t> const ,CGraphicFontTexture::SCharacterInfomation>,void *> > >, COMDAT
; _this$ = ecx

; 742  :     void _Erase_tree(_Alnode& _Al, _Nodeptr _Rootnode) noexcept {

  00000	55		 push	 ebp
  00001	8b ec		 mov	 ebp, esp
  00003	83 ec 14	 sub	 esp, 20			; 00000014H
  00006	89 4d f8	 mov	 DWORD PTR _this$[ebp], ecx
$LN2@Erase_tree:

; 743  :         while (!_Rootnode->_Isnil) { // free subtrees, then node

  00009	8b 45 0c	 mov	 eax, DWORD PTR __Rootnode$[ebp]
  0000c	0f be 40 0d	 movsx	 eax, BYTE PTR [eax+13]
  00010	85 c0		 test	 eax, eax
  00012	75 43		 jne	 SHORT $LN4@Erase_tree

; 744  :             _Erase_tree(_Al, _Rootnode->_Right);

  00014	8b 45 0c	 mov	 eax, DWORD PTR __Rootnode$[ebp]
  00017	ff 70 08	 push	 DWORD PTR [eax+8]
  0001a	ff 75 08	 push	 DWORD PTR __Al$[ebp]
  0001d	8b 4d f8	 mov	 ecx, DWORD PTR _this$[ebp]
  00020	e8 00 00 00 00	 call	 ??$_Erase_tree@V?$allocator@U?$_Tree_node@U?$pair@$$CBU?$pair@G_W@std@@USCharacterInfomation@CGraphicFontTexture@@@std@@PAX@std@@@std@@@?$_Tree_val@U?$_Tree_simple_types@U?$pair@$$CBU?$pair@G_W@std@@USCharacterInfomation@CGraphicFontTexture@@@std@@@std@@@std@@QAEXAAV?$allocator@U?$_Tree_node@U?$pair@$$CBU?$pair@G_W@std@@USCharacterInfomation@CGraphicFontTexture@@@std@@PAX@std@@@1@PAU?$_Tree_node@U?$pair@$$CBU?$pair@G_W@std@@USCharacterInfomation@CGraphicFontTexture@@@std@@PAX@1@@Z ; std::_Tree_val<std::_Tree_simple_types<std::pair<std::pair<unsigned short,wchar_t> const ,CGraphicFontTexture::SCharacterInfomation> > >::_Erase_tree<std::allocator<std::_Tree_node<std::pair<std::pair<unsigned short,wchar_t> const ,CGraphicFontTexture::SCharacterInfomation>,void *> > >

; 745  :             _Alnode::value_type::_Freenode(_Al, _STD exchange(_Rootnode, _Rootnode->_Left));

  00025	8b 45 0c	 mov	 eax, DWORD PTR __Rootnode$[ebp]
  00028	89 45 f4	 mov	 DWORD PTR __New_val$[ebp], eax
; File C:\Program Files (x86)\Microsoft Visual Studio\2019\Community\VC\Tools\MSVC\14.28.29333\include\utility

; 598  :     _Ty _Old_val = static_cast<_Ty&&>(_Val);

  0002b	8b 45 0c	 mov	 eax, DWORD PTR __Rootnode$[ebp]
  0002e	89 45 f0	 mov	 DWORD PTR __Old_val$2[ebp], eax

; 599  :     _Val         = static_cast<_Other&&>(_New_val);

  00031	8b 45 f4	 mov	 eax, DWORD PTR __New_val$[ebp]
  00034	8b 00		 mov	 eax, DWORD PTR [eax]
  00036	89 45 0c	 mov	 DWORD PTR __Rootnode$[ebp], eax

; 600  :     return _Old_val;

  00039	8b 45 f0	 mov	 eax, DWORD PTR __Old_val$2[ebp]
  0003c	89 45 fc	 mov	 DWORD PTR $T3[ebp], eax
; File C:\Program Files (x86)\Microsoft Visual Studio\2019\Community\VC\Tools\MSVC\14.28.29333\include\xtree

; 379  :         allocator_traits<_Alloc>::destroy(_Al, _STD addressof(_Ptr->_Myval));

  0003f	8b 45 fc	 mov	 eax, DWORD PTR $T3[ebp]
  00042	83 c0 10	 add	 eax, 16			; 00000010H
; File C:\Program Files (x86)\Microsoft Visual Studio\2019\Community\VC\Tools\MSVC\14.28.29333\include\xstddef

; 275  :     return __builtin_addressof(_Val);

  00045	89 45 ec	 mov	 DWORD PTR $T1[ebp], eax
; File C:\Program Files (x86)\Microsoft Visual Studio\2019\Community\VC\Tools\MSVC\14.28.29333\include\xtree

; 380  :         _Freenode0(_Al, _Ptr);

  00048	ff 75 fc	 push	 DWORD PTR $T3[ebp]
  0004b	ff 75 08	 push	 DWORD PTR __Al$[ebp]
  0004e	e8 00 00 00 00	 call	 ??$_Freenode0@V?$allocator@U?$_Tree_node@U?$pair@$$CBU?$pair@G_W@std@@USCharacterInfomation@CGraphicFontTexture@@@std@@PAX@std@@@std@@@?$_Tree_node@U?$pair@$$CBU?$pair@G_W@std@@USCharacterInfomation@CGraphicFontTexture@@@std@@PAX@std@@SAXAAV?$allocator@U?$_Tree_node@U?$pair@$$CBU?$pair@G_W@std@@USCharacterInfomation@CGraphicFontTexture@@@std@@PAX@std@@@1@PAU01@@Z ; std::_Tree_node<std::pair<std::pair<unsigned short,wchar_t> const ,CGraphicFontTexture::SCharacterInfomation>,void *>::_Freenode0<std::allocator<std::_Tree_node<std::pair<std::pair<unsigned short,wchar_t> const ,CGraphicFontTexture::SCharacterInfomation>,void *> > >
  00053	59		 pop	 ecx
  00054	59		 pop	 ecx

; 746  :         }

  00055	eb b2		 jmp	 SHORT $LN2@Erase_tree
$LN4@Erase_tree:

; 747  :     }

  00057	c9		 leave
  00058	c2 08 00	 ret	 8
??$_Erase_tree@V?$allocator@U?$_Tree_node@U?$pair@$$CBU?$pair@G_W@std@@USCharacterInfomation@CGraphicFontTexture@@@std@@PAX@std@@@std@@@?$_Tree_val@U?$_Tree_simple_types@U?$pair@$$CBU?$pair@G_W@std@@USCharacterInfomation@CGraphicFontTexture@@@std@@@std@@@std@@QAEXAAV?$allocator@U?$_Tree_node@U?$pair@$$CBU?$pair@G_W@std@@USCharacterInfomation@CGraphicFontTexture@@@std@@PAX@std@@@1@PAU?$_Tree_node@U?$pair@$$CBU?$pair@G_W@std@@USCharacterInfomation@CGraphicFontTexture@@@std@@PAX@1@@Z ENDP ; std::_Tree_val<std::_Tree_simple_types<std::pair<std::pair<unsigned short,wchar_t> const ,CGraphicFontTexture::SCharacterInfomation> > >::_Erase_tree<std::allocator<std::_Tree_node<std::pair<std::pair<unsigned short,wchar_t> const ,CGraphicFontTexture::SCharacterInfomation>,void *> > >
_TEXT	ENDS
; Function compile flags: /Odspy
; File C:\Program Files (x86)\Microsoft Visual Studio\2019\Community\VC\Tools\MSVC\14.28.29333\include\xtree
; File C:\Program Files (x86)\Microsoft Visual Studio\2019\Community\VC\Tools\MSVC\14.28.29333\include\xstddef
; File C:\Program Files (x86)\Microsoft Visual Studio\2019\Community\VC\Tools\MSVC\14.28.29333\include\xtree
;	COMDAT ??$_Find@U?$pair@G_W@std@@@?$_Tree@V?$_Tmap_traits@U?$pair@G_W@std@@USCharacterInfomation@CGraphicFontTexture@@U?$less@U?$pair@G_W@std@@@2@V?$allocator@U?$pair@$$CBU?$pair@G_W@std@@USCharacterInfomation@CGraphicFontTexture@@@std@@@2@$0A@@std@@@std@@ABEPAU?$_Tree_node@U?$pair@$$CBU?$pair@G_W@std@@USCharacterInfomation@CGraphicFontTexture@@@std@@PAX@1@ABU?$pair@G_W@1@@Z
_TEXT	SEGMENT
__Loc$ = -24						; size = 12
$T1 = -12						; size = 4
$T2 = -8						; size = 4
_this$ = -4						; size = 4
__Keyval$ = 8						; size = 4
??$_Find@U?$pair@G_W@std@@@?$_Tree@V?$_Tmap_traits@U?$pair@G_W@std@@USCharacterInfomation@CGraphicFontTexture@@U?$less@U?$pair@G_W@std@@@2@V?$allocator@U?$pair@$$CBU?$pair@G_W@std@@USCharacterInfomation@CGraphicFontTexture@@@std@@@2@$0A@@std@@@std@@ABEPAU?$_Tree_node@U?$pair@$$CBU?$pair@G_W@std@@USCharacterInfomation@CGraphicFontTexture@@@std@@PAX@1@ABU?$pair@G_W@1@@Z PROC ; std::_Tree<std::_Tmap_traits<std::pair<unsigned short,wchar_t>,CGraphicFontTexture::SCharacterInfomation,std::less<std::pair<unsigned short,wchar_t> >,std::allocator<std::pair<std::pair<unsigned short,wchar_t> const ,CGraphicFontTexture::SCharacterInfomation> >,0> >::_Find<std::pair<unsigned short,wchar_t> >, COMDAT
; _this$ = ecx

; 1457 :     _NODISCARD _Nodeptr _Find(const _Other& _Keyval) const {

  00000	55		 push	 ebp
  00001	8b ec		 mov	 ebp, esp
  00003	83 ec 18	 sub	 esp, 24			; 00000018H
  00006	89 4d fc	 mov	 DWORD PTR _this$[ebp], ecx

; 1458 :         const _Tree_find_result<_Nodeptr> _Loc = _Find_lower_bound(_Keyval);

  00009	ff 75 08	 push	 DWORD PTR __Keyval$[ebp]
  0000c	8d 45 e8	 lea	 eax, DWORD PTR __Loc$[ebp]
  0000f	50		 push	 eax
  00010	8b 4d fc	 mov	 ecx, DWORD PTR _this$[ebp]
  00013	e8 00 00 00 00	 call	 ??$_Find_lower_bound@U?$pair@G_W@std@@@?$_Tree@V?$_Tmap_traits@U?$pair@G_W@std@@USCharacterInfomation@CGraphicFontTexture@@U?$less@U?$pair@G_W@std@@@2@V?$allocator@U?$pair@$$CBU?$pair@G_W@std@@USCharacterInfomation@CGraphicFontTexture@@@std@@@2@$0A@@std@@@std@@IBE?AU?$_Tree_find_result@PAU?$_Tree_node@U?$pair@$$CBU?$pair@G_W@std@@USCharacterInfomation@CGraphicFontTexture@@@std@@PAX@std@@@1@ABU?$pair@G_W@1@@Z ; std::_Tree<std::_Tmap_traits<std::pair<unsigned short,wchar_t>,CGraphicFontTexture::SCharacterInfomation,std::less<std::pair<unsigned short,wchar_t> >,std::allocator<std::pair<std::pair<unsigned short,wchar_t> const ,CGraphicFontTexture::SCharacterInfomation> >,0> >::_Find_lower_bound<std::pair<unsigned short,wchar_t> >

; 1459 :         if (_Lower_bound_duplicate(_Loc._Bound, _Keyval)) {

  00018	ff 75 08	 push	 DWORD PTR __Keyval$[ebp]
  0001b	ff 75 f0	 push	 DWORD PTR __Loc$[ebp+8]
  0001e	8b 4d fc	 mov	 ecx, DWORD PTR _this$[ebp]
  00021	e8 00 00 00 00	 call	 ??$_Lower_bound_duplicate@U?$pair@G_W@std@@@?$_Tree@V?$_Tmap_traits@U?$pair@G_W@std@@USCharacterInfomation@CGraphicFontTexture@@U?$less@U?$pair@G_W@std@@@2@V?$allocator@U?$pair@$$CBU?$pair@G_W@std@@USCharacterInfomation@CGraphicFontTexture@@@std@@@2@$0A@@std@@@std@@IBE_NQAU?$_Tree_node@U?$pair@$$CBU?$pair@G_W@std@@USCharacterInfomation@CGraphicFontTexture@@@std@@PAX@1@ABU?$pair@G_W@1@@Z ; std::_Tree<std::_Tmap_traits<std::pair<unsigned short,wchar_t>,CGraphicFontTexture::SCharacterInfomation,std::less<std::pair<unsigned short,wchar_t> >,std::allocator<std::pair<std::pair<unsigned short,wchar_t> const ,CGraphicFontTexture::SCharacterInfomation> >,0> >::_Lower_bound_duplicate<std::pair<unsigned short,wchar_t> >
  00026	0f b6 c0	 movzx	 eax, al
  00029	85 c0		 test	 eax, eax
  0002b	74 05		 je	 SHORT $LN2@Find

; 1460 :             return _Loc._Bound;

  0002d	8b 45 f0	 mov	 eax, DWORD PTR __Loc$[ebp+8]
  00030	eb 11		 jmp	 SHORT $LN1@Find
$LN2@Find:

; 2051 :         return _STD addressof(_Mypair._Myval2._Myval2);

  00032	8b 45 fc	 mov	 eax, DWORD PTR _this$[ebp]
; File C:\Program Files (x86)\Microsoft Visual Studio\2019\Community\VC\Tools\MSVC\14.28.29333\include\xstddef

; 275  :     return __builtin_addressof(_Val);

  00035	89 45 f8	 mov	 DWORD PTR $T2[ebp], eax
; File C:\Program Files (x86)\Microsoft Visual Studio\2019\Community\VC\Tools\MSVC\14.28.29333\include\xtree

; 2051 :         return _STD addressof(_Mypair._Myval2._Myval2);

  00038	8b 45 f8	 mov	 eax, DWORD PTR $T2[ebp]
  0003b	89 45 f4	 mov	 DWORD PTR $T1[ebp], eax

; 1461 :         }
; 1462 : 
; 1463 :         return _Get_scary()->_Myhead;

  0003e	8b 45 f4	 mov	 eax, DWORD PTR $T1[ebp]
  00041	8b 00		 mov	 eax, DWORD PTR [eax]
$LN1@Find:

; 1464 :     }

  00043	c9		 leave
  00044	c2 04 00	 ret	 4
??$_Find@U?$pair@G_W@std@@@?$_Tree@V?$_Tmap_traits@U?$pair@G_W@std@@USCharacterInfomation@CGraphicFontTexture@@U?$less@U?$pair@G_W@std@@@2@V?$allocator@U?$pair@$$CBU?$pair@G_W@std@@USCharacterInfomation@CGraphicFontTexture@@@std@@@2@$0A@@std@@@std@@ABEPAU?$_Tree_node@U?$pair@$$CBU?$pair@G_W@std@@USCharacterInfomation@CGraphicFontTexture@@@std@@PAX@1@ABU?$pair@G_W@1@@Z ENDP ; std::_Tree<std::_Tmap_traits<std::pair<unsigned short,wchar_t>,CGraphicFontTexture::SCharacterInfomation,std::less<std::pair<unsigned short,wchar_t> >,std::allocator<std::pair<std::pair<unsigned short,wchar_t> const ,CGraphicFontTexture::SCharacterInfomation> >,0> >::_Find<std::pair<unsigned short,wchar_t> >
_TEXT	ENDS
; Function compile flags: /Odspy
; File C:\Program Files (x86)\Microsoft Visual Studio\2019\Community\VC\Tools\MSVC\14.28.29333\include\map
; File C:\Program Files (x86)\Microsoft Visual Studio\2019\Community\VC\Tools\MSVC\14.28.29333\include\type_traits
; File C:\Program Files (x86)\Microsoft Visual Studio\2019\Community\VC\Tools\MSVC\14.28.29333\include\utility
; File C:\Program Files (x86)\Microsoft Visual Studio\2019\Community\VC\Tools\MSVC\14.28.29333\include\type_traits
; File C:\Program Files (x86)\Microsoft Visual Studio\2019\Community\VC\Tools\MSVC\14.28.29333\include\utility
; File C:\Program Files (x86)\Microsoft Visual Studio\2019\Community\VC\Tools\MSVC\14.28.29333\include\map
; File C:\Program Files (x86)\Microsoft Visual Studio\2019\Community\VC\Tools\MSVC\14.28.29333\include\xtree
; File C:\Program Files (x86)\Microsoft Visual Studio\2019\Community\VC\Tools\MSVC\14.28.29333\include\xstddef
; File C:\Program Files (x86)\Microsoft Visual Studio\2019\Community\VC\Tools\MSVC\14.28.29333\include\xtree
; File C:\Program Files (x86)\Microsoft Visual Studio\2019\Community\VC\Tools\MSVC\14.28.29333\include\tuple
; File C:\Program Files (x86)\Microsoft Visual Studio\2019\Community\VC\Tools\MSVC\14.28.29333\include\type_traits
; File C:\Program Files (x86)\Microsoft Visual Studio\2019\Community\VC\Tools\MSVC\14.28.29333\include\tuple
; File C:\Program Files (x86)\Microsoft Visual Studio\2019\Community\VC\Tools\MSVC\14.28.29333\include\type_traits
; File C:\Program Files (x86)\Microsoft Visual Studio\2019\Community\VC\Tools\MSVC\14.28.29333\include\tuple
; File C:\Program Files (x86)\Microsoft Visual Studio\2019\Community\VC\Tools\MSVC\14.28.29333\include\xtree
; File C:\Program Files (x86)\Microsoft Visual Studio\2019\Community\VC\Tools\MSVC\14.28.29333\include\xmemory
; File C:\Program Files (x86)\Microsoft Visual Studio\2019\Community\VC\Tools\MSVC\14.28.29333\include\xtree
; File C:\Program Files (x86)\Microsoft Visual Studio\2019\Community\VC\Tools\MSVC\14.28.29333\include\map
; File C:\Program Files (x86)\Microsoft Visual Studio\2019\Community\VC\Tools\MSVC\14.28.29333\include\xmemory
; File C:\Program Files (x86)\Microsoft Visual Studio\2019\Community\VC\Tools\MSVC\14.28.29333\include\utility
; File C:\Program Files (x86)\Microsoft Visual Studio\2019\Community\VC\Tools\MSVC\14.28.29333\include\xmemory
; File C:\Program Files (x86)\Microsoft Visual Studio\2019\Community\VC\Tools\MSVC\14.28.29333\include\map
; File C:\Program Files (x86)\Microsoft Visual Studio\2019\Community\VC\Tools\MSVC\14.28.29333\include\type_traits
; File C:\Program Files (x86)\Microsoft Visual Studio\2019\Community\VC\Tools\MSVC\14.28.29333\include\utility
; File C:\Program Files (x86)\Microsoft Visual Studio\2019\Community\VC\Tools\MSVC\14.28.29333\include\type_traits
; File C:\Program Files (x86)\Microsoft Visual Studio\2019\Community\VC\Tools\MSVC\14.28.29333\include\utility
; File C:\Program Files (x86)\Microsoft Visual Studio\2019\Community\VC\Tools\MSVC\14.28.29333\include\map
;	COMDAT ??$_Try_emplace@ABU?$pair@G_W@std@@$$V@?$map@U?$pair@G_W@std@@USCharacterInfomation@CGraphicFontTexture@@U?$less@U?$pair@G_W@std@@@2@V?$allocator@U?$pair@$$CBU?$pair@G_W@std@@USCharacterInfomation@CGraphicFontTexture@@@std@@@2@@std@@AAE?AU?$pair@PAU?$_Tree_node@U?$pair@$$CBU?$pair@G_W@std@@USCharacterInfomation@CGraphicFontTexture@@@std@@PAX@std@@_N@1@ABU?$pair@G_W@1@@Z
_TEXT	SEGMENT
__Loc$ = -120						; size = 12
$T1 = -108						; size = 8
$T2 = -100						; size = 4
$T3 = -96						; size = 4
$T4 = -92						; size = 4
__Inserted$ = -88					; size = 4
$T5 = -84						; size = 4
__Old_val$6 = -80					; size = 4
$T7 = -76						; size = 4
$T8 = -72						; size = 4
$T9 = -68						; size = 4
$T10 = -64						; size = 4
$T11 = -60						; size = 4
$T12 = -56						; size = 4
$T13 = -52						; size = 4
$T14 = -48						; size = 4
_this$15 = -44						; size = 4
$T16 = -40						; size = 4
$T17 = -36						; size = 4
$T18 = -32						; size = 4
$T19 = -28						; size = 4
$T20 = -24						; size = 4
$T21 = -20						; size = 4
__Scary$ = -16						; size = 4
__Val$ = -12						; size = 4
_this$ = -8						; size = 4
$T22 = -3						; size = 1
$T23 = -2						; size = 1
$T24 = -1						; size = 1
___$ReturnUdt$ = 8					; size = 4
__Keyval$ = 12						; size = 4
??$_Try_emplace@ABU?$pair@G_W@std@@$$V@?$map@U?$pair@G_W@std@@USCharacterInfomation@CGraphicFontTexture@@U?$less@U?$pair@G_W@std@@@2@V?$allocator@U?$pair@$$CBU?$pair@G_W@std@@USCharacterInfomation@CGraphicFontTexture@@@std@@@2@@std@@AAE?AU?$pair@PAU?$_Tree_node@U?$pair@$$CBU?$pair@G_W@std@@USCharacterInfomation@CGraphicFontTexture@@@std@@PAX@std@@_N@1@ABU?$pair@G_W@1@@Z PROC ; std::map<std::pair<unsigned short,wchar_t>,CGraphicFontTexture::SCharacterInfomation,std::less<std::pair<unsigned short,wchar_t> >,std::allocator<std::pair<std::pair<unsigned short,wchar_t> const ,CGraphicFontTexture::SCharacterInfomation> > >::_Try_emplace<std::pair<unsigned short,wchar_t> const &>, COMDAT
; _this$ = ecx

; 175  :     pair<_Nodeptr, bool> _Try_emplace(_Keyty&& _Keyval, _Mappedty&&... _Mapval) {

  00000	55		 push	 ebp
  00001	8b ec		 mov	 ebp, esp
  00003	83 ec 78	 sub	 esp, 120		; 00000078H
  00006	89 4d f8	 mov	 DWORD PTR _this$[ebp], ecx

; 176  :         const auto _Loc = _Mybase::_Find_lower_bound(_Keyval);

  00009	ff 75 0c	 push	 DWORD PTR __Keyval$[ebp]
  0000c	8d 45 88	 lea	 eax, DWORD PTR __Loc$[ebp]
  0000f	50		 push	 eax
  00010	8b 4d f8	 mov	 ecx, DWORD PTR _this$[ebp]
  00013	e8 00 00 00 00	 call	 ??$_Find_lower_bound@U?$pair@G_W@std@@@?$_Tree@V?$_Tmap_traits@U?$pair@G_W@std@@USCharacterInfomation@CGraphicFontTexture@@U?$less@U?$pair@G_W@std@@@2@V?$allocator@U?$pair@$$CBU?$pair@G_W@std@@USCharacterInfomation@CGraphicFontTexture@@@std@@@2@$0A@@std@@@std@@IBE?AU?$_Tree_find_result@PAU?$_Tree_node@U?$pair@$$CBU?$pair@G_W@std@@USCharacterInfomation@CGraphicFontTexture@@@std@@PAX@std@@@1@ABU?$pair@G_W@1@@Z ; std::_Tree<std::_Tmap_traits<std::pair<unsigned short,wchar_t>,CGraphicFontTexture::SCharacterInfomation,std::less<std::pair<unsigned short,wchar_t> >,std::allocator<std::pair<std::pair<unsigned short,wchar_t> const ,CGraphicFontTexture::SCharacterInfomation> >,0> >::_Find_lower_bound<std::pair<unsigned short,wchar_t> >

; 177  :         if (_Mybase::_Lower_bound_duplicate(_Loc._Bound, _Keyval)) {

  00018	ff 75 0c	 push	 DWORD PTR __Keyval$[ebp]
  0001b	ff 75 90	 push	 DWORD PTR __Loc$[ebp+8]
  0001e	8b 4d f8	 mov	 ecx, DWORD PTR _this$[ebp]
  00021	e8 00 00 00 00	 call	 ??$_Lower_bound_duplicate@U?$pair@G_W@std@@@?$_Tree@V?$_Tmap_traits@U?$pair@G_W@std@@USCharacterInfomation@CGraphicFontTexture@@U?$less@U?$pair@G_W@std@@@2@V?$allocator@U?$pair@$$CBU?$pair@G_W@std@@USCharacterInfomation@CGraphicFontTexture@@@std@@@2@$0A@@std@@@std@@IBE_NQAU?$_Tree_node@U?$pair@$$CBU?$pair@G_W@std@@USCharacterInfomation@CGraphicFontTexture@@@std@@PAX@1@ABU?$pair@G_W@1@@Z ; std::_Tree<std::_Tmap_traits<std::pair<unsigned short,wchar_t>,CGraphicFontTexture::SCharacterInfomation,std::less<std::pair<unsigned short,wchar_t> >,std::allocator<std::pair<std::pair<unsigned short,wchar_t> const ,CGraphicFontTexture::SCharacterInfomation> >,0> >::_Lower_bound_duplicate<std::pair<unsigned short,wchar_t> >
  00026	0f b6 c0	 movzx	 eax, al
  00029	85 c0		 test	 eax, eax
  0002b	74 2d		 je	 SHORT $LN2@Try_emplac

; 178  :             return {_Loc._Bound, false};

  0002d	c6 45 ff 00	 mov	 BYTE PTR $T24[ebp], 0
; File C:\Program Files (x86)\Microsoft Visual Studio\2019\Community\VC\Tools\MSVC\14.28.29333\include\type_traits

; 1443 :     return static_cast<_Ty&&>(_Arg);

  00031	8d 45 90	 lea	 eax, DWORD PTR __Loc$[ebp+8]
  00034	89 45 ec	 mov	 DWORD PTR $T21[ebp], eax
; File C:\Program Files (x86)\Microsoft Visual Studio\2019\Community\VC\Tools\MSVC\14.28.29333\include\utility

; 190  :         : first(_STD forward<_Other1>(_Val1)), second(_STD forward<_Other2>(_Val2)) {}

  00037	8b 45 08	 mov	 eax, DWORD PTR ___$ReturnUdt$[ebp]
  0003a	8b 4d ec	 mov	 ecx, DWORD PTR $T21[ebp]
  0003d	8b 09		 mov	 ecx, DWORD PTR [ecx]
  0003f	89 08		 mov	 DWORD PTR [eax], ecx
; File C:\Program Files (x86)\Microsoft Visual Studio\2019\Community\VC\Tools\MSVC\14.28.29333\include\type_traits

; 1443 :     return static_cast<_Ty&&>(_Arg);

  00041	8d 45 ff	 lea	 eax, DWORD PTR $T24[ebp]
  00044	89 45 e8	 mov	 DWORD PTR $T20[ebp], eax
; File C:\Program Files (x86)\Microsoft Visual Studio\2019\Community\VC\Tools\MSVC\14.28.29333\include\utility

; 190  :         : first(_STD forward<_Other1>(_Val1)), second(_STD forward<_Other2>(_Val2)) {}

  00047	8b 45 08	 mov	 eax, DWORD PTR ___$ReturnUdt$[ebp]
  0004a	8b 4d e8	 mov	 ecx, DWORD PTR $T20[ebp]
  0004d	8a 09		 mov	 cl, BYTE PTR [ecx]
  0004f	88 48 04	 mov	 BYTE PTR [eax+4], cl
; File C:\Program Files (x86)\Microsoft Visual Studio\2019\Community\VC\Tools\MSVC\14.28.29333\include\map

; 178  :             return {_Loc._Bound, false};

  00052	8b 45 08	 mov	 eax, DWORD PTR ___$ReturnUdt$[ebp]
  00055	e9 dd 00 00 00	 jmp	 $LN1@Try_emplac
$LN2@Try_emplac:

; 179  :         }
; 180  : 
; 181  :         _Mybase::_Check_grow_by_1();

  0005a	8b 4d f8	 mov	 ecx, DWORD PTR _this$[ebp]
  0005d	e8 00 00 00 00	 call	 ?_Check_grow_by_1@?$_Tree@V?$_Tmap_traits@U?$pair@G_W@std@@USCharacterInfomation@CGraphicFontTexture@@U?$less@U?$pair@G_W@std@@@2@V?$allocator@U?$pair@$$CBU?$pair@G_W@std@@USCharacterInfomation@CGraphicFontTexture@@@std@@@2@$0A@@std@@@std@@IAEXXZ ; std::_Tree<std::_Tmap_traits<std::pair<unsigned short,wchar_t>,CGraphicFontTexture::SCharacterInfomation,std::less<std::pair<unsigned short,wchar_t> >,std::allocator<std::pair<std::pair<unsigned short,wchar_t> const ,CGraphicFontTexture::SCharacterInfomation> >,0> >::_Check_grow_by_1
; File C:\Program Files (x86)\Microsoft Visual Studio\2019\Community\VC\Tools\MSVC\14.28.29333\include\xtree

; 2047 :         return _STD addressof(_Mypair._Myval2._Myval2);

  00062	8b 45 f8	 mov	 eax, DWORD PTR _this$[ebp]
; File C:\Program Files (x86)\Microsoft Visual Studio\2019\Community\VC\Tools\MSVC\14.28.29333\include\xstddef

; 275  :     return __builtin_addressof(_Val);

  00065	89 45 e4	 mov	 DWORD PTR $T19[ebp], eax
; File C:\Program Files (x86)\Microsoft Visual Studio\2019\Community\VC\Tools\MSVC\14.28.29333\include\xtree

; 2047 :         return _STD addressof(_Mypair._Myval2._Myval2);

  00068	8b 45 e4	 mov	 eax, DWORD PTR $T19[ebp]
  0006b	89 45 f0	 mov	 DWORD PTR __Scary$[ebp], eax
; File C:\Program Files (x86)\Microsoft Visual Studio\2019\Community\VC\Tools\MSVC\14.28.29333\include\tuple

; 854  :     return tuple<_Types&&...>(_STD forward<_Types>(_Args)...);

  0006e	8d 45 fd	 lea	 eax, DWORD PTR $T22[ebp]
  00071	89 45 c4	 mov	 DWORD PTR $T11[ebp], eax
; File C:\Program Files (x86)\Microsoft Visual Studio\2019\Community\VC\Tools\MSVC\14.28.29333\include\type_traits

; 1443 :     return static_cast<_Ty&&>(_Arg);

  00074	8b 45 0c	 mov	 eax, DWORD PTR __Keyval$[ebp]
  00077	89 45 e0	 mov	 DWORD PTR $T18[ebp], eax
  0007a	8b 45 e0	 mov	 eax, DWORD PTR $T18[ebp]
  0007d	89 45 dc	 mov	 DWORD PTR $T17[ebp], eax
  00080	8b 45 dc	 mov	 eax, DWORD PTR $T17[ebp]
  00083	89 45 d8	 mov	 DWORD PTR $T16[ebp], eax
; File C:\Program Files (x86)\Microsoft Visual Studio\2019\Community\VC\Tools\MSVC\14.28.29333\include\tuple

; 245  :         : _Mybase(_Exact_args_t{}, _STD forward<_Rest2>(_Rest_arg)...), _Myfirst(_STD forward<_This2>(_This_arg)) {}

  00086	8d 45 cc	 lea	 eax, DWORD PTR $T13[ebp]
  00089	89 45 d4	 mov	 DWORD PTR _this$15[ebp], eax
; File C:\Program Files (x86)\Microsoft Visual Studio\2019\Community\VC\Tools\MSVC\14.28.29333\include\type_traits

; 1443 :     return static_cast<_Ty&&>(_Arg);

  0008c	8b 45 d8	 mov	 eax, DWORD PTR $T16[ebp]
  0008f	89 45 d0	 mov	 DWORD PTR $T14[ebp], eax
; File C:\Program Files (x86)\Microsoft Visual Studio\2019\Community\VC\Tools\MSVC\14.28.29333\include\tuple

; 163  :     constexpr _Tuple_val(_Other&& _Arg) : _Val(_STD forward<_Other>(_Arg)) {}

  00092	8b 45 d4	 mov	 eax, DWORD PTR _this$15[ebp]
  00095	8b 4d d0	 mov	 ecx, DWORD PTR $T14[ebp]
  00098	89 08		 mov	 DWORD PTR [eax], ecx

; 854  :     return tuple<_Types&&...>(_STD forward<_Types>(_Args)...);

  0009a	8d 45 cc	 lea	 eax, DWORD PTR $T13[ebp]
  0009d	89 45 c0	 mov	 DWORD PTR $T10[ebp], eax
; File C:\Program Files (x86)\Microsoft Visual Studio\2019\Community\VC\Tools\MSVC\14.28.29333\include\xtree

; 2039 :         return _Mypair._Myval2._Get_first();

  000a0	8b 45 f8	 mov	 eax, DWORD PTR _this$[ebp]
; File C:\Program Files (x86)\Microsoft Visual Studio\2019\Community\VC\Tools\MSVC\14.28.29333\include\xmemory

; 1347 :         return *this;

  000a3	89 45 c8	 mov	 DWORD PTR $T12[ebp], eax
; File C:\Program Files (x86)\Microsoft Visual Studio\2019\Community\VC\Tools\MSVC\14.28.29333\include\xtree

; 2039 :         return _Mypair._Myval2._Get_first();

  000a6	8b 45 c8	 mov	 eax, DWORD PTR $T12[ebp]
  000a9	89 45 bc	 mov	 DWORD PTR $T9[ebp], eax
; File C:\Program Files (x86)\Microsoft Visual Studio\2019\Community\VC\Tools\MSVC\14.28.29333\include\map

; 184  :         const auto _Inserted = _Tree_temp_node<_Alnode>(_Mybase::_Getal(), _Scary->_Myhead, piecewise_construct,

  000ac	ff 75 c4	 push	 DWORD PTR $T11[ebp]
  000af	ff 75 c0	 push	 DWORD PTR $T10[ebp]
  000b2	68 00 00 00 00	 push	 OFFSET ?piecewise_construct@std@@3Upiecewise_construct_t@1@B
  000b7	8b 45 f0	 mov	 eax, DWORD PTR __Scary$[ebp]
  000ba	ff 30		 push	 DWORD PTR [eax]
  000bc	ff 75 bc	 push	 DWORD PTR $T9[ebp]
  000bf	8d 4d 94	 lea	 ecx, DWORD PTR $T1[ebp]
  000c2	e8 00 00 00 00	 call	 ??$?0ABUpiecewise_construct_t@std@@V?$tuple@ABU?$pair@G_W@std@@@1@V?$tuple@$$V@1@@?$_Tree_temp_node@V?$allocator@U?$_Tree_node@U?$pair@$$CBU?$pair@G_W@std@@USCharacterInfomation@CGraphicFontTexture@@@std@@PAX@std@@@std@@@std@@QAE@AAV?$allocator@U?$_Tree_node@U?$pair@$$CBU?$pair@G_W@std@@USCharacterInfomation@CGraphicFontTexture@@@std@@PAX@std@@@1@PAU?$_Tree_node@U?$pair@$$CBU?$pair@G_W@std@@USCharacterInfomation@CGraphicFontTexture@@@std@@PAX@1@ABUpiecewise_construct_t@1@$$QAV?$tuple@ABU?$pair@G_W@std@@@1@$$QAV?$tuple@$$V@1@@Z ; std::_Tree_temp_node<std::allocator<std::_Tree_node<std::pair<std::pair<unsigned short,wchar_t> const ,CGraphicFontTexture::SCharacterInfomation>,void *> > >::_Tree_temp_node<std::allocator<std::_Tree_node<std::pair<std::pair<unsigned short,wchar_t> const ,CGraphicFontTexture::SCharacterInfomation>,void *> > ><std::piecewise_construct_t const &,std::tuple<std::pair<unsigned short,wchar_t> const &>,std::tuple<> >
  000c7	89 45 b8	 mov	 DWORD PTR $T8[ebp], eax
; File C:\Program Files (x86)\Microsoft Visual Studio\2019\Community\VC\Tools\MSVC\14.28.29333\include\xmemory

; 1048 :         return _STD exchange(_Ptr, nullptr);

  000ca	83 65 b4 00	 and	 DWORD PTR $T7[ebp], 0
  000ce	8b 45 b8	 mov	 eax, DWORD PTR $T8[ebp]
  000d1	83 c0 04	 add	 eax, 4
  000d4	89 45 f4	 mov	 DWORD PTR __Val$[ebp], eax
; File C:\Program Files (x86)\Microsoft Visual Studio\2019\Community\VC\Tools\MSVC\14.28.29333\include\utility

; 598  :     _Ty _Old_val = static_cast<_Ty&&>(_Val);

  000d7	8b 45 f4	 mov	 eax, DWORD PTR __Val$[ebp]
  000da	8b 00		 mov	 eax, DWORD PTR [eax]
  000dc	89 45 b0	 mov	 DWORD PTR __Old_val$6[ebp], eax

; 599  :     _Val         = static_cast<_Other&&>(_New_val);

  000df	8b 45 f4	 mov	 eax, DWORD PTR __Val$[ebp]
  000e2	8b 4d b4	 mov	 ecx, DWORD PTR $T7[ebp]
  000e5	89 08		 mov	 DWORD PTR [eax], ecx

; 600  :     return _Old_val;

  000e7	8b 45 b0	 mov	 eax, DWORD PTR __Old_val$6[ebp]
  000ea	89 45 ac	 mov	 DWORD PTR $T5[ebp], eax
; File C:\Program Files (x86)\Microsoft Visual Studio\2019\Community\VC\Tools\MSVC\14.28.29333\include\xmemory

; 1048 :         return _STD exchange(_Ptr, nullptr);

  000ed	8b 45 ac	 mov	 eax, DWORD PTR $T5[ebp]
  000f0	89 45 a8	 mov	 DWORD PTR __Inserted$[ebp], eax
; File C:\Program Files (x86)\Microsoft Visual Studio\2019\Community\VC\Tools\MSVC\14.28.29333\include\map

; 184  :         const auto _Inserted = _Tree_temp_node<_Alnode>(_Mybase::_Getal(), _Scary->_Myhead, piecewise_construct,

  000f3	8d 4d 94	 lea	 ecx, DWORD PTR $T1[ebp]
  000f6	e8 00 00 00 00	 call	 ??1?$_Tree_temp_node@V?$allocator@U?$_Tree_node@U?$pair@$$CBU?$pair@G_W@std@@USCharacterInfomation@CGraphicFontTexture@@@std@@PAX@std@@@std@@@std@@QAE@XZ ; std::_Tree_temp_node<std::allocator<std::_Tree_node<std::pair<std::pair<unsigned short,wchar_t> const ,CGraphicFontTexture::SCharacterInfomation>,void *> > >::~_Tree_temp_node<std::allocator<std::_Tree_node<std::pair<std::pair<unsigned short,wchar_t> const ,CGraphicFontTexture::SCharacterInfomation>,void *> > >

; 190  :         return {_Scary->_Insert_node(_Loc._Location, _Inserted), true};

  000fb	ff 75 a8	 push	 DWORD PTR __Inserted$[ebp]
  000fe	ff 75 8c	 push	 DWORD PTR __Loc$[ebp+4]
  00101	ff 75 88	 push	 DWORD PTR __Loc$[ebp]
  00104	8b 4d f0	 mov	 ecx, DWORD PTR __Scary$[ebp]
  00107	e8 00 00 00 00	 call	 ?_Insert_node@?$_Tree_val@U?$_Tree_simple_types@U?$pair@$$CBU?$pair@G_W@std@@USCharacterInfomation@CGraphicFontTexture@@@std@@@std@@@std@@QAEPAU?$_Tree_node@U?$pair@$$CBU?$pair@G_W@std@@USCharacterInfomation@CGraphicFontTexture@@@std@@PAX@2@U?$_Tree_id@PAU?$_Tree_node@U?$pair@$$CBU?$pair@G_W@std@@USCharacterInfomation@CGraphicFontTexture@@@std@@PAX@std@@@2@QAU32@@Z ; std::_Tree_val<std::_Tree_simple_types<std::pair<std::pair<unsigned short,wchar_t> const ,CGraphicFontTexture::SCharacterInfomation> > >::_Insert_node
  0010c	89 45 a4	 mov	 DWORD PTR $T4[ebp], eax
  0010f	c6 45 fe 01	 mov	 BYTE PTR $T23[ebp], 1
; File C:\Program Files (x86)\Microsoft Visual Studio\2019\Community\VC\Tools\MSVC\14.28.29333\include\type_traits

; 1443 :     return static_cast<_Ty&&>(_Arg);

  00113	8d 45 a4	 lea	 eax, DWORD PTR $T4[ebp]
  00116	89 45 a0	 mov	 DWORD PTR $T3[ebp], eax
; File C:\Program Files (x86)\Microsoft Visual Studio\2019\Community\VC\Tools\MSVC\14.28.29333\include\utility

; 190  :         : first(_STD forward<_Other1>(_Val1)), second(_STD forward<_Other2>(_Val2)) {}

  00119	8b 45 08	 mov	 eax, DWORD PTR ___$ReturnUdt$[ebp]
  0011c	8b 4d a0	 mov	 ecx, DWORD PTR $T3[ebp]
  0011f	8b 09		 mov	 ecx, DWORD PTR [ecx]
  00121	89 08		 mov	 DWORD PTR [eax], ecx
; File C:\Program Files (x86)\Microsoft Visual Studio\2019\Community\VC\Tools\MSVC\14.28.29333\include\type_traits

; 1443 :     return static_cast<_Ty&&>(_Arg);

  00123	8d 45 fe	 lea	 eax, DWORD PTR $T23[ebp]
  00126	89 45 9c	 mov	 DWORD PTR $T2[ebp], eax
; File C:\Program Files (x86)\Microsoft Visual Studio\2019\Community\VC\Tools\MSVC\14.28.29333\include\utility

; 190  :         : first(_STD forward<_Other1>(_Val1)), second(_STD forward<_Other2>(_Val2)) {}

  00129	8b 45 08	 mov	 eax, DWORD PTR ___$ReturnUdt$[ebp]
  0012c	8b 4d 9c	 mov	 ecx, DWORD PTR $T2[ebp]
  0012f	8a 09		 mov	 cl, BYTE PTR [ecx]
  00131	88 48 04	 mov	 BYTE PTR [eax+4], cl
; File C:\Program Files (x86)\Microsoft Visual Studio\2019\Community\VC\Tools\MSVC\14.28.29333\include\map

; 190  :         return {_Scary->_Insert_node(_Loc._Location, _Inserted), true};

  00134	8b 45 08	 mov	 eax, DWORD PTR ___$ReturnUdt$[ebp]
$LN1@Try_emplac:

; 191  :     }

  00137	c9		 leave
  00138	c2 08 00	 ret	 8
??$_Try_emplace@ABU?$pair@G_W@std@@$$V@?$map@U?$pair@G_W@std@@USCharacterInfomation@CGraphicFontTexture@@U?$less@U?$pair@G_W@std@@@2@V?$allocator@U?$pair@$$CBU?$pair@G_W@std@@USCharacterInfomation@CGraphicFontTexture@@@std@@@2@@std@@AAE?AU?$pair@PAU?$_Tree_node@U?$pair@$$CBU?$pair@G_W@std@@USCharacterInfomation@CGraphicFontTexture@@@std@@PAX@std@@_N@1@ABU?$pair@G_W@1@@Z ENDP ; std::map<std::pair<unsigned short,wchar_t>,CGraphicFontTexture::SCharacterInfomation,std::less<std::pair<unsigned short,wchar_t> >,std::allocator<std::pair<std::pair<unsigned short,wchar_t> const ,CGraphicFontTexture::SCharacterInfomation> > >::_Try_emplace<std::pair<unsigned short,wchar_t> const &>
_TEXT	ENDS
; Function compile flags: /Odspy
; File C:\Program Files (x86)\Microsoft Visual Studio\2019\Community\VC\Tools\MSVC\14.28.29333\include\xtree
; File C:\Program Files (x86)\Microsoft Visual Studio\2019\Community\VC\Tools\MSVC\14.28.29333\include\utility
; File C:\Program Files (x86)\Microsoft Visual Studio\2019\Community\VC\Tools\MSVC\14.28.29333\include\xtree
; File C:\Program Files (x86)\Microsoft Visual Studio\2019\Community\VC\Tools\MSVC\14.28.29333\include\xstddef
; File C:\Program Files (x86)\Microsoft Visual Studio\2019\Community\VC\Tools\MSVC\14.28.29333\include\xtree
;	COMDAT ??$_Erase_tree@V?$allocator@U?$_Tree_node@U?$pair@$$CBGPAUHFONT__@@@std@@PAX@std@@@std@@@?$_Tree_val@U?$_Tree_simple_types@U?$pair@$$CBGPAUHFONT__@@@std@@@std@@@std@@QAEXAAV?$allocator@U?$_Tree_node@U?$pair@$$CBGPAUHFONT__@@@std@@PAX@std@@@1@PAU?$_Tree_node@U?$pair@$$CBGPAUHFONT__@@@std@@PAX@1@@Z
_TEXT	SEGMENT
$T1 = -20						; size = 4
__Old_val$2 = -16					; size = 4
__New_val$ = -12					; size = 4
_this$ = -8						; size = 4
$T3 = -4						; size = 4
__Al$ = 8						; size = 4
__Rootnode$ = 12					; size = 4
??$_Erase_tree@V?$allocator@U?$_Tree_node@U?$pair@$$CBGPAUHFONT__@@@std@@PAX@std@@@std@@@?$_Tree_val@U?$_Tree_simple_types@U?$pair@$$CBGPAUHFONT__@@@std@@@std@@@std@@QAEXAAV?$allocator@U?$_Tree_node@U?$pair@$$CBGPAUHFONT__@@@std@@PAX@std@@@1@PAU?$_Tree_node@U?$pair@$$CBGPAUHFONT__@@@std@@PAX@1@@Z PROC ; std::_Tree_val<std::_Tree_simple_types<std::pair<unsigned short const ,HFONT__ *> > >::_Erase_tree<std::allocator<std::_Tree_node<std::pair<unsigned short const ,HFONT__ *>,void *> > >, COMDAT
; _this$ = ecx

; 742  :     void _Erase_tree(_Alnode& _Al, _Nodeptr _Rootnode) noexcept {

  00000	55		 push	 ebp
  00001	8b ec		 mov	 ebp, esp
  00003	83 ec 14	 sub	 esp, 20			; 00000014H
  00006	89 4d f8	 mov	 DWORD PTR _this$[ebp], ecx
$LN2@Erase_tree:

; 743  :         while (!_Rootnode->_Isnil) { // free subtrees, then node

  00009	8b 45 0c	 mov	 eax, DWORD PTR __Rootnode$[ebp]
  0000c	0f be 40 0d	 movsx	 eax, BYTE PTR [eax+13]
  00010	85 c0		 test	 eax, eax
  00012	75 43		 jne	 SHORT $LN4@Erase_tree

; 744  :             _Erase_tree(_Al, _Rootnode->_Right);

  00014	8b 45 0c	 mov	 eax, DWORD PTR __Rootnode$[ebp]
  00017	ff 70 08	 push	 DWORD PTR [eax+8]
  0001a	ff 75 08	 push	 DWORD PTR __Al$[ebp]
  0001d	8b 4d f8	 mov	 ecx, DWORD PTR _this$[ebp]
  00020	e8 00 00 00 00	 call	 ??$_Erase_tree@V?$allocator@U?$_Tree_node@U?$pair@$$CBGPAUHFONT__@@@std@@PAX@std@@@std@@@?$_Tree_val@U?$_Tree_simple_types@U?$pair@$$CBGPAUHFONT__@@@std@@@std@@@std@@QAEXAAV?$allocator@U?$_Tree_node@U?$pair@$$CBGPAUHFONT__@@@std@@PAX@std@@@1@PAU?$_Tree_node@U?$pair@$$CBGPAUHFONT__@@@std@@PAX@1@@Z ; std::_Tree_val<std::_Tree_simple_types<std::pair<unsigned short const ,HFONT__ *> > >::_Erase_tree<std::allocator<std::_Tree_node<std::pair<unsigned short const ,HFONT__ *>,void *> > >

; 745  :             _Alnode::value_type::_Freenode(_Al, _STD exchange(_Rootnode, _Rootnode->_Left));

  00025	8b 45 0c	 mov	 eax, DWORD PTR __Rootnode$[ebp]
  00028	89 45 f4	 mov	 DWORD PTR __New_val$[ebp], eax
; File C:\Program Files (x86)\Microsoft Visual Studio\2019\Community\VC\Tools\MSVC\14.28.29333\include\utility

; 598  :     _Ty _Old_val = static_cast<_Ty&&>(_Val);

  0002b	8b 45 0c	 mov	 eax, DWORD PTR __Rootnode$[ebp]
  0002e	89 45 f0	 mov	 DWORD PTR __Old_val$2[ebp], eax

; 599  :     _Val         = static_cast<_Other&&>(_New_val);

  00031	8b 45 f4	 mov	 eax, DWORD PTR __New_val$[ebp]
  00034	8b 00		 mov	 eax, DWORD PTR [eax]
  00036	89 45 0c	 mov	 DWORD PTR __Rootnode$[ebp], eax

; 600  :     return _Old_val;

  00039	8b 45 f0	 mov	 eax, DWORD PTR __Old_val$2[ebp]
  0003c	89 45 fc	 mov	 DWORD PTR $T3[ebp], eax
; File C:\Program Files (x86)\Microsoft Visual Studio\2019\Community\VC\Tools\MSVC\14.28.29333\include\xtree

; 379  :         allocator_traits<_Alloc>::destroy(_Al, _STD addressof(_Ptr->_Myval));

  0003f	8b 45 fc	 mov	 eax, DWORD PTR $T3[ebp]
  00042	83 c0 10	 add	 eax, 16			; 00000010H
; File C:\Program Files (x86)\Microsoft Visual Studio\2019\Community\VC\Tools\MSVC\14.28.29333\include\xstddef

; 275  :     return __builtin_addressof(_Val);

  00045	89 45 ec	 mov	 DWORD PTR $T1[ebp], eax
; File C:\Program Files (x86)\Microsoft Visual Studio\2019\Community\VC\Tools\MSVC\14.28.29333\include\xtree

; 380  :         _Freenode0(_Al, _Ptr);

  00048	ff 75 fc	 push	 DWORD PTR $T3[ebp]
  0004b	ff 75 08	 push	 DWORD PTR __Al$[ebp]
  0004e	e8 00 00 00 00	 call	 ??$_Freenode0@V?$allocator@U?$_Tree_node@U?$pair@$$CBGPAUHFONT__@@@std@@PAX@std@@@std@@@?$_Tree_node@U?$pair@$$CBGPAUHFONT__@@@std@@PAX@std@@SAXAAV?$allocator@U?$_Tree_node@U?$pair@$$CBGPAUHFONT__@@@std@@PAX@std@@@1@PAU01@@Z ; std::_Tree_node<std::pair<unsigned short const ,HFONT__ *>,void *>::_Freenode0<std::allocator<std::_Tree_node<std::pair<unsigned short const ,HFONT__ *>,void *> > >
  00053	59		 pop	 ecx
  00054	59		 pop	 ecx

; 746  :         }

  00055	eb b2		 jmp	 SHORT $LN2@Erase_tree
$LN4@Erase_tree:

; 747  :     }

  00057	c9		 leave
  00058	c2 08 00	 ret	 8
??$_Erase_tree@V?$allocator@U?$_Tree_node@U?$pair@$$CBGPAUHFONT__@@@std@@PAX@std@@@std@@@?$_Tree_val@U?$_Tree_simple_types@U?$pair@$$CBGPAUHFONT__@@@std@@@std@@@std@@QAEXAAV?$allocator@U?$_Tree_node@U?$pair@$$CBGPAUHFONT__@@@std@@PAX@std@@@1@PAU?$_Tree_node@U?$pair@$$CBGPAUHFONT__@@@std@@PAX@1@@Z ENDP ; std::_Tree_val<std::_Tree_simple_types<std::pair<unsigned short const ,HFONT__ *> > >::_Erase_tree<std::allocator<std::_Tree_node<std::pair<unsigned short const ,HFONT__ *>,void *> > >
_TEXT	ENDS
; Function compile flags: /Odspy
; File C:\Program Files (x86)\Microsoft Visual Studio\2019\Community\VC\Tools\MSVC\14.28.29333\include\xtree
; File C:\Program Files (x86)\Microsoft Visual Studio\2019\Community\VC\Tools\MSVC\14.28.29333\include\xstddef
; File C:\Program Files (x86)\Microsoft Visual Studio\2019\Community\VC\Tools\MSVC\14.28.29333\include\xtree
;	COMDAT ??$_Find@G@?$_Tree@V?$_Tmap_traits@GPAUHFONT__@@U?$less@G@std@@V?$allocator@U?$pair@$$CBGPAUHFONT__@@@std@@@3@$0A@@std@@@std@@ABEPAU?$_Tree_node@U?$pair@$$CBGPAUHFONT__@@@std@@PAX@1@ABG@Z
_TEXT	SEGMENT
__Loc$ = -24						; size = 12
$T1 = -12						; size = 4
$T2 = -8						; size = 4
_this$ = -4						; size = 4
__Keyval$ = 8						; size = 4
??$_Find@G@?$_Tree@V?$_Tmap_traits@GPAUHFONT__@@U?$less@G@std@@V?$allocator@U?$pair@$$CBGPAUHFONT__@@@std@@@3@$0A@@std@@@std@@ABEPAU?$_Tree_node@U?$pair@$$CBGPAUHFONT__@@@std@@PAX@1@ABG@Z PROC ; std::_Tree<std::_Tmap_traits<unsigned short,HFONT__ *,std::less<unsigned short>,std::allocator<std::pair<unsigned short const ,HFONT__ *> >,0> >::_Find<unsigned short>, COMDAT
; _this$ = ecx

; 1457 :     _NODISCARD _Nodeptr _Find(const _Other& _Keyval) const {

  00000	55		 push	 ebp
  00001	8b ec		 mov	 ebp, esp
  00003	83 ec 18	 sub	 esp, 24			; 00000018H
  00006	89 4d fc	 mov	 DWORD PTR _this$[ebp], ecx

; 1458 :         const _Tree_find_result<_Nodeptr> _Loc = _Find_lower_bound(_Keyval);

  00009	ff 75 08	 push	 DWORD PTR __Keyval$[ebp]
  0000c	8d 45 e8	 lea	 eax, DWORD PTR __Loc$[ebp]
  0000f	50		 push	 eax
  00010	8b 4d fc	 mov	 ecx, DWORD PTR _this$[ebp]
  00013	e8 00 00 00 00	 call	 ??$_Find_lower_bound@G@?$_Tree@V?$_Tmap_traits@GPAUHFONT__@@U?$less@G@std@@V?$allocator@U?$pair@$$CBGPAUHFONT__@@@std@@@3@$0A@@std@@@std@@IBE?AU?$_Tree_find_result@PAU?$_Tree_node@U?$pair@$$CBGPAUHFONT__@@@std@@PAX@std@@@1@ABG@Z ; std::_Tree<std::_Tmap_traits<unsigned short,HFONT__ *,std::less<unsigned short>,std::allocator<std::pair<unsigned short const ,HFONT__ *> >,0> >::_Find_lower_bound<unsigned short>

; 1459 :         if (_Lower_bound_duplicate(_Loc._Bound, _Keyval)) {

  00018	ff 75 08	 push	 DWORD PTR __Keyval$[ebp]
  0001b	ff 75 f0	 push	 DWORD PTR __Loc$[ebp+8]
  0001e	8b 4d fc	 mov	 ecx, DWORD PTR _this$[ebp]
  00021	e8 00 00 00 00	 call	 ??$_Lower_bound_duplicate@G@?$_Tree@V?$_Tmap_traits@GPAUHFONT__@@U?$less@G@std@@V?$allocator@U?$pair@$$CBGPAUHFONT__@@@std@@@3@$0A@@std@@@std@@IBE_NQAU?$_Tree_node@U?$pair@$$CBGPAUHFONT__@@@std@@PAX@1@ABG@Z ; std::_Tree<std::_Tmap_traits<unsigned short,HFONT__ *,std::less<unsigned short>,std::allocator<std::pair<unsigned short const ,HFONT__ *> >,0> >::_Lower_bound_duplicate<unsigned short>
  00026	0f b6 c0	 movzx	 eax, al
  00029	85 c0		 test	 eax, eax
  0002b	74 05		 je	 SHORT $LN2@Find

; 1460 :             return _Loc._Bound;

  0002d	8b 45 f0	 mov	 eax, DWORD PTR __Loc$[ebp+8]
  00030	eb 11		 jmp	 SHORT $LN1@Find
$LN2@Find:

; 2051 :         return _STD addressof(_Mypair._Myval2._Myval2);

  00032	8b 45 fc	 mov	 eax, DWORD PTR _this$[ebp]
; File C:\Program Files (x86)\Microsoft Visual Studio\2019\Community\VC\Tools\MSVC\14.28.29333\include\xstddef

; 275  :     return __builtin_addressof(_Val);

  00035	89 45 f8	 mov	 DWORD PTR $T2[ebp], eax
; File C:\Program Files (x86)\Microsoft Visual Studio\2019\Community\VC\Tools\MSVC\14.28.29333\include\xtree

; 2051 :         return _STD addressof(_Mypair._Myval2._Myval2);

  00038	8b 45 f8	 mov	 eax, DWORD PTR $T2[ebp]
  0003b	89 45 f4	 mov	 DWORD PTR $T1[ebp], eax

; 1461 :         }
; 1462 : 
; 1463 :         return _Get_scary()->_Myhead;

  0003e	8b 45 f4	 mov	 eax, DWORD PTR $T1[ebp]
  00041	8b 00		 mov	 eax, DWORD PTR [eax]
$LN1@Find:

; 1464 :     }

  00043	c9		 leave
  00044	c2 04 00	 ret	 4
??$_Find@G@?$_Tree@V?$_Tmap_traits@GPAUHFONT__@@U?$less@G@std@@V?$allocator@U?$pair@$$CBGPAUHFONT__@@@std@@@3@$0A@@std@@@std@@ABEPAU?$_Tree_node@U?$pair@$$CBGPAUHFONT__@@@std@@PAX@1@ABG@Z ENDP ; std::_Tree<std::_Tmap_traits<unsigned short,HFONT__ *,std::less<unsigned short>,std::allocator<std::pair<unsigned short const ,HFONT__ *> >,0> >::_Find<unsigned short>
_TEXT	ENDS
; Function compile flags: /Odspy
; File C:\Program Files (x86)\Microsoft Visual Studio\2019\Community\VC\Tools\MSVC\14.28.29333\include\xtree
; File C:\Program Files (x86)\Microsoft Visual Studio\2019\Community\VC\Tools\MSVC\14.28.29333\include\type_traits
; File C:\Program Files (x86)\Microsoft Visual Studio\2019\Community\VC\Tools\MSVC\14.28.29333\include\xtree
; File C:\Program Files (x86)\Microsoft Visual Studio\2019\Community\VC\Tools\MSVC\14.28.29333\include\xstddef
; File C:\Program Files (x86)\Microsoft Visual Studio\2019\Community\VC\Tools\MSVC\14.28.29333\include\xtree
; File C:\Program Files (x86)\Microsoft Visual Studio\2019\Community\VC\Tools\MSVC\14.28.29333\include\type_traits
; File C:\Program Files (x86)\Microsoft Visual Studio\2019\Community\VC\Tools\MSVC\14.28.29333\include\utility
; File C:\Program Files (x86)\Microsoft Visual Studio\2019\Community\VC\Tools\MSVC\14.28.29333\include\type_traits
; File C:\Program Files (x86)\Microsoft Visual Studio\2019\Community\VC\Tools\MSVC\14.28.29333\include\utility
; File C:\Program Files (x86)\Microsoft Visual Studio\2019\Community\VC\Tools\MSVC\14.28.29333\include\xtree
;	COMDAT ??$insert@$0A@$0A@@?$_Tree@V?$_Tmap_traits@GPAUHFONT__@@U?$less@G@std@@V?$allocator@U?$pair@$$CBGPAUHFONT__@@@std@@@3@$0A@@std@@@std@@QAE?AU?$pair@V?$_Tree_iterator@V?$_Tree_val@U?$_Tree_simple_types@U?$pair@$$CBGPAUHFONT__@@@std@@@std@@@std@@@std@@_N@1@$$QAU?$pair@$$CBGPAUHFONT__@@@1@@Z
_TEXT	SEGMENT
__Result$ = -40						; size = 8
$T1 = -32						; size = 4
$T2 = -28						; size = 4
$T3 = -24						; size = 4
$T4 = -20						; size = 4
___param0$ = -16					; size = 4
$T5 = -12						; size = 4
$T6 = -8						; size = 4
_this$ = -4						; size = 4
___$ReturnUdt$ = 8					; size = 4
__Val$ = 12						; size = 4
??$insert@$0A@$0A@@?$_Tree@V?$_Tmap_traits@GPAUHFONT__@@U?$less@G@std@@V?$allocator@U?$pair@$$CBGPAUHFONT__@@@std@@@3@$0A@@std@@@std@@QAE?AU?$pair@V?$_Tree_iterator@V?$_Tree_val@U?$_Tree_simple_types@U?$pair@$$CBGPAUHFONT__@@@std@@@std@@@std@@@std@@_N@1@$$QAU?$pair@$$CBGPAUHFONT__@@@1@@Z PROC ; std::_Tree<std::_Tmap_traits<unsigned short,HFONT__ *,std::less<unsigned short>,std::allocator<std::pair<unsigned short const ,HFONT__ *> >,0> >::insert<0,0>, COMDAT
; _this$ = ecx

; 1343 :     pair<iterator, bool> insert(value_type&& _Val) {

  00000	55		 push	 ebp
  00001	8b ec		 mov	 ebp, esp
  00003	83 ec 28	 sub	 esp, 40			; 00000028H
  00006	89 4d fc	 mov	 DWORD PTR _this$[ebp], ecx
; File C:\Program Files (x86)\Microsoft Visual Studio\2019\Community\VC\Tools\MSVC\14.28.29333\include\type_traits

; 1455 :     return static_cast<remove_reference_t<_Ty>&&>(_Arg);

  00009	8b 45 0c	 mov	 eax, DWORD PTR __Val$[ebp]
  0000c	89 45 f8	 mov	 DWORD PTR $T6[ebp], eax
; File C:\Program Files (x86)\Microsoft Visual Studio\2019\Community\VC\Tools\MSVC\14.28.29333\include\xtree

; 1344 :         const auto _Result = _Emplace(_STD move(_Val));

  0000f	ff 75 f8	 push	 DWORD PTR $T6[ebp]
  00012	8d 45 d8	 lea	 eax, DWORD PTR __Result$[ebp]
  00015	50		 push	 eax
  00016	8b 4d fc	 mov	 ecx, DWORD PTR _this$[ebp]
  00019	e8 00 00 00 00	 call	 ??$_Emplace@U?$pair@$$CBGPAUHFONT__@@@std@@@?$_Tree@V?$_Tmap_traits@GPAUHFONT__@@U?$less@G@std@@V?$allocator@U?$pair@$$CBGPAUHFONT__@@@std@@@3@$0A@@std@@@std@@IAE?AU?$pair@PAU?$_Tree_node@U?$pair@$$CBGPAUHFONT__@@@std@@PAX@std@@_N@1@$$QAU?$pair@$$CBGPAUHFONT__@@@1@@Z ; std::_Tree<std::_Tmap_traits<unsigned short,HFONT__ *,std::less<unsigned short>,std::allocator<std::pair<unsigned short const ,HFONT__ *> >,0> >::_Emplace<std::pair<unsigned short const ,HFONT__ *> >

; 2047 :         return _STD addressof(_Mypair._Myval2._Myval2);

  0001e	8b 45 fc	 mov	 eax, DWORD PTR _this$[ebp]
; File C:\Program Files (x86)\Microsoft Visual Studio\2019\Community\VC\Tools\MSVC\14.28.29333\include\xstddef

; 275  :     return __builtin_addressof(_Val);

  00021	89 45 f4	 mov	 DWORD PTR $T5[ebp], eax
; File C:\Program Files (x86)\Microsoft Visual Studio\2019\Community\VC\Tools\MSVC\14.28.29333\include\xtree

; 2047 :         return _STD addressof(_Mypair._Myval2._Myval2);

  00024	8b 45 f4	 mov	 eax, DWORD PTR $T5[ebp]
  00027	89 45 e0	 mov	 DWORD PTR $T1[ebp], eax

; 1345 :         return {iterator(_Result.first, _Get_scary()), _Result.second};

  0002a	8b 45 d8	 mov	 eax, DWORD PTR __Result$[ebp]
  0002d	89 45 f0	 mov	 DWORD PTR ___param0$[ebp], eax

; 39   :     _Tree_unchecked_const_iterator(_Nodeptr _Pnode, const _Mytree* _Plist) noexcept : _Ptr(_Pnode) {

  00030	8b 45 f0	 mov	 eax, DWORD PTR ___param0$[ebp]
  00033	89 45 ec	 mov	 DWORD PTR $T4[ebp], eax
; File C:\Program Files (x86)\Microsoft Visual Studio\2019\Community\VC\Tools\MSVC\14.28.29333\include\type_traits

; 1443 :     return static_cast<_Ty&&>(_Arg);

  00036	8d 45 ec	 lea	 eax, DWORD PTR $T4[ebp]
  00039	89 45 e8	 mov	 DWORD PTR $T3[ebp], eax
; File C:\Program Files (x86)\Microsoft Visual Studio\2019\Community\VC\Tools\MSVC\14.28.29333\include\utility

; 190  :         : first(_STD forward<_Other1>(_Val1)), second(_STD forward<_Other2>(_Val2)) {}

  0003c	8b 45 e8	 mov	 eax, DWORD PTR $T3[ebp]
  0003f	8b 00		 mov	 eax, DWORD PTR [eax]
  00041	8b 4d 08	 mov	 ecx, DWORD PTR ___$ReturnUdt$[ebp]
  00044	89 01		 mov	 DWORD PTR [ecx], eax
; File C:\Program Files (x86)\Microsoft Visual Studio\2019\Community\VC\Tools\MSVC\14.28.29333\include\type_traits

; 1443 :     return static_cast<_Ty&&>(_Arg);

  00046	8d 45 dc	 lea	 eax, DWORD PTR __Result$[ebp+4]
  00049	89 45 e4	 mov	 DWORD PTR $T2[ebp], eax
; File C:\Program Files (x86)\Microsoft Visual Studio\2019\Community\VC\Tools\MSVC\14.28.29333\include\utility

; 190  :         : first(_STD forward<_Other1>(_Val1)), second(_STD forward<_Other2>(_Val2)) {}

  0004c	8b 45 08	 mov	 eax, DWORD PTR ___$ReturnUdt$[ebp]
  0004f	8b 4d e4	 mov	 ecx, DWORD PTR $T2[ebp]
  00052	8a 09		 mov	 cl, BYTE PTR [ecx]
  00054	88 48 04	 mov	 BYTE PTR [eax+4], cl
; File C:\Program Files (x86)\Microsoft Visual Studio\2019\Community\VC\Tools\MSVC\14.28.29333\include\xtree

; 1345 :         return {iterator(_Result.first, _Get_scary()), _Result.second};

  00057	8b 45 08	 mov	 eax, DWORD PTR ___$ReturnUdt$[ebp]

; 1346 :     }

  0005a	c9		 leave
  0005b	c2 08 00	 ret	 8
??$insert@$0A@$0A@@?$_Tree@V?$_Tmap_traits@GPAUHFONT__@@U?$less@G@std@@V?$allocator@U?$pair@$$CBGPAUHFONT__@@@std@@@3@$0A@@std@@@std@@QAE?AU?$pair@V?$_Tree_iterator@V?$_Tree_val@U?$_Tree_simple_types@U?$pair@$$CBGPAUHFONT__@@@std@@@std@@@std@@@std@@_N@1@$$QAU?$pair@$$CBGPAUHFONT__@@@1@@Z ENDP ; std::_Tree<std::_Tmap_traits<unsigned short,HFONT__ *,std::less<unsigned short>,std::allocator<std::pair<unsigned short const ,HFONT__ *> >,0> >::insert<0,0>
_TEXT	ENDS
; Function compile flags: /Odspy
; File C:\Program Files (x86)\Microsoft Visual Studio\2019\Community\VC\Tools\MSVC\14.28.29333\include\xtree
;	COMDAT ??E?$_Tree_unchecked_const_iterator@V?$_Tree_val@U?$_Tree_simple_types@U?$pair@$$CBGPAUHFONT__@@@std@@@std@@@std@@U_Iterator_base0@2@@std@@QAEAAV01@XZ
_TEXT	SEGMENT
$T1 = -16						; size = 4
__Pnode$ = -12						; size = 4
__Pnode$2 = -8						; size = 4
_this$ = -4						; size = 4
??E?$_Tree_unchecked_const_iterator@V?$_Tree_val@U?$_Tree_simple_types@U?$pair@$$CBGPAUHFONT__@@@std@@@std@@@std@@U_Iterator_base0@2@@std@@QAEAAV01@XZ PROC ; std::_Tree_unchecked_const_iterator<std::_Tree_val<std::_Tree_simple_types<std::pair<unsigned short const ,HFONT__ *> > >,std::_Iterator_base0>::operator++, COMDAT
; _this$ = ecx

; 51   :     _Tree_unchecked_const_iterator& operator++() noexcept {

  00000	55		 push	 ebp
  00001	8b ec		 mov	 ebp, esp
  00003	83 ec 10	 sub	 esp, 16			; 00000010H
  00006	89 4d fc	 mov	 DWORD PTR _this$[ebp], ecx

; 52   :         if (_Ptr->_Right->_Isnil) { // climb looking for right subtree

  00009	8b 45 fc	 mov	 eax, DWORD PTR _this$[ebp]
  0000c	8b 00		 mov	 eax, DWORD PTR [eax]
  0000e	8b 40 08	 mov	 eax, DWORD PTR [eax+8]
  00011	0f be 40 0d	 movsx	 eax, BYTE PTR [eax+13]
  00015	85 c0		 test	 eax, eax
  00017	74 37		 je	 SHORT $LN4@operator
$LN2@operator:

; 53   :             _Nodeptr _Pnode;
; 54   :             while (!(_Pnode = _Ptr->_Parent)->_Isnil && _Ptr == _Pnode->_Right) {

  00019	8b 45 fc	 mov	 eax, DWORD PTR _this$[ebp]
  0001c	8b 00		 mov	 eax, DWORD PTR [eax]
  0001e	8b 40 04	 mov	 eax, DWORD PTR [eax+4]
  00021	89 45 f8	 mov	 DWORD PTR __Pnode$2[ebp], eax
  00024	8b 45 f8	 mov	 eax, DWORD PTR __Pnode$2[ebp]
  00027	0f be 40 0d	 movsx	 eax, BYTE PTR [eax+13]
  0002b	85 c0		 test	 eax, eax
  0002d	75 17		 jne	 SHORT $LN3@operator
  0002f	8b 45 fc	 mov	 eax, DWORD PTR _this$[ebp]
  00032	8b 4d f8	 mov	 ecx, DWORD PTR __Pnode$2[ebp]
  00035	8b 00		 mov	 eax, DWORD PTR [eax]
  00037	3b 41 08	 cmp	 eax, DWORD PTR [ecx+8]
  0003a	75 0a		 jne	 SHORT $LN3@operator

; 55   :                 _Ptr = _Pnode; // ==> parent while right subtree

  0003c	8b 45 fc	 mov	 eax, DWORD PTR _this$[ebp]
  0003f	8b 4d f8	 mov	 ecx, DWORD PTR __Pnode$2[ebp]
  00042	89 08		 mov	 DWORD PTR [eax], ecx

; 56   :             }

  00044	eb d3		 jmp	 SHORT $LN2@operator
$LN3@operator:

; 57   : 
; 58   :             _Ptr = _Pnode; // ==> parent (head if end())

  00046	8b 45 fc	 mov	 eax, DWORD PTR _this$[ebp]
  00049	8b 4d f8	 mov	 ecx, DWORD PTR __Pnode$2[ebp]
  0004c	89 08		 mov	 DWORD PTR [eax], ecx

; 59   :         } else {

  0004e	eb 30		 jmp	 SHORT $LN5@operator
$LN4@operator:

; 60   :             _Ptr = _Mytree::_Min(_Ptr->_Right); // ==> smallest of right subtree

  00050	8b 45 fc	 mov	 eax, DWORD PTR _this$[ebp]
  00053	8b 00		 mov	 eax, DWORD PTR [eax]
  00055	8b 40 08	 mov	 eax, DWORD PTR [eax+8]
  00058	89 45 f4	 mov	 DWORD PTR __Pnode$[ebp], eax
$LN8@operator:

; 451  :         while (!_Pnode->_Left->_Isnil) {

  0005b	8b 45 f4	 mov	 eax, DWORD PTR __Pnode$[ebp]
  0005e	8b 00		 mov	 eax, DWORD PTR [eax]
  00060	0f be 40 0d	 movsx	 eax, BYTE PTR [eax+13]
  00064	85 c0		 test	 eax, eax
  00066	75 0a		 jne	 SHORT $LN9@operator

; 452  :             _Pnode = _Pnode->_Left;

  00068	8b 45 f4	 mov	 eax, DWORD PTR __Pnode$[ebp]
  0006b	8b 00		 mov	 eax, DWORD PTR [eax]
  0006d	89 45 f4	 mov	 DWORD PTR __Pnode$[ebp], eax

; 453  :         }

  00070	eb e9		 jmp	 SHORT $LN8@operator
$LN9@operator:

; 454  : 
; 455  :         return _Pnode;

  00072	8b 45 f4	 mov	 eax, DWORD PTR __Pnode$[ebp]
  00075	89 45 f0	 mov	 DWORD PTR $T1[ebp], eax

; 60   :             _Ptr = _Mytree::_Min(_Ptr->_Right); // ==> smallest of right subtree

  00078	8b 45 fc	 mov	 eax, DWORD PTR _this$[ebp]
  0007b	8b 4d f0	 mov	 ecx, DWORD PTR $T1[ebp]
  0007e	89 08		 mov	 DWORD PTR [eax], ecx
$LN5@operator:

; 61   :         }
; 62   : 
; 63   :         return *this;

  00080	8b 45 fc	 mov	 eax, DWORD PTR _this$[ebp]

; 64   :     }

  00083	c9		 leave
  00084	c3		 ret	 0
??E?$_Tree_unchecked_const_iterator@V?$_Tree_val@U?$_Tree_simple_types@U?$pair@$$CBGPAUHFONT__@@@std@@@std@@@std@@U_Iterator_base0@2@@std@@QAEAAV01@XZ ENDP ; std::_Tree_unchecked_const_iterator<std::_Tree_val<std::_Tree_simple_types<std::pair<unsigned short const ,HFONT__ *> > >,std::_Iterator_base0>::operator++
_TEXT	ENDS
; Function compile flags: /Odspy
; File D:\Metin2 Server Files\mainline\SRC_2014\Metin2Client\eterBase\Stl.h
; File C:\Program Files (x86)\Microsoft Visual Studio\2019\Community\VC\Tools\MSVC\14.28.29333\include\vector
; File C:\Program Files (x86)\Microsoft Visual Studio\2019\Community\VC\Tools\MSVC\14.28.29333\include\xstddef
; File C:\Program Files (x86)\Microsoft Visual Studio\2019\Community\VC\Tools\MSVC\14.28.29333\include\vector
; File D:\Metin2 Server Files\mainline\SRC_2014\Metin2Client\eterBase\Stl.h
; File C:\Program Files (x86)\Microsoft Visual Studio\2019\Community\VC\Tools\MSVC\14.28.29333\include\vector
; File C:\Program Files (x86)\Microsoft Visual Studio\2019\Community\VC\Tools\MSVC\14.28.29333\include\xstddef
; File C:\Program Files (x86)\Microsoft Visual Studio\2019\Community\VC\Tools\MSVC\14.28.29333\include\vector
; File D:\Metin2 Server Files\mainline\SRC_2014\Metin2Client\eterBase\Stl.h
; File C:\Program Files (x86)\Microsoft Visual Studio\2019\Community\VC\Tools\MSVC\14.28.29333\include\vector
; File D:\Metin2 Server Files\mainline\SRC_2014\Metin2Client\eterBase\Stl.h
; File C:\Program Files (x86)\Microsoft Visual Studio\2019\Community\VC\Tools\MSVC\14.28.29333\include\vector
; File D:\Metin2 Server Files\mainline\SRC_2014\Metin2Client\eterBase\Stl.h
;	COMDAT ??$stl_wipe@V?$vector@PAVCGraphicImageTexture@@V?$allocator@PAVCGraphicImageTexture@@@std@@@std@@@@YAXAAV?$vector@PAVCGraphicImageTexture@@V?$allocator@PAVCGraphicImageTexture@@@std@@@std@@@Z
_TEXT	SEGMENT
$T1 = -72						; size = 4
$T2 = -68						; size = 4
$T3 = -64						; size = 4
$T4 = -60						; size = 4
tv95 = -56						; size = 4
$T5 = -52						; size = 4
$T6 = -48						; size = 4
$T7 = -44						; size = 4
$T8 = -40						; size = 4
___param0$ = -36					; size = 4
___param0$ = -32					; size = 4
tv173 = -28						; size = 4
tv187 = -24						; size = 4
__My_data$9 = -20					; size = 4
__My_data$10 = -16					; size = 4
$T11 = -12						; size = 4
_i$12 = -8						; size = 4
$T13 = -2						; size = 1
$T14 = -1						; size = 1
_container$ = 8						; size = 4
??$stl_wipe@V?$vector@PAVCGraphicImageTexture@@V?$allocator@PAVCGraphicImageTexture@@@std@@@std@@@@YAXAAV?$vector@PAVCGraphicImageTexture@@V?$allocator@PAVCGraphicImageTexture@@@std@@@std@@@Z PROC ; stl_wipe<std::vector<CGraphicImageTexture *,std::allocator<CGraphicImageTexture *> > >, COMDAT

; 94   : {

  00000	55		 push	 ebp
  00001	8b ec		 mov	 ebp, esp
  00003	83 ec 48	 sub	 esp, 72			; 00000048H
; File C:\Program Files (x86)\Microsoft Visual Studio\2019\Community\VC\Tools\MSVC\14.28.29333\include\vector

; 1410 :         auto& _My_data = _Mypair._Myval2;

  00006	8b 45 08	 mov	 eax, DWORD PTR _container$[ebp]
  00009	89 45 f0	 mov	 DWORD PTR __My_data$10[ebp], eax
; File C:\Program Files (x86)\Microsoft Visual Studio\2019\Community\VC\Tools\MSVC\14.28.29333\include\xstddef

; 275  :     return __builtin_addressof(_Val);

  0000c	8b 45 f0	 mov	 eax, DWORD PTR __My_data$10[ebp]
  0000f	89 45 bc	 mov	 DWORD PTR $T2[ebp], eax
; File C:\Program Files (x86)\Microsoft Visual Studio\2019\Community\VC\Tools\MSVC\14.28.29333\include\vector

; 1411 :         return iterator(_My_data._Myfirst, _STD addressof(_My_data));

  00012	8b 45 f0	 mov	 eax, DWORD PTR __My_data$10[ebp]
  00015	8b 00		 mov	 eax, DWORD PTR [eax]
  00017	89 45 e0	 mov	 DWORD PTR ___param0$[ebp], eax

; 42   :     _Vector_const_iterator(_Tptr _Parg, const _Container_base* _Pvector) noexcept : _Ptr(_Parg) {

  0001a	8b 45 e0	 mov	 eax, DWORD PTR ___param0$[ebp]
  0001d	89 45 f8	 mov	 DWORD PTR _i$12[ebp], eax
; File D:\Metin2 Server Files\mainline\SRC_2014\Metin2Client\eterBase\Stl.h

; 95   : 	for (TContainer::iterator i = container.begin(); i != container.end(); ++i)

  00020	eb 09		 jmp	 SHORT $LN4@stl_wipe
$LN2@stl_wipe:
; File C:\Program Files (x86)\Microsoft Visual Studio\2019\Community\VC\Tools\MSVC\14.28.29333\include\vector

; 75   :         ++_Ptr;

  00022	8b 45 f8	 mov	 eax, DWORD PTR _i$12[ebp]
  00025	83 c0 04	 add	 eax, 4
  00028	89 45 f8	 mov	 DWORD PTR _i$12[ebp], eax
$LN4@stl_wipe:

; 1420 :         auto& _My_data = _Mypair._Myval2;

  0002b	8b 45 08	 mov	 eax, DWORD PTR _container$[ebp]
  0002e	89 45 ec	 mov	 DWORD PTR __My_data$9[ebp], eax
; File C:\Program Files (x86)\Microsoft Visual Studio\2019\Community\VC\Tools\MSVC\14.28.29333\include\xstddef

; 275  :     return __builtin_addressof(_Val);

  00031	8b 45 ec	 mov	 eax, DWORD PTR __My_data$9[ebp]
  00034	89 45 b8	 mov	 DWORD PTR $T1[ebp], eax
; File C:\Program Files (x86)\Microsoft Visual Studio\2019\Community\VC\Tools\MSVC\14.28.29333\include\vector

; 1421 :         return iterator(_My_data._Mylast, _STD addressof(_My_data));

  00037	8b 45 ec	 mov	 eax, DWORD PTR __My_data$9[ebp]
  0003a	8b 40 04	 mov	 eax, DWORD PTR [eax+4]
  0003d	89 45 dc	 mov	 DWORD PTR ___param0$[ebp], eax

; 42   :     _Vector_const_iterator(_Tptr _Parg, const _Container_base* _Pvector) noexcept : _Ptr(_Parg) {

  00040	8b 45 dc	 mov	 eax, DWORD PTR ___param0$[ebp]
  00043	89 45 d8	 mov	 DWORD PTR $T8[ebp], eax

; 1421 :         return iterator(_My_data._Mylast, _STD addressof(_My_data));

  00046	8d 45 d8	 lea	 eax, DWORD PTR $T8[ebp]
  00049	89 45 d4	 mov	 DWORD PTR $T7[ebp], eax

; 149  :         return _Ptr == _Right._Ptr;

  0004c	8b 45 d4	 mov	 eax, DWORD PTR $T7[ebp]
  0004f	8b 4d f8	 mov	 ecx, DWORD PTR _i$12[ebp]
  00052	3b 08		 cmp	 ecx, DWORD PTR [eax]
  00054	75 09		 jne	 SHORT $LN51@stl_wipe
  00056	c7 45 e8 01 00
	00 00		 mov	 DWORD PTR tv187[ebp], 1
  0005d	eb 04		 jmp	 SHORT $LN52@stl_wipe
$LN51@stl_wipe:
  0005f	83 65 e8 00	 and	 DWORD PTR tv187[ebp], 0
$LN52@stl_wipe:
  00063	8a 45 e8	 mov	 al, BYTE PTR tv187[ebp]
  00066	88 45 ff	 mov	 BYTE PTR $T14[ebp], al

; 153  :         return !(*this == _Right);

  00069	0f b6 45 ff	 movzx	 eax, BYTE PTR $T14[ebp]
  0006d	85 c0		 test	 eax, eax
  0006f	75 09		 jne	 SHORT $LN46@stl_wipe
  00071	c7 45 e4 01 00
	00 00		 mov	 DWORD PTR tv173[ebp], 1
  00078	eb 04		 jmp	 SHORT $LN47@stl_wipe
$LN46@stl_wipe:
  0007a	83 65 e4 00	 and	 DWORD PTR tv173[ebp], 0
$LN47@stl_wipe:
  0007e	8a 45 e4	 mov	 al, BYTE PTR tv173[ebp]
  00081	88 45 fe	 mov	 BYTE PTR $T13[ebp], al
; File D:\Metin2 Server Files\mainline\SRC_2014\Metin2Client\eterBase\Stl.h

; 95   : 	for (TContainer::iterator i = container.begin(); i != container.end(); ++i)

  00084	0f b6 45 fe	 movzx	 eax, BYTE PTR $T13[ebp]
  00088	85 c0		 test	 eax, eax
  0008a	74 46		 je	 SHORT $LN3@stl_wipe
; File C:\Program Files (x86)\Microsoft Visual Studio\2019\Community\VC\Tools\MSVC\14.28.29333\include\vector

; 54   :         return *_Ptr;

  0008c	8b 45 f8	 mov	 eax, DWORD PTR _i$12[ebp]
  0008f	89 45 d0	 mov	 DWORD PTR $T6[ebp], eax

; 252  :         return const_cast<reference>(_Mybase::operator*());

  00092	8b 45 d0	 mov	 eax, DWORD PTR $T6[ebp]
  00095	89 45 cc	 mov	 DWORD PTR $T5[ebp], eax
; File D:\Metin2 Server Files\mainline\SRC_2014\Metin2Client\eterBase\Stl.h

; 97   : 		delete *i;

  00098	8b 45 cc	 mov	 eax, DWORD PTR $T5[ebp]
  0009b	8b 00		 mov	 eax, DWORD PTR [eax]
  0009d	89 45 f4	 mov	 DWORD PTR $T11[ebp], eax
  000a0	83 7d f4 00	 cmp	 DWORD PTR $T11[ebp], 0
  000a4	74 11		 je	 SHORT $LN6@stl_wipe
  000a6	6a 01		 push	 1
  000a8	8b 45 f4	 mov	 eax, DWORD PTR $T11[ebp]
  000ab	8b 00		 mov	 eax, DWORD PTR [eax]
  000ad	8b 4d f4	 mov	 ecx, DWORD PTR $T11[ebp]
  000b0	ff 10		 call	 DWORD PTR [eax]
  000b2	89 45 c8	 mov	 DWORD PTR tv95[ebp], eax
  000b5	eb 04		 jmp	 SHORT $LN7@stl_wipe
$LN6@stl_wipe:
  000b7	83 65 c8 00	 and	 DWORD PTR tv95[ebp], 0
$LN7@stl_wipe:
; File C:\Program Files (x86)\Microsoft Visual Studio\2019\Community\VC\Tools\MSVC\14.28.29333\include\vector

; 54   :         return *_Ptr;

  000bb	8b 45 f8	 mov	 eax, DWORD PTR _i$12[ebp]
  000be	89 45 c4	 mov	 DWORD PTR $T4[ebp], eax

; 252  :         return const_cast<reference>(_Mybase::operator*());

  000c1	8b 45 c4	 mov	 eax, DWORD PTR $T4[ebp]
  000c4	89 45 c0	 mov	 DWORD PTR $T3[ebp], eax
; File D:\Metin2 Server Files\mainline\SRC_2014\Metin2Client\eterBase\Stl.h

; 98   : 		*i = NULL;

  000c7	8b 45 c0	 mov	 eax, DWORD PTR $T3[ebp]
  000ca	83 20 00	 and	 DWORD PTR [eax], 0

; 99   : 	}

  000cd	e9 50 ff ff ff	 jmp	 $LN2@stl_wipe
$LN3@stl_wipe:

; 100  : 	
; 101  : 	container.clear();

  000d2	8b 4d 08	 mov	 ecx, DWORD PTR _container$[ebp]
  000d5	e8 00 00 00 00	 call	 ?clear@?$vector@PAVCGraphicImageTexture@@V?$allocator@PAVCGraphicImageTexture@@@std@@@std@@QAEXXZ ; std::vector<CGraphicImageTexture *,std::allocator<CGraphicImageTexture *> >::clear

; 102  : }

  000da	c9		 leave
  000db	c3		 ret	 0
??$stl_wipe@V?$vector@PAVCGraphicImageTexture@@V?$allocator@PAVCGraphicImageTexture@@@std@@@std@@@@YAXAAV?$vector@PAVCGraphicImageTexture@@V?$allocator@PAVCGraphicImageTexture@@@std@@@std@@@Z ENDP ; stl_wipe<std::vector<CGraphicImageTexture *,std::allocator<CGraphicImageTexture *> > >
_TEXT	ENDS
; Function compile flags: /Odspy
;	COMDAT ??_GCGraphicFontTexture@@UAEPAXI@Z
_TEXT	SEGMENT
_this$ = -4						; size = 4
___flags$ = 8						; size = 4
??_GCGraphicFontTexture@@UAEPAXI@Z PROC			; CGraphicFontTexture::`scalar deleting destructor', COMDAT
; _this$ = ecx
  00000	55		 push	 ebp
  00001	8b ec		 mov	 ebp, esp
  00003	51		 push	 ecx
  00004	89 4d fc	 mov	 DWORD PTR _this$[ebp], ecx
  00007	8b 4d fc	 mov	 ecx, DWORD PTR _this$[ebp]
  0000a	e8 00 00 00 00	 call	 ??1CGraphicFontTexture@@UAE@XZ ; CGraphicFontTexture::~CGraphicFontTexture
  0000f	8b 45 08	 mov	 eax, DWORD PTR ___flags$[ebp]
  00012	83 e0 01	 and	 eax, 1
  00015	74 0f		 je	 SHORT $LN2@scalar
  00017	68 b4 00 00 00	 push	 180			; 000000b4H
  0001c	ff 75 fc	 push	 DWORD PTR _this$[ebp]
  0001f	e8 00 00 00 00	 call	 ??3@YAXPAXI@Z		; operator delete
  00024	59		 pop	 ecx
  00025	59		 pop	 ecx
$LN2@scalar:
  00026	8b 45 fc	 mov	 eax, DWORD PTR _this$[ebp]
  00029	c9		 leave
  0002a	c2 04 00	 ret	 4
??_GCGraphicFontTexture@@UAEPAXI@Z ENDP			; CGraphicFontTexture::`scalar deleting destructor'
_TEXT	ENDS
; Function compile flags: /Odspy
;	COMDAT ??1?$map@GPAUHFONT__@@U?$less@G@std@@V?$allocator@U?$pair@$$CBGPAUHFONT__@@@std@@@3@@std@@QAE@XZ
_TEXT	SEGMENT
_this$ = -4						; size = 4
??1?$map@GPAUHFONT__@@U?$less@G@std@@V?$allocator@U?$pair@$$CBGPAUHFONT__@@@std@@@3@@std@@QAE@XZ PROC ; std::map<unsigned short,HFONT__ *,std::less<unsigned short>,std::allocator<std::pair<unsigned short const ,HFONT__ *> > >::~map<unsigned short,HFONT__ *,std::less<unsigned short>,std::allocator<std::pair<unsigned short const ,HFONT__ *> > >, COMDAT
; _this$ = ecx
  00000	55		 push	 ebp
  00001	8b ec		 mov	 ebp, esp
  00003	51		 push	 ecx
  00004	89 4d fc	 mov	 DWORD PTR _this$[ebp], ecx
  00007	8b 4d fc	 mov	 ecx, DWORD PTR _this$[ebp]
  0000a	e8 00 00 00 00	 call	 ??1?$_Tree@V?$_Tmap_traits@GPAUHFONT__@@U?$less@G@std@@V?$allocator@U?$pair@$$CBGPAUHFONT__@@@std@@@3@$0A@@std@@@std@@QAE@XZ ; std::_Tree<std::_Tmap_traits<unsigned short,HFONT__ *,std::less<unsigned short>,std::allocator<std::pair<unsigned short const ,HFONT__ *> >,0> >::~_Tree<std::_Tmap_traits<unsigned short,HFONT__ *,std::less<unsigned short>,std::allocator<std::pair<unsigned short const ,HFONT__ *> >,0> >
  0000f	c9		 leave
  00010	c3		 ret	 0
??1?$map@GPAUHFONT__@@U?$less@G@std@@V?$allocator@U?$pair@$$CBGPAUHFONT__@@@std@@@3@@std@@QAE@XZ ENDP ; std::map<unsigned short,HFONT__ *,std::less<unsigned short>,std::allocator<std::pair<unsigned short const ,HFONT__ *> > >::~map<unsigned short,HFONT__ *,std::less<unsigned short>,std::allocator<std::pair<unsigned short const ,HFONT__ *> > >
_TEXT	ENDS
; Function compile flags: /Odspy
; File C:\Program Files (x86)\Microsoft Visual Studio\2019\Community\VC\Tools\MSVC\14.28.29333\include\xtree
;	COMDAT ?_Insert_node@?$_Tree_val@U?$_Tree_simple_types@U?$pair@$$CBGPAUHFONT__@@@std@@@std@@@std@@QAEPAU?$_Tree_node@U?$pair@$$CBGPAUHFONT__@@@std@@PAX@2@U?$_Tree_id@PAU?$_Tree_node@U?$pair@$$CBGPAUHFONT__@@@std@@PAX@std@@@2@QAU32@@Z
_TEXT	SEGMENT
__Parent_sibling$1 = -20				; size = 4
__Parent_sibling$2 = -16				; size = 4
_this$ = -12						; size = 4
__Head$ = -8						; size = 4
__Pnode$3 = -4						; size = 4
__Loc$ = 8						; size = 8
__Newnode$ = 16						; size = 4
?_Insert_node@?$_Tree_val@U?$_Tree_simple_types@U?$pair@$$CBGPAUHFONT__@@@std@@@std@@@std@@QAEPAU?$_Tree_node@U?$pair@$$CBGPAUHFONT__@@@std@@PAX@2@U?$_Tree_id@PAU?$_Tree_node@U?$pair@$$CBGPAUHFONT__@@@std@@PAX@std@@@2@QAU32@@Z PROC ; std::_Tree_val<std::_Tree_simple_types<std::pair<unsigned short const ,HFONT__ *> > >::_Insert_node, COMDAT
; _this$ = ecx

; 644  :     _Nodeptr _Insert_node(const _Tree_id<_Nodeptr> _Loc, const _Nodeptr _Newnode) noexcept {

  00000	55		 push	 ebp
  00001	8b ec		 mov	 ebp, esp
  00003	83 ec 14	 sub	 esp, 20			; 00000014H
  00006	89 4d f4	 mov	 DWORD PTR _this$[ebp], ecx

; 645  :         ++_Mysize;

  00009	8b 45 f4	 mov	 eax, DWORD PTR _this$[ebp]
  0000c	8b 40 04	 mov	 eax, DWORD PTR [eax+4]
  0000f	40		 inc	 eax
  00010	8b 4d f4	 mov	 ecx, DWORD PTR _this$[ebp]
  00013	89 41 04	 mov	 DWORD PTR [ecx+4], eax

; 646  :         const auto _Head  = _Myhead;

  00016	8b 45 f4	 mov	 eax, DWORD PTR _this$[ebp]
  00019	8b 00		 mov	 eax, DWORD PTR [eax]
  0001b	89 45 f8	 mov	 DWORD PTR __Head$[ebp], eax

; 647  :         _Newnode->_Parent = _Loc._Parent;

  0001e	8b 45 10	 mov	 eax, DWORD PTR __Newnode$[ebp]
  00021	8b 4d 08	 mov	 ecx, DWORD PTR __Loc$[ebp]
  00024	89 48 04	 mov	 DWORD PTR [eax+4], ecx

; 648  :         if (_Loc._Parent == _Head) { // first node in tree, just set head values

  00027	8b 45 08	 mov	 eax, DWORD PTR __Loc$[ebp]
  0002a	3b 45 f8	 cmp	 eax, DWORD PTR __Head$[ebp]
  0002d	75 29		 jne	 SHORT $LN5@Insert_nod

; 649  :             _Head->_Left     = _Newnode;

  0002f	8b 45 f8	 mov	 eax, DWORD PTR __Head$[ebp]
  00032	8b 4d 10	 mov	 ecx, DWORD PTR __Newnode$[ebp]
  00035	89 08		 mov	 DWORD PTR [eax], ecx

; 650  :             _Head->_Parent   = _Newnode;

  00037	8b 45 f8	 mov	 eax, DWORD PTR __Head$[ebp]
  0003a	8b 4d 10	 mov	 ecx, DWORD PTR __Newnode$[ebp]
  0003d	89 48 04	 mov	 DWORD PTR [eax+4], ecx

; 651  :             _Head->_Right    = _Newnode;

  00040	8b 45 f8	 mov	 eax, DWORD PTR __Head$[ebp]
  00043	8b 4d 10	 mov	 ecx, DWORD PTR __Newnode$[ebp]
  00046	89 48 08	 mov	 DWORD PTR [eax+8], ecx

; 652  :             _Newnode->_Color = _Black; // the root is black

  00049	8b 45 10	 mov	 eax, DWORD PTR __Newnode$[ebp]
  0004c	c6 40 0c 01	 mov	 BYTE PTR [eax+12], 1

; 653  :             return _Newnode;

  00050	8b 45 10	 mov	 eax, DWORD PTR __Newnode$[ebp]
  00053	e9 a3 01 00 00	 jmp	 $LN18@Insert_nod
$LN5@Insert_nod:

; 654  :         }
; 655  : 
; 656  :         _STL_INTERNAL_CHECK(_Loc._Child != _Tree_child::_Unused);
; 657  :         if (_Loc._Child == _Tree_child::_Right) { // add to right of _Loc._Parent

  00058	83 7d 0c 00	 cmp	 DWORD PTR __Loc$[ebp+4], 0
  0005c	75 1f		 jne	 SHORT $LN6@Insert_nod

; 658  :             _STL_INTERNAL_CHECK(_Loc._Parent->_Right->_Isnil);
; 659  :             _Loc._Parent->_Right = _Newnode;

  0005e	8b 45 08	 mov	 eax, DWORD PTR __Loc$[ebp]
  00061	8b 4d 10	 mov	 ecx, DWORD PTR __Newnode$[ebp]
  00064	89 48 08	 mov	 DWORD PTR [eax+8], ecx

; 660  :             if (_Loc._Parent == _Head->_Right) { // remember rightmost node

  00067	8b 45 f8	 mov	 eax, DWORD PTR __Head$[ebp]
  0006a	8b 4d 08	 mov	 ecx, DWORD PTR __Loc$[ebp]
  0006d	3b 48 08	 cmp	 ecx, DWORD PTR [eax+8]
  00070	75 09		 jne	 SHORT $LN8@Insert_nod

; 661  :                 _Head->_Right = _Newnode;

  00072	8b 45 f8	 mov	 eax, DWORD PTR __Head$[ebp]
  00075	8b 4d 10	 mov	 ecx, DWORD PTR __Newnode$[ebp]
  00078	89 48 08	 mov	 DWORD PTR [eax+8], ecx
$LN8@Insert_nod:

; 662  :             }
; 663  :         } else { // add to left of _Loc._Parent

  0007b	eb 1a		 jmp	 SHORT $LN7@Insert_nod
$LN6@Insert_nod:

; 664  :             _STL_INTERNAL_CHECK(_Loc._Parent->_Left->_Isnil);
; 665  :             _Loc._Parent->_Left = _Newnode;

  0007d	8b 45 08	 mov	 eax, DWORD PTR __Loc$[ebp]
  00080	8b 4d 10	 mov	 ecx, DWORD PTR __Newnode$[ebp]
  00083	89 08		 mov	 DWORD PTR [eax], ecx

; 666  :             if (_Loc._Parent == _Head->_Left) { // remember leftmost node

  00085	8b 45 f8	 mov	 eax, DWORD PTR __Head$[ebp]
  00088	8b 4d 08	 mov	 ecx, DWORD PTR __Loc$[ebp]
  0008b	3b 08		 cmp	 ecx, DWORD PTR [eax]
  0008d	75 08		 jne	 SHORT $LN7@Insert_nod

; 667  :                 _Head->_Left = _Newnode;

  0008f	8b 45 f8	 mov	 eax, DWORD PTR __Head$[ebp]
  00092	8b 4d 10	 mov	 ecx, DWORD PTR __Newnode$[ebp]
  00095	89 08		 mov	 DWORD PTR [eax], ecx
$LN7@Insert_nod:

; 668  :             }
; 669  :         }
; 670  : 
; 671  :         for (_Nodeptr _Pnode = _Newnode; _Pnode->_Parent->_Color == _Red;) {

  00097	8b 45 10	 mov	 eax, DWORD PTR __Newnode$[ebp]
  0009a	89 45 fc	 mov	 DWORD PTR __Pnode$3[ebp], eax
$LN4@Insert_nod:
  0009d	8b 45 fc	 mov	 eax, DWORD PTR __Pnode$3[ebp]
  000a0	8b 40 04	 mov	 eax, DWORD PTR [eax+4]
  000a3	0f be 40 0c	 movsx	 eax, BYTE PTR [eax+12]
  000a7	85 c0		 test	 eax, eax
  000a9	0f 85 3f 01 00
	00		 jne	 $LN3@Insert_nod

; 672  :             if (_Pnode->_Parent == _Pnode->_Parent->_Parent->_Left) { // fixup red-red in left subtree

  000af	8b 45 fc	 mov	 eax, DWORD PTR __Pnode$3[ebp]
  000b2	8b 40 04	 mov	 eax, DWORD PTR [eax+4]
  000b5	8b 40 04	 mov	 eax, DWORD PTR [eax+4]
  000b8	8b 4d fc	 mov	 ecx, DWORD PTR __Pnode$3[ebp]
  000bb	8b 49 04	 mov	 ecx, DWORD PTR [ecx+4]
  000be	3b 08		 cmp	 ecx, DWORD PTR [eax]
  000c0	0f 85 95 00 00
	00		 jne	 $LN10@Insert_nod

; 673  :                 const auto _Parent_sibling = _Pnode->_Parent->_Parent->_Right;

  000c6	8b 45 fc	 mov	 eax, DWORD PTR __Pnode$3[ebp]
  000c9	8b 40 04	 mov	 eax, DWORD PTR [eax+4]
  000cc	8b 40 04	 mov	 eax, DWORD PTR [eax+4]
  000cf	8b 40 08	 mov	 eax, DWORD PTR [eax+8]
  000d2	89 45 f0	 mov	 DWORD PTR __Parent_sibling$2[ebp], eax

; 674  :                 if (_Parent_sibling->_Color == _Red) { // parent's sibling has two red children, blacken both

  000d5	8b 45 f0	 mov	 eax, DWORD PTR __Parent_sibling$2[ebp]
  000d8	0f be 40 0c	 movsx	 eax, BYTE PTR [eax+12]
  000dc	85 c0		 test	 eax, eax
  000de	75 2c		 jne	 SHORT $LN12@Insert_nod

; 675  :                     _Pnode->_Parent->_Color          = _Black;

  000e0	8b 45 fc	 mov	 eax, DWORD PTR __Pnode$3[ebp]
  000e3	8b 40 04	 mov	 eax, DWORD PTR [eax+4]
  000e6	c6 40 0c 01	 mov	 BYTE PTR [eax+12], 1

; 676  :                     _Parent_sibling->_Color          = _Black;

  000ea	8b 45 f0	 mov	 eax, DWORD PTR __Parent_sibling$2[ebp]
  000ed	c6 40 0c 01	 mov	 BYTE PTR [eax+12], 1

; 677  :                     _Pnode->_Parent->_Parent->_Color = _Red;

  000f1	8b 45 fc	 mov	 eax, DWORD PTR __Pnode$3[ebp]
  000f4	8b 40 04	 mov	 eax, DWORD PTR [eax+4]
  000f7	8b 40 04	 mov	 eax, DWORD PTR [eax+4]
  000fa	c6 40 0c 00	 mov	 BYTE PTR [eax+12], 0

; 678  :                     _Pnode                           = _Pnode->_Parent->_Parent;

  000fe	8b 45 fc	 mov	 eax, DWORD PTR __Pnode$3[ebp]
  00101	8b 40 04	 mov	 eax, DWORD PTR [eax+4]
  00104	8b 40 04	 mov	 eax, DWORD PTR [eax+4]
  00107	89 45 fc	 mov	 DWORD PTR __Pnode$3[ebp], eax

; 679  :                 } else { // parent's sibling has red and black children

  0010a	eb 4a		 jmp	 SHORT $LN13@Insert_nod
$LN12@Insert_nod:

; 680  :                     if (_Pnode == _Pnode->_Parent->_Right) { // rotate right child to left

  0010c	8b 45 fc	 mov	 eax, DWORD PTR __Pnode$3[ebp]
  0010f	8b 40 04	 mov	 eax, DWORD PTR [eax+4]
  00112	8b 4d fc	 mov	 ecx, DWORD PTR __Pnode$3[ebp]
  00115	3b 48 08	 cmp	 ecx, DWORD PTR [eax+8]
  00118	75 14		 jne	 SHORT $LN14@Insert_nod

; 681  :                         _Pnode = _Pnode->_Parent;

  0011a	8b 45 fc	 mov	 eax, DWORD PTR __Pnode$3[ebp]
  0011d	8b 40 04	 mov	 eax, DWORD PTR [eax+4]
  00120	89 45 fc	 mov	 DWORD PTR __Pnode$3[ebp], eax

; 682  :                         _Lrotate(_Pnode);

  00123	ff 75 fc	 push	 DWORD PTR __Pnode$3[ebp]
  00126	8b 4d f4	 mov	 ecx, DWORD PTR _this$[ebp]
  00129	e8 00 00 00 00	 call	 ?_Lrotate@?$_Tree_val@U?$_Tree_simple_types@U?$pair@$$CBGPAUHFONT__@@@std@@@std@@@std@@QAEXPAU?$_Tree_node@U?$pair@$$CBGPAUHFONT__@@@std@@PAX@2@@Z ; std::_Tree_val<std::_Tree_simple_types<std::pair<unsigned short const ,HFONT__ *> > >::_Lrotate
$LN14@Insert_nod:

; 683  :                     }
; 684  : 
; 685  :                     _Pnode->_Parent->_Color          = _Black; // propagate red up

  0012e	8b 45 fc	 mov	 eax, DWORD PTR __Pnode$3[ebp]
  00131	8b 40 04	 mov	 eax, DWORD PTR [eax+4]
  00134	c6 40 0c 01	 mov	 BYTE PTR [eax+12], 1

; 686  :                     _Pnode->_Parent->_Parent->_Color = _Red;

  00138	8b 45 fc	 mov	 eax, DWORD PTR __Pnode$3[ebp]
  0013b	8b 40 04	 mov	 eax, DWORD PTR [eax+4]
  0013e	8b 40 04	 mov	 eax, DWORD PTR [eax+4]
  00141	c6 40 0c 00	 mov	 BYTE PTR [eax+12], 0

; 687  :                     _Rrotate(_Pnode->_Parent->_Parent);

  00145	8b 45 fc	 mov	 eax, DWORD PTR __Pnode$3[ebp]
  00148	8b 40 04	 mov	 eax, DWORD PTR [eax+4]
  0014b	ff 70 04	 push	 DWORD PTR [eax+4]
  0014e	8b 4d f4	 mov	 ecx, DWORD PTR _this$[ebp]
  00151	e8 00 00 00 00	 call	 ?_Rrotate@?$_Tree_val@U?$_Tree_simple_types@U?$pair@$$CBGPAUHFONT__@@@std@@@std@@@std@@QAEXPAU?$_Tree_node@U?$pair@$$CBGPAUHFONT__@@@std@@PAX@2@@Z ; std::_Tree_val<std::_Tree_simple_types<std::pair<unsigned short const ,HFONT__ *> > >::_Rrotate
$LN13@Insert_nod:

; 688  :                 }
; 689  :             } else { // fixup red-red in right subtree

  00156	e9 8e 00 00 00	 jmp	 $LN11@Insert_nod
$LN10@Insert_nod:

; 690  :                 const auto _Parent_sibling = _Pnode->_Parent->_Parent->_Left;

  0015b	8b 45 fc	 mov	 eax, DWORD PTR __Pnode$3[ebp]
  0015e	8b 40 04	 mov	 eax, DWORD PTR [eax+4]
  00161	8b 40 04	 mov	 eax, DWORD PTR [eax+4]
  00164	8b 00		 mov	 eax, DWORD PTR [eax]
  00166	89 45 ec	 mov	 DWORD PTR __Parent_sibling$1[ebp], eax

; 691  :                 if (_Parent_sibling->_Color == _Red) { // parent's sibling has two red children, blacken both

  00169	8b 45 ec	 mov	 eax, DWORD PTR __Parent_sibling$1[ebp]
  0016c	0f be 40 0c	 movsx	 eax, BYTE PTR [eax+12]
  00170	85 c0		 test	 eax, eax
  00172	75 2c		 jne	 SHORT $LN15@Insert_nod

; 692  :                     _Pnode->_Parent->_Color          = _Black;

  00174	8b 45 fc	 mov	 eax, DWORD PTR __Pnode$3[ebp]
  00177	8b 40 04	 mov	 eax, DWORD PTR [eax+4]
  0017a	c6 40 0c 01	 mov	 BYTE PTR [eax+12], 1

; 693  :                     _Parent_sibling->_Color          = _Black;

  0017e	8b 45 ec	 mov	 eax, DWORD PTR __Parent_sibling$1[ebp]
  00181	c6 40 0c 01	 mov	 BYTE PTR [eax+12], 1

; 694  :                     _Pnode->_Parent->_Parent->_Color = _Red;

  00185	8b 45 fc	 mov	 eax, DWORD PTR __Pnode$3[ebp]
  00188	8b 40 04	 mov	 eax, DWORD PTR [eax+4]
  0018b	8b 40 04	 mov	 eax, DWORD PTR [eax+4]
  0018e	c6 40 0c 00	 mov	 BYTE PTR [eax+12], 0

; 695  :                     _Pnode                           = _Pnode->_Parent->_Parent;

  00192	8b 45 fc	 mov	 eax, DWORD PTR __Pnode$3[ebp]
  00195	8b 40 04	 mov	 eax, DWORD PTR [eax+4]
  00198	8b 40 04	 mov	 eax, DWORD PTR [eax+4]
  0019b	89 45 fc	 mov	 DWORD PTR __Pnode$3[ebp], eax

; 696  :                 } else { // parent's sibling has red and black children

  0019e	eb 49		 jmp	 SHORT $LN11@Insert_nod
$LN15@Insert_nod:

; 697  :                     if (_Pnode == _Pnode->_Parent->_Left) { // rotate left child to right

  001a0	8b 45 fc	 mov	 eax, DWORD PTR __Pnode$3[ebp]
  001a3	8b 40 04	 mov	 eax, DWORD PTR [eax+4]
  001a6	8b 4d fc	 mov	 ecx, DWORD PTR __Pnode$3[ebp]
  001a9	3b 08		 cmp	 ecx, DWORD PTR [eax]
  001ab	75 14		 jne	 SHORT $LN17@Insert_nod

; 698  :                         _Pnode = _Pnode->_Parent;

  001ad	8b 45 fc	 mov	 eax, DWORD PTR __Pnode$3[ebp]
  001b0	8b 40 04	 mov	 eax, DWORD PTR [eax+4]
  001b3	89 45 fc	 mov	 DWORD PTR __Pnode$3[ebp], eax

; 699  :                         _Rrotate(_Pnode);

  001b6	ff 75 fc	 push	 DWORD PTR __Pnode$3[ebp]
  001b9	8b 4d f4	 mov	 ecx, DWORD PTR _this$[ebp]
  001bc	e8 00 00 00 00	 call	 ?_Rrotate@?$_Tree_val@U?$_Tree_simple_types@U?$pair@$$CBGPAUHFONT__@@@std@@@std@@@std@@QAEXPAU?$_Tree_node@U?$pair@$$CBGPAUHFONT__@@@std@@PAX@2@@Z ; std::_Tree_val<std::_Tree_simple_types<std::pair<unsigned short const ,HFONT__ *> > >::_Rrotate
$LN17@Insert_nod:

; 700  :                     }
; 701  : 
; 702  :                     _Pnode->_Parent->_Color          = _Black; // propagate red up

  001c1	8b 45 fc	 mov	 eax, DWORD PTR __Pnode$3[ebp]
  001c4	8b 40 04	 mov	 eax, DWORD PTR [eax+4]
  001c7	c6 40 0c 01	 mov	 BYTE PTR [eax+12], 1

; 703  :                     _Pnode->_Parent->_Parent->_Color = _Red;

  001cb	8b 45 fc	 mov	 eax, DWORD PTR __Pnode$3[ebp]
  001ce	8b 40 04	 mov	 eax, DWORD PTR [eax+4]
  001d1	8b 40 04	 mov	 eax, DWORD PTR [eax+4]
  001d4	c6 40 0c 00	 mov	 BYTE PTR [eax+12], 0

; 704  :                     _Lrotate(_Pnode->_Parent->_Parent);

  001d8	8b 45 fc	 mov	 eax, DWORD PTR __Pnode$3[ebp]
  001db	8b 40 04	 mov	 eax, DWORD PTR [eax+4]
  001de	ff 70 04	 push	 DWORD PTR [eax+4]
  001e1	8b 4d f4	 mov	 ecx, DWORD PTR _this$[ebp]
  001e4	e8 00 00 00 00	 call	 ?_Lrotate@?$_Tree_val@U?$_Tree_simple_types@U?$pair@$$CBGPAUHFONT__@@@std@@@std@@@std@@QAEXPAU?$_Tree_node@U?$pair@$$CBGPAUHFONT__@@@std@@PAX@2@@Z ; std::_Tree_val<std::_Tree_simple_types<std::pair<unsigned short const ,HFONT__ *> > >::_Lrotate
$LN11@Insert_nod:

; 705  :                 }
; 706  :             }
; 707  :         }

  001e9	e9 af fe ff ff	 jmp	 $LN4@Insert_nod
$LN3@Insert_nod:

; 708  : 
; 709  :         _Head->_Parent->_Color = _Black; // root is always black

  001ee	8b 45 f8	 mov	 eax, DWORD PTR __Head$[ebp]
  001f1	8b 40 04	 mov	 eax, DWORD PTR [eax+4]
  001f4	c6 40 0c 01	 mov	 BYTE PTR [eax+12], 1

; 710  :         return _Newnode;

  001f8	8b 45 10	 mov	 eax, DWORD PTR __Newnode$[ebp]
$LN18@Insert_nod:

; 711  :     }

  001fb	c9		 leave
  001fc	c2 0c 00	 ret	 12			; 0000000cH
?_Insert_node@?$_Tree_val@U?$_Tree_simple_types@U?$pair@$$CBGPAUHFONT__@@@std@@@std@@@std@@QAEPAU?$_Tree_node@U?$pair@$$CBGPAUHFONT__@@@std@@PAX@2@U?$_Tree_id@PAU?$_Tree_node@U?$pair@$$CBGPAUHFONT__@@@std@@PAX@std@@@2@QAU32@@Z ENDP ; std::_Tree_val<std::_Tree_simple_types<std::pair<unsigned short const ,HFONT__ *> > >::_Insert_node
_TEXT	ENDS
; Function compile flags: /Odspy
; File C:\Program Files (x86)\Microsoft Visual Studio\2019\Community\VC\Tools\MSVC\14.28.29333\include\xtree
;	COMDAT ?_Rrotate@?$_Tree_val@U?$_Tree_simple_types@U?$pair@$$CBGPAUHFONT__@@@std@@@std@@@std@@QAEXPAU?$_Tree_node@U?$pair@$$CBGPAUHFONT__@@@std@@PAX@2@@Z
_TEXT	SEGMENT
_this$ = -8						; size = 4
__Pnode$ = -4						; size = 4
__Wherenode$ = 8					; size = 4
?_Rrotate@?$_Tree_val@U?$_Tree_simple_types@U?$pair@$$CBGPAUHFONT__@@@std@@@std@@@std@@QAEXPAU?$_Tree_node@U?$pair@$$CBGPAUHFONT__@@@std@@PAX@2@@Z PROC ; std::_Tree_val<std::_Tree_simple_types<std::pair<unsigned short const ,HFONT__ *> > >::_Rrotate, COMDAT
; _this$ = ecx

; 480  :     void _Rrotate(_Nodeptr _Wherenode) noexcept { // promote left node to root of subtree

  00000	55		 push	 ebp
  00001	8b ec		 mov	 ebp, esp
  00003	51		 push	 ecx
  00004	51		 push	 ecx
  00005	89 4d f8	 mov	 DWORD PTR _this$[ebp], ecx

; 481  :         _Nodeptr _Pnode   = _Wherenode->_Left;

  00008	8b 45 08	 mov	 eax, DWORD PTR __Wherenode$[ebp]
  0000b	8b 00		 mov	 eax, DWORD PTR [eax]
  0000d	89 45 fc	 mov	 DWORD PTR __Pnode$[ebp], eax

; 482  :         _Wherenode->_Left = _Pnode->_Right;

  00010	8b 45 08	 mov	 eax, DWORD PTR __Wherenode$[ebp]
  00013	8b 4d fc	 mov	 ecx, DWORD PTR __Pnode$[ebp]
  00016	8b 49 08	 mov	 ecx, DWORD PTR [ecx+8]
  00019	89 08		 mov	 DWORD PTR [eax], ecx

; 483  : 
; 484  :         if (!_Pnode->_Right->_Isnil) {

  0001b	8b 45 fc	 mov	 eax, DWORD PTR __Pnode$[ebp]
  0001e	8b 40 08	 mov	 eax, DWORD PTR [eax+8]
  00021	0f be 40 0d	 movsx	 eax, BYTE PTR [eax+13]
  00025	85 c0		 test	 eax, eax
  00027	75 0c		 jne	 SHORT $LN2@Rrotate

; 485  :             _Pnode->_Right->_Parent = _Wherenode;

  00029	8b 45 fc	 mov	 eax, DWORD PTR __Pnode$[ebp]
  0002c	8b 40 08	 mov	 eax, DWORD PTR [eax+8]
  0002f	8b 4d 08	 mov	 ecx, DWORD PTR __Wherenode$[ebp]
  00032	89 48 04	 mov	 DWORD PTR [eax+4], ecx
$LN2@Rrotate:

; 486  :         }
; 487  : 
; 488  :         _Pnode->_Parent = _Wherenode->_Parent;

  00035	8b 45 fc	 mov	 eax, DWORD PTR __Pnode$[ebp]
  00038	8b 4d 08	 mov	 ecx, DWORD PTR __Wherenode$[ebp]
  0003b	8b 49 04	 mov	 ecx, DWORD PTR [ecx+4]
  0003e	89 48 04	 mov	 DWORD PTR [eax+4], ecx

; 489  : 
; 490  :         if (_Wherenode == _Myhead->_Parent) {

  00041	8b 45 f8	 mov	 eax, DWORD PTR _this$[ebp]
  00044	8b 00		 mov	 eax, DWORD PTR [eax]
  00046	8b 4d 08	 mov	 ecx, DWORD PTR __Wherenode$[ebp]
  00049	3b 48 04	 cmp	 ecx, DWORD PTR [eax+4]
  0004c	75 0d		 jne	 SHORT $LN3@Rrotate

; 491  :             _Myhead->_Parent = _Pnode;

  0004e	8b 45 f8	 mov	 eax, DWORD PTR _this$[ebp]
  00051	8b 00		 mov	 eax, DWORD PTR [eax]
  00053	8b 4d fc	 mov	 ecx, DWORD PTR __Pnode$[ebp]
  00056	89 48 04	 mov	 DWORD PTR [eax+4], ecx
  00059	eb 27		 jmp	 SHORT $LN4@Rrotate
$LN3@Rrotate:

; 492  :         } else if (_Wherenode == _Wherenode->_Parent->_Right) {

  0005b	8b 45 08	 mov	 eax, DWORD PTR __Wherenode$[ebp]
  0005e	8b 40 04	 mov	 eax, DWORD PTR [eax+4]
  00061	8b 4d 08	 mov	 ecx, DWORD PTR __Wherenode$[ebp]
  00064	3b 48 08	 cmp	 ecx, DWORD PTR [eax+8]
  00067	75 0e		 jne	 SHORT $LN5@Rrotate

; 493  :             _Wherenode->_Parent->_Right = _Pnode;

  00069	8b 45 08	 mov	 eax, DWORD PTR __Wherenode$[ebp]
  0006c	8b 40 04	 mov	 eax, DWORD PTR [eax+4]
  0006f	8b 4d fc	 mov	 ecx, DWORD PTR __Pnode$[ebp]
  00072	89 48 08	 mov	 DWORD PTR [eax+8], ecx

; 494  :         } else {

  00075	eb 0b		 jmp	 SHORT $LN4@Rrotate
$LN5@Rrotate:

; 495  :             _Wherenode->_Parent->_Left = _Pnode;

  00077	8b 45 08	 mov	 eax, DWORD PTR __Wherenode$[ebp]
  0007a	8b 40 04	 mov	 eax, DWORD PTR [eax+4]
  0007d	8b 4d fc	 mov	 ecx, DWORD PTR __Pnode$[ebp]
  00080	89 08		 mov	 DWORD PTR [eax], ecx
$LN4@Rrotate:

; 496  :         }
; 497  : 
; 498  :         _Pnode->_Right      = _Wherenode;

  00082	8b 45 fc	 mov	 eax, DWORD PTR __Pnode$[ebp]
  00085	8b 4d 08	 mov	 ecx, DWORD PTR __Wherenode$[ebp]
  00088	89 48 08	 mov	 DWORD PTR [eax+8], ecx

; 499  :         _Wherenode->_Parent = _Pnode;

  0008b	8b 45 08	 mov	 eax, DWORD PTR __Wherenode$[ebp]
  0008e	8b 4d fc	 mov	 ecx, DWORD PTR __Pnode$[ebp]
  00091	89 48 04	 mov	 DWORD PTR [eax+4], ecx

; 500  :     }

  00094	c9		 leave
  00095	c2 04 00	 ret	 4
?_Rrotate@?$_Tree_val@U?$_Tree_simple_types@U?$pair@$$CBGPAUHFONT__@@@std@@@std@@@std@@QAEXPAU?$_Tree_node@U?$pair@$$CBGPAUHFONT__@@@std@@PAX@2@@Z ENDP ; std::_Tree_val<std::_Tree_simple_types<std::pair<unsigned short const ,HFONT__ *> > >::_Rrotate
_TEXT	ENDS
; Function compile flags: /Odspy
; File C:\Program Files (x86)\Microsoft Visual Studio\2019\Community\VC\Tools\MSVC\14.28.29333\include\xtree
;	COMDAT ?_Lrotate@?$_Tree_val@U?$_Tree_simple_types@U?$pair@$$CBGPAUHFONT__@@@std@@@std@@@std@@QAEXPAU?$_Tree_node@U?$pair@$$CBGPAUHFONT__@@@std@@PAX@2@@Z
_TEXT	SEGMENT
_this$ = -8						; size = 4
__Pnode$ = -4						; size = 4
__Wherenode$ = 8					; size = 4
?_Lrotate@?$_Tree_val@U?$_Tree_simple_types@U?$pair@$$CBGPAUHFONT__@@@std@@@std@@@std@@QAEXPAU?$_Tree_node@U?$pair@$$CBGPAUHFONT__@@@std@@PAX@2@@Z PROC ; std::_Tree_val<std::_Tree_simple_types<std::pair<unsigned short const ,HFONT__ *> > >::_Lrotate, COMDAT
; _this$ = ecx

; 458  :     void _Lrotate(_Nodeptr _Wherenode) noexcept { // promote right node to root of subtree

  00000	55		 push	 ebp
  00001	8b ec		 mov	 ebp, esp
  00003	51		 push	 ecx
  00004	51		 push	 ecx
  00005	89 4d f8	 mov	 DWORD PTR _this$[ebp], ecx

; 459  :         _Nodeptr _Pnode    = _Wherenode->_Right;

  00008	8b 45 08	 mov	 eax, DWORD PTR __Wherenode$[ebp]
  0000b	8b 40 08	 mov	 eax, DWORD PTR [eax+8]
  0000e	89 45 fc	 mov	 DWORD PTR __Pnode$[ebp], eax

; 460  :         _Wherenode->_Right = _Pnode->_Left;

  00011	8b 45 08	 mov	 eax, DWORD PTR __Wherenode$[ebp]
  00014	8b 4d fc	 mov	 ecx, DWORD PTR __Pnode$[ebp]
  00017	8b 09		 mov	 ecx, DWORD PTR [ecx]
  00019	89 48 08	 mov	 DWORD PTR [eax+8], ecx

; 461  : 
; 462  :         if (!_Pnode->_Left->_Isnil) {

  0001c	8b 45 fc	 mov	 eax, DWORD PTR __Pnode$[ebp]
  0001f	8b 00		 mov	 eax, DWORD PTR [eax]
  00021	0f be 40 0d	 movsx	 eax, BYTE PTR [eax+13]
  00025	85 c0		 test	 eax, eax
  00027	75 0b		 jne	 SHORT $LN2@Lrotate

; 463  :             _Pnode->_Left->_Parent = _Wherenode;

  00029	8b 45 fc	 mov	 eax, DWORD PTR __Pnode$[ebp]
  0002c	8b 00		 mov	 eax, DWORD PTR [eax]
  0002e	8b 4d 08	 mov	 ecx, DWORD PTR __Wherenode$[ebp]
  00031	89 48 04	 mov	 DWORD PTR [eax+4], ecx
$LN2@Lrotate:

; 464  :         }
; 465  : 
; 466  :         _Pnode->_Parent = _Wherenode->_Parent;

  00034	8b 45 fc	 mov	 eax, DWORD PTR __Pnode$[ebp]
  00037	8b 4d 08	 mov	 ecx, DWORD PTR __Wherenode$[ebp]
  0003a	8b 49 04	 mov	 ecx, DWORD PTR [ecx+4]
  0003d	89 48 04	 mov	 DWORD PTR [eax+4], ecx

; 467  : 
; 468  :         if (_Wherenode == _Myhead->_Parent) {

  00040	8b 45 f8	 mov	 eax, DWORD PTR _this$[ebp]
  00043	8b 00		 mov	 eax, DWORD PTR [eax]
  00045	8b 4d 08	 mov	 ecx, DWORD PTR __Wherenode$[ebp]
  00048	3b 48 04	 cmp	 ecx, DWORD PTR [eax+4]
  0004b	75 0d		 jne	 SHORT $LN3@Lrotate

; 469  :             _Myhead->_Parent = _Pnode;

  0004d	8b 45 f8	 mov	 eax, DWORD PTR _this$[ebp]
  00050	8b 00		 mov	 eax, DWORD PTR [eax]
  00052	8b 4d fc	 mov	 ecx, DWORD PTR __Pnode$[ebp]
  00055	89 48 04	 mov	 DWORD PTR [eax+4], ecx
  00058	eb 26		 jmp	 SHORT $LN4@Lrotate
$LN3@Lrotate:

; 470  :         } else if (_Wherenode == _Wherenode->_Parent->_Left) {

  0005a	8b 45 08	 mov	 eax, DWORD PTR __Wherenode$[ebp]
  0005d	8b 40 04	 mov	 eax, DWORD PTR [eax+4]
  00060	8b 4d 08	 mov	 ecx, DWORD PTR __Wherenode$[ebp]
  00063	3b 08		 cmp	 ecx, DWORD PTR [eax]
  00065	75 0d		 jne	 SHORT $LN5@Lrotate

; 471  :             _Wherenode->_Parent->_Left = _Pnode;

  00067	8b 45 08	 mov	 eax, DWORD PTR __Wherenode$[ebp]
  0006a	8b 40 04	 mov	 eax, DWORD PTR [eax+4]
  0006d	8b 4d fc	 mov	 ecx, DWORD PTR __Pnode$[ebp]
  00070	89 08		 mov	 DWORD PTR [eax], ecx

; 472  :         } else {

  00072	eb 0c		 jmp	 SHORT $LN4@Lrotate
$LN5@Lrotate:

; 473  :             _Wherenode->_Parent->_Right = _Pnode;

  00074	8b 45 08	 mov	 eax, DWORD PTR __Wherenode$[ebp]
  00077	8b 40 04	 mov	 eax, DWORD PTR [eax+4]
  0007a	8b 4d fc	 mov	 ecx, DWORD PTR __Pnode$[ebp]
  0007d	89 48 08	 mov	 DWORD PTR [eax+8], ecx
$LN4@Lrotate:

; 474  :         }
; 475  : 
; 476  :         _Pnode->_Left       = _Wherenode;

  00080	8b 45 fc	 mov	 eax, DWORD PTR __Pnode$[ebp]
  00083	8b 4d 08	 mov	 ecx, DWORD PTR __Wherenode$[ebp]
  00086	89 08		 mov	 DWORD PTR [eax], ecx

; 477  :         _Wherenode->_Parent = _Pnode;

  00088	8b 45 08	 mov	 eax, DWORD PTR __Wherenode$[ebp]
  0008b	8b 4d fc	 mov	 ecx, DWORD PTR __Pnode$[ebp]
  0008e	89 48 04	 mov	 DWORD PTR [eax+4], ecx

; 478  :     }

  00091	c9		 leave
  00092	c2 04 00	 ret	 4
?_Lrotate@?$_Tree_val@U?$_Tree_simple_types@U?$pair@$$CBGPAUHFONT__@@@std@@@std@@@std@@QAEXPAU?$_Tree_node@U?$pair@$$CBGPAUHFONT__@@@std@@PAX@2@@Z ENDP ; std::_Tree_val<std::_Tree_simple_types<std::pair<unsigned short const ,HFONT__ *> > >::_Lrotate
_TEXT	ENDS
; Function compile flags: /Odspy
; File C:\Program Files (x86)\Microsoft Visual Studio\2019\Community\VC\Tools\MSVC\14.28.29333\include\xtree
; File C:\Program Files (x86)\Microsoft Visual Studio\2019\Community\VC\Tools\MSVC\14.28.29333\include\xstddef
; File C:\Program Files (x86)\Microsoft Visual Studio\2019\Community\VC\Tools\MSVC\14.28.29333\include\xtree
; File C:\Program Files (x86)\Microsoft Visual Studio\2019\Community\VC\Tools\MSVC\14.28.29333\include\xmemory
; File C:\Program Files (x86)\Microsoft Visual Studio\2019\Community\VC\Tools\MSVC\14.28.29333\include\xtree
;	COMDAT ?_Alloc_sentinel_and_proxy@?$_Tree@V?$_Tmap_traits@GPAUHFONT__@@U?$less@G@std@@V?$allocator@U?$pair@$$CBGPAUHFONT__@@@std@@@3@$0A@@std@@@std@@IAEXXZ
_TEXT	SEGMENT
__Alproxy$ = -28					; size = 4
__Scary$ = -24						; size = 4
$T1 = -20						; size = 4
$T2 = -16						; size = 4
$T3 = -12						; size = 4
_this$ = -8						; size = 4
_$S12$ = -1						; size = 1
?_Alloc_sentinel_and_proxy@?$_Tree@V?$_Tmap_traits@GPAUHFONT__@@U?$less@G@std@@V?$allocator@U?$pair@$$CBGPAUHFONT__@@@std@@@3@$0A@@std@@@std@@IAEXXZ PROC ; std::_Tree<std::_Tmap_traits<unsigned short,HFONT__ *,std::less<unsigned short>,std::allocator<std::pair<unsigned short const ,HFONT__ *> >,0> >::_Alloc_sentinel_and_proxy, COMDAT
; _this$ = ecx

; 2017 :     void _Alloc_sentinel_and_proxy() {

  00000	55		 push	 ebp
  00001	8b ec		 mov	 ebp, esp
  00003	83 ec 1c	 sub	 esp, 28			; 0000001cH
  00006	89 4d f8	 mov	 DWORD PTR _this$[ebp], ecx

; 2047 :         return _STD addressof(_Mypair._Myval2._Myval2);

  00009	8b 45 f8	 mov	 eax, DWORD PTR _this$[ebp]
; File C:\Program Files (x86)\Microsoft Visual Studio\2019\Community\VC\Tools\MSVC\14.28.29333\include\xstddef

; 275  :     return __builtin_addressof(_Val);

  0000c	89 45 f4	 mov	 DWORD PTR $T3[ebp], eax
; File C:\Program Files (x86)\Microsoft Visual Studio\2019\Community\VC\Tools\MSVC\14.28.29333\include\xtree

; 2047 :         return _STD addressof(_Mypair._Myval2._Myval2);

  0000f	8b 45 f4	 mov	 eax, DWORD PTR $T3[ebp]
  00012	89 45 e8	 mov	 DWORD PTR __Scary$[ebp], eax

; 2018 :         const auto _Scary = _Get_scary();
; 2019 :         auto&& _Alproxy   = _GET_PROXY_ALLOCATOR(_Alnode, _Getal());

  00015	8d 45 ff	 lea	 eax, DWORD PTR _$S12$[ebp]
  00018	89 45 e4	 mov	 DWORD PTR __Alproxy$[ebp], eax

; 2039 :         return _Mypair._Myval2._Get_first();

  0001b	8b 45 f8	 mov	 eax, DWORD PTR _this$[ebp]
; File C:\Program Files (x86)\Microsoft Visual Studio\2019\Community\VC\Tools\MSVC\14.28.29333\include\xmemory

; 1347 :         return *this;

  0001e	89 45 f0	 mov	 DWORD PTR $T2[ebp], eax
; File C:\Program Files (x86)\Microsoft Visual Studio\2019\Community\VC\Tools\MSVC\14.28.29333\include\xtree

; 2039 :         return _Mypair._Myval2._Get_first();

  00021	8b 45 f0	 mov	 eax, DWORD PTR $T2[ebp]
  00024	89 45 ec	 mov	 DWORD PTR $T1[ebp], eax

; 2020 :         _Container_proxy_ptr<_Alnode> _Proxy(_Alproxy, *_Scary);
; 2021 :         _Scary->_Myhead = _Node::_Buyheadnode(_Getal());

  00027	ff 75 ec	 push	 DWORD PTR $T1[ebp]
  0002a	e8 00 00 00 00	 call	 ??$_Buyheadnode@V?$allocator@U?$_Tree_node@U?$pair@$$CBGPAUHFONT__@@@std@@PAX@std@@@std@@@?$_Tree_node@U?$pair@$$CBGPAUHFONT__@@@std@@PAX@std@@SAPAU01@AAV?$allocator@U?$_Tree_node@U?$pair@$$CBGPAUHFONT__@@@std@@PAX@std@@@1@@Z ; std::_Tree_node<std::pair<unsigned short const ,HFONT__ *>,void *>::_Buyheadnode<std::allocator<std::_Tree_node<std::pair<unsigned short const ,HFONT__ *>,void *> > >
  0002f	59		 pop	 ecx
  00030	8b 4d e8	 mov	 ecx, DWORD PTR __Scary$[ebp]
  00033	89 01		 mov	 DWORD PTR [ecx], eax

; 2022 :         _Proxy._Release();
; 2023 :     }

  00035	c9		 leave
  00036	c3		 ret	 0
?_Alloc_sentinel_and_proxy@?$_Tree@V?$_Tmap_traits@GPAUHFONT__@@U?$less@G@std@@V?$allocator@U?$pair@$$CBGPAUHFONT__@@@std@@@3@$0A@@std@@@std@@IAEXXZ ENDP ; std::_Tree<std::_Tmap_traits<unsigned short,HFONT__ *,std::less<unsigned short>,std::allocator<std::pair<unsigned short const ,HFONT__ *> >,0> >::_Alloc_sentinel_and_proxy
_TEXT	ENDS
; Function compile flags: /Odspy
; File C:\Program Files (x86)\Microsoft Visual Studio\2019\Community\VC\Tools\MSVC\14.28.29333\include\xtree
; File C:\Program Files (x86)\Microsoft Visual Studio\2019\Community\VC\Tools\MSVC\14.28.29333\include\xstddef
; File C:\Program Files (x86)\Microsoft Visual Studio\2019\Community\VC\Tools\MSVC\14.28.29333\include\xtree
;	COMDAT ?_Check_grow_by_1@?$_Tree@V?$_Tmap_traits@GPAUHFONT__@@U?$less@G@std@@V?$allocator@U?$pair@$$CBGPAUHFONT__@@@std@@@3@$0A@@std@@@std@@IAEXXZ
_TEXT	SEGMENT
$T1 = -12						; size = 4
$T2 = -8						; size = 4
_this$ = -4						; size = 4
?_Check_grow_by_1@?$_Tree@V?$_Tmap_traits@GPAUHFONT__@@U?$less@G@std@@V?$allocator@U?$pair@$$CBGPAUHFONT__@@@std@@@3@$0A@@std@@@std@@IAEXXZ PROC ; std::_Tree<std::_Tmap_traits<unsigned short,HFONT__ *,std::less<unsigned short>,std::allocator<std::pair<unsigned short const ,HFONT__ *> >,0> >::_Check_grow_by_1, COMDAT
; _this$ = ecx

; 1718 :     void _Check_grow_by_1() {

  00000	55		 push	 ebp
  00001	8b ec		 mov	 ebp, esp
  00003	83 ec 0c	 sub	 esp, 12			; 0000000cH
  00006	89 4d fc	 mov	 DWORD PTR _this$[ebp], ecx

; 2047 :         return _STD addressof(_Mypair._Myval2._Myval2);

  00009	8b 45 fc	 mov	 eax, DWORD PTR _this$[ebp]
; File C:\Program Files (x86)\Microsoft Visual Studio\2019\Community\VC\Tools\MSVC\14.28.29333\include\xstddef

; 275  :     return __builtin_addressof(_Val);

  0000c	89 45 f8	 mov	 DWORD PTR $T2[ebp], eax
; File C:\Program Files (x86)\Microsoft Visual Studio\2019\Community\VC\Tools\MSVC\14.28.29333\include\xtree

; 2047 :         return _STD addressof(_Mypair._Myval2._Myval2);

  0000f	8b 45 f8	 mov	 eax, DWORD PTR $T2[ebp]
  00012	89 45 f4	 mov	 DWORD PTR $T1[ebp], eax

; 1719 :         if (max_size() == _Get_scary()->_Mysize) {

  00015	8b 4d fc	 mov	 ecx, DWORD PTR _this$[ebp]
  00018	e8 00 00 00 00	 call	 ?max_size@?$_Tree@V?$_Tmap_traits@GPAUHFONT__@@U?$less@G@std@@V?$allocator@U?$pair@$$CBGPAUHFONT__@@@std@@@3@$0A@@std@@@std@@QBEIXZ ; std::_Tree<std::_Tmap_traits<unsigned short,HFONT__ *,std::less<unsigned short>,std::allocator<std::pair<unsigned short const ,HFONT__ *> >,0> >::max_size
  0001d	8b 4d f4	 mov	 ecx, DWORD PTR $T1[ebp]
  00020	3b 41 04	 cmp	 eax, DWORD PTR [ecx+4]
  00023	75 05		 jne	 SHORT $LN3@Check_grow

; 1720 :             _Throw_tree_length_error();

  00025	e8 00 00 00 00	 call	 ?_Throw_tree_length_error@std@@YAXXZ ; std::_Throw_tree_length_error
$LN3@Check_grow:

; 1721 :         }
; 1722 :     }

  0002a	c9		 leave
  0002b	c3		 ret	 0
?_Check_grow_by_1@?$_Tree@V?$_Tmap_traits@GPAUHFONT__@@U?$less@G@std@@V?$allocator@U?$pair@$$CBGPAUHFONT__@@@std@@@3@$0A@@std@@@std@@IAEXXZ ENDP ; std::_Tree<std::_Tmap_traits<unsigned short,HFONT__ *,std::less<unsigned short>,std::allocator<std::pair<unsigned short const ,HFONT__ *> >,0> >::_Check_grow_by_1
_TEXT	ENDS
; Function compile flags: /Odspy
; File C:\Program Files (x86)\Microsoft Visual Studio\2019\Community\VC\Tools\MSVC\14.28.29333\include\xtree
; File C:\Program Files (x86)\Microsoft Visual Studio\2019\Community\VC\Tools\MSVC\14.28.29333\include\xstddef
; File C:\Program Files (x86)\Microsoft Visual Studio\2019\Community\VC\Tools\MSVC\14.28.29333\include\xtree
;	COMDAT ?find@?$_Tree@V?$_Tmap_traits@GPAUHFONT__@@U?$less@G@std@@V?$allocator@U?$pair@$$CBGPAUHFONT__@@@std@@@3@$0A@@std@@@std@@QAE?AV?$_Tree_iterator@V?$_Tree_val@U?$_Tree_simple_types@U?$pair@$$CBGPAUHFONT__@@@std@@@std@@@std@@@2@ABG@Z
_TEXT	SEGMENT
$T1 = -16						; size = 4
___param0$ = -12					; size = 4
$T2 = -8						; size = 4
_this$ = -4						; size = 4
___$ReturnUdt$ = 8					; size = 4
__Keyval$ = 12						; size = 4
?find@?$_Tree@V?$_Tmap_traits@GPAUHFONT__@@U?$less@G@std@@V?$allocator@U?$pair@$$CBGPAUHFONT__@@@std@@@3@$0A@@std@@@std@@QAE?AV?$_Tree_iterator@V?$_Tree_val@U?$_Tree_simple_types@U?$pair@$$CBGPAUHFONT__@@@std@@@std@@@std@@@2@ABG@Z PROC ; std::_Tree<std::_Tmap_traits<unsigned short,HFONT__ *,std::less<unsigned short>,std::allocator<std::pair<unsigned short const ,HFONT__ *> >,0> >::find, COMDAT
; _this$ = ecx

; 1467 :     _NODISCARD iterator find(const key_type& _Keyval) {

  00000	55		 push	 ebp
  00001	8b ec		 mov	 ebp, esp
  00003	83 ec 10	 sub	 esp, 16			; 00000010H
  00006	89 4d fc	 mov	 DWORD PTR _this$[ebp], ecx

; 2047 :         return _STD addressof(_Mypair._Myval2._Myval2);

  00009	8b 45 fc	 mov	 eax, DWORD PTR _this$[ebp]
; File C:\Program Files (x86)\Microsoft Visual Studio\2019\Community\VC\Tools\MSVC\14.28.29333\include\xstddef

; 275  :     return __builtin_addressof(_Val);

  0000c	89 45 f8	 mov	 DWORD PTR $T2[ebp], eax
; File C:\Program Files (x86)\Microsoft Visual Studio\2019\Community\VC\Tools\MSVC\14.28.29333\include\xtree

; 2047 :         return _STD addressof(_Mypair._Myval2._Myval2);

  0000f	8b 45 f8	 mov	 eax, DWORD PTR $T2[ebp]
  00012	89 45 f0	 mov	 DWORD PTR $T1[ebp], eax

; 1468 :         return iterator(_Find(_Keyval), _Get_scary());

  00015	ff 75 0c	 push	 DWORD PTR __Keyval$[ebp]
  00018	8b 4d fc	 mov	 ecx, DWORD PTR _this$[ebp]
  0001b	e8 00 00 00 00	 call	 ??$_Find@G@?$_Tree@V?$_Tmap_traits@GPAUHFONT__@@U?$less@G@std@@V?$allocator@U?$pair@$$CBGPAUHFONT__@@@std@@@3@$0A@@std@@@std@@ABEPAU?$_Tree_node@U?$pair@$$CBGPAUHFONT__@@@std@@PAX@1@ABG@Z ; std::_Tree<std::_Tmap_traits<unsigned short,HFONT__ *,std::less<unsigned short>,std::allocator<std::pair<unsigned short const ,HFONT__ *> >,0> >::_Find<unsigned short>
  00020	89 45 f4	 mov	 DWORD PTR ___param0$[ebp], eax

; 39   :     _Tree_unchecked_const_iterator(_Nodeptr _Pnode, const _Mytree* _Plist) noexcept : _Ptr(_Pnode) {

  00023	8b 45 08	 mov	 eax, DWORD PTR ___$ReturnUdt$[ebp]
  00026	8b 4d f4	 mov	 ecx, DWORD PTR ___param0$[ebp]
  00029	89 08		 mov	 DWORD PTR [eax], ecx

; 1468 :         return iterator(_Find(_Keyval), _Get_scary());

  0002b	8b 45 08	 mov	 eax, DWORD PTR ___$ReturnUdt$[ebp]

; 1469 :     }

  0002e	c9		 leave
  0002f	c2 08 00	 ret	 8
?find@?$_Tree@V?$_Tmap_traits@GPAUHFONT__@@U?$less@G@std@@V?$allocator@U?$pair@$$CBGPAUHFONT__@@@std@@@3@$0A@@std@@@std@@QAE?AV?$_Tree_iterator@V?$_Tree_val@U?$_Tree_simple_types@U?$pair@$$CBGPAUHFONT__@@@std@@@std@@@std@@@2@ABG@Z ENDP ; std::_Tree<std::_Tmap_traits<unsigned short,HFONT__ *,std::less<unsigned short>,std::allocator<std::pair<unsigned short const ,HFONT__ *> >,0> >::find
_TEXT	ENDS
; Function compile flags: /Odspy
; File C:\Program Files (x86)\Microsoft Visual Studio\2019\Community\VC\Tools\MSVC\14.28.29333\include\xtree
; File C:\Program Files (x86)\Microsoft Visual Studio\2019\Community\VC\Tools\MSVC\14.28.29333\include\xstddef
; File C:\Program Files (x86)\Microsoft Visual Studio\2019\Community\VC\Tools\MSVC\14.28.29333\include\xtree
; File C:\Program Files (x86)\Microsoft Visual Studio\2019\Community\VC\Tools\MSVC\14.28.29333\include\xmemory
; File C:\Program Files (x86)\Microsoft Visual Studio\2019\Community\VC\Tools\MSVC\14.28.29333\include\xtree
;	COMDAT ?clear@?$_Tree@V?$_Tmap_traits@GPAUHFONT__@@U?$less@G@std@@V?$allocator@U?$pair@$$CBGPAUHFONT__@@@std@@@3@$0A@@std@@@std@@QAEXXZ
_TEXT	SEGMENT
$T1 = -24						; size = 4
$T2 = -20						; size = 4
$T3 = -16						; size = 4
_this$ = -12						; size = 4
__Scary$ = -8						; size = 4
__Head$ = -4						; size = 4
?clear@?$_Tree@V?$_Tmap_traits@GPAUHFONT__@@U?$less@G@std@@V?$allocator@U?$pair@$$CBGPAUHFONT__@@@std@@@3@$0A@@std@@@std@@QAEXXZ PROC ; std::_Tree<std::_Tmap_traits<unsigned short,HFONT__ *,std::less<unsigned short>,std::allocator<std::pair<unsigned short const ,HFONT__ *> >,0> >::clear, COMDAT
; _this$ = ecx

; 1444 :     void clear() noexcept {

  00000	55		 push	 ebp
  00001	8b ec		 mov	 ebp, esp
  00003	83 ec 18	 sub	 esp, 24			; 00000018H
  00006	89 4d f4	 mov	 DWORD PTR _this$[ebp], ecx

; 2047 :         return _STD addressof(_Mypair._Myval2._Myval2);

  00009	8b 45 f4	 mov	 eax, DWORD PTR _this$[ebp]
; File C:\Program Files (x86)\Microsoft Visual Studio\2019\Community\VC\Tools\MSVC\14.28.29333\include\xstddef

; 275  :     return __builtin_addressof(_Val);

  0000c	89 45 f0	 mov	 DWORD PTR $T3[ebp], eax
; File C:\Program Files (x86)\Microsoft Visual Studio\2019\Community\VC\Tools\MSVC\14.28.29333\include\xtree

; 2047 :         return _STD addressof(_Mypair._Myval2._Myval2);

  0000f	8b 45 f0	 mov	 eax, DWORD PTR $T3[ebp]
  00012	89 45 f8	 mov	 DWORD PTR __Scary$[ebp], eax

; 1445 :         const auto _Scary = _Get_scary();
; 1446 :         _Scary->_Orphan_ptr(nullptr);
; 1447 :         auto _Head = _Scary->_Myhead;

  00015	8b 45 f8	 mov	 eax, DWORD PTR __Scary$[ebp]
  00018	8b 00		 mov	 eax, DWORD PTR [eax]
  0001a	89 45 fc	 mov	 DWORD PTR __Head$[ebp], eax

; 2039 :         return _Mypair._Myval2._Get_first();

  0001d	8b 45 f4	 mov	 eax, DWORD PTR _this$[ebp]
; File C:\Program Files (x86)\Microsoft Visual Studio\2019\Community\VC\Tools\MSVC\14.28.29333\include\xmemory

; 1347 :         return *this;

  00020	89 45 ec	 mov	 DWORD PTR $T2[ebp], eax
; File C:\Program Files (x86)\Microsoft Visual Studio\2019\Community\VC\Tools\MSVC\14.28.29333\include\xtree

; 2039 :         return _Mypair._Myval2._Get_first();

  00023	8b 45 ec	 mov	 eax, DWORD PTR $T2[ebp]
  00026	89 45 e8	 mov	 DWORD PTR $T1[ebp], eax

; 1448 :         _Scary->_Erase_tree(_Getal(), _Head->_Parent);

  00029	8b 45 fc	 mov	 eax, DWORD PTR __Head$[ebp]
  0002c	ff 70 04	 push	 DWORD PTR [eax+4]
  0002f	ff 75 e8	 push	 DWORD PTR $T1[ebp]
  00032	8b 4d f8	 mov	 ecx, DWORD PTR __Scary$[ebp]
  00035	e8 00 00 00 00	 call	 ??$_Erase_tree@V?$allocator@U?$_Tree_node@U?$pair@$$CBGPAUHFONT__@@@std@@PAX@std@@@std@@@?$_Tree_val@U?$_Tree_simple_types@U?$pair@$$CBGPAUHFONT__@@@std@@@std@@@std@@QAEXAAV?$allocator@U?$_Tree_node@U?$pair@$$CBGPAUHFONT__@@@std@@PAX@std@@@1@PAU?$_Tree_node@U?$pair@$$CBGPAUHFONT__@@@std@@PAX@1@@Z ; std::_Tree_val<std::_Tree_simple_types<std::pair<unsigned short const ,HFONT__ *> > >::_Erase_tree<std::allocator<std::_Tree_node<std::pair<unsigned short const ,HFONT__ *>,void *> > >

; 1449 :         _Head->_Parent  = _Head;

  0003a	8b 45 fc	 mov	 eax, DWORD PTR __Head$[ebp]
  0003d	8b 4d fc	 mov	 ecx, DWORD PTR __Head$[ebp]
  00040	89 48 04	 mov	 DWORD PTR [eax+4], ecx

; 1450 :         _Head->_Left    = _Head;

  00043	8b 45 fc	 mov	 eax, DWORD PTR __Head$[ebp]
  00046	8b 4d fc	 mov	 ecx, DWORD PTR __Head$[ebp]
  00049	89 08		 mov	 DWORD PTR [eax], ecx

; 1451 :         _Head->_Right   = _Head;

  0004b	8b 45 fc	 mov	 eax, DWORD PTR __Head$[ebp]
  0004e	8b 4d fc	 mov	 ecx, DWORD PTR __Head$[ebp]
  00051	89 48 08	 mov	 DWORD PTR [eax+8], ecx

; 1452 :         _Scary->_Mysize = 0;

  00054	8b 45 f8	 mov	 eax, DWORD PTR __Scary$[ebp]
  00057	83 60 04 00	 and	 DWORD PTR [eax+4], 0

; 1453 :     }

  0005b	c9		 leave
  0005c	c3		 ret	 0
?clear@?$_Tree@V?$_Tmap_traits@GPAUHFONT__@@U?$less@G@std@@V?$allocator@U?$pair@$$CBGPAUHFONT__@@@std@@@3@$0A@@std@@@std@@QAEXXZ ENDP ; std::_Tree<std::_Tmap_traits<unsigned short,HFONT__ *,std::less<unsigned short>,std::allocator<std::pair<unsigned short const ,HFONT__ *> >,0> >::clear
_TEXT	ENDS
; Function compile flags: /Odspy
; File C:\Program Files (x86)\Microsoft Visual Studio\2019\Community\VC\Tools\MSVC\14.28.29333\include\xtree
; File C:\Program Files (x86)\Microsoft Visual Studio\2019\Community\VC\Tools\MSVC\14.28.29333\include\xmemory
; File C:\Program Files (x86)\Microsoft Visual Studio\2019\Community\VC\Tools\MSVC\14.28.29333\include\xtree
; File C:\Program Files (x86)\Microsoft Visual Studio\2019\Community\VC\Tools\MSVC\14.28.29333\include\xmemory
; File C:\Program Files (x86)\Microsoft Visual Studio\2019\Community\VC\Tools\MSVC\14.28.29333\include\limits
; File C:\Program Files (x86)\Microsoft Visual Studio\2019\Community\VC\Tools\MSVC\14.28.29333\include\xtree
; File C:\Program Files (x86)\Microsoft Visual Studio\2019\Community\VC\Tools\MSVC\14.28.29333\include\utility
; File C:\Program Files (x86)\Microsoft Visual Studio\2019\Community\VC\Tools\MSVC\14.28.29333\include\xtree
;	COMDAT ?max_size@?$_Tree@V?$_Tmap_traits@GPAUHFONT__@@U?$less@G@std@@V?$allocator@U?$pair@$$CBGPAUHFONT__@@@std@@@3@$0A@@std@@@std@@QBEIXZ
_TEXT	SEGMENT
$T1 = -36						; size = 4
$T2 = -32						; size = 4
$T3 = -28						; size = 4
$T4 = -24						; size = 4
$T5 = -20						; size = 4
_this$ = -16						; size = 4
tv68 = -12						; size = 4
$T6 = -8						; size = 4
$T7 = -4						; size = 4
?max_size@?$_Tree@V?$_Tmap_traits@GPAUHFONT__@@U?$less@G@std@@V?$allocator@U?$pair@$$CBGPAUHFONT__@@@std@@@3@$0A@@std@@@std@@QBEIXZ PROC ; std::_Tree<std::_Tmap_traits<unsigned short,HFONT__ *,std::less<unsigned short>,std::allocator<std::pair<unsigned short const ,HFONT__ *> >,0> >::max_size, COMDAT
; _this$ = ecx

; 1310 :     _NODISCARD size_type max_size() const noexcept {

  00000	55		 push	 ebp
  00001	8b ec		 mov	 ebp, esp
  00003	83 ec 24	 sub	 esp, 36			; 00000024H
  00006	89 4d f0	 mov	 DWORD PTR _this$[ebp], ecx

; 2043 :         return _Mypair._Myval2._Get_first();

  00009	8b 45 f0	 mov	 eax, DWORD PTR _this$[ebp]
; File C:\Program Files (x86)\Microsoft Visual Studio\2019\Community\VC\Tools\MSVC\14.28.29333\include\xmemory

; 1351 :         return *this;

  0000c	89 45 ec	 mov	 DWORD PTR $T5[ebp], eax
; File C:\Program Files (x86)\Microsoft Visual Studio\2019\Community\VC\Tools\MSVC\14.28.29333\include\xtree

; 2043 :         return _Mypair._Myval2._Get_first();

  0000f	8b 45 ec	 mov	 eax, DWORD PTR $T5[ebp]
  00012	89 45 dc	 mov	 DWORD PTR $T1[ebp], eax
; File C:\Program Files (x86)\Microsoft Visual Studio\2019\Community\VC\Tools\MSVC\14.28.29333\include\xmemory

; 710  :         return static_cast<size_t>(-1) / sizeof(value_type);

  00015	c7 45 fc aa aa
	aa 0a		 mov	 DWORD PTR $T7[ebp], 178956970 ; 0aaaaaaaH
; File C:\Program Files (x86)\Microsoft Visual Studio\2019\Community\VC\Tools\MSVC\14.28.29333\include\limits

; 557  :         return INT_MAX;

  0001c	c7 45 e8 ff ff
	ff 7f		 mov	 DWORD PTR $T4[ebp], 2147483647 ; 7fffffffH
; File C:\Program Files (x86)\Microsoft Visual Studio\2019\Community\VC\Tools\MSVC\14.28.29333\include\xtree

; 1311 :         return (_STD min)(

  00023	8b 45 e8	 mov	 eax, DWORD PTR $T4[ebp]
  00026	89 45 f8	 mov	 DWORD PTR $T6[ebp], eax
; File C:\Program Files (x86)\Microsoft Visual Studio\2019\Community\VC\Tools\MSVC\14.28.29333\include\utility

; 68   :     return _Right < _Left ? _Right : _Left;

  00029	8b 45 fc	 mov	 eax, DWORD PTR $T7[ebp]
  0002c	3b 45 f8	 cmp	 eax, DWORD PTR $T6[ebp]
  0002f	73 08		 jae	 SHORT $LN17@max_size
  00031	8d 45 fc	 lea	 eax, DWORD PTR $T7[ebp]
  00034	89 45 f4	 mov	 DWORD PTR tv68[ebp], eax
  00037	eb 06		 jmp	 SHORT $LN18@max_size
$LN17@max_size:
  00039	8d 45 f8	 lea	 eax, DWORD PTR $T6[ebp]
  0003c	89 45 f4	 mov	 DWORD PTR tv68[ebp], eax
$LN18@max_size:
  0003f	8b 45 f4	 mov	 eax, DWORD PTR tv68[ebp]
  00042	89 45 e4	 mov	 DWORD PTR $T3[ebp], eax
  00045	8b 45 e4	 mov	 eax, DWORD PTR $T3[ebp]
  00048	89 45 e0	 mov	 DWORD PTR $T2[ebp], eax
; File C:\Program Files (x86)\Microsoft Visual Studio\2019\Community\VC\Tools\MSVC\14.28.29333\include\xtree

; 1311 :         return (_STD min)(

  0004b	8b 45 e0	 mov	 eax, DWORD PTR $T2[ebp]
  0004e	8b 00		 mov	 eax, DWORD PTR [eax]

; 1312 :             static_cast<size_type>((numeric_limits<difference_type>::max)()), _Alnode_traits::max_size(_Getal()));
; 1313 :     }

  00050	c9		 leave
  00051	c3		 ret	 0
?max_size@?$_Tree@V?$_Tmap_traits@GPAUHFONT__@@U?$less@G@std@@V?$allocator@U?$pair@$$CBGPAUHFONT__@@@std@@@3@$0A@@std@@@std@@QBEIXZ ENDP ; std::_Tree<std::_Tmap_traits<unsigned short,HFONT__ *,std::less<unsigned short>,std::allocator<std::pair<unsigned short const ,HFONT__ *> >,0> >::max_size
_TEXT	ENDS
; Function compile flags: /Odspy
; File C:\Program Files (x86)\Microsoft Visual Studio\2019\Community\VC\Tools\MSVC\14.28.29333\include\xtree
; File C:\Program Files (x86)\Microsoft Visual Studio\2019\Community\VC\Tools\MSVC\14.28.29333\include\xstddef
; File C:\Program Files (x86)\Microsoft Visual Studio\2019\Community\VC\Tools\MSVC\14.28.29333\include\xtree
; File C:\Program Files (x86)\Microsoft Visual Studio\2019\Community\VC\Tools\MSVC\14.28.29333\include\xmemory
; File C:\Program Files (x86)\Microsoft Visual Studio\2019\Community\VC\Tools\MSVC\14.28.29333\include\xtree
;	COMDAT ??1?$_Tree@V?$_Tmap_traits@GPAUHFONT__@@U?$less@G@std@@V?$allocator@U?$pair@$$CBGPAUHFONT__@@@std@@@3@$0A@@std@@@std@@QAE@XZ
_TEXT	SEGMENT
$T1 = -20						; size = 4
$T2 = -16						; size = 4
$T3 = -12						; size = 4
_this$ = -8						; size = 4
__Scary$ = -4						; size = 4
??1?$_Tree@V?$_Tmap_traits@GPAUHFONT__@@U?$less@G@std@@V?$allocator@U?$pair@$$CBGPAUHFONT__@@@std@@@3@$0A@@std@@@std@@QAE@XZ PROC ; std::_Tree<std::_Tmap_traits<unsigned short,HFONT__ *,std::less<unsigned short>,std::allocator<std::pair<unsigned short const ,HFONT__ *> >,0> >::~_Tree<std::_Tmap_traits<unsigned short,HFONT__ *,std::less<unsigned short>,std::allocator<std::pair<unsigned short const ,HFONT__ *> >,0> >, COMDAT
; _this$ = ecx

; 1189 :     ~_Tree() noexcept {

  00000	55		 push	 ebp
  00001	8b ec		 mov	 ebp, esp
  00003	83 ec 14	 sub	 esp, 20			; 00000014H
  00006	89 4d f8	 mov	 DWORD PTR _this$[ebp], ecx

; 2047 :         return _STD addressof(_Mypair._Myval2._Myval2);

  00009	8b 45 f8	 mov	 eax, DWORD PTR _this$[ebp]
; File C:\Program Files (x86)\Microsoft Visual Studio\2019\Community\VC\Tools\MSVC\14.28.29333\include\xstddef

; 275  :     return __builtin_addressof(_Val);

  0000c	89 45 f0	 mov	 DWORD PTR $T2[ebp], eax
; File C:\Program Files (x86)\Microsoft Visual Studio\2019\Community\VC\Tools\MSVC\14.28.29333\include\xtree

; 2047 :         return _STD addressof(_Mypair._Myval2._Myval2);

  0000f	8b 45 f0	 mov	 eax, DWORD PTR $T2[ebp]
  00012	89 45 fc	 mov	 DWORD PTR __Scary$[ebp], eax

; 2039 :         return _Mypair._Myval2._Get_first();

  00015	8b 45 f8	 mov	 eax, DWORD PTR _this$[ebp]
; File C:\Program Files (x86)\Microsoft Visual Studio\2019\Community\VC\Tools\MSVC\14.28.29333\include\xmemory

; 1347 :         return *this;

  00018	89 45 ec	 mov	 DWORD PTR $T1[ebp], eax
; File C:\Program Files (x86)\Microsoft Visual Studio\2019\Community\VC\Tools\MSVC\14.28.29333\include\xtree

; 2039 :         return _Mypair._Myval2._Get_first();

  0001b	8b 45 ec	 mov	 eax, DWORD PTR $T1[ebp]
  0001e	89 45 f4	 mov	 DWORD PTR $T3[ebp], eax

; 752  :         _Erase_tree(_Al, _Myhead->_Parent);

  00021	8b 45 fc	 mov	 eax, DWORD PTR __Scary$[ebp]
  00024	8b 00		 mov	 eax, DWORD PTR [eax]
  00026	ff 70 04	 push	 DWORD PTR [eax+4]
  00029	ff 75 f4	 push	 DWORD PTR $T3[ebp]
  0002c	8b 4d fc	 mov	 ecx, DWORD PTR __Scary$[ebp]
  0002f	e8 00 00 00 00	 call	 ??$_Erase_tree@V?$allocator@U?$_Tree_node@U?$pair@$$CBGPAUHFONT__@@@std@@PAX@std@@@std@@@?$_Tree_val@U?$_Tree_simple_types@U?$pair@$$CBGPAUHFONT__@@@std@@@std@@@std@@QAEXAAV?$allocator@U?$_Tree_node@U?$pair@$$CBGPAUHFONT__@@@std@@PAX@std@@@1@PAU?$_Tree_node@U?$pair@$$CBGPAUHFONT__@@@std@@PAX@1@@Z ; std::_Tree_val<std::_Tree_simple_types<std::pair<unsigned short const ,HFONT__ *> > >::_Erase_tree<std::allocator<std::_Tree_node<std::pair<unsigned short const ,HFONT__ *>,void *> > >

; 753  :         _Alnode::value_type::_Freenode0(_Al, _Myhead);

  00034	8b 45 fc	 mov	 eax, DWORD PTR __Scary$[ebp]
  00037	ff 30		 push	 DWORD PTR [eax]
  00039	ff 75 f4	 push	 DWORD PTR $T3[ebp]
  0003c	e8 00 00 00 00	 call	 ??$_Freenode0@V?$allocator@U?$_Tree_node@U?$pair@$$CBGPAUHFONT__@@@std@@PAX@std@@@std@@@?$_Tree_node@U?$pair@$$CBGPAUHFONT__@@@std@@PAX@std@@SAXAAV?$allocator@U?$_Tree_node@U?$pair@$$CBGPAUHFONT__@@@std@@PAX@std@@@1@PAU01@@Z ; std::_Tree_node<std::pair<unsigned short const ,HFONT__ *>,void *>::_Freenode0<std::allocator<std::_Tree_node<std::pair<unsigned short const ,HFONT__ *>,void *> > >
  00041	59		 pop	 ecx
  00042	59		 pop	 ecx

; 1190 :         const auto _Scary = _Get_scary();
; 1191 :         _Scary->_Erase_head(_Getal());
; 1192 : #if _ITERATOR_DEBUG_LEVEL != 0 // TRANSITION, ABI
; 1193 :         auto&& _Alproxy = _GET_PROXY_ALLOCATOR(_Alnode, _Getal());
; 1194 :         _Delete_plain_internal(_Alproxy, _Scary->_Myproxy);
; 1195 : #endif // _ITERATOR_DEBUG_LEVEL != 0
; 1196 :     }

  00043	c9		 leave
  00044	c3		 ret	 0
??1?$_Tree@V?$_Tmap_traits@GPAUHFONT__@@U?$less@G@std@@V?$allocator@U?$pair@$$CBGPAUHFONT__@@@std@@@3@$0A@@std@@@std@@QAE@XZ ENDP ; std::_Tree<std::_Tmap_traits<unsigned short,HFONT__ *,std::less<unsigned short>,std::allocator<std::pair<unsigned short const ,HFONT__ *> >,0> >::~_Tree<std::_Tmap_traits<unsigned short,HFONT__ *,std::less<unsigned short>,std::allocator<std::pair<unsigned short const ,HFONT__ *> >,0> >
_TEXT	ENDS
; Function compile flags: /Odspy
; File C:\Program Files (x86)\Microsoft Visual Studio\2019\Community\VC\Tools\MSVC\14.28.29333\include\xtree
; File C:\Program Files (x86)\Microsoft Visual Studio\2019\Community\VC\Tools\MSVC\14.28.29333\include\type_traits
; File C:\Program Files (x86)\Microsoft Visual Studio\2019\Community\VC\Tools\MSVC\14.28.29333\include\xmemory
; File C:\Program Files (x86)\Microsoft Visual Studio\2019\Community\VC\Tools\MSVC\14.28.29333\include\xtree
;	COMDAT ??0?$_Tree@V?$_Tmap_traits@GPAUHFONT__@@U?$less@G@std@@V?$allocator@U?$pair@$$CBGPAUHFONT__@@@std@@@3@$0A@@std@@@std@@QAE@ABU?$less@G@1@@Z
_TEXT	SEGMENT
_this$ = -28						; size = 4
_this$ = -24						; size = 4
$T1 = -20						; size = 4
_this$2 = -16						; size = 4
_this$ = -12						; size = 4
___formal$ = -8						; size = 1
$T3 = -1						; size = 1
__Parg$ = 8						; size = 4
??0?$_Tree@V?$_Tmap_traits@GPAUHFONT__@@U?$less@G@std@@V?$allocator@U?$pair@$$CBGPAUHFONT__@@@std@@@3@$0A@@std@@@std@@QAE@ABU?$less@G@1@@Z PROC ; std::_Tree<std::_Tmap_traits<unsigned short,HFONT__ *,std::less<unsigned short>,std::allocator<std::pair<unsigned short const ,HFONT__ *> >,0> >::_Tree<std::_Tmap_traits<unsigned short,HFONT__ *,std::less<unsigned short>,std::allocator<std::pair<unsigned short const ,HFONT__ *> >,0> >, COMDAT
; _this$ = ecx

; 885  :     _Tree(const key_compare& _Parg) : _Mypair(_One_then_variadic_args_t{}, _Parg, _Zero_then_variadic_args_t{}) {

  00000	55		 push	 ebp
  00001	8b ec		 mov	 ebp, esp
  00003	83 ec 1c	 sub	 esp, 28			; 0000001cH
  00006	89 4d f4	 mov	 DWORD PTR _this$[ebp], ecx
  00009	8b 45 f4	 mov	 eax, DWORD PTR _this$[ebp]
  0000c	89 45 e8	 mov	 DWORD PTR _this$[ebp], eax
; File C:\Program Files (x86)\Microsoft Visual Studio\2019\Community\VC\Tools\MSVC\14.28.29333\include\type_traits

; 1443 :     return static_cast<_Ty&&>(_Arg);

  0000f	8d 45 ff	 lea	 eax, DWORD PTR $T3[ebp]
  00012	89 45 ec	 mov	 DWORD PTR $T1[ebp], eax
; File C:\Program Files (x86)\Microsoft Visual Studio\2019\Community\VC\Tools\MSVC\14.28.29333\include\xmemory

; 1344 :         : _Ty1(_STD forward<_Other1>(_Val1)), _Myval2(_STD forward<_Other2>(_Val2)...) {}

  00015	8b 45 ec	 mov	 eax, DWORD PTR $T1[ebp]
  00018	8a 00		 mov	 al, BYTE PTR [eax]
  0001a	88 45 f8	 mov	 BYTE PTR ___formal$[ebp], al
  0001d	8b 45 e8	 mov	 eax, DWORD PTR _this$[ebp]
  00020	89 45 e4	 mov	 DWORD PTR _this$[ebp], eax

; 1339 :         : _Ty1(), _Myval2(_STD forward<_Other2>(_Val2)...) {}

  00023	8b 45 e4	 mov	 eax, DWORD PTR _this$[ebp]
  00026	89 45 f0	 mov	 DWORD PTR _this$2[ebp], eax
; File C:\Program Files (x86)\Microsoft Visual Studio\2019\Community\VC\Tools\MSVC\14.28.29333\include\xtree

; 435  :     _Tree_val() noexcept : _Myhead(), _Mysize(0) {}

  00029	8b 45 f0	 mov	 eax, DWORD PTR _this$2[ebp]
  0002c	83 20 00	 and	 DWORD PTR [eax], 0
  0002f	8b 45 f0	 mov	 eax, DWORD PTR _this$2[ebp]
  00032	83 60 04 00	 and	 DWORD PTR [eax+4], 0

; 886  :         _Alloc_sentinel_and_proxy();

  00036	8b 4d f4	 mov	 ecx, DWORD PTR _this$[ebp]
  00039	e8 00 00 00 00	 call	 ?_Alloc_sentinel_and_proxy@?$_Tree@V?$_Tmap_traits@GPAUHFONT__@@U?$less@G@std@@V?$allocator@U?$pair@$$CBGPAUHFONT__@@@std@@@3@$0A@@std@@@std@@IAEXXZ ; std::_Tree<std::_Tmap_traits<unsigned short,HFONT__ *,std::less<unsigned short>,std::allocator<std::pair<unsigned short const ,HFONT__ *> >,0> >::_Alloc_sentinel_and_proxy

; 887  :     }

  0003e	8b 45 f4	 mov	 eax, DWORD PTR _this$[ebp]
  00041	c9		 leave
  00042	c2 04 00	 ret	 4
??0?$_Tree@V?$_Tmap_traits@GPAUHFONT__@@U?$less@G@std@@V?$allocator@U?$pair@$$CBGPAUHFONT__@@@std@@@3@$0A@@std@@@std@@QAE@ABU?$less@G@1@@Z ENDP ; std::_Tree<std::_Tmap_traits<unsigned short,HFONT__ *,std::less<unsigned short>,std::allocator<std::pair<unsigned short const ,HFONT__ *> >,0> >::_Tree<std::_Tmap_traits<unsigned short,HFONT__ *,std::less<unsigned short>,std::allocator<std::pair<unsigned short const ,HFONT__ *> >,0> >
_TEXT	ENDS
; Function compile flags: /Odspy
;	COMDAT ??1?$map@U?$pair@G_W@std@@USCharacterInfomation@CGraphicFontTexture@@U?$less@U?$pair@G_W@std@@@2@V?$allocator@U?$pair@$$CBU?$pair@G_W@std@@USCharacterInfomation@CGraphicFontTexture@@@std@@@2@@std@@QAE@XZ
_TEXT	SEGMENT
_this$ = -4						; size = 4
??1?$map@U?$pair@G_W@std@@USCharacterInfomation@CGraphicFontTexture@@U?$less@U?$pair@G_W@std@@@2@V?$allocator@U?$pair@$$CBU?$pair@G_W@std@@USCharacterInfomation@CGraphicFontTexture@@@std@@@2@@std@@QAE@XZ PROC ; std::map<std::pair<unsigned short,wchar_t>,CGraphicFontTexture::SCharacterInfomation,std::less<std::pair<unsigned short,wchar_t> >,std::allocator<std::pair<std::pair<unsigned short,wchar_t> const ,CGraphicFontTexture::SCharacterInfomation> > >::~map<std::pair<unsigned short,wchar_t>,CGraphicFontTexture::SCharacterInfomation,std::less<std::pair<unsigned short,wchar_t> >,std::allocator<std::pair<std::pair<unsigned short,wchar_t> const ,CGraphicFontTexture::SCharacterInfomation> > >, COMDAT
; _this$ = ecx
  00000	55		 push	 ebp
  00001	8b ec		 mov	 ebp, esp
  00003	51		 push	 ecx
  00004	89 4d fc	 mov	 DWORD PTR _this$[ebp], ecx
  00007	8b 4d fc	 mov	 ecx, DWORD PTR _this$[ebp]
  0000a	e8 00 00 00 00	 call	 ??1?$_Tree@V?$_Tmap_traits@U?$pair@G_W@std@@USCharacterInfomation@CGraphicFontTexture@@U?$less@U?$pair@G_W@std@@@2@V?$allocator@U?$pair@$$CBU?$pair@G_W@std@@USCharacterInfomation@CGraphicFontTexture@@@std@@@2@$0A@@std@@@std@@QAE@XZ ; std::_Tree<std::_Tmap_traits<std::pair<unsigned short,wchar_t>,CGraphicFontTexture::SCharacterInfomation,std::less<std::pair<unsigned short,wchar_t> >,std::allocator<std::pair<std::pair<unsigned short,wchar_t> const ,CGraphicFontTexture::SCharacterInfomation> >,0> >::~_Tree<std::_Tmap_traits<std::pair<unsigned short,wchar_t>,CGraphicFontTexture::SCharacterInfomation,std::less<std::pair<unsigned short,wchar_t> >,std::allocator<std::pair<std::pair<unsigned short,wchar_t> const ,CGraphicFontTexture::SCharacterInfomation> >,0> >
  0000f	c9		 leave
  00010	c3		 ret	 0
??1?$map@U?$pair@G_W@std@@USCharacterInfomation@CGraphicFontTexture@@U?$less@U?$pair@G_W@std@@@2@V?$allocator@U?$pair@$$CBU?$pair@G_W@std@@USCharacterInfomation@CGraphicFontTexture@@@std@@@2@@std@@QAE@XZ ENDP ; std::map<std::pair<unsigned short,wchar_t>,CGraphicFontTexture::SCharacterInfomation,std::less<std::pair<unsigned short,wchar_t> >,std::allocator<std::pair<std::pair<unsigned short,wchar_t> const ,CGraphicFontTexture::SCharacterInfomation> > >::~map<std::pair<unsigned short,wchar_t>,CGraphicFontTexture::SCharacterInfomation,std::less<std::pair<unsigned short,wchar_t> >,std::allocator<std::pair<std::pair<unsigned short,wchar_t> const ,CGraphicFontTexture::SCharacterInfomation> > >
_TEXT	ENDS
; Function compile flags: /Odspy
; File C:\Program Files (x86)\Microsoft Visual Studio\2019\Community\VC\Tools\MSVC\14.28.29333\include\xtree
;	COMDAT ?_Insert_node@?$_Tree_val@U?$_Tree_simple_types@U?$pair@$$CBU?$pair@G_W@std@@USCharacterInfomation@CGraphicFontTexture@@@std@@@std@@@std@@QAEPAU?$_Tree_node@U?$pair@$$CBU?$pair@G_W@std@@USCharacterInfomation@CGraphicFontTexture@@@std@@PAX@2@U?$_Tree_id@PAU?$_Tree_node@U?$pair@$$CBU?$pair@G_W@std@@USCharacterInfomation@CGraphicFontTexture@@@std@@PAX@std@@@2@QAU32@@Z
_TEXT	SEGMENT
__Parent_sibling$1 = -20				; size = 4
__Parent_sibling$2 = -16				; size = 4
_this$ = -12						; size = 4
__Head$ = -8						; size = 4
__Pnode$3 = -4						; size = 4
__Loc$ = 8						; size = 8
__Newnode$ = 16						; size = 4
?_Insert_node@?$_Tree_val@U?$_Tree_simple_types@U?$pair@$$CBU?$pair@G_W@std@@USCharacterInfomation@CGraphicFontTexture@@@std@@@std@@@std@@QAEPAU?$_Tree_node@U?$pair@$$CBU?$pair@G_W@std@@USCharacterInfomation@CGraphicFontTexture@@@std@@PAX@2@U?$_Tree_id@PAU?$_Tree_node@U?$pair@$$CBU?$pair@G_W@std@@USCharacterInfomation@CGraphicFontTexture@@@std@@PAX@std@@@2@QAU32@@Z PROC ; std::_Tree_val<std::_Tree_simple_types<std::pair<std::pair<unsigned short,wchar_t> const ,CGraphicFontTexture::SCharacterInfomation> > >::_Insert_node, COMDAT
; _this$ = ecx

; 644  :     _Nodeptr _Insert_node(const _Tree_id<_Nodeptr> _Loc, const _Nodeptr _Newnode) noexcept {

  00000	55		 push	 ebp
  00001	8b ec		 mov	 ebp, esp
  00003	83 ec 14	 sub	 esp, 20			; 00000014H
  00006	89 4d f4	 mov	 DWORD PTR _this$[ebp], ecx

; 645  :         ++_Mysize;

  00009	8b 45 f4	 mov	 eax, DWORD PTR _this$[ebp]
  0000c	8b 40 04	 mov	 eax, DWORD PTR [eax+4]
  0000f	40		 inc	 eax
  00010	8b 4d f4	 mov	 ecx, DWORD PTR _this$[ebp]
  00013	89 41 04	 mov	 DWORD PTR [ecx+4], eax

; 646  :         const auto _Head  = _Myhead;

  00016	8b 45 f4	 mov	 eax, DWORD PTR _this$[ebp]
  00019	8b 00		 mov	 eax, DWORD PTR [eax]
  0001b	89 45 f8	 mov	 DWORD PTR __Head$[ebp], eax

; 647  :         _Newnode->_Parent = _Loc._Parent;

  0001e	8b 45 10	 mov	 eax, DWORD PTR __Newnode$[ebp]
  00021	8b 4d 08	 mov	 ecx, DWORD PTR __Loc$[ebp]
  00024	89 48 04	 mov	 DWORD PTR [eax+4], ecx

; 648  :         if (_Loc._Parent == _Head) { // first node in tree, just set head values

  00027	8b 45 08	 mov	 eax, DWORD PTR __Loc$[ebp]
  0002a	3b 45 f8	 cmp	 eax, DWORD PTR __Head$[ebp]
  0002d	75 29		 jne	 SHORT $LN5@Insert_nod

; 649  :             _Head->_Left     = _Newnode;

  0002f	8b 45 f8	 mov	 eax, DWORD PTR __Head$[ebp]
  00032	8b 4d 10	 mov	 ecx, DWORD PTR __Newnode$[ebp]
  00035	89 08		 mov	 DWORD PTR [eax], ecx

; 650  :             _Head->_Parent   = _Newnode;

  00037	8b 45 f8	 mov	 eax, DWORD PTR __Head$[ebp]
  0003a	8b 4d 10	 mov	 ecx, DWORD PTR __Newnode$[ebp]
  0003d	89 48 04	 mov	 DWORD PTR [eax+4], ecx

; 651  :             _Head->_Right    = _Newnode;

  00040	8b 45 f8	 mov	 eax, DWORD PTR __Head$[ebp]
  00043	8b 4d 10	 mov	 ecx, DWORD PTR __Newnode$[ebp]
  00046	89 48 08	 mov	 DWORD PTR [eax+8], ecx

; 652  :             _Newnode->_Color = _Black; // the root is black

  00049	8b 45 10	 mov	 eax, DWORD PTR __Newnode$[ebp]
  0004c	c6 40 0c 01	 mov	 BYTE PTR [eax+12], 1

; 653  :             return _Newnode;

  00050	8b 45 10	 mov	 eax, DWORD PTR __Newnode$[ebp]
  00053	e9 a3 01 00 00	 jmp	 $LN18@Insert_nod
$LN5@Insert_nod:

; 654  :         }
; 655  : 
; 656  :         _STL_INTERNAL_CHECK(_Loc._Child != _Tree_child::_Unused);
; 657  :         if (_Loc._Child == _Tree_child::_Right) { // add to right of _Loc._Parent

  00058	83 7d 0c 00	 cmp	 DWORD PTR __Loc$[ebp+4], 0
  0005c	75 1f		 jne	 SHORT $LN6@Insert_nod

; 658  :             _STL_INTERNAL_CHECK(_Loc._Parent->_Right->_Isnil);
; 659  :             _Loc._Parent->_Right = _Newnode;

  0005e	8b 45 08	 mov	 eax, DWORD PTR __Loc$[ebp]
  00061	8b 4d 10	 mov	 ecx, DWORD PTR __Newnode$[ebp]
  00064	89 48 08	 mov	 DWORD PTR [eax+8], ecx

; 660  :             if (_Loc._Parent == _Head->_Right) { // remember rightmost node

  00067	8b 45 f8	 mov	 eax, DWORD PTR __Head$[ebp]
  0006a	8b 4d 08	 mov	 ecx, DWORD PTR __Loc$[ebp]
  0006d	3b 48 08	 cmp	 ecx, DWORD PTR [eax+8]
  00070	75 09		 jne	 SHORT $LN8@Insert_nod

; 661  :                 _Head->_Right = _Newnode;

  00072	8b 45 f8	 mov	 eax, DWORD PTR __Head$[ebp]
  00075	8b 4d 10	 mov	 ecx, DWORD PTR __Newnode$[ebp]
  00078	89 48 08	 mov	 DWORD PTR [eax+8], ecx
$LN8@Insert_nod:

; 662  :             }
; 663  :         } else { // add to left of _Loc._Parent

  0007b	eb 1a		 jmp	 SHORT $LN7@Insert_nod
$LN6@Insert_nod:

; 664  :             _STL_INTERNAL_CHECK(_Loc._Parent->_Left->_Isnil);
; 665  :             _Loc._Parent->_Left = _Newnode;

  0007d	8b 45 08	 mov	 eax, DWORD PTR __Loc$[ebp]
  00080	8b 4d 10	 mov	 ecx, DWORD PTR __Newnode$[ebp]
  00083	89 08		 mov	 DWORD PTR [eax], ecx

; 666  :             if (_Loc._Parent == _Head->_Left) { // remember leftmost node

  00085	8b 45 f8	 mov	 eax, DWORD PTR __Head$[ebp]
  00088	8b 4d 08	 mov	 ecx, DWORD PTR __Loc$[ebp]
  0008b	3b 08		 cmp	 ecx, DWORD PTR [eax]
  0008d	75 08		 jne	 SHORT $LN7@Insert_nod

; 667  :                 _Head->_Left = _Newnode;

  0008f	8b 45 f8	 mov	 eax, DWORD PTR __Head$[ebp]
  00092	8b 4d 10	 mov	 ecx, DWORD PTR __Newnode$[ebp]
  00095	89 08		 mov	 DWORD PTR [eax], ecx
$LN7@Insert_nod:

; 668  :             }
; 669  :         }
; 670  : 
; 671  :         for (_Nodeptr _Pnode = _Newnode; _Pnode->_Parent->_Color == _Red;) {

  00097	8b 45 10	 mov	 eax, DWORD PTR __Newnode$[ebp]
  0009a	89 45 fc	 mov	 DWORD PTR __Pnode$3[ebp], eax
$LN4@Insert_nod:
  0009d	8b 45 fc	 mov	 eax, DWORD PTR __Pnode$3[ebp]
  000a0	8b 40 04	 mov	 eax, DWORD PTR [eax+4]
  000a3	0f be 40 0c	 movsx	 eax, BYTE PTR [eax+12]
  000a7	85 c0		 test	 eax, eax
  000a9	0f 85 3f 01 00
	00		 jne	 $LN3@Insert_nod

; 672  :             if (_Pnode->_Parent == _Pnode->_Parent->_Parent->_Left) { // fixup red-red in left subtree

  000af	8b 45 fc	 mov	 eax, DWORD PTR __Pnode$3[ebp]
  000b2	8b 40 04	 mov	 eax, DWORD PTR [eax+4]
  000b5	8b 40 04	 mov	 eax, DWORD PTR [eax+4]
  000b8	8b 4d fc	 mov	 ecx, DWORD PTR __Pnode$3[ebp]
  000bb	8b 49 04	 mov	 ecx, DWORD PTR [ecx+4]
  000be	3b 08		 cmp	 ecx, DWORD PTR [eax]
  000c0	0f 85 95 00 00
	00		 jne	 $LN10@Insert_nod

; 673  :                 const auto _Parent_sibling = _Pnode->_Parent->_Parent->_Right;

  000c6	8b 45 fc	 mov	 eax, DWORD PTR __Pnode$3[ebp]
  000c9	8b 40 04	 mov	 eax, DWORD PTR [eax+4]
  000cc	8b 40 04	 mov	 eax, DWORD PTR [eax+4]
  000cf	8b 40 08	 mov	 eax, DWORD PTR [eax+8]
  000d2	89 45 f0	 mov	 DWORD PTR __Parent_sibling$2[ebp], eax

; 674  :                 if (_Parent_sibling->_Color == _Red) { // parent's sibling has two red children, blacken both

  000d5	8b 45 f0	 mov	 eax, DWORD PTR __Parent_sibling$2[ebp]
  000d8	0f be 40 0c	 movsx	 eax, BYTE PTR [eax+12]
  000dc	85 c0		 test	 eax, eax
  000de	75 2c		 jne	 SHORT $LN12@Insert_nod

; 675  :                     _Pnode->_Parent->_Color          = _Black;

  000e0	8b 45 fc	 mov	 eax, DWORD PTR __Pnode$3[ebp]
  000e3	8b 40 04	 mov	 eax, DWORD PTR [eax+4]
  000e6	c6 40 0c 01	 mov	 BYTE PTR [eax+12], 1

; 676  :                     _Parent_sibling->_Color          = _Black;

  000ea	8b 45 f0	 mov	 eax, DWORD PTR __Parent_sibling$2[ebp]
  000ed	c6 40 0c 01	 mov	 BYTE PTR [eax+12], 1

; 677  :                     _Pnode->_Parent->_Parent->_Color = _Red;

  000f1	8b 45 fc	 mov	 eax, DWORD PTR __Pnode$3[ebp]
  000f4	8b 40 04	 mov	 eax, DWORD PTR [eax+4]
  000f7	8b 40 04	 mov	 eax, DWORD PTR [eax+4]
  000fa	c6 40 0c 00	 mov	 BYTE PTR [eax+12], 0

; 678  :                     _Pnode                           = _Pnode->_Parent->_Parent;

  000fe	8b 45 fc	 mov	 eax, DWORD PTR __Pnode$3[ebp]
  00101	8b 40 04	 mov	 eax, DWORD PTR [eax+4]
  00104	8b 40 04	 mov	 eax, DWORD PTR [eax+4]
  00107	89 45 fc	 mov	 DWORD PTR __Pnode$3[ebp], eax

; 679  :                 } else { // parent's sibling has red and black children

  0010a	eb 4a		 jmp	 SHORT $LN13@Insert_nod
$LN12@Insert_nod:

; 680  :                     if (_Pnode == _Pnode->_Parent->_Right) { // rotate right child to left

  0010c	8b 45 fc	 mov	 eax, DWORD PTR __Pnode$3[ebp]
  0010f	8b 40 04	 mov	 eax, DWORD PTR [eax+4]
  00112	8b 4d fc	 mov	 ecx, DWORD PTR __Pnode$3[ebp]
  00115	3b 48 08	 cmp	 ecx, DWORD PTR [eax+8]
  00118	75 14		 jne	 SHORT $LN14@Insert_nod

; 681  :                         _Pnode = _Pnode->_Parent;

  0011a	8b 45 fc	 mov	 eax, DWORD PTR __Pnode$3[ebp]
  0011d	8b 40 04	 mov	 eax, DWORD PTR [eax+4]
  00120	89 45 fc	 mov	 DWORD PTR __Pnode$3[ebp], eax

; 682  :                         _Lrotate(_Pnode);

  00123	ff 75 fc	 push	 DWORD PTR __Pnode$3[ebp]
  00126	8b 4d f4	 mov	 ecx, DWORD PTR _this$[ebp]
  00129	e8 00 00 00 00	 call	 ?_Lrotate@?$_Tree_val@U?$_Tree_simple_types@U?$pair@$$CBU?$pair@G_W@std@@USCharacterInfomation@CGraphicFontTexture@@@std@@@std@@@std@@QAEXPAU?$_Tree_node@U?$pair@$$CBU?$pair@G_W@std@@USCharacterInfomation@CGraphicFontTexture@@@std@@PAX@2@@Z ; std::_Tree_val<std::_Tree_simple_types<std::pair<std::pair<unsigned short,wchar_t> const ,CGraphicFontTexture::SCharacterInfomation> > >::_Lrotate
$LN14@Insert_nod:

; 683  :                     }
; 684  : 
; 685  :                     _Pnode->_Parent->_Color          = _Black; // propagate red up

  0012e	8b 45 fc	 mov	 eax, DWORD PTR __Pnode$3[ebp]
  00131	8b 40 04	 mov	 eax, DWORD PTR [eax+4]
  00134	c6 40 0c 01	 mov	 BYTE PTR [eax+12], 1

; 686  :                     _Pnode->_Parent->_Parent->_Color = _Red;

  00138	8b 45 fc	 mov	 eax, DWORD PTR __Pnode$3[ebp]
  0013b	8b 40 04	 mov	 eax, DWORD PTR [eax+4]
  0013e	8b 40 04	 mov	 eax, DWORD PTR [eax+4]
  00141	c6 40 0c 00	 mov	 BYTE PTR [eax+12], 0

; 687  :                     _Rrotate(_Pnode->_Parent->_Parent);

  00145	8b 45 fc	 mov	 eax, DWORD PTR __Pnode$3[ebp]
  00148	8b 40 04	 mov	 eax, DWORD PTR [eax+4]
  0014b	ff 70 04	 push	 DWORD PTR [eax+4]
  0014e	8b 4d f4	 mov	 ecx, DWORD PTR _this$[ebp]
  00151	e8 00 00 00 00	 call	 ?_Rrotate@?$_Tree_val@U?$_Tree_simple_types@U?$pair@$$CBU?$pair@G_W@std@@USCharacterInfomation@CGraphicFontTexture@@@std@@@std@@@std@@QAEXPAU?$_Tree_node@U?$pair@$$CBU?$pair@G_W@std@@USCharacterInfomation@CGraphicFontTexture@@@std@@PAX@2@@Z ; std::_Tree_val<std::_Tree_simple_types<std::pair<std::pair<unsigned short,wchar_t> const ,CGraphicFontTexture::SCharacterInfomation> > >::_Rrotate
$LN13@Insert_nod:

; 688  :                 }
; 689  :             } else { // fixup red-red in right subtree

  00156	e9 8e 00 00 00	 jmp	 $LN11@Insert_nod
$LN10@Insert_nod:

; 690  :                 const auto _Parent_sibling = _Pnode->_Parent->_Parent->_Left;

  0015b	8b 45 fc	 mov	 eax, DWORD PTR __Pnode$3[ebp]
  0015e	8b 40 04	 mov	 eax, DWORD PTR [eax+4]
  00161	8b 40 04	 mov	 eax, DWORD PTR [eax+4]
  00164	8b 00		 mov	 eax, DWORD PTR [eax]
  00166	89 45 ec	 mov	 DWORD PTR __Parent_sibling$1[ebp], eax

; 691  :                 if (_Parent_sibling->_Color == _Red) { // parent's sibling has two red children, blacken both

  00169	8b 45 ec	 mov	 eax, DWORD PTR __Parent_sibling$1[ebp]
  0016c	0f be 40 0c	 movsx	 eax, BYTE PTR [eax+12]
  00170	85 c0		 test	 eax, eax
  00172	75 2c		 jne	 SHORT $LN15@Insert_nod

; 692  :                     _Pnode->_Parent->_Color          = _Black;

  00174	8b 45 fc	 mov	 eax, DWORD PTR __Pnode$3[ebp]
  00177	8b 40 04	 mov	 eax, DWORD PTR [eax+4]
  0017a	c6 40 0c 01	 mov	 BYTE PTR [eax+12], 1

; 693  :                     _Parent_sibling->_Color          = _Black;

  0017e	8b 45 ec	 mov	 eax, DWORD PTR __Parent_sibling$1[ebp]
  00181	c6 40 0c 01	 mov	 BYTE PTR [eax+12], 1

; 694  :                     _Pnode->_Parent->_Parent->_Color = _Red;

  00185	8b 45 fc	 mov	 eax, DWORD PTR __Pnode$3[ebp]
  00188	8b 40 04	 mov	 eax, DWORD PTR [eax+4]
  0018b	8b 40 04	 mov	 eax, DWORD PTR [eax+4]
  0018e	c6 40 0c 00	 mov	 BYTE PTR [eax+12], 0

; 695  :                     _Pnode                           = _Pnode->_Parent->_Parent;

  00192	8b 45 fc	 mov	 eax, DWORD PTR __Pnode$3[ebp]
  00195	8b 40 04	 mov	 eax, DWORD PTR [eax+4]
  00198	8b 40 04	 mov	 eax, DWORD PTR [eax+4]
  0019b	89 45 fc	 mov	 DWORD PTR __Pnode$3[ebp], eax

; 696  :                 } else { // parent's sibling has red and black children

  0019e	eb 49		 jmp	 SHORT $LN11@Insert_nod
$LN15@Insert_nod:

; 697  :                     if (_Pnode == _Pnode->_Parent->_Left) { // rotate left child to right

  001a0	8b 45 fc	 mov	 eax, DWORD PTR __Pnode$3[ebp]
  001a3	8b 40 04	 mov	 eax, DWORD PTR [eax+4]
  001a6	8b 4d fc	 mov	 ecx, DWORD PTR __Pnode$3[ebp]
  001a9	3b 08		 cmp	 ecx, DWORD PTR [eax]
  001ab	75 14		 jne	 SHORT $LN17@Insert_nod

; 698  :                         _Pnode = _Pnode->_Parent;

  001ad	8b 45 fc	 mov	 eax, DWORD PTR __Pnode$3[ebp]
  001b0	8b 40 04	 mov	 eax, DWORD PTR [eax+4]
  001b3	89 45 fc	 mov	 DWORD PTR __Pnode$3[ebp], eax

; 699  :                         _Rrotate(_Pnode);

  001b6	ff 75 fc	 push	 DWORD PTR __Pnode$3[ebp]
  001b9	8b 4d f4	 mov	 ecx, DWORD PTR _this$[ebp]
  001bc	e8 00 00 00 00	 call	 ?_Rrotate@?$_Tree_val@U?$_Tree_simple_types@U?$pair@$$CBU?$pair@G_W@std@@USCharacterInfomation@CGraphicFontTexture@@@std@@@std@@@std@@QAEXPAU?$_Tree_node@U?$pair@$$CBU?$pair@G_W@std@@USCharacterInfomation@CGraphicFontTexture@@@std@@PAX@2@@Z ; std::_Tree_val<std::_Tree_simple_types<std::pair<std::pair<unsigned short,wchar_t> const ,CGraphicFontTexture::SCharacterInfomation> > >::_Rrotate
$LN17@Insert_nod:

; 700  :                     }
; 701  : 
; 702  :                     _Pnode->_Parent->_Color          = _Black; // propagate red up

  001c1	8b 45 fc	 mov	 eax, DWORD PTR __Pnode$3[ebp]
  001c4	8b 40 04	 mov	 eax, DWORD PTR [eax+4]
  001c7	c6 40 0c 01	 mov	 BYTE PTR [eax+12], 1

; 703  :                     _Pnode->_Parent->_Parent->_Color = _Red;

  001cb	8b 45 fc	 mov	 eax, DWORD PTR __Pnode$3[ebp]
  001ce	8b 40 04	 mov	 eax, DWORD PTR [eax+4]
  001d1	8b 40 04	 mov	 eax, DWORD PTR [eax+4]
  001d4	c6 40 0c 00	 mov	 BYTE PTR [eax+12], 0

; 704  :                     _Lrotate(_Pnode->_Parent->_Parent);

  001d8	8b 45 fc	 mov	 eax, DWORD PTR __Pnode$3[ebp]
  001db	8b 40 04	 mov	 eax, DWORD PTR [eax+4]
  001de	ff 70 04	 push	 DWORD PTR [eax+4]
  001e1	8b 4d f4	 mov	 ecx, DWORD PTR _this$[ebp]
  001e4	e8 00 00 00 00	 call	 ?_Lrotate@?$_Tree_val@U?$_Tree_simple_types@U?$pair@$$CBU?$pair@G_W@std@@USCharacterInfomation@CGraphicFontTexture@@@std@@@std@@@std@@QAEXPAU?$_Tree_node@U?$pair@$$CBU?$pair@G_W@std@@USCharacterInfomation@CGraphicFontTexture@@@std@@PAX@2@@Z ; std::_Tree_val<std::_Tree_simple_types<std::pair<std::pair<unsigned short,wchar_t> const ,CGraphicFontTexture::SCharacterInfomation> > >::_Lrotate
$LN11@Insert_nod:

; 705  :                 }
; 706  :             }
; 707  :         }

  001e9	e9 af fe ff ff	 jmp	 $LN4@Insert_nod
$LN3@Insert_nod:

; 708  : 
; 709  :         _Head->_Parent->_Color = _Black; // root is always black

  001ee	8b 45 f8	 mov	 eax, DWORD PTR __Head$[ebp]
  001f1	8b 40 04	 mov	 eax, DWORD PTR [eax+4]
  001f4	c6 40 0c 01	 mov	 BYTE PTR [eax+12], 1

; 710  :         return _Newnode;

  001f8	8b 45 10	 mov	 eax, DWORD PTR __Newnode$[ebp]
$LN18@Insert_nod:

; 711  :     }

  001fb	c9		 leave
  001fc	c2 0c 00	 ret	 12			; 0000000cH
?_Insert_node@?$_Tree_val@U?$_Tree_simple_types@U?$pair@$$CBU?$pair@G_W@std@@USCharacterInfomation@CGraphicFontTexture@@@std@@@std@@@std@@QAEPAU?$_Tree_node@U?$pair@$$CBU?$pair@G_W@std@@USCharacterInfomation@CGraphicFontTexture@@@std@@PAX@2@U?$_Tree_id@PAU?$_Tree_node@U?$pair@$$CBU?$pair@G_W@std@@USCharacterInfomation@CGraphicFontTexture@@@std@@PAX@std@@@2@QAU32@@Z ENDP ; std::_Tree_val<std::_Tree_simple_types<std::pair<std::pair<unsigned short,wchar_t> const ,CGraphicFontTexture::SCharacterInfomation> > >::_Insert_node
_TEXT	ENDS
; Function compile flags: /Odspy
; File C:\Program Files (x86)\Microsoft Visual Studio\2019\Community\VC\Tools\MSVC\14.28.29333\include\xtree
;	COMDAT ?_Rrotate@?$_Tree_val@U?$_Tree_simple_types@U?$pair@$$CBU?$pair@G_W@std@@USCharacterInfomation@CGraphicFontTexture@@@std@@@std@@@std@@QAEXPAU?$_Tree_node@U?$pair@$$CBU?$pair@G_W@std@@USCharacterInfomation@CGraphicFontTexture@@@std@@PAX@2@@Z
_TEXT	SEGMENT
_this$ = -8						; size = 4
__Pnode$ = -4						; size = 4
__Wherenode$ = 8					; size = 4
?_Rrotate@?$_Tree_val@U?$_Tree_simple_types@U?$pair@$$CBU?$pair@G_W@std@@USCharacterInfomation@CGraphicFontTexture@@@std@@@std@@@std@@QAEXPAU?$_Tree_node@U?$pair@$$CBU?$pair@G_W@std@@USCharacterInfomation@CGraphicFontTexture@@@std@@PAX@2@@Z PROC ; std::_Tree_val<std::_Tree_simple_types<std::pair<std::pair<unsigned short,wchar_t> const ,CGraphicFontTexture::SCharacterInfomation> > >::_Rrotate, COMDAT
; _this$ = ecx

; 480  :     void _Rrotate(_Nodeptr _Wherenode) noexcept { // promote left node to root of subtree

  00000	55		 push	 ebp
  00001	8b ec		 mov	 ebp, esp
  00003	51		 push	 ecx
  00004	51		 push	 ecx
  00005	89 4d f8	 mov	 DWORD PTR _this$[ebp], ecx

; 481  :         _Nodeptr _Pnode   = _Wherenode->_Left;

  00008	8b 45 08	 mov	 eax, DWORD PTR __Wherenode$[ebp]
  0000b	8b 00		 mov	 eax, DWORD PTR [eax]
  0000d	89 45 fc	 mov	 DWORD PTR __Pnode$[ebp], eax

; 482  :         _Wherenode->_Left = _Pnode->_Right;

  00010	8b 45 08	 mov	 eax, DWORD PTR __Wherenode$[ebp]
  00013	8b 4d fc	 mov	 ecx, DWORD PTR __Pnode$[ebp]
  00016	8b 49 08	 mov	 ecx, DWORD PTR [ecx+8]
  00019	89 08		 mov	 DWORD PTR [eax], ecx

; 483  : 
; 484  :         if (!_Pnode->_Right->_Isnil) {

  0001b	8b 45 fc	 mov	 eax, DWORD PTR __Pnode$[ebp]
  0001e	8b 40 08	 mov	 eax, DWORD PTR [eax+8]
  00021	0f be 40 0d	 movsx	 eax, BYTE PTR [eax+13]
  00025	85 c0		 test	 eax, eax
  00027	75 0c		 jne	 SHORT $LN2@Rrotate

; 485  :             _Pnode->_Right->_Parent = _Wherenode;

  00029	8b 45 fc	 mov	 eax, DWORD PTR __Pnode$[ebp]
  0002c	8b 40 08	 mov	 eax, DWORD PTR [eax+8]
  0002f	8b 4d 08	 mov	 ecx, DWORD PTR __Wherenode$[ebp]
  00032	89 48 04	 mov	 DWORD PTR [eax+4], ecx
$LN2@Rrotate:

; 486  :         }
; 487  : 
; 488  :         _Pnode->_Parent = _Wherenode->_Parent;

  00035	8b 45 fc	 mov	 eax, DWORD PTR __Pnode$[ebp]
  00038	8b 4d 08	 mov	 ecx, DWORD PTR __Wherenode$[ebp]
  0003b	8b 49 04	 mov	 ecx, DWORD PTR [ecx+4]
  0003e	89 48 04	 mov	 DWORD PTR [eax+4], ecx

; 489  : 
; 490  :         if (_Wherenode == _Myhead->_Parent) {

  00041	8b 45 f8	 mov	 eax, DWORD PTR _this$[ebp]
  00044	8b 00		 mov	 eax, DWORD PTR [eax]
  00046	8b 4d 08	 mov	 ecx, DWORD PTR __Wherenode$[ebp]
  00049	3b 48 04	 cmp	 ecx, DWORD PTR [eax+4]
  0004c	75 0d		 jne	 SHORT $LN3@Rrotate

; 491  :             _Myhead->_Parent = _Pnode;

  0004e	8b 45 f8	 mov	 eax, DWORD PTR _this$[ebp]
  00051	8b 00		 mov	 eax, DWORD PTR [eax]
  00053	8b 4d fc	 mov	 ecx, DWORD PTR __Pnode$[ebp]
  00056	89 48 04	 mov	 DWORD PTR [eax+4], ecx
  00059	eb 27		 jmp	 SHORT $LN4@Rrotate
$LN3@Rrotate:

; 492  :         } else if (_Wherenode == _Wherenode->_Parent->_Right) {

  0005b	8b 45 08	 mov	 eax, DWORD PTR __Wherenode$[ebp]
  0005e	8b 40 04	 mov	 eax, DWORD PTR [eax+4]
  00061	8b 4d 08	 mov	 ecx, DWORD PTR __Wherenode$[ebp]
  00064	3b 48 08	 cmp	 ecx, DWORD PTR [eax+8]
  00067	75 0e		 jne	 SHORT $LN5@Rrotate

; 493  :             _Wherenode->_Parent->_Right = _Pnode;

  00069	8b 45 08	 mov	 eax, DWORD PTR __Wherenode$[ebp]
  0006c	8b 40 04	 mov	 eax, DWORD PTR [eax+4]
  0006f	8b 4d fc	 mov	 ecx, DWORD PTR __Pnode$[ebp]
  00072	89 48 08	 mov	 DWORD PTR [eax+8], ecx

; 494  :         } else {

  00075	eb 0b		 jmp	 SHORT $LN4@Rrotate
$LN5@Rrotate:

; 495  :             _Wherenode->_Parent->_Left = _Pnode;

  00077	8b 45 08	 mov	 eax, DWORD PTR __Wherenode$[ebp]
  0007a	8b 40 04	 mov	 eax, DWORD PTR [eax+4]
  0007d	8b 4d fc	 mov	 ecx, DWORD PTR __Pnode$[ebp]
  00080	89 08		 mov	 DWORD PTR [eax], ecx
$LN4@Rrotate:

; 496  :         }
; 497  : 
; 498  :         _Pnode->_Right      = _Wherenode;

  00082	8b 45 fc	 mov	 eax, DWORD PTR __Pnode$[ebp]
  00085	8b 4d 08	 mov	 ecx, DWORD PTR __Wherenode$[ebp]
  00088	89 48 08	 mov	 DWORD PTR [eax+8], ecx

; 499  :         _Wherenode->_Parent = _Pnode;

  0008b	8b 45 08	 mov	 eax, DWORD PTR __Wherenode$[ebp]
  0008e	8b 4d fc	 mov	 ecx, DWORD PTR __Pnode$[ebp]
  00091	89 48 04	 mov	 DWORD PTR [eax+4], ecx

; 500  :     }

  00094	c9		 leave
  00095	c2 04 00	 ret	 4
?_Rrotate@?$_Tree_val@U?$_Tree_simple_types@U?$pair@$$CBU?$pair@G_W@std@@USCharacterInfomation@CGraphicFontTexture@@@std@@@std@@@std@@QAEXPAU?$_Tree_node@U?$pair@$$CBU?$pair@G_W@std@@USCharacterInfomation@CGraphicFontTexture@@@std@@PAX@2@@Z ENDP ; std::_Tree_val<std::_Tree_simple_types<std::pair<std::pair<unsigned short,wchar_t> const ,CGraphicFontTexture::SCharacterInfomation> > >::_Rrotate
_TEXT	ENDS
; Function compile flags: /Odspy
; File C:\Program Files (x86)\Microsoft Visual Studio\2019\Community\VC\Tools\MSVC\14.28.29333\include\xtree
;	COMDAT ?_Lrotate@?$_Tree_val@U?$_Tree_simple_types@U?$pair@$$CBU?$pair@G_W@std@@USCharacterInfomation@CGraphicFontTexture@@@std@@@std@@@std@@QAEXPAU?$_Tree_node@U?$pair@$$CBU?$pair@G_W@std@@USCharacterInfomation@CGraphicFontTexture@@@std@@PAX@2@@Z
_TEXT	SEGMENT
_this$ = -8						; size = 4
__Pnode$ = -4						; size = 4
__Wherenode$ = 8					; size = 4
?_Lrotate@?$_Tree_val@U?$_Tree_simple_types@U?$pair@$$CBU?$pair@G_W@std@@USCharacterInfomation@CGraphicFontTexture@@@std@@@std@@@std@@QAEXPAU?$_Tree_node@U?$pair@$$CBU?$pair@G_W@std@@USCharacterInfomation@CGraphicFontTexture@@@std@@PAX@2@@Z PROC ; std::_Tree_val<std::_Tree_simple_types<std::pair<std::pair<unsigned short,wchar_t> const ,CGraphicFontTexture::SCharacterInfomation> > >::_Lrotate, COMDAT
; _this$ = ecx

; 458  :     void _Lrotate(_Nodeptr _Wherenode) noexcept { // promote right node to root of subtree

  00000	55		 push	 ebp
  00001	8b ec		 mov	 ebp, esp
  00003	51		 push	 ecx
  00004	51		 push	 ecx
  00005	89 4d f8	 mov	 DWORD PTR _this$[ebp], ecx

; 459  :         _Nodeptr _Pnode    = _Wherenode->_Right;

  00008	8b 45 08	 mov	 eax, DWORD PTR __Wherenode$[ebp]
  0000b	8b 40 08	 mov	 eax, DWORD PTR [eax+8]
  0000e	89 45 fc	 mov	 DWORD PTR __Pnode$[ebp], eax

; 460  :         _Wherenode->_Right = _Pnode->_Left;

  00011	8b 45 08	 mov	 eax, DWORD PTR __Wherenode$[ebp]
  00014	8b 4d fc	 mov	 ecx, DWORD PTR __Pnode$[ebp]
  00017	8b 09		 mov	 ecx, DWORD PTR [ecx]
  00019	89 48 08	 mov	 DWORD PTR [eax+8], ecx

; 461  : 
; 462  :         if (!_Pnode->_Left->_Isnil) {

  0001c	8b 45 fc	 mov	 eax, DWORD PTR __Pnode$[ebp]
  0001f	8b 00		 mov	 eax, DWORD PTR [eax]
  00021	0f be 40 0d	 movsx	 eax, BYTE PTR [eax+13]
  00025	85 c0		 test	 eax, eax
  00027	75 0b		 jne	 SHORT $LN2@Lrotate

; 463  :             _Pnode->_Left->_Parent = _Wherenode;

  00029	8b 45 fc	 mov	 eax, DWORD PTR __Pnode$[ebp]
  0002c	8b 00		 mov	 eax, DWORD PTR [eax]
  0002e	8b 4d 08	 mov	 ecx, DWORD PTR __Wherenode$[ebp]
  00031	89 48 04	 mov	 DWORD PTR [eax+4], ecx
$LN2@Lrotate:

; 464  :         }
; 465  : 
; 466  :         _Pnode->_Parent = _Wherenode->_Parent;

  00034	8b 45 fc	 mov	 eax, DWORD PTR __Pnode$[ebp]
  00037	8b 4d 08	 mov	 ecx, DWORD PTR __Wherenode$[ebp]
  0003a	8b 49 04	 mov	 ecx, DWORD PTR [ecx+4]
  0003d	89 48 04	 mov	 DWORD PTR [eax+4], ecx

; 467  : 
; 468  :         if (_Wherenode == _Myhead->_Parent) {

  00040	8b 45 f8	 mov	 eax, DWORD PTR _this$[ebp]
  00043	8b 00		 mov	 eax, DWORD PTR [eax]
  00045	8b 4d 08	 mov	 ecx, DWORD PTR __Wherenode$[ebp]
  00048	3b 48 04	 cmp	 ecx, DWORD PTR [eax+4]
  0004b	75 0d		 jne	 SHORT $LN3@Lrotate

; 469  :             _Myhead->_Parent = _Pnode;

  0004d	8b 45 f8	 mov	 eax, DWORD PTR _this$[ebp]
  00050	8b 00		 mov	 eax, DWORD PTR [eax]
  00052	8b 4d fc	 mov	 ecx, DWORD PTR __Pnode$[ebp]
  00055	89 48 04	 mov	 DWORD PTR [eax+4], ecx
  00058	eb 26		 jmp	 SHORT $LN4@Lrotate
$LN3@Lrotate:

; 470  :         } else if (_Wherenode == _Wherenode->_Parent->_Left) {

  0005a	8b 45 08	 mov	 eax, DWORD PTR __Wherenode$[ebp]
  0005d	8b 40 04	 mov	 eax, DWORD PTR [eax+4]
  00060	8b 4d 08	 mov	 ecx, DWORD PTR __Wherenode$[ebp]
  00063	3b 08		 cmp	 ecx, DWORD PTR [eax]
  00065	75 0d		 jne	 SHORT $LN5@Lrotate

; 471  :             _Wherenode->_Parent->_Left = _Pnode;

  00067	8b 45 08	 mov	 eax, DWORD PTR __Wherenode$[ebp]
  0006a	8b 40 04	 mov	 eax, DWORD PTR [eax+4]
  0006d	8b 4d fc	 mov	 ecx, DWORD PTR __Pnode$[ebp]
  00070	89 08		 mov	 DWORD PTR [eax], ecx

; 472  :         } else {

  00072	eb 0c		 jmp	 SHORT $LN4@Lrotate
$LN5@Lrotate:

; 473  :             _Wherenode->_Parent->_Right = _Pnode;

  00074	8b 45 08	 mov	 eax, DWORD PTR __Wherenode$[ebp]
  00077	8b 40 04	 mov	 eax, DWORD PTR [eax+4]
  0007a	8b 4d fc	 mov	 ecx, DWORD PTR __Pnode$[ebp]
  0007d	89 48 08	 mov	 DWORD PTR [eax+8], ecx
$LN4@Lrotate:

; 474  :         }
; 475  : 
; 476  :         _Pnode->_Left       = _Wherenode;

  00080	8b 45 fc	 mov	 eax, DWORD PTR __Pnode$[ebp]
  00083	8b 4d 08	 mov	 ecx, DWORD PTR __Wherenode$[ebp]
  00086	89 08		 mov	 DWORD PTR [eax], ecx

; 477  :         _Wherenode->_Parent = _Pnode;

  00088	8b 45 08	 mov	 eax, DWORD PTR __Wherenode$[ebp]
  0008b	8b 4d fc	 mov	 ecx, DWORD PTR __Pnode$[ebp]
  0008e	89 48 04	 mov	 DWORD PTR [eax+4], ecx

; 478  :     }

  00091	c9		 leave
  00092	c2 04 00	 ret	 4
?_Lrotate@?$_Tree_val@U?$_Tree_simple_types@U?$pair@$$CBU?$pair@G_W@std@@USCharacterInfomation@CGraphicFontTexture@@@std@@@std@@@std@@QAEXPAU?$_Tree_node@U?$pair@$$CBU?$pair@G_W@std@@USCharacterInfomation@CGraphicFontTexture@@@std@@PAX@2@@Z ENDP ; std::_Tree_val<std::_Tree_simple_types<std::pair<std::pair<unsigned short,wchar_t> const ,CGraphicFontTexture::SCharacterInfomation> > >::_Lrotate
_TEXT	ENDS
; Function compile flags: /Odspy
; File C:\Program Files (x86)\Microsoft Visual Studio\2019\Community\VC\Tools\MSVC\14.28.29333\include\xtree
; File C:\Program Files (x86)\Microsoft Visual Studio\2019\Community\VC\Tools\MSVC\14.28.29333\include\xstddef
; File C:\Program Files (x86)\Microsoft Visual Studio\2019\Community\VC\Tools\MSVC\14.28.29333\include\xtree
; File C:\Program Files (x86)\Microsoft Visual Studio\2019\Community\VC\Tools\MSVC\14.28.29333\include\xmemory
; File C:\Program Files (x86)\Microsoft Visual Studio\2019\Community\VC\Tools\MSVC\14.28.29333\include\xtree
;	COMDAT ?_Alloc_sentinel_and_proxy@?$_Tree@V?$_Tmap_traits@U?$pair@G_W@std@@USCharacterInfomation@CGraphicFontTexture@@U?$less@U?$pair@G_W@std@@@2@V?$allocator@U?$pair@$$CBU?$pair@G_W@std@@USCharacterInfomation@CGraphicFontTexture@@@std@@@2@$0A@@std@@@std@@IAEXXZ
_TEXT	SEGMENT
__Alproxy$ = -28					; size = 4
__Scary$ = -24						; size = 4
$T1 = -20						; size = 4
$T2 = -16						; size = 4
$T3 = -12						; size = 4
_this$ = -8						; size = 4
_$S13$ = -1						; size = 1
?_Alloc_sentinel_and_proxy@?$_Tree@V?$_Tmap_traits@U?$pair@G_W@std@@USCharacterInfomation@CGraphicFontTexture@@U?$less@U?$pair@G_W@std@@@2@V?$allocator@U?$pair@$$CBU?$pair@G_W@std@@USCharacterInfomation@CGraphicFontTexture@@@std@@@2@$0A@@std@@@std@@IAEXXZ PROC ; std::_Tree<std::_Tmap_traits<std::pair<unsigned short,wchar_t>,CGraphicFontTexture::SCharacterInfomation,std::less<std::pair<unsigned short,wchar_t> >,std::allocator<std::pair<std::pair<unsigned short,wchar_t> const ,CGraphicFontTexture::SCharacterInfomation> >,0> >::_Alloc_sentinel_and_proxy, COMDAT
; _this$ = ecx

; 2017 :     void _Alloc_sentinel_and_proxy() {

  00000	55		 push	 ebp
  00001	8b ec		 mov	 ebp, esp
  00003	83 ec 1c	 sub	 esp, 28			; 0000001cH
  00006	89 4d f8	 mov	 DWORD PTR _this$[ebp], ecx

; 2047 :         return _STD addressof(_Mypair._Myval2._Myval2);

  00009	8b 45 f8	 mov	 eax, DWORD PTR _this$[ebp]
; File C:\Program Files (x86)\Microsoft Visual Studio\2019\Community\VC\Tools\MSVC\14.28.29333\include\xstddef

; 275  :     return __builtin_addressof(_Val);

  0000c	89 45 f4	 mov	 DWORD PTR $T3[ebp], eax
; File C:\Program Files (x86)\Microsoft Visual Studio\2019\Community\VC\Tools\MSVC\14.28.29333\include\xtree

; 2047 :         return _STD addressof(_Mypair._Myval2._Myval2);

  0000f	8b 45 f4	 mov	 eax, DWORD PTR $T3[ebp]
  00012	89 45 e8	 mov	 DWORD PTR __Scary$[ebp], eax

; 2018 :         const auto _Scary = _Get_scary();
; 2019 :         auto&& _Alproxy   = _GET_PROXY_ALLOCATOR(_Alnode, _Getal());

  00015	8d 45 ff	 lea	 eax, DWORD PTR _$S13$[ebp]
  00018	89 45 e4	 mov	 DWORD PTR __Alproxy$[ebp], eax

; 2039 :         return _Mypair._Myval2._Get_first();

  0001b	8b 45 f8	 mov	 eax, DWORD PTR _this$[ebp]
; File C:\Program Files (x86)\Microsoft Visual Studio\2019\Community\VC\Tools\MSVC\14.28.29333\include\xmemory

; 1347 :         return *this;

  0001e	89 45 f0	 mov	 DWORD PTR $T2[ebp], eax
; File C:\Program Files (x86)\Microsoft Visual Studio\2019\Community\VC\Tools\MSVC\14.28.29333\include\xtree

; 2039 :         return _Mypair._Myval2._Get_first();

  00021	8b 45 f0	 mov	 eax, DWORD PTR $T2[ebp]
  00024	89 45 ec	 mov	 DWORD PTR $T1[ebp], eax

; 2020 :         _Container_proxy_ptr<_Alnode> _Proxy(_Alproxy, *_Scary);
; 2021 :         _Scary->_Myhead = _Node::_Buyheadnode(_Getal());

  00027	ff 75 ec	 push	 DWORD PTR $T1[ebp]
  0002a	e8 00 00 00 00	 call	 ??$_Buyheadnode@V?$allocator@U?$_Tree_node@U?$pair@$$CBU?$pair@G_W@std@@USCharacterInfomation@CGraphicFontTexture@@@std@@PAX@std@@@std@@@?$_Tree_node@U?$pair@$$CBU?$pair@G_W@std@@USCharacterInfomation@CGraphicFontTexture@@@std@@PAX@std@@SAPAU01@AAV?$allocator@U?$_Tree_node@U?$pair@$$CBU?$pair@G_W@std@@USCharacterInfomation@CGraphicFontTexture@@@std@@PAX@std@@@1@@Z ; std::_Tree_node<std::pair<std::pair<unsigned short,wchar_t> const ,CGraphicFontTexture::SCharacterInfomation>,void *>::_Buyheadnode<std::allocator<std::_Tree_node<std::pair<std::pair<unsigned short,wchar_t> const ,CGraphicFontTexture::SCharacterInfomation>,void *> > >
  0002f	59		 pop	 ecx
  00030	8b 4d e8	 mov	 ecx, DWORD PTR __Scary$[ebp]
  00033	89 01		 mov	 DWORD PTR [ecx], eax

; 2022 :         _Proxy._Release();
; 2023 :     }

  00035	c9		 leave
  00036	c3		 ret	 0
?_Alloc_sentinel_and_proxy@?$_Tree@V?$_Tmap_traits@U?$pair@G_W@std@@USCharacterInfomation@CGraphicFontTexture@@U?$less@U?$pair@G_W@std@@@2@V?$allocator@U?$pair@$$CBU?$pair@G_W@std@@USCharacterInfomation@CGraphicFontTexture@@@std@@@2@$0A@@std@@@std@@IAEXXZ ENDP ; std::_Tree<std::_Tmap_traits<std::pair<unsigned short,wchar_t>,CGraphicFontTexture::SCharacterInfomation,std::less<std::pair<unsigned short,wchar_t> >,std::allocator<std::pair<std::pair<unsigned short,wchar_t> const ,CGraphicFontTexture::SCharacterInfomation> >,0> >::_Alloc_sentinel_and_proxy
_TEXT	ENDS
; Function compile flags: /Odspy
; File C:\Program Files (x86)\Microsoft Visual Studio\2019\Community\VC\Tools\MSVC\14.28.29333\include\xtree
; File C:\Program Files (x86)\Microsoft Visual Studio\2019\Community\VC\Tools\MSVC\14.28.29333\include\xstddef
; File C:\Program Files (x86)\Microsoft Visual Studio\2019\Community\VC\Tools\MSVC\14.28.29333\include\xtree
;	COMDAT ?_Check_grow_by_1@?$_Tree@V?$_Tmap_traits@U?$pair@G_W@std@@USCharacterInfomation@CGraphicFontTexture@@U?$less@U?$pair@G_W@std@@@2@V?$allocator@U?$pair@$$CBU?$pair@G_W@std@@USCharacterInfomation@CGraphicFontTexture@@@std@@@2@$0A@@std@@@std@@IAEXXZ
_TEXT	SEGMENT
$T1 = -12						; size = 4
$T2 = -8						; size = 4
_this$ = -4						; size = 4
?_Check_grow_by_1@?$_Tree@V?$_Tmap_traits@U?$pair@G_W@std@@USCharacterInfomation@CGraphicFontTexture@@U?$less@U?$pair@G_W@std@@@2@V?$allocator@U?$pair@$$CBU?$pair@G_W@std@@USCharacterInfomation@CGraphicFontTexture@@@std@@@2@$0A@@std@@@std@@IAEXXZ PROC ; std::_Tree<std::_Tmap_traits<std::pair<unsigned short,wchar_t>,CGraphicFontTexture::SCharacterInfomation,std::less<std::pair<unsigned short,wchar_t> >,std::allocator<std::pair<std::pair<unsigned short,wchar_t> const ,CGraphicFontTexture::SCharacterInfomation> >,0> >::_Check_grow_by_1, COMDAT
; _this$ = ecx

; 1718 :     void _Check_grow_by_1() {

  00000	55		 push	 ebp
  00001	8b ec		 mov	 ebp, esp
  00003	83 ec 0c	 sub	 esp, 12			; 0000000cH
  00006	89 4d fc	 mov	 DWORD PTR _this$[ebp], ecx

; 2047 :         return _STD addressof(_Mypair._Myval2._Myval2);

  00009	8b 45 fc	 mov	 eax, DWORD PTR _this$[ebp]
; File C:\Program Files (x86)\Microsoft Visual Studio\2019\Community\VC\Tools\MSVC\14.28.29333\include\xstddef

; 275  :     return __builtin_addressof(_Val);

  0000c	89 45 f8	 mov	 DWORD PTR $T2[ebp], eax
; File C:\Program Files (x86)\Microsoft Visual Studio\2019\Community\VC\Tools\MSVC\14.28.29333\include\xtree

; 2047 :         return _STD addressof(_Mypair._Myval2._Myval2);

  0000f	8b 45 f8	 mov	 eax, DWORD PTR $T2[ebp]
  00012	89 45 f4	 mov	 DWORD PTR $T1[ebp], eax

; 1719 :         if (max_size() == _Get_scary()->_Mysize) {

  00015	8b 4d fc	 mov	 ecx, DWORD PTR _this$[ebp]
  00018	e8 00 00 00 00	 call	 ?max_size@?$_Tree@V?$_Tmap_traits@U?$pair@G_W@std@@USCharacterInfomation@CGraphicFontTexture@@U?$less@U?$pair@G_W@std@@@2@V?$allocator@U?$pair@$$CBU?$pair@G_W@std@@USCharacterInfomation@CGraphicFontTexture@@@std@@@2@$0A@@std@@@std@@QBEIXZ ; std::_Tree<std::_Tmap_traits<std::pair<unsigned short,wchar_t>,CGraphicFontTexture::SCharacterInfomation,std::less<std::pair<unsigned short,wchar_t> >,std::allocator<std::pair<std::pair<unsigned short,wchar_t> const ,CGraphicFontTexture::SCharacterInfomation> >,0> >::max_size
  0001d	8b 4d f4	 mov	 ecx, DWORD PTR $T1[ebp]
  00020	3b 41 04	 cmp	 eax, DWORD PTR [ecx+4]
  00023	75 05		 jne	 SHORT $LN3@Check_grow

; 1720 :             _Throw_tree_length_error();

  00025	e8 00 00 00 00	 call	 ?_Throw_tree_length_error@std@@YAXXZ ; std::_Throw_tree_length_error
$LN3@Check_grow:

; 1721 :         }
; 1722 :     }

  0002a	c9		 leave
  0002b	c3		 ret	 0
?_Check_grow_by_1@?$_Tree@V?$_Tmap_traits@U?$pair@G_W@std@@USCharacterInfomation@CGraphicFontTexture@@U?$less@U?$pair@G_W@std@@@2@V?$allocator@U?$pair@$$CBU?$pair@G_W@std@@USCharacterInfomation@CGraphicFontTexture@@@std@@@2@$0A@@std@@@std@@IAEXXZ ENDP ; std::_Tree<std::_Tmap_traits<std::pair<unsigned short,wchar_t>,CGraphicFontTexture::SCharacterInfomation,std::less<std::pair<unsigned short,wchar_t> >,std::allocator<std::pair<std::pair<unsigned short,wchar_t> const ,CGraphicFontTexture::SCharacterInfomation> >,0> >::_Check_grow_by_1
_TEXT	ENDS
; Function compile flags: /Odspy
; File C:\Program Files (x86)\Microsoft Visual Studio\2019\Community\VC\Tools\MSVC\14.28.29333\include\xtree
; File C:\Program Files (x86)\Microsoft Visual Studio\2019\Community\VC\Tools\MSVC\14.28.29333\include\xstddef
; File C:\Program Files (x86)\Microsoft Visual Studio\2019\Community\VC\Tools\MSVC\14.28.29333\include\xtree
;	COMDAT ?find@?$_Tree@V?$_Tmap_traits@U?$pair@G_W@std@@USCharacterInfomation@CGraphicFontTexture@@U?$less@U?$pair@G_W@std@@@2@V?$allocator@U?$pair@$$CBU?$pair@G_W@std@@USCharacterInfomation@CGraphicFontTexture@@@std@@@2@$0A@@std@@@std@@QAE?AV?$_Tree_iterator@V?$_Tree_val@U?$_Tree_simple_types@U?$pair@$$CBU?$pair@G_W@std@@USCharacterInfomation@CGraphicFontTexture@@@std@@@std@@@std@@@2@ABU?$pair@G_W@2@@Z
_TEXT	SEGMENT
$T1 = -16						; size = 4
___param0$ = -12					; size = 4
$T2 = -8						; size = 4
_this$ = -4						; size = 4
___$ReturnUdt$ = 8					; size = 4
__Keyval$ = 12						; size = 4
?find@?$_Tree@V?$_Tmap_traits@U?$pair@G_W@std@@USCharacterInfomation@CGraphicFontTexture@@U?$less@U?$pair@G_W@std@@@2@V?$allocator@U?$pair@$$CBU?$pair@G_W@std@@USCharacterInfomation@CGraphicFontTexture@@@std@@@2@$0A@@std@@@std@@QAE?AV?$_Tree_iterator@V?$_Tree_val@U?$_Tree_simple_types@U?$pair@$$CBU?$pair@G_W@std@@USCharacterInfomation@CGraphicFontTexture@@@std@@@std@@@std@@@2@ABU?$pair@G_W@2@@Z PROC ; std::_Tree<std::_Tmap_traits<std::pair<unsigned short,wchar_t>,CGraphicFontTexture::SCharacterInfomation,std::less<std::pair<unsigned short,wchar_t> >,std::allocator<std::pair<std::pair<unsigned short,wchar_t> const ,CGraphicFontTexture::SCharacterInfomation> >,0> >::find, COMDAT
; _this$ = ecx

; 1467 :     _NODISCARD iterator find(const key_type& _Keyval) {

  00000	55		 push	 ebp
  00001	8b ec		 mov	 ebp, esp
  00003	83 ec 10	 sub	 esp, 16			; 00000010H
  00006	89 4d fc	 mov	 DWORD PTR _this$[ebp], ecx

; 2047 :         return _STD addressof(_Mypair._Myval2._Myval2);

  00009	8b 45 fc	 mov	 eax, DWORD PTR _this$[ebp]
; File C:\Program Files (x86)\Microsoft Visual Studio\2019\Community\VC\Tools\MSVC\14.28.29333\include\xstddef

; 275  :     return __builtin_addressof(_Val);

  0000c	89 45 f8	 mov	 DWORD PTR $T2[ebp], eax
; File C:\Program Files (x86)\Microsoft Visual Studio\2019\Community\VC\Tools\MSVC\14.28.29333\include\xtree

; 2047 :         return _STD addressof(_Mypair._Myval2._Myval2);

  0000f	8b 45 f8	 mov	 eax, DWORD PTR $T2[ebp]
  00012	89 45 f0	 mov	 DWORD PTR $T1[ebp], eax

; 1468 :         return iterator(_Find(_Keyval), _Get_scary());

  00015	ff 75 0c	 push	 DWORD PTR __Keyval$[ebp]
  00018	8b 4d fc	 mov	 ecx, DWORD PTR _this$[ebp]
  0001b	e8 00 00 00 00	 call	 ??$_Find@U?$pair@G_W@std@@@?$_Tree@V?$_Tmap_traits@U?$pair@G_W@std@@USCharacterInfomation@CGraphicFontTexture@@U?$less@U?$pair@G_W@std@@@2@V?$allocator@U?$pair@$$CBU?$pair@G_W@std@@USCharacterInfomation@CGraphicFontTexture@@@std@@@2@$0A@@std@@@std@@ABEPAU?$_Tree_node@U?$pair@$$CBU?$pair@G_W@std@@USCharacterInfomation@CGraphicFontTexture@@@std@@PAX@1@ABU?$pair@G_W@1@@Z ; std::_Tree<std::_Tmap_traits<std::pair<unsigned short,wchar_t>,CGraphicFontTexture::SCharacterInfomation,std::less<std::pair<unsigned short,wchar_t> >,std::allocator<std::pair<std::pair<unsigned short,wchar_t> const ,CGraphicFontTexture::SCharacterInfomation> >,0> >::_Find<std::pair<unsigned short,wchar_t> >
  00020	89 45 f4	 mov	 DWORD PTR ___param0$[ebp], eax

; 39   :     _Tree_unchecked_const_iterator(_Nodeptr _Pnode, const _Mytree* _Plist) noexcept : _Ptr(_Pnode) {

  00023	8b 45 08	 mov	 eax, DWORD PTR ___$ReturnUdt$[ebp]
  00026	8b 4d f4	 mov	 ecx, DWORD PTR ___param0$[ebp]
  00029	89 08		 mov	 DWORD PTR [eax], ecx

; 1468 :         return iterator(_Find(_Keyval), _Get_scary());

  0002b	8b 45 08	 mov	 eax, DWORD PTR ___$ReturnUdt$[ebp]

; 1469 :     }

  0002e	c9		 leave
  0002f	c2 08 00	 ret	 8
?find@?$_Tree@V?$_Tmap_traits@U?$pair@G_W@std@@USCharacterInfomation@CGraphicFontTexture@@U?$less@U?$pair@G_W@std@@@2@V?$allocator@U?$pair@$$CBU?$pair@G_W@std@@USCharacterInfomation@CGraphicFontTexture@@@std@@@2@$0A@@std@@@std@@QAE?AV?$_Tree_iterator@V?$_Tree_val@U?$_Tree_simple_types@U?$pair@$$CBU?$pair@G_W@std@@USCharacterInfomation@CGraphicFontTexture@@@std@@@std@@@std@@@2@ABU?$pair@G_W@2@@Z ENDP ; std::_Tree<std::_Tmap_traits<std::pair<unsigned short,wchar_t>,CGraphicFontTexture::SCharacterInfomation,std::less<std::pair<unsigned short,wchar_t> >,std::allocator<std::pair<std::pair<unsigned short,wchar_t> const ,CGraphicFontTexture::SCharacterInfomation> >,0> >::find
_TEXT	ENDS
; Function compile flags: /Odspy
; File C:\Program Files (x86)\Microsoft Visual Studio\2019\Community\VC\Tools\MSVC\14.28.29333\include\xtree
; File C:\Program Files (x86)\Microsoft Visual Studio\2019\Community\VC\Tools\MSVC\14.28.29333\include\xstddef
; File C:\Program Files (x86)\Microsoft Visual Studio\2019\Community\VC\Tools\MSVC\14.28.29333\include\xtree
; File C:\Program Files (x86)\Microsoft Visual Studio\2019\Community\VC\Tools\MSVC\14.28.29333\include\xmemory
; File C:\Program Files (x86)\Microsoft Visual Studio\2019\Community\VC\Tools\MSVC\14.28.29333\include\xtree
;	COMDAT ?clear@?$_Tree@V?$_Tmap_traits@U?$pair@G_W@std@@USCharacterInfomation@CGraphicFontTexture@@U?$less@U?$pair@G_W@std@@@2@V?$allocator@U?$pair@$$CBU?$pair@G_W@std@@USCharacterInfomation@CGraphicFontTexture@@@std@@@2@$0A@@std@@@std@@QAEXXZ
_TEXT	SEGMENT
$T1 = -24						; size = 4
$T2 = -20						; size = 4
$T3 = -16						; size = 4
_this$ = -12						; size = 4
__Scary$ = -8						; size = 4
__Head$ = -4						; size = 4
?clear@?$_Tree@V?$_Tmap_traits@U?$pair@G_W@std@@USCharacterInfomation@CGraphicFontTexture@@U?$less@U?$pair@G_W@std@@@2@V?$allocator@U?$pair@$$CBU?$pair@G_W@std@@USCharacterInfomation@CGraphicFontTexture@@@std@@@2@$0A@@std@@@std@@QAEXXZ PROC ; std::_Tree<std::_Tmap_traits<std::pair<unsigned short,wchar_t>,CGraphicFontTexture::SCharacterInfomation,std::less<std::pair<unsigned short,wchar_t> >,std::allocator<std::pair<std::pair<unsigned short,wchar_t> const ,CGraphicFontTexture::SCharacterInfomation> >,0> >::clear, COMDAT
; _this$ = ecx

; 1444 :     void clear() noexcept {

  00000	55		 push	 ebp
  00001	8b ec		 mov	 ebp, esp
  00003	83 ec 18	 sub	 esp, 24			; 00000018H
  00006	89 4d f4	 mov	 DWORD PTR _this$[ebp], ecx

; 2047 :         return _STD addressof(_Mypair._Myval2._Myval2);

  00009	8b 45 f4	 mov	 eax, DWORD PTR _this$[ebp]
; File C:\Program Files (x86)\Microsoft Visual Studio\2019\Community\VC\Tools\MSVC\14.28.29333\include\xstddef

; 275  :     return __builtin_addressof(_Val);

  0000c	89 45 f0	 mov	 DWORD PTR $T3[ebp], eax
; File C:\Program Files (x86)\Microsoft Visual Studio\2019\Community\VC\Tools\MSVC\14.28.29333\include\xtree

; 2047 :         return _STD addressof(_Mypair._Myval2._Myval2);

  0000f	8b 45 f0	 mov	 eax, DWORD PTR $T3[ebp]
  00012	89 45 f8	 mov	 DWORD PTR __Scary$[ebp], eax

; 1445 :         const auto _Scary = _Get_scary();
; 1446 :         _Scary->_Orphan_ptr(nullptr);
; 1447 :         auto _Head = _Scary->_Myhead;

  00015	8b 45 f8	 mov	 eax, DWORD PTR __Scary$[ebp]
  00018	8b 00		 mov	 eax, DWORD PTR [eax]
  0001a	89 45 fc	 mov	 DWORD PTR __Head$[ebp], eax

; 2039 :         return _Mypair._Myval2._Get_first();

  0001d	8b 45 f4	 mov	 eax, DWORD PTR _this$[ebp]
; File C:\Program Files (x86)\Microsoft Visual Studio\2019\Community\VC\Tools\MSVC\14.28.29333\include\xmemory

; 1347 :         return *this;

  00020	89 45 ec	 mov	 DWORD PTR $T2[ebp], eax
; File C:\Program Files (x86)\Microsoft Visual Studio\2019\Community\VC\Tools\MSVC\14.28.29333\include\xtree

; 2039 :         return _Mypair._Myval2._Get_first();

  00023	8b 45 ec	 mov	 eax, DWORD PTR $T2[ebp]
  00026	89 45 e8	 mov	 DWORD PTR $T1[ebp], eax

; 1448 :         _Scary->_Erase_tree(_Getal(), _Head->_Parent);

  00029	8b 45 fc	 mov	 eax, DWORD PTR __Head$[ebp]
  0002c	ff 70 04	 push	 DWORD PTR [eax+4]
  0002f	ff 75 e8	 push	 DWORD PTR $T1[ebp]
  00032	8b 4d f8	 mov	 ecx, DWORD PTR __Scary$[ebp]
  00035	e8 00 00 00 00	 call	 ??$_Erase_tree@V?$allocator@U?$_Tree_node@U?$pair@$$CBU?$pair@G_W@std@@USCharacterInfomation@CGraphicFontTexture@@@std@@PAX@std@@@std@@@?$_Tree_val@U?$_Tree_simple_types@U?$pair@$$CBU?$pair@G_W@std@@USCharacterInfomation@CGraphicFontTexture@@@std@@@std@@@std@@QAEXAAV?$allocator@U?$_Tree_node@U?$pair@$$CBU?$pair@G_W@std@@USCharacterInfomation@CGraphicFontTexture@@@std@@PAX@std@@@1@PAU?$_Tree_node@U?$pair@$$CBU?$pair@G_W@std@@USCharacterInfomation@CGraphicFontTexture@@@std@@PAX@1@@Z ; std::_Tree_val<std::_Tree_simple_types<std::pair<std::pair<unsigned short,wchar_t> const ,CGraphicFontTexture::SCharacterInfomation> > >::_Erase_tree<std::allocator<std::_Tree_node<std::pair<std::pair<unsigned short,wchar_t> const ,CGraphicFontTexture::SCharacterInfomation>,void *> > >

; 1449 :         _Head->_Parent  = _Head;

  0003a	8b 45 fc	 mov	 eax, DWORD PTR __Head$[ebp]
  0003d	8b 4d fc	 mov	 ecx, DWORD PTR __Head$[ebp]
  00040	89 48 04	 mov	 DWORD PTR [eax+4], ecx

; 1450 :         _Head->_Left    = _Head;

  00043	8b 45 fc	 mov	 eax, DWORD PTR __Head$[ebp]
  00046	8b 4d fc	 mov	 ecx, DWORD PTR __Head$[ebp]
  00049	89 08		 mov	 DWORD PTR [eax], ecx

; 1451 :         _Head->_Right   = _Head;

  0004b	8b 45 fc	 mov	 eax, DWORD PTR __Head$[ebp]
  0004e	8b 4d fc	 mov	 ecx, DWORD PTR __Head$[ebp]
  00051	89 48 08	 mov	 DWORD PTR [eax+8], ecx

; 1452 :         _Scary->_Mysize = 0;

  00054	8b 45 f8	 mov	 eax, DWORD PTR __Scary$[ebp]
  00057	83 60 04 00	 and	 DWORD PTR [eax+4], 0

; 1453 :     }

  0005b	c9		 leave
  0005c	c3		 ret	 0
?clear@?$_Tree@V?$_Tmap_traits@U?$pair@G_W@std@@USCharacterInfomation@CGraphicFontTexture@@U?$less@U?$pair@G_W@std@@@2@V?$allocator@U?$pair@$$CBU?$pair@G_W@std@@USCharacterInfomation@CGraphicFontTexture@@@std@@@2@$0A@@std@@@std@@QAEXXZ ENDP ; std::_Tree<std::_Tmap_traits<std::pair<unsigned short,wchar_t>,CGraphicFontTexture::SCharacterInfomation,std::less<std::pair<unsigned short,wchar_t> >,std::allocator<std::pair<std::pair<unsigned short,wchar_t> const ,CGraphicFontTexture::SCharacterInfomation> >,0> >::clear
_TEXT	ENDS
; Function compile flags: /Odspy
; File C:\Program Files (x86)\Microsoft Visual Studio\2019\Community\VC\Tools\MSVC\14.28.29333\include\xtree
; File C:\Program Files (x86)\Microsoft Visual Studio\2019\Community\VC\Tools\MSVC\14.28.29333\include\xmemory
; File C:\Program Files (x86)\Microsoft Visual Studio\2019\Community\VC\Tools\MSVC\14.28.29333\include\xtree
; File C:\Program Files (x86)\Microsoft Visual Studio\2019\Community\VC\Tools\MSVC\14.28.29333\include\xmemory
; File C:\Program Files (x86)\Microsoft Visual Studio\2019\Community\VC\Tools\MSVC\14.28.29333\include\limits
; File C:\Program Files (x86)\Microsoft Visual Studio\2019\Community\VC\Tools\MSVC\14.28.29333\include\xtree
; File C:\Program Files (x86)\Microsoft Visual Studio\2019\Community\VC\Tools\MSVC\14.28.29333\include\utility
; File C:\Program Files (x86)\Microsoft Visual Studio\2019\Community\VC\Tools\MSVC\14.28.29333\include\xtree
;	COMDAT ?max_size@?$_Tree@V?$_Tmap_traits@U?$pair@G_W@std@@USCharacterInfomation@CGraphicFontTexture@@U?$less@U?$pair@G_W@std@@@2@V?$allocator@U?$pair@$$CBU?$pair@G_W@std@@USCharacterInfomation@CGraphicFontTexture@@@std@@@2@$0A@@std@@@std@@QBEIXZ
_TEXT	SEGMENT
$T1 = -36						; size = 4
$T2 = -32						; size = 4
$T3 = -28						; size = 4
$T4 = -24						; size = 4
$T5 = -20						; size = 4
_this$ = -16						; size = 4
tv68 = -12						; size = 4
$T6 = -8						; size = 4
$T7 = -4						; size = 4
?max_size@?$_Tree@V?$_Tmap_traits@U?$pair@G_W@std@@USCharacterInfomation@CGraphicFontTexture@@U?$less@U?$pair@G_W@std@@@2@V?$allocator@U?$pair@$$CBU?$pair@G_W@std@@USCharacterInfomation@CGraphicFontTexture@@@std@@@2@$0A@@std@@@std@@QBEIXZ PROC ; std::_Tree<std::_Tmap_traits<std::pair<unsigned short,wchar_t>,CGraphicFontTexture::SCharacterInfomation,std::less<std::pair<unsigned short,wchar_t> >,std::allocator<std::pair<std::pair<unsigned short,wchar_t> const ,CGraphicFontTexture::SCharacterInfomation> >,0> >::max_size, COMDAT
; _this$ = ecx

; 1310 :     _NODISCARD size_type max_size() const noexcept {

  00000	55		 push	 ebp
  00001	8b ec		 mov	 ebp, esp
  00003	83 ec 24	 sub	 esp, 36			; 00000024H
  00006	89 4d f0	 mov	 DWORD PTR _this$[ebp], ecx

; 2043 :         return _Mypair._Myval2._Get_first();

  00009	8b 45 f0	 mov	 eax, DWORD PTR _this$[ebp]
; File C:\Program Files (x86)\Microsoft Visual Studio\2019\Community\VC\Tools\MSVC\14.28.29333\include\xmemory

; 1351 :         return *this;

  0000c	89 45 ec	 mov	 DWORD PTR $T5[ebp], eax
; File C:\Program Files (x86)\Microsoft Visual Studio\2019\Community\VC\Tools\MSVC\14.28.29333\include\xtree

; 2043 :         return _Mypair._Myval2._Get_first();

  0000f	8b 45 ec	 mov	 eax, DWORD PTR $T5[ebp]
  00012	89 45 dc	 mov	 DWORD PTR $T1[ebp], eax
; File C:\Program Files (x86)\Microsoft Visual Studio\2019\Community\VC\Tools\MSVC\14.28.29333\include\xmemory

; 710  :         return static_cast<size_t>(-1) / sizeof(value_type);

  00015	c7 45 fc 55 55
	55 05		 mov	 DWORD PTR $T7[ebp], 89478485 ; 05555555H
; File C:\Program Files (x86)\Microsoft Visual Studio\2019\Community\VC\Tools\MSVC\14.28.29333\include\limits

; 557  :         return INT_MAX;

  0001c	c7 45 e8 ff ff
	ff 7f		 mov	 DWORD PTR $T4[ebp], 2147483647 ; 7fffffffH
; File C:\Program Files (x86)\Microsoft Visual Studio\2019\Community\VC\Tools\MSVC\14.28.29333\include\xtree

; 1311 :         return (_STD min)(

  00023	8b 45 e8	 mov	 eax, DWORD PTR $T4[ebp]
  00026	89 45 f8	 mov	 DWORD PTR $T6[ebp], eax
; File C:\Program Files (x86)\Microsoft Visual Studio\2019\Community\VC\Tools\MSVC\14.28.29333\include\utility

; 68   :     return _Right < _Left ? _Right : _Left;

  00029	8b 45 fc	 mov	 eax, DWORD PTR $T7[ebp]
  0002c	3b 45 f8	 cmp	 eax, DWORD PTR $T6[ebp]
  0002f	73 08		 jae	 SHORT $LN17@max_size
  00031	8d 45 fc	 lea	 eax, DWORD PTR $T7[ebp]
  00034	89 45 f4	 mov	 DWORD PTR tv68[ebp], eax
  00037	eb 06		 jmp	 SHORT $LN18@max_size
$LN17@max_size:
  00039	8d 45 f8	 lea	 eax, DWORD PTR $T6[ebp]
  0003c	89 45 f4	 mov	 DWORD PTR tv68[ebp], eax
$LN18@max_size:
  0003f	8b 45 f4	 mov	 eax, DWORD PTR tv68[ebp]
  00042	89 45 e4	 mov	 DWORD PTR $T3[ebp], eax
  00045	8b 45 e4	 mov	 eax, DWORD PTR $T3[ebp]
  00048	89 45 e0	 mov	 DWORD PTR $T2[ebp], eax
; File C:\Program Files (x86)\Microsoft Visual Studio\2019\Community\VC\Tools\MSVC\14.28.29333\include\xtree

; 1311 :         return (_STD min)(

  0004b	8b 45 e0	 mov	 eax, DWORD PTR $T2[ebp]
  0004e	8b 00		 mov	 eax, DWORD PTR [eax]

; 1312 :             static_cast<size_type>((numeric_limits<difference_type>::max)()), _Alnode_traits::max_size(_Getal()));
; 1313 :     }

  00050	c9		 leave
  00051	c3		 ret	 0
?max_size@?$_Tree@V?$_Tmap_traits@U?$pair@G_W@std@@USCharacterInfomation@CGraphicFontTexture@@U?$less@U?$pair@G_W@std@@@2@V?$allocator@U?$pair@$$CBU?$pair@G_W@std@@USCharacterInfomation@CGraphicFontTexture@@@std@@@2@$0A@@std@@@std@@QBEIXZ ENDP ; std::_Tree<std::_Tmap_traits<std::pair<unsigned short,wchar_t>,CGraphicFontTexture::SCharacterInfomation,std::less<std::pair<unsigned short,wchar_t> >,std::allocator<std::pair<std::pair<unsigned short,wchar_t> const ,CGraphicFontTexture::SCharacterInfomation> >,0> >::max_size
_TEXT	ENDS
; Function compile flags: /Odspy
; File C:\Program Files (x86)\Microsoft Visual Studio\2019\Community\VC\Tools\MSVC\14.28.29333\include\xtree
; File C:\Program Files (x86)\Microsoft Visual Studio\2019\Community\VC\Tools\MSVC\14.28.29333\include\xstddef
; File C:\Program Files (x86)\Microsoft Visual Studio\2019\Community\VC\Tools\MSVC\14.28.29333\include\xtree
; File C:\Program Files (x86)\Microsoft Visual Studio\2019\Community\VC\Tools\MSVC\14.28.29333\include\xmemory
; File C:\Program Files (x86)\Microsoft Visual Studio\2019\Community\VC\Tools\MSVC\14.28.29333\include\xtree
;	COMDAT ??1?$_Tree@V?$_Tmap_traits@U?$pair@G_W@std@@USCharacterInfomation@CGraphicFontTexture@@U?$less@U?$pair@G_W@std@@@2@V?$allocator@U?$pair@$$CBU?$pair@G_W@std@@USCharacterInfomation@CGraphicFontTexture@@@std@@@2@$0A@@std@@@std@@QAE@XZ
_TEXT	SEGMENT
$T1 = -20						; size = 4
$T2 = -16						; size = 4
$T3 = -12						; size = 4
_this$ = -8						; size = 4
__Scary$ = -4						; size = 4
??1?$_Tree@V?$_Tmap_traits@U?$pair@G_W@std@@USCharacterInfomation@CGraphicFontTexture@@U?$less@U?$pair@G_W@std@@@2@V?$allocator@U?$pair@$$CBU?$pair@G_W@std@@USCharacterInfomation@CGraphicFontTexture@@@std@@@2@$0A@@std@@@std@@QAE@XZ PROC ; std::_Tree<std::_Tmap_traits<std::pair<unsigned short,wchar_t>,CGraphicFontTexture::SCharacterInfomation,std::less<std::pair<unsigned short,wchar_t> >,std::allocator<std::pair<std::pair<unsigned short,wchar_t> const ,CGraphicFontTexture::SCharacterInfomation> >,0> >::~_Tree<std::_Tmap_traits<std::pair<unsigned short,wchar_t>,CGraphicFontTexture::SCharacterInfomation,std::less<std::pair<unsigned short,wchar_t> >,std::allocator<std::pair<std::pair<unsigned short,wchar_t> const ,CGraphicFontTexture::SCharacterInfomation> >,0> >, COMDAT
; _this$ = ecx

; 1189 :     ~_Tree() noexcept {

  00000	55		 push	 ebp
  00001	8b ec		 mov	 ebp, esp
  00003	83 ec 14	 sub	 esp, 20			; 00000014H
  00006	89 4d f8	 mov	 DWORD PTR _this$[ebp], ecx

; 2047 :         return _STD addressof(_Mypair._Myval2._Myval2);

  00009	8b 45 f8	 mov	 eax, DWORD PTR _this$[ebp]
; File C:\Program Files (x86)\Microsoft Visual Studio\2019\Community\VC\Tools\MSVC\14.28.29333\include\xstddef

; 275  :     return __builtin_addressof(_Val);

  0000c	89 45 f0	 mov	 DWORD PTR $T2[ebp], eax
; File C:\Program Files (x86)\Microsoft Visual Studio\2019\Community\VC\Tools\MSVC\14.28.29333\include\xtree

; 2047 :         return _STD addressof(_Mypair._Myval2._Myval2);

  0000f	8b 45 f0	 mov	 eax, DWORD PTR $T2[ebp]
  00012	89 45 fc	 mov	 DWORD PTR __Scary$[ebp], eax

; 2039 :         return _Mypair._Myval2._Get_first();

  00015	8b 45 f8	 mov	 eax, DWORD PTR _this$[ebp]
; File C:\Program Files (x86)\Microsoft Visual Studio\2019\Community\VC\Tools\MSVC\14.28.29333\include\xmemory

; 1347 :         return *this;

  00018	89 45 ec	 mov	 DWORD PTR $T1[ebp], eax
; File C:\Program Files (x86)\Microsoft Visual Studio\2019\Community\VC\Tools\MSVC\14.28.29333\include\xtree

; 2039 :         return _Mypair._Myval2._Get_first();

  0001b	8b 45 ec	 mov	 eax, DWORD PTR $T1[ebp]
  0001e	89 45 f4	 mov	 DWORD PTR $T3[ebp], eax

; 752  :         _Erase_tree(_Al, _Myhead->_Parent);

  00021	8b 45 fc	 mov	 eax, DWORD PTR __Scary$[ebp]
  00024	8b 00		 mov	 eax, DWORD PTR [eax]
  00026	ff 70 04	 push	 DWORD PTR [eax+4]
  00029	ff 75 f4	 push	 DWORD PTR $T3[ebp]
  0002c	8b 4d fc	 mov	 ecx, DWORD PTR __Scary$[ebp]
  0002f	e8 00 00 00 00	 call	 ??$_Erase_tree@V?$allocator@U?$_Tree_node@U?$pair@$$CBU?$pair@G_W@std@@USCharacterInfomation@CGraphicFontTexture@@@std@@PAX@std@@@std@@@?$_Tree_val@U?$_Tree_simple_types@U?$pair@$$CBU?$pair@G_W@std@@USCharacterInfomation@CGraphicFontTexture@@@std@@@std@@@std@@QAEXAAV?$allocator@U?$_Tree_node@U?$pair@$$CBU?$pair@G_W@std@@USCharacterInfomation@CGraphicFontTexture@@@std@@PAX@std@@@1@PAU?$_Tree_node@U?$pair@$$CBU?$pair@G_W@std@@USCharacterInfomation@CGraphicFontTexture@@@std@@PAX@1@@Z ; std::_Tree_val<std::_Tree_simple_types<std::pair<std::pair<unsigned short,wchar_t> const ,CGraphicFontTexture::SCharacterInfomation> > >::_Erase_tree<std::allocator<std::_Tree_node<std::pair<std::pair<unsigned short,wchar_t> const ,CGraphicFontTexture::SCharacterInfomation>,void *> > >

; 753  :         _Alnode::value_type::_Freenode0(_Al, _Myhead);

  00034	8b 45 fc	 mov	 eax, DWORD PTR __Scary$[ebp]
  00037	ff 30		 push	 DWORD PTR [eax]
  00039	ff 75 f4	 push	 DWORD PTR $T3[ebp]
  0003c	e8 00 00 00 00	 call	 ??$_Freenode0@V?$allocator@U?$_Tree_node@U?$pair@$$CBU?$pair@G_W@std@@USCharacterInfomation@CGraphicFontTexture@@@std@@PAX@std@@@std@@@?$_Tree_node@U?$pair@$$CBU?$pair@G_W@std@@USCharacterInfomation@CGraphicFontTexture@@@std@@PAX@std@@SAXAAV?$allocator@U?$_Tree_node@U?$pair@$$CBU?$pair@G_W@std@@USCharacterInfomation@CGraphicFontTexture@@@std@@PAX@std@@@1@PAU01@@Z ; std::_Tree_node<std::pair<std::pair<unsigned short,wchar_t> const ,CGraphicFontTexture::SCharacterInfomation>,void *>::_Freenode0<std::allocator<std::_Tree_node<std::pair<std::pair<unsigned short,wchar_t> const ,CGraphicFontTexture::SCharacterInfomation>,void *> > >
  00041	59		 pop	 ecx
  00042	59		 pop	 ecx

; 1190 :         const auto _Scary = _Get_scary();
; 1191 :         _Scary->_Erase_head(_Getal());
; 1192 : #if _ITERATOR_DEBUG_LEVEL != 0 // TRANSITION, ABI
; 1193 :         auto&& _Alproxy = _GET_PROXY_ALLOCATOR(_Alnode, _Getal());
; 1194 :         _Delete_plain_internal(_Alproxy, _Scary->_Myproxy);
; 1195 : #endif // _ITERATOR_DEBUG_LEVEL != 0
; 1196 :     }

  00043	c9		 leave
  00044	c3		 ret	 0
??1?$_Tree@V?$_Tmap_traits@U?$pair@G_W@std@@USCharacterInfomation@CGraphicFontTexture@@U?$less@U?$pair@G_W@std@@@2@V?$allocator@U?$pair@$$CBU?$pair@G_W@std@@USCharacterInfomation@CGraphicFontTexture@@@std@@@2@$0A@@std@@@std@@QAE@XZ ENDP ; std::_Tree<std::_Tmap_traits<std::pair<unsigned short,wchar_t>,CGraphicFontTexture::SCharacterInfomation,std::less<std::pair<unsigned short,wchar_t> >,std::allocator<std::pair<std::pair<unsigned short,wchar_t> const ,CGraphicFontTexture::SCharacterInfomation> >,0> >::~_Tree<std::_Tmap_traits<std::pair<unsigned short,wchar_t>,CGraphicFontTexture::SCharacterInfomation,std::less<std::pair<unsigned short,wchar_t> >,std::allocator<std::pair<std::pair<unsigned short,wchar_t> const ,CGraphicFontTexture::SCharacterInfomation> >,0> >
_TEXT	ENDS
; Function compile flags: /Odspy
; File C:\Program Files (x86)\Microsoft Visual Studio\2019\Community\VC\Tools\MSVC\14.28.29333\include\xtree
; File C:\Program Files (x86)\Microsoft Visual Studio\2019\Community\VC\Tools\MSVC\14.28.29333\include\type_traits
; File C:\Program Files (x86)\Microsoft Visual Studio\2019\Community\VC\Tools\MSVC\14.28.29333\include\xmemory
; File C:\Program Files (x86)\Microsoft Visual Studio\2019\Community\VC\Tools\MSVC\14.28.29333\include\xtree
;	COMDAT ??0?$_Tree@V?$_Tmap_traits@U?$pair@G_W@std@@USCharacterInfomation@CGraphicFontTexture@@U?$less@U?$pair@G_W@std@@@2@V?$allocator@U?$pair@$$CBU?$pair@G_W@std@@USCharacterInfomation@CGraphicFontTexture@@@std@@@2@$0A@@std@@@std@@QAE@ABU?$less@U?$pair@G_W@std@@@1@@Z
_TEXT	SEGMENT
_this$ = -28						; size = 4
_this$ = -24						; size = 4
$T1 = -20						; size = 4
_this$2 = -16						; size = 4
_this$ = -12						; size = 4
___formal$ = -8						; size = 1
$T3 = -1						; size = 1
__Parg$ = 8						; size = 4
??0?$_Tree@V?$_Tmap_traits@U?$pair@G_W@std@@USCharacterInfomation@CGraphicFontTexture@@U?$less@U?$pair@G_W@std@@@2@V?$allocator@U?$pair@$$CBU?$pair@G_W@std@@USCharacterInfomation@CGraphicFontTexture@@@std@@@2@$0A@@std@@@std@@QAE@ABU?$less@U?$pair@G_W@std@@@1@@Z PROC ; std::_Tree<std::_Tmap_traits<std::pair<unsigned short,wchar_t>,CGraphicFontTexture::SCharacterInfomation,std::less<std::pair<unsigned short,wchar_t> >,std::allocator<std::pair<std::pair<unsigned short,wchar_t> const ,CGraphicFontTexture::SCharacterInfomation> >,0> >::_Tree<std::_Tmap_traits<std::pair<unsigned short,wchar_t>,CGraphicFontTexture::SCharacterInfomation,std::less<std::pair<unsigned short,wchar_t> >,std::allocator<std::pair<std::pair<unsigned short,wchar_t> const ,CGraphicFontTexture::SCharacterInfomation> >,0> >, COMDAT
; _this$ = ecx

; 885  :     _Tree(const key_compare& _Parg) : _Mypair(_One_then_variadic_args_t{}, _Parg, _Zero_then_variadic_args_t{}) {

  00000	55		 push	 ebp
  00001	8b ec		 mov	 ebp, esp
  00003	83 ec 1c	 sub	 esp, 28			; 0000001cH
  00006	89 4d f4	 mov	 DWORD PTR _this$[ebp], ecx
  00009	8b 45 f4	 mov	 eax, DWORD PTR _this$[ebp]
  0000c	89 45 e8	 mov	 DWORD PTR _this$[ebp], eax
; File C:\Program Files (x86)\Microsoft Visual Studio\2019\Community\VC\Tools\MSVC\14.28.29333\include\type_traits

; 1443 :     return static_cast<_Ty&&>(_Arg);

  0000f	8d 45 ff	 lea	 eax, DWORD PTR $T3[ebp]
  00012	89 45 ec	 mov	 DWORD PTR $T1[ebp], eax
; File C:\Program Files (x86)\Microsoft Visual Studio\2019\Community\VC\Tools\MSVC\14.28.29333\include\xmemory

; 1344 :         : _Ty1(_STD forward<_Other1>(_Val1)), _Myval2(_STD forward<_Other2>(_Val2)...) {}

  00015	8b 45 ec	 mov	 eax, DWORD PTR $T1[ebp]
  00018	8a 00		 mov	 al, BYTE PTR [eax]
  0001a	88 45 f8	 mov	 BYTE PTR ___formal$[ebp], al
  0001d	8b 45 e8	 mov	 eax, DWORD PTR _this$[ebp]
  00020	89 45 e4	 mov	 DWORD PTR _this$[ebp], eax

; 1339 :         : _Ty1(), _Myval2(_STD forward<_Other2>(_Val2)...) {}

  00023	8b 45 e4	 mov	 eax, DWORD PTR _this$[ebp]
  00026	89 45 f0	 mov	 DWORD PTR _this$2[ebp], eax
; File C:\Program Files (x86)\Microsoft Visual Studio\2019\Community\VC\Tools\MSVC\14.28.29333\include\xtree

; 435  :     _Tree_val() noexcept : _Myhead(), _Mysize(0) {}

  00029	8b 45 f0	 mov	 eax, DWORD PTR _this$2[ebp]
  0002c	83 20 00	 and	 DWORD PTR [eax], 0
  0002f	8b 45 f0	 mov	 eax, DWORD PTR _this$2[ebp]
  00032	83 60 04 00	 and	 DWORD PTR [eax+4], 0

; 886  :         _Alloc_sentinel_and_proxy();

  00036	8b 4d f4	 mov	 ecx, DWORD PTR _this$[ebp]
  00039	e8 00 00 00 00	 call	 ?_Alloc_sentinel_and_proxy@?$_Tree@V?$_Tmap_traits@U?$pair@G_W@std@@USCharacterInfomation@CGraphicFontTexture@@U?$less@U?$pair@G_W@std@@@2@V?$allocator@U?$pair@$$CBU?$pair@G_W@std@@USCharacterInfomation@CGraphicFontTexture@@@std@@@2@$0A@@std@@@std@@IAEXXZ ; std::_Tree<std::_Tmap_traits<std::pair<unsigned short,wchar_t>,CGraphicFontTexture::SCharacterInfomation,std::less<std::pair<unsigned short,wchar_t> >,std::allocator<std::pair<std::pair<unsigned short,wchar_t> const ,CGraphicFontTexture::SCharacterInfomation> >,0> >::_Alloc_sentinel_and_proxy

; 887  :     }

  0003e	8b 45 f4	 mov	 eax, DWORD PTR _this$[ebp]
  00041	c9		 leave
  00042	c2 04 00	 ret	 4
??0?$_Tree@V?$_Tmap_traits@U?$pair@G_W@std@@USCharacterInfomation@CGraphicFontTexture@@U?$less@U?$pair@G_W@std@@@2@V?$allocator@U?$pair@$$CBU?$pair@G_W@std@@USCharacterInfomation@CGraphicFontTexture@@@std@@@2@$0A@@std@@@std@@QAE@ABU?$less@U?$pair@G_W@std@@@1@@Z ENDP ; std::_Tree<std::_Tmap_traits<std::pair<unsigned short,wchar_t>,CGraphicFontTexture::SCharacterInfomation,std::less<std::pair<unsigned short,wchar_t> >,std::allocator<std::pair<std::pair<unsigned short,wchar_t> const ,CGraphicFontTexture::SCharacterInfomation> >,0> >::_Tree<std::_Tmap_traits<std::pair<unsigned short,wchar_t>,CGraphicFontTexture::SCharacterInfomation,std::less<std::pair<unsigned short,wchar_t> >,std::allocator<std::pair<std::pair<unsigned short,wchar_t> const ,CGraphicFontTexture::SCharacterInfomation> >,0> >
_TEXT	ENDS
; Function compile flags: /Odspy
; File C:\Program Files (x86)\Microsoft Visual Studio\2019\Community\VC\Tools\MSVC\14.28.29333\include\vector
;	COMDAT ?_Xlength@?$vector@PAVCGraphicImageTexture@@V?$allocator@PAVCGraphicImageTexture@@@std@@@std@@CAXXZ
_TEXT	SEGMENT
?_Xlength@?$vector@PAVCGraphicImageTexture@@V?$allocator@PAVCGraphicImageTexture@@@std@@@std@@CAXXZ PROC ; std::vector<CGraphicImageTexture *,std::allocator<CGraphicImageTexture *> >::_Xlength, COMDAT

; 1704 :     [[noreturn]] static void _Xlength() {

  00000	55		 push	 ebp
  00001	8b ec		 mov	 ebp, esp

; 1705 :         _Xlength_error("vector too long");

  00003	68 00 00 00 00	 push	 OFFSET ??_C@_0BA@FOIKENOD@vector?5too?5long@
  00008	e8 00 00 00 00	 call	 ?_Xlength_error@std@@YAXPBD@Z ; std::_Xlength_error
$LN2@Xlength:

; 1706 :     }

  0000d	5d		 pop	 ebp
  0000e	c3		 ret	 0
?_Xlength@?$vector@PAVCGraphicImageTexture@@V?$allocator@PAVCGraphicImageTexture@@@std@@@std@@CAXXZ ENDP ; std::vector<CGraphicImageTexture *,std::allocator<CGraphicImageTexture *> >::_Xlength
_TEXT	ENDS
; Function compile flags: /Odspy
; File C:\Program Files (x86)\Microsoft Visual Studio\2019\Community\VC\Tools\MSVC\14.28.29333\include\vector
; File C:\Program Files (x86)\Microsoft Visual Studio\2019\Community\VC\Tools\MSVC\14.28.29333\include\xmemory
; File C:\Program Files (x86)\Microsoft Visual Studio\2019\Community\VC\Tools\MSVC\14.28.29333\include\vector
; File C:\Program Files (x86)\Microsoft Visual Studio\2019\Community\VC\Tools\MSVC\14.28.29333\include\xmemory
; File C:\Program Files (x86)\Microsoft Visual Studio\2019\Community\VC\Tools\MSVC\14.28.29333\include\vector
; File C:\Program Files (x86)\Microsoft Visual Studio\2019\Community\VC\Tools\MSVC\14.28.29333\include\xmemory
; File C:\Program Files (x86)\Microsoft Visual Studio\2019\Community\VC\Tools\MSVC\14.28.29333\include\vector
;	COMDAT ?_Tidy@?$vector@PAVCGraphicImageTexture@@V?$allocator@PAVCGraphicImageTexture@@@std@@@std@@AAEXXZ
_TEXT	SEGMENT
$T1 = -52						; size = 4
__Ptr$ = -48						; size = 4
__Count$ = -44						; size = 4
$T2 = -40						; size = 4
__First$ = -36						; size = 4
__Last$ = -32						; size = 4
$T3 = -28						; size = 4
$T4 = -24						; size = 4
__Myend$ = -20						; size = 4
__Mylast$ = -16						; size = 4
_this$ = -12						; size = 4
__My_data$ = -8						; size = 4
__Myfirst$ = -4						; size = 4
?_Tidy@?$vector@PAVCGraphicImageTexture@@V?$allocator@PAVCGraphicImageTexture@@@std@@@std@@AAEXXZ PROC ; std::vector<CGraphicImageTexture *,std::allocator<CGraphicImageTexture *> >::_Tidy, COMDAT
; _this$ = ecx

; 1686 :     void _Tidy() noexcept { // free all storage

  00000	55		 push	 ebp
  00001	8b ec		 mov	 ebp, esp
  00003	83 ec 34	 sub	 esp, 52			; 00000034H
  00006	89 4d f4	 mov	 DWORD PTR _this$[ebp], ecx

; 1687 :         auto& _My_data    = _Mypair._Myval2;

  00009	8b 45 f4	 mov	 eax, DWORD PTR _this$[ebp]
  0000c	89 45 f8	 mov	 DWORD PTR __My_data$[ebp], eax

; 1688 :         pointer& _Myfirst = _My_data._Myfirst;

  0000f	8b 45 f8	 mov	 eax, DWORD PTR __My_data$[ebp]
  00012	89 45 fc	 mov	 DWORD PTR __Myfirst$[ebp], eax

; 1689 :         pointer& _Mylast  = _My_data._Mylast;

  00015	8b 45 f8	 mov	 eax, DWORD PTR __My_data$[ebp]
  00018	83 c0 04	 add	 eax, 4
  0001b	89 45 f0	 mov	 DWORD PTR __Mylast$[ebp], eax

; 1690 :         pointer& _Myend   = _My_data._Myend;

  0001e	8b 45 f8	 mov	 eax, DWORD PTR __My_data$[ebp]
  00021	83 c0 08	 add	 eax, 8
  00024	89 45 ec	 mov	 DWORD PTR __Myend$[ebp], eax

; 1691 : 
; 1692 :         _My_data._Orphan_all();
; 1693 : 
; 1694 :         if (_Myfirst) { // destroy and deallocate old array

  00027	8b 45 fc	 mov	 eax, DWORD PTR __Myfirst$[ebp]
  0002a	83 38 00	 cmp	 DWORD PTR [eax], 0
  0002d	74 74		 je	 SHORT $LN3@Tidy

; 1695 :             _Destroy(_Myfirst, _Mylast);

  0002f	8b 45 f0	 mov	 eax, DWORD PTR __Mylast$[ebp]
  00032	8b 00		 mov	 eax, DWORD PTR [eax]
  00034	89 45 e0	 mov	 DWORD PTR __Last$[ebp], eax
  00037	8b 45 fc	 mov	 eax, DWORD PTR __Myfirst$[ebp]
  0003a	8b 00		 mov	 eax, DWORD PTR [eax]
  0003c	89 45 dc	 mov	 DWORD PTR __First$[ebp], eax

; 1733 :         return _Mypair._Get_first();

  0003f	8b 45 f4	 mov	 eax, DWORD PTR _this$[ebp]
; File C:\Program Files (x86)\Microsoft Visual Studio\2019\Community\VC\Tools\MSVC\14.28.29333\include\xmemory

; 1347 :         return *this;

  00042	89 45 e8	 mov	 DWORD PTR $T4[ebp], eax
; File C:\Program Files (x86)\Microsoft Visual Studio\2019\Community\VC\Tools\MSVC\14.28.29333\include\vector

; 1733 :         return _Mypair._Get_first();

  00045	8b 45 e8	 mov	 eax, DWORD PTR $T4[ebp]
  00048	89 45 e4	 mov	 DWORD PTR $T3[ebp], eax

; 1612 :         _Destroy_range(_First, _Last, _Getal());

  0004b	ff 75 e4	 push	 DWORD PTR $T3[ebp]
  0004e	ff 75 e0	 push	 DWORD PTR __Last$[ebp]
  00051	ff 75 dc	 push	 DWORD PTR __First$[ebp]
  00054	e8 00 00 00 00	 call	 ??$_Destroy_range@V?$allocator@PAVCGraphicImageTexture@@@std@@@std@@YAXPAPAVCGraphicImageTexture@@QAPAV1@AAV?$allocator@PAVCGraphicImageTexture@@@0@@Z ; std::_Destroy_range<std::allocator<CGraphicImageTexture *> >
  00059	83 c4 0c	 add	 esp, 12			; 0000000cH

; 1733 :         return _Mypair._Get_first();

  0005c	8b 45 f4	 mov	 eax, DWORD PTR _this$[ebp]
; File C:\Program Files (x86)\Microsoft Visual Studio\2019\Community\VC\Tools\MSVC\14.28.29333\include\xmemory

; 1347 :         return *this;

  0005f	89 45 d8	 mov	 DWORD PTR $T2[ebp], eax
; File C:\Program Files (x86)\Microsoft Visual Studio\2019\Community\VC\Tools\MSVC\14.28.29333\include\vector

; 1733 :         return _Mypair._Get_first();

  00062	8b 45 d8	 mov	 eax, DWORD PTR $T2[ebp]
  00065	89 45 cc	 mov	 DWORD PTR $T1[ebp], eax

; 1696 :             _Getal().deallocate(_Myfirst, static_cast<size_type>(_Myend - _Myfirst));

  00068	8b 45 ec	 mov	 eax, DWORD PTR __Myend$[ebp]
  0006b	8b 4d fc	 mov	 ecx, DWORD PTR __Myfirst$[ebp]
  0006e	8b 00		 mov	 eax, DWORD PTR [eax]
  00070	2b 01		 sub	 eax, DWORD PTR [ecx]
  00072	c1 f8 02	 sar	 eax, 2
  00075	89 45 d4	 mov	 DWORD PTR __Count$[ebp], eax
  00078	8b 45 fc	 mov	 eax, DWORD PTR __Myfirst$[ebp]
  0007b	8b 00		 mov	 eax, DWORD PTR [eax]
  0007d	89 45 d0	 mov	 DWORD PTR __Ptr$[ebp], eax
; File C:\Program Files (x86)\Microsoft Visual Studio\2019\Community\VC\Tools\MSVC\14.28.29333\include\xmemory

; 810  :         _Deallocate<_New_alignof<_Ty>>(_Ptr, sizeof(_Ty) * _Count);

  00080	8b 45 d4	 mov	 eax, DWORD PTR __Count$[ebp]
  00083	c1 e0 02	 shl	 eax, 2
  00086	50		 push	 eax
  00087	ff 75 d0	 push	 DWORD PTR __Ptr$[ebp]
  0008a	e8 00 00 00 00	 call	 ??$_Deallocate@$07$0A@@std@@YAXPAXI@Z ; std::_Deallocate<8,0>
  0008f	59		 pop	 ecx
  00090	59		 pop	 ecx
; File C:\Program Files (x86)\Microsoft Visual Studio\2019\Community\VC\Tools\MSVC\14.28.29333\include\vector

; 1698 :             _Myfirst = pointer();

  00091	8b 45 fc	 mov	 eax, DWORD PTR __Myfirst$[ebp]
  00094	83 20 00	 and	 DWORD PTR [eax], 0

; 1699 :             _Mylast  = pointer();

  00097	8b 45 f0	 mov	 eax, DWORD PTR __Mylast$[ebp]
  0009a	83 20 00	 and	 DWORD PTR [eax], 0

; 1700 :             _Myend   = pointer();

  0009d	8b 45 ec	 mov	 eax, DWORD PTR __Myend$[ebp]
  000a0	83 20 00	 and	 DWORD PTR [eax], 0
$LN3@Tidy:

; 1701 :         }
; 1702 :     }

  000a3	c9		 leave
  000a4	c3		 ret	 0
?_Tidy@?$vector@PAVCGraphicImageTexture@@V?$allocator@PAVCGraphicImageTexture@@@std@@@std@@AAEXXZ ENDP ; std::vector<CGraphicImageTexture *,std::allocator<CGraphicImageTexture *> >::_Tidy
_TEXT	ENDS
; Function compile flags: /Odspy
; File C:\Program Files (x86)\Microsoft Visual Studio\2019\Community\VC\Tools\MSVC\14.28.29333\include\vector
; File C:\Program Files (x86)\Microsoft Visual Studio\2019\Community\VC\Tools\MSVC\14.28.29333\include\xmemory
; File C:\Program Files (x86)\Microsoft Visual Studio\2019\Community\VC\Tools\MSVC\14.28.29333\include\vector
; File C:\Program Files (x86)\Microsoft Visual Studio\2019\Community\VC\Tools\MSVC\14.28.29333\include\xmemory
; File C:\Program Files (x86)\Microsoft Visual Studio\2019\Community\VC\Tools\MSVC\14.28.29333\include\vector
; File C:\Program Files (x86)\Microsoft Visual Studio\2019\Community\VC\Tools\MSVC\14.28.29333\include\xmemory
; File C:\Program Files (x86)\Microsoft Visual Studio\2019\Community\VC\Tools\MSVC\14.28.29333\include\vector
;	COMDAT ?_Change_array@?$vector@PAVCGraphicImageTexture@@V?$allocator@PAVCGraphicImageTexture@@@std@@@std@@AAEXQAPAVCGraphicImageTexture@@II@Z
_TEXT	SEGMENT
$T1 = -52						; size = 4
__Ptr$ = -48						; size = 4
__Count$ = -44						; size = 4
$T2 = -40						; size = 4
__First$ = -36						; size = 4
__Last$ = -32						; size = 4
$T3 = -28						; size = 4
$T4 = -24						; size = 4
__Myend$ = -20						; size = 4
__Mylast$ = -16						; size = 4
_this$ = -12						; size = 4
__My_data$ = -8						; size = 4
__Myfirst$ = -4						; size = 4
__Newvec$ = 8						; size = 4
__Newsize$ = 12						; size = 4
__Newcapacity$ = 16					; size = 4
?_Change_array@?$vector@PAVCGraphicImageTexture@@V?$allocator@PAVCGraphicImageTexture@@@std@@@std@@AAEXQAPAVCGraphicImageTexture@@II@Z PROC ; std::vector<CGraphicImageTexture *,std::allocator<CGraphicImageTexture *> >::_Change_array, COMDAT
; _this$ = ecx

; 1667 :     void _Change_array(const pointer _Newvec, const size_type _Newsize, const size_type _Newcapacity) {

  00000	55		 push	 ebp
  00001	8b ec		 mov	 ebp, esp
  00003	83 ec 34	 sub	 esp, 52			; 00000034H
  00006	89 4d f4	 mov	 DWORD PTR _this$[ebp], ecx

; 1668 :         // orphan all iterators, discard old array, acquire new array
; 1669 :         auto& _My_data    = _Mypair._Myval2;

  00009	8b 45 f4	 mov	 eax, DWORD PTR _this$[ebp]
  0000c	89 45 f8	 mov	 DWORD PTR __My_data$[ebp], eax

; 1670 :         pointer& _Myfirst = _My_data._Myfirst;

  0000f	8b 45 f8	 mov	 eax, DWORD PTR __My_data$[ebp]
  00012	89 45 fc	 mov	 DWORD PTR __Myfirst$[ebp], eax

; 1671 :         pointer& _Mylast  = _My_data._Mylast;

  00015	8b 45 f8	 mov	 eax, DWORD PTR __My_data$[ebp]
  00018	83 c0 04	 add	 eax, 4
  0001b	89 45 f0	 mov	 DWORD PTR __Mylast$[ebp], eax

; 1672 :         pointer& _Myend   = _My_data._Myend;

  0001e	8b 45 f8	 mov	 eax, DWORD PTR __My_data$[ebp]
  00021	83 c0 08	 add	 eax, 8
  00024	89 45 ec	 mov	 DWORD PTR __Myend$[ebp], eax

; 1673 : 
; 1674 :         _My_data._Orphan_all();
; 1675 : 
; 1676 :         if (_Myfirst) { // destroy and deallocate old array

  00027	8b 45 fc	 mov	 eax, DWORD PTR __Myfirst$[ebp]
  0002a	83 38 00	 cmp	 DWORD PTR [eax], 0
  0002d	74 62		 je	 SHORT $LN2@Change_arr

; 1677 :             _Destroy(_Myfirst, _Mylast);

  0002f	8b 45 f0	 mov	 eax, DWORD PTR __Mylast$[ebp]
  00032	8b 00		 mov	 eax, DWORD PTR [eax]
  00034	89 45 e0	 mov	 DWORD PTR __Last$[ebp], eax
  00037	8b 45 fc	 mov	 eax, DWORD PTR __Myfirst$[ebp]
  0003a	8b 00		 mov	 eax, DWORD PTR [eax]
  0003c	89 45 dc	 mov	 DWORD PTR __First$[ebp], eax

; 1733 :         return _Mypair._Get_first();

  0003f	8b 45 f4	 mov	 eax, DWORD PTR _this$[ebp]
; File C:\Program Files (x86)\Microsoft Visual Studio\2019\Community\VC\Tools\MSVC\14.28.29333\include\xmemory

; 1347 :         return *this;

  00042	89 45 e8	 mov	 DWORD PTR $T4[ebp], eax
; File C:\Program Files (x86)\Microsoft Visual Studio\2019\Community\VC\Tools\MSVC\14.28.29333\include\vector

; 1733 :         return _Mypair._Get_first();

  00045	8b 45 e8	 mov	 eax, DWORD PTR $T4[ebp]
  00048	89 45 e4	 mov	 DWORD PTR $T3[ebp], eax

; 1612 :         _Destroy_range(_First, _Last, _Getal());

  0004b	ff 75 e4	 push	 DWORD PTR $T3[ebp]
  0004e	ff 75 e0	 push	 DWORD PTR __Last$[ebp]
  00051	ff 75 dc	 push	 DWORD PTR __First$[ebp]
  00054	e8 00 00 00 00	 call	 ??$_Destroy_range@V?$allocator@PAVCGraphicImageTexture@@@std@@@std@@YAXPAPAVCGraphicImageTexture@@QAPAV1@AAV?$allocator@PAVCGraphicImageTexture@@@0@@Z ; std::_Destroy_range<std::allocator<CGraphicImageTexture *> >
  00059	83 c4 0c	 add	 esp, 12			; 0000000cH

; 1733 :         return _Mypair._Get_first();

  0005c	8b 45 f4	 mov	 eax, DWORD PTR _this$[ebp]
; File C:\Program Files (x86)\Microsoft Visual Studio\2019\Community\VC\Tools\MSVC\14.28.29333\include\xmemory

; 1347 :         return *this;

  0005f	89 45 d8	 mov	 DWORD PTR $T2[ebp], eax
; File C:\Program Files (x86)\Microsoft Visual Studio\2019\Community\VC\Tools\MSVC\14.28.29333\include\vector

; 1733 :         return _Mypair._Get_first();

  00062	8b 45 d8	 mov	 eax, DWORD PTR $T2[ebp]
  00065	89 45 cc	 mov	 DWORD PTR $T1[ebp], eax

; 1678 :             _Getal().deallocate(_Myfirst, static_cast<size_type>(_Myend - _Myfirst));

  00068	8b 45 ec	 mov	 eax, DWORD PTR __Myend$[ebp]
  0006b	8b 4d fc	 mov	 ecx, DWORD PTR __Myfirst$[ebp]
  0006e	8b 00		 mov	 eax, DWORD PTR [eax]
  00070	2b 01		 sub	 eax, DWORD PTR [ecx]
  00072	c1 f8 02	 sar	 eax, 2
  00075	89 45 d4	 mov	 DWORD PTR __Count$[ebp], eax
  00078	8b 45 fc	 mov	 eax, DWORD PTR __Myfirst$[ebp]
  0007b	8b 00		 mov	 eax, DWORD PTR [eax]
  0007d	89 45 d0	 mov	 DWORD PTR __Ptr$[ebp], eax
; File C:\Program Files (x86)\Microsoft Visual Studio\2019\Community\VC\Tools\MSVC\14.28.29333\include\xmemory

; 810  :         _Deallocate<_New_alignof<_Ty>>(_Ptr, sizeof(_Ty) * _Count);

  00080	8b 45 d4	 mov	 eax, DWORD PTR __Count$[ebp]
  00083	c1 e0 02	 shl	 eax, 2
  00086	50		 push	 eax
  00087	ff 75 d0	 push	 DWORD PTR __Ptr$[ebp]
  0008a	e8 00 00 00 00	 call	 ??$_Deallocate@$07$0A@@std@@YAXPAXI@Z ; std::_Deallocate<8,0>
  0008f	59		 pop	 ecx
  00090	59		 pop	 ecx
$LN2@Change_arr:
; File C:\Program Files (x86)\Microsoft Visual Studio\2019\Community\VC\Tools\MSVC\14.28.29333\include\vector

; 1681 :         _Myfirst = _Newvec;

  00091	8b 45 fc	 mov	 eax, DWORD PTR __Myfirst$[ebp]
  00094	8b 4d 08	 mov	 ecx, DWORD PTR __Newvec$[ebp]
  00097	89 08		 mov	 DWORD PTR [eax], ecx

; 1682 :         _Mylast  = _Newvec + _Newsize;

  00099	8b 45 0c	 mov	 eax, DWORD PTR __Newsize$[ebp]
  0009c	8b 4d 08	 mov	 ecx, DWORD PTR __Newvec$[ebp]
  0009f	8d 04 81	 lea	 eax, DWORD PTR [ecx+eax*4]
  000a2	8b 4d f0	 mov	 ecx, DWORD PTR __Mylast$[ebp]
  000a5	89 01		 mov	 DWORD PTR [ecx], eax

; 1683 :         _Myend   = _Newvec + _Newcapacity;

  000a7	8b 45 10	 mov	 eax, DWORD PTR __Newcapacity$[ebp]
  000aa	8b 4d 08	 mov	 ecx, DWORD PTR __Newvec$[ebp]
  000ad	8d 04 81	 lea	 eax, DWORD PTR [ecx+eax*4]
  000b0	8b 4d ec	 mov	 ecx, DWORD PTR __Myend$[ebp]
  000b3	89 01		 mov	 DWORD PTR [ecx], eax

; 1684 :     }

  000b5	c9		 leave
  000b6	c2 0c 00	 ret	 12			; 0000000cH
?_Change_array@?$vector@PAVCGraphicImageTexture@@V?$allocator@PAVCGraphicImageTexture@@@std@@@std@@AAEXQAPAVCGraphicImageTexture@@II@Z ENDP ; std::vector<CGraphicImageTexture *,std::allocator<CGraphicImageTexture *> >::_Change_array
_TEXT	ENDS
; Function compile flags: /Odspy
; File C:\Program Files (x86)\Microsoft Visual Studio\2019\Community\VC\Tools\MSVC\14.28.29333\include\vector
; File C:\Program Files (x86)\Microsoft Visual Studio\2019\Community\VC\Tools\MSVC\14.28.29333\include\xmemory
; File C:\Program Files (x86)\Microsoft Visual Studio\2019\Community\VC\Tools\MSVC\14.28.29333\include\vector
; File C:\Program Files (x86)\Microsoft Visual Studio\2019\Community\VC\Tools\MSVC\14.28.29333\include\xmemory
; File C:\Program Files (x86)\Microsoft Visual Studio\2019\Community\VC\Tools\MSVC\14.28.29333\include\limits
; File C:\Program Files (x86)\Microsoft Visual Studio\2019\Community\VC\Tools\MSVC\14.28.29333\include\vector
; File C:\Program Files (x86)\Microsoft Visual Studio\2019\Community\VC\Tools\MSVC\14.28.29333\include\utility
; File C:\Program Files (x86)\Microsoft Visual Studio\2019\Community\VC\Tools\MSVC\14.28.29333\include\vector
;	COMDAT ?_Calculate_growth@?$vector@PAVCGraphicImageTexture@@V?$allocator@PAVCGraphicImageTexture@@@std@@@std@@ABEII@Z
_TEXT	SEGMENT
$T1 = -52						; size = 4
$T2 = -48						; size = 4
$T3 = -44						; size = 4
$T4 = -40						; size = 4
$T5 = -36						; size = 4
__Geometric$ = -32					; size = 4
__Max$ = -28						; size = 4
tv82 = -24						; size = 4
$T6 = -20						; size = 4
$T7 = -16						; size = 4
_this$ = -12						; size = 4
__My_data$8 = -8					; size = 4
__Oldcapacity$ = -4					; size = 4
__Newsize$ = 8						; size = 4
?_Calculate_growth@?$vector@PAVCGraphicImageTexture@@V?$allocator@PAVCGraphicImageTexture@@@std@@@std@@ABEII@Z PROC ; std::vector<CGraphicImageTexture *,std::allocator<CGraphicImageTexture *> >::_Calculate_growth, COMDAT
; _this$ = ecx

; 1615 :     size_type _Calculate_growth(const size_type _Newsize) const {

  00000	55		 push	 ebp
  00001	8b ec		 mov	 ebp, esp
  00003	83 ec 34	 sub	 esp, 52			; 00000034H
  00006	89 4d f4	 mov	 DWORD PTR _this$[ebp], ecx

; 1493 :         auto& _My_data = _Mypair._Myval2;

  00009	8b 45 f4	 mov	 eax, DWORD PTR _this$[ebp]
  0000c	89 45 f8	 mov	 DWORD PTR __My_data$8[ebp], eax

; 1494 :         return static_cast<size_type>(_My_data._Myend - _My_data._Myfirst);

  0000f	8b 45 f8	 mov	 eax, DWORD PTR __My_data$8[ebp]
  00012	8b 4d f8	 mov	 ecx, DWORD PTR __My_data$8[ebp]
  00015	8b 40 08	 mov	 eax, DWORD PTR [eax+8]
  00018	2b 01		 sub	 eax, DWORD PTR [ecx]
  0001a	c1 f8 02	 sar	 eax, 2
  0001d	89 45 fc	 mov	 DWORD PTR __Oldcapacity$[ebp], eax

; 1737 :         return _Mypair._Get_first();

  00020	8b 45 f4	 mov	 eax, DWORD PTR _this$[ebp]
; File C:\Program Files (x86)\Microsoft Visual Studio\2019\Community\VC\Tools\MSVC\14.28.29333\include\xmemory

; 1351 :         return *this;

  00023	89 45 dc	 mov	 DWORD PTR $T5[ebp], eax
; File C:\Program Files (x86)\Microsoft Visual Studio\2019\Community\VC\Tools\MSVC\14.28.29333\include\vector

; 1737 :         return _Mypair._Get_first();

  00026	8b 45 dc	 mov	 eax, DWORD PTR $T5[ebp]
  00029	89 45 cc	 mov	 DWORD PTR $T1[ebp], eax
; File C:\Program Files (x86)\Microsoft Visual Studio\2019\Community\VC\Tools\MSVC\14.28.29333\include\xmemory

; 710  :         return static_cast<size_t>(-1) / sizeof(value_type);

  0002c	c7 45 f0 ff ff
	ff 3f		 mov	 DWORD PTR $T7[ebp], 1073741823 ; 3fffffffH
; File C:\Program Files (x86)\Microsoft Visual Studio\2019\Community\VC\Tools\MSVC\14.28.29333\include\limits

; 557  :         return INT_MAX;

  00033	c7 45 d8 ff ff
	ff 7f		 mov	 DWORD PTR $T4[ebp], 2147483647 ; 7fffffffH
; File C:\Program Files (x86)\Microsoft Visual Studio\2019\Community\VC\Tools\MSVC\14.28.29333\include\vector

; 1488 :         return (_STD min)(

  0003a	8b 45 d8	 mov	 eax, DWORD PTR $T4[ebp]
  0003d	89 45 ec	 mov	 DWORD PTR $T6[ebp], eax
; File C:\Program Files (x86)\Microsoft Visual Studio\2019\Community\VC\Tools\MSVC\14.28.29333\include\utility

; 68   :     return _Right < _Left ? _Right : _Left;

  00040	8b 45 f0	 mov	 eax, DWORD PTR $T7[ebp]
  00043	3b 45 ec	 cmp	 eax, DWORD PTR $T6[ebp]
  00046	73 08		 jae	 SHORT $LN25@Calculate_
  00048	8d 45 f0	 lea	 eax, DWORD PTR $T7[ebp]
  0004b	89 45 e8	 mov	 DWORD PTR tv82[ebp], eax
  0004e	eb 06		 jmp	 SHORT $LN26@Calculate_
$LN25@Calculate_:
  00050	8d 45 ec	 lea	 eax, DWORD PTR $T6[ebp]
  00053	89 45 e8	 mov	 DWORD PTR tv82[ebp], eax
$LN26@Calculate_:
  00056	8b 45 e8	 mov	 eax, DWORD PTR tv82[ebp]
  00059	89 45 d4	 mov	 DWORD PTR $T3[ebp], eax
  0005c	8b 45 d4	 mov	 eax, DWORD PTR $T3[ebp]
  0005f	89 45 d0	 mov	 DWORD PTR $T2[ebp], eax
; File C:\Program Files (x86)\Microsoft Visual Studio\2019\Community\VC\Tools\MSVC\14.28.29333\include\vector

; 1488 :         return (_STD min)(

  00062	8b 45 d0	 mov	 eax, DWORD PTR $T2[ebp]
  00065	8b 00		 mov	 eax, DWORD PTR [eax]
  00067	89 45 e4	 mov	 DWORD PTR __Max$[ebp], eax

; 1616 :         // given _Oldcapacity and _Newsize, calculate geometric growth
; 1617 :         const size_type _Oldcapacity = capacity();
; 1618 :         const auto _Max              = max_size();
; 1619 : 
; 1620 :         if (_Oldcapacity > _Max - _Oldcapacity / 2) {

  0006a	8b 45 fc	 mov	 eax, DWORD PTR __Oldcapacity$[ebp]
  0006d	d1 e8		 shr	 eax, 1
  0006f	8b 4d e4	 mov	 ecx, DWORD PTR __Max$[ebp]
  00072	2b c8		 sub	 ecx, eax
  00074	39 4d fc	 cmp	 DWORD PTR __Oldcapacity$[ebp], ecx
  00077	76 05		 jbe	 SHORT $LN2@Calculate_

; 1621 :             return _Max; // geometric growth would overflow

  00079	8b 45 e4	 mov	 eax, DWORD PTR __Max$[ebp]
  0007c	eb 1b		 jmp	 SHORT $LN1@Calculate_
$LN2@Calculate_:

; 1622 :         }
; 1623 : 
; 1624 :         const size_type _Geometric = _Oldcapacity + _Oldcapacity / 2;

  0007e	8b 45 fc	 mov	 eax, DWORD PTR __Oldcapacity$[ebp]
  00081	d1 e8		 shr	 eax, 1
  00083	03 45 fc	 add	 eax, DWORD PTR __Oldcapacity$[ebp]
  00086	89 45 e0	 mov	 DWORD PTR __Geometric$[ebp], eax

; 1625 : 
; 1626 :         if (_Geometric < _Newsize) {

  00089	8b 45 e0	 mov	 eax, DWORD PTR __Geometric$[ebp]
  0008c	3b 45 08	 cmp	 eax, DWORD PTR __Newsize$[ebp]
  0008f	73 05		 jae	 SHORT $LN3@Calculate_

; 1627 :             return _Newsize; // geometric growth would be insufficient

  00091	8b 45 08	 mov	 eax, DWORD PTR __Newsize$[ebp]
  00094	eb 03		 jmp	 SHORT $LN1@Calculate_
$LN3@Calculate_:

; 1628 :         }
; 1629 : 
; 1630 :         return _Geometric; // geometric growth is sufficient

  00096	8b 45 e0	 mov	 eax, DWORD PTR __Geometric$[ebp]
$LN1@Calculate_:

; 1631 :     }

  00099	c9		 leave
  0009a	c2 04 00	 ret	 4
?_Calculate_growth@?$vector@PAVCGraphicImageTexture@@V?$allocator@PAVCGraphicImageTexture@@@std@@@std@@ABEII@Z ENDP ; std::vector<CGraphicImageTexture *,std::allocator<CGraphicImageTexture *> >::_Calculate_growth
_TEXT	ENDS
; Function compile flags: /Odspy
; File C:\Program Files (x86)\Microsoft Visual Studio\2019\Community\VC\Tools\MSVC\14.28.29333\include\vector
; File C:\Program Files (x86)\Microsoft Visual Studio\2019\Community\VC\Tools\MSVC\14.28.29333\include\xmemory
; File C:\Program Files (x86)\Microsoft Visual Studio\2019\Community\VC\Tools\MSVC\14.28.29333\include\vector
;	COMDAT ?_Destroy@?$vector@PAVCGraphicImageTexture@@V?$allocator@PAVCGraphicImageTexture@@@std@@@std@@AAEXPAPAVCGraphicImageTexture@@0@Z
_TEXT	SEGMENT
$T1 = -12						; size = 4
$T2 = -8						; size = 4
_this$ = -4						; size = 4
__First$ = 8						; size = 4
__Last$ = 12						; size = 4
?_Destroy@?$vector@PAVCGraphicImageTexture@@V?$allocator@PAVCGraphicImageTexture@@@std@@@std@@AAEXPAPAVCGraphicImageTexture@@0@Z PROC ; std::vector<CGraphicImageTexture *,std::allocator<CGraphicImageTexture *> >::_Destroy, COMDAT
; _this$ = ecx

; 1611 :     void _Destroy(pointer _First, pointer _Last) { // destroy [_First, _Last) using allocator

  00000	55		 push	 ebp
  00001	8b ec		 mov	 ebp, esp
  00003	83 ec 0c	 sub	 esp, 12			; 0000000cH
  00006	89 4d fc	 mov	 DWORD PTR _this$[ebp], ecx

; 1733 :         return _Mypair._Get_first();

  00009	8b 45 fc	 mov	 eax, DWORD PTR _this$[ebp]
; File C:\Program Files (x86)\Microsoft Visual Studio\2019\Community\VC\Tools\MSVC\14.28.29333\include\xmemory

; 1347 :         return *this;

  0000c	89 45 f8	 mov	 DWORD PTR $T2[ebp], eax
; File C:\Program Files (x86)\Microsoft Visual Studio\2019\Community\VC\Tools\MSVC\14.28.29333\include\vector

; 1733 :         return _Mypair._Get_first();

  0000f	8b 45 f8	 mov	 eax, DWORD PTR $T2[ebp]
  00012	89 45 f4	 mov	 DWORD PTR $T1[ebp], eax

; 1612 :         _Destroy_range(_First, _Last, _Getal());

  00015	ff 75 f4	 push	 DWORD PTR $T1[ebp]
  00018	ff 75 0c	 push	 DWORD PTR __Last$[ebp]
  0001b	ff 75 08	 push	 DWORD PTR __First$[ebp]
  0001e	e8 00 00 00 00	 call	 ??$_Destroy_range@V?$allocator@PAVCGraphicImageTexture@@@std@@@std@@YAXPAPAVCGraphicImageTexture@@QAPAV1@AAV?$allocator@PAVCGraphicImageTexture@@@0@@Z ; std::_Destroy_range<std::allocator<CGraphicImageTexture *> >
  00023	83 c4 0c	 add	 esp, 12			; 0000000cH

; 1613 :     }

  00026	c9		 leave
  00027	c2 08 00	 ret	 8
?_Destroy@?$vector@PAVCGraphicImageTexture@@V?$allocator@PAVCGraphicImageTexture@@@std@@@std@@AAEXPAPAVCGraphicImageTexture@@0@Z ENDP ; std::vector<CGraphicImageTexture *,std::allocator<CGraphicImageTexture *> >::_Destroy
_TEXT	ENDS
; Function compile flags: /Odspy
; File C:\Program Files (x86)\Microsoft Visual Studio\2019\Community\VC\Tools\MSVC\14.28.29333\include\vector
; File C:\Program Files (x86)\Microsoft Visual Studio\2019\Community\VC\Tools\MSVC\14.28.29333\include\xmemory
; File C:\Program Files (x86)\Microsoft Visual Studio\2019\Community\VC\Tools\MSVC\14.28.29333\include\vector
;	COMDAT ?clear@?$vector@PAVCGraphicImageTexture@@V?$allocator@PAVCGraphicImageTexture@@@std@@@std@@QAEXXZ
_TEXT	SEGMENT
__First$ = -32						; size = 4
__Last$ = -28						; size = 4
$T1 = -24						; size = 4
$T2 = -20						; size = 4
__Myfirst$ = -16					; size = 4
__Mylast$ = -12						; size = 4
_this$ = -8						; size = 4
__My_data$ = -4						; size = 4
?clear@?$vector@PAVCGraphicImageTexture@@V?$allocator@PAVCGraphicImageTexture@@@std@@@std@@QAEXXZ PROC ; std::vector<CGraphicImageTexture *,std::allocator<CGraphicImageTexture *> >::clear, COMDAT
; _this$ = ecx

; 1383 :     void clear() noexcept { // erase all

  00000	55		 push	 ebp
  00001	8b ec		 mov	 ebp, esp
  00003	83 ec 20	 sub	 esp, 32			; 00000020H
  00006	89 4d f8	 mov	 DWORD PTR _this$[ebp], ecx

; 1384 :         auto& _My_data    = _Mypair._Myval2;

  00009	8b 45 f8	 mov	 eax, DWORD PTR _this$[ebp]
  0000c	89 45 fc	 mov	 DWORD PTR __My_data$[ebp], eax

; 1385 :         pointer& _Myfirst = _My_data._Myfirst;

  0000f	8b 45 fc	 mov	 eax, DWORD PTR __My_data$[ebp]
  00012	89 45 f0	 mov	 DWORD PTR __Myfirst$[ebp], eax

; 1386 :         pointer& _Mylast  = _My_data._Mylast;

  00015	8b 45 fc	 mov	 eax, DWORD PTR __My_data$[ebp]
  00018	83 c0 04	 add	 eax, 4
  0001b	89 45 f4	 mov	 DWORD PTR __Mylast$[ebp], eax

; 1387 : 
; 1388 :         _My_data._Orphan_all();
; 1389 :         _Destroy(_Myfirst, _Mylast);

  0001e	8b 45 f4	 mov	 eax, DWORD PTR __Mylast$[ebp]
  00021	8b 00		 mov	 eax, DWORD PTR [eax]
  00023	89 45 e4	 mov	 DWORD PTR __Last$[ebp], eax
  00026	8b 45 f0	 mov	 eax, DWORD PTR __Myfirst$[ebp]
  00029	8b 00		 mov	 eax, DWORD PTR [eax]
  0002b	89 45 e0	 mov	 DWORD PTR __First$[ebp], eax

; 1733 :         return _Mypair._Get_first();

  0002e	8b 45 f8	 mov	 eax, DWORD PTR _this$[ebp]
; File C:\Program Files (x86)\Microsoft Visual Studio\2019\Community\VC\Tools\MSVC\14.28.29333\include\xmemory

; 1347 :         return *this;

  00031	89 45 ec	 mov	 DWORD PTR $T2[ebp], eax
; File C:\Program Files (x86)\Microsoft Visual Studio\2019\Community\VC\Tools\MSVC\14.28.29333\include\vector

; 1733 :         return _Mypair._Get_first();

  00034	8b 45 ec	 mov	 eax, DWORD PTR $T2[ebp]
  00037	89 45 e8	 mov	 DWORD PTR $T1[ebp], eax

; 1612 :         _Destroy_range(_First, _Last, _Getal());

  0003a	ff 75 e8	 push	 DWORD PTR $T1[ebp]
  0003d	ff 75 e4	 push	 DWORD PTR __Last$[ebp]
  00040	ff 75 e0	 push	 DWORD PTR __First$[ebp]
  00043	e8 00 00 00 00	 call	 ??$_Destroy_range@V?$allocator@PAVCGraphicImageTexture@@@std@@@std@@YAXPAPAVCGraphicImageTexture@@QAPAV1@AAV?$allocator@PAVCGraphicImageTexture@@@0@@Z ; std::_Destroy_range<std::allocator<CGraphicImageTexture *> >
  00048	83 c4 0c	 add	 esp, 12			; 0000000cH

; 1390 :         _Mylast = _Myfirst;

  0004b	8b 45 f4	 mov	 eax, DWORD PTR __Mylast$[ebp]
  0004e	8b 4d f0	 mov	 ecx, DWORD PTR __Myfirst$[ebp]
  00051	8b 09		 mov	 ecx, DWORD PTR [ecx]
  00053	89 08		 mov	 DWORD PTR [eax], ecx

; 1391 :     }

  00055	c9		 leave
  00056	c3		 ret	 0
?clear@?$vector@PAVCGraphicImageTexture@@V?$allocator@PAVCGraphicImageTexture@@@std@@@std@@QAEXXZ ENDP ; std::vector<CGraphicImageTexture *,std::allocator<CGraphicImageTexture *> >::clear
_TEXT	ENDS
; Function compile flags: /Odspy
; File C:\Program Files (x86)\Microsoft Visual Studio\2019\Community\VC\Tools\MSVC\14.28.29333\include\vector
;	COMDAT ??1?$vector@PAVCGraphicImageTexture@@V?$allocator@PAVCGraphicImageTexture@@@std@@@std@@QAE@XZ
_TEXT	SEGMENT
_this$ = -4						; size = 4
??1?$vector@PAVCGraphicImageTexture@@V?$allocator@PAVCGraphicImageTexture@@@std@@@std@@QAE@XZ PROC ; std::vector<CGraphicImageTexture *,std::allocator<CGraphicImageTexture *> >::~vector<CGraphicImageTexture *,std::allocator<CGraphicImageTexture *> >, COMDAT
; _this$ = ecx

; 672  :     ~vector() noexcept {

  00000	55		 push	 ebp
  00001	8b ec		 mov	 ebp, esp
  00003	51		 push	 ecx
  00004	89 4d fc	 mov	 DWORD PTR _this$[ebp], ecx

; 673  :         _Tidy();

  00007	8b 4d fc	 mov	 ecx, DWORD PTR _this$[ebp]
  0000a	e8 00 00 00 00	 call	 ?_Tidy@?$vector@PAVCGraphicImageTexture@@V?$allocator@PAVCGraphicImageTexture@@@std@@@std@@AAEXXZ ; std::vector<CGraphicImageTexture *,std::allocator<CGraphicImageTexture *> >::_Tidy

; 674  : #if _ITERATOR_DEBUG_LEVEL != 0
; 675  :         auto&& _Alproxy = _GET_PROXY_ALLOCATOR(_Alty, _Getal());
; 676  :         _Delete_plain_internal(_Alproxy, _STD exchange(_Mypair._Myval2._Myproxy, nullptr));
; 677  : #endif // _ITERATOR_DEBUG_LEVEL != 0
; 678  :     }

  0000f	c9		 leave
  00010	c3		 ret	 0
??1?$vector@PAVCGraphicImageTexture@@V?$allocator@PAVCGraphicImageTexture@@@std@@@std@@QAE@XZ ENDP ; std::vector<CGraphicImageTexture *,std::allocator<CGraphicImageTexture *> >::~vector<CGraphicImageTexture *,std::allocator<CGraphicImageTexture *> >
_TEXT	ENDS
; Function compile flags: /Odspy
; File C:\Program Files (x86)\Microsoft Visual Studio\2019\Community\VC\Tools\MSVC\14.28.29333\include\xmemory
;	COMDAT ?deallocate@?$allocator@PAVCGraphicImageTexture@@@std@@QAEXQAPAVCGraphicImageTexture@@I@Z
_TEXT	SEGMENT
_this$ = -4						; size = 4
__Ptr$ = 8						; size = 4
__Count$ = 12						; size = 4
?deallocate@?$allocator@PAVCGraphicImageTexture@@@std@@QAEXQAPAVCGraphicImageTexture@@I@Z PROC ; std::allocator<CGraphicImageTexture *>::deallocate, COMDAT
; _this$ = ecx

; 808  :     void deallocate(_Ty* const _Ptr, const size_t _Count) {

  00000	55		 push	 ebp
  00001	8b ec		 mov	 ebp, esp
  00003	51		 push	 ecx
  00004	89 4d fc	 mov	 DWORD PTR _this$[ebp], ecx

; 809  :         // no overflow check on the following multiply; we assume _Allocate did that check
; 810  :         _Deallocate<_New_alignof<_Ty>>(_Ptr, sizeof(_Ty) * _Count);

  00007	8b 45 0c	 mov	 eax, DWORD PTR __Count$[ebp]
  0000a	c1 e0 02	 shl	 eax, 2
  0000d	50		 push	 eax
  0000e	ff 75 08	 push	 DWORD PTR __Ptr$[ebp]
  00011	e8 00 00 00 00	 call	 ??$_Deallocate@$07$0A@@std@@YAXPAXI@Z ; std::_Deallocate<8,0>
  00016	59		 pop	 ecx
  00017	59		 pop	 ecx

; 811  :     }

  00018	c9		 leave
  00019	c2 08 00	 ret	 8
?deallocate@?$allocator@PAVCGraphicImageTexture@@@std@@QAEXQAPAVCGraphicImageTexture@@I@Z ENDP ; std::allocator<CGraphicImageTexture *>::deallocate
_TEXT	ENDS
; Function compile flags: /Odspy
; File D:\Metin2 Server Files\mainline\SRC_2014\Metin2Client\EterLib\GrpFontTexture.cpp
; File C:\Program Files (x86)\Microsoft Visual Studio\2019\Community\VC\Tools\MSVC\14.28.29333\include\xtree
; File C:\Program Files (x86)\Microsoft Visual Studio\2019\Community\VC\Tools\MSVC\14.28.29333\include\xstddef
; File C:\Program Files (x86)\Microsoft Visual Studio\2019\Community\VC\Tools\MSVC\14.28.29333\include\xtree
; File D:\Metin2 Server Files\mainline\SRC_2014\Metin2Client\EterLib\GrpFontTexture.cpp
; File C:\Program Files (x86)\Microsoft Visual Studio\2019\Community\VC\Tools\MSVC\14.28.29333\include\xtree
; File C:\Program Files (x86)\Microsoft Visual Studio\2019\Community\VC\Tools\MSVC\14.28.29333\include\xstddef
; File C:\Program Files (x86)\Microsoft Visual Studio\2019\Community\VC\Tools\MSVC\14.28.29333\include\xutility
; File C:\Program Files (x86)\Microsoft Visual Studio\2019\Community\VC\Tools\MSVC\14.28.29333\include\xtree
; File D:\Metin2 Server Files\mainline\SRC_2014\Metin2Client\EterLib\GrpFontTexture.cpp
; File C:\Program Files (x86)\Microsoft Visual Studio\2019\Community\VC\Tools\MSVC\14.28.29333\include\type_traits
; File C:\Program Files (x86)\Microsoft Visual Studio\2019\Community\VC\Tools\MSVC\14.28.29333\include\utility
; File C:\Program Files (x86)\Microsoft Visual Studio\2019\Community\VC\Tools\MSVC\14.28.29333\include\type_traits
; File C:\Program Files (x86)\Microsoft Visual Studio\2019\Community\VC\Tools\MSVC\14.28.29333\include\utility
; File D:\Metin2 Server Files\mainline\SRC_2014\Metin2Client\EterLib\GrpFontTexture.cpp
;	COMDAT ?GetFont@CGraphicFontTexture@@IAEPAUHFONT__@@G@Z
_TEXT	SEGMENT
$T1 = -36						; size = 8
$T2 = -28						; size = 8
$T3 = -20						; size = 4
$T4 = -16						; size = 4
$T5 = -12						; size = 4
$T6 = -8						; size = 4
$T7 = -4						; size = 4
$T8 = 0							; size = 4
$T9 = 4							; size = 4
$T10 = 8						; size = 4
$T11 = 12						; size = 4
___param0$ = 16						; size = 4
__Scary$12 = 20						; size = 4
$T13 = 24						; size = 4
_i$ = 28						; size = 4
tv233 = 32						; size = 4
tv251 = 36						; size = 4
_hFont$ = 40						; size = 4
_this$ = 44						; size = 4
$T14 = 50						; size = 1
$T15 = 51						; size = 1
_logFont$16 = 52					; size = 60
__$ArrayPad$ = 112					; size = 4
_codePage$ = 124					; size = 2
?GetFont@CGraphicFontTexture@@IAEPAUHFONT__@@G@Z PROC	; CGraphicFontTexture::GetFont, COMDAT
; _this$ = ecx

; 107  : {

  00000	55		 push	 ebp
  00001	8d 6c 24 8c	 lea	 ebp, DWORD PTR [esp-116]
  00005	81 ec 98 00 00
	00		 sub	 esp, 152		; 00000098H
  0000b	a1 00 00 00 00	 mov	 eax, DWORD PTR ___security_cookie
  00010	33 c5		 xor	 eax, ebp
  00012	89 45 70	 mov	 DWORD PTR __$ArrayPad$[ebp], eax
  00015	89 4d 2c	 mov	 DWORD PTR _this$[ebp], ecx

; 108  : 	HFONT hFont = NULL;

  00018	83 65 28 00	 and	 DWORD PTR _hFont$[ebp], 0

; 109  : 	TFontMap::iterator i = m_fontMap.find(codePage);

  0001c	8d 45 7c	 lea	 eax, DWORD PTR _codePage$[ebp]
  0001f	50		 push	 eax
  00020	8d 45 1c	 lea	 eax, DWORD PTR _i$[ebp]
  00023	50		 push	 eax
  00024	8b 4d 2c	 mov	 ecx, DWORD PTR _this$[ebp]
  00027	83 c1 74	 add	 ecx, 116		; 00000074H
  0002a	e8 00 00 00 00	 call	 ?find@?$_Tree@V?$_Tmap_traits@GPAUHFONT__@@U?$less@G@std@@V?$allocator@U?$pair@$$CBGPAUHFONT__@@@std@@@3@$0A@@std@@@std@@QAE?AV?$_Tree_iterator@V?$_Tree_val@U?$_Tree_simple_types@U?$pair@$$CBGPAUHFONT__@@@std@@@std@@@std@@@2@ABG@Z ; std::_Tree<std::_Tmap_traits<unsigned short,HFONT__ *,std::less<unsigned short>,std::allocator<std::pair<unsigned short const ,HFONT__ *> >,0> >::find
; File C:\Program Files (x86)\Microsoft Visual Studio\2019\Community\VC\Tools\MSVC\14.28.29333\include\xtree

; 2047 :         return _STD addressof(_Mypair._Myval2._Myval2);

  0002f	8b 45 2c	 mov	 eax, DWORD PTR _this$[ebp]
  00032	83 c0 74	 add	 eax, 116		; 00000074H
; File C:\Program Files (x86)\Microsoft Visual Studio\2019\Community\VC\Tools\MSVC\14.28.29333\include\xstddef

; 275  :     return __builtin_addressof(_Val);

  00035	89 45 18	 mov	 DWORD PTR $T13[ebp], eax
; File C:\Program Files (x86)\Microsoft Visual Studio\2019\Community\VC\Tools\MSVC\14.28.29333\include\xtree

; 2047 :         return _STD addressof(_Mypair._Myval2._Myval2);

  00038	8b 45 18	 mov	 eax, DWORD PTR $T13[ebp]
  0003b	89 45 14	 mov	 DWORD PTR __Scary$12[ebp], eax

; 1250 :         return iterator(_Scary->_Myhead, _Scary);

  0003e	8b 45 14	 mov	 eax, DWORD PTR __Scary$12[ebp]
  00041	8b 00		 mov	 eax, DWORD PTR [eax]
  00043	89 45 10	 mov	 DWORD PTR ___param0$[ebp], eax

; 39   :     _Tree_unchecked_const_iterator(_Nodeptr _Pnode, const _Mytree* _Plist) noexcept : _Ptr(_Pnode) {

  00046	8b 45 10	 mov	 eax, DWORD PTR ___param0$[ebp]
  00049	89 45 0c	 mov	 DWORD PTR $T11[ebp], eax

; 1250 :         return iterator(_Scary->_Myhead, _Scary);

  0004c	8d 45 0c	 lea	 eax, DWORD PTR $T11[ebp]
  0004f	89 45 08	 mov	 DWORD PTR $T10[ebp], eax

; 232  :         return this->_Ptr == _Right._Ptr;

  00052	8b 45 08	 mov	 eax, DWORD PTR $T10[ebp]
  00055	8b 4d 1c	 mov	 ecx, DWORD PTR _i$[ebp]
  00058	3b 08		 cmp	 ecx, DWORD PTR [eax]
  0005a	75 09		 jne	 SHORT $LN78@GetFont
  0005c	c7 45 24 01 00
	00 00		 mov	 DWORD PTR tv251[ebp], 1
  00063	eb 04		 jmp	 SHORT $LN79@GetFont
$LN78@GetFont:
  00065	83 65 24 00	 and	 DWORD PTR tv251[ebp], 0
$LN79@GetFont:
  00069	8a 45 24	 mov	 al, BYTE PTR tv251[ebp]
  0006c	88 45 33	 mov	 BYTE PTR $T15[ebp], al

; 236  :         return !(*this == _Right);

  0006f	0f b6 45 33	 movzx	 eax, BYTE PTR $T15[ebp]
  00073	85 c0		 test	 eax, eax
  00075	75 09		 jne	 SHORT $LN73@GetFont
  00077	c7 45 20 01 00
	00 00		 mov	 DWORD PTR tv233[ebp], 1
  0007e	eb 04		 jmp	 SHORT $LN74@GetFont
$LN73@GetFont:
  00080	83 65 20 00	 and	 DWORD PTR tv233[ebp], 0
$LN74@GetFont:
  00084	8a 45 20	 mov	 al, BYTE PTR tv233[ebp]
  00087	88 45 32	 mov	 BYTE PTR $T14[ebp], al
; File D:\Metin2 Server Files\mainline\SRC_2014\Metin2Client\EterLib\GrpFontTexture.cpp

; 111  : 	if(i != m_fontMap.end())

  0008a	0f b6 45 32	 movzx	 eax, BYTE PTR $T14[ebp]
  0008e	85 c0		 test	 eax, eax
  00090	74 2f		 je	 SHORT $LN2@GetFont
; File C:\Program Files (x86)\Microsoft Visual Studio\2019\Community\VC\Tools\MSVC\14.28.29333\include\xtree

; 185  :         return this->_Ptr->_Myval;

  00092	8b 45 1c	 mov	 eax, DWORD PTR _i$[ebp]
  00095	83 c0 10	 add	 eax, 16			; 00000010H
  00098	89 45 04	 mov	 DWORD PTR $T9[ebp], eax

; 273  :         return const_cast<reference>(_Mybase::operator*());

  0009b	8b 45 04	 mov	 eax, DWORD PTR $T9[ebp]
  0009e	89 45 00	 mov	 DWORD PTR $T8[ebp], eax
; File C:\Program Files (x86)\Microsoft Visual Studio\2019\Community\VC\Tools\MSVC\14.28.29333\include\xstddef

; 275  :     return __builtin_addressof(_Val);

  000a1	8b 45 00	 mov	 eax, DWORD PTR $T8[ebp]
  000a4	89 45 fc	 mov	 DWORD PTR $T7[ebp], eax
; File C:\Program Files (x86)\Microsoft Visual Studio\2019\Community\VC\Tools\MSVC\14.28.29333\include\xutility

; 151  :         return _STD addressof(_Val);

  000a7	8b 45 fc	 mov	 eax, DWORD PTR $T7[ebp]
  000aa	89 45 f8	 mov	 DWORD PTR $T6[ebp], eax
; File C:\Program Files (x86)\Microsoft Visual Studio\2019\Community\VC\Tools\MSVC\14.28.29333\include\xtree

; 277  :         return pointer_traits<pointer>::pointer_to(**this);

  000ad	8b 45 f8	 mov	 eax, DWORD PTR $T6[ebp]
  000b0	89 45 f4	 mov	 DWORD PTR $T5[ebp], eax
; File D:\Metin2 Server Files\mainline\SRC_2014\Metin2Client\EterLib\GrpFontTexture.cpp

; 113  : 		hFont = i->second;

  000b3	8b 45 f4	 mov	 eax, DWORD PTR $T5[ebp]
  000b6	8b 40 04	 mov	 eax, DWORD PTR [eax+4]
  000b9	89 45 28	 mov	 DWORD PTR _hFont$[ebp], eax

; 114  : 	}

  000bc	e9 ad 00 00 00	 jmp	 $LN3@GetFont
$LN2@GetFont:

; 115  : 	else
; 116  : 	{
; 117  : 		LOGFONT logFont;
; 118  : 
; 119  : 		memset(&logFont, 0, sizeof(LOGFONT));

  000c1	6a 3c		 push	 60			; 0000003cH
  000c3	6a 00		 push	 0
  000c5	8d 45 34	 lea	 eax, DWORD PTR _logFont$16[ebp]
  000c8	50		 push	 eax
  000c9	e8 00 00 00 00	 call	 _memset
  000ce	83 c4 0c	 add	 esp, 12			; 0000000cH

; 120  : 
; 121  : 		logFont.lfHeight			= m_fontSize;

  000d1	8b 45 2c	 mov	 eax, DWORD PTR _this$[ebp]
  000d4	8b 80 ac 00 00
	00		 mov	 eax, DWORD PTR [eax+172]
  000da	89 45 34	 mov	 DWORD PTR _logFont$16[ebp], eax

; 122  : 		logFont.lfEscapement		= 0;

  000dd	83 65 3c 00	 and	 DWORD PTR _logFont$16[ebp+8], 0

; 123  : 		logFont.lfOrientation		= 0;

  000e1	83 65 40 00	 and	 DWORD PTR _logFont$16[ebp+12], 0

; 124  : 		logFont.lfWeight			= FW_NORMAL;

  000e5	c7 45 44 90 01
	00 00		 mov	 DWORD PTR _logFont$16[ebp+16], 400 ; 00000190H

; 125  : 		logFont.lfItalic			= (BYTE) m_bItalic;

  000ec	8b 45 2c	 mov	 eax, DWORD PTR _this$[ebp]
  000ef	8a 80 b0 00 00
	00		 mov	 al, BYTE PTR [eax+176]
  000f5	88 45 48	 mov	 BYTE PTR _logFont$16[ebp+20], al

; 126  : 		logFont.lfUnderline			= FALSE;

  000f8	c6 45 49 00	 mov	 BYTE PTR _logFont$16[ebp+21], 0

; 127  : 		logFont.lfStrikeOut			= FALSE;

  000fc	c6 45 4a 00	 mov	 BYTE PTR _logFont$16[ebp+22], 0

; 128  : 		logFont.lfCharSet			= GetCharsetFromCodePage(codePage);

  00100	ff 75 7c	 push	 DWORD PTR _codePage$[ebp]
  00103	e8 00 00 00 00	 call	 ?GetCharsetFromCodePage@@YAHG@Z ; GetCharsetFromCodePage
  00108	59		 pop	 ecx
  00109	88 45 4b	 mov	 BYTE PTR _logFont$16[ebp+23], al

; 129  : 		logFont.lfOutPrecision		= OUT_DEFAULT_PRECIS;

  0010c	c6 45 4c 00	 mov	 BYTE PTR _logFont$16[ebp+24], 0

; 130  : 		logFont.lfClipPrecision		= CLIP_DEFAULT_PRECIS;

  00110	c6 45 4d 00	 mov	 BYTE PTR _logFont$16[ebp+25], 0

; 131  : 		logFont.lfQuality			= ANTIALIASED_QUALITY;

  00114	c6 45 4e 04	 mov	 BYTE PTR _logFont$16[ebp+26], 4

; 132  : 		logFont.lfPitchAndFamily	= DEFAULT_PITCH;

  00118	c6 45 4f 00	 mov	 BYTE PTR _logFont$16[ebp+27], 0

; 133  : 		//Tracenf("font: %s", GetFontFaceFromCodePage(codePage));
; 134  : 		strcpy(logFont.lfFaceName, m_fontName); //GetFontFaceFromCodePage(codePage));

  0011c	8b 45 2c	 mov	 eax, DWORD PTR _this$[ebp]
  0011f	05 89 00 00 00	 add	 eax, 137		; 00000089H
  00124	50		 push	 eax
  00125	8d 45 50	 lea	 eax, DWORD PTR _logFont$16[ebp+28]
  00128	50		 push	 eax
  00129	e8 00 00 00 00	 call	 _strcpy
  0012e	59		 pop	 ecx
  0012f	59		 pop	 ecx

; 135  : 		//strcpy(logFont.lfFaceName, GetFontFaceFromCodePage(codePage));
; 136  : 
; 137  : 		hFont = CreateFontIndirect(&logFont);

  00130	8d 45 34	 lea	 eax, DWORD PTR _logFont$16[ebp]
  00133	50		 push	 eax
  00134	ff 15 00 00 00
	00		 call	 DWORD PTR __imp__CreateFontIndirectA@4
  0013a	89 45 28	 mov	 DWORD PTR _hFont$[ebp], eax
; File C:\Program Files (x86)\Microsoft Visual Studio\2019\Community\VC\Tools\MSVC\14.28.29333\include\type_traits

; 1443 :     return static_cast<_Ty&&>(_Arg);

  0013d	8d 45 7c	 lea	 eax, DWORD PTR _codePage$[ebp]
  00140	89 45 f0	 mov	 DWORD PTR $T4[ebp], eax
; File C:\Program Files (x86)\Microsoft Visual Studio\2019\Community\VC\Tools\MSVC\14.28.29333\include\utility

; 190  :         : first(_STD forward<_Other1>(_Val1)), second(_STD forward<_Other2>(_Val2)) {}

  00143	8b 45 f0	 mov	 eax, DWORD PTR $T4[ebp]
  00146	66 8b 00	 mov	 ax, WORD PTR [eax]
  00149	66 89 45 e4	 mov	 WORD PTR $T2[ebp], ax
; File C:\Program Files (x86)\Microsoft Visual Studio\2019\Community\VC\Tools\MSVC\14.28.29333\include\type_traits

; 1443 :     return static_cast<_Ty&&>(_Arg);

  0014d	8d 45 28	 lea	 eax, DWORD PTR _hFont$[ebp]
  00150	89 45 ec	 mov	 DWORD PTR $T3[ebp], eax
; File C:\Program Files (x86)\Microsoft Visual Studio\2019\Community\VC\Tools\MSVC\14.28.29333\include\utility

; 190  :         : first(_STD forward<_Other1>(_Val1)), second(_STD forward<_Other2>(_Val2)) {}

  00153	8b 45 ec	 mov	 eax, DWORD PTR $T3[ebp]
  00156	8b 00		 mov	 eax, DWORD PTR [eax]
  00158	89 45 e8	 mov	 DWORD PTR $T2[ebp+4], eax
; File D:\Metin2 Server Files\mainline\SRC_2014\Metin2Client\EterLib\GrpFontTexture.cpp

; 139  : 		m_fontMap.insert(TFontMap::value_type(codePage, hFont));

  0015b	8d 45 e4	 lea	 eax, DWORD PTR $T2[ebp]
  0015e	50		 push	 eax
  0015f	8d 45 dc	 lea	 eax, DWORD PTR $T1[ebp]
  00162	50		 push	 eax
  00163	8b 4d 2c	 mov	 ecx, DWORD PTR _this$[ebp]
  00166	83 c1 74	 add	 ecx, 116		; 00000074H
  00169	e8 00 00 00 00	 call	 ??$insert@$0A@$0A@@?$_Tree@V?$_Tmap_traits@GPAUHFONT__@@U?$less@G@std@@V?$allocator@U?$pair@$$CBGPAUHFONT__@@@std@@@3@$0A@@std@@@std@@QAE?AU?$pair@V?$_Tree_iterator@V?$_Tree_val@U?$_Tree_simple_types@U?$pair@$$CBGPAUHFONT__@@@std@@@std@@@std@@@std@@_N@1@$$QAU?$pair@$$CBGPAUHFONT__@@@1@@Z ; std::_Tree<std::_Tmap_traits<unsigned short,HFONT__ *,std::less<unsigned short>,std::allocator<std::pair<unsigned short const ,HFONT__ *> >,0> >::insert<0,0>
$LN3@GetFont:

; 140  : 	}
; 141  : 
; 142  : 	return hFont;

  0016e	8b 45 28	 mov	 eax, DWORD PTR _hFont$[ebp]

; 143  : }

  00171	8b 4d 70	 mov	 ecx, DWORD PTR __$ArrayPad$[ebp]
  00174	33 cd		 xor	 ecx, ebp
  00176	e8 00 00 00 00	 call	 @__security_check_cookie@4
  0017b	83 c5 74	 add	 ebp, 116		; 00000074H
  0017e	c9		 leave
  0017f	c2 04 00	 ret	 4
?GetFont@CGraphicFontTexture@@IAEPAUHFONT__@@G@Z ENDP	; CGraphicFontTexture::GetFont
_TEXT	ENDS
; Function compile flags: /Odspy
; File D:\Metin2 Server Files\mainline\SRC_2014\Metin2Client\EterLib\GrpFontTexture.cpp
; File C:\Program Files (x86)\Microsoft Visual Studio\2019\Community\VC\Tools\MSVC\14.28.29333\include\vector
; File D:\Metin2 Server Files\mainline\SRC_2014\Metin2Client\EterLib\GrpFontTexture.cpp
; File C:\Program Files (x86)\Microsoft Visual Studio\2019\Community\VC\Tools\MSVC\14.28.29333\include\vector
; File D:\Metin2 Server Files\mainline\SRC_2014\Metin2Client\EterLib\GrpFontTexture.cpp
;	COMDAT ?AppendTexture@CGraphicFontTexture@@IAE_NXZ
_TEXT	SEGMENT
tv131 = -40						; size = 4
$T2 = -36						; size = 4
tv75 = -32						; size = 4
$T3 = -28						; size = 4
_this$ = -24						; size = 4
_pNewTexture$ = -20					; size = 4
$T4 = -16						; size = 4
__$EHRec$ = -12						; size = 12
?AppendTexture@CGraphicFontTexture@@IAE_NXZ PROC	; CGraphicFontTexture::AppendTexture, COMDAT
; _this$ = ecx

; 146  : {

  00000	55		 push	 ebp
  00001	8b ec		 mov	 ebp, esp
  00003	6a ff		 push	 -1
  00005	68 00 00 00 00	 push	 __ehhandler$?AppendTexture@CGraphicFontTexture@@IAE_NXZ
  0000a	64 a1 00 00 00
	00		 mov	 eax, DWORD PTR fs:0
  00010	50		 push	 eax
  00011	83 ec 1c	 sub	 esp, 28			; 0000001cH
  00014	a1 00 00 00 00	 mov	 eax, DWORD PTR ___security_cookie
  00019	33 c5		 xor	 eax, ebp
  0001b	50		 push	 eax
  0001c	8d 45 f4	 lea	 eax, DWORD PTR __$EHRec$[ebp]
  0001f	64 a3 00 00 00
	00		 mov	 DWORD PTR fs:0, eax
  00025	89 4d e8	 mov	 DWORD PTR _this$[ebp], ecx

; 147  : 	CGraphicImageTexture * pNewTexture = new CGraphicImageTexture;

  00028	6a 34		 push	 52			; 00000034H
  0002a	e8 00 00 00 00	 call	 ??2@YAPAXI@Z		; operator new
  0002f	59		 pop	 ecx
  00030	89 45 e4	 mov	 DWORD PTR $T3[ebp], eax
  00033	83 65 fc 00	 and	 DWORD PTR __$EHRec$[ebp+8], 0
  00037	83 7d e4 00	 cmp	 DWORD PTR $T3[ebp], 0
  0003b	74 0d		 je	 SHORT $LN4@AppendText
  0003d	8b 4d e4	 mov	 ecx, DWORD PTR $T3[ebp]
  00040	e8 00 00 00 00	 call	 ??0CGraphicImageTexture@@QAE@XZ ; CGraphicImageTexture::CGraphicImageTexture
  00045	89 45 e0	 mov	 DWORD PTR tv75[ebp], eax
  00048	eb 04		 jmp	 SHORT $LN5@AppendText
$LN4@AppendText:
  0004a	83 65 e0 00	 and	 DWORD PTR tv75[ebp], 0
$LN5@AppendText:
  0004e	8b 45 e0	 mov	 eax, DWORD PTR tv75[ebp]
  00051	89 45 dc	 mov	 DWORD PTR $T2[ebp], eax
  00054	83 4d fc ff	 or	 DWORD PTR __$EHRec$[ebp+8], -1
  00058	8b 45 dc	 mov	 eax, DWORD PTR $T2[ebp]
  0005b	89 45 ec	 mov	 DWORD PTR _pNewTexture$[ebp], eax

; 148  : 
; 149  : 	if (!pNewTexture->Create(m_dib.GetWidth(), m_dib.GetHeight(), D3DFMT_A4R4G4B4))

  0005e	6a 03		 push	 3
  00060	6a 1a		 push	 26			; 0000001aH
  00062	8b 4d e8	 mov	 ecx, DWORD PTR _this$[ebp]
  00065	83 c1 14	 add	 ecx, 20			; 00000014H
  00068	e8 00 00 00 00	 call	 ?GetHeight@CGraphicDib@@QAEHXZ ; CGraphicDib::GetHeight
  0006d	50		 push	 eax
  0006e	8b 4d e8	 mov	 ecx, DWORD PTR _this$[ebp]
  00071	83 c1 14	 add	 ecx, 20			; 00000014H
  00074	e8 00 00 00 00	 call	 ?GetWidth@CGraphicDib@@QAEHXZ ; CGraphicDib::GetWidth
  00079	50		 push	 eax
  0007a	8b 4d ec	 mov	 ecx, DWORD PTR _pNewTexture$[ebp]
  0007d	e8 00 00 00 00	 call	 ?Create@CGraphicImageTexture@@QAE_NIIW4_D3DFORMAT@@K@Z ; CGraphicImageTexture::Create
  00082	0f b6 c0	 movzx	 eax, al
  00085	85 c0		 test	 eax, eax
  00087	75 25		 jne	 SHORT $LN2@AppendText

; 150  : 	{
; 151  : 		delete pNewTexture;

  00089	8b 45 ec	 mov	 eax, DWORD PTR _pNewTexture$[ebp]
  0008c	89 45 f0	 mov	 DWORD PTR $T4[ebp], eax
  0008f	83 7d f0 00	 cmp	 DWORD PTR $T4[ebp], 0
  00093	74 11		 je	 SHORT $LN6@AppendText
  00095	6a 01		 push	 1
  00097	8b 45 f0	 mov	 eax, DWORD PTR $T4[ebp]
  0009a	8b 00		 mov	 eax, DWORD PTR [eax]
  0009c	8b 4d f0	 mov	 ecx, DWORD PTR $T4[ebp]
  0009f	ff 10		 call	 DWORD PTR [eax]
  000a1	89 45 d8	 mov	 DWORD PTR tv131[ebp], eax
  000a4	eb 04		 jmp	 SHORT $LN7@AppendText
$LN6@AppendText:
  000a6	83 65 d8 00	 and	 DWORD PTR tv131[ebp], 0
$LN7@AppendText:

; 152  : 		return false;

  000aa	32 c0		 xor	 al, al
  000ac	eb 11		 jmp	 SHORT $LN1@AppendText
$LN2@AppendText:
; File C:\Program Files (x86)\Microsoft Visual Studio\2019\Community\VC\Tools\MSVC\14.28.29333\include\vector

; 717  :         emplace_back(_Val);

  000ae	8d 45 ec	 lea	 eax, DWORD PTR _pNewTexture$[ebp]
  000b1	50		 push	 eax
; File D:\Metin2 Server Files\mainline\SRC_2014\Metin2Client\EterLib\GrpFontTexture.cpp

; 155  : 	m_pFontTextureVector.push_back(pNewTexture);

  000b2	8b 4d e8	 mov	 ecx, DWORD PTR _this$[ebp]
  000b5	83 c1 60	 add	 ecx, 96			; 00000060H
; File C:\Program Files (x86)\Microsoft Visual Studio\2019\Community\VC\Tools\MSVC\14.28.29333\include\vector

; 717  :         emplace_back(_Val);

  000b8	e8 00 00 00 00	 call	 ??$emplace_back@ABQAVCGraphicImageTexture@@@?$vector@PAVCGraphicImageTexture@@V?$allocator@PAVCGraphicImageTexture@@@std@@@std@@QAEXABQAVCGraphicImageTexture@@@Z ; std::vector<CGraphicImageTexture *,std::allocator<CGraphicImageTexture *> >::emplace_back<CGraphicImageTexture * const &>
; File D:\Metin2 Server Files\mainline\SRC_2014\Metin2Client\EterLib\GrpFontTexture.cpp

; 156  : 	return true;

  000bd	b0 01		 mov	 al, 1
$LN1@AppendText:

; 157  : }

  000bf	8b 4d f4	 mov	 ecx, DWORD PTR __$EHRec$[ebp]
  000c2	64 89 0d 00 00
	00 00		 mov	 DWORD PTR fs:0, ecx
  000c9	59		 pop	 ecx
  000ca	c9		 leave
  000cb	c3		 ret	 0
_TEXT	ENDS
;	COMDAT text$x
text$x	SEGMENT
__unwindfunclet$?AppendTexture@CGraphicFontTexture@@IAE_NXZ$0:
  00000	6a 34		 push	 52			; 00000034H
  00002	ff 75 e4	 push	 DWORD PTR $T3[ebp]
  00005	e8 00 00 00 00	 call	 ??3@YAXPAXI@Z		; operator delete
  0000a	59		 pop	 ecx
  0000b	59		 pop	 ecx
  0000c	c3		 ret	 0
  0000d	cc		 int	 3
  0000e	cc		 int	 3
  0000f	cc		 int	 3
  00010	cc		 int	 3
  00011	cc		 int	 3
__ehhandler$?AppendTexture@CGraphicFontTexture@@IAE_NXZ:
  00012	90		 npad	 1
  00013	90		 npad	 1
  00014	8b 54 24 08	 mov	 edx, DWORD PTR [esp+8]
  00018	8d 42 0c	 lea	 eax, DWORD PTR [edx+12]
  0001b	8b 4a e0	 mov	 ecx, DWORD PTR [edx-32]
  0001e	33 c8		 xor	 ecx, eax
  00020	e8 00 00 00 00	 call	 @__security_check_cookie@4
  00025	b8 00 00 00 00	 mov	 eax, OFFSET __ehfuncinfo$?AppendTexture@CGraphicFontTexture@@IAE_NXZ
  0002a	e9 00 00 00 00	 jmp	 ___CxxFrameHandler3
text$x	ENDS
?AppendTexture@CGraphicFontTexture@@IAE_NXZ ENDP	; CGraphicFontTexture::AppendTexture
; Function compile flags: /Odspy
; File D:\Metin2 Server Files\mainline\SRC_2014\Metin2Client\EterLib\GrpFontTexture.cpp
;	COMDAT ?Initialize@CGraphicFontTexture@@IAEXXZ
_TEXT	SEGMENT
_this$ = -4						; size = 4
?Initialize@CGraphicFontTexture@@IAEXXZ PROC		; CGraphicFontTexture::Initialize, COMDAT
; _this$ = ecx

; 18   : {

  00000	55		 push	 ebp
  00001	8b ec		 mov	 ebp, esp
  00003	51		 push	 ecx
  00004	89 4d fc	 mov	 DWORD PTR _this$[ebp], ecx

; 19   : 	CGraphicTexture::Initialize();

  00007	8b 4d fc	 mov	 ecx, DWORD PTR _this$[ebp]
  0000a	e8 00 00 00 00	 call	 ?Initialize@CGraphicTexture@@IAEXXZ ; CGraphicTexture::Initialize

; 20   : 	m_hFontOld = NULL;

  0000f	8b 45 fc	 mov	 eax, DWORD PTR _this$[ebp]
  00012	83 60 58 00	 and	 DWORD PTR [eax+88], 0

; 21   : 	m_hFont = NULL;

  00016	8b 45 fc	 mov	 eax, DWORD PTR _this$[ebp]
  00019	83 60 5c 00	 and	 DWORD PTR [eax+92], 0

; 22   : 	m_isDirty = false;

  0001d	8b 45 fc	 mov	 eax, DWORD PTR _this$[ebp]
  00020	c6 80 88 00 00
	00 00		 mov	 BYTE PTR [eax+136], 0

; 23   : 	m_bItalic = false;

  00027	8b 45 fc	 mov	 eax, DWORD PTR _this$[ebp]
  0002a	c6 80 b0 00 00
	00 00		 mov	 BYTE PTR [eax+176], 0

; 24   : }

  00031	c9		 leave
  00032	c3		 ret	 0
?Initialize@CGraphicFontTexture@@IAEXXZ ENDP		; CGraphicFontTexture::Initialize
_TEXT	ENDS
; Function compile flags: /Odspy
; File D:\Metin2 Server Files\mainline\SRC_2014\Metin2Client\EterLib\GrpFontTexture.cpp
; File C:\Program Files (x86)\Microsoft Visual Studio\2019\Community\VC\Tools\MSVC\14.28.29333\include\xtree
; File C:\Program Files (x86)\Microsoft Visual Studio\2019\Community\VC\Tools\MSVC\14.28.29333\include\xstddef
; File C:\Program Files (x86)\Microsoft Visual Studio\2019\Community\VC\Tools\MSVC\14.28.29333\include\xtree
; File D:\Metin2 Server Files\mainline\SRC_2014\Metin2Client\EterLib\GrpFontTexture.cpp
;	COMDAT ?IsEmpty@CGraphicFontTexture@@UBE_NXZ
_TEXT	SEGMENT
$T1 = -20						; size = 4
$T2 = -16						; size = 4
$T3 = -12						; size = 4
_this$ = -8						; size = 4
tv72 = -4						; size = 4
?IsEmpty@CGraphicFontTexture@@UBE_NXZ PROC		; CGraphicFontTexture::IsEmpty, COMDAT
; _this$ = ecx

; 27   : {

  00000	55		 push	 ebp
  00001	8b ec		 mov	 ebp, esp
  00003	83 ec 14	 sub	 esp, 20			; 00000014H
  00006	89 4d f8	 mov	 DWORD PTR _this$[ebp], ecx
; File C:\Program Files (x86)\Microsoft Visual Studio\2019\Community\VC\Tools\MSVC\14.28.29333\include\xtree

; 2051 :         return _STD addressof(_Mypair._Myval2._Myval2);

  00009	8b 45 f8	 mov	 eax, DWORD PTR _this$[ebp]
  0000c	83 c0 74	 add	 eax, 116		; 00000074H
; File C:\Program Files (x86)\Microsoft Visual Studio\2019\Community\VC\Tools\MSVC\14.28.29333\include\xstddef

; 275  :     return __builtin_addressof(_Val);

  0000f	89 45 f4	 mov	 DWORD PTR $T3[ebp], eax
; File C:\Program Files (x86)\Microsoft Visual Studio\2019\Community\VC\Tools\MSVC\14.28.29333\include\xtree

; 2051 :         return _STD addressof(_Mypair._Myval2._Myval2);

  00012	8b 45 f4	 mov	 eax, DWORD PTR $T3[ebp]
  00015	89 45 f0	 mov	 DWORD PTR $T2[ebp], eax

; 1307 :         return _Get_scary()->_Mysize;

  00018	8b 45 f0	 mov	 eax, DWORD PTR $T2[ebp]
  0001b	8b 40 04	 mov	 eax, DWORD PTR [eax+4]
  0001e	89 45 ec	 mov	 DWORD PTR $T1[ebp], eax
; File D:\Metin2 Server Files\mainline\SRC_2014\Metin2Client\EterLib\GrpFontTexture.cpp

; 28   : 	return m_fontMap.size() == 0;

  00021	83 7d ec 00	 cmp	 DWORD PTR $T1[ebp], 0
  00025	75 09		 jne	 SHORT $LN3@IsEmpty
  00027	c7 45 fc 01 00
	00 00		 mov	 DWORD PTR tv72[ebp], 1
  0002e	eb 04		 jmp	 SHORT $LN4@IsEmpty
$LN3@IsEmpty:
  00030	83 65 fc 00	 and	 DWORD PTR tv72[ebp], 0
$LN4@IsEmpty:
  00034	8a 45 fc	 mov	 al, BYTE PTR tv72[ebp]

; 29   : }

  00037	c9		 leave
  00038	c3		 ret	 0
?IsEmpty@CGraphicFontTexture@@UBE_NXZ ENDP		; CGraphicFontTexture::IsEmpty
_TEXT	ENDS
; Function compile flags: /Odspy
; File D:\Metin2 Server Files\mainline\SRC_2014\Metin2Client\EterLib\GrpFontTexture.cpp
; File C:\Program Files (x86)\Windows Kits\10\Include\10.0.18362.0\ucrt\corecrt_math.h
; File D:\Metin2 Server Files\mainline\SRC_2014\Metin2Client\EterLib\GrpFontTexture.cpp
; File C:\Program Files (x86)\Windows Kits\10\Include\10.0.18362.0\ucrt\corecrt_math.h
; File D:\Metin2 Server Files\mainline\SRC_2014\Metin2Client\EterLib\GrpFontTexture.cpp
; File C:\Program Files (x86)\Windows Kits\10\Include\10.0.18362.0\ucrt\corecrt_math.h
; File D:\Metin2 Server Files\mainline\SRC_2014\Metin2Client\EterLib\GrpFontTexture.cpp
; File C:\Program Files (x86)\Microsoft Visual Studio\2019\Community\VC\Tools\MSVC\14.28.29333\include\map
; File D:\Metin2 Server Files\mainline\SRC_2014\Metin2Client\EterLib\GrpFontTexture.cpp
; File C:\Program Files (x86)\Microsoft Visual Studio\2019\Community\VC\Tools\MSVC\14.28.29333\include\map
; File D:\Metin2 Server Files\mainline\SRC_2014\Metin2Client\EterLib\GrpFontTexture.cpp
; File C:\Program Files (x86)\Microsoft Visual Studio\2019\Community\VC\Tools\MSVC\14.28.29333\include\vector
; File D:\Metin2 Server Files\mainline\SRC_2014\Metin2Client\EterLib\GrpFontTexture.cpp
;	COMDAT ?UpdateCharacterInfomation@CGraphicFontTexture@@QAEPAUSCharacterInfomation@1@U?$pair@G_W@std@@@Z
_TEXT	SEGMENT
$T1 = -136						; size = 8
_lAdvance$ = -128					; size = 4
$T2 = -124						; size = 4
_nChrWidth$ = -120					; size = 4
_nChrHeight$ = -116					; size = 4
_pdwDIBBase$ = -112					; size = 4
_pdwDIBData$ = -108					; size = 4
tv334 = -104						; size = 4
__X$ = -100						; size = 4
$T3 = -96						; size = 4
__X$ = -92						; size = 4
$T4 = -88						; size = 4
__X$ = -84						; size = 4
_rhheight$ = -80					; size = 4
_rhwidth$ = -76						; size = 4
__My_data$5 = -72					; size = 4
_height$ = -68						; size = 4
_width$ = -64						; size = 4
tv201 = -60						; size = 4
_nDIBWidth$ = -56					; size = 4
_nChrY$ = -52						; size = 4
_pdwDIBRow$ = -48					; size = 4
_hDC$ = -44						; size = 4
_nChrX$ = -40						; size = 4
_size$ = -36						; size = 8
_rNewCharInfo$ = -28					; size = 4
_keyValue$ = -24					; size = 2
_this$ = -20						; size = 4
_stABC$ = -16						; size = 12
__$ArrayPad$ = -4					; size = 4
_code$ = 8						; size = 4
?UpdateCharacterInfomation@CGraphicFontTexture@@QAEPAUSCharacterInfomation@1@U?$pair@G_W@std@@@Z PROC ; CGraphicFontTexture::UpdateCharacterInfomation, COMDAT
; _this$ = ecx

; 209  : {

  00000	55		 push	 ebp
  00001	8b ec		 mov	 ebp, esp
  00003	81 ec 88 00 00
	00		 sub	 esp, 136		; 00000088H
  00009	a1 00 00 00 00	 mov	 eax, DWORD PTR ___security_cookie
  0000e	33 c5		 xor	 eax, ebp
  00010	89 45 fc	 mov	 DWORD PTR __$ArrayPad$[ebp], eax
  00013	89 4d ec	 mov	 DWORD PTR _this$[ebp], ecx

; 210  : 	HDC hDC = m_dib.GetDCHandle();

  00016	8b 4d ec	 mov	 ecx, DWORD PTR _this$[ebp]
  00019	83 c1 14	 add	 ecx, 20			; 00000014H
  0001c	e8 00 00 00 00	 call	 ?GetDCHandle@CGraphicDib@@QAEPAUHDC__@@XZ ; CGraphicDib::GetDCHandle
  00021	89 45 d4	 mov	 DWORD PTR _hDC$[ebp], eax

; 211  : 	SelectObject(hDC, GetFont(code.first));

  00024	ff 75 08	 push	 DWORD PTR _code$[ebp]
  00027	8b 4d ec	 mov	 ecx, DWORD PTR _this$[ebp]
  0002a	e8 00 00 00 00	 call	 ?GetFont@CGraphicFontTexture@@IAEPAUHFONT__@@G@Z ; CGraphicFontTexture::GetFont
  0002f	50		 push	 eax
  00030	ff 75 d4	 push	 DWORD PTR _hDC$[ebp]
  00033	ff 15 00 00 00
	00		 call	 DWORD PTR __imp__SelectObject@8

; 212  : 
; 213  : 	wchar_t keyValue = code.second;

  00039	66 8b 45 0a	 mov	 ax, WORD PTR _code$[ebp+2]
  0003d	66 89 45 e8	 mov	 WORD PTR _keyValue$[ebp], ax

; 214  : 
; 215  : 	if (keyValue == 0x08)

  00041	0f b7 45 e8	 movzx	 eax, WORD PTR _keyValue$[ebp]
  00045	83 f8 08	 cmp	 eax, 8
  00048	75 07		 jne	 SHORT $LN8@UpdateChar

; 216  : 		keyValue = L' '; //    (   : NAME:\tTEXT -> TEXT\t:NAME   )

  0004a	6a 20		 push	 32			; 00000020H
  0004c	58		 pop	 eax
  0004d	66 89 45 e8	 mov	 WORD PTR _keyValue$[ebp], ax
$LN8@UpdateChar:

; 217  : 
; 218  : 	ABCFLOAT	stABC;
; 219  : 	SIZE		size;
; 220  : 
; 221  : 	if (!GetTextExtentPoint32W(hDC, &keyValue, 1, &size) || !GetCharABCWidthsFloatW(hDC, keyValue, keyValue, &stABC))

  00051	8d 45 dc	 lea	 eax, DWORD PTR _size$[ebp]
  00054	50		 push	 eax
  00055	6a 01		 push	 1
  00057	8d 45 e8	 lea	 eax, DWORD PTR _keyValue$[ebp]
  0005a	50		 push	 eax
  0005b	ff 75 d4	 push	 DWORD PTR _hDC$[ebp]
  0005e	ff 15 00 00 00
	00		 call	 DWORD PTR __imp__GetTextExtentPoint32W@16
  00064	85 c0		 test	 eax, eax
  00066	74 1b		 je	 SHORT $LN10@UpdateChar
  00068	8d 45 f0	 lea	 eax, DWORD PTR _stABC$[ebp]
  0006b	50		 push	 eax
  0006c	0f b7 45 e8	 movzx	 eax, WORD PTR _keyValue$[ebp]
  00070	50		 push	 eax
  00071	0f b7 45 e8	 movzx	 eax, WORD PTR _keyValue$[ebp]
  00075	50		 push	 eax
  00076	ff 75 d4	 push	 DWORD PTR _hDC$[ebp]
  00079	ff 15 00 00 00
	00		 call	 DWORD PTR __imp__GetCharABCWidthsFloatW@16
  0007f	85 c0		 test	 eax, eax
  00081	75 07		 jne	 SHORT $LN9@UpdateChar
$LN10@UpdateChar:

; 222  : 		return NULL;

  00083	33 c0		 xor	 eax, eax
  00085	e9 62 03 00 00	 jmp	 $LN1@UpdateChar
$LN9@UpdateChar:

; 223  : 
; 224  : 	size.cx = stABC.abcfB;

  0008a	f3 0f 2c 45 f4	 cvttss2si eax, DWORD PTR _stABC$[ebp+4]
  0008f	89 45 dc	 mov	 DWORD PTR _size$[ebp], eax

; 225  : 	if( stABC.abcfA > 0.0f )

  00092	f3 0f 10 45 f0	 movss	 xmm0, DWORD PTR _stABC$[ebp]
  00097	0f 2f 05 00 00
	00 00		 comiss	 xmm0, DWORD PTR __real@00000000
  0009e	76 31		 jbe	 SHORT $LN11@UpdateChar

; 226  : 		size.cx += ceilf(stABC.abcfA);

  000a0	f3 0f 10 45 f0	 movss	 xmm0, DWORD PTR _stABC$[ebp]
  000a5	f3 0f 11 45 ac	 movss	 DWORD PTR __X$[ebp], xmm0
; File C:\Program Files (x86)\Windows Kits\10\Include\10.0.18362.0\ucrt\corecrt_math.h

; 644  :             return (float)ceil(_X);

  000aa	f3 0f 5a 45 ac	 cvtss2sd xmm0, DWORD PTR __X$[ebp]
  000af	51		 push	 ecx
  000b0	51		 push	 ecx
  000b1	f2 0f 11 04 24	 movsd	 QWORD PTR [esp], xmm0
  000b6	e8 00 00 00 00	 call	 _ceil
  000bb	59		 pop	 ecx
  000bc	59		 pop	 ecx
  000bd	d9 5d a8	 fstp	 DWORD PTR $T4[ebp]
; File D:\Metin2 Server Files\mainline\SRC_2014\Metin2Client\EterLib\GrpFontTexture.cpp

; 226  : 		size.cx += ceilf(stABC.abcfA);

  000c0	f3 0f 2a 45 dc	 cvtsi2ss xmm0, DWORD PTR _size$[ebp]
  000c5	f3 0f 58 45 a8	 addss	 xmm0, DWORD PTR $T4[ebp]
  000ca	f3 0f 2c c0	 cvttss2si eax, xmm0
  000ce	89 45 dc	 mov	 DWORD PTR _size$[ebp], eax
$LN11@UpdateChar:

; 227  : 	if( stABC.abcfC > 0.0f )

  000d1	f3 0f 10 45 f8	 movss	 xmm0, DWORD PTR _stABC$[ebp+8]
  000d6	0f 2f 05 00 00
	00 00		 comiss	 xmm0, DWORD PTR __real@00000000
  000dd	76 31		 jbe	 SHORT $LN12@UpdateChar

; 228  : 		size.cx += ceilf(stABC.abcfC);

  000df	f3 0f 10 45 f8	 movss	 xmm0, DWORD PTR _stABC$[ebp+8]
  000e4	f3 0f 11 45 a4	 movss	 DWORD PTR __X$[ebp], xmm0
; File C:\Program Files (x86)\Windows Kits\10\Include\10.0.18362.0\ucrt\corecrt_math.h

; 644  :             return (float)ceil(_X);

  000e9	f3 0f 5a 45 a4	 cvtss2sd xmm0, DWORD PTR __X$[ebp]
  000ee	51		 push	 ecx
  000ef	51		 push	 ecx
  000f0	f2 0f 11 04 24	 movsd	 QWORD PTR [esp], xmm0
  000f5	e8 00 00 00 00	 call	 _ceil
  000fa	59		 pop	 ecx
  000fb	59		 pop	 ecx
  000fc	d9 5d a0	 fstp	 DWORD PTR $T3[ebp]
; File D:\Metin2 Server Files\mainline\SRC_2014\Metin2Client\EterLib\GrpFontTexture.cpp

; 228  : 		size.cx += ceilf(stABC.abcfC);

  000ff	f3 0f 2a 45 dc	 cvtsi2ss xmm0, DWORD PTR _size$[ebp]
  00104	f3 0f 58 45 a0	 addss	 xmm0, DWORD PTR $T3[ebp]
  00109	f3 0f 2c c0	 cvttss2si eax, xmm0
  0010d	89 45 dc	 mov	 DWORD PTR _size$[ebp], eax
$LN12@UpdateChar:

; 229  : 	size.cx++;

  00110	8b 45 dc	 mov	 eax, DWORD PTR _size$[ebp]
  00113	40		 inc	 eax
  00114	89 45 dc	 mov	 DWORD PTR _size$[ebp], eax

; 231  : 	LONG lAdvance = ceilf( stABC.abcfA + stABC.abcfB + stABC.abcfC );

  00117	f3 0f 10 45 f0	 movss	 xmm0, DWORD PTR _stABC$[ebp]
  0011c	f3 0f 58 45 f4	 addss	 xmm0, DWORD PTR _stABC$[ebp+4]
  00121	f3 0f 58 45 f8	 addss	 xmm0, DWORD PTR _stABC$[ebp+8]
  00126	f3 0f 11 45 9c	 movss	 DWORD PTR __X$[ebp], xmm0
; File C:\Program Files (x86)\Windows Kits\10\Include\10.0.18362.0\ucrt\corecrt_math.h

; 644  :             return (float)ceil(_X);

  0012b	f3 0f 5a 45 9c	 cvtss2sd xmm0, DWORD PTR __X$[ebp]
  00130	51		 push	 ecx
  00131	51		 push	 ecx
  00132	f2 0f 11 04 24	 movsd	 QWORD PTR [esp], xmm0
  00137	e8 00 00 00 00	 call	 _ceil
  0013c	59		 pop	 ecx
  0013d	59		 pop	 ecx
  0013e	d9 5d 98	 fstp	 DWORD PTR tv334[ebp]
  00141	d9 45 98	 fld	 DWORD PTR tv334[ebp]
; File D:\Metin2 Server Files\mainline\SRC_2014\Metin2Client\EterLib\GrpFontTexture.cpp

; 231  : 	LONG lAdvance = ceilf( stABC.abcfA + stABC.abcfB + stABC.abcfC );

  00144	e8 00 00 00 00	 call	 __ftol2_sse
  00149	89 45 80	 mov	 DWORD PTR _lAdvance$[ebp], eax

; 232  : 
; 233  : 	int width = m_dib.GetWidth();

  0014c	8b 4d ec	 mov	 ecx, DWORD PTR _this$[ebp]
  0014f	83 c1 14	 add	 ecx, 20			; 00000014H
  00152	e8 00 00 00 00	 call	 ?GetWidth@CGraphicDib@@QAEHXZ ; CGraphicDib::GetWidth
  00157	89 45 c0	 mov	 DWORD PTR _width$[ebp], eax

; 234  : 	int height = m_dib.GetHeight();

  0015a	8b 4d ec	 mov	 ecx, DWORD PTR _this$[ebp]
  0015d	83 c1 14	 add	 ecx, 20			; 00000014H
  00160	e8 00 00 00 00	 call	 ?GetHeight@CGraphicDib@@QAEHXZ ; CGraphicDib::GetHeight
  00165	89 45 bc	 mov	 DWORD PTR _height$[ebp], eax

; 235  : 
; 236  : 	if (m_x + size.cx >= (width - 1))

  00168	8b 45 ec	 mov	 eax, DWORD PTR _this$[ebp]
  0016b	8b 40 7c	 mov	 eax, DWORD PTR [eax+124]
  0016e	03 45 dc	 add	 eax, DWORD PTR _size$[ebp]
  00171	8b 4d c0	 mov	 ecx, DWORD PTR _width$[ebp]
  00174	49		 dec	 ecx
  00175	3b c1		 cmp	 eax, ecx
  00177	7c 7a		 jl	 SHORT $LN14@UpdateChar

; 237  : 	{
; 238  : 		m_y += (m_step + 1);

  00179	8b 45 ec	 mov	 eax, DWORD PTR _this$[ebp]
  0017c	8b 80 84 00 00
	00		 mov	 eax, DWORD PTR [eax+132]
  00182	8b 4d ec	 mov	 ecx, DWORD PTR _this$[ebp]
  00185	8b 89 80 00 00
	00		 mov	 ecx, DWORD PTR [ecx+128]
  0018b	8d 44 08 01	 lea	 eax, DWORD PTR [eax+ecx+1]
  0018f	8b 4d ec	 mov	 ecx, DWORD PTR _this$[ebp]
  00192	89 81 80 00 00
	00		 mov	 DWORD PTR [ecx+128], eax

; 239  : 		m_step = 0;

  00198	8b 45 ec	 mov	 eax, DWORD PTR _this$[ebp]
  0019b	83 a0 84 00 00
	00 00		 and	 DWORD PTR [eax+132], 0

; 240  : 		m_x = 0;

  001a2	8b 45 ec	 mov	 eax, DWORD PTR _this$[ebp]
  001a5	83 60 7c 00	 and	 DWORD PTR [eax+124], 0

; 241  : 
; 242  : 		if (m_y + size.cy >= (height - 1))

  001a9	8b 45 ec	 mov	 eax, DWORD PTR _this$[ebp]
  001ac	8b 80 80 00 00
	00		 mov	 eax, DWORD PTR [eax+128]
  001b2	03 45 e0	 add	 eax, DWORD PTR _size$[ebp+4]
  001b5	8b 4d bc	 mov	 ecx, DWORD PTR _height$[ebp]
  001b8	49		 dec	 ecx
  001b9	3b c1		 cmp	 eax, ecx
  001bb	7c 36		 jl	 SHORT $LN14@UpdateChar

; 243  : 		{
; 244  : 			if (!UpdateTexture())

  001bd	8b 4d ec	 mov	 ecx, DWORD PTR _this$[ebp]
  001c0	e8 00 00 00 00	 call	 ?UpdateTexture@CGraphicFontTexture@@QAE_NXZ ; CGraphicFontTexture::UpdateTexture
  001c5	0f b6 c0	 movzx	 eax, al
  001c8	85 c0		 test	 eax, eax
  001ca	75 07		 jne	 SHORT $LN15@UpdateChar

; 245  : 			{
; 246  : 				return NULL;

  001cc	33 c0		 xor	 eax, eax
  001ce	e9 19 02 00 00	 jmp	 $LN1@UpdateChar
$LN15@UpdateChar:

; 247  : 			}
; 248  : 
; 249  : 			if (!AppendTexture())

  001d3	8b 4d ec	 mov	 ecx, DWORD PTR _this$[ebp]
  001d6	e8 00 00 00 00	 call	 ?AppendTexture@CGraphicFontTexture@@IAE_NXZ ; CGraphicFontTexture::AppendTexture
  001db	0f b6 c0	 movzx	 eax, al
  001de	85 c0		 test	 eax, eax
  001e0	75 07		 jne	 SHORT $LN16@UpdateChar

; 250  : 				return NULL;

  001e2	33 c0		 xor	 eax, eax
  001e4	e9 03 02 00 00	 jmp	 $LN1@UpdateChar
$LN16@UpdateChar:

; 251  : 
; 252  : 			m_y = 0;

  001e9	8b 45 ec	 mov	 eax, DWORD PTR _this$[ebp]
  001ec	83 a0 80 00 00
	00 00		 and	 DWORD PTR [eax+128], 0
$LN14@UpdateChar:

; 253  : 		}
; 254  : 	}
; 255  : 
; 256  : 	TextOutW(hDC, m_x, m_y, &keyValue, 1);

  001f3	6a 01		 push	 1
  001f5	8d 45 e8	 lea	 eax, DWORD PTR _keyValue$[ebp]
  001f8	50		 push	 eax
  001f9	8b 45 ec	 mov	 eax, DWORD PTR _this$[ebp]
  001fc	ff b0 80 00 00
	00		 push	 DWORD PTR [eax+128]
  00202	8b 45 ec	 mov	 eax, DWORD PTR _this$[ebp]
  00205	ff 70 7c	 push	 DWORD PTR [eax+124]
  00208	ff 75 d4	 push	 DWORD PTR _hDC$[ebp]
  0020b	ff 15 00 00 00
	00		 call	 DWORD PTR __imp__TextOutW@20

; 257  : 		
; 258  : 	int nChrX;
; 259  : 	int nChrY;
; 260  : 	int nChrWidth = size.cx;

  00211	8b 45 dc	 mov	 eax, DWORD PTR _size$[ebp]
  00214	89 45 88	 mov	 DWORD PTR _nChrWidth$[ebp], eax

; 261  : 	int nChrHeight = size.cy;

  00217	8b 45 e0	 mov	 eax, DWORD PTR _size$[ebp+4]
  0021a	89 45 8c	 mov	 DWORD PTR _nChrHeight$[ebp], eax

; 262  : 	int nDIBWidth = m_dib.GetWidth();

  0021d	8b 4d ec	 mov	 ecx, DWORD PTR _this$[ebp]
  00220	83 c1 14	 add	 ecx, 20			; 00000014H
  00223	e8 00 00 00 00	 call	 ?GetWidth@CGraphicDib@@QAEHXZ ; CGraphicDib::GetWidth
  00228	89 45 c8	 mov	 DWORD PTR _nDIBWidth$[ebp], eax

; 263  : 
; 264  : 	
; 265  : 	DWORD*pdwDIBData=(DWORD*)m_dib.GetPointer();		

  0022b	8b 4d ec	 mov	 ecx, DWORD PTR _this$[ebp]
  0022e	83 c1 14	 add	 ecx, 20			; 00000014H
  00231	e8 00 00 00 00	 call	 ?GetPointer@CGraphicDib@@QAEPAXXZ ; CGraphicDib::GetPointer
  00236	89 45 94	 mov	 DWORD PTR _pdwDIBData$[ebp], eax

; 266  : 	DWORD*pdwDIBBase=pdwDIBData+nDIBWidth*m_y+m_x;

  00239	8b 45 ec	 mov	 eax, DWORD PTR _this$[ebp]
  0023c	8b 4d c8	 mov	 ecx, DWORD PTR _nDIBWidth$[ebp]
  0023f	0f af 88 80 00
	00 00		 imul	 ecx, DWORD PTR [eax+128]
  00246	8b 45 94	 mov	 eax, DWORD PTR _pdwDIBData$[ebp]
  00249	8d 04 88	 lea	 eax, DWORD PTR [eax+ecx*4]
  0024c	8b 4d ec	 mov	 ecx, DWORD PTR _this$[ebp]
  0024f	8b 49 7c	 mov	 ecx, DWORD PTR [ecx+124]
  00252	8d 04 88	 lea	 eax, DWORD PTR [eax+ecx*4]
  00255	89 45 90	 mov	 DWORD PTR _pdwDIBBase$[ebp], eax

; 267  : 	DWORD*pdwDIBRow;
; 268  : 	
; 269  : 	pdwDIBRow=pdwDIBBase;

  00258	8b 45 90	 mov	 eax, DWORD PTR _pdwDIBBase$[ebp]
  0025b	89 45 d0	 mov	 DWORD PTR _pdwDIBRow$[ebp], eax

; 270  : 	for (nChrY=0; nChrY<nChrHeight; ++nChrY, pdwDIBRow+=nDIBWidth)

  0025e	83 65 cc 00	 and	 DWORD PTR _nChrY$[ebp], 0
  00262	eb 13		 jmp	 SHORT $LN4@UpdateChar
$LN2@UpdateChar:
  00264	8b 45 cc	 mov	 eax, DWORD PTR _nChrY$[ebp]
  00267	40		 inc	 eax
  00268	89 45 cc	 mov	 DWORD PTR _nChrY$[ebp], eax
  0026b	8b 45 c8	 mov	 eax, DWORD PTR _nDIBWidth$[ebp]
  0026e	8b 4d d0	 mov	 ecx, DWORD PTR _pdwDIBRow$[ebp]
  00271	8d 04 81	 lea	 eax, DWORD PTR [ecx+eax*4]
  00274	89 45 d0	 mov	 DWORD PTR _pdwDIBRow$[ebp], eax
$LN4@UpdateChar:
  00277	8b 45 cc	 mov	 eax, DWORD PTR _nChrY$[ebp]
  0027a	3b 45 8c	 cmp	 eax, DWORD PTR _nChrHeight$[ebp]
  0027d	7d 42		 jge	 SHORT $LN3@UpdateChar

; 271  : 	{			
; 272  : 		for (nChrX=0; nChrX<nChrWidth; ++nChrX)

  0027f	83 65 d8 00	 and	 DWORD PTR _nChrX$[ebp], 0
  00283	eb 07		 jmp	 SHORT $LN7@UpdateChar
$LN5@UpdateChar:
  00285	8b 45 d8	 mov	 eax, DWORD PTR _nChrX$[ebp]
  00288	40		 inc	 eax
  00289	89 45 d8	 mov	 DWORD PTR _nChrX$[ebp], eax
$LN7@UpdateChar:
  0028c	8b 45 d8	 mov	 eax, DWORD PTR _nChrX$[ebp]
  0028f	3b 45 88	 cmp	 eax, DWORD PTR _nChrWidth$[ebp]
  00292	7d 2b		 jge	 SHORT $LN6@UpdateChar

; 273  : 		{
; 274  : 			pdwDIBRow[nChrX]=(pdwDIBRow[nChrX]&0xff) ? 0xffff : 0;

  00294	8b 45 d8	 mov	 eax, DWORD PTR _nChrX$[ebp]
  00297	8b 4d d0	 mov	 ecx, DWORD PTR _pdwDIBRow$[ebp]
  0029a	8b 04 81	 mov	 eax, DWORD PTR [ecx+eax*4]
  0029d	25 ff 00 00 00	 and	 eax, 255		; 000000ffH
  002a2	74 09		 je	 SHORT $LN19@UpdateChar
  002a4	c7 45 c4 ff ff
	00 00		 mov	 DWORD PTR tv201[ebp], 65535 ; 0000ffffH
  002ab	eb 04		 jmp	 SHORT $LN20@UpdateChar
$LN19@UpdateChar:
  002ad	83 65 c4 00	 and	 DWORD PTR tv201[ebp], 0
$LN20@UpdateChar:
  002b1	8b 45 d8	 mov	 eax, DWORD PTR _nChrX$[ebp]
  002b4	8b 4d d0	 mov	 ecx, DWORD PTR _pdwDIBRow$[ebp]
  002b7	8b 55 c4	 mov	 edx, DWORD PTR tv201[ebp]
  002ba	89 14 81	 mov	 DWORD PTR [ecx+eax*4], edx

; 275  : 		}

  002bd	eb c6		 jmp	 SHORT $LN5@UpdateChar
$LN6@UpdateChar:

; 276  : 	}

  002bf	eb a3		 jmp	 SHORT $LN2@UpdateChar
$LN3@UpdateChar:

; 277  : 
; 278  : 	float rhwidth = 1.0f / float(width);

  002c1	f3 0f 2a 45 c0	 cvtsi2ss xmm0, DWORD PTR _width$[ebp]
  002c6	f3 0f 10 0d 00
	00 00 00	 movss	 xmm1, DWORD PTR __real@3f800000
  002ce	f3 0f 5e c8	 divss	 xmm1, xmm0
  002d2	f3 0f 11 4d b4	 movss	 DWORD PTR _rhwidth$[ebp], xmm1

; 279  : 	float rhheight = 1.0f / float(height);

  002d7	f3 0f 2a 45 bc	 cvtsi2ss xmm0, DWORD PTR _height$[ebp]
  002dc	f3 0f 10 0d 00
	00 00 00	 movss	 xmm1, DWORD PTR __real@3f800000
  002e4	f3 0f 5e c8	 divss	 xmm1, xmm0
  002e8	f3 0f 11 4d b0	 movss	 DWORD PTR _rhheight$[ebp], xmm1
; File C:\Program Files (x86)\Microsoft Visual Studio\2019\Community\VC\Tools\MSVC\14.28.29333\include\map

; 325  :         return _Try_emplace(_Keyval).first->_Myval.second;

  002ed	8d 45 08	 lea	 eax, DWORD PTR _code$[ebp]
  002f0	50		 push	 eax
  002f1	8d 85 78 ff ff
	ff		 lea	 eax, DWORD PTR $T1[ebp]
  002f7	50		 push	 eax
; File D:\Metin2 Server Files\mainline\SRC_2014\Metin2Client\EterLib\GrpFontTexture.cpp

; 281  : 	TCharacterInfomation& rNewCharInfo = m_charInfoMap[code];

  002f8	8b 4d ec	 mov	 ecx, DWORD PTR _this$[ebp]
  002fb	83 c1 6c	 add	 ecx, 108		; 0000006cH
; File C:\Program Files (x86)\Microsoft Visual Studio\2019\Community\VC\Tools\MSVC\14.28.29333\include\map

; 325  :         return _Try_emplace(_Keyval).first->_Myval.second;

  002fe	e8 00 00 00 00	 call	 ??$_Try_emplace@ABU?$pair@G_W@std@@$$V@?$map@U?$pair@G_W@std@@USCharacterInfomation@CGraphicFontTexture@@U?$less@U?$pair@G_W@std@@@2@V?$allocator@U?$pair@$$CBU?$pair@G_W@std@@USCharacterInfomation@CGraphicFontTexture@@@std@@@2@@std@@AAE?AU?$pair@PAU?$_Tree_node@U?$pair@$$CBU?$pair@G_W@std@@USCharacterInfomation@CGraphicFontTexture@@@std@@PAX@std@@_N@1@ABU?$pair@G_W@1@@Z ; std::map<std::pair<unsigned short,wchar_t>,CGraphicFontTexture::SCharacterInfomation,std::less<std::pair<unsigned short,wchar_t> >,std::allocator<std::pair<std::pair<unsigned short,wchar_t> const ,CGraphicFontTexture::SCharacterInfomation> > >::_Try_emplace<std::pair<unsigned short,wchar_t> const &>
  00303	8b 00		 mov	 eax, DWORD PTR [eax]
  00305	83 c0 14	 add	 eax, 20			; 00000014H
; File D:\Metin2 Server Files\mainline\SRC_2014\Metin2Client\EterLib\GrpFontTexture.cpp

; 281  : 	TCharacterInfomation& rNewCharInfo = m_charInfoMap[code];

  00308	89 45 e4	 mov	 DWORD PTR _rNewCharInfo$[ebp], eax
; File C:\Program Files (x86)\Microsoft Visual Studio\2019\Community\VC\Tools\MSVC\14.28.29333\include\vector

; 1483 :         auto& _My_data = _Mypair._Myval2;

  0030b	8b 45 ec	 mov	 eax, DWORD PTR _this$[ebp]
  0030e	83 c0 60	 add	 eax, 96			; 00000060H
  00311	89 45 b8	 mov	 DWORD PTR __My_data$5[ebp], eax

; 1484 :         return static_cast<size_type>(_My_data._Mylast - _My_data._Myfirst);

  00314	8b 45 b8	 mov	 eax, DWORD PTR __My_data$5[ebp]
  00317	8b 4d b8	 mov	 ecx, DWORD PTR __My_data$5[ebp]
  0031a	8b 40 04	 mov	 eax, DWORD PTR [eax+4]
  0031d	2b 01		 sub	 eax, DWORD PTR [ecx]
  0031f	c1 f8 02	 sar	 eax, 2
  00322	89 45 84	 mov	 DWORD PTR $T2[ebp], eax
; File D:\Metin2 Server Files\mainline\SRC_2014\Metin2Client\EterLib\GrpFontTexture.cpp

; 283  : 	rNewCharInfo.index = m_pFontTextureVector.size() - 1;

  00325	8b 45 84	 mov	 eax, DWORD PTR $T2[ebp]
  00328	48		 dec	 eax
  00329	8b 4d e4	 mov	 ecx, DWORD PTR _rNewCharInfo$[ebp]
  0032c	66 89 01	 mov	 WORD PTR [ecx], ax

; 284  : 	rNewCharInfo.width = size.cx;

  0032f	8b 45 e4	 mov	 eax, DWORD PTR _rNewCharInfo$[ebp]
  00332	66 8b 4d dc	 mov	 cx, WORD PTR _size$[ebp]
  00336	66 89 48 02	 mov	 WORD PTR [eax+2], cx

; 285  : 	rNewCharInfo.height = size.cy;

  0033a	8b 45 e4	 mov	 eax, DWORD PTR _rNewCharInfo$[ebp]
  0033d	66 8b 4d e0	 mov	 cx, WORD PTR _size$[ebp+4]
  00341	66 89 48 04	 mov	 WORD PTR [eax+4], cx

; 286  : 	rNewCharInfo.left = float(m_x) * rhwidth;

  00345	8b 45 ec	 mov	 eax, DWORD PTR _this$[ebp]
  00348	f3 0f 2a 40 7c	 cvtsi2ss xmm0, DWORD PTR [eax+124]
  0034d	f3 0f 59 45 b4	 mulss	 xmm0, DWORD PTR _rhwidth$[ebp]
  00352	8b 45 e4	 mov	 eax, DWORD PTR _rNewCharInfo$[ebp]
  00355	f3 0f 11 40 08	 movss	 DWORD PTR [eax+8], xmm0

; 287  : 	rNewCharInfo.top = float(m_y) * rhheight;

  0035a	8b 45 ec	 mov	 eax, DWORD PTR _this$[ebp]
  0035d	f3 0f 2a 80 80
	00 00 00	 cvtsi2ss xmm0, DWORD PTR [eax+128]
  00365	f3 0f 59 45 b0	 mulss	 xmm0, DWORD PTR _rhheight$[ebp]
  0036a	8b 45 e4	 mov	 eax, DWORD PTR _rNewCharInfo$[ebp]
  0036d	f3 0f 11 40 0c	 movss	 DWORD PTR [eax+12], xmm0

; 288  : 	rNewCharInfo.right = float(m_x+size.cx) * rhwidth;

  00372	8b 45 ec	 mov	 eax, DWORD PTR _this$[ebp]
  00375	8b 40 7c	 mov	 eax, DWORD PTR [eax+124]
  00378	03 45 dc	 add	 eax, DWORD PTR _size$[ebp]
  0037b	f3 0f 2a c0	 cvtsi2ss xmm0, eax
  0037f	f3 0f 59 45 b4	 mulss	 xmm0, DWORD PTR _rhwidth$[ebp]
  00384	8b 45 e4	 mov	 eax, DWORD PTR _rNewCharInfo$[ebp]
  00387	f3 0f 11 40 10	 movss	 DWORD PTR [eax+16], xmm0

; 289  : 	rNewCharInfo.bottom = float(m_y+size.cy) * rhheight;

  0038c	8b 45 ec	 mov	 eax, DWORD PTR _this$[ebp]
  0038f	8b 80 80 00 00
	00		 mov	 eax, DWORD PTR [eax+128]
  00395	03 45 e0	 add	 eax, DWORD PTR _size$[ebp+4]
  00398	f3 0f 2a c0	 cvtsi2ss xmm0, eax
  0039c	f3 0f 59 45 b0	 mulss	 xmm0, DWORD PTR _rhheight$[ebp]
  003a1	8b 45 e4	 mov	 eax, DWORD PTR _rNewCharInfo$[ebp]
  003a4	f3 0f 11 40 14	 movss	 DWORD PTR [eax+20], xmm0

; 290  : 	rNewCharInfo.advance = (float) lAdvance;

  003a9	f3 0f 2a 45 80	 cvtsi2ss xmm0, DWORD PTR _lAdvance$[ebp]
  003ae	8b 45 e4	 mov	 eax, DWORD PTR _rNewCharInfo$[ebp]
  003b1	f3 0f 11 40 18	 movss	 DWORD PTR [eax+24], xmm0

; 291  : 
; 292  : 	m_x += size.cx;

  003b6	8b 45 ec	 mov	 eax, DWORD PTR _this$[ebp]
  003b9	8b 40 7c	 mov	 eax, DWORD PTR [eax+124]
  003bc	03 45 dc	 add	 eax, DWORD PTR _size$[ebp]
  003bf	8b 4d ec	 mov	 ecx, DWORD PTR _this$[ebp]
  003c2	89 41 7c	 mov	 DWORD PTR [ecx+124], eax

; 293  : 
; 294  : 	if (m_step < size.cy)

  003c5	8b 45 ec	 mov	 eax, DWORD PTR _this$[ebp]
  003c8	8b 80 84 00 00
	00		 mov	 eax, DWORD PTR [eax+132]
  003ce	3b 45 e0	 cmp	 eax, DWORD PTR _size$[ebp+4]
  003d1	7d 0c		 jge	 SHORT $LN17@UpdateChar

; 295  : 		m_step = size.cy;	

  003d3	8b 45 ec	 mov	 eax, DWORD PTR _this$[ebp]
  003d6	8b 4d e0	 mov	 ecx, DWORD PTR _size$[ebp+4]
  003d9	89 88 84 00 00
	00		 mov	 DWORD PTR [eax+132], ecx
$LN17@UpdateChar:

; 296  : 
; 297  : 	m_isDirty = true;

  003df	8b 45 ec	 mov	 eax, DWORD PTR _this$[ebp]
  003e2	c6 80 88 00 00
	00 01		 mov	 BYTE PTR [eax+136], 1

; 298  : 
; 299  : 	return &rNewCharInfo;

  003e9	8b 45 e4	 mov	 eax, DWORD PTR _rNewCharInfo$[ebp]
$LN1@UpdateChar:

; 300  : }

  003ec	8b 4d fc	 mov	 ecx, DWORD PTR __$ArrayPad$[ebp]
  003ef	33 cd		 xor	 ecx, ebp
  003f1	e8 00 00 00 00	 call	 @__security_check_cookie@4
  003f6	c9		 leave
  003f7	c2 04 00	 ret	 4
?UpdateCharacterInfomation@CGraphicFontTexture@@QAEPAUSCharacterInfomation@1@U?$pair@G_W@std@@@Z ENDP ; CGraphicFontTexture::UpdateCharacterInfomation
_TEXT	ENDS
; Function compile flags: /Odspy
; File D:\Metin2 Server Files\mainline\SRC_2014\Metin2Client\EterLib\GrpFontTexture.cpp
; File C:\Program Files (x86)\Microsoft Visual Studio\2019\Community\VC\Tools\MSVC\14.28.29333\include\type_traits
; File C:\Program Files (x86)\Microsoft Visual Studio\2019\Community\VC\Tools\MSVC\14.28.29333\include\utility
; File C:\Program Files (x86)\Microsoft Visual Studio\2019\Community\VC\Tools\MSVC\14.28.29333\include\type_traits
; File C:\Program Files (x86)\Microsoft Visual Studio\2019\Community\VC\Tools\MSVC\14.28.29333\include\utility
; File D:\Metin2 Server Files\mainline\SRC_2014\Metin2Client\EterLib\GrpFontTexture.cpp
; File C:\Program Files (x86)\Microsoft Visual Studio\2019\Community\VC\Tools\MSVC\14.28.29333\include\xtree
; File C:\Program Files (x86)\Microsoft Visual Studio\2019\Community\VC\Tools\MSVC\14.28.29333\include\xstddef
; File C:\Program Files (x86)\Microsoft Visual Studio\2019\Community\VC\Tools\MSVC\14.28.29333\include\xtree
; File D:\Metin2 Server Files\mainline\SRC_2014\Metin2Client\EterLib\GrpFontTexture.cpp
; File C:\Program Files (x86)\Microsoft Visual Studio\2019\Community\VC\Tools\MSVC\14.28.29333\include\xtree
; File C:\Program Files (x86)\Microsoft Visual Studio\2019\Community\VC\Tools\MSVC\14.28.29333\include\xstddef
; File C:\Program Files (x86)\Microsoft Visual Studio\2019\Community\VC\Tools\MSVC\14.28.29333\include\xutility
; File C:\Program Files (x86)\Microsoft Visual Studio\2019\Community\VC\Tools\MSVC\14.28.29333\include\xtree
; File D:\Metin2 Server Files\mainline\SRC_2014\Metin2Client\EterLib\GrpFontTexture.cpp
;	COMDAT ?GetCharacterInfomation@CGraphicFontTexture@@QAEPAUSCharacterInfomation@1@G_W@Z
_TEXT	SEGMENT
$T1 = -68						; size = 4
$T2 = -64						; size = 4
$T3 = -60						; size = 4
$T4 = -56						; size = 4
$T5 = -52						; size = 4
$T6 = -48						; size = 4
$T7 = -44						; size = 4
___param0$ = -40					; size = 4
__Scary$8 = -36						; size = 4
$T9 = -32						; size = 4
$T10 = -28						; size = 4
$T11 = -24						; size = 4
_f$ = -20						; size = 4
tv163 = -16						; size = 4
_this$ = -12						; size = 4
_code$ = -8						; size = 4
$T12 = -1						; size = 1
_codePage$ = 8						; size = 2
_keyValue$ = 12						; size = 2
?GetCharacterInfomation@CGraphicFontTexture@@QAEPAUSCharacterInfomation@1@G_W@Z PROC ; CGraphicFontTexture::GetCharacterInfomation, COMDAT
; _this$ = ecx

; 193  : {

  00000	55		 push	 ebp
  00001	8b ec		 mov	 ebp, esp
  00003	83 ec 44	 sub	 esp, 68			; 00000044H
  00006	89 4d f4	 mov	 DWORD PTR _this$[ebp], ecx
; File C:\Program Files (x86)\Microsoft Visual Studio\2019\Community\VC\Tools\MSVC\14.28.29333\include\type_traits

; 1443 :     return static_cast<_Ty&&>(_Arg);

  00009	8d 45 08	 lea	 eax, DWORD PTR _codePage$[ebp]
  0000c	89 45 e8	 mov	 DWORD PTR $T11[ebp], eax
; File C:\Program Files (x86)\Microsoft Visual Studio\2019\Community\VC\Tools\MSVC\14.28.29333\include\utility

; 190  :         : first(_STD forward<_Other1>(_Val1)), second(_STD forward<_Other2>(_Val2)) {}

  0000f	8b 45 e8	 mov	 eax, DWORD PTR $T11[ebp]
  00012	66 8b 00	 mov	 ax, WORD PTR [eax]
  00015	66 89 45 f8	 mov	 WORD PTR _code$[ebp], ax
; File C:\Program Files (x86)\Microsoft Visual Studio\2019\Community\VC\Tools\MSVC\14.28.29333\include\type_traits

; 1443 :     return static_cast<_Ty&&>(_Arg);

  00019	8d 45 0c	 lea	 eax, DWORD PTR _keyValue$[ebp]
  0001c	89 45 e4	 mov	 DWORD PTR $T10[ebp], eax
; File C:\Program Files (x86)\Microsoft Visual Studio\2019\Community\VC\Tools\MSVC\14.28.29333\include\utility

; 190  :         : first(_STD forward<_Other1>(_Val1)), second(_STD forward<_Other2>(_Val2)) {}

  0001f	8b 45 e4	 mov	 eax, DWORD PTR $T10[ebp]
  00022	66 8b 00	 mov	 ax, WORD PTR [eax]
  00025	66 89 45 fa	 mov	 WORD PTR _code$[ebp+2], ax
; File D:\Metin2 Server Files\mainline\SRC_2014\Metin2Client\EterLib\GrpFontTexture.cpp

; 196  : 	TCharacterInfomationMap::iterator f = m_charInfoMap.find(code);

  00029	8d 45 f8	 lea	 eax, DWORD PTR _code$[ebp]
  0002c	50		 push	 eax
  0002d	8d 45 ec	 lea	 eax, DWORD PTR _f$[ebp]
  00030	50		 push	 eax
  00031	8b 4d f4	 mov	 ecx, DWORD PTR _this$[ebp]
  00034	83 c1 6c	 add	 ecx, 108		; 0000006cH
  00037	e8 00 00 00 00	 call	 ?find@?$_Tree@V?$_Tmap_traits@U?$pair@G_W@std@@USCharacterInfomation@CGraphicFontTexture@@U?$less@U?$pair@G_W@std@@@2@V?$allocator@U?$pair@$$CBU?$pair@G_W@std@@USCharacterInfomation@CGraphicFontTexture@@@std@@@2@$0A@@std@@@std@@QAE?AV?$_Tree_iterator@V?$_Tree_val@U?$_Tree_simple_types@U?$pair@$$CBU?$pair@G_W@std@@USCharacterInfomation@CGraphicFontTexture@@@std@@@std@@@std@@@2@ABU?$pair@G_W@2@@Z ; std::_Tree<std::_Tmap_traits<std::pair<unsigned short,wchar_t>,CGraphicFontTexture::SCharacterInfomation,std::less<std::pair<unsigned short,wchar_t> >,std::allocator<std::pair<std::pair<unsigned short,wchar_t> const ,CGraphicFontTexture::SCharacterInfomation> >,0> >::find
; File C:\Program Files (x86)\Microsoft Visual Studio\2019\Community\VC\Tools\MSVC\14.28.29333\include\xtree

; 2047 :         return _STD addressof(_Mypair._Myval2._Myval2);

  0003c	8b 45 f4	 mov	 eax, DWORD PTR _this$[ebp]
  0003f	83 c0 6c	 add	 eax, 108		; 0000006cH
; File C:\Program Files (x86)\Microsoft Visual Studio\2019\Community\VC\Tools\MSVC\14.28.29333\include\xstddef

; 275  :     return __builtin_addressof(_Val);

  00042	89 45 e0	 mov	 DWORD PTR $T9[ebp], eax
; File C:\Program Files (x86)\Microsoft Visual Studio\2019\Community\VC\Tools\MSVC\14.28.29333\include\xtree

; 2047 :         return _STD addressof(_Mypair._Myval2._Myval2);

  00045	8b 45 e0	 mov	 eax, DWORD PTR $T9[ebp]
  00048	89 45 dc	 mov	 DWORD PTR __Scary$8[ebp], eax

; 1250 :         return iterator(_Scary->_Myhead, _Scary);

  0004b	8b 45 dc	 mov	 eax, DWORD PTR __Scary$8[ebp]
  0004e	8b 00		 mov	 eax, DWORD PTR [eax]
  00050	89 45 d8	 mov	 DWORD PTR ___param0$[ebp], eax

; 39   :     _Tree_unchecked_const_iterator(_Nodeptr _Pnode, const _Mytree* _Plist) noexcept : _Ptr(_Pnode) {

  00053	8b 45 d8	 mov	 eax, DWORD PTR ___param0$[ebp]
  00056	89 45 d4	 mov	 DWORD PTR $T7[ebp], eax

; 1250 :         return iterator(_Scary->_Myhead, _Scary);

  00059	8d 45 d4	 lea	 eax, DWORD PTR $T7[ebp]
  0005c	89 45 d0	 mov	 DWORD PTR $T6[ebp], eax

; 232  :         return this->_Ptr == _Right._Ptr;

  0005f	8b 45 d0	 mov	 eax, DWORD PTR $T6[ebp]
  00062	8b 00		 mov	 eax, DWORD PTR [eax]
  00064	3b 45 ec	 cmp	 eax, DWORD PTR _f$[ebp]
  00067	75 09		 jne	 SHORT $LN85@GetCharact
  00069	c7 45 f0 01 00
	00 00		 mov	 DWORD PTR tv163[ebp], 1
  00070	eb 04		 jmp	 SHORT $LN86@GetCharact
$LN85@GetCharact:
  00072	83 65 f0 00	 and	 DWORD PTR tv163[ebp], 0
$LN86@GetCharact:
  00076	8a 45 f0	 mov	 al, BYTE PTR tv163[ebp]
  00079	88 45 ff	 mov	 BYTE PTR $T12[ebp], al
; File D:\Metin2 Server Files\mainline\SRC_2014\Metin2Client\EterLib\GrpFontTexture.cpp

; 198  : 	if (m_charInfoMap.end() == f)

  0007c	0f b6 45 ff	 movzx	 eax, BYTE PTR $T12[ebp]
  00080	85 c0		 test	 eax, eax
  00082	74 0f		 je	 SHORT $LN2@GetCharact

; 199  : 	{
; 200  : 		return UpdateCharacterInfomation(code);

  00084	ff 75 f8	 push	 DWORD PTR _code$[ebp]
  00087	8b 4d f4	 mov	 ecx, DWORD PTR _this$[ebp]
  0008a	e8 00 00 00 00	 call	 ?UpdateCharacterInfomation@CGraphicFontTexture@@QAEPAUSCharacterInfomation@1@U?$pair@G_W@std@@@Z ; CGraphicFontTexture::UpdateCharacterInfomation
  0008f	eb 29		 jmp	 SHORT $LN1@GetCharact

; 201  : 	}

  00091	eb 27		 jmp	 SHORT $LN1@GetCharact
$LN2@GetCharact:
; File C:\Program Files (x86)\Microsoft Visual Studio\2019\Community\VC\Tools\MSVC\14.28.29333\include\xtree

; 185  :         return this->_Ptr->_Myval;

  00093	8b 45 ec	 mov	 eax, DWORD PTR _f$[ebp]
  00096	83 c0 10	 add	 eax, 16			; 00000010H
  00099	89 45 cc	 mov	 DWORD PTR $T5[ebp], eax

; 273  :         return const_cast<reference>(_Mybase::operator*());

  0009c	8b 45 cc	 mov	 eax, DWORD PTR $T5[ebp]
  0009f	89 45 c8	 mov	 DWORD PTR $T4[ebp], eax
; File C:\Program Files (x86)\Microsoft Visual Studio\2019\Community\VC\Tools\MSVC\14.28.29333\include\xstddef

; 275  :     return __builtin_addressof(_Val);

  000a2	8b 45 c8	 mov	 eax, DWORD PTR $T4[ebp]
  000a5	89 45 c4	 mov	 DWORD PTR $T3[ebp], eax
; File C:\Program Files (x86)\Microsoft Visual Studio\2019\Community\VC\Tools\MSVC\14.28.29333\include\xutility

; 151  :         return _STD addressof(_Val);

  000a8	8b 45 c4	 mov	 eax, DWORD PTR $T3[ebp]
  000ab	89 45 c0	 mov	 DWORD PTR $T2[ebp], eax
; File C:\Program Files (x86)\Microsoft Visual Studio\2019\Community\VC\Tools\MSVC\14.28.29333\include\xtree

; 277  :         return pointer_traits<pointer>::pointer_to(**this);

  000ae	8b 45 c0	 mov	 eax, DWORD PTR $T2[ebp]
  000b1	89 45 bc	 mov	 DWORD PTR $T1[ebp], eax
; File D:\Metin2 Server Files\mainline\SRC_2014\Metin2Client\EterLib\GrpFontTexture.cpp

; 204  : 		return &f->second;	

  000b4	8b 45 bc	 mov	 eax, DWORD PTR $T1[ebp]
  000b7	83 c0 04	 add	 eax, 4
$LN1@GetCharact:

; 205  : 	}
; 206  : }

  000ba	c9		 leave
  000bb	c2 08 00	 ret	 8
?GetCharacterInfomation@CGraphicFontTexture@@QAEPAUSCharacterInfomation@1@G_W@Z ENDP ; CGraphicFontTexture::GetCharacterInfomation
_TEXT	ENDS
; Function compile flags: /Odspy
; File D:\Metin2 Server Files\mainline\SRC_2014\Metin2Client\EterLib\GrpFontTexture.cpp
; File C:\Program Files (x86)\Microsoft Visual Studio\2019\Community\VC\Tools\MSVC\14.28.29333\include\vector
; File D:\Metin2 Server Files\mainline\SRC_2014\Metin2Client\EterLib\GrpFontTexture.cpp
;	COMDAT ?UpdateTexture@CGraphicFontTexture@@QAE_NXZ
_TEXT	SEGMENT
_height$ = -44						; size = 4
$T1 = -40						; size = 4
__My_data$2 = -36					; size = 4
_width$ = -32						; size = 4
_pFontTexture$ = -28					; size = 4
_pdwSrc$ = -24						; size = 4
_pwDst$ = -20						; size = 4
_y$3 = -16						; size = 4
_pitch$ = -12						; size = 4
_x$4 = -8						; size = 4
_this$ = -4						; size = 4
?UpdateTexture@CGraphicFontTexture@@QAE_NXZ PROC	; CGraphicFontTexture::UpdateTexture, COMDAT
; _this$ = ecx

; 160  : {

  00000	55		 push	 ebp
  00001	8b ec		 mov	 ebp, esp
  00003	83 ec 2c	 sub	 esp, 44			; 0000002cH
  00006	56		 push	 esi
  00007	89 4d fc	 mov	 DWORD PTR _this$[ebp], ecx

; 161  : 	if(!m_isDirty)

  0000a	8b 45 fc	 mov	 eax, DWORD PTR _this$[ebp]
  0000d	0f b6 80 88 00
	00 00		 movzx	 eax, BYTE PTR [eax+136]
  00014	85 c0		 test	 eax, eax
  00016	75 07		 jne	 SHORT $LN8@UpdateText

; 162  : 		return true;

  00018	b0 01		 mov	 al, 1
  0001a	e9 f2 00 00 00	 jmp	 $LN1@UpdateText
$LN8@UpdateText:

; 163  : 
; 164  : 	m_isDirty = false;

  0001f	8b 45 fc	 mov	 eax, DWORD PTR _this$[ebp]
  00022	c6 80 88 00 00
	00 00		 mov	 BYTE PTR [eax+136], 0
; File C:\Program Files (x86)\Microsoft Visual Studio\2019\Community\VC\Tools\MSVC\14.28.29333\include\vector

; 1554 :         auto& _My_data = _Mypair._Myval2;

  00029	8b 45 fc	 mov	 eax, DWORD PTR _this$[ebp]
  0002c	83 c0 60	 add	 eax, 96			; 00000060H
  0002f	89 45 dc	 mov	 DWORD PTR __My_data$2[ebp], eax

; 1555 : #if _CONTAINER_DEBUG_LEVEL > 0
; 1556 :         _STL_VERIFY(_My_data._Myfirst != _My_data._Mylast, "back() called on empty vector");
; 1557 : #endif // _CONTAINER_DEBUG_LEVEL > 0
; 1558 : 
; 1559 :         return _My_data._Mylast[-1];

  00032	6a 04		 push	 4
  00034	58		 pop	 eax
  00035	6b c0 ff	 imul	 eax, eax, -1
  00038	8b 4d dc	 mov	 ecx, DWORD PTR __My_data$2[ebp]
  0003b	03 41 04	 add	 eax, DWORD PTR [ecx+4]
  0003e	89 45 d8	 mov	 DWORD PTR $T1[ebp], eax
; File D:\Metin2 Server Files\mainline\SRC_2014\Metin2Client\EterLib\GrpFontTexture.cpp

; 166  : 	CGraphicImageTexture * pFontTexture = m_pFontTextureVector.back();

  00041	8b 45 d8	 mov	 eax, DWORD PTR $T1[ebp]
  00044	8b 00		 mov	 eax, DWORD PTR [eax]
  00046	89 45 e4	 mov	 DWORD PTR _pFontTexture$[ebp], eax

; 167  : 
; 168  : 	if (!pFontTexture)

  00049	83 7d e4 00	 cmp	 DWORD PTR _pFontTexture$[ebp], 0
  0004d	75 07		 jne	 SHORT $LN9@UpdateText

; 169  : 		return false;

  0004f	32 c0		 xor	 al, al
  00051	e9 bb 00 00 00	 jmp	 $LN1@UpdateText
$LN9@UpdateText:

; 170  : 
; 171  : 	WORD* pwDst;
; 172  : 	int pitch;
; 173  : 
; 174  : 	if (!pFontTexture->Lock(&pitch, (void**)&pwDst))

  00056	6a 00		 push	 0
  00058	8d 45 ec	 lea	 eax, DWORD PTR _pwDst$[ebp]
  0005b	50		 push	 eax
  0005c	8d 45 f4	 lea	 eax, DWORD PTR _pitch$[ebp]
  0005f	50		 push	 eax
  00060	8b 4d e4	 mov	 ecx, DWORD PTR _pFontTexture$[ebp]
  00063	e8 00 00 00 00	 call	 ?Lock@CGraphicImageTexture@@QAE_NPAHPAPAXH@Z ; CGraphicImageTexture::Lock
  00068	0f b6 c0	 movzx	 eax, al
  0006b	85 c0		 test	 eax, eax
  0006d	75 07		 jne	 SHORT $LN10@UpdateText

; 175  : 		return false;

  0006f	32 c0		 xor	 al, al
  00071	e9 9b 00 00 00	 jmp	 $LN1@UpdateText
$LN10@UpdateText:

; 176  : 
; 177  : 	pitch /= 2;

  00076	8b 45 f4	 mov	 eax, DWORD PTR _pitch$[ebp]
  00079	99		 cdq
  0007a	2b c2		 sub	 eax, edx
  0007c	d1 f8		 sar	 eax, 1
  0007e	89 45 f4	 mov	 DWORD PTR _pitch$[ebp], eax

; 178  : 
; 179  : 	int width = m_dib.GetWidth();

  00081	8b 4d fc	 mov	 ecx, DWORD PTR _this$[ebp]
  00084	83 c1 14	 add	 ecx, 20			; 00000014H
  00087	e8 00 00 00 00	 call	 ?GetWidth@CGraphicDib@@QAEHXZ ; CGraphicDib::GetWidth
  0008c	89 45 e0	 mov	 DWORD PTR _width$[ebp], eax

; 180  : 	int height = m_dib.GetHeight();

  0008f	8b 4d fc	 mov	 ecx, DWORD PTR _this$[ebp]
  00092	83 c1 14	 add	 ecx, 20			; 00000014H
  00095	e8 00 00 00 00	 call	 ?GetHeight@CGraphicDib@@QAEHXZ ; CGraphicDib::GetHeight
  0009a	89 45 d4	 mov	 DWORD PTR _height$[ebp], eax

; 181  : 
; 182  : 	DWORD * pdwSrc = (DWORD*)m_dib.GetPointer();

  0009d	8b 4d fc	 mov	 ecx, DWORD PTR _this$[ebp]
  000a0	83 c1 14	 add	 ecx, 20			; 00000014H
  000a3	e8 00 00 00 00	 call	 ?GetPointer@CGraphicDib@@QAEPAXXZ ; CGraphicDib::GetPointer
  000a8	89 45 e8	 mov	 DWORD PTR _pdwSrc$[ebp], eax

; 183  : 
; 184  : 	for (int y = 0; y < height; ++y, pwDst += pitch, pdwSrc += width)

  000ab	83 65 f0 00	 and	 DWORD PTR _y$3[ebp], 0
  000af	eb 1f		 jmp	 SHORT $LN4@UpdateText
$LN2@UpdateText:
  000b1	8b 45 f0	 mov	 eax, DWORD PTR _y$3[ebp]
  000b4	40		 inc	 eax
  000b5	89 45 f0	 mov	 DWORD PTR _y$3[ebp], eax
  000b8	8b 45 f4	 mov	 eax, DWORD PTR _pitch$[ebp]
  000bb	8b 4d ec	 mov	 ecx, DWORD PTR _pwDst$[ebp]
  000be	8d 04 41	 lea	 eax, DWORD PTR [ecx+eax*2]
  000c1	89 45 ec	 mov	 DWORD PTR _pwDst$[ebp], eax
  000c4	8b 45 e0	 mov	 eax, DWORD PTR _width$[ebp]
  000c7	8b 4d e8	 mov	 ecx, DWORD PTR _pdwSrc$[ebp]
  000ca	8d 04 81	 lea	 eax, DWORD PTR [ecx+eax*4]
  000cd	89 45 e8	 mov	 DWORD PTR _pdwSrc$[ebp], eax
$LN4@UpdateText:
  000d0	8b 45 f0	 mov	 eax, DWORD PTR _y$3[ebp]
  000d3	3b 45 d4	 cmp	 eax, DWORD PTR _height$[ebp]
  000d6	7d 2d		 jge	 SHORT $LN3@UpdateText

; 185  : 		for (int x = 0; x < width; ++x)

  000d8	83 65 f8 00	 and	 DWORD PTR _x$4[ebp], 0
  000dc	eb 07		 jmp	 SHORT $LN7@UpdateText
$LN5@UpdateText:
  000de	8b 45 f8	 mov	 eax, DWORD PTR _x$4[ebp]
  000e1	40		 inc	 eax
  000e2	89 45 f8	 mov	 DWORD PTR _x$4[ebp], eax
$LN7@UpdateText:
  000e5	8b 45 f8	 mov	 eax, DWORD PTR _x$4[ebp]
  000e8	3b 45 e0	 cmp	 eax, DWORD PTR _width$[ebp]
  000eb	7d 16		 jge	 SHORT $LN6@UpdateText

; 186  : 			pwDst[x]=pdwSrc[x];

  000ed	8b 45 f8	 mov	 eax, DWORD PTR _x$4[ebp]
  000f0	8b 4d ec	 mov	 ecx, DWORD PTR _pwDst$[ebp]
  000f3	8b 55 f8	 mov	 edx, DWORD PTR _x$4[ebp]
  000f6	8b 75 e8	 mov	 esi, DWORD PTR _pdwSrc$[ebp]
  000f9	66 8b 14 96	 mov	 dx, WORD PTR [esi+edx*4]
  000fd	66 89 14 41	 mov	 WORD PTR [ecx+eax*2], dx
  00101	eb db		 jmp	 SHORT $LN5@UpdateText
$LN6@UpdateText:
  00103	eb ac		 jmp	 SHORT $LN2@UpdateText
$LN3@UpdateText:

; 187  : 	
; 188  : 	pFontTexture->Unlock();

  00105	6a 00		 push	 0
  00107	8b 4d e4	 mov	 ecx, DWORD PTR _pFontTexture$[ebp]
  0010a	e8 00 00 00 00	 call	 ?Unlock@CGraphicImageTexture@@QAEXH@Z ; CGraphicImageTexture::Unlock

; 189  : 	return true;

  0010f	b0 01		 mov	 al, 1
$LN1@UpdateText:

; 190  : }

  00111	5e		 pop	 esi
  00112	c9		 leave
  00113	c3		 ret	 0
?UpdateTexture@CGraphicFontTexture@@QAE_NXZ ENDP	; CGraphicFontTexture::UpdateTexture
_TEXT	ENDS
; Function compile flags: /Odspy
; File D:\Metin2 Server Files\mainline\SRC_2014\Metin2Client\EterLib\GrpFontTexture.cpp
; File C:\Program Files (x86)\Microsoft Visual Studio\2019\Community\VC\Tools\MSVC\14.28.29333\include\vector
; File D:\Metin2 Server Files\mainline\SRC_2014\Metin2Client\EterLib\GrpFontTexture.cpp
;	COMDAT ?SelectTexture@CGraphicFontTexture@@QAEXK@Z
_TEXT	SEGMENT
$T1 = -12						; size = 4
__My_data$2 = -8					; size = 4
_this$ = -4						; size = 4
_dwTexture$ = 8						; size = 4
?SelectTexture@CGraphicFontTexture@@QAEXK@Z PROC	; CGraphicFontTexture::SelectTexture, COMDAT
; _this$ = ecx

; 311  : {

  00000	55		 push	 ebp
  00001	8b ec		 mov	 ebp, esp
  00003	83 ec 0c	 sub	 esp, 12			; 0000000cH
  00006	89 4d fc	 mov	 DWORD PTR _this$[ebp], ecx
; File C:\Program Files (x86)\Microsoft Visual Studio\2019\Community\VC\Tools\MSVC\14.28.29333\include\vector

; 1498 :         auto& _My_data = _Mypair._Myval2;

  00009	8b 45 fc	 mov	 eax, DWORD PTR _this$[ebp]
  0000c	83 c0 60	 add	 eax, 96			; 00000060H
  0000f	89 45 f8	 mov	 DWORD PTR __My_data$2[ebp], eax

; 1499 : #if _CONTAINER_DEBUG_LEVEL > 0
; 1500 :         _STL_VERIFY(
; 1501 :             _Pos < static_cast<size_type>(_My_data._Mylast - _My_data._Myfirst), "vector subscript out of range");
; 1502 : #endif // _CONTAINER_DEBUG_LEVEL > 0
; 1503 : 
; 1504 :         return _My_data._Myfirst[_Pos];

  00012	8b 45 f8	 mov	 eax, DWORD PTR __My_data$2[ebp]
  00015	8b 00		 mov	 eax, DWORD PTR [eax]
  00017	8b 4d 08	 mov	 ecx, DWORD PTR _dwTexture$[ebp]
  0001a	8d 04 88	 lea	 eax, DWORD PTR [eax+ecx*4]
  0001d	89 45 f4	 mov	 DWORD PTR $T1[ebp], eax
; File D:\Metin2 Server Files\mainline\SRC_2014\Metin2Client\EterLib\GrpFontTexture.cpp

; 313  : 	m_lpd3dTexture = m_pFontTextureVector[dwTexture]->GetD3DTexture();

  00020	8b 45 f4	 mov	 eax, DWORD PTR $T1[ebp]
  00023	8b 08		 mov	 ecx, DWORD PTR [eax]
  00025	e8 00 00 00 00	 call	 ?GetD3DTexture@CGraphicTexture@@QBEPAUIDirect3DTexture8@@XZ ; CGraphicTexture::GetD3DTexture
  0002a	8b 4d fc	 mov	 ecx, DWORD PTR _this$[ebp]
  0002d	89 41 10	 mov	 DWORD PTR [ecx+16], eax

; 314  : }

  00030	c9		 leave
  00031	c2 04 00	 ret	 4
?SelectTexture@CGraphicFontTexture@@QAEXK@Z ENDP	; CGraphicFontTexture::SelectTexture
_TEXT	ENDS
; Function compile flags: /Odspy
; File D:\Metin2 Server Files\mainline\SRC_2014\Metin2Client\EterLib\GrpFontTexture.cpp
; File C:\Program Files (x86)\Microsoft Visual Studio\2019\Community\VC\Tools\MSVC\14.28.29333\include\vector
; File D:\Metin2 Server Files\mainline\SRC_2014\Metin2Client\EterLib\GrpFontTexture.cpp
;	COMDAT ?CheckTextureIndex@CGraphicFontTexture@@QAE_NK@Z
_TEXT	SEGMENT
$T1 = -12						; size = 4
_this$ = -8						; size = 4
__My_data$2 = -4					; size = 4
_dwTexture$ = 8						; size = 4
?CheckTextureIndex@CGraphicFontTexture@@QAE_NK@Z PROC	; CGraphicFontTexture::CheckTextureIndex, COMDAT
; _this$ = ecx

; 303  : {

  00000	55		 push	 ebp
  00001	8b ec		 mov	 ebp, esp
  00003	83 ec 0c	 sub	 esp, 12			; 0000000cH
  00006	89 4d f8	 mov	 DWORD PTR _this$[ebp], ecx
; File C:\Program Files (x86)\Microsoft Visual Studio\2019\Community\VC\Tools\MSVC\14.28.29333\include\vector

; 1483 :         auto& _My_data = _Mypair._Myval2;

  00009	8b 45 f8	 mov	 eax, DWORD PTR _this$[ebp]
  0000c	83 c0 60	 add	 eax, 96			; 00000060H
  0000f	89 45 fc	 mov	 DWORD PTR __My_data$2[ebp], eax

; 1484 :         return static_cast<size_type>(_My_data._Mylast - _My_data._Myfirst);

  00012	8b 45 fc	 mov	 eax, DWORD PTR __My_data$2[ebp]
  00015	8b 4d fc	 mov	 ecx, DWORD PTR __My_data$2[ebp]
  00018	8b 40 04	 mov	 eax, DWORD PTR [eax+4]
  0001b	2b 01		 sub	 eax, DWORD PTR [ecx]
  0001d	c1 f8 02	 sar	 eax, 2
  00020	89 45 f4	 mov	 DWORD PTR $T1[ebp], eax
; File D:\Metin2 Server Files\mainline\SRC_2014\Metin2Client\EterLib\GrpFontTexture.cpp

; 304  : 	if (dwTexture >= m_pFontTextureVector.size())

  00023	8b 45 08	 mov	 eax, DWORD PTR _dwTexture$[ebp]
  00026	3b 45 f4	 cmp	 eax, DWORD PTR $T1[ebp]
  00029	72 04		 jb	 SHORT $LN2@CheckTextu

; 305  : 		return false;

  0002b	32 c0		 xor	 al, al
  0002d	eb 02		 jmp	 SHORT $LN1@CheckTextu
$LN2@CheckTextu:

; 306  : 
; 307  : 	return true;

  0002f	b0 01		 mov	 al, 1
$LN1@CheckTextu:

; 308  : }

  00031	c9		 leave
  00032	c2 04 00	 ret	 4
?CheckTextureIndex@CGraphicFontTexture@@QAE_NK@Z ENDP	; CGraphicFontTexture::CheckTextureIndex
_TEXT	ENDS
; Function compile flags: /Odspy
; File D:\Metin2 Server Files\mainline\SRC_2014\Metin2Client\EterLib\GrpFontTexture.cpp
;	COMDAT ?DestroyDeviceObjects@CGraphicFontTexture@@QAEXXZ
_TEXT	SEGMENT
_this$ = -4						; size = 4
?DestroyDeviceObjects@CGraphicFontTexture@@QAEXXZ PROC	; CGraphicFontTexture::DestroyDeviceObjects, COMDAT
; _this$ = ecx

; 66   : {

  00000	55		 push	 ebp
  00001	8b ec		 mov	 ebp, esp
  00003	51		 push	 ecx
  00004	89 4d fc	 mov	 DWORD PTR _this$[ebp], ecx

; 67   : }

  00007	c9		 leave
  00008	c3		 ret	 0
?DestroyDeviceObjects@CGraphicFontTexture@@QAEXXZ ENDP	; CGraphicFontTexture::DestroyDeviceObjects
_TEXT	ENDS
; Function compile flags: /Odspy
; File D:\Metin2 Server Files\mainline\SRC_2014\Metin2Client\EterLib\GrpFontTexture.cpp
;	COMDAT ?CreateDeviceObjects@CGraphicFontTexture@@QAE_NXZ
_TEXT	SEGMENT
_this$ = -4						; size = 4
?CreateDeviceObjects@CGraphicFontTexture@@QAE_NXZ PROC	; CGraphicFontTexture::CreateDeviceObjects, COMDAT
; _this$ = ecx

; 61   : {

  00000	55		 push	 ebp
  00001	8b ec		 mov	 ebp, esp
  00003	51		 push	 ecx
  00004	89 4d fc	 mov	 DWORD PTR _this$[ebp], ecx

; 62   : 	return true;

  00007	b0 01		 mov	 al, 1

; 63   : }

  00009	c9		 leave
  0000a	c3		 ret	 0
?CreateDeviceObjects@CGraphicFontTexture@@QAE_NXZ ENDP	; CGraphicFontTexture::CreateDeviceObjects
_TEXT	ENDS
; Function compile flags: /Odspy
; File D:\Metin2 Server Files\mainline\SRC_2014\Metin2Client\EterLib\GrpFontTexture.cpp
;	COMDAT ?Create@CGraphicFontTexture@@QAE_NPBDH_N@Z
_TEXT	SEGMENT
_width$ = -16						; size = 4
_height$ = -12						; size = 4
_hDC$ = -8						; size = 4
_this$ = -4						; size = 4
_c_szFontName$ = 8					; size = 4
_fontSize$ = 12						; size = 4
_bItalic$ = 16						; size = 1
?Create@CGraphicFontTexture@@QAE_NPBDH_N@Z PROC		; CGraphicFontTexture::Create, COMDAT
; _this$ = ecx

; 70   : {

  00000	55		 push	 ebp
  00001	8b ec		 mov	 ebp, esp
  00003	83 ec 10	 sub	 esp, 16			; 00000010H
  00006	89 4d fc	 mov	 DWORD PTR _this$[ebp], ecx

; 71   : 	Destroy();

  00009	8b 4d fc	 mov	 ecx, DWORD PTR _this$[ebp]
  0000c	e8 00 00 00 00	 call	 ?Destroy@CGraphicFontTexture@@QAEXXZ ; CGraphicFontTexture::Destroy

; 72   : 	
; 73   : 	strncpy(m_fontName, c_szFontName, sizeof(m_fontName)-1);

  00011	6a 1f		 push	 31			; 0000001fH
  00013	ff 75 08	 push	 DWORD PTR _c_szFontName$[ebp]
  00016	8b 45 fc	 mov	 eax, DWORD PTR _this$[ebp]
  00019	05 89 00 00 00	 add	 eax, 137		; 00000089H
  0001e	50		 push	 eax
  0001f	e8 00 00 00 00	 call	 _strncpy
  00024	83 c4 0c	 add	 esp, 12			; 0000000cH

; 74   : 	m_fontSize	= fontSize;

  00027	8b 45 fc	 mov	 eax, DWORD PTR _this$[ebp]
  0002a	8b 4d 0c	 mov	 ecx, DWORD PTR _fontSize$[ebp]
  0002d	89 88 ac 00 00
	00		 mov	 DWORD PTR [eax+172], ecx

; 75   : 	m_bItalic	= bItalic;

  00033	8b 45 fc	 mov	 eax, DWORD PTR _this$[ebp]
  00036	8a 4d 10	 mov	 cl, BYTE PTR _bItalic$[ebp]
  00039	88 88 b0 00 00
	00		 mov	 BYTE PTR [eax+176], cl

; 76   : 
; 77   : 	m_x = 0;

  0003f	8b 45 fc	 mov	 eax, DWORD PTR _this$[ebp]
  00042	83 60 7c 00	 and	 DWORD PTR [eax+124], 0

; 78   : 	m_y = 0;

  00046	8b 45 fc	 mov	 eax, DWORD PTR _this$[ebp]
  00049	83 a0 80 00 00
	00 00		 and	 DWORD PTR [eax+128], 0

; 79   : 	m_step = 0;

  00050	8b 45 fc	 mov	 eax, DWORD PTR _this$[ebp]
  00053	83 a0 84 00 00
	00 00		 and	 DWORD PTR [eax+132], 0

; 80   : 
; 81   : 	DWORD width = 256,height = 256;

  0005a	c7 45 f0 00 01
	00 00		 mov	 DWORD PTR _width$[ebp], 256 ; 00000100H
  00061	c7 45 f4 00 01
	00 00		 mov	 DWORD PTR _height$[ebp], 256 ; 00000100H

; 82   : 	if (GetMaxTextureWidth() > 512)

  00068	e8 00 00 00 00	 call	 ?GetMaxTextureWidth@@YAKXZ ; GetMaxTextureWidth
  0006d	3d 00 02 00 00	 cmp	 eax, 512		; 00000200H
  00072	76 07		 jbe	 SHORT $LN2@Create

; 83   : 		width = 512;

  00074	c7 45 f0 00 02
	00 00		 mov	 DWORD PTR _width$[ebp], 512 ; 00000200H
$LN2@Create:

; 84   : 	if (GetMaxTextureHeight() > 512)

  0007b	e8 00 00 00 00	 call	 ?GetMaxTextureHeight@@YAKXZ ; GetMaxTextureHeight
  00080	3d 00 02 00 00	 cmp	 eax, 512		; 00000200H
  00085	76 07		 jbe	 SHORT $LN3@Create

; 85   : 		height = 512;

  00087	c7 45 f4 00 02
	00 00		 mov	 DWORD PTR _height$[ebp], 512 ; 00000200H
$LN3@Create:

; 86   : 	
; 87   : 	if (!m_dib.Create(ms_hDC, width, height))

  0008e	ff 75 f4	 push	 DWORD PTR _height$[ebp]
  00091	ff 75 f0	 push	 DWORD PTR _width$[ebp]
  00094	ff 35 00 00 00
	00		 push	 DWORD PTR ?ms_hDC@CGraphicBase@@1PAUHDC__@@A ; CGraphicBase::ms_hDC
  0009a	8b 4d fc	 mov	 ecx, DWORD PTR _this$[ebp]
  0009d	83 c1 14	 add	 ecx, 20			; 00000014H
  000a0	e8 00 00 00 00	 call	 ?Create@CGraphicDib@@QAE_NPAUHDC__@@HH@Z ; CGraphicDib::Create
  000a5	0f b6 c0	 movzx	 eax, al
  000a8	85 c0		 test	 eax, eax
  000aa	75 04		 jne	 SHORT $LN4@Create

; 88   : 		return false;

  000ac	32 c0		 xor	 al, al
  000ae	eb 65		 jmp	 SHORT $LN1@Create
$LN4@Create:

; 89   : 
; 90   : 	HDC hDC = m_dib.GetDCHandle();

  000b0	8b 4d fc	 mov	 ecx, DWORD PTR _this$[ebp]
  000b3	83 c1 14	 add	 ecx, 20			; 00000014H
  000b6	e8 00 00 00 00	 call	 ?GetDCHandle@CGraphicDib@@QAEPAUHDC__@@XZ ; CGraphicDib::GetDCHandle
  000bb	89 45 f8	 mov	 DWORD PTR _hDC$[ebp], eax

; 91   : 
; 92   : 	m_hFont = GetFont(GetDefaultCodePage());

  000be	e8 00 00 00 00	 call	 ?GetDefaultCodePage@@YAKXZ ; GetDefaultCodePage
  000c3	50		 push	 eax
  000c4	8b 4d fc	 mov	 ecx, DWORD PTR _this$[ebp]
  000c7	e8 00 00 00 00	 call	 ?GetFont@CGraphicFontTexture@@IAEPAUHFONT__@@G@Z ; CGraphicFontTexture::GetFont
  000cc	8b 4d fc	 mov	 ecx, DWORD PTR _this$[ebp]
  000cf	89 41 5c	 mov	 DWORD PTR [ecx+92], eax

; 93   : 
; 94   : 	m_hFontOld=(HFONT)SelectObject(hDC, m_hFont);

  000d2	8b 45 fc	 mov	 eax, DWORD PTR _this$[ebp]
  000d5	ff 70 5c	 push	 DWORD PTR [eax+92]
  000d8	ff 75 f8	 push	 DWORD PTR _hDC$[ebp]
  000db	ff 15 00 00 00
	00		 call	 DWORD PTR __imp__SelectObject@8
  000e1	8b 4d fc	 mov	 ecx, DWORD PTR _this$[ebp]
  000e4	89 41 58	 mov	 DWORD PTR [ecx+88], eax

; 95   : 	SetTextColor(hDC, RGB(255, 255, 255));

  000e7	68 ff ff ff 00	 push	 16777215		; 00ffffffH
  000ec	ff 75 f8	 push	 DWORD PTR _hDC$[ebp]
  000ef	ff 15 00 00 00
	00		 call	 DWORD PTR __imp__SetTextColor@8

; 96   : 	SetBkColor(hDC,	0);

  000f5	6a 00		 push	 0
  000f7	ff 75 f8	 push	 DWORD PTR _hDC$[ebp]
  000fa	ff 15 00 00 00
	00		 call	 DWORD PTR __imp__SetBkColor@8

; 97   : 
; 98   : 	if (!AppendTexture())

  00100	8b 4d fc	 mov	 ecx, DWORD PTR _this$[ebp]
  00103	e8 00 00 00 00	 call	 ?AppendTexture@CGraphicFontTexture@@IAE_NXZ ; CGraphicFontTexture::AppendTexture
  00108	0f b6 c0	 movzx	 eax, al
  0010b	85 c0		 test	 eax, eax
  0010d	75 04		 jne	 SHORT $LN5@Create

; 99   : 		return false;

  0010f	32 c0		 xor	 al, al
  00111	eb 02		 jmp	 SHORT $LN1@Create
$LN5@Create:

; 100  : 	
; 101  : 	return true;

  00113	b0 01		 mov	 al, 1
$LN1@Create:

; 102  : }

  00115	c9		 leave
  00116	c2 0c 00	 ret	 12			; 0000000cH
?Create@CGraphicFontTexture@@QAE_NPBDH_N@Z ENDP		; CGraphicFontTexture::Create
_TEXT	ENDS
; Function compile flags: /Odspy
; File D:\Metin2 Server Files\mainline\SRC_2014\Metin2Client\EterLib\GrpFontTexture.cpp
; File C:\Program Files (x86)\Microsoft Visual Studio\2019\Community\VC\Tools\MSVC\14.28.29333\include\xtree
; File C:\Program Files (x86)\Microsoft Visual Studio\2019\Community\VC\Tools\MSVC\14.28.29333\include\xstddef
; File C:\Program Files (x86)\Microsoft Visual Studio\2019\Community\VC\Tools\MSVC\14.28.29333\include\xtree
; File D:\Metin2 Server Files\mainline\SRC_2014\Metin2Client\EterLib\GrpFontTexture.cpp
; File C:\Program Files (x86)\Microsoft Visual Studio\2019\Community\VC\Tools\MSVC\14.28.29333\include\xtree
; File C:\Program Files (x86)\Microsoft Visual Studio\2019\Community\VC\Tools\MSVC\14.28.29333\include\xstddef
; File C:\Program Files (x86)\Microsoft Visual Studio\2019\Community\VC\Tools\MSVC\14.28.29333\include\xtree
; File C:\Program Files (x86)\Microsoft Visual Studio\2019\Community\VC\Tools\MSVC\14.28.29333\include\xstddef
; File C:\Program Files (x86)\Microsoft Visual Studio\2019\Community\VC\Tools\MSVC\14.28.29333\include\xtree
; File D:\Metin2 Server Files\mainline\SRC_2014\Metin2Client\EterLib\GrpFontTexture.cpp
; File C:\Program Files (x86)\Microsoft Visual Studio\2019\Community\VC\Tools\MSVC\14.28.29333\include\xtree
; File C:\Program Files (x86)\Microsoft Visual Studio\2019\Community\VC\Tools\MSVC\14.28.29333\include\xstddef
; File C:\Program Files (x86)\Microsoft Visual Studio\2019\Community\VC\Tools\MSVC\14.28.29333\include\xutility
; File C:\Program Files (x86)\Microsoft Visual Studio\2019\Community\VC\Tools\MSVC\14.28.29333\include\xtree
; File D:\Metin2 Server Files\mainline\SRC_2014\Metin2Client\EterLib\GrpFontTexture.cpp
; File C:\Program Files (x86)\Microsoft Visual Studio\2019\Community\VC\Tools\MSVC\14.28.29333\include\xtree
; File D:\Metin2 Server Files\mainline\SRC_2014\Metin2Client\EterLib\GrpFontTexture.cpp
;	COMDAT ?Destroy@CGraphicFontTexture@@QAEXXZ
_TEXT	SEGMENT
$T1 = -88						; size = 4
$T2 = -84						; size = 4
$T3 = -80						; size = 4
$T4 = -76						; size = 4
$T5 = -72						; size = 4
$T6 = -68						; size = 4
$T7 = -64						; size = 4
___param0$ = -60					; size = 4
__Scary$8 = -56						; size = 4
$T9 = -52						; size = 4
___param0$ = -48					; size = 4
__Scary$10 = -44					; size = 4
$T11 = -40						; size = 4
$T12 = -36						; size = 4
$T13 = -32						; size = 4
$T14 = -28						; size = 4
tv270 = -24						; size = 4
tv294 = -20						; size = 4
_hDC$ = -16						; size = 4
_i$15 = -12						; size = 4
_this$ = -8						; size = 4
$T16 = -2						; size = 1
$T17 = -1						; size = 1
?Destroy@CGraphicFontTexture@@QAEXXZ PROC		; CGraphicFontTexture::Destroy, COMDAT
; _this$ = ecx

; 32   : {

  00000	55		 push	 ebp
  00001	8b ec		 mov	 ebp, esp
  00003	83 ec 58	 sub	 esp, 88			; 00000058H
  00006	89 4d f8	 mov	 DWORD PTR _this$[ebp], ecx

; 33   : 	HDC hDC = m_dib.GetDCHandle();

  00009	8b 4d f8	 mov	 ecx, DWORD PTR _this$[ebp]
  0000c	83 c1 14	 add	 ecx, 20			; 00000014H
  0000f	e8 00 00 00 00	 call	 ?GetDCHandle@CGraphicDib@@QAEPAUHDC__@@XZ ; CGraphicDib::GetDCHandle
  00014	89 45 f0	 mov	 DWORD PTR _hDC$[ebp], eax

; 34   : 	if (hDC)

  00017	83 7d f0 00	 cmp	 DWORD PTR _hDC$[ebp], 0
  0001b	74 0f		 je	 SHORT $LN4@Destroy

; 35   : 		SelectObject(hDC, m_hFontOld);

  0001d	8b 45 f8	 mov	 eax, DWORD PTR _this$[ebp]
  00020	ff 70 58	 push	 DWORD PTR [eax+88]
  00023	ff 75 f0	 push	 DWORD PTR _hDC$[ebp]
  00026	ff 15 00 00 00
	00		 call	 DWORD PTR __imp__SelectObject@8
$LN4@Destroy:

; 36   : 
; 37   : 	m_dib.Destroy();

  0002c	8b 4d f8	 mov	 ecx, DWORD PTR _this$[ebp]
  0002f	83 c1 14	 add	 ecx, 20			; 00000014H
  00032	e8 00 00 00 00	 call	 ?Destroy@CGraphicDib@@QAEXXZ ; CGraphicDib::Destroy

; 38   : 
; 39   : 	m_lpd3dTexture = NULL;

  00037	8b 45 f8	 mov	 eax, DWORD PTR _this$[ebp]
  0003a	83 60 10 00	 and	 DWORD PTR [eax+16], 0

; 40   : 	CGraphicTexture::Destroy();

  0003e	8b 4d f8	 mov	 ecx, DWORD PTR _this$[ebp]
  00041	e8 00 00 00 00	 call	 ?Destroy@CGraphicTexture@@IAEXXZ ; CGraphicTexture::Destroy

; 41   : 	stl_wipe(m_pFontTextureVector);

  00046	8b 45 f8	 mov	 eax, DWORD PTR _this$[ebp]
  00049	83 c0 60	 add	 eax, 96			; 00000060H
  0004c	50		 push	 eax
  0004d	e8 00 00 00 00	 call	 ??$stl_wipe@V?$vector@PAVCGraphicImageTexture@@V?$allocator@PAVCGraphicImageTexture@@@std@@@std@@@@YAXAAV?$vector@PAVCGraphicImageTexture@@V?$allocator@PAVCGraphicImageTexture@@@std@@@std@@@Z ; stl_wipe<std::vector<CGraphicImageTexture *,std::allocator<CGraphicImageTexture *> > >
  00052	59		 pop	 ecx

; 42   : 	m_charInfoMap.clear();

  00053	8b 4d f8	 mov	 ecx, DWORD PTR _this$[ebp]
  00056	83 c1 6c	 add	 ecx, 108		; 0000006cH
  00059	e8 00 00 00 00	 call	 ?clear@?$_Tree@V?$_Tmap_traits@U?$pair@G_W@std@@USCharacterInfomation@CGraphicFontTexture@@U?$less@U?$pair@G_W@std@@@2@V?$allocator@U?$pair@$$CBU?$pair@G_W@std@@USCharacterInfomation@CGraphicFontTexture@@@std@@@2@$0A@@std@@@std@@QAEXXZ ; std::_Tree<std::_Tmap_traits<std::pair<unsigned short,wchar_t>,CGraphicFontTexture::SCharacterInfomation,std::less<std::pair<unsigned short,wchar_t> >,std::allocator<std::pair<std::pair<unsigned short,wchar_t> const ,CGraphicFontTexture::SCharacterInfomation> >,0> >::clear
; File C:\Program Files (x86)\Microsoft Visual Studio\2019\Community\VC\Tools\MSVC\14.28.29333\include\xtree

; 2051 :         return _STD addressof(_Mypair._Myval2._Myval2);

  0005e	8b 45 f8	 mov	 eax, DWORD PTR _this$[ebp]
  00061	83 c0 74	 add	 eax, 116		; 00000074H
; File C:\Program Files (x86)\Microsoft Visual Studio\2019\Community\VC\Tools\MSVC\14.28.29333\include\xstddef

; 275  :     return __builtin_addressof(_Val);

  00064	89 45 e4	 mov	 DWORD PTR $T14[ebp], eax
; File C:\Program Files (x86)\Microsoft Visual Studio\2019\Community\VC\Tools\MSVC\14.28.29333\include\xtree

; 2051 :         return _STD addressof(_Mypair._Myval2._Myval2);

  00067	8b 45 e4	 mov	 eax, DWORD PTR $T14[ebp]
  0006a	89 45 e0	 mov	 DWORD PTR $T13[ebp], eax

; 1307 :         return _Get_scary()->_Mysize;

  0006d	8b 45 e0	 mov	 eax, DWORD PTR $T13[ebp]
  00070	8b 40 04	 mov	 eax, DWORD PTR [eax+4]
  00073	89 45 dc	 mov	 DWORD PTR $T12[ebp], eax
; File D:\Metin2 Server Files\mainline\SRC_2014\Metin2Client\EterLib\GrpFontTexture.cpp

; 44   : 	if (m_fontMap.size())

  00076	83 7d dc 00	 cmp	 DWORD PTR $T12[ebp], 0
  0007a	0f 84 c7 00 00
	00		 je	 $LN5@Destroy
; File C:\Program Files (x86)\Microsoft Visual Studio\2019\Community\VC\Tools\MSVC\14.28.29333\include\xtree

; 2047 :         return _STD addressof(_Mypair._Myval2._Myval2);

  00080	8b 45 f8	 mov	 eax, DWORD PTR _this$[ebp]
  00083	83 c0 74	 add	 eax, 116		; 00000074H
; File C:\Program Files (x86)\Microsoft Visual Studio\2019\Community\VC\Tools\MSVC\14.28.29333\include\xstddef

; 275  :     return __builtin_addressof(_Val);

  00086	89 45 d8	 mov	 DWORD PTR $T11[ebp], eax
; File C:\Program Files (x86)\Microsoft Visual Studio\2019\Community\VC\Tools\MSVC\14.28.29333\include\xtree

; 2047 :         return _STD addressof(_Mypair._Myval2._Myval2);

  00089	8b 45 d8	 mov	 eax, DWORD PTR $T11[ebp]
  0008c	89 45 d4	 mov	 DWORD PTR __Scary$10[ebp], eax

; 1240 :         return iterator(_Scary->_Myhead->_Left, _Scary);

  0008f	8b 45 d4	 mov	 eax, DWORD PTR __Scary$10[ebp]
  00092	8b 00		 mov	 eax, DWORD PTR [eax]
  00094	8b 00		 mov	 eax, DWORD PTR [eax]
  00096	89 45 d0	 mov	 DWORD PTR ___param0$[ebp], eax

; 39   :     _Tree_unchecked_const_iterator(_Nodeptr _Pnode, const _Mytree* _Plist) noexcept : _Ptr(_Pnode) {

  00099	8b 45 d0	 mov	 eax, DWORD PTR ___param0$[ebp]
  0009c	89 45 f4	 mov	 DWORD PTR _i$15[ebp], eax
$LN2@Destroy:

; 2047 :         return _STD addressof(_Mypair._Myval2._Myval2);

  0009f	8b 45 f8	 mov	 eax, DWORD PTR _this$[ebp]
  000a2	83 c0 74	 add	 eax, 116		; 00000074H
; File C:\Program Files (x86)\Microsoft Visual Studio\2019\Community\VC\Tools\MSVC\14.28.29333\include\xstddef

; 275  :     return __builtin_addressof(_Val);

  000a5	89 45 cc	 mov	 DWORD PTR $T9[ebp], eax
; File C:\Program Files (x86)\Microsoft Visual Studio\2019\Community\VC\Tools\MSVC\14.28.29333\include\xtree

; 2047 :         return _STD addressof(_Mypair._Myval2._Myval2);

  000a8	8b 45 cc	 mov	 eax, DWORD PTR $T9[ebp]
  000ab	89 45 c8	 mov	 DWORD PTR __Scary$8[ebp], eax

; 1250 :         return iterator(_Scary->_Myhead, _Scary);

  000ae	8b 45 c8	 mov	 eax, DWORD PTR __Scary$8[ebp]
  000b1	8b 00		 mov	 eax, DWORD PTR [eax]
  000b3	89 45 c4	 mov	 DWORD PTR ___param0$[ebp], eax

; 39   :     _Tree_unchecked_const_iterator(_Nodeptr _Pnode, const _Mytree* _Plist) noexcept : _Ptr(_Pnode) {

  000b6	8b 45 c4	 mov	 eax, DWORD PTR ___param0$[ebp]
  000b9	89 45 c0	 mov	 DWORD PTR $T7[ebp], eax

; 1250 :         return iterator(_Scary->_Myhead, _Scary);

  000bc	8d 45 c0	 lea	 eax, DWORD PTR $T7[ebp]
  000bf	89 45 bc	 mov	 DWORD PTR $T6[ebp], eax

; 232  :         return this->_Ptr == _Right._Ptr;

  000c2	8b 45 bc	 mov	 eax, DWORD PTR $T6[ebp]
  000c5	8b 4d f4	 mov	 ecx, DWORD PTR _i$15[ebp]
  000c8	3b 08		 cmp	 ecx, DWORD PTR [eax]
  000ca	75 09		 jne	 SHORT $LN160@Destroy
  000cc	c7 45 ec 01 00
	00 00		 mov	 DWORD PTR tv294[ebp], 1
  000d3	eb 04		 jmp	 SHORT $LN161@Destroy
$LN160@Destroy:
  000d5	83 65 ec 00	 and	 DWORD PTR tv294[ebp], 0
$LN161@Destroy:
  000d9	8a 45 ec	 mov	 al, BYTE PTR tv294[ebp]
  000dc	88 45 ff	 mov	 BYTE PTR $T17[ebp], al

; 236  :         return !(*this == _Right);

  000df	0f b6 45 ff	 movzx	 eax, BYTE PTR $T17[ebp]
  000e3	85 c0		 test	 eax, eax
  000e5	75 09		 jne	 SHORT $LN155@Destroy
  000e7	c7 45 e8 01 00
	00 00		 mov	 DWORD PTR tv270[ebp], 1
  000ee	eb 04		 jmp	 SHORT $LN156@Destroy
$LN155@Destroy:
  000f0	83 65 e8 00	 and	 DWORD PTR tv270[ebp], 0
$LN156@Destroy:
  000f4	8a 45 e8	 mov	 al, BYTE PTR tv270[ebp]
  000f7	88 45 fe	 mov	 BYTE PTR $T16[ebp], al
; File D:\Metin2 Server Files\mainline\SRC_2014\Metin2Client\EterLib\GrpFontTexture.cpp

; 48   : 		while(i != m_fontMap.end())

  000fa	0f b6 45 fe	 movzx	 eax, BYTE PTR $T16[ebp]
  000fe	85 c0		 test	 eax, eax
  00100	74 3a		 je	 SHORT $LN3@Destroy
; File C:\Program Files (x86)\Microsoft Visual Studio\2019\Community\VC\Tools\MSVC\14.28.29333\include\xtree

; 185  :         return this->_Ptr->_Myval;

  00102	8b 45 f4	 mov	 eax, DWORD PTR _i$15[ebp]
  00105	83 c0 10	 add	 eax, 16			; 00000010H
  00108	89 45 b8	 mov	 DWORD PTR $T5[ebp], eax

; 273  :         return const_cast<reference>(_Mybase::operator*());

  0010b	8b 45 b8	 mov	 eax, DWORD PTR $T5[ebp]
  0010e	89 45 b4	 mov	 DWORD PTR $T4[ebp], eax
; File C:\Program Files (x86)\Microsoft Visual Studio\2019\Community\VC\Tools\MSVC\14.28.29333\include\xstddef

; 275  :     return __builtin_addressof(_Val);

  00111	8b 45 b4	 mov	 eax, DWORD PTR $T4[ebp]
  00114	89 45 b0	 mov	 DWORD PTR $T3[ebp], eax
; File C:\Program Files (x86)\Microsoft Visual Studio\2019\Community\VC\Tools\MSVC\14.28.29333\include\xutility

; 151  :         return _STD addressof(_Val);

  00117	8b 45 b0	 mov	 eax, DWORD PTR $T3[ebp]
  0011a	89 45 ac	 mov	 DWORD PTR $T2[ebp], eax
; File C:\Program Files (x86)\Microsoft Visual Studio\2019\Community\VC\Tools\MSVC\14.28.29333\include\xtree

; 277  :         return pointer_traits<pointer>::pointer_to(**this);

  0011d	8b 45 ac	 mov	 eax, DWORD PTR $T2[ebp]
  00120	89 45 a8	 mov	 DWORD PTR $T1[ebp], eax
; File D:\Metin2 Server Files\mainline\SRC_2014\Metin2Client\EterLib\GrpFontTexture.cpp

; 50   : 			DeleteObject((HGDIOBJ)i->second);

  00123	8b 45 a8	 mov	 eax, DWORD PTR $T1[ebp]
  00126	ff 70 04	 push	 DWORD PTR [eax+4]
  00129	ff 15 00 00 00
	00		 call	 DWORD PTR __imp__DeleteObject@4
; File C:\Program Files (x86)\Microsoft Visual Studio\2019\Community\VC\Tools\MSVC\14.28.29333\include\xtree

; 198  :         _Mybase::operator++();

  0012f	8d 4d f4	 lea	 ecx, DWORD PTR _i$15[ebp]
  00132	e8 00 00 00 00	 call	 ??E?$_Tree_unchecked_const_iterator@V?$_Tree_val@U?$_Tree_simple_types@U?$pair@$$CBGPAUHFONT__@@@std@@@std@@@std@@U_Iterator_base0@2@@std@@QAEAAV01@XZ ; std::_Tree_unchecked_const_iterator<std::_Tree_val<std::_Tree_simple_types<std::pair<unsigned short const ,HFONT__ *> > >,std::_Iterator_base0>::operator++
; File D:\Metin2 Server Files\mainline\SRC_2014\Metin2Client\EterLib\GrpFontTexture.cpp

; 52   : 		}

  00137	e9 63 ff ff ff	 jmp	 $LN2@Destroy
$LN3@Destroy:

; 53   : 
; 54   : 		m_fontMap.clear();

  0013c	8b 4d f8	 mov	 ecx, DWORD PTR _this$[ebp]
  0013f	83 c1 74	 add	 ecx, 116		; 00000074H
  00142	e8 00 00 00 00	 call	 ?clear@?$_Tree@V?$_Tmap_traits@GPAUHFONT__@@U?$less@G@std@@V?$allocator@U?$pair@$$CBGPAUHFONT__@@@std@@@3@$0A@@std@@@std@@QAEXXZ ; std::_Tree<std::_Tmap_traits<unsigned short,HFONT__ *,std::less<unsigned short>,std::allocator<std::pair<unsigned short const ,HFONT__ *> >,0> >::clear
$LN5@Destroy:

; 55   : 	}
; 56   : 	
; 57   : 	Initialize();

  00147	8b 4d f8	 mov	 ecx, DWORD PTR _this$[ebp]
  0014a	e8 00 00 00 00	 call	 ?Initialize@CGraphicFontTexture@@IAEXXZ ; CGraphicFontTexture::Initialize

; 58   : }

  0014f	c9		 leave
  00150	c3		 ret	 0
?Destroy@CGraphicFontTexture@@QAEXXZ ENDP		; CGraphicFontTexture::Destroy
_TEXT	ENDS
; Function compile flags: /Odspy
; File D:\Metin2 Server Files\mainline\SRC_2014\Metin2Client\EterLib\GrpFontTexture.cpp
; File C:\Program Files (x86)\Microsoft Visual Studio\2019\Community\VC\Tools\MSVC\14.28.29333\include\vector
; File D:\Metin2 Server Files\mainline\SRC_2014\Metin2Client\EterLib\GrpFontTexture.cpp
;	COMDAT ??1CGraphicFontTexture@@UAE@XZ
_TEXT	SEGMENT
_this$ = -16						; size = 4
__$EHRec$ = -12						; size = 12
??1CGraphicFontTexture@@UAE@XZ PROC			; CGraphicFontTexture::~CGraphicFontTexture, COMDAT
; _this$ = ecx

; 13   : {

  00000	55		 push	 ebp
  00001	8b ec		 mov	 ebp, esp
  00003	6a ff		 push	 -1
  00005	68 00 00 00 00	 push	 __ehhandler$??1CGraphicFontTexture@@UAE@XZ
  0000a	64 a1 00 00 00
	00		 mov	 eax, DWORD PTR fs:0
  00010	50		 push	 eax
  00011	51		 push	 ecx
  00012	a1 00 00 00 00	 mov	 eax, DWORD PTR ___security_cookie
  00017	33 c5		 xor	 eax, ebp
  00019	50		 push	 eax
  0001a	8d 45 f4	 lea	 eax, DWORD PTR __$EHRec$[ebp]
  0001d	64 a3 00 00 00
	00		 mov	 DWORD PTR fs:0, eax
  00023	89 4d f0	 mov	 DWORD PTR _this$[ebp], ecx
  00026	8b 45 f0	 mov	 eax, DWORD PTR _this$[ebp]
  00029	c7 00 00 00 00
	00		 mov	 DWORD PTR [eax], OFFSET ??_7CGraphicFontTexture@@6B@

; 14   : 	Destroy();

  0002f	8b 4d f0	 mov	 ecx, DWORD PTR _this$[ebp]
  00032	e8 00 00 00 00	 call	 ?Destroy@CGraphicFontTexture@@QAEXXZ ; CGraphicFontTexture::Destroy

; 15   : }

  00037	8b 4d f0	 mov	 ecx, DWORD PTR _this$[ebp]
  0003a	83 c1 74	 add	 ecx, 116		; 00000074H
  0003d	e8 00 00 00 00	 call	 ??1?$_Tree@V?$_Tmap_traits@GPAUHFONT__@@U?$less@G@std@@V?$allocator@U?$pair@$$CBGPAUHFONT__@@@std@@@3@$0A@@std@@@std@@QAE@XZ ; std::_Tree<std::_Tmap_traits<unsigned short,HFONT__ *,std::less<unsigned short>,std::allocator<std::pair<unsigned short const ,HFONT__ *> >,0> >::~_Tree<std::_Tmap_traits<unsigned short,HFONT__ *,std::less<unsigned short>,std::allocator<std::pair<unsigned short const ,HFONT__ *> >,0> >
  00042	8b 4d f0	 mov	 ecx, DWORD PTR _this$[ebp]
  00045	83 c1 6c	 add	 ecx, 108		; 0000006cH
  00048	e8 00 00 00 00	 call	 ??1?$_Tree@V?$_Tmap_traits@U?$pair@G_W@std@@USCharacterInfomation@CGraphicFontTexture@@U?$less@U?$pair@G_W@std@@@2@V?$allocator@U?$pair@$$CBU?$pair@G_W@std@@USCharacterInfomation@CGraphicFontTexture@@@std@@@2@$0A@@std@@@std@@QAE@XZ ; std::_Tree<std::_Tmap_traits<std::pair<unsigned short,wchar_t>,CGraphicFontTexture::SCharacterInfomation,std::less<std::pair<unsigned short,wchar_t> >,std::allocator<std::pair<std::pair<unsigned short,wchar_t> const ,CGraphicFontTexture::SCharacterInfomation> >,0> >::~_Tree<std::_Tmap_traits<std::pair<unsigned short,wchar_t>,CGraphicFontTexture::SCharacterInfomation,std::less<std::pair<unsigned short,wchar_t> >,std::allocator<std::pair<std::pair<unsigned short,wchar_t> const ,CGraphicFontTexture::SCharacterInfomation> >,0> >
  0004d	8b 4d f0	 mov	 ecx, DWORD PTR _this$[ebp]
  00050	83 c1 60	 add	 ecx, 96			; 00000060H
; File C:\Program Files (x86)\Microsoft Visual Studio\2019\Community\VC\Tools\MSVC\14.28.29333\include\vector

; 673  :         _Tidy();

  00053	e8 00 00 00 00	 call	 ?_Tidy@?$vector@PAVCGraphicImageTexture@@V?$allocator@PAVCGraphicImageTexture@@@std@@@std@@AAEXXZ ; std::vector<CGraphicImageTexture *,std::allocator<CGraphicImageTexture *> >::_Tidy
; File D:\Metin2 Server Files\mainline\SRC_2014\Metin2Client\EterLib\GrpFontTexture.cpp

; 15   : }

  00058	8b 4d f0	 mov	 ecx, DWORD PTR _this$[ebp]
  0005b	83 c1 14	 add	 ecx, 20			; 00000014H
  0005e	e8 00 00 00 00	 call	 ??1CGraphicDib@@UAE@XZ	; CGraphicDib::~CGraphicDib
  00063	8b 4d f0	 mov	 ecx, DWORD PTR _this$[ebp]
  00066	e8 00 00 00 00	 call	 ??1CGraphicTexture@@MAE@XZ ; CGraphicTexture::~CGraphicTexture
  0006b	8b 4d f4	 mov	 ecx, DWORD PTR __$EHRec$[ebp]
  0006e	64 89 0d 00 00
	00 00		 mov	 DWORD PTR fs:0, ecx
  00075	59		 pop	 ecx
  00076	c9		 leave
  00077	c3		 ret	 0
  00078	cc		 int	 3
  00079	cc		 int	 3
  0007a	cc		 int	 3
  0007b	cc		 int	 3
  0007c	cc		 int	 3
_TEXT	ENDS
;	COMDAT text$x
text$x	SEGMENT
__ehhandler$??1CGraphicFontTexture@@UAE@XZ:
  00000	90		 npad	 1
  00001	90		 npad	 1
  00002	8b 54 24 08	 mov	 edx, DWORD PTR [esp+8]
  00006	8d 42 0c	 lea	 eax, DWORD PTR [edx+12]
  00009	8b 4a f8	 mov	 ecx, DWORD PTR [edx-8]
  0000c	33 c8		 xor	 ecx, eax
  0000e	e8 00 00 00 00	 call	 @__security_check_cookie@4
  00013	b8 00 00 00 00	 mov	 eax, OFFSET __ehfuncinfo$??1CGraphicFontTexture@@UAE@XZ
  00018	e9 00 00 00 00	 jmp	 ___CxxFrameHandler3
text$x	ENDS
??1CGraphicFontTexture@@UAE@XZ ENDP			; CGraphicFontTexture::~CGraphicFontTexture
; Function compile flags: /Odspy
; File D:\Metin2 Server Files\mainline\SRC_2014\Metin2Client\EterLib\GrpFontTexture.cpp
; File C:\Program Files (x86)\Microsoft Visual Studio\2019\Community\VC\Tools\MSVC\14.28.29333\include\vector
; File C:\Program Files (x86)\Microsoft Visual Studio\2019\Community\VC\Tools\MSVC\14.28.29333\include\xmemory
; File C:\Program Files (x86)\Microsoft Visual Studio\2019\Community\VC\Tools\MSVC\14.28.29333\include\vector
; File D:\Metin2 Server Files\mainline\SRC_2014\Metin2Client\EterLib\GrpFontTexture.cpp
; File C:\Program Files (x86)\Microsoft Visual Studio\2019\Community\VC\Tools\MSVC\14.28.29333\include\map
; File D:\Metin2 Server Files\mainline\SRC_2014\Metin2Client\EterLib\GrpFontTexture.cpp
; File C:\Program Files (x86)\Microsoft Visual Studio\2019\Community\VC\Tools\MSVC\14.28.29333\include\map
; File D:\Metin2 Server Files\mainline\SRC_2014\Metin2Client\EterLib\GrpFontTexture.cpp
;	COMDAT ??0CGraphicFontTexture@@QAE@XZ
_TEXT	SEGMENT
_this$ = -40						; size = 4
_this$ = -36						; size = 4
_this$ = -32						; size = 4
_this$ = -28						; size = 4
_this$2 = -24						; size = 4
_this$ = -20						; size = 4
$T3 = -14						; size = 1
$T4 = -13						; size = 1
__$EHRec$ = -12						; size = 12
??0CGraphicFontTexture@@QAE@XZ PROC			; CGraphicFontTexture::CGraphicFontTexture, COMDAT
; _this$ = ecx

; 8    : {

  00000	55		 push	 ebp
  00001	8b ec		 mov	 ebp, esp
  00003	6a ff		 push	 -1
  00005	68 00 00 00 00	 push	 __ehhandler$??0CGraphicFontTexture@@QAE@XZ
  0000a	64 a1 00 00 00
	00		 mov	 eax, DWORD PTR fs:0
  00010	50		 push	 eax
  00011	83 ec 1c	 sub	 esp, 28			; 0000001cH
  00014	a1 00 00 00 00	 mov	 eax, DWORD PTR ___security_cookie
  00019	33 c5		 xor	 eax, ebp
  0001b	50		 push	 eax
  0001c	8d 45 f4	 lea	 eax, DWORD PTR __$EHRec$[ebp]
  0001f	64 a3 00 00 00
	00		 mov	 DWORD PTR fs:0, eax
  00025	89 4d ec	 mov	 DWORD PTR _this$[ebp], ecx
  00028	8b 4d ec	 mov	 ecx, DWORD PTR _this$[ebp]
  0002b	e8 00 00 00 00	 call	 ??0CGraphicTexture@@IAE@XZ ; CGraphicTexture::CGraphicTexture
  00030	83 65 fc 00	 and	 DWORD PTR __$EHRec$[ebp+8], 0
  00034	8b 45 ec	 mov	 eax, DWORD PTR _this$[ebp]
  00037	c7 00 00 00 00
	00		 mov	 DWORD PTR [eax], OFFSET ??_7CGraphicFontTexture@@6B@
  0003d	8b 4d ec	 mov	 ecx, DWORD PTR _this$[ebp]
  00040	83 c1 14	 add	 ecx, 20			; 00000014H
  00043	e8 00 00 00 00	 call	 ??0CGraphicDib@@QAE@XZ	; CGraphicDib::CGraphicDib
  00048	c6 45 fc 01	 mov	 BYTE PTR __$EHRec$[ebp+8], 1
  0004c	8b 45 ec	 mov	 eax, DWORD PTR _this$[ebp]
  0004f	83 c0 60	 add	 eax, 96			; 00000060H
  00052	89 45 e4	 mov	 DWORD PTR _this$[ebp], eax
; File C:\Program Files (x86)\Microsoft Visual Studio\2019\Community\VC\Tools\MSVC\14.28.29333\include\vector

; 445  :     vector() noexcept(is_nothrow_default_constructible_v<_Alty>) : _Mypair(_Zero_then_variadic_args_t{}) {

  00055	8b 45 e4	 mov	 eax, DWORD PTR _this$[ebp]
  00058	89 45 e0	 mov	 DWORD PTR _this$[ebp], eax
; File C:\Program Files (x86)\Microsoft Visual Studio\2019\Community\VC\Tools\MSVC\14.28.29333\include\xmemory

; 1339 :         : _Ty1(), _Myval2(_STD forward<_Other2>(_Val2)...) {}

  0005b	8b 45 e0	 mov	 eax, DWORD PTR _this$[ebp]
  0005e	89 45 e8	 mov	 DWORD PTR _this$2[ebp], eax
; File C:\Program Files (x86)\Microsoft Visual Studio\2019\Community\VC\Tools\MSVC\14.28.29333\include\vector

; 375  :     _Vector_val() noexcept : _Myfirst(), _Mylast(), _Myend() {}

  00061	8b 45 e8	 mov	 eax, DWORD PTR _this$2[ebp]
  00064	83 20 00	 and	 DWORD PTR [eax], 0
  00067	8b 45 e8	 mov	 eax, DWORD PTR _this$2[ebp]
  0006a	83 60 04 00	 and	 DWORD PTR [eax+4], 0
  0006e	8b 45 e8	 mov	 eax, DWORD PTR _this$2[ebp]
  00071	83 60 08 00	 and	 DWORD PTR [eax+8], 0
; File D:\Metin2 Server Files\mainline\SRC_2014\Metin2Client\EterLib\GrpFontTexture.cpp

; 8    : {

  00075	c6 45 fc 02	 mov	 BYTE PTR __$EHRec$[ebp+8], 2
  00079	8b 45 ec	 mov	 eax, DWORD PTR _this$[ebp]
  0007c	83 c0 6c	 add	 eax, 108		; 0000006cH
  0007f	89 45 dc	 mov	 DWORD PTR _this$[ebp], eax
; File C:\Program Files (x86)\Microsoft Visual Studio\2019\Community\VC\Tools\MSVC\14.28.29333\include\map

; 107  :     map() : _Mybase(key_compare()) {}

  00082	8d 45 f3	 lea	 eax, DWORD PTR $T4[ebp]
  00085	50		 push	 eax
  00086	8b 4d dc	 mov	 ecx, DWORD PTR _this$[ebp]
  00089	e8 00 00 00 00	 call	 ??0?$_Tree@V?$_Tmap_traits@U?$pair@G_W@std@@USCharacterInfomation@CGraphicFontTexture@@U?$less@U?$pair@G_W@std@@@2@V?$allocator@U?$pair@$$CBU?$pair@G_W@std@@USCharacterInfomation@CGraphicFontTexture@@@std@@@2@$0A@@std@@@std@@QAE@ABU?$less@U?$pair@G_W@std@@@1@@Z ; std::_Tree<std::_Tmap_traits<std::pair<unsigned short,wchar_t>,CGraphicFontTexture::SCharacterInfomation,std::less<std::pair<unsigned short,wchar_t> >,std::allocator<std::pair<std::pair<unsigned short,wchar_t> const ,CGraphicFontTexture::SCharacterInfomation> >,0> >::_Tree<std::_Tmap_traits<std::pair<unsigned short,wchar_t>,CGraphicFontTexture::SCharacterInfomation,std::less<std::pair<unsigned short,wchar_t> >,std::allocator<std::pair<std::pair<unsigned short,wchar_t> const ,CGraphicFontTexture::SCharacterInfomation> >,0> >
; File D:\Metin2 Server Files\mainline\SRC_2014\Metin2Client\EterLib\GrpFontTexture.cpp

; 8    : {

  0008e	c6 45 fc 03	 mov	 BYTE PTR __$EHRec$[ebp+8], 3
  00092	8b 45 ec	 mov	 eax, DWORD PTR _this$[ebp]
  00095	83 c0 74	 add	 eax, 116		; 00000074H
  00098	89 45 d8	 mov	 DWORD PTR _this$[ebp], eax
; File C:\Program Files (x86)\Microsoft Visual Studio\2019\Community\VC\Tools\MSVC\14.28.29333\include\map

; 107  :     map() : _Mybase(key_compare()) {}

  0009b	8d 45 f2	 lea	 eax, DWORD PTR $T3[ebp]
  0009e	50		 push	 eax
  0009f	8b 4d d8	 mov	 ecx, DWORD PTR _this$[ebp]
  000a2	e8 00 00 00 00	 call	 ??0?$_Tree@V?$_Tmap_traits@GPAUHFONT__@@U?$less@G@std@@V?$allocator@U?$pair@$$CBGPAUHFONT__@@@std@@@3@$0A@@std@@@std@@QAE@ABU?$less@G@1@@Z ; std::_Tree<std::_Tmap_traits<unsigned short,HFONT__ *,std::less<unsigned short>,std::allocator<std::pair<unsigned short const ,HFONT__ *> >,0> >::_Tree<std::_Tmap_traits<unsigned short,HFONT__ *,std::less<unsigned short>,std::allocator<std::pair<unsigned short const ,HFONT__ *> >,0> >
; File D:\Metin2 Server Files\mainline\SRC_2014\Metin2Client\EterLib\GrpFontTexture.cpp

; 8    : {

  000a7	c6 45 fc 04	 mov	 BYTE PTR __$EHRec$[ebp+8], 4

; 9    : 	Initialize();

  000ab	8b 4d ec	 mov	 ecx, DWORD PTR _this$[ebp]
  000ae	e8 00 00 00 00	 call	 ?Initialize@CGraphicFontTexture@@IAEXXZ ; CGraphicFontTexture::Initialize

; 10   : }

  000b3	83 4d fc ff	 or	 DWORD PTR __$EHRec$[ebp+8], -1
  000b7	8b 45 ec	 mov	 eax, DWORD PTR _this$[ebp]
  000ba	8b 4d f4	 mov	 ecx, DWORD PTR __$EHRec$[ebp]
  000bd	64 89 0d 00 00
	00 00		 mov	 DWORD PTR fs:0, ecx
  000c4	59		 pop	 ecx
  000c5	c9		 leave
  000c6	c3		 ret	 0
_TEXT	ENDS
;	COMDAT text$x
text$x	SEGMENT
__unwindfunclet$??0CGraphicFontTexture@@QAE@XZ$0:
  00000	8b 4d ec	 mov	 ecx, DWORD PTR _this$[ebp]
  00003	e9 00 00 00 00	 jmp	 ??1CGraphicTexture@@MAE@XZ ; CGraphicTexture::~CGraphicTexture
__unwindfunclet$??0CGraphicFontTexture@@QAE@XZ$1:
  00008	8b 4d ec	 mov	 ecx, DWORD PTR _this$[ebp]
  0000b	83 c1 14	 add	 ecx, 20			; 00000014H
  0000e	e9 00 00 00 00	 jmp	 ??1CGraphicDib@@UAE@XZ	; CGraphicDib::~CGraphicDib
__unwindfunclet$??0CGraphicFontTexture@@QAE@XZ$2:
  00013	8b 4d ec	 mov	 ecx, DWORD PTR _this$[ebp]
  00016	83 c1 60	 add	 ecx, 96			; 00000060H
  00019	e9 00 00 00 00	 jmp	 ??1?$vector@PAVCGraphicImageTexture@@V?$allocator@PAVCGraphicImageTexture@@@std@@@std@@QAE@XZ ; std::vector<CGraphicImageTexture *,std::allocator<CGraphicImageTexture *> >::~vector<CGraphicImageTexture *,std::allocator<CGraphicImageTexture *> >
__unwindfunclet$??0CGraphicFontTexture@@QAE@XZ$3:
  0001e	8b 4d ec	 mov	 ecx, DWORD PTR _this$[ebp]
  00021	83 c1 6c	 add	 ecx, 108		; 0000006cH
  00024	e9 00 00 00 00	 jmp	 ??1?$map@U?$pair@G_W@std@@USCharacterInfomation@CGraphicFontTexture@@U?$less@U?$pair@G_W@std@@@2@V?$allocator@U?$pair@$$CBU?$pair@G_W@std@@USCharacterInfomation@CGraphicFontTexture@@@std@@@2@@std@@QAE@XZ
__unwindfunclet$??0CGraphicFontTexture@@QAE@XZ$4:
  00029	8b 4d ec	 mov	 ecx, DWORD PTR _this$[ebp]
  0002c	83 c1 74	 add	 ecx, 116		; 00000074H
  0002f	e9 00 00 00 00	 jmp	 ??1?$map@GPAUHFONT__@@U?$less@G@std@@V?$allocator@U?$pair@$$CBGPAUHFONT__@@@std@@@3@@std@@QAE@XZ
  00034	cc		 int	 3
  00035	cc		 int	 3
  00036	cc		 int	 3
  00037	cc		 int	 3
  00038	cc		 int	 3
__ehhandler$??0CGraphicFontTexture@@QAE@XZ:
  00039	90		 npad	 1
  0003a	90		 npad	 1
  0003b	8b 54 24 08	 mov	 edx, DWORD PTR [esp+8]
  0003f	8d 42 0c	 lea	 eax, DWORD PTR [edx+12]
  00042	8b 4a e0	 mov	 ecx, DWORD PTR [edx-32]
  00045	33 c8		 xor	 ecx, eax
  00047	e8 00 00 00 00	 call	 @__security_check_cookie@4
  0004c	b8 00 00 00 00	 mov	 eax, OFFSET __ehfuncinfo$??0CGraphicFontTexture@@QAE@XZ
  00051	e9 00 00 00 00	 jmp	 ___CxxFrameHandler3
text$x	ENDS
??0CGraphicFontTexture@@QAE@XZ ENDP			; CGraphicFontTexture::CGraphicFontTexture
; Function compile flags: /Odspy
; File C:\Program Files (x86)\Microsoft Visual Studio\2019\Community\VC\Tools\MSVC\14.28.29333\include\xmemory
;	COMDAT ??$_Allocate_manually_vector_aligned@U_Default_allocate_traits@std@@@std@@YAPAXI@Z
_TEXT	SEGMENT
__Ptr$ = -12						; size = 4
__Block_size$ = -8					; size = 4
__Ptr_container$ = -4					; size = 4
__Bytes$ = 8						; size = 4
??$_Allocate_manually_vector_aligned@U_Default_allocate_traits@std@@@std@@YAPAXI@Z PROC ; std::_Allocate_manually_vector_aligned<std::_Default_allocate_traits>, COMDAT

; 113  : __declspec(allocator) void* _Allocate_manually_vector_aligned(const size_t _Bytes) {

  00000	55		 push	 ebp
  00001	8b ec		 mov	 ebp, esp
  00003	83 ec 0c	 sub	 esp, 12			; 0000000cH

; 114  :     // allocate _Bytes manually aligned to at least _Big_allocation_alignment
; 115  :     const size_t _Block_size = _Non_user_size + _Bytes;

  00006	8b 45 08	 mov	 eax, DWORD PTR __Bytes$[ebp]
  00009	83 c0 23	 add	 eax, 35			; 00000023H
  0000c	89 45 f8	 mov	 DWORD PTR __Block_size$[ebp], eax

; 116  :     if (_Block_size <= _Bytes) {

  0000f	8b 45 f8	 mov	 eax, DWORD PTR __Block_size$[ebp]
  00012	3b 45 08	 cmp	 eax, DWORD PTR __Bytes$[ebp]
  00015	77 05		 ja	 SHORT $LN12@Allocate_m

; 117  :         _Throw_bad_array_new_length(); // add overflow

  00017	e8 00 00 00 00	 call	 ?_Throw_bad_array_new_length@std@@YAXXZ ; std::_Throw_bad_array_new_length
$LN12@Allocate_m:

; 77   :         return ::operator new(_Bytes);

  0001c	ff 75 f8	 push	 DWORD PTR __Block_size$[ebp]
  0001f	e8 00 00 00 00	 call	 ??2@YAPAXI@Z		; operator new
  00024	59		 pop	 ecx

; 118  :     }
; 119  : 
; 120  :     const uintptr_t _Ptr_container = reinterpret_cast<uintptr_t>(_Traits::_Allocate(_Block_size));

  00025	89 45 fc	 mov	 DWORD PTR __Ptr_container$[ebp], eax
$LN4@Allocate_m:

; 121  :     _STL_VERIFY(_Ptr_container != 0, "invalid argument"); // validate even in release since we're doing p[-1]

  00028	83 7d fc 00	 cmp	 DWORD PTR __Ptr_container$[ebp], 0
  0002c	74 02		 je	 SHORT $LN7@Allocate_m
  0002e	eb 09		 jmp	 SHORT $LN2@Allocate_m
$LN7@Allocate_m:
  00030	e8 00 00 00 00	 call	 __invalid_parameter_noinfo_noreturn
  00035	33 c0		 xor	 eax, eax
  00037	75 f7		 jne	 SHORT $LN7@Allocate_m
$LN2@Allocate_m:
  00039	33 c0		 xor	 eax, eax
  0003b	75 eb		 jne	 SHORT $LN4@Allocate_m

; 122  :     void* const _Ptr = reinterpret_cast<void*>((_Ptr_container + _Non_user_size) & ~(_Big_allocation_alignment - 1));

  0003d	8b 45 fc	 mov	 eax, DWORD PTR __Ptr_container$[ebp]
  00040	83 c0 23	 add	 eax, 35			; 00000023H
  00043	83 e0 e0	 and	 eax, -32		; ffffffe0H
  00046	89 45 f4	 mov	 DWORD PTR __Ptr$[ebp], eax

; 123  :     static_cast<uintptr_t*>(_Ptr)[-1] = _Ptr_container;

  00049	6a 04		 push	 4
  0004b	58		 pop	 eax
  0004c	6b c0 ff	 imul	 eax, eax, -1
  0004f	8b 4d f4	 mov	 ecx, DWORD PTR __Ptr$[ebp]
  00052	8b 55 fc	 mov	 edx, DWORD PTR __Ptr_container$[ebp]
  00055	89 14 01	 mov	 DWORD PTR [ecx+eax], edx

; 124  : 
; 125  : #ifdef _DEBUG
; 126  :     static_cast<uintptr_t*>(_Ptr)[-2] = _Big_allocation_sentinel;
; 127  : #endif // _DEBUG
; 128  :     return _Ptr;

  00058	8b 45 f4	 mov	 eax, DWORD PTR __Ptr$[ebp]
$LN11@Allocate_m:

; 129  : }

  0005b	c9		 leave
  0005c	c3		 ret	 0
??$_Allocate_manually_vector_aligned@U_Default_allocate_traits@std@@@std@@YAPAXI@Z ENDP ; std::_Allocate_manually_vector_aligned<std::_Default_allocate_traits>
_TEXT	ENDS
; Function compile flags: /Odspy
; File C:\Program Files (x86)\Microsoft Visual Studio\2019\Community\VC\Tools\MSVC\14.28.29333\include\xmemory
;	COMDAT ??$_Allocate@$07U_Default_allocate_traits@std@@$0A@@std@@YAPAXI@Z
_TEXT	SEGMENT
__Bytes$ = 8						; size = 4
??$_Allocate@$07U_Default_allocate_traits@std@@$0A@@std@@YAPAXI@Z PROC ; std::_Allocate<8,std::_Default_allocate_traits,0>, COMDAT

; 197  : __declspec(allocator) void* _Allocate(const size_t _Bytes) {

  00000	55		 push	 ebp
  00001	8b ec		 mov	 ebp, esp

; 198  :     // allocate _Bytes when !_HAS_ALIGNED_NEW || _Align <= __STDCPP_DEFAULT_NEW_ALIGNMENT__
; 199  : #if defined(_M_IX86) || defined(_M_X64)
; 200  :     if (_Bytes >= _Big_allocation_threshold) { // boost the alignment of big allocations to help autovectorization

  00003	81 7d 08 00 10
	00 00		 cmp	 DWORD PTR __Bytes$[ebp], 4096 ; 00001000H
  0000a	72 0b		 jb	 SHORT $LN2@Allocate

; 201  :         return _Allocate_manually_vector_aligned<_Traits>(_Bytes);

  0000c	ff 75 08	 push	 DWORD PTR __Bytes$[ebp]
  0000f	e8 00 00 00 00	 call	 ??$_Allocate_manually_vector_aligned@U_Default_allocate_traits@std@@@std@@YAPAXI@Z ; std::_Allocate_manually_vector_aligned<std::_Default_allocate_traits>
  00014	59		 pop	 ecx
  00015	eb 13		 jmp	 SHORT $LN1@Allocate
$LN2@Allocate:

; 202  :     }
; 203  : #endif // defined(_M_IX86) || defined(_M_X64)
; 204  : 
; 205  :     if (_Bytes != 0) {

  00017	83 7d 08 00	 cmp	 DWORD PTR __Bytes$[ebp], 0
  0001b	74 0b		 je	 SHORT $LN3@Allocate

; 77   :         return ::operator new(_Bytes);

  0001d	ff 75 08	 push	 DWORD PTR __Bytes$[ebp]
  00020	e8 00 00 00 00	 call	 ??2@YAPAXI@Z		; operator new
  00025	59		 pop	 ecx

; 206  :         return _Traits::_Allocate(_Bytes);

  00026	eb 02		 jmp	 SHORT $LN1@Allocate
$LN3@Allocate:

; 207  :     }
; 208  : 
; 209  :     return nullptr;

  00028	33 c0		 xor	 eax, eax
$LN1@Allocate:

; 210  : }

  0002a	5d		 pop	 ebp
  0002b	c3		 ret	 0
??$_Allocate@$07U_Default_allocate_traits@std@@$0A@@std@@YAPAXI@Z ENDP ; std::_Allocate<8,std::_Default_allocate_traits,0>
_TEXT	ENDS
; Function compile flags: /Odspy
; File C:\Program Files (x86)\Microsoft Visual Studio\2019\Community\VC\Tools\MSVC\14.28.29333\include\xmemory
;	COMDAT ??$_Deallocate@$07$0A@@std@@YAXPAXI@Z
_TEXT	SEGMENT
__$EHRec$ = -12						; size = 12
__Ptr$ = 8						; size = 4
__Bytes$ = 12						; size = 4
??$_Deallocate@$07$0A@@std@@YAXPAXI@Z PROC		; std::_Deallocate<8,0>, COMDAT

; 213  : void _Deallocate(void* _Ptr, size_t _Bytes) noexcept {

  00000	55		 push	 ebp
  00001	8b ec		 mov	 ebp, esp
  00003	6a ff		 push	 -1
  00005	68 00 00 00 00	 push	 __ehhandler$??$_Deallocate@$07$0A@@std@@YAXPAXI@Z
  0000a	64 a1 00 00 00
	00		 mov	 eax, DWORD PTR fs:0
  00010	50		 push	 eax
  00011	a1 00 00 00 00	 mov	 eax, DWORD PTR ___security_cookie
  00016	33 c5		 xor	 eax, ebp
  00018	50		 push	 eax
  00019	8d 45 f4	 lea	 eax, DWORD PTR __$EHRec$[ebp]
  0001c	64 a3 00 00 00
	00		 mov	 DWORD PTR fs:0, eax

; 214  :     // deallocate storage allocated by _Allocate when !_HAS_ALIGNED_NEW || _Align <= __STDCPP_DEFAULT_NEW_ALIGNMENT__
; 215  : #if defined(_M_IX86) || defined(_M_X64)
; 216  :     if (_Bytes >= _Big_allocation_threshold) { // boost the alignment of big allocations to help autovectorization

  00022	81 7d 0c 00 10
	00 00		 cmp	 DWORD PTR __Bytes$[ebp], 4096 ; 00001000H
  00029	72 0f		 jb	 SHORT $LN2@Deallocate

; 217  :         _Adjust_manually_vector_aligned(_Ptr, _Bytes);

  0002b	8d 45 0c	 lea	 eax, DWORD PTR __Bytes$[ebp]
  0002e	50		 push	 eax
  0002f	8d 45 08	 lea	 eax, DWORD PTR __Ptr$[ebp]
  00032	50		 push	 eax
  00033	e8 00 00 00 00	 call	 ?_Adjust_manually_vector_aligned@std@@YAXAAPAXAAI@Z ; std::_Adjust_manually_vector_aligned
  00038	59		 pop	 ecx
  00039	59		 pop	 ecx
$LN2@Deallocate:

; 218  :     }
; 219  : #endif // defined(_M_IX86) || defined(_M_X64)
; 220  : 
; 221  :     ::operator delete(_Ptr, _Bytes);

  0003a	ff 75 0c	 push	 DWORD PTR __Bytes$[ebp]
  0003d	ff 75 08	 push	 DWORD PTR __Ptr$[ebp]
  00040	e8 00 00 00 00	 call	 ??3@YAXPAXI@Z		; operator delete
  00045	59		 pop	 ecx
  00046	59		 pop	 ecx

; 222  : }

  00047	8b 4d f4	 mov	 ecx, DWORD PTR __$EHRec$[ebp]
  0004a	64 89 0d 00 00
	00 00		 mov	 DWORD PTR fs:0, ecx
  00051	59		 pop	 ecx
  00052	c9		 leave
  00053	c3		 ret	 0
  00054	cc		 int	 3
  00055	cc		 int	 3
  00056	cc		 int	 3
  00057	cc		 int	 3
  00058	cc		 int	 3
_TEXT	ENDS
;	COMDAT text$x
text$x	SEGMENT
__ehhandler$??$_Deallocate@$07$0A@@std@@YAXPAXI@Z:
  00000	90		 npad	 1
  00001	90		 npad	 1
  00002	8b 54 24 08	 mov	 edx, DWORD PTR [esp+8]
  00006	8d 42 0c	 lea	 eax, DWORD PTR [edx+12]
  00009	8b 4a fc	 mov	 ecx, DWORD PTR [edx-4]
  0000c	33 c8		 xor	 ecx, eax
  0000e	e8 00 00 00 00	 call	 @__security_check_cookie@4
  00013	b8 00 00 00 00	 mov	 eax, OFFSET __ehfuncinfo$??$_Deallocate@$07$0A@@std@@YAXPAXI@Z
  00018	e9 00 00 00 00	 jmp	 ___CxxFrameHandler3
text$x	ENDS
??$_Deallocate@$07$0A@@std@@YAXPAXI@Z ENDP		; std::_Deallocate<8,0>
; Function compile flags: /Odspy
; File C:\Program Files (x86)\Microsoft Visual Studio\2019\Community\VC\Tools\MSVC\14.28.29333\include\xtree
;	COMDAT ?_Throw_tree_length_error@std@@YAXXZ
_TEXT	SEGMENT
?_Throw_tree_length_error@std@@YAXXZ PROC		; std::_Throw_tree_length_error, COMDAT

; 414  : [[noreturn]] inline void _Throw_tree_length_error() {

  00000	55		 push	 ebp
  00001	8b ec		 mov	 ebp, esp

; 415  :     _Xlength_error("map/set too long");

  00003	68 00 00 00 00	 push	 OFFSET ??_C@_0BB@GCADKGJO@map?1set?5too?5long@
  00008	e8 00 00 00 00	 call	 ?_Xlength_error@std@@YAXPBD@Z ; std::_Xlength_error
$LN2@Throw_tree:

; 416  : }

  0000d	5d		 pop	 ebp
  0000e	c3		 ret	 0
?_Throw_tree_length_error@std@@YAXXZ ENDP		; std::_Throw_tree_length_error
_TEXT	ENDS
; Function compile flags: /Odspy
; File C:\Program Files (x86)\Microsoft Visual Studio\2019\Community\VC\Tools\MSVC\14.28.29333\include\xmemory
;	COMDAT ?_Adjust_manually_vector_aligned@std@@YAXAAPAXAAI@Z
_TEXT	SEGMENT
__Min_back_shift$ = -16					; size = 4
__Ptr_user$ = -12					; size = 4
__Ptr_container$ = -8					; size = 4
__Back_shift$ = -4					; size = 4
__Ptr$ = 8						; size = 4
__Bytes$ = 12						; size = 4
?_Adjust_manually_vector_aligned@std@@YAXAAPAXAAI@Z PROC ; std::_Adjust_manually_vector_aligned, COMDAT

; 132  : inline void _Adjust_manually_vector_aligned(void*& _Ptr, size_t& _Bytes) {

  00000	55		 push	 ebp
  00001	8b ec		 mov	 ebp, esp
  00003	83 ec 10	 sub	 esp, 16			; 00000010H

; 133  :     // adjust parameters from _Allocate_manually_vector_aligned to pass to operator delete
; 134  :     _Bytes += _Non_user_size;

  00006	8b 45 0c	 mov	 eax, DWORD PTR __Bytes$[ebp]
  00009	8b 00		 mov	 eax, DWORD PTR [eax]
  0000b	83 c0 23	 add	 eax, 35			; 00000023H
  0000e	8b 4d 0c	 mov	 ecx, DWORD PTR __Bytes$[ebp]
  00011	89 01		 mov	 DWORD PTR [ecx], eax

; 135  : 
; 136  :     const uintptr_t* const _Ptr_user = reinterpret_cast<uintptr_t*>(_Ptr);

  00013	8b 45 08	 mov	 eax, DWORD PTR __Ptr$[ebp]
  00016	8b 00		 mov	 eax, DWORD PTR [eax]
  00018	89 45 f4	 mov	 DWORD PTR __Ptr_user$[ebp], eax

; 137  :     const uintptr_t _Ptr_container   = _Ptr_user[-1];

  0001b	6a 04		 push	 4
  0001d	58		 pop	 eax
  0001e	6b c0 ff	 imul	 eax, eax, -1
  00021	8b 4d f4	 mov	 ecx, DWORD PTR __Ptr_user$[ebp]
  00024	8b 04 01	 mov	 eax, DWORD PTR [ecx+eax]
  00027	89 45 f8	 mov	 DWORD PTR __Ptr_container$[ebp], eax

; 138  : 
; 139  :     // If the following asserts, it likely means that we are performing
; 140  :     // an aligned delete on memory coming from an unaligned allocation.
; 141  :     _STL_ASSERT(_Ptr_user[-2] == _Big_allocation_sentinel, "invalid argument");
; 142  : 
; 143  :     // Extra paranoia on aligned allocation/deallocation; ensure _Ptr_container is
; 144  :     // in range [_Min_back_shift, _Non_user_size]
; 145  : #ifdef _DEBUG
; 146  :     constexpr uintptr_t _Min_back_shift = 2 * sizeof(void*);
; 147  : #else // ^^^ _DEBUG ^^^ // vvv !_DEBUG vvv
; 148  :     constexpr uintptr_t _Min_back_shift = sizeof(void*);

  0002a	c7 45 f0 04 00
	00 00		 mov	 DWORD PTR __Min_back_shift$[ebp], 4

; 149  : #endif // _DEBUG
; 150  :     const uintptr_t _Back_shift = reinterpret_cast<uintptr_t>(_Ptr) - _Ptr_container;

  00031	8b 45 08	 mov	 eax, DWORD PTR __Ptr$[ebp]
  00034	8b 00		 mov	 eax, DWORD PTR [eax]
  00036	2b 45 f8	 sub	 eax, DWORD PTR __Ptr_container$[ebp]
  00039	89 45 fc	 mov	 DWORD PTR __Back_shift$[ebp], eax
$LN4@Adjust_man:

; 151  :     _STL_VERIFY(_Back_shift >= _Min_back_shift && _Back_shift <= _Non_user_size, "invalid argument");

  0003c	83 7d fc 04	 cmp	 DWORD PTR __Back_shift$[ebp], 4
  00040	72 08		 jb	 SHORT $LN7@Adjust_man
  00042	83 7d fc 23	 cmp	 DWORD PTR __Back_shift$[ebp], 35 ; 00000023H
  00046	77 02		 ja	 SHORT $LN7@Adjust_man
  00048	eb 09		 jmp	 SHORT $LN2@Adjust_man
$LN7@Adjust_man:
  0004a	e8 00 00 00 00	 call	 __invalid_parameter_noinfo_noreturn
  0004f	33 c0		 xor	 eax, eax
  00051	75 f7		 jne	 SHORT $LN7@Adjust_man
$LN2@Adjust_man:
  00053	33 c0		 xor	 eax, eax
  00055	75 e5		 jne	 SHORT $LN4@Adjust_man

; 152  :     _Ptr = reinterpret_cast<void*>(_Ptr_container);

  00057	8b 45 08	 mov	 eax, DWORD PTR __Ptr$[ebp]
  0005a	8b 4d f8	 mov	 ecx, DWORD PTR __Ptr_container$[ebp]
  0005d	89 08		 mov	 DWORD PTR [eax], ecx
$LN10@Adjust_man:

; 153  : }

  0005f	c9		 leave
  00060	c3		 ret	 0
?_Adjust_manually_vector_aligned@std@@YAXAAPAXAAI@Z ENDP ; std::_Adjust_manually_vector_aligned
_TEXT	ENDS
; Function compile flags: /Odspy
; File C:\Program Files (x86)\Microsoft Visual Studio\2019\Community\VC\Tools\MSVC\14.28.29333\include\exception
;	COMDAT ?_Throw_bad_array_new_length@std@@YAXXZ
_TEXT	SEGMENT
$T1 = -12						; size = 12
?_Throw_bad_array_new_length@std@@YAXXZ PROC		; std::_Throw_bad_array_new_length, COMDAT

; 320  : [[noreturn]] inline void _Throw_bad_array_new_length() {

  00000	55		 push	 ebp
  00001	8b ec		 mov	 ebp, esp
  00003	83 ec 0c	 sub	 esp, 12			; 0000000cH

; 321  :     _THROW(bad_array_new_length{});

  00006	8d 4d f4	 lea	 ecx, DWORD PTR $T1[ebp]
  00009	e8 00 00 00 00	 call	 ??0bad_array_new_length@std@@QAE@XZ ; std::bad_array_new_length::bad_array_new_length
  0000e	68 00 00 00 00	 push	 OFFSET __TI3?AVbad_array_new_length@std@@
  00013	8d 45 f4	 lea	 eax, DWORD PTR $T1[ebp]
  00016	50		 push	 eax
  00017	e8 00 00 00 00	 call	 __CxxThrowException@8
$LN2@Throw_bad_:

; 322  : }

  0001c	c9		 leave
  0001d	c3		 ret	 0
?_Throw_bad_array_new_length@std@@YAXXZ ENDP		; std::_Throw_bad_array_new_length
_TEXT	ENDS
; Function compile flags: /Odspy
; File C:\Program Files (x86)\Microsoft Visual Studio\2019\Community\VC\Tools\MSVC\14.28.29333\include\vcruntime_exception.h
;	COMDAT ??_Gbad_array_new_length@std@@UAEPAXI@Z
_TEXT	SEGMENT
_this$ = -4						; size = 4
___flags$ = 8						; size = 4
??_Gbad_array_new_length@std@@UAEPAXI@Z PROC		; std::bad_array_new_length::`scalar deleting destructor', COMDAT
; _this$ = ecx
  00000	55		 push	 ebp
  00001	8b ec		 mov	 ebp, esp
  00003	51		 push	 ecx
  00004	89 4d fc	 mov	 DWORD PTR _this$[ebp], ecx

; 89   :     {

  00007	8b 45 fc	 mov	 eax, DWORD PTR _this$[ebp]
  0000a	c7 00 00 00 00
	00		 mov	 DWORD PTR [eax], OFFSET ??_7exception@std@@6B@

; 90   :         __std_exception_destroy(&_Data);

  00010	8b 45 fc	 mov	 eax, DWORD PTR _this$[ebp]
  00013	83 c0 04	 add	 eax, 4
  00016	50		 push	 eax
  00017	e8 00 00 00 00	 call	 ___std_exception_destroy
  0001c	59		 pop	 ecx
  0001d	8b 45 08	 mov	 eax, DWORD PTR ___flags$[ebp]
  00020	83 e0 01	 and	 eax, 1
  00023	74 0c		 je	 SHORT $LN2@scalar
  00025	6a 0c		 push	 12			; 0000000cH
  00027	ff 75 fc	 push	 DWORD PTR _this$[ebp]
  0002a	e8 00 00 00 00	 call	 ??3@YAXPAXI@Z		; operator delete
  0002f	59		 pop	 ecx
  00030	59		 pop	 ecx
$LN2@scalar:
  00031	8b 45 fc	 mov	 eax, DWORD PTR _this$[ebp]
  00034	c9		 leave
  00035	c2 04 00	 ret	 4
??_Gbad_array_new_length@std@@UAEPAXI@Z ENDP		; std::bad_array_new_length::`scalar deleting destructor'
_TEXT	ENDS
; Function compile flags: /Odspy
;	COMDAT ??0bad_array_new_length@std@@QAE@ABV01@@Z
_TEXT	SEGMENT
_this$ = -4						; size = 4
___that$ = 8						; size = 4
??0bad_array_new_length@std@@QAE@ABV01@@Z PROC		; std::bad_array_new_length::bad_array_new_length, COMDAT
; _this$ = ecx
  00000	55		 push	 ebp
  00001	8b ec		 mov	 ebp, esp
  00003	51		 push	 ecx
  00004	89 4d fc	 mov	 DWORD PTR _this$[ebp], ecx
  00007	ff 75 08	 push	 DWORD PTR ___that$[ebp]
  0000a	8b 4d fc	 mov	 ecx, DWORD PTR _this$[ebp]
  0000d	e8 00 00 00 00	 call	 ??0exception@std@@QAE@ABV01@@Z ; std::exception::exception
  00012	8b 45 fc	 mov	 eax, DWORD PTR _this$[ebp]
  00015	c7 00 00 00 00
	00		 mov	 DWORD PTR [eax], OFFSET ??_7bad_alloc@std@@6B@
  0001b	8b 45 fc	 mov	 eax, DWORD PTR _this$[ebp]
  0001e	c7 00 00 00 00
	00		 mov	 DWORD PTR [eax], OFFSET ??_7bad_array_new_length@std@@6B@
  00024	8b 45 fc	 mov	 eax, DWORD PTR _this$[ebp]
  00027	c9		 leave
  00028	c2 04 00	 ret	 4
??0bad_array_new_length@std@@QAE@ABV01@@Z ENDP		; std::bad_array_new_length::bad_array_new_length
_TEXT	ENDS
; Function compile flags: /Odspy
; File C:\Program Files (x86)\Microsoft Visual Studio\2019\Community\VC\Tools\MSVC\14.28.29333\include\vcruntime_exception.h
;	COMDAT ??1bad_array_new_length@std@@UAE@XZ
_TEXT	SEGMENT
_this$ = -4						; size = 4
??1bad_array_new_length@std@@UAE@XZ PROC		; std::bad_array_new_length::~bad_array_new_length, COMDAT
; _this$ = ecx
  00000	55		 push	 ebp
  00001	8b ec		 mov	 ebp, esp
  00003	51		 push	 ecx
  00004	89 4d fc	 mov	 DWORD PTR _this$[ebp], ecx

; 89   :     {

  00007	8b 45 fc	 mov	 eax, DWORD PTR _this$[ebp]
  0000a	c7 00 00 00 00
	00		 mov	 DWORD PTR [eax], OFFSET ??_7exception@std@@6B@

; 90   :         __std_exception_destroy(&_Data);

  00010	8b 45 fc	 mov	 eax, DWORD PTR _this$[ebp]
  00013	83 c0 04	 add	 eax, 4
  00016	50		 push	 eax
  00017	e8 00 00 00 00	 call	 ___std_exception_destroy
  0001c	59		 pop	 ecx
  0001d	c9		 leave
  0001e	c3		 ret	 0
??1bad_array_new_length@std@@UAE@XZ ENDP		; std::bad_array_new_length::~bad_array_new_length
_TEXT	ENDS
; Function compile flags: /Odspy
; File C:\Program Files (x86)\Microsoft Visual Studio\2019\Community\VC\Tools\MSVC\14.28.29333\include\vcruntime_exception.h
;	COMDAT ??0bad_array_new_length@std@@QAE@XZ
_TEXT	SEGMENT
_this$ = -4						; size = 4
??0bad_array_new_length@std@@QAE@XZ PROC		; std::bad_array_new_length::bad_array_new_length, COMDAT
; _this$ = ecx

; 141  :     {

  00000	55		 push	 ebp
  00001	8b ec		 mov	 ebp, esp
  00003	51		 push	 ecx
  00004	89 4d fc	 mov	 DWORD PTR _this$[ebp], ecx

; 66   :     {

  00007	8b 45 fc	 mov	 eax, DWORD PTR _this$[ebp]
  0000a	c7 00 00 00 00
	00		 mov	 DWORD PTR [eax], OFFSET ??_7exception@std@@6B@

; 65   :         : _Data()

  00010	33 c0		 xor	 eax, eax
  00012	8b 4d fc	 mov	 ecx, DWORD PTR _this$[ebp]
  00015	83 c1 04	 add	 ecx, 4
  00018	89 01		 mov	 DWORD PTR [ecx], eax
  0001a	89 41 04	 mov	 DWORD PTR [ecx+4], eax

; 67   :         _Data._What = _Message;

  0001d	8b 45 fc	 mov	 eax, DWORD PTR _this$[ebp]
  00020	c7 40 04 00 00
	00 00		 mov	 DWORD PTR [eax+4], OFFSET ??_C@_0BF@KINCDENJ@bad?5array?5new?5length@

; 130  :     {

  00027	8b 45 fc	 mov	 eax, DWORD PTR _this$[ebp]
  0002a	c7 00 00 00 00
	00		 mov	 DWORD PTR [eax], OFFSET ??_7bad_alloc@std@@6B@

; 141  :     {

  00030	8b 45 fc	 mov	 eax, DWORD PTR _this$[ebp]
  00033	c7 00 00 00 00
	00		 mov	 DWORD PTR [eax], OFFSET ??_7bad_array_new_length@std@@6B@

; 142  :     }

  00039	8b 45 fc	 mov	 eax, DWORD PTR _this$[ebp]
  0003c	c9		 leave
  0003d	c3		 ret	 0
??0bad_array_new_length@std@@QAE@XZ ENDP		; std::bad_array_new_length::bad_array_new_length
_TEXT	ENDS
; Function compile flags: /Odspy
; File C:\Program Files (x86)\Microsoft Visual Studio\2019\Community\VC\Tools\MSVC\14.28.29333\include\vcruntime_exception.h
;	COMDAT ??_Gbad_alloc@std@@UAEPAXI@Z
_TEXT	SEGMENT
_this$ = -4						; size = 4
___flags$ = 8						; size = 4
??_Gbad_alloc@std@@UAEPAXI@Z PROC			; std::bad_alloc::`scalar deleting destructor', COMDAT
; _this$ = ecx
  00000	55		 push	 ebp
  00001	8b ec		 mov	 ebp, esp
  00003	51		 push	 ecx
  00004	89 4d fc	 mov	 DWORD PTR _this$[ebp], ecx

; 89   :     {

  00007	8b 45 fc	 mov	 eax, DWORD PTR _this$[ebp]
  0000a	c7 00 00 00 00
	00		 mov	 DWORD PTR [eax], OFFSET ??_7exception@std@@6B@

; 90   :         __std_exception_destroy(&_Data);

  00010	8b 45 fc	 mov	 eax, DWORD PTR _this$[ebp]
  00013	83 c0 04	 add	 eax, 4
  00016	50		 push	 eax
  00017	e8 00 00 00 00	 call	 ___std_exception_destroy
  0001c	59		 pop	 ecx
  0001d	8b 45 08	 mov	 eax, DWORD PTR ___flags$[ebp]
  00020	83 e0 01	 and	 eax, 1
  00023	74 0c		 je	 SHORT $LN2@scalar
  00025	6a 0c		 push	 12			; 0000000cH
  00027	ff 75 fc	 push	 DWORD PTR _this$[ebp]
  0002a	e8 00 00 00 00	 call	 ??3@YAXPAXI@Z		; operator delete
  0002f	59		 pop	 ecx
  00030	59		 pop	 ecx
$LN2@scalar:
  00031	8b 45 fc	 mov	 eax, DWORD PTR _this$[ebp]
  00034	c9		 leave
  00035	c2 04 00	 ret	 4
??_Gbad_alloc@std@@UAEPAXI@Z ENDP			; std::bad_alloc::`scalar deleting destructor'
_TEXT	ENDS
; Function compile flags: /Odspy
;	COMDAT ??0bad_alloc@std@@QAE@ABV01@@Z
_TEXT	SEGMENT
_this$ = -4						; size = 4
___that$ = 8						; size = 4
??0bad_alloc@std@@QAE@ABV01@@Z PROC			; std::bad_alloc::bad_alloc, COMDAT
; _this$ = ecx
  00000	55		 push	 ebp
  00001	8b ec		 mov	 ebp, esp
  00003	51		 push	 ecx
  00004	89 4d fc	 mov	 DWORD PTR _this$[ebp], ecx
  00007	ff 75 08	 push	 DWORD PTR ___that$[ebp]
  0000a	8b 4d fc	 mov	 ecx, DWORD PTR _this$[ebp]
  0000d	e8 00 00 00 00	 call	 ??0exception@std@@QAE@ABV01@@Z ; std::exception::exception
  00012	8b 45 fc	 mov	 eax, DWORD PTR _this$[ebp]
  00015	c7 00 00 00 00
	00		 mov	 DWORD PTR [eax], OFFSET ??_7bad_alloc@std@@6B@
  0001b	8b 45 fc	 mov	 eax, DWORD PTR _this$[ebp]
  0001e	c9		 leave
  0001f	c2 04 00	 ret	 4
??0bad_alloc@std@@QAE@ABV01@@Z ENDP			; std::bad_alloc::bad_alloc
_TEXT	ENDS
; Function compile flags: /Odspy
; File C:\Program Files (x86)\Microsoft Visual Studio\2019\Community\VC\Tools\MSVC\14.28.29333\include\vcruntime_exception.h
;	COMDAT ??_Gexception@std@@UAEPAXI@Z
_TEXT	SEGMENT
_this$ = -4						; size = 4
___flags$ = 8						; size = 4
??_Gexception@std@@UAEPAXI@Z PROC			; std::exception::`scalar deleting destructor', COMDAT
; _this$ = ecx
  00000	55		 push	 ebp
  00001	8b ec		 mov	 ebp, esp
  00003	51		 push	 ecx
  00004	89 4d fc	 mov	 DWORD PTR _this$[ebp], ecx

; 89   :     {

  00007	8b 45 fc	 mov	 eax, DWORD PTR _this$[ebp]
  0000a	c7 00 00 00 00
	00		 mov	 DWORD PTR [eax], OFFSET ??_7exception@std@@6B@

; 90   :         __std_exception_destroy(&_Data);

  00010	8b 45 fc	 mov	 eax, DWORD PTR _this$[ebp]
  00013	83 c0 04	 add	 eax, 4
  00016	50		 push	 eax
  00017	e8 00 00 00 00	 call	 ___std_exception_destroy
  0001c	59		 pop	 ecx
  0001d	8b 45 08	 mov	 eax, DWORD PTR ___flags$[ebp]
  00020	83 e0 01	 and	 eax, 1
  00023	74 0c		 je	 SHORT $LN2@scalar
  00025	6a 0c		 push	 12			; 0000000cH
  00027	ff 75 fc	 push	 DWORD PTR _this$[ebp]
  0002a	e8 00 00 00 00	 call	 ??3@YAXPAXI@Z		; operator delete
  0002f	59		 pop	 ecx
  00030	59		 pop	 ecx
$LN2@scalar:
  00031	8b 45 fc	 mov	 eax, DWORD PTR _this$[ebp]
  00034	c9		 leave
  00035	c2 04 00	 ret	 4
??_Gexception@std@@UAEPAXI@Z ENDP			; std::exception::`scalar deleting destructor'
_TEXT	ENDS
; Function compile flags: /Odspy
; File C:\Program Files (x86)\Microsoft Visual Studio\2019\Community\VC\Tools\MSVC\14.28.29333\include\vcruntime_exception.h
;	COMDAT ?what@exception@std@@UBEPBDXZ
_TEXT	SEGMENT
tv69 = -8						; size = 4
_this$ = -4						; size = 4
?what@exception@std@@UBEPBDXZ PROC			; std::exception::what, COMDAT
; _this$ = ecx

; 94   :     {

  00000	55		 push	 ebp
  00001	8b ec		 mov	 ebp, esp
  00003	51		 push	 ecx
  00004	51		 push	 ecx
  00005	89 4d fc	 mov	 DWORD PTR _this$[ebp], ecx

; 95   :         return _Data._What ? _Data._What : "Unknown exception";

  00008	8b 45 fc	 mov	 eax, DWORD PTR _this$[ebp]
  0000b	83 78 04 00	 cmp	 DWORD PTR [eax+4], 0
  0000f	74 0b		 je	 SHORT $LN3@what
  00011	8b 45 fc	 mov	 eax, DWORD PTR _this$[ebp]
  00014	8b 40 04	 mov	 eax, DWORD PTR [eax+4]
  00017	89 45 f8	 mov	 DWORD PTR tv69[ebp], eax
  0001a	eb 07		 jmp	 SHORT $LN4@what
$LN3@what:
  0001c	c7 45 f8 00 00
	00 00		 mov	 DWORD PTR tv69[ebp], OFFSET ??_C@_0BC@EOODALEL@Unknown?5exception@
$LN4@what:
  00023	8b 45 f8	 mov	 eax, DWORD PTR tv69[ebp]

; 96   :     }

  00026	c9		 leave
  00027	c3		 ret	 0
?what@exception@std@@UBEPBDXZ ENDP			; std::exception::what
_TEXT	ENDS
; Function compile flags: /Odspy
; File C:\Program Files (x86)\Microsoft Visual Studio\2019\Community\VC\Tools\MSVC\14.28.29333\include\vcruntime_exception.h
;	COMDAT ??0exception@std@@QAE@ABV01@@Z
_TEXT	SEGMENT
_this$ = -4						; size = 4
__Other$ = 8						; size = 4
??0exception@std@@QAE@ABV01@@Z PROC			; std::exception::exception, COMDAT
; _this$ = ecx

; 72   :     {

  00000	55		 push	 ebp
  00001	8b ec		 mov	 ebp, esp
  00003	51		 push	 ecx
  00004	89 4d fc	 mov	 DWORD PTR _this$[ebp], ecx
  00007	8b 45 fc	 mov	 eax, DWORD PTR _this$[ebp]
  0000a	c7 00 00 00 00
	00		 mov	 DWORD PTR [eax], OFFSET ??_7exception@std@@6B@

; 71   :         : _Data()

  00010	33 c0		 xor	 eax, eax
  00012	8b 4d fc	 mov	 ecx, DWORD PTR _this$[ebp]
  00015	83 c1 04	 add	 ecx, 4
  00018	89 01		 mov	 DWORD PTR [ecx], eax
  0001a	89 41 04	 mov	 DWORD PTR [ecx+4], eax

; 73   :         __std_exception_copy(&_Other._Data, &_Data);

  0001d	8b 45 fc	 mov	 eax, DWORD PTR _this$[ebp]
  00020	83 c0 04	 add	 eax, 4
  00023	50		 push	 eax
  00024	8b 45 08	 mov	 eax, DWORD PTR __Other$[ebp]
  00027	83 c0 04	 add	 eax, 4
  0002a	50		 push	 eax
  0002b	e8 00 00 00 00	 call	 ___std_exception_copy
  00030	59		 pop	 ecx
  00031	59		 pop	 ecx

; 74   :     }

  00032	8b 45 fc	 mov	 eax, DWORD PTR _this$[ebp]
  00035	c9		 leave
  00036	c2 04 00	 ret	 4
??0exception@std@@QAE@ABV01@@Z ENDP			; std::exception::exception
_TEXT	ENDS
END
