; Listing generated by Microsoft (R) Optimizing Compiler Version 19.28.29335.0 

	TITLE	D:\Metin2 Server Files\mainline\SRC_2014\Metin2Client\EterLib\GrpFontTexture.cpp
	.686P
	.XMM
	include listing.inc
	.model	flat

INCLUDELIB LIBCMT
INCLUDELIB OLDNAMES

CONST	SEGMENT
?piecewise_construct@std@@3Upiecewise_construct_t@1@B	ORG $+1 ; std::piecewise_construct
CONST	ENDS
PUBLIC	??0exception@std@@QAE@ABV01@@Z			; std::exception::exception
PUBLIC	?what@exception@std@@UBEPBDXZ			; std::exception::what
PUBLIC	??_Gexception@std@@UAEPAXI@Z			; std::exception::`scalar deleting destructor'
PUBLIC	??0bad_alloc@std@@QAE@ABV01@@Z			; std::bad_alloc::bad_alloc
PUBLIC	??_Gbad_alloc@std@@UAEPAXI@Z			; std::bad_alloc::`scalar deleting destructor'
PUBLIC	??0bad_array_new_length@std@@QAE@XZ		; std::bad_array_new_length::bad_array_new_length
PUBLIC	??1bad_array_new_length@std@@UAE@XZ		; std::bad_array_new_length::~bad_array_new_length
PUBLIC	??0bad_array_new_length@std@@QAE@ABV01@@Z	; std::bad_array_new_length::bad_array_new_length
PUBLIC	??_Gbad_array_new_length@std@@UAEPAXI@Z		; std::bad_array_new_length::`scalar deleting destructor'
PUBLIC	?_Throw_bad_array_new_length@std@@YAXXZ		; std::_Throw_bad_array_new_length
PUBLIC	?_Adjust_manually_vector_aligned@std@@YAXAAPAXAAI@Z ; std::_Adjust_manually_vector_aligned
PUBLIC	?_Throw_tree_length_error@std@@YAXXZ		; std::_Throw_tree_length_error
PUBLIC	??$_Deallocate@$07$0A@@std@@YAXPAXI@Z		; std::_Deallocate<8,0>
PUBLIC	??$_Allocate@$07U_Default_allocate_traits@std@@$0A@@std@@YAPAXI@Z ; std::_Allocate<8,std::_Default_allocate_traits,0>
PUBLIC	??$_Allocate_manually_vector_aligned@U_Default_allocate_traits@std@@@std@@YAPAXI@Z ; std::_Allocate_manually_vector_aligned<std::_Default_allocate_traits>
PUBLIC	??0CGraphicFontTexture@@QAE@XZ			; CGraphicFontTexture::CGraphicFontTexture
PUBLIC	??1CGraphicFontTexture@@UAE@XZ			; CGraphicFontTexture::~CGraphicFontTexture
PUBLIC	?Destroy@CGraphicFontTexture@@QAEXXZ		; CGraphicFontTexture::Destroy
PUBLIC	?Create@CGraphicFontTexture@@QAE_NPBDH_N@Z	; CGraphicFontTexture::Create
PUBLIC	?CreateDeviceObjects@CGraphicFontTexture@@QAE_NXZ ; CGraphicFontTexture::CreateDeviceObjects
PUBLIC	?DestroyDeviceObjects@CGraphicFontTexture@@QAEXXZ ; CGraphicFontTexture::DestroyDeviceObjects
PUBLIC	?CheckTextureIndex@CGraphicFontTexture@@QAE_NK@Z ; CGraphicFontTexture::CheckTextureIndex
PUBLIC	?SelectTexture@CGraphicFontTexture@@QAEXK@Z	; CGraphicFontTexture::SelectTexture
PUBLIC	?UpdateTexture@CGraphicFontTexture@@QAE_NXZ	; CGraphicFontTexture::UpdateTexture
PUBLIC	?GetCharacterInfomation@CGraphicFontTexture@@QAEPAUSCharacterInfomation@1@G_W@Z ; CGraphicFontTexture::GetCharacterInfomation
PUBLIC	?UpdateCharacterInfomation@CGraphicFontTexture@@QAEPAUSCharacterInfomation@1@U?$pair@G_W@std@@@Z ; CGraphicFontTexture::UpdateCharacterInfomation
PUBLIC	?IsEmpty@CGraphicFontTexture@@UBE_NXZ		; CGraphicFontTexture::IsEmpty
PUBLIC	?Initialize@CGraphicFontTexture@@IAEXXZ		; CGraphicFontTexture::Initialize
PUBLIC	?AppendTexture@CGraphicFontTexture@@IAE_NXZ	; CGraphicFontTexture::AppendTexture
PUBLIC	?GetFont@CGraphicFontTexture@@IAEPAUHFONT__@@G@Z ; CGraphicFontTexture::GetFont
PUBLIC	?deallocate@?$allocator@PAVCGraphicImageTexture@@@std@@QAEXQAPAVCGraphicImageTexture@@I@Z ; std::allocator<CGraphicImageTexture *>::deallocate
PUBLIC	??1?$vector@PAVCGraphicImageTexture@@V?$allocator@PAVCGraphicImageTexture@@@std@@@std@@QAE@XZ ; std::vector<CGraphicImageTexture *,std::allocator<CGraphicImageTexture *> >::~vector<CGraphicImageTexture *,std::allocator<CGraphicImageTexture *> >
PUBLIC	?clear@?$vector@PAVCGraphicImageTexture@@V?$allocator@PAVCGraphicImageTexture@@@std@@@std@@QAEXXZ ; std::vector<CGraphicImageTexture *,std::allocator<CGraphicImageTexture *> >::clear
PUBLIC	?_Destroy@?$vector@PAVCGraphicImageTexture@@V?$allocator@PAVCGraphicImageTexture@@@std@@@std@@AAEXPAPAVCGraphicImageTexture@@0@Z ; std::vector<CGraphicImageTexture *,std::allocator<CGraphicImageTexture *> >::_Destroy
PUBLIC	?_Calculate_growth@?$vector@PAVCGraphicImageTexture@@V?$allocator@PAVCGraphicImageTexture@@@std@@@std@@ABEII@Z ; std::vector<CGraphicImageTexture *,std::allocator<CGraphicImageTexture *> >::_Calculate_growth
PUBLIC	?_Change_array@?$vector@PAVCGraphicImageTexture@@V?$allocator@PAVCGraphicImageTexture@@@std@@@std@@AAEXQAPAVCGraphicImageTexture@@II@Z ; std::vector<CGraphicImageTexture *,std::allocator<CGraphicImageTexture *> >::_Change_array
PUBLIC	?_Tidy@?$vector@PAVCGraphicImageTexture@@V?$allocator@PAVCGraphicImageTexture@@@std@@@std@@AAEXXZ ; std::vector<CGraphicImageTexture *,std::allocator<CGraphicImageTexture *> >::_Tidy
PUBLIC	?_Xlength@?$vector@PAVCGraphicImageTexture@@V?$allocator@PAVCGraphicImageTexture@@@std@@@std@@CAXXZ ; std::vector<CGraphicImageTexture *,std::allocator<CGraphicImageTexture *> >::_Xlength
PUBLIC	??0?$_Tree@V?$_Tmap_traits@U?$pair@G_W@std@@USCharacterInfomation@CGraphicFontTexture@@U?$less@U?$pair@G_W@std@@@2@V?$allocator@U?$pair@$$CBU?$pair@G_W@std@@USCharacterInfomation@CGraphicFontTexture@@@std@@@2@$0A@@std@@@std@@QAE@ABU?$less@U?$pair@G_W@std@@@1@@Z ; std::_Tree<std::_Tmap_traits<std::pair<unsigned short,wchar_t>,CGraphicFontTexture::SCharacterInfomation,std::less<std::pair<unsigned short,wchar_t> >,std::allocator<std::pair<std::pair<unsigned short,wchar_t> const ,CGraphicFontTexture::SCharacterInfomation> >,0> >::_Tree<std::_Tmap_traits<std::pair<unsigned short,wchar_t>,CGraphicFontTexture::SCharacterInfomation,std::less<std::pair<unsigned short,wchar_t> >,std::allocator<std::pair<std::pair<unsigned short,wchar_t> const ,CGraphicFontTexture::SCharacterInfomation> >,0> >
PUBLIC	??1?$_Tree@V?$_Tmap_traits@U?$pair@G_W@std@@USCharacterInfomation@CGraphicFontTexture@@U?$less@U?$pair@G_W@std@@@2@V?$allocator@U?$pair@$$CBU?$pair@G_W@std@@USCharacterInfomation@CGraphicFontTexture@@@std@@@2@$0A@@std@@@std@@QAE@XZ ; std::_Tree<std::_Tmap_traits<std::pair<unsigned short,wchar_t>,CGraphicFontTexture::SCharacterInfomation,std::less<std::pair<unsigned short,wchar_t> >,std::allocator<std::pair<std::pair<unsigned short,wchar_t> const ,CGraphicFontTexture::SCharacterInfomation> >,0> >::~_Tree<std::_Tmap_traits<std::pair<unsigned short,wchar_t>,CGraphicFontTexture::SCharacterInfomation,std::less<std::pair<unsigned short,wchar_t> >,std::allocator<std::pair<std::pair<unsigned short,wchar_t> const ,CGraphicFontTexture::SCharacterInfomation> >,0> >
PUBLIC	?max_size@?$_Tree@V?$_Tmap_traits@U?$pair@G_W@std@@USCharacterInfomation@CGraphicFontTexture@@U?$less@U?$pair@G_W@std@@@2@V?$allocator@U?$pair@$$CBU?$pair@G_W@std@@USCharacterInfomation@CGraphicFontTexture@@@std@@@2@$0A@@std@@@std@@QBEIXZ ; std::_Tree<std::_Tmap_traits<std::pair<unsigned short,wchar_t>,CGraphicFontTexture::SCharacterInfomation,std::less<std::pair<unsigned short,wchar_t> >,std::allocator<std::pair<std::pair<unsigned short,wchar_t> const ,CGraphicFontTexture::SCharacterInfomation> >,0> >::max_size
PUBLIC	?clear@?$_Tree@V?$_Tmap_traits@U?$pair@G_W@std@@USCharacterInfomation@CGraphicFontTexture@@U?$less@U?$pair@G_W@std@@@2@V?$allocator@U?$pair@$$CBU?$pair@G_W@std@@USCharacterInfomation@CGraphicFontTexture@@@std@@@2@$0A@@std@@@std@@QAEXXZ ; std::_Tree<std::_Tmap_traits<std::pair<unsigned short,wchar_t>,CGraphicFontTexture::SCharacterInfomation,std::less<std::pair<unsigned short,wchar_t> >,std::allocator<std::pair<std::pair<unsigned short,wchar_t> const ,CGraphicFontTexture::SCharacterInfomation> >,0> >::clear
PUBLIC	?find@?$_Tree@V?$_Tmap_traits@U?$pair@G_W@std@@USCharacterInfomation@CGraphicFontTexture@@U?$less@U?$pair@G_W@std@@@2@V?$allocator@U?$pair@$$CBU?$pair@G_W@std@@USCharacterInfomation@CGraphicFontTexture@@@std@@@2@$0A@@std@@@std@@QAE?AV?$_Tree_iterator@V?$_Tree_val@U?$_Tree_simple_types@U?$pair@$$CBU?$pair@G_W@std@@USCharacterInfomation@CGraphicFontTexture@@@std@@@std@@@std@@@2@ABU?$pair@G_W@2@@Z ; std::_Tree<std::_Tmap_traits<std::pair<unsigned short,wchar_t>,CGraphicFontTexture::SCharacterInfomation,std::less<std::pair<unsigned short,wchar_t> >,std::allocator<std::pair<std::pair<unsigned short,wchar_t> const ,CGraphicFontTexture::SCharacterInfomation> >,0> >::find
PUBLIC	?_Check_grow_by_1@?$_Tree@V?$_Tmap_traits@U?$pair@G_W@std@@USCharacterInfomation@CGraphicFontTexture@@U?$less@U?$pair@G_W@std@@@2@V?$allocator@U?$pair@$$CBU?$pair@G_W@std@@USCharacterInfomation@CGraphicFontTexture@@@std@@@2@$0A@@std@@@std@@IAEXXZ ; std::_Tree<std::_Tmap_traits<std::pair<unsigned short,wchar_t>,CGraphicFontTexture::SCharacterInfomation,std::less<std::pair<unsigned short,wchar_t> >,std::allocator<std::pair<std::pair<unsigned short,wchar_t> const ,CGraphicFontTexture::SCharacterInfomation> >,0> >::_Check_grow_by_1
PUBLIC	?_Alloc_sentinel_and_proxy@?$_Tree@V?$_Tmap_traits@U?$pair@G_W@std@@USCharacterInfomation@CGraphicFontTexture@@U?$less@U?$pair@G_W@std@@@2@V?$allocator@U?$pair@$$CBU?$pair@G_W@std@@USCharacterInfomation@CGraphicFontTexture@@@std@@@2@$0A@@std@@@std@@IAEXXZ ; std::_Tree<std::_Tmap_traits<std::pair<unsigned short,wchar_t>,CGraphicFontTexture::SCharacterInfomation,std::less<std::pair<unsigned short,wchar_t> >,std::allocator<std::pair<std::pair<unsigned short,wchar_t> const ,CGraphicFontTexture::SCharacterInfomation> >,0> >::_Alloc_sentinel_and_proxy
PUBLIC	?_Lrotate@?$_Tree_val@U?$_Tree_simple_types@U?$pair@$$CBU?$pair@G_W@std@@USCharacterInfomation@CGraphicFontTexture@@@std@@@std@@@std@@QAEXPAU?$_Tree_node@U?$pair@$$CBU?$pair@G_W@std@@USCharacterInfomation@CGraphicFontTexture@@@std@@PAX@2@@Z ; std::_Tree_val<std::_Tree_simple_types<std::pair<std::pair<unsigned short,wchar_t> const ,CGraphicFontTexture::SCharacterInfomation> > >::_Lrotate
PUBLIC	?_Rrotate@?$_Tree_val@U?$_Tree_simple_types@U?$pair@$$CBU?$pair@G_W@std@@USCharacterInfomation@CGraphicFontTexture@@@std@@@std@@@std@@QAEXPAU?$_Tree_node@U?$pair@$$CBU?$pair@G_W@std@@USCharacterInfomation@CGraphicFontTexture@@@std@@PAX@2@@Z ; std::_Tree_val<std::_Tree_simple_types<std::pair<std::pair<unsigned short,wchar_t> const ,CGraphicFontTexture::SCharacterInfomation> > >::_Rrotate
PUBLIC	?_Insert_node@?$_Tree_val@U?$_Tree_simple_types@U?$pair@$$CBU?$pair@G_W@std@@USCharacterInfomation@CGraphicFontTexture@@@std@@@std@@@std@@QAEPAU?$_Tree_node@U?$pair@$$CBU?$pair@G_W@std@@USCharacterInfomation@CGraphicFontTexture@@@std@@PAX@2@U?$_Tree_id@PAU?$_Tree_node@U?$pair@$$CBU?$pair@G_W@std@@USCharacterInfomation@CGraphicFontTexture@@@std@@PAX@std@@@2@QAU32@@Z ; std::_Tree_val<std::_Tree_simple_types<std::pair<std::pair<unsigned short,wchar_t> const ,CGraphicFontTexture::SCharacterInfomation> > >::_Insert_node
PUBLIC	??1?$map@U?$pair@G_W@std@@USCharacterInfomation@CGraphicFontTexture@@U?$less@U?$pair@G_W@std@@@2@V?$allocator@U?$pair@$$CBU?$pair@G_W@std@@USCharacterInfomation@CGraphicFontTexture@@@std@@@2@@std@@QAE@XZ ; std::map<std::pair<unsigned short,wchar_t>,CGraphicFontTexture::SCharacterInfomation,std::less<std::pair<unsigned short,wchar_t> >,std::allocator<std::pair<std::pair<unsigned short,wchar_t> const ,CGraphicFontTexture::SCharacterInfomation> > >::~map<std::pair<unsigned short,wchar_t>,CGraphicFontTexture::SCharacterInfomation,std::less<std::pair<unsigned short,wchar_t> >,std::allocator<std::pair<std::pair<unsigned short,wchar_t> const ,CGraphicFontTexture::SCharacterInfomation> > >
PUBLIC	??0?$_Tree@V?$_Tmap_traits@GPAUHFONT__@@U?$less@G@std@@V?$allocator@U?$pair@$$CBGPAUHFONT__@@@std@@@3@$0A@@std@@@std@@QAE@ABU?$less@G@1@@Z ; std::_Tree<std::_Tmap_traits<unsigned short,HFONT__ *,std::less<unsigned short>,std::allocator<std::pair<unsigned short const ,HFONT__ *> >,0> >::_Tree<std::_Tmap_traits<unsigned short,HFONT__ *,std::less<unsigned short>,std::allocator<std::pair<unsigned short const ,HFONT__ *> >,0> >
PUBLIC	??1?$_Tree@V?$_Tmap_traits@GPAUHFONT__@@U?$less@G@std@@V?$allocator@U?$pair@$$CBGPAUHFONT__@@@std@@@3@$0A@@std@@@std@@QAE@XZ ; std::_Tree<std::_Tmap_traits<unsigned short,HFONT__ *,std::less<unsigned short>,std::allocator<std::pair<unsigned short const ,HFONT__ *> >,0> >::~_Tree<std::_Tmap_traits<unsigned short,HFONT__ *,std::less<unsigned short>,std::allocator<std::pair<unsigned short const ,HFONT__ *> >,0> >
PUBLIC	?max_size@?$_Tree@V?$_Tmap_traits@GPAUHFONT__@@U?$less@G@std@@V?$allocator@U?$pair@$$CBGPAUHFONT__@@@std@@@3@$0A@@std@@@std@@QBEIXZ ; std::_Tree<std::_Tmap_traits<unsigned short,HFONT__ *,std::less<unsigned short>,std::allocator<std::pair<unsigned short const ,HFONT__ *> >,0> >::max_size
PUBLIC	?clear@?$_Tree@V?$_Tmap_traits@GPAUHFONT__@@U?$less@G@std@@V?$allocator@U?$pair@$$CBGPAUHFONT__@@@std@@@3@$0A@@std@@@std@@QAEXXZ ; std::_Tree<std::_Tmap_traits<unsigned short,HFONT__ *,std::less<unsigned short>,std::allocator<std::pair<unsigned short const ,HFONT__ *> >,0> >::clear
PUBLIC	?find@?$_Tree@V?$_Tmap_traits@GPAUHFONT__@@U?$less@G@std@@V?$allocator@U?$pair@$$CBGPAUHFONT__@@@std@@@3@$0A@@std@@@std@@QAE?AV?$_Tree_iterator@V?$_Tree_val@U?$_Tree_simple_types@U?$pair@$$CBGPAUHFONT__@@@std@@@std@@@std@@@2@ABG@Z ; std::_Tree<std::_Tmap_traits<unsigned short,HFONT__ *,std::less<unsigned short>,std::allocator<std::pair<unsigned short const ,HFONT__ *> >,0> >::find
PUBLIC	?_Check_grow_by_1@?$_Tree@V?$_Tmap_traits@GPAUHFONT__@@U?$less@G@std@@V?$allocator@U?$pair@$$CBGPAUHFONT__@@@std@@@3@$0A@@std@@@std@@IAEXXZ ; std::_Tree<std::_Tmap_traits<unsigned short,HFONT__ *,std::less<unsigned short>,std::allocator<std::pair<unsigned short const ,HFONT__ *> >,0> >::_Check_grow_by_1
PUBLIC	?_Alloc_sentinel_and_proxy@?$_Tree@V?$_Tmap_traits@GPAUHFONT__@@U?$less@G@std@@V?$allocator@U?$pair@$$CBGPAUHFONT__@@@std@@@3@$0A@@std@@@std@@IAEXXZ ; std::_Tree<std::_Tmap_traits<unsigned short,HFONT__ *,std::less<unsigned short>,std::allocator<std::pair<unsigned short const ,HFONT__ *> >,0> >::_Alloc_sentinel_and_proxy
PUBLIC	?_Lrotate@?$_Tree_val@U?$_Tree_simple_types@U?$pair@$$CBGPAUHFONT__@@@std@@@std@@@std@@QAEXPAU?$_Tree_node@U?$pair@$$CBGPAUHFONT__@@@std@@PAX@2@@Z ; std::_Tree_val<std::_Tree_simple_types<std::pair<unsigned short const ,HFONT__ *> > >::_Lrotate
PUBLIC	?_Rrotate@?$_Tree_val@U?$_Tree_simple_types@U?$pair@$$CBGPAUHFONT__@@@std@@@std@@@std@@QAEXPAU?$_Tree_node@U?$pair@$$CBGPAUHFONT__@@@std@@PAX@2@@Z ; std::_Tree_val<std::_Tree_simple_types<std::pair<unsigned short const ,HFONT__ *> > >::_Rrotate
PUBLIC	?_Insert_node@?$_Tree_val@U?$_Tree_simple_types@U?$pair@$$CBGPAUHFONT__@@@std@@@std@@@std@@QAEPAU?$_Tree_node@U?$pair@$$CBGPAUHFONT__@@@std@@PAX@2@U?$_Tree_id@PAU?$_Tree_node@U?$pair@$$CBGPAUHFONT__@@@std@@PAX@std@@@2@QAU32@@Z ; std::_Tree_val<std::_Tree_simple_types<std::pair<unsigned short const ,HFONT__ *> > >::_Insert_node
PUBLIC	??1?$map@GPAUHFONT__@@U?$less@G@std@@V?$allocator@U?$pair@$$CBGPAUHFONT__@@@std@@@3@@std@@QAE@XZ ; std::map<unsigned short,HFONT__ *,std::less<unsigned short>,std::allocator<std::pair<unsigned short const ,HFONT__ *> > >::~map<unsigned short,HFONT__ *,std::less<unsigned short>,std::allocator<std::pair<unsigned short const ,HFONT__ *> > >
PUBLIC	??_GCGraphicFontTexture@@UAEPAXI@Z		; CGraphicFontTexture::`scalar deleting destructor'
PUBLIC	??$stl_wipe@V?$vector@PAVCGraphicImageTexture@@V?$allocator@PAVCGraphicImageTexture@@@std@@@std@@@@YAXAAV?$vector@PAVCGraphicImageTexture@@V?$allocator@PAVCGraphicImageTexture@@@std@@@std@@@Z ; stl_wipe<std::vector<CGraphicImageTexture *,std::allocator<CGraphicImageTexture *> > >
PUBLIC	??E?$_Tree_unchecked_const_iterator@V?$_Tree_val@U?$_Tree_simple_types@U?$pair@$$CBGPAUHFONT__@@@std@@@std@@@std@@U_Iterator_base0@2@@std@@QAEAAV01@XZ ; std::_Tree_unchecked_const_iterator<std::_Tree_val<std::_Tree_simple_types<std::pair<unsigned short const ,HFONT__ *> > >,std::_Iterator_base0>::operator++
PUBLIC	??$insert@$0A@$0A@@?$_Tree@V?$_Tmap_traits@GPAUHFONT__@@U?$less@G@std@@V?$allocator@U?$pair@$$CBGPAUHFONT__@@@std@@@3@$0A@@std@@@std@@QAE?AU?$pair@V?$_Tree_iterator@V?$_Tree_val@U?$_Tree_simple_types@U?$pair@$$CBGPAUHFONT__@@@std@@@std@@@std@@@std@@_N@1@$$QAU?$pair@$$CBGPAUHFONT__@@@1@@Z ; std::_Tree<std::_Tmap_traits<unsigned short,HFONT__ *,std::less<unsigned short>,std::allocator<std::pair<unsigned short const ,HFONT__ *> >,0> >::insert<0,0>
PUBLIC	??$_Find@G@?$_Tree@V?$_Tmap_traits@GPAUHFONT__@@U?$less@G@std@@V?$allocator@U?$pair@$$CBGPAUHFONT__@@@std@@@3@$0A@@std@@@std@@ABEPAU?$_Tree_node@U?$pair@$$CBGPAUHFONT__@@@std@@PAX@1@ABG@Z ; std::_Tree<std::_Tmap_traits<unsigned short,HFONT__ *,std::less<unsigned short>,std::allocator<std::pair<unsigned short const ,HFONT__ *> >,0> >::_Find<unsigned short>
PUBLIC	??$_Erase_tree@V?$allocator@U?$_Tree_node@U?$pair@$$CBGPAUHFONT__@@@std@@PAX@std@@@std@@@?$_Tree_val@U?$_Tree_simple_types@U?$pair@$$CBGPAUHFONT__@@@std@@@std@@@std@@QAEXAAV?$allocator@U?$_Tree_node@U?$pair@$$CBGPAUHFONT__@@@std@@PAX@std@@@1@PAU?$_Tree_node@U?$pair@$$CBGPAUHFONT__@@@std@@PAX@1@@Z ; std::_Tree_val<std::_Tree_simple_types<std::pair<unsigned short const ,HFONT__ *> > >::_Erase_tree<std::allocator<std::_Tree_node<std::pair<unsigned short const ,HFONT__ *>,void *> > >
PUBLIC	??$_Try_emplace@ABU?$pair@G_W@std@@$$V@?$map@U?$pair@G_W@std@@USCharacterInfomation@CGraphicFontTexture@@U?$less@U?$pair@G_W@std@@@2@V?$allocator@U?$pair@$$CBU?$pair@G_W@std@@USCharacterInfomation@CGraphicFontTexture@@@std@@@2@@std@@AAE?AU?$pair@PAU?$_Tree_node@U?$pair@$$CBU?$pair@G_W@std@@USCharacterInfomation@CGraphicFontTexture@@@std@@PAX@std@@_N@1@ABU?$pair@G_W@1@@Z ; std::map<std::pair<unsigned short,wchar_t>,CGraphicFontTexture::SCharacterInfomation,std::less<std::pair<unsigned short,wchar_t> >,std::allocator<std::pair<std::pair<unsigned short,wchar_t> const ,CGraphicFontTexture::SCharacterInfomation> > >::_Try_emplace<std::pair<unsigned short,wchar_t> const &>
PUBLIC	??$_Find@U?$pair@G_W@std@@@?$_Tree@V?$_Tmap_traits@U?$pair@G_W@std@@USCharacterInfomation@CGraphicFontTexture@@U?$less@U?$pair@G_W@std@@@2@V?$allocator@U?$pair@$$CBU?$pair@G_W@std@@USCharacterInfomation@CGraphicFontTexture@@@std@@@2@$0A@@std@@@std@@ABEPAU?$_Tree_node@U?$pair@$$CBU?$pair@G_W@std@@USCharacterInfomation@CGraphicFontTexture@@@std@@PAX@1@ABU?$pair@G_W@1@@Z ; std::_Tree<std::_Tmap_traits<std::pair<unsigned short,wchar_t>,CGraphicFontTexture::SCharacterInfomation,std::less<std::pair<unsigned short,wchar_t> >,std::allocator<std::pair<std::pair<unsigned short,wchar_t> const ,CGraphicFontTexture::SCharacterInfomation> >,0> >::_Find<std::pair<unsigned short,wchar_t> >
PUBLIC	??$_Erase_tree@V?$allocator@U?$_Tree_node@U?$pair@$$CBU?$pair@G_W@std@@USCharacterInfomation@CGraphicFontTexture@@@std@@PAX@std@@@std@@@?$_Tree_val@U?$_Tree_simple_types@U?$pair@$$CBU?$pair@G_W@std@@USCharacterInfomation@CGraphicFontTexture@@@std@@@std@@@std@@QAEXAAV?$allocator@U?$_Tree_node@U?$pair@$$CBU?$pair@G_W@std@@USCharacterInfomation@CGraphicFontTexture@@@std@@PAX@std@@@1@PAU?$_Tree_node@U?$pair@$$CBU?$pair@G_W@std@@USCharacterInfomation@CGraphicFontTexture@@@std@@PAX@1@@Z ; std::_Tree_val<std::_Tree_simple_types<std::pair<std::pair<unsigned short,wchar_t> const ,CGraphicFontTexture::SCharacterInfomation> > >::_Erase_tree<std::allocator<std::_Tree_node<std::pair<std::pair<unsigned short,wchar_t> const ,CGraphicFontTexture::SCharacterInfomation>,void *> > >
PUBLIC	??$emplace_back@ABQAVCGraphicImageTexture@@@?$vector@PAVCGraphicImageTexture@@V?$allocator@PAVCGraphicImageTexture@@@std@@@std@@QAEXABQAVCGraphicImageTexture@@@Z ; std::vector<CGraphicImageTexture *,std::allocator<CGraphicImageTexture *> >::emplace_back<CGraphicImageTexture * const &>
PUBLIC	??$_Emplace_back_with_unused_capacity@ABQAVCGraphicImageTexture@@@?$vector@PAVCGraphicImageTexture@@V?$allocator@PAVCGraphicImageTexture@@@std@@@std@@AAEXABQAVCGraphicImageTexture@@@Z ; std::vector<CGraphicImageTexture *,std::allocator<CGraphicImageTexture *> >::_Emplace_back_with_unused_capacity<CGraphicImageTexture * const &>
PUBLIC	??$_Emplace_reallocate@ABQAVCGraphicImageTexture@@@?$vector@PAVCGraphicImageTexture@@V?$allocator@PAVCGraphicImageTexture@@@std@@@std@@QAEPAPAVCGraphicImageTexture@@QAPAV2@ABQAV2@@Z ; std::vector<CGraphicImageTexture *,std::allocator<CGraphicImageTexture *> >::_Emplace_reallocate<CGraphicImageTexture * const &>
PUBLIC	??$_Buyheadnode@V?$allocator@U?$_Tree_node@U?$pair@$$CBGPAUHFONT__@@@std@@PAX@std@@@std@@@?$_Tree_node@U?$pair@$$CBGPAUHFONT__@@@std@@PAX@std@@SAPAU01@AAV?$allocator@U?$_Tree_node@U?$pair@$$CBGPAUHFONT__@@@std@@PAX@std@@@1@@Z ; std::_Tree_node<std::pair<unsigned short const ,HFONT__ *>,void *>::_Buyheadnode<std::allocator<std::_Tree_node<std::pair<unsigned short const ,HFONT__ *>,void *> > >
PUBLIC	??$_Buyheadnode@V?$allocator@U?$_Tree_node@U?$pair@$$CBU?$pair@G_W@std@@USCharacterInfomation@CGraphicFontTexture@@@std@@PAX@std@@@std@@@?$_Tree_node@U?$pair@$$CBU?$pair@G_W@std@@USCharacterInfomation@CGraphicFontTexture@@@std@@PAX@std@@SAPAU01@AAV?$allocator@U?$_Tree_node@U?$pair@$$CBU?$pair@G_W@std@@USCharacterInfomation@CGraphicFontTexture@@@std@@PAX@std@@@1@@Z ; std::_Tree_node<std::pair<std::pair<unsigned short,wchar_t> const ,CGraphicFontTexture::SCharacterInfomation>,void *>::_Buyheadnode<std::allocator<std::_Tree_node<std::pair<std::pair<unsigned short,wchar_t> const ,CGraphicFontTexture::SCharacterInfomation>,void *> > >
PUBLIC	??$_Destroy_range@V?$allocator@PAVCGraphicImageTexture@@@std@@@std@@YAXPAPAVCGraphicImageTexture@@QAPAV1@AAV?$allocator@PAVCGraphicImageTexture@@@0@@Z ; std::_Destroy_range<std::allocator<CGraphicImageTexture *> >
PUBLIC	??$_Emplace@U?$pair@$$CBGPAUHFONT__@@@std@@@?$_Tree@V?$_Tmap_traits@GPAUHFONT__@@U?$less@G@std@@V?$allocator@U?$pair@$$CBGPAUHFONT__@@@std@@@3@$0A@@std@@@std@@IAE?AU?$pair@PAU?$_Tree_node@U?$pair@$$CBGPAUHFONT__@@@std@@PAX@std@@_N@1@$$QAU?$pair@$$CBGPAUHFONT__@@@1@@Z ; std::_Tree<std::_Tmap_traits<unsigned short,HFONT__ *,std::less<unsigned short>,std::allocator<std::pair<unsigned short const ,HFONT__ *> >,0> >::_Emplace<std::pair<unsigned short const ,HFONT__ *> >
PUBLIC	??$_Find_lower_bound@G@?$_Tree@V?$_Tmap_traits@GPAUHFONT__@@U?$less@G@std@@V?$allocator@U?$pair@$$CBGPAUHFONT__@@@std@@@3@$0A@@std@@@std@@IBE?AU?$_Tree_find_result@PAU?$_Tree_node@U?$pair@$$CBGPAUHFONT__@@@std@@PAX@std@@@1@ABG@Z ; std::_Tree<std::_Tmap_traits<unsigned short,HFONT__ *,std::less<unsigned short>,std::allocator<std::pair<unsigned short const ,HFONT__ *> >,0> >::_Find_lower_bound<unsigned short>
PUBLIC	??$_Lower_bound_duplicate@G@?$_Tree@V?$_Tmap_traits@GPAUHFONT__@@U?$less@G@std@@V?$allocator@U?$pair@$$CBGPAUHFONT__@@@std@@@3@$0A@@std@@@std@@IBE_NQAU?$_Tree_node@U?$pair@$$CBGPAUHFONT__@@@std@@PAX@1@ABG@Z ; std::_Tree<std::_Tmap_traits<unsigned short,HFONT__ *,std::less<unsigned short>,std::allocator<std::pair<unsigned short const ,HFONT__ *> >,0> >::_Lower_bound_duplicate<unsigned short>
PUBLIC	??$_Freenode0@V?$allocator@U?$_Tree_node@U?$pair@$$CBGPAUHFONT__@@@std@@PAX@std@@@std@@@?$_Tree_node@U?$pair@$$CBGPAUHFONT__@@@std@@PAX@std@@SAXAAV?$allocator@U?$_Tree_node@U?$pair@$$CBGPAUHFONT__@@@std@@PAX@std@@@1@PAU01@@Z ; std::_Tree_node<std::pair<unsigned short const ,HFONT__ *>,void *>::_Freenode0<std::allocator<std::_Tree_node<std::pair<unsigned short const ,HFONT__ *>,void *> > >
PUBLIC	??$_Find_lower_bound@U?$pair@G_W@std@@@?$_Tree@V?$_Tmap_traits@U?$pair@G_W@std@@USCharacterInfomation@CGraphicFontTexture@@U?$less@U?$pair@G_W@std@@@2@V?$allocator@U?$pair@$$CBU?$pair@G_W@std@@USCharacterInfomation@CGraphicFontTexture@@@std@@@2@$0A@@std@@@std@@IBE?AU?$_Tree_find_result@PAU?$_Tree_node@U?$pair@$$CBU?$pair@G_W@std@@USCharacterInfomation@CGraphicFontTexture@@@std@@PAX@std@@@1@ABU?$pair@G_W@1@@Z ; std::_Tree<std::_Tmap_traits<std::pair<unsigned short,wchar_t>,CGraphicFontTexture::SCharacterInfomation,std::less<std::pair<unsigned short,wchar_t> >,std::allocator<std::pair<std::pair<unsigned short,wchar_t> const ,CGraphicFontTexture::SCharacterInfomation> >,0> >::_Find_lower_bound<std::pair<unsigned short,wchar_t> >
PUBLIC	??$_Lower_bound_duplicate@U?$pair@G_W@std@@@?$_Tree@V?$_Tmap_traits@U?$pair@G_W@std@@USCharacterInfomation@CGraphicFontTexture@@U?$less@U?$pair@G_W@std@@@2@V?$allocator@U?$pair@$$CBU?$pair@G_W@std@@USCharacterInfomation@CGraphicFontTexture@@@std@@@2@$0A@@std@@@std@@IBE_NQAU?$_Tree_node@U?$pair@$$CBU?$pair@G_W@std@@USCharacterInfomation@CGraphicFontTexture@@@std@@PAX@1@ABU?$pair@G_W@1@@Z ; std::_Tree<std::_Tmap_traits<std::pair<unsigned short,wchar_t>,CGraphicFontTexture::SCharacterInfomation,std::less<std::pair<unsigned short,wchar_t> >,std::allocator<std::pair<std::pair<unsigned short,wchar_t> const ,CGraphicFontTexture::SCharacterInfomation> >,0> >::_Lower_bound_duplicate<std::pair<unsigned short,wchar_t> >
PUBLIC	?_Allocate@?$_Alloc_construct_ptr@V?$allocator@U?$_Tree_node@U?$pair@$$CBU?$pair@G_W@std@@USCharacterInfomation@CGraphicFontTexture@@@std@@PAX@std@@@std@@@std@@QAEXXZ ; std::_Alloc_construct_ptr<std::allocator<std::_Tree_node<std::pair<std::pair<unsigned short,wchar_t> const ,CGraphicFontTexture::SCharacterInfomation>,void *> > >::_Allocate
PUBLIC	??1?$_Alloc_construct_ptr@V?$allocator@U?$_Tree_node@U?$pair@$$CBU?$pair@G_W@std@@USCharacterInfomation@CGraphicFontTexture@@@std@@PAX@std@@@std@@@std@@QAE@XZ ; std::_Alloc_construct_ptr<std::allocator<std::_Tree_node<std::pair<std::pair<unsigned short,wchar_t> const ,CGraphicFontTexture::SCharacterInfomation>,void *> > >::~_Alloc_construct_ptr<std::allocator<std::_Tree_node<std::pair<std::pair<unsigned short,wchar_t> const ,CGraphicFontTexture::SCharacterInfomation>,void *> > >
PUBLIC	??1?$_Tree_temp_node_alloc@V?$allocator@U?$_Tree_node@U?$pair@$$CBU?$pair@G_W@std@@USCharacterInfomation@CGraphicFontTexture@@@std@@PAX@std@@@std@@@std@@QAE@XZ ; std::_Tree_temp_node_alloc<std::allocator<std::_Tree_node<std::pair<std::pair<unsigned short,wchar_t> const ,CGraphicFontTexture::SCharacterInfomation>,void *> > >::~_Tree_temp_node_alloc<std::allocator<std::_Tree_node<std::pair<std::pair<unsigned short,wchar_t> const ,CGraphicFontTexture::SCharacterInfomation>,void *> > >
PUBLIC	??1?$_Tree_temp_node@V?$allocator@U?$_Tree_node@U?$pair@$$CBU?$pair@G_W@std@@USCharacterInfomation@CGraphicFontTexture@@@std@@PAX@std@@@std@@@std@@QAE@XZ ; std::_Tree_temp_node<std::allocator<std::_Tree_node<std::pair<std::pair<unsigned short,wchar_t> const ,CGraphicFontTexture::SCharacterInfomation>,void *> > >::~_Tree_temp_node<std::allocator<std::_Tree_node<std::pair<std::pair<unsigned short,wchar_t> const ,CGraphicFontTexture::SCharacterInfomation>,void *> > >
PUBLIC	??$?0ABUpiecewise_construct_t@std@@V?$tuple@ABU?$pair@G_W@std@@@1@V?$tuple@$$V@1@@?$_Tree_temp_node@V?$allocator@U?$_Tree_node@U?$pair@$$CBU?$pair@G_W@std@@USCharacterInfomation@CGraphicFontTexture@@@std@@PAX@std@@@std@@@std@@QAE@AAV?$allocator@U?$_Tree_node@U?$pair@$$CBU?$pair@G_W@std@@USCharacterInfomation@CGraphicFontTexture@@@std@@PAX@std@@@1@PAU?$_Tree_node@U?$pair@$$CBU?$pair@G_W@std@@USCharacterInfomation@CGraphicFontTexture@@@std@@PAX@1@ABUpiecewise_construct_t@1@$$QAV?$tuple@ABU?$pair@G_W@std@@@1@$$QAV?$tuple@$$V@1@@Z ; std::_Tree_temp_node<std::allocator<std::_Tree_node<std::pair<std::pair<unsigned short,wchar_t> const ,CGraphicFontTexture::SCharacterInfomation>,void *> > >::_Tree_temp_node<std::allocator<std::_Tree_node<std::pair<std::pair<unsigned short,wchar_t> const ,CGraphicFontTexture::SCharacterInfomation>,void *> > ><std::piecewise_construct_t const &,std::tuple<std::pair<unsigned short,wchar_t> const &>,std::tuple<> >
PUBLIC	??$_Freenode0@V?$allocator@U?$_Tree_node@U?$pair@$$CBU?$pair@G_W@std@@USCharacterInfomation@CGraphicFontTexture@@@std@@PAX@std@@@std@@@?$_Tree_node@U?$pair@$$CBU?$pair@G_W@std@@USCharacterInfomation@CGraphicFontTexture@@@std@@PAX@std@@SAXAAV?$allocator@U?$_Tree_node@U?$pair@$$CBU?$pair@G_W@std@@USCharacterInfomation@CGraphicFontTexture@@@std@@PAX@std@@@1@PAU01@@Z ; std::_Tree_node<std::pair<std::pair<unsigned short,wchar_t> const ,CGraphicFontTexture::SCharacterInfomation>,void *>::_Freenode0<std::allocator<std::_Tree_node<std::pair<std::pair<unsigned short,wchar_t> const ,CGraphicFontTexture::SCharacterInfomation>,void *> > >
PUBLIC	??$_Construct_in_place@PAU?$_Tree_node@U?$pair@$$CBGPAUHFONT__@@@std@@PAX@std@@ABQAU12@@std@@YAXAAPAU?$_Tree_node@U?$pair@$$CBGPAUHFONT__@@@std@@PAX@0@ABQAU10@@Z ; std::_Construct_in_place<std::_Tree_node<std::pair<unsigned short const ,HFONT__ *>,void *> *,std::_Tree_node<std::pair<unsigned short const ,HFONT__ *>,void *> * const &>
PUBLIC	??$_Construct_in_place@PAU?$_Tree_node@U?$pair@$$CBU?$pair@G_W@std@@USCharacterInfomation@CGraphicFontTexture@@@std@@PAX@std@@ABQAU12@@std@@YAXAAPAU?$_Tree_node@U?$pair@$$CBU?$pair@G_W@std@@USCharacterInfomation@CGraphicFontTexture@@@std@@PAX@0@ABQAU10@@Z ; std::_Construct_in_place<std::_Tree_node<std::pair<std::pair<unsigned short,wchar_t> const ,CGraphicFontTexture::SCharacterInfomation>,void *> *,std::_Tree_node<std::pair<std::pair<unsigned short,wchar_t> const ,CGraphicFontTexture::SCharacterInfomation>,void *> * const &>
PUBLIC	??$_Destroy_in_place@PAU?$_Tree_node@U?$pair@$$CBU?$pair@G_W@std@@USCharacterInfomation@CGraphicFontTexture@@@std@@PAX@std@@@std@@YAXAAPAU?$_Tree_node@U?$pair@$$CBU?$pair@G_W@std@@USCharacterInfomation@CGraphicFontTexture@@@std@@PAX@0@@Z ; std::_Destroy_in_place<std::_Tree_node<std::pair<std::pair<unsigned short,wchar_t> const ,CGraphicFontTexture::SCharacterInfomation>,void *> *>
PUBLIC	??$_Uninitialized_move@PAPAVCGraphicImageTexture@@V?$allocator@PAVCGraphicImageTexture@@@std@@@std@@YAPAPAVCGraphicImageTexture@@QAPAV1@0PAPAV1@AAV?$allocator@PAVCGraphicImageTexture@@@0@@Z ; std::_Uninitialized_move<CGraphicImageTexture * *,std::allocator<CGraphicImageTexture *> >
PUBLIC	?_Allocate@?$_Alloc_construct_ptr@V?$allocator@U?$_Tree_node@U?$pair@$$CBGPAUHFONT__@@@std@@PAX@std@@@std@@@std@@QAEXXZ ; std::_Alloc_construct_ptr<std::allocator<std::_Tree_node<std::pair<unsigned short const ,HFONT__ *>,void *> > >::_Allocate
PUBLIC	??1?$_Alloc_construct_ptr@V?$allocator@U?$_Tree_node@U?$pair@$$CBGPAUHFONT__@@@std@@PAX@std@@@std@@@std@@QAE@XZ ; std::_Alloc_construct_ptr<std::allocator<std::_Tree_node<std::pair<unsigned short const ,HFONT__ *>,void *> > >::~_Alloc_construct_ptr<std::allocator<std::_Tree_node<std::pair<unsigned short const ,HFONT__ *>,void *> > >
PUBLIC	??1?$_Tree_temp_node@V?$allocator@U?$_Tree_node@U?$pair@$$CBGPAUHFONT__@@@std@@PAX@std@@@std@@@std@@QAE@XZ ; std::_Tree_temp_node<std::allocator<std::_Tree_node<std::pair<unsigned short const ,HFONT__ *>,void *> > >::~_Tree_temp_node<std::allocator<std::_Tree_node<std::pair<unsigned short const ,HFONT__ *>,void *> > >
PUBLIC	??$?0U?$pair@$$CBGPAUHFONT__@@@std@@@?$_Tree_temp_node@V?$allocator@U?$_Tree_node@U?$pair@$$CBGPAUHFONT__@@@std@@PAX@std@@@std@@@std@@QAE@AAV?$allocator@U?$_Tree_node@U?$pair@$$CBGPAUHFONT__@@@std@@PAX@std@@@1@PAU?$_Tree_node@U?$pair@$$CBGPAUHFONT__@@@std@@PAX@1@$$QAU?$pair@$$CBGPAUHFONT__@@@1@@Z ; std::_Tree_temp_node<std::allocator<std::_Tree_node<std::pair<unsigned short const ,HFONT__ *>,void *> > >::_Tree_temp_node<std::allocator<std::_Tree_node<std::pair<unsigned short const ,HFONT__ *>,void *> > ><std::pair<unsigned short const ,HFONT__ *> >
PUBLIC	??$_Destroy_in_place@PAU?$_Tree_node@U?$pair@$$CBGPAUHFONT__@@@std@@PAX@std@@@std@@YAXAAPAU?$_Tree_node@U?$pair@$$CBGPAUHFONT__@@@std@@PAX@0@@Z ; std::_Destroy_in_place<std::_Tree_node<std::pair<unsigned short const ,HFONT__ *>,void *> *>
PUBLIC	??$construct@U?$pair@$$CBU?$pair@G_W@std@@USCharacterInfomation@CGraphicFontTexture@@@std@@ABUpiecewise_construct_t@2@V?$tuple@ABU?$pair@G_W@std@@@2@V?$tuple@$$V@2@@?$_Default_allocator_traits@V?$allocator@U?$_Tree_node@U?$pair@$$CBU?$pair@G_W@std@@USCharacterInfomation@CGraphicFontTexture@@@std@@PAX@std@@@std@@@std@@SAXAAV?$allocator@U?$_Tree_node@U?$pair@$$CBU?$pair@G_W@std@@USCharacterInfomation@CGraphicFontTexture@@@std@@PAX@std@@@1@QAU?$pair@$$CBU?$pair@G_W@std@@USCharacterInfomation@CGraphicFontTexture@@@1@ABUpiecewise_construct_t@1@$$QAV?$tuple@ABU?$pair@G_W@std@@@1@$$QAV?$tuple@$$V@1@@Z ; std::_Default_allocator_traits<std::allocator<std::_Tree_node<std::pair<std::pair<unsigned short,wchar_t> const ,CGraphicFontTexture::SCharacterInfomation>,void *> > >::construct<std::pair<std::pair<unsigned short,wchar_t> const ,CGraphicFontTexture::SCharacterInfomation>,std::piecewise_construct_t const &,std::tuple<std::pair<unsigned short,wchar_t> const &>,std::tuple<> >
PUBLIC	??$_Construct_in_place@PAU?$_Tree_node@U?$pair@$$CBU?$pair@G_W@std@@USCharacterInfomation@CGraphicFontTexture@@@std@@PAX@std@@AAPAU12@@std@@YAXAAPAU?$_Tree_node@U?$pair@$$CBU?$pair@G_W@std@@USCharacterInfomation@CGraphicFontTexture@@@std@@PAX@0@0@Z ; std::_Construct_in_place<std::_Tree_node<std::pair<std::pair<unsigned short,wchar_t> const ,CGraphicFontTexture::SCharacterInfomation>,void *> *,std::_Tree_node<std::pair<std::pair<unsigned short,wchar_t> const ,CGraphicFontTexture::SCharacterInfomation>,void *> * &>
PUBLIC	??$_Copy_memmove@PAPAVCGraphicImageTexture@@PAPAV1@@std@@YAPAPAVCGraphicImageTexture@@PAPAV1@00@Z ; std::_Copy_memmove<CGraphicImageTexture * *,CGraphicImageTexture * *>
PUBLIC	??$_Construct_in_place@PAU?$_Tree_node@U?$pair@$$CBGPAUHFONT__@@@std@@PAX@std@@AAPAU12@@std@@YAXAAPAU?$_Tree_node@U?$pair@$$CBGPAUHFONT__@@@std@@PAX@0@0@Z ; std::_Construct_in_place<std::_Tree_node<std::pair<unsigned short const ,HFONT__ *>,void *> *,std::_Tree_node<std::pair<unsigned short const ,HFONT__ *>,void *> * &>
PUBLIC	??_7exception@std@@6B@				; std::exception::`vftable'
PUBLIC	??_C@_0BC@EOODALEL@Unknown?5exception@		; `string'
PUBLIC	??_7bad_alloc@std@@6B@				; std::bad_alloc::`vftable'
PUBLIC	??_7bad_array_new_length@std@@6B@		; std::bad_array_new_length::`vftable'
PUBLIC	??_C@_0BF@KINCDENJ@bad?5array?5new?5length@	; `string'
PUBLIC	__TI3?AVbad_array_new_length@std@@
PUBLIC	__CTA3?AVbad_array_new_length@std@@
PUBLIC	??_R0?AVbad_array_new_length@std@@@8		; std::bad_array_new_length `RTTI Type Descriptor'
PUBLIC	__CT??_R0?AVbad_array_new_length@std@@@8??0bad_array_new_length@std@@QAE@ABV01@@Z12
PUBLIC	??_R0?AVbad_alloc@std@@@8			; std::bad_alloc `RTTI Type Descriptor'
PUBLIC	__CT??_R0?AVbad_alloc@std@@@8??0bad_alloc@std@@QAE@ABV01@@Z12
PUBLIC	??_R0?AVexception@std@@@8			; std::exception `RTTI Type Descriptor'
PUBLIC	__CT??_R0?AVexception@std@@@8??0exception@std@@QAE@ABV01@@Z12
PUBLIC	??_C@_0BB@GCADKGJO@map?1set?5too?5long@		; `string'
PUBLIC	??_R4exception@std@@6B@				; std::exception::`RTTI Complete Object Locator'
PUBLIC	??_R3exception@std@@8				; std::exception::`RTTI Class Hierarchy Descriptor'
PUBLIC	??_R2exception@std@@8				; std::exception::`RTTI Base Class Array'
PUBLIC	??_R1A@?0A@EA@exception@std@@8			; std::exception::`RTTI Base Class Descriptor at (0,-1,0,64)'
PUBLIC	??_R4bad_alloc@std@@6B@				; std::bad_alloc::`RTTI Complete Object Locator'
PUBLIC	??_R3bad_alloc@std@@8				; std::bad_alloc::`RTTI Class Hierarchy Descriptor'
PUBLIC	??_R2bad_alloc@std@@8				; std::bad_alloc::`RTTI Base Class Array'
PUBLIC	??_R1A@?0A@EA@bad_alloc@std@@8			; std::bad_alloc::`RTTI Base Class Descriptor at (0,-1,0,64)'
PUBLIC	??_R4bad_array_new_length@std@@6B@		; std::bad_array_new_length::`RTTI Complete Object Locator'
PUBLIC	??_R3bad_array_new_length@std@@8		; std::bad_array_new_length::`RTTI Class Hierarchy Descriptor'
PUBLIC	??_R2bad_array_new_length@std@@8		; std::bad_array_new_length::`RTTI Base Class Array'
PUBLIC	??_R1A@?0A@EA@bad_array_new_length@std@@8	; std::bad_array_new_length::`RTTI Base Class Descriptor at (0,-1,0,64)'
PUBLIC	??_7CGraphicFontTexture@@6B@			; CGraphicFontTexture::`vftable'
PUBLIC	??_C@_0BA@FOIKENOD@vector?5too?5long@		; `string'
PUBLIC	??_R4CGraphicFontTexture@@6B@			; CGraphicFontTexture::`RTTI Complete Object Locator'
PUBLIC	??_R0?AVCGraphicFontTexture@@@8			; CGraphicFontTexture `RTTI Type Descriptor'
PUBLIC	??_R3CGraphicFontTexture@@8			; CGraphicFontTexture::`RTTI Class Hierarchy Descriptor'
PUBLIC	??_R2CGraphicFontTexture@@8			; CGraphicFontTexture::`RTTI Base Class Array'
PUBLIC	??_R1A@?0A@EA@CGraphicFontTexture@@8		; CGraphicFontTexture::`RTTI Base Class Descriptor at (0,-1,0,64)'
PUBLIC	??_R1A@?0A@EA@CGraphicTexture@@8		; CGraphicTexture::`RTTI Base Class Descriptor at (0,-1,0,64)'
PUBLIC	??_R0?AVCGraphicTexture@@@8			; CGraphicTexture `RTTI Type Descriptor'
PUBLIC	??_R3CGraphicTexture@@8				; CGraphicTexture::`RTTI Class Hierarchy Descriptor'
PUBLIC	??_R2CGraphicTexture@@8				; CGraphicTexture::`RTTI Base Class Array'
PUBLIC	??_R1A@?0A@EA@CGraphicBase@@8			; CGraphicBase::`RTTI Base Class Descriptor at (0,-1,0,64)'
PUBLIC	??_R0?AVCGraphicBase@@@8			; CGraphicBase `RTTI Type Descriptor'
PUBLIC	??_R3CGraphicBase@@8				; CGraphicBase::`RTTI Class Hierarchy Descriptor'
PUBLIC	??_R2CGraphicBase@@8				; CGraphicBase::`RTTI Base Class Array'
PUBLIC	__real@00000000
PUBLIC	__real@3f800000
EXTRN	??2@YAPAXI@Z:PROC				; operator new
EXTRN	??3@YAXPAXI@Z:PROC				; operator delete
EXTRN	__invalid_parameter_noinfo_noreturn:PROC
EXTRN	_memmove:PROC
EXTRN	_memset:PROC
EXTRN	_strcpy:PROC
EXTRN	_strncpy:PROC
EXTRN	__imp__CreateFontIndirectA@4:PROC
EXTRN	__imp__DeleteObject@4:PROC
EXTRN	__imp__GetCharABCWidthsFloatW@16:PROC
EXTRN	__imp__GetTextExtentPoint32W@16:PROC
EXTRN	__imp__SelectObject@8:PROC
EXTRN	__imp__SetBkColor@8:PROC
EXTRN	__imp__SetTextColor@8:PROC
EXTRN	__imp__TextOutW@20:PROC
EXTRN	_ceil:PROC
EXTRN	___std_exception_copy:PROC
EXTRN	___std_exception_destroy:PROC
EXTRN	??_Eexception@std@@UAEPAXI@Z:PROC		; std::exception::`vector deleting destructor'
EXTRN	??_Ebad_alloc@std@@UAEPAXI@Z:PROC		; std::bad_alloc::`vector deleting destructor'
EXTRN	??_Ebad_array_new_length@std@@UAEPAXI@Z:PROC	; std::bad_array_new_length::`vector deleting destructor'
EXTRN	?_Xlength_error@std@@YAXPBD@Z:PROC		; std::_Xlength_error
EXTRN	?GetD3DTexture@CGraphicTexture@@QBEPAUIDirect3DTexture8@@XZ:PROC ; CGraphicTexture::GetD3DTexture
EXTRN	??0CGraphicTexture@@IAE@XZ:PROC			; CGraphicTexture::CGraphicTexture
EXTRN	??1CGraphicTexture@@MAE@XZ:PROC			; CGraphicTexture::~CGraphicTexture
EXTRN	?Destroy@CGraphicTexture@@IAEXXZ:PROC		; CGraphicTexture::Destroy
EXTRN	?Initialize@CGraphicTexture@@IAEXXZ:PROC	; CGraphicTexture::Initialize
EXTRN	??0CGraphicImageTexture@@QAE@XZ:PROC		; CGraphicImageTexture::CGraphicImageTexture
EXTRN	?Create@CGraphicImageTexture@@QAE_NIIW4_D3DFORMAT@@K@Z:PROC ; CGraphicImageTexture::Create
EXTRN	?Lock@CGraphicImageTexture@@QAE_NPAHPAPAXH@Z:PROC ; CGraphicImageTexture::Lock
EXTRN	?Unlock@CGraphicImageTexture@@QAEXH@Z:PROC	; CGraphicImageTexture::Unlock
EXTRN	??0CGraphicDib@@QAE@XZ:PROC			; CGraphicDib::CGraphicDib
EXTRN	??1CGraphicDib@@UAE@XZ:PROC			; CGraphicDib::~CGraphicDib
EXTRN	?Destroy@CGraphicDib@@QAEXXZ:PROC		; CGraphicDib::Destroy
EXTRN	?Create@CGraphicDib@@QAE_NPAUHDC__@@HH@Z:PROC	; CGraphicDib::Create
EXTRN	?GetWidth@CGraphicDib@@QAEHXZ:PROC		; CGraphicDib::GetWidth
EXTRN	?GetHeight@CGraphicDib@@QAEHXZ:PROC		; CGraphicDib::GetHeight
EXTRN	?GetPointer@CGraphicDib@@QAEPAXXZ:PROC		; CGraphicDib::GetPointer
EXTRN	?GetDCHandle@CGraphicDib@@QAEPAUHDC__@@XZ:PROC	; CGraphicDib::GetDCHandle
EXTRN	??_ECGraphicFontTexture@@UAEPAXI@Z:PROC		; CGraphicFontTexture::`vector deleting destructor'
EXTRN	?GetCharsetFromCodePage@@YAHG@Z:PROC		; GetCharsetFromCodePage
EXTRN	?GetDefaultCodePage@@YAKXZ:PROC			; GetDefaultCodePage
EXTRN	?GetMaxTextureWidth@@YAKXZ:PROC			; GetMaxTextureWidth
EXTRN	?GetMaxTextureHeight@@YAKXZ:PROC		; GetMaxTextureHeight
EXTRN	@__security_check_cookie@4:PROC
EXTRN	__CxxThrowException@8:PROC
EXTRN	___CxxFrameHandler3:PROC
EXTRN	__ftol2_sse:PROC
EXTRN	??_7type_info@@6B@:QWORD			; type_info::`vftable'
EXTRN	?ms_hDC@CGraphicBase@@1PAUHDC__@@A:DWORD	; CGraphicBase::ms_hDC
EXTRN	___security_cookie:DWORD
EXTRN	__fltused:DWORD
;	COMDAT __real@3f800000
CONST	SEGMENT
__real@3f800000 DD 03f800000r			; 1
CONST	ENDS
;	COMDAT __real@00000000
CONST	SEGMENT
__real@00000000 DD 000000000r			; 0
CONST	ENDS
;	COMDAT ??_R2CGraphicBase@@8
rdata$r	SEGMENT
??_R2CGraphicBase@@8 DD FLAT:??_R1A@?0A@EA@CGraphicBase@@8 ; CGraphicBase::`RTTI Base Class Array'
rdata$r	ENDS
;	COMDAT ??_R3CGraphicBase@@8
rdata$r	SEGMENT
??_R3CGraphicBase@@8 DD 00H				; CGraphicBase::`RTTI Class Hierarchy Descriptor'
	DD	00H
	DD	01H
	DD	FLAT:??_R2CGraphicBase@@8
rdata$r	ENDS
;	COMDAT ??_R0?AVCGraphicBase@@@8
data$rs	SEGMENT
??_R0?AVCGraphicBase@@@8 DD FLAT:??_7type_info@@6B@	; CGraphicBase `RTTI Type Descriptor'
	DD	00H
	DB	'.?AVCGraphicBase@@', 00H
data$rs	ENDS
;	COMDAT ??_R1A@?0A@EA@CGraphicBase@@8
rdata$r	SEGMENT
??_R1A@?0A@EA@CGraphicBase@@8 DD FLAT:??_R0?AVCGraphicBase@@@8 ; CGraphicBase::`RTTI Base Class Descriptor at (0,-1,0,64)'
	DD	00H
	DD	00H
	DD	0ffffffffH
	DD	00H
	DD	040H
	DD	FLAT:??_R3CGraphicBase@@8
rdata$r	ENDS
;	COMDAT ??_R2CGraphicTexture@@8
rdata$r	SEGMENT
??_R2CGraphicTexture@@8 DD FLAT:??_R1A@?0A@EA@CGraphicTexture@@8 ; CGraphicTexture::`RTTI Base Class Array'
	DD	FLAT:??_R1A@?0A@EA@CGraphicBase@@8
rdata$r	ENDS
;	COMDAT ??_R3CGraphicTexture@@8
rdata$r	SEGMENT
??_R3CGraphicTexture@@8 DD 00H				; CGraphicTexture::`RTTI Class Hierarchy Descriptor'
	DD	00H
	DD	02H
	DD	FLAT:??_R2CGraphicTexture@@8
rdata$r	ENDS
;	COMDAT ??_R0?AVCGraphicTexture@@@8
data$rs	SEGMENT
??_R0?AVCGraphicTexture@@@8 DD FLAT:??_7type_info@@6B@	; CGraphicTexture `RTTI Type Descriptor'
	DD	00H
	DB	'.?AVCGraphicTexture@@', 00H
data$rs	ENDS
;	COMDAT ??_R1A@?0A@EA@CGraphicTexture@@8
rdata$r	SEGMENT
??_R1A@?0A@EA@CGraphicTexture@@8 DD FLAT:??_R0?AVCGraphicTexture@@@8 ; CGraphicTexture::`RTTI Base Class Descriptor at (0,-1,0,64)'
	DD	01H
	DD	00H
	DD	0ffffffffH
	DD	00H
	DD	040H
	DD	FLAT:??_R3CGraphicTexture@@8
rdata$r	ENDS
;	COMDAT ??_R1A@?0A@EA@CGraphicFontTexture@@8
rdata$r	SEGMENT
??_R1A@?0A@EA@CGraphicFontTexture@@8 DD FLAT:??_R0?AVCGraphicFontTexture@@@8 ; CGraphicFontTexture::`RTTI Base Class Descriptor at (0,-1,0,64)'
	DD	02H
	DD	00H
	DD	0ffffffffH
	DD	00H
	DD	040H
	DD	FLAT:??_R3CGraphicFontTexture@@8
rdata$r	ENDS
;	COMDAT ??_R2CGraphicFontTexture@@8
rdata$r	SEGMENT
??_R2CGraphicFontTexture@@8 DD FLAT:??_R1A@?0A@EA@CGraphicFontTexture@@8 ; CGraphicFontTexture::`RTTI Base Class Array'
	DD	FLAT:??_R1A@?0A@EA@CGraphicTexture@@8
	DD	FLAT:??_R1A@?0A@EA@CGraphicBase@@8
rdata$r	ENDS
;	COMDAT ??_R3CGraphicFontTexture@@8
rdata$r	SEGMENT
??_R3CGraphicFontTexture@@8 DD 00H			; CGraphicFontTexture::`RTTI Class Hierarchy Descriptor'
	DD	00H
	DD	03H
	DD	FLAT:??_R2CGraphicFontTexture@@8
rdata$r	ENDS
;	COMDAT ??_R0?AVCGraphicFontTexture@@@8
data$rs	SEGMENT
??_R0?AVCGraphicFontTexture@@@8 DD FLAT:??_7type_info@@6B@ ; CGraphicFontTexture `RTTI Type Descriptor'
	DD	00H
	DB	'.?AVCGraphicFontTexture@@', 00H
data$rs	ENDS
;	COMDAT ??_R4CGraphicFontTexture@@6B@
rdata$r	SEGMENT
??_R4CGraphicFontTexture@@6B@ DD 00H			; CGraphicFontTexture::`RTTI Complete Object Locator'
	DD	00H
	DD	00H
	DD	FLAT:??_R0?AVCGraphicFontTexture@@@8
	DD	FLAT:??_R3CGraphicFontTexture@@8
rdata$r	ENDS
;	COMDAT ??_C@_0BA@FOIKENOD@vector?5too?5long@
CONST	SEGMENT
??_C@_0BA@FOIKENOD@vector?5too?5long@ DB 'vector too long', 00H ; `string'
CONST	ENDS
;	COMDAT ??_7CGraphicFontTexture@@6B@
CONST	SEGMENT
??_7CGraphicFontTexture@@6B@ DD FLAT:??_R4CGraphicFontTexture@@6B@ ; CGraphicFontTexture::`vftable'
	DD	FLAT:??_ECGraphicFontTexture@@UAEPAXI@Z
	DD	FLAT:?IsEmpty@CGraphicFontTexture@@UBE_NXZ
CONST	ENDS
;	COMDAT ??_R1A@?0A@EA@bad_array_new_length@std@@8
rdata$r	SEGMENT
??_R1A@?0A@EA@bad_array_new_length@std@@8 DD FLAT:??_R0?AVbad_array_new_length@std@@@8 ; std::bad_array_new_length::`RTTI Base Class Descriptor at (0,-1,0,64)'
	DD	02H
	DD	00H
	DD	0ffffffffH
	DD	00H
	DD	040H
	DD	FLAT:??_R3bad_array_new_length@std@@8
rdata$r	ENDS
;	COMDAT ??_R2bad_array_new_length@std@@8
rdata$r	SEGMENT
??_R2bad_array_new_length@std@@8 DD FLAT:??_R1A@?0A@EA@bad_array_new_length@std@@8 ; std::bad_array_new_length::`RTTI Base Class Array'
	DD	FLAT:??_R1A@?0A@EA@bad_alloc@std@@8
	DD	FLAT:??_R1A@?0A@EA@exception@std@@8
rdata$r	ENDS
;	COMDAT ??_R3bad_array_new_length@std@@8
rdata$r	SEGMENT
??_R3bad_array_new_length@std@@8 DD 00H			; std::bad_array_new_length::`RTTI Class Hierarchy Descriptor'
	DD	00H
	DD	03H
	DD	FLAT:??_R2bad_array_new_length@std@@8
rdata$r	ENDS
;	COMDAT ??_R4bad_array_new_length@std@@6B@
rdata$r	SEGMENT
??_R4bad_array_new_length@std@@6B@ DD 00H		; std::bad_array_new_length::`RTTI Complete Object Locator'
	DD	00H
	DD	00H
	DD	FLAT:??_R0?AVbad_array_new_length@std@@@8
	DD	FLAT:??_R3bad_array_new_length@std@@8
rdata$r	ENDS
;	COMDAT ??_R1A@?0A@EA@bad_alloc@std@@8
rdata$r	SEGMENT
??_R1A@?0A@EA@bad_alloc@std@@8 DD FLAT:??_R0?AVbad_alloc@std@@@8 ; std::bad_alloc::`RTTI Base Class Descriptor at (0,-1,0,64)'
	DD	01H
	DD	00H
	DD	0ffffffffH
	DD	00H
	DD	040H
	DD	FLAT:??_R3bad_alloc@std@@8
rdata$r	ENDS
;	COMDAT ??_R2bad_alloc@std@@8
rdata$r	SEGMENT
??_R2bad_alloc@std@@8 DD FLAT:??_R1A@?0A@EA@bad_alloc@std@@8 ; std::bad_alloc::`RTTI Base Class Array'
	DD	FLAT:??_R1A@?0A@EA@exception@std@@8
rdata$r	ENDS
;	COMDAT ??_R3bad_alloc@std@@8
rdata$r	SEGMENT
??_R3bad_alloc@std@@8 DD 00H				; std::bad_alloc::`RTTI Class Hierarchy Descriptor'
	DD	00H
	DD	02H
	DD	FLAT:??_R2bad_alloc@std@@8
rdata$r	ENDS
;	COMDAT ??_R4bad_alloc@std@@6B@
rdata$r	SEGMENT
??_R4bad_alloc@std@@6B@ DD 00H				; std::bad_alloc::`RTTI Complete Object Locator'
	DD	00H
	DD	00H
	DD	FLAT:??_R0?AVbad_alloc@std@@@8
	DD	FLAT:??_R3bad_alloc@std@@8
rdata$r	ENDS
;	COMDAT ??_R1A@?0A@EA@exception@std@@8
rdata$r	SEGMENT
??_R1A@?0A@EA@exception@std@@8 DD FLAT:??_R0?AVexception@std@@@8 ; std::exception::`RTTI Base Class Descriptor at (0,-1,0,64)'
	DD	00H
	DD	00H
	DD	0ffffffffH
	DD	00H
	DD	040H
	DD	FLAT:??_R3exception@std@@8
rdata$r	ENDS
;	COMDAT ??_R2exception@std@@8
rdata$r	SEGMENT
??_R2exception@std@@8 DD FLAT:??_R1A@?0A@EA@exception@std@@8 ; std::exception::`RTTI Base Class Array'
rdata$r	ENDS
;	COMDAT ??_R3exception@std@@8
rdata$r	SEGMENT
??_R3exception@std@@8 DD 00H				; std::exception::`RTTI Class Hierarchy Descriptor'
	DD	00H
	DD	01H
	DD	FLAT:??_R2exception@std@@8
rdata$r	ENDS
;	COMDAT ??_R4exception@std@@6B@
rdata$r	SEGMENT
??_R4exception@std@@6B@ DD 00H				; std::exception::`RTTI Complete Object Locator'
	DD	00H
	DD	00H
	DD	FLAT:??_R0?AVexception@std@@@8
	DD	FLAT:??_R3exception@std@@8
rdata$r	ENDS
;	COMDAT ??_C@_0BB@GCADKGJO@map?1set?5too?5long@
CONST	SEGMENT
??_C@_0BB@GCADKGJO@map?1set?5too?5long@ DB 'map/set too long', 00H ; `string'
CONST	ENDS
;	COMDAT __CT??_R0?AVexception@std@@@8??0exception@std@@QAE@ABV01@@Z12
xdata$x	SEGMENT
__CT??_R0?AVexception@std@@@8??0exception@std@@QAE@ABV01@@Z12 DD 00H
	DD	FLAT:??_R0?AVexception@std@@@8
	DD	00H
	DD	0ffffffffH
	ORG $+4
	DD	0cH
	DD	FLAT:??0exception@std@@QAE@ABV01@@Z
xdata$x	ENDS
;	COMDAT ??_R0?AVexception@std@@@8
data$r	SEGMENT
??_R0?AVexception@std@@@8 DD FLAT:??_7type_info@@6B@	; std::exception `RTTI Type Descriptor'
	DD	00H
	DB	'.?AVexception@std@@', 00H
data$r	ENDS
;	COMDAT __CT??_R0?AVbad_alloc@std@@@8??0bad_alloc@std@@QAE@ABV01@@Z12
xdata$x	SEGMENT
__CT??_R0?AVbad_alloc@std@@@8??0bad_alloc@std@@QAE@ABV01@@Z12 DD 010H
	DD	FLAT:??_R0?AVbad_alloc@std@@@8
	DD	00H
	DD	0ffffffffH
	ORG $+4
	DD	0cH
	DD	FLAT:??0bad_alloc@std@@QAE@ABV01@@Z
xdata$x	ENDS
;	COMDAT ??_R0?AVbad_alloc@std@@@8
data$r	SEGMENT
??_R0?AVbad_alloc@std@@@8 DD FLAT:??_7type_info@@6B@	; std::bad_alloc `RTTI Type Descriptor'
	DD	00H
	DB	'.?AVbad_alloc@std@@', 00H
data$r	ENDS
;	COMDAT __CT??_R0?AVbad_array_new_length@std@@@8??0bad_array_new_length@std@@QAE@ABV01@@Z12
xdata$x	SEGMENT
__CT??_R0?AVbad_array_new_length@std@@@8??0bad_array_new_length@std@@QAE@ABV01@@Z12 DD 00H
	DD	FLAT:??_R0?AVbad_array_new_length@std@@@8
	DD	00H
	DD	0ffffffffH
	ORG $+4
	DD	0cH
	DD	FLAT:??0bad_array_new_length@std@@QAE@ABV01@@Z
xdata$x	ENDS
;	COMDAT ??_R0?AVbad_array_new_length@std@@@8
data$r	SEGMENT
??_R0?AVbad_array_new_length@std@@@8 DD FLAT:??_7type_info@@6B@ ; std::bad_array_new_length `RTTI Type Descriptor'
	DD	00H
	DB	'.?AVbad_array_new_length@std@@', 00H
data$r	ENDS
;	COMDAT __CTA3?AVbad_array_new_length@std@@
xdata$x	SEGMENT
__CTA3?AVbad_array_new_length@std@@ DD 03H
	DD	FLAT:__CT??_R0?AVbad_array_new_length@std@@@8??0bad_array_new_length@std@@QAE@ABV01@@Z12
	DD	FLAT:__CT??_R0?AVbad_alloc@std@@@8??0bad_alloc@std@@QAE@ABV01@@Z12
	DD	FLAT:__CT??_R0?AVexception@std@@@8??0exception@std@@QAE@ABV01@@Z12
xdata$x	ENDS
;	COMDAT __TI3?AVbad_array_new_length@std@@
xdata$x	SEGMENT
__TI3?AVbad_array_new_length@std@@ DD 00H
	DD	FLAT:??1bad_array_new_length@std@@UAE@XZ
	DD	00H
	DD	FLAT:__CTA3?AVbad_array_new_length@std@@
xdata$x	ENDS
;	COMDAT ??_C@_0BF@KINCDENJ@bad?5array?5new?5length@
CONST	SEGMENT
??_C@_0BF@KINCDENJ@bad?5array?5new?5length@ DB 'bad array new length', 00H ; `string'
CONST	ENDS
;	COMDAT ??_7bad_array_new_length@std@@6B@
CONST	SEGMENT
??_7bad_array_new_length@std@@6B@ DD FLAT:??_R4bad_array_new_length@std@@6B@ ; std::bad_array_new_length::`vftable'
	DD	FLAT:??_Ebad_array_new_length@std@@UAEPAXI@Z
	DD	FLAT:?what@exception@std@@UBEPBDXZ
CONST	ENDS
;	COMDAT ??_7bad_alloc@std@@6B@
CONST	SEGMENT
??_7bad_alloc@std@@6B@ DD FLAT:??_R4bad_alloc@std@@6B@	; std::bad_alloc::`vftable'
	DD	FLAT:??_Ebad_alloc@std@@UAEPAXI@Z
	DD	FLAT:?what@exception@std@@UBEPBDXZ
CONST	ENDS
;	COMDAT ??_C@_0BC@EOODALEL@Unknown?5exception@
CONST	SEGMENT
??_C@_0BC@EOODALEL@Unknown?5exception@ DB 'Unknown exception', 00H ; `string'
CONST	ENDS
;	COMDAT ??_7exception@std@@6B@
CONST	SEGMENT
??_7exception@std@@6B@ DD FLAT:??_R4exception@std@@6B@	; std::exception::`vftable'
	DD	FLAT:??_Eexception@std@@UAEPAXI@Z
	DD	FLAT:?what@exception@std@@UBEPBDXZ
CONST	ENDS
;	COMDAT xdata$x
xdata$x	SEGMENT
__unwindtable$??$?0U?$pair@$$CBGPAUHFONT__@@@std@@@?$_Tree_temp_node@V?$allocator@U?$_Tree_node@U?$pair@$$CBGPAUHFONT__@@@std@@PAX@std@@@std@@@std@@QAE@AAV?$allocator@U?$_Tree_node@U?$pair@$$CBGPAUHFONT__@@@std@@PAX@std@@@1@PAU?$_Tree_node@U?$pair@$$CBGPAUHFONT__@@@std@@PAX@1@$$QAU?$pair@$$CBGPAUHFONT__@@@1@@Z DD 0ffffffffH
	DD	FLAT:__unwindfunclet$??$?0U?$pair@$$CBGPAUHFONT__@@@std@@@?$_Tree_temp_node@V?$allocator@U?$_Tree_node@U?$pair@$$CBGPAUHFONT__@@@std@@PAX@std@@@std@@@std@@QAE@AAV?$allocator@U?$_Tree_node@U?$pair@$$CBGPAUHFONT__@@@std@@PAX@std@@@1@PAU?$_Tree_node@U?$pair@$$CBGPAUHFONT__@@@std@@PAX@1@$$QAU?$pair@$$CBGPAUHFONT__@@@1@@Z$1
__ehfuncinfo$??$?0U?$pair@$$CBGPAUHFONT__@@@std@@@?$_Tree_temp_node@V?$allocator@U?$_Tree_node@U?$pair@$$CBGPAUHFONT__@@@std@@PAX@std@@@std@@@std@@QAE@AAV?$allocator@U?$_Tree_node@U?$pair@$$CBGPAUHFONT__@@@std@@PAX@std@@@1@PAU?$_Tree_node@U?$pair@$$CBGPAUHFONT__@@@std@@PAX@1@$$QAU?$pair@$$CBGPAUHFONT__@@@1@@Z DD 019930522H
	DD	01H
	DD	FLAT:__unwindtable$??$?0U?$pair@$$CBGPAUHFONT__@@@std@@@?$_Tree_temp_node@V?$allocator@U?$_Tree_node@U?$pair@$$CBGPAUHFONT__@@@std@@PAX@std@@@std@@@std@@QAE@AAV?$allocator@U?$_Tree_node@U?$pair@$$CBGPAUHFONT__@@@std@@PAX@std@@@1@PAU?$_Tree_node@U?$pair@$$CBGPAUHFONT__@@@std@@PAX@1@$$QAU?$pair@$$CBGPAUHFONT__@@@1@@Z
	DD	2 DUP(00H)
	DD	2 DUP(00H)
	DD	00H
	DD	01H
xdata$x	ENDS
;	COMDAT xdata$x
xdata$x	SEGMENT
__unwindtable$??$?0ABUpiecewise_construct_t@std@@V?$tuple@ABU?$pair@G_W@std@@@1@V?$tuple@$$V@1@@?$_Tree_temp_node@V?$allocator@U?$_Tree_node@U?$pair@$$CBU?$pair@G_W@std@@USCharacterInfomation@CGraphicFontTexture@@@std@@PAX@std@@@std@@@std@@QAE@AAV?$allocator@U?$_Tree_node@U?$pair@$$CBU?$pair@G_W@std@@USCharacterInfomation@CGraphicFontTexture@@@std@@PAX@std@@@1@PAU?$_Tree_node@U?$pair@$$CBU?$pair@G_W@std@@USCharacterInfomation@CGraphicFontTexture@@@std@@PAX@1@ABUpiecewise_construct_t@1@$$QAV?$tuple@ABU?$pair@G_W@std@@@1@$$QAV?$tuple@$$V@1@@Z DD 0ffffffffH
	DD	FLAT:__unwindfunclet$??$?0ABUpiecewise_construct_t@std@@V?$tuple@ABU?$pair@G_W@std@@@1@V?$tuple@$$V@1@@?$_Tree_temp_node@V?$allocator@U?$_Tree_node@U?$pair@$$CBU?$pair@G_W@std@@USCharacterInfomation@CGraphicFontTexture@@@std@@PAX@std@@@std@@@std@@QAE@AAV?$allocator@U?$_Tree_node@U?$pair@$$CBU?$pair@G_W@std@@USCharacterInfomation@CGraphicFontTexture@@@std@@PAX@std@@@1@PAU?$_Tree_node@U?$pair@$$CBU?$pair@G_W@std@@USCharacterInfomation@CGraphicFontTexture@@@std@@PAX@1@ABUpiecewise_construct_t@1@$$QAV?$tuple@ABU?$pair@G_W@std@@@1@$$QAV?$tuple@$$V@1@@Z$1
	DD	0ffffffffH
	DD	FLAT:__unwindfunclet$??$?0ABUpiecewise_construct_t@std@@V?$tuple@ABU?$pair@G_W@std@@@1@V?$tuple@$$V@1@@?$_Tree_temp_node@V?$allocator@U?$_Tree_node@U?$pair@$$CBU?$pair@G_W@std@@USCharacterInfomation@CGraphicFontTexture@@@std@@PAX@std@@@std@@@std@@QAE@AAV?$allocator@U?$_Tree_node@U?$pair@$$CBU?$pair@G_W@std@@USCharacterInfomation@CGraphicFontTexture@@@std@@PAX@std@@@1@PAU?$_Tree_node@U?$pair@$$CBU?$pair@G_W@std@@USCharacterInfomation@CGraphicFontTexture@@@std@@PAX@1@ABUpiecewise_construct_t@1@$$QAV?$tuple@ABU?$pair@G_W@std@@@1@$$QAV?$tuple@$$V@1@@Z$0
__ehfuncinfo$??$?0ABUpiecewise_construct_t@std@@V?$tuple@ABU?$pair@G_W@std@@@1@V?$tuple@$$V@1@@?$_Tree_temp_node@V?$allocator@U?$_Tree_node@U?$pair@$$CBU?$pair@G_W@std@@USCharacterInfomation@CGraphicFontTexture@@@std@@PAX@std@@@std@@@std@@QAE@AAV?$allocator@U?$_Tree_node@U?$pair@$$CBU?$pair@G_W@std@@USCharacterInfomation@CGraphicFontTexture@@@std@@PAX@std@@@1@PAU?$_Tree_node@U?$pair@$$CBU?$pair@G_W@std@@USCharacterInfomation@CGraphicFontTexture@@@std@@PAX@1@ABUpiecewise_construct_t@1@$$QAV?$tuple@ABU?$pair@G_W@std@@@1@$$QAV?$tuple@$$V@1@@Z DD 019930522H
	DD	02H
	DD	FLAT:__unwindtable$??$?0ABUpiecewise_construct_t@std@@V?$tuple@ABU?$pair@G_W@std@@@1@V?$tuple@$$V@1@@?$_Tree_temp_node@V?$allocator@U?$_Tree_node@U?$pair@$$CBU?$pair@G_W@std@@USCharacterInfomation@CGraphicFontTexture@@@std@@PAX@std@@@std@@@std@@QAE@AAV?$allocator@U?$_Tree_node@U?$pair@$$CBU?$pair@G_W@std@@USCharacterInfomation@CGraphicFontTexture@@@std@@PAX@std@@@1@PAU?$_Tree_node@U?$pair@$$CBU?$pair@G_W@std@@USCharacterInfomation@CGraphicFontTexture@@@std@@PAX@1@ABUpiecewise_construct_t@1@$$QAV?$tuple@ABU?$pair@G_W@std@@@1@$$QAV?$tuple@$$V@1@@Z
	DD	2 DUP(00H)
	DD	2 DUP(00H)
	DD	00H
	DD	01H
xdata$x	ENDS
;	COMDAT xdata$x
xdata$x	SEGMENT
__catchsym$??$_Emplace_reallocate@ABQAVCGraphicImageTexture@@@?$vector@PAVCGraphicImageTexture@@V?$allocator@PAVCGraphicImageTexture@@@std@@@std@@QAEPAPAVCGraphicImageTexture@@QAPAV2@ABQAV2@@Z$32 DD 040H
	DD	00H
	DD	00H
	DD	FLAT:__catch$??$_Emplace_reallocate@ABQAVCGraphicImageTexture@@@?$vector@PAVCGraphicImageTexture@@V?$allocator@PAVCGraphicImageTexture@@@std@@@std@@QAEPAPAVCGraphicImageTexture@@QAPAV2@ABQAV2@@Z$0
__unwindtable$??$_Emplace_reallocate@ABQAVCGraphicImageTexture@@@?$vector@PAVCGraphicImageTexture@@V?$allocator@PAVCGraphicImageTexture@@@std@@@std@@QAEPAPAVCGraphicImageTexture@@QAPAV2@ABQAV2@@Z DD 0ffffffffH
	DD	00H
	DD	0ffffffffH
	DD	00H
__tryblocktable$??$_Emplace_reallocate@ABQAVCGraphicImageTexture@@@?$vector@PAVCGraphicImageTexture@@V?$allocator@PAVCGraphicImageTexture@@@std@@@std@@QAEPAPAVCGraphicImageTexture@@QAPAV2@ABQAV2@@Z DD 00H
	DD	00H
	DD	01H
	DD	01H
	DD	FLAT:__catchsym$??$_Emplace_reallocate@ABQAVCGraphicImageTexture@@@?$vector@PAVCGraphicImageTexture@@V?$allocator@PAVCGraphicImageTexture@@@std@@@std@@QAEPAPAVCGraphicImageTexture@@QAPAV2@ABQAV2@@Z$32
__ehfuncinfo$??$_Emplace_reallocate@ABQAVCGraphicImageTexture@@@?$vector@PAVCGraphicImageTexture@@V?$allocator@PAVCGraphicImageTexture@@@std@@@std@@QAEPAPAVCGraphicImageTexture@@QAPAV2@ABQAV2@@Z DD 019930522H
	DD	02H
	DD	FLAT:__unwindtable$??$_Emplace_reallocate@ABQAVCGraphicImageTexture@@@?$vector@PAVCGraphicImageTexture@@V?$allocator@PAVCGraphicImageTexture@@@std@@@std@@QAEPAPAVCGraphicImageTexture@@QAPAV2@ABQAV2@@Z
	DD	01H
	DD	FLAT:__tryblocktable$??$_Emplace_reallocate@ABQAVCGraphicImageTexture@@@?$vector@PAVCGraphicImageTexture@@V?$allocator@PAVCGraphicImageTexture@@@std@@@std@@QAEPAPAVCGraphicImageTexture@@QAPAV2@ABQAV2@@Z
	DD	2 DUP(00H)
	DD	00H
	DD	01H
xdata$x	ENDS
;	COMDAT xdata$x
xdata$x	SEGMENT
__unwindtable$?AppendTexture@CGraphicFontTexture@@IAE_NXZ DD 0ffffffffH
	DD	FLAT:__unwindfunclet$?AppendTexture@CGraphicFontTexture@@IAE_NXZ$0
__ehfuncinfo$?AppendTexture@CGraphicFontTexture@@IAE_NXZ DD 019930522H
	DD	01H
	DD	FLAT:__unwindtable$?AppendTexture@CGraphicFontTexture@@IAE_NXZ
	DD	2 DUP(00H)
	DD	2 DUP(00H)
	DD	00H
	DD	01H
xdata$x	ENDS
;	COMDAT xdata$x
xdata$x	SEGMENT
__ehfuncinfo$??1CGraphicFontTexture@@UAE@XZ DD 019930522H
	DD	00H
	DD	00H
	DD	2 DUP(00H)
	DD	2 DUP(00H)
	DD	00H
	DD	05H
xdata$x	ENDS
;	COMDAT xdata$x
xdata$x	SEGMENT
__ehfuncinfo$??0CGraphicFontTexture@@QAE@XZ DD 019930522H
	DD	05H
	DD	FLAT:__unwindtable$??0CGraphicFontTexture@@QAE@XZ
	DD	2 DUP(00H)
	DD	2 DUP(00H)
	DD	00H
	DD	01H
__unwindtable$??0CGraphicFontTexture@@QAE@XZ DD 0ffffffffH
	DD	FLAT:__unwindfunclet$??0CGraphicFontTexture@@QAE@XZ$0
	DD	00H
	DD	FLAT:__unwindfunclet$??0CGraphicFontTexture@@QAE@XZ$1
	DD	01H
	DD	FLAT:__unwindfunclet$??0CGraphicFontTexture@@QAE@XZ$2
	DD	02H
	DD	FLAT:__unwindfunclet$??0CGraphicFontTexture@@QAE@XZ$3
	DD	03H
	DD	FLAT:__unwindfunclet$??0CGraphicFontTexture@@QAE@XZ$4
xdata$x	ENDS
;	COMDAT xdata$x
xdata$x	SEGMENT
__ehfuncinfo$??$_Deallocate@$07$0A@@std@@YAXPAXI@Z DD 019930522H
	DD	00H
	DD	00H
	DD	2 DUP(00H)
	DD	2 DUP(00H)
	DD	00H
	DD	05H
xdata$x	ENDS
; Function compile flags: /Odspy
; File C:\Program Files (x86)\Microsoft Visual Studio\2019\Community\VC\Tools\MSVC\14.28.29333\include\xmemory
; File C:\Program Files (x86)\Microsoft Visual Studio\2019\Community\VC\Tools\MSVC\14.28.29333\include\xstddef
; File C:\Program Files (x86)\Microsoft Visual Studio\2019\Community\VC\Tools\MSVC\14.28.29333\include\vcruntime_new.h
; File C:\Program Files (x86)\Microsoft Visual Studio\2019\Community\VC\Tools\MSVC\14.28.29333\include\type_traits
; File C:\Program Files (x86)\Microsoft Visual Studio\2019\Community\VC\Tools\MSVC\14.28.29333\include\xmemory
;	COMDAT ??$_Construct_in_place@PAU?$_Tree_node@U?$pair@$$CBGPAUHFONT__@@@std@@PAX@std@@AAPAU12@@std@@YAXAAPAU?$_Tree_node@U?$pair@$$CBGPAUHFONT__@@@std@@PAX@0@0@Z
_TEXT	SEGMENT
$T1 = -12						; size = 4
$T2 = -8						; size = 4
$T3 = -4						; size = 4
__Obj$ = 8						; size = 4
_<_Args_0>$ = 12					; size = 4
??$_Construct_in_place@PAU?$_Tree_node@U?$pair@$$CBGPAUHFONT__@@@std@@PAX@std@@AAPAU12@@std@@YAXAAPAU?$_Tree_node@U?$pair@$$CBGPAUHFONT__@@@std@@PAX@0@0@Z PROC ; std::_Construct_in_place<std::_Tree_node<std::pair<unsigned short const ,HFONT__ *>,void *> *,std::_Tree_node<std::pair<unsigned short const ,HFONT__ *>,void *> * &>, COMDAT

; 228  : void _Construct_in_place(_Ty& _Obj, _Types&&... _Args) noexcept(is_nothrow_constructible_v<_Ty, _Types...>) {

  00000	55		 push	 ebp
  00001	8b ec		 mov	 ebp, esp
  00003	83 ec 0c	 sub	 esp, 12			; 0000000cH
; File C:\Program Files (x86)\Microsoft Visual Studio\2019\Community\VC\Tools\MSVC\14.28.29333\include\xstddef

; 275  :     return __builtin_addressof(_Val);

  00006	8b 45 08	 mov	 eax, DWORD PTR __Obj$[ebp]
  00009	89 45 fc	 mov	 DWORD PTR $T3[ebp], eax
; File C:\Program Files (x86)\Microsoft Visual Studio\2019\Community\VC\Tools\MSVC\14.28.29333\include\vcruntime_new.h

; 169  :         return _Where;

  0000c	8b 45 fc	 mov	 eax, DWORD PTR $T3[ebp]
  0000f	89 45 f8	 mov	 DWORD PTR $T2[ebp], eax
; File C:\Program Files (x86)\Microsoft Visual Studio\2019\Community\VC\Tools\MSVC\14.28.29333\include\type_traits

; 1443 :     return static_cast<_Ty&&>(_Arg);

  00012	8b 45 0c	 mov	 eax, DWORD PTR _<_Args_0>$[ebp]
  00015	89 45 f4	 mov	 DWORD PTR $T1[ebp], eax
; File C:\Program Files (x86)\Microsoft Visual Studio\2019\Community\VC\Tools\MSVC\14.28.29333\include\xmemory

; 229  :     ::new (const_cast<void*>(static_cast<const volatile void*>(_STD addressof(_Obj))))

  00018	8b 45 f8	 mov	 eax, DWORD PTR $T2[ebp]
  0001b	8b 4d f4	 mov	 ecx, DWORD PTR $T1[ebp]
  0001e	8b 09		 mov	 ecx, DWORD PTR [ecx]
  00020	89 08		 mov	 DWORD PTR [eax], ecx

; 230  :         _Ty(_STD forward<_Types>(_Args)...);
; 231  : }

  00022	c9		 leave
  00023	c3		 ret	 0
??$_Construct_in_place@PAU?$_Tree_node@U?$pair@$$CBGPAUHFONT__@@@std@@PAX@std@@AAPAU12@@std@@YAXAAPAU?$_Tree_node@U?$pair@$$CBGPAUHFONT__@@@std@@PAX@0@0@Z ENDP ; std::_Construct_in_place<std::_Tree_node<std::pair<unsigned short const ,HFONT__ *>,void *> *,std::_Tree_node<std::pair<unsigned short const ,HFONT__ *>,void *> * &>
_TEXT	ENDS
; Function compile flags: /Odspy
; File C:\Program Files (x86)\Microsoft Visual Studio\2019\Community\VC\Tools\MSVC\14.28.29333\include\xutility
;	COMDAT ??$_Copy_memmove@PAPAVCGraphicImageTexture@@PAPAV1@@std@@YAPAPAVCGraphicImageTexture@@PAPAV1@00@Z
_TEXT	SEGMENT
__Last_ch$ = -16					; size = 4
__Count$ = -12						; size = 4
__Dest_ch$ = -8						; size = 4
__First_ch$ = -4					; size = 4
__First$ = 8						; size = 4
__Last$ = 12						; size = 4
__Dest$ = 16						; size = 4
??$_Copy_memmove@PAPAVCGraphicImageTexture@@PAPAV1@@std@@YAPAPAVCGraphicImageTexture@@PAPAV1@00@Z PROC ; std::_Copy_memmove<CGraphicImageTexture * *,CGraphicImageTexture * *>, COMDAT

; 4360 : _OutIt _Copy_memmove(_InIt _First, _InIt _Last, _OutIt _Dest) {

  00000	55		 push	 ebp
  00001	8b ec		 mov	 ebp, esp
  00003	83 ec 10	 sub	 esp, 16			; 00000010H

; 4361 :     const char* const _First_ch = const_cast<const char*>(reinterpret_cast<const volatile char*>(_First));

  00006	8b 45 08	 mov	 eax, DWORD PTR __First$[ebp]
  00009	89 45 fc	 mov	 DWORD PTR __First_ch$[ebp], eax

; 4362 :     const char* const _Last_ch  = const_cast<const char*>(reinterpret_cast<const volatile char*>(_Last));

  0000c	8b 45 0c	 mov	 eax, DWORD PTR __Last$[ebp]
  0000f	89 45 f0	 mov	 DWORD PTR __Last_ch$[ebp], eax

; 4363 :     char* const _Dest_ch        = const_cast<char*>(reinterpret_cast<volatile char*>(_Dest));

  00012	8b 45 10	 mov	 eax, DWORD PTR __Dest$[ebp]
  00015	89 45 f8	 mov	 DWORD PTR __Dest_ch$[ebp], eax

; 4364 :     const auto _Count           = static_cast<size_t>(_Last_ch - _First_ch);

  00018	8b 45 f0	 mov	 eax, DWORD PTR __Last_ch$[ebp]
  0001b	2b 45 fc	 sub	 eax, DWORD PTR __First_ch$[ebp]
  0001e	89 45 f4	 mov	 DWORD PTR __Count$[ebp], eax

; 4365 :     _CSTD memmove(_Dest_ch, _First_ch, _Count);

  00021	ff 75 f4	 push	 DWORD PTR __Count$[ebp]
  00024	ff 75 fc	 push	 DWORD PTR __First_ch$[ebp]
  00027	ff 75 f8	 push	 DWORD PTR __Dest_ch$[ebp]
  0002a	e8 00 00 00 00	 call	 _memmove
  0002f	83 c4 0c	 add	 esp, 12			; 0000000cH

; 4366 :     return reinterpret_cast<_OutIt>(_Dest_ch + _Count);

  00032	8b 45 f8	 mov	 eax, DWORD PTR __Dest_ch$[ebp]
  00035	03 45 f4	 add	 eax, DWORD PTR __Count$[ebp]

; 4367 : }

  00038	c9		 leave
  00039	c3		 ret	 0
??$_Copy_memmove@PAPAVCGraphicImageTexture@@PAPAV1@@std@@YAPAPAVCGraphicImageTexture@@PAPAV1@00@Z ENDP ; std::_Copy_memmove<CGraphicImageTexture * *,CGraphicImageTexture * *>
_TEXT	ENDS
; Function compile flags: /Odspy
; File C:\Program Files (x86)\Microsoft Visual Studio\2019\Community\VC\Tools\MSVC\14.28.29333\include\xmemory
; File C:\Program Files (x86)\Microsoft Visual Studio\2019\Community\VC\Tools\MSVC\14.28.29333\include\xstddef
; File C:\Program Files (x86)\Microsoft Visual Studio\2019\Community\VC\Tools\MSVC\14.28.29333\include\vcruntime_new.h
; File C:\Program Files (x86)\Microsoft Visual Studio\2019\Community\VC\Tools\MSVC\14.28.29333\include\type_traits
; File C:\Program Files (x86)\Microsoft Visual Studio\2019\Community\VC\Tools\MSVC\14.28.29333\include\xmemory
;	COMDAT ??$_Construct_in_place@PAU?$_Tree_node@U?$pair@$$CBU?$pair@G_W@std@@USCharacterInfomation@CGraphicFontTexture@@@std@@PAX@std@@AAPAU12@@std@@YAXAAPAU?$_Tree_node@U?$pair@$$CBU?$pair@G_W@std@@USCharacterInfomation@CGraphicFontTexture@@@std@@PAX@0@0@Z
_TEXT	SEGMENT
$T1 = -12						; size = 4
$T2 = -8						; size = 4
$T3 = -4						; size = 4
__Obj$ = 8						; size = 4
_<_Args_0>$ = 12					; size = 4
??$_Construct_in_place@PAU?$_Tree_node@U?$pair@$$CBU?$pair@G_W@std@@USCharacterInfomation@CGraphicFontTexture@@@std@@PAX@std@@AAPAU12@@std@@YAXAAPAU?$_Tree_node@U?$pair@$$CBU?$pair@G_W@std@@USCharacterInfomation@CGraphicFontTexture@@@std@@PAX@0@0@Z PROC ; std::_Construct_in_place<std::_Tree_node<std::pair<std::pair<unsigned short,wchar_t> const ,CGraphicFontTexture::SCharacterInfomation>,void *> *,std::_Tree_node<std::pair<std::pair<unsigned short,wchar_t> const ,CGraphicFontTexture::SCharacterInfomation>,void *> * &>, COMDAT

; 228  : void _Construct_in_place(_Ty& _Obj, _Types&&... _Args) noexcept(is_nothrow_constructible_v<_Ty, _Types...>) {

  00000	55		 push	 ebp
  00001	8b ec		 mov	 ebp, esp
  00003	83 ec 0c	 sub	 esp, 12			; 0000000cH
; File C:\Program Files (x86)\Microsoft Visual Studio\2019\Community\VC\Tools\MSVC\14.28.29333\include\xstddef

; 275  :     return __builtin_addressof(_Val);

  00006	8b 45 08	 mov	 eax, DWORD PTR __Obj$[ebp]
  00009	89 45 fc	 mov	 DWORD PTR $T3[ebp], eax
; File C:\Program Files (x86)\Microsoft Visual Studio\2019\Community\VC\Tools\MSVC\14.28.29333\include\vcruntime_new.h

; 169  :         return _Where;

  0000c	8b 45 fc	 mov	 eax, DWORD PTR $T3[ebp]
  0000f	89 45 f8	 mov	 DWORD PTR $T2[ebp], eax
; File C:\Program Files (x86)\Microsoft Visual Studio\2019\Community\VC\Tools\MSVC\14.28.29333\include\type_traits

; 1443 :     return static_cast<_Ty&&>(_Arg);

  00012	8b 45 0c	 mov	 eax, DWORD PTR _<_Args_0>$[ebp]
  00015	89 45 f4	 mov	 DWORD PTR $T1[ebp], eax
; File C:\Program Files (x86)\Microsoft Visual Studio\2019\Community\VC\Tools\MSVC\14.28.29333\include\xmemory

; 229  :     ::new (const_cast<void*>(static_cast<const volatile void*>(_STD addressof(_Obj))))

  00018	8b 45 f8	 mov	 eax, DWORD PTR $T2[ebp]
  0001b	8b 4d f4	 mov	 ecx, DWORD PTR $T1[ebp]
  0001e	8b 09		 mov	 ecx, DWORD PTR [ecx]
  00020	89 08		 mov	 DWORD PTR [eax], ecx

; 230  :         _Ty(_STD forward<_Types>(_Args)...);
; 231  : }

  00022	c9		 leave
  00023	c3		 ret	 0
??$_Construct_in_place@PAU?$_Tree_node@U?$pair@$$CBU?$pair@G_W@std@@USCharacterInfomation@CGraphicFontTexture@@@std@@PAX@std@@AAPAU12@@std@@YAXAAPAU?$_Tree_node@U?$pair@$$CBU?$pair@G_W@std@@USCharacterInfomation@CGraphicFontTexture@@@std@@PAX@0@0@Z ENDP ; std::_Construct_in_place<std::_Tree_node<std::pair<std::pair<unsigned short,wchar_t> const ,CGraphicFontTexture::SCharacterInfomation>,void *> *,std::_Tree_node<std::pair<std::pair<unsigned short,wchar_t> const ,CGraphicFontTexture::SCharacterInfomation>,void *> * &>
_TEXT	ENDS
; Function compile flags: /Odspy
; File C:\Program Files (x86)\Microsoft Visual Studio\2019\Community\VC\Tools\MSVC\14.28.29333\include\xmemory
; File C:\Program Files (x86)\Microsoft Visual Studio\2019\Community\VC\Tools\MSVC\14.28.29333\include\vcruntime_new.h
; File C:\Program Files (x86)\Microsoft Visual Studio\2019\Community\VC\Tools\MSVC\14.28.29333\include\type_traits
; File C:\Program Files (x86)\Microsoft Visual Studio\2019\Community\VC\Tools\MSVC\14.28.29333\include\xmemory
; File C:\Program Files (x86)\Microsoft Visual Studio\2019\Community\VC\Tools\MSVC\14.28.29333\include\type_traits
; File C:\Program Files (x86)\Microsoft Visual Studio\2019\Community\VC\Tools\MSVC\14.28.29333\include\xmemory
; File D:\Metin2 Server Files\mainline\SRC_2014\Metin2Client\EterLib\GrpFontTexture.cpp
; File C:\Program Files (x86)\Microsoft Visual Studio\2019\Community\VC\Tools\MSVC\14.28.29333\include\type_traits
; File C:\Program Files (x86)\Microsoft Visual Studio\2019\Community\VC\Tools\MSVC\14.28.29333\include\xmemory
; File C:\Program Files (x86)\Microsoft Visual Studio\2019\Community\VC\Tools\MSVC\14.28.29333\include\tuple
; File C:\Program Files (x86)\Microsoft Visual Studio\2019\Community\VC\Tools\MSVC\14.28.29333\include\type_traits
; File C:\Program Files (x86)\Microsoft Visual Studio\2019\Community\VC\Tools\MSVC\14.28.29333\include\tuple
; File C:\Program Files (x86)\Microsoft Visual Studio\2019\Community\VC\Tools\MSVC\14.28.29333\include\xmemory
;	COMDAT ??$construct@U?$pair@$$CBU?$pair@G_W@std@@USCharacterInfomation@CGraphicFontTexture@@@std@@ABUpiecewise_construct_t@2@V?$tuple@ABU?$pair@G_W@std@@@2@V?$tuple@$$V@2@@?$_Default_allocator_traits@V?$allocator@U?$_Tree_node@U?$pair@$$CBU?$pair@G_W@std@@USCharacterInfomation@CGraphicFontTexture@@@std@@PAX@std@@@std@@@std@@SAXAAV?$allocator@U?$_Tree_node@U?$pair@$$CBU?$pair@G_W@std@@USCharacterInfomation@CGraphicFontTexture@@@std@@PAX@std@@@1@QAU?$pair@$$CBU?$pair@G_W@std@@USCharacterInfomation@CGraphicFontTexture@@@1@ABUpiecewise_construct_t@1@$$QAV?$tuple@ABU?$pair@G_W@std@@@1@$$QAV?$tuple@$$V@1@@Z
_TEXT	SEGMENT
_this$ = -52						; size = 4
$T1 = -48						; size = 4
$T2 = -44						; size = 4
$T3 = -40						; size = 4
$T4 = -36						; size = 4
$T5 = -32						; size = 4
_this$ = -28						; size = 4
$T6 = -24						; size = 4
$T7 = -20						; size = 4
___formal$ = -16					; size = 1
___formal$ = -12					; size = 1
___formal$ = -8						; size = 1
$T8 = -3						; size = 1
$T9 = -2						; size = 1
$T10 = -1						; size = 1
___formal$ = 8						; size = 4
__Ptr$ = 12						; size = 4
_<_Args_0>$ = 16					; size = 4
_<_Args_1>$ = 20					; size = 4
_<_Args_2>$ = 24					; size = 4
??$construct@U?$pair@$$CBU?$pair@G_W@std@@USCharacterInfomation@CGraphicFontTexture@@@std@@ABUpiecewise_construct_t@2@V?$tuple@ABU?$pair@G_W@std@@@2@V?$tuple@$$V@2@@?$_Default_allocator_traits@V?$allocator@U?$_Tree_node@U?$pair@$$CBU?$pair@G_W@std@@USCharacterInfomation@CGraphicFontTexture@@@std@@PAX@std@@@std@@@std@@SAXAAV?$allocator@U?$_Tree_node@U?$pair@$$CBU?$pair@G_W@std@@USCharacterInfomation@CGraphicFontTexture@@@std@@PAX@std@@@1@QAU?$pair@$$CBU?$pair@G_W@std@@USCharacterInfomation@CGraphicFontTexture@@@1@ABUpiecewise_construct_t@1@$$QAV?$tuple@ABU?$pair@G_W@std@@@1@$$QAV?$tuple@$$V@1@@Z PROC ; std::_Default_allocator_traits<std::allocator<std::_Tree_node<std::pair<std::pair<unsigned short,wchar_t> const ,CGraphicFontTexture::SCharacterInfomation>,void *> > >::construct<std::pair<std::pair<unsigned short,wchar_t> const ,CGraphicFontTexture::SCharacterInfomation>,std::piecewise_construct_t const &,std::tuple<std::pair<unsigned short,wchar_t> const &>,std::tuple<> >, COMDAT

; 700  :     static void construct(_Alloc&, _Objty* const _Ptr, _Types&&... _Args) {

  00000	55		 push	 ebp
  00001	8b ec		 mov	 ebp, esp
  00003	83 ec 34	 sub	 esp, 52			; 00000034H
  00006	57		 push	 edi
; File C:\Program Files (x86)\Microsoft Visual Studio\2019\Community\VC\Tools\MSVC\14.28.29333\include\vcruntime_new.h

; 169  :         return _Where;

  00007	8b 45 0c	 mov	 eax, DWORD PTR __Ptr$[ebp]
  0000a	89 45 ec	 mov	 DWORD PTR $T7[ebp], eax
; File C:\Program Files (x86)\Microsoft Visual Studio\2019\Community\VC\Tools\MSVC\14.28.29333\include\type_traits

; 1443 :     return static_cast<_Ty&&>(_Arg);

  0000d	8b 45 18	 mov	 eax, DWORD PTR _<_Args_2>$[ebp]
  00010	89 45 d0	 mov	 DWORD PTR $T1[ebp], eax
; File C:\Program Files (x86)\Microsoft Visual Studio\2019\Community\VC\Tools\MSVC\14.28.29333\include\xmemory

; 701  :         ::new (const_cast<void*>(static_cast<const volatile void*>(_Ptr))) _Objty(_STD forward<_Types>(_Args)...);

  00013	8d 45 fd	 lea	 eax, DWORD PTR $T8[ebp]
  00016	89 45 cc	 mov	 DWORD PTR _this$[ebp], eax
; File C:\Program Files (x86)\Microsoft Visual Studio\2019\Community\VC\Tools\MSVC\14.28.29333\include\type_traits

; 1443 :     return static_cast<_Ty&&>(_Arg);

  00019	8b 45 14	 mov	 eax, DWORD PTR _<_Args_1>$[ebp]
  0001c	89 45 e8	 mov	 DWORD PTR $T6[ebp], eax
; File C:\Program Files (x86)\Microsoft Visual Studio\2019\Community\VC\Tools\MSVC\14.28.29333\include\xmemory

; 701  :         ::new (const_cast<void*>(static_cast<const volatile void*>(_Ptr))) _Objty(_STD forward<_Types>(_Args)...);

  0001f	8d 45 dc	 lea	 eax, DWORD PTR $T4[ebp]
  00022	89 45 e4	 mov	 DWORD PTR _this$[ebp], eax
; File D:\Metin2 Server Files\mainline\SRC_2014\Metin2Client\EterLib\GrpFontTexture.cpp

  00025	8b 45 e8	 mov	 eax, DWORD PTR $T6[ebp]
  00028	8b 00		 mov	 eax, DWORD PTR [eax]
  0002a	8b 4d e4	 mov	 ecx, DWORD PTR _this$[ebp]
  0002d	89 01		 mov	 DWORD PTR [ecx], eax
; File C:\Program Files (x86)\Microsoft Visual Studio\2019\Community\VC\Tools\MSVC\14.28.29333\include\type_traits

; 1443 :     return static_cast<_Ty&&>(_Arg);

  0002f	8b 45 10	 mov	 eax, DWORD PTR _<_Args_0>$[ebp]
  00032	89 45 e0	 mov	 DWORD PTR $T5[ebp], eax
; File C:\Program Files (x86)\Microsoft Visual Studio\2019\Community\VC\Tools\MSVC\14.28.29333\include\xmemory

; 701  :         ::new (const_cast<void*>(static_cast<const volatile void*>(_Ptr))) _Objty(_STD forward<_Types>(_Args)...);

  00035	8b 45 e0	 mov	 eax, DWORD PTR $T5[ebp]
  00038	8a 00		 mov	 al, BYTE PTR [eax]
  0003a	88 45 f8	 mov	 BYTE PTR ___formal$[ebp], al
; File C:\Program Files (x86)\Microsoft Visual Studio\2019\Community\VC\Tools\MSVC\14.28.29333\include\tuple

; 986  :     : pair(_Val1, _Val2, index_sequence_for<_Types1...>{}, index_sequence_for<_Types2...>{}) {}

  0003d	33 c0		 xor	 eax, eax
  0003f	88 45 ff	 mov	 BYTE PTR $T10[ebp], al
  00042	33 c0		 xor	 eax, eax
  00044	88 45 fe	 mov	 BYTE PTR $T9[ebp], al
  00047	8a 45 ff	 mov	 al, BYTE PTR $T10[ebp]
  0004a	88 45 f4	 mov	 BYTE PTR ___formal$[ebp], al
  0004d	8a 45 fe	 mov	 al, BYTE PTR $T9[ebp]
  00050	88 45 f0	 mov	 BYTE PTR ___formal$[ebp], al
; File C:\Program Files (x86)\Microsoft Visual Studio\2019\Community\VC\Tools\MSVC\14.28.29333\include\type_traits

; 1455 :     return static_cast<remove_reference_t<_Ty>&&>(_Arg);

  00053	8d 45 dc	 lea	 eax, DWORD PTR $T4[ebp]
  00056	89 45 d8	 mov	 DWORD PTR $T3[ebp], eax
; File C:\Program Files (x86)\Microsoft Visual Studio\2019\Community\VC\Tools\MSVC\14.28.29333\include\tuple

; 790  :     return static_cast<_Ty&&>(static_cast<_Ttype&>(_Tuple)._Myfirst._Val);

  00059	8b 45 d8	 mov	 eax, DWORD PTR $T3[ebp]
  0005c	8b 00		 mov	 eax, DWORD PTR [eax]
  0005e	89 45 d4	 mov	 DWORD PTR $T2[ebp], eax

; 980  :     : first(_STD get<_Indexes1>(_STD move(_Val1))...), second(_STD get<_Indexes2>(_STD move(_Val2))...) {}

  00061	8b 45 d4	 mov	 eax, DWORD PTR $T2[ebp]
  00064	8b 00		 mov	 eax, DWORD PTR [eax]
  00066	8b 4d ec	 mov	 ecx, DWORD PTR $T7[ebp]
  00069	89 01		 mov	 DWORD PTR [ecx], eax
  0006b	6a 07		 push	 7
  0006d	59		 pop	 ecx
  0006e	33 c0		 xor	 eax, eax
  00070	8b 7d ec	 mov	 edi, DWORD PTR $T7[ebp]
  00073	83 c7 04	 add	 edi, 4
  00076	f3 ab		 rep stosd
; File C:\Program Files (x86)\Microsoft Visual Studio\2019\Community\VC\Tools\MSVC\14.28.29333\include\xmemory

; 702  :     }

  00078	5f		 pop	 edi
  00079	c9		 leave
  0007a	c3		 ret	 0
??$construct@U?$pair@$$CBU?$pair@G_W@std@@USCharacterInfomation@CGraphicFontTexture@@@std@@ABUpiecewise_construct_t@2@V?$tuple@ABU?$pair@G_W@std@@@2@V?$tuple@$$V@2@@?$_Default_allocator_traits@V?$allocator@U?$_Tree_node@U?$pair@$$CBU?$pair@G_W@std@@USCharacterInfomation@CGraphicFontTexture@@@std@@PAX@std@@@std@@@std@@SAXAAV?$allocator@U?$_Tree_node@U?$pair@$$CBU?$pair@G_W@std@@USCharacterInfomation@CGraphicFontTexture@@@std@@PAX@std@@@1@QAU?$pair@$$CBU?$pair@G_W@std@@USCharacterInfomation@CGraphicFontTexture@@@1@ABUpiecewise_construct_t@1@$$QAV?$tuple@ABU?$pair@G_W@std@@@1@$$QAV?$tuple@$$V@1@@Z ENDP ; std::_Default_allocator_traits<std::allocator<std::_Tree_node<std::pair<std::pair<unsigned short,wchar_t> const ,CGraphicFontTexture::SCharacterInfomation>,void *> > >::construct<std::pair<std::pair<unsigned short,wchar_t> const ,CGraphicFontTexture::SCharacterInfomation>,std::piecewise_construct_t const &,std::tuple<std::pair<unsigned short,wchar_t> const &>,std::tuple<> >
_TEXT	ENDS
; Function compile flags: /Odspy
; File C:\Program Files (x86)\Microsoft Visual Studio\2019\Community\VC\Tools\MSVC\14.28.29333\include\xmemory
;	COMDAT ??$_Destroy_in_place@PAU?$_Tree_node@U?$pair@$$CBGPAUHFONT__@@@std@@PAX@std@@@std@@YAXAAPAU?$_Tree_node@U?$pair@$$CBGPAUHFONT__@@@std@@PAX@0@@Z
_TEXT	SEGMENT
__Obj$ = 8						; size = 4
??$_Destroy_in_place@PAU?$_Tree_node@U?$pair@$$CBGPAUHFONT__@@@std@@PAX@std@@@std@@YAXAAPAU?$_Tree_node@U?$pair@$$CBGPAUHFONT__@@@std@@PAX@0@@Z PROC ; std::_Destroy_in_place<std::_Tree_node<std::pair<unsigned short const ,HFONT__ *>,void *> *>, COMDAT

; 270  : /* _CONSTEXPR20_DYNALLOC */ void _Destroy_in_place(_Ty& _Obj) noexcept {

  00000	55		 push	 ebp
  00001	8b ec		 mov	 ebp, esp

; 271  : #if _HAS_IF_CONSTEXPR
; 272  :     if constexpr (is_array_v<_Ty>) {
; 273  :         _Destroy_range(_Obj, _Obj + extent_v<_Ty>);
; 274  :     } else
; 275  : #endif // _HAS_IF_CONSTEXPR
; 276  :     {
; 277  :         _Obj.~_Ty();
; 278  :     }
; 279  : }

  00003	5d		 pop	 ebp
  00004	c3		 ret	 0
??$_Destroy_in_place@PAU?$_Tree_node@U?$pair@$$CBGPAUHFONT__@@@std@@PAX@std@@@std@@YAXAAPAU?$_Tree_node@U?$pair@$$CBGPAUHFONT__@@@std@@PAX@0@@Z ENDP ; std::_Destroy_in_place<std::_Tree_node<std::pair<unsigned short const ,HFONT__ *>,void *> *>
_TEXT	ENDS
; Function compile flags: /Odspy
; File C:\Program Files (x86)\Microsoft Visual Studio\2019\Community\VC\Tools\MSVC\14.28.29333\include\xtree
; File C:\Program Files (x86)\Microsoft Visual Studio\2019\Community\VC\Tools\MSVC\14.28.29333\include\xmemory
; File C:\Program Files (x86)\Microsoft Visual Studio\2019\Community\VC\Tools\MSVC\14.28.29333\include\xtree
; File C:\Program Files (x86)\Microsoft Visual Studio\2019\Community\VC\Tools\MSVC\14.28.29333\include\type_traits
; File C:\Program Files (x86)\Microsoft Visual Studio\2019\Community\VC\Tools\MSVC\14.28.29333\include\xtree
; File C:\Program Files (x86)\Microsoft Visual Studio\2019\Community\VC\Tools\MSVC\14.28.29333\include\xstddef
; File C:\Program Files (x86)\Microsoft Visual Studio\2019\Community\VC\Tools\MSVC\14.28.29333\include\xtree
; File C:\Program Files (x86)\Microsoft Visual Studio\2019\Community\VC\Tools\MSVC\14.28.29333\include\vcruntime_new.h
; File C:\Program Files (x86)\Microsoft Visual Studio\2019\Community\VC\Tools\MSVC\14.28.29333\include\type_traits
; File C:\Program Files (x86)\Microsoft Visual Studio\2019\Community\VC\Tools\MSVC\14.28.29333\include\xmemory
; File C:\Program Files (x86)\Microsoft Visual Studio\2019\Community\VC\Tools\MSVC\14.28.29333\include\xtree
;	COMDAT ??$?0U?$pair@$$CBGPAUHFONT__@@@std@@@?$_Tree_temp_node@V?$allocator@U?$_Tree_node@U?$pair@$$CBGPAUHFONT__@@@std@@PAX@std@@@std@@@std@@QAE@AAV?$allocator@U?$_Tree_node@U?$pair@$$CBGPAUHFONT__@@@std@@PAX@std@@@1@PAU?$_Tree_node@U?$pair@$$CBGPAUHFONT__@@@std@@PAX@1@$$QAU?$pair@$$CBGPAUHFONT__@@@1@@Z
_TEXT	SEGMENT
___formal$ = -40					; size = 4
$T2 = -36						; size = 4
$T3 = -32						; size = 4
$T4 = -28						; size = 4
$T5 = -24						; size = 4
__Val$ = -20						; size = 4
_this$ = -16						; size = 4
__$EHRec$ = -12						; size = 12
__Al_$ = 8						; size = 4
__Myhead$ = 12						; size = 4
_<_Vals_0>$ = 16					; size = 4
??$?0U?$pair@$$CBGPAUHFONT__@@@std@@@?$_Tree_temp_node@V?$allocator@U?$_Tree_node@U?$pair@$$CBGPAUHFONT__@@@std@@PAX@std@@@std@@@std@@QAE@AAV?$allocator@U?$_Tree_node@U?$pair@$$CBGPAUHFONT__@@@std@@PAX@std@@@1@PAU?$_Tree_node@U?$pair@$$CBGPAUHFONT__@@@std@@PAX@1@$$QAU?$pair@$$CBGPAUHFONT__@@@1@@Z PROC ; std::_Tree_temp_node<std::allocator<std::_Tree_node<std::pair<unsigned short const ,HFONT__ *>,void *> > >::_Tree_temp_node<std::allocator<std::_Tree_node<std::pair<unsigned short const ,HFONT__ *>,void *> > ><std::pair<unsigned short const ,HFONT__ *> >, COMDAT
; _this$ = ecx

; 805  :         : _Tree_temp_node_alloc<_Alnode>(_Al_) {

  00000	55		 push	 ebp
  00001	8b ec		 mov	 ebp, esp
  00003	6a ff		 push	 -1
  00005	68 00 00 00 00	 push	 __ehhandler$??$?0U?$pair@$$CBGPAUHFONT__@@@std@@@?$_Tree_temp_node@V?$allocator@U?$_Tree_node@U?$pair@$$CBGPAUHFONT__@@@std@@PAX@std@@@std@@@std@@QAE@AAV?$allocator@U?$_Tree_node@U?$pair@$$CBGPAUHFONT__@@@std@@PAX@std@@@1@PAU?$_Tree_node@U?$pair@$$CBGPAUHFONT__@@@std@@PAX@1@$$QAU?$pair@$$CBGPAUHFONT__@@@1@@Z
  0000a	64 a1 00 00 00
	00		 mov	 eax, DWORD PTR fs:0
  00010	50		 push	 eax
  00011	83 ec 1c	 sub	 esp, 28			; 0000001cH
  00014	a1 00 00 00 00	 mov	 eax, DWORD PTR ___security_cookie
  00019	33 c5		 xor	 eax, ebp
  0001b	50		 push	 eax
  0001c	8d 45 f4	 lea	 eax, DWORD PTR __$EHRec$[ebp]
  0001f	64 a3 00 00 00
	00		 mov	 DWORD PTR fs:0, eax
  00025	89 4d f0	 mov	 DWORD PTR _this$[ebp], ecx
; File C:\Program Files (x86)\Microsoft Visual Studio\2019\Community\VC\Tools\MSVC\14.28.29333\include\xmemory

; 1045 :     explicit _Alloc_construct_ptr(_Alloc& _Al_) : _Al(_Al_), _Ptr(nullptr) {}

  00028	8b 45 f0	 mov	 eax, DWORD PTR _this$[ebp]
  0002b	8b 4d 08	 mov	 ecx, DWORD PTR __Al_$[ebp]
  0002e	89 08		 mov	 DWORD PTR [eax], ecx
  00030	8b 45 f0	 mov	 eax, DWORD PTR _this$[ebp]
  00033	83 60 04 00	 and	 DWORD PTR [eax+4], 0
; File C:\Program Files (x86)\Microsoft Visual Studio\2019\Community\VC\Tools\MSVC\14.28.29333\include\xtree

; 784  :     explicit _Tree_temp_node_alloc(_Alnode& _Al_) : _Alloc_construct_ptr<_Alnode>(_Al_) {

  00037	83 65 fc 00	 and	 DWORD PTR __$EHRec$[ebp+8], 0

; 785  :         _Alloc_construct_ptr<_Alnode>::_Allocate();

  0003b	8b 4d f0	 mov	 ecx, DWORD PTR _this$[ebp]
  0003e	e8 00 00 00 00	 call	 ?_Allocate@?$_Alloc_construct_ptr@V?$allocator@U?$_Tree_node@U?$pair@$$CBGPAUHFONT__@@@std@@PAX@std@@@std@@@std@@QAEXXZ ; std::_Alloc_construct_ptr<std::allocator<std::_Tree_node<std::pair<unsigned short const ,HFONT__ *>,void *> > >::_Allocate

; 786  :     }

  00043	83 4d fc ff	 or	 DWORD PTR __$EHRec$[ebp+8], -1
; File C:\Program Files (x86)\Microsoft Visual Studio\2019\Community\VC\Tools\MSVC\14.28.29333\include\type_traits

; 1443 :     return static_cast<_Ty&&>(_Arg);

  00047	8b 45 10	 mov	 eax, DWORD PTR _<_Vals_0>$[ebp]
  0004a	89 45 e4	 mov	 DWORD PTR $T4[ebp], eax
; File C:\Program Files (x86)\Microsoft Visual Studio\2019\Community\VC\Tools\MSVC\14.28.29333\include\xtree

; 806  :         _Alnode_traits::construct(this->_Al, _STD addressof(this->_Ptr->_Myval), _STD forward<_Valtys>(_Vals)...);

  0004d	8b 45 f0	 mov	 eax, DWORD PTR _this$[ebp]
  00050	8b 40 04	 mov	 eax, DWORD PTR [eax+4]
  00053	83 c0 10	 add	 eax, 16			; 00000010H
  00056	89 45 ec	 mov	 DWORD PTR __Val$[ebp], eax
; File C:\Program Files (x86)\Microsoft Visual Studio\2019\Community\VC\Tools\MSVC\14.28.29333\include\xstddef

; 275  :     return __builtin_addressof(_Val);

  00059	8b 45 ec	 mov	 eax, DWORD PTR __Val$[ebp]
  0005c	89 45 e8	 mov	 DWORD PTR $T5[ebp], eax
; File C:\Program Files (x86)\Microsoft Visual Studio\2019\Community\VC\Tools\MSVC\14.28.29333\include\xtree

; 806  :         _Alnode_traits::construct(this->_Al, _STD addressof(this->_Ptr->_Myval), _STD forward<_Valtys>(_Vals)...);

  0005f	8b 45 f0	 mov	 eax, DWORD PTR _this$[ebp]
  00062	8b 00		 mov	 eax, DWORD PTR [eax]
  00064	89 45 d8	 mov	 DWORD PTR ___formal$[ebp], eax
; File C:\Program Files (x86)\Microsoft Visual Studio\2019\Community\VC\Tools\MSVC\14.28.29333\include\vcruntime_new.h

; 169  :         return _Where;

  00067	8b 45 e8	 mov	 eax, DWORD PTR $T5[ebp]
  0006a	89 45 dc	 mov	 DWORD PTR $T2[ebp], eax
; File C:\Program Files (x86)\Microsoft Visual Studio\2019\Community\VC\Tools\MSVC\14.28.29333\include\type_traits

; 1443 :     return static_cast<_Ty&&>(_Arg);

  0006d	8b 45 e4	 mov	 eax, DWORD PTR $T4[ebp]
  00070	89 45 e0	 mov	 DWORD PTR $T3[ebp], eax
; File C:\Program Files (x86)\Microsoft Visual Studio\2019\Community\VC\Tools\MSVC\14.28.29333\include\xmemory

; 701  :         ::new (const_cast<void*>(static_cast<const volatile void*>(_Ptr))) _Objty(_STD forward<_Types>(_Args)...);

  00073	8b 45 e0	 mov	 eax, DWORD PTR $T3[ebp]
  00076	8b 08		 mov	 ecx, DWORD PTR [eax]
  00078	8b 40 04	 mov	 eax, DWORD PTR [eax+4]
  0007b	8b 55 dc	 mov	 edx, DWORD PTR $T2[ebp]
  0007e	89 0a		 mov	 DWORD PTR [edx], ecx
  00080	89 42 04	 mov	 DWORD PTR [edx+4], eax
; File C:\Program Files (x86)\Microsoft Visual Studio\2019\Community\VC\Tools\MSVC\14.28.29333\include\xtree

; 807  :         _Construct_in_place(this->_Ptr->_Left, _Myhead);

  00083	8d 45 0c	 lea	 eax, DWORD PTR __Myhead$[ebp]
  00086	50		 push	 eax
  00087	8b 45 f0	 mov	 eax, DWORD PTR _this$[ebp]
  0008a	ff 70 04	 push	 DWORD PTR [eax+4]
  0008d	e8 00 00 00 00	 call	 ??$_Construct_in_place@PAU?$_Tree_node@U?$pair@$$CBGPAUHFONT__@@@std@@PAX@std@@AAPAU12@@std@@YAXAAPAU?$_Tree_node@U?$pair@$$CBGPAUHFONT__@@@std@@PAX@0@0@Z ; std::_Construct_in_place<std::_Tree_node<std::pair<unsigned short const ,HFONT__ *>,void *> *,std::_Tree_node<std::pair<unsigned short const ,HFONT__ *>,void *> * &>
  00092	59		 pop	 ecx
  00093	59		 pop	 ecx

; 808  :         _Construct_in_place(this->_Ptr->_Parent, _Myhead);

  00094	8d 45 0c	 lea	 eax, DWORD PTR __Myhead$[ebp]
  00097	50		 push	 eax
  00098	8b 45 f0	 mov	 eax, DWORD PTR _this$[ebp]
  0009b	8b 40 04	 mov	 eax, DWORD PTR [eax+4]
  0009e	83 c0 04	 add	 eax, 4
  000a1	50		 push	 eax
  000a2	e8 00 00 00 00	 call	 ??$_Construct_in_place@PAU?$_Tree_node@U?$pair@$$CBGPAUHFONT__@@@std@@PAX@std@@AAPAU12@@std@@YAXAAPAU?$_Tree_node@U?$pair@$$CBGPAUHFONT__@@@std@@PAX@0@0@Z ; std::_Construct_in_place<std::_Tree_node<std::pair<unsigned short const ,HFONT__ *>,void *> *,std::_Tree_node<std::pair<unsigned short const ,HFONT__ *>,void *> * &>
  000a7	59		 pop	 ecx
  000a8	59		 pop	 ecx

; 809  :         _Construct_in_place(this->_Ptr->_Right, _Myhead);

  000a9	8d 45 0c	 lea	 eax, DWORD PTR __Myhead$[ebp]
  000ac	50		 push	 eax
  000ad	8b 45 f0	 mov	 eax, DWORD PTR _this$[ebp]
  000b0	8b 40 04	 mov	 eax, DWORD PTR [eax+4]
  000b3	83 c0 08	 add	 eax, 8
  000b6	50		 push	 eax
  000b7	e8 00 00 00 00	 call	 ??$_Construct_in_place@PAU?$_Tree_node@U?$pair@$$CBGPAUHFONT__@@@std@@PAX@std@@AAPAU12@@std@@YAXAAPAU?$_Tree_node@U?$pair@$$CBGPAUHFONT__@@@std@@PAX@0@0@Z ; std::_Construct_in_place<std::_Tree_node<std::pair<unsigned short const ,HFONT__ *>,void *> *,std::_Tree_node<std::pair<unsigned short const ,HFONT__ *>,void *> * &>
  000bc	59		 pop	 ecx
  000bd	59		 pop	 ecx

; 810  :         this->_Ptr->_Color = _Red;

  000be	8b 45 f0	 mov	 eax, DWORD PTR _this$[ebp]
  000c1	8b 40 04	 mov	 eax, DWORD PTR [eax+4]
  000c4	c6 40 0c 00	 mov	 BYTE PTR [eax+12], 0

; 811  :         this->_Ptr->_Isnil = false;

  000c8	8b 45 f0	 mov	 eax, DWORD PTR _this$[ebp]
  000cb	8b 40 04	 mov	 eax, DWORD PTR [eax+4]
  000ce	c6 40 0d 00	 mov	 BYTE PTR [eax+13], 0

; 812  :     }

  000d2	8b 45 f0	 mov	 eax, DWORD PTR _this$[ebp]
  000d5	8b 4d f4	 mov	 ecx, DWORD PTR __$EHRec$[ebp]
  000d8	64 89 0d 00 00
	00 00		 mov	 DWORD PTR fs:0, ecx
  000df	59		 pop	 ecx
  000e0	c9		 leave
  000e1	c2 0c 00	 ret	 12			; 0000000cH
_TEXT	ENDS
;	COMDAT text$x
text$x	SEGMENT
__unwindfunclet$??$?0U?$pair@$$CBGPAUHFONT__@@@std@@@?$_Tree_temp_node@V?$allocator@U?$_Tree_node@U?$pair@$$CBGPAUHFONT__@@@std@@PAX@std@@@std@@@std@@QAE@AAV?$allocator@U?$_Tree_node@U?$pair@$$CBGPAUHFONT__@@@std@@PAX@std@@@1@PAU?$_Tree_node@U?$pair@$$CBGPAUHFONT__@@@std@@PAX@1@$$QAU?$pair@$$CBGPAUHFONT__@@@1@@Z$1:
  00000	8b 4d f0	 mov	 ecx, DWORD PTR _this$[ebp]
  00003	e9 00 00 00 00	 jmp	 ??1?$_Alloc_construct_ptr@V?$allocator@U?$_Tree_node@U?$pair@$$CBGPAUHFONT__@@@std@@PAX@std@@@std@@@std@@QAE@XZ ; std::_Alloc_construct_ptr<std::allocator<std::_Tree_node<std::pair<unsigned short const ,HFONT__ *>,void *> > >::~_Alloc_construct_ptr<std::allocator<std::_Tree_node<std::pair<unsigned short const ,HFONT__ *>,void *> > >
  00008	cc		 int	 3
  00009	cc		 int	 3
  0000a	cc		 int	 3
  0000b	cc		 int	 3
  0000c	cc		 int	 3
__ehhandler$??$?0U?$pair@$$CBGPAUHFONT__@@@std@@@?$_Tree_temp_node@V?$allocator@U?$_Tree_node@U?$pair@$$CBGPAUHFONT__@@@std@@PAX@std@@@std@@@std@@QAE@AAV?$allocator@U?$_Tree_node@U?$pair@$$CBGPAUHFONT__@@@std@@PAX@std@@@1@PAU?$_Tree_node@U?$pair@$$CBGPAUHFONT__@@@std@@PAX@1@$$QAU?$pair@$$CBGPAUHFONT__@@@1@@Z:
  0000d	90		 npad	 1
  0000e	90		 npad	 1
  0000f	8b 54 24 08	 mov	 edx, DWORD PTR [esp+8]
  00013	8d 42 0c	 lea	 eax, DWORD PTR [edx+12]
  00016	8b 4a e0	 mov	 ecx, DWORD PTR [edx-32]
  00019	33 c8		 xor	 ecx, eax
  0001b	e8 00 00 00 00	 call	 @__security_check_cookie@4
  00020	b8 00 00 00 00	 mov	 eax, OFFSET __ehfuncinfo$??$?0U?$pair@$$CBGPAUHFONT__@@@std@@@?$_Tree_temp_node@V?$allocator@U?$_Tree_node@U?$pair@$$CBGPAUHFONT__@@@std@@PAX@std@@@std@@@std@@QAE@AAV?$allocator@U?$_Tree_node@U?$pair@$$CBGPAUHFONT__@@@std@@PAX@std@@@1@PAU?$_Tree_node@U?$pair@$$CBGPAUHFONT__@@@std@@PAX@1@$$QAU?$pair@$$CBGPAUHFONT__@@@1@@Z
  00025	e9 00 00 00 00	 jmp	 ___CxxFrameHandler3
text$x	ENDS
??$?0U?$pair@$$CBGPAUHFONT__@@@std@@@?$_Tree_temp_node@V?$allocator@U?$_Tree_node@U?$pair@$$CBGPAUHFONT__@@@std@@PAX@std@@@std@@@std@@QAE@AAV?$allocator@U?$_Tree_node@U?$pair@$$CBGPAUHFONT__@@@std@@PAX@std@@@1@PAU?$_Tree_node@U?$pair@$$CBGPAUHFONT__@@@std@@PAX@1@$$QAU?$pair@$$CBGPAUHFONT__@@@1@@Z ENDP ; std::_Tree_temp_node<std::allocator<std::_Tree_node<std::pair<unsigned short const ,HFONT__ *>,void *> > >::_Tree_temp_node<std::allocator<std::_Tree_node<std::pair<unsigned short const ,HFONT__ *>,void *> > ><std::pair<unsigned short const ,HFONT__ *> >
; Function compile flags: /Odspy
; File C:\Program Files (x86)\Microsoft Visual Studio\2019\Community\VC\Tools\MSVC\14.28.29333\include\xtree
; File C:\Program Files (x86)\Microsoft Visual Studio\2019\Community\VC\Tools\MSVC\14.28.29333\include\xstddef
; File C:\Program Files (x86)\Microsoft Visual Studio\2019\Community\VC\Tools\MSVC\14.28.29333\include\xtree
;	COMDAT ??1?$_Tree_temp_node@V?$allocator@U?$_Tree_node@U?$pair@$$CBGPAUHFONT__@@@std@@PAX@std@@@std@@@std@@QAE@XZ
_TEXT	SEGMENT
$T1 = -12						; size = 4
__Val$ = -8						; size = 4
_this$ = -4						; size = 4
??1?$_Tree_temp_node@V?$allocator@U?$_Tree_node@U?$pair@$$CBGPAUHFONT__@@@std@@PAX@std@@@std@@@std@@QAE@XZ PROC ; std::_Tree_temp_node<std::allocator<std::_Tree_node<std::pair<unsigned short const ,HFONT__ *>,void *> > >::~_Tree_temp_node<std::allocator<std::_Tree_node<std::pair<unsigned short const ,HFONT__ *>,void *> > >, COMDAT
; _this$ = ecx

; 817  :     ~_Tree_temp_node() {

  00000	55		 push	 ebp
  00001	8b ec		 mov	 ebp, esp
  00003	83 ec 0c	 sub	 esp, 12			; 0000000cH
  00006	89 4d fc	 mov	 DWORD PTR _this$[ebp], ecx

; 818  :         if (this->_Ptr) {

  00009	8b 45 fc	 mov	 eax, DWORD PTR _this$[ebp]
  0000c	83 78 04 00	 cmp	 DWORD PTR [eax+4], 0
  00010	74 3e		 je	 SHORT $LN9@Tree_temp_

; 819  :             _Destroy_in_place(this->_Ptr->_Left);

  00012	8b 45 fc	 mov	 eax, DWORD PTR _this$[ebp]
  00015	ff 70 04	 push	 DWORD PTR [eax+4]
  00018	e8 00 00 00 00	 call	 ??$_Destroy_in_place@PAU?$_Tree_node@U?$pair@$$CBGPAUHFONT__@@@std@@PAX@std@@@std@@YAXAAPAU?$_Tree_node@U?$pair@$$CBGPAUHFONT__@@@std@@PAX@0@@Z ; std::_Destroy_in_place<std::_Tree_node<std::pair<unsigned short const ,HFONT__ *>,void *> *>
  0001d	59		 pop	 ecx

; 820  :             _Destroy_in_place(this->_Ptr->_Parent);

  0001e	8b 45 fc	 mov	 eax, DWORD PTR _this$[ebp]
  00021	8b 40 04	 mov	 eax, DWORD PTR [eax+4]
  00024	83 c0 04	 add	 eax, 4
  00027	50		 push	 eax
  00028	e8 00 00 00 00	 call	 ??$_Destroy_in_place@PAU?$_Tree_node@U?$pair@$$CBGPAUHFONT__@@@std@@PAX@std@@@std@@YAXAAPAU?$_Tree_node@U?$pair@$$CBGPAUHFONT__@@@std@@PAX@0@@Z ; std::_Destroy_in_place<std::_Tree_node<std::pair<unsigned short const ,HFONT__ *>,void *> *>
  0002d	59		 pop	 ecx

; 821  :             _Destroy_in_place(this->_Ptr->_Right);

  0002e	8b 45 fc	 mov	 eax, DWORD PTR _this$[ebp]
  00031	8b 40 04	 mov	 eax, DWORD PTR [eax+4]
  00034	83 c0 08	 add	 eax, 8
  00037	50		 push	 eax
  00038	e8 00 00 00 00	 call	 ??$_Destroy_in_place@PAU?$_Tree_node@U?$pair@$$CBGPAUHFONT__@@@std@@PAX@std@@@std@@YAXAAPAU?$_Tree_node@U?$pair@$$CBGPAUHFONT__@@@std@@PAX@0@@Z ; std::_Destroy_in_place<std::_Tree_node<std::pair<unsigned short const ,HFONT__ *>,void *> *>
  0003d	59		 pop	 ecx

; 822  :             _Alnode_traits::destroy(this->_Al, _STD addressof(this->_Ptr->_Myval));

  0003e	8b 45 fc	 mov	 eax, DWORD PTR _this$[ebp]
  00041	8b 40 04	 mov	 eax, DWORD PTR [eax+4]
  00044	83 c0 10	 add	 eax, 16			; 00000010H
  00047	89 45 f8	 mov	 DWORD PTR __Val$[ebp], eax
; File C:\Program Files (x86)\Microsoft Visual Studio\2019\Community\VC\Tools\MSVC\14.28.29333\include\xstddef

; 275  :     return __builtin_addressof(_Val);

  0004a	8b 45 f8	 mov	 eax, DWORD PTR __Val$[ebp]
  0004d	89 45 f4	 mov	 DWORD PTR $T1[ebp], eax
$LN9@Tree_temp_:
  00050	8b 4d fc	 mov	 ecx, DWORD PTR _this$[ebp]
  00053	e8 00 00 00 00	 call	 ??1?$_Alloc_construct_ptr@V?$allocator@U?$_Tree_node@U?$pair@$$CBGPAUHFONT__@@@std@@PAX@std@@@std@@@std@@QAE@XZ ; std::_Alloc_construct_ptr<std::allocator<std::_Tree_node<std::pair<unsigned short const ,HFONT__ *>,void *> > >::~_Alloc_construct_ptr<std::allocator<std::_Tree_node<std::pair<unsigned short const ,HFONT__ *>,void *> > >
; File C:\Program Files (x86)\Microsoft Visual Studio\2019\Community\VC\Tools\MSVC\14.28.29333\include\xtree

; 824  :     }

  00058	c9		 leave
  00059	c3		 ret	 0
??1?$_Tree_temp_node@V?$allocator@U?$_Tree_node@U?$pair@$$CBGPAUHFONT__@@@std@@PAX@std@@@std@@@std@@QAE@XZ ENDP ; std::_Tree_temp_node<std::allocator<std::_Tree_node<std::pair<unsigned short const ,HFONT__ *>,void *> > >::~_Tree_temp_node<std::allocator<std::_Tree_node<std::pair<unsigned short const ,HFONT__ *>,void *> > >
_TEXT	ENDS
; Function compile flags: /Odspy
; File C:\Program Files (x86)\Microsoft Visual Studio\2019\Community\VC\Tools\MSVC\14.28.29333\include\xmemory
;	COMDAT ??1?$_Alloc_construct_ptr@V?$allocator@U?$_Tree_node@U?$pair@$$CBGPAUHFONT__@@@std@@PAX@std@@@std@@@std@@QAE@XZ
_TEXT	SEGMENT
_this$ = -12						; size = 4
__Ptr$ = -8						; size = 4
_this$ = -4						; size = 4
??1?$_Alloc_construct_ptr@V?$allocator@U?$_Tree_node@U?$pair@$$CBGPAUHFONT__@@@std@@PAX@std@@@std@@@std@@QAE@XZ PROC ; std::_Alloc_construct_ptr<std::allocator<std::_Tree_node<std::pair<unsigned short const ,HFONT__ *>,void *> > >::~_Alloc_construct_ptr<std::allocator<std::_Tree_node<std::pair<unsigned short const ,HFONT__ *>,void *> > >, COMDAT
; _this$ = ecx

; 1056 :     ~_Alloc_construct_ptr() { // if this instance is engaged, deallocate storage

  00000	55		 push	 ebp
  00001	8b ec		 mov	 ebp, esp
  00003	83 ec 0c	 sub	 esp, 12			; 0000000cH
  00006	89 4d fc	 mov	 DWORD PTR _this$[ebp], ecx

; 1057 :         if (_Ptr) {

  00009	8b 45 fc	 mov	 eax, DWORD PTR _this$[ebp]
  0000c	83 78 04 00	 cmp	 DWORD PTR [eax+4], 0
  00010	74 22		 je	 SHORT $LN3@Alloc_cons

; 1058 :             _Al.deallocate(_Ptr, 1);

  00012	8b 45 fc	 mov	 eax, DWORD PTR _this$[ebp]
  00015	8b 40 04	 mov	 eax, DWORD PTR [eax+4]
  00018	89 45 f8	 mov	 DWORD PTR __Ptr$[ebp], eax
  0001b	8b 45 fc	 mov	 eax, DWORD PTR _this$[ebp]
  0001e	8b 00		 mov	 eax, DWORD PTR [eax]
  00020	89 45 f4	 mov	 DWORD PTR _this$[ebp], eax

; 810  :         _Deallocate<_New_alignof<_Ty>>(_Ptr, sizeof(_Ty) * _Count);

  00023	33 c0		 xor	 eax, eax
  00025	40		 inc	 eax
  00026	6b c0 18	 imul	 eax, eax, 24
  00029	50		 push	 eax
  0002a	ff 75 f8	 push	 DWORD PTR __Ptr$[ebp]
  0002d	e8 00 00 00 00	 call	 ??$_Deallocate@$07$0A@@std@@YAXPAXI@Z ; std::_Deallocate<8,0>
  00032	59		 pop	 ecx
  00033	59		 pop	 ecx
$LN3@Alloc_cons:

; 1059 :         }
; 1060 :     }

  00034	c9		 leave
  00035	c3		 ret	 0
??1?$_Alloc_construct_ptr@V?$allocator@U?$_Tree_node@U?$pair@$$CBGPAUHFONT__@@@std@@PAX@std@@@std@@@std@@QAE@XZ ENDP ; std::_Alloc_construct_ptr<std::allocator<std::_Tree_node<std::pair<unsigned short const ,HFONT__ *>,void *> > >::~_Alloc_construct_ptr<std::allocator<std::_Tree_node<std::pair<unsigned short const ,HFONT__ *>,void *> > >
_TEXT	ENDS
; Function compile flags: /Odspy
; File C:\Program Files (x86)\Microsoft Visual Studio\2019\Community\VC\Tools\MSVC\14.28.29333\include\xmemory
;	COMDAT ?_Allocate@?$_Alloc_construct_ptr@V?$allocator@U?$_Tree_node@U?$pair@$$CBGPAUHFONT__@@@std@@PAX@std@@@std@@@std@@QAEXXZ
_TEXT	SEGMENT
__Max_possible$1 = -24					; size = 4
_this$ = -20						; size = 4
$T2 = -16						; size = 4
$T3 = -12						; size = 4
_this$ = -8						; size = 4
__Overflow_is_possible$4 = -1				; size = 1
?_Allocate@?$_Alloc_construct_ptr@V?$allocator@U?$_Tree_node@U?$pair@$$CBGPAUHFONT__@@@std@@PAX@std@@@std@@@std@@QAEXXZ PROC ; std::_Alloc_construct_ptr<std::allocator<std::_Tree_node<std::pair<unsigned short const ,HFONT__ *>,void *> > >::_Allocate, COMDAT
; _this$ = ecx

; 1051 :     void _Allocate() { // disengage *this, then allocate a new memory block

  00000	55		 push	 ebp
  00001	8b ec		 mov	 ebp, esp
  00003	83 ec 18	 sub	 esp, 24			; 00000018H
  00006	89 4d f8	 mov	 DWORD PTR _this$[ebp], ecx

; 1052 :         _Ptr = nullptr; // if allocate throws, prevents double-free

  00009	8b 45 f8	 mov	 eax, DWORD PTR _this$[ebp]
  0000c	83 60 04 00	 and	 DWORD PTR [eax+4], 0

; 1053 :         _Ptr = _Al.allocate(1);

  00010	8b 45 f8	 mov	 eax, DWORD PTR _this$[ebp]
  00013	8b 00		 mov	 eax, DWORD PTR [eax]
  00015	89 45 ec	 mov	 DWORD PTR _this$[ebp], eax

; 56   :     constexpr bool _Overflow_is_possible = _Ty_size > 1;

  00018	c6 45 ff 01	 mov	 BYTE PTR __Overflow_is_possible$4[ebp], 1

; 57   : 
; 58   :     if _CONSTEXPR_IF (_Overflow_is_possible) {
; 59   :         constexpr size_t _Max_possible = static_cast<size_t>(-1) / _Ty_size;

  0001c	c7 45 e8 aa aa
	aa 0a		 mov	 DWORD PTR __Max_possible$1[ebp], 178956970 ; 0aaaaaaaH

; 60   :         if (_Count > _Max_possible) {

  00023	33 c0		 xor	 eax, eax
  00025	40		 inc	 eax
  00026	3d aa aa aa 0a	 cmp	 eax, 178956970		; 0aaaaaaaH
  0002b	76 05		 jbe	 SHORT $LN6@Allocate

; 61   :             _Throw_bad_array_new_length(); // multiply overflow

  0002d	e8 00 00 00 00	 call	 ?_Throw_bad_array_new_length@std@@YAXXZ ; std::_Throw_bad_array_new_length
$LN6@Allocate:

; 62   :         }
; 63   :     }
; 64   : 
; 65   :     return _Count * _Ty_size;

  00032	33 c0		 xor	 eax, eax
  00034	40		 inc	 eax
  00035	6b c0 18	 imul	 eax, eax, 24
  00038	89 45 f4	 mov	 DWORD PTR $T3[ebp], eax

; 814  :         return static_cast<_Ty*>(_Allocate<_New_alignof<_Ty>>(_Get_size_of_n<sizeof(_Ty)>(_Count)));

  0003b	ff 75 f4	 push	 DWORD PTR $T3[ebp]
  0003e	e8 00 00 00 00	 call	 ??$_Allocate@$07U_Default_allocate_traits@std@@$0A@@std@@YAPAXI@Z ; std::_Allocate<8,std::_Default_allocate_traits,0>
  00043	59		 pop	 ecx
  00044	89 45 f0	 mov	 DWORD PTR $T2[ebp], eax

; 1053 :         _Ptr = _Al.allocate(1);

  00047	8b 45 f8	 mov	 eax, DWORD PTR _this$[ebp]
  0004a	8b 4d f0	 mov	 ecx, DWORD PTR $T2[ebp]
  0004d	89 48 04	 mov	 DWORD PTR [eax+4], ecx
$LN9@Allocate:

; 1054 :     }

  00050	c9		 leave
  00051	c3		 ret	 0
?_Allocate@?$_Alloc_construct_ptr@V?$allocator@U?$_Tree_node@U?$pair@$$CBGPAUHFONT__@@@std@@PAX@std@@@std@@@std@@QAEXXZ ENDP ; std::_Alloc_construct_ptr<std::allocator<std::_Tree_node<std::pair<unsigned short const ,HFONT__ *>,void *> > >::_Allocate
_TEXT	ENDS
; Function compile flags: /Odspy
; File C:\Program Files (x86)\Microsoft Visual Studio\2019\Community\VC\Tools\MSVC\14.28.29333\include\xmemory
; File C:\Program Files (x86)\Microsoft Visual Studio\2019\Community\VC\Tools\MSVC\14.28.29333\include\xstddef
; File C:\Program Files (x86)\Microsoft Visual Studio\2019\Community\VC\Tools\MSVC\14.28.29333\include\xmemory
;	COMDAT ??$_Uninitialized_move@PAPAVCGraphicImageTexture@@V?$allocator@PAVCGraphicImageTexture@@@std@@@std@@YAPAPAVCGraphicImageTexture@@QAPAV1@0PAPAV1@AAV?$allocator@PAVCGraphicImageTexture@@@0@@Z
_TEXT	SEGMENT
$T1 = -12						; size = 4
__UFirst$ = -8						; size = 4
__ULast$ = -4						; size = 4
__First$ = 8						; size = 4
__Last$ = 12						; size = 4
__Dest$ = 16						; size = 4
__Al$ = 20						; size = 4
??$_Uninitialized_move@PAPAVCGraphicImageTexture@@V?$allocator@PAVCGraphicImageTexture@@@std@@@std@@YAPAPAVCGraphicImageTexture@@QAPAV1@0PAPAV1@AAV?$allocator@PAVCGraphicImageTexture@@@0@@Z PROC ; std::_Uninitialized_move<CGraphicImageTexture * *,std::allocator<CGraphicImageTexture *> >, COMDAT

; 1685 :     const _InIt _First, const _InIt _Last, _Alloc_ptr_t<_Alloc> _Dest, _Alloc& _Al) {

  00000	55		 push	 ebp
  00001	8b ec		 mov	 ebp, esp
  00003	83 ec 0c	 sub	 esp, 12			; 0000000cH

; 1686 :     // move [_First, _Last) to raw _Dest, using _Al
; 1687 :     // note: only called internally from elsewhere in the STL
; 1688 :     using _Ptrval     = typename _Alloc::value_type*;
; 1689 :     auto _UFirst      = _Get_unwrapped(_First);

  00006	8b 45 08	 mov	 eax, DWORD PTR __First$[ebp]
  00009	89 45 f8	 mov	 DWORD PTR __UFirst$[ebp], eax

; 1690 :     const auto _ULast = _Get_unwrapped(_Last);

  0000c	8b 45 0c	 mov	 eax, DWORD PTR __Last$[ebp]
  0000f	89 45 fc	 mov	 DWORD PTR __ULast$[ebp], eax
; File C:\Program Files (x86)\Microsoft Visual Studio\2019\Community\VC\Tools\MSVC\14.28.29333\include\xstddef

; 289  :     return _Ptr;

  00012	8b 45 10	 mov	 eax, DWORD PTR __Dest$[ebp]
  00015	89 45 f4	 mov	 DWORD PTR $T1[ebp], eax
; File C:\Program Files (x86)\Microsoft Visual Studio\2019\Community\VC\Tools\MSVC\14.28.29333\include\xmemory

; 1693 :         _Copy_memmove(_UFirst, _ULast, _Unfancy(_Dest));

  00018	ff 75 f4	 push	 DWORD PTR $T1[ebp]
  0001b	ff 75 fc	 push	 DWORD PTR __ULast$[ebp]
  0001e	ff 75 f8	 push	 DWORD PTR __UFirst$[ebp]
  00021	e8 00 00 00 00	 call	 ??$_Copy_memmove@PAPAVCGraphicImageTexture@@PAPAV1@@std@@YAPAPAVCGraphicImageTexture@@PAPAV1@00@Z ; std::_Copy_memmove<CGraphicImageTexture * *,CGraphicImageTexture * *>
  00026	83 c4 0c	 add	 esp, 12			; 0000000cH

; 1694 :         return _Dest + (_ULast - _UFirst);

  00029	8b 45 fc	 mov	 eax, DWORD PTR __ULast$[ebp]
  0002c	2b 45 f8	 sub	 eax, DWORD PTR __UFirst$[ebp]
  0002f	c1 f8 02	 sar	 eax, 2
  00032	8b 4d 10	 mov	 ecx, DWORD PTR __Dest$[ebp]
  00035	8d 04 81	 lea	 eax, DWORD PTR [ecx+eax*4]

; 1695 :     } else {
; 1696 :         _Uninitialized_backout_al<_Alloc> _Backout{_Dest, _Al};
; 1697 :         for (; _UFirst != _ULast; ++_UFirst) {
; 1698 :             _Backout._Emplace_back(_STD move(*_UFirst));
; 1699 :         }
; 1700 : 
; 1701 :         return _Backout._Release();
; 1702 :     }
; 1703 : }

  00038	c9		 leave
  00039	c3		 ret	 0
??$_Uninitialized_move@PAPAVCGraphicImageTexture@@V?$allocator@PAVCGraphicImageTexture@@@std@@@std@@YAPAPAVCGraphicImageTexture@@QAPAV1@0PAPAV1@AAV?$allocator@PAVCGraphicImageTexture@@@0@@Z ENDP ; std::_Uninitialized_move<CGraphicImageTexture * *,std::allocator<CGraphicImageTexture *> >
_TEXT	ENDS
; Function compile flags: /Odspy
; File C:\Program Files (x86)\Microsoft Visual Studio\2019\Community\VC\Tools\MSVC\14.28.29333\include\xmemory
;	COMDAT ??$_Destroy_in_place@PAU?$_Tree_node@U?$pair@$$CBU?$pair@G_W@std@@USCharacterInfomation@CGraphicFontTexture@@@std@@PAX@std@@@std@@YAXAAPAU?$_Tree_node@U?$pair@$$CBU?$pair@G_W@std@@USCharacterInfomation@CGraphicFontTexture@@@std@@PAX@0@@Z
_TEXT	SEGMENT
__Obj$ = 8						; size = 4
??$_Destroy_in_place@PAU?$_Tree_node@U?$pair@$$CBU?$pair@G_W@std@@USCharacterInfomation@CGraphicFontTexture@@@std@@PAX@std@@@std@@YAXAAPAU?$_Tree_node@U?$pair@$$CBU?$pair@G_W@std@@USCharacterInfomation@CGraphicFontTexture@@@std@@PAX@0@@Z PROC ; std::_Destroy_in_place<std::_Tree_node<std::pair<std::pair<unsigned short,wchar_t> const ,CGraphicFontTexture::SCharacterInfomation>,void *> *>, COMDAT

; 270  : /* _CONSTEXPR20_DYNALLOC */ void _Destroy_in_place(_Ty& _Obj) noexcept {

  00000	55		 push	 ebp
  00001	8b ec		 mov	 ebp, esp

; 271  : #if _HAS_IF_CONSTEXPR
; 272  :     if constexpr (is_array_v<_Ty>) {
; 273  :         _Destroy_range(_Obj, _Obj + extent_v<_Ty>);
; 274  :     } else
; 275  : #endif // _HAS_IF_CONSTEXPR
; 276  :     {
; 277  :         _Obj.~_Ty();
; 278  :     }
; 279  : }

  00003	5d		 pop	 ebp
  00004	c3		 ret	 0
??$_Destroy_in_place@PAU?$_Tree_node@U?$pair@$$CBU?$pair@G_W@std@@USCharacterInfomation@CGraphicFontTexture@@@std@@PAX@std@@@std@@YAXAAPAU?$_Tree_node@U?$pair@$$CBU?$pair@G_W@std@@USCharacterInfomation@CGraphicFontTexture@@@std@@PAX@0@@Z ENDP ; std::_Destroy_in_place<std::_Tree_node<std::pair<std::pair<unsigned short,wchar_t> const ,CGraphicFontTexture::SCharacterInfomation>,void *> *>
_TEXT	ENDS
; Function compile flags: /Odspy
; File C:\Program Files (x86)\Microsoft Visual Studio\2019\Community\VC\Tools\MSVC\14.28.29333\include\xmemory
; File C:\Program Files (x86)\Microsoft Visual Studio\2019\Community\VC\Tools\MSVC\14.28.29333\include\xstddef
; File C:\Program Files (x86)\Microsoft Visual Studio\2019\Community\VC\Tools\MSVC\14.28.29333\include\vcruntime_new.h
; File C:\Program Files (x86)\Microsoft Visual Studio\2019\Community\VC\Tools\MSVC\14.28.29333\include\type_traits
; File C:\Program Files (x86)\Microsoft Visual Studio\2019\Community\VC\Tools\MSVC\14.28.29333\include\xmemory
;	COMDAT ??$_Construct_in_place@PAU?$_Tree_node@U?$pair@$$CBU?$pair@G_W@std@@USCharacterInfomation@CGraphicFontTexture@@@std@@PAX@std@@ABQAU12@@std@@YAXAAPAU?$_Tree_node@U?$pair@$$CBU?$pair@G_W@std@@USCharacterInfomation@CGraphicFontTexture@@@std@@PAX@0@ABQAU10@@Z
_TEXT	SEGMENT
$T1 = -12						; size = 4
$T2 = -8						; size = 4
$T3 = -4						; size = 4
__Obj$ = 8						; size = 4
_<_Args_0>$ = 12					; size = 4
??$_Construct_in_place@PAU?$_Tree_node@U?$pair@$$CBU?$pair@G_W@std@@USCharacterInfomation@CGraphicFontTexture@@@std@@PAX@std@@ABQAU12@@std@@YAXAAPAU?$_Tree_node@U?$pair@$$CBU?$pair@G_W@std@@USCharacterInfomation@CGraphicFontTexture@@@std@@PAX@0@ABQAU10@@Z PROC ; std::_Construct_in_place<std::_Tree_node<std::pair<std::pair<unsigned short,wchar_t> const ,CGraphicFontTexture::SCharacterInfomation>,void *> *,std::_Tree_node<std::pair<std::pair<unsigned short,wchar_t> const ,CGraphicFontTexture::SCharacterInfomation>,void *> * const &>, COMDAT

; 228  : void _Construct_in_place(_Ty& _Obj, _Types&&... _Args) noexcept(is_nothrow_constructible_v<_Ty, _Types...>) {

  00000	55		 push	 ebp
  00001	8b ec		 mov	 ebp, esp
  00003	83 ec 0c	 sub	 esp, 12			; 0000000cH
; File C:\Program Files (x86)\Microsoft Visual Studio\2019\Community\VC\Tools\MSVC\14.28.29333\include\xstddef

; 275  :     return __builtin_addressof(_Val);

  00006	8b 45 08	 mov	 eax, DWORD PTR __Obj$[ebp]
  00009	89 45 fc	 mov	 DWORD PTR $T3[ebp], eax
; File C:\Program Files (x86)\Microsoft Visual Studio\2019\Community\VC\Tools\MSVC\14.28.29333\include\vcruntime_new.h

; 169  :         return _Where;

  0000c	8b 45 fc	 mov	 eax, DWORD PTR $T3[ebp]
  0000f	89 45 f8	 mov	 DWORD PTR $T2[ebp], eax
; File C:\Program Files (x86)\Microsoft Visual Studio\2019\Community\VC\Tools\MSVC\14.28.29333\include\type_traits

; 1443 :     return static_cast<_Ty&&>(_Arg);

  00012	8b 45 0c	 mov	 eax, DWORD PTR _<_Args_0>$[ebp]
  00015	89 45 f4	 mov	 DWORD PTR $T1[ebp], eax
; File C:\Program Files (x86)\Microsoft Visual Studio\2019\Community\VC\Tools\MSVC\14.28.29333\include\xmemory

; 229  :     ::new (const_cast<void*>(static_cast<const volatile void*>(_STD addressof(_Obj))))

  00018	8b 45 f8	 mov	 eax, DWORD PTR $T2[ebp]
  0001b	8b 4d f4	 mov	 ecx, DWORD PTR $T1[ebp]
  0001e	8b 09		 mov	 ecx, DWORD PTR [ecx]
  00020	89 08		 mov	 DWORD PTR [eax], ecx

; 230  :         _Ty(_STD forward<_Types>(_Args)...);
; 231  : }

  00022	c9		 leave
  00023	c3		 ret	 0
??$_Construct_in_place@PAU?$_Tree_node@U?$pair@$$CBU?$pair@G_W@std@@USCharacterInfomation@CGraphicFontTexture@@@std@@PAX@std@@ABQAU12@@std@@YAXAAPAU?$_Tree_node@U?$pair@$$CBU?$pair@G_W@std@@USCharacterInfomation@CGraphicFontTexture@@@std@@PAX@0@ABQAU10@@Z ENDP ; std::_Construct_in_place<std::_Tree_node<std::pair<std::pair<unsigned short,wchar_t> const ,CGraphicFontTexture::SCharacterInfomation>,void *> *,std::_Tree_node<std::pair<std::pair<unsigned short,wchar_t> const ,CGraphicFontTexture::SCharacterInfomation>,void *> * const &>
_TEXT	ENDS
; Function compile flags: /Odspy
; File C:\Program Files (x86)\Microsoft Visual Studio\2019\Community\VC\Tools\MSVC\14.28.29333\include\xmemory
; File C:\Program Files (x86)\Microsoft Visual Studio\2019\Community\VC\Tools\MSVC\14.28.29333\include\xstddef
; File C:\Program Files (x86)\Microsoft Visual Studio\2019\Community\VC\Tools\MSVC\14.28.29333\include\vcruntime_new.h
; File C:\Program Files (x86)\Microsoft Visual Studio\2019\Community\VC\Tools\MSVC\14.28.29333\include\type_traits
; File C:\Program Files (x86)\Microsoft Visual Studio\2019\Community\VC\Tools\MSVC\14.28.29333\include\xmemory
;	COMDAT ??$_Construct_in_place@PAU?$_Tree_node@U?$pair@$$CBGPAUHFONT__@@@std@@PAX@std@@ABQAU12@@std@@YAXAAPAU?$_Tree_node@U?$pair@$$CBGPAUHFONT__@@@std@@PAX@0@ABQAU10@@Z
_TEXT	SEGMENT
$T1 = -12						; size = 4
$T2 = -8						; size = 4
$T3 = -4						; size = 4
__Obj$ = 8						; size = 4
_<_Args_0>$ = 12					; size = 4
??$_Construct_in_place@PAU?$_Tree_node@U?$pair@$$CBGPAUHFONT__@@@std@@PAX@std@@ABQAU12@@std@@YAXAAPAU?$_Tree_node@U?$pair@$$CBGPAUHFONT__@@@std@@PAX@0@ABQAU10@@Z PROC ; std::_Construct_in_place<std::_Tree_node<std::pair<unsigned short const ,HFONT__ *>,void *> *,std::_Tree_node<std::pair<unsigned short const ,HFONT__ *>,void *> * const &>, COMDAT

; 228  : void _Construct_in_place(_Ty& _Obj, _Types&&... _Args) noexcept(is_nothrow_constructible_v<_Ty, _Types...>) {

  00000	55		 push	 ebp
  00001	8b ec		 mov	 ebp, esp
  00003	83 ec 0c	 sub	 esp, 12			; 0000000cH
; File C:\Program Files (x86)\Microsoft Visual Studio\2019\Community\VC\Tools\MSVC\14.28.29333\include\xstddef

; 275  :     return __builtin_addressof(_Val);

  00006	8b 45 08	 mov	 eax, DWORD PTR __Obj$[ebp]
  00009	89 45 fc	 mov	 DWORD PTR $T3[ebp], eax
; File C:\Program Files (x86)\Microsoft Visual Studio\2019\Community\VC\Tools\MSVC\14.28.29333\include\vcruntime_new.h

; 169  :         return _Where;

  0000c	8b 45 fc	 mov	 eax, DWORD PTR $T3[ebp]
  0000f	89 45 f8	 mov	 DWORD PTR $T2[ebp], eax
; File C:\Program Files (x86)\Microsoft Visual Studio\2019\Community\VC\Tools\MSVC\14.28.29333\include\type_traits

; 1443 :     return static_cast<_Ty&&>(_Arg);

  00012	8b 45 0c	 mov	 eax, DWORD PTR _<_Args_0>$[ebp]
  00015	89 45 f4	 mov	 DWORD PTR $T1[ebp], eax
; File C:\Program Files (x86)\Microsoft Visual Studio\2019\Community\VC\Tools\MSVC\14.28.29333\include\xmemory

; 229  :     ::new (const_cast<void*>(static_cast<const volatile void*>(_STD addressof(_Obj))))

  00018	8b 45 f8	 mov	 eax, DWORD PTR $T2[ebp]
  0001b	8b 4d f4	 mov	 ecx, DWORD PTR $T1[ebp]
  0001e	8b 09		 mov	 ecx, DWORD PTR [ecx]
  00020	89 08		 mov	 DWORD PTR [eax], ecx

; 230  :         _Ty(_STD forward<_Types>(_Args)...);
; 231  : }

  00022	c9		 leave
  00023	c3		 ret	 0
??$_Construct_in_place@PAU?$_Tree_node@U?$pair@$$CBGPAUHFONT__@@@std@@PAX@std@@ABQAU12@@std@@YAXAAPAU?$_Tree_node@U?$pair@$$CBGPAUHFONT__@@@std@@PAX@0@ABQAU10@@Z ENDP ; std::_Construct_in_place<std::_Tree_node<std::pair<unsigned short const ,HFONT__ *>,void *> *,std::_Tree_node<std::pair<unsigned short const ,HFONT__ *>,void *> * const &>
_TEXT	ENDS
; Function compile flags: /Odspy
; File C:\Program Files (x86)\Microsoft Visual Studio\2019\Community\VC\Tools\MSVC\14.28.29333\include\xtree
; File C:\Program Files (x86)\Microsoft Visual Studio\2019\Community\VC\Tools\MSVC\14.28.29333\include\xmemory
; File C:\Program Files (x86)\Microsoft Visual Studio\2019\Community\VC\Tools\MSVC\14.28.29333\include\xtree
;	COMDAT ??$_Freenode0@V?$allocator@U?$_Tree_node@U?$pair@$$CBU?$pair@G_W@std@@USCharacterInfomation@CGraphicFontTexture@@@std@@PAX@std@@@std@@@?$_Tree_node@U?$pair@$$CBU?$pair@G_W@std@@USCharacterInfomation@CGraphicFontTexture@@@std@@PAX@std@@SAXAAV?$allocator@U?$_Tree_node@U?$pair@$$CBU?$pair@G_W@std@@USCharacterInfomation@CGraphicFontTexture@@@std@@PAX@std@@@1@PAU01@@Z
_TEXT	SEGMENT
__Al$ = 8						; size = 4
__Ptr$ = 12						; size = 4
??$_Freenode0@V?$allocator@U?$_Tree_node@U?$pair@$$CBU?$pair@G_W@std@@USCharacterInfomation@CGraphicFontTexture@@@std@@PAX@std@@@std@@@?$_Tree_node@U?$pair@$$CBU?$pair@G_W@std@@USCharacterInfomation@CGraphicFontTexture@@@std@@PAX@std@@SAXAAV?$allocator@U?$_Tree_node@U?$pair@$$CBU?$pair@G_W@std@@USCharacterInfomation@CGraphicFontTexture@@@std@@PAX@std@@@1@PAU01@@Z PROC ; std::_Tree_node<std::pair<std::pair<unsigned short,wchar_t> const ,CGraphicFontTexture::SCharacterInfomation>,void *>::_Freenode0<std::allocator<std::_Tree_node<std::pair<std::pair<unsigned short,wchar_t> const ,CGraphicFontTexture::SCharacterInfomation>,void *> > >, COMDAT

; 368  :     static void _Freenode0(_Alloc& _Al, _Nodeptr _Ptr) noexcept {

  00000	55		 push	 ebp
  00001	8b ec		 mov	 ebp, esp

; 369  :         static_assert(is_same_v<typename _Alloc::value_type, _Tree_node>, "Bad _Freenode0 call");
; 370  :         _Destroy_in_place(_Ptr->_Left);

  00003	ff 75 0c	 push	 DWORD PTR __Ptr$[ebp]
  00006	e8 00 00 00 00	 call	 ??$_Destroy_in_place@PAU?$_Tree_node@U?$pair@$$CBU?$pair@G_W@std@@USCharacterInfomation@CGraphicFontTexture@@@std@@PAX@std@@@std@@YAXAAPAU?$_Tree_node@U?$pair@$$CBU?$pair@G_W@std@@USCharacterInfomation@CGraphicFontTexture@@@std@@PAX@0@@Z ; std::_Destroy_in_place<std::_Tree_node<std::pair<std::pair<unsigned short,wchar_t> const ,CGraphicFontTexture::SCharacterInfomation>,void *> *>
  0000b	59		 pop	 ecx

; 371  :         _Destroy_in_place(_Ptr->_Parent);

  0000c	8b 45 0c	 mov	 eax, DWORD PTR __Ptr$[ebp]
  0000f	83 c0 04	 add	 eax, 4
  00012	50		 push	 eax
  00013	e8 00 00 00 00	 call	 ??$_Destroy_in_place@PAU?$_Tree_node@U?$pair@$$CBU?$pair@G_W@std@@USCharacterInfomation@CGraphicFontTexture@@@std@@PAX@std@@@std@@YAXAAPAU?$_Tree_node@U?$pair@$$CBU?$pair@G_W@std@@USCharacterInfomation@CGraphicFontTexture@@@std@@PAX@0@@Z ; std::_Destroy_in_place<std::_Tree_node<std::pair<std::pair<unsigned short,wchar_t> const ,CGraphicFontTexture::SCharacterInfomation>,void *> *>
  00018	59		 pop	 ecx

; 372  :         _Destroy_in_place(_Ptr->_Right);

  00019	8b 45 0c	 mov	 eax, DWORD PTR __Ptr$[ebp]
  0001c	83 c0 08	 add	 eax, 8
  0001f	50		 push	 eax
  00020	e8 00 00 00 00	 call	 ??$_Destroy_in_place@PAU?$_Tree_node@U?$pair@$$CBU?$pair@G_W@std@@USCharacterInfomation@CGraphicFontTexture@@@std@@PAX@std@@@std@@YAXAAPAU?$_Tree_node@U?$pair@$$CBU?$pair@G_W@std@@USCharacterInfomation@CGraphicFontTexture@@@std@@PAX@0@@Z ; std::_Destroy_in_place<std::_Tree_node<std::pair<std::pair<unsigned short,wchar_t> const ,CGraphicFontTexture::SCharacterInfomation>,void *> *>
  00025	59		 pop	 ecx
; File C:\Program Files (x86)\Microsoft Visual Studio\2019\Community\VC\Tools\MSVC\14.28.29333\include\xmemory

; 696  :         _Deallocate<_New_alignof<value_type>>(_Ptr, sizeof(value_type) * _Count);

  00026	33 c0		 xor	 eax, eax
  00028	40		 inc	 eax
  00029	6b c0 30	 imul	 eax, eax, 48
  0002c	50		 push	 eax
  0002d	ff 75 0c	 push	 DWORD PTR __Ptr$[ebp]
  00030	e8 00 00 00 00	 call	 ??$_Deallocate@$07$0A@@std@@YAXPAXI@Z ; std::_Deallocate<8,0>
  00035	59		 pop	 ecx
  00036	59		 pop	 ecx
; File C:\Program Files (x86)\Microsoft Visual Studio\2019\Community\VC\Tools\MSVC\14.28.29333\include\xtree

; 374  :     }

  00037	5d		 pop	 ebp
  00038	c3		 ret	 0
??$_Freenode0@V?$allocator@U?$_Tree_node@U?$pair@$$CBU?$pair@G_W@std@@USCharacterInfomation@CGraphicFontTexture@@@std@@PAX@std@@@std@@@?$_Tree_node@U?$pair@$$CBU?$pair@G_W@std@@USCharacterInfomation@CGraphicFontTexture@@@std@@PAX@std@@SAXAAV?$allocator@U?$_Tree_node@U?$pair@$$CBU?$pair@G_W@std@@USCharacterInfomation@CGraphicFontTexture@@@std@@PAX@std@@@1@PAU01@@Z ENDP ; std::_Tree_node<std::pair<std::pair<unsigned short,wchar_t> const ,CGraphicFontTexture::SCharacterInfomation>,void *>::_Freenode0<std::allocator<std::_Tree_node<std::pair<std::pair<unsigned short,wchar_t> const ,CGraphicFontTexture::SCharacterInfomation>,void *> > >
_TEXT	ENDS
; Function compile flags: /Odspy
; File C:\Program Files (x86)\Microsoft Visual Studio\2019\Community\VC\Tools\MSVC\14.28.29333\include\xtree
; File C:\Program Files (x86)\Microsoft Visual Studio\2019\Community\VC\Tools\MSVC\14.28.29333\include\xmemory
; File C:\Program Files (x86)\Microsoft Visual Studio\2019\Community\VC\Tools\MSVC\14.28.29333\include\xtree
; File C:\Program Files (x86)\Microsoft Visual Studio\2019\Community\VC\Tools\MSVC\14.28.29333\include\type_traits
; File C:\Program Files (x86)\Microsoft Visual Studio\2019\Community\VC\Tools\MSVC\14.28.29333\include\xtree
; File C:\Program Files (x86)\Microsoft Visual Studio\2019\Community\VC\Tools\MSVC\14.28.29333\include\xstddef
; File C:\Program Files (x86)\Microsoft Visual Studio\2019\Community\VC\Tools\MSVC\14.28.29333\include\xtree
;	COMDAT ??$?0ABUpiecewise_construct_t@std@@V?$tuple@ABU?$pair@G_W@std@@@1@V?$tuple@$$V@1@@?$_Tree_temp_node@V?$allocator@U?$_Tree_node@U?$pair@$$CBU?$pair@G_W@std@@USCharacterInfomation@CGraphicFontTexture@@@std@@PAX@std@@@std@@@std@@QAE@AAV?$allocator@U?$_Tree_node@U?$pair@$$CBU?$pair@G_W@std@@USCharacterInfomation@CGraphicFontTexture@@@std@@PAX@std@@@1@PAU?$_Tree_node@U?$pair@$$CBU?$pair@G_W@std@@USCharacterInfomation@CGraphicFontTexture@@@std@@PAX@1@ABUpiecewise_construct_t@1@$$QAV?$tuple@ABU?$pair@G_W@std@@@1@$$QAV?$tuple@$$V@1@@Z
_TEXT	SEGMENT
$T2 = -36						; size = 4
$T3 = -32						; size = 4
$T4 = -28						; size = 4
$T5 = -24						; size = 4
__Val$ = -20						; size = 4
_this$ = -16						; size = 4
__$EHRec$ = -12						; size = 12
__Al_$ = 8						; size = 4
__Myhead$ = 12						; size = 4
_<_Vals_0>$ = 16					; size = 4
_<_Vals_1>$ = 20					; size = 4
_<_Vals_2>$ = 24					; size = 4
??$?0ABUpiecewise_construct_t@std@@V?$tuple@ABU?$pair@G_W@std@@@1@V?$tuple@$$V@1@@?$_Tree_temp_node@V?$allocator@U?$_Tree_node@U?$pair@$$CBU?$pair@G_W@std@@USCharacterInfomation@CGraphicFontTexture@@@std@@PAX@std@@@std@@@std@@QAE@AAV?$allocator@U?$_Tree_node@U?$pair@$$CBU?$pair@G_W@std@@USCharacterInfomation@CGraphicFontTexture@@@std@@PAX@std@@@1@PAU?$_Tree_node@U?$pair@$$CBU?$pair@G_W@std@@USCharacterInfomation@CGraphicFontTexture@@@std@@PAX@1@ABUpiecewise_construct_t@1@$$QAV?$tuple@ABU?$pair@G_W@std@@@1@$$QAV?$tuple@$$V@1@@Z PROC ; std::_Tree_temp_node<std::allocator<std::_Tree_node<std::pair<std::pair<unsigned short,wchar_t> const ,CGraphicFontTexture::SCharacterInfomation>,void *> > >::_Tree_temp_node<std::allocator<std::_Tree_node<std::pair<std::pair<unsigned short,wchar_t> const ,CGraphicFontTexture::SCharacterInfomation>,void *> > ><std::piecewise_construct_t const &,std::tuple<std::pair<unsigned short,wchar_t> const &>,std::tuple<> >, COMDAT
; _this$ = ecx

; 805  :         : _Tree_temp_node_alloc<_Alnode>(_Al_) {

  00000	55		 push	 ebp
  00001	8b ec		 mov	 ebp, esp
  00003	6a ff		 push	 -1
  00005	68 00 00 00 00	 push	 __ehhandler$??$?0ABUpiecewise_construct_t@std@@V?$tuple@ABU?$pair@G_W@std@@@1@V?$tuple@$$V@1@@?$_Tree_temp_node@V?$allocator@U?$_Tree_node@U?$pair@$$CBU?$pair@G_W@std@@USCharacterInfomation@CGraphicFontTexture@@@std@@PAX@std@@@std@@@std@@QAE@AAV?$allocator@U?$_Tree_node@U?$pair@$$CBU?$pair@G_W@std@@USCharacterInfomation@CGraphicFontTexture@@@std@@PAX@std@@@1@PAU?$_Tree_node@U?$pair@$$CBU?$pair@G_W@std@@USCharacterInfomation@CGraphicFontTexture@@@std@@PAX@1@ABUpiecewise_construct_t@1@$$QAV?$tuple@ABU?$pair@G_W@std@@@1@$$QAV?$tuple@$$V@1@@Z
  0000a	64 a1 00 00 00
	00		 mov	 eax, DWORD PTR fs:0
  00010	50		 push	 eax
  00011	83 ec 18	 sub	 esp, 24			; 00000018H
  00014	a1 00 00 00 00	 mov	 eax, DWORD PTR ___security_cookie
  00019	33 c5		 xor	 eax, ebp
  0001b	50		 push	 eax
  0001c	8d 45 f4	 lea	 eax, DWORD PTR __$EHRec$[ebp]
  0001f	64 a3 00 00 00
	00		 mov	 DWORD PTR fs:0, eax
  00025	89 4d f0	 mov	 DWORD PTR _this$[ebp], ecx
; File C:\Program Files (x86)\Microsoft Visual Studio\2019\Community\VC\Tools\MSVC\14.28.29333\include\xmemory

; 1045 :     explicit _Alloc_construct_ptr(_Alloc& _Al_) : _Al(_Al_), _Ptr(nullptr) {}

  00028	8b 45 f0	 mov	 eax, DWORD PTR _this$[ebp]
  0002b	8b 4d 08	 mov	 ecx, DWORD PTR __Al_$[ebp]
  0002e	89 08		 mov	 DWORD PTR [eax], ecx
  00030	8b 45 f0	 mov	 eax, DWORD PTR _this$[ebp]
  00033	83 60 04 00	 and	 DWORD PTR [eax+4], 0
; File C:\Program Files (x86)\Microsoft Visual Studio\2019\Community\VC\Tools\MSVC\14.28.29333\include\xtree

; 784  :     explicit _Tree_temp_node_alloc(_Alnode& _Al_) : _Alloc_construct_ptr<_Alnode>(_Al_) {

  00037	83 65 fc 00	 and	 DWORD PTR __$EHRec$[ebp+8], 0

; 785  :         _Alloc_construct_ptr<_Alnode>::_Allocate();

  0003b	8b 4d f0	 mov	 ecx, DWORD PTR _this$[ebp]
  0003e	e8 00 00 00 00	 call	 ?_Allocate@?$_Alloc_construct_ptr@V?$allocator@U?$_Tree_node@U?$pair@$$CBU?$pair@G_W@std@@USCharacterInfomation@CGraphicFontTexture@@@std@@PAX@std@@@std@@@std@@QAEXXZ ; std::_Alloc_construct_ptr<std::allocator<std::_Tree_node<std::pair<std::pair<unsigned short,wchar_t> const ,CGraphicFontTexture::SCharacterInfomation>,void *> > >::_Allocate

; 805  :         : _Tree_temp_node_alloc<_Alnode>(_Al_) {

  00043	c7 45 fc 01 00
	00 00		 mov	 DWORD PTR __$EHRec$[ebp+8], 1
; File C:\Program Files (x86)\Microsoft Visual Studio\2019\Community\VC\Tools\MSVC\14.28.29333\include\type_traits

; 1443 :     return static_cast<_Ty&&>(_Arg);

  0004a	8b 45 18	 mov	 eax, DWORD PTR _<_Vals_2>$[ebp]
  0004d	89 45 e8	 mov	 DWORD PTR $T5[ebp], eax
  00050	8b 45 14	 mov	 eax, DWORD PTR _<_Vals_1>$[ebp]
  00053	89 45 e4	 mov	 DWORD PTR $T4[ebp], eax
  00056	8b 45 10	 mov	 eax, DWORD PTR _<_Vals_0>$[ebp]
  00059	89 45 e0	 mov	 DWORD PTR $T3[ebp], eax
; File C:\Program Files (x86)\Microsoft Visual Studio\2019\Community\VC\Tools\MSVC\14.28.29333\include\xtree

; 806  :         _Alnode_traits::construct(this->_Al, _STD addressof(this->_Ptr->_Myval), _STD forward<_Valtys>(_Vals)...);

  0005c	8b 45 f0	 mov	 eax, DWORD PTR _this$[ebp]
  0005f	8b 40 04	 mov	 eax, DWORD PTR [eax+4]
  00062	83 c0 10	 add	 eax, 16			; 00000010H
  00065	89 45 ec	 mov	 DWORD PTR __Val$[ebp], eax
; File C:\Program Files (x86)\Microsoft Visual Studio\2019\Community\VC\Tools\MSVC\14.28.29333\include\xstddef

; 275  :     return __builtin_addressof(_Val);

  00068	8b 45 ec	 mov	 eax, DWORD PTR __Val$[ebp]
  0006b	89 45 dc	 mov	 DWORD PTR $T2[ebp], eax
; File C:\Program Files (x86)\Microsoft Visual Studio\2019\Community\VC\Tools\MSVC\14.28.29333\include\xtree

; 806  :         _Alnode_traits::construct(this->_Al, _STD addressof(this->_Ptr->_Myval), _STD forward<_Valtys>(_Vals)...);

  0006e	ff 75 e8	 push	 DWORD PTR $T5[ebp]
  00071	ff 75 e4	 push	 DWORD PTR $T4[ebp]
  00074	ff 75 e0	 push	 DWORD PTR $T3[ebp]
  00077	ff 75 dc	 push	 DWORD PTR $T2[ebp]
  0007a	8b 45 f0	 mov	 eax, DWORD PTR _this$[ebp]
  0007d	ff 30		 push	 DWORD PTR [eax]
  0007f	e8 00 00 00 00	 call	 ??$construct@U?$pair@$$CBU?$pair@G_W@std@@USCharacterInfomation@CGraphicFontTexture@@@std@@ABUpiecewise_construct_t@2@V?$tuple@ABU?$pair@G_W@std@@@2@V?$tuple@$$V@2@@?$_Default_allocator_traits@V?$allocator@U?$_Tree_node@U?$pair@$$CBU?$pair@G_W@std@@USCharacterInfomation@CGraphicFontTexture@@@std@@PAX@std@@@std@@@std@@SAXAAV?$allocator@U?$_Tree_node@U?$pair@$$CBU?$pair@G_W@std@@USCharacterInfomation@CGraphicFontTexture@@@std@@PAX@std@@@1@QAU?$pair@$$CBU?$pair@G_W@std@@USCharacterInfomation@CGraphicFontTexture@@@1@ABUpiecewise_construct_t@1@$$QAV?$tuple@ABU?$pair@G_W@std@@@1@$$QAV?$tuple@$$V@1@@Z ; std::_Default_allocator_traits<std::allocator<std::_Tree_node<std::pair<std::pair<unsigned short,wchar_t> const ,CGraphicFontTexture::SCharacterInfomation>,void *> > >::construct<std::pair<std::pair<unsigned short,wchar_t> const ,CGraphicFontTexture::SCharacterInfomation>,std::piecewise_construct_t const &,std::tuple<std::pair<unsigned short,wchar_t> const &>,std::tuple<> >
  00084	83 c4 14	 add	 esp, 20			; 00000014H

; 807  :         _Construct_in_place(this->_Ptr->_Left, _Myhead);

  00087	8d 45 0c	 lea	 eax, DWORD PTR __Myhead$[ebp]
  0008a	50		 push	 eax
  0008b	8b 45 f0	 mov	 eax, DWORD PTR _this$[ebp]
  0008e	ff 70 04	 push	 DWORD PTR [eax+4]
  00091	e8 00 00 00 00	 call	 ??$_Construct_in_place@PAU?$_Tree_node@U?$pair@$$CBU?$pair@G_W@std@@USCharacterInfomation@CGraphicFontTexture@@@std@@PAX@std@@AAPAU12@@std@@YAXAAPAU?$_Tree_node@U?$pair@$$CBU?$pair@G_W@std@@USCharacterInfomation@CGraphicFontTexture@@@std@@PAX@0@0@Z ; std::_Construct_in_place<std::_Tree_node<std::pair<std::pair<unsigned short,wchar_t> const ,CGraphicFontTexture::SCharacterInfomation>,void *> *,std::_Tree_node<std::pair<std::pair<unsigned short,wchar_t> const ,CGraphicFontTexture::SCharacterInfomation>,void *> * &>
  00096	59		 pop	 ecx
  00097	59		 pop	 ecx

; 808  :         _Construct_in_place(this->_Ptr->_Parent, _Myhead);

  00098	8d 45 0c	 lea	 eax, DWORD PTR __Myhead$[ebp]
  0009b	50		 push	 eax
  0009c	8b 45 f0	 mov	 eax, DWORD PTR _this$[ebp]
  0009f	8b 40 04	 mov	 eax, DWORD PTR [eax+4]
  000a2	83 c0 04	 add	 eax, 4
  000a5	50		 push	 eax
  000a6	e8 00 00 00 00	 call	 ??$_Construct_in_place@PAU?$_Tree_node@U?$pair@$$CBU?$pair@G_W@std@@USCharacterInfomation@CGraphicFontTexture@@@std@@PAX@std@@AAPAU12@@std@@YAXAAPAU?$_Tree_node@U?$pair@$$CBU?$pair@G_W@std@@USCharacterInfomation@CGraphicFontTexture@@@std@@PAX@0@0@Z ; std::_Construct_in_place<std::_Tree_node<std::pair<std::pair<unsigned short,wchar_t> const ,CGraphicFontTexture::SCharacterInfomation>,void *> *,std::_Tree_node<std::pair<std::pair<unsigned short,wchar_t> const ,CGraphicFontTexture::SCharacterInfomation>,void *> * &>
  000ab	59		 pop	 ecx
  000ac	59		 pop	 ecx

; 809  :         _Construct_in_place(this->_Ptr->_Right, _Myhead);

  000ad	8d 45 0c	 lea	 eax, DWORD PTR __Myhead$[ebp]
  000b0	50		 push	 eax
  000b1	8b 45 f0	 mov	 eax, DWORD PTR _this$[ebp]
  000b4	8b 40 04	 mov	 eax, DWORD PTR [eax+4]
  000b7	83 c0 08	 add	 eax, 8
  000ba	50		 push	 eax
  000bb	e8 00 00 00 00	 call	 ??$_Construct_in_place@PAU?$_Tree_node@U?$pair@$$CBU?$pair@G_W@std@@USCharacterInfomation@CGraphicFontTexture@@@std@@PAX@std@@AAPAU12@@std@@YAXAAPAU?$_Tree_node@U?$pair@$$CBU?$pair@G_W@std@@USCharacterInfomation@CGraphicFontTexture@@@std@@PAX@0@0@Z ; std::_Construct_in_place<std::_Tree_node<std::pair<std::pair<unsigned short,wchar_t> const ,CGraphicFontTexture::SCharacterInfomation>,void *> *,std::_Tree_node<std::pair<std::pair<unsigned short,wchar_t> const ,CGraphicFontTexture::SCharacterInfomation>,void *> * &>
  000c0	59		 pop	 ecx
  000c1	59		 pop	 ecx

; 810  :         this->_Ptr->_Color = _Red;

  000c2	8b 45 f0	 mov	 eax, DWORD PTR _this$[ebp]
  000c5	8b 40 04	 mov	 eax, DWORD PTR [eax+4]
  000c8	c6 40 0c 00	 mov	 BYTE PTR [eax+12], 0

; 811  :         this->_Ptr->_Isnil = false;

  000cc	8b 45 f0	 mov	 eax, DWORD PTR _this$[ebp]
  000cf	8b 40 04	 mov	 eax, DWORD PTR [eax+4]
  000d2	c6 40 0d 00	 mov	 BYTE PTR [eax+13], 0

; 812  :     }

  000d6	83 4d fc ff	 or	 DWORD PTR __$EHRec$[ebp+8], -1
  000da	8b 45 f0	 mov	 eax, DWORD PTR _this$[ebp]
  000dd	8b 4d f4	 mov	 ecx, DWORD PTR __$EHRec$[ebp]
  000e0	64 89 0d 00 00
	00 00		 mov	 DWORD PTR fs:0, ecx
  000e7	59		 pop	 ecx
  000e8	c9		 leave
  000e9	c2 14 00	 ret	 20			; 00000014H
_TEXT	ENDS
;	COMDAT text$x
text$x	SEGMENT
__unwindfunclet$??$?0ABUpiecewise_construct_t@std@@V?$tuple@ABU?$pair@G_W@std@@@1@V?$tuple@$$V@1@@?$_Tree_temp_node@V?$allocator@U?$_Tree_node@U?$pair@$$CBU?$pair@G_W@std@@USCharacterInfomation@CGraphicFontTexture@@@std@@PAX@std@@@std@@@std@@QAE@AAV?$allocator@U?$_Tree_node@U?$pair@$$CBU?$pair@G_W@std@@USCharacterInfomation@CGraphicFontTexture@@@std@@PAX@std@@@1@PAU?$_Tree_node@U?$pair@$$CBU?$pair@G_W@std@@USCharacterInfomation@CGraphicFontTexture@@@std@@PAX@1@ABUpiecewise_construct_t@1@$$QAV?$tuple@ABU?$pair@G_W@std@@@1@$$QAV?$tuple@$$V@1@@Z$1:
  00000	8b 4d f0	 mov	 ecx, DWORD PTR _this$[ebp]
  00003	e9 00 00 00 00	 jmp	 ??1?$_Alloc_construct_ptr@V?$allocator@U?$_Tree_node@U?$pair@$$CBU?$pair@G_W@std@@USCharacterInfomation@CGraphicFontTexture@@@std@@PAX@std@@@std@@@std@@QAE@XZ ; std::_Alloc_construct_ptr<std::allocator<std::_Tree_node<std::pair<std::pair<unsigned short,wchar_t> const ,CGraphicFontTexture::SCharacterInfomation>,void *> > >::~_Alloc_construct_ptr<std::allocator<std::_Tree_node<std::pair<std::pair<unsigned short,wchar_t> const ,CGraphicFontTexture::SCharacterInfomation>,void *> > >
__unwindfunclet$??$?0ABUpiecewise_construct_t@std@@V?$tuple@ABU?$pair@G_W@std@@@1@V?$tuple@$$V@1@@?$_Tree_temp_node@V?$allocator@U?$_Tree_node@U?$pair@$$CBU?$pair@G_W@std@@USCharacterInfomation@CGraphicFontTexture@@@std@@PAX@std@@@std@@@std@@QAE@AAV?$allocator@U?$_Tree_node@U?$pair@$$CBU?$pair@G_W@std@@USCharacterInfomation@CGraphicFontTexture@@@std@@PAX@std@@@1@PAU?$_Tree_node@U?$pair@$$CBU?$pair@G_W@std@@USCharacterInfomation@CGraphicFontTexture@@@std@@PAX@1@ABUpiecewise_construct_t@1@$$QAV?$tuple@ABU?$pair@G_W@std@@@1@$$QAV?$tuple@$$V@1@@Z$0:
  00008	8b 4d f0	 mov	 ecx, DWORD PTR _this$[ebp]
  0000b	e9 00 00 00 00	 jmp	 ??1?$_Tree_temp_node_alloc@V?$allocator@U?$_Tree_node@U?$pair@$$CBU?$pair@G_W@std@@USCharacterInfomation@CGraphicFontTexture@@@std@@PAX@std@@@std@@@std@@QAE@XZ
  00010	cc		 int	 3
  00011	cc		 int	 3
  00012	cc		 int	 3
  00013	cc		 int	 3
  00014	cc		 int	 3
__ehhandler$??$?0ABUpiecewise_construct_t@std@@V?$tuple@ABU?$pair@G_W@std@@@1@V?$tuple@$$V@1@@?$_Tree_temp_node@V?$allocator@U?$_Tree_node@U?$pair@$$CBU?$pair@G_W@std@@USCharacterInfomation@CGraphicFontTexture@@@std@@PAX@std@@@std@@@std@@QAE@AAV?$allocator@U?$_Tree_node@U?$pair@$$CBU?$pair@G_W@std@@USCharacterInfomation@CGraphicFontTexture@@@std@@PAX@std@@@1@PAU?$_Tree_node@U?$pair@$$CBU?$pair@G_W@std@@USCharacterInfomation@CGraphicFontTexture@@@std@@PAX@1@ABUpiecewise_construct_t@1@$$QAV?$tuple@ABU?$pair@G_W@std@@@1@$$QAV?$tuple@$$V@1@@Z:
  00015	90		 npad	 1
  00016	90		 npad	 1
  00017	8b 54 24 08	 mov	 edx, DWORD PTR [esp+8]
  0001b	8d 42 0c	 lea	 eax, DWORD PTR [edx+12]
  0001e	8b 4a e4	 mov	 ecx, DWORD PTR [edx-28]
  00021	33 c8		 xor	 ecx, eax
  00023	e8 00 00 00 00	 call	 @__security_check_cookie@4
  00028	b8 00 00 00 00	 mov	 eax, OFFSET __ehfuncinfo$??$?0ABUpiecewise_construct_t@std@@V?$tuple@ABU?$pair@G_W@std@@@1@V?$tuple@$$V@1@@?$_Tree_temp_node@V?$allocator@U?$_Tree_node@U?$pair@$$CBU?$pair@G_W@std@@USCharacterInfomation@CGraphicFontTexture@@@std@@PAX@std@@@std@@@std@@QAE@AAV?$allocator@U?$_Tree_node@U?$pair@$$CBU?$pair@G_W@std@@USCharacterInfomation@CGraphicFontTexture@@@std@@PAX@std@@@1@PAU?$_Tree_node@U?$pair@$$CBU?$pair@G_W@std@@USCharacterInfomation@CGraphicFontTexture@@@std@@PAX@1@ABUpiecewise_construct_t@1@$$QAV?$tuple@ABU?$pair@G_W@std@@@1@$$QAV?$tuple@$$V@1@@Z
  0002d	e9 00 00 00 00	 jmp	 ___CxxFrameHandler3
text$x	ENDS
??$?0ABUpiecewise_construct_t@std@@V?$tuple@ABU?$pair@G_W@std@@@1@V?$tuple@$$V@1@@?$_Tree_temp_node@V?$allocator@U?$_Tree_node@U?$pair@$$CBU?$pair@G_W@std@@USCharacterInfomation@CGraphicFontTexture@@@std@@PAX@std@@@std@@@std@@QAE@AAV?$allocator@U?$_Tree_node@U?$pair@$$CBU?$pair@G_W@std@@USCharacterInfomation@CGraphicFontTexture@@@std@@PAX@std@@@1@PAU?$_Tree_node@U?$pair@$$CBU?$pair@G_W@std@@USCharacterInfomation@CGraphicFontTexture@@@std@@PAX@1@ABUpiecewise_construct_t@1@$$QAV?$tuple@ABU?$pair@G_W@std@@@1@$$QAV?$tuple@$$V@1@@Z ENDP ; std::_Tree_temp_node<std::allocator<std::_Tree_node<std::pair<std::pair<unsigned short,wchar_t> const ,CGraphicFontTexture::SCharacterInfomation>,void *> > >::_Tree_temp_node<std::allocator<std::_Tree_node<std::pair<std::pair<unsigned short,wchar_t> const ,CGraphicFontTexture::SCharacterInfomation>,void *> > ><std::piecewise_construct_t const &,std::tuple<std::pair<unsigned short,wchar_t> const &>,std::tuple<> >
; Function compile flags: /Odspy
; File C:\Program Files (x86)\Microsoft Visual Studio\2019\Community\VC\Tools\MSVC\14.28.29333\include\xtree
; File C:\Program Files (x86)\Microsoft Visual Studio\2019\Community\VC\Tools\MSVC\14.28.29333\include\xstddef
; File C:\Program Files (x86)\Microsoft Visual Studio\2019\Community\VC\Tools\MSVC\14.28.29333\include\xtree
;	COMDAT ??1?$_Tree_temp_node@V?$allocator@U?$_Tree_node@U?$pair@$$CBU?$pair@G_W@std@@USCharacterInfomation@CGraphicFontTexture@@@std@@PAX@std@@@std@@@std@@QAE@XZ
_TEXT	SEGMENT
$T1 = -12						; size = 4
__Val$ = -8						; size = 4
_this$ = -4						; size = 4
??1?$_Tree_temp_node@V?$allocator@U?$_Tree_node@U?$pair@$$CBU?$pair@G_W@std@@USCharacterInfomation@CGraphicFontTexture@@@std@@PAX@std@@@std@@@std@@QAE@XZ PROC ; std::_Tree_temp_node<std::allocator<std::_Tree_node<std::pair<std::pair<unsigned short,wchar_t> const ,CGraphicFontTexture::SCharacterInfomation>,void *> > >::~_Tree_temp_node<std::allocator<std::_Tree_node<std::pair<std::pair<unsigned short,wchar_t> const ,CGraphicFontTexture::SCharacterInfomation>,void *> > >, COMDAT
; _this$ = ecx

; 817  :     ~_Tree_temp_node() {

  00000	55		 push	 ebp
  00001	8b ec		 mov	 ebp, esp
  00003	83 ec 0c	 sub	 esp, 12			; 0000000cH
  00006	89 4d fc	 mov	 DWORD PTR _this$[ebp], ecx

; 818  :         if (this->_Ptr) {

  00009	8b 45 fc	 mov	 eax, DWORD PTR _this$[ebp]
  0000c	83 78 04 00	 cmp	 DWORD PTR [eax+4], 0
  00010	74 3e		 je	 SHORT $LN9@Tree_temp_

; 819  :             _Destroy_in_place(this->_Ptr->_Left);

  00012	8b 45 fc	 mov	 eax, DWORD PTR _this$[ebp]
  00015	ff 70 04	 push	 DWORD PTR [eax+4]
  00018	e8 00 00 00 00	 call	 ??$_Destroy_in_place@PAU?$_Tree_node@U?$pair@$$CBU?$pair@G_W@std@@USCharacterInfomation@CGraphicFontTexture@@@std@@PAX@std@@@std@@YAXAAPAU?$_Tree_node@U?$pair@$$CBU?$pair@G_W@std@@USCharacterInfomation@CGraphicFontTexture@@@std@@PAX@0@@Z ; std::_Destroy_in_place<std::_Tree_node<std::pair<std::pair<unsigned short,wchar_t> const ,CGraphicFontTexture::SCharacterInfomation>,void *> *>
  0001d	59		 pop	 ecx

; 820  :             _Destroy_in_place(this->_Ptr->_Parent);

  0001e	8b 45 fc	 mov	 eax, DWORD PTR _this$[ebp]
  00021	8b 40 04	 mov	 eax, DWORD PTR [eax+4]
  00024	83 c0 04	 add	 eax, 4
  00027	50		 push	 eax
  00028	e8 00 00 00 00	 call	 ??$_Destroy_in_place@PAU?$_Tree_node@U?$pair@$$CBU?$pair@G_W@std@@USCharacterInfomation@CGraphicFontTexture@@@std@@PAX@std@@@std@@YAXAAPAU?$_Tree_node@U?$pair@$$CBU?$pair@G_W@std@@USCharacterInfomation@CGraphicFontTexture@@@std@@PAX@0@@Z ; std::_Destroy_in_place<std::_Tree_node<std::pair<std::pair<unsigned short,wchar_t> const ,CGraphicFontTexture::SCharacterInfomation>,void *> *>
  0002d	59		 pop	 ecx

; 821  :             _Destroy_in_place(this->_Ptr->_Right);

  0002e	8b 45 fc	 mov	 eax, DWORD PTR _this$[ebp]
  00031	8b 40 04	 mov	 eax, DWORD PTR [eax+4]
  00034	83 c0 08	 add	 eax, 8
  00037	50		 push	 eax
  00038	e8 00 00 00 00	 call	 ??$_Destroy_in_place@PAU?$_Tree_node@U?$pair@$$CBU?$pair@G_W@std@@USCharacterInfomation@CGraphicFontTexture@@@std@@PAX@std@@@std@@YAXAAPAU?$_Tree_node@U?$pair@$$CBU?$pair@G_W@std@@USCharacterInfomation@CGraphicFontTexture@@@std@@PAX@0@@Z ; std::_Destroy_in_place<std::_Tree_node<std::pair<std::pair<unsigned short,wchar_t> const ,CGraphicFontTexture::SCharacterInfomation>,void *> *>
  0003d	59		 pop	 ecx

; 822  :             _Alnode_traits::destroy(this->_Al, _STD addressof(this->_Ptr->_Myval));

  0003e	8b 45 fc	 mov	 eax, DWORD PTR _this$[ebp]
  00041	8b 40 04	 mov	 eax, DWORD PTR [eax+4]
  00044	83 c0 10	 add	 eax, 16			; 00000010H
  00047	89 45 f8	 mov	 DWORD PTR __Val$[ebp], eax
; File C:\Program Files (x86)\Microsoft Visual Studio\2019\Community\VC\Tools\MSVC\14.28.29333\include\xstddef

; 275  :     return __builtin_addressof(_Val);

  0004a	8b 45 f8	 mov	 eax, DWORD PTR __Val$[ebp]
  0004d	89 45 f4	 mov	 DWORD PTR $T1[ebp], eax
$LN9@Tree_temp_:
  00050	8b 4d fc	 mov	 ecx, DWORD PTR _this$[ebp]
  00053	e8 00 00 00 00	 call	 ??1?$_Alloc_construct_ptr@V?$allocator@U?$_Tree_node@U?$pair@$$CBU?$pair@G_W@std@@USCharacterInfomation@CGraphicFontTexture@@@std@@PAX@std@@@std@@@std@@QAE@XZ ; std::_Alloc_construct_ptr<std::allocator<std::_Tree_node<std::pair<std::pair<unsigned short,wchar_t> const ,CGraphicFontTexture::SCharacterInfomation>,void *> > >::~_Alloc_construct_ptr<std::allocator<std::_Tree_node<std::pair<std::pair<unsigned short,wchar_t> const ,CGraphicFontTexture::SCharacterInfomation>,void *> > >
; File C:\Program Files (x86)\Microsoft Visual Studio\2019\Community\VC\Tools\MSVC\14.28.29333\include\xtree

; 824  :     }

  00058	c9		 leave
  00059	c3		 ret	 0
??1?$_Tree_temp_node@V?$allocator@U?$_Tree_node@U?$pair@$$CBU?$pair@G_W@std@@USCharacterInfomation@CGraphicFontTexture@@@std@@PAX@std@@@std@@@std@@QAE@XZ ENDP ; std::_Tree_temp_node<std::allocator<std::_Tree_node<std::pair<std::pair<unsigned short,wchar_t> const ,CGraphicFontTexture::SCharacterInfomation>,void *> > >::~_Tree_temp_node<std::allocator<std::_Tree_node<std::pair<std::pair<unsigned short,wchar_t> const ,CGraphicFontTexture::SCharacterInfomation>,void *> > >
_TEXT	ENDS
; Function compile flags: /Odspy
;	COMDAT ??1?$_Tree_temp_node_alloc@V?$allocator@U?$_Tree_node@U?$pair@$$CBU?$pair@G_W@std@@USCharacterInfomation@CGraphicFontTexture@@@std@@PAX@std@@@std@@@std@@QAE@XZ
_TEXT	SEGMENT
_this$ = -4						; size = 4
??1?$_Tree_temp_node_alloc@V?$allocator@U?$_Tree_node@U?$pair@$$CBU?$pair@G_W@std@@USCharacterInfomation@CGraphicFontTexture@@@std@@PAX@std@@@std@@@std@@QAE@XZ PROC ; std::_Tree_temp_node_alloc<std::allocator<std::_Tree_node<std::pair<std::pair<unsigned short,wchar_t> const ,CGraphicFontTexture::SCharacterInfomation>,void *> > >::~_Tree_temp_node_alloc<std::allocator<std::_Tree_node<std::pair<std::pair<unsigned short,wchar_t> const ,CGraphicFontTexture::SCharacterInfomation>,void *> > >, COMDAT
; _this$ = ecx
  00000	55		 push	 ebp
  00001	8b ec		 mov	 ebp, esp
  00003	51		 push	 ecx
  00004	89 4d fc	 mov	 DWORD PTR _this$[ebp], ecx
  00007	8b 4d fc	 mov	 ecx, DWORD PTR _this$[ebp]
  0000a	e8 00 00 00 00	 call	 ??1?$_Alloc_construct_ptr@V?$allocator@U?$_Tree_node@U?$pair@$$CBU?$pair@G_W@std@@USCharacterInfomation@CGraphicFontTexture@@@std@@PAX@std@@@std@@@std@@QAE@XZ ; std::_Alloc_construct_ptr<std::allocator<std::_Tree_node<std::pair<std::pair<unsigned short,wchar_t> const ,CGraphicFontTexture::SCharacterInfomation>,void *> > >::~_Alloc_construct_ptr<std::allocator<std::_Tree_node<std::pair<std::pair<unsigned short,wchar_t> const ,CGraphicFontTexture::SCharacterInfomation>,void *> > >
  0000f	c9		 leave
  00010	c3		 ret	 0
??1?$_Tree_temp_node_alloc@V?$allocator@U?$_Tree_node@U?$pair@$$CBU?$pair@G_W@std@@USCharacterInfomation@CGraphicFontTexture@@@std@@PAX@std@@@std@@@std@@QAE@XZ ENDP ; std::_Tree_temp_node_alloc<std::allocator<std::_Tree_node<std::pair<std::pair<unsigned short,wchar_t> const ,CGraphicFontTexture::SCharacterInfomation>,void *> > >::~_Tree_temp_node_alloc<std::allocator<std::_Tree_node<std::pair<std::pair<unsigned short,wchar_t> const ,CGraphicFontTexture::SCharacterInfomation>,void *> > >
_TEXT	ENDS
; Function compile flags: /Odspy
; File C:\Program Files (x86)\Microsoft Visual Studio\2019\Community\VC\Tools\MSVC\14.28.29333\include\xmemory
;	COMDAT ??1?$_Alloc_construct_ptr@V?$allocator@U?$_Tree_node@U?$pair@$$CBU?$pair@G_W@std@@USCharacterInfomation@CGraphicFontTexture@@@std@@PAX@std@@@std@@@std@@QAE@XZ
_TEXT	SEGMENT
_this$ = -12						; size = 4
__Ptr$ = -8						; size = 4
_this$ = -4						; size = 4
??1?$_Alloc_construct_ptr@V?$allocator@U?$_Tree_node@U?$pair@$$CBU?$pair@G_W@std@@USCharacterInfomation@CGraphicFontTexture@@@std@@PAX@std@@@std@@@std@@QAE@XZ PROC ; std::_Alloc_construct_ptr<std::allocator<std::_Tree_node<std::pair<std::pair<unsigned short,wchar_t> const ,CGraphicFontTexture::SCharacterInfomation>,void *> > >::~_Alloc_construct_ptr<std::allocator<std::_Tree_node<std::pair<std::pair<unsigned short,wchar_t> const ,CGraphicFontTexture::SCharacterInfomation>,void *> > >, COMDAT
; _this$ = ecx

; 1056 :     ~_Alloc_construct_ptr() { // if this instance is engaged, deallocate storage

  00000	55		 push	 ebp
  00001	8b ec		 mov	 ebp, esp
  00003	83 ec 0c	 sub	 esp, 12			; 0000000cH
  00006	89 4d fc	 mov	 DWORD PTR _this$[ebp], ecx

; 1057 :         if (_Ptr) {

  00009	8b 45 fc	 mov	 eax, DWORD PTR _this$[ebp]
  0000c	83 78 04 00	 cmp	 DWORD PTR [eax+4], 0
  00010	74 22		 je	 SHORT $LN3@Alloc_cons

; 1058 :             _Al.deallocate(_Ptr, 1);

  00012	8b 45 fc	 mov	 eax, DWORD PTR _this$[ebp]
  00015	8b 40 04	 mov	 eax, DWORD PTR [eax+4]
  00018	89 45 f8	 mov	 DWORD PTR __Ptr$[ebp], eax
  0001b	8b 45 fc	 mov	 eax, DWORD PTR _this$[ebp]
  0001e	8b 00		 mov	 eax, DWORD PTR [eax]
  00020	89 45 f4	 mov	 DWORD PTR _this$[ebp], eax

; 810  :         _Deallocate<_New_alignof<_Ty>>(_Ptr, sizeof(_Ty) * _Count);

  00023	33 c0		 xor	 eax, eax
  00025	40		 inc	 eax
  00026	6b c0 30	 imul	 eax, eax, 48
  00029	50		 push	 eax
  0002a	ff 75 f8	 push	 DWORD PTR __Ptr$[ebp]
  0002d	e8 00 00 00 00	 call	 ??$_Deallocate@$07$0A@@std@@YAXPAXI@Z ; std::_Deallocate<8,0>
  00032	59		 pop	 ecx
  00033	59		 pop	 ecx
$LN3@Alloc_cons:

; 1059 :         }
; 1060 :     }

  00034	c9		 leave
  00035	c3		 ret	 0
??1?$_Alloc_construct_ptr@V?$allocator@U?$_Tree_node@U?$pair@$$CBU?$pair@G_W@std@@USCharacterInfomation@CGraphicFontTexture@@@std@@PAX@std@@@std@@@std@@QAE@XZ ENDP ; std::_Alloc_construct_ptr<std::allocator<std::_Tree_node<std::pair<std::pair<unsigned short,wchar_t> const ,CGraphicFontTexture::SCharacterInfomation>,void *> > >::~_Alloc_construct_ptr<std::allocator<std::_Tree_node<std::pair<std::pair<unsigned short,wchar_t> const ,CGraphicFontTexture::SCharacterInfomation>,void *> > >
_TEXT	ENDS
; Function compile flags: /Odspy
; File C:\Program Files (x86)\Microsoft Visual Studio\2019\Community\VC\Tools\MSVC\14.28.29333\include\xmemory
;	COMDAT ?_Allocate@?$_Alloc_construct_ptr@V?$allocator@U?$_Tree_node@U?$pair@$$CBU?$pair@G_W@std@@USCharacterInfomation@CGraphicFontTexture@@@std@@PAX@std@@@std@@@std@@QAEXXZ
_TEXT	SEGMENT
__Max_possible$1 = -24					; size = 4
_this$ = -20						; size = 4
$T2 = -16						; size = 4
$T3 = -12						; size = 4
_this$ = -8						; size = 4
__Overflow_is_possible$4 = -1				; size = 1
?_Allocate@?$_Alloc_construct_ptr@V?$allocator@U?$_Tree_node@U?$pair@$$CBU?$pair@G_W@std@@USCharacterInfomation@CGraphicFontTexture@@@std@@PAX@std@@@std@@@std@@QAEXXZ PROC ; std::_Alloc_construct_ptr<std::allocator<std::_Tree_node<std::pair<std::pair<unsigned short,wchar_t> const ,CGraphicFontTexture::SCharacterInfomation>,void *> > >::_Allocate, COMDAT
; _this$ = ecx

; 1051 :     void _Allocate() { // disengage *this, then allocate a new memory block

  00000	55		 push	 ebp
  00001	8b ec		 mov	 ebp, esp
  00003	83 ec 18	 sub	 esp, 24			; 00000018H
  00006	89 4d f8	 mov	 DWORD PTR _this$[ebp], ecx

; 1052 :         _Ptr = nullptr; // if allocate throws, prevents double-free

  00009	8b 45 f8	 mov	 eax, DWORD PTR _this$[ebp]
  0000c	83 60 04 00	 and	 DWORD PTR [eax+4], 0

; 1053 :         _Ptr = _Al.allocate(1);

  00010	8b 45 f8	 mov	 eax, DWORD PTR _this$[ebp]
  00013	8b 00		 mov	 eax, DWORD PTR [eax]
  00015	89 45 ec	 mov	 DWORD PTR _this$[ebp], eax

; 56   :     constexpr bool _Overflow_is_possible = _Ty_size > 1;

  00018	c6 45 ff 01	 mov	 BYTE PTR __Overflow_is_possible$4[ebp], 1

; 57   : 
; 58   :     if _CONSTEXPR_IF (_Overflow_is_possible) {
; 59   :         constexpr size_t _Max_possible = static_cast<size_t>(-1) / _Ty_size;

  0001c	c7 45 e8 55 55
	55 05		 mov	 DWORD PTR __Max_possible$1[ebp], 89478485 ; 05555555H

; 60   :         if (_Count > _Max_possible) {

  00023	33 c0		 xor	 eax, eax
  00025	40		 inc	 eax
  00026	3d 55 55 55 05	 cmp	 eax, 89478485		; 05555555H
  0002b	76 05		 jbe	 SHORT $LN6@Allocate

; 61   :             _Throw_bad_array_new_length(); // multiply overflow

  0002d	e8 00 00 00 00	 call	 ?_Throw_bad_array_new_length@std@@YAXXZ ; std::_Throw_bad_array_new_length
$LN6@Allocate:

; 62   :         }
; 63   :     }
; 64   : 
; 65   :     return _Count * _Ty_size;

  00032	33 c0		 xor	 eax, eax
  00034	40		 inc	 eax
  00035	6b c0 30	 imul	 eax, eax, 48
  00038	89 45 f4	 mov	 DWORD PTR $T3[ebp], eax

; 814  :         return static_cast<_Ty*>(_Allocate<_New_alignof<_Ty>>(_Get_size_of_n<sizeof(_Ty)>(_Count)));

  0003b	ff 75 f4	 push	 DWORD PTR $T3[ebp]
  0003e	e8 00 00 00 00	 call	 ??$_Allocate@$07U_Default_allocate_traits@std@@$0A@@std@@YAPAXI@Z ; std::_Allocate<8,std::_Default_allocate_traits,0>
  00043	59		 pop	 ecx
  00044	89 45 f0	 mov	 DWORD PTR $T2[ebp], eax

; 1053 :         _Ptr = _Al.allocate(1);

  00047	8b 45 f8	 mov	 eax, DWORD PTR _this$[ebp]
  0004a	8b 4d f0	 mov	 ecx, DWORD PTR $T2[ebp]
  0004d	89 48 04	 mov	 DWORD PTR [eax+4], ecx
$LN9@Allocate:

; 1054 :     }

  00050	c9		 leave
  00051	c3		 ret	 0
?_Allocate@?$_Alloc_construct_ptr@V?$allocator@U?$_Tree_node@U?$pair@$$CBU?$pair@G_W@std@@USCharacterInfomation@CGraphicFontTexture@@@std@@PAX@std@@@std@@@std@@QAEXXZ ENDP ; std::_Alloc_construct_ptr<std::allocator<std::_Tree_node<std::pair<std::pair<unsigned short,wchar_t> const ,CGraphicFontTexture::SCharacterInfomation>,void *> > >::_Allocate
_TEXT	ENDS
; Function compile flags: /Odspy
; File C:\Program Files (x86)\Microsoft Visual Studio\2019\Community\VC\Tools\MSVC\14.28.29333\include\xtree
; File C:\Program Files (x86)\Microsoft Visual Studio\2019\Community\VC\Tools\MSVC\14.28.29333\include\xmemory
; File C:\Program Files (x86)\Microsoft Visual Studio\2019\Community\VC\Tools\MSVC\14.28.29333\include\xtree
; File C:\Program Files (x86)\Microsoft Visual Studio\2019\Community\VC\Tools\MSVC\14.28.29333\include\map
; File C:\Program Files (x86)\Microsoft Visual Studio\2019\Community\VC\Tools\MSVC\14.28.29333\include\xtree
; File C:\Program Files (x86)\Microsoft Visual Studio\2019\Community\VC\Tools\MSVC\14.28.29333\include\utility
; File C:\Program Files (x86)\Microsoft Visual Studio\2019\Community\VC\Tools\MSVC\14.28.29333\include\xtree
;	COMDAT ??$_Lower_bound_duplicate@U?$pair@G_W@std@@@?$_Tree@V?$_Tmap_traits@U?$pair@G_W@std@@USCharacterInfomation@CGraphicFontTexture@@U?$less@U?$pair@G_W@std@@@2@V?$allocator@U?$pair@$$CBU?$pair@G_W@std@@USCharacterInfomation@CGraphicFontTexture@@@std@@@2@$0A@@std@@@std@@IBE_NQAU?$_Tree_node@U?$pair@$$CBU?$pair@G_W@std@@USCharacterInfomation@CGraphicFontTexture@@@std@@PAX@1@ABU?$pair@G_W@1@@Z
_TEXT	SEGMENT
$T1 = -24						; size = 4
$T2 = -20						; size = 4
_this$ = -16						; size = 4
tv78 = -12						; size = 4
tv135 = -8						; size = 4
__Right$ = -4						; size = 4
__Bound$ = 8						; size = 4
__Keyval$ = 12						; size = 4
??$_Lower_bound_duplicate@U?$pair@G_W@std@@@?$_Tree@V?$_Tmap_traits@U?$pair@G_W@std@@USCharacterInfomation@CGraphicFontTexture@@U?$less@U?$pair@G_W@std@@@2@V?$allocator@U?$pair@$$CBU?$pair@G_W@std@@USCharacterInfomation@CGraphicFontTexture@@@std@@@2@$0A@@std@@@std@@IBE_NQAU?$_Tree_node@U?$pair@$$CBU?$pair@G_W@std@@USCharacterInfomation@CGraphicFontTexture@@@std@@PAX@1@ABU?$pair@G_W@1@@Z PROC ; std::_Tree<std::_Tmap_traits<std::pair<unsigned short,wchar_t>,CGraphicFontTexture::SCharacterInfomation,std::less<std::pair<unsigned short,wchar_t> >,std::allocator<std::pair<std::pair<unsigned short,wchar_t> const ,CGraphicFontTexture::SCharacterInfomation> >,0> >::_Lower_bound_duplicate<std::pair<unsigned short,wchar_t> >, COMDAT
; _this$ = ecx

; 1694 :     bool _Lower_bound_duplicate(const _Nodeptr _Bound, const _Keyty& _Keyval) const {

  00000	55		 push	 ebp
  00001	8b ec		 mov	 ebp, esp
  00003	83 ec 18	 sub	 esp, 24			; 00000018H
  00006	89 4d f0	 mov	 DWORD PTR _this$[ebp], ecx

; 1695 :         return !_Bound->_Isnil && !_DEBUG_LT_PRED(_Getcomp(), _Keyval, _Traits::_Kfn(_Bound->_Myval));

  00009	8b 45 08	 mov	 eax, DWORD PTR __Bound$[ebp]
  0000c	0f be 40 0d	 movsx	 eax, BYTE PTR [eax+13]
  00010	85 c0		 test	 eax, eax
  00012	75 65		 jne	 SHORT $LN3@Lower_boun

; 2035 :         return _Mypair._Get_first();

  00014	8b 45 f0	 mov	 eax, DWORD PTR _this$[ebp]
; File C:\Program Files (x86)\Microsoft Visual Studio\2019\Community\VC\Tools\MSVC\14.28.29333\include\xmemory

; 1351 :         return *this;

  00017	89 45 ec	 mov	 DWORD PTR $T2[ebp], eax
; File C:\Program Files (x86)\Microsoft Visual Studio\2019\Community\VC\Tools\MSVC\14.28.29333\include\xtree

; 2035 :         return _Mypair._Get_first();

  0001a	8b 45 ec	 mov	 eax, DWORD PTR $T2[ebp]
  0001d	89 45 e8	 mov	 DWORD PTR $T1[ebp], eax
; File C:\Program Files (x86)\Microsoft Visual Studio\2019\Community\VC\Tools\MSVC\14.28.29333\include\map

; 69   :         return _Val.first;

  00020	8b 45 08	 mov	 eax, DWORD PTR __Bound$[ebp]
  00023	83 c0 10	 add	 eax, 16			; 00000010H
; File C:\Program Files (x86)\Microsoft Visual Studio\2019\Community\VC\Tools\MSVC\14.28.29333\include\xtree

; 1695 :         return !_Bound->_Isnil && !_DEBUG_LT_PRED(_Getcomp(), _Keyval, _Traits::_Kfn(_Bound->_Myval));

  00026	89 45 fc	 mov	 DWORD PTR __Right$[ebp], eax
; File C:\Program Files (x86)\Microsoft Visual Studio\2019\Community\VC\Tools\MSVC\14.28.29333\include\utility

; 352  :     return _Left.first < _Right.first || (!(_Right.first < _Left.first) && _Left.second < _Right.second);

  00029	8b 45 0c	 mov	 eax, DWORD PTR __Keyval$[ebp]
  0002c	0f b7 00	 movzx	 eax, WORD PTR [eax]
  0002f	8b 4d fc	 mov	 ecx, DWORD PTR __Right$[ebp]
  00032	0f b7 09	 movzx	 ecx, WORD PTR [ecx]
  00035	3b c1		 cmp	 eax, ecx
  00037	7c 28		 jl	 SHORT $LN18@Lower_boun
  00039	8b 45 fc	 mov	 eax, DWORD PTR __Right$[ebp]
  0003c	0f b7 00	 movzx	 eax, WORD PTR [eax]
  0003f	8b 4d 0c	 mov	 ecx, DWORD PTR __Keyval$[ebp]
  00042	0f b7 09	 movzx	 ecx, WORD PTR [ecx]
  00045	3b c1		 cmp	 eax, ecx
  00047	7c 12		 jl	 SHORT $LN17@Lower_boun
  00049	8b 45 0c	 mov	 eax, DWORD PTR __Keyval$[ebp]
  0004c	0f b7 40 02	 movzx	 eax, WORD PTR [eax+2]
  00050	8b 4d fc	 mov	 ecx, DWORD PTR __Right$[ebp]
  00053	0f b7 49 02	 movzx	 ecx, WORD PTR [ecx+2]
  00057	3b c1		 cmp	 eax, ecx
  00059	7c 06		 jl	 SHORT $LN18@Lower_boun
$LN17@Lower_boun:
  0005b	83 65 f8 00	 and	 DWORD PTR tv135[ebp], 0
  0005f	eb 07		 jmp	 SHORT $LN13@Lower_boun
$LN18@Lower_boun:
  00061	c7 45 f8 01 00
	00 00		 mov	 DWORD PTR tv135[ebp], 1
$LN13@Lower_boun:
; File C:\Program Files (x86)\Microsoft Visual Studio\2019\Community\VC\Tools\MSVC\14.28.29333\include\xtree

; 1695 :         return !_Bound->_Isnil && !_DEBUG_LT_PRED(_Getcomp(), _Keyval, _Traits::_Kfn(_Bound->_Myval));

  00068	0f b6 45 f8	 movzx	 eax, BYTE PTR tv135[ebp]
  0006c	85 c0		 test	 eax, eax
  0006e	75 09		 jne	 SHORT $LN3@Lower_boun
  00070	c7 45 f4 01 00
	00 00		 mov	 DWORD PTR tv78[ebp], 1
  00077	eb 04		 jmp	 SHORT $LN4@Lower_boun
$LN3@Lower_boun:
  00079	83 65 f4 00	 and	 DWORD PTR tv78[ebp], 0
$LN4@Lower_boun:
  0007d	8a 45 f4	 mov	 al, BYTE PTR tv78[ebp]

; 1696 :     }

  00080	c9		 leave
  00081	c2 08 00	 ret	 8
??$_Lower_bound_duplicate@U?$pair@G_W@std@@@?$_Tree@V?$_Tmap_traits@U?$pair@G_W@std@@USCharacterInfomation@CGraphicFontTexture@@U?$less@U?$pair@G_W@std@@@2@V?$allocator@U?$pair@$$CBU?$pair@G_W@std@@USCharacterInfomation@CGraphicFontTexture@@@std@@@2@$0A@@std@@@std@@IBE_NQAU?$_Tree_node@U?$pair@$$CBU?$pair@G_W@std@@USCharacterInfomation@CGraphicFontTexture@@@std@@PAX@1@ABU?$pair@G_W@1@@Z ENDP ; std::_Tree<std::_Tmap_traits<std::pair<unsigned short,wchar_t>,CGraphicFontTexture::SCharacterInfomation,std::less<std::pair<unsigned short,wchar_t> >,std::allocator<std::pair<std::pair<unsigned short,wchar_t> const ,CGraphicFontTexture::SCharacterInfomation> >,0> >::_Lower_bound_duplicate<std::pair<unsigned short,wchar_t> >
_TEXT	ENDS
; Function compile flags: /Odspy
; File C:\Program Files (x86)\Microsoft Visual Studio\2019\Community\VC\Tools\MSVC\14.28.29333\include\xtree
; File C:\Program Files (x86)\Microsoft Visual Studio\2019\Community\VC\Tools\MSVC\14.28.29333\include\xstddef
; File C:\Program Files (x86)\Microsoft Visual Studio\2019\Community\VC\Tools\MSVC\14.28.29333\include\xtree
; File C:\Program Files (x86)\Microsoft Visual Studio\2019\Community\VC\Tools\MSVC\14.28.29333\include\xmemory
; File C:\Program Files (x86)\Microsoft Visual Studio\2019\Community\VC\Tools\MSVC\14.28.29333\include\xtree
; File C:\Program Files (x86)\Microsoft Visual Studio\2019\Community\VC\Tools\MSVC\14.28.29333\include\map
; File C:\Program Files (x86)\Microsoft Visual Studio\2019\Community\VC\Tools\MSVC\14.28.29333\include\xtree
; File C:\Program Files (x86)\Microsoft Visual Studio\2019\Community\VC\Tools\MSVC\14.28.29333\include\utility
; File C:\Program Files (x86)\Microsoft Visual Studio\2019\Community\VC\Tools\MSVC\14.28.29333\include\xtree
;	COMDAT ??$_Find_lower_bound@U?$pair@G_W@std@@@?$_Tree@V?$_Tmap_traits@U?$pair@G_W@std@@USCharacterInfomation@CGraphicFontTexture@@U?$less@U?$pair@G_W@std@@@2@V?$allocator@U?$pair@$$CBU?$pair@G_W@std@@USCharacterInfomation@CGraphicFontTexture@@@std@@@2@$0A@@std@@@std@@IBE?AU?$_Tree_find_result@PAU?$_Tree_node@U?$pair@$$CBU?$pair@G_W@std@@USCharacterInfomation@CGraphicFontTexture@@@std@@PAX@std@@@1@ABU?$pair@G_W@1@@Z
_TEXT	SEGMENT
__Result$ = -44						; size = 12
$T1 = -32						; size = 4
$T2 = -28						; size = 4
$T3 = -24						; size = 4
tv142 = -20						; size = 4
_this$ = -16						; size = 4
__Scary$ = -12						; size = 4
__Left$ = -8						; size = 4
__Trynode$ = -4						; size = 4
___$ReturnUdt$ = 8					; size = 4
__Keyval$ = 12						; size = 4
??$_Find_lower_bound@U?$pair@G_W@std@@@?$_Tree@V?$_Tmap_traits@U?$pair@G_W@std@@USCharacterInfomation@CGraphicFontTexture@@U?$less@U?$pair@G_W@std@@@2@V?$allocator@U?$pair@$$CBU?$pair@G_W@std@@USCharacterInfomation@CGraphicFontTexture@@@std@@@2@$0A@@std@@@std@@IBE?AU?$_Tree_find_result@PAU?$_Tree_node@U?$pair@$$CBU?$pair@G_W@std@@USCharacterInfomation@CGraphicFontTexture@@@std@@PAX@std@@@1@ABU?$pair@G_W@1@@Z PROC ; std::_Tree<std::_Tmap_traits<std::pair<unsigned short,wchar_t>,CGraphicFontTexture::SCharacterInfomation,std::less<std::pair<unsigned short,wchar_t> >,std::allocator<std::pair<std::pair<unsigned short,wchar_t> const ,CGraphicFontTexture::SCharacterInfomation> >,0> >::_Find_lower_bound<std::pair<unsigned short,wchar_t> >, COMDAT
; _this$ = ecx

; 1699 :     _Tree_find_result<_Nodeptr> _Find_lower_bound(const _Keyty& _Keyval) const {

  00000	55		 push	 ebp
  00001	8b ec		 mov	 ebp, esp
  00003	83 ec 2c	 sub	 esp, 44			; 0000002cH
  00006	56		 push	 esi
  00007	57		 push	 edi
  00008	89 4d f0	 mov	 DWORD PTR _this$[ebp], ecx

; 2051 :         return _STD addressof(_Mypair._Myval2._Myval2);

  0000b	8b 45 f0	 mov	 eax, DWORD PTR _this$[ebp]
; File C:\Program Files (x86)\Microsoft Visual Studio\2019\Community\VC\Tools\MSVC\14.28.29333\include\xstddef

; 275  :     return __builtin_addressof(_Val);

  0000e	89 45 e8	 mov	 DWORD PTR $T3[ebp], eax
; File C:\Program Files (x86)\Microsoft Visual Studio\2019\Community\VC\Tools\MSVC\14.28.29333\include\xtree

; 2051 :         return _STD addressof(_Mypair._Myval2._Myval2);

  00011	8b 45 e8	 mov	 eax, DWORD PTR $T3[ebp]
  00014	89 45 f4	 mov	 DWORD PTR __Scary$[ebp], eax

; 1700 :         const auto _Scary = _Get_scary();
; 1701 :         _Tree_find_result<_Nodeptr> _Result{{_Scary->_Myhead->_Parent, _Tree_child::_Right}, _Scary->_Myhead};

  00017	8b 45 f4	 mov	 eax, DWORD PTR __Scary$[ebp]
  0001a	8b 00		 mov	 eax, DWORD PTR [eax]
  0001c	8b 40 04	 mov	 eax, DWORD PTR [eax+4]
  0001f	89 45 d4	 mov	 DWORD PTR __Result$[ebp], eax
  00022	83 65 d8 00	 and	 DWORD PTR __Result$[ebp+4], 0
  00026	8b 45 f4	 mov	 eax, DWORD PTR __Scary$[ebp]
  00029	8b 00		 mov	 eax, DWORD PTR [eax]
  0002b	89 45 dc	 mov	 DWORD PTR __Result$[ebp+8], eax

; 1702 :         _Nodeptr _Trynode = _Result._Location._Parent;

  0002e	8b 45 d4	 mov	 eax, DWORD PTR __Result$[ebp]
  00031	89 45 fc	 mov	 DWORD PTR __Trynode$[ebp], eax
$LN2@Find_lower:

; 1703 :         while (!_Trynode->_Isnil) {

  00034	8b 45 fc	 mov	 eax, DWORD PTR __Trynode$[ebp]
  00037	0f be 40 0d	 movsx	 eax, BYTE PTR [eax+13]
  0003b	85 c0		 test	 eax, eax
  0003d	0f 85 8b 00 00
	00		 jne	 $LN3@Find_lower

; 1704 :             _Result._Location._Parent = _Trynode;

  00043	8b 45 fc	 mov	 eax, DWORD PTR __Trynode$[ebp]
  00046	89 45 d4	 mov	 DWORD PTR __Result$[ebp], eax

; 2035 :         return _Mypair._Get_first();

  00049	8b 45 f0	 mov	 eax, DWORD PTR _this$[ebp]
; File C:\Program Files (x86)\Microsoft Visual Studio\2019\Community\VC\Tools\MSVC\14.28.29333\include\xmemory

; 1351 :         return *this;

  0004c	89 45 e4	 mov	 DWORD PTR $T2[ebp], eax
; File C:\Program Files (x86)\Microsoft Visual Studio\2019\Community\VC\Tools\MSVC\14.28.29333\include\xtree

; 2035 :         return _Mypair._Get_first();

  0004f	8b 45 e4	 mov	 eax, DWORD PTR $T2[ebp]
  00052	89 45 e0	 mov	 DWORD PTR $T1[ebp], eax
; File C:\Program Files (x86)\Microsoft Visual Studio\2019\Community\VC\Tools\MSVC\14.28.29333\include\map

; 69   :         return _Val.first;

  00055	8b 45 fc	 mov	 eax, DWORD PTR __Trynode$[ebp]
  00058	83 c0 10	 add	 eax, 16			; 00000010H
; File C:\Program Files (x86)\Microsoft Visual Studio\2019\Community\VC\Tools\MSVC\14.28.29333\include\xtree

; 1705 :             if (_DEBUG_LT_PRED(_Getcomp(), _Traits::_Kfn(_Trynode->_Myval), _Keyval)) {

  0005b	89 45 f8	 mov	 DWORD PTR __Left$[ebp], eax
; File C:\Program Files (x86)\Microsoft Visual Studio\2019\Community\VC\Tools\MSVC\14.28.29333\include\utility

; 352  :     return _Left.first < _Right.first || (!(_Right.first < _Left.first) && _Left.second < _Right.second);

  0005e	8b 45 f8	 mov	 eax, DWORD PTR __Left$[ebp]
  00061	0f b7 00	 movzx	 eax, WORD PTR [eax]
  00064	8b 4d 0c	 mov	 ecx, DWORD PTR __Keyval$[ebp]
  00067	0f b7 09	 movzx	 ecx, WORD PTR [ecx]
  0006a	3b c1		 cmp	 eax, ecx
  0006c	7c 28		 jl	 SHORT $LN26@Find_lower
  0006e	8b 45 0c	 mov	 eax, DWORD PTR __Keyval$[ebp]
  00071	0f b7 00	 movzx	 eax, WORD PTR [eax]
  00074	8b 4d f8	 mov	 ecx, DWORD PTR __Left$[ebp]
  00077	0f b7 09	 movzx	 ecx, WORD PTR [ecx]
  0007a	3b c1		 cmp	 eax, ecx
  0007c	7c 12		 jl	 SHORT $LN25@Find_lower
  0007e	8b 45 f8	 mov	 eax, DWORD PTR __Left$[ebp]
  00081	0f b7 40 02	 movzx	 eax, WORD PTR [eax+2]
  00085	8b 4d 0c	 mov	 ecx, DWORD PTR __Keyval$[ebp]
  00088	0f b7 49 02	 movzx	 ecx, WORD PTR [ecx+2]
  0008c	3b c1		 cmp	 eax, ecx
  0008e	7c 06		 jl	 SHORT $LN26@Find_lower
$LN25@Find_lower:
  00090	83 65 ec 00	 and	 DWORD PTR tv142[ebp], 0
  00094	eb 07		 jmp	 SHORT $LN21@Find_lower
$LN26@Find_lower:
  00096	c7 45 ec 01 00
	00 00		 mov	 DWORD PTR tv142[ebp], 1
$LN21@Find_lower:
; File C:\Program Files (x86)\Microsoft Visual Studio\2019\Community\VC\Tools\MSVC\14.28.29333\include\xtree

; 1705 :             if (_DEBUG_LT_PRED(_Getcomp(), _Traits::_Kfn(_Trynode->_Myval), _Keyval)) {

  0009d	0f b6 45 ec	 movzx	 eax, BYTE PTR tv142[ebp]
  000a1	85 c0		 test	 eax, eax
  000a3	74 0f		 je	 SHORT $LN4@Find_lower

; 1706 :                 _Result._Location._Child = _Tree_child::_Right;

  000a5	83 65 d8 00	 and	 DWORD PTR __Result$[ebp+4], 0

; 1707 :                 _Trynode                 = _Trynode->_Right;

  000a9	8b 45 fc	 mov	 eax, DWORD PTR __Trynode$[ebp]
  000ac	8b 40 08	 mov	 eax, DWORD PTR [eax+8]
  000af	89 45 fc	 mov	 DWORD PTR __Trynode$[ebp], eax

; 1708 :             } else {

  000b2	eb 15		 jmp	 SHORT $LN5@Find_lower
$LN4@Find_lower:

; 1709 :                 _Result._Location._Child = _Tree_child::_Left;

  000b4	c7 45 d8 01 00
	00 00		 mov	 DWORD PTR __Result$[ebp+4], 1

; 1710 :                 _Result._Bound           = _Trynode;

  000bb	8b 45 fc	 mov	 eax, DWORD PTR __Trynode$[ebp]
  000be	89 45 dc	 mov	 DWORD PTR __Result$[ebp+8], eax

; 1711 :                 _Trynode                 = _Trynode->_Left;

  000c1	8b 45 fc	 mov	 eax, DWORD PTR __Trynode$[ebp]
  000c4	8b 00		 mov	 eax, DWORD PTR [eax]
  000c6	89 45 fc	 mov	 DWORD PTR __Trynode$[ebp], eax
$LN5@Find_lower:

; 1712 :             }
; 1713 :         }

  000c9	e9 66 ff ff ff	 jmp	 $LN2@Find_lower
$LN3@Find_lower:

; 1714 : 
; 1715 :         return _Result;

  000ce	8d 75 d4	 lea	 esi, DWORD PTR __Result$[ebp]
  000d1	8b 7d 08	 mov	 edi, DWORD PTR ___$ReturnUdt$[ebp]
  000d4	a5		 movsd
  000d5	a5		 movsd
  000d6	a5		 movsd
  000d7	8b 45 08	 mov	 eax, DWORD PTR ___$ReturnUdt$[ebp]

; 1716 :     }

  000da	5f		 pop	 edi
  000db	5e		 pop	 esi
  000dc	c9		 leave
  000dd	c2 08 00	 ret	 8
??$_Find_lower_bound@U?$pair@G_W@std@@@?$_Tree@V?$_Tmap_traits@U?$pair@G_W@std@@USCharacterInfomation@CGraphicFontTexture@@U?$less@U?$pair@G_W@std@@@2@V?$allocator@U?$pair@$$CBU?$pair@G_W@std@@USCharacterInfomation@CGraphicFontTexture@@@std@@@2@$0A@@std@@@std@@IBE?AU?$_Tree_find_result@PAU?$_Tree_node@U?$pair@$$CBU?$pair@G_W@std@@USCharacterInfomation@CGraphicFontTexture@@@std@@PAX@std@@@1@ABU?$pair@G_W@1@@Z ENDP ; std::_Tree<std::_Tmap_traits<std::pair<unsigned short,wchar_t>,CGraphicFontTexture::SCharacterInfomation,std::less<std::pair<unsigned short,wchar_t> >,std::allocator<std::pair<std::pair<unsigned short,wchar_t> const ,CGraphicFontTexture::SCharacterInfomation> >,0> >::_Find_lower_bound<std::pair<unsigned short,wchar_t> >
_TEXT	ENDS
; Function compile flags: /Odspy
; File C:\Program Files (x86)\Microsoft Visual Studio\2019\Community\VC\Tools\MSVC\14.28.29333\include\xtree
; File C:\Program Files (x86)\Microsoft Visual Studio\2019\Community\VC\Tools\MSVC\14.28.29333\include\xmemory
; File C:\Program Files (x86)\Microsoft Visual Studio\2019\Community\VC\Tools\MSVC\14.28.29333\include\xtree
;	COMDAT ??$_Freenode0@V?$allocator@U?$_Tree_node@U?$pair@$$CBGPAUHFONT__@@@std@@PAX@std@@@std@@@?$_Tree_node@U?$pair@$$CBGPAUHFONT__@@@std@@PAX@std@@SAXAAV?$allocator@U?$_Tree_node@U?$pair@$$CBGPAUHFONT__@@@std@@PAX@std@@@1@PAU01@@Z
_TEXT	SEGMENT
__Al$ = 8						; size = 4
__Ptr$ = 12						; size = 4
??$_Freenode0@V?$allocator@U?$_Tree_node@U?$pair@$$CBGPAUHFONT__@@@std@@PAX@std@@@std@@@?$_Tree_node@U?$pair@$$CBGPAUHFONT__@@@std@@PAX@std@@SAXAAV?$allocator@U?$_Tree_node@U?$pair@$$CBGPAUHFONT__@@@std@@PAX@std@@@1@PAU01@@Z PROC ; std::_Tree_node<std::pair<unsigned short const ,HFONT__ *>,void *>::_Freenode0<std::allocator<std::_Tree_node<std::pair<unsigned short const ,HFONT__ *>,void *> > >, COMDAT

; 368  :     static void _Freenode0(_Alloc& _Al, _Nodeptr _Ptr) noexcept {

  00000	55		 push	 ebp
  00001	8b ec		 mov	 ebp, esp

; 369  :         static_assert(is_same_v<typename _Alloc::value_type, _Tree_node>, "Bad _Freenode0 call");
; 370  :         _Destroy_in_place(_Ptr->_Left);

  00003	ff 75 0c	 push	 DWORD PTR __Ptr$[ebp]
  00006	e8 00 00 00 00	 call	 ??$_Destroy_in_place@PAU?$_Tree_node@U?$pair@$$CBGPAUHFONT__@@@std@@PAX@std@@@std@@YAXAAPAU?$_Tree_node@U?$pair@$$CBGPAUHFONT__@@@std@@PAX@0@@Z ; std::_Destroy_in_place<std::_Tree_node<std::pair<unsigned short const ,HFONT__ *>,void *> *>
  0000b	59		 pop	 ecx

; 371  :         _Destroy_in_place(_Ptr->_Parent);

  0000c	8b 45 0c	 mov	 eax, DWORD PTR __Ptr$[ebp]
  0000f	83 c0 04	 add	 eax, 4
  00012	50		 push	 eax
  00013	e8 00 00 00 00	 call	 ??$_Destroy_in_place@PAU?$_Tree_node@U?$pair@$$CBGPAUHFONT__@@@std@@PAX@std@@@std@@YAXAAPAU?$_Tree_node@U?$pair@$$CBGPAUHFONT__@@@std@@PAX@0@@Z ; std::_Destroy_in_place<std::_Tree_node<std::pair<unsigned short const ,HFONT__ *>,void *> *>
  00018	59		 pop	 ecx

; 372  :         _Destroy_in_place(_Ptr->_Right);

  00019	8b 45 0c	 mov	 eax, DWORD PTR __Ptr$[ebp]
  0001c	83 c0 08	 add	 eax, 8
  0001f	50		 push	 eax
  00020	e8 00 00 00 00	 call	 ??$_Destroy_in_place@PAU?$_Tree_node@U?$pair@$$CBGPAUHFONT__@@@std@@PAX@std@@@std@@YAXAAPAU?$_Tree_node@U?$pair@$$CBGPAUHFONT__@@@std@@PAX@0@@Z ; std::_Destroy_in_place<std::_Tree_node<std::pair<unsigned short const ,HFONT__ *>,void *> *>
  00025	59		 pop	 ecx
; File C:\Program Files (x86)\Microsoft Visual Studio\2019\Community\VC\Tools\MSVC\14.28.29333\include\xmemory

; 696  :         _Deallocate<_New_alignof<value_type>>(_Ptr, sizeof(value_type) * _Count);

  00026	33 c0		 xor	 eax, eax
  00028	40		 inc	 eax
  00029	6b c0 18	 imul	 eax, eax, 24
  0002c	50		 push	 eax
  0002d	ff 75 0c	 push	 DWORD PTR __Ptr$[ebp]
  00030	e8 00 00 00 00	 call	 ??$_Deallocate@$07$0A@@std@@YAXPAXI@Z ; std::_Deallocate<8,0>
  00035	59		 pop	 ecx
  00036	59		 pop	 ecx
; File C:\Program Files (x86)\Microsoft Visual Studio\2019\Community\VC\Tools\MSVC\14.28.29333\include\xtree

; 374  :     }

  00037	5d		 pop	 ebp
  00038	c3		 ret	 0
??$_Freenode0@V?$allocator@U?$_Tree_node@U?$pair@$$CBGPAUHFONT__@@@std@@PAX@std@@@std@@@?$_Tree_node@U?$pair@$$CBGPAUHFONT__@@@std@@PAX@std@@SAXAAV?$allocator@U?$_Tree_node@U?$pair@$$CBGPAUHFONT__@@@std@@PAX@std@@@1@PAU01@@Z ENDP ; std::_Tree_node<std::pair<unsigned short const ,HFONT__ *>,void *>::_Freenode0<std::allocator<std::_Tree_node<std::pair<unsigned short const ,HFONT__ *>,void *> > >
_TEXT	ENDS
; Function compile flags: /Odspy
; File C:\Program Files (x86)\Microsoft Visual Studio\2019\Community\VC\Tools\MSVC\14.28.29333\include\xtree
; File C:\Program Files (x86)\Microsoft Visual Studio\2019\Community\VC\Tools\MSVC\14.28.29333\include\xmemory
; File C:\Program Files (x86)\Microsoft Visual Studio\2019\Community\VC\Tools\MSVC\14.28.29333\include\xtree
; File C:\Program Files (x86)\Microsoft Visual Studio\2019\Community\VC\Tools\MSVC\14.28.29333\include\xstddef
; File C:\Program Files (x86)\Microsoft Visual Studio\2019\Community\VC\Tools\MSVC\14.28.29333\include\xtree
;	COMDAT ??$_Lower_bound_duplicate@G@?$_Tree@V?$_Tmap_traits@GPAUHFONT__@@U?$less@G@std@@V?$allocator@U?$pair@$$CBGPAUHFONT__@@@std@@@3@$0A@@std@@@std@@IBE_NQAU?$_Tree_node@U?$pair@$$CBGPAUHFONT__@@@std@@PAX@1@ABG@Z
_TEXT	SEGMENT
$T1 = -20						; size = 4
$T2 = -16						; size = 4
_this$ = -12						; size = 4
tv78 = -8						; size = 4
tv88 = -4						; size = 4
__Bound$ = 8						; size = 4
__Keyval$ = 12						; size = 4
??$_Lower_bound_duplicate@G@?$_Tree@V?$_Tmap_traits@GPAUHFONT__@@U?$less@G@std@@V?$allocator@U?$pair@$$CBGPAUHFONT__@@@std@@@3@$0A@@std@@@std@@IBE_NQAU?$_Tree_node@U?$pair@$$CBGPAUHFONT__@@@std@@PAX@1@ABG@Z PROC ; std::_Tree<std::_Tmap_traits<unsigned short,HFONT__ *,std::less<unsigned short>,std::allocator<std::pair<unsigned short const ,HFONT__ *> >,0> >::_Lower_bound_duplicate<unsigned short>, COMDAT
; _this$ = ecx

; 1694 :     bool _Lower_bound_duplicate(const _Nodeptr _Bound, const _Keyty& _Keyval) const {

  00000	55		 push	 ebp
  00001	8b ec		 mov	 ebp, esp
  00003	83 ec 14	 sub	 esp, 20			; 00000014H
  00006	89 4d f4	 mov	 DWORD PTR _this$[ebp], ecx

; 1695 :         return !_Bound->_Isnil && !_DEBUG_LT_PRED(_Getcomp(), _Keyval, _Traits::_Kfn(_Bound->_Myval));

  00009	8b 45 08	 mov	 eax, DWORD PTR __Bound$[ebp]
  0000c	0f be 40 0d	 movsx	 eax, BYTE PTR [eax+13]
  00010	85 c0		 test	 eax, eax
  00012	75 3b		 jne	 SHORT $LN3@Lower_boun

; 2035 :         return _Mypair._Get_first();

  00014	8b 45 f4	 mov	 eax, DWORD PTR _this$[ebp]
; File C:\Program Files (x86)\Microsoft Visual Studio\2019\Community\VC\Tools\MSVC\14.28.29333\include\xmemory

; 1351 :         return *this;

  00017	89 45 f0	 mov	 DWORD PTR $T2[ebp], eax
; File C:\Program Files (x86)\Microsoft Visual Studio\2019\Community\VC\Tools\MSVC\14.28.29333\include\xtree

; 2035 :         return _Mypair._Get_first();

  0001a	8b 45 f0	 mov	 eax, DWORD PTR $T2[ebp]
  0001d	89 45 ec	 mov	 DWORD PTR $T1[ebp], eax
; File C:\Program Files (x86)\Microsoft Visual Studio\2019\Community\VC\Tools\MSVC\14.28.29333\include\xstddef

; 127  :         return _Left < _Right;

  00020	8b 45 0c	 mov	 eax, DWORD PTR __Keyval$[ebp]
  00023	0f b7 00	 movzx	 eax, WORD PTR [eax]
  00026	8b 4d 08	 mov	 ecx, DWORD PTR __Bound$[ebp]
  00029	0f b7 49 10	 movzx	 ecx, WORD PTR [ecx+16]
  0002d	3b c1		 cmp	 eax, ecx
  0002f	7d 09		 jge	 SHORT $LN15@Lower_boun
  00031	c7 45 fc 01 00
	00 00		 mov	 DWORD PTR tv88[ebp], 1
  00038	eb 04		 jmp	 SHORT $LN13@Lower_boun
$LN15@Lower_boun:
  0003a	83 65 fc 00	 and	 DWORD PTR tv88[ebp], 0
$LN13@Lower_boun:
; File C:\Program Files (x86)\Microsoft Visual Studio\2019\Community\VC\Tools\MSVC\14.28.29333\include\xtree

; 1695 :         return !_Bound->_Isnil && !_DEBUG_LT_PRED(_Getcomp(), _Keyval, _Traits::_Kfn(_Bound->_Myval));

  0003e	0f b6 45 fc	 movzx	 eax, BYTE PTR tv88[ebp]
  00042	85 c0		 test	 eax, eax
  00044	75 09		 jne	 SHORT $LN3@Lower_boun
  00046	c7 45 f8 01 00
	00 00		 mov	 DWORD PTR tv78[ebp], 1
  0004d	eb 04		 jmp	 SHORT $LN4@Lower_boun
$LN3@Lower_boun:
  0004f	83 65 f8 00	 and	 DWORD PTR tv78[ebp], 0
$LN4@Lower_boun:
  00053	8a 45 f8	 mov	 al, BYTE PTR tv78[ebp]

; 1696 :     }

  00056	c9		 leave
  00057	c2 08 00	 ret	 8
??$_Lower_bound_duplicate@G@?$_Tree@V?$_Tmap_traits@GPAUHFONT__@@U?$less@G@std@@V?$allocator@U?$pair@$$CBGPAUHFONT__@@@std@@@3@$0A@@std@@@std@@IBE_NQAU?$_Tree_node@U?$pair@$$CBGPAUHFONT__@@@std@@PAX@1@ABG@Z ENDP ; std::_Tree<std::_Tmap_traits<unsigned short,HFONT__ *,std::less<unsigned short>,std::allocator<std::pair<unsigned short const ,HFONT__ *> >,0> >::_Lower_bound_duplicate<unsigned short>
_TEXT	ENDS
; Function compile flags: /Odspy
; File C:\Program Files (x86)\Microsoft Visual Studio\2019\Community\VC\Tools\MSVC\14.28.29333\include\xtree
; File C:\Program Files (x86)\Microsoft Visual Studio\2019\Community\VC\Tools\MSVC\14.28.29333\include\xstddef
; File C:\Program Files (x86)\Microsoft Visual Studio\2019\Community\VC\Tools\MSVC\14.28.29333\include\xtree
; File C:\Program Files (x86)\Microsoft Visual Studio\2019\Community\VC\Tools\MSVC\14.28.29333\include\xmemory
; File C:\Program Files (x86)\Microsoft Visual Studio\2019\Community\VC\Tools\MSVC\14.28.29333\include\xtree
; File C:\Program Files (x86)\Microsoft Visual Studio\2019\Community\VC\Tools\MSVC\14.28.29333\include\xstddef
; File C:\Program Files (x86)\Microsoft Visual Studio\2019\Community\VC\Tools\MSVC\14.28.29333\include\xtree
;	COMDAT ??$_Find_lower_bound@G@?$_Tree@V?$_Tmap_traits@GPAUHFONT__@@U?$less@G@std@@V?$allocator@U?$pair@$$CBGPAUHFONT__@@@std@@@3@$0A@@std@@@std@@IBE?AU?$_Tree_find_result@PAU?$_Tree_node@U?$pair@$$CBGPAUHFONT__@@@std@@PAX@std@@@1@ABG@Z
_TEXT	SEGMENT
__Result$ = -40						; size = 12
$T1 = -28						; size = 4
$T2 = -24						; size = 4
$T3 = -20						; size = 4
tv95 = -16						; size = 4
_this$ = -12						; size = 4
__Scary$ = -8						; size = 4
__Trynode$ = -4						; size = 4
___$ReturnUdt$ = 8					; size = 4
__Keyval$ = 12						; size = 4
??$_Find_lower_bound@G@?$_Tree@V?$_Tmap_traits@GPAUHFONT__@@U?$less@G@std@@V?$allocator@U?$pair@$$CBGPAUHFONT__@@@std@@@3@$0A@@std@@@std@@IBE?AU?$_Tree_find_result@PAU?$_Tree_node@U?$pair@$$CBGPAUHFONT__@@@std@@PAX@std@@@1@ABG@Z PROC ; std::_Tree<std::_Tmap_traits<unsigned short,HFONT__ *,std::less<unsigned short>,std::allocator<std::pair<unsigned short const ,HFONT__ *> >,0> >::_Find_lower_bound<unsigned short>, COMDAT
; _this$ = ecx

; 1699 :     _Tree_find_result<_Nodeptr> _Find_lower_bound(const _Keyty& _Keyval) const {

  00000	55		 push	 ebp
  00001	8b ec		 mov	 ebp, esp
  00003	83 ec 28	 sub	 esp, 40			; 00000028H
  00006	56		 push	 esi
  00007	57		 push	 edi
  00008	89 4d f4	 mov	 DWORD PTR _this$[ebp], ecx

; 2051 :         return _STD addressof(_Mypair._Myval2._Myval2);

  0000b	8b 45 f4	 mov	 eax, DWORD PTR _this$[ebp]
; File C:\Program Files (x86)\Microsoft Visual Studio\2019\Community\VC\Tools\MSVC\14.28.29333\include\xstddef

; 275  :     return __builtin_addressof(_Val);

  0000e	89 45 ec	 mov	 DWORD PTR $T3[ebp], eax
; File C:\Program Files (x86)\Microsoft Visual Studio\2019\Community\VC\Tools\MSVC\14.28.29333\include\xtree

; 2051 :         return _STD addressof(_Mypair._Myval2._Myval2);

  00011	8b 45 ec	 mov	 eax, DWORD PTR $T3[ebp]
  00014	89 45 f8	 mov	 DWORD PTR __Scary$[ebp], eax

; 1700 :         const auto _Scary = _Get_scary();
; 1701 :         _Tree_find_result<_Nodeptr> _Result{{_Scary->_Myhead->_Parent, _Tree_child::_Right}, _Scary->_Myhead};

  00017	8b 45 f8	 mov	 eax, DWORD PTR __Scary$[ebp]
  0001a	8b 00		 mov	 eax, DWORD PTR [eax]
  0001c	8b 40 04	 mov	 eax, DWORD PTR [eax+4]
  0001f	89 45 d8	 mov	 DWORD PTR __Result$[ebp], eax
  00022	83 65 dc 00	 and	 DWORD PTR __Result$[ebp+4], 0
  00026	8b 45 f8	 mov	 eax, DWORD PTR __Scary$[ebp]
  00029	8b 00		 mov	 eax, DWORD PTR [eax]
  0002b	89 45 e0	 mov	 DWORD PTR __Result$[ebp+8], eax

; 1702 :         _Nodeptr _Trynode = _Result._Location._Parent;

  0002e	8b 45 d8	 mov	 eax, DWORD PTR __Result$[ebp]
  00031	89 45 fc	 mov	 DWORD PTR __Trynode$[ebp], eax
$LN2@Find_lower:

; 1703 :         while (!_Trynode->_Isnil) {

  00034	8b 45 fc	 mov	 eax, DWORD PTR __Trynode$[ebp]
  00037	0f be 40 0d	 movsx	 eax, BYTE PTR [eax+13]
  0003b	85 c0		 test	 eax, eax
  0003d	75 5e		 jne	 SHORT $LN3@Find_lower

; 1704 :             _Result._Location._Parent = _Trynode;

  0003f	8b 45 fc	 mov	 eax, DWORD PTR __Trynode$[ebp]
  00042	89 45 d8	 mov	 DWORD PTR __Result$[ebp], eax

; 2035 :         return _Mypair._Get_first();

  00045	8b 45 f4	 mov	 eax, DWORD PTR _this$[ebp]
; File C:\Program Files (x86)\Microsoft Visual Studio\2019\Community\VC\Tools\MSVC\14.28.29333\include\xmemory

; 1351 :         return *this;

  00048	89 45 e8	 mov	 DWORD PTR $T2[ebp], eax
; File C:\Program Files (x86)\Microsoft Visual Studio\2019\Community\VC\Tools\MSVC\14.28.29333\include\xtree

; 2035 :         return _Mypair._Get_first();

  0004b	8b 45 e8	 mov	 eax, DWORD PTR $T2[ebp]
  0004e	89 45 e4	 mov	 DWORD PTR $T1[ebp], eax
; File C:\Program Files (x86)\Microsoft Visual Studio\2019\Community\VC\Tools\MSVC\14.28.29333\include\xstddef

; 127  :         return _Left < _Right;

  00051	8b 45 fc	 mov	 eax, DWORD PTR __Trynode$[ebp]
  00054	0f b7 40 10	 movzx	 eax, WORD PTR [eax+16]
  00058	8b 4d 0c	 mov	 ecx, DWORD PTR __Keyval$[ebp]
  0005b	0f b7 09	 movzx	 ecx, WORD PTR [ecx]
  0005e	3b c1		 cmp	 eax, ecx
  00060	7d 09		 jge	 SHORT $LN23@Find_lower
  00062	c7 45 f0 01 00
	00 00		 mov	 DWORD PTR tv95[ebp], 1
  00069	eb 04		 jmp	 SHORT $LN21@Find_lower
$LN23@Find_lower:
  0006b	83 65 f0 00	 and	 DWORD PTR tv95[ebp], 0
$LN21@Find_lower:
; File C:\Program Files (x86)\Microsoft Visual Studio\2019\Community\VC\Tools\MSVC\14.28.29333\include\xtree

; 1705 :             if (_DEBUG_LT_PRED(_Getcomp(), _Traits::_Kfn(_Trynode->_Myval), _Keyval)) {

  0006f	0f b6 45 f0	 movzx	 eax, BYTE PTR tv95[ebp]
  00073	85 c0		 test	 eax, eax
  00075	74 0f		 je	 SHORT $LN4@Find_lower

; 1706 :                 _Result._Location._Child = _Tree_child::_Right;

  00077	83 65 dc 00	 and	 DWORD PTR __Result$[ebp+4], 0

; 1707 :                 _Trynode                 = _Trynode->_Right;

  0007b	8b 45 fc	 mov	 eax, DWORD PTR __Trynode$[ebp]
  0007e	8b 40 08	 mov	 eax, DWORD PTR [eax+8]
  00081	89 45 fc	 mov	 DWORD PTR __Trynode$[ebp], eax

; 1708 :             } else {

  00084	eb 15		 jmp	 SHORT $LN5@Find_lower
$LN4@Find_lower:

; 1709 :                 _Result._Location._Child = _Tree_child::_Left;

  00086	c7 45 dc 01 00
	00 00		 mov	 DWORD PTR __Result$[ebp+4], 1

; 1710 :                 _Result._Bound           = _Trynode;

  0008d	8b 45 fc	 mov	 eax, DWORD PTR __Trynode$[ebp]
  00090	89 45 e0	 mov	 DWORD PTR __Result$[ebp+8], eax

; 1711 :                 _Trynode                 = _Trynode->_Left;

  00093	8b 45 fc	 mov	 eax, DWORD PTR __Trynode$[ebp]
  00096	8b 00		 mov	 eax, DWORD PTR [eax]
  00098	89 45 fc	 mov	 DWORD PTR __Trynode$[ebp], eax
$LN5@Find_lower:

; 1712 :             }
; 1713 :         }

  0009b	eb 97		 jmp	 SHORT $LN2@Find_lower
$LN3@Find_lower:

; 1714 : 
; 1715 :         return _Result;

  0009d	8d 75 d8	 lea	 esi, DWORD PTR __Result$[ebp]
  000a0	8b 7d 08	 mov	 edi, DWORD PTR ___$ReturnUdt$[ebp]
  000a3	a5		 movsd
  000a4	a5		 movsd
  000a5	a5		 movsd
  000a6	8b 45 08	 mov	 eax, DWORD PTR ___$ReturnUdt$[ebp]

; 1716 :     }

  000a9	5f		 pop	 edi
  000aa	5e		 pop	 esi
  000ab	c9		 leave
  000ac	c2 08 00	 ret	 8
??$_Find_lower_bound@G@?$_Tree@V?$_Tmap_traits@GPAUHFONT__@@U?$less@G@std@@V?$allocator@U?$pair@$$CBGPAUHFONT__@@@std@@@3@$0A@@std@@@std@@IBE?AU?$_Tree_find_result@PAU?$_Tree_node@U?$pair@$$CBGPAUHFONT__@@@std@@PAX@std@@@1@ABG@Z ENDP ; std::_Tree<std::_Tmap_traits<unsigned short,HFONT__ *,std::less<unsigned short>,std::allocator<std::pair<unsigned short const ,HFONT__ *> >,0> >::_Find_lower_bound<unsigned short>
_TEXT	ENDS
; Function compile flags: /Odspy
; File C:\Program Files (x86)\Microsoft Visual Studio\2019\Community\VC\Tools\MSVC\14.28.29333\include\xtree
; File C:\Program Files (x86)\Microsoft Visual Studio\2019\Community\VC\Tools\MSVC\14.28.29333\include\xstddef
; File C:\Program Files (x86)\Microsoft Visual Studio\2019\Community\VC\Tools\MSVC\14.28.29333\include\xtree
; File C:\Program Files (x86)\Microsoft Visual Studio\2019\Community\VC\Tools\MSVC\14.28.29333\include\xmemory
; File C:\Program Files (x86)\Microsoft Visual Studio\2019\Community\VC\Tools\MSVC\14.28.29333\include\xtree
; File C:\Program Files (x86)\Microsoft Visual Studio\2019\Community\VC\Tools\MSVC\14.28.29333\include\xmemory
; File C:\Program Files (x86)\Microsoft Visual Studio\2019\Community\VC\Tools\MSVC\14.28.29333\include\xtree
; File C:\Program Files (x86)\Microsoft Visual Studio\2019\Community\VC\Tools\MSVC\14.28.29333\include\xstddef
; File C:\Program Files (x86)\Microsoft Visual Studio\2019\Community\VC\Tools\MSVC\14.28.29333\include\xtree
; File C:\Program Files (x86)\Microsoft Visual Studio\2019\Community\VC\Tools\MSVC\14.28.29333\include\type_traits
; File C:\Program Files (x86)\Microsoft Visual Studio\2019\Community\VC\Tools\MSVC\14.28.29333\include\utility
; File C:\Program Files (x86)\Microsoft Visual Studio\2019\Community\VC\Tools\MSVC\14.28.29333\include\type_traits
; File C:\Program Files (x86)\Microsoft Visual Studio\2019\Community\VC\Tools\MSVC\14.28.29333\include\utility
; File C:\Program Files (x86)\Microsoft Visual Studio\2019\Community\VC\Tools\MSVC\14.28.29333\include\xtree
; File C:\Program Files (x86)\Microsoft Visual Studio\2019\Community\VC\Tools\MSVC\14.28.29333\include\type_traits
; File C:\Program Files (x86)\Microsoft Visual Studio\2019\Community\VC\Tools\MSVC\14.28.29333\include\xtree
; File C:\Program Files (x86)\Microsoft Visual Studio\2019\Community\VC\Tools\MSVC\14.28.29333\include\xmemory
; File C:\Program Files (x86)\Microsoft Visual Studio\2019\Community\VC\Tools\MSVC\14.28.29333\include\xtree
; File C:\Program Files (x86)\Microsoft Visual Studio\2019\Community\VC\Tools\MSVC\14.28.29333\include\xmemory
; File C:\Program Files (x86)\Microsoft Visual Studio\2019\Community\VC\Tools\MSVC\14.28.29333\include\utility
; File C:\Program Files (x86)\Microsoft Visual Studio\2019\Community\VC\Tools\MSVC\14.28.29333\include\xmemory
; File C:\Program Files (x86)\Microsoft Visual Studio\2019\Community\VC\Tools\MSVC\14.28.29333\include\xtree
; File C:\Program Files (x86)\Microsoft Visual Studio\2019\Community\VC\Tools\MSVC\14.28.29333\include\type_traits
; File C:\Program Files (x86)\Microsoft Visual Studio\2019\Community\VC\Tools\MSVC\14.28.29333\include\utility
; File C:\Program Files (x86)\Microsoft Visual Studio\2019\Community\VC\Tools\MSVC\14.28.29333\include\type_traits
; File C:\Program Files (x86)\Microsoft Visual Studio\2019\Community\VC\Tools\MSVC\14.28.29333\include\utility
; File C:\Program Files (x86)\Microsoft Visual Studio\2019\Community\VC\Tools\MSVC\14.28.29333\include\xtree
;	COMDAT ??$_Emplace@U?$pair@$$CBGPAUHFONT__@@@std@@@?$_Tree@V?$_Tmap_traits@GPAUHFONT__@@U?$less@G@std@@V?$allocator@U?$pair@$$CBGPAUHFONT__@@@std@@@3@$0A@@std@@@std@@IAE?AU?$pair@PAU?$_Tree_node@U?$pair@$$CBGPAUHFONT__@@@std@@PAX@std@@_N@1@$$QAU?$pair@$$CBGPAUHFONT__@@@1@@Z
_TEXT	SEGMENT
$T1 = -128						; size = 12
$T2 = -116						; size = 8
$T3 = -108						; size = 4
__Loc$ = -104						; size = 12
$T4 = -92						; size = 4
$T5 = -88						; size = 4
$T6 = -84						; size = 4
__Inserted$ = -80					; size = 4
$T7 = -76						; size = 4
__Old_val$8 = -72					; size = 4
$T9 = -68						; size = 4
$T10 = -64						; size = 4
$T11 = -60						; size = 4
$T12 = -56						; size = 4
$T13 = -52						; size = 4
$T14 = -48						; size = 4
$T15 = -44						; size = 4
$T16 = -40						; size = 4
$T17 = -36						; size = 4
__Scary$ = -32						; size = 4
__Val$ = -28						; size = 4
tv149 = -24						; size = 4
tv177 = -20						; size = 4
__Bound$ = -16						; size = 4
__Keyval$18 = -12					; size = 4
_this$ = -8						; size = 4
$T19 = -2						; size = 1
$T20 = -1						; size = 1
___$ReturnUdt$ = 8					; size = 4
_<_Vals_0>$ = 12					; size = 4
??$_Emplace@U?$pair@$$CBGPAUHFONT__@@@std@@@?$_Tree@V?$_Tmap_traits@GPAUHFONT__@@U?$less@G@std@@V?$allocator@U?$pair@$$CBGPAUHFONT__@@@std@@@3@$0A@@std@@@std@@IAE?AU?$pair@PAU?$_Tree_node@U?$pair@$$CBGPAUHFONT__@@@std@@PAX@std@@_N@1@$$QAU?$pair@$$CBGPAUHFONT__@@@1@@Z PROC ; std::_Tree<std::_Tmap_traits<unsigned short,HFONT__ *,std::less<unsigned short>,std::allocator<std::pair<unsigned short const ,HFONT__ *> >,0> >::_Emplace<std::pair<unsigned short const ,HFONT__ *> >, COMDAT
; _this$ = ecx

; 1002 :     pair<_Nodeptr, bool> _Emplace(_Valtys&&... _Vals) {

  00000	55		 push	 ebp
  00001	8b ec		 mov	 ebp, esp
  00003	81 ec 80 00 00
	00		 sub	 esp, 128		; 00000080H
  00009	56		 push	 esi
  0000a	57		 push	 edi
  0000b	89 4d f8	 mov	 DWORD PTR _this$[ebp], ecx

; 2047 :         return _STD addressof(_Mypair._Myval2._Myval2);

  0000e	8b 45 f8	 mov	 eax, DWORD PTR _this$[ebp]
; File C:\Program Files (x86)\Microsoft Visual Studio\2019\Community\VC\Tools\MSVC\14.28.29333\include\xstddef

; 275  :     return __builtin_addressof(_Val);

  00011	89 45 dc	 mov	 DWORD PTR $T17[ebp], eax
; File C:\Program Files (x86)\Microsoft Visual Studio\2019\Community\VC\Tools\MSVC\14.28.29333\include\xtree

; 2047 :         return _STD addressof(_Mypair._Myval2._Myval2);

  00014	8b 45 dc	 mov	 eax, DWORD PTR $T17[ebp]
  00017	89 45 e0	 mov	 DWORD PTR __Scary$[ebp], eax
; File C:\Program Files (x86)\Microsoft Visual Studio\2019\Community\VC\Tools\MSVC\14.28.29333\include\xmemory

; 2000 :         return _Val.first;

  0001a	8b 45 0c	 mov	 eax, DWORD PTR _<_Vals_0>$[ebp]
; File C:\Program Files (x86)\Microsoft Visual Studio\2019\Community\VC\Tools\MSVC\14.28.29333\include\xtree

; 1008 :             const auto& _Keyval = _In_place_key_extractor::_Extract(_Vals...);

  0001d	89 45 f4	 mov	 DWORD PTR __Keyval$18[ebp], eax

; 1009 :             _Loc                = _Find_lower_bound(_Keyval);

  00020	ff 75 f4	 push	 DWORD PTR __Keyval$18[ebp]
  00023	8d 45 80	 lea	 eax, DWORD PTR $T1[ebp]
  00026	50		 push	 eax
  00027	8b 4d f8	 mov	 ecx, DWORD PTR _this$[ebp]
  0002a	e8 00 00 00 00	 call	 ??$_Find_lower_bound@G@?$_Tree@V?$_Tmap_traits@GPAUHFONT__@@U?$less@G@std@@V?$allocator@U?$pair@$$CBGPAUHFONT__@@@std@@@3@$0A@@std@@@std@@IBE?AU?$_Tree_find_result@PAU?$_Tree_node@U?$pair@$$CBGPAUHFONT__@@@std@@PAX@std@@@1@ABG@Z ; std::_Tree<std::_Tmap_traits<unsigned short,HFONT__ *,std::less<unsigned short>,std::allocator<std::pair<unsigned short const ,HFONT__ *> >,0> >::_Find_lower_bound<unsigned short>
  0002f	8b f0		 mov	 esi, eax
  00031	8d 7d 98	 lea	 edi, DWORD PTR __Loc$[ebp]
  00034	a5		 movsd
  00035	a5		 movsd
  00036	a5		 movsd

; 1010 :             if (_Lower_bound_duplicate(_Loc._Bound, _Keyval)) {

  00037	8b 45 a0	 mov	 eax, DWORD PTR __Loc$[ebp+8]
  0003a	89 45 f0	 mov	 DWORD PTR __Bound$[ebp], eax

; 1695 :         return !_Bound->_Isnil && !_DEBUG_LT_PRED(_Getcomp(), _Keyval, _Traits::_Kfn(_Bound->_Myval));

  0003d	8b 45 f0	 mov	 eax, DWORD PTR __Bound$[ebp]
  00040	0f be 40 0d	 movsx	 eax, BYTE PTR [eax+13]
  00044	85 c0		 test	 eax, eax
  00046	75 3b		 jne	 SHORT $LN39@Emplace

; 2035 :         return _Mypair._Get_first();

  00048	8b 45 f8	 mov	 eax, DWORD PTR _this$[ebp]
; File C:\Program Files (x86)\Microsoft Visual Studio\2019\Community\VC\Tools\MSVC\14.28.29333\include\xmemory

; 1351 :         return *this;

  0004b	89 45 d8	 mov	 DWORD PTR $T16[ebp], eax
; File C:\Program Files (x86)\Microsoft Visual Studio\2019\Community\VC\Tools\MSVC\14.28.29333\include\xtree

; 2035 :         return _Mypair._Get_first();

  0004e	8b 45 d8	 mov	 eax, DWORD PTR $T16[ebp]
  00051	89 45 94	 mov	 DWORD PTR $T3[ebp], eax
; File C:\Program Files (x86)\Microsoft Visual Studio\2019\Community\VC\Tools\MSVC\14.28.29333\include\xstddef

; 127  :         return _Left < _Right;

  00054	8b 45 f4	 mov	 eax, DWORD PTR __Keyval$18[ebp]
  00057	0f b7 00	 movzx	 eax, WORD PTR [eax]
  0005a	8b 4d f0	 mov	 ecx, DWORD PTR __Bound$[ebp]
  0005d	0f b7 49 10	 movzx	 ecx, WORD PTR [ecx+16]
  00061	3b c1		 cmp	 eax, ecx
  00063	7d 09		 jge	 SHORT $LN51@Emplace
  00065	c7 45 ec 01 00
	00 00		 mov	 DWORD PTR tv177[ebp], 1
  0006c	eb 04		 jmp	 SHORT $LN49@Emplace
$LN51@Emplace:
  0006e	83 65 ec 00	 and	 DWORD PTR tv177[ebp], 0
$LN49@Emplace:
; File C:\Program Files (x86)\Microsoft Visual Studio\2019\Community\VC\Tools\MSVC\14.28.29333\include\xtree

; 1695 :         return !_Bound->_Isnil && !_DEBUG_LT_PRED(_Getcomp(), _Keyval, _Traits::_Kfn(_Bound->_Myval));

  00072	0f b6 45 ec	 movzx	 eax, BYTE PTR tv177[ebp]
  00076	85 c0		 test	 eax, eax
  00078	75 09		 jne	 SHORT $LN39@Emplace
  0007a	c7 45 e8 01 00
	00 00		 mov	 DWORD PTR tv149[ebp], 1
  00081	eb 04		 jmp	 SHORT $LN37@Emplace
$LN39@Emplace:
  00083	83 65 e8 00	 and	 DWORD PTR tv149[ebp], 0
$LN37@Emplace:

; 1010 :             if (_Lower_bound_duplicate(_Loc._Bound, _Keyval)) {

  00087	0f b6 45 e8	 movzx	 eax, BYTE PTR tv149[ebp]
  0008b	85 c0		 test	 eax, eax
  0008d	74 2d		 je	 SHORT $LN2@Emplace

; 1011 :                 return {_Loc._Bound, false};

  0008f	c6 45 ff 00	 mov	 BYTE PTR $T20[ebp], 0
; File C:\Program Files (x86)\Microsoft Visual Studio\2019\Community\VC\Tools\MSVC\14.28.29333\include\type_traits

; 1443 :     return static_cast<_Ty&&>(_Arg);

  00093	8d 45 a0	 lea	 eax, DWORD PTR __Loc$[ebp+8]
  00096	89 45 d4	 mov	 DWORD PTR $T15[ebp], eax
; File C:\Program Files (x86)\Microsoft Visual Studio\2019\Community\VC\Tools\MSVC\14.28.29333\include\utility

; 190  :         : first(_STD forward<_Other1>(_Val1)), second(_STD forward<_Other2>(_Val2)) {}

  00099	8b 45 08	 mov	 eax, DWORD PTR ___$ReturnUdt$[ebp]
  0009c	8b 4d d4	 mov	 ecx, DWORD PTR $T15[ebp]
  0009f	8b 09		 mov	 ecx, DWORD PTR [ecx]
  000a1	89 08		 mov	 DWORD PTR [eax], ecx
; File C:\Program Files (x86)\Microsoft Visual Studio\2019\Community\VC\Tools\MSVC\14.28.29333\include\type_traits

; 1443 :     return static_cast<_Ty&&>(_Arg);

  000a3	8d 45 ff	 lea	 eax, DWORD PTR $T20[ebp]
  000a6	89 45 d0	 mov	 DWORD PTR $T14[ebp], eax
; File C:\Program Files (x86)\Microsoft Visual Studio\2019\Community\VC\Tools\MSVC\14.28.29333\include\utility

; 190  :         : first(_STD forward<_Other1>(_Val1)), second(_STD forward<_Other2>(_Val2)) {}

  000a9	8b 45 08	 mov	 eax, DWORD PTR ___$ReturnUdt$[ebp]
  000ac	8b 4d d0	 mov	 ecx, DWORD PTR $T14[ebp]
  000af	8a 09		 mov	 cl, BYTE PTR [ecx]
  000b1	88 48 04	 mov	 BYTE PTR [eax+4], cl
; File C:\Program Files (x86)\Microsoft Visual Studio\2019\Community\VC\Tools\MSVC\14.28.29333\include\xtree

; 1011 :                 return {_Loc._Bound, false};

  000b4	8b 45 08	 mov	 eax, DWORD PTR ___$ReturnUdt$[ebp]
  000b7	e9 9d 00 00 00	 jmp	 $LN1@Emplace
$LN2@Emplace:

; 1012 :             }
; 1013 : 
; 1014 :             _Check_grow_by_1();

  000bc	8b 4d f8	 mov	 ecx, DWORD PTR _this$[ebp]
  000bf	e8 00 00 00 00	 call	 ?_Check_grow_by_1@?$_Tree@V?$_Tmap_traits@GPAUHFONT__@@U?$less@G@std@@V?$allocator@U?$pair@$$CBGPAUHFONT__@@@std@@@3@$0A@@std@@@std@@IAEXXZ ; std::_Tree<std::_Tmap_traits<unsigned short,HFONT__ *,std::less<unsigned short>,std::allocator<std::pair<unsigned short const ,HFONT__ *> >,0> >::_Check_grow_by_1
; File C:\Program Files (x86)\Microsoft Visual Studio\2019\Community\VC\Tools\MSVC\14.28.29333\include\type_traits

; 1443 :     return static_cast<_Ty&&>(_Arg);

  000c4	8b 45 0c	 mov	 eax, DWORD PTR _<_Vals_0>$[ebp]
  000c7	89 45 c8	 mov	 DWORD PTR $T12[ebp], eax
; File C:\Program Files (x86)\Microsoft Visual Studio\2019\Community\VC\Tools\MSVC\14.28.29333\include\xtree

; 2039 :         return _Mypair._Myval2._Get_first();

  000ca	8b 45 f8	 mov	 eax, DWORD PTR _this$[ebp]
; File C:\Program Files (x86)\Microsoft Visual Studio\2019\Community\VC\Tools\MSVC\14.28.29333\include\xmemory

; 1347 :         return *this;

  000cd	89 45 cc	 mov	 DWORD PTR $T13[ebp], eax
; File C:\Program Files (x86)\Microsoft Visual Studio\2019\Community\VC\Tools\MSVC\14.28.29333\include\xtree

; 2039 :         return _Mypair._Myval2._Get_first();

  000d0	8b 45 cc	 mov	 eax, DWORD PTR $T13[ebp]
  000d3	89 45 c4	 mov	 DWORD PTR $T11[ebp], eax

; 1015 :             _Inserted = _Tree_temp_node<_Alnode>(_Getal(), _Scary->_Myhead, _STD forward<_Valtys>(_Vals)...)._Release();

  000d6	ff 75 c8	 push	 DWORD PTR $T12[ebp]
  000d9	8b 45 e0	 mov	 eax, DWORD PTR __Scary$[ebp]
  000dc	ff 30		 push	 DWORD PTR [eax]
  000de	ff 75 c4	 push	 DWORD PTR $T11[ebp]
  000e1	8d 4d 8c	 lea	 ecx, DWORD PTR $T2[ebp]
  000e4	e8 00 00 00 00	 call	 ??$?0U?$pair@$$CBGPAUHFONT__@@@std@@@?$_Tree_temp_node@V?$allocator@U?$_Tree_node@U?$pair@$$CBGPAUHFONT__@@@std@@PAX@std@@@std@@@std@@QAE@AAV?$allocator@U?$_Tree_node@U?$pair@$$CBGPAUHFONT__@@@std@@PAX@std@@@1@PAU?$_Tree_node@U?$pair@$$CBGPAUHFONT__@@@std@@PAX@1@$$QAU?$pair@$$CBGPAUHFONT__@@@1@@Z ; std::_Tree_temp_node<std::allocator<std::_Tree_node<std::pair<unsigned short const ,HFONT__ *>,void *> > >::_Tree_temp_node<std::allocator<std::_Tree_node<std::pair<unsigned short const ,HFONT__ *>,void *> > ><std::pair<unsigned short const ,HFONT__ *> >
  000e9	89 45 c0	 mov	 DWORD PTR $T10[ebp], eax
; File C:\Program Files (x86)\Microsoft Visual Studio\2019\Community\VC\Tools\MSVC\14.28.29333\include\xmemory

; 1048 :         return _STD exchange(_Ptr, nullptr);

  000ec	83 65 bc 00	 and	 DWORD PTR $T9[ebp], 0
  000f0	8b 45 c0	 mov	 eax, DWORD PTR $T10[ebp]
  000f3	83 c0 04	 add	 eax, 4
  000f6	89 45 e4	 mov	 DWORD PTR __Val$[ebp], eax
; File C:\Program Files (x86)\Microsoft Visual Studio\2019\Community\VC\Tools\MSVC\14.28.29333\include\utility

; 598  :     _Ty _Old_val = static_cast<_Ty&&>(_Val);

  000f9	8b 45 e4	 mov	 eax, DWORD PTR __Val$[ebp]
  000fc	8b 00		 mov	 eax, DWORD PTR [eax]
  000fe	89 45 b8	 mov	 DWORD PTR __Old_val$8[ebp], eax

; 599  :     _Val         = static_cast<_Other&&>(_New_val);

  00101	8b 45 e4	 mov	 eax, DWORD PTR __Val$[ebp]
  00104	8b 4d bc	 mov	 ecx, DWORD PTR $T9[ebp]
  00107	89 08		 mov	 DWORD PTR [eax], ecx

; 600  :     return _Old_val;

  00109	8b 45 b8	 mov	 eax, DWORD PTR __Old_val$8[ebp]
  0010c	89 45 b4	 mov	 DWORD PTR $T7[ebp], eax
; File C:\Program Files (x86)\Microsoft Visual Studio\2019\Community\VC\Tools\MSVC\14.28.29333\include\xmemory

; 1048 :         return _STD exchange(_Ptr, nullptr);

  0010f	8b 45 b4	 mov	 eax, DWORD PTR $T7[ebp]
  00112	89 45 b0	 mov	 DWORD PTR __Inserted$[ebp], eax
; File C:\Program Files (x86)\Microsoft Visual Studio\2019\Community\VC\Tools\MSVC\14.28.29333\include\xtree

; 1015 :             _Inserted = _Tree_temp_node<_Alnode>(_Getal(), _Scary->_Myhead, _STD forward<_Valtys>(_Vals)...)._Release();

  00115	8d 4d 8c	 lea	 ecx, DWORD PTR $T2[ebp]
  00118	e8 00 00 00 00	 call	 ??1?$_Tree_temp_node@V?$allocator@U?$_Tree_node@U?$pair@$$CBGPAUHFONT__@@@std@@PAX@std@@@std@@@std@@QAE@XZ ; std::_Tree_temp_node<std::allocator<std::_Tree_node<std::pair<unsigned short const ,HFONT__ *>,void *> > >::~_Tree_temp_node<std::allocator<std::_Tree_node<std::pair<unsigned short const ,HFONT__ *>,void *> > >

; 1034 :         return {_Scary->_Insert_node(_Loc._Location, _Inserted), true};

  0011d	ff 75 b0	 push	 DWORD PTR __Inserted$[ebp]
  00120	ff 75 9c	 push	 DWORD PTR __Loc$[ebp+4]
  00123	ff 75 98	 push	 DWORD PTR __Loc$[ebp]
  00126	8b 4d e0	 mov	 ecx, DWORD PTR __Scary$[ebp]
  00129	e8 00 00 00 00	 call	 ?_Insert_node@?$_Tree_val@U?$_Tree_simple_types@U?$pair@$$CBGPAUHFONT__@@@std@@@std@@@std@@QAEPAU?$_Tree_node@U?$pair@$$CBGPAUHFONT__@@@std@@PAX@2@U?$_Tree_id@PAU?$_Tree_node@U?$pair@$$CBGPAUHFONT__@@@std@@PAX@std@@@2@QAU32@@Z ; std::_Tree_val<std::_Tree_simple_types<std::pair<unsigned short const ,HFONT__ *> > >::_Insert_node
  0012e	89 45 ac	 mov	 DWORD PTR $T6[ebp], eax
  00131	c6 45 fe 01	 mov	 BYTE PTR $T19[ebp], 1
; File C:\Program Files (x86)\Microsoft Visual Studio\2019\Community\VC\Tools\MSVC\14.28.29333\include\type_traits

; 1443 :     return static_cast<_Ty&&>(_Arg);

  00135	8d 45 ac	 lea	 eax, DWORD PTR $T6[ebp]
  00138	89 45 a8	 mov	 DWORD PTR $T5[ebp], eax
; File C:\Program Files (x86)\Microsoft Visual Studio\2019\Community\VC\Tools\MSVC\14.28.29333\include\utility

; 190  :         : first(_STD forward<_Other1>(_Val1)), second(_STD forward<_Other2>(_Val2)) {}

  0013b	8b 45 08	 mov	 eax, DWORD PTR ___$ReturnUdt$[ebp]
  0013e	8b 4d a8	 mov	 ecx, DWORD PTR $T5[ebp]
  00141	8b 09		 mov	 ecx, DWORD PTR [ecx]
  00143	89 08		 mov	 DWORD PTR [eax], ecx
; File C:\Program Files (x86)\Microsoft Visual Studio\2019\Community\VC\Tools\MSVC\14.28.29333\include\type_traits

; 1443 :     return static_cast<_Ty&&>(_Arg);

  00145	8d 45 fe	 lea	 eax, DWORD PTR $T19[ebp]
  00148	89 45 a4	 mov	 DWORD PTR $T4[ebp], eax
; File C:\Program Files (x86)\Microsoft Visual Studio\2019\Community\VC\Tools\MSVC\14.28.29333\include\utility

; 190  :         : first(_STD forward<_Other1>(_Val1)), second(_STD forward<_Other2>(_Val2)) {}

  0014b	8b 45 08	 mov	 eax, DWORD PTR ___$ReturnUdt$[ebp]
  0014e	8b 4d a4	 mov	 ecx, DWORD PTR $T4[ebp]
  00151	8a 09		 mov	 cl, BYTE PTR [ecx]
  00153	88 48 04	 mov	 BYTE PTR [eax+4], cl
; File C:\Program Files (x86)\Microsoft Visual Studio\2019\Community\VC\Tools\MSVC\14.28.29333\include\xtree

; 1034 :         return {_Scary->_Insert_node(_Loc._Location, _Inserted), true};

  00156	8b 45 08	 mov	 eax, DWORD PTR ___$ReturnUdt$[ebp]
$LN1@Emplace:

; 1035 :     }

  00159	5f		 pop	 edi
  0015a	5e		 pop	 esi
  0015b	c9		 leave
  0015c	c2 08 00	 ret	 8
??$_Emplace@U?$pair@$$CBGPAUHFONT__@@@std@@@?$_Tree@V?$_Tmap_traits@GPAUHFONT__@@U?$less@G@std@@V?$allocator@U?$pair@$$CBGPAUHFONT__@@@std@@@3@$0A@@std@@@std@@IAE?AU?$pair@PAU?$_Tree_node@U?$pair@$$CBGPAUHFONT__@@@std@@PAX@std@@_N@1@$$QAU?$pair@$$CBGPAUHFONT__@@@1@@Z ENDP ; std::_Tree<std::_Tmap_traits<unsigned short,HFONT__ *,std::less<unsigned short>,std::allocator<std::pair<unsigned short const ,HFONT__ *> >,0> >::_Emplace<std::pair<unsigned short const ,HFONT__ *> >
_TEXT	ENDS
; Function compile flags: /Odspy
; File C:\Program Files (x86)\Microsoft Visual Studio\2019\Community\VC\Tools\MSVC\14.28.29333\include\xmemory
;	COMDAT ??$_Destroy_range@V?$allocator@PAVCGraphicImageTexture@@@std@@@std@@YAXPAPAVCGraphicImageTexture@@QAPAV1@AAV?$allocator@PAVCGraphicImageTexture@@@0@@Z
_TEXT	SEGMENT
__First$ = 8						; size = 4
__Last$ = 12						; size = 4
__Al$ = 16						; size = 4
??$_Destroy_range@V?$allocator@PAVCGraphicImageTexture@@@std@@@std@@YAXPAPAVCGraphicImageTexture@@QAPAV1@AAV?$allocator@PAVCGraphicImageTexture@@@0@@Z PROC ; std::_Destroy_range<std::allocator<CGraphicImageTexture *> >, COMDAT

; 962  :     _Alloc_ptr_t<_Alloc> _First, const _Alloc_ptr_t<_Alloc> _Last, _Alloc& _Al) noexcept {

  00000	55		 push	 ebp
  00001	8b ec		 mov	 ebp, esp

; 963  :     // note that this is an optimization for debug mode codegen; in release mode the BE removes all of this
; 964  :     using _Ty = typename _Alloc::value_type;
; 965  :     if _CONSTEXPR_IF (!conjunction_v<is_trivially_destructible<_Ty>, _Uses_default_destroy<_Alloc, _Ty*>>) {
; 966  :         for (; _First != _Last; ++_First) {
; 967  :             allocator_traits<_Alloc>::destroy(_Al, _Unfancy(_First));
; 968  :         }
; 969  :     }
; 970  : }

  00003	5d		 pop	 ebp
  00004	c3		 ret	 0
??$_Destroy_range@V?$allocator@PAVCGraphicImageTexture@@@std@@@std@@YAXPAPAVCGraphicImageTexture@@QAPAV1@AAV?$allocator@PAVCGraphicImageTexture@@@0@@Z ENDP ; std::_Destroy_range<std::allocator<CGraphicImageTexture *> >
_TEXT	ENDS
; Function compile flags: /Odspy
; File C:\Program Files (x86)\Microsoft Visual Studio\2019\Community\VC\Tools\MSVC\14.28.29333\include\xtree
; File C:\Program Files (x86)\Microsoft Visual Studio\2019\Community\VC\Tools\MSVC\14.28.29333\include\xmemory
; File C:\Program Files (x86)\Microsoft Visual Studio\2019\Community\VC\Tools\MSVC\14.28.29333\include\xtree
;	COMDAT ??$_Buyheadnode@V?$allocator@U?$_Tree_node@U?$pair@$$CBU?$pair@G_W@std@@USCharacterInfomation@CGraphicFontTexture@@@std@@PAX@std@@@std@@@?$_Tree_node@U?$pair@$$CBU?$pair@G_W@std@@USCharacterInfomation@CGraphicFontTexture@@@std@@PAX@std@@SAPAU01@AAV?$allocator@U?$_Tree_node@U?$pair@$$CBU?$pair@G_W@std@@USCharacterInfomation@CGraphicFontTexture@@@std@@PAX@std@@@1@@Z
_TEXT	SEGMENT
__Max_possible$1 = -20					; size = 4
$T2 = -16						; size = 4
$T3 = -12						; size = 4
__Pnode$ = -8						; size = 4
__Overflow_is_possible$4 = -1				; size = 1
__Al$ = 8						; size = 4
??$_Buyheadnode@V?$allocator@U?$_Tree_node@U?$pair@$$CBU?$pair@G_W@std@@USCharacterInfomation@CGraphicFontTexture@@@std@@PAX@std@@@std@@@?$_Tree_node@U?$pair@$$CBU?$pair@G_W@std@@USCharacterInfomation@CGraphicFontTexture@@@std@@PAX@std@@SAPAU01@AAV?$allocator@U?$_Tree_node@U?$pair@$$CBU?$pair@G_W@std@@USCharacterInfomation@CGraphicFontTexture@@@std@@PAX@std@@@1@@Z PROC ; std::_Tree_node<std::pair<std::pair<unsigned short,wchar_t> const ,CGraphicFontTexture::SCharacterInfomation>,void *>::_Buyheadnode<std::allocator<std::_Tree_node<std::pair<std::pair<unsigned short,wchar_t> const ,CGraphicFontTexture::SCharacterInfomation>,void *> > >, COMDAT

; 341  :     static _Nodeptr _Buyheadnode(_Alloc& _Al) {

  00000	55		 push	 ebp
  00001	8b ec		 mov	 ebp, esp
  00003	83 ec 14	 sub	 esp, 20			; 00000014H
; File C:\Program Files (x86)\Microsoft Visual Studio\2019\Community\VC\Tools\MSVC\14.28.29333\include\xmemory

; 56   :     constexpr bool _Overflow_is_possible = _Ty_size > 1;

  00006	c6 45 ff 01	 mov	 BYTE PTR __Overflow_is_possible$4[ebp], 1

; 57   : 
; 58   :     if _CONSTEXPR_IF (_Overflow_is_possible) {
; 59   :         constexpr size_t _Max_possible = static_cast<size_t>(-1) / _Ty_size;

  0000a	c7 45 ec 55 55
	55 05		 mov	 DWORD PTR __Max_possible$1[ebp], 89478485 ; 05555555H

; 60   :         if (_Count > _Max_possible) {

  00011	33 c0		 xor	 eax, eax
  00013	40		 inc	 eax
  00014	3d 55 55 55 05	 cmp	 eax, 89478485		; 05555555H
  00019	76 05		 jbe	 SHORT $LN6@Buyheadnod

; 61   :             _Throw_bad_array_new_length(); // multiply overflow

  0001b	e8 00 00 00 00	 call	 ?_Throw_bad_array_new_length@std@@YAXXZ ; std::_Throw_bad_array_new_length
$LN6@Buyheadnod:

; 62   :         }
; 63   :     }
; 64   : 
; 65   :     return _Count * _Ty_size;

  00020	33 c0		 xor	 eax, eax
  00022	40		 inc	 eax
  00023	6b c0 30	 imul	 eax, eax, 48
  00026	89 45 f4	 mov	 DWORD PTR $T3[ebp], eax

; 814  :         return static_cast<_Ty*>(_Allocate<_New_alignof<_Ty>>(_Get_size_of_n<sizeof(_Ty)>(_Count)));

  00029	ff 75 f4	 push	 DWORD PTR $T3[ebp]
  0002c	e8 00 00 00 00	 call	 ??$_Allocate@$07U_Default_allocate_traits@std@@$0A@@std@@YAPAXI@Z ; std::_Allocate<8,std::_Default_allocate_traits,0>
  00031	59		 pop	 ecx
  00032	89 45 f0	 mov	 DWORD PTR $T2[ebp], eax
; File C:\Program Files (x86)\Microsoft Visual Studio\2019\Community\VC\Tools\MSVC\14.28.29333\include\xtree

; 343  :         const auto _Pnode = _Al.allocate(1);

  00035	8b 45 f0	 mov	 eax, DWORD PTR $T2[ebp]
  00038	89 45 f8	 mov	 DWORD PTR __Pnode$[ebp], eax

; 344  :         _Construct_in_place(_Pnode->_Left, _Pnode);

  0003b	8d 45 f8	 lea	 eax, DWORD PTR __Pnode$[ebp]
  0003e	50		 push	 eax
  0003f	ff 75 f8	 push	 DWORD PTR __Pnode$[ebp]
  00042	e8 00 00 00 00	 call	 ??$_Construct_in_place@PAU?$_Tree_node@U?$pair@$$CBU?$pair@G_W@std@@USCharacterInfomation@CGraphicFontTexture@@@std@@PAX@std@@ABQAU12@@std@@YAXAAPAU?$_Tree_node@U?$pair@$$CBU?$pair@G_W@std@@USCharacterInfomation@CGraphicFontTexture@@@std@@PAX@0@ABQAU10@@Z ; std::_Construct_in_place<std::_Tree_node<std::pair<std::pair<unsigned short,wchar_t> const ,CGraphicFontTexture::SCharacterInfomation>,void *> *,std::_Tree_node<std::pair<std::pair<unsigned short,wchar_t> const ,CGraphicFontTexture::SCharacterInfomation>,void *> * const &>
  00047	59		 pop	 ecx
  00048	59		 pop	 ecx

; 345  :         _Construct_in_place(_Pnode->_Parent, _Pnode);

  00049	8d 45 f8	 lea	 eax, DWORD PTR __Pnode$[ebp]
  0004c	50		 push	 eax
  0004d	8b 45 f8	 mov	 eax, DWORD PTR __Pnode$[ebp]
  00050	83 c0 04	 add	 eax, 4
  00053	50		 push	 eax
  00054	e8 00 00 00 00	 call	 ??$_Construct_in_place@PAU?$_Tree_node@U?$pair@$$CBU?$pair@G_W@std@@USCharacterInfomation@CGraphicFontTexture@@@std@@PAX@std@@ABQAU12@@std@@YAXAAPAU?$_Tree_node@U?$pair@$$CBU?$pair@G_W@std@@USCharacterInfomation@CGraphicFontTexture@@@std@@PAX@0@ABQAU10@@Z ; std::_Construct_in_place<std::_Tree_node<std::pair<std::pair<unsigned short,wchar_t> const ,CGraphicFontTexture::SCharacterInfomation>,void *> *,std::_Tree_node<std::pair<std::pair<unsigned short,wchar_t> const ,CGraphicFontTexture::SCharacterInfomation>,void *> * const &>
  00059	59		 pop	 ecx
  0005a	59		 pop	 ecx

; 346  :         _Construct_in_place(_Pnode->_Right, _Pnode);

  0005b	8d 45 f8	 lea	 eax, DWORD PTR __Pnode$[ebp]
  0005e	50		 push	 eax
  0005f	8b 45 f8	 mov	 eax, DWORD PTR __Pnode$[ebp]
  00062	83 c0 08	 add	 eax, 8
  00065	50		 push	 eax
  00066	e8 00 00 00 00	 call	 ??$_Construct_in_place@PAU?$_Tree_node@U?$pair@$$CBU?$pair@G_W@std@@USCharacterInfomation@CGraphicFontTexture@@@std@@PAX@std@@ABQAU12@@std@@YAXAAPAU?$_Tree_node@U?$pair@$$CBU?$pair@G_W@std@@USCharacterInfomation@CGraphicFontTexture@@@std@@PAX@0@ABQAU10@@Z ; std::_Construct_in_place<std::_Tree_node<std::pair<std::pair<unsigned short,wchar_t> const ,CGraphicFontTexture::SCharacterInfomation>,void *> *,std::_Tree_node<std::pair<std::pair<unsigned short,wchar_t> const ,CGraphicFontTexture::SCharacterInfomation>,void *> * const &>
  0006b	59		 pop	 ecx
  0006c	59		 pop	 ecx

; 347  :         _Pnode->_Color = _Black;

  0006d	8b 45 f8	 mov	 eax, DWORD PTR __Pnode$[ebp]
  00070	c6 40 0c 01	 mov	 BYTE PTR [eax+12], 1

; 348  :         _Pnode->_Isnil = true;

  00074	8b 45 f8	 mov	 eax, DWORD PTR __Pnode$[ebp]
  00077	c6 40 0d 01	 mov	 BYTE PTR [eax+13], 1

; 349  :         return _Pnode;

  0007b	8b 45 f8	 mov	 eax, DWORD PTR __Pnode$[ebp]
$LN9@Buyheadnod:

; 350  :     }

  0007e	c9		 leave
  0007f	c3		 ret	 0
??$_Buyheadnode@V?$allocator@U?$_Tree_node@U?$pair@$$CBU?$pair@G_W@std@@USCharacterInfomation@CGraphicFontTexture@@@std@@PAX@std@@@std@@@?$_Tree_node@U?$pair@$$CBU?$pair@G_W@std@@USCharacterInfomation@CGraphicFontTexture@@@std@@PAX@std@@SAPAU01@AAV?$allocator@U?$_Tree_node@U?$pair@$$CBU?$pair@G_W@std@@USCharacterInfomation@CGraphicFontTexture@@@std@@PAX@std@@@1@@Z ENDP ; std::_Tree_node<std::pair<std::pair<unsigned short,wchar_t> const ,CGraphicFontTexture::SCharacterInfomation>,void *>::_Buyheadnode<std::allocator<std::_Tree_node<std::pair<std::pair<unsigned short,wchar_t> const ,CGraphicFontTexture::SCharacterInfomation>,void *> > >
_TEXT	ENDS
; Function compile flags: /Odspy
; File C:\Program Files (x86)\Microsoft Visual Studio\2019\Community\VC\Tools\MSVC\14.28.29333\include\xtree
; File C:\Program Files (x86)\Microsoft Visual Studio\2019\Community\VC\Tools\MSVC\14.28.29333\include\xmemory
; File C:\Program Files (x86)\Microsoft Visual Studio\2019\Community\VC\Tools\MSVC\14.28.29333\include\xtree
;	COMDAT ??$_Buyheadnode@V?$allocator@U?$_Tree_node@U?$pair@$$CBGPAUHFONT__@@@std@@PAX@std@@@std@@@?$_Tree_node@U?$pair@$$CBGPAUHFONT__@@@std@@PAX@std@@SAPAU01@AAV?$allocator@U?$_Tree_node@U?$pair@$$CBGPAUHFONT__@@@std@@PAX@std@@@1@@Z
_TEXT	SEGMENT
__Max_possible$1 = -20					; size = 4
$T2 = -16						; size = 4
$T3 = -12						; size = 4
__Pnode$ = -8						; size = 4
__Overflow_is_possible$4 = -1				; size = 1
__Al$ = 8						; size = 4
??$_Buyheadnode@V?$allocator@U?$_Tree_node@U?$pair@$$CBGPAUHFONT__@@@std@@PAX@std@@@std@@@?$_Tree_node@U?$pair@$$CBGPAUHFONT__@@@std@@PAX@std@@SAPAU01@AAV?$allocator@U?$_Tree_node@U?$pair@$$CBGPAUHFONT__@@@std@@PAX@std@@@1@@Z PROC ; std::_Tree_node<std::pair<unsigned short const ,HFONT__ *>,void *>::_Buyheadnode<std::allocator<std::_Tree_node<std::pair<unsigned short const ,HFONT__ *>,void *> > >, COMDAT

; 341  :     static _Nodeptr _Buyheadnode(_Alloc& _Al) {

  00000	55		 push	 ebp
  00001	8b ec		 mov	 ebp, esp
  00003	83 ec 14	 sub	 esp, 20			; 00000014H
; File C:\Program Files (x86)\Microsoft Visual Studio\2019\Community\VC\Tools\MSVC\14.28.29333\include\xmemory

; 56   :     constexpr bool _Overflow_is_possible = _Ty_size > 1;

  00006	c6 45 ff 01	 mov	 BYTE PTR __Overflow_is_possible$4[ebp], 1

; 57   : 
; 58   :     if _CONSTEXPR_IF (_Overflow_is_possible) {
; 59   :         constexpr size_t _Max_possible = static_cast<size_t>(-1) / _Ty_size;

  0000a	c7 45 ec aa aa
	aa 0a		 mov	 DWORD PTR __Max_possible$1[ebp], 178956970 ; 0aaaaaaaH

; 60   :         if (_Count > _Max_possible) {

  00011	33 c0		 xor	 eax, eax
  00013	40		 inc	 eax
  00014	3d aa aa aa 0a	 cmp	 eax, 178956970		; 0aaaaaaaH
  00019	76 05		 jbe	 SHORT $LN6@Buyheadnod

; 61   :             _Throw_bad_array_new_length(); // multiply overflow

  0001b	e8 00 00 00 00	 call	 ?_Throw_bad_array_new_length@std@@YAXXZ ; std::_Throw_bad_array_new_length
$LN6@Buyheadnod:

; 62   :         }
; 63   :     }
; 64   : 
; 65   :     return _Count * _Ty_size;

  00020	33 c0		 xor	 eax, eax
  00022	40		 inc	 eax
  00023	6b c0 18	 imul	 eax, eax, 24
  00026	89 45 f4	 mov	 DWORD PTR $T3[ebp], eax

; 814  :         return static_cast<_Ty*>(_Allocate<_New_alignof<_Ty>>(_Get_size_of_n<sizeof(_Ty)>(_Count)));

  00029	ff 75 f4	 push	 DWORD PTR $T3[ebp]
  0002c	e8 00 00 00 00	 call	 ??$_Allocate@$07U_Default_allocate_traits@std@@$0A@@std@@YAPAXI@Z ; std::_Allocate<8,std::_Default_allocate_traits,0>
  00031	59		 pop	 ecx
  00032	89 45 f0	 mov	 DWORD PTR $T2[ebp], eax
; File C:\Program Files (x86)\Microsoft Visual Studio\2019\Community\VC\Tools\MSVC\14.28.29333\include\xtree

; 343  :         const auto _Pnode = _Al.allocate(1);

  00035	8b 45 f0	 mov	 eax, DWORD PTR $T2[ebp]
  00038	89 45 f8	 mov	 DWORD PTR __Pnode$[ebp], eax

; 344  :         _Construct_in_place(_Pnode->_Left, _Pnode);

  0003b	8d 45 f8	 lea	 eax, DWORD PTR __Pnode$[ebp]
  0003e	50		 push	 eax
  0003f	ff 75 f8	 push	 DWORD PTR __Pnode$[ebp]
  00042	e8 00 00 00 00	 call	 ??$_Construct_in_place@PAU?$_Tree_node@U?$pair@$$CBGPAUHFONT__@@@std@@PAX@std@@ABQAU12@@std@@YAXAAPAU?$_Tree_node@U?$pair@$$CBGPAUHFONT__@@@std@@PAX@0@ABQAU10@@Z ; std::_Construct_in_place<std::_Tree_node<std::pair<unsigned short const ,HFONT__ *>,void *> *,std::_Tree_node<std::pair<unsigned short const ,HFONT__ *>,void *> * const &>
  00047	59		 pop	 ecx
  00048	59		 pop	 ecx

; 345  :         _Construct_in_place(_Pnode->_Parent, _Pnode);

  00049	8d 45 f8	 lea	 eax, DWORD PTR __Pnode$[ebp]
  0004c	50		 push	 eax
  0004d	8b 45 f8	 mov	 eax, DWORD PTR __Pnode$[ebp]
  00050	83 c0 04	 add	 eax, 4
  00053	50		 push	 eax
  00054	e8 00 00 00 00	 call	 ??$_Construct_in_place@PAU?$_Tree_node@U?$pair@$$CBGPAUHFONT__@@@std@@PAX@std@@ABQAU12@@std@@YAXAAPAU?$_Tree_node@U?$pair@$$CBGPAUHFONT__@@@std@@PAX@0@ABQAU10@@Z ; std::_Construct_in_place<std::_Tree_node<std::pair<unsigned short const ,HFONT__ *>,void *> *,std::_Tree_node<std::pair<unsigned short const ,HFONT__ *>,void *> * const &>
  00059	59		 pop	 ecx
  0005a	59		 pop	 ecx

; 346  :         _Construct_in_place(_Pnode->_Right, _Pnode);

  0005b	8d 45 f8	 lea	 eax, DWORD PTR __Pnode$[ebp]
  0005e	50		 push	 eax
  0005f	8b 45 f8	 mov	 eax, DWORD PTR __Pnode$[ebp]
  00062	83 c0 08	 add	 eax, 8
  00065	50		 push	 eax
  00066	e8 00 00 00 00	 call	 ??$_Construct_in_place@PAU?$_Tree_node@U?$pair@$$CBGPAUHFONT__@@@std@@PAX@std@@ABQAU12@@std@@YAXAAPAU?$_Tree_node@U?$pair@$$CBGPAUHFONT__@@@std@@PAX@0@ABQAU10@@Z ; std::_Construct_in_place<std::_Tree_node<std::pair<unsigned short const ,HFONT__ *>,void *> *,std::_Tree_node<std::pair<unsigned short const ,HFONT__ *>,void *> * const &>
  0006b	59		 pop	 ecx
  0006c	59		 pop	 ecx

; 347  :         _Pnode->_Color = _Black;

  0006d	8b 45 f8	 mov	 eax, DWORD PTR __Pnode$[ebp]
  00070	c6 40 0c 01	 mov	 BYTE PTR [eax+12], 1

; 348  :         _Pnode->_Isnil = true;

  00074	8b 45 f8	 mov	 eax, DWORD PTR __Pnode$[ebp]
  00077	c6 40 0d 01	 mov	 BYTE PTR [eax+13], 1

; 349  :         return _Pnode;

  0007b	8b 45 f8	 mov	 eax, DWORD PTR __Pnode$[ebp]
$LN9@Buyheadnod:

; 350  :     }

  0007e	c9		 leave
  0007f	c3		 ret	 0
??$_Buyheadnode@V?$allocator@U?$_Tree_node@U?$pair@$$CBGPAUHFONT__@@@std@@PAX@std@@@std@@@?$_Tree_node@U?$pair@$$CBGPAUHFONT__@@@std@@PAX@std@@SAPAU01@AAV?$allocator@U?$_Tree_node@U?$pair@$$CBGPAUHFONT__@@@std@@PAX@std@@@1@@Z ENDP ; std::_Tree_node<std::pair<unsigned short const ,HFONT__ *>,void *>::_Buyheadnode<std::allocator<std::_Tree_node<std::pair<unsigned short const ,HFONT__ *>,void *> > >
_TEXT	ENDS
; Function compile flags: /Odspy
; File C:\Program Files (x86)\Microsoft Visual Studio\2019\Community\VC\Tools\MSVC\14.28.29333\include\vector
; File C:\Program Files (x86)\Microsoft Visual Studio\2019\Community\VC\Tools\MSVC\14.28.29333\include\xmemory
; File C:\Program Files (x86)\Microsoft Visual Studio\2019\Community\VC\Tools\MSVC\14.28.29333\include\vector
; File C:\Program Files (x86)\Microsoft Visual Studio\2019\Community\VC\Tools\MSVC\14.28.29333\include\xmemory
; File C:\Program Files (x86)\Microsoft Visual Studio\2019\Community\VC\Tools\MSVC\14.28.29333\include\vector
; File C:\Program Files (x86)\Microsoft Visual Studio\2019\Community\VC\Tools\MSVC\14.28.29333\include\xmemory
; File C:\Program Files (x86)\Microsoft Visual Studio\2019\Community\VC\Tools\MSVC\14.28.29333\include\limits
; File C:\Program Files (x86)\Microsoft Visual Studio\2019\Community\VC\Tools\MSVC\14.28.29333\include\vector
; File C:\Program Files (x86)\Microsoft Visual Studio\2019\Community\VC\Tools\MSVC\14.28.29333\include\utility
; File C:\Program Files (x86)\Microsoft Visual Studio\2019\Community\VC\Tools\MSVC\14.28.29333\include\vector
; File C:\Program Files (x86)\Microsoft Visual Studio\2019\Community\VC\Tools\MSVC\14.28.29333\include\xmemory
; File C:\Program Files (x86)\Microsoft Visual Studio\2019\Community\VC\Tools\MSVC\14.28.29333\include\vector
; File C:\Program Files (x86)\Microsoft Visual Studio\2019\Community\VC\Tools\MSVC\14.28.29333\include\type_traits
; File C:\Program Files (x86)\Microsoft Visual Studio\2019\Community\VC\Tools\MSVC\14.28.29333\include\vector
; File C:\Program Files (x86)\Microsoft Visual Studio\2019\Community\VC\Tools\MSVC\14.28.29333\include\xstddef
; File C:\Program Files (x86)\Microsoft Visual Studio\2019\Community\VC\Tools\MSVC\14.28.29333\include\vcruntime_new.h
; File C:\Program Files (x86)\Microsoft Visual Studio\2019\Community\VC\Tools\MSVC\14.28.29333\include\type_traits
; File C:\Program Files (x86)\Microsoft Visual Studio\2019\Community\VC\Tools\MSVC\14.28.29333\include\xmemory
; File C:\Program Files (x86)\Microsoft Visual Studio\2019\Community\VC\Tools\MSVC\14.28.29333\include\vector
; File C:\Program Files (x86)\Microsoft Visual Studio\2019\Community\VC\Tools\MSVC\14.28.29333\include\xmemory
; File C:\Program Files (x86)\Microsoft Visual Studio\2019\Community\VC\Tools\MSVC\14.28.29333\include\vector
; File C:\Program Files (x86)\Microsoft Visual Studio\2019\Community\VC\Tools\MSVC\14.28.29333\include\xmemory
; File C:\Program Files (x86)\Microsoft Visual Studio\2019\Community\VC\Tools\MSVC\14.28.29333\include\vector
; File C:\Program Files (x86)\Microsoft Visual Studio\2019\Community\VC\Tools\MSVC\14.28.29333\include\xmemory
; File C:\Program Files (x86)\Microsoft Visual Studio\2019\Community\VC\Tools\MSVC\14.28.29333\include\vector
;	COMDAT ??$_Emplace_reallocate@ABQAVCGraphicImageTexture@@@?$vector@PAVCGraphicImageTexture@@V?$allocator@PAVCGraphicImageTexture@@@std@@@std@@QAEPAPAVCGraphicImageTexture@@QAPAV2@ABQAV2@@Z
_TEXT	SEGMENT
__Max_possible$2 = -68					; size = 4
$T3 = -64						; size = 4
__Al$ = -60						; size = 4
__Last$ = -56						; size = 4
$T4 = -52						; size = 4
$T5 = -48						; size = 4
__First$ = -44						; size = 4
$T6 = -40						; size = 4
$T7 = -36						; size = 4
__First$ = -32						; size = 4
__Last$ = -28						; size = 4
$T8 = -24						; size = 4
$T9 = -20						; size = 4
__$EHRec$ = -16						; size = 16
$T10 = 0						; size = 4
$T11 = 4						; size = 4
$T12 = 8						; size = 4
$T13 = 12						; size = 4
$T14 = 16						; size = 4
$T15 = 20						; size = 4
$T16 = 24						; size = 4
$T17 = 28						; size = 4
$T18 = 32						; size = 4
$T19 = 36						; size = 4
$T20 = 40						; size = 4
__Newsize$ = 44						; size = 4
__Constructed_last$ = 48				; size = 4
__Oldsize$ = 52						; size = 4
tv172 = 56						; size = 4
$T21 = 60						; size = 4
$T22 = 64						; size = 4
__My_data$ = 68						; size = 4
__Constructed_first$ = 72				; size = 4
___formal$ = 76						; size = 1
__Overflow_is_possible$23 = 83				; size = 1
__Newcapacity$ = 84					; size = 4
__Mylast$ = 88						; size = 4
__Myfirst$ = 92						; size = 4
__Whereoff$ = 96					; size = 4
$T24 = 103						; size = 1
_this$ = 104						; size = 4
__Newvec$ = 108						; size = 4
__Whereptr$ = 120					; size = 4
_<_Val_0>$ = 124					; size = 4
??$_Emplace_reallocate@ABQAVCGraphicImageTexture@@@?$vector@PAVCGraphicImageTexture@@V?$allocator@PAVCGraphicImageTexture@@@std@@@std@@QAEPAPAVCGraphicImageTexture@@QAPAV2@ABQAV2@@Z PROC ; std::vector<CGraphicImageTexture *,std::allocator<CGraphicImageTexture *> >::_Emplace_reallocate<CGraphicImageTexture * const &>, COMDAT
; _this$ = ecx

; 725  :     pointer _Emplace_reallocate(const pointer _Whereptr, _Valty&&... _Val) {

  00000	55		 push	 ebp
  00001	8d 6c 24 90	 lea	 ebp, DWORD PTR [esp-112]
  00005	83 ec 70	 sub	 esp, 112		; 00000070H
  00008	6a ff		 push	 -1
  0000a	68 00 00 00 00	 push	 __ehhandler$??$_Emplace_reallocate@ABQAVCGraphicImageTexture@@@?$vector@PAVCGraphicImageTexture@@V?$allocator@PAVCGraphicImageTexture@@@std@@@std@@QAEPAPAVCGraphicImageTexture@@QAPAV2@ABQAV2@@Z
  0000f	64 a1 00 00 00
	00		 mov	 eax, DWORD PTR fs:0
  00015	50		 push	 eax
  00016	51		 push	 ecx
  00017	83 ec 34	 sub	 esp, 52			; 00000034H
  0001a	53		 push	 ebx
  0001b	56		 push	 esi
  0001c	57		 push	 edi
  0001d	a1 00 00 00 00	 mov	 eax, DWORD PTR ___security_cookie
  00022	33 c5		 xor	 eax, ebp
  00024	50		 push	 eax
  00025	8d 45 f4	 lea	 eax, DWORD PTR __$EHRec$[ebp+4]
  00028	64 a3 00 00 00
	00		 mov	 DWORD PTR fs:0, eax
  0002e	89 65 f0	 mov	 DWORD PTR __$EHRec$[ebp], esp
  00031	89 4d 68	 mov	 DWORD PTR _this$[ebp], ecx

; 1733 :         return _Mypair._Get_first();

  00034	8b 45 68	 mov	 eax, DWORD PTR _this$[ebp]
; File C:\Program Files (x86)\Microsoft Visual Studio\2019\Community\VC\Tools\MSVC\14.28.29333\include\xmemory

; 1347 :         return *this;

  00037	89 45 28	 mov	 DWORD PTR $T20[ebp], eax
; File C:\Program Files (x86)\Microsoft Visual Studio\2019\Community\VC\Tools\MSVC\14.28.29333\include\vector

; 1733 :         return _Mypair._Get_first();

  0003a	8b 45 28	 mov	 eax, DWORD PTR $T20[ebp]
  0003d	89 45 c4	 mov	 DWORD PTR __Al$[ebp], eax

; 726  :         // reallocate and insert by perfectly forwarding _Val at _Whereptr
; 727  :         _Alty& _Al        = _Getal();
; 728  :         auto& _My_data    = _Mypair._Myval2;

  00040	8b 45 68	 mov	 eax, DWORD PTR _this$[ebp]
  00043	89 45 44	 mov	 DWORD PTR __My_data$[ebp], eax

; 729  :         pointer& _Myfirst = _My_data._Myfirst;

  00046	8b 45 44	 mov	 eax, DWORD PTR __My_data$[ebp]
  00049	89 45 5c	 mov	 DWORD PTR __Myfirst$[ebp], eax

; 730  :         pointer& _Mylast  = _My_data._Mylast;

  0004c	8b 45 44	 mov	 eax, DWORD PTR __My_data$[ebp]
  0004f	83 c0 04	 add	 eax, 4
  00052	89 45 58	 mov	 DWORD PTR __Mylast$[ebp], eax

; 731  : 
; 732  :         _STL_INTERNAL_CHECK(_Mylast == _My_data._Myend); // check that we have no unused capacity
; 733  : 
; 734  :         const auto _Whereoff = static_cast<size_type>(_Whereptr - _Myfirst);

  00055	8b 45 5c	 mov	 eax, DWORD PTR __Myfirst$[ebp]
  00058	8b 4d 78	 mov	 ecx, DWORD PTR __Whereptr$[ebp]
  0005b	2b 08		 sub	 ecx, DWORD PTR [eax]
  0005d	c1 f9 02	 sar	 ecx, 2
  00060	89 4d 60	 mov	 DWORD PTR __Whereoff$[ebp], ecx

; 735  :         const auto _Oldsize  = static_cast<size_type>(_Mylast - _Myfirst);

  00063	8b 45 58	 mov	 eax, DWORD PTR __Mylast$[ebp]
  00066	8b 4d 5c	 mov	 ecx, DWORD PTR __Myfirst$[ebp]
  00069	8b 00		 mov	 eax, DWORD PTR [eax]
  0006b	2b 01		 sub	 eax, DWORD PTR [ecx]
  0006d	c1 f8 02	 sar	 eax, 2
  00070	89 45 34	 mov	 DWORD PTR __Oldsize$[ebp], eax

; 1737 :         return _Mypair._Get_first();

  00073	8b 45 68	 mov	 eax, DWORD PTR _this$[ebp]
; File C:\Program Files (x86)\Microsoft Visual Studio\2019\Community\VC\Tools\MSVC\14.28.29333\include\xmemory

; 1351 :         return *this;

  00076	89 45 24	 mov	 DWORD PTR $T19[ebp], eax
; File C:\Program Files (x86)\Microsoft Visual Studio\2019\Community\VC\Tools\MSVC\14.28.29333\include\vector

; 1737 :         return _Mypair._Get_first();

  00079	8b 45 24	 mov	 eax, DWORD PTR $T19[ebp]
  0007c	89 45 c0	 mov	 DWORD PTR $T3[ebp], eax
; File C:\Program Files (x86)\Microsoft Visual Studio\2019\Community\VC\Tools\MSVC\14.28.29333\include\xmemory

; 710  :         return static_cast<size_t>(-1) / sizeof(value_type);

  0007f	c7 45 40 ff ff
	ff 3f		 mov	 DWORD PTR $T22[ebp], 1073741823 ; 3fffffffH
; File C:\Program Files (x86)\Microsoft Visual Studio\2019\Community\VC\Tools\MSVC\14.28.29333\include\limits

; 557  :         return INT_MAX;

  00086	c7 45 20 ff ff
	ff 7f		 mov	 DWORD PTR $T18[ebp], 2147483647 ; 7fffffffH
; File C:\Program Files (x86)\Microsoft Visual Studio\2019\Community\VC\Tools\MSVC\14.28.29333\include\vector

; 1488 :         return (_STD min)(

  0008d	8b 45 20	 mov	 eax, DWORD PTR $T18[ebp]
  00090	89 45 3c	 mov	 DWORD PTR $T21[ebp], eax
; File C:\Program Files (x86)\Microsoft Visual Studio\2019\Community\VC\Tools\MSVC\14.28.29333\include\utility

; 68   :     return _Right < _Left ? _Right : _Left;

  00093	8b 45 40	 mov	 eax, DWORD PTR $T22[ebp]
  00096	3b 45 3c	 cmp	 eax, DWORD PTR $T21[ebp]
  00099	73 08		 jae	 SHORT $LN34@Emplace_re
  0009b	8d 45 40	 lea	 eax, DWORD PTR $T22[ebp]
  0009e	89 45 38	 mov	 DWORD PTR tv172[ebp], eax
  000a1	eb 06		 jmp	 SHORT $LN35@Emplace_re
$LN34@Emplace_re:
  000a3	8d 45 3c	 lea	 eax, DWORD PTR $T21[ebp]
  000a6	89 45 38	 mov	 DWORD PTR tv172[ebp], eax
$LN35@Emplace_re:
  000a9	8b 45 38	 mov	 eax, DWORD PTR tv172[ebp]
  000ac	89 45 1c	 mov	 DWORD PTR $T17[ebp], eax
  000af	8b 45 1c	 mov	 eax, DWORD PTR $T17[ebp]
  000b2	89 45 18	 mov	 DWORD PTR $T16[ebp], eax
; File C:\Program Files (x86)\Microsoft Visual Studio\2019\Community\VC\Tools\MSVC\14.28.29333\include\vector

; 1488 :         return (_STD min)(

  000b5	8b 45 18	 mov	 eax, DWORD PTR $T16[ebp]
  000b8	8b 00		 mov	 eax, DWORD PTR [eax]
  000ba	89 45 14	 mov	 DWORD PTR $T15[ebp], eax

; 736  : 
; 737  :         if (_Oldsize == max_size()) {

  000bd	8b 45 34	 mov	 eax, DWORD PTR __Oldsize$[ebp]
  000c0	3b 45 14	 cmp	 eax, DWORD PTR $T15[ebp]
  000c3	75 05		 jne	 SHORT $LN2@Emplace_re

; 738  :             _Xlength();

  000c5	e8 00 00 00 00	 call	 ?_Xlength@?$vector@PAVCGraphicImageTexture@@V?$allocator@PAVCGraphicImageTexture@@@std@@@std@@CAXXZ ; std::vector<CGraphicImageTexture *,std::allocator<CGraphicImageTexture *> >::_Xlength
$LN2@Emplace_re:

; 739  :         }
; 740  : 
; 741  :         const size_type _Newsize     = _Oldsize + 1;

  000ca	8b 45 34	 mov	 eax, DWORD PTR __Oldsize$[ebp]
  000cd	40		 inc	 eax
  000ce	89 45 2c	 mov	 DWORD PTR __Newsize$[ebp], eax

; 742  :         const size_type _Newcapacity = _Calculate_growth(_Newsize);

  000d1	ff 75 2c	 push	 DWORD PTR __Newsize$[ebp]
  000d4	8b 4d 68	 mov	 ecx, DWORD PTR _this$[ebp]
  000d7	e8 00 00 00 00	 call	 ?_Calculate_growth@?$vector@PAVCGraphicImageTexture@@V?$allocator@PAVCGraphicImageTexture@@@std@@@std@@ABEII@Z ; std::vector<CGraphicImageTexture *,std::allocator<CGraphicImageTexture *> >::_Calculate_growth
  000dc	89 45 54	 mov	 DWORD PTR __Newcapacity$[ebp], eax
; File C:\Program Files (x86)\Microsoft Visual Studio\2019\Community\VC\Tools\MSVC\14.28.29333\include\xmemory

; 56   :     constexpr bool _Overflow_is_possible = _Ty_size > 1;

  000df	c6 45 53 01	 mov	 BYTE PTR __Overflow_is_possible$23[ebp], 1

; 57   : 
; 58   :     if _CONSTEXPR_IF (_Overflow_is_possible) {
; 59   :         constexpr size_t _Max_possible = static_cast<size_t>(-1) / _Ty_size;

  000e3	c7 45 bc ff ff
	ff 3f		 mov	 DWORD PTR __Max_possible$2[ebp], 1073741823 ; 3fffffffH

; 60   :         if (_Count > _Max_possible) {

  000ea	81 7d 54 ff ff
	ff 3f		 cmp	 DWORD PTR __Newcapacity$[ebp], 1073741823 ; 3fffffffH
  000f1	76 05		 jbe	 SHORT $LN67@Emplace_re

; 61   :             _Throw_bad_array_new_length(); // multiply overflow

  000f3	e8 00 00 00 00	 call	 ?_Throw_bad_array_new_length@std@@YAXXZ ; std::_Throw_bad_array_new_length
$LN67@Emplace_re:

; 62   :         }
; 63   :     }
; 64   : 
; 65   :     return _Count * _Ty_size;

  000f8	8b 45 54	 mov	 eax, DWORD PTR __Newcapacity$[ebp]
  000fb	c1 e0 02	 shl	 eax, 2
  000fe	89 45 10	 mov	 DWORD PTR $T14[ebp], eax

; 814  :         return static_cast<_Ty*>(_Allocate<_New_alignof<_Ty>>(_Get_size_of_n<sizeof(_Ty)>(_Count)));

  00101	ff 75 10	 push	 DWORD PTR $T14[ebp]
  00104	e8 00 00 00 00	 call	 ??$_Allocate@$07U_Default_allocate_traits@std@@$0A@@std@@YAPAXI@Z ; std::_Allocate<8,std::_Default_allocate_traits,0>
  00109	59		 pop	 ecx
  0010a	89 45 6c	 mov	 DWORD PTR __Newvec$[ebp], eax
; File C:\Program Files (x86)\Microsoft Visual Studio\2019\Community\VC\Tools\MSVC\14.28.29333\include\vector

; 745  :         const pointer _Constructed_last = _Newvec + _Whereoff + 1;

  0010d	8b 45 60	 mov	 eax, DWORD PTR __Whereoff$[ebp]
  00110	8b 4d 6c	 mov	 ecx, DWORD PTR __Newvec$[ebp]
  00113	8d 44 81 04	 lea	 eax, DWORD PTR [ecx+eax*4+4]
  00117	89 45 30	 mov	 DWORD PTR __Constructed_last$[ebp], eax

; 746  :         pointer _Constructed_first      = _Constructed_last;

  0011a	8b 45 30	 mov	 eax, DWORD PTR __Constructed_last$[ebp]
  0011d	89 45 48	 mov	 DWORD PTR __Constructed_first$[ebp], eax

; 747  : 
; 748  :         _TRY_BEGIN

  00120	83 65 fc 00	 and	 DWORD PTR __$EHRec$[ebp+12], 0
; File C:\Program Files (x86)\Microsoft Visual Studio\2019\Community\VC\Tools\MSVC\14.28.29333\include\type_traits

; 1443 :     return static_cast<_Ty&&>(_Arg);

  00124	8b 45 7c	 mov	 eax, DWORD PTR _<_Val_0>$[ebp]
  00127	89 45 08	 mov	 DWORD PTR $T12[ebp], eax
; File C:\Program Files (x86)\Microsoft Visual Studio\2019\Community\VC\Tools\MSVC\14.28.29333\include\vector

; 749  :         _Alty_traits::construct(_Al, _Unfancy(_Newvec + _Whereoff), _STD forward<_Valty>(_Val)...);

  0012a	8b 45 60	 mov	 eax, DWORD PTR __Whereoff$[ebp]
  0012d	8b 4d 6c	 mov	 ecx, DWORD PTR __Newvec$[ebp]
  00130	8d 04 81	 lea	 eax, DWORD PTR [ecx+eax*4]
; File C:\Program Files (x86)\Microsoft Visual Studio\2019\Community\VC\Tools\MSVC\14.28.29333\include\xstddef

; 289  :     return _Ptr;

  00133	89 45 0c	 mov	 DWORD PTR $T13[ebp], eax
; File C:\Program Files (x86)\Microsoft Visual Studio\2019\Community\VC\Tools\MSVC\14.28.29333\include\vcruntime_new.h

; 169  :         return _Where;

  00136	8b 45 0c	 mov	 eax, DWORD PTR $T13[ebp]
  00139	89 45 04	 mov	 DWORD PTR $T11[ebp], eax
; File C:\Program Files (x86)\Microsoft Visual Studio\2019\Community\VC\Tools\MSVC\14.28.29333\include\type_traits

; 1443 :     return static_cast<_Ty&&>(_Arg);

  0013c	8b 45 08	 mov	 eax, DWORD PTR $T12[ebp]
  0013f	89 45 00	 mov	 DWORD PTR $T10[ebp], eax
; File C:\Program Files (x86)\Microsoft Visual Studio\2019\Community\VC\Tools\MSVC\14.28.29333\include\xmemory

; 701  :         ::new (const_cast<void*>(static_cast<const volatile void*>(_Ptr))) _Objty(_STD forward<_Types>(_Args)...);

  00142	8b 45 04	 mov	 eax, DWORD PTR $T11[ebp]
  00145	8b 4d 00	 mov	 ecx, DWORD PTR $T10[ebp]
  00148	8b 09		 mov	 ecx, DWORD PTR [ecx]
  0014a	89 08		 mov	 DWORD PTR [eax], ecx
; File C:\Program Files (x86)\Microsoft Visual Studio\2019\Community\VC\Tools\MSVC\14.28.29333\include\vector

; 750  :         _Constructed_first = _Newvec + _Whereoff;

  0014c	8b 45 60	 mov	 eax, DWORD PTR __Whereoff$[ebp]
  0014f	8b 4d 6c	 mov	 ecx, DWORD PTR __Newvec$[ebp]
  00152	8d 04 81	 lea	 eax, DWORD PTR [ecx+eax*4]
  00155	89 45 48	 mov	 DWORD PTR __Constructed_first$[ebp], eax

; 751  : 
; 752  :         if (_Whereptr == _Mylast) { // at back, provide strong guarantee

  00158	8b 45 58	 mov	 eax, DWORD PTR __Mylast$[ebp]
  0015b	8b 4d 78	 mov	 ecx, DWORD PTR __Whereptr$[ebp]
  0015e	3b 08		 cmp	 ecx, DWORD PTR [eax]
  00160	75 3d		 jne	 SHORT $LN4@Emplace_re

; 753  :             _Umove_if_noexcept(_Myfirst, _Mylast, _Newvec);

  00162	8b 45 58	 mov	 eax, DWORD PTR __Mylast$[ebp]
  00165	8b 00		 mov	 eax, DWORD PTR [eax]
  00167	89 45 e4	 mov	 DWORD PTR __Last$[ebp], eax
  0016a	8b 45 5c	 mov	 eax, DWORD PTR __Myfirst$[ebp]
  0016d	8b 00		 mov	 eax, DWORD PTR [eax]
  0016f	89 45 e0	 mov	 DWORD PTR __First$[ebp], eax

; 1607 :         _Umove_if_noexcept1(_First, _Last, _Dest,

  00172	33 c0		 xor	 eax, eax
  00174	88 45 67	 mov	 BYTE PTR $T24[ebp], al
  00177	8a 45 67	 mov	 al, BYTE PTR $T24[ebp]
  0017a	88 45 4c	 mov	 BYTE PTR ___formal$[ebp], al

; 1733 :         return _Mypair._Get_first();

  0017d	8b 45 68	 mov	 eax, DWORD PTR _this$[ebp]
; File C:\Program Files (x86)\Microsoft Visual Studio\2019\Community\VC\Tools\MSVC\14.28.29333\include\xmemory

; 1347 :         return *this;

  00180	89 45 ec	 mov	 DWORD PTR $T9[ebp], eax
; File C:\Program Files (x86)\Microsoft Visual Studio\2019\Community\VC\Tools\MSVC\14.28.29333\include\vector

; 1733 :         return _Mypair._Get_first();

  00183	8b 45 ec	 mov	 eax, DWORD PTR $T9[ebp]
  00186	89 45 e8	 mov	 DWORD PTR $T8[ebp], eax

; 1597 :         _Uninitialized_move(_First, _Last, _Dest, _Getal());

  00189	ff 75 e8	 push	 DWORD PTR $T8[ebp]
  0018c	ff 75 6c	 push	 DWORD PTR __Newvec$[ebp]
  0018f	ff 75 e4	 push	 DWORD PTR __Last$[ebp]
  00192	ff 75 e0	 push	 DWORD PTR __First$[ebp]
  00195	e8 00 00 00 00	 call	 ??$_Uninitialized_move@PAPAVCGraphicImageTexture@@V?$allocator@PAVCGraphicImageTexture@@@std@@@std@@YAPAPAVCGraphicImageTexture@@QAPAV1@0PAPAV1@AAV?$allocator@PAVCGraphicImageTexture@@@0@@Z ; std::_Uninitialized_move<CGraphicImageTexture * *,std::allocator<CGraphicImageTexture *> >
  0019a	83 c4 10	 add	 esp, 16			; 00000010H

; 754  :         } else { // provide basic guarantee

  0019d	eb 5e		 jmp	 SHORT $LN5@Emplace_re
$LN4@Emplace_re:

; 755  :             _Umove(_Myfirst, _Whereptr, _Newvec);

  0019f	8b 45 5c	 mov	 eax, DWORD PTR __Myfirst$[ebp]
  001a2	8b 00		 mov	 eax, DWORD PTR [eax]
  001a4	89 45 d4	 mov	 DWORD PTR __First$[ebp], eax

; 1733 :         return _Mypair._Get_first();

  001a7	8b 45 68	 mov	 eax, DWORD PTR _this$[ebp]
; File C:\Program Files (x86)\Microsoft Visual Studio\2019\Community\VC\Tools\MSVC\14.28.29333\include\xmemory

; 1347 :         return *this;

  001aa	89 45 dc	 mov	 DWORD PTR $T7[ebp], eax
; File C:\Program Files (x86)\Microsoft Visual Studio\2019\Community\VC\Tools\MSVC\14.28.29333\include\vector

; 1733 :         return _Mypair._Get_first();

  001ad	8b 45 dc	 mov	 eax, DWORD PTR $T7[ebp]
  001b0	89 45 d8	 mov	 DWORD PTR $T6[ebp], eax

; 1592 :         return _Uninitialized_move(_First, _Last, _Dest, _Getal());

  001b3	ff 75 d8	 push	 DWORD PTR $T6[ebp]
  001b6	ff 75 6c	 push	 DWORD PTR __Newvec$[ebp]
  001b9	ff 75 78	 push	 DWORD PTR __Whereptr$[ebp]
  001bc	ff 75 d4	 push	 DWORD PTR __First$[ebp]
  001bf	e8 00 00 00 00	 call	 ??$_Uninitialized_move@PAPAVCGraphicImageTexture@@V?$allocator@PAVCGraphicImageTexture@@@std@@@std@@YAPAPAVCGraphicImageTexture@@QAPAV1@0PAPAV1@AAV?$allocator@PAVCGraphicImageTexture@@@0@@Z ; std::_Uninitialized_move<CGraphicImageTexture * *,std::allocator<CGraphicImageTexture *> >
  001c4	83 c4 10	 add	 esp, 16			; 00000010H

; 756  :             _Constructed_first = _Newvec;

  001c7	8b 45 6c	 mov	 eax, DWORD PTR __Newvec$[ebp]
  001ca	89 45 48	 mov	 DWORD PTR __Constructed_first$[ebp], eax

; 757  :             _Umove(_Whereptr, _Mylast, _Newvec + _Whereoff + 1);

  001cd	8b 45 58	 mov	 eax, DWORD PTR __Mylast$[ebp]
  001d0	8b 00		 mov	 eax, DWORD PTR [eax]
  001d2	89 45 c8	 mov	 DWORD PTR __Last$[ebp], eax

; 1733 :         return _Mypair._Get_first();

  001d5	8b 45 68	 mov	 eax, DWORD PTR _this$[ebp]
; File C:\Program Files (x86)\Microsoft Visual Studio\2019\Community\VC\Tools\MSVC\14.28.29333\include\xmemory

; 1347 :         return *this;

  001d8	89 45 d0	 mov	 DWORD PTR $T5[ebp], eax
; File C:\Program Files (x86)\Microsoft Visual Studio\2019\Community\VC\Tools\MSVC\14.28.29333\include\vector

; 1733 :         return _Mypair._Get_first();

  001db	8b 45 d0	 mov	 eax, DWORD PTR $T5[ebp]
  001de	89 45 cc	 mov	 DWORD PTR $T4[ebp], eax

; 1592 :         return _Uninitialized_move(_First, _Last, _Dest, _Getal());

  001e1	ff 75 cc	 push	 DWORD PTR $T4[ebp]

; 757  :             _Umove(_Whereptr, _Mylast, _Newvec + _Whereoff + 1);

  001e4	8b 45 60	 mov	 eax, DWORD PTR __Whereoff$[ebp]
  001e7	8b 4d 6c	 mov	 ecx, DWORD PTR __Newvec$[ebp]
  001ea	8d 44 81 04	 lea	 eax, DWORD PTR [ecx+eax*4+4]

; 1592 :         return _Uninitialized_move(_First, _Last, _Dest, _Getal());

  001ee	50		 push	 eax
  001ef	ff 75 c8	 push	 DWORD PTR __Last$[ebp]
  001f2	ff 75 78	 push	 DWORD PTR __Whereptr$[ebp]
  001f5	e8 00 00 00 00	 call	 ??$_Uninitialized_move@PAPAVCGraphicImageTexture@@V?$allocator@PAVCGraphicImageTexture@@@std@@@std@@YAPAPAVCGraphicImageTexture@@QAPAV1@0PAPAV1@AAV?$allocator@PAVCGraphicImageTexture@@@0@@Z ; std::_Uninitialized_move<CGraphicImageTexture * *,std::allocator<CGraphicImageTexture *> >
  001fa	83 c4 10	 add	 esp, 16			; 00000010H
$LN5@Emplace_re:

; 757  :             _Umove(_Whereptr, _Mylast, _Newvec + _Whereoff + 1);

  001fd	eb 2b		 jmp	 SHORT $LN7@Emplace_re
__catch$??$_Emplace_reallocate@ABQAVCGraphicImageTexture@@@?$vector@PAVCGraphicImageTexture@@V?$allocator@PAVCGraphicImageTexture@@@std@@@std@@QAEPAPAVCGraphicImageTexture@@QAPAV2@ABQAV2@@Z$0:

; 758  :         }
; 759  :         _CATCH_ALL
; 760  :         _Destroy(_Constructed_first, _Constructed_last);

  001ff	ff 75 30	 push	 DWORD PTR __Constructed_last$[ebp]
  00202	ff 75 48	 push	 DWORD PTR __Constructed_first$[ebp]
  00205	8b 4d 68	 mov	 ecx, DWORD PTR _this$[ebp]
  00208	e8 00 00 00 00	 call	 ?_Destroy@?$vector@PAVCGraphicImageTexture@@V?$allocator@PAVCGraphicImageTexture@@@std@@@std@@AAEXPAPAVCGraphicImageTexture@@0@Z ; std::vector<CGraphicImageTexture *,std::allocator<CGraphicImageTexture *> >::_Destroy

; 761  :         _Al.deallocate(_Newvec, _Newcapacity);

  0020d	ff 75 54	 push	 DWORD PTR __Newcapacity$[ebp]
  00210	ff 75 6c	 push	 DWORD PTR __Newvec$[ebp]
  00213	8b 4d c4	 mov	 ecx, DWORD PTR __Al$[ebp]
  00216	e8 00 00 00 00	 call	 ?deallocate@?$allocator@PAVCGraphicImageTexture@@@std@@QAEXQAPAVCGraphicImageTexture@@I@Z ; std::allocator<CGraphicImageTexture *>::deallocate

; 762  :         _RERAISE;

  0021b	6a 00		 push	 0
  0021d	6a 00		 push	 0
  0021f	e8 00 00 00 00	 call	 __CxxThrowException@8

; 763  :         _CATCH_END

  00224	b8 00 00 00 00	 mov	 eax, $LN10@Emplace_re
  00229	c3		 ret	 0
$LN7@Emplace_re:
  0022a	83 4d fc ff	 or	 DWORD PTR __$EHRec$[ebp+12], -1
  0022e	eb 04		 jmp	 SHORT __tryend$??$_Emplace_reallocate@ABQAVCGraphicImageTexture@@@?$vector@PAVCGraphicImageTexture@@V?$allocator@PAVCGraphicImageTexture@@@std@@@std@@QAEPAPAVCGraphicImageTexture@@QAPAV2@ABQAV2@@Z$1
$LN10@Emplace_re:
; File C:\Program Files (x86)\Microsoft Visual Studio\2019\Community\VC\Tools\MSVC\14.28.29333\include\xmemory
  00230	83 4d fc ff	 or	 DWORD PTR __$EHRec$[ebp+12], -1
__tryend$??$_Emplace_reallocate@ABQAVCGraphicImageTexture@@@?$vector@PAVCGraphicImageTexture@@V?$allocator@PAVCGraphicImageTexture@@@std@@@std@@QAEPAPAVCGraphicImageTexture@@QAPAV2@ABQAV2@@Z$1:
; File C:\Program Files (x86)\Microsoft Visual Studio\2019\Community\VC\Tools\MSVC\14.28.29333\include\vector

; 764  : 
; 765  :         _Change_array(_Newvec, _Newsize, _Newcapacity);

  00234	ff 75 54	 push	 DWORD PTR __Newcapacity$[ebp]
  00237	ff 75 2c	 push	 DWORD PTR __Newsize$[ebp]
  0023a	ff 75 6c	 push	 DWORD PTR __Newvec$[ebp]
  0023d	8b 4d 68	 mov	 ecx, DWORD PTR _this$[ebp]
  00240	e8 00 00 00 00	 call	 ?_Change_array@?$vector@PAVCGraphicImageTexture@@V?$allocator@PAVCGraphicImageTexture@@@std@@@std@@AAEXQAPAVCGraphicImageTexture@@II@Z ; std::vector<CGraphicImageTexture *,std::allocator<CGraphicImageTexture *> >::_Change_array

; 766  :         return _Newvec + _Whereoff;

  00245	8b 45 60	 mov	 eax, DWORD PTR __Whereoff$[ebp]
  00248	8b 4d 6c	 mov	 ecx, DWORD PTR __Newvec$[ebp]
  0024b	8d 04 81	 lea	 eax, DWORD PTR [ecx+eax*4]
$LN70@Emplace_re:

; 767  :     }

  0024e	8b 4d f4	 mov	 ecx, DWORD PTR __$EHRec$[ebp+4]
  00251	64 89 0d 00 00
	00 00		 mov	 DWORD PTR fs:0, ecx
  00258	59		 pop	 ecx
  00259	5f		 pop	 edi
  0025a	5e		 pop	 esi
  0025b	5b		 pop	 ebx
  0025c	83 c5 70	 add	 ebp, 112		; 00000070H
  0025f	c9		 leave
  00260	c2 08 00	 ret	 8
  00263	cc		 int	 3
  00264	cc		 int	 3
  00265	cc		 int	 3
  00266	cc		 int	 3
  00267	cc		 int	 3
_TEXT	ENDS
;	COMDAT text$x
text$x	SEGMENT
__ehhandler$??$_Emplace_reallocate@ABQAVCGraphicImageTexture@@@?$vector@PAVCGraphicImageTexture@@V?$allocator@PAVCGraphicImageTexture@@@std@@@std@@QAEPAPAVCGraphicImageTexture@@QAPAV2@ABQAV2@@Z:
  00000	90		 npad	 1
  00001	90		 npad	 1
  00002	8b 54 24 08	 mov	 edx, DWORD PTR [esp+8]
  00006	8d 42 0c	 lea	 eax, DWORD PTR [edx+12]
  00009	8b 4a b8	 mov	 ecx, DWORD PTR [edx-72]
  0000c	33 c8		 xor	 ecx, eax
  0000e	e8 00 00 00 00	 call	 @__security_check_cookie@4
  00013	b8 00 00 00 00	 mov	 eax, OFFSET __ehfuncinfo$??$_Emplace_reallocate@ABQAVCGraphicImageTexture@@@?$vector@PAVCGraphicImageTexture@@V?$allocator@PAVCGraphicImageTexture@@@std@@@std@@QAEPAPAVCGraphicImageTexture@@QAPAV2@ABQAV2@@Z
  00018	e9 00 00 00 00	 jmp	 ___CxxFrameHandler3
text$x	ENDS
??$_Emplace_reallocate@ABQAVCGraphicImageTexture@@@?$vector@PAVCGraphicImageTexture@@V?$allocator@PAVCGraphicImageTexture@@@std@@@std@@QAEPAPAVCGraphicImageTexture@@QAPAV2@ABQAV2@@Z ENDP ; std::vector<CGraphicImageTexture *,std::allocator<CGraphicImageTexture *> >::_Emplace_reallocate<CGraphicImageTexture * const &>
; Function compile flags: /Odspy
; File C:\Program Files (x86)\Microsoft Visual Studio\2019\Community\VC\Tools\MSVC\14.28.29333\include\vector
; File C:\Program Files (x86)\Microsoft Visual Studio\2019\Community\VC\Tools\MSVC\14.28.29333\include\type_traits
; File C:\Program Files (x86)\Microsoft Visual Studio\2019\Community\VC\Tools\MSVC\14.28.29333\include\vector
; File C:\Program Files (x86)\Microsoft Visual Studio\2019\Community\VC\Tools\MSVC\14.28.29333\include\xstddef
; File C:\Program Files (x86)\Microsoft Visual Studio\2019\Community\VC\Tools\MSVC\14.28.29333\include\vector
; File C:\Program Files (x86)\Microsoft Visual Studio\2019\Community\VC\Tools\MSVC\14.28.29333\include\xmemory
; File C:\Program Files (x86)\Microsoft Visual Studio\2019\Community\VC\Tools\MSVC\14.28.29333\include\vector
; File C:\Program Files (x86)\Microsoft Visual Studio\2019\Community\VC\Tools\MSVC\14.28.29333\include\vcruntime_new.h
; File C:\Program Files (x86)\Microsoft Visual Studio\2019\Community\VC\Tools\MSVC\14.28.29333\include\type_traits
; File C:\Program Files (x86)\Microsoft Visual Studio\2019\Community\VC\Tools\MSVC\14.28.29333\include\xmemory
; File C:\Program Files (x86)\Microsoft Visual Studio\2019\Community\VC\Tools\MSVC\14.28.29333\include\vector
;	COMDAT ??$_Emplace_back_with_unused_capacity@ABQAVCGraphicImageTexture@@@?$vector@PAVCGraphicImageTexture@@V?$allocator@PAVCGraphicImageTexture@@@std@@@std@@AAEXABQAVCGraphicImageTexture@@@Z
_TEXT	SEGMENT
__Result$ = -44						; size = 4
$T1 = -40						; size = 4
$T2 = -36						; size = 4
$T3 = -32						; size = 4
$T4 = -28						; size = 4
$T5 = -24						; size = 4
$T6 = -20						; size = 4
__Ptr$ = -16						; size = 4
__My_data$ = -12					; size = 4
_this$ = -8						; size = 4
__Mylast$ = -4						; size = 4
_<_Val_0>$ = 8						; size = 4
??$_Emplace_back_with_unused_capacity@ABQAVCGraphicImageTexture@@@?$vector@PAVCGraphicImageTexture@@V?$allocator@PAVCGraphicImageTexture@@@std@@@std@@AAEXABQAVCGraphicImageTexture@@@Z PROC ; std::vector<CGraphicImageTexture *,std::allocator<CGraphicImageTexture *> >::_Emplace_back_with_unused_capacity<CGraphicImageTexture * const &>, COMDAT
; _this$ = ecx

; 682  :     decltype(auto) _Emplace_back_with_unused_capacity(_Valty&&... _Val) {

  00000	55		 push	 ebp
  00001	8b ec		 mov	 ebp, esp
  00003	83 ec 2c	 sub	 esp, 44			; 0000002cH
  00006	89 4d f8	 mov	 DWORD PTR _this$[ebp], ecx

; 683  :         // insert by perfectly forwarding into element at end, provide strong guarantee
; 684  :         auto& _My_data   = _Mypair._Myval2;

  00009	8b 45 f8	 mov	 eax, DWORD PTR _this$[ebp]
  0000c	89 45 f4	 mov	 DWORD PTR __My_data$[ebp], eax

; 685  :         pointer& _Mylast = _My_data._Mylast;

  0000f	8b 45 f4	 mov	 eax, DWORD PTR __My_data$[ebp]
  00012	83 c0 04	 add	 eax, 4
  00015	89 45 fc	 mov	 DWORD PTR __Mylast$[ebp], eax
; File C:\Program Files (x86)\Microsoft Visual Studio\2019\Community\VC\Tools\MSVC\14.28.29333\include\type_traits

; 1443 :     return static_cast<_Ty&&>(_Arg);

  00018	8b 45 08	 mov	 eax, DWORD PTR _<_Val_0>$[ebp]
  0001b	89 45 e4	 mov	 DWORD PTR $T4[ebp], eax
; File C:\Program Files (x86)\Microsoft Visual Studio\2019\Community\VC\Tools\MSVC\14.28.29333\include\vector

; 687  :         _Alty_traits::construct(_Getal(), _Unfancy(_Mylast), _STD forward<_Valty>(_Val)...);

  0001e	8b 45 fc	 mov	 eax, DWORD PTR __Mylast$[ebp]
  00021	8b 00		 mov	 eax, DWORD PTR [eax]
  00023	89 45 f0	 mov	 DWORD PTR __Ptr$[ebp], eax
; File C:\Program Files (x86)\Microsoft Visual Studio\2019\Community\VC\Tools\MSVC\14.28.29333\include\xstddef

; 289  :     return _Ptr;

  00026	8b 45 f0	 mov	 eax, DWORD PTR __Ptr$[ebp]
  00029	89 45 e8	 mov	 DWORD PTR $T5[ebp], eax
; File C:\Program Files (x86)\Microsoft Visual Studio\2019\Community\VC\Tools\MSVC\14.28.29333\include\vector

; 1733 :         return _Mypair._Get_first();

  0002c	8b 45 f8	 mov	 eax, DWORD PTR _this$[ebp]
; File C:\Program Files (x86)\Microsoft Visual Studio\2019\Community\VC\Tools\MSVC\14.28.29333\include\xmemory

; 1347 :         return *this;

  0002f	89 45 ec	 mov	 DWORD PTR $T6[ebp], eax
; File C:\Program Files (x86)\Microsoft Visual Studio\2019\Community\VC\Tools\MSVC\14.28.29333\include\vector

; 1733 :         return _Mypair._Get_first();

  00032	8b 45 ec	 mov	 eax, DWORD PTR $T6[ebp]
  00035	89 45 d8	 mov	 DWORD PTR $T1[ebp], eax
; File C:\Program Files (x86)\Microsoft Visual Studio\2019\Community\VC\Tools\MSVC\14.28.29333\include\vcruntime_new.h

; 169  :         return _Where;

  00038	8b 45 e8	 mov	 eax, DWORD PTR $T5[ebp]
  0003b	89 45 e0	 mov	 DWORD PTR $T3[ebp], eax
; File C:\Program Files (x86)\Microsoft Visual Studio\2019\Community\VC\Tools\MSVC\14.28.29333\include\type_traits

; 1443 :     return static_cast<_Ty&&>(_Arg);

  0003e	8b 45 e4	 mov	 eax, DWORD PTR $T4[ebp]
  00041	89 45 dc	 mov	 DWORD PTR $T2[ebp], eax
; File C:\Program Files (x86)\Microsoft Visual Studio\2019\Community\VC\Tools\MSVC\14.28.29333\include\xmemory

; 701  :         ::new (const_cast<void*>(static_cast<const volatile void*>(_Ptr))) _Objty(_STD forward<_Types>(_Args)...);

  00044	8b 45 e0	 mov	 eax, DWORD PTR $T3[ebp]
  00047	8b 4d dc	 mov	 ecx, DWORD PTR $T2[ebp]
  0004a	8b 09		 mov	 ecx, DWORD PTR [ecx]
  0004c	89 08		 mov	 DWORD PTR [eax], ecx
; File C:\Program Files (x86)\Microsoft Visual Studio\2019\Community\VC\Tools\MSVC\14.28.29333\include\vector

; 689  :         _Ty& _Result = *_Mylast;

  0004e	8b 45 fc	 mov	 eax, DWORD PTR __Mylast$[ebp]
  00051	8b 00		 mov	 eax, DWORD PTR [eax]
  00053	89 45 d4	 mov	 DWORD PTR __Result$[ebp], eax

; 690  :         ++_Mylast;

  00056	8b 45 fc	 mov	 eax, DWORD PTR __Mylast$[ebp]
  00059	8b 00		 mov	 eax, DWORD PTR [eax]
  0005b	83 c0 04	 add	 eax, 4
  0005e	8b 4d fc	 mov	 ecx, DWORD PTR __Mylast$[ebp]
  00061	89 01		 mov	 DWORD PTR [ecx], eax

; 691  : #if _HAS_CXX17
; 692  :         return _Result;
; 693  : #else // ^^^ _HAS_CXX17 ^^^ // vvv !_HAS_CXX17 vvv
; 694  :         (void) _Result;
; 695  : #endif // _HAS_CXX17
; 696  :     }

  00063	c9		 leave
  00064	c2 04 00	 ret	 4
??$_Emplace_back_with_unused_capacity@ABQAVCGraphicImageTexture@@@?$vector@PAVCGraphicImageTexture@@V?$allocator@PAVCGraphicImageTexture@@@std@@@std@@AAEXABQAVCGraphicImageTexture@@@Z ENDP ; std::vector<CGraphicImageTexture *,std::allocator<CGraphicImageTexture *> >::_Emplace_back_with_unused_capacity<CGraphicImageTexture * const &>
_TEXT	ENDS
; Function compile flags: /Odspy
; File C:\Program Files (x86)\Microsoft Visual Studio\2019\Community\VC\Tools\MSVC\14.28.29333\include\vector
; File C:\Program Files (x86)\Microsoft Visual Studio\2019\Community\VC\Tools\MSVC\14.28.29333\include\type_traits
; File C:\Program Files (x86)\Microsoft Visual Studio\2019\Community\VC\Tools\MSVC\14.28.29333\include\vector
; File C:\Program Files (x86)\Microsoft Visual Studio\2019\Community\VC\Tools\MSVC\14.28.29333\include\type_traits
; File C:\Program Files (x86)\Microsoft Visual Studio\2019\Community\VC\Tools\MSVC\14.28.29333\include\vector
;	COMDAT ??$emplace_back@ABQAVCGraphicImageTexture@@@?$vector@PAVCGraphicImageTexture@@V?$allocator@PAVCGraphicImageTexture@@@std@@@std@@QAEXABQAVCGraphicImageTexture@@@Z
_TEXT	SEGMENT
__Result$ = -24						; size = 4
$T1 = -20						; size = 4
$T2 = -16						; size = 4
__Mylast$ = -12						; size = 4
__My_data$ = -8						; size = 4
_this$ = -4						; size = 4
_<_Val_0>$ = 8						; size = 4
??$emplace_back@ABQAVCGraphicImageTexture@@@?$vector@PAVCGraphicImageTexture@@V?$allocator@PAVCGraphicImageTexture@@@std@@@std@@QAEXABQAVCGraphicImageTexture@@@Z PROC ; std::vector<CGraphicImageTexture *,std::allocator<CGraphicImageTexture *> >::emplace_back<CGraphicImageTexture * const &>, COMDAT
; _this$ = ecx

; 700  :     decltype(auto) emplace_back(_Valty&&... _Val) {

  00000	55		 push	 ebp
  00001	8b ec		 mov	 ebp, esp
  00003	83 ec 18	 sub	 esp, 24			; 00000018H
  00006	89 4d fc	 mov	 DWORD PTR _this$[ebp], ecx

; 701  :         // insert by perfectly forwarding into element at end, provide strong guarantee
; 702  :         auto& _My_data   = _Mypair._Myval2;

  00009	8b 45 fc	 mov	 eax, DWORD PTR _this$[ebp]
  0000c	89 45 f8	 mov	 DWORD PTR __My_data$[ebp], eax

; 703  :         pointer& _Mylast = _My_data._Mylast;

  0000f	8b 45 f8	 mov	 eax, DWORD PTR __My_data$[ebp]
  00012	83 c0 04	 add	 eax, 4
  00015	89 45 f4	 mov	 DWORD PTR __Mylast$[ebp], eax

; 704  :         if (_Mylast != _My_data._Myend) {

  00018	8b 45 f4	 mov	 eax, DWORD PTR __Mylast$[ebp]
  0001b	8b 4d f8	 mov	 ecx, DWORD PTR __My_data$[ebp]
  0001e	8b 00		 mov	 eax, DWORD PTR [eax]
  00020	3b 41 08	 cmp	 eax, DWORD PTR [ecx+8]
  00023	74 13		 je	 SHORT $LN2@emplace_ba
; File C:\Program Files (x86)\Microsoft Visual Studio\2019\Community\VC\Tools\MSVC\14.28.29333\include\type_traits

; 1443 :     return static_cast<_Ty&&>(_Arg);

  00025	8b 45 08	 mov	 eax, DWORD PTR _<_Val_0>$[ebp]
  00028	89 45 f0	 mov	 DWORD PTR $T2[ebp], eax
; File C:\Program Files (x86)\Microsoft Visual Studio\2019\Community\VC\Tools\MSVC\14.28.29333\include\vector

; 705  :             return _Emplace_back_with_unused_capacity(_STD forward<_Valty>(_Val)...);

  0002b	ff 75 f0	 push	 DWORD PTR $T2[ebp]
  0002e	8b 4d fc	 mov	 ecx, DWORD PTR _this$[ebp]
  00031	e8 00 00 00 00	 call	 ??$_Emplace_back_with_unused_capacity@ABQAVCGraphicImageTexture@@@?$vector@PAVCGraphicImageTexture@@V?$allocator@PAVCGraphicImageTexture@@@std@@@std@@AAEXABQAVCGraphicImageTexture@@@Z ; std::vector<CGraphicImageTexture *,std::allocator<CGraphicImageTexture *> >::_Emplace_back_with_unused_capacity<CGraphicImageTexture * const &>
  00036	eb 19		 jmp	 SHORT $LN1@emplace_ba
$LN2@emplace_ba:
; File C:\Program Files (x86)\Microsoft Visual Studio\2019\Community\VC\Tools\MSVC\14.28.29333\include\type_traits

; 1443 :     return static_cast<_Ty&&>(_Arg);

  00038	8b 45 08	 mov	 eax, DWORD PTR _<_Val_0>$[ebp]
  0003b	89 45 ec	 mov	 DWORD PTR $T1[ebp], eax
; File C:\Program Files (x86)\Microsoft Visual Studio\2019\Community\VC\Tools\MSVC\14.28.29333\include\vector

; 708  :         _Ty& _Result = *_Emplace_reallocate(_Mylast, _STD forward<_Valty>(_Val)...);

  0003e	ff 75 ec	 push	 DWORD PTR $T1[ebp]
  00041	8b 45 f4	 mov	 eax, DWORD PTR __Mylast$[ebp]
  00044	ff 30		 push	 DWORD PTR [eax]
  00046	8b 4d fc	 mov	 ecx, DWORD PTR _this$[ebp]
  00049	e8 00 00 00 00	 call	 ??$_Emplace_reallocate@ABQAVCGraphicImageTexture@@@?$vector@PAVCGraphicImageTexture@@V?$allocator@PAVCGraphicImageTexture@@@std@@@std@@QAEPAPAVCGraphicImageTexture@@QAPAV2@ABQAV2@@Z ; std::vector<CGraphicImageTexture *,std::allocator<CGraphicImageTexture *> >::_Emplace_reallocate<CGraphicImageTexture * const &>
  0004e	89 45 e8	 mov	 DWORD PTR __Result$[ebp], eax
$LN1@emplace_ba:

; 709  : #if _HAS_CXX17
; 710  :         return _Result;
; 711  : #else // ^^^ _HAS_CXX17 ^^^ // vvv !_HAS_CXX17 vvv
; 712  :         (void) _Result;
; 713  : #endif // _HAS_CXX17
; 714  :     }

  00051	c9		 leave
  00052	c2 04 00	 ret	 4
??$emplace_back@ABQAVCGraphicImageTexture@@@?$vector@PAVCGraphicImageTexture@@V?$allocator@PAVCGraphicImageTexture@@@std@@@std@@QAEXABQAVCGraphicImageTexture@@@Z ENDP ; std::vector<CGraphicImageTexture *,std::allocator<CGraphicImageTexture *> >::emplace_back<CGraphicImageTexture * const &>
_TEXT	ENDS
; Function compile flags: /Odspy
; File C:\Program Files (x86)\Microsoft Visual Studio\2019\Community\VC\Tools\MSVC\14.28.29333\include\xtree
; File C:\Program Files (x86)\Microsoft Visual Studio\2019\Community\VC\Tools\MSVC\14.28.29333\include\utility
; File C:\Program Files (x86)\Microsoft Visual Studio\2019\Community\VC\Tools\MSVC\14.28.29333\include\xtree
; File C:\Program Files (x86)\Microsoft Visual Studio\2019\Community\VC\Tools\MSVC\14.28.29333\include\xstddef
; File C:\Program Files (x86)\Microsoft Visual Studio\2019\Community\VC\Tools\MSVC\14.28.29333\include\xtree
;	COMDAT ??$_Erase_tree@V?$allocator@U?$_Tree_node@U?$pair@$$CBU?$pair@G_W@std@@USCharacterInfomation@CGraphicFontTexture@@@std@@PAX@std@@@std@@@?$_Tree_val@U?$_Tree_simple_types@U?$pair@$$CBU?$pair@G_W@std@@USCharacterInfomation@CGraphicFontTexture@@@std@@@std@@@std@@QAEXAAV?$allocator@U?$_Tree_node@U?$pair@$$CBU?$pair@G_W@std@@USCharacterInfomation@CGraphicFontTexture@@@std@@PAX@std@@@1@PAU?$_Tree_node@U?$pair@$$CBU?$pair@G_W@std@@USCharacterInfomation@CGraphicFontTexture@@@std@@PAX@1@@Z
_TEXT	SEGMENT
$T1 = -20						; size = 4
__Old_val$2 = -16					; size = 4
__New_val$ = -12					; size = 4
_this$ = -8						; size = 4
$T3 = -4						; size = 4
__Al$ = 8						; size = 4
__Rootnode$ = 12					; size = 4
??$_Erase_tree@V?$allocator@U?$_Tree_node@U?$pair@$$CBU?$pair@G_W@std@@USCharacterInfomation@CGraphicFontTexture@@@std@@PAX@std@@@std@@@?$_Tree_val@U?$_Tree_simple_types@U?$pair@$$CBU?$pair@G_W@std@@USCharacterInfomation@CGraphicFontTexture@@@std@@@std@@@std@@QAEXAAV?$allocator@U?$_Tree_node@U?$pair@$$CBU?$pair@G_W@std@@USCharacterInfomation@CGraphicFontTexture@@@std@@PAX@std@@@1@PAU?$_Tree_node@U?$pair@$$CBU?$pair@G_W@std@@USCharacterInfomation@CGraphicFontTexture@@@std@@PAX@1@@Z PROC ; std::_Tree_val<std::_Tree_simple_types<std::pair<std::pair<unsigned short,wchar_t> const ,CGraphicFontTexture::SCharacterInfomation> > >::_Erase_tree<std::allocator<std::_Tree_node<std::pair<std::pair<unsigned short,wchar_t> const ,CGraphicFontTexture::SCharacterInfomation>,void *> > >, COMDAT
; _this$ = ecx

; 742  :     void _Erase_tree(_Alnode& _Al, _Nodeptr _Rootnode) noexcept {

  00000	55		 push	 ebp
  00001	8b ec		 mov	 ebp, esp
  00003	83 ec 14	 sub	 esp, 20			; 00000014H
  00006	89 4d f8	 mov	 DWORD PTR _this$[ebp], ecx
$LN2@Erase_tree:

; 743  :         while (!_Rootnode->_Isnil) { // free subtrees, then node

  00009	8b 45 0c	 mov	 eax, DWORD PTR __Rootnode$[ebp]
  0000c	0f be 40 0d	 movsx	 eax, BYTE PTR [eax+13]
  00010	85 c0		 test	 eax, eax
  00012	75 43		 jne	 SHORT $LN4@Erase_tree

; 744  :             _Erase_tree(_Al, _Rootnode->_Right);

  00014	8b 45 0c	 mov	 eax, DWORD PTR __Rootnode$[ebp]
  00017	ff 70 08	 push	 DWORD PTR [eax+8]
  0001a	ff 75 08	 push	 DWORD PTR __Al$[ebp]
  0001d	8b 4d f8	 mov	 ecx, DWORD PTR _this$[ebp]
  00020	e8 00 00 00 00	 call	 ??$_Erase_tree@V?$allocator@U?$_Tree_node@U?$pair@$$CBU?$pair@G_W@std@@USCharacterInfomation@CGraphicFontTexture@@@std@@PAX@std@@@std@@@?$_Tree_val@U?$_Tree_simple_types@U?$pair@$$CBU?$pair@G_W@std@@USCharacterInfomation@CGraphicFontTexture@@@std@@@std@@@std@@QAEXAAV?$allocator@U?$_Tree_node@U?$pair@$$CBU?$pair@G_W@std@@USCharacterInfomation@CGraphicFontTexture@@@std@@PAX@std@@@1@PAU?$_Tree_node@U?$pair@$$CBU?$pair@G_W@std@@USCharacterInfomation@CGraphicFontTexture@@@std@@PAX@1@@Z ; std::_Tree_val<std::_Tree_simple_types<std::pair<std::pair<unsigned short,wchar_t> const ,CGraphicFontTexture::SCharacterInfomation> > >::_Erase_tree<std::allocator<std::_Tree_node<std::pair<std::pair<unsigned short,wchar_t> const ,CGraphicFontTexture::SCharacterInfomation>,void *> > >

; 745  :             _Alnode::value_type::_Freenode(_Al, _STD exchange(_Rootnode, _Rootnode->_Left));

  00025	8b 45 0c	 mov	 eax, DWORD PTR __Rootnode$[ebp]
  00028	89 45 f4	 mov	 DWORD PTR __New_val$[ebp], eax
; File C:\Program Files (x86)\Microsoft Visual Studio\2019\Community\VC\Tools\MSVC\14.28.29333\include\utility

; 598  :     _Ty _Old_val = static_cast<_Ty&&>(_Val);

  0002b	8b 45 0c	 mov	 eax, DWORD PTR __Rootnode$[ebp]
  0002e	89 45 f0	 mov	 DWORD PTR __Old_val$2[ebp], eax

; 599  :     _Val         = static_cast<_Other&&>(_New_val);

  00031	8b 45 f4	 mov	 eax, DWORD PTR __New_val$[ebp]
  00034	8b 00		 mov	 eax, DWORD PTR [eax]
  00036	89 45 0c	 mov	 DWORD PTR __Rootnode$[ebp], eax

; 600  :     return _Old_val;

  00039	8b 45 f0	 mov	 eax, DWORD PTR __Old_val$2[ebp]
  0003c	89 45 fc	 mov	 DWORD PTR $T3[ebp], eax
; File C:\Program Files (x86)\Microsoft Visual Studio\2019\Community\VC\Tools\MSVC\14.28.29333\include\xtree

; 379  :         allocator_traits<_Alloc>::destroy(_Al, _STD addressof(_Ptr->_Myval));

  0003f	8b 45 fc	 mov	 eax, DWORD PTR $T3[ebp]
  00042	83 c0 10	 add	 eax, 16			; 00000010H
; File C:\Program Files (x86)\Microsoft Visual Studio\2019\Community\VC\Tools\MSVC\14.28.29333\include\xstddef

; 275  :     return __builtin_addressof(_Val);

  00045	89 45 ec	 mov	 DWORD PTR $T1[ebp], eax
; File C:\Program Files (x86)\Microsoft Visual Studio\2019\Community\VC\Tools\MSVC\14.28.29333\include\xtree

; 380  :         _Freenode0(_Al, _Ptr);

  00048	ff 75 fc	 push	 DWORD PTR $T3[ebp]
  0004b	ff 75 08	 push	 DWORD PTR __Al$[ebp]
  0004e	e8 00 00 00 00	 call	 ??$_Freenode0@V?$allocator@U?$_Tree_node@U?$pair@$$CBU?$pair@G_W@std@@USCharacterInfomation@CGraphicFontTexture@@@std@@PAX@std@@@std@@@?$_Tree_node@U?$pair@$$CBU?$pair@G_W@std@@USCharacterInfomation@CGraphicFontTexture@@@std@@PAX@std@@SAXAAV?$allocator@U?$_Tree_node@U?$pair@$$CBU?$pair@G_W@std@@USCharacterInfomation@CGraphicFontTexture@@@std@@PAX@std@@@1@PAU01@@Z ; std::_Tree_node<std::pair<std::pair<unsigned short,wchar_t> const ,CGraphicFontTexture::SCharacterInfomation>,void *>::_Freenode0<std::allocator<std::_Tree_node<std::pair<std::pair<unsigned short,wchar_t> const ,CGraphicFontTexture::SCharacterInfomation>,void *> > >
  00053	59		 pop	 ecx
  00054	59		 pop	 ecx

; 746  :         }

  00055	eb b2		 jmp	 SHORT $LN2@Erase_tree
$LN4@Erase_tree:

; 747  :     }

  00057	c9		 leave
  00058	c2 08 00	 ret	 8
