; Listing generated by Microsoft (R) Optimizing Compiler Version 19.28.29335.0 

	TITLE	D:\Metin2 Server Files\mainline\SRC_2014\Metin2Client\EterLib\GrpImageInstance.cpp
	.686P
	.XMM
	include listing.inc
	.model	flat

INCLUDELIB LIBCMT
INCLUDELIB OLDNAMES

PUBLIC	??_H@YGXPAXIIP6EPAX0@Z@Z			; `vector constructor iterator'
PUBLIC	??0exception@std@@QAE@ABV01@@Z			; std::exception::exception
PUBLIC	?what@exception@std@@UBEPBDXZ			; std::exception::what
PUBLIC	??_Gexception@std@@UAEPAXI@Z			; std::exception::`scalar deleting destructor'
PUBLIC	??0bad_alloc@std@@QAE@ABV01@@Z			; std::bad_alloc::bad_alloc
PUBLIC	??_Gbad_alloc@std@@UAEPAXI@Z			; std::bad_alloc::`scalar deleting destructor'
PUBLIC	??0bad_array_new_length@std@@QAE@XZ		; std::bad_array_new_length::bad_array_new_length
PUBLIC	??1bad_array_new_length@std@@UAE@XZ		; std::bad_array_new_length::~bad_array_new_length
PUBLIC	??0bad_array_new_length@std@@QAE@ABV01@@Z	; std::bad_array_new_length::bad_array_new_length
PUBLIC	??_Gbad_array_new_length@std@@UAEPAXI@Z		; std::bad_array_new_length::`scalar deleting destructor'
PUBLIC	?_Throw_bad_array_new_length@std@@YAXXZ		; std::_Throw_bad_array_new_length
PUBLIC	?_Adjust_manually_vector_aligned@std@@YAXAAPAXAAI@Z ; std::_Adjust_manually_vector_aligned
PUBLIC	??$_Deallocate@$07$0A@@std@@YAXPAXI@Z		; std::_Deallocate<8,0>
PUBLIC	??$_Allocate@$07U_Default_allocate_traits@std@@$0A@@std@@YAPAXI@Z ; std::_Allocate<8,std::_Default_allocate_traits,0>
PUBLIC	??$_Allocate_manually_vector_aligned@U_Default_allocate_traits@std@@@std@@YAPAXI@Z ; std::_Allocate_manually_vector_aligned<std::_Default_allocate_traits>
PUBLIC	?Type@CGraphicImageInstance@@SAKXZ		; CGraphicImageInstance::Type
PUBLIC	?IsType@CGraphicImageInstance@@QAEHK@Z		; CGraphicImageInstance::IsType
PUBLIC	??0CGraphicImageInstance@@QAE@XZ		; CGraphicImageInstance::CGraphicImageInstance
PUBLIC	??1CGraphicImageInstance@@UAE@XZ		; CGraphicImageInstance::~CGraphicImageInstance
PUBLIC	?Destroy@CGraphicImageInstance@@QAEXXZ		; CGraphicImageInstance::Destroy
PUBLIC	?Render@CGraphicImageInstance@@QAEXXZ		; CGraphicImageInstance::Render
PUBLIC	?SetDiffuseColor@CGraphicImageInstance@@QAEXMMMM@Z ; CGraphicImageInstance::SetDiffuseColor
PUBLIC	?SetPosition@CGraphicImageInstance@@QAEXMM@Z	; CGraphicImageInstance::SetPosition
PUBLIC	?SetImagePointer@CGraphicImageInstance@@QAEXPAVCGraphicImage@@@Z ; CGraphicImageInstance::SetImagePointer
PUBLIC	?ReloadImagePointer@CGraphicImageInstance@@QAEXPAVCGraphicImage@@@Z ; CGraphicImageInstance::ReloadImagePointer
PUBLIC	?IsEmpty@CGraphicImageInstance@@QBE_NXZ		; CGraphicImageInstance::IsEmpty
PUBLIC	?GetWidth@CGraphicImageInstance@@QAEHXZ		; CGraphicImageInstance::GetWidth
PUBLIC	?GetHeight@CGraphicImageInstance@@QAEHXZ	; CGraphicImageInstance::GetHeight
PUBLIC	?GetTexturePointer@CGraphicImageInstance@@QAEPAVCGraphicTexture@@XZ ; CGraphicImageInstance::GetTexturePointer
PUBLIC	?GetTextureReference@CGraphicImageInstance@@QBEABVCGraphicTexture@@XZ ; CGraphicImageInstance::GetTextureReference
PUBLIC	?GetGraphicImagePointer@CGraphicImageInstance@@QAEPAVCGraphicImage@@XZ ; CGraphicImageInstance::GetGraphicImagePointer
PUBLIC	??8CGraphicImageInstance@@QBE_NABV0@@Z		; CGraphicImageInstance::operator==
PUBLIC	?Initialize@CGraphicImageInstance@@IAEXXZ	; CGraphicImageInstance::Initialize
PUBLIC	?OnRender@CGraphicImageInstance@@MAEXXZ		; CGraphicImageInstance::OnRender
PUBLIC	?OnSetImagePointer@CGraphicImageInstance@@MAEXXZ ; CGraphicImageInstance::OnSetImagePointer
PUBLIC	?OnIsType@CGraphicImageInstance@@MAEHK@Z	; CGraphicImageInstance::OnIsType
PUBLIC	??1?$CRef@VCGraphicImage@@@@QAE@XZ		; CRef<CGraphicImage>::~CRef<CGraphicImage>
PUBLIC	?SetPointer@?$CRef@VCGraphicImage@@@@QAEXPAVCReferenceObject@@@Z ; CRef<CGraphicImage>::SetPointer
PUBLIC	?CreateSystem@CGraphicImageInstance@@SAXI@Z	; CGraphicImageInstance::CreateSystem
PUBLIC	?DestroySystem@CGraphicImageInstance@@SAXXZ	; CGraphicImageInstance::DestroySystem
PUBLIC	?New@CGraphicImageInstance@@SAPAV1@XZ		; CGraphicImageInstance::New
PUBLIC	?Delete@CGraphicImageInstance@@SAXPAV1@@Z	; CGraphicImageInstance::Delete
PUBLIC	??_GCGraphicImageInstance@@UAEPAXI@Z		; CGraphicImageInstance::`scalar deleting destructor'
PUBLIC	??0?$CDynamicPool@VCGraphicImageInstance@@@@QAE@XZ ; CDynamicPool<CGraphicImageInstance>::CDynamicPool<CGraphicImageInstance>
PUBLIC	??1?$CDynamicPool@VCGraphicImageInstance@@@@UAE@XZ ; CDynamicPool<CGraphicImageInstance>::~CDynamicPool<CGraphicImageInstance>
PUBLIC	?Destroy@?$CDynamicPool@VCGraphicImageInstance@@@@QAEXXZ ; CDynamicPool<CGraphicImageInstance>::Destroy
PUBLIC	?Alloc@?$CDynamicPool@VCGraphicImageInstance@@@@QAEPAVCGraphicImageInstance@@XZ ; CDynamicPool<CGraphicImageInstance>::Alloc
PUBLIC	?Delete@?$CDynamicPool@VCGraphicImageInstance@@@@KAXPAVCGraphicImageInstance@@@Z ; CDynamicPool<CGraphicImageInstance>::Delete
PUBLIC	?deallocate@?$allocator@PAVCGraphicImageInstance@@@std@@QAEXQAPAVCGraphicImageInstance@@I@Z ; std::allocator<CGraphicImageInstance *>::deallocate
PUBLIC	?_Reallocate_exactly@?$vector@PAVCGraphicImageInstance@@V?$allocator@PAVCGraphicImageInstance@@@std@@@std@@AAEXI@Z ; std::vector<CGraphicImageInstance *,std::allocator<CGraphicImageInstance *> >::_Reallocate_exactly
PUBLIC	?reserve@?$vector@PAVCGraphicImageInstance@@V?$allocator@PAVCGraphicImageInstance@@@std@@@std@@QAEXI@Z ; std::vector<CGraphicImageInstance *,std::allocator<CGraphicImageInstance *> >::reserve
PUBLIC	?clear@?$vector@PAVCGraphicImageInstance@@V?$allocator@PAVCGraphicImageInstance@@@std@@@std@@QAEXXZ ; std::vector<CGraphicImageInstance *,std::allocator<CGraphicImageInstance *> >::clear
PUBLIC	?_Destroy@?$vector@PAVCGraphicImageInstance@@V?$allocator@PAVCGraphicImageInstance@@@std@@@std@@AAEXPAPAVCGraphicImageInstance@@0@Z ; std::vector<CGraphicImageInstance *,std::allocator<CGraphicImageInstance *> >::_Destroy
PUBLIC	?_Calculate_growth@?$vector@PAVCGraphicImageInstance@@V?$allocator@PAVCGraphicImageInstance@@@std@@@std@@ABEII@Z ; std::vector<CGraphicImageInstance *,std::allocator<CGraphicImageInstance *> >::_Calculate_growth
PUBLIC	?_Change_array@?$vector@PAVCGraphicImageInstance@@V?$allocator@PAVCGraphicImageInstance@@@std@@@std@@AAEXQAPAVCGraphicImageInstance@@II@Z ; std::vector<CGraphicImageInstance *,std::allocator<CGraphicImageInstance *> >::_Change_array
PUBLIC	?_Tidy@?$vector@PAVCGraphicImageInstance@@V?$allocator@PAVCGraphicImageInstance@@@std@@@std@@AAEXXZ ; std::vector<CGraphicImageInstance *,std::allocator<CGraphicImageInstance *> >::_Tidy
PUBLIC	?_Xlength@?$vector@PAVCGraphicImageInstance@@V?$allocator@PAVCGraphicImageInstance@@@std@@@std@@CAXXZ ; std::vector<CGraphicImageInstance *,std::allocator<CGraphicImageInstance *> >::_Xlength
PUBLIC	?_Getal@?$vector@PAVCGraphicImageInstance@@V?$allocator@PAVCGraphicImageInstance@@@std@@@std@@AAEAAV?$allocator@PAVCGraphicImageInstance@@@2@XZ ; std::vector<CGraphicImageInstance *,std::allocator<CGraphicImageInstance *> >::_Getal
PUBLIC	??_G?$CDynamicPool@VCGraphicImageInstance@@@@UAEPAXI@Z ; CDynamicPool<CGraphicImageInstance>::`scalar deleting destructor'
PUBLIC	??$for_each@V?$_Vector_iterator@V?$_Vector_val@U?$_Simple_types@PAVCGraphicImageInstance@@@std@@@std@@@std@@P6AXPAVCGraphicImageInstance@@@Z@std@@YAP6AXPAVCGraphicImageInstance@@@ZV?$_Vector_iterator@V?$_Vector_val@U?$_Simple_types@PAVCGraphicImageInstance@@@std@@@std@@@0@1P6AX0@Z@Z ; std::for_each<std::_Vector_iterator<std::_Vector_val<std::_Simple_types<CGraphicImageInstance *> > >,void (__cdecl*)(CGraphicImageInstance *)>
PUBLIC	??$emplace_back@ABQAVCGraphicImageInstance@@@?$vector@PAVCGraphicImageInstance@@V?$allocator@PAVCGraphicImageInstance@@@std@@@std@@QAEXABQAVCGraphicImageInstance@@@Z ; std::vector<CGraphicImageInstance *,std::allocator<CGraphicImageInstance *> >::emplace_back<CGraphicImageInstance * const &>
PUBLIC	??$_Emplace_back_with_unused_capacity@ABQAVCGraphicImageInstance@@@?$vector@PAVCGraphicImageInstance@@V?$allocator@PAVCGraphicImageInstance@@@std@@@std@@AAEXABQAVCGraphicImageInstance@@@Z ; std::vector<CGraphicImageInstance *,std::allocator<CGraphicImageInstance *> >::_Emplace_back_with_unused_capacity<CGraphicImageInstance * const &>
PUBLIC	??$_Emplace_reallocate@ABQAVCGraphicImageInstance@@@?$vector@PAVCGraphicImageInstance@@V?$allocator@PAVCGraphicImageInstance@@@std@@@std@@QAEPAPAVCGraphicImageInstance@@QAPAV2@ABQAV2@@Z ; std::vector<CGraphicImageInstance *,std::allocator<CGraphicImageInstance *> >::_Emplace_reallocate<CGraphicImageInstance * const &>
PUBLIC	??$_Destroy_range@V?$allocator@PAVCGraphicImageInstance@@@std@@@std@@YAXPAPAVCGraphicImageInstance@@QAPAV1@AAV?$allocator@PAVCGraphicImageInstance@@@0@@Z ; std::_Destroy_range<std::allocator<CGraphicImageInstance *> >
PUBLIC	??$_Uninitialized_move@PAPAVCGraphicImageInstance@@V?$allocator@PAVCGraphicImageInstance@@@std@@@std@@YAPAPAVCGraphicImageInstance@@QAPAV1@0PAPAV1@AAV?$allocator@PAVCGraphicImageInstance@@@0@@Z ; std::_Uninitialized_move<CGraphicImageInstance * *,std::allocator<CGraphicImageInstance *> >
PUBLIC	??$_Copy_memmove@PAPAVCGraphicImageInstance@@PAPAV1@@std@@YAPAPAVCGraphicImageInstance@@PAPAV1@00@Z ; std::_Copy_memmove<CGraphicImageInstance * *,CGraphicImageInstance * *>
PUBLIC	??_7exception@std@@6B@				; std::exception::`vftable'
PUBLIC	??_C@_0BC@EOODALEL@Unknown?5exception@		; `string'
PUBLIC	??_7bad_alloc@std@@6B@				; std::bad_alloc::`vftable'
PUBLIC	??_7bad_array_new_length@std@@6B@		; std::bad_array_new_length::`vftable'
PUBLIC	??_C@_0BF@KINCDENJ@bad?5array?5new?5length@	; `string'
PUBLIC	__TI3?AVbad_array_new_length@std@@
PUBLIC	__CTA3?AVbad_array_new_length@std@@
PUBLIC	??_R0?AVbad_array_new_length@std@@@8		; std::bad_array_new_length `RTTI Type Descriptor'
PUBLIC	__CT??_R0?AVbad_array_new_length@std@@@8??0bad_array_new_length@std@@QAE@ABV01@@Z12
PUBLIC	??_R0?AVbad_alloc@std@@@8			; std::bad_alloc `RTTI Type Descriptor'
PUBLIC	__CT??_R0?AVbad_alloc@std@@@8??0bad_alloc@std@@QAE@ABV01@@Z12
PUBLIC	??_R0?AVexception@std@@@8			; std::exception `RTTI Type Descriptor'
PUBLIC	__CT??_R0?AVexception@std@@@8??0exception@std@@QAE@ABV01@@Z12
PUBLIC	??_R4exception@std@@6B@				; std::exception::`RTTI Complete Object Locator'
PUBLIC	??_R3exception@std@@8				; std::exception::`RTTI Class Hierarchy Descriptor'
PUBLIC	??_R2exception@std@@8				; std::exception::`RTTI Base Class Array'
PUBLIC	??_R1A@?0A@EA@exception@std@@8			; std::exception::`RTTI Base Class Descriptor at (0,-1,0,64)'
PUBLIC	??_R4bad_alloc@std@@6B@				; std::bad_alloc::`RTTI Complete Object Locator'
PUBLIC	??_R3bad_alloc@std@@8				; std::bad_alloc::`RTTI Class Hierarchy Descriptor'
PUBLIC	??_R2bad_alloc@std@@8				; std::bad_alloc::`RTTI Base Class Array'
PUBLIC	??_R1A@?0A@EA@bad_alloc@std@@8			; std::bad_alloc::`RTTI Base Class Descriptor at (0,-1,0,64)'
PUBLIC	??_R4bad_array_new_length@std@@6B@		; std::bad_array_new_length::`RTTI Complete Object Locator'
PUBLIC	??_R3bad_array_new_length@std@@8		; std::bad_array_new_length::`RTTI Class Hierarchy Descriptor'
PUBLIC	??_R2bad_array_new_length@std@@8		; std::bad_array_new_length::`RTTI Base Class Array'
PUBLIC	??_R1A@?0A@EA@bad_array_new_length@std@@8	; std::bad_array_new_length::`RTTI Base Class Descriptor at (0,-1,0,64)'
PUBLIC	?ms_kPool@CGraphicImageInstance@@2V?$CDynamicPool@VCGraphicImageInstance@@@@A ; CGraphicImageInstance::ms_kPool
PUBLIC	??_7CGraphicImageInstance@@6B@			; CGraphicImageInstance::`vftable'
PUBLIC	?ms_singleton@?$CSingleton@VCStateManager@@@@0PAVCStateManager@@A ; CSingleton<CStateManager>::ms_singleton
PUBLIC	??_7?$CDynamicPool@VCGraphicImageInstance@@@@6B@ ; CDynamicPool<CGraphicImageInstance>::`vftable'
PUBLIC	??_C@_0BG@OHFFHEGB@CGraphicImageInstance@	; `string'
PUBLIC	??_C@_0BA@FOIKENOD@vector?5too?5long@		; `string'
PUBLIC	??_R4CGraphicImageInstance@@6B@			; CGraphicImageInstance::`RTTI Complete Object Locator'
PUBLIC	??_R0?AVCGraphicImageInstance@@@8		; CGraphicImageInstance `RTTI Type Descriptor'
PUBLIC	??_R3CGraphicImageInstance@@8			; CGraphicImageInstance::`RTTI Class Hierarchy Descriptor'
PUBLIC	??_R2CGraphicImageInstance@@8			; CGraphicImageInstance::`RTTI Base Class Array'
PUBLIC	??_R1A@?0A@EA@CGraphicImageInstance@@8		; CGraphicImageInstance::`RTTI Base Class Descriptor at (0,-1,0,64)'
PUBLIC	??_R4?$CDynamicPool@VCGraphicImageInstance@@@@6B@ ; CDynamicPool<CGraphicImageInstance>::`RTTI Complete Object Locator'
PUBLIC	??_R0?AV?$CDynamicPool@VCGraphicImageInstance@@@@@8 ; CDynamicPool<CGraphicImageInstance> `RTTI Type Descriptor'
PUBLIC	??_R3?$CDynamicPool@VCGraphicImageInstance@@@@8	; CDynamicPool<CGraphicImageInstance>::`RTTI Class Hierarchy Descriptor'
PUBLIC	??_R2?$CDynamicPool@VCGraphicImageInstance@@@@8	; CDynamicPool<CGraphicImageInstance>::`RTTI Base Class Array'
PUBLIC	??_R1A@?0A@EA@?$CDynamicPool@VCGraphicImageInstance@@@@8 ; CDynamicPool<CGraphicImageInstance>::`RTTI Base Class Descriptor at (0,-1,0,64)'
PUBLIC	__real@3f000000
PUBLIC	__real@3f800000
PUBLIC	__real@437f0000
EXTRN	??2@YAPAXI@Z:PROC				; operator new
EXTRN	??3@YAXPAXI@Z:PROC				; operator delete
EXTRN	_atexit:PROC
EXTRN	__Init_thread_header:PROC
EXTRN	__Init_thread_abort:PROC
EXTRN	__Init_thread_footer:PROC
EXTRN	___std_terminate:PROC
EXTRN	__invalid_parameter_noinfo_noreturn:PROC
EXTRN	_memmove:PROC
EXTRN	_strlen:PROC
EXTRN	___std_exception_copy:PROC
EXTRN	___std_exception_destroy:PROC
EXTRN	??_Eexception@std@@UAEPAXI@Z:PROC		; std::exception::`vector deleting destructor'
EXTRN	??_Ebad_alloc@std@@UAEPAXI@Z:PROC		; std::bad_alloc::`vector deleting destructor'
EXTRN	??_Ebad_array_new_length@std@@UAEPAXI@Z:PROC	; std::bad_array_new_length::`vector deleting destructor'
EXTRN	?_Xlength_error@std@@YAXPBD@Z:PROC		; std::_Xlength_error
EXTRN	?AddReference@CReferenceObject@@QAEXXZ:PROC	; CReferenceObject::AddReference
EXTRN	?Release@CReferenceObject@@QAEXXZ:PROC		; CReferenceObject::Release
EXTRN	?Reload@CResource@@QAEXXZ:PROC			; CResource::Reload
EXTRN	?IsEmpty@CResource@@QBE_NXZ:PROC		; CResource::IsEmpty
EXTRN	?SetDefaultIndexBuffer@CGraphicBase@@SAXI@Z:PROC ; CGraphicBase::SetDefaultIndexBuffer
EXTRN	?SetPDTStream@CGraphicBase@@SA_NPAUSPDTVertex@@I@Z:PROC ; CGraphicBase::SetPDTStream
EXTRN	?GetWidth@CGraphicTexture@@QBEHXZ:PROC		; CGraphicTexture::GetWidth
EXTRN	?GetHeight@CGraphicTexture@@QBEHXZ:PROC		; CGraphicTexture::GetHeight
EXTRN	?GetD3DTexture@CGraphicTexture@@QBEPAUIDirect3DTexture8@@XZ:PROC ; CGraphicTexture::GetD3DTexture
EXTRN	?GetWidth@CGraphicImage@@QBEHXZ:PROC		; CGraphicImage::GetWidth
EXTRN	?GetHeight@CGraphicImage@@QBEHXZ:PROC		; CGraphicImage::GetHeight
EXTRN	?GetRectReference@CGraphicImage@@QBEABUtagRECT@@XZ:PROC ; CGraphicImage::GetRectReference
EXTRN	?GetTextureReference@CGraphicImage@@QBEABVCGraphicTexture@@XZ:PROC ; CGraphicImage::GetTextureReference
EXTRN	?GetTexturePointer@CGraphicImage@@QAEPAVCGraphicTexture@@XZ:PROC ; CGraphicImage::GetTexturePointer
EXTRN	??_ECGraphicImageInstance@@UAEPAXI@Z:PROC	; CGraphicImageInstance::`vector deleting destructor'
EXTRN	?SetTexture@CStateManager@@QAEXKPAUIDirect3DBaseTexture8@@@Z:PROC ; CStateManager::SetTexture
EXTRN	?SetVertexShader@CStateManager@@QAEXK@Z:PROC	; CStateManager::SetVertexShader
EXTRN	?DrawIndexedPrimitive@CStateManager@@QAEJW4_D3DPRIMITIVETYPE@@IIII@Z:PROC ; CStateManager::DrawIndexedPrimitive
EXTRN	?GetCRC32@@YAKPBDI@Z:PROC			; GetCRC32
EXTRN	??_E?$CDynamicPool@VCGraphicImageInstance@@@@UAEPAXI@Z:PROC ; CDynamicPool<CGraphicImageInstance>::`vector deleting destructor'
EXTRN	@__security_check_cookie@4:PROC
EXTRN	__CxxThrowException@8:PROC
EXTRN	___CxxFrameHandler3:PROC
EXTRN	__ftoui3:PROC
EXTRN	__Init_thread_epoch:DWORD
EXTRN	??_7type_info@@6B@:QWORD			; type_info::`vftable'
EXTRN	___security_cookie:DWORD
EXTRN	__fltused:DWORD
EXTRN	__tls_array:DWORD
EXTRN	__tls_index:DWORD
_BSS	SEGMENT
?ms_kPool@CGraphicImageInstance@@2V?$CDynamicPool@VCGraphicImageInstance@@@@A DB 024H DUP (?) ; CGraphicImageInstance::ms_kPool
_BSS	ENDS
;	COMDAT ?ms_singleton@?$CSingleton@VCStateManager@@@@0PAVCStateManager@@A
_BSS	SEGMENT
?ms_singleton@?$CSingleton@VCStateManager@@@@0PAVCStateManager@@A DD 01H DUP (?) ; CSingleton<CStateManager>::ms_singleton
_BSS	ENDS
;	COMDAT ?s_dwType@?1??Type@CGraphicImageInstance@@SAKXZ@4KA
_BSS	SEGMENT
?s_dwType@?1??Type@CGraphicImageInstance@@SAKXZ@4KA DD 01H DUP (?) ; `CGraphicImageInstance::Type'::`2'::s_dwType
_BSS	ENDS
;	COMDAT ?$TSS0@?1??Type@CGraphicImageInstance@@SAKXZ@4HA
_BSS	SEGMENT
?$TSS0@?1??Type@CGraphicImageInstance@@SAKXZ@4HA DD 01H DUP (?) ; `CGraphicImageInstance::Type'::`2'::$TSS0
_BSS	ENDS
CRT$XCU	SEGMENT
??ms_kPool$initializer$@CGraphicImageInstance@@2P6AXXZA@@3P6AXXZA DD FLAT:??__E?ms_kPool@CGraphicImageInstance@@2V?$CDynamicPool@VCGraphicImageInstance@@@@A@@YAXXZ ; ??ms_kPool$initializer$@CGraphicImageInstance@@2P6AXXZA@@3P6AXXZA
CRT$XCU	ENDS
;	COMDAT __real@437f0000
CONST	SEGMENT
__real@437f0000 DD 0437f0000r			; 255
CONST	ENDS
;	COMDAT __real@3f800000
CONST	SEGMENT
__real@3f800000 DD 03f800000r			; 1
CONST	ENDS
;	COMDAT __real@3f000000
CONST	SEGMENT
__real@3f000000 DD 03f000000r			; 0.5
CONST	ENDS
;	COMDAT ??_R1A@?0A@EA@?$CDynamicPool@VCGraphicImageInstance@@@@8
rdata$r	SEGMENT
??_R1A@?0A@EA@?$CDynamicPool@VCGraphicImageInstance@@@@8 DD FLAT:??_R0?AV?$CDynamicPool@VCGraphicImageInstance@@@@@8 ; CDynamicPool<CGraphicImageInstance>::`RTTI Base Class Descriptor at (0,-1,0,64)'
	DD	00H
	DD	00H
	DD	0ffffffffH
	DD	00H
	DD	040H
	DD	FLAT:??_R3?$CDynamicPool@VCGraphicImageInstance@@@@8
rdata$r	ENDS
;	COMDAT ??_R2?$CDynamicPool@VCGraphicImageInstance@@@@8
rdata$r	SEGMENT
??_R2?$CDynamicPool@VCGraphicImageInstance@@@@8 DD FLAT:??_R1A@?0A@EA@?$CDynamicPool@VCGraphicImageInstance@@@@8 ; CDynamicPool<CGraphicImageInstance>::`RTTI Base Class Array'
rdata$r	ENDS
;	COMDAT ??_R3?$CDynamicPool@VCGraphicImageInstance@@@@8
rdata$r	SEGMENT
??_R3?$CDynamicPool@VCGraphicImageInstance@@@@8 DD 00H	; CDynamicPool<CGraphicImageInstance>::`RTTI Class Hierarchy Descriptor'
	DD	00H
	DD	01H
	DD	FLAT:??_R2?$CDynamicPool@VCGraphicImageInstance@@@@8
rdata$r	ENDS
;	COMDAT ??_R0?AV?$CDynamicPool@VCGraphicImageInstance@@@@@8
data$rs	SEGMENT
??_R0?AV?$CDynamicPool@VCGraphicImageInstance@@@@@8 DD FLAT:??_7type_info@@6B@ ; CDynamicPool<CGraphicImageInstance> `RTTI Type Descriptor'
	DD	00H
	DB	'.?AV?$CDynamicPool@VCGraphicImageInstance@@@@', 00H
data$rs	ENDS
;	COMDAT ??_R4?$CDynamicPool@VCGraphicImageInstance@@@@6B@
rdata$r	SEGMENT
??_R4?$CDynamicPool@VCGraphicImageInstance@@@@6B@ DD 00H ; CDynamicPool<CGraphicImageInstance>::`RTTI Complete Object Locator'
	DD	00H
	DD	00H
	DD	FLAT:??_R0?AV?$CDynamicPool@VCGraphicImageInstance@@@@@8
	DD	FLAT:??_R3?$CDynamicPool@VCGraphicImageInstance@@@@8
rdata$r	ENDS
;	COMDAT ??_R1A@?0A@EA@CGraphicImageInstance@@8
rdata$r	SEGMENT
??_R1A@?0A@EA@CGraphicImageInstance@@8 DD FLAT:??_R0?AVCGraphicImageInstance@@@8 ; CGraphicImageInstance::`RTTI Base Class Descriptor at (0,-1,0,64)'
	DD	00H
	DD	00H
	DD	0ffffffffH
	DD	00H
	DD	040H
	DD	FLAT:??_R3CGraphicImageInstance@@8
rdata$r	ENDS
;	COMDAT ??_R2CGraphicImageInstance@@8
rdata$r	SEGMENT
??_R2CGraphicImageInstance@@8 DD FLAT:??_R1A@?0A@EA@CGraphicImageInstance@@8 ; CGraphicImageInstance::`RTTI Base Class Array'
rdata$r	ENDS
;	COMDAT ??_R3CGraphicImageInstance@@8
rdata$r	SEGMENT
??_R3CGraphicImageInstance@@8 DD 00H			; CGraphicImageInstance::`RTTI Class Hierarchy Descriptor'
	DD	00H
	DD	01H
	DD	FLAT:??_R2CGraphicImageInstance@@8
rdata$r	ENDS
;	COMDAT ??_R0?AVCGraphicImageInstance@@@8
data$rs	SEGMENT
??_R0?AVCGraphicImageInstance@@@8 DD FLAT:??_7type_info@@6B@ ; CGraphicImageInstance `RTTI Type Descriptor'
	DD	00H
	DB	'.?AVCGraphicImageInstance@@', 00H
data$rs	ENDS
;	COMDAT ??_R4CGraphicImageInstance@@6B@
rdata$r	SEGMENT
??_R4CGraphicImageInstance@@6B@ DD 00H			; CGraphicImageInstance::`RTTI Complete Object Locator'
	DD	00H
	DD	00H
	DD	FLAT:??_R0?AVCGraphicImageInstance@@@8
	DD	FLAT:??_R3CGraphicImageInstance@@8
rdata$r	ENDS
;	COMDAT ??_C@_0BA@FOIKENOD@vector?5too?5long@
CONST	SEGMENT
??_C@_0BA@FOIKENOD@vector?5too?5long@ DB 'vector too long', 00H ; `string'
CONST	ENDS
;	COMDAT ??_C@_0BG@OHFFHEGB@CGraphicImageInstance@
CONST	SEGMENT
??_C@_0BG@OHFFHEGB@CGraphicImageInstance@ DB 'CGraphicImageInstance', 00H ; `string'
CONST	ENDS
;	COMDAT ??_7?$CDynamicPool@VCGraphicImageInstance@@@@6B@
CONST	SEGMENT
??_7?$CDynamicPool@VCGraphicImageInstance@@@@6B@ DD FLAT:??_R4?$CDynamicPool@VCGraphicImageInstance@@@@6B@ ; CDynamicPool<CGraphicImageInstance>::`vftable'
	DD	FLAT:??_E?$CDynamicPool@VCGraphicImageInstance@@@@UAEPAXI@Z
CONST	ENDS
;	COMDAT ??_7CGraphicImageInstance@@6B@
CONST	SEGMENT
??_7CGraphicImageInstance@@6B@ DD FLAT:??_R4CGraphicImageInstance@@6B@ ; CGraphicImageInstance::`vftable'
	DD	FLAT:??_ECGraphicImageInstance@@UAEPAXI@Z
	DD	FLAT:?OnRender@CGraphicImageInstance@@MAEXXZ
	DD	FLAT:?OnSetImagePointer@CGraphicImageInstance@@MAEXXZ
	DD	FLAT:?OnIsType@CGraphicImageInstance@@MAEHK@Z
CONST	ENDS
;	COMDAT ??_R1A@?0A@EA@bad_array_new_length@std@@8
rdata$r	SEGMENT
??_R1A@?0A@EA@bad_array_new_length@std@@8 DD FLAT:??_R0?AVbad_array_new_length@std@@@8 ; std::bad_array_new_length::`RTTI Base Class Descriptor at (0,-1,0,64)'
	DD	02H
	DD	00H
	DD	0ffffffffH
	DD	00H
	DD	040H
	DD	FLAT:??_R3bad_array_new_length@std@@8
rdata$r	ENDS
;	COMDAT ??_R2bad_array_new_length@std@@8
rdata$r	SEGMENT
??_R2bad_array_new_length@std@@8 DD FLAT:??_R1A@?0A@EA@bad_array_new_length@std@@8 ; std::bad_array_new_length::`RTTI Base Class Array'
	DD	FLAT:??_R1A@?0A@EA@bad_alloc@std@@8
	DD	FLAT:??_R1A@?0A@EA@exception@std@@8
rdata$r	ENDS
;	COMDAT ??_R3bad_array_new_length@std@@8
rdata$r	SEGMENT
??_R3bad_array_new_length@std@@8 DD 00H			; std::bad_array_new_length::`RTTI Class Hierarchy Descriptor'
	DD	00H
	DD	03H
	DD	FLAT:??_R2bad_array_new_length@std@@8
rdata$r	ENDS
;	COMDAT ??_R4bad_array_new_length@std@@6B@
rdata$r	SEGMENT
??_R4bad_array_new_length@std@@6B@ DD 00H		; std::bad_array_new_length::`RTTI Complete Object Locator'
	DD	00H
	DD	00H
	DD	FLAT:??_R0?AVbad_array_new_length@std@@@8
	DD	FLAT:??_R3bad_array_new_length@std@@8
rdata$r	ENDS
;	COMDAT ??_R1A@?0A@EA@bad_alloc@std@@8
rdata$r	SEGMENT
??_R1A@?0A@EA@bad_alloc@std@@8 DD FLAT:??_R0?AVbad_alloc@std@@@8 ; std::bad_alloc::`RTTI Base Class Descriptor at (0,-1,0,64)'
	DD	01H
	DD	00H
	DD	0ffffffffH
	DD	00H
	DD	040H
	DD	FLAT:??_R3bad_alloc@std@@8
rdata$r	ENDS
;	COMDAT ??_R2bad_alloc@std@@8
rdata$r	SEGMENT
??_R2bad_alloc@std@@8 DD FLAT:??_R1A@?0A@EA@bad_alloc@std@@8 ; std::bad_alloc::`RTTI Base Class Array'
	DD	FLAT:??_R1A@?0A@EA@exception@std@@8
rdata$r	ENDS
;	COMDAT ??_R3bad_alloc@std@@8
rdata$r	SEGMENT
??_R3bad_alloc@std@@8 DD 00H				; std::bad_alloc::`RTTI Class Hierarchy Descriptor'
	DD	00H
	DD	02H
	DD	FLAT:??_R2bad_alloc@std@@8
rdata$r	ENDS
;	COMDAT ??_R4bad_alloc@std@@6B@
rdata$r	SEGMENT
??_R4bad_alloc@std@@6B@ DD 00H				; std::bad_alloc::`RTTI Complete Object Locator'
	DD	00H
	DD	00H
	DD	FLAT:??_R0?AVbad_alloc@std@@@8
	DD	FLAT:??_R3bad_alloc@std@@8
rdata$r	ENDS
;	COMDAT ??_R1A@?0A@EA@exception@std@@8
rdata$r	SEGMENT
??_R1A@?0A@EA@exception@std@@8 DD FLAT:??_R0?AVexception@std@@@8 ; std::exception::`RTTI Base Class Descriptor at (0,-1,0,64)'
	DD	00H
	DD	00H
	DD	0ffffffffH
	DD	00H
	DD	040H
	DD	FLAT:??_R3exception@std@@8
rdata$r	ENDS
;	COMDAT ??_R2exception@std@@8
rdata$r	SEGMENT
??_R2exception@std@@8 DD FLAT:??_R1A@?0A@EA@exception@std@@8 ; std::exception::`RTTI Base Class Array'
rdata$r	ENDS
;	COMDAT ??_R3exception@std@@8
rdata$r	SEGMENT
??_R3exception@std@@8 DD 00H				; std::exception::`RTTI Class Hierarchy Descriptor'
	DD	00H
	DD	01H
	DD	FLAT:??_R2exception@std@@8
rdata$r	ENDS
;	COMDAT ??_R4exception@std@@6B@
rdata$r	SEGMENT
??_R4exception@std@@6B@ DD 00H				; std::exception::`RTTI Complete Object Locator'
	DD	00H
	DD	00H
	DD	FLAT:??_R0?AVexception@std@@@8
	DD	FLAT:??_R3exception@std@@8
rdata$r	ENDS
;	COMDAT __CT??_R0?AVexception@std@@@8??0exception@std@@QAE@ABV01@@Z12
xdata$x	SEGMENT
__CT??_R0?AVexception@std@@@8??0exception@std@@QAE@ABV01@@Z12 DD 00H
	DD	FLAT:??_R0?AVexception@std@@@8
	DD	00H
	DD	0ffffffffH
	ORG $+4
	DD	0cH
	DD	FLAT:??0exception@std@@QAE@ABV01@@Z
xdata$x	ENDS
;	COMDAT ??_R0?AVexception@std@@@8
data$r	SEGMENT
??_R0?AVexception@std@@@8 DD FLAT:??_7type_info@@6B@	; std::exception `RTTI Type Descriptor'
	DD	00H
	DB	'.?AVexception@std@@', 00H
data$r	ENDS
;	COMDAT __CT??_R0?AVbad_alloc@std@@@8??0bad_alloc@std@@QAE@ABV01@@Z12
xdata$x	SEGMENT
__CT??_R0?AVbad_alloc@std@@@8??0bad_alloc@std@@QAE@ABV01@@Z12 DD 010H
	DD	FLAT:??_R0?AVbad_alloc@std@@@8
	DD	00H
	DD	0ffffffffH
	ORG $+4
	DD	0cH
	DD	FLAT:??0bad_alloc@std@@QAE@ABV01@@Z
xdata$x	ENDS
;	COMDAT ??_R0?AVbad_alloc@std@@@8
data$r	SEGMENT
??_R0?AVbad_alloc@std@@@8 DD FLAT:??_7type_info@@6B@	; std::bad_alloc `RTTI Type Descriptor'
	DD	00H
	DB	'.?AVbad_alloc@std@@', 00H
data$r	ENDS
;	COMDAT __CT??_R0?AVbad_array_new_length@std@@@8??0bad_array_new_length@std@@QAE@ABV01@@Z12
xdata$x	SEGMENT
__CT??_R0?AVbad_array_new_length@std@@@8??0bad_array_new_length@std@@QAE@ABV01@@Z12 DD 00H
	DD	FLAT:??_R0?AVbad_array_new_length@std@@@8
	DD	00H
	DD	0ffffffffH
	ORG $+4
	DD	0cH
	DD	FLAT:??0bad_array_new_length@std@@QAE@ABV01@@Z
xdata$x	ENDS
;	COMDAT ??_R0?AVbad_array_new_length@std@@@8
data$r	SEGMENT
??_R0?AVbad_array_new_length@std@@@8 DD FLAT:??_7type_info@@6B@ ; std::bad_array_new_length `RTTI Type Descriptor'
	DD	00H
	DB	'.?AVbad_array_new_length@std@@', 00H
data$r	ENDS
;	COMDAT __CTA3?AVbad_array_new_length@std@@
xdata$x	SEGMENT
__CTA3?AVbad_array_new_length@std@@ DD 03H
	DD	FLAT:__CT??_R0?AVbad_array_new_length@std@@@8??0bad_array_new_length@std@@QAE@ABV01@@Z12
	DD	FLAT:__CT??_R0?AVbad_alloc@std@@@8??0bad_alloc@std@@QAE@ABV01@@Z12
	DD	FLAT:__CT??_R0?AVexception@std@@@8??0exception@std@@QAE@ABV01@@Z12
xdata$x	ENDS
;	COMDAT __TI3?AVbad_array_new_length@std@@
xdata$x	SEGMENT
__TI3?AVbad_array_new_length@std@@ DD 00H
	DD	FLAT:??1bad_array_new_length@std@@UAE@XZ
	DD	00H
	DD	FLAT:__CTA3?AVbad_array_new_length@std@@
xdata$x	ENDS
;	COMDAT ??_C@_0BF@KINCDENJ@bad?5array?5new?5length@
CONST	SEGMENT
??_C@_0BF@KINCDENJ@bad?5array?5new?5length@ DB 'bad array new length', 00H ; `string'
CONST	ENDS
;	COMDAT ??_7bad_array_new_length@std@@6B@
CONST	SEGMENT
??_7bad_array_new_length@std@@6B@ DD FLAT:??_R4bad_array_new_length@std@@6B@ ; std::bad_array_new_length::`vftable'
	DD	FLAT:??_Ebad_array_new_length@std@@UAEPAXI@Z
	DD	FLAT:?what@exception@std@@UBEPBDXZ
CONST	ENDS
;	COMDAT ??_7bad_alloc@std@@6B@
CONST	SEGMENT
??_7bad_alloc@std@@6B@ DD FLAT:??_R4bad_alloc@std@@6B@	; std::bad_alloc::`vftable'
	DD	FLAT:??_Ebad_alloc@std@@UAEPAXI@Z
	DD	FLAT:?what@exception@std@@UBEPBDXZ
CONST	ENDS
;	COMDAT ??_C@_0BC@EOODALEL@Unknown?5exception@
CONST	SEGMENT
??_C@_0BC@EOODALEL@Unknown?5exception@ DB 'Unknown exception', 00H ; `string'
CONST	ENDS
;	COMDAT ??_7exception@std@@6B@
CONST	SEGMENT
??_7exception@std@@6B@ DD FLAT:??_R4exception@std@@6B@	; std::exception::`vftable'
	DD	FLAT:??_Eexception@std@@UAEPAXI@Z
	DD	FLAT:?what@exception@std@@UBEPBDXZ
CONST	ENDS
;	COMDAT xdata$x
xdata$x	SEGMENT
__catchsym$??$_Emplace_reallocate@ABQAVCGraphicImageInstance@@@?$vector@PAVCGraphicImageInstance@@V?$allocator@PAVCGraphicImageInstance@@@std@@@std@@QAEPAPAVCGraphicImageInstance@@QAPAV2@ABQAV2@@Z$32 DD 040H
	DD	00H
	DD	00H
	DD	FLAT:__catch$??$_Emplace_reallocate@ABQAVCGraphicImageInstance@@@?$vector@PAVCGraphicImageInstance@@V?$allocator@PAVCGraphicImageInstance@@@std@@@std@@QAEPAPAVCGraphicImageInstance@@QAPAV2@ABQAV2@@Z$0
__unwindtable$??$_Emplace_reallocate@ABQAVCGraphicImageInstance@@@?$vector@PAVCGraphicImageInstance@@V?$allocator@PAVCGraphicImageInstance@@@std@@@std@@QAEPAPAVCGraphicImageInstance@@QAPAV2@ABQAV2@@Z DD 0ffffffffH
	DD	00H
	DD	0ffffffffH
	DD	00H
__tryblocktable$??$_Emplace_reallocate@ABQAVCGraphicImageInstance@@@?$vector@PAVCGraphicImageInstance@@V?$allocator@PAVCGraphicImageInstance@@@std@@@std@@QAEPAPAVCGraphicImageInstance@@QAPAV2@ABQAV2@@Z DD 00H
	DD	00H
	DD	01H
	DD	01H
	DD	FLAT:__catchsym$??$_Emplace_reallocate@ABQAVCGraphicImageInstance@@@?$vector@PAVCGraphicImageInstance@@V?$allocator@PAVCGraphicImageInstance@@@std@@@std@@QAEPAPAVCGraphicImageInstance@@QAPAV2@ABQAV2@@Z$32
__ehfuncinfo$??$_Emplace_reallocate@ABQAVCGraphicImageInstance@@@?$vector@PAVCGraphicImageInstance@@V?$allocator@PAVCGraphicImageInstance@@@std@@@std@@QAEPAPAVCGraphicImageInstance@@QAPAV2@ABQAV2@@Z DD 019930522H
	DD	02H
	DD	FLAT:__unwindtable$??$_Emplace_reallocate@ABQAVCGraphicImageInstance@@@?$vector@PAVCGraphicImageInstance@@V?$allocator@PAVCGraphicImageInstance@@@std@@@std@@QAEPAPAVCGraphicImageInstance@@QAPAV2@ABQAV2@@Z
	DD	01H
	DD	FLAT:__tryblocktable$??$_Emplace_reallocate@ABQAVCGraphicImageInstance@@@?$vector@PAVCGraphicImageInstance@@V?$allocator@PAVCGraphicImageInstance@@@std@@@std@@QAEPAPAVCGraphicImageInstance@@QAPAV2@ABQAV2@@Z
	DD	2 DUP(00H)
	DD	00H
	DD	01H
xdata$x	ENDS
;	COMDAT xdata$x
xdata$x	SEGMENT
__catchsym$?_Reallocate_exactly@?$vector@PAVCGraphicImageInstance@@V?$allocator@PAVCGraphicImageInstance@@@std@@@std@@AAEXI@Z$11 DD 040H
	DD	00H
	DD	00H
	DD	FLAT:__catch$?_Reallocate_exactly@?$vector@PAVCGraphicImageInstance@@V?$allocator@PAVCGraphicImageInstance@@@std@@@std@@AAEXI@Z$0
__unwindtable$?_Reallocate_exactly@?$vector@PAVCGraphicImageInstance@@V?$allocator@PAVCGraphicImageInstance@@@std@@@std@@AAEXI@Z DD 0ffffffffH
	DD	00H
	DD	0ffffffffH
	DD	00H
__tryblocktable$?_Reallocate_exactly@?$vector@PAVCGraphicImageInstance@@V?$allocator@PAVCGraphicImageInstance@@@std@@@std@@AAEXI@Z DD 00H
	DD	00H
	DD	01H
	DD	01H
	DD	FLAT:__catchsym$?_Reallocate_exactly@?$vector@PAVCGraphicImageInstance@@V?$allocator@PAVCGraphicImageInstance@@@std@@@std@@AAEXI@Z$11
__ehfuncinfo$?_Reallocate_exactly@?$vector@PAVCGraphicImageInstance@@V?$allocator@PAVCGraphicImageInstance@@@std@@@std@@AAEXI@Z DD 019930522H
	DD	02H
	DD	FLAT:__unwindtable$?_Reallocate_exactly@?$vector@PAVCGraphicImageInstance@@V?$allocator@PAVCGraphicImageInstance@@@std@@@std@@AAEXI@Z
	DD	01H
	DD	FLAT:__tryblocktable$?_Reallocate_exactly@?$vector@PAVCGraphicImageInstance@@V?$allocator@PAVCGraphicImageInstance@@@std@@@std@@AAEXI@Z
	DD	2 DUP(00H)
	DD	00H
	DD	01H
xdata$x	ENDS
;	COMDAT xdata$x
xdata$x	SEGMENT
__unwindtable$?Alloc@?$CDynamicPool@VCGraphicImageInstance@@@@QAEPAVCGraphicImageInstance@@XZ DD 0ffffffffH
	DD	FLAT:__unwindfunclet$?Alloc@?$CDynamicPool@VCGraphicImageInstance@@@@QAEPAVCGraphicImageInstance@@XZ$0
__ehfuncinfo$?Alloc@?$CDynamicPool@VCGraphicImageInstance@@@@QAEPAVCGraphicImageInstance@@XZ DD 019930522H
	DD	01H
	DD	FLAT:__unwindtable$?Alloc@?$CDynamicPool@VCGraphicImageInstance@@@@QAEPAVCGraphicImageInstance@@XZ
	DD	2 DUP(00H)
	DD	2 DUP(00H)
	DD	00H
	DD	01H
xdata$x	ENDS
;	COMDAT xdata$x
xdata$x	SEGMENT
__ehfuncinfo$??1?$CRef@VCGraphicImage@@@@QAE@XZ DD 019930522H
	DD	00H
	DD	00H
	DD	2 DUP(00H)
	DD	2 DUP(00H)
	DD	00H
	DD	05H
xdata$x	ENDS
;	COMDAT xdata$x
xdata$x	SEGMENT
__unwindtable$??1CGraphicImageInstance@@UAE@XZ DD 0ffffffffH
	DD	FLAT:___std_terminate
__ehfuncinfo$??1CGraphicImageInstance@@UAE@XZ DD 019930522H
	DD	01H
	DD	FLAT:__unwindtable$??1CGraphicImageInstance@@UAE@XZ
	DD	2 DUP(00H)
	DD	2 DUP(00H)
	DD	00H
	DD	05H
xdata$x	ENDS
;	COMDAT xdata$x
xdata$x	SEGMENT
__unwindtable$??0CGraphicImageInstance@@QAE@XZ DD 0ffffffffH
	DD	FLAT:__unwindfunclet$??0CGraphicImageInstance@@QAE@XZ$0
__ehfuncinfo$??0CGraphicImageInstance@@QAE@XZ DD 019930522H
	DD	01H
	DD	FLAT:__unwindtable$??0CGraphicImageInstance@@QAE@XZ
	DD	2 DUP(00H)
	DD	2 DUP(00H)
	DD	00H
	DD	01H
xdata$x	ENDS
;	COMDAT xdata$x
xdata$x	SEGMENT
__unwindtable$?Type@CGraphicImageInstance@@SAKXZ DD 0ffffffffH
	DD	FLAT:__unwindfunclet$?Type@CGraphicImageInstance@@SAKXZ$0
__ehfuncinfo$?Type@CGraphicImageInstance@@SAKXZ DD 019930522H
	DD	01H
	DD	FLAT:__unwindtable$?Type@CGraphicImageInstance@@SAKXZ
	DD	2 DUP(00H)
	DD	2 DUP(00H)
	DD	00H
	DD	01H
xdata$x	ENDS
;	COMDAT xdata$x
xdata$x	SEGMENT
__ehfuncinfo$??$_Deallocate@$07$0A@@std@@YAXPAXI@Z DD 019930522H
	DD	00H
	DD	00H
	DD	2 DUP(00H)
	DD	2 DUP(00H)
	DD	00H
	DD	05H
xdata$x	ENDS
; Function compile flags: /Odspy
; File C:\Program Files (x86)\Microsoft Visual Studio\2019\Community\VC\Tools\MSVC\14.28.29333\include\xutility
;	COMDAT ??$_Copy_memmove@PAPAVCGraphicImageInstance@@PAPAV1@@std@@YAPAPAVCGraphicImageInstance@@PAPAV1@00@Z
_TEXT	SEGMENT
__Last_ch$ = -16					; size = 4
__Count$ = -12						; size = 4
__Dest_ch$ = -8						; size = 4
__First_ch$ = -4					; size = 4
__First$ = 8						; size = 4
__Last$ = 12						; size = 4
__Dest$ = 16						; size = 4
??$_Copy_memmove@PAPAVCGraphicImageInstance@@PAPAV1@@std@@YAPAPAVCGraphicImageInstance@@PAPAV1@00@Z PROC ; std::_Copy_memmove<CGraphicImageInstance * *,CGraphicImageInstance * *>, COMDAT

; 4360 : _OutIt _Copy_memmove(_InIt _First, _InIt _Last, _OutIt _Dest) {

  00000	55		 push	 ebp
  00001	8b ec		 mov	 ebp, esp
  00003	83 ec 10	 sub	 esp, 16			; 00000010H

; 4361 :     const char* const _First_ch = const_cast<const char*>(reinterpret_cast<const volatile char*>(_First));

  00006	8b 45 08	 mov	 eax, DWORD PTR __First$[ebp]
  00009	89 45 fc	 mov	 DWORD PTR __First_ch$[ebp], eax

; 4362 :     const char* const _Last_ch  = const_cast<const char*>(reinterpret_cast<const volatile char*>(_Last));

  0000c	8b 45 0c	 mov	 eax, DWORD PTR __Last$[ebp]
  0000f	89 45 f0	 mov	 DWORD PTR __Last_ch$[ebp], eax

; 4363 :     char* const _Dest_ch        = const_cast<char*>(reinterpret_cast<volatile char*>(_Dest));

  00012	8b 45 10	 mov	 eax, DWORD PTR __Dest$[ebp]
  00015	89 45 f8	 mov	 DWORD PTR __Dest_ch$[ebp], eax

; 4364 :     const auto _Count           = static_cast<size_t>(_Last_ch - _First_ch);

  00018	8b 45 f0	 mov	 eax, DWORD PTR __Last_ch$[ebp]
  0001b	2b 45 fc	 sub	 eax, DWORD PTR __First_ch$[ebp]
  0001e	89 45 f4	 mov	 DWORD PTR __Count$[ebp], eax

; 4365 :     _CSTD memmove(_Dest_ch, _First_ch, _Count);

  00021	ff 75 f4	 push	 DWORD PTR __Count$[ebp]
  00024	ff 75 fc	 push	 DWORD PTR __First_ch$[ebp]
  00027	ff 75 f8	 push	 DWORD PTR __Dest_ch$[ebp]
  0002a	e8 00 00 00 00	 call	 _memmove
  0002f	83 c4 0c	 add	 esp, 12			; 0000000cH

; 4366 :     return reinterpret_cast<_OutIt>(_Dest_ch + _Count);

  00032	8b 45 f8	 mov	 eax, DWORD PTR __Dest_ch$[ebp]
  00035	03 45 f4	 add	 eax, DWORD PTR __Count$[ebp]

; 4367 : }

  00038	c9		 leave
  00039	c3		 ret	 0
??$_Copy_memmove@PAPAVCGraphicImageInstance@@PAPAV1@@std@@YAPAPAVCGraphicImageInstance@@PAPAV1@00@Z ENDP ; std::_Copy_memmove<CGraphicImageInstance * *,CGraphicImageInstance * *>
_TEXT	ENDS
; Function compile flags: /Odspy
; File C:\Program Files (x86)\Microsoft Visual Studio\2019\Community\VC\Tools\MSVC\14.28.29333\include\xmemory
; File C:\Program Files (x86)\Microsoft Visual Studio\2019\Community\VC\Tools\MSVC\14.28.29333\include\xstddef
; File C:\Program Files (x86)\Microsoft Visual Studio\2019\Community\VC\Tools\MSVC\14.28.29333\include\xmemory
;	COMDAT ??$_Uninitialized_move@PAPAVCGraphicImageInstance@@V?$allocator@PAVCGraphicImageInstance@@@std@@@std@@YAPAPAVCGraphicImageInstance@@QAPAV1@0PAPAV1@AAV?$allocator@PAVCGraphicImageInstance@@@0@@Z
_TEXT	SEGMENT
$T1 = -12						; size = 4
__UFirst$ = -8						; size = 4
__ULast$ = -4						; size = 4
__First$ = 8						; size = 4
__Last$ = 12						; size = 4
__Dest$ = 16						; size = 4
__Al$ = 20						; size = 4
??$_Uninitialized_move@PAPAVCGraphicImageInstance@@V?$allocator@PAVCGraphicImageInstance@@@std@@@std@@YAPAPAVCGraphicImageInstance@@QAPAV1@0PAPAV1@AAV?$allocator@PAVCGraphicImageInstance@@@0@@Z PROC ; std::_Uninitialized_move<CGraphicImageInstance * *,std::allocator<CGraphicImageInstance *> >, COMDAT

; 1685 :     const _InIt _First, const _InIt _Last, _Alloc_ptr_t<_Alloc> _Dest, _Alloc& _Al) {

  00000	55		 push	 ebp
  00001	8b ec		 mov	 ebp, esp
  00003	83 ec 0c	 sub	 esp, 12			; 0000000cH

; 1686 :     // move [_First, _Last) to raw _Dest, using _Al
; 1687 :     // note: only called internally from elsewhere in the STL
; 1688 :     using _Ptrval     = typename _Alloc::value_type*;
; 1689 :     auto _UFirst      = _Get_unwrapped(_First);

  00006	8b 45 08	 mov	 eax, DWORD PTR __First$[ebp]
  00009	89 45 f8	 mov	 DWORD PTR __UFirst$[ebp], eax

; 1690 :     const auto _ULast = _Get_unwrapped(_Last);

  0000c	8b 45 0c	 mov	 eax, DWORD PTR __Last$[ebp]
  0000f	89 45 fc	 mov	 DWORD PTR __ULast$[ebp], eax
; File C:\Program Files (x86)\Microsoft Visual Studio\2019\Community\VC\Tools\MSVC\14.28.29333\include\xstddef

; 289  :     return _Ptr;

  00012	8b 45 10	 mov	 eax, DWORD PTR __Dest$[ebp]
  00015	89 45 f4	 mov	 DWORD PTR $T1[ebp], eax
; File C:\Program Files (x86)\Microsoft Visual Studio\2019\Community\VC\Tools\MSVC\14.28.29333\include\xmemory

; 1693 :         _Copy_memmove(_UFirst, _ULast, _Unfancy(_Dest));

  00018	ff 75 f4	 push	 DWORD PTR $T1[ebp]
  0001b	ff 75 fc	 push	 DWORD PTR __ULast$[ebp]
  0001e	ff 75 f8	 push	 DWORD PTR __UFirst$[ebp]
  00021	e8 00 00 00 00	 call	 ??$_Copy_memmove@PAPAVCGraphicImageInstance@@PAPAV1@@std@@YAPAPAVCGraphicImageInstance@@PAPAV1@00@Z ; std::_Copy_memmove<CGraphicImageInstance * *,CGraphicImageInstance * *>
  00026	83 c4 0c	 add	 esp, 12			; 0000000cH

; 1694 :         return _Dest + (_ULast - _UFirst);

  00029	8b 45 fc	 mov	 eax, DWORD PTR __ULast$[ebp]
  0002c	2b 45 f8	 sub	 eax, DWORD PTR __UFirst$[ebp]
  0002f	c1 f8 02	 sar	 eax, 2
  00032	8b 4d 10	 mov	 ecx, DWORD PTR __Dest$[ebp]
  00035	8d 04 81	 lea	 eax, DWORD PTR [ecx+eax*4]

; 1695 :     } else {
; 1696 :         _Uninitialized_backout_al<_Alloc> _Backout{_Dest, _Al};
; 1697 :         for (; _UFirst != _ULast; ++_UFirst) {
; 1698 :             _Backout._Emplace_back(_STD move(*_UFirst));
; 1699 :         }
; 1700 : 
; 1701 :         return _Backout._Release();
; 1702 :     }
; 1703 : }

  00038	c9		 leave
  00039	c3		 ret	 0
??$_Uninitialized_move@PAPAVCGraphicImageInstance@@V?$allocator@PAVCGraphicImageInstance@@@std@@@std@@YAPAPAVCGraphicImageInstance@@QAPAV1@0PAPAV1@AAV?$allocator@PAVCGraphicImageInstance@@@0@@Z ENDP ; std::_Uninitialized_move<CGraphicImageInstance * *,std::allocator<CGraphicImageInstance *> >
_TEXT	ENDS
; Function compile flags: /Odspy
; File C:\Program Files (x86)\Microsoft Visual Studio\2019\Community\VC\Tools\MSVC\14.28.29333\include\xmemory
;	COMDAT ??$_Destroy_range@V?$allocator@PAVCGraphicImageInstance@@@std@@@std@@YAXPAPAVCGraphicImageInstance@@QAPAV1@AAV?$allocator@PAVCGraphicImageInstance@@@0@@Z
_TEXT	SEGMENT
__First$ = 8						; size = 4
__Last$ = 12						; size = 4
__Al$ = 16						; size = 4
??$_Destroy_range@V?$allocator@PAVCGraphicImageInstance@@@std@@@std@@YAXPAPAVCGraphicImageInstance@@QAPAV1@AAV?$allocator@PAVCGraphicImageInstance@@@0@@Z PROC ; std::_Destroy_range<std::allocator<CGraphicImageInstance *> >, COMDAT

; 962  :     _Alloc_ptr_t<_Alloc> _First, const _Alloc_ptr_t<_Alloc> _Last, _Alloc& _Al) noexcept {

  00000	55		 push	 ebp
  00001	8b ec		 mov	 ebp, esp

; 963  :     // note that this is an optimization for debug mode codegen; in release mode the BE removes all of this
; 964  :     using _Ty = typename _Alloc::value_type;
; 965  :     if _CONSTEXPR_IF (!conjunction_v<is_trivially_destructible<_Ty>, _Uses_default_destroy<_Alloc, _Ty*>>) {
; 966  :         for (; _First != _Last; ++_First) {
; 967  :             allocator_traits<_Alloc>::destroy(_Al, _Unfancy(_First));
; 968  :         }
; 969  :     }
; 970  : }

  00003	5d		 pop	 ebp
  00004	c3		 ret	 0
??$_Destroy_range@V?$allocator@PAVCGraphicImageInstance@@@std@@@std@@YAXPAPAVCGraphicImageInstance@@QAPAV1@AAV?$allocator@PAVCGraphicImageInstance@@@0@@Z ENDP ; std::_Destroy_range<std::allocator<CGraphicImageInstance *> >
_TEXT	ENDS
; Function compile flags: /Odspy
; File C:\Program Files (x86)\Microsoft Visual Studio\2019\Community\VC\Tools\MSVC\14.28.29333\include\vector
; File C:\Program Files (x86)\Microsoft Visual Studio\2019\Community\VC\Tools\MSVC\14.28.29333\include\xmemory
; File C:\Program Files (x86)\Microsoft Visual Studio\2019\Community\VC\Tools\MSVC\14.28.29333\include\vector
; File C:\Program Files (x86)\Microsoft Visual Studio\2019\Community\VC\Tools\MSVC\14.28.29333\include\xmemory
; File C:\Program Files (x86)\Microsoft Visual Studio\2019\Community\VC\Tools\MSVC\14.28.29333\include\vector
; File C:\Program Files (x86)\Microsoft Visual Studio\2019\Community\VC\Tools\MSVC\14.28.29333\include\xmemory
; File C:\Program Files (x86)\Microsoft Visual Studio\2019\Community\VC\Tools\MSVC\14.28.29333\include\limits
; File C:\Program Files (x86)\Microsoft Visual Studio\2019\Community\VC\Tools\MSVC\14.28.29333\include\vector
; File C:\Program Files (x86)\Microsoft Visual Studio\2019\Community\VC\Tools\MSVC\14.28.29333\include\utility
; File C:\Program Files (x86)\Microsoft Visual Studio\2019\Community\VC\Tools\MSVC\14.28.29333\include\vector
; File C:\Program Files (x86)\Microsoft Visual Studio\2019\Community\VC\Tools\MSVC\14.28.29333\include\xmemory
; File C:\Program Files (x86)\Microsoft Visual Studio\2019\Community\VC\Tools\MSVC\14.28.29333\include\vector
; File C:\Program Files (x86)\Microsoft Visual Studio\2019\Community\VC\Tools\MSVC\14.28.29333\include\type_traits
; File C:\Program Files (x86)\Microsoft Visual Studio\2019\Community\VC\Tools\MSVC\14.28.29333\include\vector
; File C:\Program Files (x86)\Microsoft Visual Studio\2019\Community\VC\Tools\MSVC\14.28.29333\include\xstddef
; File C:\Program Files (x86)\Microsoft Visual Studio\2019\Community\VC\Tools\MSVC\14.28.29333\include\vcruntime_new.h
; File C:\Program Files (x86)\Microsoft Visual Studio\2019\Community\VC\Tools\MSVC\14.28.29333\include\type_traits
; File C:\Program Files (x86)\Microsoft Visual Studio\2019\Community\VC\Tools\MSVC\14.28.29333\include\xmemory
; File C:\Program Files (x86)\Microsoft Visual Studio\2019\Community\VC\Tools\MSVC\14.28.29333\include\vector
; File C:\Program Files (x86)\Microsoft Visual Studio\2019\Community\VC\Tools\MSVC\14.28.29333\include\xmemory
; File C:\Program Files (x86)\Microsoft Visual Studio\2019\Community\VC\Tools\MSVC\14.28.29333\include\vector
; File C:\Program Files (x86)\Microsoft Visual Studio\2019\Community\VC\Tools\MSVC\14.28.29333\include\xmemory
; File C:\Program Files (x86)\Microsoft Visual Studio\2019\Community\VC\Tools\MSVC\14.28.29333\include\vector
; File C:\Program Files (x86)\Microsoft Visual Studio\2019\Community\VC\Tools\MSVC\14.28.29333\include\xmemory
; File C:\Program Files (x86)\Microsoft Visual Studio\2019\Community\VC\Tools\MSVC\14.28.29333\include\vector
;	COMDAT ??$_Emplace_reallocate@ABQAVCGraphicImageInstance@@@?$vector@PAVCGraphicImageInstance@@V?$allocator@PAVCGraphicImageInstance@@@std@@@std@@QAEPAPAVCGraphicImageInstance@@QAPAV2@ABQAV2@@Z
_TEXT	SEGMENT
__Max_possible$2 = -68					; size = 4
$T3 = -64						; size = 4
__Al$ = -60						; size = 4
__Last$ = -56						; size = 4
$T4 = -52						; size = 4
$T5 = -48						; size = 4
__First$ = -44						; size = 4
$T6 = -40						; size = 4
$T7 = -36						; size = 4
__First$ = -32						; size = 4
__Last$ = -28						; size = 4
$T8 = -24						; size = 4
$T9 = -20						; size = 4
__$EHRec$ = -16						; size = 16
$T10 = 0						; size = 4
$T11 = 4						; size = 4
$T12 = 8						; size = 4
$T13 = 12						; size = 4
$T14 = 16						; size = 4
$T15 = 20						; size = 4
$T16 = 24						; size = 4
$T17 = 28						; size = 4
$T18 = 32						; size = 4
$T19 = 36						; size = 4
$T20 = 40						; size = 4
__Newsize$ = 44						; size = 4
__Constructed_last$ = 48				; size = 4
__Oldsize$ = 52						; size = 4
tv172 = 56						; size = 4
$T21 = 60						; size = 4
$T22 = 64						; size = 4
__My_data$ = 68						; size = 4
__Constructed_first$ = 72				; size = 4
___formal$ = 76						; size = 1
__Overflow_is_possible$23 = 83				; size = 1
__Newcapacity$ = 84					; size = 4
__Mylast$ = 88						; size = 4
__Myfirst$ = 92						; size = 4
__Whereoff$ = 96					; size = 4
$T24 = 103						; size = 1
_this$ = 104						; size = 4
__Newvec$ = 108						; size = 4
__Whereptr$ = 120					; size = 4
_<_Val_0>$ = 124					; size = 4
??$_Emplace_reallocate@ABQAVCGraphicImageInstance@@@?$vector@PAVCGraphicImageInstance@@V?$allocator@PAVCGraphicImageInstance@@@std@@@std@@QAEPAPAVCGraphicImageInstance@@QAPAV2@ABQAV2@@Z PROC ; std::vector<CGraphicImageInstance *,std::allocator<CGraphicImageInstance *> >::_Emplace_reallocate<CGraphicImageInstance * const &>, COMDAT
; _this$ = ecx

; 725  :     pointer _Emplace_reallocate(const pointer _Whereptr, _Valty&&... _Val) {

  00000	55		 push	 ebp
  00001	8d 6c 24 90	 lea	 ebp, DWORD PTR [esp-112]
  00005	83 ec 70	 sub	 esp, 112		; 00000070H
  00008	6a ff		 push	 -1
  0000a	68 00 00 00 00	 push	 __ehhandler$??$_Emplace_reallocate@ABQAVCGraphicImageInstance@@@?$vector@PAVCGraphicImageInstance@@V?$allocator@PAVCGraphicImageInstance@@@std@@@std@@QAEPAPAVCGraphicImageInstance@@QAPAV2@ABQAV2@@Z
  0000f	64 a1 00 00 00
	00		 mov	 eax, DWORD PTR fs:0
  00015	50		 push	 eax
  00016	51		 push	 ecx
  00017	83 ec 34	 sub	 esp, 52			; 00000034H
  0001a	53		 push	 ebx
  0001b	56		 push	 esi
  0001c	57		 push	 edi
  0001d	a1 00 00 00 00	 mov	 eax, DWORD PTR ___security_cookie
  00022	33 c5		 xor	 eax, ebp
  00024	50		 push	 eax
  00025	8d 45 f4	 lea	 eax, DWORD PTR __$EHRec$[ebp+4]
  00028	64 a3 00 00 00
	00		 mov	 DWORD PTR fs:0, eax
  0002e	89 65 f0	 mov	 DWORD PTR __$EHRec$[ebp], esp
  00031	89 4d 68	 mov	 DWORD PTR _this$[ebp], ecx

; 1733 :         return _Mypair._Get_first();

  00034	8b 45 68	 mov	 eax, DWORD PTR _this$[ebp]
; File C:\Program Files (x86)\Microsoft Visual Studio\2019\Community\VC\Tools\MSVC\14.28.29333\include\xmemory

; 1347 :         return *this;

  00037	89 45 28	 mov	 DWORD PTR $T20[ebp], eax
; File C:\Program Files (x86)\Microsoft Visual Studio\2019\Community\VC\Tools\MSVC\14.28.29333\include\vector

; 1733 :         return _Mypair._Get_first();

  0003a	8b 45 28	 mov	 eax, DWORD PTR $T20[ebp]
  0003d	89 45 c4	 mov	 DWORD PTR __Al$[ebp], eax

; 726  :         // reallocate and insert by perfectly forwarding _Val at _Whereptr
; 727  :         _Alty& _Al        = _Getal();
; 728  :         auto& _My_data    = _Mypair._Myval2;

  00040	8b 45 68	 mov	 eax, DWORD PTR _this$[ebp]
  00043	89 45 44	 mov	 DWORD PTR __My_data$[ebp], eax

; 729  :         pointer& _Myfirst = _My_data._Myfirst;

  00046	8b 45 44	 mov	 eax, DWORD PTR __My_data$[ebp]
  00049	89 45 5c	 mov	 DWORD PTR __Myfirst$[ebp], eax

; 730  :         pointer& _Mylast  = _My_data._Mylast;

  0004c	8b 45 44	 mov	 eax, DWORD PTR __My_data$[ebp]
  0004f	83 c0 04	 add	 eax, 4
  00052	89 45 58	 mov	 DWORD PTR __Mylast$[ebp], eax

; 731  : 
; 732  :         _STL_INTERNAL_CHECK(_Mylast == _My_data._Myend); // check that we have no unused capacity
; 733  : 
; 734  :         const auto _Whereoff = static_cast<size_type>(_Whereptr - _Myfirst);

  00055	8b 45 5c	 mov	 eax, DWORD PTR __Myfirst$[ebp]
  00058	8b 4d 78	 mov	 ecx, DWORD PTR __Whereptr$[ebp]
  0005b	2b 08		 sub	 ecx, DWORD PTR [eax]
  0005d	c1 f9 02	 sar	 ecx, 2
  00060	89 4d 60	 mov	 DWORD PTR __Whereoff$[ebp], ecx

; 735  :         const auto _Oldsize  = static_cast<size_type>(_Mylast - _Myfirst);

  00063	8b 45 58	 mov	 eax, DWORD PTR __Mylast$[ebp]
  00066	8b 4d 5c	 mov	 ecx, DWORD PTR __Myfirst$[ebp]
  00069	8b 00		 mov	 eax, DWORD PTR [eax]
  0006b	2b 01		 sub	 eax, DWORD PTR [ecx]
  0006d	c1 f8 02	 sar	 eax, 2
  00070	89 45 34	 mov	 DWORD PTR __Oldsize$[ebp], eax

; 1737 :         return _Mypair._Get_first();

  00073	8b 45 68	 mov	 eax, DWORD PTR _this$[ebp]
; File C:\Program Files (x86)\Microsoft Visual Studio\2019\Community\VC\Tools\MSVC\14.28.29333\include\xmemory

; 1351 :         return *this;

  00076	89 45 24	 mov	 DWORD PTR $T19[ebp], eax
; File C:\Program Files (x86)\Microsoft Visual Studio\2019\Community\VC\Tools\MSVC\14.28.29333\include\vector

; 1737 :         return _Mypair._Get_first();

  00079	8b 45 24	 mov	 eax, DWORD PTR $T19[ebp]
  0007c	89 45 c0	 mov	 DWORD PTR $T3[ebp], eax
; File C:\Program Files (x86)\Microsoft Visual Studio\2019\Community\VC\Tools\MSVC\14.28.29333\include\xmemory

; 710  :         return static_cast<size_t>(-1) / sizeof(value_type);

  0007f	c7 45 40 ff ff
	ff 3f		 mov	 DWORD PTR $T22[ebp], 1073741823 ; 3fffffffH
; File C:\Program Files (x86)\Microsoft Visual Studio\2019\Community\VC\Tools\MSVC\14.28.29333\include\limits

; 557  :         return INT_MAX;

  00086	c7 45 20 ff ff
	ff 7f		 mov	 DWORD PTR $T18[ebp], 2147483647 ; 7fffffffH
; File C:\Program Files (x86)\Microsoft Visual Studio\2019\Community\VC\Tools\MSVC\14.28.29333\include\vector

; 1488 :         return (_STD min)(

  0008d	8b 45 20	 mov	 eax, DWORD PTR $T18[ebp]
  00090	89 45 3c	 mov	 DWORD PTR $T21[ebp], eax
; File C:\Program Files (x86)\Microsoft Visual Studio\2019\Community\VC\Tools\MSVC\14.28.29333\include\utility

; 68   :     return _Right < _Left ? _Right : _Left;

  00093	8b 45 40	 mov	 eax, DWORD PTR $T22[ebp]
  00096	3b 45 3c	 cmp	 eax, DWORD PTR $T21[ebp]
  00099	73 08		 jae	 SHORT $LN34@Emplace_re
  0009b	8d 45 40	 lea	 eax, DWORD PTR $T22[ebp]
  0009e	89 45 38	 mov	 DWORD PTR tv172[ebp], eax
  000a1	eb 06		 jmp	 SHORT $LN35@Emplace_re
$LN34@Emplace_re:
  000a3	8d 45 3c	 lea	 eax, DWORD PTR $T21[ebp]
  000a6	89 45 38	 mov	 DWORD PTR tv172[ebp], eax
$LN35@Emplace_re:
  000a9	8b 45 38	 mov	 eax, DWORD PTR tv172[ebp]
  000ac	89 45 1c	 mov	 DWORD PTR $T17[ebp], eax
  000af	8b 45 1c	 mov	 eax, DWORD PTR $T17[ebp]
  000b2	89 45 18	 mov	 DWORD PTR $T16[ebp], eax
; File C:\Program Files (x86)\Microsoft Visual Studio\2019\Community\VC\Tools\MSVC\14.28.29333\include\vector

; 1488 :         return (_STD min)(

  000b5	8b 45 18	 mov	 eax, DWORD PTR $T16[ebp]
  000b8	8b 00		 mov	 eax, DWORD PTR [eax]
  000ba	89 45 14	 mov	 DWORD PTR $T15[ebp], eax

; 736  : 
; 737  :         if (_Oldsize == max_size()) {

  000bd	8b 45 34	 mov	 eax, DWORD PTR __Oldsize$[ebp]
  000c0	3b 45 14	 cmp	 eax, DWORD PTR $T15[ebp]
  000c3	75 05		 jne	 SHORT $LN2@Emplace_re

; 738  :             _Xlength();

  000c5	e8 00 00 00 00	 call	 ?_Xlength@?$vector@PAVCGraphicImageInstance@@V?$allocator@PAVCGraphicImageInstance@@@std@@@std@@CAXXZ ; std::vector<CGraphicImageInstance *,std::allocator<CGraphicImageInstance *> >::_Xlength
$LN2@Emplace_re:

; 739  :         }
; 740  : 
; 741  :         const size_type _Newsize     = _Oldsize + 1;

  000ca	8b 45 34	 mov	 eax, DWORD PTR __Oldsize$[ebp]
  000cd	40		 inc	 eax
  000ce	89 45 2c	 mov	 DWORD PTR __Newsize$[ebp], eax

; 742  :         const size_type _Newcapacity = _Calculate_growth(_Newsize);

  000d1	ff 75 2c	 push	 DWORD PTR __Newsize$[ebp]
  000d4	8b 4d 68	 mov	 ecx, DWORD PTR _this$[ebp]
  000d7	e8 00 00 00 00	 call	 ?_Calculate_growth@?$vector@PAVCGraphicImageInstance@@V?$allocator@PAVCGraphicImageInstance@@@std@@@std@@ABEII@Z ; std::vector<CGraphicImageInstance *,std::allocator<CGraphicImageInstance *> >::_Calculate_growth
  000dc	89 45 54	 mov	 DWORD PTR __Newcapacity$[ebp], eax
; File C:\Program Files (x86)\Microsoft Visual Studio\2019\Community\VC\Tools\MSVC\14.28.29333\include\xmemory

; 56   :     constexpr bool _Overflow_is_possible = _Ty_size > 1;

  000df	c6 45 53 01	 mov	 BYTE PTR __Overflow_is_possible$23[ebp], 1

; 57   : 
; 58   :     if _CONSTEXPR_IF (_Overflow_is_possible) {
; 59   :         constexpr size_t _Max_possible = static_cast<size_t>(-1) / _Ty_size;

  000e3	c7 45 bc ff ff
	ff 3f		 mov	 DWORD PTR __Max_possible$2[ebp], 1073741823 ; 3fffffffH

; 60   :         if (_Count > _Max_possible) {

  000ea	81 7d 54 ff ff
	ff 3f		 cmp	 DWORD PTR __Newcapacity$[ebp], 1073741823 ; 3fffffffH
  000f1	76 05		 jbe	 SHORT $LN67@Emplace_re

; 61   :             _Throw_bad_array_new_length(); // multiply overflow

  000f3	e8 00 00 00 00	 call	 ?_Throw_bad_array_new_length@std@@YAXXZ ; std::_Throw_bad_array_new_length
$LN67@Emplace_re:

; 62   :         }
; 63   :     }
; 64   : 
; 65   :     return _Count * _Ty_size;

  000f8	8b 45 54	 mov	 eax, DWORD PTR __Newcapacity$[ebp]
  000fb	c1 e0 02	 shl	 eax, 2
  000fe	89 45 10	 mov	 DWORD PTR $T14[ebp], eax

; 814  :         return static_cast<_Ty*>(_Allocate<_New_alignof<_Ty>>(_Get_size_of_n<sizeof(_Ty)>(_Count)));

  00101	ff 75 10	 push	 DWORD PTR $T14[ebp]
  00104	e8 00 00 00 00	 call	 ??$_Allocate@$07U_Default_allocate_traits@std@@$0A@@std@@YAPAXI@Z ; std::_Allocate<8,std::_Default_allocate_traits,0>
  00109	59		 pop	 ecx
  0010a	89 45 6c	 mov	 DWORD PTR __Newvec$[ebp], eax
; File C:\Program Files (x86)\Microsoft Visual Studio\2019\Community\VC\Tools\MSVC\14.28.29333\include\vector

; 745  :         const pointer _Constructed_last = _Newvec + _Whereoff + 1;

  0010d	8b 45 60	 mov	 eax, DWORD PTR __Whereoff$[ebp]
  00110	8b 4d 6c	 mov	 ecx, DWORD PTR __Newvec$[ebp]
  00113	8d 44 81 04	 lea	 eax, DWORD PTR [ecx+eax*4+4]
  00117	89 45 30	 mov	 DWORD PTR __Constructed_last$[ebp], eax

; 746  :         pointer _Constructed_first      = _Constructed_last;

  0011a	8b 45 30	 mov	 eax, DWORD PTR __Constructed_last$[ebp]
  0011d	89 45 48	 mov	 DWORD PTR __Constructed_first$[ebp], eax

; 747  : 
; 748  :         _TRY_BEGIN

  00120	83 65 fc 00	 and	 DWORD PTR __$EHRec$[ebp+12], 0
; File C:\Program Files (x86)\Microsoft Visual Studio\2019\Community\VC\Tools\MSVC\14.28.29333\include\type_traits

; 1443 :     return static_cast<_Ty&&>(_Arg);

  00124	8b 45 7c	 mov	 eax, DWORD PTR _<_Val_0>$[ebp]
  00127	89 45 08	 mov	 DWORD PTR $T12[ebp], eax
; File C:\Program Files (x86)\Microsoft Visual Studio\2019\Community\VC\Tools\MSVC\14.28.29333\include\vector

; 749  :         _Alty_traits::construct(_Al, _Unfancy(_Newvec + _Whereoff), _STD forward<_Valty>(_Val)...);

  0012a	8b 45 60	 mov	 eax, DWORD PTR __Whereoff$[ebp]
  0012d	8b 4d 6c	 mov	 ecx, DWORD PTR __Newvec$[ebp]
  00130	8d 04 81	 lea	 eax, DWORD PTR [ecx+eax*4]
; File C:\Program Files (x86)\Microsoft Visual Studio\2019\Community\VC\Tools\MSVC\14.28.29333\include\xstddef

; 289  :     return _Ptr;

  00133	89 45 0c	 mov	 DWORD PTR $T13[ebp], eax
; File C:\Program Files (x86)\Microsoft Visual Studio\2019\Community\VC\Tools\MSVC\14.28.29333\include\vcruntime_new.h

; 169  :         return _Where;

  00136	8b 45 0c	 mov	 eax, DWORD PTR $T13[ebp]
  00139	89 45 04	 mov	 DWORD PTR $T11[ebp], eax
; File C:\Program Files (x86)\Microsoft Visual Studio\2019\Community\VC\Tools\MSVC\14.28.29333\include\type_traits

; 1443 :     return static_cast<_Ty&&>(_Arg);

  0013c	8b 45 08	 mov	 eax, DWORD PTR $T12[ebp]
  0013f	89 45 00	 mov	 DWORD PTR $T10[ebp], eax
; File C:\Program Files (x86)\Microsoft Visual Studio\2019\Community\VC\Tools\MSVC\14.28.29333\include\xmemory

; 701  :         ::new (const_cast<void*>(static_cast<const volatile void*>(_Ptr))) _Objty(_STD forward<_Types>(_Args)...);

  00142	8b 45 04	 mov	 eax, DWORD PTR $T11[ebp]
  00145	8b 4d 00	 mov	 ecx, DWORD PTR $T10[ebp]
  00148	8b 09		 mov	 ecx, DWORD PTR [ecx]
  0014a	89 08		 mov	 DWORD PTR [eax], ecx
; File C:\Program Files (x86)\Microsoft Visual Studio\2019\Community\VC\Tools\MSVC\14.28.29333\include\vector

; 750  :         _Constructed_first = _Newvec + _Whereoff;

  0014c	8b 45 60	 mov	 eax, DWORD PTR __Whereoff$[ebp]
  0014f	8b 4d 6c	 mov	 ecx, DWORD PTR __Newvec$[ebp]
  00152	8d 04 81	 lea	 eax, DWORD PTR [ecx+eax*4]
  00155	89 45 48	 mov	 DWORD PTR __Constructed_first$[ebp], eax

; 751  : 
; 752  :         if (_Whereptr == _Mylast) { // at back, provide strong guarantee

  00158	8b 45 58	 mov	 eax, DWORD PTR __Mylast$[ebp]
  0015b	8b 4d 78	 mov	 ecx, DWORD PTR __Whereptr$[ebp]
  0015e	3b 08		 cmp	 ecx, DWORD PTR [eax]
  00160	75 3d		 jne	 SHORT $LN4@Emplace_re

; 753  :             _Umove_if_noexcept(_Myfirst, _Mylast, _Newvec);

  00162	8b 45 58	 mov	 eax, DWORD PTR __Mylast$[ebp]
  00165	8b 00		 mov	 eax, DWORD PTR [eax]
  00167	89 45 e4	 mov	 DWORD PTR __Last$[ebp], eax
  0016a	8b 45 5c	 mov	 eax, DWORD PTR __Myfirst$[ebp]
  0016d	8b 00		 mov	 eax, DWORD PTR [eax]
  0016f	89 45 e0	 mov	 DWORD PTR __First$[ebp], eax

; 1607 :         _Umove_if_noexcept1(_First, _Last, _Dest,

  00172	33 c0		 xor	 eax, eax
  00174	88 45 67	 mov	 BYTE PTR $T24[ebp], al
  00177	8a 45 67	 mov	 al, BYTE PTR $T24[ebp]
  0017a	88 45 4c	 mov	 BYTE PTR ___formal$[ebp], al

; 1733 :         return _Mypair._Get_first();

  0017d	8b 45 68	 mov	 eax, DWORD PTR _this$[ebp]
; File C:\Program Files (x86)\Microsoft Visual Studio\2019\Community\VC\Tools\MSVC\14.28.29333\include\xmemory

; 1347 :         return *this;

  00180	89 45 ec	 mov	 DWORD PTR $T9[ebp], eax
; File C:\Program Files (x86)\Microsoft Visual Studio\2019\Community\VC\Tools\MSVC\14.28.29333\include\vector

; 1733 :         return _Mypair._Get_first();

  00183	8b 45 ec	 mov	 eax, DWORD PTR $T9[ebp]
  00186	89 45 e8	 mov	 DWORD PTR $T8[ebp], eax

; 1597 :         _Uninitialized_move(_First, _Last, _Dest, _Getal());

  00189	ff 75 e8	 push	 DWORD PTR $T8[ebp]
  0018c	ff 75 6c	 push	 DWORD PTR __Newvec$[ebp]
  0018f	ff 75 e4	 push	 DWORD PTR __Last$[ebp]
  00192	ff 75 e0	 push	 DWORD PTR __First$[ebp]
  00195	e8 00 00 00 00	 call	 ??$_Uninitialized_move@PAPAVCGraphicImageInstance@@V?$allocator@PAVCGraphicImageInstance@@@std@@@std@@YAPAPAVCGraphicImageInstance@@QAPAV1@0PAPAV1@AAV?$allocator@PAVCGraphicImageInstance@@@0@@Z ; std::_Uninitialized_move<CGraphicImageInstance * *,std::allocator<CGraphicImageInstance *> >
  0019a	83 c4 10	 add	 esp, 16			; 00000010H

; 754  :         } else { // provide basic guarantee

  0019d	eb 5e		 jmp	 SHORT $LN5@Emplace_re
$LN4@Emplace_re:

; 755  :             _Umove(_Myfirst, _Whereptr, _Newvec);

  0019f	8b 45 5c	 mov	 eax, DWORD PTR __Myfirst$[ebp]
  001a2	8b 00		 mov	 eax, DWORD PTR [eax]
  001a4	89 45 d4	 mov	 DWORD PTR __First$[ebp], eax

; 1733 :         return _Mypair._Get_first();

  001a7	8b 45 68	 mov	 eax, DWORD PTR _this$[ebp]
; File C:\Program Files (x86)\Microsoft Visual Studio\2019\Community\VC\Tools\MSVC\14.28.29333\include\xmemory

; 1347 :         return *this;

  001aa	89 45 dc	 mov	 DWORD PTR $T7[ebp], eax
; File C:\Program Files (x86)\Microsoft Visual Studio\2019\Community\VC\Tools\MSVC\14.28.29333\include\vector

; 1733 :         return _Mypair._Get_first();

  001ad	8b 45 dc	 mov	 eax, DWORD PTR $T7[ebp]
  001b0	89 45 d8	 mov	 DWORD PTR $T6[ebp], eax

; 1592 :         return _Uninitialized_move(_First, _Last, _Dest, _Getal());

  001b3	ff 75 d8	 push	 DWORD PTR $T6[ebp]
  001b6	ff 75 6c	 push	 DWORD PTR __Newvec$[ebp]
  001b9	ff 75 78	 push	 DWORD PTR __Whereptr$[ebp]
  001bc	ff 75 d4	 push	 DWORD PTR __First$[ebp]
  001bf	e8 00 00 00 00	 call	 ??$_Uninitialized_move@PAPAVCGraphicImageInstance@@V?$allocator@PAVCGraphicImageInstance@@@std@@@std@@YAPAPAVCGraphicImageInstance@@QAPAV1@0PAPAV1@AAV?$allocator@PAVCGraphicImageInstance@@@0@@Z ; std::_Uninitialized_move<CGraphicImageInstance * *,std::allocator<CGraphicImageInstance *> >
  001c4	83 c4 10	 add	 esp, 16			; 00000010H

; 756  :             _Constructed_first = _Newvec;

  001c7	8b 45 6c	 mov	 eax, DWORD PTR __Newvec$[ebp]
  001ca	89 45 48	 mov	 DWORD PTR __Constructed_first$[ebp], eax

; 757  :             _Umove(_Whereptr, _Mylast, _Newvec + _Whereoff + 1);

  001cd	8b 45 58	 mov	 eax, DWORD PTR __Mylast$[ebp]
  001d0	8b 00		 mov	 eax, DWORD PTR [eax]
  001d2	89 45 c8	 mov	 DWORD PTR __Last$[ebp], eax

; 1733 :         return _Mypair._Get_first();

  001d5	8b 45 68	 mov	 eax, DWORD PTR _this$[ebp]
; File C:\Program Files (x86)\Microsoft Visual Studio\2019\Community\VC\Tools\MSVC\14.28.29333\include\xmemory

; 1347 :         return *this;

  001d8	89 45 d0	 mov	 DWORD PTR $T5[ebp], eax
; File C:\Program Files (x86)\Microsoft Visual Studio\2019\Community\VC\Tools\MSVC\14.28.29333\include\vector

; 1733 :         return _Mypair._Get_first();

  001db	8b 45 d0	 mov	 eax, DWORD PTR $T5[ebp]
  001de	89 45 cc	 mov	 DWORD PTR $T4[ebp], eax

; 1592 :         return _Uninitialized_move(_First, _Last, _Dest, _Getal());

  001e1	ff 75 cc	 push	 DWORD PTR $T4[ebp]

; 757  :             _Umove(_Whereptr, _Mylast, _Newvec + _Whereoff + 1);

  001e4	8b 45 60	 mov	 eax, DWORD PTR __Whereoff$[ebp]
  001e7	8b 4d 6c	 mov	 ecx, DWORD PTR __Newvec$[ebp]
  001ea	8d 44 81 04	 lea	 eax, DWORD PTR [ecx+eax*4+4]

; 1592 :         return _Uninitialized_move(_First, _Last, _Dest, _Getal());

  001ee	50		 push	 eax
  001ef	ff 75 c8	 push	 DWORD PTR __Last$[ebp]
  001f2	ff 75 78	 push	 DWORD PTR __Whereptr$[ebp]
  001f5	e8 00 00 00 00	 call	 ??$_Uninitialized_move@PAPAVCGraphicImageInstance@@V?$allocator@PAVCGraphicImageInstance@@@std@@@std@@YAPAPAVCGraphicImageInstance@@QAPAV1@0PAPAV1@AAV?$allocator@PAVCGraphicImageInstance@@@0@@Z ; std::_Uninitialized_move<CGraphicImageInstance * *,std::allocator<CGraphicImageInstance *> >
  001fa	83 c4 10	 add	 esp, 16			; 00000010H
$LN5@Emplace_re:

; 757  :             _Umove(_Whereptr, _Mylast, _Newvec + _Whereoff + 1);

  001fd	eb 2b		 jmp	 SHORT $LN7@Emplace_re
__catch$??$_Emplace_reallocate@ABQAVCGraphicImageInstance@@@?$vector@PAVCGraphicImageInstance@@V?$allocator@PAVCGraphicImageInstance@@@std@@@std@@QAEPAPAVCGraphicImageInstance@@QAPAV2@ABQAV2@@Z$0:

; 758  :         }
; 759  :         _CATCH_ALL
; 760  :         _Destroy(_Constructed_first, _Constructed_last);

  001ff	ff 75 30	 push	 DWORD PTR __Constructed_last$[ebp]
  00202	ff 75 48	 push	 DWORD PTR __Constructed_first$[ebp]
  00205	8b 4d 68	 mov	 ecx, DWORD PTR _this$[ebp]
  00208	e8 00 00 00 00	 call	 ?_Destroy@?$vector@PAVCGraphicImageInstance@@V?$allocator@PAVCGraphicImageInstance@@@std@@@std@@AAEXPAPAVCGraphicImageInstance@@0@Z ; std::vector<CGraphicImageInstance *,std::allocator<CGraphicImageInstance *> >::_Destroy

; 761  :         _Al.deallocate(_Newvec, _Newcapacity);

  0020d	ff 75 54	 push	 DWORD PTR __Newcapacity$[ebp]
  00210	ff 75 6c	 push	 DWORD PTR __Newvec$[ebp]
  00213	8b 4d c4	 mov	 ecx, DWORD PTR __Al$[ebp]
  00216	e8 00 00 00 00	 call	 ?deallocate@?$allocator@PAVCGraphicImageInstance@@@std@@QAEXQAPAVCGraphicImageInstance@@I@Z ; std::allocator<CGraphicImageInstance *>::deallocate

; 762  :         _RERAISE;

  0021b	6a 00		 push	 0
  0021d	6a 00		 push	 0
  0021f	e8 00 00 00 00	 call	 __CxxThrowException@8

; 763  :         _CATCH_END

  00224	b8 00 00 00 00	 mov	 eax, $LN10@Emplace_re
  00229	c3		 ret	 0
$LN7@Emplace_re:
  0022a	83 4d fc ff	 or	 DWORD PTR __$EHRec$[ebp+12], -1
  0022e	eb 04		 jmp	 SHORT __tryend$??$_Emplace_reallocate@ABQAVCGraphicImageInstance@@@?$vector@PAVCGraphicImageInstance@@V?$allocator@PAVCGraphicImageInstance@@@std@@@std@@QAEPAPAVCGraphicImageInstance@@QAPAV2@ABQAV2@@Z$1
$LN10@Emplace_re:
; File C:\Program Files (x86)\Microsoft Visual Studio\2019\Community\VC\Tools\MSVC\14.28.29333\include\xmemory
  00230	83 4d fc ff	 or	 DWORD PTR __$EHRec$[ebp+12], -1
__tryend$??$_Emplace_reallocate@ABQAVCGraphicImageInstance@@@?$vector@PAVCGraphicImageInstance@@V?$allocator@PAVCGraphicImageInstance@@@std@@@std@@QAEPAPAVCGraphicImageInstance@@QAPAV2@ABQAV2@@Z$1:
; File C:\Program Files (x86)\Microsoft Visual Studio\2019\Community\VC\Tools\MSVC\14.28.29333\include\vector

; 764  : 
; 765  :         _Change_array(_Newvec, _Newsize, _Newcapacity);

  00234	ff 75 54	 push	 DWORD PTR __Newcapacity$[ebp]
  00237	ff 75 2c	 push	 DWORD PTR __Newsize$[ebp]
  0023a	ff 75 6c	 push	 DWORD PTR __Newvec$[ebp]
  0023d	8b 4d 68	 mov	 ecx, DWORD PTR _this$[ebp]
  00240	e8 00 00 00 00	 call	 ?_Change_array@?$vector@PAVCGraphicImageInstance@@V?$allocator@PAVCGraphicImageInstance@@@std@@@std@@AAEXQAPAVCGraphicImageInstance@@II@Z ; std::vector<CGraphicImageInstance *,std::allocator<CGraphicImageInstance *> >::_Change_array

; 766  :         return _Newvec + _Whereoff;

  00245	8b 45 60	 mov	 eax, DWORD PTR __Whereoff$[ebp]
  00248	8b 4d 6c	 mov	 ecx, DWORD PTR __Newvec$[ebp]
  0024b	8d 04 81	 lea	 eax, DWORD PTR [ecx+eax*4]
$LN70@Emplace_re:

; 767  :     }

  0024e	8b 4d f4	 mov	 ecx, DWORD PTR __$EHRec$[ebp+4]
  00251	64 89 0d 00 00
	00 00		 mov	 DWORD PTR fs:0, ecx
  00258	59		 pop	 ecx
  00259	5f		 pop	 edi
  0025a	5e		 pop	 esi
  0025b	5b		 pop	 ebx
  0025c	83 c5 70	 add	 ebp, 112		; 00000070H
  0025f	c9		 leave
  00260	c2 08 00	 ret	 8
  00263	cc		 int	 3
  00264	cc		 int	 3
  00265	cc		 int	 3
  00266	cc		 int	 3
  00267	cc		 int	 3
_TEXT	ENDS
;	COMDAT text$x
text$x	SEGMENT
__ehhandler$??$_Emplace_reallocate@ABQAVCGraphicImageInstance@@@?$vector@PAVCGraphicImageInstance@@V?$allocator@PAVCGraphicImageInstance@@@std@@@std@@QAEPAPAVCGraphicImageInstance@@QAPAV2@ABQAV2@@Z:
  00000	90		 npad	 1
  00001	90		 npad	 1
  00002	8b 54 24 08	 mov	 edx, DWORD PTR [esp+8]
  00006	8d 42 0c	 lea	 eax, DWORD PTR [edx+12]
  00009	8b 4a b8	 mov	 ecx, DWORD PTR [edx-72]
  0000c	33 c8		 xor	 ecx, eax
  0000e	e8 00 00 00 00	 call	 @__security_check_cookie@4
  00013	b8 00 00 00 00	 mov	 eax, OFFSET __ehfuncinfo$??$_Emplace_reallocate@ABQAVCGraphicImageInstance@@@?$vector@PAVCGraphicImageInstance@@V?$allocator@PAVCGraphicImageInstance@@@std@@@std@@QAEPAPAVCGraphicImageInstance@@QAPAV2@ABQAV2@@Z
  00018	e9 00 00 00 00	 jmp	 ___CxxFrameHandler3
text$x	ENDS
??$_Emplace_reallocate@ABQAVCGraphicImageInstance@@@?$vector@PAVCGraphicImageInstance@@V?$allocator@PAVCGraphicImageInstance@@@std@@@std@@QAEPAPAVCGraphicImageInstance@@QAPAV2@ABQAV2@@Z ENDP ; std::vector<CGraphicImageInstance *,std::allocator<CGraphicImageInstance *> >::_Emplace_reallocate<CGraphicImageInstance * const &>
; Function compile flags: /Odspy
; File C:\Program Files (x86)\Microsoft Visual Studio\2019\Community\VC\Tools\MSVC\14.28.29333\include\vector
; File C:\Program Files (x86)\Microsoft Visual Studio\2019\Community\VC\Tools\MSVC\14.28.29333\include\type_traits
; File C:\Program Files (x86)\Microsoft Visual Studio\2019\Community\VC\Tools\MSVC\14.28.29333\include\vector
; File C:\Program Files (x86)\Microsoft Visual Studio\2019\Community\VC\Tools\MSVC\14.28.29333\include\xstddef
; File C:\Program Files (x86)\Microsoft Visual Studio\2019\Community\VC\Tools\MSVC\14.28.29333\include\vector
; File C:\Program Files (x86)\Microsoft Visual Studio\2019\Community\VC\Tools\MSVC\14.28.29333\include\xmemory
; File C:\Program Files (x86)\Microsoft Visual Studio\2019\Community\VC\Tools\MSVC\14.28.29333\include\vector
; File C:\Program Files (x86)\Microsoft Visual Studio\2019\Community\VC\Tools\MSVC\14.28.29333\include\vcruntime_new.h
; File C:\Program Files (x86)\Microsoft Visual Studio\2019\Community\VC\Tools\MSVC\14.28.29333\include\type_traits
; File C:\Program Files (x86)\Microsoft Visual Studio\2019\Community\VC\Tools\MSVC\14.28.29333\include\xmemory
; File C:\Program Files (x86)\Microsoft Visual Studio\2019\Community\VC\Tools\MSVC\14.28.29333\include\vector
;	COMDAT ??$_Emplace_back_with_unused_capacity@ABQAVCGraphicImageInstance@@@?$vector@PAVCGraphicImageInstance@@V?$allocator@PAVCGraphicImageInstance@@@std@@@std@@AAEXABQAVCGraphicImageInstance@@@Z
_TEXT	SEGMENT
__Result$ = -44						; size = 4
$T1 = -40						; size = 4
$T2 = -36						; size = 4
$T3 = -32						; size = 4
$T4 = -28						; size = 4
$T5 = -24						; size = 4
$T6 = -20						; size = 4
__Ptr$ = -16						; size = 4
__My_data$ = -12					; size = 4
_this$ = -8						; size = 4
__Mylast$ = -4						; size = 4
_<_Val_0>$ = 8						; size = 4
??$_Emplace_back_with_unused_capacity@ABQAVCGraphicImageInstance@@@?$vector@PAVCGraphicImageInstance@@V?$allocator@PAVCGraphicImageInstance@@@std@@@std@@AAEXABQAVCGraphicImageInstance@@@Z PROC ; std::vector<CGraphicImageInstance *,std::allocator<CGraphicImageInstance *> >::_Emplace_back_with_unused_capacity<CGraphicImageInstance * const &>, COMDAT
; _this$ = ecx

; 682  :     decltype(auto) _Emplace_back_with_unused_capacity(_Valty&&... _Val) {

  00000	55		 push	 ebp
  00001	8b ec		 mov	 ebp, esp
  00003	83 ec 2c	 sub	 esp, 44			; 0000002cH
  00006	89 4d f8	 mov	 DWORD PTR _this$[ebp], ecx

; 683  :         // insert by perfectly forwarding into element at end, provide strong guarantee
; 684  :         auto& _My_data   = _Mypair._Myval2;

  00009	8b 45 f8	 mov	 eax, DWORD PTR _this$[ebp]
  0000c	89 45 f4	 mov	 DWORD PTR __My_data$[ebp], eax

; 685  :         pointer& _Mylast = _My_data._Mylast;

  0000f	8b 45 f4	 mov	 eax, DWORD PTR __My_data$[ebp]
  00012	83 c0 04	 add	 eax, 4
  00015	89 45 fc	 mov	 DWORD PTR __Mylast$[ebp], eax
; File C:\Program Files (x86)\Microsoft Visual Studio\2019\Community\VC\Tools\MSVC\14.28.29333\include\type_traits

; 1443 :     return static_cast<_Ty&&>(_Arg);

  00018	8b 45 08	 mov	 eax, DWORD PTR _<_Val_0>$[ebp]
  0001b	89 45 e4	 mov	 DWORD PTR $T4[ebp], eax
; File C:\Program Files (x86)\Microsoft Visual Studio\2019\Community\VC\Tools\MSVC\14.28.29333\include\vector

; 687  :         _Alty_traits::construct(_Getal(), _Unfancy(_Mylast), _STD forward<_Valty>(_Val)...);

  0001e	8b 45 fc	 mov	 eax, DWORD PTR __Mylast$[ebp]
  00021	8b 00		 mov	 eax, DWORD PTR [eax]
  00023	89 45 f0	 mov	 DWORD PTR __Ptr$[ebp], eax
; File C:\Program Files (x86)\Microsoft Visual Studio\2019\Community\VC\Tools\MSVC\14.28.29333\include\xstddef

; 289  :     return _Ptr;

  00026	8b 45 f0	 mov	 eax, DWORD PTR __Ptr$[ebp]
  00029	89 45 e8	 mov	 DWORD PTR $T5[ebp], eax
; File C:\Program Files (x86)\Microsoft Visual Studio\2019\Community\VC\Tools\MSVC\14.28.29333\include\vector

; 1733 :         return _Mypair._Get_first();

  0002c	8b 45 f8	 mov	 eax, DWORD PTR _this$[ebp]
; File C:\Program Files (x86)\Microsoft Visual Studio\2019\Community\VC\Tools\MSVC\14.28.29333\include\xmemory

; 1347 :         return *this;

  0002f	89 45 ec	 mov	 DWORD PTR $T6[ebp], eax
; File C:\Program Files (x86)\Microsoft Visual Studio\2019\Community\VC\Tools\MSVC\14.28.29333\include\vector

; 1733 :         return _Mypair._Get_first();

  00032	8b 45 ec	 mov	 eax, DWORD PTR $T6[ebp]
  00035	89 45 d8	 mov	 DWORD PTR $T1[ebp], eax
; File C:\Program Files (x86)\Microsoft Visual Studio\2019\Community\VC\Tools\MSVC\14.28.29333\include\vcruntime_new.h

; 169  :         return _Where;

  00038	8b 45 e8	 mov	 eax, DWORD PTR $T5[ebp]
  0003b	89 45 e0	 mov	 DWORD PTR $T3[ebp], eax
; File C:\Program Files (x86)\Microsoft Visual Studio\2019\Community\VC\Tools\MSVC\14.28.29333\include\type_traits

; 1443 :     return static_cast<_Ty&&>(_Arg);

  0003e	8b 45 e4	 mov	 eax, DWORD PTR $T4[ebp]
  00041	89 45 dc	 mov	 DWORD PTR $T2[ebp], eax
; File C:\Program Files (x86)\Microsoft Visual Studio\2019\Community\VC\Tools\MSVC\14.28.29333\include\xmemory

; 701  :         ::new (const_cast<void*>(static_cast<const volatile void*>(_Ptr))) _Objty(_STD forward<_Types>(_Args)...);

  00044	8b 45 e0	 mov	 eax, DWORD PTR $T3[ebp]
  00047	8b 4d dc	 mov	 ecx, DWORD PTR $T2[ebp]
  0004a	8b 09		 mov	 ecx, DWORD PTR [ecx]
  0004c	89 08		 mov	 DWORD PTR [eax], ecx
; File C:\Program Files (x86)\Microsoft Visual Studio\2019\Community\VC\Tools\MSVC\14.28.29333\include\vector

; 689  :         _Ty& _Result = *_Mylast;

  0004e	8b 45 fc	 mov	 eax, DWORD PTR __Mylast$[ebp]
  00051	8b 00		 mov	 eax, DWORD PTR [eax]
  00053	89 45 d4	 mov	 DWORD PTR __Result$[ebp], eax

; 690  :         ++_Mylast;

  00056	8b 45 fc	 mov	 eax, DWORD PTR __Mylast$[ebp]
  00059	8b 00		 mov	 eax, DWORD PTR [eax]
  0005b	83 c0 04	 add	 eax, 4
  0005e	8b 4d fc	 mov	 ecx, DWORD PTR __Mylast$[ebp]
  00061	89 01		 mov	 DWORD PTR [ecx], eax

; 691  : #if _HAS_CXX17
; 692  :         return _Result;
; 693  : #else // ^^^ _HAS_CXX17 ^^^ // vvv !_HAS_CXX17 vvv
; 694  :         (void) _Result;
; 695  : #endif // _HAS_CXX17
; 696  :     }

  00063	c9		 leave
  00064	c2 04 00	 ret	 4
??$_Emplace_back_with_unused_capacity@ABQAVCGraphicImageInstance@@@?$vector@PAVCGraphicImageInstance@@V?$allocator@PAVCGraphicImageInstance@@@std@@@std@@AAEXABQAVCGraphicImageInstance@@@Z ENDP ; std::vector<CGraphicImageInstance *,std::allocator<CGraphicImageInstance *> >::_Emplace_back_with_unused_capacity<CGraphicImageInstance * const &>
_TEXT	ENDS
; Function compile flags: /Odspy
; File C:\Program Files (x86)\Microsoft Visual Studio\2019\Community\VC\Tools\MSVC\14.28.29333\include\vector
; File C:\Program Files (x86)\Microsoft Visual Studio\2019\Community\VC\Tools\MSVC\14.28.29333\include\type_traits
; File C:\Program Files (x86)\Microsoft Visual Studio\2019\Community\VC\Tools\MSVC\14.28.29333\include\vector
; File C:\Program Files (x86)\Microsoft Visual Studio\2019\Community\VC\Tools\MSVC\14.28.29333\include\type_traits
; File C:\Program Files (x86)\Microsoft Visual Studio\2019\Community\VC\Tools\MSVC\14.28.29333\include\vector
;	COMDAT ??$emplace_back@ABQAVCGraphicImageInstance@@@?$vector@PAVCGraphicImageInstance@@V?$allocator@PAVCGraphicImageInstance@@@std@@@std@@QAEXABQAVCGraphicImageInstance@@@Z
_TEXT	SEGMENT
__Result$ = -24						; size = 4
$T1 = -20						; size = 4
$T2 = -16						; size = 4
__Mylast$ = -12						; size = 4
__My_data$ = -8						; size = 4
_this$ = -4						; size = 4
_<_Val_0>$ = 8						; size = 4
??$emplace_back@ABQAVCGraphicImageInstance@@@?$vector@PAVCGraphicImageInstance@@V?$allocator@PAVCGraphicImageInstance@@@std@@@std@@QAEXABQAVCGraphicImageInstance@@@Z PROC ; std::vector<CGraphicImageInstance *,std::allocator<CGraphicImageInstance *> >::emplace_back<CGraphicImageInstance * const &>, COMDAT
; _this$ = ecx

; 700  :     decltype(auto) emplace_back(_Valty&&... _Val) {

  00000	55		 push	 ebp
  00001	8b ec		 mov	 ebp, esp
  00003	83 ec 18	 sub	 esp, 24			; 00000018H
  00006	89 4d fc	 mov	 DWORD PTR _this$[ebp], ecx

; 701  :         // insert by perfectly forwarding into element at end, provide strong guarantee
; 702  :         auto& _My_data   = _Mypair._Myval2;

  00009	8b 45 fc	 mov	 eax, DWORD PTR _this$[ebp]
  0000c	89 45 f8	 mov	 DWORD PTR __My_data$[ebp], eax

; 703  :         pointer& _Mylast = _My_data._Mylast;

  0000f	8b 45 f8	 mov	 eax, DWORD PTR __My_data$[ebp]
  00012	83 c0 04	 add	 eax, 4
  00015	89 45 f4	 mov	 DWORD PTR __Mylast$[ebp], eax

; 704  :         if (_Mylast != _My_data._Myend) {

  00018	8b 45 f4	 mov	 eax, DWORD PTR __Mylast$[ebp]
  0001b	8b 4d f8	 mov	 ecx, DWORD PTR __My_data$[ebp]
  0001e	8b 00		 mov	 eax, DWORD PTR [eax]
  00020	3b 41 08	 cmp	 eax, DWORD PTR [ecx+8]
  00023	74 13		 je	 SHORT $LN2@emplace_ba
; File C:\Program Files (x86)\Microsoft Visual Studio\2019\Community\VC\Tools\MSVC\14.28.29333\include\type_traits

; 1443 :     return static_cast<_Ty&&>(_Arg);

  00025	8b 45 08	 mov	 eax, DWORD PTR _<_Val_0>$[ebp]
  00028	89 45 f0	 mov	 DWORD PTR $T2[ebp], eax
; File C:\Program Files (x86)\Microsoft Visual Studio\2019\Community\VC\Tools\MSVC\14.28.29333\include\vector

; 705  :             return _Emplace_back_with_unused_capacity(_STD forward<_Valty>(_Val)...);

  0002b	ff 75 f0	 push	 DWORD PTR $T2[ebp]
  0002e	8b 4d fc	 mov	 ecx, DWORD PTR _this$[ebp]
  00031	e8 00 00 00 00	 call	 ??$_Emplace_back_with_unused_capacity@ABQAVCGraphicImageInstance@@@?$vector@PAVCGraphicImageInstance@@V?$allocator@PAVCGraphicImageInstance@@@std@@@std@@AAEXABQAVCGraphicImageInstance@@@Z ; std::vector<CGraphicImageInstance *,std::allocator<CGraphicImageInstance *> >::_Emplace_back_with_unused_capacity<CGraphicImageInstance * const &>
  00036	eb 19		 jmp	 SHORT $LN1@emplace_ba
$LN2@emplace_ba:
; File C:\Program Files (x86)\Microsoft Visual Studio\2019\Community\VC\Tools\MSVC\14.28.29333\include\type_traits

; 1443 :     return static_cast<_Ty&&>(_Arg);

  00038	8b 45 08	 mov	 eax, DWORD PTR _<_Val_0>$[ebp]
  0003b	89 45 ec	 mov	 DWORD PTR $T1[ebp], eax
; File C:\Program Files (x86)\Microsoft Visual Studio\2019\Community\VC\Tools\MSVC\14.28.29333\include\vector

; 708  :         _Ty& _Result = *_Emplace_reallocate(_Mylast, _STD forward<_Valty>(_Val)...);

  0003e	ff 75 ec	 push	 DWORD PTR $T1[ebp]
  00041	8b 45 f4	 mov	 eax, DWORD PTR __Mylast$[ebp]
  00044	ff 30		 push	 DWORD PTR [eax]
  00046	8b 4d fc	 mov	 ecx, DWORD PTR _this$[ebp]
  00049	e8 00 00 00 00	 call	 ??$_Emplace_reallocate@ABQAVCGraphicImageInstance@@@?$vector@PAVCGraphicImageInstance@@V?$allocator@PAVCGraphicImageInstance@@@std@@@std@@QAEPAPAVCGraphicImageInstance@@QAPAV2@ABQAV2@@Z ; std::vector<CGraphicImageInstance *,std::allocator<CGraphicImageInstance *> >::_Emplace_reallocate<CGraphicImageInstance * const &>
  0004e	89 45 e8	 mov	 DWORD PTR __Result$[ebp], eax
$LN1@emplace_ba:

; 709  : #if _HAS_CXX17
; 710  :         return _Result;
; 711  : #else // ^^^ _HAS_CXX17 ^^^ // vvv !_HAS_CXX17 vvv
; 712  :         (void) _Result;
; 713  : #endif // _HAS_CXX17
; 714  :     }

  00051	c9		 leave
  00052	c2 04 00	 ret	 4
??$emplace_back@ABQAVCGraphicImageInstance@@@?$vector@PAVCGraphicImageInstance@@V?$allocator@PAVCGraphicImageInstance@@@std@@@std@@QAEXABQAVCGraphicImageInstance@@@Z ENDP ; std::vector<CGraphicImageInstance *,std::allocator<CGraphicImageInstance *> >::emplace_back<CGraphicImageInstance * const &>
_TEXT	ENDS
; Function compile flags: /Odspy
; File C:\Program Files (x86)\Microsoft Visual Studio\2019\Community\VC\Tools\MSVC\14.28.29333\include\algorithm
; File C:\Program Files (x86)\Microsoft Visual Studio\2019\Community\VC\Tools\MSVC\14.28.29333\include\vector
; File C:\Program Files (x86)\Microsoft Visual Studio\2019\Community\VC\Tools\MSVC\14.28.29333\include\xstddef
; File C:\Program Files (x86)\Microsoft Visual Studio\2019\Community\VC\Tools\MSVC\14.28.29333\include\vector
; File C:\Program Files (x86)\Microsoft Visual Studio\2019\Community\VC\Tools\MSVC\14.28.29333\include\algorithm
; File C:\Program Files (x86)\Microsoft Visual Studio\2019\Community\VC\Tools\MSVC\14.28.29333\include\vector
; File C:\Program Files (x86)\Microsoft Visual Studio\2019\Community\VC\Tools\MSVC\14.28.29333\include\xstddef
; File C:\Program Files (x86)\Microsoft Visual Studio\2019\Community\VC\Tools\MSVC\14.28.29333\include\vector
; File C:\Program Files (x86)\Microsoft Visual Studio\2019\Community\VC\Tools\MSVC\14.28.29333\include\algorithm
;	COMDAT ??$for_each@V?$_Vector_iterator@V?$_Vector_val@U?$_Simple_types@PAVCGraphicImageInstance@@@std@@@std@@@std@@P6AXPAVCGraphicImageInstance@@@Z@std@@YAP6AXPAVCGraphicImageInstance@@@ZV?$_Vector_iterator@V?$_Vector_val@U?$_Simple_types@PAVCGraphicImageInstance@@@std@@@std@@@0@1P6AX0@Z@Z
_TEXT	SEGMENT
__ULast$ = -32						; size = 4
$T1 = -28						; size = 4
$T2 = -24						; size = 4
__Ptr$3 = -20						; size = 4
$T4 = -16						; size = 4
$T5 = -12						; size = 4
__Ptr$6 = -8						; size = 4
__UFirst$ = -4						; size = 4
__First$ = 8						; size = 4
__Last$ = 12						; size = 4
__Func$ = 16						; size = 4
??$for_each@V?$_Vector_iterator@V?$_Vector_val@U?$_Simple_types@PAVCGraphicImageInstance@@@std@@@std@@@std@@P6AXPAVCGraphicImageInstance@@@Z@std@@YAP6AXPAVCGraphicImageInstance@@@ZV?$_Vector_iterator@V?$_Vector_val@U?$_Simple_types@PAVCGraphicImageInstance@@@std@@@std@@@0@1P6AX0@Z@Z PROC ; std::for_each<std::_Vector_iterator<std::_Vector_val<std::_Simple_types<CGraphicImageInstance *> > >,void (__cdecl*)(CGraphicImageInstance *)>, COMDAT

; 303  : _CONSTEXPR20 _Fn for_each(_InIt _First, _InIt _Last, _Fn _Func) { // perform function for each element [_First, _Last)

  00000	55		 push	 ebp
  00001	8b ec		 mov	 ebp, esp
  00003	83 ec 20	 sub	 esp, 32			; 00000020H
; File C:\Program Files (x86)\Microsoft Visual Studio\2019\Community\VC\Tools\MSVC\14.28.29333\include\vector

; 310  :         return _Unfancy(this->_Ptr);

  00006	8b 45 08	 mov	 eax, DWORD PTR __First$[ebp]
  00009	89 45 f8	 mov	 DWORD PTR __Ptr$6[ebp], eax
; File C:\Program Files (x86)\Microsoft Visual Studio\2019\Community\VC\Tools\MSVC\14.28.29333\include\xstddef

; 289  :     return _Ptr;

  0000c	8b 45 f8	 mov	 eax, DWORD PTR __Ptr$6[ebp]
  0000f	89 45 f4	 mov	 DWORD PTR $T5[ebp], eax
; File C:\Program Files (x86)\Microsoft Visual Studio\2019\Community\VC\Tools\MSVC\14.28.29333\include\vector

; 310  :         return _Unfancy(this->_Ptr);

  00012	8b 45 f4	 mov	 eax, DWORD PTR $T5[ebp]
  00015	89 45 f0	 mov	 DWORD PTR $T4[ebp], eax
; File C:\Program Files (x86)\Microsoft Visual Studio\2019\Community\VC\Tools\MSVC\14.28.29333\include\algorithm

; 305  :     auto _UFirst      = _Get_unwrapped(_First);

  00018	8b 45 f0	 mov	 eax, DWORD PTR $T4[ebp]
  0001b	89 45 fc	 mov	 DWORD PTR __UFirst$[ebp], eax
; File C:\Program Files (x86)\Microsoft Visual Studio\2019\Community\VC\Tools\MSVC\14.28.29333\include\vector

; 310  :         return _Unfancy(this->_Ptr);

  0001e	8b 45 0c	 mov	 eax, DWORD PTR __Last$[ebp]
  00021	89 45 ec	 mov	 DWORD PTR __Ptr$3[ebp], eax
; File C:\Program Files (x86)\Microsoft Visual Studio\2019\Community\VC\Tools\MSVC\14.28.29333\include\xstddef

; 289  :     return _Ptr;

  00024	8b 45 ec	 mov	 eax, DWORD PTR __Ptr$3[ebp]
  00027	89 45 e8	 mov	 DWORD PTR $T2[ebp], eax
; File C:\Program Files (x86)\Microsoft Visual Studio\2019\Community\VC\Tools\MSVC\14.28.29333\include\vector

; 310  :         return _Unfancy(this->_Ptr);

  0002a	8b 45 e8	 mov	 eax, DWORD PTR $T2[ebp]
  0002d	89 45 e4	 mov	 DWORD PTR $T1[ebp], eax
; File C:\Program Files (x86)\Microsoft Visual Studio\2019\Community\VC\Tools\MSVC\14.28.29333\include\algorithm

; 306  :     const auto _ULast = _Get_unwrapped(_Last);

  00030	8b 45 e4	 mov	 eax, DWORD PTR $T1[ebp]
  00033	89 45 e0	 mov	 DWORD PTR __ULast$[ebp], eax

; 307  :     for (; _UFirst != _ULast; ++_UFirst) {

  00036	eb 09		 jmp	 SHORT $LN4@for_each
$LN2@for_each:
  00038	8b 45 fc	 mov	 eax, DWORD PTR __UFirst$[ebp]
  0003b	83 c0 04	 add	 eax, 4
  0003e	89 45 fc	 mov	 DWORD PTR __UFirst$[ebp], eax
$LN4@for_each:
  00041	8b 45 fc	 mov	 eax, DWORD PTR __UFirst$[ebp]
  00044	3b 45 e0	 cmp	 eax, DWORD PTR __ULast$[ebp]
  00047	74 0b		 je	 SHORT $LN3@for_each

; 308  :         _Func(*_UFirst);

  00049	8b 45 fc	 mov	 eax, DWORD PTR __UFirst$[ebp]
  0004c	ff 30		 push	 DWORD PTR [eax]
  0004e	ff 55 10	 call	 DWORD PTR __Func$[ebp]
  00051	59		 pop	 ecx

; 309  :     }

  00052	eb e4		 jmp	 SHORT $LN2@for_each
$LN3@for_each:

; 310  : 
; 311  :     return _Func;

  00054	8b 45 10	 mov	 eax, DWORD PTR __Func$[ebp]

; 312  : }

  00057	c9		 leave
  00058	c3		 ret	 0
??$for_each@V?$_Vector_iterator@V?$_Vector_val@U?$_Simple_types@PAVCGraphicImageInstance@@@std@@@std@@@std@@P6AXPAVCGraphicImageInstance@@@Z@std@@YAP6AXPAVCGraphicImageInstance@@@ZV?$_Vector_iterator@V?$_Vector_val@U?$_Simple_types@PAVCGraphicImageInstance@@@std@@@std@@@0@1P6AX0@Z@Z ENDP ; std::for_each<std::_Vector_iterator<std::_Vector_val<std::_Simple_types<CGraphicImageInstance *> > >,void (__cdecl*)(CGraphicImageInstance *)>
_TEXT	ENDS
; Function compile flags: /Odspy
;	COMDAT ??__F?ms_kPool@CGraphicImageInstance@@2V?$CDynamicPool@VCGraphicImageInstance@@@@A@@YAXXZ
text$yd	SEGMENT
??__F?ms_kPool@CGraphicImageInstance@@2V?$CDynamicPool@VCGraphicImageInstance@@@@A@@YAXXZ PROC ; `dynamic atexit destructor for 'CGraphicImageInstance::ms_kPool'', COMDAT
  00000	55		 push	 ebp
  00001	8b ec		 mov	 ebp, esp
  00003	b9 00 00 00 00	 mov	 ecx, OFFSET ?ms_kPool@CGraphicImageInstance@@2V?$CDynamicPool@VCGraphicImageInstance@@@@A ; CGraphicImageInstance::ms_kPool
  00008	e8 00 00 00 00	 call	 ??1?$CDynamicPool@VCGraphicImageInstance@@@@UAE@XZ ; CDynamicPool<CGraphicImageInstance>::~CDynamicPool<CGraphicImageInstance>
  0000d	5d		 pop	 ebp
  0000e	c3		 ret	 0
??__F?ms_kPool@CGraphicImageInstance@@2V?$CDynamicPool@VCGraphicImageInstance@@@@A@@YAXXZ ENDP ; `dynamic atexit destructor for 'CGraphicImageInstance::ms_kPool''
text$yd	ENDS
; Function compile flags: /Odspy
; File D:\Metin2 Server Files\mainline\SRC_2014\Metin2Client\EterLib\GrpImageInstance.cpp
;	COMDAT ??__E?ms_kPool@CGraphicImageInstance@@2V?$CDynamicPool@VCGraphicImageInstance@@@@A@@YAXXZ
text$di	SEGMENT
??__E?ms_kPool@CGraphicImageInstance@@2V?$CDynamicPool@VCGraphicImageInstance@@@@A@@YAXXZ PROC ; `dynamic initializer for 'CGraphicImageInstance::ms_kPool'', COMDAT

; 11   : CDynamicPool<CGraphicImageInstance>		CGraphicImageInstance::ms_kPool;

  00000	55		 push	 ebp
  00001	8b ec		 mov	 ebp, esp
  00003	b9 00 00 00 00	 mov	 ecx, OFFSET ?ms_kPool@CGraphicImageInstance@@2V?$CDynamicPool@VCGraphicImageInstance@@@@A ; CGraphicImageInstance::ms_kPool
  00008	e8 00 00 00 00	 call	 ??0?$CDynamicPool@VCGraphicImageInstance@@@@QAE@XZ ; CDynamicPool<CGraphicImageInstance>::CDynamicPool<CGraphicImageInstance>
  0000d	68 00 00 00 00	 push	 OFFSET ??__F?ms_kPool@CGraphicImageInstance@@2V?$CDynamicPool@VCGraphicImageInstance@@@@A@@YAXXZ ; `dynamic atexit destructor for 'CGraphicImageInstance::ms_kPool''
  00012	e8 00 00 00 00	 call	 _atexit
  00017	59		 pop	 ecx
  00018	5d		 pop	 ebp
  00019	c3		 ret	 0
??__E?ms_kPool@CGraphicImageInstance@@2V?$CDynamicPool@VCGraphicImageInstance@@@@A@@YAXXZ ENDP ; `dynamic initializer for 'CGraphicImageInstance::ms_kPool''
text$di	ENDS
; Function compile flags: /Odspy
;	COMDAT ??_G?$CDynamicPool@VCGraphicImageInstance@@@@UAEPAXI@Z
_TEXT	SEGMENT
_this$ = -4						; size = 4
___flags$ = 8						; size = 4
??_G?$CDynamicPool@VCGraphicImageInstance@@@@UAEPAXI@Z PROC ; CDynamicPool<CGraphicImageInstance>::`scalar deleting destructor', COMDAT
; _this$ = ecx
  00000	55		 push	 ebp
  00001	8b ec		 mov	 ebp, esp
  00003	51		 push	 ecx
  00004	89 4d fc	 mov	 DWORD PTR _this$[ebp], ecx
  00007	8b 4d fc	 mov	 ecx, DWORD PTR _this$[ebp]
  0000a	e8 00 00 00 00	 call	 ??1?$CDynamicPool@VCGraphicImageInstance@@@@UAE@XZ ; CDynamicPool<CGraphicImageInstance>::~CDynamicPool<CGraphicImageInstance>
  0000f	8b 45 08	 mov	 eax, DWORD PTR ___flags$[ebp]
  00012	83 e0 01	 and	 eax, 1
  00015	74 0c		 je	 SHORT $LN2@scalar
  00017	6a 24		 push	 36			; 00000024H
  00019	ff 75 fc	 push	 DWORD PTR _this$[ebp]
  0001c	e8 00 00 00 00	 call	 ??3@YAXPAXI@Z		; operator delete
  00021	59		 pop	 ecx
  00022	59		 pop	 ecx
$LN2@scalar:
  00023	8b 45 fc	 mov	 eax, DWORD PTR _this$[ebp]
  00026	c9		 leave
  00027	c2 04 00	 ret	 4
??_G?$CDynamicPool@VCGraphicImageInstance@@@@UAEPAXI@Z ENDP ; CDynamicPool<CGraphicImageInstance>::`scalar deleting destructor'
_TEXT	ENDS
; Function compile flags: /Odspy
; File C:\Program Files (x86)\Microsoft Visual Studio\2019\Community\VC\Tools\MSVC\14.28.29333\include\vector
; File C:\Program Files (x86)\Microsoft Visual Studio\2019\Community\VC\Tools\MSVC\14.28.29333\include\xmemory
; File C:\Program Files (x86)\Microsoft Visual Studio\2019\Community\VC\Tools\MSVC\14.28.29333\include\vector
;	COMDAT ?_Getal@?$vector@PAVCGraphicImageInstance@@V?$allocator@PAVCGraphicImageInstance@@@std@@@std@@AAEAAV?$allocator@PAVCGraphicImageInstance@@@2@XZ
_TEXT	SEGMENT
$T1 = -8						; size = 4
_this$ = -4						; size = 4
?_Getal@?$vector@PAVCGraphicImageInstance@@V?$allocator@PAVCGraphicImageInstance@@@std@@@std@@AAEAAV?$allocator@PAVCGraphicImageInstance@@@2@XZ PROC ; std::vector<CGraphicImageInstance *,std::allocator<CGraphicImageInstance *> >::_Getal, COMDAT
; _this$ = ecx

; 1732 :     _Alty& _Getal() noexcept {

  00000	55		 push	 ebp
  00001	8b ec		 mov	 ebp, esp
  00003	51		 push	 ecx
  00004	51		 push	 ecx
  00005	89 4d fc	 mov	 DWORD PTR _this$[ebp], ecx

; 1733 :         return _Mypair._Get_first();

  00008	8b 45 fc	 mov	 eax, DWORD PTR _this$[ebp]
; File C:\Program Files (x86)\Microsoft Visual Studio\2019\Community\VC\Tools\MSVC\14.28.29333\include\xmemory

; 1347 :         return *this;

  0000b	89 45 f8	 mov	 DWORD PTR $T1[ebp], eax
; File C:\Program Files (x86)\Microsoft Visual Studio\2019\Community\VC\Tools\MSVC\14.28.29333\include\vector

; 1733 :         return _Mypair._Get_first();

  0000e	8b 45 f8	 mov	 eax, DWORD PTR $T1[ebp]

; 1734 :     }

  00011	c9		 leave
  00012	c3		 ret	 0
?_Getal@?$vector@PAVCGraphicImageInstance@@V?$allocator@PAVCGraphicImageInstance@@@std@@@std@@AAEAAV?$allocator@PAVCGraphicImageInstance@@@2@XZ ENDP ; std::vector<CGraphicImageInstance *,std::allocator<CGraphicImageInstance *> >::_Getal
_TEXT	ENDS
; Function compile flags: /Odspy
; File C:\Program Files (x86)\Microsoft Visual Studio\2019\Community\VC\Tools\MSVC\14.28.29333\include\vector
;	COMDAT ?_Xlength@?$vector@PAVCGraphicImageInstance@@V?$allocator@PAVCGraphicImageInstance@@@std@@@std@@CAXXZ
_TEXT	SEGMENT
?_Xlength@?$vector@PAVCGraphicImageInstance@@V?$allocator@PAVCGraphicImageInstance@@@std@@@std@@CAXXZ PROC ; std::vector<CGraphicImageInstance *,std::allocator<CGraphicImageInstance *> >::_Xlength, COMDAT

; 1704 :     [[noreturn]] static void _Xlength() {

  00000	55		 push	 ebp
  00001	8b ec		 mov	 ebp, esp

; 1705 :         _Xlength_error("vector too long");

  00003	68 00 00 00 00	 push	 OFFSET ??_C@_0BA@FOIKENOD@vector?5too?5long@
  00008	e8 00 00 00 00	 call	 ?_Xlength_error@std@@YAXPBD@Z ; std::_Xlength_error
$LN2@Xlength:

; 1706 :     }

  0000d	5d		 pop	 ebp
  0000e	c3		 ret	 0
?_Xlength@?$vector@PAVCGraphicImageInstance@@V?$allocator@PAVCGraphicImageInstance@@@std@@@std@@CAXXZ ENDP ; std::vector<CGraphicImageInstance *,std::allocator<CGraphicImageInstance *> >::_Xlength
_TEXT	ENDS
; Function compile flags: /Odspy
; File C:\Program Files (x86)\Microsoft Visual Studio\2019\Community\VC\Tools\MSVC\14.28.29333\include\vector
; File C:\Program Files (x86)\Microsoft Visual Studio\2019\Community\VC\Tools\MSVC\14.28.29333\include\xmemory
; File C:\Program Files (x86)\Microsoft Visual Studio\2019\Community\VC\Tools\MSVC\14.28.29333\include\vector
; File C:\Program Files (x86)\Microsoft Visual Studio\2019\Community\VC\Tools\MSVC\14.28.29333\include\xmemory
; File C:\Program Files (x86)\Microsoft Visual Studio\2019\Community\VC\Tools\MSVC\14.28.29333\include\vector
; File C:\Program Files (x86)\Microsoft Visual Studio\2019\Community\VC\Tools\MSVC\14.28.29333\include\xmemory
; File C:\Program Files (x86)\Microsoft Visual Studio\2019\Community\VC\Tools\MSVC\14.28.29333\include\vector
;	COMDAT ?_Tidy@?$vector@PAVCGraphicImageInstance@@V?$allocator@PAVCGraphicImageInstance@@@std@@@std@@AAEXXZ
_TEXT	SEGMENT
$T1 = -52						; size = 4
__Ptr$ = -48						; size = 4
__Count$ = -44						; size = 4
$T2 = -40						; size = 4
__First$ = -36						; size = 4
__Last$ = -32						; size = 4
$T3 = -28						; size = 4
$T4 = -24						; size = 4
__Myend$ = -20						; size = 4
__Mylast$ = -16						; size = 4
_this$ = -12						; size = 4
__My_data$ = -8						; size = 4
__Myfirst$ = -4						; size = 4
?_Tidy@?$vector@PAVCGraphicImageInstance@@V?$allocator@PAVCGraphicImageInstance@@@std@@@std@@AAEXXZ PROC ; std::vector<CGraphicImageInstance *,std::allocator<CGraphicImageInstance *> >::_Tidy, COMDAT
; _this$ = ecx

; 1686 :     void _Tidy() noexcept { // free all storage

  00000	55		 push	 ebp
  00001	8b ec		 mov	 ebp, esp
  00003	83 ec 34	 sub	 esp, 52			; 00000034H
  00006	89 4d f4	 mov	 DWORD PTR _this$[ebp], ecx

; 1687 :         auto& _My_data    = _Mypair._Myval2;

  00009	8b 45 f4	 mov	 eax, DWORD PTR _this$[ebp]
  0000c	89 45 f8	 mov	 DWORD PTR __My_data$[ebp], eax

; 1688 :         pointer& _Myfirst = _My_data._Myfirst;

  0000f	8b 45 f8	 mov	 eax, DWORD PTR __My_data$[ebp]
  00012	89 45 fc	 mov	 DWORD PTR __Myfirst$[ebp], eax

; 1689 :         pointer& _Mylast  = _My_data._Mylast;

  00015	8b 45 f8	 mov	 eax, DWORD PTR __My_data$[ebp]
  00018	83 c0 04	 add	 eax, 4
  0001b	89 45 f0	 mov	 DWORD PTR __Mylast$[ebp], eax

; 1690 :         pointer& _Myend   = _My_data._Myend;

  0001e	8b 45 f8	 mov	 eax, DWORD PTR __My_data$[ebp]
  00021	83 c0 08	 add	 eax, 8
  00024	89 45 ec	 mov	 DWORD PTR __Myend$[ebp], eax

; 1691 : 
; 1692 :         _My_data._Orphan_all();
; 1693 : 
; 1694 :         if (_Myfirst) { // destroy and deallocate old array

  00027	8b 45 fc	 mov	 eax, DWORD PTR __Myfirst$[ebp]
  0002a	83 38 00	 cmp	 DWORD PTR [eax], 0
  0002d	74 74		 je	 SHORT $LN3@Tidy

; 1695 :             _Destroy(_Myfirst, _Mylast);

  0002f	8b 45 f0	 mov	 eax, DWORD PTR __Mylast$[ebp]
  00032	8b 00		 mov	 eax, DWORD PTR [eax]
  00034	89 45 e0	 mov	 DWORD PTR __Last$[ebp], eax
  00037	8b 45 fc	 mov	 eax, DWORD PTR __Myfirst$[ebp]
  0003a	8b 00		 mov	 eax, DWORD PTR [eax]
  0003c	89 45 dc	 mov	 DWORD PTR __First$[ebp], eax

; 1733 :         return _Mypair._Get_first();

  0003f	8b 45 f4	 mov	 eax, DWORD PTR _this$[ebp]
; File C:\Program Files (x86)\Microsoft Visual Studio\2019\Community\VC\Tools\MSVC\14.28.29333\include\xmemory

; 1347 :         return *this;

  00042	89 45 e8	 mov	 DWORD PTR $T4[ebp], eax
; File C:\Program Files (x86)\Microsoft Visual Studio\2019\Community\VC\Tools\MSVC\14.28.29333\include\vector

; 1733 :         return _Mypair._Get_first();

  00045	8b 45 e8	 mov	 eax, DWORD PTR $T4[ebp]
  00048	89 45 e4	 mov	 DWORD PTR $T3[ebp], eax

; 1612 :         _Destroy_range(_First, _Last, _Getal());

  0004b	ff 75 e4	 push	 DWORD PTR $T3[ebp]
  0004e	ff 75 e0	 push	 DWORD PTR __Last$[ebp]
  00051	ff 75 dc	 push	 DWORD PTR __First$[ebp]
  00054	e8 00 00 00 00	 call	 ??$_Destroy_range@V?$allocator@PAVCGraphicImageInstance@@@std@@@std@@YAXPAPAVCGraphicImageInstance@@QAPAV1@AAV?$allocator@PAVCGraphicImageInstance@@@0@@Z ; std::_Destroy_range<std::allocator<CGraphicImageInstance *> >
  00059	83 c4 0c	 add	 esp, 12			; 0000000cH

; 1733 :         return _Mypair._Get_first();

  0005c	8b 45 f4	 mov	 eax, DWORD PTR _this$[ebp]
; File C:\Program Files (x86)\Microsoft Visual Studio\2019\Community\VC\Tools\MSVC\14.28.29333\include\xmemory

; 1347 :         return *this;

  0005f	89 45 d8	 mov	 DWORD PTR $T2[ebp], eax
; File C:\Program Files (x86)\Microsoft Visual Studio\2019\Community\VC\Tools\MSVC\14.28.29333\include\vector

; 1733 :         return _Mypair._Get_first();

  00062	8b 45 d8	 mov	 eax, DWORD PTR $T2[ebp]
  00065	89 45 cc	 mov	 DWORD PTR $T1[ebp], eax

; 1696 :             _Getal().deallocate(_Myfirst, static_cast<size_type>(_Myend - _Myfirst));

  00068	8b 45 ec	 mov	 eax, DWORD PTR __Myend$[ebp]
  0006b	8b 4d fc	 mov	 ecx, DWORD PTR __Myfirst$[ebp]
  0006e	8b 00		 mov	 eax, DWORD PTR [eax]
  00070	2b 01		 sub	 eax, DWORD PTR [ecx]
  00072	c1 f8 02	 sar	 eax, 2
  00075	89 45 d4	 mov	 DWORD PTR __Count$[ebp], eax
  00078	8b 45 fc	 mov	 eax, DWORD PTR __Myfirst$[ebp]
  0007b	8b 00		 mov	 eax, DWORD PTR [eax]
  0007d	89 45 d0	 mov	 DWORD PTR __Ptr$[ebp], eax
; File C:\Program Files (x86)\Microsoft Visual Studio\2019\Community\VC\Tools\MSVC\14.28.29333\include\xmemory

; 810  :         _Deallocate<_New_alignof<_Ty>>(_Ptr, sizeof(_Ty) * _Count);

  00080	8b 45 d4	 mov	 eax, DWORD PTR __Count$[ebp]
  00083	c1 e0 02	 shl	 eax, 2
  00086	50		 push	 eax
  00087	ff 75 d0	 push	 DWORD PTR __Ptr$[ebp]
  0008a	e8 00 00 00 00	 call	 ??$_Deallocate@$07$0A@@std@@YAXPAXI@Z ; std::_Deallocate<8,0>
  0008f	59		 pop	 ecx
  00090	59		 pop	 ecx
; File C:\Program Files (x86)\Microsoft Visual Studio\2019\Community\VC\Tools\MSVC\14.28.29333\include\vector

; 1698 :             _Myfirst = pointer();

  00091	8b 45 fc	 mov	 eax, DWORD PTR __Myfirst$[ebp]
  00094	83 20 00	 and	 DWORD PTR [eax], 0

; 1699 :             _Mylast  = pointer();

  00097	8b 45 f0	 mov	 eax, DWORD PTR __Mylast$[ebp]
  0009a	83 20 00	 and	 DWORD PTR [eax], 0

; 1700 :             _Myend   = pointer();

  0009d	8b 45 ec	 mov	 eax, DWORD PTR __Myend$[ebp]
  000a0	83 20 00	 and	 DWORD PTR [eax], 0
$LN3@Tidy:

; 1701 :         }
; 1702 :     }

  000a3	c9		 leave
  000a4	c3		 ret	 0
?_Tidy@?$vector@PAVCGraphicImageInstance@@V?$allocator@PAVCGraphicImageInstance@@@std@@@std@@AAEXXZ ENDP ; std::vector<CGraphicImageInstance *,std::allocator<CGraphicImageInstance *> >::_Tidy
_TEXT	ENDS
; Function compile flags: /Odspy
; File C:\Program Files (x86)\Microsoft Visual Studio\2019\Community\VC\Tools\MSVC\14.28.29333\include\vector
; File C:\Program Files (x86)\Microsoft Visual Studio\2019\Community\VC\Tools\MSVC\14.28.29333\include\xmemory
; File C:\Program Files (x86)\Microsoft Visual Studio\2019\Community\VC\Tools\MSVC\14.28.29333\include\vector
; File C:\Program Files (x86)\Microsoft Visual Studio\2019\Community\VC\Tools\MSVC\14.28.29333\include\xmemory
; File C:\Program Files (x86)\Microsoft Visual Studio\2019\Community\VC\Tools\MSVC\14.28.29333\include\vector
; File C:\Program Files (x86)\Microsoft Visual Studio\2019\Community\VC\Tools\MSVC\14.28.29333\include\xmemory
; File C:\Program Files (x86)\Microsoft Visual Studio\2019\Community\VC\Tools\MSVC\14.28.29333\include\vector
;	COMDAT ?_Change_array@?$vector@PAVCGraphicImageInstance@@V?$allocator@PAVCGraphicImageInstance@@@std@@@std@@AAEXQAPAVCGraphicImageInstance@@II@Z
_TEXT	SEGMENT
$T1 = -52						; size = 4
__Ptr$ = -48						; size = 4
__Count$ = -44						; size = 4
$T2 = -40						; size = 4
__First$ = -36						; size = 4
__Last$ = -32						; size = 4
$T3 = -28						; size = 4
$T4 = -24						; size = 4
__Myend$ = -20						; size = 4
__Mylast$ = -16						; size = 4
_this$ = -12						; size = 4
__My_data$ = -8						; size = 4
__Myfirst$ = -4						; size = 4
__Newvec$ = 8						; size = 4
__Newsize$ = 12						; size = 4
__Newcapacity$ = 16					; size = 4
?_Change_array@?$vector@PAVCGraphicImageInstance@@V?$allocator@PAVCGraphicImageInstance@@@std@@@std@@AAEXQAPAVCGraphicImageInstance@@II@Z PROC ; std::vector<CGraphicImageInstance *,std::allocator<CGraphicImageInstance *> >::_Change_array, COMDAT
; _this$ = ecx

; 1667 :     void _Change_array(const pointer _Newvec, const size_type _Newsize, const size_type _Newcapacity) {

  00000	55		 push	 ebp
  00001	8b ec		 mov	 ebp, esp
  00003	83 ec 34	 sub	 esp, 52			; 00000034H
  00006	89 4d f4	 mov	 DWORD PTR _this$[ebp], ecx

; 1668 :         // orphan all iterators, discard old array, acquire new array
; 1669 :         auto& _My_data    = _Mypair._Myval2;

  00009	8b 45 f4	 mov	 eax, DWORD PTR _this$[ebp]
  0000c	89 45 f8	 mov	 DWORD PTR __My_data$[ebp], eax

; 1670 :         pointer& _Myfirst = _My_data._Myfirst;

  0000f	8b 45 f8	 mov	 eax, DWORD PTR __My_data$[ebp]
  00012	89 45 fc	 mov	 DWORD PTR __Myfirst$[ebp], eax

; 1671 :         pointer& _Mylast  = _My_data._Mylast;

  00015	8b 45 f8	 mov	 eax, DWORD PTR __My_data$[ebp]
  00018	83 c0 04	 add	 eax, 4
  0001b	89 45 f0	 mov	 DWORD PTR __Mylast$[ebp], eax

; 1672 :         pointer& _Myend   = _My_data._Myend;

  0001e	8b 45 f8	 mov	 eax, DWORD PTR __My_data$[ebp]
  00021	83 c0 08	 add	 eax, 8
  00024	89 45 ec	 mov	 DWORD PTR __Myend$[ebp], eax

; 1673 : 
; 1674 :         _My_data._Orphan_all();
; 1675 : 
; 1676 :         if (_Myfirst) { // destroy and deallocate old array

  00027	8b 45 fc	 mov	 eax, DWORD PTR __Myfirst$[ebp]
  0002a	83 38 00	 cmp	 DWORD PTR [eax], 0
  0002d	74 62		 je	 SHORT $LN2@Change_arr

; 1677 :             _Destroy(_Myfirst, _Mylast);

  0002f	8b 45 f0	 mov	 eax, DWORD PTR __Mylast$[ebp]
  00032	8b 00		 mov	 eax, DWORD PTR [eax]
  00034	89 45 e0	 mov	 DWORD PTR __Last$[ebp], eax
  00037	8b 45 fc	 mov	 eax, DWORD PTR __Myfirst$[ebp]
  0003a	8b 00		 mov	 eax, DWORD PTR [eax]
  0003c	89 45 dc	 mov	 DWORD PTR __First$[ebp], eax

; 1733 :         return _Mypair._Get_first();

  0003f	8b 45 f4	 mov	 eax, DWORD PTR _this$[ebp]
; File C:\Program Files (x86)\Microsoft Visual Studio\2019\Community\VC\Tools\MSVC\14.28.29333\include\xmemory

; 1347 :         return *this;

  00042	89 45 e8	 mov	 DWORD PTR $T4[ebp], eax
; File C:\Program Files (x86)\Microsoft Visual Studio\2019\Community\VC\Tools\MSVC\14.28.29333\include\vector

; 1733 :         return _Mypair._Get_first();

  00045	8b 45 e8	 mov	 eax, DWORD PTR $T4[ebp]
  00048	89 45 e4	 mov	 DWORD PTR $T3[ebp], eax

; 1612 :         _Destroy_range(_First, _Last, _Getal());

  0004b	ff 75 e4	 push	 DWORD PTR $T3[ebp]
  0004e	ff 75 e0	 push	 DWORD PTR __Last$[ebp]
  00051	ff 75 dc	 push	 DWORD PTR __First$[ebp]
  00054	e8 00 00 00 00	 call	 ??$_Destroy_range@V?$allocator@PAVCGraphicImageInstance@@@std@@@std@@YAXPAPAVCGraphicImageInstance@@QAPAV1@AAV?$allocator@PAVCGraphicImageInstance@@@0@@Z ; std::_Destroy_range<std::allocator<CGraphicImageInstance *> >
  00059	83 c4 0c	 add	 esp, 12			; 0000000cH

; 1733 :         return _Mypair._Get_first();

  0005c	8b 45 f4	 mov	 eax, DWORD PTR _this$[ebp]
; File C:\Program Files (x86)\Microsoft Visual Studio\2019\Community\VC\Tools\MSVC\14.28.29333\include\xmemory

; 1347 :         return *this;

  0005f	89 45 d8	 mov	 DWORD PTR $T2[ebp], eax
; File C:\Program Files (x86)\Microsoft Visual Studio\2019\Community\VC\Tools\MSVC\14.28.29333\include\vector

; 1733 :         return _Mypair._Get_first();

  00062	8b 45 d8	 mov	 eax, DWORD PTR $T2[ebp]
  00065	89 45 cc	 mov	 DWORD PTR $T1[ebp], eax

; 1678 :             _Getal().deallocate(_Myfirst, static_cast<size_type>(_Myend - _Myfirst));

  00068	8b 45 ec	 mov	 eax, DWORD PTR __Myend$[ebp]
  0006b	8b 4d fc	 mov	 ecx, DWORD PTR __Myfirst$[ebp]
  0006e	8b 00		 mov	 eax, DWORD PTR [eax]
  00070	2b 01		 sub	 eax, DWORD PTR [ecx]
  00072	c1 f8 02	 sar	 eax, 2
  00075	89 45 d4	 mov	 DWORD PTR __Count$[ebp], eax
  00078	8b 45 fc	 mov	 eax, DWORD PTR __Myfirst$[ebp]
  0007b	8b 00		 mov	 eax, DWORD PTR [eax]
  0007d	89 45 d0	 mov	 DWORD PTR __Ptr$[ebp], eax
; File C:\Program Files (x86)\Microsoft Visual Studio\2019\Community\VC\Tools\MSVC\14.28.29333\include\xmemory

; 810  :         _Deallocate<_New_alignof<_Ty>>(_Ptr, sizeof(_Ty) * _Count);

  00080	8b 45 d4	 mov	 eax, DWORD PTR __Count$[ebp]
  00083	c1 e0 02	 shl	 eax, 2
  00086	50		 push	 eax
  00087	ff 75 d0	 push	 DWORD PTR __Ptr$[ebp]
  0008a	e8 00 00 00 00	 call	 ??$_Deallocate@$07$0A@@std@@YAXPAXI@Z ; std::_Deallocate<8,0>
  0008f	59		 pop	 ecx
  00090	59		 pop	 ecx
$LN2@Change_arr:
; File C:\Program Files (x86)\Microsoft Visual Studio\2019\Community\VC\Tools\MSVC\14.28.29333\include\vector

; 1681 :         _Myfirst = _Newvec;

  00091	8b 45 fc	 mov	 eax, DWORD PTR __Myfirst$[ebp]
  00094	8b 4d 08	 mov	 ecx, DWORD PTR __Newvec$[ebp]
  00097	89 08		 mov	 DWORD PTR [eax], ecx

; 1682 :         _Mylast  = _Newvec + _Newsize;

  00099	8b 45 0c	 mov	 eax, DWORD PTR __Newsize$[ebp]
  0009c	8b 4d 08	 mov	 ecx, DWORD PTR __Newvec$[ebp]
  0009f	8d 04 81	 lea	 eax, DWORD PTR [ecx+eax*4]
  000a2	8b 4d f0	 mov	 ecx, DWORD PTR __Mylast$[ebp]
  000a5	89 01		 mov	 DWORD PTR [ecx], eax

; 1683 :         _Myend   = _Newvec + _Newcapacity;

  000a7	8b 45 10	 mov	 eax, DWORD PTR __Newcapacity$[ebp]
  000aa	8b 4d 08	 mov	 ecx, DWORD PTR __Newvec$[ebp]
  000ad	8d 04 81	 lea	 eax, DWORD PTR [ecx+eax*4]
  000b0	8b 4d ec	 mov	 ecx, DWORD PTR __Myend$[ebp]
  000b3	89 01		 mov	 DWORD PTR [ecx], eax

; 1684 :     }

  000b5	c9		 leave
  000b6	c2 0c 00	 ret	 12			; 0000000cH
?_Change_array@?$vector@PAVCGraphicImageInstance@@V?$allocator@PAVCGraphicImageInstance@@@std@@@std@@AAEXQAPAVCGraphicImageInstance@@II@Z ENDP ; std::vector<CGraphicImageInstance *,std::allocator<CGraphicImageInstance *> >::_Change_array
_TEXT	ENDS
; Function compile flags: /Odspy
; File C:\Program Files (x86)\Microsoft Visual Studio\2019\Community\VC\Tools\MSVC\14.28.29333\include\vector
; File C:\Program Files (x86)\Microsoft Visual Studio\2019\Community\VC\Tools\MSVC\14.28.29333\include\xmemory
; File C:\Program Files (x86)\Microsoft Visual Studio\2019\Community\VC\Tools\MSVC\14.28.29333\include\vector
; File C:\Program Files (x86)\Microsoft Visual Studio\2019\Community\VC\Tools\MSVC\14.28.29333\include\xmemory
; File C:\Program Files (x86)\Microsoft Visual Studio\2019\Community\VC\Tools\MSVC\14.28.29333\include\limits
; File C:\Program Files (x86)\Microsoft Visual Studio\2019\Community\VC\Tools\MSVC\14.28.29333\include\vector
; File C:\Program Files (x86)\Microsoft Visual Studio\2019\Community\VC\Tools\MSVC\14.28.29333\include\utility
; File C:\Program Files (x86)\Microsoft Visual Studio\2019\Community\VC\Tools\MSVC\14.28.29333\include\vector
;	COMDAT ?_Calculate_growth@?$vector@PAVCGraphicImageInstance@@V?$allocator@PAVCGraphicImageInstance@@@std@@@std@@ABEII@Z
_TEXT	SEGMENT
$T1 = -52						; size = 4
$T2 = -48						; size = 4
$T3 = -44						; size = 4
$T4 = -40						; size = 4
$T5 = -36						; size = 4
__Geometric$ = -32					; size = 4
__Max$ = -28						; size = 4
tv82 = -24						; size = 4
$T6 = -20						; size = 4
$T7 = -16						; size = 4
_this$ = -12						; size = 4
__My_data$8 = -8					; size = 4
__Oldcapacity$ = -4					; size = 4
__Newsize$ = 8						; size = 4
?_Calculate_growth@?$vector@PAVCGraphicImageInstance@@V?$allocator@PAVCGraphicImageInstance@@@std@@@std@@ABEII@Z PROC ; std::vector<CGraphicImageInstance *,std::allocator<CGraphicImageInstance *> >::_Calculate_growth, COMDAT
; _this$ = ecx

; 1615 :     size_type _Calculate_growth(const size_type _Newsize) const {

  00000	55		 push	 ebp
  00001	8b ec		 mov	 ebp, esp
  00003	83 ec 34	 sub	 esp, 52			; 00000034H
  00006	89 4d f4	 mov	 DWORD PTR _this$[ebp], ecx

; 1493 :         auto& _My_data = _Mypair._Myval2;

  00009	8b 45 f4	 mov	 eax, DWORD PTR _this$[ebp]
  0000c	89 45 f8	 mov	 DWORD PTR __My_data$8[ebp], eax

; 1494 :         return static_cast<size_type>(_My_data._Myend - _My_data._Myfirst);

  0000f	8b 45 f8	 mov	 eax, DWORD PTR __My_data$8[ebp]
  00012	8b 4d f8	 mov	 ecx, DWORD PTR __My_data$8[ebp]
  00015	8b 40 08	 mov	 eax, DWORD PTR [eax+8]
  00018	2b 01		 sub	 eax, DWORD PTR [ecx]
  0001a	c1 f8 02	 sar	 eax, 2
  0001d	89 45 fc	 mov	 DWORD PTR __Oldcapacity$[ebp], eax

; 1737 :         return _Mypair._Get_first();

  00020	8b 45 f4	 mov	 eax, DWORD PTR _this$[ebp]
; File C:\Program Files (x86)\Microsoft Visual Studio\2019\Community\VC\Tools\MSVC\14.28.29333\include\xmemory

; 1351 :         return *this;

  00023	89 45 dc	 mov	 DWORD PTR $T5[ebp], eax
; File C:\Program Files (x86)\Microsoft Visual Studio\2019\Community\VC\Tools\MSVC\14.28.29333\include\vector

; 1737 :         return _Mypair._Get_first();

  00026	8b 45 dc	 mov	 eax, DWORD PTR $T5[ebp]
  00029	89 45 cc	 mov	 DWORD PTR $T1[ebp], eax
; File C:\Program Files (x86)\Microsoft Visual Studio\2019\Community\VC\Tools\MSVC\14.28.29333\include\xmemory

; 710  :         return static_cast<size_t>(-1) / sizeof(value_type);

  0002c	c7 45 f0 ff ff
	ff 3f		 mov	 DWORD PTR $T7[ebp], 1073741823 ; 3fffffffH
; File C:\Program Files (x86)\Microsoft Visual Studio\2019\Community\VC\Tools\MSVC\14.28.29333\include\limits

; 557  :         return INT_MAX;

  00033	c7 45 d8 ff ff
	ff 7f		 mov	 DWORD PTR $T4[ebp], 2147483647 ; 7fffffffH
; File C:\Program Files (x86)\Microsoft Visual Studio\2019\Community\VC\Tools\MSVC\14.28.29333\include\vector

; 1488 :         return (_STD min)(

  0003a	8b 45 d8	 mov	 eax, DWORD PTR $T4[ebp]
  0003d	89 45 ec	 mov	 DWORD PTR $T6[ebp], eax
; File C:\Program Files (x86)\Microsoft Visual Studio\2019\Community\VC\Tools\MSVC\14.28.29333\include\utility

; 68   :     return _Right < _Left ? _Right : _Left;

  00040	8b 45 f0	 mov	 eax, DWORD PTR $T7[ebp]
  00043	3b 45 ec	 cmp	 eax, DWORD PTR $T6[ebp]
  00046	73 08		 jae	 SHORT $LN25@Calculate_
  00048	8d 45 f0	 lea	 eax, DWORD PTR $T7[ebp]
  0004b	89 45 e8	 mov	 DWORD PTR tv82[ebp], eax
  0004e	eb 06		 jmp	 SHORT $LN26@Calculate_
$LN25@Calculate_:
  00050	8d 45 ec	 lea	 eax, DWORD PTR $T6[ebp]
  00053	89 45 e8	 mov	 DWORD PTR tv82[ebp], eax
$LN26@Calculate_:
  00056	8b 45 e8	 mov	 eax, DWORD PTR tv82[ebp]
  00059	89 45 d4	 mov	 DWORD PTR $T3[ebp], eax
  0005c	8b 45 d4	 mov	 eax, DWORD PTR $T3[ebp]
  0005f	89 45 d0	 mov	 DWORD PTR $T2[ebp], eax
; File C:\Program Files (x86)\Microsoft Visual Studio\2019\Community\VC\Tools\MSVC\14.28.29333\include\vector

; 1488 :         return (_STD min)(

  00062	8b 45 d0	 mov	 eax, DWORD PTR $T2[ebp]
  00065	8b 00		 mov	 eax, DWORD PTR [eax]
  00067	89 45 e4	 mov	 DWORD PTR __Max$[ebp], eax

; 1616 :         // given _Oldcapacity and _Newsize, calculate geometric growth
; 1617 :         const size_type _Oldcapacity = capacity();
; 1618 :         const auto _Max              = max_size();
; 1619 : 
; 1620 :         if (_Oldcapacity > _Max - _Oldcapacity / 2) {

  0006a	8b 45 fc	 mov	 eax, DWORD PTR __Oldcapacity$[ebp]
  0006d	d1 e8		 shr	 eax, 1
  0006f	8b 4d e4	 mov	 ecx, DWORD PTR __Max$[ebp]
  00072	2b c8		 sub	 ecx, eax
  00074	39 4d fc	 cmp	 DWORD PTR __Oldcapacity$[ebp], ecx
  00077	76 05		 jbe	 SHORT $LN2@Calculate_

; 1621 :             return _Max; // geometric growth would overflow

  00079	8b 45 e4	 mov	 eax, DWORD PTR __Max$[ebp]
  0007c	eb 1b		 jmp	 SHORT $LN1@Calculate_
$LN2@Calculate_:

; 1622 :         }
; 1623 : 
; 1624 :         const size_type _Geometric = _Oldcapacity + _Oldcapacity / 2;

  0007e	8b 45 fc	 mov	 eax, DWORD PTR __Oldcapacity$[ebp]
  00081	d1 e8		 shr	 eax, 1
  00083	03 45 fc	 add	 eax, DWORD PTR __Oldcapacity$[ebp]
  00086	89 45 e0	 mov	 DWORD PTR __Geometric$[ebp], eax

; 1625 : 
; 1626 :         if (_Geometric < _Newsize) {

  00089	8b 45 e0	 mov	 eax, DWORD PTR __Geometric$[ebp]
  0008c	3b 45 08	 cmp	 eax, DWORD PTR __Newsize$[ebp]
  0008f	73 05		 jae	 SHORT $LN3@Calculate_

; 1627 :             return _Newsize; // geometric growth would be insufficient

  00091	8b 45 08	 mov	 eax, DWORD PTR __Newsize$[ebp]
  00094	eb 03		 jmp	 SHORT $LN1@Calculate_
$LN3@Calculate_:

; 1628 :         }
; 1629 : 
; 1630 :         return _Geometric; // geometric growth is sufficient

  00096	8b 45 e0	 mov	 eax, DWORD PTR __Geometric$[ebp]
$LN1@Calculate_:

; 1631 :     }

  00099	c9		 leave
  0009a	c2 04 00	 ret	 4
?_Calculate_growth@?$vector@PAVCGraphicImageInstance@@V?$allocator@PAVCGraphicImageInstance@@@std@@@std@@ABEII@Z ENDP ; std::vector<CGraphicImageInstance *,std::allocator<CGraphicImageInstance *> >::_Calculate_growth
_TEXT	ENDS
; Function compile flags: /Odspy
; File C:\Program Files (x86)\Microsoft Visual Studio\2019\Community\VC\Tools\MSVC\14.28.29333\include\vector
; File C:\Program Files (x86)\Microsoft Visual Studio\2019\Community\VC\Tools\MSVC\14.28.29333\include\xmemory
; File C:\Program Files (x86)\Microsoft Visual Studio\2019\Community\VC\Tools\MSVC\14.28.29333\include\vector
;	COMDAT ?_Destroy@?$vector@PAVCGraphicImageInstance@@V?$allocator@PAVCGraphicImageInstance@@@std@@@std@@AAEXPAPAVCGraphicImageInstance@@0@Z
_TEXT	SEGMENT
$T1 = -12						; size = 4
$T2 = -8						; size = 4
_this$ = -4						; size = 4
__First$ = 8						; size = 4
__Last$ = 12						; size = 4
?_Destroy@?$vector@PAVCGraphicImageInstance@@V?$allocator@PAVCGraphicImageInstance@@@std@@@std@@AAEXPAPAVCGraphicImageInstance@@0@Z PROC ; std::vector<CGraphicImageInstance *,std::allocator<CGraphicImageInstance *> >::_Destroy, COMDAT
; _this$ = ecx

; 1611 :     void _Destroy(pointer _First, pointer _Last) { // destroy [_First, _Last) using allocator

  00000	55		 push	 ebp
  00001	8b ec		 mov	 ebp, esp
  00003	83 ec 0c	 sub	 esp, 12			; 0000000cH
  00006	89 4d fc	 mov	 DWORD PTR _this$[ebp], ecx

; 1733 :         return _Mypair._Get_first();

  00009	8b 45 fc	 mov	 eax, DWORD PTR _this$[ebp]
; File C:\Program Files (x86)\Microsoft Visual Studio\2019\Community\VC\Tools\MSVC\14.28.29333\include\xmemory

; 1347 :         return *this;

  0000c	89 45 f8	 mov	 DWORD PTR $T2[ebp], eax
; File C:\Program Files (x86)\Microsoft Visual Studio\2019\Community\VC\Tools\MSVC\14.28.29333\include\vector

; 1733 :         return _Mypair._Get_first();

  0000f	8b 45 f8	 mov	 eax, DWORD PTR $T2[ebp]
  00012	89 45 f4	 mov	 DWORD PTR $T1[ebp], eax

; 1612 :         _Destroy_range(_First, _Last, _Getal());

  00015	ff 75 f4	 push	 DWORD PTR $T1[ebp]
  00018	ff 75 0c	 push	 DWORD PTR __Last$[ebp]
  0001b	ff 75 08	 push	 DWORD PTR __First$[ebp]
  0001e	e8 00 00 00 00	 call	 ??$_Destroy_range@V?$allocator@PAVCGraphicImageInstance@@@std@@@std@@YAXPAPAVCGraphicImageInstance@@QAPAV1@AAV?$allocator@PAVCGraphicImageInstance@@@0@@Z ; std::_Destroy_range<std::allocator<CGraphicImageInstance *> >
  00023	83 c4 0c	 add	 esp, 12			; 0000000cH

; 1613 :     }

  00026	c9		 leave
  00027	c2 08 00	 ret	 8
?_Destroy@?$vector@PAVCGraphicImageInstance@@V?$allocator@PAVCGraphicImageInstance@@@std@@@std@@AAEXPAPAVCGraphicImageInstance@@0@Z ENDP ; std::vector<CGraphicImageInstance *,std::allocator<CGraphicImageInstance *> >::_Destroy
_TEXT	ENDS
; Function compile flags: /Odspy
; File C:\Program Files (x86)\Microsoft Visual Studio\2019\Community\VC\Tools\MSVC\14.28.29333\include\vector
; File C:\Program Files (x86)\Microsoft Visual Studio\2019\Community\VC\Tools\MSVC\14.28.29333\include\xmemory
; File C:\Program Files (x86)\Microsoft Visual Studio\2019\Community\VC\Tools\MSVC\14.28.29333\include\vector
;	COMDAT ?clear@?$vector@PAVCGraphicImageInstance@@V?$allocator@PAVCGraphicImageInstance@@@std@@@std@@QAEXXZ
_TEXT	SEGMENT
__First$ = -32						; size = 4
__Last$ = -28						; size = 4
$T1 = -24						; size = 4
$T2 = -20						; size = 4
__Myfirst$ = -16					; size = 4
__Mylast$ = -12						; size = 4
_this$ = -8						; size = 4
__My_data$ = -4						; size = 4
?clear@?$vector@PAVCGraphicImageInstance@@V?$allocator@PAVCGraphicImageInstance@@@std@@@std@@QAEXXZ PROC ; std::vector<CGraphicImageInstance *,std::allocator<CGraphicImageInstance *> >::clear, COMDAT
; _this$ = ecx

; 1383 :     void clear() noexcept { // erase all

  00000	55		 push	 ebp
  00001	8b ec		 mov	 ebp, esp
  00003	83 ec 20	 sub	 esp, 32			; 00000020H
  00006	89 4d f8	 mov	 DWORD PTR _this$[ebp], ecx

; 1384 :         auto& _My_data    = _Mypair._Myval2;

  00009	8b 45 f8	 mov	 eax, DWORD PTR _this$[ebp]
  0000c	89 45 fc	 mov	 DWORD PTR __My_data$[ebp], eax

; 1385 :         pointer& _Myfirst = _My_data._Myfirst;

  0000f	8b 45 fc	 mov	 eax, DWORD PTR __My_data$[ebp]
  00012	89 45 f0	 mov	 DWORD PTR __Myfirst$[ebp], eax

; 1386 :         pointer& _Mylast  = _My_data._Mylast;

  00015	8b 45 fc	 mov	 eax, DWORD PTR __My_data$[ebp]
  00018	83 c0 04	 add	 eax, 4
  0001b	89 45 f4	 mov	 DWORD PTR __Mylast$[ebp], eax

; 1387 : 
; 1388 :         _My_data._Orphan_all();
; 1389 :         _Destroy(_Myfirst, _Mylast);

  0001e	8b 45 f4	 mov	 eax, DWORD PTR __Mylast$[ebp]
  00021	8b 00		 mov	 eax, DWORD PTR [eax]
  00023	89 45 e4	 mov	 DWORD PTR __Last$[ebp], eax
  00026	8b 45 f0	 mov	 eax, DWORD PTR __Myfirst$[ebp]
  00029	8b 00		 mov	 eax, DWORD PTR [eax]
  0002b	89 45 e0	 mov	 DWORD PTR __First$[ebp], eax

; 1733 :         return _Mypair._Get_first();

  0002e	8b 45 f8	 mov	 eax, DWORD PTR _this$[ebp]
; File C:\Program Files (x86)\Microsoft Visual Studio\2019\Community\VC\Tools\MSVC\14.28.29333\include\xmemory

; 1347 :         return *this;

  00031	89 45 ec	 mov	 DWORD PTR $T2[ebp], eax
; File C:\Program Files (x86)\Microsoft Visual Studio\2019\Community\VC\Tools\MSVC\14.28.29333\include\vector

; 1733 :         return _Mypair._Get_first();

  00034	8b 45 ec	 mov	 eax, DWORD PTR $T2[ebp]
  00037	89 45 e8	 mov	 DWORD PTR $T1[ebp], eax

; 1612 :         _Destroy_range(_First, _Last, _Getal());

  0003a	ff 75 e8	 push	 DWORD PTR $T1[ebp]
  0003d	ff 75 e4	 push	 DWORD PTR __Last$[ebp]
  00040	ff 75 e0	 push	 DWORD PTR __First$[ebp]
  00043	e8 00 00 00 00	 call	 ??$_Destroy_range@V?$allocator@PAVCGraphicImageInstance@@@std@@@std@@YAXPAPAVCGraphicImageInstance@@QAPAV1@AAV?$allocator@PAVCGraphicImageInstance@@@0@@Z ; std::_Destroy_range<std::allocator<CGraphicImageInstance *> >
  00048	83 c4 0c	 add	 esp, 12			; 0000000cH

; 1390 :         _Mylast = _Myfirst;

  0004b	8b 45 f4	 mov	 eax, DWORD PTR __Mylast$[ebp]
  0004e	8b 4d f0	 mov	 ecx, DWORD PTR __Myfirst$[ebp]
  00051	8b 09		 mov	 ecx, DWORD PTR [ecx]
  00053	89 08		 mov	 DWORD PTR [eax], ecx

; 1391 :     }

  00055	c9		 leave
  00056	c3		 ret	 0
?clear@?$vector@PAVCGraphicImageInstance@@V?$allocator@PAVCGraphicImageInstance@@@std@@@std@@QAEXXZ ENDP ; std::vector<CGraphicImageInstance *,std::allocator<CGraphicImageInstance *> >::clear
_TEXT	ENDS
; Function compile flags: /Odspy
; File C:\Program Files (x86)\Microsoft Visual Studio\2019\Community\VC\Tools\MSVC\14.28.29333\include\vector
; File C:\Program Files (x86)\Microsoft Visual Studio\2019\Community\VC\Tools\MSVC\14.28.29333\include\xmemory
; File C:\Program Files (x86)\Microsoft Visual Studio\2019\Community\VC\Tools\MSVC\14.28.29333\include\vector
; File C:\Program Files (x86)\Microsoft Visual Studio\2019\Community\VC\Tools\MSVC\14.28.29333\include\xmemory
; File C:\Program Files (x86)\Microsoft Visual Studio\2019\Community\VC\Tools\MSVC\14.28.29333\include\limits
; File C:\Program Files (x86)\Microsoft Visual Studio\2019\Community\VC\Tools\MSVC\14.28.29333\include\vector
; File C:\Program Files (x86)\Microsoft Visual Studio\2019\Community\VC\Tools\MSVC\14.28.29333\include\utility
; File C:\Program Files (x86)\Microsoft Visual Studio\2019\Community\VC\Tools\MSVC\14.28.29333\include\vector
;	COMDAT ?reserve@?$vector@PAVCGraphicImageInstance@@V?$allocator@PAVCGraphicImageInstance@@@std@@@std@@QAEXI@Z
_TEXT	SEGMENT
$T1 = -48						; size = 4
$T2 = -44						; size = 4
$T3 = -40						; size = 4
$T4 = -36						; size = 4
$T5 = -32						; size = 4
$T6 = -28						; size = 4
$T7 = -24						; size = 4
tv81 = -20						; size = 4
$T8 = -16						; size = 4
$T9 = -12						; size = 4
__My_data$10 = -8					; size = 4
_this$ = -4						; size = 4
__Newcapacity$ = 8					; size = 4
?reserve@?$vector@PAVCGraphicImageInstance@@V?$allocator@PAVCGraphicImageInstance@@@std@@@std@@QAEXI@Z PROC ; std::vector<CGraphicImageInstance *,std::allocator<CGraphicImageInstance *> >::reserve, COMDAT
; _this$ = ecx

; 1304 :     void reserve(_CRT_GUARDOVERFLOW const size_type _Newcapacity) {

  00000	55		 push	 ebp
  00001	8b ec		 mov	 ebp, esp
  00003	83 ec 30	 sub	 esp, 48			; 00000030H
  00006	89 4d fc	 mov	 DWORD PTR _this$[ebp], ecx

; 1493 :         auto& _My_data = _Mypair._Myval2;

  00009	8b 45 fc	 mov	 eax, DWORD PTR _this$[ebp]
  0000c	89 45 f8	 mov	 DWORD PTR __My_data$10[ebp], eax

; 1494 :         return static_cast<size_type>(_My_data._Myend - _My_data._Myfirst);

  0000f	8b 45 f8	 mov	 eax, DWORD PTR __My_data$10[ebp]
  00012	8b 4d f8	 mov	 ecx, DWORD PTR __My_data$10[ebp]
  00015	8b 40 08	 mov	 eax, DWORD PTR [eax+8]
  00018	2b 01		 sub	 eax, DWORD PTR [ecx]
  0001a	c1 f8 02	 sar	 eax, 2
  0001d	89 45 e8	 mov	 DWORD PTR $T7[ebp], eax

; 1305 :         // increase capacity to _Newcapacity (without geometric growth), provide strong guarantee
; 1306 :         if (_Newcapacity > capacity()) { // something to do (reserve() never shrinks)

  00020	8b 45 08	 mov	 eax, DWORD PTR __Newcapacity$[ebp]
  00023	3b 45 e8	 cmp	 eax, DWORD PTR $T7[ebp]
  00026	76 62		 jbe	 SHORT $LN4@reserve

; 1737 :         return _Mypair._Get_first();

  00028	8b 45 fc	 mov	 eax, DWORD PTR _this$[ebp]
; File C:\Program Files (x86)\Microsoft Visual Studio\2019\Community\VC\Tools\MSVC\14.28.29333\include\xmemory

; 1351 :         return *this;

  0002b	89 45 e4	 mov	 DWORD PTR $T6[ebp], eax
; File C:\Program Files (x86)\Microsoft Visual Studio\2019\Community\VC\Tools\MSVC\14.28.29333\include\vector

; 1737 :         return _Mypair._Get_first();

  0002e	8b 45 e4	 mov	 eax, DWORD PTR $T6[ebp]
  00031	89 45 d0	 mov	 DWORD PTR $T1[ebp], eax
; File C:\Program Files (x86)\Microsoft Visual Studio\2019\Community\VC\Tools\MSVC\14.28.29333\include\xmemory

; 710  :         return static_cast<size_t>(-1) / sizeof(value_type);

  00034	c7 45 f4 ff ff
	ff 3f		 mov	 DWORD PTR $T9[ebp], 1073741823 ; 3fffffffH
; File C:\Program Files (x86)\Microsoft Visual Studio\2019\Community\VC\Tools\MSVC\14.28.29333\include\limits

; 557  :         return INT_MAX;

  0003b	c7 45 e0 ff ff
	ff 7f		 mov	 DWORD PTR $T5[ebp], 2147483647 ; 7fffffffH
; File C:\Program Files (x86)\Microsoft Visual Studio\2019\Community\VC\Tools\MSVC\14.28.29333\include\vector

; 1488 :         return (_STD min)(

  00042	8b 45 e0	 mov	 eax, DWORD PTR $T5[ebp]
  00045	89 45 f0	 mov	 DWORD PTR $T8[ebp], eax
; File C:\Program Files (x86)\Microsoft Visual Studio\2019\Community\VC\Tools\MSVC\14.28.29333\include\utility

; 68   :     return _Right < _Left ? _Right : _Left;

  00048	8b 45 f4	 mov	 eax, DWORD PTR $T9[ebp]
  0004b	3b 45 f0	 cmp	 eax, DWORD PTR $T8[ebp]
  0004e	73 08		 jae	 SHORT $LN25@reserve
  00050	8d 45 f4	 lea	 eax, DWORD PTR $T9[ebp]
  00053	89 45 ec	 mov	 DWORD PTR tv81[ebp], eax
  00056	eb 06		 jmp	 SHORT $LN26@reserve
$LN25@reserve:
  00058	8d 45 f0	 lea	 eax, DWORD PTR $T8[ebp]
  0005b	89 45 ec	 mov	 DWORD PTR tv81[ebp], eax
$LN26@reserve:
  0005e	8b 45 ec	 mov	 eax, DWORD PTR tv81[ebp]
  00061	89 45 dc	 mov	 DWORD PTR $T4[ebp], eax
  00064	8b 45 dc	 mov	 eax, DWORD PTR $T4[ebp]
  00067	89 45 d8	 mov	 DWORD PTR $T3[ebp], eax
; File C:\Program Files (x86)\Microsoft Visual Studio\2019\Community\VC\Tools\MSVC\14.28.29333\include\vector

; 1488 :         return (_STD min)(

  0006a	8b 45 d8	 mov	 eax, DWORD PTR $T3[ebp]
  0006d	8b 00		 mov	 eax, DWORD PTR [eax]
  0006f	89 45 d4	 mov	 DWORD PTR $T2[ebp], eax

; 1307 :             if (_Newcapacity > max_size()) {

  00072	8b 45 08	 mov	 eax, DWORD PTR __Newcapacity$[ebp]
  00075	3b 45 d4	 cmp	 eax, DWORD PTR $T2[ebp]
  00078	76 05		 jbe	 SHORT $LN3@reserve

; 1308 :                 _Xlength();

  0007a	e8 00 00 00 00	 call	 ?_Xlength@?$vector@PAVCGraphicImageInstance@@V?$allocator@PAVCGraphicImageInstance@@@std@@@std@@CAXXZ ; std::vector<CGraphicImageInstance *,std::allocator<CGraphicImageInstance *> >::_Xlength
$LN3@reserve:

; 1309 :             }
; 1310 : 
; 1311 :             _Reallocate_exactly(_Newcapacity);

  0007f	ff 75 08	 push	 DWORD PTR __Newcapacity$[ebp]
  00082	8b 4d fc	 mov	 ecx, DWORD PTR _this$[ebp]
  00085	e8 00 00 00 00	 call	 ?_Reallocate_exactly@?$vector@PAVCGraphicImageInstance@@V?$allocator@PAVCGraphicImageInstance@@@std@@@std@@AAEXI@Z ; std::vector<CGraphicImageInstance *,std::allocator<CGraphicImageInstance *> >::_Reallocate_exactly
$LN4@reserve:

; 1312 :         }
; 1313 :     }

  0008a	c9		 leave
  0008b	c2 04 00	 ret	 4
?reserve@?$vector@PAVCGraphicImageInstance@@V?$allocator@PAVCGraphicImageInstance@@@std@@@std@@QAEXI@Z ENDP ; std::vector<CGraphicImageInstance *,std::allocator<CGraphicImageInstance *> >::reserve
_TEXT	ENDS
; Function compile flags: /Odspy
; File C:\Program Files (x86)\Microsoft Visual Studio\2019\Community\VC\Tools\MSVC\14.28.29333\include\vector
; File C:\Program Files (x86)\Microsoft Visual Studio\2019\Community\VC\Tools\MSVC\14.28.29333\include\xmemory
; File C:\Program Files (x86)\Microsoft Visual Studio\2019\Community\VC\Tools\MSVC\14.28.29333\include\vector
; File C:\Program Files (x86)\Microsoft Visual Studio\2019\Community\VC\Tools\MSVC\14.28.29333\include\xmemory
; File C:\Program Files (x86)\Microsoft Visual Studio\2019\Community\VC\Tools\MSVC\14.28.29333\include\vector
; File C:\Program Files (x86)\Microsoft Visual Studio\2019\Community\VC\Tools\MSVC\14.28.29333\include\xmemory
; File C:\Program Files (x86)\Microsoft Visual Studio\2019\Community\VC\Tools\MSVC\14.28.29333\include\vector
;	COMDAT ?_Reallocate_exactly@?$vector@PAVCGraphicImageInstance@@V?$allocator@PAVCGraphicImageInstance@@@std@@@std@@AAEXI@Z
_TEXT	SEGMENT
__Max_possible$2 = -80					; size = 4
$T3 = -76						; size = 4
__Size$ = -72						; size = 4
__First$ = -68						; size = 4
__Last$ = -64						; size = 4
$T4 = -60						; size = 4
$T5 = -56						; size = 4
$T6 = -52						; size = 4
$T7 = -48						; size = 4
__Myfirst$ = -44					; size = 4
__Mylast$ = -40						; size = 4
__My_data$ = -36					; size = 4
__Newvec$ = -32						; size = 4
_this$ = -28						; size = 4
___formal$ = -24					; size = 1
__Overflow_is_possible$8 = -18				; size = 1
$T9 = -17						; size = 1
__$EHRec$ = -16						; size = 16
__Newcapacity$ = 8					; size = 4
?_Reallocate_exactly@?$vector@PAVCGraphicImageInstance@@V?$allocator@PAVCGraphicImageInstance@@@std@@@std@@AAEXI@Z PROC ; std::vector<CGraphicImageInstance *,std::allocator<CGraphicImageInstance *> >::_Reallocate_exactly, COMDAT
; _this$ = ecx

; 1251 :     void _Reallocate_exactly(const size_type _Newcapacity) {

  00000	55		 push	 ebp
  00001	8b ec		 mov	 ebp, esp
  00003	6a ff		 push	 -1
  00005	68 00 00 00 00	 push	 __ehhandler$?_Reallocate_exactly@?$vector@PAVCGraphicImageInstance@@V?$allocator@PAVCGraphicImageInstance@@@std@@@std@@AAEXI@Z
  0000a	64 a1 00 00 00
	00		 mov	 eax, DWORD PTR fs:0
  00010	50		 push	 eax
  00011	51		 push	 ecx
  00012	83 ec 40	 sub	 esp, 64			; 00000040H
  00015	53		 push	 ebx
  00016	56		 push	 esi
  00017	57		 push	 edi
  00018	a1 00 00 00 00	 mov	 eax, DWORD PTR ___security_cookie
  0001d	33 c5		 xor	 eax, ebp
  0001f	50		 push	 eax
  00020	8d 45 f4	 lea	 eax, DWORD PTR __$EHRec$[ebp+4]
  00023	64 a3 00 00 00
	00		 mov	 DWORD PTR fs:0, eax
  00029	89 65 f0	 mov	 DWORD PTR __$EHRec$[ebp], esp
  0002c	89 4d e4	 mov	 DWORD PTR _this$[ebp], ecx

; 1252 :         // set capacity to _Newcapacity (without geometric growth), provide strong guarantee
; 1253 :         auto& _My_data    = _Mypair._Myval2;

  0002f	8b 45 e4	 mov	 eax, DWORD PTR _this$[ebp]
  00032	89 45 dc	 mov	 DWORD PTR __My_data$[ebp], eax

; 1254 :         pointer& _Myfirst = _My_data._Myfirst;

  00035	8b 45 dc	 mov	 eax, DWORD PTR __My_data$[ebp]
  00038	89 45 d4	 mov	 DWORD PTR __Myfirst$[ebp], eax

; 1255 :         pointer& _Mylast  = _My_data._Mylast;

  0003b	8b 45 dc	 mov	 eax, DWORD PTR __My_data$[ebp]
  0003e	83 c0 04	 add	 eax, 4
  00041	89 45 d8	 mov	 DWORD PTR __Mylast$[ebp], eax

; 1256 : 
; 1257 :         const auto _Size = static_cast<size_type>(_Mylast - _Myfirst);

  00044	8b 45 d8	 mov	 eax, DWORD PTR __Mylast$[ebp]
  00047	8b 4d d4	 mov	 ecx, DWORD PTR __Myfirst$[ebp]
  0004a	8b 00		 mov	 eax, DWORD PTR [eax]
  0004c	2b 01		 sub	 eax, DWORD PTR [ecx]
  0004e	c1 f8 02	 sar	 eax, 2
  00051	89 45 b8	 mov	 DWORD PTR __Size$[ebp], eax

; 1733 :         return _Mypair._Get_first();

  00054	8b 45 e4	 mov	 eax, DWORD PTR _this$[ebp]
; File C:\Program Files (x86)\Microsoft Visual Studio\2019\Community\VC\Tools\MSVC\14.28.29333\include\xmemory

; 1347 :         return *this;

  00057	89 45 d0	 mov	 DWORD PTR $T7[ebp], eax
; File C:\Program Files (x86)\Microsoft Visual Studio\2019\Community\VC\Tools\MSVC\14.28.29333\include\vector

; 1733 :         return _Mypair._Get_first();

  0005a	8b 45 d0	 mov	 eax, DWORD PTR $T7[ebp]
  0005d	89 45 b4	 mov	 DWORD PTR $T3[ebp], eax
; File C:\Program Files (x86)\Microsoft Visual Studio\2019\Community\VC\Tools\MSVC\14.28.29333\include\xmemory

; 56   :     constexpr bool _Overflow_is_possible = _Ty_size > 1;

  00060	c6 45 ee 01	 mov	 BYTE PTR __Overflow_is_possible$8[ebp], 1

; 57   : 
; 58   :     if _CONSTEXPR_IF (_Overflow_is_possible) {
; 59   :         constexpr size_t _Max_possible = static_cast<size_t>(-1) / _Ty_size;

  00064	c7 45 b0 ff ff
	ff 3f		 mov	 DWORD PTR __Max_possible$2[ebp], 1073741823 ; 3fffffffH

; 60   :         if (_Count > _Max_possible) {

  0006b	81 7d 08 ff ff
	ff 3f		 cmp	 DWORD PTR __Newcapacity$[ebp], 1073741823 ; 3fffffffH
  00072	76 05		 jbe	 SHORT $LN17@Reallocate

; 61   :             _Throw_bad_array_new_length(); // multiply overflow

  00074	e8 00 00 00 00	 call	 ?_Throw_bad_array_new_length@std@@YAXXZ ; std::_Throw_bad_array_new_length
$LN17@Reallocate:

; 62   :         }
; 63   :     }
; 64   : 
; 65   :     return _Count * _Ty_size;

  00079	8b 45 08	 mov	 eax, DWORD PTR __Newcapacity$[ebp]
  0007c	c1 e0 02	 shl	 eax, 2
  0007f	89 45 cc	 mov	 DWORD PTR $T6[ebp], eax

; 814  :         return static_cast<_Ty*>(_Allocate<_New_alignof<_Ty>>(_Get_size_of_n<sizeof(_Ty)>(_Count)));

  00082	ff 75 cc	 push	 DWORD PTR $T6[ebp]
  00085	e8 00 00 00 00	 call	 ??$_Allocate@$07U_Default_allocate_traits@std@@$0A@@std@@YAPAXI@Z ; std::_Allocate<8,std::_Default_allocate_traits,0>
  0008a	59		 pop	 ecx
  0008b	89 45 e0	 mov	 DWORD PTR __Newvec$[ebp], eax
; File C:\Program Files (x86)\Microsoft Visual Studio\2019\Community\VC\Tools\MSVC\14.28.29333\include\vector

; 1261 :         _TRY_BEGIN

  0008e	83 65 fc 00	 and	 DWORD PTR __$EHRec$[ebp+12], 0

; 1262 :         _Umove_if_noexcept(_Myfirst, _Mylast, _Newvec);

  00092	8b 45 d8	 mov	 eax, DWORD PTR __Mylast$[ebp]
  00095	8b 00		 mov	 eax, DWORD PTR [eax]
  00097	89 45 c0	 mov	 DWORD PTR __Last$[ebp], eax
  0009a	8b 45 d4	 mov	 eax, DWORD PTR __Myfirst$[ebp]
  0009d	8b 00		 mov	 eax, DWORD PTR [eax]
  0009f	89 45 bc	 mov	 DWORD PTR __First$[ebp], eax

; 1607 :         _Umove_if_noexcept1(_First, _Last, _Dest,

  000a2	33 c0		 xor	 eax, eax
  000a4	88 45 ef	 mov	 BYTE PTR $T9[ebp], al
  000a7	8a 45 ef	 mov	 al, BYTE PTR $T9[ebp]
  000aa	88 45 e8	 mov	 BYTE PTR ___formal$[ebp], al

; 1733 :         return _Mypair._Get_first();

  000ad	8b 45 e4	 mov	 eax, DWORD PTR _this$[ebp]
; File C:\Program Files (x86)\Microsoft Visual Studio\2019\Community\VC\Tools\MSVC\14.28.29333\include\xmemory

; 1347 :         return *this;

  000b0	89 45 c8	 mov	 DWORD PTR $T5[ebp], eax
; File C:\Program Files (x86)\Microsoft Visual Studio\2019\Community\VC\Tools\MSVC\14.28.29333\include\vector

; 1733 :         return _Mypair._Get_first();

  000b3	8b 45 c8	 mov	 eax, DWORD PTR $T5[ebp]
  000b6	89 45 c4	 mov	 DWORD PTR $T4[ebp], eax

; 1597 :         _Uninitialized_move(_First, _Last, _Dest, _Getal());

  000b9	ff 75 c4	 push	 DWORD PTR $T4[ebp]
  000bc	ff 75 e0	 push	 DWORD PTR __Newvec$[ebp]
  000bf	ff 75 c0	 push	 DWORD PTR __Last$[ebp]
  000c2	ff 75 bc	 push	 DWORD PTR __First$[ebp]
  000c5	e8 00 00 00 00	 call	 ??$_Uninitialized_move@PAPAVCGraphicImageInstance@@V?$allocator@PAVCGraphicImageInstance@@@std@@@std@@YAPAPAVCGraphicImageInstance@@QAPAV1@0PAPAV1@AAV?$allocator@PAVCGraphicImageInstance@@@0@@Z ; std::_Uninitialized_move<CGraphicImageInstance * *,std::allocator<CGraphicImageInstance *> >
  000ca	83 c4 10	 add	 esp, 16			; 00000010H

; 1262 :         _Umove_if_noexcept(_Myfirst, _Mylast, _Newvec);

  000cd	eb 24		 jmp	 SHORT $LN4@Reallocate
__catch$?_Reallocate_exactly@?$vector@PAVCGraphicImageInstance@@V?$allocator@PAVCGraphicImageInstance@@@std@@@std@@AAEXI@Z$0:

; 1263 :         _CATCH_ALL
; 1264 :         _Getal().deallocate(_Newvec, _Newcapacity);

  000cf	ff 75 08	 push	 DWORD PTR __Newcapacity$[ebp]
  000d2	ff 75 e0	 push	 DWORD PTR __Newvec$[ebp]
  000d5	8b 4d e4	 mov	 ecx, DWORD PTR _this$[ebp]
  000d8	e8 00 00 00 00	 call	 ?_Getal@?$vector@PAVCGraphicImageInstance@@V?$allocator@PAVCGraphicImageInstance@@@std@@@std@@AAEAAV?$allocator@PAVCGraphicImageInstance@@@2@XZ ; std::vector<CGraphicImageInstance *,std::allocator<CGraphicImageInstance *> >::_Getal
  000dd	8b c8		 mov	 ecx, eax
  000df	e8 00 00 00 00	 call	 ?deallocate@?$allocator@PAVCGraphicImageInstance@@@std@@QAEXQAPAVCGraphicImageInstance@@I@Z ; std::allocator<CGraphicImageInstance *>::deallocate

; 1265 :         _RERAISE;

  000e4	6a 00		 push	 0
  000e6	6a 00		 push	 0
  000e8	e8 00 00 00 00	 call	 __CxxThrowException@8

; 1266 :         _CATCH_END

  000ed	b8 00 00 00 00	 mov	 eax, $LN7@Reallocate
  000f2	c3		 ret	 0
$LN4@Reallocate:
  000f3	83 4d fc ff	 or	 DWORD PTR __$EHRec$[ebp+12], -1
  000f7	eb 04		 jmp	 SHORT __tryend$?_Reallocate_exactly@?$vector@PAVCGraphicImageInstance@@V?$allocator@PAVCGraphicImageInstance@@@std@@@std@@AAEXI@Z$1
$LN7@Reallocate:
; File C:\Program Files (x86)\Microsoft Visual Studio\2019\Community\VC\Tools\MSVC\14.28.29333\include\xmemory
  000f9	83 4d fc ff	 or	 DWORD PTR __$EHRec$[ebp+12], -1
__tryend$?_Reallocate_exactly@?$vector@PAVCGraphicImageInstance@@V?$allocator@PAVCGraphicImageInstance@@@std@@@std@@AAEXI@Z$1:
; File C:\Program Files (x86)\Microsoft Visual Studio\2019\Community\VC\Tools\MSVC\14.28.29333\include\vector

; 1267 : 
; 1268 :         _Change_array(_Newvec, _Size, _Newcapacity);

  000fd	ff 75 08	 push	 DWORD PTR __Newcapacity$[ebp]
  00100	ff 75 b8	 push	 DWORD PTR __Size$[ebp]
  00103	ff 75 e0	 push	 DWORD PTR __Newvec$[ebp]
  00106	8b 4d e4	 mov	 ecx, DWORD PTR _this$[ebp]
  00109	e8 00 00 00 00	 call	 ?_Change_array@?$vector@PAVCGraphicImageInstance@@V?$allocator@PAVCGraphicImageInstance@@@std@@@std@@AAEXQAPAVCGraphicImageInstance@@II@Z ; std::vector<CGraphicImageInstance *,std::allocator<CGraphicImageInstance *> >::_Change_array
$LN20@Reallocate:

; 1269 :     }

  0010e	8b 4d f4	 mov	 ecx, DWORD PTR __$EHRec$[ebp+4]
  00111	64 89 0d 00 00
	00 00		 mov	 DWORD PTR fs:0, ecx
  00118	59		 pop	 ecx
  00119	5f		 pop	 edi
  0011a	5e		 pop	 esi
  0011b	5b		 pop	 ebx
  0011c	c9		 leave
  0011d	c2 04 00	 ret	 4
  00120	cc		 int	 3
  00121	cc		 int	 3
  00122	cc		 int	 3
  00123	cc		 int	 3
  00124	cc		 int	 3
_TEXT	ENDS
;	COMDAT text$x
text$x	SEGMENT
__ehhandler$?_Reallocate_exactly@?$vector@PAVCGraphicImageInstance@@V?$allocator@PAVCGraphicImageInstance@@@std@@@std@@AAEXI@Z:
  00000	90		 npad	 1
  00001	90		 npad	 1
  00002	8b 54 24 08	 mov	 edx, DWORD PTR [esp+8]
  00006	8d 42 0c	 lea	 eax, DWORD PTR [edx+12]
  00009	8b 4a ac	 mov	 ecx, DWORD PTR [edx-84]
  0000c	33 c8		 xor	 ecx, eax
  0000e	e8 00 00 00 00	 call	 @__security_check_cookie@4
  00013	b8 00 00 00 00	 mov	 eax, OFFSET __ehfuncinfo$?_Reallocate_exactly@?$vector@PAVCGraphicImageInstance@@V?$allocator@PAVCGraphicImageInstance@@@std@@@std@@AAEXI@Z
  00018	e9 00 00 00 00	 jmp	 ___CxxFrameHandler3
text$x	ENDS
?_Reallocate_exactly@?$vector@PAVCGraphicImageInstance@@V?$allocator@PAVCGraphicImageInstance@@@std@@@std@@AAEXI@Z ENDP ; std::vector<CGraphicImageInstance *,std::allocator<CGraphicImageInstance *> >::_Reallocate_exactly
; Function compile flags: /Odspy
; File C:\Program Files (x86)\Microsoft Visual Studio\2019\Community\VC\Tools\MSVC\14.28.29333\include\xmemory
;	COMDAT ?deallocate@?$allocator@PAVCGraphicImageInstance@@@std@@QAEXQAPAVCGraphicImageInstance@@I@Z
_TEXT	SEGMENT
_this$ = -4						; size = 4
__Ptr$ = 8						; size = 4
__Count$ = 12						; size = 4
?deallocate@?$allocator@PAVCGraphicImageInstance@@@std@@QAEXQAPAVCGraphicImageInstance@@I@Z PROC ; std::allocator<CGraphicImageInstance *>::deallocate, COMDAT
; _this$ = ecx

; 808  :     void deallocate(_Ty* const _Ptr, const size_t _Count) {

  00000	55		 push	 ebp
  00001	8b ec		 mov	 ebp, esp
  00003	51		 push	 ecx
  00004	89 4d fc	 mov	 DWORD PTR _this$[ebp], ecx

; 809  :         // no overflow check on the following multiply; we assume _Allocate did that check
; 810  :         _Deallocate<_New_alignof<_Ty>>(_Ptr, sizeof(_Ty) * _Count);

  00007	8b 45 0c	 mov	 eax, DWORD PTR __Count$[ebp]
  0000a	c1 e0 02	 shl	 eax, 2
  0000d	50		 push	 eax
  0000e	ff 75 08	 push	 DWORD PTR __Ptr$[ebp]
  00011	e8 00 00 00 00	 call	 ??$_Deallocate@$07$0A@@std@@YAXPAXI@Z ; std::_Deallocate<8,0>
  00016	59		 pop	 ecx
  00017	59		 pop	 ecx

; 811  :     }

  00018	c9		 leave
  00019	c2 08 00	 ret	 8
?deallocate@?$allocator@PAVCGraphicImageInstance@@@std@@QAEXQAPAVCGraphicImageInstance@@I@Z ENDP ; std::allocator<CGraphicImageInstance *>::deallocate
_TEXT	ENDS
; Function compile flags: /Odspy
; File D:\Metin2 Server Files\mainline\SRC_2014\Metin2Client\EterLib\Pool.h
;	COMDAT ?Delete@?$CDynamicPool@VCGraphicImageInstance@@@@KAXPAVCGraphicImageInstance@@@Z
_TEXT	SEGMENT
tv70 = -8						; size = 4
$T1 = -4						; size = 4
_pkData$ = 8						; size = 4
?Delete@?$CDynamicPool@VCGraphicImageInstance@@@@KAXPAVCGraphicImageInstance@@@Z PROC ; CDynamicPool<CGraphicImageInstance>::Delete, COMDAT

; 109  : 		{

  00000	55		 push	 ebp
  00001	8b ec		 mov	 ebp, esp
  00003	51		 push	 ecx
  00004	51		 push	 ecx

; 110  : 			delete pkData;

  00005	8b 45 08	 mov	 eax, DWORD PTR _pkData$[ebp]
  00008	89 45 fc	 mov	 DWORD PTR $T1[ebp], eax
  0000b	83 7d fc 00	 cmp	 DWORD PTR $T1[ebp], 0
  0000f	74 11		 je	 SHORT $LN3@Delete
  00011	6a 01		 push	 1
  00013	8b 45 fc	 mov	 eax, DWORD PTR $T1[ebp]
  00016	8b 00		 mov	 eax, DWORD PTR [eax]
  00018	8b 4d fc	 mov	 ecx, DWORD PTR $T1[ebp]
  0001b	ff 10		 call	 DWORD PTR [eax]
  0001d	89 45 f8	 mov	 DWORD PTR tv70[ebp], eax
  00020	eb 04		 jmp	 SHORT $LN1@Delete
$LN3@Delete:
  00022	83 65 f8 00	 and	 DWORD PTR tv70[ebp], 0
$LN1@Delete:

; 111  : 		}

  00026	c9		 leave
  00027	c3		 ret	 0
?Delete@?$CDynamicPool@VCGraphicImageInstance@@@@KAXPAVCGraphicImageInstance@@@Z ENDP ; CDynamicPool<CGraphicImageInstance>::Delete
_TEXT	ENDS
; Function compile flags: /Odspy
; File D:\Metin2 Server Files\mainline\SRC_2014\Metin2Client\EterLib\Pool.h
; File C:\Program Files (x86)\Microsoft Visual Studio\2019\Community\VC\Tools\MSVC\14.28.29333\include\vector
; File D:\Metin2 Server Files\mainline\SRC_2014\Metin2Client\EterLib\Pool.h
; File C:\Program Files (x86)\Microsoft Visual Studio\2019\Community\VC\Tools\MSVC\14.28.29333\include\vector
; File D:\Metin2 Server Files\mainline\SRC_2014\Metin2Client\EterLib\Pool.h
; File C:\Program Files (x86)\Microsoft Visual Studio\2019\Community\VC\Tools\MSVC\14.28.29333\include\vector
; File D:\Metin2 Server Files\mainline\SRC_2014\Metin2Client\EterLib\Pool.h
; File C:\Program Files (x86)\Microsoft Visual Studio\2019\Community\VC\Tools\MSVC\14.28.29333\include\vector
; File D:\Metin2 Server Files\mainline\SRC_2014\Metin2Client\EterLib\Pool.h
; File C:\Program Files (x86)\Microsoft Visual Studio\2019\Community\VC\Tools\MSVC\14.28.29333\include\vector
; File C:\Program Files (x86)\Microsoft Visual Studio\2019\Community\VC\Tools\MSVC\14.28.29333\include\xstddef
; File C:\Program Files (x86)\Microsoft Visual Studio\2019\Community\VC\Tools\MSVC\14.28.29333\include\vector
; File C:\Program Files (x86)\Microsoft Visual Studio\2019\Community\VC\Tools\MSVC\14.28.29333\include\xmemory
; File C:\Program Files (x86)\Microsoft Visual Studio\2019\Community\VC\Tools\MSVC\14.28.29333\include\vector
; File D:\Metin2 Server Files\mainline\SRC_2014\Metin2Client\EterLib\Pool.h
;	COMDAT ?Alloc@?$CDynamicPool@VCGraphicImageInstance@@@@QAEPAVCGraphicImageInstance@@XZ
_TEXT	SEGMENT
$T2 = -84						; size = 4
$T3 = -80						; size = 4
_pkFreeData$ = -76					; size = 4
$T4 = -72						; size = 4
__Ptr$ = -68						; size = 4
__My_data$5 = -64					; size = 4
$T6 = -60						; size = 4
__My_data$7 = -56					; size = 4
$T8 = -52						; size = 4
_this$ = -48						; size = 4
_pkNewData$9 = -44					; size = 4
tv80 = -40						; size = 4
$T10 = -36						; size = 4
tv130 = -32						; size = 4
__My_data$11 = -28					; size = 4
__Mylast$12 = -24					; size = 4
_this$ = -20						; size = 4
$T13 = -13						; size = 1
__$EHRec$ = -12						; size = 12
?Alloc@?$CDynamicPool@VCGraphicImageInstance@@@@QAEPAVCGraphicImageInstance@@XZ PROC ; CDynamicPool<CGraphicImageInstance>::Alloc, COMDAT
; _this$ = ecx

; 62   : 		{

  00000	55		 push	 ebp
  00001	8b ec		 mov	 ebp, esp
  00003	6a ff		 push	 -1
  00005	68 00 00 00 00	 push	 __ehhandler$?Alloc@?$CDynamicPool@VCGraphicImageInstance@@@@QAEPAVCGraphicImageInstance@@XZ
  0000a	64 a1 00 00 00
	00		 mov	 eax, DWORD PTR fs:0
  00010	50		 push	 eax
  00011	83 ec 48	 sub	 esp, 72			; 00000048H
  00014	a1 00 00 00 00	 mov	 eax, DWORD PTR ___security_cookie
  00019	33 c5		 xor	 eax, ebp
  0001b	50		 push	 eax
  0001c	8d 45 f4	 lea	 eax, DWORD PTR __$EHRec$[ebp]
  0001f	64 a3 00 00 00
	00		 mov	 DWORD PTR fs:0, eax
  00025	89 4d ec	 mov	 DWORD PTR _this$[ebp], ecx
; File C:\Program Files (x86)\Microsoft Visual Studio\2019\Community\VC\Tools\MSVC\14.28.29333\include\vector

; 1478 :         auto& _My_data = _Mypair._Myval2;

  00028	8b 45 ec	 mov	 eax, DWORD PTR _this$[ebp]
  0002b	83 c0 10	 add	 eax, 16			; 00000010H
  0002e	89 45 e4	 mov	 DWORD PTR __My_data$11[ebp], eax

; 1479 :         return _My_data._Myfirst == _My_data._Mylast;

  00031	8b 45 e4	 mov	 eax, DWORD PTR __My_data$11[ebp]
  00034	8b 4d e4	 mov	 ecx, DWORD PTR __My_data$11[ebp]
  00037	8b 00		 mov	 eax, DWORD PTR [eax]
  00039	3b 41 04	 cmp	 eax, DWORD PTR [ecx+4]
  0003c	75 09		 jne	 SHORT $LN9@Alloc
  0003e	c7 45 e0 01 00
	00 00		 mov	 DWORD PTR tv130[ebp], 1
  00045	eb 04		 jmp	 SHORT $LN10@Alloc
$LN9@Alloc:
  00047	83 65 e0 00	 and	 DWORD PTR tv130[ebp], 0
$LN10@Alloc:
  0004b	8a 45 e0	 mov	 al, BYTE PTR tv130[ebp]
  0004e	88 45 f3	 mov	 BYTE PTR $T13[ebp], al
; File D:\Metin2 Server Files\mainline\SRC_2014\Metin2Client\EterLib\Pool.h

; 63   : 			if (m_kVct_pkFree.empty())

  00051	0f b6 45 f3	 movzx	 eax, BYTE PTR $T13[ebp]
  00055	85 c0		 test	 eax, eax
  00057	74 57		 je	 SHORT $LN2@Alloc

; 64   : 			{
; 65   : 				T* pkNewData=new T;

  00059	6a 20		 push	 32			; 00000020H
  0005b	e8 00 00 00 00	 call	 ??2@YAPAXI@Z		; operator new
  00060	59		 pop	 ecx
  00061	89 45 dc	 mov	 DWORD PTR $T10[ebp], eax
  00064	83 65 fc 00	 and	 DWORD PTR __$EHRec$[ebp+8], 0
  00068	83 7d dc 00	 cmp	 DWORD PTR $T10[ebp], 0
  0006c	74 0d		 je	 SHORT $LN4@Alloc
  0006e	8b 4d dc	 mov	 ecx, DWORD PTR $T10[ebp]
  00071	e8 00 00 00 00	 call	 ??0CGraphicImageInstance@@QAE@XZ ; CGraphicImageInstance::CGraphicImageInstance
  00076	89 45 d8	 mov	 DWORD PTR tv80[ebp], eax
  00079	eb 04		 jmp	 SHORT $LN5@Alloc
$LN4@Alloc:
  0007b	83 65 d8 00	 and	 DWORD PTR tv80[ebp], 0
$LN5@Alloc:
  0007f	8b 45 d8	 mov	 eax, DWORD PTR tv80[ebp]
  00082	89 45 cc	 mov	 DWORD PTR $T8[ebp], eax
  00085	83 4d fc ff	 or	 DWORD PTR __$EHRec$[ebp+8], -1
  00089	8b 45 cc	 mov	 eax, DWORD PTR $T8[ebp]
  0008c	89 45 d4	 mov	 DWORD PTR _pkNewData$9[ebp], eax
; File C:\Program Files (x86)\Microsoft Visual Studio\2019\Community\VC\Tools\MSVC\14.28.29333\include\vector

; 717  :         emplace_back(_Val);

  0008f	8d 45 d4	 lea	 eax, DWORD PTR _pkNewData$9[ebp]
  00092	50		 push	 eax
; File D:\Metin2 Server Files\mainline\SRC_2014\Metin2Client\EterLib\Pool.h

; 66   : 				m_kVct_pkData.push_back(pkNewData);

  00093	8b 4d ec	 mov	 ecx, DWORD PTR _this$[ebp]
  00096	83 c1 04	 add	 ecx, 4
; File C:\Program Files (x86)\Microsoft Visual Studio\2019\Community\VC\Tools\MSVC\14.28.29333\include\vector

; 717  :         emplace_back(_Val);

  00099	e8 00 00 00 00	 call	 ??$emplace_back@ABQAVCGraphicImageInstance@@@?$vector@PAVCGraphicImageInstance@@V?$allocator@PAVCGraphicImageInstance@@@std@@@std@@QAEXABQAVCGraphicImageInstance@@@Z ; std::vector<CGraphicImageInstance *,std::allocator<CGraphicImageInstance *> >::emplace_back<CGraphicImageInstance * const &>
; File D:\Metin2 Server Files\mainline\SRC_2014\Metin2Client\EterLib\Pool.h

; 67   : 				++m_uUsedCapacity;

  0009e	8b 45 ec	 mov	 eax, DWORD PTR _this$[ebp]
  000a1	8b 40 20	 mov	 eax, DWORD PTR [eax+32]
  000a4	40		 inc	 eax
  000a5	8b 4d ec	 mov	 ecx, DWORD PTR _this$[ebp]
  000a8	89 41 20	 mov	 DWORD PTR [ecx+32], eax

; 68   : 				return pkNewData;

  000ab	8b 45 d4	 mov	 eax, DWORD PTR _pkNewData$9[ebp]
  000ae	eb 65		 jmp	 SHORT $LN1@Alloc
$LN2@Alloc:
; File C:\Program Files (x86)\Microsoft Visual Studio\2019\Community\VC\Tools\MSVC\14.28.29333\include\vector

; 1554 :         auto& _My_data = _Mypair._Myval2;

  000b0	8b 45 ec	 mov	 eax, DWORD PTR _this$[ebp]
  000b3	83 c0 10	 add	 eax, 16			; 00000010H
  000b6	89 45 c8	 mov	 DWORD PTR __My_data$7[ebp], eax

; 1555 : #if _CONTAINER_DEBUG_LEVEL > 0
; 1556 :         _STL_VERIFY(_My_data._Myfirst != _My_data._Mylast, "back() called on empty vector");
; 1557 : #endif // _CONTAINER_DEBUG_LEVEL > 0
; 1558 : 
; 1559 :         return _My_data._Mylast[-1];

  000b9	6a 04		 push	 4
  000bb	58		 pop	 eax
  000bc	6b c0 ff	 imul	 eax, eax, -1
  000bf	8b 4d c8	 mov	 ecx, DWORD PTR __My_data$7[ebp]
  000c2	03 41 04	 add	 eax, DWORD PTR [ecx+4]
  000c5	89 45 c4	 mov	 DWORD PTR $T6[ebp], eax
; File D:\Metin2 Server Files\mainline\SRC_2014\Metin2Client\EterLib\Pool.h

; 71   : 			T* pkFreeData=m_kVct_pkFree.back();

  000c8	8b 45 c4	 mov	 eax, DWORD PTR $T6[ebp]
  000cb	8b 00		 mov	 eax, DWORD PTR [eax]
  000cd	89 45 b4	 mov	 DWORD PTR _pkFreeData$[ebp], eax

; 72   : 			m_kVct_pkFree.pop_back();

  000d0	8b 45 ec	 mov	 eax, DWORD PTR _this$[ebp]
  000d3	83 c0 10	 add	 eax, 16			; 00000010H
  000d6	89 45 d0	 mov	 DWORD PTR _this$[ebp], eax
; File C:\Program Files (x86)\Microsoft Visual Studio\2019\Community\VC\Tools\MSVC\14.28.29333\include\vector

; 1329 :         auto& _My_data   = _Mypair._Myval2;

  000d9	8b 45 d0	 mov	 eax, DWORD PTR _this$[ebp]
  000dc	89 45 c0	 mov	 DWORD PTR __My_data$5[ebp], eax

; 1330 :         pointer& _Mylast = _My_data._Mylast;

  000df	8b 45 c0	 mov	 eax, DWORD PTR __My_data$5[ebp]
  000e2	83 c0 04	 add	 eax, 4
  000e5	89 45 e8	 mov	 DWORD PTR __Mylast$12[ebp], eax

; 1331 : 
; 1332 : #if _ITERATOR_DEBUG_LEVEL == 2
; 1333 :         _STL_VERIFY(_My_data._Myfirst != _Mylast, "vector empty before pop");
; 1334 :         _Orphan_range(_Mylast - 1, _Mylast);
; 1335 : #endif // _ITERATOR_DEBUG_LEVEL == 2
; 1336 : 
; 1337 :         _Alty_traits::destroy(_Getal(), _Unfancy(_Mylast - 1));

  000e8	8b 45 e8	 mov	 eax, DWORD PTR __Mylast$12[ebp]
  000eb	8b 00		 mov	 eax, DWORD PTR [eax]
  000ed	83 e8 04	 sub	 eax, 4
  000f0	89 45 bc	 mov	 DWORD PTR __Ptr$[ebp], eax
; File C:\Program Files (x86)\Microsoft Visual Studio\2019\Community\VC\Tools\MSVC\14.28.29333\include\xstddef

; 289  :     return _Ptr;

  000f3	8b 45 bc	 mov	 eax, DWORD PTR __Ptr$[ebp]
  000f6	89 45 b0	 mov	 DWORD PTR $T3[ebp], eax
; File C:\Program Files (x86)\Microsoft Visual Studio\2019\Community\VC\Tools\MSVC\14.28.29333\include\vector

; 1733 :         return _Mypair._Get_first();

  000f9	8b 45 d0	 mov	 eax, DWORD PTR _this$[ebp]
; File C:\Program Files (x86)\Microsoft Visual Studio\2019\Community\VC\Tools\MSVC\14.28.29333\include\xmemory

; 1347 :         return *this;

  000fc	89 45 b8	 mov	 DWORD PTR $T4[ebp], eax
; File C:\Program Files (x86)\Microsoft Visual Studio\2019\Community\VC\Tools\MSVC\14.28.29333\include\vector

; 1733 :         return _Mypair._Get_first();

  000ff	8b 45 b8	 mov	 eax, DWORD PTR $T4[ebp]
  00102	89 45 ac	 mov	 DWORD PTR $T2[ebp], eax

; 1338 :         --_Mylast;

  00105	8b 45 e8	 mov	 eax, DWORD PTR __Mylast$12[ebp]
  00108	8b 00		 mov	 eax, DWORD PTR [eax]
  0010a	83 e8 04	 sub	 eax, 4
  0010d	8b 4d e8	 mov	 ecx, DWORD PTR __Mylast$12[ebp]
  00110	89 01		 mov	 DWORD PTR [ecx], eax
; File D:\Metin2 Server Files\mainline\SRC_2014\Metin2Client\EterLib\Pool.h

; 73   : 			return pkFreeData;

  00112	8b 45 b4	 mov	 eax, DWORD PTR _pkFreeData$[ebp]
$LN1@Alloc:

; 74   : 		}

  00115	8b 4d f4	 mov	 ecx, DWORD PTR __$EHRec$[ebp]
  00118	64 89 0d 00 00
	00 00		 mov	 DWORD PTR fs:0, ecx
  0011f	59		 pop	 ecx
  00120	c9		 leave
  00121	c3		 ret	 0
_TEXT	ENDS
;	COMDAT text$x
text$x	SEGMENT
__unwindfunclet$?Alloc@?$CDynamicPool@VCGraphicImageInstance@@@@QAEPAVCGraphicImageInstance@@XZ$0:
  00000	6a 20		 push	 32			; 00000020H
  00002	ff 75 dc	 push	 DWORD PTR $T10[ebp]
  00005	e8 00 00 00 00	 call	 ??3@YAXPAXI@Z		; operator delete
  0000a	59		 pop	 ecx
  0000b	59		 pop	 ecx
  0000c	c3		 ret	 0
  0000d	cc		 int	 3
  0000e	cc		 int	 3
  0000f	cc		 int	 3
  00010	cc		 int	 3
  00011	cc		 int	 3
__ehhandler$?Alloc@?$CDynamicPool@VCGraphicImageInstance@@@@QAEPAVCGraphicImageInstance@@XZ:
  00012	90		 npad	 1
  00013	90		 npad	 1
  00014	8b 54 24 08	 mov	 edx, DWORD PTR [esp+8]
  00018	8d 42 0c	 lea	 eax, DWORD PTR [edx+12]
  0001b	8b 4a b4	 mov	 ecx, DWORD PTR [edx-76]
  0001e	33 c8		 xor	 ecx, eax
  00020	e8 00 00 00 00	 call	 @__security_check_cookie@4
  00025	b8 00 00 00 00	 mov	 eax, OFFSET __ehfuncinfo$?Alloc@?$CDynamicPool@VCGraphicImageInstance@@@@QAEPAVCGraphicImageInstance@@XZ
  0002a	e9 00 00 00 00	 jmp	 ___CxxFrameHandler3
text$x	ENDS
?Alloc@?$CDynamicPool@VCGraphicImageInstance@@@@QAEPAVCGraphicImageInstance@@XZ ENDP ; CDynamicPool<CGraphicImageInstance>::Alloc
; Function compile flags: /Odspy
; File D:\Metin2 Server Files\mainline\SRC_2014\Metin2Client\EterLib\Pool.h
; File C:\Program Files (x86)\Microsoft Visual Studio\2019\Community\VC\Tools\MSVC\14.28.29333\include\vector
; File C:\Program Files (x86)\Microsoft Visual Studio\2019\Community\VC\Tools\MSVC\14.28.29333\include\xstddef
; File C:\Program Files (x86)\Microsoft Visual Studio\2019\Community\VC\Tools\MSVC\14.28.29333\include\vector
; File C:\Program Files (x86)\Microsoft Visual Studio\2019\Community\VC\Tools\MSVC\14.28.29333\include\xstddef
; File C:\Program Files (x86)\Microsoft Visual Studio\2019\Community\VC\Tools\MSVC\14.28.29333\include\vector
; File D:\Metin2 Server Files\mainline\SRC_2014\Metin2Client\EterLib\Pool.h
;	COMDAT ?Destroy@?$CDynamicPool@VCGraphicImageInstance@@@@QAEXXZ
_TEXT	SEGMENT
$T1 = -44						; size = 4
$T2 = -40						; size = 4
$T3 = -36						; size = 4
$T4 = -32						; size = 4
$T5 = -28						; size = 4
___param0$ = -24					; size = 4
$T6 = -20						; size = 4
___param0$ = -16					; size = 4
__My_data$7 = -12					; size = 4
__My_data$8 = -8					; size = 4
_this$ = -4						; size = 4
?Destroy@?$CDynamicPool@VCGraphicImageInstance@@@@QAEXXZ PROC ; CDynamicPool<CGraphicImageInstance>::Destroy, COMDAT
; _this$ = ecx

; 38   : 		{

  00000	55		 push	 ebp
  00001	8b ec		 mov	 ebp, esp
  00003	83 ec 2c	 sub	 esp, 44			; 0000002cH
  00006	89 4d fc	 mov	 DWORD PTR _this$[ebp], ecx
; File C:\Program Files (x86)\Microsoft Visual Studio\2019\Community\VC\Tools\MSVC\14.28.29333\include\vector

; 1420 :         auto& _My_data = _Mypair._Myval2;

  00009	8b 45 fc	 mov	 eax, DWORD PTR _this$[ebp]
  0000c	83 c0 04	 add	 eax, 4
  0000f	89 45 f8	 mov	 DWORD PTR __My_data$8[ebp], eax
; File C:\Program Files (x86)\Microsoft Visual Studio\2019\Community\VC\Tools\MSVC\14.28.29333\include\xstddef

; 275  :     return __builtin_addressof(_Val);

  00012	8b 45 f8	 mov	 eax, DWORD PTR __My_data$8[ebp]
  00015	89 45 d8	 mov	 DWORD PTR $T2[ebp], eax
; File C:\Program Files (x86)\Microsoft Visual Studio\2019\Community\VC\Tools\MSVC\14.28.29333\include\vector

; 1421 :         return iterator(_My_data._Mylast, _STD addressof(_My_data));

  00018	8b 45 f8	 mov	 eax, DWORD PTR __My_data$8[ebp]
  0001b	8b 40 04	 mov	 eax, DWORD PTR [eax+4]
  0001e	89 45 f0	 mov	 DWORD PTR ___param0$[ebp], eax

; 42   :     _Vector_const_iterator(_Tptr _Parg, const _Container_base* _Pvector) noexcept : _Ptr(_Parg) {

  00021	8b 45 f0	 mov	 eax, DWORD PTR ___param0$[ebp]
  00024	89 45 ec	 mov	 DWORD PTR $T6[ebp], eax

; 1421 :         return iterator(_My_data._Mylast, _STD addressof(_My_data));

  00027	8d 45 ec	 lea	 eax, DWORD PTR $T6[ebp]
  0002a	89 45 e0	 mov	 DWORD PTR $T4[ebp], eax

; 1410 :         auto& _My_data = _Mypair._Myval2;

  0002d	8b 45 fc	 mov	 eax, DWORD PTR _this$[ebp]
  00030	83 c0 04	 add	 eax, 4
  00033	89 45 f4	 mov	 DWORD PTR __My_data$7[ebp], eax
; File C:\Program Files (x86)\Microsoft Visual Studio\2019\Community\VC\Tools\MSVC\14.28.29333\include\xstddef

; 275  :     return __builtin_addressof(_Val);

  00036	8b 45 f4	 mov	 eax, DWORD PTR __My_data$7[ebp]
  00039	89 45 d4	 mov	 DWORD PTR $T1[ebp], eax
; File C:\Program Files (x86)\Microsoft Visual Studio\2019\Community\VC\Tools\MSVC\14.28.29333\include\vector

; 1411 :         return iterator(_My_data._Myfirst, _STD addressof(_My_data));

  0003c	8b 45 f4	 mov	 eax, DWORD PTR __My_data$7[ebp]
  0003f	8b 00		 mov	 eax, DWORD PTR [eax]
  00041	89 45 e8	 mov	 DWORD PTR ___param0$[ebp], eax

; 42   :     _Vector_const_iterator(_Tptr _Parg, const _Container_base* _Pvector) noexcept : _Ptr(_Parg) {

  00044	8b 45 e8	 mov	 eax, DWORD PTR ___param0$[ebp]
  00047	89 45 e4	 mov	 DWORD PTR $T5[ebp], eax

; 1411 :         return iterator(_My_data._Myfirst, _STD addressof(_My_data));

  0004a	8d 45 e4	 lea	 eax, DWORD PTR $T5[ebp]
  0004d	89 45 dc	 mov	 DWORD PTR $T3[ebp], eax
; File D:\Metin2 Server Files\mainline\SRC_2014\Metin2Client\EterLib\Pool.h

; 50   : 			std::for_each(m_kVct_pkData.begin(), m_kVct_pkData.end(), Delete);

  00050	68 00 00 00 00	 push	 OFFSET ?Delete@?$CDynamicPool@VCGraphicImageInstance@@@@KAXPAVCGraphicImageInstance@@@Z ; CDynamicPool<CGraphicImageInstance>::Delete
  00055	8b 45 e0	 mov	 eax, DWORD PTR $T4[ebp]
  00058	ff 30		 push	 DWORD PTR [eax]
  0005a	8b 45 dc	 mov	 eax, DWORD PTR $T3[ebp]
  0005d	ff 30		 push	 DWORD PTR [eax]
  0005f	e8 00 00 00 00	 call	 ??$for_each@V?$_Vector_iterator@V?$_Vector_val@U?$_Simple_types@PAVCGraphicImageInstance@@@std@@@std@@@std@@P6AXPAVCGraphicImageInstance@@@Z@std@@YAP6AXPAVCGraphicImageInstance@@@ZV?$_Vector_iterator@V?$_Vector_val@U?$_Simple_types@PAVCGraphicImageInstance@@@std@@@std@@@0@1P6AX0@Z@Z ; std::for_each<std::_Vector_iterator<std::_Vector_val<std::_Simple_types<CGraphicImageInstance *> > >,void (__cdecl*)(CGraphicImageInstance *)>
  00064	83 c4 0c	 add	 esp, 12			; 0000000cH

; 51   : 			m_kVct_pkData.clear();

  00067	8b 4d fc	 mov	 ecx, DWORD PTR _this$[ebp]
  0006a	83 c1 04	 add	 ecx, 4
  0006d	e8 00 00 00 00	 call	 ?clear@?$vector@PAVCGraphicImageInstance@@V?$allocator@PAVCGraphicImageInstance@@@std@@@std@@QAEXXZ ; std::vector<CGraphicImageInstance *,std::allocator<CGraphicImageInstance *> >::clear

; 52   : 			m_kVct_pkFree.clear();

  00072	8b 4d fc	 mov	 ecx, DWORD PTR _this$[ebp]
  00075	83 c1 10	 add	 ecx, 16			; 00000010H
  00078	e8 00 00 00 00	 call	 ?clear@?$vector@PAVCGraphicImageInstance@@V?$allocator@PAVCGraphicImageInstance@@@std@@@std@@QAEXXZ ; std::vector<CGraphicImageInstance *,std::allocator<CGraphicImageInstance *> >::clear

; 53   : 		}

  0007d	c9		 leave
  0007e	c3		 ret	 0
?Destroy@?$CDynamicPool@VCGraphicImageInstance@@@@QAEXXZ ENDP ; CDynamicPool<CGraphicImageInstance>::Destroy
_TEXT	ENDS
; Function compile flags: /Odspy
; File D:\Metin2 Server Files\mainline\SRC_2014\Metin2Client\EterLib\Pool.h
; File C:\Program Files (x86)\Microsoft Visual Studio\2019\Community\VC\Tools\MSVC\14.28.29333\include\vector
; File D:\Metin2 Server Files\mainline\SRC_2014\Metin2Client\EterLib\Pool.h
; File C:\Program Files (x86)\Microsoft Visual Studio\2019\Community\VC\Tools\MSVC\14.28.29333\include\vector
; File D:\Metin2 Server Files\mainline\SRC_2014\Metin2Client\EterLib\Pool.h
;	COMDAT ??1?$CDynamicPool@VCGraphicImageInstance@@@@UAE@XZ
_TEXT	SEGMENT
_this$ = -4						; size = 4
??1?$CDynamicPool@VCGraphicImageInstance@@@@UAE@XZ PROC	; CDynamicPool<CGraphicImageInstance>::~CDynamicPool<CGraphicImageInstance>, COMDAT
; _this$ = ecx

; 18   : 		{

  00000	55		 push	 ebp
  00001	8b ec		 mov	 ebp, esp
  00003	51		 push	 ecx
  00004	89 4d fc	 mov	 DWORD PTR _this$[ebp], ecx
  00007	8b 45 fc	 mov	 eax, DWORD PTR _this$[ebp]
  0000a	c7 00 00 00 00
	00		 mov	 DWORD PTR [eax], OFFSET ??_7?$CDynamicPool@VCGraphicImageInstance@@@@6B@

; 26   : 		}

  00010	8b 4d fc	 mov	 ecx, DWORD PTR _this$[ebp]
  00013	83 c1 10	 add	 ecx, 16			; 00000010H
; File C:\Program Files (x86)\Microsoft Visual Studio\2019\Community\VC\Tools\MSVC\14.28.29333\include\vector

; 673  :         _Tidy();

  00016	e8 00 00 00 00	 call	 ?_Tidy@?$vector@PAVCGraphicImageInstance@@V?$allocator@PAVCGraphicImageInstance@@@std@@@std@@AAEXXZ ; std::vector<CGraphicImageInstance *,std::allocator<CGraphicImageInstance *> >::_Tidy
; File D:\Metin2 Server Files\mainline\SRC_2014\Metin2Client\EterLib\Pool.h

; 26   : 		}

  0001b	8b 4d fc	 mov	 ecx, DWORD PTR _this$[ebp]
  0001e	83 c1 04	 add	 ecx, 4
; File C:\Program Files (x86)\Microsoft Visual Studio\2019\Community\VC\Tools\MSVC\14.28.29333\include\vector

; 673  :         _Tidy();

  00021	e8 00 00 00 00	 call	 ?_Tidy@?$vector@PAVCGraphicImageInstance@@V?$allocator@PAVCGraphicImageInstance@@@std@@@std@@AAEXXZ ; std::vector<CGraphicImageInstance *,std::allocator<CGraphicImageInstance *> >::_Tidy
; File D:\Metin2 Server Files\mainline\SRC_2014\Metin2Client\EterLib\Pool.h

; 26   : 		}

  00026	c9		 leave
  00027	c3		 ret	 0
??1?$CDynamicPool@VCGraphicImageInstance@@@@UAE@XZ ENDP	; CDynamicPool<CGraphicImageInstance>::~CDynamicPool<CGraphicImageInstance>
_TEXT	ENDS
; Function compile flags: /Odspy
; File D:\Metin2 Server Files\mainline\SRC_2014\Metin2Client\EterLib\Pool.h
; File C:\Program Files (x86)\Microsoft Visual Studio\2019\Community\VC\Tools\MSVC\14.28.29333\include\vector
; File C:\Program Files (x86)\Microsoft Visual Studio\2019\Community\VC\Tools\MSVC\14.28.29333\include\xmemory
; File C:\Program Files (x86)\Microsoft Visual Studio\2019\Community\VC\Tools\MSVC\14.28.29333\include\vector
; File D:\Metin2 Server Files\mainline\SRC_2014\Metin2Client\EterLib\Pool.h
; File C:\Program Files (x86)\Microsoft Visual Studio\2019\Community\VC\Tools\MSVC\14.28.29333\include\vector
; File C:\Program Files (x86)\Microsoft Visual Studio\2019\Community\VC\Tools\MSVC\14.28.29333\include\xmemory
; File C:\Program Files (x86)\Microsoft Visual Studio\2019\Community\VC\Tools\MSVC\14.28.29333\include\vector
; File D:\Metin2 Server Files\mainline\SRC_2014\Metin2Client\EterLib\Pool.h
;	COMDAT ??0?$CDynamicPool@VCGraphicImageInstance@@@@QAE@XZ
_TEXT	SEGMENT
_this$ = -28						; size = 4
_this$ = -24						; size = 4
_this$ = -20						; size = 4
_this$ = -16						; size = 4
_this$1 = -12						; size = 4
_this$2 = -8						; size = 4
_this$ = -4						; size = 4
??0?$CDynamicPool@VCGraphicImageInstance@@@@QAE@XZ PROC	; CDynamicPool<CGraphicImageInstance>::CDynamicPool<CGraphicImageInstance>, COMDAT
; _this$ = ecx

; 11   : 		CDynamicPool()

  00000	55		 push	 ebp
  00001	8b ec		 mov	 ebp, esp
  00003	83 ec 1c	 sub	 esp, 28			; 0000001cH
  00006	89 4d fc	 mov	 DWORD PTR _this$[ebp], ecx

; 12   : 		{

  00009	8b 45 fc	 mov	 eax, DWORD PTR _this$[ebp]
  0000c	c7 00 00 00 00
	00		 mov	 DWORD PTR [eax], OFFSET ??_7?$CDynamicPool@VCGraphicImageInstance@@@@6B@
  00012	8b 45 fc	 mov	 eax, DWORD PTR _this$[ebp]
  00015	83 c0 04	 add	 eax, 4
  00018	89 45 f0	 mov	 DWORD PTR _this$[ebp], eax
; File C:\Program Files (x86)\Microsoft Visual Studio\2019\Community\VC\Tools\MSVC\14.28.29333\include\vector

; 445  :     vector() noexcept(is_nothrow_default_constructible_v<_Alty>) : _Mypair(_Zero_then_variadic_args_t{}) {

  0001b	8b 45 f0	 mov	 eax, DWORD PTR _this$[ebp]
  0001e	89 45 ec	 mov	 DWORD PTR _this$[ebp], eax
; File C:\Program Files (x86)\Microsoft Visual Studio\2019\Community\VC\Tools\MSVC\14.28.29333\include\xmemory

; 1339 :         : _Ty1(), _Myval2(_STD forward<_Other2>(_Val2)...) {}

  00021	8b 45 ec	 mov	 eax, DWORD PTR _this$[ebp]
  00024	89 45 f8	 mov	 DWORD PTR _this$2[ebp], eax
; File C:\Program Files (x86)\Microsoft Visual Studio\2019\Community\VC\Tools\MSVC\14.28.29333\include\vector

; 375  :     _Vector_val() noexcept : _Myfirst(), _Mylast(), _Myend() {}

  00027	8b 45 f8	 mov	 eax, DWORD PTR _this$2[ebp]
  0002a	83 20 00	 and	 DWORD PTR [eax], 0
  0002d	8b 45 f8	 mov	 eax, DWORD PTR _this$2[ebp]
  00030	83 60 04 00	 and	 DWORD PTR [eax+4], 0
  00034	8b 45 f8	 mov	 eax, DWORD PTR _this$2[ebp]
  00037	83 60 08 00	 and	 DWORD PTR [eax+8], 0
; File D:\Metin2 Server Files\mainline\SRC_2014\Metin2Client\EterLib\Pool.h

; 12   : 		{

  0003b	8b 45 fc	 mov	 eax, DWORD PTR _this$[ebp]
  0003e	83 c0 10	 add	 eax, 16			; 00000010H
  00041	89 45 e8	 mov	 DWORD PTR _this$[ebp], eax
; File C:\Program Files (x86)\Microsoft Visual Studio\2019\Community\VC\Tools\MSVC\14.28.29333\include\vector

; 445  :     vector() noexcept(is_nothrow_default_constructible_v<_Alty>) : _Mypair(_Zero_then_variadic_args_t{}) {

  00044	8b 45 e8	 mov	 eax, DWORD PTR _this$[ebp]
  00047	89 45 e4	 mov	 DWORD PTR _this$[ebp], eax
; File C:\Program Files (x86)\Microsoft Visual Studio\2019\Community\VC\Tools\MSVC\14.28.29333\include\xmemory

; 1339 :         : _Ty1(), _Myval2(_STD forward<_Other2>(_Val2)...) {}

  0004a	8b 45 e4	 mov	 eax, DWORD PTR _this$[ebp]
  0004d	89 45 f4	 mov	 DWORD PTR _this$1[ebp], eax
; File C:\Program Files (x86)\Microsoft Visual Studio\2019\Community\VC\Tools\MSVC\14.28.29333\include\vector

; 375  :     _Vector_val() noexcept : _Myfirst(), _Mylast(), _Myend() {}

  00050	8b 45 f4	 mov	 eax, DWORD PTR _this$1[ebp]
  00053	83 20 00	 and	 DWORD PTR [eax], 0
  00056	8b 45 f4	 mov	 eax, DWORD PTR _this$1[ebp]
  00059	83 60 04 00	 and	 DWORD PTR [eax+4], 0
  0005d	8b 45 f4	 mov	 eax, DWORD PTR _this$1[ebp]
  00060	83 60 08 00	 and	 DWORD PTR [eax+8], 0
; File D:\Metin2 Server Files\mainline\SRC_2014\Metin2Client\EterLib\Pool.h

; 14   : 			m_uInitCapacity=0;

  00064	8b 45 fc	 mov	 eax, DWORD PTR _this$[ebp]
  00067	83 60 1c 00	 and	 DWORD PTR [eax+28], 0

; 15   : 			m_uUsedCapacity=0;

  0006b	8b 45 fc	 mov	 eax, DWORD PTR _this$[ebp]
  0006e	83 60 20 00	 and	 DWORD PTR [eax+32], 0

; 16   : 		}

  00072	8b 45 fc	 mov	 eax, DWORD PTR _this$[ebp]
  00075	c9		 leave
  00076	c3		 ret	 0
??0?$CDynamicPool@VCGraphicImageInstance@@@@QAE@XZ ENDP	; CDynamicPool<CGraphicImageInstance>::CDynamicPool<CGraphicImageInstance>
_TEXT	ENDS
; Function compile flags: /Odspy
;	COMDAT ??_GCGraphicImageInstance@@UAEPAXI@Z
_TEXT	SEGMENT
_this$ = -4						; size = 4
___flags$ = 8						; size = 4
??_GCGraphicImageInstance@@UAEPAXI@Z PROC		; CGraphicImageInstance::`scalar deleting destructor', COMDAT
; _this$ = ecx
  00000	55		 push	 ebp
  00001	8b ec		 mov	 ebp, esp
  00003	51		 push	 ecx
  00004	89 4d fc	 mov	 DWORD PTR _this$[ebp], ecx
  00007	8b 4d fc	 mov	 ecx, DWORD PTR _this$[ebp]
  0000a	e8 00 00 00 00	 call	 ??1CGraphicImageInstance@@UAE@XZ ; CGraphicImageInstance::~CGraphicImageInstance
  0000f	8b 45 08	 mov	 eax, DWORD PTR ___flags$[ebp]
  00012	83 e0 01	 and	 eax, 1
  00015	74 0c		 je	 SHORT $LN2@scalar
  00017	6a 20		 push	 32			; 00000020H
  00019	ff 75 fc	 push	 DWORD PTR _this$[ebp]
  0001c	e8 00 00 00 00	 call	 ??3@YAXPAXI@Z		; operator delete
  00021	59		 pop	 ecx
  00022	59		 pop	 ecx
$LN2@scalar:
  00023	8b 45 fc	 mov	 eax, DWORD PTR _this$[ebp]
  00026	c9		 leave
  00027	c2 04 00	 ret	 4
??_GCGraphicImageInstance@@UAEPAXI@Z ENDP		; CGraphicImageInstance::`scalar deleting destructor'
_TEXT	ENDS
; Function compile flags: /Odspy
; File D:\Metin2 Server Files\mainline\SRC_2014\Metin2Client\EterLib\GrpImageInstance.cpp
; File C:\Program Files (x86)\Microsoft Visual Studio\2019\Community\VC\Tools\MSVC\14.28.29333\include\vector
; File D:\Metin2 Server Files\mainline\SRC_2014\Metin2Client\EterLib\GrpImageInstance.cpp
;	COMDAT ?Delete@CGraphicImageInstance@@SAXPAV1@@Z
_TEXT	SEGMENT
_pkData$ = -4						; size = 4
_pkImgInst$ = 8						; size = 4
?Delete@CGraphicImageInstance@@SAXPAV1@@Z PROC		; CGraphicImageInstance::Delete, COMDAT

; 29   : {

  00000	55		 push	 ebp
  00001	8b ec		 mov	 ebp, esp
  00003	51		 push	 ecx

; 30   : 	pkImgInst->Destroy();

  00004	8b 4d 08	 mov	 ecx, DWORD PTR _pkImgInst$[ebp]
  00007	e8 00 00 00 00	 call	 ?Destroy@CGraphicImageInstance@@QAEXXZ ; CGraphicImageInstance::Destroy

; 31   : 	ms_kPool.Free(pkImgInst);

  0000c	8b 45 08	 mov	 eax, DWORD PTR _pkImgInst$[ebp]
  0000f	89 45 fc	 mov	 DWORD PTR _pkData$[ebp], eax
; File C:\Program Files (x86)\Microsoft Visual Studio\2019\Community\VC\Tools\MSVC\14.28.29333\include\vector

; 717  :         emplace_back(_Val);

  00012	8d 45 fc	 lea	 eax, DWORD PTR _pkData$[ebp]
  00015	50		 push	 eax
  00016	b9 10 00 00 00	 mov	 ecx, OFFSET ?ms_kPool@CGraphicImageInstance@@2V?$CDynamicPool@VCGraphicImageInstance@@@@A+16
  0001b	e8 00 00 00 00	 call	 ??$emplace_back@ABQAVCGraphicImageInstance@@@?$vector@PAVCGraphicImageInstance@@V?$allocator@PAVCGraphicImageInstance@@@std@@@std@@QAEXABQAVCGraphicImageInstance@@@Z ; std::vector<CGraphicImageInstance *,std::allocator<CGraphicImageInstance *> >::emplace_back<CGraphicImageInstance * const &>
; File D:\Metin2 Server Files\mainline\SRC_2014\Metin2Client\EterLib\GrpImageInstance.cpp

; 32   : }

  00020	c9		 leave
  00021	c3		 ret	 0
?Delete@CGraphicImageInstance@@SAXPAV1@@Z ENDP		; CGraphicImageInstance::Delete
_TEXT	ENDS
; Function compile flags: /Odspy
; File D:\Metin2 Server Files\mainline\SRC_2014\Metin2Client\EterLib\GrpImageInstance.cpp
;	COMDAT ?New@CGraphicImageInstance@@SAPAV1@XZ
_TEXT	SEGMENT
?New@CGraphicImageInstance@@SAPAV1@XZ PROC		; CGraphicImageInstance::New, COMDAT

; 24   : {

  00000	55		 push	 ebp
  00001	8b ec		 mov	 ebp, esp

; 25   : 	return ms_kPool.Alloc();

  00003	b9 00 00 00 00	 mov	 ecx, OFFSET ?ms_kPool@CGraphicImageInstance@@2V?$CDynamicPool@VCGraphicImageInstance@@@@A ; CGraphicImageInstance::ms_kPool
  00008	e8 00 00 00 00	 call	 ?Alloc@?$CDynamicPool@VCGraphicImageInstance@@@@QAEPAVCGraphicImageInstance@@XZ ; CDynamicPool<CGraphicImageInstance>::Alloc

; 26   : }

  0000d	5d		 pop	 ebp
  0000e	c3		 ret	 0
?New@CGraphicImageInstance@@SAPAV1@XZ ENDP		; CGraphicImageInstance::New
_TEXT	ENDS
; Function compile flags: /Odspy
; File D:\Metin2 Server Files\mainline\SRC_2014\Metin2Client\EterLib\GrpImageInstance.cpp
;	COMDAT ?DestroySystem@CGraphicImageInstance@@SAXXZ
_TEXT	SEGMENT
?DestroySystem@CGraphicImageInstance@@SAXXZ PROC	; CGraphicImageInstance::DestroySystem, COMDAT

; 19   : {

  00000	55		 push	 ebp
  00001	8b ec		 mov	 ebp, esp

; 20   : 	ms_kPool.Destroy();

  00003	b9 00 00 00 00	 mov	 ecx, OFFSET ?ms_kPool@CGraphicImageInstance@@2V?$CDynamicPool@VCGraphicImageInstance@@@@A ; CGraphicImageInstance::ms_kPool
  00008	e8 00 00 00 00	 call	 ?Destroy@?$CDynamicPool@VCGraphicImageInstance@@@@QAEXXZ ; CDynamicPool<CGraphicImageInstance>::Destroy

; 21   : }

  0000d	5d		 pop	 ebp
  0000e	c3		 ret	 0
?DestroySystem@CGraphicImageInstance@@SAXXZ ENDP	; CGraphicImageInstance::DestroySystem
_TEXT	ENDS
; Function compile flags: /Odspy
; File D:\Metin2 Server Files\mainline\SRC_2014\Metin2Client\EterLib\GrpImageInstance.cpp
; File D:\Metin2 Server Files\mainline\SRC_2014\Metin2Client\EterLib\Pool.h
; File D:\Metin2 Server Files\mainline\SRC_2014\Metin2Client\EterLib\GrpImageInstance.cpp
;	COMDAT ?CreateSystem@CGraphicImageInstance@@SAXI@Z
_TEXT	SEGMENT
_uCapacity$ = 8						; size = 4
?CreateSystem@CGraphicImageInstance@@SAXI@Z PROC	; CGraphicImageInstance::CreateSystem, COMDAT

; 14   : {

  00000	55		 push	 ebp
  00001	8b ec		 mov	 ebp, esp
; File D:\Metin2 Server Files\mainline\SRC_2014\Metin2Client\EterLib\Pool.h

; 57   : 			m_uInitCapacity=uCapacity;

  00003	8b 45 08	 mov	 eax, DWORD PTR _uCapacity$[ebp]
  00006	a3 1c 00 00 00	 mov	 DWORD PTR ?ms_kPool@CGraphicImageInstance@@2V?$CDynamicPool@VCGraphicImageInstance@@@@A+28, eax

; 58   : 			m_kVct_pkData.reserve(uCapacity);

  0000b	ff 75 08	 push	 DWORD PTR _uCapacity$[ebp]
  0000e	b9 04 00 00 00	 mov	 ecx, OFFSET ?ms_kPool@CGraphicImageInstance@@2V?$CDynamicPool@VCGraphicImageInstance@@@@A+4
  00013	e8 00 00 00 00	 call	 ?reserve@?$vector@PAVCGraphicImageInstance@@V?$allocator@PAVCGraphicImageInstance@@@std@@@std@@QAEXI@Z ; std::vector<CGraphicImageInstance *,std::allocator<CGraphicImageInstance *> >::reserve

; 59   : 			m_kVct_pkFree.reserve(uCapacity);

  00018	ff 75 08	 push	 DWORD PTR _uCapacity$[ebp]
  0001b	b9 10 00 00 00	 mov	 ecx, OFFSET ?ms_kPool@CGraphicImageInstance@@2V?$CDynamicPool@VCGraphicImageInstance@@@@A+16
  00020	e8 00 00 00 00	 call	 ?reserve@?$vector@PAVCGraphicImageInstance@@V?$allocator@PAVCGraphicImageInstance@@@std@@@std@@QAEXI@Z ; std::vector<CGraphicImageInstance *,std::allocator<CGraphicImageInstance *> >::reserve
; File D:\Metin2 Server Files\mainline\SRC_2014\Metin2Client\EterLib\GrpImageInstance.cpp

; 16   : }

  00025	5d		 pop	 ebp
  00026	c3		 ret	 0
?CreateSystem@CGraphicImageInstance@@SAXI@Z ENDP	; CGraphicImageInstance::CreateSystem
_TEXT	ENDS
; Function compile flags: /Odspy
; File D:\Metin2 Server Files\mainline\SRC_2014\Metin2Client\EterLib\Ref.h
;	COMDAT ?SetPointer@?$CRef@VCGraphicImage@@@@QAEXPAVCReferenceObject@@@Z
_TEXT	SEGMENT
_pOldObject$ = -8					; size = 4
_this$ = -4						; size = 4
_pObject$ = 8						; size = 4
?SetPointer@?$CRef@VCGraphicImage@@@@QAEXPAVCReferenceObject@@@Z PROC ; CRef<CGraphicImage>::SetPointer, COMDAT
; _this$ = ecx

; 66   : 		{

  00000	55		 push	 ebp
  00001	8b ec		 mov	 ebp, esp
  00003	51		 push	 ecx
  00004	51		 push	 ecx
  00005	89 4d fc	 mov	 DWORD PTR _this$[ebp], ecx

; 67   : 			CReferenceObject* pOldObject = m_pObject;

  00008	8b 45 fc	 mov	 eax, DWORD PTR _this$[ebp]
  0000b	8b 00		 mov	 eax, DWORD PTR [eax]
  0000d	89 45 f8	 mov	 DWORD PTR _pOldObject$[ebp], eax

; 68   : 
; 69   : 			m_pObject = pObject;

  00010	8b 45 fc	 mov	 eax, DWORD PTR _this$[ebp]
  00013	8b 4d 08	 mov	 ecx, DWORD PTR _pObject$[ebp]
  00016	89 08		 mov	 DWORD PTR [eax], ecx

; 70   : 
; 71   : 			if (m_pObject)

  00018	8b 45 fc	 mov	 eax, DWORD PTR _this$[ebp]
  0001b	83 38 00	 cmp	 DWORD PTR [eax], 0
  0001e	74 0a		 je	 SHORT $LN2@SetPointer

; 72   : 				m_pObject->AddReference();

  00020	8b 45 fc	 mov	 eax, DWORD PTR _this$[ebp]
  00023	8b 08		 mov	 ecx, DWORD PTR [eax]
  00025	e8 00 00 00 00	 call	 ?AddReference@CReferenceObject@@QAEXXZ ; CReferenceObject::AddReference
$LN2@SetPointer:

; 73   : 
; 74   : 			if (pOldObject)

  0002a	83 7d f8 00	 cmp	 DWORD PTR _pOldObject$[ebp], 0
  0002e	74 08		 je	 SHORT $LN1@SetPointer

; 75   : 				pOldObject->Release();

  00030	8b 4d f8	 mov	 ecx, DWORD PTR _pOldObject$[ebp]
  00033	e8 00 00 00 00	 call	 ?Release@CReferenceObject@@QAEXXZ ; CReferenceObject::Release
$LN1@SetPointer:

; 76   : 		}

  00038	c9		 leave
  00039	c2 04 00	 ret	 4
?SetPointer@?$CRef@VCGraphicImage@@@@QAEXPAVCReferenceObject@@@Z ENDP ; CRef<CGraphicImage>::SetPointer
_TEXT	ENDS
; Function compile flags: /Odspy
; File D:\Metin2 Server Files\mainline\SRC_2014\Metin2Client\EterLib\Ref.h
;	COMDAT ??1?$CRef@VCGraphicImage@@@@QAE@XZ
_TEXT	SEGMENT
_this$ = -16						; size = 4
__$EHRec$ = -12						; size = 12
??1?$CRef@VCGraphicImage@@@@QAE@XZ PROC			; CRef<CGraphicImage>::~CRef<CGraphicImage>, COMDAT
; _this$ = ecx

; 37   : 		{

  00000	55		 push	 ebp
  00001	8b ec		 mov	 ebp, esp
  00003	6a ff		 push	 -1
  00005	68 00 00 00 00	 push	 __ehhandler$??1?$CRef@VCGraphicImage@@@@QAE@XZ
  0000a	64 a1 00 00 00
	00		 mov	 eax, DWORD PTR fs:0
  00010	50		 push	 eax
  00011	51		 push	 ecx
  00012	a1 00 00 00 00	 mov	 eax, DWORD PTR ___security_cookie
  00017	33 c5		 xor	 eax, ebp
  00019	50		 push	 eax
  0001a	8d 45 f4	 lea	 eax, DWORD PTR __$EHRec$[ebp]
  0001d	64 a3 00 00 00
	00		 mov	 DWORD PTR fs:0, eax
  00023	89 4d f0	 mov	 DWORD PTR _this$[ebp], ecx

; 53   : 			if (m_pObject)

  00026	8b 45 f0	 mov	 eax, DWORD PTR _this$[ebp]
  00029	83 38 00	 cmp	 DWORD PTR [eax], 0
  0002c	74 10		 je	 SHORT $LN2@CRef

; 54   : 			{
; 55   : 				m_pObject->Release();

  0002e	8b 45 f0	 mov	 eax, DWORD PTR _this$[ebp]
  00031	8b 08		 mov	 ecx, DWORD PTR [eax]
  00033	e8 00 00 00 00	 call	 ?Release@CReferenceObject@@QAEXXZ ; CReferenceObject::Release

; 56   : 				m_pObject = NULL;

  00038	8b 45 f0	 mov	 eax, DWORD PTR _this$[ebp]
  0003b	83 20 00	 and	 DWORD PTR [eax], 0
$LN2@CRef:

; 38   : 			Clear();
; 39   : 		}

  0003e	8b 4d f4	 mov	 ecx, DWORD PTR __$EHRec$[ebp]
  00041	64 89 0d 00 00
	00 00		 mov	 DWORD PTR fs:0, ecx
  00048	59		 pop	 ecx
  00049	c9		 leave
  0004a	c3		 ret	 0
  0004b	cc		 int	 3
  0004c	cc		 int	 3
  0004d	cc		 int	 3
  0004e	cc		 int	 3
  0004f	cc		 int	 3
_TEXT	ENDS
;	COMDAT text$x
text$x	SEGMENT
__ehhandler$??1?$CRef@VCGraphicImage@@@@QAE@XZ:
  00000	90		 npad	 1
  00001	90		 npad	 1
  00002	8b 54 24 08	 mov	 edx, DWORD PTR [esp+8]
  00006	8d 42 0c	 lea	 eax, DWORD PTR [edx+12]
  00009	8b 4a f8	 mov	 ecx, DWORD PTR [edx-8]
  0000c	33 c8		 xor	 ecx, eax
  0000e	e8 00 00 00 00	 call	 @__security_check_cookie@4
  00013	b8 00 00 00 00	 mov	 eax, OFFSET __ehfuncinfo$??1?$CRef@VCGraphicImage@@@@QAE@XZ
  00018	e9 00 00 00 00	 jmp	 ___CxxFrameHandler3
text$x	ENDS
??1?$CRef@VCGraphicImage@@@@QAE@XZ ENDP			; CRef<CGraphicImage>::~CRef<CGraphicImage>
; Function compile flags: /Odspy
; File D:\Metin2 Server Files\mainline\SRC_2014\Metin2Client\EterLib\GrpImageInstance.cpp
;	COMDAT ?OnIsType@CGraphicImageInstance@@MAEHK@Z
_TEXT	SEGMENT
_this$ = -4						; size = 4
_dwType$ = 8						; size = 4
?OnIsType@CGraphicImageInstance@@MAEHK@Z PROC		; CGraphicImageInstance::OnIsType, COMDAT
; _this$ = ecx

; 191  : {

  00000	55		 push	 ebp
  00001	8b ec		 mov	 ebp, esp
  00003	51		 push	 ecx
  00004	89 4d fc	 mov	 DWORD PTR _this$[ebp], ecx

; 192  : 	if (CGraphicImageInstance::Type() == dwType)

  00007	e8 00 00 00 00	 call	 ?Type@CGraphicImageInstance@@SAKXZ ; CGraphicImageInstance::Type
  0000c	3b 45 08	 cmp	 eax, DWORD PTR _dwType$[ebp]
  0000f	75 05		 jne	 SHORT $LN2@OnIsType

; 193  : 		return TRUE;

  00011	33 c0		 xor	 eax, eax
  00013	40		 inc	 eax
  00014	eb 02		 jmp	 SHORT $LN1@OnIsType
$LN2@OnIsType:

; 194  : 
; 195  : 	return FALSE;

  00016	33 c0		 xor	 eax, eax
$LN1@OnIsType:

; 196  : }

  00018	c9		 leave
  00019	c2 04 00	 ret	 4
?OnIsType@CGraphicImageInstance@@MAEHK@Z ENDP		; CGraphicImageInstance::OnIsType
_TEXT	ENDS
; Function compile flags: /Odspy
; File D:\Metin2 Server Files\mainline\SRC_2014\Metin2Client\EterLib\GrpImageInstance.cpp
;	COMDAT ?OnSetImagePointer@CGraphicImageInstance@@MAEXXZ
_TEXT	SEGMENT
_this$ = -4						; size = 4
?OnSetImagePointer@CGraphicImageInstance@@MAEXXZ PROC	; CGraphicImageInstance::OnSetImagePointer, COMDAT
; _this$ = ecx

; 199  : {

  00000	55		 push	 ebp
  00001	8b ec		 mov	 ebp, esp
  00003	51		 push	 ecx
  00004	89 4d fc	 mov	 DWORD PTR _this$[ebp], ecx

; 200  : }

  00007	c9		 leave
  00008	c3		 ret	 0
?OnSetImagePointer@CGraphicImageInstance@@MAEXXZ ENDP	; CGraphicImageInstance::OnSetImagePointer
_TEXT	ENDS
; Function compile flags: /Odspy
; File D:\Metin2 Server Files\mainline\SRC_2014\Metin2Client\EterLib\GrpImageInstance.cpp
; File D:\Metin2 Server Files\mainline\SRC_2014\Metin2Client\EterLib\Ref.h
; File D:\Metin2 Server Files\mainline\SRC_2014\Metin2Client\EterLib\GrpImageInstance.cpp
; File D:\Metin2 Server Files\mainline\SRC_2014\M2Data\include\d3dx8math.inl
; File D:\Metin2 Server Files\mainline\SRC_2014\Metin2Client\EterLib\GrpImageInstance.cpp
; File D:\Metin2 Server Files\mainline\SRC_2014\M2Data\include\d3dx8math.inl
; File D:\Metin2 Server Files\mainline\SRC_2014\Metin2Client\EterLib\GrpImageInstance.cpp
; File D:\Metin2 Server Files\mainline\SRC_2014\M2Data\include\d3dx8math.inl
; File D:\Metin2 Server Files\mainline\SRC_2014\Metin2Client\EterLib\GrpImageInstance.cpp
; File D:\Metin2 Server Files\mainline\SRC_2014\M2Data\include\d3dx8math.inl
; File D:\Metin2 Server Files\mainline\SRC_2014\Metin2Client\EterLib\GrpImageInstance.cpp
; File D:\Metin2 Server Files\mainline\SRC_2014\M2Data\include\d3dx8math.inl
; File D:\Metin2 Server Files\mainline\SRC_2014\Metin2Client\EterLib\GrpImageInstance.cpp
; File D:\Metin2 Server Files\mainline\SRC_2014\M2Data\include\d3dx8math.inl
; File D:\Metin2 Server Files\mainline\SRC_2014\Metin2Client\EterLib\GrpImageInstance.cpp
; File D:\Metin2 Server Files\mainline\SRC_2014\M2Data\include\d3dx8math.inl
; File D:\Metin2 Server Files\mainline\SRC_2014\Metin2Client\EterLib\GrpImageInstance.cpp
; File D:\Metin2 Server Files\mainline\SRC_2014\M2Data\include\d3dx8math.inl
; File D:\Metin2 Server Files\mainline\SRC_2014\Metin2Client\EterLib\GrpImageInstance.cpp
; File D:\Metin2 Server Files\mainline\SRC_2014\M2Data\include\d3dx8math.inl
; File D:\Metin2 Server Files\mainline\SRC_2014\Metin2Client\EterLib\GrpImageInstance.cpp
; File D:\Metin2 Server Files\mainline\SRC_2014\M2Data\include\d3dx8math.inl
; File D:\Metin2 Server Files\mainline\SRC_2014\Metin2Client\EterLib\GrpImageInstance.cpp
; File D:\Metin2 Server Files\mainline\SRC_2014\M2Data\include\d3dx8math.inl
; File D:\Metin2 Server Files\mainline\SRC_2014\Metin2Client\EterLib\GrpImageInstance.cpp
; File D:\Metin2 Server Files\mainline\SRC_2014\M2Data\include\d3dx8math.inl
; File D:\Metin2 Server Files\mainline\SRC_2014\Metin2Client\EterLib\GrpImageInstance.cpp
; File D:\Metin2 Server Files\mainline\SRC_2014\Metin2Client\eterBase\Singleton.h
; File D:\Metin2 Server Files\mainline\SRC_2014\Metin2Client\EterLib\GrpImageInstance.cpp
;	COMDAT ?OnRender@CGraphicImageInstance@@MAEXXZ
_TEXT	SEGMENT
_dwG$1 = -284						; size = 4
$T2 = -280						; size = 8
$T3 = -272						; size = 8
$T4 = -264						; size = 8
$T5 = -256						; size = 8
$T6 = -248						; size = 4
_dwB$7 = -244						; size = 4
_dwA$8 = -240						; size = 4
_dwR$9 = -236						; size = 4
_dwB$10 = -232						; size = 4
_dwB$11 = -228						; size = 4
_dwA$12 = -224						; size = 4
_dwR$13 = -220						; size = 4
_dwG$14 = -216						; size = 4
_dwB$15 = -212						; size = 4
_dwA$16 = -208						; size = 4
_dwR$17 = -204						; size = 4
_dwG$18 = -200						; size = 4
tv356 = -196						; size = 4
_dwA$19 = -192						; size = 4
_dwR$20 = -188						; size = 4
_dwG$21 = -184						; size = 4
_texReverseWidth$ = -180				; size = 4
tv576 = -176						; size = 4
tv575 = -172						; size = 4
tv565 = -168						; size = 4
tv564 = -164						; size = 4
tv554 = -160						; size = 4
tv553 = -156						; size = 4
tv543 = -152						; size = 4
tv542 = -148						; size = 4
_ev$ = -144						; size = 4
_eu$ = -140						; size = 4
_fimgHeight$ = -136					; size = 4
_fimgWidth$ = -132					; size = 4
tv528 = -128						; size = 4
tv527 = -124						; size = 4
tv517 = -120						; size = 4
tv516 = -116						; size = 4
tv474 = -112						; size = 4
tv473 = -108						; size = 4
tv463 = -104						; size = 4
tv462 = -100						; size = 4
_su$ = -96						; size = 4
tv448 = -92						; size = 4
tv447 = -88						; size = 4
tv437 = -84						; size = 4
tv436 = -80						; size = 4
tv426 = -76						; size = 4
tv425 = -72						; size = 4
tv415 = -68						; size = 4
tv414 = -64						; size = 4
_sv$ = -60						; size = 4
tv400 = -56						; size = 4
tv399 = -52						; size = 4
tv389 = -48						; size = 4
tv388 = -44						; size = 4
tv378 = -40						; size = 4
tv377 = -36						; size = 4
tv367 = -32						; size = 4
tv360 = -28						; size = 4
___t$ = -24						; size = 4
_texReverseHeight$ = -20				; size = 4
_pTexture$ = -16					; size = 4
___n$ = -12						; size = 4
_pImage$ = -8						; size = 4
_c_rRect$ = -4						; size = 4
_this$ = 0						; size = 4
_this$ = 4						; size = 4
_this$ = 8						; size = 4
_this$ = 12						; size = 4
_this$ = 16						; size = 4
_vertices$ = 20						; size = 96
__$ArrayPad$ = 116					; size = 4
?OnRender@CGraphicImageInstance@@MAEXXZ PROC		; CGraphicImageInstance::OnRender, COMDAT
; _this$ = ecx

; 45   : {

  00000	55		 push	 ebp
  00001	8d 6c 24 88	 lea	 ebp, DWORD PTR [esp-120]
  00005	81 ec 94 01 00
	00		 sub	 esp, 404		; 00000194H
  0000b	a1 00 00 00 00	 mov	 eax, DWORD PTR ___security_cookie
  00010	33 c5		 xor	 eax, ebp
  00012	89 45 74	 mov	 DWORD PTR __$ArrayPad$[ebp], eax
  00015	56		 push	 esi
  00016	89 4d 10	 mov	 DWORD PTR _this$[ebp], ecx
; File D:\Metin2 Server Files\mainline\SRC_2014\Metin2Client\EterLib\Ref.h

; 80   : 			return static_cast<T*>(m_pObject);

  00019	8b 45 10	 mov	 eax, DWORD PTR _this$[ebp]
  0001c	8b 40 1c	 mov	 eax, DWORD PTR [eax+28]
  0001f	89 45 f8	 mov	 DWORD PTR _pImage$[ebp], eax
; File D:\Metin2 Server Files\mainline\SRC_2014\Metin2Client\EterLib\GrpImageInstance.cpp

; 47   : 	CGraphicTexture * pTexture = pImage->GetTexturePointer();

  00022	8b 4d f8	 mov	 ecx, DWORD PTR _pImage$[ebp]
  00025	e8 00 00 00 00	 call	 ?GetTexturePointer@CGraphicImage@@QAEPAVCGraphicTexture@@XZ ; CGraphicImage::GetTexturePointer
  0002a	89 45 f0	 mov	 DWORD PTR _pTexture$[ebp], eax

; 48   : 
; 49   : 	float fimgWidth = pImage->GetWidth();

  0002d	8b 4d f8	 mov	 ecx, DWORD PTR _pImage$[ebp]
  00030	e8 00 00 00 00	 call	 ?GetWidth@CGraphicImage@@QBEHXZ ; CGraphicImage::GetWidth
  00035	f3 0f 2a c0	 cvtsi2ss xmm0, eax
  00039	f3 0f 11 85 7c
	ff ff ff	 movss	 DWORD PTR _fimgWidth$[ebp], xmm0

; 50   : 	float fimgHeight = pImage->GetHeight();

  00041	8b 4d f8	 mov	 ecx, DWORD PTR _pImage$[ebp]
  00044	e8 00 00 00 00	 call	 ?GetHeight@CGraphicImage@@QBEHXZ ; CGraphicImage::GetHeight
  00049	f3 0f 2a c0	 cvtsi2ss xmm0, eax
  0004d	f3 0f 11 85 78
	ff ff ff	 movss	 DWORD PTR _fimgHeight$[ebp], xmm0

; 51   : 
; 52   : 	const RECT& c_rRect = pImage->GetRectReference();

  00055	8b 4d f8	 mov	 ecx, DWORD PTR _pImage$[ebp]
  00058	e8 00 00 00 00	 call	 ?GetRectReference@CGraphicImage@@QBEABUtagRECT@@XZ ; CGraphicImage::GetRectReference
  0005d	89 45 fc	 mov	 DWORD PTR _c_rRect$[ebp], eax

; 53   : 	float texReverseWidth = 1.0f / float(pTexture->GetWidth());

  00060	8b 4d f0	 mov	 ecx, DWORD PTR _pTexture$[ebp]
  00063	e8 00 00 00 00	 call	 ?GetWidth@CGraphicTexture@@QBEHXZ ; CGraphicTexture::GetWidth
  00068	f3 0f 2a c0	 cvtsi2ss xmm0, eax
  0006c	f3 0f 10 0d 00
	00 00 00	 movss	 xmm1, DWORD PTR __real@3f800000
  00074	f3 0f 5e c8	 divss	 xmm1, xmm0
  00078	f3 0f 11 8d 4c
	ff ff ff	 movss	 DWORD PTR _texReverseWidth$[ebp], xmm1

; 54   : 	float texReverseHeight = 1.0f / float(pTexture->GetHeight());

  00080	8b 4d f0	 mov	 ecx, DWORD PTR _pTexture$[ebp]
  00083	e8 00 00 00 00	 call	 ?GetHeight@CGraphicTexture@@QBEHXZ ; CGraphicTexture::GetHeight
  00088	f3 0f 2a c0	 cvtsi2ss xmm0, eax
  0008c	f3 0f 10 0d 00
	00 00 00	 movss	 xmm1, DWORD PTR __real@3f800000
  00094	f3 0f 5e c8	 divss	 xmm1, xmm0
  00098	f3 0f 11 4d ec	 movss	 DWORD PTR _texReverseHeight$[ebp], xmm1

; 55   : 	float su = c_rRect.left * texReverseWidth;

  0009d	8b 45 fc	 mov	 eax, DWORD PTR _c_rRect$[ebp]
  000a0	f3 0f 2a 00	 cvtsi2ss xmm0, DWORD PTR [eax]
  000a4	f3 0f 59 85 4c
	ff ff ff	 mulss	 xmm0, DWORD PTR _texReverseWidth$[ebp]
  000ac	f3 0f 11 45 a0	 movss	 DWORD PTR _su$[ebp], xmm0

; 56   : 	float sv = c_rRect.top * texReverseHeight;

  000b1	8b 45 fc	 mov	 eax, DWORD PTR _c_rRect$[ebp]
  000b4	f3 0f 2a 40 04	 cvtsi2ss xmm0, DWORD PTR [eax+4]
  000b9	f3 0f 59 45 ec	 mulss	 xmm0, DWORD PTR _texReverseHeight$[ebp]
  000be	f3 0f 11 45 c4	 movss	 DWORD PTR _sv$[ebp], xmm0

; 57   : 	float eu = (c_rRect.left + (c_rRect.right-c_rRect.left)) * texReverseWidth;

  000c3	8b 45 fc	 mov	 eax, DWORD PTR _c_rRect$[ebp]
  000c6	8b 4d fc	 mov	 ecx, DWORD PTR _c_rRect$[ebp]
  000c9	8b 40 08	 mov	 eax, DWORD PTR [eax+8]
  000cc	2b 01		 sub	 eax, DWORD PTR [ecx]
  000ce	8b 4d fc	 mov	 ecx, DWORD PTR _c_rRect$[ebp]
  000d1	8b 09		 mov	 ecx, DWORD PTR [ecx]
  000d3	03 c8		 add	 ecx, eax
  000d5	f3 0f 2a c1	 cvtsi2ss xmm0, ecx
  000d9	f3 0f 59 85 4c
	ff ff ff	 mulss	 xmm0, DWORD PTR _texReverseWidth$[ebp]
  000e1	f3 0f 11 85 74
	ff ff ff	 movss	 DWORD PTR _eu$[ebp], xmm0

; 58   : 	float ev = (c_rRect.top + (c_rRect.bottom-c_rRect.top)) * texReverseHeight;

  000e9	8b 45 fc	 mov	 eax, DWORD PTR _c_rRect$[ebp]
  000ec	8b 4d fc	 mov	 ecx, DWORD PTR _c_rRect$[ebp]
  000ef	8b 40 0c	 mov	 eax, DWORD PTR [eax+12]
  000f2	2b 41 04	 sub	 eax, DWORD PTR [ecx+4]
  000f5	8b 4d fc	 mov	 ecx, DWORD PTR _c_rRect$[ebp]
  000f8	8b 49 04	 mov	 ecx, DWORD PTR [ecx+4]
  000fb	03 c8		 add	 ecx, eax
  000fd	f3 0f 2a c1	 cvtsi2ss xmm0, ecx
  00101	f3 0f 59 45 ec	 mulss	 xmm0, DWORD PTR _texReverseHeight$[ebp]
  00106	f3 0f 11 85 70
	ff ff ff	 movss	 DWORD PTR _ev$[ebp], xmm0

; 59   : 	
; 60   : 	
; 61   : 	TPDTVertex vertices[4];	

  0010e	c7 45 f4 04 00
	00 00		 mov	 DWORD PTR ___n$[ebp], 4
  00115	8d 45 14	 lea	 eax, DWORD PTR _vertices$[ebp]
  00118	89 45 e8	 mov	 DWORD PTR ___t$[ebp], eax
$LN7@OnRender:
  0011b	8b 45 f4	 mov	 eax, DWORD PTR ___n$[ebp]
  0011e	89 85 3c ff ff
	ff		 mov	 DWORD PTR tv356[ebp], eax
  00124	8b 45 f4	 mov	 eax, DWORD PTR ___n$[ebp]
  00127	48		 dec	 eax
  00128	89 45 f4	 mov	 DWORD PTR ___n$[ebp], eax
  0012b	83 bd 3c ff ff
	ff 00		 cmp	 DWORD PTR tv356[ebp], 0
  00132	76 0b		 jbe	 SHORT $LN8@OnRender
  00134	8b 45 e8	 mov	 eax, DWORD PTR ___t$[ebp]
  00137	83 c0 18	 add	 eax, 24			; 00000018H
  0013a	89 45 e8	 mov	 DWORD PTR ___t$[ebp], eax
  0013d	eb dc		 jmp	 SHORT $LN7@OnRender
$LN8@OnRender:

; 62   : 	vertices[0].position.x	= m_v2Position.x-0.5f;

  0013f	8b 45 10	 mov	 eax, DWORD PTR _this$[ebp]
  00142	f3 0f 10 40 14	 movss	 xmm0, DWORD PTR [eax+20]
  00147	f3 0f 5c 05 00
	00 00 00	 subss	 xmm0, DWORD PTR __real@3f000000
  0014f	6a 18		 push	 24			; 00000018H
  00151	58		 pop	 eax
  00152	6b c0 00	 imul	 eax, eax, 0
  00155	f3 0f 11 44 05
	14		 movss	 DWORD PTR _vertices$[ebp+eax], xmm0

; 63   : 	vertices[0].position.y	= m_v2Position.y-0.5f;

  0015b	8b 45 10	 mov	 eax, DWORD PTR _this$[ebp]
  0015e	f3 0f 10 40 18	 movss	 xmm0, DWORD PTR [eax+24]
  00163	f3 0f 5c 05 00
	00 00 00	 subss	 xmm0, DWORD PTR __real@3f000000
  0016b	6a 18		 push	 24			; 00000018H
  0016d	58		 pop	 eax
  0016e	6b c0 00	 imul	 eax, eax, 0
  00171	f3 0f 11 44 05
	18		 movss	 DWORD PTR _vertices$[ebp+eax+4], xmm0

; 64   : 	vertices[0].position.z	= 0.0f;

  00177	6a 18		 push	 24			; 00000018H
  00179	58		 pop	 eax
  0017a	6b c0 00	 imul	 eax, eax, 0
  0017d	0f 57 c0	 xorps	 xmm0, xmm0
  00180	f3 0f 11 44 05
	1c		 movss	 DWORD PTR _vertices$[ebp+eax+8], xmm0
; File D:\Metin2 Server Files\mainline\SRC_2014\M2Data\include\d3dx8math.inl

; 41   :     x = fx;

  00186	f3 0f 10 45 a0	 movss	 xmm0, DWORD PTR _su$[ebp]
  0018b	f3 0f 11 85 00
	ff ff ff	 movss	 DWORD PTR $T5[ebp], xmm0

; 42   :     y = fy;

  00193	f3 0f 10 45 c4	 movss	 xmm0, DWORD PTR _sv$[ebp]
  00198	f3 0f 11 85 04
	ff ff ff	 movss	 DWORD PTR $T5[ebp+4], xmm0
; File D:\Metin2 Server Files\mainline\SRC_2014\Metin2Client\EterLib\GrpImageInstance.cpp

; 65   : 	vertices[0].texCoord	= TTextureCoordinate(su, sv);

  001a0	8b 85 00 ff ff
	ff		 mov	 eax, DWORD PTR $T5[ebp]
  001a6	8b 8d 04 ff ff
	ff		 mov	 ecx, DWORD PTR $T5[ebp+4]
  001ac	6a 18		 push	 24			; 00000018H
  001ae	5a		 pop	 edx
  001af	6b d2 00	 imul	 edx, edx, 0
  001b2	89 44 15 24	 mov	 DWORD PTR _vertices$[ebp+edx+16], eax
  001b6	89 4c 15 28	 mov	 DWORD PTR _vertices$[ebp+edx+20], ecx

; 66   : 	vertices[0].diffuse		= m_DiffuseColor;

  001ba	8b 45 10	 mov	 eax, DWORD PTR _this$[ebp]
  001bd	83 c0 04	 add	 eax, 4
  001c0	89 45 0c	 mov	 DWORD PTR _this$[ebp], eax
; File D:\Metin2 Server Files\mainline\SRC_2014\M2Data\include\d3dx8math.inl

; 931  :     DWORD dwR = r >= 1.0f ? 0xff : r <= 0.0f ? 0x00 : (DWORD) (r * 255.0f + 0.5f);

  001c3	8b 45 0c	 mov	 eax, DWORD PTR _this$[ebp]
  001c6	f3 0f 10 00	 movss	 xmm0, DWORD PTR [eax]
  001ca	0f 2f 05 00 00
	00 00		 comiss	 xmm0, DWORD PTR __real@3f800000
  001d1	72 09		 jb	 SHORT $LN22@OnRender
  001d3	c7 45 e0 ff 00
	00 00		 mov	 DWORD PTR tv367[ebp], 255 ; 000000ffH
  001da	eb 36		 jmp	 SHORT $LN23@OnRender
$LN22@OnRender:
  001dc	8b 45 0c	 mov	 eax, DWORD PTR _this$[ebp]
  001df	0f 57 c0	 xorps	 xmm0, xmm0
  001e2	0f 2f 00	 comiss	 xmm0, DWORD PTR [eax]
  001e5	72 06		 jb	 SHORT $LN20@OnRender
  001e7	83 65 e4 00	 and	 DWORD PTR tv360[ebp], 0
  001eb	eb 1f		 jmp	 SHORT $LN21@OnRender
$LN20@OnRender:
  001ed	8b 45 0c	 mov	 eax, DWORD PTR _this$[ebp]
  001f0	f3 0f 10 00	 movss	 xmm0, DWORD PTR [eax]
  001f4	f3 0f 59 05 00
	00 00 00	 mulss	 xmm0, DWORD PTR __real@437f0000
  001fc	f3 0f 58 05 00
	00 00 00	 addss	 xmm0, DWORD PTR __real@3f000000
  00204	e8 00 00 00 00	 call	 __ftoui3
  00209	89 45 e4	 mov	 DWORD PTR tv360[ebp], eax
$LN21@OnRender:
  0020c	8b 45 e4	 mov	 eax, DWORD PTR tv360[ebp]
  0020f	89 45 e0	 mov	 DWORD PTR tv367[ebp], eax
$LN23@OnRender:
  00212	8b 45 e0	 mov	 eax, DWORD PTR tv367[ebp]
  00215	89 85 44 ff ff
	ff		 mov	 DWORD PTR _dwR$20[ebp], eax

; 932  :     DWORD dwG = g >= 1.0f ? 0xff : g <= 0.0f ? 0x00 : (DWORD) (g * 255.0f + 0.5f);

  0021b	8b 45 0c	 mov	 eax, DWORD PTR _this$[ebp]
  0021e	f3 0f 10 40 04	 movss	 xmm0, DWORD PTR [eax+4]
  00223	0f 2f 05 00 00
	00 00		 comiss	 xmm0, DWORD PTR __real@3f800000
  0022a	72 09		 jb	 SHORT $LN26@OnRender
  0022c	c7 45 d8 ff 00
	00 00		 mov	 DWORD PTR tv378[ebp], 255 ; 000000ffH
  00233	eb 38		 jmp	 SHORT $LN27@OnRender
$LN26@OnRender:
  00235	8b 45 0c	 mov	 eax, DWORD PTR _this$[ebp]
  00238	0f 57 c0	 xorps	 xmm0, xmm0
  0023b	0f 2f 40 04	 comiss	 xmm0, DWORD PTR [eax+4]
  0023f	72 06		 jb	 SHORT $LN24@OnRender
  00241	83 65 dc 00	 and	 DWORD PTR tv377[ebp], 0
  00245	eb 20		 jmp	 SHORT $LN25@OnRender
$LN24@OnRender:
  00247	8b 45 0c	 mov	 eax, DWORD PTR _this$[ebp]
  0024a	f3 0f 10 40 04	 movss	 xmm0, DWORD PTR [eax+4]
  0024f	f3 0f 59 05 00
	00 00 00	 mulss	 xmm0, DWORD PTR __real@437f0000
  00257	f3 0f 58 05 00
	00 00 00	 addss	 xmm0, DWORD PTR __real@3f000000
  0025f	e8 00 00 00 00	 call	 __ftoui3
  00264	89 45 dc	 mov	 DWORD PTR tv377[ebp], eax
$LN25@OnRender:
  00267	8b 45 dc	 mov	 eax, DWORD PTR tv377[ebp]
  0026a	89 45 d8	 mov	 DWORD PTR tv378[ebp], eax
$LN27@OnRender:
  0026d	8b 45 d8	 mov	 eax, DWORD PTR tv378[ebp]
  00270	89 85 48 ff ff
	ff		 mov	 DWORD PTR _dwG$21[ebp], eax

; 933  :     DWORD dwB = b >= 1.0f ? 0xff : b <= 0.0f ? 0x00 : (DWORD) (b * 255.0f + 0.5f);

  00276	8b 45 0c	 mov	 eax, DWORD PTR _this$[ebp]
  00279	f3 0f 10 40 08	 movss	 xmm0, DWORD PTR [eax+8]
  0027e	0f 2f 05 00 00
	00 00		 comiss	 xmm0, DWORD PTR __real@3f800000
  00285	72 09		 jb	 SHORT $LN30@OnRender
  00287	c7 45 d0 ff 00
	00 00		 mov	 DWORD PTR tv389[ebp], 255 ; 000000ffH
  0028e	eb 38		 jmp	 SHORT $LN31@OnRender
$LN30@OnRender:
  00290	8b 45 0c	 mov	 eax, DWORD PTR _this$[ebp]
  00293	0f 57 c0	 xorps	 xmm0, xmm0
  00296	0f 2f 40 08	 comiss	 xmm0, DWORD PTR [eax+8]
  0029a	72 06		 jb	 SHORT $LN28@OnRender
  0029c	83 65 d4 00	 and	 DWORD PTR tv388[ebp], 0
  002a0	eb 20		 jmp	 SHORT $LN29@OnRender
$LN28@OnRender:
  002a2	8b 45 0c	 mov	 eax, DWORD PTR _this$[ebp]
  002a5	f3 0f 10 40 08	 movss	 xmm0, DWORD PTR [eax+8]
  002aa	f3 0f 59 05 00
	00 00 00	 mulss	 xmm0, DWORD PTR __real@437f0000
  002b2	f3 0f 58 05 00
	00 00 00	 addss	 xmm0, DWORD PTR __real@3f000000
  002ba	e8 00 00 00 00	 call	 __ftoui3
  002bf	89 45 d4	 mov	 DWORD PTR tv388[ebp], eax
$LN29@OnRender:
  002c2	8b 45 d4	 mov	 eax, DWORD PTR tv388[ebp]
  002c5	89 45 d0	 mov	 DWORD PTR tv389[ebp], eax
$LN31@OnRender:
  002c8	8b 45 d0	 mov	 eax, DWORD PTR tv389[ebp]
  002cb	89 85 18 ff ff
	ff		 mov	 DWORD PTR _dwB$10[ebp], eax

; 934  :     DWORD dwA = a >= 1.0f ? 0xff : a <= 0.0f ? 0x00 : (DWORD) (a * 255.0f + 0.5f);

  002d1	8b 45 0c	 mov	 eax, DWORD PTR _this$[ebp]
  002d4	f3 0f 10 40 0c	 movss	 xmm0, DWORD PTR [eax+12]
  002d9	0f 2f 05 00 00
	00 00		 comiss	 xmm0, DWORD PTR __real@3f800000
  002e0	72 09		 jb	 SHORT $LN34@OnRender
  002e2	c7 45 c8 ff 00
	00 00		 mov	 DWORD PTR tv400[ebp], 255 ; 000000ffH
  002e9	eb 38		 jmp	 SHORT $LN35@OnRender
$LN34@OnRender:
  002eb	8b 45 0c	 mov	 eax, DWORD PTR _this$[ebp]
  002ee	0f 57 c0	 xorps	 xmm0, xmm0
  002f1	0f 2f 40 0c	 comiss	 xmm0, DWORD PTR [eax+12]
  002f5	72 06		 jb	 SHORT $LN32@OnRender
  002f7	83 65 cc 00	 and	 DWORD PTR tv399[ebp], 0
  002fb	eb 20		 jmp	 SHORT $LN33@OnRender
$LN32@OnRender:
  002fd	8b 45 0c	 mov	 eax, DWORD PTR _this$[ebp]
  00300	f3 0f 10 40 0c	 movss	 xmm0, DWORD PTR [eax+12]
  00305	f3 0f 59 05 00
	00 00 00	 mulss	 xmm0, DWORD PTR __real@437f0000
  0030d	f3 0f 58 05 00
	00 00 00	 addss	 xmm0, DWORD PTR __real@3f000000
  00315	e8 00 00 00 00	 call	 __ftoui3
  0031a	89 45 cc	 mov	 DWORD PTR tv399[ebp], eax
$LN33@OnRender:
  0031d	8b 45 cc	 mov	 eax, DWORD PTR tv399[ebp]
  00320	89 45 c8	 mov	 DWORD PTR tv400[ebp], eax
$LN35@OnRender:
  00323	8b 45 c8	 mov	 eax, DWORD PTR tv400[ebp]
  00326	89 85 40 ff ff
	ff		 mov	 DWORD PTR _dwA$19[ebp], eax
; File D:\Metin2 Server Files\mainline\SRC_2014\Metin2Client\EterLib\GrpImageInstance.cpp

; 66   : 	vertices[0].diffuse		= m_DiffuseColor;

  0032c	6a 18		 push	 24			; 00000018H
  0032e	58		 pop	 eax
  0032f	6b c0 00	 imul	 eax, eax, 0
; File D:\Metin2 Server Files\mainline\SRC_2014\M2Data\include\d3dx8math.inl

; 936  :     return (dwA << 24) | (dwR << 16) | (dwG << 8) | dwB;

  00332	8b 8d 48 ff ff
	ff		 mov	 ecx, DWORD PTR _dwG$21[ebp]
  00338	c1 e1 08	 shl	 ecx, 8
  0033b	8b 95 44 ff ff
	ff		 mov	 edx, DWORD PTR _dwR$20[ebp]
  00341	c1 e2 10	 shl	 edx, 16			; 00000010H
  00344	8b b5 40 ff ff
	ff		 mov	 esi, DWORD PTR _dwA$19[ebp]
  0034a	c1 e6 18	 shl	 esi, 24			; 00000018H
  0034d	0b f2		 or	 esi, edx
  0034f	0b f1		 or	 esi, ecx
  00351	0b b5 18 ff ff
	ff		 or	 esi, DWORD PTR _dwB$10[ebp]
; File D:\Metin2 Server Files\mainline\SRC_2014\Metin2Client\EterLib\GrpImageInstance.cpp

; 66   : 	vertices[0].diffuse		= m_DiffuseColor;

  00357	89 74 05 20	 mov	 DWORD PTR _vertices$[ebp+eax+12], esi

; 67   : 
; 68   : 	vertices[1].position.x	= m_v2Position.x + fimgWidth-0.5f;

  0035b	8b 45 10	 mov	 eax, DWORD PTR _this$[ebp]
  0035e	f3 0f 10 40 14	 movss	 xmm0, DWORD PTR [eax+20]
  00363	f3 0f 58 85 7c
	ff ff ff	 addss	 xmm0, DWORD PTR _fimgWidth$[ebp]
  0036b	f3 0f 5c 05 00
	00 00 00	 subss	 xmm0, DWORD PTR __real@3f000000
  00373	6a 18		 push	 24			; 00000018H
  00375	58		 pop	 eax
  00376	c1 e0 00	 shl	 eax, 0
  00379	f3 0f 11 44 05
	14		 movss	 DWORD PTR _vertices$[ebp+eax], xmm0

; 69   : 	vertices[1].position.y	= m_v2Position.y-0.5f;

  0037f	8b 45 10	 mov	 eax, DWORD PTR _this$[ebp]
  00382	f3 0f 10 40 18	 movss	 xmm0, DWORD PTR [eax+24]
  00387	f3 0f 5c 05 00
	00 00 00	 subss	 xmm0, DWORD PTR __real@3f000000
  0038f	6a 18		 push	 24			; 00000018H
  00391	58		 pop	 eax
  00392	c1 e0 00	 shl	 eax, 0
  00395	f3 0f 11 44 05
	18		 movss	 DWORD PTR _vertices$[ebp+eax+4], xmm0

; 70   : 	vertices[1].position.z	= 0.0f;

  0039b	6a 18		 push	 24			; 00000018H
  0039d	58		 pop	 eax
  0039e	c1 e0 00	 shl	 eax, 0
  003a1	0f 57 c0	 xorps	 xmm0, xmm0
  003a4	f3 0f 11 44 05
	1c		 movss	 DWORD PTR _vertices$[ebp+eax+8], xmm0
; File D:\Metin2 Server Files\mainline\SRC_2014\M2Data\include\d3dx8math.inl

; 41   :     x = fx;

  003aa	f3 0f 10 85 74
	ff ff ff	 movss	 xmm0, DWORD PTR _eu$[ebp]
  003b2	f3 0f 11 85 f8
	fe ff ff	 movss	 DWORD PTR $T4[ebp], xmm0

; 42   :     y = fy;

  003ba	f3 0f 10 45 c4	 movss	 xmm0, DWORD PTR _sv$[ebp]
  003bf	f3 0f 11 85 fc
	fe ff ff	 movss	 DWORD PTR $T4[ebp+4], xmm0
; File D:\Metin2 Server Files\mainline\SRC_2014\Metin2Client\EterLib\GrpImageInstance.cpp

; 71   : 	vertices[1].texCoord	= TTextureCoordinate(eu, sv);

  003c7	8b 85 f8 fe ff
	ff		 mov	 eax, DWORD PTR $T4[ebp]
  003cd	8b 8d fc fe ff
	ff		 mov	 ecx, DWORD PTR $T4[ebp+4]
  003d3	6a 18		 push	 24			; 00000018H
  003d5	5a		 pop	 edx
  003d6	c1 e2 00	 shl	 edx, 0
  003d9	89 44 15 24	 mov	 DWORD PTR _vertices$[ebp+edx+16], eax
  003dd	89 4c 15 28	 mov	 DWORD PTR _vertices$[ebp+edx+20], ecx

; 72   : 	vertices[1].diffuse		= m_DiffuseColor;

  003e1	8b 45 10	 mov	 eax, DWORD PTR _this$[ebp]
  003e4	83 c0 04	 add	 eax, 4
  003e7	89 45 08	 mov	 DWORD PTR _this$[ebp], eax
; File D:\Metin2 Server Files\mainline\SRC_2014\M2Data\include\d3dx8math.inl

; 931  :     DWORD dwR = r >= 1.0f ? 0xff : r <= 0.0f ? 0x00 : (DWORD) (r * 255.0f + 0.5f);

  003ea	8b 45 08	 mov	 eax, DWORD PTR _this$[ebp]
  003ed	f3 0f 10 00	 movss	 xmm0, DWORD PTR [eax]
  003f1	0f 2f 05 00 00
	00 00		 comiss	 xmm0, DWORD PTR __real@3f800000
  003f8	72 09		 jb	 SHORT $LN42@OnRender
  003fa	c7 45 bc ff 00
	00 00		 mov	 DWORD PTR tv415[ebp], 255 ; 000000ffH
  00401	eb 36		 jmp	 SHORT $LN43@OnRender
$LN42@OnRender:
  00403	8b 45 08	 mov	 eax, DWORD PTR _this$[ebp]
  00406	0f 57 c0	 xorps	 xmm0, xmm0
  00409	0f 2f 00	 comiss	 xmm0, DWORD PTR [eax]
  0040c	72 06		 jb	 SHORT $LN40@OnRender
  0040e	83 65 c0 00	 and	 DWORD PTR tv414[ebp], 0
  00412	eb 1f		 jmp	 SHORT $LN41@OnRender
$LN40@OnRender:
  00414	8b 45 08	 mov	 eax, DWORD PTR _this$[ebp]
  00417	f3 0f 10 00	 movss	 xmm0, DWORD PTR [eax]
  0041b	f3 0f 59 05 00
	00 00 00	 mulss	 xmm0, DWORD PTR __real@437f0000
  00423	f3 0f 58 05 00
	00 00 00	 addss	 xmm0, DWORD PTR __real@3f000000
  0042b	e8 00 00 00 00	 call	 __ftoui3
  00430	89 45 c0	 mov	 DWORD PTR tv414[ebp], eax
$LN41@OnRender:
  00433	8b 45 c0	 mov	 eax, DWORD PTR tv414[ebp]
  00436	89 45 bc	 mov	 DWORD PTR tv415[ebp], eax
$LN43@OnRender:
  00439	8b 45 bc	 mov	 eax, DWORD PTR tv415[ebp]
  0043c	89 85 34 ff ff
	ff		 mov	 DWORD PTR _dwR$17[ebp], eax

; 932  :     DWORD dwG = g >= 1.0f ? 0xff : g <= 0.0f ? 0x00 : (DWORD) (g * 255.0f + 0.5f);

  00442	8b 45 08	 mov	 eax, DWORD PTR _this$[ebp]
  00445	f3 0f 10 40 04	 movss	 xmm0, DWORD PTR [eax+4]
  0044a	0f 2f 05 00 00
	00 00		 comiss	 xmm0, DWORD PTR __real@3f800000
  00451	72 09		 jb	 SHORT $LN46@OnRender
  00453	c7 45 b4 ff 00
	00 00		 mov	 DWORD PTR tv426[ebp], 255 ; 000000ffH
  0045a	eb 38		 jmp	 SHORT $LN47@OnRender
$LN46@OnRender:
  0045c	8b 45 08	 mov	 eax, DWORD PTR _this$[ebp]
  0045f	0f 57 c0	 xorps	 xmm0, xmm0
  00462	0f 2f 40 04	 comiss	 xmm0, DWORD PTR [eax+4]
  00466	72 06		 jb	 SHORT $LN44@OnRender
  00468	83 65 b8 00	 and	 DWORD PTR tv425[ebp], 0
  0046c	eb 20		 jmp	 SHORT $LN45@OnRender
$LN44@OnRender:
  0046e	8b 45 08	 mov	 eax, DWORD PTR _this$[ebp]
  00471	f3 0f 10 40 04	 movss	 xmm0, DWORD PTR [eax+4]
  00476	f3 0f 59 05 00
	00 00 00	 mulss	 xmm0, DWORD PTR __real@437f0000
  0047e	f3 0f 58 05 00
	00 00 00	 addss	 xmm0, DWORD PTR __real@3f000000
  00486	e8 00 00 00 00	 call	 __ftoui3
  0048b	89 45 b8	 mov	 DWORD PTR tv425[ebp], eax
$LN45@OnRender:
  0048e	8b 45 b8	 mov	 eax, DWORD PTR tv425[ebp]
  00491	89 45 b4	 mov	 DWORD PTR tv426[ebp], eax
$LN47@OnRender:
  00494	8b 45 b4	 mov	 eax, DWORD PTR tv426[ebp]
  00497	89 85 38 ff ff
	ff		 mov	 DWORD PTR _dwG$18[ebp], eax

; 933  :     DWORD dwB = b >= 1.0f ? 0xff : b <= 0.0f ? 0x00 : (DWORD) (b * 255.0f + 0.5f);

  0049d	8b 45 08	 mov	 eax, DWORD PTR _this$[ebp]
  004a0	f3 0f 10 40 08	 movss	 xmm0, DWORD PTR [eax+8]
  004a5	0f 2f 05 00 00
	00 00		 comiss	 xmm0, DWORD PTR __real@3f800000
  004ac	72 09		 jb	 SHORT $LN50@OnRender
  004ae	c7 45 ac ff 00
	00 00		 mov	 DWORD PTR tv437[ebp], 255 ; 000000ffH
  004b5	eb 38		 jmp	 SHORT $LN51@OnRender
$LN50@OnRender:
  004b7	8b 45 08	 mov	 eax, DWORD PTR _this$[ebp]
  004ba	0f 57 c0	 xorps	 xmm0, xmm0
  004bd	0f 2f 40 08	 comiss	 xmm0, DWORD PTR [eax+8]
  004c1	72 06		 jb	 SHORT $LN48@OnRender
  004c3	83 65 b0 00	 and	 DWORD PTR tv436[ebp], 0
  004c7	eb 20		 jmp	 SHORT $LN49@OnRender
$LN48@OnRender:
  004c9	8b 45 08	 mov	 eax, DWORD PTR _this$[ebp]
  004cc	f3 0f 10 40 08	 movss	 xmm0, DWORD PTR [eax+8]
  004d1	f3 0f 59 05 00
	00 00 00	 mulss	 xmm0, DWORD PTR __real@437f0000
  004d9	f3 0f 58 05 00
	00 00 00	 addss	 xmm0, DWORD PTR __real@3f000000
  004e1	e8 00 00 00 00	 call	 __ftoui3
  004e6	89 45 b0	 mov	 DWORD PTR tv436[ebp], eax
$LN49@OnRender:
  004e9	8b 45 b0	 mov	 eax, DWORD PTR tv436[ebp]
  004ec	89 45 ac	 mov	 DWORD PTR tv437[ebp], eax
$LN51@OnRender:
  004ef	8b 45 ac	 mov	 eax, DWORD PTR tv437[ebp]
  004f2	89 85 2c ff ff
	ff		 mov	 DWORD PTR _dwB$15[ebp], eax

; 934  :     DWORD dwA = a >= 1.0f ? 0xff : a <= 0.0f ? 0x00 : (DWORD) (a * 255.0f + 0.5f);

  004f8	8b 45 08	 mov	 eax, DWORD PTR _this$[ebp]
  004fb	f3 0f 10 40 0c	 movss	 xmm0, DWORD PTR [eax+12]
  00500	0f 2f 05 00 00
	00 00		 comiss	 xmm0, DWORD PTR __real@3f800000
  00507	72 09		 jb	 SHORT $LN54@OnRender
  00509	c7 45 a4 ff 00
	00 00		 mov	 DWORD PTR tv448[ebp], 255 ; 000000ffH
  00510	eb 38		 jmp	 SHORT $LN55@OnRender
$LN54@OnRender:
  00512	8b 45 08	 mov	 eax, DWORD PTR _this$[ebp]
  00515	0f 57 c0	 xorps	 xmm0, xmm0
  00518	0f 2f 40 0c	 comiss	 xmm0, DWORD PTR [eax+12]
  0051c	72 06		 jb	 SHORT $LN52@OnRender
  0051e	83 65 a8 00	 and	 DWORD PTR tv447[ebp], 0
  00522	eb 20		 jmp	 SHORT $LN53@OnRender
$LN52@OnRender:
  00524	8b 45 08	 mov	 eax, DWORD PTR _this$[ebp]
  00527	f3 0f 10 40 0c	 movss	 xmm0, DWORD PTR [eax+12]
  0052c	f3 0f 59 05 00
	00 00 00	 mulss	 xmm0, DWORD PTR __real@437f0000
  00534	f3 0f 58 05 00
	00 00 00	 addss	 xmm0, DWORD PTR __real@3f000000
  0053c	e8 00 00 00 00	 call	 __ftoui3
  00541	89 45 a8	 mov	 DWORD PTR tv447[ebp], eax
$LN53@OnRender:
  00544	8b 45 a8	 mov	 eax, DWORD PTR tv447[ebp]
  00547	89 45 a4	 mov	 DWORD PTR tv448[ebp], eax
$LN55@OnRender:
  0054a	8b 45 a4	 mov	 eax, DWORD PTR tv448[ebp]
  0054d	89 85 30 ff ff
	ff		 mov	 DWORD PTR _dwA$16[ebp], eax
; File D:\Metin2 Server Files\mainline\SRC_2014\Metin2Client\EterLib\GrpImageInstance.cpp

; 72   : 	vertices[1].diffuse		= m_DiffuseColor;

  00553	6a 18		 push	 24			; 00000018H
  00555	58		 pop	 eax
  00556	c1 e0 00	 shl	 eax, 0
; File D:\Metin2 Server Files\mainline\SRC_2014\M2Data\include\d3dx8math.inl

; 936  :     return (dwA << 24) | (dwR << 16) | (dwG << 8) | dwB;

  00559	8b 8d 38 ff ff
	ff		 mov	 ecx, DWORD PTR _dwG$18[ebp]
  0055f	c1 e1 08	 shl	 ecx, 8
  00562	8b 95 34 ff ff
	ff		 mov	 edx, DWORD PTR _dwR$17[ebp]
  00568	c1 e2 10	 shl	 edx, 16			; 00000010H
  0056b	8b b5 30 ff ff
	ff		 mov	 esi, DWORD PTR _dwA$16[ebp]
  00571	c1 e6 18	 shl	 esi, 24			; 00000018H
  00574	0b f2		 or	 esi, edx
  00576	0b f1		 or	 esi, ecx
  00578	0b b5 2c ff ff
	ff		 or	 esi, DWORD PTR _dwB$15[ebp]
; File D:\Metin2 Server Files\mainline\SRC_2014\Metin2Client\EterLib\GrpImageInstance.cpp

; 72   : 	vertices[1].diffuse		= m_DiffuseColor;

  0057e	89 74 05 20	 mov	 DWORD PTR _vertices$[ebp+eax+12], esi

; 73   : 
; 74   : 	vertices[2].position.x	= m_v2Position.x-0.5f;

  00582	8b 45 10	 mov	 eax, DWORD PTR _this$[ebp]
  00585	f3 0f 10 40 14	 movss	 xmm0, DWORD PTR [eax+20]
  0058a	f3 0f 5c 05 00
	00 00 00	 subss	 xmm0, DWORD PTR __real@3f000000
  00592	6a 18		 push	 24			; 00000018H
  00594	58		 pop	 eax
  00595	d1 e0		 shl	 eax, 1
  00597	f3 0f 11 44 05
	14		 movss	 DWORD PTR _vertices$[ebp+eax], xmm0

; 75   : 	vertices[2].position.y	= m_v2Position.y + fimgHeight-0.5f;

  0059d	8b 45 10	 mov	 eax, DWORD PTR _this$[ebp]
  005a0	f3 0f 10 40 18	 movss	 xmm0, DWORD PTR [eax+24]
  005a5	f3 0f 58 85 78
	ff ff ff	 addss	 xmm0, DWORD PTR _fimgHeight$[ebp]
  005ad	f3 0f 5c 05 00
	00 00 00	 subss	 xmm0, DWORD PTR __real@3f000000
  005b5	6a 18		 push	 24			; 00000018H
  005b7	58		 pop	 eax
  005b8	d1 e0		 shl	 eax, 1
  005ba	f3 0f 11 44 05
	18		 movss	 DWORD PTR _vertices$[ebp+eax+4], xmm0

; 76   : 	vertices[2].position.z	= 0.0f;

  005c0	6a 18		 push	 24			; 00000018H
  005c2	58		 pop	 eax
  005c3	d1 e0		 shl	 eax, 1
  005c5	0f 57 c0	 xorps	 xmm0, xmm0
  005c8	f3 0f 11 44 05
	1c		 movss	 DWORD PTR _vertices$[ebp+eax+8], xmm0
; File D:\Metin2 Server Files\mainline\SRC_2014\M2Data\include\d3dx8math.inl

; 41   :     x = fx;

  005ce	f3 0f 10 45 a0	 movss	 xmm0, DWORD PTR _su$[ebp]
  005d3	f3 0f 11 85 f0
	fe ff ff	 movss	 DWORD PTR $T3[ebp], xmm0

; 42   :     y = fy;

  005db	f3 0f 10 85 70
	ff ff ff	 movss	 xmm0, DWORD PTR _ev$[ebp]
  005e3	f3 0f 11 85 f4
	fe ff ff	 movss	 DWORD PTR $T3[ebp+4], xmm0
; File D:\Metin2 Server Files\mainline\SRC_2014\Metin2Client\EterLib\GrpImageInstance.cpp

; 77   : 	vertices[2].texCoord	= TTextureCoordinate(su, ev);

  005eb	8b 85 f0 fe ff
	ff		 mov	 eax, DWORD PTR $T3[ebp]
  005f1	8b 8d f4 fe ff
	ff		 mov	 ecx, DWORD PTR $T3[ebp+4]
  005f7	6a 18		 push	 24			; 00000018H
  005f9	5a		 pop	 edx
  005fa	d1 e2		 shl	 edx, 1
  005fc	89 44 15 24	 mov	 DWORD PTR _vertices$[ebp+edx+16], eax
  00600	89 4c 15 28	 mov	 DWORD PTR _vertices$[ebp+edx+20], ecx

; 78   : 	vertices[2].diffuse		= m_DiffuseColor;

  00604	8b 45 10	 mov	 eax, DWORD PTR _this$[ebp]
  00607	83 c0 04	 add	 eax, 4
  0060a	89 45 04	 mov	 DWORD PTR _this$[ebp], eax
; File D:\Metin2 Server Files\mainline\SRC_2014\M2Data\include\d3dx8math.inl

; 931  :     DWORD dwR = r >= 1.0f ? 0xff : r <= 0.0f ? 0x00 : (DWORD) (r * 255.0f + 0.5f);

  0060d	8b 45 04	 mov	 eax, DWORD PTR _this$[ebp]
  00610	f3 0f 10 00	 movss	 xmm0, DWORD PTR [eax]
  00614	0f 2f 05 00 00
	00 00		 comiss	 xmm0, DWORD PTR __real@3f800000
  0061b	72 09		 jb	 SHORT $LN62@OnRender
  0061d	c7 45 98 ff 00
	00 00		 mov	 DWORD PTR tv463[ebp], 255 ; 000000ffH
  00624	eb 36		 jmp	 SHORT $LN63@OnRender
$LN62@OnRender:
  00626	8b 45 04	 mov	 eax, DWORD PTR _this$[ebp]
  00629	0f 57 c0	 xorps	 xmm0, xmm0
  0062c	0f 2f 00	 comiss	 xmm0, DWORD PTR [eax]
  0062f	72 06		 jb	 SHORT $LN60@OnRender
  00631	83 65 9c 00	 and	 DWORD PTR tv462[ebp], 0
  00635	eb 1f		 jmp	 SHORT $LN61@OnRender
$LN60@OnRender:
  00637	8b 45 04	 mov	 eax, DWORD PTR _this$[ebp]
  0063a	f3 0f 10 00	 movss	 xmm0, DWORD PTR [eax]
  0063e	f3 0f 59 05 00
	00 00 00	 mulss	 xmm0, DWORD PTR __real@437f0000
  00646	f3 0f 58 05 00
	00 00 00	 addss	 xmm0, DWORD PTR __real@3f000000
  0064e	e8 00 00 00 00	 call	 __ftoui3
  00653	89 45 9c	 mov	 DWORD PTR tv462[ebp], eax
$LN61@OnRender:
  00656	8b 45 9c	 mov	 eax, DWORD PTR tv462[ebp]
  00659	89 45 98	 mov	 DWORD PTR tv463[ebp], eax
$LN63@OnRender:
  0065c	8b 45 98	 mov	 eax, DWORD PTR tv463[ebp]
  0065f	89 85 24 ff ff
	ff		 mov	 DWORD PTR _dwR$13[ebp], eax

; 932  :     DWORD dwG = g >= 1.0f ? 0xff : g <= 0.0f ? 0x00 : (DWORD) (g * 255.0f + 0.5f);

  00665	8b 45 04	 mov	 eax, DWORD PTR _this$[ebp]
  00668	f3 0f 10 40 04	 movss	 xmm0, DWORD PTR [eax+4]
  0066d	0f 2f 05 00 00
	00 00		 comiss	 xmm0, DWORD PTR __real@3f800000
  00674	72 09		 jb	 SHORT $LN66@OnRender
  00676	c7 45 90 ff 00
	00 00		 mov	 DWORD PTR tv474[ebp], 255 ; 000000ffH
  0067d	eb 38		 jmp	 SHORT $LN67@OnRender
$LN66@OnRender:
  0067f	8b 45 04	 mov	 eax, DWORD PTR _this$[ebp]
  00682	0f 57 c0	 xorps	 xmm0, xmm0
  00685	0f 2f 40 04	 comiss	 xmm0, DWORD PTR [eax+4]
  00689	72 06		 jb	 SHORT $LN64@OnRender
  0068b	83 65 94 00	 and	 DWORD PTR tv473[ebp], 0
  0068f	eb 20		 jmp	 SHORT $LN65@OnRender
$LN64@OnRender:
  00691	8b 45 04	 mov	 eax, DWORD PTR _this$[ebp]
  00694	f3 0f 10 40 04	 movss	 xmm0, DWORD PTR [eax+4]
  00699	f3 0f 59 05 00
	00 00 00	 mulss	 xmm0, DWORD PTR __real@437f0000
  006a1	f3 0f 58 05 00
	00 00 00	 addss	 xmm0, DWORD PTR __real@3f000000
  006a9	e8 00 00 00 00	 call	 __ftoui3
  006ae	89 45 94	 mov	 DWORD PTR tv473[ebp], eax
$LN65@OnRender:
  006b1	8b 45 94	 mov	 eax, DWORD PTR tv473[ebp]
  006b4	89 45 90	 mov	 DWORD PTR tv474[ebp], eax
$LN67@OnRender:
  006b7	8b 45 90	 mov	 eax, DWORD PTR tv474[ebp]
  006ba	89 85 28 ff ff
	ff		 mov	 DWORD PTR _dwG$14[ebp], eax

; 933  :     DWORD dwB = b >= 1.0f ? 0xff : b <= 0.0f ? 0x00 : (DWORD) (b * 255.0f + 0.5f);

  006c0	8b 45 04	 mov	 eax, DWORD PTR _this$[ebp]
  006c3	f3 0f 10 40 08	 movss	 xmm0, DWORD PTR [eax+8]
  006c8	0f 2f 05 00 00
	00 00		 comiss	 xmm0, DWORD PTR __real@3f800000
  006cf	72 09		 jb	 SHORT $LN70@OnRender
  006d1	c7 45 88 ff 00
	00 00		 mov	 DWORD PTR tv517[ebp], 255 ; 000000ffH
  006d8	eb 38		 jmp	 SHORT $LN71@OnRender
$LN70@OnRender:
  006da	8b 45 04	 mov	 eax, DWORD PTR _this$[ebp]
  006dd	0f 57 c0	 xorps	 xmm0, xmm0
  006e0	0f 2f 40 08	 comiss	 xmm0, DWORD PTR [eax+8]
  006e4	72 06		 jb	 SHORT $LN68@OnRender
  006e6	83 65 8c 00	 and	 DWORD PTR tv516[ebp], 0
  006ea	eb 20		 jmp	 SHORT $LN69@OnRender
$LN68@OnRender:
  006ec	8b 45 04	 mov	 eax, DWORD PTR _this$[ebp]
  006ef	f3 0f 10 40 08	 movss	 xmm0, DWORD PTR [eax+8]
  006f4	f3 0f 59 05 00
	00 00 00	 mulss	 xmm0, DWORD PTR __real@437f0000
  006fc	f3 0f 58 05 00
	00 00 00	 addss	 xmm0, DWORD PTR __real@3f000000
  00704	e8 00 00 00 00	 call	 __ftoui3
  00709	89 45 8c	 mov	 DWORD PTR tv516[ebp], eax
$LN69@OnRender:
  0070c	8b 45 8c	 mov	 eax, DWORD PTR tv516[ebp]
  0070f	89 45 88	 mov	 DWORD PTR tv517[ebp], eax
$LN71@OnRender:
  00712	8b 45 88	 mov	 eax, DWORD PTR tv517[ebp]
  00715	89 85 1c ff ff
	ff		 mov	 DWORD PTR _dwB$11[ebp], eax

; 934  :     DWORD dwA = a >= 1.0f ? 0xff : a <= 0.0f ? 0x00 : (DWORD) (a * 255.0f + 0.5f);

  0071b	8b 45 04	 mov	 eax, DWORD PTR _this$[ebp]
  0071e	f3 0f 10 40 0c	 movss	 xmm0, DWORD PTR [eax+12]
  00723	0f 2f 05 00 00
	00 00		 comiss	 xmm0, DWORD PTR __real@3f800000
  0072a	72 09		 jb	 SHORT $LN74@OnRender
  0072c	c7 45 80 ff 00
	00 00		 mov	 DWORD PTR tv528[ebp], 255 ; 000000ffH
  00733	eb 38		 jmp	 SHORT $LN75@OnRender
$LN74@OnRender:
  00735	8b 45 04	 mov	 eax, DWORD PTR _this$[ebp]
  00738	0f 57 c0	 xorps	 xmm0, xmm0
  0073b	0f 2f 40 0c	 comiss	 xmm0, DWORD PTR [eax+12]
  0073f	72 06		 jb	 SHORT $LN72@OnRender
  00741	83 65 84 00	 and	 DWORD PTR tv527[ebp], 0
  00745	eb 20		 jmp	 SHORT $LN73@OnRender
$LN72@OnRender:
  00747	8b 45 04	 mov	 eax, DWORD PTR _this$[ebp]
  0074a	f3 0f 10 40 0c	 movss	 xmm0, DWORD PTR [eax+12]
  0074f	f3 0f 59 05 00
	00 00 00	 mulss	 xmm0, DWORD PTR __real@437f0000
  00757	f3 0f 58 05 00
	00 00 00	 addss	 xmm0, DWORD PTR __real@3f000000
  0075f	e8 00 00 00 00	 call	 __ftoui3
  00764	89 45 84	 mov	 DWORD PTR tv527[ebp], eax
$LN73@OnRender:
  00767	8b 45 84	 mov	 eax, DWORD PTR tv527[ebp]
  0076a	89 45 80	 mov	 DWORD PTR tv528[ebp], eax
$LN75@OnRender:
  0076d	8b 45 80	 mov	 eax, DWORD PTR tv528[ebp]
  00770	89 85 20 ff ff
	ff		 mov	 DWORD PTR _dwA$12[ebp], eax
; File D:\Metin2 Server Files\mainline\SRC_2014\Metin2Client\EterLib\GrpImageInstance.cpp

; 78   : 	vertices[2].diffuse		= m_DiffuseColor;

  00776	6a 18		 push	 24			; 00000018H
  00778	58		 pop	 eax
  00779	d1 e0		 shl	 eax, 1
; File D:\Metin2 Server Files\mainline\SRC_2014\M2Data\include\d3dx8math.inl

; 936  :     return (dwA << 24) | (dwR << 16) | (dwG << 8) | dwB;

  0077b	8b 8d 28 ff ff
	ff		 mov	 ecx, DWORD PTR _dwG$14[ebp]
  00781	c1 e1 08	 shl	 ecx, 8
  00784	8b 95 24 ff ff
	ff		 mov	 edx, DWORD PTR _dwR$13[ebp]
  0078a	c1 e2 10	 shl	 edx, 16			; 00000010H
  0078d	8b b5 20 ff ff
	ff		 mov	 esi, DWORD PTR _dwA$12[ebp]
  00793	c1 e6 18	 shl	 esi, 24			; 00000018H
  00796	0b f2		 or	 esi, edx
  00798	0b f1		 or	 esi, ecx
  0079a	0b b5 1c ff ff
	ff		 or	 esi, DWORD PTR _dwB$11[ebp]
; File D:\Metin2 Server Files\mainline\SRC_2014\Metin2Client\EterLib\GrpImageInstance.cpp

; 78   : 	vertices[2].diffuse		= m_DiffuseColor;

  007a0	89 74 05 20	 mov	 DWORD PTR _vertices$[ebp+eax+12], esi

; 79   : 
; 80   : 	vertices[3].position.x	= m_v2Position.x + fimgWidth-0.5f;

  007a4	8b 45 10	 mov	 eax, DWORD PTR _this$[ebp]
  007a7	f3 0f 10 40 14	 movss	 xmm0, DWORD PTR [eax+20]
  007ac	f3 0f 58 85 7c
	ff ff ff	 addss	 xmm0, DWORD PTR _fimgWidth$[ebp]
  007b4	f3 0f 5c 05 00
	00 00 00	 subss	 xmm0, DWORD PTR __real@3f000000
  007bc	6a 18		 push	 24			; 00000018H
  007be	58		 pop	 eax
  007bf	6b c0 03	 imul	 eax, eax, 3
  007c2	f3 0f 11 44 05
	14		 movss	 DWORD PTR _vertices$[ebp+eax], xmm0

; 81   : 	vertices[3].position.y	= m_v2Position.y + fimgHeight-0.5f;

  007c8	8b 45 10	 mov	 eax, DWORD PTR _this$[ebp]
  007cb	f3 0f 10 40 18	 movss	 xmm0, DWORD PTR [eax+24]
  007d0	f3 0f 58 85 78
	ff ff ff	 addss	 xmm0, DWORD PTR _fimgHeight$[ebp]
  007d8	f3 0f 5c 05 00
	00 00 00	 subss	 xmm0, DWORD PTR __real@3f000000
  007e0	6a 18		 push	 24			; 00000018H
  007e2	58		 pop	 eax
  007e3	6b c0 03	 imul	 eax, eax, 3
  007e6	f3 0f 11 44 05
	18		 movss	 DWORD PTR _vertices$[ebp+eax+4], xmm0

; 82   : 	vertices[3].position.z	= 0.0f;

  007ec	6a 18		 push	 24			; 00000018H
  007ee	58		 pop	 eax
  007ef	6b c0 03	 imul	 eax, eax, 3
  007f2	0f 57 c0	 xorps	 xmm0, xmm0
  007f5	f3 0f 11 44 05
	1c		 movss	 DWORD PTR _vertices$[ebp+eax+8], xmm0
; File D:\Metin2 Server Files\mainline\SRC_2014\M2Data\include\d3dx8math.inl

; 41   :     x = fx;

  007fb	f3 0f 10 85 74
	ff ff ff	 movss	 xmm0, DWORD PTR _eu$[ebp]
  00803	f3 0f 11 85 e8
	fe ff ff	 movss	 DWORD PTR $T2[ebp], xmm0

; 42   :     y = fy;

  0080b	f3 0f 10 85 70
	ff ff ff	 movss	 xmm0, DWORD PTR _ev$[ebp]
  00813	f3 0f 11 85 ec
	fe ff ff	 movss	 DWORD PTR $T2[ebp+4], xmm0
; File D:\Metin2 Server Files\mainline\SRC_2014\Metin2Client\EterLib\GrpImageInstance.cpp

; 83   : 	vertices[3].texCoord	= TTextureCoordinate(eu, ev);	

  0081b	8b 85 e8 fe ff
	ff		 mov	 eax, DWORD PTR $T2[ebp]
  00821	8b 8d ec fe ff
	ff		 mov	 ecx, DWORD PTR $T2[ebp+4]
  00827	6a 18		 push	 24			; 00000018H
  00829	5a		 pop	 edx
  0082a	6b d2 03	 imul	 edx, edx, 3
  0082d	89 44 15 24	 mov	 DWORD PTR _vertices$[ebp+edx+16], eax
  00831	89 4c 15 28	 mov	 DWORD PTR _vertices$[ebp+edx+20], ecx

; 84   : 	vertices[3].diffuse		= m_DiffuseColor;

  00835	8b 45 10	 mov	 eax, DWORD PTR _this$[ebp]
  00838	83 c0 04	 add	 eax, 4
  0083b	89 45 00	 mov	 DWORD PTR _this$[ebp], eax
; File D:\Metin2 Server Files\mainline\SRC_2014\M2Data\include\d3dx8math.inl

; 931  :     DWORD dwR = r >= 1.0f ? 0xff : r <= 0.0f ? 0x00 : (DWORD) (r * 255.0f + 0.5f);

  0083e	8b 45 00	 mov	 eax, DWORD PTR _this$[ebp]
  00841	f3 0f 10 00	 movss	 xmm0, DWORD PTR [eax]
  00845	0f 2f 05 00 00
	00 00		 comiss	 xmm0, DWORD PTR __real@3f800000
  0084c	72 0c		 jb	 SHORT $LN82@OnRender
  0084e	c7 85 68 ff ff
	ff ff 00 00 00	 mov	 DWORD PTR tv543[ebp], 255 ; 000000ffH
  00858	eb 42		 jmp	 SHORT $LN83@OnRender
$LN82@OnRender:
  0085a	8b 45 00	 mov	 eax, DWORD PTR _this$[ebp]
  0085d	0f 57 c0	 xorps	 xmm0, xmm0
  00860	0f 2f 00	 comiss	 xmm0, DWORD PTR [eax]
  00863	72 09		 jb	 SHORT $LN80@OnRender
  00865	83 a5 6c ff ff
	ff 00		 and	 DWORD PTR tv542[ebp], 0
  0086c	eb 22		 jmp	 SHORT $LN81@OnRender
$LN80@OnRender:
  0086e	8b 45 00	 mov	 eax, DWORD PTR _this$[ebp]
  00871	f3 0f 10 00	 movss	 xmm0, DWORD PTR [eax]
  00875	f3 0f 59 05 00
	00 00 00	 mulss	 xmm0, DWORD PTR __real@437f0000
  0087d	f3 0f 58 05 00
	00 00 00	 addss	 xmm0, DWORD PTR __real@3f000000
  00885	e8 00 00 00 00	 call	 __ftoui3
  0088a	89 85 6c ff ff
	ff		 mov	 DWORD PTR tv542[ebp], eax
$LN81@OnRender:
  00890	8b 85 6c ff ff
	ff		 mov	 eax, DWORD PTR tv542[ebp]
  00896	89 85 68 ff ff
	ff		 mov	 DWORD PTR tv543[ebp], eax
$LN83@OnRender:
  0089c	8b 85 68 ff ff
	ff		 mov	 eax, DWORD PTR tv543[ebp]
  008a2	89 85 14 ff ff
	ff		 mov	 DWORD PTR _dwR$9[ebp], eax

; 932  :     DWORD dwG = g >= 1.0f ? 0xff : g <= 0.0f ? 0x00 : (DWORD) (g * 255.0f + 0.5f);

  008a8	8b 45 00	 mov	 eax, DWORD PTR _this$[ebp]
  008ab	f3 0f 10 40 04	 movss	 xmm0, DWORD PTR [eax+4]
  008b0	0f 2f 05 00 00
	00 00		 comiss	 xmm0, DWORD PTR __real@3f800000
  008b7	72 0c		 jb	 SHORT $LN86@OnRender
  008b9	c7 85 60 ff ff
	ff ff 00 00 00	 mov	 DWORD PTR tv554[ebp], 255 ; 000000ffH
  008c3	eb 44		 jmp	 SHORT $LN87@OnRender
$LN86@OnRender:
  008c5	8b 45 00	 mov	 eax, DWORD PTR _this$[ebp]
  008c8	0f 57 c0	 xorps	 xmm0, xmm0
  008cb	0f 2f 40 04	 comiss	 xmm0, DWORD PTR [eax+4]
  008cf	72 09		 jb	 SHORT $LN84@OnRender
  008d1	83 a5 64 ff ff
	ff 00		 and	 DWORD PTR tv553[ebp], 0
  008d8	eb 23		 jmp	 SHORT $LN85@OnRender
$LN84@OnRender:
  008da	8b 45 00	 mov	 eax, DWORD PTR _this$[ebp]
  008dd	f3 0f 10 40 04	 movss	 xmm0, DWORD PTR [eax+4]
  008e2	f3 0f 59 05 00
	00 00 00	 mulss	 xmm0, DWORD PTR __real@437f0000
  008ea	f3 0f 58 05 00
	00 00 00	 addss	 xmm0, DWORD PTR __real@3f000000
  008f2	e8 00 00 00 00	 call	 __ftoui3
  008f7	89 85 64 ff ff
	ff		 mov	 DWORD PTR tv553[ebp], eax
$LN85@OnRender:
  008fd	8b 85 64 ff ff
	ff		 mov	 eax, DWORD PTR tv553[ebp]
  00903	89 85 60 ff ff
	ff		 mov	 DWORD PTR tv554[ebp], eax
$LN87@OnRender:
  00909	8b 85 60 ff ff
	ff		 mov	 eax, DWORD PTR tv554[ebp]
  0090f	89 85 e4 fe ff
	ff		 mov	 DWORD PTR _dwG$1[ebp], eax

; 933  :     DWORD dwB = b >= 1.0f ? 0xff : b <= 0.0f ? 0x00 : (DWORD) (b * 255.0f + 0.5f);

  00915	8b 45 00	 mov	 eax, DWORD PTR _this$[ebp]
  00918	f3 0f 10 40 08	 movss	 xmm0, DWORD PTR [eax+8]
  0091d	0f 2f 05 00 00
	00 00		 comiss	 xmm0, DWORD PTR __real@3f800000
  00924	72 0c		 jb	 SHORT $LN90@OnRender
  00926	c7 85 58 ff ff
	ff ff 00 00 00	 mov	 DWORD PTR tv565[ebp], 255 ; 000000ffH
  00930	eb 44		 jmp	 SHORT $LN91@OnRender
$LN90@OnRender:
  00932	8b 45 00	 mov	 eax, DWORD PTR _this$[ebp]
  00935	0f 57 c0	 xorps	 xmm0, xmm0
  00938	0f 2f 40 08	 comiss	 xmm0, DWORD PTR [eax+8]
  0093c	72 09		 jb	 SHORT $LN88@OnRender
  0093e	83 a5 5c ff ff
	ff 00		 and	 DWORD PTR tv564[ebp], 0
  00945	eb 23		 jmp	 SHORT $LN89@OnRender
$LN88@OnRender:
  00947	8b 45 00	 mov	 eax, DWORD PTR _this$[ebp]
  0094a	f3 0f 10 40 08	 movss	 xmm0, DWORD PTR [eax+8]
  0094f	f3 0f 59 05 00
	00 00 00	 mulss	 xmm0, DWORD PTR __real@437f0000
  00957	f3 0f 58 05 00
	00 00 00	 addss	 xmm0, DWORD PTR __real@3f000000
  0095f	e8 00 00 00 00	 call	 __ftoui3
  00964	89 85 5c ff ff
	ff		 mov	 DWORD PTR tv564[ebp], eax
$LN89@OnRender:
  0096a	8b 85 5c ff ff
	ff		 mov	 eax, DWORD PTR tv564[ebp]
  00970	89 85 58 ff ff
	ff		 mov	 DWORD PTR tv565[ebp], eax
$LN91@OnRender:
  00976	8b 85 58 ff ff
	ff		 mov	 eax, DWORD PTR tv565[ebp]
  0097c	89 85 0c ff ff
	ff		 mov	 DWORD PTR _dwB$7[ebp], eax

; 934  :     DWORD dwA = a >= 1.0f ? 0xff : a <= 0.0f ? 0x00 : (DWORD) (a * 255.0f + 0.5f);

  00982	8b 45 00	 mov	 eax, DWORD PTR _this$[ebp]
  00985	f3 0f 10 40 0c	 movss	 xmm0, DWORD PTR [eax+12]
  0098a	0f 2f 05 00 00
	00 00		 comiss	 xmm0, DWORD PTR __real@3f800000
  00991	72 0c		 jb	 SHORT $LN94@OnRender
  00993	c7 85 50 ff ff
	ff ff 00 00 00	 mov	 DWORD PTR tv576[ebp], 255 ; 000000ffH
  0099d	eb 44		 jmp	 SHORT $LN95@OnRender
$LN94@OnRender:
  0099f	8b 45 00	 mov	 eax, DWORD PTR _this$[ebp]
  009a2	0f 57 c0	 xorps	 xmm0, xmm0
  009a5	0f 2f 40 0c	 comiss	 xmm0, DWORD PTR [eax+12]
  009a9	72 09		 jb	 SHORT $LN92@OnRender
  009ab	83 a5 54 ff ff
	ff 00		 and	 DWORD PTR tv575[ebp], 0
  009b2	eb 23		 jmp	 SHORT $LN93@OnRender
$LN92@OnRender:
  009b4	8b 45 00	 mov	 eax, DWORD PTR _this$[ebp]
  009b7	f3 0f 10 40 0c	 movss	 xmm0, DWORD PTR [eax+12]
  009bc	f3 0f 59 05 00
	00 00 00	 mulss	 xmm0, DWORD PTR __real@437f0000
  009c4	f3 0f 58 05 00
	00 00 00	 addss	 xmm0, DWORD PTR __real@3f000000
  009cc	e8 00 00 00 00	 call	 __ftoui3
  009d1	89 85 54 ff ff
	ff		 mov	 DWORD PTR tv575[ebp], eax
$LN93@OnRender:
  009d7	8b 85 54 ff ff
	ff		 mov	 eax, DWORD PTR tv575[ebp]
  009dd	89 85 50 ff ff
	ff		 mov	 DWORD PTR tv576[ebp], eax
$LN95@OnRender:
  009e3	8b 85 50 ff ff
	ff		 mov	 eax, DWORD PTR tv576[ebp]
  009e9	89 85 10 ff ff
	ff		 mov	 DWORD PTR _dwA$8[ebp], eax
; File D:\Metin2 Server Files\mainline\SRC_2014\Metin2Client\EterLib\GrpImageInstance.cpp

; 84   : 	vertices[3].diffuse		= m_DiffuseColor;

  009ef	6a 18		 push	 24			; 00000018H
  009f1	58		 pop	 eax
  009f2	6b c0 03	 imul	 eax, eax, 3
; File D:\Metin2 Server Files\mainline\SRC_2014\M2Data\include\d3dx8math.inl

; 936  :     return (dwA << 24) | (dwR << 16) | (dwG << 8) | dwB;

  009f5	8b 8d e4 fe ff
	ff		 mov	 ecx, DWORD PTR _dwG$1[ebp]
  009fb	c1 e1 08	 shl	 ecx, 8
  009fe	8b 95 14 ff ff
	ff		 mov	 edx, DWORD PTR _dwR$9[ebp]
  00a04	c1 e2 10	 shl	 edx, 16			; 00000010H
  00a07	8b b5 10 ff ff
	ff		 mov	 esi, DWORD PTR _dwA$8[ebp]
  00a0d	c1 e6 18	 shl	 esi, 24			; 00000018H
  00a10	0b f2		 or	 esi, edx
  00a12	0b f1		 or	 esi, ecx
  00a14	0b b5 0c ff ff
	ff		 or	 esi, DWORD PTR _dwB$7[ebp]
; File D:\Metin2 Server Files\mainline\SRC_2014\Metin2Client\EterLib\GrpImageInstance.cpp

; 84   : 	vertices[3].diffuse		= m_DiffuseColor;

  00a1a	89 74 05 20	 mov	 DWORD PTR _vertices$[ebp+eax+12], esi

; 85   : 
; 86   : 	// 2004.11.18.myevan.ctrl+alt+del     
; 87   : 	if (CGraphicBase::SetPDTStream(vertices, 4))

  00a1e	6a 04		 push	 4
  00a20	8d 45 14	 lea	 eax, DWORD PTR _vertices$[ebp]
  00a23	50		 push	 eax
  00a24	e8 00 00 00 00	 call	 ?SetPDTStream@CGraphicBase@@SA_NPAUSPDTVertex@@I@Z ; CGraphicBase::SetPDTStream
  00a29	59		 pop	 ecx
  00a2a	59		 pop	 ecx
  00a2b	0f b6 c0	 movzx	 eax, al
  00a2e	85 c0		 test	 eax, eax
  00a30	74 5d		 je	 SHORT $LN2@OnRender

; 88   : 	{
; 89   : 		CGraphicBase::SetDefaultIndexBuffer(CGraphicBase::DEFAULT_IB_FILL_RECT);

  00a32	6a 05		 push	 5
  00a34	e8 00 00 00 00	 call	 ?SetDefaultIndexBuffer@CGraphicBase@@SAXI@Z ; CGraphicBase::SetDefaultIndexBuffer
  00a39	59		 pop	 ecx
; File D:\Metin2 Server Files\mainline\SRC_2014\Metin2Client\eterBase\Singleton.h

; 27   : 		return (*ms_singleton);

  00a3a	a1 00 00 00 00	 mov	 eax, DWORD PTR ?ms_singleton@?$CSingleton@VCStateManager@@@@0PAVCStateManager@@A ; CSingleton<CStateManager>::ms_singleton
  00a3f	89 85 08 ff ff
	ff		 mov	 DWORD PTR $T6[ebp], eax
; File D:\Metin2 Server Files\mainline\SRC_2014\Metin2Client\EterLib\GrpImageInstance.cpp

; 91   : 		STATEMANAGER.SetTexture(0, pTexture->GetD3DTexture());

  00a45	8b 4d f0	 mov	 ecx, DWORD PTR _pTexture$[ebp]
  00a48	e8 00 00 00 00	 call	 ?GetD3DTexture@CGraphicTexture@@QBEPAUIDirect3DTexture8@@XZ ; CGraphicTexture::GetD3DTexture
  00a4d	50		 push	 eax
  00a4e	6a 00		 push	 0
  00a50	8b 8d 08 ff ff
	ff		 mov	 ecx, DWORD PTR $T6[ebp]
  00a56	e8 00 00 00 00	 call	 ?SetTexture@CStateManager@@QAEXKPAUIDirect3DBaseTexture8@@@Z ; CStateManager::SetTexture

; 92   : 		STATEMANAGER.SetTexture(1, NULL);

  00a5b	6a 00		 push	 0
  00a5d	6a 01		 push	 1
  00a5f	8b 0d 00 00 00
	00		 mov	 ecx, DWORD PTR ?ms_singleton@?$CSingleton@VCStateManager@@@@0PAVCStateManager@@A ; CSingleton<CStateManager>::ms_singleton
  00a65	e8 00 00 00 00	 call	 ?SetTexture@CStateManager@@QAEXKPAUIDirect3DBaseTexture8@@@Z ; CStateManager::SetTexture

; 93   : 		STATEMANAGER.SetVertexShader(D3DFVF_XYZ|D3DFVF_DIFFUSE|D3DFVF_TEX1);		

  00a6a	68 42 01 00 00	 push	 322			; 00000142H
  00a6f	8b 0d 00 00 00
	00		 mov	 ecx, DWORD PTR ?ms_singleton@?$CSingleton@VCStateManager@@@@0PAVCStateManager@@A ; CSingleton<CStateManager>::ms_singleton
  00a75	e8 00 00 00 00	 call	 ?SetVertexShader@CStateManager@@QAEXK@Z ; CStateManager::SetVertexShader

; 94   : 		STATEMANAGER.DrawIndexedPrimitive(D3DPT_TRIANGLELIST, 0, 4, 0, 2);	

  00a7a	6a 02		 push	 2
  00a7c	6a 00		 push	 0
  00a7e	6a 04		 push	 4
  00a80	6a 00		 push	 0
  00a82	6a 04		 push	 4
  00a84	8b 0d 00 00 00
	00		 mov	 ecx, DWORD PTR ?ms_singleton@?$CSingleton@VCStateManager@@@@0PAVCStateManager@@A ; CSingleton<CStateManager>::ms_singleton
  00a8a	e8 00 00 00 00	 call	 ?DrawIndexedPrimitive@CStateManager@@QAEJW4_D3DPRIMITIVETYPE@@IIII@Z ; CStateManager::DrawIndexedPrimitive
$LN2@OnRender:

; 95   : 	}
; 96   : 	//OLD: STATEMANAGER.DrawIndexedPrimitiveUP(D3DPT_TRIANGLELIST, 0, 4, 2, c_FillRectIndices, D3DFMT_INDEX16, vertices, sizeof(TPDTVertex));	
; 97   : 	////////////////////////////////////////////////////////////	
; 98   : }

  00a8f	5e		 pop	 esi
  00a90	8b 4d 74	 mov	 ecx, DWORD PTR __$ArrayPad$[ebp]
  00a93	33 cd		 xor	 ecx, ebp
  00a95	e8 00 00 00 00	 call	 @__security_check_cookie@4
  00a9a	83 c5 78	 add	 ebp, 120		; 00000078H
  00a9d	c9		 leave
  00a9e	c3		 ret	 0
?OnRender@CGraphicImageInstance@@MAEXXZ ENDP		; CGraphicImageInstance::OnRender
_TEXT	ENDS
; Function compile flags: /Odspy
; File D:\Metin2 Server Files\mainline\SRC_2014\Metin2Client\EterLib\GrpImageInstance.cpp
;	COMDAT ?Initialize@CGraphicImageInstance@@IAEXXZ
_TEXT	SEGMENT
_this$ = -4						; size = 4
?Initialize@CGraphicImageInstance@@IAEXXZ PROC		; CGraphicImageInstance::Initialize, COMDAT
; _this$ = ecx

; 203  : {

  00000	55		 push	 ebp
  00001	8b ec		 mov	 ebp, esp
  00003	51		 push	 ecx
  00004	89 4d fc	 mov	 DWORD PTR _this$[ebp], ecx

; 204  : 	m_DiffuseColor.r = m_DiffuseColor.g = m_DiffuseColor.b = m_DiffuseColor.a = 1.0f;

  00007	8b 45 fc	 mov	 eax, DWORD PTR _this$[ebp]
  0000a	f3 0f 10 05 00
	00 00 00	 movss	 xmm0, DWORD PTR __real@3f800000
  00012	f3 0f 11 40 10	 movss	 DWORD PTR [eax+16], xmm0
  00017	8b 45 fc	 mov	 eax, DWORD PTR _this$[ebp]
  0001a	f3 0f 10 05 00
	00 00 00	 movss	 xmm0, DWORD PTR __real@3f800000
  00022	f3 0f 11 40 0c	 movss	 DWORD PTR [eax+12], xmm0
  00027	8b 45 fc	 mov	 eax, DWORD PTR _this$[ebp]
  0002a	f3 0f 10 05 00
	00 00 00	 movss	 xmm0, DWORD PTR __real@3f800000
  00032	f3 0f 11 40 08	 movss	 DWORD PTR [eax+8], xmm0
  00037	8b 45 fc	 mov	 eax, DWORD PTR _this$[ebp]
  0003a	f3 0f 10 05 00
	00 00 00	 movss	 xmm0, DWORD PTR __real@3f800000
  00042	f3 0f 11 40 04	 movss	 DWORD PTR [eax+4], xmm0

; 205  : 	m_v2Position.x = m_v2Position.y = 0.0f;

  00047	8b 45 fc	 mov	 eax, DWORD PTR _this$[ebp]
  0004a	0f 57 c0	 xorps	 xmm0, xmm0
  0004d	f3 0f 11 40 18	 movss	 DWORD PTR [eax+24], xmm0
  00052	8b 45 fc	 mov	 eax, DWORD PTR _this$[ebp]
  00055	0f 57 c0	 xorps	 xmm0, xmm0
  00058	f3 0f 11 40 14	 movss	 DWORD PTR [eax+20], xmm0

; 206  : }

  0005d	c9		 leave
  0005e	c3		 ret	 0
?Initialize@CGraphicImageInstance@@IAEXXZ ENDP		; CGraphicImageInstance::Initialize
_TEXT	ENDS
; Function compile flags: /Odspy
; File D:\Metin2 Server Files\mainline\SRC_2014\Metin2Client\EterLib\GrpImageInstance.cpp
; File D:\Metin2 Server Files\mainline\SRC_2014\Metin2Client\EterLib\Ref.h
; File D:\Metin2 Server Files\mainline\SRC_2014\Metin2Client\EterLib\GrpImageInstance.cpp
;	COMDAT ??8CGraphicImageInstance@@QBE_NABV0@@Z
_TEXT	SEGMENT
$T1 = -16						; size = 4
$T2 = -12						; size = 4
_this$ = -8						; size = 4
tv71 = -4						; size = 4
_rhs$ = 8						; size = 4
??8CGraphicImageInstance@@QBE_NABV0@@Z PROC		; CGraphicImageInstance::operator==, COMDAT
; _this$ = ecx

; 175  : {

  00000	55		 push	 ebp
  00001	8b ec		 mov	 ebp, esp
  00003	83 ec 10	 sub	 esp, 16			; 00000010H
  00006	89 4d f8	 mov	 DWORD PTR _this$[ebp], ecx
; File D:\Metin2 Server Files\mainline\SRC_2014\Metin2Client\EterLib\Ref.h

; 80   : 			return static_cast<T*>(m_pObject);

  00009	8b 45 f8	 mov	 eax, DWORD PTR _this$[ebp]
  0000c	8b 40 1c	 mov	 eax, DWORD PTR [eax+28]
  0000f	89 45 f4	 mov	 DWORD PTR $T2[ebp], eax
  00012	8b 45 08	 mov	 eax, DWORD PTR _rhs$[ebp]
  00015	8b 40 1c	 mov	 eax, DWORD PTR [eax+28]
  00018	89 45 f0	 mov	 DWORD PTR $T1[ebp], eax
; File D:\Metin2 Server Files\mainline\SRC_2014\Metin2Client\EterLib\GrpImageInstance.cpp

; 176  : 	return (m_roImage.GetPointer() == rhs.m_roImage.GetPointer());

  0001b	8b 45 f4	 mov	 eax, DWORD PTR $T2[ebp]
  0001e	3b 45 f0	 cmp	 eax, DWORD PTR $T1[ebp]
  00021	75 09		 jne	 SHORT $LN3@operator
  00023	c7 45 fc 01 00
	00 00		 mov	 DWORD PTR tv71[ebp], 1
  0002a	eb 04		 jmp	 SHORT $LN4@operator
$LN3@operator:
  0002c	83 65 fc 00	 and	 DWORD PTR tv71[ebp], 0
$LN4@operator:
  00030	8a 45 fc	 mov	 al, BYTE PTR tv71[ebp]

; 177  : }

  00033	c9		 leave
  00034	c2 04 00	 ret	 4
??8CGraphicImageInstance@@QBE_NABV0@@Z ENDP		; CGraphicImageInstance::operator==
_TEXT	ENDS
; Function compile flags: /Odspy
; File D:\Metin2 Server Files\mainline\SRC_2014\Metin2Client\EterLib\GrpImageInstance.cpp
; File D:\Metin2 Server Files\mainline\SRC_2014\Metin2Client\EterLib\Ref.h
; File D:\Metin2 Server Files\mainline\SRC_2014\Metin2Client\EterLib\GrpImageInstance.cpp
;	COMDAT ?GetGraphicImagePointer@CGraphicImageInstance@@QAEPAVCGraphicImage@@XZ
_TEXT	SEGMENT
$T1 = -8						; size = 4
_this$ = -4						; size = 4
?GetGraphicImagePointer@CGraphicImageInstance@@QAEPAVCGraphicImage@@XZ PROC ; CGraphicImageInstance::GetGraphicImagePointer, COMDAT
; _this$ = ecx

; 112  : {

  00000	55		 push	 ebp
  00001	8b ec		 mov	 ebp, esp
  00003	51		 push	 ecx
  00004	51		 push	 ecx
  00005	89 4d fc	 mov	 DWORD PTR _this$[ebp], ecx
; File D:\Metin2 Server Files\mainline\SRC_2014\Metin2Client\EterLib\Ref.h

; 80   : 			return static_cast<T*>(m_pObject);

  00008	8b 45 fc	 mov	 eax, DWORD PTR _this$[ebp]
  0000b	8b 40 1c	 mov	 eax, DWORD PTR [eax+28]
  0000e	89 45 f8	 mov	 DWORD PTR $T1[ebp], eax
; File D:\Metin2 Server Files\mainline\SRC_2014\Metin2Client\EterLib\GrpImageInstance.cpp

; 113  : 	return m_roImage.GetPointer();

  00011	8b 45 f8	 mov	 eax, DWORD PTR $T1[ebp]

; 114  : }

  00014	c9		 leave
  00015	c3		 ret	 0
?GetGraphicImagePointer@CGraphicImageInstance@@QAEPAVCGraphicImage@@XZ ENDP ; CGraphicImageInstance::GetGraphicImagePointer
_TEXT	ENDS
; Function compile flags: /Odspy
; File D:\Metin2 Server Files\mainline\SRC_2014\Metin2Client\EterLib\GrpImageInstance.cpp
; File D:\Metin2 Server Files\mainline\SRC_2014\Metin2Client\EterLib\Ref.h
; File D:\Metin2 Server Files\mainline\SRC_2014\Metin2Client\EterLib\GrpImageInstance.cpp
;	COMDAT ?GetTextureReference@CGraphicImageInstance@@QBEABVCGraphicTexture@@XZ
_TEXT	SEGMENT
$T1 = -8						; size = 4
_this$ = -4						; size = 4
?GetTextureReference@CGraphicImageInstance@@QBEABVCGraphicTexture@@XZ PROC ; CGraphicImageInstance::GetTextureReference, COMDAT
; _this$ = ecx

; 101  : {

  00000	55		 push	 ebp
  00001	8b ec		 mov	 ebp, esp
  00003	51		 push	 ecx
  00004	51		 push	 ecx
  00005	89 4d fc	 mov	 DWORD PTR _this$[ebp], ecx
; File D:\Metin2 Server Files\mainline\SRC_2014\Metin2Client\EterLib\Ref.h

; 86   : 			return static_cast<T*>(m_pObject);

  00008	8b 45 fc	 mov	 eax, DWORD PTR _this$[ebp]
  0000b	8b 40 1c	 mov	 eax, DWORD PTR [eax+28]
  0000e	89 45 f8	 mov	 DWORD PTR $T1[ebp], eax
; File D:\Metin2 Server Files\mainline\SRC_2014\Metin2Client\EterLib\GrpImageInstance.cpp

; 102  : 	return m_roImage->GetTextureReference();

  00011	8b 4d f8	 mov	 ecx, DWORD PTR $T1[ebp]
  00014	e8 00 00 00 00	 call	 ?GetTextureReference@CGraphicImage@@QBEABVCGraphicTexture@@XZ ; CGraphicImage::GetTextureReference

; 103  : }

  00019	c9		 leave
  0001a	c3		 ret	 0
?GetTextureReference@CGraphicImageInstance@@QBEABVCGraphicTexture@@XZ ENDP ; CGraphicImageInstance::GetTextureReference
_TEXT	ENDS
; Function compile flags: /Odspy
; File D:\Metin2 Server Files\mainline\SRC_2014\Metin2Client\EterLib\GrpImageInstance.cpp
; File D:\Metin2 Server Files\mainline\SRC_2014\Metin2Client\EterLib\Ref.h
; File D:\Metin2 Server Files\mainline\SRC_2014\Metin2Client\EterLib\GrpImageInstance.cpp
;	COMDAT ?GetTexturePointer@CGraphicImageInstance@@QAEPAVCGraphicTexture@@XZ
_TEXT	SEGMENT
_this$ = -12						; size = 4
tv70 = -8						; size = 4
_pkImage$ = -4						; size = 4
?GetTexturePointer@CGraphicImageInstance@@QAEPAVCGraphicTexture@@XZ PROC ; CGraphicImageInstance::GetTexturePointer, COMDAT
; _this$ = ecx

; 106  : {

  00000	55		 push	 ebp
  00001	8b ec		 mov	 ebp, esp
  00003	83 ec 0c	 sub	 esp, 12			; 0000000cH
  00006	89 4d f4	 mov	 DWORD PTR _this$[ebp], ecx
; File D:\Metin2 Server Files\mainline\SRC_2014\Metin2Client\EterLib\Ref.h

; 80   : 			return static_cast<T*>(m_pObject);

  00009	8b 45 f4	 mov	 eax, DWORD PTR _this$[ebp]
  0000c	8b 40 1c	 mov	 eax, DWORD PTR [eax+28]
  0000f	89 45 fc	 mov	 DWORD PTR _pkImage$[ebp], eax
; File D:\Metin2 Server Files\mainline\SRC_2014\Metin2Client\EterLib\GrpImageInstance.cpp

; 108  : 	return pkImage ? pkImage->GetTexturePointer() : NULL;

  00012	83 7d fc 00	 cmp	 DWORD PTR _pkImage$[ebp], 0
  00016	74 0d		 je	 SHORT $LN3@GetTexture
  00018	8b 4d fc	 mov	 ecx, DWORD PTR _pkImage$[ebp]
  0001b	e8 00 00 00 00	 call	 ?GetTexturePointer@CGraphicImage@@QAEPAVCGraphicTexture@@XZ ; CGraphicImage::GetTexturePointer
  00020	89 45 f8	 mov	 DWORD PTR tv70[ebp], eax
  00023	eb 04		 jmp	 SHORT $LN4@GetTexture
$LN3@GetTexture:
  00025	83 65 f8 00	 and	 DWORD PTR tv70[ebp], 0
$LN4@GetTexture:
  00029	8b 45 f8	 mov	 eax, DWORD PTR tv70[ebp]

; 109  : }

  0002c	c9		 leave
  0002d	c3		 ret	 0
?GetTexturePointer@CGraphicImageInstance@@QAEPAVCGraphicTexture@@XZ ENDP ; CGraphicImageInstance::GetTexturePointer
_TEXT	ENDS
; Function compile flags: /Odspy
; File D:\Metin2 Server Files\mainline\SRC_2014\Metin2Client\EterLib\GrpImageInstance.cpp
; File D:\Metin2 Server Files\mainline\SRC_2014\Metin2Client\EterLib\Ref.h
; File D:\Metin2 Server Files\mainline\SRC_2014\Metin2Client\EterLib\GrpImageInstance.cpp
;	COMDAT ?GetHeight@CGraphicImageInstance@@QAEHXZ
_TEXT	SEGMENT
$T1 = -8						; size = 4
_this$ = -4						; size = 4
?GetHeight@CGraphicImageInstance@@QAEHXZ PROC		; CGraphicImageInstance::GetHeight, COMDAT
; _this$ = ecx

; 125  : {

  00000	55		 push	 ebp
  00001	8b ec		 mov	 ebp, esp
  00003	51		 push	 ecx
  00004	51		 push	 ecx
  00005	89 4d fc	 mov	 DWORD PTR _this$[ebp], ecx

; 126  : 	if (IsEmpty())

  00008	8b 4d fc	 mov	 ecx, DWORD PTR _this$[ebp]
  0000b	e8 00 00 00 00	 call	 ?IsEmpty@CGraphicImageInstance@@QBE_NXZ ; CGraphicImageInstance::IsEmpty
  00010	0f b6 c0	 movzx	 eax, al
  00013	85 c0		 test	 eax, eax
  00015	74 04		 je	 SHORT $LN2@GetHeight

; 127  : 		return 0;

  00017	33 c0		 xor	 eax, eax
  00019	eb 11		 jmp	 SHORT $LN1@GetHeight
$LN2@GetHeight:
; File D:\Metin2 Server Files\mainline\SRC_2014\Metin2Client\EterLib\Ref.h

; 86   : 			return static_cast<T*>(m_pObject);

  0001b	8b 45 fc	 mov	 eax, DWORD PTR _this$[ebp]
  0001e	8b 40 1c	 mov	 eax, DWORD PTR [eax+28]
  00021	89 45 f8	 mov	 DWORD PTR $T1[ebp], eax
; File D:\Metin2 Server Files\mainline\SRC_2014\Metin2Client\EterLib\GrpImageInstance.cpp

; 129  : 	return m_roImage->GetHeight();

  00024	8b 4d f8	 mov	 ecx, DWORD PTR $T1[ebp]
  00027	e8 00 00 00 00	 call	 ?GetHeight@CGraphicImage@@QBEHXZ ; CGraphicImage::GetHeight
$LN1@GetHeight:

; 130  : }

  0002c	c9		 leave
  0002d	c3		 ret	 0
?GetHeight@CGraphicImageInstance@@QAEHXZ ENDP		; CGraphicImageInstance::GetHeight
_TEXT	ENDS
; Function compile flags: /Odspy
; File D:\Metin2 Server Files\mainline\SRC_2014\Metin2Client\EterLib\GrpImageInstance.cpp
; File D:\Metin2 Server Files\mainline\SRC_2014\Metin2Client\EterLib\Ref.h
; File D:\Metin2 Server Files\mainline\SRC_2014\Metin2Client\EterLib\GrpImageInstance.cpp
;	COMDAT ?GetWidth@CGraphicImageInstance@@QAEHXZ
_TEXT	SEGMENT
$T1 = -8						; size = 4
_this$ = -4						; size = 4
?GetWidth@CGraphicImageInstance@@QAEHXZ PROC		; CGraphicImageInstance::GetWidth, COMDAT
; _this$ = ecx

; 117  : {

  00000	55		 push	 ebp
  00001	8b ec		 mov	 ebp, esp
  00003	51		 push	 ecx
  00004	51		 push	 ecx
  00005	89 4d fc	 mov	 DWORD PTR _this$[ebp], ecx

; 118  : 	if (IsEmpty())

  00008	8b 4d fc	 mov	 ecx, DWORD PTR _this$[ebp]
  0000b	e8 00 00 00 00	 call	 ?IsEmpty@CGraphicImageInstance@@QBE_NXZ ; CGraphicImageInstance::IsEmpty
  00010	0f b6 c0	 movzx	 eax, al
  00013	85 c0		 test	 eax, eax
  00015	74 04		 je	 SHORT $LN2@GetWidth

; 119  : 		return 0;

  00017	33 c0		 xor	 eax, eax
  00019	eb 11		 jmp	 SHORT $LN1@GetWidth
$LN2@GetWidth:
; File D:\Metin2 Server Files\mainline\SRC_2014\Metin2Client\EterLib\Ref.h

; 86   : 			return static_cast<T*>(m_pObject);

  0001b	8b 45 fc	 mov	 eax, DWORD PTR _this$[ebp]
  0001e	8b 40 1c	 mov	 eax, DWORD PTR [eax+28]
  00021	89 45 f8	 mov	 DWORD PTR $T1[ebp], eax
; File D:\Metin2 Server Files\mainline\SRC_2014\Metin2Client\EterLib\GrpImageInstance.cpp

; 121  : 	return m_roImage->GetWidth();

  00024	8b 4d f8	 mov	 ecx, DWORD PTR $T1[ebp]
  00027	e8 00 00 00 00	 call	 ?GetWidth@CGraphicImage@@QBEHXZ ; CGraphicImage::GetWidth
$LN1@GetWidth:

; 122  : }

  0002c	c9		 leave
  0002d	c3		 ret	 0
?GetWidth@CGraphicImageInstance@@QAEHXZ ENDP		; CGraphicImageInstance::GetWidth
_TEXT	ENDS
; Function compile flags: /Odspy
; File D:\Metin2 Server Files\mainline\SRC_2014\Metin2Client\EterLib\GrpImageInstance.cpp
; File D:\Metin2 Server Files\mainline\SRC_2014\Metin2Client\EterLib\Ref.h
; File D:\Metin2 Server Files\mainline\SRC_2014\Metin2Client\EterLib\GrpImageInstance.cpp
; File D:\Metin2 Server Files\mainline\SRC_2014\Metin2Client\EterLib\Ref.h
; File D:\Metin2 Server Files\mainline\SRC_2014\Metin2Client\EterLib\GrpImageInstance.cpp
;	COMDAT ?IsEmpty@CGraphicImageInstance@@QBE_NXZ
_TEXT	SEGMENT
$T1 = -12						; size = 4
_this$ = -8						; size = 4
tv82 = -1						; size = 1
?IsEmpty@CGraphicImageInstance@@QBE_NXZ PROC		; CGraphicImageInstance::IsEmpty, COMDAT
; _this$ = ecx

; 167  : {

  00000	55		 push	 ebp
  00001	8b ec		 mov	 ebp, esp
  00003	83 ec 0c	 sub	 esp, 12			; 0000000cH
  00006	89 4d f8	 mov	 DWORD PTR _this$[ebp], ecx
; File D:\Metin2 Server Files\mainline\SRC_2014\Metin2Client\EterLib\Ref.h

; 62   : 			return m_pObject == NULL ? true : false;

  00009	8b 45 f8	 mov	 eax, DWORD PTR _this$[ebp]
  0000c	83 78 1c 00	 cmp	 DWORD PTR [eax+28], 0
  00010	75 06		 jne	 SHORT $LN6@IsEmpty
  00012	c6 45 ff 01	 mov	 BYTE PTR tv82[ebp], 1
  00016	eb 04		 jmp	 SHORT $LN4@IsEmpty
$LN6@IsEmpty:
  00018	c6 45 ff 00	 mov	 BYTE PTR tv82[ebp], 0
$LN4@IsEmpty:
; File D:\Metin2 Server Files\mainline\SRC_2014\Metin2Client\EterLib\GrpImageInstance.cpp

; 168  : 	if (!m_roImage.IsNull() && !m_roImage->IsEmpty())

  0001c	0f b6 45 ff	 movzx	 eax, BYTE PTR tv82[ebp]
  00020	85 c0		 test	 eax, eax
  00022	75 1c		 jne	 SHORT $LN2@IsEmpty
; File D:\Metin2 Server Files\mainline\SRC_2014\Metin2Client\EterLib\Ref.h

; 86   : 			return static_cast<T*>(m_pObject);

  00024	8b 45 f8	 mov	 eax, DWORD PTR _this$[ebp]
  00027	8b 40 1c	 mov	 eax, DWORD PTR [eax+28]
  0002a	89 45 f4	 mov	 DWORD PTR $T1[ebp], eax
; File D:\Metin2 Server Files\mainline\SRC_2014\Metin2Client\EterLib\GrpImageInstance.cpp

; 168  : 	if (!m_roImage.IsNull() && !m_roImage->IsEmpty())

  0002d	8b 4d f4	 mov	 ecx, DWORD PTR $T1[ebp]
  00030	e8 00 00 00 00	 call	 ?IsEmpty@CResource@@QBE_NXZ ; CResource::IsEmpty
  00035	0f b6 c0	 movzx	 eax, al
  00038	85 c0		 test	 eax, eax
  0003a	75 04		 jne	 SHORT $LN2@IsEmpty

; 169  : 		return false;

  0003c	32 c0		 xor	 al, al
  0003e	eb 02		 jmp	 SHORT $LN1@IsEmpty
$LN2@IsEmpty:

; 170  : 
; 171  : 	return true;

  00040	b0 01		 mov	 al, 1
$LN1@IsEmpty:

; 172  : }

  00042	c9		 leave
  00043	c3		 ret	 0
?IsEmpty@CGraphicImageInstance@@QBE_NXZ ENDP		; CGraphicImageInstance::IsEmpty
_TEXT	ENDS
; Function compile flags: /Odspy
; File D:\Metin2 Server Files\mainline\SRC_2014\Metin2Client\EterLib\GrpImageInstance.cpp
; File D:\Metin2 Server Files\mainline\SRC_2014\Metin2Client\EterLib\Ref.h
; File D:\Metin2 Server Files\mainline\SRC_2014\Metin2Client\EterLib\GrpImageInstance.cpp
; File D:\Metin2 Server Files\mainline\SRC_2014\Metin2Client\EterLib\Ref.h
; File D:\Metin2 Server Files\mainline\SRC_2014\Metin2Client\EterLib\GrpImageInstance.cpp
;	COMDAT ?ReloadImagePointer@CGraphicImageInstance@@QAEXPAVCGraphicImage@@@Z
_TEXT	SEGMENT
_pkImage$ = -12						; size = 4
_this$ = -8						; size = 4
tv82 = -1						; size = 1
_pImage$ = 8						; size = 4
?ReloadImagePointer@CGraphicImageInstance@@QAEXPAVCGraphicImage@@@Z PROC ; CGraphicImageInstance::ReloadImagePointer, COMDAT
; _this$ = ecx

; 153  : {

  00000	55		 push	 ebp
  00001	8b ec		 mov	 ebp, esp
  00003	83 ec 0c	 sub	 esp, 12			; 0000000cH
  00006	89 4d f8	 mov	 DWORD PTR _this$[ebp], ecx
; File D:\Metin2 Server Files\mainline\SRC_2014\Metin2Client\EterLib\Ref.h

; 62   : 			return m_pObject == NULL ? true : false;

  00009	8b 45 f8	 mov	 eax, DWORD PTR _this$[ebp]
  0000c	83 78 1c 00	 cmp	 DWORD PTR [eax+28], 0
  00010	75 06		 jne	 SHORT $LN7@ReloadImag
  00012	c6 45 ff 01	 mov	 BYTE PTR tv82[ebp], 1
  00016	eb 04		 jmp	 SHORT $LN5@ReloadImag
$LN7@ReloadImag:
  00018	c6 45 ff 00	 mov	 BYTE PTR tv82[ebp], 0
$LN5@ReloadImag:
; File D:\Metin2 Server Files\mainline\SRC_2014\Metin2Client\EterLib\GrpImageInstance.cpp

; 154  : 	if (m_roImage.IsNull())

  0001c	0f b6 45 ff	 movzx	 eax, BYTE PTR tv82[ebp]
  00020	85 c0		 test	 eax, eax
  00022	74 0d		 je	 SHORT $LN2@ReloadImag

; 155  : 	{
; 156  : 		SetImagePointer(pImage);

  00024	ff 75 08	 push	 DWORD PTR _pImage$[ebp]
  00027	8b 4d f8	 mov	 ecx, DWORD PTR _this$[ebp]
  0002a	e8 00 00 00 00	 call	 ?SetImagePointer@CGraphicImageInstance@@QAEXPAVCGraphicImage@@@Z ; CGraphicImageInstance::SetImagePointer

; 157  : 		return;

  0002f	eb 17		 jmp	 SHORT $LN1@ReloadImag
$LN2@ReloadImag:
; File D:\Metin2 Server Files\mainline\SRC_2014\Metin2Client\EterLib\Ref.h

; 80   : 			return static_cast<T*>(m_pObject);

  00031	8b 45 f8	 mov	 eax, DWORD PTR _this$[ebp]
  00034	8b 40 1c	 mov	 eax, DWORD PTR [eax+28]
  00037	89 45 f4	 mov	 DWORD PTR _pkImage$[ebp], eax
; File D:\Metin2 Server Files\mainline\SRC_2014\Metin2Client\EterLib\GrpImageInstance.cpp

; 162  : 	if (pkImage)

  0003a	83 7d f4 00	 cmp	 DWORD PTR _pkImage$[ebp], 0
  0003e	74 08		 je	 SHORT $LN1@ReloadImag

; 163  : 		pkImage->Reload();

  00040	8b 4d f4	 mov	 ecx, DWORD PTR _pkImage$[ebp]
  00043	e8 00 00 00 00	 call	 ?Reload@CResource@@QAEXXZ ; CResource::Reload
$LN1@ReloadImag:

; 164  : }

  00048	c9		 leave
  00049	c2 04 00	 ret	 4
?ReloadImagePointer@CGraphicImageInstance@@QAEXPAVCGraphicImage@@@Z ENDP ; CGraphicImageInstance::ReloadImagePointer
_TEXT	ENDS
; Function compile flags: /Odspy
; File D:\Metin2 Server Files\mainline\SRC_2014\Metin2Client\EterLib\GrpImageInstance.cpp
;	COMDAT ?SetImagePointer@CGraphicImageInstance@@QAEXPAVCGraphicImage@@@Z
_TEXT	SEGMENT
_this$ = -4						; size = 4
_pImage$ = 8						; size = 4
?SetImagePointer@CGraphicImageInstance@@QAEXPAVCGraphicImage@@@Z PROC ; CGraphicImageInstance::SetImagePointer, COMDAT
; _this$ = ecx

; 146  : {

  00000	55		 push	 ebp
  00001	8b ec		 mov	 ebp, esp
  00003	51		 push	 ecx
  00004	89 4d fc	 mov	 DWORD PTR _this$[ebp], ecx

; 147  : 	m_roImage.SetPointer(pImage);

  00007	ff 75 08	 push	 DWORD PTR _pImage$[ebp]
  0000a	8b 4d fc	 mov	 ecx, DWORD PTR _this$[ebp]
  0000d	83 c1 1c	 add	 ecx, 28			; 0000001cH
  00010	e8 00 00 00 00	 call	 ?SetPointer@?$CRef@VCGraphicImage@@@@QAEXPAVCReferenceObject@@@Z ; CRef<CGraphicImage>::SetPointer

; 148  : 
; 149  : 	OnSetImagePointer();

  00015	8b 45 fc	 mov	 eax, DWORD PTR _this$[ebp]
  00018	8b 00		 mov	 eax, DWORD PTR [eax]
  0001a	8b 4d fc	 mov	 ecx, DWORD PTR _this$[ebp]
  0001d	ff 50 08	 call	 DWORD PTR [eax+8]

; 150  : }

  00020	c9		 leave
  00021	c2 04 00	 ret	 4
?SetImagePointer@CGraphicImageInstance@@QAEXPAVCGraphicImage@@@Z ENDP ; CGraphicImageInstance::SetImagePointer
_TEXT	ENDS
; Function compile flags: /Odspy
; File D:\Metin2 Server Files\mainline\SRC_2014\Metin2Client\EterLib\GrpImageInstance.cpp
;	COMDAT ?SetPosition@CGraphicImageInstance@@QAEXMM@Z
_TEXT	SEGMENT
_this$ = -4						; size = 4
_fx$ = 8						; size = 4
_fy$ = 12						; size = 4
?SetPosition@CGraphicImageInstance@@QAEXMM@Z PROC	; CGraphicImageInstance::SetPosition, COMDAT
; _this$ = ecx

; 140  : {

  00000	55		 push	 ebp
  00001	8b ec		 mov	 ebp, esp
  00003	51		 push	 ecx
  00004	89 4d fc	 mov	 DWORD PTR _this$[ebp], ecx

; 141  : 	m_v2Position.x = fx;

  00007	8b 45 fc	 mov	 eax, DWORD PTR _this$[ebp]
  0000a	f3 0f 10 45 08	 movss	 xmm0, DWORD PTR _fx$[ebp]
  0000f	f3 0f 11 40 14	 movss	 DWORD PTR [eax+20], xmm0

; 142  : 	m_v2Position.y = fy;

  00014	8b 45 fc	 mov	 eax, DWORD PTR _this$[ebp]
  00017	f3 0f 10 45 0c	 movss	 xmm0, DWORD PTR _fy$[ebp]
  0001c	f3 0f 11 40 18	 movss	 DWORD PTR [eax+24], xmm0

; 143  : }

  00021	c9		 leave
  00022	c2 08 00	 ret	 8
?SetPosition@CGraphicImageInstance@@QAEXMM@Z ENDP	; CGraphicImageInstance::SetPosition
_TEXT	ENDS
; Function compile flags: /Odspy
; File D:\Metin2 Server Files\mainline\SRC_2014\Metin2Client\EterLib\GrpImageInstance.cpp
;	COMDAT ?SetDiffuseColor@CGraphicImageInstance@@QAEXMMMM@Z
_TEXT	SEGMENT
_this$ = -4						; size = 4
_fr$ = 8						; size = 4
_fg$ = 12						; size = 4
_fb$ = 16						; size = 4
_fa$ = 20						; size = 4
?SetDiffuseColor@CGraphicImageInstance@@QAEXMMMM@Z PROC	; CGraphicImageInstance::SetDiffuseColor, COMDAT
; _this$ = ecx

; 133  : {

  00000	55		 push	 ebp
  00001	8b ec		 mov	 ebp, esp
  00003	51		 push	 ecx
  00004	89 4d fc	 mov	 DWORD PTR _this$[ebp], ecx

; 134  : 	m_DiffuseColor.r = fr;

  00007	8b 45 fc	 mov	 eax, DWORD PTR _this$[ebp]
  0000a	f3 0f 10 45 08	 movss	 xmm0, DWORD PTR _fr$[ebp]
  0000f	f3 0f 11 40 04	 movss	 DWORD PTR [eax+4], xmm0

; 135  : 	m_DiffuseColor.g = fg;

  00014	8b 45 fc	 mov	 eax, DWORD PTR _this$[ebp]
  00017	f3 0f 10 45 0c	 movss	 xmm0, DWORD PTR _fg$[ebp]
  0001c	f3 0f 11 40 08	 movss	 DWORD PTR [eax+8], xmm0

; 136  : 	m_DiffuseColor.b = fb;

  00021	8b 45 fc	 mov	 eax, DWORD PTR _this$[ebp]
  00024	f3 0f 10 45 10	 movss	 xmm0, DWORD PTR _fb$[ebp]
  00029	f3 0f 11 40 0c	 movss	 DWORD PTR [eax+12], xmm0

; 137  : 	m_DiffuseColor.a = fa;

  0002e	8b 45 fc	 mov	 eax, DWORD PTR _this$[ebp]
  00031	f3 0f 10 45 14	 movss	 xmm0, DWORD PTR _fa$[ebp]
  00036	f3 0f 11 40 10	 movss	 DWORD PTR [eax+16], xmm0

; 138  : }

  0003b	c9		 leave
  0003c	c2 10 00	 ret	 16			; 00000010H
?SetDiffuseColor@CGraphicImageInstance@@QAEXMMMM@Z ENDP	; CGraphicImageInstance::SetDiffuseColor
_TEXT	ENDS
; Function compile flags: /Odspy
; File D:\Metin2 Server Files\mainline\SRC_2014\Metin2Client\EterLib\GrpImageInstance.cpp
;	COMDAT ?Render@CGraphicImageInstance@@QAEXXZ
_TEXT	SEGMENT
_this$ = -4						; size = 4
?Render@CGraphicImageInstance@@QAEXXZ PROC		; CGraphicImageInstance::Render, COMDAT
; _this$ = ecx

; 35   : {

  00000	55		 push	 ebp
  00001	8b ec		 mov	 ebp, esp
  00003	51		 push	 ecx
  00004	89 4d fc	 mov	 DWORD PTR _this$[ebp], ecx

; 36   : 	if (IsEmpty())

  00007	8b 4d fc	 mov	 ecx, DWORD PTR _this$[ebp]
  0000a	e8 00 00 00 00	 call	 ?IsEmpty@CGraphicImageInstance@@QBE_NXZ ; CGraphicImageInstance::IsEmpty
  0000f	0f b6 c0	 movzx	 eax, al
  00012	85 c0		 test	 eax, eax
  00014	74 02		 je	 SHORT $LN2@Render

; 37   : 		return;

  00016	eb 0b		 jmp	 SHORT $LN1@Render
$LN2@Render:

; 38   : 
; 39   : 	assert(!IsEmpty());
; 40   : 
; 41   : 	OnRender();

  00018	8b 45 fc	 mov	 eax, DWORD PTR _this$[ebp]
  0001b	8b 00		 mov	 eax, DWORD PTR [eax]
  0001d	8b 4d fc	 mov	 ecx, DWORD PTR _this$[ebp]
  00020	ff 50 04	 call	 DWORD PTR [eax+4]
$LN1@Render:

; 42   : }

  00023	c9		 leave
  00024	c3		 ret	 0
?Render@CGraphicImageInstance@@QAEXXZ ENDP		; CGraphicImageInstance::Render
_TEXT	ENDS
; Function compile flags: /Odspy
; File D:\Metin2 Server Files\mainline\SRC_2014\Metin2Client\EterLib\GrpImageInstance.cpp
;	COMDAT ?Destroy@CGraphicImageInstance@@QAEXXZ
_TEXT	SEGMENT
_this$ = -4						; size = 4
?Destroy@CGraphicImageInstance@@QAEXXZ PROC		; CGraphicImageInstance::Destroy, COMDAT
; _this$ = ecx

; 209  : {

  00000	55		 push	 ebp
  00001	8b ec		 mov	 ebp, esp
  00003	51		 push	 ecx
  00004	89 4d fc	 mov	 DWORD PTR _this$[ebp], ecx

; 210  : 	m_roImage.SetPointer(NULL); // CRef     .

  00007	6a 00		 push	 0
  00009	8b 4d fc	 mov	 ecx, DWORD PTR _this$[ebp]
  0000c	83 c1 1c	 add	 ecx, 28			; 0000001cH
  0000f	e8 00 00 00 00	 call	 ?SetPointer@?$CRef@VCGraphicImage@@@@QAEXPAVCReferenceObject@@@Z ; CRef<CGraphicImage>::SetPointer

; 211  : 	Initialize();

  00014	8b 4d fc	 mov	 ecx, DWORD PTR _this$[ebp]
  00017	e8 00 00 00 00	 call	 ?Initialize@CGraphicImageInstance@@IAEXXZ ; CGraphicImageInstance::Initialize

; 212  : }

  0001c	c9		 leave
  0001d	c3		 ret	 0
?Destroy@CGraphicImageInstance@@QAEXXZ ENDP		; CGraphicImageInstance::Destroy
_TEXT	ENDS
; Function compile flags: /Odspy
; File D:\Metin2 Server Files\mainline\SRC_2014\Metin2Client\EterLib\GrpImageInstance.cpp
; File D:\Metin2 Server Files\mainline\SRC_2014\Metin2Client\EterLib\Ref.h
; File D:\Metin2 Server Files\mainline\SRC_2014\Metin2Client\EterLib\GrpImageInstance.cpp
;	COMDAT ??1CGraphicImageInstance@@UAE@XZ
_TEXT	SEGMENT
_this$ = -20						; size = 4
_this$ = -16						; size = 4
__$EHRec$ = -12						; size = 12
??1CGraphicImageInstance@@UAE@XZ PROC			; CGraphicImageInstance::~CGraphicImageInstance, COMDAT
; _this$ = ecx

; 220  : {

  00000	55		 push	 ebp
  00001	8b ec		 mov	 ebp, esp
  00003	6a ff		 push	 -1
  00005	68 00 00 00 00	 push	 __ehhandler$??1CGraphicImageInstance@@UAE@XZ
  0000a	64 a1 00 00 00
	00		 mov	 eax, DWORD PTR fs:0
  00010	50		 push	 eax
  00011	51		 push	 ecx
  00012	51		 push	 ecx
  00013	a1 00 00 00 00	 mov	 eax, DWORD PTR ___security_cookie
  00018	33 c5		 xor	 eax, ebp
  0001a	50		 push	 eax
  0001b	8d 45 f4	 lea	 eax, DWORD PTR __$EHRec$[ebp]
  0001e	64 a3 00 00 00
	00		 mov	 DWORD PTR fs:0, eax
  00024	89 4d f0	 mov	 DWORD PTR _this$[ebp], ecx
  00027	8b 45 f0	 mov	 eax, DWORD PTR _this$[ebp]
  0002a	c7 00 00 00 00
	00		 mov	 DWORD PTR [eax], OFFSET ??_7CGraphicImageInstance@@6B@

; 221  : 	Destroy();

  00030	8b 4d f0	 mov	 ecx, DWORD PTR _this$[ebp]
  00033	e8 00 00 00 00	 call	 ?Destroy@CGraphicImageInstance@@QAEXXZ ; CGraphicImageInstance::Destroy

; 222  : }

  00038	8b 45 f0	 mov	 eax, DWORD PTR _this$[ebp]
  0003b	83 c0 1c	 add	 eax, 28			; 0000001cH
  0003e	89 45 ec	 mov	 DWORD PTR _this$[ebp], eax
; File D:\Metin2 Server Files\mainline\SRC_2014\Metin2Client\EterLib\Ref.h

; 37   : 		{

  00041	83 65 fc 00	 and	 DWORD PTR __$EHRec$[ebp+8], 0

; 53   : 			if (m_pObject)

  00045	8b 45 ec	 mov	 eax, DWORD PTR _this$[ebp]
  00048	83 38 00	 cmp	 DWORD PTR [eax], 0
  0004b	74 10		 je	 SHORT $LN3@CGraphicIm

; 54   : 			{
; 55   : 				m_pObject->Release();

  0004d	8b 45 ec	 mov	 eax, DWORD PTR _this$[ebp]
  00050	8b 08		 mov	 ecx, DWORD PTR [eax]
  00052	e8 00 00 00 00	 call	 ?Release@CReferenceObject@@QAEXXZ ; CReferenceObject::Release

; 56   : 				m_pObject = NULL;

  00057	8b 45 ec	 mov	 eax, DWORD PTR _this$[ebp]
  0005a	83 20 00	 and	 DWORD PTR [eax], 0
$LN3@CGraphicIm:

; 39   : 		}

  0005d	83 4d fc ff	 or	 DWORD PTR __$EHRec$[ebp+8], -1
; File D:\Metin2 Server Files\mainline\SRC_2014\Metin2Client\EterLib\GrpImageInstance.cpp

; 222  : }

  00061	8b 4d f4	 mov	 ecx, DWORD PTR __$EHRec$[ebp]
  00064	64 89 0d 00 00
	00 00		 mov	 DWORD PTR fs:0, ecx
  0006b	59		 pop	 ecx
  0006c	c9		 leave
  0006d	c3		 ret	 0
  0006e	cc		 int	 3
  0006f	cc		 int	 3
  00070	cc		 int	 3
  00071	cc		 int	 3
  00072	cc		 int	 3
_TEXT	ENDS
;	COMDAT text$x
text$x	SEGMENT
__ehhandler$??1CGraphicImageInstance@@UAE@XZ:
  00000	90		 npad	 1
  00001	90		 npad	 1
  00002	8b 54 24 08	 mov	 edx, DWORD PTR [esp+8]
  00006	8d 42 0c	 lea	 eax, DWORD PTR [edx+12]
  00009	8b 4a f4	 mov	 ecx, DWORD PTR [edx-12]
  0000c	33 c8		 xor	 ecx, eax
  0000e	e8 00 00 00 00	 call	 @__security_check_cookie@4
  00013	b8 00 00 00 00	 mov	 eax, OFFSET __ehfuncinfo$??1CGraphicImageInstance@@UAE@XZ
  00018	e9 00 00 00 00	 jmp	 ___CxxFrameHandler3
text$x	ENDS
??1CGraphicImageInstance@@UAE@XZ ENDP			; CGraphicImageInstance::~CGraphicImageInstance
; Function compile flags: /Odspy
; File D:\Metin2 Server Files\mainline\SRC_2014\Metin2Client\EterLib\GrpImageInstance.cpp
; File D:\Metin2 Server Files\mainline\SRC_2014\Metin2Client\EterLib\Ref.h
; File D:\Metin2 Server Files\mainline\SRC_2014\Metin2Client\EterLib\GrpImageInstance.cpp
;	COMDAT ??0CGraphicImageInstance@@QAE@XZ
_TEXT	SEGMENT
_this$ = -20						; size = 4
_this$ = -16						; size = 4
__$EHRec$ = -12						; size = 12
??0CGraphicImageInstance@@QAE@XZ PROC			; CGraphicImageInstance::CGraphicImageInstance, COMDAT
; _this$ = ecx

; 215  : {

  00000	55		 push	 ebp
  00001	8b ec		 mov	 ebp, esp
  00003	6a ff		 push	 -1
  00005	68 00 00 00 00	 push	 __ehhandler$??0CGraphicImageInstance@@QAE@XZ
  0000a	64 a1 00 00 00
	00		 mov	 eax, DWORD PTR fs:0
  00010	50		 push	 eax
  00011	51		 push	 ecx
  00012	51		 push	 ecx
  00013	a1 00 00 00 00	 mov	 eax, DWORD PTR ___security_cookie
  00018	33 c5		 xor	 eax, ebp
  0001a	50		 push	 eax
  0001b	8d 45 f4	 lea	 eax, DWORD PTR __$EHRec$[ebp]
  0001e	64 a3 00 00 00
	00		 mov	 DWORD PTR fs:0, eax
  00024	89 4d f0	 mov	 DWORD PTR _this$[ebp], ecx
  00027	8b 45 f0	 mov	 eax, DWORD PTR _this$[ebp]
  0002a	c7 00 00 00 00
	00		 mov	 DWORD PTR [eax], OFFSET ??_7CGraphicImageInstance@@6B@
  00030	8b 45 f0	 mov	 eax, DWORD PTR _this$[ebp]
  00033	83 c0 1c	 add	 eax, 28			; 0000001cH
  00036	89 45 ec	 mov	 DWORD PTR _this$[ebp], eax
; File D:\Metin2 Server Files\mainline\SRC_2014\Metin2Client\EterLib\Ref.h

; 20   : 		CRef() : m_pObject(NULL)

  00039	8b 45 ec	 mov	 eax, DWORD PTR _this$[ebp]
  0003c	83 20 00	 and	 DWORD PTR [eax], 0
; File D:\Metin2 Server Files\mainline\SRC_2014\Metin2Client\EterLib\GrpImageInstance.cpp

; 215  : {

  0003f	83 65 fc 00	 and	 DWORD PTR __$EHRec$[ebp+8], 0

; 216  : 	Initialize();

  00043	8b 4d f0	 mov	 ecx, DWORD PTR _this$[ebp]
  00046	e8 00 00 00 00	 call	 ?Initialize@CGraphicImageInstance@@IAEXXZ ; CGraphicImageInstance::Initialize

; 217  : }

  0004b	83 4d fc ff	 or	 DWORD PTR __$EHRec$[ebp+8], -1
  0004f	8b 45 f0	 mov	 eax, DWORD PTR _this$[ebp]
  00052	8b 4d f4	 mov	 ecx, DWORD PTR __$EHRec$[ebp]
  00055	64 89 0d 00 00
	00 00		 mov	 DWORD PTR fs:0, ecx
  0005c	59		 pop	 ecx
  0005d	c9		 leave
  0005e	c3		 ret	 0
_TEXT	ENDS
;	COMDAT text$x
text$x	SEGMENT
__unwindfunclet$??0CGraphicImageInstance@@QAE@XZ$0:
  00000	8b 4d f0	 mov	 ecx, DWORD PTR _this$[ebp]
  00003	83 c1 1c	 add	 ecx, 28			; 0000001cH
  00006	e9 00 00 00 00	 jmp	 ??1?$CRef@VCGraphicImage@@@@QAE@XZ ; CRef<CGraphicImage>::~CRef<CGraphicImage>
  0000b	cc		 int	 3
  0000c	cc		 int	 3
  0000d	cc		 int	 3
  0000e	cc		 int	 3
  0000f	cc		 int	 3
__ehhandler$??0CGraphicImageInstance@@QAE@XZ:
  00010	90		 npad	 1
  00011	90		 npad	 1
  00012	8b 54 24 08	 mov	 edx, DWORD PTR [esp+8]
  00016	8d 42 0c	 lea	 eax, DWORD PTR [edx+12]
  00019	8b 4a f4	 mov	 ecx, DWORD PTR [edx-12]
  0001c	33 c8		 xor	 ecx, eax
  0001e	e8 00 00 00 00	 call	 @__security_check_cookie@4
  00023	b8 00 00 00 00	 mov	 eax, OFFSET __ehfuncinfo$??0CGraphicImageInstance@@QAE@XZ
  00028	e9 00 00 00 00	 jmp	 ___CxxFrameHandler3
text$x	ENDS
??0CGraphicImageInstance@@QAE@XZ ENDP			; CGraphicImageInstance::CGraphicImageInstance
; Function compile flags: /Odspy
; File D:\Metin2 Server Files\mainline\SRC_2014\Metin2Client\EterLib\GrpImageInstance.cpp
;	COMDAT ?IsType@CGraphicImageInstance@@QAEHK@Z
_TEXT	SEGMENT
_this$ = -4						; size = 4
_dwType$ = 8						; size = 4
?IsType@CGraphicImageInstance@@QAEHK@Z PROC		; CGraphicImageInstance::IsType, COMDAT
; _this$ = ecx

; 186  : {

  00000	55		 push	 ebp
  00001	8b ec		 mov	 ebp, esp
  00003	51		 push	 ecx
  00004	89 4d fc	 mov	 DWORD PTR _this$[ebp], ecx

; 187  : 	return OnIsType(dwType);

  00007	ff 75 08	 push	 DWORD PTR _dwType$[ebp]
  0000a	8b 45 fc	 mov	 eax, DWORD PTR _this$[ebp]
  0000d	8b 00		 mov	 eax, DWORD PTR [eax]
  0000f	8b 4d fc	 mov	 ecx, DWORD PTR _this$[ebp]
  00012	ff 50 0c	 call	 DWORD PTR [eax+12]

; 188  : }

  00015	c9		 leave
  00016	c2 04 00	 ret	 4
?IsType@CGraphicImageInstance@@QAEHK@Z ENDP		; CGraphicImageInstance::IsType
_TEXT	ENDS
; Function compile flags: /Odspy
; File D:\Metin2 Server Files\mainline\SRC_2014\Metin2Client\EterLib\GrpImageInstance.cpp
;	COMDAT ?Type@CGraphicImageInstance@@SAKXZ
_TEXT	SEGMENT
__$EHRec$ = -12						; size = 12
?Type@CGraphicImageInstance@@SAKXZ PROC			; CGraphicImageInstance::Type, COMDAT

; 180  : {

  00000	55		 push	 ebp
  00001	8b ec		 mov	 ebp, esp
  00003	6a ff		 push	 -1
  00005	68 00 00 00 00	 push	 __ehhandler$?Type@CGraphicImageInstance@@SAKXZ
  0000a	64 a1 00 00 00
	00		 mov	 eax, DWORD PTR fs:0
  00010	50		 push	 eax
  00011	a1 00 00 00 00	 mov	 eax, DWORD PTR ___security_cookie
  00016	33 c5		 xor	 eax, ebp
  00018	50		 push	 eax
  00019	8d 45 f4	 lea	 eax, DWORD PTR __$EHRec$[ebp]
  0001c	64 a3 00 00 00
	00		 mov	 DWORD PTR fs:0, eax

; 181  : 	static DWORD s_dwType = GetCRC32("CGraphicImageInstance", strlen("CGraphicImageInstance"));

  00022	a1 00 00 00 00	 mov	 eax, DWORD PTR __tls_index
  00027	64 8b 0d 00 00
	00 00		 mov	 ecx, DWORD PTR fs:__tls_array
  0002e	8b 04 81	 mov	 eax, DWORD PTR [ecx+eax*4]
  00031	8b 0d 00 00 00
	00		 mov	 ecx, DWORD PTR ?$TSS0@?1??Type@CGraphicImageInstance@@SAKXZ@4HA
  00037	3b 88 00 00 00
	00		 cmp	 ecx, DWORD PTR __Init_thread_epoch[eax]
  0003d	7e 44		 jle	 SHORT $LN2@Type
  0003f	68 00 00 00 00	 push	 OFFSET ?$TSS0@?1??Type@CGraphicImageInstance@@SAKXZ@4HA
  00044	e8 00 00 00 00	 call	 __Init_thread_header
  00049	59		 pop	 ecx
  0004a	83 3d 00 00 00
	00 ff		 cmp	 DWORD PTR ?$TSS0@?1??Type@CGraphicImageInstance@@SAKXZ@4HA, -1
  00051	75 30		 jne	 SHORT $LN2@Type
  00053	83 65 fc 00	 and	 DWORD PTR __$EHRec$[ebp+8], 0
  00057	68 00 00 00 00	 push	 OFFSET ??_C@_0BG@OHFFHEGB@CGraphicImageInstance@
  0005c	e8 00 00 00 00	 call	 _strlen
  00061	59		 pop	 ecx
  00062	50		 push	 eax
  00063	68 00 00 00 00	 push	 OFFSET ??_C@_0BG@OHFFHEGB@CGraphicImageInstance@
  00068	e8 00 00 00 00	 call	 ?GetCRC32@@YAKPBDI@Z	; GetCRC32
  0006d	59		 pop	 ecx
  0006e	59		 pop	 ecx
  0006f	a3 00 00 00 00	 mov	 DWORD PTR ?s_dwType@?1??Type@CGraphicImageInstance@@SAKXZ@4KA, eax
  00074	83 4d fc ff	 or	 DWORD PTR __$EHRec$[ebp+8], -1
  00078	68 00 00 00 00	 push	 OFFSET ?$TSS0@?1??Type@CGraphicImageInstance@@SAKXZ@4HA
  0007d	e8 00 00 00 00	 call	 __Init_thread_footer
  00082	59		 pop	 ecx
$LN2@Type:

; 182  : 	return (s_dwType);

  00083	a1 00 00 00 00	 mov	 eax, DWORD PTR ?s_dwType@?1??Type@CGraphicImageInstance@@SAKXZ@4KA

; 183  : }

  00088	8b 4d f4	 mov	 ecx, DWORD PTR __$EHRec$[ebp]
  0008b	64 89 0d 00 00
	00 00		 mov	 DWORD PTR fs:0, ecx
  00092	59		 pop	 ecx
  00093	c9		 leave
  00094	c3		 ret	 0
_TEXT	ENDS
;	COMDAT text$x
text$x	SEGMENT
__unwindfunclet$?Type@CGraphicImageInstance@@SAKXZ$0:
  00000	68 00 00 00 00	 push	 OFFSET ?$TSS0@?1??Type@CGraphicImageInstance@@SAKXZ@4HA
  00005	e8 00 00 00 00	 call	 __Init_thread_abort
  0000a	59		 pop	 ecx
  0000b	c3		 ret	 0
  0000c	cc		 int	 3
  0000d	cc		 int	 3
  0000e	cc		 int	 3
  0000f	cc		 int	 3
  00010	cc		 int	 3
__ehhandler$?Type@CGraphicImageInstance@@SAKXZ:
  00011	90		 npad	 1
  00012	90		 npad	 1
  00013	8b 54 24 08	 mov	 edx, DWORD PTR [esp+8]
  00017	8d 42 0c	 lea	 eax, DWORD PTR [edx+12]
  0001a	8b 4a fc	 mov	 ecx, DWORD PTR [edx-4]
  0001d	33 c8		 xor	 ecx, eax
  0001f	e8 00 00 00 00	 call	 @__security_check_cookie@4
  00024	b8 00 00 00 00	 mov	 eax, OFFSET __ehfuncinfo$?Type@CGraphicImageInstance@@SAKXZ
  00029	e9 00 00 00 00	 jmp	 ___CxxFrameHandler3
text$x	ENDS
?Type@CGraphicImageInstance@@SAKXZ ENDP			; CGraphicImageInstance::Type
; Function compile flags: /Odspy
; File C:\Program Files (x86)\Microsoft Visual Studio\2019\Community\VC\Tools\MSVC\14.28.29333\include\xmemory
;	COMDAT ??$_Allocate_manually_vector_aligned@U_Default_allocate_traits@std@@@std@@YAPAXI@Z
_TEXT	SEGMENT
__Ptr$ = -12						; size = 4
__Block_size$ = -8					; size = 4
__Ptr_container$ = -4					; size = 4
__Bytes$ = 8						; size = 4
??$_Allocate_manually_vector_aligned@U_Default_allocate_traits@std@@@std@@YAPAXI@Z PROC ; std::_Allocate_manually_vector_aligned<std::_Default_allocate_traits>, COMDAT

; 113  : __declspec(allocator) void* _Allocate_manually_vector_aligned(const size_t _Bytes) {

  00000	55		 push	 ebp
  00001	8b ec		 mov	 ebp, esp
  00003	83 ec 0c	 sub	 esp, 12			; 0000000cH

; 114  :     // allocate _Bytes manually aligned to at least _Big_allocation_alignment
; 115  :     const size_t _Block_size = _Non_user_size + _Bytes;

  00006	8b 45 08	 mov	 eax, DWORD PTR __Bytes$[ebp]
  00009	83 c0 23	 add	 eax, 35			; 00000023H
  0000c	89 45 f8	 mov	 DWORD PTR __Block_size$[ebp], eax

; 116  :     if (_Block_size <= _Bytes) {

  0000f	8b 45 f8	 mov	 eax, DWORD PTR __Block_size$[ebp]
  00012	3b 45 08	 cmp	 eax, DWORD PTR __Bytes$[ebp]
  00015	77 05		 ja	 SHORT $LN12@Allocate_m

; 117  :         _Throw_bad_array_new_length(); // add overflow

  00017	e8 00 00 00 00	 call	 ?_Throw_bad_array_new_length@std@@YAXXZ ; std::_Throw_bad_array_new_length
$LN12@Allocate_m:

; 77   :         return ::operator new(_Bytes);

  0001c	ff 75 f8	 push	 DWORD PTR __Block_size$[ebp]
  0001f	e8 00 00 00 00	 call	 ??2@YAPAXI@Z		; operator new
  00024	59		 pop	 ecx

; 118  :     }
; 119  : 
; 120  :     const uintptr_t _Ptr_container = reinterpret_cast<uintptr_t>(_Traits::_Allocate(_Block_size));

  00025	89 45 fc	 mov	 DWORD PTR __Ptr_container$[ebp], eax
$LN4@Allocate_m:

; 121  :     _STL_VERIFY(_Ptr_container != 0, "invalid argument"); // validate even in release since we're doing p[-1]

  00028	83 7d fc 00	 cmp	 DWORD PTR __Ptr_container$[ebp], 0
  0002c	74 02		 je	 SHORT $LN7@Allocate_m
  0002e	eb 09		 jmp	 SHORT $LN2@Allocate_m
$LN7@Allocate_m:
  00030	e8 00 00 00 00	 call	 __invalid_parameter_noinfo_noreturn
  00035	33 c0		 xor	 eax, eax
  00037	75 f7		 jne	 SHORT $LN7@Allocate_m
$LN2@Allocate_m:
  00039	33 c0		 xor	 eax, eax
  0003b	75 eb		 jne	 SHORT $LN4@Allocate_m

; 122  :     void* const _Ptr = reinterpret_cast<void*>((_Ptr_container + _Non_user_size) & ~(_Big_allocation_alignment - 1));

  0003d	8b 45 fc	 mov	 eax, DWORD PTR __Ptr_container$[ebp]
  00040	83 c0 23	 add	 eax, 35			; 00000023H
  00043	83 e0 e0	 and	 eax, -32		; ffffffe0H
  00046	89 45 f4	 mov	 DWORD PTR __Ptr$[ebp], eax

; 123  :     static_cast<uintptr_t*>(_Ptr)[-1] = _Ptr_container;

  00049	6a 04		 push	 4
  0004b	58		 pop	 eax
  0004c	6b c0 ff	 imul	 eax, eax, -1
  0004f	8b 4d f4	 mov	 ecx, DWORD PTR __Ptr$[ebp]
  00052	8b 55 fc	 mov	 edx, DWORD PTR __Ptr_container$[ebp]
  00055	89 14 01	 mov	 DWORD PTR [ecx+eax], edx

; 124  : 
; 125  : #ifdef _DEBUG
; 126  :     static_cast<uintptr_t*>(_Ptr)[-2] = _Big_allocation_sentinel;
; 127  : #endif // _DEBUG
; 128  :     return _Ptr;

  00058	8b 45 f4	 mov	 eax, DWORD PTR __Ptr$[ebp]
$LN11@Allocate_m:

; 129  : }

  0005b	c9		 leave
  0005c	c3		 ret	 0
??$_Allocate_manually_vector_aligned@U_Default_allocate_traits@std@@@std@@YAPAXI@Z ENDP ; std::_Allocate_manually_vector_aligned<std::_Default_allocate_traits>
_TEXT	ENDS
; Function compile flags: /Odspy
; File C:\Program Files (x86)\Microsoft Visual Studio\2019\Community\VC\Tools\MSVC\14.28.29333\include\xmemory
;	COMDAT ??$_Allocate@$07U_Default_allocate_traits@std@@$0A@@std@@YAPAXI@Z
_TEXT	SEGMENT
__Bytes$ = 8						; size = 4
??$_Allocate@$07U_Default_allocate_traits@std@@$0A@@std@@YAPAXI@Z PROC ; std::_Allocate<8,std::_Default_allocate_traits,0>, COMDAT

; 197  : __declspec(allocator) void* _Allocate(const size_t _Bytes) {

  00000	55		 push	 ebp
  00001	8b ec		 mov	 ebp, esp

; 198  :     // allocate _Bytes when !_HAS_ALIGNED_NEW || _Align <= __STDCPP_DEFAULT_NEW_ALIGNMENT__
; 199  : #if defined(_M_IX86) || defined(_M_X64)
; 200  :     if (_Bytes >= _Big_allocation_threshold) { // boost the alignment of big allocations to help autovectorization

  00003	81 7d 08 00 10
	00 00		 cmp	 DWORD PTR __Bytes$[ebp], 4096 ; 00001000H
  0000a	72 0b		 jb	 SHORT $LN2@Allocate

; 201  :         return _Allocate_manually_vector_aligned<_Traits>(_Bytes);

  0000c	ff 75 08	 push	 DWORD PTR __Bytes$[ebp]
  0000f	e8 00 00 00 00	 call	 ??$_Allocate_manually_vector_aligned@U_Default_allocate_traits@std@@@std@@YAPAXI@Z ; std::_Allocate_manually_vector_aligned<std::_Default_allocate_traits>
  00014	59		 pop	 ecx
  00015	eb 13		 jmp	 SHORT $LN1@Allocate
$LN2@Allocate:

; 202  :     }
; 203  : #endif // defined(_M_IX86) || defined(_M_X64)
; 204  : 
; 205  :     if (_Bytes != 0) {

  00017	83 7d 08 00	 cmp	 DWORD PTR __Bytes$[ebp], 0
  0001b	74 0b		 je	 SHORT $LN3@Allocate

; 77   :         return ::operator new(_Bytes);

  0001d	ff 75 08	 push	 DWORD PTR __Bytes$[ebp]
  00020	e8 00 00 00 00	 call	 ??2@YAPAXI@Z		; operator new
  00025	59		 pop	 ecx

; 206  :         return _Traits::_Allocate(_Bytes);

  00026	eb 02		 jmp	 SHORT $LN1@Allocate
$LN3@Allocate:

; 207  :     }
; 208  : 
; 209  :     return nullptr;

  00028	33 c0		 xor	 eax, eax
$LN1@Allocate:

; 210  : }

  0002a	5d		 pop	 ebp
  0002b	c3		 ret	 0
??$_Allocate@$07U_Default_allocate_traits@std@@$0A@@std@@YAPAXI@Z ENDP ; std::_Allocate<8,std::_Default_allocate_traits,0>
_TEXT	ENDS
; Function compile flags: /Odspy
; File C:\Program Files (x86)\Microsoft Visual Studio\2019\Community\VC\Tools\MSVC\14.28.29333\include\xmemory
;	COMDAT ??$_Deallocate@$07$0A@@std@@YAXPAXI@Z
_TEXT	SEGMENT
__$EHRec$ = -12						; size = 12
__Ptr$ = 8						; size = 4
__Bytes$ = 12						; size = 4
??$_Deallocate@$07$0A@@std@@YAXPAXI@Z PROC		; std::_Deallocate<8,0>, COMDAT

; 213  : void _Deallocate(void* _Ptr, size_t _Bytes) noexcept {

  00000	55		 push	 ebp
  00001	8b ec		 mov	 ebp, esp
  00003	6a ff		 push	 -1
  00005	68 00 00 00 00	 push	 __ehhandler$??$_Deallocate@$07$0A@@std@@YAXPAXI@Z
  0000a	64 a1 00 00 00
	00		 mov	 eax, DWORD PTR fs:0
  00010	50		 push	 eax
  00011	a1 00 00 00 00	 mov	 eax, DWORD PTR ___security_cookie
  00016	33 c5		 xor	 eax, ebp
  00018	50		 push	 eax
  00019	8d 45 f4	 lea	 eax, DWORD PTR __$EHRec$[ebp]
  0001c	64 a3 00 00 00
	00		 mov	 DWORD PTR fs:0, eax

; 214  :     // deallocate storage allocated by _Allocate when !_HAS_ALIGNED_NEW || _Align <= __STDCPP_DEFAULT_NEW_ALIGNMENT__
; 215  : #if defined(_M_IX86) || defined(_M_X64)
; 216  :     if (_Bytes >= _Big_allocation_threshold) { // boost the alignment of big allocations to help autovectorization

  00022	81 7d 0c 00 10
	00 00		 cmp	 DWORD PTR __Bytes$[ebp], 4096 ; 00001000H
  00029	72 0f		 jb	 SHORT $LN2@Deallocate

; 217  :         _Adjust_manually_vector_aligned(_Ptr, _Bytes);

  0002b	8d 45 0c	 lea	 eax, DWORD PTR __Bytes$[ebp]
  0002e	50		 push	 eax
  0002f	8d 45 08	 lea	 eax, DWORD PTR __Ptr$[ebp]
  00032	50		 push	 eax
  00033	e8 00 00 00 00	 call	 ?_Adjust_manually_vector_aligned@std@@YAXAAPAXAAI@Z ; std::_Adjust_manually_vector_aligned
  00038	59		 pop	 ecx
  00039	59		 pop	 ecx
$LN2@Deallocate:

; 218  :     }
; 219  : #endif // defined(_M_IX86) || defined(_M_X64)
; 220  : 
; 221  :     ::operator delete(_Ptr, _Bytes);

  0003a	ff 75 0c	 push	 DWORD PTR __Bytes$[ebp]
  0003d	ff 75 08	 push	 DWORD PTR __Ptr$[ebp]
  00040	e8 00 00 00 00	 call	 ??3@YAXPAXI@Z		; operator delete
  00045	59		 pop	 ecx
  00046	59		 pop	 ecx

; 222  : }

  00047	8b 4d f4	 mov	 ecx, DWORD PTR __$EHRec$[ebp]
  0004a	64 89 0d 00 00
	00 00		 mov	 DWORD PTR fs:0, ecx
  00051	59		 pop	 ecx
  00052	c9		 leave
  00053	c3		 ret	 0
  00054	cc		 int	 3
  00055	cc		 int	 3
  00056	cc		 int	 3
  00057	cc		 int	 3
  00058	cc		 int	 3
_TEXT	ENDS
;	COMDAT text$x
text$x	SEGMENT
__ehhandler$??$_Deallocate@$07$0A@@std@@YAXPAXI@Z:
  00000	90		 npad	 1
  00001	90		 npad	 1
  00002	8b 54 24 08	 mov	 edx, DWORD PTR [esp+8]
  00006	8d 42 0c	 lea	 eax, DWORD PTR [edx+12]
  00009	8b 4a fc	 mov	 ecx, DWORD PTR [edx-4]
  0000c	33 c8		 xor	 ecx, eax
  0000e	e8 00 00 00 00	 call	 @__security_check_cookie@4
  00013	b8 00 00 00 00	 mov	 eax, OFFSET __ehfuncinfo$??$_Deallocate@$07$0A@@std@@YAXPAXI@Z
  00018	e9 00 00 00 00	 jmp	 ___CxxFrameHandler3
text$x	ENDS
??$_Deallocate@$07$0A@@std@@YAXPAXI@Z ENDP		; std::_Deallocate<8,0>
; Function compile flags: /Odspy
; File C:\Program Files (x86)\Microsoft Visual Studio\2019\Community\VC\Tools\MSVC\14.28.29333\include\xmemory
;	COMDAT ?_Adjust_manually_vector_aligned@std@@YAXAAPAXAAI@Z
_TEXT	SEGMENT
__Min_back_shift$ = -16					; size = 4
__Ptr_user$ = -12					; size = 4
__Ptr_container$ = -8					; size = 4
__Back_shift$ = -4					; size = 4
__Ptr$ = 8						; size = 4
__Bytes$ = 12						; size = 4
?_Adjust_manually_vector_aligned@std@@YAXAAPAXAAI@Z PROC ; std::_Adjust_manually_vector_aligned, COMDAT

; 132  : inline void _Adjust_manually_vector_aligned(void*& _Ptr, size_t& _Bytes) {

  00000	55		 push	 ebp
  00001	8b ec		 mov	 ebp, esp
  00003	83 ec 10	 sub	 esp, 16			; 00000010H

; 133  :     // adjust parameters from _Allocate_manually_vector_aligned to pass to operator delete
; 134  :     _Bytes += _Non_user_size;

  00006	8b 45 0c	 mov	 eax, DWORD PTR __Bytes$[ebp]
  00009	8b 00		 mov	 eax, DWORD PTR [eax]
  0000b	83 c0 23	 add	 eax, 35			; 00000023H
  0000e	8b 4d 0c	 mov	 ecx, DWORD PTR __Bytes$[ebp]
  00011	89 01		 mov	 DWORD PTR [ecx], eax

; 135  : 
; 136  :     const uintptr_t* const _Ptr_user = reinterpret_cast<uintptr_t*>(_Ptr);

  00013	8b 45 08	 mov	 eax, DWORD PTR __Ptr$[ebp]
  00016	8b 00		 mov	 eax, DWORD PTR [eax]
  00018	89 45 f4	 mov	 DWORD PTR __Ptr_user$[ebp], eax

; 137  :     const uintptr_t _Ptr_container   = _Ptr_user[-1];

  0001b	6a 04		 push	 4
  0001d	58		 pop	 eax
  0001e	6b c0 ff	 imul	 eax, eax, -1
  00021	8b 4d f4	 mov	 ecx, DWORD PTR __Ptr_user$[ebp]
  00024	8b 04 01	 mov	 eax, DWORD PTR [ecx+eax]
  00027	89 45 f8	 mov	 DWORD PTR __Ptr_container$[ebp], eax

; 138  : 
; 139  :     // If the following asserts, it likely means that we are performing
; 140  :     // an aligned delete on memory coming from an unaligned allocation.
; 141  :     _STL_ASSERT(_Ptr_user[-2] == _Big_allocation_sentinel, "invalid argument");
; 142  : 
; 143  :     // Extra paranoia on aligned allocation/deallocation; ensure _Ptr_container is
; 144  :     // in range [_Min_back_shift, _Non_user_size]
; 145  : #ifdef _DEBUG
; 146  :     constexpr uintptr_t _Min_back_shift = 2 * sizeof(void*);
; 147  : #else // ^^^ _DEBUG ^^^ // vvv !_DEBUG vvv
; 148  :     constexpr uintptr_t _Min_back_shift = sizeof(void*);

  0002a	c7 45 f0 04 00
	00 00		 mov	 DWORD PTR __Min_back_shift$[ebp], 4

; 149  : #endif // _DEBUG
; 150  :     const uintptr_t _Back_shift = reinterpret_cast<uintptr_t>(_Ptr) - _Ptr_container;

  00031	8b 45 08	 mov	 eax, DWORD PTR __Ptr$[ebp]
  00034	8b 00		 mov	 eax, DWORD PTR [eax]
  00036	2b 45 f8	 sub	 eax, DWORD PTR __Ptr_container$[ebp]
  00039	89 45 fc	 mov	 DWORD PTR __Back_shift$[ebp], eax
$LN4@Adjust_man:

; 151  :     _STL_VERIFY(_Back_shift >= _Min_back_shift && _Back_shift <= _Non_user_size, "invalid argument");

  0003c	83 7d fc 04	 cmp	 DWORD PTR __Back_shift$[ebp], 4
  00040	72 08		 jb	 SHORT $LN7@Adjust_man
  00042	83 7d fc 23	 cmp	 DWORD PTR __Back_shift$[ebp], 35 ; 00000023H
  00046	77 02		 ja	 SHORT $LN7@Adjust_man
  00048	eb 09		 jmp	 SHORT $LN2@Adjust_man
$LN7@Adjust_man:
  0004a	e8 00 00 00 00	 call	 __invalid_parameter_noinfo_noreturn
  0004f	33 c0		 xor	 eax, eax
  00051	75 f7		 jne	 SHORT $LN7@Adjust_man
$LN2@Adjust_man:
  00053	33 c0		 xor	 eax, eax
  00055	75 e5		 jne	 SHORT $LN4@Adjust_man

; 152  :     _Ptr = reinterpret_cast<void*>(_Ptr_container);

  00057	8b 45 08	 mov	 eax, DWORD PTR __Ptr$[ebp]
  0005a	8b 4d f8	 mov	 ecx, DWORD PTR __Ptr_container$[ebp]
  0005d	89 08		 mov	 DWORD PTR [eax], ecx
$LN10@Adjust_man:

; 153  : }

  0005f	c9		 leave
  00060	c3		 ret	 0
?_Adjust_manually_vector_aligned@std@@YAXAAPAXAAI@Z ENDP ; std::_Adjust_manually_vector_aligned
_TEXT	ENDS
; Function compile flags: /Odspy
; File C:\Program Files (x86)\Microsoft Visual Studio\2019\Community\VC\Tools\MSVC\14.28.29333\include\exception
;	COMDAT ?_Throw_bad_array_new_length@std@@YAXXZ
_TEXT	SEGMENT
$T1 = -12						; size = 12
?_Throw_bad_array_new_length@std@@YAXXZ PROC		; std::_Throw_bad_array_new_length, COMDAT

; 320  : [[noreturn]] inline void _Throw_bad_array_new_length() {

  00000	55		 push	 ebp
  00001	8b ec		 mov	 ebp, esp
  00003	83 ec 0c	 sub	 esp, 12			; 0000000cH

; 321  :     _THROW(bad_array_new_length{});

  00006	8d 4d f4	 lea	 ecx, DWORD PTR $T1[ebp]
  00009	e8 00 00 00 00	 call	 ??0bad_array_new_length@std@@QAE@XZ ; std::bad_array_new_length::bad_array_new_length
  0000e	68 00 00 00 00	 push	 OFFSET __TI3?AVbad_array_new_length@std@@
  00013	8d 45 f4	 lea	 eax, DWORD PTR $T1[ebp]
  00016	50		 push	 eax
  00017	e8 00 00 00 00	 call	 __CxxThrowException@8
$LN2@Throw_bad_:

; 322  : }

  0001c	c9		 leave
  0001d	c3		 ret	 0
?_Throw_bad_array_new_length@std@@YAXXZ ENDP		; std::_Throw_bad_array_new_length
_TEXT	ENDS
; Function compile flags: /Odspy
; File C:\Program Files (x86)\Microsoft Visual Studio\2019\Community\VC\Tools\MSVC\14.28.29333\include\vcruntime_exception.h
;	COMDAT ??_Gbad_array_new_length@std@@UAEPAXI@Z
_TEXT	SEGMENT
_this$ = -4						; size = 4
___flags$ = 8						; size = 4
??_Gbad_array_new_length@std@@UAEPAXI@Z PROC		; std::bad_array_new_length::`scalar deleting destructor', COMDAT
; _this$ = ecx
  00000	55		 push	 ebp
  00001	8b ec		 mov	 ebp, esp
  00003	51		 push	 ecx
  00004	89 4d fc	 mov	 DWORD PTR _this$[ebp], ecx

; 89   :     {

  00007	8b 45 fc	 mov	 eax, DWORD PTR _this$[ebp]
  0000a	c7 00 00 00 00
	00		 mov	 DWORD PTR [eax], OFFSET ??_7exception@std@@6B@

; 90   :         __std_exception_destroy(&_Data);

  00010	8b 45 fc	 mov	 eax, DWORD PTR _this$[ebp]
  00013	83 c0 04	 add	 eax, 4
  00016	50		 push	 eax
  00017	e8 00 00 00 00	 call	 ___std_exception_destroy
  0001c	59		 pop	 ecx
  0001d	8b 45 08	 mov	 eax, DWORD PTR ___flags$[ebp]
  00020	83 e0 01	 and	 eax, 1
  00023	74 0c		 je	 SHORT $LN2@scalar
  00025	6a 0c		 push	 12			; 0000000cH
  00027	ff 75 fc	 push	 DWORD PTR _this$[ebp]
  0002a	e8 00 00 00 00	 call	 ??3@YAXPAXI@Z		; operator delete
  0002f	59		 pop	 ecx
  00030	59		 pop	 ecx
$LN2@scalar:
  00031	8b 45 fc	 mov	 eax, DWORD PTR _this$[ebp]
  00034	c9		 leave
  00035	c2 04 00	 ret	 4
??_Gbad_array_new_length@std@@UAEPAXI@Z ENDP		; std::bad_array_new_length::`scalar deleting destructor'
_TEXT	ENDS
; Function compile flags: /Odspy
;	COMDAT ??0bad_array_new_length@std@@QAE@ABV01@@Z
_TEXT	SEGMENT
_this$ = -4						; size = 4
___that$ = 8						; size = 4
??0bad_array_new_length@std@@QAE@ABV01@@Z PROC		; std::bad_array_new_length::bad_array_new_length, COMDAT
; _this$ = ecx
  00000	55		 push	 ebp
  00001	8b ec		 mov	 ebp, esp
  00003	51		 push	 ecx
  00004	89 4d fc	 mov	 DWORD PTR _this$[ebp], ecx
  00007	ff 75 08	 push	 DWORD PTR ___that$[ebp]
  0000a	8b 4d fc	 mov	 ecx, DWORD PTR _this$[ebp]
  0000d	e8 00 00 00 00	 call	 ??0exception@std@@QAE@ABV01@@Z ; std::exception::exception
  00012	8b 45 fc	 mov	 eax, DWORD PTR _this$[ebp]
  00015	c7 00 00 00 00
	00		 mov	 DWORD PTR [eax], OFFSET ??_7bad_alloc@std@@6B@
  0001b	8b 45 fc	 mov	 eax, DWORD PTR _this$[ebp]
  0001e	c7 00 00 00 00
	00		 mov	 DWORD PTR [eax], OFFSET ??_7bad_array_new_length@std@@6B@
  00024	8b 45 fc	 mov	 eax, DWORD PTR _this$[ebp]
  00027	c9		 leave
  00028	c2 04 00	 ret	 4
??0bad_array_new_length@std@@QAE@ABV01@@Z ENDP		; std::bad_array_new_length::bad_array_new_length
_TEXT	ENDS
; Function compile flags: /Odspy
; File C:\Program Files (x86)\Microsoft Visual Studio\2019\Community\VC\Tools\MSVC\14.28.29333\include\vcruntime_exception.h
;	COMDAT ??1bad_array_new_length@std@@UAE@XZ
_TEXT	SEGMENT
_this$ = -4						; size = 4
??1bad_array_new_length@std@@UAE@XZ PROC		; std::bad_array_new_length::~bad_array_new_length, COMDAT
; _this$ = ecx
  00000	55		 push	 ebp
  00001	8b ec		 mov	 ebp, esp
  00003	51		 push	 ecx
  00004	89 4d fc	 mov	 DWORD PTR _this$[ebp], ecx

; 89   :     {

  00007	8b 45 fc	 mov	 eax, DWORD PTR _this$[ebp]
  0000a	c7 00 00 00 00
	00		 mov	 DWORD PTR [eax], OFFSET ??_7exception@std@@6B@

; 90   :         __std_exception_destroy(&_Data);

  00010	8b 45 fc	 mov	 eax, DWORD PTR _this$[ebp]
  00013	83 c0 04	 add	 eax, 4
  00016	50		 push	 eax
  00017	e8 00 00 00 00	 call	 ___std_exception_destroy
  0001c	59		 pop	 ecx
  0001d	c9		 leave
  0001e	c3		 ret	 0
??1bad_array_new_length@std@@UAE@XZ ENDP		; std::bad_array_new_length::~bad_array_new_length
_TEXT	ENDS
; Function compile flags: /Odspy
; File C:\Program Files (x86)\Microsoft Visual Studio\2019\Community\VC\Tools\MSVC\14.28.29333\include\vcruntime_exception.h
;	COMDAT ??0bad_array_new_length@std@@QAE@XZ
_TEXT	SEGMENT
_this$ = -4						; size = 4
??0bad_array_new_length@std@@QAE@XZ PROC		; std::bad_array_new_length::bad_array_new_length, COMDAT
; _this$ = ecx

; 141  :     {

  00000	55		 push	 ebp
  00001	8b ec		 mov	 ebp, esp
  00003	51		 push	 ecx
  00004	89 4d fc	 mov	 DWORD PTR _this$[ebp], ecx

; 66   :     {

  00007	8b 45 fc	 mov	 eax, DWORD PTR _this$[ebp]
  0000a	c7 00 00 00 00
	00		 mov	 DWORD PTR [eax], OFFSET ??_7exception@std@@6B@

; 65   :         : _Data()

  00010	33 c0		 xor	 eax, eax
  00012	8b 4d fc	 mov	 ecx, DWORD PTR _this$[ebp]
  00015	83 c1 04	 add	 ecx, 4
  00018	89 01		 mov	 DWORD PTR [ecx], eax
  0001a	89 41 04	 mov	 DWORD PTR [ecx+4], eax

; 67   :         _Data._What = _Message;

  0001d	8b 45 fc	 mov	 eax, DWORD PTR _this$[ebp]
  00020	c7 40 04 00 00
	00 00		 mov	 DWORD PTR [eax+4], OFFSET ??_C@_0BF@KINCDENJ@bad?5array?5new?5length@

; 130  :     {

  00027	8b 45 fc	 mov	 eax, DWORD PTR _this$[ebp]
  0002a	c7 00 00 00 00
	00		 mov	 DWORD PTR [eax], OFFSET ??_7bad_alloc@std@@6B@

; 141  :     {

  00030	8b 45 fc	 mov	 eax, DWORD PTR _this$[ebp]
  00033	c7 00 00 00 00
	00		 mov	 DWORD PTR [eax], OFFSET ??_7bad_array_new_length@std@@6B@

; 142  :     }

  00039	8b 45 fc	 mov	 eax, DWORD PTR _this$[ebp]
  0003c	c9		 leave
  0003d	c3		 ret	 0
??0bad_array_new_length@std@@QAE@XZ ENDP		; std::bad_array_new_length::bad_array_new_length
_TEXT	ENDS
; Function compile flags: /Odspy
; File C:\Program Files (x86)\Microsoft Visual Studio\2019\Community\VC\Tools\MSVC\14.28.29333\include\vcruntime_exception.h
;	COMDAT ??_Gbad_alloc@std@@UAEPAXI@Z
_TEXT	SEGMENT
_this$ = -4						; size = 4
___flags$ = 8						; size = 4
??_Gbad_alloc@std@@UAEPAXI@Z PROC			; std::bad_alloc::`scalar deleting destructor', COMDAT
; _this$ = ecx
  00000	55		 push	 ebp
  00001	8b ec		 mov	 ebp, esp
  00003	51		 push	 ecx
  00004	89 4d fc	 mov	 DWORD PTR _this$[ebp], ecx

; 89   :     {

  00007	8b 45 fc	 mov	 eax, DWORD PTR _this$[ebp]
  0000a	c7 00 00 00 00
	00		 mov	 DWORD PTR [eax], OFFSET ??_7exception@std@@6B@

; 90   :         __std_exception_destroy(&_Data);

  00010	8b 45 fc	 mov	 eax, DWORD PTR _this$[ebp]
  00013	83 c0 04	 add	 eax, 4
  00016	50		 push	 eax
  00017	e8 00 00 00 00	 call	 ___std_exception_destroy
  0001c	59		 pop	 ecx
  0001d	8b 45 08	 mov	 eax, DWORD PTR ___flags$[ebp]
  00020	83 e0 01	 and	 eax, 1
  00023	74 0c		 je	 SHORT $LN2@scalar
  00025	6a 0c		 push	 12			; 0000000cH
  00027	ff 75 fc	 push	 DWORD PTR _this$[ebp]
  0002a	e8 00 00 00 00	 call	 ??3@YAXPAXI@Z		; operator delete
  0002f	59		 pop	 ecx
  00030	59		 pop	 ecx
$LN2@scalar:
  00031	8b 45 fc	 mov	 eax, DWORD PTR _this$[ebp]
  00034	c9		 leave
  00035	c2 04 00	 ret	 4
??_Gbad_alloc@std@@UAEPAXI@Z ENDP			; std::bad_alloc::`scalar deleting destructor'
_TEXT	ENDS
; Function compile flags: /Odspy
;	COMDAT ??0bad_alloc@std@@QAE@ABV01@@Z
_TEXT	SEGMENT
_this$ = -4						; size = 4
___that$ = 8						; size = 4
??0bad_alloc@std@@QAE@ABV01@@Z PROC			; std::bad_alloc::bad_alloc, COMDAT
; _this$ = ecx
  00000	55		 push	 ebp
  00001	8b ec		 mov	 ebp, esp
  00003	51		 push	 ecx
  00004	89 4d fc	 mov	 DWORD PTR _this$[ebp], ecx
  00007	ff 75 08	 push	 DWORD PTR ___that$[ebp]
  0000a	8b 4d fc	 mov	 ecx, DWORD PTR _this$[ebp]
  0000d	e8 00 00 00 00	 call	 ??0exception@std@@QAE@ABV01@@Z ; std::exception::exception
  00012	8b 45 fc	 mov	 eax, DWORD PTR _this$[ebp]
  00015	c7 00 00 00 00
	00		 mov	 DWORD PTR [eax], OFFSET ??_7bad_alloc@std@@6B@
  0001b	8b 45 fc	 mov	 eax, DWORD PTR _this$[ebp]
  0001e	c9		 leave
  0001f	c2 04 00	 ret	 4
??0bad_alloc@std@@QAE@ABV01@@Z ENDP			; std::bad_alloc::bad_alloc
_TEXT	ENDS
; Function compile flags: /Odspy
; File C:\Program Files (x86)\Microsoft Visual Studio\2019\Community\VC\Tools\MSVC\14.28.29333\include\vcruntime_exception.h
;	COMDAT ??_Gexception@std@@UAEPAXI@Z
_TEXT	SEGMENT
_this$ = -4						; size = 4
___flags$ = 8						; size = 4
??_Gexception@std@@UAEPAXI@Z PROC			; std::exception::`scalar deleting destructor', COMDAT
; _this$ = ecx
  00000	55		 push	 ebp
  00001	8b ec		 mov	 ebp, esp
  00003	51		 push	 ecx
  00004	89 4d fc	 mov	 DWORD PTR _this$[ebp], ecx

; 89   :     {

  00007	8b 45 fc	 mov	 eax, DWORD PTR _this$[ebp]
  0000a	c7 00 00 00 00
	00		 mov	 DWORD PTR [eax], OFFSET ??_7exception@std@@6B@

; 90   :         __std_exception_destroy(&_Data);

  00010	8b 45 fc	 mov	 eax, DWORD PTR _this$[ebp]
  00013	83 c0 04	 add	 eax, 4
  00016	50		 push	 eax
  00017	e8 00 00 00 00	 call	 ___std_exception_destroy
  0001c	59		 pop	 ecx
  0001d	8b 45 08	 mov	 eax, DWORD PTR ___flags$[ebp]
  00020	83 e0 01	 and	 eax, 1
  00023	74 0c		 je	 SHORT $LN2@scalar
  00025	6a 0c		 push	 12			; 0000000cH
  00027	ff 75 fc	 push	 DWORD PTR _this$[ebp]
  0002a	e8 00 00 00 00	 call	 ??3@YAXPAXI@Z		; operator delete
  0002f	59		 pop	 ecx
  00030	59		 pop	 ecx
$LN2@scalar:
  00031	8b 45 fc	 mov	 eax, DWORD PTR _this$[ebp]
  00034	c9		 leave
  00035	c2 04 00	 ret	 4
??_Gexception@std@@UAEPAXI@Z ENDP			; std::exception::`scalar deleting destructor'
_TEXT	ENDS
; Function compile flags: /Odspy
; File C:\Program Files (x86)\Microsoft Visual Studio\2019\Community\VC\Tools\MSVC\14.28.29333\include\vcruntime_exception.h
;	COMDAT ?what@exception@std@@UBEPBDXZ
_TEXT	SEGMENT
tv69 = -8						; size = 4
_this$ = -4						; size = 4
?what@exception@std@@UBEPBDXZ PROC			; std::exception::what, COMDAT
; _this$ = ecx

; 94   :     {

  00000	55		 push	 ebp
  00001	8b ec		 mov	 ebp, esp
  00003	51		 push	 ecx
  00004	51		 push	 ecx
  00005	89 4d fc	 mov	 DWORD PTR _this$[ebp], ecx

; 95   :         return _Data._What ? _Data._What : "Unknown exception";

  00008	8b 45 fc	 mov	 eax, DWORD PTR _this$[ebp]
  0000b	83 78 04 00	 cmp	 DWORD PTR [eax+4], 0
  0000f	74 0b		 je	 SHORT $LN3@what
  00011	8b 45 fc	 mov	 eax, DWORD PTR _this$[ebp]
  00014	8b 40 04	 mov	 eax, DWORD PTR [eax+4]
  00017	89 45 f8	 mov	 DWORD PTR tv69[ebp], eax
  0001a	eb 07		 jmp	 SHORT $LN4@what
$LN3@what:
  0001c	c7 45 f8 00 00
	00 00		 mov	 DWORD PTR tv69[ebp], OFFSET ??_C@_0BC@EOODALEL@Unknown?5exception@
$LN4@what:
  00023	8b 45 f8	 mov	 eax, DWORD PTR tv69[ebp]

; 96   :     }

  00026	c9		 leave
  00027	c3		 ret	 0
?what@exception@std@@UBEPBDXZ ENDP			; std::exception::what
_TEXT	ENDS
; Function compile flags: /Odspy
; File C:\Program Files (x86)\Microsoft Visual Studio\2019\Community\VC\Tools\MSVC\14.28.29333\include\vcruntime_exception.h
;	COMDAT ??0exception@std@@QAE@ABV01@@Z
_TEXT	SEGMENT
_this$ = -4						; size = 4
__Other$ = 8						; size = 4
??0exception@std@@QAE@ABV01@@Z PROC			; std::exception::exception, COMDAT
; _this$ = ecx

; 72   :     {

  00000	55		 push	 ebp
  00001	8b ec		 mov	 ebp, esp
  00003	51		 push	 ecx
  00004	89 4d fc	 mov	 DWORD PTR _this$[ebp], ecx
  00007	8b 45 fc	 mov	 eax, DWORD PTR _this$[ebp]
  0000a	c7 00 00 00 00
	00		 mov	 DWORD PTR [eax], OFFSET ??_7exception@std@@6B@

; 71   :         : _Data()

  00010	33 c0		 xor	 eax, eax
  00012	8b 4d fc	 mov	 ecx, DWORD PTR _this$[ebp]
  00015	83 c1 04	 add	 ecx, 4
  00018	89 01		 mov	 DWORD PTR [ecx], eax
  0001a	89 41 04	 mov	 DWORD PTR [ecx+4], eax

; 73   :         __std_exception_copy(&_Other._Data, &_Data);

  0001d	8b 45 fc	 mov	 eax, DWORD PTR _this$[ebp]
  00020	83 c0 04	 add	 eax, 4
  00023	50		 push	 eax
  00024	8b 45 08	 mov	 eax, DWORD PTR __Other$[ebp]
  00027	83 c0 04	 add	 eax, 4
  0002a	50		 push	 eax
  0002b	e8 00 00 00 00	 call	 ___std_exception_copy
  00030	59		 pop	 ecx
  00031	59		 pop	 ecx

; 74   :     }

  00032	8b 45 fc	 mov	 eax, DWORD PTR _this$[ebp]
  00035	c9		 leave
  00036	c2 04 00	 ret	 4
??0exception@std@@QAE@ABV01@@Z ENDP			; std::exception::exception
_TEXT	ENDS
; Function compile flags: /Odspy
;	COMDAT ??_H@YGXPAXIIP6EPAX0@Z@Z
_TEXT	SEGMENT
tv66 = -4						; size = 4
___t$ = 8						; size = 4
___s$ = 12						; size = 4
___n$ = 16						; size = 4
___f$ = 20						; size = 4
??_H@YGXPAXIIP6EPAX0@Z@Z PROC				; `vector constructor iterator', COMDAT
  00000	55		 push	 ebp
  00001	8b ec		 mov	 ebp, esp
  00003	51		 push	 ecx
$LN2@vector:
  00004	8b 45 10	 mov	 eax, DWORD PTR ___n$[ebp]
  00007	89 45 fc	 mov	 DWORD PTR tv66[ebp], eax
  0000a	8b 45 10	 mov	 eax, DWORD PTR ___n$[ebp]
  0000d	48		 dec	 eax
  0000e	89 45 10	 mov	 DWORD PTR ___n$[ebp], eax
  00011	83 7d fc 00	 cmp	 DWORD PTR tv66[ebp], 0
  00015	76 11		 jbe	 SHORT $LN1@vector
  00017	8b 4d 08	 mov	 ecx, DWORD PTR ___t$[ebp]
  0001a	ff 55 14	 call	 DWORD PTR ___f$[ebp]
  0001d	8b 45 08	 mov	 eax, DWORD PTR ___t$[ebp]
  00020	03 45 0c	 add	 eax, DWORD PTR ___s$[ebp]
  00023	89 45 08	 mov	 DWORD PTR ___t$[ebp], eax
  00026	eb dc		 jmp	 SHORT $LN2@vector
$LN1@vector:
  00028	c9		 leave
  00029	c2 10 00	 ret	 16			; 00000010H
??_H@YGXPAXIIP6EPAX0@Z@Z ENDP				; `vector constructor iterator'
_TEXT	ENDS
END
