; Listing generated by Microsoft (R) Optimizing Compiler Version 19.28.29335.0 

	TITLE	D:\Metin2 Server Files\mainline\SRC_2014\Metin2Client\EterLib\GrpImageTexture.cpp
	.686P
	.XMM
	include listing.inc
	.model	flat

INCLUDELIB LIBCMT
INCLUDELIB OLDNAMES

PUBLIC	??0exception@std@@QAE@ABV01@@Z			; std::exception::exception
PUBLIC	?what@exception@std@@UBEPBDXZ			; std::exception::what
PUBLIC	??_Gexception@std@@UAEPAXI@Z			; std::exception::`scalar deleting destructor'
PUBLIC	??0bad_alloc@std@@QAE@ABV01@@Z			; std::bad_alloc::bad_alloc
PUBLIC	??_Gbad_alloc@std@@UAEPAXI@Z			; std::bad_alloc::`scalar deleting destructor'
PUBLIC	??0bad_array_new_length@std@@QAE@XZ		; std::bad_array_new_length::bad_array_new_length
PUBLIC	??1bad_array_new_length@std@@UAE@XZ		; std::bad_array_new_length::~bad_array_new_length
PUBLIC	??0bad_array_new_length@std@@QAE@ABV01@@Z	; std::bad_array_new_length::bad_array_new_length
PUBLIC	??_Gbad_array_new_length@std@@UAEPAXI@Z		; std::bad_array_new_length::`scalar deleting destructor'
PUBLIC	?_Throw_bad_array_new_length@std@@YAXXZ		; std::_Throw_bad_array_new_length
PUBLIC	?_Adjust_manually_vector_aligned@std@@YAXAAPAXAAI@Z ; std::_Adjust_manually_vector_aligned
PUBLIC	?_Xlen_string@std@@YAXXZ			; std::_Xlen_string
PUBLIC	?_Myptr@?$_String_val@U?$_Simple_types@D@std@@@std@@QAEPADXZ ; std::_String_val<std::_Simple_types<char> >::_Myptr
PUBLIC	??0?$basic_string@DU?$char_traits@D@std@@V?$allocator@D@2@@std@@QAE@XZ ; std::basic_string<char,std::char_traits<char>,std::allocator<char> >::basic_string<char,std::char_traits<char>,std::allocator<char> >
PUBLIC	??1?$basic_string@DU?$char_traits@D@std@@V?$allocator@D@2@@std@@QAE@XZ ; std::basic_string<char,std::char_traits<char>,std::allocator<char> >::~basic_string<char,std::char_traits<char>,std::allocator<char> >
PUBLIC	?assign@?$basic_string@DU?$char_traits@D@std@@V?$allocator@D@2@@std@@QAEAAV12@QBDI@Z ; std::basic_string<char,std::char_traits<char>,std::allocator<char> >::assign
PUBLIC	?c_str@?$basic_string@DU?$char_traits@D@std@@V?$allocator@D@2@@std@@QBEPBDXZ ; std::basic_string<char,std::char_traits<char>,std::allocator<char> >::c_str
PUBLIC	?max_size@?$basic_string@DU?$char_traits@D@std@@V?$allocator@D@2@@std@@QBEIXZ ; std::basic_string<char,std::char_traits<char>,std::allocator<char> >::max_size
PUBLIC	?_Calculate_growth@?$basic_string@DU?$char_traits@D@std@@V?$allocator@D@2@@std@@ABEII@Z ; std::basic_string<char,std::char_traits<char>,std::allocator<char> >::_Calculate_growth
PUBLIC	?_Tidy_init@?$basic_string@DU?$char_traits@D@std@@V?$allocator@D@2@@std@@AAEXXZ ; std::basic_string<char,std::char_traits<char>,std::allocator<char> >::_Tidy_init
PUBLIC	?_Tidy_deallocate@?$basic_string@DU?$char_traits@D@std@@V?$allocator@D@2@@std@@AAEXXZ ; std::basic_string<char,std::char_traits<char>,std::allocator<char> >::_Tidy_deallocate
PUBLIC	??$_Destroy_in_place@PAD@std@@YAXAAPAD@Z	; std::_Destroy_in_place<char *>
PUBLIC	??$_Reallocate_for@V<lambda_9366063389c5f42a00a5088cf24e69de>@@PBD@?$basic_string@DU?$char_traits@D@std@@V?$allocator@D@2@@std@@AAEAAV01@IV<lambda_9366063389c5f42a00a5088cf24e69de>@@PBD@Z ; std::basic_string<char,std::char_traits<char>,std::allocator<char> >::_Reallocate_for<<lambda_9366063389c5f42a00a5088cf24e69de>,char const *>
PUBLIC	??$_Construct_in_place@PADABQAD@std@@YAXAAPADABQAD@Z ; std::_Construct_in_place<char *,char * const &>
PUBLIC	??$_Deallocate@$07$0A@@std@@YAXPAXI@Z		; std::_Deallocate<8,0>
PUBLIC	??$_Allocate@$07U_Default_allocate_traits@std@@$0A@@std@@YAPAXI@Z ; std::_Allocate<8,std::_Default_allocate_traits,0>
PUBLIC	??$_Allocate_manually_vector_aligned@U_Default_allocate_traits@std@@@std@@YAPAXI@Z ; std::_Allocate_manually_vector_aligned<std::_Default_allocate_traits>
PUBLIC	??0CGraphicImageTexture@@QAE@XZ			; CGraphicImageTexture::CGraphicImageTexture
PUBLIC	??1CGraphicImageTexture@@UAE@XZ			; CGraphicImageTexture::~CGraphicImageTexture
PUBLIC	?Destroy@CGraphicImageTexture@@QAEXXZ		; CGraphicImageTexture::Destroy
PUBLIC	?Create@CGraphicImageTexture@@QAE_NIIW4_D3DFORMAT@@K@Z ; CGraphicImageTexture::Create
PUBLIC	?CreateDeviceObjects@CGraphicImageTexture@@QAE_NXZ ; CGraphicImageTexture::CreateDeviceObjects
PUBLIC	?CreateFromTexturePointer@CGraphicImageTexture@@QAEXPBVCGraphicTexture@@@Z ; CGraphicImageTexture::CreateFromTexturePointer
PUBLIC	?CreateFromDiskFile@CGraphicImageTexture@@QAE_NPBDW4_D3DFORMAT@@K@Z ; CGraphicImageTexture::CreateFromDiskFile
PUBLIC	?CreateFromMemoryFile@CGraphicImageTexture@@QAE_NIPBXW4_D3DFORMAT@@K@Z ; CGraphicImageTexture::CreateFromMemoryFile
PUBLIC	?CreateDDSTexture@CGraphicImageTexture@@QAE_NAAVCDXTCImage@@PBE@Z ; CGraphicImageTexture::CreateDDSTexture
PUBLIC	?SetFileName@CGraphicImageTexture@@QAEXPBD@Z	; CGraphicImageTexture::SetFileName
PUBLIC	?Lock@CGraphicImageTexture@@QAE_NPAHPAPAXH@Z	; CGraphicImageTexture::Lock
PUBLIC	?Unlock@CGraphicImageTexture@@QAEXH@Z		; CGraphicImageTexture::Unlock
PUBLIC	?Initialize@CGraphicImageTexture@@IAEXXZ	; CGraphicImageTexture::Initialize
PUBLIC	??_GCGraphicImageTexture@@UAEPAXI@Z		; CGraphicImageTexture::`scalar deleting destructor'
PUBLIC	??_7exception@std@@6B@				; std::exception::`vftable'
PUBLIC	??_C@_0BC@EOODALEL@Unknown?5exception@		; `string'
PUBLIC	??_7bad_alloc@std@@6B@				; std::bad_alloc::`vftable'
PUBLIC	??_7bad_array_new_length@std@@6B@		; std::bad_array_new_length::`vftable'
PUBLIC	??_C@_0BF@KINCDENJ@bad?5array?5new?5length@	; `string'
PUBLIC	__TI3?AVbad_array_new_length@std@@
PUBLIC	__CTA3?AVbad_array_new_length@std@@
PUBLIC	??_R0?AVbad_array_new_length@std@@@8		; std::bad_array_new_length `RTTI Type Descriptor'
PUBLIC	__CT??_R0?AVbad_array_new_length@std@@@8??0bad_array_new_length@std@@QAE@ABV01@@Z12
PUBLIC	??_R0?AVbad_alloc@std@@@8			; std::bad_alloc `RTTI Type Descriptor'
PUBLIC	__CT??_R0?AVbad_alloc@std@@@8??0bad_alloc@std@@QAE@ABV01@@Z12
PUBLIC	??_R0?AVexception@std@@@8			; std::exception `RTTI Type Descriptor'
PUBLIC	__CT??_R0?AVexception@std@@@8??0exception@std@@QAE@ABV01@@Z12
PUBLIC	??_C@_0BA@JFNIOLAK@string?5too?5long@		; `string'
PUBLIC	??_R4exception@std@@6B@				; std::exception::`RTTI Complete Object Locator'
PUBLIC	??_R3exception@std@@8				; std::exception::`RTTI Class Hierarchy Descriptor'
PUBLIC	??_R2exception@std@@8				; std::exception::`RTTI Base Class Array'
PUBLIC	??_R1A@?0A@EA@exception@std@@8			; std::exception::`RTTI Base Class Descriptor at (0,-1,0,64)'
PUBLIC	??_R4bad_alloc@std@@6B@				; std::bad_alloc::`RTTI Complete Object Locator'
PUBLIC	??_R3bad_alloc@std@@8				; std::bad_alloc::`RTTI Class Hierarchy Descriptor'
PUBLIC	??_R2bad_alloc@std@@8				; std::bad_alloc::`RTTI Base Class Array'
PUBLIC	??_R1A@?0A@EA@bad_alloc@std@@8			; std::bad_alloc::`RTTI Base Class Descriptor at (0,-1,0,64)'
PUBLIC	??_R4bad_array_new_length@std@@6B@		; std::bad_array_new_length::`RTTI Complete Object Locator'
PUBLIC	??_R3bad_array_new_length@std@@8		; std::bad_array_new_length::`RTTI Class Hierarchy Descriptor'
PUBLIC	??_R2bad_array_new_length@std@@8		; std::bad_array_new_length::`RTTI Base Class Array'
PUBLIC	??_R1A@?0A@EA@bad_array_new_length@std@@8	; std::bad_array_new_length::`RTTI Base Class Descriptor at (0,-1,0,64)'
PUBLIC	??_C@_00CNPNBAHC@@				; `string'
PUBLIC	?ms_singleton@?$CSingleton@VCEterPackManager@@@@0PAVCEterPackManager@@A ; CSingleton<CEterPackManager>::ms_singleton
PUBLIC	??_7CGraphicImageTexture@@6B@			; CGraphicImageTexture::`vftable'
PUBLIC	??_C@_0CJ@GNAMCJFH@CreateDDSTexture?3?5Cannot?5creatr@ ; `string'
PUBLIC	??_C@_0CG@GKMBNFBC@CreateDDSTexture?3?5Cannot?5lock?5t@ ; `string'
PUBLIC	??_C@_0CM@KHEEHJBJ@CreateFromMemoryFile?3?5Cannot?5cr@ ; `string'
PUBLIC	??_R4CGraphicImageTexture@@6B@			; CGraphicImageTexture::`RTTI Complete Object Locator'
PUBLIC	??_R0?AVCGraphicImageTexture@@@8		; CGraphicImageTexture `RTTI Type Descriptor'
PUBLIC	??_R3CGraphicImageTexture@@8			; CGraphicImageTexture::`RTTI Class Hierarchy Descriptor'
PUBLIC	??_R2CGraphicImageTexture@@8			; CGraphicImageTexture::`RTTI Base Class Array'
PUBLIC	??_R1A@?0A@EA@CGraphicImageTexture@@8		; CGraphicImageTexture::`RTTI Base Class Descriptor at (0,-1,0,64)'
PUBLIC	??_R1A@?0A@EA@CGraphicTexture@@8		; CGraphicTexture::`RTTI Base Class Descriptor at (0,-1,0,64)'
PUBLIC	??_R0?AVCGraphicTexture@@@8			; CGraphicTexture `RTTI Type Descriptor'
PUBLIC	??_R3CGraphicTexture@@8				; CGraphicTexture::`RTTI Class Hierarchy Descriptor'
PUBLIC	??_R2CGraphicTexture@@8				; CGraphicTexture::`RTTI Base Class Array'
PUBLIC	??_R1A@?0A@EA@CGraphicBase@@8			; CGraphicBase::`RTTI Base Class Descriptor at (0,-1,0,64)'
PUBLIC	??_R0?AVCGraphicBase@@@8			; CGraphicBase `RTTI Type Descriptor'
PUBLIC	??_R3CGraphicBase@@8				; CGraphicBase::`RTTI Class Hierarchy Descriptor'
PUBLIC	??_R2CGraphicBase@@8				; CGraphicBase::`RTTI Base Class Array'
EXTRN	??2@YAPAXI@Z:PROC				; operator new
EXTRN	??3@YAXPAXI@Z:PROC				; operator delete
EXTRN	_atexit:PROC
EXTRN	__Init_thread_header:PROC
EXTRN	__Init_thread_abort:PROC
EXTRN	__Init_thread_footer:PROC
EXTRN	__invalid_parameter_noinfo_noreturn:PROC
EXTRN	_memcpy:PROC
EXTRN	_memmove:PROC
EXTRN	_strlen:PROC
EXTRN	_D3DXLoadSurfaceFromSurface@32:PROC
EXTRN	_D3DXCreateTexture@32:PROC
EXTRN	_D3DXCreateTextureFromFileInMemoryEx@60:PROC
EXTRN	___std_exception_copy:PROC
EXTRN	___std_exception_destroy:PROC
EXTRN	??_Eexception@std@@UAEPAXI@Z:PROC		; std::exception::`vector deleting destructor'
EXTRN	??_Ebad_alloc@std@@UAEPAXI@Z:PROC		; std::bad_alloc::`vector deleting destructor'
EXTRN	??_Ebad_array_new_length@std@@UAEPAXI@Z:PROC	; std::bad_array_new_length::`vector deleting destructor'
EXTRN	?_Xlength_error@std@@YAXPBD@Z:PROC		; std::_Xlength_error
EXTRN	?TraceError@@YAXPBDZZ:PROC			; TraceError
EXTRN	??0CMappedFile@@QAE@XZ:PROC			; CMappedFile::CMappedFile
EXTRN	??1CMappedFile@@UAE@XZ:PROC			; CMappedFile::~CMappedFile
EXTRN	?Size@CMappedFile@@QAEKXZ:PROC			; CMappedFile::Size
EXTRN	?Get@CEterPackManager@@QAE_NAAVCMappedFile@@PBDPAPBX@Z:PROC ; CEterPackManager::Get
EXTRN	?IsLowTextureMemory@CGraphicBase@@SA_NXZ:PROC	; CGraphicBase::IsLowTextureMemory
EXTRN	?IsEmpty@CGraphicTexture@@UBE_NXZ:PROC		; CGraphicTexture::IsEmpty
EXTRN	?GetWidth@CGraphicTexture@@QBEHXZ:PROC		; CGraphicTexture::GetWidth
EXTRN	?GetHeight@CGraphicTexture@@QBEHXZ:PROC		; CGraphicTexture::GetHeight
EXTRN	?GetD3DTexture@CGraphicTexture@@QBEPAUIDirect3DTexture8@@XZ:PROC ; CGraphicTexture::GetD3DTexture
EXTRN	??0CGraphicTexture@@IAE@XZ:PROC			; CGraphicTexture::CGraphicTexture
EXTRN	??1CGraphicTexture@@MAE@XZ:PROC			; CGraphicTexture::~CGraphicTexture
EXTRN	?Destroy@CGraphicTexture@@IAEXXZ:PROC		; CGraphicTexture::Destroy
EXTRN	?Initialize@CGraphicTexture@@IAEXXZ:PROC	; CGraphicTexture::Initialize
EXTRN	??0CDXTCImage@@QAE@XZ:PROC			; CDXTCImage::CDXTCImage
EXTRN	??1CDXTCImage@@UAE@XZ:PROC			; CDXTCImage::~CDXTCImage
EXTRN	?LoadHeaderFromMemory@CDXTCImage@@QAE_NPBE@Z:PROC ; CDXTCImage::LoadHeaderFromMemory
EXTRN	?Copy@CDXTCImage@@QAE_NHPAEJ@Z:PROC		; CDXTCImage::Copy
EXTRN	??_ECGraphicImageTexture@@UAEPAXI@Z:PROC	; CGraphicImageTexture::`vector deleting destructor'
EXTRN	@__security_check_cookie@4:PROC
EXTRN	__CxxThrowException@8:PROC
EXTRN	___CxxFrameHandler3:PROC
EXTRN	__Init_thread_epoch:DWORD
EXTRN	??_7type_info@@6B@:QWORD			; type_info::`vftable'
EXTRN	?ms_lpd3dDevice@CGraphicBase@@1PAUIDirect3DDevice8@@A:DWORD ; CGraphicBase::ms_lpd3dDevice
EXTRN	?ms_bSupportDXT@CGraphicBase@@1_NA:BYTE		; CGraphicBase::ms_bSupportDXT
EXTRN	?GRAPHICS_CAPS_HALF_SIZE_IMAGE@@3_NA:BYTE	; GRAPHICS_CAPS_HALF_SIZE_IMAGE
EXTRN	?GRAPHICS_CAPS_HALF_SIZE_IMAGE@@3_NA:BYTE	; GRAPHICS_CAPS_HALF_SIZE_IMAGE
EXTRN	___security_cookie:DWORD
EXTRN	__tls_array:DWORD
EXTRN	__tls_index:DWORD
;	COMDAT ?ms_singleton@?$CSingleton@VCEterPackManager@@@@0PAVCEterPackManager@@A
_BSS	SEGMENT
?ms_singleton@?$CSingleton@VCEterPackManager@@@@0PAVCEterPackManager@@A DD 01H DUP (?) ; CSingleton<CEterPackManager>::ms_singleton
_BSS	ENDS
;	COMDAT ?image@?1??CreateFromMemoryFile@CGraphicImageTexture@@QAE_NIPBXW4_D3DFORMAT@@K@Z@4VCDXTCImage@@A
_BSS	SEGMENT
?image@?1??CreateFromMemoryFile@CGraphicImageTexture@@QAE_NIPBXW4_D3DFORMAT@@K@Z@4VCDXTCImage@@A DB 0128H DUP (?) ; `CGraphicImageTexture::CreateFromMemoryFile'::`2'::image
_BSS	ENDS
;	COMDAT ?$TSS0@?1??CreateFromMemoryFile@CGraphicImageTexture@@QAE_NIPBXW4_D3DFORMAT@@K@Z@4HA
_BSS	SEGMENT
?$TSS0@?1??CreateFromMemoryFile@CGraphicImageTexture@@QAE_NIPBXW4_D3DFORMAT@@K@Z@4HA DD 01H DUP (?) ; `CGraphicImageTexture::CreateFromMemoryFile'::`2'::$TSS0
_BSS	ENDS
;	COMDAT ??_R2CGraphicBase@@8
rdata$r	SEGMENT
??_R2CGraphicBase@@8 DD FLAT:??_R1A@?0A@EA@CGraphicBase@@8 ; CGraphicBase::`RTTI Base Class Array'
rdata$r	ENDS
;	COMDAT ??_R3CGraphicBase@@8
rdata$r	SEGMENT
??_R3CGraphicBase@@8 DD 00H				; CGraphicBase::`RTTI Class Hierarchy Descriptor'
	DD	00H
	DD	01H
	DD	FLAT:??_R2CGraphicBase@@8
rdata$r	ENDS
;	COMDAT ??_R0?AVCGraphicBase@@@8
data$rs	SEGMENT
??_R0?AVCGraphicBase@@@8 DD FLAT:??_7type_info@@6B@	; CGraphicBase `RTTI Type Descriptor'
	DD	00H
	DB	'.?AVCGraphicBase@@', 00H
data$rs	ENDS
;	COMDAT ??_R1A@?0A@EA@CGraphicBase@@8
rdata$r	SEGMENT
??_R1A@?0A@EA@CGraphicBase@@8 DD FLAT:??_R0?AVCGraphicBase@@@8 ; CGraphicBase::`RTTI Base Class Descriptor at (0,-1,0,64)'
	DD	00H
	DD	00H
	DD	0ffffffffH
	DD	00H
	DD	040H
	DD	FLAT:??_R3CGraphicBase@@8
rdata$r	ENDS
;	COMDAT ??_R2CGraphicTexture@@8
rdata$r	SEGMENT
??_R2CGraphicTexture@@8 DD FLAT:??_R1A@?0A@EA@CGraphicTexture@@8 ; CGraphicTexture::`RTTI Base Class Array'
	DD	FLAT:??_R1A@?0A@EA@CGraphicBase@@8
rdata$r	ENDS
;	COMDAT ??_R3CGraphicTexture@@8
rdata$r	SEGMENT
??_R3CGraphicTexture@@8 DD 00H				; CGraphicTexture::`RTTI Class Hierarchy Descriptor'
	DD	00H
	DD	02H
	DD	FLAT:??_R2CGraphicTexture@@8
rdata$r	ENDS
;	COMDAT ??_R0?AVCGraphicTexture@@@8
data$rs	SEGMENT
??_R0?AVCGraphicTexture@@@8 DD FLAT:??_7type_info@@6B@	; CGraphicTexture `RTTI Type Descriptor'
	DD	00H
	DB	'.?AVCGraphicTexture@@', 00H
data$rs	ENDS
;	COMDAT ??_R1A@?0A@EA@CGraphicTexture@@8
rdata$r	SEGMENT
??_R1A@?0A@EA@CGraphicTexture@@8 DD FLAT:??_R0?AVCGraphicTexture@@@8 ; CGraphicTexture::`RTTI Base Class Descriptor at (0,-1,0,64)'
	DD	01H
	DD	00H
	DD	0ffffffffH
	DD	00H
	DD	040H
	DD	FLAT:??_R3CGraphicTexture@@8
rdata$r	ENDS
;	COMDAT ??_R1A@?0A@EA@CGraphicImageTexture@@8
rdata$r	SEGMENT
??_R1A@?0A@EA@CGraphicImageTexture@@8 DD FLAT:??_R0?AVCGraphicImageTexture@@@8 ; CGraphicImageTexture::`RTTI Base Class Descriptor at (0,-1,0,64)'
	DD	02H
	DD	00H
	DD	0ffffffffH
	DD	00H
	DD	040H
	DD	FLAT:??_R3CGraphicImageTexture@@8
rdata$r	ENDS
;	COMDAT ??_R2CGraphicImageTexture@@8
rdata$r	SEGMENT
??_R2CGraphicImageTexture@@8 DD FLAT:??_R1A@?0A@EA@CGraphicImageTexture@@8 ; CGraphicImageTexture::`RTTI Base Class Array'
	DD	FLAT:??_R1A@?0A@EA@CGraphicTexture@@8
	DD	FLAT:??_R1A@?0A@EA@CGraphicBase@@8
rdata$r	ENDS
;	COMDAT ??_R3CGraphicImageTexture@@8
rdata$r	SEGMENT
??_R3CGraphicImageTexture@@8 DD 00H			; CGraphicImageTexture::`RTTI Class Hierarchy Descriptor'
	DD	00H
	DD	03H
	DD	FLAT:??_R2CGraphicImageTexture@@8
rdata$r	ENDS
;	COMDAT ??_R0?AVCGraphicImageTexture@@@8
data$rs	SEGMENT
??_R0?AVCGraphicImageTexture@@@8 DD FLAT:??_7type_info@@6B@ ; CGraphicImageTexture `RTTI Type Descriptor'
	DD	00H
	DB	'.?AVCGraphicImageTexture@@', 00H
data$rs	ENDS
;	COMDAT ??_R4CGraphicImageTexture@@6B@
rdata$r	SEGMENT
??_R4CGraphicImageTexture@@6B@ DD 00H			; CGraphicImageTexture::`RTTI Complete Object Locator'
	DD	00H
	DD	00H
	DD	FLAT:??_R0?AVCGraphicImageTexture@@@8
	DD	FLAT:??_R3CGraphicImageTexture@@8
rdata$r	ENDS
;	COMDAT ??_C@_0CM@KHEEHJBJ@CreateFromMemoryFile?3?5Cannot?5cr@
CONST	SEGMENT
??_C@_0CM@KHEEHJBJ@CreateFromMemoryFile?3?5Cannot?5cr@ DB 'CreateFromMemo'
	DB	'ryFile: Cannot create texture', 00H		; `string'
CONST	ENDS
;	COMDAT ??_C@_0CG@GKMBNFBC@CreateDDSTexture?3?5Cannot?5lock?5t@
CONST	SEGMENT
??_C@_0CG@GKMBNFBC@CreateDDSTexture?3?5Cannot?5lock?5t@ DB 'CreateDDSText'
	DB	'ure: Cannot lock texture', 00H		; `string'
CONST	ENDS
;	COMDAT ??_C@_0CJ@GNAMCJFH@CreateDDSTexture?3?5Cannot?5creatr@
CONST	SEGMENT
??_C@_0CJ@GNAMCJFH@CreateDDSTexture?3?5Cannot?5creatr@ DB 'CreateDDSTextu'
	DB	're: Cannot creatre texture', 00H		; `string'
CONST	ENDS
;	COMDAT ??_7CGraphicImageTexture@@6B@
CONST	SEGMENT
??_7CGraphicImageTexture@@6B@ DD FLAT:??_R4CGraphicImageTexture@@6B@ ; CGraphicImageTexture::`vftable'
	DD	FLAT:??_ECGraphicImageTexture@@UAEPAXI@Z
	DD	FLAT:?IsEmpty@CGraphicTexture@@UBE_NXZ
CONST	ENDS
;	COMDAT ??_C@_00CNPNBAHC@@
CONST	SEGMENT
??_C@_00CNPNBAHC@@ DB 00H				; `string'
CONST	ENDS
;	COMDAT ??_R1A@?0A@EA@bad_array_new_length@std@@8
rdata$r	SEGMENT
??_R1A@?0A@EA@bad_array_new_length@std@@8 DD FLAT:??_R0?AVbad_array_new_length@std@@@8 ; std::bad_array_new_length::`RTTI Base Class Descriptor at (0,-1,0,64)'
	DD	02H
	DD	00H
	DD	0ffffffffH
	DD	00H
	DD	040H
	DD	FLAT:??_R3bad_array_new_length@std@@8
rdata$r	ENDS
;	COMDAT ??_R2bad_array_new_length@std@@8
rdata$r	SEGMENT
??_R2bad_array_new_length@std@@8 DD FLAT:??_R1A@?0A@EA@bad_array_new_length@std@@8 ; std::bad_array_new_length::`RTTI Base Class Array'
	DD	FLAT:??_R1A@?0A@EA@bad_alloc@std@@8
	DD	FLAT:??_R1A@?0A@EA@exception@std@@8
rdata$r	ENDS
;	COMDAT ??_R3bad_array_new_length@std@@8
rdata$r	SEGMENT
??_R3bad_array_new_length@std@@8 DD 00H			; std::bad_array_new_length::`RTTI Class Hierarchy Descriptor'
	DD	00H
	DD	03H
	DD	FLAT:??_R2bad_array_new_length@std@@8
rdata$r	ENDS
;	COMDAT ??_R4bad_array_new_length@std@@6B@
rdata$r	SEGMENT
??_R4bad_array_new_length@std@@6B@ DD 00H		; std::bad_array_new_length::`RTTI Complete Object Locator'
	DD	00H
	DD	00H
	DD	FLAT:??_R0?AVbad_array_new_length@std@@@8
	DD	FLAT:??_R3bad_array_new_length@std@@8
rdata$r	ENDS
;	COMDAT ??_R1A@?0A@EA@bad_alloc@std@@8
rdata$r	SEGMENT
??_R1A@?0A@EA@bad_alloc@std@@8 DD FLAT:??_R0?AVbad_alloc@std@@@8 ; std::bad_alloc::`RTTI Base Class Descriptor at (0,-1,0,64)'
	DD	01H
	DD	00H
	DD	0ffffffffH
	DD	00H
	DD	040H
	DD	FLAT:??_R3bad_alloc@std@@8
rdata$r	ENDS
;	COMDAT ??_R2bad_alloc@std@@8
rdata$r	SEGMENT
??_R2bad_alloc@std@@8 DD FLAT:??_R1A@?0A@EA@bad_alloc@std@@8 ; std::bad_alloc::`RTTI Base Class Array'
	DD	FLAT:??_R1A@?0A@EA@exception@std@@8
rdata$r	ENDS
;	COMDAT ??_R3bad_alloc@std@@8
rdata$r	SEGMENT
??_R3bad_alloc@std@@8 DD 00H				; std::bad_alloc::`RTTI Class Hierarchy Descriptor'
	DD	00H
	DD	02H
	DD	FLAT:??_R2bad_alloc@std@@8
rdata$r	ENDS
;	COMDAT ??_R4bad_alloc@std@@6B@
rdata$r	SEGMENT
??_R4bad_alloc@std@@6B@ DD 00H				; std::bad_alloc::`RTTI Complete Object Locator'
	DD	00H
	DD	00H
	DD	FLAT:??_R0?AVbad_alloc@std@@@8
	DD	FLAT:??_R3bad_alloc@std@@8
rdata$r	ENDS
;	COMDAT ??_R1A@?0A@EA@exception@std@@8
rdata$r	SEGMENT
??_R1A@?0A@EA@exception@std@@8 DD FLAT:??_R0?AVexception@std@@@8 ; std::exception::`RTTI Base Class Descriptor at (0,-1,0,64)'
	DD	00H
	DD	00H
	DD	0ffffffffH
	DD	00H
	DD	040H
	DD	FLAT:??_R3exception@std@@8
rdata$r	ENDS
;	COMDAT ??_R2exception@std@@8
rdata$r	SEGMENT
??_R2exception@std@@8 DD FLAT:??_R1A@?0A@EA@exception@std@@8 ; std::exception::`RTTI Base Class Array'
rdata$r	ENDS
;	COMDAT ??_R3exception@std@@8
rdata$r	SEGMENT
??_R3exception@std@@8 DD 00H				; std::exception::`RTTI Class Hierarchy Descriptor'
	DD	00H
	DD	01H
	DD	FLAT:??_R2exception@std@@8
rdata$r	ENDS
;	COMDAT ??_R4exception@std@@6B@
rdata$r	SEGMENT
??_R4exception@std@@6B@ DD 00H				; std::exception::`RTTI Complete Object Locator'
	DD	00H
	DD	00H
	DD	FLAT:??_R0?AVexception@std@@@8
	DD	FLAT:??_R3exception@std@@8
rdata$r	ENDS
;	COMDAT ??_C@_0BA@JFNIOLAK@string?5too?5long@
CONST	SEGMENT
??_C@_0BA@JFNIOLAK@string?5too?5long@ DB 'string too long', 00H ; `string'
CONST	ENDS
;	COMDAT __CT??_R0?AVexception@std@@@8??0exception@std@@QAE@ABV01@@Z12
xdata$x	SEGMENT
__CT??_R0?AVexception@std@@@8??0exception@std@@QAE@ABV01@@Z12 DD 00H
	DD	FLAT:??_R0?AVexception@std@@@8
	DD	00H
	DD	0ffffffffH
	ORG $+4
	DD	0cH
	DD	FLAT:??0exception@std@@QAE@ABV01@@Z
xdata$x	ENDS
;	COMDAT ??_R0?AVexception@std@@@8
data$r	SEGMENT
??_R0?AVexception@std@@@8 DD FLAT:??_7type_info@@6B@	; std::exception `RTTI Type Descriptor'
	DD	00H
	DB	'.?AVexception@std@@', 00H
data$r	ENDS
;	COMDAT __CT??_R0?AVbad_alloc@std@@@8??0bad_alloc@std@@QAE@ABV01@@Z12
xdata$x	SEGMENT
__CT??_R0?AVbad_alloc@std@@@8??0bad_alloc@std@@QAE@ABV01@@Z12 DD 010H
	DD	FLAT:??_R0?AVbad_alloc@std@@@8
	DD	00H
	DD	0ffffffffH
	ORG $+4
	DD	0cH
	DD	FLAT:??0bad_alloc@std@@QAE@ABV01@@Z
xdata$x	ENDS
;	COMDAT ??_R0?AVbad_alloc@std@@@8
data$r	SEGMENT
??_R0?AVbad_alloc@std@@@8 DD FLAT:??_7type_info@@6B@	; std::bad_alloc `RTTI Type Descriptor'
	DD	00H
	DB	'.?AVbad_alloc@std@@', 00H
data$r	ENDS
;	COMDAT __CT??_R0?AVbad_array_new_length@std@@@8??0bad_array_new_length@std@@QAE@ABV01@@Z12
xdata$x	SEGMENT
__CT??_R0?AVbad_array_new_length@std@@@8??0bad_array_new_length@std@@QAE@ABV01@@Z12 DD 00H
	DD	FLAT:??_R0?AVbad_array_new_length@std@@@8
	DD	00H
	DD	0ffffffffH
	ORG $+4
	DD	0cH
	DD	FLAT:??0bad_array_new_length@std@@QAE@ABV01@@Z
xdata$x	ENDS
;	COMDAT ??_R0?AVbad_array_new_length@std@@@8
data$r	SEGMENT
??_R0?AVbad_array_new_length@std@@@8 DD FLAT:??_7type_info@@6B@ ; std::bad_array_new_length `RTTI Type Descriptor'
	DD	00H
	DB	'.?AVbad_array_new_length@std@@', 00H
data$r	ENDS
;	COMDAT __CTA3?AVbad_array_new_length@std@@
xdata$x	SEGMENT
__CTA3?AVbad_array_new_length@std@@ DD 03H
	DD	FLAT:__CT??_R0?AVbad_array_new_length@std@@@8??0bad_array_new_length@std@@QAE@ABV01@@Z12
	DD	FLAT:__CT??_R0?AVbad_alloc@std@@@8??0bad_alloc@std@@QAE@ABV01@@Z12
	DD	FLAT:__CT??_R0?AVexception@std@@@8??0exception@std@@QAE@ABV01@@Z12
xdata$x	ENDS
;	COMDAT __TI3?AVbad_array_new_length@std@@
xdata$x	SEGMENT
__TI3?AVbad_array_new_length@std@@ DD 00H
	DD	FLAT:??1bad_array_new_length@std@@UAE@XZ
	DD	00H
	DD	FLAT:__CTA3?AVbad_array_new_length@std@@
xdata$x	ENDS
;	COMDAT ??_C@_0BF@KINCDENJ@bad?5array?5new?5length@
CONST	SEGMENT
??_C@_0BF@KINCDENJ@bad?5array?5new?5length@ DB 'bad array new length', 00H ; `string'
CONST	ENDS
;	COMDAT ??_7bad_array_new_length@std@@6B@
CONST	SEGMENT
??_7bad_array_new_length@std@@6B@ DD FLAT:??_R4bad_array_new_length@std@@6B@ ; std::bad_array_new_length::`vftable'
	DD	FLAT:??_Ebad_array_new_length@std@@UAEPAXI@Z
	DD	FLAT:?what@exception@std@@UBEPBDXZ
CONST	ENDS
;	COMDAT ??_7bad_alloc@std@@6B@
CONST	SEGMENT
??_7bad_alloc@std@@6B@ DD FLAT:??_R4bad_alloc@std@@6B@	; std::bad_alloc::`vftable'
	DD	FLAT:??_Ebad_alloc@std@@UAEPAXI@Z
	DD	FLAT:?what@exception@std@@UBEPBDXZ
CONST	ENDS
;	COMDAT ??_C@_0BC@EOODALEL@Unknown?5exception@
CONST	SEGMENT
??_C@_0BC@EOODALEL@Unknown?5exception@ DB 'Unknown exception', 00H ; `string'
CONST	ENDS
;	COMDAT ??_7exception@std@@6B@
CONST	SEGMENT
??_7exception@std@@6B@ DD FLAT:??_R4exception@std@@6B@	; std::exception::`vftable'
	DD	FLAT:??_Eexception@std@@UAEPAXI@Z
	DD	FLAT:?what@exception@std@@UBEPBDXZ
CONST	ENDS
;	COMDAT xdata$x
xdata$x	SEGMENT
__unwindtable$?CreateFromMemoryFile@CGraphicImageTexture@@QAE_NIPBXW4_D3DFORMAT@@K@Z DD 0ffffffffH
	DD	FLAT:__unwindfunclet$?CreateFromMemoryFile@CGraphicImageTexture@@QAE_NIPBXW4_D3DFORMAT@@K@Z$0
__ehfuncinfo$?CreateFromMemoryFile@CGraphicImageTexture@@QAE_NIPBXW4_D3DFORMAT@@K@Z DD 019930522H
	DD	01H
	DD	FLAT:__unwindtable$?CreateFromMemoryFile@CGraphicImageTexture@@QAE_NIPBXW4_D3DFORMAT@@K@Z
	DD	2 DUP(00H)
	DD	2 DUP(00H)
	DD	00H
	DD	01H
xdata$x	ENDS
;	COMDAT xdata$x
xdata$x	SEGMENT
__unwindtable$?CreateDeviceObjects@CGraphicImageTexture@@QAE_NXZ DD 0ffffffffH
	DD	FLAT:__unwindfunclet$?CreateDeviceObjects@CGraphicImageTexture@@QAE_NXZ$0
__ehfuncinfo$?CreateDeviceObjects@CGraphicImageTexture@@QAE_NXZ DD 019930522H
	DD	01H
	DD	FLAT:__unwindtable$?CreateDeviceObjects@CGraphicImageTexture@@QAE_NXZ
	DD	2 DUP(00H)
	DD	2 DUP(00H)
	DD	00H
	DD	01H
xdata$x	ENDS
;	COMDAT xdata$x
xdata$x	SEGMENT
__ehfuncinfo$??1CGraphicImageTexture@@UAE@XZ DD 019930522H
	DD	00H
	DD	00H
	DD	2 DUP(00H)
	DD	2 DUP(00H)
	DD	00H
	DD	05H
xdata$x	ENDS
;	COMDAT xdata$x
xdata$x	SEGMENT
__unwindtable$??0CGraphicImageTexture@@QAE@XZ DD 0ffffffffH
	DD	FLAT:__unwindfunclet$??0CGraphicImageTexture@@QAE@XZ$0
	DD	00H
	DD	FLAT:__unwindfunclet$??0CGraphicImageTexture@@QAE@XZ$1
__ehfuncinfo$??0CGraphicImageTexture@@QAE@XZ DD 019930522H
	DD	02H
	DD	FLAT:__unwindtable$??0CGraphicImageTexture@@QAE@XZ
	DD	2 DUP(00H)
	DD	2 DUP(00H)
	DD	00H
	DD	01H
xdata$x	ENDS
;	COMDAT xdata$x
xdata$x	SEGMENT
__ehfuncinfo$??$_Deallocate@$07$0A@@std@@YAXPAXI@Z DD 019930522H
	DD	00H
	DD	00H
	DD	2 DUP(00H)
	DD	2 DUP(00H)
	DD	00H
	DD	05H
xdata$x	ENDS
; Function compile flags: /Odspy
;	COMDAT ??__Fimage@?1??CreateFromMemoryFile@CGraphicImageTexture@@QAE_NIPBXW4_D3DFORMAT@@K@Z@YAXXZ
text$yd	SEGMENT
??__Fimage@?1??CreateFromMemoryFile@CGraphicImageTexture@@QAE_NIPBXW4_D3DFORMAT@@K@Z@YAXXZ PROC ; `CGraphicImageTexture::CreateFromMemoryFile'::`2'::`dynamic atexit destructor for 'image'', COMDAT
  00000	55		 push	 ebp
  00001	8b ec		 mov	 ebp, esp
  00003	b9 00 00 00 00	 mov	 ecx, OFFSET ?image@?1??CreateFromMemoryFile@CGraphicImageTexture@@QAE_NIPBXW4_D3DFORMAT@@K@Z@4VCDXTCImage@@A
  00008	e8 00 00 00 00	 call	 ??1CDXTCImage@@UAE@XZ	; CDXTCImage::~CDXTCImage
  0000d	5d		 pop	 ebp
  0000e	c3		 ret	 0
??__Fimage@?1??CreateFromMemoryFile@CGraphicImageTexture@@QAE_NIPBXW4_D3DFORMAT@@K@Z@YAXXZ ENDP ; `CGraphicImageTexture::CreateFromMemoryFile'::`2'::`dynamic atexit destructor for 'image''
text$yd	ENDS
; Function compile flags: /Odspy
;	COMDAT ??_GCGraphicImageTexture@@UAEPAXI@Z
_TEXT	SEGMENT
_this$ = -4						; size = 4
___flags$ = 8						; size = 4
??_GCGraphicImageTexture@@UAEPAXI@Z PROC		; CGraphicImageTexture::`scalar deleting destructor', COMDAT
; _this$ = ecx
  00000	55		 push	 ebp
  00001	8b ec		 mov	 ebp, esp
  00003	51		 push	 ecx
  00004	89 4d fc	 mov	 DWORD PTR _this$[ebp], ecx
  00007	8b 4d fc	 mov	 ecx, DWORD PTR _this$[ebp]
  0000a	e8 00 00 00 00	 call	 ??1CGraphicImageTexture@@UAE@XZ ; CGraphicImageTexture::~CGraphicImageTexture
  0000f	8b 45 08	 mov	 eax, DWORD PTR ___flags$[ebp]
  00012	83 e0 01	 and	 eax, 1
  00015	74 0c		 je	 SHORT $LN2@scalar
  00017	6a 34		 push	 52			; 00000034H
  00019	ff 75 fc	 push	 DWORD PTR _this$[ebp]
  0001c	e8 00 00 00 00	 call	 ??3@YAXPAXI@Z		; operator delete
  00021	59		 pop	 ecx
  00022	59		 pop	 ecx
$LN2@scalar:
  00023	8b 45 fc	 mov	 eax, DWORD PTR _this$[ebp]
  00026	c9		 leave
  00027	c2 04 00	 ret	 4
??_GCGraphicImageTexture@@UAEPAXI@Z ENDP		; CGraphicImageTexture::`scalar deleting destructor'
_TEXT	ENDS
; Function compile flags: /Odspy
; File D:\Metin2 Server Files\mainline\SRC_2014\Metin2Client\EterLib\GrpImageTexture.cpp
; File C:\Program Files (x86)\Microsoft Visual Studio\2019\Community\VC\Tools\MSVC\14.28.29333\include\xstring
; File C:\Program Files (x86)\Microsoft Visual Studio\2019\Community\VC\Tools\MSVC\14.28.29333\include\xmemory
; File C:\Program Files (x86)\Microsoft Visual Studio\2019\Community\VC\Tools\MSVC\14.28.29333\include\xstring
; File D:\Metin2 Server Files\mainline\SRC_2014\Metin2Client\EterLib\GrpImageTexture.cpp
; File C:\Program Files (x86)\Microsoft Visual Studio\2019\Community\VC\Tools\MSVC\14.28.29333\include\xstring
; File D:\Metin2 Server Files\mainline\SRC_2014\Metin2Client\EterLib\GrpImageTexture.cpp
;	COMDAT ?Initialize@CGraphicImageTexture@@IAEXXZ
_TEXT	SEGMENT
$T1 = -12						; size = 4
$T2 = -8						; size = 4
_this$ = -4						; size = 4
?Initialize@CGraphicImageTexture@@IAEXXZ PROC		; CGraphicImageTexture::Initialize, COMDAT
; _this$ = ecx

; 24   : {

  00000	55		 push	 ebp
  00001	8b ec		 mov	 ebp, esp
  00003	83 ec 0c	 sub	 esp, 12			; 0000000cH
  00006	89 4d fc	 mov	 DWORD PTR _this$[ebp], ecx

; 25   : 	CGraphicTexture::Initialize();

  00009	8b 4d fc	 mov	 ecx, DWORD PTR _this$[ebp]
  0000c	e8 00 00 00 00	 call	 ?Initialize@CGraphicTexture@@IAEXXZ ; CGraphicTexture::Initialize
; File C:\Program Files (x86)\Microsoft Visual Studio\2019\Community\VC\Tools\MSVC\14.28.29333\include\xstring

; 389  :         return _CSTD strlen(reinterpret_cast<const char*>(_First));

  00011	68 00 00 00 00	 push	 OFFSET ??_C@_00CNPNBAHC@@
  00016	e8 00 00 00 00	 call	 _strlen
  0001b	59		 pop	 ecx
  0001c	89 45 f8	 mov	 DWORD PTR $T2[ebp], eax
; File C:\Program Files (x86)\Microsoft Visual Studio\2019\Community\VC\Tools\MSVC\14.28.29333\include\xmemory

; 997  :     return _Len;

  0001f	8b 45 f8	 mov	 eax, DWORD PTR $T2[ebp]
  00022	89 45 f4	 mov	 DWORD PTR $T1[ebp], eax
; File C:\Program Files (x86)\Microsoft Visual Studio\2019\Community\VC\Tools\MSVC\14.28.29333\include\xstring

; 3062 :         return assign(_Ptr, _Convert_size<size_type>(_Traits::length(_Ptr)));

  00025	ff 75 f4	 push	 DWORD PTR $T1[ebp]
  00028	68 00 00 00 00	 push	 OFFSET ??_C@_00CNPNBAHC@@
; File D:\Metin2 Server Files\mainline\SRC_2014\Metin2Client\EterLib\GrpImageTexture.cpp

; 27   : 	m_stFileName = "";

  0002d	8b 4d fc	 mov	 ecx, DWORD PTR _this$[ebp]
  00030	83 c1 1c	 add	 ecx, 28			; 0000001cH
; File C:\Program Files (x86)\Microsoft Visual Studio\2019\Community\VC\Tools\MSVC\14.28.29333\include\xstring

; 3062 :         return assign(_Ptr, _Convert_size<size_type>(_Traits::length(_Ptr)));

  00033	e8 00 00 00 00	 call	 ?assign@?$basic_string@DU?$char_traits@D@std@@V?$allocator@D@2@@std@@QAEAAV12@QBDI@Z ; std::basic_string<char,std::char_traits<char>,std::allocator<char> >::assign
; File D:\Metin2 Server Files\mainline\SRC_2014\Metin2Client\EterLib\GrpImageTexture.cpp

; 29   : 	m_d3dFmt=D3DFMT_UNKNOWN;

  00038	8b 45 fc	 mov	 eax, DWORD PTR _this$[ebp]
  0003b	83 60 14 00	 and	 DWORD PTR [eax+20], 0

; 30   : 	m_dwFilter=0;

  0003f	8b 45 fc	 mov	 eax, DWORD PTR _this$[ebp]
  00042	83 60 18 00	 and	 DWORD PTR [eax+24], 0

; 31   : }

  00046	c9		 leave
  00047	c3		 ret	 0
?Initialize@CGraphicImageTexture@@IAEXXZ ENDP		; CGraphicImageTexture::Initialize
_TEXT	ENDS
; Function compile flags: /Odspy
; File D:\Metin2 Server Files\mainline\SRC_2014\Metin2Client\EterLib\GrpImageTexture.cpp
;	COMDAT ?Unlock@CGraphicImageTexture@@QAEXH@Z
_TEXT	SEGMENT
_this$ = -4						; size = 4
_level$ = 8						; size = 4
?Unlock@CGraphicImageTexture@@QAEXH@Z PROC		; CGraphicImageTexture::Unlock, COMDAT
; _this$ = ecx

; 18   : {

  00000	55		 push	 ebp
  00001	8b ec		 mov	 ebp, esp
  00003	51		 push	 ecx
  00004	89 4d fc	 mov	 DWORD PTR _this$[ebp], ecx

; 19   : 	assert(m_lpd3dTexture != NULL);
; 20   : 	m_lpd3dTexture->UnlockRect(level);

  00007	ff 75 08	 push	 DWORD PTR _level$[ebp]
  0000a	8b 45 fc	 mov	 eax, DWORD PTR _this$[ebp]
  0000d	8b 40 10	 mov	 eax, DWORD PTR [eax+16]
  00010	8b 4d fc	 mov	 ecx, DWORD PTR _this$[ebp]
  00013	8b 00		 mov	 eax, DWORD PTR [eax]
  00015	ff 71 10	 push	 DWORD PTR [ecx+16]
  00018	ff 50 44	 call	 DWORD PTR [eax+68]

; 21   : }

  0001b	c9		 leave
  0001c	c2 04 00	 ret	 4
?Unlock@CGraphicImageTexture@@QAEXH@Z ENDP		; CGraphicImageTexture::Unlock
_TEXT	ENDS
; Function compile flags: /Odspy
; File D:\Metin2 Server Files\mainline\SRC_2014\Metin2Client\EterLib\GrpImageTexture.cpp
;	COMDAT ?Lock@CGraphicImageTexture@@QAE_NPAHPAPAXH@Z
_TEXT	SEGMENT
_lockedRect$ = -12					; size = 8
_this$ = -4						; size = 4
_pRetPitch$ = 8						; size = 4
_ppRetPixels$ = 12					; size = 4
_level$ = 16						; size = 4
?Lock@CGraphicImageTexture@@QAE_NPAHPAPAXH@Z PROC	; CGraphicImageTexture::Lock, COMDAT
; _this$ = ecx

; 7    : {

  00000	55		 push	 ebp
  00001	8b ec		 mov	 ebp, esp
  00003	83 ec 0c	 sub	 esp, 12			; 0000000cH
  00006	89 4d fc	 mov	 DWORD PTR _this$[ebp], ecx

; 8    : 	D3DLOCKED_RECT lockedRect;
; 9    : 	if (FAILED(m_lpd3dTexture->LockRect(level, &lockedRect, NULL, 0)))

  00009	6a 00		 push	 0
  0000b	6a 00		 push	 0
  0000d	8d 45 f4	 lea	 eax, DWORD PTR _lockedRect$[ebp]
  00010	50		 push	 eax
  00011	ff 75 10	 push	 DWORD PTR _level$[ebp]
  00014	8b 45 fc	 mov	 eax, DWORD PTR _this$[ebp]
  00017	8b 40 10	 mov	 eax, DWORD PTR [eax+16]
  0001a	8b 4d fc	 mov	 ecx, DWORD PTR _this$[ebp]
  0001d	8b 00		 mov	 eax, DWORD PTR [eax]
  0001f	ff 71 10	 push	 DWORD PTR [ecx+16]
  00022	ff 50 40	 call	 DWORD PTR [eax+64]
  00025	85 c0		 test	 eax, eax
  00027	7d 04		 jge	 SHORT $LN2@Lock

; 10   : 		return false;

  00029	32 c0		 xor	 al, al
  0002b	eb 12		 jmp	 SHORT $LN1@Lock
$LN2@Lock:

; 11   : 
; 12   : 	*pRetPitch = lockedRect.Pitch;

  0002d	8b 45 08	 mov	 eax, DWORD PTR _pRetPitch$[ebp]
  00030	8b 4d f4	 mov	 ecx, DWORD PTR _lockedRect$[ebp]
  00033	89 08		 mov	 DWORD PTR [eax], ecx

; 13   : 	*ppRetPixels = (void*)lockedRect.pBits;	

  00035	8b 45 0c	 mov	 eax, DWORD PTR _ppRetPixels$[ebp]
  00038	8b 4d f8	 mov	 ecx, DWORD PTR _lockedRect$[ebp+4]
  0003b	89 08		 mov	 DWORD PTR [eax], ecx

; 14   : 	return true;

  0003d	b0 01		 mov	 al, 1
$LN1@Lock:

; 15   : }

  0003f	c9		 leave
  00040	c2 0c 00	 ret	 12			; 0000000cH
?Lock@CGraphicImageTexture@@QAE_NPAHPAPAXH@Z ENDP	; CGraphicImageTexture::Lock
_TEXT	ENDS
; Function compile flags: /Odspy
; File D:\Metin2 Server Files\mainline\SRC_2014\Metin2Client\EterLib\GrpImageTexture.cpp
; File C:\Program Files (x86)\Microsoft Visual Studio\2019\Community\VC\Tools\MSVC\14.28.29333\include\xstring
; File C:\Program Files (x86)\Microsoft Visual Studio\2019\Community\VC\Tools\MSVC\14.28.29333\include\xmemory
; File C:\Program Files (x86)\Microsoft Visual Studio\2019\Community\VC\Tools\MSVC\14.28.29333\include\xstring
; File D:\Metin2 Server Files\mainline\SRC_2014\Metin2Client\EterLib\GrpImageTexture.cpp
; File C:\Program Files (x86)\Microsoft Visual Studio\2019\Community\VC\Tools\MSVC\14.28.29333\include\xstring
; File D:\Metin2 Server Files\mainline\SRC_2014\Metin2Client\EterLib\GrpImageTexture.cpp
;	COMDAT ?SetFileName@CGraphicImageTexture@@QAEXPBD@Z
_TEXT	SEGMENT
_this$ = -12						; size = 4
$T1 = -8						; size = 4
$T2 = -4						; size = 4
_c_szFileName$ = 8					; size = 4
?SetFileName@CGraphicImageTexture@@QAEXPBD@Z PROC	; CGraphicImageTexture::SetFileName, COMDAT
; _this$ = ecx

; 306  : {

  00000	55		 push	 ebp
  00001	8b ec		 mov	 ebp, esp
  00003	83 ec 0c	 sub	 esp, 12			; 0000000cH
  00006	89 4d f4	 mov	 DWORD PTR _this$[ebp], ecx
; File C:\Program Files (x86)\Microsoft Visual Studio\2019\Community\VC\Tools\MSVC\14.28.29333\include\xstring

; 389  :         return _CSTD strlen(reinterpret_cast<const char*>(_First));

  00009	ff 75 08	 push	 DWORD PTR _c_szFileName$[ebp]
  0000c	e8 00 00 00 00	 call	 _strlen
  00011	59		 pop	 ecx
  00012	89 45 fc	 mov	 DWORD PTR $T2[ebp], eax
; File C:\Program Files (x86)\Microsoft Visual Studio\2019\Community\VC\Tools\MSVC\14.28.29333\include\xmemory

; 997  :     return _Len;

  00015	8b 45 fc	 mov	 eax, DWORD PTR $T2[ebp]
  00018	89 45 f8	 mov	 DWORD PTR $T1[ebp], eax
; File C:\Program Files (x86)\Microsoft Visual Studio\2019\Community\VC\Tools\MSVC\14.28.29333\include\xstring

; 3062 :         return assign(_Ptr, _Convert_size<size_type>(_Traits::length(_Ptr)));

  0001b	ff 75 f8	 push	 DWORD PTR $T1[ebp]
  0001e	ff 75 08	 push	 DWORD PTR _c_szFileName$[ebp]
; File D:\Metin2 Server Files\mainline\SRC_2014\Metin2Client\EterLib\GrpImageTexture.cpp

; 307  : 	m_stFileName=c_szFileName;

  00021	8b 4d f4	 mov	 ecx, DWORD PTR _this$[ebp]
  00024	83 c1 1c	 add	 ecx, 28			; 0000001cH
; File C:\Program Files (x86)\Microsoft Visual Studio\2019\Community\VC\Tools\MSVC\14.28.29333\include\xstring

; 3062 :         return assign(_Ptr, _Convert_size<size_type>(_Traits::length(_Ptr)));

  00027	e8 00 00 00 00	 call	 ?assign@?$basic_string@DU?$char_traits@D@std@@V?$allocator@D@2@@std@@QAEAAV12@QBDI@Z ; std::basic_string<char,std::char_traits<char>,std::allocator<char> >::assign
; File D:\Metin2 Server Files\mainline\SRC_2014\Metin2Client\EterLib\GrpImageTexture.cpp

; 308  : }

  0002c	c9		 leave
  0002d	c2 04 00	 ret	 4
?SetFileName@CGraphicImageTexture@@QAEXPBD@Z ENDP	; CGraphicImageTexture::SetFileName
_TEXT	ENDS
; Function compile flags: /Odspy
; File D:\Metin2 Server Files\mainline\SRC_2014\Metin2Client\EterLib\GrpImageTexture.cpp
;	COMDAT ?CreateDDSTexture@CGraphicImageTexture@@QAE_NAAVCDXTCImage@@PBE@Z
_TEXT	SEGMENT
_lockedRect$1 = -76					; size = 8
_pool$ = -68						; size = 4
_pkTexDst$2 = -64					; size = 4
_pkTexSrc$3 = -60					; size = 4
_uMinMipMapIndex$ = -56					; size = 4
tv70 = -52						; size = 4
tv67 = -48						; size = 4
_imgWidth$4 = -44					; size = 4
_imgHeight$5 = -40					; size = 4
_ppsSrc$6 = -36						; size = 4
_ppsDst$7 = -32						; size = 4
_i$8 = -28						; size = 4
_this$ = -24						; size = 4
_format$ = -20						; size = 4
_i$9 = -16						; size = 4
_lpd3dTexture$ = -12					; size = 4
_mipmapCount$ = -8					; size = 4
_uTexBias$ = -4						; size = 4
_image$ = 8						; size = 4
___formal$ = 12						; size = 4
?CreateDDSTexture@CGraphicImageTexture@@QAE_NAAVCDXTCImage@@PBE@Z PROC ; CGraphicImageTexture::CreateDDSTexture, COMDAT
; _this$ = ecx

; 95   : {

  00000	55		 push	 ebp
  00001	8b ec		 mov	 ebp, esp
  00003	83 ec 4c	 sub	 esp, 76			; 0000004cH
  00006	89 4d e8	 mov	 DWORD PTR _this$[ebp], ecx

; 96   : 	int mipmapCount = image.m_dwMipMapCount == 0 ? 1 : image.m_dwMipMapCount;

  00009	8b 45 08	 mov	 eax, DWORD PTR _image$[ebp]
  0000c	83 b8 f4 00 00
	00 00		 cmp	 DWORD PTR [eax+244], 0
  00013	75 09		 jne	 SHORT $LN28@CreateDDST
  00015	c7 45 d0 01 00
	00 00		 mov	 DWORD PTR tv67[ebp], 1
  0001c	eb 0c		 jmp	 SHORT $LN29@CreateDDST
$LN28@CreateDDST:
  0001e	8b 45 08	 mov	 eax, DWORD PTR _image$[ebp]
  00021	8b 80 f4 00 00
	00		 mov	 eax, DWORD PTR [eax+244]
  00027	89 45 d0	 mov	 DWORD PTR tv67[ebp], eax
$LN29@CreateDDST:
  0002a	8b 45 d0	 mov	 eax, DWORD PTR tv67[ebp]
  0002d	89 45 f8	 mov	 DWORD PTR _mipmapCount$[ebp], eax

; 97   : 
; 98   : 	D3DFORMAT format;
; 99   : 	LPDIRECT3DTEXTURE8 lpd3dTexture;
; 100  : 	D3DPOOL pool = ms_bSupportDXT ? D3DPOOL_MANAGED : D3DPOOL_SCRATCH;;

  00030	0f b6 05 00 00
	00 00		 movzx	 eax, BYTE PTR ?ms_bSupportDXT@CGraphicBase@@1_NA ; CGraphicBase::ms_bSupportDXT
  00037	85 c0		 test	 eax, eax
  00039	74 09		 je	 SHORT $LN30@CreateDDST
  0003b	c7 45 cc 01 00
	00 00		 mov	 DWORD PTR tv70[ebp], 1
  00042	eb 07		 jmp	 SHORT $LN31@CreateDDST
$LN30@CreateDDST:
  00044	c7 45 cc 03 00
	00 00		 mov	 DWORD PTR tv70[ebp], 3
$LN31@CreateDDST:
  0004b	8b 45 cc	 mov	 eax, DWORD PTR tv70[ebp]
  0004e	89 45 bc	 mov	 DWORD PTR _pool$[ebp], eax

; 101  : 
; 102  : 	if(image.m_CompFormat == PF_DXT5)

  00051	8b 45 08	 mov	 eax, DWORD PTR _image$[ebp]
  00054	83 b8 ec 00 00
	00 05		 cmp	 DWORD PTR [eax+236], 5
  0005b	75 09		 jne	 SHORT $LN8@CreateDDST

; 103  : 		format = D3DFMT_DXT5;	

  0005d	c7 45 ec 44 58
	54 35		 mov	 DWORD PTR _format$[ebp], 894720068 ; 35545844H
  00064	eb 1c		 jmp	 SHORT $LN9@CreateDDST
$LN8@CreateDDST:

; 104  : 	else if(image.m_CompFormat == PF_DXT3)

  00066	8b 45 08	 mov	 eax, DWORD PTR _image$[ebp]
  00069	83 b8 ec 00 00
	00 03		 cmp	 DWORD PTR [eax+236], 3
  00070	75 09		 jne	 SHORT $LN10@CreateDDST

; 105  : 		format = D3DFMT_DXT3;	

  00072	c7 45 ec 44 58
	54 33		 mov	 DWORD PTR _format$[ebp], 861165636 ; 33545844H
  00079	eb 07		 jmp	 SHORT $LN9@CreateDDST
$LN10@CreateDDST:

; 106  : 	else
; 107  : 		format = D3DFMT_DXT1;	

  0007b	c7 45 ec 44 58
	54 31		 mov	 DWORD PTR _format$[ebp], 827611204 ; 31545844H
$LN9@CreateDDST:

; 108  : 
; 109  : 	UINT uTexBias=0;

  00082	83 65 fc 00	 and	 DWORD PTR _uTexBias$[ebp], 0

; 110  : 	if (IsLowTextureMemory())

  00086	e8 00 00 00 00	 call	 ?IsLowTextureMemory@CGraphicBase@@SA_NXZ ; CGraphicBase::IsLowTextureMemory
  0008b	0f b6 c0	 movzx	 eax, al
  0008e	85 c0		 test	 eax, eax
  00090	74 07		 je	 SHORT $LN12@CreateDDST

; 111  : 		uTexBias=1;

  00092	c7 45 fc 01 00
	00 00		 mov	 DWORD PTR _uTexBias$[ebp], 1
$LN12@CreateDDST:

; 112  : 
; 113  : 	UINT uMinMipMapIndex=0;

  00099	83 65 c8 00	 and	 DWORD PTR _uMinMipMapIndex$[ebp], 0

; 114  : 	if (uTexBias>0)

  0009d	83 7d fc 00	 cmp	 DWORD PTR _uTexBias$[ebp], 0
  000a1	76 45		 jbe	 SHORT $LN13@CreateDDST

; 115  : 	{
; 116  : 		if (mipmapCount>uTexBias)

  000a3	8b 45 f8	 mov	 eax, DWORD PTR _mipmapCount$[ebp]
  000a6	3b 45 fc	 cmp	 eax, DWORD PTR _uTexBias$[ebp]
  000a9	76 3d		 jbe	 SHORT $LN13@CreateDDST

; 117  : 		{
; 118  : 			uMinMipMapIndex=uTexBias;

  000ab	8b 45 fc	 mov	 eax, DWORD PTR _uTexBias$[ebp]
  000ae	89 45 c8	 mov	 DWORD PTR _uMinMipMapIndex$[ebp], eax

; 119  : 			image.m_nWidth>>=uTexBias;

  000b1	8b 45 08	 mov	 eax, DWORD PTR _image$[ebp]
  000b4	8b 80 00 01 00
	00		 mov	 eax, DWORD PTR [eax+256]
  000ba	8b 4d fc	 mov	 ecx, DWORD PTR _uTexBias$[ebp]
  000bd	d3 f8		 sar	 eax, cl
  000bf	8b 4d 08	 mov	 ecx, DWORD PTR _image$[ebp]
  000c2	89 81 00 01 00
	00		 mov	 DWORD PTR [ecx+256], eax

; 120  : 			image.m_nHeight>>=uTexBias;

  000c8	8b 45 08	 mov	 eax, DWORD PTR _image$[ebp]
  000cb	8b 80 04 01 00
	00		 mov	 eax, DWORD PTR [eax+260]
  000d1	8b 4d fc	 mov	 ecx, DWORD PTR _uTexBias$[ebp]
  000d4	d3 f8		 sar	 eax, cl
  000d6	8b 4d 08	 mov	 ecx, DWORD PTR _image$[ebp]
  000d9	89 81 04 01 00
	00		 mov	 DWORD PTR [ecx+260], eax

; 121  : 			mipmapCount-=uTexBias;

  000df	8b 45 f8	 mov	 eax, DWORD PTR _mipmapCount$[ebp]
  000e2	2b 45 fc	 sub	 eax, DWORD PTR _uTexBias$[ebp]
  000e5	89 45 f8	 mov	 DWORD PTR _mipmapCount$[ebp], eax
$LN13@CreateDDST:

; 122  : 		}
; 123  : 	}
; 124  : 
; 125  : 	if (FAILED(D3DXCreateTexture(	ms_lpd3dDevice, image.m_nWidth, image.m_nHeight,

  000e8	8d 45 f4	 lea	 eax, DWORD PTR _lpd3dTexture$[ebp]
  000eb	50		 push	 eax
  000ec	ff 75 bc	 push	 DWORD PTR _pool$[ebp]
  000ef	ff 75 ec	 push	 DWORD PTR _format$[ebp]
  000f2	6a 00		 push	 0
  000f4	ff 75 f8	 push	 DWORD PTR _mipmapCount$[ebp]
  000f7	8b 45 08	 mov	 eax, DWORD PTR _image$[ebp]
  000fa	ff b0 04 01 00
	00		 push	 DWORD PTR [eax+260]
  00100	8b 45 08	 mov	 eax, DWORD PTR _image$[ebp]
  00103	ff b0 00 01 00
	00		 push	 DWORD PTR [eax+256]
  00109	ff 35 00 00 00
	00		 push	 DWORD PTR ?ms_lpd3dDevice@CGraphicBase@@1PAUIDirect3DDevice8@@A ; CGraphicBase::ms_lpd3dDevice
  0010f	e8 00 00 00 00	 call	 _D3DXCreateTexture@32
  00114	85 c0		 test	 eax, eax
  00116	7d 12		 jge	 SHORT $LN15@CreateDDST

; 126  : 									mipmapCount, 0, format, pool, &lpd3dTexture)))
; 127  : 	{
; 128  : 		TraceError("CreateDDSTexture: Cannot creatre texture");

  00118	68 00 00 00 00	 push	 OFFSET ??_C@_0CJ@GNAMCJFH@CreateDDSTexture?3?5Cannot?5creatr@
  0011d	e8 00 00 00 00	 call	 ?TraceError@@YAXPBDZZ	; TraceError
  00122	59		 pop	 ecx

; 129  : 		return false;

  00123	32 c0		 xor	 al, al
  00125	e9 d8 01 00 00	 jmp	 $LN1@CreateDDST
$LN15@CreateDDST:

; 130  : 	}
; 131  : 
; 132  : 	for (DWORD i = 0; i < mipmapCount; ++i)

  0012a	83 65 f0 00	 and	 DWORD PTR _i$9[ebp], 0
  0012e	eb 07		 jmp	 SHORT $LN4@CreateDDST
$LN2@CreateDDST:
  00130	8b 45 f0	 mov	 eax, DWORD PTR _i$9[ebp]
  00133	40		 inc	 eax
  00134	89 45 f0	 mov	 DWORD PTR _i$9[ebp], eax
$LN4@CreateDDST:
  00137	8b 45 f0	 mov	 eax, DWORD PTR _i$9[ebp]
  0013a	3b 45 f8	 cmp	 eax, DWORD PTR _mipmapCount$[ebp]
  0013d	73 4c		 jae	 SHORT $LN3@CreateDDST

; 133  : 	{
; 134  : 		D3DLOCKED_RECT lockedRect;
; 135  : 
; 136  : 		if (FAILED(lpd3dTexture->LockRect(i, &lockedRect, NULL, 0)))

  0013f	6a 00		 push	 0
  00141	6a 00		 push	 0
  00143	8d 45 b4	 lea	 eax, DWORD PTR _lockedRect$1[ebp]
  00146	50		 push	 eax
  00147	ff 75 f0	 push	 DWORD PTR _i$9[ebp]
  0014a	8b 45 f4	 mov	 eax, DWORD PTR _lpd3dTexture$[ebp]
  0014d	8b 00		 mov	 eax, DWORD PTR [eax]
  0014f	ff 75 f4	 push	 DWORD PTR _lpd3dTexture$[ebp]
  00152	ff 50 40	 call	 DWORD PTR [eax+64]
  00155	85 c0		 test	 eax, eax
  00157	7d 0d		 jge	 SHORT $LN16@CreateDDST

; 137  : 		{
; 138  : 			TraceError("CreateDDSTexture: Cannot lock texture");

  00159	68 00 00 00 00	 push	 OFFSET ??_C@_0CG@GKMBNFBC@CreateDDSTexture?3?5Cannot?5lock?5t@
  0015e	e8 00 00 00 00	 call	 ?TraceError@@YAXPBDZZ	; TraceError
  00163	59		 pop	 ecx

; 139  : 		}

  00164	eb 23		 jmp	 SHORT $LN17@CreateDDST
$LN16@CreateDDST:

; 140  : 		else
; 141  : 		{
; 142  : 			image.Copy(i+uMinMipMapIndex, (BYTE*)lockedRect.pBits, lockedRect.Pitch);

  00166	ff 75 b4	 push	 DWORD PTR _lockedRect$1[ebp]
  00169	ff 75 b8	 push	 DWORD PTR _lockedRect$1[ebp+4]
  0016c	8b 45 f0	 mov	 eax, DWORD PTR _i$9[ebp]
  0016f	03 45 c8	 add	 eax, DWORD PTR _uMinMipMapIndex$[ebp]
  00172	50		 push	 eax
  00173	8b 4d 08	 mov	 ecx, DWORD PTR _image$[ebp]
  00176	e8 00 00 00 00	 call	 ?Copy@CDXTCImage@@QAE_NHPAEJ@Z ; CDXTCImage::Copy

; 143  : 			lpd3dTexture->UnlockRect(i);

  0017b	ff 75 f0	 push	 DWORD PTR _i$9[ebp]
  0017e	8b 45 f4	 mov	 eax, DWORD PTR _lpd3dTexture$[ebp]
  00181	8b 00		 mov	 eax, DWORD PTR [eax]
  00183	ff 75 f4	 push	 DWORD PTR _lpd3dTexture$[ebp]
  00186	ff 50 44	 call	 DWORD PTR [eax+68]
$LN17@CreateDDST:

; 144  : 		}
; 145  : 	}

  00189	eb a5		 jmp	 SHORT $LN2@CreateDDST
$LN3@CreateDDST:

; 146  : 
; 147  : 	if(ms_bSupportDXT)

  0018b	0f b6 05 00 00
	00 00		 movzx	 eax, BYTE PTR ?ms_bSupportDXT@CGraphicBase@@1_NA ; CGraphicBase::ms_bSupportDXT
  00192	85 c0		 test	 eax, eax
  00194	74 0e		 je	 SHORT $LN18@CreateDDST

; 148  : 	{
; 149  : 		m_lpd3dTexture = lpd3dTexture;

  00196	8b 45 e8	 mov	 eax, DWORD PTR _this$[ebp]
  00199	8b 4d f4	 mov	 ecx, DWORD PTR _lpd3dTexture$[ebp]
  0019c	89 48 10	 mov	 DWORD PTR [eax+16], ecx

; 150  : 	}

  0019f	e9 37 01 00 00	 jmp	 $LN19@CreateDDST
$LN18@CreateDDST:

; 151  : 	else
; 152  : 	{
; 153  : 		if(image.m_CompFormat == PF_DXT3 || image.m_CompFormat == PF_DXT5)

  001a4	8b 45 08	 mov	 eax, DWORD PTR _image$[ebp]
  001a7	83 b8 ec 00 00
	00 03		 cmp	 DWORD PTR [eax+236], 3
  001ae	74 0c		 je	 SHORT $LN22@CreateDDST
  001b0	8b 45 08	 mov	 eax, DWORD PTR _image$[ebp]
  001b3	83 b8 ec 00 00
	00 05		 cmp	 DWORD PTR [eax+236], 5
  001ba	75 09		 jne	 SHORT $LN20@CreateDDST
$LN22@CreateDDST:

; 154  : 			format = D3DFMT_A4R4G4B4;

  001bc	c7 45 ec 1a 00
	00 00		 mov	 DWORD PTR _format$[ebp], 26 ; 0000001aH
  001c3	eb 07		 jmp	 SHORT $LN21@CreateDDST
$LN20@CreateDDST:

; 155  : 		else
; 156  : 			format = D3DFMT_A1R5G5B5;

  001c5	c7 45 ec 19 00
	00 00		 mov	 DWORD PTR _format$[ebp], 25 ; 00000019H
$LN21@CreateDDST:

; 157  : 
; 158  : 		UINT imgWidth=image.m_nWidth;

  001cc	8b 45 08	 mov	 eax, DWORD PTR _image$[ebp]
  001cf	8b 80 00 01 00
	00		 mov	 eax, DWORD PTR [eax+256]
  001d5	89 45 d4	 mov	 DWORD PTR _imgWidth$4[ebp], eax

; 159  : 		UINT imgHeight=image.m_nHeight;

  001d8	8b 45 08	 mov	 eax, DWORD PTR _image$[ebp]
  001db	8b 80 04 01 00
	00		 mov	 eax, DWORD PTR [eax+260]
  001e1	89 45 d8	 mov	 DWORD PTR _imgHeight$5[ebp], eax

; 160  : 
; 161  : 		extern bool GRAPHICS_CAPS_HALF_SIZE_IMAGE;
; 162  : 
; 163  : 		if (GRAPHICS_CAPS_HALF_SIZE_IMAGE && uTexBias>0 && mipmapCount==0)

  001e4	0f b6 05 00 00
	00 00		 movzx	 eax, BYTE PTR ?GRAPHICS_CAPS_HALF_SIZE_IMAGE@@3_NA ; GRAPHICS_CAPS_HALF_SIZE_IMAGE
  001eb	85 c0		 test	 eax, eax
  001ed	74 22		 je	 SHORT $LN23@CreateDDST
  001ef	83 7d fc 00	 cmp	 DWORD PTR _uTexBias$[ebp], 0
  001f3	76 1c		 jbe	 SHORT $LN23@CreateDDST
  001f5	83 7d f8 00	 cmp	 DWORD PTR _mipmapCount$[ebp], 0
  001f9	75 16		 jne	 SHORT $LN23@CreateDDST

; 164  : 		{
; 165  : 			imgWidth>>=uTexBias;

  001fb	8b 45 d4	 mov	 eax, DWORD PTR _imgWidth$4[ebp]
  001fe	8b 4d fc	 mov	 ecx, DWORD PTR _uTexBias$[ebp]
  00201	d3 e8		 shr	 eax, cl
  00203	89 45 d4	 mov	 DWORD PTR _imgWidth$4[ebp], eax

; 166  : 			imgHeight>>=uTexBias;		

  00206	8b 45 d8	 mov	 eax, DWORD PTR _imgHeight$5[ebp]
  00209	8b 4d fc	 mov	 ecx, DWORD PTR _uTexBias$[ebp]
  0020c	d3 e8		 shr	 eax, cl
  0020e	89 45 d8	 mov	 DWORD PTR _imgHeight$5[ebp], eax
$LN23@CreateDDST:

; 167  : 		}
; 168  : 
; 169  : 		if (FAILED(D3DXCreateTexture(	ms_lpd3dDevice, imgWidth, imgHeight, 

  00211	8b 45 e8	 mov	 eax, DWORD PTR _this$[ebp]
  00214	83 c0 10	 add	 eax, 16			; 00000010H
  00217	50		 push	 eax
  00218	6a 01		 push	 1
  0021a	ff 75 ec	 push	 DWORD PTR _format$[ebp]
  0021d	6a 00		 push	 0
  0021f	ff 75 f8	 push	 DWORD PTR _mipmapCount$[ebp]
  00222	ff 75 d8	 push	 DWORD PTR _imgHeight$5[ebp]
  00225	ff 75 d4	 push	 DWORD PTR _imgWidth$4[ebp]
  00228	ff 35 00 00 00
	00		 push	 DWORD PTR ?ms_lpd3dDevice@CGraphicBase@@1PAUIDirect3DDevice8@@A ; CGraphicBase::ms_lpd3dDevice
  0022e	e8 00 00 00 00	 call	 _D3DXCreateTexture@32
  00233	85 c0		 test	 eax, eax
  00235	7d 12		 jge	 SHORT $LN24@CreateDDST

; 170  : 										mipmapCount, 0, format, D3DPOOL_MANAGED, &m_lpd3dTexture)))
; 171  : 		{
; 172  : 				TraceError("CreateDDSTexture: Cannot creatre texture");

  00237	68 00 00 00 00	 push	 OFFSET ??_C@_0CJ@GNAMCJFH@CreateDDSTexture?3?5Cannot?5creatr@
  0023c	e8 00 00 00 00	 call	 ?TraceError@@YAXPBDZZ	; TraceError
  00241	59		 pop	 ecx

; 173  : 				return false;

  00242	32 c0		 xor	 al, al
  00244	e9 b9 00 00 00	 jmp	 $LN1@CreateDDST
$LN24@CreateDDST:

; 174  : 		}
; 175  : 
; 176  : 		IDirect3DTexture8* pkTexSrc=lpd3dTexture;

  00249	8b 45 f4	 mov	 eax, DWORD PTR _lpd3dTexture$[ebp]
  0024c	89 45 c4	 mov	 DWORD PTR _pkTexSrc$3[ebp], eax

; 177  : 		IDirect3DTexture8* pkTexDst=m_lpd3dTexture;

  0024f	8b 45 e8	 mov	 eax, DWORD PTR _this$[ebp]
  00252	8b 40 10	 mov	 eax, DWORD PTR [eax+16]
  00255	89 45 c0	 mov	 DWORD PTR _pkTexDst$2[ebp], eax

; 178  : 
; 179  : 		for(int i=0; i<mipmapCount; ++i) {

  00258	83 65 e4 00	 and	 DWORD PTR _i$8[ebp], 0
  0025c	eb 07		 jmp	 SHORT $LN7@CreateDDST
$LN5@CreateDDST:
  0025e	8b 45 e4	 mov	 eax, DWORD PTR _i$8[ebp]
  00261	40		 inc	 eax
  00262	89 45 e4	 mov	 DWORD PTR _i$8[ebp], eax
$LN7@CreateDDST:
  00265	8b 45 e4	 mov	 eax, DWORD PTR _i$8[ebp]
  00268	3b 45 f8	 cmp	 eax, DWORD PTR _mipmapCount$[ebp]
  0026b	7d 63		 jge	 SHORT $LN6@CreateDDST

; 180  : 
; 181  : 			IDirect3DSurface8* ppsSrc = NULL;

  0026d	83 65 dc 00	 and	 DWORD PTR _ppsSrc$6[ebp], 0

; 182  : 			IDirect3DSurface8* ppsDst = NULL;

  00271	83 65 e0 00	 and	 DWORD PTR _ppsDst$7[ebp], 0

; 183  : 
; 184  : 			if (SUCCEEDED(pkTexSrc->GetSurfaceLevel(i, &ppsSrc)))

  00275	8d 45 dc	 lea	 eax, DWORD PTR _ppsSrc$6[ebp]
  00278	50		 push	 eax
  00279	ff 75 e4	 push	 DWORD PTR _i$8[ebp]
  0027c	8b 45 c4	 mov	 eax, DWORD PTR _pkTexSrc$3[ebp]
  0027f	8b 00		 mov	 eax, DWORD PTR [eax]
  00281	ff 75 c4	 push	 DWORD PTR _pkTexSrc$3[ebp]
  00284	ff 50 3c	 call	 DWORD PTR [eax+60]
  00287	85 c0		 test	 eax, eax
  00289	7c 43		 jl	 SHORT $LN25@CreateDDST

; 185  : 			{
; 186  : 				if (SUCCEEDED(pkTexDst->GetSurfaceLevel(i, &ppsDst)))

  0028b	8d 45 e0	 lea	 eax, DWORD PTR _ppsDst$7[ebp]
  0028e	50		 push	 eax
  0028f	ff 75 e4	 push	 DWORD PTR _i$8[ebp]
  00292	8b 45 c0	 mov	 eax, DWORD PTR _pkTexDst$2[ebp]
  00295	8b 00		 mov	 eax, DWORD PTR [eax]
  00297	ff 75 c0	 push	 DWORD PTR _pkTexDst$2[ebp]
  0029a	ff 50 3c	 call	 DWORD PTR [eax+60]
  0029d	85 c0		 test	 eax, eax
  0029f	7c 22		 jl	 SHORT $LN26@CreateDDST

; 187  : 				{
; 188  : 					D3DXLoadSurfaceFromSurface(ppsDst, NULL, NULL, ppsSrc, NULL, NULL, D3DX_FILTER_NONE, 0);

  002a1	6a 00		 push	 0
  002a3	6a 01		 push	 1
  002a5	6a 00		 push	 0
  002a7	6a 00		 push	 0
  002a9	ff 75 dc	 push	 DWORD PTR _ppsSrc$6[ebp]
  002ac	6a 00		 push	 0
  002ae	6a 00		 push	 0
  002b0	ff 75 e0	 push	 DWORD PTR _ppsDst$7[ebp]
  002b3	e8 00 00 00 00	 call	 _D3DXLoadSurfaceFromSurface@32

; 189  : 					ppsDst->Release();

  002b8	8b 45 e0	 mov	 eax, DWORD PTR _ppsDst$7[ebp]
  002bb	8b 00		 mov	 eax, DWORD PTR [eax]
  002bd	ff 75 e0	 push	 DWORD PTR _ppsDst$7[ebp]
  002c0	ff 50 08	 call	 DWORD PTR [eax+8]
$LN26@CreateDDST:

; 190  : 				}
; 191  : 				ppsSrc->Release();

  002c3	8b 45 dc	 mov	 eax, DWORD PTR _ppsSrc$6[ebp]
  002c6	8b 00		 mov	 eax, DWORD PTR [eax]
  002c8	ff 75 dc	 push	 DWORD PTR _ppsSrc$6[ebp]
  002cb	ff 50 08	 call	 DWORD PTR [eax+8]
$LN25@CreateDDST:

; 192  : 			}
; 193  : 		}

  002ce	eb 8e		 jmp	 SHORT $LN5@CreateDDST
$LN6@CreateDDST:

; 194  : 
; 195  : 		lpd3dTexture->Release();

  002d0	8b 45 f4	 mov	 eax, DWORD PTR _lpd3dTexture$[ebp]
  002d3	8b 00		 mov	 eax, DWORD PTR [eax]
  002d5	ff 75 f4	 push	 DWORD PTR _lpd3dTexture$[ebp]
  002d8	ff 50 08	 call	 DWORD PTR [eax+8]
$LN19@CreateDDST:

; 196  : 	}
; 197  : 
; 198  : 	m_width = image.m_nWidth;

  002db	8b 45 e8	 mov	 eax, DWORD PTR _this$[ebp]
  002de	8b 4d 08	 mov	 ecx, DWORD PTR _image$[ebp]
  002e1	8b 89 00 01 00
	00		 mov	 ecx, DWORD PTR [ecx+256]
  002e7	89 48 08	 mov	 DWORD PTR [eax+8], ecx

; 199  : 	m_height = image.m_nHeight;

  002ea	8b 45 e8	 mov	 eax, DWORD PTR _this$[ebp]
  002ed	8b 4d 08	 mov	 ecx, DWORD PTR _image$[ebp]
  002f0	8b 89 04 01 00
	00		 mov	 ecx, DWORD PTR [ecx+260]
  002f6	89 48 0c	 mov	 DWORD PTR [eax+12], ecx

; 200  : 	m_bEmpty = false;

  002f9	8b 45 e8	 mov	 eax, DWORD PTR _this$[ebp]
  002fc	c6 40 04 00	 mov	 BYTE PTR [eax+4], 0

; 201  : 
; 202  : 	return true;

  00300	b0 01		 mov	 al, 1
$LN1@CreateDDST:

; 203  : }

  00302	c9		 leave
  00303	c2 08 00	 ret	 8
?CreateDDSTexture@CGraphicImageTexture@@QAE_NAAVCDXTCImage@@PBE@Z ENDP ; CGraphicImageTexture::CreateDDSTexture
_TEXT	ENDS
; Function compile flags: /Odspy
; File D:\Metin2 Server Files\mainline\SRC_2014\Metin2Client\EterLib\GrpImageTexture.cpp
;	COMDAT ?CreateFromMemoryFile@CGraphicImageTexture@@QAE_NIPBXW4_D3DFORMAT@@K@Z
_TEXT	SEGMENT
_pkTexDst$2 = -80					; size = 4
tv148 = -76						; size = 4
_pkTexSrc$3 = -72					; size = 4
_ppsSrc$4 = -68						; size = 4
_ppsDst$5 = -64						; size = 4
_uTexBias$6 = -60					; size = 4
_format$7 = -56						; size = 4
_i$8 = -52						; size = 4
_this$ = -48						; size = 4
_imageInfo$9 = -44					; size = 28
__$ArrayPad$ = -16					; size = 4
__$EHRec$ = -12						; size = 12
_bufSize$ = 8						; size = 4
_c_pvBuf$ = 12						; size = 4
_d3dFmt$ = 16						; size = 4
_dwFilter$ = 20						; size = 4
?CreateFromMemoryFile@CGraphicImageTexture@@QAE_NIPBXW4_D3DFORMAT@@K@Z PROC ; CGraphicImageTexture::CreateFromMemoryFile, COMDAT
; _this$ = ecx

; 206  : {

  00000	55		 push	 ebp
  00001	8b ec		 mov	 ebp, esp
  00003	6a ff		 push	 -1
  00005	68 00 00 00 00	 push	 __ehhandler$?CreateFromMemoryFile@CGraphicImageTexture@@QAE_NIPBXW4_D3DFORMAT@@K@Z
  0000a	64 a1 00 00 00
	00		 mov	 eax, DWORD PTR fs:0
  00010	50		 push	 eax
  00011	83 ec 44	 sub	 esp, 68			; 00000044H
  00014	a1 00 00 00 00	 mov	 eax, DWORD PTR ___security_cookie
  00019	33 c5		 xor	 eax, ebp
  0001b	89 45 f0	 mov	 DWORD PTR __$ArrayPad$[ebp], eax
  0001e	50		 push	 eax
  0001f	8d 45 f4	 lea	 eax, DWORD PTR __$EHRec$[ebp]
  00022	64 a3 00 00 00
	00		 mov	 DWORD PTR fs:0, eax
  00028	89 4d d0	 mov	 DWORD PTR _this$[ebp], ecx

; 207  : 	assert(ms_lpd3dDevice != NULL);
; 208  : 	assert(m_lpd3dTexture == NULL);
; 209  : 
; 210  : 	static CDXTCImage image;

  0002b	a1 00 00 00 00	 mov	 eax, DWORD PTR __tls_index
  00030	64 8b 0d 00 00
	00 00		 mov	 ecx, DWORD PTR fs:__tls_array
  00037	8b 04 81	 mov	 eax, DWORD PTR [ecx+eax*4]
  0003a	8b 0d 00 00 00
	00		 mov	 ecx, DWORD PTR ?$TSS0@?1??CreateFromMemoryFile@CGraphicImageTexture@@QAE_NIPBXW4_D3DFORMAT@@K@Z@4HA
  00040	3b 88 00 00 00
	00		 cmp	 ecx, DWORD PTR __Init_thread_epoch[eax]
  00046	7e 3c		 jle	 SHORT $LN2@CreateFrom
  00048	68 00 00 00 00	 push	 OFFSET ?$TSS0@?1??CreateFromMemoryFile@CGraphicImageTexture@@QAE_NIPBXW4_D3DFORMAT@@K@Z@4HA
  0004d	e8 00 00 00 00	 call	 __Init_thread_header
  00052	59		 pop	 ecx
  00053	83 3d 00 00 00
	00 ff		 cmp	 DWORD PTR ?$TSS0@?1??CreateFromMemoryFile@CGraphicImageTexture@@QAE_NIPBXW4_D3DFORMAT@@K@Z@4HA, -1
  0005a	75 28		 jne	 SHORT $LN2@CreateFrom
  0005c	83 65 fc 00	 and	 DWORD PTR __$EHRec$[ebp+8], 0
  00060	b9 00 00 00 00	 mov	 ecx, OFFSET ?image@?1??CreateFromMemoryFile@CGraphicImageTexture@@QAE_NIPBXW4_D3DFORMAT@@K@Z@4VCDXTCImage@@A
  00065	e8 00 00 00 00	 call	 ??0CDXTCImage@@QAE@XZ	; CDXTCImage::CDXTCImage
  0006a	68 00 00 00 00	 push	 OFFSET ??__Fimage@?1??CreateFromMemoryFile@CGraphicImageTexture@@QAE_NIPBXW4_D3DFORMAT@@K@Z@YAXXZ ; `CGraphicImageTexture::CreateFromMemoryFile'::`2'::`dynamic atexit destructor for 'image''
  0006f	e8 00 00 00 00	 call	 _atexit
  00074	59		 pop	 ecx
  00075	83 4d fc ff	 or	 DWORD PTR __$EHRec$[ebp+8], -1
  00079	68 00 00 00 00	 push	 OFFSET ?$TSS0@?1??CreateFromMemoryFile@CGraphicImageTexture@@QAE_NIPBXW4_D3DFORMAT@@K@Z@4HA
  0007e	e8 00 00 00 00	 call	 __Init_thread_footer
  00083	59		 pop	 ecx
$LN2@CreateFrom:

; 211  : 
; 212  : 	if (image.LoadHeaderFromMemory((const BYTE *) c_pvBuf))	// DDS 

  00084	ff 75 0c	 push	 DWORD PTR _c_pvBuf$[ebp]
  00087	b9 00 00 00 00	 mov	 ecx, OFFSET ?image@?1??CreateFromMemoryFile@CGraphicImageTexture@@QAE_NIPBXW4_D3DFORMAT@@K@Z@4VCDXTCImage@@A
  0008c	e8 00 00 00 00	 call	 ?LoadHeaderFromMemory@CDXTCImage@@QAE_NPBE@Z ; CDXTCImage::LoadHeaderFromMemory
  00091	0f b6 c0	 movzx	 eax, al
  00094	85 c0		 test	 eax, eax
  00096	74 1a		 je	 SHORT $LN8@CreateFrom

; 213  : 	{
; 214  : 		return (CreateDDSTexture(image, (const BYTE *) c_pvBuf));

  00098	ff 75 0c	 push	 DWORD PTR _c_pvBuf$[ebp]
  0009b	68 00 00 00 00	 push	 OFFSET ?image@?1??CreateFromMemoryFile@CGraphicImageTexture@@QAE_NIPBXW4_D3DFORMAT@@K@Z@4VCDXTCImage@@A
  000a0	8b 4d d0	 mov	 ecx, DWORD PTR _this$[ebp]
  000a3	e8 00 00 00 00	 call	 ?CreateDDSTexture@CGraphicImageTexture@@QAE_NAAVCDXTCImage@@PBE@Z ; CGraphicImageTexture::CreateDDSTexture
  000a8	e9 9c 01 00 00	 jmp	 $LN1@CreateFrom

; 215  : 	}

  000ad	e9 8e 01 00 00	 jmp	 $LN9@CreateFrom
$LN8@CreateFrom:

; 216  : 	else
; 217  : 	{
; 218  : 		D3DXIMAGE_INFO imageInfo;
; 219  : 		if (FAILED(D3DXCreateTextureFromFileInMemoryEx(

  000b2	8b 45 d0	 mov	 eax, DWORD PTR _this$[ebp]
  000b5	83 c0 10	 add	 eax, 16			; 00000010H
  000b8	50		 push	 eax
  000b9	6a 00		 push	 0
  000bb	8d 45 d4	 lea	 eax, DWORD PTR _imageInfo$9[ebp]
  000be	50		 push	 eax
  000bf	68 ff 00 ff ff	 push	 -65281			; ffff00ffH
  000c4	ff 75 14	 push	 DWORD PTR _dwFilter$[ebp]
  000c7	ff 75 14	 push	 DWORD PTR _dwFilter$[ebp]
  000ca	6a 01		 push	 1
  000cc	ff 75 10	 push	 DWORD PTR _d3dFmt$[ebp]
  000cf	6a 00		 push	 0
  000d1	6a ff		 push	 -1
  000d3	6a ff		 push	 -1
  000d5	6a ff		 push	 -1
  000d7	ff 75 08	 push	 DWORD PTR _bufSize$[ebp]
  000da	ff 75 0c	 push	 DWORD PTR _c_pvBuf$[ebp]
  000dd	ff 35 00 00 00
	00		 push	 DWORD PTR ?ms_lpd3dDevice@CGraphicBase@@1PAUIDirect3DDevice8@@A ; CGraphicBase::ms_lpd3dDevice
  000e3	e8 00 00 00 00	 call	 _D3DXCreateTextureFromFileInMemoryEx@60
  000e8	85 c0		 test	 eax, eax
  000ea	7d 12		 jge	 SHORT $LN10@CreateFrom

; 220  : 					ms_lpd3dDevice,
; 221  : 					c_pvBuf,
; 222  : 					bufSize,
; 223  : 					D3DX_DEFAULT,
; 224  : 					D3DX_DEFAULT,
; 225  : 					D3DX_DEFAULT,
; 226  : 					0,
; 227  : 					d3dFmt,
; 228  : 					D3DPOOL_MANAGED,
; 229  : 					dwFilter,
; 230  : 					dwFilter,
; 231  : 					0xffff00ff,
; 232  : 					&imageInfo,
; 233  : 					NULL,
; 234  : 					&m_lpd3dTexture)))
; 235  : 		{
; 236  : 			TraceError("CreateFromMemoryFile: Cannot create texture");

  000ec	68 00 00 00 00	 push	 OFFSET ??_C@_0CM@KHEEHJBJ@CreateFromMemoryFile?3?5Cannot?5cr@
  000f1	e8 00 00 00 00	 call	 ?TraceError@@YAXPBDZZ	; TraceError
  000f6	59		 pop	 ecx

; 237  : 			return false;

  000f7	32 c0		 xor	 al, al
  000f9	e9 4b 01 00 00	 jmp	 $LN1@CreateFrom
$LN10@CreateFrom:

; 238  : 		}
; 239  : 
; 240  : 		m_width = imageInfo.Width;

  000fe	8b 45 d0	 mov	 eax, DWORD PTR _this$[ebp]
  00101	8b 4d d4	 mov	 ecx, DWORD PTR _imageInfo$9[ebp]
  00104	89 48 08	 mov	 DWORD PTR [eax+8], ecx

; 241  : 		m_height = imageInfo.Height;

  00107	8b 45 d0	 mov	 eax, DWORD PTR _this$[ebp]
  0010a	8b 4d d8	 mov	 ecx, DWORD PTR _imageInfo$9[ebp+4]
  0010d	89 48 0c	 mov	 DWORD PTR [eax+12], ecx

; 242  : 
; 243  : 		D3DFORMAT format=imageInfo.Format;

  00110	8b 45 e4	 mov	 eax, DWORD PTR _imageInfo$9[ebp+16]
  00113	89 45 c8	 mov	 DWORD PTR _format$7[ebp], eax

; 244  : 		switch(imageInfo.Format) {

  00116	8b 45 e4	 mov	 eax, DWORD PTR _imageInfo$9[ebp+16]
  00119	89 45 b4	 mov	 DWORD PTR tv148[ebp], eax
  0011c	83 7d b4 14	 cmp	 DWORD PTR tv148[ebp], 20 ; 00000014H
  00120	74 17		 je	 SHORT $LN12@CreateFrom
  00122	83 7d b4 15	 cmp	 DWORD PTR tv148[ebp], 21 ; 00000015H
  00126	74 08		 je	 SHORT $LN11@CreateFrom
  00128	83 7d b4 16	 cmp	 DWORD PTR tv148[ebp], 22 ; 00000016H
  0012c	74 0b		 je	 SHORT $LN12@CreateFrom
  0012e	eb 10		 jmp	 SHORT $LN3@CreateFrom
$LN11@CreateFrom:

; 245  : 			case D3DFMT_A8R8G8B8:
; 246  : 				format = D3DFMT_A4R4G4B4;

  00130	c7 45 c8 1a 00
	00 00		 mov	 DWORD PTR _format$7[ebp], 26 ; 0000001aH

; 247  : 				break;

  00137	eb 07		 jmp	 SHORT $LN3@CreateFrom
$LN12@CreateFrom:

; 248  : 
; 249  : 			case D3DFMT_X8R8G8B8:
; 250  : 			case D3DFMT_R8G8B8:
; 251  : 				format = D3DFMT_A1R5G5B5;

  00139	c7 45 c8 19 00
	00 00		 mov	 DWORD PTR _format$7[ebp], 25 ; 00000019H
$LN3@CreateFrom:

; 252  : 				break;
; 253  : 		}
; 254  : 
; 255  : 		UINT uTexBias=0;

  00140	83 65 c4 00	 and	 DWORD PTR _uTexBias$6[ebp], 0

; 256  : 
; 257  : 		extern bool GRAPHICS_CAPS_HALF_SIZE_IMAGE;
; 258  : 		if (GRAPHICS_CAPS_HALF_SIZE_IMAGE)

  00144	0f b6 05 00 00
	00 00		 movzx	 eax, BYTE PTR ?GRAPHICS_CAPS_HALF_SIZE_IMAGE@@3_NA ; GRAPHICS_CAPS_HALF_SIZE_IMAGE
  0014b	85 c0		 test	 eax, eax
  0014d	74 07		 je	 SHORT $LN13@CreateFrom

; 259  : 			uTexBias=1;

  0014f	c7 45 c4 01 00
	00 00		 mov	 DWORD PTR _uTexBias$6[ebp], 1
$LN13@CreateFrom:

; 260  : 
; 261  : 		if (IsLowTextureMemory())

  00156	e8 00 00 00 00	 call	 ?IsLowTextureMemory@CGraphicBase@@SA_NXZ ; CGraphicBase::IsLowTextureMemory
  0015b	0f b6 c0	 movzx	 eax, al
  0015e	85 c0		 test	 eax, eax
  00160	0f 84 da 00 00
	00		 je	 $LN9@CreateFrom

; 262  : 		if (uTexBias || format!=imageInfo.Format)

  00166	83 7d c4 00	 cmp	 DWORD PTR _uTexBias$6[ebp], 0
  0016a	75 0c		 jne	 SHORT $LN16@CreateFrom
  0016c	8b 45 c8	 mov	 eax, DWORD PTR _format$7[ebp]
  0016f	3b 45 e4	 cmp	 eax, DWORD PTR _imageInfo$9[ebp+16]
  00172	0f 84 c8 00 00
	00		 je	 $LN9@CreateFrom
$LN16@CreateFrom:

; 263  : 		{
; 264  : 			IDirect3DTexture8* pkTexSrc=m_lpd3dTexture;

  00178	8b 45 d0	 mov	 eax, DWORD PTR _this$[ebp]
  0017b	8b 40 10	 mov	 eax, DWORD PTR [eax+16]
  0017e	89 45 b8	 mov	 DWORD PTR _pkTexSrc$3[ebp], eax

; 265  : 			IDirect3DTexture8* pkTexDst;
; 266  : 			
; 267  : 			
; 268  : 			if (SUCCEEDED(D3DXCreateTexture(	

  00181	8d 45 b0	 lea	 eax, DWORD PTR _pkTexDst$2[ebp]
  00184	50		 push	 eax
  00185	6a 01		 push	 1
  00187	ff 75 c8	 push	 DWORD PTR _format$7[ebp]
  0018a	6a 00		 push	 0
  0018c	ff 75 e0	 push	 DWORD PTR _imageInfo$9[ebp+12]
  0018f	8b 45 d8	 mov	 eax, DWORD PTR _imageInfo$9[ebp+4]
  00192	8b 4d c4	 mov	 ecx, DWORD PTR _uTexBias$6[ebp]
  00195	d3 e8		 shr	 eax, cl
  00197	50		 push	 eax
  00198	8b 45 d4	 mov	 eax, DWORD PTR _imageInfo$9[ebp]
  0019b	8b 4d c4	 mov	 ecx, DWORD PTR _uTexBias$6[ebp]
  0019e	d3 e8		 shr	 eax, cl
  001a0	50		 push	 eax
  001a1	ff 35 00 00 00
	00		 push	 DWORD PTR ?ms_lpd3dDevice@CGraphicBase@@1PAUIDirect3DDevice8@@A ; CGraphicBase::ms_lpd3dDevice
  001a7	e8 00 00 00 00	 call	 _D3DXCreateTexture@32
  001ac	85 c0		 test	 eax, eax
  001ae	0f 8c 8c 00 00
	00		 jl	 $LN9@CreateFrom

; 269  : 				ms_lpd3dDevice, 
; 270  : 				imageInfo.Width>>uTexBias, 
; 271  : 				imageInfo.Height>>uTexBias, 
; 272  : 				imageInfo.MipLevels, 
; 273  : 				0, 
; 274  : 				format, 
; 275  : 				D3DPOOL_MANAGED, 
; 276  : 				&pkTexDst)))
; 277  : 			{
; 278  : 				m_lpd3dTexture=pkTexDst;

  001b4	8b 45 d0	 mov	 eax, DWORD PTR _this$[ebp]
  001b7	8b 4d b0	 mov	 ecx, DWORD PTR _pkTexDst$2[ebp]
  001ba	89 48 10	 mov	 DWORD PTR [eax+16], ecx

; 279  : 				
; 280  : 				for(int i=0; i<imageInfo.MipLevels; ++i) {

  001bd	83 65 cc 00	 and	 DWORD PTR _i$8[ebp], 0
  001c1	eb 07		 jmp	 SHORT $LN7@CreateFrom
$LN5@CreateFrom:
  001c3	8b 45 cc	 mov	 eax, DWORD PTR _i$8[ebp]
  001c6	40		 inc	 eax
  001c7	89 45 cc	 mov	 DWORD PTR _i$8[ebp], eax
$LN7@CreateFrom:
  001ca	8b 45 cc	 mov	 eax, DWORD PTR _i$8[ebp]
  001cd	3b 45 e0	 cmp	 eax, DWORD PTR _imageInfo$9[ebp+12]
  001d0	73 63		 jae	 SHORT $LN6@CreateFrom

; 281  : 
; 282  : 					IDirect3DSurface8* ppsSrc = NULL;

  001d2	83 65 bc 00	 and	 DWORD PTR _ppsSrc$4[ebp], 0

; 283  : 					IDirect3DSurface8* ppsDst = NULL;

  001d6	83 65 c0 00	 and	 DWORD PTR _ppsDst$5[ebp], 0

; 284  : 
; 285  : 					if (SUCCEEDED(pkTexSrc->GetSurfaceLevel(i, &ppsSrc)))

  001da	8d 45 bc	 lea	 eax, DWORD PTR _ppsSrc$4[ebp]
  001dd	50		 push	 eax
  001de	ff 75 cc	 push	 DWORD PTR _i$8[ebp]
  001e1	8b 45 b8	 mov	 eax, DWORD PTR _pkTexSrc$3[ebp]
  001e4	8b 00		 mov	 eax, DWORD PTR [eax]
  001e6	ff 75 b8	 push	 DWORD PTR _pkTexSrc$3[ebp]
  001e9	ff 50 3c	 call	 DWORD PTR [eax+60]
  001ec	85 c0		 test	 eax, eax
  001ee	7c 43		 jl	 SHORT $LN18@CreateFrom

; 286  : 					{
; 287  : 						if (SUCCEEDED(pkTexDst->GetSurfaceLevel(i, &ppsDst)))

  001f0	8d 45 c0	 lea	 eax, DWORD PTR _ppsDst$5[ebp]
  001f3	50		 push	 eax
  001f4	ff 75 cc	 push	 DWORD PTR _i$8[ebp]
  001f7	8b 45 b0	 mov	 eax, DWORD PTR _pkTexDst$2[ebp]
  001fa	8b 00		 mov	 eax, DWORD PTR [eax]
  001fc	ff 75 b0	 push	 DWORD PTR _pkTexDst$2[ebp]
  001ff	ff 50 3c	 call	 DWORD PTR [eax+60]
  00202	85 c0		 test	 eax, eax
  00204	7c 22		 jl	 SHORT $LN19@CreateFrom

; 288  : 						{
; 289  : 							D3DXLoadSurfaceFromSurface(ppsDst, NULL, NULL, ppsSrc, NULL, NULL, D3DX_FILTER_LINEAR, 0);

  00206	6a 00		 push	 0
  00208	6a 03		 push	 3
  0020a	6a 00		 push	 0
  0020c	6a 00		 push	 0
  0020e	ff 75 bc	 push	 DWORD PTR _ppsSrc$4[ebp]
  00211	6a 00		 push	 0
  00213	6a 00		 push	 0
  00215	ff 75 c0	 push	 DWORD PTR _ppsDst$5[ebp]
  00218	e8 00 00 00 00	 call	 _D3DXLoadSurfaceFromSurface@32

; 290  : 							ppsDst->Release();

  0021d	8b 45 c0	 mov	 eax, DWORD PTR _ppsDst$5[ebp]
  00220	8b 00		 mov	 eax, DWORD PTR [eax]
  00222	ff 75 c0	 push	 DWORD PTR _ppsDst$5[ebp]
  00225	ff 50 08	 call	 DWORD PTR [eax+8]
$LN19@CreateFrom:

; 291  : 						}
; 292  : 						ppsSrc->Release();

  00228	8b 45 bc	 mov	 eax, DWORD PTR _ppsSrc$4[ebp]
  0022b	8b 00		 mov	 eax, DWORD PTR [eax]
  0022d	ff 75 bc	 push	 DWORD PTR _ppsSrc$4[ebp]
  00230	ff 50 08	 call	 DWORD PTR [eax+8]
$LN18@CreateFrom:

; 293  : 					}
; 294  : 				}

  00233	eb 8e		 jmp	 SHORT $LN5@CreateFrom
$LN6@CreateFrom:

; 295  : 
; 296  : 				pkTexSrc->Release();

  00235	8b 45 b8	 mov	 eax, DWORD PTR _pkTexSrc$3[ebp]
  00238	8b 00		 mov	 eax, DWORD PTR [eax]
  0023a	ff 75 b8	 push	 DWORD PTR _pkTexSrc$3[ebp]
  0023d	ff 50 08	 call	 DWORD PTR [eax+8]
$LN9@CreateFrom:

; 297  : 			}
; 298  : 		}
; 299  : 	}
; 300  : 
; 301  : 	m_bEmpty = false;

  00240	8b 45 d0	 mov	 eax, DWORD PTR _this$[ebp]
  00243	c6 40 04 00	 mov	 BYTE PTR [eax+4], 0

; 302  : 	return true;

  00247	b0 01		 mov	 al, 1
$LN1@CreateFrom:

; 303  : }

  00249	8b 4d f4	 mov	 ecx, DWORD PTR __$EHRec$[ebp]
  0024c	64 89 0d 00 00
	00 00		 mov	 DWORD PTR fs:0, ecx
  00253	59		 pop	 ecx
  00254	8b 4d f0	 mov	 ecx, DWORD PTR __$ArrayPad$[ebp]
  00257	33 cd		 xor	 ecx, ebp
  00259	e8 00 00 00 00	 call	 @__security_check_cookie@4
  0025e	c9		 leave
  0025f	c2 10 00	 ret	 16			; 00000010H
_TEXT	ENDS
;	COMDAT text$x
text$x	SEGMENT
__unwindfunclet$?CreateFromMemoryFile@CGraphicImageTexture@@QAE_NIPBXW4_D3DFORMAT@@K@Z$0:
  00000	68 00 00 00 00	 push	 OFFSET ?$TSS0@?1??CreateFromMemoryFile@CGraphicImageTexture@@QAE_NIPBXW4_D3DFORMAT@@K@Z@4HA
  00005	e8 00 00 00 00	 call	 __Init_thread_abort
  0000a	59		 pop	 ecx
  0000b	c3		 ret	 0
  0000c	cc		 int	 3
  0000d	cc		 int	 3
  0000e	cc		 int	 3
  0000f	cc		 int	 3
  00010	cc		 int	 3
__ehhandler$?CreateFromMemoryFile@CGraphicImageTexture@@QAE_NIPBXW4_D3DFORMAT@@K@Z:
  00011	90		 npad	 1
  00012	90		 npad	 1
  00013	8b 54 24 08	 mov	 edx, DWORD PTR [esp+8]
  00017	8d 42 0c	 lea	 eax, DWORD PTR [edx+12]
  0001a	8b 4a b8	 mov	 ecx, DWORD PTR [edx-72]
  0001d	33 c8		 xor	 ecx, eax
  0001f	e8 00 00 00 00	 call	 @__security_check_cookie@4
  00024	8b 4a fc	 mov	 ecx, DWORD PTR [edx-4]
  00027	33 c8		 xor	 ecx, eax
  00029	e8 00 00 00 00	 call	 @__security_check_cookie@4
  0002e	b8 00 00 00 00	 mov	 eax, OFFSET __ehfuncinfo$?CreateFromMemoryFile@CGraphicImageTexture@@QAE_NIPBXW4_D3DFORMAT@@K@Z
  00033	e9 00 00 00 00	 jmp	 ___CxxFrameHandler3
text$x	ENDS
?CreateFromMemoryFile@CGraphicImageTexture@@QAE_NIPBXW4_D3DFORMAT@@K@Z ENDP ; CGraphicImageTexture::CreateFromMemoryFile
; Function compile flags: /Odspy
; File D:\Metin2 Server Files\mainline\SRC_2014\Metin2Client\EterLib\GrpImageTexture.cpp
;	COMDAT ?CreateFromDiskFile@CGraphicImageTexture@@QAE_NPBDW4_D3DFORMAT@@K@Z
_TEXT	SEGMENT
_this$ = -4						; size = 4
_c_szFileName$ = 8					; size = 4
_d3dFmt$ = 12						; size = 4
_dwFilter$ = 16						; size = 4
?CreateFromDiskFile@CGraphicImageTexture@@QAE_NPBDW4_D3DFORMAT@@K@Z PROC ; CGraphicImageTexture::CreateFromDiskFile, COMDAT
; _this$ = ecx

; 311  : {

  00000	55		 push	 ebp
  00001	8b ec		 mov	 ebp, esp
  00003	51		 push	 ecx
  00004	89 4d fc	 mov	 DWORD PTR _this$[ebp], ecx

; 312  : 	Destroy();

  00007	8b 4d fc	 mov	 ecx, DWORD PTR _this$[ebp]
  0000a	e8 00 00 00 00	 call	 ?Destroy@CGraphicImageTexture@@QAEXXZ ; CGraphicImageTexture::Destroy

; 313  : 
; 314  : 	SetFileName(c_szFileName);

  0000f	ff 75 08	 push	 DWORD PTR _c_szFileName$[ebp]
  00012	8b 4d fc	 mov	 ecx, DWORD PTR _this$[ebp]
  00015	e8 00 00 00 00	 call	 ?SetFileName@CGraphicImageTexture@@QAEXPBD@Z ; CGraphicImageTexture::SetFileName

; 315  : 
; 316  : 	m_d3dFmt = d3dFmt;

  0001a	8b 45 fc	 mov	 eax, DWORD PTR _this$[ebp]
  0001d	8b 4d 0c	 mov	 ecx, DWORD PTR _d3dFmt$[ebp]
  00020	89 48 14	 mov	 DWORD PTR [eax+20], ecx

; 317  : 	m_dwFilter = dwFilter;

  00023	8b 45 fc	 mov	 eax, DWORD PTR _this$[ebp]
  00026	8b 4d 10	 mov	 ecx, DWORD PTR _dwFilter$[ebp]
  00029	89 48 18	 mov	 DWORD PTR [eax+24], ecx

; 318  : 	return CreateDeviceObjects();

  0002c	8b 4d fc	 mov	 ecx, DWORD PTR _this$[ebp]
  0002f	e8 00 00 00 00	 call	 ?CreateDeviceObjects@CGraphicImageTexture@@QAE_NXZ ; CGraphicImageTexture::CreateDeviceObjects

; 319  : }

  00034	c9		 leave
  00035	c2 0c 00	 ret	 12			; 0000000cH
?CreateFromDiskFile@CGraphicImageTexture@@QAE_NPBDW4_D3DFORMAT@@K@Z ENDP ; CGraphicImageTexture::CreateFromDiskFile
_TEXT	ENDS
; Function compile flags: /Odspy
; File D:\Metin2 Server Files\mainline\SRC_2014\Metin2Client\EterLib\GrpImageTexture.cpp
;	COMDAT ?CreateFromTexturePointer@CGraphicImageTexture@@QAEXPBVCGraphicTexture@@@Z
_TEXT	SEGMENT
_this$ = -4						; size = 4
_c_pSrcTexture$ = 8					; size = 4
?CreateFromTexturePointer@CGraphicImageTexture@@QAEXPBVCGraphicTexture@@@Z PROC ; CGraphicImageTexture::CreateFromTexturePointer, COMDAT
; _this$ = ecx

; 80   : {

  00000	55		 push	 ebp
  00001	8b ec		 mov	 ebp, esp
  00003	51		 push	 ecx
  00004	89 4d fc	 mov	 DWORD PTR _this$[ebp], ecx

; 81   : 	if (m_lpd3dTexture)

  00007	8b 45 fc	 mov	 eax, DWORD PTR _this$[ebp]
  0000a	83 78 10 00	 cmp	 DWORD PTR [eax+16], 0
  0000e	74 11		 je	 SHORT $LN2@CreateFrom

; 82   : 		m_lpd3dTexture->Release();

  00010	8b 45 fc	 mov	 eax, DWORD PTR _this$[ebp]
  00013	8b 40 10	 mov	 eax, DWORD PTR [eax+16]
  00016	8b 4d fc	 mov	 ecx, DWORD PTR _this$[ebp]
  00019	8b 00		 mov	 eax, DWORD PTR [eax]
  0001b	ff 71 10	 push	 DWORD PTR [ecx+16]
  0001e	ff 50 08	 call	 DWORD PTR [eax+8]
$LN2@CreateFrom:

; 83   : 	
; 84   : 	m_width = c_pSrcTexture->GetWidth();

  00021	8b 4d 08	 mov	 ecx, DWORD PTR _c_pSrcTexture$[ebp]
  00024	e8 00 00 00 00	 call	 ?GetWidth@CGraphicTexture@@QBEHXZ ; CGraphicTexture::GetWidth
  00029	8b 4d fc	 mov	 ecx, DWORD PTR _this$[ebp]
  0002c	89 41 08	 mov	 DWORD PTR [ecx+8], eax

; 85   : 	m_height = c_pSrcTexture->GetHeight();

  0002f	8b 4d 08	 mov	 ecx, DWORD PTR _c_pSrcTexture$[ebp]
  00032	e8 00 00 00 00	 call	 ?GetHeight@CGraphicTexture@@QBEHXZ ; CGraphicTexture::GetHeight
  00037	8b 4d fc	 mov	 ecx, DWORD PTR _this$[ebp]
  0003a	89 41 0c	 mov	 DWORD PTR [ecx+12], eax

; 86   : 	m_lpd3dTexture = c_pSrcTexture->GetD3DTexture();

  0003d	8b 4d 08	 mov	 ecx, DWORD PTR _c_pSrcTexture$[ebp]
  00040	e8 00 00 00 00	 call	 ?GetD3DTexture@CGraphicTexture@@QBEPAUIDirect3DTexture8@@XZ ; CGraphicTexture::GetD3DTexture
  00045	8b 4d fc	 mov	 ecx, DWORD PTR _this$[ebp]
  00048	89 41 10	 mov	 DWORD PTR [ecx+16], eax

; 87   : 	
; 88   : 	if (m_lpd3dTexture)

  0004b	8b 45 fc	 mov	 eax, DWORD PTR _this$[ebp]
  0004e	83 78 10 00	 cmp	 DWORD PTR [eax+16], 0
  00052	74 11		 je	 SHORT $LN3@CreateFrom

; 89   : 		m_lpd3dTexture->AddRef();

  00054	8b 45 fc	 mov	 eax, DWORD PTR _this$[ebp]
  00057	8b 40 10	 mov	 eax, DWORD PTR [eax+16]
  0005a	8b 4d fc	 mov	 ecx, DWORD PTR _this$[ebp]
  0005d	8b 00		 mov	 eax, DWORD PTR [eax]
  0005f	ff 71 10	 push	 DWORD PTR [ecx+16]
  00062	ff 50 04	 call	 DWORD PTR [eax+4]
$LN3@CreateFrom:

; 90   : 
; 91   : 	m_bEmpty = false;

  00065	8b 45 fc	 mov	 eax, DWORD PTR _this$[ebp]
  00068	c6 40 04 00	 mov	 BYTE PTR [eax+4], 0

; 92   : }

  0006c	c9		 leave
  0006d	c2 04 00	 ret	 4
?CreateFromTexturePointer@CGraphicImageTexture@@QAEXPBVCGraphicTexture@@@Z ENDP ; CGraphicImageTexture::CreateFromTexturePointer
_TEXT	ENDS
; Function compile flags: /Odspy
; File D:\Metin2 Server Files\mainline\SRC_2014\Metin2Client\EterLib\GrpImageTexture.cpp
; File C:\Program Files (x86)\Microsoft Visual Studio\2019\Community\VC\Tools\MSVC\14.28.29333\include\xstring
; File D:\Metin2 Server Files\mainline\SRC_2014\Metin2Client\EterLib\GrpImageTexture.cpp
; File D:\Metin2 Server Files\mainline\SRC_2014\Metin2Client\eterBase\Singleton.h
; File D:\Metin2 Server Files\mainline\SRC_2014\Metin2Client\EterLib\GrpImageTexture.cpp
;	COMDAT ?CreateDeviceObjects@CGraphicImageTexture@@QAE_NXZ
_TEXT	SEGMENT
_c_pvMap$2 = -36					; size = 4
$T3 = -32						; size = 4
$T4 = -28						; size = 4
tv164 = -24						; size = 4
$T5 = -19						; size = 1
$T6 = -18						; size = 1
$T7 = -17						; size = 1
_this$ = -16						; size = 4
__$EHRec$ = -12						; size = 12
_mappedFile$8 = 0					; size = 324
__$ArrayPad$ = 324					; size = 4
?CreateDeviceObjects@CGraphicImageTexture@@QAE_NXZ PROC	; CGraphicImageTexture::CreateDeviceObjects, COMDAT
; _this$ = ecx

; 41   : {

  00000	55		 push	 ebp
  00001	8d ac 24 b8 fe
	ff ff		 lea	 ebp, DWORD PTR [esp-328]
  00008	81 ec 48 01 00
	00		 sub	 esp, 328		; 00000148H
  0000e	6a ff		 push	 -1
  00010	68 00 00 00 00	 push	 __ehhandler$?CreateDeviceObjects@CGraphicImageTexture@@QAE_NXZ
  00015	64 a1 00 00 00
	00		 mov	 eax, DWORD PTR fs:0
  0001b	50		 push	 eax
  0001c	83 ec 18	 sub	 esp, 24			; 00000018H
  0001f	a1 00 00 00 00	 mov	 eax, DWORD PTR ___security_cookie
  00024	33 c5		 xor	 eax, ebp
  00026	89 85 44 01 00
	00		 mov	 DWORD PTR __$ArrayPad$[ebp], eax
  0002c	50		 push	 eax
  0002d	8d 45 f4	 lea	 eax, DWORD PTR __$EHRec$[ebp]
  00030	64 a3 00 00 00
	00		 mov	 DWORD PTR fs:0, eax
  00036	89 4d f0	 mov	 DWORD PTR _this$[ebp], ecx
; File C:\Program Files (x86)\Microsoft Visual Studio\2019\Community\VC\Tools\MSVC\14.28.29333\include\xstring

; 3770 :         return _Mypair._Myval2._Mysize;

  00039	8b 45 f0	 mov	 eax, DWORD PTR _this$[ebp]
  0003c	8b 40 2c	 mov	 eax, DWORD PTR [eax+44]
  0003f	89 45 e4	 mov	 DWORD PTR $T4[ebp], eax

; 3848 :         return size() == 0;

  00042	83 7d e4 00	 cmp	 DWORD PTR $T4[ebp], 0
  00046	75 09		 jne	 SHORT $LN10@CreateDevi
  00048	c7 45 e8 01 00
	00 00		 mov	 DWORD PTR tv164[ebp], 1
  0004f	eb 04		 jmp	 SHORT $LN11@CreateDevi
$LN10@CreateDevi:
  00051	83 65 e8 00	 and	 DWORD PTR tv164[ebp], 0
$LN11@CreateDevi:
  00055	8a 45 e8	 mov	 al, BYTE PTR tv164[ebp]
  00058	88 45 ef	 mov	 BYTE PTR $T7[ebp], al
; File D:\Metin2 Server Files\mainline\SRC_2014\Metin2Client\EterLib\GrpImageTexture.cpp

; 45   : 	if (m_stFileName.empty())

  0005b	0f b6 45 ef	 movzx	 eax, BYTE PTR $T7[ebp]
  0005f	85 c0		 test	 eax, eax
  00061	74 3f		 je	 SHORT $LN2@CreateDevi

; 46   : 	{
; 47   : 		//  
; 48   : 		if (FAILED(ms_lpd3dDevice->CreateTexture(m_width, m_height, 1, 0, m_d3dFmt, D3DPOOL_MANAGED, &m_lpd3dTexture)))

  00063	8b 45 f0	 mov	 eax, DWORD PTR _this$[ebp]
  00066	83 c0 10	 add	 eax, 16			; 00000010H
  00069	50		 push	 eax
  0006a	6a 01		 push	 1
  0006c	8b 45 f0	 mov	 eax, DWORD PTR _this$[ebp]
  0006f	ff 70 14	 push	 DWORD PTR [eax+20]
  00072	6a 00		 push	 0
  00074	6a 01		 push	 1
  00076	8b 45 f0	 mov	 eax, DWORD PTR _this$[ebp]
  00079	ff 70 0c	 push	 DWORD PTR [eax+12]
  0007c	8b 45 f0	 mov	 eax, DWORD PTR _this$[ebp]
  0007f	ff 70 08	 push	 DWORD PTR [eax+8]
  00082	a1 00 00 00 00	 mov	 eax, DWORD PTR ?ms_lpd3dDevice@CGraphicBase@@1PAUIDirect3DDevice8@@A ; CGraphicBase::ms_lpd3dDevice
  00087	8b 00		 mov	 eax, DWORD PTR [eax]
  00089	ff 35 00 00 00
	00		 push	 DWORD PTR ?ms_lpd3dDevice@CGraphicBase@@1PAUIDirect3DDevice8@@A ; CGraphicBase::ms_lpd3dDevice
  0008f	ff 50 50	 call	 DWORD PTR [eax+80]
  00092	85 c0		 test	 eax, eax
  00094	7d 07		 jge	 SHORT $LN4@CreateDevi

; 49   : 			return false;

  00096	32 c0		 xor	 al, al
  00098	e9 8e 00 00 00	 jmp	 $LN1@CreateDevi
$LN4@CreateDevi:

; 50   : 	}

  0009d	e9 80 00 00 00	 jmp	 $LN3@CreateDevi
$LN2@CreateDevi:

; 51   : 	else
; 52   : 	{
; 53   : 		CMappedFile	mappedFile;

  000a2	8d 4d 00	 lea	 ecx, DWORD PTR _mappedFile$8[ebp]
  000a5	e8 00 00 00 00	 call	 ??0CMappedFile@@QAE@XZ	; CMappedFile::CMappedFile
  000aa	83 65 fc 00	 and	 DWORD PTR __$EHRec$[ebp+8], 0
; File D:\Metin2 Server Files\mainline\SRC_2014\Metin2Client\eterBase\Singleton.h

; 27   : 		return (*ms_singleton);

  000ae	a1 00 00 00 00	 mov	 eax, DWORD PTR ?ms_singleton@?$CSingleton@VCEterPackManager@@@@0PAVCEterPackManager@@A ; CSingleton<CEterPackManager>::ms_singleton
  000b3	89 45 e0	 mov	 DWORD PTR $T3[ebp], eax
; File D:\Metin2 Server Files\mainline\SRC_2014\Metin2Client\EterLib\GrpImageTexture.cpp

; 56   : 		if (!CEterPackManager::Instance().Get(mappedFile, m_stFileName.c_str(), &c_pvMap))

  000b6	8d 45 dc	 lea	 eax, DWORD PTR _c_pvMap$2[ebp]
  000b9	50		 push	 eax
  000ba	8b 4d f0	 mov	 ecx, DWORD PTR _this$[ebp]
  000bd	83 c1 1c	 add	 ecx, 28			; 0000001cH
  000c0	e8 00 00 00 00	 call	 ?c_str@?$basic_string@DU?$char_traits@D@std@@V?$allocator@D@2@@std@@QBEPBDXZ ; std::basic_string<char,std::char_traits<char>,std::allocator<char> >::c_str
  000c5	50		 push	 eax
  000c6	8d 45 00	 lea	 eax, DWORD PTR _mappedFile$8[ebp]
  000c9	50		 push	 eax
  000ca	8b 4d e0	 mov	 ecx, DWORD PTR $T3[ebp]
  000cd	e8 00 00 00 00	 call	 ?Get@CEterPackManager@@QAE_NAAVCMappedFile@@PBDPAPBX@Z ; CEterPackManager::Get
  000d2	0f b6 c0	 movzx	 eax, al
  000d5	85 c0		 test	 eax, eax
  000d7	75 15		 jne	 SHORT $LN5@CreateDevi

; 57   : 			return false;

  000d9	c6 45 ee 00	 mov	 BYTE PTR $T6[ebp], 0
  000dd	83 4d fc ff	 or	 DWORD PTR __$EHRec$[ebp+8], -1
  000e1	8d 4d 00	 lea	 ecx, DWORD PTR _mappedFile$8[ebp]
  000e4	e8 00 00 00 00	 call	 ??1CMappedFile@@UAE@XZ	; CMappedFile::~CMappedFile
  000e9	8a 45 ee	 mov	 al, BYTE PTR $T6[ebp]
  000ec	eb 3d		 jmp	 SHORT $LN1@CreateDevi
$LN5@CreateDevi:

; 58   : 
; 59   : 		return CreateFromMemoryFile(mappedFile.Size(), c_pvMap, m_d3dFmt, m_dwFilter);

  000ee	8b 45 f0	 mov	 eax, DWORD PTR _this$[ebp]
  000f1	ff 70 18	 push	 DWORD PTR [eax+24]
  000f4	8b 45 f0	 mov	 eax, DWORD PTR _this$[ebp]
  000f7	ff 70 14	 push	 DWORD PTR [eax+20]
  000fa	ff 75 dc	 push	 DWORD PTR _c_pvMap$2[ebp]
  000fd	8d 4d 00	 lea	 ecx, DWORD PTR _mappedFile$8[ebp]
  00100	e8 00 00 00 00	 call	 ?Size@CMappedFile@@QAEKXZ ; CMappedFile::Size
  00105	50		 push	 eax
  00106	8b 4d f0	 mov	 ecx, DWORD PTR _this$[ebp]
  00109	e8 00 00 00 00	 call	 ?CreateFromMemoryFile@CGraphicImageTexture@@QAE_NIPBXW4_D3DFORMAT@@K@Z ; CGraphicImageTexture::CreateFromMemoryFile
  0010e	88 45 ed	 mov	 BYTE PTR $T5[ebp], al
  00111	83 4d fc ff	 or	 DWORD PTR __$EHRec$[ebp+8], -1
  00115	8d 4d 00	 lea	 ecx, DWORD PTR _mappedFile$8[ebp]
  00118	e8 00 00 00 00	 call	 ??1CMappedFile@@UAE@XZ	; CMappedFile::~CMappedFile
  0011d	8a 45 ed	 mov	 al, BYTE PTR $T5[ebp]
  00120	eb 09		 jmp	 SHORT $LN1@CreateDevi
$LN3@CreateDevi:

; 60   : 	}
; 61   : 
; 62   : 	m_bEmpty = false;

  00122	8b 45 f0	 mov	 eax, DWORD PTR _this$[ebp]
  00125	c6 40 04 00	 mov	 BYTE PTR [eax+4], 0

; 63   : 	return true;

  00129	b0 01		 mov	 al, 1
$LN1@CreateDevi:

; 64   : }

  0012b	8b 4d f4	 mov	 ecx, DWORD PTR __$EHRec$[ebp]
  0012e	64 89 0d 00 00
	00 00		 mov	 DWORD PTR fs:0, ecx
  00135	59		 pop	 ecx
  00136	8b 8d 44 01 00
	00		 mov	 ecx, DWORD PTR __$ArrayPad$[ebp]
  0013c	33 cd		 xor	 ecx, ebp
  0013e	e8 00 00 00 00	 call	 @__security_check_cookie@4
  00143	81 c5 48 01 00
	00		 add	 ebp, 328		; 00000148H
  00149	c9		 leave
  0014a	c3		 ret	 0
_TEXT	ENDS
;	COMDAT text$x
text$x	SEGMENT
__unwindfunclet$?CreateDeviceObjects@CGraphicImageTexture@@QAE_NXZ$0:
  00000	8d 4d 00	 lea	 ecx, DWORD PTR _mappedFile$8[ebp]
  00003	e9 00 00 00 00	 jmp	 ??1CMappedFile@@UAE@XZ	; CMappedFile::~CMappedFile
  00008	cc		 int	 3
  00009	cc		 int	 3
  0000a	cc		 int	 3
  0000b	cc		 int	 3
  0000c	cc		 int	 3
__ehhandler$?CreateDeviceObjects@CGraphicImageTexture@@QAE_NXZ:
  0000d	90		 npad	 1
  0000e	90		 npad	 1
  0000f	8b 54 24 08	 mov	 edx, DWORD PTR [esp+8]
  00013	8d 42 0c	 lea	 eax, DWORD PTR [edx+12]
  00016	8b 4a e4	 mov	 ecx, DWORD PTR [edx-28]
  00019	33 c8		 xor	 ecx, eax
  0001b	e8 00 00 00 00	 call	 @__security_check_cookie@4
  00020	8b 8a 50 01 00
	00		 mov	 ecx, DWORD PTR [edx+336]
  00026	33 c8		 xor	 ecx, eax
  00028	e8 00 00 00 00	 call	 @__security_check_cookie@4
  0002d	b8 00 00 00 00	 mov	 eax, OFFSET __ehfuncinfo$?CreateDeviceObjects@CGraphicImageTexture@@QAE_NXZ
  00032	e9 00 00 00 00	 jmp	 ___CxxFrameHandler3
text$x	ENDS
?CreateDeviceObjects@CGraphicImageTexture@@QAE_NXZ ENDP	; CGraphicImageTexture::CreateDeviceObjects
; Function compile flags: /Odspy
; File D:\Metin2 Server Files\mainline\SRC_2014\Metin2Client\EterLib\GrpImageTexture.cpp
;	COMDAT ?Create@CGraphicImageTexture@@QAE_NIIW4_D3DFORMAT@@K@Z
_TEXT	SEGMENT
_this$ = -4						; size = 4
_width$ = 8						; size = 4
_height$ = 12						; size = 4
_d3dFmt$ = 16						; size = 4
_dwFilter$ = 20						; size = 4
?Create@CGraphicImageTexture@@QAE_NIIW4_D3DFORMAT@@K@Z PROC ; CGraphicImageTexture::Create, COMDAT
; _this$ = ecx

; 67   : {

  00000	55		 push	 ebp
  00001	8b ec		 mov	 ebp, esp
  00003	51		 push	 ecx
  00004	89 4d fc	 mov	 DWORD PTR _this$[ebp], ecx

; 68   : 	assert(ms_lpd3dDevice != NULL);
; 69   : 	Destroy();

  00007	8b 4d fc	 mov	 ecx, DWORD PTR _this$[ebp]
  0000a	e8 00 00 00 00	 call	 ?Destroy@CGraphicImageTexture@@QAEXXZ ; CGraphicImageTexture::Destroy

; 70   : 
; 71   : 	m_width = width;

  0000f	8b 45 fc	 mov	 eax, DWORD PTR _this$[ebp]
  00012	8b 4d 08	 mov	 ecx, DWORD PTR _width$[ebp]
  00015	89 48 08	 mov	 DWORD PTR [eax+8], ecx

; 72   : 	m_height = height;

  00018	8b 45 fc	 mov	 eax, DWORD PTR _this$[ebp]
  0001b	8b 4d 0c	 mov	 ecx, DWORD PTR _height$[ebp]
  0001e	89 48 0c	 mov	 DWORD PTR [eax+12], ecx

; 73   : 	m_d3dFmt = d3dFmt;

  00021	8b 45 fc	 mov	 eax, DWORD PTR _this$[ebp]
  00024	8b 4d 10	 mov	 ecx, DWORD PTR _d3dFmt$[ebp]
  00027	89 48 14	 mov	 DWORD PTR [eax+20], ecx

; 74   : 	m_dwFilter = dwFilter;

  0002a	8b 45 fc	 mov	 eax, DWORD PTR _this$[ebp]
  0002d	8b 4d 14	 mov	 ecx, DWORD PTR _dwFilter$[ebp]
  00030	89 48 18	 mov	 DWORD PTR [eax+24], ecx

; 75   : 
; 76   : 	return CreateDeviceObjects();

  00033	8b 4d fc	 mov	 ecx, DWORD PTR _this$[ebp]
  00036	e8 00 00 00 00	 call	 ?CreateDeviceObjects@CGraphicImageTexture@@QAE_NXZ ; CGraphicImageTexture::CreateDeviceObjects

; 77   : }

  0003b	c9		 leave
  0003c	c2 10 00	 ret	 16			; 00000010H
?Create@CGraphicImageTexture@@QAE_NIIW4_D3DFORMAT@@K@Z ENDP ; CGraphicImageTexture::Create
_TEXT	ENDS
; Function compile flags: /Odspy
; File D:\Metin2 Server Files\mainline\SRC_2014\Metin2Client\EterLib\GrpImageTexture.cpp
;	COMDAT ?Destroy@CGraphicImageTexture@@QAEXXZ
_TEXT	SEGMENT
_this$ = -4						; size = 4
?Destroy@CGraphicImageTexture@@QAEXXZ PROC		; CGraphicImageTexture::Destroy, COMDAT
; _this$ = ecx

; 34   : {

  00000	55		 push	 ebp
  00001	8b ec		 mov	 ebp, esp
  00003	51		 push	 ecx
  00004	89 4d fc	 mov	 DWORD PTR _this$[ebp], ecx

; 35   : 	CGraphicTexture::Destroy();

  00007	8b 4d fc	 mov	 ecx, DWORD PTR _this$[ebp]
  0000a	e8 00 00 00 00	 call	 ?Destroy@CGraphicTexture@@IAEXXZ ; CGraphicTexture::Destroy

; 36   : 
; 37   : 	Initialize();

  0000f	8b 4d fc	 mov	 ecx, DWORD PTR _this$[ebp]
  00012	e8 00 00 00 00	 call	 ?Initialize@CGraphicImageTexture@@IAEXXZ ; CGraphicImageTexture::Initialize

; 38   : }

  00017	c9		 leave
  00018	c3		 ret	 0
?Destroy@CGraphicImageTexture@@QAEXXZ ENDP		; CGraphicImageTexture::Destroy
_TEXT	ENDS
; Function compile flags: /Odspy
; File D:\Metin2 Server Files\mainline\SRC_2014\Metin2Client\EterLib\GrpImageTexture.cpp
; File C:\Program Files (x86)\Microsoft Visual Studio\2019\Community\VC\Tools\MSVC\14.28.29333\include\xstring
; File D:\Metin2 Server Files\mainline\SRC_2014\Metin2Client\EterLib\GrpImageTexture.cpp
;	COMDAT ??1CGraphicImageTexture@@UAE@XZ
_TEXT	SEGMENT
_this$ = -16						; size = 4
__$EHRec$ = -12						; size = 12
??1CGraphicImageTexture@@UAE@XZ PROC			; CGraphicImageTexture::~CGraphicImageTexture, COMDAT
; _this$ = ecx

; 327  : {

  00000	55		 push	 ebp
  00001	8b ec		 mov	 ebp, esp
  00003	6a ff		 push	 -1
  00005	68 00 00 00 00	 push	 __ehhandler$??1CGraphicImageTexture@@UAE@XZ
  0000a	64 a1 00 00 00
	00		 mov	 eax, DWORD PTR fs:0
  00010	50		 push	 eax
  00011	51		 push	 ecx
  00012	a1 00 00 00 00	 mov	 eax, DWORD PTR ___security_cookie
  00017	33 c5		 xor	 eax, ebp
  00019	50		 push	 eax
  0001a	8d 45 f4	 lea	 eax, DWORD PTR __$EHRec$[ebp]
  0001d	64 a3 00 00 00
	00		 mov	 DWORD PTR fs:0, eax
  00023	89 4d f0	 mov	 DWORD PTR _this$[ebp], ecx
  00026	8b 45 f0	 mov	 eax, DWORD PTR _this$[ebp]
  00029	c7 00 00 00 00
	00		 mov	 DWORD PTR [eax], OFFSET ??_7CGraphicImageTexture@@6B@

; 328  : 	Destroy();

  0002f	8b 4d f0	 mov	 ecx, DWORD PTR _this$[ebp]
  00032	e8 00 00 00 00	 call	 ?Destroy@CGraphicImageTexture@@QAEXXZ ; CGraphicImageTexture::Destroy

; 329  : }

  00037	8b 4d f0	 mov	 ecx, DWORD PTR _this$[ebp]
  0003a	83 c1 1c	 add	 ecx, 28			; 0000001cH
; File C:\Program Files (x86)\Microsoft Visual Studio\2019\Community\VC\Tools\MSVC\14.28.29333\include\xstring

; 2801 :         _Tidy_deallocate();

  0003d	e8 00 00 00 00	 call	 ?_Tidy_deallocate@?$basic_string@DU?$char_traits@D@std@@V?$allocator@D@2@@std@@AAEXXZ ; std::basic_string<char,std::char_traits<char>,std::allocator<char> >::_Tidy_deallocate
; File D:\Metin2 Server Files\mainline\SRC_2014\Metin2Client\EterLib\GrpImageTexture.cpp

; 329  : }

  00042	8b 4d f0	 mov	 ecx, DWORD PTR _this$[ebp]
  00045	e8 00 00 00 00	 call	 ??1CGraphicTexture@@MAE@XZ ; CGraphicTexture::~CGraphicTexture
  0004a	8b 4d f4	 mov	 ecx, DWORD PTR __$EHRec$[ebp]
  0004d	64 89 0d 00 00
	00 00		 mov	 DWORD PTR fs:0, ecx
  00054	59		 pop	 ecx
  00055	c9		 leave
  00056	c3		 ret	 0
  00057	cc		 int	 3
  00058	cc		 int	 3
  00059	cc		 int	 3
  0005a	cc		 int	 3
  0005b	cc		 int	 3
_TEXT	ENDS
;	COMDAT text$x
text$x	SEGMENT
__ehhandler$??1CGraphicImageTexture@@UAE@XZ:
  00000	90		 npad	 1
  00001	90		 npad	 1
  00002	8b 54 24 08	 mov	 edx, DWORD PTR [esp+8]
  00006	8d 42 0c	 lea	 eax, DWORD PTR [edx+12]
  00009	8b 4a f8	 mov	 ecx, DWORD PTR [edx-8]
  0000c	33 c8		 xor	 ecx, eax
  0000e	e8 00 00 00 00	 call	 @__security_check_cookie@4
  00013	b8 00 00 00 00	 mov	 eax, OFFSET __ehfuncinfo$??1CGraphicImageTexture@@UAE@XZ
  00018	e9 00 00 00 00	 jmp	 ___CxxFrameHandler3
text$x	ENDS
??1CGraphicImageTexture@@UAE@XZ ENDP			; CGraphicImageTexture::~CGraphicImageTexture
; Function compile flags: /Odspy
; File D:\Metin2 Server Files\mainline\SRC_2014\Metin2Client\EterLib\GrpImageTexture.cpp
;	COMDAT ??0CGraphicImageTexture@@QAE@XZ
_TEXT	SEGMENT
_this$ = -16						; size = 4
__$EHRec$ = -12						; size = 12
??0CGraphicImageTexture@@QAE@XZ PROC			; CGraphicImageTexture::CGraphicImageTexture, COMDAT
; _this$ = ecx

; 322  : {

  00000	55		 push	 ebp
  00001	8b ec		 mov	 ebp, esp
  00003	6a ff		 push	 -1
  00005	68 00 00 00 00	 push	 __ehhandler$??0CGraphicImageTexture@@QAE@XZ
  0000a	64 a1 00 00 00
	00		 mov	 eax, DWORD PTR fs:0
  00010	50		 push	 eax
  00011	51		 push	 ecx
  00012	a1 00 00 00 00	 mov	 eax, DWORD PTR ___security_cookie
  00017	33 c5		 xor	 eax, ebp
  00019	50		 push	 eax
  0001a	8d 45 f4	 lea	 eax, DWORD PTR __$EHRec$[ebp]
  0001d	64 a3 00 00 00
	00		 mov	 DWORD PTR fs:0, eax
  00023	89 4d f0	 mov	 DWORD PTR _this$[ebp], ecx
  00026	8b 4d f0	 mov	 ecx, DWORD PTR _this$[ebp]
  00029	e8 00 00 00 00	 call	 ??0CGraphicTexture@@IAE@XZ ; CGraphicTexture::CGraphicTexture
  0002e	83 65 fc 00	 and	 DWORD PTR __$EHRec$[ebp+8], 0
  00032	8b 45 f0	 mov	 eax, DWORD PTR _this$[ebp]
  00035	c7 00 00 00 00
	00		 mov	 DWORD PTR [eax], OFFSET ??_7CGraphicImageTexture@@6B@
  0003b	8b 4d f0	 mov	 ecx, DWORD PTR _this$[ebp]
  0003e	83 c1 1c	 add	 ecx, 28			; 0000001cH
  00041	e8 00 00 00 00	 call	 ??0?$basic_string@DU?$char_traits@D@std@@V?$allocator@D@2@@std@@QAE@XZ ; std::basic_string<char,std::char_traits<char>,std::allocator<char> >::basic_string<char,std::char_traits<char>,std::allocator<char> >
  00046	c6 45 fc 01	 mov	 BYTE PTR __$EHRec$[ebp+8], 1

; 323  : 	Initialize();

  0004a	8b 4d f0	 mov	 ecx, DWORD PTR _this$[ebp]
  0004d	e8 00 00 00 00	 call	 ?Initialize@CGraphicImageTexture@@IAEXXZ ; CGraphicImageTexture::Initialize

; 324  : }

  00052	83 4d fc ff	 or	 DWORD PTR __$EHRec$[ebp+8], -1
  00056	8b 45 f0	 mov	 eax, DWORD PTR _this$[ebp]
  00059	8b 4d f4	 mov	 ecx, DWORD PTR __$EHRec$[ebp]
  0005c	64 89 0d 00 00
	00 00		 mov	 DWORD PTR fs:0, ecx
  00063	59		 pop	 ecx
  00064	c9		 leave
  00065	c3		 ret	 0
_TEXT	ENDS
;	COMDAT text$x
text$x	SEGMENT
__unwindfunclet$??0CGraphicImageTexture@@QAE@XZ$0:
  00000	8b 4d f0	 mov	 ecx, DWORD PTR _this$[ebp]
  00003	e9 00 00 00 00	 jmp	 ??1CGraphicTexture@@MAE@XZ ; CGraphicTexture::~CGraphicTexture
__unwindfunclet$??0CGraphicImageTexture@@QAE@XZ$1:
  00008	8b 4d f0	 mov	 ecx, DWORD PTR _this$[ebp]
  0000b	83 c1 1c	 add	 ecx, 28			; 0000001cH
  0000e	e9 00 00 00 00	 jmp	 ??1?$basic_string@DU?$char_traits@D@std@@V?$allocator@D@2@@std@@QAE@XZ ; std::basic_string<char,std::char_traits<char>,std::allocator<char> >::~basic_string<char,std::char_traits<char>,std::allocator<char> >
  00013	cc		 int	 3
  00014	cc		 int	 3
  00015	cc		 int	 3
  00016	cc		 int	 3
  00017	cc		 int	 3
__ehhandler$??0CGraphicImageTexture@@QAE@XZ:
  00018	90		 npad	 1
  00019	90		 npad	 1
  0001a	8b 54 24 08	 mov	 edx, DWORD PTR [esp+8]
  0001e	8d 42 0c	 lea	 eax, DWORD PTR [edx+12]
  00021	8b 4a f8	 mov	 ecx, DWORD PTR [edx-8]
  00024	33 c8		 xor	 ecx, eax
  00026	e8 00 00 00 00	 call	 @__security_check_cookie@4
  0002b	b8 00 00 00 00	 mov	 eax, OFFSET __ehfuncinfo$??0CGraphicImageTexture@@QAE@XZ
  00030	e9 00 00 00 00	 jmp	 ___CxxFrameHandler3
text$x	ENDS
??0CGraphicImageTexture@@QAE@XZ ENDP			; CGraphicImageTexture::CGraphicImageTexture
; Function compile flags: /Odspy
; File C:\Program Files (x86)\Microsoft Visual Studio\2019\Community\VC\Tools\MSVC\14.28.29333\include\xmemory
;	COMDAT ??$_Allocate_manually_vector_aligned@U_Default_allocate_traits@std@@@std@@YAPAXI@Z
_TEXT	SEGMENT
__Ptr$ = -12						; size = 4
__Block_size$ = -8					; size = 4
__Ptr_container$ = -4					; size = 4
__Bytes$ = 8						; size = 4
??$_Allocate_manually_vector_aligned@U_Default_allocate_traits@std@@@std@@YAPAXI@Z PROC ; std::_Allocate_manually_vector_aligned<std::_Default_allocate_traits>, COMDAT

; 113  : __declspec(allocator) void* _Allocate_manually_vector_aligned(const size_t _Bytes) {

  00000	55		 push	 ebp
  00001	8b ec		 mov	 ebp, esp
  00003	83 ec 0c	 sub	 esp, 12			; 0000000cH

; 114  :     // allocate _Bytes manually aligned to at least _Big_allocation_alignment
; 115  :     const size_t _Block_size = _Non_user_size + _Bytes;

  00006	8b 45 08	 mov	 eax, DWORD PTR __Bytes$[ebp]
  00009	83 c0 23	 add	 eax, 35			; 00000023H
  0000c	89 45 f8	 mov	 DWORD PTR __Block_size$[ebp], eax

; 116  :     if (_Block_size <= _Bytes) {

  0000f	8b 45 f8	 mov	 eax, DWORD PTR __Block_size$[ebp]
  00012	3b 45 08	 cmp	 eax, DWORD PTR __Bytes$[ebp]
  00015	77 05		 ja	 SHORT $LN12@Allocate_m

; 117  :         _Throw_bad_array_new_length(); // add overflow

  00017	e8 00 00 00 00	 call	 ?_Throw_bad_array_new_length@std@@YAXXZ ; std::_Throw_bad_array_new_length
$LN12@Allocate_m:

; 77   :         return ::operator new(_Bytes);

  0001c	ff 75 f8	 push	 DWORD PTR __Block_size$[ebp]
  0001f	e8 00 00 00 00	 call	 ??2@YAPAXI@Z		; operator new
  00024	59		 pop	 ecx

; 118  :     }
; 119  : 
; 120  :     const uintptr_t _Ptr_container = reinterpret_cast<uintptr_t>(_Traits::_Allocate(_Block_size));

  00025	89 45 fc	 mov	 DWORD PTR __Ptr_container$[ebp], eax
$LN4@Allocate_m:

; 121  :     _STL_VERIFY(_Ptr_container != 0, "invalid argument"); // validate even in release since we're doing p[-1]

  00028	83 7d fc 00	 cmp	 DWORD PTR __Ptr_container$[ebp], 0
  0002c	74 02		 je	 SHORT $LN7@Allocate_m
  0002e	eb 09		 jmp	 SHORT $LN2@Allocate_m
$LN7@Allocate_m:
  00030	e8 00 00 00 00	 call	 __invalid_parameter_noinfo_noreturn
  00035	33 c0		 xor	 eax, eax
  00037	75 f7		 jne	 SHORT $LN7@Allocate_m
$LN2@Allocate_m:
  00039	33 c0		 xor	 eax, eax
  0003b	75 eb		 jne	 SHORT $LN4@Allocate_m

; 122  :     void* const _Ptr = reinterpret_cast<void*>((_Ptr_container + _Non_user_size) & ~(_Big_allocation_alignment - 1));

  0003d	8b 45 fc	 mov	 eax, DWORD PTR __Ptr_container$[ebp]
  00040	83 c0 23	 add	 eax, 35			; 00000023H
  00043	83 e0 e0	 and	 eax, -32		; ffffffe0H
  00046	89 45 f4	 mov	 DWORD PTR __Ptr$[ebp], eax

; 123  :     static_cast<uintptr_t*>(_Ptr)[-1] = _Ptr_container;

  00049	6a 04		 push	 4
  0004b	58		 pop	 eax
  0004c	6b c0 ff	 imul	 eax, eax, -1
  0004f	8b 4d f4	 mov	 ecx, DWORD PTR __Ptr$[ebp]
  00052	8b 55 fc	 mov	 edx, DWORD PTR __Ptr_container$[ebp]
  00055	89 14 01	 mov	 DWORD PTR [ecx+eax], edx

; 124  : 
; 125  : #ifdef _DEBUG
; 126  :     static_cast<uintptr_t*>(_Ptr)[-2] = _Big_allocation_sentinel;
; 127  : #endif // _DEBUG
; 128  :     return _Ptr;

  00058	8b 45 f4	 mov	 eax, DWORD PTR __Ptr$[ebp]
$LN11@Allocate_m:

; 129  : }

  0005b	c9		 leave
  0005c	c3		 ret	 0
??$_Allocate_manually_vector_aligned@U_Default_allocate_traits@std@@@std@@YAPAXI@Z ENDP ; std::_Allocate_manually_vector_aligned<std::_Default_allocate_traits>
_TEXT	ENDS
; Function compile flags: /Odspy
; File C:\Program Files (x86)\Microsoft Visual Studio\2019\Community\VC\Tools\MSVC\14.28.29333\include\xmemory
;	COMDAT ??$_Allocate@$07U_Default_allocate_traits@std@@$0A@@std@@YAPAXI@Z
_TEXT	SEGMENT
__Bytes$ = 8						; size = 4
??$_Allocate@$07U_Default_allocate_traits@std@@$0A@@std@@YAPAXI@Z PROC ; std::_Allocate<8,std::_Default_allocate_traits,0>, COMDAT

; 197  : __declspec(allocator) void* _Allocate(const size_t _Bytes) {

  00000	55		 push	 ebp
  00001	8b ec		 mov	 ebp, esp

; 198  :     // allocate _Bytes when !_HAS_ALIGNED_NEW || _Align <= __STDCPP_DEFAULT_NEW_ALIGNMENT__
; 199  : #if defined(_M_IX86) || defined(_M_X64)
; 200  :     if (_Bytes >= _Big_allocation_threshold) { // boost the alignment of big allocations to help autovectorization

  00003	81 7d 08 00 10
	00 00		 cmp	 DWORD PTR __Bytes$[ebp], 4096 ; 00001000H
  0000a	72 0b		 jb	 SHORT $LN2@Allocate

; 201  :         return _Allocate_manually_vector_aligned<_Traits>(_Bytes);

  0000c	ff 75 08	 push	 DWORD PTR __Bytes$[ebp]
  0000f	e8 00 00 00 00	 call	 ??$_Allocate_manually_vector_aligned@U_Default_allocate_traits@std@@@std@@YAPAXI@Z ; std::_Allocate_manually_vector_aligned<std::_Default_allocate_traits>
  00014	59		 pop	 ecx
  00015	eb 13		 jmp	 SHORT $LN1@Allocate
$LN2@Allocate:

; 202  :     }
; 203  : #endif // defined(_M_IX86) || defined(_M_X64)
; 204  : 
; 205  :     if (_Bytes != 0) {

  00017	83 7d 08 00	 cmp	 DWORD PTR __Bytes$[ebp], 0
  0001b	74 0b		 je	 SHORT $LN3@Allocate

; 77   :         return ::operator new(_Bytes);

  0001d	ff 75 08	 push	 DWORD PTR __Bytes$[ebp]
  00020	e8 00 00 00 00	 call	 ??2@YAPAXI@Z		; operator new
  00025	59		 pop	 ecx

; 206  :         return _Traits::_Allocate(_Bytes);

  00026	eb 02		 jmp	 SHORT $LN1@Allocate
$LN3@Allocate:

; 207  :     }
; 208  : 
; 209  :     return nullptr;

  00028	33 c0		 xor	 eax, eax
$LN1@Allocate:

; 210  : }

  0002a	5d		 pop	 ebp
  0002b	c3		 ret	 0
??$_Allocate@$07U_Default_allocate_traits@std@@$0A@@std@@YAPAXI@Z ENDP ; std::_Allocate<8,std::_Default_allocate_traits,0>
_TEXT	ENDS
; Function compile flags: /Odspy
; File C:\Program Files (x86)\Microsoft Visual Studio\2019\Community\VC\Tools\MSVC\14.28.29333\include\xmemory
;	COMDAT ??$_Deallocate@$07$0A@@std@@YAXPAXI@Z
_TEXT	SEGMENT
__$EHRec$ = -12						; size = 12
__Ptr$ = 8						; size = 4
__Bytes$ = 12						; size = 4
??$_Deallocate@$07$0A@@std@@YAXPAXI@Z PROC		; std::_Deallocate<8,0>, COMDAT

; 213  : void _Deallocate(void* _Ptr, size_t _Bytes) noexcept {

  00000	55		 push	 ebp
  00001	8b ec		 mov	 ebp, esp
  00003	6a ff		 push	 -1
  00005	68 00 00 00 00	 push	 __ehhandler$??$_Deallocate@$07$0A@@std@@YAXPAXI@Z
  0000a	64 a1 00 00 00
	00		 mov	 eax, DWORD PTR fs:0
  00010	50		 push	 eax
  00011	a1 00 00 00 00	 mov	 eax, DWORD PTR ___security_cookie
  00016	33 c5		 xor	 eax, ebp
  00018	50		 push	 eax
  00019	8d 45 f4	 lea	 eax, DWORD PTR __$EHRec$[ebp]
  0001c	64 a3 00 00 00
	00		 mov	 DWORD PTR fs:0, eax

; 214  :     // deallocate storage allocated by _Allocate when !_HAS_ALIGNED_NEW || _Align <= __STDCPP_DEFAULT_NEW_ALIGNMENT__
; 215  : #if defined(_M_IX86) || defined(_M_X64)
; 216  :     if (_Bytes >= _Big_allocation_threshold) { // boost the alignment of big allocations to help autovectorization

  00022	81 7d 0c 00 10
	00 00		 cmp	 DWORD PTR __Bytes$[ebp], 4096 ; 00001000H
  00029	72 0f		 jb	 SHORT $LN2@Deallocate

; 217  :         _Adjust_manually_vector_aligned(_Ptr, _Bytes);

  0002b	8d 45 0c	 lea	 eax, DWORD PTR __Bytes$[ebp]
  0002e	50		 push	 eax
  0002f	8d 45 08	 lea	 eax, DWORD PTR __Ptr$[ebp]
  00032	50		 push	 eax
  00033	e8 00 00 00 00	 call	 ?_Adjust_manually_vector_aligned@std@@YAXAAPAXAAI@Z ; std::_Adjust_manually_vector_aligned
  00038	59		 pop	 ecx
  00039	59		 pop	 ecx
$LN2@Deallocate:

; 218  :     }
; 219  : #endif // defined(_M_IX86) || defined(_M_X64)
; 220  : 
; 221  :     ::operator delete(_Ptr, _Bytes);

  0003a	ff 75 0c	 push	 DWORD PTR __Bytes$[ebp]
  0003d	ff 75 08	 push	 DWORD PTR __Ptr$[ebp]
  00040	e8 00 00 00 00	 call	 ??3@YAXPAXI@Z		; operator delete
  00045	59		 pop	 ecx
  00046	59		 pop	 ecx

; 222  : }

  00047	8b 4d f4	 mov	 ecx, DWORD PTR __$EHRec$[ebp]
  0004a	64 89 0d 00 00
	00 00		 mov	 DWORD PTR fs:0, ecx
  00051	59		 pop	 ecx
  00052	c9		 leave
  00053	c3		 ret	 0
  00054	cc		 int	 3
  00055	cc		 int	 3
  00056	cc		 int	 3
  00057	cc		 int	 3
  00058	cc		 int	 3
_TEXT	ENDS
;	COMDAT text$x
text$x	SEGMENT
__ehhandler$??$_Deallocate@$07$0A@@std@@YAXPAXI@Z:
  00000	90		 npad	 1
  00001	90		 npad	 1
  00002	8b 54 24 08	 mov	 edx, DWORD PTR [esp+8]
  00006	8d 42 0c	 lea	 eax, DWORD PTR [edx+12]
  00009	8b 4a fc	 mov	 ecx, DWORD PTR [edx-4]
  0000c	33 c8		 xor	 ecx, eax
  0000e	e8 00 00 00 00	 call	 @__security_check_cookie@4
  00013	b8 00 00 00 00	 mov	 eax, OFFSET __ehfuncinfo$??$_Deallocate@$07$0A@@std@@YAXPAXI@Z
  00018	e9 00 00 00 00	 jmp	 ___CxxFrameHandler3
text$x	ENDS
??$_Deallocate@$07$0A@@std@@YAXPAXI@Z ENDP		; std::_Deallocate<8,0>
; Function compile flags: /Odspy
; File C:\Program Files (x86)\Microsoft Visual Studio\2019\Community\VC\Tools\MSVC\14.28.29333\include\xmemory
; File C:\Program Files (x86)\Microsoft Visual Studio\2019\Community\VC\Tools\MSVC\14.28.29333\include\xstddef
; File C:\Program Files (x86)\Microsoft Visual Studio\2019\Community\VC\Tools\MSVC\14.28.29333\include\vcruntime_new.h
; File C:\Program Files (x86)\Microsoft Visual Studio\2019\Community\VC\Tools\MSVC\14.28.29333\include\type_traits
; File C:\Program Files (x86)\Microsoft Visual Studio\2019\Community\VC\Tools\MSVC\14.28.29333\include\xmemory
;	COMDAT ??$_Construct_in_place@PADABQAD@std@@YAXAAPADABQAD@Z
_TEXT	SEGMENT
$T1 = -12						; size = 4
$T2 = -8						; size = 4
$T3 = -4						; size = 4
__Obj$ = 8						; size = 4
_<_Args_0>$ = 12					; size = 4
??$_Construct_in_place@PADABQAD@std@@YAXAAPADABQAD@Z PROC ; std::_Construct_in_place<char *,char * const &>, COMDAT

; 228  : void _Construct_in_place(_Ty& _Obj, _Types&&... _Args) noexcept(is_nothrow_constructible_v<_Ty, _Types...>) {

  00000	55		 push	 ebp
  00001	8b ec		 mov	 ebp, esp
  00003	83 ec 0c	 sub	 esp, 12			; 0000000cH
; File C:\Program Files (x86)\Microsoft Visual Studio\2019\Community\VC\Tools\MSVC\14.28.29333\include\xstddef

; 275  :     return __builtin_addressof(_Val);

  00006	8b 45 08	 mov	 eax, DWORD PTR __Obj$[ebp]
  00009	89 45 fc	 mov	 DWORD PTR $T3[ebp], eax
; File C:\Program Files (x86)\Microsoft Visual Studio\2019\Community\VC\Tools\MSVC\14.28.29333\include\vcruntime_new.h

; 169  :         return _Where;

  0000c	8b 45 fc	 mov	 eax, DWORD PTR $T3[ebp]
  0000f	89 45 f8	 mov	 DWORD PTR $T2[ebp], eax
; File C:\Program Files (x86)\Microsoft Visual Studio\2019\Community\VC\Tools\MSVC\14.28.29333\include\type_traits

; 1443 :     return static_cast<_Ty&&>(_Arg);

  00012	8b 45 0c	 mov	 eax, DWORD PTR _<_Args_0>$[ebp]
  00015	89 45 f4	 mov	 DWORD PTR $T1[ebp], eax
; File C:\Program Files (x86)\Microsoft Visual Studio\2019\Community\VC\Tools\MSVC\14.28.29333\include\xmemory

; 229  :     ::new (const_cast<void*>(static_cast<const volatile void*>(_STD addressof(_Obj))))

  00018	8b 45 f8	 mov	 eax, DWORD PTR $T2[ebp]
  0001b	8b 4d f4	 mov	 ecx, DWORD PTR $T1[ebp]
  0001e	8b 09		 mov	 ecx, DWORD PTR [ecx]
  00020	89 08		 mov	 DWORD PTR [eax], ecx

; 230  :         _Ty(_STD forward<_Types>(_Args)...);
; 231  : }

  00022	c9		 leave
  00023	c3		 ret	 0
??$_Construct_in_place@PADABQAD@std@@YAXAAPADABQAD@Z ENDP ; std::_Construct_in_place<char *,char * const &>
_TEXT	ENDS
; Function compile flags: /Odspy
; File C:\Program Files (x86)\Microsoft Visual Studio\2019\Community\VC\Tools\MSVC\14.28.29333\include\xstring
; File C:\Program Files (x86)\Microsoft Visual Studio\2019\Community\VC\Tools\MSVC\14.28.29333\include\xmemory
; File C:\Program Files (x86)\Microsoft Visual Studio\2019\Community\VC\Tools\MSVC\14.28.29333\include\xstring
; File C:\Program Files (x86)\Microsoft Visual Studio\2019\Community\VC\Tools\MSVC\14.28.29333\include\xmemory
; File C:\Program Files (x86)\Microsoft Visual Studio\2019\Community\VC\Tools\MSVC\14.28.29333\include\xstring
; File C:\Program Files (x86)\Microsoft Visual Studio\2019\Community\VC\Tools\MSVC\14.28.29333\include\xmemory
; File C:\Program Files (x86)\Microsoft Visual Studio\2019\Community\VC\Tools\MSVC\14.28.29333\include\xstring
; File C:\Program Files (x86)\Microsoft Visual Studio\2019\Community\VC\Tools\MSVC\14.28.29333\include\xstddef
; File C:\Program Files (x86)\Microsoft Visual Studio\2019\Community\VC\Tools\MSVC\14.28.29333\include\xstring
; File C:\Program Files (x86)\Microsoft Visual Studio\2019\Community\VC\Tools\MSVC\14.28.29333\include\xmemory
; File C:\Program Files (x86)\Microsoft Visual Studio\2019\Community\VC\Tools\MSVC\14.28.29333\include\xstring
;	COMDAT ??$_Reallocate_for@V<lambda_9366063389c5f42a00a5088cf24e69de>@@PBD@?$basic_string@DU?$char_traits@D@std@@V?$allocator@D@2@@std@@AAEAAV01@IV<lambda_9366063389c5f42a00a5088cf24e69de>@@PBD@Z
_TEXT	SEGMENT
__Al$ = -40						; size = 4
__Ptr$ = -36						; size = 4
__Ptr$ = -32						; size = 4
$T1 = -28						; size = 4
__Old_capacity$ = -24					; size = 4
$T2 = -20						; size = 4
__New_capacity$ = -16					; size = 4
__New_ptr$ = -12					; size = 4
_this$ = -8						; size = 4
__Overflow_is_possible$3 = -2				; size = 1
$T4 = -1						; size = 1
__New_size$ = 8						; size = 4
__Fn$ = 12						; size = 1
_<_Args_0>$ = 16					; size = 4
??$_Reallocate_for@V<lambda_9366063389c5f42a00a5088cf24e69de>@@PBD@?$basic_string@DU?$char_traits@D@std@@V?$allocator@D@2@@std@@AAEAAV01@IV<lambda_9366063389c5f42a00a5088cf24e69de>@@PBD@Z PROC ; std::basic_string<char,std::char_traits<char>,std::allocator<char> >::_Reallocate_for<<lambda_9366063389c5f42a00a5088cf24e69de>,char const *>, COMDAT
; _this$ = ecx

; 4302 :     basic_string& _Reallocate_for(const size_type _New_size, _Fty _Fn, _ArgTys... _Args) {

  00000	55		 push	 ebp
  00001	8b ec		 mov	 ebp, esp
  00003	83 ec 28	 sub	 esp, 40			; 00000028H
  00006	89 4d f8	 mov	 DWORD PTR _this$[ebp], ecx

; 4303 :         // reallocate to store exactly _New_size elements, new buffer prepared by
; 4304 :         // _Fn(_New_ptr, _New_size, _Args...)
; 4305 :         if (_New_size > max_size()) {

  00009	8b 4d f8	 mov	 ecx, DWORD PTR _this$[ebp]
  0000c	e8 00 00 00 00	 call	 ?max_size@?$basic_string@DU?$char_traits@D@std@@V?$allocator@D@2@@std@@QBEIXZ ; std::basic_string<char,std::char_traits<char>,std::allocator<char> >::max_size
  00011	39 45 08	 cmp	 DWORD PTR __New_size$[ebp], eax
  00014	76 05		 jbe	 SHORT $LN2@Reallocate

; 4306 :             _Xlen_string(); // result too long

  00016	e8 00 00 00 00	 call	 ?_Xlen_string@std@@YAXXZ ; std::_Xlen_string
$LN2@Reallocate:

; 4307 :         }
; 4308 : 
; 4309 :         const size_type _Old_capacity = _Mypair._Myval2._Myres;

  0001b	8b 45 f8	 mov	 eax, DWORD PTR _this$[ebp]
  0001e	8b 40 14	 mov	 eax, DWORD PTR [eax+20]
  00021	89 45 e8	 mov	 DWORD PTR __Old_capacity$[ebp], eax

; 4310 :         const size_type _New_capacity = _Calculate_growth(_New_size);

  00024	ff 75 08	 push	 DWORD PTR __New_size$[ebp]
  00027	8b 4d f8	 mov	 ecx, DWORD PTR _this$[ebp]
  0002a	e8 00 00 00 00	 call	 ?_Calculate_growth@?$basic_string@DU?$char_traits@D@std@@V?$allocator@D@2@@std@@ABEII@Z ; std::basic_string<char,std::char_traits<char>,std::allocator<char> >::_Calculate_growth
  0002f	89 45 f0	 mov	 DWORD PTR __New_capacity$[ebp], eax

; 4409 :         return _Mypair._Get_first();

  00032	8b 45 f8	 mov	 eax, DWORD PTR _this$[ebp]
; File C:\Program Files (x86)\Microsoft Visual Studio\2019\Community\VC\Tools\MSVC\14.28.29333\include\xmemory

; 1347 :         return *this;

  00035	89 45 e4	 mov	 DWORD PTR $T1[ebp], eax
; File C:\Program Files (x86)\Microsoft Visual Studio\2019\Community\VC\Tools\MSVC\14.28.29333\include\xstring

; 4409 :         return _Mypair._Get_first();

  00038	8b 45 e4	 mov	 eax, DWORD PTR $T1[ebp]
  0003b	89 45 d8	 mov	 DWORD PTR __Al$[ebp], eax
; File C:\Program Files (x86)\Microsoft Visual Studio\2019\Community\VC\Tools\MSVC\14.28.29333\include\xmemory

; 56   :     constexpr bool _Overflow_is_possible = _Ty_size > 1;

  0003e	c6 45 fe 00	 mov	 BYTE PTR __Overflow_is_possible$3[ebp], 0
; File C:\Program Files (x86)\Microsoft Visual Studio\2019\Community\VC\Tools\MSVC\14.28.29333\include\xstring

; 4312 :         const pointer _New_ptr        = _Al.allocate(_New_capacity + 1); // throws

  00042	8b 45 f0	 mov	 eax, DWORD PTR __New_capacity$[ebp]
  00045	40		 inc	 eax
; File C:\Program Files (x86)\Microsoft Visual Studio\2019\Community\VC\Tools\MSVC\14.28.29333\include\xmemory

; 814  :         return static_cast<_Ty*>(_Allocate<_New_alignof<_Ty>>(_Get_size_of_n<sizeof(_Ty)>(_Count)));

  00046	50		 push	 eax
  00047	e8 00 00 00 00	 call	 ??$_Allocate@$07U_Default_allocate_traits@std@@$0A@@std@@YAPAXI@Z ; std::_Allocate<8,std::_Default_allocate_traits,0>
  0004c	59		 pop	 ecx
; File C:\Program Files (x86)\Microsoft Visual Studio\2019\Community\VC\Tools\MSVC\14.28.29333\include\xstring

; 4312 :         const pointer _New_ptr        = _Al.allocate(_New_capacity + 1); // throws

  0004d	89 45 f4	 mov	 DWORD PTR __New_ptr$[ebp], eax

; 4313 :         _Mypair._Myval2._Orphan_all();
; 4314 :         _Mypair._Myval2._Mysize = _New_size;

  00050	8b 45 f8	 mov	 eax, DWORD PTR _this$[ebp]
  00053	8b 4d 08	 mov	 ecx, DWORD PTR __New_size$[ebp]
  00056	89 48 10	 mov	 DWORD PTR [eax+16], ecx

; 4315 :         _Mypair._Myval2._Myres  = _New_capacity;

  00059	8b 45 f8	 mov	 eax, DWORD PTR _this$[ebp]
  0005c	8b 4d f0	 mov	 ecx, DWORD PTR __New_capacity$[ebp]
  0005f	89 48 14	 mov	 DWORD PTR [eax+20], ecx

; 4316 :         _Fn(_Unfancy(_New_ptr), _New_size, _Args...);

  00062	8b 45 f4	 mov	 eax, DWORD PTR __New_ptr$[ebp]
  00065	89 45 e0	 mov	 DWORD PTR __Ptr$[ebp], eax
; File C:\Program Files (x86)\Microsoft Visual Studio\2019\Community\VC\Tools\MSVC\14.28.29333\include\xstddef

; 289  :     return _Ptr;

  00068	8b 45 e0	 mov	 eax, DWORD PTR __Ptr$[ebp]
  0006b	89 45 ec	 mov	 DWORD PTR $T2[ebp], eax
; File C:\Program Files (x86)\Microsoft Visual Studio\2019\Community\VC\Tools\MSVC\14.28.29333\include\xstring

; 62   :         _CSTD memcpy(_First1, _First2, _Count * sizeof(_Elem));

  0006e	ff 75 08	 push	 DWORD PTR __New_size$[ebp]
  00071	ff 75 10	 push	 DWORD PTR _<_Args_0>$[ebp]
  00074	ff 75 ec	 push	 DWORD PTR $T2[ebp]
  00077	e8 00 00 00 00	 call	 _memcpy
  0007c	83 c4 0c	 add	 esp, 12			; 0000000cH

; 3056 :                 _Traits::assign(_New_ptr[_Count], _Elem());

  0007f	c6 45 ff 00	 mov	 BYTE PTR $T4[ebp], 0

; 428  :         _Left = _Right;

  00083	8b 45 ec	 mov	 eax, DWORD PTR $T2[ebp]
  00086	03 45 08	 add	 eax, DWORD PTR __New_size$[ebp]
  00089	8a 4d ff	 mov	 cl, BYTE PTR $T4[ebp]
  0008c	88 08		 mov	 BYTE PTR [eax], cl

; 4317 :         if (_BUF_SIZE <= _Old_capacity) {

  0008e	83 7d e8 10	 cmp	 DWORD PTR __Old_capacity$[ebp], 16 ; 00000010H
  00092	72 21		 jb	 SHORT $LN3@Reallocate

; 4318 :             _Al.deallocate(_Mypair._Myval2._Bx._Ptr, _Old_capacity + 1);

  00094	8b 45 f8	 mov	 eax, DWORD PTR _this$[ebp]
  00097	8b 00		 mov	 eax, DWORD PTR [eax]
  00099	89 45 dc	 mov	 DWORD PTR __Ptr$[ebp], eax
  0009c	8b 45 e8	 mov	 eax, DWORD PTR __Old_capacity$[ebp]
  0009f	40		 inc	 eax
; File C:\Program Files (x86)\Microsoft Visual Studio\2019\Community\VC\Tools\MSVC\14.28.29333\include\xmemory

; 810  :         _Deallocate<_New_alignof<_Ty>>(_Ptr, sizeof(_Ty) * _Count);

  000a0	50		 push	 eax
  000a1	ff 75 dc	 push	 DWORD PTR __Ptr$[ebp]
  000a4	e8 00 00 00 00	 call	 ??$_Deallocate@$07$0A@@std@@YAXPAXI@Z ; std::_Deallocate<8,0>
  000a9	59		 pop	 ecx
  000aa	59		 pop	 ecx
; File C:\Program Files (x86)\Microsoft Visual Studio\2019\Community\VC\Tools\MSVC\14.28.29333\include\xstring

; 4319 :             _Mypair._Myval2._Bx._Ptr = _New_ptr;

  000ab	8b 45 f8	 mov	 eax, DWORD PTR _this$[ebp]
  000ae	8b 4d f4	 mov	 ecx, DWORD PTR __New_ptr$[ebp]
  000b1	89 08		 mov	 DWORD PTR [eax], ecx

; 4320 :         } else {

  000b3	eb 0e		 jmp	 SHORT $LN4@Reallocate
$LN3@Reallocate:

; 4321 :             _Construct_in_place(_Mypair._Myval2._Bx._Ptr, _New_ptr);

  000b5	8d 45 f4	 lea	 eax, DWORD PTR __New_ptr$[ebp]
  000b8	50		 push	 eax
  000b9	ff 75 f8	 push	 DWORD PTR _this$[ebp]
  000bc	e8 00 00 00 00	 call	 ??$_Construct_in_place@PADABQAD@std@@YAXAAPADABQAD@Z ; std::_Construct_in_place<char *,char * const &>
  000c1	59		 pop	 ecx
  000c2	59		 pop	 ecx
$LN4@Reallocate:

; 4322 :         }
; 4323 : 
; 4324 :         return *this;

  000c3	8b 45 f8	 mov	 eax, DWORD PTR _this$[ebp]
$LN5@Reallocate:

; 4325 :     }

  000c6	c9		 leave
  000c7	c2 0c 00	 ret	 12			; 0000000cH
??$_Reallocate_for@V<lambda_9366063389c5f42a00a5088cf24e69de>@@PBD@?$basic_string@DU?$char_traits@D@std@@V?$allocator@D@2@@std@@AAEAAV01@IV<lambda_9366063389c5f42a00a5088cf24e69de>@@PBD@Z ENDP ; std::basic_string<char,std::char_traits<char>,std::allocator<char> >::_Reallocate_for<<lambda_9366063389c5f42a00a5088cf24e69de>,char const *>
_TEXT	ENDS
; Function compile flags: /Odspy
; File C:\Program Files (x86)\Microsoft Visual Studio\2019\Community\VC\Tools\MSVC\14.28.29333\include\xmemory
;	COMDAT ??$_Destroy_in_place@PAD@std@@YAXAAPAD@Z
_TEXT	SEGMENT
__Obj$ = 8						; size = 4
??$_Destroy_in_place@PAD@std@@YAXAAPAD@Z PROC		; std::_Destroy_in_place<char *>, COMDAT

; 270  : /* _CONSTEXPR20_DYNALLOC */ void _Destroy_in_place(_Ty& _Obj) noexcept {

  00000	55		 push	 ebp
  00001	8b ec		 mov	 ebp, esp

; 271  : #if _HAS_IF_CONSTEXPR
; 272  :     if constexpr (is_array_v<_Ty>) {
; 273  :         _Destroy_range(_Obj, _Obj + extent_v<_Ty>);
; 274  :     } else
; 275  : #endif // _HAS_IF_CONSTEXPR
; 276  :     {
; 277  :         _Obj.~_Ty();
; 278  :     }
; 279  : }

  00003	5d		 pop	 ebp
  00004	c3		 ret	 0
??$_Destroy_in_place@PAD@std@@YAXAAPAD@Z ENDP		; std::_Destroy_in_place<char *>
_TEXT	ENDS
; Function compile flags: /Odspy
; File C:\Program Files (x86)\Microsoft Visual Studio\2019\Community\VC\Tools\MSVC\14.28.29333\include\xstring
; File C:\Program Files (x86)\Microsoft Visual Studio\2019\Community\VC\Tools\MSVC\14.28.29333\include\xmemory
; File C:\Program Files (x86)\Microsoft Visual Studio\2019\Community\VC\Tools\MSVC\14.28.29333\include\xstring
; File C:\Program Files (x86)\Microsoft Visual Studio\2019\Community\VC\Tools\MSVC\14.28.29333\include\xmemory
; File C:\Program Files (x86)\Microsoft Visual Studio\2019\Community\VC\Tools\MSVC\14.28.29333\include\xstring
;	COMDAT ?_Tidy_deallocate@?$basic_string@DU?$char_traits@D@std@@V?$allocator@D@2@@std@@AAEXXZ
_TEXT	SEGMENT
__Al$1 = -28						; size = 4
__Ptr$2 = -24						; size = 4
__Count$ = -20						; size = 4
$T3 = -16						; size = 4
tv68 = -12						; size = 4
_this$ = -8						; size = 4
$T4 = -2						; size = 1
$T5 = -1						; size = 1
?_Tidy_deallocate@?$basic_string@DU?$char_traits@D@std@@V?$allocator@D@2@@std@@AAEXXZ PROC ; std::basic_string<char,std::char_traits<char>,std::allocator<char> >::_Tidy_deallocate, COMDAT
; _this$ = ecx

; 4383 :     void _Tidy_deallocate() noexcept { // initialize buffer, deallocating any storage

  00000	55		 push	 ebp
  00001	8b ec		 mov	 ebp, esp
  00003	83 ec 1c	 sub	 esp, 28			; 0000001cH
  00006	89 4d f8	 mov	 DWORD PTR _this$[ebp], ecx

; 2227 :         return _BUF_SIZE <= _Myres;

  00009	8b 45 f8	 mov	 eax, DWORD PTR _this$[ebp]
  0000c	83 78 14 10	 cmp	 DWORD PTR [eax+20], 16	; 00000010H
  00010	72 09		 jb	 SHORT $LN9@Tidy_deall
  00012	c7 45 f4 01 00
	00 00		 mov	 DWORD PTR tv68[ebp], 1
  00019	eb 04		 jmp	 SHORT $LN10@Tidy_deall
$LN9@Tidy_deall:
  0001b	83 65 f4 00	 and	 DWORD PTR tv68[ebp], 0
$LN10@Tidy_deall:
  0001f	8a 45 f4	 mov	 al, BYTE PTR tv68[ebp]
  00022	88 45 ff	 mov	 BYTE PTR $T5[ebp], al

; 4384 :         _Mypair._Myval2._Orphan_all();
; 4385 :         if (_Mypair._Myval2._Large_string_engaged()) {

  00025	0f b6 45 ff	 movzx	 eax, BYTE PTR $T5[ebp]
  00029	85 c0		 test	 eax, eax
  0002b	74 34		 je	 SHORT $LN2@Tidy_deall

; 4386 :             const pointer _Ptr = _Mypair._Myval2._Bx._Ptr;

  0002d	8b 45 f8	 mov	 eax, DWORD PTR _this$[ebp]
  00030	8b 00		 mov	 eax, DWORD PTR [eax]
  00032	89 45 e8	 mov	 DWORD PTR __Ptr$2[ebp], eax

; 4409 :         return _Mypair._Get_first();

  00035	8b 45 f8	 mov	 eax, DWORD PTR _this$[ebp]
; File C:\Program Files (x86)\Microsoft Visual Studio\2019\Community\VC\Tools\MSVC\14.28.29333\include\xmemory

; 1347 :         return *this;

  00038	89 45 f0	 mov	 DWORD PTR $T3[ebp], eax
; File C:\Program Files (x86)\Microsoft Visual Studio\2019\Community\VC\Tools\MSVC\14.28.29333\include\xstring

; 4409 :         return _Mypair._Get_first();

  0003b	8b 45 f0	 mov	 eax, DWORD PTR $T3[ebp]
  0003e	89 45 e4	 mov	 DWORD PTR __Al$1[ebp], eax

; 4387 :             auto& _Al          = _Getal();
; 4388 :             _Destroy_in_place(_Mypair._Myval2._Bx._Ptr);

  00041	ff 75 f8	 push	 DWORD PTR _this$[ebp]
  00044	e8 00 00 00 00	 call	 ??$_Destroy_in_place@PAD@std@@YAXAAPAD@Z ; std::_Destroy_in_place<char *>
  00049	59		 pop	 ecx

; 4389 :             _Al.deallocate(_Ptr, _Mypair._Myval2._Myres + 1);

  0004a	8b 45 f8	 mov	 eax, DWORD PTR _this$[ebp]
  0004d	8b 40 14	 mov	 eax, DWORD PTR [eax+20]
  00050	40		 inc	 eax
  00051	89 45 ec	 mov	 DWORD PTR __Count$[ebp], eax
; File C:\Program Files (x86)\Microsoft Visual Studio\2019\Community\VC\Tools\MSVC\14.28.29333\include\xmemory

; 810  :         _Deallocate<_New_alignof<_Ty>>(_Ptr, sizeof(_Ty) * _Count);

  00054	ff 75 ec	 push	 DWORD PTR __Count$[ebp]
  00057	ff 75 e8	 push	 DWORD PTR __Ptr$2[ebp]
  0005a	e8 00 00 00 00	 call	 ??$_Deallocate@$07$0A@@std@@YAXPAXI@Z ; std::_Deallocate<8,0>
  0005f	59		 pop	 ecx
  00060	59		 pop	 ecx
$LN2@Tidy_deall:
; File C:\Program Files (x86)\Microsoft Visual Studio\2019\Community\VC\Tools\MSVC\14.28.29333\include\xstring

; 4392 :         _Mypair._Myval2._Mysize = 0;

  00061	8b 45 f8	 mov	 eax, DWORD PTR _this$[ebp]
  00064	83 60 10 00	 and	 DWORD PTR [eax+16], 0

; 4393 :         _Mypair._Myval2._Myres  = _BUF_SIZE - 1;

  00068	8b 45 f8	 mov	 eax, DWORD PTR _this$[ebp]
  0006b	c7 40 14 0f 00
	00 00		 mov	 DWORD PTR [eax+20], 15	; 0000000fH

; 4394 :         // the _Traits::assign is last so the codegen doesn't think the char write can alias this
; 4395 :         _Traits::assign(_Mypair._Myval2._Bx._Buf[0], _Elem());

  00072	c6 45 fe 00	 mov	 BYTE PTR $T4[ebp], 0
  00076	33 c0		 xor	 eax, eax
  00078	40		 inc	 eax
  00079	6b c0 00	 imul	 eax, eax, 0

; 428  :         _Left = _Right;

  0007c	8b 4d f8	 mov	 ecx, DWORD PTR _this$[ebp]
  0007f	8a 55 fe	 mov	 dl, BYTE PTR $T4[ebp]
  00082	88 14 01	 mov	 BYTE PTR [ecx+eax], dl

; 4396 :     }

  00085	c9		 leave
  00086	c3		 ret	 0
?_Tidy_deallocate@?$basic_string@DU?$char_traits@D@std@@V?$allocator@D@2@@std@@AAEXXZ ENDP ; std::basic_string<char,std::char_traits<char>,std::allocator<char> >::_Tidy_deallocate
_TEXT	ENDS
; Function compile flags: /Odspy
; File C:\Program Files (x86)\Microsoft Visual Studio\2019\Community\VC\Tools\MSVC\14.28.29333\include\xstring
;	COMDAT ?_Tidy_init@?$basic_string@DU?$char_traits@D@std@@V?$allocator@D@2@@std@@AAEXXZ
_TEXT	SEGMENT
_this$ = -8						; size = 4
$T1 = -1						; size = 1
?_Tidy_init@?$basic_string@DU?$char_traits@D@std@@V?$allocator@D@2@@std@@AAEXXZ PROC ; std::basic_string<char,std::char_traits<char>,std::allocator<char> >::_Tidy_init, COMDAT
; _this$ = ecx

; 4376 :     void _Tidy_init() noexcept { // initialize basic_string data members

  00000	55		 push	 ebp
  00001	8b ec		 mov	 ebp, esp
  00003	51		 push	 ecx
  00004	51		 push	 ecx
  00005	89 4d f8	 mov	 DWORD PTR _this$[ebp], ecx

; 4377 :         _Mypair._Myval2._Mysize = 0;

  00008	8b 45 f8	 mov	 eax, DWORD PTR _this$[ebp]
  0000b	83 60 10 00	 and	 DWORD PTR [eax+16], 0

; 4378 :         _Mypair._Myval2._Myres  = _BUF_SIZE - 1;

  0000f	8b 45 f8	 mov	 eax, DWORD PTR _this$[ebp]
  00012	c7 40 14 0f 00
	00 00		 mov	 DWORD PTR [eax+20], 15	; 0000000fH

; 4379 :         // the _Traits::assign is last so the codegen doesn't think the char write can alias this
; 4380 :         _Traits::assign(_Mypair._Myval2._Bx._Buf[0], _Elem());

  00019	c6 45 ff 00	 mov	 BYTE PTR $T1[ebp], 0
  0001d	33 c0		 xor	 eax, eax
  0001f	40		 inc	 eax
  00020	6b c0 00	 imul	 eax, eax, 0

; 428  :         _Left = _Right;

  00023	8b 4d f8	 mov	 ecx, DWORD PTR _this$[ebp]
  00026	8a 55 ff	 mov	 dl, BYTE PTR $T1[ebp]
  00029	88 14 01	 mov	 BYTE PTR [ecx+eax], dl

; 4381 :     }

  0002c	c9		 leave
  0002d	c3		 ret	 0
?_Tidy_init@?$basic_string@DU?$char_traits@D@std@@V?$allocator@D@2@@std@@AAEXXZ ENDP ; std::basic_string<char,std::char_traits<char>,std::allocator<char> >::_Tidy_init
_TEXT	ENDS
; Function compile flags: /Odspy
; File C:\Program Files (x86)\Microsoft Visual Studio\2019\Community\VC\Tools\MSVC\14.28.29333\include\xstring
; File C:\Program Files (x86)\Microsoft Visual Studio\2019\Community\VC\Tools\MSVC\14.28.29333\include\utility
; File C:\Program Files (x86)\Microsoft Visual Studio\2019\Community\VC\Tools\MSVC\14.28.29333\include\xstring
;	COMDAT ?_Calculate_growth@?$basic_string@DU?$char_traits@D@std@@V?$allocator@D@2@@std@@ABEII@Z
_TEXT	SEGMENT
$T1 = -36						; size = 4
$T2 = -32						; size = 4
tv93 = -28						; size = 4
$T3 = -24						; size = 4
_this$ = -20						; size = 4
$T4 = -16						; size = 4
__Masked$5 = -12					; size = 4
__Old$ = -8						; size = 4
__Max$ = -4						; size = 4
__Requested$ = 8					; size = 4
?_Calculate_growth@?$basic_string@DU?$char_traits@D@std@@V?$allocator@D@2@@std@@ABEII@Z PROC ; std::basic_string<char,std::char_traits<char>,std::allocator<char> >::_Calculate_growth, COMDAT
; _this$ = ecx

; 4297 :     _NODISCARD size_type _Calculate_growth(const size_type _Requested) const noexcept {

  00000	55		 push	 ebp
  00001	8b ec		 mov	 ebp, esp
  00003	83 ec 24	 sub	 esp, 36			; 00000024H
  00006	89 4d ec	 mov	 DWORD PTR _this$[ebp], ecx

; 4298 :         return _Calculate_growth(_Requested, _Mypair._Myval2._Myres, max_size());

  00009	8b 4d ec	 mov	 ecx, DWORD PTR _this$[ebp]
  0000c	e8 00 00 00 00	 call	 ?max_size@?$basic_string@DU?$char_traits@D@std@@V?$allocator@D@2@@std@@QBEIXZ ; std::basic_string<char,std::char_traits<char>,std::allocator<char> >::max_size
  00011	89 45 fc	 mov	 DWORD PTR __Max$[ebp], eax
  00014	8b 45 ec	 mov	 eax, DWORD PTR _this$[ebp]
  00017	8b 40 14	 mov	 eax, DWORD PTR [eax+20]
  0001a	89 45 f8	 mov	 DWORD PTR __Old$[ebp], eax

; 4285 :         const size_type _Masked = _Requested | _ALLOC_MASK;

  0001d	8b 45 08	 mov	 eax, DWORD PTR __Requested$[ebp]
  00020	83 c8 0f	 or	 eax, 15			; 0000000fH
  00023	89 45 f4	 mov	 DWORD PTR __Masked$5[ebp], eax

; 4286 :         if (_Masked > _Max) { // the mask overflows, settle for max_size()

  00026	8b 45 f4	 mov	 eax, DWORD PTR __Masked$5[ebp]
  00029	3b 45 fc	 cmp	 eax, DWORD PTR __Max$[ebp]
  0002c	76 08		 jbe	 SHORT $LN29@Calculate_

; 4287 :             return _Max;

  0002e	8b 45 fc	 mov	 eax, DWORD PTR __Max$[ebp]
  00031	89 45 f0	 mov	 DWORD PTR $T4[ebp], eax
  00034	eb 4c		 jmp	 SHORT $LN31@Calculate_
$LN29@Calculate_:

; 4288 :         }
; 4289 : 
; 4290 :         if (_Old > _Max - _Old / 2) { // similarly, geometric overflows

  00036	8b 45 f8	 mov	 eax, DWORD PTR __Old$[ebp]
  00039	d1 e8		 shr	 eax, 1
  0003b	8b 4d fc	 mov	 ecx, DWORD PTR __Max$[ebp]
  0003e	2b c8		 sub	 ecx, eax
  00040	39 4d f8	 cmp	 DWORD PTR __Old$[ebp], ecx
  00043	76 08		 jbe	 SHORT $LN30@Calculate_

; 4291 :             return _Max;

  00045	8b 45 fc	 mov	 eax, DWORD PTR __Max$[ebp]
  00048	89 45 f0	 mov	 DWORD PTR $T4[ebp], eax
  0004b	eb 35		 jmp	 SHORT $LN31@Calculate_
$LN30@Calculate_:

; 4294 :         return (_STD max)(_Masked, _Old + _Old / 2);

  0004d	8b 45 f8	 mov	 eax, DWORD PTR __Old$[ebp]
  00050	d1 e8		 shr	 eax, 1
  00052	03 45 f8	 add	 eax, DWORD PTR __Old$[ebp]
  00055	89 45 e8	 mov	 DWORD PTR $T3[ebp], eax
; File C:\Program Files (x86)\Microsoft Visual Studio\2019\Community\VC\Tools\MSVC\14.28.29333\include\utility

; 44   :     return _Left < _Right ? _Right : _Left;

  00058	8b 45 f4	 mov	 eax, DWORD PTR __Masked$5[ebp]
  0005b	3b 45 e8	 cmp	 eax, DWORD PTR $T3[ebp]
  0005e	73 08		 jae	 SHORT $LN35@Calculate_
  00060	8d 45 e8	 lea	 eax, DWORD PTR $T3[ebp]
  00063	89 45 e4	 mov	 DWORD PTR tv93[ebp], eax
  00066	eb 06		 jmp	 SHORT $LN36@Calculate_
$LN35@Calculate_:
  00068	8d 45 f4	 lea	 eax, DWORD PTR __Masked$5[ebp]
  0006b	89 45 e4	 mov	 DWORD PTR tv93[ebp], eax
$LN36@Calculate_:
  0006e	8b 45 e4	 mov	 eax, DWORD PTR tv93[ebp]
  00071	89 45 e0	 mov	 DWORD PTR $T2[ebp], eax
  00074	8b 45 e0	 mov	 eax, DWORD PTR $T2[ebp]
  00077	89 45 dc	 mov	 DWORD PTR $T1[ebp], eax
; File C:\Program Files (x86)\Microsoft Visual Studio\2019\Community\VC\Tools\MSVC\14.28.29333\include\xstring

; 4294 :         return (_STD max)(_Masked, _Old + _Old / 2);

  0007a	8b 45 dc	 mov	 eax, DWORD PTR $T1[ebp]
  0007d	8b 00		 mov	 eax, DWORD PTR [eax]
  0007f	89 45 f0	 mov	 DWORD PTR $T4[ebp], eax
$LN31@Calculate_:

; 4298 :         return _Calculate_growth(_Requested, _Mypair._Myval2._Myres, max_size());

  00082	8b 45 f0	 mov	 eax, DWORD PTR $T4[ebp]

; 4299 :     }

  00085	c9		 leave
  00086	c2 04 00	 ret	 4
?_Calculate_growth@?$basic_string@DU?$char_traits@D@std@@V?$allocator@D@2@@std@@ABEII@Z ENDP ; std::basic_string<char,std::char_traits<char>,std::allocator<char> >::_Calculate_growth
_TEXT	ENDS
; Function compile flags: /Odspy
; File C:\Program Files (x86)\Microsoft Visual Studio\2019\Community\VC\Tools\MSVC\14.28.29333\include\xstring
; File C:\Program Files (x86)\Microsoft Visual Studio\2019\Community\VC\Tools\MSVC\14.28.29333\include\xmemory
; File C:\Program Files (x86)\Microsoft Visual Studio\2019\Community\VC\Tools\MSVC\14.28.29333\include\xstring
; File C:\Program Files (x86)\Microsoft Visual Studio\2019\Community\VC\Tools\MSVC\14.28.29333\include\xmemory
; File C:\Program Files (x86)\Microsoft Visual Studio\2019\Community\VC\Tools\MSVC\14.28.29333\include\xstring
; File C:\Program Files (x86)\Microsoft Visual Studio\2019\Community\VC\Tools\MSVC\14.28.29333\include\utility
; File C:\Program Files (x86)\Microsoft Visual Studio\2019\Community\VC\Tools\MSVC\14.28.29333\include\xstring
; File C:\Program Files (x86)\Microsoft Visual Studio\2019\Community\VC\Tools\MSVC\14.28.29333\include\limits
; File C:\Program Files (x86)\Microsoft Visual Studio\2019\Community\VC\Tools\MSVC\14.28.29333\include\xstring
; File C:\Program Files (x86)\Microsoft Visual Studio\2019\Community\VC\Tools\MSVC\14.28.29333\include\utility
; File C:\Program Files (x86)\Microsoft Visual Studio\2019\Community\VC\Tools\MSVC\14.28.29333\include\xstring
;	COMDAT ?max_size@?$basic_string@DU?$char_traits@D@std@@V?$allocator@D@2@@std@@QBEIXZ
_TEXT	SEGMENT
$T1 = -60						; size = 4
$T2 = -56						; size = 4
$T3 = -52						; size = 4
$T4 = -48						; size = 4
__Storage_max$ = -44					; size = 4
$T5 = -40						; size = 4
$T6 = -36						; size = 4
$T7 = -32						; size = 4
_this$ = -28						; size = 4
tv70 = -24						; size = 4
$T8 = -20						; size = 4
$T9 = -16						; size = 4
tv67 = -12						; size = 4
__Alloc_max$ = -8					; size = 4
$T10 = -4						; size = 4
?max_size@?$basic_string@DU?$char_traits@D@std@@V?$allocator@D@2@@std@@QBEIXZ PROC ; std::basic_string<char,std::char_traits<char>,std::allocator<char> >::max_size, COMDAT
; _this$ = ecx

; 3773 :     _NODISCARD size_type max_size() const noexcept {

  00000	55		 push	 ebp
  00001	8b ec		 mov	 ebp, esp
  00003	83 ec 3c	 sub	 esp, 60			; 0000003cH
  00006	89 4d e4	 mov	 DWORD PTR _this$[ebp], ecx

; 4413 :         return _Mypair._Get_first();

  00009	8b 45 e4	 mov	 eax, DWORD PTR _this$[ebp]
; File C:\Program Files (x86)\Microsoft Visual Studio\2019\Community\VC\Tools\MSVC\14.28.29333\include\xmemory

; 1351 :         return *this;

  0000c	89 45 e0	 mov	 DWORD PTR $T7[ebp], eax
; File C:\Program Files (x86)\Microsoft Visual Studio\2019\Community\VC\Tools\MSVC\14.28.29333\include\xstring

; 4413 :         return _Mypair._Get_first();

  0000f	8b 45 e0	 mov	 eax, DWORD PTR $T7[ebp]
  00012	89 45 c4	 mov	 DWORD PTR $T1[ebp], eax
; File C:\Program Files (x86)\Microsoft Visual Studio\2019\Community\VC\Tools\MSVC\14.28.29333\include\xmemory

; 710  :         return static_cast<size_t>(-1) / sizeof(value_type);

  00015	83 4d f8 ff	 or	 DWORD PTR __Alloc_max$[ebp], -1
; File C:\Program Files (x86)\Microsoft Visual Studio\2019\Community\VC\Tools\MSVC\14.28.29333\include\xstring

; 3775 :         const size_type _Storage_max = // can always store small string

  00019	c7 45 fc 10 00
	00 00		 mov	 DWORD PTR $T10[ebp], 16	; 00000010H
; File C:\Program Files (x86)\Microsoft Visual Studio\2019\Community\VC\Tools\MSVC\14.28.29333\include\utility

; 44   :     return _Left < _Right ? _Right : _Left;

  00020	8b 45 f8	 mov	 eax, DWORD PTR __Alloc_max$[ebp]
  00023	3b 45 fc	 cmp	 eax, DWORD PTR $T10[ebp]
  00026	73 08		 jae	 SHORT $LN14@max_size
  00028	8d 45 fc	 lea	 eax, DWORD PTR $T10[ebp]
  0002b	89 45 f4	 mov	 DWORD PTR tv67[ebp], eax
  0002e	eb 06		 jmp	 SHORT $LN15@max_size
$LN14@max_size:
  00030	8d 45 f8	 lea	 eax, DWORD PTR __Alloc_max$[ebp]
  00033	89 45 f4	 mov	 DWORD PTR tv67[ebp], eax
$LN15@max_size:
  00036	8b 45 f4	 mov	 eax, DWORD PTR tv67[ebp]
  00039	89 45 dc	 mov	 DWORD PTR $T6[ebp], eax
  0003c	8b 45 dc	 mov	 eax, DWORD PTR $T6[ebp]
  0003f	89 45 d8	 mov	 DWORD PTR $T5[ebp], eax
; File C:\Program Files (x86)\Microsoft Visual Studio\2019\Community\VC\Tools\MSVC\14.28.29333\include\xstring

; 3775 :         const size_type _Storage_max = // can always store small string

  00042	8b 45 d8	 mov	 eax, DWORD PTR $T5[ebp]
  00045	8b 00		 mov	 eax, DWORD PTR [eax]
  00047	89 45 d4	 mov	 DWORD PTR __Storage_max$[ebp], eax

; 3777 :         return (_STD min)(static_cast<size_type>((numeric_limits<difference_type>::max)()),

  0004a	8b 45 d4	 mov	 eax, DWORD PTR __Storage_max$[ebp]
  0004d	48		 dec	 eax
  0004e	89 45 f0	 mov	 DWORD PTR $T9[ebp], eax
; File C:\Program Files (x86)\Microsoft Visual Studio\2019\Community\VC\Tools\MSVC\14.28.29333\include\limits

; 557  :         return INT_MAX;

  00051	c7 45 d0 ff ff
	ff 7f		 mov	 DWORD PTR $T4[ebp], 2147483647 ; 7fffffffH
; File C:\Program Files (x86)\Microsoft Visual Studio\2019\Community\VC\Tools\MSVC\14.28.29333\include\xstring

; 3777 :         return (_STD min)(static_cast<size_type>((numeric_limits<difference_type>::max)()),

  00058	8b 45 d0	 mov	 eax, DWORD PTR $T4[ebp]
  0005b	89 45 ec	 mov	 DWORD PTR $T8[ebp], eax
; File C:\Program Files (x86)\Microsoft Visual Studio\2019\Community\VC\Tools\MSVC\14.28.29333\include\utility

; 68   :     return _Right < _Left ? _Right : _Left;

  0005e	8b 45 f0	 mov	 eax, DWORD PTR $T9[ebp]
  00061	3b 45 ec	 cmp	 eax, DWORD PTR $T8[ebp]
  00064	73 08		 jae	 SHORT $LN22@max_size
  00066	8d 45 f0	 lea	 eax, DWORD PTR $T9[ebp]
  00069	89 45 e8	 mov	 DWORD PTR tv70[ebp], eax
  0006c	eb 06		 jmp	 SHORT $LN23@max_size
$LN22@max_size:
  0006e	8d 45 ec	 lea	 eax, DWORD PTR $T8[ebp]
  00071	89 45 e8	 mov	 DWORD PTR tv70[ebp], eax
$LN23@max_size:
  00074	8b 45 e8	 mov	 eax, DWORD PTR tv70[ebp]
  00077	89 45 cc	 mov	 DWORD PTR $T3[ebp], eax
  0007a	8b 45 cc	 mov	 eax, DWORD PTR $T3[ebp]
  0007d	89 45 c8	 mov	 DWORD PTR $T2[ebp], eax
; File C:\Program Files (x86)\Microsoft Visual Studio\2019\Community\VC\Tools\MSVC\14.28.29333\include\xstring

; 3777 :         return (_STD min)(static_cast<size_type>((numeric_limits<difference_type>::max)()),

  00080	8b 45 c8	 mov	 eax, DWORD PTR $T2[ebp]
  00083	8b 00		 mov	 eax, DWORD PTR [eax]

; 3778 :             _Storage_max - 1 // -1 is for null terminator and/or npos
; 3779 :         );
; 3780 :     }

  00085	c9		 leave
  00086	c3		 ret	 0
?max_size@?$basic_string@DU?$char_traits@D@std@@V?$allocator@D@2@@std@@QBEIXZ ENDP ; std::basic_string<char,std::char_traits<char>,std::allocator<char> >::max_size
_TEXT	ENDS
; Function compile flags: /Odspy
; File C:\Program Files (x86)\Microsoft Visual Studio\2019\Community\VC\Tools\MSVC\14.28.29333\include\xstring
; File C:\Program Files (x86)\Microsoft Visual Studio\2019\Community\VC\Tools\MSVC\14.28.29333\include\xstddef
; File C:\Program Files (x86)\Microsoft Visual Studio\2019\Community\VC\Tools\MSVC\14.28.29333\include\xstring
;	COMDAT ?c_str@?$basic_string@DU?$char_traits@D@std@@V?$allocator@D@2@@std@@QBEPBDXZ
_TEXT	SEGMENT
$T1 = -28						; size = 4
__Ptr$ = -24						; size = 4
_this$ = -20						; size = 4
__Result$2 = -16					; size = 4
tv80 = -12						; size = 4
_this$ = -8						; size = 4
$T3 = -1						; size = 1
?c_str@?$basic_string@DU?$char_traits@D@std@@V?$allocator@D@2@@std@@QBEPBDXZ PROC ; std::basic_string<char,std::char_traits<char>,std::allocator<char> >::c_str, COMDAT
; _this$ = ecx

; 3751 :     _NODISCARD _Ret_z_ const _Elem* c_str() const noexcept {

  00000	55		 push	 ebp
  00001	8b ec		 mov	 ebp, esp
  00003	83 ec 1c	 sub	 esp, 28			; 0000001cH
  00006	89 4d ec	 mov	 DWORD PTR _this$[ebp], ecx

; 3752 :         return _Mypair._Myval2._Myptr();

  00009	8b 45 ec	 mov	 eax, DWORD PTR _this$[ebp]
  0000c	89 45 f8	 mov	 DWORD PTR _this$[ebp], eax

; 2218 :         const value_type* _Result = _Bx._Buf;

  0000f	8b 45 f8	 mov	 eax, DWORD PTR _this$[ebp]
  00012	89 45 f0	 mov	 DWORD PTR __Result$2[ebp], eax

; 2227 :         return _BUF_SIZE <= _Myres;

  00015	8b 45 f8	 mov	 eax, DWORD PTR _this$[ebp]
  00018	83 78 14 10	 cmp	 DWORD PTR [eax+20], 16	; 00000010H
  0001c	72 09		 jb	 SHORT $LN9@c_str
  0001e	c7 45 f4 01 00
	00 00		 mov	 DWORD PTR tv80[ebp], 1
  00025	eb 04		 jmp	 SHORT $LN10@c_str
$LN9@c_str:
  00027	83 65 f4 00	 and	 DWORD PTR tv80[ebp], 0
$LN10@c_str:
  0002b	8a 45 f4	 mov	 al, BYTE PTR tv80[ebp]
  0002e	88 45 ff	 mov	 BYTE PTR $T3[ebp], al

; 2219 :         if (_Large_string_engaged()) {

  00031	0f b6 45 ff	 movzx	 eax, BYTE PTR $T3[ebp]
  00035	85 c0		 test	 eax, eax
  00037	74 0e		 je	 SHORT $LN4@c_str

; 2220 :             _Result = _Unfancy(_Bx._Ptr);

  00039	8b 45 f8	 mov	 eax, DWORD PTR _this$[ebp]
  0003c	8b 00		 mov	 eax, DWORD PTR [eax]
  0003e	89 45 e8	 mov	 DWORD PTR __Ptr$[ebp], eax
; File C:\Program Files (x86)\Microsoft Visual Studio\2019\Community\VC\Tools\MSVC\14.28.29333\include\xstddef

; 289  :     return _Ptr;

  00041	8b 45 e8	 mov	 eax, DWORD PTR __Ptr$[ebp]
  00044	89 45 f0	 mov	 DWORD PTR __Result$2[ebp], eax
$LN4@c_str:
; File C:\Program Files (x86)\Microsoft Visual Studio\2019\Community\VC\Tools\MSVC\14.28.29333\include\xstring

; 2223 :         return _Result;

  00047	8b 45 f0	 mov	 eax, DWORD PTR __Result$2[ebp]
  0004a	89 45 e4	 mov	 DWORD PTR $T1[ebp], eax

; 3752 :         return _Mypair._Myval2._Myptr();

  0004d	8b 45 e4	 mov	 eax, DWORD PTR $T1[ebp]

; 3753 :     }

  00050	c9		 leave
  00051	c3		 ret	 0
?c_str@?$basic_string@DU?$char_traits@D@std@@V?$allocator@D@2@@std@@QBEPBDXZ ENDP ; std::basic_string<char,std::char_traits<char>,std::allocator<char> >::c_str
_TEXT	ENDS
; Function compile flags: /Odspy
; File C:\Program Files (x86)\Microsoft Visual Studio\2019\Community\VC\Tools\MSVC\14.28.29333\include\xstring
;	COMDAT ?assign@?$basic_string@DU?$char_traits@D@std@@V?$allocator@D@2@@std@@QAEAAV12@QBDI@Z
_TEXT	SEGMENT
$T1 = -16						; size = 1
__Old_ptr$2 = -12					; size = 4
_this$ = -8						; size = 4
$T3 = -1						; size = 1
__Ptr$ = 8						; size = 4
__Count$ = 12						; size = 4
?assign@?$basic_string@DU?$char_traits@D@std@@V?$allocator@D@2@@std@@QAEAAV12@QBDI@Z PROC ; std::basic_string<char,std::char_traits<char>,std::allocator<char> >::assign, COMDAT
; _this$ = ecx

; 3042 :     basic_string& assign(_In_reads_(_Count) const _Elem* const _Ptr, _CRT_GUARDOVERFLOW const size_type _Count) {

  00000	55		 push	 ebp
  00001	8b ec		 mov	 ebp, esp
  00003	83 ec 10	 sub	 esp, 16			; 00000010H
  00006	89 4d f8	 mov	 DWORD PTR _this$[ebp], ecx

; 3043 :         // assign [_Ptr, _Ptr + _Count)
; 3044 :         if (_Count <= _Mypair._Myval2._Myres) {

  00009	8b 45 f8	 mov	 eax, DWORD PTR _this$[ebp]
  0000c	8b 4d 0c	 mov	 ecx, DWORD PTR __Count$[ebp]
  0000f	3b 48 14	 cmp	 ecx, DWORD PTR [eax+20]
  00012	77 39		 ja	 SHORT $LN2@assign

; 3045 :             _Elem* const _Old_ptr   = _Mypair._Myval2._Myptr();

  00014	8b 4d f8	 mov	 ecx, DWORD PTR _this$[ebp]
  00017	e8 00 00 00 00	 call	 ?_Myptr@?$_String_val@U?$_Simple_types@D@std@@@std@@QAEPADXZ ; std::_String_val<std::_Simple_types<char> >::_Myptr
  0001c	89 45 f4	 mov	 DWORD PTR __Old_ptr$2[ebp], eax

; 3046 :             _Mypair._Myval2._Mysize = _Count;

  0001f	8b 45 f8	 mov	 eax, DWORD PTR _this$[ebp]
  00022	8b 4d 0c	 mov	 ecx, DWORD PTR __Count$[ebp]
  00025	89 48 10	 mov	 DWORD PTR [eax+16], ecx

; 119  :         _CSTD memmove(_First1, _First2, _Count * sizeof(_Elem));

  00028	ff 75 0c	 push	 DWORD PTR __Count$[ebp]
  0002b	ff 75 08	 push	 DWORD PTR __Ptr$[ebp]
  0002e	ff 75 f4	 push	 DWORD PTR __Old_ptr$2[ebp]
  00031	e8 00 00 00 00	 call	 _memmove
  00036	83 c4 0c	 add	 esp, 12			; 0000000cH

; 3047 :             _Traits::move(_Old_ptr, _Ptr, _Count);
; 3048 :             _Traits::assign(_Old_ptr[_Count], _Elem());

  00039	c6 45 ff 00	 mov	 BYTE PTR $T3[ebp], 0

; 428  :         _Left = _Right;

  0003d	8b 45 f4	 mov	 eax, DWORD PTR __Old_ptr$2[ebp]
  00040	03 45 0c	 add	 eax, DWORD PTR __Count$[ebp]
  00043	8a 4d ff	 mov	 cl, BYTE PTR $T3[ebp]
  00046	88 08		 mov	 BYTE PTR [eax], cl

; 3049 :             return *this;

  00048	8b 45 f8	 mov	 eax, DWORD PTR _this$[ebp]
  0004b	eb 16		 jmp	 SHORT $LN1@assign
$LN2@assign:

; 3050 :         }
; 3051 : 
; 3052 :         return _Reallocate_for(

  0004d	33 c0		 xor	 eax, eax
  0004f	88 45 f0	 mov	 BYTE PTR $T1[ebp], al
  00052	ff 75 08	 push	 DWORD PTR __Ptr$[ebp]
  00055	ff 75 f0	 push	 DWORD PTR $T1[ebp]
  00058	ff 75 0c	 push	 DWORD PTR __Count$[ebp]
  0005b	8b 4d f8	 mov	 ecx, DWORD PTR _this$[ebp]
  0005e	e8 00 00 00 00	 call	 ??$_Reallocate_for@V<lambda_9366063389c5f42a00a5088cf24e69de>@@PBD@?$basic_string@DU?$char_traits@D@std@@V?$allocator@D@2@@std@@AAEAAV01@IV<lambda_9366063389c5f42a00a5088cf24e69de>@@PBD@Z ; std::basic_string<char,std::char_traits<char>,std::allocator<char> >::_Reallocate_for<<lambda_9366063389c5f42a00a5088cf24e69de>,char const *>
$LN1@assign:

; 3053 :             _Count,
; 3054 :             [](_Elem* const _New_ptr, const size_type _Count, const _Elem* const _Ptr) {
; 3055 :                 _Traits::copy(_New_ptr, _Ptr, _Count);
; 3056 :                 _Traits::assign(_New_ptr[_Count], _Elem());
; 3057 :             },
; 3058 :             _Ptr);
; 3059 :     }

  00063	c9		 leave
  00064	c2 08 00	 ret	 8
?assign@?$basic_string@DU?$char_traits@D@std@@V?$allocator@D@2@@std@@QAEAAV12@QBDI@Z ENDP ; std::basic_string<char,std::char_traits<char>,std::allocator<char> >::assign
_TEXT	ENDS
; Function compile flags: /Odspy
; File C:\Program Files (x86)\Microsoft Visual Studio\2019\Community\VC\Tools\MSVC\14.28.29333\include\xstring
;	COMDAT ??1?$basic_string@DU?$char_traits@D@std@@V?$allocator@D@2@@std@@QAE@XZ
_TEXT	SEGMENT
_this$ = -4						; size = 4
??1?$basic_string@DU?$char_traits@D@std@@V?$allocator@D@2@@std@@QAE@XZ PROC ; std::basic_string<char,std::char_traits<char>,std::allocator<char> >::~basic_string<char,std::char_traits<char>,std::allocator<char> >, COMDAT
; _this$ = ecx

; 2800 :     ~basic_string() noexcept {

  00000	55		 push	 ebp
  00001	8b ec		 mov	 ebp, esp
  00003	51		 push	 ecx
  00004	89 4d fc	 mov	 DWORD PTR _this$[ebp], ecx

; 2801 :         _Tidy_deallocate();

  00007	8b 4d fc	 mov	 ecx, DWORD PTR _this$[ebp]
  0000a	e8 00 00 00 00	 call	 ?_Tidy_deallocate@?$basic_string@DU?$char_traits@D@std@@V?$allocator@D@2@@std@@AAEXXZ ; std::basic_string<char,std::char_traits<char>,std::allocator<char> >::_Tidy_deallocate

; 2802 : #if _ITERATOR_DEBUG_LEVEL != 0
; 2803 :         auto&& _Alproxy          = _GET_PROXY_ALLOCATOR(_Alty, _Getal());
; 2804 :         const auto _To_delete    = _Mypair._Myval2._Myproxy;
; 2805 :         _Mypair._Myval2._Myproxy = nullptr;
; 2806 :         _Delete_plain_internal(_Alproxy, _To_delete);
; 2807 : #endif // _ITERATOR_DEBUG_LEVEL != 0
; 2808 :     }

  0000f	c9		 leave
  00010	c3		 ret	 0
??1?$basic_string@DU?$char_traits@D@std@@V?$allocator@D@2@@std@@QAE@XZ ENDP ; std::basic_string<char,std::char_traits<char>,std::allocator<char> >::~basic_string<char,std::char_traits<char>,std::allocator<char> >
_TEXT	ENDS
; Function compile flags: /Odspy
; File C:\Program Files (x86)\Microsoft Visual Studio\2019\Community\VC\Tools\MSVC\14.28.29333\include\xstring
; File C:\Program Files (x86)\Microsoft Visual Studio\2019\Community\VC\Tools\MSVC\14.28.29333\include\xmemory
; File C:\Program Files (x86)\Microsoft Visual Studio\2019\Community\VC\Tools\MSVC\14.28.29333\include\xstring
;	COMDAT ??0?$basic_string@DU?$char_traits@D@std@@V?$allocator@D@2@@std@@QAE@XZ
_TEXT	SEGMENT
_this$ = -12						; size = 4
_this$ = -8						; size = 4
_this$ = -4						; size = 4
??0?$basic_string@DU?$char_traits@D@std@@V?$allocator@D@2@@std@@QAE@XZ PROC ; std::basic_string<char,std::char_traits<char>,std::allocator<char> >::basic_string<char,std::char_traits<char>,std::allocator<char> >, COMDAT
; _this$ = ecx

; 2365 :     basic_string() noexcept(is_nothrow_default_constructible_v<_Alty>) : _Mypair(_Zero_then_variadic_args_t{}) {

  00000	55		 push	 ebp
  00001	8b ec		 mov	 ebp, esp
  00003	83 ec 0c	 sub	 esp, 12			; 0000000cH
  00006	89 4d fc	 mov	 DWORD PTR _this$[ebp], ecx
  00009	8b 45 fc	 mov	 eax, DWORD PTR _this$[ebp]
  0000c	89 45 f4	 mov	 DWORD PTR _this$[ebp], eax
; File C:\Program Files (x86)\Microsoft Visual Studio\2019\Community\VC\Tools\MSVC\14.28.29333\include\xmemory

; 1339 :         : _Ty1(), _Myval2(_STD forward<_Other2>(_Val2)...) {}

  0000f	8b 45 f4	 mov	 eax, DWORD PTR _this$[ebp]
  00012	89 45 f8	 mov	 DWORD PTR _this$[ebp], eax
; File C:\Program Files (x86)\Microsoft Visual Studio\2019\Community\VC\Tools\MSVC\14.28.29333\include\xstring

; 2198 :     _String_val() noexcept : _Bx(), _Mysize(0), _Myres(0) {}

  00015	8b 45 f8	 mov	 eax, DWORD PTR _this$[ebp]
  00018	83 60 10 00	 and	 DWORD PTR [eax+16], 0
  0001c	8b 45 f8	 mov	 eax, DWORD PTR _this$[ebp]
  0001f	83 60 14 00	 and	 DWORD PTR [eax+20], 0

; 2366 :         _Mypair._Myval2._Alloc_proxy(_GET_PROXY_ALLOCATOR(_Alty, _Getal()));
; 2367 :         _Tidy_init();

  00023	8b 4d fc	 mov	 ecx, DWORD PTR _this$[ebp]
  00026	e8 00 00 00 00	 call	 ?_Tidy_init@?$basic_string@DU?$char_traits@D@std@@V?$allocator@D@2@@std@@AAEXXZ ; std::basic_string<char,std::char_traits<char>,std::allocator<char> >::_Tidy_init

; 2368 :     }

  0002b	8b 45 fc	 mov	 eax, DWORD PTR _this$[ebp]
  0002e	c9		 leave
  0002f	c3		 ret	 0
??0?$basic_string@DU?$char_traits@D@std@@V?$allocator@D@2@@std@@QAE@XZ ENDP ; std::basic_string<char,std::char_traits<char>,std::allocator<char> >::basic_string<char,std::char_traits<char>,std::allocator<char> >
_TEXT	ENDS
; Function compile flags: /Odspy
; File C:\Program Files (x86)\Microsoft Visual Studio\2019\Community\VC\Tools\MSVC\14.28.29333\include\xstring
; File C:\Program Files (x86)\Microsoft Visual Studio\2019\Community\VC\Tools\MSVC\14.28.29333\include\xstddef
; File C:\Program Files (x86)\Microsoft Visual Studio\2019\Community\VC\Tools\MSVC\14.28.29333\include\xstring
;	COMDAT ?_Myptr@?$_String_val@U?$_Simple_types@D@std@@@std@@QAEPADXZ
_TEXT	SEGMENT
__Ptr$ = -20						; size = 4
__Result$ = -16						; size = 4
tv76 = -12						; size = 4
_this$ = -8						; size = 4
$T1 = -1						; size = 1
?_Myptr@?$_String_val@U?$_Simple_types@D@std@@@std@@QAEPADXZ PROC ; std::_String_val<std::_Simple_types<char> >::_Myptr, COMDAT
; _this$ = ecx

; 2208 :     value_type* _Myptr() noexcept {

  00000	55		 push	 ebp
  00001	8b ec		 mov	 ebp, esp
  00003	83 ec 14	 sub	 esp, 20			; 00000014H
  00006	89 4d f8	 mov	 DWORD PTR _this$[ebp], ecx

; 2209 :         value_type* _Result = _Bx._Buf;

  00009	8b 45 f8	 mov	 eax, DWORD PTR _this$[ebp]
  0000c	89 45 f0	 mov	 DWORD PTR __Result$[ebp], eax

; 2227 :         return _BUF_SIZE <= _Myres;

  0000f	8b 45 f8	 mov	 eax, DWORD PTR _this$[ebp]
  00012	83 78 14 10	 cmp	 DWORD PTR [eax+20], 16	; 00000010H
  00016	72 09		 jb	 SHORT $LN6@Myptr
  00018	c7 45 f4 01 00
	00 00		 mov	 DWORD PTR tv76[ebp], 1
  0001f	eb 04		 jmp	 SHORT $LN7@Myptr
$LN6@Myptr:
  00021	83 65 f4 00	 and	 DWORD PTR tv76[ebp], 0
$LN7@Myptr:
  00025	8a 45 f4	 mov	 al, BYTE PTR tv76[ebp]
  00028	88 45 ff	 mov	 BYTE PTR $T1[ebp], al

; 2210 :         if (_Large_string_engaged()) {

  0002b	0f b6 45 ff	 movzx	 eax, BYTE PTR $T1[ebp]
  0002f	85 c0		 test	 eax, eax
  00031	74 0e		 je	 SHORT $LN2@Myptr

; 2211 :             _Result = _Unfancy(_Bx._Ptr);

  00033	8b 45 f8	 mov	 eax, DWORD PTR _this$[ebp]
  00036	8b 00		 mov	 eax, DWORD PTR [eax]
  00038	89 45 ec	 mov	 DWORD PTR __Ptr$[ebp], eax
; File C:\Program Files (x86)\Microsoft Visual Studio\2019\Community\VC\Tools\MSVC\14.28.29333\include\xstddef

; 289  :     return _Ptr;

  0003b	8b 45 ec	 mov	 eax, DWORD PTR __Ptr$[ebp]
  0003e	89 45 f0	 mov	 DWORD PTR __Result$[ebp], eax
$LN2@Myptr:
; File C:\Program Files (x86)\Microsoft Visual Studio\2019\Community\VC\Tools\MSVC\14.28.29333\include\xstring

; 2214 :         return _Result;

  00041	8b 45 f0	 mov	 eax, DWORD PTR __Result$[ebp]

; 2215 :     }

  00044	c9		 leave
  00045	c3		 ret	 0
?_Myptr@?$_String_val@U?$_Simple_types@D@std@@@std@@QAEPADXZ ENDP ; std::_String_val<std::_Simple_types<char> >::_Myptr
_TEXT	ENDS
; Function compile flags: /Odspy
; File C:\Program Files (x86)\Microsoft Visual Studio\2019\Community\VC\Tools\MSVC\14.28.29333\include\xstring
;	COMDAT ?_Xlen_string@std@@YAXXZ
_TEXT	SEGMENT
?_Xlen_string@std@@YAXXZ PROC				; std::_Xlen_string, COMDAT

; 2274 : [[noreturn]] inline void _Xlen_string() {

  00000	55		 push	 ebp
  00001	8b ec		 mov	 ebp, esp

; 2275 :     _Xlength_error("string too long");

  00003	68 00 00 00 00	 push	 OFFSET ??_C@_0BA@JFNIOLAK@string?5too?5long@
  00008	e8 00 00 00 00	 call	 ?_Xlength_error@std@@YAXPBD@Z ; std::_Xlength_error
$LN2@Xlen_strin:

; 2276 : }

  0000d	5d		 pop	 ebp
  0000e	c3		 ret	 0
?_Xlen_string@std@@YAXXZ ENDP				; std::_Xlen_string
_TEXT	ENDS
; Function compile flags: /Odspy
; File C:\Program Files (x86)\Microsoft Visual Studio\2019\Community\VC\Tools\MSVC\14.28.29333\include\xmemory
;	COMDAT ?_Adjust_manually_vector_aligned@std@@YAXAAPAXAAI@Z
_TEXT	SEGMENT
__Min_back_shift$ = -16					; size = 4
__Ptr_user$ = -12					; size = 4
__Ptr_container$ = -8					; size = 4
__Back_shift$ = -4					; size = 4
__Ptr$ = 8						; size = 4
__Bytes$ = 12						; size = 4
?_Adjust_manually_vector_aligned@std@@YAXAAPAXAAI@Z PROC ; std::_Adjust_manually_vector_aligned, COMDAT

; 132  : inline void _Adjust_manually_vector_aligned(void*& _Ptr, size_t& _Bytes) {

  00000	55		 push	 ebp
  00001	8b ec		 mov	 ebp, esp
  00003	83 ec 10	 sub	 esp, 16			; 00000010H

; 133  :     // adjust parameters from _Allocate_manually_vector_aligned to pass to operator delete
; 134  :     _Bytes += _Non_user_size;

  00006	8b 45 0c	 mov	 eax, DWORD PTR __Bytes$[ebp]
  00009	8b 00		 mov	 eax, DWORD PTR [eax]
  0000b	83 c0 23	 add	 eax, 35			; 00000023H
  0000e	8b 4d 0c	 mov	 ecx, DWORD PTR __Bytes$[ebp]
  00011	89 01		 mov	 DWORD PTR [ecx], eax

; 135  : 
; 136  :     const uintptr_t* const _Ptr_user = reinterpret_cast<uintptr_t*>(_Ptr);

  00013	8b 45 08	 mov	 eax, DWORD PTR __Ptr$[ebp]
  00016	8b 00		 mov	 eax, DWORD PTR [eax]
  00018	89 45 f4	 mov	 DWORD PTR __Ptr_user$[ebp], eax

; 137  :     const uintptr_t _Ptr_container   = _Ptr_user[-1];

  0001b	6a 04		 push	 4
  0001d	58		 pop	 eax
  0001e	6b c0 ff	 imul	 eax, eax, -1
  00021	8b 4d f4	 mov	 ecx, DWORD PTR __Ptr_user$[ebp]
  00024	8b 04 01	 mov	 eax, DWORD PTR [ecx+eax]
  00027	89 45 f8	 mov	 DWORD PTR __Ptr_container$[ebp], eax

; 138  : 
; 139  :     // If the following asserts, it likely means that we are performing
; 140  :     // an aligned delete on memory coming from an unaligned allocation.
; 141  :     _STL_ASSERT(_Ptr_user[-2] == _Big_allocation_sentinel, "invalid argument");
; 142  : 
; 143  :     // Extra paranoia on aligned allocation/deallocation; ensure _Ptr_container is
; 144  :     // in range [_Min_back_shift, _Non_user_size]
; 145  : #ifdef _DEBUG
; 146  :     constexpr uintptr_t _Min_back_shift = 2 * sizeof(void*);
; 147  : #else // ^^^ _DEBUG ^^^ // vvv !_DEBUG vvv
; 148  :     constexpr uintptr_t _Min_back_shift = sizeof(void*);

  0002a	c7 45 f0 04 00
	00 00		 mov	 DWORD PTR __Min_back_shift$[ebp], 4

; 149  : #endif // _DEBUG
; 150  :     const uintptr_t _Back_shift = reinterpret_cast<uintptr_t>(_Ptr) - _Ptr_container;

  00031	8b 45 08	 mov	 eax, DWORD PTR __Ptr$[ebp]
  00034	8b 00		 mov	 eax, DWORD PTR [eax]
  00036	2b 45 f8	 sub	 eax, DWORD PTR __Ptr_container$[ebp]
  00039	89 45 fc	 mov	 DWORD PTR __Back_shift$[ebp], eax
$LN4@Adjust_man:

; 151  :     _STL_VERIFY(_Back_shift >= _Min_back_shift && _Back_shift <= _Non_user_size, "invalid argument");

  0003c	83 7d fc 04	 cmp	 DWORD PTR __Back_shift$[ebp], 4
  00040	72 08		 jb	 SHORT $LN7@Adjust_man
  00042	83 7d fc 23	 cmp	 DWORD PTR __Back_shift$[ebp], 35 ; 00000023H
  00046	77 02		 ja	 SHORT $LN7@Adjust_man
  00048	eb 09		 jmp	 SHORT $LN2@Adjust_man
$LN7@Adjust_man:
  0004a	e8 00 00 00 00	 call	 __invalid_parameter_noinfo_noreturn
  0004f	33 c0		 xor	 eax, eax
  00051	75 f7		 jne	 SHORT $LN7@Adjust_man
$LN2@Adjust_man:
  00053	33 c0		 xor	 eax, eax
  00055	75 e5		 jne	 SHORT $LN4@Adjust_man

; 152  :     _Ptr = reinterpret_cast<void*>(_Ptr_container);

  00057	8b 45 08	 mov	 eax, DWORD PTR __Ptr$[ebp]
  0005a	8b 4d f8	 mov	 ecx, DWORD PTR __Ptr_container$[ebp]
  0005d	89 08		 mov	 DWORD PTR [eax], ecx
$LN10@Adjust_man:

; 153  : }

  0005f	c9		 leave
  00060	c3		 ret	 0
?_Adjust_manually_vector_aligned@std@@YAXAAPAXAAI@Z ENDP ; std::_Adjust_manually_vector_aligned
_TEXT	ENDS
; Function compile flags: /Odspy
; File C:\Program Files (x86)\Microsoft Visual Studio\2019\Community\VC\Tools\MSVC\14.28.29333\include\exception
;	COMDAT ?_Throw_bad_array_new_length@std@@YAXXZ
_TEXT	SEGMENT
$T1 = -12						; size = 12
?_Throw_bad_array_new_length@std@@YAXXZ PROC		; std::_Throw_bad_array_new_length, COMDAT

; 320  : [[noreturn]] inline void _Throw_bad_array_new_length() {

  00000	55		 push	 ebp
  00001	8b ec		 mov	 ebp, esp
  00003	83 ec 0c	 sub	 esp, 12			; 0000000cH

; 321  :     _THROW(bad_array_new_length{});

  00006	8d 4d f4	 lea	 ecx, DWORD PTR $T1[ebp]
  00009	e8 00 00 00 00	 call	 ??0bad_array_new_length@std@@QAE@XZ ; std::bad_array_new_length::bad_array_new_length
  0000e	68 00 00 00 00	 push	 OFFSET __TI3?AVbad_array_new_length@std@@
  00013	8d 45 f4	 lea	 eax, DWORD PTR $T1[ebp]
  00016	50		 push	 eax
  00017	e8 00 00 00 00	 call	 __CxxThrowException@8
$LN2@Throw_bad_:

; 322  : }

  0001c	c9		 leave
  0001d	c3		 ret	 0
?_Throw_bad_array_new_length@std@@YAXXZ ENDP		; std::_Throw_bad_array_new_length
_TEXT	ENDS
; Function compile flags: /Odspy
; File C:\Program Files (x86)\Microsoft Visual Studio\2019\Community\VC\Tools\MSVC\14.28.29333\include\vcruntime_exception.h
;	COMDAT ??_Gbad_array_new_length@std@@UAEPAXI@Z
_TEXT	SEGMENT
_this$ = -4						; size = 4
___flags$ = 8						; size = 4
??_Gbad_array_new_length@std@@UAEPAXI@Z PROC		; std::bad_array_new_length::`scalar deleting destructor', COMDAT
; _this$ = ecx
  00000	55		 push	 ebp
  00001	8b ec		 mov	 ebp, esp
  00003	51		 push	 ecx
  00004	89 4d fc	 mov	 DWORD PTR _this$[ebp], ecx

; 89   :     {

  00007	8b 45 fc	 mov	 eax, DWORD PTR _this$[ebp]
  0000a	c7 00 00 00 00
	00		 mov	 DWORD PTR [eax], OFFSET ??_7exception@std@@6B@

; 90   :         __std_exception_destroy(&_Data);

  00010	8b 45 fc	 mov	 eax, DWORD PTR _this$[ebp]
  00013	83 c0 04	 add	 eax, 4
  00016	50		 push	 eax
  00017	e8 00 00 00 00	 call	 ___std_exception_destroy
  0001c	59		 pop	 ecx
  0001d	8b 45 08	 mov	 eax, DWORD PTR ___flags$[ebp]
  00020	83 e0 01	 and	 eax, 1
  00023	74 0c		 je	 SHORT $LN2@scalar
  00025	6a 0c		 push	 12			; 0000000cH
  00027	ff 75 fc	 push	 DWORD PTR _this$[ebp]
  0002a	e8 00 00 00 00	 call	 ??3@YAXPAXI@Z		; operator delete
  0002f	59		 pop	 ecx
  00030	59		 pop	 ecx
$LN2@scalar:
  00031	8b 45 fc	 mov	 eax, DWORD PTR _this$[ebp]
  00034	c9		 leave
  00035	c2 04 00	 ret	 4
??_Gbad_array_new_length@std@@UAEPAXI@Z ENDP		; std::bad_array_new_length::`scalar deleting destructor'
_TEXT	ENDS
; Function compile flags: /Odspy
;	COMDAT ??0bad_array_new_length@std@@QAE@ABV01@@Z
_TEXT	SEGMENT
_this$ = -4						; size = 4
___that$ = 8						; size = 4
??0bad_array_new_length@std@@QAE@ABV01@@Z PROC		; std::bad_array_new_length::bad_array_new_length, COMDAT
; _this$ = ecx
  00000	55		 push	 ebp
  00001	8b ec		 mov	 ebp, esp
  00003	51		 push	 ecx
  00004	89 4d fc	 mov	 DWORD PTR _this$[ebp], ecx
  00007	ff 75 08	 push	 DWORD PTR ___that$[ebp]
  0000a	8b 4d fc	 mov	 ecx, DWORD PTR _this$[ebp]
  0000d	e8 00 00 00 00	 call	 ??0exception@std@@QAE@ABV01@@Z ; std::exception::exception
  00012	8b 45 fc	 mov	 eax, DWORD PTR _this$[ebp]
  00015	c7 00 00 00 00
	00		 mov	 DWORD PTR [eax], OFFSET ??_7bad_alloc@std@@6B@
  0001b	8b 45 fc	 mov	 eax, DWORD PTR _this$[ebp]
  0001e	c7 00 00 00 00
	00		 mov	 DWORD PTR [eax], OFFSET ??_7bad_array_new_length@std@@6B@
  00024	8b 45 fc	 mov	 eax, DWORD PTR _this$[ebp]
  00027	c9		 leave
  00028	c2 04 00	 ret	 4
??0bad_array_new_length@std@@QAE@ABV01@@Z ENDP		; std::bad_array_new_length::bad_array_new_length
_TEXT	ENDS
; Function compile flags: /Odspy
; File C:\Program Files (x86)\Microsoft Visual Studio\2019\Community\VC\Tools\MSVC\14.28.29333\include\vcruntime_exception.h
;	COMDAT ??1bad_array_new_length@std@@UAE@XZ
_TEXT	SEGMENT
_this$ = -4						; size = 4
??1bad_array_new_length@std@@UAE@XZ PROC		; std::bad_array_new_length::~bad_array_new_length, COMDAT
; _this$ = ecx
  00000	55		 push	 ebp
  00001	8b ec		 mov	 ebp, esp
  00003	51		 push	 ecx
  00004	89 4d fc	 mov	 DWORD PTR _this$[ebp], ecx

; 89   :     {

  00007	8b 45 fc	 mov	 eax, DWORD PTR _this$[ebp]
  0000a	c7 00 00 00 00
	00		 mov	 DWORD PTR [eax], OFFSET ??_7exception@std@@6B@

; 90   :         __std_exception_destroy(&_Data);

  00010	8b 45 fc	 mov	 eax, DWORD PTR _this$[ebp]
  00013	83 c0 04	 add	 eax, 4
  00016	50		 push	 eax
  00017	e8 00 00 00 00	 call	 ___std_exception_destroy
  0001c	59		 pop	 ecx
  0001d	c9		 leave
  0001e	c3		 ret	 0
??1bad_array_new_length@std@@UAE@XZ ENDP		; std::bad_array_new_length::~bad_array_new_length
_TEXT	ENDS
; Function compile flags: /Odspy
; File C:\Program Files (x86)\Microsoft Visual Studio\2019\Community\VC\Tools\MSVC\14.28.29333\include\vcruntime_exception.h
;	COMDAT ??0bad_array_new_length@std@@QAE@XZ
_TEXT	SEGMENT
_this$ = -4						; size = 4
??0bad_array_new_length@std@@QAE@XZ PROC		; std::bad_array_new_length::bad_array_new_length, COMDAT
; _this$ = ecx

; 141  :     {

  00000	55		 push	 ebp
  00001	8b ec		 mov	 ebp, esp
  00003	51		 push	 ecx
  00004	89 4d fc	 mov	 DWORD PTR _this$[ebp], ecx

; 66   :     {

  00007	8b 45 fc	 mov	 eax, DWORD PTR _this$[ebp]
  0000a	c7 00 00 00 00
	00		 mov	 DWORD PTR [eax], OFFSET ??_7exception@std@@6B@

; 65   :         : _Data()

  00010	33 c0		 xor	 eax, eax
  00012	8b 4d fc	 mov	 ecx, DWORD PTR _this$[ebp]
  00015	83 c1 04	 add	 ecx, 4
  00018	89 01		 mov	 DWORD PTR [ecx], eax
  0001a	89 41 04	 mov	 DWORD PTR [ecx+4], eax

; 67   :         _Data._What = _Message;

  0001d	8b 45 fc	 mov	 eax, DWORD PTR _this$[ebp]
  00020	c7 40 04 00 00
	00 00		 mov	 DWORD PTR [eax+4], OFFSET ??_C@_0BF@KINCDENJ@bad?5array?5new?5length@

; 130  :     {

  00027	8b 45 fc	 mov	 eax, DWORD PTR _this$[ebp]
  0002a	c7 00 00 00 00
	00		 mov	 DWORD PTR [eax], OFFSET ??_7bad_alloc@std@@6B@

; 141  :     {

  00030	8b 45 fc	 mov	 eax, DWORD PTR _this$[ebp]
  00033	c7 00 00 00 00
	00		 mov	 DWORD PTR [eax], OFFSET ??_7bad_array_new_length@std@@6B@

; 142  :     }

  00039	8b 45 fc	 mov	 eax, DWORD PTR _this$[ebp]
  0003c	c9		 leave
  0003d	c3		 ret	 0
??0bad_array_new_length@std@@QAE@XZ ENDP		; std::bad_array_new_length::bad_array_new_length
_TEXT	ENDS
; Function compile flags: /Odspy
; File C:\Program Files (x86)\Microsoft Visual Studio\2019\Community\VC\Tools\MSVC\14.28.29333\include\vcruntime_exception.h
;	COMDAT ??_Gbad_alloc@std@@UAEPAXI@Z
_TEXT	SEGMENT
_this$ = -4						; size = 4
___flags$ = 8						; size = 4
??_Gbad_alloc@std@@UAEPAXI@Z PROC			; std::bad_alloc::`scalar deleting destructor', COMDAT
; _this$ = ecx
  00000	55		 push	 ebp
  00001	8b ec		 mov	 ebp, esp
  00003	51		 push	 ecx
  00004	89 4d fc	 mov	 DWORD PTR _this$[ebp], ecx

; 89   :     {

  00007	8b 45 fc	 mov	 eax, DWORD PTR _this$[ebp]
  0000a	c7 00 00 00 00
	00		 mov	 DWORD PTR [eax], OFFSET ??_7exception@std@@6B@

; 90   :         __std_exception_destroy(&_Data);

  00010	8b 45 fc	 mov	 eax, DWORD PTR _this$[ebp]
  00013	83 c0 04	 add	 eax, 4
  00016	50		 push	 eax
  00017	e8 00 00 00 00	 call	 ___std_exception_destroy
  0001c	59		 pop	 ecx
  0001d	8b 45 08	 mov	 eax, DWORD PTR ___flags$[ebp]
  00020	83 e0 01	 and	 eax, 1
  00023	74 0c		 je	 SHORT $LN2@scalar
  00025	6a 0c		 push	 12			; 0000000cH
  00027	ff 75 fc	 push	 DWORD PTR _this$[ebp]
  0002a	e8 00 00 00 00	 call	 ??3@YAXPAXI@Z		; operator delete
  0002f	59		 pop	 ecx
  00030	59		 pop	 ecx
$LN2@scalar:
  00031	8b 45 fc	 mov	 eax, DWORD PTR _this$[ebp]
  00034	c9		 leave
  00035	c2 04 00	 ret	 4
??_Gbad_alloc@std@@UAEPAXI@Z ENDP			; std::bad_alloc::`scalar deleting destructor'
_TEXT	ENDS
; Function compile flags: /Odspy
;	COMDAT ??0bad_alloc@std@@QAE@ABV01@@Z
_TEXT	SEGMENT
_this$ = -4						; size = 4
___that$ = 8						; size = 4
??0bad_alloc@std@@QAE@ABV01@@Z PROC			; std::bad_alloc::bad_alloc, COMDAT
; _this$ = ecx
  00000	55		 push	 ebp
  00001	8b ec		 mov	 ebp, esp
  00003	51		 push	 ecx
  00004	89 4d fc	 mov	 DWORD PTR _this$[ebp], ecx
  00007	ff 75 08	 push	 DWORD PTR ___that$[ebp]
  0000a	8b 4d fc	 mov	 ecx, DWORD PTR _this$[ebp]
  0000d	e8 00 00 00 00	 call	 ??0exception@std@@QAE@ABV01@@Z ; std::exception::exception
  00012	8b 45 fc	 mov	 eax, DWORD PTR _this$[ebp]
  00015	c7 00 00 00 00
	00		 mov	 DWORD PTR [eax], OFFSET ??_7bad_alloc@std@@6B@
  0001b	8b 45 fc	 mov	 eax, DWORD PTR _this$[ebp]
  0001e	c9		 leave
  0001f	c2 04 00	 ret	 4
??0bad_alloc@std@@QAE@ABV01@@Z ENDP			; std::bad_alloc::bad_alloc
_TEXT	ENDS
; Function compile flags: /Odspy
; File C:\Program Files (x86)\Microsoft Visual Studio\2019\Community\VC\Tools\MSVC\14.28.29333\include\vcruntime_exception.h
;	COMDAT ??_Gexception@std@@UAEPAXI@Z
_TEXT	SEGMENT
_this$ = -4						; size = 4
___flags$ = 8						; size = 4
??_Gexception@std@@UAEPAXI@Z PROC			; std::exception::`scalar deleting destructor', COMDAT
; _this$ = ecx
  00000	55		 push	 ebp
  00001	8b ec		 mov	 ebp, esp
  00003	51		 push	 ecx
  00004	89 4d fc	 mov	 DWORD PTR _this$[ebp], ecx

; 89   :     {

  00007	8b 45 fc	 mov	 eax, DWORD PTR _this$[ebp]
  0000a	c7 00 00 00 00
	00		 mov	 DWORD PTR [eax], OFFSET ??_7exception@std@@6B@

; 90   :         __std_exception_destroy(&_Data);

  00010	8b 45 fc	 mov	 eax, DWORD PTR _this$[ebp]
  00013	83 c0 04	 add	 eax, 4
  00016	50		 push	 eax
  00017	e8 00 00 00 00	 call	 ___std_exception_destroy
  0001c	59		 pop	 ecx
  0001d	8b 45 08	 mov	 eax, DWORD PTR ___flags$[ebp]
  00020	83 e0 01	 and	 eax, 1
  00023	74 0c		 je	 SHORT $LN2@scalar
  00025	6a 0c		 push	 12			; 0000000cH
  00027	ff 75 fc	 push	 DWORD PTR _this$[ebp]
  0002a	e8 00 00 00 00	 call	 ??3@YAXPAXI@Z		; operator delete
  0002f	59		 pop	 ecx
  00030	59		 pop	 ecx
$LN2@scalar:
  00031	8b 45 fc	 mov	 eax, DWORD PTR _this$[ebp]
  00034	c9		 leave
  00035	c2 04 00	 ret	 4
??_Gexception@std@@UAEPAXI@Z ENDP			; std::exception::`scalar deleting destructor'
_TEXT	ENDS
; Function compile flags: /Odspy
; File C:\Program Files (x86)\Microsoft Visual Studio\2019\Community\VC\Tools\MSVC\14.28.29333\include\vcruntime_exception.h
;	COMDAT ?what@exception@std@@UBEPBDXZ
_TEXT	SEGMENT
tv69 = -8						; size = 4
_this$ = -4						; size = 4
?what@exception@std@@UBEPBDXZ PROC			; std::exception::what, COMDAT
; _this$ = ecx

; 94   :     {

  00000	55		 push	 ebp
  00001	8b ec		 mov	 ebp, esp
  00003	51		 push	 ecx
  00004	51		 push	 ecx
  00005	89 4d fc	 mov	 DWORD PTR _this$[ebp], ecx

; 95   :         return _Data._What ? _Data._What : "Unknown exception";

  00008	8b 45 fc	 mov	 eax, DWORD PTR _this$[ebp]
  0000b	83 78 04 00	 cmp	 DWORD PTR [eax+4], 0
  0000f	74 0b		 je	 SHORT $LN3@what
  00011	8b 45 fc	 mov	 eax, DWORD PTR _this$[ebp]
  00014	8b 40 04	 mov	 eax, DWORD PTR [eax+4]
  00017	89 45 f8	 mov	 DWORD PTR tv69[ebp], eax
  0001a	eb 07		 jmp	 SHORT $LN4@what
$LN3@what:
  0001c	c7 45 f8 00 00
	00 00		 mov	 DWORD PTR tv69[ebp], OFFSET ??_C@_0BC@EOODALEL@Unknown?5exception@
$LN4@what:
  00023	8b 45 f8	 mov	 eax, DWORD PTR tv69[ebp]

; 96   :     }

  00026	c9		 leave
  00027	c3		 ret	 0
?what@exception@std@@UBEPBDXZ ENDP			; std::exception::what
_TEXT	ENDS
; Function compile flags: /Odspy
; File C:\Program Files (x86)\Microsoft Visual Studio\2019\Community\VC\Tools\MSVC\14.28.29333\include\vcruntime_exception.h
;	COMDAT ??0exception@std@@QAE@ABV01@@Z
_TEXT	SEGMENT
_this$ = -4						; size = 4
__Other$ = 8						; size = 4
??0exception@std@@QAE@ABV01@@Z PROC			; std::exception::exception, COMDAT
; _this$ = ecx

; 72   :     {

  00000	55		 push	 ebp
  00001	8b ec		 mov	 ebp, esp
  00003	51		 push	 ecx
  00004	89 4d fc	 mov	 DWORD PTR _this$[ebp], ecx
  00007	8b 45 fc	 mov	 eax, DWORD PTR _this$[ebp]
  0000a	c7 00 00 00 00
	00		 mov	 DWORD PTR [eax], OFFSET ??_7exception@std@@6B@

; 71   :         : _Data()

  00010	33 c0		 xor	 eax, eax
  00012	8b 4d fc	 mov	 ecx, DWORD PTR _this$[ebp]
  00015	83 c1 04	 add	 ecx, 4
  00018	89 01		 mov	 DWORD PTR [ecx], eax
  0001a	89 41 04	 mov	 DWORD PTR [ecx+4], eax

; 73   :         __std_exception_copy(&_Other._Data, &_Data);

  0001d	8b 45 fc	 mov	 eax, DWORD PTR _this$[ebp]
  00020	83 c0 04	 add	 eax, 4
  00023	50		 push	 eax
  00024	8b 45 08	 mov	 eax, DWORD PTR __Other$[ebp]
  00027	83 c0 04	 add	 eax, 4
  0002a	50		 push	 eax
  0002b	e8 00 00 00 00	 call	 ___std_exception_copy
  00030	59		 pop	 ecx
  00031	59		 pop	 ecx

; 74   :     }

  00032	8b 45 fc	 mov	 eax, DWORD PTR _this$[ebp]
  00035	c9		 leave
  00036	c2 04 00	 ret	 4
??0exception@std@@QAE@ABV01@@Z ENDP			; std::exception::exception
_TEXT	ENDS
END
