; Listing generated by Microsoft (R) Optimizing Compiler Version 19.28.29335.0 

	TITLE	D:\Metin2 Server Files\mainline\SRC_2014\Metin2Client\EterLib\GrpImage.cpp
	.686P
	.XMM
	include listing.inc
	.model	flat

INCLUDELIB LIBCMT
INCLUDELIB OLDNAMES

PUBLIC	?_Myptr@?$_String_val@U?$_Simple_types@D@std@@@std@@QBEPBDXZ ; std::_String_val<std::_Simple_types<char> >::_Myptr
PUBLIC	?Type@CGraphicImage@@SAKXZ			; CGraphicImage::Type
PUBLIC	??0CGraphicImage@@QAE@PBDK@Z			; CGraphicImage::CGraphicImage
PUBLIC	??1CGraphicImage@@UAE@XZ			; CGraphicImage::~CGraphicImage
PUBLIC	?CreateDeviceObjects@CGraphicImage@@UAE_NXZ	; CGraphicImage::CreateDeviceObjects
PUBLIC	?DestroyDeviceObjects@CGraphicImage@@UAEXXZ	; CGraphicImage::DestroyDeviceObjects
PUBLIC	?GetWidth@CGraphicImage@@QBEHXZ			; CGraphicImage::GetWidth
PUBLIC	?GetHeight@CGraphicImage@@QBEHXZ		; CGraphicImage::GetHeight
PUBLIC	?GetRectReference@CGraphicImage@@QBEABUtagRECT@@XZ ; CGraphicImage::GetRectReference
PUBLIC	?GetTextureReference@CGraphicImage@@QBEABVCGraphicTexture@@XZ ; CGraphicImage::GetTextureReference
PUBLIC	?GetTexturePointer@CGraphicImage@@QAEPAVCGraphicTexture@@XZ ; CGraphicImage::GetTexturePointer
PUBLIC	?OnLoad@CGraphicImage@@MAE_NHPBX@Z		; CGraphicImage::OnLoad
PUBLIC	?OnClear@CGraphicImage@@MAEXXZ			; CGraphicImage::OnClear
PUBLIC	?OnIsEmpty@CGraphicImage@@MBE_NXZ		; CGraphicImage::OnIsEmpty
PUBLIC	?OnIsType@CGraphicImage@@MAE_NK@Z		; CGraphicImage::OnIsType
PUBLIC	??_GCGraphicImage@@UAEPAXI@Z			; CGraphicImage::`scalar deleting destructor'
PUBLIC	??_7CGraphicImage@@6B@				; CGraphicImage::`vftable'
PUBLIC	??_C@_0O@HBDMOEMH@CGraphicImage@		; `string'
PUBLIC	??_R4CGraphicImage@@6B@				; CGraphicImage::`RTTI Complete Object Locator'
PUBLIC	??_R0?AVCGraphicImage@@@8			; CGraphicImage `RTTI Type Descriptor'
PUBLIC	??_R3CGraphicImage@@8				; CGraphicImage::`RTTI Class Hierarchy Descriptor'
PUBLIC	??_R2CGraphicImage@@8				; CGraphicImage::`RTTI Base Class Array'
PUBLIC	??_R1A@?0A@EA@CGraphicImage@@8			; CGraphicImage::`RTTI Base Class Descriptor at (0,-1,0,64)'
PUBLIC	??_R1A@?0A@EA@CResource@@8			; CResource::`RTTI Base Class Descriptor at (0,-1,0,64)'
PUBLIC	??_R0?AVCResource@@@8				; CResource `RTTI Type Descriptor'
PUBLIC	??_R3CResource@@8				; CResource::`RTTI Class Hierarchy Descriptor'
PUBLIC	??_R2CResource@@8				; CResource::`RTTI Base Class Array'
PUBLIC	??_R1A@?0A@EA@CReferenceObject@@8		; CReferenceObject::`RTTI Base Class Descriptor at (0,-1,0,64)'
PUBLIC	??_R0?AVCReferenceObject@@@8			; CReferenceObject `RTTI Type Descriptor'
PUBLIC	??_R3CReferenceObject@@8			; CReferenceObject::`RTTI Class Hierarchy Descriptor'
PUBLIC	??_R2CReferenceObject@@8			; CReferenceObject::`RTTI Base Class Array'
EXTRN	??3@YAXPAXI@Z:PROC				; operator delete
EXTRN	__Init_thread_header:PROC
EXTRN	__Init_thread_abort:PROC
EXTRN	__Init_thread_footer:PROC
EXTRN	_memset:PROC
EXTRN	?StringToType@CResource@@SAKPBD@Z:PROC		; CResource::StringToType
EXTRN	??0CResource@@QAE@PBD@Z:PROC			; CResource::CResource
EXTRN	??1CResource@@UAE@XZ:PROC			; CResource::~CResource
EXTRN	?OnIsType@CResource@@MAE_NK@Z:PROC		; CResource::OnIsType
EXTRN	?OnConstruct@CResource@@MAEXXZ:PROC		; CResource::OnConstruct
EXTRN	?OnSelfDestruct@CResource@@MAEXXZ:PROC		; CResource::OnSelfDestruct
EXTRN	?GetWidth@CGraphicTexture@@QBEHXZ:PROC		; CGraphicTexture::GetWidth
EXTRN	?GetHeight@CGraphicTexture@@QBEHXZ:PROC		; CGraphicTexture::GetHeight
EXTRN	?DestroyDeviceObjects@CGraphicTexture@@QAEXXZ:PROC ; CGraphicTexture::DestroyDeviceObjects
EXTRN	??0CGraphicImageTexture@@QAE@XZ:PROC		; CGraphicImageTexture::CGraphicImageTexture
EXTRN	??1CGraphicImageTexture@@UAE@XZ:PROC		; CGraphicImageTexture::~CGraphicImageTexture
EXTRN	?Destroy@CGraphicImageTexture@@QAEXXZ:PROC	; CGraphicImageTexture::Destroy
EXTRN	?CreateDeviceObjects@CGraphicImageTexture@@QAE_NXZ:PROC ; CGraphicImageTexture::CreateDeviceObjects
EXTRN	?CreateFromMemoryFile@CGraphicImageTexture@@QAE_NIPBXW4_D3DFORMAT@@K@Z:PROC ; CGraphicImageTexture::CreateFromMemoryFile
EXTRN	?SetFileName@CGraphicImageTexture@@QAEXPBD@Z:PROC ; CGraphicImageTexture::SetFileName
EXTRN	??_ECGraphicImage@@UAEPAXI@Z:PROC		; CGraphicImage::`vector deleting destructor'
EXTRN	@__security_check_cookie@4:PROC
EXTRN	___CxxFrameHandler3:PROC
EXTRN	__Init_thread_epoch:DWORD
EXTRN	??_7type_info@@6B@:QWORD			; type_info::`vftable'
EXTRN	___security_cookie:DWORD
EXTRN	__tls_array:DWORD
EXTRN	__tls_index:DWORD
;	COMDAT ?s_type@?1??Type@CGraphicImage@@SAKXZ@4KA
_BSS	SEGMENT
?s_type@?1??Type@CGraphicImage@@SAKXZ@4KA DD 01H DUP (?) ; `CGraphicImage::Type'::`2'::s_type
_BSS	ENDS
;	COMDAT ?$TSS0@?1??Type@CGraphicImage@@SAKXZ@4HA
_BSS	SEGMENT
?$TSS0@?1??Type@CGraphicImage@@SAKXZ@4HA DD 01H DUP (?)	; `CGraphicImage::Type'::`2'::$TSS0
_BSS	ENDS
;	COMDAT ??_R2CReferenceObject@@8
rdata$r	SEGMENT
??_R2CReferenceObject@@8 DD FLAT:??_R1A@?0A@EA@CReferenceObject@@8 ; CReferenceObject::`RTTI Base Class Array'
rdata$r	ENDS
;	COMDAT ??_R3CReferenceObject@@8
rdata$r	SEGMENT
??_R3CReferenceObject@@8 DD 00H				; CReferenceObject::`RTTI Class Hierarchy Descriptor'
	DD	00H
	DD	01H
	DD	FLAT:??_R2CReferenceObject@@8
rdata$r	ENDS
;	COMDAT ??_R0?AVCReferenceObject@@@8
data$rs	SEGMENT
??_R0?AVCReferenceObject@@@8 DD FLAT:??_7type_info@@6B@	; CReferenceObject `RTTI Type Descriptor'
	DD	00H
	DB	'.?AVCReferenceObject@@', 00H
data$rs	ENDS
;	COMDAT ??_R1A@?0A@EA@CReferenceObject@@8
rdata$r	SEGMENT
??_R1A@?0A@EA@CReferenceObject@@8 DD FLAT:??_R0?AVCReferenceObject@@@8 ; CReferenceObject::`RTTI Base Class Descriptor at (0,-1,0,64)'
	DD	00H
	DD	00H
	DD	0ffffffffH
	DD	00H
	DD	040H
	DD	FLAT:??_R3CReferenceObject@@8
rdata$r	ENDS
;	COMDAT ??_R2CResource@@8
rdata$r	SEGMENT
??_R2CResource@@8 DD FLAT:??_R1A@?0A@EA@CResource@@8	; CResource::`RTTI Base Class Array'
	DD	FLAT:??_R1A@?0A@EA@CReferenceObject@@8
rdata$r	ENDS
;	COMDAT ??_R3CResource@@8
rdata$r	SEGMENT
??_R3CResource@@8 DD 00H				; CResource::`RTTI Class Hierarchy Descriptor'
	DD	00H
	DD	02H
	DD	FLAT:??_R2CResource@@8
rdata$r	ENDS
;	COMDAT ??_R0?AVCResource@@@8
data$rs	SEGMENT
??_R0?AVCResource@@@8 DD FLAT:??_7type_info@@6B@	; CResource `RTTI Type Descriptor'
	DD	00H
	DB	'.?AVCResource@@', 00H
data$rs	ENDS
;	COMDAT ??_R1A@?0A@EA@CResource@@8
rdata$r	SEGMENT
??_R1A@?0A@EA@CResource@@8 DD FLAT:??_R0?AVCResource@@@8 ; CResource::`RTTI Base Class Descriptor at (0,-1,0,64)'
	DD	01H
	DD	00H
	DD	0ffffffffH
	DD	00H
	DD	040H
	DD	FLAT:??_R3CResource@@8
rdata$r	ENDS
;	COMDAT ??_R1A@?0A@EA@CGraphicImage@@8
rdata$r	SEGMENT
??_R1A@?0A@EA@CGraphicImage@@8 DD FLAT:??_R0?AVCGraphicImage@@@8 ; CGraphicImage::`RTTI Base Class Descriptor at (0,-1,0,64)'
	DD	02H
	DD	00H
	DD	0ffffffffH
	DD	00H
	DD	040H
	DD	FLAT:??_R3CGraphicImage@@8
rdata$r	ENDS
;	COMDAT ??_R2CGraphicImage@@8
rdata$r	SEGMENT
??_R2CGraphicImage@@8 DD FLAT:??_R1A@?0A@EA@CGraphicImage@@8 ; CGraphicImage::`RTTI Base Class Array'
	DD	FLAT:??_R1A@?0A@EA@CResource@@8
	DD	FLAT:??_R1A@?0A@EA@CReferenceObject@@8
rdata$r	ENDS
;	COMDAT ??_R3CGraphicImage@@8
rdata$r	SEGMENT
??_R3CGraphicImage@@8 DD 00H				; CGraphicImage::`RTTI Class Hierarchy Descriptor'
	DD	00H
	DD	03H
	DD	FLAT:??_R2CGraphicImage@@8
rdata$r	ENDS
;	COMDAT ??_R0?AVCGraphicImage@@@8
data$rs	SEGMENT
??_R0?AVCGraphicImage@@@8 DD FLAT:??_7type_info@@6B@	; CGraphicImage `RTTI Type Descriptor'
	DD	00H
	DB	'.?AVCGraphicImage@@', 00H
data$rs	ENDS
;	COMDAT ??_R4CGraphicImage@@6B@
rdata$r	SEGMENT
??_R4CGraphicImage@@6B@ DD 00H				; CGraphicImage::`RTTI Complete Object Locator'
	DD	00H
	DD	00H
	DD	FLAT:??_R0?AVCGraphicImage@@@8
	DD	FLAT:??_R3CGraphicImage@@8
rdata$r	ENDS
;	COMDAT ??_C@_0O@HBDMOEMH@CGraphicImage@
CONST	SEGMENT
??_C@_0O@HBDMOEMH@CGraphicImage@ DB 'CGraphicImage', 00H ; `string'
CONST	ENDS
;	COMDAT ??_7CGraphicImage@@6B@
CONST	SEGMENT
??_7CGraphicImage@@6B@ DD FLAT:??_R4CGraphicImage@@6B@	; CGraphicImage::`vftable'
	DD	FLAT:??_ECGraphicImage@@UAEPAXI@Z
	DD	FLAT:?OnConstruct@CResource@@MAEXXZ
	DD	FLAT:?OnSelfDestruct@CResource@@MAEXXZ
	DD	FLAT:?CreateDeviceObjects@CGraphicImage@@UAE_NXZ
	DD	FLAT:?DestroyDeviceObjects@CGraphicImage@@UAEXXZ
	DD	FLAT:?OnLoad@CGraphicImage@@MAE_NHPBX@Z
	DD	FLAT:?OnClear@CGraphicImage@@MAEXXZ
	DD	FLAT:?OnIsEmpty@CGraphicImage@@MBE_NXZ
	DD	FLAT:?OnIsType@CGraphicImage@@MAE_NK@Z
CONST	ENDS
;	COMDAT xdata$x
xdata$x	SEGMENT
__unwindtable$??0CGraphicImage@@QAE@PBDK@Z DD 0ffffffffH
	DD	FLAT:__unwindfunclet$??0CGraphicImage@@QAE@PBDK@Z$0
__ehfuncinfo$??0CGraphicImage@@QAE@PBDK@Z DD 019930522H
	DD	01H
	DD	FLAT:__unwindtable$??0CGraphicImage@@QAE@PBDK@Z
	DD	2 DUP(00H)
	DD	2 DUP(00H)
	DD	00H
	DD	01H
xdata$x	ENDS
;	COMDAT xdata$x
xdata$x	SEGMENT
__unwindtable$?Type@CGraphicImage@@SAKXZ DD 0ffffffffH
	DD	FLAT:__unwindfunclet$?Type@CGraphicImage@@SAKXZ$0
__ehfuncinfo$?Type@CGraphicImage@@SAKXZ DD 019930522H
	DD	01H
	DD	FLAT:__unwindtable$?Type@CGraphicImage@@SAKXZ
	DD	2 DUP(00H)
	DD	2 DUP(00H)
	DD	00H
	DD	01H
xdata$x	ENDS
; Function compile flags: /Odspy
;	COMDAT ??_GCGraphicImage@@UAEPAXI@Z
_TEXT	SEGMENT
_this$ = -4						; size = 4
___flags$ = 8						; size = 4
??_GCGraphicImage@@UAEPAXI@Z PROC			; CGraphicImage::`scalar deleting destructor', COMDAT
; _this$ = ecx
  00000	55		 push	 ebp
  00001	8b ec		 mov	 ebp, esp
  00003	51		 push	 ecx
  00004	89 4d fc	 mov	 DWORD PTR _this$[ebp], ecx
  00007	8b 4d fc	 mov	 ecx, DWORD PTR _this$[ebp]
  0000a	e8 00 00 00 00	 call	 ??1CGraphicImage@@UAE@XZ ; CGraphicImage::~CGraphicImage
  0000f	8b 45 08	 mov	 eax, DWORD PTR ___flags$[ebp]
  00012	83 e0 01	 and	 eax, 1
  00015	74 0c		 je	 SHORT $LN2@scalar
  00017	6a 74		 push	 116			; 00000074H
  00019	ff 75 fc	 push	 DWORD PTR _this$[ebp]
  0001c	e8 00 00 00 00	 call	 ??3@YAXPAXI@Z		; operator delete
  00021	59		 pop	 ecx
  00022	59		 pop	 ecx
$LN2@scalar:
  00023	8b 45 fc	 mov	 eax, DWORD PTR _this$[ebp]
  00026	c9		 leave
  00027	c2 04 00	 ret	 4
??_GCGraphicImage@@UAEPAXI@Z ENDP			; CGraphicImage::`scalar deleting destructor'
_TEXT	ENDS
; Function compile flags: /Odspy
; File D:\Metin2 Server Files\mainline\SRC_2014\Metin2Client\EterLib\GrpImage.cpp
;	COMDAT ?OnIsType@CGraphicImage@@MAE_NK@Z
_TEXT	SEGMENT
_this$ = -4						; size = 4
_type$ = 8						; size = 4
?OnIsType@CGraphicImage@@MAE_NK@Z PROC			; CGraphicImage::OnIsType, COMDAT
; _this$ = ecx

; 32   : {

  00000	55		 push	 ebp
  00001	8b ec		 mov	 ebp, esp
  00003	51		 push	 ecx
  00004	89 4d fc	 mov	 DWORD PTR _this$[ebp], ecx

; 33   : 	if (CGraphicImage::Type() == type)

  00007	e8 00 00 00 00	 call	 ?Type@CGraphicImage@@SAKXZ ; CGraphicImage::Type
  0000c	3b 45 08	 cmp	 eax, DWORD PTR _type$[ebp]
  0000f	75 04		 jne	 SHORT $LN2@OnIsType

; 34   : 		return true;

  00011	b0 01		 mov	 al, 1
  00013	eb 0b		 jmp	 SHORT $LN1@OnIsType
$LN2@OnIsType:

; 35   : 
; 36   : 	return CResource::OnIsType(type);

  00015	ff 75 08	 push	 DWORD PTR _type$[ebp]
  00018	8b 4d fc	 mov	 ecx, DWORD PTR _this$[ebp]
  0001b	e8 00 00 00 00	 call	 ?OnIsType@CResource@@MAE_NK@Z ; CResource::OnIsType
$LN1@OnIsType:

; 37   : }

  00020	c9		 leave
  00021	c2 04 00	 ret	 4
?OnIsType@CGraphicImage@@MAE_NK@Z ENDP			; CGraphicImage::OnIsType
_TEXT	ENDS
; Function compile flags: /Odspy
; File D:\Metin2 Server Files\mainline\SRC_2014\Metin2Client\EterLib\GrpImage.cpp
;	COMDAT ?OnIsEmpty@CGraphicImage@@MBE_NXZ
_TEXT	SEGMENT
_this$ = -4						; size = 4
?OnIsEmpty@CGraphicImage@@MBE_NXZ PROC			; CGraphicImage::OnIsEmpty, COMDAT
; _this$ = ecx

; 90   : {

  00000	55		 push	 ebp
  00001	8b ec		 mov	 ebp, esp
  00003	51		 push	 ecx
  00004	89 4d fc	 mov	 DWORD PTR _this$[ebp], ecx

; 91   : 	return m_imageTexture.IsEmpty();

  00007	8b 4d fc	 mov	 ecx, DWORD PTR _this$[ebp]
  0000a	83 c1 2c	 add	 ecx, 44			; 0000002cH
  0000d	8b 45 fc	 mov	 eax, DWORD PTR _this$[ebp]
  00010	8b 40 2c	 mov	 eax, DWORD PTR [eax+44]
  00013	ff 50 04	 call	 DWORD PTR [eax+4]

; 92   : }

  00016	c9		 leave
  00017	c3		 ret	 0
?OnIsEmpty@CGraphicImage@@MBE_NXZ ENDP			; CGraphicImage::OnIsEmpty
_TEXT	ENDS
; Function compile flags: /Odspy
; File D:\Metin2 Server Files\mainline\SRC_2014\Metin2Client\EterLib\GrpImage.cpp
;	COMDAT ?OnClear@CGraphicImage@@MAEXXZ
_TEXT	SEGMENT
_this$ = -4						; size = 4
?OnClear@CGraphicImage@@MAEXXZ PROC			; CGraphicImage::OnClear, COMDAT
; _this$ = ecx

; 83   : {

  00000	55		 push	 ebp
  00001	8b ec		 mov	 ebp, esp
  00003	51		 push	 ecx
  00004	89 4d fc	 mov	 DWORD PTR _this$[ebp], ecx

; 84   : //	Tracef("Image Destroy : %s\n", m_pszFileName);
; 85   : 	m_imageTexture.Destroy();

  00007	8b 4d fc	 mov	 ecx, DWORD PTR _this$[ebp]
  0000a	83 c1 2c	 add	 ecx, 44			; 0000002cH
  0000d	e8 00 00 00 00	 call	 ?Destroy@CGraphicImageTexture@@QAEXXZ ; CGraphicImageTexture::Destroy

; 86   : 	memset(&m_rect, 0, sizeof(m_rect));

  00012	6a 10		 push	 16			; 00000010H
  00014	6a 00		 push	 0
  00016	8b 45 fc	 mov	 eax, DWORD PTR _this$[ebp]
  00019	83 c0 60	 add	 eax, 96			; 00000060H
  0001c	50		 push	 eax
  0001d	e8 00 00 00 00	 call	 _memset
  00022	83 c4 0c	 add	 esp, 12			; 0000000cH

; 87   : }

  00025	c9		 leave
  00026	c3		 ret	 0
?OnClear@CGraphicImage@@MAEXXZ ENDP			; CGraphicImage::OnClear
_TEXT	ENDS
; Function compile flags: /Odspy
; File D:\Metin2 Server Files\mainline\SRC_2014\Metin2Client\EterLib\GrpImage.cpp
; File C:\Program Files (x86)\Microsoft Visual Studio\2019\Community\VC\Tools\MSVC\14.28.29333\include\xstring
; File D:\Metin2 Server Files\mainline\SRC_2014\Metin2Client\EterLib\GrpImage.cpp
;	COMDAT ?OnLoad@CGraphicImage@@MAE_NHPBX@Z
_TEXT	SEGMENT
$T1 = -8						; size = 4
_this$ = -4						; size = 4
_iSize$ = 8						; size = 4
_c_pvBuf$ = 12						; size = 4
?OnLoad@CGraphicImage@@MAE_NHPBX@Z PROC			; CGraphicImage::OnLoad, COMDAT
; _this$ = ecx

; 65   : {

  00000	55		 push	 ebp
  00001	8b ec		 mov	 ebp, esp
  00003	51		 push	 ecx
  00004	51		 push	 ecx
  00005	89 4d fc	 mov	 DWORD PTR _this$[ebp], ecx

; 66   : 	if (!c_pvBuf)

  00008	83 7d 0c 00	 cmp	 DWORD PTR _c_pvBuf$[ebp], 0
  0000c	75 04		 jne	 SHORT $LN2@OnLoad

; 67   : 		return false;

  0000e	32 c0		 xor	 al, al
  00010	eb 72		 jmp	 SHORT $LN1@OnLoad
$LN2@OnLoad:
; File C:\Program Files (x86)\Microsoft Visual Studio\2019\Community\VC\Tools\MSVC\14.28.29333\include\xstring

; 3752 :         return _Mypair._Myval2._Myptr();

  00012	8b 4d fc	 mov	 ecx, DWORD PTR _this$[ebp]
  00015	83 c1 0c	 add	 ecx, 12			; 0000000cH
  00018	e8 00 00 00 00	 call	 ?_Myptr@?$_String_val@U?$_Simple_types@D@std@@@std@@QBEPBDXZ ; std::_String_val<std::_Simple_types<char> >::_Myptr
  0001d	89 45 f8	 mov	 DWORD PTR $T1[ebp], eax
; File D:\Metin2 Server Files\mainline\SRC_2014\Metin2Client\EterLib\GrpImage.cpp

; 69   : 	m_imageTexture.SetFileName(CResource::GetFileName());

  00020	ff 75 f8	 push	 DWORD PTR $T1[ebp]
  00023	8b 4d fc	 mov	 ecx, DWORD PTR _this$[ebp]
  00026	83 c1 2c	 add	 ecx, 44			; 0000002cH
  00029	e8 00 00 00 00	 call	 ?SetFileName@CGraphicImageTexture@@QAEXPBD@Z ; CGraphicImageTexture::SetFileName

; 70   : 
; 71   : 	// 특정 컴퓨터에서 Unknown으로 '안'하면 튕기는 현상이 있음-_-; -비엽
; 72   : 	if (!m_imageTexture.CreateFromMemoryFile(iSize, c_pvBuf, D3DFMT_UNKNOWN, m_dwFilter))

  0002e	8b 45 fc	 mov	 eax, DWORD PTR _this$[ebp]
  00031	ff 70 70	 push	 DWORD PTR [eax+112]
  00034	6a 00		 push	 0
  00036	ff 75 0c	 push	 DWORD PTR _c_pvBuf$[ebp]
  00039	ff 75 08	 push	 DWORD PTR _iSize$[ebp]
  0003c	8b 4d fc	 mov	 ecx, DWORD PTR _this$[ebp]
  0003f	83 c1 2c	 add	 ecx, 44			; 0000002cH
  00042	e8 00 00 00 00	 call	 ?CreateFromMemoryFile@CGraphicImageTexture@@QAE_NIPBXW4_D3DFORMAT@@K@Z ; CGraphicImageTexture::CreateFromMemoryFile
  00047	0f b6 c0	 movzx	 eax, al
  0004a	85 c0		 test	 eax, eax
  0004c	75 04		 jne	 SHORT $LN3@OnLoad

; 73   : 		return false;

  0004e	32 c0		 xor	 al, al
  00050	eb 32		 jmp	 SHORT $LN1@OnLoad
$LN3@OnLoad:

; 74   : 
; 75   : 	m_rect.left = 0;

  00052	8b 45 fc	 mov	 eax, DWORD PTR _this$[ebp]
  00055	83 60 60 00	 and	 DWORD PTR [eax+96], 0

; 76   : 	m_rect.top = 0;

  00059	8b 45 fc	 mov	 eax, DWORD PTR _this$[ebp]
  0005c	83 60 64 00	 and	 DWORD PTR [eax+100], 0

; 77   : 	m_rect.right = m_imageTexture.GetWidth();

  00060	8b 4d fc	 mov	 ecx, DWORD PTR _this$[ebp]
  00063	83 c1 2c	 add	 ecx, 44			; 0000002cH
  00066	e8 00 00 00 00	 call	 ?GetWidth@CGraphicTexture@@QBEHXZ ; CGraphicTexture::GetWidth
  0006b	8b 4d fc	 mov	 ecx, DWORD PTR _this$[ebp]
  0006e	89 41 68	 mov	 DWORD PTR [ecx+104], eax

; 78   : 	m_rect.bottom = m_imageTexture.GetHeight();

  00071	8b 4d fc	 mov	 ecx, DWORD PTR _this$[ebp]
  00074	83 c1 2c	 add	 ecx, 44			; 0000002cH
  00077	e8 00 00 00 00	 call	 ?GetHeight@CGraphicTexture@@QBEHXZ ; CGraphicTexture::GetHeight
  0007c	8b 4d fc	 mov	 ecx, DWORD PTR _this$[ebp]
  0007f	89 41 6c	 mov	 DWORD PTR [ecx+108], eax

; 79   : 	return true;

  00082	b0 01		 mov	 al, 1
$LN1@OnLoad:

; 80   : }

  00084	c9		 leave
  00085	c2 08 00	 ret	 8
?OnLoad@CGraphicImage@@MAE_NHPBX@Z ENDP			; CGraphicImage::OnLoad
_TEXT	ENDS
; Function compile flags: /Odspy
; File D:\Metin2 Server Files\mainline\SRC_2014\Metin2Client\EterLib\GrpImage.cpp
;	COMDAT ?GetTexturePointer@CGraphicImage@@QAEPAVCGraphicTexture@@XZ
_TEXT	SEGMENT
_this$ = -4						; size = 4
?GetTexturePointer@CGraphicImage@@QAEPAVCGraphicTexture@@XZ PROC ; CGraphicImage::GetTexturePointer, COMDAT
; _this$ = ecx

; 55   : {

  00000	55		 push	 ebp
  00001	8b ec		 mov	 ebp, esp
  00003	51		 push	 ecx
  00004	89 4d fc	 mov	 DWORD PTR _this$[ebp], ecx

; 56   : 	return &m_imageTexture;

  00007	8b 45 fc	 mov	 eax, DWORD PTR _this$[ebp]
  0000a	83 c0 2c	 add	 eax, 44			; 0000002cH

; 57   : }

  0000d	c9		 leave
  0000e	c3		 ret	 0
?GetTexturePointer@CGraphicImage@@QAEPAVCGraphicTexture@@XZ ENDP ; CGraphicImage::GetTexturePointer
_TEXT	ENDS
; Function compile flags: /Odspy
; File D:\Metin2 Server Files\mainline\SRC_2014\Metin2Client\EterLib\GrpImage.cpp
;	COMDAT ?GetTextureReference@CGraphicImage@@QBEABVCGraphicTexture@@XZ
_TEXT	SEGMENT
_this$ = -4						; size = 4
?GetTextureReference@CGraphicImage@@QBEABVCGraphicTexture@@XZ PROC ; CGraphicImage::GetTextureReference, COMDAT
; _this$ = ecx

; 50   : {

  00000	55		 push	 ebp
  00001	8b ec		 mov	 ebp, esp
  00003	51		 push	 ecx
  00004	89 4d fc	 mov	 DWORD PTR _this$[ebp], ecx

; 51   : 	return m_imageTexture;

  00007	8b 45 fc	 mov	 eax, DWORD PTR _this$[ebp]
  0000a	83 c0 2c	 add	 eax, 44			; 0000002cH

; 52   : }

  0000d	c9		 leave
  0000e	c3		 ret	 0
?GetTextureReference@CGraphicImage@@QBEABVCGraphicTexture@@XZ ENDP ; CGraphicImage::GetTextureReference
_TEXT	ENDS
; Function compile flags: /Odspy
; File D:\Metin2 Server Files\mainline\SRC_2014\Metin2Client\EterLib\GrpImage.cpp
;	COMDAT ?GetRectReference@CGraphicImage@@QBEABUtagRECT@@XZ
_TEXT	SEGMENT
_this$ = -4						; size = 4
?GetRectReference@CGraphicImage@@QBEABUtagRECT@@XZ PROC	; CGraphicImage::GetRectReference, COMDAT
; _this$ = ecx

; 60   : {

  00000	55		 push	 ebp
  00001	8b ec		 mov	 ebp, esp
  00003	51		 push	 ecx
  00004	89 4d fc	 mov	 DWORD PTR _this$[ebp], ecx

; 61   : 	return m_rect;

  00007	8b 45 fc	 mov	 eax, DWORD PTR _this$[ebp]
  0000a	83 c0 60	 add	 eax, 96			; 00000060H

; 62   : }

  0000d	c9		 leave
  0000e	c3		 ret	 0
?GetRectReference@CGraphicImage@@QBEABUtagRECT@@XZ ENDP	; CGraphicImage::GetRectReference
_TEXT	ENDS
; Function compile flags: /Odspy
; File D:\Metin2 Server Files\mainline\SRC_2014\Metin2Client\EterLib\GrpImage.cpp
;	COMDAT ?GetHeight@CGraphicImage@@QBEHXZ
_TEXT	SEGMENT
_this$ = -4						; size = 4
?GetHeight@CGraphicImage@@QBEHXZ PROC			; CGraphicImage::GetHeight, COMDAT
; _this$ = ecx

; 45   : {

  00000	55		 push	 ebp
  00001	8b ec		 mov	 ebp, esp
  00003	51		 push	 ecx
  00004	89 4d fc	 mov	 DWORD PTR _this$[ebp], ecx

; 46   : 	return m_rect.bottom - m_rect.top;

  00007	8b 45 fc	 mov	 eax, DWORD PTR _this$[ebp]
  0000a	8b 4d fc	 mov	 ecx, DWORD PTR _this$[ebp]
  0000d	8b 40 6c	 mov	 eax, DWORD PTR [eax+108]
  00010	2b 41 64	 sub	 eax, DWORD PTR [ecx+100]

; 47   : }

  00013	c9		 leave
  00014	c3		 ret	 0
?GetHeight@CGraphicImage@@QBEHXZ ENDP			; CGraphicImage::GetHeight
_TEXT	ENDS
; Function compile flags: /Odspy
; File D:\Metin2 Server Files\mainline\SRC_2014\Metin2Client\EterLib\GrpImage.cpp
;	COMDAT ?GetWidth@CGraphicImage@@QBEHXZ
_TEXT	SEGMENT
_this$ = -4						; size = 4
?GetWidth@CGraphicImage@@QBEHXZ PROC			; CGraphicImage::GetWidth, COMDAT
; _this$ = ecx

; 40   : {

  00000	55		 push	 ebp
  00001	8b ec		 mov	 ebp, esp
  00003	51		 push	 ecx
  00004	89 4d fc	 mov	 DWORD PTR _this$[ebp], ecx

; 41   : 	return m_rect.right - m_rect.left;

  00007	8b 45 fc	 mov	 eax, DWORD PTR _this$[ebp]
  0000a	8b 4d fc	 mov	 ecx, DWORD PTR _this$[ebp]
  0000d	8b 40 68	 mov	 eax, DWORD PTR [eax+104]
  00010	2b 41 60	 sub	 eax, DWORD PTR [ecx+96]

; 42   : }

  00013	c9		 leave
  00014	c3		 ret	 0
?GetWidth@CGraphicImage@@QBEHXZ ENDP			; CGraphicImage::GetWidth
_TEXT	ENDS
; Function compile flags: /Odspy
; File D:\Metin2 Server Files\mainline\SRC_2014\Metin2Client\EterLib\GrpImage.cpp
;	COMDAT ?DestroyDeviceObjects@CGraphicImage@@UAEXXZ
_TEXT	SEGMENT
_this$ = -4						; size = 4
?DestroyDeviceObjects@CGraphicImage@@UAEXXZ PROC	; CGraphicImage::DestroyDeviceObjects, COMDAT
; _this$ = ecx

; 21   : {

  00000	55		 push	 ebp
  00001	8b ec		 mov	 ebp, esp
  00003	51		 push	 ecx
  00004	89 4d fc	 mov	 DWORD PTR _this$[ebp], ecx

; 22   : 	m_imageTexture.DestroyDeviceObjects();

  00007	8b 4d fc	 mov	 ecx, DWORD PTR _this$[ebp]
  0000a	83 c1 2c	 add	 ecx, 44			; 0000002cH
  0000d	e8 00 00 00 00	 call	 ?DestroyDeviceObjects@CGraphicTexture@@QAEXXZ ; CGraphicTexture::DestroyDeviceObjects

; 23   : }

  00012	c9		 leave
  00013	c3		 ret	 0
?DestroyDeviceObjects@CGraphicImage@@UAEXXZ ENDP	; CGraphicImage::DestroyDeviceObjects
_TEXT	ENDS
; Function compile flags: /Odspy
; File D:\Metin2 Server Files\mainline\SRC_2014\Metin2Client\EterLib\GrpImage.cpp
;	COMDAT ?CreateDeviceObjects@CGraphicImage@@UAE_NXZ
_TEXT	SEGMENT
_this$ = -4						; size = 4
?CreateDeviceObjects@CGraphicImage@@UAE_NXZ PROC	; CGraphicImage::CreateDeviceObjects, COMDAT
; _this$ = ecx

; 16   : {

  00000	55		 push	 ebp
  00001	8b ec		 mov	 ebp, esp
  00003	51		 push	 ecx
  00004	89 4d fc	 mov	 DWORD PTR _this$[ebp], ecx

; 17   : 	return m_imageTexture.CreateDeviceObjects();

  00007	8b 4d fc	 mov	 ecx, DWORD PTR _this$[ebp]
  0000a	83 c1 2c	 add	 ecx, 44			; 0000002cH
  0000d	e8 00 00 00 00	 call	 ?CreateDeviceObjects@CGraphicImageTexture@@QAE_NXZ ; CGraphicImageTexture::CreateDeviceObjects

; 18   : }

  00012	c9		 leave
  00013	c3		 ret	 0
?CreateDeviceObjects@CGraphicImage@@UAE_NXZ ENDP	; CGraphicImage::CreateDeviceObjects
_TEXT	ENDS
; Function compile flags: /Odspy
; File D:\Metin2 Server Files\mainline\SRC_2014\Metin2Client\EterLib\GrpImage.cpp
;	COMDAT ??1CGraphicImage@@UAE@XZ
_TEXT	SEGMENT
_this$ = -4						; size = 4
??1CGraphicImage@@UAE@XZ PROC				; CGraphicImage::~CGraphicImage, COMDAT
; _this$ = ecx

; 12   : {

  00000	55		 push	 ebp
  00001	8b ec		 mov	 ebp, esp
  00003	51		 push	 ecx
  00004	89 4d fc	 mov	 DWORD PTR _this$[ebp], ecx
  00007	8b 45 fc	 mov	 eax, DWORD PTR _this$[ebp]
  0000a	c7 00 00 00 00
	00		 mov	 DWORD PTR [eax], OFFSET ??_7CGraphicImage@@6B@

; 13   : }

  00010	8b 4d fc	 mov	 ecx, DWORD PTR _this$[ebp]
  00013	83 c1 2c	 add	 ecx, 44			; 0000002cH
  00016	e8 00 00 00 00	 call	 ??1CGraphicImageTexture@@UAE@XZ ; CGraphicImageTexture::~CGraphicImageTexture
  0001b	8b 4d fc	 mov	 ecx, DWORD PTR _this$[ebp]
  0001e	e8 00 00 00 00	 call	 ??1CResource@@UAE@XZ	; CResource::~CResource
  00023	c9		 leave
  00024	c3		 ret	 0
??1CGraphicImage@@UAE@XZ ENDP				; CGraphicImage::~CGraphicImage
_TEXT	ENDS
; Function compile flags: /Odspy
; File D:\Metin2 Server Files\mainline\SRC_2014\Metin2Client\EterLib\GrpImage.cpp
;	COMDAT ??0CGraphicImage@@QAE@PBDK@Z
_TEXT	SEGMENT
_this$ = -16						; size = 4
__$EHRec$ = -12						; size = 12
_c_szFileName$ = 8					; size = 4
_dwFilter$ = 12						; size = 4
??0CGraphicImage@@QAE@PBDK@Z PROC			; CGraphicImage::CGraphicImage, COMDAT
; _this$ = ecx

; 7    : {

  00000	55		 push	 ebp
  00001	8b ec		 mov	 ebp, esp
  00003	6a ff		 push	 -1
  00005	68 00 00 00 00	 push	 __ehhandler$??0CGraphicImage@@QAE@PBDK@Z
  0000a	64 a1 00 00 00
	00		 mov	 eax, DWORD PTR fs:0
  00010	50		 push	 eax
  00011	51		 push	 ecx
  00012	a1 00 00 00 00	 mov	 eax, DWORD PTR ___security_cookie
  00017	33 c5		 xor	 eax, ebp
  00019	50		 push	 eax
  0001a	8d 45 f4	 lea	 eax, DWORD PTR __$EHRec$[ebp]
  0001d	64 a3 00 00 00
	00		 mov	 DWORD PTR fs:0, eax
  00023	89 4d f0	 mov	 DWORD PTR _this$[ebp], ecx

; 5    : CResource(c_szFileName),

  00026	ff 75 08	 push	 DWORD PTR _c_szFileName$[ebp]
  00029	8b 4d f0	 mov	 ecx, DWORD PTR _this$[ebp]
  0002c	e8 00 00 00 00	 call	 ??0CResource@@QAE@PBD@Z	; CResource::CResource
  00031	83 65 fc 00	 and	 DWORD PTR __$EHRec$[ebp+8], 0

; 7    : {

  00035	8b 45 f0	 mov	 eax, DWORD PTR _this$[ebp]
  00038	c7 00 00 00 00
	00		 mov	 DWORD PTR [eax], OFFSET ??_7CGraphicImage@@6B@
  0003e	8b 4d f0	 mov	 ecx, DWORD PTR _this$[ebp]
  00041	83 c1 2c	 add	 ecx, 44			; 0000002cH
  00044	e8 00 00 00 00	 call	 ??0CGraphicImageTexture@@QAE@XZ ; CGraphicImageTexture::CGraphicImageTexture

; 6    : m_dwFilter(dwFilter)

  00049	8b 45 f0	 mov	 eax, DWORD PTR _this$[ebp]
  0004c	8b 4d 0c	 mov	 ecx, DWORD PTR _dwFilter$[ebp]
  0004f	89 48 70	 mov	 DWORD PTR [eax+112], ecx

; 8    : 	m_rect.bottom = m_rect.right = m_rect.top = m_rect.left = 0;

  00052	8b 45 f0	 mov	 eax, DWORD PTR _this$[ebp]
  00055	83 60 60 00	 and	 DWORD PTR [eax+96], 0
  00059	8b 45 f0	 mov	 eax, DWORD PTR _this$[ebp]
  0005c	83 60 64 00	 and	 DWORD PTR [eax+100], 0
  00060	8b 45 f0	 mov	 eax, DWORD PTR _this$[ebp]
  00063	83 60 68 00	 and	 DWORD PTR [eax+104], 0
  00067	8b 45 f0	 mov	 eax, DWORD PTR _this$[ebp]
  0006a	83 60 6c 00	 and	 DWORD PTR [eax+108], 0

; 9    : }

  0006e	83 4d fc ff	 or	 DWORD PTR __$EHRec$[ebp+8], -1
  00072	8b 45 f0	 mov	 eax, DWORD PTR _this$[ebp]
  00075	8b 4d f4	 mov	 ecx, DWORD PTR __$EHRec$[ebp]
  00078	64 89 0d 00 00
	00 00		 mov	 DWORD PTR fs:0, ecx
  0007f	59		 pop	 ecx
  00080	c9		 leave
  00081	c2 08 00	 ret	 8
_TEXT	ENDS
;	COMDAT text$x
text$x	SEGMENT
__unwindfunclet$??0CGraphicImage@@QAE@PBDK@Z$0:
  00000	8b 4d f0	 mov	 ecx, DWORD PTR _this$[ebp]
  00003	e9 00 00 00 00	 jmp	 ??1CResource@@UAE@XZ	; CResource::~CResource
  00008	cc		 int	 3
  00009	cc		 int	 3
  0000a	cc		 int	 3
  0000b	cc		 int	 3
  0000c	cc		 int	 3
__ehhandler$??0CGraphicImage@@QAE@PBDK@Z:
  0000d	90		 npad	 1
  0000e	90		 npad	 1
  0000f	8b 54 24 08	 mov	 edx, DWORD PTR [esp+8]
  00013	8d 42 0c	 lea	 eax, DWORD PTR [edx+12]
  00016	8b 4a f8	 mov	 ecx, DWORD PTR [edx-8]
  00019	33 c8		 xor	 ecx, eax
  0001b	e8 00 00 00 00	 call	 @__security_check_cookie@4
  00020	b8 00 00 00 00	 mov	 eax, OFFSET __ehfuncinfo$??0CGraphicImage@@QAE@PBDK@Z
  00025	e9 00 00 00 00	 jmp	 ___CxxFrameHandler3
text$x	ENDS
??0CGraphicImage@@QAE@PBDK@Z ENDP			; CGraphicImage::CGraphicImage
; Function compile flags: /Odspy
; File D:\Metin2 Server Files\mainline\SRC_2014\Metin2Client\EterLib\GrpImage.cpp
;	COMDAT ?Type@CGraphicImage@@SAKXZ
_TEXT	SEGMENT
__$EHRec$ = -12						; size = 12
?Type@CGraphicImage@@SAKXZ PROC				; CGraphicImage::Type, COMDAT

; 26   : {

  00000	55		 push	 ebp
  00001	8b ec		 mov	 ebp, esp
  00003	6a ff		 push	 -1
  00005	68 00 00 00 00	 push	 __ehhandler$?Type@CGraphicImage@@SAKXZ
  0000a	64 a1 00 00 00
	00		 mov	 eax, DWORD PTR fs:0
  00010	50		 push	 eax
  00011	a1 00 00 00 00	 mov	 eax, DWORD PTR ___security_cookie
  00016	33 c5		 xor	 eax, ebp
  00018	50		 push	 eax
  00019	8d 45 f4	 lea	 eax, DWORD PTR __$EHRec$[ebp]
  0001c	64 a3 00 00 00
	00		 mov	 DWORD PTR fs:0, eax

; 27   : 	static TType s_type = StringToType("CGraphicImage");

  00022	a1 00 00 00 00	 mov	 eax, DWORD PTR __tls_index
  00027	64 8b 0d 00 00
	00 00		 mov	 ecx, DWORD PTR fs:__tls_array
  0002e	8b 04 81	 mov	 eax, DWORD PTR [ecx+eax*4]
  00031	8b 0d 00 00 00
	00		 mov	 ecx, DWORD PTR ?$TSS0@?1??Type@CGraphicImage@@SAKXZ@4HA
  00037	3b 88 00 00 00
	00		 cmp	 ecx, DWORD PTR __Init_thread_epoch[eax]
  0003d	7e 37		 jle	 SHORT $LN2@Type
  0003f	68 00 00 00 00	 push	 OFFSET ?$TSS0@?1??Type@CGraphicImage@@SAKXZ@4HA
  00044	e8 00 00 00 00	 call	 __Init_thread_header
  00049	59		 pop	 ecx
  0004a	83 3d 00 00 00
	00 ff		 cmp	 DWORD PTR ?$TSS0@?1??Type@CGraphicImage@@SAKXZ@4HA, -1
  00051	75 23		 jne	 SHORT $LN2@Type
  00053	83 65 fc 00	 and	 DWORD PTR __$EHRec$[ebp+8], 0
  00057	68 00 00 00 00	 push	 OFFSET ??_C@_0O@HBDMOEMH@CGraphicImage@
  0005c	e8 00 00 00 00	 call	 ?StringToType@CResource@@SAKPBD@Z ; CResource::StringToType
  00061	59		 pop	 ecx
  00062	a3 00 00 00 00	 mov	 DWORD PTR ?s_type@?1??Type@CGraphicImage@@SAKXZ@4KA, eax
  00067	83 4d fc ff	 or	 DWORD PTR __$EHRec$[ebp+8], -1
  0006b	68 00 00 00 00	 push	 OFFSET ?$TSS0@?1??Type@CGraphicImage@@SAKXZ@4HA
  00070	e8 00 00 00 00	 call	 __Init_thread_footer
  00075	59		 pop	 ecx
$LN2@Type:

; 28   : 	return s_type;

  00076	a1 00 00 00 00	 mov	 eax, DWORD PTR ?s_type@?1??Type@CGraphicImage@@SAKXZ@4KA

; 29   : }

  0007b	8b 4d f4	 mov	 ecx, DWORD PTR __$EHRec$[ebp]
  0007e	64 89 0d 00 00
	00 00		 mov	 DWORD PTR fs:0, ecx
  00085	59		 pop	 ecx
  00086	c9		 leave
  00087	c3		 ret	 0
_TEXT	ENDS
;	COMDAT text$x
text$x	SEGMENT
__unwindfunclet$?Type@CGraphicImage@@SAKXZ$0:
  00000	68 00 00 00 00	 push	 OFFSET ?$TSS0@?1??Type@CGraphicImage@@SAKXZ@4HA
  00005	e8 00 00 00 00	 call	 __Init_thread_abort
  0000a	59		 pop	 ecx
  0000b	c3		 ret	 0
  0000c	cc		 int	 3
  0000d	cc		 int	 3
  0000e	cc		 int	 3
  0000f	cc		 int	 3
  00010	cc		 int	 3
__ehhandler$?Type@CGraphicImage@@SAKXZ:
  00011	90		 npad	 1
  00012	90		 npad	 1
  00013	8b 54 24 08	 mov	 edx, DWORD PTR [esp+8]
  00017	8d 42 0c	 lea	 eax, DWORD PTR [edx+12]
  0001a	8b 4a fc	 mov	 ecx, DWORD PTR [edx-4]
  0001d	33 c8		 xor	 ecx, eax
  0001f	e8 00 00 00 00	 call	 @__security_check_cookie@4
  00024	b8 00 00 00 00	 mov	 eax, OFFSET __ehfuncinfo$?Type@CGraphicImage@@SAKXZ
  00029	e9 00 00 00 00	 jmp	 ___CxxFrameHandler3
text$x	ENDS
?Type@CGraphicImage@@SAKXZ ENDP				; CGraphicImage::Type
; Function compile flags: /Odspy
; File C:\Program Files (x86)\Microsoft Visual Studio\2019\Community\VC\Tools\MSVC\14.28.29333\include\xstring
; File C:\Program Files (x86)\Microsoft Visual Studio\2019\Community\VC\Tools\MSVC\14.28.29333\include\xstddef
; File C:\Program Files (x86)\Microsoft Visual Studio\2019\Community\VC\Tools\MSVC\14.28.29333\include\xstring
;	COMDAT ?_Myptr@?$_String_val@U?$_Simple_types@D@std@@@std@@QBEPBDXZ
_TEXT	SEGMENT
__Ptr$ = -20						; size = 4
__Result$ = -16						; size = 4
tv76 = -12						; size = 4
_this$ = -8						; size = 4
$T1 = -1						; size = 1
?_Myptr@?$_String_val@U?$_Simple_types@D@std@@@std@@QBEPBDXZ PROC ; std::_String_val<std::_Simple_types<char> >::_Myptr, COMDAT
; _this$ = ecx

; 2217 :     const value_type* _Myptr() const noexcept {

  00000	55		 push	 ebp
  00001	8b ec		 mov	 ebp, esp
  00003	83 ec 14	 sub	 esp, 20			; 00000014H
  00006	89 4d f8	 mov	 DWORD PTR _this$[ebp], ecx

; 2218 :         const value_type* _Result = _Bx._Buf;

  00009	8b 45 f8	 mov	 eax, DWORD PTR _this$[ebp]
  0000c	89 45 f0	 mov	 DWORD PTR __Result$[ebp], eax

; 2227 :         return _BUF_SIZE <= _Myres;

  0000f	8b 45 f8	 mov	 eax, DWORD PTR _this$[ebp]
  00012	83 78 14 10	 cmp	 DWORD PTR [eax+20], 16	; 00000010H
  00016	72 09		 jb	 SHORT $LN6@Myptr
  00018	c7 45 f4 01 00
	00 00		 mov	 DWORD PTR tv76[ebp], 1
  0001f	eb 04		 jmp	 SHORT $LN7@Myptr
$LN6@Myptr:
  00021	83 65 f4 00	 and	 DWORD PTR tv76[ebp], 0
$LN7@Myptr:
  00025	8a 45 f4	 mov	 al, BYTE PTR tv76[ebp]
  00028	88 45 ff	 mov	 BYTE PTR $T1[ebp], al

; 2219 :         if (_Large_string_engaged()) {

  0002b	0f b6 45 ff	 movzx	 eax, BYTE PTR $T1[ebp]
  0002f	85 c0		 test	 eax, eax
  00031	74 0e		 je	 SHORT $LN2@Myptr

; 2220 :             _Result = _Unfancy(_Bx._Ptr);

  00033	8b 45 f8	 mov	 eax, DWORD PTR _this$[ebp]
  00036	8b 00		 mov	 eax, DWORD PTR [eax]
  00038	89 45 ec	 mov	 DWORD PTR __Ptr$[ebp], eax
; File C:\Program Files (x86)\Microsoft Visual Studio\2019\Community\VC\Tools\MSVC\14.28.29333\include\xstddef

; 289  :     return _Ptr;

  0003b	8b 45 ec	 mov	 eax, DWORD PTR __Ptr$[ebp]
  0003e	89 45 f0	 mov	 DWORD PTR __Result$[ebp], eax
$LN2@Myptr:
; File C:\Program Files (x86)\Microsoft Visual Studio\2019\Community\VC\Tools\MSVC\14.28.29333\include\xstring

; 2223 :         return _Result;

  00041	8b 45 f0	 mov	 eax, DWORD PTR __Result$[ebp]

; 2224 :     }

  00044	c9		 leave
  00045	c3		 ret	 0
?_Myptr@?$_String_val@U?$_Simple_types@D@std@@@std@@QBEPBDXZ ENDP ; std::_String_val<std::_Simple_types<char> >::_Myptr
_TEXT	ENDS
END
