; Listing generated by Microsoft (R) Optimizing Compiler Version 19.28.29335.0 

	TITLE	D:\Metin2 Server Files\mainline\SRC_2014\Metin2Client\EterLib\GrpLightManager.cpp
	.686P
	.XMM
	include listing.inc
	.model	flat

INCLUDELIB LIBCMT
INCLUDELIB OLDNAMES

PUBLIC	?ms_fCurTime@CLightBase@@1MA			; CLightBase::ms_fCurTime
_BSS	SEGMENT
?ms_fCurTime@CLightBase@@1MA DD 01H DUP (?)		; CLightBase::ms_fCurTime
_BSS	ENDS
CONST	SEGMENT
?piecewise_construct@std@@3Upiecewise_construct_t@1@B	ORG $+1 ; std::piecewise_construct
CONST	ENDS
PUBLIC	??_H@YGXPAXIIP6EPAX0@Z@Z			; `vector constructor iterator'
PUBLIC	??0exception@std@@QAE@ABV01@@Z			; std::exception::exception
PUBLIC	?what@exception@std@@UBEPBDXZ			; std::exception::what
PUBLIC	??_Gexception@std@@UAEPAXI@Z			; std::exception::`scalar deleting destructor'
PUBLIC	??0bad_alloc@std@@QAE@ABV01@@Z			; std::bad_alloc::bad_alloc
PUBLIC	??_Gbad_alloc@std@@UAEPAXI@Z			; std::bad_alloc::`scalar deleting destructor'
PUBLIC	??0bad_array_new_length@std@@QAE@XZ		; std::bad_array_new_length::bad_array_new_length
PUBLIC	??1bad_array_new_length@std@@UAE@XZ		; std::bad_array_new_length::~bad_array_new_length
PUBLIC	??0bad_array_new_length@std@@QAE@ABV01@@Z	; std::bad_array_new_length::bad_array_new_length
PUBLIC	??_Gbad_array_new_length@std@@UAEPAXI@Z		; std::bad_array_new_length::`scalar deleting destructor'
PUBLIC	?_Throw_bad_array_new_length@std@@YAXXZ		; std::_Throw_bad_array_new_length
PUBLIC	?_Adjust_manually_vector_aligned@std@@YAXAAPAXAAI@Z ; std::_Adjust_manually_vector_aligned
PUBLIC	?_Throw_tree_length_error@std@@YAXXZ		; std::_Throw_tree_length_error
PUBLIC	??$_Deallocate@$07$0A@@std@@YAXPAXI@Z		; std::_Deallocate<8,0>
PUBLIC	??$_Allocate@$07U_Default_allocate_traits@std@@$0A@@std@@YAPAXI@Z ; std::_Allocate<8,std::_Default_allocate_traits,0>
PUBLIC	??$_Allocate_manually_vector_aligned@U_Default_allocate_traits@std@@@std@@YAPAXI@Z ; std::_Allocate_manually_vector_aligned<std::_Default_allocate_traits>
PUBLIC	??1CLightBase@@UAE@XZ				; CLightBase::~CLightBase
PUBLIC	??_GCLightBase@@UAEPAXI@Z			; CLightBase::`scalar deleting destructor'
PUBLIC	??0CLight@@QAE@XZ				; CLight::CLight
PUBLIC	??1CLight@@UAE@XZ				; CLight::~CLight
PUBLIC	?Initialize@CLight@@QAEXXZ			; CLight::Initialize
PUBLIC	?Clear@CLight@@QAEXXZ				; CLight::Clear
PUBLIC	?Update@CLight@@QAEXXZ				; CLight::Update
PUBLIC	?SetParameter@CLight@@QAEXKABU_D3DLIGHT8@@@Z	; CLight::SetParameter
PUBLIC	?SetDistance@CLight@@QAEXM@Z			; CLight::SetDistance
PUBLIC	?SetDeviceLight@CLight@@QAEXH@Z			; CLight::SetDeviceLight
PUBLIC	?SetDiffuseColor@CLight@@QAEXMMMM@Z		; CLight::SetDiffuseColor
PUBLIC	?SetAmbientColor@CLight@@QAEXMMMM@Z		; CLight::SetAmbientColor
PUBLIC	?SetRange@CLight@@QAEXM@Z			; CLight::SetRange
PUBLIC	?SetPosition@CLight@@QAEXMMM@Z			; CLight::SetPosition
PUBLIC	?GetPosition@CLight@@QBEABU_D3DVECTOR@@XZ	; CLight::GetPosition
PUBLIC	?BlendDiffuseColor@CLight@@QAEXABUD3DXCOLOR@@MM@Z ; CLight::BlendDiffuseColor
PUBLIC	?BlendAmbientColor@CLight@@QAEXABUD3DXCOLOR@@MM@Z ; CLight::BlendAmbientColor
PUBLIC	?BlendRange@CLight@@QAEXMMM@Z			; CLight::BlendRange
PUBLIC	??1?$CTransitor@UD3DXCOLOR@@@@QAE@XZ		; CTransitor<D3DXCOLOR>::~CTransitor<D3DXCOLOR>
PUBLIC	?GetValue@?$CTransitor@UD3DXCOLOR@@@@QAEHMPAUD3DXCOLOR@@@Z ; CTransitor<D3DXCOLOR>::GetValue
PUBLIC	??1?$CTransitor@M@@QAE@XZ			; CTransitor<float>::~CTransitor<float>
PUBLIC	?GetValue@?$CTransitor@M@@QAEHMPAM@Z		; CTransitor<float>::GetValue
PUBLIC	??_GCLight@@UAEPAXI@Z				; CLight::`scalar deleting destructor'
PUBLIC	??1?$CSingleton@VCLightManager@@@@UAE@XZ	; CSingleton<CLightManager>::~CSingleton<CLightManager>
PUBLIC	??_G?$CSingleton@VCLightManager@@@@UAEPAXI@Z	; CSingleton<CLightManager>::`scalar deleting destructor'
PUBLIC	??0CLightManager@@QAE@XZ			; CLightManager::CLightManager
PUBLIC	??1CLightManager@@UAE@XZ			; CLightManager::~CLightManager
PUBLIC	?Destroy@CLightManager@@QAEXXZ			; CLightManager::Destroy
PUBLIC	?Initialize@CLightManager@@QAEXXZ		; CLightManager::Initialize
PUBLIC	?Update@CLightManager@@QAEXXZ			; CLightManager::Update
PUBLIC	?FlushLight@CLightManager@@QAEXXZ		; CLightManager::FlushLight
PUBLIC	?RestoreLight@CLightManager@@QAEXXZ		; CLightManager::RestoreLight
PUBLIC	?RegisterLight@CLightManager@@QAEXW4ELightType@@PAKAAU_D3DLIGHT8@@@Z ; CLightManager::RegisterLight
PUBLIC	?GetLight@CLightManager@@QAEPAVCLight@@K@Z	; CLightManager::GetLight
PUBLIC	?DeleteLight@CLightManager@@QAEXK@Z		; CLightManager::DeleteLight
PUBLIC	?SetCenterPosition@CLightManager@@QAEXABUD3DXVECTOR3@@@Z ; CLightManager::SetCenterPosition
PUBLIC	?SetLimitLightCount@CLightManager@@QAEXK@Z	; CLightManager::SetLimitLightCount
PUBLIC	?SetSkipIndex@CLightManager@@QAEXK@Z		; CLightManager::SetSkipIndex
PUBLIC	??0?$deque@KV?$allocator@K@std@@@std@@QAE@XZ	; std::deque<unsigned long,std::allocator<unsigned long> >::deque<unsigned long,std::allocator<unsigned long> >
PUBLIC	??1?$deque@KV?$allocator@K@std@@@std@@QAE@XZ	; std::deque<unsigned long,std::allocator<unsigned long> >::~deque<unsigned long,std::allocator<unsigned long> >
PUBLIC	?_Unchecked_end@?$deque@KV?$allocator@K@std@@@std@@QAE?AV?$_Deque_unchecked_iterator@V?$_Deque_val@U?$_Deque_simple_types@K@std@@@std@@@2@XZ ; std::deque<unsigned long,std::allocator<unsigned long> >::_Unchecked_end
PUBLIC	?back@?$deque@KV?$allocator@K@std@@@std@@QAEAAKXZ ; std::deque<unsigned long,std::allocator<unsigned long> >::back
PUBLIC	?pop_back@?$deque@KV?$allocator@K@std@@@std@@QAEXXZ ; std::deque<unsigned long,std::allocator<unsigned long> >::pop_back
PUBLIC	?_Xlen@?$deque@KV?$allocator@K@std@@@std@@ABEXXZ ; std::deque<unsigned long,std::allocator<unsigned long> >::_Xlen
PUBLIC	?_Growmap@?$deque@KV?$allocator@K@std@@@std@@AAEXI@Z ; std::deque<unsigned long,std::allocator<unsigned long> >::_Growmap
PUBLIC	?_Tidy@?$deque@KV?$allocator@K@std@@@std@@AAEXXZ ; std::deque<unsigned long,std::allocator<unsigned long> >::_Tidy
PUBLIC	??0?$_Deque_val@U?$_Deque_simple_types@K@std@@@std@@QAE@XZ ; std::_Deque_val<std::_Deque_simple_types<unsigned long> >::_Deque_val<std::_Deque_simple_types<unsigned long> >
PUBLIC	??0?$_Tree@V?$_Tmap_traits@KPAVCLight@@U?$less@K@std@@V?$allocator@U?$pair@$$CBKPAVCLight@@@std@@@3@$0A@@std@@@std@@QAE@ABU?$less@K@1@@Z ; std::_Tree<std::_Tmap_traits<unsigned long,CLight *,std::less<unsigned long>,std::allocator<std::pair<unsigned long const ,CLight *> >,0> >::_Tree<std::_Tmap_traits<unsigned long,CLight *,std::less<unsigned long>,std::allocator<std::pair<unsigned long const ,CLight *> >,0> >
PUBLIC	??1?$_Tree@V?$_Tmap_traits@KPAVCLight@@U?$less@K@std@@V?$allocator@U?$pair@$$CBKPAVCLight@@@std@@@3@$0A@@std@@@std@@QAE@XZ ; std::_Tree<std::_Tmap_traits<unsigned long,CLight *,std::less<unsigned long>,std::allocator<std::pair<unsigned long const ,CLight *> >,0> >::~_Tree<std::_Tmap_traits<unsigned long,CLight *,std::less<unsigned long>,std::allocator<std::pair<unsigned long const ,CLight *> >,0> >
PUBLIC	?begin@?$_Tree@V?$_Tmap_traits@KPAVCLight@@U?$less@K@std@@V?$allocator@U?$pair@$$CBKPAVCLight@@@std@@@3@$0A@@std@@@std@@QAE?AV?$_Tree_iterator@V?$_Tree_val@U?$_Tree_simple_types@U?$pair@$$CBKPAVCLight@@@std@@@std@@@std@@@2@XZ ; std::_Tree<std::_Tmap_traits<unsigned long,CLight *,std::less<unsigned long>,std::allocator<std::pair<unsigned long const ,CLight *> >,0> >::begin
PUBLIC	?max_size@?$_Tree@V?$_Tmap_traits@KPAVCLight@@U?$less@K@std@@V?$allocator@U?$pair@$$CBKPAVCLight@@@std@@@3@$0A@@std@@@std@@QBEIXZ ; std::_Tree<std::_Tmap_traits<unsigned long,CLight *,std::less<unsigned long>,std::allocator<std::pair<unsigned long const ,CLight *> >,0> >::max_size
PUBLIC	?_Erase_unchecked@?$_Tree@V?$_Tmap_traits@KPAVCLight@@U?$less@K@std@@V?$allocator@U?$pair@$$CBKPAVCLight@@@std@@@3@$0A@@std@@@std@@AAEPAU?$_Tree_node@U?$pair@$$CBKPAVCLight@@@std@@PAX@2@V?$_Tree_unchecked_const_iterator@V?$_Tree_val@U?$_Tree_simple_types@U?$pair@$$CBKPAVCLight@@@std@@@std@@@std@@U_Iterator_base0@2@@2@@Z ; std::_Tree<std::_Tmap_traits<unsigned long,CLight *,std::less<unsigned long>,std::allocator<std::pair<unsigned long const ,CLight *> >,0> >::_Erase_unchecked
PUBLIC	?clear@?$_Tree@V?$_Tmap_traits@KPAVCLight@@U?$less@K@std@@V?$allocator@U?$pair@$$CBKPAVCLight@@@std@@@3@$0A@@std@@@std@@QAEXXZ ; std::_Tree<std::_Tmap_traits<unsigned long,CLight *,std::less<unsigned long>,std::allocator<std::pair<unsigned long const ,CLight *> >,0> >::clear
PUBLIC	?find@?$_Tree@V?$_Tmap_traits@KPAVCLight@@U?$less@K@std@@V?$allocator@U?$pair@$$CBKPAVCLight@@@std@@@3@$0A@@std@@@std@@QAE?AV?$_Tree_iterator@V?$_Tree_val@U?$_Tree_simple_types@U?$pair@$$CBKPAVCLight@@@std@@@std@@@std@@@2@ABK@Z ; std::_Tree<std::_Tmap_traits<unsigned long,CLight *,std::less<unsigned long>,std::allocator<std::pair<unsigned long const ,CLight *> >,0> >::find
PUBLIC	?_Check_grow_by_1@?$_Tree@V?$_Tmap_traits@KPAVCLight@@U?$less@K@std@@V?$allocator@U?$pair@$$CBKPAVCLight@@@std@@@3@$0A@@std@@@std@@IAEXXZ ; std::_Tree<std::_Tmap_traits<unsigned long,CLight *,std::less<unsigned long>,std::allocator<std::pair<unsigned long const ,CLight *> >,0> >::_Check_grow_by_1
PUBLIC	?_Alloc_sentinel_and_proxy@?$_Tree@V?$_Tmap_traits@KPAVCLight@@U?$less@K@std@@V?$allocator@U?$pair@$$CBKPAVCLight@@@std@@@3@$0A@@std@@@std@@IAEXXZ ; std::_Tree<std::_Tmap_traits<unsigned long,CLight *,std::less<unsigned long>,std::allocator<std::pair<unsigned long const ,CLight *> >,0> >::_Alloc_sentinel_and_proxy
PUBLIC	?_Lrotate@?$_Tree_val@U?$_Tree_simple_types@U?$pair@$$CBKPAVCLight@@@std@@@std@@@std@@QAEXPAU?$_Tree_node@U?$pair@$$CBKPAVCLight@@@std@@PAX@2@@Z ; std::_Tree_val<std::_Tree_simple_types<std::pair<unsigned long const ,CLight *> > >::_Lrotate
PUBLIC	?_Rrotate@?$_Tree_val@U?$_Tree_simple_types@U?$pair@$$CBKPAVCLight@@@std@@@std@@@std@@QAEXPAU?$_Tree_node@U?$pair@$$CBKPAVCLight@@@std@@PAX@2@@Z ; std::_Tree_val<std::_Tree_simple_types<std::pair<unsigned long const ,CLight *> > >::_Rrotate
PUBLIC	?_Extract@?$_Tree_val@U?$_Tree_simple_types@U?$pair@$$CBKPAVCLight@@@std@@@std@@@std@@QAEPAU?$_Tree_node@U?$pair@$$CBKPAVCLight@@@std@@PAX@2@V?$_Tree_unchecked_const_iterator@V?$_Tree_val@U?$_Tree_simple_types@U?$pair@$$CBKPAVCLight@@@std@@@std@@@std@@U_Iterator_base0@2@@2@@Z ; std::_Tree_val<std::_Tree_simple_types<std::pair<unsigned long const ,CLight *> > >::_Extract
PUBLIC	?_Insert_node@?$_Tree_val@U?$_Tree_simple_types@U?$pair@$$CBKPAVCLight@@@std@@@std@@@std@@QAEPAU?$_Tree_node@U?$pair@$$CBKPAVCLight@@@std@@PAX@2@U?$_Tree_id@PAU?$_Tree_node@U?$pair@$$CBKPAVCLight@@@std@@PAX@std@@@2@QAU32@@Z ; std::_Tree_val<std::_Tree_simple_types<std::pair<unsigned long const ,CLight *> > >::_Insert_node
PUBLIC	??1?$map@KPAVCLight@@U?$less@K@std@@V?$allocator@U?$pair@$$CBKPAVCLight@@@std@@@3@@std@@QAE@XZ ; std::map<unsigned long,CLight *,std::less<unsigned long>,std::allocator<std::pair<unsigned long const ,CLight *> > >::~map<unsigned long,CLight *,std::less<unsigned long>,std::allocator<std::pair<unsigned long const ,CLight *> > >
PUBLIC	?deallocate@?$allocator@PAVCLight@@@std@@QAEXQAPAVCLight@@I@Z ; std::allocator<CLight *>::deallocate
PUBLIC	??1?$vector@PAVCLight@@V?$allocator@PAVCLight@@@std@@@std@@QAE@XZ ; std::vector<CLight *,std::allocator<CLight *> >::~vector<CLight *,std::allocator<CLight *> >
PUBLIC	?_Copy_assign@?$vector@PAVCLight@@V?$allocator@PAVCLight@@@std@@@std@@AAEXABV12@U?$integral_constant@_N$0A@@2@@Z ; std::vector<CLight *,std::allocator<CLight *> >::_Copy_assign
PUBLIC	?_Clear_and_reserve_geometric@?$vector@PAVCLight@@V?$allocator@PAVCLight@@@std@@@std@@AAEXI@Z ; std::vector<CLight *,std::allocator<CLight *> >::_Clear_and_reserve_geometric
PUBLIC	?clear@?$vector@PAVCLight@@V?$allocator@PAVCLight@@@std@@@std@@QAEXXZ ; std::vector<CLight *,std::allocator<CLight *> >::clear
PUBLIC	?max_size@?$vector@PAVCLight@@V?$allocator@PAVCLight@@@std@@@std@@QBEIXZ ; std::vector<CLight *,std::allocator<CLight *> >::max_size
PUBLIC	?_Destroy@?$vector@PAVCLight@@V?$allocator@PAVCLight@@@std@@@std@@AAEXPAPAVCLight@@0@Z ; std::vector<CLight *,std::allocator<CLight *> >::_Destroy
PUBLIC	?_Calculate_growth@?$vector@PAVCLight@@V?$allocator@PAVCLight@@@std@@@std@@ABEII@Z ; std::vector<CLight *,std::allocator<CLight *> >::_Calculate_growth
PUBLIC	?_Buy_raw@?$vector@PAVCLight@@V?$allocator@PAVCLight@@@std@@@std@@AAEXI@Z ; std::vector<CLight *,std::allocator<CLight *> >::_Buy_raw
PUBLIC	?_Change_array@?$vector@PAVCLight@@V?$allocator@PAVCLight@@@std@@@std@@AAEXQAPAVCLight@@II@Z ; std::vector<CLight *,std::allocator<CLight *> >::_Change_array
PUBLIC	?_Tidy@?$vector@PAVCLight@@V?$allocator@PAVCLight@@@std@@@std@@AAEXXZ ; std::vector<CLight *,std::allocator<CLight *> >::_Tidy
PUBLIC	?_Xlength@?$vector@PAVCLight@@V?$allocator@PAVCLight@@@std@@@std@@CAXXZ ; std::vector<CLight *,std::allocator<CLight *> >::_Xlength
PUBLIC	?NewLightID@CLightManager@@IAEKXZ		; CLightManager::NewLightID
PUBLIC	?ReleaseLightID@CLightManager@@IAEXK@Z		; CLightManager::ReleaseLightID
PUBLIC	??0?$CDynamicPool@VCLight@@@@QAE@XZ		; CDynamicPool<CLight>::CDynamicPool<CLight>
PUBLIC	??1?$CDynamicPool@VCLight@@@@UAE@XZ		; CDynamicPool<CLight>::~CDynamicPool<CLight>
PUBLIC	?Destroy@?$CDynamicPool@VCLight@@@@QAEXXZ	; CDynamicPool<CLight>::Destroy
PUBLIC	?Alloc@?$CDynamicPool@VCLight@@@@QAEPAVCLight@@XZ ; CDynamicPool<CLight>::Alloc
PUBLIC	?FreeAll@?$CDynamicPool@VCLight@@@@QAEXXZ	; CDynamicPool<CLight>::FreeAll
PUBLIC	?Delete@?$CDynamicPool@VCLight@@@@KAXPAVCLight@@@Z ; CDynamicPool<CLight>::Delete
PUBLIC	??_G?$CDynamicPool@VCLight@@@@UAEPAXI@Z		; CDynamicPool<CLight>::`scalar deleting destructor'
PUBLIC	??_GCLightManager@@UAEPAXI@Z			; CLightManager::`scalar deleting destructor'
PUBLIC	??E?$_Tree_unchecked_const_iterator@V?$_Tree_val@U?$_Tree_simple_types@U?$pair@$$CBKPAVCLight@@@std@@@std@@@std@@U_Iterator_base0@2@@std@@QAEAAV01@XZ ; std::_Tree_unchecked_const_iterator<std::_Tree_val<std::_Tree_simple_types<std::pair<unsigned long const ,CLight *> > >,std::_Iterator_base0>::operator++
PUBLIC	??$erase@V?$_Tree_iterator@V?$_Tree_val@U?$_Tree_simple_types@U?$pair@$$CBKPAVCLight@@@std@@@std@@@std@@@std@@$0A@@?$_Tree@V?$_Tmap_traits@KPAVCLight@@U?$less@K@std@@V?$allocator@U?$pair@$$CBKPAVCLight@@@std@@@3@$0A@@std@@@std@@QAE?AV?$_Tree_iterator@V?$_Tree_val@U?$_Tree_simple_types@U?$pair@$$CBKPAVCLight@@@std@@@std@@@std@@@1@V21@@Z ; std::_Tree<std::_Tmap_traits<unsigned long,CLight *,std::less<unsigned long>,std::allocator<std::pair<unsigned long const ,CLight *> >,0> >::erase<std::_Tree_iterator<std::_Tree_val<std::_Tree_simple_types<std::pair<unsigned long const ,CLight *> > > >,0>
PUBLIC	??$for_each@V?$_Vector_iterator@V?$_Vector_val@U?$_Simple_types@PAVCLight@@@std@@@std@@@std@@P6AXPAVCLight@@@Z@std@@YAP6AXPAVCLight@@@ZV?$_Vector_iterator@V?$_Vector_val@U?$_Simple_types@PAVCLight@@@std@@@std@@@0@1P6AX0@Z@Z ; std::for_each<std::_Vector_iterator<std::_Vector_val<std::_Simple_types<CLight *> > >,void (__cdecl*)(CLight *)>
PUBLIC	??$emplace_back@ABQAVCLight@@@?$vector@PAVCLight@@V?$allocator@PAVCLight@@@std@@@std@@QAEXABQAVCLight@@@Z ; std::vector<CLight *,std::allocator<CLight *> >::emplace_back<CLight * const &>
PUBLIC	??$_Emplace_back_with_unused_capacity@ABQAVCLight@@@?$vector@PAVCLight@@V?$allocator@PAVCLight@@@std@@@std@@AAEXABQAVCLight@@@Z ; std::vector<CLight *,std::allocator<CLight *> >::_Emplace_back_with_unused_capacity<CLight * const &>
PUBLIC	??$_Emplace_reallocate@ABQAVCLight@@@?$vector@PAVCLight@@V?$allocator@PAVCLight@@@std@@@std@@QAEPAPAVCLight@@QAPAV2@ABQAV2@@Z ; std::vector<CLight *,std::allocator<CLight *> >::_Emplace_reallocate<CLight * const &>
PUBLIC	??$_Try_emplace@ABK$$V@?$map@KPAVCLight@@U?$less@K@std@@V?$allocator@U?$pair@$$CBKPAVCLight@@@std@@@3@@std@@AAE?AU?$pair@PAU?$_Tree_node@U?$pair@$$CBKPAVCLight@@@std@@PAX@std@@_N@1@ABK@Z ; std::map<unsigned long,CLight *,std::less<unsigned long>,std::allocator<std::pair<unsigned long const ,CLight *> > >::_Try_emplace<unsigned long const &>
PUBLIC	??$_Find@K@?$_Tree@V?$_Tmap_traits@KPAVCLight@@U?$less@K@std@@V?$allocator@U?$pair@$$CBKPAVCLight@@@std@@@3@$0A@@std@@@std@@ABEPAU?$_Tree_node@U?$pair@$$CBKPAVCLight@@@std@@PAX@1@ABK@Z ; std::_Tree<std::_Tmap_traits<unsigned long,CLight *,std::less<unsigned long>,std::allocator<std::pair<unsigned long const ,CLight *> >,0> >::_Find<unsigned long>
PUBLIC	??$_Erase_tree@V?$allocator@U?$_Tree_node@U?$pair@$$CBKPAVCLight@@@std@@PAX@std@@@std@@@?$_Tree_val@U?$_Tree_simple_types@U?$pair@$$CBKPAVCLight@@@std@@@std@@@std@@QAEXAAV?$allocator@U?$_Tree_node@U?$pair@$$CBKPAVCLight@@@std@@PAX@std@@@1@PAU?$_Tree_node@U?$pair@$$CBKPAVCLight@@@std@@PAX@1@@Z ; std::_Tree_val<std::_Tree_simple_types<std::pair<unsigned long const ,CLight *> > >::_Erase_tree<std::allocator<std::_Tree_node<std::pair<unsigned long const ,CLight *>,void *> > >
PUBLIC	??$_Emplace_back_internal@ABK@?$deque@KV?$allocator@K@std@@@std@@AAEXABK@Z ; std::deque<unsigned long,std::allocator<unsigned long> >::_Emplace_back_internal<unsigned long const &>
PUBLIC	??D?$_Deque_unchecked_const_iterator@V?$_Deque_val@U?$_Deque_simple_types@K@std@@@std@@@std@@QBEABKXZ ; std::_Deque_unchecked_const_iterator<std::_Deque_val<std::_Deque_simple_types<unsigned long> > >::operator*
PUBLIC	??$_Delete_plain_internal@V?$allocator@U_Container_proxy@std@@@std@@@std@@YAXAAV?$allocator@U_Container_proxy@std@@@0@QAU_Container_proxy@0@@Z ; std::_Delete_plain_internal<std::allocator<std::_Container_proxy> >
PUBLIC	??$_Alloc_proxy@V?$allocator@U_Container_proxy@std@@@std@@@_Container_base12@std@@QAEX$$QAV?$allocator@U_Container_proxy@std@@@1@@Z ; std::_Container_base12::_Alloc_proxy<std::allocator<std::_Container_proxy> >
PUBLIC	??$_Destroy_range@V?$allocator@PAVCLight@@@std@@@std@@YAXPAPAVCLight@@QAPAV1@AAV?$allocator@PAVCLight@@@0@@Z ; std::_Destroy_range<std::allocator<CLight *> >
PUBLIC	??$_Destroy_in_place@PAK@std@@YAXAAPAK@Z	; std::_Destroy_in_place<unsigned long *>
PUBLIC	??$_Pocca@V?$allocator@PAVCLight@@@std@@@std@@YAXAAV?$allocator@PAVCLight@@@0@ABV10@@Z ; std::_Pocca<std::allocator<CLight *> >
PUBLIC	??$_Buyheadnode@V?$allocator@U?$_Tree_node@U?$pair@$$CBKPAVCLight@@@std@@PAX@std@@@std@@@?$_Tree_node@U?$pair@$$CBKPAVCLight@@@std@@PAX@std@@SAPAU01@AAV?$allocator@U?$_Tree_node@U?$pair@$$CBKPAVCLight@@@std@@PAX@std@@@1@@Z ; std::_Tree_node<std::pair<unsigned long const ,CLight *>,void *>::_Buyheadnode<std::allocator<std::_Tree_node<std::pair<unsigned long const ,CLight *>,void *> > >
PUBLIC	??$_Sort_unchecked@PAPAVCLight@@ULightComp@@@std@@YAXPAPAVCLight@@0HULightComp@@@Z ; std::_Sort_unchecked<CLight * *,LightComp>
PUBLIC	??$_Find_lower_bound@K@?$_Tree@V?$_Tmap_traits@KPAVCLight@@U?$less@K@std@@V?$allocator@U?$pair@$$CBKPAVCLight@@@std@@@3@$0A@@std@@@std@@IBE?AU?$_Tree_find_result@PAU?$_Tree_node@U?$pair@$$CBKPAVCLight@@@std@@PAX@std@@@1@ABK@Z ; std::_Tree<std::_Tmap_traits<unsigned long,CLight *,std::less<unsigned long>,std::allocator<std::pair<unsigned long const ,CLight *> >,0> >::_Find_lower_bound<unsigned long>
PUBLIC	?_Allocate@?$_Alloc_construct_ptr@V?$allocator@U?$_Tree_node@U?$pair@$$CBKPAVCLight@@@std@@PAX@std@@@std@@@std@@QAEXXZ ; std::_Alloc_construct_ptr<std::allocator<std::_Tree_node<std::pair<unsigned long const ,CLight *>,void *> > >::_Allocate
PUBLIC	??1?$_Alloc_construct_ptr@V?$allocator@U?$_Tree_node@U?$pair@$$CBKPAVCLight@@@std@@PAX@std@@@std@@@std@@QAE@XZ ; std::_Alloc_construct_ptr<std::allocator<std::_Tree_node<std::pair<unsigned long const ,CLight *>,void *> > >::~_Alloc_construct_ptr<std::allocator<std::_Tree_node<std::pair<unsigned long const ,CLight *>,void *> > >
PUBLIC	??1?$_Tree_temp_node_alloc@V?$allocator@U?$_Tree_node@U?$pair@$$CBKPAVCLight@@@std@@PAX@std@@@std@@@std@@QAE@XZ ; std::_Tree_temp_node_alloc<std::allocator<std::_Tree_node<std::pair<unsigned long const ,CLight *>,void *> > >::~_Tree_temp_node_alloc<std::allocator<std::_Tree_node<std::pair<unsigned long const ,CLight *>,void *> > >
PUBLIC	??1?$_Tree_temp_node@V?$allocator@U?$_Tree_node@U?$pair@$$CBKPAVCLight@@@std@@PAX@std@@@std@@@std@@QAE@XZ ; std::_Tree_temp_node<std::allocator<std::_Tree_node<std::pair<unsigned long const ,CLight *>,void *> > >::~_Tree_temp_node<std::allocator<std::_Tree_node<std::pair<unsigned long const ,CLight *>,void *> > >
PUBLIC	??$?0ABUpiecewise_construct_t@std@@V?$tuple@ABK@1@V?$tuple@$$V@1@@?$_Tree_temp_node@V?$allocator@U?$_Tree_node@U?$pair@$$CBKPAVCLight@@@std@@PAX@std@@@std@@@std@@QAE@AAV?$allocator@U?$_Tree_node@U?$pair@$$CBKPAVCLight@@@std@@PAX@std@@@1@PAU?$_Tree_node@U?$pair@$$CBKPAVCLight@@@std@@PAX@1@ABUpiecewise_construct_t@1@$$QAV?$tuple@ABK@1@$$QAV?$tuple@$$V@1@@Z ; std::_Tree_temp_node<std::allocator<std::_Tree_node<std::pair<unsigned long const ,CLight *>,void *> > >::_Tree_temp_node<std::allocator<std::_Tree_node<std::pair<unsigned long const ,CLight *>,void *> > ><std::piecewise_construct_t const &,std::tuple<unsigned long const &>,std::tuple<> >
PUBLIC	??$_Freenode0@V?$allocator@U?$_Tree_node@U?$pair@$$CBKPAVCLight@@@std@@PAX@std@@@std@@@?$_Tree_node@U?$pair@$$CBKPAVCLight@@@std@@PAX@std@@SAXAAV?$allocator@U?$_Tree_node@U?$pair@$$CBKPAVCLight@@@std@@PAX@std@@@1@PAU01@@Z ; std::_Tree_node<std::pair<unsigned long const ,CLight *>,void *>::_Freenode0<std::allocator<std::_Tree_node<std::pair<unsigned long const ,CLight *>,void *> > >
PUBLIC	??$_Deallocate_plain@V?$allocator@U_Container_proxy@std@@@std@@@std@@YAXAAV?$allocator@U_Container_proxy@std@@@0@QAU_Container_proxy@0@@Z ; std::_Deallocate_plain<std::allocator<std::_Container_proxy> >
PUBLIC	??$_Construct_in_place@U_Container_proxy@std@@PAU_Container_base12@2@@std@@YAXAAU_Container_proxy@0@$$QAPAU_Container_base12@0@@Z ; std::_Construct_in_place<std::_Container_proxy,std::_Container_base12 *>
PUBLIC	??$_Assign_range@PAPAVCLight@@@?$vector@PAVCLight@@V?$allocator@PAVCLight@@@std@@@std@@AAEXPAPAVCLight@@0Uforward_iterator_tag@1@@Z ; std::vector<CLight *,std::allocator<CLight *> >::_Assign_range<CLight * *>
PUBLIC	??$_Construct_in_place@PAU?$_Tree_node@U?$pair@$$CBKPAVCLight@@@std@@PAX@std@@ABQAU12@@std@@YAXAAPAU?$_Tree_node@U?$pair@$$CBKPAVCLight@@@std@@PAX@0@ABQAU10@@Z ; std::_Construct_in_place<std::_Tree_node<std::pair<unsigned long const ,CLight *>,void *> *,std::_Tree_node<std::pair<unsigned long const ,CLight *>,void *> * const &>
PUBLIC	??$_Destroy_in_place@PAU?$_Tree_node@U?$pair@$$CBKPAVCLight@@@std@@PAX@std@@@std@@YAXAAPAU?$_Tree_node@U?$pair@$$CBKPAVCLight@@@std@@PAX@0@@Z ; std::_Destroy_in_place<std::_Tree_node<std::pair<unsigned long const ,CLight *>,void *> *>
PUBLIC	??$_Uninitialized_move@PAPAVCLight@@V?$allocator@PAVCLight@@@std@@@std@@YAPAPAVCLight@@QAPAV1@0PAPAV1@AAV?$allocator@PAVCLight@@@0@@Z ; std::_Uninitialized_move<CLight * *,std::allocator<CLight *> >
PUBLIC	??$uninitialized_copy@PAPAKPAPAK@std@@YAPAPAKQAPAK0PAPAK@Z ; std::uninitialized_copy<unsigned long * *,unsigned long * *>
PUBLIC	??$_Uninitialized_value_construct_n_unchecked1@PAPAKI@std@@YAPAPAKPAPAKI@Z ; std::_Uninitialized_value_construct_n_unchecked1<unsigned long * *,unsigned int>
PUBLIC	??$_Destroy_range@PAPAKPAPAK@std@@YAXPAPAKQAPAK@Z ; std::_Destroy_range<unsigned long * *,unsigned long * *>
PUBLIC	??$_Insertion_sort_unchecked@PAPAVCLight@@ULightComp@@@std@@YAPAPAVCLight@@QAPAV1@0ULightComp@@@Z ; std::_Insertion_sort_unchecked<CLight * *,LightComp>
PUBLIC	??$_Make_heap_unchecked@PAPAVCLight@@ULightComp@@@std@@YAXPAPAVCLight@@0ULightComp@@@Z ; std::_Make_heap_unchecked<CLight * *,LightComp>
PUBLIC	??$_Partition_by_median_guess_unchecked@PAPAVCLight@@ULightComp@@@std@@YA?AU?$pair@PAPAVCLight@@PAPAV1@@0@PAPAVCLight@@0ULightComp@@@Z ; std::_Partition_by_median_guess_unchecked<CLight * *,LightComp>
PUBLIC	??$construct@U?$pair@$$CBKPAVCLight@@@std@@ABUpiecewise_construct_t@2@V?$tuple@ABK@2@V?$tuple@$$V@2@@?$_Default_allocator_traits@V?$allocator@U?$_Tree_node@U?$pair@$$CBKPAVCLight@@@std@@PAX@std@@@std@@@std@@SAXAAV?$allocator@U?$_Tree_node@U?$pair@$$CBKPAVCLight@@@std@@PAX@std@@@1@QAU?$pair@$$CBKPAVCLight@@@1@ABUpiecewise_construct_t@1@$$QAV?$tuple@ABK@1@$$QAV?$tuple@$$V@1@@Z ; std::_Default_allocator_traits<std::allocator<std::_Tree_node<std::pair<unsigned long const ,CLight *>,void *> > >::construct<std::pair<unsigned long const ,CLight *>,std::piecewise_construct_t const &,std::tuple<unsigned long const &>,std::tuple<> >
PUBLIC	??$_Construct_in_place@PAU?$_Tree_node@U?$pair@$$CBKPAVCLight@@@std@@PAX@std@@AAPAU12@@std@@YAXAAPAU?$_Tree_node@U?$pair@$$CBKPAVCLight@@@std@@PAX@0@0@Z ; std::_Construct_in_place<std::_Tree_node<std::pair<unsigned long const ,CLight *>,void *> *,std::_Tree_node<std::pair<unsigned long const ,CLight *>,void *> * &>
PUBLIC	??$_Copy_memmove@PAPAVCLight@@PAPAV1@@std@@YAPAPAVCLight@@PAPAV1@00@Z ; std::_Copy_memmove<CLight * *,CLight * *>
PUBLIC	??$_Refancy@PAPAVCLight@@$0A@@std@@YAPAPAVCLight@@PAPAV1@@Z ; std::_Refancy<CLight * *,0>
PUBLIC	??$_Copy_memmove@PAPAKPAPAK@std@@YAPAPAKPAPAK00@Z ; std::_Copy_memmove<unsigned long * *,unsigned long * *>
PUBLIC	??$_Zero_range@PAPAK@std@@YAPAPAKQAPAK0@Z	; std::_Zero_range<unsigned long * *>
PUBLIC	??$_Pop_heap_hole_by_index@PAPAVCLight@@PAV1@ULightComp@@@std@@YAXPAPAVCLight@@HH$$QAPAV1@ULightComp@@@Z ; std::_Pop_heap_hole_by_index<CLight * *,CLight *,LightComp>
PUBLIC	??$_Pop_heap_unchecked@PAPAVCLight@@ULightComp@@@std@@YAXPAPAVCLight@@0ULightComp@@@Z ; std::_Pop_heap_unchecked<CLight * *,LightComp>
PUBLIC	??$_Guess_median_unchecked@PAPAVCLight@@ULightComp@@@std@@YAXPAPAVCLight@@00ULightComp@@@Z ; std::_Guess_median_unchecked<CLight * *,LightComp>
PUBLIC	??$_Copy_backward_memmove@PAPAVCLight@@PAPAV1@@std@@YAPAPAVCLight@@PAPAV1@00@Z ; std::_Copy_backward_memmove<CLight * *,CLight * *>
PUBLIC	??$_Push_heap_by_index@PAPAVCLight@@PAV1@ULightComp@@@std@@YAXPAPAVCLight@@HH$$QAPAV1@ULightComp@@@Z ; std::_Push_heap_by_index<CLight * *,CLight *,LightComp>
PUBLIC	??$_Med3_unchecked@PAPAVCLight@@ULightComp@@@std@@YAXPAPAVCLight@@00ULightComp@@@Z ; std::_Med3_unchecked<CLight * *,LightComp>
PUBLIC	??_ECLight@@W3AEPAXI@Z				; [thunk]:CLight::`vector deleting destructor'
PUBLIC	??_ECLightManager@@W3AEPAXI@Z			; [thunk]:CLightManager::`vector deleting destructor'
PUBLIC	??_ECLightManager@@W7AEPAXI@Z			; [thunk]:CLightManager::`vector deleting destructor'
PUBLIC	??_7exception@std@@6B@				; std::exception::`vftable'
PUBLIC	??_C@_0BC@EOODALEL@Unknown?5exception@		; `string'
PUBLIC	??_7bad_alloc@std@@6B@				; std::bad_alloc::`vftable'
PUBLIC	??_7bad_array_new_length@std@@6B@		; std::bad_array_new_length::`vftable'
PUBLIC	??_C@_0BF@KINCDENJ@bad?5array?5new?5length@	; `string'
PUBLIC	__TI3?AVbad_array_new_length@std@@
PUBLIC	__CTA3?AVbad_array_new_length@std@@
PUBLIC	??_R0?AVbad_array_new_length@std@@@8		; std::bad_array_new_length `RTTI Type Descriptor'
PUBLIC	__CT??_R0?AVbad_array_new_length@std@@@8??0bad_array_new_length@std@@QAE@ABV01@@Z12
PUBLIC	??_R0?AVbad_alloc@std@@@8			; std::bad_alloc `RTTI Type Descriptor'
PUBLIC	__CT??_R0?AVbad_alloc@std@@@8??0bad_alloc@std@@QAE@ABV01@@Z12
PUBLIC	??_R0?AVexception@std@@@8			; std::exception `RTTI Type Descriptor'
PUBLIC	__CT??_R0?AVexception@std@@@8??0exception@std@@QAE@ABV01@@Z12
PUBLIC	??_C@_0BB@GCADKGJO@map?1set?5too?5long@		; `string'
PUBLIC	??_R4exception@std@@6B@				; std::exception::`RTTI Complete Object Locator'
PUBLIC	??_R3exception@std@@8				; std::exception::`RTTI Class Hierarchy Descriptor'
PUBLIC	??_R2exception@std@@8				; std::exception::`RTTI Base Class Array'
PUBLIC	??_R1A@?0A@EA@exception@std@@8			; std::exception::`RTTI Base Class Descriptor at (0,-1,0,64)'
PUBLIC	??_R4bad_alloc@std@@6B@				; std::bad_alloc::`RTTI Complete Object Locator'
PUBLIC	??_R3bad_alloc@std@@8				; std::bad_alloc::`RTTI Class Hierarchy Descriptor'
PUBLIC	??_R2bad_alloc@std@@8				; std::bad_alloc::`RTTI Base Class Array'
PUBLIC	??_R1A@?0A@EA@bad_alloc@std@@8			; std::bad_alloc::`RTTI Base Class Descriptor at (0,-1,0,64)'
PUBLIC	??_R4bad_array_new_length@std@@6B@		; std::bad_array_new_length::`RTTI Complete Object Locator'
PUBLIC	??_R3bad_array_new_length@std@@8		; std::bad_array_new_length::`RTTI Class Hierarchy Descriptor'
PUBLIC	??_R2bad_array_new_length@std@@8		; std::bad_array_new_length::`RTTI Base Class Array'
PUBLIC	??_R1A@?0A@EA@bad_array_new_length@std@@8	; std::bad_array_new_length::`RTTI Base Class Descriptor at (0,-1,0,64)'
PUBLIC	?ms_singleton@?$CSingleton@VCTimer@@@@0PAVCTimer@@A ; CSingleton<CTimer>::ms_singleton
PUBLIC	??_7CLightBase@@6B@				; CLightBase::`vftable'
PUBLIC	??_7CLight@@6BCGraphicBase@@@			; CLight::`vftable'
PUBLIC	??_7CLight@@6BCLightBase@@@			; CLight::`vftable'
PUBLIC	?ms_singleton@?$CSingleton@VCLightManager@@@@0PAVCLightManager@@A ; CSingleton<CLightManager>::ms_singleton
PUBLIC	??_7?$CSingleton@VCLightManager@@@@6B@		; CSingleton<CLightManager>::`vftable'
PUBLIC	??_7?$CDynamicPool@VCLight@@@@6B@		; CDynamicPool<CLight>::`vftable'
PUBLIC	??_7CLightManager@@6BCGraphicBase@@@		; CLightManager::`vftable'
PUBLIC	??_7CLightManager@@6BCLightBase@@@		; CLightManager::`vftable'
PUBLIC	??_7CLightManager@@6B?$CSingleton@VCLightManager@@@@@ ; CLightManager::`vftable'
PUBLIC	?ms_singleton@?$CSingleton@VCStateManager@@@@0PAVCStateManager@@A ; CSingleton<CStateManager>::ms_singleton
PUBLIC	??_C@_0BA@FOIKENOD@vector?5too?5long@		; `string'
PUBLIC	??_C@_0BC@KBDMBKEH@deque?$DMT?$DO?5too?5long@	; `string'
PUBLIC	??_R4CLightBase@@6B@				; CLightBase::`RTTI Complete Object Locator'
PUBLIC	??_R0?AVCLightBase@@@8				; CLightBase `RTTI Type Descriptor'
PUBLIC	??_R3CLightBase@@8				; CLightBase::`RTTI Class Hierarchy Descriptor'
PUBLIC	??_R2CLightBase@@8				; CLightBase::`RTTI Base Class Array'
PUBLIC	??_R1A@?0A@EA@CLightBase@@8			; CLightBase::`RTTI Base Class Descriptor at (0,-1,0,64)'
PUBLIC	??_R4CLight@@6BCGraphicBase@@@			; CLight::`RTTI Complete Object Locator'
PUBLIC	??_R0?AVCLight@@@8				; CLight `RTTI Type Descriptor'
PUBLIC	??_R3CLight@@8					; CLight::`RTTI Class Hierarchy Descriptor'
PUBLIC	??_R2CLight@@8					; CLight::`RTTI Base Class Array'
PUBLIC	??_R1A@?0A@EA@CLight@@8				; CLight::`RTTI Base Class Descriptor at (0,-1,0,64)'
PUBLIC	??_R1A@?0A@EA@CGraphicBase@@8			; CGraphicBase::`RTTI Base Class Descriptor at (0,-1,0,64)'
PUBLIC	??_R0?AVCGraphicBase@@@8			; CGraphicBase `RTTI Type Descriptor'
PUBLIC	??_R3CGraphicBase@@8				; CGraphicBase::`RTTI Class Hierarchy Descriptor'
PUBLIC	??_R2CGraphicBase@@8				; CGraphicBase::`RTTI Base Class Array'
PUBLIC	??_R13?0A@EA@CLightBase@@8			; CLightBase::`RTTI Base Class Descriptor at (4,-1,0,64)'
PUBLIC	??_R4CLight@@6BCLightBase@@@			; CLight::`RTTI Complete Object Locator'
PUBLIC	??_R4CLightManager@@6BCGraphicBase@@@		; CLightManager::`RTTI Complete Object Locator'
PUBLIC	??_R0?AVCLightManager@@@8			; CLightManager `RTTI Type Descriptor'
PUBLIC	??_R3CLightManager@@8				; CLightManager::`RTTI Class Hierarchy Descriptor'
PUBLIC	??_R2CLightManager@@8				; CLightManager::`RTTI Base Class Array'
PUBLIC	??_R1A@?0A@EA@CLightManager@@8			; CLightManager::`RTTI Base Class Descriptor at (0,-1,0,64)'
PUBLIC	??_R17?0A@EA@?$CSingleton@VCLightManager@@@@8	; CSingleton<CLightManager>::`RTTI Base Class Descriptor at (8,-1,0,64)'
PUBLIC	??_R0?AV?$CSingleton@VCLightManager@@@@@8	; CSingleton<CLightManager> `RTTI Type Descriptor'
PUBLIC	??_R3?$CSingleton@VCLightManager@@@@8		; CSingleton<CLightManager>::`RTTI Class Hierarchy Descriptor'
PUBLIC	??_R2?$CSingleton@VCLightManager@@@@8		; CSingleton<CLightManager>::`RTTI Base Class Array'
PUBLIC	??_R1A@?0A@EA@?$CSingleton@VCLightManager@@@@8	; CSingleton<CLightManager>::`RTTI Base Class Descriptor at (0,-1,0,64)'
PUBLIC	??_R4CLightManager@@6BCLightBase@@@		; CLightManager::`RTTI Complete Object Locator'
PUBLIC	??_R4CLightManager@@6B?$CSingleton@VCLightManager@@@@@ ; CLightManager::`RTTI Complete Object Locator'
PUBLIC	??_R4?$CSingleton@VCLightManager@@@@6B@		; CSingleton<CLightManager>::`RTTI Complete Object Locator'
PUBLIC	??_R4?$CDynamicPool@VCLight@@@@6B@		; CDynamicPool<CLight>::`RTTI Complete Object Locator'
PUBLIC	??_R0?AV?$CDynamicPool@VCLight@@@@@8		; CDynamicPool<CLight> `RTTI Type Descriptor'
PUBLIC	??_R3?$CDynamicPool@VCLight@@@@8		; CDynamicPool<CLight>::`RTTI Class Hierarchy Descriptor'
PUBLIC	??_R2?$CDynamicPool@VCLight@@@@8		; CDynamicPool<CLight>::`RTTI Base Class Array'
PUBLIC	??_R1A@?0A@EA@?$CDynamicPool@VCLight@@@@8	; CDynamicPool<CLight>::`RTTI Base Class Descriptor at (0,-1,0,64)'
PUBLIC	__real@3f800000
EXTRN	??2@YAPAXI@Z:PROC				; operator new
EXTRN	??3@YAXPAXI@Z:PROC				; operator delete
EXTRN	__invalid_parameter_noinfo_noreturn:PROC
EXTRN	_memmove:PROC
EXTRN	_memset:PROC
EXTRN	_sqrt:PROC
EXTRN	___std_exception_copy:PROC
EXTRN	___std_exception_destroy:PROC
EXTRN	??_Eexception@std@@UAEPAXI@Z:PROC		; std::exception::`vector deleting destructor'
EXTRN	??_Ebad_alloc@std@@UAEPAXI@Z:PROC		; std::bad_alloc::`vector deleting destructor'
EXTRN	??_Ebad_array_new_length@std@@UAEPAXI@Z:PROC	; std::bad_array_new_length::`vector deleting destructor'
EXTRN	?_Xlength_error@std@@YAXPBD@Z:PROC		; std::_Xlength_error
EXTRN	?GetCurrentSecond@CTimer@@QAEMXZ:PROC		; CTimer::GetCurrentSecond
EXTRN	??0CGraphicBase@@QAE@XZ:PROC			; CGraphicBase::CGraphicBase
EXTRN	??1CGraphicBase@@UAE@XZ:PROC			; CGraphicBase::~CGraphicBase
EXTRN	??_ECLightBase@@UAEPAXI@Z:PROC			; CLightBase::`vector deleting destructor'
EXTRN	??_ECLight@@UAEPAXI@Z:PROC			; CLight::`vector deleting destructor'
EXTRN	??_E?$CSingleton@VCLightManager@@@@UAEPAXI@Z:PROC ; CSingleton<CLightManager>::`vector deleting destructor'
EXTRN	??_E?$CDynamicPool@VCLight@@@@UAEPAXI@Z:PROC	; CDynamicPool<CLight>::`vector deleting destructor'
EXTRN	??_ECLightManager@@UAEPAXI@Z:PROC		; CLightManager::`vector deleting destructor'
EXTRN	?SaveRenderState@CStateManager@@QAEXW4_D3DRENDERSTATETYPE@@K@Z:PROC ; CStateManager::SaveRenderState
EXTRN	?RestoreRenderState@CStateManager@@QAEXW4_D3DRENDERSTATETYPE@@@Z:PROC ; CStateManager::RestoreRenderState
EXTRN	@__security_check_cookie@4:PROC
EXTRN	__CxxThrowException@8:PROC
EXTRN	___CxxFrameHandler3:PROC
EXTRN	??_7type_info@@6B@:QWORD			; type_info::`vftable'
EXTRN	?ms_lpd3dDevice@CGraphicBase@@1PAUIDirect3DDevice8@@A:DWORD ; CGraphicBase::ms_lpd3dDevice
EXTRN	___security_cookie:DWORD
EXTRN	__fltused:DWORD
;	COMDAT ?ms_singleton@?$CSingleton@VCTimer@@@@0PAVCTimer@@A
_BSS	SEGMENT
?ms_singleton@?$CSingleton@VCTimer@@@@0PAVCTimer@@A DD 01H DUP (?) ; CSingleton<CTimer>::ms_singleton
_BSS	ENDS
;	COMDAT ?ms_singleton@?$CSingleton@VCLightManager@@@@0PAVCLightManager@@A
_BSS	SEGMENT
?ms_singleton@?$CSingleton@VCLightManager@@@@0PAVCLightManager@@A DD 01H DUP (?) ; CSingleton<CLightManager>::ms_singleton
_BSS	ENDS
;	COMDAT ?ms_singleton@?$CSingleton@VCStateManager@@@@0PAVCStateManager@@A
_BSS	SEGMENT
?ms_singleton@?$CSingleton@VCStateManager@@@@0PAVCStateManager@@A DD 01H DUP (?) ; CSingleton<CStateManager>::ms_singleton
_BSS	ENDS
;	COMDAT __real@3f800000
CONST	SEGMENT
__real@3f800000 DD 03f800000r			; 1
CONST	ENDS
;	COMDAT ??_R1A@?0A@EA@?$CDynamicPool@VCLight@@@@8
rdata$r	SEGMENT
??_R1A@?0A@EA@?$CDynamicPool@VCLight@@@@8 DD FLAT:??_R0?AV?$CDynamicPool@VCLight@@@@@8 ; CDynamicPool<CLight>::`RTTI Base Class Descriptor at (0,-1,0,64)'
	DD	00H
	DD	00H
	DD	0ffffffffH
	DD	00H
	DD	040H
	DD	FLAT:??_R3?$CDynamicPool@VCLight@@@@8
rdata$r	ENDS
;	COMDAT ??_R2?$CDynamicPool@VCLight@@@@8
rdata$r	SEGMENT
??_R2?$CDynamicPool@VCLight@@@@8 DD FLAT:??_R1A@?0A@EA@?$CDynamicPool@VCLight@@@@8 ; CDynamicPool<CLight>::`RTTI Base Class Array'
rdata$r	ENDS
;	COMDAT ??_R3?$CDynamicPool@VCLight@@@@8
rdata$r	SEGMENT
??_R3?$CDynamicPool@VCLight@@@@8 DD 00H			; CDynamicPool<CLight>::`RTTI Class Hierarchy Descriptor'
	DD	00H
	DD	01H
	DD	FLAT:??_R2?$CDynamicPool@VCLight@@@@8
rdata$r	ENDS
;	COMDAT ??_R0?AV?$CDynamicPool@VCLight@@@@@8
data$rs	SEGMENT
??_R0?AV?$CDynamicPool@VCLight@@@@@8 DD FLAT:??_7type_info@@6B@ ; CDynamicPool<CLight> `RTTI Type Descriptor'
	DD	00H
	DB	'.?AV?$CDynamicPool@VCLight@@@@', 00H
data$rs	ENDS
;	COMDAT ??_R4?$CDynamicPool@VCLight@@@@6B@
rdata$r	SEGMENT
??_R4?$CDynamicPool@VCLight@@@@6B@ DD 00H		; CDynamicPool<CLight>::`RTTI Complete Object Locator'
	DD	00H
	DD	00H
	DD	FLAT:??_R0?AV?$CDynamicPool@VCLight@@@@@8
	DD	FLAT:??_R3?$CDynamicPool@VCLight@@@@8
rdata$r	ENDS
;	COMDAT ??_R4?$CSingleton@VCLightManager@@@@6B@
rdata$r	SEGMENT
??_R4?$CSingleton@VCLightManager@@@@6B@ DD 00H		; CSingleton<CLightManager>::`RTTI Complete Object Locator'
	DD	00H
	DD	00H
	DD	FLAT:??_R0?AV?$CSingleton@VCLightManager@@@@@8
	DD	FLAT:??_R3?$CSingleton@VCLightManager@@@@8
rdata$r	ENDS
;	COMDAT ??_R4CLightManager@@6B?$CSingleton@VCLightManager@@@@@
rdata$r	SEGMENT
??_R4CLightManager@@6B?$CSingleton@VCLightManager@@@@@ DD 00H ; CLightManager::`RTTI Complete Object Locator'
	DD	08H
	DD	00H
	DD	FLAT:??_R0?AVCLightManager@@@8
	DD	FLAT:??_R3CLightManager@@8
rdata$r	ENDS
;	COMDAT ??_R4CLightManager@@6BCLightBase@@@
rdata$r	SEGMENT
??_R4CLightManager@@6BCLightBase@@@ DD 00H		; CLightManager::`RTTI Complete Object Locator'
	DD	04H
	DD	00H
	DD	FLAT:??_R0?AVCLightManager@@@8
	DD	FLAT:??_R3CLightManager@@8
rdata$r	ENDS
;	COMDAT ??_R1A@?0A@EA@?$CSingleton@VCLightManager@@@@8
rdata$r	SEGMENT
??_R1A@?0A@EA@?$CSingleton@VCLightManager@@@@8 DD FLAT:??_R0?AV?$CSingleton@VCLightManager@@@@@8 ; CSingleton<CLightManager>::`RTTI Base Class Descriptor at (0,-1,0,64)'
	DD	00H
	DD	00H
	DD	0ffffffffH
	DD	00H
	DD	040H
	DD	FLAT:??_R3?$CSingleton@VCLightManager@@@@8
rdata$r	ENDS
;	COMDAT ??_R2?$CSingleton@VCLightManager@@@@8
rdata$r	SEGMENT
??_R2?$CSingleton@VCLightManager@@@@8 DD FLAT:??_R1A@?0A@EA@?$CSingleton@VCLightManager@@@@8 ; CSingleton<CLightManager>::`RTTI Base Class Array'
rdata$r	ENDS
;	COMDAT ??_R3?$CSingleton@VCLightManager@@@@8
rdata$r	SEGMENT
??_R3?$CSingleton@VCLightManager@@@@8 DD 00H		; CSingleton<CLightManager>::`RTTI Class Hierarchy Descriptor'
	DD	00H
	DD	01H
	DD	FLAT:??_R2?$CSingleton@VCLightManager@@@@8
rdata$r	ENDS
;	COMDAT ??_R0?AV?$CSingleton@VCLightManager@@@@@8
data$rs	SEGMENT
??_R0?AV?$CSingleton@VCLightManager@@@@@8 DD FLAT:??_7type_info@@6B@ ; CSingleton<CLightManager> `RTTI Type Descriptor'
	DD	00H
	DB	'.?AV?$CSingleton@VCLightManager@@@@', 00H
data$rs	ENDS
;	COMDAT ??_R17?0A@EA@?$CSingleton@VCLightManager@@@@8
rdata$r	SEGMENT
??_R17?0A@EA@?$CSingleton@VCLightManager@@@@8 DD FLAT:??_R0?AV?$CSingleton@VCLightManager@@@@@8 ; CSingleton<CLightManager>::`RTTI Base Class Descriptor at (8,-1,0,64)'
	DD	00H
	DD	08H
	DD	0ffffffffH
	DD	00H
	DD	040H
	DD	FLAT:??_R3?$CSingleton@VCLightManager@@@@8
rdata$r	ENDS
;	COMDAT ??_R1A@?0A@EA@CLightManager@@8
rdata$r	SEGMENT
??_R1A@?0A@EA@CLightManager@@8 DD FLAT:??_R0?AVCLightManager@@@8 ; CLightManager::`RTTI Base Class Descriptor at (0,-1,0,64)'
	DD	03H
	DD	00H
	DD	0ffffffffH
	DD	00H
	DD	040H
	DD	FLAT:??_R3CLightManager@@8
rdata$r	ENDS
;	COMDAT ??_R2CLightManager@@8
rdata$r	SEGMENT
??_R2CLightManager@@8 DD FLAT:??_R1A@?0A@EA@CLightManager@@8 ; CLightManager::`RTTI Base Class Array'
	DD	FLAT:??_R1A@?0A@EA@CGraphicBase@@8
	DD	FLAT:??_R13?0A@EA@CLightBase@@8
	DD	FLAT:??_R17?0A@EA@?$CSingleton@VCLightManager@@@@8
rdata$r	ENDS
;	COMDAT ??_R3CLightManager@@8
rdata$r	SEGMENT
??_R3CLightManager@@8 DD 00H				; CLightManager::`RTTI Class Hierarchy Descriptor'
	DD	01H
	DD	04H
	DD	FLAT:??_R2CLightManager@@8
rdata$r	ENDS
;	COMDAT ??_R0?AVCLightManager@@@8
data$rs	SEGMENT
??_R0?AVCLightManager@@@8 DD FLAT:??_7type_info@@6B@	; CLightManager `RTTI Type Descriptor'
	DD	00H
	DB	'.?AVCLightManager@@', 00H
data$rs	ENDS
;	COMDAT ??_R4CLightManager@@6BCGraphicBase@@@
rdata$r	SEGMENT
??_R4CLightManager@@6BCGraphicBase@@@ DD 00H		; CLightManager::`RTTI Complete Object Locator'
	DD	00H
	DD	00H
	DD	FLAT:??_R0?AVCLightManager@@@8
	DD	FLAT:??_R3CLightManager@@8
rdata$r	ENDS
;	COMDAT ??_R4CLight@@6BCLightBase@@@
rdata$r	SEGMENT
??_R4CLight@@6BCLightBase@@@ DD 00H			; CLight::`RTTI Complete Object Locator'
	DD	04H
	DD	00H
	DD	FLAT:??_R0?AVCLight@@@8
	DD	FLAT:??_R3CLight@@8
rdata$r	ENDS
;	COMDAT ??_R13?0A@EA@CLightBase@@8
rdata$r	SEGMENT
??_R13?0A@EA@CLightBase@@8 DD FLAT:??_R0?AVCLightBase@@@8 ; CLightBase::`RTTI Base Class Descriptor at (4,-1,0,64)'
	DD	00H
	DD	04H
	DD	0ffffffffH
	DD	00H
	DD	040H
	DD	FLAT:??_R3CLightBase@@8
rdata$r	ENDS
;	COMDAT ??_R2CGraphicBase@@8
rdata$r	SEGMENT
??_R2CGraphicBase@@8 DD FLAT:??_R1A@?0A@EA@CGraphicBase@@8 ; CGraphicBase::`RTTI Base Class Array'
rdata$r	ENDS
;	COMDAT ??_R3CGraphicBase@@8
rdata$r	SEGMENT
??_R3CGraphicBase@@8 DD 00H				; CGraphicBase::`RTTI Class Hierarchy Descriptor'
	DD	00H
	DD	01H
	DD	FLAT:??_R2CGraphicBase@@8
rdata$r	ENDS
;	COMDAT ??_R0?AVCGraphicBase@@@8
data$rs	SEGMENT
??_R0?AVCGraphicBase@@@8 DD FLAT:??_7type_info@@6B@	; CGraphicBase `RTTI Type Descriptor'
	DD	00H
	DB	'.?AVCGraphicBase@@', 00H
data$rs	ENDS
;	COMDAT ??_R1A@?0A@EA@CGraphicBase@@8
rdata$r	SEGMENT
??_R1A@?0A@EA@CGraphicBase@@8 DD FLAT:??_R0?AVCGraphicBase@@@8 ; CGraphicBase::`RTTI Base Class Descriptor at (0,-1,0,64)'
	DD	00H
	DD	00H
	DD	0ffffffffH
	DD	00H
	DD	040H
	DD	FLAT:??_R3CGraphicBase@@8
rdata$r	ENDS
;	COMDAT ??_R1A@?0A@EA@CLight@@8
rdata$r	SEGMENT
??_R1A@?0A@EA@CLight@@8 DD FLAT:??_R0?AVCLight@@@8	; CLight::`RTTI Base Class Descriptor at (0,-1,0,64)'
	DD	02H
	DD	00H
	DD	0ffffffffH
	DD	00H
	DD	040H
	DD	FLAT:??_R3CLight@@8
rdata$r	ENDS
;	COMDAT ??_R2CLight@@8
rdata$r	SEGMENT
??_R2CLight@@8 DD FLAT:??_R1A@?0A@EA@CLight@@8		; CLight::`RTTI Base Class Array'
	DD	FLAT:??_R1A@?0A@EA@CGraphicBase@@8
	DD	FLAT:??_R13?0A@EA@CLightBase@@8
rdata$r	ENDS
;	COMDAT ??_R3CLight@@8
rdata$r	SEGMENT
??_R3CLight@@8 DD 00H					; CLight::`RTTI Class Hierarchy Descriptor'
	DD	01H
	DD	03H
	DD	FLAT:??_R2CLight@@8
rdata$r	ENDS
;	COMDAT ??_R0?AVCLight@@@8
data$rs	SEGMENT
??_R0?AVCLight@@@8 DD FLAT:??_7type_info@@6B@		; CLight `RTTI Type Descriptor'
	DD	00H
	DB	'.?AVCLight@@', 00H
data$rs	ENDS
;	COMDAT ??_R4CLight@@6BCGraphicBase@@@
rdata$r	SEGMENT
??_R4CLight@@6BCGraphicBase@@@ DD 00H			; CLight::`RTTI Complete Object Locator'
	DD	00H
	DD	00H
	DD	FLAT:??_R0?AVCLight@@@8
	DD	FLAT:??_R3CLight@@8
rdata$r	ENDS
;	COMDAT ??_R1A@?0A@EA@CLightBase@@8
rdata$r	SEGMENT
??_R1A@?0A@EA@CLightBase@@8 DD FLAT:??_R0?AVCLightBase@@@8 ; CLightBase::`RTTI Base Class Descriptor at (0,-1,0,64)'
	DD	00H
	DD	00H
	DD	0ffffffffH
	DD	00H
	DD	040H
	DD	FLAT:??_R3CLightBase@@8
rdata$r	ENDS
;	COMDAT ??_R2CLightBase@@8
rdata$r	SEGMENT
??_R2CLightBase@@8 DD FLAT:??_R1A@?0A@EA@CLightBase@@8	; CLightBase::`RTTI Base Class Array'
rdata$r	ENDS
;	COMDAT ??_R3CLightBase@@8
rdata$r	SEGMENT
??_R3CLightBase@@8 DD 00H				; CLightBase::`RTTI Class Hierarchy Descriptor'
	DD	00H
	DD	01H
	DD	FLAT:??_R2CLightBase@@8
rdata$r	ENDS
;	COMDAT ??_R0?AVCLightBase@@@8
data$rs	SEGMENT
??_R0?AVCLightBase@@@8 DD FLAT:??_7type_info@@6B@	; CLightBase `RTTI Type Descriptor'
	DD	00H
	DB	'.?AVCLightBase@@', 00H
data$rs	ENDS
;	COMDAT ??_R4CLightBase@@6B@
rdata$r	SEGMENT
??_R4CLightBase@@6B@ DD 00H				; CLightBase::`RTTI Complete Object Locator'
	DD	00H
	DD	00H
	DD	FLAT:??_R0?AVCLightBase@@@8
	DD	FLAT:??_R3CLightBase@@8
rdata$r	ENDS
;	COMDAT ??_C@_0BC@KBDMBKEH@deque?$DMT?$DO?5too?5long@
CONST	SEGMENT
??_C@_0BC@KBDMBKEH@deque?$DMT?$DO?5too?5long@ DB 'deque<T> too long', 00H ; `string'
CONST	ENDS
;	COMDAT ??_C@_0BA@FOIKENOD@vector?5too?5long@
CONST	SEGMENT
??_C@_0BA@FOIKENOD@vector?5too?5long@ DB 'vector too long', 00H ; `string'
CONST	ENDS
;	COMDAT ??_7CLightManager@@6B?$CSingleton@VCLightManager@@@@@
CONST	SEGMENT
??_7CLightManager@@6B?$CSingleton@VCLightManager@@@@@ DD FLAT:??_R4CLightManager@@6B?$CSingleton@VCLightManager@@@@@ ; CLightManager::`vftable'
	DD	FLAT:??_ECLightManager@@W7AEPAXI@Z
CONST	ENDS
;	COMDAT ??_7CLightManager@@6BCLightBase@@@
CONST	SEGMENT
??_7CLightManager@@6BCLightBase@@@ DD FLAT:??_R4CLightManager@@6BCLightBase@@@ ; CLightManager::`vftable'
	DD	FLAT:??_ECLightManager@@W3AEPAXI@Z
CONST	ENDS
;	COMDAT ??_7CLightManager@@6BCGraphicBase@@@
CONST	SEGMENT
??_7CLightManager@@6BCGraphicBase@@@ DD FLAT:??_R4CLightManager@@6BCGraphicBase@@@ ; CLightManager::`vftable'
	DD	FLAT:??_ECLightManager@@UAEPAXI@Z
CONST	ENDS
;	COMDAT ??_7?$CDynamicPool@VCLight@@@@6B@
CONST	SEGMENT
??_7?$CDynamicPool@VCLight@@@@6B@ DD FLAT:??_R4?$CDynamicPool@VCLight@@@@6B@ ; CDynamicPool<CLight>::`vftable'
	DD	FLAT:??_E?$CDynamicPool@VCLight@@@@UAEPAXI@Z
CONST	ENDS
;	COMDAT ??_7?$CSingleton@VCLightManager@@@@6B@
CONST	SEGMENT
??_7?$CSingleton@VCLightManager@@@@6B@ DD FLAT:??_R4?$CSingleton@VCLightManager@@@@6B@ ; CSingleton<CLightManager>::`vftable'
	DD	FLAT:??_E?$CSingleton@VCLightManager@@@@UAEPAXI@Z
CONST	ENDS
;	COMDAT ??_7CLight@@6BCLightBase@@@
CONST	SEGMENT
??_7CLight@@6BCLightBase@@@ DD FLAT:??_R4CLight@@6BCLightBase@@@ ; CLight::`vftable'
	DD	FLAT:??_ECLight@@W3AEPAXI@Z
CONST	ENDS
;	COMDAT ??_7CLight@@6BCGraphicBase@@@
CONST	SEGMENT
??_7CLight@@6BCGraphicBase@@@ DD FLAT:??_R4CLight@@6BCGraphicBase@@@ ; CLight::`vftable'
	DD	FLAT:??_ECLight@@UAEPAXI@Z
CONST	ENDS
;	COMDAT ??_7CLightBase@@6B@
CONST	SEGMENT
??_7CLightBase@@6B@ DD FLAT:??_R4CLightBase@@6B@	; CLightBase::`vftable'
	DD	FLAT:??_ECLightBase@@UAEPAXI@Z
CONST	ENDS
;	COMDAT ??_R1A@?0A@EA@bad_array_new_length@std@@8
rdata$r	SEGMENT
??_R1A@?0A@EA@bad_array_new_length@std@@8 DD FLAT:??_R0?AVbad_array_new_length@std@@@8 ; std::bad_array_new_length::`RTTI Base Class Descriptor at (0,-1,0,64)'
	DD	02H
	DD	00H
	DD	0ffffffffH
	DD	00H
	DD	040H
	DD	FLAT:??_R3bad_array_new_length@std@@8
rdata$r	ENDS
;	COMDAT ??_R2bad_array_new_length@std@@8
rdata$r	SEGMENT
??_R2bad_array_new_length@std@@8 DD FLAT:??_R1A@?0A@EA@bad_array_new_length@std@@8 ; std::bad_array_new_length::`RTTI Base Class Array'
	DD	FLAT:??_R1A@?0A@EA@bad_alloc@std@@8
	DD	FLAT:??_R1A@?0A@EA@exception@std@@8
rdata$r	ENDS
;	COMDAT ??_R3bad_array_new_length@std@@8
rdata$r	SEGMENT
??_R3bad_array_new_length@std@@8 DD 00H			; std::bad_array_new_length::`RTTI Class Hierarchy Descriptor'
	DD	00H
	DD	03H
	DD	FLAT:??_R2bad_array_new_length@std@@8
rdata$r	ENDS
;	COMDAT ??_R4bad_array_new_length@std@@6B@
rdata$r	SEGMENT
??_R4bad_array_new_length@std@@6B@ DD 00H		; std::bad_array_new_length::`RTTI Complete Object Locator'
	DD	00H
	DD	00H
	DD	FLAT:??_R0?AVbad_array_new_length@std@@@8
	DD	FLAT:??_R3bad_array_new_length@std@@8
rdata$r	ENDS
;	COMDAT ??_R1A@?0A@EA@bad_alloc@std@@8
rdata$r	SEGMENT
??_R1A@?0A@EA@bad_alloc@std@@8 DD FLAT:??_R0?AVbad_alloc@std@@@8 ; std::bad_alloc::`RTTI Base Class Descriptor at (0,-1,0,64)'
	DD	01H
	DD	00H
	DD	0ffffffffH
	DD	00H
	DD	040H
	DD	FLAT:??_R3bad_alloc@std@@8
rdata$r	ENDS
;	COMDAT ??_R2bad_alloc@std@@8
rdata$r	SEGMENT
??_R2bad_alloc@std@@8 DD FLAT:??_R1A@?0A@EA@bad_alloc@std@@8 ; std::bad_alloc::`RTTI Base Class Array'
	DD	FLAT:??_R1A@?0A@EA@exception@std@@8
rdata$r	ENDS
;	COMDAT ??_R3bad_alloc@std@@8
rdata$r	SEGMENT
??_R3bad_alloc@std@@8 DD 00H				; std::bad_alloc::`RTTI Class Hierarchy Descriptor'
	DD	00H
	DD	02H
	DD	FLAT:??_R2bad_alloc@std@@8
rdata$r	ENDS
;	COMDAT ??_R4bad_alloc@std@@6B@
rdata$r	SEGMENT
??_R4bad_alloc@std@@6B@ DD 00H				; std::bad_alloc::`RTTI Complete Object Locator'
	DD	00H
	DD	00H
	DD	FLAT:??_R0?AVbad_alloc@std@@@8
	DD	FLAT:??_R3bad_alloc@std@@8
rdata$r	ENDS
;	COMDAT ??_R1A@?0A@EA@exception@std@@8
rdata$r	SEGMENT
??_R1A@?0A@EA@exception@std@@8 DD FLAT:??_R0?AVexception@std@@@8 ; std::exception::`RTTI Base Class Descriptor at (0,-1,0,64)'
	DD	00H
	DD	00H
	DD	0ffffffffH
	DD	00H
	DD	040H
	DD	FLAT:??_R3exception@std@@8
rdata$r	ENDS
;	COMDAT ??_R2exception@std@@8
rdata$r	SEGMENT
??_R2exception@std@@8 DD FLAT:??_R1A@?0A@EA@exception@std@@8 ; std::exception::`RTTI Base Class Array'
rdata$r	ENDS
;	COMDAT ??_R3exception@std@@8
rdata$r	SEGMENT
??_R3exception@std@@8 DD 00H				; std::exception::`RTTI Class Hierarchy Descriptor'
	DD	00H
	DD	01H
	DD	FLAT:??_R2exception@std@@8
rdata$r	ENDS
;	COMDAT ??_R4exception@std@@6B@
rdata$r	SEGMENT
??_R4exception@std@@6B@ DD 00H				; std::exception::`RTTI Complete Object Locator'
	DD	00H
	DD	00H
	DD	FLAT:??_R0?AVexception@std@@@8
	DD	FLAT:??_R3exception@std@@8
rdata$r	ENDS
;	COMDAT ??_C@_0BB@GCADKGJO@map?1set?5too?5long@
CONST	SEGMENT
??_C@_0BB@GCADKGJO@map?1set?5too?5long@ DB 'map/set too long', 00H ; `string'
CONST	ENDS
;	COMDAT __CT??_R0?AVexception@std@@@8??0exception@std@@QAE@ABV01@@Z12
xdata$x	SEGMENT
__CT??_R0?AVexception@std@@@8??0exception@std@@QAE@ABV01@@Z12 DD 00H
	DD	FLAT:??_R0?AVexception@std@@@8
	DD	00H
	DD	0ffffffffH
	ORG $+4
	DD	0cH
	DD	FLAT:??0exception@std@@QAE@ABV01@@Z
xdata$x	ENDS
;	COMDAT ??_R0?AVexception@std@@@8
data$r	SEGMENT
??_R0?AVexception@std@@@8 DD FLAT:??_7type_info@@6B@	; std::exception `RTTI Type Descriptor'
	DD	00H
	DB	'.?AVexception@std@@', 00H
data$r	ENDS
;	COMDAT __CT??_R0?AVbad_alloc@std@@@8??0bad_alloc@std@@QAE@ABV01@@Z12
xdata$x	SEGMENT
__CT??_R0?AVbad_alloc@std@@@8??0bad_alloc@std@@QAE@ABV01@@Z12 DD 010H
	DD	FLAT:??_R0?AVbad_alloc@std@@@8
	DD	00H
	DD	0ffffffffH
	ORG $+4
	DD	0cH
	DD	FLAT:??0bad_alloc@std@@QAE@ABV01@@Z
xdata$x	ENDS
;	COMDAT ??_R0?AVbad_alloc@std@@@8
data$r	SEGMENT
??_R0?AVbad_alloc@std@@@8 DD FLAT:??_7type_info@@6B@	; std::bad_alloc `RTTI Type Descriptor'
	DD	00H
	DB	'.?AVbad_alloc@std@@', 00H
data$r	ENDS
;	COMDAT __CT??_R0?AVbad_array_new_length@std@@@8??0bad_array_new_length@std@@QAE@ABV01@@Z12
xdata$x	SEGMENT
__CT??_R0?AVbad_array_new_length@std@@@8??0bad_array_new_length@std@@QAE@ABV01@@Z12 DD 00H
	DD	FLAT:??_R0?AVbad_array_new_length@std@@@8
	DD	00H
	DD	0ffffffffH
	ORG $+4
	DD	0cH
	DD	FLAT:??0bad_array_new_length@std@@QAE@ABV01@@Z
xdata$x	ENDS
;	COMDAT ??_R0?AVbad_array_new_length@std@@@8
data$r	SEGMENT
??_R0?AVbad_array_new_length@std@@@8 DD FLAT:??_7type_info@@6B@ ; std::bad_array_new_length `RTTI Type Descriptor'
	DD	00H
	DB	'.?AVbad_array_new_length@std@@', 00H
data$r	ENDS
;	COMDAT __CTA3?AVbad_array_new_length@std@@
xdata$x	SEGMENT
__CTA3?AVbad_array_new_length@std@@ DD 03H
	DD	FLAT:__CT??_R0?AVbad_array_new_length@std@@@8??0bad_array_new_length@std@@QAE@ABV01@@Z12
	DD	FLAT:__CT??_R0?AVbad_alloc@std@@@8??0bad_alloc@std@@QAE@ABV01@@Z12
	DD	FLAT:__CT??_R0?AVexception@std@@@8??0exception@std@@QAE@ABV01@@Z12
xdata$x	ENDS
;	COMDAT __TI3?AVbad_array_new_length@std@@
xdata$x	SEGMENT
__TI3?AVbad_array_new_length@std@@ DD 00H
	DD	FLAT:??1bad_array_new_length@std@@UAE@XZ
	DD	00H
	DD	FLAT:__CTA3?AVbad_array_new_length@std@@
xdata$x	ENDS
;	COMDAT ??_C@_0BF@KINCDENJ@bad?5array?5new?5length@
CONST	SEGMENT
??_C@_0BF@KINCDENJ@bad?5array?5new?5length@ DB 'bad array new length', 00H ; `string'
CONST	ENDS
;	COMDAT ??_7bad_array_new_length@std@@6B@
CONST	SEGMENT
??_7bad_array_new_length@std@@6B@ DD FLAT:??_R4bad_array_new_length@std@@6B@ ; std::bad_array_new_length::`vftable'
	DD	FLAT:??_Ebad_array_new_length@std@@UAEPAXI@Z
	DD	FLAT:?what@exception@std@@UBEPBDXZ
CONST	ENDS
;	COMDAT ??_7bad_alloc@std@@6B@
CONST	SEGMENT
??_7bad_alloc@std@@6B@ DD FLAT:??_R4bad_alloc@std@@6B@	; std::bad_alloc::`vftable'
	DD	FLAT:??_Ebad_alloc@std@@UAEPAXI@Z
	DD	FLAT:?what@exception@std@@UBEPBDXZ
CONST	ENDS
;	COMDAT ??_C@_0BC@EOODALEL@Unknown?5exception@
CONST	SEGMENT
??_C@_0BC@EOODALEL@Unknown?5exception@ DB 'Unknown exception', 00H ; `string'
CONST	ENDS
;	COMDAT ??_7exception@std@@6B@
CONST	SEGMENT
??_7exception@std@@6B@ DD FLAT:??_R4exception@std@@6B@	; std::exception::`vftable'
	DD	FLAT:??_Eexception@std@@UAEPAXI@Z
	DD	FLAT:?what@exception@std@@UBEPBDXZ
CONST	ENDS
;	COMDAT xdata$x
xdata$x	SEGMENT
__unwindtable$??$?0ABUpiecewise_construct_t@std@@V?$tuple@ABK@1@V?$tuple@$$V@1@@?$_Tree_temp_node@V?$allocator@U?$_Tree_node@U?$pair@$$CBKPAVCLight@@@std@@PAX@std@@@std@@@std@@QAE@AAV?$allocator@U?$_Tree_node@U?$pair@$$CBKPAVCLight@@@std@@PAX@std@@@1@PAU?$_Tree_node@U?$pair@$$CBKPAVCLight@@@std@@PAX@1@ABUpiecewise_construct_t@1@$$QAV?$tuple@ABK@1@$$QAV?$tuple@$$V@1@@Z DD 0ffffffffH
	DD	FLAT:__unwindfunclet$??$?0ABUpiecewise_construct_t@std@@V?$tuple@ABK@1@V?$tuple@$$V@1@@?$_Tree_temp_node@V?$allocator@U?$_Tree_node@U?$pair@$$CBKPAVCLight@@@std@@PAX@std@@@std@@@std@@QAE@AAV?$allocator@U?$_Tree_node@U?$pair@$$CBKPAVCLight@@@std@@PAX@std@@@1@PAU?$_Tree_node@U?$pair@$$CBKPAVCLight@@@std@@PAX@1@ABUpiecewise_construct_t@1@$$QAV?$tuple@ABK@1@$$QAV?$tuple@$$V@1@@Z$1
	DD	0ffffffffH
	DD	FLAT:__unwindfunclet$??$?0ABUpiecewise_construct_t@std@@V?$tuple@ABK@1@V?$tuple@$$V@1@@?$_Tree_temp_node@V?$allocator@U?$_Tree_node@U?$pair@$$CBKPAVCLight@@@std@@PAX@std@@@std@@@std@@QAE@AAV?$allocator@U?$_Tree_node@U?$pair@$$CBKPAVCLight@@@std@@PAX@std@@@1@PAU?$_Tree_node@U?$pair@$$CBKPAVCLight@@@std@@PAX@1@ABUpiecewise_construct_t@1@$$QAV?$tuple@ABK@1@$$QAV?$tuple@$$V@1@@Z$0
__ehfuncinfo$??$?0ABUpiecewise_construct_t@std@@V?$tuple@ABK@1@V?$tuple@$$V@1@@?$_Tree_temp_node@V?$allocator@U?$_Tree_node@U?$pair@$$CBKPAVCLight@@@std@@PAX@std@@@std@@@std@@QAE@AAV?$allocator@U?$_Tree_node@U?$pair@$$CBKPAVCLight@@@std@@PAX@std@@@1@PAU?$_Tree_node@U?$pair@$$CBKPAVCLight@@@std@@PAX@1@ABUpiecewise_construct_t@1@$$QAV?$tuple@ABK@1@$$QAV?$tuple@$$V@1@@Z DD 019930522H
	DD	02H
	DD	FLAT:__unwindtable$??$?0ABUpiecewise_construct_t@std@@V?$tuple@ABK@1@V?$tuple@$$V@1@@?$_Tree_temp_node@V?$allocator@U?$_Tree_node@U?$pair@$$CBKPAVCLight@@@std@@PAX@std@@@std@@@std@@QAE@AAV?$allocator@U?$_Tree_node@U?$pair@$$CBKPAVCLight@@@std@@PAX@std@@@1@PAU?$_Tree_node@U?$pair@$$CBKPAVCLight@@@std@@PAX@1@ABUpiecewise_construct_t@1@$$QAV?$tuple@ABK@1@$$QAV?$tuple@$$V@1@@Z
	DD	2 DUP(00H)
	DD	2 DUP(00H)
	DD	00H
	DD	01H
xdata$x	ENDS
;	COMDAT xdata$x
xdata$x	SEGMENT
__catchsym$??$_Emplace_reallocate@ABQAVCLight@@@?$vector@PAVCLight@@V?$allocator@PAVCLight@@@std@@@std@@QAEPAPAVCLight@@QAPAV2@ABQAV2@@Z$32 DD 040H
	DD	00H
	DD	00H
	DD	FLAT:__catch$??$_Emplace_reallocate@ABQAVCLight@@@?$vector@PAVCLight@@V?$allocator@PAVCLight@@@std@@@std@@QAEPAPAVCLight@@QAPAV2@ABQAV2@@Z$0
__unwindtable$??$_Emplace_reallocate@ABQAVCLight@@@?$vector@PAVCLight@@V?$allocator@PAVCLight@@@std@@@std@@QAEPAPAVCLight@@QAPAV2@ABQAV2@@Z DD 0ffffffffH
	DD	00H
	DD	0ffffffffH
	DD	00H
__tryblocktable$??$_Emplace_reallocate@ABQAVCLight@@@?$vector@PAVCLight@@V?$allocator@PAVCLight@@@std@@@std@@QAEPAPAVCLight@@QAPAV2@ABQAV2@@Z DD 00H
	DD	00H
	DD	01H
	DD	01H
	DD	FLAT:__catchsym$??$_Emplace_reallocate@ABQAVCLight@@@?$vector@PAVCLight@@V?$allocator@PAVCLight@@@std@@@std@@QAEPAPAVCLight@@QAPAV2@ABQAV2@@Z$32
__ehfuncinfo$??$_Emplace_reallocate@ABQAVCLight@@@?$vector@PAVCLight@@V?$allocator@PAVCLight@@@std@@@std@@QAEPAPAVCLight@@QAPAV2@ABQAV2@@Z DD 019930522H
	DD	02H
	DD	FLAT:__unwindtable$??$_Emplace_reallocate@ABQAVCLight@@@?$vector@PAVCLight@@V?$allocator@PAVCLight@@@std@@@std@@QAEPAPAVCLight@@QAPAV2@ABQAV2@@Z
	DD	01H
	DD	FLAT:__tryblocktable$??$_Emplace_reallocate@ABQAVCLight@@@?$vector@PAVCLight@@V?$allocator@PAVCLight@@@std@@@std@@QAEPAPAVCLight@@QAPAV2@ABQAV2@@Z
	DD	2 DUP(00H)
	DD	00H
	DD	01H
xdata$x	ENDS
;	COMDAT xdata$x
xdata$x	SEGMENT
__unwindtable$?Alloc@?$CDynamicPool@VCLight@@@@QAEPAVCLight@@XZ DD 0ffffffffH
	DD	FLAT:__unwindfunclet$?Alloc@?$CDynamicPool@VCLight@@@@QAEPAVCLight@@XZ$0
__ehfuncinfo$?Alloc@?$CDynamicPool@VCLight@@@@QAEPAVCLight@@XZ DD 019930522H
	DD	01H
	DD	FLAT:__unwindtable$?Alloc@?$CDynamicPool@VCLight@@@@QAEPAVCLight@@XZ
	DD	2 DUP(00H)
	DD	2 DUP(00H)
	DD	00H
	DD	01H
xdata$x	ENDS
;	COMDAT xdata$x
xdata$x	SEGMENT
__ehfuncinfo$??0CLightManager@@QAE@XZ DD 019930522H
	DD	06H
	DD	FLAT:__unwindtable$??0CLightManager@@QAE@XZ
	DD	2 DUP(00H)
	DD	2 DUP(00H)
	DD	00H
	DD	01H
__unwindtable$??0CLightManager@@QAE@XZ DD 0ffffffffH
	DD	FLAT:__unwindfunclet$??0CLightManager@@QAE@XZ$0
	DD	00H
	DD	FLAT:__unwindfunclet$??0CLightManager@@QAE@XZ$1
	DD	01H
	DD	FLAT:__unwindfunclet$??0CLightManager@@QAE@XZ$2
	DD	02H
	DD	FLAT:__unwindfunclet$??0CLightManager@@QAE@XZ$3
	DD	03H
	DD	FLAT:__unwindfunclet$??0CLightManager@@QAE@XZ$4
	DD	04H
	DD	FLAT:__unwindfunclet$??0CLightManager@@QAE@XZ$5
xdata$x	ENDS
;	COMDAT xdata$x
xdata$x	SEGMENT
__ehfuncinfo$??1CLight@@UAE@XZ DD 019930522H
	DD	00H
	DD	00H
	DD	2 DUP(00H)
	DD	2 DUP(00H)
	DD	00H
	DD	05H
xdata$x	ENDS
;	COMDAT xdata$x
xdata$x	SEGMENT
__ehfuncinfo$??0CLight@@QAE@XZ DD 019930522H
	DD	05H
	DD	FLAT:__unwindtable$??0CLight@@QAE@XZ
	DD	2 DUP(00H)
	DD	2 DUP(00H)
	DD	00H
	DD	01H
__unwindtable$??0CLight@@QAE@XZ DD 0ffffffffH
	DD	FLAT:__unwindfunclet$??0CLight@@QAE@XZ$0
	DD	00H
	DD	FLAT:__unwindfunclet$??0CLight@@QAE@XZ$1
	DD	01H
	DD	FLAT:__unwindfunclet$??0CLight@@QAE@XZ$2
	DD	02H
	DD	FLAT:__unwindfunclet$??0CLight@@QAE@XZ$3
	DD	03H
	DD	FLAT:__unwindfunclet$??0CLight@@QAE@XZ$4
xdata$x	ENDS
;	COMDAT xdata$x
xdata$x	SEGMENT
__ehfuncinfo$??$_Deallocate@$07$0A@@std@@YAXPAXI@Z DD 019930522H
	DD	00H
	DD	00H
	DD	2 DUP(00H)
	DD	2 DUP(00H)
	DD	00H
	DD	05H
xdata$x	ENDS
; Function compile flags: /Odspy
;	COMDAT ??_ECLightManager@@W7AEPAXI@Z
_TEXT	SEGMENT
??_ECLightManager@@W7AEPAXI@Z PROC			; [thunk]:CLightManager::`vector deleting destructor', COMDAT
  00000	83 e9 08	 sub	 ecx, 8
  00003	e9 00 00 00 00	 jmp	 ??_ECLightManager@@UAEPAXI@Z
??_ECLightManager@@W7AEPAXI@Z ENDP			; [thunk]:CLightManager::`vector deleting destructor'
_TEXT	ENDS
; Function compile flags: /Odspy
;	COMDAT ??_ECLightManager@@W3AEPAXI@Z
_TEXT	SEGMENT
??_ECLightManager@@W3AEPAXI@Z PROC			; [thunk]:CLightManager::`vector deleting destructor', COMDAT
  00000	83 e9 04	 sub	 ecx, 4
  00003	e9 00 00 00 00	 jmp	 ??_ECLightManager@@UAEPAXI@Z
??_ECLightManager@@W3AEPAXI@Z ENDP			; [thunk]:CLightManager::`vector deleting destructor'
_TEXT	ENDS
; Function compile flags: /Odspy
;	COMDAT ??_ECLight@@W3AEPAXI@Z
_TEXT	SEGMENT
??_ECLight@@W3AEPAXI@Z PROC				; [thunk]:CLight::`vector deleting destructor', COMDAT
  00000	83 e9 04	 sub	 ecx, 4
  00003	e9 00 00 00 00	 jmp	 ??_ECLight@@UAEPAXI@Z
??_ECLight@@W3AEPAXI@Z ENDP				; [thunk]:CLight::`vector deleting destructor'
_TEXT	ENDS
; Function compile flags: /Odspy
; File C:\Program Files (x86)\Microsoft Visual Studio\2019\Community\VC\Tools\MSVC\14.28.29333\include\algorithm
; File D:\Metin2 Server Files\mainline\SRC_2014\Metin2Client\EterLib\GrpLightManager.h
; File D:\Metin2 Server Files\mainline\SRC_2014\Metin2Client\EterLib\GrpLightManager.cpp
; File C:\Program Files (x86)\Microsoft Visual Studio\2019\Community\VC\Tools\MSVC\14.28.29333\include\algorithm
; File C:\Program Files (x86)\Microsoft Visual Studio\2019\Community\VC\Tools\MSVC\14.28.29333\include\type_traits
; File C:\Program Files (x86)\Microsoft Visual Studio\2019\Community\VC\Tools\MSVC\14.28.29333\include\utility
; File C:\Program Files (x86)\Microsoft Visual Studio\2019\Community\VC\Tools\MSVC\14.28.29333\include\type_traits
; File C:\Program Files (x86)\Microsoft Visual Studio\2019\Community\VC\Tools\MSVC\14.28.29333\include\utility
; File C:\Program Files (x86)\Microsoft Visual Studio\2019\Community\VC\Tools\MSVC\14.28.29333\include\type_traits
; File C:\Program Files (x86)\Microsoft Visual Studio\2019\Community\VC\Tools\MSVC\14.28.29333\include\utility
; File D:\Metin2 Server Files\mainline\SRC_2014\Metin2Client\EterLib\GrpLightManager.h
; File D:\Metin2 Server Files\mainline\SRC_2014\Metin2Client\EterLib\GrpLightManager.cpp
; File C:\Program Files (x86)\Microsoft Visual Studio\2019\Community\VC\Tools\MSVC\14.28.29333\include\algorithm
; File C:\Program Files (x86)\Microsoft Visual Studio\2019\Community\VC\Tools\MSVC\14.28.29333\include\type_traits
; File C:\Program Files (x86)\Microsoft Visual Studio\2019\Community\VC\Tools\MSVC\14.28.29333\include\utility
; File C:\Program Files (x86)\Microsoft Visual Studio\2019\Community\VC\Tools\MSVC\14.28.29333\include\type_traits
; File C:\Program Files (x86)\Microsoft Visual Studio\2019\Community\VC\Tools\MSVC\14.28.29333\include\utility
; File C:\Program Files (x86)\Microsoft Visual Studio\2019\Community\VC\Tools\MSVC\14.28.29333\include\type_traits
; File C:\Program Files (x86)\Microsoft Visual Studio\2019\Community\VC\Tools\MSVC\14.28.29333\include\utility
; File D:\Metin2 Server Files\mainline\SRC_2014\Metin2Client\EterLib\GrpLightManager.h
; File D:\Metin2 Server Files\mainline\SRC_2014\Metin2Client\EterLib\GrpLightManager.cpp
; File C:\Program Files (x86)\Microsoft Visual Studio\2019\Community\VC\Tools\MSVC\14.28.29333\include\algorithm
; File C:\Program Files (x86)\Microsoft Visual Studio\2019\Community\VC\Tools\MSVC\14.28.29333\include\type_traits
; File C:\Program Files (x86)\Microsoft Visual Studio\2019\Community\VC\Tools\MSVC\14.28.29333\include\utility
; File C:\Program Files (x86)\Microsoft Visual Studio\2019\Community\VC\Tools\MSVC\14.28.29333\include\type_traits
; File C:\Program Files (x86)\Microsoft Visual Studio\2019\Community\VC\Tools\MSVC\14.28.29333\include\utility
; File C:\Program Files (x86)\Microsoft Visual Studio\2019\Community\VC\Tools\MSVC\14.28.29333\include\type_traits
; File C:\Program Files (x86)\Microsoft Visual Studio\2019\Community\VC\Tools\MSVC\14.28.29333\include\utility
; File C:\Program Files (x86)\Microsoft Visual Studio\2019\Community\VC\Tools\MSVC\14.28.29333\include\algorithm
;	COMDAT ??$_Med3_unchecked@PAPAVCLight@@ULightComp@@@std@@YAXPAPAVCLight@@00ULightComp@@@Z
_TEXT	SEGMENT
$T1 = -84						; size = 4
__Tmp$2 = -80						; size = 4
$T3 = -76						; size = 4
$T4 = -72						; size = 4
$T5 = -68						; size = 4
$T6 = -64						; size = 4
$T7 = -60						; size = 4
__Tmp$8 = -56						; size = 4
$T9 = -52						; size = 4
$T10 = -48						; size = 4
$T11 = -44						; size = 4
$T12 = -40						; size = 4
$T13 = -36						; size = 4
__Tmp$14 = -32						; size = 4
$T15 = -28						; size = 4
$T16 = -24						; size = 4
$T17 = -20						; size = 4
$T18 = -16						; size = 4
tv134 = -12						; size = 4
tv129 = -8						; size = 4
tv93 = -4						; size = 4
__First$ = 8						; size = 4
__Mid$ = 12						; size = 4
__Last$ = 16						; size = 4
__Pred$ = 20						; size = 1
??$_Med3_unchecked@PAPAVCLight@@ULightComp@@@std@@YAXPAPAVCLight@@00ULightComp@@@Z PROC ; std::_Med3_unchecked<CLight * *,LightComp>, COMDAT

; 7434 : _CONSTEXPR20 void _Med3_unchecked(_RanIt _First, _RanIt _Mid, _RanIt _Last, _Pr _Pred) {

  00000	55		 push	 ebp
  00001	8b ec		 mov	 ebp, esp
  00003	83 ec 54	 sub	 esp, 84			; 00000054H
; File D:\Metin2 Server Files\mainline\SRC_2014\Metin2Client\EterLib\GrpLightManager.h

; 45   : 		float		GetDistance() const { return m_fDistance;	}

  00006	8b 45 0c	 mov	 eax, DWORD PTR __Mid$[ebp]
  00009	8b 00		 mov	 eax, DWORD PTR [eax]
  0000b	f3 0f 10 40 78	 movss	 xmm0, DWORD PTR [eax+120]
  00010	f3 0f 11 45 ec	 movss	 DWORD PTR $T17[ebp], xmm0
  00015	8b 45 08	 mov	 eax, DWORD PTR __First$[ebp]
  00018	8b 00		 mov	 eax, DWORD PTR [eax]
  0001a	f3 0f 10 40 78	 movss	 xmm0, DWORD PTR [eax+120]
  0001f	f3 0f 11 45 f0	 movss	 DWORD PTR $T18[ebp], xmm0
; File D:\Metin2 Server Files\mainline\SRC_2014\Metin2Client\EterLib\GrpLightManager.cpp

; 96   : 		return l->GetDistance() < r->GetDistance();

  00024	f3 0f 10 45 f0	 movss	 xmm0, DWORD PTR $T18[ebp]
  00029	0f 2f 45 ec	 comiss	 xmm0, DWORD PTR $T17[ebp]
  0002d	76 09		 jbe	 SHORT $LN8@Med3_unche
  0002f	c7 45 fc 01 00
	00 00		 mov	 DWORD PTR tv93[ebp], 1
  00036	eb 04		 jmp	 SHORT $LN9@Med3_unche
$LN8@Med3_unche:
  00038	83 65 fc 00	 and	 DWORD PTR tv93[ebp], 0
$LN9@Med3_unche:
; File C:\Program Files (x86)\Microsoft Visual Studio\2019\Community\VC\Tools\MSVC\14.28.29333\include\algorithm

; 7436 :     if (_DEBUG_LT_PRED(_Pred, *_Mid, *_First)) {

  0003c	0f b6 45 fc	 movzx	 eax, BYTE PTR tv93[ebp]
  00040	85 c0		 test	 eax, eax
  00042	74 2e		 je	 SHORT $LN14@Med3_unche
; File C:\Program Files (x86)\Microsoft Visual Studio\2019\Community\VC\Tools\MSVC\14.28.29333\include\type_traits

; 1455 :     return static_cast<remove_reference_t<_Ty>&&>(_Arg);

  00044	8b 45 0c	 mov	 eax, DWORD PTR __Mid$[ebp]
  00047	89 45 e8	 mov	 DWORD PTR $T16[ebp], eax
; File C:\Program Files (x86)\Microsoft Visual Studio\2019\Community\VC\Tools\MSVC\14.28.29333\include\utility

; 104  :     _Ty _Tmp = _STD move(_Left);

  0004a	8b 45 e8	 mov	 eax, DWORD PTR $T16[ebp]
  0004d	8b 00		 mov	 eax, DWORD PTR [eax]
  0004f	89 45 e0	 mov	 DWORD PTR __Tmp$14[ebp], eax
; File C:\Program Files (x86)\Microsoft Visual Studio\2019\Community\VC\Tools\MSVC\14.28.29333\include\type_traits

; 1455 :     return static_cast<remove_reference_t<_Ty>&&>(_Arg);

  00052	8b 45 08	 mov	 eax, DWORD PTR __First$[ebp]
  00055	89 45 e4	 mov	 DWORD PTR $T15[ebp], eax
; File C:\Program Files (x86)\Microsoft Visual Studio\2019\Community\VC\Tools\MSVC\14.28.29333\include\utility

; 105  :     _Left    = _STD move(_Right);

  00058	8b 45 0c	 mov	 eax, DWORD PTR __Mid$[ebp]
  0005b	8b 4d e4	 mov	 ecx, DWORD PTR $T15[ebp]
  0005e	8b 09		 mov	 ecx, DWORD PTR [ecx]
  00060	89 08		 mov	 DWORD PTR [eax], ecx
; File C:\Program Files (x86)\Microsoft Visual Studio\2019\Community\VC\Tools\MSVC\14.28.29333\include\type_traits

; 1455 :     return static_cast<remove_reference_t<_Ty>&&>(_Arg);

  00062	8d 45 e0	 lea	 eax, DWORD PTR __Tmp$14[ebp]
  00065	89 45 dc	 mov	 DWORD PTR $T13[ebp], eax
; File C:\Program Files (x86)\Microsoft Visual Studio\2019\Community\VC\Tools\MSVC\14.28.29333\include\utility

; 106  :     _Right   = _STD move(_Tmp);

  00068	8b 45 08	 mov	 eax, DWORD PTR __First$[ebp]
  0006b	8b 4d dc	 mov	 ecx, DWORD PTR $T13[ebp]
  0006e	8b 09		 mov	 ecx, DWORD PTR [ecx]
  00070	89 08		 mov	 DWORD PTR [eax], ecx
$LN14@Med3_unche:
; File D:\Metin2 Server Files\mainline\SRC_2014\Metin2Client\EterLib\GrpLightManager.h

; 45   : 		float		GetDistance() const { return m_fDistance;	}

  00072	8b 45 10	 mov	 eax, DWORD PTR __Last$[ebp]
  00075	8b 00		 mov	 eax, DWORD PTR [eax]
  00077	f3 0f 10 40 78	 movss	 xmm0, DWORD PTR [eax+120]
  0007c	f3 0f 11 45 d4	 movss	 DWORD PTR $T11[ebp], xmm0
  00081	8b 45 0c	 mov	 eax, DWORD PTR __Mid$[ebp]
  00084	8b 00		 mov	 eax, DWORD PTR [eax]
  00086	f3 0f 10 40 78	 movss	 xmm0, DWORD PTR [eax+120]
  0008b	f3 0f 11 45 d8	 movss	 DWORD PTR $T12[ebp], xmm0
; File D:\Metin2 Server Files\mainline\SRC_2014\Metin2Client\EterLib\GrpLightManager.cpp

; 96   : 		return l->GetDistance() < r->GetDistance();

  00090	f3 0f 10 45 d8	 movss	 xmm0, DWORD PTR $T12[ebp]
  00095	0f 2f 45 d4	 comiss	 xmm0, DWORD PTR $T11[ebp]
  00099	76 09		 jbe	 SHORT $LN30@Med3_unche
  0009b	c7 45 f8 01 00
	00 00		 mov	 DWORD PTR tv129[ebp], 1
  000a2	eb 04		 jmp	 SHORT $LN31@Med3_unche
$LN30@Med3_unche:
  000a4	83 65 f8 00	 and	 DWORD PTR tv129[ebp], 0
$LN31@Med3_unche:
; File C:\Program Files (x86)\Microsoft Visual Studio\2019\Community\VC\Tools\MSVC\14.28.29333\include\algorithm

; 7440 :     if (_DEBUG_LT_PRED(_Pred, *_Last, *_Mid)) { // swap middle and last, then test first again

  000a8	0f b6 45 f8	 movzx	 eax, BYTE PTR tv129[ebp]
  000ac	85 c0		 test	 eax, eax
  000ae	0f 84 9a 00 00
	00		 je	 $LN58@Med3_unche
; File C:\Program Files (x86)\Microsoft Visual Studio\2019\Community\VC\Tools\MSVC\14.28.29333\include\type_traits

; 1455 :     return static_cast<remove_reference_t<_Ty>&&>(_Arg);

  000b4	8b 45 10	 mov	 eax, DWORD PTR __Last$[ebp]
  000b7	89 45 d0	 mov	 DWORD PTR $T10[ebp], eax
; File C:\Program Files (x86)\Microsoft Visual Studio\2019\Community\VC\Tools\MSVC\14.28.29333\include\utility

; 104  :     _Ty _Tmp = _STD move(_Left);

  000ba	8b 45 d0	 mov	 eax, DWORD PTR $T10[ebp]
  000bd	8b 00		 mov	 eax, DWORD PTR [eax]
  000bf	89 45 c8	 mov	 DWORD PTR __Tmp$8[ebp], eax
; File C:\Program Files (x86)\Microsoft Visual Studio\2019\Community\VC\Tools\MSVC\14.28.29333\include\type_traits

; 1455 :     return static_cast<remove_reference_t<_Ty>&&>(_Arg);

  000c2	8b 45 0c	 mov	 eax, DWORD PTR __Mid$[ebp]
  000c5	89 45 cc	 mov	 DWORD PTR $T9[ebp], eax
; File C:\Program Files (x86)\Microsoft Visual Studio\2019\Community\VC\Tools\MSVC\14.28.29333\include\utility

; 105  :     _Left    = _STD move(_Right);

  000c8	8b 45 10	 mov	 eax, DWORD PTR __Last$[ebp]
  000cb	8b 4d cc	 mov	 ecx, DWORD PTR $T9[ebp]
  000ce	8b 09		 mov	 ecx, DWORD PTR [ecx]
  000d0	89 08		 mov	 DWORD PTR [eax], ecx
; File C:\Program Files (x86)\Microsoft Visual Studio\2019\Community\VC\Tools\MSVC\14.28.29333\include\type_traits

; 1455 :     return static_cast<remove_reference_t<_Ty>&&>(_Arg);

  000d2	8d 45 c8	 lea	 eax, DWORD PTR __Tmp$8[ebp]
  000d5	89 45 c4	 mov	 DWORD PTR $T7[ebp], eax
; File C:\Program Files (x86)\Microsoft Visual Studio\2019\Community\VC\Tools\MSVC\14.28.29333\include\utility

; 106  :     _Right   = _STD move(_Tmp);

  000d8	8b 45 0c	 mov	 eax, DWORD PTR __Mid$[ebp]
  000db	8b 4d c4	 mov	 ecx, DWORD PTR $T7[ebp]
  000de	8b 09		 mov	 ecx, DWORD PTR [ecx]
  000e0	89 08		 mov	 DWORD PTR [eax], ecx
; File D:\Metin2 Server Files\mainline\SRC_2014\Metin2Client\EterLib\GrpLightManager.h

; 45   : 		float		GetDistance() const { return m_fDistance;	}

  000e2	8b 45 0c	 mov	 eax, DWORD PTR __Mid$[ebp]
  000e5	8b 00		 mov	 eax, DWORD PTR [eax]
  000e7	f3 0f 10 40 78	 movss	 xmm0, DWORD PTR [eax+120]
  000ec	f3 0f 11 45 bc	 movss	 DWORD PTR $T5[ebp], xmm0
  000f1	8b 45 08	 mov	 eax, DWORD PTR __First$[ebp]
  000f4	8b 00		 mov	 eax, DWORD PTR [eax]
  000f6	f3 0f 10 40 78	 movss	 xmm0, DWORD PTR [eax+120]
  000fb	f3 0f 11 45 c0	 movss	 DWORD PTR $T6[ebp], xmm0
; File D:\Metin2 Server Files\mainline\SRC_2014\Metin2Client\EterLib\GrpLightManager.cpp

; 96   : 		return l->GetDistance() < r->GetDistance();

  00100	f3 0f 10 45 c0	 movss	 xmm0, DWORD PTR $T6[ebp]
  00105	0f 2f 45 bc	 comiss	 xmm0, DWORD PTR $T5[ebp]
  00109	76 09		 jbe	 SHORT $LN52@Med3_unche
  0010b	c7 45 f4 01 00
	00 00		 mov	 DWORD PTR tv134[ebp], 1
  00112	eb 04		 jmp	 SHORT $LN53@Med3_unche
$LN52@Med3_unche:
  00114	83 65 f4 00	 and	 DWORD PTR tv134[ebp], 0
$LN53@Med3_unche:
; File C:\Program Files (x86)\Microsoft Visual Studio\2019\Community\VC\Tools\MSVC\14.28.29333\include\algorithm

; 7443 :         if (_DEBUG_LT_PRED(_Pred, *_Mid, *_First)) {

  00118	0f b6 45 f4	 movzx	 eax, BYTE PTR tv134[ebp]
  0011c	85 c0		 test	 eax, eax
  0011e	74 2e		 je	 SHORT $LN58@Med3_unche
; File C:\Program Files (x86)\Microsoft Visual Studio\2019\Community\VC\Tools\MSVC\14.28.29333\include\type_traits

; 1455 :     return static_cast<remove_reference_t<_Ty>&&>(_Arg);

  00120	8b 45 0c	 mov	 eax, DWORD PTR __Mid$[ebp]
  00123	89 45 b8	 mov	 DWORD PTR $T4[ebp], eax
; File C:\Program Files (x86)\Microsoft Visual Studio\2019\Community\VC\Tools\MSVC\14.28.29333\include\utility

; 104  :     _Ty _Tmp = _STD move(_Left);

  00126	8b 45 b8	 mov	 eax, DWORD PTR $T4[ebp]
  00129	8b 00		 mov	 eax, DWORD PTR [eax]
  0012b	89 45 b0	 mov	 DWORD PTR __Tmp$2[ebp], eax
; File C:\Program Files (x86)\Microsoft Visual Studio\2019\Community\VC\Tools\MSVC\14.28.29333\include\type_traits

; 1455 :     return static_cast<remove_reference_t<_Ty>&&>(_Arg);

  0012e	8b 45 08	 mov	 eax, DWORD PTR __First$[ebp]
  00131	89 45 b4	 mov	 DWORD PTR $T3[ebp], eax
; File C:\Program Files (x86)\Microsoft Visual Studio\2019\Community\VC\Tools\MSVC\14.28.29333\include\utility

; 105  :     _Left    = _STD move(_Right);

  00134	8b 45 0c	 mov	 eax, DWORD PTR __Mid$[ebp]
  00137	8b 4d b4	 mov	 ecx, DWORD PTR $T3[ebp]
  0013a	8b 09		 mov	 ecx, DWORD PTR [ecx]
  0013c	89 08		 mov	 DWORD PTR [eax], ecx
; File C:\Program Files (x86)\Microsoft Visual Studio\2019\Community\VC\Tools\MSVC\14.28.29333\include\type_traits

; 1455 :     return static_cast<remove_reference_t<_Ty>&&>(_Arg);

  0013e	8d 45 b0	 lea	 eax, DWORD PTR __Tmp$2[ebp]
  00141	89 45 ac	 mov	 DWORD PTR $T1[ebp], eax
; File C:\Program Files (x86)\Microsoft Visual Studio\2019\Community\VC\Tools\MSVC\14.28.29333\include\utility

; 106  :     _Right   = _STD move(_Tmp);

  00144	8b 45 08	 mov	 eax, DWORD PTR __First$[ebp]
  00147	8b 4d ac	 mov	 ecx, DWORD PTR $T1[ebp]
  0014a	8b 09		 mov	 ecx, DWORD PTR [ecx]
  0014c	89 08		 mov	 DWORD PTR [eax], ecx
$LN58@Med3_unche:
; File C:\Program Files (x86)\Microsoft Visual Studio\2019\Community\VC\Tools\MSVC\14.28.29333\include\algorithm

; 7447 : }

  0014e	c9		 leave
  0014f	c3		 ret	 0
??$_Med3_unchecked@PAPAVCLight@@ULightComp@@@std@@YAXPAPAVCLight@@00ULightComp@@@Z ENDP ; std::_Med3_unchecked<CLight * *,LightComp>
_TEXT	ENDS
; Function compile flags: /Odspy
; File C:\Program Files (x86)\Microsoft Visual Studio\2019\Community\VC\Tools\MSVC\14.28.29333\include\algorithm
; File D:\Metin2 Server Files\mainline\SRC_2014\Metin2Client\EterLib\GrpLightManager.h
; File D:\Metin2 Server Files\mainline\SRC_2014\Metin2Client\EterLib\GrpLightManager.cpp
; File C:\Program Files (x86)\Microsoft Visual Studio\2019\Community\VC\Tools\MSVC\14.28.29333\include\algorithm
; File C:\Program Files (x86)\Microsoft Visual Studio\2019\Community\VC\Tools\MSVC\14.28.29333\include\type_traits
; File C:\Program Files (x86)\Microsoft Visual Studio\2019\Community\VC\Tools\MSVC\14.28.29333\include\algorithm
; File C:\Program Files (x86)\Microsoft Visual Studio\2019\Community\VC\Tools\MSVC\14.28.29333\include\type_traits
; File C:\Program Files (x86)\Microsoft Visual Studio\2019\Community\VC\Tools\MSVC\14.28.29333\include\algorithm
;	COMDAT ??$_Push_heap_by_index@PAPAVCLight@@PAV1@ULightComp@@@std@@YAXPAPAVCLight@@HH$$QAPAV1@ULightComp@@@Z
_TEXT	SEGMENT
$T1 = -24						; size = 4
$T2 = -20						; size = 4
$T3 = -16						; size = 4
$T4 = -12						; size = 4
tv92 = -8						; size = 4
__Idx$5 = -4						; size = 4
__First$ = 8						; size = 4
__Hole$ = 12						; size = 4
__Top$ = 16						; size = 4
__Val$ = 20						; size = 4
__Pred$ = 24						; size = 1
??$_Push_heap_by_index@PAPAVCLight@@PAV1@ULightComp@@@std@@YAXPAPAVCLight@@HH$$QAPAV1@ULightComp@@@Z PROC ; std::_Push_heap_by_index<CLight * *,CLight *,LightComp>, COMDAT

; 6073 :     _RanIt _First, _Iter_diff_t<_RanIt> _Hole, _Iter_diff_t<_RanIt> _Top, _Ty&& _Val, _Pr _Pred) {

  00000	55		 push	 ebp
  00001	8b ec		 mov	 ebp, esp
  00003	83 ec 18	 sub	 esp, 24			; 00000018H

; 6074 :     // percolate _Hole to _Top or where _Val belongs
; 6075 :     using _Diff = _Iter_diff_t<_RanIt>;
; 6076 :     for (_Diff _Idx = (_Hole - 1) >> 1; // shift for codegen

  00006	8b 45 0c	 mov	 eax, DWORD PTR __Hole$[ebp]
  00009	48		 dec	 eax
  0000a	d1 f8		 sar	 eax, 1
  0000c	89 45 fc	 mov	 DWORD PTR __Idx$5[ebp], eax
  0000f	eb 09		 jmp	 SHORT $LN4@Push_heap_
$LN2@Push_heap_:

; 6078 :          _Idx = (_Hole - 1) >> 1) { // shift for codegen

  00011	8b 45 0c	 mov	 eax, DWORD PTR __Hole$[ebp]
  00014	48		 dec	 eax
  00015	d1 f8		 sar	 eax, 1
  00017	89 45 fc	 mov	 DWORD PTR __Idx$5[ebp], eax
$LN4@Push_heap_:

; 6077 :          _Top < _Hole && _DEBUG_LT_PRED(_Pred, *(_First + _Idx), _Val); //

  0001a	8b 45 10	 mov	 eax, DWORD PTR __Top$[ebp]
  0001d	3b 45 0c	 cmp	 eax, DWORD PTR __Hole$[ebp]
  00020	7d 64		 jge	 SHORT $LN3@Push_heap_
; File D:\Metin2 Server Files\mainline\SRC_2014\Metin2Client\EterLib\GrpLightManager.h

; 45   : 		float		GetDistance() const { return m_fDistance;	}

  00022	8b 45 fc	 mov	 eax, DWORD PTR __Idx$5[ebp]
  00025	8b 4d 08	 mov	 ecx, DWORD PTR __First$[ebp]
  00028	8b 04 81	 mov	 eax, DWORD PTR [ecx+eax*4]
  0002b	f3 0f 10 40 78	 movss	 xmm0, DWORD PTR [eax+120]
  00030	f3 0f 11 45 f0	 movss	 DWORD PTR $T3[ebp], xmm0
  00035	8b 45 14	 mov	 eax, DWORD PTR __Val$[ebp]
  00038	8b 00		 mov	 eax, DWORD PTR [eax]
  0003a	f3 0f 10 40 78	 movss	 xmm0, DWORD PTR [eax+120]
  0003f	f3 0f 11 45 f4	 movss	 DWORD PTR $T4[ebp], xmm0
; File D:\Metin2 Server Files\mainline\SRC_2014\Metin2Client\EterLib\GrpLightManager.cpp

; 96   : 		return l->GetDistance() < r->GetDistance();

  00044	f3 0f 10 45 f4	 movss	 xmm0, DWORD PTR $T4[ebp]
  00049	0f 2f 45 f0	 comiss	 xmm0, DWORD PTR $T3[ebp]
  0004d	76 09		 jbe	 SHORT $LN8@Push_heap_
  0004f	c7 45 f8 01 00
	00 00		 mov	 DWORD PTR tv92[ebp], 1
  00056	eb 04		 jmp	 SHORT $LN9@Push_heap_
$LN8@Push_heap_:
  00058	83 65 f8 00	 and	 DWORD PTR tv92[ebp], 0
$LN9@Push_heap_:
; File C:\Program Files (x86)\Microsoft Visual Studio\2019\Community\VC\Tools\MSVC\14.28.29333\include\algorithm

; 6077 :          _Top < _Hole && _DEBUG_LT_PRED(_Pred, *(_First + _Idx), _Val); //

  0005c	0f b6 45 f8	 movzx	 eax, BYTE PTR tv92[ebp]
  00060	85 c0		 test	 eax, eax
  00062	74 22		 je	 SHORT $LN3@Push_heap_

; 6080 :         *(_First + _Hole) = _STD move(*(_First + _Idx));

  00064	8b 45 fc	 mov	 eax, DWORD PTR __Idx$5[ebp]
  00067	8b 4d 08	 mov	 ecx, DWORD PTR __First$[ebp]
  0006a	8d 04 81	 lea	 eax, DWORD PTR [ecx+eax*4]
; File C:\Program Files (x86)\Microsoft Visual Studio\2019\Community\VC\Tools\MSVC\14.28.29333\include\type_traits

; 1455 :     return static_cast<remove_reference_t<_Ty>&&>(_Arg);

  0006d	89 45 ec	 mov	 DWORD PTR $T2[ebp], eax
; File C:\Program Files (x86)\Microsoft Visual Studio\2019\Community\VC\Tools\MSVC\14.28.29333\include\algorithm

; 6080 :         *(_First + _Hole) = _STD move(*(_First + _Idx));

  00070	8b 45 0c	 mov	 eax, DWORD PTR __Hole$[ebp]
  00073	8b 4d 08	 mov	 ecx, DWORD PTR __First$[ebp]
  00076	8b 55 ec	 mov	 edx, DWORD PTR $T2[ebp]
  00079	8b 12		 mov	 edx, DWORD PTR [edx]
  0007b	89 14 81	 mov	 DWORD PTR [ecx+eax*4], edx

; 6081 :         _Hole             = _Idx;

  0007e	8b 45 fc	 mov	 eax, DWORD PTR __Idx$5[ebp]
  00081	89 45 0c	 mov	 DWORD PTR __Hole$[ebp], eax

; 6082 :     }

  00084	eb 8b		 jmp	 SHORT $LN2@Push_heap_
$LN3@Push_heap_:
; File C:\Program Files (x86)\Microsoft Visual Studio\2019\Community\VC\Tools\MSVC\14.28.29333\include\type_traits

; 1443 :     return static_cast<_Ty&&>(_Arg);

  00086	8b 45 14	 mov	 eax, DWORD PTR __Val$[ebp]
  00089	89 45 e8	 mov	 DWORD PTR $T1[ebp], eax
; File C:\Program Files (x86)\Microsoft Visual Studio\2019\Community\VC\Tools\MSVC\14.28.29333\include\algorithm

; 6084 :     *(_First + _Hole) = _STD forward<_Ty>(_Val); // drop _Val into final hole

  0008c	8b 45 0c	 mov	 eax, DWORD PTR __Hole$[ebp]
  0008f	8b 4d 08	 mov	 ecx, DWORD PTR __First$[ebp]
  00092	8b 55 e8	 mov	 edx, DWORD PTR $T1[ebp]
  00095	8b 12		 mov	 edx, DWORD PTR [edx]
  00097	89 14 81	 mov	 DWORD PTR [ecx+eax*4], edx

; 6085 : }

  0009a	c9		 leave
  0009b	c3		 ret	 0
??$_Push_heap_by_index@PAPAVCLight@@PAV1@ULightComp@@@std@@YAXPAPAVCLight@@HH$$QAPAV1@ULightComp@@@Z ENDP ; std::_Push_heap_by_index<CLight * *,CLight *,LightComp>
_TEXT	ENDS
; Function compile flags: /Odspy
; File C:\Program Files (x86)\Microsoft Visual Studio\2019\Community\VC\Tools\MSVC\14.28.29333\include\xutility
;	COMDAT ??$_Copy_backward_memmove@PAPAVCLight@@PAPAV1@@std@@YAPAPAVCLight@@PAPAV1@00@Z
_TEXT	SEGMENT
__Dest_ch$ = -16					; size = 4
__Last_ch$ = -12					; size = 4
__Count$ = -8						; size = 4
__First_ch$ = -4					; size = 4
__First$ = 8						; size = 4
__Last$ = 12						; size = 4
__Dest$ = 16						; size = 4
??$_Copy_backward_memmove@PAPAVCLight@@PAPAV1@@std@@YAPAPAVCLight@@PAPAV1@00@Z PROC ; std::_Copy_backward_memmove<CLight * *,CLight * *>, COMDAT

; 4535 : _BidIt2 _Copy_backward_memmove(_BidIt1 _First, _BidIt1 _Last, _BidIt2 _Dest) {

  00000	55		 push	 ebp
  00001	8b ec		 mov	 ebp, esp
  00003	83 ec 10	 sub	 esp, 16			; 00000010H

; 4536 :     // implement copy_backward-like function as memmove
; 4537 :     const char* const _First_ch = const_cast<const char*>(reinterpret_cast<const volatile char*>(_First));

  00006	8b 45 08	 mov	 eax, DWORD PTR __First$[ebp]
  00009	89 45 fc	 mov	 DWORD PTR __First_ch$[ebp], eax

; 4538 :     const char* const _Last_ch  = const_cast<const char*>(reinterpret_cast<const volatile char*>(_Last));

  0000c	8b 45 0c	 mov	 eax, DWORD PTR __Last$[ebp]
  0000f	89 45 f4	 mov	 DWORD PTR __Last_ch$[ebp], eax

; 4539 :     char* const _Dest_ch        = const_cast<char*>(reinterpret_cast<volatile char*>(_Dest));

  00012	8b 45 10	 mov	 eax, DWORD PTR __Dest$[ebp]
  00015	89 45 f0	 mov	 DWORD PTR __Dest_ch$[ebp], eax

; 4540 :     const auto _Count           = static_cast<size_t>(_Last_ch - _First_ch);

  00018	8b 45 f4	 mov	 eax, DWORD PTR __Last_ch$[ebp]
  0001b	2b 45 fc	 sub	 eax, DWORD PTR __First_ch$[ebp]
  0001e	89 45 f8	 mov	 DWORD PTR __Count$[ebp], eax

; 4541 :     return static_cast<_BidIt2>(_CSTD memmove(_Dest_ch - _Count, _First_ch, _Count));

  00021	ff 75 f8	 push	 DWORD PTR __Count$[ebp]
  00024	ff 75 fc	 push	 DWORD PTR __First_ch$[ebp]
  00027	8b 45 f0	 mov	 eax, DWORD PTR __Dest_ch$[ebp]
  0002a	2b 45 f8	 sub	 eax, DWORD PTR __Count$[ebp]
  0002d	50		 push	 eax
  0002e	e8 00 00 00 00	 call	 _memmove
  00033	83 c4 0c	 add	 esp, 12			; 0000000cH

; 4542 : }

  00036	c9		 leave
  00037	c3		 ret	 0
??$_Copy_backward_memmove@PAPAVCLight@@PAPAV1@@std@@YAPAPAVCLight@@PAPAV1@00@Z ENDP ; std::_Copy_backward_memmove<CLight * *,CLight * *>
_TEXT	ENDS
; Function compile flags: /Odspy
; File C:\Program Files (x86)\Microsoft Visual Studio\2019\Community\VC\Tools\MSVC\14.28.29333\include\algorithm
;	COMDAT ??$_Guess_median_unchecked@PAPAVCLight@@ULightComp@@@std@@YAXPAPAVCLight@@00ULightComp@@@Z
_TEXT	SEGMENT
__Two_step$1 = -12					; size = 4
__Count$ = -8						; size = 4
__Step$2 = -4						; size = 4
__First$ = 8						; size = 4
__Mid$ = 12						; size = 4
__Last$ = 16						; size = 4
__Pred$ = 20						; size = 1
??$_Guess_median_unchecked@PAPAVCLight@@ULightComp@@@std@@YAXPAPAVCLight@@00ULightComp@@@Z PROC ; std::_Guess_median_unchecked<CLight * *,LightComp>, COMDAT

; 7450 : _CONSTEXPR20 void _Guess_median_unchecked(_RanIt _First, _RanIt _Mid, _RanIt _Last, _Pr _Pred) {

  00000	55		 push	 ebp
  00001	8b ec		 mov	 ebp, esp
  00003	83 ec 0c	 sub	 esp, 12			; 0000000cH

; 7451 :     // sort median element to middle
; 7452 :     using _Diff        = _Iter_diff_t<_RanIt>;
; 7453 :     const _Diff _Count = _Last - _First;

  00006	8b 45 10	 mov	 eax, DWORD PTR __Last$[ebp]
  00009	2b 45 08	 sub	 eax, DWORD PTR __First$[ebp]
  0000c	c1 f8 02	 sar	 eax, 2
  0000f	89 45 f8	 mov	 DWORD PTR __Count$[ebp], eax

; 7454 :     if (40 < _Count) { // Tukey's ninther

  00012	83 7d f8 28	 cmp	 DWORD PTR __Count$[ebp], 40 ; 00000028H
  00016	0f 8e a4 00 00
	00		 jle	 $LN2@Guess_medi

; 7455 :         const _Diff _Step     = (_Count + 1) >> 3; // +1 can't overflow because range was made inclusive in caller

  0001c	8b 45 f8	 mov	 eax, DWORD PTR __Count$[ebp]
  0001f	40		 inc	 eax
  00020	c1 f8 03	 sar	 eax, 3
  00023	89 45 fc	 mov	 DWORD PTR __Step$2[ebp], eax

; 7456 :         const _Diff _Two_step = _Step << 1; // note: intentionally discards low-order bit

  00026	8b 45 fc	 mov	 eax, DWORD PTR __Step$2[ebp]
  00029	d1 e0		 shl	 eax, 1
  0002b	89 45 f4	 mov	 DWORD PTR __Two_step$1[ebp], eax

; 7457 :         _Med3_unchecked(_First, _First + _Step, _First + _Two_step, _Pred);

  0002e	ff 75 14	 push	 DWORD PTR __Pred$[ebp]
  00031	8b 45 f4	 mov	 eax, DWORD PTR __Two_step$1[ebp]
  00034	8b 4d 08	 mov	 ecx, DWORD PTR __First$[ebp]
  00037	8d 04 81	 lea	 eax, DWORD PTR [ecx+eax*4]
  0003a	50		 push	 eax
  0003b	8b 45 fc	 mov	 eax, DWORD PTR __Step$2[ebp]
  0003e	8b 4d 08	 mov	 ecx, DWORD PTR __First$[ebp]
  00041	8d 04 81	 lea	 eax, DWORD PTR [ecx+eax*4]
  00044	50		 push	 eax
  00045	ff 75 08	 push	 DWORD PTR __First$[ebp]
  00048	e8 00 00 00 00	 call	 ??$_Med3_unchecked@PAPAVCLight@@ULightComp@@@std@@YAXPAPAVCLight@@00ULightComp@@@Z ; std::_Med3_unchecked<CLight * *,LightComp>
  0004d	83 c4 10	 add	 esp, 16			; 00000010H

; 7458 :         _Med3_unchecked(_Mid - _Step, _Mid, _Mid + _Step, _Pred);

  00050	ff 75 14	 push	 DWORD PTR __Pred$[ebp]
  00053	8b 45 fc	 mov	 eax, DWORD PTR __Step$2[ebp]
  00056	8b 4d 0c	 mov	 ecx, DWORD PTR __Mid$[ebp]
  00059	8d 04 81	 lea	 eax, DWORD PTR [ecx+eax*4]
  0005c	50		 push	 eax
  0005d	ff 75 0c	 push	 DWORD PTR __Mid$[ebp]
  00060	8b 45 fc	 mov	 eax, DWORD PTR __Step$2[ebp]
  00063	c1 e0 02	 shl	 eax, 2
  00066	8b 4d 0c	 mov	 ecx, DWORD PTR __Mid$[ebp]
  00069	2b c8		 sub	 ecx, eax
  0006b	51		 push	 ecx
  0006c	e8 00 00 00 00	 call	 ??$_Med3_unchecked@PAPAVCLight@@ULightComp@@@std@@YAXPAPAVCLight@@00ULightComp@@@Z ; std::_Med3_unchecked<CLight * *,LightComp>
  00071	83 c4 10	 add	 esp, 16			; 00000010H

; 7459 :         _Med3_unchecked(_Last - _Two_step, _Last - _Step, _Last, _Pred);

  00074	ff 75 14	 push	 DWORD PTR __Pred$[ebp]
  00077	ff 75 10	 push	 DWORD PTR __Last$[ebp]
  0007a	8b 45 fc	 mov	 eax, DWORD PTR __Step$2[ebp]
  0007d	c1 e0 02	 shl	 eax, 2
  00080	8b 4d 10	 mov	 ecx, DWORD PTR __Last$[ebp]
  00083	2b c8		 sub	 ecx, eax
  00085	51		 push	 ecx
  00086	8b 45 f4	 mov	 eax, DWORD PTR __Two_step$1[ebp]
  00089	c1 e0 02	 shl	 eax, 2
  0008c	8b 4d 10	 mov	 ecx, DWORD PTR __Last$[ebp]
  0008f	2b c8		 sub	 ecx, eax
  00091	51		 push	 ecx
  00092	e8 00 00 00 00	 call	 ??$_Med3_unchecked@PAPAVCLight@@ULightComp@@@std@@YAXPAPAVCLight@@00ULightComp@@@Z ; std::_Med3_unchecked<CLight * *,LightComp>
  00097	83 c4 10	 add	 esp, 16			; 00000010H

; 7460 :         _Med3_unchecked(_First + _Step, _Mid, _Last - _Step, _Pred);

  0009a	ff 75 14	 push	 DWORD PTR __Pred$[ebp]
  0009d	8b 45 fc	 mov	 eax, DWORD PTR __Step$2[ebp]
  000a0	c1 e0 02	 shl	 eax, 2
  000a3	8b 4d 10	 mov	 ecx, DWORD PTR __Last$[ebp]
  000a6	2b c8		 sub	 ecx, eax
  000a8	51		 push	 ecx
  000a9	ff 75 0c	 push	 DWORD PTR __Mid$[ebp]
  000ac	8b 45 fc	 mov	 eax, DWORD PTR __Step$2[ebp]
  000af	8b 4d 08	 mov	 ecx, DWORD PTR __First$[ebp]
  000b2	8d 04 81	 lea	 eax, DWORD PTR [ecx+eax*4]
  000b5	50		 push	 eax
  000b6	e8 00 00 00 00	 call	 ??$_Med3_unchecked@PAPAVCLight@@ULightComp@@@std@@YAXPAPAVCLight@@00ULightComp@@@Z ; std::_Med3_unchecked<CLight * *,LightComp>
  000bb	83 c4 10	 add	 esp, 16			; 00000010H

; 7461 :     } else {

  000be	eb 14		 jmp	 SHORT $LN1@Guess_medi
$LN2@Guess_medi:

; 7462 :         _Med3_unchecked(_First, _Mid, _Last, _Pred);

  000c0	ff 75 14	 push	 DWORD PTR __Pred$[ebp]
  000c3	ff 75 10	 push	 DWORD PTR __Last$[ebp]
  000c6	ff 75 0c	 push	 DWORD PTR __Mid$[ebp]
  000c9	ff 75 08	 push	 DWORD PTR __First$[ebp]
  000cc	e8 00 00 00 00	 call	 ??$_Med3_unchecked@PAPAVCLight@@ULightComp@@@std@@YAXPAPAVCLight@@00ULightComp@@@Z ; std::_Med3_unchecked<CLight * *,LightComp>
  000d1	83 c4 10	 add	 esp, 16			; 00000010H
$LN1@Guess_medi:

; 7463 :     }
; 7464 : }

  000d4	c9		 leave
  000d5	c3		 ret	 0
??$_Guess_median_unchecked@PAPAVCLight@@ULightComp@@@std@@YAXPAPAVCLight@@00ULightComp@@@Z ENDP ; std::_Guess_median_unchecked<CLight * *,LightComp>
_TEXT	ENDS
; Function compile flags: /Odspy
; File C:\Program Files (x86)\Microsoft Visual Studio\2019\Community\VC\Tools\MSVC\14.28.29333\include\algorithm
; File C:\Program Files (x86)\Microsoft Visual Studio\2019\Community\VC\Tools\MSVC\14.28.29333\include\type_traits
; File C:\Program Files (x86)\Microsoft Visual Studio\2019\Community\VC\Tools\MSVC\14.28.29333\include\algorithm
; File C:\Program Files (x86)\Microsoft Visual Studio\2019\Community\VC\Tools\MSVC\14.28.29333\include\type_traits
; File C:\Program Files (x86)\Microsoft Visual Studio\2019\Community\VC\Tools\MSVC\14.28.29333\include\algorithm
; File C:\Program Files (x86)\Microsoft Visual Studio\2019\Community\VC\Tools\MSVC\14.28.29333\include\type_traits
; File C:\Program Files (x86)\Microsoft Visual Studio\2019\Community\VC\Tools\MSVC\14.28.29333\include\algorithm
;	COMDAT ??$_Pop_heap_unchecked@PAPAVCLight@@ULightComp@@@std@@YAXPAPAVCLight@@0ULightComp@@@Z
_TEXT	SEGMENT
$T1 = -20						; size = 4
$T2 = -16						; size = 4
$T3 = -12						; size = 4
__Val$4 = -8						; size = 4
$T5 = -4						; size = 4
__First$ = 8						; size = 4
__Last$ = 12						; size = 4
__Pred$ = 16						; size = 1
??$_Pop_heap_unchecked@PAPAVCLight@@ULightComp@@@std@@YAXPAPAVCLight@@0ULightComp@@@Z PROC ; std::_Pop_heap_unchecked<CLight * *,LightComp>, COMDAT

; 6226 : _CONSTEXPR20 void _Pop_heap_unchecked(_RanIt _First, _RanIt _Last, _Pr _Pred) {

  00000	55		 push	 ebp
  00001	8b ec		 mov	 ebp, esp
  00003	83 ec 14	 sub	 esp, 20			; 00000014H

; 6227 :     // pop *_First to *(_Last - 1) and reheap
; 6228 :     if (2 <= _Last - _First) {

  00006	8b 45 0c	 mov	 eax, DWORD PTR __Last$[ebp]
  00009	2b 45 08	 sub	 eax, DWORD PTR __First$[ebp]
  0000c	c1 f8 02	 sar	 eax, 2
  0000f	83 f8 02	 cmp	 eax, 2
  00012	7c 50		 jl	 SHORT $LN1@Pop_heap_u

; 6229 :         --_Last;

  00014	8b 45 0c	 mov	 eax, DWORD PTR __Last$[ebp]
  00017	83 e8 04	 sub	 eax, 4
  0001a	89 45 0c	 mov	 DWORD PTR __Last$[ebp], eax
; File C:\Program Files (x86)\Microsoft Visual Studio\2019\Community\VC\Tools\MSVC\14.28.29333\include\type_traits

; 1455 :     return static_cast<remove_reference_t<_Ty>&&>(_Arg);

  0001d	8b 45 0c	 mov	 eax, DWORD PTR __Last$[ebp]
  00020	89 45 fc	 mov	 DWORD PTR $T5[ebp], eax
; File C:\Program Files (x86)\Microsoft Visual Studio\2019\Community\VC\Tools\MSVC\14.28.29333\include\algorithm

; 6230 :         _Iter_value_t<_RanIt> _Val = _STD move(*_Last);

  00023	8b 45 fc	 mov	 eax, DWORD PTR $T5[ebp]
  00026	8b 00		 mov	 eax, DWORD PTR [eax]
  00028	89 45 f8	 mov	 DWORD PTR __Val$4[ebp], eax
; File C:\Program Files (x86)\Microsoft Visual Studio\2019\Community\VC\Tools\MSVC\14.28.29333\include\type_traits

; 1455 :     return static_cast<remove_reference_t<_Ty>&&>(_Arg);

  0002b	8d 45 f8	 lea	 eax, DWORD PTR __Val$4[ebp]
  0002e	89 45 f0	 mov	 DWORD PTR $T2[ebp], eax
  00031	8b 45 08	 mov	 eax, DWORD PTR __First$[ebp]
  00034	89 45 f4	 mov	 DWORD PTR $T3[ebp], eax
; File C:\Program Files (x86)\Microsoft Visual Studio\2019\Community\VC\Tools\MSVC\14.28.29333\include\algorithm

; 6219 :     *_Dest      = _STD move(*_First);

  00037	8b 45 0c	 mov	 eax, DWORD PTR __Last$[ebp]
  0003a	8b 4d f4	 mov	 ecx, DWORD PTR $T3[ebp]
  0003d	8b 09		 mov	 ecx, DWORD PTR [ecx]
  0003f	89 08		 mov	 DWORD PTR [eax], ecx
; File C:\Program Files (x86)\Microsoft Visual Studio\2019\Community\VC\Tools\MSVC\14.28.29333\include\type_traits

; 1443 :     return static_cast<_Ty&&>(_Arg);

  00041	8b 45 f0	 mov	 eax, DWORD PTR $T2[ebp]
  00044	89 45 ec	 mov	 DWORD PTR $T1[ebp], eax
; File C:\Program Files (x86)\Microsoft Visual Studio\2019\Community\VC\Tools\MSVC\14.28.29333\include\algorithm

; 6221 :     _Pop_heap_hole_by_index(

  00047	ff 75 10	 push	 DWORD PTR __Pred$[ebp]
  0004a	ff 75 ec	 push	 DWORD PTR $T1[ebp]
  0004d	8b 45 0c	 mov	 eax, DWORD PTR __Last$[ebp]
  00050	2b 45 08	 sub	 eax, DWORD PTR __First$[ebp]
  00053	c1 f8 02	 sar	 eax, 2
  00056	50		 push	 eax
  00057	6a 00		 push	 0
  00059	ff 75 08	 push	 DWORD PTR __First$[ebp]
  0005c	e8 00 00 00 00	 call	 ??$_Pop_heap_hole_by_index@PAPAVCLight@@PAV1@ULightComp@@@std@@YAXPAPAVCLight@@HH$$QAPAV1@ULightComp@@@Z ; std::_Pop_heap_hole_by_index<CLight * *,CLight *,LightComp>
  00061	83 c4 14	 add	 esp, 20			; 00000014H
$LN1@Pop_heap_u:

; 6231 :         _Pop_heap_hole_unchecked(_First, _Last, _Last, _STD move(_Val), _Pred);
; 6232 :     }
; 6233 : }

  00064	c9		 leave
  00065	c3		 ret	 0
??$_Pop_heap_unchecked@PAPAVCLight@@ULightComp@@@std@@YAXPAPAVCLight@@0ULightComp@@@Z ENDP ; std::_Pop_heap_unchecked<CLight * *,LightComp>
_TEXT	ENDS
; Function compile flags: /Odspy
; File C:\Program Files (x86)\Microsoft Visual Studio\2019\Community\VC\Tools\MSVC\14.28.29333\include\algorithm
; File D:\Metin2 Server Files\mainline\SRC_2014\Metin2Client\EterLib\GrpLightManager.h
; File D:\Metin2 Server Files\mainline\SRC_2014\Metin2Client\EterLib\GrpLightManager.cpp
; File C:\Program Files (x86)\Microsoft Visual Studio\2019\Community\VC\Tools\MSVC\14.28.29333\include\algorithm
; File C:\Program Files (x86)\Microsoft Visual Studio\2019\Community\VC\Tools\MSVC\14.28.29333\include\type_traits
; File C:\Program Files (x86)\Microsoft Visual Studio\2019\Community\VC\Tools\MSVC\14.28.29333\include\algorithm
; File C:\Program Files (x86)\Microsoft Visual Studio\2019\Community\VC\Tools\MSVC\14.28.29333\include\type_traits
; File C:\Program Files (x86)\Microsoft Visual Studio\2019\Community\VC\Tools\MSVC\14.28.29333\include\algorithm
; File C:\Program Files (x86)\Microsoft Visual Studio\2019\Community\VC\Tools\MSVC\14.28.29333\include\type_traits
; File C:\Program Files (x86)\Microsoft Visual Studio\2019\Community\VC\Tools\MSVC\14.28.29333\include\algorithm
;	COMDAT ??$_Pop_heap_hole_by_index@PAPAVCLight@@PAV1@ULightComp@@@std@@YAXPAPAVCLight@@HH$$QAPAV1@ULightComp@@@Z
_TEXT	SEGMENT
__Top$ = -36						; size = 4
$T1 = -32						; size = 4
$T2 = -28						; size = 4
$T3 = -24						; size = 4
$T4 = -20						; size = 4
$T5 = -16						; size = 4
__Max_sequence_non_leaf$ = -12				; size = 4
tv142 = -8						; size = 4
__Idx$ = -4						; size = 4
__First$ = 8						; size = 4
__Hole$ = 12						; size = 4
__Bottom$ = 16						; size = 4
__Val$ = 20						; size = 4
__Pred$ = 24						; size = 1
??$_Pop_heap_hole_by_index@PAPAVCLight@@PAV1@ULightComp@@@std@@YAXPAPAVCLight@@HH$$QAPAV1@ULightComp@@@Z PROC ; std::_Pop_heap_hole_by_index<CLight * *,CLight *,LightComp>, COMDAT

; 6186 :     _RanIt _First, _Iter_diff_t<_RanIt> _Hole, _Iter_diff_t<_RanIt> _Bottom, _Ty&& _Val, _Pr _Pred) {

  00000	55		 push	 ebp
  00001	8b ec		 mov	 ebp, esp
  00003	83 ec 24	 sub	 esp, 36			; 00000024H

; 6187 :     // percolate _Hole to _Bottom, then push _Val
; 6188 :     _STL_INTERNAL_CHECK(_Bottom > 0);
; 6189 : 
; 6190 :     using _Diff      = _Iter_diff_t<_RanIt>;
; 6191 :     const _Diff _Top = _Hole;

  00006	8b 45 0c	 mov	 eax, DWORD PTR __Hole$[ebp]
  00009	89 45 dc	 mov	 DWORD PTR __Top$[ebp], eax

; 6192 :     _Diff _Idx       = _Hole;

  0000c	8b 45 0c	 mov	 eax, DWORD PTR __Hole$[ebp]
  0000f	89 45 fc	 mov	 DWORD PTR __Idx$[ebp], eax

; 6193 : 
; 6194 :     // Check whether _Idx can have a child before calculating that child's index, since
; 6195 :     // calculating the child's index can trigger integer overflows
; 6196 :     const _Diff _Max_sequence_non_leaf = (_Bottom - 1) >> 1; // shift for codegen

  00012	8b 45 10	 mov	 eax, DWORD PTR __Bottom$[ebp]
  00015	48		 dec	 eax
  00016	d1 f8		 sar	 eax, 1
  00018	89 45 f4	 mov	 DWORD PTR __Max_sequence_non_leaf$[ebp], eax
$LN2@Pop_heap_h:

; 6197 :     while (_Idx < _Max_sequence_non_leaf) { // move _Hole down to larger child

  0001b	8b 45 fc	 mov	 eax, DWORD PTR __Idx$[ebp]
  0001e	3b 45 f4	 cmp	 eax, DWORD PTR __Max_sequence_non_leaf$[ebp]
  00021	7d 7d		 jge	 SHORT $LN3@Pop_heap_h

; 6198 :         _Idx = 2 * _Idx + 2;

  00023	8b 45 fc	 mov	 eax, DWORD PTR __Idx$[ebp]
  00026	8d 44 00 02	 lea	 eax, DWORD PTR [eax+eax+2]
  0002a	89 45 fc	 mov	 DWORD PTR __Idx$[ebp], eax
; File D:\Metin2 Server Files\mainline\SRC_2014\Metin2Client\EterLib\GrpLightManager.h

; 45   : 		float		GetDistance() const { return m_fDistance;	}

  0002d	8b 45 fc	 mov	 eax, DWORD PTR __Idx$[ebp]
  00030	8b 4d 08	 mov	 ecx, DWORD PTR __First$[ebp]
  00033	8b 04 81	 mov	 eax, DWORD PTR [ecx+eax*4]
  00036	f3 0f 10 40 78	 movss	 xmm0, DWORD PTR [eax+120]
  0003b	f3 0f 11 45 ec	 movss	 DWORD PTR $T4[ebp], xmm0
  00040	8b 45 fc	 mov	 eax, DWORD PTR __Idx$[ebp]
  00043	8b 4d 08	 mov	 ecx, DWORD PTR __First$[ebp]
  00046	8b 44 81 fc	 mov	 eax, DWORD PTR [ecx+eax*4-4]
  0004a	f3 0f 10 40 78	 movss	 xmm0, DWORD PTR [eax+120]
  0004f	f3 0f 11 45 f0	 movss	 DWORD PTR $T5[ebp], xmm0
; File D:\Metin2 Server Files\mainline\SRC_2014\Metin2Client\EterLib\GrpLightManager.cpp

; 96   : 		return l->GetDistance() < r->GetDistance();

  00054	f3 0f 10 45 f0	 movss	 xmm0, DWORD PTR $T5[ebp]
  00059	0f 2f 45 ec	 comiss	 xmm0, DWORD PTR $T4[ebp]
  0005d	76 09		 jbe	 SHORT $LN9@Pop_heap_h
  0005f	c7 45 f8 01 00
	00 00		 mov	 DWORD PTR tv142[ebp], 1
  00066	eb 04		 jmp	 SHORT $LN10@Pop_heap_h
$LN9@Pop_heap_h:
  00068	83 65 f8 00	 and	 DWORD PTR tv142[ebp], 0
$LN10@Pop_heap_h:
; File C:\Program Files (x86)\Microsoft Visual Studio\2019\Community\VC\Tools\MSVC\14.28.29333\include\algorithm

; 6199 :         if (_DEBUG_LT_PRED(_Pred, *(_First + _Idx), *(_First + (_Idx - 1)))) {

  0006c	0f b6 45 f8	 movzx	 eax, BYTE PTR tv142[ebp]
  00070	85 c0		 test	 eax, eax
  00072	74 07		 je	 SHORT $LN4@Pop_heap_h

; 6200 :             --_Idx;

  00074	8b 45 fc	 mov	 eax, DWORD PTR __Idx$[ebp]
  00077	48		 dec	 eax
  00078	89 45 fc	 mov	 DWORD PTR __Idx$[ebp], eax
$LN4@Pop_heap_h:

; 6202 :         *(_First + _Hole) = _STD move(*(_First + _Idx));

  0007b	8b 45 fc	 mov	 eax, DWORD PTR __Idx$[ebp]
  0007e	8b 4d 08	 mov	 ecx, DWORD PTR __First$[ebp]
  00081	8d 04 81	 lea	 eax, DWORD PTR [ecx+eax*4]
; File C:\Program Files (x86)\Microsoft Visual Studio\2019\Community\VC\Tools\MSVC\14.28.29333\include\type_traits

; 1455 :     return static_cast<remove_reference_t<_Ty>&&>(_Arg);

  00084	89 45 e8	 mov	 DWORD PTR $T3[ebp], eax
; File C:\Program Files (x86)\Microsoft Visual Studio\2019\Community\VC\Tools\MSVC\14.28.29333\include\algorithm

; 6202 :         *(_First + _Hole) = _STD move(*(_First + _Idx));

  00087	8b 45 0c	 mov	 eax, DWORD PTR __Hole$[ebp]
  0008a	8b 4d 08	 mov	 ecx, DWORD PTR __First$[ebp]
  0008d	8b 55 e8	 mov	 edx, DWORD PTR $T3[ebp]
  00090	8b 12		 mov	 edx, DWORD PTR [edx]
  00092	89 14 81	 mov	 DWORD PTR [ecx+eax*4], edx

; 6203 :         _Hole             = _Idx;

  00095	8b 45 fc	 mov	 eax, DWORD PTR __Idx$[ebp]
  00098	89 45 0c	 mov	 DWORD PTR __Hole$[ebp], eax

; 6204 :     }

  0009b	e9 7b ff ff ff	 jmp	 $LN2@Pop_heap_h
$LN3@Pop_heap_h:

; 6205 : 
; 6206 :     if (_Idx == _Max_sequence_non_leaf && _Bottom % 2 == 0) { // only child at bottom, move _Hole down to it

  000a0	8b 45 fc	 mov	 eax, DWORD PTR __Idx$[ebp]
  000a3	3b 45 f4	 cmp	 eax, DWORD PTR __Max_sequence_non_leaf$[ebp]
  000a6	75 35		 jne	 SHORT $LN5@Pop_heap_h
  000a8	8b 45 10	 mov	 eax, DWORD PTR __Bottom$[ebp]
  000ab	25 01 00 00 80	 and	 eax, -2147483647	; 80000001H
  000b0	79 05		 jns	 SHORT $LN43@Pop_heap_h
  000b2	48		 dec	 eax
  000b3	83 c8 fe	 or	 eax, -2			; fffffffeH
  000b6	40		 inc	 eax
$LN43@Pop_heap_h:
  000b7	85 c0		 test	 eax, eax
  000b9	75 22		 jne	 SHORT $LN5@Pop_heap_h

; 6207 :         *(_First + _Hole) = _STD move(*(_First + (_Bottom - 1)));

  000bb	8b 45 10	 mov	 eax, DWORD PTR __Bottom$[ebp]
  000be	8b 4d 08	 mov	 ecx, DWORD PTR __First$[ebp]
  000c1	8d 44 81 fc	 lea	 eax, DWORD PTR [ecx+eax*4-4]
; File C:\Program Files (x86)\Microsoft Visual Studio\2019\Community\VC\Tools\MSVC\14.28.29333\include\type_traits

; 1455 :     return static_cast<remove_reference_t<_Ty>&&>(_Arg);

  000c5	89 45 e4	 mov	 DWORD PTR $T2[ebp], eax
; File C:\Program Files (x86)\Microsoft Visual Studio\2019\Community\VC\Tools\MSVC\14.28.29333\include\algorithm

; 6207 :         *(_First + _Hole) = _STD move(*(_First + (_Bottom - 1)));

  000c8	8b 45 0c	 mov	 eax, DWORD PTR __Hole$[ebp]
  000cb	8b 4d 08	 mov	 ecx, DWORD PTR __First$[ebp]
  000ce	8b 55 e4	 mov	 edx, DWORD PTR $T2[ebp]
  000d1	8b 12		 mov	 edx, DWORD PTR [edx]
  000d3	89 14 81	 mov	 DWORD PTR [ecx+eax*4], edx

; 6208 :         _Hole             = _Bottom - 1;

  000d6	8b 45 10	 mov	 eax, DWORD PTR __Bottom$[ebp]
  000d9	48		 dec	 eax
  000da	89 45 0c	 mov	 DWORD PTR __Hole$[ebp], eax
$LN5@Pop_heap_h:
; File C:\Program Files (x86)\Microsoft Visual Studio\2019\Community\VC\Tools\MSVC\14.28.29333\include\type_traits

; 1443 :     return static_cast<_Ty&&>(_Arg);

  000dd	8b 45 14	 mov	 eax, DWORD PTR __Val$[ebp]
  000e0	89 45 e0	 mov	 DWORD PTR $T1[ebp], eax
; File C:\Program Files (x86)\Microsoft Visual Studio\2019\Community\VC\Tools\MSVC\14.28.29333\include\algorithm

; 6211 :     _Push_heap_by_index(_First, _Hole, _Top, _STD forward<_Ty>(_Val), _Pred);

  000e3	ff 75 18	 push	 DWORD PTR __Pred$[ebp]
  000e6	ff 75 e0	 push	 DWORD PTR $T1[ebp]
  000e9	ff 75 dc	 push	 DWORD PTR __Top$[ebp]
  000ec	ff 75 0c	 push	 DWORD PTR __Hole$[ebp]
  000ef	ff 75 08	 push	 DWORD PTR __First$[ebp]
  000f2	e8 00 00 00 00	 call	 ??$_Push_heap_by_index@PAPAVCLight@@PAV1@ULightComp@@@std@@YAXPAPAVCLight@@HH$$QAPAV1@ULightComp@@@Z ; std::_Push_heap_by_index<CLight * *,CLight *,LightComp>
  000f7	83 c4 14	 add	 esp, 20			; 00000014H

; 6212 : }

  000fa	c9		 leave
  000fb	c3		 ret	 0
??$_Pop_heap_hole_by_index@PAPAVCLight@@PAV1@ULightComp@@@std@@YAXPAPAVCLight@@HH$$QAPAV1@ULightComp@@@Z ENDP ; std::_Pop_heap_hole_by_index<CLight * *,CLight *,LightComp>
_TEXT	ENDS
; Function compile flags: /Odspy
; File C:\Program Files (x86)\Microsoft Visual Studio\2019\Community\VC\Tools\MSVC\14.28.29333\include\xmemory
;	COMDAT ??$_Zero_range@PAPAK@std@@YAPAPAKQAPAK0@Z
_TEXT	SEGMENT
__Last_ch$ = -8						; size = 4
__First_ch$ = -4					; size = 4
__First$ = 8						; size = 4
__Last$ = 12						; size = 4
??$_Zero_range@PAPAK@std@@YAPAPAKQAPAK0@Z PROC		; std::_Zero_range<unsigned long * *>, COMDAT

; 1852 : _Ptr _Zero_range(const _Ptr _First, const _Ptr _Last) { // fill [_First, _Last) with zeroes

  00000	55		 push	 ebp
  00001	8b ec		 mov	 ebp, esp
  00003	51		 push	 ecx
  00004	51		 push	 ecx

; 1853 :     char* const _First_ch = reinterpret_cast<char*>(_First);

  00005	8b 45 08	 mov	 eax, DWORD PTR __First$[ebp]
  00008	89 45 fc	 mov	 DWORD PTR __First_ch$[ebp], eax

; 1854 :     char* const _Last_ch  = reinterpret_cast<char*>(_Last);

  0000b	8b 45 0c	 mov	 eax, DWORD PTR __Last$[ebp]
  0000e	89 45 f8	 mov	 DWORD PTR __Last_ch$[ebp], eax

; 1855 :     _CSTD memset(_First_ch, 0, static_cast<size_t>(_Last_ch - _First_ch));

  00011	8b 45 f8	 mov	 eax, DWORD PTR __Last_ch$[ebp]
  00014	2b 45 fc	 sub	 eax, DWORD PTR __First_ch$[ebp]
  00017	50		 push	 eax
  00018	6a 00		 push	 0
  0001a	ff 75 fc	 push	 DWORD PTR __First_ch$[ebp]
  0001d	e8 00 00 00 00	 call	 _memset
  00022	83 c4 0c	 add	 esp, 12			; 0000000cH

; 1856 :     return _Last;

  00025	8b 45 0c	 mov	 eax, DWORD PTR __Last$[ebp]

; 1857 : }

  00028	c9		 leave
  00029	c3		 ret	 0
??$_Zero_range@PAPAK@std@@YAPAPAKQAPAK0@Z ENDP		; std::_Zero_range<unsigned long * *>
_TEXT	ENDS
; Function compile flags: /Odspy
; File C:\Program Files (x86)\Microsoft Visual Studio\2019\Community\VC\Tools\MSVC\14.28.29333\include\xutility
;	COMDAT ??$_Copy_memmove@PAPAKPAPAK@std@@YAPAPAKPAPAK00@Z
_TEXT	SEGMENT
__Last_ch$ = -16					; size = 4
__Count$ = -12						; size = 4
__Dest_ch$ = -8						; size = 4
__First_ch$ = -4					; size = 4
__First$ = 8						; size = 4
__Last$ = 12						; size = 4
__Dest$ = 16						; size = 4
??$_Copy_memmove@PAPAKPAPAK@std@@YAPAPAKPAPAK00@Z PROC	; std::_Copy_memmove<unsigned long * *,unsigned long * *>, COMDAT

; 4360 : _OutIt _Copy_memmove(_InIt _First, _InIt _Last, _OutIt _Dest) {

  00000	55		 push	 ebp
  00001	8b ec		 mov	 ebp, esp
  00003	83 ec 10	 sub	 esp, 16			; 00000010H

; 4361 :     const char* const _First_ch = const_cast<const char*>(reinterpret_cast<const volatile char*>(_First));

  00006	8b 45 08	 mov	 eax, DWORD PTR __First$[ebp]
  00009	89 45 fc	 mov	 DWORD PTR __First_ch$[ebp], eax

; 4362 :     const char* const _Last_ch  = const_cast<const char*>(reinterpret_cast<const volatile char*>(_Last));

  0000c	8b 45 0c	 mov	 eax, DWORD PTR __Last$[ebp]
  0000f	89 45 f0	 mov	 DWORD PTR __Last_ch$[ebp], eax

; 4363 :     char* const _Dest_ch        = const_cast<char*>(reinterpret_cast<volatile char*>(_Dest));

  00012	8b 45 10	 mov	 eax, DWORD PTR __Dest$[ebp]
  00015	89 45 f8	 mov	 DWORD PTR __Dest_ch$[ebp], eax

; 4364 :     const auto _Count           = static_cast<size_t>(_Last_ch - _First_ch);

  00018	8b 45 f0	 mov	 eax, DWORD PTR __Last_ch$[ebp]
  0001b	2b 45 fc	 sub	 eax, DWORD PTR __First_ch$[ebp]
  0001e	89 45 f4	 mov	 DWORD PTR __Count$[ebp], eax

; 4365 :     _CSTD memmove(_Dest_ch, _First_ch, _Count);

  00021	ff 75 f4	 push	 DWORD PTR __Count$[ebp]
  00024	ff 75 fc	 push	 DWORD PTR __First_ch$[ebp]
  00027	ff 75 f8	 push	 DWORD PTR __Dest_ch$[ebp]
  0002a	e8 00 00 00 00	 call	 _memmove
  0002f	83 c4 0c	 add	 esp, 12			; 0000000cH

; 4366 :     return reinterpret_cast<_OutIt>(_Dest_ch + _Count);

  00032	8b 45 f8	 mov	 eax, DWORD PTR __Dest_ch$[ebp]
  00035	03 45 f4	 add	 eax, DWORD PTR __Count$[ebp]

; 4367 : }

  00038	c9		 leave
  00039	c3		 ret	 0
??$_Copy_memmove@PAPAKPAPAK@std@@YAPAPAKPAPAK00@Z ENDP	; std::_Copy_memmove<unsigned long * *,unsigned long * *>
_TEXT	ENDS
; Function compile flags: /Odspy
; File C:\Program Files (x86)\Microsoft Visual Studio\2019\Community\VC\Tools\MSVC\14.28.29333\include\xmemory
;	COMDAT ??$_Refancy@PAPAVCLight@@$0A@@std@@YAPAPAVCLight@@PAPAV1@@Z
_TEXT	SEGMENT
__Ptr$ = 8						; size = 4
??$_Refancy@PAPAVCLight@@$0A@@std@@YAPAPAVCLight@@PAPAV1@@Z PROC ; std::_Refancy<CLight * *,0>, COMDAT

; 261  : _Pointer _Refancy(_Pointer _Ptr) noexcept {

  00000	55		 push	 ebp
  00001	8b ec		 mov	 ebp, esp

; 262  :     return _Ptr;

  00003	8b 45 08	 mov	 eax, DWORD PTR __Ptr$[ebp]

; 263  : }

  00006	5d		 pop	 ebp
  00007	c3		 ret	 0
??$_Refancy@PAPAVCLight@@$0A@@std@@YAPAPAVCLight@@PAPAV1@@Z ENDP ; std::_Refancy<CLight * *,0>
_TEXT	ENDS
; Function compile flags: /Odspy
; File C:\Program Files (x86)\Microsoft Visual Studio\2019\Community\VC\Tools\MSVC\14.28.29333\include\xutility
;	COMDAT ??$_Copy_memmove@PAPAVCLight@@PAPAV1@@std@@YAPAPAVCLight@@PAPAV1@00@Z
_TEXT	SEGMENT
__Last_ch$ = -16					; size = 4
__Count$ = -12						; size = 4
__Dest_ch$ = -8						; size = 4
__First_ch$ = -4					; size = 4
__First$ = 8						; size = 4
__Last$ = 12						; size = 4
__Dest$ = 16						; size = 4
??$_Copy_memmove@PAPAVCLight@@PAPAV1@@std@@YAPAPAVCLight@@PAPAV1@00@Z PROC ; std::_Copy_memmove<CLight * *,CLight * *>, COMDAT

; 4360 : _OutIt _Copy_memmove(_InIt _First, _InIt _Last, _OutIt _Dest) {

  00000	55		 push	 ebp
  00001	8b ec		 mov	 ebp, esp
  00003	83 ec 10	 sub	 esp, 16			; 00000010H

; 4361 :     const char* const _First_ch = const_cast<const char*>(reinterpret_cast<const volatile char*>(_First));

  00006	8b 45 08	 mov	 eax, DWORD PTR __First$[ebp]
  00009	89 45 fc	 mov	 DWORD PTR __First_ch$[ebp], eax

; 4362 :     const char* const _Last_ch  = const_cast<const char*>(reinterpret_cast<const volatile char*>(_Last));

  0000c	8b 45 0c	 mov	 eax, DWORD PTR __Last$[ebp]
  0000f	89 45 f0	 mov	 DWORD PTR __Last_ch$[ebp], eax

; 4363 :     char* const _Dest_ch        = const_cast<char*>(reinterpret_cast<volatile char*>(_Dest));

  00012	8b 45 10	 mov	 eax, DWORD PTR __Dest$[ebp]
  00015	89 45 f8	 mov	 DWORD PTR __Dest_ch$[ebp], eax

; 4364 :     const auto _Count           = static_cast<size_t>(_Last_ch - _First_ch);

  00018	8b 45 f0	 mov	 eax, DWORD PTR __Last_ch$[ebp]
  0001b	2b 45 fc	 sub	 eax, DWORD PTR __First_ch$[ebp]
  0001e	89 45 f4	 mov	 DWORD PTR __Count$[ebp], eax

; 4365 :     _CSTD memmove(_Dest_ch, _First_ch, _Count);

  00021	ff 75 f4	 push	 DWORD PTR __Count$[ebp]
  00024	ff 75 fc	 push	 DWORD PTR __First_ch$[ebp]
  00027	ff 75 f8	 push	 DWORD PTR __Dest_ch$[ebp]
  0002a	e8 00 00 00 00	 call	 _memmove
  0002f	83 c4 0c	 add	 esp, 12			; 0000000cH

; 4366 :     return reinterpret_cast<_OutIt>(_Dest_ch + _Count);

  00032	8b 45 f8	 mov	 eax, DWORD PTR __Dest_ch$[ebp]
  00035	03 45 f4	 add	 eax, DWORD PTR __Count$[ebp]

; 4367 : }

  00038	c9		 leave
  00039	c3		 ret	 0
??$_Copy_memmove@PAPAVCLight@@PAPAV1@@std@@YAPAPAVCLight@@PAPAV1@00@Z ENDP ; std::_Copy_memmove<CLight * *,CLight * *>
_TEXT	ENDS
; Function compile flags: /Odspy
; File C:\Program Files (x86)\Microsoft Visual Studio\2019\Community\VC\Tools\MSVC\14.28.29333\include\xmemory
; File C:\Program Files (x86)\Microsoft Visual Studio\2019\Community\VC\Tools\MSVC\14.28.29333\include\xstddef
; File C:\Program Files (x86)\Microsoft Visual Studio\2019\Community\VC\Tools\MSVC\14.28.29333\include\vcruntime_new.h
; File C:\Program Files (x86)\Microsoft Visual Studio\2019\Community\VC\Tools\MSVC\14.28.29333\include\type_traits
; File C:\Program Files (x86)\Microsoft Visual Studio\2019\Community\VC\Tools\MSVC\14.28.29333\include\xmemory
;	COMDAT ??$_Construct_in_place@PAU?$_Tree_node@U?$pair@$$CBKPAVCLight@@@std@@PAX@std@@AAPAU12@@std@@YAXAAPAU?$_Tree_node@U?$pair@$$CBKPAVCLight@@@std@@PAX@0@0@Z
_TEXT	SEGMENT
$T1 = -12						; size = 4
$T2 = -8						; size = 4
$T3 = -4						; size = 4
__Obj$ = 8						; size = 4
_<_Args_0>$ = 12					; size = 4
??$_Construct_in_place@PAU?$_Tree_node@U?$pair@$$CBKPAVCLight@@@std@@PAX@std@@AAPAU12@@std@@YAXAAPAU?$_Tree_node@U?$pair@$$CBKPAVCLight@@@std@@PAX@0@0@Z PROC ; std::_Construct_in_place<std::_Tree_node<std::pair<unsigned long const ,CLight *>,void *> *,std::_Tree_node<std::pair<unsigned long const ,CLight *>,void *> * &>, COMDAT

; 228  : void _Construct_in_place(_Ty& _Obj, _Types&&... _Args) noexcept(is_nothrow_constructible_v<_Ty, _Types...>) {

  00000	55		 push	 ebp
  00001	8b ec		 mov	 ebp, esp
  00003	83 ec 0c	 sub	 esp, 12			; 0000000cH
; File C:\Program Files (x86)\Microsoft Visual Studio\2019\Community\VC\Tools\MSVC\14.28.29333\include\xstddef

; 275  :     return __builtin_addressof(_Val);

  00006	8b 45 08	 mov	 eax, DWORD PTR __Obj$[ebp]
  00009	89 45 fc	 mov	 DWORD PTR $T3[ebp], eax
; File C:\Program Files (x86)\Microsoft Visual Studio\2019\Community\VC\Tools\MSVC\14.28.29333\include\vcruntime_new.h

; 169  :         return _Where;

  0000c	8b 45 fc	 mov	 eax, DWORD PTR $T3[ebp]
  0000f	89 45 f8	 mov	 DWORD PTR $T2[ebp], eax
; File C:\Program Files (x86)\Microsoft Visual Studio\2019\Community\VC\Tools\MSVC\14.28.29333\include\type_traits

; 1443 :     return static_cast<_Ty&&>(_Arg);

  00012	8b 45 0c	 mov	 eax, DWORD PTR _<_Args_0>$[ebp]
  00015	89 45 f4	 mov	 DWORD PTR $T1[ebp], eax
; File C:\Program Files (x86)\Microsoft Visual Studio\2019\Community\VC\Tools\MSVC\14.28.29333\include\xmemory

; 229  :     ::new (const_cast<void*>(static_cast<const volatile void*>(_STD addressof(_Obj))))

  00018	8b 45 f8	 mov	 eax, DWORD PTR $T2[ebp]
  0001b	8b 4d f4	 mov	 ecx, DWORD PTR $T1[ebp]
  0001e	8b 09		 mov	 ecx, DWORD PTR [ecx]
  00020	89 08		 mov	 DWORD PTR [eax], ecx

; 230  :         _Ty(_STD forward<_Types>(_Args)...);
; 231  : }

  00022	c9		 leave
  00023	c3		 ret	 0
??$_Construct_in_place@PAU?$_Tree_node@U?$pair@$$CBKPAVCLight@@@std@@PAX@std@@AAPAU12@@std@@YAXAAPAU?$_Tree_node@U?$pair@$$CBKPAVCLight@@@std@@PAX@0@0@Z ENDP ; std::_Construct_in_place<std::_Tree_node<std::pair<unsigned long const ,CLight *>,void *> *,std::_Tree_node<std::pair<unsigned long const ,CLight *>,void *> * &>
_TEXT	ENDS
; Function compile flags: /Odspy
; File C:\Program Files (x86)\Microsoft Visual Studio\2019\Community\VC\Tools\MSVC\14.28.29333\include\xmemory
; File C:\Program Files (x86)\Microsoft Visual Studio\2019\Community\VC\Tools\MSVC\14.28.29333\include\vcruntime_new.h
; File C:\Program Files (x86)\Microsoft Visual Studio\2019\Community\VC\Tools\MSVC\14.28.29333\include\type_traits
; File C:\Program Files (x86)\Microsoft Visual Studio\2019\Community\VC\Tools\MSVC\14.28.29333\include\xmemory
; File C:\Program Files (x86)\Microsoft Visual Studio\2019\Community\VC\Tools\MSVC\14.28.29333\include\type_traits
; File C:\Program Files (x86)\Microsoft Visual Studio\2019\Community\VC\Tools\MSVC\14.28.29333\include\xmemory
; File D:\Metin2 Server Files\mainline\SRC_2014\Metin2Client\EterLib\GrpLightManager.cpp
; File C:\Program Files (x86)\Microsoft Visual Studio\2019\Community\VC\Tools\MSVC\14.28.29333\include\type_traits
; File C:\Program Files (x86)\Microsoft Visual Studio\2019\Community\VC\Tools\MSVC\14.28.29333\include\xmemory
; File C:\Program Files (x86)\Microsoft Visual Studio\2019\Community\VC\Tools\MSVC\14.28.29333\include\tuple
; File C:\Program Files (x86)\Microsoft Visual Studio\2019\Community\VC\Tools\MSVC\14.28.29333\include\type_traits
; File C:\Program Files (x86)\Microsoft Visual Studio\2019\Community\VC\Tools\MSVC\14.28.29333\include\tuple
; File C:\Program Files (x86)\Microsoft Visual Studio\2019\Community\VC\Tools\MSVC\14.28.29333\include\xmemory
;	COMDAT ??$construct@U?$pair@$$CBKPAVCLight@@@std@@ABUpiecewise_construct_t@2@V?$tuple@ABK@2@V?$tuple@$$V@2@@?$_Default_allocator_traits@V?$allocator@U?$_Tree_node@U?$pair@$$CBKPAVCLight@@@std@@PAX@std@@@std@@@std@@SAXAAV?$allocator@U?$_Tree_node@U?$pair@$$CBKPAVCLight@@@std@@PAX@std@@@1@QAU?$pair@$$CBKPAVCLight@@@1@ABUpiecewise_construct_t@1@$$QAV?$tuple@ABK@1@$$QAV?$tuple@$$V@1@@Z
_TEXT	SEGMENT
_this$ = -52						; size = 4
$T1 = -48						; size = 4
$T2 = -44						; size = 4
$T3 = -40						; size = 4
$T4 = -36						; size = 4
$T5 = -32						; size = 4
_this$ = -28						; size = 4
$T6 = -24						; size = 4
$T7 = -20						; size = 4
___formal$ = -16					; size = 1
___formal$ = -12					; size = 1
___formal$ = -8						; size = 1
$T8 = -3						; size = 1
$T9 = -2						; size = 1
$T10 = -1						; size = 1
___formal$ = 8						; size = 4
__Ptr$ = 12						; size = 4
_<_Args_0>$ = 16					; size = 4
_<_Args_1>$ = 20					; size = 4
_<_Args_2>$ = 24					; size = 4
??$construct@U?$pair@$$CBKPAVCLight@@@std@@ABUpiecewise_construct_t@2@V?$tuple@ABK@2@V?$tuple@$$V@2@@?$_Default_allocator_traits@V?$allocator@U?$_Tree_node@U?$pair@$$CBKPAVCLight@@@std@@PAX@std@@@std@@@std@@SAXAAV?$allocator@U?$_Tree_node@U?$pair@$$CBKPAVCLight@@@std@@PAX@std@@@1@QAU?$pair@$$CBKPAVCLight@@@1@ABUpiecewise_construct_t@1@$$QAV?$tuple@ABK@1@$$QAV?$tuple@$$V@1@@Z PROC ; std::_Default_allocator_traits<std::allocator<std::_Tree_node<std::pair<unsigned long const ,CLight *>,void *> > >::construct<std::pair<unsigned long const ,CLight *>,std::piecewise_construct_t const &,std::tuple<unsigned long const &>,std::tuple<> >, COMDAT

; 700  :     static void construct(_Alloc&, _Objty* const _Ptr, _Types&&... _Args) {

  00000	55		 push	 ebp
  00001	8b ec		 mov	 ebp, esp
  00003	83 ec 34	 sub	 esp, 52			; 00000034H
; File C:\Program Files (x86)\Microsoft Visual Studio\2019\Community\VC\Tools\MSVC\14.28.29333\include\vcruntime_new.h

; 169  :         return _Where;

  00006	8b 45 0c	 mov	 eax, DWORD PTR __Ptr$[ebp]
  00009	89 45 ec	 mov	 DWORD PTR $T7[ebp], eax
; File C:\Program Files (x86)\Microsoft Visual Studio\2019\Community\VC\Tools\MSVC\14.28.29333\include\type_traits

; 1443 :     return static_cast<_Ty&&>(_Arg);

  0000c	8b 45 18	 mov	 eax, DWORD PTR _<_Args_2>$[ebp]
  0000f	89 45 d0	 mov	 DWORD PTR $T1[ebp], eax
; File C:\Program Files (x86)\Microsoft Visual Studio\2019\Community\VC\Tools\MSVC\14.28.29333\include\xmemory

; 701  :         ::new (const_cast<void*>(static_cast<const volatile void*>(_Ptr))) _Objty(_STD forward<_Types>(_Args)...);

  00012	8d 45 fd	 lea	 eax, DWORD PTR $T8[ebp]
  00015	89 45 cc	 mov	 DWORD PTR _this$[ebp], eax
; File C:\Program Files (x86)\Microsoft Visual Studio\2019\Community\VC\Tools\MSVC\14.28.29333\include\type_traits

; 1443 :     return static_cast<_Ty&&>(_Arg);

  00018	8b 45 14	 mov	 eax, DWORD PTR _<_Args_1>$[ebp]
  0001b	89 45 e8	 mov	 DWORD PTR $T6[ebp], eax
; File C:\Program Files (x86)\Microsoft Visual Studio\2019\Community\VC\Tools\MSVC\14.28.29333\include\xmemory

; 701  :         ::new (const_cast<void*>(static_cast<const volatile void*>(_Ptr))) _Objty(_STD forward<_Types>(_Args)...);

  0001e	8d 45 dc	 lea	 eax, DWORD PTR $T4[ebp]
  00021	89 45 e4	 mov	 DWORD PTR _this$[ebp], eax
; File D:\Metin2 Server Files\mainline\SRC_2014\Metin2Client\EterLib\GrpLightManager.cpp

  00024	8b 45 e8	 mov	 eax, DWORD PTR $T6[ebp]
  00027	8b 00		 mov	 eax, DWORD PTR [eax]
  00029	8b 4d e4	 mov	 ecx, DWORD PTR _this$[ebp]
  0002c	89 01		 mov	 DWORD PTR [ecx], eax
; File C:\Program Files (x86)\Microsoft Visual Studio\2019\Community\VC\Tools\MSVC\14.28.29333\include\type_traits

; 1443 :     return static_cast<_Ty&&>(_Arg);

  0002e	8b 45 10	 mov	 eax, DWORD PTR _<_Args_0>$[ebp]
  00031	89 45 e0	 mov	 DWORD PTR $T5[ebp], eax
; File C:\Program Files (x86)\Microsoft Visual Studio\2019\Community\VC\Tools\MSVC\14.28.29333\include\xmemory

; 701  :         ::new (const_cast<void*>(static_cast<const volatile void*>(_Ptr))) _Objty(_STD forward<_Types>(_Args)...);

  00034	8b 45 e0	 mov	 eax, DWORD PTR $T5[ebp]
  00037	8a 00		 mov	 al, BYTE PTR [eax]
  00039	88 45 f8	 mov	 BYTE PTR ___formal$[ebp], al
; File C:\Program Files (x86)\Microsoft Visual Studio\2019\Community\VC\Tools\MSVC\14.28.29333\include\tuple

; 986  :     : pair(_Val1, _Val2, index_sequence_for<_Types1...>{}, index_sequence_for<_Types2...>{}) {}

  0003c	33 c0		 xor	 eax, eax
  0003e	88 45 ff	 mov	 BYTE PTR $T10[ebp], al
  00041	33 c0		 xor	 eax, eax
  00043	88 45 fe	 mov	 BYTE PTR $T9[ebp], al
  00046	8a 45 ff	 mov	 al, BYTE PTR $T10[ebp]
  00049	88 45 f4	 mov	 BYTE PTR ___formal$[ebp], al
  0004c	8a 45 fe	 mov	 al, BYTE PTR $T9[ebp]
  0004f	88 45 f0	 mov	 BYTE PTR ___formal$[ebp], al
; File C:\Program Files (x86)\Microsoft Visual Studio\2019\Community\VC\Tools\MSVC\14.28.29333\include\type_traits

; 1455 :     return static_cast<remove_reference_t<_Ty>&&>(_Arg);

  00052	8d 45 dc	 lea	 eax, DWORD PTR $T4[ebp]
  00055	89 45 d8	 mov	 DWORD PTR $T3[ebp], eax
; File C:\Program Files (x86)\Microsoft Visual Studio\2019\Community\VC\Tools\MSVC\14.28.29333\include\tuple

; 790  :     return static_cast<_Ty&&>(static_cast<_Ttype&>(_Tuple)._Myfirst._Val);

  00058	8b 45 d8	 mov	 eax, DWORD PTR $T3[ebp]
  0005b	8b 00		 mov	 eax, DWORD PTR [eax]
  0005d	89 45 d4	 mov	 DWORD PTR $T2[ebp], eax

; 980  :     : first(_STD get<_Indexes1>(_STD move(_Val1))...), second(_STD get<_Indexes2>(_STD move(_Val2))...) {}

  00060	8b 45 ec	 mov	 eax, DWORD PTR $T7[ebp]
  00063	8b 4d d4	 mov	 ecx, DWORD PTR $T2[ebp]
  00066	8b 09		 mov	 ecx, DWORD PTR [ecx]
  00068	89 08		 mov	 DWORD PTR [eax], ecx
  0006a	8b 45 ec	 mov	 eax, DWORD PTR $T7[ebp]
  0006d	83 60 04 00	 and	 DWORD PTR [eax+4], 0
; File C:\Program Files (x86)\Microsoft Visual Studio\2019\Community\VC\Tools\MSVC\14.28.29333\include\xmemory

; 702  :     }

  00071	c9		 leave
  00072	c3		 ret	 0
??$construct@U?$pair@$$CBKPAVCLight@@@std@@ABUpiecewise_construct_t@2@V?$tuple@ABK@2@V?$tuple@$$V@2@@?$_Default_allocator_traits@V?$allocator@U?$_Tree_node@U?$pair@$$CBKPAVCLight@@@std@@PAX@std@@@std@@@std@@SAXAAV?$allocator@U?$_Tree_node@U?$pair@$$CBKPAVCLight@@@std@@PAX@std@@@1@QAU?$pair@$$CBKPAVCLight@@@1@ABUpiecewise_construct_t@1@$$QAV?$tuple@ABK@1@$$QAV?$tuple@$$V@1@@Z ENDP ; std::_Default_allocator_traits<std::allocator<std::_Tree_node<std::pair<unsigned long const ,CLight *>,void *> > >::construct<std::pair<unsigned long const ,CLight *>,std::piecewise_construct_t const &,std::tuple<unsigned long const &>,std::tuple<> >
_TEXT	ENDS
; Function compile flags: /Odspy
; File C:\Program Files (x86)\Microsoft Visual Studio\2019\Community\VC\Tools\MSVC\14.28.29333\include\algorithm
; File C:\Program Files (x86)\Microsoft Visual Studio\2019\Community\VC\Tools\MSVC\14.28.29333\include\xutility
; File C:\Program Files (x86)\Microsoft Visual Studio\2019\Community\VC\Tools\MSVC\14.28.29333\include\algorithm
; File C:\Program Files (x86)\Microsoft Visual Studio\2019\Community\VC\Tools\MSVC\14.28.29333\include\xutility
; File C:\Program Files (x86)\Microsoft Visual Studio\2019\Community\VC\Tools\MSVC\14.28.29333\include\algorithm
; File C:\Program Files (x86)\Microsoft Visual Studio\2019\Community\VC\Tools\MSVC\14.28.29333\include\xutility
; File D:\Metin2 Server Files\mainline\SRC_2014\Metin2Client\EterLib\GrpLightManager.h
; File D:\Metin2 Server Files\mainline\SRC_2014\Metin2Client\EterLib\GrpLightManager.cpp
; File C:\Program Files (x86)\Microsoft Visual Studio\2019\Community\VC\Tools\MSVC\14.28.29333\include\algorithm
; File C:\Program Files (x86)\Microsoft Visual Studio\2019\Community\VC\Tools\MSVC\14.28.29333\include\xutility
; File D:\Metin2 Server Files\mainline\SRC_2014\Metin2Client\EterLib\GrpLightManager.h
; File D:\Metin2 Server Files\mainline\SRC_2014\Metin2Client\EterLib\GrpLightManager.cpp
; File C:\Program Files (x86)\Microsoft Visual Studio\2019\Community\VC\Tools\MSVC\14.28.29333\include\algorithm
; File D:\Metin2 Server Files\mainline\SRC_2014\Metin2Client\EterLib\GrpLightManager.h
; File D:\Metin2 Server Files\mainline\SRC_2014\Metin2Client\EterLib\GrpLightManager.cpp
; File C:\Program Files (x86)\Microsoft Visual Studio\2019\Community\VC\Tools\MSVC\14.28.29333\include\algorithm
; File D:\Metin2 Server Files\mainline\SRC_2014\Metin2Client\EterLib\GrpLightManager.h
; File D:\Metin2 Server Files\mainline\SRC_2014\Metin2Client\EterLib\GrpLightManager.cpp
; File C:\Program Files (x86)\Microsoft Visual Studio\2019\Community\VC\Tools\MSVC\14.28.29333\include\algorithm
; File D:\Metin2 Server Files\mainline\SRC_2014\Metin2Client\EterLib\GrpLightManager.h
; File D:\Metin2 Server Files\mainline\SRC_2014\Metin2Client\EterLib\GrpLightManager.cpp
; File C:\Program Files (x86)\Microsoft Visual Studio\2019\Community\VC\Tools\MSVC\14.28.29333\include\algorithm
; File D:\Metin2 Server Files\mainline\SRC_2014\Metin2Client\EterLib\GrpLightManager.h
; File D:\Metin2 Server Files\mainline\SRC_2014\Metin2Client\EterLib\GrpLightManager.cpp
; File C:\Program Files (x86)\Microsoft Visual Studio\2019\Community\VC\Tools\MSVC\14.28.29333\include\algorithm
; File C:\Program Files (x86)\Microsoft Visual Studio\2019\Community\VC\Tools\MSVC\14.28.29333\include\type_traits
; File C:\Program Files (x86)\Microsoft Visual Studio\2019\Community\VC\Tools\MSVC\14.28.29333\include\utility
; File C:\Program Files (x86)\Microsoft Visual Studio\2019\Community\VC\Tools\MSVC\14.28.29333\include\type_traits
; File C:\Program Files (x86)\Microsoft Visual Studio\2019\Community\VC\Tools\MSVC\14.28.29333\include\utility
; File C:\Program Files (x86)\Microsoft Visual Studio\2019\Community\VC\Tools\MSVC\14.28.29333\include\type_traits
; File C:\Program Files (x86)\Microsoft Visual Studio\2019\Community\VC\Tools\MSVC\14.28.29333\include\utility
; File C:\Program Files (x86)\Microsoft Visual Studio\2019\Community\VC\Tools\MSVC\14.28.29333\include\algorithm
; File C:\Program Files (x86)\Microsoft Visual Studio\2019\Community\VC\Tools\MSVC\14.28.29333\include\xutility
; File D:\Metin2 Server Files\mainline\SRC_2014\Metin2Client\EterLib\GrpLightManager.h
; File D:\Metin2 Server Files\mainline\SRC_2014\Metin2Client\EterLib\GrpLightManager.cpp
; File C:\Program Files (x86)\Microsoft Visual Studio\2019\Community\VC\Tools\MSVC\14.28.29333\include\algorithm
; File C:\Program Files (x86)\Microsoft Visual Studio\2019\Community\VC\Tools\MSVC\14.28.29333\include\xutility
; File D:\Metin2 Server Files\mainline\SRC_2014\Metin2Client\EterLib\GrpLightManager.h
; File D:\Metin2 Server Files\mainline\SRC_2014\Metin2Client\EterLib\GrpLightManager.cpp
; File C:\Program Files (x86)\Microsoft Visual Studio\2019\Community\VC\Tools\MSVC\14.28.29333\include\algorithm
; File C:\Program Files (x86)\Microsoft Visual Studio\2019\Community\VC\Tools\MSVC\14.28.29333\include\xutility
; File C:\Program Files (x86)\Microsoft Visual Studio\2019\Community\VC\Tools\MSVC\14.28.29333\include\algorithm
; File C:\Program Files (x86)\Microsoft Visual Studio\2019\Community\VC\Tools\MSVC\14.28.29333\include\xutility
; File C:\Program Files (x86)\Microsoft Visual Studio\2019\Community\VC\Tools\MSVC\14.28.29333\include\algorithm
; File C:\Program Files (x86)\Microsoft Visual Studio\2019\Community\VC\Tools\MSVC\14.28.29333\include\type_traits
; File C:\Program Files (x86)\Microsoft Visual Studio\2019\Community\VC\Tools\MSVC\14.28.29333\include\utility
; File C:\Program Files (x86)\Microsoft Visual Studio\2019\Community\VC\Tools\MSVC\14.28.29333\include\type_traits
; File C:\Program Files (x86)\Microsoft Visual Studio\2019\Community\VC\Tools\MSVC\14.28.29333\include\utility
; File C:\Program Files (x86)\Microsoft Visual Studio\2019\Community\VC\Tools\MSVC\14.28.29333\include\type_traits
; File C:\Program Files (x86)\Microsoft Visual Studio\2019\Community\VC\Tools\MSVC\14.28.29333\include\utility
; File C:\Program Files (x86)\Microsoft Visual Studio\2019\Community\VC\Tools\MSVC\14.28.29333\include\algorithm
; File C:\Program Files (x86)\Microsoft Visual Studio\2019\Community\VC\Tools\MSVC\14.28.29333\include\type_traits
; File C:\Program Files (x86)\Microsoft Visual Studio\2019\Community\VC\Tools\MSVC\14.28.29333\include\utility
; File C:\Program Files (x86)\Microsoft Visual Studio\2019\Community\VC\Tools\MSVC\14.28.29333\include\type_traits
; File C:\Program Files (x86)\Microsoft Visual Studio\2019\Community\VC\Tools\MSVC\14.28.29333\include\utility
; File C:\Program Files (x86)\Microsoft Visual Studio\2019\Community\VC\Tools\MSVC\14.28.29333\include\algorithm
; File C:\Program Files (x86)\Microsoft Visual Studio\2019\Community\VC\Tools\MSVC\14.28.29333\include\type_traits
; File C:\Program Files (x86)\Microsoft Visual Studio\2019\Community\VC\Tools\MSVC\14.28.29333\include\utility
; File C:\Program Files (x86)\Microsoft Visual Studio\2019\Community\VC\Tools\MSVC\14.28.29333\include\type_traits
; File C:\Program Files (x86)\Microsoft Visual Studio\2019\Community\VC\Tools\MSVC\14.28.29333\include\utility
; File C:\Program Files (x86)\Microsoft Visual Studio\2019\Community\VC\Tools\MSVC\14.28.29333\include\type_traits
; File C:\Program Files (x86)\Microsoft Visual Studio\2019\Community\VC\Tools\MSVC\14.28.29333\include\utility
; File C:\Program Files (x86)\Microsoft Visual Studio\2019\Community\VC\Tools\MSVC\14.28.29333\include\algorithm
; File C:\Program Files (x86)\Microsoft Visual Studio\2019\Community\VC\Tools\MSVC\14.28.29333\include\type_traits
; File C:\Program Files (x86)\Microsoft Visual Studio\2019\Community\VC\Tools\MSVC\14.28.29333\include\utility
; File C:\Program Files (x86)\Microsoft Visual Studio\2019\Community\VC\Tools\MSVC\14.28.29333\include\type_traits
; File C:\Program Files (x86)\Microsoft Visual Studio\2019\Community\VC\Tools\MSVC\14.28.29333\include\utility
; File C:\Program Files (x86)\Microsoft Visual Studio\2019\Community\VC\Tools\MSVC\14.28.29333\include\type_traits
; File C:\Program Files (x86)\Microsoft Visual Studio\2019\Community\VC\Tools\MSVC\14.28.29333\include\utility
; File C:\Program Files (x86)\Microsoft Visual Studio\2019\Community\VC\Tools\MSVC\14.28.29333\include\algorithm
; File C:\Program Files (x86)\Microsoft Visual Studio\2019\Community\VC\Tools\MSVC\14.28.29333\include\type_traits
; File C:\Program Files (x86)\Microsoft Visual Studio\2019\Community\VC\Tools\MSVC\14.28.29333\include\utility
; File C:\Program Files (x86)\Microsoft Visual Studio\2019\Community\VC\Tools\MSVC\14.28.29333\include\type_traits
; File C:\Program Files (x86)\Microsoft Visual Studio\2019\Community\VC\Tools\MSVC\14.28.29333\include\utility
; File C:\Program Files (x86)\Microsoft Visual Studio\2019\Community\VC\Tools\MSVC\14.28.29333\include\type_traits
; File C:\Program Files (x86)\Microsoft Visual Studio\2019\Community\VC\Tools\MSVC\14.28.29333\include\utility
; File C:\Program Files (x86)\Microsoft Visual Studio\2019\Community\VC\Tools\MSVC\14.28.29333\include\algorithm
; File C:\Program Files (x86)\Microsoft Visual Studio\2019\Community\VC\Tools\MSVC\14.28.29333\include\type_traits
; File C:\Program Files (x86)\Microsoft Visual Studio\2019\Community\VC\Tools\MSVC\14.28.29333\include\utility
; File C:\Program Files (x86)\Microsoft Visual Studio\2019\Community\VC\Tools\MSVC\14.28.29333\include\type_traits
; File C:\Program Files (x86)\Microsoft Visual Studio\2019\Community\VC\Tools\MSVC\14.28.29333\include\utility
; File C:\Program Files (x86)\Microsoft Visual Studio\2019\Community\VC\Tools\MSVC\14.28.29333\include\type_traits
; File C:\Program Files (x86)\Microsoft Visual Studio\2019\Community\VC\Tools\MSVC\14.28.29333\include\utility
; File C:\Program Files (x86)\Microsoft Visual Studio\2019\Community\VC\Tools\MSVC\14.28.29333\include\algorithm
; File C:\Program Files (x86)\Microsoft Visual Studio\2019\Community\VC\Tools\MSVC\14.28.29333\include\type_traits
; File C:\Program Files (x86)\Microsoft Visual Studio\2019\Community\VC\Tools\MSVC\14.28.29333\include\utility
; File C:\Program Files (x86)\Microsoft Visual Studio\2019\Community\VC\Tools\MSVC\14.28.29333\include\type_traits
; File C:\Program Files (x86)\Microsoft Visual Studio\2019\Community\VC\Tools\MSVC\14.28.29333\include\utility
; File C:\Program Files (x86)\Microsoft Visual Studio\2019\Community\VC\Tools\MSVC\14.28.29333\include\type_traits
; File C:\Program Files (x86)\Microsoft Visual Studio\2019\Community\VC\Tools\MSVC\14.28.29333\include\utility
; File C:\Program Files (x86)\Microsoft Visual Studio\2019\Community\VC\Tools\MSVC\14.28.29333\include\algorithm
;	COMDAT ??$_Partition_by_median_guess_unchecked@PAPAVCLight@@ULightComp@@@std@@YA?AU?$pair@PAPAVCLight@@PAPAV1@@0@PAPAVCLight@@0ULightComp@@@Z
_TEXT	SEGMENT
$T1 = -196						; size = 4
__Tmp$2 = -192						; size = 4
$T3 = -188						; size = 4
$T4 = -184						; size = 4
$T5 = -180						; size = 4
__Tmp$6 = -176						; size = 4
$T7 = -172						; size = 4
$T8 = -168						; size = 4
$T9 = -164						; size = 4
__Tmp$10 = -160						; size = 4
$T11 = -156						; size = 4
$T12 = -152						; size = 4
$T13 = -148						; size = 4
__Tmp$14 = -144						; size = 4
$T15 = -140						; size = 4
$T16 = -136						; size = 4
$T17 = -132						; size = 4
__Tmp$18 = -128						; size = 4
$T19 = -124						; size = 4
$T20 = -120						; size = 4
$T21 = -116						; size = 4
$T22 = -112						; size = 4
$T23 = -108						; size = 4
__Tmp$24 = -104						; size = 4
$T25 = -100						; size = 4
$T26 = -96						; size = 4
$T27 = -92						; size = 4
$T28 = -88						; size = 4
$T29 = -84						; size = 4
$T30 = -80						; size = 4
$T31 = -76						; size = 4
__Tmp$32 = -72						; size = 4
$T33 = -68						; size = 4
$T34 = -64						; size = 4
$T35 = -60						; size = 4
$T36 = -56						; size = 4
$T37 = -52						; size = 4
$T38 = -48						; size = 4
$T39 = -44						; size = 4
$T40 = -40						; size = 4
$T41 = -36						; size = 4
$T42 = -32						; size = 4
$T43 = -28						; size = 4
$T44 = -24						; size = 4
$T45 = -20						; size = 4
$T46 = -16						; size = 4
__Right$ = -12						; size = 4
__Left$ = -8						; size = 4
__Right$ = -4						; size = 4
__Left$ = 0						; size = 4
__Right$ = 4						; size = 4
__Left$ = 8						; size = 4
__Left$ = 12						; size = 4
tv247 = 16						; size = 4
tv242 = 20						; size = 4
__Left$ = 24						; size = 4
tv238 = 28						; size = 4
tv234 = 32						; size = 4
tv230 = 36						; size = 4
tv226 = 40						; size = 4
tv222 = 44						; size = 4
tv218 = 48						; size = 4
__Mid$ = 52						; size = 4
__First$ = 56						; size = 4
__First$ = 60						; size = 4
__First$ = 64						; size = 4
__First$ = 68						; size = 4
__First$ = 72						; size = 4
__First$ = 76						; size = 4
__First$ = 80						; size = 4
__First$ = 84						; size = 4
__Glast$ = 88						; size = 4
__Gfirst$ = 92						; size = 4
__Plast$ = 96						; size = 4
__Pfirst$ = 100						; size = 4
___$ReturnUdt$ = 112					; size = 4
__First$ = 116						; size = 4
__Last$ = 120						; size = 4
__Pred$ = 124						; size = 1
??$_Partition_by_median_guess_unchecked@PAPAVCLight@@ULightComp@@@std@@YA?AU?$pair@PAPAVCLight@@PAPAV1@@0@PAPAVCLight@@0ULightComp@@@Z PROC ; std::_Partition_by_median_guess_unchecked<CLight * *,LightComp>, COMDAT

; 7467 : _CONSTEXPR20 pair<_RanIt, _RanIt> _Partition_by_median_guess_unchecked(_RanIt _First, _RanIt _Last, _Pr _Pred) {

  00000	55		 push	 ebp
  00001	8d 6c 24 98	 lea	 ebp, DWORD PTR [esp-104]
  00005	81 ec 2c 01 00
	00		 sub	 esp, 300		; 0000012cH

; 7468 :     // partition [_First, _Last)
; 7469 :     _RanIt _Mid = _First + ((_Last - _First) >> 1); // shift for codegen

  0000b	8b 45 78	 mov	 eax, DWORD PTR __Last$[ebp]
  0000e	2b 45 74	 sub	 eax, DWORD PTR __First$[ebp]
  00011	c1 f8 02	 sar	 eax, 2
  00014	d1 f8		 sar	 eax, 1
  00016	8b 4d 74	 mov	 ecx, DWORD PTR __First$[ebp]
  00019	8d 04 81	 lea	 eax, DWORD PTR [ecx+eax*4]
  0001c	89 45 34	 mov	 DWORD PTR __Mid$[ebp], eax

; 7470 :     _Guess_median_unchecked(_First, _Mid, _Prev_iter(_Last), _Pred);

  0001f	8b 45 78	 mov	 eax, DWORD PTR __Last$[ebp]
  00022	89 45 50	 mov	 DWORD PTR __First$[ebp], eax
; File C:\Program Files (x86)\Microsoft Visual Studio\2019\Community\VC\Tools\MSVC\14.28.29333\include\xutility

; 1852 :     return --_First;

  00025	8b 45 50	 mov	 eax, DWORD PTR __First$[ebp]
  00028	83 e8 04	 sub	 eax, 4
  0002b	89 45 50	 mov	 DWORD PTR __First$[ebp], eax
; File C:\Program Files (x86)\Microsoft Visual Studio\2019\Community\VC\Tools\MSVC\14.28.29333\include\algorithm

; 7470 :     _Guess_median_unchecked(_First, _Mid, _Prev_iter(_Last), _Pred);

  0002e	ff 75 7c	 push	 DWORD PTR __Pred$[ebp]
  00031	ff 75 50	 push	 DWORD PTR __First$[ebp]
  00034	ff 75 34	 push	 DWORD PTR __Mid$[ebp]
  00037	ff 75 74	 push	 DWORD PTR __First$[ebp]
  0003a	e8 00 00 00 00	 call	 ??$_Guess_median_unchecked@PAPAVCLight@@ULightComp@@@std@@YAXPAPAVCLight@@00ULightComp@@@Z ; std::_Guess_median_unchecked<CLight * *,LightComp>
  0003f	83 c4 10	 add	 esp, 16			; 00000010H

; 7471 :     _RanIt _Pfirst = _Mid;

  00042	8b 45 34	 mov	 eax, DWORD PTR __Mid$[ebp]
  00045	89 45 64	 mov	 DWORD PTR __Pfirst$[ebp], eax

; 7472 :     _RanIt _Plast  = _Next_iter(_Pfirst);

  00048	8b 45 64	 mov	 eax, DWORD PTR __Pfirst$[ebp]
  0004b	89 45 4c	 mov	 DWORD PTR __First$[ebp], eax
; File C:\Program Files (x86)\Microsoft Visual Studio\2019\Community\VC\Tools\MSVC\14.28.29333\include\xutility

; 1837 :     return ++_First;

  0004e	8b 45 4c	 mov	 eax, DWORD PTR __First$[ebp]
  00051	83 c0 04	 add	 eax, 4
  00054	89 45 4c	 mov	 DWORD PTR __First$[ebp], eax
; File C:\Program Files (x86)\Microsoft Visual Studio\2019\Community\VC\Tools\MSVC\14.28.29333\include\algorithm

; 7472 :     _RanIt _Plast  = _Next_iter(_Pfirst);

  00057	8b 45 4c	 mov	 eax, DWORD PTR __First$[ebp]
  0005a	89 45 60	 mov	 DWORD PTR __Plast$[ebp], eax
$LN2@Partition_:

; 7475 :            && !_Pred(*_Pfirst, *_Prev_iter(_Pfirst))) {

  0005d	8b 45 74	 mov	 eax, DWORD PTR __First$[ebp]
  00060	3b 45 64	 cmp	 eax, DWORD PTR __Pfirst$[ebp]
  00063	0f 83 a8 00 00
	00		 jae	 $LN3@Partition_
  00069	8b 45 64	 mov	 eax, DWORD PTR __Pfirst$[ebp]
  0006c	89 45 48	 mov	 DWORD PTR __First$[ebp], eax
; File C:\Program Files (x86)\Microsoft Visual Studio\2019\Community\VC\Tools\MSVC\14.28.29333\include\xutility

; 1852 :     return --_First;

  0006f	8b 45 48	 mov	 eax, DWORD PTR __First$[ebp]
  00072	83 e8 04	 sub	 eax, 4
  00075	89 45 48	 mov	 DWORD PTR __First$[ebp], eax
; File D:\Metin2 Server Files\mainline\SRC_2014\Metin2Client\EterLib\GrpLightManager.h

; 45   : 		float		GetDistance() const { return m_fDistance;	}

  00078	8b 45 48	 mov	 eax, DWORD PTR __First$[ebp]
  0007b	8b 00		 mov	 eax, DWORD PTR [eax]
  0007d	f3 0f 10 40 78	 movss	 xmm0, DWORD PTR [eax+120]
  00082	f3 0f 11 45 ec	 movss	 DWORD PTR $T45[ebp], xmm0
  00087	8b 45 64	 mov	 eax, DWORD PTR __Pfirst$[ebp]
  0008a	8b 00		 mov	 eax, DWORD PTR [eax]
  0008c	f3 0f 10 40 78	 movss	 xmm0, DWORD PTR [eax+120]
  00091	f3 0f 11 45 f0	 movss	 DWORD PTR $T46[ebp], xmm0
; File D:\Metin2 Server Files\mainline\SRC_2014\Metin2Client\EterLib\GrpLightManager.cpp

; 96   : 		return l->GetDistance() < r->GetDistance();

  00096	f3 0f 10 45 f0	 movss	 xmm0, DWORD PTR $T46[ebp]
  0009b	0f 2f 45 ec	 comiss	 xmm0, DWORD PTR $T45[ebp]
  0009f	76 09		 jbe	 SHORT $LN42@Partition_
  000a1	c7 45 30 01 00
	00 00		 mov	 DWORD PTR tv218[ebp], 1
  000a8	eb 04		 jmp	 SHORT $LN43@Partition_
$LN42@Partition_:
  000aa	83 65 30 00	 and	 DWORD PTR tv218[ebp], 0
$LN43@Partition_:
; File C:\Program Files (x86)\Microsoft Visual Studio\2019\Community\VC\Tools\MSVC\14.28.29333\include\algorithm

; 7475 :            && !_Pred(*_Pfirst, *_Prev_iter(_Pfirst))) {

  000ae	0f b6 45 30	 movzx	 eax, BYTE PTR tv218[ebp]
  000b2	85 c0		 test	 eax, eax
  000b4	75 5b		 jne	 SHORT $LN3@Partition_
  000b6	8b 45 64	 mov	 eax, DWORD PTR __Pfirst$[ebp]
  000b9	89 45 44	 mov	 DWORD PTR __First$[ebp], eax
; File C:\Program Files (x86)\Microsoft Visual Studio\2019\Community\VC\Tools\MSVC\14.28.29333\include\xutility

; 1852 :     return --_First;

  000bc	8b 45 44	 mov	 eax, DWORD PTR __First$[ebp]
  000bf	83 e8 04	 sub	 eax, 4
  000c2	89 45 44	 mov	 DWORD PTR __First$[ebp], eax
; File D:\Metin2 Server Files\mainline\SRC_2014\Metin2Client\EterLib\GrpLightManager.h

; 45   : 		float		GetDistance() const { return m_fDistance;	}

  000c5	8b 45 64	 mov	 eax, DWORD PTR __Pfirst$[ebp]
  000c8	8b 00		 mov	 eax, DWORD PTR [eax]
  000ca	f3 0f 10 40 78	 movss	 xmm0, DWORD PTR [eax+120]
  000cf	f3 0f 11 45 e4	 movss	 DWORD PTR $T43[ebp], xmm0
  000d4	8b 45 44	 mov	 eax, DWORD PTR __First$[ebp]
  000d7	8b 00		 mov	 eax, DWORD PTR [eax]
  000d9	f3 0f 10 40 78	 movss	 xmm0, DWORD PTR [eax+120]
  000de	f3 0f 11 45 e8	 movss	 DWORD PTR $T44[ebp], xmm0
; File D:\Metin2 Server Files\mainline\SRC_2014\Metin2Client\EterLib\GrpLightManager.cpp

; 96   : 		return l->GetDistance() < r->GetDistance();

  000e3	f3 0f 10 45 e8	 movss	 xmm0, DWORD PTR $T44[ebp]
  000e8	0f 2f 45 e4	 comiss	 xmm0, DWORD PTR $T43[ebp]
  000ec	76 09		 jbe	 SHORT $LN52@Partition_
  000ee	c7 45 2c 01 00
	00 00		 mov	 DWORD PTR tv222[ebp], 1
  000f5	eb 04		 jmp	 SHORT $LN53@Partition_
$LN52@Partition_:
  000f7	83 65 2c 00	 and	 DWORD PTR tv222[ebp], 0
$LN53@Partition_:
; File C:\Program Files (x86)\Microsoft Visual Studio\2019\Community\VC\Tools\MSVC\14.28.29333\include\algorithm

; 7475 :            && !_Pred(*_Pfirst, *_Prev_iter(_Pfirst))) {

  000fb	0f b6 45 2c	 movzx	 eax, BYTE PTR tv222[ebp]
  000ff	85 c0		 test	 eax, eax
  00101	75 0e		 jne	 SHORT $LN3@Partition_

; 7476 :         --_Pfirst;

  00103	8b 45 64	 mov	 eax, DWORD PTR __Pfirst$[ebp]
  00106	83 e8 04	 sub	 eax, 4
  00109	89 45 64	 mov	 DWORD PTR __Pfirst$[ebp], eax

; 7477 :     }

  0010c	e9 4c ff ff ff	 jmp	 $LN2@Partition_
$LN3@Partition_:

; 7479 :     while (_Plast < _Last && !_DEBUG_LT_PRED(_Pred, *_Plast, *_Pfirst) && !_Pred(*_Pfirst, *_Plast)) {

  00111	8b 45 60	 mov	 eax, DWORD PTR __Plast$[ebp]
  00114	3b 45 78	 cmp	 eax, DWORD PTR __Last$[ebp]
  00117	0f 83 8a 00 00
	00		 jae	 $LN5@Partition_
; File D:\Metin2 Server Files\mainline\SRC_2014\Metin2Client\EterLib\GrpLightManager.h

; 45   : 		float		GetDistance() const { return m_fDistance;	}

  0011d	8b 45 60	 mov	 eax, DWORD PTR __Plast$[ebp]
  00120	8b 00		 mov	 eax, DWORD PTR [eax]
  00122	f3 0f 10 40 78	 movss	 xmm0, DWORD PTR [eax+120]
  00127	f3 0f 11 45 dc	 movss	 DWORD PTR $T41[ebp], xmm0
  0012c	8b 45 64	 mov	 eax, DWORD PTR __Pfirst$[ebp]
  0012f	8b 00		 mov	 eax, DWORD PTR [eax]
  00131	f3 0f 10 40 78	 movss	 xmm0, DWORD PTR [eax+120]
  00136	f3 0f 11 45 e0	 movss	 DWORD PTR $T42[ebp], xmm0
; File D:\Metin2 Server Files\mainline\SRC_2014\Metin2Client\EterLib\GrpLightManager.cpp

; 96   : 		return l->GetDistance() < r->GetDistance();

  0013b	f3 0f 10 45 e0	 movss	 xmm0, DWORD PTR $T42[ebp]
  00140	0f 2f 45 dc	 comiss	 xmm0, DWORD PTR $T41[ebp]
  00144	76 09		 jbe	 SHORT $LN60@Partition_
  00146	c7 45 28 01 00
	00 00		 mov	 DWORD PTR tv226[ebp], 1
  0014d	eb 04		 jmp	 SHORT $LN61@Partition_
$LN60@Partition_:
  0014f	83 65 28 00	 and	 DWORD PTR tv226[ebp], 0
$LN61@Partition_:
; File C:\Program Files (x86)\Microsoft Visual Studio\2019\Community\VC\Tools\MSVC\14.28.29333\include\algorithm

; 7479 :     while (_Plast < _Last && !_DEBUG_LT_PRED(_Pred, *_Plast, *_Pfirst) && !_Pred(*_Pfirst, *_Plast)) {

  00153	0f b6 45 28	 movzx	 eax, BYTE PTR tv226[ebp]
  00157	85 c0		 test	 eax, eax
  00159	75 4c		 jne	 SHORT $LN5@Partition_
; File D:\Metin2 Server Files\mainline\SRC_2014\Metin2Client\EterLib\GrpLightManager.h

; 45   : 		float		GetDistance() const { return m_fDistance;	}

  0015b	8b 45 64	 mov	 eax, DWORD PTR __Pfirst$[ebp]
  0015e	8b 00		 mov	 eax, DWORD PTR [eax]
  00160	f3 0f 10 40 78	 movss	 xmm0, DWORD PTR [eax+120]
  00165	f3 0f 11 45 d4	 movss	 DWORD PTR $T39[ebp], xmm0
  0016a	8b 45 60	 mov	 eax, DWORD PTR __Plast$[ebp]
  0016d	8b 00		 mov	 eax, DWORD PTR [eax]
  0016f	f3 0f 10 40 78	 movss	 xmm0, DWORD PTR [eax+120]
  00174	f3 0f 11 45 d8	 movss	 DWORD PTR $T40[ebp], xmm0
; File D:\Metin2 Server Files\mainline\SRC_2014\Metin2Client\EterLib\GrpLightManager.cpp

; 96   : 		return l->GetDistance() < r->GetDistance();

  00179	f3 0f 10 45 d8	 movss	 xmm0, DWORD PTR $T40[ebp]
  0017e	0f 2f 45 d4	 comiss	 xmm0, DWORD PTR $T39[ebp]
  00182	76 09		 jbe	 SHORT $LN68@Partition_
  00184	c7 45 24 01 00
	00 00		 mov	 DWORD PTR tv230[ebp], 1
  0018b	eb 04		 jmp	 SHORT $LN69@Partition_
$LN68@Partition_:
  0018d	83 65 24 00	 and	 DWORD PTR tv230[ebp], 0
$LN69@Partition_:
; File C:\Program Files (x86)\Microsoft Visual Studio\2019\Community\VC\Tools\MSVC\14.28.29333\include\algorithm

; 7479 :     while (_Plast < _Last && !_DEBUG_LT_PRED(_Pred, *_Plast, *_Pfirst) && !_Pred(*_Pfirst, *_Plast)) {

  00191	0f b6 45 24	 movzx	 eax, BYTE PTR tv230[ebp]
  00195	85 c0		 test	 eax, eax
  00197	75 0e		 jne	 SHORT $LN5@Partition_

; 7480 :         ++_Plast;

  00199	8b 45 60	 mov	 eax, DWORD PTR __Plast$[ebp]
  0019c	83 c0 04	 add	 eax, 4
  0019f	89 45 60	 mov	 DWORD PTR __Plast$[ebp], eax

; 7481 :     }

  001a2	e9 6a ff ff ff	 jmp	 $LN3@Partition_
$LN5@Partition_:

; 7482 : 
; 7483 :     _RanIt _Gfirst = _Plast;

  001a7	8b 45 60	 mov	 eax, DWORD PTR __Plast$[ebp]
  001aa	89 45 5c	 mov	 DWORD PTR __Gfirst$[ebp], eax

; 7484 :     _RanIt _Glast  = _Pfirst;

  001ad	8b 45 64	 mov	 eax, DWORD PTR __Pfirst$[ebp]
  001b0	89 45 58	 mov	 DWORD PTR __Glast$[ebp], eax
$LN6@Partition_:

; 7485 : 
; 7486 :     for (;;) { // partition
; 7487 :         for (; _Gfirst < _Last; ++_Gfirst) {

  001b3	eb 09		 jmp	 SHORT $LN11@Partition_
$LN9@Partition_:
  001b5	8b 45 5c	 mov	 eax, DWORD PTR __Gfirst$[ebp]
  001b8	83 c0 04	 add	 eax, 4
  001bb	89 45 5c	 mov	 DWORD PTR __Gfirst$[ebp], eax
$LN11@Partition_:
  001be	8b 45 5c	 mov	 eax, DWORD PTR __Gfirst$[ebp]
  001c1	3b 45 78	 cmp	 eax, DWORD PTR __Last$[ebp]
  001c4	0f 83 dc 00 00
	00		 jae	 $LN10@Partition_
; File D:\Metin2 Server Files\mainline\SRC_2014\Metin2Client\EterLib\GrpLightManager.h

; 45   : 		float		GetDistance() const { return m_fDistance;	}

  001ca	8b 45 64	 mov	 eax, DWORD PTR __Pfirst$[ebp]
  001cd	8b 00		 mov	 eax, DWORD PTR [eax]
  001cf	f3 0f 10 40 78	 movss	 xmm0, DWORD PTR [eax+120]
  001d4	f3 0f 11 45 cc	 movss	 DWORD PTR $T37[ebp], xmm0
  001d9	8b 45 5c	 mov	 eax, DWORD PTR __Gfirst$[ebp]
  001dc	8b 00		 mov	 eax, DWORD PTR [eax]
  001de	f3 0f 10 40 78	 movss	 xmm0, DWORD PTR [eax+120]
  001e3	f3 0f 11 45 d0	 movss	 DWORD PTR $T38[ebp], xmm0
; File D:\Metin2 Server Files\mainline\SRC_2014\Metin2Client\EterLib\GrpLightManager.cpp

; 96   : 		return l->GetDistance() < r->GetDistance();

  001e8	f3 0f 10 45 d0	 movss	 xmm0, DWORD PTR $T38[ebp]
  001ed	0f 2f 45 cc	 comiss	 xmm0, DWORD PTR $T37[ebp]
  001f1	76 09		 jbe	 SHORT $LN76@Partition_
  001f3	c7 45 20 01 00
	00 00		 mov	 DWORD PTR tv234[ebp], 1
  001fa	eb 04		 jmp	 SHORT $LN77@Partition_
$LN76@Partition_:
  001fc	83 65 20 00	 and	 DWORD PTR tv234[ebp], 0
$LN77@Partition_:
; File C:\Program Files (x86)\Microsoft Visual Studio\2019\Community\VC\Tools\MSVC\14.28.29333\include\algorithm

; 7488 :             if (_DEBUG_LT_PRED(_Pred, *_Pfirst, *_Gfirst)) {

  00200	0f b6 45 20	 movzx	 eax, BYTE PTR tv234[ebp]
  00204	85 c0		 test	 eax, eax
  00206	74 07		 je	 SHORT $LN15@Partition_

; 7489 :                 continue;

  00208	eb ab		 jmp	 SHORT $LN9@Partition_

; 7490 :             } else if (_Pred(*_Gfirst, *_Pfirst)) {

  0020a	e9 92 00 00 00	 jmp	 $LN20@Partition_
$LN15@Partition_:
; File D:\Metin2 Server Files\mainline\SRC_2014\Metin2Client\EterLib\GrpLightManager.h

; 45   : 		float		GetDistance() const { return m_fDistance;	}

  0020f	8b 45 5c	 mov	 eax, DWORD PTR __Gfirst$[ebp]
  00212	8b 00		 mov	 eax, DWORD PTR [eax]
  00214	f3 0f 10 40 78	 movss	 xmm0, DWORD PTR [eax+120]
  00219	f3 0f 11 45 c4	 movss	 DWORD PTR $T35[ebp], xmm0
  0021e	8b 45 64	 mov	 eax, DWORD PTR __Pfirst$[ebp]
  00221	8b 00		 mov	 eax, DWORD PTR [eax]
  00223	f3 0f 10 40 78	 movss	 xmm0, DWORD PTR [eax+120]
  00228	f3 0f 11 45 c8	 movss	 DWORD PTR $T36[ebp], xmm0
; File D:\Metin2 Server Files\mainline\SRC_2014\Metin2Client\EterLib\GrpLightManager.cpp

; 96   : 		return l->GetDistance() < r->GetDistance();

  0022d	f3 0f 10 45 c8	 movss	 xmm0, DWORD PTR $T36[ebp]
  00232	0f 2f 45 c4	 comiss	 xmm0, DWORD PTR $T35[ebp]
  00236	76 09		 jbe	 SHORT $LN84@Partition_
  00238	c7 45 1c 01 00
	00 00		 mov	 DWORD PTR tv238[ebp], 1
  0023f	eb 04		 jmp	 SHORT $LN85@Partition_
$LN84@Partition_:
  00241	83 65 1c 00	 and	 DWORD PTR tv238[ebp], 0
$LN85@Partition_:
; File C:\Program Files (x86)\Microsoft Visual Studio\2019\Community\VC\Tools\MSVC\14.28.29333\include\algorithm

; 7490 :             } else if (_Pred(*_Gfirst, *_Pfirst)) {

  00245	0f b6 45 1c	 movzx	 eax, BYTE PTR tv238[ebp]
  00249	85 c0		 test	 eax, eax
  0024b	74 04		 je	 SHORT $LN17@Partition_

; 7491 :                 break;

  0024d	eb 57		 jmp	 SHORT $LN10@Partition_
  0024f	eb 50		 jmp	 SHORT $LN20@Partition_
$LN17@Partition_:

; 7492 :             } else if (_Plast != _Gfirst) {

  00251	8b 45 60	 mov	 eax, DWORD PTR __Plast$[ebp]
  00254	3b 45 5c	 cmp	 eax, DWORD PTR __Gfirst$[ebp]
  00257	74 3f		 je	 SHORT $LN19@Partition_

; 7493 :                 _STD iter_swap(_Plast, _Gfirst);

  00259	8b 45 60	 mov	 eax, DWORD PTR __Plast$[ebp]
  0025c	89 45 18	 mov	 DWORD PTR __Left$[ebp], eax
; File C:\Program Files (x86)\Microsoft Visual Studio\2019\Community\VC\Tools\MSVC\14.28.29333\include\type_traits

; 1455 :     return static_cast<remove_reference_t<_Ty>&&>(_Arg);

  0025f	8b 45 18	 mov	 eax, DWORD PTR __Left$[ebp]
  00262	89 45 c0	 mov	 DWORD PTR $T34[ebp], eax
; File C:\Program Files (x86)\Microsoft Visual Studio\2019\Community\VC\Tools\MSVC\14.28.29333\include\utility

; 104  :     _Ty _Tmp = _STD move(_Left);

  00265	8b 45 c0	 mov	 eax, DWORD PTR $T34[ebp]
  00268	8b 00		 mov	 eax, DWORD PTR [eax]
  0026a	89 45 b8	 mov	 DWORD PTR __Tmp$32[ebp], eax
; File C:\Program Files (x86)\Microsoft Visual Studio\2019\Community\VC\Tools\MSVC\14.28.29333\include\type_traits

; 1455 :     return static_cast<remove_reference_t<_Ty>&&>(_Arg);

  0026d	8b 45 5c	 mov	 eax, DWORD PTR __Gfirst$[ebp]
  00270	89 45 bc	 mov	 DWORD PTR $T33[ebp], eax
; File C:\Program Files (x86)\Microsoft Visual Studio\2019\Community\VC\Tools\MSVC\14.28.29333\include\utility

; 105  :     _Left    = _STD move(_Right);

  00273	8b 45 18	 mov	 eax, DWORD PTR __Left$[ebp]
  00276	8b 4d bc	 mov	 ecx, DWORD PTR $T33[ebp]
  00279	8b 09		 mov	 ecx, DWORD PTR [ecx]
  0027b	89 08		 mov	 DWORD PTR [eax], ecx
; File C:\Program Files (x86)\Microsoft Visual Studio\2019\Community\VC\Tools\MSVC\14.28.29333\include\type_traits

; 1455 :     return static_cast<remove_reference_t<_Ty>&&>(_Arg);

  0027d	8d 45 b8	 lea	 eax, DWORD PTR __Tmp$32[ebp]
  00280	89 45 b4	 mov	 DWORD PTR $T31[ebp], eax
; File C:\Program Files (x86)\Microsoft Visual Studio\2019\Community\VC\Tools\MSVC\14.28.29333\include\utility

; 106  :     _Right   = _STD move(_Tmp);

  00283	8b 45 5c	 mov	 eax, DWORD PTR __Gfirst$[ebp]
  00286	8b 4d b4	 mov	 ecx, DWORD PTR $T31[ebp]
  00289	8b 09		 mov	 ecx, DWORD PTR [ecx]
  0028b	89 08		 mov	 DWORD PTR [eax], ecx
; File C:\Program Files (x86)\Microsoft Visual Studio\2019\Community\VC\Tools\MSVC\14.28.29333\include\algorithm

; 7494 :                 ++_Plast;

  0028d	8b 45 60	 mov	 eax, DWORD PTR __Plast$[ebp]
  00290	83 c0 04	 add	 eax, 4
  00293	89 45 60	 mov	 DWORD PTR __Plast$[ebp], eax

; 7495 :             } else {

  00296	eb 09		 jmp	 SHORT $LN20@Partition_
$LN19@Partition_:

; 7496 :                 ++_Plast;

  00298	8b 45 60	 mov	 eax, DWORD PTR __Plast$[ebp]
  0029b	83 c0 04	 add	 eax, 4
  0029e	89 45 60	 mov	 DWORD PTR __Plast$[ebp], eax
$LN20@Partition_:

; 7497 :             }
; 7498 :         }

  002a1	e9 0f ff ff ff	 jmp	 $LN9@Partition_
$LN10@Partition_:

; 7499 : 
; 7500 :         for (; _First < _Glast; --_Glast) {

  002a6	eb 09		 jmp	 SHORT $LN14@Partition_
$LN12@Partition_:
  002a8	8b 45 58	 mov	 eax, DWORD PTR __Glast$[ebp]
  002ab	83 e8 04	 sub	 eax, 4
  002ae	89 45 58	 mov	 DWORD PTR __Glast$[ebp], eax
$LN14@Partition_:
  002b1	8b 45 74	 mov	 eax, DWORD PTR __First$[ebp]
  002b4	3b 45 58	 cmp	 eax, DWORD PTR __Glast$[ebp]
  002b7	0f 83 0d 01 00
	00		 jae	 $LN13@Partition_

; 7501 :             if (_DEBUG_LT_PRED(_Pred, *_Prev_iter(_Glast), *_Pfirst)) {

  002bd	8b 45 58	 mov	 eax, DWORD PTR __Glast$[ebp]
  002c0	89 45 40	 mov	 DWORD PTR __First$[ebp], eax
; File C:\Program Files (x86)\Microsoft Visual Studio\2019\Community\VC\Tools\MSVC\14.28.29333\include\xutility

; 1852 :     return --_First;

  002c3	8b 45 40	 mov	 eax, DWORD PTR __First$[ebp]
  002c6	83 e8 04	 sub	 eax, 4
  002c9	89 45 40	 mov	 DWORD PTR __First$[ebp], eax
; File D:\Metin2 Server Files\mainline\SRC_2014\Metin2Client\EterLib\GrpLightManager.h

; 45   : 		float		GetDistance() const { return m_fDistance;	}

  002cc	8b 45 40	 mov	 eax, DWORD PTR __First$[ebp]
  002cf	8b 00		 mov	 eax, DWORD PTR [eax]
  002d1	f3 0f 10 40 78	 movss	 xmm0, DWORD PTR [eax+120]
  002d6	f3 0f 11 45 ac	 movss	 DWORD PTR $T29[ebp], xmm0
  002db	8b 45 64	 mov	 eax, DWORD PTR __Pfirst$[ebp]
  002de	8b 00		 mov	 eax, DWORD PTR [eax]
  002e0	f3 0f 10 40 78	 movss	 xmm0, DWORD PTR [eax+120]
  002e5	f3 0f 11 45 b0	 movss	 DWORD PTR $T30[ebp], xmm0
; File D:\Metin2 Server Files\mainline\SRC_2014\Metin2Client\EterLib\GrpLightManager.cpp

; 96   : 		return l->GetDistance() < r->GetDistance();

  002ea	f3 0f 10 45 b0	 movss	 xmm0, DWORD PTR $T30[ebp]
  002ef	0f 2f 45 ac	 comiss	 xmm0, DWORD PTR $T29[ebp]
  002f3	76 09		 jbe	 SHORT $LN108@Partition_
  002f5	c7 45 14 01 00
	00 00		 mov	 DWORD PTR tv242[ebp], 1
  002fc	eb 04		 jmp	 SHORT $LN109@Partition_
$LN108@Partition_:
  002fe	83 65 14 00	 and	 DWORD PTR tv242[ebp], 0
$LN109@Partition_:
; File C:\Program Files (x86)\Microsoft Visual Studio\2019\Community\VC\Tools\MSVC\14.28.29333\include\algorithm

; 7501 :             if (_DEBUG_LT_PRED(_Pred, *_Prev_iter(_Glast), *_Pfirst)) {

  00302	0f b6 45 14	 movzx	 eax, BYTE PTR tv242[ebp]
  00306	85 c0		 test	 eax, eax
  00308	74 07		 je	 SHORT $LN21@Partition_

; 7502 :                 continue;

  0030a	eb 9c		 jmp	 SHORT $LN12@Partition_
  0030c	e9 b4 00 00 00	 jmp	 $LN128@Partition_
$LN21@Partition_:

; 7503 :             } else if (_Pred(*_Pfirst, *_Prev_iter(_Glast))) {

  00311	8b 45 58	 mov	 eax, DWORD PTR __Glast$[ebp]
  00314	89 45 3c	 mov	 DWORD PTR __First$[ebp], eax
; File C:\Program Files (x86)\Microsoft Visual Studio\2019\Community\VC\Tools\MSVC\14.28.29333\include\xutility

; 1852 :     return --_First;

  00317	8b 45 3c	 mov	 eax, DWORD PTR __First$[ebp]
  0031a	83 e8 04	 sub	 eax, 4
  0031d	89 45 3c	 mov	 DWORD PTR __First$[ebp], eax
; File D:\Metin2 Server Files\mainline\SRC_2014\Metin2Client\EterLib\GrpLightManager.h

; 45   : 		float		GetDistance() const { return m_fDistance;	}

  00320	8b 45 64	 mov	 eax, DWORD PTR __Pfirst$[ebp]
  00323	8b 00		 mov	 eax, DWORD PTR [eax]
  00325	f3 0f 10 40 78	 movss	 xmm0, DWORD PTR [eax+120]
  0032a	f3 0f 11 45 a4	 movss	 DWORD PTR $T27[ebp], xmm0
  0032f	8b 45 3c	 mov	 eax, DWORD PTR __First$[ebp]
  00332	8b 00		 mov	 eax, DWORD PTR [eax]
  00334	f3 0f 10 40 78	 movss	 xmm0, DWORD PTR [eax+120]
  00339	f3 0f 11 45 a8	 movss	 DWORD PTR $T28[ebp], xmm0
; File D:\Metin2 Server Files\mainline\SRC_2014\Metin2Client\EterLib\GrpLightManager.cpp

; 96   : 		return l->GetDistance() < r->GetDistance();

  0033e	f3 0f 10 45 a8	 movss	 xmm0, DWORD PTR $T28[ebp]
  00343	0f 2f 45 a4	 comiss	 xmm0, DWORD PTR $T27[ebp]
  00347	76 09		 jbe	 SHORT $LN118@Partition_
  00349	c7 45 10 01 00
	00 00		 mov	 DWORD PTR tv247[ebp], 1
  00350	eb 04		 jmp	 SHORT $LN119@Partition_
$LN118@Partition_:
  00352	83 65 10 00	 and	 DWORD PTR tv247[ebp], 0
$LN119@Partition_:
; File C:\Program Files (x86)\Microsoft Visual Studio\2019\Community\VC\Tools\MSVC\14.28.29333\include\algorithm

; 7503 :             } else if (_Pred(*_Pfirst, *_Prev_iter(_Glast))) {

  00356	0f b6 45 10	 movzx	 eax, BYTE PTR tv247[ebp]
  0035a	85 c0		 test	 eax, eax
  0035c	74 04		 je	 SHORT $LN23@Partition_

; 7504 :                 break;

  0035e	eb 6a		 jmp	 SHORT $LN13@Partition_
  00360	eb 63		 jmp	 SHORT $LN128@Partition_
$LN23@Partition_:

; 7505 :             } else if (--_Pfirst != _Prev_iter(_Glast)) {

  00362	8b 45 64	 mov	 eax, DWORD PTR __Pfirst$[ebp]
  00365	83 e8 04	 sub	 eax, 4
  00368	89 45 64	 mov	 DWORD PTR __Pfirst$[ebp], eax
  0036b	8b 45 58	 mov	 eax, DWORD PTR __Glast$[ebp]
  0036e	89 45 38	 mov	 DWORD PTR __First$[ebp], eax
; File C:\Program Files (x86)\Microsoft Visual Studio\2019\Community\VC\Tools\MSVC\14.28.29333\include\xutility

; 1852 :     return --_First;

  00371	8b 45 38	 mov	 eax, DWORD PTR __First$[ebp]
  00374	83 e8 04	 sub	 eax, 4
  00377	89 45 38	 mov	 DWORD PTR __First$[ebp], eax
; File C:\Program Files (x86)\Microsoft Visual Studio\2019\Community\VC\Tools\MSVC\14.28.29333\include\algorithm

; 7505 :             } else if (--_Pfirst != _Prev_iter(_Glast)) {

  0037a	8b 45 64	 mov	 eax, DWORD PTR __Pfirst$[ebp]
  0037d	3b 45 38	 cmp	 eax, DWORD PTR __First$[ebp]
  00380	74 43		 je	 SHORT $LN128@Partition_

; 7506 :                 _STD iter_swap(_Pfirst, _Prev_iter(_Glast));

  00382	8b 45 58	 mov	 eax, DWORD PTR __Glast$[ebp]
  00385	89 45 54	 mov	 DWORD PTR __First$[ebp], eax
; File C:\Program Files (x86)\Microsoft Visual Studio\2019\Community\VC\Tools\MSVC\14.28.29333\include\xutility

; 1852 :     return --_First;

  00388	8b 45 54	 mov	 eax, DWORD PTR __First$[ebp]
  0038b	83 e8 04	 sub	 eax, 4
  0038e	89 45 54	 mov	 DWORD PTR __First$[ebp], eax
; File C:\Program Files (x86)\Microsoft Visual Studio\2019\Community\VC\Tools\MSVC\14.28.29333\include\algorithm

; 7506 :                 _STD iter_swap(_Pfirst, _Prev_iter(_Glast));

  00391	8b 45 64	 mov	 eax, DWORD PTR __Pfirst$[ebp]
  00394	89 45 0c	 mov	 DWORD PTR __Left$[ebp], eax
; File C:\Program Files (x86)\Microsoft Visual Studio\2019\Community\VC\Tools\MSVC\14.28.29333\include\type_traits

; 1455 :     return static_cast<remove_reference_t<_Ty>&&>(_Arg);

  00397	8b 45 0c	 mov	 eax, DWORD PTR __Left$[ebp]
  0039a	89 45 a0	 mov	 DWORD PTR $T26[ebp], eax
; File C:\Program Files (x86)\Microsoft Visual Studio\2019\Community\VC\Tools\MSVC\14.28.29333\include\utility

; 104  :     _Ty _Tmp = _STD move(_Left);

  0039d	8b 45 a0	 mov	 eax, DWORD PTR $T26[ebp]
  003a0	8b 00		 mov	 eax, DWORD PTR [eax]
  003a2	89 45 98	 mov	 DWORD PTR __Tmp$24[ebp], eax
; File C:\Program Files (x86)\Microsoft Visual Studio\2019\Community\VC\Tools\MSVC\14.28.29333\include\type_traits

; 1455 :     return static_cast<remove_reference_t<_Ty>&&>(_Arg);

  003a5	8b 45 54	 mov	 eax, DWORD PTR __First$[ebp]
  003a8	89 45 9c	 mov	 DWORD PTR $T25[ebp], eax
; File C:\Program Files (x86)\Microsoft Visual Studio\2019\Community\VC\Tools\MSVC\14.28.29333\include\utility

; 105  :     _Left    = _STD move(_Right);

  003ab	8b 45 0c	 mov	 eax, DWORD PTR __Left$[ebp]
  003ae	8b 4d 9c	 mov	 ecx, DWORD PTR $T25[ebp]
  003b1	8b 09		 mov	 ecx, DWORD PTR [ecx]
  003b3	89 08		 mov	 DWORD PTR [eax], ecx
; File C:\Program Files (x86)\Microsoft Visual Studio\2019\Community\VC\Tools\MSVC\14.28.29333\include\type_traits

; 1455 :     return static_cast<remove_reference_t<_Ty>&&>(_Arg);

  003b5	8d 45 98	 lea	 eax, DWORD PTR __Tmp$24[ebp]
  003b8	89 45 94	 mov	 DWORD PTR $T23[ebp], eax
; File C:\Program Files (x86)\Microsoft Visual Studio\2019\Community\VC\Tools\MSVC\14.28.29333\include\utility

; 106  :     _Right   = _STD move(_Tmp);

  003bb	8b 45 54	 mov	 eax, DWORD PTR __First$[ebp]
  003be	8b 4d 94	 mov	 ecx, DWORD PTR $T23[ebp]
  003c1	8b 09		 mov	 ecx, DWORD PTR [ecx]
  003c3	89 08		 mov	 DWORD PTR [eax], ecx
$LN128@Partition_:
; File C:\Program Files (x86)\Microsoft Visual Studio\2019\Community\VC\Tools\MSVC\14.28.29333\include\algorithm

; 7508 :         }

  003c5	e9 de fe ff ff	 jmp	 $LN12@Partition_
$LN13@Partition_:

; 7509 : 
; 7510 :         if (_Glast == _First && _Gfirst == _Last) {

  003ca	8b 45 58	 mov	 eax, DWORD PTR __Glast$[ebp]
  003cd	3b 45 74	 cmp	 eax, DWORD PTR __First$[ebp]
  003d0	75 31		 jne	 SHORT $LN26@Partition_
  003d2	8b 45 5c	 mov	 eax, DWORD PTR __Gfirst$[ebp]
  003d5	3b 45 78	 cmp	 eax, DWORD PTR __Last$[ebp]
  003d8	75 29		 jne	 SHORT $LN26@Partition_
; File C:\Program Files (x86)\Microsoft Visual Studio\2019\Community\VC\Tools\MSVC\14.28.29333\include\type_traits

; 1443 :     return static_cast<_Ty&&>(_Arg);

  003da	8d 45 64	 lea	 eax, DWORD PTR __Pfirst$[ebp]
  003dd	89 45 90	 mov	 DWORD PTR $T22[ebp], eax
; File C:\Program Files (x86)\Microsoft Visual Studio\2019\Community\VC\Tools\MSVC\14.28.29333\include\utility

; 190  :         : first(_STD forward<_Other1>(_Val1)), second(_STD forward<_Other2>(_Val2)) {}

  003e0	8b 45 70	 mov	 eax, DWORD PTR ___$ReturnUdt$[ebp]
  003e3	8b 4d 90	 mov	 ecx, DWORD PTR $T22[ebp]
  003e6	8b 09		 mov	 ecx, DWORD PTR [ecx]
  003e8	89 08		 mov	 DWORD PTR [eax], ecx
; File C:\Program Files (x86)\Microsoft Visual Studio\2019\Community\VC\Tools\MSVC\14.28.29333\include\type_traits

; 1443 :     return static_cast<_Ty&&>(_Arg);

  003ea	8d 45 60	 lea	 eax, DWORD PTR __Plast$[ebp]
  003ed	89 45 8c	 mov	 DWORD PTR $T21[ebp], eax
; File C:\Program Files (x86)\Microsoft Visual Studio\2019\Community\VC\Tools\MSVC\14.28.29333\include\utility

; 190  :         : first(_STD forward<_Other1>(_Val1)), second(_STD forward<_Other2>(_Val2)) {}

  003f0	8b 45 70	 mov	 eax, DWORD PTR ___$ReturnUdt$[ebp]
  003f3	8b 4d 8c	 mov	 ecx, DWORD PTR $T21[ebp]
  003f6	8b 09		 mov	 ecx, DWORD PTR [ecx]
  003f8	89 48 04	 mov	 DWORD PTR [eax+4], ecx
; File C:\Program Files (x86)\Microsoft Visual Studio\2019\Community\VC\Tools\MSVC\14.28.29333\include\algorithm

; 7511 :             return pair<_RanIt, _RanIt>(_Pfirst, _Plast);

  003fb	8b 45 70	 mov	 eax, DWORD PTR ___$ReturnUdt$[ebp]
  003fe	e9 ec 01 00 00	 jmp	 $LN7@Partition_
$LN26@Partition_:

; 7512 :         }
; 7513 : 
; 7514 :         if (_Glast == _First) { // no room at bottom, rotate pivot upward

  00403	8b 45 58	 mov	 eax, DWORD PTR __Glast$[ebp]
  00406	3b 45 74	 cmp	 eax, DWORD PTR __First$[ebp]
  00409	0f 85 b4 00 00
	00		 jne	 $LN27@Partition_

; 7515 :             if (_Plast != _Gfirst) {

  0040f	8b 45 60	 mov	 eax, DWORD PTR __Plast$[ebp]
  00412	3b 45 5c	 cmp	 eax, DWORD PTR __Gfirst$[ebp]
  00415	74 40		 je	 SHORT $LN151@Partition_

; 7516 :                 _STD iter_swap(_Pfirst, _Plast);

  00417	8b 45 60	 mov	 eax, DWORD PTR __Plast$[ebp]
  0041a	89 45 04	 mov	 DWORD PTR __Right$[ebp], eax
  0041d	8b 45 64	 mov	 eax, DWORD PTR __Pfirst$[ebp]
  00420	89 45 08	 mov	 DWORD PTR __Left$[ebp], eax
; File C:\Program Files (x86)\Microsoft Visual Studio\2019\Community\VC\Tools\MSVC\14.28.29333\include\type_traits

; 1455 :     return static_cast<remove_reference_t<_Ty>&&>(_Arg);

  00423	8b 45 08	 mov	 eax, DWORD PTR __Left$[ebp]
  00426	89 45 88	 mov	 DWORD PTR $T20[ebp], eax
; File C:\Program Files (x86)\Microsoft Visual Studio\2019\Community\VC\Tools\MSVC\14.28.29333\include\utility

; 104  :     _Ty _Tmp = _STD move(_Left);

  00429	8b 45 88	 mov	 eax, DWORD PTR $T20[ebp]
  0042c	8b 00		 mov	 eax, DWORD PTR [eax]
  0042e	89 45 80	 mov	 DWORD PTR __Tmp$18[ebp], eax
; File C:\Program Files (x86)\Microsoft Visual Studio\2019\Community\VC\Tools\MSVC\14.28.29333\include\type_traits

; 1455 :     return static_cast<remove_reference_t<_Ty>&&>(_Arg);

  00431	8b 45 04	 mov	 eax, DWORD PTR __Right$[ebp]
  00434	89 45 84	 mov	 DWORD PTR $T19[ebp], eax
; File C:\Program Files (x86)\Microsoft Visual Studio\2019\Community\VC\Tools\MSVC\14.28.29333\include\utility

; 105  :     _Left    = _STD move(_Right);

  00437	8b 45 08	 mov	 eax, DWORD PTR __Left$[ebp]
  0043a	8b 4d 84	 mov	 ecx, DWORD PTR $T19[ebp]
  0043d	8b 09		 mov	 ecx, DWORD PTR [ecx]
  0043f	89 08		 mov	 DWORD PTR [eax], ecx
; File C:\Program Files (x86)\Microsoft Visual Studio\2019\Community\VC\Tools\MSVC\14.28.29333\include\type_traits

; 1455 :     return static_cast<remove_reference_t<_Ty>&&>(_Arg);

  00441	8d 45 80	 lea	 eax, DWORD PTR __Tmp$18[ebp]
  00444	89 85 7c ff ff
	ff		 mov	 DWORD PTR $T17[ebp], eax
; File C:\Program Files (x86)\Microsoft Visual Studio\2019\Community\VC\Tools\MSVC\14.28.29333\include\utility

; 106  :     _Right   = _STD move(_Tmp);

  0044a	8b 45 04	 mov	 eax, DWORD PTR __Right$[ebp]
  0044d	8b 8d 7c ff ff
	ff		 mov	 ecx, DWORD PTR $T17[ebp]
  00453	8b 09		 mov	 ecx, DWORD PTR [ecx]
  00455	89 08		 mov	 DWORD PTR [eax], ecx
$LN151@Partition_:
; File C:\Program Files (x86)\Microsoft Visual Studio\2019\Community\VC\Tools\MSVC\14.28.29333\include\algorithm

; 7519 :             ++_Plast;

  00457	8b 45 60	 mov	 eax, DWORD PTR __Plast$[ebp]
  0045a	83 c0 04	 add	 eax, 4
  0045d	89 45 60	 mov	 DWORD PTR __Plast$[ebp], eax

; 7520 :             _STD iter_swap(_Pfirst, _Gfirst);

  00460	8b 45 64	 mov	 eax, DWORD PTR __Pfirst$[ebp]
  00463	89 45 00	 mov	 DWORD PTR __Left$[ebp], eax
; File C:\Program Files (x86)\Microsoft Visual Studio\2019\Community\VC\Tools\MSVC\14.28.29333\include\type_traits

; 1455 :     return static_cast<remove_reference_t<_Ty>&&>(_Arg);

  00466	8b 45 00	 mov	 eax, DWORD PTR __Left$[ebp]
  00469	89 85 78 ff ff
	ff		 mov	 DWORD PTR $T16[ebp], eax
; File C:\Program Files (x86)\Microsoft Visual Studio\2019\Community\VC\Tools\MSVC\14.28.29333\include\utility

; 104  :     _Ty _Tmp = _STD move(_Left);

  0046f	8b 85 78 ff ff
	ff		 mov	 eax, DWORD PTR $T16[ebp]
  00475	8b 00		 mov	 eax, DWORD PTR [eax]
  00477	89 85 70 ff ff
	ff		 mov	 DWORD PTR __Tmp$14[ebp], eax
; File C:\Program Files (x86)\Microsoft Visual Studio\2019\Community\VC\Tools\MSVC\14.28.29333\include\type_traits

; 1455 :     return static_cast<remove_reference_t<_Ty>&&>(_Arg);

  0047d	8b 45 5c	 mov	 eax, DWORD PTR __Gfirst$[ebp]
  00480	89 85 74 ff ff
	ff		 mov	 DWORD PTR $T15[ebp], eax
; File C:\Program Files (x86)\Microsoft Visual Studio\2019\Community\VC\Tools\MSVC\14.28.29333\include\utility

; 105  :     _Left    = _STD move(_Right);

  00486	8b 45 00	 mov	 eax, DWORD PTR __Left$[ebp]
  00489	8b 8d 74 ff ff
	ff		 mov	 ecx, DWORD PTR $T15[ebp]
  0048f	8b 09		 mov	 ecx, DWORD PTR [ecx]
  00491	89 08		 mov	 DWORD PTR [eax], ecx
; File C:\Program Files (x86)\Microsoft Visual Studio\2019\Community\VC\Tools\MSVC\14.28.29333\include\type_traits

; 1455 :     return static_cast<remove_reference_t<_Ty>&&>(_Arg);

  00493	8d 85 70 ff ff
	ff		 lea	 eax, DWORD PTR __Tmp$14[ebp]
  00499	89 85 6c ff ff
	ff		 mov	 DWORD PTR $T13[ebp], eax
; File C:\Program Files (x86)\Microsoft Visual Studio\2019\Community\VC\Tools\MSVC\14.28.29333\include\utility

; 106  :     _Right   = _STD move(_Tmp);

  0049f	8b 45 5c	 mov	 eax, DWORD PTR __Gfirst$[ebp]
  004a2	8b 8d 6c ff ff
	ff		 mov	 ecx, DWORD PTR $T13[ebp]
  004a8	8b 09		 mov	 ecx, DWORD PTR [ecx]
  004aa	89 08		 mov	 DWORD PTR [eax], ecx
; File C:\Program Files (x86)\Microsoft Visual Studio\2019\Community\VC\Tools\MSVC\14.28.29333\include\algorithm

; 7521 :             ++_Pfirst;

  004ac	8b 45 64	 mov	 eax, DWORD PTR __Pfirst$[ebp]
  004af	83 c0 04	 add	 eax, 4
  004b2	89 45 64	 mov	 DWORD PTR __Pfirst$[ebp], eax

; 7522 :             ++_Gfirst;

  004b5	8b 45 5c	 mov	 eax, DWORD PTR __Gfirst$[ebp]
  004b8	83 c0 04	 add	 eax, 4
  004bb	89 45 5c	 mov	 DWORD PTR __Gfirst$[ebp], eax
  004be	e9 27 01 00 00	 jmp	 $LN31@Partition_
$LN27@Partition_:

; 7523 :         } else if (_Gfirst == _Last) { // no room at top, rotate pivot downward

  004c3	8b 45 5c	 mov	 eax, DWORD PTR __Gfirst$[ebp]
  004c6	3b 45 78	 cmp	 eax, DWORD PTR __Last$[ebp]
  004c9	0f 85 c3 00 00
	00		 jne	 $LN30@Partition_

; 7524 :             if (--_Glast != --_Pfirst) {

  004cf	8b 45 58	 mov	 eax, DWORD PTR __Glast$[ebp]
  004d2	83 e8 04	 sub	 eax, 4
  004d5	89 45 58	 mov	 DWORD PTR __Glast$[ebp], eax
  004d8	8b 45 64	 mov	 eax, DWORD PTR __Pfirst$[ebp]
  004db	83 e8 04	 sub	 eax, 4
  004de	89 45 64	 mov	 DWORD PTR __Pfirst$[ebp], eax
  004e1	8b 45 58	 mov	 eax, DWORD PTR __Glast$[ebp]
  004e4	3b 45 64	 cmp	 eax, DWORD PTR __Pfirst$[ebp]
  004e7	74 4c		 je	 SHORT $LN179@Partition_

; 7525 :                 _STD iter_swap(_Glast, _Pfirst);

  004e9	8b 45 64	 mov	 eax, DWORD PTR __Pfirst$[ebp]
  004ec	89 45 fc	 mov	 DWORD PTR __Right$[ebp], eax
; File C:\Program Files (x86)\Microsoft Visual Studio\2019\Community\VC\Tools\MSVC\14.28.29333\include\type_traits

; 1455 :     return static_cast<remove_reference_t<_Ty>&&>(_Arg);

  004ef	8b 45 58	 mov	 eax, DWORD PTR __Glast$[ebp]
  004f2	89 85 68 ff ff
	ff		 mov	 DWORD PTR $T12[ebp], eax
; File C:\Program Files (x86)\Microsoft Visual Studio\2019\Community\VC\Tools\MSVC\14.28.29333\include\utility

; 104  :     _Ty _Tmp = _STD move(_Left);

  004f8	8b 85 68 ff ff
	ff		 mov	 eax, DWORD PTR $T12[ebp]
  004fe	8b 00		 mov	 eax, DWORD PTR [eax]
  00500	89 85 60 ff ff
	ff		 mov	 DWORD PTR __Tmp$10[ebp], eax
; File C:\Program Files (x86)\Microsoft Visual Studio\2019\Community\VC\Tools\MSVC\14.28.29333\include\type_traits

; 1455 :     return static_cast<remove_reference_t<_Ty>&&>(_Arg);

  00506	8b 45 fc	 mov	 eax, DWORD PTR __Right$[ebp]
  00509	89 85 64 ff ff
	ff		 mov	 DWORD PTR $T11[ebp], eax
; File C:\Program Files (x86)\Microsoft Visual Studio\2019\Community\VC\Tools\MSVC\14.28.29333\include\utility

; 105  :     _Left    = _STD move(_Right);

  0050f	8b 45 58	 mov	 eax, DWORD PTR __Glast$[ebp]
  00512	8b 8d 64 ff ff
	ff		 mov	 ecx, DWORD PTR $T11[ebp]
  00518	8b 09		 mov	 ecx, DWORD PTR [ecx]
  0051a	89 08		 mov	 DWORD PTR [eax], ecx
; File C:\Program Files (x86)\Microsoft Visual Studio\2019\Community\VC\Tools\MSVC\14.28.29333\include\type_traits

; 1455 :     return static_cast<remove_reference_t<_Ty>&&>(_Arg);

  0051c	8d 85 60 ff ff
	ff		 lea	 eax, DWORD PTR __Tmp$10[ebp]
  00522	89 85 5c ff ff
	ff		 mov	 DWORD PTR $T9[ebp], eax
; File C:\Program Files (x86)\Microsoft Visual Studio\2019\Community\VC\Tools\MSVC\14.28.29333\include\utility

; 106  :     _Right   = _STD move(_Tmp);

  00528	8b 45 fc	 mov	 eax, DWORD PTR __Right$[ebp]
  0052b	8b 8d 5c ff ff
	ff		 mov	 ecx, DWORD PTR $T9[ebp]
  00531	8b 09		 mov	 ecx, DWORD PTR [ecx]
  00533	89 08		 mov	 DWORD PTR [eax], ecx
$LN179@Partition_:
; File C:\Program Files (x86)\Microsoft Visual Studio\2019\Community\VC\Tools\MSVC\14.28.29333\include\algorithm

; 7528 :             _STD iter_swap(_Pfirst, --_Plast);

  00535	8b 45 60	 mov	 eax, DWORD PTR __Plast$[ebp]
  00538	83 e8 04	 sub	 eax, 4
  0053b	89 45 60	 mov	 DWORD PTR __Plast$[ebp], eax
  0053e	8b 45 60	 mov	 eax, DWORD PTR __Plast$[ebp]
  00541	89 45 f4	 mov	 DWORD PTR __Right$[ebp], eax
  00544	8b 45 64	 mov	 eax, DWORD PTR __Pfirst$[ebp]
  00547	89 45 f8	 mov	 DWORD PTR __Left$[ebp], eax
; File C:\Program Files (x86)\Microsoft Visual Studio\2019\Community\VC\Tools\MSVC\14.28.29333\include\type_traits

; 1455 :     return static_cast<remove_reference_t<_Ty>&&>(_Arg);

  0054a	8b 45 f8	 mov	 eax, DWORD PTR __Left$[ebp]
  0054d	89 85 58 ff ff
	ff		 mov	 DWORD PTR $T8[ebp], eax
; File C:\Program Files (x86)\Microsoft Visual Studio\2019\Community\VC\Tools\MSVC\14.28.29333\include\utility

; 104  :     _Ty _Tmp = _STD move(_Left);

  00553	8b 85 58 ff ff
	ff		 mov	 eax, DWORD PTR $T8[ebp]
  00559	8b 00		 mov	 eax, DWORD PTR [eax]
  0055b	89 85 50 ff ff
	ff		 mov	 DWORD PTR __Tmp$6[ebp], eax
; File C:\Program Files (x86)\Microsoft Visual Studio\2019\Community\VC\Tools\MSVC\14.28.29333\include\type_traits

; 1455 :     return static_cast<remove_reference_t<_Ty>&&>(_Arg);

  00561	8b 45 f4	 mov	 eax, DWORD PTR __Right$[ebp]
  00564	89 85 54 ff ff
	ff		 mov	 DWORD PTR $T7[ebp], eax
; File C:\Program Files (x86)\Microsoft Visual Studio\2019\Community\VC\Tools\MSVC\14.28.29333\include\utility

; 105  :     _Left    = _STD move(_Right);

  0056a	8b 45 f8	 mov	 eax, DWORD PTR __Left$[ebp]
  0056d	8b 8d 54 ff ff
	ff		 mov	 ecx, DWORD PTR $T7[ebp]
  00573	8b 09		 mov	 ecx, DWORD PTR [ecx]
  00575	89 08		 mov	 DWORD PTR [eax], ecx
; File C:\Program Files (x86)\Microsoft Visual Studio\2019\Community\VC\Tools\MSVC\14.28.29333\include\type_traits

; 1455 :     return static_cast<remove_reference_t<_Ty>&&>(_Arg);

  00577	8d 85 50 ff ff
	ff		 lea	 eax, DWORD PTR __Tmp$6[ebp]
  0057d	89 85 4c ff ff
	ff		 mov	 DWORD PTR $T5[ebp], eax
; File C:\Program Files (x86)\Microsoft Visual Studio\2019\Community\VC\Tools\MSVC\14.28.29333\include\utility

; 106  :     _Right   = _STD move(_Tmp);

  00583	8b 45 f4	 mov	 eax, DWORD PTR __Right$[ebp]
  00586	8b 8d 4c ff ff
	ff		 mov	 ecx, DWORD PTR $T5[ebp]
  0058c	8b 09		 mov	 ecx, DWORD PTR [ecx]
  0058e	89 08		 mov	 DWORD PTR [eax], ecx
; File C:\Program Files (x86)\Microsoft Visual Studio\2019\Community\VC\Tools\MSVC\14.28.29333\include\algorithm

; 7529 :         } else {

  00590	eb 58		 jmp	 SHORT $LN31@Partition_
$LN30@Partition_:

; 7530 :             _STD iter_swap(_Gfirst, --_Glast);

  00592	8b 45 58	 mov	 eax, DWORD PTR __Glast$[ebp]
  00595	83 e8 04	 sub	 eax, 4
  00598	89 45 58	 mov	 DWORD PTR __Glast$[ebp], eax
; File C:\Program Files (x86)\Microsoft Visual Studio\2019\Community\VC\Tools\MSVC\14.28.29333\include\type_traits

; 1455 :     return static_cast<remove_reference_t<_Ty>&&>(_Arg);

  0059b	8b 45 5c	 mov	 eax, DWORD PTR __Gfirst$[ebp]
  0059e	89 85 48 ff ff
	ff		 mov	 DWORD PTR $T4[ebp], eax
; File C:\Program Files (x86)\Microsoft Visual Studio\2019\Community\VC\Tools\MSVC\14.28.29333\include\utility

; 104  :     _Ty _Tmp = _STD move(_Left);

  005a4	8b 85 48 ff ff
	ff		 mov	 eax, DWORD PTR $T4[ebp]
  005aa	8b 00		 mov	 eax, DWORD PTR [eax]
  005ac	89 85 40 ff ff
	ff		 mov	 DWORD PTR __Tmp$2[ebp], eax
; File C:\Program Files (x86)\Microsoft Visual Studio\2019\Community\VC\Tools\MSVC\14.28.29333\include\type_traits

; 1455 :     return static_cast<remove_reference_t<_Ty>&&>(_Arg);

  005b2	8b 45 58	 mov	 eax, DWORD PTR __Glast$[ebp]
  005b5	89 85 44 ff ff
	ff		 mov	 DWORD PTR $T3[ebp], eax
; File C:\Program Files (x86)\Microsoft Visual Studio\2019\Community\VC\Tools\MSVC\14.28.29333\include\utility

; 105  :     _Left    = _STD move(_Right);

  005bb	8b 45 5c	 mov	 eax, DWORD PTR __Gfirst$[ebp]
  005be	8b 8d 44 ff ff
	ff		 mov	 ecx, DWORD PTR $T3[ebp]
  005c4	8b 09		 mov	 ecx, DWORD PTR [ecx]
  005c6	89 08		 mov	 DWORD PTR [eax], ecx
; File C:\Program Files (x86)\Microsoft Visual Studio\2019\Community\VC\Tools\MSVC\14.28.29333\include\type_traits

; 1455 :     return static_cast<remove_reference_t<_Ty>&&>(_Arg);

  005c8	8d 85 40 ff ff
	ff		 lea	 eax, DWORD PTR __Tmp$2[ebp]
  005ce	89 85 3c ff ff
	ff		 mov	 DWORD PTR $T1[ebp], eax
; File C:\Program Files (x86)\Microsoft Visual Studio\2019\Community\VC\Tools\MSVC\14.28.29333\include\utility

; 106  :     _Right   = _STD move(_Tmp);

  005d4	8b 45 58	 mov	 eax, DWORD PTR __Glast$[ebp]
  005d7	8b 8d 3c ff ff
	ff		 mov	 ecx, DWORD PTR $T1[ebp]
  005dd	8b 09		 mov	 ecx, DWORD PTR [ecx]
  005df	89 08		 mov	 DWORD PTR [eax], ecx
; File C:\Program Files (x86)\Microsoft Visual Studio\2019\Community\VC\Tools\MSVC\14.28.29333\include\algorithm

; 7531 :             ++_Gfirst;

  005e1	8b 45 5c	 mov	 eax, DWORD PTR __Gfirst$[ebp]
  005e4	83 c0 04	 add	 eax, 4
  005e7	89 45 5c	 mov	 DWORD PTR __Gfirst$[ebp], eax
$LN31@Partition_:

; 7532 :         }
; 7533 :     }

  005ea	e9 c4 fb ff ff	 jmp	 $LN6@Partition_
$LN7@Partition_:

; 7534 : }

  005ef	83 c5 68	 add	 ebp, 104		; 00000068H
  005f2	c9		 leave
  005f3	c3		 ret	 0
??$_Partition_by_median_guess_unchecked@PAPAVCLight@@ULightComp@@@std@@YA?AU?$pair@PAPAVCLight@@PAPAV1@@0@PAPAVCLight@@0ULightComp@@@Z ENDP ; std::_Partition_by_median_guess_unchecked<CLight * *,LightComp>
_TEXT	ENDS
; Function compile flags: /Odspy
; File C:\Program Files (x86)\Microsoft Visual Studio\2019\Community\VC\Tools\MSVC\14.28.29333\include\algorithm
; File C:\Program Files (x86)\Microsoft Visual Studio\2019\Community\VC\Tools\MSVC\14.28.29333\include\type_traits
; File C:\Program Files (x86)\Microsoft Visual Studio\2019\Community\VC\Tools\MSVC\14.28.29333\include\algorithm
; File C:\Program Files (x86)\Microsoft Visual Studio\2019\Community\VC\Tools\MSVC\14.28.29333\include\type_traits
; File C:\Program Files (x86)\Microsoft Visual Studio\2019\Community\VC\Tools\MSVC\14.28.29333\include\algorithm
;	COMDAT ??$_Make_heap_unchecked@PAPAVCLight@@ULightComp@@@std@@YAXPAPAVCLight@@0ULightComp@@@Z
_TEXT	SEGMENT
$T1 = -20						; size = 4
__Val$2 = -16						; size = 4
$T3 = -12						; size = 4
__Bottom$ = -8						; size = 4
__Hole$4 = -4						; size = 4
__First$ = 8						; size = 4
__Last$ = 12						; size = 4
__Pred$ = 16						; size = 1
??$_Make_heap_unchecked@PAPAVCLight@@ULightComp@@@std@@YAXPAPAVCLight@@0ULightComp@@@Z PROC ; std::_Make_heap_unchecked<CLight * *,LightComp>, COMDAT

; 6357 : _CONSTEXPR20 void _Make_heap_unchecked(_RanIt _First, _RanIt _Last, _Pr _Pred) {

  00000	55		 push	 ebp
  00001	8b ec		 mov	 ebp, esp
  00003	83 ec 14	 sub	 esp, 20			; 00000014H

; 6358 :     // make [_First, _Last) into a heap
; 6359 :     using _Diff   = _Iter_diff_t<_RanIt>;
; 6360 :     _Diff _Bottom = _Last - _First;

  00006	8b 45 0c	 mov	 eax, DWORD PTR __Last$[ebp]
  00009	2b 45 08	 sub	 eax, DWORD PTR __First$[ebp]
  0000c	c1 f8 02	 sar	 eax, 2
  0000f	89 45 f8	 mov	 DWORD PTR __Bottom$[ebp], eax

; 6361 :     for (_Diff _Hole = _Bottom >> 1; _Hole > 0;) { // shift for codegen

  00012	8b 45 f8	 mov	 eax, DWORD PTR __Bottom$[ebp]
  00015	d1 f8		 sar	 eax, 1
  00017	89 45 fc	 mov	 DWORD PTR __Hole$4[ebp], eax
$LN4@Make_heap_:
  0001a	83 7d fc 00	 cmp	 DWORD PTR __Hole$4[ebp], 0
  0001e	7e 3a		 jle	 SHORT $LN1@Make_heap_

; 6362 :         // reheap top half, bottom to top
; 6363 :         --_Hole;

  00020	8b 45 fc	 mov	 eax, DWORD PTR __Hole$4[ebp]
  00023	48		 dec	 eax
  00024	89 45 fc	 mov	 DWORD PTR __Hole$4[ebp], eax

; 6364 :         _Iter_value_t<_RanIt> _Val = _STD move(*(_First + _Hole));

  00027	8b 45 fc	 mov	 eax, DWORD PTR __Hole$4[ebp]
  0002a	8b 4d 08	 mov	 ecx, DWORD PTR __First$[ebp]
  0002d	8d 04 81	 lea	 eax, DWORD PTR [ecx+eax*4]
; File C:\Program Files (x86)\Microsoft Visual Studio\2019\Community\VC\Tools\MSVC\14.28.29333\include\type_traits

; 1455 :     return static_cast<remove_reference_t<_Ty>&&>(_Arg);

  00030	89 45 f4	 mov	 DWORD PTR $T3[ebp], eax
; File C:\Program Files (x86)\Microsoft Visual Studio\2019\Community\VC\Tools\MSVC\14.28.29333\include\algorithm

; 6364 :         _Iter_value_t<_RanIt> _Val = _STD move(*(_First + _Hole));

  00033	8b 45 f4	 mov	 eax, DWORD PTR $T3[ebp]
  00036	8b 00		 mov	 eax, DWORD PTR [eax]
  00038	89 45 f0	 mov	 DWORD PTR __Val$2[ebp], eax
; File C:\Program Files (x86)\Microsoft Visual Studio\2019\Community\VC\Tools\MSVC\14.28.29333\include\type_traits

; 1455 :     return static_cast<remove_reference_t<_Ty>&&>(_Arg);

  0003b	8d 45 f0	 lea	 eax, DWORD PTR __Val$2[ebp]
  0003e	89 45 ec	 mov	 DWORD PTR $T1[ebp], eax
; File C:\Program Files (x86)\Microsoft Visual Studio\2019\Community\VC\Tools\MSVC\14.28.29333\include\algorithm

; 6365 :         _Pop_heap_hole_by_index(_First, _Hole, _Bottom, _STD move(_Val), _Pred);

  00041	ff 75 10	 push	 DWORD PTR __Pred$[ebp]
  00044	ff 75 ec	 push	 DWORD PTR $T1[ebp]
  00047	ff 75 f8	 push	 DWORD PTR __Bottom$[ebp]
  0004a	ff 75 fc	 push	 DWORD PTR __Hole$4[ebp]
  0004d	ff 75 08	 push	 DWORD PTR __First$[ebp]
  00050	e8 00 00 00 00	 call	 ??$_Pop_heap_hole_by_index@PAPAVCLight@@PAV1@ULightComp@@@std@@YAXPAPAVCLight@@HH$$QAPAV1@ULightComp@@@Z ; std::_Pop_heap_hole_by_index<CLight * *,CLight *,LightComp>
  00055	83 c4 14	 add	 esp, 20			; 00000014H

; 6366 :     }

  00058	eb c0		 jmp	 SHORT $LN4@Make_heap_
$LN1@Make_heap_:

; 6367 : }

  0005a	c9		 leave
  0005b	c3		 ret	 0
??$_Make_heap_unchecked@PAPAVCLight@@ULightComp@@@std@@YAXPAPAVCLight@@0ULightComp@@@Z ENDP ; std::_Make_heap_unchecked<CLight * *,LightComp>
_TEXT	ENDS
; Function compile flags: /Odspy
; File C:\Program Files (x86)\Microsoft Visual Studio\2019\Community\VC\Tools\MSVC\14.28.29333\include\algorithm
; File C:\Program Files (x86)\Microsoft Visual Studio\2019\Community\VC\Tools\MSVC\14.28.29333\include\type_traits
; File C:\Program Files (x86)\Microsoft Visual Studio\2019\Community\VC\Tools\MSVC\14.28.29333\include\algorithm
; File D:\Metin2 Server Files\mainline\SRC_2014\Metin2Client\EterLib\GrpLightManager.h
; File D:\Metin2 Server Files\mainline\SRC_2014\Metin2Client\EterLib\GrpLightManager.cpp
; File C:\Program Files (x86)\Microsoft Visual Studio\2019\Community\VC\Tools\MSVC\14.28.29333\include\algorithm
; File C:\Program Files (x86)\Microsoft Visual Studio\2019\Community\VC\Tools\MSVC\14.28.29333\include\xutility
; File C:\Program Files (x86)\Microsoft Visual Studio\2019\Community\VC\Tools\MSVC\14.28.29333\include\type_traits
; File C:\Program Files (x86)\Microsoft Visual Studio\2019\Community\VC\Tools\MSVC\14.28.29333\include\xutility
; File C:\Program Files (x86)\Microsoft Visual Studio\2019\Community\VC\Tools\MSVC\14.28.29333\include\type_traits
; File C:\Program Files (x86)\Microsoft Visual Studio\2019\Community\VC\Tools\MSVC\14.28.29333\include\algorithm
; File D:\Metin2 Server Files\mainline\SRC_2014\Metin2Client\EterLib\GrpLightManager.h
; File D:\Metin2 Server Files\mainline\SRC_2014\Metin2Client\EterLib\GrpLightManager.cpp
; File C:\Program Files (x86)\Microsoft Visual Studio\2019\Community\VC\Tools\MSVC\14.28.29333\include\algorithm
; File C:\Program Files (x86)\Microsoft Visual Studio\2019\Community\VC\Tools\MSVC\14.28.29333\include\type_traits
; File C:\Program Files (x86)\Microsoft Visual Studio\2019\Community\VC\Tools\MSVC\14.28.29333\include\algorithm
; File C:\Program Files (x86)\Microsoft Visual Studio\2019\Community\VC\Tools\MSVC\14.28.29333\include\type_traits
; File C:\Program Files (x86)\Microsoft Visual Studio\2019\Community\VC\Tools\MSVC\14.28.29333\include\algorithm
;	COMDAT ??$_Insertion_sort_unchecked@PAPAVCLight@@ULightComp@@@std@@YAPAPAVCLight@@QAPAV1@0ULightComp@@@Z
_TEXT	SEGMENT
$T1 = -68						; size = 4
$T2 = -64						; size = 4
$T3 = -60						; size = 4
$T4 = -56						; size = 4
$T5 = -52						; size = 4
$T6 = -48						; size = 4
$T7 = -44						; size = 4
$T8 = -40						; size = 4
$T9 = -36						; size = 4
tv135 = -32						; size = 4
tv128 = -28						; size = 4
__Val$10 = -24						; size = 4
__Dest$ = -20						; size = 4
__Prev$11 = -16						; size = 4
__Last$ = -12						; size = 4
__Mid$12 = -8						; size = 4
__Hole$13 = -4						; size = 4
__First$ = 8						; size = 4
__Last$ = 12						; size = 4
__Pred$ = 16						; size = 1
??$_Insertion_sort_unchecked@PAPAVCLight@@ULightComp@@@std@@YAPAPAVCLight@@QAPAV1@0ULightComp@@@Z PROC ; std::_Insertion_sort_unchecked<CLight * *,LightComp>, COMDAT

; 7410 : _CONSTEXPR20 _BidIt _Insertion_sort_unchecked(const _BidIt _First, const _BidIt _Last, _Pr _Pred) {

  00000	55		 push	 ebp
  00001	8b ec		 mov	 ebp, esp
  00003	83 ec 44	 sub	 esp, 68			; 00000044H

; 7411 :     // insertion sort [_First, _Last)
; 7412 :     if (_First != _Last) {

  00006	8b 45 08	 mov	 eax, DWORD PTR __First$[ebp]
  00009	3b 45 0c	 cmp	 eax, DWORD PTR __Last$[ebp]
  0000c	0f 84 4b 01 00
	00		 je	 $LN3@Insertion_

; 7413 :         for (_BidIt _Mid = _First; ++_Mid != _Last;) { // order next element

  00012	8b 45 08	 mov	 eax, DWORD PTR __First$[ebp]
  00015	89 45 f8	 mov	 DWORD PTR __Mid$12[ebp], eax
$LN2@Insertion_:
  00018	8b 45 f8	 mov	 eax, DWORD PTR __Mid$12[ebp]
  0001b	83 c0 04	 add	 eax, 4
  0001e	89 45 f8	 mov	 DWORD PTR __Mid$12[ebp], eax
  00021	8b 45 f8	 mov	 eax, DWORD PTR __Mid$12[ebp]
  00024	3b 45 0c	 cmp	 eax, DWORD PTR __Last$[ebp]
  00027	0f 84 30 01 00
	00		 je	 $LN3@Insertion_

; 7414 :             _BidIt _Hole               = _Mid;

  0002d	8b 45 f8	 mov	 eax, DWORD PTR __Mid$12[ebp]
  00030	89 45 fc	 mov	 DWORD PTR __Hole$13[ebp], eax
; File C:\Program Files (x86)\Microsoft Visual Studio\2019\Community\VC\Tools\MSVC\14.28.29333\include\type_traits

; 1455 :     return static_cast<remove_reference_t<_Ty>&&>(_Arg);

  00033	8b 45 f8	 mov	 eax, DWORD PTR __Mid$12[ebp]
  00036	89 45 dc	 mov	 DWORD PTR $T9[ebp], eax
; File C:\Program Files (x86)\Microsoft Visual Studio\2019\Community\VC\Tools\MSVC\14.28.29333\include\algorithm

; 7415 :             _Iter_value_t<_BidIt> _Val = _STD move(*_Mid);

  00039	8b 45 dc	 mov	 eax, DWORD PTR $T9[ebp]
  0003c	8b 00		 mov	 eax, DWORD PTR [eax]
  0003e	89 45 e8	 mov	 DWORD PTR __Val$10[ebp], eax
; File D:\Metin2 Server Files\mainline\SRC_2014\Metin2Client\EterLib\GrpLightManager.h

; 45   : 		float		GetDistance() const { return m_fDistance;	}

  00041	8b 45 e8	 mov	 eax, DWORD PTR __Val$10[ebp]
  00044	f3 0f 10 40 78	 movss	 xmm0, DWORD PTR [eax+120]
  00049	f3 0f 11 45 d4	 movss	 DWORD PTR $T7[ebp], xmm0
  0004e	8b 45 08	 mov	 eax, DWORD PTR __First$[ebp]
  00051	8b 00		 mov	 eax, DWORD PTR [eax]
  00053	f3 0f 10 40 78	 movss	 xmm0, DWORD PTR [eax+120]
  00058	f3 0f 11 45 d8	 movss	 DWORD PTR $T8[ebp], xmm0
; File D:\Metin2 Server Files\mainline\SRC_2014\Metin2Client\EterLib\GrpLightManager.cpp

; 96   : 		return l->GetDistance() < r->GetDistance();

  0005d	f3 0f 10 45 d8	 movss	 xmm0, DWORD PTR $T8[ebp]
  00062	0f 2f 45 d4	 comiss	 xmm0, DWORD PTR $T7[ebp]
  00066	76 09		 jbe	 SHORT $LN17@Insertion_
  00068	c7 45 e4 01 00
	00 00		 mov	 DWORD PTR tv128[ebp], 1
  0006f	eb 04		 jmp	 SHORT $LN18@Insertion_
$LN17@Insertion_:
  00071	83 65 e4 00	 and	 DWORD PTR tv128[ebp], 0
$LN18@Insertion_:
; File C:\Program Files (x86)\Microsoft Visual Studio\2019\Community\VC\Tools\MSVC\14.28.29333\include\algorithm

; 7417 :             if (_DEBUG_LT_PRED(_Pred, _Val, *_First)) { // found new earliest element, move to front

  00075	0f b6 45 e4	 movzx	 eax, BYTE PTR tv128[ebp]
  00079	85 c0		 test	 eax, eax
  0007b	74 66		 je	 SHORT $LN9@Insertion_

; 7418 :                 _Move_backward_unchecked(_First, _Mid, ++_Hole);

  0007d	8b 45 fc	 mov	 eax, DWORD PTR __Hole$13[ebp]
  00080	83 c0 04	 add	 eax, 4
  00083	89 45 fc	 mov	 DWORD PTR __Hole$13[ebp], eax
  00086	8b 45 fc	 mov	 eax, DWORD PTR __Hole$13[ebp]
  00089	89 45 ec	 mov	 DWORD PTR __Dest$[ebp], eax
  0008c	8b 45 f8	 mov	 eax, DWORD PTR __Mid$12[ebp]
  0008f	89 45 f4	 mov	 DWORD PTR __Last$[ebp], eax
; File C:\Program Files (x86)\Microsoft Visual Studio\2019\Community\VC\Tools\MSVC\14.28.29333\include\xutility

; 4696 :             return _Copy_backward_memmove(_First, _Last, _Dest);

  00092	ff 75 ec	 push	 DWORD PTR __Dest$[ebp]
  00095	ff 75 f4	 push	 DWORD PTR __Last$[ebp]
  00098	ff 75 08	 push	 DWORD PTR __First$[ebp]
  0009b	e8 00 00 00 00	 call	 ??$_Copy_backward_memmove@PAPAVCLight@@PAPAV1@@std@@YAPAPAVCLight@@PAPAV1@00@Z ; std::_Copy_backward_memmove<CLight * *,CLight * *>
  000a0	83 c4 0c	 add	 esp, 12			; 0000000cH
  000a3	eb 2c		 jmp	 SHORT $LN23@Insertion_
$LN24@Insertion_:

; 4697 :         }
; 4698 :     }
; 4699 : 
; 4700 :     while (_First != _Last) {

  000a5	8b 45 08	 mov	 eax, DWORD PTR __First$[ebp]
  000a8	3b 45 f4	 cmp	 eax, DWORD PTR __Last$[ebp]
  000ab	74 24		 je	 SHORT $LN25@Insertion_

; 4701 :         *--_Dest = _STD move(*--_Last);

  000ad	8b 45 f4	 mov	 eax, DWORD PTR __Last$[ebp]
  000b0	83 e8 04	 sub	 eax, 4
  000b3	89 45 f4	 mov	 DWORD PTR __Last$[ebp], eax
  000b6	8b 45 ec	 mov	 eax, DWORD PTR __Dest$[ebp]
  000b9	83 e8 04	 sub	 eax, 4
  000bc	89 45 ec	 mov	 DWORD PTR __Dest$[ebp], eax
; File C:\Program Files (x86)\Microsoft Visual Studio\2019\Community\VC\Tools\MSVC\14.28.29333\include\type_traits

; 1455 :     return static_cast<remove_reference_t<_Ty>&&>(_Arg);

  000bf	8b 45 f4	 mov	 eax, DWORD PTR __Last$[ebp]
  000c2	89 45 d0	 mov	 DWORD PTR $T6[ebp], eax
; File C:\Program Files (x86)\Microsoft Visual Studio\2019\Community\VC\Tools\MSVC\14.28.29333\include\xutility

; 4701 :         *--_Dest = _STD move(*--_Last);

  000c5	8b 45 ec	 mov	 eax, DWORD PTR __Dest$[ebp]
  000c8	8b 4d d0	 mov	 ecx, DWORD PTR $T6[ebp]
  000cb	8b 09		 mov	 ecx, DWORD PTR [ecx]
  000cd	89 08		 mov	 DWORD PTR [eax], ecx

; 4702 :     }

  000cf	eb d4		 jmp	 SHORT $LN24@Insertion_
$LN25@Insertion_:
$LN23@Insertion_:
; File C:\Program Files (x86)\Microsoft Visual Studio\2019\Community\VC\Tools\MSVC\14.28.29333\include\type_traits

; 1455 :     return static_cast<remove_reference_t<_Ty>&&>(_Arg);

  000d1	8d 45 e8	 lea	 eax, DWORD PTR __Val$10[ebp]
  000d4	89 45 cc	 mov	 DWORD PTR $T5[ebp], eax
; File C:\Program Files (x86)\Microsoft Visual Studio\2019\Community\VC\Tools\MSVC\14.28.29333\include\algorithm

; 7419 :                 *_First = _STD move(_Val);

  000d7	8b 45 08	 mov	 eax, DWORD PTR __First$[ebp]
  000da	8b 4d cc	 mov	 ecx, DWORD PTR $T5[ebp]
  000dd	8b 09		 mov	 ecx, DWORD PTR [ecx]
  000df	89 08		 mov	 DWORD PTR [eax], ecx

; 7420 :             } else { // look for insertion point after first

  000e1	eb 75		 jmp	 SHORT $LN10@Insertion_
$LN9@Insertion_:

; 7421 :                 for (_BidIt _Prev = _Hole; _DEBUG_LT_PRED(_Pred, _Val, *--_Prev); _Hole = _Prev) {

  000e3	8b 45 fc	 mov	 eax, DWORD PTR __Hole$13[ebp]
  000e6	89 45 f0	 mov	 DWORD PTR __Prev$11[ebp], eax
  000e9	eb 06		 jmp	 SHORT $LN7@Insertion_
$LN5@Insertion_:
  000eb	8b 45 f0	 mov	 eax, DWORD PTR __Prev$11[ebp]
  000ee	89 45 fc	 mov	 DWORD PTR __Hole$13[ebp], eax
$LN7@Insertion_:
  000f1	8b 45 f0	 mov	 eax, DWORD PTR __Prev$11[ebp]
  000f4	83 e8 04	 sub	 eax, 4
  000f7	89 45 f0	 mov	 DWORD PTR __Prev$11[ebp], eax
; File D:\Metin2 Server Files\mainline\SRC_2014\Metin2Client\EterLib\GrpLightManager.h

; 45   : 		float		GetDistance() const { return m_fDistance;	}

  000fa	8b 45 e8	 mov	 eax, DWORD PTR __Val$10[ebp]
  000fd	f3 0f 10 40 78	 movss	 xmm0, DWORD PTR [eax+120]
  00102	f3 0f 11 45 c4	 movss	 DWORD PTR $T3[ebp], xmm0
  00107	8b 45 f0	 mov	 eax, DWORD PTR __Prev$11[ebp]
  0010a	8b 00		 mov	 eax, DWORD PTR [eax]
  0010c	f3 0f 10 40 78	 movss	 xmm0, DWORD PTR [eax+120]
  00111	f3 0f 11 45 c8	 movss	 DWORD PTR $T4[ebp], xmm0
; File D:\Metin2 Server Files\mainline\SRC_2014\Metin2Client\EterLib\GrpLightManager.cpp

; 96   : 		return l->GetDistance() < r->GetDistance();

  00116	f3 0f 10 45 c8	 movss	 xmm0, DWORD PTR $T4[ebp]
  0011b	0f 2f 45 c4	 comiss	 xmm0, DWORD PTR $T3[ebp]
  0011f	76 09		 jbe	 SHORT $LN35@Insertion_
  00121	c7 45 e0 01 00
	00 00		 mov	 DWORD PTR tv135[ebp], 1
  00128	eb 04		 jmp	 SHORT $LN36@Insertion_
$LN35@Insertion_:
  0012a	83 65 e0 00	 and	 DWORD PTR tv135[ebp], 0
$LN36@Insertion_:
; File C:\Program Files (x86)\Microsoft Visual Studio\2019\Community\VC\Tools\MSVC\14.28.29333\include\algorithm

; 7421 :                 for (_BidIt _Prev = _Hole; _DEBUG_LT_PRED(_Pred, _Val, *--_Prev); _Hole = _Prev) {

  0012e	0f b6 45 e0	 movzx	 eax, BYTE PTR tv135[ebp]
  00132	85 c0		 test	 eax, eax
  00134	74 12		 je	 SHORT $LN6@Insertion_
; File C:\Program Files (x86)\Microsoft Visual Studio\2019\Community\VC\Tools\MSVC\14.28.29333\include\type_traits

; 1455 :     return static_cast<remove_reference_t<_Ty>&&>(_Arg);

  00136	8b 45 f0	 mov	 eax, DWORD PTR __Prev$11[ebp]
  00139	89 45 c0	 mov	 DWORD PTR $T2[ebp], eax
; File C:\Program Files (x86)\Microsoft Visual Studio\2019\Community\VC\Tools\MSVC\14.28.29333\include\algorithm

; 7422 :                     *_Hole = _STD move(*_Prev); // move hole down

  0013c	8b 45 fc	 mov	 eax, DWORD PTR __Hole$13[ebp]
  0013f	8b 4d c0	 mov	 ecx, DWORD PTR $T2[ebp]
  00142	8b 09		 mov	 ecx, DWORD PTR [ecx]
  00144	89 08		 mov	 DWORD PTR [eax], ecx

; 7423 :                 }

  00146	eb a3		 jmp	 SHORT $LN5@Insertion_
$LN6@Insertion_:
; File C:\Program Files (x86)\Microsoft Visual Studio\2019\Community\VC\Tools\MSVC\14.28.29333\include\type_traits

; 1455 :     return static_cast<remove_reference_t<_Ty>&&>(_Arg);

  00148	8d 45 e8	 lea	 eax, DWORD PTR __Val$10[ebp]
  0014b	89 45 bc	 mov	 DWORD PTR $T1[ebp], eax
; File C:\Program Files (x86)\Microsoft Visual Studio\2019\Community\VC\Tools\MSVC\14.28.29333\include\algorithm

; 7425 :                 *_Hole = _STD move(_Val); // insert element in hole

  0014e	8b 45 fc	 mov	 eax, DWORD PTR __Hole$13[ebp]
  00151	8b 4d bc	 mov	 ecx, DWORD PTR $T1[ebp]
  00154	8b 09		 mov	 ecx, DWORD PTR [ecx]
  00156	89 08		 mov	 DWORD PTR [eax], ecx
$LN10@Insertion_:

; 7426 :             }
; 7427 :         }

  00158	e9 bb fe ff ff	 jmp	 $LN2@Insertion_
$LN3@Insertion_:

; 7428 :     }
; 7429 : 
; 7430 :     return _Last;

  0015d	8b 45 0c	 mov	 eax, DWORD PTR __Last$[ebp]

; 7431 : }

  00160	c9		 leave
  00161	c3		 ret	 0
??$_Insertion_sort_unchecked@PAPAVCLight@@ULightComp@@@std@@YAPAPAVCLight@@QAPAV1@0ULightComp@@@Z ENDP ; std::_Insertion_sort_unchecked<CLight * *,LightComp>
_TEXT	ENDS
; Function compile flags: /Odspy
; File C:\Program Files (x86)\Microsoft Visual Studio\2019\Community\VC\Tools\MSVC\14.28.29333\include\xmemory
;	COMDAT ??$_Destroy_range@PAPAKPAPAK@std@@YAXPAPAKQAPAK@Z
_TEXT	SEGMENT
__First$ = 8						; size = 4
__Last$ = 12						; size = 4
??$_Destroy_range@PAPAKPAPAK@std@@YAXPAPAKQAPAK@Z PROC	; std::_Destroy_range<unsigned long * *,unsigned long * *>, COMDAT

; 974  : /* _CONSTEXPR20_DYNALLOC */ void _Destroy_range(_NoThrowFwdIt _First, const _NoThrowSentinel _Last) noexcept {

  00000	55		 push	 ebp
  00001	8b ec		 mov	 ebp, esp

; 975  :     // note that this is an optimization for debug mode codegen; in release mode the BE removes all of this
; 976  :     if _CONSTEXPR_IF (!is_trivially_destructible_v<_Iter_value_t<_NoThrowFwdIt>>) {
; 977  :         for (; _First != _Last; ++_First) {
; 978  :             _Destroy_in_place(*_First);
; 979  :         }
; 980  :     }
; 981  : }

  00003	5d		 pop	 ebp
  00004	c3		 ret	 0
??$_Destroy_range@PAPAKPAPAK@std@@YAXPAPAKQAPAK@Z ENDP	; std::_Destroy_range<unsigned long * *,unsigned long * *>
_TEXT	ENDS
; Function compile flags: /Odspy
; File C:\Program Files (x86)\Microsoft Visual Studio\2019\Community\VC\Tools\MSVC\14.28.29333\include\xmemory
;	COMDAT ??$_Uninitialized_value_construct_n_unchecked1@PAPAKI@std@@YAPAPAKPAPAKI@Z
_TEXT	SEGMENT
__UFirst$ = 8						; size = 4
__Count$ = 12						; size = 4
??$_Uninitialized_value_construct_n_unchecked1@PAPAKI@std@@YAPAPAKPAPAKI@Z PROC ; std::_Uninitialized_value_construct_n_unchecked1<unsigned long * *,unsigned int>, COMDAT

; 1912 : _NoThrowFwdIt _Uninitialized_value_construct_n_unchecked1(_NoThrowFwdIt _UFirst, _Diff _Count) {

  00000	55		 push	 ebp
  00001	8b ec		 mov	 ebp, esp

; 1913 :     // value-initialize all elements in [_UFirst, _UFirst + _Count_raw)
; 1914 :     _STL_INTERNAL_CHECK(_Count >= 0);
; 1915 :     if constexpr (_Use_memset_value_construct_v<_NoThrowFwdIt>) {
; 1916 :         return _Zero_range(_UFirst, _UFirst + _Count);

  00003	8b 45 0c	 mov	 eax, DWORD PTR __Count$[ebp]
  00006	8b 4d 08	 mov	 ecx, DWORD PTR __UFirst$[ebp]
  00009	8d 04 81	 lea	 eax, DWORD PTR [ecx+eax*4]
  0000c	50		 push	 eax
  0000d	ff 75 08	 push	 DWORD PTR __UFirst$[ebp]
  00010	e8 00 00 00 00	 call	 ??$_Zero_range@PAPAK@std@@YAPAPAKQAPAK0@Z ; std::_Zero_range<unsigned long * *>
  00015	59		 pop	 ecx
  00016	59		 pop	 ecx

; 1917 :     } else {
; 1918 :         _Uninitialized_backout<_NoThrowFwdIt> _Backout{_UFirst};
; 1919 :         for (; 0 < _Count; --_Count) {
; 1920 :             _Backout._Emplace_back();
; 1921 :         }
; 1922 : 
; 1923 :         return _Backout._Release();
; 1924 :     }
; 1925 : }

  00017	5d		 pop	 ebp
  00018	c3		 ret	 0
??$_Uninitialized_value_construct_n_unchecked1@PAPAKI@std@@YAPAPAKPAPAKI@Z ENDP ; std::_Uninitialized_value_construct_n_unchecked1<unsigned long * *,unsigned int>
_TEXT	ENDS
; Function compile flags: /Odspy
; File C:\Program Files (x86)\Microsoft Visual Studio\2019\Community\VC\Tools\MSVC\14.28.29333\include\xmemory
; File C:\Program Files (x86)\Microsoft Visual Studio\2019\Community\VC\Tools\MSVC\14.28.29333\include\xutility
; File C:\Program Files (x86)\Microsoft Visual Studio\2019\Community\VC\Tools\MSVC\14.28.29333\include\xmemory
; File C:\Program Files (x86)\Microsoft Visual Studio\2019\Community\VC\Tools\MSVC\14.28.29333\include\xutility
; File C:\Program Files (x86)\Microsoft Visual Studio\2019\Community\VC\Tools\MSVC\14.28.29333\include\xmemory
;	COMDAT ??$uninitialized_copy@PAPAKPAPAK@std@@YAPAPAKQAPAK0PAPAK@Z
_TEXT	SEGMENT
$T1 = -16						; size = 4
__UFirst$ = -12						; size = 4
__ULast$ = -8						; size = 4
__UDest$ = -4						; size = 4
__First$ = 8						; size = 4
__Last$ = 12						; size = 4
__Dest$ = 16						; size = 4
??$uninitialized_copy@PAPAKPAPAK@std@@YAPAPAKQAPAK0PAPAK@Z PROC ; std::uninitialized_copy<unsigned long * *,unsigned long * *>, COMDAT

; 1629 : _NoThrowFwdIt uninitialized_copy(const _InIt _First, const _InIt _Last, _NoThrowFwdIt _Dest) {

  00000	55		 push	 ebp
  00001	8b ec		 mov	 ebp, esp
  00003	83 ec 10	 sub	 esp, 16			; 00000010H

; 1630 :     // copy [_First, _Last) to raw [_Dest, ...)
; 1631 :     _Adl_verify_range(_First, _Last);
; 1632 :     auto _UFirst      = _Get_unwrapped(_First);

  00006	8b 45 08	 mov	 eax, DWORD PTR __First$[ebp]
  00009	89 45 f4	 mov	 DWORD PTR __UFirst$[ebp], eax

; 1633 :     const auto _ULast = _Get_unwrapped(_Last);

  0000c	8b 45 0c	 mov	 eax, DWORD PTR __Last$[ebp]
  0000f	89 45 f8	 mov	 DWORD PTR __ULast$[ebp], eax
; File C:\Program Files (x86)\Microsoft Visual Studio\2019\Community\VC\Tools\MSVC\14.28.29333\include\xutility

; 1557 :         return static_cast<_Iter_diff_t<_Checked>>(_Last - _First);

  00012	8b 45 f8	 mov	 eax, DWORD PTR __ULast$[ebp]
  00015	2b 45 f4	 sub	 eax, DWORD PTR __UFirst$[ebp]
  00018	c1 f8 02	 sar	 eax, 2
  0001b	89 45 f0	 mov	 DWORD PTR $T1[ebp], eax
; File C:\Program Files (x86)\Microsoft Visual Studio\2019\Community\VC\Tools\MSVC\14.28.29333\include\xmemory

; 1634 :     auto _UDest       = _Get_unwrapped_n(_Dest, _Idl_distance<_InIt>(_UFirst, _ULast));

  0001e	8b 45 10	 mov	 eax, DWORD PTR __Dest$[ebp]
  00021	89 45 fc	 mov	 DWORD PTR __UDest$[ebp], eax

; 1635 :     if constexpr (_Ptr_copy_cat<decltype(_UFirst), decltype(_UDest)>::_Really_trivial) {
; 1636 :         _UDest = _Copy_memmove(_UFirst, _ULast, _UDest);

  00024	ff 75 fc	 push	 DWORD PTR __UDest$[ebp]
  00027	ff 75 f8	 push	 DWORD PTR __ULast$[ebp]
  0002a	ff 75 f4	 push	 DWORD PTR __UFirst$[ebp]
  0002d	e8 00 00 00 00	 call	 ??$_Copy_memmove@PAPAKPAPAK@std@@YAPAPAKPAPAK00@Z ; std::_Copy_memmove<unsigned long * *,unsigned long * *>
  00032	83 c4 0c	 add	 esp, 12			; 0000000cH
  00035	89 45 fc	 mov	 DWORD PTR __UDest$[ebp], eax
; File C:\Program Files (x86)\Microsoft Visual Studio\2019\Community\VC\Tools\MSVC\14.28.29333\include\xutility

; 1492 :         _It = static_cast<_UIter&&>(_UIt);

  00038	8b 45 fc	 mov	 eax, DWORD PTR __UDest$[ebp]
  0003b	89 45 10	 mov	 DWORD PTR __Dest$[ebp], eax
; File C:\Program Files (x86)\Microsoft Visual Studio\2019\Community\VC\Tools\MSVC\14.28.29333\include\xmemory

; 1647 :     return _Dest;

  0003e	8b 45 10	 mov	 eax, DWORD PTR __Dest$[ebp]

; 1648 : }

  00041	c9		 leave
  00042	c3		 ret	 0
??$uninitialized_copy@PAPAKPAPAK@std@@YAPAPAKQAPAK0PAPAK@Z ENDP ; std::uninitialized_copy<unsigned long * *,unsigned long * *>
_TEXT	ENDS
; Function compile flags: /Odspy
; File C:\Program Files (x86)\Microsoft Visual Studio\2019\Community\VC\Tools\MSVC\14.28.29333\include\xmemory
; File C:\Program Files (x86)\Microsoft Visual Studio\2019\Community\VC\Tools\MSVC\14.28.29333\include\xstddef
; File C:\Program Files (x86)\Microsoft Visual Studio\2019\Community\VC\Tools\MSVC\14.28.29333\include\xmemory
;	COMDAT ??$_Uninitialized_move@PAPAVCLight@@V?$allocator@PAVCLight@@@std@@@std@@YAPAPAVCLight@@QAPAV1@0PAPAV1@AAV?$allocator@PAVCLight@@@0@@Z
_TEXT	SEGMENT
$T1 = -12						; size = 4
__UFirst$ = -8						; size = 4
__ULast$ = -4						; size = 4
__First$ = 8						; size = 4
__Last$ = 12						; size = 4
__Dest$ = 16						; size = 4
__Al$ = 20						; size = 4
??$_Uninitialized_move@PAPAVCLight@@V?$allocator@PAVCLight@@@std@@@std@@YAPAPAVCLight@@QAPAV1@0PAPAV1@AAV?$allocator@PAVCLight@@@0@@Z PROC ; std::_Uninitialized_move<CLight * *,std::allocator<CLight *> >, COMDAT

; 1685 :     const _InIt _First, const _InIt _Last, _Alloc_ptr_t<_Alloc> _Dest, _Alloc& _Al) {

  00000	55		 push	 ebp
  00001	8b ec		 mov	 ebp, esp
  00003	83 ec 0c	 sub	 esp, 12			; 0000000cH

; 1686 :     // move [_First, _Last) to raw _Dest, using _Al
; 1687 :     // note: only called internally from elsewhere in the STL
; 1688 :     using _Ptrval     = typename _Alloc::value_type*;
; 1689 :     auto _UFirst      = _Get_unwrapped(_First);

  00006	8b 45 08	 mov	 eax, DWORD PTR __First$[ebp]
  00009	89 45 f8	 mov	 DWORD PTR __UFirst$[ebp], eax

; 1690 :     const auto _ULast = _Get_unwrapped(_Last);

  0000c	8b 45 0c	 mov	 eax, DWORD PTR __Last$[ebp]
  0000f	89 45 fc	 mov	 DWORD PTR __ULast$[ebp], eax
; File C:\Program Files (x86)\Microsoft Visual Studio\2019\Community\VC\Tools\MSVC\14.28.29333\include\xstddef

; 289  :     return _Ptr;

  00012	8b 45 10	 mov	 eax, DWORD PTR __Dest$[ebp]
  00015	89 45 f4	 mov	 DWORD PTR $T1[ebp], eax
; File C:\Program Files (x86)\Microsoft Visual Studio\2019\Community\VC\Tools\MSVC\14.28.29333\include\xmemory

; 1693 :         _Copy_memmove(_UFirst, _ULast, _Unfancy(_Dest));

  00018	ff 75 f4	 push	 DWORD PTR $T1[ebp]
  0001b	ff 75 fc	 push	 DWORD PTR __ULast$[ebp]
  0001e	ff 75 f8	 push	 DWORD PTR __UFirst$[ebp]
  00021	e8 00 00 00 00	 call	 ??$_Copy_memmove@PAPAVCLight@@PAPAV1@@std@@YAPAPAVCLight@@PAPAV1@00@Z ; std::_Copy_memmove<CLight * *,CLight * *>
  00026	83 c4 0c	 add	 esp, 12			; 0000000cH

; 1694 :         return _Dest + (_ULast - _UFirst);

  00029	8b 45 fc	 mov	 eax, DWORD PTR __ULast$[ebp]
  0002c	2b 45 f8	 sub	 eax, DWORD PTR __UFirst$[ebp]
  0002f	c1 f8 02	 sar	 eax, 2
  00032	8b 4d 10	 mov	 ecx, DWORD PTR __Dest$[ebp]
  00035	8d 04 81	 lea	 eax, DWORD PTR [ecx+eax*4]

; 1695 :     } else {
; 1696 :         _Uninitialized_backout_al<_Alloc> _Backout{_Dest, _Al};
; 1697 :         for (; _UFirst != _ULast; ++_UFirst) {
; 1698 :             _Backout._Emplace_back(_STD move(*_UFirst));
; 1699 :         }
; 1700 : 
; 1701 :         return _Backout._Release();
; 1702 :     }
; 1703 : }

  00038	c9		 leave
  00039	c3		 ret	 0
??$_Uninitialized_move@PAPAVCLight@@V?$allocator@PAVCLight@@@std@@@std@@YAPAPAVCLight@@QAPAV1@0PAPAV1@AAV?$allocator@PAVCLight@@@0@@Z ENDP ; std::_Uninitialized_move<CLight * *,std::allocator<CLight *> >
_TEXT	ENDS
; Function compile flags: /Odspy
; File C:\Program Files (x86)\Microsoft Visual Studio\2019\Community\VC\Tools\MSVC\14.28.29333\include\xmemory
;	COMDAT ??$_Destroy_in_place@PAU?$_Tree_node@U?$pair@$$CBKPAVCLight@@@std@@PAX@std@@@std@@YAXAAPAU?$_Tree_node@U?$pair@$$CBKPAVCLight@@@std@@PAX@0@@Z
_TEXT	SEGMENT
__Obj$ = 8						; size = 4
??$_Destroy_in_place@PAU?$_Tree_node@U?$pair@$$CBKPAVCLight@@@std@@PAX@std@@@std@@YAXAAPAU?$_Tree_node@U?$pair@$$CBKPAVCLight@@@std@@PAX@0@@Z PROC ; std::_Destroy_in_place<std::_Tree_node<std::pair<unsigned long const ,CLight *>,void *> *>, COMDAT

; 270  : /* _CONSTEXPR20_DYNALLOC */ void _Destroy_in_place(_Ty& _Obj) noexcept {

  00000	55		 push	 ebp
  00001	8b ec		 mov	 ebp, esp

; 271  : #if _HAS_IF_CONSTEXPR
; 272  :     if constexpr (is_array_v<_Ty>) {
; 273  :         _Destroy_range(_Obj, _Obj + extent_v<_Ty>);
; 274  :     } else
; 275  : #endif // _HAS_IF_CONSTEXPR
; 276  :     {
; 277  :         _Obj.~_Ty();
; 278  :     }
; 279  : }

  00003	5d		 pop	 ebp
  00004	c3		 ret	 0
??$_Destroy_in_place@PAU?$_Tree_node@U?$pair@$$CBKPAVCLight@@@std@@PAX@std@@@std@@YAXAAPAU?$_Tree_node@U?$pair@$$CBKPAVCLight@@@std@@PAX@0@@Z ENDP ; std::_Destroy_in_place<std::_Tree_node<std::pair<unsigned long const ,CLight *>,void *> *>
_TEXT	ENDS
; Function compile flags: /Odspy
; File C:\Program Files (x86)\Microsoft Visual Studio\2019\Community\VC\Tools\MSVC\14.28.29333\include\xmemory
; File C:\Program Files (x86)\Microsoft Visual Studio\2019\Community\VC\Tools\MSVC\14.28.29333\include\xstddef
; File C:\Program Files (x86)\Microsoft Visual Studio\2019\Community\VC\Tools\MSVC\14.28.29333\include\vcruntime_new.h
; File C:\Program Files (x86)\Microsoft Visual Studio\2019\Community\VC\Tools\MSVC\14.28.29333\include\type_traits
; File C:\Program Files (x86)\Microsoft Visual Studio\2019\Community\VC\Tools\MSVC\14.28.29333\include\xmemory
;	COMDAT ??$_Construct_in_place@PAU?$_Tree_node@U?$pair@$$CBKPAVCLight@@@std@@PAX@std@@ABQAU12@@std@@YAXAAPAU?$_Tree_node@U?$pair@$$CBKPAVCLight@@@std@@PAX@0@ABQAU10@@Z
_TEXT	SEGMENT
$T1 = -12						; size = 4
$T2 = -8						; size = 4
$T3 = -4						; size = 4
__Obj$ = 8						; size = 4
_<_Args_0>$ = 12					; size = 4
??$_Construct_in_place@PAU?$_Tree_node@U?$pair@$$CBKPAVCLight@@@std@@PAX@std@@ABQAU12@@std@@YAXAAPAU?$_Tree_node@U?$pair@$$CBKPAVCLight@@@std@@PAX@0@ABQAU10@@Z PROC ; std::_Construct_in_place<std::_Tree_node<std::pair<unsigned long const ,CLight *>,void *> *,std::_Tree_node<std::pair<unsigned long const ,CLight *>,void *> * const &>, COMDAT

; 228  : void _Construct_in_place(_Ty& _Obj, _Types&&... _Args) noexcept(is_nothrow_constructible_v<_Ty, _Types...>) {

  00000	55		 push	 ebp
  00001	8b ec		 mov	 ebp, esp
  00003	83 ec 0c	 sub	 esp, 12			; 0000000cH
; File C:\Program Files (x86)\Microsoft Visual Studio\2019\Community\VC\Tools\MSVC\14.28.29333\include\xstddef

; 275  :     return __builtin_addressof(_Val);

  00006	8b 45 08	 mov	 eax, DWORD PTR __Obj$[ebp]
  00009	89 45 fc	 mov	 DWORD PTR $T3[ebp], eax
; File C:\Program Files (x86)\Microsoft Visual Studio\2019\Community\VC\Tools\MSVC\14.28.29333\include\vcruntime_new.h

; 169  :         return _Where;

  0000c	8b 45 fc	 mov	 eax, DWORD PTR $T3[ebp]
  0000f	89 45 f8	 mov	 DWORD PTR $T2[ebp], eax
; File C:\Program Files (x86)\Microsoft Visual Studio\2019\Community\VC\Tools\MSVC\14.28.29333\include\type_traits

; 1443 :     return static_cast<_Ty&&>(_Arg);

  00012	8b 45 0c	 mov	 eax, DWORD PTR _<_Args_0>$[ebp]
  00015	89 45 f4	 mov	 DWORD PTR $T1[ebp], eax
; File C:\Program Files (x86)\Microsoft Visual Studio\2019\Community\VC\Tools\MSVC\14.28.29333\include\xmemory

; 229  :     ::new (const_cast<void*>(static_cast<const volatile void*>(_STD addressof(_Obj))))

  00018	8b 45 f8	 mov	 eax, DWORD PTR $T2[ebp]
  0001b	8b 4d f4	 mov	 ecx, DWORD PTR $T1[ebp]
  0001e	8b 09		 mov	 ecx, DWORD PTR [ecx]
  00020	89 08		 mov	 DWORD PTR [eax], ecx

; 230  :         _Ty(_STD forward<_Types>(_Args)...);
; 231  : }

  00022	c9		 leave
  00023	c3		 ret	 0
??$_Construct_in_place@PAU?$_Tree_node@U?$pair@$$CBKPAVCLight@@@std@@PAX@std@@ABQAU12@@std@@YAXAAPAU?$_Tree_node@U?$pair@$$CBKPAVCLight@@@std@@PAX@0@ABQAU10@@Z ENDP ; std::_Construct_in_place<std::_Tree_node<std::pair<unsigned long const ,CLight *>,void *> *,std::_Tree_node<std::pair<unsigned long const ,CLight *>,void *> * const &>
_TEXT	ENDS
; Function compile flags: /Odspy
; File C:\Program Files (x86)\Microsoft Visual Studio\2019\Community\VC\Tools\MSVC\14.28.29333\include\vector
; File C:\Program Files (x86)\Microsoft Visual Studio\2019\Community\VC\Tools\MSVC\14.28.29333\include\xutility
; File C:\Program Files (x86)\Microsoft Visual Studio\2019\Community\VC\Tools\MSVC\14.28.29333\include\xmemory
; File C:\Program Files (x86)\Microsoft Visual Studio\2019\Community\VC\Tools\MSVC\14.28.29333\include\vector
; File C:\Program Files (x86)\Microsoft Visual Studio\2019\Community\VC\Tools\MSVC\14.28.29333\include\xstddef
; File C:\Program Files (x86)\Microsoft Visual Studio\2019\Community\VC\Tools\MSVC\14.28.29333\include\vector
;	COMDAT ??$_Assign_range@PAPAVCLight@@@?$vector@PAVCLight@@V?$allocator@PAVCLight@@@std@@@std@@AAEXPAPAVCLight@@0Uforward_iterator_tag@1@@Z
_TEXT	SEGMENT
__Mylast$ = -36						; size = 4
$T1 = -32						; size = 4
__Ptr$ = -28						; size = 4
__Oldcapacity$2 = -24					; size = 4
__Myend$ = -20						; size = 4
__Myfirst$ = -16					; size = 4
_this$ = -12						; size = 4
__Newsize$ = -8						; size = 4
__My_data$ = -4						; size = 4
__First$ = 8						; size = 4
__Last$ = 12						; size = 4
___formal$ = 16						; size = 1
??$_Assign_range@PAPAVCLight@@@?$vector@PAVCLight@@V?$allocator@PAVCLight@@@std@@@std@@AAEXPAPAVCLight@@0Uforward_iterator_tag@1@@Z PROC ; std::vector<CLight *,std::allocator<CLight *> >::_Assign_range<CLight * *>, COMDAT
; _this$ = ecx

; 1094 :     void _Assign_range(_Iter _First, _Iter _Last, forward_iterator_tag) { // assign forward range [_First, _Last)

  00000	55		 push	 ebp
  00001	8b ec		 mov	 ebp, esp
  00003	83 ec 24	 sub	 esp, 36			; 00000024H
  00006	89 4d f4	 mov	 DWORD PTR _this$[ebp], ecx
; File C:\Program Files (x86)\Microsoft Visual Studio\2019\Community\VC\Tools\MSVC\14.28.29333\include\xutility

; 1794 :         return _Last - _First; // assume the iterator will do debug checking

  00009	8b 45 0c	 mov	 eax, DWORD PTR __Last$[ebp]
  0000c	2b 45 08	 sub	 eax, DWORD PTR __First$[ebp]
  0000f	c1 f8 02	 sar	 eax, 2
; File C:\Program Files (x86)\Microsoft Visual Studio\2019\Community\VC\Tools\MSVC\14.28.29333\include\xmemory

; 997  :     return _Len;

  00012	89 45 f8	 mov	 DWORD PTR __Newsize$[ebp], eax
; File C:\Program Files (x86)\Microsoft Visual Studio\2019\Community\VC\Tools\MSVC\14.28.29333\include\vector

; 1096 :         auto& _My_data      = _Mypair._Myval2;

  00015	8b 45 f4	 mov	 eax, DWORD PTR _this$[ebp]
  00018	89 45 fc	 mov	 DWORD PTR __My_data$[ebp], eax

; 1097 :         pointer& _Myfirst   = _My_data._Myfirst;

  0001b	8b 45 fc	 mov	 eax, DWORD PTR __My_data$[ebp]
  0001e	89 45 f0	 mov	 DWORD PTR __Myfirst$[ebp], eax

; 1098 :         pointer& _Mylast    = _My_data._Mylast;

  00021	8b 45 fc	 mov	 eax, DWORD PTR __My_data$[ebp]
  00024	83 c0 04	 add	 eax, 4
  00027	89 45 dc	 mov	 DWORD PTR __Mylast$[ebp], eax

; 1099 :         pointer& _Myend     = _My_data._Myend;

  0002a	8b 45 fc	 mov	 eax, DWORD PTR __My_data$[ebp]
  0002d	83 c0 08	 add	 eax, 8
  00030	89 45 ec	 mov	 DWORD PTR __Myend$[ebp], eax

; 1100 : 
; 1101 :         _My_data._Orphan_all();
; 1102 : 
; 1103 : #if _HAS_IF_CONSTEXPR
; 1104 :         if constexpr (conjunction_v<bool_constant<_Ptr_copy_cat<_Iter, _Ty*>::_Trivially_copyable>,
; 1105 :                           _Uses_default_construct<_Alty, _Ty*, decltype(*_First)>,
; 1106 :                           _Uses_default_destroy<_Alty, _Ty*>>) {
; 1107 :             const auto _Oldcapacity = static_cast<size_type>(_Myend - _Myfirst);

  00033	8b 45 ec	 mov	 eax, DWORD PTR __Myend$[ebp]
  00036	8b 4d f0	 mov	 ecx, DWORD PTR __Myfirst$[ebp]
  00039	8b 00		 mov	 eax, DWORD PTR [eax]
  0003b	2b 01		 sub	 eax, DWORD PTR [ecx]
  0003d	c1 f8 02	 sar	 eax, 2
  00040	89 45 e8	 mov	 DWORD PTR __Oldcapacity$2[ebp], eax

; 1108 :             if (_Newsize > _Oldcapacity) {

  00043	8b 45 f8	 mov	 eax, DWORD PTR __Newsize$[ebp]
  00046	3b 45 e8	 cmp	 eax, DWORD PTR __Oldcapacity$2[ebp]
  00049	76 0b		 jbe	 SHORT $LN2@Assign_ran

; 1109 :                 _Clear_and_reserve_geometric(_Newsize);

  0004b	ff 75 f8	 push	 DWORD PTR __Newsize$[ebp]
  0004e	8b 4d f4	 mov	 ecx, DWORD PTR _this$[ebp]
  00051	e8 00 00 00 00	 call	 ?_Clear_and_reserve_geometric@?$vector@PAVCLight@@V?$allocator@PAVCLight@@@std@@@std@@AAEXI@Z ; std::vector<CLight *,std::allocator<CLight *> >::_Clear_and_reserve_geometric
$LN2@Assign_ran:

; 1112 :             _Mylast = _Refancy<pointer>(_Copy_memmove(_First, _Last, _Unfancy(_Myfirst)));

  00056	8b 45 f0	 mov	 eax, DWORD PTR __Myfirst$[ebp]
  00059	8b 00		 mov	 eax, DWORD PTR [eax]
  0005b	89 45 e4	 mov	 DWORD PTR __Ptr$[ebp], eax
; File C:\Program Files (x86)\Microsoft Visual Studio\2019\Community\VC\Tools\MSVC\14.28.29333\include\xstddef

; 289  :     return _Ptr;

  0005e	8b 45 e4	 mov	 eax, DWORD PTR __Ptr$[ebp]
  00061	89 45 e0	 mov	 DWORD PTR $T1[ebp], eax
; File C:\Program Files (x86)\Microsoft Visual Studio\2019\Community\VC\Tools\MSVC\14.28.29333\include\vector

; 1112 :             _Mylast = _Refancy<pointer>(_Copy_memmove(_First, _Last, _Unfancy(_Myfirst)));

  00064	ff 75 e0	 push	 DWORD PTR $T1[ebp]
  00067	ff 75 0c	 push	 DWORD PTR __Last$[ebp]
  0006a	ff 75 08	 push	 DWORD PTR __First$[ebp]
  0006d	e8 00 00 00 00	 call	 ??$_Copy_memmove@PAPAVCLight@@PAPAV1@@std@@YAPAPAVCLight@@PAPAV1@00@Z ; std::_Copy_memmove<CLight * *,CLight * *>
  00072	83 c4 0c	 add	 esp, 12			; 0000000cH
  00075	50		 push	 eax
  00076	e8 00 00 00 00	 call	 ??$_Refancy@PAPAVCLight@@$0A@@std@@YAPAPAVCLight@@PAPAV1@@Z ; std::_Refancy<CLight * *,0>
  0007b	59		 pop	 ecx
  0007c	8b 4d dc	 mov	 ecx, DWORD PTR __Mylast$[ebp]
  0007f	89 01		 mov	 DWORD PTR [ecx], eax

; 1113 :         } else
; 1114 : #endif // _HAS_IF_CONSTEXPR
; 1115 :         {
; 1116 :             auto _Oldsize = static_cast<size_type>(_Mylast - _Myfirst);
; 1117 : 
; 1118 :             if (_Newsize > _Oldsize) {
; 1119 :                 const auto _Oldcapacity = static_cast<size_type>(_Myend - _Myfirst);
; 1120 :                 if (_Newsize > _Oldcapacity) { // reallocate
; 1121 :                     _Clear_and_reserve_geometric(_Newsize);
; 1122 :                     _Oldsize = 0;
; 1123 :                 }
; 1124 : 
; 1125 :                 // performance note: traversing [_First, _Mid) twice
; 1126 :                 const _Iter _Mid = _STD next(_First, static_cast<difference_type>(_Oldsize));
; 1127 :                 _Copy_unchecked(_First, _Mid, _Myfirst);
; 1128 :                 _Mylast = _Ucopy(_Mid, _Last, _Mylast);
; 1129 :             } else {
; 1130 :                 const pointer _Newlast = _Myfirst + _Newsize;
; 1131 :                 _Copy_unchecked(_First, _Last, _Myfirst);
; 1132 :                 _Destroy(_Newlast, _Mylast);
; 1133 :                 _Mylast = _Newlast;
; 1134 :             }
; 1135 :         }
; 1136 :     }

  00081	c9		 leave
  00082	c2 0c 00	 ret	 12			; 0000000cH
??$_Assign_range@PAPAVCLight@@@?$vector@PAVCLight@@V?$allocator@PAVCLight@@@std@@@std@@AAEXPAPAVCLight@@0Uforward_iterator_tag@1@@Z ENDP ; std::vector<CLight *,std::allocator<CLight *> >::_Assign_range<CLight * *>
_TEXT	ENDS
; Function compile flags: /Odspy
; File C:\Program Files (x86)\Microsoft Visual Studio\2019\Community\VC\Tools\MSVC\14.28.29333\include\xmemory
; File C:\Program Files (x86)\Microsoft Visual Studio\2019\Community\VC\Tools\MSVC\14.28.29333\include\xstddef
; File C:\Program Files (x86)\Microsoft Visual Studio\2019\Community\VC\Tools\MSVC\14.28.29333\include\vcruntime_new.h
; File C:\Program Files (x86)\Microsoft Visual Studio\2019\Community\VC\Tools\MSVC\14.28.29333\include\type_traits
; File C:\Program Files (x86)\Microsoft Visual Studio\2019\Community\VC\Tools\MSVC\14.28.29333\include\xmemory
;	COMDAT ??$_Construct_in_place@U_Container_proxy@std@@PAU_Container_base12@2@@std@@YAXAAU_Container_proxy@0@$$QAPAU_Container_base12@0@@Z
_TEXT	SEGMENT
__Mycont_$ = -16					; size = 4
$T1 = -12						; size = 4
$T2 = -8						; size = 4
$T3 = -4						; size = 4
__Obj$ = 8						; size = 4
_<_Args_0>$ = 12					; size = 4
??$_Construct_in_place@U_Container_proxy@std@@PAU_Container_base12@2@@std@@YAXAAU_Container_proxy@0@$$QAPAU_Container_base12@0@@Z PROC ; std::_Construct_in_place<std::_Container_proxy,std::_Container_base12 *>, COMDAT

; 228  : void _Construct_in_place(_Ty& _Obj, _Types&&... _Args) noexcept(is_nothrow_constructible_v<_Ty, _Types...>) {

  00000	55		 push	 ebp
  00001	8b ec		 mov	 ebp, esp
  00003	83 ec 10	 sub	 esp, 16			; 00000010H
; File C:\Program Files (x86)\Microsoft Visual Studio\2019\Community\VC\Tools\MSVC\14.28.29333\include\xstddef

; 275  :     return __builtin_addressof(_Val);

  00006	8b 45 08	 mov	 eax, DWORD PTR __Obj$[ebp]
  00009	89 45 f8	 mov	 DWORD PTR $T2[ebp], eax
; File C:\Program Files (x86)\Microsoft Visual Studio\2019\Community\VC\Tools\MSVC\14.28.29333\include\vcruntime_new.h

; 169  :         return _Where;

  0000c	8b 45 f8	 mov	 eax, DWORD PTR $T2[ebp]
  0000f	89 45 fc	 mov	 DWORD PTR $T3[ebp], eax
; File C:\Program Files (x86)\Microsoft Visual Studio\2019\Community\VC\Tools\MSVC\14.28.29333\include\type_traits

; 1443 :     return static_cast<_Ty&&>(_Arg);

  00012	8b 45 0c	 mov	 eax, DWORD PTR _<_Args_0>$[ebp]
  00015	89 45 f4	 mov	 DWORD PTR $T1[ebp], eax
; File C:\Program Files (x86)\Microsoft Visual Studio\2019\Community\VC\Tools\MSVC\14.28.29333\include\xmemory

; 229  :     ::new (const_cast<void*>(static_cast<const volatile void*>(_STD addressof(_Obj))))

  00018	8b 45 f4	 mov	 eax, DWORD PTR $T1[ebp]
  0001b	8b 00		 mov	 eax, DWORD PTR [eax]
  0001d	89 45 f0	 mov	 DWORD PTR __Mycont_$[ebp], eax

; 1089 :     _Container_proxy(_Container_base12* _Mycont_) noexcept : _Mycont(_Mycont_), _Myfirstiter(nullptr) {}

  00020	8b 45 fc	 mov	 eax, DWORD PTR $T3[ebp]
  00023	8b 4d f0	 mov	 ecx, DWORD PTR __Mycont_$[ebp]
  00026	89 08		 mov	 DWORD PTR [eax], ecx
  00028	8b 45 fc	 mov	 eax, DWORD PTR $T3[ebp]
  0002b	83 60 04 00	 and	 DWORD PTR [eax+4], 0

; 230  :         _Ty(_STD forward<_Types>(_Args)...);
; 231  : }

  0002f	c9		 leave
  00030	c3		 ret	 0
??$_Construct_in_place@U_Container_proxy@std@@PAU_Container_base12@2@@std@@YAXAAU_Container_proxy@0@$$QAPAU_Container_base12@0@@Z ENDP ; std::_Construct_in_place<std::_Container_proxy,std::_Container_base12 *>
_TEXT	ENDS
; Function compile flags: /Odspy
; File C:\Program Files (x86)\Microsoft Visual Studio\2019\Community\VC\Tools\MSVC\14.28.29333\include\xmemory
;	COMDAT ??$_Deallocate_plain@V?$allocator@U_Container_proxy@std@@@std@@@std@@YAXAAV?$allocator@U_Container_proxy@std@@@0@QAU_Container_proxy@0@@Z
_TEXT	SEGMENT
__Al$ = 8						; size = 4
__Ptr$ = 12						; size = 4
??$_Deallocate_plain@V?$allocator@U_Container_proxy@std@@@std@@@std@@YAXAAV?$allocator@U_Container_proxy@std@@@0@QAU_Container_proxy@0@@Z PROC ; std::_Deallocate_plain<std::allocator<std::_Container_proxy> >, COMDAT

; 1003 : void _Deallocate_plain(_Alloc& _Al, typename _Alloc::value_type* const _Ptr) noexcept {

  00000	55		 push	 ebp
  00001	8b ec		 mov	 ebp, esp

; 696  :         _Deallocate<_New_alignof<value_type>>(_Ptr, sizeof(value_type) * _Count);

  00003	33 c0		 xor	 eax, eax
  00005	40		 inc	 eax
  00006	c1 e0 03	 shl	 eax, 3
  00009	50		 push	 eax
  0000a	ff 75 0c	 push	 DWORD PTR __Ptr$[ebp]
  0000d	e8 00 00 00 00	 call	 ??$_Deallocate@$07$0A@@std@@YAXPAXI@Z ; std::_Deallocate<8,0>
  00012	59		 pop	 ecx
  00013	59		 pop	 ecx

; 1004 :     // deallocate a plain pointer using an allocator
; 1005 :     using _Alloc_traits = allocator_traits<_Alloc>;
; 1006 :     if constexpr (is_same_v<_Alloc_ptr_t<_Alloc>, typename _Alloc::value_type*>) {
; 1007 :         _Alloc_traits::deallocate(_Al, _Ptr, 1);
; 1008 :     } else {
; 1009 :         using _Ptr_traits = pointer_traits<_Alloc_ptr_t<_Alloc>>;
; 1010 :         _Alloc_traits::deallocate(_Al, _Ptr_traits::pointer_to(*_Ptr), 1);
; 1011 :     }
; 1012 : }

  00014	5d		 pop	 ebp
  00015	c3		 ret	 0
??$_Deallocate_plain@V?$allocator@U_Container_proxy@std@@@std@@@std@@YAXAAV?$allocator@U_Container_proxy@std@@@0@QAU_Container_proxy@0@@Z ENDP ; std::_Deallocate_plain<std::allocator<std::_Container_proxy> >
_TEXT	ENDS
; Function compile flags: /Odspy
; File C:\Program Files (x86)\Microsoft Visual Studio\2019\Community\VC\Tools\MSVC\14.28.29333\include\xtree
; File C:\Program Files (x86)\Microsoft Visual Studio\2019\Community\VC\Tools\MSVC\14.28.29333\include\xmemory
; File C:\Program Files (x86)\Microsoft Visual Studio\2019\Community\VC\Tools\MSVC\14.28.29333\include\xtree
;	COMDAT ??$_Freenode0@V?$allocator@U?$_Tree_node@U?$pair@$$CBKPAVCLight@@@std@@PAX@std@@@std@@@?$_Tree_node@U?$pair@$$CBKPAVCLight@@@std@@PAX@std@@SAXAAV?$allocator@U?$_Tree_node@U?$pair@$$CBKPAVCLight@@@std@@PAX@std@@@1@PAU01@@Z
_TEXT	SEGMENT
__Al$ = 8						; size = 4
__Ptr$ = 12						; size = 4
??$_Freenode0@V?$allocator@U?$_Tree_node@U?$pair@$$CBKPAVCLight@@@std@@PAX@std@@@std@@@?$_Tree_node@U?$pair@$$CBKPAVCLight@@@std@@PAX@std@@SAXAAV?$allocator@U?$_Tree_node@U?$pair@$$CBKPAVCLight@@@std@@PAX@std@@@1@PAU01@@Z PROC ; std::_Tree_node<std::pair<unsigned long const ,CLight *>,void *>::_Freenode0<std::allocator<std::_Tree_node<std::pair<unsigned long const ,CLight *>,void *> > >, COMDAT

; 368  :     static void _Freenode0(_Alloc& _Al, _Nodeptr _Ptr) noexcept {

  00000	55		 push	 ebp
  00001	8b ec		 mov	 ebp, esp

; 369  :         static_assert(is_same_v<typename _Alloc::value_type, _Tree_node>, "Bad _Freenode0 call");
; 370  :         _Destroy_in_place(_Ptr->_Left);

  00003	ff 75 0c	 push	 DWORD PTR __Ptr$[ebp]
  00006	e8 00 00 00 00	 call	 ??$_Destroy_in_place@PAU?$_Tree_node@U?$pair@$$CBKPAVCLight@@@std@@PAX@std@@@std@@YAXAAPAU?$_Tree_node@U?$pair@$$CBKPAVCLight@@@std@@PAX@0@@Z ; std::_Destroy_in_place<std::_Tree_node<std::pair<unsigned long const ,CLight *>,void *> *>
  0000b	59		 pop	 ecx

; 371  :         _Destroy_in_place(_Ptr->_Parent);

  0000c	8b 45 0c	 mov	 eax, DWORD PTR __Ptr$[ebp]
  0000f	83 c0 04	 add	 eax, 4
  00012	50		 push	 eax
  00013	e8 00 00 00 00	 call	 ??$_Destroy_in_place@PAU?$_Tree_node@U?$pair@$$CBKPAVCLight@@@std@@PAX@std@@@std@@YAXAAPAU?$_Tree_node@U?$pair@$$CBKPAVCLight@@@std@@PAX@0@@Z ; std::_Destroy_in_place<std::_Tree_node<std::pair<unsigned long const ,CLight *>,void *> *>
  00018	59		 pop	 ecx

; 372  :         _Destroy_in_place(_Ptr->_Right);

  00019	8b 45 0c	 mov	 eax, DWORD PTR __Ptr$[ebp]
  0001c	83 c0 08	 add	 eax, 8
  0001f	50		 push	 eax
  00020	e8 00 00 00 00	 call	 ??$_Destroy_in_place@PAU?$_Tree_node@U?$pair@$$CBKPAVCLight@@@std@@PAX@std@@@std@@YAXAAPAU?$_Tree_node@U?$pair@$$CBKPAVCLight@@@std@@PAX@0@@Z ; std::_Destroy_in_place<std::_Tree_node<std::pair<unsigned long const ,CLight *>,void *> *>
  00025	59		 pop	 ecx
; File C:\Program Files (x86)\Microsoft Visual Studio\2019\Community\VC\Tools\MSVC\14.28.29333\include\xmemory

; 696  :         _Deallocate<_New_alignof<value_type>>(_Ptr, sizeof(value_type) * _Count);

  00026	33 c0		 xor	 eax, eax
  00028	40		 inc	 eax
  00029	6b c0 18	 imul	 eax, eax, 24
  0002c	50		 push	 eax
  0002d	ff 75 0c	 push	 DWORD PTR __Ptr$[ebp]
  00030	e8 00 00 00 00	 call	 ??$_Deallocate@$07$0A@@std@@YAXPAXI@Z ; std::_Deallocate<8,0>
  00035	59		 pop	 ecx
  00036	59		 pop	 ecx
; File C:\Program Files (x86)\Microsoft Visual Studio\2019\Community\VC\Tools\MSVC\14.28.29333\include\xtree

; 374  :     }

  00037	5d		 pop	 ebp
  00038	c3		 ret	 0
??$_Freenode0@V?$allocator@U?$_Tree_node@U?$pair@$$CBKPAVCLight@@@std@@PAX@std@@@std@@@?$_Tree_node@U?$pair@$$CBKPAVCLight@@@std@@PAX@std@@SAXAAV?$allocator@U?$_Tree_node@U?$pair@$$CBKPAVCLight@@@std@@PAX@std@@@1@PAU01@@Z ENDP ; std::_Tree_node<std::pair<unsigned long const ,CLight *>,void *>::_Freenode0<std::allocator<std::_Tree_node<std::pair<unsigned long const ,CLight *>,void *> > >
_TEXT	ENDS
; Function compile flags: /Odspy
; File C:\Program Files (x86)\Microsoft Visual Studio\2019\Community\VC\Tools\MSVC\14.28.29333\include\xtree
; File C:\Program Files (x86)\Microsoft Visual Studio\2019\Community\VC\Tools\MSVC\14.28.29333\include\xmemory
; File C:\Program Files (x86)\Microsoft Visual Studio\2019\Community\VC\Tools\MSVC\14.28.29333\include\xtree
; File C:\Program Files (x86)\Microsoft Visual Studio\2019\Community\VC\Tools\MSVC\14.28.29333\include\type_traits
; File C:\Program Files (x86)\Microsoft Visual Studio\2019\Community\VC\Tools\MSVC\14.28.29333\include\xtree
; File C:\Program Files (x86)\Microsoft Visual Studio\2019\Community\VC\Tools\MSVC\14.28.29333\include\xstddef
; File C:\Program Files (x86)\Microsoft Visual Studio\2019\Community\VC\Tools\MSVC\14.28.29333\include\xtree
;	COMDAT ??$?0ABUpiecewise_construct_t@std@@V?$tuple@ABK@1@V?$tuple@$$V@1@@?$_Tree_temp_node@V?$allocator@U?$_Tree_node@U?$pair@$$CBKPAVCLight@@@std@@PAX@std@@@std@@@std@@QAE@AAV?$allocator@U?$_Tree_node@U?$pair@$$CBKPAVCLight@@@std@@PAX@std@@@1@PAU?$_Tree_node@U?$pair@$$CBKPAVCLight@@@std@@PAX@1@ABUpiecewise_construct_t@1@$$QAV?$tuple@ABK@1@$$QAV?$tuple@$$V@1@@Z
_TEXT	SEGMENT
$T2 = -36						; size = 4
$T3 = -32						; size = 4
$T4 = -28						; size = 4
$T5 = -24						; size = 4
__Val$ = -20						; size = 4
_this$ = -16						; size = 4
__$EHRec$ = -12						; size = 12
__Al_$ = 8						; size = 4
__Myhead$ = 12						; size = 4
_<_Vals_0>$ = 16					; size = 4
_<_Vals_1>$ = 20					; size = 4
_<_Vals_2>$ = 24					; size = 4
??$?0ABUpiecewise_construct_t@std@@V?$tuple@ABK@1@V?$tuple@$$V@1@@?$_Tree_temp_node@V?$allocator@U?$_Tree_node@U?$pair@$$CBKPAVCLight@@@std@@PAX@std@@@std@@@std@@QAE@AAV?$allocator@U?$_Tree_node@U?$pair@$$CBKPAVCLight@@@std@@PAX@std@@@1@PAU?$_Tree_node@U?$pair@$$CBKPAVCLight@@@std@@PAX@1@ABUpiecewise_construct_t@1@$$QAV?$tuple@ABK@1@$$QAV?$tuple@$$V@1@@Z PROC ; std::_Tree_temp_node<std::allocator<std::_Tree_node<std::pair<unsigned long const ,CLight *>,void *> > >::_Tree_temp_node<std::allocator<std::_Tree_node<std::pair<unsigned long const ,CLight *>,void *> > ><std::piecewise_construct_t const &,std::tuple<unsigned long const &>,std::tuple<> >, COMDAT
; _this$ = ecx

; 805  :         : _Tree_temp_node_alloc<_Alnode>(_Al_) {

  00000	55		 push	 ebp
  00001	8b ec		 mov	 ebp, esp
  00003	6a ff		 push	 -1
  00005	68 00 00 00 00	 push	 __ehhandler$??$?0ABUpiecewise_construct_t@std@@V?$tuple@ABK@1@V?$tuple@$$V@1@@?$_Tree_temp_node@V?$allocator@U?$_Tree_node@U?$pair@$$CBKPAVCLight@@@std@@PAX@std@@@std@@@std@@QAE@AAV?$allocator@U?$_Tree_node@U?$pair@$$CBKPAVCLight@@@std@@PAX@std@@@1@PAU?$_Tree_node@U?$pair@$$CBKPAVCLight@@@std@@PAX@1@ABUpiecewise_construct_t@1@$$QAV?$tuple@ABK@1@$$QAV?$tuple@$$V@1@@Z
  0000a	64 a1 00 00 00
	00		 mov	 eax, DWORD PTR fs:0
  00010	50		 push	 eax
  00011	83 ec 18	 sub	 esp, 24			; 00000018H
  00014	a1 00 00 00 00	 mov	 eax, DWORD PTR ___security_cookie
  00019	33 c5		 xor	 eax, ebp
  0001b	50		 push	 eax
  0001c	8d 45 f4	 lea	 eax, DWORD PTR __$EHRec$[ebp]
  0001f	64 a3 00 00 00
	00		 mov	 DWORD PTR fs:0, eax
  00025	89 4d f0	 mov	 DWORD PTR _this$[ebp], ecx
; File C:\Program Files (x86)\Microsoft Visual Studio\2019\Community\VC\Tools\MSVC\14.28.29333\include\xmemory

; 1045 :     explicit _Alloc_construct_ptr(_Alloc& _Al_) : _Al(_Al_), _Ptr(nullptr) {}

  00028	8b 45 f0	 mov	 eax, DWORD PTR _this$[ebp]
  0002b	8b 4d 08	 mov	 ecx, DWORD PTR __Al_$[ebp]
  0002e	89 08		 mov	 DWORD PTR [eax], ecx
  00030	8b 45 f0	 mov	 eax, DWORD PTR _this$[ebp]
  00033	83 60 04 00	 and	 DWORD PTR [eax+4], 0
; File C:\Program Files (x86)\Microsoft Visual Studio\2019\Community\VC\Tools\MSVC\14.28.29333\include\xtree

; 784  :     explicit _Tree_temp_node_alloc(_Alnode& _Al_) : _Alloc_construct_ptr<_Alnode>(_Al_) {

  00037	83 65 fc 00	 and	 DWORD PTR __$EHRec$[ebp+8], 0

; 785  :         _Alloc_construct_ptr<_Alnode>::_Allocate();

  0003b	8b 4d f0	 mov	 ecx, DWORD PTR _this$[ebp]
  0003e	e8 00 00 00 00	 call	 ?_Allocate@?$_Alloc_construct_ptr@V?$allocator@U?$_Tree_node@U?$pair@$$CBKPAVCLight@@@std@@PAX@std@@@std@@@std@@QAEXXZ ; std::_Alloc_construct_ptr<std::allocator<std::_Tree_node<std::pair<unsigned long const ,CLight *>,void *> > >::_Allocate

; 805  :         : _Tree_temp_node_alloc<_Alnode>(_Al_) {

  00043	c7 45 fc 01 00
	00 00		 mov	 DWORD PTR __$EHRec$[ebp+8], 1
; File C:\Program Files (x86)\Microsoft Visual Studio\2019\Community\VC\Tools\MSVC\14.28.29333\include\type_traits

; 1443 :     return static_cast<_Ty&&>(_Arg);

  0004a	8b 45 18	 mov	 eax, DWORD PTR _<_Vals_2>$[ebp]
  0004d	89 45 e8	 mov	 DWORD PTR $T5[ebp], eax
  00050	8b 45 14	 mov	 eax, DWORD PTR _<_Vals_1>$[ebp]
  00053	89 45 e4	 mov	 DWORD PTR $T4[ebp], eax
  00056	8b 45 10	 mov	 eax, DWORD PTR _<_Vals_0>$[ebp]
  00059	89 45 e0	 mov	 DWORD PTR $T3[ebp], eax
; File C:\Program Files (x86)\Microsoft Visual Studio\2019\Community\VC\Tools\MSVC\14.28.29333\include\xtree

; 806  :         _Alnode_traits::construct(this->_Al, _STD addressof(this->_Ptr->_Myval), _STD forward<_Valtys>(_Vals)...);

  0005c	8b 45 f0	 mov	 eax, DWORD PTR _this$[ebp]
  0005f	8b 40 04	 mov	 eax, DWORD PTR [eax+4]
  00062	83 c0 10	 add	 eax, 16			; 00000010H
  00065	89 45 ec	 mov	 DWORD PTR __Val$[ebp], eax
; File C:\Program Files (x86)\Microsoft Visual Studio\2019\Community\VC\Tools\MSVC\14.28.29333\include\xstddef

; 275  :     return __builtin_addressof(_Val);

  00068	8b 45 ec	 mov	 eax, DWORD PTR __Val$[ebp]
  0006b	89 45 dc	 mov	 DWORD PTR $T2[ebp], eax
; File C:\Program Files (x86)\Microsoft Visual Studio\2019\Community\VC\Tools\MSVC\14.28.29333\include\xtree

; 806  :         _Alnode_traits::construct(this->_Al, _STD addressof(this->_Ptr->_Myval), _STD forward<_Valtys>(_Vals)...);

  0006e	ff 75 e8	 push	 DWORD PTR $T5[ebp]
  00071	ff 75 e4	 push	 DWORD PTR $T4[ebp]
  00074	ff 75 e0	 push	 DWORD PTR $T3[ebp]
  00077	ff 75 dc	 push	 DWORD PTR $T2[ebp]
  0007a	8b 45 f0	 mov	 eax, DWORD PTR _this$[ebp]
  0007d	ff 30		 push	 DWORD PTR [eax]
  0007f	e8 00 00 00 00	 call	 ??$construct@U?$pair@$$CBKPAVCLight@@@std@@ABUpiecewise_construct_t@2@V?$tuple@ABK@2@V?$tuple@$$V@2@@?$_Default_allocator_traits@V?$allocator@U?$_Tree_node@U?$pair@$$CBKPAVCLight@@@std@@PAX@std@@@std@@@std@@SAXAAV?$allocator@U?$_Tree_node@U?$pair@$$CBKPAVCLight@@@std@@PAX@std@@@1@QAU?$pair@$$CBKPAVCLight@@@1@ABUpiecewise_construct_t@1@$$QAV?$tuple@ABK@1@$$QAV?$tuple@$$V@1@@Z ; std::_Default_allocator_traits<std::allocator<std::_Tree_node<std::pair<unsigned long const ,CLight *>,void *> > >::construct<std::pair<unsigned long const ,CLight *>,std::piecewise_construct_t const &,std::tuple<unsigned long const &>,std::tuple<> >
  00084	83 c4 14	 add	 esp, 20			; 00000014H

; 807  :         _Construct_in_place(this->_Ptr->_Left, _Myhead);

  00087	8d 45 0c	 lea	 eax, DWORD PTR __Myhead$[ebp]
  0008a	50		 push	 eax
  0008b	8b 45 f0	 mov	 eax, DWORD PTR _this$[ebp]
  0008e	ff 70 04	 push	 DWORD PTR [eax+4]
  00091	e8 00 00 00 00	 call	 ??$_Construct_in_place@PAU?$_Tree_node@U?$pair@$$CBKPAVCLight@@@std@@PAX@std@@AAPAU12@@std@@YAXAAPAU?$_Tree_node@U?$pair@$$CBKPAVCLight@@@std@@PAX@0@0@Z ; std::_Construct_in_place<std::_Tree_node<std::pair<unsigned long const ,CLight *>,void *> *,std::_Tree_node<std::pair<unsigned long const ,CLight *>,void *> * &>
  00096	59		 pop	 ecx
  00097	59		 pop	 ecx

; 808  :         _Construct_in_place(this->_Ptr->_Parent, _Myhead);

  00098	8d 45 0c	 lea	 eax, DWORD PTR __Myhead$[ebp]
  0009b	50		 push	 eax
  0009c	8b 45 f0	 mov	 eax, DWORD PTR _this$[ebp]
  0009f	8b 40 04	 mov	 eax, DWORD PTR [eax+4]
  000a2	83 c0 04	 add	 eax, 4
  000a5	50		 push	 eax
  000a6	e8 00 00 00 00	 call	 ??$_Construct_in_place@PAU?$_Tree_node@U?$pair@$$CBKPAVCLight@@@std@@PAX@std@@AAPAU12@@std@@YAXAAPAU?$_Tree_node@U?$pair@$$CBKPAVCLight@@@std@@PAX@0@0@Z ; std::_Construct_in_place<std::_Tree_node<std::pair<unsigned long const ,CLight *>,void *> *,std::_Tree_node<std::pair<unsigned long const ,CLight *>,void *> * &>
  000ab	59		 pop	 ecx
  000ac	59		 pop	 ecx

; 809  :         _Construct_in_place(this->_Ptr->_Right, _Myhead);

  000ad	8d 45 0c	 lea	 eax, DWORD PTR __Myhead$[ebp]
  000b0	50		 push	 eax
  000b1	8b 45 f0	 mov	 eax, DWORD PTR _this$[ebp]
  000b4	8b 40 04	 mov	 eax, DWORD PTR [eax+4]
  000b7	83 c0 08	 add	 eax, 8
  000ba	50		 push	 eax
  000bb	e8 00 00 00 00	 call	 ??$_Construct_in_place@PAU?$_Tree_node@U?$pair@$$CBKPAVCLight@@@std@@PAX@std@@AAPAU12@@std@@YAXAAPAU?$_Tree_node@U?$pair@$$CBKPAVCLight@@@std@@PAX@0@0@Z ; std::_Construct_in_place<std::_Tree_node<std::pair<unsigned long const ,CLight *>,void *> *,std::_Tree_node<std::pair<unsigned long const ,CLight *>,void *> * &>
  000c0	59		 pop	 ecx
  000c1	59		 pop	 ecx

; 810  :         this->_Ptr->_Color = _Red;

  000c2	8b 45 f0	 mov	 eax, DWORD PTR _this$[ebp]
  000c5	8b 40 04	 mov	 eax, DWORD PTR [eax+4]
  000c8	c6 40 0c 00	 mov	 BYTE PTR [eax+12], 0

; 811  :         this->_Ptr->_Isnil = false;

  000cc	8b 45 f0	 mov	 eax, DWORD PTR _this$[ebp]
  000cf	8b 40 04	 mov	 eax, DWORD PTR [eax+4]
  000d2	c6 40 0d 00	 mov	 BYTE PTR [eax+13], 0

; 812  :     }

  000d6	83 4d fc ff	 or	 DWORD PTR __$EHRec$[ebp+8], -1
  000da	8b 45 f0	 mov	 eax, DWORD PTR _this$[ebp]
  000dd	8b 4d f4	 mov	 ecx, DWORD PTR __$EHRec$[ebp]
  000e0	64 89 0d 00 00
	00 00		 mov	 DWORD PTR fs:0, ecx
  000e7	59		 pop	 ecx
  000e8	c9		 leave
  000e9	c2 14 00	 ret	 20			; 00000014H
_TEXT	ENDS
;	COMDAT text$x
text$x	SEGMENT
__unwindfunclet$??$?0ABUpiecewise_construct_t@std@@V?$tuple@ABK@1@V?$tuple@$$V@1@@?$_Tree_temp_node@V?$allocator@U?$_Tree_node@U?$pair@$$CBKPAVCLight@@@std@@PAX@std@@@std@@@std@@QAE@AAV?$allocator@U?$_Tree_node@U?$pair@$$CBKPAVCLight@@@std@@PAX@std@@@1@PAU?$_Tree_node@U?$pair@$$CBKPAVCLight@@@std@@PAX@1@ABUpiecewise_construct_t@1@$$QAV?$tuple@ABK@1@$$QAV?$tuple@$$V@1@@Z$1:
  00000	8b 4d f0	 mov	 ecx, DWORD PTR _this$[ebp]
  00003	e9 00 00 00 00	 jmp	 ??1?$_Alloc_construct_ptr@V?$allocator@U?$_Tree_node@U?$pair@$$CBKPAVCLight@@@std@@PAX@std@@@std@@@std@@QAE@XZ ; std::_Alloc_construct_ptr<std::allocator<std::_Tree_node<std::pair<unsigned long const ,CLight *>,void *> > >::~_Alloc_construct_ptr<std::allocator<std::_Tree_node<std::pair<unsigned long const ,CLight *>,void *> > >
__unwindfunclet$??$?0ABUpiecewise_construct_t@std@@V?$tuple@ABK@1@V?$tuple@$$V@1@@?$_Tree_temp_node@V?$allocator@U?$_Tree_node@U?$pair@$$CBKPAVCLight@@@std@@PAX@std@@@std@@@std@@QAE@AAV?$allocator@U?$_Tree_node@U?$pair@$$CBKPAVCLight@@@std@@PAX@std@@@1@PAU?$_Tree_node@U?$pair@$$CBKPAVCLight@@@std@@PAX@1@ABUpiecewise_construct_t@1@$$QAV?$tuple@ABK@1@$$QAV?$tuple@$$V@1@@Z$0:
  00008	8b 4d f0	 mov	 ecx, DWORD PTR _this$[ebp]
  0000b	e9 00 00 00 00	 jmp	 ??1?$_Tree_temp_node_alloc@V?$allocator@U?$_Tree_node@U?$pair@$$CBKPAVCLight@@@std@@PAX@std@@@std@@@std@@QAE@XZ
  00010	cc		 int	 3
  00011	cc		 int	 3
  00012	cc		 int	 3
  00013	cc		 int	 3
  00014	cc		 int	 3
__ehhandler$??$?0ABUpiecewise_construct_t@std@@V?$tuple@ABK@1@V?$tuple@$$V@1@@?$_Tree_temp_node@V?$allocator@U?$_Tree_node@U?$pair@$$CBKPAVCLight@@@std@@PAX@std@@@std@@@std@@QAE@AAV?$allocator@U?$_Tree_node@U?$pair@$$CBKPAVCLight@@@std@@PAX@std@@@1@PAU?$_Tree_node@U?$pair@$$CBKPAVCLight@@@std@@PAX@1@ABUpiecewise_construct_t@1@$$QAV?$tuple@ABK@1@$$QAV?$tuple@$$V@1@@Z:
  00015	90		 npad	 1
  00016	90		 npad	 1
  00017	8b 54 24 08	 mov	 edx, DWORD PTR [esp+8]
  0001b	8d 42 0c	 lea	 eax, DWORD PTR [edx+12]
  0001e	8b 4a e4	 mov	 ecx, DWORD PTR [edx-28]
  00021	33 c8		 xor	 ecx, eax
  00023	e8 00 00 00 00	 call	 @__security_check_cookie@4
  00028	b8 00 00 00 00	 mov	 eax, OFFSET __ehfuncinfo$??$?0ABUpiecewise_construct_t@std@@V?$tuple@ABK@1@V?$tuple@$$V@1@@?$_Tree_temp_node@V?$allocator@U?$_Tree_node@U?$pair@$$CBKPAVCLight@@@std@@PAX@std@@@std@@@std@@QAE@AAV?$allocator@U?$_Tree_node@U?$pair@$$CBKPAVCLight@@@std@@PAX@std@@@1@PAU?$_Tree_node@U?$pair@$$CBKPAVCLight@@@std@@PAX@1@ABUpiecewise_construct_t@1@$$QAV?$tuple@ABK@1@$$QAV?$tuple@$$V@1@@Z
  0002d	e9 00 00 00 00	 jmp	 ___CxxFrameHandler3
text$x	ENDS
??$?0ABUpiecewise_construct_t@std@@V?$tuple@ABK@1@V?$tuple@$$V@1@@?$_Tree_temp_node@V?$allocator@U?$_Tree_node@U?$pair@$$CBKPAVCLight@@@std@@PAX@std@@@std@@@std@@QAE@AAV?$allocator@U?$_Tree_node@U?$pair@$$CBKPAVCLight@@@std@@PAX@std@@@1@PAU?$_Tree_node@U?$pair@$$CBKPAVCLight@@@std@@PAX@1@ABUpiecewise_construct_t@1@$$QAV?$tuple@ABK@1@$$QAV?$tuple@$$V@1@@Z ENDP ; std::_Tree_temp_node<std::allocator<std::_Tree_node<std::pair<unsigned long const ,CLight *>,void *> > >::_Tree_temp_node<std::allocator<std::_Tree_node<std::pair<unsigned long const ,CLight *>,void *> > ><std::piecewise_construct_t const &,std::tuple<unsigned long const &>,std::tuple<> >
; Function compile flags: /Odspy
; File C:\Program Files (x86)\Microsoft Visual Studio\2019\Community\VC\Tools\MSVC\14.28.29333\include\xtree
; File C:\Program Files (x86)\Microsoft Visual Studio\2019\Community\VC\Tools\MSVC\14.28.29333\include\xstddef
; File C:\Program Files (x86)\Microsoft Visual Studio\2019\Community\VC\Tools\MSVC\14.28.29333\include\xtree
;	COMDAT ??1?$_Tree_temp_node@V?$allocator@U?$_Tree_node@U?$pair@$$CBKPAVCLight@@@std@@PAX@std@@@std@@@std@@QAE@XZ
_TEXT	SEGMENT
$T1 = -12						; size = 4
__Val$ = -8						; size = 4
_this$ = -4						; size = 4
??1?$_Tree_temp_node@V?$allocator@U?$_Tree_node@U?$pair@$$CBKPAVCLight@@@std@@PAX@std@@@std@@@std@@QAE@XZ PROC ; std::_Tree_temp_node<std::allocator<std::_Tree_node<std::pair<unsigned long const ,CLight *>,void *> > >::~_Tree_temp_node<std::allocator<std::_Tree_node<std::pair<unsigned long const ,CLight *>,void *> > >, COMDAT
; _this$ = ecx

; 817  :     ~_Tree_temp_node() {

  00000	55		 push	 ebp
  00001	8b ec		 mov	 ebp, esp
  00003	83 ec 0c	 sub	 esp, 12			; 0000000cH
  00006	89 4d fc	 mov	 DWORD PTR _this$[ebp], ecx

; 818  :         if (this->_Ptr) {

  00009	8b 45 fc	 mov	 eax, DWORD PTR _this$[ebp]
  0000c	83 78 04 00	 cmp	 DWORD PTR [eax+4], 0
  00010	74 3e		 je	 SHORT $LN9@Tree_temp_

; 819  :             _Destroy_in_place(this->_Ptr->_Left);

  00012	8b 45 fc	 mov	 eax, DWORD PTR _this$[ebp]
  00015	ff 70 04	 push	 DWORD PTR [eax+4]
  00018	e8 00 00 00 00	 call	 ??$_Destroy_in_place@PAU?$_Tree_node@U?$pair@$$CBKPAVCLight@@@std@@PAX@std@@@std@@YAXAAPAU?$_Tree_node@U?$pair@$$CBKPAVCLight@@@std@@PAX@0@@Z ; std::_Destroy_in_place<std::_Tree_node<std::pair<unsigned long const ,CLight *>,void *> *>
  0001d	59		 pop	 ecx

; 820  :             _Destroy_in_place(this->_Ptr->_Parent);

  0001e	8b 45 fc	 mov	 eax, DWORD PTR _this$[ebp]
  00021	8b 40 04	 mov	 eax, DWORD PTR [eax+4]
  00024	83 c0 04	 add	 eax, 4
  00027	50		 push	 eax
  00028	e8 00 00 00 00	 call	 ??$_Destroy_in_place@PAU?$_Tree_node@U?$pair@$$CBKPAVCLight@@@std@@PAX@std@@@std@@YAXAAPAU?$_Tree_node@U?$pair@$$CBKPAVCLight@@@std@@PAX@0@@Z ; std::_Destroy_in_place<std::_Tree_node<std::pair<unsigned long const ,CLight *>,void *> *>
  0002d	59		 pop	 ecx

; 821  :             _Destroy_in_place(this->_Ptr->_Right);

  0002e	8b 45 fc	 mov	 eax, DWORD PTR _this$[ebp]
  00031	8b 40 04	 mov	 eax, DWORD PTR [eax+4]
  00034	83 c0 08	 add	 eax, 8
  00037	50		 push	 eax
  00038	e8 00 00 00 00	 call	 ??$_Destroy_in_place@PAU?$_Tree_node@U?$pair@$$CBKPAVCLight@@@std@@PAX@std@@@std@@YAXAAPAU?$_Tree_node@U?$pair@$$CBKPAVCLight@@@std@@PAX@0@@Z ; std::_Destroy_in_place<std::_Tree_node<std::pair<unsigned long const ,CLight *>,void *> *>
  0003d	59		 pop	 ecx

; 822  :             _Alnode_traits::destroy(this->_Al, _STD addressof(this->_Ptr->_Myval));

  0003e	8b 45 fc	 mov	 eax, DWORD PTR _this$[ebp]
  00041	8b 40 04	 mov	 eax, DWORD PTR [eax+4]
  00044	83 c0 10	 add	 eax, 16			; 00000010H
  00047	89 45 f8	 mov	 DWORD PTR __Val$[ebp], eax
; File C:\Program Files (x86)\Microsoft Visual Studio\2019\Community\VC\Tools\MSVC\14.28.29333\include\xstddef

; 275  :     return __builtin_addressof(_Val);

  0004a	8b 45 f8	 mov	 eax, DWORD PTR __Val$[ebp]
  0004d	89 45 f4	 mov	 DWORD PTR $T1[ebp], eax
$LN9@Tree_temp_:
  00050	8b 4d fc	 mov	 ecx, DWORD PTR _this$[ebp]
  00053	e8 00 00 00 00	 call	 ??1?$_Alloc_construct_ptr@V?$allocator@U?$_Tree_node@U?$pair@$$CBKPAVCLight@@@std@@PAX@std@@@std@@@std@@QAE@XZ ; std::_Alloc_construct_ptr<std::allocator<std::_Tree_node<std::pair<unsigned long const ,CLight *>,void *> > >::~_Alloc_construct_ptr<std::allocator<std::_Tree_node<std::pair<unsigned long const ,CLight *>,void *> > >
; File C:\Program Files (x86)\Microsoft Visual Studio\2019\Community\VC\Tools\MSVC\14.28.29333\include\xtree

; 824  :     }

  00058	c9		 leave
  00059	c3		 ret	 0
??1?$_Tree_temp_node@V?$allocator@U?$_Tree_node@U?$pair@$$CBKPAVCLight@@@std@@PAX@std@@@std@@@std@@QAE@XZ ENDP ; std::_Tree_temp_node<std::allocator<std::_Tree_node<std::pair<unsigned long const ,CLight *>,void *> > >::~_Tree_temp_node<std::allocator<std::_Tree_node<std::pair<unsigned long const ,CLight *>,void *> > >
_TEXT	ENDS
; Function compile flags: /Odspy
;	COMDAT ??1?$_Tree_temp_node_alloc@V?$allocator@U?$_Tree_node@U?$pair@$$CBKPAVCLight@@@std@@PAX@std@@@std@@@std@@QAE@XZ
_TEXT	SEGMENT
_this$ = -4						; size = 4
??1?$_Tree_temp_node_alloc@V?$allocator@U?$_Tree_node@U?$pair@$$CBKPAVCLight@@@std@@PAX@std@@@std@@@std@@QAE@XZ PROC ; std::_Tree_temp_node_alloc<std::allocator<std::_Tree_node<std::pair<unsigned long const ,CLight *>,void *> > >::~_Tree_temp_node_alloc<std::allocator<std::_Tree_node<std::pair<unsigned long const ,CLight *>,void *> > >, COMDAT
; _this$ = ecx
  00000	55		 push	 ebp
  00001	8b ec		 mov	 ebp, esp
  00003	51		 push	 ecx
  00004	89 4d fc	 mov	 DWORD PTR _this$[ebp], ecx
  00007	8b 4d fc	 mov	 ecx, DWORD PTR _this$[ebp]
  0000a	e8 00 00 00 00	 call	 ??1?$_Alloc_construct_ptr@V?$allocator@U?$_Tree_node@U?$pair@$$CBKPAVCLight@@@std@@PAX@std@@@std@@@std@@QAE@XZ ; std::_Alloc_construct_ptr<std::allocator<std::_Tree_node<std::pair<unsigned long const ,CLight *>,void *> > >::~_Alloc_construct_ptr<std::allocator<std::_Tree_node<std::pair<unsigned long const ,CLight *>,void *> > >
  0000f	c9		 leave
  00010	c3		 ret	 0
??1?$_Tree_temp_node_alloc@V?$allocator@U?$_Tree_node@U?$pair@$$CBKPAVCLight@@@std@@PAX@std@@@std@@@std@@QAE@XZ ENDP ; std::_Tree_temp_node_alloc<std::allocator<std::_Tree_node<std::pair<unsigned long const ,CLight *>,void *> > >::~_Tree_temp_node_alloc<std::allocator<std::_Tree_node<std::pair<unsigned long const ,CLight *>,void *> > >
_TEXT	ENDS
; Function compile flags: /Odspy
; File C:\Program Files (x86)\Microsoft Visual Studio\2019\Community\VC\Tools\MSVC\14.28.29333\include\xmemory
;	COMDAT ??1?$_Alloc_construct_ptr@V?$allocator@U?$_Tree_node@U?$pair@$$CBKPAVCLight@@@std@@PAX@std@@@std@@@std@@QAE@XZ
_TEXT	SEGMENT
_this$ = -12						; size = 4
__Ptr$ = -8						; size = 4
_this$ = -4						; size = 4
??1?$_Alloc_construct_ptr@V?$allocator@U?$_Tree_node@U?$pair@$$CBKPAVCLight@@@std@@PAX@std@@@std@@@std@@QAE@XZ PROC ; std::_Alloc_construct_ptr<std::allocator<std::_Tree_node<std::pair<unsigned long const ,CLight *>,void *> > >::~_Alloc_construct_ptr<std::allocator<std::_Tree_node<std::pair<unsigned long const ,CLight *>,void *> > >, COMDAT
; _this$ = ecx

; 1056 :     ~_Alloc_construct_ptr() { // if this instance is engaged, deallocate storage

  00000	55		 push	 ebp
  00001	8b ec		 mov	 ebp, esp
  00003	83 ec 0c	 sub	 esp, 12			; 0000000cH
  00006	89 4d fc	 mov	 DWORD PTR _this$[ebp], ecx

; 1057 :         if (_Ptr) {

  00009	8b 45 fc	 mov	 eax, DWORD PTR _this$[ebp]
  0000c	83 78 04 00	 cmp	 DWORD PTR [eax+4], 0
  00010	74 22		 je	 SHORT $LN3@Alloc_cons

; 1058 :             _Al.deallocate(_Ptr, 1);

  00012	8b 45 fc	 mov	 eax, DWORD PTR _this$[ebp]
  00015	8b 40 04	 mov	 eax, DWORD PTR [eax+4]
  00018	89 45 f8	 mov	 DWORD PTR __Ptr$[ebp], eax
  0001b	8b 45 fc	 mov	 eax, DWORD PTR _this$[ebp]
  0001e	8b 00		 mov	 eax, DWORD PTR [eax]
  00020	89 45 f4	 mov	 DWORD PTR _this$[ebp], eax

; 810  :         _Deallocate<_New_alignof<_Ty>>(_Ptr, sizeof(_Ty) * _Count);

  00023	33 c0		 xor	 eax, eax
  00025	40		 inc	 eax
  00026	6b c0 18	 imul	 eax, eax, 24
  00029	50		 push	 eax
  0002a	ff 75 f8	 push	 DWORD PTR __Ptr$[ebp]
  0002d	e8 00 00 00 00	 call	 ??$_Deallocate@$07$0A@@std@@YAXPAXI@Z ; std::_Deallocate<8,0>
  00032	59		 pop	 ecx
  00033	59		 pop	 ecx
$LN3@Alloc_cons:

; 1059 :         }
; 1060 :     }

  00034	c9		 leave
  00035	c3		 ret	 0
??1?$_Alloc_construct_ptr@V?$allocator@U?$_Tree_node@U?$pair@$$CBKPAVCLight@@@std@@PAX@std@@@std@@@std@@QAE@XZ ENDP ; std::_Alloc_construct_ptr<std::allocator<std::_Tree_node<std::pair<unsigned long const ,CLight *>,void *> > >::~_Alloc_construct_ptr<std::allocator<std::_Tree_node<std::pair<unsigned long const ,CLight *>,void *> > >
_TEXT	ENDS
; Function compile flags: /Odspy
; File C:\Program Files (x86)\Microsoft Visual Studio\2019\Community\VC\Tools\MSVC\14.28.29333\include\xmemory
;	COMDAT ?_Allocate@?$_Alloc_construct_ptr@V?$allocator@U?$_Tree_node@U?$pair@$$CBKPAVCLight@@@std@@PAX@std@@@std@@@std@@QAEXXZ
_TEXT	SEGMENT
__Max_possible$1 = -24					; size = 4
_this$ = -20						; size = 4
$T2 = -16						; size = 4
$T3 = -12						; size = 4
_this$ = -8						; size = 4
__Overflow_is_possible$4 = -1				; size = 1
?_Allocate@?$_Alloc_construct_ptr@V?$allocator@U?$_Tree_node@U?$pair@$$CBKPAVCLight@@@std@@PAX@std@@@std@@@std@@QAEXXZ PROC ; std::_Alloc_construct_ptr<std::allocator<std::_Tree_node<std::pair<unsigned long const ,CLight *>,void *> > >::_Allocate, COMDAT
; _this$ = ecx

; 1051 :     void _Allocate() { // disengage *this, then allocate a new memory block

  00000	55		 push	 ebp
  00001	8b ec		 mov	 ebp, esp
  00003	83 ec 18	 sub	 esp, 24			; 00000018H
  00006	89 4d f8	 mov	 DWORD PTR _this$[ebp], ecx

; 1052 :         _Ptr = nullptr; // if allocate throws, prevents double-free

  00009	8b 45 f8	 mov	 eax, DWORD PTR _this$[ebp]
  0000c	83 60 04 00	 and	 DWORD PTR [eax+4], 0

; 1053 :         _Ptr = _Al.allocate(1);

  00010	8b 45 f8	 mov	 eax, DWORD PTR _this$[ebp]
  00013	8b 00		 mov	 eax, DWORD PTR [eax]
  00015	89 45 ec	 mov	 DWORD PTR _this$[ebp], eax

; 56   :     constexpr bool _Overflow_is_possible = _Ty_size > 1;

  00018	c6 45 ff 01	 mov	 BYTE PTR __Overflow_is_possible$4[ebp], 1

; 57   : 
; 58   :     if _CONSTEXPR_IF (_Overflow_is_possible) {
; 59   :         constexpr size_t _Max_possible = static_cast<size_t>(-1) / _Ty_size;

  0001c	c7 45 e8 aa aa
	aa 0a		 mov	 DWORD PTR __Max_possible$1[ebp], 178956970 ; 0aaaaaaaH

; 60   :         if (_Count > _Max_possible) {

  00023	33 c0		 xor	 eax, eax
  00025	40		 inc	 eax
  00026	3d aa aa aa 0a	 cmp	 eax, 178956970		; 0aaaaaaaH
  0002b	76 05		 jbe	 SHORT $LN6@Allocate

; 61   :             _Throw_bad_array_new_length(); // multiply overflow

  0002d	e8 00 00 00 00	 call	 ?_Throw_bad_array_new_length@std@@YAXXZ ; std::_Throw_bad_array_new_length
$LN6@Allocate:

; 62   :         }
; 63   :     }
; 64   : 
; 65   :     return _Count * _Ty_size;

  00032	33 c0		 xor	 eax, eax
  00034	40		 inc	 eax
  00035	6b c0 18	 imul	 eax, eax, 24
  00038	89 45 f4	 mov	 DWORD PTR $T3[ebp], eax

; 814  :         return static_cast<_Ty*>(_Allocate<_New_alignof<_Ty>>(_Get_size_of_n<sizeof(_Ty)>(_Count)));

  0003b	ff 75 f4	 push	 DWORD PTR $T3[ebp]
  0003e	e8 00 00 00 00	 call	 ??$_Allocate@$07U_Default_allocate_traits@std@@$0A@@std@@YAPAXI@Z ; std::_Allocate<8,std::_Default_allocate_traits,0>
  00043	59		 pop	 ecx
  00044	89 45 f0	 mov	 DWORD PTR $T2[ebp], eax

; 1053 :         _Ptr = _Al.allocate(1);

  00047	8b 45 f8	 mov	 eax, DWORD PTR _this$[ebp]
  0004a	8b 4d f0	 mov	 ecx, DWORD PTR $T2[ebp]
  0004d	89 48 04	 mov	 DWORD PTR [eax+4], ecx
$LN9@Allocate:

; 1054 :     }

  00050	c9		 leave
  00051	c3		 ret	 0
?_Allocate@?$_Alloc_construct_ptr@V?$allocator@U?$_Tree_node@U?$pair@$$CBKPAVCLight@@@std@@PAX@std@@@std@@@std@@QAEXXZ ENDP ; std::_Alloc_construct_ptr<std::allocator<std::_Tree_node<std::pair<unsigned long const ,CLight *>,void *> > >::_Allocate
_TEXT	ENDS
; Function compile flags: /Odspy
; File C:\Program Files (x86)\Microsoft Visual Studio\2019\Community\VC\Tools\MSVC\14.28.29333\include\xtree
; File C:\Program Files (x86)\Microsoft Visual Studio\2019\Community\VC\Tools\MSVC\14.28.29333\include\xstddef
; File C:\Program Files (x86)\Microsoft Visual Studio\2019\Community\VC\Tools\MSVC\14.28.29333\include\xtree
; File C:\Program Files (x86)\Microsoft Visual Studio\2019\Community\VC\Tools\MSVC\14.28.29333\include\xmemory
; File C:\Program Files (x86)\Microsoft Visual Studio\2019\Community\VC\Tools\MSVC\14.28.29333\include\xtree
; File C:\Program Files (x86)\Microsoft Visual Studio\2019\Community\VC\Tools\MSVC\14.28.29333\include\xstddef
; File C:\Program Files (x86)\Microsoft Visual Studio\2019\Community\VC\Tools\MSVC\14.28.29333\include\xtree
;	COMDAT ??$_Find_lower_bound@K@?$_Tree@V?$_Tmap_traits@KPAVCLight@@U?$less@K@std@@V?$allocator@U?$pair@$$CBKPAVCLight@@@std@@@3@$0A@@std@@@std@@IBE?AU?$_Tree_find_result@PAU?$_Tree_node@U?$pair@$$CBKPAVCLight@@@std@@PAX@std@@@1@ABK@Z
_TEXT	SEGMENT
__Result$ = -40						; size = 12
$T1 = -28						; size = 4
$T2 = -24						; size = 4
$T3 = -20						; size = 4
tv64 = -16						; size = 4
_this$ = -12						; size = 4
__Scary$ = -8						; size = 4
__Trynode$ = -4						; size = 4
___$ReturnUdt$ = 8					; size = 4
__Keyval$ = 12						; size = 4
??$_Find_lower_bound@K@?$_Tree@V?$_Tmap_traits@KPAVCLight@@U?$less@K@std@@V?$allocator@U?$pair@$$CBKPAVCLight@@@std@@@3@$0A@@std@@@std@@IBE?AU?$_Tree_find_result@PAU?$_Tree_node@U?$pair@$$CBKPAVCLight@@@std@@PAX@std@@@1@ABK@Z PROC ; std::_Tree<std::_Tmap_traits<unsigned long,CLight *,std::less<unsigned long>,std::allocator<std::pair<unsigned long const ,CLight *> >,0> >::_Find_lower_bound<unsigned long>, COMDAT
; _this$ = ecx

; 1699 :     _Tree_find_result<_Nodeptr> _Find_lower_bound(const _Keyty& _Keyval) const {

  00000	55		 push	 ebp
  00001	8b ec		 mov	 ebp, esp
  00003	83 ec 28	 sub	 esp, 40			; 00000028H
  00006	56		 push	 esi
  00007	57		 push	 edi
  00008	89 4d f4	 mov	 DWORD PTR _this$[ebp], ecx

; 2051 :         return _STD addressof(_Mypair._Myval2._Myval2);

  0000b	8b 45 f4	 mov	 eax, DWORD PTR _this$[ebp]
; File C:\Program Files (x86)\Microsoft Visual Studio\2019\Community\VC\Tools\MSVC\14.28.29333\include\xstddef

; 275  :     return __builtin_addressof(_Val);

  0000e	89 45 ec	 mov	 DWORD PTR $T3[ebp], eax
; File C:\Program Files (x86)\Microsoft Visual Studio\2019\Community\VC\Tools\MSVC\14.28.29333\include\xtree

; 2051 :         return _STD addressof(_Mypair._Myval2._Myval2);

  00011	8b 45 ec	 mov	 eax, DWORD PTR $T3[ebp]
  00014	89 45 f8	 mov	 DWORD PTR __Scary$[ebp], eax

; 1700 :         const auto _Scary = _Get_scary();
; 1701 :         _Tree_find_result<_Nodeptr> _Result{{_Scary->_Myhead->_Parent, _Tree_child::_Right}, _Scary->_Myhead};

  00017	8b 45 f8	 mov	 eax, DWORD PTR __Scary$[ebp]
  0001a	8b 00		 mov	 eax, DWORD PTR [eax]
  0001c	8b 40 04	 mov	 eax, DWORD PTR [eax+4]
  0001f	89 45 d8	 mov	 DWORD PTR __Result$[ebp], eax
  00022	83 65 dc 00	 and	 DWORD PTR __Result$[ebp+4], 0
  00026	8b 45 f8	 mov	 eax, DWORD PTR __Scary$[ebp]
  00029	8b 00		 mov	 eax, DWORD PTR [eax]
  0002b	89 45 e0	 mov	 DWORD PTR __Result$[ebp+8], eax

; 1702 :         _Nodeptr _Trynode = _Result._Location._Parent;

  0002e	8b 45 d8	 mov	 eax, DWORD PTR __Result$[ebp]
  00031	89 45 fc	 mov	 DWORD PTR __Trynode$[ebp], eax
$LN2@Find_lower:

; 1703 :         while (!_Trynode->_Isnil) {

  00034	8b 45 fc	 mov	 eax, DWORD PTR __Trynode$[ebp]
  00037	0f be 40 0d	 movsx	 eax, BYTE PTR [eax+13]
  0003b	85 c0		 test	 eax, eax
  0003d	75 5a		 jne	 SHORT $LN3@Find_lower

; 1704 :             _Result._Location._Parent = _Trynode;

  0003f	8b 45 fc	 mov	 eax, DWORD PTR __Trynode$[ebp]
  00042	89 45 d8	 mov	 DWORD PTR __Result$[ebp], eax

; 2035 :         return _Mypair._Get_first();

  00045	8b 45 f4	 mov	 eax, DWORD PTR _this$[ebp]
; File C:\Program Files (x86)\Microsoft Visual Studio\2019\Community\VC\Tools\MSVC\14.28.29333\include\xmemory

; 1351 :         return *this;

  00048	89 45 e8	 mov	 DWORD PTR $T2[ebp], eax
; File C:\Program Files (x86)\Microsoft Visual Studio\2019\Community\VC\Tools\MSVC\14.28.29333\include\xtree

; 2035 :         return _Mypair._Get_first();

  0004b	8b 45 e8	 mov	 eax, DWORD PTR $T2[ebp]
  0004e	89 45 e4	 mov	 DWORD PTR $T1[ebp], eax
; File C:\Program Files (x86)\Microsoft Visual Studio\2019\Community\VC\Tools\MSVC\14.28.29333\include\xstddef

; 127  :         return _Left < _Right;

  00051	8b 45 fc	 mov	 eax, DWORD PTR __Trynode$[ebp]
  00054	8b 4d 0c	 mov	 ecx, DWORD PTR __Keyval$[ebp]
  00057	8b 40 10	 mov	 eax, DWORD PTR [eax+16]
  0005a	3b 01		 cmp	 eax, DWORD PTR [ecx]
  0005c	73 09		 jae	 SHORT $LN23@Find_lower
  0005e	c7 45 f0 01 00
	00 00		 mov	 DWORD PTR tv64[ebp], 1
  00065	eb 04		 jmp	 SHORT $LN21@Find_lower
$LN23@Find_lower:
  00067	83 65 f0 00	 and	 DWORD PTR tv64[ebp], 0
$LN21@Find_lower:
; File C:\Program Files (x86)\Microsoft Visual Studio\2019\Community\VC\Tools\MSVC\14.28.29333\include\xtree

; 1705 :             if (_DEBUG_LT_PRED(_Getcomp(), _Traits::_Kfn(_Trynode->_Myval), _Keyval)) {

  0006b	0f b6 45 f0	 movzx	 eax, BYTE PTR tv64[ebp]
  0006f	85 c0		 test	 eax, eax
  00071	74 0f		 je	 SHORT $LN4@Find_lower

; 1706 :                 _Result._Location._Child = _Tree_child::_Right;

  00073	83 65 dc 00	 and	 DWORD PTR __Result$[ebp+4], 0

; 1707 :                 _Trynode                 = _Trynode->_Right;

  00077	8b 45 fc	 mov	 eax, DWORD PTR __Trynode$[ebp]
  0007a	8b 40 08	 mov	 eax, DWORD PTR [eax+8]
  0007d	89 45 fc	 mov	 DWORD PTR __Trynode$[ebp], eax

; 1708 :             } else {

  00080	eb 15		 jmp	 SHORT $LN5@Find_lower
$LN4@Find_lower:

; 1709 :                 _Result._Location._Child = _Tree_child::_Left;

  00082	c7 45 dc 01 00
	00 00		 mov	 DWORD PTR __Result$[ebp+4], 1

; 1710 :                 _Result._Bound           = _Trynode;

  00089	8b 45 fc	 mov	 eax, DWORD PTR __Trynode$[ebp]
  0008c	89 45 e0	 mov	 DWORD PTR __Result$[ebp+8], eax

; 1711 :                 _Trynode                 = _Trynode->_Left;

  0008f	8b 45 fc	 mov	 eax, DWORD PTR __Trynode$[ebp]
  00092	8b 00		 mov	 eax, DWORD PTR [eax]
  00094	89 45 fc	 mov	 DWORD PTR __Trynode$[ebp], eax
$LN5@Find_lower:

; 1712 :             }
; 1713 :         }

  00097	eb 9b		 jmp	 SHORT $LN2@Find_lower
$LN3@Find_lower:

; 1714 : 
; 1715 :         return _Result;

  00099	8d 75 d8	 lea	 esi, DWORD PTR __Result$[ebp]
  0009c	8b 7d 08	 mov	 edi, DWORD PTR ___$ReturnUdt$[ebp]
  0009f	a5		 movsd
  000a0	a5		 movsd
  000a1	a5		 movsd
  000a2	8b 45 08	 mov	 eax, DWORD PTR ___$ReturnUdt$[ebp]

; 1716 :     }

  000a5	5f		 pop	 edi
  000a6	5e		 pop	 esi
  000a7	c9		 leave
  000a8	c2 08 00	 ret	 8
??$_Find_lower_bound@K@?$_Tree@V?$_Tmap_traits@KPAVCLight@@U?$less@K@std@@V?$allocator@U?$pair@$$CBKPAVCLight@@@std@@@3@$0A@@std@@@std@@IBE?AU?$_Tree_find_result@PAU?$_Tree_node@U?$pair@$$CBKPAVCLight@@@std@@PAX@std@@@1@ABK@Z ENDP ; std::_Tree<std::_Tmap_traits<unsigned long,CLight *,std::less<unsigned long>,std::allocator<std::pair<unsigned long const ,CLight *> >,0> >::_Find_lower_bound<unsigned long>
_TEXT	ENDS
; Function compile flags: /Odspy
; File C:\Program Files (x86)\Microsoft Visual Studio\2019\Community\VC\Tools\MSVC\14.28.29333\include\algorithm
;	COMDAT ??$_Sort_unchecked@PAPAVCLight@@ULightComp@@@std@@YAXPAPAVCLight@@0HULightComp@@@Z
_TEXT	SEGMENT
__Mid$1 = -12						; size = 8
__Last$ = -4						; size = 4
__First$ = 8						; size = 4
__Last$ = 12						; size = 4
__Ideal$ = 16						; size = 4
__Pred$ = 20						; size = 1
??$_Sort_unchecked@PAPAVCLight@@ULightComp@@@std@@YAXPAPAVCLight@@0HULightComp@@@Z PROC ; std::_Sort_unchecked<CLight * *,LightComp>, COMDAT

; 7537 : _CONSTEXPR20 void _Sort_unchecked(_RanIt _First, _RanIt _Last, _Iter_diff_t<_RanIt> _Ideal, _Pr _Pred) {

  00000	55		 push	 ebp
  00001	8b ec		 mov	 ebp, esp
  00003	83 ec 0c	 sub	 esp, 12			; 0000000cH
$LN4@Sort_unche:

; 7538 :     // order [_First, _Last)
; 7539 :     for (;;) {
; 7540 :         if (_Last - _First <= _ISORT_MAX) { // small

  00006	8b 45 0c	 mov	 eax, DWORD PTR __Last$[ebp]
  00009	2b 45 08	 sub	 eax, DWORD PTR __First$[ebp]
  0000c	c1 f8 02	 sar	 eax, 2
  0000f	83 f8 20	 cmp	 eax, 32			; 00000020H
  00012	7f 16		 jg	 SHORT $LN5@Sort_unche

; 7541 :             _Insertion_sort_unchecked(_First, _Last, _Pred);

  00014	ff 75 14	 push	 DWORD PTR __Pred$[ebp]
  00017	ff 75 0c	 push	 DWORD PTR __Last$[ebp]
  0001a	ff 75 08	 push	 DWORD PTR __First$[ebp]
  0001d	e8 00 00 00 00	 call	 ??$_Insertion_sort_unchecked@PAPAVCLight@@ULightComp@@@std@@YAPAPAVCLight@@QAPAV1@0ULightComp@@@Z ; std::_Insertion_sort_unchecked<CLight * *,LightComp>
  00022	83 c4 0c	 add	 esp, 12			; 0000000cH

; 7542 :             return;

  00025	e9 c1 00 00 00	 jmp	 $LN1@Sort_unche
$LN5@Sort_unche:

; 7543 :         }
; 7544 : 
; 7545 :         if (_Ideal <= 0) { // heap sort if too many divisions

  0002a	83 7d 10 00	 cmp	 DWORD PTR __Ideal$[ebp], 0
  0002e	7f 45		 jg	 SHORT $LN6@Sort_unche

; 7546 :             _Make_heap_unchecked(_First, _Last, _Pred);

  00030	ff 75 14	 push	 DWORD PTR __Pred$[ebp]
  00033	ff 75 0c	 push	 DWORD PTR __Last$[ebp]
  00036	ff 75 08	 push	 DWORD PTR __First$[ebp]
  00039	e8 00 00 00 00	 call	 ??$_Make_heap_unchecked@PAPAVCLight@@ULightComp@@@std@@YAXPAPAVCLight@@0ULightComp@@@Z ; std::_Make_heap_unchecked<CLight * *,LightComp>
  0003e	83 c4 0c	 add	 esp, 12			; 0000000cH

; 7547 :             _Sort_heap_unchecked(_First, _Last, _Pred);

  00041	8b 45 0c	 mov	 eax, DWORD PTR __Last$[ebp]
  00044	89 45 fc	 mov	 DWORD PTR __Last$[ebp], eax

; 6592 :     for (; _Last - _First >= 2; --_Last) {

  00047	eb 09		 jmp	 SHORT $LN70@Sort_unche
$LN68@Sort_unche:
  00049	8b 45 fc	 mov	 eax, DWORD PTR __Last$[ebp]
  0004c	83 e8 04	 sub	 eax, 4
  0004f	89 45 fc	 mov	 DWORD PTR __Last$[ebp], eax
$LN70@Sort_unche:
  00052	8b 45 fc	 mov	 eax, DWORD PTR __Last$[ebp]
  00055	2b 45 08	 sub	 eax, DWORD PTR __First$[ebp]
  00058	c1 f8 02	 sar	 eax, 2
  0005b	83 f8 02	 cmp	 eax, 2
  0005e	7c 13		 jl	 SHORT $LN67@Sort_unche

; 6593 :         _Pop_heap_unchecked(_First, _Last, _Pred);

  00060	ff 75 14	 push	 DWORD PTR __Pred$[ebp]
  00063	ff 75 fc	 push	 DWORD PTR __Last$[ebp]
  00066	ff 75 08	 push	 DWORD PTR __First$[ebp]
  00069	e8 00 00 00 00	 call	 ??$_Pop_heap_unchecked@PAPAVCLight@@ULightComp@@@std@@YAXPAPAVCLight@@0ULightComp@@@Z ; std::_Pop_heap_unchecked<CLight * *,LightComp>
  0006e	83 c4 0c	 add	 esp, 12			; 0000000cH

; 6594 :     }

  00071	eb d6		 jmp	 SHORT $LN68@Sort_unche
$LN67@Sort_unche:

; 7548 :             return;

  00073	eb 76		 jmp	 SHORT $LN1@Sort_unche
$LN6@Sort_unche:

; 7549 :         }
; 7550 : 
; 7551 :         // divide and conquer by quicksort
; 7552 :         auto _Mid = _Partition_by_median_guess_unchecked(_First, _Last, _Pred);

  00075	ff 75 14	 push	 DWORD PTR __Pred$[ebp]
  00078	ff 75 0c	 push	 DWORD PTR __Last$[ebp]
  0007b	ff 75 08	 push	 DWORD PTR __First$[ebp]
  0007e	8d 45 f4	 lea	 eax, DWORD PTR __Mid$1[ebp]
  00081	50		 push	 eax
  00082	e8 00 00 00 00	 call	 ??$_Partition_by_median_guess_unchecked@PAPAVCLight@@ULightComp@@@std@@YA?AU?$pair@PAPAVCLight@@PAPAV1@@0@PAPAVCLight@@0ULightComp@@@Z ; std::_Partition_by_median_guess_unchecked<CLight * *,LightComp>
  00087	83 c4 10	 add	 esp, 16			; 00000010H

; 7553 : 
; 7554 :         _Ideal = (_Ideal >> 1) + (_Ideal >> 2); // allow 1.5 log2(N) divisions

  0008a	8b 45 10	 mov	 eax, DWORD PTR __Ideal$[ebp]
  0008d	d1 f8		 sar	 eax, 1
  0008f	8b 4d 10	 mov	 ecx, DWORD PTR __Ideal$[ebp]
  00092	c1 f9 02	 sar	 ecx, 2
  00095	03 c1		 add	 eax, ecx
  00097	89 45 10	 mov	 DWORD PTR __Ideal$[ebp], eax

; 7555 : 
; 7556 :         if (_Mid.first - _First < _Last - _Mid.second) { // loop on second half

  0009a	8b 45 f4	 mov	 eax, DWORD PTR __Mid$1[ebp]
  0009d	2b 45 08	 sub	 eax, DWORD PTR __First$[ebp]
  000a0	c1 f8 02	 sar	 eax, 2
  000a3	8b 4d 0c	 mov	 ecx, DWORD PTR __Last$[ebp]
  000a6	2b 4d f8	 sub	 ecx, DWORD PTR __Mid$1[ebp+4]
  000a9	c1 f9 02	 sar	 ecx, 2
  000ac	3b c1		 cmp	 eax, ecx
  000ae	7d 1c		 jge	 SHORT $LN7@Sort_unche

; 7557 :             _Sort_unchecked(_First, _Mid.first, _Ideal, _Pred);

  000b0	ff 75 14	 push	 DWORD PTR __Pred$[ebp]
  000b3	ff 75 10	 push	 DWORD PTR __Ideal$[ebp]
  000b6	ff 75 f4	 push	 DWORD PTR __Mid$1[ebp]
  000b9	ff 75 08	 push	 DWORD PTR __First$[ebp]
  000bc	e8 00 00 00 00	 call	 ??$_Sort_unchecked@PAPAVCLight@@ULightComp@@@std@@YAXPAPAVCLight@@0HULightComp@@@Z ; std::_Sort_unchecked<CLight * *,LightComp>
  000c1	83 c4 10	 add	 esp, 16			; 00000010H

; 7558 :             _First = _Mid.second;

  000c4	8b 45 f8	 mov	 eax, DWORD PTR __Mid$1[ebp+4]
  000c7	89 45 08	 mov	 DWORD PTR __First$[ebp], eax

; 7559 :         } else { // loop on first half

  000ca	eb 1a		 jmp	 SHORT $LN8@Sort_unche
$LN7@Sort_unche:

; 7560 :             _Sort_unchecked(_Mid.second, _Last, _Ideal, _Pred);

  000cc	ff 75 14	 push	 DWORD PTR __Pred$[ebp]
  000cf	ff 75 10	 push	 DWORD PTR __Ideal$[ebp]
  000d2	ff 75 0c	 push	 DWORD PTR __Last$[ebp]
  000d5	ff 75 f8	 push	 DWORD PTR __Mid$1[ebp+4]
  000d8	e8 00 00 00 00	 call	 ??$_Sort_unchecked@PAPAVCLight@@ULightComp@@@std@@YAXPAPAVCLight@@0HULightComp@@@Z ; std::_Sort_unchecked<CLight * *,LightComp>
  000dd	83 c4 10	 add	 esp, 16			; 00000010H

; 7561 :             _Last = _Mid.first;

  000e0	8b 45 f4	 mov	 eax, DWORD PTR __Mid$1[ebp]
  000e3	89 45 0c	 mov	 DWORD PTR __Last$[ebp], eax
$LN8@Sort_unche:

; 7562 :         }
; 7563 :     }

  000e6	e9 1b ff ff ff	 jmp	 $LN4@Sort_unche
$LN1@Sort_unche:

; 7564 : }

  000eb	c9		 leave
  000ec	c3		 ret	 0
??$_Sort_unchecked@PAPAVCLight@@ULightComp@@@std@@YAXPAPAVCLight@@0HULightComp@@@Z ENDP ; std::_Sort_unchecked<CLight * *,LightComp>
_TEXT	ENDS
; Function compile flags: /Odspy
; File C:\Program Files (x86)\Microsoft Visual Studio\2019\Community\VC\Tools\MSVC\14.28.29333\include\xtree
; File C:\Program Files (x86)\Microsoft Visual Studio\2019\Community\VC\Tools\MSVC\14.28.29333\include\xmemory
; File C:\Program Files (x86)\Microsoft Visual Studio\2019\Community\VC\Tools\MSVC\14.28.29333\include\xtree
;	COMDAT ??$_Buyheadnode@V?$allocator@U?$_Tree_node@U?$pair@$$CBKPAVCLight@@@std@@PAX@std@@@std@@@?$_Tree_node@U?$pair@$$CBKPAVCLight@@@std@@PAX@std@@SAPAU01@AAV?$allocator@U?$_Tree_node@U?$pair@$$CBKPAVCLight@@@std@@PAX@std@@@1@@Z
_TEXT	SEGMENT
__Max_possible$1 = -20					; size = 4
$T2 = -16						; size = 4
$T3 = -12						; size = 4
__Pnode$ = -8						; size = 4
__Overflow_is_possible$4 = -1				; size = 1
__Al$ = 8						; size = 4
??$_Buyheadnode@V?$allocator@U?$_Tree_node@U?$pair@$$CBKPAVCLight@@@std@@PAX@std@@@std@@@?$_Tree_node@U?$pair@$$CBKPAVCLight@@@std@@PAX@std@@SAPAU01@AAV?$allocator@U?$_Tree_node@U?$pair@$$CBKPAVCLight@@@std@@PAX@std@@@1@@Z PROC ; std::_Tree_node<std::pair<unsigned long const ,CLight *>,void *>::_Buyheadnode<std::allocator<std::_Tree_node<std::pair<unsigned long const ,CLight *>,void *> > >, COMDAT

; 341  :     static _Nodeptr _Buyheadnode(_Alloc& _Al) {

  00000	55		 push	 ebp
  00001	8b ec		 mov	 ebp, esp
  00003	83 ec 14	 sub	 esp, 20			; 00000014H
; File C:\Program Files (x86)\Microsoft Visual Studio\2019\Community\VC\Tools\MSVC\14.28.29333\include\xmemory

; 56   :     constexpr bool _Overflow_is_possible = _Ty_size > 1;

  00006	c6 45 ff 01	 mov	 BYTE PTR __Overflow_is_possible$4[ebp], 1

; 57   : 
; 58   :     if _CONSTEXPR_IF (_Overflow_is_possible) {
; 59   :         constexpr size_t _Max_possible = static_cast<size_t>(-1) / _Ty_size;

  0000a	c7 45 ec aa aa
	aa 0a		 mov	 DWORD PTR __Max_possible$1[ebp], 178956970 ; 0aaaaaaaH

; 60   :         if (_Count > _Max_possible) {

  00011	33 c0		 xor	 eax, eax
  00013	40		 inc	 eax
  00014	3d aa aa aa 0a	 cmp	 eax, 178956970		; 0aaaaaaaH
  00019	76 05		 jbe	 SHORT $LN6@Buyheadnod

; 61   :             _Throw_bad_array_new_length(); // multiply overflow

  0001b	e8 00 00 00 00	 call	 ?_Throw_bad_array_new_length@std@@YAXXZ ; std::_Throw_bad_array_new_length
$LN6@Buyheadnod:

; 62   :         }
; 63   :     }
; 64   : 
; 65   :     return _Count * _Ty_size;

  00020	33 c0		 xor	 eax, eax
  00022	40		 inc	 eax
  00023	6b c0 18	 imul	 eax, eax, 24
  00026	89 45 f4	 mov	 DWORD PTR $T3[ebp], eax

; 814  :         return static_cast<_Ty*>(_Allocate<_New_alignof<_Ty>>(_Get_size_of_n<sizeof(_Ty)>(_Count)));

  00029	ff 75 f4	 push	 DWORD PTR $T3[ebp]
  0002c	e8 00 00 00 00	 call	 ??$_Allocate@$07U_Default_allocate_traits@std@@$0A@@std@@YAPAXI@Z ; std::_Allocate<8,std::_Default_allocate_traits,0>
  00031	59		 pop	 ecx
  00032	89 45 f0	 mov	 DWORD PTR $T2[ebp], eax
; File C:\Program Files (x86)\Microsoft Visual Studio\2019\Community\VC\Tools\MSVC\14.28.29333\include\xtree

; 343  :         const auto _Pnode = _Al.allocate(1);

  00035	8b 45 f0	 mov	 eax, DWORD PTR $T2[ebp]
  00038	89 45 f8	 mov	 DWORD PTR __Pnode$[ebp], eax

; 344  :         _Construct_in_place(_Pnode->_Left, _Pnode);

  0003b	8d 45 f8	 lea	 eax, DWORD PTR __Pnode$[ebp]
  0003e	50		 push	 eax
  0003f	ff 75 f8	 push	 DWORD PTR __Pnode$[ebp]
  00042	e8 00 00 00 00	 call	 ??$_Construct_in_place@PAU?$_Tree_node@U?$pair@$$CBKPAVCLight@@@std@@PAX@std@@ABQAU12@@std@@YAXAAPAU?$_Tree_node@U?$pair@$$CBKPAVCLight@@@std@@PAX@0@ABQAU10@@Z ; std::_Construct_in_place<std::_Tree_node<std::pair<unsigned long const ,CLight *>,void *> *,std::_Tree_node<std::pair<unsigned long const ,CLight *>,void *> * const &>
  00047	59		 pop	 ecx
  00048	59		 pop	 ecx

; 345  :         _Construct_in_place(_Pnode->_Parent, _Pnode);

  00049	8d 45 f8	 lea	 eax, DWORD PTR __Pnode$[ebp]
  0004c	50		 push	 eax
  0004d	8b 45 f8	 mov	 eax, DWORD PTR __Pnode$[ebp]
  00050	83 c0 04	 add	 eax, 4
  00053	50		 push	 eax
  00054	e8 00 00 00 00	 call	 ??$_Construct_in_place@PAU?$_Tree_node@U?$pair@$$CBKPAVCLight@@@std@@PAX@std@@ABQAU12@@std@@YAXAAPAU?$_Tree_node@U?$pair@$$CBKPAVCLight@@@std@@PAX@0@ABQAU10@@Z ; std::_Construct_in_place<std::_Tree_node<std::pair<unsigned long const ,CLight *>,void *> *,std::_Tree_node<std::pair<unsigned long const ,CLight *>,void *> * const &>
  00059	59		 pop	 ecx
  0005a	59		 pop	 ecx

; 346  :         _Construct_in_place(_Pnode->_Right, _Pnode);

  0005b	8d 45 f8	 lea	 eax, DWORD PTR __Pnode$[ebp]
  0005e	50		 push	 eax
  0005f	8b 45 f8	 mov	 eax, DWORD PTR __Pnode$[ebp]
  00062	83 c0 08	 add	 eax, 8
  00065	50		 push	 eax
  00066	e8 00 00 00 00	 call	 ??$_Construct_in_place@PAU?$_Tree_node@U?$pair@$$CBKPAVCLight@@@std@@PAX@std@@ABQAU12@@std@@YAXAAPAU?$_Tree_node@U?$pair@$$CBKPAVCLight@@@std@@PAX@0@ABQAU10@@Z ; std::_Construct_in_place<std::_Tree_node<std::pair<unsigned long const ,CLight *>,void *> *,std::_Tree_node<std::pair<unsigned long const ,CLight *>,void *> * const &>
  0006b	59		 pop	 ecx
  0006c	59		 pop	 ecx

; 347  :         _Pnode->_Color = _Black;

  0006d	8b 45 f8	 mov	 eax, DWORD PTR __Pnode$[ebp]
  00070	c6 40 0c 01	 mov	 BYTE PTR [eax+12], 1

; 348  :         _Pnode->_Isnil = true;

  00074	8b 45 f8	 mov	 eax, DWORD PTR __Pnode$[ebp]
  00077	c6 40 0d 01	 mov	 BYTE PTR [eax+13], 1

; 349  :         return _Pnode;

  0007b	8b 45 f8	 mov	 eax, DWORD PTR __Pnode$[ebp]
$LN9@Buyheadnod:

; 350  :     }

  0007e	c9		 leave
  0007f	c3		 ret	 0
??$_Buyheadnode@V?$allocator@U?$_Tree_node@U?$pair@$$CBKPAVCLight@@@std@@PAX@std@@@std@@@?$_Tree_node@U?$pair@$$CBKPAVCLight@@@std@@PAX@std@@SAPAU01@AAV?$allocator@U?$_Tree_node@U?$pair@$$CBKPAVCLight@@@std@@PAX@std@@@1@@Z ENDP ; std::_Tree_node<std::pair<unsigned long const ,CLight *>,void *>::_Buyheadnode<std::allocator<std::_Tree_node<std::pair<unsigned long const ,CLight *>,void *> > >
_TEXT	ENDS
; Function compile flags: /Odspy
; File C:\Program Files (x86)\Microsoft Visual Studio\2019\Community\VC\Tools\MSVC\14.28.29333\include\xmemory
;	COMDAT ??$_Pocca@V?$allocator@PAVCLight@@@std@@@std@@YAXAAV?$allocator@PAVCLight@@@0@ABV10@@Z
_TEXT	SEGMENT
__Left$ = 8						; size = 4
__Right$ = 12						; size = 4
??$_Pocca@V?$allocator@PAVCLight@@@std@@@std@@YAXAAV?$allocator@PAVCLight@@@0@ABV10@@Z PROC ; std::_Pocca<std::allocator<CLight *> >, COMDAT

; 885  : void _Pocca(_Alloc& _Left, const _Alloc& _Right) noexcept {

  00000	55		 push	 ebp
  00001	8b ec		 mov	 ebp, esp

; 886  :     if constexpr (allocator_traits<_Alloc>::propagate_on_container_copy_assignment::value) {
; 887  :         _Left = _Right;
; 888  :     }
; 889  : }

  00003	5d		 pop	 ebp
  00004	c3		 ret	 0
??$_Pocca@V?$allocator@PAVCLight@@@std@@@std@@YAXAAV?$allocator@PAVCLight@@@0@ABV10@@Z ENDP ; std::_Pocca<std::allocator<CLight *> >
_TEXT	ENDS
; Function compile flags: /Odspy
; File C:\Program Files (x86)\Microsoft Visual Studio\2019\Community\VC\Tools\MSVC\14.28.29333\include\xmemory
;	COMDAT ??$_Destroy_in_place@PAK@std@@YAXAAPAK@Z
_TEXT	SEGMENT
__Obj$ = 8						; size = 4
??$_Destroy_in_place@PAK@std@@YAXAAPAK@Z PROC		; std::_Destroy_in_place<unsigned long *>, COMDAT

; 270  : /* _CONSTEXPR20_DYNALLOC */ void _Destroy_in_place(_Ty& _Obj) noexcept {

  00000	55		 push	 ebp
  00001	8b ec		 mov	 ebp, esp

; 271  : #if _HAS_IF_CONSTEXPR
; 272  :     if constexpr (is_array_v<_Ty>) {
; 273  :         _Destroy_range(_Obj, _Obj + extent_v<_Ty>);
; 274  :     } else
; 275  : #endif // _HAS_IF_CONSTEXPR
; 276  :     {
; 277  :         _Obj.~_Ty();
; 278  :     }
; 279  : }

  00003	5d		 pop	 ebp
  00004	c3		 ret	 0
??$_Destroy_in_place@PAK@std@@YAXAAPAK@Z ENDP		; std::_Destroy_in_place<unsigned long *>
_TEXT	ENDS
; Function compile flags: /Odspy
; File C:\Program Files (x86)\Microsoft Visual Studio\2019\Community\VC\Tools\MSVC\14.28.29333\include\xmemory
;	COMDAT ??$_Destroy_range@V?$allocator@PAVCLight@@@std@@@std@@YAXPAPAVCLight@@QAPAV1@AAV?$allocator@PAVCLight@@@0@@Z
_TEXT	SEGMENT
__First$ = 8						; size = 4
__Last$ = 12						; size = 4
__Al$ = 16						; size = 4
??$_Destroy_range@V?$allocator@PAVCLight@@@std@@@std@@YAXPAPAVCLight@@QAPAV1@AAV?$allocator@PAVCLight@@@0@@Z PROC ; std::_Destroy_range<std::allocator<CLight *> >, COMDAT

; 962  :     _Alloc_ptr_t<_Alloc> _First, const _Alloc_ptr_t<_Alloc> _Last, _Alloc& _Al) noexcept {

  00000	55		 push	 ebp
  00001	8b ec		 mov	 ebp, esp

; 963  :     // note that this is an optimization for debug mode codegen; in release mode the BE removes all of this
; 964  :     using _Ty = typename _Alloc::value_type;
; 965  :     if _CONSTEXPR_IF (!conjunction_v<is_trivially_destructible<_Ty>, _Uses_default_destroy<_Alloc, _Ty*>>) {
; 966  :         for (; _First != _Last; ++_First) {
; 967  :             allocator_traits<_Alloc>::destroy(_Al, _Unfancy(_First));
; 968  :         }
; 969  :     }
; 970  : }

  00003	5d		 pop	 ebp
  00004	c3		 ret	 0
??$_Destroy_range@V?$allocator@PAVCLight@@@std@@@std@@YAXPAPAVCLight@@QAPAV1@AAV?$allocator@PAVCLight@@@0@@Z ENDP ; std::_Destroy_range<std::allocator<CLight *> >
_TEXT	ENDS
; Function compile flags: /Odspy
; File C:\Program Files (x86)\Microsoft Visual Studio\2019\Community\VC\Tools\MSVC\14.28.29333\include\xmemory
; File C:\Program Files (x86)\Microsoft Visual Studio\2019\Community\VC\Tools\MSVC\14.28.29333\include\xstddef
; File C:\Program Files (x86)\Microsoft Visual Studio\2019\Community\VC\Tools\MSVC\14.28.29333\include\xmemory
;	COMDAT ??$_Alloc_proxy@V?$allocator@U_Container_proxy@std@@@std@@@_Container_base12@std@@QAEX$$QAV?$allocator@U_Container_proxy@std@@@1@@Z
_TEXT	SEGMENT
__Max_possible$1 = -28					; size = 4
$T2 = -24						; size = 4
$T3 = -20						; size = 4
$T4 = -16						; size = 4
_this$ = -12						; size = 4
__New_proxy$ = -8					; size = 4
__Overflow_is_possible$5 = -1				; size = 1
__Al$ = 8						; size = 4
??$_Alloc_proxy@V?$allocator@U_Container_proxy@std@@@std@@@_Container_base12@std@@QAEX$$QAV?$allocator@U_Container_proxy@std@@@1@@Z PROC ; std::_Container_base12::_Alloc_proxy<std::allocator<std::_Container_proxy> >, COMDAT
; _this$ = ecx

; 1106 :     void _Alloc_proxy(_Alloc&& _Al) {

  00000	55		 push	 ebp
  00001	8b ec		 mov	 ebp, esp
  00003	83 ec 1c	 sub	 esp, 28			; 0000001cH
  00006	89 4d f4	 mov	 DWORD PTR _this$[ebp], ecx

; 56   :     constexpr bool _Overflow_is_possible = _Ty_size > 1;

  00009	c6 45 ff 01	 mov	 BYTE PTR __Overflow_is_possible$5[ebp], 1

; 57   : 
; 58   :     if _CONSTEXPR_IF (_Overflow_is_possible) {
; 59   :         constexpr size_t _Max_possible = static_cast<size_t>(-1) / _Ty_size;

  0000d	c7 45 e4 ff ff
	ff 1f		 mov	 DWORD PTR __Max_possible$1[ebp], 536870911 ; 1fffffffH

; 60   :         if (_Count > _Max_possible) {

  00014	33 c0		 xor	 eax, eax
  00016	40		 inc	 eax
  00017	3d ff ff ff 1f	 cmp	 eax, 536870911		; 1fffffffH
  0001c	76 05		 jbe	 SHORT $LN6@Alloc_prox

; 61   :             _Throw_bad_array_new_length(); // multiply overflow

  0001e	e8 00 00 00 00	 call	 ?_Throw_bad_array_new_length@std@@YAXXZ ; std::_Throw_bad_array_new_length
$LN6@Alloc_prox:

; 62   :         }
; 63   :     }
; 64   : 
; 65   :     return _Count * _Ty_size;

  00023	33 c0		 xor	 eax, eax
  00025	40		 inc	 eax
  00026	c1 e0 03	 shl	 eax, 3
  00029	89 45 f0	 mov	 DWORD PTR $T4[ebp], eax

; 814  :         return static_cast<_Ty*>(_Allocate<_New_alignof<_Ty>>(_Get_size_of_n<sizeof(_Ty)>(_Count)));

  0002c	ff 75 f0	 push	 DWORD PTR $T4[ebp]
  0002f	e8 00 00 00 00	 call	 ??$_Allocate@$07U_Default_allocate_traits@std@@$0A@@std@@YAPAXI@Z ; std::_Allocate<8,std::_Default_allocate_traits,0>
  00034	59		 pop	 ecx
  00035	89 45 ec	 mov	 DWORD PTR $T3[ebp], eax
; File C:\Program Files (x86)\Microsoft Visual Studio\2019\Community\VC\Tools\MSVC\14.28.29333\include\xstddef

; 289  :     return _Ptr;

  00038	8b 45 ec	 mov	 eax, DWORD PTR $T3[ebp]
  0003b	89 45 f8	 mov	 DWORD PTR __New_proxy$[ebp], eax
; File C:\Program Files (x86)\Microsoft Visual Studio\2019\Community\VC\Tools\MSVC\14.28.29333\include\xmemory

; 1108 :         _Construct_in_place(*_New_proxy, this);

  0003e	8b 45 f4	 mov	 eax, DWORD PTR _this$[ebp]
  00041	89 45 e8	 mov	 DWORD PTR $T2[ebp], eax
  00044	8d 45 e8	 lea	 eax, DWORD PTR $T2[ebp]
  00047	50		 push	 eax
  00048	ff 75 f8	 push	 DWORD PTR __New_proxy$[ebp]
  0004b	e8 00 00 00 00	 call	 ??$_Construct_in_place@U_Container_proxy@std@@PAU_Container_base12@2@@std@@YAXAAU_Container_proxy@0@$$QAPAU_Container_base12@0@@Z ; std::_Construct_in_place<std::_Container_proxy,std::_Container_base12 *>
  00050	59		 pop	 ecx
  00051	59		 pop	 ecx

; 1109 :         _Myproxy            = _New_proxy;

  00052	8b 45 f4	 mov	 eax, DWORD PTR _this$[ebp]
  00055	8b 4d f8	 mov	 ecx, DWORD PTR __New_proxy$[ebp]
  00058	89 08		 mov	 DWORD PTR [eax], ecx

; 1110 :         _New_proxy->_Mycont = this;

  0005a	8b 45 f8	 mov	 eax, DWORD PTR __New_proxy$[ebp]
  0005d	8b 4d f4	 mov	 ecx, DWORD PTR _this$[ebp]
  00060	89 08		 mov	 DWORD PTR [eax], ecx
$LN9@Alloc_prox:

; 1111 :     }

  00062	c9		 leave
  00063	c2 04 00	 ret	 4
??$_Alloc_proxy@V?$allocator@U_Container_proxy@std@@@std@@@_Container_base12@std@@QAEX$$QAV?$allocator@U_Container_proxy@std@@@1@@Z ENDP ; std::_Container_base12::_Alloc_proxy<std::allocator<std::_Container_proxy> >
_TEXT	ENDS
; Function compile flags: /Odspy
; File C:\Program Files (x86)\Microsoft Visual Studio\2019\Community\VC\Tools\MSVC\14.28.29333\include\xmemory
;	COMDAT ??$_Delete_plain_internal@V?$allocator@U_Container_proxy@std@@@std@@@std@@YAXAAV?$allocator@U_Container_proxy@std@@@0@QAU_Container_proxy@0@@Z
_TEXT	SEGMENT
__Al$ = 8						; size = 4
__Ptr$ = 12						; size = 4
??$_Delete_plain_internal@V?$allocator@U_Container_proxy@std@@@std@@@std@@YAXAAV?$allocator@U_Container_proxy@std@@@0@QAU_Container_proxy@0@@Z PROC ; std::_Delete_plain_internal<std::allocator<std::_Container_proxy> >, COMDAT

; 1031 : void _Delete_plain_internal(_Alloc& _Al, typename _Alloc::value_type* const _Ptr) noexcept {

  00000	55		 push	 ebp
  00001	8b ec		 mov	 ebp, esp

; 1032 :     // destroy *_Ptr in place, then deallocate _Ptr using _Al; used for internal container types the user didn't name
; 1033 :     using _Ty = typename _Alloc::value_type;
; 1034 :     _Ptr->~_Ty();
; 1035 :     _Deallocate_plain(_Al, _Ptr);

  00003	ff 75 0c	 push	 DWORD PTR __Ptr$[ebp]
  00006	ff 75 08	 push	 DWORD PTR __Al$[ebp]
  00009	e8 00 00 00 00	 call	 ??$_Deallocate_plain@V?$allocator@U_Container_proxy@std@@@std@@@std@@YAXAAV?$allocator@U_Container_proxy@std@@@0@QAU_Container_proxy@0@@Z ; std::_Deallocate_plain<std::allocator<std::_Container_proxy> >
  0000e	59		 pop	 ecx
  0000f	59		 pop	 ecx

; 1036 : }

  00010	5d		 pop	 ebp
  00011	c3		 ret	 0
??$_Delete_plain_internal@V?$allocator@U_Container_proxy@std@@@std@@@std@@YAXAAV?$allocator@U_Container_proxy@std@@@0@QAU_Container_proxy@0@@Z ENDP ; std::_Delete_plain_internal<std::allocator<std::_Container_proxy> >
_TEXT	ENDS
; Function compile flags: /Odspy
; File C:\Program Files (x86)\Microsoft Visual Studio\2019\Community\VC\Tools\MSVC\14.28.29333\include\deque
;	COMDAT ??D?$_Deque_unchecked_const_iterator@V?$_Deque_val@U?$_Deque_simple_types@K@std@@@std@@@std@@QBEABKXZ
_TEXT	SEGMENT
__Off$ = -20						; size = 4
__Block$ = -16						; size = 4
_this$ = -12						; size = 4
__Off$ = -8						; size = 4
_this$ = -4						; size = 4
??D?$_Deque_unchecked_const_iterator@V?$_Deque_val@U?$_Deque_simple_types@K@std@@@std@@@std@@QBEABKXZ PROC ; std::_Deque_unchecked_const_iterator<std::_Deque_val<std::_Deque_simple_types<unsigned long> > >::operator*, COMDAT
; _this$ = ecx

; 54   :     _NODISCARD reference operator*() const noexcept {

  00000	55		 push	 ebp
  00001	8b ec		 mov	 ebp, esp
  00003	83 ec 14	 sub	 esp, 20			; 00000014H
  00006	89 4d fc	 mov	 DWORD PTR _this$[ebp], ecx

; 55   :         _Size_type _Block = _Mycont->_Getblock(_Myoff);

  00009	8b 45 fc	 mov	 eax, DWORD PTR _this$[ebp]
  0000c	8b 40 04	 mov	 eax, DWORD PTR [eax+4]
  0000f	89 45 f8	 mov	 DWORD PTR __Off$[ebp], eax
  00012	8b 45 fc	 mov	 eax, DWORD PTR _this$[ebp]
  00015	8b 00		 mov	 eax, DWORD PTR [eax]
  00017	89 45 f4	 mov	 DWORD PTR _this$[ebp], eax

; 548  :         return (_Off / _DEQUESIZ) & (_Mapsize - 1);

  0001a	8b 45 f8	 mov	 eax, DWORD PTR __Off$[ebp]
  0001d	c1 e8 02	 shr	 eax, 2
  00020	8b 4d f4	 mov	 ecx, DWORD PTR _this$[ebp]
  00023	8b 49 08	 mov	 ecx, DWORD PTR [ecx+8]
  00026	49		 dec	 ecx
  00027	23 c1		 and	 eax, ecx
  00029	89 45 f0	 mov	 DWORD PTR __Block$[ebp], eax

; 56   :         _Size_type _Off   = _Myoff % _DEQUESIZ;

  0002c	8b 45 fc	 mov	 eax, DWORD PTR _this$[ebp]
  0002f	8b 40 04	 mov	 eax, DWORD PTR [eax+4]
  00032	33 d2		 xor	 edx, edx
  00034	6a 04		 push	 4
  00036	59		 pop	 ecx
  00037	f7 f1		 div	 ecx
  00039	89 55 ec	 mov	 DWORD PTR __Off$[ebp], edx

; 57   :         return _Mycont->_Map[_Block][_Off];

  0003c	8b 45 fc	 mov	 eax, DWORD PTR _this$[ebp]
  0003f	8b 00		 mov	 eax, DWORD PTR [eax]
  00041	8b 40 04	 mov	 eax, DWORD PTR [eax+4]
  00044	8b 4d f0	 mov	 ecx, DWORD PTR __Block$[ebp]
  00047	8b 04 88	 mov	 eax, DWORD PTR [eax+ecx*4]
  0004a	8b 4d ec	 mov	 ecx, DWORD PTR __Off$[ebp]
  0004d	8d 04 88	 lea	 eax, DWORD PTR [eax+ecx*4]

; 58   :     }

  00050	c9		 leave
  00051	c3		 ret	 0
??D?$_Deque_unchecked_const_iterator@V?$_Deque_val@U?$_Deque_simple_types@K@std@@@std@@@std@@QBEABKXZ ENDP ; std::_Deque_unchecked_const_iterator<std::_Deque_val<std::_Deque_simple_types<unsigned long> > >::operator*
_TEXT	ENDS
; Function compile flags: /Odspy
; File C:\Program Files (x86)\Microsoft Visual Studio\2019\Community\VC\Tools\MSVC\14.28.29333\include\deque
; File C:\Program Files (x86)\Microsoft Visual Studio\2019\Community\VC\Tools\MSVC\14.28.29333\include\xmemory
; File C:\Program Files (x86)\Microsoft Visual Studio\2019\Community\VC\Tools\MSVC\14.28.29333\include\deque
; File C:\Program Files (x86)\Microsoft Visual Studio\2019\Community\VC\Tools\MSVC\14.28.29333\include\xmemory
; File C:\Program Files (x86)\Microsoft Visual Studio\2019\Community\VC\Tools\MSVC\14.28.29333\include\deque
; File C:\Program Files (x86)\Microsoft Visual Studio\2019\Community\VC\Tools\MSVC\14.28.29333\include\type_traits
; File C:\Program Files (x86)\Microsoft Visual Studio\2019\Community\VC\Tools\MSVC\14.28.29333\include\deque
; File C:\Program Files (x86)\Microsoft Visual Studio\2019\Community\VC\Tools\MSVC\14.28.29333\include\xstddef
; File C:\Program Files (x86)\Microsoft Visual Studio\2019\Community\VC\Tools\MSVC\14.28.29333\include\deque
; File C:\Program Files (x86)\Microsoft Visual Studio\2019\Community\VC\Tools\MSVC\14.28.29333\include\xmemory
; File C:\Program Files (x86)\Microsoft Visual Studio\2019\Community\VC\Tools\MSVC\14.28.29333\include\deque
; File C:\Program Files (x86)\Microsoft Visual Studio\2019\Community\VC\Tools\MSVC\14.28.29333\include\vcruntime_new.h
; File C:\Program Files (x86)\Microsoft Visual Studio\2019\Community\VC\Tools\MSVC\14.28.29333\include\type_traits
; File C:\Program Files (x86)\Microsoft Visual Studio\2019\Community\VC\Tools\MSVC\14.28.29333\include\xmemory
; File C:\Program Files (x86)\Microsoft Visual Studio\2019\Community\VC\Tools\MSVC\14.28.29333\include\deque
;	COMDAT ??$_Emplace_back_internal@ABK@?$deque@KV?$allocator@K@std@@@std@@AAEXABK@Z
_TEXT	SEGMENT
$T1 = -60						; size = 4
$T2 = -56						; size = 4
__Max_possible$3 = -52					; size = 4
$T4 = -48						; size = 4
$T5 = -44						; size = 4
$T6 = -40						; size = 4
$T7 = -36						; size = 4
$T8 = -32						; size = 4
$T9 = -28						; size = 4
$T10 = -24						; size = 4
$T11 = -20						; size = 4
__Ptr$ = -16						; size = 4
$T12 = -12						; size = 4
$T13 = -8						; size = 4
$T14 = -4						; size = 4
$T15 = 0						; size = 4
$T16 = 4						; size = 4
$T17 = 8						; size = 4
$T18 = 12						; size = 4
$T19 = 16						; size = 4
$T20 = 20						; size = 4
$T21 = 24						; size = 4
$T22 = 28						; size = 4
$T23 = 32						; size = 4
$T24 = 36						; size = 4
$T25 = 40						; size = 4
$T26 = 44						; size = 4
$T27 = 48						; size = 4
$T28 = 52						; size = 4
$T29 = 56						; size = 4
$T30 = 60						; size = 4
$T31 = 64						; size = 4
$T32 = 68						; size = 4
$T33 = 72						; size = 4
$T34 = 76						; size = 4
$T35 = 80						; size = 4
$T36 = 84						; size = 4
$T37 = 88						; size = 4
__Newoff$ = 92						; size = 4
tv163 = 96						; size = 4
__Block$ = 100						; size = 4
tv86 = 104						; size = 4
__Overflow_is_possible$38 = 111				; size = 1
_this$ = 112						; size = 4
_<_Vals_0>$ = 124					; size = 4
??$_Emplace_back_internal@ABK@?$deque@KV?$allocator@K@std@@@std@@AAEXABK@Z PROC ; std::deque<unsigned long,std::allocator<unsigned long> >::_Emplace_back_internal<unsigned long const &>, COMDAT
; _this$ = ecx

; 1114 :     void _Emplace_back_internal(_Tys&&... _Vals) {

  00000	55		 push	 ebp
  00001	8d 6c 24 8c	 lea	 ebp, DWORD PTR [esp-116]
  00005	81 ec b0 00 00
	00		 sub	 esp, 176		; 000000b0H
  0000b	89 4d 70	 mov	 DWORD PTR _this$[ebp], ecx

; 1530 :         return _Mypair._Myval2;

  0000e	8b 45 70	 mov	 eax, DWORD PTR _this$[ebp]
  00011	89 45 58	 mov	 DWORD PTR $T37[ebp], eax

; 1554 :         return _Get_data()._Myoff;

  00014	8b 45 58	 mov	 eax, DWORD PTR $T37[ebp]
  00017	83 c0 0c	 add	 eax, 12			; 0000000cH
  0001a	89 45 50	 mov	 DWORD PTR $T35[ebp], eax

; 1530 :         return _Mypair._Myval2;

  0001d	8b 45 70	 mov	 eax, DWORD PTR _this$[ebp]
  00020	89 45 54	 mov	 DWORD PTR $T36[ebp], eax

; 1562 :         return _Get_data()._Mysize;

  00023	8b 45 54	 mov	 eax, DWORD PTR $T36[ebp]
  00026	83 c0 10	 add	 eax, 16			; 00000010H
  00029	89 45 4c	 mov	 DWORD PTR $T34[ebp], eax

; 1115 :         _PUSH_BACK_BEGIN;

  0002c	8b 45 50	 mov	 eax, DWORD PTR $T35[ebp]
  0002f	8b 00		 mov	 eax, DWORD PTR [eax]
  00031	8b 4d 4c	 mov	 ecx, DWORD PTR $T34[ebp]
  00034	03 01		 add	 eax, DWORD PTR [ecx]
  00036	33 d2		 xor	 edx, edx
  00038	6a 04		 push	 4
  0003a	59		 pop	 ecx
  0003b	f7 f1		 div	 ecx
  0003d	85 d2		 test	 edx, edx
  0003f	75 3a		 jne	 SHORT $LN2@Emplace_ba

; 1530 :         return _Mypair._Myval2;

  00041	8b 45 70	 mov	 eax, DWORD PTR _this$[ebp]
  00044	89 45 48	 mov	 DWORD PTR $T33[ebp], eax

; 1546 :         return _Get_data()._Mapsize;

  00047	8b 45 48	 mov	 eax, DWORD PTR $T33[ebp]
  0004a	83 c0 08	 add	 eax, 8
  0004d	89 45 3c	 mov	 DWORD PTR $T30[ebp], eax

; 1530 :         return _Mypair._Myval2;

  00050	8b 45 70	 mov	 eax, DWORD PTR _this$[ebp]
  00053	89 45 44	 mov	 DWORD PTR $T32[ebp], eax

; 1562 :         return _Get_data()._Mysize;

  00056	8b 45 44	 mov	 eax, DWORD PTR $T32[ebp]
  00059	83 c0 10	 add	 eax, 16			; 00000010H
  0005c	89 45 40	 mov	 DWORD PTR $T31[ebp], eax

; 1115 :         _PUSH_BACK_BEGIN;

  0005f	8b 45 40	 mov	 eax, DWORD PTR $T31[ebp]
  00062	8b 00		 mov	 eax, DWORD PTR [eax]
  00064	83 c0 04	 add	 eax, 4
  00067	c1 e8 02	 shr	 eax, 2
  0006a	8b 4d 3c	 mov	 ecx, DWORD PTR $T30[ebp]
  0006d	39 01		 cmp	 DWORD PTR [ecx], eax
  0006f	77 0a		 ja	 SHORT $LN2@Emplace_ba
  00071	6a 01		 push	 1
  00073	8b 4d 70	 mov	 ecx, DWORD PTR _this$[ebp]
  00076	e8 00 00 00 00	 call	 ?_Growmap@?$deque@KV?$allocator@K@std@@@std@@AAEXI@Z ; std::deque<unsigned long,std::allocator<unsigned long> >::_Growmap
$LN2@Emplace_ba:
  0007b	8b 45 d4	 mov	 eax, DWORD PTR $T5[ebp]
  0007e	89 45 68	 mov	 DWORD PTR tv86[ebp], eax

; 1530 :         return _Mypair._Myval2;

  00081	8b 45 70	 mov	 eax, DWORD PTR _this$[ebp]
  00084	89 45 38	 mov	 DWORD PTR $T29[ebp], eax

; 1554 :         return _Get_data()._Myoff;

  00087	8b 45 38	 mov	 eax, DWORD PTR $T29[ebp]
  0008a	83 c0 0c	 add	 eax, 12			; 0000000cH
  0008d	89 45 68	 mov	 DWORD PTR tv86[ebp], eax

; 1530 :         return _Mypair._Myval2;

  00090	8b 45 70	 mov	 eax, DWORD PTR _this$[ebp]
  00093	89 45 34	 mov	 DWORD PTR $T28[ebp], eax

; 1546 :         return _Get_data()._Mapsize;

  00096	8b 45 34	 mov	 eax, DWORD PTR $T28[ebp]
  00099	83 c0 08	 add	 eax, 8
  0009c	89 45 30	 mov	 DWORD PTR $T27[ebp], eax

; 1115 :         _PUSH_BACK_BEGIN;

  0009f	8b 45 30	 mov	 eax, DWORD PTR $T27[ebp]
  000a2	8b 00		 mov	 eax, DWORD PTR [eax]
  000a4	8d 04 85 ff ff
	ff ff		 lea	 eax, DWORD PTR [eax*4-1]
  000ab	8b 4d 68	 mov	 ecx, DWORD PTR tv86[ebp]
  000ae	23 01		 and	 eax, DWORD PTR [ecx]
  000b0	8b 4d 68	 mov	 ecx, DWORD PTR tv86[ebp]
  000b3	89 01		 mov	 DWORD PTR [ecx], eax

; 1530 :         return _Mypair._Myval2;

  000b5	8b 45 70	 mov	 eax, DWORD PTR _this$[ebp]
  000b8	89 45 2c	 mov	 DWORD PTR $T26[ebp], eax

; 1554 :         return _Get_data()._Myoff;

  000bb	8b 45 2c	 mov	 eax, DWORD PTR $T26[ebp]
  000be	83 c0 0c	 add	 eax, 12			; 0000000cH
  000c1	89 45 24	 mov	 DWORD PTR $T24[ebp], eax

; 1530 :         return _Mypair._Myval2;

  000c4	8b 45 70	 mov	 eax, DWORD PTR _this$[ebp]
  000c7	89 45 28	 mov	 DWORD PTR $T25[ebp], eax

; 1562 :         return _Get_data()._Mysize;

  000ca	8b 45 28	 mov	 eax, DWORD PTR $T25[ebp]
  000cd	83 c0 10	 add	 eax, 16			; 00000010H
  000d0	89 45 20	 mov	 DWORD PTR $T23[ebp], eax

; 1115 :         _PUSH_BACK_BEGIN;

  000d3	8b 45 24	 mov	 eax, DWORD PTR $T24[ebp]
  000d6	8b 00		 mov	 eax, DWORD PTR [eax]
  000d8	8b 4d 20	 mov	 ecx, DWORD PTR $T23[ebp]
  000db	03 01		 add	 eax, DWORD PTR [ecx]
  000dd	89 45 5c	 mov	 DWORD PTR __Newoff$[ebp], eax

; 1534 :         return _Mypair._Myval2;

  000e0	8b 45 70	 mov	 eax, DWORD PTR _this$[ebp]
  000e3	89 45 1c	 mov	 DWORD PTR $T22[ebp], eax

; 548  :         return (_Off / _DEQUESIZ) & (_Mapsize - 1);

  000e6	8b 45 5c	 mov	 eax, DWORD PTR __Newoff$[ebp]
  000e9	c1 e8 02	 shr	 eax, 2
  000ec	8b 4d 1c	 mov	 ecx, DWORD PTR $T22[ebp]
  000ef	8b 49 08	 mov	 ecx, DWORD PTR [ecx+8]
  000f2	49		 dec	 ecx
  000f3	23 c1		 and	 eax, ecx
  000f5	89 45 18	 mov	 DWORD PTR $T21[ebp], eax

; 1514 :         return _Get_data()._Getblock(_Off);

  000f8	8b 45 18	 mov	 eax, DWORD PTR $T21[ebp]
  000fb	89 45 64	 mov	 DWORD PTR __Block$[ebp], eax

; 1530 :         return _Mypair._Myval2;

  000fe	8b 45 70	 mov	 eax, DWORD PTR _this$[ebp]
  00101	89 45 14	 mov	 DWORD PTR $T20[ebp], eax

; 1538 :         return _Get_data()._Map;

  00104	8b 45 14	 mov	 eax, DWORD PTR $T20[ebp]
  00107	83 c0 04	 add	 eax, 4
  0010a	89 45 10	 mov	 DWORD PTR $T19[ebp], eax

; 1115 :         _PUSH_BACK_BEGIN;

  0010d	8b 45 10	 mov	 eax, DWORD PTR $T19[ebp]
  00110	8b 00		 mov	 eax, DWORD PTR [eax]
  00112	8b 4d 64	 mov	 ecx, DWORD PTR __Block$[ebp]
  00115	83 3c 88 00	 cmp	 DWORD PTR [eax+ecx*4], 0
  00119	75 58		 jne	 SHORT $LN3@Emplace_ba

; 1522 :         return _Mypair._Get_first();

  0011b	8b 45 70	 mov	 eax, DWORD PTR _this$[ebp]
; File C:\Program Files (x86)\Microsoft Visual Studio\2019\Community\VC\Tools\MSVC\14.28.29333\include\xmemory

; 1347 :         return *this;

  0011e	89 45 0c	 mov	 DWORD PTR $T18[ebp], eax
; File C:\Program Files (x86)\Microsoft Visual Studio\2019\Community\VC\Tools\MSVC\14.28.29333\include\deque

; 1522 :         return _Mypair._Get_first();

  00121	8b 45 0c	 mov	 eax, DWORD PTR $T18[ebp]
  00124	89 45 d0	 mov	 DWORD PTR $T4[ebp], eax
; File C:\Program Files (x86)\Microsoft Visual Studio\2019\Community\VC\Tools\MSVC\14.28.29333\include\xmemory

; 56   :     constexpr bool _Overflow_is_possible = _Ty_size > 1;

  00127	c6 45 6f 01	 mov	 BYTE PTR __Overflow_is_possible$38[ebp], 1

; 57   : 
; 58   :     if _CONSTEXPR_IF (_Overflow_is_possible) {
; 59   :         constexpr size_t _Max_possible = static_cast<size_t>(-1) / _Ty_size;

  0012b	c7 45 cc ff ff
	ff 3f		 mov	 DWORD PTR __Max_possible$3[ebp], 1073741823 ; 3fffffffH

; 60   :         if (_Count > _Max_possible) {

  00132	6a 04		 push	 4
  00134	58		 pop	 eax
  00135	3d ff ff ff 3f	 cmp	 eax, 1073741823		; 3fffffffH
  0013a	76 05		 jbe	 SHORT $LN77@Emplace_ba

; 61   :             _Throw_bad_array_new_length(); // multiply overflow

  0013c	e8 00 00 00 00	 call	 ?_Throw_bad_array_new_length@std@@YAXXZ ; std::_Throw_bad_array_new_length
$LN77@Emplace_ba:

; 62   :         }
; 63   :     }
; 64   : 
; 65   :     return _Count * _Ty_size;

  00141	6a 04		 push	 4
  00143	58		 pop	 eax
  00144	c1 e0 02	 shl	 eax, 2
  00147	89 45 08	 mov	 DWORD PTR $T17[ebp], eax

; 814  :         return static_cast<_Ty*>(_Allocate<_New_alignof<_Ty>>(_Get_size_of_n<sizeof(_Ty)>(_Count)));

  0014a	ff 75 08	 push	 DWORD PTR $T17[ebp]
  0014d	e8 00 00 00 00	 call	 ??$_Allocate@$07U_Default_allocate_traits@std@@$0A@@std@@YAPAXI@Z ; std::_Allocate<8,std::_Default_allocate_traits,0>
  00152	59		 pop	 ecx
  00153	89 45 fc	 mov	 DWORD PTR $T14[ebp], eax
; File C:\Program Files (x86)\Microsoft Visual Studio\2019\Community\VC\Tools\MSVC\14.28.29333\include\deque

; 1530 :         return _Mypair._Myval2;

  00156	8b 45 70	 mov	 eax, DWORD PTR _this$[ebp]
  00159	89 45 04	 mov	 DWORD PTR $T16[ebp], eax

; 1538 :         return _Get_data()._Map;

  0015c	8b 45 04	 mov	 eax, DWORD PTR $T16[ebp]
  0015f	83 c0 04	 add	 eax, 4
  00162	89 45 00	 mov	 DWORD PTR $T15[ebp], eax

; 1115 :         _PUSH_BACK_BEGIN;

  00165	8b 45 00	 mov	 eax, DWORD PTR $T15[ebp]
  00168	8b 00		 mov	 eax, DWORD PTR [eax]
  0016a	8b 4d 64	 mov	 ecx, DWORD PTR __Block$[ebp]
  0016d	8b 55 fc	 mov	 edx, DWORD PTR $T14[ebp]
  00170	89 14 88	 mov	 DWORD PTR [eax+ecx*4], edx
$LN3@Emplace_ba:
; File C:\Program Files (x86)\Microsoft Visual Studio\2019\Community\VC\Tools\MSVC\14.28.29333\include\type_traits

; 1443 :     return static_cast<_Ty&&>(_Arg);

  00173	8b 45 7c	 mov	 eax, DWORD PTR _<_Vals_0>$[ebp]
  00176	89 45 e4	 mov	 DWORD PTR $T9[ebp], eax
; File C:\Program Files (x86)\Microsoft Visual Studio\2019\Community\VC\Tools\MSVC\14.28.29333\include\deque

; 1530 :         return _Mypair._Myval2;

  00179	8b 45 70	 mov	 eax, DWORD PTR _this$[ebp]
  0017c	89 45 f8	 mov	 DWORD PTR $T13[ebp], eax

; 1538 :         return _Get_data()._Map;

  0017f	8b 45 f8	 mov	 eax, DWORD PTR $T13[ebp]
  00182	83 c0 04	 add	 eax, 4
  00185	89 45 f4	 mov	 DWORD PTR $T12[ebp], eax

; 1116 :         _Alty_traits::construct(_Getal(), _Unfancy(_Map()[_Block] + _Newoff % _DEQUESIZ), _STD forward<_Tys>(_Vals)...);

  00188	8b 45 5c	 mov	 eax, DWORD PTR __Newoff$[ebp]
  0018b	33 d2		 xor	 edx, edx
  0018d	6a 04		 push	 4
  0018f	59		 pop	 ecx
  00190	f7 f1		 div	 ecx
  00192	8b 45 f4	 mov	 eax, DWORD PTR $T12[ebp]
  00195	8b 00		 mov	 eax, DWORD PTR [eax]
  00197	8b 4d 64	 mov	 ecx, DWORD PTR __Block$[ebp]
  0019a	8b 04 88	 mov	 eax, DWORD PTR [eax+ecx*4]
  0019d	8d 04 90	 lea	 eax, DWORD PTR [eax+edx*4]
  001a0	89 45 f0	 mov	 DWORD PTR __Ptr$[ebp], eax
; File C:\Program Files (x86)\Microsoft Visual Studio\2019\Community\VC\Tools\MSVC\14.28.29333\include\xstddef

; 289  :     return _Ptr;

  001a3	8b 45 f0	 mov	 eax, DWORD PTR __Ptr$[ebp]
  001a6	89 45 e8	 mov	 DWORD PTR $T10[ebp], eax
; File C:\Program Files (x86)\Microsoft Visual Studio\2019\Community\VC\Tools\MSVC\14.28.29333\include\deque

; 1522 :         return _Mypair._Get_first();

  001a9	8b 45 70	 mov	 eax, DWORD PTR _this$[ebp]
; File C:\Program Files (x86)\Microsoft Visual Studio\2019\Community\VC\Tools\MSVC\14.28.29333\include\xmemory

; 1347 :         return *this;

  001ac	89 45 ec	 mov	 DWORD PTR $T11[ebp], eax
; File C:\Program Files (x86)\Microsoft Visual Studio\2019\Community\VC\Tools\MSVC\14.28.29333\include\deque

; 1522 :         return _Mypair._Get_first();

  001af	8b 45 ec	 mov	 eax, DWORD PTR $T11[ebp]
  001b2	89 45 c8	 mov	 DWORD PTR $T2[ebp], eax
; File C:\Program Files (x86)\Microsoft Visual Studio\2019\Community\VC\Tools\MSVC\14.28.29333\include\vcruntime_new.h

; 169  :         return _Where;

  001b5	8b 45 e8	 mov	 eax, DWORD PTR $T10[ebp]
  001b8	89 45 e0	 mov	 DWORD PTR $T8[ebp], eax
; File C:\Program Files (x86)\Microsoft Visual Studio\2019\Community\VC\Tools\MSVC\14.28.29333\include\type_traits

; 1443 :     return static_cast<_Ty&&>(_Arg);

  001bb	8b 45 e4	 mov	 eax, DWORD PTR $T9[ebp]
  001be	89 45 dc	 mov	 DWORD PTR $T7[ebp], eax
; File C:\Program Files (x86)\Microsoft Visual Studio\2019\Community\VC\Tools\MSVC\14.28.29333\include\xmemory

; 701  :         ::new (const_cast<void*>(static_cast<const volatile void*>(_Ptr))) _Objty(_STD forward<_Types>(_Args)...);

  001c1	8b 45 e0	 mov	 eax, DWORD PTR $T8[ebp]
  001c4	8b 4d dc	 mov	 ecx, DWORD PTR $T7[ebp]
  001c7	8b 09		 mov	 ecx, DWORD PTR [ecx]
  001c9	89 08		 mov	 DWORD PTR [eax], ecx
; File C:\Program Files (x86)\Microsoft Visual Studio\2019\Community\VC\Tools\MSVC\14.28.29333\include\deque

; 1117 :         _PUSH_BACK_END;

  001cb	8b 45 c4	 mov	 eax, DWORD PTR $T1[ebp]
  001ce	89 45 60	 mov	 DWORD PTR tv163[ebp], eax

; 1530 :         return _Mypair._Myval2;

  001d1	8b 45 70	 mov	 eax, DWORD PTR _this$[ebp]
  001d4	89 45 d8	 mov	 DWORD PTR $T6[ebp], eax

; 1562 :         return _Get_data()._Mysize;

  001d7	8b 45 d8	 mov	 eax, DWORD PTR $T6[ebp]
  001da	83 c0 10	 add	 eax, 16			; 00000010H
  001dd	89 45 60	 mov	 DWORD PTR tv163[ebp], eax

; 1117 :         _PUSH_BACK_END;

  001e0	8b 45 60	 mov	 eax, DWORD PTR tv163[ebp]
  001e3	8b 00		 mov	 eax, DWORD PTR [eax]
  001e5	40		 inc	 eax
  001e6	8b 4d 60	 mov	 ecx, DWORD PTR tv163[ebp]
  001e9	89 01		 mov	 DWORD PTR [ecx], eax
$LN80@Emplace_ba:

; 1118 :     }

  001eb	83 c5 74	 add	 ebp, 116		; 00000074H
  001ee	c9		 leave
  001ef	c2 04 00	 ret	 4
??$_Emplace_back_internal@ABK@?$deque@KV?$allocator@K@std@@@std@@AAEXABK@Z ENDP ; std::deque<unsigned long,std::allocator<unsigned long> >::_Emplace_back_internal<unsigned long const &>
_TEXT	ENDS
; Function compile flags: /Odspy
; File C:\Program Files (x86)\Microsoft Visual Studio\2019\Community\VC\Tools\MSVC\14.28.29333\include\xtree
; File C:\Program Files (x86)\Microsoft Visual Studio\2019\Community\VC\Tools\MSVC\14.28.29333\include\utility
; File C:\Program Files (x86)\Microsoft Visual Studio\2019\Community\VC\Tools\MSVC\14.28.29333\include\xtree
; File C:\Program Files (x86)\Microsoft Visual Studio\2019\Community\VC\Tools\MSVC\14.28.29333\include\xstddef
; File C:\Program Files (x86)\Microsoft Visual Studio\2019\Community\VC\Tools\MSVC\14.28.29333\include\xtree
;	COMDAT ??$_Erase_tree@V?$allocator@U?$_Tree_node@U?$pair@$$CBKPAVCLight@@@std@@PAX@std@@@std@@@?$_Tree_val@U?$_Tree_simple_types@U?$pair@$$CBKPAVCLight@@@std@@@std@@@std@@QAEXAAV?$allocator@U?$_Tree_node@U?$pair@$$CBKPAVCLight@@@std@@PAX@std@@@1@PAU?$_Tree_node@U?$pair@$$CBKPAVCLight@@@std@@PAX@1@@Z
_TEXT	SEGMENT
$T1 = -20						; size = 4
__Old_val$2 = -16					; size = 4
__New_val$ = -12					; size = 4
_this$ = -8						; size = 4
$T3 = -4						; size = 4
__Al$ = 8						; size = 4
__Rootnode$ = 12					; size = 4
??$_Erase_tree@V?$allocator@U?$_Tree_node@U?$pair@$$CBKPAVCLight@@@std@@PAX@std@@@std@@@?$_Tree_val@U?$_Tree_simple_types@U?$pair@$$CBKPAVCLight@@@std@@@std@@@std@@QAEXAAV?$allocator@U?$_Tree_node@U?$pair@$$CBKPAVCLight@@@std@@PAX@std@@@1@PAU?$_Tree_node@U?$pair@$$CBKPAVCLight@@@std@@PAX@1@@Z PROC ; std::_Tree_val<std::_Tree_simple_types<std::pair<unsigned long const ,CLight *> > >::_Erase_tree<std::allocator<std::_Tree_node<std::pair<unsigned long const ,CLight *>,void *> > >, COMDAT
; _this$ = ecx

; 742  :     void _Erase_tree(_Alnode& _Al, _Nodeptr _Rootnode) noexcept {

  00000	55		 push	 ebp
  00001	8b ec		 mov	 ebp, esp
  00003	83 ec 14	 sub	 esp, 20			; 00000014H
  00006	89 4d f8	 mov	 DWORD PTR _this$[ebp], ecx
$LN2@Erase_tree:

; 743  :         while (!_Rootnode->_Isnil) { // free subtrees, then node

  00009	8b 45 0c	 mov	 eax, DWORD PTR __Rootnode$[ebp]
  0000c	0f be 40 0d	 movsx	 eax, BYTE PTR [eax+13]
  00010	85 c0		 test	 eax, eax
  00012	75 43		 jne	 SHORT $LN4@Erase_tree

; 744  :             _Erase_tree(_Al, _Rootnode->_Right);

  00014	8b 45 0c	 mov	 eax, DWORD PTR __Rootnode$[ebp]
  00017	ff 70 08	 push	 DWORD PTR [eax+8]
  0001a	ff 75 08	 push	 DWORD PTR __Al$[ebp]
  0001d	8b 4d f8	 mov	 ecx, DWORD PTR _this$[ebp]
  00020	e8 00 00 00 00	 call	 ??$_Erase_tree@V?$allocator@U?$_Tree_node@U?$pair@$$CBKPAVCLight@@@std@@PAX@std@@@std@@@?$_Tree_val@U?$_Tree_simple_types@U?$pair@$$CBKPAVCLight@@@std@@@std@@@std@@QAEXAAV?$allocator@U?$_Tree_node@U?$pair@$$CBKPAVCLight@@@std@@PAX@std@@@1@PAU?$_Tree_node@U?$pair@$$CBKPAVCLight@@@std@@PAX@1@@Z ; std::_Tree_val<std::_Tree_simple_types<std::pair<unsigned long const ,CLight *> > >::_Erase_tree<std::allocator<std::_Tree_node<std::pair<unsigned long const ,CLight *>,void *> > >

; 745  :             _Alnode::value_type::_Freenode(_Al, _STD exchange(_Rootnode, _Rootnode->_Left));

  00025	8b 45 0c	 mov	 eax, DWORD PTR __Rootnode$[ebp]
  00028	89 45 f4	 mov	 DWORD PTR __New_val$[ebp], eax
; File C:\Program Files (x86)\Microsoft Visual Studio\2019\Community\VC\Tools\MSVC\14.28.29333\include\utility

; 598  :     _Ty _Old_val = static_cast<_Ty&&>(_Val);

  0002b	8b 45 0c	 mov	 eax, DWORD PTR __Rootnode$[ebp]
  0002e	89 45 f0	 mov	 DWORD PTR __Old_val$2[ebp], eax

; 599  :     _Val         = static_cast<_Other&&>(_New_val);

  00031	8b 45 f4	 mov	 eax, DWORD PTR __New_val$[ebp]
  00034	8b 00		 mov	 eax, DWORD PTR [eax]
  00036	89 45 0c	 mov	 DWORD PTR __Rootnode$[ebp], eax

; 600  :     return _Old_val;

  00039	8b 45 f0	 mov	 eax, DWORD PTR __Old_val$2[ebp]
  0003c	89 45 fc	 mov	 DWORD PTR $T3[ebp], eax
; File C:\Program Files (x86)\Microsoft Visual Studio\2019\Community\VC\Tools\MSVC\14.28.29333\include\xtree

; 379  :         allocator_traits<_Alloc>::destroy(_Al, _STD addressof(_Ptr->_Myval));

  0003f	8b 45 fc	 mov	 eax, DWORD PTR $T3[ebp]
  00042	83 c0 10	 add	 eax, 16			; 00000010H
; File C:\Program Files (x86)\Microsoft Visual Studio\2019\Community\VC\Tools\MSVC\14.28.29333\include\xstddef

; 275  :     return __builtin_addressof(_Val);

  00045	89 45 ec	 mov	 DWORD PTR $T1[ebp], eax
; File C:\Program Files (x86)\Microsoft Visual Studio\2019\Community\VC\Tools\MSVC\14.28.29333\include\xtree

; 380  :         _Freenode0(_Al, _Ptr);

  00048	ff 75 fc	 push	 DWORD PTR $T3[ebp]
  0004b	ff 75 08	 push	 DWORD PTR __Al$[ebp]
  0004e	e8 00 00 00 00	 call	 ??$_Freenode0@V?$allocator@U?$_Tree_node@U?$pair@$$CBKPAVCLight@@@std@@PAX@std@@@std@@@?$_Tree_node@U?$pair@$$CBKPAVCLight@@@std@@PAX@std@@SAXAAV?$allocator@U?$_Tree_node@U?$pair@$$CBKPAVCLight@@@std@@PAX@std@@@1@PAU01@@Z ; std::_Tree_node<std::pair<unsigned long const ,CLight *>,void *>::_Freenode0<std::allocator<std::_Tree_node<std::pair<unsigned long const ,CLight *>,void *> > >
  00053	59		 pop	 ecx
  00054	59		 pop	 ecx

; 746  :         }

  00055	eb b2		 jmp	 SHORT $LN2@Erase_tree
$LN4@Erase_tree:

; 747  :     }

  00057	c9		 leave
  00058	c2 08 00	 ret	 8
??$_Erase_tree@V?$allocator@U?$_Tree_node@U?$pair@$$CBKPAVCLight@@@std@@PAX@std@@@std@@@?$_Tree_val@U?$_Tree_simple_types@U?$pair@$$CBKPAVCLight@@@std@@@std@@@std@@QAEXAAV?$allocator@U?$_Tree_node@U?$pair@$$CBKPAVCLight@@@std@@PAX@std@@@1@PAU?$_Tree_node@U?$pair@$$CBKPAVCLight@@@std@@PAX@1@@Z ENDP ; std::_Tree_val<std::_Tree_simple_types<std::pair<unsigned long const ,CLight *> > >::_Erase_tree<std::allocator<std::_Tree_node<std::pair<unsigned long const ,CLight *>,void *> > >
_TEXT	ENDS
; Function compile flags: /Odspy
; File C:\Program Files (x86)\Microsoft Visual Studio\2019\Community\VC\Tools\MSVC\14.28.29333\include\xtree
; File C:\Program Files (x86)\Microsoft Visual Studio\2019\Community\VC\Tools\MSVC\14.28.29333\include\xmemory
; File C:\Program Files (x86)\Microsoft Visual Studio\2019\Community\VC\Tools\MSVC\14.28.29333\include\xtree
; File C:\Program Files (x86)\Microsoft Visual Studio\2019\Community\VC\Tools\MSVC\14.28.29333\include\xstddef
; File C:\Program Files (x86)\Microsoft Visual Studio\2019\Community\VC\Tools\MSVC\14.28.29333\include\xtree
; File C:\Program Files (x86)\Microsoft Visual Studio\2019\Community\VC\Tools\MSVC\14.28.29333\include\xstddef
; File C:\Program Files (x86)\Microsoft Visual Studio\2019\Community\VC\Tools\MSVC\14.28.29333\include\xtree
;	COMDAT ??$_Find@K@?$_Tree@V?$_Tmap_traits@KPAVCLight@@U?$less@K@std@@V?$allocator@U?$pair@$$CBKPAVCLight@@@std@@@3@$0A@@std@@@std@@ABEPAU?$_Tree_node@U?$pair@$$CBKPAVCLight@@@std@@PAX@1@ABK@Z
_TEXT	SEGMENT
__Loc$ = -44						; size = 12
$T1 = -32						; size = 4
$T2 = -28						; size = 4
$T3 = -24						; size = 4
$T4 = -20						; size = 4
tv79 = -16						; size = 4
tv131 = -12						; size = 4
__Bound$ = -8						; size = 4
_this$ = -4						; size = 4
__Keyval$ = 8						; size = 4
??$_Find@K@?$_Tree@V?$_Tmap_traits@KPAVCLight@@U?$less@K@std@@V?$allocator@U?$pair@$$CBKPAVCLight@@@std@@@3@$0A@@std@@@std@@ABEPAU?$_Tree_node@U?$pair@$$CBKPAVCLight@@@std@@PAX@1@ABK@Z PROC ; std::_Tree<std::_Tmap_traits<unsigned long,CLight *,std::less<unsigned long>,std::allocator<std::pair<unsigned long const ,CLight *> >,0> >::_Find<unsigned long>, COMDAT
; _this$ = ecx

; 1457 :     _NODISCARD _Nodeptr _Find(const _Other& _Keyval) const {

  00000	55		 push	 ebp
  00001	8b ec		 mov	 ebp, esp
  00003	83 ec 2c	 sub	 esp, 44			; 0000002cH
  00006	89 4d fc	 mov	 DWORD PTR _this$[ebp], ecx

; 1458 :         const _Tree_find_result<_Nodeptr> _Loc = _Find_lower_bound(_Keyval);

  00009	ff 75 08	 push	 DWORD PTR __Keyval$[ebp]
  0000c	8d 45 d4	 lea	 eax, DWORD PTR __Loc$[ebp]
  0000f	50		 push	 eax
  00010	8b 4d fc	 mov	 ecx, DWORD PTR _this$[ebp]
  00013	e8 00 00 00 00	 call	 ??$_Find_lower_bound@K@?$_Tree@V?$_Tmap_traits@KPAVCLight@@U?$less@K@std@@V?$allocator@U?$pair@$$CBKPAVCLight@@@std@@@3@$0A@@std@@@std@@IBE?AU?$_Tree_find_result@PAU?$_Tree_node@U?$pair@$$CBKPAVCLight@@@std@@PAX@std@@@1@ABK@Z ; std::_Tree<std::_Tmap_traits<unsigned long,CLight *,std::less<unsigned long>,std::allocator<std::pair<unsigned long const ,CLight *> >,0> >::_Find_lower_bound<unsigned long>

; 1459 :         if (_Lower_bound_duplicate(_Loc._Bound, _Keyval)) {

  00018	8b 45 dc	 mov	 eax, DWORD PTR __Loc$[ebp+8]
  0001b	89 45 f8	 mov	 DWORD PTR __Bound$[ebp], eax

; 1695 :         return !_Bound->_Isnil && !_DEBUG_LT_PRED(_Getcomp(), _Keyval, _Traits::_Kfn(_Bound->_Myval));

  0001e	8b 45 f8	 mov	 eax, DWORD PTR __Bound$[ebp]
  00021	0f be 40 0d	 movsx	 eax, BYTE PTR [eax+13]
  00025	85 c0		 test	 eax, eax
  00027	75 37		 jne	 SHORT $LN30@Find

; 2035 :         return _Mypair._Get_first();

  00029	8b 45 fc	 mov	 eax, DWORD PTR _this$[ebp]
; File C:\Program Files (x86)\Microsoft Visual Studio\2019\Community\VC\Tools\MSVC\14.28.29333\include\xmemory

; 1351 :         return *this;

  0002c	89 45 ec	 mov	 DWORD PTR $T4[ebp], eax
; File C:\Program Files (x86)\Microsoft Visual Studio\2019\Community\VC\Tools\MSVC\14.28.29333\include\xtree

; 2035 :         return _Mypair._Get_first();

  0002f	8b 45 ec	 mov	 eax, DWORD PTR $T4[ebp]
  00032	89 45 e0	 mov	 DWORD PTR $T1[ebp], eax
; File C:\Program Files (x86)\Microsoft Visual Studio\2019\Community\VC\Tools\MSVC\14.28.29333\include\xstddef

; 127  :         return _Left < _Right;

  00035	8b 45 08	 mov	 eax, DWORD PTR __Keyval$[ebp]
  00038	8b 4d f8	 mov	 ecx, DWORD PTR __Bound$[ebp]
  0003b	8b 00		 mov	 eax, DWORD PTR [eax]
  0003d	3b 41 10	 cmp	 eax, DWORD PTR [ecx+16]
  00040	73 09		 jae	 SHORT $LN42@Find
  00042	c7 45 f4 01 00
	00 00		 mov	 DWORD PTR tv131[ebp], 1
  00049	eb 04		 jmp	 SHORT $LN40@Find
$LN42@Find:
  0004b	83 65 f4 00	 and	 DWORD PTR tv131[ebp], 0
$LN40@Find:
; File C:\Program Files (x86)\Microsoft Visual Studio\2019\Community\VC\Tools\MSVC\14.28.29333\include\xtree

; 1695 :         return !_Bound->_Isnil && !_DEBUG_LT_PRED(_Getcomp(), _Keyval, _Traits::_Kfn(_Bound->_Myval));

  0004f	0f b6 45 f4	 movzx	 eax, BYTE PTR tv131[ebp]
  00053	85 c0		 test	 eax, eax
  00055	75 09		 jne	 SHORT $LN30@Find
  00057	c7 45 f0 01 00
	00 00		 mov	 DWORD PTR tv79[ebp], 1
  0005e	eb 04		 jmp	 SHORT $LN28@Find
$LN30@Find:
  00060	83 65 f0 00	 and	 DWORD PTR tv79[ebp], 0
$LN28@Find:

; 1459 :         if (_Lower_bound_duplicate(_Loc._Bound, _Keyval)) {

  00064	0f b6 45 f0	 movzx	 eax, BYTE PTR tv79[ebp]
  00068	85 c0		 test	 eax, eax
  0006a	74 05		 je	 SHORT $LN2@Find

; 1460 :             return _Loc._Bound;

  0006c	8b 45 dc	 mov	 eax, DWORD PTR __Loc$[ebp+8]
  0006f	eb 11		 jmp	 SHORT $LN1@Find
$LN2@Find:

; 2051 :         return _STD addressof(_Mypair._Myval2._Myval2);

  00071	8b 45 fc	 mov	 eax, DWORD PTR _this$[ebp]
; File C:\Program Files (x86)\Microsoft Visual Studio\2019\Community\VC\Tools\MSVC\14.28.29333\include\xstddef

; 275  :     return __builtin_addressof(_Val);

  00074	89 45 e8	 mov	 DWORD PTR $T3[ebp], eax
; File C:\Program Files (x86)\Microsoft Visual Studio\2019\Community\VC\Tools\MSVC\14.28.29333\include\xtree

; 2051 :         return _STD addressof(_Mypair._Myval2._Myval2);

  00077	8b 45 e8	 mov	 eax, DWORD PTR $T3[ebp]
  0007a	89 45 e4	 mov	 DWORD PTR $T2[ebp], eax

; 1461 :         }
; 1462 : 
; 1463 :         return _Get_scary()->_Myhead;

  0007d	8b 45 e4	 mov	 eax, DWORD PTR $T2[ebp]
  00080	8b 00		 mov	 eax, DWORD PTR [eax]
$LN1@Find:

; 1464 :     }

  00082	c9		 leave
  00083	c2 04 00	 ret	 4
??$_Find@K@?$_Tree@V?$_Tmap_traits@KPAVCLight@@U?$less@K@std@@V?$allocator@U?$pair@$$CBKPAVCLight@@@std@@@3@$0A@@std@@@std@@ABEPAU?$_Tree_node@U?$pair@$$CBKPAVCLight@@@std@@PAX@1@ABK@Z ENDP ; std::_Tree<std::_Tmap_traits<unsigned long,CLight *,std::less<unsigned long>,std::allocator<std::pair<unsigned long const ,CLight *> >,0> >::_Find<unsigned long>
_TEXT	ENDS
; Function compile flags: /Odspy
; File C:\Program Files (x86)\Microsoft Visual Studio\2019\Community\VC\Tools\MSVC\14.28.29333\include\map
; File C:\Program Files (x86)\Microsoft Visual Studio\2019\Community\VC\Tools\MSVC\14.28.29333\include\xtree
; File C:\Program Files (x86)\Microsoft Visual Studio\2019\Community\VC\Tools\MSVC\14.28.29333\include\xmemory
; File C:\Program Files (x86)\Microsoft Visual Studio\2019\Community\VC\Tools\MSVC\14.28.29333\include\xtree
; File C:\Program Files (x86)\Microsoft Visual Studio\2019\Community\VC\Tools\MSVC\14.28.29333\include\xstddef
; File C:\Program Files (x86)\Microsoft Visual Studio\2019\Community\VC\Tools\MSVC\14.28.29333\include\xtree
; File C:\Program Files (x86)\Microsoft Visual Studio\2019\Community\VC\Tools\MSVC\14.28.29333\include\map
; File C:\Program Files (x86)\Microsoft Visual Studio\2019\Community\VC\Tools\MSVC\14.28.29333\include\type_traits
; File C:\Program Files (x86)\Microsoft Visual Studio\2019\Community\VC\Tools\MSVC\14.28.29333\include\utility
; File C:\Program Files (x86)\Microsoft Visual Studio\2019\Community\VC\Tools\MSVC\14.28.29333\include\type_traits
; File C:\Program Files (x86)\Microsoft Visual Studio\2019\Community\VC\Tools\MSVC\14.28.29333\include\utility
; File C:\Program Files (x86)\Microsoft Visual Studio\2019\Community\VC\Tools\MSVC\14.28.29333\include\map
; File C:\Program Files (x86)\Microsoft Visual Studio\2019\Community\VC\Tools\MSVC\14.28.29333\include\xtree
; File C:\Program Files (x86)\Microsoft Visual Studio\2019\Community\VC\Tools\MSVC\14.28.29333\include\xstddef
; File C:\Program Files (x86)\Microsoft Visual Studio\2019\Community\VC\Tools\MSVC\14.28.29333\include\xtree
; File C:\Program Files (x86)\Microsoft Visual Studio\2019\Community\VC\Tools\MSVC\14.28.29333\include\tuple
; File C:\Program Files (x86)\Microsoft Visual Studio\2019\Community\VC\Tools\MSVC\14.28.29333\include\type_traits
; File C:\Program Files (x86)\Microsoft Visual Studio\2019\Community\VC\Tools\MSVC\14.28.29333\include\tuple
; File C:\Program Files (x86)\Microsoft Visual Studio\2019\Community\VC\Tools\MSVC\14.28.29333\include\type_traits
; File C:\Program Files (x86)\Microsoft Visual Studio\2019\Community\VC\Tools\MSVC\14.28.29333\include\tuple
; File C:\Program Files (x86)\Microsoft Visual Studio\2019\Community\VC\Tools\MSVC\14.28.29333\include\xtree
; File C:\Program Files (x86)\Microsoft Visual Studio\2019\Community\VC\Tools\MSVC\14.28.29333\include\xmemory
; File C:\Program Files (x86)\Microsoft Visual Studio\2019\Community\VC\Tools\MSVC\14.28.29333\include\xtree
; File C:\Program Files (x86)\Microsoft Visual Studio\2019\Community\VC\Tools\MSVC\14.28.29333\include\map
; File C:\Program Files (x86)\Microsoft Visual Studio\2019\Community\VC\Tools\MSVC\14.28.29333\include\xmemory
; File C:\Program Files (x86)\Microsoft Visual Studio\2019\Community\VC\Tools\MSVC\14.28.29333\include\utility
; File C:\Program Files (x86)\Microsoft Visual Studio\2019\Community\VC\Tools\MSVC\14.28.29333\include\xmemory
; File C:\Program Files (x86)\Microsoft Visual Studio\2019\Community\VC\Tools\MSVC\14.28.29333\include\map
; File C:\Program Files (x86)\Microsoft Visual Studio\2019\Community\VC\Tools\MSVC\14.28.29333\include\type_traits
; File C:\Program Files (x86)\Microsoft Visual Studio\2019\Community\VC\Tools\MSVC\14.28.29333\include\utility
; File C:\Program Files (x86)\Microsoft Visual Studio\2019\Community\VC\Tools\MSVC\14.28.29333\include\type_traits
; File C:\Program Files (x86)\Microsoft Visual Studio\2019\Community\VC\Tools\MSVC\14.28.29333\include\utility
; File C:\Program Files (x86)\Microsoft Visual Studio\2019\Community\VC\Tools\MSVC\14.28.29333\include\map
;	COMDAT ??$_Try_emplace@ABK$$V@?$map@KPAVCLight@@U?$less@K@std@@V?$allocator@U?$pair@$$CBKPAVCLight@@@std@@@3@@std@@AAE?AU?$pair@PAU?$_Tree_node@U?$pair@$$CBKPAVCLight@@@std@@PAX@std@@_N@1@ABK@Z
_TEXT	SEGMENT
$T1 = -32						; size = 8
$T2 = -24						; size = 4
__Loc$ = -20						; size = 12
$T3 = -8						; size = 4
$T4 = -4						; size = 4
$T5 = 0							; size = 4
__Inserted$ = 4						; size = 4
$T6 = 8							; size = 4
__Old_val$7 = 12					; size = 4
$T8 = 16						; size = 4
$T9 = 20						; size = 4
$T10 = 24						; size = 4
$T11 = 28						; size = 4
$T12 = 32						; size = 4
$T13 = 36						; size = 4
$T14 = 40						; size = 4
$T15 = 44						; size = 4
_this$16 = 48						; size = 4
$T17 = 52						; size = 4
$T18 = 56						; size = 4
$T19 = 60						; size = 4
$T20 = 64						; size = 4
$T21 = 68						; size = 4
$T22 = 72						; size = 4
$T23 = 76						; size = 4
__Scary$ = 80						; size = 4
__Val$ = 84						; size = 4
tv168 = 88						; size = 4
tv188 = 92						; size = 4
__Bound$ = 96						; size = 4
$T24 = 103						; size = 1
_this$ = 104						; size = 4
$T25 = 110						; size = 1
$T26 = 111						; size = 1
___$ReturnUdt$ = 120					; size = 4
__Keyval$ = 124						; size = 4
??$_Try_emplace@ABK$$V@?$map@KPAVCLight@@U?$less@K@std@@V?$allocator@U?$pair@$$CBKPAVCLight@@@std@@@3@@std@@AAE?AU?$pair@PAU?$_Tree_node@U?$pair@$$CBKPAVCLight@@@std@@PAX@std@@_N@1@ABK@Z PROC ; std::map<unsigned long,CLight *,std::less<unsigned long>,std::allocator<std::pair<unsigned long const ,CLight *> > >::_Try_emplace<unsigned long const &>, COMDAT
; _this$ = ecx

; 175  :     pair<_Nodeptr, bool> _Try_emplace(_Keyty&& _Keyval, _Mappedty&&... _Mapval) {

  00000	55		 push	 ebp
  00001	8d 6c 24 90	 lea	 ebp, DWORD PTR [esp-112]
  00005	81 ec 90 00 00
	00		 sub	 esp, 144		; 00000090H
  0000b	89 4d 68	 mov	 DWORD PTR _this$[ebp], ecx

; 176  :         const auto _Loc = _Mybase::_Find_lower_bound(_Keyval);

  0000e	ff 75 7c	 push	 DWORD PTR __Keyval$[ebp]
  00011	8d 45 ec	 lea	 eax, DWORD PTR __Loc$[ebp]
  00014	50		 push	 eax
  00015	8b 4d 68	 mov	 ecx, DWORD PTR _this$[ebp]
  00018	e8 00 00 00 00	 call	 ??$_Find_lower_bound@K@?$_Tree@V?$_Tmap_traits@KPAVCLight@@U?$less@K@std@@V?$allocator@U?$pair@$$CBKPAVCLight@@@std@@@3@$0A@@std@@@std@@IBE?AU?$_Tree_find_result@PAU?$_Tree_node@U?$pair@$$CBKPAVCLight@@@std@@PAX@std@@@1@ABK@Z ; std::_Tree<std::_Tmap_traits<unsigned long,CLight *,std::less<unsigned long>,std::allocator<std::pair<unsigned long const ,CLight *> >,0> >::_Find_lower_bound<unsigned long>

; 177  :         if (_Mybase::_Lower_bound_duplicate(_Loc._Bound, _Keyval)) {

  0001d	8b 45 f4	 mov	 eax, DWORD PTR __Loc$[ebp+8]
  00020	89 45 60	 mov	 DWORD PTR __Bound$[ebp], eax
; File C:\Program Files (x86)\Microsoft Visual Studio\2019\Community\VC\Tools\MSVC\14.28.29333\include\xtree

; 1695 :         return !_Bound->_Isnil && !_DEBUG_LT_PRED(_Getcomp(), _Keyval, _Traits::_Kfn(_Bound->_Myval));

  00023	8b 45 60	 mov	 eax, DWORD PTR __Bound$[ebp]
  00026	0f be 40 0d	 movsx	 eax, BYTE PTR [eax+13]
  0002a	85 c0		 test	 eax, eax
  0002c	75 37		 jne	 SHORT $LN31@Try_emplac

; 2035 :         return _Mypair._Get_first();

  0002e	8b 45 68	 mov	 eax, DWORD PTR _this$[ebp]
; File C:\Program Files (x86)\Microsoft Visual Studio\2019\Community\VC\Tools\MSVC\14.28.29333\include\xmemory

; 1351 :         return *this;

  00031	89 45 4c	 mov	 DWORD PTR $T23[ebp], eax
; File C:\Program Files (x86)\Microsoft Visual Studio\2019\Community\VC\Tools\MSVC\14.28.29333\include\xtree

; 2035 :         return _Mypair._Get_first();

  00034	8b 45 4c	 mov	 eax, DWORD PTR $T23[ebp]
  00037	89 45 e8	 mov	 DWORD PTR $T2[ebp], eax
; File C:\Program Files (x86)\Microsoft Visual Studio\2019\Community\VC\Tools\MSVC\14.28.29333\include\xstddef

; 127  :         return _Left < _Right;

  0003a	8b 45 7c	 mov	 eax, DWORD PTR __Keyval$[ebp]
  0003d	8b 4d 60	 mov	 ecx, DWORD PTR __Bound$[ebp]
  00040	8b 00		 mov	 eax, DWORD PTR [eax]
  00042	3b 41 10	 cmp	 eax, DWORD PTR [ecx+16]
  00045	73 09		 jae	 SHORT $LN43@Try_emplac
  00047	c7 45 5c 01 00
	00 00		 mov	 DWORD PTR tv188[ebp], 1
  0004e	eb 04		 jmp	 SHORT $LN41@Try_emplac
$LN43@Try_emplac:
  00050	83 65 5c 00	 and	 DWORD PTR tv188[ebp], 0
$LN41@Try_emplac:
; File C:\Program Files (x86)\Microsoft Visual Studio\2019\Community\VC\Tools\MSVC\14.28.29333\include\xtree

; 1695 :         return !_Bound->_Isnil && !_DEBUG_LT_PRED(_Getcomp(), _Keyval, _Traits::_Kfn(_Bound->_Myval));

  00054	0f b6 45 5c	 movzx	 eax, BYTE PTR tv188[ebp]
  00058	85 c0		 test	 eax, eax
  0005a	75 09		 jne	 SHORT $LN31@Try_emplac
  0005c	c7 45 58 01 00
	00 00		 mov	 DWORD PTR tv168[ebp], 1
  00063	eb 04		 jmp	 SHORT $LN29@Try_emplac
$LN31@Try_emplac:
  00065	83 65 58 00	 and	 DWORD PTR tv168[ebp], 0
$LN29@Try_emplac:
; File C:\Program Files (x86)\Microsoft Visual Studio\2019\Community\VC\Tools\MSVC\14.28.29333\include\map

; 177  :         if (_Mybase::_Lower_bound_duplicate(_Loc._Bound, _Keyval)) {

  00069	0f b6 45 58	 movzx	 eax, BYTE PTR tv168[ebp]
  0006d	85 c0		 test	 eax, eax
  0006f	74 2d		 je	 SHORT $LN2@Try_emplac

; 178  :             return {_Loc._Bound, false};

  00071	c6 45 6f 00	 mov	 BYTE PTR $T26[ebp], 0
; File C:\Program Files (x86)\Microsoft Visual Studio\2019\Community\VC\Tools\MSVC\14.28.29333\include\type_traits

; 1443 :     return static_cast<_Ty&&>(_Arg);

  00075	8d 45 f4	 lea	 eax, DWORD PTR __Loc$[ebp+8]
  00078	89 45 48	 mov	 DWORD PTR $T22[ebp], eax
; File C:\Program Files (x86)\Microsoft Visual Studio\2019\Community\VC\Tools\MSVC\14.28.29333\include\utility

; 190  :         : first(_STD forward<_Other1>(_Val1)), second(_STD forward<_Other2>(_Val2)) {}

  0007b	8b 45 78	 mov	 eax, DWORD PTR ___$ReturnUdt$[ebp]
  0007e	8b 4d 48	 mov	 ecx, DWORD PTR $T22[ebp]
  00081	8b 09		 mov	 ecx, DWORD PTR [ecx]
  00083	89 08		 mov	 DWORD PTR [eax], ecx
; File C:\Program Files (x86)\Microsoft Visual Studio\2019\Community\VC\Tools\MSVC\14.28.29333\include\type_traits

; 1443 :     return static_cast<_Ty&&>(_Arg);

  00085	8d 45 6f	 lea	 eax, DWORD PTR $T26[ebp]
  00088	89 45 44	 mov	 DWORD PTR $T21[ebp], eax
; File C:\Program Files (x86)\Microsoft Visual Studio\2019\Community\VC\Tools\MSVC\14.28.29333\include\utility

; 190  :         : first(_STD forward<_Other1>(_Val1)), second(_STD forward<_Other2>(_Val2)) {}

  0008b	8b 45 78	 mov	 eax, DWORD PTR ___$ReturnUdt$[ebp]
  0008e	8b 4d 44	 mov	 ecx, DWORD PTR $T21[ebp]
  00091	8a 09		 mov	 cl, BYTE PTR [ecx]
  00093	88 48 04	 mov	 BYTE PTR [eax+4], cl
; File C:\Program Files (x86)\Microsoft Visual Studio\2019\Community\VC\Tools\MSVC\14.28.29333\include\map

; 178  :             return {_Loc._Bound, false};

  00096	8b 45 78	 mov	 eax, DWORD PTR ___$ReturnUdt$[ebp]
  00099	e9 dd 00 00 00	 jmp	 $LN1@Try_emplac
$LN2@Try_emplac:

; 179  :         }
; 180  : 
; 181  :         _Mybase::_Check_grow_by_1();

  0009e	8b 4d 68	 mov	 ecx, DWORD PTR _this$[ebp]
  000a1	e8 00 00 00 00	 call	 ?_Check_grow_by_1@?$_Tree@V?$_Tmap_traits@KPAVCLight@@U?$less@K@std@@V?$allocator@U?$pair@$$CBKPAVCLight@@@std@@@3@$0A@@std@@@std@@IAEXXZ ; std::_Tree<std::_Tmap_traits<unsigned long,CLight *,std::less<unsigned long>,std::allocator<std::pair<unsigned long const ,CLight *> >,0> >::_Check_grow_by_1
; File C:\Program Files (x86)\Microsoft Visual Studio\2019\Community\VC\Tools\MSVC\14.28.29333\include\xtree

; 2047 :         return _STD addressof(_Mypair._Myval2._Myval2);

  000a6	8b 45 68	 mov	 eax, DWORD PTR _this$[ebp]
; File C:\Program Files (x86)\Microsoft Visual Studio\2019\Community\VC\Tools\MSVC\14.28.29333\include\xstddef

; 275  :     return __builtin_addressof(_Val);

  000a9	89 45 40	 mov	 DWORD PTR $T20[ebp], eax
; File C:\Program Files (x86)\Microsoft Visual Studio\2019\Community\VC\Tools\MSVC\14.28.29333\include\xtree

; 2047 :         return _STD addressof(_Mypair._Myval2._Myval2);

  000ac	8b 45 40	 mov	 eax, DWORD PTR $T20[ebp]
  000af	89 45 50	 mov	 DWORD PTR __Scary$[ebp], eax
; File C:\Program Files (x86)\Microsoft Visual Studio\2019\Community\VC\Tools\MSVC\14.28.29333\include\tuple

; 854  :     return tuple<_Types&&...>(_STD forward<_Types>(_Args)...);

  000b2	8d 45 67	 lea	 eax, DWORD PTR $T24[ebp]
  000b5	89 45 20	 mov	 DWORD PTR $T12[ebp], eax
; File C:\Program Files (x86)\Microsoft Visual Studio\2019\Community\VC\Tools\MSVC\14.28.29333\include\type_traits

; 1443 :     return static_cast<_Ty&&>(_Arg);

  000b8	8b 45 7c	 mov	 eax, DWORD PTR __Keyval$[ebp]
  000bb	89 45 3c	 mov	 DWORD PTR $T19[ebp], eax
  000be	8b 45 3c	 mov	 eax, DWORD PTR $T19[ebp]
  000c1	89 45 38	 mov	 DWORD PTR $T18[ebp], eax
  000c4	8b 45 38	 mov	 eax, DWORD PTR $T18[ebp]
  000c7	89 45 34	 mov	 DWORD PTR $T17[ebp], eax
; File C:\Program Files (x86)\Microsoft Visual Studio\2019\Community\VC\Tools\MSVC\14.28.29333\include\tuple

; 245  :         : _Mybase(_Exact_args_t{}, _STD forward<_Rest2>(_Rest_arg)...), _Myfirst(_STD forward<_This2>(_This_arg)) {}

  000ca	8d 45 28	 lea	 eax, DWORD PTR $T14[ebp]
  000cd	89 45 30	 mov	 DWORD PTR _this$16[ebp], eax
; File C:\Program Files (x86)\Microsoft Visual Studio\2019\Community\VC\Tools\MSVC\14.28.29333\include\type_traits

; 1443 :     return static_cast<_Ty&&>(_Arg);

  000d0	8b 45 34	 mov	 eax, DWORD PTR $T17[ebp]
  000d3	89 45 2c	 mov	 DWORD PTR $T15[ebp], eax
; File C:\Program Files (x86)\Microsoft Visual Studio\2019\Community\VC\Tools\MSVC\14.28.29333\include\tuple

; 163  :     constexpr _Tuple_val(_Other&& _Arg) : _Val(_STD forward<_Other>(_Arg)) {}

  000d6	8b 45 30	 mov	 eax, DWORD PTR _this$16[ebp]
  000d9	8b 4d 2c	 mov	 ecx, DWORD PTR $T15[ebp]
  000dc	89 08		 mov	 DWORD PTR [eax], ecx

; 854  :     return tuple<_Types&&...>(_STD forward<_Types>(_Args)...);

  000de	8d 45 28	 lea	 eax, DWORD PTR $T14[ebp]
  000e1	89 45 1c	 mov	 DWORD PTR $T11[ebp], eax
; File C:\Program Files (x86)\Microsoft Visual Studio\2019\Community\VC\Tools\MSVC\14.28.29333\include\xtree

; 2039 :         return _Mypair._Myval2._Get_first();

  000e4	8b 45 68	 mov	 eax, DWORD PTR _this$[ebp]
; File C:\Program Files (x86)\Microsoft Visual Studio\2019\Community\VC\Tools\MSVC\14.28.29333\include\xmemory

; 1347 :         return *this;

  000e7	89 45 24	 mov	 DWORD PTR $T13[ebp], eax
; File C:\Program Files (x86)\Microsoft Visual Studio\2019\Community\VC\Tools\MSVC\14.28.29333\include\xtree

; 2039 :         return _Mypair._Myval2._Get_first();

  000ea	8b 45 24	 mov	 eax, DWORD PTR $T13[ebp]
  000ed	89 45 18	 mov	 DWORD PTR $T10[ebp], eax
; File C:\Program Files (x86)\Microsoft Visual Studio\2019\Community\VC\Tools\MSVC\14.28.29333\include\map

; 184  :         const auto _Inserted = _Tree_temp_node<_Alnode>(_Mybase::_Getal(), _Scary->_Myhead, piecewise_construct,

  000f0	ff 75 20	 push	 DWORD PTR $T12[ebp]
  000f3	ff 75 1c	 push	 DWORD PTR $T11[ebp]
  000f6	68 00 00 00 00	 push	 OFFSET ?piecewise_construct@std@@3Upiecewise_construct_t@1@B
  000fb	8b 45 50	 mov	 eax, DWORD PTR __Scary$[ebp]
  000fe	ff 30		 push	 DWORD PTR [eax]
  00100	ff 75 18	 push	 DWORD PTR $T10[ebp]
  00103	8d 4d e0	 lea	 ecx, DWORD PTR $T1[ebp]
  00106	e8 00 00 00 00	 call	 ??$?0ABUpiecewise_construct_t@std@@V?$tuple@ABK@1@V?$tuple@$$V@1@@?$_Tree_temp_node@V?$allocator@U?$_Tree_node@U?$pair@$$CBKPAVCLight@@@std@@PAX@std@@@std@@@std@@QAE@AAV?$allocator@U?$_Tree_node@U?$pair@$$CBKPAVCLight@@@std@@PAX@std@@@1@PAU?$_Tree_node@U?$pair@$$CBKPAVCLight@@@std@@PAX@1@ABUpiecewise_construct_t@1@$$QAV?$tuple@ABK@1@$$QAV?$tuple@$$V@1@@Z ; std::_Tree_temp_node<std::allocator<std::_Tree_node<std::pair<unsigned long const ,CLight *>,void *> > >::_Tree_temp_node<std::allocator<std::_Tree_node<std::pair<unsigned long const ,CLight *>,void *> > ><std::piecewise_construct_t const &,std::tuple<unsigned long const &>,std::tuple<> >
  0010b	89 45 14	 mov	 DWORD PTR $T9[ebp], eax
; File C:\Program Files (x86)\Microsoft Visual Studio\2019\Community\VC\Tools\MSVC\14.28.29333\include\xmemory

; 1048 :         return _STD exchange(_Ptr, nullptr);

  0010e	83 65 10 00	 and	 DWORD PTR $T8[ebp], 0
  00112	8b 45 14	 mov	 eax, DWORD PTR $T9[ebp]
  00115	83 c0 04	 add	 eax, 4
  00118	89 45 54	 mov	 DWORD PTR __Val$[ebp], eax
; File C:\Program Files (x86)\Microsoft Visual Studio\2019\Community\VC\Tools\MSVC\14.28.29333\include\utility

; 598  :     _Ty _Old_val = static_cast<_Ty&&>(_Val);

  0011b	8b 45 54	 mov	 eax, DWORD PTR __Val$[ebp]
  0011e	8b 00		 mov	 eax, DWORD PTR [eax]
  00120	89 45 0c	 mov	 DWORD PTR __Old_val$7[ebp], eax

; 599  :     _Val         = static_cast<_Other&&>(_New_val);

  00123	8b 45 54	 mov	 eax, DWORD PTR __Val$[ebp]
  00126	8b 4d 10	 mov	 ecx, DWORD PTR $T8[ebp]
  00129	89 08		 mov	 DWORD PTR [eax], ecx

; 600  :     return _Old_val;

  0012b	8b 45 0c	 mov	 eax, DWORD PTR __Old_val$7[ebp]
  0012e	89 45 08	 mov	 DWORD PTR $T6[ebp], eax
; File C:\Program Files (x86)\Microsoft Visual Studio\2019\Community\VC\Tools\MSVC\14.28.29333\include\xmemory

; 1048 :         return _STD exchange(_Ptr, nullptr);

  00131	8b 45 08	 mov	 eax, DWORD PTR $T6[ebp]
  00134	89 45 04	 mov	 DWORD PTR __Inserted$[ebp], eax
; File C:\Program Files (x86)\Microsoft Visual Studio\2019\Community\VC\Tools\MSVC\14.28.29333\include\map

; 184  :         const auto _Inserted = _Tree_temp_node<_Alnode>(_Mybase::_Getal(), _Scary->_Myhead, piecewise_construct,

  00137	8d 4d e0	 lea	 ecx, DWORD PTR $T1[ebp]
  0013a	e8 00 00 00 00	 call	 ??1?$_Tree_temp_node@V?$allocator@U?$_Tree_node@U?$pair@$$CBKPAVCLight@@@std@@PAX@std@@@std@@@std@@QAE@XZ ; std::_Tree_temp_node<std::allocator<std::_Tree_node<std::pair<unsigned long const ,CLight *>,void *> > >::~_Tree_temp_node<std::allocator<std::_Tree_node<std::pair<unsigned long const ,CLight *>,void *> > >

; 190  :         return {_Scary->_Insert_node(_Loc._Location, _Inserted), true};

  0013f	ff 75 04	 push	 DWORD PTR __Inserted$[ebp]
  00142	ff 75 f0	 push	 DWORD PTR __Loc$[ebp+4]
  00145	ff 75 ec	 push	 DWORD PTR __Loc$[ebp]
  00148	8b 4d 50	 mov	 ecx, DWORD PTR __Scary$[ebp]
  0014b	e8 00 00 00 00	 call	 ?_Insert_node@?$_Tree_val@U?$_Tree_simple_types@U?$pair@$$CBKPAVCLight@@@std@@@std@@@std@@QAEPAU?$_Tree_node@U?$pair@$$CBKPAVCLight@@@std@@PAX@2@U?$_Tree_id@PAU?$_Tree_node@U?$pair@$$CBKPAVCLight@@@std@@PAX@std@@@2@QAU32@@Z ; std::_Tree_val<std::_Tree_simple_types<std::pair<unsigned long const ,CLight *> > >::_Insert_node
  00150	89 45 00	 mov	 DWORD PTR $T5[ebp], eax
  00153	c6 45 6e 01	 mov	 BYTE PTR $T25[ebp], 1
; File C:\Program Files (x86)\Microsoft Visual Studio\2019\Community\VC\Tools\MSVC\14.28.29333\include\type_traits

; 1443 :     return static_cast<_Ty&&>(_Arg);

  00157	8d 45 00	 lea	 eax, DWORD PTR $T5[ebp]
  0015a	89 45 fc	 mov	 DWORD PTR $T4[ebp], eax
; File C:\Program Files (x86)\Microsoft Visual Studio\2019\Community\VC\Tools\MSVC\14.28.29333\include\utility

; 190  :         : first(_STD forward<_Other1>(_Val1)), second(_STD forward<_Other2>(_Val2)) {}

  0015d	8b 45 78	 mov	 eax, DWORD PTR ___$ReturnUdt$[ebp]
  00160	8b 4d fc	 mov	 ecx, DWORD PTR $T4[ebp]
  00163	8b 09		 mov	 ecx, DWORD PTR [ecx]
  00165	89 08		 mov	 DWORD PTR [eax], ecx
; File C:\Program Files (x86)\Microsoft Visual Studio\2019\Community\VC\Tools\MSVC\14.28.29333\include\type_traits

; 1443 :     return static_cast<_Ty&&>(_Arg);

  00167	8d 45 6e	 lea	 eax, DWORD PTR $T25[ebp]
  0016a	89 45 f8	 mov	 DWORD PTR $T3[ebp], eax
; File C:\Program Files (x86)\Microsoft Visual Studio\2019\Community\VC\Tools\MSVC\14.28.29333\include\utility

; 190  :         : first(_STD forward<_Other1>(_Val1)), second(_STD forward<_Other2>(_Val2)) {}

  0016d	8b 45 78	 mov	 eax, DWORD PTR ___$ReturnUdt$[ebp]
  00170	8b 4d f8	 mov	 ecx, DWORD PTR $T3[ebp]
  00173	8a 09		 mov	 cl, BYTE PTR [ecx]
  00175	88 48 04	 mov	 BYTE PTR [eax+4], cl
; File C:\Program Files (x86)\Microsoft Visual Studio\2019\Community\VC\Tools\MSVC\14.28.29333\include\map

; 190  :         return {_Scary->_Insert_node(_Loc._Location, _Inserted), true};

  00178	8b 45 78	 mov	 eax, DWORD PTR ___$ReturnUdt$[ebp]
$LN1@Try_emplac:

; 191  :     }

  0017b	83 c5 70	 add	 ebp, 112		; 00000070H
  0017e	c9		 leave
  0017f	c2 08 00	 ret	 8
??$_Try_emplace@ABK$$V@?$map@KPAVCLight@@U?$less@K@std@@V?$allocator@U?$pair@$$CBKPAVCLight@@@std@@@3@@std@@AAE?AU?$pair@PAU?$_Tree_node@U?$pair@$$CBKPAVCLight@@@std@@PAX@std@@_N@1@ABK@Z ENDP ; std::map<unsigned long,CLight *,std::less<unsigned long>,std::allocator<std::pair<unsigned long const ,CLight *> > >::_Try_emplace<unsigned long const &>
_TEXT	ENDS
; Function compile flags: /Odspy
; File C:\Program Files (x86)\Microsoft Visual Studio\2019\Community\VC\Tools\MSVC\14.28.29333\include\vector
; File C:\Program Files (x86)\Microsoft Visual Studio\2019\Community\VC\Tools\MSVC\14.28.29333\include\xmemory
; File C:\Program Files (x86)\Microsoft Visual Studio\2019\Community\VC\Tools\MSVC\14.28.29333\include\vector
; File C:\Program Files (x86)\Microsoft Visual Studio\2019\Community\VC\Tools\MSVC\14.28.29333\include\xmemory
; File C:\Program Files (x86)\Microsoft Visual Studio\2019\Community\VC\Tools\MSVC\14.28.29333\include\vector
; File C:\Program Files (x86)\Microsoft Visual Studio\2019\Community\VC\Tools\MSVC\14.28.29333\include\xmemory
; File C:\Program Files (x86)\Microsoft Visual Studio\2019\Community\VC\Tools\MSVC\14.28.29333\include\limits
; File C:\Program Files (x86)\Microsoft Visual Studio\2019\Community\VC\Tools\MSVC\14.28.29333\include\vector
; File C:\Program Files (x86)\Microsoft Visual Studio\2019\Community\VC\Tools\MSVC\14.28.29333\include\utility
; File C:\Program Files (x86)\Microsoft Visual Studio\2019\Community\VC\Tools\MSVC\14.28.29333\include\vector
; File C:\Program Files (x86)\Microsoft Visual Studio\2019\Community\VC\Tools\MSVC\14.28.29333\include\xmemory
; File C:\Program Files (x86)\Microsoft Visual Studio\2019\Community\VC\Tools\MSVC\14.28.29333\include\vector
; File C:\Program Files (x86)\Microsoft Visual Studio\2019\Community\VC\Tools\MSVC\14.28.29333\include\type_traits
; File C:\Program Files (x86)\Microsoft Visual Studio\2019\Community\VC\Tools\MSVC\14.28.29333\include\vector
; File C:\Program Files (x86)\Microsoft Visual Studio\2019\Community\VC\Tools\MSVC\14.28.29333\include\xstddef
; File C:\Program Files (x86)\Microsoft Visual Studio\2019\Community\VC\Tools\MSVC\14.28.29333\include\vcruntime_new.h
; File C:\Program Files (x86)\Microsoft Visual Studio\2019\Community\VC\Tools\MSVC\14.28.29333\include\type_traits
; File C:\Program Files (x86)\Microsoft Visual Studio\2019\Community\VC\Tools\MSVC\14.28.29333\include\xmemory
; File C:\Program Files (x86)\Microsoft Visual Studio\2019\Community\VC\Tools\MSVC\14.28.29333\include\vector
; File C:\Program Files (x86)\Microsoft Visual Studio\2019\Community\VC\Tools\MSVC\14.28.29333\include\xmemory
; File C:\Program Files (x86)\Microsoft Visual Studio\2019\Community\VC\Tools\MSVC\14.28.29333\include\vector
; File C:\Program Files (x86)\Microsoft Visual Studio\2019\Community\VC\Tools\MSVC\14.28.29333\include\xmemory
; File C:\Program Files (x86)\Microsoft Visual Studio\2019\Community\VC\Tools\MSVC\14.28.29333\include\vector
; File C:\Program Files (x86)\Microsoft Visual Studio\2019\Community\VC\Tools\MSVC\14.28.29333\include\xmemory
; File C:\Program Files (x86)\Microsoft Visual Studio\2019\Community\VC\Tools\MSVC\14.28.29333\include\vector
;	COMDAT ??$_Emplace_reallocate@ABQAVCLight@@@?$vector@PAVCLight@@V?$allocator@PAVCLight@@@std@@@std@@QAEPAPAVCLight@@QAPAV2@ABQAV2@@Z
_TEXT	SEGMENT
__Max_possible$2 = -68					; size = 4
$T3 = -64						; size = 4
__Al$ = -60						; size = 4
__Last$ = -56						; size = 4
$T4 = -52						; size = 4
$T5 = -48						; size = 4
__First$ = -44						; size = 4
$T6 = -40						; size = 4
$T7 = -36						; size = 4
__First$ = -32						; size = 4
__Last$ = -28						; size = 4
$T8 = -24						; size = 4
$T9 = -20						; size = 4
__$EHRec$ = -16						; size = 16
$T10 = 0						; size = 4
$T11 = 4						; size = 4
$T12 = 8						; size = 4
$T13 = 12						; size = 4
$T14 = 16						; size = 4
$T15 = 20						; size = 4
$T16 = 24						; size = 4
$T17 = 28						; size = 4
$T18 = 32						; size = 4
$T19 = 36						; size = 4
$T20 = 40						; size = 4
__Newsize$ = 44						; size = 4
__Constructed_last$ = 48				; size = 4
__Oldsize$ = 52						; size = 4
tv172 = 56						; size = 4
$T21 = 60						; size = 4
$T22 = 64						; size = 4
__My_data$ = 68						; size = 4
__Constructed_first$ = 72				; size = 4
___formal$ = 76						; size = 1
__Overflow_is_possible$23 = 83				; size = 1
__Newcapacity$ = 84					; size = 4
__Mylast$ = 88						; size = 4
__Myfirst$ = 92						; size = 4
__Whereoff$ = 96					; size = 4
$T24 = 103						; size = 1
_this$ = 104						; size = 4
__Newvec$ = 108						; size = 4
__Whereptr$ = 120					; size = 4
_<_Val_0>$ = 124					; size = 4
??$_Emplace_reallocate@ABQAVCLight@@@?$vector@PAVCLight@@V?$allocator@PAVCLight@@@std@@@std@@QAEPAPAVCLight@@QAPAV2@ABQAV2@@Z PROC ; std::vector<CLight *,std::allocator<CLight *> >::_Emplace_reallocate<CLight * const &>, COMDAT
; _this$ = ecx

; 725  :     pointer _Emplace_reallocate(const pointer _Whereptr, _Valty&&... _Val) {

  00000	55		 push	 ebp
  00001	8d 6c 24 90	 lea	 ebp, DWORD PTR [esp-112]
  00005	83 ec 70	 sub	 esp, 112		; 00000070H
  00008	6a ff		 push	 -1
  0000a	68 00 00 00 00	 push	 __ehhandler$??$_Emplace_reallocate@ABQAVCLight@@@?$vector@PAVCLight@@V?$allocator@PAVCLight@@@std@@@std@@QAEPAPAVCLight@@QAPAV2@ABQAV2@@Z
  0000f	64 a1 00 00 00
	00		 mov	 eax, DWORD PTR fs:0
  00015	50		 push	 eax
  00016	51		 push	 ecx
  00017	83 ec 34	 sub	 esp, 52			; 00000034H
  0001a	53		 push	 ebx
  0001b	56		 push	 esi
  0001c	57		 push	 edi
  0001d	a1 00 00 00 00	 mov	 eax, DWORD PTR ___security_cookie
  00022	33 c5		 xor	 eax, ebp
  00024	50		 push	 eax
  00025	8d 45 f4	 lea	 eax, DWORD PTR __$EHRec$[ebp+4]
  00028	64 a3 00 00 00
	00		 mov	 DWORD PTR fs:0, eax
  0002e	89 65 f0	 mov	 DWORD PTR __$EHRec$[ebp], esp
  00031	89 4d 68	 mov	 DWORD PTR _this$[ebp], ecx

; 1733 :         return _Mypair._Get_first();

  00034	8b 45 68	 mov	 eax, DWORD PTR _this$[ebp]
; File C:\Program Files (x86)\Microsoft Visual Studio\2019\Community\VC\Tools\MSVC\14.28.29333\include\xmemory

; 1347 :         return *this;

  00037	89 45 28	 mov	 DWORD PTR $T20[ebp], eax
; File C:\Program Files (x86)\Microsoft Visual Studio\2019\Community\VC\Tools\MSVC\14.28.29333\include\vector

; 1733 :         return _Mypair._Get_first();

  0003a	8b 45 28	 mov	 eax, DWORD PTR $T20[ebp]
  0003d	89 45 c4	 mov	 DWORD PTR __Al$[ebp], eax

; 726  :         // reallocate and insert by perfectly forwarding _Val at _Whereptr
; 727  :         _Alty& _Al        = _Getal();
; 728  :         auto& _My_data    = _Mypair._Myval2;

  00040	8b 45 68	 mov	 eax, DWORD PTR _this$[ebp]
  00043	89 45 44	 mov	 DWORD PTR __My_data$[ebp], eax

; 729  :         pointer& _Myfirst = _My_data._Myfirst;

  00046	8b 45 44	 mov	 eax, DWORD PTR __My_data$[ebp]
  00049	89 45 5c	 mov	 DWORD PTR __Myfirst$[ebp], eax

; 730  :         pointer& _Mylast  = _My_data._Mylast;

  0004c	8b 45 44	 mov	 eax, DWORD PTR __My_data$[ebp]
  0004f	83 c0 04	 add	 eax, 4
  00052	89 45 58	 mov	 DWORD PTR __Mylast$[ebp], eax

; 731  : 
; 732  :         _STL_INTERNAL_CHECK(_Mylast == _My_data._Myend); // check that we have no unused capacity
; 733  : 
; 734  :         const auto _Whereoff = static_cast<size_type>(_Whereptr - _Myfirst);

  00055	8b 45 5c	 mov	 eax, DWORD PTR __Myfirst$[ebp]
  00058	8b 4d 78	 mov	 ecx, DWORD PTR __Whereptr$[ebp]
  0005b	2b 08		 sub	 ecx, DWORD PTR [eax]
  0005d	c1 f9 02	 sar	 ecx, 2
  00060	89 4d 60	 mov	 DWORD PTR __Whereoff$[ebp], ecx

; 735  :         const auto _Oldsize  = static_cast<size_type>(_Mylast - _Myfirst);

  00063	8b 45 58	 mov	 eax, DWORD PTR __Mylast$[ebp]
  00066	8b 4d 5c	 mov	 ecx, DWORD PTR __Myfirst$[ebp]
  00069	8b 00		 mov	 eax, DWORD PTR [eax]
  0006b	2b 01		 sub	 eax, DWORD PTR [ecx]
  0006d	c1 f8 02	 sar	 eax, 2
  00070	89 45 34	 mov	 DWORD PTR __Oldsize$[ebp], eax

; 1737 :         return _Mypair._Get_first();

  00073	8b 45 68	 mov	 eax, DWORD PTR _this$[ebp]
; File C:\Program Files (x86)\Microsoft Visual Studio\2019\Community\VC\Tools\MSVC\14.28.29333\include\xmemory

; 1351 :         return *this;

  00076	89 45 24	 mov	 DWORD PTR $T19[ebp], eax
; File C:\Program Files (x86)\Microsoft Visual Studio\2019\Community\VC\Tools\MSVC\14.28.29333\include\vector

; 1737 :         return _Mypair._Get_first();

  00079	8b 45 24	 mov	 eax, DWORD PTR $T19[ebp]
  0007c	89 45 c0	 mov	 DWORD PTR $T3[ebp], eax
; File C:\Program Files (x86)\Microsoft Visual Studio\2019\Community\VC\Tools\MSVC\14.28.29333\include\xmemory

; 710  :         return static_cast<size_t>(-1) / sizeof(value_type);

  0007f	c7 45 40 ff ff
	ff 3f		 mov	 DWORD PTR $T22[ebp], 1073741823 ; 3fffffffH
; File C:\Program Files (x86)\Microsoft Visual Studio\2019\Community\VC\Tools\MSVC\14.28.29333\include\limits

; 557  :         return INT_MAX;

  00086	c7 45 20 ff ff
	ff 7f		 mov	 DWORD PTR $T18[ebp], 2147483647 ; 7fffffffH
; File C:\Program Files (x86)\Microsoft Visual Studio\2019\Community\VC\Tools\MSVC\14.28.29333\include\vector

; 1488 :         return (_STD min)(

  0008d	8b 45 20	 mov	 eax, DWORD PTR $T18[ebp]
  00090	89 45 3c	 mov	 DWORD PTR $T21[ebp], eax
; File C:\Program Files (x86)\Microsoft Visual Studio\2019\Community\VC\Tools\MSVC\14.28.29333\include\utility

; 68   :     return _Right < _Left ? _Right : _Left;

  00093	8b 45 40	 mov	 eax, DWORD PTR $T22[ebp]
  00096	3b 45 3c	 cmp	 eax, DWORD PTR $T21[ebp]
  00099	73 08		 jae	 SHORT $LN34@Emplace_re
  0009b	8d 45 40	 lea	 eax, DWORD PTR $T22[ebp]
  0009e	89 45 38	 mov	 DWORD PTR tv172[ebp], eax
  000a1	eb 06		 jmp	 SHORT $LN35@Emplace_re
$LN34@Emplace_re:
  000a3	8d 45 3c	 lea	 eax, DWORD PTR $T21[ebp]
  000a6	89 45 38	 mov	 DWORD PTR tv172[ebp], eax
$LN35@Emplace_re:
  000a9	8b 45 38	 mov	 eax, DWORD PTR tv172[ebp]
  000ac	89 45 1c	 mov	 DWORD PTR $T17[ebp], eax
  000af	8b 45 1c	 mov	 eax, DWORD PTR $T17[ebp]
  000b2	89 45 18	 mov	 DWORD PTR $T16[ebp], eax
; File C:\Program Files (x86)\Microsoft Visual Studio\2019\Community\VC\Tools\MSVC\14.28.29333\include\vector

; 1488 :         return (_STD min)(

  000b5	8b 45 18	 mov	 eax, DWORD PTR $T16[ebp]
  000b8	8b 00		 mov	 eax, DWORD PTR [eax]
  000ba	89 45 14	 mov	 DWORD PTR $T15[ebp], eax

; 736  : 
; 737  :         if (_Oldsize == max_size()) {

  000bd	8b 45 34	 mov	 eax, DWORD PTR __Oldsize$[ebp]
  000c0	3b 45 14	 cmp	 eax, DWORD PTR $T15[ebp]
  000c3	75 05		 jne	 SHORT $LN2@Emplace_re

; 738  :             _Xlength();

  000c5	e8 00 00 00 00	 call	 ?_Xlength@?$vector@PAVCLight@@V?$allocator@PAVCLight@@@std@@@std@@CAXXZ ; std::vector<CLight *,std::allocator<CLight *> >::_Xlength
$LN2@Emplace_re:

; 739  :         }
; 740  : 
; 741  :         const size_type _Newsize     = _Oldsize + 1;

  000ca	8b 45 34	 mov	 eax, DWORD PTR __Oldsize$[ebp]
  000cd	40		 inc	 eax
  000ce	89 45 2c	 mov	 DWORD PTR __Newsize$[ebp], eax

; 742  :         const size_type _Newcapacity = _Calculate_growth(_Newsize);

  000d1	ff 75 2c	 push	 DWORD PTR __Newsize$[ebp]
  000d4	8b 4d 68	 mov	 ecx, DWORD PTR _this$[ebp]
  000d7	e8 00 00 00 00	 call	 ?_Calculate_growth@?$vector@PAVCLight@@V?$allocator@PAVCLight@@@std@@@std@@ABEII@Z ; std::vector<CLight *,std::allocator<CLight *> >::_Calculate_growth
  000dc	89 45 54	 mov	 DWORD PTR __Newcapacity$[ebp], eax
; File C:\Program Files (x86)\Microsoft Visual Studio\2019\Community\VC\Tools\MSVC\14.28.29333\include\xmemory

; 56   :     constexpr bool _Overflow_is_possible = _Ty_size > 1;

  000df	c6 45 53 01	 mov	 BYTE PTR __Overflow_is_possible$23[ebp], 1

; 57   : 
; 58   :     if _CONSTEXPR_IF (_Overflow_is_possible) {
; 59   :         constexpr size_t _Max_possible = static_cast<size_t>(-1) / _Ty_size;

  000e3	c7 45 bc ff ff
	ff 3f		 mov	 DWORD PTR __Max_possible$2[ebp], 1073741823 ; 3fffffffH

; 60   :         if (_Count > _Max_possible) {

  000ea	81 7d 54 ff ff
	ff 3f		 cmp	 DWORD PTR __Newcapacity$[ebp], 1073741823 ; 3fffffffH
  000f1	76 05		 jbe	 SHORT $LN67@Emplace_re

; 61   :             _Throw_bad_array_new_length(); // multiply overflow

  000f3	e8 00 00 00 00	 call	 ?_Throw_bad_array_new_length@std@@YAXXZ ; std::_Throw_bad_array_new_length
$LN67@Emplace_re:

; 62   :         }
; 63   :     }
; 64   : 
; 65   :     return _Count * _Ty_size;

  000f8	8b 45 54	 mov	 eax, DWORD PTR __Newcapacity$[ebp]
  000fb	c1 e0 02	 shl	 eax, 2
  000fe	89 45 10	 mov	 DWORD PTR $T14[ebp], eax

; 814  :         return static_cast<_Ty*>(_Allocate<_New_alignof<_Ty>>(_Get_size_of_n<sizeof(_Ty)>(_Count)));

  00101	ff 75 10	 push	 DWORD PTR $T14[ebp]
  00104	e8 00 00 00 00	 call	 ??$_Allocate@$07U_Default_allocate_traits@std@@$0A@@std@@YAPAXI@Z ; std::_Allocate<8,std::_Default_allocate_traits,0>
  00109	59		 pop	 ecx
  0010a	89 45 6c	 mov	 DWORD PTR __Newvec$[ebp], eax
; File C:\Program Files (x86)\Microsoft Visual Studio\2019\Community\VC\Tools\MSVC\14.28.29333\include\vector

; 745  :         const pointer _Constructed_last = _Newvec + _Whereoff + 1;

  0010d	8b 45 60	 mov	 eax, DWORD PTR __Whereoff$[ebp]
  00110	8b 4d 6c	 mov	 ecx, DWORD PTR __Newvec$[ebp]
  00113	8d 44 81 04	 lea	 eax, DWORD PTR [ecx+eax*4+4]
  00117	89 45 30	 mov	 DWORD PTR __Constructed_last$[ebp], eax

; 746  :         pointer _Constructed_first      = _Constructed_last;

  0011a	8b 45 30	 mov	 eax, DWORD PTR __Constructed_last$[ebp]
  0011d	89 45 48	 mov	 DWORD PTR __Constructed_first$[ebp], eax

; 747  : 
; 748  :         _TRY_BEGIN

  00120	83 65 fc 00	 and	 DWORD PTR __$EHRec$[ebp+12], 0
; File C:\Program Files (x86)\Microsoft Visual Studio\2019\Community\VC\Tools\MSVC\14.28.29333\include\type_traits

; 1443 :     return static_cast<_Ty&&>(_Arg);

  00124	8b 45 7c	 mov	 eax, DWORD PTR _<_Val_0>$[ebp]
  00127	89 45 08	 mov	 DWORD PTR $T12[ebp], eax
; File C:\Program Files (x86)\Microsoft Visual Studio\2019\Community\VC\Tools\MSVC\14.28.29333\include\vector

; 749  :         _Alty_traits::construct(_Al, _Unfancy(_Newvec + _Whereoff), _STD forward<_Valty>(_Val)...);

  0012a	8b 45 60	 mov	 eax, DWORD PTR __Whereoff$[ebp]
  0012d	8b 4d 6c	 mov	 ecx, DWORD PTR __Newvec$[ebp]
  00130	8d 04 81	 lea	 eax, DWORD PTR [ecx+eax*4]
; File C:\Program Files (x86)\Microsoft Visual Studio\2019\Community\VC\Tools\MSVC\14.28.29333\include\xstddef

; 289  :     return _Ptr;

  00133	89 45 0c	 mov	 DWORD PTR $T13[ebp], eax
; File C:\Program Files (x86)\Microsoft Visual Studio\2019\Community\VC\Tools\MSVC\14.28.29333\include\vcruntime_new.h

; 169  :         return _Where;

  00136	8b 45 0c	 mov	 eax, DWORD PTR $T13[ebp]
  00139	89 45 04	 mov	 DWORD PTR $T11[ebp], eax
; File C:\Program Files (x86)\Microsoft Visual Studio\2019\Community\VC\Tools\MSVC\14.28.29333\include\type_traits

; 1443 :     return static_cast<_Ty&&>(_Arg);

  0013c	8b 45 08	 mov	 eax, DWORD PTR $T12[ebp]
  0013f	89 45 00	 mov	 DWORD PTR $T10[ebp], eax
; File C:\Program Files (x86)\Microsoft Visual Studio\2019\Community\VC\Tools\MSVC\14.28.29333\include\xmemory

; 701  :         ::new (const_cast<void*>(static_cast<const volatile void*>(_Ptr))) _Objty(_STD forward<_Types>(_Args)...);

  00142	8b 45 04	 mov	 eax, DWORD PTR $T11[ebp]
  00145	8b 4d 00	 mov	 ecx, DWORD PTR $T10[ebp]
  00148	8b 09		 mov	 ecx, DWORD PTR [ecx]
  0014a	89 08		 mov	 DWORD PTR [eax], ecx
; File C:\Program Files (x86)\Microsoft Visual Studio\2019\Community\VC\Tools\MSVC\14.28.29333\include\vector

; 750  :         _Constructed_first = _Newvec + _Whereoff;

  0014c	8b 45 60	 mov	 eax, DWORD PTR __Whereoff$[ebp]
  0014f	8b 4d 6c	 mov	 ecx, DWORD PTR __Newvec$[ebp]
  00152	8d 04 81	 lea	 eax, DWORD PTR [ecx+eax*4]
  00155	89 45 48	 mov	 DWORD PTR __Constructed_first$[ebp], eax

; 751  : 
; 752  :         if (_Whereptr == _Mylast) { // at back, provide strong guarantee

  00158	8b 45 58	 mov	 eax, DWORD PTR __Mylast$[ebp]
  0015b	8b 4d 78	 mov	 ecx, DWORD PTR __Whereptr$[ebp]
  0015e	3b 08		 cmp	 ecx, DWORD PTR [eax]
  00160	75 3d		 jne	 SHORT $LN4@Emplace_re

; 753  :             _Umove_if_noexcept(_Myfirst, _Mylast, _Newvec);

  00162	8b 45 58	 mov	 eax, DWORD PTR __Mylast$[ebp]
  00165	8b 00		 mov	 eax, DWORD PTR [eax]
  00167	89 45 e4	 mov	 DWORD PTR __Last$[ebp], eax
  0016a	8b 45 5c	 mov	 eax, DWORD PTR __Myfirst$[ebp]
  0016d	8b 00		 mov	 eax, DWORD PTR [eax]
  0016f	89 45 e0	 mov	 DWORD PTR __First$[ebp], eax

; 1607 :         _Umove_if_noexcept1(_First, _Last, _Dest,

  00172	33 c0		 xor	 eax, eax
  00174	88 45 67	 mov	 BYTE PTR $T24[ebp], al
  00177	8a 45 67	 mov	 al, BYTE PTR $T24[ebp]
  0017a	88 45 4c	 mov	 BYTE PTR ___formal$[ebp], al

; 1733 :         return _Mypair._Get_first();

  0017d	8b 45 68	 mov	 eax, DWORD PTR _this$[ebp]
; File C:\Program Files (x86)\Microsoft Visual Studio\2019\Community\VC\Tools\MSVC\14.28.29333\include\xmemory

; 1347 :         return *this;

  00180	89 45 ec	 mov	 DWORD PTR $T9[ebp], eax
; File C:\Program Files (x86)\Microsoft Visual Studio\2019\Community\VC\Tools\MSVC\14.28.29333\include\vector

; 1733 :         return _Mypair._Get_first();

  00183	8b 45 ec	 mov	 eax, DWORD PTR $T9[ebp]
  00186	89 45 e8	 mov	 DWORD PTR $T8[ebp], eax

; 1597 :         _Uninitialized_move(_First, _Last, _Dest, _Getal());

  00189	ff 75 e8	 push	 DWORD PTR $T8[ebp]
  0018c	ff 75 6c	 push	 DWORD PTR __Newvec$[ebp]
  0018f	ff 75 e4	 push	 DWORD PTR __Last$[ebp]
  00192	ff 75 e0	 push	 DWORD PTR __First$[ebp]
  00195	e8 00 00 00 00	 call	 ??$_Uninitialized_move@PAPAVCLight@@V?$allocator@PAVCLight@@@std@@@std@@YAPAPAVCLight@@QAPAV1@0PAPAV1@AAV?$allocator@PAVCLight@@@0@@Z ; std::_Uninitialized_move<CLight * *,std::allocator<CLight *> >
  0019a	83 c4 10	 add	 esp, 16			; 00000010H

; 754  :         } else { // provide basic guarantee

  0019d	eb 5e		 jmp	 SHORT $LN5@Emplace_re
$LN4@Emplace_re:

; 755  :             _Umove(_Myfirst, _Whereptr, _Newvec);

  0019f	8b 45 5c	 mov	 eax, DWORD PTR __Myfirst$[ebp]
  001a2	8b 00		 mov	 eax, DWORD PTR [eax]
  001a4	89 45 d4	 mov	 DWORD PTR __First$[ebp], eax

; 1733 :         return _Mypair._Get_first();

  001a7	8b 45 68	 mov	 eax, DWORD PTR _this$[ebp]
; File C:\Program Files (x86)\Microsoft Visual Studio\2019\Community\VC\Tools\MSVC\14.28.29333\include\xmemory

; 1347 :         return *this;

  001aa	89 45 dc	 mov	 DWORD PTR $T7[ebp], eax
; File C:\Program Files (x86)\Microsoft Visual Studio\2019\Community\VC\Tools\MSVC\14.28.29333\include\vector

; 1733 :         return _Mypair._Get_first();

  001ad	8b 45 dc	 mov	 eax, DWORD PTR $T7[ebp]
  001b0	89 45 d8	 mov	 DWORD PTR $T6[ebp], eax

; 1592 :         return _Uninitialized_move(_First, _Last, _Dest, _Getal());

  001b3	ff 75 d8	 push	 DWORD PTR $T6[ebp]
  001b6	ff 75 6c	 push	 DWORD PTR __Newvec$[ebp]
  001b9	ff 75 78	 push	 DWORD PTR __Whereptr$[ebp]
  001bc	ff 75 d4	 push	 DWORD PTR __First$[ebp]
  001bf	e8 00 00 00 00	 call	 ??$_Uninitialized_move@PAPAVCLight@@V?$allocator@PAVCLight@@@std@@@std@@YAPAPAVCLight@@QAPAV1@0PAPAV1@AAV?$allocator@PAVCLight@@@0@@Z ; std::_Uninitialized_move<CLight * *,std::allocator<CLight *> >
  001c4	83 c4 10	 add	 esp, 16			; 00000010H

; 756  :             _Constructed_first = _Newvec;

  001c7	8b 45 6c	 mov	 eax, DWORD PTR __Newvec$[ebp]
  001ca	89 45 48	 mov	 DWORD PTR __Constructed_first$[ebp], eax

; 757  :             _Umove(_Whereptr, _Mylast, _Newvec + _Whereoff + 1);

  001cd	8b 45 58	 mov	 eax, DWORD PTR __Mylast$[ebp]
  001d0	8b 00		 mov	 eax, DWORD PTR [eax]
  001d2	89 45 c8	 mov	 DWORD PTR __Last$[ebp], eax

; 1733 :         return _Mypair._Get_first();

  001d5	8b 45 68	 mov	 eax, DWORD PTR _this$[ebp]
; File C:\Program Files (x86)\Microsoft Visual Studio\2019\Community\VC\Tools\MSVC\14.28.29333\include\xmemory

; 1347 :         return *this;

  001d8	89 45 d0	 mov	 DWORD PTR $T5[ebp], eax
; File C:\Program Files (x86)\Microsoft Visual Studio\2019\Community\VC\Tools\MSVC\14.28.29333\include\vector

; 1733 :         return _Mypair._Get_first();

  001db	8b 45 d0	 mov	 eax, DWORD PTR $T5[ebp]
  001de	89 45 cc	 mov	 DWORD PTR $T4[ebp], eax

; 1592 :         return _Uninitialized_move(_First, _Last, _Dest, _Getal());

  001e1	ff 75 cc	 push	 DWORD PTR $T4[ebp]

; 757  :             _Umove(_Whereptr, _Mylast, _Newvec + _Whereoff + 1);

  001e4	8b 45 60	 mov	 eax, DWORD PTR __Whereoff$[ebp]
  001e7	8b 4d 6c	 mov	 ecx, DWORD PTR __Newvec$[ebp]
  001ea	8d 44 81 04	 lea	 eax, DWORD PTR [ecx+eax*4+4]

; 1592 :         return _Uninitialized_move(_First, _Last, _Dest, _Getal());

  001ee	50		 push	 eax
  001ef	ff 75 c8	 push	 DWORD PTR __Last$[ebp]
  001f2	ff 75 78	 push	 DWORD PTR __Whereptr$[ebp]
  001f5	e8 00 00 00 00	 call	 ??$_Uninitialized_move@PAPAVCLight@@V?$allocator@PAVCLight@@@std@@@std@@YAPAPAVCLight@@QAPAV1@0PAPAV1@AAV?$allocator@PAVCLight@@@0@@Z ; std::_Uninitialized_move<CLight * *,std::allocator<CLight *> >
  001fa	83 c4 10	 add	 esp, 16			; 00000010H
$LN5@Emplace_re:

; 757  :             _Umove(_Whereptr, _Mylast, _Newvec + _Whereoff + 1);

  001fd	eb 2b		 jmp	 SHORT $LN7@Emplace_re
__catch$??$_Emplace_reallocate@ABQAVCLight@@@?$vector@PAVCLight@@V?$allocator@PAVCLight@@@std@@@std@@QAEPAPAVCLight@@QAPAV2@ABQAV2@@Z$0:

; 758  :         }
; 759  :         _CATCH_ALL
; 760  :         _Destroy(_Constructed_first, _Constructed_last);

  001ff	ff 75 30	 push	 DWORD PTR __Constructed_last$[ebp]
  00202	ff 75 48	 push	 DWORD PTR __Constructed_first$[ebp]
  00205	8b 4d 68	 mov	 ecx, DWORD PTR _this$[ebp]
  00208	e8 00 00 00 00	 call	 ?_Destroy@?$vector@PAVCLight@@V?$allocator@PAVCLight@@@std@@@std@@AAEXPAPAVCLight@@0@Z ; std::vector<CLight *,std::allocator<CLight *> >::_Destroy

; 761  :         _Al.deallocate(_Newvec, _Newcapacity);

  0020d	ff 75 54	 push	 DWORD PTR __Newcapacity$[ebp]
  00210	ff 75 6c	 push	 DWORD PTR __Newvec$[ebp]
  00213	8b 4d c4	 mov	 ecx, DWORD PTR __Al$[ebp]
  00216	e8 00 00 00 00	 call	 ?deallocate@?$allocator@PAVCLight@@@std@@QAEXQAPAVCLight@@I@Z ; std::allocator<CLight *>::deallocate

; 762  :         _RERAISE;

  0021b	6a 00		 push	 0
  0021d	6a 00		 push	 0
  0021f	e8 00 00 00 00	 call	 __CxxThrowException@8

; 763  :         _CATCH_END

  00224	b8 00 00 00 00	 mov	 eax, $LN10@Emplace_re
  00229	c3		 ret	 0
$LN7@Emplace_re:
  0022a	83 4d fc ff	 or	 DWORD PTR __$EHRec$[ebp+12], -1
  0022e	eb 04		 jmp	 SHORT __tryend$??$_Emplace_reallocate@ABQAVCLight@@@?$vector@PAVCLight@@V?$allocator@PAVCLight@@@std@@@std@@QAEPAPAVCLight@@QAPAV2@ABQAV2@@Z$1
$LN10@Emplace_re:
; File C:\Program Files (x86)\Microsoft Visual Studio\2019\Community\VC\Tools\MSVC\14.28.29333\include\xmemory
  00230	83 4d fc ff	 or	 DWORD PTR __$EHRec$[ebp+12], -1
__tryend$??$_Emplace_reallocate@ABQAVCLight@@@?$vector@PAVCLight@@V?$allocator@PAVCLight@@@std@@@std@@QAEPAPAVCLight@@QAPAV2@ABQAV2@@Z$1:
; File C:\Program Files (x86)\Microsoft Visual Studio\2019\Community\VC\Tools\MSVC\14.28.29333\include\vector

; 764  : 
; 765  :         _Change_array(_Newvec, _Newsize, _Newcapacity);

  00234	ff 75 54	 push	 DWORD PTR __Newcapacity$[ebp]
  00237	ff 75 2c	 push	 DWORD PTR __Newsize$[ebp]
  0023a	ff 75 6c	 push	 DWORD PTR __Newvec$[ebp]
  0023d	8b 4d 68	 mov	 ecx, DWORD PTR _this$[ebp]
  00240	e8 00 00 00 00	 call	 ?_Change_array@?$vector@PAVCLight@@V?$allocator@PAVCLight@@@std@@@std@@AAEXQAPAVCLight@@II@Z ; std::vector<CLight *,std::allocator<CLight *> >::_Change_array

; 766  :         return _Newvec + _Whereoff;

  00245	8b 45 60	 mov	 eax, DWORD PTR __Whereoff$[ebp]
  00248	8b 4d 6c	 mov	 ecx, DWORD PTR __Newvec$[ebp]
  0024b	8d 04 81	 lea	 eax, DWORD PTR [ecx+eax*4]
$LN70@Emplace_re:

; 767  :     }

  0024e	8b 4d f4	 mov	 ecx, DWORD PTR __$EHRec$[ebp+4]
  00251	64 89 0d 00 00
	00 00		 mov	 DWORD PTR fs:0, ecx
  00258	59		 pop	 ecx
  00259	5f		 pop	 edi
  0025a	5e		 pop	 esi
  0025b	5b		 pop	 ebx
  0025c	83 c5 70	 add	 ebp, 112		; 00000070H
  0025f	c9		 leave
  00260	c2 08 00	 ret	 8
  00263	cc		 int	 3
  00264	cc		 int	 3
  00265	cc		 int	 3
  00266	cc		 int	 3
  00267	cc		 int	 3
_TEXT	ENDS
;	COMDAT text$x
text$x	SEGMENT
__ehhandler$??$_Emplace_reallocate@ABQAVCLight@@@?$vector@PAVCLight@@V?$allocator@PAVCLight@@@std@@@std@@QAEPAPAVCLight@@QAPAV2@ABQAV2@@Z:
  00000	90		 npad	 1
  00001	90		 npad	 1
  00002	8b 54 24 08	 mov	 edx, DWORD PTR [esp+8]
  00006	8d 42 0c	 lea	 eax, DWORD PTR [edx+12]
  00009	8b 4a b8	 mov	 ecx, DWORD PTR [edx-72]
  0000c	33 c8		 xor	 ecx, eax
  0000e	e8 00 00 00 00	 call	 @__security_check_cookie@4
  00013	b8 00 00 00 00	 mov	 eax, OFFSET __ehfuncinfo$??$_Emplace_reallocate@ABQAVCLight@@@?$vector@PAVCLight@@V?$allocator@PAVCLight@@@std@@@std@@QAEPAPAVCLight@@QAPAV2@ABQAV2@@Z
  00018	e9 00 00 00 00	 jmp	 ___CxxFrameHandler3
text$x	ENDS
??$_Emplace_reallocate@ABQAVCLight@@@?$vector@PAVCLight@@V?$allocator@PAVCLight@@@std@@@std@@QAEPAPAVCLight@@QAPAV2@ABQAV2@@Z ENDP ; std::vector<CLight *,std::allocator<CLight *> >::_Emplace_reallocate<CLight * const &>
; Function compile flags: /Odspy
; File C:\Program Files (x86)\Microsoft Visual Studio\2019\Community\VC\Tools\MSVC\14.28.29333\include\vector
; File C:\Program Files (x86)\Microsoft Visual Studio\2019\Community\VC\Tools\MSVC\14.28.29333\include\type_traits
; File C:\Program Files (x86)\Microsoft Visual Studio\2019\Community\VC\Tools\MSVC\14.28.29333\include\vector
; File C:\Program Files (x86)\Microsoft Visual Studio\2019\Community\VC\Tools\MSVC\14.28.29333\include\xstddef
; File C:\Program Files (x86)\Microsoft Visual Studio\2019\Community\VC\Tools\MSVC\14.28.29333\include\vector
; File C:\Program Files (x86)\Microsoft Visual Studio\2019\Community\VC\Tools\MSVC\14.28.29333\include\xmemory
; File C:\Program Files (x86)\Microsoft Visual Studio\2019\Community\VC\Tools\MSVC\14.28.29333\include\vector
; File C:\Program Files (x86)\Microsoft Visual Studio\2019\Community\VC\Tools\MSVC\14.28.29333\include\vcruntime_new.h
; File C:\Program Files (x86)\Microsoft Visual Studio\2019\Community\VC\Tools\MSVC\14.28.29333\include\type_traits
; File C:\Program Files (x86)\Microsoft Visual Studio\2019\Community\VC\Tools\MSVC\14.28.29333\include\xmemory
; File C:\Program Files (x86)\Microsoft Visual Studio\2019\Community\VC\Tools\MSVC\14.28.29333\include\vector
;	COMDAT ??$_Emplace_back_with_unused_capacity@ABQAVCLight@@@?$vector@PAVCLight@@V?$allocator@PAVCLight@@@std@@@std@@AAEXABQAVCLight@@@Z
_TEXT	SEGMENT
__Result$ = -44						; size = 4
$T1 = -40						; size = 4
$T2 = -36						; size = 4
$T3 = -32						; size = 4
$T4 = -28						; size = 4
$T5 = -24						; size = 4
$T6 = -20						; size = 4
__Ptr$ = -16						; size = 4
__My_data$ = -12					; size = 4
_this$ = -8						; size = 4
__Mylast$ = -4						; size = 4
_<_Val_0>$ = 8						; size = 4
??$_Emplace_back_with_unused_capacity@ABQAVCLight@@@?$vector@PAVCLight@@V?$allocator@PAVCLight@@@std@@@std@@AAEXABQAVCLight@@@Z PROC ; std::vector<CLight *,std::allocator<CLight *> >::_Emplace_back_with_unused_capacity<CLight * const &>, COMDAT
; _this$ = ecx

; 682  :     decltype(auto) _Emplace_back_with_unused_capacity(_Valty&&... _Val) {

  00000	55		 push	 ebp
  00001	8b ec		 mov	 ebp, esp
  00003	83 ec 2c	 sub	 esp, 44			; 0000002cH
  00006	89 4d f8	 mov	 DWORD PTR _this$[ebp], ecx

; 683  :         // insert by perfectly forwarding into element at end, provide strong guarantee
; 684  :         auto& _My_data   = _Mypair._Myval2;

  00009	8b 45 f8	 mov	 eax, DWORD PTR _this$[ebp]
  0000c	89 45 f4	 mov	 DWORD PTR __My_data$[ebp], eax

; 685  :         pointer& _Mylast = _My_data._Mylast;

  0000f	8b 45 f4	 mov	 eax, DWORD PTR __My_data$[ebp]
  00012	83 c0 04	 add	 eax, 4
  00015	89 45 fc	 mov	 DWORD PTR __Mylast$[ebp], eax
; File C:\Program Files (x86)\Microsoft Visual Studio\2019\Community\VC\Tools\MSVC\14.28.29333\include\type_traits

; 1443 :     return static_cast<_Ty&&>(_Arg);

  00018	8b 45 08	 mov	 eax, DWORD PTR _<_Val_0>$[ebp]
  0001b	89 45 e4	 mov	 DWORD PTR $T4[ebp], eax
; File C:\Program Files (x86)\Microsoft Visual Studio\2019\Community\VC\Tools\MSVC\14.28.29333\include\vector

; 687  :         _Alty_traits::construct(_Getal(), _Unfancy(_Mylast), _STD forward<_Valty>(_Val)...);

  0001e	8b 45 fc	 mov	 eax, DWORD PTR __Mylast$[ebp]
  00021	8b 00		 mov	 eax, DWORD PTR [eax]
  00023	89 45 f0	 mov	 DWORD PTR __Ptr$[ebp], eax
; File C:\Program Files (x86)\Microsoft Visual Studio\2019\Community\VC\Tools\MSVC\14.28.29333\include\xstddef

; 289  :     return _Ptr;

  00026	8b 45 f0	 mov	 eax, DWORD PTR __Ptr$[ebp]
  00029	89 45 e8	 mov	 DWORD PTR $T5[ebp], eax
; File C:\Program Files (x86)\Microsoft Visual Studio\2019\Community\VC\Tools\MSVC\14.28.29333\include\vector

; 1733 :         return _Mypair._Get_first();

  0002c	8b 45 f8	 mov	 eax, DWORD PTR _this$[ebp]
; File C:\Program Files (x86)\Microsoft Visual Studio\2019\Community\VC\Tools\MSVC\14.28.29333\include\xmemory

; 1347 :         return *this;

  0002f	89 45 ec	 mov	 DWORD PTR $T6[ebp], eax
; File C:\Program Files (x86)\Microsoft Visual Studio\2019\Community\VC\Tools\MSVC\14.28.29333\include\vector

; 1733 :         return _Mypair._Get_first();

  00032	8b 45 ec	 mov	 eax, DWORD PTR $T6[ebp]
  00035	89 45 d8	 mov	 DWORD PTR $T1[ebp], eax
; File C:\Program Files (x86)\Microsoft Visual Studio\2019\Community\VC\Tools\MSVC\14.28.29333\include\vcruntime_new.h

; 169  :         return _Where;

  00038	8b 45 e8	 mov	 eax, DWORD PTR $T5[ebp]
  0003b	89 45 e0	 mov	 DWORD PTR $T3[ebp], eax
; File C:\Program Files (x86)\Microsoft Visual Studio\2019\Community\VC\Tools\MSVC\14.28.29333\include\type_traits

; 1443 :     return static_cast<_Ty&&>(_Arg);

  0003e	8b 45 e4	 mov	 eax, DWORD PTR $T4[ebp]
  00041	89 45 dc	 mov	 DWORD PTR $T2[ebp], eax
; File C:\Program Files (x86)\Microsoft Visual Studio\2019\Community\VC\Tools\MSVC\14.28.29333\include\xmemory

; 701  :         ::new (const_cast<void*>(static_cast<const volatile void*>(_Ptr))) _Objty(_STD forward<_Types>(_Args)...);

  00044	8b 45 e0	 mov	 eax, DWORD PTR $T3[ebp]
  00047	8b 4d dc	 mov	 ecx, DWORD PTR $T2[ebp]
  0004a	8b 09		 mov	 ecx, DWORD PTR [ecx]
  0004c	89 08		 mov	 DWORD PTR [eax], ecx
; File C:\Program Files (x86)\Microsoft Visual Studio\2019\Community\VC\Tools\MSVC\14.28.29333\include\vector

; 689  :         _Ty& _Result = *_Mylast;

  0004e	8b 45 fc	 mov	 eax, DWORD PTR __Mylast$[ebp]
  00051	8b 00		 mov	 eax, DWORD PTR [eax]
  00053	89 45 d4	 mov	 DWORD PTR __Result$[ebp], eax

; 690  :         ++_Mylast;

  00056	8b 45 fc	 mov	 eax, DWORD PTR __Mylast$[ebp]
  00059	8b 00		 mov	 eax, DWORD PTR [eax]
  0005b	83 c0 04	 add	 eax, 4
  0005e	8b 4d fc	 mov	 ecx, DWORD PTR __Mylast$[ebp]
  00061	89 01		 mov	 DWORD PTR [ecx], eax

; 691  : #if _HAS_CXX17
; 692  :         return _Result;
; 693  : #else // ^^^ _HAS_CXX17 ^^^ // vvv !_HAS_CXX17 vvv
; 694  :         (void) _Result;
; 695  : #endif // _HAS_CXX17
; 696  :     }

  00063	c9		 leave
  00064	c2 04 00	 ret	 4
??$_Emplace_back_with_unused_capacity@ABQAVCLight@@@?$vector@PAVCLight@@V?$allocator@PAVCLight@@@std@@@std@@AAEXABQAVCLight@@@Z ENDP ; std::vector<CLight *,std::allocator<CLight *> >::_Emplace_back_with_unused_capacity<CLight * const &>
_TEXT	ENDS
; Function compile flags: /Odspy
; File C:\Program Files (x86)\Microsoft Visual Studio\2019\Community\VC\Tools\MSVC\14.28.29333\include\vector
; File C:\Program Files (x86)\Microsoft Visual Studio\2019\Community\VC\Tools\MSVC\14.28.29333\include\type_traits
; File C:\Program Files (x86)\Microsoft Visual Studio\2019\Community\VC\Tools\MSVC\14.28.29333\include\vector
; File C:\Program Files (x86)\Microsoft Visual Studio\2019\Community\VC\Tools\MSVC\14.28.29333\include\type_traits
; File C:\Program Files (x86)\Microsoft Visual Studio\2019\Community\VC\Tools\MSVC\14.28.29333\include\vector
;	COMDAT ??$emplace_back@ABQAVCLight@@@?$vector@PAVCLight@@V?$allocator@PAVCLight@@@std@@@std@@QAEXABQAVCLight@@@Z
_TEXT	SEGMENT
__Result$ = -24						; size = 4
$T1 = -20						; size = 4
$T2 = -16						; size = 4
__Mylast$ = -12						; size = 4
__My_data$ = -8						; size = 4
_this$ = -4						; size = 4
_<_Val_0>$ = 8						; size = 4
??$emplace_back@ABQAVCLight@@@?$vector@PAVCLight@@V?$allocator@PAVCLight@@@std@@@std@@QAEXABQAVCLight@@@Z PROC ; std::vector<CLight *,std::allocator<CLight *> >::emplace_back<CLight * const &>, COMDAT
; _this$ = ecx

; 700  :     decltype(auto) emplace_back(_Valty&&... _Val) {

  00000	55		 push	 ebp
  00001	8b ec		 mov	 ebp, esp
  00003	83 ec 18	 sub	 esp, 24			; 00000018H
  00006	89 4d fc	 mov	 DWORD PTR _this$[ebp], ecx

; 701  :         // insert by perfectly forwarding into element at end, provide strong guarantee
; 702  :         auto& _My_data   = _Mypair._Myval2;

  00009	8b 45 fc	 mov	 eax, DWORD PTR _this$[ebp]
  0000c	89 45 f8	 mov	 DWORD PTR __My_data$[ebp], eax

; 703  :         pointer& _Mylast = _My_data._Mylast;

  0000f	8b 45 f8	 mov	 eax, DWORD PTR __My_data$[ebp]
  00012	83 c0 04	 add	 eax, 4
  00015	89 45 f4	 mov	 DWORD PTR __Mylast$[ebp], eax

; 704  :         if (_Mylast != _My_data._Myend) {

  00018	8b 45 f4	 mov	 eax, DWORD PTR __Mylast$[ebp]
  0001b	8b 4d f8	 mov	 ecx, DWORD PTR __My_data$[ebp]
  0001e	8b 00		 mov	 eax, DWORD PTR [eax]
  00020	3b 41 08	 cmp	 eax, DWORD PTR [ecx+8]
  00023	74 13		 je	 SHORT $LN2@emplace_ba
; File C:\Program Files (x86)\Microsoft Visual Studio\2019\Community\VC\Tools\MSVC\14.28.29333\include\type_traits

; 1443 :     return static_cast<_Ty&&>(_Arg);

  00025	8b 45 08	 mov	 eax, DWORD PTR _<_Val_0>$[ebp]
  00028	89 45 f0	 mov	 DWORD PTR $T2[ebp], eax
; File C:\Program Files (x86)\Microsoft Visual Studio\2019\Community\VC\Tools\MSVC\14.28.29333\include\vector

; 705  :             return _Emplace_back_with_unused_capacity(_STD forward<_Valty>(_Val)...);

  0002b	ff 75 f0	 push	 DWORD PTR $T2[ebp]
  0002e	8b 4d fc	 mov	 ecx, DWORD PTR _this$[ebp]
  00031	e8 00 00 00 00	 call	 ??$_Emplace_back_with_unused_capacity@ABQAVCLight@@@?$vector@PAVCLight@@V?$allocator@PAVCLight@@@std@@@std@@AAEXABQAVCLight@@@Z ; std::vector<CLight *,std::allocator<CLight *> >::_Emplace_back_with_unused_capacity<CLight * const &>
  00036	eb 19		 jmp	 SHORT $LN1@emplace_ba
$LN2@emplace_ba:
; File C:\Program Files (x86)\Microsoft Visual Studio\2019\Community\VC\Tools\MSVC\14.28.29333\include\type_traits

; 1443 :     return static_cast<_Ty&&>(_Arg);

  00038	8b 45 08	 mov	 eax, DWORD PTR _<_Val_0>$[ebp]
  0003b	89 45 ec	 mov	 DWORD PTR $T1[ebp], eax
; File C:\Program Files (x86)\Microsoft Visual Studio\2019\Community\VC\Tools\MSVC\14.28.29333\include\vector

; 708  :         _Ty& _Result = *_Emplace_reallocate(_Mylast, _STD forward<_Valty>(_Val)...);

  0003e	ff 75 ec	 push	 DWORD PTR $T1[ebp]
  00041	8b 45 f4	 mov	 eax, DWORD PTR __Mylast$[ebp]
  00044	ff 30		 push	 DWORD PTR [eax]
  00046	8b 4d fc	 mov	 ecx, DWORD PTR _this$[ebp]
  00049	e8 00 00 00 00	 call	 ??$_Emplace_reallocate@ABQAVCLight@@@?$vector@PAVCLight@@V?$allocator@PAVCLight@@@std@@@std@@QAEPAPAVCLight@@QAPAV2@ABQAV2@@Z ; std::vector<CLight *,std::allocator<CLight *> >::_Emplace_reallocate<CLight * const &>
  0004e	89 45 e8	 mov	 DWORD PTR __Result$[ebp], eax
$LN1@emplace_ba:

; 709  : #if _HAS_CXX17
; 710  :         return _Result;
; 711  : #else // ^^^ _HAS_CXX17 ^^^ // vvv !_HAS_CXX17 vvv
; 712  :         (void) _Result;
; 713  : #endif // _HAS_CXX17
; 714  :     }

  00051	c9		 leave
  00052	c2 04 00	 ret	 4
??$emplace_back@ABQAVCLight@@@?$vector@PAVCLight@@V?$allocator@PAVCLight@@@std@@@std@@QAEXABQAVCLight@@@Z ENDP ; std::vector<CLight *,std::allocator<CLight *> >::emplace_back<CLight * const &>
_TEXT	ENDS
; Function compile flags: /Odspy
; File C:\Program Files (x86)\Microsoft Visual Studio\2019\Community\VC\Tools\MSVC\14.28.29333\include\algorithm
; File C:\Program Files (x86)\Microsoft Visual Studio\2019\Community\VC\Tools\MSVC\14.28.29333\include\vector
; File C:\Program Files (x86)\Microsoft Visual Studio\2019\Community\VC\Tools\MSVC\14.28.29333\include\xstddef
; File C:\Program Files (x86)\Microsoft Visual Studio\2019\Community\VC\Tools\MSVC\14.28.29333\include\vector
; File C:\Program Files (x86)\Microsoft Visual Studio\2019\Community\VC\Tools\MSVC\14.28.29333\include\algorithm
; File C:\Program Files (x86)\Microsoft Visual Studio\2019\Community\VC\Tools\MSVC\14.28.29333\include\vector
; File C:\Program Files (x86)\Microsoft Visual Studio\2019\Community\VC\Tools\MSVC\14.28.29333\include\xstddef
; File C:\Program Files (x86)\Microsoft Visual Studio\2019\Community\VC\Tools\MSVC\14.28.29333\include\vector
; File C:\Program Files (x86)\Microsoft Visual Studio\2019\Community\VC\Tools\MSVC\14.28.29333\include\algorithm
;	COMDAT ??$for_each@V?$_Vector_iterator@V?$_Vector_val@U?$_Simple_types@PAVCLight@@@std@@@std@@@std@@P6AXPAVCLight@@@Z@std@@YAP6AXPAVCLight@@@ZV?$_Vector_iterator@V?$_Vector_val@U?$_Simple_types@PAVCLight@@@std@@@std@@@0@1P6AX0@Z@Z
_TEXT	SEGMENT
__ULast$ = -32						; size = 4
$T1 = -28						; size = 4
$T2 = -24						; size = 4
__Ptr$3 = -20						; size = 4
$T4 = -16						; size = 4
$T5 = -12						; size = 4
__Ptr$6 = -8						; size = 4
__UFirst$ = -4						; size = 4
__First$ = 8						; size = 4
__Last$ = 12						; size = 4
__Func$ = 16						; size = 4
??$for_each@V?$_Vector_iterator@V?$_Vector_val@U?$_Simple_types@PAVCLight@@@std@@@std@@@std@@P6AXPAVCLight@@@Z@std@@YAP6AXPAVCLight@@@ZV?$_Vector_iterator@V?$_Vector_val@U?$_Simple_types@PAVCLight@@@std@@@std@@@0@1P6AX0@Z@Z PROC ; std::for_each<std::_Vector_iterator<std::_Vector_val<std::_Simple_types<CLight *> > >,void (__cdecl*)(CLight *)>, COMDAT

; 303  : _CONSTEXPR20 _Fn for_each(_InIt _First, _InIt _Last, _Fn _Func) { // perform function for each element [_First, _Last)

  00000	55		 push	 ebp
  00001	8b ec		 mov	 ebp, esp
  00003	83 ec 20	 sub	 esp, 32			; 00000020H
; File C:\Program Files (x86)\Microsoft Visual Studio\2019\Community\VC\Tools\MSVC\14.28.29333\include\vector

; 310  :         return _Unfancy(this->_Ptr);

  00006	8b 45 08	 mov	 eax, DWORD PTR __First$[ebp]
  00009	89 45 f8	 mov	 DWORD PTR __Ptr$6[ebp], eax
; File C:\Program Files (x86)\Microsoft Visual Studio\2019\Community\VC\Tools\MSVC\14.28.29333\include\xstddef

; 289  :     return _Ptr;

  0000c	8b 45 f8	 mov	 eax, DWORD PTR __Ptr$6[ebp]
  0000f	89 45 f4	 mov	 DWORD PTR $T5[ebp], eax
; File C:\Program Files (x86)\Microsoft Visual Studio\2019\Community\VC\Tools\MSVC\14.28.29333\include\vector

; 310  :         return _Unfancy(this->_Ptr);

  00012	8b 45 f4	 mov	 eax, DWORD PTR $T5[ebp]
  00015	89 45 f0	 mov	 DWORD PTR $T4[ebp], eax
; File C:\Program Files (x86)\Microsoft Visual Studio\2019\Community\VC\Tools\MSVC\14.28.29333\include\algorithm

; 305  :     auto _UFirst      = _Get_unwrapped(_First);

  00018	8b 45 f0	 mov	 eax, DWORD PTR $T4[ebp]
  0001b	89 45 fc	 mov	 DWORD PTR __UFirst$[ebp], eax
; File C:\Program Files (x86)\Microsoft Visual Studio\2019\Community\VC\Tools\MSVC\14.28.29333\include\vector

; 310  :         return _Unfancy(this->_Ptr);

  0001e	8b 45 0c	 mov	 eax, DWORD PTR __Last$[ebp]
  00021	89 45 ec	 mov	 DWORD PTR __Ptr$3[ebp], eax
; File C:\Program Files (x86)\Microsoft Visual Studio\2019\Community\VC\Tools\MSVC\14.28.29333\include\xstddef

; 289  :     return _Ptr;

  00024	8b 45 ec	 mov	 eax, DWORD PTR __Ptr$3[ebp]
  00027	89 45 e8	 mov	 DWORD PTR $T2[ebp], eax
; File C:\Program Files (x86)\Microsoft Visual Studio\2019\Community\VC\Tools\MSVC\14.28.29333\include\vector

; 310  :         return _Unfancy(this->_Ptr);

  0002a	8b 45 e8	 mov	 eax, DWORD PTR $T2[ebp]
  0002d	89 45 e4	 mov	 DWORD PTR $T1[ebp], eax
; File C:\Program Files (x86)\Microsoft Visual Studio\2019\Community\VC\Tools\MSVC\14.28.29333\include\algorithm

; 306  :     const auto _ULast = _Get_unwrapped(_Last);

  00030	8b 45 e4	 mov	 eax, DWORD PTR $T1[ebp]
  00033	89 45 e0	 mov	 DWORD PTR __ULast$[ebp], eax

; 307  :     for (; _UFirst != _ULast; ++_UFirst) {

  00036	eb 09		 jmp	 SHORT $LN4@for_each
$LN2@for_each:
  00038	8b 45 fc	 mov	 eax, DWORD PTR __UFirst$[ebp]
  0003b	83 c0 04	 add	 eax, 4
  0003e	89 45 fc	 mov	 DWORD PTR __UFirst$[ebp], eax
$LN4@for_each:
  00041	8b 45 fc	 mov	 eax, DWORD PTR __UFirst$[ebp]
  00044	3b 45 e0	 cmp	 eax, DWORD PTR __ULast$[ebp]
  00047	74 0b		 je	 SHORT $LN3@for_each

; 308  :         _Func(*_UFirst);

  00049	8b 45 fc	 mov	 eax, DWORD PTR __UFirst$[ebp]
  0004c	ff 30		 push	 DWORD PTR [eax]
  0004e	ff 55 10	 call	 DWORD PTR __Func$[ebp]
  00051	59		 pop	 ecx

; 309  :     }

  00052	eb e4		 jmp	 SHORT $LN2@for_each
$LN3@for_each:

; 310  : 
; 311  :     return _Func;

  00054	8b 45 10	 mov	 eax, DWORD PTR __Func$[ebp]

; 312  : }

  00057	c9		 leave
  00058	c3		 ret	 0
??$for_each@V?$_Vector_iterator@V?$_Vector_val@U?$_Simple_types@PAVCLight@@@std@@@std@@@std@@P6AXPAVCLight@@@Z@std@@YAP6AXPAVCLight@@@ZV?$_Vector_iterator@V?$_Vector_val@U?$_Simple_types@PAVCLight@@@std@@@std@@@0@1P6AX0@Z@Z ENDP ; std::for_each<std::_Vector_iterator<std::_Vector_val<std::_Simple_types<CLight *> > >,void (__cdecl*)(CLight *)>
_TEXT	ENDS
; Function compile flags: /Odspy
; File C:\Program Files (x86)\Microsoft Visual Studio\2019\Community\VC\Tools\MSVC\14.28.29333\include\xtree
; File C:\Program Files (x86)\Microsoft Visual Studio\2019\Community\VC\Tools\MSVC\14.28.29333\include\xstddef
; File C:\Program Files (x86)\Microsoft Visual Studio\2019\Community\VC\Tools\MSVC\14.28.29333\include\xtree
; File C:\Program Files (x86)\Microsoft Visual Studio\2019\Community\VC\Tools\MSVC\14.28.29333\include\xmemory
; File C:\Program Files (x86)\Microsoft Visual Studio\2019\Community\VC\Tools\MSVC\14.28.29333\include\xtree
;	COMDAT ??$erase@V?$_Tree_iterator@V?$_Tree_val@U?$_Tree_simple_types@U?$pair@$$CBKPAVCLight@@@std@@@std@@@std@@@std@@$0A@@?$_Tree@V?$_Tmap_traits@KPAVCLight@@U?$less@K@std@@V?$allocator@U?$pair@$$CBKPAVCLight@@@std@@@3@$0A@@std@@@std@@QAE?AV?$_Tree_iterator@V?$_Tree_val@U?$_Tree_simple_types@U?$pair@$$CBKPAVCLight@@@std@@@std@@@std@@@1@V21@@Z
_TEXT	SEGMENT
$T1 = -36						; size = 4
__Scary$ = -32						; size = 4
___param0$ = -28					; size = 4
$T2 = -24						; size = 4
$T3 = -20						; size = 4
$T4 = -16						; size = 4
___param0$ = -12					; size = 4
$T5 = -8						; size = 4
_this$ = -4						; size = 4
___$ReturnUdt$ = 8					; size = 4
__Where$ = 12						; size = 4
??$erase@V?$_Tree_iterator@V?$_Tree_val@U?$_Tree_simple_types@U?$pair@$$CBKPAVCLight@@@std@@@std@@@std@@@std@@$0A@@?$_Tree@V?$_Tmap_traits@KPAVCLight@@U?$less@K@std@@V?$allocator@U?$pair@$$CBKPAVCLight@@@std@@@3@$0A@@std@@@std@@QAE?AV?$_Tree_iterator@V?$_Tree_val@U?$_Tree_simple_types@U?$pair@$$CBKPAVCLight@@@std@@@std@@@std@@@1@V21@@Z PROC ; std::_Tree<std::_Tmap_traits<unsigned long,CLight *,std::less<unsigned long>,std::allocator<std::pair<unsigned long const ,CLight *> >,0> >::erase<std::_Tree_iterator<std::_Tree_val<std::_Tree_simple_types<std::pair<unsigned long const ,CLight *> > > >,0>, COMDAT
; _this$ = ecx

; 1413 :     iterator erase(iterator _Where) noexcept /* strengthened */ {

  00000	55		 push	 ebp
  00001	8b ec		 mov	 ebp, esp
  00003	83 ec 24	 sub	 esp, 36			; 00000024H
  00006	89 4d fc	 mov	 DWORD PTR _this$[ebp], ecx

; 2047 :         return _STD addressof(_Mypair._Myval2._Myval2);

  00009	8b 45 fc	 mov	 eax, DWORD PTR _this$[ebp]
; File C:\Program Files (x86)\Microsoft Visual Studio\2019\Community\VC\Tools\MSVC\14.28.29333\include\xstddef

; 275  :     return __builtin_addressof(_Val);

  0000c	89 45 f8	 mov	 DWORD PTR $T5[ebp], eax
; File C:\Program Files (x86)\Microsoft Visual Studio\2019\Community\VC\Tools\MSVC\14.28.29333\include\xtree

; 2047 :         return _STD addressof(_Mypair._Myval2._Myval2);

  0000f	8b 45 f8	 mov	 eax, DWORD PTR $T5[ebp]
  00012	89 45 e0	 mov	 DWORD PTR __Scary$[ebp], eax
; File C:\Program Files (x86)\Microsoft Visual Studio\2019\Community\VC\Tools\MSVC\14.28.29333\include\xmemory

; 1079 :         return nullptr;

  00015	83 65 dc 00	 and	 DWORD PTR $T1[ebp], 0
; File C:\Program Files (x86)\Microsoft Visual Studio\2019\Community\VC\Tools\MSVC\14.28.29333\include\xtree

; 305  :         return _Tree_unchecked_iterator<_Mytree>(this->_Ptr, static_cast<const _Mytree*>(this->_Getcont()));

  00019	8b 45 0c	 mov	 eax, DWORD PTR __Where$[ebp]
  0001c	89 45 f4	 mov	 DWORD PTR ___param0$[ebp], eax

; 39   :     _Tree_unchecked_const_iterator(_Nodeptr _Pnode, const _Mytree* _Plist) noexcept : _Ptr(_Pnode) {

  0001f	8b 45 f4	 mov	 eax, DWORD PTR ___param0$[ebp]
  00022	89 45 f0	 mov	 DWORD PTR $T4[ebp], eax

; 305  :         return _Tree_unchecked_iterator<_Mytree>(this->_Ptr, static_cast<const _Mytree*>(this->_Getcont()));

  00025	8d 45 f0	 lea	 eax, DWORD PTR $T4[ebp]
  00028	89 45 ec	 mov	 DWORD PTR $T3[ebp], eax

; 1414 :         const auto _Scary = _Get_scary();
; 1415 : #if _ITERATOR_DEBUG_LEVEL == 2
; 1416 :         _STL_VERIFY(_Where._Getcont() == _Scary, "map/set erase iterator from incorrect container");
; 1417 :         _STL_VERIFY(!_Where._Ptr->_Isnil, "cannot erase map/set end() iterator");
; 1418 : #endif // _ITERATOR_DEBUG_LEVEL == 2
; 1419 :         return iterator(_Erase_unchecked(_Where._Unwrapped()), _Scary);

  0002b	8b 45 ec	 mov	 eax, DWORD PTR $T3[ebp]
  0002e	8b 00		 mov	 eax, DWORD PTR [eax]
  00030	89 45 e8	 mov	 DWORD PTR $T2[ebp], eax
  00033	ff 75 e8	 push	 DWORD PTR $T2[ebp]
  00036	8b 4d fc	 mov	 ecx, DWORD PTR _this$[ebp]
  00039	e8 00 00 00 00	 call	 ?_Erase_unchecked@?$_Tree@V?$_Tmap_traits@KPAVCLight@@U?$less@K@std@@V?$allocator@U?$pair@$$CBKPAVCLight@@@std@@@3@$0A@@std@@@std@@AAEPAU?$_Tree_node@U?$pair@$$CBKPAVCLight@@@std@@PAX@2@V?$_Tree_unchecked_const_iterator@V?$_Tree_val@U?$_Tree_simple_types@U?$pair@$$CBKPAVCLight@@@std@@@std@@@std@@U_Iterator_base0@2@@2@@Z ; std::_Tree<std::_Tmap_traits<unsigned long,CLight *,std::less<unsigned long>,std::allocator<std::pair<unsigned long const ,CLight *> >,0> >::_Erase_unchecked
  0003e	89 45 e4	 mov	 DWORD PTR ___param0$[ebp], eax

; 39   :     _Tree_unchecked_const_iterator(_Nodeptr _Pnode, const _Mytree* _Plist) noexcept : _Ptr(_Pnode) {

  00041	8b 45 08	 mov	 eax, DWORD PTR ___$ReturnUdt$[ebp]
  00044	8b 4d e4	 mov	 ecx, DWORD PTR ___param0$[ebp]
  00047	89 08		 mov	 DWORD PTR [eax], ecx

; 1414 :         const auto _Scary = _Get_scary();
; 1415 : #if _ITERATOR_DEBUG_LEVEL == 2
; 1416 :         _STL_VERIFY(_Where._Getcont() == _Scary, "map/set erase iterator from incorrect container");
; 1417 :         _STL_VERIFY(!_Where._Ptr->_Isnil, "cannot erase map/set end() iterator");
; 1418 : #endif // _ITERATOR_DEBUG_LEVEL == 2
; 1419 :         return iterator(_Erase_unchecked(_Where._Unwrapped()), _Scary);

  00049	8b 45 08	 mov	 eax, DWORD PTR ___$ReturnUdt$[ebp]

; 1420 :     }

  0004c	c9		 leave
  0004d	c2 08 00	 ret	 8
??$erase@V?$_Tree_iterator@V?$_Tree_val@U?$_Tree_simple_types@U?$pair@$$CBKPAVCLight@@@std@@@std@@@std@@@std@@$0A@@?$_Tree@V?$_Tmap_traits@KPAVCLight@@U?$less@K@std@@V?$allocator@U?$pair@$$CBKPAVCLight@@@std@@@3@$0A@@std@@@std@@QAE?AV?$_Tree_iterator@V?$_Tree_val@U?$_Tree_simple_types@U?$pair@$$CBKPAVCLight@@@std@@@std@@@std@@@1@V21@@Z ENDP ; std::_Tree<std::_Tmap_traits<unsigned long,CLight *,std::less<unsigned long>,std::allocator<std::pair<unsigned long const ,CLight *> >,0> >::erase<std::_Tree_iterator<std::_Tree_val<std::_Tree_simple_types<std::pair<unsigned long const ,CLight *> > > >,0>
_TEXT	ENDS
; Function compile flags: /Odspy
; File C:\Program Files (x86)\Microsoft Visual Studio\2019\Community\VC\Tools\MSVC\14.28.29333\include\xtree
;	COMDAT ??E?$_Tree_unchecked_const_iterator@V?$_Tree_val@U?$_Tree_simple_types@U?$pair@$$CBKPAVCLight@@@std@@@std@@@std@@U_Iterator_base0@2@@std@@QAEAAV01@XZ
_TEXT	SEGMENT
$T1 = -16						; size = 4
__Pnode$ = -12						; size = 4
__Pnode$2 = -8						; size = 4
_this$ = -4						; size = 4
??E?$_Tree_unchecked_const_iterator@V?$_Tree_val@U?$_Tree_simple_types@U?$pair@$$CBKPAVCLight@@@std@@@std@@@std@@U_Iterator_base0@2@@std@@QAEAAV01@XZ PROC ; std::_Tree_unchecked_const_iterator<std::_Tree_val<std::_Tree_simple_types<std::pair<unsigned long const ,CLight *> > >,std::_Iterator_base0>::operator++, COMDAT
; _this$ = ecx

; 51   :     _Tree_unchecked_const_iterator& operator++() noexcept {

  00000	55		 push	 ebp
  00001	8b ec		 mov	 ebp, esp
  00003	83 ec 10	 sub	 esp, 16			; 00000010H
  00006	89 4d fc	 mov	 DWORD PTR _this$[ebp], ecx

; 52   :         if (_Ptr->_Right->_Isnil) { // climb looking for right subtree

  00009	8b 45 fc	 mov	 eax, DWORD PTR _this$[ebp]
  0000c	8b 00		 mov	 eax, DWORD PTR [eax]
  0000e	8b 40 08	 mov	 eax, DWORD PTR [eax+8]
  00011	0f be 40 0d	 movsx	 eax, BYTE PTR [eax+13]
  00015	85 c0		 test	 eax, eax
  00017	74 37		 je	 SHORT $LN4@operator
$LN2@operator:

; 53   :             _Nodeptr _Pnode;
; 54   :             while (!(_Pnode = _Ptr->_Parent)->_Isnil && _Ptr == _Pnode->_Right) {

  00019	8b 45 fc	 mov	 eax, DWORD PTR _this$[ebp]
  0001c	8b 00		 mov	 eax, DWORD PTR [eax]
  0001e	8b 40 04	 mov	 eax, DWORD PTR [eax+4]
  00021	89 45 f8	 mov	 DWORD PTR __Pnode$2[ebp], eax
  00024	8b 45 f8	 mov	 eax, DWORD PTR __Pnode$2[ebp]
  00027	0f be 40 0d	 movsx	 eax, BYTE PTR [eax+13]
  0002b	85 c0		 test	 eax, eax
  0002d	75 17		 jne	 SHORT $LN3@operator
  0002f	8b 45 fc	 mov	 eax, DWORD PTR _this$[ebp]
  00032	8b 4d f8	 mov	 ecx, DWORD PTR __Pnode$2[ebp]
  00035	8b 00		 mov	 eax, DWORD PTR [eax]
  00037	3b 41 08	 cmp	 eax, DWORD PTR [ecx+8]
  0003a	75 0a		 jne	 SHORT $LN3@operator

; 55   :                 _Ptr = _Pnode; // ==> parent while right subtree

  0003c	8b 45 fc	 mov	 eax, DWORD PTR _this$[ebp]
  0003f	8b 4d f8	 mov	 ecx, DWORD PTR __Pnode$2[ebp]
  00042	89 08		 mov	 DWORD PTR [eax], ecx

; 56   :             }

  00044	eb d3		 jmp	 SHORT $LN2@operator
$LN3@operator:

; 57   : 
; 58   :             _Ptr = _Pnode; // ==> parent (head if end())

  00046	8b 45 fc	 mov	 eax, DWORD PTR _this$[ebp]
  00049	8b 4d f8	 mov	 ecx, DWORD PTR __Pnode$2[ebp]
  0004c	89 08		 mov	 DWORD PTR [eax], ecx

; 59   :         } else {

  0004e	eb 30		 jmp	 SHORT $LN5@operator
$LN4@operator:

; 60   :             _Ptr = _Mytree::_Min(_Ptr->_Right); // ==> smallest of right subtree

  00050	8b 45 fc	 mov	 eax, DWORD PTR _this$[ebp]
  00053	8b 00		 mov	 eax, DWORD PTR [eax]
  00055	8b 40 08	 mov	 eax, DWORD PTR [eax+8]
  00058	89 45 f4	 mov	 DWORD PTR __Pnode$[ebp], eax
$LN8@operator:

; 451  :         while (!_Pnode->_Left->_Isnil) {

  0005b	8b 45 f4	 mov	 eax, DWORD PTR __Pnode$[ebp]
  0005e	8b 00		 mov	 eax, DWORD PTR [eax]
  00060	0f be 40 0d	 movsx	 eax, BYTE PTR [eax+13]
  00064	85 c0		 test	 eax, eax
  00066	75 0a		 jne	 SHORT $LN9@operator

; 452  :             _Pnode = _Pnode->_Left;

  00068	8b 45 f4	 mov	 eax, DWORD PTR __Pnode$[ebp]
  0006b	8b 00		 mov	 eax, DWORD PTR [eax]
  0006d	89 45 f4	 mov	 DWORD PTR __Pnode$[ebp], eax

; 453  :         }

  00070	eb e9		 jmp	 SHORT $LN8@operator
$LN9@operator:

; 454  : 
; 455  :         return _Pnode;

  00072	8b 45 f4	 mov	 eax, DWORD PTR __Pnode$[ebp]
  00075	89 45 f0	 mov	 DWORD PTR $T1[ebp], eax

; 60   :             _Ptr = _Mytree::_Min(_Ptr->_Right); // ==> smallest of right subtree

  00078	8b 45 fc	 mov	 eax, DWORD PTR _this$[ebp]
  0007b	8b 4d f0	 mov	 ecx, DWORD PTR $T1[ebp]
  0007e	89 08		 mov	 DWORD PTR [eax], ecx
$LN5@operator:

; 61   :         }
; 62   : 
; 63   :         return *this;

  00080	8b 45 fc	 mov	 eax, DWORD PTR _this$[ebp]

; 64   :     }

  00083	c9		 leave
  00084	c3		 ret	 0
??E?$_Tree_unchecked_const_iterator@V?$_Tree_val@U?$_Tree_simple_types@U?$pair@$$CBKPAVCLight@@@std@@@std@@@std@@U_Iterator_base0@2@@std@@QAEAAV01@XZ ENDP ; std::_Tree_unchecked_const_iterator<std::_Tree_val<std::_Tree_simple_types<std::pair<unsigned long const ,CLight *> > >,std::_Iterator_base0>::operator++
_TEXT	ENDS
; Function compile flags: /Odspy
;	COMDAT ??_GCLightManager@@UAEPAXI@Z
_TEXT	SEGMENT
_this$ = -4						; size = 4
___flags$ = 8						; size = 4
??_GCLightManager@@UAEPAXI@Z PROC			; CLightManager::`scalar deleting destructor', COMDAT
; _this$ = ecx
  00000	55		 push	 ebp
  00001	8b ec		 mov	 ebp, esp
  00003	51		 push	 ecx
  00004	89 4d fc	 mov	 DWORD PTR _this$[ebp], ecx
  00007	8b 4d fc	 mov	 ecx, DWORD PTR _this$[ebp]
  0000a	e8 00 00 00 00	 call	 ??1CLightManager@@UAE@XZ ; CLightManager::~CLightManager
  0000f	8b 45 08	 mov	 eax, DWORD PTR ___flags$[ebp]
  00012	83 e0 01	 and	 eax, 1
  00015	74 0c		 je	 SHORT $LN2@scalar
  00017	6a 6c		 push	 108			; 0000006cH
  00019	ff 75 fc	 push	 DWORD PTR _this$[ebp]
  0001c	e8 00 00 00 00	 call	 ??3@YAXPAXI@Z		; operator delete
  00021	59		 pop	 ecx
  00022	59		 pop	 ecx
$LN2@scalar:
  00023	8b 45 fc	 mov	 eax, DWORD PTR _this$[ebp]
  00026	c9		 leave
  00027	c2 04 00	 ret	 4
??_GCLightManager@@UAEPAXI@Z ENDP			; CLightManager::`scalar deleting destructor'
_TEXT	ENDS
; Function compile flags: /Odspy
;	COMDAT ??_G?$CDynamicPool@VCLight@@@@UAEPAXI@Z
_TEXT	SEGMENT
_this$ = -4						; size = 4
___flags$ = 8						; size = 4
??_G?$CDynamicPool@VCLight@@@@UAEPAXI@Z PROC		; CDynamicPool<CLight>::`scalar deleting destructor', COMDAT
; _this$ = ecx
  00000	55		 push	 ebp
  00001	8b ec		 mov	 ebp, esp
  00003	51		 push	 ecx
  00004	89 4d fc	 mov	 DWORD PTR _this$[ebp], ecx
  00007	8b 4d fc	 mov	 ecx, DWORD PTR _this$[ebp]
  0000a	e8 00 00 00 00	 call	 ??1?$CDynamicPool@VCLight@@@@UAE@XZ ; CDynamicPool<CLight>::~CDynamicPool<CLight>
  0000f	8b 45 08	 mov	 eax, DWORD PTR ___flags$[ebp]
  00012	83 e0 01	 and	 eax, 1
  00015	74 0c		 je	 SHORT $LN2@scalar
  00017	6a 24		 push	 36			; 00000024H
  00019	ff 75 fc	 push	 DWORD PTR _this$[ebp]
  0001c	e8 00 00 00 00	 call	 ??3@YAXPAXI@Z		; operator delete
  00021	59		 pop	 ecx
  00022	59		 pop	 ecx
$LN2@scalar:
  00023	8b 45 fc	 mov	 eax, DWORD PTR _this$[ebp]
  00026	c9		 leave
  00027	c2 04 00	 ret	 4
??_G?$CDynamicPool@VCLight@@@@UAEPAXI@Z ENDP		; CDynamicPool<CLight>::`scalar deleting destructor'
_TEXT	ENDS
; Function compile flags: /Odspy
; File D:\Metin2 Server Files\mainline\SRC_2014\Metin2Client\EterLib\Pool.h
;	COMDAT ?Delete@?$CDynamicPool@VCLight@@@@KAXPAVCLight@@@Z
_TEXT	SEGMENT
tv74 = -8						; size = 4
$T1 = -4						; size = 4
_pkData$ = 8						; size = 4
?Delete@?$CDynamicPool@VCLight@@@@KAXPAVCLight@@@Z PROC	; CDynamicPool<CLight>::Delete, COMDAT

; 109  : 		{

  00000	55		 push	 ebp
  00001	8b ec		 mov	 ebp, esp
  00003	51		 push	 ecx
  00004	51		 push	 ecx

; 110  : 			delete pkData;

  00005	8b 45 08	 mov	 eax, DWORD PTR _pkData$[ebp]
  00008	89 45 fc	 mov	 DWORD PTR $T1[ebp], eax
  0000b	83 7d fc 00	 cmp	 DWORD PTR $T1[ebp], 0
  0000f	74 11		 je	 SHORT $LN3@Delete
  00011	6a 01		 push	 1
  00013	8b 45 fc	 mov	 eax, DWORD PTR $T1[ebp]
  00016	8b 00		 mov	 eax, DWORD PTR [eax]
  00018	8b 4d fc	 mov	 ecx, DWORD PTR $T1[ebp]
  0001b	ff 10		 call	 DWORD PTR [eax]
  0001d	89 45 f8	 mov	 DWORD PTR tv74[ebp], eax
  00020	eb 04		 jmp	 SHORT $LN1@Delete
$LN3@Delete:
  00022	83 65 f8 00	 and	 DWORD PTR tv74[ebp], 0
$LN1@Delete:

; 111  : 		}

  00026	c9		 leave
  00027	c3		 ret	 0
?Delete@?$CDynamicPool@VCLight@@@@KAXPAVCLight@@@Z ENDP	; CDynamicPool<CLight>::Delete
_TEXT	ENDS
; Function compile flags: /Odspy
; File D:\Metin2 Server Files\mainline\SRC_2014\Metin2Client\EterLib\Pool.h
; File C:\Program Files (x86)\Microsoft Visual Studio\2019\Community\VC\Tools\MSVC\14.28.29333\include\xstddef
; File C:\Program Files (x86)\Microsoft Visual Studio\2019\Community\VC\Tools\MSVC\14.28.29333\include\vector
; File D:\Metin2 Server Files\mainline\SRC_2014\Metin2Client\EterLib\Pool.h
;	COMDAT ?FreeAll@?$CDynamicPool@VCLight@@@@QAEXXZ
_TEXT	SEGMENT
$T1 = -20						; size = 1
$T2 = -16						; size = 4
_this$ = -12						; size = 4
__Right$ = -8						; size = 4
_this$ = -4						; size = 4
?FreeAll@?$CDynamicPool@VCLight@@@@QAEXXZ PROC		; CDynamicPool<CLight>::FreeAll, COMDAT
; _this$ = ecx

; 84   : 		{

  00000	55		 push	 ebp
  00001	8b ec		 mov	 ebp, esp
  00003	83 ec 14	 sub	 esp, 20			; 00000014H
  00006	89 4d fc	 mov	 DWORD PTR _this$[ebp], ecx

; 85   : 			m_kVct_pkFree=m_kVct_pkData;

  00009	8b 45 fc	 mov	 eax, DWORD PTR _this$[ebp]
  0000c	83 c0 04	 add	 eax, 4
  0000f	89 45 f8	 mov	 DWORD PTR __Right$[ebp], eax
  00012	8b 45 fc	 mov	 eax, DWORD PTR _this$[ebp]
  00015	83 c0 10	 add	 eax, 16			; 00000010H
  00018	89 45 f4	 mov	 DWORD PTR _this$[ebp], eax
; File C:\Program Files (x86)\Microsoft Visual Studio\2019\Community\VC\Tools\MSVC\14.28.29333\include\xstddef

; 275  :     return __builtin_addressof(_Val);

  0001b	8b 45 f8	 mov	 eax, DWORD PTR __Right$[ebp]
  0001e	89 45 f0	 mov	 DWORD PTR $T2[ebp], eax
; File C:\Program Files (x86)\Microsoft Visual Studio\2019\Community\VC\Tools\MSVC\14.28.29333\include\vector

; 1168 :         if (this != _STD addressof(_Right)) {

  00021	8b 45 f4	 mov	 eax, DWORD PTR _this$[ebp]
  00024	3b 45 f0	 cmp	 eax, DWORD PTR $T2[ebp]
  00027	74 13		 je	 SHORT $LN1@FreeAll

; 1169 :             _Copy_assign(_Right, _Choose_pocca<_Alty>{});

  00029	33 c0		 xor	 eax, eax
  0002b	88 45 ec	 mov	 BYTE PTR $T1[ebp], al
  0002e	ff 75 ec	 push	 DWORD PTR $T1[ebp]
  00031	ff 75 f8	 push	 DWORD PTR __Right$[ebp]
  00034	8b 4d f4	 mov	 ecx, DWORD PTR _this$[ebp]
  00037	e8 00 00 00 00	 call	 ?_Copy_assign@?$vector@PAVCLight@@V?$allocator@PAVCLight@@@std@@@std@@AAEXABV12@U?$integral_constant@_N$0A@@2@@Z ; std::vector<CLight *,std::allocator<CLight *> >::_Copy_assign
$LN1@FreeAll:
; File D:\Metin2 Server Files\mainline\SRC_2014\Metin2Client\EterLib\Pool.h

; 86   : 		}

  0003c	c9		 leave
  0003d	c3		 ret	 0
?FreeAll@?$CDynamicPool@VCLight@@@@QAEXXZ ENDP		; CDynamicPool<CLight>::FreeAll
_TEXT	ENDS
; Function compile flags: /Odspy
; File D:\Metin2 Server Files\mainline\SRC_2014\Metin2Client\EterLib\Pool.h
; File C:\Program Files (x86)\Microsoft Visual Studio\2019\Community\VC\Tools\MSVC\14.28.29333\include\vector
; File D:\Metin2 Server Files\mainline\SRC_2014\Metin2Client\EterLib\Pool.h
; File C:\Program Files (x86)\Microsoft Visual Studio\2019\Community\VC\Tools\MSVC\14.28.29333\include\vector
; File D:\Metin2 Server Files\mainline\SRC_2014\Metin2Client\EterLib\Pool.h
; File C:\Program Files (x86)\Microsoft Visual Studio\2019\Community\VC\Tools\MSVC\14.28.29333\include\vector
; File D:\Metin2 Server Files\mainline\SRC_2014\Metin2Client\EterLib\Pool.h
; File C:\Program Files (x86)\Microsoft Visual Studio\2019\Community\VC\Tools\MSVC\14.28.29333\include\vector
; File D:\Metin2 Server Files\mainline\SRC_2014\Metin2Client\EterLib\Pool.h
; File C:\Program Files (x86)\Microsoft Visual Studio\2019\Community\VC\Tools\MSVC\14.28.29333\include\vector
; File C:\Program Files (x86)\Microsoft Visual Studio\2019\Community\VC\Tools\MSVC\14.28.29333\include\xstddef
; File C:\Program Files (x86)\Microsoft Visual Studio\2019\Community\VC\Tools\MSVC\14.28.29333\include\vector
; File C:\Program Files (x86)\Microsoft Visual Studio\2019\Community\VC\Tools\MSVC\14.28.29333\include\xmemory
; File C:\Program Files (x86)\Microsoft Visual Studio\2019\Community\VC\Tools\MSVC\14.28.29333\include\vector
; File D:\Metin2 Server Files\mainline\SRC_2014\Metin2Client\EterLib\Pool.h
;	COMDAT ?Alloc@?$CDynamicPool@VCLight@@@@QAEPAVCLight@@XZ
_TEXT	SEGMENT
$T2 = -84						; size = 4
$T3 = -80						; size = 4
_pkFreeData$ = -76					; size = 4
$T4 = -72						; size = 4
__Ptr$ = -68						; size = 4
__My_data$5 = -64					; size = 4
$T6 = -60						; size = 4
__My_data$7 = -56					; size = 4
$T8 = -52						; size = 4
_this$ = -48						; size = 4
_pkNewData$9 = -44					; size = 4
tv80 = -40						; size = 4
$T10 = -36						; size = 4
tv130 = -32						; size = 4
__My_data$11 = -28					; size = 4
__Mylast$12 = -24					; size = 4
_this$ = -20						; size = 4
$T13 = -13						; size = 1
__$EHRec$ = -12						; size = 12
?Alloc@?$CDynamicPool@VCLight@@@@QAEPAVCLight@@XZ PROC	; CDynamicPool<CLight>::Alloc, COMDAT
; _this$ = ecx

; 62   : 		{

  00000	55		 push	 ebp
  00001	8b ec		 mov	 ebp, esp
  00003	6a ff		 push	 -1
  00005	68 00 00 00 00	 push	 __ehhandler$?Alloc@?$CDynamicPool@VCLight@@@@QAEPAVCLight@@XZ
  0000a	64 a1 00 00 00
	00		 mov	 eax, DWORD PTR fs:0
  00010	50		 push	 eax
  00011	83 ec 48	 sub	 esp, 72			; 00000048H
  00014	a1 00 00 00 00	 mov	 eax, DWORD PTR ___security_cookie
  00019	33 c5		 xor	 eax, ebp
  0001b	50		 push	 eax
  0001c	8d 45 f4	 lea	 eax, DWORD PTR __$EHRec$[ebp]
  0001f	64 a3 00 00 00
	00		 mov	 DWORD PTR fs:0, eax
  00025	89 4d ec	 mov	 DWORD PTR _this$[ebp], ecx
; File C:\Program Files (x86)\Microsoft Visual Studio\2019\Community\VC\Tools\MSVC\14.28.29333\include\vector

; 1478 :         auto& _My_data = _Mypair._Myval2;

  00028	8b 45 ec	 mov	 eax, DWORD PTR _this$[ebp]
  0002b	83 c0 10	 add	 eax, 16			; 00000010H
  0002e	89 45 e4	 mov	 DWORD PTR __My_data$11[ebp], eax

; 1479 :         return _My_data._Myfirst == _My_data._Mylast;

  00031	8b 45 e4	 mov	 eax, DWORD PTR __My_data$11[ebp]
  00034	8b 4d e4	 mov	 ecx, DWORD PTR __My_data$11[ebp]
  00037	8b 00		 mov	 eax, DWORD PTR [eax]
  00039	3b 41 04	 cmp	 eax, DWORD PTR [ecx+4]
  0003c	75 09		 jne	 SHORT $LN9@Alloc
  0003e	c7 45 e0 01 00
	00 00		 mov	 DWORD PTR tv130[ebp], 1
  00045	eb 04		 jmp	 SHORT $LN10@Alloc
$LN9@Alloc:
  00047	83 65 e0 00	 and	 DWORD PTR tv130[ebp], 0
$LN10@Alloc:
  0004b	8a 45 e0	 mov	 al, BYTE PTR tv130[ebp]
  0004e	88 45 f3	 mov	 BYTE PTR $T13[ebp], al
; File D:\Metin2 Server Files\mainline\SRC_2014\Metin2Client\EterLib\Pool.h

; 63   : 			if (m_kVct_pkFree.empty())

  00051	0f b6 45 f3	 movzx	 eax, BYTE PTR $T13[ebp]
  00055	85 c0		 test	 eax, eax
  00057	74 5a		 je	 SHORT $LN2@Alloc

; 64   : 			{
; 65   : 				T* pkNewData=new T;

  00059	68 f4 00 00 00	 push	 244			; 000000f4H
  0005e	e8 00 00 00 00	 call	 ??2@YAPAXI@Z		; operator new
  00063	59		 pop	 ecx
  00064	89 45 dc	 mov	 DWORD PTR $T10[ebp], eax
  00067	83 65 fc 00	 and	 DWORD PTR __$EHRec$[ebp+8], 0
  0006b	83 7d dc 00	 cmp	 DWORD PTR $T10[ebp], 0
  0006f	74 0d		 je	 SHORT $LN4@Alloc
  00071	8b 4d dc	 mov	 ecx, DWORD PTR $T10[ebp]
  00074	e8 00 00 00 00	 call	 ??0CLight@@QAE@XZ	; CLight::CLight
  00079	89 45 d8	 mov	 DWORD PTR tv80[ebp], eax
  0007c	eb 04		 jmp	 SHORT $LN5@Alloc
$LN4@Alloc:
  0007e	83 65 d8 00	 and	 DWORD PTR tv80[ebp], 0
$LN5@Alloc:
  00082	8b 45 d8	 mov	 eax, DWORD PTR tv80[ebp]
  00085	89 45 cc	 mov	 DWORD PTR $T8[ebp], eax
  00088	83 4d fc ff	 or	 DWORD PTR __$EHRec$[ebp+8], -1
  0008c	8b 45 cc	 mov	 eax, DWORD PTR $T8[ebp]
  0008f	89 45 d4	 mov	 DWORD PTR _pkNewData$9[ebp], eax
; File C:\Program Files (x86)\Microsoft Visual Studio\2019\Community\VC\Tools\MSVC\14.28.29333\include\vector

; 717  :         emplace_back(_Val);

  00092	8d 45 d4	 lea	 eax, DWORD PTR _pkNewData$9[ebp]
  00095	50		 push	 eax
; File D:\Metin2 Server Files\mainline\SRC_2014\Metin2Client\EterLib\Pool.h

; 66   : 				m_kVct_pkData.push_back(pkNewData);

  00096	8b 4d ec	 mov	 ecx, DWORD PTR _this$[ebp]
  00099	83 c1 04	 add	 ecx, 4
; File C:\Program Files (x86)\Microsoft Visual Studio\2019\Community\VC\Tools\MSVC\14.28.29333\include\vector

; 717  :         emplace_back(_Val);

  0009c	e8 00 00 00 00	 call	 ??$emplace_back@ABQAVCLight@@@?$vector@PAVCLight@@V?$allocator@PAVCLight@@@std@@@std@@QAEXABQAVCLight@@@Z ; std::vector<CLight *,std::allocator<CLight *> >::emplace_back<CLight * const &>
; File D:\Metin2 Server Files\mainline\SRC_2014\Metin2Client\EterLib\Pool.h

; 67   : 				++m_uUsedCapacity;

  000a1	8b 45 ec	 mov	 eax, DWORD PTR _this$[ebp]
  000a4	8b 40 20	 mov	 eax, DWORD PTR [eax+32]
  000a7	40		 inc	 eax
  000a8	8b 4d ec	 mov	 ecx, DWORD PTR _this$[ebp]
  000ab	89 41 20	 mov	 DWORD PTR [ecx+32], eax

; 68   : 				return pkNewData;

  000ae	8b 45 d4	 mov	 eax, DWORD PTR _pkNewData$9[ebp]
  000b1	eb 65		 jmp	 SHORT $LN1@Alloc
$LN2@Alloc:
; File C:\Program Files (x86)\Microsoft Visual Studio\2019\Community\VC\Tools\MSVC\14.28.29333\include\vector

; 1554 :         auto& _My_data = _Mypair._Myval2;

  000b3	8b 45 ec	 mov	 eax, DWORD PTR _this$[ebp]
  000b6	83 c0 10	 add	 eax, 16			; 00000010H
  000b9	89 45 c8	 mov	 DWORD PTR __My_data$7[ebp], eax

; 1555 : #if _CONTAINER_DEBUG_LEVEL > 0
; 1556 :         _STL_VERIFY(_My_data._Myfirst != _My_data._Mylast, "back() called on empty vector");
; 1557 : #endif // _CONTAINER_DEBUG_LEVEL > 0
; 1558 : 
; 1559 :         return _My_data._Mylast[-1];

  000bc	6a 04		 push	 4
  000be	58		 pop	 eax
  000bf	6b c0 ff	 imul	 eax, eax, -1
  000c2	8b 4d c8	 mov	 ecx, DWORD PTR __My_data$7[ebp]
  000c5	03 41 04	 add	 eax, DWORD PTR [ecx+4]
  000c8	89 45 c4	 mov	 DWORD PTR $T6[ebp], eax
; File D:\Metin2 Server Files\mainline\SRC_2014\Metin2Client\EterLib\Pool.h

; 71   : 			T* pkFreeData=m_kVct_pkFree.back();

  000cb	8b 45 c4	 mov	 eax, DWORD PTR $T6[ebp]
  000ce	8b 00		 mov	 eax, DWORD PTR [eax]
  000d0	89 45 b4	 mov	 DWORD PTR _pkFreeData$[ebp], eax

; 72   : 			m_kVct_pkFree.pop_back();

  000d3	8b 45 ec	 mov	 eax, DWORD PTR _this$[ebp]
  000d6	83 c0 10	 add	 eax, 16			; 00000010H
  000d9	89 45 d0	 mov	 DWORD PTR _this$[ebp], eax
; File C:\Program Files (x86)\Microsoft Visual Studio\2019\Community\VC\Tools\MSVC\14.28.29333\include\vector

; 1329 :         auto& _My_data   = _Mypair._Myval2;

  000dc	8b 45 d0	 mov	 eax, DWORD PTR _this$[ebp]
  000df	89 45 c0	 mov	 DWORD PTR __My_data$5[ebp], eax

; 1330 :         pointer& _Mylast = _My_data._Mylast;

  000e2	8b 45 c0	 mov	 eax, DWORD PTR __My_data$5[ebp]
  000e5	83 c0 04	 add	 eax, 4
  000e8	89 45 e8	 mov	 DWORD PTR __Mylast$12[ebp], eax

; 1331 : 
; 1332 : #if _ITERATOR_DEBUG_LEVEL == 2
; 1333 :         _STL_VERIFY(_My_data._Myfirst != _Mylast, "vector empty before pop");
; 1334 :         _Orphan_range(_Mylast - 1, _Mylast);
; 1335 : #endif // _ITERATOR_DEBUG_LEVEL == 2
; 1336 : 
; 1337 :         _Alty_traits::destroy(_Getal(), _Unfancy(_Mylast - 1));

  000eb	8b 45 e8	 mov	 eax, DWORD PTR __Mylast$12[ebp]
  000ee	8b 00		 mov	 eax, DWORD PTR [eax]
  000f0	83 e8 04	 sub	 eax, 4
  000f3	89 45 bc	 mov	 DWORD PTR __Ptr$[ebp], eax
; File C:\Program Files (x86)\Microsoft Visual Studio\2019\Community\VC\Tools\MSVC\14.28.29333\include\xstddef

; 289  :     return _Ptr;

  000f6	8b 45 bc	 mov	 eax, DWORD PTR __Ptr$[ebp]
  000f9	89 45 b0	 mov	 DWORD PTR $T3[ebp], eax
; File C:\Program Files (x86)\Microsoft Visual Studio\2019\Community\VC\Tools\MSVC\14.28.29333\include\vector

; 1733 :         return _Mypair._Get_first();

  000fc	8b 45 d0	 mov	 eax, DWORD PTR _this$[ebp]
; File C:\Program Files (x86)\Microsoft Visual Studio\2019\Community\VC\Tools\MSVC\14.28.29333\include\xmemory

; 1347 :         return *this;

  000ff	89 45 b8	 mov	 DWORD PTR $T4[ebp], eax
; File C:\Program Files (x86)\Microsoft Visual Studio\2019\Community\VC\Tools\MSVC\14.28.29333\include\vector

; 1733 :         return _Mypair._Get_first();

  00102	8b 45 b8	 mov	 eax, DWORD PTR $T4[ebp]
  00105	89 45 ac	 mov	 DWORD PTR $T2[ebp], eax

; 1338 :         --_Mylast;

  00108	8b 45 e8	 mov	 eax, DWORD PTR __Mylast$12[ebp]
  0010b	8b 00		 mov	 eax, DWORD PTR [eax]
  0010d	83 e8 04	 sub	 eax, 4
  00110	8b 4d e8	 mov	 ecx, DWORD PTR __Mylast$12[ebp]
  00113	89 01		 mov	 DWORD PTR [ecx], eax
; File D:\Metin2 Server Files\mainline\SRC_2014\Metin2Client\EterLib\Pool.h

; 73   : 			return pkFreeData;

  00115	8b 45 b4	 mov	 eax, DWORD PTR _pkFreeData$[ebp]
$LN1@Alloc:

; 74   : 		}

  00118	8b 4d f4	 mov	 ecx, DWORD PTR __$EHRec$[ebp]
  0011b	64 89 0d 00 00
	00 00		 mov	 DWORD PTR fs:0, ecx
  00122	59		 pop	 ecx
  00123	c9		 leave
  00124	c3		 ret	 0
_TEXT	ENDS
;	COMDAT text$x
text$x	SEGMENT
__unwindfunclet$?Alloc@?$CDynamicPool@VCLight@@@@QAEPAVCLight@@XZ$0:
  00000	68 f4 00 00 00	 push	 244			; 000000f4H
  00005	ff 75 dc	 push	 DWORD PTR $T10[ebp]
  00008	e8 00 00 00 00	 call	 ??3@YAXPAXI@Z		; operator delete
  0000d	59		 pop	 ecx
  0000e	59		 pop	 ecx
  0000f	c3		 ret	 0
  00010	cc		 int	 3
  00011	cc		 int	 3
  00012	cc		 int	 3
  00013	cc		 int	 3
  00014	cc		 int	 3
__ehhandler$?Alloc@?$CDynamicPool@VCLight@@@@QAEPAVCLight@@XZ:
  00015	90		 npad	 1
  00016	90		 npad	 1
  00017	8b 54 24 08	 mov	 edx, DWORD PTR [esp+8]
  0001b	8d 42 0c	 lea	 eax, DWORD PTR [edx+12]
  0001e	8b 4a b4	 mov	 ecx, DWORD PTR [edx-76]
  00021	33 c8		 xor	 ecx, eax
  00023	e8 00 00 00 00	 call	 @__security_check_cookie@4
  00028	b8 00 00 00 00	 mov	 eax, OFFSET __ehfuncinfo$?Alloc@?$CDynamicPool@VCLight@@@@QAEPAVCLight@@XZ
  0002d	e9 00 00 00 00	 jmp	 ___CxxFrameHandler3
text$x	ENDS
?Alloc@?$CDynamicPool@VCLight@@@@QAEPAVCLight@@XZ ENDP	; CDynamicPool<CLight>::Alloc
; Function compile flags: /Odspy
; File D:\Metin2 Server Files\mainline\SRC_2014\Metin2Client\EterLib\Pool.h
; File C:\Program Files (x86)\Microsoft Visual Studio\2019\Community\VC\Tools\MSVC\14.28.29333\include\vector
; File C:\Program Files (x86)\Microsoft Visual Studio\2019\Community\VC\Tools\MSVC\14.28.29333\include\xstddef
; File C:\Program Files (x86)\Microsoft Visual Studio\2019\Community\VC\Tools\MSVC\14.28.29333\include\vector
; File C:\Program Files (x86)\Microsoft Visual Studio\2019\Community\VC\Tools\MSVC\14.28.29333\include\xstddef
; File C:\Program Files (x86)\Microsoft Visual Studio\2019\Community\VC\Tools\MSVC\14.28.29333\include\vector
; File D:\Metin2 Server Files\mainline\SRC_2014\Metin2Client\EterLib\Pool.h
;	COMDAT ?Destroy@?$CDynamicPool@VCLight@@@@QAEXXZ
_TEXT	SEGMENT
$T1 = -44						; size = 4
$T2 = -40						; size = 4
$T3 = -36						; size = 4
$T4 = -32						; size = 4
$T5 = -28						; size = 4
___param0$ = -24					; size = 4
$T6 = -20						; size = 4
___param0$ = -16					; size = 4
__My_data$7 = -12					; size = 4
__My_data$8 = -8					; size = 4
_this$ = -4						; size = 4
?Destroy@?$CDynamicPool@VCLight@@@@QAEXXZ PROC		; CDynamicPool<CLight>::Destroy, COMDAT
; _this$ = ecx

; 38   : 		{

  00000	55		 push	 ebp
  00001	8b ec		 mov	 ebp, esp
  00003	83 ec 2c	 sub	 esp, 44			; 0000002cH
  00006	89 4d fc	 mov	 DWORD PTR _this$[ebp], ecx
; File C:\Program Files (x86)\Microsoft Visual Studio\2019\Community\VC\Tools\MSVC\14.28.29333\include\vector

; 1420 :         auto& _My_data = _Mypair._Myval2;

  00009	8b 45 fc	 mov	 eax, DWORD PTR _this$[ebp]
  0000c	83 c0 04	 add	 eax, 4
  0000f	89 45 f8	 mov	 DWORD PTR __My_data$8[ebp], eax
; File C:\Program Files (x86)\Microsoft Visual Studio\2019\Community\VC\Tools\MSVC\14.28.29333\include\xstddef

; 275  :     return __builtin_addressof(_Val);

  00012	8b 45 f8	 mov	 eax, DWORD PTR __My_data$8[ebp]
  00015	89 45 d8	 mov	 DWORD PTR $T2[ebp], eax
; File C:\Program Files (x86)\Microsoft Visual Studio\2019\Community\VC\Tools\MSVC\14.28.29333\include\vector

; 1421 :         return iterator(_My_data._Mylast, _STD addressof(_My_data));

  00018	8b 45 f8	 mov	 eax, DWORD PTR __My_data$8[ebp]
  0001b	8b 40 04	 mov	 eax, DWORD PTR [eax+4]
  0001e	89 45 f0	 mov	 DWORD PTR ___param0$[ebp], eax

; 42   :     _Vector_const_iterator(_Tptr _Parg, const _Container_base* _Pvector) noexcept : _Ptr(_Parg) {

  00021	8b 45 f0	 mov	 eax, DWORD PTR ___param0$[ebp]
  00024	89 45 ec	 mov	 DWORD PTR $T6[ebp], eax

; 1421 :         return iterator(_My_data._Mylast, _STD addressof(_My_data));

  00027	8d 45 ec	 lea	 eax, DWORD PTR $T6[ebp]
  0002a	89 45 e0	 mov	 DWORD PTR $T4[ebp], eax

; 1410 :         auto& _My_data = _Mypair._Myval2;

  0002d	8b 45 fc	 mov	 eax, DWORD PTR _this$[ebp]
  00030	83 c0 04	 add	 eax, 4
  00033	89 45 f4	 mov	 DWORD PTR __My_data$7[ebp], eax
; File C:\Program Files (x86)\Microsoft Visual Studio\2019\Community\VC\Tools\MSVC\14.28.29333\include\xstddef

; 275  :     return __builtin_addressof(_Val);

  00036	8b 45 f4	 mov	 eax, DWORD PTR __My_data$7[ebp]
  00039	89 45 d4	 mov	 DWORD PTR $T1[ebp], eax
; File C:\Program Files (x86)\Microsoft Visual Studio\2019\Community\VC\Tools\MSVC\14.28.29333\include\vector

; 1411 :         return iterator(_My_data._Myfirst, _STD addressof(_My_data));

  0003c	8b 45 f4	 mov	 eax, DWORD PTR __My_data$7[ebp]
  0003f	8b 00		 mov	 eax, DWORD PTR [eax]
  00041	89 45 e8	 mov	 DWORD PTR ___param0$[ebp], eax

; 42   :     _Vector_const_iterator(_Tptr _Parg, const _Container_base* _Pvector) noexcept : _Ptr(_Parg) {

  00044	8b 45 e8	 mov	 eax, DWORD PTR ___param0$[ebp]
  00047	89 45 e4	 mov	 DWORD PTR $T5[ebp], eax

; 1411 :         return iterator(_My_data._Myfirst, _STD addressof(_My_data));

  0004a	8d 45 e4	 lea	 eax, DWORD PTR $T5[ebp]
  0004d	89 45 dc	 mov	 DWORD PTR $T3[ebp], eax
; File D:\Metin2 Server Files\mainline\SRC_2014\Metin2Client\EterLib\Pool.h

; 50   : 			std::for_each(m_kVct_pkData.begin(), m_kVct_pkData.end(), Delete);

  00050	68 00 00 00 00	 push	 OFFSET ?Delete@?$CDynamicPool@VCLight@@@@KAXPAVCLight@@@Z ; CDynamicPool<CLight>::Delete
  00055	8b 45 e0	 mov	 eax, DWORD PTR $T4[ebp]
  00058	ff 30		 push	 DWORD PTR [eax]
  0005a	8b 45 dc	 mov	 eax, DWORD PTR $T3[ebp]
  0005d	ff 30		 push	 DWORD PTR [eax]
  0005f	e8 00 00 00 00	 call	 ??$for_each@V?$_Vector_iterator@V?$_Vector_val@U?$_Simple_types@PAVCLight@@@std@@@std@@@std@@P6AXPAVCLight@@@Z@std@@YAP6AXPAVCLight@@@ZV?$_Vector_iterator@V?$_Vector_val@U?$_Simple_types@PAVCLight@@@std@@@std@@@0@1P6AX0@Z@Z ; std::for_each<std::_Vector_iterator<std::_Vector_val<std::_Simple_types<CLight *> > >,void (__cdecl*)(CLight *)>
  00064	83 c4 0c	 add	 esp, 12			; 0000000cH

; 51   : 			m_kVct_pkData.clear();

  00067	8b 4d fc	 mov	 ecx, DWORD PTR _this$[ebp]
  0006a	83 c1 04	 add	 ecx, 4
  0006d	e8 00 00 00 00	 call	 ?clear@?$vector@PAVCLight@@V?$allocator@PAVCLight@@@std@@@std@@QAEXXZ ; std::vector<CLight *,std::allocator<CLight *> >::clear

; 52   : 			m_kVct_pkFree.clear();

  00072	8b 4d fc	 mov	 ecx, DWORD PTR _this$[ebp]
  00075	83 c1 10	 add	 ecx, 16			; 00000010H
  00078	e8 00 00 00 00	 call	 ?clear@?$vector@PAVCLight@@V?$allocator@PAVCLight@@@std@@@std@@QAEXXZ ; std::vector<CLight *,std::allocator<CLight *> >::clear

; 53   : 		}

  0007d	c9		 leave
  0007e	c3		 ret	 0
?Destroy@?$CDynamicPool@VCLight@@@@QAEXXZ ENDP		; CDynamicPool<CLight>::Destroy
_TEXT	ENDS
; Function compile flags: /Odspy
; File D:\Metin2 Server Files\mainline\SRC_2014\Metin2Client\EterLib\Pool.h
; File C:\Program Files (x86)\Microsoft Visual Studio\2019\Community\VC\Tools\MSVC\14.28.29333\include\vector
; File D:\Metin2 Server Files\mainline\SRC_2014\Metin2Client\EterLib\Pool.h
; File C:\Program Files (x86)\Microsoft Visual Studio\2019\Community\VC\Tools\MSVC\14.28.29333\include\vector
; File D:\Metin2 Server Files\mainline\SRC_2014\Metin2Client\EterLib\Pool.h
;	COMDAT ??1?$CDynamicPool@VCLight@@@@UAE@XZ
_TEXT	SEGMENT
_this$ = -4						; size = 4
??1?$CDynamicPool@VCLight@@@@UAE@XZ PROC		; CDynamicPool<CLight>::~CDynamicPool<CLight>, COMDAT
; _this$ = ecx

; 18   : 		{

  00000	55		 push	 ebp
  00001	8b ec		 mov	 ebp, esp
  00003	51		 push	 ecx
  00004	89 4d fc	 mov	 DWORD PTR _this$[ebp], ecx
  00007	8b 45 fc	 mov	 eax, DWORD PTR _this$[ebp]
  0000a	c7 00 00 00 00
	00		 mov	 DWORD PTR [eax], OFFSET ??_7?$CDynamicPool@VCLight@@@@6B@

; 26   : 		}

  00010	8b 4d fc	 mov	 ecx, DWORD PTR _this$[ebp]
  00013	83 c1 10	 add	 ecx, 16			; 00000010H
; File C:\Program Files (x86)\Microsoft Visual Studio\2019\Community\VC\Tools\MSVC\14.28.29333\include\vector

; 673  :         _Tidy();

  00016	e8 00 00 00 00	 call	 ?_Tidy@?$vector@PAVCLight@@V?$allocator@PAVCLight@@@std@@@std@@AAEXXZ ; std::vector<CLight *,std::allocator<CLight *> >::_Tidy
; File D:\Metin2 Server Files\mainline\SRC_2014\Metin2Client\EterLib\Pool.h

; 26   : 		}

  0001b	8b 4d fc	 mov	 ecx, DWORD PTR _this$[ebp]
  0001e	83 c1 04	 add	 ecx, 4
; File C:\Program Files (x86)\Microsoft Visual Studio\2019\Community\VC\Tools\MSVC\14.28.29333\include\vector

; 673  :         _Tidy();

  00021	e8 00 00 00 00	 call	 ?_Tidy@?$vector@PAVCLight@@V?$allocator@PAVCLight@@@std@@@std@@AAEXXZ ; std::vector<CLight *,std::allocator<CLight *> >::_Tidy
; File D:\Metin2 Server Files\mainline\SRC_2014\Metin2Client\EterLib\Pool.h

; 26   : 		}

  00026	c9		 leave
  00027	c3		 ret	 0
??1?$CDynamicPool@VCLight@@@@UAE@XZ ENDP		; CDynamicPool<CLight>::~CDynamicPool<CLight>
_TEXT	ENDS
; Function compile flags: /Odspy
; File D:\Metin2 Server Files\mainline\SRC_2014\Metin2Client\EterLib\Pool.h
; File C:\Program Files (x86)\Microsoft Visual Studio\2019\Community\VC\Tools\MSVC\14.28.29333\include\vector
; File C:\Program Files (x86)\Microsoft Visual Studio\2019\Community\VC\Tools\MSVC\14.28.29333\include\xmemory
; File C:\Program Files (x86)\Microsoft Visual Studio\2019\Community\VC\Tools\MSVC\14.28.29333\include\vector
; File D:\Metin2 Server Files\mainline\SRC_2014\Metin2Client\EterLib\Pool.h
; File C:\Program Files (x86)\Microsoft Visual Studio\2019\Community\VC\Tools\MSVC\14.28.29333\include\vector
; File C:\Program Files (x86)\Microsoft Visual Studio\2019\Community\VC\Tools\MSVC\14.28.29333\include\xmemory
; File C:\Program Files (x86)\Microsoft Visual Studio\2019\Community\VC\Tools\MSVC\14.28.29333\include\vector
; File D:\Metin2 Server Files\mainline\SRC_2014\Metin2Client\EterLib\Pool.h
;	COMDAT ??0?$CDynamicPool@VCLight@@@@QAE@XZ
_TEXT	SEGMENT
_this$ = -28						; size = 4
_this$ = -24						; size = 4
_this$ = -20						; size = 4
_this$ = -16						; size = 4
_this$1 = -12						; size = 4
_this$2 = -8						; size = 4
_this$ = -4						; size = 4
??0?$CDynamicPool@VCLight@@@@QAE@XZ PROC		; CDynamicPool<CLight>::CDynamicPool<CLight>, COMDAT
; _this$ = ecx

; 11   : 		CDynamicPool()

  00000	55		 push	 ebp
  00001	8b ec		 mov	 ebp, esp
  00003	83 ec 1c	 sub	 esp, 28			; 0000001cH
  00006	89 4d fc	 mov	 DWORD PTR _this$[ebp], ecx

; 12   : 		{

  00009	8b 45 fc	 mov	 eax, DWORD PTR _this$[ebp]
  0000c	c7 00 00 00 00
	00		 mov	 DWORD PTR [eax], OFFSET ??_7?$CDynamicPool@VCLight@@@@6B@
  00012	8b 45 fc	 mov	 eax, DWORD PTR _this$[ebp]
  00015	83 c0 04	 add	 eax, 4
  00018	89 45 f0	 mov	 DWORD PTR _this$[ebp], eax
; File C:\Program Files (x86)\Microsoft Visual Studio\2019\Community\VC\Tools\MSVC\14.28.29333\include\vector

; 445  :     vector() noexcept(is_nothrow_default_constructible_v<_Alty>) : _Mypair(_Zero_then_variadic_args_t{}) {

  0001b	8b 45 f0	 mov	 eax, DWORD PTR _this$[ebp]
  0001e	89 45 ec	 mov	 DWORD PTR _this$[ebp], eax
; File C:\Program Files (x86)\Microsoft Visual Studio\2019\Community\VC\Tools\MSVC\14.28.29333\include\xmemory

; 1339 :         : _Ty1(), _Myval2(_STD forward<_Other2>(_Val2)...) {}

  00021	8b 45 ec	 mov	 eax, DWORD PTR _this$[ebp]
  00024	89 45 f8	 mov	 DWORD PTR _this$2[ebp], eax
; File C:\Program Files (x86)\Microsoft Visual Studio\2019\Community\VC\Tools\MSVC\14.28.29333\include\vector

; 375  :     _Vector_val() noexcept : _Myfirst(), _Mylast(), _Myend() {}

  00027	8b 45 f8	 mov	 eax, DWORD PTR _this$2[ebp]
  0002a	83 20 00	 and	 DWORD PTR [eax], 0
  0002d	8b 45 f8	 mov	 eax, DWORD PTR _this$2[ebp]
  00030	83 60 04 00	 and	 DWORD PTR [eax+4], 0
  00034	8b 45 f8	 mov	 eax, DWORD PTR _this$2[ebp]
  00037	83 60 08 00	 and	 DWORD PTR [eax+8], 0
; File D:\Metin2 Server Files\mainline\SRC_2014\Metin2Client\EterLib\Pool.h

; 12   : 		{

  0003b	8b 45 fc	 mov	 eax, DWORD PTR _this$[ebp]
  0003e	83 c0 10	 add	 eax, 16			; 00000010H
  00041	89 45 e8	 mov	 DWORD PTR _this$[ebp], eax
; File C:\Program Files (x86)\Microsoft Visual Studio\2019\Community\VC\Tools\MSVC\14.28.29333\include\vector

; 445  :     vector() noexcept(is_nothrow_default_constructible_v<_Alty>) : _Mypair(_Zero_then_variadic_args_t{}) {

  00044	8b 45 e8	 mov	 eax, DWORD PTR _this$[ebp]
  00047	89 45 e4	 mov	 DWORD PTR _this$[ebp], eax
; File C:\Program Files (x86)\Microsoft Visual Studio\2019\Community\VC\Tools\MSVC\14.28.29333\include\xmemory

; 1339 :         : _Ty1(), _Myval2(_STD forward<_Other2>(_Val2)...) {}

  0004a	8b 45 e4	 mov	 eax, DWORD PTR _this$[ebp]
  0004d	89 45 f4	 mov	 DWORD PTR _this$1[ebp], eax
; File C:\Program Files (x86)\Microsoft Visual Studio\2019\Community\VC\Tools\MSVC\14.28.29333\include\vector

; 375  :     _Vector_val() noexcept : _Myfirst(), _Mylast(), _Myend() {}

  00050	8b 45 f4	 mov	 eax, DWORD PTR _this$1[ebp]
  00053	83 20 00	 and	 DWORD PTR [eax], 0
  00056	8b 45 f4	 mov	 eax, DWORD PTR _this$1[ebp]
  00059	83 60 04 00	 and	 DWORD PTR [eax+4], 0
  0005d	8b 45 f4	 mov	 eax, DWORD PTR _this$1[ebp]
  00060	83 60 08 00	 and	 DWORD PTR [eax+8], 0
; File D:\Metin2 Server Files\mainline\SRC_2014\Metin2Client\EterLib\Pool.h

; 14   : 			m_uInitCapacity=0;

  00064	8b 45 fc	 mov	 eax, DWORD PTR _this$[ebp]
  00067	83 60 1c 00	 and	 DWORD PTR [eax+28], 0

; 15   : 			m_uUsedCapacity=0;

  0006b	8b 45 fc	 mov	 eax, DWORD PTR _this$[ebp]
  0006e	83 60 20 00	 and	 DWORD PTR [eax+32], 0

; 16   : 		}

  00072	8b 45 fc	 mov	 eax, DWORD PTR _this$[ebp]
  00075	c9		 leave
  00076	c3		 ret	 0
??0?$CDynamicPool@VCLight@@@@QAE@XZ ENDP		; CDynamicPool<CLight>::CDynamicPool<CLight>
_TEXT	ENDS
; Function compile flags: /Odspy
; File D:\Metin2 Server Files\mainline\SRC_2014\Metin2Client\EterLib\GrpLightManager.cpp
; File C:\Program Files (x86)\Microsoft Visual Studio\2019\Community\VC\Tools\MSVC\14.28.29333\include\deque
; File D:\Metin2 Server Files\mainline\SRC_2014\Metin2Client\EterLib\GrpLightManager.cpp
;	COMDAT ?ReleaseLightID@CLightManager@@IAEXK@Z
_TEXT	SEGMENT
$T1 = -12						; size = 4
_this$ = -8						; size = 4
_this$ = -4						; size = 4
_LightID$ = 8						; size = 4
?ReleaseLightID@CLightManager@@IAEXK@Z PROC		; CLightManager::ReleaseLightID, COMDAT
; _this$ = ecx

; 159  : {

  00000	55		 push	 ebp
  00001	8b ec		 mov	 ebp, esp
  00003	83 ec 0c	 sub	 esp, 12			; 0000000cH
  00006	89 4d f8	 mov	 DWORD PTR _this$[ebp], ecx

; 160  : 	m_NonUsingLightIDDeque.push_back(LightID);

  00009	8b 45 f8	 mov	 eax, DWORD PTR _this$[ebp]
  0000c	83 c0 0c	 add	 eax, 12			; 0000000cH
  0000f	89 45 fc	 mov	 DWORD PTR _this$[ebp], eax
; File C:\Program Files (x86)\Microsoft Visual Studio\2019\Community\VC\Tools\MSVC\14.28.29333\include\deque

; 1530 :         return _Mypair._Myval2;

  00012	8b 45 fc	 mov	 eax, DWORD PTR _this$[ebp]
  00015	89 45 f4	 mov	 DWORD PTR $T1[ebp], eax

; 1123 :         _Emplace_back_internal(_Val);

  00018	8d 45 08	 lea	 eax, DWORD PTR _LightID$[ebp]
  0001b	50		 push	 eax
  0001c	8b 4d fc	 mov	 ecx, DWORD PTR _this$[ebp]
  0001f	e8 00 00 00 00	 call	 ??$_Emplace_back_internal@ABK@?$deque@KV?$allocator@K@std@@@std@@AAEXABK@Z ; std::deque<unsigned long,std::allocator<unsigned long> >::_Emplace_back_internal<unsigned long const &>
; File D:\Metin2 Server Files\mainline\SRC_2014\Metin2Client\EterLib\GrpLightManager.cpp

; 161  : }

  00024	c9		 leave
  00025	c2 04 00	 ret	 4
?ReleaseLightID@CLightManager@@IAEXK@Z ENDP		; CLightManager::ReleaseLightID
_TEXT	ENDS
; Function compile flags: /Odspy
; File D:\Metin2 Server Files\mainline\SRC_2014\Metin2Client\EterLib\GrpLightManager.cpp
; File C:\Program Files (x86)\Microsoft Visual Studio\2019\Community\VC\Tools\MSVC\14.28.29333\include\deque
; File D:\Metin2 Server Files\mainline\SRC_2014\Metin2Client\EterLib\GrpLightManager.cpp
; File C:\Program Files (x86)\Microsoft Visual Studio\2019\Community\VC\Tools\MSVC\14.28.29333\include\xtree
; File C:\Program Files (x86)\Microsoft Visual Studio\2019\Community\VC\Tools\MSVC\14.28.29333\include\xstddef
; File C:\Program Files (x86)\Microsoft Visual Studio\2019\Community\VC\Tools\MSVC\14.28.29333\include\xtree
; File D:\Metin2 Server Files\mainline\SRC_2014\Metin2Client\EterLib\GrpLightManager.cpp
;	COMDAT ?NewLightID@CLightManager@@IAEKXZ
_TEXT	SEGMENT
$T1 = -36						; size = 4
$T2 = -32						; size = 4
$T3 = -28						; size = 4
_id$4 = -24						; size = 4
$T5 = -20						; size = 4
$T6 = -16						; size = 4
tv86 = -12						; size = 4
_this$ = -8						; size = 4
$T7 = -1						; size = 1
?NewLightID@CLightManager@@IAEKXZ PROC			; CLightManager::NewLightID, COMDAT
; _this$ = ecx

; 147  : {

  00000	55		 push	 ebp
  00001	8b ec		 mov	 ebp, esp
  00003	83 ec 24	 sub	 esp, 36			; 00000024H
  00006	89 4d f8	 mov	 DWORD PTR _this$[ebp], ecx
; File C:\Program Files (x86)\Microsoft Visual Studio\2019\Community\VC\Tools\MSVC\14.28.29333\include\deque

; 1534 :         return _Mypair._Myval2;

  00009	8b 45 f8	 mov	 eax, DWORD PTR _this$[ebp]
  0000c	83 c0 0c	 add	 eax, 12			; 0000000cH
  0000f	89 45 f0	 mov	 DWORD PTR $T6[ebp], eax

; 1566 :         return _Get_data()._Mysize;

  00012	8b 45 f0	 mov	 eax, DWORD PTR $T6[ebp]
  00015	83 c0 10	 add	 eax, 16			; 00000010H
  00018	89 45 ec	 mov	 DWORD PTR $T5[ebp], eax

; 1010 :         return _Mysize() == 0;

  0001b	8b 45 ec	 mov	 eax, DWORD PTR $T5[ebp]
  0001e	83 38 00	 cmp	 DWORD PTR [eax], 0
  00021	75 09		 jne	 SHORT $LN6@NewLightID
  00023	c7 45 f4 01 00
	00 00		 mov	 DWORD PTR tv86[ebp], 1
  0002a	eb 04		 jmp	 SHORT $LN7@NewLightID
$LN6@NewLightID:
  0002c	83 65 f4 00	 and	 DWORD PTR tv86[ebp], 0
$LN7@NewLightID:
  00030	8a 45 f4	 mov	 al, BYTE PTR tv86[ebp]
  00033	88 45 ff	 mov	 BYTE PTR $T7[ebp], al
; File D:\Metin2 Server Files\mainline\SRC_2014\Metin2Client\EterLib\GrpLightManager.cpp

; 148  : 	if (!m_NonUsingLightIDDeque.empty())

  00036	0f b6 45 ff	 movzx	 eax, BYTE PTR $T7[ebp]
  0003a	85 c0		 test	 eax, eax
  0003c	75 20		 jne	 SHORT $LN2@NewLightID

; 149  : 	{
; 150  : 		TLightID id = m_NonUsingLightIDDeque.back();

  0003e	8b 4d f8	 mov	 ecx, DWORD PTR _this$[ebp]
  00041	83 c1 0c	 add	 ecx, 12			; 0000000cH
  00044	e8 00 00 00 00	 call	 ?back@?$deque@KV?$allocator@K@std@@@std@@QAEAAKXZ ; std::deque<unsigned long,std::allocator<unsigned long> >::back
  00049	8b 00		 mov	 eax, DWORD PTR [eax]
  0004b	89 45 e8	 mov	 DWORD PTR _id$4[ebp], eax

; 151  : 		m_NonUsingLightIDDeque.pop_back();

  0004e	8b 4d f8	 mov	 ecx, DWORD PTR _this$[ebp]
  00051	83 c1 0c	 add	 ecx, 12			; 0000000cH
  00054	e8 00 00 00 00	 call	 ?pop_back@?$deque@KV?$allocator@K@std@@@std@@QAEXXZ ; std::deque<unsigned long,std::allocator<unsigned long> >::pop_back

; 152  : 		return (id);

  00059	8b 45 e8	 mov	 eax, DWORD PTR _id$4[ebp]
  0005c	eb 21		 jmp	 SHORT $LN1@NewLightID
$LN2@NewLightID:
; File C:\Program Files (x86)\Microsoft Visual Studio\2019\Community\VC\Tools\MSVC\14.28.29333\include\xtree

; 2051 :         return _STD addressof(_Mypair._Myval2._Myval2);

  0005e	8b 45 f8	 mov	 eax, DWORD PTR _this$[ebp]
  00061	83 c0 20	 add	 eax, 32			; 00000020H
; File C:\Program Files (x86)\Microsoft Visual Studio\2019\Community\VC\Tools\MSVC\14.28.29333\include\xstddef

; 275  :     return __builtin_addressof(_Val);

  00064	89 45 e4	 mov	 DWORD PTR $T3[ebp], eax
; File C:\Program Files (x86)\Microsoft Visual Studio\2019\Community\VC\Tools\MSVC\14.28.29333\include\xtree

; 2051 :         return _STD addressof(_Mypair._Myval2._Myval2);

  00067	8b 45 e4	 mov	 eax, DWORD PTR $T3[ebp]
  0006a	89 45 e0	 mov	 DWORD PTR $T2[ebp], eax

; 1307 :         return _Get_scary()->_Mysize;

  0006d	8b 45 e0	 mov	 eax, DWORD PTR $T2[ebp]
  00070	8b 40 04	 mov	 eax, DWORD PTR [eax+4]
  00073	89 45 dc	 mov	 DWORD PTR $T1[ebp], eax
; File D:\Metin2 Server Files\mainline\SRC_2014\Metin2Client\EterLib\GrpLightManager.cpp

; 155  : 	return m_dwSkipIndex + m_LightMap.size();

  00076	8b 45 f8	 mov	 eax, DWORD PTR _this$[ebp]
  00079	8b 40 44	 mov	 eax, DWORD PTR [eax+68]
  0007c	03 45 dc	 add	 eax, DWORD PTR $T1[ebp]
$LN1@NewLightID:

; 156  : }

  0007f	c9		 leave
  00080	c3		 ret	 0
?NewLightID@CLightManager@@IAEKXZ ENDP			; CLightManager::NewLightID
_TEXT	ENDS
; Function compile flags: /Odspy
; File C:\Program Files (x86)\Microsoft Visual Studio\2019\Community\VC\Tools\MSVC\14.28.29333\include\vector
;	COMDAT ?_Xlength@?$vector@PAVCLight@@V?$allocator@PAVCLight@@@std@@@std@@CAXXZ
_TEXT	SEGMENT
?_Xlength@?$vector@PAVCLight@@V?$allocator@PAVCLight@@@std@@@std@@CAXXZ PROC ; std::vector<CLight *,std::allocator<CLight *> >::_Xlength, COMDAT

; 1704 :     [[noreturn]] static void _Xlength() {

  00000	55		 push	 ebp
  00001	8b ec		 mov	 ebp, esp

; 1705 :         _Xlength_error("vector too long");

  00003	68 00 00 00 00	 push	 OFFSET ??_C@_0BA@FOIKENOD@vector?5too?5long@
  00008	e8 00 00 00 00	 call	 ?_Xlength_error@std@@YAXPBD@Z ; std::_Xlength_error
$LN2@Xlength:

; 1706 :     }

  0000d	5d		 pop	 ebp
  0000e	c3		 ret	 0
?_Xlength@?$vector@PAVCLight@@V?$allocator@PAVCLight@@@std@@@std@@CAXXZ ENDP ; std::vector<CLight *,std::allocator<CLight *> >::_Xlength
_TEXT	ENDS
; Function compile flags: /Odspy
; File C:\Program Files (x86)\Microsoft Visual Studio\2019\Community\VC\Tools\MSVC\14.28.29333\include\vector
; File C:\Program Files (x86)\Microsoft Visual Studio\2019\Community\VC\Tools\MSVC\14.28.29333\include\xmemory
; File C:\Program Files (x86)\Microsoft Visual Studio\2019\Community\VC\Tools\MSVC\14.28.29333\include\vector
; File C:\Program Files (x86)\Microsoft Visual Studio\2019\Community\VC\Tools\MSVC\14.28.29333\include\xmemory
; File C:\Program Files (x86)\Microsoft Visual Studio\2019\Community\VC\Tools\MSVC\14.28.29333\include\vector
; File C:\Program Files (x86)\Microsoft Visual Studio\2019\Community\VC\Tools\MSVC\14.28.29333\include\xmemory
; File C:\Program Files (x86)\Microsoft Visual Studio\2019\Community\VC\Tools\MSVC\14.28.29333\include\vector
;	COMDAT ?_Tidy@?$vector@PAVCLight@@V?$allocator@PAVCLight@@@std@@@std@@AAEXXZ
_TEXT	SEGMENT
$T1 = -52						; size = 4
__Ptr$ = -48						; size = 4
__Count$ = -44						; size = 4
$T2 = -40						; size = 4
__First$ = -36						; size = 4
__Last$ = -32						; size = 4
$T3 = -28						; size = 4
$T4 = -24						; size = 4
__Myend$ = -20						; size = 4
__Mylast$ = -16						; size = 4
_this$ = -12						; size = 4
__My_data$ = -8						; size = 4
__Myfirst$ = -4						; size = 4
?_Tidy@?$vector@PAVCLight@@V?$allocator@PAVCLight@@@std@@@std@@AAEXXZ PROC ; std::vector<CLight *,std::allocator<CLight *> >::_Tidy, COMDAT
; _this$ = ecx

; 1686 :     void _Tidy() noexcept { // free all storage

  00000	55		 push	 ebp
  00001	8b ec		 mov	 ebp, esp
  00003	83 ec 34	 sub	 esp, 52			; 00000034H
  00006	89 4d f4	 mov	 DWORD PTR _this$[ebp], ecx

; 1687 :         auto& _My_data    = _Mypair._Myval2;

  00009	8b 45 f4	 mov	 eax, DWORD PTR _this$[ebp]
  0000c	89 45 f8	 mov	 DWORD PTR __My_data$[ebp], eax

; 1688 :         pointer& _Myfirst = _My_data._Myfirst;

  0000f	8b 45 f8	 mov	 eax, DWORD PTR __My_data$[ebp]
  00012	89 45 fc	 mov	 DWORD PTR __Myfirst$[ebp], eax

; 1689 :         pointer& _Mylast  = _My_data._Mylast;

  00015	8b 45 f8	 mov	 eax, DWORD PTR __My_data$[ebp]
  00018	83 c0 04	 add	 eax, 4
  0001b	89 45 f0	 mov	 DWORD PTR __Mylast$[ebp], eax

; 1690 :         pointer& _Myend   = _My_data._Myend;

  0001e	8b 45 f8	 mov	 eax, DWORD PTR __My_data$[ebp]
  00021	83 c0 08	 add	 eax, 8
  00024	89 45 ec	 mov	 DWORD PTR __Myend$[ebp], eax

; 1691 : 
; 1692 :         _My_data._Orphan_all();
; 1693 : 
; 1694 :         if (_Myfirst) { // destroy and deallocate old array

  00027	8b 45 fc	 mov	 eax, DWORD PTR __Myfirst$[ebp]
  0002a	83 38 00	 cmp	 DWORD PTR [eax], 0
  0002d	74 74		 je	 SHORT $LN3@Tidy

; 1695 :             _Destroy(_Myfirst, _Mylast);

  0002f	8b 45 f0	 mov	 eax, DWORD PTR __Mylast$[ebp]
  00032	8b 00		 mov	 eax, DWORD PTR [eax]
  00034	89 45 e0	 mov	 DWORD PTR __Last$[ebp], eax
  00037	8b 45 fc	 mov	 eax, DWORD PTR __Myfirst$[ebp]
  0003a	8b 00		 mov	 eax, DWORD PTR [eax]
  0003c	89 45 dc	 mov	 DWORD PTR __First$[ebp], eax

; 1733 :         return _Mypair._Get_first();

  0003f	8b 45 f4	 mov	 eax, DWORD PTR _this$[ebp]
; File C:\Program Files (x86)\Microsoft Visual Studio\2019\Community\VC\Tools\MSVC\14.28.29333\include\xmemory

; 1347 :         return *this;

  00042	89 45 e8	 mov	 DWORD PTR $T4[ebp], eax
; File C:\Program Files (x86)\Microsoft Visual Studio\2019\Community\VC\Tools\MSVC\14.28.29333\include\vector

; 1733 :         return _Mypair._Get_first();

  00045	8b 45 e8	 mov	 eax, DWORD PTR $T4[ebp]
  00048	89 45 e4	 mov	 DWORD PTR $T3[ebp], eax

; 1612 :         _Destroy_range(_First, _Last, _Getal());

  0004b	ff 75 e4	 push	 DWORD PTR $T3[ebp]
  0004e	ff 75 e0	 push	 DWORD PTR __Last$[ebp]
  00051	ff 75 dc	 push	 DWORD PTR __First$[ebp]
  00054	e8 00 00 00 00	 call	 ??$_Destroy_range@V?$allocator@PAVCLight@@@std@@@std@@YAXPAPAVCLight@@QAPAV1@AAV?$allocator@PAVCLight@@@0@@Z ; std::_Destroy_range<std::allocator<CLight *> >
  00059	83 c4 0c	 add	 esp, 12			; 0000000cH

; 1733 :         return _Mypair._Get_first();

  0005c	8b 45 f4	 mov	 eax, DWORD PTR _this$[ebp]
; File C:\Program Files (x86)\Microsoft Visual Studio\2019\Community\VC\Tools\MSVC\14.28.29333\include\xmemory

; 1347 :         return *this;

  0005f	89 45 d8	 mov	 DWORD PTR $T2[ebp], eax
; File C:\Program Files (x86)\Microsoft Visual Studio\2019\Community\VC\Tools\MSVC\14.28.29333\include\vector

; 1733 :         return _Mypair._Get_first();

  00062	8b 45 d8	 mov	 eax, DWORD PTR $T2[ebp]
  00065	89 45 cc	 mov	 DWORD PTR $T1[ebp], eax

; 1696 :             _Getal().deallocate(_Myfirst, static_cast<size_type>(_Myend - _Myfirst));

  00068	8b 45 ec	 mov	 eax, DWORD PTR __Myend$[ebp]
  0006b	8b 4d fc	 mov	 ecx, DWORD PTR __Myfirst$[ebp]
  0006e	8b 00		 mov	 eax, DWORD PTR [eax]
  00070	2b 01		 sub	 eax, DWORD PTR [ecx]
  00072	c1 f8 02	 sar	 eax, 2
  00075	89 45 d4	 mov	 DWORD PTR __Count$[ebp], eax
  00078	8b 45 fc	 mov	 eax, DWORD PTR __Myfirst$[ebp]
  0007b	8b 00		 mov	 eax, DWORD PTR [eax]
  0007d	89 45 d0	 mov	 DWORD PTR __Ptr$[ebp], eax
; File C:\Program Files (x86)\Microsoft Visual Studio\2019\Community\VC\Tools\MSVC\14.28.29333\include\xmemory

; 810  :         _Deallocate<_New_alignof<_Ty>>(_Ptr, sizeof(_Ty) * _Count);

  00080	8b 45 d4	 mov	 eax, DWORD PTR __Count$[ebp]
  00083	c1 e0 02	 shl	 eax, 2
  00086	50		 push	 eax
  00087	ff 75 d0	 push	 DWORD PTR __Ptr$[ebp]
  0008a	e8 00 00 00 00	 call	 ??$_Deallocate@$07$0A@@std@@YAXPAXI@Z ; std::_Deallocate<8,0>
  0008f	59		 pop	 ecx
  00090	59		 pop	 ecx
; File C:\Program Files (x86)\Microsoft Visual Studio\2019\Community\VC\Tools\MSVC\14.28.29333\include\vector

; 1698 :             _Myfirst = pointer();

  00091	8b 45 fc	 mov	 eax, DWORD PTR __Myfirst$[ebp]
  00094	83 20 00	 and	 DWORD PTR [eax], 0

; 1699 :             _Mylast  = pointer();

  00097	8b 45 f0	 mov	 eax, DWORD PTR __Mylast$[ebp]
  0009a	83 20 00	 and	 DWORD PTR [eax], 0

; 1700 :             _Myend   = pointer();

  0009d	8b 45 ec	 mov	 eax, DWORD PTR __Myend$[ebp]
  000a0	83 20 00	 and	 DWORD PTR [eax], 0
$LN3@Tidy:

; 1701 :         }
; 1702 :     }

  000a3	c9		 leave
  000a4	c3		 ret	 0
?_Tidy@?$vector@PAVCLight@@V?$allocator@PAVCLight@@@std@@@std@@AAEXXZ ENDP ; std::vector<CLight *,std::allocator<CLight *> >::_Tidy
_TEXT	ENDS
; Function compile flags: /Odspy
; File C:\Program Files (x86)\Microsoft Visual Studio\2019\Community\VC\Tools\MSVC\14.28.29333\include\vector
; File C:\Program Files (x86)\Microsoft Visual Studio\2019\Community\VC\Tools\MSVC\14.28.29333\include\xmemory
; File C:\Program Files (x86)\Microsoft Visual Studio\2019\Community\VC\Tools\MSVC\14.28.29333\include\vector
; File C:\Program Files (x86)\Microsoft Visual Studio\2019\Community\VC\Tools\MSVC\14.28.29333\include\xmemory
; File C:\Program Files (x86)\Microsoft Visual Studio\2019\Community\VC\Tools\MSVC\14.28.29333\include\vector
; File C:\Program Files (x86)\Microsoft Visual Studio\2019\Community\VC\Tools\MSVC\14.28.29333\include\xmemory
; File C:\Program Files (x86)\Microsoft Visual Studio\2019\Community\VC\Tools\MSVC\14.28.29333\include\vector
;	COMDAT ?_Change_array@?$vector@PAVCLight@@V?$allocator@PAVCLight@@@std@@@std@@AAEXQAPAVCLight@@II@Z
_TEXT	SEGMENT
$T1 = -52						; size = 4
__Ptr$ = -48						; size = 4
__Count$ = -44						; size = 4
$T2 = -40						; size = 4
__First$ = -36						; size = 4
__Last$ = -32						; size = 4
$T3 = -28						; size = 4
$T4 = -24						; size = 4
__Myend$ = -20						; size = 4
__Mylast$ = -16						; size = 4
_this$ = -12						; size = 4
__My_data$ = -8						; size = 4
__Myfirst$ = -4						; size = 4
__Newvec$ = 8						; size = 4
__Newsize$ = 12						; size = 4
__Newcapacity$ = 16					; size = 4
?_Change_array@?$vector@PAVCLight@@V?$allocator@PAVCLight@@@std@@@std@@AAEXQAPAVCLight@@II@Z PROC ; std::vector<CLight *,std::allocator<CLight *> >::_Change_array, COMDAT
; _this$ = ecx

; 1667 :     void _Change_array(const pointer _Newvec, const size_type _Newsize, const size_type _Newcapacity) {

  00000	55		 push	 ebp
  00001	8b ec		 mov	 ebp, esp
  00003	83 ec 34	 sub	 esp, 52			; 00000034H
  00006	89 4d f4	 mov	 DWORD PTR _this$[ebp], ecx

; 1668 :         // orphan all iterators, discard old array, acquire new array
; 1669 :         auto& _My_data    = _Mypair._Myval2;

  00009	8b 45 f4	 mov	 eax, DWORD PTR _this$[ebp]
  0000c	89 45 f8	 mov	 DWORD PTR __My_data$[ebp], eax

; 1670 :         pointer& _Myfirst = _My_data._Myfirst;

  0000f	8b 45 f8	 mov	 eax, DWORD PTR __My_data$[ebp]
  00012	89 45 fc	 mov	 DWORD PTR __Myfirst$[ebp], eax

; 1671 :         pointer& _Mylast  = _My_data._Mylast;

  00015	8b 45 f8	 mov	 eax, DWORD PTR __My_data$[ebp]
  00018	83 c0 04	 add	 eax, 4
  0001b	89 45 f0	 mov	 DWORD PTR __Mylast$[ebp], eax

; 1672 :         pointer& _Myend   = _My_data._Myend;

  0001e	8b 45 f8	 mov	 eax, DWORD PTR __My_data$[ebp]
  00021	83 c0 08	 add	 eax, 8
  00024	89 45 ec	 mov	 DWORD PTR __Myend$[ebp], eax

; 1673 : 
; 1674 :         _My_data._Orphan_all();
; 1675 : 
; 1676 :         if (_Myfirst) { // destroy and deallocate old array

  00027	8b 45 fc	 mov	 eax, DWORD PTR __Myfirst$[ebp]
  0002a	83 38 00	 cmp	 DWORD PTR [eax], 0
  0002d	74 62		 je	 SHORT $LN2@Change_arr

; 1677 :             _Destroy(_Myfirst, _Mylast);

  0002f	8b 45 f0	 mov	 eax, DWORD PTR __Mylast$[ebp]
  00032	8b 00		 mov	 eax, DWORD PTR [eax]
  00034	89 45 e0	 mov	 DWORD PTR __Last$[ebp], eax
  00037	8b 45 fc	 mov	 eax, DWORD PTR __Myfirst$[ebp]
  0003a	8b 00		 mov	 eax, DWORD PTR [eax]
  0003c	89 45 dc	 mov	 DWORD PTR __First$[ebp], eax

; 1733 :         return _Mypair._Get_first();

  0003f	8b 45 f4	 mov	 eax, DWORD PTR _this$[ebp]
; File C:\Program Files (x86)\Microsoft Visual Studio\2019\Community\VC\Tools\MSVC\14.28.29333\include\xmemory

; 1347 :         return *this;

  00042	89 45 e8	 mov	 DWORD PTR $T4[ebp], eax
; File C:\Program Files (x86)\Microsoft Visual Studio\2019\Community\VC\Tools\MSVC\14.28.29333\include\vector

; 1733 :         return _Mypair._Get_first();

  00045	8b 45 e8	 mov	 eax, DWORD PTR $T4[ebp]
  00048	89 45 e4	 mov	 DWORD PTR $T3[ebp], eax

; 1612 :         _Destroy_range(_First, _Last, _Getal());

  0004b	ff 75 e4	 push	 DWORD PTR $T3[ebp]
  0004e	ff 75 e0	 push	 DWORD PTR __Last$[ebp]
  00051	ff 75 dc	 push	 DWORD PTR __First$[ebp]
  00054	e8 00 00 00 00	 call	 ??$_Destroy_range@V?$allocator@PAVCLight@@@std@@@std@@YAXPAPAVCLight@@QAPAV1@AAV?$allocator@PAVCLight@@@0@@Z ; std::_Destroy_range<std::allocator<CLight *> >
  00059	83 c4 0c	 add	 esp, 12			; 0000000cH

; 1733 :         return _Mypair._Get_first();

  0005c	8b 45 f4	 mov	 eax, DWORD PTR _this$[ebp]
; File C:\Program Files (x86)\Microsoft Visual Studio\2019\Community\VC\Tools\MSVC\14.28.29333\include\xmemory

; 1347 :         return *this;

  0005f	89 45 d8	 mov	 DWORD PTR $T2[ebp], eax
; File C:\Program Files (x86)\Microsoft Visual Studio\2019\Community\VC\Tools\MSVC\14.28.29333\include\vector

; 1733 :         return _Mypair._Get_first();

  00062	8b 45 d8	 mov	 eax, DWORD PTR $T2[ebp]
  00065	89 45 cc	 mov	 DWORD PTR $T1[ebp], eax

; 1678 :             _Getal().deallocate(_Myfirst, static_cast<size_type>(_Myend - _Myfirst));

  00068	8b 45 ec	 mov	 eax, DWORD PTR __Myend$[ebp]
  0006b	8b 4d fc	 mov	 ecx, DWORD PTR __Myfirst$[ebp]
  0006e	8b 00		 mov	 eax, DWORD PTR [eax]
  00070	2b 01		 sub	 eax, DWORD PTR [ecx]
  00072	c1 f8 02	 sar	 eax, 2
  00075	89 45 d4	 mov	 DWORD PTR __Count$[ebp], eax
  00078	8b 45 fc	 mov	 eax, DWORD PTR __Myfirst$[ebp]
  0007b	8b 00		 mov	 eax, DWORD PTR [eax]
  0007d	89 45 d0	 mov	 DWORD PTR __Ptr$[ebp], eax
; File C:\Program Files (x86)\Microsoft Visual Studio\2019\Community\VC\Tools\MSVC\14.28.29333\include\xmemory

; 810  :         _Deallocate<_New_alignof<_Ty>>(_Ptr, sizeof(_Ty) * _Count);

  00080	8b 45 d4	 mov	 eax, DWORD PTR __Count$[ebp]
  00083	c1 e0 02	 shl	 eax, 2
  00086	50		 push	 eax
  00087	ff 75 d0	 push	 DWORD PTR __Ptr$[ebp]
  0008a	e8 00 00 00 00	 call	 ??$_Deallocate@$07$0A@@std@@YAXPAXI@Z ; std::_Deallocate<8,0>
  0008f	59		 pop	 ecx
  00090	59		 pop	 ecx
$LN2@Change_arr:
; File C:\Program Files (x86)\Microsoft Visual Studio\2019\Community\VC\Tools\MSVC\14.28.29333\include\vector

; 1681 :         _Myfirst = _Newvec;

  00091	8b 45 fc	 mov	 eax, DWORD PTR __Myfirst$[ebp]
  00094	8b 4d 08	 mov	 ecx, DWORD PTR __Newvec$[ebp]
  00097	89 08		 mov	 DWORD PTR [eax], ecx

; 1682 :         _Mylast  = _Newvec + _Newsize;

  00099	8b 45 0c	 mov	 eax, DWORD PTR __Newsize$[ebp]
  0009c	8b 4d 08	 mov	 ecx, DWORD PTR __Newvec$[ebp]
  0009f	8d 04 81	 lea	 eax, DWORD PTR [ecx+eax*4]
  000a2	8b 4d f0	 mov	 ecx, DWORD PTR __Mylast$[ebp]
  000a5	89 01		 mov	 DWORD PTR [ecx], eax

; 1683 :         _Myend   = _Newvec + _Newcapacity;

  000a7	8b 45 10	 mov	 eax, DWORD PTR __Newcapacity$[ebp]
  000aa	8b 4d 08	 mov	 ecx, DWORD PTR __Newvec$[ebp]
  000ad	8d 04 81	 lea	 eax, DWORD PTR [ecx+eax*4]
  000b0	8b 4d ec	 mov	 ecx, DWORD PTR __Myend$[ebp]
  000b3	89 01		 mov	 DWORD PTR [ecx], eax

; 1684 :     }

  000b5	c9		 leave
  000b6	c2 0c 00	 ret	 12			; 0000000cH
?_Change_array@?$vector@PAVCLight@@V?$allocator@PAVCLight@@@std@@@std@@AAEXQAPAVCLight@@II@Z ENDP ; std::vector<CLight *,std::allocator<CLight *> >::_Change_array
_TEXT	ENDS
; Function compile flags: /Odspy
; File C:\Program Files (x86)\Microsoft Visual Studio\2019\Community\VC\Tools\MSVC\14.28.29333\include\vector
; File C:\Program Files (x86)\Microsoft Visual Studio\2019\Community\VC\Tools\MSVC\14.28.29333\include\xmemory
; File C:\Program Files (x86)\Microsoft Visual Studio\2019\Community\VC\Tools\MSVC\14.28.29333\include\vector
; File C:\Program Files (x86)\Microsoft Visual Studio\2019\Community\VC\Tools\MSVC\14.28.29333\include\xmemory
; File C:\Program Files (x86)\Microsoft Visual Studio\2019\Community\VC\Tools\MSVC\14.28.29333\include\vector
;	COMDAT ?_Buy_raw@?$vector@PAVCLight@@V?$allocator@PAVCLight@@@std@@@std@@AAEXI@Z
_TEXT	SEGMENT
__Max_possible$1 = -44					; size = 4
$T2 = -40						; size = 4
__Myend$ = -36						; size = 4
__Mylast$ = -32						; size = 4
__Myfirst$ = -28					; size = 4
$T3 = -24						; size = 4
$T4 = -20						; size = 4
_this$ = -16						; size = 4
__Newvec$ = -12						; size = 4
__My_data$ = -8						; size = 4
__Overflow_is_possible$5 = -1				; size = 1
__Newcapacity$ = 8					; size = 4
?_Buy_raw@?$vector@PAVCLight@@V?$allocator@PAVCLight@@@std@@@std@@AAEXI@Z PROC ; std::vector<CLight *,std::allocator<CLight *> >::_Buy_raw, COMDAT
; _this$ = ecx

; 1633 :     void _Buy_raw(const size_type _Newcapacity) {

  00000	55		 push	 ebp
  00001	8b ec		 mov	 ebp, esp
  00003	83 ec 2c	 sub	 esp, 44			; 0000002cH
  00006	89 4d f0	 mov	 DWORD PTR _this$[ebp], ecx

; 1634 :         // allocate array with _Newcapacity elements
; 1635 :         auto& _My_data    = _Mypair._Myval2;

  00009	8b 45 f0	 mov	 eax, DWORD PTR _this$[ebp]
  0000c	89 45 f8	 mov	 DWORD PTR __My_data$[ebp], eax

; 1636 :         pointer& _Myfirst = _My_data._Myfirst;

  0000f	8b 45 f8	 mov	 eax, DWORD PTR __My_data$[ebp]
  00012	89 45 e4	 mov	 DWORD PTR __Myfirst$[ebp], eax

; 1637 :         pointer& _Mylast  = _My_data._Mylast;

  00015	8b 45 f8	 mov	 eax, DWORD PTR __My_data$[ebp]
  00018	83 c0 04	 add	 eax, 4
  0001b	89 45 e0	 mov	 DWORD PTR __Mylast$[ebp], eax

; 1638 :         pointer& _Myend   = _My_data._Myend;

  0001e	8b 45 f8	 mov	 eax, DWORD PTR __My_data$[ebp]
  00021	83 c0 08	 add	 eax, 8
  00024	89 45 dc	 mov	 DWORD PTR __Myend$[ebp], eax

; 1733 :         return _Mypair._Get_first();

  00027	8b 45 f0	 mov	 eax, DWORD PTR _this$[ebp]
; File C:\Program Files (x86)\Microsoft Visual Studio\2019\Community\VC\Tools\MSVC\14.28.29333\include\xmemory

; 1347 :         return *this;

  0002a	89 45 ec	 mov	 DWORD PTR $T4[ebp], eax
; File C:\Program Files (x86)\Microsoft Visual Studio\2019\Community\VC\Tools\MSVC\14.28.29333\include\vector

; 1733 :         return _Mypair._Get_first();

  0002d	8b 45 ec	 mov	 eax, DWORD PTR $T4[ebp]
  00030	89 45 d8	 mov	 DWORD PTR $T2[ebp], eax
; File C:\Program Files (x86)\Microsoft Visual Studio\2019\Community\VC\Tools\MSVC\14.28.29333\include\xmemory

; 56   :     constexpr bool _Overflow_is_possible = _Ty_size > 1;

  00033	c6 45 ff 01	 mov	 BYTE PTR __Overflow_is_possible$5[ebp], 1

; 57   : 
; 58   :     if _CONSTEXPR_IF (_Overflow_is_possible) {
; 59   :         constexpr size_t _Max_possible = static_cast<size_t>(-1) / _Ty_size;

  00037	c7 45 d4 ff ff
	ff 3f		 mov	 DWORD PTR __Max_possible$1[ebp], 1073741823 ; 3fffffffH

; 60   :         if (_Count > _Max_possible) {

  0003e	81 7d 08 ff ff
	ff 3f		 cmp	 DWORD PTR __Newcapacity$[ebp], 1073741823 ; 3fffffffH
  00045	76 05		 jbe	 SHORT $LN12@Buy_raw

; 61   :             _Throw_bad_array_new_length(); // multiply overflow

  00047	e8 00 00 00 00	 call	 ?_Throw_bad_array_new_length@std@@YAXXZ ; std::_Throw_bad_array_new_length
$LN12@Buy_raw:

; 62   :         }
; 63   :     }
; 64   : 
; 65   :     return _Count * _Ty_size;

  0004c	8b 45 08	 mov	 eax, DWORD PTR __Newcapacity$[ebp]
  0004f	c1 e0 02	 shl	 eax, 2
  00052	89 45 e8	 mov	 DWORD PTR $T3[ebp], eax

; 814  :         return static_cast<_Ty*>(_Allocate<_New_alignof<_Ty>>(_Get_size_of_n<sizeof(_Ty)>(_Count)));

  00055	ff 75 e8	 push	 DWORD PTR $T3[ebp]
  00058	e8 00 00 00 00	 call	 ??$_Allocate@$07U_Default_allocate_traits@std@@$0A@@std@@YAPAXI@Z ; std::_Allocate<8,std::_Default_allocate_traits,0>
  0005d	59		 pop	 ecx
  0005e	89 45 f4	 mov	 DWORD PTR __Newvec$[ebp], eax
; File C:\Program Files (x86)\Microsoft Visual Studio\2019\Community\VC\Tools\MSVC\14.28.29333\include\vector

; 1644 :         _Myfirst           = _Newvec;

  00061	8b 45 e4	 mov	 eax, DWORD PTR __Myfirst$[ebp]
  00064	8b 4d f4	 mov	 ecx, DWORD PTR __Newvec$[ebp]
  00067	89 08		 mov	 DWORD PTR [eax], ecx

; 1645 :         _Mylast            = _Newvec;

  00069	8b 45 e0	 mov	 eax, DWORD PTR __Mylast$[ebp]
  0006c	8b 4d f4	 mov	 ecx, DWORD PTR __Newvec$[ebp]
  0006f	89 08		 mov	 DWORD PTR [eax], ecx

; 1646 :         _Myend             = _Newvec + _Newcapacity;

  00071	8b 45 08	 mov	 eax, DWORD PTR __Newcapacity$[ebp]
  00074	8b 4d f4	 mov	 ecx, DWORD PTR __Newvec$[ebp]
  00077	8d 04 81	 lea	 eax, DWORD PTR [ecx+eax*4]
  0007a	8b 4d dc	 mov	 ecx, DWORD PTR __Myend$[ebp]
  0007d	89 01		 mov	 DWORD PTR [ecx], eax
$LN15@Buy_raw:

; 1647 :     }

  0007f	c9		 leave
  00080	c2 04 00	 ret	 4
?_Buy_raw@?$vector@PAVCLight@@V?$allocator@PAVCLight@@@std@@@std@@AAEXI@Z ENDP ; std::vector<CLight *,std::allocator<CLight *> >::_Buy_raw
_TEXT	ENDS
; Function compile flags: /Odspy
; File C:\Program Files (x86)\Microsoft Visual Studio\2019\Community\VC\Tools\MSVC\14.28.29333\include\vector
; File C:\Program Files (x86)\Microsoft Visual Studio\2019\Community\VC\Tools\MSVC\14.28.29333\include\xmemory
; File C:\Program Files (x86)\Microsoft Visual Studio\2019\Community\VC\Tools\MSVC\14.28.29333\include\vector
; File C:\Program Files (x86)\Microsoft Visual Studio\2019\Community\VC\Tools\MSVC\14.28.29333\include\xmemory
; File C:\Program Files (x86)\Microsoft Visual Studio\2019\Community\VC\Tools\MSVC\14.28.29333\include\limits
; File C:\Program Files (x86)\Microsoft Visual Studio\2019\Community\VC\Tools\MSVC\14.28.29333\include\vector
; File C:\Program Files (x86)\Microsoft Visual Studio\2019\Community\VC\Tools\MSVC\14.28.29333\include\utility
; File C:\Program Files (x86)\Microsoft Visual Studio\2019\Community\VC\Tools\MSVC\14.28.29333\include\vector
;	COMDAT ?_Calculate_growth@?$vector@PAVCLight@@V?$allocator@PAVCLight@@@std@@@std@@ABEII@Z
_TEXT	SEGMENT
$T1 = -52						; size = 4
$T2 = -48						; size = 4
$T3 = -44						; size = 4
$T4 = -40						; size = 4
$T5 = -36						; size = 4
__Geometric$ = -32					; size = 4
__Max$ = -28						; size = 4
tv82 = -24						; size = 4
$T6 = -20						; size = 4
$T7 = -16						; size = 4
_this$ = -12						; size = 4
__My_data$8 = -8					; size = 4
__Oldcapacity$ = -4					; size = 4
__Newsize$ = 8						; size = 4
?_Calculate_growth@?$vector@PAVCLight@@V?$allocator@PAVCLight@@@std@@@std@@ABEII@Z PROC ; std::vector<CLight *,std::allocator<CLight *> >::_Calculate_growth, COMDAT
; _this$ = ecx

; 1615 :     size_type _Calculate_growth(const size_type _Newsize) const {

  00000	55		 push	 ebp
  00001	8b ec		 mov	 ebp, esp
  00003	83 ec 34	 sub	 esp, 52			; 00000034H
  00006	89 4d f4	 mov	 DWORD PTR _this$[ebp], ecx

; 1493 :         auto& _My_data = _Mypair._Myval2;

  00009	8b 45 f4	 mov	 eax, DWORD PTR _this$[ebp]
  0000c	89 45 f8	 mov	 DWORD PTR __My_data$8[ebp], eax

; 1494 :         return static_cast<size_type>(_My_data._Myend - _My_data._Myfirst);

  0000f	8b 45 f8	 mov	 eax, DWORD PTR __My_data$8[ebp]
  00012	8b 4d f8	 mov	 ecx, DWORD PTR __My_data$8[ebp]
  00015	8b 40 08	 mov	 eax, DWORD PTR [eax+8]
  00018	2b 01		 sub	 eax, DWORD PTR [ecx]
  0001a	c1 f8 02	 sar	 eax, 2
  0001d	89 45 fc	 mov	 DWORD PTR __Oldcapacity$[ebp], eax

; 1737 :         return _Mypair._Get_first();

  00020	8b 45 f4	 mov	 eax, DWORD PTR _this$[ebp]
; File C:\Program Files (x86)\Microsoft Visual Studio\2019\Community\VC\Tools\MSVC\14.28.29333\include\xmemory

; 1351 :         return *this;

  00023	89 45 dc	 mov	 DWORD PTR $T5[ebp], eax
; File C:\Program Files (x86)\Microsoft Visual Studio\2019\Community\VC\Tools\MSVC\14.28.29333\include\vector

; 1737 :         return _Mypair._Get_first();

  00026	8b 45 dc	 mov	 eax, DWORD PTR $T5[ebp]
  00029	89 45 cc	 mov	 DWORD PTR $T1[ebp], eax
; File C:\Program Files (x86)\Microsoft Visual Studio\2019\Community\VC\Tools\MSVC\14.28.29333\include\xmemory

; 710  :         return static_cast<size_t>(-1) / sizeof(value_type);

  0002c	c7 45 f0 ff ff
	ff 3f		 mov	 DWORD PTR $T7[ebp], 1073741823 ; 3fffffffH
; File C:\Program Files (x86)\Microsoft Visual Studio\2019\Community\VC\Tools\MSVC\14.28.29333\include\limits

; 557  :         return INT_MAX;

  00033	c7 45 d8 ff ff
	ff 7f		 mov	 DWORD PTR $T4[ebp], 2147483647 ; 7fffffffH
; File C:\Program Files (x86)\Microsoft Visual Studio\2019\Community\VC\Tools\MSVC\14.28.29333\include\vector

; 1488 :         return (_STD min)(

  0003a	8b 45 d8	 mov	 eax, DWORD PTR $T4[ebp]
  0003d	89 45 ec	 mov	 DWORD PTR $T6[ebp], eax
; File C:\Program Files (x86)\Microsoft Visual Studio\2019\Community\VC\Tools\MSVC\14.28.29333\include\utility

; 68   :     return _Right < _Left ? _Right : _Left;

  00040	8b 45 f0	 mov	 eax, DWORD PTR $T7[ebp]
  00043	3b 45 ec	 cmp	 eax, DWORD PTR $T6[ebp]
  00046	73 08		 jae	 SHORT $LN25@Calculate_
  00048	8d 45 f0	 lea	 eax, DWORD PTR $T7[ebp]
  0004b	89 45 e8	 mov	 DWORD PTR tv82[ebp], eax
  0004e	eb 06		 jmp	 SHORT $LN26@Calculate_
$LN25@Calculate_:
  00050	8d 45 ec	 lea	 eax, DWORD PTR $T6[ebp]
  00053	89 45 e8	 mov	 DWORD PTR tv82[ebp], eax
$LN26@Calculate_:
  00056	8b 45 e8	 mov	 eax, DWORD PTR tv82[ebp]
  00059	89 45 d4	 mov	 DWORD PTR $T3[ebp], eax
  0005c	8b 45 d4	 mov	 eax, DWORD PTR $T3[ebp]
  0005f	89 45 d0	 mov	 DWORD PTR $T2[ebp], eax
; File C:\Program Files (x86)\Microsoft Visual Studio\2019\Community\VC\Tools\MSVC\14.28.29333\include\vector

; 1488 :         return (_STD min)(

  00062	8b 45 d0	 mov	 eax, DWORD PTR $T2[ebp]
  00065	8b 00		 mov	 eax, DWORD PTR [eax]
  00067	89 45 e4	 mov	 DWORD PTR __Max$[ebp], eax

; 1616 :         // given _Oldcapacity and _Newsize, calculate geometric growth
; 1617 :         const size_type _Oldcapacity = capacity();
; 1618 :         const auto _Max              = max_size();
; 1619 : 
; 1620 :         if (_Oldcapacity > _Max - _Oldcapacity / 2) {

  0006a	8b 45 fc	 mov	 eax, DWORD PTR __Oldcapacity$[ebp]
  0006d	d1 e8		 shr	 eax, 1
  0006f	8b 4d e4	 mov	 ecx, DWORD PTR __Max$[ebp]
  00072	2b c8		 sub	 ecx, eax
  00074	39 4d fc	 cmp	 DWORD PTR __Oldcapacity$[ebp], ecx
  00077	76 05		 jbe	 SHORT $LN2@Calculate_

; 1621 :             return _Max; // geometric growth would overflow

  00079	8b 45 e4	 mov	 eax, DWORD PTR __Max$[ebp]
  0007c	eb 1b		 jmp	 SHORT $LN1@Calculate_
$LN2@Calculate_:

; 1622 :         }
; 1623 : 
; 1624 :         const size_type _Geometric = _Oldcapacity + _Oldcapacity / 2;

  0007e	8b 45 fc	 mov	 eax, DWORD PTR __Oldcapacity$[ebp]
  00081	d1 e8		 shr	 eax, 1
  00083	03 45 fc	 add	 eax, DWORD PTR __Oldcapacity$[ebp]
  00086	89 45 e0	 mov	 DWORD PTR __Geometric$[ebp], eax

; 1625 : 
; 1626 :         if (_Geometric < _Newsize) {

  00089	8b 45 e0	 mov	 eax, DWORD PTR __Geometric$[ebp]
  0008c	3b 45 08	 cmp	 eax, DWORD PTR __Newsize$[ebp]
  0008f	73 05		 jae	 SHORT $LN3@Calculate_

; 1627 :             return _Newsize; // geometric growth would be insufficient

  00091	8b 45 08	 mov	 eax, DWORD PTR __Newsize$[ebp]
  00094	eb 03		 jmp	 SHORT $LN1@Calculate_
$LN3@Calculate_:

; 1628 :         }
; 1629 : 
; 1630 :         return _Geometric; // geometric growth is sufficient

  00096	8b 45 e0	 mov	 eax, DWORD PTR __Geometric$[ebp]
$LN1@Calculate_:

; 1631 :     }

  00099	c9		 leave
  0009a	c2 04 00	 ret	 4
?_Calculate_growth@?$vector@PAVCLight@@V?$allocator@PAVCLight@@@std@@@std@@ABEII@Z ENDP ; std::vector<CLight *,std::allocator<CLight *> >::_Calculate_growth
_TEXT	ENDS
; Function compile flags: /Odspy
; File C:\Program Files (x86)\Microsoft Visual Studio\2019\Community\VC\Tools\MSVC\14.28.29333\include\vector
; File C:\Program Files (x86)\Microsoft Visual Studio\2019\Community\VC\Tools\MSVC\14.28.29333\include\xmemory
; File C:\Program Files (x86)\Microsoft Visual Studio\2019\Community\VC\Tools\MSVC\14.28.29333\include\vector
;	COMDAT ?_Destroy@?$vector@PAVCLight@@V?$allocator@PAVCLight@@@std@@@std@@AAEXPAPAVCLight@@0@Z
_TEXT	SEGMENT
$T1 = -12						; size = 4
$T2 = -8						; size = 4
_this$ = -4						; size = 4
__First$ = 8						; size = 4
__Last$ = 12						; size = 4
?_Destroy@?$vector@PAVCLight@@V?$allocator@PAVCLight@@@std@@@std@@AAEXPAPAVCLight@@0@Z PROC ; std::vector<CLight *,std::allocator<CLight *> >::_Destroy, COMDAT
; _this$ = ecx

; 1611 :     void _Destroy(pointer _First, pointer _Last) { // destroy [_First, _Last) using allocator

  00000	55		 push	 ebp
  00001	8b ec		 mov	 ebp, esp
  00003	83 ec 0c	 sub	 esp, 12			; 0000000cH
  00006	89 4d fc	 mov	 DWORD PTR _this$[ebp], ecx

; 1733 :         return _Mypair._Get_first();

  00009	8b 45 fc	 mov	 eax, DWORD PTR _this$[ebp]
; File C:\Program Files (x86)\Microsoft Visual Studio\2019\Community\VC\Tools\MSVC\14.28.29333\include\xmemory

; 1347 :         return *this;

  0000c	89 45 f8	 mov	 DWORD PTR $T2[ebp], eax
; File C:\Program Files (x86)\Microsoft Visual Studio\2019\Community\VC\Tools\MSVC\14.28.29333\include\vector

; 1733 :         return _Mypair._Get_first();

  0000f	8b 45 f8	 mov	 eax, DWORD PTR $T2[ebp]
  00012	89 45 f4	 mov	 DWORD PTR $T1[ebp], eax

; 1612 :         _Destroy_range(_First, _Last, _Getal());

  00015	ff 75 f4	 push	 DWORD PTR $T1[ebp]
  00018	ff 75 0c	 push	 DWORD PTR __Last$[ebp]
  0001b	ff 75 08	 push	 DWORD PTR __First$[ebp]
  0001e	e8 00 00 00 00	 call	 ??$_Destroy_range@V?$allocator@PAVCLight@@@std@@@std@@YAXPAPAVCLight@@QAPAV1@AAV?$allocator@PAVCLight@@@0@@Z ; std::_Destroy_range<std::allocator<CLight *> >
  00023	83 c4 0c	 add	 esp, 12			; 0000000cH

; 1613 :     }

  00026	c9		 leave
  00027	c2 08 00	 ret	 8
?_Destroy@?$vector@PAVCLight@@V?$allocator@PAVCLight@@@std@@@std@@AAEXPAPAVCLight@@0@Z ENDP ; std::vector<CLight *,std::allocator<CLight *> >::_Destroy
_TEXT	ENDS
; Function compile flags: /Odspy
; File C:\Program Files (x86)\Microsoft Visual Studio\2019\Community\VC\Tools\MSVC\14.28.29333\include\vector
; File C:\Program Files (x86)\Microsoft Visual Studio\2019\Community\VC\Tools\MSVC\14.28.29333\include\xmemory
; File C:\Program Files (x86)\Microsoft Visual Studio\2019\Community\VC\Tools\MSVC\14.28.29333\include\vector
; File C:\Program Files (x86)\Microsoft Visual Studio\2019\Community\VC\Tools\MSVC\14.28.29333\include\xmemory
; File C:\Program Files (x86)\Microsoft Visual Studio\2019\Community\VC\Tools\MSVC\14.28.29333\include\limits
; File C:\Program Files (x86)\Microsoft Visual Studio\2019\Community\VC\Tools\MSVC\14.28.29333\include\vector
; File C:\Program Files (x86)\Microsoft Visual Studio\2019\Community\VC\Tools\MSVC\14.28.29333\include\utility
; File C:\Program Files (x86)\Microsoft Visual Studio\2019\Community\VC\Tools\MSVC\14.28.29333\include\vector
;	COMDAT ?max_size@?$vector@PAVCLight@@V?$allocator@PAVCLight@@@std@@@std@@QBEIXZ
_TEXT	SEGMENT
$T1 = -36						; size = 4
$T2 = -32						; size = 4
$T3 = -28						; size = 4
$T4 = -24						; size = 4
$T5 = -20						; size = 4
_this$ = -16						; size = 4
tv68 = -12						; size = 4
$T6 = -8						; size = 4
$T7 = -4						; size = 4
?max_size@?$vector@PAVCLight@@V?$allocator@PAVCLight@@@std@@@std@@QBEIXZ PROC ; std::vector<CLight *,std::allocator<CLight *> >::max_size, COMDAT
; _this$ = ecx

; 1487 :     _NODISCARD size_type max_size() const noexcept {

  00000	55		 push	 ebp
  00001	8b ec		 mov	 ebp, esp
  00003	83 ec 24	 sub	 esp, 36			; 00000024H
  00006	89 4d f0	 mov	 DWORD PTR _this$[ebp], ecx

; 1737 :         return _Mypair._Get_first();

  00009	8b 45 f0	 mov	 eax, DWORD PTR _this$[ebp]
; File C:\Program Files (x86)\Microsoft Visual Studio\2019\Community\VC\Tools\MSVC\14.28.29333\include\xmemory

; 1351 :         return *this;

  0000c	89 45 ec	 mov	 DWORD PTR $T5[ebp], eax
; File C:\Program Files (x86)\Microsoft Visual Studio\2019\Community\VC\Tools\MSVC\14.28.29333\include\vector

; 1737 :         return _Mypair._Get_first();

  0000f	8b 45 ec	 mov	 eax, DWORD PTR $T5[ebp]
  00012	89 45 dc	 mov	 DWORD PTR $T1[ebp], eax
; File C:\Program Files (x86)\Microsoft Visual Studio\2019\Community\VC\Tools\MSVC\14.28.29333\include\xmemory

; 710  :         return static_cast<size_t>(-1) / sizeof(value_type);

  00015	c7 45 fc ff ff
	ff 3f		 mov	 DWORD PTR $T7[ebp], 1073741823 ; 3fffffffH
; File C:\Program Files (x86)\Microsoft Visual Studio\2019\Community\VC\Tools\MSVC\14.28.29333\include\limits

; 557  :         return INT_MAX;

  0001c	c7 45 e8 ff ff
	ff 7f		 mov	 DWORD PTR $T4[ebp], 2147483647 ; 7fffffffH
; File C:\Program Files (x86)\Microsoft Visual Studio\2019\Community\VC\Tools\MSVC\14.28.29333\include\vector

; 1488 :         return (_STD min)(

  00023	8b 45 e8	 mov	 eax, DWORD PTR $T4[ebp]
  00026	89 45 f8	 mov	 DWORD PTR $T6[ebp], eax
; File C:\Program Files (x86)\Microsoft Visual Studio\2019\Community\VC\Tools\MSVC\14.28.29333\include\utility

; 68   :     return _Right < _Left ? _Right : _Left;

  00029	8b 45 fc	 mov	 eax, DWORD PTR $T7[ebp]
  0002c	3b 45 f8	 cmp	 eax, DWORD PTR $T6[ebp]
  0002f	73 08		 jae	 SHORT $LN17@max_size
  00031	8d 45 fc	 lea	 eax, DWORD PTR $T7[ebp]
  00034	89 45 f4	 mov	 DWORD PTR tv68[ebp], eax
  00037	eb 06		 jmp	 SHORT $LN18@max_size
$LN17@max_size:
  00039	8d 45 f8	 lea	 eax, DWORD PTR $T6[ebp]
  0003c	89 45 f4	 mov	 DWORD PTR tv68[ebp], eax
$LN18@max_size:
  0003f	8b 45 f4	 mov	 eax, DWORD PTR tv68[ebp]
  00042	89 45 e4	 mov	 DWORD PTR $T3[ebp], eax
  00045	8b 45 e4	 mov	 eax, DWORD PTR $T3[ebp]
  00048	89 45 e0	 mov	 DWORD PTR $T2[ebp], eax
; File C:\Program Files (x86)\Microsoft Visual Studio\2019\Community\VC\Tools\MSVC\14.28.29333\include\vector

; 1488 :         return (_STD min)(

  0004b	8b 45 e0	 mov	 eax, DWORD PTR $T2[ebp]
  0004e	8b 00		 mov	 eax, DWORD PTR [eax]

; 1489 :             static_cast<size_type>((numeric_limits<difference_type>::max)()), _Alty_traits::max_size(_Getal()));
; 1490 :     }

  00050	c9		 leave
  00051	c3		 ret	 0
?max_size@?$vector@PAVCLight@@V?$allocator@PAVCLight@@@std@@@std@@QBEIXZ ENDP ; std::vector<CLight *,std::allocator<CLight *> >::max_size
_TEXT	ENDS
; Function compile flags: /Odspy
; File C:\Program Files (x86)\Microsoft Visual Studio\2019\Community\VC\Tools\MSVC\14.28.29333\include\vector
; File C:\Program Files (x86)\Microsoft Visual Studio\2019\Community\VC\Tools\MSVC\14.28.29333\include\xmemory
; File C:\Program Files (x86)\Microsoft Visual Studio\2019\Community\VC\Tools\MSVC\14.28.29333\include\vector
;	COMDAT ?clear@?$vector@PAVCLight@@V?$allocator@PAVCLight@@@std@@@std@@QAEXXZ
_TEXT	SEGMENT
__First$ = -32						; size = 4
__Last$ = -28						; size = 4
$T1 = -24						; size = 4
$T2 = -20						; size = 4
__Myfirst$ = -16					; size = 4
__Mylast$ = -12						; size = 4
_this$ = -8						; size = 4
__My_data$ = -4						; size = 4
?clear@?$vector@PAVCLight@@V?$allocator@PAVCLight@@@std@@@std@@QAEXXZ PROC ; std::vector<CLight *,std::allocator<CLight *> >::clear, COMDAT
; _this$ = ecx

; 1383 :     void clear() noexcept { // erase all

  00000	55		 push	 ebp
  00001	8b ec		 mov	 ebp, esp
  00003	83 ec 20	 sub	 esp, 32			; 00000020H
  00006	89 4d f8	 mov	 DWORD PTR _this$[ebp], ecx

; 1384 :         auto& _My_data    = _Mypair._Myval2;

  00009	8b 45 f8	 mov	 eax, DWORD PTR _this$[ebp]
  0000c	89 45 fc	 mov	 DWORD PTR __My_data$[ebp], eax

; 1385 :         pointer& _Myfirst = _My_data._Myfirst;

  0000f	8b 45 fc	 mov	 eax, DWORD PTR __My_data$[ebp]
  00012	89 45 f0	 mov	 DWORD PTR __Myfirst$[ebp], eax

; 1386 :         pointer& _Mylast  = _My_data._Mylast;

  00015	8b 45 fc	 mov	 eax, DWORD PTR __My_data$[ebp]
  00018	83 c0 04	 add	 eax, 4
  0001b	89 45 f4	 mov	 DWORD PTR __Mylast$[ebp], eax

; 1387 : 
; 1388 :         _My_data._Orphan_all();
; 1389 :         _Destroy(_Myfirst, _Mylast);

  0001e	8b 45 f4	 mov	 eax, DWORD PTR __Mylast$[ebp]
  00021	8b 00		 mov	 eax, DWORD PTR [eax]
  00023	89 45 e4	 mov	 DWORD PTR __Last$[ebp], eax
  00026	8b 45 f0	 mov	 eax, DWORD PTR __Myfirst$[ebp]
  00029	8b 00		 mov	 eax, DWORD PTR [eax]
  0002b	89 45 e0	 mov	 DWORD PTR __First$[ebp], eax

; 1733 :         return _Mypair._Get_first();

  0002e	8b 45 f8	 mov	 eax, DWORD PTR _this$[ebp]
; File C:\Program Files (x86)\Microsoft Visual Studio\2019\Community\VC\Tools\MSVC\14.28.29333\include\xmemory

; 1347 :         return *this;

  00031	89 45 ec	 mov	 DWORD PTR $T2[ebp], eax
; File C:\Program Files (x86)\Microsoft Visual Studio\2019\Community\VC\Tools\MSVC\14.28.29333\include\vector

; 1733 :         return _Mypair._Get_first();

  00034	8b 45 ec	 mov	 eax, DWORD PTR $T2[ebp]
  00037	89 45 e8	 mov	 DWORD PTR $T1[ebp], eax

; 1612 :         _Destroy_range(_First, _Last, _Getal());

  0003a	ff 75 e8	 push	 DWORD PTR $T1[ebp]
  0003d	ff 75 e4	 push	 DWORD PTR __Last$[ebp]
  00040	ff 75 e0	 push	 DWORD PTR __First$[ebp]
  00043	e8 00 00 00 00	 call	 ??$_Destroy_range@V?$allocator@PAVCLight@@@std@@@std@@YAXPAPAVCLight@@QAPAV1@AAV?$allocator@PAVCLight@@@0@@Z ; std::_Destroy_range<std::allocator<CLight *> >
  00048	83 c4 0c	 add	 esp, 12			; 0000000cH

; 1390 :         _Mylast = _Myfirst;

  0004b	8b 45 f4	 mov	 eax, DWORD PTR __Mylast$[ebp]
  0004e	8b 4d f0	 mov	 ecx, DWORD PTR __Myfirst$[ebp]
  00051	8b 09		 mov	 ecx, DWORD PTR [ecx]
  00053	89 08		 mov	 DWORD PTR [eax], ecx

; 1391 :     }

  00055	c9		 leave
  00056	c3		 ret	 0
?clear@?$vector@PAVCLight@@V?$allocator@PAVCLight@@@std@@@std@@QAEXXZ ENDP ; std::vector<CLight *,std::allocator<CLight *> >::clear
_TEXT	ENDS
; Function compile flags: /Odspy
; File C:\Program Files (x86)\Microsoft Visual Studio\2019\Community\VC\Tools\MSVC\14.28.29333\include\vector
; File C:\Program Files (x86)\Microsoft Visual Studio\2019\Community\VC\Tools\MSVC\14.28.29333\include\xmemory
; File C:\Program Files (x86)\Microsoft Visual Studio\2019\Community\VC\Tools\MSVC\14.28.29333\include\vector
; File C:\Program Files (x86)\Microsoft Visual Studio\2019\Community\VC\Tools\MSVC\14.28.29333\include\xmemory
; File C:\Program Files (x86)\Microsoft Visual Studio\2019\Community\VC\Tools\MSVC\14.28.29333\include\vector
; File C:\Program Files (x86)\Microsoft Visual Studio\2019\Community\VC\Tools\MSVC\14.28.29333\include\xmemory
; File C:\Program Files (x86)\Microsoft Visual Studio\2019\Community\VC\Tools\MSVC\14.28.29333\include\vector
;	COMDAT ?_Clear_and_reserve_geometric@?$vector@PAVCLight@@V?$allocator@PAVCLight@@@std@@@std@@AAEXI@Z
_TEXT	SEGMENT
$T1 = -56						; size = 4
__Newcapacity$ = -52					; size = 4
__Ptr$ = -48						; size = 4
__Count$ = -44						; size = 4
$T2 = -40						; size = 4
__First$ = -36						; size = 4
__Last$ = -32						; size = 4
$T3 = -28						; size = 4
$T4 = -24						; size = 4
__Myend$ = -20						; size = 4
__Mylast$ = -16						; size = 4
__My_data$ = -12					; size = 4
__Myfirst$ = -8						; size = 4
_this$ = -4						; size = 4
__Newsize$ = 8						; size = 4
?_Clear_and_reserve_geometric@?$vector@PAVCLight@@V?$allocator@PAVCLight@@@std@@@std@@AAEXI@Z PROC ; std::vector<CLight *,std::allocator<CLight *> >::_Clear_and_reserve_geometric, COMDAT
; _this$ = ecx

; 1271 :     void _Clear_and_reserve_geometric(const size_type _Newsize) {

  00000	55		 push	 ebp
  00001	8b ec		 mov	 ebp, esp
  00003	83 ec 38	 sub	 esp, 56			; 00000038H
  00006	89 4d fc	 mov	 DWORD PTR _this$[ebp], ecx

; 1272 :         auto& _My_data    = _Mypair._Myval2;

  00009	8b 45 fc	 mov	 eax, DWORD PTR _this$[ebp]
  0000c	89 45 f4	 mov	 DWORD PTR __My_data$[ebp], eax

; 1273 :         pointer& _Myfirst = _My_data._Myfirst;

  0000f	8b 45 f4	 mov	 eax, DWORD PTR __My_data$[ebp]
  00012	89 45 f8	 mov	 DWORD PTR __Myfirst$[ebp], eax

; 1274 :         pointer& _Mylast  = _My_data._Mylast;

  00015	8b 45 f4	 mov	 eax, DWORD PTR __My_data$[ebp]
  00018	83 c0 04	 add	 eax, 4
  0001b	89 45 f0	 mov	 DWORD PTR __Mylast$[ebp], eax

; 1275 :         pointer& _Myend   = _My_data._Myend;

  0001e	8b 45 f4	 mov	 eax, DWORD PTR __My_data$[ebp]
  00021	83 c0 08	 add	 eax, 8
  00024	89 45 ec	 mov	 DWORD PTR __Myend$[ebp], eax

; 1276 : 
; 1277 : #if _ITERATOR_DEBUG_LEVEL != 0 && defined(_ENABLE_STL_INTERNAL_CHECK)
; 1278 :         _STL_INTERNAL_CHECK(_Newsize != 0);
; 1279 :         {
; 1280 :             _Lockit _Lock(_LOCK_DEBUG);
; 1281 :             _STL_INTERNAL_CHECK(!_My_data._Myproxy->_Myfirstiter); // asserts that all iterators are orphaned
; 1282 :         } // unlock
; 1283 : #endif // _ITERATOR_DEBUG_LEVEL != 0 && defined(_ENABLE_STL_INTERNAL_CHECK)
; 1284 : 
; 1285 :         if (_Newsize > max_size()) {

  00027	8b 4d fc	 mov	 ecx, DWORD PTR _this$[ebp]
  0002a	e8 00 00 00 00	 call	 ?max_size@?$vector@PAVCLight@@V?$allocator@PAVCLight@@@std@@@std@@QBEIXZ ; std::vector<CLight *,std::allocator<CLight *> >::max_size
  0002f	39 45 08	 cmp	 DWORD PTR __Newsize$[ebp], eax
  00032	76 05		 jbe	 SHORT $LN2@Clear_and_

; 1286 :             _Xlength();

  00034	e8 00 00 00 00	 call	 ?_Xlength@?$vector@PAVCLight@@V?$allocator@PAVCLight@@@std@@@std@@CAXXZ ; std::vector<CLight *,std::allocator<CLight *> >::_Xlength
$LN2@Clear_and_:

; 1287 :         }
; 1288 : 
; 1289 :         const size_type _Newcapacity = _Calculate_growth(_Newsize);

  00039	ff 75 08	 push	 DWORD PTR __Newsize$[ebp]
  0003c	8b 4d fc	 mov	 ecx, DWORD PTR _this$[ebp]
  0003f	e8 00 00 00 00	 call	 ?_Calculate_growth@?$vector@PAVCLight@@V?$allocator@PAVCLight@@@std@@@std@@ABEII@Z ; std::vector<CLight *,std::allocator<CLight *> >::_Calculate_growth
  00044	89 45 cc	 mov	 DWORD PTR __Newcapacity$[ebp], eax

; 1290 : 
; 1291 :         if (_Myfirst) { // destroy and deallocate old array

  00047	8b 45 f8	 mov	 eax, DWORD PTR __Myfirst$[ebp]
  0004a	83 38 00	 cmp	 DWORD PTR [eax], 0
  0004d	74 74		 je	 SHORT $LN3@Clear_and_

; 1292 :             _Destroy(_Myfirst, _Mylast);

  0004f	8b 45 f0	 mov	 eax, DWORD PTR __Mylast$[ebp]
  00052	8b 00		 mov	 eax, DWORD PTR [eax]
  00054	89 45 e0	 mov	 DWORD PTR __Last$[ebp], eax
  00057	8b 45 f8	 mov	 eax, DWORD PTR __Myfirst$[ebp]
  0005a	8b 00		 mov	 eax, DWORD PTR [eax]
  0005c	89 45 dc	 mov	 DWORD PTR __First$[ebp], eax

; 1733 :         return _Mypair._Get_first();

  0005f	8b 45 fc	 mov	 eax, DWORD PTR _this$[ebp]
; File C:\Program Files (x86)\Microsoft Visual Studio\2019\Community\VC\Tools\MSVC\14.28.29333\include\xmemory

; 1347 :         return *this;

  00062	89 45 e8	 mov	 DWORD PTR $T4[ebp], eax
; File C:\Program Files (x86)\Microsoft Visual Studio\2019\Community\VC\Tools\MSVC\14.28.29333\include\vector

; 1733 :         return _Mypair._Get_first();

  00065	8b 45 e8	 mov	 eax, DWORD PTR $T4[ebp]
  00068	89 45 e4	 mov	 DWORD PTR $T3[ebp], eax

; 1612 :         _Destroy_range(_First, _Last, _Getal());

  0006b	ff 75 e4	 push	 DWORD PTR $T3[ebp]
  0006e	ff 75 e0	 push	 DWORD PTR __Last$[ebp]
  00071	ff 75 dc	 push	 DWORD PTR __First$[ebp]
  00074	e8 00 00 00 00	 call	 ??$_Destroy_range@V?$allocator@PAVCLight@@@std@@@std@@YAXPAPAVCLight@@QAPAV1@AAV?$allocator@PAVCLight@@@0@@Z ; std::_Destroy_range<std::allocator<CLight *> >
  00079	83 c4 0c	 add	 esp, 12			; 0000000cH

; 1733 :         return _Mypair._Get_first();

  0007c	8b 45 fc	 mov	 eax, DWORD PTR _this$[ebp]
; File C:\Program Files (x86)\Microsoft Visual Studio\2019\Community\VC\Tools\MSVC\14.28.29333\include\xmemory

; 1347 :         return *this;

  0007f	89 45 d8	 mov	 DWORD PTR $T2[ebp], eax
; File C:\Program Files (x86)\Microsoft Visual Studio\2019\Community\VC\Tools\MSVC\14.28.29333\include\vector

; 1733 :         return _Mypair._Get_first();

  00082	8b 45 d8	 mov	 eax, DWORD PTR $T2[ebp]
  00085	89 45 c8	 mov	 DWORD PTR $T1[ebp], eax

; 1293 :             _Getal().deallocate(_Myfirst, static_cast<size_type>(_Myend - _Myfirst));

  00088	8b 45 ec	 mov	 eax, DWORD PTR __Myend$[ebp]
  0008b	8b 4d f8	 mov	 ecx, DWORD PTR __Myfirst$[ebp]
  0008e	8b 00		 mov	 eax, DWORD PTR [eax]
  00090	2b 01		 sub	 eax, DWORD PTR [ecx]
  00092	c1 f8 02	 sar	 eax, 2
  00095	89 45 d4	 mov	 DWORD PTR __Count$[ebp], eax
  00098	8b 45 f8	 mov	 eax, DWORD PTR __Myfirst$[ebp]
  0009b	8b 00		 mov	 eax, DWORD PTR [eax]
  0009d	89 45 d0	 mov	 DWORD PTR __Ptr$[ebp], eax
; File C:\Program Files (x86)\Microsoft Visual Studio\2019\Community\VC\Tools\MSVC\14.28.29333\include\xmemory

; 810  :         _Deallocate<_New_alignof<_Ty>>(_Ptr, sizeof(_Ty) * _Count);

  000a0	8b 45 d4	 mov	 eax, DWORD PTR __Count$[ebp]
  000a3	c1 e0 02	 shl	 eax, 2
  000a6	50		 push	 eax
  000a7	ff 75 d0	 push	 DWORD PTR __Ptr$[ebp]
  000aa	e8 00 00 00 00	 call	 ??$_Deallocate@$07$0A@@std@@YAXPAXI@Z ; std::_Deallocate<8,0>
  000af	59		 pop	 ecx
  000b0	59		 pop	 ecx
; File C:\Program Files (x86)\Microsoft Visual Studio\2019\Community\VC\Tools\MSVC\14.28.29333\include\vector

; 1295 :             _Myfirst = pointer();

  000b1	8b 45 f8	 mov	 eax, DWORD PTR __Myfirst$[ebp]
  000b4	83 20 00	 and	 DWORD PTR [eax], 0

; 1296 :             _Mylast  = pointer();

  000b7	8b 45 f0	 mov	 eax, DWORD PTR __Mylast$[ebp]
  000ba	83 20 00	 and	 DWORD PTR [eax], 0

; 1297 :             _Myend   = pointer();

  000bd	8b 45 ec	 mov	 eax, DWORD PTR __Myend$[ebp]
  000c0	83 20 00	 and	 DWORD PTR [eax], 0
$LN3@Clear_and_:

; 1298 :         }
; 1299 : 
; 1300 :         _Buy_raw(_Newcapacity);

  000c3	ff 75 cc	 push	 DWORD PTR __Newcapacity$[ebp]
  000c6	8b 4d fc	 mov	 ecx, DWORD PTR _this$[ebp]
  000c9	e8 00 00 00 00	 call	 ?_Buy_raw@?$vector@PAVCLight@@V?$allocator@PAVCLight@@@std@@@std@@AAEXI@Z ; std::vector<CLight *,std::allocator<CLight *> >::_Buy_raw
$LN4@Clear_and_:

; 1301 :     }

  000ce	c9		 leave
  000cf	c2 04 00	 ret	 4
?_Clear_and_reserve_geometric@?$vector@PAVCLight@@V?$allocator@PAVCLight@@@std@@@std@@AAEXI@Z ENDP ; std::vector<CLight *,std::allocator<CLight *> >::_Clear_and_reserve_geometric
_TEXT	ENDS
; Function compile flags: /Odspy
; File C:\Program Files (x86)\Microsoft Visual Studio\2019\Community\VC\Tools\MSVC\14.28.29333\include\vector
; File C:\Program Files (x86)\Microsoft Visual Studio\2019\Community\VC\Tools\MSVC\14.28.29333\include\xmemory
; File C:\Program Files (x86)\Microsoft Visual Studio\2019\Community\VC\Tools\MSVC\14.28.29333\include\vector
; File C:\Program Files (x86)\Microsoft Visual Studio\2019\Community\VC\Tools\MSVC\14.28.29333\include\xmemory
; File C:\Program Files (x86)\Microsoft Visual Studio\2019\Community\VC\Tools\MSVC\14.28.29333\include\vector
; File C:\Program Files (x86)\Microsoft Visual Studio\2019\Community\VC\Tools\MSVC\14.28.29333\include\xutility
; File C:\Program Files (x86)\Microsoft Visual Studio\2019\Community\VC\Tools\MSVC\14.28.29333\include\vector
;	COMDAT ?_Copy_assign@?$vector@PAVCLight@@V?$allocator@PAVCLight@@@std@@@std@@AAEXABV12@U?$integral_constant@_N$0A@@2@@Z
_TEXT	SEGMENT
$T1 = -40						; size = 1
__First$ = -36						; size = 4
$T2 = -32						; size = 4
__Last$ = -28						; size = 4
$T3 = -24						; size = 4
$T4 = -20						; size = 4
$T5 = -16						; size = 4
$T6 = -12						; size = 4
_this$ = -8						; size = 4
__Right_data$ = -4					; size = 4
__Right$ = 8						; size = 4
___formal$ = 12						; size = 1
?_Copy_assign@?$vector@PAVCLight@@V?$allocator@PAVCLight@@@std@@@std@@AAEXABV12@U?$integral_constant@_N$0A@@2@@Z PROC ; std::vector<CLight *,std::allocator<CLight *> >::_Copy_assign, COMDAT
; _this$ = ecx

; 1150 :     void _Copy_assign(const vector& _Right, false_type) {

  00000	55		 push	 ebp
  00001	8b ec		 mov	 ebp, esp
  00003	83 ec 28	 sub	 esp, 40			; 00000028H
  00006	89 4d f8	 mov	 DWORD PTR _this$[ebp], ecx

; 1737 :         return _Mypair._Get_first();

  00009	8b 45 08	 mov	 eax, DWORD PTR __Right$[ebp]
; File C:\Program Files (x86)\Microsoft Visual Studio\2019\Community\VC\Tools\MSVC\14.28.29333\include\xmemory

; 1351 :         return *this;

  0000c	89 45 f4	 mov	 DWORD PTR $T6[ebp], eax
; File C:\Program Files (x86)\Microsoft Visual Studio\2019\Community\VC\Tools\MSVC\14.28.29333\include\vector

; 1737 :         return _Mypair._Get_first();

  0000f	8b 45 f4	 mov	 eax, DWORD PTR $T6[ebp]
  00012	89 45 ec	 mov	 DWORD PTR $T4[ebp], eax

; 1733 :         return _Mypair._Get_first();

  00015	8b 45 f8	 mov	 eax, DWORD PTR _this$[ebp]
; File C:\Program Files (x86)\Microsoft Visual Studio\2019\Community\VC\Tools\MSVC\14.28.29333\include\xmemory

; 1347 :         return *this;

  00018	89 45 f0	 mov	 DWORD PTR $T5[ebp], eax
; File C:\Program Files (x86)\Microsoft Visual Studio\2019\Community\VC\Tools\MSVC\14.28.29333\include\vector

; 1733 :         return _Mypair._Get_first();

  0001b	8b 45 f0	 mov	 eax, DWORD PTR $T5[ebp]
  0001e	89 45 e8	 mov	 DWORD PTR $T3[ebp], eax

; 1151 :         _Pocca(_Getal(), _Right._Getal());

  00021	ff 75 ec	 push	 DWORD PTR $T4[ebp]
  00024	ff 75 e8	 push	 DWORD PTR $T3[ebp]
  00027	e8 00 00 00 00	 call	 ??$_Pocca@V?$allocator@PAVCLight@@@std@@@std@@YAXAAV?$allocator@PAVCLight@@@0@ABV10@@Z ; std::_Pocca<std::allocator<CLight *> >
  0002c	59		 pop	 ecx
  0002d	59		 pop	 ecx

; 1152 :         auto& _Right_data = _Right._Mypair._Myval2;

  0002e	8b 45 08	 mov	 eax, DWORD PTR __Right$[ebp]
  00031	89 45 fc	 mov	 DWORD PTR __Right_data$[ebp], eax

; 1153 :         assign(_Right_data._Myfirst, _Right_data._Mylast);

  00034	8b 45 fc	 mov	 eax, DWORD PTR __Right_data$[ebp]
  00037	8b 40 04	 mov	 eax, DWORD PTR [eax+4]
  0003a	89 45 e4	 mov	 DWORD PTR __Last$[ebp], eax
  0003d	8b 45 fc	 mov	 eax, DWORD PTR __Right_data$[ebp]
  00040	8b 00		 mov	 eax, DWORD PTR [eax]
  00042	89 45 dc	 mov	 DWORD PTR __First$[ebp], eax
; File C:\Program Files (x86)\Microsoft Visual Studio\2019\Community\VC\Tools\MSVC\14.28.29333\include\xutility

; 1303 :         return _It + 0;

  00045	8b 45 e4	 mov	 eax, DWORD PTR __Last$[ebp]
  00048	89 45 e0	 mov	 DWORD PTR $T2[ebp], eax
; File C:\Program Files (x86)\Microsoft Visual Studio\2019\Community\VC\Tools\MSVC\14.28.29333\include\vector

; 1142 :         _Assign_range(_Get_unwrapped(_First), _Get_unwrapped(_Last), _Iter_cat_t<_Iter>{});

  0004b	ff 75 d8	 push	 DWORD PTR $T1[ebp]
  0004e	ff 75 e0	 push	 DWORD PTR $T2[ebp]
  00051	ff 75 dc	 push	 DWORD PTR __First$[ebp]
  00054	8b 4d f8	 mov	 ecx, DWORD PTR _this$[ebp]
  00057	e8 00 00 00 00	 call	 ??$_Assign_range@PAPAVCLight@@@?$vector@PAVCLight@@V?$allocator@PAVCLight@@@std@@@std@@AAEXPAPAVCLight@@0Uforward_iterator_tag@1@@Z ; std::vector<CLight *,std::allocator<CLight *> >::_Assign_range<CLight * *>

; 1154 :     }

  0005c	c9		 leave
  0005d	c2 08 00	 ret	 8
?_Copy_assign@?$vector@PAVCLight@@V?$allocator@PAVCLight@@@std@@@std@@AAEXABV12@U?$integral_constant@_N$0A@@2@@Z ENDP ; std::vector<CLight *,std::allocator<CLight *> >::_Copy_assign
_TEXT	ENDS
; Function compile flags: /Odspy
; File C:\Program Files (x86)\Microsoft Visual Studio\2019\Community\VC\Tools\MSVC\14.28.29333\include\vector
;	COMDAT ??1?$vector@PAVCLight@@V?$allocator@PAVCLight@@@std@@@std@@QAE@XZ
_TEXT	SEGMENT
_this$ = -4						; size = 4
??1?$vector@PAVCLight@@V?$allocator@PAVCLight@@@std@@@std@@QAE@XZ PROC ; std::vector<CLight *,std::allocator<CLight *> >::~vector<CLight *,std::allocator<CLight *> >, COMDAT
; _this$ = ecx

; 672  :     ~vector() noexcept {

  00000	55		 push	 ebp
  00001	8b ec		 mov	 ebp, esp
  00003	51		 push	 ecx
  00004	89 4d fc	 mov	 DWORD PTR _this$[ebp], ecx

; 673  :         _Tidy();

  00007	8b 4d fc	 mov	 ecx, DWORD PTR _this$[ebp]
  0000a	e8 00 00 00 00	 call	 ?_Tidy@?$vector@PAVCLight@@V?$allocator@PAVCLight@@@std@@@std@@AAEXXZ ; std::vector<CLight *,std::allocator<CLight *> >::_Tidy

; 674  : #if _ITERATOR_DEBUG_LEVEL != 0
; 675  :         auto&& _Alproxy = _GET_PROXY_ALLOCATOR(_Alty, _Getal());
; 676  :         _Delete_plain_internal(_Alproxy, _STD exchange(_Mypair._Myval2._Myproxy, nullptr));
; 677  : #endif // _ITERATOR_DEBUG_LEVEL != 0
; 678  :     }

  0000f	c9		 leave
  00010	c3		 ret	 0
??1?$vector@PAVCLight@@V?$allocator@PAVCLight@@@std@@@std@@QAE@XZ ENDP ; std::vector<CLight *,std::allocator<CLight *> >::~vector<CLight *,std::allocator<CLight *> >
_TEXT	ENDS
; Function compile flags: /Odspy
; File C:\Program Files (x86)\Microsoft Visual Studio\2019\Community\VC\Tools\MSVC\14.28.29333\include\xmemory
;	COMDAT ?deallocate@?$allocator@PAVCLight@@@std@@QAEXQAPAVCLight@@I@Z
_TEXT	SEGMENT
_this$ = -4						; size = 4
__Ptr$ = 8						; size = 4
__Count$ = 12						; size = 4
?deallocate@?$allocator@PAVCLight@@@std@@QAEXQAPAVCLight@@I@Z PROC ; std::allocator<CLight *>::deallocate, COMDAT
; _this$ = ecx

; 808  :     void deallocate(_Ty* const _Ptr, const size_t _Count) {

  00000	55		 push	 ebp
  00001	8b ec		 mov	 ebp, esp
  00003	51		 push	 ecx
  00004	89 4d fc	 mov	 DWORD PTR _this$[ebp], ecx

; 809  :         // no overflow check on the following multiply; we assume _Allocate did that check
; 810  :         _Deallocate<_New_alignof<_Ty>>(_Ptr, sizeof(_Ty) * _Count);

  00007	8b 45 0c	 mov	 eax, DWORD PTR __Count$[ebp]
  0000a	c1 e0 02	 shl	 eax, 2
  0000d	50		 push	 eax
  0000e	ff 75 08	 push	 DWORD PTR __Ptr$[ebp]
  00011	e8 00 00 00 00	 call	 ??$_Deallocate@$07$0A@@std@@YAXPAXI@Z ; std::_Deallocate<8,0>
  00016	59		 pop	 ecx
  00017	59		 pop	 ecx

; 811  :     }

  00018	c9		 leave
  00019	c2 08 00	 ret	 8
?deallocate@?$allocator@PAVCLight@@@std@@QAEXQAPAVCLight@@I@Z ENDP ; std::allocator<CLight *>::deallocate
_TEXT	ENDS
; Function compile flags: /Odspy
;	COMDAT ??1?$map@KPAVCLight@@U?$less@K@std@@V?$allocator@U?$pair@$$CBKPAVCLight@@@std@@@3@@std@@QAE@XZ
_TEXT	SEGMENT
_this$ = -4						; size = 4
??1?$map@KPAVCLight@@U?$less@K@std@@V?$allocator@U?$pair@$$CBKPAVCLight@@@std@@@3@@std@@QAE@XZ PROC ; std::map<unsigned long,CLight *,std::less<unsigned long>,std::allocator<std::pair<unsigned long const ,CLight *> > >::~map<unsigned long,CLight *,std::less<unsigned long>,std::allocator<std::pair<unsigned long const ,CLight *> > >, COMDAT
; _this$ = ecx
  00000	55		 push	 ebp
  00001	8b ec		 mov	 ebp, esp
  00003	51		 push	 ecx
  00004	89 4d fc	 mov	 DWORD PTR _this$[ebp], ecx
  00007	8b 4d fc	 mov	 ecx, DWORD PTR _this$[ebp]
  0000a	e8 00 00 00 00	 call	 ??1?$_Tree@V?$_Tmap_traits@KPAVCLight@@U?$less@K@std@@V?$allocator@U?$pair@$$CBKPAVCLight@@@std@@@3@$0A@@std@@@std@@QAE@XZ ; std::_Tree<std::_Tmap_traits<unsigned long,CLight *,std::less<unsigned long>,std::allocator<std::pair<unsigned long const ,CLight *> >,0> >::~_Tree<std::_Tmap_traits<unsigned long,CLight *,std::less<unsigned long>,std::allocator<std::pair<unsigned long const ,CLight *> >,0> >
  0000f	c9		 leave
  00010	c3		 ret	 0
??1?$map@KPAVCLight@@U?$less@K@std@@V?$allocator@U?$pair@$$CBKPAVCLight@@@std@@@3@@std@@QAE@XZ ENDP ; std::map<unsigned long,CLight *,std::less<unsigned long>,std::allocator<std::pair<unsigned long const ,CLight *> > >::~map<unsigned long,CLight *,std::less<unsigned long>,std::allocator<std::pair<unsigned long const ,CLight *> > >
_TEXT	ENDS
; Function compile flags: /Odspy
; File C:\Program Files (x86)\Microsoft Visual Studio\2019\Community\VC\Tools\MSVC\14.28.29333\include\xtree
;	COMDAT ?_Insert_node@?$_Tree_val@U?$_Tree_simple_types@U?$pair@$$CBKPAVCLight@@@std@@@std@@@std@@QAEPAU?$_Tree_node@U?$pair@$$CBKPAVCLight@@@std@@PAX@2@U?$_Tree_id@PAU?$_Tree_node@U?$pair@$$CBKPAVCLight@@@std@@PAX@std@@@2@QAU32@@Z
_TEXT	SEGMENT
__Parent_sibling$1 = -20				; size = 4
__Parent_sibling$2 = -16				; size = 4
_this$ = -12						; size = 4
__Head$ = -8						; size = 4
__Pnode$3 = -4						; size = 4
__Loc$ = 8						; size = 8
__Newnode$ = 16						; size = 4
?_Insert_node@?$_Tree_val@U?$_Tree_simple_types@U?$pair@$$CBKPAVCLight@@@std@@@std@@@std@@QAEPAU?$_Tree_node@U?$pair@$$CBKPAVCLight@@@std@@PAX@2@U?$_Tree_id@PAU?$_Tree_node@U?$pair@$$CBKPAVCLight@@@std@@PAX@std@@@2@QAU32@@Z PROC ; std::_Tree_val<std::_Tree_simple_types<std::pair<unsigned long const ,CLight *> > >::_Insert_node, COMDAT
; _this$ = ecx

; 644  :     _Nodeptr _Insert_node(const _Tree_id<_Nodeptr> _Loc, const _Nodeptr _Newnode) noexcept {

  00000	55		 push	 ebp
  00001	8b ec		 mov	 ebp, esp
  00003	83 ec 14	 sub	 esp, 20			; 00000014H
  00006	89 4d f4	 mov	 DWORD PTR _this$[ebp], ecx

; 645  :         ++_Mysize;

  00009	8b 45 f4	 mov	 eax, DWORD PTR _this$[ebp]
  0000c	8b 40 04	 mov	 eax, DWORD PTR [eax+4]
  0000f	40		 inc	 eax
  00010	8b 4d f4	 mov	 ecx, DWORD PTR _this$[ebp]
  00013	89 41 04	 mov	 DWORD PTR [ecx+4], eax

; 646  :         const auto _Head  = _Myhead;

  00016	8b 45 f4	 mov	 eax, DWORD PTR _this$[ebp]
  00019	8b 00		 mov	 eax, DWORD PTR [eax]
  0001b	89 45 f8	 mov	 DWORD PTR __Head$[ebp], eax

; 647  :         _Newnode->_Parent = _Loc._Parent;

  0001e	8b 45 10	 mov	 eax, DWORD PTR __Newnode$[ebp]
  00021	8b 4d 08	 mov	 ecx, DWORD PTR __Loc$[ebp]
  00024	89 48 04	 mov	 DWORD PTR [eax+4], ecx

; 648  :         if (_Loc._Parent == _Head) { // first node in tree, just set head values

  00027	8b 45 08	 mov	 eax, DWORD PTR __Loc$[ebp]
  0002a	3b 45 f8	 cmp	 eax, DWORD PTR __Head$[ebp]
  0002d	75 29		 jne	 SHORT $LN5@Insert_nod

; 649  :             _Head->_Left     = _Newnode;

  0002f	8b 45 f8	 mov	 eax, DWORD PTR __Head$[ebp]
  00032	8b 4d 10	 mov	 ecx, DWORD PTR __Newnode$[ebp]
  00035	89 08		 mov	 DWORD PTR [eax], ecx

; 650  :             _Head->_Parent   = _Newnode;

  00037	8b 45 f8	 mov	 eax, DWORD PTR __Head$[ebp]
  0003a	8b 4d 10	 mov	 ecx, DWORD PTR __Newnode$[ebp]
  0003d	89 48 04	 mov	 DWORD PTR [eax+4], ecx

; 651  :             _Head->_Right    = _Newnode;

  00040	8b 45 f8	 mov	 eax, DWORD PTR __Head$[ebp]
  00043	8b 4d 10	 mov	 ecx, DWORD PTR __Newnode$[ebp]
  00046	89 48 08	 mov	 DWORD PTR [eax+8], ecx

; 652  :             _Newnode->_Color = _Black; // the root is black

  00049	8b 45 10	 mov	 eax, DWORD PTR __Newnode$[ebp]
  0004c	c6 40 0c 01	 mov	 BYTE PTR [eax+12], 1

; 653  :             return _Newnode;

  00050	8b 45 10	 mov	 eax, DWORD PTR __Newnode$[ebp]
  00053	e9 a3 01 00 00	 jmp	 $LN18@Insert_nod
$LN5@Insert_nod:

; 654  :         }
; 655  : 
; 656  :         _STL_INTERNAL_CHECK(_Loc._Child != _Tree_child::_Unused);
; 657  :         if (_Loc._Child == _Tree_child::_Right) { // add to right of _Loc._Parent

  00058	83 7d 0c 00	 cmp	 DWORD PTR __Loc$[ebp+4], 0
  0005c	75 1f		 jne	 SHORT $LN6@Insert_nod

; 658  :             _STL_INTERNAL_CHECK(_Loc._Parent->_Right->_Isnil);
; 659  :             _Loc._Parent->_Right = _Newnode;

  0005e	8b 45 08	 mov	 eax, DWORD PTR __Loc$[ebp]
  00061	8b 4d 10	 mov	 ecx, DWORD PTR __Newnode$[ebp]
  00064	89 48 08	 mov	 DWORD PTR [eax+8], ecx

; 660  :             if (_Loc._Parent == _Head->_Right) { // remember rightmost node

  00067	8b 45 f8	 mov	 eax, DWORD PTR __Head$[ebp]
  0006a	8b 4d 08	 mov	 ecx, DWORD PTR __Loc$[ebp]
  0006d	3b 48 08	 cmp	 ecx, DWORD PTR [eax+8]
  00070	75 09		 jne	 SHORT $LN8@Insert_nod

; 661  :                 _Head->_Right = _Newnode;

  00072	8b 45 f8	 mov	 eax, DWORD PTR __Head$[ebp]
  00075	8b 4d 10	 mov	 ecx, DWORD PTR __Newnode$[ebp]
  00078	89 48 08	 mov	 DWORD PTR [eax+8], ecx
$LN8@Insert_nod:

; 662  :             }
; 663  :         } else { // add to left of _Loc._Parent

  0007b	eb 1a		 jmp	 SHORT $LN7@Insert_nod
$LN6@Insert_nod:

; 664  :             _STL_INTERNAL_CHECK(_Loc._Parent->_Left->_Isnil);
; 665  :             _Loc._Parent->_Left = _Newnode;

  0007d	8b 45 08	 mov	 eax, DWORD PTR __Loc$[ebp]
  00080	8b 4d 10	 mov	 ecx, DWORD PTR __Newnode$[ebp]
  00083	89 08		 mov	 DWORD PTR [eax], ecx

; 666  :             if (_Loc._Parent == _Head->_Left) { // remember leftmost node

  00085	8b 45 f8	 mov	 eax, DWORD PTR __Head$[ebp]
  00088	8b 4d 08	 mov	 ecx, DWORD PTR __Loc$[ebp]
  0008b	3b 08		 cmp	 ecx, DWORD PTR [eax]
  0008d	75 08		 jne	 SHORT $LN7@Insert_nod

; 667  :                 _Head->_Left = _Newnode;

  0008f	8b 45 f8	 mov	 eax, DWORD PTR __Head$[ebp]
  00092	8b 4d 10	 mov	 ecx, DWORD PTR __Newnode$[ebp]
  00095	89 08		 mov	 DWORD PTR [eax], ecx
$LN7@Insert_nod:

; 668  :             }
; 669  :         }
; 670  : 
; 671  :         for (_Nodeptr _Pnode = _Newnode; _Pnode->_Parent->_Color == _Red;) {

  00097	8b 45 10	 mov	 eax, DWORD PTR __Newnode$[ebp]
  0009a	89 45 fc	 mov	 DWORD PTR __Pnode$3[ebp], eax
$LN4@Insert_nod:
  0009d	8b 45 fc	 mov	 eax, DWORD PTR __Pnode$3[ebp]
  000a0	8b 40 04	 mov	 eax, DWORD PTR [eax+4]
  000a3	0f be 40 0c	 movsx	 eax, BYTE PTR [eax+12]
  000a7	85 c0		 test	 eax, eax
  000a9	0f 85 3f 01 00
	00		 jne	 $LN3@Insert_nod

; 672  :             if (_Pnode->_Parent == _Pnode->_Parent->_Parent->_Left) { // fixup red-red in left subtree

  000af	8b 45 fc	 mov	 eax, DWORD PTR __Pnode$3[ebp]
  000b2	8b 40 04	 mov	 eax, DWORD PTR [eax+4]
  000b5	8b 40 04	 mov	 eax, DWORD PTR [eax+4]
  000b8	8b 4d fc	 mov	 ecx, DWORD PTR __Pnode$3[ebp]
  000bb	8b 49 04	 mov	 ecx, DWORD PTR [ecx+4]
  000be	3b 08		 cmp	 ecx, DWORD PTR [eax]
  000c0	0f 85 95 00 00
	00		 jne	 $LN10@Insert_nod

; 673  :                 const auto _Parent_sibling = _Pnode->_Parent->_Parent->_Right;

  000c6	8b 45 fc	 mov	 eax, DWORD PTR __Pnode$3[ebp]
  000c9	8b 40 04	 mov	 eax, DWORD PTR [eax+4]
  000cc	8b 40 04	 mov	 eax, DWORD PTR [eax+4]
  000cf	8b 40 08	 mov	 eax, DWORD PTR [eax+8]
  000d2	89 45 f0	 mov	 DWORD PTR __Parent_sibling$2[ebp], eax

; 674  :                 if (_Parent_sibling->_Color == _Red) { // parent's sibling has two red children, blacken both

  000d5	8b 45 f0	 mov	 eax, DWORD PTR __Parent_sibling$2[ebp]
  000d8	0f be 40 0c	 movsx	 eax, BYTE PTR [eax+12]
  000dc	85 c0		 test	 eax, eax
  000de	75 2c		 jne	 SHORT $LN12@Insert_nod

; 675  :                     _Pnode->_Parent->_Color          = _Black;

  000e0	8b 45 fc	 mov	 eax, DWORD PTR __Pnode$3[ebp]
  000e3	8b 40 04	 mov	 eax, DWORD PTR [eax+4]
  000e6	c6 40 0c 01	 mov	 BYTE PTR [eax+12], 1

; 676  :                     _Parent_sibling->_Color          = _Black;

  000ea	8b 45 f0	 mov	 eax, DWORD PTR __Parent_sibling$2[ebp]
  000ed	c6 40 0c 01	 mov	 BYTE PTR [eax+12], 1

; 677  :                     _Pnode->_Parent->_Parent->_Color = _Red;

  000f1	8b 45 fc	 mov	 eax, DWORD PTR __Pnode$3[ebp]
  000f4	8b 40 04	 mov	 eax, DWORD PTR [eax+4]
  000f7	8b 40 04	 mov	 eax, DWORD PTR [eax+4]
  000fa	c6 40 0c 00	 mov	 BYTE PTR [eax+12], 0

; 678  :                     _Pnode                           = _Pnode->_Parent->_Parent;

  000fe	8b 45 fc	 mov	 eax, DWORD PTR __Pnode$3[ebp]
  00101	8b 40 04	 mov	 eax, DWORD PTR [eax+4]
  00104	8b 40 04	 mov	 eax, DWORD PTR [eax+4]
  00107	89 45 fc	 mov	 DWORD PTR __Pnode$3[ebp], eax

; 679  :                 } else { // parent's sibling has red and black children

  0010a	eb 4a		 jmp	 SHORT $LN13@Insert_nod
$LN12@Insert_nod:

; 680  :                     if (_Pnode == _Pnode->_Parent->_Right) { // rotate right child to left

  0010c	8b 45 fc	 mov	 eax, DWORD PTR __Pnode$3[ebp]
  0010f	8b 40 04	 mov	 eax, DWORD PTR [eax+4]
  00112	8b 4d fc	 mov	 ecx, DWORD PTR __Pnode$3[ebp]
  00115	3b 48 08	 cmp	 ecx, DWORD PTR [eax+8]
  00118	75 14		 jne	 SHORT $LN14@Insert_nod

; 681  :                         _Pnode = _Pnode->_Parent;

  0011a	8b 45 fc	 mov	 eax, DWORD PTR __Pnode$3[ebp]
  0011d	8b 40 04	 mov	 eax, DWORD PTR [eax+4]
  00120	89 45 fc	 mov	 DWORD PTR __Pnode$3[ebp], eax

; 682  :                         _Lrotate(_Pnode);

  00123	ff 75 fc	 push	 DWORD PTR __Pnode$3[ebp]
  00126	8b 4d f4	 mov	 ecx, DWORD PTR _this$[ebp]
  00129	e8 00 00 00 00	 call	 ?_Lrotate@?$_Tree_val@U?$_Tree_simple_types@U?$pair@$$CBKPAVCLight@@@std@@@std@@@std@@QAEXPAU?$_Tree_node@U?$pair@$$CBKPAVCLight@@@std@@PAX@2@@Z ; std::_Tree_val<std::_Tree_simple_types<std::pair<unsigned long const ,CLight *> > >::_Lrotate
$LN14@Insert_nod:

; 683  :                     }
; 684  : 
; 685  :                     _Pnode->_Parent->_Color          = _Black; // propagate red up

  0012e	8b 45 fc	 mov	 eax, DWORD PTR __Pnode$3[ebp]
  00131	8b 40 04	 mov	 eax, DWORD PTR [eax+4]
  00134	c6 40 0c 01	 mov	 BYTE PTR [eax+12], 1

; 686  :                     _Pnode->_Parent->_Parent->_Color = _Red;

  00138	8b 45 fc	 mov	 eax, DWORD PTR __Pnode$3[ebp]
  0013b	8b 40 04	 mov	 eax, DWORD PTR [eax+4]
  0013e	8b 40 04	 mov	 eax, DWORD PTR [eax+4]
  00141	c6 40 0c 00	 mov	 BYTE PTR [eax+12], 0

; 687  :                     _Rrotate(_Pnode->_Parent->_Parent);

  00145	8b 45 fc	 mov	 eax, DWORD PTR __Pnode$3[ebp]
  00148	8b 40 04	 mov	 eax, DWORD PTR [eax+4]
  0014b	ff 70 04	 push	 DWORD PTR [eax+4]
  0014e	8b 4d f4	 mov	 ecx, DWORD PTR _this$[ebp]
  00151	e8 00 00 00 00	 call	 ?_Rrotate@?$_Tree_val@U?$_Tree_simple_types@U?$pair@$$CBKPAVCLight@@@std@@@std@@@std@@QAEXPAU?$_Tree_node@U?$pair@$$CBKPAVCLight@@@std@@PAX@2@@Z ; std::_Tree_val<std::_Tree_simple_types<std::pair<unsigned long const ,CLight *> > >::_Rrotate
$LN13@Insert_nod:

; 688  :                 }
; 689  :             } else { // fixup red-red in right subtree

  00156	e9 8e 00 00 00	 jmp	 $LN11@Insert_nod
$LN10@Insert_nod:

; 690  :                 const auto _Parent_sibling = _Pnode->_Parent->_Parent->_Left;

  0015b	8b 45 fc	 mov	 eax, DWORD PTR __Pnode$3[ebp]
  0015e	8b 40 04	 mov	 eax, DWORD PTR [eax+4]
  00161	8b 40 04	 mov	 eax, DWORD PTR [eax+4]
  00164	8b 00		 mov	 eax, DWORD PTR [eax]
  00166	89 45 ec	 mov	 DWORD PTR __Parent_sibling$1[ebp], eax

; 691  :                 if (_Parent_sibling->_Color == _Red) { // parent's sibling has two red children, blacken both

  00169	8b 45 ec	 mov	 eax, DWORD PTR __Parent_sibling$1[ebp]
  0016c	0f be 40 0c	 movsx	 eax, BYTE PTR [eax+12]
  00170	85 c0		 test	 eax, eax
  00172	75 2c		 jne	 SHORT $LN15@Insert_nod

; 692  :                     _Pnode->_Parent->_Color          = _Black;

  00174	8b 45 fc	 mov	 eax, DWORD PTR __Pnode$3[ebp]
  00177	8b 40 04	 mov	 eax, DWORD PTR [eax+4]
  0017a	c6 40 0c 01	 mov	 BYTE PTR [eax+12], 1

; 693  :                     _Parent_sibling->_Color          = _Black;

  0017e	8b 45 ec	 mov	 eax, DWORD PTR __Parent_sibling$1[ebp]
  00181	c6 40 0c 01	 mov	 BYTE PTR [eax+12], 1

; 694  :                     _Pnode->_Parent->_Parent->_Color = _Red;

  00185	8b 45 fc	 mov	 eax, DWORD PTR __Pnode$3[ebp]
  00188	8b 40 04	 mov	 eax, DWORD PTR [eax+4]
  0018b	8b 40 04	 mov	 eax, DWORD PTR [eax+4]
  0018e	c6 40 0c 00	 mov	 BYTE PTR [eax+12], 0

; 695  :                     _Pnode                           = _Pnode->_Parent->_Parent;

  00192	8b 45 fc	 mov	 eax, DWORD PTR __Pnode$3[ebp]
  00195	8b 40 04	 mov	 eax, DWORD PTR [eax+4]
  00198	8b 40 04	 mov	 eax, DWORD PTR [eax+4]
  0019b	89 45 fc	 mov	 DWORD PTR __Pnode$3[ebp], eax

; 696  :                 } else { // parent's sibling has red and black children

  0019e	eb 49		 jmp	 SHORT $LN11@Insert_nod
$LN15@Insert_nod:

; 697  :                     if (_Pnode == _Pnode->_Parent->_Left) { // rotate left child to right

  001a0	8b 45 fc	 mov	 eax, DWORD PTR __Pnode$3[ebp]
  001a3	8b 40 04	 mov	 eax, DWORD PTR [eax+4]
  001a6	8b 4d fc	 mov	 ecx, DWORD PTR __Pnode$3[ebp]
  001a9	3b 08		 cmp	 ecx, DWORD PTR [eax]
  001ab	75 14		 jne	 SHORT $LN17@Insert_nod

; 698  :                         _Pnode = _Pnode->_Parent;

  001ad	8b 45 fc	 mov	 eax, DWORD PTR __Pnode$3[ebp]
  001b0	8b 40 04	 mov	 eax, DWORD PTR [eax+4]
  001b3	89 45 fc	 mov	 DWORD PTR __Pnode$3[ebp], eax

; 699  :                         _Rrotate(_Pnode);

  001b6	ff 75 fc	 push	 DWORD PTR __Pnode$3[ebp]
  001b9	8b 4d f4	 mov	 ecx, DWORD PTR _this$[ebp]
  001bc	e8 00 00 00 00	 call	 ?_Rrotate@?$_Tree_val@U?$_Tree_simple_types@U?$pair@$$CBKPAVCLight@@@std@@@std@@@std@@QAEXPAU?$_Tree_node@U?$pair@$$CBKPAVCLight@@@std@@PAX@2@@Z ; std::_Tree_val<std::_Tree_simple_types<std::pair<unsigned long const ,CLight *> > >::_Rrotate
$LN17@Insert_nod:

; 700  :                     }
; 701  : 
; 702  :                     _Pnode->_Parent->_Color          = _Black; // propagate red up

  001c1	8b 45 fc	 mov	 eax, DWORD PTR __Pnode$3[ebp]
  001c4	8b 40 04	 mov	 eax, DWORD PTR [eax+4]
  001c7	c6 40 0c 01	 mov	 BYTE PTR [eax+12], 1

; 703  :                     _Pnode->_Parent->_Parent->_Color = _Red;

  001cb	8b 45 fc	 mov	 eax, DWORD PTR __Pnode$3[ebp]
  001ce	8b 40 04	 mov	 eax, DWORD PTR [eax+4]
  001d1	8b 40 04	 mov	 eax, DWORD PTR [eax+4]
  001d4	c6 40 0c 00	 mov	 BYTE PTR [eax+12], 0

; 704  :                     _Lrotate(_Pnode->_Parent->_Parent);

  001d8	8b 45 fc	 mov	 eax, DWORD PTR __Pnode$3[ebp]
  001db	8b 40 04	 mov	 eax, DWORD PTR [eax+4]
  001de	ff 70 04	 push	 DWORD PTR [eax+4]
  001e1	8b 4d f4	 mov	 ecx, DWORD PTR _this$[ebp]
  001e4	e8 00 00 00 00	 call	 ?_Lrotate@?$_Tree_val@U?$_Tree_simple_types@U?$pair@$$CBKPAVCLight@@@std@@@std@@@std@@QAEXPAU?$_Tree_node@U?$pair@$$CBKPAVCLight@@@std@@PAX@2@@Z ; std::_Tree_val<std::_Tree_simple_types<std::pair<unsigned long const ,CLight *> > >::_Lrotate
$LN11@Insert_nod:

; 705  :                 }
; 706  :             }
; 707  :         }

  001e9	e9 af fe ff ff	 jmp	 $LN4@Insert_nod
$LN3@Insert_nod:

; 708  : 
; 709  :         _Head->_Parent->_Color = _Black; // root is always black

  001ee	8b 45 f8	 mov	 eax, DWORD PTR __Head$[ebp]
  001f1	8b 40 04	 mov	 eax, DWORD PTR [eax+4]
  001f4	c6 40 0c 01	 mov	 BYTE PTR [eax+12], 1

; 710  :         return _Newnode;

  001f8	8b 45 10	 mov	 eax, DWORD PTR __Newnode$[ebp]
$LN18@Insert_nod:

; 711  :     }

  001fb	c9		 leave
  001fc	c2 0c 00	 ret	 12			; 0000000cH
?_Insert_node@?$_Tree_val@U?$_Tree_simple_types@U?$pair@$$CBKPAVCLight@@@std@@@std@@@std@@QAEPAU?$_Tree_node@U?$pair@$$CBKPAVCLight@@@std@@PAX@2@U?$_Tree_id@PAU?$_Tree_node@U?$pair@$$CBKPAVCLight@@@std@@PAX@std@@@2@QAU32@@Z ENDP ; std::_Tree_val<std::_Tree_simple_types<std::pair<unsigned long const ,CLight *> > >::_Insert_node
_TEXT	ENDS
; Function compile flags: /Odspy
; File C:\Program Files (x86)\Microsoft Visual Studio\2019\Community\VC\Tools\MSVC\14.28.29333\include\xtree
; File C:\Program Files (x86)\Microsoft Visual Studio\2019\Community\VC\Tools\MSVC\14.28.29333\include\type_traits
; File C:\Program Files (x86)\Microsoft Visual Studio\2019\Community\VC\Tools\MSVC\14.28.29333\include\utility
; File C:\Program Files (x86)\Microsoft Visual Studio\2019\Community\VC\Tools\MSVC\14.28.29333\include\type_traits
; File C:\Program Files (x86)\Microsoft Visual Studio\2019\Community\VC\Tools\MSVC\14.28.29333\include\utility
; File C:\Program Files (x86)\Microsoft Visual Studio\2019\Community\VC\Tools\MSVC\14.28.29333\include\type_traits
; File C:\Program Files (x86)\Microsoft Visual Studio\2019\Community\VC\Tools\MSVC\14.28.29333\include\utility
; File C:\Program Files (x86)\Microsoft Visual Studio\2019\Community\VC\Tools\MSVC\14.28.29333\include\xtree
;	COMDAT ?_Extract@?$_Tree_val@U?$_Tree_simple_types@U?$pair@$$CBKPAVCLight@@@std@@@std@@@std@@QAEPAU?$_Tree_node@U?$pair@$$CBKPAVCLight@@@std@@PAX@2@V?$_Tree_unchecked_const_iterator@V?$_Tree_val@U?$_Tree_simple_types@U?$pair@$$CBKPAVCLight@@@std@@@std@@@std@@U_Iterator_base0@2@@2@@Z
_TEXT	SEGMENT
$T1 = -68						; size = 4
$T2 = -64						; size = 4
$T3 = -60						; size = 4
$T4 = -56						; size = 4
$T5 = -52						; size = 4
__Right$ = -48						; size = 4
__Left$ = -44						; size = 4
tv144 = -40						; size = 4
tv133 = -36						; size = 4
__Pnode$ = -32						; size = 4
__Pnode$ = -28						; size = 4
_this$ = -24						; size = 4
__Erasednode$ = -20					; size = 4
__Fixnode$ = -16					; size = 4
__Fixnodeparent$ = -12					; size = 4
__Pnode$ = -8						; size = 4
__Tmp$6 = -1						; size = 1
__Where$ = 8						; size = 4
?_Extract@?$_Tree_val@U?$_Tree_simple_types@U?$pair@$$CBKPAVCLight@@@std@@@std@@@std@@QAEPAU?$_Tree_node@U?$pair@$$CBKPAVCLight@@@std@@PAX@2@V?$_Tree_unchecked_const_iterator@V?$_Tree_val@U?$_Tree_simple_types@U?$pair@$$CBKPAVCLight@@@std@@@std@@@std@@U_Iterator_base0@2@@2@@Z PROC ; std::_Tree_val<std::_Tree_simple_types<std::pair<unsigned long const ,CLight *> > >::_Extract, COMDAT
; _this$ = ecx

; 502  :     _Nodeptr _Extract(_Unchecked_const_iterator _Where) noexcept {

  00000	55		 push	 ebp
  00001	8b ec		 mov	 ebp, esp
  00003	83 ec 44	 sub	 esp, 68			; 00000044H
  00006	89 4d e8	 mov	 DWORD PTR _this$[ebp], ecx

; 503  :         _Nodeptr _Erasednode = _Where._Ptr; // node to erase

  00009	8b 45 08	 mov	 eax, DWORD PTR __Where$[ebp]
  0000c	89 45 ec	 mov	 DWORD PTR __Erasednode$[ebp], eax

; 504  :         ++_Where; // save successor iterator for return

  0000f	8d 4d 08	 lea	 ecx, DWORD PTR __Where$[ebp]
  00012	e8 00 00 00 00	 call	 ??E?$_Tree_unchecked_const_iterator@V?$_Tree_val@U?$_Tree_simple_types@U?$pair@$$CBKPAVCLight@@@std@@@std@@@std@@U_Iterator_base0@2@@std@@QAEAAV01@XZ ; std::_Tree_unchecked_const_iterator<std::_Tree_val<std::_Tree_simple_types<std::pair<unsigned long const ,CLight *> > >,std::_Iterator_base0>::operator++

; 505  : 
; 506  :         _Nodeptr _Fixnode; // the node to recolor as needed
; 507  :         _Nodeptr _Fixnodeparent; // parent of _Fixnode (which may be nil)
; 508  :         _Nodeptr _Pnode = _Erasednode;

  00017	8b 45 ec	 mov	 eax, DWORD PTR __Erasednode$[ebp]
  0001a	89 45 f8	 mov	 DWORD PTR __Pnode$[ebp], eax

; 509  : 
; 510  :         if (_Pnode->_Left->_Isnil) {

  0001d	8b 45 f8	 mov	 eax, DWORD PTR __Pnode$[ebp]
  00020	8b 00		 mov	 eax, DWORD PTR [eax]
  00022	0f be 40 0d	 movsx	 eax, BYTE PTR [eax+13]
  00026	85 c0		 test	 eax, eax
  00028	74 0b		 je	 SHORT $LN5@Extract

; 511  :             _Fixnode = _Pnode->_Right; // stitch up right subtree

  0002a	8b 45 f8	 mov	 eax, DWORD PTR __Pnode$[ebp]
  0002d	8b 40 08	 mov	 eax, DWORD PTR [eax+8]
  00030	89 45 f0	 mov	 DWORD PTR __Fixnode$[ebp], eax
  00033	eb 27		 jmp	 SHORT $LN6@Extract
$LN5@Extract:

; 512  :         } else if (_Pnode->_Right->_Isnil) {

  00035	8b 45 f8	 mov	 eax, DWORD PTR __Pnode$[ebp]
  00038	8b 40 08	 mov	 eax, DWORD PTR [eax+8]
  0003b	0f be 40 0d	 movsx	 eax, BYTE PTR [eax+13]
  0003f	85 c0		 test	 eax, eax
  00041	74 0a		 je	 SHORT $LN7@Extract

; 513  :             _Fixnode = _Pnode->_Left; // stitch up left subtree

  00043	8b 45 f8	 mov	 eax, DWORD PTR __Pnode$[ebp]
  00046	8b 00		 mov	 eax, DWORD PTR [eax]
  00048	89 45 f0	 mov	 DWORD PTR __Fixnode$[ebp], eax

; 514  :         } else { // two subtrees, must lift successor node to replace erased

  0004b	eb 0f		 jmp	 SHORT $LN6@Extract
$LN7@Extract:

; 515  :             _Pnode   = _Where._Ptr; // _Pnode is successor node

  0004d	8b 45 08	 mov	 eax, DWORD PTR __Where$[ebp]
  00050	89 45 f8	 mov	 DWORD PTR __Pnode$[ebp], eax

; 516  :             _Fixnode = _Pnode->_Right; // _Fixnode is only subtree

  00053	8b 45 f8	 mov	 eax, DWORD PTR __Pnode$[ebp]
  00056	8b 40 08	 mov	 eax, DWORD PTR [eax+8]
  00059	89 45 f0	 mov	 DWORD PTR __Fixnode$[ebp], eax
$LN6@Extract:

; 517  :         }
; 518  : 
; 519  :         if (_Pnode == _Erasednode) { // at most one subtree, relink it

  0005c	8b 45 f8	 mov	 eax, DWORD PTR __Pnode$[ebp]
  0005f	3b 45 ec	 cmp	 eax, DWORD PTR __Erasednode$[ebp]
  00062	0f 85 01 01 00
	00		 jne	 $LN9@Extract

; 520  :             _Fixnodeparent = _Erasednode->_Parent;

  00068	8b 45 ec	 mov	 eax, DWORD PTR __Erasednode$[ebp]
  0006b	8b 40 04	 mov	 eax, DWORD PTR [eax+4]
  0006e	89 45 f4	 mov	 DWORD PTR __Fixnodeparent$[ebp], eax

; 521  :             if (!_Fixnode->_Isnil) {

  00071	8b 45 f0	 mov	 eax, DWORD PTR __Fixnode$[ebp]
  00074	0f be 40 0d	 movsx	 eax, BYTE PTR [eax+13]
  00078	85 c0		 test	 eax, eax
  0007a	75 09		 jne	 SHORT $LN11@Extract

; 522  :                 _Fixnode->_Parent = _Fixnodeparent; // link up

  0007c	8b 45 f0	 mov	 eax, DWORD PTR __Fixnode$[ebp]
  0007f	8b 4d f4	 mov	 ecx, DWORD PTR __Fixnodeparent$[ebp]
  00082	89 48 04	 mov	 DWORD PTR [eax+4], ecx
$LN11@Extract:

; 523  :             }
; 524  : 
; 525  :             if (_Myhead->_Parent == _Erasednode) {

  00085	8b 45 e8	 mov	 eax, DWORD PTR _this$[ebp]
  00088	8b 00		 mov	 eax, DWORD PTR [eax]
  0008a	8b 40 04	 mov	 eax, DWORD PTR [eax+4]
  0008d	3b 45 ec	 cmp	 eax, DWORD PTR __Erasednode$[ebp]
  00090	75 0d		 jne	 SHORT $LN12@Extract

; 526  :                 _Myhead->_Parent = _Fixnode; // link down from root

  00092	8b 45 e8	 mov	 eax, DWORD PTR _this$[ebp]
  00095	8b 00		 mov	 eax, DWORD PTR [eax]
  00097	8b 4d f0	 mov	 ecx, DWORD PTR __Fixnode$[ebp]
  0009a	89 48 04	 mov	 DWORD PTR [eax+4], ecx
  0009d	eb 1d		 jmp	 SHORT $LN13@Extract
$LN12@Extract:

; 527  :             } else if (_Fixnodeparent->_Left == _Erasednode) {

  0009f	8b 45 f4	 mov	 eax, DWORD PTR __Fixnodeparent$[ebp]
  000a2	8b 00		 mov	 eax, DWORD PTR [eax]
  000a4	3b 45 ec	 cmp	 eax, DWORD PTR __Erasednode$[ebp]
  000a7	75 0a		 jne	 SHORT $LN14@Extract

; 528  :                 _Fixnodeparent->_Left = _Fixnode; // link down to left

  000a9	8b 45 f4	 mov	 eax, DWORD PTR __Fixnodeparent$[ebp]
  000ac	8b 4d f0	 mov	 ecx, DWORD PTR __Fixnode$[ebp]
  000af	89 08		 mov	 DWORD PTR [eax], ecx

; 529  :             } else {

  000b1	eb 09		 jmp	 SHORT $LN13@Extract
$LN14@Extract:

; 530  :                 _Fixnodeparent->_Right = _Fixnode; // link down to right

  000b3	8b 45 f4	 mov	 eax, DWORD PTR __Fixnodeparent$[ebp]
  000b6	8b 4d f0	 mov	 ecx, DWORD PTR __Fixnode$[ebp]
  000b9	89 48 08	 mov	 DWORD PTR [eax+8], ecx
$LN13@Extract:

; 531  :             }
; 532  : 
; 533  :             if (_Myhead->_Left == _Erasednode) {

  000bc	8b 45 e8	 mov	 eax, DWORD PTR _this$[ebp]
  000bf	8b 00		 mov	 eax, DWORD PTR [eax]
  000c1	8b 00		 mov	 eax, DWORD PTR [eax]
  000c3	3b 45 ec	 cmp	 eax, DWORD PTR __Erasednode$[ebp]
  000c6	75 46		 jne	 SHORT $LN16@Extract

; 534  :                 _Myhead->_Left = _Fixnode->_Isnil ? _Fixnodeparent // smallest is parent of erased node

  000c8	8b 45 f0	 mov	 eax, DWORD PTR __Fixnode$[ebp]
  000cb	0f be 40 0d	 movsx	 eax, BYTE PTR [eax+13]
  000cf	85 c0		 test	 eax, eax
  000d1	74 08		 je	 SHORT $LN42@Extract
  000d3	8b 45 f4	 mov	 eax, DWORD PTR __Fixnodeparent$[ebp]
  000d6	89 45 dc	 mov	 DWORD PTR tv133[ebp], eax
  000d9	eb 29		 jmp	 SHORT $LN43@Extract
$LN42@Extract:
  000db	8b 45 f0	 mov	 eax, DWORD PTR __Fixnode$[ebp]
  000de	89 45 e4	 mov	 DWORD PTR __Pnode$[ebp], eax
  000e1	8b 45 c0	 mov	 eax, DWORD PTR $T2[ebp]
  000e4	89 45 dc	 mov	 DWORD PTR tv133[ebp], eax
$LN59@Extract:

; 451  :         while (!_Pnode->_Left->_Isnil) {

  000e7	8b 45 e4	 mov	 eax, DWORD PTR __Pnode$[ebp]
  000ea	8b 00		 mov	 eax, DWORD PTR [eax]
  000ec	0f be 40 0d	 movsx	 eax, BYTE PTR [eax+13]
  000f0	85 c0		 test	 eax, eax
  000f2	75 0a		 jne	 SHORT $LN60@Extract

; 452  :             _Pnode = _Pnode->_Left;

  000f4	8b 45 e4	 mov	 eax, DWORD PTR __Pnode$[ebp]
  000f7	8b 00		 mov	 eax, DWORD PTR [eax]
  000f9	89 45 e4	 mov	 DWORD PTR __Pnode$[ebp], eax

; 453  :         }

  000fc	eb e9		 jmp	 SHORT $LN59@Extract
$LN60@Extract:

; 454  : 
; 455  :         return _Pnode;

  000fe	8b 45 e4	 mov	 eax, DWORD PTR __Pnode$[ebp]
  00101	89 45 dc	 mov	 DWORD PTR tv133[ebp], eax
$LN43@Extract:

; 534  :                 _Myhead->_Left = _Fixnode->_Isnil ? _Fixnodeparent // smallest is parent of erased node

  00104	8b 45 e8	 mov	 eax, DWORD PTR _this$[ebp]
  00107	8b 00		 mov	 eax, DWORD PTR [eax]
  00109	8b 4d dc	 mov	 ecx, DWORD PTR tv133[ebp]
  0010c	89 08		 mov	 DWORD PTR [eax], ecx
$LN16@Extract:

; 535  :                                                   : _Min(_Fixnode); // smallest in relinked subtree
; 536  :             }
; 537  : 
; 538  :             if (_Myhead->_Right == _Erasednode) {

  0010e	8b 45 e8	 mov	 eax, DWORD PTR _this$[ebp]
  00111	8b 00		 mov	 eax, DWORD PTR [eax]
  00113	8b 40 08	 mov	 eax, DWORD PTR [eax+8]
  00116	3b 45 ec	 cmp	 eax, DWORD PTR __Erasednode$[ebp]
  00119	75 49		 jne	 SHORT $LN17@Extract

; 539  :                 _Myhead->_Right = _Fixnode->_Isnil ? _Fixnodeparent // largest is parent of erased node

  0011b	8b 45 f0	 mov	 eax, DWORD PTR __Fixnode$[ebp]
  0011e	0f be 40 0d	 movsx	 eax, BYTE PTR [eax+13]
  00122	85 c0		 test	 eax, eax
  00124	74 08		 je	 SHORT $LN44@Extract
  00126	8b 45 f4	 mov	 eax, DWORD PTR __Fixnodeparent$[ebp]
  00129	89 45 d8	 mov	 DWORD PTR tv144[ebp], eax
  0012c	eb 2b		 jmp	 SHORT $LN45@Extract
$LN44@Extract:
  0012e	8b 45 f0	 mov	 eax, DWORD PTR __Fixnode$[ebp]
  00131	89 45 e0	 mov	 DWORD PTR __Pnode$[ebp], eax
  00134	8b 45 bc	 mov	 eax, DWORD PTR $T1[ebp]
  00137	89 45 d8	 mov	 DWORD PTR tv144[ebp], eax
$LN64@Extract:

; 443  :         while (!_Pnode->_Right->_Isnil) {

  0013a	8b 45 e0	 mov	 eax, DWORD PTR __Pnode$[ebp]
  0013d	8b 40 08	 mov	 eax, DWORD PTR [eax+8]
  00140	0f be 40 0d	 movsx	 eax, BYTE PTR [eax+13]
  00144	85 c0		 test	 eax, eax
  00146	75 0b		 jne	 SHORT $LN65@Extract

; 444  :             _Pnode = _Pnode->_Right;

  00148	8b 45 e0	 mov	 eax, DWORD PTR __Pnode$[ebp]
  0014b	8b 40 08	 mov	 eax, DWORD PTR [eax+8]
  0014e	89 45 e0	 mov	 DWORD PTR __Pnode$[ebp], eax

; 445  :         }

  00151	eb e7		 jmp	 SHORT $LN64@Extract
$LN65@Extract:

; 446  : 
; 447  :         return _Pnode;

  00153	8b 45 e0	 mov	 eax, DWORD PTR __Pnode$[ebp]
  00156	89 45 d8	 mov	 DWORD PTR tv144[ebp], eax
$LN45@Extract:

; 539  :                 _Myhead->_Right = _Fixnode->_Isnil ? _Fixnodeparent // largest is parent of erased node

  00159	8b 45 e8	 mov	 eax, DWORD PTR _this$[ebp]
  0015c	8b 00		 mov	 eax, DWORD PTR [eax]
  0015e	8b 4d d8	 mov	 ecx, DWORD PTR tv144[ebp]
  00161	89 48 08	 mov	 DWORD PTR [eax+8], ecx
$LN17@Extract:

; 540  :                                                    : _Max(_Fixnode); // largest in relinked subtree
; 541  :             }
; 542  :         } else { // erased has two subtrees, _Pnode is successor to erased

  00164	e9 f1 00 00 00	 jmp	 $LN10@Extract
$LN9@Extract:

; 543  :             _Erasednode->_Left->_Parent = _Pnode; // link left up

  00169	8b 45 ec	 mov	 eax, DWORD PTR __Erasednode$[ebp]
  0016c	8b 00		 mov	 eax, DWORD PTR [eax]
  0016e	8b 4d f8	 mov	 ecx, DWORD PTR __Pnode$[ebp]
  00171	89 48 04	 mov	 DWORD PTR [eax+4], ecx

; 544  :             _Pnode->_Left               = _Erasednode->_Left; // link successor down

  00174	8b 45 f8	 mov	 eax, DWORD PTR __Pnode$[ebp]
  00177	8b 4d ec	 mov	 ecx, DWORD PTR __Erasednode$[ebp]
  0017a	8b 09		 mov	 ecx, DWORD PTR [ecx]
  0017c	89 08		 mov	 DWORD PTR [eax], ecx

; 545  : 
; 546  :             if (_Pnode == _Erasednode->_Right) {

  0017e	8b 45 ec	 mov	 eax, DWORD PTR __Erasednode$[ebp]
  00181	8b 4d f8	 mov	 ecx, DWORD PTR __Pnode$[ebp]
  00184	3b 48 08	 cmp	 ecx, DWORD PTR [eax+8]
  00187	75 08		 jne	 SHORT $LN18@Extract

; 547  :                 _Fixnodeparent = _Pnode; // successor is next to erased

  00189	8b 45 f8	 mov	 eax, DWORD PTR __Pnode$[ebp]
  0018c	89 45 f4	 mov	 DWORD PTR __Fixnodeparent$[ebp], eax

; 548  :             } else { // successor further down, link in place of erased

  0018f	eb 3d		 jmp	 SHORT $LN19@Extract
$LN18@Extract:

; 549  :                 _Fixnodeparent = _Pnode->_Parent; // parent is successor's

  00191	8b 45 f8	 mov	 eax, DWORD PTR __Pnode$[ebp]
  00194	8b 40 04	 mov	 eax, DWORD PTR [eax+4]
  00197	89 45 f4	 mov	 DWORD PTR __Fixnodeparent$[ebp], eax

; 550  :                 if (!_Fixnode->_Isnil) {

  0019a	8b 45 f0	 mov	 eax, DWORD PTR __Fixnode$[ebp]
  0019d	0f be 40 0d	 movsx	 eax, BYTE PTR [eax+13]
  001a1	85 c0		 test	 eax, eax
  001a3	75 09		 jne	 SHORT $LN20@Extract

; 551  :                     _Fixnode->_Parent = _Fixnodeparent; // link fix up

  001a5	8b 45 f0	 mov	 eax, DWORD PTR __Fixnode$[ebp]
  001a8	8b 4d f4	 mov	 ecx, DWORD PTR __Fixnodeparent$[ebp]
  001ab	89 48 04	 mov	 DWORD PTR [eax+4], ecx
$LN20@Extract:

; 552  :                 }
; 553  : 
; 554  :                 _Fixnodeparent->_Left        = _Fixnode; // link fix down

  001ae	8b 45 f4	 mov	 eax, DWORD PTR __Fixnodeparent$[ebp]
  001b1	8b 4d f0	 mov	 ecx, DWORD PTR __Fixnode$[ebp]
  001b4	89 08		 mov	 DWORD PTR [eax], ecx

; 555  :                 _Pnode->_Right               = _Erasednode->_Right; // link next down

  001b6	8b 45 f8	 mov	 eax, DWORD PTR __Pnode$[ebp]
  001b9	8b 4d ec	 mov	 ecx, DWORD PTR __Erasednode$[ebp]
  001bc	8b 49 08	 mov	 ecx, DWORD PTR [ecx+8]
  001bf	89 48 08	 mov	 DWORD PTR [eax+8], ecx

; 556  :                 _Erasednode->_Right->_Parent = _Pnode; // right up

  001c2	8b 45 ec	 mov	 eax, DWORD PTR __Erasednode$[ebp]
  001c5	8b 40 08	 mov	 eax, DWORD PTR [eax+8]
  001c8	8b 4d f8	 mov	 ecx, DWORD PTR __Pnode$[ebp]
  001cb	89 48 04	 mov	 DWORD PTR [eax+4], ecx
$LN19@Extract:

; 557  :             }
; 558  : 
; 559  :             if (_Myhead->_Parent == _Erasednode) {

  001ce	8b 45 e8	 mov	 eax, DWORD PTR _this$[ebp]
  001d1	8b 00		 mov	 eax, DWORD PTR [eax]
  001d3	8b 40 04	 mov	 eax, DWORD PTR [eax+4]
  001d6	3b 45 ec	 cmp	 eax, DWORD PTR __Erasednode$[ebp]
  001d9	75 0d		 jne	 SHORT $LN21@Extract

; 560  :                 _Myhead->_Parent = _Pnode; // link down from root

  001db	8b 45 e8	 mov	 eax, DWORD PTR _this$[ebp]
  001de	8b 00		 mov	 eax, DWORD PTR [eax]
  001e0	8b 4d f8	 mov	 ecx, DWORD PTR __Pnode$[ebp]
  001e3	89 48 04	 mov	 DWORD PTR [eax+4], ecx
  001e6	eb 26		 jmp	 SHORT $LN22@Extract
$LN21@Extract:

; 561  :             } else if (_Erasednode->_Parent->_Left == _Erasednode) {

  001e8	8b 45 ec	 mov	 eax, DWORD PTR __Erasednode$[ebp]
  001eb	8b 40 04	 mov	 eax, DWORD PTR [eax+4]
  001ee	8b 00		 mov	 eax, DWORD PTR [eax]
  001f0	3b 45 ec	 cmp	 eax, DWORD PTR __Erasednode$[ebp]
  001f3	75 0d		 jne	 SHORT $LN23@Extract

; 562  :                 _Erasednode->_Parent->_Left = _Pnode; // link down to left

  001f5	8b 45 ec	 mov	 eax, DWORD PTR __Erasednode$[ebp]
  001f8	8b 40 04	 mov	 eax, DWORD PTR [eax+4]
  001fb	8b 4d f8	 mov	 ecx, DWORD PTR __Pnode$[ebp]
  001fe	89 08		 mov	 DWORD PTR [eax], ecx

; 563  :             } else {

  00200	eb 0c		 jmp	 SHORT $LN22@Extract
$LN23@Extract:

; 564  :                 _Erasednode->_Parent->_Right = _Pnode; // link down to right

  00202	8b 45 ec	 mov	 eax, DWORD PTR __Erasednode$[ebp]
  00205	8b 40 04	 mov	 eax, DWORD PTR [eax+4]
  00208	8b 4d f8	 mov	 ecx, DWORD PTR __Pnode$[ebp]
  0020b	89 48 08	 mov	 DWORD PTR [eax+8], ecx
$LN22@Extract:

; 565  :             }
; 566  : 
; 567  :             _Pnode->_Parent = _Erasednode->_Parent; // link successor up

  0020e	8b 45 f8	 mov	 eax, DWORD PTR __Pnode$[ebp]
  00211	8b 4d ec	 mov	 ecx, DWORD PTR __Erasednode$[ebp]
  00214	8b 49 04	 mov	 ecx, DWORD PTR [ecx+4]
  00217	89 48 04	 mov	 DWORD PTR [eax+4], ecx

; 568  :             _STD swap(_Pnode->_Color, _Erasednode->_Color); // recolor it

  0021a	8b 45 ec	 mov	 eax, DWORD PTR __Erasednode$[ebp]
  0021d	83 c0 0c	 add	 eax, 12			; 0000000cH
  00220	89 45 d0	 mov	 DWORD PTR __Right$[ebp], eax
  00223	8b 45 f8	 mov	 eax, DWORD PTR __Pnode$[ebp]
  00226	83 c0 0c	 add	 eax, 12			; 0000000cH
  00229	89 45 d4	 mov	 DWORD PTR __Left$[ebp], eax
; File C:\Program Files (x86)\Microsoft Visual Studio\2019\Community\VC\Tools\MSVC\14.28.29333\include\type_traits

; 1455 :     return static_cast<remove_reference_t<_Ty>&&>(_Arg);

  0022c	8b 45 d4	 mov	 eax, DWORD PTR __Left$[ebp]
  0022f	89 45 cc	 mov	 DWORD PTR $T5[ebp], eax
; File C:\Program Files (x86)\Microsoft Visual Studio\2019\Community\VC\Tools\MSVC\14.28.29333\include\utility

; 104  :     _Ty _Tmp = _STD move(_Left);

  00232	8b 45 cc	 mov	 eax, DWORD PTR $T5[ebp]
  00235	8a 00		 mov	 al, BYTE PTR [eax]
  00237	88 45 ff	 mov	 BYTE PTR __Tmp$6[ebp], al
; File C:\Program Files (x86)\Microsoft Visual Studio\2019\Community\VC\Tools\MSVC\14.28.29333\include\type_traits

; 1455 :     return static_cast<remove_reference_t<_Ty>&&>(_Arg);

  0023a	8b 45 d0	 mov	 eax, DWORD PTR __Right$[ebp]
  0023d	89 45 c8	 mov	 DWORD PTR $T4[ebp], eax
; File C:\Program Files (x86)\Microsoft Visual Studio\2019\Community\VC\Tools\MSVC\14.28.29333\include\utility

; 105  :     _Left    = _STD move(_Right);

  00240	8b 45 d4	 mov	 eax, DWORD PTR __Left$[ebp]
  00243	8b 4d c8	 mov	 ecx, DWORD PTR $T4[ebp]
  00246	8a 09		 mov	 cl, BYTE PTR [ecx]
  00248	88 08		 mov	 BYTE PTR [eax], cl
; File C:\Program Files (x86)\Microsoft Visual Studio\2019\Community\VC\Tools\MSVC\14.28.29333\include\type_traits

; 1455 :     return static_cast<remove_reference_t<_Ty>&&>(_Arg);

  0024a	8d 45 ff	 lea	 eax, DWORD PTR __Tmp$6[ebp]
  0024d	89 45 c4	 mov	 DWORD PTR $T3[ebp], eax
; File C:\Program Files (x86)\Microsoft Visual Studio\2019\Community\VC\Tools\MSVC\14.28.29333\include\utility

; 106  :     _Right   = _STD move(_Tmp);

  00250	8b 45 d0	 mov	 eax, DWORD PTR __Right$[ebp]
  00253	8b 4d c4	 mov	 ecx, DWORD PTR $T3[ebp]
  00256	8a 09		 mov	 cl, BYTE PTR [ecx]
  00258	88 08		 mov	 BYTE PTR [eax], cl
$LN10@Extract:
; File C:\Program Files (x86)\Microsoft Visual Studio\2019\Community\VC\Tools\MSVC\14.28.29333\include\xtree

; 571  :         if (_Erasednode->_Color == _Black) { // erasing black link, must recolor/rebalance tree

  0025a	8b 45 ec	 mov	 eax, DWORD PTR __Erasednode$[ebp]
  0025d	0f be 40 0c	 movsx	 eax, BYTE PTR [eax+12]
  00261	83 f8 01	 cmp	 eax, 1
  00264	0f 85 f4 01 00
	00		 jne	 $LN25@Extract

; 572  :             for (; _Fixnode != _Myhead->_Parent && _Fixnode->_Color == _Black; _Fixnodeparent = _Fixnode->_Parent) {

  0026a	eb 09		 jmp	 SHORT $LN4@Extract
$LN2@Extract:
  0026c	8b 45 f0	 mov	 eax, DWORD PTR __Fixnode$[ebp]
  0026f	8b 40 04	 mov	 eax, DWORD PTR [eax+4]
  00272	89 45 f4	 mov	 DWORD PTR __Fixnodeparent$[ebp], eax
$LN4@Extract:
  00275	8b 45 e8	 mov	 eax, DWORD PTR _this$[ebp]
  00278	8b 00		 mov	 eax, DWORD PTR [eax]
  0027a	8b 4d f0	 mov	 ecx, DWORD PTR __Fixnode$[ebp]
  0027d	3b 48 04	 cmp	 ecx, DWORD PTR [eax+4]
  00280	0f 84 d1 01 00
	00		 je	 $LN3@Extract
  00286	8b 45 f0	 mov	 eax, DWORD PTR __Fixnode$[ebp]
  00289	0f be 40 0c	 movsx	 eax, BYTE PTR [eax+12]
  0028d	83 f8 01	 cmp	 eax, 1
  00290	0f 85 c1 01 00
	00		 jne	 $LN3@Extract

; 573  :                 if (_Fixnode == _Fixnodeparent->_Left) { // fixup left subtree

  00296	8b 45 f4	 mov	 eax, DWORD PTR __Fixnodeparent$[ebp]
  00299	8b 4d f0	 mov	 ecx, DWORD PTR __Fixnode$[ebp]
  0029c	3b 08		 cmp	 ecx, DWORD PTR [eax]
  0029e	0f 85 dd 00 00
	00		 jne	 $LN26@Extract

; 574  :                     _Pnode = _Fixnodeparent->_Right;

  002a4	8b 45 f4	 mov	 eax, DWORD PTR __Fixnodeparent$[ebp]
  002a7	8b 40 08	 mov	 eax, DWORD PTR [eax+8]
  002aa	89 45 f8	 mov	 DWORD PTR __Pnode$[ebp], eax

; 575  :                     if (_Pnode->_Color == _Red) { // rotate red up from right subtree

  002ad	8b 45 f8	 mov	 eax, DWORD PTR __Pnode$[ebp]
  002b0	0f be 40 0c	 movsx	 eax, BYTE PTR [eax+12]
  002b4	85 c0		 test	 eax, eax
  002b6	75 22		 jne	 SHORT $LN28@Extract

; 576  :                         _Pnode->_Color         = _Black;

  002b8	8b 45 f8	 mov	 eax, DWORD PTR __Pnode$[ebp]
  002bb	c6 40 0c 01	 mov	 BYTE PTR [eax+12], 1

; 577  :                         _Fixnodeparent->_Color = _Red;

  002bf	8b 45 f4	 mov	 eax, DWORD PTR __Fixnodeparent$[ebp]
  002c2	c6 40 0c 00	 mov	 BYTE PTR [eax+12], 0

; 578  :                         _Lrotate(_Fixnodeparent);

  002c6	ff 75 f4	 push	 DWORD PTR __Fixnodeparent$[ebp]
  002c9	8b 4d e8	 mov	 ecx, DWORD PTR _this$[ebp]
  002cc	e8 00 00 00 00	 call	 ?_Lrotate@?$_Tree_val@U?$_Tree_simple_types@U?$pair@$$CBKPAVCLight@@@std@@@std@@@std@@QAEXPAU?$_Tree_node@U?$pair@$$CBKPAVCLight@@@std@@PAX@2@@Z ; std::_Tree_val<std::_Tree_simple_types<std::pair<unsigned long const ,CLight *> > >::_Lrotate

; 579  :                         _Pnode = _Fixnodeparent->_Right;

  002d1	8b 45 f4	 mov	 eax, DWORD PTR __Fixnodeparent$[ebp]
  002d4	8b 40 08	 mov	 eax, DWORD PTR [eax+8]
  002d7	89 45 f8	 mov	 DWORD PTR __Pnode$[ebp], eax
$LN28@Extract:

; 580  :                     }
; 581  : 
; 582  :                     if (_Pnode->_Isnil) {

  002da	8b 45 f8	 mov	 eax, DWORD PTR __Pnode$[ebp]
  002dd	0f be 40 0d	 movsx	 eax, BYTE PTR [eax+13]
  002e1	85 c0		 test	 eax, eax
  002e3	74 0b		 je	 SHORT $LN29@Extract

; 583  :                         _Fixnode = _Fixnodeparent; // shouldn't happen

  002e5	8b 45 f4	 mov	 eax, DWORD PTR __Fixnodeparent$[ebp]
  002e8	89 45 f0	 mov	 DWORD PTR __Fixnode$[ebp], eax

; 584  :                     } else if (_Pnode->_Left->_Color == _Black

  002eb	e9 8c 00 00 00	 jmp	 $LN30@Extract
$LN29@Extract:

; 585  :                                && _Pnode->_Right->_Color == _Black) { // redden right subtree with black children

  002f0	8b 45 f8	 mov	 eax, DWORD PTR __Pnode$[ebp]
  002f3	8b 00		 mov	 eax, DWORD PTR [eax]
  002f5	0f be 40 0c	 movsx	 eax, BYTE PTR [eax+12]
  002f9	83 f8 01	 cmp	 eax, 1
  002fc	75 1e		 jne	 SHORT $LN31@Extract
  002fe	8b 45 f8	 mov	 eax, DWORD PTR __Pnode$[ebp]
  00301	8b 40 08	 mov	 eax, DWORD PTR [eax+8]
  00304	0f be 40 0c	 movsx	 eax, BYTE PTR [eax+12]
  00308	83 f8 01	 cmp	 eax, 1
  0030b	75 0f		 jne	 SHORT $LN31@Extract

; 586  :                         _Pnode->_Color = _Red;

  0030d	8b 45 f8	 mov	 eax, DWORD PTR __Pnode$[ebp]
  00310	c6 40 0c 00	 mov	 BYTE PTR [eax+12], 0

; 587  :                         _Fixnode       = _Fixnodeparent;

  00314	8b 45 f4	 mov	 eax, DWORD PTR __Fixnodeparent$[ebp]
  00317	89 45 f0	 mov	 DWORD PTR __Fixnode$[ebp], eax

; 588  :                     } else { // must rearrange right subtree

  0031a	eb 60		 jmp	 SHORT $LN30@Extract
$LN31@Extract:

; 589  :                         if (_Pnode->_Right->_Color == _Black) { // rotate red up from left sub-subtree

  0031c	8b 45 f8	 mov	 eax, DWORD PTR __Pnode$[ebp]
  0031f	8b 40 08	 mov	 eax, DWORD PTR [eax+8]
  00322	0f be 40 0c	 movsx	 eax, BYTE PTR [eax+12]
  00326	83 f8 01	 cmp	 eax, 1
  00329	75 24		 jne	 SHORT $LN33@Extract

; 590  :                             _Pnode->_Left->_Color = _Black;

  0032b	8b 45 f8	 mov	 eax, DWORD PTR __Pnode$[ebp]
  0032e	8b 00		 mov	 eax, DWORD PTR [eax]
  00330	c6 40 0c 01	 mov	 BYTE PTR [eax+12], 1

; 591  :                             _Pnode->_Color        = _Red;

  00334	8b 45 f8	 mov	 eax, DWORD PTR __Pnode$[ebp]
  00337	c6 40 0c 00	 mov	 BYTE PTR [eax+12], 0

; 592  :                             _Rrotate(_Pnode);

  0033b	ff 75 f8	 push	 DWORD PTR __Pnode$[ebp]
  0033e	8b 4d e8	 mov	 ecx, DWORD PTR _this$[ebp]
  00341	e8 00 00 00 00	 call	 ?_Rrotate@?$_Tree_val@U?$_Tree_simple_types@U?$pair@$$CBKPAVCLight@@@std@@@std@@@std@@QAEXPAU?$_Tree_node@U?$pair@$$CBKPAVCLight@@@std@@PAX@2@@Z ; std::_Tree_val<std::_Tree_simple_types<std::pair<unsigned long const ,CLight *> > >::_Rrotate

; 593  :                             _Pnode = _Fixnodeparent->_Right;

  00346	8b 45 f4	 mov	 eax, DWORD PTR __Fixnodeparent$[ebp]
  00349	8b 40 08	 mov	 eax, DWORD PTR [eax+8]
  0034c	89 45 f8	 mov	 DWORD PTR __Pnode$[ebp], eax
$LN33@Extract:

; 594  :                         }
; 595  : 
; 596  :                         _Pnode->_Color         = _Fixnodeparent->_Color;

  0034f	8b 45 f8	 mov	 eax, DWORD PTR __Pnode$[ebp]
  00352	8b 4d f4	 mov	 ecx, DWORD PTR __Fixnodeparent$[ebp]
  00355	8a 49 0c	 mov	 cl, BYTE PTR [ecx+12]
  00358	88 48 0c	 mov	 BYTE PTR [eax+12], cl

; 597  :                         _Fixnodeparent->_Color = _Black;

  0035b	8b 45 f4	 mov	 eax, DWORD PTR __Fixnodeparent$[ebp]
  0035e	c6 40 0c 01	 mov	 BYTE PTR [eax+12], 1

; 598  :                         _Pnode->_Right->_Color = _Black;

  00362	8b 45 f8	 mov	 eax, DWORD PTR __Pnode$[ebp]
  00365	8b 40 08	 mov	 eax, DWORD PTR [eax+8]
  00368	c6 40 0c 01	 mov	 BYTE PTR [eax+12], 1

; 599  :                         _Lrotate(_Fixnodeparent);

  0036c	ff 75 f4	 push	 DWORD PTR __Fixnodeparent$[ebp]
  0036f	8b 4d e8	 mov	 ecx, DWORD PTR _this$[ebp]
  00372	e8 00 00 00 00	 call	 ?_Lrotate@?$_Tree_val@U?$_Tree_simple_types@U?$pair@$$CBKPAVCLight@@@std@@@std@@@std@@QAEXPAU?$_Tree_node@U?$pair@$$CBKPAVCLight@@@std@@PAX@2@@Z ; std::_Tree_val<std::_Tree_simple_types<std::pair<unsigned long const ,CLight *> > >::_Lrotate

; 600  :                         break; // tree now recolored/rebalanced

  00377	e9 db 00 00 00	 jmp	 $LN3@Extract
$LN30@Extract:

; 601  :                     }
; 602  :                 } else { // fixup right subtree

  0037c	e9 d1 00 00 00	 jmp	 $LN27@Extract
$LN26@Extract:

; 603  :                     _Pnode = _Fixnodeparent->_Left;

  00381	8b 45 f4	 mov	 eax, DWORD PTR __Fixnodeparent$[ebp]
  00384	8b 00		 mov	 eax, DWORD PTR [eax]
  00386	89 45 f8	 mov	 DWORD PTR __Pnode$[ebp], eax

; 604  :                     if (_Pnode->_Color == _Red) { // rotate red up from left subtree

  00389	8b 45 f8	 mov	 eax, DWORD PTR __Pnode$[ebp]
  0038c	0f be 40 0c	 movsx	 eax, BYTE PTR [eax+12]
  00390	85 c0		 test	 eax, eax
  00392	75 21		 jne	 SHORT $LN34@Extract

; 605  :                         _Pnode->_Color         = _Black;

  00394	8b 45 f8	 mov	 eax, DWORD PTR __Pnode$[ebp]
  00397	c6 40 0c 01	 mov	 BYTE PTR [eax+12], 1

; 606  :                         _Fixnodeparent->_Color = _Red;

  0039b	8b 45 f4	 mov	 eax, DWORD PTR __Fixnodeparent$[ebp]
  0039e	c6 40 0c 00	 mov	 BYTE PTR [eax+12], 0

; 607  :                         _Rrotate(_Fixnodeparent);

  003a2	ff 75 f4	 push	 DWORD PTR __Fixnodeparent$[ebp]
  003a5	8b 4d e8	 mov	 ecx, DWORD PTR _this$[ebp]
  003a8	e8 00 00 00 00	 call	 ?_Rrotate@?$_Tree_val@U?$_Tree_simple_types@U?$pair@$$CBKPAVCLight@@@std@@@std@@@std@@QAEXPAU?$_Tree_node@U?$pair@$$CBKPAVCLight@@@std@@PAX@2@@Z ; std::_Tree_val<std::_Tree_simple_types<std::pair<unsigned long const ,CLight *> > >::_Rrotate

; 608  :                         _Pnode = _Fixnodeparent->_Left;

  003ad	8b 45 f4	 mov	 eax, DWORD PTR __Fixnodeparent$[ebp]
  003b0	8b 00		 mov	 eax, DWORD PTR [eax]
  003b2	89 45 f8	 mov	 DWORD PTR __Pnode$[ebp], eax
$LN34@Extract:

; 609  :                     }
; 610  : 
; 611  :                     if (_Pnode->_Isnil) {

  003b5	8b 45 f8	 mov	 eax, DWORD PTR __Pnode$[ebp]
  003b8	0f be 40 0d	 movsx	 eax, BYTE PTR [eax+13]
  003bc	85 c0		 test	 eax, eax
  003be	74 0b		 je	 SHORT $LN35@Extract

; 612  :                         _Fixnode = _Fixnodeparent; // shouldn't happen

  003c0	8b 45 f4	 mov	 eax, DWORD PTR __Fixnodeparent$[ebp]
  003c3	89 45 f0	 mov	 DWORD PTR __Fixnode$[ebp], eax

; 613  :                     } else if (_Pnode->_Right->_Color == _Black

  003c6	e9 87 00 00 00	 jmp	 $LN27@Extract
$LN35@Extract:

; 614  :                                && _Pnode->_Left->_Color == _Black) { // redden left subtree with black children

  003cb	8b 45 f8	 mov	 eax, DWORD PTR __Pnode$[ebp]
  003ce	8b 40 08	 mov	 eax, DWORD PTR [eax+8]
  003d1	0f be 40 0c	 movsx	 eax, BYTE PTR [eax+12]
  003d5	83 f8 01	 cmp	 eax, 1
  003d8	75 1d		 jne	 SHORT $LN37@Extract
  003da	8b 45 f8	 mov	 eax, DWORD PTR __Pnode$[ebp]
  003dd	8b 00		 mov	 eax, DWORD PTR [eax]
  003df	0f be 40 0c	 movsx	 eax, BYTE PTR [eax+12]
  003e3	83 f8 01	 cmp	 eax, 1
  003e6	75 0f		 jne	 SHORT $LN37@Extract

; 615  :                         _Pnode->_Color = _Red;

  003e8	8b 45 f8	 mov	 eax, DWORD PTR __Pnode$[ebp]
  003eb	c6 40 0c 00	 mov	 BYTE PTR [eax+12], 0

; 616  :                         _Fixnode       = _Fixnodeparent;

  003ef	8b 45 f4	 mov	 eax, DWORD PTR __Fixnodeparent$[ebp]
  003f2	89 45 f0	 mov	 DWORD PTR __Fixnode$[ebp], eax

; 617  :                     } else { // must rearrange left subtree

  003f5	eb 5b		 jmp	 SHORT $LN27@Extract
$LN37@Extract:

; 618  :                         if (_Pnode->_Left->_Color == _Black) { // rotate red up from right sub-subtree

  003f7	8b 45 f8	 mov	 eax, DWORD PTR __Pnode$[ebp]
  003fa	8b 00		 mov	 eax, DWORD PTR [eax]
  003fc	0f be 40 0c	 movsx	 eax, BYTE PTR [eax+12]
  00400	83 f8 01	 cmp	 eax, 1
  00403	75 24		 jne	 SHORT $LN39@Extract

; 619  :                             _Pnode->_Right->_Color = _Black;

  00405	8b 45 f8	 mov	 eax, DWORD PTR __Pnode$[ebp]
  00408	8b 40 08	 mov	 eax, DWORD PTR [eax+8]
  0040b	c6 40 0c 01	 mov	 BYTE PTR [eax+12], 1

; 620  :                             _Pnode->_Color         = _Red;

  0040f	8b 45 f8	 mov	 eax, DWORD PTR __Pnode$[ebp]
  00412	c6 40 0c 00	 mov	 BYTE PTR [eax+12], 0

; 621  :                             _Lrotate(_Pnode);

  00416	ff 75 f8	 push	 DWORD PTR __Pnode$[ebp]
  00419	8b 4d e8	 mov	 ecx, DWORD PTR _this$[ebp]
  0041c	e8 00 00 00 00	 call	 ?_Lrotate@?$_Tree_val@U?$_Tree_simple_types@U?$pair@$$CBKPAVCLight@@@std@@@std@@@std@@QAEXPAU?$_Tree_node@U?$pair@$$CBKPAVCLight@@@std@@PAX@2@@Z ; std::_Tree_val<std::_Tree_simple_types<std::pair<unsigned long const ,CLight *> > >::_Lrotate

; 622  :                             _Pnode = _Fixnodeparent->_Left;

  00421	8b 45 f4	 mov	 eax, DWORD PTR __Fixnodeparent$[ebp]
  00424	8b 00		 mov	 eax, DWORD PTR [eax]
  00426	89 45 f8	 mov	 DWORD PTR __Pnode$[ebp], eax
$LN39@Extract:

; 623  :                         }
; 624  : 
; 625  :                         _Pnode->_Color         = _Fixnodeparent->_Color;

  00429	8b 45 f8	 mov	 eax, DWORD PTR __Pnode$[ebp]
  0042c	8b 4d f4	 mov	 ecx, DWORD PTR __Fixnodeparent$[ebp]
  0042f	8a 49 0c	 mov	 cl, BYTE PTR [ecx+12]
  00432	88 48 0c	 mov	 BYTE PTR [eax+12], cl

; 626  :                         _Fixnodeparent->_Color = _Black;

  00435	8b 45 f4	 mov	 eax, DWORD PTR __Fixnodeparent$[ebp]
  00438	c6 40 0c 01	 mov	 BYTE PTR [eax+12], 1

; 627  :                         _Pnode->_Left->_Color  = _Black;

  0043c	8b 45 f8	 mov	 eax, DWORD PTR __Pnode$[ebp]
  0043f	8b 00		 mov	 eax, DWORD PTR [eax]
  00441	c6 40 0c 01	 mov	 BYTE PTR [eax+12], 1

; 628  :                         _Rrotate(_Fixnodeparent);

  00445	ff 75 f4	 push	 DWORD PTR __Fixnodeparent$[ebp]
  00448	8b 4d e8	 mov	 ecx, DWORD PTR _this$[ebp]
  0044b	e8 00 00 00 00	 call	 ?_Rrotate@?$_Tree_val@U?$_Tree_simple_types@U?$pair@$$CBKPAVCLight@@@std@@@std@@@std@@QAEXPAU?$_Tree_node@U?$pair@$$CBKPAVCLight@@@std@@PAX@2@@Z ; std::_Tree_val<std::_Tree_simple_types<std::pair<unsigned long const ,CLight *> > >::_Rrotate

; 629  :                         break; // tree now recolored/rebalanced

  00450	eb 05		 jmp	 SHORT $LN3@Extract
$LN27@Extract:

; 630  :                     }
; 631  :                 }
; 632  :             }

  00452	e9 15 fe ff ff	 jmp	 $LN2@Extract
$LN3@Extract:

; 633  : 
; 634  :             _Fixnode->_Color = _Black; // stopping node is black

  00457	8b 45 f0	 mov	 eax, DWORD PTR __Fixnode$[ebp]
  0045a	c6 40 0c 01	 mov	 BYTE PTR [eax+12], 1
$LN25@Extract:

; 635  :         }
; 636  : 
; 637  :         if (0 < _Mysize) {

  0045e	8b 45 e8	 mov	 eax, DWORD PTR _this$[ebp]
  00461	83 78 04 00	 cmp	 DWORD PTR [eax+4], 0
  00465	76 0d		 jbe	 SHORT $LN40@Extract

; 638  :             --_Mysize;

  00467	8b 45 e8	 mov	 eax, DWORD PTR _this$[ebp]
  0046a	8b 40 04	 mov	 eax, DWORD PTR [eax+4]
  0046d	48		 dec	 eax
  0046e	8b 4d e8	 mov	 ecx, DWORD PTR _this$[ebp]
  00471	89 41 04	 mov	 DWORD PTR [ecx+4], eax
$LN40@Extract:

; 639  :         }
; 640  : 
; 641  :         return _Erasednode;

  00474	8b 45 ec	 mov	 eax, DWORD PTR __Erasednode$[ebp]

; 642  :     }

  00477	c9		 leave
  00478	c2 04 00	 ret	 4
?_Extract@?$_Tree_val@U?$_Tree_simple_types@U?$pair@$$CBKPAVCLight@@@std@@@std@@@std@@QAEPAU?$_Tree_node@U?$pair@$$CBKPAVCLight@@@std@@PAX@2@V?$_Tree_unchecked_const_iterator@V?$_Tree_val@U?$_Tree_simple_types@U?$pair@$$CBKPAVCLight@@@std@@@std@@@std@@U_Iterator_base0@2@@2@@Z ENDP ; std::_Tree_val<std::_Tree_simple_types<std::pair<unsigned long const ,CLight *> > >::_Extract
_TEXT	ENDS
; Function compile flags: /Odspy
; File C:\Program Files (x86)\Microsoft Visual Studio\2019\Community\VC\Tools\MSVC\14.28.29333\include\xtree
;	COMDAT ?_Rrotate@?$_Tree_val@U?$_Tree_simple_types@U?$pair@$$CBKPAVCLight@@@std@@@std@@@std@@QAEXPAU?$_Tree_node@U?$pair@$$CBKPAVCLight@@@std@@PAX@2@@Z
_TEXT	SEGMENT
_this$ = -8						; size = 4
__Pnode$ = -4						; size = 4
__Wherenode$ = 8					; size = 4
?_Rrotate@?$_Tree_val@U?$_Tree_simple_types@U?$pair@$$CBKPAVCLight@@@std@@@std@@@std@@QAEXPAU?$_Tree_node@U?$pair@$$CBKPAVCLight@@@std@@PAX@2@@Z PROC ; std::_Tree_val<std::_Tree_simple_types<std::pair<unsigned long const ,CLight *> > >::_Rrotate, COMDAT
; _this$ = ecx

; 480  :     void _Rrotate(_Nodeptr _Wherenode) noexcept { // promote left node to root of subtree

  00000	55		 push	 ebp
  00001	8b ec		 mov	 ebp, esp
  00003	51		 push	 ecx
  00004	51		 push	 ecx
  00005	89 4d f8	 mov	 DWORD PTR _this$[ebp], ecx

; 481  :         _Nodeptr _Pnode   = _Wherenode->_Left;

  00008	8b 45 08	 mov	 eax, DWORD PTR __Wherenode$[ebp]
  0000b	8b 00		 mov	 eax, DWORD PTR [eax]
  0000d	89 45 fc	 mov	 DWORD PTR __Pnode$[ebp], eax

; 482  :         _Wherenode->_Left = _Pnode->_Right;

  00010	8b 45 08	 mov	 eax, DWORD PTR __Wherenode$[ebp]
  00013	8b 4d fc	 mov	 ecx, DWORD PTR __Pnode$[ebp]
  00016	8b 49 08	 mov	 ecx, DWORD PTR [ecx+8]
  00019	89 08		 mov	 DWORD PTR [eax], ecx

; 483  : 
; 484  :         if (!_Pnode->_Right->_Isnil) {

  0001b	8b 45 fc	 mov	 eax, DWORD PTR __Pnode$[ebp]
  0001e	8b 40 08	 mov	 eax, DWORD PTR [eax+8]
  00021	0f be 40 0d	 movsx	 eax, BYTE PTR [eax+13]
  00025	85 c0		 test	 eax, eax
  00027	75 0c		 jne	 SHORT $LN2@Rrotate

; 485  :             _Pnode->_Right->_Parent = _Wherenode;

  00029	8b 45 fc	 mov	 eax, DWORD PTR __Pnode$[ebp]
  0002c	8b 40 08	 mov	 eax, DWORD PTR [eax+8]
  0002f	8b 4d 08	 mov	 ecx, DWORD PTR __Wherenode$[ebp]
  00032	89 48 04	 mov	 DWORD PTR [eax+4], ecx
$LN2@Rrotate:

; 486  :         }
; 487  : 
; 488  :         _Pnode->_Parent = _Wherenode->_Parent;

  00035	8b 45 fc	 mov	 eax, DWORD PTR __Pnode$[ebp]
  00038	8b 4d 08	 mov	 ecx, DWORD PTR __Wherenode$[ebp]
  0003b	8b 49 04	 mov	 ecx, DWORD PTR [ecx+4]
  0003e	89 48 04	 mov	 DWORD PTR [eax+4], ecx

; 489  : 
; 490  :         if (_Wherenode == _Myhead->_Parent) {

  00041	8b 45 f8	 mov	 eax, DWORD PTR _this$[ebp]
  00044	8b 00		 mov	 eax, DWORD PTR [eax]
  00046	8b 4d 08	 mov	 ecx, DWORD PTR __Wherenode$[ebp]
  00049	3b 48 04	 cmp	 ecx, DWORD PTR [eax+4]
  0004c	75 0d		 jne	 SHORT $LN3@Rrotate

; 491  :             _Myhead->_Parent = _Pnode;

  0004e	8b 45 f8	 mov	 eax, DWORD PTR _this$[ebp]
  00051	8b 00		 mov	 eax, DWORD PTR [eax]
  00053	8b 4d fc	 mov	 ecx, DWORD PTR __Pnode$[ebp]
  00056	89 48 04	 mov	 DWORD PTR [eax+4], ecx
  00059	eb 27		 jmp	 SHORT $LN4@Rrotate
$LN3@Rrotate:

; 492  :         } else if (_Wherenode == _Wherenode->_Parent->_Right) {

  0005b	8b 45 08	 mov	 eax, DWORD PTR __Wherenode$[ebp]
  0005e	8b 40 04	 mov	 eax, DWORD PTR [eax+4]
  00061	8b 4d 08	 mov	 ecx, DWORD PTR __Wherenode$[ebp]
  00064	3b 48 08	 cmp	 ecx, DWORD PTR [eax+8]
  00067	75 0e		 jne	 SHORT $LN5@Rrotate

; 493  :             _Wherenode->_Parent->_Right = _Pnode;

  00069	8b 45 08	 mov	 eax, DWORD PTR __Wherenode$[ebp]
  0006c	8b 40 04	 mov	 eax, DWORD PTR [eax+4]
  0006f	8b 4d fc	 mov	 ecx, DWORD PTR __Pnode$[ebp]
  00072	89 48 08	 mov	 DWORD PTR [eax+8], ecx

; 494  :         } else {

  00075	eb 0b		 jmp	 SHORT $LN4@Rrotate
$LN5@Rrotate:

; 495  :             _Wherenode->_Parent->_Left = _Pnode;

  00077	8b 45 08	 mov	 eax, DWORD PTR __Wherenode$[ebp]
  0007a	8b 40 04	 mov	 eax, DWORD PTR [eax+4]
  0007d	8b 4d fc	 mov	 ecx, DWORD PTR __Pnode$[ebp]
  00080	89 08		 mov	 DWORD PTR [eax], ecx
$LN4@Rrotate:

; 496  :         }
; 497  : 
; 498  :         _Pnode->_Right      = _Wherenode;

  00082	8b 45 fc	 mov	 eax, DWORD PTR __Pnode$[ebp]
  00085	8b 4d 08	 mov	 ecx, DWORD PTR __Wherenode$[ebp]
  00088	89 48 08	 mov	 DWORD PTR [eax+8], ecx

; 499  :         _Wherenode->_Parent = _Pnode;

  0008b	8b 45 08	 mov	 eax, DWORD PTR __Wherenode$[ebp]
  0008e	8b 4d fc	 mov	 ecx, DWORD PTR __Pnode$[ebp]
  00091	89 48 04	 mov	 DWORD PTR [eax+4], ecx

; 500  :     }

  00094	c9		 leave
  00095	c2 04 00	 ret	 4
?_Rrotate@?$_Tree_val@U?$_Tree_simple_types@U?$pair@$$CBKPAVCLight@@@std@@@std@@@std@@QAEXPAU?$_Tree_node@U?$pair@$$CBKPAVCLight@@@std@@PAX@2@@Z ENDP ; std::_Tree_val<std::_Tree_simple_types<std::pair<unsigned long const ,CLight *> > >::_Rrotate
_TEXT	ENDS
; Function compile flags: /Odspy
; File C:\Program Files (x86)\Microsoft Visual Studio\2019\Community\VC\Tools\MSVC\14.28.29333\include\xtree
;	COMDAT ?_Lrotate@?$_Tree_val@U?$_Tree_simple_types@U?$pair@$$CBKPAVCLight@@@std@@@std@@@std@@QAEXPAU?$_Tree_node@U?$pair@$$CBKPAVCLight@@@std@@PAX@2@@Z
_TEXT	SEGMENT
_this$ = -8						; size = 4
__Pnode$ = -4						; size = 4
__Wherenode$ = 8					; size = 4
?_Lrotate@?$_Tree_val@U?$_Tree_simple_types@U?$pair@$$CBKPAVCLight@@@std@@@std@@@std@@QAEXPAU?$_Tree_node@U?$pair@$$CBKPAVCLight@@@std@@PAX@2@@Z PROC ; std::_Tree_val<std::_Tree_simple_types<std::pair<unsigned long const ,CLight *> > >::_Lrotate, COMDAT
; _this$ = ecx

; 458  :     void _Lrotate(_Nodeptr _Wherenode) noexcept { // promote right node to root of subtree

  00000	55		 push	 ebp
  00001	8b ec		 mov	 ebp, esp
  00003	51		 push	 ecx
  00004	51		 push	 ecx
  00005	89 4d f8	 mov	 DWORD PTR _this$[ebp], ecx

; 459  :         _Nodeptr _Pnode    = _Wherenode->_Right;

  00008	8b 45 08	 mov	 eax, DWORD PTR __Wherenode$[ebp]
  0000b	8b 40 08	 mov	 eax, DWORD PTR [eax+8]
  0000e	89 45 fc	 mov	 DWORD PTR __Pnode$[ebp], eax

; 460  :         _Wherenode->_Right = _Pnode->_Left;

  00011	8b 45 08	 mov	 eax, DWORD PTR __Wherenode$[ebp]
  00014	8b 4d fc	 mov	 ecx, DWORD PTR __Pnode$[ebp]
  00017	8b 09		 mov	 ecx, DWORD PTR [ecx]
  00019	89 48 08	 mov	 DWORD PTR [eax+8], ecx

; 461  : 
; 462  :         if (!_Pnode->_Left->_Isnil) {

  0001c	8b 45 fc	 mov	 eax, DWORD PTR __Pnode$[ebp]
  0001f	8b 00		 mov	 eax, DWORD PTR [eax]
  00021	0f be 40 0d	 movsx	 eax, BYTE PTR [eax+13]
  00025	85 c0		 test	 eax, eax
  00027	75 0b		 jne	 SHORT $LN2@Lrotate

; 463  :             _Pnode->_Left->_Parent = _Wherenode;

  00029	8b 45 fc	 mov	 eax, DWORD PTR __Pnode$[ebp]
  0002c	8b 00		 mov	 eax, DWORD PTR [eax]
  0002e	8b 4d 08	 mov	 ecx, DWORD PTR __Wherenode$[ebp]
  00031	89 48 04	 mov	 DWORD PTR [eax+4], ecx
$LN2@Lrotate:

; 464  :         }
; 465  : 
; 466  :         _Pnode->_Parent = _Wherenode->_Parent;

  00034	8b 45 fc	 mov	 eax, DWORD PTR __Pnode$[ebp]
  00037	8b 4d 08	 mov	 ecx, DWORD PTR __Wherenode$[ebp]
  0003a	8b 49 04	 mov	 ecx, DWORD PTR [ecx+4]
  0003d	89 48 04	 mov	 DWORD PTR [eax+4], ecx

; 467  : 
; 468  :         if (_Wherenode == _Myhead->_Parent) {

  00040	8b 45 f8	 mov	 eax, DWORD PTR _this$[ebp]
  00043	8b 00		 mov	 eax, DWORD PTR [eax]
  00045	8b 4d 08	 mov	 ecx, DWORD PTR __Wherenode$[ebp]
  00048	3b 48 04	 cmp	 ecx, DWORD PTR [eax+4]
  0004b	75 0d		 jne	 SHORT $LN3@Lrotate

; 469  :             _Myhead->_Parent = _Pnode;

  0004d	8b 45 f8	 mov	 eax, DWORD PTR _this$[ebp]
  00050	8b 00		 mov	 eax, DWORD PTR [eax]
  00052	8b 4d fc	 mov	 ecx, DWORD PTR __Pnode$[ebp]
  00055	89 48 04	 mov	 DWORD PTR [eax+4], ecx
  00058	eb 26		 jmp	 SHORT $LN4@Lrotate
$LN3@Lrotate:

; 470  :         } else if (_Wherenode == _Wherenode->_Parent->_Left) {

  0005a	8b 45 08	 mov	 eax, DWORD PTR __Wherenode$[ebp]
  0005d	8b 40 04	 mov	 eax, DWORD PTR [eax+4]
  00060	8b 4d 08	 mov	 ecx, DWORD PTR __Wherenode$[ebp]
  00063	3b 08		 cmp	 ecx, DWORD PTR [eax]
  00065	75 0d		 jne	 SHORT $LN5@Lrotate

; 471  :             _Wherenode->_Parent->_Left = _Pnode;

  00067	8b 45 08	 mov	 eax, DWORD PTR __Wherenode$[ebp]
  0006a	8b 40 04	 mov	 eax, DWORD PTR [eax+4]
  0006d	8b 4d fc	 mov	 ecx, DWORD PTR __Pnode$[ebp]
  00070	89 08		 mov	 DWORD PTR [eax], ecx

; 472  :         } else {

  00072	eb 0c		 jmp	 SHORT $LN4@Lrotate
$LN5@Lrotate:

; 473  :             _Wherenode->_Parent->_Right = _Pnode;

  00074	8b 45 08	 mov	 eax, DWORD PTR __Wherenode$[ebp]
  00077	8b 40 04	 mov	 eax, DWORD PTR [eax+4]
  0007a	8b 4d fc	 mov	 ecx, DWORD PTR __Pnode$[ebp]
  0007d	89 48 08	 mov	 DWORD PTR [eax+8], ecx
$LN4@Lrotate:

; 474  :         }
; 475  : 
; 476  :         _Pnode->_Left       = _Wherenode;

  00080	8b 45 fc	 mov	 eax, DWORD PTR __Pnode$[ebp]
  00083	8b 4d 08	 mov	 ecx, DWORD PTR __Wherenode$[ebp]
  00086	89 08		 mov	 DWORD PTR [eax], ecx

; 477  :         _Wherenode->_Parent = _Pnode;

  00088	8b 45 08	 mov	 eax, DWORD PTR __Wherenode$[ebp]
  0008b	8b 4d fc	 mov	 ecx, DWORD PTR __Pnode$[ebp]
  0008e	89 48 04	 mov	 DWORD PTR [eax+4], ecx

; 478  :     }

  00091	c9		 leave
  00092	c2 04 00	 ret	 4
?_Lrotate@?$_Tree_val@U?$_Tree_simple_types@U?$pair@$$CBKPAVCLight@@@std@@@std@@@std@@QAEXPAU?$_Tree_node@U?$pair@$$CBKPAVCLight@@@std@@PAX@2@@Z ENDP ; std::_Tree_val<std::_Tree_simple_types<std::pair<unsigned long const ,CLight *> > >::_Lrotate
_TEXT	ENDS
; Function compile flags: /Odspy
; File C:\Program Files (x86)\Microsoft Visual Studio\2019\Community\VC\Tools\MSVC\14.28.29333\include\xtree
; File C:\Program Files (x86)\Microsoft Visual Studio\2019\Community\VC\Tools\MSVC\14.28.29333\include\xstddef
; File C:\Program Files (x86)\Microsoft Visual Studio\2019\Community\VC\Tools\MSVC\14.28.29333\include\xtree
; File C:\Program Files (x86)\Microsoft Visual Studio\2019\Community\VC\Tools\MSVC\14.28.29333\include\xmemory
; File C:\Program Files (x86)\Microsoft Visual Studio\2019\Community\VC\Tools\MSVC\14.28.29333\include\xtree
;	COMDAT ?_Alloc_sentinel_and_proxy@?$_Tree@V?$_Tmap_traits@KPAVCLight@@U?$less@K@std@@V?$allocator@U?$pair@$$CBKPAVCLight@@@std@@@3@$0A@@std@@@std@@IAEXXZ
_TEXT	SEGMENT
__Alproxy$ = -28					; size = 4
__Scary$ = -24						; size = 4
$T1 = -20						; size = 4
$T2 = -16						; size = 4
$T3 = -12						; size = 4
_this$ = -8						; size = 4
_$S12$ = -1						; size = 1
?_Alloc_sentinel_and_proxy@?$_Tree@V?$_Tmap_traits@KPAVCLight@@U?$less@K@std@@V?$allocator@U?$pair@$$CBKPAVCLight@@@std@@@3@$0A@@std@@@std@@IAEXXZ PROC ; std::_Tree<std::_Tmap_traits<unsigned long,CLight *,std::less<unsigned long>,std::allocator<std::pair<unsigned long const ,CLight *> >,0> >::_Alloc_sentinel_and_proxy, COMDAT
; _this$ = ecx

; 2017 :     void _Alloc_sentinel_and_proxy() {

  00000	55		 push	 ebp
  00001	8b ec		 mov	 ebp, esp
  00003	83 ec 1c	 sub	 esp, 28			; 0000001cH
  00006	89 4d f8	 mov	 DWORD PTR _this$[ebp], ecx

; 2047 :         return _STD addressof(_Mypair._Myval2._Myval2);

  00009	8b 45 f8	 mov	 eax, DWORD PTR _this$[ebp]
; File C:\Program Files (x86)\Microsoft Visual Studio\2019\Community\VC\Tools\MSVC\14.28.29333\include\xstddef

; 275  :     return __builtin_addressof(_Val);

  0000c	89 45 f4	 mov	 DWORD PTR $T3[ebp], eax
; File C:\Program Files (x86)\Microsoft Visual Studio\2019\Community\VC\Tools\MSVC\14.28.29333\include\xtree

; 2047 :         return _STD addressof(_Mypair._Myval2._Myval2);

  0000f	8b 45 f4	 mov	 eax, DWORD PTR $T3[ebp]
  00012	89 45 e8	 mov	 DWORD PTR __Scary$[ebp], eax

; 2018 :         const auto _Scary = _Get_scary();
; 2019 :         auto&& _Alproxy   = _GET_PROXY_ALLOCATOR(_Alnode, _Getal());

  00015	8d 45 ff	 lea	 eax, DWORD PTR _$S12$[ebp]
  00018	89 45 e4	 mov	 DWORD PTR __Alproxy$[ebp], eax

; 2039 :         return _Mypair._Myval2._Get_first();

  0001b	8b 45 f8	 mov	 eax, DWORD PTR _this$[ebp]
; File C:\Program Files (x86)\Microsoft Visual Studio\2019\Community\VC\Tools\MSVC\14.28.29333\include\xmemory

; 1347 :         return *this;

  0001e	89 45 f0	 mov	 DWORD PTR $T2[ebp], eax
; File C:\Program Files (x86)\Microsoft Visual Studio\2019\Community\VC\Tools\MSVC\14.28.29333\include\xtree

; 2039 :         return _Mypair._Myval2._Get_first();

  00021	8b 45 f0	 mov	 eax, DWORD PTR $T2[ebp]
  00024	89 45 ec	 mov	 DWORD PTR $T1[ebp], eax

; 2020 :         _Container_proxy_ptr<_Alnode> _Proxy(_Alproxy, *_Scary);
; 2021 :         _Scary->_Myhead = _Node::_Buyheadnode(_Getal());

  00027	ff 75 ec	 push	 DWORD PTR $T1[ebp]
  0002a	e8 00 00 00 00	 call	 ??$_Buyheadnode@V?$allocator@U?$_Tree_node@U?$pair@$$CBKPAVCLight@@@std@@PAX@std@@@std@@@?$_Tree_node@U?$pair@$$CBKPAVCLight@@@std@@PAX@std@@SAPAU01@AAV?$allocator@U?$_Tree_node@U?$pair@$$CBKPAVCLight@@@std@@PAX@std@@@1@@Z ; std::_Tree_node<std::pair<unsigned long const ,CLight *>,void *>::_Buyheadnode<std::allocator<std::_Tree_node<std::pair<unsigned long const ,CLight *>,void *> > >
  0002f	59		 pop	 ecx
  00030	8b 4d e8	 mov	 ecx, DWORD PTR __Scary$[ebp]
  00033	89 01		 mov	 DWORD PTR [ecx], eax

; 2022 :         _Proxy._Release();
; 2023 :     }

  00035	c9		 leave
  00036	c3		 ret	 0
?_Alloc_sentinel_and_proxy@?$_Tree@V?$_Tmap_traits@KPAVCLight@@U?$less@K@std@@V?$allocator@U?$pair@$$CBKPAVCLight@@@std@@@3@$0A@@std@@@std@@IAEXXZ ENDP ; std::_Tree<std::_Tmap_traits<unsigned long,CLight *,std::less<unsigned long>,std::allocator<std::pair<unsigned long const ,CLight *> >,0> >::_Alloc_sentinel_and_proxy
_TEXT	ENDS
; Function compile flags: /Odspy
; File C:\Program Files (x86)\Microsoft Visual Studio\2019\Community\VC\Tools\MSVC\14.28.29333\include\xtree
; File C:\Program Files (x86)\Microsoft Visual Studio\2019\Community\VC\Tools\MSVC\14.28.29333\include\xstddef
; File C:\Program Files (x86)\Microsoft Visual Studio\2019\Community\VC\Tools\MSVC\14.28.29333\include\xtree
;	COMDAT ?_Check_grow_by_1@?$_Tree@V?$_Tmap_traits@KPAVCLight@@U?$less@K@std@@V?$allocator@U?$pair@$$CBKPAVCLight@@@std@@@3@$0A@@std@@@std@@IAEXXZ
_TEXT	SEGMENT
$T1 = -12						; size = 4
$T2 = -8						; size = 4
_this$ = -4						; size = 4
?_Check_grow_by_1@?$_Tree@V?$_Tmap_traits@KPAVCLight@@U?$less@K@std@@V?$allocator@U?$pair@$$CBKPAVCLight@@@std@@@3@$0A@@std@@@std@@IAEXXZ PROC ; std::_Tree<std::_Tmap_traits<unsigned long,CLight *,std::less<unsigned long>,std::allocator<std::pair<unsigned long const ,CLight *> >,0> >::_Check_grow_by_1, COMDAT
; _this$ = ecx

; 1718 :     void _Check_grow_by_1() {

  00000	55		 push	 ebp
  00001	8b ec		 mov	 ebp, esp
  00003	83 ec 0c	 sub	 esp, 12			; 0000000cH
  00006	89 4d fc	 mov	 DWORD PTR _this$[ebp], ecx

; 2047 :         return _STD addressof(_Mypair._Myval2._Myval2);

  00009	8b 45 fc	 mov	 eax, DWORD PTR _this$[ebp]
; File C:\Program Files (x86)\Microsoft Visual Studio\2019\Community\VC\Tools\MSVC\14.28.29333\include\xstddef

; 275  :     return __builtin_addressof(_Val);

  0000c	89 45 f8	 mov	 DWORD PTR $T2[ebp], eax
; File C:\Program Files (x86)\Microsoft Visual Studio\2019\Community\VC\Tools\MSVC\14.28.29333\include\xtree

; 2047 :         return _STD addressof(_Mypair._Myval2._Myval2);

  0000f	8b 45 f8	 mov	 eax, DWORD PTR $T2[ebp]
  00012	89 45 f4	 mov	 DWORD PTR $T1[ebp], eax

; 1719 :         if (max_size() == _Get_scary()->_Mysize) {

  00015	8b 4d fc	 mov	 ecx, DWORD PTR _this$[ebp]
  00018	e8 00 00 00 00	 call	 ?max_size@?$_Tree@V?$_Tmap_traits@KPAVCLight@@U?$less@K@std@@V?$allocator@U?$pair@$$CBKPAVCLight@@@std@@@3@$0A@@std@@@std@@QBEIXZ ; std::_Tree<std::_Tmap_traits<unsigned long,CLight *,std::less<unsigned long>,std::allocator<std::pair<unsigned long const ,CLight *> >,0> >::max_size
  0001d	8b 4d f4	 mov	 ecx, DWORD PTR $T1[ebp]
  00020	3b 41 04	 cmp	 eax, DWORD PTR [ecx+4]
  00023	75 05		 jne	 SHORT $LN3@Check_grow

; 1720 :             _Throw_tree_length_error();

  00025	e8 00 00 00 00	 call	 ?_Throw_tree_length_error@std@@YAXXZ ; std::_Throw_tree_length_error
$LN3@Check_grow:

; 1721 :         }
; 1722 :     }

  0002a	c9		 leave
  0002b	c3		 ret	 0
?_Check_grow_by_1@?$_Tree@V?$_Tmap_traits@KPAVCLight@@U?$less@K@std@@V?$allocator@U?$pair@$$CBKPAVCLight@@@std@@@3@$0A@@std@@@std@@IAEXXZ ENDP ; std::_Tree<std::_Tmap_traits<unsigned long,CLight *,std::less<unsigned long>,std::allocator<std::pair<unsigned long const ,CLight *> >,0> >::_Check_grow_by_1
_TEXT	ENDS
; Function compile flags: /Odspy
; File C:\Program Files (x86)\Microsoft Visual Studio\2019\Community\VC\Tools\MSVC\14.28.29333\include\xtree
; File C:\Program Files (x86)\Microsoft Visual Studio\2019\Community\VC\Tools\MSVC\14.28.29333\include\xstddef
; File C:\Program Files (x86)\Microsoft Visual Studio\2019\Community\VC\Tools\MSVC\14.28.29333\include\xtree
;	COMDAT ?find@?$_Tree@V?$_Tmap_traits@KPAVCLight@@U?$less@K@std@@V?$allocator@U?$pair@$$CBKPAVCLight@@@std@@@3@$0A@@std@@@std@@QAE?AV?$_Tree_iterator@V?$_Tree_val@U?$_Tree_simple_types@U?$pair@$$CBKPAVCLight@@@std@@@std@@@std@@@2@ABK@Z
_TEXT	SEGMENT
$T1 = -16						; size = 4
___param0$ = -12					; size = 4
$T2 = -8						; size = 4
_this$ = -4						; size = 4
___$ReturnUdt$ = 8					; size = 4
__Keyval$ = 12						; size = 4
?find@?$_Tree@V?$_Tmap_traits@KPAVCLight@@U?$less@K@std@@V?$allocator@U?$pair@$$CBKPAVCLight@@@std@@@3@$0A@@std@@@std@@QAE?AV?$_Tree_iterator@V?$_Tree_val@U?$_Tree_simple_types@U?$pair@$$CBKPAVCLight@@@std@@@std@@@std@@@2@ABK@Z PROC ; std::_Tree<std::_Tmap_traits<unsigned long,CLight *,std::less<unsigned long>,std::allocator<std::pair<unsigned long const ,CLight *> >,0> >::find, COMDAT
; _this$ = ecx

; 1467 :     _NODISCARD iterator find(const key_type& _Keyval) {

  00000	55		 push	 ebp
  00001	8b ec		 mov	 ebp, esp
  00003	83 ec 10	 sub	 esp, 16			; 00000010H
  00006	89 4d fc	 mov	 DWORD PTR _this$[ebp], ecx

; 2047 :         return _STD addressof(_Mypair._Myval2._Myval2);

  00009	8b 45 fc	 mov	 eax, DWORD PTR _this$[ebp]
; File C:\Program Files (x86)\Microsoft Visual Studio\2019\Community\VC\Tools\MSVC\14.28.29333\include\xstddef

; 275  :     return __builtin_addressof(_Val);

  0000c	89 45 f8	 mov	 DWORD PTR $T2[ebp], eax
; File C:\Program Files (x86)\Microsoft Visual Studio\2019\Community\VC\Tools\MSVC\14.28.29333\include\xtree

; 2047 :         return _STD addressof(_Mypair._Myval2._Myval2);

  0000f	8b 45 f8	 mov	 eax, DWORD PTR $T2[ebp]
  00012	89 45 f0	 mov	 DWORD PTR $T1[ebp], eax

; 1468 :         return iterator(_Find(_Keyval), _Get_scary());

  00015	ff 75 0c	 push	 DWORD PTR __Keyval$[ebp]
  00018	8b 4d fc	 mov	 ecx, DWORD PTR _this$[ebp]
  0001b	e8 00 00 00 00	 call	 ??$_Find@K@?$_Tree@V?$_Tmap_traits@KPAVCLight@@U?$less@K@std@@V?$allocator@U?$pair@$$CBKPAVCLight@@@std@@@3@$0A@@std@@@std@@ABEPAU?$_Tree_node@U?$pair@$$CBKPAVCLight@@@std@@PAX@1@ABK@Z ; std::_Tree<std::_Tmap_traits<unsigned long,CLight *,std::less<unsigned long>,std::allocator<std::pair<unsigned long const ,CLight *> >,0> >::_Find<unsigned long>
  00020	89 45 f4	 mov	 DWORD PTR ___param0$[ebp], eax

; 39   :     _Tree_unchecked_const_iterator(_Nodeptr _Pnode, const _Mytree* _Plist) noexcept : _Ptr(_Pnode) {

  00023	8b 45 08	 mov	 eax, DWORD PTR ___$ReturnUdt$[ebp]
  00026	8b 4d f4	 mov	 ecx, DWORD PTR ___param0$[ebp]
  00029	89 08		 mov	 DWORD PTR [eax], ecx

; 1468 :         return iterator(_Find(_Keyval), _Get_scary());

  0002b	8b 45 08	 mov	 eax, DWORD PTR ___$ReturnUdt$[ebp]

; 1469 :     }

  0002e	c9		 leave
  0002f	c2 08 00	 ret	 8
?find@?$_Tree@V?$_Tmap_traits@KPAVCLight@@U?$less@K@std@@V?$allocator@U?$pair@$$CBKPAVCLight@@@std@@@3@$0A@@std@@@std@@QAE?AV?$_Tree_iterator@V?$_Tree_val@U?$_Tree_simple_types@U?$pair@$$CBKPAVCLight@@@std@@@std@@@std@@@2@ABK@Z ENDP ; std::_Tree<std::_Tmap_traits<unsigned long,CLight *,std::less<unsigned long>,std::allocator<std::pair<unsigned long const ,CLight *> >,0> >::find
_TEXT	ENDS
; Function compile flags: /Odspy
; File C:\Program Files (x86)\Microsoft Visual Studio\2019\Community\VC\Tools\MSVC\14.28.29333\include\xtree
; File C:\Program Files (x86)\Microsoft Visual Studio\2019\Community\VC\Tools\MSVC\14.28.29333\include\xstddef
; File C:\Program Files (x86)\Microsoft Visual Studio\2019\Community\VC\Tools\MSVC\14.28.29333\include\xtree
; File C:\Program Files (x86)\Microsoft Visual Studio\2019\Community\VC\Tools\MSVC\14.28.29333\include\xmemory
; File C:\Program Files (x86)\Microsoft Visual Studio\2019\Community\VC\Tools\MSVC\14.28.29333\include\xtree
;	COMDAT ?clear@?$_Tree@V?$_Tmap_traits@KPAVCLight@@U?$less@K@std@@V?$allocator@U?$pair@$$CBKPAVCLight@@@std@@@3@$0A@@std@@@std@@QAEXXZ
_TEXT	SEGMENT
$T1 = -24						; size = 4
$T2 = -20						; size = 4
$T3 = -16						; size = 4
_this$ = -12						; size = 4
__Scary$ = -8						; size = 4
__Head$ = -4						; size = 4
?clear@?$_Tree@V?$_Tmap_traits@KPAVCLight@@U?$less@K@std@@V?$allocator@U?$pair@$$CBKPAVCLight@@@std@@@3@$0A@@std@@@std@@QAEXXZ PROC ; std::_Tree<std::_Tmap_traits<unsigned long,CLight *,std::less<unsigned long>,std::allocator<std::pair<unsigned long const ,CLight *> >,0> >::clear, COMDAT
; _this$ = ecx

; 1444 :     void clear() noexcept {

  00000	55		 push	 ebp
  00001	8b ec		 mov	 ebp, esp
  00003	83 ec 18	 sub	 esp, 24			; 00000018H
  00006	89 4d f4	 mov	 DWORD PTR _this$[ebp], ecx

; 2047 :         return _STD addressof(_Mypair._Myval2._Myval2);

  00009	8b 45 f4	 mov	 eax, DWORD PTR _this$[ebp]
; File C:\Program Files (x86)\Microsoft Visual Studio\2019\Community\VC\Tools\MSVC\14.28.29333\include\xstddef

; 275  :     return __builtin_addressof(_Val);

  0000c	89 45 f0	 mov	 DWORD PTR $T3[ebp], eax
; File C:\Program Files (x86)\Microsoft Visual Studio\2019\Community\VC\Tools\MSVC\14.28.29333\include\xtree

; 2047 :         return _STD addressof(_Mypair._Myval2._Myval2);

  0000f	8b 45 f0	 mov	 eax, DWORD PTR $T3[ebp]
  00012	89 45 f8	 mov	 DWORD PTR __Scary$[ebp], eax

; 1445 :         const auto _Scary = _Get_scary();
; 1446 :         _Scary->_Orphan_ptr(nullptr);
; 1447 :         auto _Head = _Scary->_Myhead;

  00015	8b 45 f8	 mov	 eax, DWORD PTR __Scary$[ebp]
  00018	8b 00		 mov	 eax, DWORD PTR [eax]
  0001a	89 45 fc	 mov	 DWORD PTR __Head$[ebp], eax

; 2039 :         return _Mypair._Myval2._Get_first();

  0001d	8b 45 f4	 mov	 eax, DWORD PTR _this$[ebp]
; File C:\Program Files (x86)\Microsoft Visual Studio\2019\Community\VC\Tools\MSVC\14.28.29333\include\xmemory

; 1347 :         return *this;

  00020	89 45 ec	 mov	 DWORD PTR $T2[ebp], eax
; File C:\Program Files (x86)\Microsoft Visual Studio\2019\Community\VC\Tools\MSVC\14.28.29333\include\xtree

; 2039 :         return _Mypair._Myval2._Get_first();

  00023	8b 45 ec	 mov	 eax, DWORD PTR $T2[ebp]
  00026	89 45 e8	 mov	 DWORD PTR $T1[ebp], eax

; 1448 :         _Scary->_Erase_tree(_Getal(), _Head->_Parent);

  00029	8b 45 fc	 mov	 eax, DWORD PTR __Head$[ebp]
  0002c	ff 70 04	 push	 DWORD PTR [eax+4]
  0002f	ff 75 e8	 push	 DWORD PTR $T1[ebp]
  00032	8b 4d f8	 mov	 ecx, DWORD PTR __Scary$[ebp]
  00035	e8 00 00 00 00	 call	 ??$_Erase_tree@V?$allocator@U?$_Tree_node@U?$pair@$$CBKPAVCLight@@@std@@PAX@std@@@std@@@?$_Tree_val@U?$_Tree_simple_types@U?$pair@$$CBKPAVCLight@@@std@@@std@@@std@@QAEXAAV?$allocator@U?$_Tree_node@U?$pair@$$CBKPAVCLight@@@std@@PAX@std@@@1@PAU?$_Tree_node@U?$pair@$$CBKPAVCLight@@@std@@PAX@1@@Z ; std::_Tree_val<std::_Tree_simple_types<std::pair<unsigned long const ,CLight *> > >::_Erase_tree<std::allocator<std::_Tree_node<std::pair<unsigned long const ,CLight *>,void *> > >

; 1449 :         _Head->_Parent  = _Head;

  0003a	8b 45 fc	 mov	 eax, DWORD PTR __Head$[ebp]
  0003d	8b 4d fc	 mov	 ecx, DWORD PTR __Head$[ebp]
  00040	89 48 04	 mov	 DWORD PTR [eax+4], ecx

; 1450 :         _Head->_Left    = _Head;

  00043	8b 45 fc	 mov	 eax, DWORD PTR __Head$[ebp]
  00046	8b 4d fc	 mov	 ecx, DWORD PTR __Head$[ebp]
  00049	89 08		 mov	 DWORD PTR [eax], ecx

; 1451 :         _Head->_Right   = _Head;

  0004b	8b 45 fc	 mov	 eax, DWORD PTR __Head$[ebp]
  0004e	8b 4d fc	 mov	 ecx, DWORD PTR __Head$[ebp]
  00051	89 48 08	 mov	 DWORD PTR [eax+8], ecx

; 1452 :         _Scary->_Mysize = 0;

  00054	8b 45 f8	 mov	 eax, DWORD PTR __Scary$[ebp]
  00057	83 60 04 00	 and	 DWORD PTR [eax+4], 0

; 1453 :     }

  0005b	c9		 leave
  0005c	c3		 ret	 0
?clear@?$_Tree@V?$_Tmap_traits@KPAVCLight@@U?$less@K@std@@V?$allocator@U?$pair@$$CBKPAVCLight@@@std@@@3@$0A@@std@@@std@@QAEXXZ ENDP ; std::_Tree<std::_Tmap_traits<unsigned long,CLight *,std::less<unsigned long>,std::allocator<std::pair<unsigned long const ,CLight *> >,0> >::clear
_TEXT	ENDS
; Function compile flags: /Odspy
; File C:\Program Files (x86)\Microsoft Visual Studio\2019\Community\VC\Tools\MSVC\14.28.29333\include\xtree
; File C:\Program Files (x86)\Microsoft Visual Studio\2019\Community\VC\Tools\MSVC\14.28.29333\include\xstddef
; File C:\Program Files (x86)\Microsoft Visual Studio\2019\Community\VC\Tools\MSVC\14.28.29333\include\xtree
; File C:\Program Files (x86)\Microsoft Visual Studio\2019\Community\VC\Tools\MSVC\14.28.29333\include\xmemory
; File C:\Program Files (x86)\Microsoft Visual Studio\2019\Community\VC\Tools\MSVC\14.28.29333\include\xtree
; File C:\Program Files (x86)\Microsoft Visual Studio\2019\Community\VC\Tools\MSVC\14.28.29333\include\xstddef
; File C:\Program Files (x86)\Microsoft Visual Studio\2019\Community\VC\Tools\MSVC\14.28.29333\include\xtree
;	COMDAT ?_Erase_unchecked@?$_Tree@V?$_Tmap_traits@KPAVCLight@@U?$less@K@std@@V?$allocator@U?$pair@$$CBKPAVCLight@@@std@@@3@$0A@@std@@@std@@AAEPAU?$_Tree_node@U?$pair@$$CBKPAVCLight@@@std@@PAX@2@V?$_Tree_unchecked_const_iterator@V?$_Tree_val@U?$_Tree_simple_types@U?$pair@$$CBKPAVCLight@@@std@@@std@@@std@@U_Iterator_base0@2@@2@@Z
_TEXT	SEGMENT
$T1 = -32						; size = 4
$T2 = -28						; size = 4
$T3 = -24						; size = 4
__Scary$ = -20						; size = 4
$T4 = -16						; size = 4
__Successor$ = -12					; size = 4
__Erasednode$ = -8					; size = 4
_this$ = -4						; size = 4
__Where$ = 8						; size = 4
?_Erase_unchecked@?$_Tree@V?$_Tmap_traits@KPAVCLight@@U?$less@K@std@@V?$allocator@U?$pair@$$CBKPAVCLight@@@std@@@3@$0A@@std@@@std@@AAEPAU?$_Tree_node@U?$pair@$$CBKPAVCLight@@@std@@PAX@2@V?$_Tree_unchecked_const_iterator@V?$_Tree_val@U?$_Tree_simple_types@U?$pair@$$CBKPAVCLight@@@std@@@std@@@std@@U_Iterator_base0@2@@2@@Z PROC ; std::_Tree<std::_Tmap_traits<unsigned long,CLight *,std::less<unsigned long>,std::allocator<std::pair<unsigned long const ,CLight *> >,0> >::_Erase_unchecked, COMDAT
; _this$ = ecx

; 1385 :     _Nodeptr _Erase_unchecked(_Unchecked_const_iterator _Where) noexcept {

  00000	55		 push	 ebp
  00001	8b ec		 mov	 ebp, esp
  00003	83 ec 20	 sub	 esp, 32			; 00000020H
  00006	89 4d fc	 mov	 DWORD PTR _this$[ebp], ecx

; 2047 :         return _STD addressof(_Mypair._Myval2._Myval2);

  00009	8b 45 fc	 mov	 eax, DWORD PTR _this$[ebp]
; File C:\Program Files (x86)\Microsoft Visual Studio\2019\Community\VC\Tools\MSVC\14.28.29333\include\xstddef

; 275  :     return __builtin_addressof(_Val);

  0000c	89 45 f0	 mov	 DWORD PTR $T4[ebp], eax
; File C:\Program Files (x86)\Microsoft Visual Studio\2019\Community\VC\Tools\MSVC\14.28.29333\include\xtree

; 2047 :         return _STD addressof(_Mypair._Myval2._Myval2);

  0000f	8b 45 f0	 mov	 eax, DWORD PTR $T4[ebp]
  00012	89 45 ec	 mov	 DWORD PTR __Scary$[ebp], eax

; 1386 :         const auto _Scary                    = _Get_scary();
; 1387 :         _Unchecked_const_iterator _Successor = _Where;

  00015	8b 45 08	 mov	 eax, DWORD PTR __Where$[ebp]
  00018	89 45 f4	 mov	 DWORD PTR __Successor$[ebp], eax

; 1388 :         ++_Successor; // save successor iterator for return

  0001b	8d 4d f4	 lea	 ecx, DWORD PTR __Successor$[ebp]
  0001e	e8 00 00 00 00	 call	 ??E?$_Tree_unchecked_const_iterator@V?$_Tree_val@U?$_Tree_simple_types@U?$pair@$$CBKPAVCLight@@@std@@@std@@@std@@U_Iterator_base0@2@@std@@QAEAAV01@XZ ; std::_Tree_unchecked_const_iterator<std::_Tree_val<std::_Tree_simple_types<std::pair<unsigned long const ,CLight *> > >,std::_Iterator_base0>::operator++

; 1389 :         _Nodeptr _Erasednode = _Scary->_Extract(_Where); // node to erase

  00023	ff 75 08	 push	 DWORD PTR __Where$[ebp]
  00026	8b 4d ec	 mov	 ecx, DWORD PTR __Scary$[ebp]
  00029	e8 00 00 00 00	 call	 ?_Extract@?$_Tree_val@U?$_Tree_simple_types@U?$pair@$$CBKPAVCLight@@@std@@@std@@@std@@QAEPAU?$_Tree_node@U?$pair@$$CBKPAVCLight@@@std@@PAX@2@V?$_Tree_unchecked_const_iterator@V?$_Tree_val@U?$_Tree_simple_types@U?$pair@$$CBKPAVCLight@@@std@@@std@@@std@@U_Iterator_base0@2@@2@@Z ; std::_Tree_val<std::_Tree_simple_types<std::pair<unsigned long const ,CLight *> > >::_Extract
  0002e	89 45 f8	 mov	 DWORD PTR __Erasednode$[ebp], eax

; 2039 :         return _Mypair._Myval2._Get_first();

  00031	8b 45 fc	 mov	 eax, DWORD PTR _this$[ebp]
; File C:\Program Files (x86)\Microsoft Visual Studio\2019\Community\VC\Tools\MSVC\14.28.29333\include\xmemory

; 1347 :         return *this;

  00034	89 45 e8	 mov	 DWORD PTR $T3[ebp], eax
; File C:\Program Files (x86)\Microsoft Visual Studio\2019\Community\VC\Tools\MSVC\14.28.29333\include\xtree

; 2039 :         return _Mypair._Myval2._Get_first();

  00037	8b 45 e8	 mov	 eax, DWORD PTR $T3[ebp]
  0003a	89 45 e4	 mov	 DWORD PTR $T2[ebp], eax

; 379  :         allocator_traits<_Alloc>::destroy(_Al, _STD addressof(_Ptr->_Myval));

  0003d	8b 45 f8	 mov	 eax, DWORD PTR __Erasednode$[ebp]
  00040	83 c0 10	 add	 eax, 16			; 00000010H
; File C:\Program Files (x86)\Microsoft Visual Studio\2019\Community\VC\Tools\MSVC\14.28.29333\include\xstddef

; 275  :     return __builtin_addressof(_Val);

  00043	89 45 e0	 mov	 DWORD PTR $T1[ebp], eax
; File C:\Program Files (x86)\Microsoft Visual Studio\2019\Community\VC\Tools\MSVC\14.28.29333\include\xtree

; 380  :         _Freenode0(_Al, _Ptr);

  00046	ff 75 f8	 push	 DWORD PTR __Erasednode$[ebp]
  00049	ff 75 e4	 push	 DWORD PTR $T2[ebp]
  0004c	e8 00 00 00 00	 call	 ??$_Freenode0@V?$allocator@U?$_Tree_node@U?$pair@$$CBKPAVCLight@@@std@@PAX@std@@@std@@@?$_Tree_node@U?$pair@$$CBKPAVCLight@@@std@@PAX@std@@SAXAAV?$allocator@U?$_Tree_node@U?$pair@$$CBKPAVCLight@@@std@@PAX@std@@@1@PAU01@@Z ; std::_Tree_node<std::pair<unsigned long const ,CLight *>,void *>::_Freenode0<std::allocator<std::_Tree_node<std::pair<unsigned long const ,CLight *>,void *> > >
  00051	59		 pop	 ecx
  00052	59		 pop	 ecx

; 1390 :         _Scary->_Orphan_ptr(_Erasednode);
; 1391 :         _Node::_Freenode(_Getal(), _Erasednode); // delete erased node
; 1392 :         return _Successor._Ptr; // return successor nodeptr

  00053	8b 45 f4	 mov	 eax, DWORD PTR __Successor$[ebp]

; 1393 :     }

  00056	c9		 leave
  00057	c2 04 00	 ret	 4
?_Erase_unchecked@?$_Tree@V?$_Tmap_traits@KPAVCLight@@U?$less@K@std@@V?$allocator@U?$pair@$$CBKPAVCLight@@@std@@@3@$0A@@std@@@std@@AAEPAU?$_Tree_node@U?$pair@$$CBKPAVCLight@@@std@@PAX@2@V?$_Tree_unchecked_const_iterator@V?$_Tree_val@U?$_Tree_simple_types@U?$pair@$$CBKPAVCLight@@@std@@@std@@@std@@U_Iterator_base0@2@@2@@Z ENDP ; std::_Tree<std::_Tmap_traits<unsigned long,CLight *,std::less<unsigned long>,std::allocator<std::pair<unsigned long const ,CLight *> >,0> >::_Erase_unchecked
_TEXT	ENDS
; Function compile flags: /Odspy
; File C:\Program Files (x86)\Microsoft Visual Studio\2019\Community\VC\Tools\MSVC\14.28.29333\include\xtree
; File C:\Program Files (x86)\Microsoft Visual Studio\2019\Community\VC\Tools\MSVC\14.28.29333\include\xmemory
; File C:\Program Files (x86)\Microsoft Visual Studio\2019\Community\VC\Tools\MSVC\14.28.29333\include\xtree
; File C:\Program Files (x86)\Microsoft Visual Studio\2019\Community\VC\Tools\MSVC\14.28.29333\include\xmemory
; File C:\Program Files (x86)\Microsoft Visual Studio\2019\Community\VC\Tools\MSVC\14.28.29333\include\limits
; File C:\Program Files (x86)\Microsoft Visual Studio\2019\Community\VC\Tools\MSVC\14.28.29333\include\xtree
; File C:\Program Files (x86)\Microsoft Visual Studio\2019\Community\VC\Tools\MSVC\14.28.29333\include\utility
; File C:\Program Files (x86)\Microsoft Visual Studio\2019\Community\VC\Tools\MSVC\14.28.29333\include\xtree
;	COMDAT ?max_size@?$_Tree@V?$_Tmap_traits@KPAVCLight@@U?$less@K@std@@V?$allocator@U?$pair@$$CBKPAVCLight@@@std@@@3@$0A@@std@@@std@@QBEIXZ
_TEXT	SEGMENT
$T1 = -36						; size = 4
$T2 = -32						; size = 4
$T3 = -28						; size = 4
$T4 = -24						; size = 4
$T5 = -20						; size = 4
_this$ = -16						; size = 4
tv68 = -12						; size = 4
$T6 = -8						; size = 4
$T7 = -4						; size = 4
?max_size@?$_Tree@V?$_Tmap_traits@KPAVCLight@@U?$less@K@std@@V?$allocator@U?$pair@$$CBKPAVCLight@@@std@@@3@$0A@@std@@@std@@QBEIXZ PROC ; std::_Tree<std::_Tmap_traits<unsigned long,CLight *,std::less<unsigned long>,std::allocator<std::pair<unsigned long const ,CLight *> >,0> >::max_size, COMDAT
; _this$ = ecx

; 1310 :     _NODISCARD size_type max_size() const noexcept {

  00000	55		 push	 ebp
  00001	8b ec		 mov	 ebp, esp
  00003	83 ec 24	 sub	 esp, 36			; 00000024H
  00006	89 4d f0	 mov	 DWORD PTR _this$[ebp], ecx

; 2043 :         return _Mypair._Myval2._Get_first();

  00009	8b 45 f0	 mov	 eax, DWORD PTR _this$[ebp]
; File C:\Program Files (x86)\Microsoft Visual Studio\2019\Community\VC\Tools\MSVC\14.28.29333\include\xmemory

; 1351 :         return *this;

  0000c	89 45 ec	 mov	 DWORD PTR $T5[ebp], eax
; File C:\Program Files (x86)\Microsoft Visual Studio\2019\Community\VC\Tools\MSVC\14.28.29333\include\xtree

; 2043 :         return _Mypair._Myval2._Get_first();

  0000f	8b 45 ec	 mov	 eax, DWORD PTR $T5[ebp]
  00012	89 45 dc	 mov	 DWORD PTR $T1[ebp], eax
; File C:\Program Files (x86)\Microsoft Visual Studio\2019\Community\VC\Tools\MSVC\14.28.29333\include\xmemory

; 710  :         return static_cast<size_t>(-1) / sizeof(value_type);

  00015	c7 45 fc aa aa
	aa 0a		 mov	 DWORD PTR $T7[ebp], 178956970 ; 0aaaaaaaH
; File C:\Program Files (x86)\Microsoft Visual Studio\2019\Community\VC\Tools\MSVC\14.28.29333\include\limits

; 557  :         return INT_MAX;

  0001c	c7 45 e8 ff ff
	ff 7f		 mov	 DWORD PTR $T4[ebp], 2147483647 ; 7fffffffH
; File C:\Program Files (x86)\Microsoft Visual Studio\2019\Community\VC\Tools\MSVC\14.28.29333\include\xtree

; 1311 :         return (_STD min)(

  00023	8b 45 e8	 mov	 eax, DWORD PTR $T4[ebp]
  00026	89 45 f8	 mov	 DWORD PTR $T6[ebp], eax
; File C:\Program Files (x86)\Microsoft Visual Studio\2019\Community\VC\Tools\MSVC\14.28.29333\include\utility

; 68   :     return _Right < _Left ? _Right : _Left;

  00029	8b 45 fc	 mov	 eax, DWORD PTR $T7[ebp]
  0002c	3b 45 f8	 cmp	 eax, DWORD PTR $T6[ebp]
  0002f	73 08		 jae	 SHORT $LN17@max_size
  00031	8d 45 fc	 lea	 eax, DWORD PTR $T7[ebp]
  00034	89 45 f4	 mov	 DWORD PTR tv68[ebp], eax
  00037	eb 06		 jmp	 SHORT $LN18@max_size
$LN17@max_size:
  00039	8d 45 f8	 lea	 eax, DWORD PTR $T6[ebp]
  0003c	89 45 f4	 mov	 DWORD PTR tv68[ebp], eax
$LN18@max_size:
  0003f	8b 45 f4	 mov	 eax, DWORD PTR tv68[ebp]
  00042	89 45 e4	 mov	 DWORD PTR $T3[ebp], eax
  00045	8b 45 e4	 mov	 eax, DWORD PTR $T3[ebp]
  00048	89 45 e0	 mov	 DWORD PTR $T2[ebp], eax
; File C:\Program Files (x86)\Microsoft Visual Studio\2019\Community\VC\Tools\MSVC\14.28.29333\include\xtree

; 1311 :         return (_STD min)(

  0004b	8b 45 e0	 mov	 eax, DWORD PTR $T2[ebp]
  0004e	8b 00		 mov	 eax, DWORD PTR [eax]

; 1312 :             static_cast<size_type>((numeric_limits<difference_type>::max)()), _Alnode_traits::max_size(_Getal()));
; 1313 :     }

  00050	c9		 leave
  00051	c3		 ret	 0
?max_size@?$_Tree@V?$_Tmap_traits@KPAVCLight@@U?$less@K@std@@V?$allocator@U?$pair@$$CBKPAVCLight@@@std@@@3@$0A@@std@@@std@@QBEIXZ ENDP ; std::_Tree<std::_Tmap_traits<unsigned long,CLight *,std::less<unsigned long>,std::allocator<std::pair<unsigned long const ,CLight *> >,0> >::max_size
_TEXT	ENDS
; Function compile flags: /Odspy
; File C:\Program Files (x86)\Microsoft Visual Studio\2019\Community\VC\Tools\MSVC\14.28.29333\include\xtree
; File C:\Program Files (x86)\Microsoft Visual Studio\2019\Community\VC\Tools\MSVC\14.28.29333\include\xstddef
; File C:\Program Files (x86)\Microsoft Visual Studio\2019\Community\VC\Tools\MSVC\14.28.29333\include\xtree
;	COMDAT ?begin@?$_Tree@V?$_Tmap_traits@KPAVCLight@@U?$less@K@std@@V?$allocator@U?$pair@$$CBKPAVCLight@@@std@@@3@$0A@@std@@@std@@QAE?AV?$_Tree_iterator@V?$_Tree_val@U?$_Tree_simple_types@U?$pair@$$CBKPAVCLight@@@std@@@std@@@std@@@2@XZ
_TEXT	SEGMENT
___param0$ = -16					; size = 4
__Scary$ = -12						; size = 4
$T1 = -8						; size = 4
_this$ = -4						; size = 4
___$ReturnUdt$ = 8					; size = 4
?begin@?$_Tree@V?$_Tmap_traits@KPAVCLight@@U?$less@K@std@@V?$allocator@U?$pair@$$CBKPAVCLight@@@std@@@3@$0A@@std@@@std@@QAE?AV?$_Tree_iterator@V?$_Tree_val@U?$_Tree_simple_types@U?$pair@$$CBKPAVCLight@@@std@@@std@@@std@@@2@XZ PROC ; std::_Tree<std::_Tmap_traits<unsigned long,CLight *,std::less<unsigned long>,std::allocator<std::pair<unsigned long const ,CLight *> >,0> >::begin, COMDAT
; _this$ = ecx

; 1238 :     _NODISCARD iterator begin() noexcept {

  00000	55		 push	 ebp
  00001	8b ec		 mov	 ebp, esp
  00003	83 ec 10	 sub	 esp, 16			; 00000010H
  00006	89 4d fc	 mov	 DWORD PTR _this$[ebp], ecx

; 2047 :         return _STD addressof(_Mypair._Myval2._Myval2);

  00009	8b 45 fc	 mov	 eax, DWORD PTR _this$[ebp]
; File C:\Program Files (x86)\Microsoft Visual Studio\2019\Community\VC\Tools\MSVC\14.28.29333\include\xstddef

; 275  :     return __builtin_addressof(_Val);

  0000c	89 45 f8	 mov	 DWORD PTR $T1[ebp], eax
; File C:\Program Files (x86)\Microsoft Visual Studio\2019\Community\VC\Tools\MSVC\14.28.29333\include\xtree

; 2047 :         return _STD addressof(_Mypair._Myval2._Myval2);

  0000f	8b 45 f8	 mov	 eax, DWORD PTR $T1[ebp]
  00012	89 45 f4	 mov	 DWORD PTR __Scary$[ebp], eax

; 1239 :         const auto _Scary = _Get_scary();
; 1240 :         return iterator(_Scary->_Myhead->_Left, _Scary);

  00015	8b 45 f4	 mov	 eax, DWORD PTR __Scary$[ebp]
  00018	8b 00		 mov	 eax, DWORD PTR [eax]
  0001a	8b 00		 mov	 eax, DWORD PTR [eax]
  0001c	89 45 f0	 mov	 DWORD PTR ___param0$[ebp], eax

; 39   :     _Tree_unchecked_const_iterator(_Nodeptr _Pnode, const _Mytree* _Plist) noexcept : _Ptr(_Pnode) {

  0001f	8b 45 08	 mov	 eax, DWORD PTR ___$ReturnUdt$[ebp]
  00022	8b 4d f0	 mov	 ecx, DWORD PTR ___param0$[ebp]
  00025	89 08		 mov	 DWORD PTR [eax], ecx

; 1239 :         const auto _Scary = _Get_scary();
; 1240 :         return iterator(_Scary->_Myhead->_Left, _Scary);

  00027	8b 45 08	 mov	 eax, DWORD PTR ___$ReturnUdt$[ebp]

; 1241 :     }

  0002a	c9		 leave
  0002b	c2 04 00	 ret	 4
?begin@?$_Tree@V?$_Tmap_traits@KPAVCLight@@U?$less@K@std@@V?$allocator@U?$pair@$$CBKPAVCLight@@@std@@@3@$0A@@std@@@std@@QAE?AV?$_Tree_iterator@V?$_Tree_val@U?$_Tree_simple_types@U?$pair@$$CBKPAVCLight@@@std@@@std@@@std@@@2@XZ ENDP ; std::_Tree<std::_Tmap_traits<unsigned long,CLight *,std::less<unsigned long>,std::allocator<std::pair<unsigned long const ,CLight *> >,0> >::begin
_TEXT	ENDS
; Function compile flags: /Odspy
; File C:\Program Files (x86)\Microsoft Visual Studio\2019\Community\VC\Tools\MSVC\14.28.29333\include\xtree
; File C:\Program Files (x86)\Microsoft Visual Studio\2019\Community\VC\Tools\MSVC\14.28.29333\include\xstddef
; File C:\Program Files (x86)\Microsoft Visual Studio\2019\Community\VC\Tools\MSVC\14.28.29333\include\xtree
; File C:\Program Files (x86)\Microsoft Visual Studio\2019\Community\VC\Tools\MSVC\14.28.29333\include\xmemory
; File C:\Program Files (x86)\Microsoft Visual Studio\2019\Community\VC\Tools\MSVC\14.28.29333\include\xtree
;	COMDAT ??1?$_Tree@V?$_Tmap_traits@KPAVCLight@@U?$less@K@std@@V?$allocator@U?$pair@$$CBKPAVCLight@@@std@@@3@$0A@@std@@@std@@QAE@XZ
_TEXT	SEGMENT
$T1 = -20						; size = 4
$T2 = -16						; size = 4
$T3 = -12						; size = 4
_this$ = -8						; size = 4
__Scary$ = -4						; size = 4
??1?$_Tree@V?$_Tmap_traits@KPAVCLight@@U?$less@K@std@@V?$allocator@U?$pair@$$CBKPAVCLight@@@std@@@3@$0A@@std@@@std@@QAE@XZ PROC ; std::_Tree<std::_Tmap_traits<unsigned long,CLight *,std::less<unsigned long>,std::allocator<std::pair<unsigned long const ,CLight *> >,0> >::~_Tree<std::_Tmap_traits<unsigned long,CLight *,std::less<unsigned long>,std::allocator<std::pair<unsigned long const ,CLight *> >,0> >, COMDAT
; _this$ = ecx

; 1189 :     ~_Tree() noexcept {

  00000	55		 push	 ebp
  00001	8b ec		 mov	 ebp, esp
  00003	83 ec 14	 sub	 esp, 20			; 00000014H
  00006	89 4d f8	 mov	 DWORD PTR _this$[ebp], ecx

; 2047 :         return _STD addressof(_Mypair._Myval2._Myval2);

  00009	8b 45 f8	 mov	 eax, DWORD PTR _this$[ebp]
; File C:\Program Files (x86)\Microsoft Visual Studio\2019\Community\VC\Tools\MSVC\14.28.29333\include\xstddef

; 275  :     return __builtin_addressof(_Val);

  0000c	89 45 f0	 mov	 DWORD PTR $T2[ebp], eax
; File C:\Program Files (x86)\Microsoft Visual Studio\2019\Community\VC\Tools\MSVC\14.28.29333\include\xtree

; 2047 :         return _STD addressof(_Mypair._Myval2._Myval2);

  0000f	8b 45 f0	 mov	 eax, DWORD PTR $T2[ebp]
  00012	89 45 fc	 mov	 DWORD PTR __Scary$[ebp], eax

; 2039 :         return _Mypair._Myval2._Get_first();

  00015	8b 45 f8	 mov	 eax, DWORD PTR _this$[ebp]
; File C:\Program Files (x86)\Microsoft Visual Studio\2019\Community\VC\Tools\MSVC\14.28.29333\include\xmemory

; 1347 :         return *this;

  00018	89 45 ec	 mov	 DWORD PTR $T1[ebp], eax
; File C:\Program Files (x86)\Microsoft Visual Studio\2019\Community\VC\Tools\MSVC\14.28.29333\include\xtree

; 2039 :         return _Mypair._Myval2._Get_first();

  0001b	8b 45 ec	 mov	 eax, DWORD PTR $T1[ebp]
  0001e	89 45 f4	 mov	 DWORD PTR $T3[ebp], eax

; 752  :         _Erase_tree(_Al, _Myhead->_Parent);

  00021	8b 45 fc	 mov	 eax, DWORD PTR __Scary$[ebp]
  00024	8b 00		 mov	 eax, DWORD PTR [eax]
  00026	ff 70 04	 push	 DWORD PTR [eax+4]
  00029	ff 75 f4	 push	 DWORD PTR $T3[ebp]
  0002c	8b 4d fc	 mov	 ecx, DWORD PTR __Scary$[ebp]
  0002f	e8 00 00 00 00	 call	 ??$_Erase_tree@V?$allocator@U?$_Tree_node@U?$pair@$$CBKPAVCLight@@@std@@PAX@std@@@std@@@?$_Tree_val@U?$_Tree_simple_types@U?$pair@$$CBKPAVCLight@@@std@@@std@@@std@@QAEXAAV?$allocator@U?$_Tree_node@U?$pair@$$CBKPAVCLight@@@std@@PAX@std@@@1@PAU?$_Tree_node@U?$pair@$$CBKPAVCLight@@@std@@PAX@1@@Z ; std::_Tree_val<std::_Tree_simple_types<std::pair<unsigned long const ,CLight *> > >::_Erase_tree<std::allocator<std::_Tree_node<std::pair<unsigned long const ,CLight *>,void *> > >

; 753  :         _Alnode::value_type::_Freenode0(_Al, _Myhead);

  00034	8b 45 fc	 mov	 eax, DWORD PTR __Scary$[ebp]
  00037	ff 30		 push	 DWORD PTR [eax]
  00039	ff 75 f4	 push	 DWORD PTR $T3[ebp]
  0003c	e8 00 00 00 00	 call	 ??$_Freenode0@V?$allocator@U?$_Tree_node@U?$pair@$$CBKPAVCLight@@@std@@PAX@std@@@std@@@?$_Tree_node@U?$pair@$$CBKPAVCLight@@@std@@PAX@std@@SAXAAV?$allocator@U?$_Tree_node@U?$pair@$$CBKPAVCLight@@@std@@PAX@std@@@1@PAU01@@Z ; std::_Tree_node<std::pair<unsigned long const ,CLight *>,void *>::_Freenode0<std::allocator<std::_Tree_node<std::pair<unsigned long const ,CLight *>,void *> > >
  00041	59		 pop	 ecx
  00042	59		 pop	 ecx

; 1190 :         const auto _Scary = _Get_scary();
; 1191 :         _Scary->_Erase_head(_Getal());
; 1192 : #if _ITERATOR_DEBUG_LEVEL != 0 // TRANSITION, ABI
; 1193 :         auto&& _Alproxy = _GET_PROXY_ALLOCATOR(_Alnode, _Getal());
; 1194 :         _Delete_plain_internal(_Alproxy, _Scary->_Myproxy);
; 1195 : #endif // _ITERATOR_DEBUG_LEVEL != 0
; 1196 :     }

  00043	c9		 leave
  00044	c3		 ret	 0
??1?$_Tree@V?$_Tmap_traits@KPAVCLight@@U?$less@K@std@@V?$allocator@U?$pair@$$CBKPAVCLight@@@std@@@3@$0A@@std@@@std@@QAE@XZ ENDP ; std::_Tree<std::_Tmap_traits<unsigned long,CLight *,std::less<unsigned long>,std::allocator<std::pair<unsigned long const ,CLight *> >,0> >::~_Tree<std::_Tmap_traits<unsigned long,CLight *,std::less<unsigned long>,std::allocator<std::pair<unsigned long const ,CLight *> >,0> >
_TEXT	ENDS
; Function compile flags: /Odspy
; File C:\Program Files (x86)\Microsoft Visual Studio\2019\Community\VC\Tools\MSVC\14.28.29333\include\xtree
; File C:\Program Files (x86)\Microsoft Visual Studio\2019\Community\VC\Tools\MSVC\14.28.29333\include\type_traits
; File C:\Program Files (x86)\Microsoft Visual Studio\2019\Community\VC\Tools\MSVC\14.28.29333\include\xmemory
; File C:\Program Files (x86)\Microsoft Visual Studio\2019\Community\VC\Tools\MSVC\14.28.29333\include\xtree
;	COMDAT ??0?$_Tree@V?$_Tmap_traits@KPAVCLight@@U?$less@K@std@@V?$allocator@U?$pair@$$CBKPAVCLight@@@std@@@3@$0A@@std@@@std@@QAE@ABU?$less@K@1@@Z
_TEXT	SEGMENT
_this$ = -28						; size = 4
_this$ = -24						; size = 4
$T1 = -20						; size = 4
_this$2 = -16						; size = 4
_this$ = -12						; size = 4
___formal$ = -8						; size = 1
$T3 = -1						; size = 1
__Parg$ = 8						; size = 4
??0?$_Tree@V?$_Tmap_traits@KPAVCLight@@U?$less@K@std@@V?$allocator@U?$pair@$$CBKPAVCLight@@@std@@@3@$0A@@std@@@std@@QAE@ABU?$less@K@1@@Z PROC ; std::_Tree<std::_Tmap_traits<unsigned long,CLight *,std::less<unsigned long>,std::allocator<std::pair<unsigned long const ,CLight *> >,0> >::_Tree<std::_Tmap_traits<unsigned long,CLight *,std::less<unsigned long>,std::allocator<std::pair<unsigned long const ,CLight *> >,0> >, COMDAT
; _this$ = ecx

; 885  :     _Tree(const key_compare& _Parg) : _Mypair(_One_then_variadic_args_t{}, _Parg, _Zero_then_variadic_args_t{}) {

  00000	55		 push	 ebp
  00001	8b ec		 mov	 ebp, esp
  00003	83 ec 1c	 sub	 esp, 28			; 0000001cH
  00006	89 4d f4	 mov	 DWORD PTR _this$[ebp], ecx
  00009	8b 45 f4	 mov	 eax, DWORD PTR _this$[ebp]
  0000c	89 45 e8	 mov	 DWORD PTR _this$[ebp], eax
; File C:\Program Files (x86)\Microsoft Visual Studio\2019\Community\VC\Tools\MSVC\14.28.29333\include\type_traits

; 1443 :     return static_cast<_Ty&&>(_Arg);

  0000f	8d 45 ff	 lea	 eax, DWORD PTR $T3[ebp]
  00012	89 45 ec	 mov	 DWORD PTR $T1[ebp], eax
; File C:\Program Files (x86)\Microsoft Visual Studio\2019\Community\VC\Tools\MSVC\14.28.29333\include\xmemory

; 1344 :         : _Ty1(_STD forward<_Other1>(_Val1)), _Myval2(_STD forward<_Other2>(_Val2)...) {}

  00015	8b 45 ec	 mov	 eax, DWORD PTR $T1[ebp]
  00018	8a 00		 mov	 al, BYTE PTR [eax]
  0001a	88 45 f8	 mov	 BYTE PTR ___formal$[ebp], al
  0001d	8b 45 e8	 mov	 eax, DWORD PTR _this$[ebp]
  00020	89 45 e4	 mov	 DWORD PTR _this$[ebp], eax

; 1339 :         : _Ty1(), _Myval2(_STD forward<_Other2>(_Val2)...) {}

  00023	8b 45 e4	 mov	 eax, DWORD PTR _this$[ebp]
  00026	89 45 f0	 mov	 DWORD PTR _this$2[ebp], eax
; File C:\Program Files (x86)\Microsoft Visual Studio\2019\Community\VC\Tools\MSVC\14.28.29333\include\xtree

; 435  :     _Tree_val() noexcept : _Myhead(), _Mysize(0) {}

  00029	8b 45 f0	 mov	 eax, DWORD PTR _this$2[ebp]
  0002c	83 20 00	 and	 DWORD PTR [eax], 0
  0002f	8b 45 f0	 mov	 eax, DWORD PTR _this$2[ebp]
  00032	83 60 04 00	 and	 DWORD PTR [eax+4], 0

; 886  :         _Alloc_sentinel_and_proxy();

  00036	8b 4d f4	 mov	 ecx, DWORD PTR _this$[ebp]
  00039	e8 00 00 00 00	 call	 ?_Alloc_sentinel_and_proxy@?$_Tree@V?$_Tmap_traits@KPAVCLight@@U?$less@K@std@@V?$allocator@U?$pair@$$CBKPAVCLight@@@std@@@3@$0A@@std@@@std@@IAEXXZ ; std::_Tree<std::_Tmap_traits<unsigned long,CLight *,std::less<unsigned long>,std::allocator<std::pair<unsigned long const ,CLight *> >,0> >::_Alloc_sentinel_and_proxy

; 887  :     }

  0003e	8b 45 f4	 mov	 eax, DWORD PTR _this$[ebp]
  00041	c9		 leave
  00042	c2 04 00	 ret	 4
??0?$_Tree@V?$_Tmap_traits@KPAVCLight@@U?$less@K@std@@V?$allocator@U?$pair@$$CBKPAVCLight@@@std@@@3@$0A@@std@@@std@@QAE@ABU?$less@K@1@@Z ENDP ; std::_Tree<std::_Tmap_traits<unsigned long,CLight *,std::less<unsigned long>,std::allocator<std::pair<unsigned long const ,CLight *> >,0> >::_Tree<std::_Tmap_traits<unsigned long,CLight *,std::less<unsigned long>,std::allocator<std::pair<unsigned long const ,CLight *> >,0> >
_TEXT	ENDS
; Function compile flags: /Odspy
; File C:\Program Files (x86)\Microsoft Visual Studio\2019\Community\VC\Tools\MSVC\14.28.29333\include\deque
; File C:\Program Files (x86)\Microsoft Visual Studio\2019\Community\VC\Tools\MSVC\14.28.29333\include\xmemory
; File C:\Program Files (x86)\Microsoft Visual Studio\2019\Community\VC\Tools\MSVC\14.28.29333\include\deque
;	COMDAT ??0?$_Deque_val@U?$_Deque_simple_types@K@std@@@std@@QAE@XZ
_TEXT	SEGMENT
_this$ = -4						; size = 4
??0?$_Deque_val@U?$_Deque_simple_types@K@std@@@std@@QAE@XZ PROC ; std::_Deque_val<std::_Deque_simple_types<unsigned long> >::_Deque_val<std::_Deque_simple_types<unsigned long> >, COMDAT
; _this$ = ecx

; 544  :     _Deque_val() noexcept : _Map(), _Mapsize(0), _Myoff(0), _Mysize(0) {}

  00000	55		 push	 ebp
  00001	8b ec		 mov	 ebp, esp
  00003	51		 push	 ecx
  00004	89 4d fc	 mov	 DWORD PTR _this$[ebp], ecx
; File C:\Program Files (x86)\Microsoft Visual Studio\2019\Community\VC\Tools\MSVC\14.28.29333\include\xmemory

; 1097 :     _Container_base12() noexcept : _Myproxy(nullptr) {}

  00007	8b 45 fc	 mov	 eax, DWORD PTR _this$[ebp]
  0000a	83 20 00	 and	 DWORD PTR [eax], 0
; File C:\Program Files (x86)\Microsoft Visual Studio\2019\Community\VC\Tools\MSVC\14.28.29333\include\deque

; 544  :     _Deque_val() noexcept : _Map(), _Mapsize(0), _Myoff(0), _Mysize(0) {}

  0000d	8b 45 fc	 mov	 eax, DWORD PTR _this$[ebp]
  00010	83 60 04 00	 and	 DWORD PTR [eax+4], 0
  00014	8b 45 fc	 mov	 eax, DWORD PTR _this$[ebp]
  00017	83 60 08 00	 and	 DWORD PTR [eax+8], 0
  0001b	8b 45 fc	 mov	 eax, DWORD PTR _this$[ebp]
  0001e	83 60 0c 00	 and	 DWORD PTR [eax+12], 0
  00022	8b 45 fc	 mov	 eax, DWORD PTR _this$[ebp]
  00025	83 60 10 00	 and	 DWORD PTR [eax+16], 0
  00029	8b 45 fc	 mov	 eax, DWORD PTR _this$[ebp]
  0002c	c9		 leave
  0002d	c3		 ret	 0
??0?$_Deque_val@U?$_Deque_simple_types@K@std@@@std@@QAE@XZ ENDP ; std::_Deque_val<std::_Deque_simple_types<unsigned long> >::_Deque_val<std::_Deque_simple_types<unsigned long> >
_TEXT	ENDS
; Function compile flags: /Odspy
; File C:\Program Files (x86)\Microsoft Visual Studio\2019\Community\VC\Tools\MSVC\14.28.29333\include\deque
; File C:\Program Files (x86)\Microsoft Visual Studio\2019\Community\VC\Tools\MSVC\14.28.29333\include\xmemory
; File C:\Program Files (x86)\Microsoft Visual Studio\2019\Community\VC\Tools\MSVC\14.28.29333\include\deque
; File C:\Program Files (x86)\Microsoft Visual Studio\2019\Community\VC\Tools\MSVC\14.28.29333\include\xmemory
; File C:\Program Files (x86)\Microsoft Visual Studio\2019\Community\VC\Tools\MSVC\14.28.29333\include\deque
; File C:\Program Files (x86)\Microsoft Visual Studio\2019\Community\VC\Tools\MSVC\14.28.29333\include\xmemory
; File C:\Program Files (x86)\Microsoft Visual Studio\2019\Community\VC\Tools\MSVC\14.28.29333\include\deque
; File C:\Program Files (x86)\Microsoft Visual Studio\2019\Community\VC\Tools\MSVC\14.28.29333\include\xmemory
; File C:\Program Files (x86)\Microsoft Visual Studio\2019\Community\VC\Tools\MSVC\14.28.29333\include\deque
;	COMDAT ?_Tidy@?$deque@KV?$allocator@K@std@@@std@@AAEXXZ
_TEXT	SEGMENT
$T1 = -128						; size = 4
$T2 = -124						; size = 4
$T3 = -120						; size = 4
$T4 = -116						; size = 4
$T5 = -112						; size = 4
$T6 = -108						; size = 4
$T7 = -104						; size = 4
__Ptr$ = -100						; size = 4
__Count$ = -96						; size = 4
$T8 = -92						; size = 4
$T9 = -88						; size = 4
$T10 = -84						; size = 4
$T11 = -80						; size = 4
$T12 = -76						; size = 4
$T13 = -72						; size = 4
$T14 = -68						; size = 4
$T15 = -64						; size = 4
__Ptr$ = -60						; size = 4
$T16 = -56						; size = 4
$T17 = -52						; size = 4
$T18 = -48						; size = 4
$T19 = -44						; size = 4
$T20 = -40						; size = 4
$T21 = -36						; size = 4
$T22 = -32						; size = 4
$T23 = -28						; size = 4
$T24 = -24						; size = 4
$T25 = -20						; size = 4
tv149 = -16						; size = 4
__Block$26 = -12					; size = 4
_this$ = -8						; size = 4
$T27 = -1						; size = 1
?_Tidy@?$deque@KV?$allocator@K@std@@@std@@AAEXXZ PROC	; std::deque<unsigned long,std::allocator<unsigned long> >::_Tidy, COMDAT
; _this$ = ecx

; 1469 :     void _Tidy() noexcept { // free all storage

  00000	55		 push	 ebp
  00001	8b ec		 mov	 ebp, esp
  00003	81 ec 80 00 00
	00		 sub	 esp, 128		; 00000080H
  00009	89 4d f8	 mov	 DWORD PTR _this$[ebp], ecx

; 1530 :         return _Mypair._Myval2;

  0000c	8b 45 f8	 mov	 eax, DWORD PTR _this$[ebp]
  0000f	89 45 88	 mov	 DWORD PTR $T3[ebp], eax

; 1522 :         return _Mypair._Get_first();

  00012	8b 45 f8	 mov	 eax, DWORD PTR _this$[ebp]
; File C:\Program Files (x86)\Microsoft Visual Studio\2019\Community\VC\Tools\MSVC\14.28.29333\include\xmemory

; 1347 :         return *this;

  00015	89 45 ec	 mov	 DWORD PTR $T25[ebp], eax
; File C:\Program Files (x86)\Microsoft Visual Studio\2019\Community\VC\Tools\MSVC\14.28.29333\include\deque

; 1522 :         return _Mypair._Get_first();

  00018	8b 45 ec	 mov	 eax, DWORD PTR $T25[ebp]
  0001b	89 45 84	 mov	 DWORD PTR $T2[ebp], eax
$LN2@Tidy:

; 1534 :         return _Mypair._Myval2;

  0001e	8b 45 f8	 mov	 eax, DWORD PTR _this$[ebp]
  00021	89 45 e8	 mov	 DWORD PTR $T24[ebp], eax

; 1566 :         return _Get_data()._Mysize;

  00024	8b 45 e8	 mov	 eax, DWORD PTR $T24[ebp]
  00027	83 c0 10	 add	 eax, 16			; 00000010H
  0002a	89 45 e4	 mov	 DWORD PTR $T23[ebp], eax

; 1010 :         return _Mysize() == 0;

  0002d	8b 45 e4	 mov	 eax, DWORD PTR $T23[ebp]
  00030	83 38 00	 cmp	 DWORD PTR [eax], 0
  00033	75 09		 jne	 SHORT $LN30@Tidy
  00035	c7 45 f0 01 00
	00 00		 mov	 DWORD PTR tv149[ebp], 1
  0003c	eb 04		 jmp	 SHORT $LN31@Tidy
$LN30@Tidy:
  0003e	83 65 f0 00	 and	 DWORD PTR tv149[ebp], 0
$LN31@Tidy:
  00042	8a 45 f0	 mov	 al, BYTE PTR tv149[ebp]
  00045	88 45 ff	 mov	 BYTE PTR $T27[ebp], al

; 1470 :         _Orphan_all();
; 1471 : 
; 1472 :         _Alpty _Almap(_Getal());
; 1473 :         while (!empty()) {

  00048	0f b6 45 ff	 movzx	 eax, BYTE PTR $T27[ebp]
  0004c	85 c0		 test	 eax, eax
  0004e	75 0a		 jne	 SHORT $LN3@Tidy

; 1474 :             pop_back();

  00050	8b 4d f8	 mov	 ecx, DWORD PTR _this$[ebp]
  00053	e8 00 00 00 00	 call	 ?pop_back@?$deque@KV?$allocator@K@std@@@std@@QAEXXZ ; std::deque<unsigned long,std::allocator<unsigned long> >::pop_back

; 1475 :         }

  00058	eb c4		 jmp	 SHORT $LN2@Tidy
$LN3@Tidy:

; 1530 :         return _Mypair._Myval2;

  0005a	8b 45 f8	 mov	 eax, DWORD PTR _this$[ebp]
  0005d	89 45 e0	 mov	 DWORD PTR $T22[ebp], eax

; 1546 :         return _Get_data()._Mapsize;

  00060	8b 45 e0	 mov	 eax, DWORD PTR $T22[ebp]
  00063	83 c0 08	 add	 eax, 8
  00066	89 45 dc	 mov	 DWORD PTR $T21[ebp], eax

; 1476 : 
; 1477 :         for (size_type _Block = _Mapsize(); 0 < _Block;) { // free storage for a block and destroy pointer

  00069	8b 45 dc	 mov	 eax, DWORD PTR $T21[ebp]
  0006c	8b 00		 mov	 eax, DWORD PTR [eax]
  0006e	89 45 f4	 mov	 DWORD PTR __Block$26[ebp], eax
$LN6@Tidy:
  00071	83 7d f4 00	 cmp	 DWORD PTR __Block$26[ebp], 0
  00075	0f 86 84 00 00
	00		 jbe	 $LN5@Tidy

; 1478 :             if (_Map()[--_Block]) { // free block and destroy its pointer

  0007b	8b 45 f4	 mov	 eax, DWORD PTR __Block$26[ebp]
  0007e	48		 dec	 eax
  0007f	89 45 f4	 mov	 DWORD PTR __Block$26[ebp], eax

; 1530 :         return _Mypair._Myval2;

  00082	8b 45 f8	 mov	 eax, DWORD PTR _this$[ebp]
  00085	89 45 d8	 mov	 DWORD PTR $T20[ebp], eax

; 1538 :         return _Get_data()._Map;

  00088	8b 45 d8	 mov	 eax, DWORD PTR $T20[ebp]
  0008b	83 c0 04	 add	 eax, 4
  0008e	89 45 d4	 mov	 DWORD PTR $T19[ebp], eax

; 1478 :             if (_Map()[--_Block]) { // free block and destroy its pointer

  00091	8b 45 d4	 mov	 eax, DWORD PTR $T19[ebp]
  00094	8b 00		 mov	 eax, DWORD PTR [eax]
  00096	8b 4d f4	 mov	 ecx, DWORD PTR __Block$26[ebp]
  00099	83 3c 88 00	 cmp	 DWORD PTR [eax+ecx*4], 0
  0009d	74 5b		 je	 SHORT $LN7@Tidy

; 1530 :         return _Mypair._Myval2;

  0009f	8b 45 f8	 mov	 eax, DWORD PTR _this$[ebp]
  000a2	89 45 d0	 mov	 DWORD PTR $T18[ebp], eax

; 1538 :         return _Get_data()._Map;

  000a5	8b 45 d0	 mov	 eax, DWORD PTR $T18[ebp]
  000a8	83 c0 04	 add	 eax, 4
  000ab	89 45 c8	 mov	 DWORD PTR $T16[ebp], eax

; 1522 :         return _Mypair._Get_first();

  000ae	8b 45 f8	 mov	 eax, DWORD PTR _this$[ebp]
; File C:\Program Files (x86)\Microsoft Visual Studio\2019\Community\VC\Tools\MSVC\14.28.29333\include\xmemory

; 1347 :         return *this;

  000b1	89 45 cc	 mov	 DWORD PTR $T17[ebp], eax
; File C:\Program Files (x86)\Microsoft Visual Studio\2019\Community\VC\Tools\MSVC\14.28.29333\include\deque

; 1522 :         return _Mypair._Get_first();

  000b4	8b 45 cc	 mov	 eax, DWORD PTR $T17[ebp]
  000b7	89 45 80	 mov	 DWORD PTR $T1[ebp], eax

; 1479 :                 _Getal().deallocate(_Map()[_Block], _DEQUESIZ);

  000ba	8b 45 c8	 mov	 eax, DWORD PTR $T16[ebp]
  000bd	8b 00		 mov	 eax, DWORD PTR [eax]
  000bf	8b 4d f4	 mov	 ecx, DWORD PTR __Block$26[ebp]
  000c2	8b 04 88	 mov	 eax, DWORD PTR [eax+ecx*4]
  000c5	89 45 c4	 mov	 DWORD PTR __Ptr$[ebp], eax
; File C:\Program Files (x86)\Microsoft Visual Studio\2019\Community\VC\Tools\MSVC\14.28.29333\include\xmemory

; 810  :         _Deallocate<_New_alignof<_Ty>>(_Ptr, sizeof(_Ty) * _Count);

  000c8	6a 04		 push	 4
  000ca	58		 pop	 eax
  000cb	c1 e0 02	 shl	 eax, 2
  000ce	50		 push	 eax
  000cf	ff 75 c4	 push	 DWORD PTR __Ptr$[ebp]
  000d2	e8 00 00 00 00	 call	 ??$_Deallocate@$07$0A@@std@@YAXPAXI@Z ; std::_Deallocate<8,0>
  000d7	59		 pop	 ecx
  000d8	59		 pop	 ecx
; File C:\Program Files (x86)\Microsoft Visual Studio\2019\Community\VC\Tools\MSVC\14.28.29333\include\deque

; 1530 :         return _Mypair._Myval2;

  000d9	8b 45 f8	 mov	 eax, DWORD PTR _this$[ebp]
  000dc	89 45 c0	 mov	 DWORD PTR $T15[ebp], eax

; 1538 :         return _Get_data()._Map;

  000df	8b 45 c0	 mov	 eax, DWORD PTR $T15[ebp]
  000e2	83 c0 04	 add	 eax, 4
  000e5	89 45 bc	 mov	 DWORD PTR $T14[ebp], eax

; 1480 :                 _Destroy_in_place(_Map()[_Block]);

  000e8	8b 45 bc	 mov	 eax, DWORD PTR $T14[ebp]
  000eb	8b 00		 mov	 eax, DWORD PTR [eax]
  000ed	8b 4d f4	 mov	 ecx, DWORD PTR __Block$26[ebp]
  000f0	8d 04 88	 lea	 eax, DWORD PTR [eax+ecx*4]
  000f3	50		 push	 eax
  000f4	e8 00 00 00 00	 call	 ??$_Destroy_in_place@PAK@std@@YAXAAPAK@Z ; std::_Destroy_in_place<unsigned long *>
  000f9	59		 pop	 ecx
$LN7@Tidy:

; 1481 :             }
; 1482 :         }

  000fa	e9 72 ff ff ff	 jmp	 $LN6@Tidy
$LN5@Tidy:

; 1530 :         return _Mypair._Myval2;

  000ff	8b 45 f8	 mov	 eax, DWORD PTR _this$[ebp]
  00102	89 45 b8	 mov	 DWORD PTR $T13[ebp], eax

; 1538 :         return _Get_data()._Map;

  00105	8b 45 b8	 mov	 eax, DWORD PTR $T13[ebp]
  00108	83 c0 04	 add	 eax, 4
  0010b	89 45 b4	 mov	 DWORD PTR $T12[ebp], eax

; 1483 : 
; 1484 :         if (_Map() != _Mapptr()) {

  0010e	8b 45 b4	 mov	 eax, DWORD PTR $T12[ebp]
  00111	83 38 00	 cmp	 DWORD PTR [eax], 0
  00114	74 3f		 je	 SHORT $LN8@Tidy

; 1530 :         return _Mypair._Myval2;

  00116	8b 45 f8	 mov	 eax, DWORD PTR _this$[ebp]
  00119	89 45 b0	 mov	 DWORD PTR $T11[ebp], eax

; 1546 :         return _Get_data()._Mapsize;

  0011c	8b 45 b0	 mov	 eax, DWORD PTR $T11[ebp]
  0011f	83 c0 08	 add	 eax, 8
  00122	89 45 a8	 mov	 DWORD PTR $T9[ebp], eax

; 1530 :         return _Mypair._Myval2;

  00125	8b 45 f8	 mov	 eax, DWORD PTR _this$[ebp]
  00128	89 45 ac	 mov	 DWORD PTR $T10[ebp], eax

; 1538 :         return _Get_data()._Map;

  0012b	8b 45 ac	 mov	 eax, DWORD PTR $T10[ebp]
  0012e	83 c0 04	 add	 eax, 4
  00131	89 45 a4	 mov	 DWORD PTR $T8[ebp], eax

; 1485 :             _Almap.deallocate(_Map(), _Mapsize()); // free storage for map

  00134	8b 45 a8	 mov	 eax, DWORD PTR $T9[ebp]
  00137	8b 00		 mov	 eax, DWORD PTR [eax]
  00139	89 45 a0	 mov	 DWORD PTR __Count$[ebp], eax
  0013c	8b 45 a4	 mov	 eax, DWORD PTR $T8[ebp]
  0013f	8b 00		 mov	 eax, DWORD PTR [eax]
  00141	89 45 9c	 mov	 DWORD PTR __Ptr$[ebp], eax
; File C:\Program Files (x86)\Microsoft Visual Studio\2019\Community\VC\Tools\MSVC\14.28.29333\include\xmemory

; 810  :         _Deallocate<_New_alignof<_Ty>>(_Ptr, sizeof(_Ty) * _Count);

  00144	8b 45 a0	 mov	 eax, DWORD PTR __Count$[ebp]
  00147	c1 e0 02	 shl	 eax, 2
  0014a	50		 push	 eax
  0014b	ff 75 9c	 push	 DWORD PTR __Ptr$[ebp]
  0014e	e8 00 00 00 00	 call	 ??$_Deallocate@$07$0A@@std@@YAXPAXI@Z ; std::_Deallocate<8,0>
  00153	59		 pop	 ecx
  00154	59		 pop	 ecx
$LN8@Tidy:
; File C:\Program Files (x86)\Microsoft Visual Studio\2019\Community\VC\Tools\MSVC\14.28.29333\include\deque

; 1530 :         return _Mypair._Myval2;

  00155	8b 45 f8	 mov	 eax, DWORD PTR _this$[ebp]
  00158	89 45 98	 mov	 DWORD PTR $T7[ebp], eax

; 1546 :         return _Get_data()._Mapsize;

  0015b	8b 45 98	 mov	 eax, DWORD PTR $T7[ebp]
  0015e	83 c0 08	 add	 eax, 8
  00161	89 45 94	 mov	 DWORD PTR $T6[ebp], eax

; 1486 :         }
; 1487 : 
; 1488 :         _Mapsize() = 0;

  00164	8b 45 94	 mov	 eax, DWORD PTR $T6[ebp]
  00167	83 20 00	 and	 DWORD PTR [eax], 0

; 1530 :         return _Mypair._Myval2;

  0016a	8b 45 f8	 mov	 eax, DWORD PTR _this$[ebp]
  0016d	89 45 90	 mov	 DWORD PTR $T5[ebp], eax

; 1538 :         return _Get_data()._Map;

  00170	8b 45 90	 mov	 eax, DWORD PTR $T5[ebp]
  00173	83 c0 04	 add	 eax, 4
  00176	89 45 8c	 mov	 DWORD PTR $T4[ebp], eax

; 1489 :         _Map()     = _Mapptr();

  00179	8b 45 8c	 mov	 eax, DWORD PTR $T4[ebp]
  0017c	83 20 00	 and	 DWORD PTR [eax], 0

; 1490 :     }

  0017f	c9		 leave
  00180	c3		 ret	 0
?_Tidy@?$deque@KV?$allocator@K@std@@@std@@AAEXXZ ENDP	; std::deque<unsigned long,std::allocator<unsigned long> >::_Tidy
_TEXT	ENDS
; Function compile flags: /Odspy
; File C:\Program Files (x86)\Microsoft Visual Studio\2019\Community\VC\Tools\MSVC\14.28.29333\include\deque
; File C:\Program Files (x86)\Microsoft Visual Studio\2019\Community\VC\Tools\MSVC\14.28.29333\include\xmemory
; File C:\Program Files (x86)\Microsoft Visual Studio\2019\Community\VC\Tools\MSVC\14.28.29333\include\deque
; File C:\Program Files (x86)\Microsoft Visual Studio\2019\Community\VC\Tools\MSVC\14.28.29333\include\xmemory
; File C:\Program Files (x86)\Microsoft Visual Studio\2019\Community\VC\Tools\MSVC\14.28.29333\include\deque
; File C:\Program Files (x86)\Microsoft Visual Studio\2019\Community\VC\Tools\MSVC\14.28.29333\include\xmemory
; File C:\Program Files (x86)\Microsoft Visual Studio\2019\Community\VC\Tools\MSVC\14.28.29333\include\limits
; File C:\Program Files (x86)\Microsoft Visual Studio\2019\Community\VC\Tools\MSVC\14.28.29333\include\deque
; File C:\Program Files (x86)\Microsoft Visual Studio\2019\Community\VC\Tools\MSVC\14.28.29333\include\utility
; File C:\Program Files (x86)\Microsoft Visual Studio\2019\Community\VC\Tools\MSVC\14.28.29333\include\deque
; File C:\Program Files (x86)\Microsoft Visual Studio\2019\Community\VC\Tools\MSVC\14.28.29333\include\xmemory
; File C:\Program Files (x86)\Microsoft Visual Studio\2019\Community\VC\Tools\MSVC\14.28.29333\include\deque
; File C:\Program Files (x86)\Microsoft Visual Studio\2019\Community\VC\Tools\MSVC\14.28.29333\include\xmemory
; File C:\Program Files (x86)\Microsoft Visual Studio\2019\Community\VC\Tools\MSVC\14.28.29333\include\deque
;	COMDAT ?_Growmap@?$deque@KV?$allocator@K@std@@@std@@AAEXI@Z
_TEXT	SEGMENT
$T1 = -164						; size = 4
__Max_possible$2 = -160					; size = 4
$T3 = -156						; size = 4
$T4 = -152						; size = 4
$T5 = -148						; size = 4
$T6 = -144						; size = 4
$T7 = -140						; size = 4
__Ptr$ = -136						; size = 4
__Count$ = -132						; size = 4
$T8 = -128						; size = 4
$T9 = -124						; size = 4
$T10 = -120						; size = 4
$T11 = -116						; size = 4
$T12 = -112						; size = 4
$T13 = -108						; size = 4
$T14 = -104						; size = 4
$T15 = -100						; size = 4
$T16 = -96						; size = 4
$T17 = -92						; size = 4
$T18 = -88						; size = 4
$T19 = -84						; size = 4
$T20 = -80						; size = 4
$T21 = -76						; size = 4
$T22 = -72						; size = 4
$T23 = -68						; size = 4
$T24 = -64						; size = 4
$T25 = -60						; size = 4
$T26 = -56						; size = 4
$T27 = -52						; size = 4
$T28 = -48						; size = 4
$T29 = -44						; size = 4
$T30 = -40						; size = 4
$T31 = -36						; size = 4
$T32 = -32						; size = 4
$T33 = -28						; size = 4
$T34 = -24						; size = 4
$T35 = -20						; size = 4
$T36 = -16						; size = 4
$T37 = -12						; size = 4
$T38 = -8						; size = 4
$T39 = -4						; size = 4
$T40 = 0						; size = 4
$T41 = 4						; size = 4
$T42 = 8						; size = 4
$T43 = 12						; size = 4
$T44 = 16						; size = 4
$T45 = 20						; size = 4
$T46 = 24						; size = 4
$T47 = 28						; size = 4
$T48 = 32						; size = 4
$T49 = 36						; size = 4
$T50 = 40						; size = 4
$T51 = 44						; size = 4
$T52 = 48						; size = 4
$T53 = 52						; size = 4
$T54 = 56						; size = 4
$T55 = 60						; size = 4
$T56 = 64						; size = 4
__Count$ = 68						; size = 4
tv232 = 72						; size = 4
$T57 = 76						; size = 4
$T58 = 80						; size = 4
tv73 = 84						; size = 4
tv214 = 88						; size = 4
__Overflow_is_possible$59 = 95				; size = 1
__Newmap$ = 96						; size = 4
__Newsize$ = 100					; size = 4
__Myboff$ = 104						; size = 4
__Myptr$ = 108						; size = 4
_this$ = 112						; size = 4
__Count$ = 124						; size = 4
?_Growmap@?$deque@KV?$allocator@K@std@@@std@@AAEXI@Z PROC ; std::deque<unsigned long,std::allocator<unsigned long> >::_Growmap, COMDAT
; _this$ = ecx

; 1430 :     void _Growmap(size_type _Count) { // grow map by at least _Count pointers, _Mapsize() a power of 2

  00000	55		 push	 ebp
  00001	8d 6c 24 8c	 lea	 ebp, DWORD PTR [esp-116]
  00005	81 ec 18 01 00
	00		 sub	 esp, 280		; 00000118H
  0000b	89 4d 70	 mov	 DWORD PTR _this$[ebp], ecx

; 1522 :         return _Mypair._Get_first();

  0000e	8b 45 70	 mov	 eax, DWORD PTR _this$[ebp]
; File C:\Program Files (x86)\Microsoft Visual Studio\2019\Community\VC\Tools\MSVC\14.28.29333\include\xmemory

; 1347 :         return *this;

  00011	89 45 40	 mov	 DWORD PTR $T56[ebp], eax
; File C:\Program Files (x86)\Microsoft Visual Studio\2019\Community\VC\Tools\MSVC\14.28.29333\include\deque

; 1522 :         return _Mypair._Get_first();

  00014	8b 45 40	 mov	 eax, DWORD PTR $T56[ebp]
  00017	89 85 68 ff ff
	ff		 mov	 DWORD PTR $T4[ebp], eax

; 1530 :         return _Mypair._Myval2;

  0001d	8b 45 70	 mov	 eax, DWORD PTR _this$[ebp]
  00020	89 45 3c	 mov	 DWORD PTR $T55[ebp], eax

; 1546 :         return _Get_data()._Mapsize;

  00023	8b 45 3c	 mov	 eax, DWORD PTR $T55[ebp]
  00026	83 c0 08	 add	 eax, 8
  00029	89 45 38	 mov	 DWORD PTR $T54[ebp], eax

; 1431 :         static_assert(1 < _DEQUEMAPSIZ, "The _Xlen() test should always be performed.");
; 1432 : 
; 1433 :         _Alpty _Almap(_Getal());
; 1434 :         size_type _Newsize = 0 < _Mapsize() ? _Mapsize() : 1;

  0002c	8b 45 38	 mov	 eax, DWORD PTR $T54[ebp]
  0002f	83 38 00	 cmp	 DWORD PTR [eax], 0
  00032	76 19		 jbe	 SHORT $LN10@Growmap

; 1530 :         return _Mypair._Myval2;

  00034	8b 45 70	 mov	 eax, DWORD PTR _this$[ebp]
  00037	89 45 34	 mov	 DWORD PTR $T53[ebp], eax

; 1546 :         return _Get_data()._Mapsize;

  0003a	8b 45 34	 mov	 eax, DWORD PTR $T53[ebp]
  0003d	83 c0 08	 add	 eax, 8
  00040	89 45 30	 mov	 DWORD PTR $T52[ebp], eax

; 1431 :         static_assert(1 < _DEQUEMAPSIZ, "The _Xlen() test should always be performed.");
; 1432 : 
; 1433 :         _Alpty _Almap(_Getal());
; 1434 :         size_type _Newsize = 0 < _Mapsize() ? _Mapsize() : 1;

  00043	8b 45 30	 mov	 eax, DWORD PTR $T52[ebp]
  00046	8b 00		 mov	 eax, DWORD PTR [eax]
  00048	89 45 54	 mov	 DWORD PTR tv73[ebp], eax
  0004b	eb 07		 jmp	 SHORT $LN11@Growmap
$LN10@Growmap:
  0004d	c7 45 54 01 00
	00 00		 mov	 DWORD PTR tv73[ebp], 1
$LN11@Growmap:
  00054	8b 45 54	 mov	 eax, DWORD PTR tv73[ebp]
  00057	89 45 64	 mov	 DWORD PTR __Newsize$[ebp], eax
$LN2@Growmap:

; 1530 :         return _Mypair._Myval2;

  0005a	8b 45 70	 mov	 eax, DWORD PTR _this$[ebp]
  0005d	89 45 2c	 mov	 DWORD PTR $T51[ebp], eax

; 1546 :         return _Get_data()._Mapsize;

  00060	8b 45 2c	 mov	 eax, DWORD PTR $T51[ebp]
  00063	83 c0 08	 add	 eax, 8
  00066	89 45 28	 mov	 DWORD PTR $T50[ebp], eax

; 1435 :         while (_Newsize - _Mapsize() < _Count || _Newsize < _DEQUEMAPSIZ) {

  00069	8b 45 28	 mov	 eax, DWORD PTR $T50[ebp]
  0006c	8b 4d 64	 mov	 ecx, DWORD PTR __Newsize$[ebp]
  0006f	2b 08		 sub	 ecx, DWORD PTR [eax]
  00071	3b 4d 7c	 cmp	 ecx, DWORD PTR __Count$[ebp]
  00074	72 06		 jb	 SHORT $LN4@Growmap
  00076	83 7d 64 08	 cmp	 DWORD PTR __Newsize$[ebp], 8
  0007a	73 70		 jae	 SHORT $LN3@Growmap
$LN4@Growmap:

; 1526 :         return _Mypair._Get_first();

  0007c	8b 45 70	 mov	 eax, DWORD PTR _this$[ebp]
; File C:\Program Files (x86)\Microsoft Visual Studio\2019\Community\VC\Tools\MSVC\14.28.29333\include\xmemory

; 1351 :         return *this;

  0007f	89 45 24	 mov	 DWORD PTR $T49[ebp], eax
; File C:\Program Files (x86)\Microsoft Visual Studio\2019\Community\VC\Tools\MSVC\14.28.29333\include\deque

; 1526 :         return _Mypair._Get_first();

  00082	8b 45 24	 mov	 eax, DWORD PTR $T49[ebp]
  00085	89 85 64 ff ff
	ff		 mov	 DWORD PTR $T3[ebp], eax
; File C:\Program Files (x86)\Microsoft Visual Studio\2019\Community\VC\Tools\MSVC\14.28.29333\include\xmemory

; 710  :         return static_cast<size_t>(-1) / sizeof(value_type);

  0008b	c7 45 50 ff ff
	ff 3f		 mov	 DWORD PTR $T58[ebp], 1073741823 ; 3fffffffH
; File C:\Program Files (x86)\Microsoft Visual Studio\2019\Community\VC\Tools\MSVC\14.28.29333\include\limits

; 557  :         return INT_MAX;

  00092	c7 45 20 ff ff
	ff 7f		 mov	 DWORD PTR $T48[ebp], 2147483647 ; 7fffffffH
; File C:\Program Files (x86)\Microsoft Visual Studio\2019\Community\VC\Tools\MSVC\14.28.29333\include\deque

; 1005 :         return (_STD min)(

  00099	8b 45 20	 mov	 eax, DWORD PTR $T48[ebp]
  0009c	89 45 4c	 mov	 DWORD PTR $T57[ebp], eax
; File C:\Program Files (x86)\Microsoft Visual Studio\2019\Community\VC\Tools\MSVC\14.28.29333\include\utility

; 68   :     return _Right < _Left ? _Right : _Left;

  0009f	8b 45 50	 mov	 eax, DWORD PTR $T58[ebp]
  000a2	3b 45 4c	 cmp	 eax, DWORD PTR $T57[ebp]
  000a5	73 08		 jae	 SHORT $LN56@Growmap
  000a7	8d 45 50	 lea	 eax, DWORD PTR $T58[ebp]
  000aa	89 45 48	 mov	 DWORD PTR tv232[ebp], eax
  000ad	eb 06		 jmp	 SHORT $LN57@Growmap
$LN56@Growmap:
  000af	8d 45 4c	 lea	 eax, DWORD PTR $T57[ebp]
  000b2	89 45 48	 mov	 DWORD PTR tv232[ebp], eax
$LN57@Growmap:
  000b5	8b 45 48	 mov	 eax, DWORD PTR tv232[ebp]
  000b8	89 45 1c	 mov	 DWORD PTR $T47[ebp], eax
  000bb	8b 45 1c	 mov	 eax, DWORD PTR $T47[ebp]
  000be	89 45 18	 mov	 DWORD PTR $T46[ebp], eax
; File C:\Program Files (x86)\Microsoft Visual Studio\2019\Community\VC\Tools\MSVC\14.28.29333\include\deque

; 1005 :         return (_STD min)(

  000c1	8b 45 18	 mov	 eax, DWORD PTR $T46[ebp]
  000c4	8b 00		 mov	 eax, DWORD PTR [eax]
  000c6	89 45 14	 mov	 DWORD PTR $T45[ebp], eax

; 1436 :             // scale _Newsize to 2^N >= _Mapsize() + _Count
; 1437 :             if (max_size() / _DEQUESIZ - _Newsize < _Newsize) {

  000c9	8b 45 14	 mov	 eax, DWORD PTR $T45[ebp]
  000cc	c1 e8 02	 shr	 eax, 2
  000cf	2b 45 64	 sub	 eax, DWORD PTR __Newsize$[ebp]
  000d2	3b 45 64	 cmp	 eax, DWORD PTR __Newsize$[ebp]
  000d5	73 08		 jae	 SHORT $LN5@Growmap

; 1438 :                 _Xlen(); // result too long

  000d7	8b 4d 70	 mov	 ecx, DWORD PTR _this$[ebp]
  000da	e8 00 00 00 00	 call	 ?_Xlen@?$deque@KV?$allocator@K@std@@@std@@ABEXXZ ; std::deque<unsigned long,std::allocator<unsigned long> >::_Xlen
$LN5@Growmap:

; 1439 :             }
; 1440 : 
; 1441 :             _Newsize *= 2;

  000df	8b 45 64	 mov	 eax, DWORD PTR __Newsize$[ebp]
  000e2	d1 e0		 shl	 eax, 1
  000e4	89 45 64	 mov	 DWORD PTR __Newsize$[ebp], eax

; 1442 :         }

  000e7	e9 6e ff ff ff	 jmp	 $LN2@Growmap
$LN3@Growmap:

; 1530 :         return _Mypair._Myval2;

  000ec	8b 45 70	 mov	 eax, DWORD PTR _this$[ebp]
  000ef	89 45 10	 mov	 DWORD PTR $T44[ebp], eax

; 1546 :         return _Get_data()._Mapsize;

  000f2	8b 45 10	 mov	 eax, DWORD PTR $T44[ebp]
  000f5	83 c0 08	 add	 eax, 8
  000f8	89 45 0c	 mov	 DWORD PTR $T43[ebp], eax

; 1443 :         _Count = _Newsize - _Mapsize();

  000fb	8b 45 0c	 mov	 eax, DWORD PTR $T43[ebp]
  000fe	8b 4d 64	 mov	 ecx, DWORD PTR __Newsize$[ebp]
  00101	2b 08		 sub	 ecx, DWORD PTR [eax]
  00103	89 4d 7c	 mov	 DWORD PTR __Count$[ebp], ecx

; 1530 :         return _Mypair._Myval2;

  00106	8b 45 70	 mov	 eax, DWORD PTR _this$[ebp]
  00109	89 45 08	 mov	 DWORD PTR $T42[ebp], eax

; 1554 :         return _Get_data()._Myoff;

  0010c	8b 45 08	 mov	 eax, DWORD PTR $T42[ebp]
  0010f	83 c0 0c	 add	 eax, 12			; 0000000cH
  00112	89 45 04	 mov	 DWORD PTR $T41[ebp], eax

; 1444 : 
; 1445 :         size_type _Myboff = _Myoff() / _DEQUESIZ;

  00115	8b 45 04	 mov	 eax, DWORD PTR $T41[ebp]
  00118	8b 00		 mov	 eax, DWORD PTR [eax]
  0011a	c1 e8 02	 shr	 eax, 2
  0011d	89 45 68	 mov	 DWORD PTR __Myboff$[ebp], eax

; 1530 :         return _Mypair._Myval2;

  00120	8b 45 70	 mov	 eax, DWORD PTR _this$[ebp]
  00123	89 45 00	 mov	 DWORD PTR $T40[ebp], eax

; 1546 :         return _Get_data()._Mapsize;

  00126	8b 45 00	 mov	 eax, DWORD PTR $T40[ebp]
  00129	83 c0 08	 add	 eax, 8
  0012c	89 45 fc	 mov	 DWORD PTR $T39[ebp], eax

; 1446 :         _Mapptr _Newmap   = _Almap.allocate(_Mapsize() + _Count);

  0012f	8b 45 fc	 mov	 eax, DWORD PTR $T39[ebp]
  00132	8b 00		 mov	 eax, DWORD PTR [eax]
  00134	03 45 7c	 add	 eax, DWORD PTR __Count$[ebp]
  00137	89 45 44	 mov	 DWORD PTR __Count$[ebp], eax
; File C:\Program Files (x86)\Microsoft Visual Studio\2019\Community\VC\Tools\MSVC\14.28.29333\include\xmemory

; 56   :     constexpr bool _Overflow_is_possible = _Ty_size > 1;

  0013a	c6 45 5f 01	 mov	 BYTE PTR __Overflow_is_possible$59[ebp], 1

; 57   : 
; 58   :     if _CONSTEXPR_IF (_Overflow_is_possible) {
; 59   :         constexpr size_t _Max_possible = static_cast<size_t>(-1) / _Ty_size;

  0013e	c7 85 60 ff ff
	ff ff ff ff 3f	 mov	 DWORD PTR __Max_possible$2[ebp], 1073741823 ; 3fffffffH

; 60   :         if (_Count > _Max_possible) {

  00148	81 7d 44 ff ff
	ff 3f		 cmp	 DWORD PTR __Count$[ebp], 1073741823 ; 3fffffffH
  0014f	76 05		 jbe	 SHORT $LN80@Growmap

; 61   :             _Throw_bad_array_new_length(); // multiply overflow

  00151	e8 00 00 00 00	 call	 ?_Throw_bad_array_new_length@std@@YAXXZ ; std::_Throw_bad_array_new_length
$LN80@Growmap:

; 62   :         }
; 63   :     }
; 64   : 
; 65   :     return _Count * _Ty_size;

  00156	8b 45 44	 mov	 eax, DWORD PTR __Count$[ebp]
  00159	c1 e0 02	 shl	 eax, 2
  0015c	89 45 f8	 mov	 DWORD PTR $T38[ebp], eax

; 814  :         return static_cast<_Ty*>(_Allocate<_New_alignof<_Ty>>(_Get_size_of_n<sizeof(_Ty)>(_Count)));

  0015f	ff 75 f8	 push	 DWORD PTR $T38[ebp]
  00162	e8 00 00 00 00	 call	 ??$_Allocate@$07U_Default_allocate_traits@std@@$0A@@std@@YAPAXI@Z ; std::_Allocate<8,std::_Default_allocate_traits,0>
  00167	59		 pop	 ecx
  00168	89 45 60	 mov	 DWORD PTR __Newmap$[ebp], eax
; File C:\Program Files (x86)\Microsoft Visual Studio\2019\Community\VC\Tools\MSVC\14.28.29333\include\deque

; 1447 :         _Mapptr _Myptr    = _Newmap + _Myboff;

  0016b	8b 45 68	 mov	 eax, DWORD PTR __Myboff$[ebp]
  0016e	8b 4d 60	 mov	 ecx, DWORD PTR __Newmap$[ebp]
  00171	8d 04 81	 lea	 eax, DWORD PTR [ecx+eax*4]
  00174	89 45 6c	 mov	 DWORD PTR __Myptr$[ebp], eax

; 1530 :         return _Mypair._Myval2;

  00177	8b 45 70	 mov	 eax, DWORD PTR _this$[ebp]
  0017a	89 45 f4	 mov	 DWORD PTR $T37[ebp], eax

; 1538 :         return _Get_data()._Map;

  0017d	8b 45 f4	 mov	 eax, DWORD PTR $T37[ebp]
  00180	83 c0 04	 add	 eax, 4
  00183	89 45 e4	 mov	 DWORD PTR $T33[ebp], eax

; 1530 :         return _Mypair._Myval2;

  00186	8b 45 70	 mov	 eax, DWORD PTR _this$[ebp]
  00189	89 45 f0	 mov	 DWORD PTR $T36[ebp], eax

; 1546 :         return _Get_data()._Mapsize;

  0018c	8b 45 f0	 mov	 eax, DWORD PTR $T36[ebp]
  0018f	83 c0 08	 add	 eax, 8
  00192	89 45 e8	 mov	 DWORD PTR $T34[ebp], eax

; 1530 :         return _Mypair._Myval2;

  00195	8b 45 70	 mov	 eax, DWORD PTR _this$[ebp]
  00198	89 45 ec	 mov	 DWORD PTR $T35[ebp], eax

; 1538 :         return _Get_data()._Map;

  0019b	8b 45 ec	 mov	 eax, DWORD PTR $T35[ebp]
  0019e	83 c0 04	 add	 eax, 4
  001a1	89 45 e0	 mov	 DWORD PTR $T32[ebp], eax

; 1448 : 
; 1449 :         _Myptr = _STD uninitialized_copy(_Map() + _Myboff, _Map() + _Mapsize(), _Myptr); // copy initial to end

  001a4	ff 75 6c	 push	 DWORD PTR __Myptr$[ebp]
  001a7	8b 45 e8	 mov	 eax, DWORD PTR $T34[ebp]
  001aa	8b 00		 mov	 eax, DWORD PTR [eax]
  001ac	8b 4d e4	 mov	 ecx, DWORD PTR $T33[ebp]
  001af	8b 09		 mov	 ecx, DWORD PTR [ecx]
  001b1	8d 04 81	 lea	 eax, DWORD PTR [ecx+eax*4]
  001b4	50		 push	 eax
  001b5	8b 45 e0	 mov	 eax, DWORD PTR $T32[ebp]
  001b8	8b 00		 mov	 eax, DWORD PTR [eax]
  001ba	8b 4d 68	 mov	 ecx, DWORD PTR __Myboff$[ebp]
  001bd	8d 04 88	 lea	 eax, DWORD PTR [eax+ecx*4]
  001c0	50		 push	 eax
  001c1	e8 00 00 00 00	 call	 ??$uninitialized_copy@PAPAKPAPAK@std@@YAPAPAKQAPAK0PAPAK@Z ; std::uninitialized_copy<unsigned long * *,unsigned long * *>
  001c6	83 c4 0c	 add	 esp, 12			; 0000000cH
  001c9	89 45 6c	 mov	 DWORD PTR __Myptr$[ebp], eax

; 1450 :         if (_Myboff <= _Count) { // increment greater than offset of initial block

  001cc	8b 45 68	 mov	 eax, DWORD PTR __Myboff$[ebp]
  001cf	3b 45 7c	 cmp	 eax, DWORD PTR __Count$[ebp]
  001d2	77 60		 ja	 SHORT $LN6@Growmap

; 1530 :         return _Mypair._Myval2;

  001d4	8b 45 70	 mov	 eax, DWORD PTR _this$[ebp]
  001d7	89 45 dc	 mov	 DWORD PTR $T31[ebp], eax

; 1538 :         return _Get_data()._Map;

  001da	8b 45 dc	 mov	 eax, DWORD PTR $T31[ebp]
  001dd	83 c0 04	 add	 eax, 4
  001e0	89 45 d4	 mov	 DWORD PTR $T29[ebp], eax

; 1530 :         return _Mypair._Myval2;

  001e3	8b 45 70	 mov	 eax, DWORD PTR _this$[ebp]
  001e6	89 45 d8	 mov	 DWORD PTR $T30[ebp], eax

; 1538 :         return _Get_data()._Map;

  001e9	8b 45 d8	 mov	 eax, DWORD PTR $T30[ebp]
  001ec	83 c0 04	 add	 eax, 4
  001ef	89 45 d0	 mov	 DWORD PTR $T28[ebp], eax

; 1451 :             _Myptr = _STD uninitialized_copy(_Map(), _Map() + _Myboff, _Myptr); // copy rest of old

  001f2	ff 75 6c	 push	 DWORD PTR __Myptr$[ebp]
  001f5	8b 45 d4	 mov	 eax, DWORD PTR $T29[ebp]
  001f8	8b 00		 mov	 eax, DWORD PTR [eax]
  001fa	8b 4d 68	 mov	 ecx, DWORD PTR __Myboff$[ebp]
  001fd	8d 04 88	 lea	 eax, DWORD PTR [eax+ecx*4]
  00200	50		 push	 eax
  00201	8b 45 d0	 mov	 eax, DWORD PTR $T28[ebp]
  00204	ff 30		 push	 DWORD PTR [eax]
  00206	e8 00 00 00 00	 call	 ??$uninitialized_copy@PAPAKPAPAK@std@@YAPAPAKQAPAK0PAPAK@Z ; std::uninitialized_copy<unsigned long * *,unsigned long * *>
  0020b	83 c4 0c	 add	 esp, 12			; 0000000cH
  0020e	89 45 6c	 mov	 DWORD PTR __Myptr$[ebp], eax

; 1452 :             _Uninitialized_value_construct_n_unchecked1(_Myptr, _Count - _Myboff); // clear suffix of new

  00211	8b 45 7c	 mov	 eax, DWORD PTR __Count$[ebp]
  00214	2b 45 68	 sub	 eax, DWORD PTR __Myboff$[ebp]
  00217	50		 push	 eax
  00218	ff 75 6c	 push	 DWORD PTR __Myptr$[ebp]
  0021b	e8 00 00 00 00	 call	 ??$_Uninitialized_value_construct_n_unchecked1@PAPAKI@std@@YAPAPAKPAPAKI@Z ; std::_Uninitialized_value_construct_n_unchecked1<unsigned long * *,unsigned int>
  00220	59		 pop	 ecx
  00221	59		 pop	 ecx

; 1453 :             _Uninitialized_value_construct_n_unchecked1(_Newmap, _Myboff); // clear prefix of new

  00222	ff 75 68	 push	 DWORD PTR __Myboff$[ebp]
  00225	ff 75 60	 push	 DWORD PTR __Newmap$[ebp]
  00228	e8 00 00 00 00	 call	 ??$_Uninitialized_value_construct_n_unchecked1@PAPAKI@std@@YAPAPAKPAPAKI@Z ; std::_Uninitialized_value_construct_n_unchecked1<unsigned long * *,unsigned int>
  0022d	59		 pop	 ecx
  0022e	59		 pop	 ecx

; 1454 :         } else { // increment not greater than offset of initial block

  0022f	e9 8b 00 00 00	 jmp	 $LN7@Growmap
$LN6@Growmap:

; 1530 :         return _Mypair._Myval2;

  00234	8b 45 70	 mov	 eax, DWORD PTR _this$[ebp]
  00237	89 45 cc	 mov	 DWORD PTR $T27[ebp], eax

; 1538 :         return _Get_data()._Map;

  0023a	8b 45 cc	 mov	 eax, DWORD PTR $T27[ebp]
  0023d	83 c0 04	 add	 eax, 4
  00240	89 45 c4	 mov	 DWORD PTR $T25[ebp], eax

; 1530 :         return _Mypair._Myval2;

  00243	8b 45 70	 mov	 eax, DWORD PTR _this$[ebp]
  00246	89 45 c8	 mov	 DWORD PTR $T26[ebp], eax

; 1538 :         return _Get_data()._Map;

  00249	8b 45 c8	 mov	 eax, DWORD PTR $T26[ebp]
  0024c	83 c0 04	 add	 eax, 4
  0024f	89 45 c0	 mov	 DWORD PTR $T24[ebp], eax

; 1455 :             _STD uninitialized_copy(_Map(), _Map() + _Count, _Myptr); // copy more old

  00252	ff 75 6c	 push	 DWORD PTR __Myptr$[ebp]
  00255	8b 45 c4	 mov	 eax, DWORD PTR $T25[ebp]
  00258	8b 00		 mov	 eax, DWORD PTR [eax]
  0025a	8b 4d 7c	 mov	 ecx, DWORD PTR __Count$[ebp]
  0025d	8d 04 88	 lea	 eax, DWORD PTR [eax+ecx*4]
  00260	50		 push	 eax
  00261	8b 45 c0	 mov	 eax, DWORD PTR $T24[ebp]
  00264	ff 30		 push	 DWORD PTR [eax]
  00266	e8 00 00 00 00	 call	 ??$uninitialized_copy@PAPAKPAPAK@std@@YAPAPAKQAPAK0PAPAK@Z ; std::uninitialized_copy<unsigned long * *,unsigned long * *>
  0026b	83 c4 0c	 add	 esp, 12			; 0000000cH

; 1530 :         return _Mypair._Myval2;

  0026e	8b 45 70	 mov	 eax, DWORD PTR _this$[ebp]
  00271	89 45 bc	 mov	 DWORD PTR $T23[ebp], eax

; 1538 :         return _Get_data()._Map;

  00274	8b 45 bc	 mov	 eax, DWORD PTR $T23[ebp]
  00277	83 c0 04	 add	 eax, 4
  0027a	89 45 b4	 mov	 DWORD PTR $T21[ebp], eax

; 1530 :         return _Mypair._Myval2;

  0027d	8b 45 70	 mov	 eax, DWORD PTR _this$[ebp]
  00280	89 45 b8	 mov	 DWORD PTR $T22[ebp], eax

; 1538 :         return _Get_data()._Map;

  00283	8b 45 b8	 mov	 eax, DWORD PTR $T22[ebp]
  00286	83 c0 04	 add	 eax, 4
  00289	89 45 b0	 mov	 DWORD PTR $T20[ebp], eax

; 1456 :             _Myptr = _STD uninitialized_copy(_Map() + _Count, _Map() + _Myboff, _Newmap); // copy rest of old

  0028c	ff 75 60	 push	 DWORD PTR __Newmap$[ebp]
  0028f	8b 45 b4	 mov	 eax, DWORD PTR $T21[ebp]
  00292	8b 00		 mov	 eax, DWORD PTR [eax]
  00294	8b 4d 68	 mov	 ecx, DWORD PTR __Myboff$[ebp]
  00297	8d 04 88	 lea	 eax, DWORD PTR [eax+ecx*4]
  0029a	50		 push	 eax
  0029b	8b 45 b0	 mov	 eax, DWORD PTR $T20[ebp]
  0029e	8b 00		 mov	 eax, DWORD PTR [eax]
  002a0	8b 4d 7c	 mov	 ecx, DWORD PTR __Count$[ebp]
  002a3	8d 04 88	 lea	 eax, DWORD PTR [eax+ecx*4]
  002a6	50		 push	 eax
  002a7	e8 00 00 00 00	 call	 ??$uninitialized_copy@PAPAKPAPAK@std@@YAPAPAKQAPAK0PAPAK@Z ; std::uninitialized_copy<unsigned long * *,unsigned long * *>
  002ac	83 c4 0c	 add	 esp, 12			; 0000000cH
  002af	89 45 6c	 mov	 DWORD PTR __Myptr$[ebp], eax

; 1457 :             _Uninitialized_value_construct_n_unchecked1(_Myptr, _Count); // clear rest to initial block

  002b2	ff 75 7c	 push	 DWORD PTR __Count$[ebp]
  002b5	ff 75 6c	 push	 DWORD PTR __Myptr$[ebp]
  002b8	e8 00 00 00 00	 call	 ??$_Uninitialized_value_construct_n_unchecked1@PAPAKI@std@@YAPAPAKPAPAKI@Z ; std::_Uninitialized_value_construct_n_unchecked1<unsigned long * *,unsigned int>
  002bd	59		 pop	 ecx
  002be	59		 pop	 ecx
$LN7@Growmap:

; 1530 :         return _Mypair._Myval2;

  002bf	8b 45 70	 mov	 eax, DWORD PTR _this$[ebp]
  002c2	89 45 ac	 mov	 DWORD PTR $T19[ebp], eax

; 1538 :         return _Get_data()._Map;

  002c5	8b 45 ac	 mov	 eax, DWORD PTR $T19[ebp]
  002c8	83 c0 04	 add	 eax, 4
  002cb	89 45 9c	 mov	 DWORD PTR $T15[ebp], eax

; 1530 :         return _Mypair._Myval2;

  002ce	8b 45 70	 mov	 eax, DWORD PTR _this$[ebp]
  002d1	89 45 a8	 mov	 DWORD PTR $T18[ebp], eax

; 1546 :         return _Get_data()._Mapsize;

  002d4	8b 45 a8	 mov	 eax, DWORD PTR $T18[ebp]
  002d7	83 c0 08	 add	 eax, 8
  002da	89 45 a0	 mov	 DWORD PTR $T16[ebp], eax

; 1530 :         return _Mypair._Myval2;

  002dd	8b 45 70	 mov	 eax, DWORD PTR _this$[ebp]
  002e0	89 45 a4	 mov	 DWORD PTR $T17[ebp], eax

; 1538 :         return _Get_data()._Map;

  002e3	8b 45 a4	 mov	 eax, DWORD PTR $T17[ebp]
  002e6	83 c0 04	 add	 eax, 4
  002e9	89 45 98	 mov	 DWORD PTR $T14[ebp], eax

; 1458 :         }
; 1459 : 
; 1460 :         _Destroy_range(_Map() + _Myboff, _Map() + _Mapsize());

  002ec	8b 45 a0	 mov	 eax, DWORD PTR $T16[ebp]
  002ef	8b 00		 mov	 eax, DWORD PTR [eax]
  002f1	8b 4d 9c	 mov	 ecx, DWORD PTR $T15[ebp]
  002f4	8b 09		 mov	 ecx, DWORD PTR [ecx]
  002f6	8d 04 81	 lea	 eax, DWORD PTR [ecx+eax*4]
  002f9	50		 push	 eax
  002fa	8b 45 98	 mov	 eax, DWORD PTR $T14[ebp]
  002fd	8b 00		 mov	 eax, DWORD PTR [eax]
  002ff	8b 4d 68	 mov	 ecx, DWORD PTR __Myboff$[ebp]
  00302	8d 04 88	 lea	 eax, DWORD PTR [eax+ecx*4]
  00305	50		 push	 eax
  00306	e8 00 00 00 00	 call	 ??$_Destroy_range@PAPAKPAPAK@std@@YAXPAPAKQAPAK@Z ; std::_Destroy_range<unsigned long * *,unsigned long * *>
  0030b	59		 pop	 ecx
  0030c	59		 pop	 ecx

; 1530 :         return _Mypair._Myval2;

  0030d	8b 45 70	 mov	 eax, DWORD PTR _this$[ebp]
  00310	89 45 94	 mov	 DWORD PTR $T13[ebp], eax

; 1538 :         return _Get_data()._Map;

  00313	8b 45 94	 mov	 eax, DWORD PTR $T13[ebp]
  00316	83 c0 04	 add	 eax, 4
  00319	89 45 90	 mov	 DWORD PTR $T12[ebp], eax

; 1461 :         if (_Map() != _Mapptr()) {

  0031c	8b 45 90	 mov	 eax, DWORD PTR $T12[ebp]
  0031f	83 38 00	 cmp	 DWORD PTR [eax], 0
  00322	74 4b		 je	 SHORT $LN8@Growmap

; 1530 :         return _Mypair._Myval2;

  00324	8b 45 70	 mov	 eax, DWORD PTR _this$[ebp]
  00327	89 45 8c	 mov	 DWORD PTR $T11[ebp], eax

; 1546 :         return _Get_data()._Mapsize;

  0032a	8b 45 8c	 mov	 eax, DWORD PTR $T11[ebp]
  0032d	83 c0 08	 add	 eax, 8
  00330	89 45 84	 mov	 DWORD PTR $T9[ebp], eax

; 1530 :         return _Mypair._Myval2;

  00333	8b 45 70	 mov	 eax, DWORD PTR _this$[ebp]
  00336	89 45 88	 mov	 DWORD PTR $T10[ebp], eax

; 1538 :         return _Get_data()._Map;

  00339	8b 45 88	 mov	 eax, DWORD PTR $T10[ebp]
  0033c	83 c0 04	 add	 eax, 4
  0033f	89 45 80	 mov	 DWORD PTR $T8[ebp], eax

; 1462 :             _Almap.deallocate(_Map(), _Mapsize()); // free storage for old

  00342	8b 45 84	 mov	 eax, DWORD PTR $T9[ebp]
  00345	8b 00		 mov	 eax, DWORD PTR [eax]
  00347	89 85 7c ff ff
	ff		 mov	 DWORD PTR __Count$[ebp], eax
  0034d	8b 45 80	 mov	 eax, DWORD PTR $T8[ebp]
  00350	8b 00		 mov	 eax, DWORD PTR [eax]
  00352	89 85 78 ff ff
	ff		 mov	 DWORD PTR __Ptr$[ebp], eax
; File C:\Program Files (x86)\Microsoft Visual Studio\2019\Community\VC\Tools\MSVC\14.28.29333\include\xmemory

; 810  :         _Deallocate<_New_alignof<_Ty>>(_Ptr, sizeof(_Ty) * _Count);

  00358	8b 85 7c ff ff
	ff		 mov	 eax, DWORD PTR __Count$[ebp]
  0035e	c1 e0 02	 shl	 eax, 2
  00361	50		 push	 eax
  00362	ff b5 78 ff ff
	ff		 push	 DWORD PTR __Ptr$[ebp]
  00368	e8 00 00 00 00	 call	 ??$_Deallocate@$07$0A@@std@@YAXPAXI@Z ; std::_Deallocate<8,0>
  0036d	59		 pop	 ecx
  0036e	59		 pop	 ecx
$LN8@Growmap:
; File C:\Program Files (x86)\Microsoft Visual Studio\2019\Community\VC\Tools\MSVC\14.28.29333\include\deque

; 1530 :         return _Mypair._Myval2;

  0036f	8b 45 70	 mov	 eax, DWORD PTR _this$[ebp]
  00372	89 85 74 ff ff
	ff		 mov	 DWORD PTR $T7[ebp], eax

; 1538 :         return _Get_data()._Map;

  00378	8b 85 74 ff ff
	ff		 mov	 eax, DWORD PTR $T7[ebp]
  0037e	83 c0 04	 add	 eax, 4
  00381	89 85 70 ff ff
	ff		 mov	 DWORD PTR $T6[ebp], eax

; 1463 :         }
; 1464 : 
; 1465 :         _Map() = _Newmap; // point at new

  00387	8b 85 70 ff ff
	ff		 mov	 eax, DWORD PTR $T6[ebp]
  0038d	8b 4d 60	 mov	 ecx, DWORD PTR __Newmap$[ebp]
  00390	89 08		 mov	 DWORD PTR [eax], ecx

; 1466 :         _Mapsize() += _Count;

  00392	8b 85 5c ff ff
	ff		 mov	 eax, DWORD PTR $T1[ebp]
  00398	89 45 58	 mov	 DWORD PTR tv214[ebp], eax

; 1530 :         return _Mypair._Myval2;

  0039b	8b 45 70	 mov	 eax, DWORD PTR _this$[ebp]
  0039e	89 85 6c ff ff
	ff		 mov	 DWORD PTR $T5[ebp], eax

; 1546 :         return _Get_data()._Mapsize;

  003a4	8b 85 6c ff ff
	ff		 mov	 eax, DWORD PTR $T5[ebp]
  003aa	83 c0 08	 add	 eax, 8
  003ad	89 45 58	 mov	 DWORD PTR tv214[ebp], eax

; 1466 :         _Mapsize() += _Count;

  003b0	8b 45 58	 mov	 eax, DWORD PTR tv214[ebp]
  003b3	8b 00		 mov	 eax, DWORD PTR [eax]
  003b5	03 45 7c	 add	 eax, DWORD PTR __Count$[ebp]
  003b8	8b 4d 58	 mov	 ecx, DWORD PTR tv214[ebp]
  003bb	89 01		 mov	 DWORD PTR [ecx], eax
$LN83@Growmap:

; 1467 :     }

  003bd	83 c5 74	 add	 ebp, 116		; 00000074H
  003c0	c9		 leave
  003c1	c2 04 00	 ret	 4
?_Growmap@?$deque@KV?$allocator@K@std@@@std@@AAEXI@Z ENDP ; std::deque<unsigned long,std::allocator<unsigned long> >::_Growmap
_TEXT	ENDS
; Function compile flags: /Odspy
; File C:\Program Files (x86)\Microsoft Visual Studio\2019\Community\VC\Tools\MSVC\14.28.29333\include\deque
;	COMDAT ?_Xlen@?$deque@KV?$allocator@K@std@@@std@@ABEXXZ
_TEXT	SEGMENT
_this$ = -4						; size = 4
?_Xlen@?$deque@KV?$allocator@K@std@@@std@@ABEXXZ PROC	; std::deque<unsigned long,std::allocator<unsigned long> >::_Xlen, COMDAT
; _this$ = ecx

; 1422 :     [[noreturn]] void _Xlen() const {

  00000	55		 push	 ebp
  00001	8b ec		 mov	 ebp, esp
  00003	51		 push	 ecx
  00004	89 4d fc	 mov	 DWORD PTR _this$[ebp], ecx

; 1423 :         _Xlength_error("deque<T> too long");

  00007	68 00 00 00 00	 push	 OFFSET ??_C@_0BC@KBDMBKEH@deque?$DMT?$DO?5too?5long@
  0000c	e8 00 00 00 00	 call	 ?_Xlength_error@std@@YAXPBD@Z ; std::_Xlength_error
$LN2@Xlen:

; 1424 :     }

  00011	c9		 leave
  00012	c3		 ret	 0
?_Xlen@?$deque@KV?$allocator@K@std@@@std@@ABEXXZ ENDP	; std::deque<unsigned long,std::allocator<unsigned long> >::_Xlen
_TEXT	ENDS
; Function compile flags: /Odspy
; File C:\Program Files (x86)\Microsoft Visual Studio\2019\Community\VC\Tools\MSVC\14.28.29333\include\deque
; File C:\Program Files (x86)\Microsoft Visual Studio\2019\Community\VC\Tools\MSVC\14.28.29333\include\xstddef
; File C:\Program Files (x86)\Microsoft Visual Studio\2019\Community\VC\Tools\MSVC\14.28.29333\include\deque
; File C:\Program Files (x86)\Microsoft Visual Studio\2019\Community\VC\Tools\MSVC\14.28.29333\include\xmemory
; File C:\Program Files (x86)\Microsoft Visual Studio\2019\Community\VC\Tools\MSVC\14.28.29333\include\deque
;	COMDAT ?pop_back@?$deque@KV?$allocator@K@std@@@std@@QAEXXZ
_TEXT	SEGMENT
$T1 = -80						; size = 4
$T2 = -76						; size = 4
$T3 = -72						; size = 4
$T4 = -68						; size = 4
$T5 = -64						; size = 4
$T6 = -60						; size = 4
$T7 = -56						; size = 4
__Ptr$ = -52						; size = 4
__Block$ = -48						; size = 4
$T8 = -44						; size = 4
$T9 = -40						; size = 4
$T10 = -36						; size = 4
$T11 = -32						; size = 4
$T12 = -28						; size = 4
$T13 = -24						; size = 4
$T14 = -20						; size = 4
$T15 = -16						; size = 4
__Newoff$ = -12						; size = 4
tv88 = -8						; size = 4
_this$ = -4						; size = 4
?pop_back@?$deque@KV?$allocator@K@std@@@std@@QAEXXZ PROC ; std::deque<unsigned long,std::allocator<unsigned long> >::pop_back, COMDAT
; _this$ = ecx

; 1126 :     void pop_back() noexcept /* strengthened */ {

  00000	55		 push	 ebp
  00001	8b ec		 mov	 ebp, esp
  00003	83 ec 50	 sub	 esp, 80			; 00000050H
  00006	89 4d fc	 mov	 DWORD PTR _this$[ebp], ecx

; 1530 :         return _Mypair._Myval2;

  00009	8b 45 fc	 mov	 eax, DWORD PTR _this$[ebp]
  0000c	89 45 f0	 mov	 DWORD PTR $T15[ebp], eax

; 1554 :         return _Get_data()._Myoff;

  0000f	8b 45 f0	 mov	 eax, DWORD PTR $T15[ebp]
  00012	83 c0 0c	 add	 eax, 12			; 0000000cH
  00015	89 45 e8	 mov	 DWORD PTR $T13[ebp], eax

; 1530 :         return _Mypair._Myval2;

  00018	8b 45 fc	 mov	 eax, DWORD PTR _this$[ebp]
  0001b	89 45 ec	 mov	 DWORD PTR $T14[ebp], eax

; 1562 :         return _Get_data()._Mysize;

  0001e	8b 45 ec	 mov	 eax, DWORD PTR $T14[ebp]
  00021	83 c0 10	 add	 eax, 16			; 00000010H
  00024	89 45 e4	 mov	 DWORD PTR $T12[ebp], eax

; 1127 : #if _ITERATOR_DEBUG_LEVEL == 2
; 1128 :         if (empty()) {
; 1129 :             _STL_REPORT_ERROR("deque empty before pop");
; 1130 :         } else { // something to erase, do it
; 1131 :             size_type _Newoff = _Myoff() + _Mysize() - 1;
; 1132 :             _Orphan_off(_Newoff);
; 1133 :             size_type _Block = _Getblock(_Newoff);
; 1134 :             _Alty_traits::destroy(_Getal(), _Unfancy(_Map()[_Block] + _Newoff % _DEQUESIZ));
; 1135 :             if (--_Mysize() == 0) {
; 1136 :                 _Myoff() = 0;
; 1137 :             }
; 1138 :         }
; 1139 : 
; 1140 : #else // _ITERATOR_DEBUG_LEVEL == 2
; 1141 :         size_type _Newoff = _Myoff() + _Mysize() - 1;

  00027	8b 45 e8	 mov	 eax, DWORD PTR $T13[ebp]
  0002a	8b 00		 mov	 eax, DWORD PTR [eax]
  0002c	8b 4d e4	 mov	 ecx, DWORD PTR $T12[ebp]
  0002f	8b 09		 mov	 ecx, DWORD PTR [ecx]
  00031	8d 44 08 ff	 lea	 eax, DWORD PTR [eax+ecx-1]
  00035	89 45 f4	 mov	 DWORD PTR __Newoff$[ebp], eax

; 1534 :         return _Mypair._Myval2;

  00038	8b 45 fc	 mov	 eax, DWORD PTR _this$[ebp]
  0003b	89 45 e0	 mov	 DWORD PTR $T11[ebp], eax

; 548  :         return (_Off / _DEQUESIZ) & (_Mapsize - 1);

  0003e	8b 45 f4	 mov	 eax, DWORD PTR __Newoff$[ebp]
  00041	c1 e8 02	 shr	 eax, 2
  00044	8b 4d e0	 mov	 ecx, DWORD PTR $T11[ebp]
  00047	8b 49 08	 mov	 ecx, DWORD PTR [ecx+8]
  0004a	49		 dec	 ecx
  0004b	23 c1		 and	 eax, ecx
  0004d	89 45 dc	 mov	 DWORD PTR $T10[ebp], eax

; 1514 :         return _Get_data()._Getblock(_Off);

  00050	8b 45 dc	 mov	 eax, DWORD PTR $T10[ebp]
  00053	89 45 d0	 mov	 DWORD PTR __Block$[ebp], eax

; 1530 :         return _Mypair._Myval2;

  00056	8b 45 fc	 mov	 eax, DWORD PTR _this$[ebp]
  00059	89 45 d8	 mov	 DWORD PTR $T9[ebp], eax

; 1538 :         return _Get_data()._Map;

  0005c	8b 45 d8	 mov	 eax, DWORD PTR $T9[ebp]
  0005f	83 c0 04	 add	 eax, 4
  00062	89 45 d4	 mov	 DWORD PTR $T8[ebp], eax

; 1142 :         size_type _Block  = _Getblock(_Newoff);
; 1143 :         _Alty_traits::destroy(_Getal(), _Unfancy(_Map()[_Block] + _Newoff % _DEQUESIZ));

  00065	8b 45 f4	 mov	 eax, DWORD PTR __Newoff$[ebp]
  00068	33 d2		 xor	 edx, edx
  0006a	6a 04		 push	 4
  0006c	59		 pop	 ecx
  0006d	f7 f1		 div	 ecx
  0006f	8b 45 d4	 mov	 eax, DWORD PTR $T8[ebp]
  00072	8b 00		 mov	 eax, DWORD PTR [eax]
  00074	8b 4d d0	 mov	 ecx, DWORD PTR __Block$[ebp]
  00077	8b 04 88	 mov	 eax, DWORD PTR [eax+ecx*4]
  0007a	8d 04 90	 lea	 eax, DWORD PTR [eax+edx*4]
  0007d	89 45 cc	 mov	 DWORD PTR __Ptr$[ebp], eax
; File C:\Program Files (x86)\Microsoft Visual Studio\2019\Community\VC\Tools\MSVC\14.28.29333\include\xstddef

; 289  :     return _Ptr;

  00080	8b 45 cc	 mov	 eax, DWORD PTR __Ptr$[ebp]
  00083	89 45 b8	 mov	 DWORD PTR $T3[ebp], eax
; File C:\Program Files (x86)\Microsoft Visual Studio\2019\Community\VC\Tools\MSVC\14.28.29333\include\deque

; 1522 :         return _Mypair._Get_first();

  00086	8b 45 fc	 mov	 eax, DWORD PTR _this$[ebp]
; File C:\Program Files (x86)\Microsoft Visual Studio\2019\Community\VC\Tools\MSVC\14.28.29333\include\xmemory

; 1347 :         return *this;

  00089	89 45 c8	 mov	 DWORD PTR $T7[ebp], eax
; File C:\Program Files (x86)\Microsoft Visual Studio\2019\Community\VC\Tools\MSVC\14.28.29333\include\deque

; 1522 :         return _Mypair._Get_first();

  0008c	8b 45 c8	 mov	 eax, DWORD PTR $T7[ebp]
  0008f	89 45 b4	 mov	 DWORD PTR $T2[ebp], eax

; 1144 :         if (--_Mysize() == 0) {

  00092	8b 45 b0	 mov	 eax, DWORD PTR $T1[ebp]
  00095	89 45 f8	 mov	 DWORD PTR tv88[ebp], eax

; 1530 :         return _Mypair._Myval2;

  00098	8b 45 fc	 mov	 eax, DWORD PTR _this$[ebp]
  0009b	89 45 c4	 mov	 DWORD PTR $T6[ebp], eax

; 1562 :         return _Get_data()._Mysize;

  0009e	8b 45 c4	 mov	 eax, DWORD PTR $T6[ebp]
  000a1	83 c0 10	 add	 eax, 16			; 00000010H
  000a4	89 45 f8	 mov	 DWORD PTR tv88[ebp], eax

; 1144 :         if (--_Mysize() == 0) {

  000a7	8b 45 f8	 mov	 eax, DWORD PTR tv88[ebp]
  000aa	8b 00		 mov	 eax, DWORD PTR [eax]
  000ac	48		 dec	 eax
  000ad	8b 4d f8	 mov	 ecx, DWORD PTR tv88[ebp]
  000b0	89 01		 mov	 DWORD PTR [ecx], eax
  000b2	8b 45 f8	 mov	 eax, DWORD PTR tv88[ebp]
  000b5	83 38 00	 cmp	 DWORD PTR [eax], 0
  000b8	75 15		 jne	 SHORT $LN3@pop_back

; 1530 :         return _Mypair._Myval2;

  000ba	8b 45 fc	 mov	 eax, DWORD PTR _this$[ebp]
  000bd	89 45 c0	 mov	 DWORD PTR $T5[ebp], eax

; 1554 :         return _Get_data()._Myoff;

  000c0	8b 45 c0	 mov	 eax, DWORD PTR $T5[ebp]
  000c3	83 c0 0c	 add	 eax, 12			; 0000000cH
  000c6	89 45 bc	 mov	 DWORD PTR $T4[ebp], eax

; 1145 :             _Myoff() = 0;

  000c9	8b 45 bc	 mov	 eax, DWORD PTR $T4[ebp]
  000cc	83 20 00	 and	 DWORD PTR [eax], 0
$LN3@pop_back:

; 1146 :         }
; 1147 : #endif // _ITERATOR_DEBUG_LEVEL == 2
; 1148 :     }

  000cf	c9		 leave
  000d0	c3		 ret	 0
?pop_back@?$deque@KV?$allocator@K@std@@@std@@QAEXXZ ENDP ; std::deque<unsigned long,std::allocator<unsigned long> >::pop_back
_TEXT	ENDS
; Function compile flags: /Odspy
; File C:\Program Files (x86)\Microsoft Visual Studio\2019\Community\VC\Tools\MSVC\14.28.29333\include\deque
; File C:\Program Files (x86)\Microsoft Visual Studio\2019\Community\VC\Tools\MSVC\14.28.29333\include\xutility
; File C:\Program Files (x86)\Microsoft Visual Studio\2019\Community\VC\Tools\MSVC\14.28.29333\include\deque
;	COMDAT ?back@?$deque@KV?$allocator@K@std@@@std@@QAEAAKXZ
_TEXT	SEGMENT
$T1 = -36						; size = 8
$T2 = -28						; size = 8
__First$ = -20						; size = 8
$T3 = -12						; size = 4
$T4 = -8						; size = 4
_this$ = -4						; size = 4
?back@?$deque@KV?$allocator@K@std@@@std@@QAEAAKXZ PROC	; std::deque<unsigned long,std::allocator<unsigned long> >::back, COMDAT
; _this$ = ecx

; 1063 :     _NODISCARD reference back() noexcept /* strengthened */ {

  00000	55		 push	 ebp
  00001	8b ec		 mov	 ebp, esp
  00003	83 ec 24	 sub	 esp, 36			; 00000024H
  00006	89 4d fc	 mov	 DWORD PTR _this$[ebp], ecx

; 1064 : #if _CONTAINER_DEBUG_LEVEL > 0
; 1065 :         _STL_VERIFY(!empty(), "back() called on empty deque");
; 1066 : #endif // _CONTAINER_DEBUG_LEVEL > 0
; 1067 : 
; 1068 :         return *_Prev_iter(_Unchecked_end());

  00009	8d 45 dc	 lea	 eax, DWORD PTR $T1[ebp]
  0000c	50		 push	 eax
  0000d	8b 4d fc	 mov	 ecx, DWORD PTR _this$[ebp]
  00010	e8 00 00 00 00	 call	 ?_Unchecked_end@?$deque@KV?$allocator@K@std@@@std@@QAE?AV?$_Deque_unchecked_iterator@V?$_Deque_val@U?$_Deque_simple_types@K@std@@@std@@@2@XZ ; std::deque<unsigned long,std::allocator<unsigned long> >::_Unchecked_end
  00015	8b 08		 mov	 ecx, DWORD PTR [eax]
  00017	8b 40 04	 mov	 eax, DWORD PTR [eax+4]
  0001a	89 4d ec	 mov	 DWORD PTR __First$[ebp], ecx
  0001d	89 45 f0	 mov	 DWORD PTR __First$[ebp+4], eax

; 76   :         --_Myoff;

  00020	8b 45 f0	 mov	 eax, DWORD PTR __First$[ebp+4]
  00023	48		 dec	 eax
  00024	89 45 f0	 mov	 DWORD PTR __First$[ebp+4], eax

; 191  :         return *this;

  00027	8d 45 ec	 lea	 eax, DWORD PTR __First$[ebp]
  0002a	89 45 f8	 mov	 DWORD PTR $T4[ebp], eax
; File C:\Program Files (x86)\Microsoft Visual Studio\2019\Community\VC\Tools\MSVC\14.28.29333\include\xutility

; 1852 :     return --_First;

  0002d	8b 45 f8	 mov	 eax, DWORD PTR $T4[ebp]
  00030	8b 08		 mov	 ecx, DWORD PTR [eax]
  00032	8b 40 04	 mov	 eax, DWORD PTR [eax+4]
  00035	89 4d e4	 mov	 DWORD PTR $T2[ebp], ecx
  00038	89 45 e8	 mov	 DWORD PTR $T2[ebp+4], eax
; File C:\Program Files (x86)\Microsoft Visual Studio\2019\Community\VC\Tools\MSVC\14.28.29333\include\deque

; 171  :         return const_cast<reference>(_Mybase::operator*());

  0003b	8d 4d e4	 lea	 ecx, DWORD PTR $T2[ebp]
  0003e	e8 00 00 00 00	 call	 ??D?$_Deque_unchecked_const_iterator@V?$_Deque_val@U?$_Deque_simple_types@K@std@@@std@@@std@@QBEABKXZ ; std::_Deque_unchecked_const_iterator<std::_Deque_val<std::_Deque_simple_types<unsigned long> > >::operator*
  00043	89 45 f4	 mov	 DWORD PTR $T3[ebp], eax

; 1064 : #if _CONTAINER_DEBUG_LEVEL > 0
; 1065 :         _STL_VERIFY(!empty(), "back() called on empty deque");
; 1066 : #endif // _CONTAINER_DEBUG_LEVEL > 0
; 1067 : 
; 1068 :         return *_Prev_iter(_Unchecked_end());

  00046	8b 45 f4	 mov	 eax, DWORD PTR $T3[ebp]

; 1069 :     }

  00049	c9		 leave
  0004a	c3		 ret	 0
?back@?$deque@KV?$allocator@K@std@@@std@@QAEAAKXZ ENDP	; std::deque<unsigned long,std::allocator<unsigned long> >::back
_TEXT	ENDS
; Function compile flags: /Odspy
; File C:\Program Files (x86)\Microsoft Visual Studio\2019\Community\VC\Tools\MSVC\14.28.29333\include\deque
; File C:\Program Files (x86)\Microsoft Visual Studio\2019\Community\VC\Tools\MSVC\14.28.29333\include\xstddef
; File C:\Program Files (x86)\Microsoft Visual Studio\2019\Community\VC\Tools\MSVC\14.28.29333\include\deque
;	COMDAT ?_Unchecked_end@?$deque@KV?$allocator@K@std@@@std@@QAE?AV?$_Deque_unchecked_iterator@V?$_Deque_val@U?$_Deque_simple_types@K@std@@@std@@@2@XZ
_TEXT	SEGMENT
___param0$ = -32					; size = 4
$T1 = -28						; size = 4
$T2 = -24						; size = 4
$T3 = -20						; size = 4
$T4 = -16						; size = 4
$T5 = -12						; size = 4
$T6 = -8						; size = 4
_this$ = -4						; size = 4
___$ReturnUdt$ = 8					; size = 4
?_Unchecked_end@?$deque@KV?$allocator@K@std@@@std@@QAE?AV?$_Deque_unchecked_iterator@V?$_Deque_val@U?$_Deque_simple_types@K@std@@@std@@@2@XZ PROC ; std::deque<unsigned long,std::allocator<unsigned long> >::_Unchecked_end, COMDAT
; _this$ = ecx

; 921  :     _Unchecked_iterator _Unchecked_end() noexcept {

  00000	55		 push	 ebp
  00001	8b ec		 mov	 ebp, esp
  00003	83 ec 20	 sub	 esp, 32			; 00000020H
  00006	89 4d fc	 mov	 DWORD PTR _this$[ebp], ecx

; 1530 :         return _Mypair._Myval2;

  00009	8b 45 fc	 mov	 eax, DWORD PTR _this$[ebp]
  0000c	89 45 f8	 mov	 DWORD PTR $T6[ebp], eax
; File C:\Program Files (x86)\Microsoft Visual Studio\2019\Community\VC\Tools\MSVC\14.28.29333\include\xstddef

; 275  :     return __builtin_addressof(_Val);

  0000f	8b 45 f8	 mov	 eax, DWORD PTR $T6[ebp]
  00012	89 45 e4	 mov	 DWORD PTR $T1[ebp], eax
; File C:\Program Files (x86)\Microsoft Visual Studio\2019\Community\VC\Tools\MSVC\14.28.29333\include\deque

; 1530 :         return _Mypair._Myval2;

  00015	8b 45 fc	 mov	 eax, DWORD PTR _this$[ebp]
  00018	89 45 f4	 mov	 DWORD PTR $T5[ebp], eax

; 1554 :         return _Get_data()._Myoff;

  0001b	8b 45 f4	 mov	 eax, DWORD PTR $T5[ebp]
  0001e	83 c0 0c	 add	 eax, 12			; 0000000cH
  00021	89 45 ec	 mov	 DWORD PTR $T3[ebp], eax

; 1530 :         return _Mypair._Myval2;

  00024	8b 45 fc	 mov	 eax, DWORD PTR _this$[ebp]
  00027	89 45 f0	 mov	 DWORD PTR $T4[ebp], eax

; 1562 :         return _Get_data()._Mysize;

  0002a	8b 45 f0	 mov	 eax, DWORD PTR $T4[ebp]
  0002d	83 c0 10	 add	 eax, 16			; 00000010H
  00030	89 45 e8	 mov	 DWORD PTR $T2[ebp], eax

; 922  :         return _Unchecked_iterator(_Myoff() + _Mysize(), _STD addressof(_Get_data()));

  00033	8b 45 ec	 mov	 eax, DWORD PTR $T3[ebp]
  00036	8b 00		 mov	 eax, DWORD PTR [eax]
  00038	8b 4d e8	 mov	 ecx, DWORD PTR $T2[ebp]
  0003b	03 01		 add	 eax, DWORD PTR [ecx]
  0003d	89 45 e0	 mov	 DWORD PTR ___param0$[ebp], eax

; 52   :         : _Mycont(static_cast<const _Mydeque*>(_Pdeque)), _Myoff(_Off) {}

  00040	8b 45 08	 mov	 eax, DWORD PTR ___$ReturnUdt$[ebp]
  00043	8b 4d e4	 mov	 ecx, DWORD PTR $T1[ebp]
  00046	89 08		 mov	 DWORD PTR [eax], ecx
  00048	8b 45 08	 mov	 eax, DWORD PTR ___$ReturnUdt$[ebp]
  0004b	8b 4d e0	 mov	 ecx, DWORD PTR ___param0$[ebp]
  0004e	89 48 04	 mov	 DWORD PTR [eax+4], ecx

; 922  :         return _Unchecked_iterator(_Myoff() + _Mysize(), _STD addressof(_Get_data()));

  00051	8b 45 08	 mov	 eax, DWORD PTR ___$ReturnUdt$[ebp]

; 923  :     }

  00054	c9		 leave
  00055	c2 04 00	 ret	 4
?_Unchecked_end@?$deque@KV?$allocator@K@std@@@std@@QAE?AV?$_Deque_unchecked_iterator@V?$_Deque_val@U?$_Deque_simple_types@K@std@@@std@@@2@XZ ENDP ; std::deque<unsigned long,std::allocator<unsigned long> >::_Unchecked_end
_TEXT	ENDS
; Function compile flags: /Odspy
; File C:\Program Files (x86)\Microsoft Visual Studio\2019\Community\VC\Tools\MSVC\14.28.29333\include\deque
; File C:\Program Files (x86)\Microsoft Visual Studio\2019\Community\VC\Tools\MSVC\14.28.29333\include\xmemory
; File C:\Program Files (x86)\Microsoft Visual Studio\2019\Community\VC\Tools\MSVC\14.28.29333\include\deque
; File C:\Program Files (x86)\Microsoft Visual Studio\2019\Community\VC\Tools\MSVC\14.28.29333\include\utility
; File C:\Program Files (x86)\Microsoft Visual Studio\2019\Community\VC\Tools\MSVC\14.28.29333\include\deque
;	COMDAT ??1?$deque@KV?$allocator@K@std@@@std@@QAE@XZ
_TEXT	SEGMENT
$T1 = -32						; size = 4
$T2 = -28						; size = 4
__Old_val$3 = -24					; size = 4
$T4 = -20						; size = 4
$T5 = -16						; size = 4
$T6 = -12						; size = 4
_this$ = -8						; size = 4
__Proxy_allocator$ = -1					; size = 1
??1?$deque@KV?$allocator@K@std@@@std@@QAE@XZ PROC	; std::deque<unsigned long,std::allocator<unsigned long> >::~deque<unsigned long,std::allocator<unsigned long> >, COMDAT
; _this$ = ecx

; 869  :     ~deque() noexcept {

  00000	55		 push	 ebp
  00001	8b ec		 mov	 ebp, esp
  00003	83 ec 20	 sub	 esp, 32			; 00000020H
  00006	89 4d f8	 mov	 DWORD PTR _this$[ebp], ecx

; 870  :         _Tidy();

  00009	8b 4d f8	 mov	 ecx, DWORD PTR _this$[ebp]
  0000c	e8 00 00 00 00	 call	 ?_Tidy@?$deque@KV?$allocator@K@std@@@std@@AAEXXZ ; std::deque<unsigned long,std::allocator<unsigned long> >::_Tidy

; 1522 :         return _Mypair._Get_first();

  00011	8b 45 f8	 mov	 eax, DWORD PTR _this$[ebp]
; File C:\Program Files (x86)\Microsoft Visual Studio\2019\Community\VC\Tools\MSVC\14.28.29333\include\xmemory

; 1347 :         return *this;

  00014	89 45 f0	 mov	 DWORD PTR $T5[ebp], eax
; File C:\Program Files (x86)\Microsoft Visual Studio\2019\Community\VC\Tools\MSVC\14.28.29333\include\deque

; 1522 :         return _Mypair._Get_first();

  00017	8b 45 f0	 mov	 eax, DWORD PTR $T5[ebp]
  0001a	89 45 e0	 mov	 DWORD PTR $T1[ebp], eax

; 872  :         _Delete_plain_internal(_Proxy_allocator, _STD exchange(_Get_data()._Myproxy, nullptr));

  0001d	83 65 ec 00	 and	 DWORD PTR $T4[ebp], 0

; 1530 :         return _Mypair._Myval2;

  00021	8b 45 f8	 mov	 eax, DWORD PTR _this$[ebp]
  00024	89 45 f4	 mov	 DWORD PTR $T6[ebp], eax
; File C:\Program Files (x86)\Microsoft Visual Studio\2019\Community\VC\Tools\MSVC\14.28.29333\include\utility

; 598  :     _Ty _Old_val = static_cast<_Ty&&>(_Val);

  00027	8b 45 f4	 mov	 eax, DWORD PTR $T6[ebp]
  0002a	8b 00		 mov	 eax, DWORD PTR [eax]
  0002c	89 45 e8	 mov	 DWORD PTR __Old_val$3[ebp], eax

; 599  :     _Val         = static_cast<_Other&&>(_New_val);

  0002f	8b 45 f4	 mov	 eax, DWORD PTR $T6[ebp]
  00032	8b 4d ec	 mov	 ecx, DWORD PTR $T4[ebp]
  00035	89 08		 mov	 DWORD PTR [eax], ecx

; 600  :     return _Old_val;

  00037	8b 45 e8	 mov	 eax, DWORD PTR __Old_val$3[ebp]
  0003a	89 45 e4	 mov	 DWORD PTR $T2[ebp], eax
; File C:\Program Files (x86)\Microsoft Visual Studio\2019\Community\VC\Tools\MSVC\14.28.29333\include\deque

; 872  :         _Delete_plain_internal(_Proxy_allocator, _STD exchange(_Get_data()._Myproxy, nullptr));

  0003d	ff 75 e4	 push	 DWORD PTR $T2[ebp]
  00040	8d 45 ff	 lea	 eax, DWORD PTR __Proxy_allocator$[ebp]
  00043	50		 push	 eax
  00044	e8 00 00 00 00	 call	 ??$_Delete_plain_internal@V?$allocator@U_Container_proxy@std@@@std@@@std@@YAXAAV?$allocator@U_Container_proxy@std@@@0@QAU_Container_proxy@0@@Z ; std::_Delete_plain_internal<std::allocator<std::_Container_proxy> >
  00049	59		 pop	 ecx
  0004a	59		 pop	 ecx

; 873  :     }

  0004b	c9		 leave
  0004c	c3		 ret	 0
??1?$deque@KV?$allocator@K@std@@@std@@QAE@XZ ENDP	; std::deque<unsigned long,std::allocator<unsigned long> >::~deque<unsigned long,std::allocator<unsigned long> >
_TEXT	ENDS
; Function compile flags: /Odspy
; File C:\Program Files (x86)\Microsoft Visual Studio\2019\Community\VC\Tools\MSVC\14.28.29333\include\deque
; File C:\Program Files (x86)\Microsoft Visual Studio\2019\Community\VC\Tools\MSVC\14.28.29333\include\xmemory
; File C:\Program Files (x86)\Microsoft Visual Studio\2019\Community\VC\Tools\MSVC\14.28.29333\include\deque
; File C:\Program Files (x86)\Microsoft Visual Studio\2019\Community\VC\Tools\MSVC\14.28.29333\include\xmemory
; File C:\Program Files (x86)\Microsoft Visual Studio\2019\Community\VC\Tools\MSVC\14.28.29333\include\deque
;	COMDAT ??0?$deque@KV?$allocator@K@std@@@std@@QAE@XZ
_TEXT	SEGMENT
$T1 = -24						; size = 4
$T2 = -20						; size = 4
$T3 = -16						; size = 4
_this$ = -12						; size = 4
_this$ = -8						; size = 4
$T4 = -1						; size = 1
??0?$deque@KV?$allocator@K@std@@@std@@QAE@XZ PROC	; std::deque<unsigned long,std::allocator<unsigned long> >::deque<unsigned long,std::allocator<unsigned long> >, COMDAT
; _this$ = ecx

; 596  :     deque() : _Mypair(_Zero_then_variadic_args_t{}) {

  00000	55		 push	 ebp
  00001	8b ec		 mov	 ebp, esp
  00003	83 ec 18	 sub	 esp, 24			; 00000018H
  00006	89 4d f8	 mov	 DWORD PTR _this$[ebp], ecx
  00009	8b 45 f8	 mov	 eax, DWORD PTR _this$[ebp]
  0000c	89 45 f4	 mov	 DWORD PTR _this$[ebp], eax
; File C:\Program Files (x86)\Microsoft Visual Studio\2019\Community\VC\Tools\MSVC\14.28.29333\include\xmemory

; 1339 :         : _Ty1(), _Myval2(_STD forward<_Other2>(_Val2)...) {}

  0000f	8b 4d f4	 mov	 ecx, DWORD PTR _this$[ebp]
  00012	e8 00 00 00 00	 call	 ??0?$_Deque_val@U?$_Deque_simple_types@K@std@@@std@@QAE@XZ ; std::_Deque_val<std::_Deque_simple_types<unsigned long> >::_Deque_val<std::_Deque_simple_types<unsigned long> >
; File C:\Program Files (x86)\Microsoft Visual Studio\2019\Community\VC\Tools\MSVC\14.28.29333\include\deque

; 1522 :         return _Mypair._Get_first();

  00017	8b 45 f8	 mov	 eax, DWORD PTR _this$[ebp]
; File C:\Program Files (x86)\Microsoft Visual Studio\2019\Community\VC\Tools\MSVC\14.28.29333\include\xmemory

; 1347 :         return *this;

  0001a	89 45 f0	 mov	 DWORD PTR $T3[ebp], eax
; File C:\Program Files (x86)\Microsoft Visual Studio\2019\Community\VC\Tools\MSVC\14.28.29333\include\deque

; 1522 :         return _Mypair._Get_first();

  0001d	8b 45 f0	 mov	 eax, DWORD PTR $T3[ebp]
  00020	89 45 e8	 mov	 DWORD PTR $T1[ebp], eax

; 1530 :         return _Mypair._Myval2;

  00023	8b 45 f8	 mov	 eax, DWORD PTR _this$[ebp]
  00026	89 45 ec	 mov	 DWORD PTR $T2[ebp], eax

; 597  :         _Get_data()._Alloc_proxy(static_cast<_Alproxy_ty>(_Getal()));

  00029	8d 45 ff	 lea	 eax, DWORD PTR $T4[ebp]
  0002c	50		 push	 eax
  0002d	8b 4d ec	 mov	 ecx, DWORD PTR $T2[ebp]
  00030	e8 00 00 00 00	 call	 ??$_Alloc_proxy@V?$allocator@U_Container_proxy@std@@@std@@@_Container_base12@std@@QAEX$$QAV?$allocator@U_Container_proxy@std@@@1@@Z ; std::_Container_base12::_Alloc_proxy<std::allocator<std::_Container_proxy> >

; 598  :     }

  00035	8b 45 f8	 mov	 eax, DWORD PTR _this$[ebp]
  00038	c9		 leave
  00039	c3		 ret	 0
??0?$deque@KV?$allocator@K@std@@@std@@QAE@XZ ENDP	; std::deque<unsigned long,std::allocator<unsigned long> >::deque<unsigned long,std::allocator<unsigned long> >
_TEXT	ENDS
; Function compile flags: /Odspy
; File D:\Metin2 Server Files\mainline\SRC_2014\Metin2Client\EterLib\GrpLightManager.cpp
;	COMDAT ?SetSkipIndex@CLightManager@@QAEXK@Z
_TEXT	SEGMENT
_this$ = -4						; size = 4
_dwSkipIndex$ = 8					; size = 4
?SetSkipIndex@CLightManager@@QAEXK@Z PROC		; CLightManager::SetSkipIndex, COMDAT
; _this$ = ecx

; 88   : {

  00000	55		 push	 ebp
  00001	8b ec		 mov	 ebp, esp
  00003	51		 push	 ecx
  00004	89 4d fc	 mov	 DWORD PTR _this$[ebp], ecx

; 89   : 	m_dwSkipIndex = dwSkipIndex;

  00007	8b 45 fc	 mov	 eax, DWORD PTR _this$[ebp]
  0000a	8b 4d 08	 mov	 ecx, DWORD PTR _dwSkipIndex$[ebp]
  0000d	89 48 44	 mov	 DWORD PTR [eax+68], ecx

; 90   : }

  00010	c9		 leave
  00011	c2 04 00	 ret	 4
?SetSkipIndex@CLightManager@@QAEXK@Z ENDP		; CLightManager::SetSkipIndex
_TEXT	ENDS
; Function compile flags: /Odspy
; File D:\Metin2 Server Files\mainline\SRC_2014\Metin2Client\EterLib\GrpLightManager.cpp
;	COMDAT ?SetLimitLightCount@CLightManager@@QAEXK@Z
_TEXT	SEGMENT
_this$ = -4						; size = 4
_dwLightCount$ = 8					; size = 4
?SetLimitLightCount@CLightManager@@QAEXK@Z PROC		; CLightManager::SetLimitLightCount, COMDAT
; _this$ = ecx

; 83   : {

  00000	55		 push	 ebp
  00001	8b ec		 mov	 ebp, esp
  00003	51		 push	 ecx
  00004	89 4d fc	 mov	 DWORD PTR _this$[ebp], ecx

; 84   : 	m_dwLimitLightCount = dwLightCount;

  00007	8b 45 fc	 mov	 eax, DWORD PTR _this$[ebp]
  0000a	8b 4d 08	 mov	 ecx, DWORD PTR _dwLightCount$[ebp]
  0000d	89 48 40	 mov	 DWORD PTR [eax+64], ecx

; 85   : }

  00010	c9		 leave
  00011	c2 04 00	 ret	 4
?SetLimitLightCount@CLightManager@@QAEXK@Z ENDP		; CLightManager::SetLimitLightCount
_TEXT	ENDS
; Function compile flags: /Odspy
; File D:\Metin2 Server Files\mainline\SRC_2014\Metin2Client\EterLib\GrpLightManager.cpp
;	COMDAT ?SetCenterPosition@CLightManager@@QAEXABUD3DXVECTOR3@@@Z
_TEXT	SEGMENT
_this$ = -4						; size = 4
_c_rv3Position$ = 8					; size = 4
?SetCenterPosition@CLightManager@@QAEXABUD3DXVECTOR3@@@Z PROC ; CLightManager::SetCenterPosition, COMDAT
; _this$ = ecx

; 78   : {

  00000	55		 push	 ebp
  00001	8b ec		 mov	 ebp, esp
  00003	51		 push	 ecx
  00004	56		 push	 esi
  00005	57		 push	 edi
  00006	89 4d fc	 mov	 DWORD PTR _this$[ebp], ecx

; 79   : 	m_v3CenterPosition = c_rv3Position;

  00009	8b 7d fc	 mov	 edi, DWORD PTR _this$[ebp]
  0000c	83 c7 34	 add	 edi, 52			; 00000034H
  0000f	8b 75 08	 mov	 esi, DWORD PTR _c_rv3Position$[ebp]
  00012	a5		 movsd
  00013	a5		 movsd
  00014	a5		 movsd

; 80   : }

  00015	5f		 pop	 edi
  00016	5e		 pop	 esi
  00017	c9		 leave
  00018	c2 04 00	 ret	 4
?SetCenterPosition@CLightManager@@QAEXABUD3DXVECTOR3@@@Z ENDP ; CLightManager::SetCenterPosition
_TEXT	ENDS
; Function compile flags: /Odspy
; File D:\Metin2 Server Files\mainline\SRC_2014\Metin2Client\EterLib\GrpLightManager.cpp
; File C:\Program Files (x86)\Microsoft Visual Studio\2019\Community\VC\Tools\MSVC\14.28.29333\include\xtree
; File C:\Program Files (x86)\Microsoft Visual Studio\2019\Community\VC\Tools\MSVC\14.28.29333\include\xstddef
; File C:\Program Files (x86)\Microsoft Visual Studio\2019\Community\VC\Tools\MSVC\14.28.29333\include\xtree
; File D:\Metin2 Server Files\mainline\SRC_2014\Metin2Client\EterLib\GrpLightManager.cpp
; File C:\Program Files (x86)\Microsoft Visual Studio\2019\Community\VC\Tools\MSVC\14.28.29333\include\xtree
; File C:\Program Files (x86)\Microsoft Visual Studio\2019\Community\VC\Tools\MSVC\14.28.29333\include\xstddef
; File C:\Program Files (x86)\Microsoft Visual Studio\2019\Community\VC\Tools\MSVC\14.28.29333\include\xutility
; File C:\Program Files (x86)\Microsoft Visual Studio\2019\Community\VC\Tools\MSVC\14.28.29333\include\xtree
; File D:\Metin2 Server Files\mainline\SRC_2014\Metin2Client\EterLib\GrpLightManager.cpp
; File C:\Program Files (x86)\Microsoft Visual Studio\2019\Community\VC\Tools\MSVC\14.28.29333\include\vector
; File D:\Metin2 Server Files\mainline\SRC_2014\Metin2Client\EterLib\Pool.h
; File C:\Program Files (x86)\Microsoft Visual Studio\2019\Community\VC\Tools\MSVC\14.28.29333\include\vector
; File D:\Metin2 Server Files\mainline\SRC_2014\Metin2Client\EterLib\GrpLightManager.cpp
;	COMDAT ?DeleteLight@CLightManager@@QAEXK@Z
_TEXT	SEGMENT
$T1 = -68						; size = 4
_pkData$ = -64						; size = 4
$T2 = -60						; size = 4
$T3 = -56						; size = 4
$T4 = -52						; size = 4
$T5 = -48						; size = 4
$T6 = -44						; size = 4
$T7 = -40						; size = 4
$T8 = -36						; size = 4
___param0$ = -32					; size = 4
__Scary$9 = -28						; size = 4
$T10 = -24						; size = 4
_pLight$ = -20						; size = 4
tv203 = -16						; size = 4
_itor$ = -12						; size = 4
_this$ = -8						; size = 4
$T11 = -1						; size = 1
_LightID$ = 8						; size = 4
?DeleteLight@CLightManager@@QAEXK@Z PROC		; CLightManager::DeleteLight, COMDAT
; _this$ = ecx

; 45   : {

  00000	55		 push	 ebp
  00001	8b ec		 mov	 ebp, esp
  00003	83 ec 44	 sub	 esp, 68			; 00000044H
  00006	89 4d f8	 mov	 DWORD PTR _this$[ebp], ecx

; 46   : 	TLightMap::iterator itor = m_LightMap.find(LightID);

  00009	8d 45 08	 lea	 eax, DWORD PTR _LightID$[ebp]
  0000c	50		 push	 eax
  0000d	8d 45 f4	 lea	 eax, DWORD PTR _itor$[ebp]
  00010	50		 push	 eax
  00011	8b 4d f8	 mov	 ecx, DWORD PTR _this$[ebp]
  00014	83 c1 20	 add	 ecx, 32			; 00000020H
  00017	e8 00 00 00 00	 call	 ?find@?$_Tree@V?$_Tmap_traits@KPAVCLight@@U?$less@K@std@@V?$allocator@U?$pair@$$CBKPAVCLight@@@std@@@3@$0A@@std@@@std@@QAE?AV?$_Tree_iterator@V?$_Tree_val@U?$_Tree_simple_types@U?$pair@$$CBKPAVCLight@@@std@@@std@@@std@@@2@ABK@Z ; std::_Tree<std::_Tmap_traits<unsigned long,CLight *,std::less<unsigned long>,std::allocator<std::pair<unsigned long const ,CLight *> >,0> >::find
; File C:\Program Files (x86)\Microsoft Visual Studio\2019\Community\VC\Tools\MSVC\14.28.29333\include\xtree

; 2047 :         return _STD addressof(_Mypair._Myval2._Myval2);

  0001c	8b 45 f8	 mov	 eax, DWORD PTR _this$[ebp]
  0001f	83 c0 20	 add	 eax, 32			; 00000020H
; File C:\Program Files (x86)\Microsoft Visual Studio\2019\Community\VC\Tools\MSVC\14.28.29333\include\xstddef

; 275  :     return __builtin_addressof(_Val);

  00022	89 45 e8	 mov	 DWORD PTR $T10[ebp], eax
; File C:\Program Files (x86)\Microsoft Visual Studio\2019\Community\VC\Tools\MSVC\14.28.29333\include\xtree

; 2047 :         return _STD addressof(_Mypair._Myval2._Myval2);

  00025	8b 45 e8	 mov	 eax, DWORD PTR $T10[ebp]
  00028	89 45 e4	 mov	 DWORD PTR __Scary$9[ebp], eax

; 1250 :         return iterator(_Scary->_Myhead, _Scary);

  0002b	8b 45 e4	 mov	 eax, DWORD PTR __Scary$9[ebp]
  0002e	8b 00		 mov	 eax, DWORD PTR [eax]
  00030	89 45 e0	 mov	 DWORD PTR ___param0$[ebp], eax

; 39   :     _Tree_unchecked_const_iterator(_Nodeptr _Pnode, const _Mytree* _Plist) noexcept : _Ptr(_Pnode) {

  00033	8b 45 e0	 mov	 eax, DWORD PTR ___param0$[ebp]
  00036	89 45 dc	 mov	 DWORD PTR $T8[ebp], eax

; 1250 :         return iterator(_Scary->_Myhead, _Scary);

  00039	8d 45 dc	 lea	 eax, DWORD PTR $T8[ebp]
  0003c	89 45 d8	 mov	 DWORD PTR $T7[ebp], eax

; 232  :         return this->_Ptr == _Right._Ptr;

  0003f	8b 45 d8	 mov	 eax, DWORD PTR $T7[ebp]
  00042	8b 00		 mov	 eax, DWORD PTR [eax]
  00044	3b 45 f4	 cmp	 eax, DWORD PTR _itor$[ebp]
  00047	75 09		 jne	 SHORT $LN72@DeleteLigh
  00049	c7 45 f0 01 00
	00 00		 mov	 DWORD PTR tv203[ebp], 1
  00050	eb 04		 jmp	 SHORT $LN73@DeleteLigh
$LN72@DeleteLigh:
  00052	83 65 f0 00	 and	 DWORD PTR tv203[ebp], 0
$LN73@DeleteLigh:
  00056	8a 45 f0	 mov	 al, BYTE PTR tv203[ebp]
  00059	88 45 ff	 mov	 BYTE PTR $T11[ebp], al
; File D:\Metin2 Server Files\mainline\SRC_2014\Metin2Client\EterLib\GrpLightManager.cpp

; 48   : 	if (m_LightMap.end() == itor)

  0005c	0f b6 45 ff	 movzx	 eax, BYTE PTR $T11[ebp]
  00060	85 c0		 test	 eax, eax
  00062	74 02		 je	 SHORT $LN2@DeleteLigh

; 49   : 	{
; 50   : 		assert(!"CLightManager::DeleteLight - Failed to find light ID!");
; 51   : 		return;

  00064	eb 64		 jmp	 SHORT $LN1@DeleteLigh
$LN2@DeleteLigh:
; File C:\Program Files (x86)\Microsoft Visual Studio\2019\Community\VC\Tools\MSVC\14.28.29333\include\xtree

; 185  :         return this->_Ptr->_Myval;

  00066	8b 45 f4	 mov	 eax, DWORD PTR _itor$[ebp]
  00069	83 c0 10	 add	 eax, 16			; 00000010H
  0006c	89 45 d4	 mov	 DWORD PTR $T6[ebp], eax

; 273  :         return const_cast<reference>(_Mybase::operator*());

  0006f	8b 45 d4	 mov	 eax, DWORD PTR $T6[ebp]
  00072	89 45 d0	 mov	 DWORD PTR $T5[ebp], eax
; File C:\Program Files (x86)\Microsoft Visual Studio\2019\Community\VC\Tools\MSVC\14.28.29333\include\xstddef

; 275  :     return __builtin_addressof(_Val);

  00075	8b 45 d0	 mov	 eax, DWORD PTR $T5[ebp]
  00078	89 45 cc	 mov	 DWORD PTR $T4[ebp], eax
; File C:\Program Files (x86)\Microsoft Visual Studio\2019\Community\VC\Tools\MSVC\14.28.29333\include\xutility

; 151  :         return _STD addressof(_Val);

  0007b	8b 45 cc	 mov	 eax, DWORD PTR $T4[ebp]
  0007e	89 45 c8	 mov	 DWORD PTR $T3[ebp], eax
; File C:\Program Files (x86)\Microsoft Visual Studio\2019\Community\VC\Tools\MSVC\14.28.29333\include\xtree

; 277  :         return pointer_traits<pointer>::pointer_to(**this);

  00081	8b 45 c8	 mov	 eax, DWORD PTR $T3[ebp]
  00084	89 45 c4	 mov	 DWORD PTR $T2[ebp], eax
; File D:\Metin2 Server Files\mainline\SRC_2014\Metin2Client\EterLib\GrpLightManager.cpp

; 54   : 	CLight * pLight = itor->second;

  00087	8b 45 c4	 mov	 eax, DWORD PTR $T2[ebp]
  0008a	8b 40 04	 mov	 eax, DWORD PTR [eax+4]
  0008d	89 45 ec	 mov	 DWORD PTR _pLight$[ebp], eax

; 55   : 
; 56   : 	pLight->Clear();

  00090	8b 4d ec	 mov	 ecx, DWORD PTR _pLight$[ebp]
  00093	e8 00 00 00 00	 call	 ?Clear@CLight@@QAEXXZ	; CLight::Clear

; 57   : 	m_LightPool.Free(pLight);

  00098	8b 45 ec	 mov	 eax, DWORD PTR _pLight$[ebp]
  0009b	89 45 c0	 mov	 DWORD PTR _pkData$[ebp], eax
; File C:\Program Files (x86)\Microsoft Visual Studio\2019\Community\VC\Tools\MSVC\14.28.29333\include\vector

; 717  :         emplace_back(_Val);

  0009e	8d 45 c0	 lea	 eax, DWORD PTR _pkData$[ebp]
  000a1	50		 push	 eax
; File D:\Metin2 Server Files\mainline\SRC_2014\Metin2Client\EterLib\Pool.h

; 81   : 			m_kVct_pkFree.push_back(pkData);

  000a2	8b 4d f8	 mov	 ecx, DWORD PTR _this$[ebp]
  000a5	83 c1 58	 add	 ecx, 88			; 00000058H
; File C:\Program Files (x86)\Microsoft Visual Studio\2019\Community\VC\Tools\MSVC\14.28.29333\include\vector

; 717  :         emplace_back(_Val);

  000a8	e8 00 00 00 00	 call	 ??$emplace_back@ABQAVCLight@@@?$vector@PAVCLight@@V?$allocator@PAVCLight@@@std@@@std@@QAEXABQAVCLight@@@Z ; std::vector<CLight *,std::allocator<CLight *> >::emplace_back<CLight * const &>
; File D:\Metin2 Server Files\mainline\SRC_2014\Metin2Client\EterLib\GrpLightManager.cpp

; 59   : 	m_LightMap.erase(itor);

  000ad	ff 75 f4	 push	 DWORD PTR _itor$[ebp]
  000b0	8d 45 bc	 lea	 eax, DWORD PTR $T1[ebp]
  000b3	50		 push	 eax
  000b4	8b 4d f8	 mov	 ecx, DWORD PTR _this$[ebp]
  000b7	83 c1 20	 add	 ecx, 32			; 00000020H
  000ba	e8 00 00 00 00	 call	 ??$erase@V?$_Tree_iterator@V?$_Tree_val@U?$_Tree_simple_types@U?$pair@$$CBKPAVCLight@@@std@@@std@@@std@@@std@@$0A@@?$_Tree@V?$_Tmap_traits@KPAVCLight@@U?$less@K@std@@V?$allocator@U?$pair@$$CBKPAVCLight@@@std@@@3@$0A@@std@@@std@@QAE?AV?$_Tree_iterator@V?$_Tree_val@U?$_Tree_simple_types@U?$pair@$$CBKPAVCLight@@@std@@@std@@@std@@@1@V21@@Z ; std::_Tree<std::_Tmap_traits<unsigned long,CLight *,std::less<unsigned long>,std::allocator<std::pair<unsigned long const ,CLight *> >,0> >::erase<std::_Tree_iterator<std::_Tree_val<std::_Tree_simple_types<std::pair<unsigned long const ,CLight *> > > >,0>

; 60   : 
; 61   : 	ReleaseLightID(LightID);

  000bf	ff 75 08	 push	 DWORD PTR _LightID$[ebp]
  000c2	8b 4d f8	 mov	 ecx, DWORD PTR _this$[ebp]
  000c5	e8 00 00 00 00	 call	 ?ReleaseLightID@CLightManager@@IAEXK@Z ; CLightManager::ReleaseLightID
$LN1@DeleteLigh:

; 62   : }

  000ca	c9		 leave
  000cb	c2 04 00	 ret	 4
?DeleteLight@CLightManager@@QAEXK@Z ENDP		; CLightManager::DeleteLight
_TEXT	ENDS
; Function compile flags: /Odspy
; File D:\Metin2 Server Files\mainline\SRC_2014\Metin2Client\EterLib\GrpLightManager.cpp
; File C:\Program Files (x86)\Microsoft Visual Studio\2019\Community\VC\Tools\MSVC\14.28.29333\include\xtree
; File C:\Program Files (x86)\Microsoft Visual Studio\2019\Community\VC\Tools\MSVC\14.28.29333\include\xstddef
; File C:\Program Files (x86)\Microsoft Visual Studio\2019\Community\VC\Tools\MSVC\14.28.29333\include\xtree
; File D:\Metin2 Server Files\mainline\SRC_2014\Metin2Client\EterLib\GrpLightManager.cpp
; File C:\Program Files (x86)\Microsoft Visual Studio\2019\Community\VC\Tools\MSVC\14.28.29333\include\xtree
; File C:\Program Files (x86)\Microsoft Visual Studio\2019\Community\VC\Tools\MSVC\14.28.29333\include\xstddef
; File C:\Program Files (x86)\Microsoft Visual Studio\2019\Community\VC\Tools\MSVC\14.28.29333\include\xutility
; File C:\Program Files (x86)\Microsoft Visual Studio\2019\Community\VC\Tools\MSVC\14.28.29333\include\xtree
; File D:\Metin2 Server Files\mainline\SRC_2014\Metin2Client\EterLib\GrpLightManager.cpp
;	COMDAT ?GetLight@CLightManager@@QAEPAVCLight@@K@Z
_TEXT	SEGMENT
$T1 = -56						; size = 4
$T2 = -52						; size = 4
$T3 = -48						; size = 4
$T4 = -44						; size = 4
$T5 = -40						; size = 4
$T6 = -36						; size = 4
$T7 = -32						; size = 4
___param0$ = -28					; size = 4
__Scary$8 = -24						; size = 4
$T9 = -20						; size = 4
_itor$ = -16						; size = 4
tv189 = -12						; size = 4
_this$ = -8						; size = 4
$T10 = -1						; size = 1
_LightID$ = 8						; size = 4
?GetLight@CLightManager@@QAEPAVCLight@@K@Z PROC		; CLightManager::GetLight, COMDAT
; _this$ = ecx

; 65   : {

  00000	55		 push	 ebp
  00001	8b ec		 mov	 ebp, esp
  00003	83 ec 38	 sub	 esp, 56			; 00000038H
  00006	89 4d f8	 mov	 DWORD PTR _this$[ebp], ecx

; 66   : 	TLightMap::iterator itor = m_LightMap.find(LightID);

  00009	8d 45 08	 lea	 eax, DWORD PTR _LightID$[ebp]
  0000c	50		 push	 eax
  0000d	8d 45 f0	 lea	 eax, DWORD PTR _itor$[ebp]
  00010	50		 push	 eax
  00011	8b 4d f8	 mov	 ecx, DWORD PTR _this$[ebp]
  00014	83 c1 20	 add	 ecx, 32			; 00000020H
  00017	e8 00 00 00 00	 call	 ?find@?$_Tree@V?$_Tmap_traits@KPAVCLight@@U?$less@K@std@@V?$allocator@U?$pair@$$CBKPAVCLight@@@std@@@3@$0A@@std@@@std@@QAE?AV?$_Tree_iterator@V?$_Tree_val@U?$_Tree_simple_types@U?$pair@$$CBKPAVCLight@@@std@@@std@@@std@@@2@ABK@Z ; std::_Tree<std::_Tmap_traits<unsigned long,CLight *,std::less<unsigned long>,std::allocator<std::pair<unsigned long const ,CLight *> >,0> >::find
; File C:\Program Files (x86)\Microsoft Visual Studio\2019\Community\VC\Tools\MSVC\14.28.29333\include\xtree

; 2047 :         return _STD addressof(_Mypair._Myval2._Myval2);

  0001c	8b 45 f8	 mov	 eax, DWORD PTR _this$[ebp]
  0001f	83 c0 20	 add	 eax, 32			; 00000020H
; File C:\Program Files (x86)\Microsoft Visual Studio\2019\Community\VC\Tools\MSVC\14.28.29333\include\xstddef

; 275  :     return __builtin_addressof(_Val);

  00022	89 45 ec	 mov	 DWORD PTR $T9[ebp], eax
; File C:\Program Files (x86)\Microsoft Visual Studio\2019\Community\VC\Tools\MSVC\14.28.29333\include\xtree

; 2047 :         return _STD addressof(_Mypair._Myval2._Myval2);

  00025	8b 45 ec	 mov	 eax, DWORD PTR $T9[ebp]
  00028	89 45 e8	 mov	 DWORD PTR __Scary$8[ebp], eax

; 1250 :         return iterator(_Scary->_Myhead, _Scary);

  0002b	8b 45 e8	 mov	 eax, DWORD PTR __Scary$8[ebp]
  0002e	8b 00		 mov	 eax, DWORD PTR [eax]
  00030	89 45 e4	 mov	 DWORD PTR ___param0$[ebp], eax

; 39   :     _Tree_unchecked_const_iterator(_Nodeptr _Pnode, const _Mytree* _Plist) noexcept : _Ptr(_Pnode) {

  00033	8b 45 e4	 mov	 eax, DWORD PTR ___param0$[ebp]
  00036	89 45 e0	 mov	 DWORD PTR $T7[ebp], eax

; 1250 :         return iterator(_Scary->_Myhead, _Scary);

  00039	8d 45 e0	 lea	 eax, DWORD PTR $T7[ebp]
  0003c	89 45 dc	 mov	 DWORD PTR $T6[ebp], eax

; 232  :         return this->_Ptr == _Right._Ptr;

  0003f	8b 45 dc	 mov	 eax, DWORD PTR $T6[ebp]
  00042	8b 00		 mov	 eax, DWORD PTR [eax]
  00044	3b 45 f0	 cmp	 eax, DWORD PTR _itor$[ebp]
  00047	75 09		 jne	 SHORT $LN72@GetLight
  00049	c7 45 f4 01 00
	00 00		 mov	 DWORD PTR tv189[ebp], 1
  00050	eb 04		 jmp	 SHORT $LN73@GetLight
$LN72@GetLight:
  00052	83 65 f4 00	 and	 DWORD PTR tv189[ebp], 0
$LN73@GetLight:
  00056	8a 45 f4	 mov	 al, BYTE PTR tv189[ebp]
  00059	88 45 ff	 mov	 BYTE PTR $T10[ebp], al
; File D:\Metin2 Server Files\mainline\SRC_2014\Metin2Client\EterLib\GrpLightManager.cpp

; 68   : 	if (m_LightMap.end() == itor)

  0005c	0f b6 45 ff	 movzx	 eax, BYTE PTR $T10[ebp]
  00060	85 c0		 test	 eax, eax
  00062	74 04		 je	 SHORT $LN2@GetLight

; 69   : 	{
; 70   : 		assert(!"CLightManager::SetLightData - Failed to find light ID!");
; 71   : 		return NULL;

  00064	33 c0		 xor	 eax, eax
  00066	eb 27		 jmp	 SHORT $LN1@GetLight
$LN2@GetLight:
; File C:\Program Files (x86)\Microsoft Visual Studio\2019\Community\VC\Tools\MSVC\14.28.29333\include\xtree

; 185  :         return this->_Ptr->_Myval;

  00068	8b 45 f0	 mov	 eax, DWORD PTR _itor$[ebp]
  0006b	83 c0 10	 add	 eax, 16			; 00000010H
  0006e	89 45 d8	 mov	 DWORD PTR $T5[ebp], eax

; 273  :         return const_cast<reference>(_Mybase::operator*());

  00071	8b 45 d8	 mov	 eax, DWORD PTR $T5[ebp]
  00074	89 45 d4	 mov	 DWORD PTR $T4[ebp], eax
; File C:\Program Files (x86)\Microsoft Visual Studio\2019\Community\VC\Tools\MSVC\14.28.29333\include\xstddef

; 275  :     return __builtin_addressof(_Val);

  00077	8b 45 d4	 mov	 eax, DWORD PTR $T4[ebp]
  0007a	89 45 d0	 mov	 DWORD PTR $T3[ebp], eax
; File C:\Program Files (x86)\Microsoft Visual Studio\2019\Community\VC\Tools\MSVC\14.28.29333\include\xutility

; 151  :         return _STD addressof(_Val);

  0007d	8b 45 d0	 mov	 eax, DWORD PTR $T3[ebp]
  00080	89 45 cc	 mov	 DWORD PTR $T2[ebp], eax
; File C:\Program Files (x86)\Microsoft Visual Studio\2019\Community\VC\Tools\MSVC\14.28.29333\include\xtree

; 277  :         return pointer_traits<pointer>::pointer_to(**this);

  00083	8b 45 cc	 mov	 eax, DWORD PTR $T2[ebp]
  00086	89 45 c8	 mov	 DWORD PTR $T1[ebp], eax
; File D:\Metin2 Server Files\mainline\SRC_2014\Metin2Client\EterLib\GrpLightManager.cpp

; 74   : 	return itor->second;

  00089	8b 45 c8	 mov	 eax, DWORD PTR $T1[ebp]
  0008c	8b 40 04	 mov	 eax, DWORD PTR [eax+4]
$LN1@GetLight:

; 75   : }

  0008f	c9		 leave
  00090	c2 04 00	 ret	 4
?GetLight@CLightManager@@QAEPAVCLight@@K@Z ENDP		; CLightManager::GetLight
_TEXT	ENDS
; Function compile flags: /Odspy
; File D:\Metin2 Server Files\mainline\SRC_2014\Metin2Client\EterLib\GrpLightManager.cpp
; File C:\Program Files (x86)\Microsoft Visual Studio\2019\Community\VC\Tools\MSVC\14.28.29333\include\map
; File D:\Metin2 Server Files\mainline\SRC_2014\Metin2Client\EterLib\GrpLightManager.cpp
; File C:\Program Files (x86)\Microsoft Visual Studio\2019\Community\VC\Tools\MSVC\14.28.29333\include\map
; File D:\Metin2 Server Files\mainline\SRC_2014\Metin2Client\EterLib\GrpLightManager.cpp
;	COMDAT ?RegisterLight@CLightManager@@QAEXW4ELightType@@PAKAAU_D3DLIGHT8@@@Z
_TEXT	SEGMENT
$T1 = -20						; size = 8
_pLight$ = -12						; size = 4
_ID$ = -8						; size = 4
_this$ = -4						; size = 4
___formal$ = 8						; size = 4
_poutLightID$ = 12					; size = 4
_LightData$ = 16					; size = 4
?RegisterLight@CLightManager@@QAEXW4ELightType@@PAKAAU_D3DLIGHT8@@@Z PROC ; CLightManager::RegisterLight, COMDAT
; _this$ = ecx

; 36   : {

  00000	55		 push	 ebp
  00001	8b ec		 mov	 ebp, esp
  00003	83 ec 14	 sub	 esp, 20			; 00000014H
  00006	89 4d fc	 mov	 DWORD PTR _this$[ebp], ecx

; 37   : 	CLight * pLight = m_LightPool.Alloc();

  00009	8b 4d fc	 mov	 ecx, DWORD PTR _this$[ebp]
  0000c	83 c1 48	 add	 ecx, 72			; 00000048H
  0000f	e8 00 00 00 00	 call	 ?Alloc@?$CDynamicPool@VCLight@@@@QAEPAVCLight@@XZ ; CDynamicPool<CLight>::Alloc
  00014	89 45 f4	 mov	 DWORD PTR _pLight$[ebp], eax

; 38   : 	TLightID ID = NewLightID();

  00017	8b 4d fc	 mov	 ecx, DWORD PTR _this$[ebp]
  0001a	e8 00 00 00 00	 call	 ?NewLightID@CLightManager@@IAEKXZ ; CLightManager::NewLightID
  0001f	89 45 f8	 mov	 DWORD PTR _ID$[ebp], eax

; 39   : 	pLight->SetParameter(ID, LightData);

  00022	ff 75 10	 push	 DWORD PTR _LightData$[ebp]
  00025	ff 75 f8	 push	 DWORD PTR _ID$[ebp]
  00028	8b 4d f4	 mov	 ecx, DWORD PTR _pLight$[ebp]
  0002b	e8 00 00 00 00	 call	 ?SetParameter@CLight@@QAEXKABU_D3DLIGHT8@@@Z ; CLight::SetParameter
; File C:\Program Files (x86)\Microsoft Visual Studio\2019\Community\VC\Tools\MSVC\14.28.29333\include\map

; 325  :         return _Try_emplace(_Keyval).first->_Myval.second;

  00030	8d 45 f8	 lea	 eax, DWORD PTR _ID$[ebp]
  00033	50		 push	 eax
  00034	8d 45 ec	 lea	 eax, DWORD PTR $T1[ebp]
  00037	50		 push	 eax
; File D:\Metin2 Server Files\mainline\SRC_2014\Metin2Client\EterLib\GrpLightManager.cpp

; 40   : 	m_LightMap[ID] = pLight;

  00038	8b 4d fc	 mov	 ecx, DWORD PTR _this$[ebp]
  0003b	83 c1 20	 add	 ecx, 32			; 00000020H
; File C:\Program Files (x86)\Microsoft Visual Studio\2019\Community\VC\Tools\MSVC\14.28.29333\include\map

; 325  :         return _Try_emplace(_Keyval).first->_Myval.second;

  0003e	e8 00 00 00 00	 call	 ??$_Try_emplace@ABK$$V@?$map@KPAVCLight@@U?$less@K@std@@V?$allocator@U?$pair@$$CBKPAVCLight@@@std@@@3@@std@@AAE?AU?$pair@PAU?$_Tree_node@U?$pair@$$CBKPAVCLight@@@std@@PAX@std@@_N@1@ABK@Z ; std::map<unsigned long,CLight *,std::less<unsigned long>,std::allocator<std::pair<unsigned long const ,CLight *> > >::_Try_emplace<unsigned long const &>
; File D:\Metin2 Server Files\mainline\SRC_2014\Metin2Client\EterLib\GrpLightManager.cpp

; 40   : 	m_LightMap[ID] = pLight;

  00043	8b 00		 mov	 eax, DWORD PTR [eax]
  00045	8b 4d f4	 mov	 ecx, DWORD PTR _pLight$[ebp]
  00048	89 48 14	 mov	 DWORD PTR [eax+20], ecx

; 41   : 	*poutLightID = ID;

  0004b	8b 45 0c	 mov	 eax, DWORD PTR _poutLightID$[ebp]
  0004e	8b 4d f8	 mov	 ecx, DWORD PTR _ID$[ebp]
  00051	89 08		 mov	 DWORD PTR [eax], ecx

; 42   : }

  00053	c9		 leave
  00054	c2 0c 00	 ret	 12			; 0000000cH
?RegisterLight@CLightManager@@QAEXW4ELightType@@PAKAAU_D3DLIGHT8@@@Z ENDP ; CLightManager::RegisterLight
_TEXT	ENDS
; Function compile flags: /Odspy
; File D:\Metin2 Server Files\mainline\SRC_2014\Metin2Client\EterLib\GrpLightManager.cpp
; File C:\Program Files (x86)\Microsoft Visual Studio\2019\Community\VC\Tools\MSVC\14.28.29333\include\vector
; File D:\Metin2 Server Files\mainline\SRC_2014\Metin2Client\EterLib\GrpLightManager.cpp
; File C:\Program Files (x86)\Microsoft Visual Studio\2019\Community\VC\Tools\MSVC\14.28.29333\include\vector
; File D:\Metin2 Server Files\mainline\SRC_2014\Metin2Client\EterLib\GrpLightManager.cpp
; File C:\Program Files (x86)\Microsoft Visual Studio\2019\Community\VC\Tools\MSVC\14.28.29333\include\vector
; File D:\Metin2 Server Files\mainline\SRC_2014\Metin2Client\EterLib\GrpLightManager.cpp
;	COMDAT ?RestoreLight@CLightManager@@QAEXXZ
_TEXT	SEGMENT
$T1 = -36						; size = 4
$T2 = -32						; size = 4
__My_data$3 = -28					; size = 4
$T4 = -24						; size = 4
__My_data$5 = -20					; size = 4
__My_data$6 = -16					; size = 4
tv77 = -12						; size = 4
_k$7 = -8						; size = 4
_this$ = -4						; size = 4
?RestoreLight@CLightManager@@QAEXXZ PROC		; CLightManager::RestoreLight, COMDAT
; _this$ = ecx

; 139  : {

  00000	55		 push	 ebp
  00001	8b ec		 mov	 ebp, esp
  00003	83 ec 24	 sub	 esp, 36			; 00000024H
  00006	89 4d fc	 mov	 DWORD PTR _this$[ebp], ecx

; 140  : 	STATEMANAGER.RestoreRenderState(D3DRS_LIGHTING);

  00009	68 89 00 00 00	 push	 137			; 00000089H
  0000e	8b 0d 00 00 00
	00		 mov	 ecx, DWORD PTR ?ms_singleton@?$CSingleton@VCStateManager@@@@0PAVCStateManager@@A ; CSingleton<CStateManager>::ms_singleton
  00014	e8 00 00 00 00	 call	 ?RestoreRenderState@CStateManager@@QAEXW4_D3DRENDERSTATETYPE@@@Z ; CStateManager::RestoreRenderState

; 142  : 	for (DWORD k = 0; k < min(m_dwLimitLightCount, m_LightSortVector.size()); ++k)

  00019	83 65 f8 00	 and	 DWORD PTR _k$7[ebp], 0
  0001d	eb 07		 jmp	 SHORT $LN4@RestoreLig
$LN2@RestoreLig:
  0001f	8b 45 f8	 mov	 eax, DWORD PTR _k$7[ebp]
  00022	40		 inc	 eax
  00023	89 45 f8	 mov	 DWORD PTR _k$7[ebp], eax
$LN4@RestoreLig:
; File C:\Program Files (x86)\Microsoft Visual Studio\2019\Community\VC\Tools\MSVC\14.28.29333\include\vector

; 1483 :         auto& _My_data = _Mypair._Myval2;

  00026	8b 45 fc	 mov	 eax, DWORD PTR _this$[ebp]
  00029	83 c0 28	 add	 eax, 40			; 00000028H
  0002c	89 45 f0	 mov	 DWORD PTR __My_data$6[ebp], eax

; 1484 :         return static_cast<size_type>(_My_data._Mylast - _My_data._Myfirst);

  0002f	8b 45 f0	 mov	 eax, DWORD PTR __My_data$6[ebp]
  00032	8b 4d f0	 mov	 ecx, DWORD PTR __My_data$6[ebp]
  00035	8b 40 04	 mov	 eax, DWORD PTR [eax+4]
  00038	2b 01		 sub	 eax, DWORD PTR [ecx]
  0003a	c1 f8 02	 sar	 eax, 2
  0003d	89 45 e8	 mov	 DWORD PTR $T4[ebp], eax
; File D:\Metin2 Server Files\mainline\SRC_2014\Metin2Client\EterLib\GrpLightManager.cpp

; 142  : 	for (DWORD k = 0; k < min(m_dwLimitLightCount, m_LightSortVector.size()); ++k)

  00040	8b 45 fc	 mov	 eax, DWORD PTR _this$[ebp]
  00043	8b 40 40	 mov	 eax, DWORD PTR [eax+64]
  00046	3b 45 e8	 cmp	 eax, DWORD PTR $T4[ebp]
  00049	73 0b		 jae	 SHORT $LN6@RestoreLig
  0004b	8b 45 fc	 mov	 eax, DWORD PTR _this$[ebp]
  0004e	8b 40 40	 mov	 eax, DWORD PTR [eax+64]
  00051	89 45 f4	 mov	 DWORD PTR tv77[ebp], eax
  00054	eb 20		 jmp	 SHORT $LN7@RestoreLig
$LN6@RestoreLig:
  00056	8b 45 dc	 mov	 eax, DWORD PTR $T1[ebp]
  00059	89 45 f4	 mov	 DWORD PTR tv77[ebp], eax
; File C:\Program Files (x86)\Microsoft Visual Studio\2019\Community\VC\Tools\MSVC\14.28.29333\include\vector

; 1483 :         auto& _My_data = _Mypair._Myval2;

  0005c	8b 45 fc	 mov	 eax, DWORD PTR _this$[ebp]
  0005f	83 c0 28	 add	 eax, 40			; 00000028H
  00062	89 45 ec	 mov	 DWORD PTR __My_data$5[ebp], eax

; 1484 :         return static_cast<size_type>(_My_data._Mylast - _My_data._Myfirst);

  00065	8b 45 ec	 mov	 eax, DWORD PTR __My_data$5[ebp]
  00068	8b 4d ec	 mov	 ecx, DWORD PTR __My_data$5[ebp]
  0006b	8b 40 04	 mov	 eax, DWORD PTR [eax+4]
  0006e	2b 01		 sub	 eax, DWORD PTR [ecx]
  00070	c1 f8 02	 sar	 eax, 2
  00073	89 45 f4	 mov	 DWORD PTR tv77[ebp], eax
$LN7@RestoreLig:
; File D:\Metin2 Server Files\mainline\SRC_2014\Metin2Client\EterLib\GrpLightManager.cpp

; 142  : 	for (DWORD k = 0; k < min(m_dwLimitLightCount, m_LightSortVector.size()); ++k)

  00076	8b 45 f8	 mov	 eax, DWORD PTR _k$7[ebp]
  00079	3b 45 f4	 cmp	 eax, DWORD PTR tv77[ebp]
  0007c	73 28		 jae	 SHORT $LN1@RestoreLig
; File C:\Program Files (x86)\Microsoft Visual Studio\2019\Community\VC\Tools\MSVC\14.28.29333\include\vector

; 1498 :         auto& _My_data = _Mypair._Myval2;

  0007e	8b 45 fc	 mov	 eax, DWORD PTR _this$[ebp]
  00081	83 c0 28	 add	 eax, 40			; 00000028H
  00084	89 45 e4	 mov	 DWORD PTR __My_data$3[ebp], eax

; 1499 : #if _CONTAINER_DEBUG_LEVEL > 0
; 1500 :         _STL_VERIFY(
; 1501 :             _Pos < static_cast<size_type>(_My_data._Mylast - _My_data._Myfirst), "vector subscript out of range");
; 1502 : #endif // _CONTAINER_DEBUG_LEVEL > 0
; 1503 : 
; 1504 :         return _My_data._Myfirst[_Pos];

  00087	8b 45 e4	 mov	 eax, DWORD PTR __My_data$3[ebp]
  0008a	8b 00		 mov	 eax, DWORD PTR [eax]
  0008c	8b 4d f8	 mov	 ecx, DWORD PTR _k$7[ebp]
  0008f	8d 04 88	 lea	 eax, DWORD PTR [eax+ecx*4]
  00092	89 45 e0	 mov	 DWORD PTR $T2[ebp], eax
; File D:\Metin2 Server Files\mainline\SRC_2014\Metin2Client\EterLib\GrpLightManager.cpp

; 143  : 		m_LightSortVector[k]->SetDeviceLight(FALSE);

  00095	6a 00		 push	 0
  00097	8b 45 e0	 mov	 eax, DWORD PTR $T2[ebp]
  0009a	8b 08		 mov	 ecx, DWORD PTR [eax]
  0009c	e8 00 00 00 00	 call	 ?SetDeviceLight@CLight@@QAEXH@Z ; CLight::SetDeviceLight
  000a1	e9 79 ff ff ff	 jmp	 $LN2@RestoreLig
$LN1@RestoreLig:

; 144  : }

  000a6	c9		 leave
  000a7	c3		 ret	 0
?RestoreLight@CLightManager@@QAEXXZ ENDP		; CLightManager::RestoreLight
_TEXT	ENDS
; Function compile flags: /Odspy
; File D:\Metin2 Server Files\mainline\SRC_2014\Metin2Client\EterLib\GrpLightManager.cpp
; File C:\Program Files (x86)\Microsoft Visual Studio\2019\Community\VC\Tools\MSVC\14.28.29333\include\xtree
; File C:\Program Files (x86)\Microsoft Visual Studio\2019\Community\VC\Tools\MSVC\14.28.29333\include\xstddef
; File C:\Program Files (x86)\Microsoft Visual Studio\2019\Community\VC\Tools\MSVC\14.28.29333\include\xtree
; File D:\Metin2 Server Files\mainline\SRC_2014\Metin2Client\EterLib\GrpLightManager.cpp
; File C:\Program Files (x86)\Microsoft Visual Studio\2019\Community\VC\Tools\MSVC\14.28.29333\include\xtree
; File C:\Program Files (x86)\Microsoft Visual Studio\2019\Community\VC\Tools\MSVC\14.28.29333\include\xstddef
; File C:\Program Files (x86)\Microsoft Visual Studio\2019\Community\VC\Tools\MSVC\14.28.29333\include\xutility
; File C:\Program Files (x86)\Microsoft Visual Studio\2019\Community\VC\Tools\MSVC\14.28.29333\include\xtree
; File D:\Metin2 Server Files\mainline\SRC_2014\Metin2Client\EterLib\GrpLightManager.cpp
; File D:\Metin2 Server Files\mainline\SRC_2014\M2Data\include\d3dx8math.inl
; File D:\Metin2 Server Files\mainline\SRC_2014\Metin2Client\EterLib\GrpLightManager.cpp
; File D:\Metin2 Server Files\mainline\SRC_2014\M2Data\include\d3dx8math.inl
; File C:\Program Files (x86)\Windows Kits\10\Include\10.0.18362.0\ucrt\corecrt_math.h
; File D:\Metin2 Server Files\mainline\SRC_2014\M2Data\include\d3dx8math.inl
; File D:\Metin2 Server Files\mainline\SRC_2014\Metin2Client\EterLib\GrpLightManager.cpp
; File C:\Program Files (x86)\Microsoft Visual Studio\2019\Community\VC\Tools\MSVC\14.28.29333\include\vector
; File D:\Metin2 Server Files\mainline\SRC_2014\Metin2Client\EterLib\GrpLightManager.cpp
; File C:\Program Files (x86)\Microsoft Visual Studio\2019\Community\VC\Tools\MSVC\14.28.29333\include\vector
; File D:\Metin2 Server Files\mainline\SRC_2014\Metin2Client\EterLib\GrpLightManager.cpp
; File C:\Program Files (x86)\Microsoft Visual Studio\2019\Community\VC\Tools\MSVC\14.28.29333\include\vector
; File C:\Program Files (x86)\Microsoft Visual Studio\2019\Community\VC\Tools\MSVC\14.28.29333\include\xstddef
; File C:\Program Files (x86)\Microsoft Visual Studio\2019\Community\VC\Tools\MSVC\14.28.29333\include\vector
; File C:\Program Files (x86)\Microsoft Visual Studio\2019\Community\VC\Tools\MSVC\14.28.29333\include\xstddef
; File C:\Program Files (x86)\Microsoft Visual Studio\2019\Community\VC\Tools\MSVC\14.28.29333\include\vector
; File D:\Metin2 Server Files\mainline\SRC_2014\Metin2Client\EterLib\GrpLightManager.cpp
; File C:\Program Files (x86)\Microsoft Visual Studio\2019\Community\VC\Tools\MSVC\14.28.29333\include\vector
; File C:\Program Files (x86)\Microsoft Visual Studio\2019\Community\VC\Tools\MSVC\14.28.29333\include\xstddef
; File C:\Program Files (x86)\Microsoft Visual Studio\2019\Community\VC\Tools\MSVC\14.28.29333\include\vector
; File C:\Program Files (x86)\Microsoft Visual Studio\2019\Community\VC\Tools\MSVC\14.28.29333\include\algorithm
; File C:\Program Files (x86)\Microsoft Visual Studio\2019\Community\VC\Tools\MSVC\14.28.29333\include\vector
; File C:\Program Files (x86)\Microsoft Visual Studio\2019\Community\VC\Tools\MSVC\14.28.29333\include\xstddef
; File C:\Program Files (x86)\Microsoft Visual Studio\2019\Community\VC\Tools\MSVC\14.28.29333\include\vector
; File C:\Program Files (x86)\Microsoft Visual Studio\2019\Community\VC\Tools\MSVC\14.28.29333\include\algorithm
; File D:\Metin2 Server Files\mainline\SRC_2014\Metin2Client\EterLib\GrpLightManager.cpp
; File C:\Program Files (x86)\Microsoft Visual Studio\2019\Community\VC\Tools\MSVC\14.28.29333\include\vector
; File D:\Metin2 Server Files\mainline\SRC_2014\Metin2Client\EterLib\GrpLightManager.cpp
; File C:\Program Files (x86)\Microsoft Visual Studio\2019\Community\VC\Tools\MSVC\14.28.29333\include\vector
; File D:\Metin2 Server Files\mainline\SRC_2014\Metin2Client\EterLib\GrpLightManager.cpp
; File C:\Program Files (x86)\Microsoft Visual Studio\2019\Community\VC\Tools\MSVC\14.28.29333\include\vector
; File D:\Metin2 Server Files\mainline\SRC_2014\Metin2Client\EterLib\GrpLightManager.cpp
; File C:\Program Files (x86)\Microsoft Visual Studio\2019\Community\VC\Tools\MSVC\14.28.29333\include\vector
; File D:\Metin2 Server Files\mainline\SRC_2014\Metin2Client\EterLib\GrpLightManager.cpp
;	COMDAT ?FlushLight@CLightManager@@QAEXXZ
_TEXT	SEGMENT
$T1 = -128						; size = 4
$T2 = -124						; size = 4
$T3 = -120						; size = 4
$T4 = -116						; size = 4
__Scary$5 = -112					; size = 4
$T6 = -108						; size = 4
__My_data$7 = -104					; size = 4
__Last$ = -100						; size = 4
__My_data$8 = -96					; size = 4
$T9 = -92						; size = 4
$T10 = -88						; size = 1
$T11 = -84						; size = 4
$T12 = -80						; size = 4
__Ptr$13 = -76						; size = 4
$T14 = -72						; size = 4
$T15 = -68						; size = 4
$T16 = -64						; size = 4
__Ptr$17 = -60						; size = 4
__First$ = -56						; size = 4
$T18 = -52						; size = 4
$T19 = -48						; size = 4
$T20 = -44						; size = 4
___param0$ = -40					; size = 4
$T21 = -36						; size = 4
___param0$ = -32					; size = 4
$T22 = -28						; size = 4
__X$ = -24						; size = 4
_fz$ = -20						; size = 4
_fy$ = -16						; size = 4
_fx$ = -12						; size = 4
$T23 = -8						; size = 4
$T24 = -4						; size = 4
$T25 = 0						; size = 4
$T26 = 4						; size = 4
$T27 = 8						; size = 4
$T28 = 12						; size = 4
$T29 = 16						; size = 4
___param0$ = 20						; size = 4
__My_data$30 = 24					; size = 4
__My_data$31 = 28					; size = 4
__UFirst$32 = 32					; size = 4
__ULast$33 = 36						; size = 4
__My_data$34 = 40					; size = 4
__My_data$35 = 44					; size = 4
tv233 = 48						; size = 4
tv257 = 52						; size = 4
tv171 = 56						; size = 4
_pLight$36 = 60						; size = 4
_v$ = 64						; size = 4
_v$ = 68						; size = 4
_itor$ = 72						; size = 4
$T37 = 79						; size = 1
_k$38 = 80						; size = 4
$T39 = 86						; size = 1
$T40 = 87						; size = 1
_this$ = 88						; size = 4
_v3LightPos$41 = 92					; size = 12
_v3Distance$42 = 104					; size = 12
__$ArrayPad$ = 116					; size = 4
?FlushLight@CLightManager@@QAEXXZ PROC			; CLightManager::FlushLight, COMDAT
; _this$ = ecx

; 103  : {

  00000	55		 push	 ebp
  00001	8d 6c 24 88	 lea	 ebp, DWORD PTR [esp-120]
  00005	81 ec f8 00 00
	00		 sub	 esp, 248		; 000000f8H
  0000b	a1 00 00 00 00	 mov	 eax, DWORD PTR ___security_cookie
  00010	33 c5		 xor	 eax, ebp
  00012	89 45 74	 mov	 DWORD PTR __$ArrayPad$[ebp], eax
  00015	89 4d 58	 mov	 DWORD PTR _this$[ebp], ecx

; 104  : 	Update();

  00018	8b 4d 58	 mov	 ecx, DWORD PTR _this$[ebp]
  0001b	e8 00 00 00 00	 call	 ?Update@CLightManager@@QAEXXZ ; CLightManager::Update

; 105  : 
; 106  : 	m_LightSortVector.clear();

  00020	8b 4d 58	 mov	 ecx, DWORD PTR _this$[ebp]
  00023	83 c1 28	 add	 ecx, 40			; 00000028H
  00026	e8 00 00 00 00	 call	 ?clear@?$vector@PAVCLight@@V?$allocator@PAVCLight@@@std@@@std@@QAEXXZ ; std::vector<CLight *,std::allocator<CLight *> >::clear

; 107  : 
; 108  : 	// NOTE: Dynamic Static   CenterPosition  Static
; 109  : 	//		  Flush      . - [levites]
; 110  : 
; 111  : 	// light   .
; 112  : 	TLightMap::iterator itor = m_LightMap.begin();

  0002b	8d 45 48	 lea	 eax, DWORD PTR _itor$[ebp]
  0002e	50		 push	 eax
  0002f	8b 4d 58	 mov	 ecx, DWORD PTR _this$[ebp]
  00032	83 c1 20	 add	 ecx, 32			; 00000020H
  00035	e8 00 00 00 00	 call	 ?begin@?$_Tree@V?$_Tmap_traits@KPAVCLight@@U?$less@K@std@@V?$allocator@U?$pair@$$CBKPAVCLight@@@std@@@3@$0A@@std@@@std@@QAE?AV?$_Tree_iterator@V?$_Tree_val@U?$_Tree_simple_types@U?$pair@$$CBKPAVCLight@@@std@@@std@@@std@@@2@XZ ; std::_Tree<std::_Tmap_traits<unsigned long,CLight *,std::less<unsigned long>,std::allocator<std::pair<unsigned long const ,CLight *> >,0> >::begin

; 114  : 	for (; itor != m_LightMap.end(); ++itor)

  0003a	eb 08		 jmp	 SHORT $LN46@FlushLight
$LN2@FlushLight:
; File C:\Program Files (x86)\Microsoft Visual Studio\2019\Community\VC\Tools\MSVC\14.28.29333\include\xtree

; 198  :         _Mybase::operator++();

  0003c	8d 4d 48	 lea	 ecx, DWORD PTR _itor$[ebp]
  0003f	e8 00 00 00 00	 call	 ??E?$_Tree_unchecked_const_iterator@V?$_Tree_val@U?$_Tree_simple_types@U?$pair@$$CBKPAVCLight@@@std@@@std@@@std@@U_Iterator_base0@2@@std@@QAEAAV01@XZ ; std::_Tree_unchecked_const_iterator<std::_Tree_val<std::_Tree_simple_types<std::pair<unsigned long const ,CLight *> > >,std::_Iterator_base0>::operator++
$LN46@FlushLight:

; 2047 :         return _STD addressof(_Mypair._Myval2._Myval2);

  00044	8b 45 58	 mov	 eax, DWORD PTR _this$[ebp]
  00047	83 c0 20	 add	 eax, 32			; 00000020H
; File C:\Program Files (x86)\Microsoft Visual Studio\2019\Community\VC\Tools\MSVC\14.28.29333\include\xstddef

; 275  :     return __builtin_addressof(_Val);

  0004a	89 45 b8	 mov	 DWORD PTR $T14[ebp], eax
; File C:\Program Files (x86)\Microsoft Visual Studio\2019\Community\VC\Tools\MSVC\14.28.29333\include\xtree

; 2047 :         return _STD addressof(_Mypair._Myval2._Myval2);

  0004d	8b 45 b8	 mov	 eax, DWORD PTR $T14[ebp]
  00050	89 45 90	 mov	 DWORD PTR __Scary$5[ebp], eax

; 1250 :         return iterator(_Scary->_Myhead, _Scary);

  00053	8b 45 90	 mov	 eax, DWORD PTR __Scary$5[ebp]
  00056	8b 00		 mov	 eax, DWORD PTR [eax]
  00058	89 45 14	 mov	 DWORD PTR ___param0$[ebp], eax

; 39   :     _Tree_unchecked_const_iterator(_Nodeptr _Pnode, const _Mytree* _Plist) noexcept : _Ptr(_Pnode) {

  0005b	8b 45 14	 mov	 eax, DWORD PTR ___param0$[ebp]
  0005e	89 45 10	 mov	 DWORD PTR $T29[ebp], eax

; 1250 :         return iterator(_Scary->_Myhead, _Scary);

  00061	8d 45 10	 lea	 eax, DWORD PTR $T29[ebp]
  00064	89 45 0c	 mov	 DWORD PTR $T28[ebp], eax

; 232  :         return this->_Ptr == _Right._Ptr;

  00067	8b 45 0c	 mov	 eax, DWORD PTR $T28[ebp]
  0006a	8b 4d 48	 mov	 ecx, DWORD PTR _itor$[ebp]
  0006d	3b 08		 cmp	 ecx, DWORD PTR [eax]
  0006f	75 09		 jne	 SHORT $LN80@FlushLight
  00071	c7 45 34 01 00
	00 00		 mov	 DWORD PTR tv257[ebp], 1
  00078	eb 04		 jmp	 SHORT $LN81@FlushLight
$LN80@FlushLight:
  0007a	83 65 34 00	 and	 DWORD PTR tv257[ebp], 0
$LN81@FlushLight:
  0007e	8a 45 34	 mov	 al, BYTE PTR tv257[ebp]
  00081	88 45 57	 mov	 BYTE PTR $T40[ebp], al

; 236  :         return !(*this == _Right);

  00084	0f b6 45 57	 movzx	 eax, BYTE PTR $T40[ebp]
  00088	85 c0		 test	 eax, eax
  0008a	75 09		 jne	 SHORT $LN75@FlushLight
  0008c	c7 45 30 01 00
	00 00		 mov	 DWORD PTR tv233[ebp], 1
  00093	eb 04		 jmp	 SHORT $LN76@FlushLight
$LN75@FlushLight:
  00095	83 65 30 00	 and	 DWORD PTR tv233[ebp], 0
$LN76@FlushLight:
  00099	8a 45 30	 mov	 al, BYTE PTR tv233[ebp]
  0009c	88 45 56	 mov	 BYTE PTR $T39[ebp], al
; File D:\Metin2 Server Files\mainline\SRC_2014\Metin2Client\EterLib\GrpLightManager.cpp

; 114  : 	for (; itor != m_LightMap.end(); ++itor)

  0009f	0f b6 45 56	 movzx	 eax, BYTE PTR $T39[ebp]
  000a3	85 c0		 test	 eax, eax
  000a5	0f 84 1f 01 00
	00		 je	 $LN3@FlushLight
; File C:\Program Files (x86)\Microsoft Visual Studio\2019\Community\VC\Tools\MSVC\14.28.29333\include\xtree

; 185  :         return this->_Ptr->_Myval;

  000ab	8b 45 48	 mov	 eax, DWORD PTR _itor$[ebp]
  000ae	83 c0 10	 add	 eax, 16			; 00000010H
  000b1	89 45 08	 mov	 DWORD PTR $T27[ebp], eax

; 273  :         return const_cast<reference>(_Mybase::operator*());

  000b4	8b 45 08	 mov	 eax, DWORD PTR $T27[ebp]
  000b7	89 45 04	 mov	 DWORD PTR $T26[ebp], eax
; File C:\Program Files (x86)\Microsoft Visual Studio\2019\Community\VC\Tools\MSVC\14.28.29333\include\xstddef

; 275  :     return __builtin_addressof(_Val);

  000ba	8b 45 04	 mov	 eax, DWORD PTR $T26[ebp]
  000bd	89 45 00	 mov	 DWORD PTR $T25[ebp], eax
; File C:\Program Files (x86)\Microsoft Visual Studio\2019\Community\VC\Tools\MSVC\14.28.29333\include\xutility

; 151  :         return _STD addressof(_Val);

  000c0	8b 45 00	 mov	 eax, DWORD PTR $T25[ebp]
  000c3	89 45 fc	 mov	 DWORD PTR $T24[ebp], eax
; File C:\Program Files (x86)\Microsoft Visual Studio\2019\Community\VC\Tools\MSVC\14.28.29333\include\xtree

; 277  :         return pointer_traits<pointer>::pointer_to(**this);

  000c6	8b 45 fc	 mov	 eax, DWORD PTR $T24[ebp]
  000c9	89 45 f8	 mov	 DWORD PTR $T23[ebp], eax
; File D:\Metin2 Server Files\mainline\SRC_2014\Metin2Client\EterLib\GrpLightManager.cpp

; 116  : 		CLight * pLight = itor->second;

  000cc	8b 45 f8	 mov	 eax, DWORD PTR $T23[ebp]
  000cf	8b 40 04	 mov	 eax, DWORD PTR [eax+4]
  000d2	89 45 3c	 mov	 DWORD PTR _pLight$36[ebp], eax

; 117  : 
; 118  : 		D3DXVECTOR3 v3LightPos(pLight->GetPosition());

  000d5	8b 4d 3c	 mov	 ecx, DWORD PTR _pLight$36[ebp]
  000d8	e8 00 00 00 00	 call	 ?GetPosition@CLight@@QBEABU_D3DVECTOR@@XZ ; CLight::GetPosition
  000dd	89 45 44	 mov	 DWORD PTR _v$[ebp], eax
; File D:\Metin2 Server Files\mainline\SRC_2014\M2Data\include\d3dx8math.inl

; 172  :     x = v.x;

  000e0	8b 45 44	 mov	 eax, DWORD PTR _v$[ebp]
  000e3	f3 0f 10 00	 movss	 xmm0, DWORD PTR [eax]
  000e7	f3 0f 11 45 5c	 movss	 DWORD PTR _v3LightPos$41[ebp], xmm0

; 173  :     y = v.y;

  000ec	8b 45 44	 mov	 eax, DWORD PTR _v$[ebp]
  000ef	f3 0f 10 40 04	 movss	 xmm0, DWORD PTR [eax+4]
  000f4	f3 0f 11 45 60	 movss	 DWORD PTR _v3LightPos$41[ebp+4], xmm0

; 174  :     z = v.z;

  000f9	8b 45 44	 mov	 eax, DWORD PTR _v$[ebp]
  000fc	f3 0f 10 40 08	 movss	 xmm0, DWORD PTR [eax+8]
  00101	f3 0f 11 45 64	 movss	 DWORD PTR _v3LightPos$41[ebp+8], xmm0
; File D:\Metin2 Server Files\mainline\SRC_2014\Metin2Client\EterLib\GrpLightManager.cpp

; 119  : 		D3DXVECTOR3 v3Distance(v3LightPos - m_v3CenterPosition);

  00106	8b 45 58	 mov	 eax, DWORD PTR _this$[ebp]
  00109	83 c0 34	 add	 eax, 52			; 00000034H
  0010c	89 45 40	 mov	 DWORD PTR _v$[ebp], eax
; File D:\Metin2 Server Files\mainline\SRC_2014\M2Data\include\d3dx8math.inl

; 263  :     return D3DXVECTOR3(x - v.x, y - v.y, z - v.z);

  0010f	8b 45 40	 mov	 eax, DWORD PTR _v$[ebp]
  00112	f3 0f 10 45 5c	 movss	 xmm0, DWORD PTR _v3LightPos$41[ebp]
  00117	f3 0f 5c 00	 subss	 xmm0, DWORD PTR [eax]
  0011b	f3 0f 11 45 f4	 movss	 DWORD PTR _fx$[ebp], xmm0
  00120	8b 45 40	 mov	 eax, DWORD PTR _v$[ebp]
  00123	f3 0f 10 45 60	 movss	 xmm0, DWORD PTR _v3LightPos$41[ebp+4]
  00128	f3 0f 5c 40 04	 subss	 xmm0, DWORD PTR [eax+4]
  0012d	f3 0f 11 45 f0	 movss	 DWORD PTR _fy$[ebp], xmm0
  00132	8b 45 40	 mov	 eax, DWORD PTR _v$[ebp]
  00135	f3 0f 10 45 64	 movss	 xmm0, DWORD PTR _v3LightPos$41[ebp+8]
  0013a	f3 0f 5c 40 08	 subss	 xmm0, DWORD PTR [eax+8]
  0013f	f3 0f 11 45 ec	 movss	 DWORD PTR _fz$[ebp], xmm0

; 180  :     x = fx;

  00144	f3 0f 10 45 f4	 movss	 xmm0, DWORD PTR _fx$[ebp]
  00149	f3 0f 11 45 68	 movss	 DWORD PTR _v3Distance$42[ebp], xmm0

; 181  :     y = fy;

  0014e	f3 0f 10 45 f0	 movss	 xmm0, DWORD PTR _fy$[ebp]
  00153	f3 0f 11 45 6c	 movss	 DWORD PTR _v3Distance$42[ebp+4], xmm0

; 182  :     z = fz;

  00158	f3 0f 10 45 ec	 movss	 xmm0, DWORD PTR _fz$[ebp]
  0015d	f3 0f 11 45 70	 movss	 DWORD PTR _v3Distance$42[ebp+8], xmm0

; 1239 :     return sqrtf(pV->x * pV->x + pV->y * pV->y + pV->z * pV->z);

  00162	f3 0f 10 45 70	 movss	 xmm0, DWORD PTR _v3Distance$42[ebp+8]
  00167	f3 0f 59 45 70	 mulss	 xmm0, DWORD PTR _v3Distance$42[ebp+8]
  0016c	f3 0f 10 4d 6c	 movss	 xmm1, DWORD PTR _v3Distance$42[ebp+4]
  00171	f3 0f 59 4d 6c	 mulss	 xmm1, DWORD PTR _v3Distance$42[ebp+4]
  00176	f3 0f 10 55 68	 movss	 xmm2, DWORD PTR _v3Distance$42[ebp]
  0017b	f3 0f 59 55 68	 mulss	 xmm2, DWORD PTR _v3Distance$42[ebp]
  00180	f3 0f 58 d1	 addss	 xmm2, xmm1
  00184	f3 0f 58 d0	 addss	 xmm2, xmm0
  00188	f3 0f 11 55 e8	 movss	 DWORD PTR __X$[ebp], xmm2
; File C:\Program Files (x86)\Windows Kits\10\Include\10.0.18362.0\ucrt\corecrt_math.h

; 760  :             return (float)sqrt(_X);

  0018d	f3 0f 5a 45 e8	 cvtss2sd xmm0, DWORD PTR __X$[ebp]
  00192	51		 push	 ecx
  00193	51		 push	 ecx
  00194	f2 0f 11 04 24	 movsd	 QWORD PTR [esp], xmm0
  00199	e8 00 00 00 00	 call	 _sqrt
  0019e	59		 pop	 ecx
  0019f	59		 pop	 ecx
; File D:\Metin2 Server Files\mainline\SRC_2014\M2Data\include\d3dx8math.inl

; 1239 :     return sqrtf(pV->x * pV->x + pV->y * pV->y + pV->z * pV->z);

  001a0	d9 5d e4	 fstp	 DWORD PTR $T22[ebp]
; File D:\Metin2 Server Files\mainline\SRC_2014\Metin2Client\EterLib\GrpLightManager.cpp

; 120  : 		pLight->SetDistance(D3DXVec3Length(&v3Distance));

  001a3	51		 push	 ecx
  001a4	f3 0f 10 45 e4	 movss	 xmm0, DWORD PTR $T22[ebp]
  001a9	f3 0f 11 04 24	 movss	 DWORD PTR [esp], xmm0
  001ae	8b 4d 3c	 mov	 ecx, DWORD PTR _pLight$36[ebp]
  001b1	e8 00 00 00 00	 call	 ?SetDistance@CLight@@QAEXM@Z ; CLight::SetDistance
; File C:\Program Files (x86)\Microsoft Visual Studio\2019\Community\VC\Tools\MSVC\14.28.29333\include\vector

; 717  :         emplace_back(_Val);

  001b6	8d 45 3c	 lea	 eax, DWORD PTR _pLight$36[ebp]
  001b9	50		 push	 eax
; File D:\Metin2 Server Files\mainline\SRC_2014\Metin2Client\EterLib\GrpLightManager.cpp

; 121  : 		m_LightSortVector.push_back(pLight);

  001ba	8b 4d 58	 mov	 ecx, DWORD PTR _this$[ebp]
  001bd	83 c1 28	 add	 ecx, 40			; 00000028H
; File C:\Program Files (x86)\Microsoft Visual Studio\2019\Community\VC\Tools\MSVC\14.28.29333\include\vector

; 717  :         emplace_back(_Val);

  001c0	e8 00 00 00 00	 call	 ??$emplace_back@ABQAVCLight@@@?$vector@PAVCLight@@V?$allocator@PAVCLight@@@std@@@std@@QAEXABQAVCLight@@@Z ; std::vector<CLight *,std::allocator<CLight *> >::emplace_back<CLight * const &>
; File D:\Metin2 Server Files\mainline\SRC_2014\Metin2Client\EterLib\GrpLightManager.cpp

; 122  : 	}

  001c5	e9 72 fe ff ff	 jmp	 $LN2@FlushLight
$LN3@FlushLight:
; File C:\Program Files (x86)\Microsoft Visual Studio\2019\Community\VC\Tools\MSVC\14.28.29333\include\vector

; 1420 :         auto& _My_data = _Mypair._Myval2;

  001ca	8b 45 58	 mov	 eax, DWORD PTR _this$[ebp]
  001cd	83 c0 28	 add	 eax, 40			; 00000028H
  001d0	89 45 2c	 mov	 DWORD PTR __My_data$35[ebp], eax
; File C:\Program Files (x86)\Microsoft Visual Studio\2019\Community\VC\Tools\MSVC\14.28.29333\include\xstddef

; 275  :     return __builtin_addressof(_Val);

  001d3	8b 45 2c	 mov	 eax, DWORD PTR __My_data$35[ebp]
  001d6	89 45 84	 mov	 DWORD PTR $T2[ebp], eax
; File C:\Program Files (x86)\Microsoft Visual Studio\2019\Community\VC\Tools\MSVC\14.28.29333\include\vector

; 1421 :         return iterator(_My_data._Mylast, _STD addressof(_My_data));

  001d9	8b 45 2c	 mov	 eax, DWORD PTR __My_data$35[ebp]
  001dc	8b 40 04	 mov	 eax, DWORD PTR [eax+4]
  001df	89 45 e0	 mov	 DWORD PTR ___param0$[ebp], eax

; 42   :     _Vector_const_iterator(_Tptr _Parg, const _Container_base* _Pvector) noexcept : _Ptr(_Parg) {

  001e2	8b 45 e0	 mov	 eax, DWORD PTR ___param0$[ebp]
  001e5	89 45 dc	 mov	 DWORD PTR $T21[ebp], eax

; 1421 :         return iterator(_My_data._Mylast, _STD addressof(_My_data));

  001e8	8d 45 dc	 lea	 eax, DWORD PTR $T21[ebp]
  001eb	89 45 d0	 mov	 DWORD PTR $T19[ebp], eax

; 1410 :         auto& _My_data = _Mypair._Myval2;

  001ee	8b 45 58	 mov	 eax, DWORD PTR _this$[ebp]
  001f1	83 c0 28	 add	 eax, 40			; 00000028H
  001f4	89 45 28	 mov	 DWORD PTR __My_data$34[ebp], eax
; File C:\Program Files (x86)\Microsoft Visual Studio\2019\Community\VC\Tools\MSVC\14.28.29333\include\xstddef

; 275  :     return __builtin_addressof(_Val);

  001f7	8b 45 28	 mov	 eax, DWORD PTR __My_data$34[ebp]
  001fa	89 45 80	 mov	 DWORD PTR $T1[ebp], eax
; File C:\Program Files (x86)\Microsoft Visual Studio\2019\Community\VC\Tools\MSVC\14.28.29333\include\vector

; 1411 :         return iterator(_My_data._Myfirst, _STD addressof(_My_data));

  001fd	8b 45 28	 mov	 eax, DWORD PTR __My_data$34[ebp]
  00200	8b 00		 mov	 eax, DWORD PTR [eax]
  00202	89 45 d8	 mov	 DWORD PTR ___param0$[ebp], eax

; 42   :     _Vector_const_iterator(_Tptr _Parg, const _Container_base* _Pvector) noexcept : _Ptr(_Parg) {

  00205	8b 45 d8	 mov	 eax, DWORD PTR ___param0$[ebp]
  00208	89 45 d4	 mov	 DWORD PTR $T20[ebp], eax

; 1411 :         return iterator(_My_data._Myfirst, _STD addressof(_My_data));

  0020b	8d 45 d4	 lea	 eax, DWORD PTR $T20[ebp]
  0020e	89 45 cc	 mov	 DWORD PTR $T18[ebp], eax
; File D:\Metin2 Server Files\mainline\SRC_2014\Metin2Client\EterLib\GrpLightManager.cpp

; 125  : 	std::sort(m_LightSortVector.begin(), m_LightSortVector.end(), LightComp());

  00211	8b 45 d0	 mov	 eax, DWORD PTR $T19[ebp]
  00214	8b 00		 mov	 eax, DWORD PTR [eax]
  00216	89 45 9c	 mov	 DWORD PTR __Last$[ebp], eax
  00219	8b 45 cc	 mov	 eax, DWORD PTR $T18[ebp]
  0021c	8b 00		 mov	 eax, DWORD PTR [eax]
  0021e	89 45 c8	 mov	 DWORD PTR __First$[ebp], eax
; File C:\Program Files (x86)\Microsoft Visual Studio\2019\Community\VC\Tools\MSVC\14.28.29333\include\vector

; 310  :         return _Unfancy(this->_Ptr);

  00221	8b 45 c8	 mov	 eax, DWORD PTR __First$[ebp]
  00224	89 45 c4	 mov	 DWORD PTR __Ptr$17[ebp], eax
; File C:\Program Files (x86)\Microsoft Visual Studio\2019\Community\VC\Tools\MSVC\14.28.29333\include\xstddef

; 289  :     return _Ptr;

  00227	8b 45 c4	 mov	 eax, DWORD PTR __Ptr$17[ebp]
  0022a	89 45 c0	 mov	 DWORD PTR $T16[ebp], eax
; File C:\Program Files (x86)\Microsoft Visual Studio\2019\Community\VC\Tools\MSVC\14.28.29333\include\vector

; 310  :         return _Unfancy(this->_Ptr);

  0022d	8b 45 c0	 mov	 eax, DWORD PTR $T16[ebp]
  00230	89 45 bc	 mov	 DWORD PTR $T15[ebp], eax
; File C:\Program Files (x86)\Microsoft Visual Studio\2019\Community\VC\Tools\MSVC\14.28.29333\include\algorithm

; 7569 :     const auto _UFirst = _Get_unwrapped(_First);

  00233	8b 45 bc	 mov	 eax, DWORD PTR $T15[ebp]
  00236	89 45 20	 mov	 DWORD PTR __UFirst$32[ebp], eax
; File C:\Program Files (x86)\Microsoft Visual Studio\2019\Community\VC\Tools\MSVC\14.28.29333\include\vector

; 310  :         return _Unfancy(this->_Ptr);

  00239	8b 45 9c	 mov	 eax, DWORD PTR __Last$[ebp]
  0023c	89 45 b4	 mov	 DWORD PTR __Ptr$13[ebp], eax
; File C:\Program Files (x86)\Microsoft Visual Studio\2019\Community\VC\Tools\MSVC\14.28.29333\include\xstddef

; 289  :     return _Ptr;

  0023f	8b 45 b4	 mov	 eax, DWORD PTR __Ptr$13[ebp]
  00242	89 45 b0	 mov	 DWORD PTR $T12[ebp], eax
; File C:\Program Files (x86)\Microsoft Visual Studio\2019\Community\VC\Tools\MSVC\14.28.29333\include\vector

; 310  :         return _Unfancy(this->_Ptr);

  00245	8b 45 b0	 mov	 eax, DWORD PTR $T12[ebp]
  00248	89 45 ac	 mov	 DWORD PTR $T11[ebp], eax
; File C:\Program Files (x86)\Microsoft Visual Studio\2019\Community\VC\Tools\MSVC\14.28.29333\include\algorithm

; 7570 :     const auto _ULast  = _Get_unwrapped(_Last);

  0024b	8b 45 ac	 mov	 eax, DWORD PTR $T11[ebp]
  0024e	89 45 24	 mov	 DWORD PTR __ULast$33[ebp], eax

; 7571 :     _Sort_unchecked(_UFirst, _ULast, _ULast - _UFirst, _Pass_fn(_Pred));

  00251	8a 45 4f	 mov	 al, BYTE PTR $T37[ebp]
  00254	88 45 a8	 mov	 BYTE PTR $T10[ebp], al
  00257	ff 75 a8	 push	 DWORD PTR $T10[ebp]
  0025a	8b 45 24	 mov	 eax, DWORD PTR __ULast$33[ebp]
  0025d	2b 45 20	 sub	 eax, DWORD PTR __UFirst$32[ebp]
  00260	c1 f8 02	 sar	 eax, 2
  00263	50		 push	 eax
  00264	ff 75 24	 push	 DWORD PTR __ULast$33[ebp]
  00267	ff 75 20	 push	 DWORD PTR __UFirst$32[ebp]
  0026a	e8 00 00 00 00	 call	 ??$_Sort_unchecked@PAPAVCLight@@ULightComp@@@std@@YAXPAPAVCLight@@0HULightComp@@@Z ; std::_Sort_unchecked<CLight * *,LightComp>
  0026f	83 c4 10	 add	 esp, 16			; 00000010H
; File D:\Metin2 Server Files\mainline\SRC_2014\Metin2Client\EterLib\GrpLightManager.cpp

; 128  : 	STATEMANAGER.SaveRenderState(D3DRS_LIGHTING, TRUE);

  00272	6a 01		 push	 1
  00274	68 89 00 00 00	 push	 137			; 00000089H
  00279	8b 0d 00 00 00
	00		 mov	 ecx, DWORD PTR ?ms_singleton@?$CSingleton@VCStateManager@@@@0PAVCStateManager@@A ; CSingleton<CStateManager>::ms_singleton
  0027f	e8 00 00 00 00	 call	 ?SaveRenderState@CStateManager@@QAEXW4_D3DRENDERSTATETYPE@@K@Z ; CStateManager::SaveRenderState

; 130  : 	for (DWORD k = 0; k < min(m_dwLimitLightCount, m_LightSortVector.size()); ++k)

  00284	83 65 50 00	 and	 DWORD PTR _k$38[ebp], 0
  00288	eb 07		 jmp	 SHORT $LN7@FlushLight
$LN5@FlushLight:
  0028a	8b 45 50	 mov	 eax, DWORD PTR _k$38[ebp]
  0028d	40		 inc	 eax
  0028e	89 45 50	 mov	 DWORD PTR _k$38[ebp], eax
$LN7@FlushLight:
; File C:\Program Files (x86)\Microsoft Visual Studio\2019\Community\VC\Tools\MSVC\14.28.29333\include\vector

; 1483 :         auto& _My_data = _Mypair._Myval2;

  00291	8b 45 58	 mov	 eax, DWORD PTR _this$[ebp]
  00294	83 c0 28	 add	 eax, 40			; 00000028H
  00297	89 45 1c	 mov	 DWORD PTR __My_data$31[ebp], eax

; 1484 :         return static_cast<size_type>(_My_data._Mylast - _My_data._Myfirst);

  0029a	8b 45 1c	 mov	 eax, DWORD PTR __My_data$31[ebp]
  0029d	8b 4d 1c	 mov	 ecx, DWORD PTR __My_data$31[ebp]
  002a0	8b 40 04	 mov	 eax, DWORD PTR [eax+4]
  002a3	2b 01		 sub	 eax, DWORD PTR [ecx]
  002a5	c1 f8 02	 sar	 eax, 2
  002a8	89 45 a4	 mov	 DWORD PTR $T9[ebp], eax
; File D:\Metin2 Server Files\mainline\SRC_2014\Metin2Client\EterLib\GrpLightManager.cpp

; 130  : 	for (DWORD k = 0; k < min(m_dwLimitLightCount, m_LightSortVector.size()); ++k)

  002ab	8b 45 58	 mov	 eax, DWORD PTR _this$[ebp]
  002ae	8b 40 40	 mov	 eax, DWORD PTR [eax+64]
  002b1	3b 45 a4	 cmp	 eax, DWORD PTR $T9[ebp]
  002b4	73 0b		 jae	 SHORT $LN9@FlushLight
  002b6	8b 45 58	 mov	 eax, DWORD PTR _this$[ebp]
  002b9	8b 40 40	 mov	 eax, DWORD PTR [eax+64]
  002bc	89 45 38	 mov	 DWORD PTR tv171[ebp], eax
  002bf	eb 20		 jmp	 SHORT $LN176@FlushLight
$LN9@FlushLight:
  002c1	8b 45 88	 mov	 eax, DWORD PTR $T3[ebp]
  002c4	89 45 38	 mov	 DWORD PTR tv171[ebp], eax
; File C:\Program Files (x86)\Microsoft Visual Studio\2019\Community\VC\Tools\MSVC\14.28.29333\include\vector

; 1483 :         auto& _My_data = _Mypair._Myval2;

  002c7	8b 45 58	 mov	 eax, DWORD PTR _this$[ebp]
  002ca	83 c0 28	 add	 eax, 40			; 00000028H
  002cd	89 45 18	 mov	 DWORD PTR __My_data$30[ebp], eax

; 1484 :         return static_cast<size_type>(_My_data._Mylast - _My_data._Myfirst);

  002d0	8b 45 18	 mov	 eax, DWORD PTR __My_data$30[ebp]
  002d3	8b 4d 18	 mov	 ecx, DWORD PTR __My_data$30[ebp]
  002d6	8b 40 04	 mov	 eax, DWORD PTR [eax+4]
  002d9	2b 01		 sub	 eax, DWORD PTR [ecx]
  002db	c1 f8 02	 sar	 eax, 2
  002de	89 45 38	 mov	 DWORD PTR tv171[ebp], eax
$LN176@FlushLight:
; File D:\Metin2 Server Files\mainline\SRC_2014\Metin2Client\EterLib\GrpLightManager.cpp

; 130  : 	for (DWORD k = 0; k < min(m_dwLimitLightCount, m_LightSortVector.size()); ++k)

  002e1	8b 45 50	 mov	 eax, DWORD PTR _k$38[ebp]
  002e4	3b 45 38	 cmp	 eax, DWORD PTR tv171[ebp]
  002e7	73 49		 jae	 SHORT $LN6@FlushLight
; File C:\Program Files (x86)\Microsoft Visual Studio\2019\Community\VC\Tools\MSVC\14.28.29333\include\vector

; 1498 :         auto& _My_data = _Mypair._Myval2;

  002e9	8b 45 58	 mov	 eax, DWORD PTR _this$[ebp]
  002ec	83 c0 28	 add	 eax, 40			; 00000028H
  002ef	89 45 a0	 mov	 DWORD PTR __My_data$8[ebp], eax

; 1499 : #if _CONTAINER_DEBUG_LEVEL > 0
; 1500 :         _STL_VERIFY(
; 1501 :             _Pos < static_cast<size_type>(_My_data._Mylast - _My_data._Myfirst), "vector subscript out of range");
; 1502 : #endif // _CONTAINER_DEBUG_LEVEL > 0
; 1503 : 
; 1504 :         return _My_data._Myfirst[_Pos];

  002f2	8b 45 a0	 mov	 eax, DWORD PTR __My_data$8[ebp]
  002f5	8b 00		 mov	 eax, DWORD PTR [eax]
  002f7	8b 4d 50	 mov	 ecx, DWORD PTR _k$38[ebp]
  002fa	8d 04 88	 lea	 eax, DWORD PTR [eax+ecx*4]
  002fd	89 45 8c	 mov	 DWORD PTR $T4[ebp], eax
; File D:\Metin2 Server Files\mainline\SRC_2014\Metin2Client\EterLib\GrpLightManager.cpp

; 132  : 		m_LightSortVector[k]->Update();

  00300	8b 45 8c	 mov	 eax, DWORD PTR $T4[ebp]
  00303	8b 08		 mov	 ecx, DWORD PTR [eax]
  00305	e8 00 00 00 00	 call	 ?Update@CLight@@QAEXXZ	; CLight::Update
; File C:\Program Files (x86)\Microsoft Visual Studio\2019\Community\VC\Tools\MSVC\14.28.29333\include\vector

; 1498 :         auto& _My_data = _Mypair._Myval2;

  0030a	8b 45 58	 mov	 eax, DWORD PTR _this$[ebp]
  0030d	83 c0 28	 add	 eax, 40			; 00000028H
  00310	89 45 98	 mov	 DWORD PTR __My_data$7[ebp], eax

; 1499 : #if _CONTAINER_DEBUG_LEVEL > 0
; 1500 :         _STL_VERIFY(
; 1501 :             _Pos < static_cast<size_type>(_My_data._Mylast - _My_data._Myfirst), "vector subscript out of range");
; 1502 : #endif // _CONTAINER_DEBUG_LEVEL > 0
; 1503 : 
; 1504 :         return _My_data._Myfirst[_Pos];

  00313	8b 45 98	 mov	 eax, DWORD PTR __My_data$7[ebp]
  00316	8b 00		 mov	 eax, DWORD PTR [eax]
  00318	8b 4d 50	 mov	 ecx, DWORD PTR _k$38[ebp]
  0031b	8d 04 88	 lea	 eax, DWORD PTR [eax+ecx*4]
  0031e	89 45 94	 mov	 DWORD PTR $T6[ebp], eax
; File D:\Metin2 Server Files\mainline\SRC_2014\Metin2Client\EterLib\GrpLightManager.cpp

; 133  : 		m_LightSortVector[k]->SetDeviceLight(TRUE);

  00321	6a 01		 push	 1
  00323	8b 45 94	 mov	 eax, DWORD PTR $T6[ebp]
  00326	8b 08		 mov	 ecx, DWORD PTR [eax]
  00328	e8 00 00 00 00	 call	 ?SetDeviceLight@CLight@@QAEXH@Z ; CLight::SetDeviceLight

; 134  : 
; 135  : 	}

  0032d	e9 58 ff ff ff	 jmp	 $LN5@FlushLight
$LN6@FlushLight:

; 136  : }

  00332	8b 4d 74	 mov	 ecx, DWORD PTR __$ArrayPad$[ebp]
  00335	33 cd		 xor	 ecx, ebp
  00337	e8 00 00 00 00	 call	 @__security_check_cookie@4
  0033c	83 c5 78	 add	 ebp, 120		; 00000078H
  0033f	c9		 leave
  00340	c3		 ret	 0
?FlushLight@CLightManager@@QAEXXZ ENDP			; CLightManager::FlushLight
_TEXT	ENDS
; Function compile flags: /Odspy
; File D:\Metin2 Server Files\mainline\SRC_2014\Metin2Client\EterLib\GrpLightManager.cpp
; File D:\Metin2 Server Files\mainline\SRC_2014\Metin2Client\eterBase\Singleton.h
; File D:\Metin2 Server Files\mainline\SRC_2014\Metin2Client\EterLib\GrpLightManager.cpp
;	COMDAT ?Update@CLightManager@@QAEXXZ
_TEXT	SEGMENT
_this$ = -8						; size = 4
$T1 = -4						; size = 4
?Update@CLightManager@@QAEXXZ PROC			; CLightManager::Update, COMDAT
; _this$ = ecx

; 164  : {

  00000	55		 push	 ebp
  00001	8b ec		 mov	 ebp, esp
  00003	51		 push	 ecx
  00004	51		 push	 ecx
  00005	89 4d f8	 mov	 DWORD PTR _this$[ebp], ecx
; File D:\Metin2 Server Files\mainline\SRC_2014\Metin2Client\eterBase\Singleton.h

; 27   : 		return (*ms_singleton);

  00008	a1 00 00 00 00	 mov	 eax, DWORD PTR ?ms_singleton@?$CSingleton@VCTimer@@@@0PAVCTimer@@A ; CSingleton<CTimer>::ms_singleton
  0000d	89 45 fc	 mov	 DWORD PTR $T1[ebp], eax
; File D:\Metin2 Server Files\mainline\SRC_2014\Metin2Client\EterLib\GrpLightManager.cpp

; 167  : 	ms_fCurTime = CTimer::Instance().GetCurrentSecond();

  00010	8b 4d fc	 mov	 ecx, DWORD PTR $T1[ebp]
  00013	e8 00 00 00 00	 call	 ?GetCurrentSecond@CTimer@@QAEMXZ ; CTimer::GetCurrentSecond
  00018	d9 1d 00 00 00
	00		 fstp	 DWORD PTR ?ms_fCurTime@CLightBase@@1MA ; CLightBase::ms_fCurTime

; 168  : }

  0001e	c9		 leave
  0001f	c3		 ret	 0
?Update@CLightManager@@QAEXXZ ENDP			; CLightManager::Update
_TEXT	ENDS
; Function compile flags: /Odspy
; File D:\Metin2 Server Files\mainline\SRC_2014\Metin2Client\EterLib\GrpLightManager.cpp
; File C:\Program Files (x86)\Microsoft Visual Studio\2019\Community\VC\Tools\MSVC\14.28.29333\include\deque
; File D:\Metin2 Server Files\mainline\SRC_2014\Metin2Client\EterLib\GrpLightManager.cpp
;	COMDAT ?Initialize@CLightManager@@QAEXXZ
_TEXT	SEGMENT
_this$ = -4						; size = 4
?Initialize@CLightManager@@QAEXXZ PROC			; CLightManager::Initialize, COMDAT
; _this$ = ecx

; 26   : {

  00000	55		 push	 ebp
  00001	8b ec		 mov	 ebp, esp
  00003	51		 push	 ecx
  00004	89 4d fc	 mov	 DWORD PTR _this$[ebp], ecx

; 27   : 	SetSkipIndex(1);

  00007	6a 01		 push	 1
  00009	8b 4d fc	 mov	 ecx, DWORD PTR _this$[ebp]
  0000c	e8 00 00 00 00	 call	 ?SetSkipIndex@CLightManager@@QAEXK@Z ; CLightManager::SetSkipIndex

; 28   : 	
; 29   : 	m_NonUsingLightIDDeque.clear();

  00011	8b 4d fc	 mov	 ecx, DWORD PTR _this$[ebp]
  00014	83 c1 0c	 add	 ecx, 12			; 0000000cH
; File C:\Program Files (x86)\Microsoft Visual Studio\2019\Community\VC\Tools\MSVC\14.28.29333\include\deque

; 1330 :         _Tidy();

  00017	e8 00 00 00 00	 call	 ?_Tidy@?$deque@KV?$allocator@K@std@@@std@@AAEXXZ ; std::deque<unsigned long,std::allocator<unsigned long> >::_Tidy
; File D:\Metin2 Server Files\mainline\SRC_2014\Metin2Client\EterLib\GrpLightManager.cpp

; 31   : 	m_LightMap.clear();

  0001c	8b 4d fc	 mov	 ecx, DWORD PTR _this$[ebp]
  0001f	83 c1 20	 add	 ecx, 32			; 00000020H
  00022	e8 00 00 00 00	 call	 ?clear@?$_Tree@V?$_Tmap_traits@KPAVCLight@@U?$less@K@std@@V?$allocator@U?$pair@$$CBKPAVCLight@@@std@@@3@$0A@@std@@@std@@QAEXXZ ; std::_Tree<std::_Tmap_traits<unsigned long,CLight *,std::less<unsigned long>,std::allocator<std::pair<unsigned long const ,CLight *> >,0> >::clear

; 32   : 	m_LightPool.FreeAll();

  00027	8b 4d fc	 mov	 ecx, DWORD PTR _this$[ebp]
  0002a	83 c1 48	 add	 ecx, 72			; 00000048H
  0002d	e8 00 00 00 00	 call	 ?FreeAll@?$CDynamicPool@VCLight@@@@QAEXXZ ; CDynamicPool<CLight>::FreeAll

; 33   : }

  00032	c9		 leave
  00033	c3		 ret	 0
?Initialize@CLightManager@@QAEXXZ ENDP			; CLightManager::Initialize
_TEXT	ENDS
; Function compile flags: /Odspy
; File D:\Metin2 Server Files\mainline\SRC_2014\Metin2Client\EterLib\GrpLightManager.cpp
;	COMDAT ?Destroy@CLightManager@@QAEXXZ
_TEXT	SEGMENT
_this$ = -4						; size = 4
?Destroy@CLightManager@@QAEXXZ PROC			; CLightManager::Destroy, COMDAT
; _this$ = ecx

; 21   : {

  00000	55		 push	 ebp
  00001	8b ec		 mov	 ebp, esp
  00003	51		 push	 ecx
  00004	89 4d fc	 mov	 DWORD PTR _this$[ebp], ecx

; 22   : 	m_LightPool.Destroy();

  00007	8b 4d fc	 mov	 ecx, DWORD PTR _this$[ebp]
  0000a	83 c1 48	 add	 ecx, 72			; 00000048H
  0000d	e8 00 00 00 00	 call	 ?Destroy@?$CDynamicPool@VCLight@@@@QAEXXZ ; CDynamicPool<CLight>::Destroy

; 23   : }

  00012	c9		 leave
  00013	c3		 ret	 0
?Destroy@CLightManager@@QAEXXZ ENDP			; CLightManager::Destroy
_TEXT	ENDS
; Function compile flags: /Odspy
; File D:\Metin2 Server Files\mainline\SRC_2014\Metin2Client\EterLib\GrpLightManager.cpp
; File C:\Program Files (x86)\Microsoft Visual Studio\2019\Community\VC\Tools\MSVC\14.28.29333\include\vector
; File D:\Metin2 Server Files\mainline\SRC_2014\Metin2Client\EterLib\GrpLightManager.cpp
; File D:\Metin2 Server Files\mainline\SRC_2014\Metin2Client\eterBase\Singleton.h
; File D:\Metin2 Server Files\mainline\SRC_2014\Metin2Client\EterLib\GrpLightManager.h
; File D:\Metin2 Server Files\mainline\SRC_2014\Metin2Client\EterLib\GrpLightManager.cpp
;	COMDAT ??1CLightManager@@UAE@XZ
_TEXT	SEGMENT
_this$ = -4						; size = 4
??1CLightManager@@UAE@XZ PROC				; CLightManager::~CLightManager, COMDAT
; _this$ = ecx

; 17   : {

  00000	55		 push	 ebp
  00001	8b ec		 mov	 ebp, esp
  00003	51		 push	 ecx
  00004	89 4d fc	 mov	 DWORD PTR _this$[ebp], ecx
  00007	8b 45 fc	 mov	 eax, DWORD PTR _this$[ebp]
  0000a	c7 00 00 00 00
	00		 mov	 DWORD PTR [eax], OFFSET ??_7CLightManager@@6BCGraphicBase@@@
  00010	8b 45 fc	 mov	 eax, DWORD PTR _this$[ebp]
  00013	c7 40 04 00 00
	00 00		 mov	 DWORD PTR [eax+4], OFFSET ??_7CLightManager@@6BCLightBase@@@
  0001a	8b 45 fc	 mov	 eax, DWORD PTR _this$[ebp]
  0001d	c7 40 08 00 00
	00 00		 mov	 DWORD PTR [eax+8], OFFSET ??_7CLightManager@@6B?$CSingleton@VCLightManager@@@@@

; 18   : }

  00024	8b 4d fc	 mov	 ecx, DWORD PTR _this$[ebp]
  00027	83 c1 48	 add	 ecx, 72			; 00000048H
  0002a	e8 00 00 00 00	 call	 ??1?$CDynamicPool@VCLight@@@@UAE@XZ ; CDynamicPool<CLight>::~CDynamicPool<CLight>
  0002f	8b 4d fc	 mov	 ecx, DWORD PTR _this$[ebp]
  00032	83 c1 28	 add	 ecx, 40			; 00000028H
; File C:\Program Files (x86)\Microsoft Visual Studio\2019\Community\VC\Tools\MSVC\14.28.29333\include\vector

; 673  :         _Tidy();

  00035	e8 00 00 00 00	 call	 ?_Tidy@?$vector@PAVCLight@@V?$allocator@PAVCLight@@@std@@@std@@AAEXXZ ; std::vector<CLight *,std::allocator<CLight *> >::_Tidy
; File D:\Metin2 Server Files\mainline\SRC_2014\Metin2Client\EterLib\GrpLightManager.cpp

; 18   : }

  0003a	8b 4d fc	 mov	 ecx, DWORD PTR _this$[ebp]
  0003d	83 c1 20	 add	 ecx, 32			; 00000020H
  00040	e8 00 00 00 00	 call	 ??1?$_Tree@V?$_Tmap_traits@KPAVCLight@@U?$less@K@std@@V?$allocator@U?$pair@$$CBKPAVCLight@@@std@@@3@$0A@@std@@@std@@QAE@XZ ; std::_Tree<std::_Tmap_traits<unsigned long,CLight *,std::less<unsigned long>,std::allocator<std::pair<unsigned long const ,CLight *> >,0> >::~_Tree<std::_Tmap_traits<unsigned long,CLight *,std::less<unsigned long>,std::allocator<std::pair<unsigned long const ,CLight *> >,0> >
  00045	8b 4d fc	 mov	 ecx, DWORD PTR _this$[ebp]
  00048	83 c1 0c	 add	 ecx, 12			; 0000000cH
  0004b	e8 00 00 00 00	 call	 ??1?$deque@KV?$allocator@K@std@@@std@@QAE@XZ ; std::deque<unsigned long,std::allocator<unsigned long> >::~deque<unsigned long,std::allocator<unsigned long> >
; File D:\Metin2 Server Files\mainline\SRC_2014\Metin2Client\eterBase\Singleton.h

; 19   : 	{ 

  00050	8b 45 fc	 mov	 eax, DWORD PTR _this$[ebp]
  00053	c7 40 08 00 00
	00 00		 mov	 DWORD PTR [eax+8], OFFSET ??_7?$CSingleton@VCLightManager@@@@6B@

; 20   : 		assert(ms_singleton);
; 21   : 		ms_singleton = 0; 

  0005a	83 25 00 00 00
	00 00		 and	 DWORD PTR ?ms_singleton@?$CSingleton@VCLightManager@@@@0PAVCLightManager@@A, 0 ; CSingleton<CLightManager>::ms_singleton
; File D:\Metin2 Server Files\mainline\SRC_2014\Metin2Client\EterLib\GrpLightManager.h

; 23   : 		virtual ~CLightBase() {};

  00061	8b 45 fc	 mov	 eax, DWORD PTR _this$[ebp]
  00064	c7 40 04 00 00
	00 00		 mov	 DWORD PTR [eax+4], OFFSET ??_7CLightBase@@6B@
; File D:\Metin2 Server Files\mainline\SRC_2014\Metin2Client\EterLib\GrpLightManager.cpp

; 18   : }

  0006b	8b 4d fc	 mov	 ecx, DWORD PTR _this$[ebp]
  0006e	e8 00 00 00 00	 call	 ??1CGraphicBase@@UAE@XZ	; CGraphicBase::~CGraphicBase
  00073	c9		 leave
  00074	c3		 ret	 0
??1CLightManager@@UAE@XZ ENDP				; CLightManager::~CLightManager
_TEXT	ENDS
; Function compile flags: /Odspy
; File D:\Metin2 Server Files\mainline\SRC_2014\Metin2Client\EterLib\GrpLightManager.cpp
; File D:\Metin2 Server Files\mainline\SRC_2014\Metin2Client\EterLib\GrpLightManager.h
; File D:\Metin2 Server Files\mainline\SRC_2014\Metin2Client\EterLib\GrpLightManager.cpp
; File D:\Metin2 Server Files\mainline\SRC_2014\Metin2Client\eterBase\Singleton.h
; File D:\Metin2 Server Files\mainline\SRC_2014\Metin2Client\EterLib\GrpLightManager.cpp
; File C:\Program Files (x86)\Microsoft Visual Studio\2019\Community\VC\Tools\MSVC\14.28.29333\include\map
; File D:\Metin2 Server Files\mainline\SRC_2014\Metin2Client\EterLib\GrpLightManager.cpp
; File C:\Program Files (x86)\Microsoft Visual Studio\2019\Community\VC\Tools\MSVC\14.28.29333\include\vector
; File C:\Program Files (x86)\Microsoft Visual Studio\2019\Community\VC\Tools\MSVC\14.28.29333\include\xmemory
; File C:\Program Files (x86)\Microsoft Visual Studio\2019\Community\VC\Tools\MSVC\14.28.29333\include\vector
; File D:\Metin2 Server Files\mainline\SRC_2014\Metin2Client\EterLib\GrpLightManager.cpp
; File D:\Metin2 Server Files\mainline\SRC_2014\M2Data\include\d3dx8math.inl
; File D:\Metin2 Server Files\mainline\SRC_2014\Metin2Client\EterLib\GrpLightManager.cpp
;	COMDAT ??0CLightManager@@QAE@XZ
_TEXT	SEGMENT
_this$ = -68						; size = 4
_this$ = -64						; size = 4
_this$ = -60						; size = 4
_offset$2 = -56						; size = 4
_this$ = -52						; size = 4
_this$ = -48						; size = 4
tv192 = -44						; size = 4
_this$3 = -40						; size = 4
$T4 = -33						; size = 1
_this$ = -32						; size = 4
$T5 = -28						; size = 12
__$ArrayPad$ = -16					; size = 4
__$EHRec$ = -12						; size = 12
??0CLightManager@@QAE@XZ PROC				; CLightManager::CLightManager, COMDAT
; _this$ = ecx

; 11   : {

  00000	55		 push	 ebp
  00001	8b ec		 mov	 ebp, esp
  00003	6a ff		 push	 -1
  00005	68 00 00 00 00	 push	 __ehhandler$??0CLightManager@@QAE@XZ
  0000a	64 a1 00 00 00
	00		 mov	 eax, DWORD PTR fs:0
  00010	50		 push	 eax
  00011	83 ec 38	 sub	 esp, 56			; 00000038H
  00014	a1 00 00 00 00	 mov	 eax, DWORD PTR ___security_cookie
  00019	33 c5		 xor	 eax, ebp
  0001b	89 45 f0	 mov	 DWORD PTR __$ArrayPad$[ebp], eax
  0001e	56		 push	 esi
  0001f	57		 push	 edi
  00020	50		 push	 eax
  00021	8d 45 f4	 lea	 eax, DWORD PTR __$EHRec$[ebp]
  00024	64 a3 00 00 00
	00		 mov	 DWORD PTR fs:0, eax
  0002a	89 4d e0	 mov	 DWORD PTR _this$[ebp], ecx
  0002d	8b 4d e0	 mov	 ecx, DWORD PTR _this$[ebp]
  00030	e8 00 00 00 00	 call	 ??0CGraphicBase@@QAE@XZ	; CGraphicBase::CGraphicBase
  00035	83 65 fc 00	 and	 DWORD PTR __$EHRec$[ebp+8], 0
  00039	8b 45 e0	 mov	 eax, DWORD PTR _this$[ebp]
  0003c	83 c0 04	 add	 eax, 4
  0003f	89 45 cc	 mov	 DWORD PTR _this$[ebp], eax
; File D:\Metin2 Server Files\mainline\SRC_2014\Metin2Client\EterLib\GrpLightManager.h

; 22   : 		CLightBase() {};

  00042	8b 45 cc	 mov	 eax, DWORD PTR _this$[ebp]
  00045	c7 00 00 00 00
	00		 mov	 DWORD PTR [eax], OFFSET ??_7CLightBase@@6B@
; File D:\Metin2 Server Files\mainline\SRC_2014\Metin2Client\EterLib\GrpLightManager.cpp

; 11   : {

  0004b	c6 45 fc 01	 mov	 BYTE PTR __$EHRec$[ebp+8], 1
  0004f	8b 45 e0	 mov	 eax, DWORD PTR _this$[ebp]
  00052	83 c0 08	 add	 eax, 8
  00055	89 45 d0	 mov	 DWORD PTR _this$[ebp], eax
; File D:\Metin2 Server Files\mainline\SRC_2014\Metin2Client\eterBase\Singleton.h

; 12   : 	{ 

  00058	8b 45 d0	 mov	 eax, DWORD PTR _this$[ebp]
  0005b	c7 00 00 00 00
	00		 mov	 DWORD PTR [eax], OFFSET ??_7?$CSingleton@VCLightManager@@@@6B@

; 13   : 		assert(!ms_singleton);
; 14   : 		int offset = (int) (T*) 1 - (int) (CSingleton <T>*) (T*) 1; 

  00061	33 c0		 xor	 eax, eax
  00063	40		 inc	 eax
  00064	74 0a		 je	 SHORT $LN14@CLightMana
  00066	33 c0		 xor	 eax, eax
  00068	83 c0 09	 add	 eax, 9
  0006b	89 45 d4	 mov	 DWORD PTR tv192[ebp], eax
  0006e	eb 04		 jmp	 SHORT $LN15@CLightMana
$LN14@CLightMana:
  00070	83 65 d4 00	 and	 DWORD PTR tv192[ebp], 0
$LN15@CLightMana:
  00074	33 c0		 xor	 eax, eax
  00076	40		 inc	 eax
  00077	2b 45 d4	 sub	 eax, DWORD PTR tv192[ebp]
  0007a	89 45 c8	 mov	 DWORD PTR _offset$2[ebp], eax

; 15   : 		ms_singleton = (T*) ((int) this + offset);

  0007d	8b 45 d0	 mov	 eax, DWORD PTR _this$[ebp]
  00080	03 45 c8	 add	 eax, DWORD PTR _offset$2[ebp]
  00083	a3 00 00 00 00	 mov	 DWORD PTR ?ms_singleton@?$CSingleton@VCLightManager@@@@0PAVCLightManager@@A, eax ; CSingleton<CLightManager>::ms_singleton
; File D:\Metin2 Server Files\mainline\SRC_2014\Metin2Client\EterLib\GrpLightManager.cpp

; 11   : {

  00088	c6 45 fc 02	 mov	 BYTE PTR __$EHRec$[ebp+8], 2
  0008c	8b 45 e0	 mov	 eax, DWORD PTR _this$[ebp]
  0008f	c7 00 00 00 00
	00		 mov	 DWORD PTR [eax], OFFSET ??_7CLightManager@@6BCGraphicBase@@@
  00095	8b 45 e0	 mov	 eax, DWORD PTR _this$[ebp]
  00098	c7 40 04 00 00
	00 00		 mov	 DWORD PTR [eax+4], OFFSET ??_7CLightManager@@6BCLightBase@@@
  0009f	8b 45 e0	 mov	 eax, DWORD PTR _this$[ebp]
  000a2	c7 40 08 00 00
	00 00		 mov	 DWORD PTR [eax+8], OFFSET ??_7CLightManager@@6B?$CSingleton@VCLightManager@@@@@
  000a9	8b 4d e0	 mov	 ecx, DWORD PTR _this$[ebp]
  000ac	83 c1 0c	 add	 ecx, 12			; 0000000cH
  000af	e8 00 00 00 00	 call	 ??0?$deque@KV?$allocator@K@std@@@std@@QAE@XZ ; std::deque<unsigned long,std::allocator<unsigned long> >::deque<unsigned long,std::allocator<unsigned long> >
  000b4	c6 45 fc 03	 mov	 BYTE PTR __$EHRec$[ebp+8], 3
  000b8	8b 45 e0	 mov	 eax, DWORD PTR _this$[ebp]
  000bb	83 c0 20	 add	 eax, 32			; 00000020H
  000be	89 45 c4	 mov	 DWORD PTR _this$[ebp], eax
; File C:\Program Files (x86)\Microsoft Visual Studio\2019\Community\VC\Tools\MSVC\14.28.29333\include\map

; 107  :     map() : _Mybase(key_compare()) {}

  000c1	8d 45 df	 lea	 eax, DWORD PTR $T4[ebp]
  000c4	50		 push	 eax
  000c5	8b 4d c4	 mov	 ecx, DWORD PTR _this$[ebp]
  000c8	e8 00 00 00 00	 call	 ??0?$_Tree@V?$_Tmap_traits@KPAVCLight@@U?$less@K@std@@V?$allocator@U?$pair@$$CBKPAVCLight@@@std@@@3@$0A@@std@@@std@@QAE@ABU?$less@K@1@@Z ; std::_Tree<std::_Tmap_traits<unsigned long,CLight *,std::less<unsigned long>,std::allocator<std::pair<unsigned long const ,CLight *> >,0> >::_Tree<std::_Tmap_traits<unsigned long,CLight *,std::less<unsigned long>,std::allocator<std::pair<unsigned long const ,CLight *> >,0> >
; File D:\Metin2 Server Files\mainline\SRC_2014\Metin2Client\EterLib\GrpLightManager.cpp

; 11   : {

  000cd	c6 45 fc 04	 mov	 BYTE PTR __$EHRec$[ebp+8], 4
  000d1	8b 45 e0	 mov	 eax, DWORD PTR _this$[ebp]
  000d4	83 c0 28	 add	 eax, 40			; 00000028H
  000d7	89 45 c0	 mov	 DWORD PTR _this$[ebp], eax
; File C:\Program Files (x86)\Microsoft Visual Studio\2019\Community\VC\Tools\MSVC\14.28.29333\include\vector

; 445  :     vector() noexcept(is_nothrow_default_constructible_v<_Alty>) : _Mypair(_Zero_then_variadic_args_t{}) {

  000da	8b 45 c0	 mov	 eax, DWORD PTR _this$[ebp]
  000dd	89 45 bc	 mov	 DWORD PTR _this$[ebp], eax
; File C:\Program Files (x86)\Microsoft Visual Studio\2019\Community\VC\Tools\MSVC\14.28.29333\include\xmemory

; 1339 :         : _Ty1(), _Myval2(_STD forward<_Other2>(_Val2)...) {}

  000e0	8b 45 bc	 mov	 eax, DWORD PTR _this$[ebp]
  000e3	89 45 d8	 mov	 DWORD PTR _this$3[ebp], eax
; File C:\Program Files (x86)\Microsoft Visual Studio\2019\Community\VC\Tools\MSVC\14.28.29333\include\vector

; 375  :     _Vector_val() noexcept : _Myfirst(), _Mylast(), _Myend() {}

  000e6	8b 45 d8	 mov	 eax, DWORD PTR _this$3[ebp]
  000e9	83 20 00	 and	 DWORD PTR [eax], 0
  000ec	8b 45 d8	 mov	 eax, DWORD PTR _this$3[ebp]
  000ef	83 60 04 00	 and	 DWORD PTR [eax+4], 0
  000f3	8b 45 d8	 mov	 eax, DWORD PTR _this$3[ebp]
  000f6	83 60 08 00	 and	 DWORD PTR [eax+8], 0
; File D:\Metin2 Server Files\mainline\SRC_2014\Metin2Client\EterLib\GrpLightManager.cpp

; 11   : {

  000fa	c6 45 fc 05	 mov	 BYTE PTR __$EHRec$[ebp+8], 5
  000fe	8b 4d e0	 mov	 ecx, DWORD PTR _this$[ebp]
  00101	83 c1 48	 add	 ecx, 72			; 00000048H
  00104	e8 00 00 00 00	 call	 ??0?$CDynamicPool@VCLight@@@@QAE@XZ ; CDynamicPool<CLight>::CDynamicPool<CLight>
; File D:\Metin2 Server Files\mainline\SRC_2014\M2Data\include\d3dx8math.inl

; 180  :     x = fx;

  00109	0f 57 c0	 xorps	 xmm0, xmm0
  0010c	f3 0f 11 45 e4	 movss	 DWORD PTR $T5[ebp], xmm0

; 181  :     y = fy;

  00111	0f 57 c0	 xorps	 xmm0, xmm0
  00114	f3 0f 11 45 e8	 movss	 DWORD PTR $T5[ebp+4], xmm0

; 182  :     z = fz;

  00119	0f 57 c0	 xorps	 xmm0, xmm0
  0011c	f3 0f 11 45 ec	 movss	 DWORD PTR $T5[ebp+8], xmm0
; File D:\Metin2 Server Files\mainline\SRC_2014\Metin2Client\EterLib\GrpLightManager.cpp

; 12   : 	m_v3CenterPosition			= D3DXVECTOR3(0.0f, 0.0f, 0.0f);

  00121	8b 7d e0	 mov	 edi, DWORD PTR _this$[ebp]
  00124	83 c7 34	 add	 edi, 52			; 00000034H
  00127	8d 75 e4	 lea	 esi, DWORD PTR $T5[ebp]
  0012a	a5		 movsd
  0012b	a5		 movsd
  0012c	a5		 movsd

; 13   : 	m_dwLimitLightCount			= LIGHT_LIMIT_DEFAULT;

  0012d	8b 45 e0	 mov	 eax, DWORD PTR _this$[ebp]
  00130	c7 40 40 03 00
	00 00		 mov	 DWORD PTR [eax+64], 3

; 14   : }

  00137	83 4d fc ff	 or	 DWORD PTR __$EHRec$[ebp+8], -1
  0013b	8b 45 e0	 mov	 eax, DWORD PTR _this$[ebp]
  0013e	8b 4d f4	 mov	 ecx, DWORD PTR __$EHRec$[ebp]
  00141	64 89 0d 00 00
	00 00		 mov	 DWORD PTR fs:0, ecx
  00148	59		 pop	 ecx
  00149	5f		 pop	 edi
  0014a	5e		 pop	 esi
  0014b	8b 4d f0	 mov	 ecx, DWORD PTR __$ArrayPad$[ebp]
  0014e	33 cd		 xor	 ecx, ebp
  00150	e8 00 00 00 00	 call	 @__security_check_cookie@4
  00155	c9		 leave
  00156	c3		 ret	 0
_TEXT	ENDS
;	COMDAT text$x
text$x	SEGMENT
__unwindfunclet$??0CLightManager@@QAE@XZ$0:
  00000	8b 4d e0	 mov	 ecx, DWORD PTR _this$[ebp]
  00003	e9 00 00 00 00	 jmp	 ??1CGraphicBase@@UAE@XZ	; CGraphicBase::~CGraphicBase
__unwindfunclet$??0CLightManager@@QAE@XZ$1:
  00008	8b 4d e0	 mov	 ecx, DWORD PTR _this$[ebp]
  0000b	83 c1 04	 add	 ecx, 4
  0000e	e9 00 00 00 00	 jmp	 ??1CLightBase@@UAE@XZ	; CLightBase::~CLightBase
__unwindfunclet$??0CLightManager@@QAE@XZ$2:
  00013	8b 4d e0	 mov	 ecx, DWORD PTR _this$[ebp]
  00016	83 c1 08	 add	 ecx, 8
  00019	e9 00 00 00 00	 jmp	 ??1?$CSingleton@VCLightManager@@@@UAE@XZ ; CSingleton<CLightManager>::~CSingleton<CLightManager>
__unwindfunclet$??0CLightManager@@QAE@XZ$3:
  0001e	8b 4d e0	 mov	 ecx, DWORD PTR _this$[ebp]
  00021	83 c1 0c	 add	 ecx, 12			; 0000000cH
  00024	e9 00 00 00 00	 jmp	 ??1?$deque@KV?$allocator@K@std@@@std@@QAE@XZ ; std::deque<unsigned long,std::allocator<unsigned long> >::~deque<unsigned long,std::allocator<unsigned long> >
__unwindfunclet$??0CLightManager@@QAE@XZ$4:
  00029	8b 4d e0	 mov	 ecx, DWORD PTR _this$[ebp]
  0002c	83 c1 20	 add	 ecx, 32			; 00000020H
  0002f	e9 00 00 00 00	 jmp	 ??1?$map@KPAVCLight@@U?$less@K@std@@V?$allocator@U?$pair@$$CBKPAVCLight@@@std@@@3@@std@@QAE@XZ
__unwindfunclet$??0CLightManager@@QAE@XZ$5:
  00034	8b 4d e0	 mov	 ecx, DWORD PTR _this$[ebp]
  00037	83 c1 28	 add	 ecx, 40			; 00000028H
  0003a	e9 00 00 00 00	 jmp	 ??1?$vector@PAVCLight@@V?$allocator@PAVCLight@@@std@@@std@@QAE@XZ ; std::vector<CLight *,std::allocator<CLight *> >::~vector<CLight *,std::allocator<CLight *> >
  0003f	cc		 int	 3
  00040	cc		 int	 3
  00041	cc		 int	 3
  00042	cc		 int	 3
  00043	cc		 int	 3
__ehhandler$??0CLightManager@@QAE@XZ:
  00044	90		 npad	 1
  00045	90		 npad	 1
  00046	8b 54 24 08	 mov	 edx, DWORD PTR [esp+8]
  0004a	8d 42 0c	 lea	 eax, DWORD PTR [edx+12]
  0004d	8b 4a bc	 mov	 ecx, DWORD PTR [edx-68]
  00050	33 c8		 xor	 ecx, eax
  00052	e8 00 00 00 00	 call	 @__security_check_cookie@4
  00057	8b 4a fc	 mov	 ecx, DWORD PTR [edx-4]
  0005a	33 c8		 xor	 ecx, eax
  0005c	e8 00 00 00 00	 call	 @__security_check_cookie@4
  00061	b8 00 00 00 00	 mov	 eax, OFFSET __ehfuncinfo$??0CLightManager@@QAE@XZ
  00066	e9 00 00 00 00	 jmp	 ___CxxFrameHandler3
text$x	ENDS
??0CLightManager@@QAE@XZ ENDP				; CLightManager::CLightManager
; Function compile flags: /Odspy
; File D:\Metin2 Server Files\mainline\SRC_2014\Metin2Client\eterBase\Singleton.h
;	COMDAT ??_G?$CSingleton@VCLightManager@@@@UAEPAXI@Z
_TEXT	SEGMENT
_this$ = -4						; size = 4
___flags$ = 8						; size = 4
??_G?$CSingleton@VCLightManager@@@@UAEPAXI@Z PROC	; CSingleton<CLightManager>::`scalar deleting destructor', COMDAT
; _this$ = ecx
  00000	55		 push	 ebp
  00001	8b ec		 mov	 ebp, esp
  00003	51		 push	 ecx
  00004	89 4d fc	 mov	 DWORD PTR _this$[ebp], ecx

; 19   : 	{ 

  00007	8b 45 fc	 mov	 eax, DWORD PTR _this$[ebp]
  0000a	c7 00 00 00 00
	00		 mov	 DWORD PTR [eax], OFFSET ??_7?$CSingleton@VCLightManager@@@@6B@

; 20   : 		assert(ms_singleton);
; 21   : 		ms_singleton = 0; 

  00010	83 25 00 00 00
	00 00		 and	 DWORD PTR ?ms_singleton@?$CSingleton@VCLightManager@@@@0PAVCLightManager@@A, 0 ; CSingleton<CLightManager>::ms_singleton
  00017	8b 45 08	 mov	 eax, DWORD PTR ___flags$[ebp]
  0001a	83 e0 01	 and	 eax, 1
  0001d	74 0c		 je	 SHORT $LN2@scalar
  0001f	6a 04		 push	 4
  00021	ff 75 fc	 push	 DWORD PTR _this$[ebp]
  00024	e8 00 00 00 00	 call	 ??3@YAXPAXI@Z		; operator delete
  00029	59		 pop	 ecx
  0002a	59		 pop	 ecx
$LN2@scalar:
  0002b	8b 45 fc	 mov	 eax, DWORD PTR _this$[ebp]
  0002e	c9		 leave
  0002f	c2 04 00	 ret	 4
??_G?$CSingleton@VCLightManager@@@@UAEPAXI@Z ENDP	; CSingleton<CLightManager>::`scalar deleting destructor'
_TEXT	ENDS
; Function compile flags: /Odspy
; File D:\Metin2 Server Files\mainline\SRC_2014\Metin2Client\eterBase\Singleton.h
;	COMDAT ??1?$CSingleton@VCLightManager@@@@UAE@XZ
_TEXT	SEGMENT
_this$ = -4						; size = 4
??1?$CSingleton@VCLightManager@@@@UAE@XZ PROC		; CSingleton<CLightManager>::~CSingleton<CLightManager>, COMDAT
; _this$ = ecx

; 19   : 	{ 

  00000	55		 push	 ebp
  00001	8b ec		 mov	 ebp, esp
  00003	51		 push	 ecx
  00004	89 4d fc	 mov	 DWORD PTR _this$[ebp], ecx
  00007	8b 45 fc	 mov	 eax, DWORD PTR _this$[ebp]
  0000a	c7 00 00 00 00
	00		 mov	 DWORD PTR [eax], OFFSET ??_7?$CSingleton@VCLightManager@@@@6B@

; 20   : 		assert(ms_singleton);
; 21   : 		ms_singleton = 0; 

  00010	83 25 00 00 00
	00 00		 and	 DWORD PTR ?ms_singleton@?$CSingleton@VCLightManager@@@@0PAVCLightManager@@A, 0 ; CSingleton<CLightManager>::ms_singleton

; 22   : 	}

  00017	c9		 leave
  00018	c3		 ret	 0
??1?$CSingleton@VCLightManager@@@@UAE@XZ ENDP		; CSingleton<CLightManager>::~CSingleton<CLightManager>
_TEXT	ENDS
; Function compile flags: /Odspy
;	COMDAT ??_GCLight@@UAEPAXI@Z
_TEXT	SEGMENT
_this$ = -4						; size = 4
___flags$ = 8						; size = 4
??_GCLight@@UAEPAXI@Z PROC				; CLight::`scalar deleting destructor', COMDAT
; _this$ = ecx
  00000	55		 push	 ebp
  00001	8b ec		 mov	 ebp, esp
  00003	51		 push	 ecx
  00004	89 4d fc	 mov	 DWORD PTR _this$[ebp], ecx
  00007	8b 4d fc	 mov	 ecx, DWORD PTR _this$[ebp]
  0000a	e8 00 00 00 00	 call	 ??1CLight@@UAE@XZ	; CLight::~CLight
  0000f	8b 45 08	 mov	 eax, DWORD PTR ___flags$[ebp]
  00012	83 e0 01	 and	 eax, 1
  00015	74 0f		 je	 SHORT $LN2@scalar
  00017	68 f4 00 00 00	 push	 244			; 000000f4H
  0001c	ff 75 fc	 push	 DWORD PTR _this$[ebp]
  0001f	e8 00 00 00 00	 call	 ??3@YAXPAXI@Z		; operator delete
  00024	59		 pop	 ecx
  00025	59		 pop	 ecx
$LN2@scalar:
  00026	8b 45 fc	 mov	 eax, DWORD PTR _this$[ebp]
  00029	c9		 leave
  0002a	c2 04 00	 ret	 4
??_GCLight@@UAEPAXI@Z ENDP				; CLight::`scalar deleting destructor'
_TEXT	ENDS
; Function compile flags: /Odspy
; File D:\Metin2 Server Files\mainline\SRC_2014\Metin2Client\EterLib\Util.h
;	COMDAT ?GetValue@?$CTransitor@M@@QAEHMPAM@Z
_TEXT	SEGMENT
_fPercentage$ = -8					; size = 4
_this$ = -4						; size = 4
_fcurTime$ = 8						; size = 4
_pValue$ = 12						; size = 4
?GetValue@?$CTransitor@M@@QAEHMPAM@Z PROC		; CTransitor<float>::GetValue, COMDAT
; _this$ = ecx

; 60   : 		{

  00000	55		 push	 ebp
  00001	8b ec		 mov	 ebp, esp
  00003	51		 push	 ecx
  00004	51		 push	 ecx
  00005	89 4d fc	 mov	 DWORD PTR _this$[ebp], ecx

; 61   : 			if (fcurTime <= m_fStartTime)

  00008	8b 45 fc	 mov	 eax, DWORD PTR _this$[ebp]
  0000b	f3 0f 10 40 08	 movss	 xmm0, DWORD PTR [eax+8]
  00010	0f 2f 45 08	 comiss	 xmm0, DWORD PTR _fcurTime$[ebp]
  00014	72 04		 jb	 SHORT $LN2@GetValue

; 62   : 				return FALSE;

  00016	33 c0		 xor	 eax, eax
  00018	eb 4d		 jmp	 SHORT $LN1@GetValue
$LN2@GetValue:

; 63   : 
; 64   : 			float fPercentage = (fcurTime - m_fStartTime) / (m_fEndTime - m_fStartTime);

  0001a	8b 45 fc	 mov	 eax, DWORD PTR _this$[ebp]
  0001d	f3 0f 10 45 08	 movss	 xmm0, DWORD PTR _fcurTime$[ebp]
  00022	f3 0f 5c 40 08	 subss	 xmm0, DWORD PTR [eax+8]
  00027	8b 45 fc	 mov	 eax, DWORD PTR _this$[ebp]
  0002a	8b 4d fc	 mov	 ecx, DWORD PTR _this$[ebp]
  0002d	f3 0f 10 48 0c	 movss	 xmm1, DWORD PTR [eax+12]
  00032	f3 0f 5c 49 08	 subss	 xmm1, DWORD PTR [ecx+8]
  00037	f3 0f 5e c1	 divss	 xmm0, xmm1
  0003b	f3 0f 11 45 f8	 movss	 DWORD PTR _fPercentage$[ebp], xmm0

; 65   : 			*pValue = m_SourceValue + (m_TargetValue - m_SourceValue) * fPercentage;

  00040	8b 45 fc	 mov	 eax, DWORD PTR _this$[ebp]
  00043	8b 4d fc	 mov	 ecx, DWORD PTR _this$[ebp]
  00046	f3 0f 10 40 14	 movss	 xmm0, DWORD PTR [eax+20]
  0004b	f3 0f 5c 41 10	 subss	 xmm0, DWORD PTR [ecx+16]
  00050	f3 0f 59 45 f8	 mulss	 xmm0, DWORD PTR _fPercentage$[ebp]
  00055	8b 45 fc	 mov	 eax, DWORD PTR _this$[ebp]
  00058	f3 0f 58 40 10	 addss	 xmm0, DWORD PTR [eax+16]
  0005d	8b 45 0c	 mov	 eax, DWORD PTR _pValue$[ebp]
  00060	f3 0f 11 00	 movss	 DWORD PTR [eax], xmm0

; 66   : 			return TRUE;

  00064	33 c0		 xor	 eax, eax
  00066	40		 inc	 eax
$LN1@GetValue:

; 67   : 		}

  00067	c9		 leave
  00068	c2 08 00	 ret	 8
?GetValue@?$CTransitor@M@@QAEHMPAM@Z ENDP		; CTransitor<float>::GetValue
_TEXT	ENDS
; Function compile flags: /Odspy
; File D:\Metin2 Server Files\mainline\SRC_2014\Metin2Client\EterLib\Util.h
;	COMDAT ??1?$CTransitor@M@@QAE@XZ
_TEXT	SEGMENT
_this$ = -4						; size = 4
??1?$CTransitor@M@@QAE@XZ PROC				; CTransitor<float>::~CTransitor<float>, COMDAT
; _this$ = ecx

; 16   : 		~CTransitor() {}

  00000	55		 push	 ebp
  00001	8b ec		 mov	 ebp, esp
  00003	51		 push	 ecx
  00004	89 4d fc	 mov	 DWORD PTR _this$[ebp], ecx
  00007	c9		 leave
  00008	c3		 ret	 0
??1?$CTransitor@M@@QAE@XZ ENDP				; CTransitor<float>::~CTransitor<float>
_TEXT	ENDS
; Function compile flags: /Odspy
; File D:\Metin2 Server Files\mainline\SRC_2014\Metin2Client\EterLib\Util.h
; File D:\Metin2 Server Files\mainline\SRC_2014\M2Data\include\d3dx8math.inl
; File D:\Metin2 Server Files\mainline\SRC_2014\Metin2Client\EterLib\Util.h
; File D:\Metin2 Server Files\mainline\SRC_2014\M2Data\include\d3dx8math.inl
; File D:\Metin2 Server Files\mainline\SRC_2014\Metin2Client\EterLib\Util.h
;	COMDAT ?GetValue@?$CTransitor@UD3DXCOLOR@@@@QAEHMPAUD3DXCOLOR@@@Z
_TEXT	SEGMENT
$T1 = -116						; size = 16
$T2 = -100						; size = 16
$T3 = -84						; size = 16
_fa$ = -68						; size = 4
_fb$ = -64						; size = 4
_fg$ = -60						; size = 4
_fr$ = -56						; size = 4
_fa$ = -52						; size = 4
_fb$ = -48						; size = 4
_fg$ = -44						; size = 4
_fr$ = -40						; size = 4
_fa$ = -36						; size = 4
_fb$ = -32						; size = 4
_fg$ = -28						; size = 4
_fr$ = -24						; size = 4
_this$ = -20						; size = 4
_fPercentage$ = -16					; size = 4
_c$ = -12						; size = 4
_this$ = -8						; size = 4
_this$ = -4						; size = 4
_fcurTime$ = 8						; size = 4
_pValue$ = 12						; size = 4
?GetValue@?$CTransitor@UD3DXCOLOR@@@@QAEHMPAUD3DXCOLOR@@@Z PROC ; CTransitor<D3DXCOLOR>::GetValue, COMDAT
; _this$ = ecx

; 60   : 		{

  00000	55		 push	 ebp
  00001	8b ec		 mov	 ebp, esp
  00003	83 ec 74	 sub	 esp, 116		; 00000074H
  00006	56		 push	 esi
  00007	57		 push	 edi
  00008	89 4d fc	 mov	 DWORD PTR _this$[ebp], ecx

; 61   : 			if (fcurTime <= m_fStartTime)

  0000b	8b 45 fc	 mov	 eax, DWORD PTR _this$[ebp]
  0000e	f3 0f 10 40 08	 movss	 xmm0, DWORD PTR [eax+8]
  00013	0f 2f 45 08	 comiss	 xmm0, DWORD PTR _fcurTime$[ebp]
  00017	72 07		 jb	 SHORT $LN2@GetValue

; 62   : 				return FALSE;

  00019	33 c0		 xor	 eax, eax
  0001b	e9 9b 01 00 00	 jmp	 $LN1@GetValue
$LN2@GetValue:

; 63   : 
; 64   : 			float fPercentage = (fcurTime - m_fStartTime) / (m_fEndTime - m_fStartTime);

  00020	8b 45 fc	 mov	 eax, DWORD PTR _this$[ebp]
  00023	f3 0f 10 45 08	 movss	 xmm0, DWORD PTR _fcurTime$[ebp]
  00028	f3 0f 5c 40 08	 subss	 xmm0, DWORD PTR [eax+8]
  0002d	8b 45 fc	 mov	 eax, DWORD PTR _this$[ebp]
  00030	8b 4d fc	 mov	 ecx, DWORD PTR _this$[ebp]
  00033	f3 0f 10 48 0c	 movss	 xmm1, DWORD PTR [eax+12]
  00038	f3 0f 5c 49 08	 subss	 xmm1, DWORD PTR [ecx+8]
  0003d	f3 0f 5e c1	 divss	 xmm0, xmm1
  00041	f3 0f 11 45 f0	 movss	 DWORD PTR _fPercentage$[ebp], xmm0

; 65   : 			*pValue = m_SourceValue + (m_TargetValue - m_SourceValue) * fPercentage;

  00046	8b 45 fc	 mov	 eax, DWORD PTR _this$[ebp]
  00049	83 c0 10	 add	 eax, 16			; 00000010H
  0004c	89 45 f4	 mov	 DWORD PTR _c$[ebp], eax
  0004f	8b 45 fc	 mov	 eax, DWORD PTR _this$[ebp]
  00052	83 c0 20	 add	 eax, 32			; 00000020H
  00055	89 45 f8	 mov	 DWORD PTR _this$[ebp], eax
; File D:\Metin2 Server Files\mainline\SRC_2014\M2Data\include\d3dx8math.inl

; 1046 :     return D3DXCOLOR(r - c.r, g - c.g, b - c.b, a - c.a);

  00058	8b 45 f8	 mov	 eax, DWORD PTR _this$[ebp]
  0005b	8b 4d f4	 mov	 ecx, DWORD PTR _c$[ebp]
  0005e	f3 0f 10 00	 movss	 xmm0, DWORD PTR [eax]
  00062	f3 0f 5c 01	 subss	 xmm0, DWORD PTR [ecx]
  00066	f3 0f 11 45 e8	 movss	 DWORD PTR _fr$[ebp], xmm0
  0006b	8b 45 f8	 mov	 eax, DWORD PTR _this$[ebp]
  0006e	8b 4d f4	 mov	 ecx, DWORD PTR _c$[ebp]
  00071	f3 0f 10 40 04	 movss	 xmm0, DWORD PTR [eax+4]
  00076	f3 0f 5c 41 04	 subss	 xmm0, DWORD PTR [ecx+4]
  0007b	f3 0f 11 45 e4	 movss	 DWORD PTR _fg$[ebp], xmm0
  00080	8b 45 f8	 mov	 eax, DWORD PTR _this$[ebp]
  00083	8b 4d f4	 mov	 ecx, DWORD PTR _c$[ebp]
  00086	f3 0f 10 40 08	 movss	 xmm0, DWORD PTR [eax+8]
  0008b	f3 0f 5c 41 08	 subss	 xmm0, DWORD PTR [ecx+8]
  00090	f3 0f 11 45 e0	 movss	 DWORD PTR _fb$[ebp], xmm0
  00095	8b 45 f8	 mov	 eax, DWORD PTR _this$[ebp]
  00098	8b 4d f4	 mov	 ecx, DWORD PTR _c$[ebp]
  0009b	f3 0f 10 40 0c	 movss	 xmm0, DWORD PTR [eax+12]
  000a0	f3 0f 5c 41 0c	 subss	 xmm0, DWORD PTR [ecx+12]
  000a5	f3 0f 11 45 dc	 movss	 DWORD PTR _fa$[ebp], xmm0

; 920  :     r = fr;

  000aa	f3 0f 10 45 e8	 movss	 xmm0, DWORD PTR _fr$[ebp]
  000af	f3 0f 11 45 ac	 movss	 DWORD PTR $T3[ebp], xmm0

; 921  :     g = fg;

  000b4	f3 0f 10 45 e4	 movss	 xmm0, DWORD PTR _fg$[ebp]
  000b9	f3 0f 11 45 b0	 movss	 DWORD PTR $T3[ebp+4], xmm0

; 922  :     b = fb;

  000be	f3 0f 10 45 e0	 movss	 xmm0, DWORD PTR _fb$[ebp]
  000c3	f3 0f 11 45 b4	 movss	 DWORD PTR $T3[ebp+8], xmm0

; 923  :     a = fa;

  000c8	f3 0f 10 45 dc	 movss	 xmm0, DWORD PTR _fa$[ebp]
  000cd	f3 0f 11 45 b8	 movss	 DWORD PTR $T3[ebp+12], xmm0

; 1052 :     return D3DXCOLOR(r * f, g * f, b * f, a * f);

  000d2	f3 0f 10 45 ac	 movss	 xmm0, DWORD PTR $T3[ebp]
  000d7	f3 0f 59 45 f0	 mulss	 xmm0, DWORD PTR _fPercentage$[ebp]
  000dc	f3 0f 11 45 d8	 movss	 DWORD PTR _fr$[ebp], xmm0
  000e1	f3 0f 10 45 b0	 movss	 xmm0, DWORD PTR $T3[ebp+4]
  000e6	f3 0f 59 45 f0	 mulss	 xmm0, DWORD PTR _fPercentage$[ebp]
  000eb	f3 0f 11 45 d4	 movss	 DWORD PTR _fg$[ebp], xmm0
  000f0	f3 0f 10 45 b4	 movss	 xmm0, DWORD PTR $T3[ebp+8]
  000f5	f3 0f 59 45 f0	 mulss	 xmm0, DWORD PTR _fPercentage$[ebp]
  000fa	f3 0f 11 45 d0	 movss	 DWORD PTR _fb$[ebp], xmm0
  000ff	f3 0f 10 45 b8	 movss	 xmm0, DWORD PTR $T3[ebp+12]
  00104	f3 0f 59 45 f0	 mulss	 xmm0, DWORD PTR _fPercentage$[ebp]
  00109	f3 0f 11 45 cc	 movss	 DWORD PTR _fa$[ebp], xmm0

; 920  :     r = fr;

  0010e	f3 0f 10 45 d8	 movss	 xmm0, DWORD PTR _fr$[ebp]
  00113	f3 0f 11 45 9c	 movss	 DWORD PTR $T2[ebp], xmm0

; 921  :     g = fg;

  00118	f3 0f 10 45 d4	 movss	 xmm0, DWORD PTR _fg$[ebp]
  0011d	f3 0f 11 45 a0	 movss	 DWORD PTR $T2[ebp+4], xmm0

; 922  :     b = fb;

  00122	f3 0f 10 45 d0	 movss	 xmm0, DWORD PTR _fb$[ebp]
  00127	f3 0f 11 45 a4	 movss	 DWORD PTR $T2[ebp+8], xmm0

; 923  :     a = fa;

  0012c	f3 0f 10 45 cc	 movss	 xmm0, DWORD PTR _fa$[ebp]
  00131	f3 0f 11 45 a8	 movss	 DWORD PTR $T2[ebp+12], xmm0
; File D:\Metin2 Server Files\mainline\SRC_2014\Metin2Client\EterLib\Util.h

; 65   : 			*pValue = m_SourceValue + (m_TargetValue - m_SourceValue) * fPercentage;

  00136	8b 45 fc	 mov	 eax, DWORD PTR _this$[ebp]
  00139	83 c0 10	 add	 eax, 16			; 00000010H
  0013c	89 45 ec	 mov	 DWORD PTR _this$[ebp], eax
; File D:\Metin2 Server Files\mainline\SRC_2014\M2Data\include\d3dx8math.inl

; 1040 :     return D3DXCOLOR(r + c.r, g + c.g, b + c.b, a + c.a);

  0013f	8b 45 ec	 mov	 eax, DWORD PTR _this$[ebp]
  00142	f3 0f 10 00	 movss	 xmm0, DWORD PTR [eax]
  00146	f3 0f 58 45 9c	 addss	 xmm0, DWORD PTR $T2[ebp]
  0014b	f3 0f 11 45 c8	 movss	 DWORD PTR _fr$[ebp], xmm0
  00150	8b 45 ec	 mov	 eax, DWORD PTR _this$[ebp]
  00153	f3 0f 10 40 04	 movss	 xmm0, DWORD PTR [eax+4]
  00158	f3 0f 58 45 a0	 addss	 xmm0, DWORD PTR $T2[ebp+4]
  0015d	f3 0f 11 45 c4	 movss	 DWORD PTR _fg$[ebp], xmm0
  00162	8b 45 ec	 mov	 eax, DWORD PTR _this$[ebp]
  00165	f3 0f 10 40 08	 movss	 xmm0, DWORD PTR [eax+8]
  0016a	f3 0f 58 45 a4	 addss	 xmm0, DWORD PTR $T2[ebp+8]
  0016f	f3 0f 11 45 c0	 movss	 DWORD PTR _fb$[ebp], xmm0
  00174	8b 45 ec	 mov	 eax, DWORD PTR _this$[ebp]
  00177	f3 0f 10 40 0c	 movss	 xmm0, DWORD PTR [eax+12]
  0017c	f3 0f 58 45 a8	 addss	 xmm0, DWORD PTR $T2[ebp+12]
  00181	f3 0f 11 45 bc	 movss	 DWORD PTR _fa$[ebp], xmm0

; 920  :     r = fr;

  00186	f3 0f 10 45 c8	 movss	 xmm0, DWORD PTR _fr$[ebp]
  0018b	f3 0f 11 45 8c	 movss	 DWORD PTR $T1[ebp], xmm0

; 921  :     g = fg;

  00190	f3 0f 10 45 c4	 movss	 xmm0, DWORD PTR _fg$[ebp]
  00195	f3 0f 11 45 90	 movss	 DWORD PTR $T1[ebp+4], xmm0

; 922  :     b = fb;

  0019a	f3 0f 10 45 c0	 movss	 xmm0, DWORD PTR _fb$[ebp]
  0019f	f3 0f 11 45 94	 movss	 DWORD PTR $T1[ebp+8], xmm0

; 923  :     a = fa;

  001a4	f3 0f 10 45 bc	 movss	 xmm0, DWORD PTR _fa$[ebp]
  001a9	f3 0f 11 45 98	 movss	 DWORD PTR $T1[ebp+12], xmm0
; File D:\Metin2 Server Files\mainline\SRC_2014\Metin2Client\EterLib\Util.h

; 65   : 			*pValue = m_SourceValue + (m_TargetValue - m_SourceValue) * fPercentage;

  001ae	8d 75 8c	 lea	 esi, DWORD PTR $T1[ebp]
  001b1	8b 7d 0c	 mov	 edi, DWORD PTR _pValue$[ebp]
  001b4	a5		 movsd
  001b5	a5		 movsd
  001b6	a5		 movsd
  001b7	a5		 movsd

; 66   : 			return TRUE;

  001b8	33 c0		 xor	 eax, eax
  001ba	40		 inc	 eax
$LN1@GetValue:

; 67   : 		}

  001bb	5f		 pop	 edi
  001bc	5e		 pop	 esi
  001bd	c9		 leave
  001be	c2 08 00	 ret	 8
?GetValue@?$CTransitor@UD3DXCOLOR@@@@QAEHMPAUD3DXCOLOR@@@Z ENDP ; CTransitor<D3DXCOLOR>::GetValue
_TEXT	ENDS
; Function compile flags: /Odspy
; File D:\Metin2 Server Files\mainline\SRC_2014\Metin2Client\EterLib\Util.h
;	COMDAT ??1?$CTransitor@UD3DXCOLOR@@@@QAE@XZ
_TEXT	SEGMENT
_this$ = -4						; size = 4
??1?$CTransitor@UD3DXCOLOR@@@@QAE@XZ PROC		; CTransitor<D3DXCOLOR>::~CTransitor<D3DXCOLOR>, COMDAT
; _this$ = ecx

; 16   : 		~CTransitor() {}

  00000	55		 push	 ebp
  00001	8b ec		 mov	 ebp, esp
  00003	51		 push	 ecx
  00004	89 4d fc	 mov	 DWORD PTR _this$[ebp], ecx
  00007	c9		 leave
  00008	c3		 ret	 0
??1?$CTransitor@UD3DXCOLOR@@@@QAE@XZ ENDP		; CTransitor<D3DXCOLOR>::~CTransitor<D3DXCOLOR>
_TEXT	ENDS
; Function compile flags: /Odspy
; File D:\Metin2 Server Files\mainline\SRC_2014\Metin2Client\EterLib\GrpLightManager.cpp
; File D:\Metin2 Server Files\mainline\SRC_2014\Metin2Client\EterLib\Util.h
; File D:\Metin2 Server Files\mainline\SRC_2014\Metin2Client\EterLib\GrpLightManager.cpp
;	COMDAT ?BlendRange@CLight@@QAEXMMM@Z
_TEXT	SEGMENT
_fStartTime$ = -12					; size = 4
_this$ = -8						; size = 4
_this$ = -4						; size = 4
_fRange$ = 8						; size = 4
_fBlendTime$ = 12					; size = 4
_fDelayTime$ = 16					; size = 4
?BlendRange@CLight@@QAEXMMM@Z PROC			; CLight::BlendRange, COMDAT
; _this$ = ecx

; 294  : {

  00000	55		 push	 ebp
  00001	8b ec		 mov	 ebp, esp
  00003	83 ec 0c	 sub	 esp, 12			; 0000000cH
  00006	89 4d f8	 mov	 DWORD PTR _this$[ebp], ecx

; 295  : 	m_RangeTransitor.SetTransition(m_d3dLight.Range, fRange, ms_fCurTime + fDelayTime, fBlendTime);

  00009	8b 45 f8	 mov	 eax, DWORD PTR _this$[ebp]
  0000c	05 dc 00 00 00	 add	 eax, 220		; 000000dcH
  00011	89 45 fc	 mov	 DWORD PTR _this$[ebp], eax
  00014	f3 0f 10 05 00
	00 00 00	 movss	 xmm0, DWORD PTR ?ms_fCurTime@CLightBase@@1MA
  0001c	f3 0f 58 45 10	 addss	 xmm0, DWORD PTR _fDelayTime$[ebp]
  00021	f3 0f 11 45 f4	 movss	 DWORD PTR _fStartTime$[ebp], xmm0
; File D:\Metin2 Server Files\mainline\SRC_2014\Metin2Client\EterLib\Util.h

; 53   : 			m_SourceValue = c_rSourceValue;

  00026	8b 45 fc	 mov	 eax, DWORD PTR _this$[ebp]
  00029	8b 4d f8	 mov	 ecx, DWORD PTR _this$[ebp]
  0002c	8b 49 58	 mov	 ecx, DWORD PTR [ecx+88]
  0002f	89 48 10	 mov	 DWORD PTR [eax+16], ecx

; 54   : 			m_TargetValue = c_rTargetValue;

  00032	8b 45 fc	 mov	 eax, DWORD PTR _this$[ebp]
  00035	f3 0f 10 45 08	 movss	 xmm0, DWORD PTR _fRange$[ebp]
  0003a	f3 0f 11 40 14	 movss	 DWORD PTR [eax+20], xmm0

; 55   : 			m_fStartTime = fStartTime;

  0003f	8b 45 fc	 mov	 eax, DWORD PTR _this$[ebp]
  00042	f3 0f 10 45 f4	 movss	 xmm0, DWORD PTR _fStartTime$[ebp]
  00047	f3 0f 11 40 08	 movss	 DWORD PTR [eax+8], xmm0

; 56   : 			m_fEndTime = fStartTime + fBlendTime;

  0004c	f3 0f 10 45 f4	 movss	 xmm0, DWORD PTR _fStartTime$[ebp]
  00051	f3 0f 58 45 0c	 addss	 xmm0, DWORD PTR _fBlendTime$[ebp]
  00056	8b 45 fc	 mov	 eax, DWORD PTR _this$[ebp]
  00059	f3 0f 11 40 0c	 movss	 DWORD PTR [eax+12], xmm0
; File D:\Metin2 Server Files\mainline\SRC_2014\Metin2Client\EterLib\GrpLightManager.cpp

; 296  : }

  0005e	c9		 leave
  0005f	c2 0c 00	 ret	 12			; 0000000cH
?BlendRange@CLight@@QAEXMMM@Z ENDP			; CLight::BlendRange
_TEXT	ENDS
; Function compile flags: /Odspy
; File D:\Metin2 Server Files\mainline\SRC_2014\Metin2Client\EterLib\GrpLightManager.cpp
; File D:\Metin2 Server Files\mainline\SRC_2014\M2Data\include\d3dx8math.inl
; File D:\Metin2 Server Files\mainline\SRC_2014\Metin2Client\EterLib\GrpLightManager.cpp
; File D:\Metin2 Server Files\mainline\SRC_2014\Metin2Client\EterLib\Util.h
; File D:\Metin2 Server Files\mainline\SRC_2014\Metin2Client\EterLib\GrpLightManager.cpp
;	COMDAT ?BlendAmbientColor@CLight@@QAEXABUD3DXCOLOR@@MM@Z
_TEXT	SEGMENT
_Color$ = -32						; size = 16
_fStartTime$ = -16					; size = 4
_this$ = -12						; size = 4
_this$ = -8						; size = 4
_c$ = -4						; size = 4
_c_rColor$ = 8						; size = 4
_fBlendTime$ = 12					; size = 4
_fDelayTime$ = 16					; size = 4
?BlendAmbientColor@CLight@@QAEXABUD3DXCOLOR@@MM@Z PROC	; CLight::BlendAmbientColor, COMDAT
; _this$ = ecx

; 288  : {

  00000	55		 push	 ebp
  00001	8b ec		 mov	 ebp, esp
  00003	83 ec 20	 sub	 esp, 32			; 00000020H
  00006	56		 push	 esi
  00007	57		 push	 edi
  00008	89 4d f4	 mov	 DWORD PTR _this$[ebp], ecx

; 289  : 	D3DXCOLOR Color(m_d3dLight.Ambient);

  0000b	8b 45 f4	 mov	 eax, DWORD PTR _this$[ebp]
  0000e	83 c0 30	 add	 eax, 48			; 00000030H
  00011	89 45 fc	 mov	 DWORD PTR _c$[ebp], eax
; File D:\Metin2 Server Files\mainline\SRC_2014\M2Data\include\d3dx8math.inl

; 911  :     r = c.r;

  00014	8b 45 fc	 mov	 eax, DWORD PTR _c$[ebp]
  00017	f3 0f 10 00	 movss	 xmm0, DWORD PTR [eax]
  0001b	f3 0f 11 45 e0	 movss	 DWORD PTR _Color$[ebp], xmm0

; 912  :     g = c.g;

  00020	8b 45 fc	 mov	 eax, DWORD PTR _c$[ebp]
  00023	f3 0f 10 40 04	 movss	 xmm0, DWORD PTR [eax+4]
  00028	f3 0f 11 45 e4	 movss	 DWORD PTR _Color$[ebp+4], xmm0

; 913  :     b = c.b;

  0002d	8b 45 fc	 mov	 eax, DWORD PTR _c$[ebp]
  00030	f3 0f 10 40 08	 movss	 xmm0, DWORD PTR [eax+8]
  00035	f3 0f 11 45 e8	 movss	 DWORD PTR _Color$[ebp+8], xmm0

; 914  :     a = c.a;

  0003a	8b 45 fc	 mov	 eax, DWORD PTR _c$[ebp]
  0003d	f3 0f 10 40 0c	 movss	 xmm0, DWORD PTR [eax+12]
  00042	f3 0f 11 45 ec	 movss	 DWORD PTR _Color$[ebp+12], xmm0
; File D:\Metin2 Server Files\mainline\SRC_2014\Metin2Client\EterLib\GrpLightManager.cpp

; 290  : 	m_AmbientColorTransitor.SetTransition(Color, c_rColor, ms_fCurTime + fDelayTime, fBlendTime);

  00047	8b 45 f4	 mov	 eax, DWORD PTR _this$[ebp]
  0004a	05 ac 00 00 00	 add	 eax, 172		; 000000acH
  0004f	89 45 f8	 mov	 DWORD PTR _this$[ebp], eax
  00052	f3 0f 10 05 00
	00 00 00	 movss	 xmm0, DWORD PTR ?ms_fCurTime@CLightBase@@1MA
  0005a	f3 0f 58 45 10	 addss	 xmm0, DWORD PTR _fDelayTime$[ebp]
  0005f	f3 0f 11 45 f0	 movss	 DWORD PTR _fStartTime$[ebp], xmm0
; File D:\Metin2 Server Files\mainline\SRC_2014\Metin2Client\EterLib\Util.h

; 53   : 			m_SourceValue = c_rSourceValue;

  00064	8b 7d f8	 mov	 edi, DWORD PTR _this$[ebp]
  00067	83 c7 10	 add	 edi, 16			; 00000010H
  0006a	8d 75 e0	 lea	 esi, DWORD PTR _Color$[ebp]
  0006d	a5		 movsd
  0006e	a5		 movsd
  0006f	a5		 movsd
  00070	a5		 movsd

; 54   : 			m_TargetValue = c_rTargetValue;

  00071	8b 7d f8	 mov	 edi, DWORD PTR _this$[ebp]
  00074	83 c7 20	 add	 edi, 32			; 00000020H
  00077	8b 75 08	 mov	 esi, DWORD PTR _c_rColor$[ebp]
  0007a	a5		 movsd
  0007b	a5		 movsd
  0007c	a5		 movsd
  0007d	a5		 movsd

; 55   : 			m_fStartTime = fStartTime;

  0007e	8b 45 f8	 mov	 eax, DWORD PTR _this$[ebp]
  00081	f3 0f 10 45 f0	 movss	 xmm0, DWORD PTR _fStartTime$[ebp]
  00086	f3 0f 11 40 08	 movss	 DWORD PTR [eax+8], xmm0

; 56   : 			m_fEndTime = fStartTime + fBlendTime;

  0008b	f3 0f 10 45 f0	 movss	 xmm0, DWORD PTR _fStartTime$[ebp]
  00090	f3 0f 58 45 0c	 addss	 xmm0, DWORD PTR _fBlendTime$[ebp]
  00095	8b 45 f8	 mov	 eax, DWORD PTR _this$[ebp]
  00098	f3 0f 11 40 0c	 movss	 DWORD PTR [eax+12], xmm0
; File D:\Metin2 Server Files\mainline\SRC_2014\Metin2Client\EterLib\GrpLightManager.cpp

; 291  : }

  0009d	5f		 pop	 edi
  0009e	5e		 pop	 esi
  0009f	c9		 leave
  000a0	c2 0c 00	 ret	 12			; 0000000cH
?BlendAmbientColor@CLight@@QAEXABUD3DXCOLOR@@MM@Z ENDP	; CLight::BlendAmbientColor
_TEXT	ENDS
; Function compile flags: /Odspy
; File D:\Metin2 Server Files\mainline\SRC_2014\Metin2Client\EterLib\GrpLightManager.cpp
; File D:\Metin2 Server Files\mainline\SRC_2014\M2Data\include\d3dx8math.inl
; File D:\Metin2 Server Files\mainline\SRC_2014\Metin2Client\EterLib\GrpLightManager.cpp
; File D:\Metin2 Server Files\mainline\SRC_2014\Metin2Client\EterLib\Util.h
; File D:\Metin2 Server Files\mainline\SRC_2014\Metin2Client\EterLib\GrpLightManager.cpp
;	COMDAT ?BlendDiffuseColor@CLight@@QAEXABUD3DXCOLOR@@MM@Z
_TEXT	SEGMENT
_Color$ = -32						; size = 16
_fStartTime$ = -16					; size = 4
_this$ = -12						; size = 4
_this$ = -8						; size = 4
_c$ = -4						; size = 4
_c_rColor$ = 8						; size = 4
_fBlendTime$ = 12					; size = 4
_fDelayTime$ = 16					; size = 4
?BlendDiffuseColor@CLight@@QAEXABUD3DXCOLOR@@MM@Z PROC	; CLight::BlendDiffuseColor, COMDAT
; _this$ = ecx

; 282  : {

  00000	55		 push	 ebp
  00001	8b ec		 mov	 ebp, esp
  00003	83 ec 20	 sub	 esp, 32			; 00000020H
  00006	56		 push	 esi
  00007	57		 push	 edi
  00008	89 4d f4	 mov	 DWORD PTR _this$[ebp], ecx

; 283  : 	D3DXCOLOR Color(m_d3dLight.Diffuse);

  0000b	8b 45 f4	 mov	 eax, DWORD PTR _this$[ebp]
  0000e	83 c0 10	 add	 eax, 16			; 00000010H
  00011	89 45 fc	 mov	 DWORD PTR _c$[ebp], eax
; File D:\Metin2 Server Files\mainline\SRC_2014\M2Data\include\d3dx8math.inl

; 911  :     r = c.r;

  00014	8b 45 fc	 mov	 eax, DWORD PTR _c$[ebp]
  00017	f3 0f 10 00	 movss	 xmm0, DWORD PTR [eax]
  0001b	f3 0f 11 45 e0	 movss	 DWORD PTR _Color$[ebp], xmm0

; 912  :     g = c.g;

  00020	8b 45 fc	 mov	 eax, DWORD PTR _c$[ebp]
  00023	f3 0f 10 40 04	 movss	 xmm0, DWORD PTR [eax+4]
  00028	f3 0f 11 45 e4	 movss	 DWORD PTR _Color$[ebp+4], xmm0

; 913  :     b = c.b;

  0002d	8b 45 fc	 mov	 eax, DWORD PTR _c$[ebp]
  00030	f3 0f 10 40 08	 movss	 xmm0, DWORD PTR [eax+8]
  00035	f3 0f 11 45 e8	 movss	 DWORD PTR _Color$[ebp+8], xmm0

; 914  :     a = c.a;

  0003a	8b 45 fc	 mov	 eax, DWORD PTR _c$[ebp]
  0003d	f3 0f 10 40 0c	 movss	 xmm0, DWORD PTR [eax+12]
  00042	f3 0f 11 45 ec	 movss	 DWORD PTR _Color$[ebp+12], xmm0
; File D:\Metin2 Server Files\mainline\SRC_2014\Metin2Client\EterLib\GrpLightManager.cpp

; 284  : 	m_DiffuseColorTransitor.SetTransition(Color, c_rColor, ms_fCurTime + fDelayTime, fBlendTime);

  00047	8b 45 f4	 mov	 eax, DWORD PTR _this$[ebp]
  0004a	83 c0 7c	 add	 eax, 124		; 0000007cH
  0004d	89 45 f8	 mov	 DWORD PTR _this$[ebp], eax
  00050	f3 0f 10 05 00
	00 00 00	 movss	 xmm0, DWORD PTR ?ms_fCurTime@CLightBase@@1MA
  00058	f3 0f 58 45 10	 addss	 xmm0, DWORD PTR _fDelayTime$[ebp]
  0005d	f3 0f 11 45 f0	 movss	 DWORD PTR _fStartTime$[ebp], xmm0
; File D:\Metin2 Server Files\mainline\SRC_2014\Metin2Client\EterLib\Util.h

; 53   : 			m_SourceValue = c_rSourceValue;

  00062	8b 7d f8	 mov	 edi, DWORD PTR _this$[ebp]
  00065	83 c7 10	 add	 edi, 16			; 00000010H
  00068	8d 75 e0	 lea	 esi, DWORD PTR _Color$[ebp]
  0006b	a5		 movsd
  0006c	a5		 movsd
  0006d	a5		 movsd
  0006e	a5		 movsd

; 54   : 			m_TargetValue = c_rTargetValue;

  0006f	8b 7d f8	 mov	 edi, DWORD PTR _this$[ebp]
  00072	83 c7 20	 add	 edi, 32			; 00000020H
  00075	8b 75 08	 mov	 esi, DWORD PTR _c_rColor$[ebp]
  00078	a5		 movsd
  00079	a5		 movsd
  0007a	a5		 movsd
  0007b	a5		 movsd

; 55   : 			m_fStartTime = fStartTime;

  0007c	8b 45 f8	 mov	 eax, DWORD PTR _this$[ebp]
  0007f	f3 0f 10 45 f0	 movss	 xmm0, DWORD PTR _fStartTime$[ebp]
  00084	f3 0f 11 40 08	 movss	 DWORD PTR [eax+8], xmm0

; 56   : 			m_fEndTime = fStartTime + fBlendTime;

  00089	f3 0f 10 45 f0	 movss	 xmm0, DWORD PTR _fStartTime$[ebp]
  0008e	f3 0f 58 45 0c	 addss	 xmm0, DWORD PTR _fBlendTime$[ebp]
  00093	8b 45 f8	 mov	 eax, DWORD PTR _this$[ebp]
  00096	f3 0f 11 40 0c	 movss	 DWORD PTR [eax+12], xmm0
; File D:\Metin2 Server Files\mainline\SRC_2014\Metin2Client\EterLib\GrpLightManager.cpp

; 285  : }

  0009b	5f		 pop	 edi
  0009c	5e		 pop	 esi
  0009d	c9		 leave
  0009e	c2 0c 00	 ret	 12			; 0000000cH
?BlendDiffuseColor@CLight@@QAEXABUD3DXCOLOR@@MM@Z ENDP	; CLight::BlendDiffuseColor
_TEXT	ENDS
; Function compile flags: /Odspy
; File D:\Metin2 Server Files\mainline\SRC_2014\Metin2Client\EterLib\GrpLightManager.cpp
;	COMDAT ?GetPosition@CLight@@QBEABU_D3DVECTOR@@XZ
_TEXT	SEGMENT
_this$ = -4						; size = 4
?GetPosition@CLight@@QBEABU_D3DVECTOR@@XZ PROC		; CLight::GetPosition, COMDAT
; _this$ = ecx

; 261  : {

  00000	55		 push	 ebp
  00001	8b ec		 mov	 ebp, esp
  00003	51		 push	 ecx
  00004	89 4d fc	 mov	 DWORD PTR _this$[ebp], ecx

; 262  : 	return m_d3dLight.Position;

  00007	8b 45 fc	 mov	 eax, DWORD PTR _this$[ebp]
  0000a	83 c0 40	 add	 eax, 64			; 00000040H

; 263  : }

  0000d	c9		 leave
  0000e	c3		 ret	 0
?GetPosition@CLight@@QBEABU_D3DVECTOR@@XZ ENDP		; CLight::GetPosition
_TEXT	ENDS
; Function compile flags: /Odspy
; File D:\Metin2 Server Files\mainline\SRC_2014\Metin2Client\EterLib\GrpLightManager.cpp
;	COMDAT ?SetPosition@CLight@@QAEXMMM@Z
_TEXT	SEGMENT
_this$ = -4						; size = 4
_fx$ = 8						; size = 4
_fy$ = 12						; size = 4
_fz$ = 16						; size = 4
?SetPosition@CLight@@QAEXMMM@Z PROC			; CLight::SetPosition, COMDAT
; _this$ = ecx

; 266  : {

  00000	55		 push	 ebp
  00001	8b ec		 mov	 ebp, esp
  00003	51		 push	 ecx
  00004	89 4d fc	 mov	 DWORD PTR _this$[ebp], ecx

; 267  : 	if (m_d3dLight.Position.x == fx && m_d3dLight.Position.y == fy && m_d3dLight.Position.z == fz)

  00007	8b 45 fc	 mov	 eax, DWORD PTR _this$[ebp]
  0000a	f3 0f 10 40 40	 movss	 xmm0, DWORD PTR [eax+64]
  0000f	0f 2e 45 08	 ucomiss xmm0, DWORD PTR _fx$[ebp]
  00013	9f		 lahf
  00014	f6 c4 44	 test	 ah, 68			; 00000044H
  00017	7a 26		 jp	 SHORT $LN2@SetPositio
  00019	8b 45 fc	 mov	 eax, DWORD PTR _this$[ebp]
  0001c	f3 0f 10 40 44	 movss	 xmm0, DWORD PTR [eax+68]
  00021	0f 2e 45 0c	 ucomiss xmm0, DWORD PTR _fy$[ebp]
  00025	9f		 lahf
  00026	f6 c4 44	 test	 ah, 68			; 00000044H
  00029	7a 14		 jp	 SHORT $LN2@SetPositio
  0002b	8b 45 fc	 mov	 eax, DWORD PTR _this$[ebp]
  0002e	f3 0f 10 40 48	 movss	 xmm0, DWORD PTR [eax+72]
  00033	0f 2e 45 10	 ucomiss xmm0, DWORD PTR _fz$[ebp]
  00037	9f		 lahf
  00038	f6 c4 44	 test	 ah, 68			; 00000044H
  0003b	7a 02		 jp	 SHORT $LN2@SetPositio

; 268  : 		return;

  0003d	eb 31		 jmp	 SHORT $LN1@SetPositio
$LN2@SetPositio:

; 269  : 
; 270  : 	m_d3dLight.Position.x = fx;

  0003f	8b 45 fc	 mov	 eax, DWORD PTR _this$[ebp]
  00042	f3 0f 10 45 08	 movss	 xmm0, DWORD PTR _fx$[ebp]
  00047	f3 0f 11 40 40	 movss	 DWORD PTR [eax+64], xmm0

; 271  : 	m_d3dLight.Position.y = fy;

  0004c	8b 45 fc	 mov	 eax, DWORD PTR _this$[ebp]
  0004f	f3 0f 10 45 0c	 movss	 xmm0, DWORD PTR _fy$[ebp]
  00054	f3 0f 11 40 44	 movss	 DWORD PTR [eax+68], xmm0

; 272  : 	m_d3dLight.Position.z = fz;

  00059	8b 45 fc	 mov	 eax, DWORD PTR _this$[ebp]
  0005c	f3 0f 10 45 10	 movss	 xmm0, DWORD PTR _fz$[ebp]
  00061	f3 0f 11 40 48	 movss	 DWORD PTR [eax+72], xmm0

; 273  : 	m_isEdited = TRUE;

  00066	8b 45 fc	 mov	 eax, DWORD PTR _this$[ebp]
  00069	c7 40 74 01 00
	00 00		 mov	 DWORD PTR [eax+116], 1
$LN1@SetPositio:

; 274  : }

  00070	c9		 leave
  00071	c2 0c 00	 ret	 12			; 0000000cH
?SetPosition@CLight@@QAEXMMM@Z ENDP			; CLight::SetPosition
_TEXT	ENDS
; Function compile flags: /Odspy
; File D:\Metin2 Server Files\mainline\SRC_2014\Metin2Client\EterLib\GrpLightManager.cpp
;	COMDAT ?SetRange@CLight@@QAEXM@Z
_TEXT	SEGMENT
_this$ = -4						; size = 4
_fRange$ = 8						; size = 4
?SetRange@CLight@@QAEXM@Z PROC				; CLight::SetRange, COMDAT
; _this$ = ecx

; 252  : {

  00000	55		 push	 ebp
  00001	8b ec		 mov	 ebp, esp
  00003	51		 push	 ecx
  00004	89 4d fc	 mov	 DWORD PTR _this$[ebp], ecx

; 253  : 	if (m_d3dLight.Range == fRange)

  00007	8b 45 fc	 mov	 eax, DWORD PTR _this$[ebp]
  0000a	f3 0f 10 40 58	 movss	 xmm0, DWORD PTR [eax+88]
  0000f	0f 2e 45 08	 ucomiss xmm0, DWORD PTR _fRange$[ebp]
  00013	9f		 lahf
  00014	f6 c4 44	 test	 ah, 68			; 00000044H
  00017	7a 02		 jp	 SHORT $LN2@SetRange

; 254  : 		return;

  00019	eb 17		 jmp	 SHORT $LN1@SetRange
$LN2@SetRange:

; 255  : 	
; 256  : 	m_d3dLight.Range = fRange;

  0001b	8b 45 fc	 mov	 eax, DWORD PTR _this$[ebp]
  0001e	f3 0f 10 45 08	 movss	 xmm0, DWORD PTR _fRange$[ebp]
  00023	f3 0f 11 40 58	 movss	 DWORD PTR [eax+88], xmm0

; 257  : 	m_isEdited = TRUE;

  00028	8b 45 fc	 mov	 eax, DWORD PTR _this$[ebp]
  0002b	c7 40 74 01 00
	00 00		 mov	 DWORD PTR [eax+116], 1
$LN1@SetRange:

; 258  : }

  00032	c9		 leave
  00033	c2 04 00	 ret	 4
?SetRange@CLight@@QAEXM@Z ENDP				; CLight::SetRange
_TEXT	ENDS
; Function compile flags: /Odspy
; File D:\Metin2 Server Files\mainline\SRC_2014\Metin2Client\EterLib\GrpLightManager.cpp
;	COMDAT ?SetAmbientColor@CLight@@QAEXMMMM@Z
_TEXT	SEGMENT
_this$ = -4						; size = 4
_fr$ = 8						; size = 4
_fg$ = 12						; size = 4
_fb$ = 16						; size = 4
_fa$ = 20						; size = 4
?SetAmbientColor@CLight@@QAEXMMMM@Z PROC		; CLight::SetAmbientColor, COMDAT
; _this$ = ecx

; 237  : {

  00000	55		 push	 ebp
  00001	8b ec		 mov	 ebp, esp
  00003	51		 push	 ecx
  00004	89 4d fc	 mov	 DWORD PTR _this$[ebp], ecx

; 238  : 	if (m_d3dLight.Ambient.r == fr
; 239  : 		&& m_d3dLight.Ambient.g == fg
; 240  : 		&& m_d3dLight.Ambient.b == fb
; 241  : 		&& m_d3dLight.Ambient.a == fa

  00007	8b 45 fc	 mov	 eax, DWORD PTR _this$[ebp]
  0000a	f3 0f 10 40 30	 movss	 xmm0, DWORD PTR [eax+48]
  0000f	0f 2e 45 08	 ucomiss xmm0, DWORD PTR _fr$[ebp]
  00013	9f		 lahf
  00014	f6 c4 44	 test	 ah, 68			; 00000044H
  00017	7a 38		 jp	 SHORT $LN2@SetAmbient
  00019	8b 45 fc	 mov	 eax, DWORD PTR _this$[ebp]
  0001c	f3 0f 10 40 34	 movss	 xmm0, DWORD PTR [eax+52]
  00021	0f 2e 45 0c	 ucomiss xmm0, DWORD PTR _fg$[ebp]
  00025	9f		 lahf
  00026	f6 c4 44	 test	 ah, 68			; 00000044H
  00029	7a 26		 jp	 SHORT $LN2@SetAmbient
  0002b	8b 45 fc	 mov	 eax, DWORD PTR _this$[ebp]
  0002e	f3 0f 10 40 38	 movss	 xmm0, DWORD PTR [eax+56]
  00033	0f 2e 45 10	 ucomiss xmm0, DWORD PTR _fb$[ebp]
  00037	9f		 lahf
  00038	f6 c4 44	 test	 ah, 68			; 00000044H
  0003b	7a 14		 jp	 SHORT $LN2@SetAmbient
  0003d	8b 45 fc	 mov	 eax, DWORD PTR _this$[ebp]
  00040	f3 0f 10 40 3c	 movss	 xmm0, DWORD PTR [eax+60]
  00045	0f 2e 45 14	 ucomiss xmm0, DWORD PTR _fa$[ebp]
  00049	9f		 lahf
  0004a	f6 c4 44	 test	 ah, 68			; 00000044H
  0004d	7a 02		 jp	 SHORT $LN2@SetAmbient

; 242  : 		)
; 243  : 		return;

  0004f	eb 3e		 jmp	 SHORT $LN1@SetAmbient
$LN2@SetAmbient:

; 244  : 	m_d3dLight.Ambient.r = fr;

  00051	8b 45 fc	 mov	 eax, DWORD PTR _this$[ebp]
  00054	f3 0f 10 45 08	 movss	 xmm0, DWORD PTR _fr$[ebp]
  00059	f3 0f 11 40 30	 movss	 DWORD PTR [eax+48], xmm0

; 245  : 	m_d3dLight.Ambient.g = fg;

  0005e	8b 45 fc	 mov	 eax, DWORD PTR _this$[ebp]
  00061	f3 0f 10 45 0c	 movss	 xmm0, DWORD PTR _fg$[ebp]
  00066	f3 0f 11 40 34	 movss	 DWORD PTR [eax+52], xmm0

; 246  : 	m_d3dLight.Ambient.b = fb;

  0006b	8b 45 fc	 mov	 eax, DWORD PTR _this$[ebp]
  0006e	f3 0f 10 45 10	 movss	 xmm0, DWORD PTR _fb$[ebp]
  00073	f3 0f 11 40 38	 movss	 DWORD PTR [eax+56], xmm0

; 247  : 	m_d3dLight.Ambient.a = fa;

  00078	8b 45 fc	 mov	 eax, DWORD PTR _this$[ebp]
  0007b	f3 0f 10 45 14	 movss	 xmm0, DWORD PTR _fa$[ebp]
  00080	f3 0f 11 40 3c	 movss	 DWORD PTR [eax+60], xmm0

; 248  : 	m_isEdited = TRUE;

  00085	8b 45 fc	 mov	 eax, DWORD PTR _this$[ebp]
  00088	c7 40 74 01 00
	00 00		 mov	 DWORD PTR [eax+116], 1
$LN1@SetAmbient:

; 249  : }

  0008f	c9		 leave
  00090	c2 10 00	 ret	 16			; 00000010H
?SetAmbientColor@CLight@@QAEXMMMM@Z ENDP		; CLight::SetAmbientColor
_TEXT	ENDS
; Function compile flags: /Odspy
; File D:\Metin2 Server Files\mainline\SRC_2014\Metin2Client\EterLib\GrpLightManager.cpp
;	COMDAT ?SetDiffuseColor@CLight@@QAEXMMMM@Z
_TEXT	SEGMENT
_this$ = -4						; size = 4
_fr$ = 8						; size = 4
_fg$ = 12						; size = 4
_fb$ = 16						; size = 4
_fa$ = 20						; size = 4
?SetDiffuseColor@CLight@@QAEXMMMM@Z PROC		; CLight::SetDiffuseColor, COMDAT
; _this$ = ecx

; 222  : {

  00000	55		 push	 ebp
  00001	8b ec		 mov	 ebp, esp
  00003	51		 push	 ecx
  00004	89 4d fc	 mov	 DWORD PTR _this$[ebp], ecx

; 223  : 	if (m_d3dLight.Diffuse.r == fr
; 224  : 		&& m_d3dLight.Diffuse.g == fg
; 225  : 		&& m_d3dLight.Diffuse.b == fb
; 226  : 		&& m_d3dLight.Diffuse.a == fa

  00007	8b 45 fc	 mov	 eax, DWORD PTR _this$[ebp]
  0000a	f3 0f 10 40 10	 movss	 xmm0, DWORD PTR [eax+16]
  0000f	0f 2e 45 08	 ucomiss xmm0, DWORD PTR _fr$[ebp]
  00013	9f		 lahf
  00014	f6 c4 44	 test	 ah, 68			; 00000044H
  00017	7a 38		 jp	 SHORT $LN2@SetDiffuse
  00019	8b 45 fc	 mov	 eax, DWORD PTR _this$[ebp]
  0001c	f3 0f 10 40 14	 movss	 xmm0, DWORD PTR [eax+20]
  00021	0f 2e 45 0c	 ucomiss xmm0, DWORD PTR _fg$[ebp]
  00025	9f		 lahf
  00026	f6 c4 44	 test	 ah, 68			; 00000044H
  00029	7a 26		 jp	 SHORT $LN2@SetDiffuse
  0002b	8b 45 fc	 mov	 eax, DWORD PTR _this$[ebp]
  0002e	f3 0f 10 40 18	 movss	 xmm0, DWORD PTR [eax+24]
  00033	0f 2e 45 10	 ucomiss xmm0, DWORD PTR _fb$[ebp]
  00037	9f		 lahf
  00038	f6 c4 44	 test	 ah, 68			; 00000044H
  0003b	7a 14		 jp	 SHORT $LN2@SetDiffuse
  0003d	8b 45 fc	 mov	 eax, DWORD PTR _this$[ebp]
  00040	f3 0f 10 40 1c	 movss	 xmm0, DWORD PTR [eax+28]
  00045	0f 2e 45 14	 ucomiss xmm0, DWORD PTR _fa$[ebp]
  00049	9f		 lahf
  0004a	f6 c4 44	 test	 ah, 68			; 00000044H
  0004d	7a 02		 jp	 SHORT $LN2@SetDiffuse

; 227  : 		)
; 228  : 		return;	

  0004f	eb 3e		 jmp	 SHORT $LN1@SetDiffuse
$LN2@SetDiffuse:

; 229  : 	m_d3dLight.Diffuse.r = fr;

  00051	8b 45 fc	 mov	 eax, DWORD PTR _this$[ebp]
  00054	f3 0f 10 45 08	 movss	 xmm0, DWORD PTR _fr$[ebp]
  00059	f3 0f 11 40 10	 movss	 DWORD PTR [eax+16], xmm0

; 230  : 	m_d3dLight.Diffuse.g = fg;

  0005e	8b 45 fc	 mov	 eax, DWORD PTR _this$[ebp]
  00061	f3 0f 10 45 0c	 movss	 xmm0, DWORD PTR _fg$[ebp]
  00066	f3 0f 11 40 14	 movss	 DWORD PTR [eax+20], xmm0

; 231  : 	m_d3dLight.Diffuse.b = fb;

  0006b	8b 45 fc	 mov	 eax, DWORD PTR _this$[ebp]
  0006e	f3 0f 10 45 10	 movss	 xmm0, DWORD PTR _fb$[ebp]
  00073	f3 0f 11 40 18	 movss	 DWORD PTR [eax+24], xmm0

; 232  : 	m_d3dLight.Diffuse.a = fa;

  00078	8b 45 fc	 mov	 eax, DWORD PTR _this$[ebp]
  0007b	f3 0f 10 45 14	 movss	 xmm0, DWORD PTR _fa$[ebp]
  00080	f3 0f 11 40 1c	 movss	 DWORD PTR [eax+28], xmm0

; 233  : 	m_isEdited = TRUE;

  00085	8b 45 fc	 mov	 eax, DWORD PTR _this$[ebp]
  00088	c7 40 74 01 00
	00 00		 mov	 DWORD PTR [eax+116], 1
$LN1@SetDiffuse:

; 234  : }

  0008f	c9		 leave
  00090	c2 10 00	 ret	 16			; 00000010H
?SetDiffuseColor@CLight@@QAEXMMMM@Z ENDP		; CLight::SetDiffuseColor
_TEXT	ENDS
; Function compile flags: /Odspy
; File D:\Metin2 Server Files\mainline\SRC_2014\Metin2Client\EterLib\GrpLightManager.cpp
;	COMDAT ?SetDeviceLight@CLight@@QAEXH@Z
_TEXT	SEGMENT
_this$ = -4						; size = 4
_bActive$ = 8						; size = 4
?SetDeviceLight@CLight@@QAEXH@Z PROC			; CLight::SetDeviceLight, COMDAT
; _this$ = ecx

; 203  : {

  00000	55		 push	 ebp
  00001	8b ec		 mov	 ebp, esp
  00003	51		 push	 ecx
  00004	89 4d fc	 mov	 DWORD PTR _this$[ebp], ecx

; 204  : 	if (bActive && m_isEdited)

  00007	83 7d 08 00	 cmp	 DWORD PTR _bActive$[ebp], 0
  0000b	74 32		 je	 SHORT $LN2@SetDeviceL
  0000d	8b 45 fc	 mov	 eax, DWORD PTR _this$[ebp]
  00010	83 78 74 00	 cmp	 DWORD PTR [eax+116], 0
  00014	74 29		 je	 SHORT $LN2@SetDeviceL

; 205  : 	{
; 206  : 		if (ms_lpd3dDevice)

  00016	83 3d 00 00 00
	00 00		 cmp	 DWORD PTR ?ms_lpd3dDevice@CGraphicBase@@1PAUIDirect3DDevice8@@A, 0 ; CGraphicBase::ms_lpd3dDevice
  0001d	74 20		 je	 SHORT $LN2@SetDeviceL

; 207  : 			ms_lpd3dDevice->SetLight(m_LightID, &m_d3dLight);

  0001f	8b 45 fc	 mov	 eax, DWORD PTR _this$[ebp]
  00022	83 c0 0c	 add	 eax, 12			; 0000000cH
  00025	50		 push	 eax
  00026	8b 45 fc	 mov	 eax, DWORD PTR _this$[ebp]
  00029	ff 70 08	 push	 DWORD PTR [eax+8]
  0002c	a1 00 00 00 00	 mov	 eax, DWORD PTR ?ms_lpd3dDevice@CGraphicBase@@1PAUIDirect3DDevice8@@A ; CGraphicBase::ms_lpd3dDevice
  00031	8b 00		 mov	 eax, DWORD PTR [eax]
  00033	ff 35 00 00 00
	00		 push	 DWORD PTR ?ms_lpd3dDevice@CGraphicBase@@1PAUIDirect3DDevice8@@A ; CGraphicBase::ms_lpd3dDevice
  00039	ff 90 b0 00 00
	00		 call	 DWORD PTR [eax+176]
$LN2@SetDeviceL:

; 208  : 	}
; 209  : 	if (ms_lpd3dDevice)

  0003f	83 3d 00 00 00
	00 00		 cmp	 DWORD PTR ?ms_lpd3dDevice@CGraphicBase@@1PAUIDirect3DDevice8@@A, 0 ; CGraphicBase::ms_lpd3dDevice
  00046	74 1c		 je	 SHORT $LN1@SetDeviceL

; 210  : 	{
; 211  : 		ms_lpd3dDevice->LightEnable(m_LightID, bActive);

  00048	ff 75 08	 push	 DWORD PTR _bActive$[ebp]
  0004b	8b 45 fc	 mov	 eax, DWORD PTR _this$[ebp]
  0004e	ff 70 08	 push	 DWORD PTR [eax+8]
  00051	a1 00 00 00 00	 mov	 eax, DWORD PTR ?ms_lpd3dDevice@CGraphicBase@@1PAUIDirect3DDevice8@@A ; CGraphicBase::ms_lpd3dDevice
  00056	8b 00		 mov	 eax, DWORD PTR [eax]
  00058	ff 35 00 00 00
	00		 push	 DWORD PTR ?ms_lpd3dDevice@CGraphicBase@@1PAUIDirect3DDevice8@@A ; CGraphicBase::ms_lpd3dDevice
  0005e	ff 90 b8 00 00
	00		 call	 DWORD PTR [eax+184]
$LN1@SetDeviceL:

; 212  : 	}
; 213  : }

  00064	c9		 leave
  00065	c2 04 00	 ret	 4
?SetDeviceLight@CLight@@QAEXH@Z ENDP			; CLight::SetDeviceLight
_TEXT	ENDS
; Function compile flags: /Odspy
; File D:\Metin2 Server Files\mainline\SRC_2014\Metin2Client\EterLib\GrpLightManager.cpp
;	COMDAT ?SetDistance@CLight@@QAEXM@Z
_TEXT	SEGMENT
_this$ = -4						; size = 4
_fDistance$ = 8						; size = 4
?SetDistance@CLight@@QAEXM@Z PROC			; CLight::SetDistance, COMDAT
; _this$ = ecx

; 277  : {

  00000	55		 push	 ebp
  00001	8b ec		 mov	 ebp, esp
  00003	51		 push	 ecx
  00004	89 4d fc	 mov	 DWORD PTR _this$[ebp], ecx

; 278  : 	m_fDistance = fDistance;

  00007	8b 45 fc	 mov	 eax, DWORD PTR _this$[ebp]
  0000a	f3 0f 10 45 08	 movss	 xmm0, DWORD PTR _fDistance$[ebp]
  0000f	f3 0f 11 40 78	 movss	 DWORD PTR [eax+120], xmm0

; 279  : }

  00014	c9		 leave
  00015	c2 04 00	 ret	 4
?SetDistance@CLight@@QAEXM@Z ENDP			; CLight::SetDistance
_TEXT	ENDS
; Function compile flags: /Odspy
; File D:\Metin2 Server Files\mainline\SRC_2014\Metin2Client\EterLib\GrpLightManager.cpp
;	COMDAT ?SetParameter@CLight@@QAEXKABU_D3DLIGHT8@@@Z
_TEXT	SEGMENT
_this$ = -4						; size = 4
_id$ = 8						; size = 4
_c_rLight$ = 12						; size = 4
?SetParameter@CLight@@QAEXKABU_D3DLIGHT8@@@Z PROC	; CLight::SetParameter, COMDAT
; _this$ = ecx

; 216  : {

  00000	55		 push	 ebp
  00001	8b ec		 mov	 ebp, esp
  00003	51		 push	 ecx
  00004	56		 push	 esi
  00005	57		 push	 edi
  00006	89 4d fc	 mov	 DWORD PTR _this$[ebp], ecx

; 217  : 	m_LightID	= id;

  00009	8b 45 fc	 mov	 eax, DWORD PTR _this$[ebp]
  0000c	8b 4d 08	 mov	 ecx, DWORD PTR _id$[ebp]
  0000f	89 48 08	 mov	 DWORD PTR [eax+8], ecx

; 218  : 	m_d3dLight	= c_rLight;

  00012	8b 7d fc	 mov	 edi, DWORD PTR _this$[ebp]
  00015	83 c7 0c	 add	 edi, 12			; 0000000cH
  00018	6a 1a		 push	 26			; 0000001aH
  0001a	59		 pop	 ecx
  0001b	8b 75 0c	 mov	 esi, DWORD PTR _c_rLight$[ebp]
  0001e	f3 a5		 rep movsd

; 219  : }

  00020	5f		 pop	 edi
  00021	5e		 pop	 esi
  00022	c9		 leave
  00023	c2 08 00	 ret	 8
?SetParameter@CLight@@QAEXKABU_D3DLIGHT8@@@Z ENDP	; CLight::SetParameter
_TEXT	ENDS
; Function compile flags: /Odspy
; File D:\Metin2 Server Files\mainline\SRC_2014\Metin2Client\EterLib\GrpLightManager.cpp
; File D:\Metin2 Server Files\mainline\SRC_2014\Metin2Client\EterLib\Util.h
; File D:\Metin2 Server Files\mainline\SRC_2014\Metin2Client\EterLib\GrpLightManager.cpp
; File D:\Metin2 Server Files\mainline\SRC_2014\Metin2Client\EterLib\Util.h
; File D:\Metin2 Server Files\mainline\SRC_2014\Metin2Client\EterLib\GrpLightManager.cpp
; File D:\Metin2 Server Files\mainline\SRC_2014\Metin2Client\EterLib\Util.h
; File D:\Metin2 Server Files\mainline\SRC_2014\Metin2Client\EterLib\GrpLightManager.cpp
; File D:\Metin2 Server Files\mainline\SRC_2014\M2Data\include\d3dx8math.inl
; File D:\Metin2 Server Files\mainline\SRC_2014\Metin2Client\EterLib\Util.h
; File D:\Metin2 Server Files\mainline\SRC_2014\Metin2Client\EterLib\GrpLightManager.cpp
; File D:\Metin2 Server Files\mainline\SRC_2014\Metin2Client\EterLib\Util.h
; File D:\Metin2 Server Files\mainline\SRC_2014\Metin2Client\EterLib\GrpLightManager.cpp
; File D:\Metin2 Server Files\mainline\SRC_2014\Metin2Client\EterLib\Util.h
; File D:\Metin2 Server Files\mainline\SRC_2014\Metin2Client\EterLib\GrpLightManager.cpp
; File D:\Metin2 Server Files\mainline\SRC_2014\Metin2Client\EterLib\Util.h
; File D:\Metin2 Server Files\mainline\SRC_2014\Metin2Client\EterLib\GrpLightManager.cpp
; File D:\Metin2 Server Files\mainline\SRC_2014\M2Data\include\d3dx8math.inl
; File D:\Metin2 Server Files\mainline\SRC_2014\Metin2Client\EterLib\Util.h
; File D:\Metin2 Server Files\mainline\SRC_2014\Metin2Client\EterLib\GrpLightManager.cpp
; File D:\Metin2 Server Files\mainline\SRC_2014\Metin2Client\EterLib\Util.h
; File D:\Metin2 Server Files\mainline\SRC_2014\Metin2Client\EterLib\GrpLightManager.cpp
; File D:\Metin2 Server Files\mainline\SRC_2014\Metin2Client\EterLib\Util.h
; File D:\Metin2 Server Files\mainline\SRC_2014\Metin2Client\EterLib\GrpLightManager.cpp
; File D:\Metin2 Server Files\mainline\SRC_2014\Metin2Client\EterLib\Util.h
; File D:\Metin2 Server Files\mainline\SRC_2014\Metin2Client\EterLib\GrpLightManager.cpp
;	COMDAT ?Update@CLight@@QAEXXZ
_TEXT	SEGMENT
_Color$1 = -104						; size = 16
$T2 = -88						; size = 16
_Color$3 = -72						; size = 16
$T4 = -56						; size = 16
_fRange$5 = -40						; size = 4
$T6 = -36						; size = 4
$T7 = -32						; size = 4
$T8 = -28						; size = 4
$T9 = -24						; size = 4
$T10 = -20						; size = 4
$T11 = -16						; size = 4
_c$ = -12						; size = 4
_c$ = -8						; size = 4
_this$ = -4						; size = 4
?Update@CLight@@QAEXXZ PROC				; CLight::Update, COMDAT
; _this$ = ecx

; 299  : {

  00000	55		 push	 ebp
  00001	8b ec		 mov	 ebp, esp
  00003	83 ec 68	 sub	 esp, 104		; 00000068H
  00006	56		 push	 esi
  00007	57		 push	 edi
  00008	89 4d fc	 mov	 DWORD PTR _this$[ebp], ecx
; File D:\Metin2 Server Files\mainline\SRC_2014\Metin2Client\EterLib\Util.h

; 30   : 			if (fcurTime >= m_fEndTime)

  0000b	8b 45 fc	 mov	 eax, DWORD PTR _this$[ebp]
  0000e	f3 0f 10 05 00
	00 00 00	 movss	 xmm0, DWORD PTR ?ms_fCurTime@CLightBase@@1MA
  00016	0f 2f 80 b8 00
	00 00		 comiss	 xmm0, DWORD PTR [eax+184]
  0001d	72 06		 jb	 SHORT $LN13@Update

; 31   : 				return FALSE;

  0001f	83 65 f0 00	 and	 DWORD PTR $T11[ebp], 0
  00023	eb 07		 jmp	 SHORT $LN12@Update
$LN13@Update:

; 32   : 
; 33   : 			return TRUE;

  00025	c7 45 f0 01 00
	00 00		 mov	 DWORD PTR $T11[ebp], 1
$LN12@Update:
; File D:\Metin2 Server Files\mainline\SRC_2014\Metin2Client\EterLib\GrpLightManager.cpp

; 300  : 	if (m_AmbientColorTransitor.isActiveTime(ms_fCurTime))

  0002c	83 7d f0 00	 cmp	 DWORD PTR $T11[ebp], 0
  00030	0f 84 c1 00 00
	00		 je	 $LN4@Update
; File D:\Metin2 Server Files\mainline\SRC_2014\Metin2Client\EterLib\Util.h

; 25   : 			return m_bActivated;

  00036	8b 45 fc	 mov	 eax, DWORD PTR _this$[ebp]
  00039	8b 80 b0 00 00
	00		 mov	 eax, DWORD PTR [eax+176]
  0003f	89 45 e4	 mov	 DWORD PTR $T8[ebp], eax
; File D:\Metin2 Server Files\mainline\SRC_2014\Metin2Client\EterLib\GrpLightManager.cpp

; 302  : 		if (!m_AmbientColorTransitor.isActive())

  00042	83 7d e4 00	 cmp	 DWORD PTR $T8[ebp], 0
  00046	75 5b		 jne	 SHORT $LN3@Update
; File D:\Metin2 Server Files\mainline\SRC_2014\Metin2Client\EterLib\Util.h

; 20   : 			m_bActivated = bActive;

  00048	8b 45 fc	 mov	 eax, DWORD PTR _this$[ebp]
  0004b	c7 80 b0 00 00
	00 01 00 00 00	 mov	 DWORD PTR [eax+176], 1
; File D:\Metin2 Server Files\mainline\SRC_2014\Metin2Client\EterLib\GrpLightManager.cpp

; 305  : 			m_AmbientColorTransitor.SetSourceValue(m_d3dLight.Ambient);

  00055	8b 45 fc	 mov	 eax, DWORD PTR _this$[ebp]
  00058	83 c0 30	 add	 eax, 48			; 00000030H
  0005b	89 45 f8	 mov	 DWORD PTR _c$[ebp], eax
; File D:\Metin2 Server Files\mainline\SRC_2014\M2Data\include\d3dx8math.inl

; 911  :     r = c.r;

  0005e	8b 45 f8	 mov	 eax, DWORD PTR _c$[ebp]
  00061	f3 0f 10 00	 movss	 xmm0, DWORD PTR [eax]
  00065	f3 0f 11 45 c8	 movss	 DWORD PTR $T4[ebp], xmm0

; 912  :     g = c.g;

  0006a	8b 45 f8	 mov	 eax, DWORD PTR _c$[ebp]
  0006d	f3 0f 10 40 04	 movss	 xmm0, DWORD PTR [eax+4]
  00072	f3 0f 11 45 cc	 movss	 DWORD PTR $T4[ebp+4], xmm0

; 913  :     b = c.b;

  00077	8b 45 f8	 mov	 eax, DWORD PTR _c$[ebp]
  0007a	f3 0f 10 40 08	 movss	 xmm0, DWORD PTR [eax+8]
  0007f	f3 0f 11 45 d0	 movss	 DWORD PTR $T4[ebp+8], xmm0

; 914  :     a = c.a;

  00084	8b 45 f8	 mov	 eax, DWORD PTR _c$[ebp]
  00087	f3 0f 10 40 0c	 movss	 xmm0, DWORD PTR [eax+12]
  0008c	f3 0f 11 45 d4	 movss	 DWORD PTR $T4[ebp+12], xmm0
; File D:\Metin2 Server Files\mainline\SRC_2014\Metin2Client\EterLib\Util.h

; 48   : 			m_SourceValue = c_rSourceValue;

  00091	8b 7d fc	 mov	 edi, DWORD PTR _this$[ebp]
  00094	81 c7 bc 00 00
	00		 add	 edi, 188		; 000000bcH
  0009a	8d 75 c8	 lea	 esi, DWORD PTR $T4[ebp]
  0009d	a5		 movsd
  0009e	a5		 movsd
  0009f	a5		 movsd
  000a0	a5		 movsd
; File D:\Metin2 Server Files\mainline\SRC_2014\Metin2Client\EterLib\GrpLightManager.cpp

; 306  : 		}

  000a1	eb 54		 jmp	 SHORT $LN4@Update
$LN3@Update:

; 307  : 		else
; 308  : 		{
; 309  : 			D3DXCOLOR Color;
; 310  : 
; 311  : 			m_AmbientColorTransitor.GetValue(ms_fCurTime, &Color);

  000a3	8d 45 b8	 lea	 eax, DWORD PTR _Color$3[ebp]
  000a6	50		 push	 eax
  000a7	51		 push	 ecx
  000a8	f3 0f 10 05 00
	00 00 00	 movss	 xmm0, DWORD PTR ?ms_fCurTime@CLightBase@@1MA
  000b0	f3 0f 11 04 24	 movss	 DWORD PTR [esp], xmm0
  000b5	8b 4d fc	 mov	 ecx, DWORD PTR _this$[ebp]
  000b8	81 c1 ac 00 00
	00		 add	 ecx, 172		; 000000acH
  000be	e8 00 00 00 00	 call	 ?GetValue@?$CTransitor@UD3DXCOLOR@@@@QAEHMPAUD3DXCOLOR@@@Z ; CTransitor<D3DXCOLOR>::GetValue

; 312  : 			SetAmbientColor(Color.r, Color.g, Color.b, Color.a);

  000c3	51		 push	 ecx
  000c4	f3 0f 10 45 c4	 movss	 xmm0, DWORD PTR _Color$3[ebp+12]
  000c9	f3 0f 11 04 24	 movss	 DWORD PTR [esp], xmm0
  000ce	51		 push	 ecx
  000cf	f3 0f 10 45 c0	 movss	 xmm0, DWORD PTR _Color$3[ebp+8]
  000d4	f3 0f 11 04 24	 movss	 DWORD PTR [esp], xmm0
  000d9	51		 push	 ecx
  000da	f3 0f 10 45 bc	 movss	 xmm0, DWORD PTR _Color$3[ebp+4]
  000df	f3 0f 11 04 24	 movss	 DWORD PTR [esp], xmm0
  000e4	51		 push	 ecx
  000e5	f3 0f 10 45 b8	 movss	 xmm0, DWORD PTR _Color$3[ebp]
  000ea	f3 0f 11 04 24	 movss	 DWORD PTR [esp], xmm0
  000ef	8b 4d fc	 mov	 ecx, DWORD PTR _this$[ebp]
  000f2	e8 00 00 00 00	 call	 ?SetAmbientColor@CLight@@QAEXMMMM@Z ; CLight::SetAmbientColor
$LN4@Update:
; File D:\Metin2 Server Files\mainline\SRC_2014\Metin2Client\EterLib\Util.h

; 30   : 			if (fcurTime >= m_fEndTime)

  000f7	8b 45 fc	 mov	 eax, DWORD PTR _this$[ebp]
  000fa	f3 0f 10 05 00
	00 00 00	 movss	 xmm0, DWORD PTR ?ms_fCurTime@CLightBase@@1MA
  00102	0f 2f 80 88 00
	00 00		 comiss	 xmm0, DWORD PTR [eax+136]
  00109	72 06		 jb	 SHORT $LN41@Update

; 31   : 				return FALSE;

  0010b	83 65 ec 00	 and	 DWORD PTR $T10[ebp], 0
  0010f	eb 07		 jmp	 SHORT $LN40@Update
$LN41@Update:

; 32   : 
; 33   : 			return TRUE;

  00111	c7 45 ec 01 00
	00 00		 mov	 DWORD PTR $T10[ebp], 1
$LN40@Update:
; File D:\Metin2 Server Files\mainline\SRC_2014\Metin2Client\EterLib\GrpLightManager.cpp

; 316  : 	if (m_DiffuseColorTransitor.isActiveTime(ms_fCurTime))

  00118	83 7d ec 00	 cmp	 DWORD PTR $T10[ebp], 0
  0011c	0f 84 be 00 00
	00		 je	 $LN7@Update
; File D:\Metin2 Server Files\mainline\SRC_2014\Metin2Client\EterLib\Util.h

; 25   : 			return m_bActivated;

  00122	8b 45 fc	 mov	 eax, DWORD PTR _this$[ebp]
  00125	8b 80 80 00 00
	00		 mov	 eax, DWORD PTR [eax+128]
  0012b	89 45 e0	 mov	 DWORD PTR $T7[ebp], eax
; File D:\Metin2 Server Files\mainline\SRC_2014\Metin2Client\EterLib\GrpLightManager.cpp

; 318  : 		if (!m_DiffuseColorTransitor.isActive())

  0012e	83 7d e0 00	 cmp	 DWORD PTR $T7[ebp], 0
  00132	75 5b		 jne	 SHORT $LN6@Update
; File D:\Metin2 Server Files\mainline\SRC_2014\Metin2Client\EterLib\Util.h

; 20   : 			m_bActivated = bActive;

  00134	8b 45 fc	 mov	 eax, DWORD PTR _this$[ebp]
  00137	c7 80 80 00 00
	00 01 00 00 00	 mov	 DWORD PTR [eax+128], 1
; File D:\Metin2 Server Files\mainline\SRC_2014\Metin2Client\EterLib\GrpLightManager.cpp

; 321  : 			m_DiffuseColorTransitor.SetSourceValue(m_d3dLight.Diffuse);

  00141	8b 45 fc	 mov	 eax, DWORD PTR _this$[ebp]
  00144	83 c0 10	 add	 eax, 16			; 00000010H
  00147	89 45 f4	 mov	 DWORD PTR _c$[ebp], eax
; File D:\Metin2 Server Files\mainline\SRC_2014\M2Data\include\d3dx8math.inl

; 911  :     r = c.r;

  0014a	8b 45 f4	 mov	 eax, DWORD PTR _c$[ebp]
  0014d	f3 0f 10 00	 movss	 xmm0, DWORD PTR [eax]
  00151	f3 0f 11 45 a8	 movss	 DWORD PTR $T2[ebp], xmm0

; 912  :     g = c.g;

  00156	8b 45 f4	 mov	 eax, DWORD PTR _c$[ebp]
  00159	f3 0f 10 40 04	 movss	 xmm0, DWORD PTR [eax+4]
  0015e	f3 0f 11 45 ac	 movss	 DWORD PTR $T2[ebp+4], xmm0

; 913  :     b = c.b;

  00163	8b 45 f4	 mov	 eax, DWORD PTR _c$[ebp]
  00166	f3 0f 10 40 08	 movss	 xmm0, DWORD PTR [eax+8]
  0016b	f3 0f 11 45 b0	 movss	 DWORD PTR $T2[ebp+8], xmm0

; 914  :     a = c.a;

  00170	8b 45 f4	 mov	 eax, DWORD PTR _c$[ebp]
  00173	f3 0f 10 40 0c	 movss	 xmm0, DWORD PTR [eax+12]
  00178	f3 0f 11 45 b4	 movss	 DWORD PTR $T2[ebp+12], xmm0
; File D:\Metin2 Server Files\mainline\SRC_2014\Metin2Client\EterLib\Util.h

; 48   : 			m_SourceValue = c_rSourceValue;

  0017d	8b 7d fc	 mov	 edi, DWORD PTR _this$[ebp]
  00180	81 c7 8c 00 00
	00		 add	 edi, 140		; 0000008cH
  00186	8d 75 a8	 lea	 esi, DWORD PTR $T2[ebp]
  00189	a5		 movsd
  0018a	a5		 movsd
  0018b	a5		 movsd
  0018c	a5		 movsd
; File D:\Metin2 Server Files\mainline\SRC_2014\Metin2Client\EterLib\GrpLightManager.cpp

; 322  : 		}

  0018d	eb 51		 jmp	 SHORT $LN7@Update
$LN6@Update:

; 323  : 		else
; 324  : 		{
; 325  : 			D3DXCOLOR Color;
; 326  : 			m_DiffuseColorTransitor.GetValue(ms_fCurTime, &Color);

  0018f	8d 45 98	 lea	 eax, DWORD PTR _Color$1[ebp]
  00192	50		 push	 eax
  00193	51		 push	 ecx
  00194	f3 0f 10 05 00
	00 00 00	 movss	 xmm0, DWORD PTR ?ms_fCurTime@CLightBase@@1MA
  0019c	f3 0f 11 04 24	 movss	 DWORD PTR [esp], xmm0
  001a1	8b 4d fc	 mov	 ecx, DWORD PTR _this$[ebp]
  001a4	83 c1 7c	 add	 ecx, 124		; 0000007cH
  001a7	e8 00 00 00 00	 call	 ?GetValue@?$CTransitor@UD3DXCOLOR@@@@QAEHMPAUD3DXCOLOR@@@Z ; CTransitor<D3DXCOLOR>::GetValue

; 327  : 			SetDiffuseColor(Color.r, Color.g, Color.b, Color.a);

  001ac	51		 push	 ecx
  001ad	f3 0f 10 45 a4	 movss	 xmm0, DWORD PTR _Color$1[ebp+12]
  001b2	f3 0f 11 04 24	 movss	 DWORD PTR [esp], xmm0
  001b7	51		 push	 ecx
  001b8	f3 0f 10 45 a0	 movss	 xmm0, DWORD PTR _Color$1[ebp+8]
  001bd	f3 0f 11 04 24	 movss	 DWORD PTR [esp], xmm0
  001c2	51		 push	 ecx
  001c3	f3 0f 10 45 9c	 movss	 xmm0, DWORD PTR _Color$1[ebp+4]
  001c8	f3 0f 11 04 24	 movss	 DWORD PTR [esp], xmm0
  001cd	51		 push	 ecx
  001ce	f3 0f 10 45 98	 movss	 xmm0, DWORD PTR _Color$1[ebp]
  001d3	f3 0f 11 04 24	 movss	 DWORD PTR [esp], xmm0
  001d8	8b 4d fc	 mov	 ecx, DWORD PTR _this$[ebp]
  001db	e8 00 00 00 00	 call	 ?SetDiffuseColor@CLight@@QAEXMMMM@Z ; CLight::SetDiffuseColor
$LN7@Update:
; File D:\Metin2 Server Files\mainline\SRC_2014\Metin2Client\EterLib\Util.h

; 30   : 			if (fcurTime >= m_fEndTime)

  001e0	8b 45 fc	 mov	 eax, DWORD PTR _this$[ebp]
  001e3	f3 0f 10 05 00
	00 00 00	 movss	 xmm0, DWORD PTR ?ms_fCurTime@CLightBase@@1MA
  001eb	0f 2f 80 e8 00
	00 00		 comiss	 xmm0, DWORD PTR [eax+232]
  001f2	72 06		 jb	 SHORT $LN69@Update

; 31   : 				return FALSE;

  001f4	83 65 e8 00	 and	 DWORD PTR $T9[ebp], 0
  001f8	eb 07		 jmp	 SHORT $LN68@Update
$LN69@Update:

; 32   : 
; 33   : 			return TRUE;

  001fa	c7 45 e8 01 00
	00 00		 mov	 DWORD PTR $T9[ebp], 1
$LN68@Update:
; File D:\Metin2 Server Files\mainline\SRC_2014\Metin2Client\EterLib\GrpLightManager.cpp

; 331  : 	if (m_RangeTransitor.isActiveTime(ms_fCurTime))

  00201	83 7d e8 00	 cmp	 DWORD PTR $T9[ebp], 0
  00205	74 63		 je	 SHORT $LN10@Update
; File D:\Metin2 Server Files\mainline\SRC_2014\Metin2Client\EterLib\Util.h

; 25   : 			return m_bActivated;

  00207	8b 45 fc	 mov	 eax, DWORD PTR _this$[ebp]
  0020a	8b 80 e0 00 00
	00		 mov	 eax, DWORD PTR [eax+224]
  00210	89 45 dc	 mov	 DWORD PTR $T6[ebp], eax
; File D:\Metin2 Server Files\mainline\SRC_2014\Metin2Client\EterLib\GrpLightManager.cpp

; 333  : 		if (!m_RangeTransitor.isActive())

  00213	83 7d dc 00	 cmp	 DWORD PTR $T6[ebp], 0
  00217	75 1e		 jne	 SHORT $LN9@Update
; File D:\Metin2 Server Files\mainline\SRC_2014\Metin2Client\EterLib\Util.h

; 20   : 			m_bActivated = bActive;

  00219	8b 45 fc	 mov	 eax, DWORD PTR _this$[ebp]
  0021c	c7 80 e0 00 00
	00 01 00 00 00	 mov	 DWORD PTR [eax+224], 1

; 48   : 			m_SourceValue = c_rSourceValue;

  00226	8b 45 fc	 mov	 eax, DWORD PTR _this$[ebp]
  00229	8b 4d fc	 mov	 ecx, DWORD PTR _this$[ebp]
  0022c	8b 49 58	 mov	 ecx, DWORD PTR [ecx+88]
  0022f	89 88 ec 00 00
	00		 mov	 DWORD PTR [eax+236], ecx
; File D:\Metin2 Server Files\mainline\SRC_2014\Metin2Client\EterLib\GrpLightManager.cpp

; 337  : 		}

  00235	eb 33		 jmp	 SHORT $LN10@Update
$LN9@Update:

; 338  : 		else
; 339  : 		{
; 340  : 			float fRange;
; 341  : 			m_RangeTransitor.GetValue(ms_fCurTime, &fRange);

  00237	8d 45 d8	 lea	 eax, DWORD PTR _fRange$5[ebp]
  0023a	50		 push	 eax
  0023b	51		 push	 ecx
  0023c	f3 0f 10 05 00
	00 00 00	 movss	 xmm0, DWORD PTR ?ms_fCurTime@CLightBase@@1MA
  00244	f3 0f 11 04 24	 movss	 DWORD PTR [esp], xmm0
  00249	8b 4d fc	 mov	 ecx, DWORD PTR _this$[ebp]
  0024c	81 c1 dc 00 00
	00		 add	 ecx, 220		; 000000dcH
  00252	e8 00 00 00 00	 call	 ?GetValue@?$CTransitor@M@@QAEHMPAM@Z ; CTransitor<float>::GetValue

; 342  : 			SetRange(fRange);

  00257	51		 push	 ecx
  00258	f3 0f 10 45 d8	 movss	 xmm0, DWORD PTR _fRange$5[ebp]
  0025d	f3 0f 11 04 24	 movss	 DWORD PTR [esp], xmm0
  00262	8b 4d fc	 mov	 ecx, DWORD PTR _this$[ebp]
  00265	e8 00 00 00 00	 call	 ?SetRange@CLight@@QAEXM@Z ; CLight::SetRange
$LN10@Update:

; 343  : 		}
; 344  : 	}
; 345  : }

  0026a	5f		 pop	 edi
  0026b	5e		 pop	 esi
  0026c	c9		 leave
  0026d	c3		 ret	 0
?Update@CLight@@QAEXXZ ENDP				; CLight::Update
_TEXT	ENDS
; Function compile flags: /Odspy
; File D:\Metin2 Server Files\mainline\SRC_2014\Metin2Client\EterLib\GrpLightManager.cpp
;	COMDAT ?Clear@CLight@@QAEXXZ
_TEXT	SEGMENT
_this$ = -4						; size = 4
?Clear@CLight@@QAEXXZ PROC				; CLight::Clear, COMDAT
; _this$ = ecx

; 196  : {

  00000	55		 push	 ebp
  00001	8b ec		 mov	 ebp, esp
  00003	51		 push	 ecx
  00004	89 4d fc	 mov	 DWORD PTR _this$[ebp], ecx

; 197  : 	if (m_LightID) 

  00007	8b 45 fc	 mov	 eax, DWORD PTR _this$[ebp]
  0000a	83 78 08 00	 cmp	 DWORD PTR [eax+8], 0
  0000e	74 0a		 je	 SHORT $LN2@Clear

; 198  : 		SetDeviceLight(FALSE);

  00010	6a 00		 push	 0
  00012	8b 4d fc	 mov	 ecx, DWORD PTR _this$[ebp]
  00015	e8 00 00 00 00	 call	 ?SetDeviceLight@CLight@@QAEXH@Z ; CLight::SetDeviceLight
$LN2@Clear:

; 199  : 	Initialize();

  0001a	8b 4d fc	 mov	 ecx, DWORD PTR _this$[ebp]
  0001d	e8 00 00 00 00	 call	 ?Initialize@CLight@@QAEXXZ ; CLight::Initialize

; 200  : }

  00022	c9		 leave
  00023	c3		 ret	 0
?Clear@CLight@@QAEXXZ ENDP				; CLight::Clear
_TEXT	ENDS
; Function compile flags: /Odspy
; File D:\Metin2 Server Files\mainline\SRC_2014\Metin2Client\EterLib\GrpLightManager.cpp
;	COMDAT ?Initialize@CLight@@QAEXXZ
_TEXT	SEGMENT
_this$ = -4						; size = 4
?Initialize@CLight@@QAEXXZ PROC				; CLight::Initialize, COMDAT
; _this$ = ecx

; 182  : {

  00000	55		 push	 ebp
  00001	8b ec		 mov	 ebp, esp
  00003	51		 push	 ecx
  00004	89 4d fc	 mov	 DWORD PTR _this$[ebp], ecx

; 183  : 	m_LightID	= 0;

  00007	8b 45 fc	 mov	 eax, DWORD PTR _this$[ebp]
  0000a	83 60 08 00	 and	 DWORD PTR [eax+8], 0

; 184  : 	m_isEdited	= TRUE;

  0000e	8b 45 fc	 mov	 eax, DWORD PTR _this$[ebp]
  00011	c7 40 74 01 00
	00 00		 mov	 DWORD PTR [eax+116], 1

; 185  : 	m_fDistance	= 0.0f;

  00018	8b 45 fc	 mov	 eax, DWORD PTR _this$[ebp]
  0001b	0f 57 c0	 xorps	 xmm0, xmm0
  0001e	f3 0f 11 40 78	 movss	 DWORD PTR [eax+120], xmm0

; 186  : 
; 187  : 	memset(&m_d3dLight, 0, sizeof(m_d3dLight));

  00023	6a 68		 push	 104			; 00000068H
  00025	6a 00		 push	 0
  00027	8b 45 fc	 mov	 eax, DWORD PTR _this$[ebp]
  0002a	83 c0 0c	 add	 eax, 12			; 0000000cH
  0002d	50		 push	 eax
  0002e	e8 00 00 00 00	 call	 _memset
  00033	83 c4 0c	 add	 esp, 12			; 0000000cH

; 188  : 
; 189  : 	m_d3dLight.Type			= D3DLIGHT_POINT;

  00036	8b 45 fc	 mov	 eax, DWORD PTR _this$[ebp]
  00039	c7 40 0c 01 00
	00 00		 mov	 DWORD PTR [eax+12], 1

; 190  : 	m_d3dLight.Attenuation0	= 0.0f;

  00040	8b 45 fc	 mov	 eax, DWORD PTR _this$[ebp]
  00043	0f 57 c0	 xorps	 xmm0, xmm0
  00046	f3 0f 11 40 60	 movss	 DWORD PTR [eax+96], xmm0

; 191  : 	m_d3dLight.Attenuation1	= 1.0f;

  0004b	8b 45 fc	 mov	 eax, DWORD PTR _this$[ebp]
  0004e	f3 0f 10 05 00
	00 00 00	 movss	 xmm0, DWORD PTR __real@3f800000
  00056	f3 0f 11 40 64	 movss	 DWORD PTR [eax+100], xmm0

; 192  : 	m_d3dLight.Attenuation2	= 0.0f;

  0005b	8b 45 fc	 mov	 eax, DWORD PTR _this$[ebp]
  0005e	0f 57 c0	 xorps	 xmm0, xmm0
  00061	f3 0f 11 40 68	 movss	 DWORD PTR [eax+104], xmm0

; 193  : }

  00066	c9		 leave
  00067	c3		 ret	 0
?Initialize@CLight@@QAEXXZ ENDP				; CLight::Initialize
_TEXT	ENDS
; Function compile flags: /Odspy
; File D:\Metin2 Server Files\mainline\SRC_2014\Metin2Client\EterLib\GrpLightManager.cpp
; File D:\Metin2 Server Files\mainline\SRC_2014\Metin2Client\EterLib\GrpLightManager.h
; File D:\Metin2 Server Files\mainline\SRC_2014\Metin2Client\EterLib\GrpLightManager.cpp
;	COMDAT ??1CLight@@UAE@XZ
_TEXT	SEGMENT
_this$ = -16						; size = 4
__$EHRec$ = -12						; size = 12
??1CLight@@UAE@XZ PROC					; CLight::~CLight, COMDAT
; _this$ = ecx

; 177  : {

  00000	55		 push	 ebp
  00001	8b ec		 mov	 ebp, esp
  00003	6a ff		 push	 -1
  00005	68 00 00 00 00	 push	 __ehhandler$??1CLight@@UAE@XZ
  0000a	64 a1 00 00 00
	00		 mov	 eax, DWORD PTR fs:0
  00010	50		 push	 eax
  00011	51		 push	 ecx
  00012	a1 00 00 00 00	 mov	 eax, DWORD PTR ___security_cookie
  00017	33 c5		 xor	 eax, ebp
  00019	50		 push	 eax
  0001a	8d 45 f4	 lea	 eax, DWORD PTR __$EHRec$[ebp]
  0001d	64 a3 00 00 00
	00		 mov	 DWORD PTR fs:0, eax
  00023	89 4d f0	 mov	 DWORD PTR _this$[ebp], ecx
  00026	8b 45 f0	 mov	 eax, DWORD PTR _this$[ebp]
  00029	c7 00 00 00 00
	00		 mov	 DWORD PTR [eax], OFFSET ??_7CLight@@6BCGraphicBase@@@
  0002f	8b 45 f0	 mov	 eax, DWORD PTR _this$[ebp]
  00032	c7 40 04 00 00
	00 00		 mov	 DWORD PTR [eax+4], OFFSET ??_7CLight@@6BCLightBase@@@

; 178  : 	Clear();

  00039	8b 4d f0	 mov	 ecx, DWORD PTR _this$[ebp]
  0003c	e8 00 00 00 00	 call	 ?Clear@CLight@@QAEXXZ	; CLight::Clear
; File D:\Metin2 Server Files\mainline\SRC_2014\Metin2Client\EterLib\GrpLightManager.h

; 23   : 		virtual ~CLightBase() {};

  00041	8b 45 f0	 mov	 eax, DWORD PTR _this$[ebp]
  00044	c7 40 04 00 00
	00 00		 mov	 DWORD PTR [eax+4], OFFSET ??_7CLightBase@@6B@
; File D:\Metin2 Server Files\mainline\SRC_2014\Metin2Client\EterLib\GrpLightManager.cpp

; 179  : }

  0004b	8b 4d f0	 mov	 ecx, DWORD PTR _this$[ebp]
  0004e	e8 00 00 00 00	 call	 ??1CGraphicBase@@UAE@XZ	; CGraphicBase::~CGraphicBase
  00053	8b 4d f4	 mov	 ecx, DWORD PTR __$EHRec$[ebp]
  00056	64 89 0d 00 00
	00 00		 mov	 DWORD PTR fs:0, ecx
  0005d	59		 pop	 ecx
  0005e	c9		 leave
  0005f	c3		 ret	 0
  00060	cc		 int	 3
  00061	cc		 int	 3
  00062	cc		 int	 3
  00063	cc		 int	 3
  00064	cc		 int	 3
_TEXT	ENDS
;	COMDAT text$x
text$x	SEGMENT
__ehhandler$??1CLight@@UAE@XZ:
  00000	90		 npad	 1
  00001	90		 npad	 1
  00002	8b 54 24 08	 mov	 edx, DWORD PTR [esp+8]
  00006	8d 42 0c	 lea	 eax, DWORD PTR [edx+12]
  00009	8b 4a f8	 mov	 ecx, DWORD PTR [edx-8]
  0000c	33 c8		 xor	 ecx, eax
  0000e	e8 00 00 00 00	 call	 @__security_check_cookie@4
  00013	b8 00 00 00 00	 mov	 eax, OFFSET __ehfuncinfo$??1CLight@@UAE@XZ
  00018	e9 00 00 00 00	 jmp	 ___CxxFrameHandler3
text$x	ENDS
??1CLight@@UAE@XZ ENDP					; CLight::~CLight
; Function compile flags: /Odspy
; File D:\Metin2 Server Files\mainline\SRC_2014\Metin2Client\EterLib\GrpLightManager.cpp
; File D:\Metin2 Server Files\mainline\SRC_2014\Metin2Client\EterLib\GrpLightManager.h
; File D:\Metin2 Server Files\mainline\SRC_2014\Metin2Client\EterLib\GrpLightManager.cpp
;	COMDAT ??0CLight@@QAE@XZ
_TEXT	SEGMENT
_this$ = -20						; size = 4
_this$ = -16						; size = 4
__$EHRec$ = -12						; size = 12
??0CLight@@QAE@XZ PROC					; CLight::CLight, COMDAT
; _this$ = ecx

; 172  : {

  00000	55		 push	 ebp
  00001	8b ec		 mov	 ebp, esp
  00003	6a ff		 push	 -1
  00005	68 00 00 00 00	 push	 __ehhandler$??0CLight@@QAE@XZ
  0000a	64 a1 00 00 00
	00		 mov	 eax, DWORD PTR fs:0
  00010	50		 push	 eax
  00011	51		 push	 ecx
  00012	51		 push	 ecx
  00013	a1 00 00 00 00	 mov	 eax, DWORD PTR ___security_cookie
  00018	33 c5		 xor	 eax, ebp
  0001a	50		 push	 eax
  0001b	8d 45 f4	 lea	 eax, DWORD PTR __$EHRec$[ebp]
  0001e	64 a3 00 00 00
	00		 mov	 DWORD PTR fs:0, eax
  00024	89 4d f0	 mov	 DWORD PTR _this$[ebp], ecx
  00027	8b 4d f0	 mov	 ecx, DWORD PTR _this$[ebp]
  0002a	e8 00 00 00 00	 call	 ??0CGraphicBase@@QAE@XZ	; CGraphicBase::CGraphicBase
  0002f	83 65 fc 00	 and	 DWORD PTR __$EHRec$[ebp+8], 0
  00033	8b 45 f0	 mov	 eax, DWORD PTR _this$[ebp]
  00036	83 c0 04	 add	 eax, 4
  00039	89 45 ec	 mov	 DWORD PTR _this$[ebp], eax
; File D:\Metin2 Server Files\mainline\SRC_2014\Metin2Client\EterLib\GrpLightManager.h

; 22   : 		CLightBase() {};

  0003c	8b 45 ec	 mov	 eax, DWORD PTR _this$[ebp]
  0003f	c7 00 00 00 00
	00		 mov	 DWORD PTR [eax], OFFSET ??_7CLightBase@@6B@
; File D:\Metin2 Server Files\mainline\SRC_2014\Metin2Client\EterLib\GrpLightManager.cpp

; 172  : {

  00045	c6 45 fc 01	 mov	 BYTE PTR __$EHRec$[ebp+8], 1
  00049	8b 45 f0	 mov	 eax, DWORD PTR _this$[ebp]
  0004c	c7 00 00 00 00
	00		 mov	 DWORD PTR [eax], OFFSET ??_7CLight@@6BCGraphicBase@@@
  00052	8b 45 f0	 mov	 eax, DWORD PTR _this$[ebp]
  00055	c7 40 04 00 00
	00 00		 mov	 DWORD PTR [eax+4], OFFSET ??_7CLight@@6BCLightBase@@@
  0005c	c6 45 fc 02	 mov	 BYTE PTR __$EHRec$[ebp+8], 2
  00060	c6 45 fc 03	 mov	 BYTE PTR __$EHRec$[ebp+8], 3
  00064	c6 45 fc 04	 mov	 BYTE PTR __$EHRec$[ebp+8], 4

; 173  : 	Initialize();

  00068	8b 4d f0	 mov	 ecx, DWORD PTR _this$[ebp]
  0006b	e8 00 00 00 00	 call	 ?Initialize@CLight@@QAEXXZ ; CLight::Initialize

; 174  : }

  00070	83 4d fc ff	 or	 DWORD PTR __$EHRec$[ebp+8], -1
  00074	8b 45 f0	 mov	 eax, DWORD PTR _this$[ebp]
  00077	8b 4d f4	 mov	 ecx, DWORD PTR __$EHRec$[ebp]
  0007a	64 89 0d 00 00
	00 00		 mov	 DWORD PTR fs:0, ecx
  00081	59		 pop	 ecx
  00082	c9		 leave
  00083	c3		 ret	 0
_TEXT	ENDS
;	COMDAT text$x
text$x	SEGMENT
__unwindfunclet$??0CLight@@QAE@XZ$0:
  00000	8b 4d f0	 mov	 ecx, DWORD PTR _this$[ebp]
  00003	e9 00 00 00 00	 jmp	 ??1CGraphicBase@@UAE@XZ	; CGraphicBase::~CGraphicBase
__unwindfunclet$??0CLight@@QAE@XZ$1:
  00008	8b 4d f0	 mov	 ecx, DWORD PTR _this$[ebp]
  0000b	83 c1 04	 add	 ecx, 4
  0000e	e9 00 00 00 00	 jmp	 ??1CLightBase@@UAE@XZ	; CLightBase::~CLightBase
__unwindfunclet$??0CLight@@QAE@XZ$2:
  00013	8b 4d f0	 mov	 ecx, DWORD PTR _this$[ebp]
  00016	83 c1 7c	 add	 ecx, 124		; 0000007cH
  00019	e9 00 00 00 00	 jmp	 ??1?$CTransitor@UD3DXCOLOR@@@@QAE@XZ ; CTransitor<D3DXCOLOR>::~CTransitor<D3DXCOLOR>
__unwindfunclet$??0CLight@@QAE@XZ$3:
  0001e	8b 4d f0	 mov	 ecx, DWORD PTR _this$[ebp]
  00021	81 c1 ac 00 00
	00		 add	 ecx, 172		; 000000acH
  00027	e9 00 00 00 00	 jmp	 ??1?$CTransitor@UD3DXCOLOR@@@@QAE@XZ ; CTransitor<D3DXCOLOR>::~CTransitor<D3DXCOLOR>
__unwindfunclet$??0CLight@@QAE@XZ$4:
  0002c	8b 4d f0	 mov	 ecx, DWORD PTR _this$[ebp]
  0002f	81 c1 dc 00 00
	00		 add	 ecx, 220		; 000000dcH
  00035	e9 00 00 00 00	 jmp	 ??1?$CTransitor@M@@QAE@XZ ; CTransitor<float>::~CTransitor<float>
  0003a	cc		 int	 3
  0003b	cc		 int	 3
  0003c	cc		 int	 3
  0003d	cc		 int	 3
  0003e	cc		 int	 3
__ehhandler$??0CLight@@QAE@XZ:
  0003f	90		 npad	 1
  00040	90		 npad	 1
  00041	8b 54 24 08	 mov	 edx, DWORD PTR [esp+8]
  00045	8d 42 0c	 lea	 eax, DWORD PTR [edx+12]
  00048	8b 4a f4	 mov	 ecx, DWORD PTR [edx-12]
  0004b	33 c8		 xor	 ecx, eax
  0004d	e8 00 00 00 00	 call	 @__security_check_cookie@4
  00052	b8 00 00 00 00	 mov	 eax, OFFSET __ehfuncinfo$??0CLight@@QAE@XZ
  00057	e9 00 00 00 00	 jmp	 ___CxxFrameHandler3
text$x	ENDS
??0CLight@@QAE@XZ ENDP					; CLight::CLight
; Function compile flags: /Odspy
; File D:\Metin2 Server Files\mainline\SRC_2014\Metin2Client\EterLib\GrpLightManager.h
;	COMDAT ??_GCLightBase@@UAEPAXI@Z
_TEXT	SEGMENT
_this$ = -4						; size = 4
___flags$ = 8						; size = 4
??_GCLightBase@@UAEPAXI@Z PROC				; CLightBase::`scalar deleting destructor', COMDAT
; _this$ = ecx
  00000	55		 push	 ebp
  00001	8b ec		 mov	 ebp, esp
  00003	51		 push	 ecx
  00004	89 4d fc	 mov	 DWORD PTR _this$[ebp], ecx

; 23   : 		virtual ~CLightBase() {};

  00007	8b 45 fc	 mov	 eax, DWORD PTR _this$[ebp]
  0000a	c7 00 00 00 00
	00		 mov	 DWORD PTR [eax], OFFSET ??_7CLightBase@@6B@
  00010	8b 45 08	 mov	 eax, DWORD PTR ___flags$[ebp]
  00013	83 e0 01	 and	 eax, 1
  00016	74 0c		 je	 SHORT $LN2@scalar
  00018	6a 04		 push	 4
  0001a	ff 75 fc	 push	 DWORD PTR _this$[ebp]
  0001d	e8 00 00 00 00	 call	 ??3@YAXPAXI@Z		; operator delete
  00022	59		 pop	 ecx
  00023	59		 pop	 ecx
$LN2@scalar:
  00024	8b 45 fc	 mov	 eax, DWORD PTR _this$[ebp]
  00027	c9		 leave
  00028	c2 04 00	 ret	 4
??_GCLightBase@@UAEPAXI@Z ENDP				; CLightBase::`scalar deleting destructor'
_TEXT	ENDS
; Function compile flags: /Odspy
; File D:\Metin2 Server Files\mainline\SRC_2014\Metin2Client\EterLib\GrpLightManager.h
;	COMDAT ??1CLightBase@@UAE@XZ
_TEXT	SEGMENT
_this$ = -4						; size = 4
??1CLightBase@@UAE@XZ PROC				; CLightBase::~CLightBase, COMDAT
; _this$ = ecx

; 23   : 		virtual ~CLightBase() {};

  00000	55		 push	 ebp
  00001	8b ec		 mov	 ebp, esp
  00003	51		 push	 ecx
  00004	89 4d fc	 mov	 DWORD PTR _this$[ebp], ecx
  00007	8b 45 fc	 mov	 eax, DWORD PTR _this$[ebp]
  0000a	c7 00 00 00 00
	00		 mov	 DWORD PTR [eax], OFFSET ??_7CLightBase@@6B@
  00010	c9		 leave
  00011	c3		 ret	 0
??1CLightBase@@UAE@XZ ENDP				; CLightBase::~CLightBase
_TEXT	ENDS
; Function compile flags: /Odspy
; File C:\Program Files (x86)\Microsoft Visual Studio\2019\Community\VC\Tools\MSVC\14.28.29333\include\xmemory
;	COMDAT ??$_Allocate_manually_vector_aligned@U_Default_allocate_traits@std@@@std@@YAPAXI@Z
_TEXT	SEGMENT
__Ptr$ = -12						; size = 4
__Block_size$ = -8					; size = 4
__Ptr_container$ = -4					; size = 4
__Bytes$ = 8						; size = 4
??$_Allocate_manually_vector_aligned@U_Default_allocate_traits@std@@@std@@YAPAXI@Z PROC ; std::_Allocate_manually_vector_aligned<std::_Default_allocate_traits>, COMDAT

; 113  : __declspec(allocator) void* _Allocate_manually_vector_aligned(const size_t _Bytes) {

  00000	55		 push	 ebp
  00001	8b ec		 mov	 ebp, esp
  00003	83 ec 0c	 sub	 esp, 12			; 0000000cH

; 114  :     // allocate _Bytes manually aligned to at least _Big_allocation_alignment
; 115  :     const size_t _Block_size = _Non_user_size + _Bytes;

  00006	8b 45 08	 mov	 eax, DWORD PTR __Bytes$[ebp]
  00009	83 c0 23	 add	 eax, 35			; 00000023H
  0000c	89 45 f8	 mov	 DWORD PTR __Block_size$[ebp], eax

; 116  :     if (_Block_size <= _Bytes) {

  0000f	8b 45 f8	 mov	 eax, DWORD PTR __Block_size$[ebp]
  00012	3b 45 08	 cmp	 eax, DWORD PTR __Bytes$[ebp]
  00015	77 05		 ja	 SHORT $LN12@Allocate_m

; 117  :         _Throw_bad_array_new_length(); // add overflow

  00017	e8 00 00 00 00	 call	 ?_Throw_bad_array_new_length@std@@YAXXZ ; std::_Throw_bad_array_new_length
$LN12@Allocate_m:

; 77   :         return ::operator new(_Bytes);

  0001c	ff 75 f8	 push	 DWORD PTR __Block_size$[ebp]
  0001f	e8 00 00 00 00	 call	 ??2@YAPAXI@Z		; operator new
  00024	59		 pop	 ecx

; 118  :     }
; 119  : 
; 120  :     const uintptr_t _Ptr_container = reinterpret_cast<uintptr_t>(_Traits::_Allocate(_Block_size));

  00025	89 45 fc	 mov	 DWORD PTR __Ptr_container$[ebp], eax
$LN4@Allocate_m:

; 121  :     _STL_VERIFY(_Ptr_container != 0, "invalid argument"); // validate even in release since we're doing p[-1]

  00028	83 7d fc 00	 cmp	 DWORD PTR __Ptr_container$[ebp], 0
  0002c	74 02		 je	 SHORT $LN7@Allocate_m
  0002e	eb 09		 jmp	 SHORT $LN2@Allocate_m
$LN7@Allocate_m:
  00030	e8 00 00 00 00	 call	 __invalid_parameter_noinfo_noreturn
  00035	33 c0		 xor	 eax, eax
  00037	75 f7		 jne	 SHORT $LN7@Allocate_m
$LN2@Allocate_m:
  00039	33 c0		 xor	 eax, eax
  0003b	75 eb		 jne	 SHORT $LN4@Allocate_m

; 122  :     void* const _Ptr = reinterpret_cast<void*>((_Ptr_container + _Non_user_size) & ~(_Big_allocation_alignment - 1));

  0003d	8b 45 fc	 mov	 eax, DWORD PTR __Ptr_container$[ebp]
  00040	83 c0 23	 add	 eax, 35			; 00000023H
  00043	83 e0 e0	 and	 eax, -32		; ffffffe0H
  00046	89 45 f4	 mov	 DWORD PTR __Ptr$[ebp], eax

; 123  :     static_cast<uintptr_t*>(_Ptr)[-1] = _Ptr_container;

  00049	6a 04		 push	 4
  0004b	58		 pop	 eax
  0004c	6b c0 ff	 imul	 eax, eax, -1
  0004f	8b 4d f4	 mov	 ecx, DWORD PTR __Ptr$[ebp]
  00052	8b 55 fc	 mov	 edx, DWORD PTR __Ptr_container$[ebp]
  00055	89 14 01	 mov	 DWORD PTR [ecx+eax], edx

; 124  : 
; 125  : #ifdef _DEBUG
; 126  :     static_cast<uintptr_t*>(_Ptr)[-2] = _Big_allocation_sentinel;
; 127  : #endif // _DEBUG
; 128  :     return _Ptr;

  00058	8b 45 f4	 mov	 eax, DWORD PTR __Ptr$[ebp]
$LN11@Allocate_m:

; 129  : }

  0005b	c9		 leave
  0005c	c3		 ret	 0
??$_Allocate_manually_vector_aligned@U_Default_allocate_traits@std@@@std@@YAPAXI@Z ENDP ; std::_Allocate_manually_vector_aligned<std::_Default_allocate_traits>
_TEXT	ENDS
; Function compile flags: /Odspy
; File C:\Program Files (x86)\Microsoft Visual Studio\2019\Community\VC\Tools\MSVC\14.28.29333\include\xmemory
;	COMDAT ??$_Allocate@$07U_Default_allocate_traits@std@@$0A@@std@@YAPAXI@Z
_TEXT	SEGMENT
__Bytes$ = 8						; size = 4
??$_Allocate@$07U_Default_allocate_traits@std@@$0A@@std@@YAPAXI@Z PROC ; std::_Allocate<8,std::_Default_allocate_traits,0>, COMDAT

; 197  : __declspec(allocator) void* _Allocate(const size_t _Bytes) {

  00000	55		 push	 ebp
  00001	8b ec		 mov	 ebp, esp

; 198  :     // allocate _Bytes when !_HAS_ALIGNED_NEW || _Align <= __STDCPP_DEFAULT_NEW_ALIGNMENT__
; 199  : #if defined(_M_IX86) || defined(_M_X64)
; 200  :     if (_Bytes >= _Big_allocation_threshold) { // boost the alignment of big allocations to help autovectorization

  00003	81 7d 08 00 10
	00 00		 cmp	 DWORD PTR __Bytes$[ebp], 4096 ; 00001000H
  0000a	72 0b		 jb	 SHORT $LN2@Allocate

; 201  :         return _Allocate_manually_vector_aligned<_Traits>(_Bytes);

  0000c	ff 75 08	 push	 DWORD PTR __Bytes$[ebp]
  0000f	e8 00 00 00 00	 call	 ??$_Allocate_manually_vector_aligned@U_Default_allocate_traits@std@@@std@@YAPAXI@Z ; std::_Allocate_manually_vector_aligned<std::_Default_allocate_traits>
  00014	59		 pop	 ecx
  00015	eb 13		 jmp	 SHORT $LN1@Allocate
$LN2@Allocate:

; 202  :     }
; 203  : #endif // defined(_M_IX86) || defined(_M_X64)
; 204  : 
; 205  :     if (_Bytes != 0) {

  00017	83 7d 08 00	 cmp	 DWORD PTR __Bytes$[ebp], 0
  0001b	74 0b		 je	 SHORT $LN3@Allocate

; 77   :         return ::operator new(_Bytes);

  0001d	ff 75 08	 push	 DWORD PTR __Bytes$[ebp]
  00020	e8 00 00 00 00	 call	 ??2@YAPAXI@Z		; operator new
  00025	59		 pop	 ecx

; 206  :         return _Traits::_Allocate(_Bytes);

  00026	eb 02		 jmp	 SHORT $LN1@Allocate
$LN3@Allocate:

; 207  :     }
; 208  : 
; 209  :     return nullptr;

  00028	33 c0		 xor	 eax, eax
$LN1@Allocate:

; 210  : }

  0002a	5d		 pop	 ebp
  0002b	c3		 ret	 0
??$_Allocate@$07U_Default_allocate_traits@std@@$0A@@std@@YAPAXI@Z ENDP ; std::_Allocate<8,std::_Default_allocate_traits,0>
_TEXT	ENDS
; Function compile flags: /Odspy
; File C:\Program Files (x86)\Microsoft Visual Studio\2019\Community\VC\Tools\MSVC\14.28.29333\include\xmemory
;	COMDAT ??$_Deallocate@$07$0A@@std@@YAXPAXI@Z
_TEXT	SEGMENT
__$EHRec$ = -12						; size = 12
__Ptr$ = 8						; size = 4
__Bytes$ = 12						; size = 4
??$_Deallocate@$07$0A@@std@@YAXPAXI@Z PROC		; std::_Deallocate<8,0>, COMDAT

; 213  : void _Deallocate(void* _Ptr, size_t _Bytes) noexcept {

  00000	55		 push	 ebp
  00001	8b ec		 mov	 ebp, esp
  00003	6a ff		 push	 -1
  00005	68 00 00 00 00	 push	 __ehhandler$??$_Deallocate@$07$0A@@std@@YAXPAXI@Z
  0000a	64 a1 00 00 00
	00		 mov	 eax, DWORD PTR fs:0
  00010	50		 push	 eax
  00011	a1 00 00 00 00	 mov	 eax, DWORD PTR ___security_cookie
  00016	33 c5		 xor	 eax, ebp
  00018	50		 push	 eax
  00019	8d 45 f4	 lea	 eax, DWORD PTR __$EHRec$[ebp]
  0001c	64 a3 00 00 00
	00		 mov	 DWORD PTR fs:0, eax

; 214  :     // deallocate storage allocated by _Allocate when !_HAS_ALIGNED_NEW || _Align <= __STDCPP_DEFAULT_NEW_ALIGNMENT__
; 215  : #if defined(_M_IX86) || defined(_M_X64)
; 216  :     if (_Bytes >= _Big_allocation_threshold) { // boost the alignment of big allocations to help autovectorization

  00022	81 7d 0c 00 10
	00 00		 cmp	 DWORD PTR __Bytes$[ebp], 4096 ; 00001000H
  00029	72 0f		 jb	 SHORT $LN2@Deallocate

; 217  :         _Adjust_manually_vector_aligned(_Ptr, _Bytes);

  0002b	8d 45 0c	 lea	 eax, DWORD PTR __Bytes$[ebp]
  0002e	50		 push	 eax
  0002f	8d 45 08	 lea	 eax, DWORD PTR __Ptr$[ebp]
  00032	50		 push	 eax
  00033	e8 00 00 00 00	 call	 ?_Adjust_manually_vector_aligned@std@@YAXAAPAXAAI@Z ; std::_Adjust_manually_vector_aligned
  00038	59		 pop	 ecx
  00039	59		 pop	 ecx
$LN2@Deallocate:

; 218  :     }
; 219  : #endif // defined(_M_IX86) || defined(_M_X64)
; 220  : 
; 221  :     ::operator delete(_Ptr, _Bytes);

  0003a	ff 75 0c	 push	 DWORD PTR __Bytes$[ebp]
  0003d	ff 75 08	 push	 DWORD PTR __Ptr$[ebp]
  00040	e8 00 00 00 00	 call	 ??3@YAXPAXI@Z		; operator delete
  00045	59		 pop	 ecx
  00046	59		 pop	 ecx

; 222  : }

  00047	8b 4d f4	 mov	 ecx, DWORD PTR __$EHRec$[ebp]
  0004a	64 89 0d 00 00
	00 00		 mov	 DWORD PTR fs:0, ecx
  00051	59		 pop	 ecx
  00052	c9		 leave
  00053	c3		 ret	 0
  00054	cc		 int	 3
  00055	cc		 int	 3
  00056	cc		 int	 3
  00057	cc		 int	 3
  00058	cc		 int	 3
_TEXT	ENDS
;	COMDAT text$x
text$x	SEGMENT
__ehhandler$??$_Deallocate@$07$0A@@std@@YAXPAXI@Z:
  00000	90		 npad	 1
  00001	90		 npad	 1
  00002	8b 54 24 08	 mov	 edx, DWORD PTR [esp+8]
  00006	8d 42 0c	 lea	 eax, DWORD PTR [edx+12]
  00009	8b 4a fc	 mov	 ecx, DWORD PTR [edx-4]
  0000c	33 c8		 xor	 ecx, eax
  0000e	e8 00 00 00 00	 call	 @__security_check_cookie@4
  00013	b8 00 00 00 00	 mov	 eax, OFFSET __ehfuncinfo$??$_Deallocate@$07$0A@@std@@YAXPAXI@Z
  00018	e9 00 00 00 00	 jmp	 ___CxxFrameHandler3
text$x	ENDS
??$_Deallocate@$07$0A@@std@@YAXPAXI@Z ENDP		; std::_Deallocate<8,0>
; Function compile flags: /Odspy
; File C:\Program Files (x86)\Microsoft Visual Studio\2019\Community\VC\Tools\MSVC\14.28.29333\include\xtree
;	COMDAT ?_Throw_tree_length_error@std@@YAXXZ
_TEXT	SEGMENT
?_Throw_tree_length_error@std@@YAXXZ PROC		; std::_Throw_tree_length_error, COMDAT

; 414  : [[noreturn]] inline void _Throw_tree_length_error() {

  00000	55		 push	 ebp
  00001	8b ec		 mov	 ebp, esp

; 415  :     _Xlength_error("map/set too long");

  00003	68 00 00 00 00	 push	 OFFSET ??_C@_0BB@GCADKGJO@map?1set?5too?5long@
  00008	e8 00 00 00 00	 call	 ?_Xlength_error@std@@YAXPBD@Z ; std::_Xlength_error
$LN2@Throw_tree:

; 416  : }

  0000d	5d		 pop	 ebp
  0000e	c3		 ret	 0
?_Throw_tree_length_error@std@@YAXXZ ENDP		; std::_Throw_tree_length_error
_TEXT	ENDS
; Function compile flags: /Odspy
; File C:\Program Files (x86)\Microsoft Visual Studio\2019\Community\VC\Tools\MSVC\14.28.29333\include\xmemory
;	COMDAT ?_Adjust_manually_vector_aligned@std@@YAXAAPAXAAI@Z
_TEXT	SEGMENT
__Min_back_shift$ = -16					; size = 4
__Ptr_user$ = -12					; size = 4
__Ptr_container$ = -8					; size = 4
__Back_shift$ = -4					; size = 4
__Ptr$ = 8						; size = 4
__Bytes$ = 12						; size = 4
?_Adjust_manually_vector_aligned@std@@YAXAAPAXAAI@Z PROC ; std::_Adjust_manually_vector_aligned, COMDAT

; 132  : inline void _Adjust_manually_vector_aligned(void*& _Ptr, size_t& _Bytes) {

  00000	55		 push	 ebp
  00001	8b ec		 mov	 ebp, esp
  00003	83 ec 10	 sub	 esp, 16			; 00000010H

; 133  :     // adjust parameters from _Allocate_manually_vector_aligned to pass to operator delete
; 134  :     _Bytes += _Non_user_size;

  00006	8b 45 0c	 mov	 eax, DWORD PTR __Bytes$[ebp]
  00009	8b 00		 mov	 eax, DWORD PTR [eax]
  0000b	83 c0 23	 add	 eax, 35			; 00000023H
  0000e	8b 4d 0c	 mov	 ecx, DWORD PTR __Bytes$[ebp]
  00011	89 01		 mov	 DWORD PTR [ecx], eax

; 135  : 
; 136  :     const uintptr_t* const _Ptr_user = reinterpret_cast<uintptr_t*>(_Ptr);

  00013	8b 45 08	 mov	 eax, DWORD PTR __Ptr$[ebp]
  00016	8b 00		 mov	 eax, DWORD PTR [eax]
  00018	89 45 f4	 mov	 DWORD PTR __Ptr_user$[ebp], eax

; 137  :     const uintptr_t _Ptr_container   = _Ptr_user[-1];

  0001b	6a 04		 push	 4
  0001d	58		 pop	 eax
  0001e	6b c0 ff	 imul	 eax, eax, -1
  00021	8b 4d f4	 mov	 ecx, DWORD PTR __Ptr_user$[ebp]
  00024	8b 04 01	 mov	 eax, DWORD PTR [ecx+eax]
  00027	89 45 f8	 mov	 DWORD PTR __Ptr_container$[ebp], eax

; 138  : 
; 139  :     // If the following asserts, it likely means that we are performing
; 140  :     // an aligned delete on memory coming from an unaligned allocation.
; 141  :     _STL_ASSERT(_Ptr_user[-2] == _Big_allocation_sentinel, "invalid argument");
; 142  : 
; 143  :     // Extra paranoia on aligned allocation/deallocation; ensure _Ptr_container is
; 144  :     // in range [_Min_back_shift, _Non_user_size]
; 145  : #ifdef _DEBUG
; 146  :     constexpr uintptr_t _Min_back_shift = 2 * sizeof(void*);
; 147  : #else // ^^^ _DEBUG ^^^ // vvv !_DEBUG vvv
; 148  :     constexpr uintptr_t _Min_back_shift = sizeof(void*);

  0002a	c7 45 f0 04 00
	00 00		 mov	 DWORD PTR __Min_back_shift$[ebp], 4

; 149  : #endif // _DEBUG
; 150  :     const uintptr_t _Back_shift = reinterpret_cast<uintptr_t>(_Ptr) - _Ptr_container;

  00031	8b 45 08	 mov	 eax, DWORD PTR __Ptr$[ebp]
  00034	8b 00		 mov	 eax, DWORD PTR [eax]
  00036	2b 45 f8	 sub	 eax, DWORD PTR __Ptr_container$[ebp]
  00039	89 45 fc	 mov	 DWORD PTR __Back_shift$[ebp], eax
$LN4@Adjust_man:

; 151  :     _STL_VERIFY(_Back_shift >= _Min_back_shift && _Back_shift <= _Non_user_size, "invalid argument");

  0003c	83 7d fc 04	 cmp	 DWORD PTR __Back_shift$[ebp], 4
  00040	72 08		 jb	 SHORT $LN7@Adjust_man
  00042	83 7d fc 23	 cmp	 DWORD PTR __Back_shift$[ebp], 35 ; 00000023H
  00046	77 02		 ja	 SHORT $LN7@Adjust_man
  00048	eb 09		 jmp	 SHORT $LN2@Adjust_man
$LN7@Adjust_man:
  0004a	e8 00 00 00 00	 call	 __invalid_parameter_noinfo_noreturn
  0004f	33 c0		 xor	 eax, eax
  00051	75 f7		 jne	 SHORT $LN7@Adjust_man
$LN2@Adjust_man:
  00053	33 c0		 xor	 eax, eax
  00055	75 e5		 jne	 SHORT $LN4@Adjust_man

; 152  :     _Ptr = reinterpret_cast<void*>(_Ptr_container);

  00057	8b 45 08	 mov	 eax, DWORD PTR __Ptr$[ebp]
  0005a	8b 4d f8	 mov	 ecx, DWORD PTR __Ptr_container$[ebp]
  0005d	89 08		 mov	 DWORD PTR [eax], ecx
$LN10@Adjust_man:

; 153  : }

  0005f	c9		 leave
  00060	c3		 ret	 0
?_Adjust_manually_vector_aligned@std@@YAXAAPAXAAI@Z ENDP ; std::_Adjust_manually_vector_aligned
_TEXT	ENDS
; Function compile flags: /Odspy
; File C:\Program Files (x86)\Microsoft Visual Studio\2019\Community\VC\Tools\MSVC\14.28.29333\include\exception
;	COMDAT ?_Throw_bad_array_new_length@std@@YAXXZ
_TEXT	SEGMENT
$T1 = -12						; size = 12
?_Throw_bad_array_new_length@std@@YAXXZ PROC		; std::_Throw_bad_array_new_length, COMDAT

; 320  : [[noreturn]] inline void _Throw_bad_array_new_length() {

  00000	55		 push	 ebp
  00001	8b ec		 mov	 ebp, esp
  00003	83 ec 0c	 sub	 esp, 12			; 0000000cH

; 321  :     _THROW(bad_array_new_length{});

  00006	8d 4d f4	 lea	 ecx, DWORD PTR $T1[ebp]
  00009	e8 00 00 00 00	 call	 ??0bad_array_new_length@std@@QAE@XZ ; std::bad_array_new_length::bad_array_new_length
  0000e	68 00 00 00 00	 push	 OFFSET __TI3?AVbad_array_new_length@std@@
  00013	8d 45 f4	 lea	 eax, DWORD PTR $T1[ebp]
  00016	50		 push	 eax
  00017	e8 00 00 00 00	 call	 __CxxThrowException@8
$LN2@Throw_bad_:

; 322  : }

  0001c	c9		 leave
  0001d	c3		 ret	 0
?_Throw_bad_array_new_length@std@@YAXXZ ENDP		; std::_Throw_bad_array_new_length
_TEXT	ENDS
; Function compile flags: /Odspy
; File C:\Program Files (x86)\Microsoft Visual Studio\2019\Community\VC\Tools\MSVC\14.28.29333\include\vcruntime_exception.h
;	COMDAT ??_Gbad_array_new_length@std@@UAEPAXI@Z
_TEXT	SEGMENT
_this$ = -4						; size = 4
___flags$ = 8						; size = 4
??_Gbad_array_new_length@std@@UAEPAXI@Z PROC		; std::bad_array_new_length::`scalar deleting destructor', COMDAT
; _this$ = ecx
  00000	55		 push	 ebp
  00001	8b ec		 mov	 ebp, esp
  00003	51		 push	 ecx
  00004	89 4d fc	 mov	 DWORD PTR _this$[ebp], ecx

; 89   :     {

  00007	8b 45 fc	 mov	 eax, DWORD PTR _this$[ebp]
  0000a	c7 00 00 00 00
	00		 mov	 DWORD PTR [eax], OFFSET ??_7exception@std@@6B@

; 90   :         __std_exception_destroy(&_Data);

  00010	8b 45 fc	 mov	 eax, DWORD PTR _this$[ebp]
  00013	83 c0 04	 add	 eax, 4
  00016	50		 push	 eax
  00017	e8 00 00 00 00	 call	 ___std_exception_destroy
  0001c	59		 pop	 ecx
  0001d	8b 45 08	 mov	 eax, DWORD PTR ___flags$[ebp]
  00020	83 e0 01	 and	 eax, 1
  00023	74 0c		 je	 SHORT $LN2@scalar
  00025	6a 0c		 push	 12			; 0000000cH
  00027	ff 75 fc	 push	 DWORD PTR _this$[ebp]
  0002a	e8 00 00 00 00	 call	 ??3@YAXPAXI@Z		; operator delete
  0002f	59		 pop	 ecx
  00030	59		 pop	 ecx
$LN2@scalar:
  00031	8b 45 fc	 mov	 eax, DWORD PTR _this$[ebp]
  00034	c9		 leave
  00035	c2 04 00	 ret	 4
??_Gbad_array_new_length@std@@UAEPAXI@Z ENDP		; std::bad_array_new_length::`scalar deleting destructor'
_TEXT	ENDS
; Function compile flags: /Odspy
;	COMDAT ??0bad_array_new_length@std@@QAE@ABV01@@Z
_TEXT	SEGMENT
_this$ = -4						; size = 4
___that$ = 8						; size = 4
??0bad_array_new_length@std@@QAE@ABV01@@Z PROC		; std::bad_array_new_length::bad_array_new_length, COMDAT
; _this$ = ecx
  00000	55		 push	 ebp
  00001	8b ec		 mov	 ebp, esp
  00003	51		 push	 ecx
  00004	89 4d fc	 mov	 DWORD PTR _this$[ebp], ecx
  00007	ff 75 08	 push	 DWORD PTR ___that$[ebp]
  0000a	8b 4d fc	 mov	 ecx, DWORD PTR _this$[ebp]
  0000d	e8 00 00 00 00	 call	 ??0exception@std@@QAE@ABV01@@Z ; std::exception::exception
  00012	8b 45 fc	 mov	 eax, DWORD PTR _this$[ebp]
  00015	c7 00 00 00 00
	00		 mov	 DWORD PTR [eax], OFFSET ??_7bad_alloc@std@@6B@
  0001b	8b 45 fc	 mov	 eax, DWORD PTR _this$[ebp]
  0001e	c7 00 00 00 00
	00		 mov	 DWORD PTR [eax], OFFSET ??_7bad_array_new_length@std@@6B@
  00024	8b 45 fc	 mov	 eax, DWORD PTR _this$[ebp]
  00027	c9		 leave
  00028	c2 04 00	 ret	 4
??0bad_array_new_length@std@@QAE@ABV01@@Z ENDP		; std::bad_array_new_length::bad_array_new_length
_TEXT	ENDS
; Function compile flags: /Odspy
; File C:\Program Files (x86)\Microsoft Visual Studio\2019\Community\VC\Tools\MSVC\14.28.29333\include\vcruntime_exception.h
;	COMDAT ??1bad_array_new_length@std@@UAE@XZ
_TEXT	SEGMENT
_this$ = -4						; size = 4
??1bad_array_new_length@std@@UAE@XZ PROC		; std::bad_array_new_length::~bad_array_new_length, COMDAT
; _this$ = ecx
  00000	55		 push	 ebp
  00001	8b ec		 mov	 ebp, esp
  00003	51		 push	 ecx
  00004	89 4d fc	 mov	 DWORD PTR _this$[ebp], ecx

; 89   :     {

  00007	8b 45 fc	 mov	 eax, DWORD PTR _this$[ebp]
  0000a	c7 00 00 00 00
	00		 mov	 DWORD PTR [eax], OFFSET ??_7exception@std@@6B@

; 90   :         __std_exception_destroy(&_Data);

  00010	8b 45 fc	 mov	 eax, DWORD PTR _this$[ebp]
  00013	83 c0 04	 add	 eax, 4
  00016	50		 push	 eax
  00017	e8 00 00 00 00	 call	 ___std_exception_destroy
  0001c	59		 pop	 ecx
  0001d	c9		 leave
  0001e	c3		 ret	 0
??1bad_array_new_length@std@@UAE@XZ ENDP		; std::bad_array_new_length::~bad_array_new_length
_TEXT	ENDS
; Function compile flags: /Odspy
; File C:\Program Files (x86)\Microsoft Visual Studio\2019\Community\VC\Tools\MSVC\14.28.29333\include\vcruntime_exception.h
;	COMDAT ??0bad_array_new_length@std@@QAE@XZ
_TEXT	SEGMENT
_this$ = -4						; size = 4
??0bad_array_new_length@std@@QAE@XZ PROC		; std::bad_array_new_length::bad_array_new_length, COMDAT
; _this$ = ecx

; 141  :     {

  00000	55		 push	 ebp
  00001	8b ec		 mov	 ebp, esp
  00003	51		 push	 ecx
  00004	89 4d fc	 mov	 DWORD PTR _this$[ebp], ecx

; 66   :     {

  00007	8b 45 fc	 mov	 eax, DWORD PTR _this$[ebp]
  0000a	c7 00 00 00 00
	00		 mov	 DWORD PTR [eax], OFFSET ??_7exception@std@@6B@

; 65   :         : _Data()

  00010	33 c0		 xor	 eax, eax
  00012	8b 4d fc	 mov	 ecx, DWORD PTR _this$[ebp]
  00015	83 c1 04	 add	 ecx, 4
  00018	89 01		 mov	 DWORD PTR [ecx], eax
  0001a	89 41 04	 mov	 DWORD PTR [ecx+4], eax

; 67   :         _Data._What = _Message;

  0001d	8b 45 fc	 mov	 eax, DWORD PTR _this$[ebp]
  00020	c7 40 04 00 00
	00 00		 mov	 DWORD PTR [eax+4], OFFSET ??_C@_0BF@KINCDENJ@bad?5array?5new?5length@

; 130  :     {

  00027	8b 45 fc	 mov	 eax, DWORD PTR _this$[ebp]
  0002a	c7 00 00 00 00
	00		 mov	 DWORD PTR [eax], OFFSET ??_7bad_alloc@std@@6B@

; 141  :     {

  00030	8b 45 fc	 mov	 eax, DWORD PTR _this$[ebp]
  00033	c7 00 00 00 00
	00		 mov	 DWORD PTR [eax], OFFSET ??_7bad_array_new_length@std@@6B@

; 142  :     }

  00039	8b 45 fc	 mov	 eax, DWORD PTR _this$[ebp]
  0003c	c9		 leave
  0003d	c3		 ret	 0
??0bad_array_new_length@std@@QAE@XZ ENDP		; std::bad_array_new_length::bad_array_new_length
_TEXT	ENDS
; Function compile flags: /Odspy
; File C:\Program Files (x86)\Microsoft Visual Studio\2019\Community\VC\Tools\MSVC\14.28.29333\include\vcruntime_exception.h
;	COMDAT ??_Gbad_alloc@std@@UAEPAXI@Z
_TEXT	SEGMENT
_this$ = -4						; size = 4
___flags$ = 8						; size = 4
??_Gbad_alloc@std@@UAEPAXI@Z PROC			; std::bad_alloc::`scalar deleting destructor', COMDAT
; _this$ = ecx
  00000	55		 push	 ebp
  00001	8b ec		 mov	 ebp, esp
  00003	51		 push	 ecx
  00004	89 4d fc	 mov	 DWORD PTR _this$[ebp], ecx

; 89   :     {

  00007	8b 45 fc	 mov	 eax, DWORD PTR _this$[ebp]
  0000a	c7 00 00 00 00
	00		 mov	 DWORD PTR [eax], OFFSET ??_7exception@std@@6B@

; 90   :         __std_exception_destroy(&_Data);

  00010	8b 45 fc	 mov	 eax, DWORD PTR _this$[ebp]
  00013	83 c0 04	 add	 eax, 4
  00016	50		 push	 eax
  00017	e8 00 00 00 00	 call	 ___std_exception_destroy
  0001c	59		 pop	 ecx
  0001d	8b 45 08	 mov	 eax, DWORD PTR ___flags$[ebp]
  00020	83 e0 01	 and	 eax, 1
  00023	74 0c		 je	 SHORT $LN2@scalar
  00025	6a 0c		 push	 12			; 0000000cH
  00027	ff 75 fc	 push	 DWORD PTR _this$[ebp]
  0002a	e8 00 00 00 00	 call	 ??3@YAXPAXI@Z		; operator delete
  0002f	59		 pop	 ecx
  00030	59		 pop	 ecx
$LN2@scalar:
  00031	8b 45 fc	 mov	 eax, DWORD PTR _this$[ebp]
  00034	c9		 leave
  00035	c2 04 00	 ret	 4
??_Gbad_alloc@std@@UAEPAXI@Z ENDP			; std::bad_alloc::`scalar deleting destructor'
_TEXT	ENDS
; Function compile flags: /Odspy
;	COMDAT ??0bad_alloc@std@@QAE@ABV01@@Z
_TEXT	SEGMENT
_this$ = -4						; size = 4
___that$ = 8						; size = 4
??0bad_alloc@std@@QAE@ABV01@@Z PROC			; std::bad_alloc::bad_alloc, COMDAT
; _this$ = ecx
  00000	55		 push	 ebp
  00001	8b ec		 mov	 ebp, esp
  00003	51		 push	 ecx
  00004	89 4d fc	 mov	 DWORD PTR _this$[ebp], ecx
  00007	ff 75 08	 push	 DWORD PTR ___that$[ebp]
  0000a	8b 4d fc	 mov	 ecx, DWORD PTR _this$[ebp]
  0000d	e8 00 00 00 00	 call	 ??0exception@std@@QAE@ABV01@@Z ; std::exception::exception
  00012	8b 45 fc	 mov	 eax, DWORD PTR _this$[ebp]
  00015	c7 00 00 00 00
	00		 mov	 DWORD PTR [eax], OFFSET ??_7bad_alloc@std@@6B@
  0001b	8b 45 fc	 mov	 eax, DWORD PTR _this$[ebp]
  0001e	c9		 leave
  0001f	c2 04 00	 ret	 4
??0bad_alloc@std@@QAE@ABV01@@Z ENDP			; std::bad_alloc::bad_alloc
_TEXT	ENDS
; Function compile flags: /Odspy
; File C:\Program Files (x86)\Microsoft Visual Studio\2019\Community\VC\Tools\MSVC\14.28.29333\include\vcruntime_exception.h
;	COMDAT ??_Gexception@std@@UAEPAXI@Z
_TEXT	SEGMENT
_this$ = -4						; size = 4
___flags$ = 8						; size = 4
??_Gexception@std@@UAEPAXI@Z PROC			; std::exception::`scalar deleting destructor', COMDAT
; _this$ = ecx
  00000	55		 push	 ebp
  00001	8b ec		 mov	 ebp, esp
  00003	51		 push	 ecx
  00004	89 4d fc	 mov	 DWORD PTR _this$[ebp], ecx

; 89   :     {

  00007	8b 45 fc	 mov	 eax, DWORD PTR _this$[ebp]
  0000a	c7 00 00 00 00
	00		 mov	 DWORD PTR [eax], OFFSET ??_7exception@std@@6B@

; 90   :         __std_exception_destroy(&_Data);

  00010	8b 45 fc	 mov	 eax, DWORD PTR _this$[ebp]
  00013	83 c0 04	 add	 eax, 4
  00016	50		 push	 eax
  00017	e8 00 00 00 00	 call	 ___std_exception_destroy
  0001c	59		 pop	 ecx
  0001d	8b 45 08	 mov	 eax, DWORD PTR ___flags$[ebp]
  00020	83 e0 01	 and	 eax, 1
  00023	74 0c		 je	 SHORT $LN2@scalar
  00025	6a 0c		 push	 12			; 0000000cH
  00027	ff 75 fc	 push	 DWORD PTR _this$[ebp]
  0002a	e8 00 00 00 00	 call	 ??3@YAXPAXI@Z		; operator delete
  0002f	59		 pop	 ecx
  00030	59		 pop	 ecx
$LN2@scalar:
  00031	8b 45 fc	 mov	 eax, DWORD PTR _this$[ebp]
  00034	c9		 leave
  00035	c2 04 00	 ret	 4
??_Gexception@std@@UAEPAXI@Z ENDP			; std::exception::`scalar deleting destructor'
_TEXT	ENDS
; Function compile flags: /Odspy
; File C:\Program Files (x86)\Microsoft Visual Studio\2019\Community\VC\Tools\MSVC\14.28.29333\include\vcruntime_exception.h
;	COMDAT ?what@exception@std@@UBEPBDXZ
_TEXT	SEGMENT
tv69 = -8						; size = 4
_this$ = -4						; size = 4
?what@exception@std@@UBEPBDXZ PROC			; std::exception::what, COMDAT
; _this$ = ecx

; 94   :     {

  00000	55		 push	 ebp
  00001	8b ec		 mov	 ebp, esp
  00003	51		 push	 ecx
  00004	51		 push	 ecx
  00005	89 4d fc	 mov	 DWORD PTR _this$[ebp], ecx

; 95   :         return _Data._What ? _Data._What : "Unknown exception";

  00008	8b 45 fc	 mov	 eax, DWORD PTR _this$[ebp]
  0000b	83 78 04 00	 cmp	 DWORD PTR [eax+4], 0
  0000f	74 0b		 je	 SHORT $LN3@what
  00011	8b 45 fc	 mov	 eax, DWORD PTR _this$[ebp]
  00014	8b 40 04	 mov	 eax, DWORD PTR [eax+4]
  00017	89 45 f8	 mov	 DWORD PTR tv69[ebp], eax
  0001a	eb 07		 jmp	 SHORT $LN4@what
$LN3@what:
  0001c	c7 45 f8 00 00
	00 00		 mov	 DWORD PTR tv69[ebp], OFFSET ??_C@_0BC@EOODALEL@Unknown?5exception@
$LN4@what:
  00023	8b 45 f8	 mov	 eax, DWORD PTR tv69[ebp]

; 96   :     }

  00026	c9		 leave
  00027	c3		 ret	 0
?what@exception@std@@UBEPBDXZ ENDP			; std::exception::what
_TEXT	ENDS
; Function compile flags: /Odspy
; File C:\Program Files (x86)\Microsoft Visual Studio\2019\Community\VC\Tools\MSVC\14.28.29333\include\vcruntime_exception.h
;	COMDAT ??0exception@std@@QAE@ABV01@@Z
_TEXT	SEGMENT
_this$ = -4						; size = 4
__Other$ = 8						; size = 4
??0exception@std@@QAE@ABV01@@Z PROC			; std::exception::exception, COMDAT
; _this$ = ecx

; 72   :     {

  00000	55		 push	 ebp
  00001	8b ec		 mov	 ebp, esp
  00003	51		 push	 ecx
  00004	89 4d fc	 mov	 DWORD PTR _this$[ebp], ecx
  00007	8b 45 fc	 mov	 eax, DWORD PTR _this$[ebp]
  0000a	c7 00 00 00 00
	00		 mov	 DWORD PTR [eax], OFFSET ??_7exception@std@@6B@

; 71   :         : _Data()

  00010	33 c0		 xor	 eax, eax
  00012	8b 4d fc	 mov	 ecx, DWORD PTR _this$[ebp]
  00015	83 c1 04	 add	 ecx, 4
  00018	89 01		 mov	 DWORD PTR [ecx], eax
  0001a	89 41 04	 mov	 DWORD PTR [ecx+4], eax

; 73   :         __std_exception_copy(&_Other._Data, &_Data);

  0001d	8b 45 fc	 mov	 eax, DWORD PTR _this$[ebp]
  00020	83 c0 04	 add	 eax, 4
  00023	50		 push	 eax
  00024	8b 45 08	 mov	 eax, DWORD PTR __Other$[ebp]
  00027	83 c0 04	 add	 eax, 4
  0002a	50		 push	 eax
  0002b	e8 00 00 00 00	 call	 ___std_exception_copy
  00030	59		 pop	 ecx
  00031	59		 pop	 ecx

; 74   :     }

  00032	8b 45 fc	 mov	 eax, DWORD PTR _this$[ebp]
  00035	c9		 leave
  00036	c2 04 00	 ret	 4
??0exception@std@@QAE@ABV01@@Z ENDP			; std::exception::exception
_TEXT	ENDS
; Function compile flags: /Odspy
;	COMDAT ??_H@YGXPAXIIP6EPAX0@Z@Z
_TEXT	SEGMENT
tv66 = -4						; size = 4
___t$ = 8						; size = 4
___s$ = 12						; size = 4
___n$ = 16						; size = 4
___f$ = 20						; size = 4
??_H@YGXPAXIIP6EPAX0@Z@Z PROC				; `vector constructor iterator', COMDAT
  00000	55		 push	 ebp
  00001	8b ec		 mov	 ebp, esp
  00003	51		 push	 ecx
$LN2@vector:
  00004	8b 45 10	 mov	 eax, DWORD PTR ___n$[ebp]
  00007	89 45 fc	 mov	 DWORD PTR tv66[ebp], eax
  0000a	8b 45 10	 mov	 eax, DWORD PTR ___n$[ebp]
  0000d	48		 dec	 eax
  0000e	89 45 10	 mov	 DWORD PTR ___n$[ebp], eax
  00011	83 7d fc 00	 cmp	 DWORD PTR tv66[ebp], 0
  00015	76 11		 jbe	 SHORT $LN1@vector
  00017	8b 4d 08	 mov	 ecx, DWORD PTR ___t$[ebp]
  0001a	ff 55 14	 call	 DWORD PTR ___f$[ebp]
  0001d	8b 45 08	 mov	 eax, DWORD PTR ___t$[ebp]
  00020	03 45 0c	 add	 eax, DWORD PTR ___s$[ebp]
  00023	89 45 08	 mov	 DWORD PTR ___t$[ebp], eax
  00026	eb dc		 jmp	 SHORT $LN2@vector
$LN1@vector:
  00028	c9		 leave
  00029	c2 10 00	 ret	 16			; 00000010H
??_H@YGXPAXIIP6EPAX0@Z@Z ENDP				; `vector constructor iterator'
_TEXT	ENDS
END
