; Listing generated by Microsoft (R) Optimizing Compiler Version 19.28.29335.0 

	TITLE	D:\Metin2 Server Files\mainline\SRC_2014\Metin2Client\EterLib\GrpLightManager.cpp
	.686P
	.XMM
	include listing.inc
	.model	flat

INCLUDELIB LIBCMT
INCLUDELIB OLDNAMES

PUBLIC	?ms_fCurTime@CLightBase@@1MA			; CLightBase::ms_fCurTime
_BSS	SEGMENT
?ms_fCurTime@CLightBase@@1MA DD 01H DUP (?)		; CLightBase::ms_fCurTime
_BSS	ENDS
CONST	SEGMENT
?piecewise_construct@std@@3Upiecewise_construct_t@1@B	ORG $+1 ; std::piecewise_construct
CONST	ENDS
PUBLIC	??_H@YGXPAXIIP6EPAX0@Z@Z			; `vector constructor iterator'
PUBLIC	??0exception@std@@QAE@ABV01@@Z			; std::exception::exception
PUBLIC	?what@exception@std@@UBEPBDXZ			; std::exception::what
PUBLIC	??_Gexception@std@@UAEPAXI@Z			; std::exception::`scalar deleting destructor'
PUBLIC	??0bad_alloc@std@@QAE@ABV01@@Z			; std::bad_alloc::bad_alloc
PUBLIC	??_Gbad_alloc@std@@UAEPAXI@Z			; std::bad_alloc::`scalar deleting destructor'
PUBLIC	??0bad_array_new_length@std@@QAE@XZ		; std::bad_array_new_length::bad_array_new_length
PUBLIC	??1bad_array_new_length@std@@UAE@XZ		; std::bad_array_new_length::~bad_array_new_length
PUBLIC	??0bad_array_new_length@std@@QAE@ABV01@@Z	; std::bad_array_new_length::bad_array_new_length
PUBLIC	??_Gbad_array_new_length@std@@UAEPAXI@Z		; std::bad_array_new_length::`scalar deleting destructor'
PUBLIC	?_Throw_bad_array_new_length@std@@YAXXZ		; std::_Throw_bad_array_new_length
PUBLIC	?_Adjust_manually_vector_aligned@std@@YAXAAPAXAAI@Z ; std::_Adjust_manually_vector_aligned
PUBLIC	?_Throw_tree_length_error@std@@YAXXZ		; std::_Throw_tree_length_error
PUBLIC	??$_Deallocate@$07$0A@@std@@YAXPAXI@Z		; std::_Deallocate<8,0>
PUBLIC	??$_Allocate@$07U_Default_allocate_traits@std@@$0A@@std@@YAPAXI@Z ; std::_Allocate<8,std::_Default_allocate_traits,0>
PUBLIC	??$_Allocate_manually_vector_aligned@U_Default_allocate_traits@std@@@std@@YAPAXI@Z ; std::_Allocate_manually_vector_aligned<std::_Default_allocate_traits>
PUBLIC	??1CLightBase@@UAE@XZ				; CLightBase::~CLightBase
PUBLIC	??_GCLightBase@@UAEPAXI@Z			; CLightBase::`scalar deleting destructor'
PUBLIC	??0CLight@@QAE@XZ				; CLight::CLight
PUBLIC	??1CLight@@UAE@XZ				; CLight::~CLight
PUBLIC	?Initialize@CLight@@QAEXXZ			; CLight::Initialize
PUBLIC	?Clear@CLight@@QAEXXZ				; CLight::Clear
PUBLIC	?Update@CLight@@QAEXXZ				; CLight::Update
PUBLIC	?SetParameter@CLight@@QAEXKABU_D3DLIGHT8@@@Z	; CLight::SetParameter
PUBLIC	?SetDistance@CLight@@QAEXM@Z			; CLight::SetDistance
PUBLIC	?SetDeviceLight@CLight@@QAEXH@Z			; CLight::SetDeviceLight
PUBLIC	?SetDiffuseColor@CLight@@QAEXMMMM@Z		; CLight::SetDiffuseColor
PUBLIC	?SetAmbientColor@CLight@@QAEXMMMM@Z		; CLight::SetAmbientColor
PUBLIC	?SetRange@CLight@@QAEXM@Z			; CLight::SetRange
PUBLIC	?SetPosition@CLight@@QAEXMMM@Z			; CLight::SetPosition
PUBLIC	?GetPosition@CLight@@QBEABU_D3DVECTOR@@XZ	; CLight::GetPosition
PUBLIC	?BlendDiffuseColor@CLight@@QAEXABUD3DXCOLOR@@MM@Z ; CLight::BlendDiffuseColor
PUBLIC	?BlendAmbientColor@CLight@@QAEXABUD3DXCOLOR@@MM@Z ; CLight::BlendAmbientColor
PUBLIC	?BlendRange@CLight@@QAEXMMM@Z			; CLight::BlendRange
PUBLIC	??1?$CTransitor@UD3DXCOLOR@@@@QAE@XZ		; CTransitor<D3DXCOLOR>::~CTransitor<D3DXCOLOR>
PUBLIC	?GetValue@?$CTransitor@UD3DXCOLOR@@@@QAEHMPAUD3DXCOLOR@@@Z ; CTransitor<D3DXCOLOR>::GetValue
PUBLIC	??1?$CTransitor@M@@QAE@XZ			; CTransitor<float>::~CTransitor<float>
PUBLIC	?GetValue@?$CTransitor@M@@QAEHMPAM@Z		; CTransitor<float>::GetValue
PUBLIC	??_GCLight@@UAEPAXI@Z				; CLight::`scalar deleting destructor'
PUBLIC	??1?$CSingleton@VCLightManager@@@@UAE@XZ	; CSingleton<CLightManager>::~CSingleton<CLightManager>
PUBLIC	??_G?$CSingleton@VCLightManager@@@@UAEPAXI@Z	; CSingleton<CLightManager>::`scalar deleting destructor'
PUBLIC	??0CLightManager@@QAE@XZ			; CLightManager::CLightManager
PUBLIC	??1CLightManager@@UAE@XZ			; CLightManager::~CLightManager
PUBLIC	?Destroy@CLightManager@@QAEXXZ			; CLightManager::Destroy
PUBLIC	?Initialize@CLightManager@@QAEXXZ		; CLightManager::Initialize
PUBLIC	?Update@CLightManager@@QAEXXZ			; CLightManager::Update
PUBLIC	?FlushLight@CLightManager@@QAEXXZ		; CLightManager::FlushLight
PUBLIC	?RestoreLight@CLightManager@@QAEXXZ		; CLightManager::RestoreLight
PUBLIC	?RegisterLight@CLightManager@@QAEXW4ELightType@@PAKAAU_D3DLIGHT8@@@Z ; CLightManager::RegisterLight
PUBLIC	?GetLight@CLightManager@@QAEPAVCLight@@K@Z	; CLightManager::GetLight
PUBLIC	?DeleteLight@CLightManager@@QAEXK@Z		; CLightManager::DeleteLight
PUBLIC	?SetCenterPosition@CLightManager@@QAEXABUD3DXVECTOR3@@@Z ; CLightManager::SetCenterPosition
PUBLIC	?SetLimitLightCount@CLightManager@@QAEXK@Z	; CLightManager::SetLimitLightCount
PUBLIC	?SetSkipIndex@CLightManager@@QAEXK@Z		; CLightManager::SetSkipIndex
PUBLIC	??0?$deque@KV?$allocator@K@std@@@std@@QAE@XZ	; std::deque<unsigned long,std::allocator<unsigned long> >::deque<unsigned long,std::allocator<unsigned long> >
PUBLIC	??1?$deque@KV?$allocator@K@std@@@std@@QAE@XZ	; std::deque<unsigned long,std::allocator<unsigned long> >::~deque<unsigned long,std::allocator<unsigned long> >
PUBLIC	?_Unchecked_end@?$deque@KV?$allocator@K@std@@@std@@QAE?AV?$_Deque_unchecked_iterator@V?$_Deque_val@U?$_Deque_simple_types@K@std@@@std@@@2@XZ ; std::deque<unsigned long,std::allocator<unsigned long> >::_Unchecked_end
PUBLIC	?back@?$deque@KV?$allocator@K@std@@@std@@QAEAAKXZ ; std::deque<unsigned long,std::allocator<unsigned long> >::back
PUBLIC	?pop_back@?$deque@KV?$allocator@K@std@@@std@@QAEXXZ ; std::deque<unsigned long,std::allocator<unsigned long> >::pop_back
PUBLIC	?_Xlen@?$deque@KV?$allocator@K@std@@@std@@ABEXXZ ; std::deque<unsigned long,std::allocator<unsigned long> >::_Xlen
PUBLIC	?_Growmap@?$deque@KV?$allocator@K@std@@@std@@AAEXI@Z ; std::deque<unsigned long,std::allocator<unsigned long> >::_Growmap
PUBLIC	?_Tidy@?$deque@KV?$allocator@K@std@@@std@@AAEXXZ ; std::deque<unsigned long,std::allocator<unsigned long> >::_Tidy
PUBLIC	??0?$_Deque_val@U?$_Deque_simple_types@K@std@@@std@@QAE@XZ ; std::_Deque_val<std::_Deque_simple_types<unsigned long> >::_Deque_val<std::_Deque_simple_types<unsigned long> >
PUBLIC	??0?$_Tree@V?$_Tmap_traits@KPAVCLight@@U?$less@K@std@@V?$allocator@U?$pair@$$CBKPAVCLight@@@std@@@3@$0A@@std@@@std@@QAE@ABU?$less@K@1@@Z ; std::_Tree<std::_Tmap_traits<unsigned long,CLight *,std::less<unsigned long>,std::allocator<std::pair<unsigned long const ,CLight *> >,0> >::_Tree<std::_Tmap_traits<unsigned long,CLight *,std::less<unsigned long>,std::allocator<std::pair<unsigned long const ,CLight *> >,0> >
PUBLIC	??1?$_Tree@V?$_Tmap_traits@KPAVCLight@@U?$less@K@std@@V?$allocator@U?$pair@$$CBKPAVCLight@@@std@@@3@$0A@@std@@@std@@QAE@XZ ; std::_Tree<std::_Tmap_traits<unsigned long,CLight *,std::less<unsigned long>,std::allocator<std::pair<unsigned long const ,CLight *> >,0> >::~_Tree<std::_Tmap_traits<unsigned long,CLight *,std::less<unsigned long>,std::allocator<std::pair<unsigned long const ,CLight *> >,0> >
PUBLIC	?begin@?$_Tree@V?$_Tmap_traits@KPAVCLight@@U?$less@K@std@@V?$allocator@U?$pair@$$CBKPAVCLight@@@std@@@3@$0A@@std@@@std@@QAE?AV?$_Tree_iterator@V?$_Tree_val@U?$_Tree_simple_types@U?$pair@$$CBKPAVCLight@@@std@@@std@@@std@@@2@XZ ; std::_Tree<std::_Tmap_traits<unsigned long,CLight *,std::less<unsigned long>,std::allocator<std::pair<unsigned long const ,CLight *> >,0> >::begin
PUBLIC	?max_size@?$_Tree@V?$_Tmap_traits@KPAVCLight@@U?$less@K@std@@V?$allocator@U?$pair@$$CBKPAVCLight@@@std@@@3@$0A@@std@@@std@@QBEIXZ ; std::_Tree<std::_Tmap_traits<unsigned long,CLight *,std::less<unsigned long>,std::allocator<std::pair<unsigned long const ,CLight *> >,0> >::max_size
PUBLIC	?_Erase_unchecked@?$_Tree@V?$_Tmap_traits@KPAVCLight@@U?$less@K@std@@V?$allocator@U?$pair@$$CBKPAVCLight@@@std@@@3@$0A@@std@@@std@@AAEPAU?$_Tree_node@U?$pair@$$CBKPAVCLight@@@std@@PAX@2@V?$_Tree_unchecked_const_iterator@V?$_Tree_val@U?$_Tree_simple_types@U?$pair@$$CBKPAVCLight@@@std@@@std@@@std@@U_Iterator_base0@2@@2@@Z ; std::_Tree<std::_Tmap_traits<unsigned long,CLight *,std::less<unsigned long>,std::allocator<std::pair<unsigned long const ,CLight *> >,0> >::_Erase_unchecked
PUBLIC	?clear@?$_Tree@V?$_Tmap_traits@KPAVCLight@@U?$less@K@std@@V?$allocator@U?$pair@$$CBKPAVCLight@@@std@@@3@$0A@@std@@@std@@QAEXXZ ; std::_Tree<std::_Tmap_traits<unsigned long,CLight *,std::less<unsigned long>,std::allocator<std::pair<unsigned long const ,CLight *> >,0> >::clear
PUBLIC	?find@?$_Tree@V?$_Tmap_traits@KPAVCLight@@U?$less@K@std@@V?$allocator@U?$pair@$$CBKPAVCLight@@@std@@@3@$0A@@std@@@std@@QAE?AV?$_Tree_iterator@V?$_Tree_val@U?$_Tree_simple_types@U?$pair@$$CBKPAVCLight@@@std@@@std@@@std@@@2@ABK@Z ; std::_Tree<std::_Tmap_traits<unsigned long,CLight *,std::less<unsigned long>,std::allocator<std::pair<unsigned long const ,CLight *> >,0> >::find
PUBLIC	?_Check_grow_by_1@?$_Tree@V?$_Tmap_traits@KPAVCLight@@U?$less@K@std@@V?$allocator@U?$pair@$$CBKPAVCLight@@@std@@@3@$0A@@std@@@std@@IAEXXZ ; std::_Tree<std::_Tmap_traits<unsigned long,CLight *,std::less<unsigned long>,std::allocator<std::pair<unsigned long const ,CLight *> >,0> >::_Check_grow_by_1
PUBLIC	?_Alloc_sentinel_and_proxy@?$_Tree@V?$_Tmap_traits@KPAVCLight@@U?$less@K@std@@V?$allocator@U?$pair@$$CBKPAVCLight@@@std@@@3@$0A@@std@@@std@@IAEXXZ ; std::_Tree<std::_Tmap_traits<unsigned long,CLight *,std::less<unsigned long>,std::allocator<std::pair<unsigned long const ,CLight *> >,0> >::_Alloc_sentinel_and_proxy
PUBLIC	?_Lrotate@?$_Tree_val@U?$_Tree_simple_types@U?$pair@$$CBKPAVCLight@@@std@@@std@@@std@@QAEXPAU?$_Tree_node@U?$pair@$$CBKPAVCLight@@@std@@PAX@2@@Z ; std::_Tree_val<std::_Tree_simple_types<std::pair<unsigned long const ,CLight *> > >::_Lrotate
PUBLIC	?_Rrotate@?$_Tree_val@U?$_Tree_simple_types@U?$pair@$$CBKPAVCLight@@@std@@@std@@@std@@QAEXPAU?$_Tree_node@U?$pair@$$CBKPAVCLight@@@std@@PAX@2@@Z ; std::_Tree_val<std::_Tree_simple_types<std::pair<unsigned long const ,CLight *> > >::_Rrotate
PUBLIC	?_Extract@?$_Tree_val@U?$_Tree_simple_types@U?$pair@$$CBKPAVCLight@@@std@@@std@@@std@@QAEPAU?$_Tree_node@U?$pair@$$CBKPAVCLight@@@std@@PAX@2@V?$_Tree_unchecked_const_iterator@V?$_Tree_val@U?$_Tree_simple_types@U?$pair@$$CBKPAVCLight@@@std@@@std@@@std@@U_Iterator_base0@2@@2@@Z ; std::_Tree_val<std::_Tree_simple_types<std::pair<unsigned long const ,CLight *> > >::_Extract
PUBLIC	?_Insert_node@?$_Tree_val@U?$_Tree_simple_types@U?$pair@$$CBKPAVCLight@@@std@@@std@@@std@@QAEPAU?$_Tree_node@U?$pair@$$CBKPAVCLight@@@std@@PAX@2@U?$_Tree_id@PAU?$_Tree_node@U?$pair@$$CBKPAVCLight@@@std@@PAX@std@@@2@QAU32@@Z ; std::_Tree_val<std::_Tree_simple_types<std::pair<unsigned long const ,CLight *> > >::_Insert_node
PUBLIC	??1?$map@KPAVCLight@@U?$less@K@std@@V?$allocator@U?$pair@$$CBKPAVCLight@@@std@@@3@@std@@QAE@XZ ; std::map<unsigned long,CLight *,std::less<unsigned long>,std::allocator<std::pair<unsigned long const ,CLight *> > >::~map<unsigned long,CLight *,std::less<unsigned long>,std::allocator<std::pair<unsigned long const ,CLight *> > >
PUBLIC	?deallocate@?$allocator@PAVCLight@@@std@@QAEXQAPAVCLight@@I@Z ; std::allocator<CLight *>::deallocate
PUBLIC	??1?$vector@PAVCLight@@V?$allocator@PAVCLight@@@std@@@std@@QAE@XZ ; std::vector<CLight *,std::allocator<CLight *> >::~vector<CLight *,std::allocator<CLight *> >
PUBLIC	?_Copy_assign@?$vector@PAVCLight@@V?$allocator@PAVCLight@@@std@@@std@@AAEXABV12@U?$integral_constant@_N$0A@@2@@Z ; std::vector<CLight *,std::allocator<CLight *> >::_Copy_assign
PUBLIC	?_Clear_and_reserve_geometric@?$vector@PAVCLight@@V?$allocator@PAVCLight@@@std@@@std@@AAEXI@Z ; std::vector<CLight *,std::allocator<CLight *> >::_Clear_and_reserve_geometric
PUBLIC	?clear@?$vector@PAVCLight@@V?$allocator@PAVCLight@@@std@@@std@@QAEXXZ ; std::vector<CLight *,std::allocator<CLight *> >::clear
PUBLIC	?max_size@?$vector@PAVCLight@@V?$allocator@PAVCLight@@@std@@@std@@QBEIXZ ; std::vector<CLight *,std::allocator<CLight *> >::max_size
PUBLIC	?_Destroy@?$vector@PAVCLight@@V?$allocator@PAVCLight@@@std@@@std@@AAEXPAPAVCLight@@0@Z ; std::vector<CLight *,std::allocator<CLight *> >::_Destroy
PUBLIC	?_Calculate_growth@?$vector@PAVCLight@@V?$allocator@PAVCLight@@@std@@@std@@ABEII@Z ; std::vector<CLight *,std::allocator<CLight *> >::_Calculate_growth
PUBLIC	?_Buy_raw@?$vector@PAVCLight@@V?$allocator@PAVCLight@@@std@@@std@@AAEXI@Z ; std::vector<CLight *,std::allocator<CLight *> >::_Buy_raw
PUBLIC	?_Change_array@?$vector@PAVCLight@@V?$allocator@PAVCLight@@@std@@@std@@AAEXQAPAVCLight@@II@Z ; std::vector<CLight *,std::allocator<CLight *> >::_Change_array
PUBLIC	?_Tidy@?$vector@PAVCLight@@V?$allocator@PAVCLight@@@std@@@std@@AAEXXZ ; std::vector<CLight *,std::allocator<CLight *> >::_Tidy
PUBLIC	?_Xlength@?$vector@PAVCLight@@V?$allocator@PAVCLight@@@std@@@std@@CAXXZ ; std::vector<CLight *,std::allocator<CLight *> >::_Xlength
PUBLIC	?NewLightID@CLightManager@@IAEKXZ		; CLightManager::NewLightID
PUBLIC	?ReleaseLightID@CLightManager@@IAEXK@Z		; CLightManager::ReleaseLightID
PUBLIC	??0?$CDynamicPool@VCLight@@@@QAE@XZ		; CDynamicPool<CLight>::CDynamicPool<CLight>
PUBLIC	??1?$CDynamicPool@VCLight@@@@UAE@XZ		; CDynamicPool<CLight>::~CDynamicPool<CLight>
PUBLIC	?Destroy@?$CDynamicPool@VCLight@@@@QAEXXZ	; CDynamicPool<CLight>::Destroy
PUBLIC	?Alloc@?$CDynamicPool@VCLight@@@@QAEPAVCLight@@XZ ; CDynamicPool<CLight>::Alloc
PUBLIC	?FreeAll@?$CDynamicPool@VCLight@@@@QAEXXZ	; CDynamicPool<CLight>::FreeAll
PUBLIC	?Delete@?$CDynamicPool@VCLight@@@@KAXPAVCLight@@@Z ; CDynamicPool<CLight>::Delete
PUBLIC	??_G?$CDynamicPool@VCLight@@@@UAEPAXI@Z		; CDynamicPool<CLight>::`scalar deleting destructor'
PUBLIC	??_GCLightManager@@UAEPAXI@Z			; CLightManager::`scalar deleting destructor'
PUBLIC	??E?$_Tree_unchecked_const_iterator@V?$_Tree_val@U?$_Tree_simple_types@U?$pair@$$CBKPAVCLight@@@std@@@std@@@std@@U_Iterator_base0@2@@std@@QAEAAV01@XZ ; std::_Tree_unchecked_const_iterator<std::_Tree_val<std::_Tree_simple_types<std::pair<unsigned long const ,CLight *> > >,std::_Iterator_base0>::operator++
PUBLIC	??$erase@V?$_Tree_iterator@V?$_Tree_val@U?$_Tree_simple_types@U?$pair@$$CBKPAVCLight@@@std@@@std@@@std@@@std@@$0A@@?$_Tree@V?$_Tmap_traits@KPAVCLight@@U?$less@K@std@@V?$allocator@U?$pair@$$CBKPAVCLight@@@std@@@3@$0A@@std@@@std@@QAE?AV?$_Tree_iterator@V?$_Tree_val@U?$_Tree_simple_types@U?$pair@$$CBKPAVCLight@@@std@@@std@@@std@@@1@V21@@Z ; std::_Tree<std::_Tmap_traits<unsigned long,CLight *,std::less<unsigned long>,std::allocator<std::pair<unsigned long const ,CLight *> >,0> >::erase<std::_Tree_iterator<std::_Tree_val<std::_Tree_simple_types<std::pair<unsigned long const ,CLight *> > > >,0>
PUBLIC	??$for_each@V?$_Vector_iterator@V?$_Vector_val@U?$_Simple_types@PAVCLight@@@std@@@std@@@std@@P6AXPAVCLight@@@Z@std@@YAP6AXPAVCLight@@@ZV?$_Vector_iterator@V?$_Vector_val@U?$_Simple_types@PAVCLight@@@std@@@std@@@0@1P6AX0@Z@Z ; std::for_each<std::_Vector_iterator<std::_Vector_val<std::_Simple_types<CLight *> > >,void (__cdecl*)(CLight *)>
PUBLIC	??$emplace_back@ABQAVCLight@@@?$vector@PAVCLight@@V?$allocator@PAVCLight@@@std@@@std@@QAEXABQAVCLight@@@Z ; std::vector<CLight *,std::allocator<CLight *> >::emplace_back<CLight * const &>
PUBLIC	??$_Emplace_back_with_unused_capacity@ABQAVCLight@@@?$vector@PAVCLight@@V?$allocator@PAVCLight@@@std@@@std@@AAEXABQAVCLight@@@Z ; std::vector<CLight *,std::allocator<CLight *> >::_Emplace_back_with_unused_capacity<CLight * const &>
PUBLIC	??$_Emplace_reallocate@ABQAVCLight@@@?$vector@PAVCLight@@V?$allocator@PAVCLight@@@std@@@std@@QAEPAPAVCLight@@QAPAV2@ABQAV2@@Z ; std::vector<CLight *,std::allocator<CLight *> >::_Emplace_reallocate<CLight * const &>
PUBLIC	??$_Try_emplace@ABK$$V@?$map@KPAVCLight@@U?$less@K@std@@V?$allocator@U?$pair@$$CBKPAVCLight@@@std@@@3@@std@@AAE?AU?$pair@PAU?$_Tree_node@U?$pair@$$CBKPAVCLight@@@std@@PAX@std@@_N@1@ABK@Z ; std::map<unsigned long,CLight *,std::less<unsigned long>,std::allocator<std::pair<unsigned long const ,CLight *> > >::_Try_emplace<unsigned long const &>
PUBLIC	??$_Find@K@?$_Tree@V?$_Tmap_traits@KPAVCLight@@U?$less@K@std@@V?$allocator@U?$pair@$$CBKPAVCLight@@@std@@@3@$0A@@std@@@std@@ABEPAU?$_Tree_node@U?$pair@$$CBKPAVCLight@@@std@@PAX@1@ABK@Z ; std::_Tree<std::_Tmap_traits<unsigned long,CLight *,std::less<unsigned long>,std::allocator<std::pair<unsigned long const ,CLight *> >,0> >::_Find<unsigned long>
PUBLIC	??$_Erase_tree@V?$allocator@U?$_Tree_node@U?$pair@$$CBKPAVCLight@@@std@@PAX@std@@@std@@@?$_Tree_val@U?$_Tree_simple_types@U?$pair@$$CBKPAVCLight@@@std@@@std@@@std@@QAEXAAV?$allocator@U?$_Tree_node@U?$pair@$$CBKPAVCLight@@@std@@PAX@std@@@1@PAU?$_Tree_node@U?$pair@$$CBKPAVCLight@@@std@@PAX@1@@Z ; std::_Tree_val<std::_Tree_simple_types<std::pair<unsigned long const ,CLight *> > >::_Erase_tree<std::allocator<std::_Tree_node<std::pair<unsigned long const ,CLight *>,void *> > >
PUBLIC	??$_Emplace_back_internal@ABK@?$deque@KV?$allocator@K@std@@@std@@AAEXABK@Z ; std::deque<unsigned long,std::allocator<unsigned long> >::_Emplace_back_internal<unsigned long const &>
PUBLIC	??D?$_Deque_unchecked_const_iterator@V?$_Deque_val@U?$_Deque_simple_types@K@std@@@std@@@std@@QBEABKXZ ; std::_Deque_unchecked_const_iterator<std::_Deque_val<std::_Deque_simple_types<unsigned long> > >::operator*
PUBLIC	??$_Delete_plain_internal@V?$allocator@U_Container_proxy@std@@@std@@@std@@YAXAAV?$allocator@U_Container_proxy@std@@@0@QAU_Container_proxy@0@@Z ; std::_Delete_plain_internal<std::allocator<std::_Container_proxy> >
PUBLIC	??$_Alloc_proxy@V?$allocator@U_Container_proxy@std@@@std@@@_Container_base12@std@@QAEX$$QAV?$allocator@U_Container_proxy@std@@@1@@Z ; std::_Container_base12::_Alloc_proxy<std::allocator<std::_Container_proxy> >
PUBLIC	??$_Destroy_range@V?$allocator@PAVCLight@@@std@@@std@@YAXPAPAVCLight@@QAPAV1@AAV?$allocator@PAVCLight@@@0@@Z ; std::_Destroy_range<std::allocator<CLight *> >
PUBLIC	??$_Destroy_in_place@PAK@std@@YAXAAPAK@Z	; std::_Destroy_in_place<unsigned long *>
PUBLIC	??$_Pocca@V?$allocator@PAVCLight@@@std@@@std@@YAXAAV?$allocator@PAVCLight@@@0@ABV10@@Z ; std::_Pocca<std::allocator<CLight *> >
PUBLIC	??$_Buyheadnode@V?$allocator@U?$_Tree_node@U?$pair@$$CBKPAVCLight@@@std@@PAX@std@@@std@@@?$_Tree_node@U?$pair@$$CBKPAVCLight@@@std@@PAX@std@@SAPAU01@AAV?$allocator@U?$_Tree_node@U?$pair@$$CBKPAVCLight@@@std@@PAX@std@@@1@@Z ; std::_Tree_node<std::pair<unsigned long const ,CLight *>,void *>::_Buyheadnode<std::allocator<std::_Tree_node<std::pair<unsigned long const ,CLight *>,void *> > >
PUBLIC	??$_Sort_unchecked@PAPAVCLight@@ULightComp@@@std@@YAXPAPAVCLight@@0HULightComp@@@Z ; std::_Sort_unchecked<CLight * *,LightComp>
PUBLIC	??$_Find_lower_bound@K@?$_Tree@V?$_Tmap_traits@KPAVCLight@@U?$less@K@std@@V?$allocator@U?$pair@$$CBKPAVCLight@@@std@@@3@$0A@@std@@@std@@IBE?AU?$_Tree_find_result@PAU?$_Tree_node@U?$pair@$$CBKPAVCLight@@@std@@PAX@std@@@1@ABK@Z ; std::_Tree<std::_Tmap_traits<unsigned long,CLight *,std::less<unsigned long>,std::allocator<std::pair<unsigned long const ,CLight *> >,0> >::_Find_lower_bound<unsigned long>
PUBLIC	?_Allocate@?$_Alloc_construct_ptr@V?$allocator@U?$_Tree_node@U?$pair@$$CBKPAVCLight@@@std@@PAX@std@@@std@@@std@@QAEXXZ ; std::_Alloc_construct_ptr<std::allocator<std::_Tree_node<std::pair<unsigned long const ,CLight *>,void *> > >::_Allocate
PUBLIC	??1?$_Alloc_construct_ptr@V?$allocator@U?$_Tree_node@U?$pair@$$CBKPAVCLight@@@std@@PAX@std@@@std@@@std@@QAE@XZ ; std::_Alloc_construct_ptr<std::allocator<std::_Tree_node<std::pair<unsigned long const ,CLight *>,void *> > >::~_Alloc_construct_ptr<std::allocator<std::_Tree_node<std::pair<unsigned long const ,CLight *>,void *> > >
PUBLIC	??1?$_Tree_temp_node_alloc@V?$allocator@U?$_Tree_node@U?$pair@$$CBKPAVCLight@@@std@@PAX@std@@@std@@@std@@QAE@XZ ; std::_Tree_temp_node_alloc<std::allocator<std::_Tree_node<std::pair<unsigned long const ,CLight *>,void *> > >::~_Tree_temp_node_alloc<std::allocator<std::_Tree_node<std::pair<unsigned long const ,CLight *>,void *> > >
PUBLIC	??1?$_Tree_temp_node@V?$allocator@U?$_Tree_node@U?$pair@$$CBKPAVCLight@@@std@@PAX@std@@@std@@@std@@QAE@XZ ; std::_Tree_temp_node<std::allocator<std::_Tree_node<std::pair<unsigned long const ,CLight *>,void *> > >::~_Tree_temp_node<std::allocator<std::_Tree_node<std::pair<unsigned long const ,CLight *>,void *> > >
PUBLIC	??$?0ABUpiecewise_construct_t@std@@V?$tuple@ABK@1@V?$tuple@$$V@1@@?$_Tree_temp_node@V?$allocator@U?$_Tree_node@U?$pair@$$CBKPAVCLight@@@std@@PAX@std@@@std@@@std@@QAE@AAV?$allocator@U?$_Tree_node@U?$pair@$$CBKPAVCLight@@@std@@PAX@std@@@1@PAU?$_Tree_node@U?$pair@$$CBKPAVCLight@@@std@@PAX@1@ABUpiecewise_construct_t@1@$$QAV?$tuple@ABK@1@$$QAV?$tuple@$$V@1@@Z ; std::_Tree_temp_node<std::allocator<std::_Tree_node<std::pair<unsigned long const ,CLight *>,void *> > >::_Tree_temp_node<std::allocator<std::_Tree_node<std::pair<unsigned long const ,CLight *>,void *> > ><std::piecewise_construct_t const &,std::tuple<unsigned long const &>,std::tuple<> >
PUBLIC	??$_Freenode0@V?$allocator@U?$_Tree_node@U?$pair@$$CBKPAVCLight@@@std@@PAX@std@@@std@@@?$_Tree_node@U?$pair@$$CBKPAVCLight@@@std@@PAX@std@@SAXAAV?$allocator@U?$_Tree_node@U?$pair@$$CBKPAVCLight@@@std@@PAX@std@@@1@PAU01@@Z ; std::_Tree_node<std::pair<unsigned long const ,CLight *>,void *>::_Freenode0<std::allocator<std::_Tree_node<std::pair<unsigned long const ,CLight *>,void *> > >
PUBLIC	??$_Deallocate_plain@V?$allocator@U_Container_proxy@std@@@std@@@std@@YAXAAV?$allocator@U_Container_proxy@std@@@0@QAU_Container_proxy@0@@Z ; std::_Deallocate_plain<std::allocator<std::_Container_proxy> >
PUBLIC	??$_Construct_in_place@U_Container_proxy@std@@PAU_Container_base12@2@@std@@YAXAAU_Container_proxy@0@$$QAPAU_Container_base12@0@@Z ; std::_Construct_in_place<std::_Container_proxy,std::_Container_base12 *>
PUBLIC	??$_Assign_range@PAPAVCLight@@@?$vector@PAVCLight@@V?$allocator@PAVCLight@@@std@@@std@@AAEXPAPAVCLight@@0Uforward_iterator_tag@1@@Z ; std::vector<CLight *,std::allocator<CLight *> >::_Assign_range<CLight * *>
PUBLIC	??$_Construct_in_place@PAU?$_Tree_node@U?$pair@$$CBKPAVCLight@@@std@@PAX@std@@ABQAU12@@std@@YAXAAPAU?$_Tree_node@U?$pair@$$CBKPAVCLight@@@std@@PAX@0@ABQAU10@@Z ; std::_Construct_in_place<std::_Tree_node<std::pair<unsigned long const ,CLight *>,void *> *,std::_Tree_node<std::pair<unsigned long const ,CLight *>,void *> * const &>
PUBLIC	??$_Destroy_in_place@PAU?$_Tree_node@U?$pair@$$CBKPAVCLight@@@std@@PAX@std@@@std@@YAXAAPAU?$_Tree_node@U?$pair@$$CBKPAVCLight@@@std@@PAX@0@@Z ; std::_Destroy_in_place<std::_Tree_node<std::pair<unsigned long const ,CLight *>,void *> *>
PUBLIC	??$_Uninitialized_move@PAPAVCLight@@V?$allocator@PAVCLight@@@std@@@std@@YAPAPAVCLight@@QAPAV1@0PAPAV1@AAV?$allocator@PAVCLight@@@0@@Z ; std::_Uninitialized_move<CLight * *,std::allocator<CLight *> >
PUBLIC	??$uninitialized_copy@PAPAKPAPAK@std@@YAPAPAKQAPAK0PAPAK@Z ; std::uninitialized_copy<unsigned long * *,unsigned long * *>
PUBLIC	??$_Uninitialized_value_construct_n_unchecked1@PAPAKI@std@@YAPAPAKPAPAKI@Z ; std::_Uninitialized_value_construct_n_unchecked1<unsigned long * *,unsigned int>
PUBLIC	??$_Destroy_range@PAPAKPAPAK@std@@YAXPAPAKQAPAK@Z ; std::_Destroy_range<unsigned long * *,unsigned long * *>
PUBLIC	??$_Insertion_sort_unchecked@PAPAVCLight@@ULightComp@@@std@@YAPAPAVCLight@@QAPAV1@0ULightComp@@@Z ; std::_Insertion_sort_unchecked<CLight * *,LightComp>
PUBLIC	??$_Make_heap_unchecked@PAPAVCLight@@ULightComp@@@std@@YAXPAPAVCLight@@0ULightComp@@@Z ; std::_Make_heap_unchecked<CLight * *,LightComp>
PUBLIC	??$_Partition_by_median_guess_unchecked@PAPAVCLight@@ULightComp@@@std@@YA?AU?$pair@PAPAVCLight@@PAPAV1@@0@PAPAVCLight@@0ULightComp@@@Z ; std::_Partition_by_median_guess_unchecked<CLight * *,LightComp>
PUBLIC	??$construct@U?$pair@$$CBKPAVCLight@@@std@@ABUpiecewise_construct_t@2@V?$tuple@ABK@2@V?$tuple@$$V@2@@?$_Default_allocator_traits@V?$allocator@U?$_Tree_node@U?$pair@$$CBKPAVCLight@@@std@@PAX@std@@@std@@@std@@SAXAAV?$allocator@U?$_Tree_node@U?$pair@$$CBKPAVCLight@@@std@@PAX@std@@@1@QAU?$pair@$$CBKPAVCLight@@@1@ABUpiecewise_construct_t@1@$$QAV?$tuple@ABK@1@$$QAV?$tuple@$$V@1@@Z ; std::_Default_allocator_traits<std::allocator<std::_Tree_node<std::pair<unsigned long const ,CLight *>,void *> > >::construct<std::pair<unsigned long const ,CLight *>,std::piecewise_construct_t const &,std::tuple<unsigned long const &>,std::tuple<> >
PUBLIC	??$_Construct_in_place@PAU?$_Tree_node@U?$pair@$$CBKPAVCLight@@@std@@PAX@std@@AAPAU12@@std@@YAXAAPAU?$_Tree_node@U?$pair@$$CBKPAVCLight@@@std@@PAX@0@0@Z ; std::_Construct_in_place<std::_Tree_node<std::pair<unsigned long const ,CLight *>,void *> *,std::_Tree_node<std::pair<unsigned long const ,CLight *>,void *> * &>
PUBLIC	??$_Copy_memmove@PAPAVCLight@@PAPAV1@@std@@YAPAPAVCLight@@PAPAV1@00@Z ; std::_Copy_memmove<CLight * *,CLight * *>
PUBLIC	??$_Refancy@PAPAVCLight@@$0A@@std@@YAPAPAVCLight@@PAPAV1@@Z ; std::_Refancy<CLight * *,0>
PUBLIC	??$_Copy_memmove@PAPAKPAPAK@std@@YAPAPAKPAPAK00@Z ; std::_Copy_memmove<unsigned long * *,unsigned long * *>
PUBLIC	??$_Zero_range@PAPAK@std@@YAPAPAKQAPAK0@Z	; std::_Zero_range<unsigned long * *>
PUBLIC	??$_Pop_heap_hole_by_index@PAPAVCLight@@PAV1@ULightComp@@@std@@YAXPAPAVCLight@@HH$$QAPAV1@ULightComp@@@Z ; std::_Pop_heap_hole_by_index<CLight * *,CLight *,LightComp>
PUBLIC	??$_Pop_heap_unchecked@PAPAVCLight@@ULightComp@@@std@@YAXPAPAVCLight@@0ULightComp@@@Z ; std::_Pop_heap_unchecked<CLight * *,LightComp>
PUBLIC	??$_Guess_median_unchecked@PAPAVCLight@@ULightComp@@@std@@YAXPAPAVCLight@@00ULightComp@@@Z ; std::_Guess_median_unchecked<CLight * *,LightComp>
PUBLIC	??$_Copy_backward_memmove@PAPAVCLight@@PAPAV1@@std@@YAPAPAVCLight@@PAPAV1@00@Z ; std::_Copy_backward_memmove<CLight * *,CLight * *>
PUBLIC	??$_Push_heap_by_index@PAPAVCLight@@PAV1@ULightComp@@@std@@YAXPAPAVCLight@@HH$$QAPAV1@ULightComp@@@Z ; std::_Push_heap_by_index<CLight * *,CLight *,LightComp>
PUBLIC	??$_Med3_unchecked@PAPAVCLight@@ULightComp@@@std@@YAXPAPAVCLight@@00ULightComp@@@Z ; std::_Med3_unchecked<CLight * *,LightComp>
PUBLIC	??_ECLight@@W3AEPAXI@Z				; [thunk]:CLight::`vector deleting destructor'
PUBLIC	??_ECLightManager@@W3AEPAXI@Z			; [thunk]:CLightManager::`vector deleting destructor'
PUBLIC	??_ECLightManager@@W7AEPAXI@Z			; [thunk]:CLightManager::`vector deleting destructor'
PUBLIC	??_7exception@std@@6B@				; std::exception::`vftable'
PUBLIC	??_C@_0BC@EOODALEL@Unknown?5exception@		; `string'
PUBLIC	??_7bad_alloc@std@@6B@				; std::bad_alloc::`vftable'
PUBLIC	??_7bad_array_new_length@std@@6B@		; std::bad_array_new_length::`vftable'
PUBLIC	??_C@_0BF@KINCDENJ@bad?5array?5new?5length@	; `string'
PUBLIC	__TI3?AVbad_array_new_length@std@@
PUBLIC	__CTA3?AVbad_array_new_length@std@@
PUBLIC	??_R0?AVbad_array_new_length@std@@@8		; std::bad_array_new_length `RTTI Type Descriptor'
PUBLIC	__CT??_R0?AVbad_array_new_length@std@@@8??0bad_array_new_length@std@@QAE@ABV01@@Z12
PUBLIC	??_R0?AVbad_alloc@std@@@8			; std::bad_alloc `RTTI Type Descriptor'
PUBLIC	__CT??_R0?AVbad_alloc@std@@@8??0bad_alloc@std@@QAE@ABV01@@Z12
PUBLIC	??_R0?AVexception@std@@@8			; std::exception `RTTI Type Descriptor'
PUBLIC	__CT??_R0?AVexception@std@@@8??0exception@std@@QAE@ABV01@@Z12
PUBLIC	??_C@_0BB@GCADKGJO@map?1set?5too?5long@		; `string'
PUBLIC	??_R4exception@std@@6B@				; std::exception::`RTTI Complete Object Locator'
PUBLIC	??_R3exception@std@@8				; std::exception::`RTTI Class Hierarchy Descriptor'
PUBLIC	??_R2exception@std@@8				; std::exception::`RTTI Base Class Array'
PUBLIC	??_R1A@?0A@EA@exception@std@@8			; std::exception::`RTTI Base Class Descriptor at (0,-1,0,64)'
PUBLIC	??_R4bad_alloc@std@@6B@				; std::bad_alloc::`RTTI Complete Object Locator'
PUBLIC	??_R3bad_alloc@std@@8				; std::bad_alloc::`RTTI Class Hierarchy Descriptor'
PUBLIC	??_R2bad_alloc@std@@8				; std::bad_alloc::`RTTI Base Class Array'
PUBLIC	??_R1A@?0A@EA@bad_alloc@std@@8			; std::bad_alloc::`RTTI Base Class Descriptor at (0,-1,0,64)'
PUBLIC	??_R4bad_array_new_length@std@@6B@		; std::bad_array_new_length::`RTTI Complete Object Locator'
PUBLIC	??_R3bad_array_new_length@std@@8		; std::bad_array_new_length::`RTTI Class Hierarchy Descriptor'
PUBLIC	??_R2bad_array_new_length@std@@8		; std::bad_array_new_length::`RTTI Base Class Array'
PUBLIC	??_R1A@?0A@EA@bad_array_new_length@std@@8	; std::bad_array_new_length::`RTTI Base Class Descriptor at (0,-1,0,64)'
PUBLIC	?ms_singleton@?$CSingleton@VCTimer@@@@0PAVCTimer@@A ; CSingleton<CTimer>::ms_singleton
PUBLIC	??_7CLightBase@@6B@				; CLightBase::`vftable'
PUBLIC	??_7CLight@@6BCGraphicBase@@@			; CLight::`vftable'
PUBLIC	??_7CLight@@6BCLightBase@@@			; CLight::`vftable'
PUBLIC	?ms_singleton@?$CSingleton@VCLightManager@@@@0PAVCLightManager@@A ; CSingleton<CLightManager>::ms_singleton
PUBLIC	??_7?$CSingleton@VCLightManager@@@@6B@		; CSingleton<CLightManager>::`vftable'
PUBLIC	??_7?$CDynamicPool@VCLight@@@@6B@		; CDynamicPool<CLight>::`vftable'
PUBLIC	??_7CLightManager@@6BCGraphicBase@@@		; CLightManager::`vftable'
PUBLIC	??_7CLightManager@@6BCLightBase@@@		; CLightManager::`vftable'
PUBLIC	??_7CLightManager@@6B?$CSingleton@VCLightManager@@@@@ ; CLightManager::`vftable'
PUBLIC	?ms_singleton@?$CSingleton@VCStateManager@@@@0PAVCStateManager@@A ; CSingleton<CStateManager>::ms_singleton
PUBLIC	??_C@_0BA@FOIKENOD@vector?5too?5long@		; `string'
PUBLIC	??_C@_0BC@KBDMBKEH@deque?$DMT?$DO?5too?5long@	; `string'
PUBLIC	??_R4CLightBase@@6B@				; CLightBase::`RTTI Complete Object Locator'
PUBLIC	??_R0?AVCLightBase@@@8				; CLightBase `RTTI Type Descriptor'
PUBLIC	??_R3CLightBase@@8				; CLightBase::`RTTI Class Hierarchy Descriptor'
PUBLIC	??_R2CLightBase@@8				; CLightBase::`RTTI Base Class Array'
PUBLIC	??_R1A@?0A@EA@CLightBase@@8			; CLightBase::`RTTI Base Class Descriptor at (0,-1,0,64)'
PUBLIC	??_R4CLight@@6BCGraphicBase@@@			; CLight::`RTTI Complete Object Locator'
PUBLIC	??_R0?AVCLight@@@8				; CLight `RTTI Type Descriptor'
PUBLIC	??_R3CLight@@8					; CLight::`RTTI Class Hierarchy Descriptor'
PUBLIC	??_R2CLight@@8					; CLight::`RTTI Base Class Array'
PUBLIC	??_R1A@?0A@EA@CLight@@8				; CLight::`RTTI Base Class Descriptor at (0,-1,0,64)'
PUBLIC	??_R1A@?0A@EA@CGraphicBase@@8			; CGraphicBase::`RTTI Base Class Descriptor at (0,-1,0,64)'
PUBLIC	??_R0?AVCGraphicBase@@@8			; CGraphicBase `RTTI Type Descriptor'
PUBLIC	??_R3CGraphicBase@@8				; CGraphicBase::`RTTI Class Hierarchy Descriptor'
PUBLIC	??_R2CGraphicBase@@8				; CGraphicBase::`RTTI Base Class Array'
PUBLIC	??_R13?0A@EA@CLightBase@@8			; CLightBase::`RTTI Base Class Descriptor at (4,-1,0,64)'
PUBLIC	??_R4CLight@@6BCLightBase@@@			; CLight::`RTTI Complete Object Locator'
PUBLIC	??_R4CLightManager@@6BCGraphicBase@@@		; CLightManager::`RTTI Complete Object Locator'
PUBLIC	??_R0?AVCLightManager@@@8			; CLightManager `RTTI Type Descriptor'
PUBLIC	??_R3CLightManager@@8				; CLightManager::`RTTI Class Hierarchy Descriptor'
PUBLIC	??_R2CLightManager@@8				; CLightManager::`RTTI Base Class Array'
PUBLIC	??_R1A@?0A@EA@CLightManager@@8			; CLightManager::`RTTI Base Class Descriptor at (0,-1,0,64)'
PUBLIC	??_R17?0A@EA@?$CSingleton@VCLightManager@@@@8	; CSingleton<CLightManager>::`RTTI Base Class Descriptor at (8,-1,0,64)'
PUBLIC	??_R0?AV?$CSingleton@VCLightManager@@@@@8	; CSingleton<CLightManager> `RTTI Type Descriptor'
PUBLIC	??_R3?$CSingleton@VCLightManager@@@@8		; CSingleton<CLightManager>::`RTTI Class Hierarchy Descriptor'
PUBLIC	??_R2?$CSingleton@VCLightManager@@@@8		; CSingleton<CLightManager>::`RTTI Base Class Array'
PUBLIC	??_R1A@?0A@EA@?$CSingleton@VCLightManager@@@@8	; CSingleton<CLightManager>::`RTTI Base Class Descriptor at (0,-1,0,64)'
PUBLIC	??_R4CLightManager@@6BCLightBase@@@		; CLightManager::`RTTI Complete Object Locator'
PUBLIC	??_R4CLightManager@@6B?$CSingleton@VCLightManager@@@@@ ; CLightManager::`RTTI Complete Object Locator'
PUBLIC	??_R4?$CSingleton@VCLightManager@@@@6B@		; CSingleton<CLightManager>::`RTTI Complete Object Locator'
PUBLIC	??_R4?$CDynamicPool@VCLight@@@@6B@		; CDynamicPool<CLight>::`RTTI Complete Object Locator'
PUBLIC	??_R0?AV?$CDynamicPool@VCLight@@@@@8		; CDynamicPool<CLight> `RTTI Type Descriptor'
PUBLIC	??_R3?$CDynamicPool@VCLight@@@@8		; CDynamicPool<CLight>::`RTTI Class Hierarchy Descriptor'
PUBLIC	??_R2?$CDynamicPool@VCLight@@@@8		; CDynamicPool<CLight>::`RTTI Base Class Array'
PUBLIC	??_R1A@?0A@EA@?$CDynamicPool@VCLight@@@@8	; CDynamicPool<CLight>::`RTTI Base Class Descriptor at (0,-1,0,64)'
PUBLIC	__real@3f800000
EXTRN	??2@YAPAXI@Z:PROC				; operator new
EXTRN	??3@YAXPAXI@Z:PROC				; operator delete
EXTRN	__invalid_parameter_noinfo_noreturn:PROC
EXTRN	_memmove:PROC
EXTRN	_memset:PROC
EXTRN	_sqrt:PROC
EXTRN	___std_exception_copy:PROC
EXTRN	___std_exception_destroy:PROC
EXTRN	??_Eexception@std@@UAEPAXI@Z:PROC		; std::exception::`vector deleting destructor'
EXTRN	??_Ebad_alloc@std@@UAEPAXI@Z:PROC		; std::bad_alloc::`vector deleting destructor'
EXTRN	??_Ebad_array_new_length@std@@UAEPAXI@Z:PROC	; std::bad_array_new_length::`vector deleting destructor'
EXTRN	?_Xlength_error@std@@YAXPBD@Z:PROC		; std::_Xlength_error
EXTRN	?GetCurrentSecond@CTimer@@QAEMXZ:PROC		; CTimer::GetCurrentSecond
EXTRN	??0CGraphicBase@@QAE@XZ:PROC			; CGraphicBase::CGraphicBase
EXTRN	??1CGraphicBase@@UAE@XZ:PROC			; CGraphicBase::~CGraphicBase
EXTRN	??_ECLightBase@@UAEPAXI@Z:PROC			; CLightBase::`vector deleting destructor'
EXTRN	??_ECLight@@UAEPAXI@Z:PROC			; CLight::`vector deleting destructor'
EXTRN	??_E?$CSingleton@VCLightManager@@@@UAEPAXI@Z:PROC ; CSingleton<CLightManager>::`vector deleting destructor'
EXTRN	??_E?$CDynamicPool@VCLight@@@@UAEPAXI@Z:PROC	; CDynamicPool<CLight>::`vector deleting destructor'
EXTRN	??_ECLightManager@@UAEPAXI@Z:PROC		; CLightManager::`vector deleting destructor'
EXTRN	?SaveRenderState@CStateManager@@QAEXW4_D3DRENDERSTATETYPE@@K@Z:PROC ; CStateManager::SaveRenderState
EXTRN	?RestoreRenderState@CStateManager@@QAEXW4_D3DRENDERSTATETYPE@@@Z:PROC ; CStateManager::RestoreRenderState
EXTRN	@__security_check_cookie@4:PROC
EXTRN	__CxxThrowException@8:PROC
EXTRN	___CxxFrameHandler3:PROC
EXTRN	??_7type_info@@6B@:QWORD			; type_info::`vftable'
EXTRN	?ms_lpd3dDevice@CGraphicBase@@1PAUIDirect3DDevice8@@A:DWORD ; CGraphicBase::ms_lpd3dDevice
EXTRN	___security_cookie:DWORD
EXTRN	__fltused:DWORD
;	COMDAT ?ms_singleton@?$CSingleton@VCTimer@@@@0PAVCTimer@@A
_BSS	SEGMENT
?ms_singleton@?$CSingleton@VCTimer@@@@0PAVCTimer@@A DD 01H DUP (?) ; CSingleton<CTimer>::ms_singleton
_BSS	ENDS
;	COMDAT ?ms_singleton@?$CSingleton@VCLightManager@@@@0PAVCLightManager@@A
_BSS	SEGMENT
?ms_singleton@?$CSingleton@VCLightManager@@@@0PAVCLightManager@@A DD 01H DUP (?) ; CSingleton<CLightManager>::ms_singleton
_BSS	ENDS
;	COMDAT ?ms_singleton@?$CSingleton@VCStateManager@@@@0PAVCStateManager@@A
_BSS	SEGMENT
?ms_singleton@?$CSingleton@VCStateManager@@@@0PAVCStateManager@@A DD 01H DUP (?) ; CSingleton<CStateManager>::ms_singleton
_BSS	ENDS
;	COMDAT __real@3f800000
CONST	SEGMENT
__real@3f800000 DD 03f800000r			; 1
CONST	ENDS
;	COMDAT ??_R1A@?0A@EA@?$CDynamicPool@VCLight@@@@8
rdata$r	SEGMENT
??_R1A@?0A@EA@?$CDynamicPool@VCLight@@@@8 DD FLAT:??_R0?AV?$CDynamicPool@VCLight@@@@@8 ; CDynamicPool<CLight>::`RTTI Base Class Descriptor at (0,-1,0,64)'
	DD	00H
	DD	00H
	DD	0ffffffffH
	DD	00H
	DD	040H
	DD	FLAT:??_R3?$CDynamicPool@VCLight@@@@8
rdata$r	ENDS
;	COMDAT ??_R2?$CDynamicPool@VCLight@@@@8
rdata$r	SEGMENT
??_R2?$CDynamicPool@VCLight@@@@8 DD FLAT:??_R1A@?0A@EA@?$CDynamicPool@VCLight@@@@8 ; CDynamicPool<CLight>::`RTTI Base Class Array'
rdata$r	ENDS
;	COMDAT ??_R3?$CDynamicPool@VCLight@@@@8
rdata$r	SEGMENT
??_R3?$CDynamicPool@VCLight@@@@8 DD 00H			; CDynamicPool<CLight>::`RTTI Class Hierarchy Descriptor'
	DD	00H
	DD	01H
	DD	FLAT:??_R2?$CDynamicPool@VCLight@@@@8
rdata$r	ENDS
;	COMDAT ??_R0?AV?$CDynamicPool@VCLight@@@@@8
data$rs	SEGMENT
??_R0?AV?$CDynamicPool@VCLight@@@@@8 DD FLAT:??_7type_info@@6B@ ; CDynamicPool<CLight> `RTTI Type Descriptor'
	DD	00H
	DB	'.?AV?$CDynamicPool@VCLight@@@@', 00H
data$rs	ENDS
;	COMDAT ??_R4?$CDynamicPool@VCLight@@@@6B@
rdata$r	SEGMENT
??_R4?$CDynamicPool@VCLight@@@@6B@ DD 00H		; CDynamicPool<CLight>::`RTTI Complete Object Locator'
	DD	00H
	DD	00H
	DD	FLAT:??_R0?AV?$CDynamicPool@VCLight@@@@@8
	DD	FLAT:??_R3?$CDynamicPool@VCLight@@@@8
rdata$r	ENDS
;	COMDAT ??_R4?$CSingleton@VCLightManager@@@@6B@
rdata$r	SEGMENT
??_R4?$CSingleton@VCLightManager@@@@6B@ DD 00H		; CSingleton<CLightManager>::`RTTI Complete Object Locator'
	DD	00H
	DD	00H
	DD	FLAT:??_R0?AV?$CSingleton@VCLightManager@@@@@8
	DD	FLAT:??_R3?$CSingleton@VCLightManager@@@@8
rdata$r	ENDS
;	COMDAT ??_R4CLightManager@@6B?$CSingleton@VCLightManager@@@@@
rdata$r	SEGMENT
??_R4CLightManager@@6B?$CSingleton@VCLightManager@@@@@ DD 00H ; CLightManager::`RTTI Complete Object Locator'
	DD	08H
	DD	00H
	DD	FLAT:??_R0?AVCLightManager@@@8
	DD	FLAT:??_R3CLightManager@@8
rdata$r	ENDS
;	COMDAT ??_R4CLightManager@@6BCLightBase@@@
rdata$r	SEGMENT
??_R4CLightManager@@6BCLightBase@@@ DD 00H		; CLightManager::`RTTI Complete Object Locator'
	DD	04H
	DD	00H
	DD	FLAT:??_R0?AVCLightManager@@@8
	DD	FLAT:??_R3CLightManager@@8
rdata$r	ENDS
;	COMDAT ??_R1A@?0A@EA@?$CSingleton@VCLightManager@@@@8
rdata$r	SEGMENT
??_R1A@?0A@EA@?$CSingleton@VCLightManager@@@@8 DD FLAT:??_R0?AV?$CSingleton@VCLightManager@@@@@8 ; CSingleton<CLightManager>::`RTTI Base Class Descriptor at (0,-1,0,64)'
	DD	00H
	DD	00H
	DD	0ffffffffH
	DD	00H
	DD	040H
	DD	FLAT:??_R3?$CSingleton@VCLightManager@@@@8
rdata$r	ENDS
;	COMDAT ??_R2?$CSingleton@VCLightManager@@@@8
rdata$r	SEGMENT
??_R2?$CSingleton@VCLightManager@@@@8 DD FLAT:??_R1A@?0A@EA@?$CSingleton@VCLightManager@@@@8 ; CSingleton<CLightManager>::`RTTI Base Class Array'
rdata$r	ENDS
;	COMDAT ??_R3?$CSingleton@VCLightManager@@@@8
rdata$r	SEGMENT
??_R3?$CSingleton@VCLightManager@@@@8 DD 00H		; CSingleton<CLightManager>::`RTTI Class Hierarchy Descriptor'
	DD	00H
	DD	01H
	DD	FLAT:??_R2?$CSingleton@VCLightManager@@@@8
rdata$r	ENDS
;	COMDAT ??_R0?AV?$CSingleton@VCLightManager@@@@@8
data$rs	SEGMENT
??_R0?AV?$CSingleton@VCLightManager@@@@@8 DD FLAT:??_7type_info@@6B@ ; CSingleton<CLightManager> `RTTI Type Descriptor'
	DD	00H
	DB	'.?AV?$CSingleton@VCLightManager@@@@', 00H
data$rs	ENDS
;	COMDAT ??_R17?0A@EA@?$CSingleton@VCLightManager@@@@8
rdata$r	SEGMENT
??_R17?0A@EA@?$CSingleton@VCLightManager@@@@8 DD FLAT:??_R0?AV?$CSingleton@VCLightManager@@@@@8 ; CSingleton<CLightManager>::`RTTI Base Class Descriptor at (8,-1,0,64)'
	DD	00H
	DD	08H
	DD	0ffffffffH
	DD	00H
	DD	040H
	DD	FLAT:??_R3?$CSingleton@VCLightManager@@@@8
rdata$r	ENDS
;	COMDAT ??_R1A@?0A@EA@CLightManager@@8
rdata$r	SEGMENT
??_R1A@?0A@EA@CLightManager@@8 DD FLAT:??_R0?AVCLightManager@@@8 ; CLightManager::`RTTI Base Class Descriptor at (0,-1,0,64)'
	DD	03H
	DD	00H
	DD	0ffffffffH
	DD	00H
	DD	040H
	DD	FLAT:??_R3CLightManager@@8
rdata$r	ENDS
;	COMDAT ??_R2CLightManager@@8
rdata$r	SEGMENT
??_R2CLightManager@@8 DD FLAT:??_R1A@?0A@EA@CLightManager@@8 ; CLightManager::`RTTI Base Class Array'
	DD	FLAT:??_R1A@?0A@EA@CGraphicBase@@8
	DD	FLAT:??_R13?0A@EA@CLightBase@@8
	DD	FLAT:??_R17?0A@EA@?$CSingleton@VCLightManager@@@@8
rdata$r	ENDS
;	COMDAT ??_R3CLightManager@@8
rdata$r	SEGMENT
??_R3CLightManager@@8 DD 00H				; CLightManager::`RTTI Class Hierarchy Descriptor'
	DD	01H
	DD	04H
	DD	FLAT:??_R2CLightManager@@8
rdata$r	ENDS
;	COMDAT ??_R0?AVCLightManager@@@8
data$rs	SEGMENT
??_R0?AVCLightManager@@@8 DD FLAT:??_7type_info@@6B@	; CLightManager `RTTI Type Descriptor'
	DD	00H
	DB	'.?AVCLightManager@@', 00H
data$rs	ENDS
;	COMDAT ??_R4CLightManager@@6BCGraphicBase@@@
rdata$r	SEGMENT
??_R4CLightManager@@6BCGraphicBase@@@ DD 00H		; CLightManager::`RTTI Complete Object Locator'
	DD	00H
	DD	00H
	DD	FLAT:??_R0?AVCLightManager@@@8
	DD	FLAT:??_R3CLightManager@@8
rdata$r	ENDS
;	COMDAT ??_R4CLight@@6BCLightBase@@@
rdata$r	SEGMENT
??_R4CLight@@6BCLightBase@@@ DD 00H			; CLight::`RTTI Complete Object Locator'
	DD	04H
	DD	00H
	DD	FLAT:??_R0?AVCLight@@@8
	DD	FLAT:??_R3CLight@@8
rdata$r	ENDS
;	COMDAT ??_R13?0A@EA@CLightBase@@8
rdata$r	SEGMENT
??_R13?0A@EA@CLightBase@@8 DD FLAT:??_R0?AVCLightBase@@@8 ; CLightBase::`RTTI Base Class Descriptor at (4,-1,0,64)'
	DD	00H
	DD	04H
	DD	0ffffffffH
	DD	00H
	DD	040H
	DD	FLAT:??_R3CLightBase@@8
rdata$r	ENDS
;	COMDAT ??_R2CGraphicBase@@8
rdata$r	SEGMENT
??_R2CGraphicBase@@8 DD FLAT:??_R1A@?0A@EA@CGraphicBase@@8 ; CGraphicBase::`RTTI Base Class Array'
rdata$r	ENDS
;	COMDAT ??_R3CGraphicBase@@8
rdata$r	SEGMENT
??_R3CGraphicBase@@8 DD 00H				; CGraphicBase::`RTTI Class Hierarchy Descriptor'
	DD	00H
	DD	01H
	DD	FLAT:??_R2CGraphicBase@@8
rdata$r	ENDS
;	COMDAT ??_R0?AVCGraphicBase@@@8
data$rs	SEGMENT
??_R0?AVCGraphicBase@@@8 DD FLAT:??_7type_info@@6B@	; CGraphicBase `RTTI Type Descriptor'
	DD	00H
	DB	'.?AVCGraphicBase@@', 00H
data$rs	ENDS
;	COMDAT ??_R1A@?0A@EA@CGraphicBase@@8
rdata$r	SEGMENT
??_R1A@?0A@EA@CGraphicBase@@8 DD FLAT:??_R0?AVCGraphicBase@@@8 ; CGraphicBase::`RTTI Base Class Descriptor at (0,-1,0,64)'
	DD	00H
	DD	00H
	DD	0ffffffffH
	DD	00H
	DD	040H
	DD	FLAT:??_R3CGraphicBase@@8
rdata$r	ENDS
;	COMDAT ??_R1A@?0A@EA@CLight@@8
rdata$r	SEGMENT
??_R1A@?0A@EA@CLight@@8 DD FLAT:??_R0?AVCLight@@@8	; CLight::`RTTI Base Class Descriptor at (0,-1,0,64)'
	DD	02H
	DD	00H
	DD	0ffffffffH
	DD	00H
	DD	040H
	DD	FLAT:??_R3CLight@@8
rdata$r	ENDS
;	COMDAT ??_R2CLight@@8
rdata$r	SEGMENT
??_R2CLight@@8 DD FLAT:??_R1A@?0A@EA@CLight@@8		; CLight::`RTTI Base Class Array'
	DD	FLAT:??_R1A@?0A@EA@CGraphicBase@@8
	DD	FLAT:??_R13?0A@EA@CLightBase@@8
rdata$r	ENDS
;	COMDAT ??_R3CLight@@8
rdata$r	SEGMENT
??_R3CLight@@8 DD 00H					; CLight::`RTTI Class Hierarchy Descriptor'
	DD	01H
	DD	03H
	DD	FLAT:??_R2CLight@@8
rdata$r	ENDS
;	COMDAT ??_R0?AVCLight@@@8
data$rs	SEGMENT
??_R0?AVCLight@@@8 DD FLAT:??_7type_info@@6B@		; CLight `RTTI Type Descriptor'
	DD	00H
	DB	'.?AVCLight@@', 00H
data$rs	ENDS
;	COMDAT ??_R4CLight@@6BCGraphicBase@@@
rdata$r	SEGMENT
??_R4CLight@@6BCGraphicBase@@@ DD 00H			; CLight::`RTTI Complete Object Locator'
	DD	00H
	DD	00H
	DD	FLAT:??_R0?AVCLight@@@8
	DD	FLAT:??_R3CLight@@8
rdata$r	ENDS
;	COMDAT ??_R1A@?0A@EA@CLightBase@@8
rdata$r	SEGMENT
??_R1A@?0A@EA@CLightBase@@8 DD FLAT:??_R0?AVCLightBase@@@8 ; CLightBase::`RTTI Base Class Descriptor at (0,-1,0,64)'
	DD	00H
	DD	00H
	DD	0ffffffffH
	DD	00H
	DD	040H
	DD	FLAT:??_R3CLightBase@@8
rdata$r	ENDS
;	COMDAT ??_R2CLightBase@@8
rdata$r	SEGMENT
??_R2CLightBase@@8 DD FLAT:??_R1A@?0A@EA@CLightBase@@8	; CLightBase::`RTTI Base Class Array'
rdata$r	ENDS
;	COMDAT ??_R3CLightBase@@8
rdata$r	SEGMENT
??_R3CLightBase@@8 DD 00H				; CLightBase::`RTTI Class Hierarchy Descriptor'
	DD	00H
	DD	01H
	DD	FLAT:??_R2CLightBase@@8
rdata$r	ENDS
;	COMDAT ??_R0?AVCLightBase@@@8
data$rs	SEGMENT
??_R0?AVCLightBase@@@8 DD FLAT:??_7type_info@@6B@	; CLightBase `RTTI Type Descriptor'
	DD	00H
	DB	'.?AVCLightBase@@', 00H
data$rs	ENDS
;	COMDAT ??_R4CLightBase@@6B@
rdata$r	SEGMENT
??_R4CLightBase@@6B@ DD 00H				; CLightBase::`RTTI Complete Object Locator'
	DD	00H
	DD	00H
	DD	FLAT:??_R0?AVCLightBase@@@8
	DD	FLAT:??_R3CLightBase@@8
rdata$r	ENDS
;	COMDAT ??_C@_0BC@KBDMBKEH@deque?$DMT?$DO?5too?5long@
CONST	SEGMENT
??_C@_0BC@KBDMBKEH@deque?$DMT?$DO?5too?5long@ DB 'deque<T> too long', 00H ; `string'
CONST	ENDS
;	COMDAT ??_C@_0BA@FOIKENOD@vector?5too?5long@
CONST	SEGMENT
??_C@_0BA@FOIKENOD@vector?5too?5long@ DB 'vector too long', 00H ; `string'
CONST	ENDS
;	COMDAT ??_7CLightManager@@6B?$CSingleton@VCLightManager@@@@@
CONST	SEGMENT
??_7CLightManager@@6B?$CSingleton@VCLightManager@@@@@ DD FLAT:??_R4CLightManager@@6B?$CSingleton@VCLightManager@@@@@ ; CLightManager::`vftable'
	DD	FLAT:??_ECLightManager@@W7AEPAXI@Z
CONST	ENDS
;	COMDAT ??_7CLightManager@@6BCLightBase@@@
CONST	SEGMENT
??_7CLightManager@@6BCLightBase@@@ DD FLAT:??_R4CLightManager@@6BCLightBase@@@ ; CLightManager::`vftable'
	DD	FLAT:??_ECLightManager@@W3AEPAXI@Z
CONST	ENDS
;	COMDAT ??_7CLightManager@@6BCGraphicBase@@@
CONST	SEGMENT
??_7CLightManager@@6BCGraphicBase@@@ DD FLAT:??_R4CLightManager@@6BCGraphicBase@@@ ; CLightManager::`vftable'
	DD	FLAT:??_ECLightManager@@UAEPAXI@Z
CONST	ENDS
;	COMDAT ??_7?$CDynamicPool@VCLight@@@@6B@
CONST	SEGMENT
??_7?$CDynamicPool@VCLight@@@@6B@ DD FLAT:??_R4?$CDynamicPool@VCLight@@@@6B@ ; CDynamicPool<CLight>::`vftable'
	DD	FLAT:??_E?$CDynamicPool@VCLight@@@@UAEPAXI@Z
CONST	ENDS
;	COMDAT ??_7?$CSingleton@VCLightManager@@@@6B@
CONST	SEGMENT
??_7?$CSingleton@VCLightManager@@@@6B@ DD FLAT:??_R4?$CSingleton@VCLightManager@@@@6B@ ; CSingleton<CLightManager>::`vftable'
	DD	FLAT:??_E?$CSingleton@VCLightManager@@@@UAEPAXI@Z
CONST	ENDS
;	COMDAT ??_7CLight@@6BCLightBase@@@
CONST	SEGMENT
??_7CLight@@6BCLightBase@@@ DD FLAT:??_R4CLight@@6BCLightBase@@@ ; CLight::`vftable'
	DD	FLAT:??_ECLight@@W3AEPAXI@Z
CONST	ENDS
;	COMDAT ??_7CLight@@6BCGraphicBase@@@
CONST	SEGMENT
??_7CLight@@6BCGraphicBase@@@ DD FLAT:??_R4CLight@@6BCGraphicBase@@@ ; CLight::`vftable'
	DD	FLAT:??_ECLight@@UAEPAXI@Z
CONST	ENDS
;	COMDAT ??_7CLightBase@@6B@
CONST	SEGMENT
??_7CLightBase@@6B@ DD FLAT:??_R4CLightBase@@6B@	; CLightBase::`vftable'
	DD	FLAT:??_ECLightBase@@UAEPAXI@Z
CONST	ENDS
;	COMDAT ??_R1A@?0A@EA@bad_array_new_length@std@@8
rdata$r	SEGMENT
??_R1A@?0A@EA@bad_array_new_length@std@@8 DD FLAT:??_R0?AVbad_array_new_length@std@@@8 ; std::bad_array_new_length::`RTTI Base Class Descriptor at (0,-1,0,64)'
	DD	02H
	DD	00H
	DD	0ffffffffH
	DD	00H
	DD	040H
	DD	FLAT:??_R3bad_array_new_length@std@@8
rdata$r	ENDS
;	COMDAT ??_R2bad_array_new_length@std@@8
rdata$r	SEGMENT
??_R2bad_array_new_length@std@@8 DD FLAT:??_R1A@?0A@EA@bad_array_new_length@std@@8 ; std::bad_array_new_length::`RTTI Base Class Array'
	DD	FLAT:??_R1A@?0A@EA@bad_alloc@std@@8
	DD	FLAT:??_R1A@?0A@EA@exception@std@@8
rdata$r	ENDS
;	COMDAT ??_R3bad_array_new_length@std@@8
rdata$r	SEGMENT
??_R3bad_array_new_length@std@@8 DD 00H			; std::bad_array_new_length::`RTTI Class Hierarchy Descriptor'
	DD	00H
	DD	03H
	DD	FLAT:??_R2bad_array_new_length@std@@8
rdata$r	ENDS
;	COMDAT ??_R4bad_array_new_length@std@@6B@
rdata$r	SEGMENT
??_R4bad_array_new_length@std@@6B@ DD 00H		; std::bad_array_new_length::`RTTI Complete Object Locator'
	DD	00H
	DD	00H
	DD	FLAT:??_R0?AVbad_array_new_length@std@@@8
	DD	FLAT:??_R3bad_array_new_length@std@@8
rdata$r	ENDS
;	COMDAT ??_R1A@?0A@EA@bad_alloc@std@@8
rdata$r	SEGMENT
??_R1A@?0A@EA@bad_alloc@std@@8 DD FLAT:??_R0?AVbad_alloc@std@@@8 ; std::bad_alloc::`RTTI Base Class Descriptor at (0,-1,0,64)'
	DD	01H
	DD	00H
	DD	0ffffffffH
	DD	00H
	DD	040H
	DD	FLAT:??_R3bad_alloc@std@@8
rdata$r	ENDS
;	COMDAT ??_R2bad_alloc@std@@8
rdata$r	SEGMENT
??_R2bad_alloc@std@@8 DD FLAT:??_R1A@?0A@EA@bad_alloc@std@@8 ; std::bad_alloc::`RTTI Base Class Array'
	DD	FLAT:??_R1A@?0A@EA@exception@std@@8
rdata$r	ENDS
;	COMDAT ??_R3bad_alloc@std@@8
rdata$r	SEGMENT
??_R3bad_alloc@std@@8 DD 00H				; std::bad_alloc::`RTTI Class Hierarchy Descriptor'
	DD	00H
	DD	02H
	DD	FLAT:??_R2bad_alloc@std@@8
rdata$r	ENDS
;	COMDAT ??_R4bad_alloc@std@@6B@
rdata$r	SEGMENT
??_R4bad_alloc@std@@6B@ DD 00H				; std::bad_alloc::`RTTI Complete Object Locator'
	DD	00H
	DD	00H
	DD	FLAT:??_R0?AVbad_alloc@std@@@8
	DD	FLAT:??_R3bad_alloc@std@@8
rdata$r	ENDS
;	COMDAT ??_R1A@?0A@EA@exception@std@@8
rdata$r	SEGMENT
??_R1A@?0A@EA@exception@std@@8 DD FLAT:??_R0?AVexception@std@@@8 ; std::exception::`RTTI Base Class Descriptor at (0,-1,0,64)'
	DD	00H
	DD	00H
	DD	0ffffffffH
	DD	00H
	DD	040H
	DD	FLAT:??_R3exception@std@@8
rdata$r	ENDS
;	COMDAT ??_R2exception@std@@8
rdata$r	SEGMENT
??_R2exception@std@@8 DD FLAT:??_R1A@?0A@EA@exception@std@@8 ; std::exception::`RTTI Base Class Array'
rdata$r	ENDS
;	COMDAT ??_R3exception@std@@8
rdata$r	SEGMENT
??_R3exception@std@@8 DD 00H				; std::exception::`RTTI Class Hierarchy Descriptor'
	DD	00H
	DD	01H
	DD	FLAT:??_R2exception@std@@8
rdata$r	ENDS
;	COMDAT ??_R4exception@std@@6B@
rdata$r	SEGMENT
??_R4exception@std@@6B@ DD 00H				; std::exception::`RTTI Complete Object Locator'
	DD	00H
	DD	00H
	DD	FLAT:??_R0?AVexception@std@@@8
	DD	FLAT:??_R3exception@std@@8
rdata$r	ENDS
;	COMDAT ??_C@_0BB@GCADKGJO@map?1set?5too?5long@
CONST	SEGMENT
??_C@_0BB@GCADKGJO@map?1set?5too?5long@ DB 'map/set too long', 00H ; `string'
CONST	ENDS
;	COMDAT __CT??_R0?AVexception@std@@@8??0exception@std@@QAE@ABV01@@Z12
xdata$x	SEGMENT
__CT??_R0?AVexception@std@@@8??0exception@std@@QAE@ABV01@@Z12 DD 00H
	DD	FLAT:??_R0?AVexception@std@@@8
	DD	00H
	DD	0ffffffffH
	ORG $+4
	DD	0cH
	DD	FLAT:??0exception@std@@QAE@ABV01@@Z
xdata$x	ENDS
;	COMDAT ??_R0?AVexception@std@@@8
data$r	SEGMENT
??_R0?AVexception@std@@@8 DD FLAT:??_7type_info@@6B@	; std::exception `RTTI Type Descriptor'
	DD	00H
	DB	'.?AVexception@std@@', 00H
data$r	ENDS
;	COMDAT __CT??_R0?AVbad_alloc@std@@@8??0bad_alloc@std@@QAE@ABV01@@Z12
xdata$x	SEGMENT
__CT??_R0?AVbad_alloc@std@@@8??0bad_alloc@std@@QAE@ABV01@@Z12 DD 010H
	DD	FLAT:??_R0?AVbad_alloc@std@@@8
	DD	00H
	DD	0ffffffffH
	ORG $+4
	DD	0cH
	DD	FLAT:??0bad_alloc@std@@QAE@ABV01@@Z
xdata$x	ENDS
;	COMDAT ??_R0?AVbad_alloc@std@@@8
data$r	SEGMENT
??_R0?AVbad_alloc@std@@@8 DD FLAT:??_7type_info@@6B@	; std::bad_alloc `RTTI Type Descriptor'
	DD	00H
	DB	'.?AVbad_alloc@std@@', 00H
data$r	ENDS
;	COMDAT __CT??_R0?AVbad_array_new_length@std@@@8??0bad_array_new_length@std@@QAE@ABV01@@Z12
xdata$x	SEGMENT
__CT??_R0?AVbad_array_new_length@std@@@8??0bad_array_new_length@std@@QAE@ABV01@@Z12 DD 00H
	DD	FLAT:??_R0?AVbad_array_new_length@std@@@8
	DD	00H
	DD	0ffffffffH
	ORG $+4
	DD	0cH
	DD	FLAT:??0bad_array_new_length@std@@QAE@ABV01@@Z
xdata$x	ENDS
;	COMDAT ??_R0?AVbad_array_new_length@std@@@8
data$r	SEGMENT
??_R0?AVbad_array_new_length@std@@@8 DD FLAT:??_7type_info@@6B@ ; std::bad_array_new_length `RTTI Type Descriptor'
	DD	00H
	DB	'.?AVbad_array_new_length@std@@', 00H
data$r	ENDS
;	COMDAT __CTA3?AVbad_array_new_length@std@@
xdata$x	SEGMENT
__CTA3?AVbad_array_new_length@std@@ DD 03H
	DD	FLAT:__CT??_R0?AVbad_array_new_length@std@@@8??0bad_array_new_length@std@@QAE@ABV01@@Z12
	DD	FLAT:__CT??_R0?AVbad_alloc@std@@@8??0bad_alloc@std@@QAE@ABV01@@Z12
	DD	FLAT:__CT??_R0?AVexception@std@@@8??0exception@std@@QAE@ABV01@@Z12
xdata$x	ENDS
;	COMDAT __TI3?AVbad_array_new_length@std@@
xdata$x	SEGMENT
__TI3?AVbad_array_new_length@std@@ DD 00H
	DD	FLAT:??1bad_array_new_length@std@@UAE@XZ
	DD	00H
	DD	FLAT:__CTA3?AVbad_array_new_length@std@@
xdata$x	ENDS
;	COMDAT ??_C@_0BF@KINCDENJ@bad?5array?5new?5length@
CONST	SEGMENT
??_C@_0BF@KINCDENJ@bad?5array?5new?5length@ DB 'bad array new length', 00H ; `string'
CONST	ENDS
;	COMDAT ??_7bad_array_new_length@std@@6B@
CONST	SEGMENT
??_7bad_array_new_length@std@@6B@ DD FLAT:??_R4bad_array_new_length@std@@6B@ ; std::bad_array_new_length::`vftable'
	DD	FLAT:??_Ebad_array_new_length@std@@UAEPAXI@Z
	DD	FLAT:?what@exception@std@@UBEPBDXZ
CONST	ENDS
;	COMDAT ??_7bad_alloc@std@@6B@
CONST	SEGMENT
??_7bad_alloc@std@@6B@ DD FLAT:??_R4bad_alloc@std@@6B@	; std::bad_alloc::`vftable'
	DD	FLAT:??_Ebad_alloc@std@@UAEPAXI@Z
	DD	FLAT:?what@exception@std@@UBEPBDXZ
CONST	ENDS
;	COMDAT ??_C@_0BC@EOODALEL@Unknown?5exception@
CONST	SEGMENT
??_C@_0BC@EOODALEL@Unknown?5exception@ DB 'Unknown exception', 00H ; `string'
CONST	ENDS
;	COMDAT ??_7exception@std@@6B@
CONST	SEGMENT
??_7exception@std@@6B@ DD FLAT:??_R4exception@std@@6B@	; std::exception::`vftable'
	DD	FLAT:??_Eexception@std@@UAEPAXI@Z
	DD	FLAT:?what@exception@std@@UBEPBDXZ
CONST	ENDS
;	COMDAT xdata$x
xdata$x	SEGMENT
__unwindtable$??$?0ABUpiecewise_construct_t@std@@V?$tuple@ABK@1@V?$tuple@$$V@1@@?$_Tree_temp_node@V?$allocator@U?$_Tree_node@U?$pair@$$CBKPAVCLight@@@std@@PAX@std@@@std@@@std@@QAE@AAV?$allocator@U?$_Tree_node@U?$pair@$$CBKPAVCLight@@@std@@PAX@std@@@1@PAU?$_Tree_node@U?$pair@$$CBKPAVCLight@@@std@@PAX@1@ABUpiecewise_construct_t@1@$$QAV?$tuple@ABK@1@$$QAV?$tuple@$$V@1@@Z DD 0ffffffffH
	DD	FLAT:__unwindfunclet$??$?0ABUpiecewise_construct_t@std@@V?$tuple@ABK@1@V?$tuple@$$V@1@@?$_Tree_temp_node@V?$allocator@U?$_Tree_node@U?$pair@$$CBKPAVCLight@@@std@@PAX@std@@@std@@@std@@QAE@AAV?$allocator@U?$_Tree_node@U?$pair@$$CBKPAVCLight@@@std@@PAX@std@@@1@PAU?$_Tree_node@U?$pair@$$CBKPAVCLight@@@std@@PAX@1@ABUpiecewise_construct_t@1@$$QAV?$tuple@ABK@1@$$QAV?$tuple@$$V@1@@Z$1
	DD	0ffffffffH
	DD	FLAT:__unwindfunclet$??$?0ABUpiecewise_construct_t@std@@V?$tuple@ABK@1@V?$tuple@$$V@1@@?$_Tree_temp_node@V?$allocator@U?$_Tree_node@U?$pair@$$CBKPAVCLight@@@std@@PAX@std@@@std@@@std@@QAE@AAV?$allocator@U?$_Tree_node@U?$pair@$$CBKPAVCLight@@@std@@PAX@std@@@1@PAU?$_Tree_node@U?$pair@$$CBKPAVCLight@@@std@@PAX@1@ABUpiecewise_construct_t@1@$$QAV?$tuple@ABK@1@$$QAV?$tuple@$$V@1@@Z$0
__ehfuncinfo$??$?0ABUpiecewise_construct_t@std@@V?$tuple@ABK@1@V?$tuple@$$V@1@@?$_Tree_temp_node@V?$allocator@U?$_Tree_node@U?$pair@$$CBKPAVCLight@@@std@@PAX@std@@@std@@@std@@QAE@AAV?$allocator@U?$_Tree_node@U?$pair@$$CBKPAVCLight@@@std@@PAX@std@@@1@PAU?$_Tree_node@U?$pair@$$CBKPAVCLight@@@std@@PAX@1@ABUpiecewise_construct_t@1@$$QAV?$tuple@ABK@1@$$QAV?$tuple@$$V@1@@Z DD 019930522H
	DD	02H
	DD	FLAT:__unwindtable$??$?0ABUpiecewise_construct_t@std@@V?$tuple@ABK@1@V?$tuple@$$V@1@@?$_Tree_temp_node@V?$allocator@U?$_Tree_node@U?$pair@$$CBKPAVCLight@@@std@@PAX@std@@@std@@@std@@QAE@AAV?$allocator@U?$_Tree_node@U?$pair@$$CBKPAVCLight@@@std@@PAX@std@@@1@PAU?$_Tree_node@U?$pair@$$CBKPAVCLight@@@std@@PAX@1@ABUpiecewise_construct_t@1@$$QAV?$tuple@ABK@1@$$QAV?$tuple@$$V@1@@Z
	DD	2 DUP(00H)
	DD	2 DUP(00H)
	DD	00H
	DD	01H
xdata$x	ENDS
;	COMDAT xdata$x
xdata$x	SEGMENT
__catchsym$??$_Emplace_reallocate@ABQAVCLight@@@?$vector@PAVCLight@@V?$allocator@PAVCLight@@@std@@@std@@QAEPAPAVCLight@@QAPAV2@ABQAV2@@Z$32 DD 040H
	DD	00H
	DD	00H
	DD	FLAT:__catch$??$_Emplace_reallocate@ABQAVCLight@@@?$vector@PAVCLight@@V?$allocator@PAVCLight@@@std@@@std@@QAEPAPAVCLight@@QAPAV2@ABQAV2@@Z$0
__unwindtable$??$_Emplace_reallocate@ABQAVCLight@@@?$vector@PAVCLight@@V?$allocator@PAVCLight@@@std@@@std@@QAEPAPAVCLight@@QAPAV2@ABQAV2@@Z DD 0ffffffffH
	DD	00H
	DD	0ffffffffH
	DD	00H
__tryblocktable$??$_Emplace_reallocate@ABQAVCLight@@@?$vector@PAVCLight@@V?$allocator@PAVCLight@@@std@@@std@@QAEPAPAVCLight@@QAPAV2@ABQAV2@@Z DD 00H
	DD	00H
	DD	01H
	DD	01H
	DD	FLAT:__catchsym$??$_Emplace_reallocate@ABQAVCLight@@@?$vector@PAVCLight@@V?$allocator@PAVCLight@@@std@@@std@@QAEPAPAVCLight@@QAPAV2@ABQAV2@@Z$32
__ehfuncinfo$??$_Emplace_reallocate@ABQAVCLight@@@?$vector@PAVCLight@@V?$allocator@PAVCLight@@@std@@@std@@QAEPAPAVCLight@@QAPAV2@ABQAV2@@Z DD 019930522H
	DD	02H
	DD	FLAT:__unwindtable$??$_Emplace_reallocate@ABQAVCLight@@@?$vector@PAVCLight@@V?$allocator@PAVCLight@@@std@@@std@@QAEPAPAVCLight@@QAPAV2@ABQAV2@@Z
	DD	01H
	DD	FLAT:__tryblocktable$??$_Emplace_reallocate@ABQAVCLight@@@?$vector@PAVCLight@@V?$allocator@PAVCLight@@@std@@@std@@QAEPAPAVCLight@@QAPAV2@ABQAV2@@Z
	DD	2 DUP(00H)
	DD	00H
	DD	01H
xdata$x	ENDS
;	COMDAT xdata$x
xdata$x	SEGMENT
__unwindtable$?Alloc@?$CDynamicPool@VCLight@@@@QAEPAVCLight@@XZ DD 0ffffffffH
	DD	FLAT:__unwindfunclet$?Alloc@?$CDynamicPool@VCLight@@@@QAEPAVCLight@@XZ$0
__ehfuncinfo$?Alloc@?$CDynamicPool@VCLight@@@@QAEPAVCLight@@XZ DD 019930522H
	DD	01H
	DD	FLAT:__unwindtable$?Alloc@?$CDynamicPool@VCLight@@@@QAEPAVCLight@@XZ
	DD	2 DUP(00H)
	DD	2 DUP(00H)
	DD	00H
	DD	01H
xdata$x	ENDS
;	COMDAT xdata$x
xdata$x	SEGMENT
__ehfuncinfo$??0CLightManager@@QAE@XZ DD 019930522H
	DD	06H
	DD	FLAT:__unwindtable$??0CLightManager@@QAE@XZ
	DD	2 DUP(00H)
	DD	2 DUP(00H)
	DD	00H
	DD	01H
__unwindtable$??0CLightManager@@QAE@XZ DD 0ffffffffH
	DD	FLAT:__unwindfunclet$??0CLightManager@@QAE@XZ$0
	DD	00H
	DD	FLAT:__unwindfunclet$??0CLightManager@@QAE@XZ$1
	DD	01H
	DD	FLAT:__unwindfunclet$??0CLightManager@@QAE@XZ$2
	DD	02H
	DD	FLAT:__unwindfunclet$??0CLightManager@@QAE@XZ$3
	DD	03H
	DD	FLAT:__unwindfunclet$??0CLightManager@@QAE@XZ$4
	DD	04H
	DD	FLAT:__unwindfunclet$??0CLightManager@@QAE@XZ$5
xdata$x	ENDS
;	COMDAT xdata$x
xdata$x	SEGMENT
__ehfuncinfo$??1CLight@@UAE@XZ DD 019930522H
	DD	00H
	DD	00H
	DD	2 DUP(00H)
	DD	2 DUP(00H)
	DD	00H
	DD	05H
xdata$x	ENDS
;	COMDAT xdata$x
xdata$x	SEGMENT
__ehfuncinfo$??0CLight@@QAE@XZ DD 019930522H
	DD	05H
	DD	FLAT:__unwindtable$??0CLight@@QAE@XZ
	DD	2 DUP(00H)
	DD	2 DUP(00H)
	DD	00H
	DD	01H
__unwindtable$??0CLight@@QAE@XZ DD 0ffffffffH
	DD	FLAT:__unwindfunclet$??0CLight@@QAE@XZ$0
	DD	00H
	DD	FLAT:__unwindfunclet$??0CLight@@QAE@XZ$1
	DD	01H
	DD	FLAT:__unwindfunclet$??0CLight@@QAE@XZ$2
	DD	02H
	DD	FLAT:__unwindfunclet$??0CLight@@QAE@XZ$3
	DD	03H
	DD	FLAT:__unwindfunclet$??0CLight@@QAE@XZ$4
xdata$x	ENDS
;	COMDAT xdata$x
xdata$x	SEGMENT
__ehfuncinfo$??$_Deallocate@$07$0A@@std@@YAXPAXI@Z DD 019930522H
	DD	00H
	DD	00H
	DD	2 DUP(00H)
	DD	2 DUP(00H)
	DD	00H
	DD	05H
xdata$x	ENDS
; Function compile flags: /Odspy
;	COMDAT ??_ECLightManager@@W7AEPAXI@Z
_TEXT	SEGMENT
??_ECLightManager@@W7AEPAXI@Z PROC			; [thunk]:CLightManager::`vector deleting destructor', COMDAT
  00000	83 e9 08	 sub	 ecx, 8
  00003	e9 00 00 00 00	 jmp	 ??_ECLightManager@@UAEPAXI@Z
??_ECLightManager@@W7AEPAXI@Z ENDP			; [thunk]:CLightManager::`vector deleting destructor'
_TEXT	ENDS
; Function compile flags: /Odspy
;	COMDAT ??_ECLightManager@@W3AEPAXI@Z
_TEXT	SEGMENT
??_ECLightManager@@W3AEPAXI@Z PROC			; [thunk]:CLightManager::`vector deleting destructor', COMDAT
  00000	83 e9 04	 sub	 ecx, 4
  00003	e9 00 00 00 00	 jmp	 ??_ECLightManager@@UAEPAXI@Z
??_ECLightManager@@W3AEPAXI@Z ENDP			; [thunk]:CLightManager::`vector deleting destructor'
_TEXT	ENDS
; Function compile flags: /Odspy
;	COMDAT ??_ECLight@@W3AEPAXI@Z
_TEXT	SEGMENT
??_ECLight@@W3AEPAXI@Z PROC				; [thunk]:CLight::`vector deleting destructor', COMDAT
  00000	83 e9 04	 sub	 ecx, 4
  00003	e9 00 00 00 00	 jmp	 ??_ECLight@@UAEPAXI@Z
??_ECLight@@W3AEPAXI@Z ENDP				; [thunk]:CLight::`vector deleting destructor'
_TEXT	ENDS
; Function compile flags: /Odspy
; File C:\Program Files (x86)\Microsoft Visual Studio\2019\Community\VC\Tools\MSVC\14.28.29333\include\algorithm
; File D:\Metin2 Server Files\mainline\SRC_2014\Metin2Client\EterLib\GrpLightManager.h
; File D:\Metin2 Server Files\mainline\SRC_2014\Metin2Client\EterLib\GrpLightManager.cpp
; File C:\Program Files (x86)\Microsoft Visual Studio\2019\Community\VC\Tools\MSVC\14.28.29333\include\algorithm
; File C:\Program Files (x86)\Microsoft Visual Studio\2019\Community\VC\Tools\MSVC\14.28.29333\include\type_traits
; File C:\Program Files (x86)\Microsoft Visual Studio\2019\Community\VC\Tools\MSVC\14.28.29333\include\utility
; File C:\Program Files (x86)\Microsoft Visual Studio\2019\Community\VC\Tools\MSVC\14.28.29333\include\type_traits
; File C:\Program Files (x86)\Microsoft Visual Studio\2019\Community\VC\Tools\MSVC\14.28.29333\include\utility
; File C:\Program Files (x86)\Microsoft Visual Studio\2019\Community\VC\Tools\MSVC\14.28.29333\include\type_traits
; File C:\Program Files (x86)\Microsoft Visual Studio\2019\Community\VC\Tools\MSVC\14.28.29333\include\utility
; File D:\Metin2 Server Files\mainline\SRC_2014\Metin2Client\EterLib\GrpLightManager.h
; File D:\Metin2 Server Files\mainline\SRC_2014\Metin2Client\EterLib\GrpLightManager.cpp
; File C:\Program Files (x86)\Microsoft Visual Studio\2019\Community\VC\Tools\MSVC\14.28.29333\include\algorithm
; File C:\Program Files (x86)\Microsoft Visual Studio\2019\Community\VC\Tools\MSVC\14.28.29333\include\type_traits
; File C:\Program Files (x86)\Microsoft Visual Studio\2019\Community\VC\Tools\MSVC\14.28.29333\include\utility
; File C:\Program Files (x86)\Microsoft Visual Studio\2019\Community\VC\Tools\MSVC\14.28.29333\include\type_traits
; File C:\Program Files (x86)\Microsoft Visual Studio\2019\Community\VC\Tools\MSVC\14.28.29333\include\utility
; File C:\Program Files (x86)\Microsoft Visual Studio\2019\Community\VC\Tools\MSVC\14.28.29333\include\type_traits
; File C:\Program Files (x86)\Microsoft Visual Studio\2019\Community\VC\Tools\MSVC\14.28.29333\include\utility
; File D:\Metin2 Server Files\mainline\SRC_2014\Metin2Client\EterLib\GrpLightManager.h
; File D:\Metin2 Server Files\mainline\SRC_2014\Metin2Client\EterLib\GrpLightManager.cpp
; File C:\Program Files (x86)\Microsoft Visual Studio\2019\Community\VC\Tools\MSVC\14.28.29333\include\algorithm
; File C:\Program Files (x86)\Microsoft Visual Studio\2019\Community\VC\Tools\MSVC\14.28.29333\include\type_traits
; File C:\Program Files (x86)\Microsoft Visual Studio\2019\Community\VC\Tools\MSVC\14.28.29333\include\utility
; File C:\Program Files (x86)\Microsoft Visual Studio\2019\Community\VC\Tools\MSVC\14.28.29333\include\type_traits
; File C:\Program Files (x86)\Microsoft Visual Studio\2019\Community\VC\Tools\MSVC\14.28.29333\include\utility
; File C:\Program Files (x86)\Microsoft Visual Studio\2019\Community\VC\Tools\MSVC\14.28.29333\include\type_traits
; File C:\Program Files (x86)\Microsoft Visual Studio\2019\Community\VC\Tools\MSVC\14.28.29333\include\utility
; File C:\Program Files (x86)\Microsoft Visual Studio\2019\Community\VC\Tools\MSVC\14.28.29333\include\algorithm
;	COMDAT ??$_Med3_unchecked@PAPAVCLight@@ULightComp@@@std@@YAXPAPAVCLight@@00ULightComp@@@Z
_TEXT	SEGMENT
$T1 = -84						; size = 4
__Tmp$2 = -80						; size = 4
$T3 = -76						; size = 4
$T4 = -72						; size = 4
$T5 = -68						; size = 4
$T6 = -64						; size = 4
$T7 = -60						; size = 4
__Tmp$8 = -56						; size = 4
$T9 = -52						; size = 4
$T10 = -48						; size = 4
$T11 = -44						; size = 4
$T12 = -40						; size = 4
$T13 = -36						; size = 4
__Tmp$14 = -32						; size = 4
$T15 = -28						; size = 4
$T16 = -24						; size = 4
$T17 = -20						; size = 4
$T18 = -16						; size = 4
tv134 = -12						; size = 4
tv129 = -8						; size = 4
tv93 = -4						; size = 4
__First$ = 8						; size = 4
__Mid$ = 12						; size = 4
__Last$ = 16						; size = 4
__Pred$ = 20						; size = 1
??$_Med3_unchecked@PAPAVCLight@@ULightComp@@@std@@YAXPAPAVCLight@@00ULightComp@@@Z PROC ; std::_Med3_unchecked<CLight * *,LightComp>, COMDAT

; 7434 : _CONSTEXPR20 void _Med3_unchecked(_RanIt _First, _RanIt _Mid, _RanIt _Last, _Pr _Pred) {

  00000	55		 push	 ebp
  00001	8b ec		 mov	 ebp, esp
  00003	83 ec 54	 sub	 esp, 84			; 00000054H
; File D:\Metin2 Server Files\mainline\SRC_2014\Metin2Client\EterLib\GrpLightManager.h

; 45   : 		float		GetDistance() const { return m_fDistance;	}

  00006	8b 45 0c	 mov	 eax, DWORD PTR __Mid$[ebp]
  00009	8b 00		 mov	 eax, DWORD PTR [eax]
  0000b	f3 0f 10 40 78	 movss	 xmm0, DWORD PTR [eax+120]
  00010	f3 0f 11 45 ec	 movss	 DWORD PTR $T17[ebp], xmm0
  00015	8b 45 08	 mov	 eax, DWORD PTR __First$[ebp]
  00018	8b 00		 mov	 eax, DWORD PTR [eax]
  0001a	f3 0f 10 40 78	 movss	 xmm0, DWORD PTR [eax+120]
  0001f	f3 0f 11 45 f0	 movss	 DWORD PTR $T18[ebp], xmm0
; File D:\Metin2 Server Files\mainline\SRC_2014\Metin2Client\EterLib\GrpLightManager.cpp

; 96   : 		return l->GetDistance() < r->GetDistance();

  00024	f3 0f 10 45 f0	 movss	 xmm0, DWORD PTR $T18[ebp]
  00029	0f 2f 45 ec	 comiss	 xmm0, DWORD PTR $T17[ebp]
  0002d	76 09		 jbe	 SHORT $LN8@Med3_unche
  0002f	c7 45 fc 01 00
	00 00		 mov	 DWORD PTR tv93[ebp], 1
  00036	eb 04		 jmp	 SHORT $LN9@Med3_unche
$LN8@Med3_unche:
  00038	83 65 fc 00	 and	 DWORD PTR tv93[ebp], 0
$LN9@Med3_unche:
; File C:\Program Files (x86)\Microsoft Visual Studio\2019\Community\VC\Tools\MSVC\14.28.29333\include\algorithm

; 7436 :     if (_DEBUG_LT_PRED(_Pred, *_Mid, *_First)) {

  0003c	0f b6 45 fc	 movzx	 eax, BYTE PTR tv93[ebp]
  00040	85 c0		 test	 eax, eax
  00042	74 2e		 je	 SHORT $LN14@Med3_unche
; File C:\Program Files (x86)\Microsoft Visual Studio\2019\Community\VC\Tools\MSVC\14.28.29333\include\type_traits

; 1455 :     return static_cast<remove_reference_t<_Ty>&&>(_Arg);

  00044	8b 45 0c	 mov	 eax, DWORD PTR __Mid$[ebp]
  00047	89 45 e8	 mov	 DWORD PTR $T16[ebp], eax
; File C:\Program Files (x86)\Microsoft Visual Studio\2019\Community\VC\Tools\MSVC\14.28.29333\include\utility

; 104  :     _Ty _Tmp = _STD move(_Left);

  0004a	8b 45 e8	 mov	 eax, DWORD PTR $T16[ebp]
  0004d	8b 00		 mov	 eax, DWORD PTR [eax]
  0004f	89 45 e0	 mov	 DWORD PTR __Tmp$14[ebp], eax
; File C:\Program Files (x86)\Microsoft Visual Studio\2019\Community\VC\Tools\MSVC\14.28.29333\include\type_traits

; 1455 :     return static_cast<remove_reference_t<_Ty>&&>(_Arg);

  00052	8b 45 08	 mov	 eax, DWORD PTR __First$[ebp]
  00055	89 45 e4	 mov	 DWORD PTR $T15[ebp], eax
; File C:\Program Files (x86)\Microsoft Visual Studio\2019\Community\VC\Tools\MSVC\14.28.29333\include\utility

; 105  :     _Left    = _STD move(_Right);

  00058	8b 45 0c	 mov	 eax, DWORD PTR __Mid$[ebp]
  0005b	8b 4d e4	 mov	 ecx, DWORD PTR $T15[ebp]
  0005e	8b 09		 mov	 ecx, DWORD PTR [ecx]
  00060	89 08		 mov	 DWORD PTR [eax], ecx
; File C:\Program Files (x86)\Microsoft Visual Studio\2019\Community\VC\Tools\MSVC\14.28.29333\include\type_traits

; 1455 :     return static_cast<remove_reference_t<_Ty>&&>(_Arg);

  00062	8d 45 e0	 lea	 eax, DWORD PTR __Tmp$14[ebp]
  00065	89 45 dc	 mov	 DWORD PTR $T13[ebp], eax
; File C:\Program Files (x86)\Microsoft Visual Studio\2019\Community\VC\Tools\MSVC\14.28.29333\include\utility

; 106  :     _Right   = _STD move(_Tmp);

  00068	8b 45 08	 mov	 eax, DWORD PTR __First$[ebp]
  0006b	8b 4d dc	 mov	 ecx, DWORD PTR $T13[ebp]
  0006e	8b 09		 mov	 ecx, DWORD PTR [ecx]
  00070	89 08		 mov	 DWORD PTR [eax], ecx
$LN14@Med3_unche:
; File D:\Metin2 Server Files\mainline\SRC_2014\Metin2Client\EterLib\GrpLightManager.h

; 45   : 		float		GetDistance() const { return m_fDistance;	}

  00072	8b 45 10	 mov	 eax, DWORD PTR __Last$[ebp]
  00075	8b 00		 mov	 eax, DWORD PTR [eax]
  00077	f3 0f 10 40 78	 movss	 xmm0, DWORD PTR [eax+120]
  0007c	f3 0f 11 45 d4	 movss	 DWORD PTR $T11[ebp], xmm0
  00081	8b 45 0c	 mov	 eax, DWORD PTR __Mid$[ebp]
  00084	8b 00		 mov	 eax, DWORD PTR [eax]
  00086	f3 0f 10 40 78	 movss	 xmm0, DWORD PTR [eax+120]
  0008b	f3 0f 11 45 d8	 movss	 DWORD PTR $T12[ebp], xmm0
; File D:\Metin2 Server Files\mainline\SRC_2014\Metin2Client\EterLib\GrpLightManager.cpp

; 96   : 		return l->GetDistance() < r->GetDistance();

  00090	f3 0f 10 45 d8	 movss	 xmm0, DWORD PTR $T12[ebp]
  00095	0f 2f 45 d4	 comiss	 xmm0, DWORD PTR $T11[ebp]
  00099	76 09		 jbe	 SHORT $LN30@Med3_unche
  0009b	c7 45 f8 01 00
	00 00		 mov	 DWORD PTR tv129[ebp], 1
  000a2	eb 04		 jmp	 SHORT $LN31@Med3_unche
$LN30@Med3_unche:
  000a4	83 65 f8 00	 and	 DWORD PTR tv129[ebp], 0
$LN31@Med3_unche:
; File C:\Program Files (x86)\Microsoft Visual Studio\2019\Community\VC\Tools\MSVC\14.28.29333\include\algorithm

; 7440 :     if (_DEBUG_LT_PRED(_Pred, *_Last, *_Mid)) { // swap middle and last, then test first again

  000a8	0f b6 45 f8	 movzx	 eax, BYTE PTR tv129[ebp]
  000ac	85 c0		 test	 eax, eax
  000ae	0f 84 9a 00 00
	00		 je	 $LN58@Med3_unche
; File C:\Program Files (x86)\Microsoft Visual Studio\2019\Community\VC\Tools\MSVC\14.28.29333\include\type_traits

; 1455 :     return static_cast<remove_reference_t<_Ty>&&>(_Arg);

  000b4	8b 45 10	 mov	 eax, DWORD PTR __Last$[ebp]
  000b7	89 45 d0	 mov	 DWORD PTR $T10[ebp], eax
; File C:\Program Files (x86)\Microsoft Visual Studio\2019\Community\VC\Tools\MSVC\14.28.29333\include\utility

; 104  :     _Ty _Tmp = _STD move(_Left);

  000ba	8b 45 d0	 mov	 eax, DWORD PTR $T10[ebp]
  000bd	8b 00		 mov	 eax, DWORD PTR [eax]
  000bf	89 45 c8	 mov	 DWORD PTR __Tmp$8[ebp], eax
; File C:\Program Files (x86)\Microsoft Visual Studio\2019\Community\VC\Tools\MSVC\14.28.29333\include\type_traits

; 1455 :     return static_cast<remove_reference_t<_Ty>&&>(_Arg);

  000c2	8b 45 0c	 mov	 eax, DWORD PTR __Mid$[ebp]
  000c5	89 45 cc	 mov	 DWORD PTR $T9[ebp], eax
; File C:\Program Files (x86)\Microsoft Visual Studio\2019\Community\VC\Tools\MSVC\14.28.29333\include\utility

; 105  :     _Left    = _STD move(_Right);

  000c8	8b 45 10	 mov	 eax, DWORD PTR __Last$[ebp]
  000cb	8b 4d cc	 mov	 ecx, DWORD PTR $T9[ebp]
  000ce	8b 09		 mov	 ecx, DWORD PTR [ecx]
  000d0	89 08		 mov	 DWORD PTR [eax], ecx
; File C:\Program Files (x86)\Microsoft Visual Studio\2019\Community\VC\Tools\MSVC\14.28.29333\include\type_traits

; 1455 :     return static_cast<remove_reference_t<_Ty>&&>(_Arg);

  000d2	8d 45 c8	 lea	 eax, DWORD PTR __Tmp$8[ebp]
  000d5	89 45 c4	 mov	 DWORD PTR $T7[ebp], eax
; File C:\Program Files (x86)\Microsoft Visual Studio\2019\Community\VC\Tools\MSVC\14.28.29333\include\utility

; 106  :     _Right   = _STD move(_Tmp);

  000d8	8b 45 0c	 mov	 eax, DWORD PTR __Mid$[ebp]
  000db	8b 4d c4	 mov	 ecx, DWORD PTR $T7[ebp]
  000de	8b 09		 mov	 ecx, DWORD PTR [ecx]
  000e0	89 08		 mov	 DWORD PTR [eax], ecx
; File D:\Metin2 Server Files\mainline\SRC_2014\Metin2Client\EterLib\GrpLightManager.h

; 45   : 		float		GetDistance() const { return m_fDistance;	}

  000e2	8b 45 0c	 mov	 eax, DWORD PTR __Mid$[ebp]
  000e5	8b 00		 mov	 eax, DWORD PTR [eax]
  000e7	f3 0f 10 40 78	 movss	 xmm0, DWORD PTR [eax+120]
  000ec	f3 0f 11 45 bc	 movss	 DWORD PTR $T5[ebp], xmm0
  000f1	8b 45 08	 mov	 eax, DWORD PTR __First$[ebp]
  000f4	8b 00		 mov	 eax, DWORD PTR [eax]
  000f6	f3 0f 10 40 78	 movss	 xmm0, DWORD PTR [eax+120]
  000fb	f3 0f 11 45 c0	 movss	 DWORD PTR $T6[ebp], xmm0
; File D:\Metin2 Server Files\mainline\SRC_2014\Metin2Client\EterLib\GrpLightManager.cpp

; 96   : 		return l->GetDistance() < r->GetDistance();

  00100	f3 0f 10 45 c0	 movss	 xmm0, DWORD PTR $T6[ebp]
  00105	0f 2f 45 bc	 comiss	 xmm0, DWORD PTR $T5[ebp]
  00109	76 09		 jbe	 SHORT $LN52@Med3_unche
  0010b	c7 45 f4 01 00
	00 00		 mov	 DWORD PTR tv134[ebp], 1
  00112	eb 04		 jmp	 SHORT $LN53@Med3_unche
$LN52@Med3_unche:
  00114	83 65 f4 00	 and	 DWORD PTR tv134[ebp], 0
$LN53@Med3_unche:
; File C:\Program Files (x86)\Microsoft Visual Studio\2019\Community\VC\Tools\MSVC\14.28.29333\include\algorithm

; 7443 :         if (_DEBUG_LT_PRED(_Pred, *_Mid, *_First)) {

  00118	0f b6 45 f4	 movzx	 eax, BYTE PTR tv134[ebp]
  0011c	85 c0		 test	 eax, eax
  0011e	74 2e		 je	 SHORT $LN58@Med3_unche
; File C:\Program Files (x86)\Microsoft Visual Studio\2019\Community\VC\Tools\MSVC\14.28.29333\include\type_traits

; 1455 :     return static_cast<remove_reference_t<_Ty>&&>(_Arg);

  00120	8b 45 0c	 mov	 eax, DWORD PTR __Mid$[ebp]
  00123	89 45 b8	 mov	 DWORD PTR $T4[ebp], eax
; File C:\Program Files (x86)\Microsoft Visual Studio\2019\Community\VC\Tools\MSVC\14.28.29333\include\utility

; 104  :     _Ty _Tmp = _STD move(_Left);

  00126	8b 45 b8	 mov	 eax, DWORD PTR $T4[ebp]
  00129	8b 00		 mov	 eax, DWORD PTR [eax]
  0012b	89 45 b0	 mov	 DWORD PTR __Tmp$2[ebp], eax
; File C:\Program Files (x86)\Microsoft Visual Studio\2019\Community\VC\Tools\MSVC\14.28.29333\include\type_traits

; 1455 :     return static_cast<remove_reference_t<_Ty>&&>(_Arg);

  0012e	8b 45 08	 mov	 eax, DWORD PTR __First$[ebp]
  00131	89 45 b4	 mov	 DWORD PTR $T3[ebp], eax
; File C:\Program Files (x86)\Microsoft Visual Studio\2019\Community\VC\Tools\MSVC\14.28.29333\include\utility

; 105  :     _Left    = _STD move(_Right);

  00134	8b 45 0c	 mov	 eax, DWORD PTR __Mid$[ebp]
  00137	8b 4d b4	 mov	 ecx, DWORD PTR $T3[ebp]
  0013a	8b 09		 mov	 ecx, DWORD PTR [ecx]
  0013c	89 08		 mov	 DWORD PTR [eax], ecx
; File C:\Program Files (x86)\Microsoft Visual Studio\2019\Community\VC\Tools\MSVC\14.28.29333\include\type_traits

; 1455 :     return static_cast<remove_reference_t<_Ty>&&>(_Arg);

  0013e	8d 45 b0	 lea	 eax, DWORD PTR __Tmp$2[ebp]
  00141	89 45 ac	 mov	 DWORD PTR $T1[ebp], eax
; File C:\Program Files (x86)\Microsoft Visual Studio\2019\Community\VC\Tools\MSVC\14.28.29333\include\utility

; 106  :     _Right   = _STD move(_Tmp);

  00144	8b 45 08	 mov	 eax, DWORD PTR __First$[ebp]
  00147	8b 4d ac	 mov	 ecx, DWORD PTR $T1[ebp]
  0014a	8b 09		 mov	 ecx, DWORD PTR [ecx]
  0014c	89 08		 mov	 DWORD PTR [eax], ecx
$LN58@Med3_unche:
; File C:\Program Files (x86)\Microsoft Visual Studio\2019\Community\VC\Tools\MSVC\14.28.29333\include\algorithm

; 7447 : }

  0014e	c9		 leave
  0014f	c3		 ret	 0
??$_Med3_unchecked@PAPAVCLight@@ULightComp@@@std@@YAXPAPAVCLight@@00ULightComp@@@Z ENDP ; std::_Med3_unchecked<CLight * *,LightComp>
_TEXT	ENDS
; Function compile flags: /Odspy
; File C:\Program Files (x86)\Microsoft Visual Studio\2019\Community\VC\Tools\MSVC\14.28.29333\include\algorithm
; File D:\Metin2 Server Files\mainline\SRC_2014\Metin2Client\EterLib\GrpLightManager.h
; File D:\Metin2 Server Files\mainline\SRC_2014\Metin2Client\EterLib\GrpLightManager.cpp
; File C:\Program Files (x86)\Microsoft Visual Studio\2019\Community\VC\Tools\MSVC\14.28.29333\include\algorithm
; File C:\Program Files (x86)\Microsoft Visual Studio\2019\Community\VC\Tools\MSVC\14.28.29333\include\type_traits
; File C:\Program Files (x86)\Microsoft Visual Studio\2019\Community\VC\Tools\MSVC\14.28.29333\include\algorithm
; File C:\Program Files (x86)\Microsoft Visual Studio\2019\Community\VC\Tools\MSVC\14.28.29333\include\type_traits
; File C:\Program Files (x86)\Microsoft Visual Studio\2019\Community\VC\Tools\MSVC\14.28.29333\include\algorithm
;	COMDAT ??$_Push_heap_by_index@PAPAVCLight@@PAV1@ULightComp@@@std@@YAXPAPAVCLight@@HH$$QAPAV1@ULightComp@@@Z
_TEXT	SEGMENT
$T1 = -24						; size = 4
$T2 = -20						; size = 4
$T3 = -16						; size = 4
$T4 = -12						; size = 4
tv92 = -8						; size = 4
__Idx$5 = -4						; size = 4
__First$ = 8						; size = 4
__Hole$ = 12						; size = 4
__Top$ = 16						; size = 4
__Val$ = 20						; size = 4
__Pred$ = 24						; size = 1
??$_Push_heap_by_index@PAPAVCLight@@PAV1@ULightComp@@@std@@YAXPAPAVCLight@@HH$$QAPAV1@ULightComp@@@Z PROC ; std::_Push_heap_by_index<CLight * *,CLight *,LightComp>, COMDAT

; 6073 :     _RanIt _First, _Iter_diff_t<_RanIt> _Hole, _Iter_diff_t<_RanIt> _Top, _Ty&& _Val, _Pr _Pred) {

  00000	55		 push	 ebp
  00001	8b ec		 mov	 ebp, esp
  00003	83 ec 18	 sub	 esp, 24			; 00000018H

; 6074 :     // percolate _Hole to _Top or where _Val belongs
; 6075 :     using _Diff = _Iter_diff_t<_RanIt>;
; 6076 :     for (_Diff _Idx = (_Hole - 1) >> 1; // shift for codegen

  00006	8b 45 0c	 mov	 eax, DWORD PTR __Hole$[ebp]
  00009	48		 dec	 eax
  0000a	d1 f8		 sar	 eax, 1
  0000c	89 45 fc	 mov	 DWORD PTR __Idx$5[ebp], eax
  0000f	eb 09		 jmp	 SHORT $LN4@Push_heap_
$LN2@Push_heap_:

; 6078 :          _Idx = (_Hole - 1) >> 1) { // shift for codegen

  00011	8b 45 0c	 mov	 eax, DWORD PTR __Hole$[ebp]
  00014	48		 dec	 eax
  00015	d1 f8		 sar	 eax, 1
  00017	89 45 fc	 mov	 DWORD PTR __Idx$5[ebp], eax
$LN4@Push_heap_:

; 6077 :          _Top < _Hole && _DEBUG_LT_PRED(_Pred, *(_First + _Idx), _Val); //

  0001a	8b 45 10	 mov	 eax, DWORD PTR __Top$[ebp]
  0001d	3b 45 0c	 cmp	 eax, DWORD PTR __Hole$[ebp]
  00020	7d 64		 jge	 SHORT $LN3@Push_heap_
; File D:\Metin2 Server Files\mainline\SRC_2014\Metin2Client\EterLib\GrpLightManager.h

; 45   : 		float		GetDistance() const { return m_fDistance;	}

  00022	8b 45 fc	 mov	 eax, DWORD PTR __Idx$5[ebp]
  00025	8b 4d 08	 mov	 ecx, DWORD PTR __First$[ebp]
  00028	8b 04 81	 mov	 eax, DWORD PTR [ecx+eax*4]
  0002b	f3 0f 10 40 78	 movss	 xmm0, DWORD PTR [eax+120]
  00030	f3 0f 11 45 f0	 movss	 DWORD PTR $T3[ebp], xmm0
  00035	8b 45 14	 mov	 eax, DWORD PTR __Val$[ebp]
  00038	8b 00		 mov	 eax, DWORD PTR [eax]
  0003a	f3 0f 10 40 78	 movss	 xmm0, DWORD PTR [eax+120]
  0003f	f3 0f 11 45 f4	 movss	 DWORD PTR $T4[ebp], xmm0
; File D:\Metin2 Server Files\mainline\SRC_2014\Metin2Client\EterLib\GrpLightManager.cpp

; 96   : 		return l->GetDistance() < r->GetDistance();

  00044	f3 0f 10 45 f4	 movss	 xmm0, DWORD PTR $T4[ebp]
  00049	0f 2f 45 f0	 comiss	 xmm0, DWORD PTR $T3[ebp]
  0004d	76 09		 jbe	 SHORT $LN8@Push_heap_
  0004f	c7 45 f8 01 00
	00 00		 mov	 DWORD PTR tv92[ebp], 1
  00056	eb 04		 jmp	 SHORT $LN9@Push_heap_
$LN8@Push_heap_:
  00058	83 65 f8 00	 and	 DWORD PTR tv92[ebp], 0
$LN9@Push_heap_:
; File C:\Program Files (x86)\Microsoft Visual Studio\2019\Community\VC\Tools\MSVC\14.28.29333\include\algorithm

; 6077 :          _Top < _Hole && _DEBUG_LT_PRED(_Pred, *(_First + _Idx), _Val); //

  0005c	0f b6 45 f8	 movzx	 eax, BYTE PTR tv92[ebp]
  00060	85 c0		 test	 eax, eax
  00062	74 22		 je	 SHORT $LN3@Push_heap_

; 6080 :         *(_First + _Hole) = _STD move(*(_First + _Idx));

  00064	8b 45 fc	 mov	 eax, DWORD PTR __Idx$5[ebp]
  00067	8b 4d 08	 mov	 ecx, DWORD PTR __First$[ebp]
  0006a	8d 04 81	 lea	 eax, DWORD PTR [ecx+eax*4]
; File C:\Program Files (x86)\Microsoft Visual Studio\2019\Community\VC\Tools\MSVC\14.28.29333\include\type_traits

; 1455 :     return static_cast<remove_reference_t<_Ty>&&>(_Arg);

  0006d	89 45 ec	 mov	 DWORD PTR $T2[ebp], eax
; File C:\Program Files (x86)\Microsoft Visual Studio\2019\Community\VC\Tools\MSVC\14.28.29333\include\algorithm

; 6080 :         *(_First + _Hole) = _STD move(*(_First + _Idx));

  00070	8b 45 0c	 mov	 eax, DWORD PTR __Hole$[ebp]
  00073	8b 4d 08	 mov	 ecx, DWORD PTR __First$[ebp]
  00076	8b 55 ec	 mov	 edx, DWORD PTR $T2[ebp]
  00079	8b 12		 mov	 edx, DWORD PTR [edx]
  0007b	89 14 81	 mov	 DWORD PTR [ecx+eax*4], edx

; 6081 :         _Hole             = _Idx;

  0007e	8b 45 fc	 mov	 eax, DWORD PTR __Idx$5[ebp]
  00081	89 45 0c	 mov	 DWORD PTR __Hole$[ebp], eax

; 6082 :     }

  00084	eb 8b		 jmp	 SHORT $LN2@Push_heap_
$LN3@Push_heap_:
; File C:\Program Files (x86)\Microsoft Visual Studio\2019\Community\VC\Tools\MSVC\14.28.29333\include\type_traits

; 1443 :     return static_cast<_Ty&&>(_Arg);

  00086	8b 45 14	 mov	 eax, DWORD PTR __Val$[ebp]
  00089	89 45 e8	 mov	 DWORD PTR $T1[ebp], eax
; File C:\Program Files (x86)\Microsoft Visual Studio\2019\Community\VC\Tools\MSVC\14.28.29333\include\algorithm

; 6084 :     *(_First + _Hole) = _STD forward<_Ty>(_Val); // drop _Val into final hole

  0008c	8b 45 0c	 mov	 eax, DWORD PTR __Hole$[ebp]
  0008f	8b 4d 08	 mov	 ecx, DWORD PTR __First$[ebp]
  00092	8b 55 e8	 mov	 edx, DWORD PTR $T1[ebp]
  00095	8b 12		 mov	 edx, DWORD PTR [edx]
  00097	89 14 81	 mov	 DWORD PTR [ecx+eax*4], edx

; 6085 : }

  0009a	c9		 leave
  0009b	c3		 ret	 0
??$_Push_heap_by_index@PAPAVCLight@@PAV1@ULightComp@@@std@@YAXPAPAVCLight@@HH$$QAPAV1@ULightComp@@@Z ENDP ; std::_Push_heap_by_index<CLight * *,CLight *,LightComp>
_TEXT	ENDS
; Function compile flags: /Odspy
; File C:\Program Files (x86)\Microsoft Visual Studio\2019\Community\VC\Tools\MSVC\14.28.29333\include\xutility
;	COMDAT ??$_Copy_backward_memmove@PAPAVCLight@@PAPAV1@@std@@YAPAPAVCLight@@PAPAV1@00@Z
_TEXT	SEGMENT
__Dest_ch$ = -16					; size = 4
__Last_ch$ = -12					; size = 4
__Count$ = -8						; size = 4
__First_ch$ = -4					; size = 4
__First$ = 8						; size = 4
__Last$ = 12						; size = 4
__Dest$ = 16						; size = 4
??$_Copy_backward_memmove@PAPAVCLight@@PAPAV1@@std@@YAPAPAVCLight@@PAPAV1@00@Z PROC ; std::_Copy_backward_memmove<CLight * *,CLight * *>, COMDAT

; 4535 : _BidIt2 _Copy_backward_memmove(_BidIt1 _First, _BidIt1 _Last, _BidIt2 _Dest) {

  00000	55		 push	 ebp
  00001	8b ec		 mov	 ebp, esp
  00003	83 ec 10	 sub	 esp, 16			; 00000010H

; 4536 :     // implement copy_backward-like function as memmove
; 4537 :     const char* const _First_ch = const_cast<const char*>(reinterpret_cast<const volatile char*>(_First));

  00006	8b 45 08	 mov	 eax, DWORD PTR __First$[ebp]
  00009	89 45 fc	 mov	 DWORD PTR __First_ch$[ebp], eax

; 4538 :     const char* const _Last_ch  = const_cast<const char*>(reinterpret_cast<const volatile char*>(_Last));

  0000c	8b 45 0c	 mov	 eax, DWORD PTR __Last$[ebp]
  0000f	89 45 f4	 mov	 DWORD PTR __Last_ch$[ebp], eax

; 4539 :     char* const _Dest_ch        = const_cast<char*>(reinterpret_cast<volatile char*>(_Dest));

  00012	8b 45 10	 mov	 eax, DWORD PTR __Dest$[ebp]
  00015	89 45 f0	 mov	 DWORD PTR __Dest_ch$[ebp], eax

; 4540 :     const auto _Count           = static_cast<size_t>(_Last_ch - _First_ch);

  00018	8b 45 f4	 mov	 eax, DWORD PTR __Last_ch$[ebp]
  0001b	2b 45 fc	 sub	 eax, DWORD PTR __First_ch$[ebp]
  0001e	89 45 f8	 mov	 DWORD PTR __Count$[ebp], eax

; 4541 :     return static_cast<_BidIt2>(_CSTD memmove(_Dest_ch - _Count, _First_ch, _Count));

  00021	ff 75 f8	 push	 DWORD PTR __Count$[ebp]
  00024	ff 75 fc	 push	 DWORD PTR __First_ch$[ebp]
  00027	8b 45 f0	 mov	 eax, DWORD PTR __Dest_ch$[ebp]
  0002a	2b 45 f8	 sub	 eax, DWORD PTR __Count$[ebp]
  0002d	50		 push	 eax
  0002e	e8 00 00 00 00	 call	 _memmove
  00033	83 c4 0c	 add	 esp, 12			; 0000000cH

; 4542 : }

  00036	c9		 leave
  00037	c3		 ret	 0
??$_Copy_backward_memmove@PAPAVCLight@@PAPAV1@@std@@YAPAPAVCLight@@PAPAV1@00@Z ENDP ; std::_Copy_backward_memmove<CLight * *,CLight * *>
_TEXT	ENDS
; Function compile flags: /Odspy
; File C:\Program Files (x86)\Microsoft Visual Studio\2019\Community\VC\Tools\MSVC\14.28.29333\include\algorithm
;	COMDAT ??$_Guess_median_unchecked@PAPAVCLight@@ULightComp@@@std@@YAXPAPAVCLight@@00ULightComp@@@Z
_TEXT	SEGMENT
__Two_step$1 = -12					; size = 4
__Count$ = -8						; size = 4
__Step$2 = -4						; size = 4
__First$ = 8						; size = 4
__Mid$ = 12						; size = 4
__Last$ = 16						; size = 4
__Pred$ = 20						; size = 1
??$_Guess_median_unchecked@PAPAVCLight@@ULightComp@@@std@@YAXPAPAVCLight@@00ULightComp@@@Z PROC ; std::_Guess_median_unchecked<CLight * *,LightComp>, COMDAT

; 7450 : _CONSTEXPR20 void _Guess_median_unchecked(_RanIt _First, _RanIt _Mid, _RanIt _Last, _Pr _Pred) {

  00000	55		 push	 ebp
  00001	8b ec		 mov	 ebp, esp
  00003	83 ec 0c	 sub	 esp, 12			; 0000000cH

; 7451 :     // sort median element to middle
; 7452 :     using _Diff        = _Iter_diff_t<_RanIt>;
; 7453 :     const _Diff _Count = _Last - _First;

  00006	8b 45 10	 mov	 eax, DWORD PTR __Last$[ebp]
  00009	2b 45 08	 sub	 eax, DWORD PTR __First$[ebp]
  0000c	c1 f8 02	 sar	 eax, 2
  0000f	89 45 f8	 mov	 DWORD PTR __Count$[ebp], eax

; 7454 :     if (40 < _Count) { // Tukey's ninther

  00012	83 7d f8 28	 cmp	 DWORD PTR __Count$[ebp], 40 ; 00000028H
  00016	0f 8e a4 00 00
	00		 jle	 $LN2@Guess_medi

; 7455 :         const _Diff _Step     = (_Count + 1) >> 3; // +1 can't overflow because range was made inclusive in caller

  0001c	8b 45 f8	 mov	 eax, DWORD PTR __Count$[ebp]
  0001f	40		 inc	 eax
  00020	c1 f8 03	 sar	 eax, 3
  00023	89 45 fc	 mov	 DWORD PTR __Step$2[ebp], eax

; 7456 :         const _Diff _Two_step = _Step << 1; // note: intentionally discards low-order bit

  00026	8b 45 fc	 mov	 eax, DWORD PTR __Step$2[ebp]
  00029	d1 e0		 shl	 eax, 1
  0002b	89 45 f4	 mov	 DWORD PTR __Two_step$1[ebp], eax

; 7457 :         _Med3_unchecked(_First, _First + _Step, _First + _Two_step, _Pred);

  0002e	ff 75 14	 push	 DWORD PTR __Pred$[ebp]
  00031	8b 45 f4	 mov	 eax, DWORD PTR __Two_step$1[ebp]
  00034	8b 4d 08	 mov	 ecx, DWORD PTR __First$[ebp]
  00037	8d 04 81	 lea	 eax, DWORD PTR [ecx+eax*4]
  0003a	50		 push	 eax
  0003b	8b 45 fc	 mov	 eax, DWORD PTR __Step$2[ebp]
  0003e	8b 4d 08	 mov	 ecx, DWORD PTR __First$[ebp]
  00041	8d 04 81	 lea	 eax, DWORD PTR [ecx+eax*4]
  00044	50		 push	 eax
  00045	ff 75 08	 push	 DWORD PTR __First$[ebp]
  00048	e8 00 00 00 00	 call	 ??$_Med3_unchecked@PAPAVCLight@@ULightComp@@@std@@YAXPAPAVCLight@@00ULightComp@@@Z ; std::_Med3_unchecked<CLight * *,LightComp>
  0004d	83 c4 10	 add	 esp, 16			; 00000010H

; 7458 :         _Med3_unchecked(_Mid - _Step, _Mid, _Mid + _Step, _Pred);

  00050	ff 75 14	 push	 DWORD PTR __Pred$[ebp]
  00053	8b 45 fc	 mov	 eax, DWORD PTR __Step$2[ebp]
  00056	8b 4d 0c	 mov	 ecx, DWORD PTR __Mid$[ebp]
  00059	8d 04 81	 lea	 eax, DWORD PTR [ecx+eax*4]
  0005c	50		 push	 eax
  0005d	ff 75 0c	 push	 DWORD PTR __Mid$[ebp]
  00060	8b 45 fc	 mov	 eax, DWORD PTR __Step$2[ebp]
  00063	c1 e0 02	 shl	 eax, 2
  00066	8b 4d 0c	 mov	 ecx, DWORD PTR __Mid$[ebp]
  00069	2b c8		 sub	 ecx, eax
  0006b	51		 push	 ecx
  0006c	e8 00 00 00 00	 call	 ??$_Med3_unchecked@PAPAVCLight@@ULightComp@@@std@@YAXPAPAVCLight@@00ULightComp@@@Z ; std::_Med3_unchecked<CLight * *,LightComp>
  00071	83 c4 10	 add	 esp, 16			; 00000010H

; 7459 :         _Med3_unchecked(_Last - _Two_step, _Last - _Step, _Last, _Pred);

  00074	ff 75 14	 push	 DWORD PTR __Pred$[ebp]
  00077	ff 75 10	 push	 DWORD PTR __Last$[ebp]
  0007a	8b 45 fc	 mov	 eax, DWORD PTR __Step$2[ebp]
  0007d	c1 e0 02	 shl	 eax, 2
  00080	8b 4d 10	 mov	 ecx, DWORD PTR __Last$[ebp]
  00083	2b c8		 sub	 ecx, eax
  00085	51		 push	 ecx
  00086	8b 45 f4	 mov	 eax, DWORD PTR __Two_step$1[ebp]
  00089	c1 e0 02	 shl	 eax, 2
  0008c	8b 4d 10	 mov	 ecx, DWORD PTR __Last$[ebp]
  0008f	2b c8		 sub	 ecx, eax
  00091	51		 push	 ecx
  00092	e8 00 00 00 00	 call	 ??$_Med3_unchecked@PAPAVCLight@@ULightComp@@@std@@YAXPAPAVCLight@@00ULightComp@@@Z ; std::_Med3_unchecked<CLight * *,LightComp>
  00097	83 c4 10	 add	 esp, 16			; 00000010H

; 7460 :         _Med3_unchecked(_First + _Step, _Mid, _Last - _Step, _Pred);

  0009a	ff 75 14	 push	 DWORD PTR __Pred$[ebp]
  0009d	8b 45 fc	 mov	 eax, DWORD PTR __Step$2[ebp]
  000a0	c1 e0 02	 shl	 eax, 2
  000a3	8b 4d 10	 mov	 ecx, DWORD PTR __Last$[ebp]
  000a6	2b c8		 sub	 ecx, eax
  000a8	51		 push	 ecx
  000a9	ff 75 0c	 push	 DWORD PTR __Mid$[ebp]
  000ac	8b 45 fc	 mov	 eax, DWORD PTR __Step$2[ebp]
  000af	8b 4d 08	 mov	 ecx, DWORD PTR __First$[ebp]
  000b2	8d 04 81	 lea	 eax, DWORD PTR [ecx+eax*4]
  000b5	50		 push	 eax
  000b6	e8 00 00 00 00	 call	 ??$_Med3_unchecked@PAPAVCLight@@ULightComp@@@std@@YAXPAPAVCLight@@00ULightComp@@@Z ; std::_Med3_unchecked<CLight * *,LightComp>
  000bb	83 c4 10	 add	 esp, 16			; 00000010H

; 7461 :     } else {

  000be	eb 14		 jmp	 SHORT $LN1@Guess_medi
$LN2@Guess_medi:

; 7462 :         _Med3_unchecked(_First, _Mid, _Last, _Pred);

  000c0	ff 75 14	 push	 DWORD PTR __Pred$[ebp]
  000c3	ff 75 10	 push	 DWORD PTR __Last$[ebp]
  000c6	ff 75 0c	 push	 DWORD PTR __Mid$[ebp]
  000c9	ff 75 08	 push	 DWORD PTR __First$[ebp]
  000cc	e8 00 00 00 00	 call	 ??$_Med3_unchecked@PAPAVCLight@@ULightComp@@@std@@YAXPAPAVCLight@@00ULightComp@@@Z ; std::_Med3_unchecked<CLight * *,LightComp>
  000d1	83 c4 10	 add	 esp, 16			; 00000010H
$LN1@Guess_medi:

; 7463 :     }
; 7464 : }

  000d4	c9		 leave
  000d5	c3		 ret	 0
??$_Guess_median_unchecked@PAPAVCLight@@ULightComp@@@std@@YAXPAPAVCLight@@00ULightComp@@@Z ENDP ; std::_Guess_median_unchecked<CLight * *,LightComp>
_TEXT	ENDS
; Function compile flags: /Odspy
; File C:\Program Files (x86)\Microsoft Visual Studio\2019\Community\VC\Tools\MSVC\14.28.29333\include\algorithm
; File C:\Program Files (x86)\Microsoft Visual Studio\2019\Community\VC\Tools\MSVC\14.28.29333\include\type_traits
; File C:\Program Files (x86)\Microsoft Visual Studio\2019\Community\VC\Tools\MSVC\14.28.29333\include\algorithm
; File C:\Program Files (x86)\Microsoft Visual Studio\2019\Community\VC\Tools\MSVC\14.28.29333\include\type_traits
; File C:\Program Files (x86)\Microsoft Visual Studio\2019\Community\VC\Tools\MSVC\14.28.29333\include\algorithm
; File C:\Program Files (x86)\Microsoft Visual Studio\2019\Community\VC\Tools\MSVC\14.28.29333\include\type_traits
; File C:\Program Files (x86)\Microsoft Visual Studio\2019\Community\VC\Tools\MSVC\14.28.29333\include\algorithm
;	COMDAT ??$_Pop_heap_unchecked@PAPAVCLight@@ULightComp@@@std@@YAXPAPAVCLight@@0ULightComp@@@Z
_TEXT	SEGMENT
$T1 = -20						; size = 4
$T2 = -16						; size = 4
$T3 = -12						; size = 4
__Val$4 = -8						; size = 4
$T5 = -4						; size = 4
__First$ = 8						; size = 4
__Last$ = 12						; size = 4
__Pred$ = 16						; size = 1
??$_Pop_heap_unchecked@PAPAVCLight@@ULightComp@@@std@@YAXPAPAVCLight@@0ULightComp@@@Z PROC ; std::_Pop_heap_unchecked<CLight * *,LightComp>, COMDAT

; 6226 : _CONSTEXPR20 void _Pop_heap_unchecked(_RanIt _First, _RanIt _Last, _Pr _Pred) {

  00000	55		 push	 ebp
  00001	8b ec		 mov	 ebp, esp
  00003	83 ec 14	 sub	 esp, 20			; 00000014H

; 6227 :     // pop *_First to *(_Last - 1) and reheap
; 6228 :     if (2 <= _Last - _First) {

  00006	8b 45 0c	 mov	 eax, DWORD PTR __Last$[ebp]
  00009	2b 45 08	 sub	 eax, DWORD PTR __First$[ebp]
  0000c	c1 f8 02	 sar	 eax, 2
  0000f	83 f8 02	 cmp	 eax, 2
  00012	7c 50		 jl	 SHORT $LN1@Pop_heap_u

; 6229 :         --_Last;

  00014	8b 45 0c	 mov	 eax, DWORD PTR __Last$[ebp]
  00017	83 e8 04	 sub	 eax, 4
  0001a	89 45 0c	 mov	 DWORD PTR __Last$[ebp], eax
; File C:\Program Files (x86)\Microsoft Visual Studio\2019\Community\VC\Tools\MSVC\14.28.29333\include\type_traits

; 1455 :     return static_cast<remove_reference_t<_Ty>&&>(_Arg);

  0001d	8b 45 0c	 mov	 eax, DWORD PTR __Last$[ebp]
  00020	89 45 fc	 mov	 DWORD PTR $T5[ebp], eax
; File C:\Program Files (x86)\Microsoft Visual Studio\2019\Community\VC\Tools\MSVC\14.28.29333\include\algorithm

; 6230 :         _Iter_value_t<_RanIt> _Val = _STD move(*_Last);

  00023	8b 45 fc	 mov	 eax, DWORD PTR $T5[ebp]
  00026	8b 00		 mov	 eax, DWORD PTR [eax]
  00028	89 45 f8	 mov	 DWORD PTR __Val$4[ebp], eax
; File C:\Program Files (x86)\Microsoft Visual Studio\2019\Community\VC\Tools\MSVC\14.28.29333\include\type_traits

; 1455 :     return static_cast<remove_reference_t<_Ty>&&>(_Arg);

  0002b	8d 45 f8	 lea	 eax, DWORD PTR __Val$4[ebp]
  0002e	89 45 f0	 mov	 DWORD PTR $T2[ebp], eax
  00031	8b 45 08	 mov	 eax, DWORD PTR __First$[ebp]
  00034	89 45 f4	 mov	 DWORD PTR $T3[ebp], eax
; File C:\Program Files (x86)\Microsoft Visual Studio\2019\Community\VC\Tools\MSVC\14.28.29333\include\algorithm

; 6219 :     *_Dest      = _STD move(*_First);

  00037	8b 45 0c	 mov	 eax, DWORD PTR __Last$[ebp]
  0003a	8b 4d f4	 mov	 ecx, DWORD PTR $T3[ebp]
  0003d	8b 09		 mov	 ecx, DWORD PTR [ecx]
  0003f	89 08		 mov	 DWORD PTR [eax], ecx
; File C:\Program Files (x86)\Microsoft Visual Studio\2019\Community\VC\Tools\MSVC\14.28.29333\include\type_traits

; 1443 :     return static_cast<_Ty&&>(_Arg);

  00041	8b 45 f0	 mov	 eax, DWORD PTR $T2[ebp]
  00044	89 45 ec	 mov	 DWORD PTR $T1[ebp], eax
; File C:\Program Files (x86)\Microsoft Visual Studio\2019\Community\VC\Tools\MSVC\14.28.29333\include\algorithm

; 6221 :     _Pop_heap_hole_by_index(

  00047	ff 75 10	 push	 DWORD PTR __Pred$[ebp]
  0004a	ff 75 ec	 push	 DWORD PTR $T1[ebp]
  0004d	8b 45 0c	 mov	 eax, DWORD PTR __Last$[ebp]
  00050	2b 45 08	 sub	 eax, DWORD PTR __First$[ebp]
  00053	c1 f8 02	 sar	 eax, 2
  00056	50		 push	 eax
  00057	6a 00		 push	 0
  00059	ff 75 08	 push	 DWORD PTR __First$[ebp]
  0005c	e8 00 00 00 00	 call	 ??$_Pop_heap_hole_by_index@PAPAVCLight@@PAV1@ULightComp@@@std@@YAXPAPAVCLight@@HH$$QAPAV1@ULightComp@@@Z ; std::_Pop_heap_hole_by_index<CLight * *,CLight *,LightComp>
  00061	83 c4 14	 add	 esp, 20			; 00000014H
$LN1@Pop_heap_u:

; 6231 :         _Pop_heap_hole_unchecked(_First, _Last, _Last, _STD move(_Val), _Pred);
; 6232 :     }
; 6233 : }

  00064	c9		 leave
  00065	c3		 ret	 0
??$_Pop_heap_unchecked@PAPAVCLight@@ULightComp@@@std@@YAXPAPAVCLight@@0ULightComp@@@Z ENDP ; std::_Pop_heap_unchecked<CLight * *,LightComp>
_TEXT	ENDS
; Function compile flags: /Odspy
; File C:\Program Files (x86)\Microsoft Visual Studio\2019\Community\VC\Tools\MSVC\14.28.29333\include\algorithm
; File D:\Metin2 Server Files\mainline\SRC_2014\Metin2Client\EterLib\GrpLightManager.h
; File D:\Metin2 Server Files\mainline\SRC_2014\Metin2Client\EterLib\GrpLightManager.cpp
; File C:\Program Files (x86)\Microsoft Visual Studio\2019\Community\VC\Tools\MSVC\14.28.29333\include\algorithm
; File C:\Program Files (x86)\Microsoft Visual Studio\2019\Community\VC\Tools\MSVC\14.28.29333\include\type_traits
; File C:\Program Files (x86)\Microsoft Visual Studio\2019\Community\VC\Tools\MSVC\14.28.29333\include\algorithm
; File C:\Program Files (x86)\Microsoft Visual Studio\2019\Community\VC\Tools\MSVC\14.28.29333\include\type_traits
; File C:\Program Files (x86)\Microsoft Visual Studio\2019\Community\VC\Tools\MSVC\14.28.29333\include\algorithm
; File C:\Program Files (x86)\Microsoft Visual Studio\2019\Community\VC\Tools\MSVC\14.28.29333\include\type_traits
; File C:\Program Files (x86)\Microsoft Visual Studio\2019\Community\VC\Tools\MSVC\14.28.29333\include\algorithm
;	COMDAT ??$_Pop_heap_hole_by_index@PAPAVCLight@@PAV1@ULightComp@@@std@@YAXPAPAVCLight@@HH$$QAPAV1@ULightComp@@@Z
_TEXT	SEGMENT
__Top$ = -36						; size = 4
$T1 = -32						; size = 4
$T2 = -28						; size = 4
$T3 = -24						; size = 4
$T4 = -20						; size = 4
$T5 = -16						; size = 4
__Max_sequence_non_leaf$ = -12				; size = 4
tv142 = -8						; size = 4
__Idx$ = -4						; size = 4
__First$ = 8						; size = 4
__Hole$ = 12						; size = 4
__Bottom$ = 16						; size = 4
__Val$ = 20						; size = 4
__Pred$ = 24						; size = 1
??$_Pop_heap_hole_by_index@PAPAVCLight@@PAV1@ULightComp@@@std@@YAXPAPAVCLight@@HH$$QAPAV1@ULightComp@@@Z PROC ; std::_Pop_heap_hole_by_index<CLight * *,CLight *,LightComp>, COMDAT

; 6186 :     _RanIt _First, _Iter_diff_t<_RanIt> _Hole, _Iter_diff_t<_RanIt> _Bottom, _Ty&& _Val, _Pr _Pred) {

  00000	55		 push	 ebp
  00001	8b ec		 mov	 ebp, esp
  00003	83 ec 24	 sub	 esp, 36			; 00000024H

; 6187 :     // percolate _Hole to _Bottom, then push _Val
; 6188 :     _STL_INTERNAL_CHECK(_Bottom > 0);
; 6189 : 
; 6190 :     using _Diff      = _Iter_diff_t<_RanIt>;
; 6191 :     const _Diff _Top = _Hole;

  00006	8b 45 0c	 mov	 eax, DWORD PTR __Hole$[ebp]
  00009	89 45 dc	 mov	 DWORD PTR __Top$[ebp], eax

; 6192 :     _Diff _Idx       = _Hole;

  0000c	8b 45 0c	 mov	 eax, DWORD PTR __Hole$[ebp]
  0000f	89 45 fc	 mov	 DWORD PTR __Idx$[ebp], eax

; 6193 : 
; 6194 :     // Check whether _Idx can have a child before calculating that child's index, since
; 6195 :     // calculating the child's index can trigger integer overflows
; 6196 :     const _Diff _Max_sequence_non_leaf = (_Bottom - 1) >> 1; // shift for codegen

  00012	8b 45 10	 mov	 eax, DWORD PTR __Bottom$[ebp]
  00015	48		 dec	 eax
  00016	d1 f8		 sar	 eax, 1
  00018	89 45 f4	 mov	 DWORD PTR __Max_sequence_non_leaf$[ebp], eax
$LN2@Pop_heap_h:

; 6197 :     while (_Idx < _Max_sequence_non_leaf) { // move _Hole down to larger child

  0001b	8b 45 fc	 mov	 eax, DWORD PTR __Idx$[ebp]
  0001e	3b 45 f4	 cmp	 eax, DWORD PTR __Max_sequence_non_leaf$[ebp]
  00021	7d 7d		 jge	 SHORT $LN3@Pop_heap_h

; 6198 :         _Idx = 2 * _Idx + 2;

  00023	8b 45 fc	 mov	 eax, DWORD PTR __Idx$[ebp]
  00026	8d 44 00 02	 lea	 eax, DWORD PTR [eax+eax+2]
  0002a	89 45 fc	 mov	 DWORD PTR __Idx$[ebp], eax
; File D:\Metin2 Server Files\mainline\SRC_2014\Metin2Client\EterLib\GrpLightManager.h

; 45   : 		float		GetDistance() const { return m_fDistance;	}

  0002d	8b 45 fc	 mov	 eax, DWORD PTR __Idx$[ebp]
  00030	8b 4d 08	 mov	 ecx, DWORD PTR __First$[ebp]
  00033	8b 04 81	 mov	 eax, DWORD PTR [ecx+eax*4]
  00036	f3 0f 10 40 78	 movss	 xmm0, DWORD PTR [eax+120]
  0003b	f3 0f 11 45 ec	 movss	 DWORD PTR $T4[ebp], xmm0
  00040	8b 45 fc	 mov	 eax, DWORD PTR __Idx$[ebp]
  00043	8b 4d 08	 mov	 ecx, DWORD PTR __First$[ebp]
  00046	8b 44 81 fc	 mov	 eax, DWORD PTR [ecx+eax*4-4]
  0004a	f3 0f 10 40 78	 movss	 xmm0, DWORD PTR [eax+120]
  0004f	f3 0f 11 45 f0	 movss	 DWORD PTR $T5[ebp], xmm0
; File D:\Metin2 Server Files\mainline\SRC_2014\Metin2Client\EterLib\GrpLightManager.cpp

; 96   : 		return l->GetDistance() < r->GetDistance();

  00054	f3 0f 10 45 f0	 movss	 xmm0, DWORD PTR $T5[ebp]
  00059	0f 2f 45 ec	 comiss	 xmm0, DWORD PTR $T4[ebp]
  0005d	76 09		 jbe	 SHORT $LN9@Pop_heap_h
  0005f	c7 45 f8 01 00
	00 00		 mov	 DWORD PTR tv142[ebp], 1
  00066	eb 04		 jmp	 SHORT $LN10@Pop_heap_h
$LN9@Pop_heap_h:
  00068	83 65 f8 00	 and	 DWORD PTR tv142[ebp], 0
$LN10@Pop_heap_h:
; File C:\Program Files (x86)\Microsoft Visual Studio\2019\Community\VC\Tools\MSVC\14.28.29333\include\algorithm

; 6199 :         if (_DEBUG_LT_PRED(_Pred, *(_First + _Idx), *(_First + (_Idx - 1)))) {

  0006c	0f b6 45 f8	 movzx	 eax, BYTE PTR tv142[ebp]
  00070	85 c0		 test	 eax, eax
  00072	74 07		 je	 SHORT $LN4@Pop_heap_h

; 6200 :             --_Idx;

  00074	8b 45 fc	 mov	 eax, DWORD PTR __Idx$[ebp]
  00077	48		 dec	 eax
  00078	89 45 fc	 mov	 DWORD PTR __Idx$[ebp], eax
$LN4@Pop_heap_h:

; 6202 :         *(_First + _Hole) = _STD move(*(_First + _Idx));

  0007b	8b 45 fc	 mov	 eax, DWORD PTR __Idx$[ebp]
  0007e	8b 4d 08	 mov	 ecx, DWORD PTR __First$[ebp]
  00081	8d 04 81	 lea	 eax, DWORD PTR [ecx+eax*4]
; File C:\Program Files (x86)\Microsoft Visual Studio\2019\Community\VC\Tools\MSVC\14.28.29333\include\type_traits

; 1455 :     return static_cast<remove_reference_t<_Ty>&&>(_Arg);

  00084	89 45 e8	 mov	 DWORD PTR $T3[ebp], eax
; File C:\Program Files (x86)\Microsoft Visual Studio\2019\Community\VC\Tools\MSVC\14.28.29333\include\algorithm

; 6202 :         *(_First + _Hole) = _STD move(*(_First + _Idx));

  00087	8b 45 0c	 mov	 eax, DWORD PTR __Hole$[ebp]
  0008a	8b 4d 08	 mov	 ecx, DWORD PTR __First$[ebp]
  0008d	8b 55 e8	 mov	 edx, DWORD PTR $T3[ebp]
  00090	8b 12		 mov	 edx, DWORD PTR [edx]
  00092	89 14 81	 mov	 DWORD PTR [ecx+eax*4], edx

; 6203 :         _Hole             = _Idx;

  00095	8b 45 fc	 mov	 eax, DWORD PTR __Idx$[ebp]
  00098	89 45 0c	 mov	 DWORD PTR __Hole$[ebp], eax

; 6204 :     }

  0009b	e9 7b ff ff ff	 jmp	 $LN2@Pop_heap_h
$LN3@Pop_heap_h:

; 6205 : 
; 6206 :     if (_Idx == _Max_sequence_non_leaf && _Bottom % 2 == 0) { // only child at bottom, move _Hole down to it

  000a0	8b 45 fc	 mov	 eax, DWORD PTR __Idx$[ebp]
  000a3	3b 45 f4	 cmp	 eax, DWORD PTR __Max_sequence_non_leaf$[ebp]
  000a6	75 35		 jne	 SHORT $LN5@Pop_heap_h
  000a8	8b 45 10	 mov	 eax, DWORD PTR __Bottom$[ebp]
  000ab	25 01 00 00 80	 and	 eax, -2147483647	; 80000001H
  000b0	79 05		 jns	 SHORT $LN43@Pop_heap_h
  000b2	48		 dec	 eax
  000b3	83 c8 fe	 or	 eax, -2			; fffffffeH
  000b6	40		 inc	 eax
$LN43@Pop_heap_h:
  000b7	85 c0		 test	 eax, eax
  000b9	75 22		 jne	 SHORT $LN5@Pop_heap_h

; 6207 :         *(_First + _Hole) = _STD move(*(_First + (_Bottom - 1)));

  000bb	8b 45 10	 mov	 eax, DWORD PTR __Bottom$[ebp]
  000be	8b 4d 08	 mov	 ecx, DWORD PTR __First$[ebp]
  000c1	8d 44 81 fc	 lea	 eax, DWORD PTR [ecx+eax*4-4]
; File C:\Program Files (x86)\Microsoft Visual Studio\2019\Community\VC\Tools\MSVC\14.28.29333\include\type_traits

; 1455 :     return static_cast<remove_reference_t<_Ty>&&>(_Arg);

  000c5	89 45 e4	 mov	 DWORD PTR $T2[ebp], eax
; File C:\Program Files (x86)\Microsoft Visual Studio\2019\Community\VC\Tools\MSVC\14.28.29333\include\algorithm

; 6207 :         *(_First + _Hole) = _STD move(*(_First + (_Bottom - 1)));

  000c8	8b 45 0c	 mov	 eax, DWORD PTR __Hole$[ebp]
  000cb	8b 4d 08	 mov	 ecx, DWORD PTR __First$[ebp]
  000ce	8b 55 e4	 mov	 edx, DWORD PTR $T2[ebp]
  000d1	8b 12		 mov	 edx, DWORD PTR [edx]
  000d3	89 14 81	 mov	 DWORD PTR [ecx+eax*4], edx

; 6208 :         _Hole             = _Bottom - 1;

  000d6	8b 45 10	 mov	 eax, DWORD PTR __Bottom$[ebp]
  000d9	48		 dec	 eax
  000da	89 45 0c	 mov	 DWORD PTR __Hole$[ebp], eax
$LN5@Pop_heap_h:
; File C:\Program Files (x86)\Microsoft Visual Studio\2019\Community\VC\Tools\MSVC\14.28.29333\include\type_traits

; 1443 :     return static_cast<_Ty&&>(_Arg);

  000dd	8b 45 14	 mov	 eax, DWORD PTR __Val$[ebp]
  000e0	89 45 e0	 mov	 DWORD PTR $T1[ebp], eax
; File C:\Program Files (x86)\Microsoft Visual Studio\2019\Community\VC\Tools\MSVC\14.28.29333\include\algorithm

; 6211 :     _Push_heap_by_index(_First, _Hole, _Top, _STD forward<_Ty>(_Val), _Pred);

  000e3	ff 75 18	 push	 DWORD PTR __Pred$[ebp]
  000e6	ff 75 e0	 push	 DWORD PTR $T1[ebp]
  000e9	ff 75 dc	 push	 DWORD PTR __Top$[ebp]
  000ec	ff 75 0c	 push	 DWORD PTR __Hole$[ebp]
  000ef	ff 75 08	 push	 DWORD PTR __First$[ebp]
  000f2	e8 00 00 00 00	 call	 ??$_Push_heap_by_index@PAPAVCLight@@PAV1@ULightComp@@@std@@YAXPAPAVCLight@@HH$$QAPAV1@ULightComp@@@Z ; std::_Push_heap_by_index<CLight * *,CLight *,LightComp>
  000f7	83 c4 14	 add	 esp, 20			; 00000014H

; 6212 : }

  000fa	c9		 leave
  000fb	c3		 ret	 0
??$_Pop_heap_hole_by_index@PAPAVCLight@@PAV1@ULightComp@@@std@@YAXPAPAVCLight@@HH$$QAPAV1@ULightComp@@@Z ENDP ; std::_Pop_heap_hole_by_index<CLight * *,CLight *,LightComp>
_TEXT	ENDS
; Function compile flags: /Odspy
; File C:\Program Files (x86)\Microsoft Visual Studio\2019\Community\VC\Tools\MSVC\14.28.29333\include\xmemory
;	COMDAT ??$_Zero_range@PAPAK@std@@YAPAPAKQAPAK0@Z
_TEXT	SEGMENT
__Last_ch$ = -8						; size = 4
__First_ch$ = -4					; size = 4
__First$ = 8						; size = 4
__Last$ = 12						; size = 4
??$_Zero_range@PAPAK@std@@YAPAPAKQAPAK0@Z PROC		; std::_Zero_range<unsigned long * *>, COMDAT

; 1852 : _Ptr _Zero_range(const _Ptr _First, const _Ptr _Last) { // fill [_First, _Last) with zeroes

  00000	55		 push	 ebp
  00001	8b ec		 mov	 ebp, esp
  00003	51		 push	 ecx
  00004	51		 push	 ecx

; 1853 :     char* const _First_ch = reinterpret_cast<char*>(_First);

  00005	8b 45 08	 mov	 eax, DWORD PTR __First$[ebp]
  00008	89 45 fc	 mov	 DWORD PTR __First_ch$[ebp], eax

; 1854 :     char* const _Last_ch  = reinterpret_cast<char*>(_Last);

  0000b	8b 45 0c	 mov	 eax, DWORD PTR __Last$[ebp]
  0000e	89 45 f8	 mov	 DWORD PTR __Last_ch$[ebp], eax

; 1855 :     _CSTD memset(_First_ch, 0, static_cast<size_t>(_Last_ch - _First_ch));

  00011	8b 45 f8	 mov	 eax, DWORD PTR __Last_ch$[ebp]
  00014	2b 45 fc	 sub	 eax, DWORD PTR __First_ch$[ebp]
  00017	50		 push	 eax
  00018	6a 00		 push	 0
  0001a	ff 75 fc	 push	 DWORD PTR __First_ch$[ebp]
  0001d	e8 00 00 00 00	 call	 _memset
  00022	83 c4 0c	 add	 esp, 12			; 0000000cH

; 1856 :     return _Last;

  00025	8b 45 0c	 mov	 eax, DWORD PTR __Last$[ebp]

; 1857 : }

  00028	c9		 leave
  00029	c3		 ret	 0
??$_Zero_range@PAPAK@std@@YAPAPAKQAPAK0@Z ENDP		; std::_Zero_range<unsigned long * *>
_TEXT	ENDS
; Function compile flags: /Odspy
; File C:\Program Files (x86)\Microsoft Visual Studio\2019\Community\VC\Tools\MSVC\14.28.29333\include\xutility
;	COMDAT ??$_Copy_memmove@PAPAKPAPAK@std@@YAPAPAKPAPAK00@Z
_TEXT	SEGMENT
__Last_ch$ = -16					; size = 4
__Count$ = -12						; size = 4
__Dest_ch$ = -8						; size = 4
__First_ch$ = -4					; size = 4
__First$ = 8						; size = 4
__Last$ = 12						; size = 4
__Dest$ = 16						; size = 4
??$_Copy_memmove@PAPAKPAPAK@std@@YAPAPAKPAPAK00@Z PROC	; std::_Copy_memmove<unsigned long * *,unsigned long * *>, COMDAT

; 4360 : _OutIt _Copy_memmove(_InIt _First, _InIt _Last, _OutIt _Dest) {

  00000	55		 push	 ebp
  00001	8b ec		 mov	 ebp, esp
  00003	83 ec 10	 sub	 esp, 16			; 00000010H

; 4361 :     const char* const _First_ch = const_cast<const char*>(reinterpret_cast<const volatile char*>(_First));

  00006	8b 45 08	 mov	 eax, DWORD PTR __First$[ebp]
  00009	89 45 fc	 mov	 DWORD PTR __First_ch$[ebp], eax

; 4362 :     const char* const _Last_ch  = const_cast<const char*>(reinterpret_cast<const volatile char*>(_Last));

  0000c	8b 45 0c	 mov	 eax, DWORD PTR __Last$[ebp]
  0000f	89 45 f0	 mov	 DWORD PTR __Last_ch$[ebp], eax

; 4363 :     char* const _Dest_ch        = const_cast<char*>(reinterpret_cast<volatile char*>(_Dest));

  00012	8b 45 10	 mov	 eax, DWORD PTR __Dest$[ebp]
  00015	89 45 f8	 mov	 DWORD PTR __Dest_ch$[ebp], eax

; 4364 :     const auto _Count           = static_cast<size_t>(_Last_ch - _First_ch);

  00018	8b 45 f0	 mov	 eax, DWORD PTR __Last_ch$[ebp]
  0001b	2b 45 fc	 sub	 eax, DWORD PTR __First_ch$[ebp]
  0001e	89 45 f4	 mov	 DWORD PTR __Count$[ebp], eax

; 4365 :     _CSTD memmove(_Dest_ch, _First_ch, _Count);

  00021	ff 75 f4	 push	 DWORD PTR __Count$[ebp]
  00024	ff 75 fc	 push	 DWORD PTR __First_ch$[ebp]
  00027	ff 75 f8	 push	 DWORD PTR __Dest_ch$[ebp]
  0002a	e8 00 00 00 00	 call	 _memmove
  0002f	83 c4 0c	 add	 esp, 12			; 0000000cH

; 4366 :     return reinterpret_cast<_OutIt>(_Dest_ch + _Count);

  00032	8b 45 f8	 mov	 eax, DWORD PTR __Dest_ch$[ebp]
  00035	03 45 f4	 add	 eax, DWORD PTR __Count$[ebp]

; 4367 : }

  00038	c9		 leave
  00039	c3		 ret	 0
??$_Copy_memmove@PAPAKPAPAK@std@@YAPAPAKPAPAK00@Z ENDP	; std::_Copy_memmove<unsigned long * *,unsigned long * *>
_TEXT	ENDS
; Function compile flags: /Odspy
; File C:\Program Files (x86)\Microsoft Visual Studio\2019\Community\VC\Tools\MSVC\14.28.29333\include\xmemory
;	COMDAT ??$_Refancy@PAPAVCLight@@$0A@@std@@YAPAPAVCLight@@PAPAV1@@Z
_TEXT	SEGMENT
__Ptr$ = 8						; size = 4
??$_Refancy@PAPAVCLight@@$0A@@std@@YAPAPAVCLight@@PAPAV1@@Z PROC ; std::_Refancy<CLight * *,0>, COMDAT

; 261  : _Pointer _Refancy(_Pointer _Ptr) noexcept {

  00000	55		 push	 ebp
  00001	8b ec		 mov	 ebp, esp

; 262  :     return _Ptr;

  00003	8b 45 08	 mov	 eax, DWORD PTR __Ptr$[ebp]

; 263  : }

  00006	5d		 pop	 ebp
  00007	c3		 ret	 0
??$_Refancy@PAPAVCLight@@$0A@@std@@YAPAPAVCLight@@PAPAV1@@Z ENDP ; std::_Refancy<CLight * *,0>
_TEXT	ENDS
; Function compile flags: /Odspy
; File C:\Program Files (x86)\Microsoft Visual Studio\2019\Community\VC\Tools\MSVC\14.28.29333\include\xutility
;	COMDAT ??$_Copy_memmove@PAPAVCLight@@PAPAV1@@std@@YAPAPAVCLight@@PAPAV1@00@Z
_TEXT	SEGMENT
__Last_ch$ = -16					; size = 4
__Count$ = -12						; size = 4
__Dest_ch$ = -8						; size = 4
__First_ch$ = -4					; size = 4
__First$ = 8						; size = 4
__Last$ = 12						; size = 4
__Dest$ = 16						; size = 4
??$_Copy_memmove@PAPAVCLight@@PAPAV1@@std@@YAPAPAVCLight@@PAPAV1@00@Z PROC ; std::_Copy_memmove<CLight * *,CLight * *>, COMDAT

; 4360 : _OutIt _Copy_memmove(_InIt _First, _InIt _Last, _OutIt _Dest) {

  00000	55		 push	 ebp
  00001	8b ec		 mov	 ebp, esp
  00003	83 ec 10	 sub	 esp, 16			; 00000010H

; 4361 :     const char* const _First_ch = const_cast<const char*>(reinterpret_cast<const volatile char*>(_First));

  00006	8b 45 08	 mov	 eax, DWORD PTR __First$[ebp]
  00009	89 45 fc	 mov	 DWORD PTR __First_ch$[ebp], eax

; 4362 :     const char* const _Last_ch  = const_cast<const char*>(reinterpret_cast<const volatile char*>(_Last));

  0000c	8b 45 0c	 mov	 eax, DWORD PTR __Last$[ebp]
  0000f	89 45 f0	 mov	 DWORD PTR __Last_ch$[ebp], eax

; 4363 :     char* const _Dest_ch        = const_cast<char*>(reinterpret_cast<volatile char*>(_Dest));

  00012	8b 45 10	 mov	 eax, DWORD PTR __Dest$[ebp]
  00015	89 45 f8	 mov	 DWORD PTR __Dest_ch$[ebp], eax

; 4364 :     const auto _Count           = static_cast<size_t>(_Last_ch - _First_ch);

  00018	8b 45 f0	 mov	 eax, DWORD PTR __Last_ch$[ebp]
  0001b	2b 45 fc	 sub	 eax, DWORD PTR __First_ch$[ebp]
  0001e	89 45 f4	 mov	 DWORD PTR __Count$[ebp], eax

; 4365 :     _CSTD memmove(_Dest_ch, _First_ch, _Count);

  00021	ff 75 f4	 push	 DWORD PTR __Count$[ebp]
  00024	ff 75 fc	 push	 DWORD PTR __First_ch$[ebp]
  00027	ff 75 f8	 push	 DWORD PTR __Dest_ch$[ebp]
  0002a	e8 00 00 00 00	 call	 _memmove
  0002f	83 c4 0c	 add	 esp, 12			; 0000000cH

; 4366 :     return reinterpret_cast<_OutIt>(_Dest_ch + _Count);

  00032	8b 45 f8	 mov	 eax, DWORD PTR __Dest_ch$[ebp]
  00035	03 45 f4	 add	 eax, DWORD PTR __Count$[ebp]

; 4367 : }

  00038	c9		 leave
  00039	c3		 ret	 0
??$_Copy_memmove@PAPAVCLight@@PAPAV1@@std@@YAPAPAVCLight@@PAPAV1@00@Z ENDP ; std::_Copy_memmove<CLight * *,CLight * *>
_TEXT	ENDS
; Function compile flags: /Odspy
; File C:\Program Files (x86)\Microsoft Visual Studio\2019\Community\VC\Tools\MSVC\14.28.29333\include\xmemory
; File C:\Program Files (x86)\Microsoft Visual Studio\2019\Community\VC\Tools\MSVC\14.28.29333\include\xstddef
; File C:\Program Files (x86)\Microsoft Visual Studio\2019\Community\VC\Tools\MSVC\14.28.29333\include\vcruntime_new.h
; File C:\Program Files (x86)\Microsoft Visual Studio\2019\Community\VC\Tools\MSVC\14.28.29333\include\type_traits
; File C:\Program Files (x86)\Microsoft Visual Studio\2019\Community\VC\Tools\MSVC\14.28.29333\include\xmemory
;	COMDAT ??$_Construct_in_place@PAU?$_Tree_node@U?$pair@$$CBKPAVCLight@@@std@@PAX@std@@AAPAU12@@std@@YAXAAPAU?$_Tree_node@U?$pair@$$CBKPAVCLight@@@std@@PAX@0@0@Z
_TEXT	SEGMENT
$T1 = -12						; size = 4
$T2 = -8						; size = 4
$T3 = -4						; size = 4
__Obj$ = 8						; size = 4
_<_Args_0>$ = 12					; size = 4
??$_Construct_in_place@PAU?$_Tree_node@U?$pair@$$CBKPAVCLight@@@std@@PAX@std@@AAPAU12@@std@@YAXAAPAU?$_Tree_node@U?$pair@$$CBKPAVCLight@@@std@@PAX@0@0@Z PROC ; std::_Construct_in_place<std::_Tree_node<std::pair<unsigned long const ,CLight *>,void *> *,std::_Tree_node<std::pair<unsigned long const ,CLight *>,void *> * &>, COMDAT

; 228  : void _Construct_in_place(_Ty& _Obj, _Types&&... _Args) noexcept(is_nothrow_constructible_v<_Ty, _Types...>) {

  00000	55		 push	 ebp
  00001	8b ec		 mov	 ebp, esp
  00003	83 ec 0c	 sub	 esp, 12			; 0000000cH
; File C:\Program Files (x86)\Microsoft Visual Studio\2019\Community\VC\Tools\MSVC\14.28.29333\include\xstddef

; 275  :     return __builtin_addressof(_Val);

  00006	8b 45 08	 mov	 eax, DWORD PTR __Obj$[ebp]
  00009	89 45 fc	 mov	 DWORD PTR $T3[ebp], eax
; File C:\Program Files (x86)\Microsoft Visual Studio\2019\Community\VC\Tools\MSVC\14.28.29333\include\vcruntime_new.h

; 169  :         return _Where;

  0000c	8b 45 fc	 mov	 eax, DWORD PTR $T3[ebp]
  0000f	89 45 f8	 mov	 DWORD PTR $T2[ebp], eax
; File C:\Program Files (x86)\Microsoft Visual Studio\2019\Community\VC\Tools\MSVC\14.28.29333\include\type_traits

; 1443 :     return static_cast<_Ty&&>(_Arg);

  00012	8b 45 0c	 mov	 eax, DWORD PTR _<_Args_0>$[ebp]
  00015	89 45 f4	 mov	 DWORD PTR $T1[ebp], eax
; File C:\Program Files (x86)\Microsoft Visual Studio\2019\Community\VC\Tools\MSVC\14.28.29333\include\xmemory

; 229  :     ::new (const_cast<void*>(static_cast<const volatile void*>(_STD addressof(_Obj))))

  00018	8b 45 f8	 mov	 eax, DWORD PTR $T2[ebp]
  0001b	8b 4d f4	 mov	 ecx, DWORD PTR $T1[ebp]
  0001e	8b 09		 mov	 ecx, DWORD PTR [ecx]
  00020	89 08		 mov	 DWORD PTR [eax], ecx

; 230  :         _Ty(_STD forward<_Types>(_Args)...);
; 231  : }

  00022	c9		 leave
  00023	c3		 ret	 0
??$_Construct_in_place@PAU?$_Tree_node@U?$pair@$$CBKPAVCLight@@@std@@PAX@std@@AAPAU12@@std@@YAXAAPAU?$_Tree_node@U?$pair@$$CBKPAVCLight@@@std@@PAX@0@0@Z ENDP ; std::_Construct_in_place<std::_Tree_node<std::pair<unsigned long const ,CLight *>,void *> *,std::_Tree_node<std::pair<unsigned long const ,CLight *>,void *> * &>
_TEXT	ENDS
; Function compile flags: /Odspy
; File C:\Program Files (x86)\Microsoft Visual Studio\2019\Community\VC\Tools\MSVC\14.28.29333\include\xmemory
; File C:\Program Files (x86)\Microsoft Visual Studio\2019\Community\VC\Tools\MSVC\14.28.29333\include\vcruntime_new.h
; File C:\Program Files (x86)\Microsoft Visual Studio\2019\Community\VC\Tools\MSVC\14.28.29333\include\type_traits
; File C:\Program Files (x86)\Microsoft Visual Studio\2019\Community\VC\Tools\MSVC\14.28.29333\include\xmemory
; File C:\Program Files (x86)\Microsoft Visual Studio\2019\Community\VC\Tools\MSVC\14.28.29333\include\type_traits
; File C:\Program Files (x86)\Microsoft Visual Studio\2019\Community\VC\Tools\MSVC\14.28.29333\include\xmemory
; File D:\Metin2 Server Files\mainline\SRC_2014\Metin2Client\EterLib\GrpLightManager.cpp
; File C:\Program Files (x86)\Microsoft Visual Studio\2019\Community\VC\Tools\MSVC\14.28.29333\include\type_traits
; File C:\Program Files (x86)\Microsoft Visual Studio\2019\Community\VC\Tools\MSVC\14.28.29333\include\xmemory
; File C:\Program Files (x86)\Microsoft Visual Studio\2019\Community\VC\Tools\MSVC\14.28.29333\include\tuple
; File C:\Program Files (x86)\Microsoft Visual Studio\2019\Community\VC\Tools\MSVC\14.28.29333\include\type_traits
; File C:\Program Files (x86)\Microsoft Visual Studio\2019\Community\VC\Tools\MSVC\14.28.29333\include\tuple
; File C:\Program Files (x86)\Microsoft Visual Studio\2019\Community\VC\Tools\MSVC\14.28.29333\include\xmemory
;	COMDAT ??$construct@U?$pair@$$CBKPAVCLight@@@std@@ABUpiecewise_construct_t@2@V?$tuple@ABK@2@V?$tuple@$$V@2@@?$_Default_allocator_traits@V?$allocator@U?$_Tree_node@U?$pair@$$CBKPAVCLight@@@std@@PAX@std@@@std@@@std@@SAXAAV?$allocator@U?$_Tree_node@U?$pair@$$CBKPAVCLight@@@std@@PAX@std@@@1@QAU?$pair@$$CBKPAVCLight@@@1@ABUpiecewise_construct_t@1@$$QAV?$tuple@ABK@1@$$QAV?$tuple@$$V@1@@Z
_TEXT	SEGMENT
_this$ = -52						; size = 4
$T1 = -48						; size = 4
$T2 = -44						; size = 4
$T3 = -40						; size = 4
$T4 = -36						; size = 4
$T5 = -32						; size = 4
_this$ = -28						; size = 4
$T6 = -24						; size = 4
$T7 = -20						; size = 4
___formal$ = -16					; size = 1
___formal$ = -12					; size = 1
___formal$ = -8						; size = 1
$T8 = -3						; size = 1
$T9 = -2						; size = 1
$T10 = -1						; size = 1
___formal$ = 8						; size = 4
__Ptr$ = 12						; size = 4
_<_Args_0>$ = 16					; size = 4
_<_Args_1>$ = 20					; size = 4
_<_Args_2>$ = 24					; size = 4
??$construct@U?$pair@$$CBKPAVCLight@@@std@@ABUpiecewise_construct_t@2@V?$tuple@ABK@2@V?$tuple@$$V@2@@?$_Default_allocator_traits@V?$allocator@U?$_Tree_node@U?$pair@$$CBKPAVCLight@@@std@@PAX@std@@@std@@@std@@SAXAAV?$allocator@U?$_Tree_node@U?$pair@$$CBKPAVCLight@@@std@@PAX@std@@@1@QAU?$pair@$$CBKPAVCLight@@@1@ABUpiecewise_construct_t@1@$$QAV?$tuple@ABK@1@$$QAV?$tuple@$$V@1@@Z PROC ; std::_Default_allocator_traits<std::allocator<std::_Tree_node<std::pair<unsigned long const ,CLight *>,void *> > >::construct<std::pair<unsigned long const ,CLight *>,std::piecewise_construct_t const &,std::tuple<unsigned long const &>,std::tuple<> >, COMDAT

; 700  :     static void construct(_Alloc&, _Objty* const _Ptr, _Types&&... _Args) {

  00000	55		 push	 ebp
  00001	8b ec		 mov	 ebp, esp
  00003	83 ec 34	 sub	 esp, 52			; 00000034H
; File C:\Program Files (x86)\Microsoft Visual Studio\2019\Community\VC\Tools\MSVC\14.28.29333\include\vcruntime_new.h

; 169  :         return _Where;

  00006	8b 45 0c	 mov	 eax, DWORD PTR __Ptr$[ebp]
  00009	89 45 ec	 mov	 DWORD PTR $T7[ebp], eax
; File C:\Program Files (x86)\Microsoft Visual Studio\2019\Community\VC\Tools\MSVC\14.28.29333\include\type_traits

; 1443 :     return static_cast<_Ty&&>(_Arg);

  0000c	8b 45 18	 mov	 eax, DWORD PTR _<_Args_2>$[ebp]
  0000f	89 45 d0	 mov	 DWORD PTR $T1[ebp], eax
; File C:\Program Files (x86)\Microsoft Visual Studio\2019\Community\VC\Tools\MSVC\14.28.29333\include\xmemory

; 701  :         ::new (const_cast<void*>(static_cast<const volatile void*>(_Ptr))) _Objty(_STD forward<_Types>(_Args)...);

  00012	8d 45 fd	 lea	 eax, DWORD PTR $T8[ebp]
  00015	89 45 cc	 mov	 DWORD PTR _this$[ebp], eax
; File C:\Program Files (x86)\Microsoft Visual Studio\2019\Community\VC\Tools\MSVC\14.28.29333\include\type_traits

; 1443 :     return static_cast<_Ty&&>(_Arg);

  00018	8b 45 14	 mov	 eax, DWORD PTR _<_Args_1>$[ebp]
  0001b	89 45 e8	 mov	 DWORD PTR $T6[ebp], eax
; File C:\Program Files (x86)\Microsoft Visual Studio\2019\Community\VC\Tools\MSVC\14.28.29333\include\xmemory

; 701  :         ::new (const_cast<void*>(static_cast<const volatile void*>(_Ptr))) _Objty(_STD forward<_Types>(_Args)...);

  0001e	8d 45 dc	 lea	 eax, DWORD PTR $T4[ebp]
  00021	89 45 e4	 mov	 DWORD PTR _this$[ebp], eax
; File D:\Metin2 Server Files\mainline\SRC_2014\Metin2Client\EterLib\GrpLightManager.cpp

  00024	8b 45 e8	 mov	 eax, DWORD PTR $T6[ebp]
  00027	8b 00		 mov	 eax, DWORD PTR [eax]
  00029	8b 4d e4	 mov	 ecx, DWORD PTR _this$[ebp]
  0002c	89 01		 mov	 DWORD PTR [ecx], eax
; File C:\Program Files (x86)\Microsoft Visual Studio\2019\Community\VC\Tools\MSVC\14.28.29333\include\type_traits

; 1443 :     return static_cast<_Ty&&>(_Arg);

  0002e	8b 45 10	 mov	 eax, DWORD PTR _<_Args_0>$[ebp]
  00031	89 45 e0	 mov	 DWORD PTR $T5[ebp], eax
; File C:\Program Files (x86)\Microsoft Visual Studio\2019\Community\VC\Tools\MSVC\14.28.29333\include\xmemory

; 701  :         ::new (const_cast<void*>(static_cast<const volatile void*>(_Ptr))) _Objty(_STD forward<_Types>(_Args)...);

  00034	8b 45 e0	 mov	 eax, DWORD PTR $T5[ebp]
  00037	8a 00		 mov	 al, BYTE PTR [eax]
  00039	88 45 f8	 mov	 BYTE PTR ___formal$[ebp], al
; File C:\Program Files (x86)\Microsoft Visual Studio\2019\Community\VC\Tools\MSVC\14.28.29333\include\tuple

; 986  :     : pair(_Val1, _Val2, index_sequence_for<_Types1...>{}, index_sequence_for<_Types2...>{}) {}

  0003c	33 c0		 xor	 eax, eax
  0003e	88 45 ff	 mov	 BYTE PTR $T10[ebp], al
  00041	33 c0		 xor	 eax, eax
  00043	88 45 fe	 mov	 BYTE PTR $T9[ebp], al
  00046	8a 45 ff	 mov	 al, BYTE PTR $T10[ebp]
  00049	88 45 f4	 mov	 BYTE PTR ___formal$[ebp], al
  0004c	8a 45 fe	 mov	 al, BYTE PTR $T9[ebp]
  0004f	88 45 f0	 mov	 BYTE PTR ___formal$[ebp], al
; File C:\Program Files (x86)\Microsoft Visual Studio\2019\Community\VC\Tools\MSVC\14.28.29333\include\type_traits

; 1455 :     return static_cast<remove_reference_t<_Ty>&&>(_Arg);

  00052	8d 45 dc	 lea	 eax, DWORD PTR $T4[ebp]
  00055	89 45 d8	 mov	 DWORD PTR $T3[ebp], eax
; File C:\Program Files (x86)\Microsoft Visual Studio\2019\Community\VC\Tools\MSVC\14.28.29333\include\tuple

; 790  :     return static_cast<_Ty&&>(static_cast<_Ttype&>(_Tuple)._Myfirst._Val);

  00058	8b 45 d8	 mov	 eax, DWORD PTR $T3[ebp]
  0005b	8b 00		 mov	 eax, DWORD PTR [eax]
  0005d	89 45 d4	 mov	 DWORD PTR $T2[ebp], eax

; 980  :     : first(_STD get<_Indexes1>(_STD move(_Val1))...), second(_STD get<_Indexes2>(_STD move(_Val2))...) {}

  00060	8b 45 ec	 mov	 eax, DWORD PTR $T7[ebp]
  00063	8b 4d d4	 mov	 ecx, DWORD PTR $T2[ebp]
  00066	8b 09		 mov	 ecx, DWORD PTR [ecx]
  00068	89 08		 mov	 DWORD PTR [eax], ecx
  0006a	8b 45 ec	 mov	 eax, DWORD PTR $T7[ebp]
  0006d	83 60 04 00	 and	 DWORD PTR [eax+4], 0
; File C:\Program Files (x86)\Microsoft Visual Studio\2019\Community\VC\Tools\MSVC\14.28.29333\include\xmemory

; 702  :     }

  00071	c9		 leave
  00072	c3		 ret	 0
??$construct@U?$pair@$$CBKPAVCLight@@@std@@ABUpiecewise_construct_t@2@V?$tuple@ABK@2@V?$tuple@$$V@2@@?$_Default_allocator_traits@V?$allocator@U?$_Tree_node@U?$pair@$$CBKPAVCLight@@@std@@PAX@std@@@std@@@std@@SAXAAV?$allocator@U?$_Tree_node@U?$pair@$$CBKPAVCLight@@@std@@PAX@std@@@1@QAU?$pair@$$CBKPAVCLight@@@1@ABUpiecewise_construct_t@1@$$QAV?$tuple@ABK@1@$$QAV?$tuple@$$V@1@@Z ENDP ; std::_Default_allocator_traits<std::allocator<std::_Tree_node<std::pair<unsigned long const ,CLight *>,void *> > >::construct<std::pair<unsigned long const ,CLight *>,std::piecewise_construct_t const &,std::tuple<unsigned long const &>,std::tuple<> >
_TEXT	ENDS
; Function compile flags: /Odspy
; File C:\Program Files (x86)\Microsoft Visual Studio\2019\Community\VC\Tools\MSVC\14.28.29333\include\algorithm
; File C:\Program Files (x86)\Microsoft Visual Studio\2019\Community\VC\Tools\MSVC\14.28.29333\include\xutility
; File C:\Program Files (x86)\Microsoft Visual Studio\2019\Community\VC\Tools\MSVC\14.28.29333\include\algorithm
; File C:\Program Files (x86)\Microsoft Visual Studio\2019\Community\VC\Tools\MSVC\14.28.29333\include\xutility
; File C:\Program Files (x86)\Microsoft Visual Studio\2019\Community\VC\Tools\MSVC\14.28.29333\include\algorithm
; File C:\Program Files (x86)\Microsoft Visual Studio\2019\Community\VC\Tools\MSVC\14.28.29333\include\xutility
; File D:\Metin2 Server Files\mainline\SRC_2014\Metin2Client\EterLib\GrpLightManager.h
; File D:\Metin2 Server Files\mainline\SRC_2014\Metin2Client\EterLib\GrpLightManager.cpp
; File C:\Program Files (x86)\Microsoft Visual Studio\2019\Community\VC\Tools\MSVC\14.28.29333\include\algorithm
; File C:\Program Files (x86)\Microsoft Visual Studio\2019\Community\VC\Tools\MSVC\14.28.29333\include\xutility
; File D:\Metin2 Server Files\mainline\SRC_2014\Metin2Client\EterLib\GrpLightManager.h
; File D:\Metin2 Server Files\mainline\SRC_2014\Metin2Client\EterLib\GrpLightManager.cpp
; File C:\Program Files (x86)\Microsoft Visual Studio\2019\Community\VC\Tools\MSVC\14.28.29333\include\algorithm
; File D:\Metin2 Server Files\mainline\SRC_2014\Metin2Client\EterLib\GrpLightManager.h
; File D:\Metin2 Server Files\mainline\SRC_2014\Metin2Client\EterLib\GrpLightManager.cpp
; File C:\Program Files (x86)\Microsoft Visual Studio\2019\Community\VC\Tools\MSVC\14.28.29333\include\algorithm
; File D:\Metin2 Server Files\mainline\SRC_2014\Metin2Client\EterLib\GrpLightManager.h
; File D:\Metin2 Server Files\mainline\SRC_2014\Metin2Client\EterLib\GrpLightManager.cpp
; File C:\Program Files (x86)\Microsoft Visual Studio\2019\Community\VC\Tools\MSVC\14.28.29333\include\algorithm
; File D:\Metin2 Server Files\mainline\SRC_2014\Metin2Client\EterLib\GrpLightManager.h
; File D:\Metin2 Server Files\mainline\SRC_2014\Metin2Client\EterLib\GrpLightManager.cpp
; File C:\Program Files (x86)\Microsoft Visual Studio\2019\Community\VC\Tools\MSVC\14.28.29333\include\algorithm
; File D:\Metin2 Server Files\mainline\SRC_2014\Metin2Client\EterLib\GrpLightManager.h
; File D:\Metin2 Server Files\mainline\SRC_2014\Metin2Client\EterLib\GrpLightManager.cpp
; File C:\Program Files (x86)\Microsoft Visual Studio\2019\Community\VC\Tools\MSVC\14.28.29333\include\algorithm
; File C:\Program Files (x86)\Microsoft Visual Studio\2019\Community\VC\Tools\MSVC\14.28.29333\include\type_traits
; File C:\Program Files (x86)\Microsoft Visual Studio\2019\Community\VC\Tools\MSVC\14.28.29333\include\utility
; File C:\Program Files (x86)\Microsoft Visual Studio\2019\Community\VC\Tools\MSVC\14.28.29333\include\type_traits
; File C:\Program Files (x86)\Microsoft Visual Studio\2019\Community\VC\Tools\MSVC\14.28.29333\include\utility
; File C:\Program Files (x86)\Microsoft Visual Studio\2019\Community\VC\Tools\MSVC\14.28.29333\include\type_traits
; File C:\Program Files (x86)\Microsoft Visual Studio\2019\Community\VC\Tools\MSVC\14.28.29333\include\utility
; File C:\Program Files (x86)\Microsoft Visual Studio\2019\Community\VC\Tools\MSVC\14.28.29333\include\algorithm
; File C:\Program Files (x86)\Microsoft Visual Studio\2019\Community\VC\Tools\MSVC\14.28.29333\include\xutility
; File D:\Metin2 Server Files\mainline\SRC_2014\Metin2Client\EterLib\GrpLightManager.h
; File D:\Metin2 Server Files\mainline\SRC_2014\Metin2Client\EterLib\GrpLightManager.cpp
; File C:\Program Files (x86)\Microsoft Visual Studio\2019\Community\VC\Tools\MSVC\14.28.29333\include\algorithm
; File C:\Program Files (x86)\Microsoft Visual Studio\2019\Community\VC\Tools\MSVC\14.28.29333\include\xutility
; File D:\Metin2 Server Files\mainline\SRC_2014\Metin2Client\EterLib\GrpLightManager.h
; File D:\Metin2 Server Files\mainline\SRC_2014\Metin2Client\EterLib\GrpLightManager.cpp
; File C:\Program Files (x86)\Microsoft Visual Studio\2019\Community\VC\Tools\MSVC\14.28.29333\include\algorithm
; File C:\Program Files (x86)\Microsoft Visual Studio\2019\Community\VC\Tools\MSVC\14.28.29333\include\xutility
; File C:\Program Files (x86)\Microsoft Visual Studio\2019\Community\VC\Tools\MSVC\14.28.29333\include\algorithm
; File C:\Program Files (x86)\Microsoft Visual Studio\2019\Community\VC\Tools\MSVC\14.28.29333\include\xutility
; File C:\Program Files (x86)\Microsoft Visual Studio\2019\Community\VC\Tools\MSVC\14.28.29333\include\algorithm
; File C:\Program Files (x86)\Microsoft Visual Studio\2019\Community\VC\Tools\MSVC\14.28.29333\include\type_traits
; File C:\Program Files (x86)\Microsoft Visual Studio\2019\Community\VC\Tools\MSVC\14.28.29333\include\utility
; File C:\Program Files (x86)\Microsoft Visual Studio\2019\Community\VC\Tools\MSVC\14.28.29333\include\type_traits
; File C:\Program Files (x86)\Microsoft Visual Studio\2019\Community\VC\Tools\MSVC\14.28.29333\include\utility
; File C:\Program Files (x86)\Microsoft Visual Studio\2019\Community\VC\Tools\MSVC\14.28.29333\include\type_traits
; File C:\Program Files (x86)\Microsoft Visual Studio\2019\Community\VC\Tools\MSVC\14.28.29333\include\utility
; File C:\Program Files (x86)\Microsoft Visual Studio\2019\Community\VC\Tools\MSVC\14.28.29333\include\algorithm
; File C:\Program Files (x86)\Microsoft Visual Studio\2019\Community\VC\Tools\MSVC\14.28.29333\include\type_traits
; File C:\Program Files (x86)\Microsoft Visual Studio\2019\Community\VC\Tools\MSVC\14.28.29333\include\utility
; File C:\Program Files (x86)\Microsoft Visual Studio\2019\Community\VC\Tools\MSVC\14.28.29333\include\type_traits
; File C:\Program Files (x86)\Microsoft Visual Studio\2019\Community\VC\Tools\MSVC\14.28.29333\include\utility
; File C:\Program Files (x86)\Microsoft Visual Studio\2019\Community\VC\Tools\MSVC\14.28.29333\include\algorithm
; File C:\Program Files (x86)\Microsoft Visual Studio\2019\Community\VC\Tools\MSVC\14.28.29333\include\type_traits
; File C:\Program Files (x86)\Microsoft Visual Studio\2019\Community\VC\Tools\MSVC\14.28.29333\include\utility
; File C:\Program Files (x86)\Microsoft Visual Studio\2019\Community\VC\Tools\MSVC\14.28.29333\include\type_traits
; File C:\Program Files (x86)\Microsoft Visual Studio\2019\Community\VC\Tools\MSVC\14.28.29333\include\utility
; File C:\Program Files (x86)\Microsoft Visual Studio\2019\Community\VC\Tools\MSVC\14.28.29333\include\type_traits
; File C:\Program Files (x86)\Microsoft Visual Studio\2019\Community\VC\Tools\MSVC\14.28.29333\include\utility
; File C:\Program Files (x86)\Microsoft Visual Studio\2019\Community\VC\Tools\MSVC\14.28.29333\include\algorithm
; File C:\Program Files (x86)\Microsoft Visual Studio\2019\Community\VC\Tools\MSVC\14.28.29333\include\type_traits
; File C:\Program Files (x86)\Microsoft Visual Studio\2019\Community\VC\Tools\MSVC\14.28.29333\include\utility
; File C:\Program Files (x86)\Microsoft Visual Studio\2019\Community\VC\Tools\MSVC\14.28.29333\include\type_traits
; File C:\Program Files (x86)\Microsoft Visual Studio\2019\Community\VC\Tools\MSVC\14.28.29333\include\utility
; File C:\Program Files (x86)\Microsoft Visual Studio\2019\Community\VC\Tools\MSVC\14.28.29333\include\type_traits
; File C:\Program Files (x86)\Microsoft Visual Studio\2019\Community\VC\Tools\MSVC\14.28.29333\include\utility
; File C:\Program Files (x86)\Microsoft Visual Studio\2019\Community\VC\Tools\MSVC\14.28.29333\include\algorithm
; File C:\Program Files (x86)\Microsoft Visual Studio\2019\Community\VC\Tools\MSVC\14.28.29333\include\type_traits
; File C:\Program Files (x86)\Microsoft Visual Studio\2019\Community\VC\Tools\MSVC\14.28.29333\include\utility
; File C:\Program Files (x86)\Microsoft Visual Studio\2019\Community\VC\Tools\MSVC\14.28.29333\include\type_traits
; File C:\Program Files (x86)\Microsoft Visual Studio\2019\Community\VC\Tools\MSVC\14.28.29333\include\utility
; File C:\Program Files (x86)\Microsoft Visual Studio\2019\Community\VC\Tools\MSVC\14.28.29333\include\type_traits
; File C:\Program Files (x86)\Microsoft Visual Studio\2019\Community\VC\Tools\MSVC\14.28.29333\include\utility
; File C:\Program Files (x86)\Microsoft Visual Studio\2019\Community\VC\Tools\MSVC\14.28.29333\include\algorithm
; File C:\Program Files (x86)\Microsoft Visual Studio\2019\Community\VC\Tools\MSVC\14.28.29333\include\type_traits
; File C:\Program Files (x86)\Microsoft Visual Studio\2019\Community\VC\Tools\MSVC\14.28.29333\include\utility
; File C:\Program Files (x86)\Microsoft Visual Studio\2019\Community\VC\Tools\MSVC\14.28.29333\include\type_traits
; File C:\Program Files (x86)\Microsoft Visual Studio\2019\Community\VC\Tools\MSVC\14.28.29333\include\utility
; File C:\Program Files (x86)\Microsoft Visual Studio\2019\Community\VC\Tools\MSVC\14.28.29333\include\type_traits
; File C:\Program Files (x86)\Microsoft Visual Studio\2019\Community\VC\Tools\MSVC\14.28.29333\include\utility
; File C:\Program Files (x86)\Microsoft Visual Studio\2019\Community\VC\Tools\MSVC\14.28.29333\include\algorithm
; File C:\Program Files (x86)\Microsoft Visual Studio\2019\Community\VC\Tools\MSVC\14.28.29333\include\type_traits
; File C:\Program Files (x86)\Microsoft Visual Studio\2019\Community\VC\Tools\MSVC\14.28.29333\include\utility
; File C:\Program Files (x86)\Microsoft Visual Studio\2019\Community\VC\Tools\MSVC\14.28.29333\include\type_traits
; File C:\Program Files (x86)\Microsoft Visual Studio\2019\Community\VC\Tools\MSVC\14.28.29333\include\utility
; File C:\Program Files (x86)\Microsoft Visual Studio\2019\Community\VC\Tools\MSVC\14.28.29333\include\type_traits
; File C:\Program Files (x86)\Microsoft Visual Studio\2019\Community\VC\Tools\MSVC\14.28.29333\include\utility
; File C:\Program Files (x86)\Microsoft Visual Studio\2019\Community\VC\Tools\MSVC\14.28.29333\include\algorithm
;	COMDAT ??$_Partition_by_median_guess_unchecked@PAPAVCLight@@ULightComp@@@std@@YA?AU?$pair@PAPAVCLight@@PAPAV1@@0@PAPAVCLight@@0ULightComp@@@Z
_TEXT	SEGMENT
$T1 = -196						; size = 4
__Tmp$2 = -192						; size = 4
$T3 = -188						; size = 4
$T4 = -184						; size = 4
$T5 = -180						; size = 4
__Tmp$6 = -176						; size = 4
$T7 = -172						; size = 4
$T8 = -168						; size = 4
$T9 = -164						; size = 4
__Tmp$10 = -160						; size = 4
$T11 = -156						; size = 4
$T12 = -152						; size = 4
$T13 = -148						; size = 4
__Tmp$14 = -144						; size = 4
$T15 = -140						; size = 4
$T16 = -136						; size = 4
$T17 = -132						; size = 4
__Tmp$18 = -128						; size = 4
$T19 = -124						; size = 4
$T20 = -120						; size = 4
$T21 = -116						; size = 4
$T22 = -112						; size = 4
$T23 = -108						; size = 4
__Tmp$24 = -104						; size = 4
$T25 = -100						; size = 4
$T26 = -96						; size = 4
$T27 = -92						; size = 4
$T28 = -88						; size = 4
$T29 = -84						; size = 4
$T30 = -80						; size = 4
$T31 = -76						; size = 4
__Tmp$32 = -72						; size = 4
$T33 = -68						; size = 4
$T34 = -64						; size = 4
$T35 = -60						; size = 4
$T36 = -56						; size = 4
$T37 = -52						; size = 4
$T38 = -48						; size = 4
$T39 = -44						; size = 4
$T40 = -40						; size = 4
$T41 = -36						; size = 4
$T42 = -32						; size = 4
$T43 = -28						; size = 4
$T44 = -24						; size = 4
$T45 = -20						; size = 4
$T46 = -16						; size = 4
__Right$ = -12						; size = 4
__Left$ = -8						; size = 4
__Right$ = -4						; size = 4
__Left$ = 0						; size = 4
__Right$ = 4						; size = 4
__Left$ = 8						; size = 4
__Left$ = 12						; size = 4
tv247 = 16						; size = 4
tv242 = 20						; size = 4
__Left$ = 24						; size = 4
tv238 = 28						; size = 4
tv234 = 32						; size = 4
tv230 = 36						; size = 4
tv226 = 40						; size = 4
tv222 = 44						; size = 4
tv218 = 48						; size = 4
__Mid$ = 52						; size = 4
__First$ = 56						; size = 4
__First$ = 60						; size = 4
__First$ = 64						; size = 4
__First$ = 68						; size = 4
__First$ = 72						; size = 4
__First$ = 76						; size = 4
__First$ = 80						; size = 4
__First$ = 84						; size = 4
__Glast$ = 88						; size = 4
__Gfirst$ = 92						; size = 4
__Plast$ = 96						; size = 4
__Pfirst$ = 100						; size = 4
___$ReturnUdt$ = 112					; size = 4
__First$ = 116						; size = 4
__Last$ = 120						; size = 4
__Pred$ = 124						; size = 1
??$_Partition_by_median_guess_unchecked@PAPAVCLight@@ULightComp@@@std@@YA?AU?$pair@PAPAVCLight@@PAPAV1@@0@PAPAVCLight@@0ULightComp@@@Z PROC ; std::_Partition_by_median_guess_unchecked<CLight * *,LightComp>, COMDAT

; 7467 : _CONSTEXPR20 pair<_RanIt, _RanIt> _Partition_by_median_guess_unchecked(_RanIt _First, _RanIt _Last, _Pr _Pred) {

  00000	55		 push	 ebp
  00001	8d 6c 24 98	 lea	 ebp, DWORD PTR [esp-104]
  00005	81 ec 2c 01 00
	00		 sub	 esp, 300		; 0000012cH

; 7468 :     // partition [_First, _Last)
; 7469 :     _RanIt _Mid = _First + ((_Last - _First) >> 1); // shift for codegen

  0000b	8b 45 78	 mov	 eax, DWORD PTR __Last$[ebp]
  0000e	2b 45 74	 sub	 eax, DWORD PTR __First$[ebp]
  00011	c1 f8 02	 sar	 eax, 2
  00014	d1 f8		 sar	 eax, 1
  00016	8b 4d 74	 mov	 ecx, DWORD PTR __First$[ebp]
  00019	8d 04 81	 lea	 eax, DWORD PTR [ecx+eax*4]
  0001c	89 45 34	 mov	 DWORD PTR __Mid$[ebp], eax

; 7470 :     _Guess_median_unchecked(_First, _Mid, _Prev_iter(_Last), _Pred);

  0001f	8b 45 78	 mov	 eax, DWORD PTR __Last$[ebp]
  00022	89 45 50	 mov	 DWORD PTR __First$[ebp], eax
; File C:\Program Files (x86)\Microsoft Visual Studio\2019\Community\VC\Tools\MSVC\14.28.29333\include\xutility

; 1852 :     return --_First;

  00025	8b 45 50	 mov	 eax, DWORD PTR __First$[ebp]
  00028	83 e8 04	 sub	 eax, 4
  0002b	89 45 50	 mov	 DWORD PTR __First$[ebp], eax
; File C:\Program Files (x86)\Microsoft Visual Studio\2019\Community\VC\Tools\MSVC\14.28.29333\include\algorithm

; 7470 :     _Guess_median_unchecked(_First, _Mid, _Prev_iter(_Last), _Pred);

  0002e	ff 75 7c	 push	 DWORD PTR __Pred$[ebp]
  00031	ff 75 50	 push	 DWORD PTR __First$[ebp]
  00034	ff 75 34	 push	 DWORD PTR __Mid$[ebp]
  00037	ff 75 74	 push	 DWORD PTR __First$[ebp]
  0003a	e8 00 00 00 00	 call	 ??$_Guess_median_unchecked@PAPAVCLight@@ULightComp@@@std@@YAXPAPAVCLight@@00ULightComp@@@Z ; std::_Guess_median_unchecked<CLight * *,LightComp>
  0003f	83 c4 10	 add	 esp, 16			; 00000010H

; 7471 :     _RanIt _Pfirst = _Mid;

  00042	8b 45 34	 mov	 eax, DWORD PTR __Mid$[ebp]
  00045	89 45 64	 mov	 DWORD PTR __Pfirst$[ebp], eax

; 7472 :     _RanIt _Plast  = _Next_iter(_Pfirst);

  00048	8b 45 64	 mov	 eax, DWORD PTR __Pfirst$[ebp]
  0004b	89 45 4c	 mov	 DWORD PTR __First$[ebp], eax
; File C:\Program Files (x86)\Microsoft Visual Studio\2019\Community\VC\Tools\MSVC\14.28.29333\include\xutility

; 1837 :     return ++_First;

  0004e	8b 45 4c	 mov	 eax, DWORD PTR __First$[ebp]
  00051	83 c0 04	 add	 eax, 4
  00054	89 45 4c	 mov	 DWORD PTR __First$[ebp], eax
; File C:\Program Files (x86)\Microsoft Visual Studio\2019\Community\VC\Tools\MSVC\14.28.29333\include\algorithm

; 7472 :     _RanIt _Plast  = _Next_iter(_Pfirst);

  00057	8b 45 4c	 mov	 eax, DWORD PTR __First$[ebp]
  0005a	89 45 60	 mov	 DWORD PTR __Plast$[ebp], eax
$LN2@Partition_:

; 7475 :            && !_Pred(*_Pfirst, *_Prev_iter(_Pfirst))) {

  0005d	8b 45 74	 mov	 eax, DWORD PTR __First$[ebp]
  00060	3b 45 64	 cmp	 eax, DWORD PTR __Pfirst$[ebp]
  00063	0f 83 a8 00 00
	00		 jae	 $LN3@Partition_
  00069	8b 45 64	 mov	 eax, DWORD PTR __Pfirst$[ebp]
  0006c	89 45 48	 mov	 DWORD PTR __First$[ebp], eax
; File C:\Program Files (x86)\Microsoft Visual Studio\2019\Community\VC\Tools\MSVC\14.28.29333\include\xutility

; 1852 :     return --_First;

  0006f	8b 45 48	 mov	 eax, DWORD PTR __First$[ebp]
  00072	83 e8 04	 sub	 eax, 4
  00075	89 45 48	 mov	 DWORD PTR __First$[ebp], eax
; File D:\Metin2 Server Files\mainline\SRC_2014\Metin2Client\EterLib\GrpLightManager.h

; 45   : 		float		GetDistance() const { return m_fDistance;	}

  00078	8b 45 48	 mov	 eax, DWORD PTR __First$[ebp]
  0007b	8b 00		 mov	 eax, DWORD PTR [eax]
  0007d	f3 0f 10 40 78	 movss	 xmm0, DWORD PTR [eax+120]
  00082	f3 0f 11 45 ec	 movss	 DWORD PTR $T45[ebp], xmm0
  00087	8b 45 64	 mov	 eax, DWORD PTR __Pfirst$[ebp]
  0008a	8b 00		 mov	 eax, DWORD PTR [eax]
  0008c	f3 0f 10 40 78	 movss	 xmm0, DWORD PTR [eax+120]
  00091	f3 0f 11 45 f0	 movss	 DWORD PTR $T46[ebp], xmm0
; File D:\Metin2 Server Files\mainline\SRC_2014\Metin2Client\EterLib\GrpLightManager.cpp

; 96   : 		return l->GetDistance() < r->GetDistance();

  00096	f3 0f 10 45 f0	 movss	 xmm0, DWORD PTR $T46[ebp]
  0009b	0f 2f 45 ec	 comiss	 xmm0, DWORD PTR $T45[ebp]
  0009f	76 09		 jbe	 SHORT $LN42@Partition_
  000a1	c7 45 30 01 00
	00 00		 mov	 DWORD PTR tv218[ebp], 1
  000a8	eb 04		 jmp	 SHORT $LN43@Partition_
$LN42@Partition_:
  000aa	83 65 30 00	 and	 DWORD PTR tv218[ebp], 0
$LN43@Partition_:
; File C:\Program Files (x86)\Microsoft Visual Studio\2019\Community\VC\Tools\MSVC\14.28.29333\include\algorithm

; 7475 :            && !_Pred(*_Pfirst, *_Prev_iter(_Pfirst))) {

  000ae	0f b6 45 30	 movzx	 eax, BYTE PTR tv218[ebp]
  000b2	85 c0		 test	 eax, eax
  000b4	75 5b		 jne	 SHORT $LN3@Partition_
  000b6	8b 45 64	 mov	 eax, DWORD PTR __Pfirst$[ebp]
  000b9	89 45 44	 mov	 DWORD PTR __First$[ebp], eax
; File C:\Program Files (x86)\Microsoft Visual Studio\2019\Community\VC\Tools\MSVC\14.28.29333\include\xutility

; 1852 :     return --_First;

  000bc	8b 45 44	 mov	 eax, DWORD PTR __First$[ebp]
  000bf	83 e8 04	 sub	 eax, 4
  000c2	89 45 44	 mov	 DWORD PTR __First$[ebp], eax
; File D:\Metin2 Server Files\mainline\SRC_2014\Metin2Client\EterLib\GrpLightManager.h

; 45   : 		float		GetDistance() const { return m_fDistance;	}

  000c5	8b 45 64	 mov	 eax, DWORD PTR __Pfirst$[ebp]
  000c8	8b 00		 mov	 eax, DWORD PTR [eax]
  000ca	f3 0f 10 40 78	 movss	 xmm0, DWORD PTR [eax+120]
  000cf	f3 0f 11 45 e4	 movss	 DWORD PTR $T43[ebp], xmm0
  000d4	8b 45 44	 mov	 eax, DWORD PTR __First$[ebp]
  000d7	8b 00		 mov	 eax, DWORD PTR [eax]
  000d9	f3 0f 10 40 78	 movss	 xmm0, DWORD PTR [eax+120]
  000de	f3 0f 11 45 e8	 movss	 DWORD PTR $T44[ebp], xmm0
; File D:\Metin2 Server Files\mainline\SRC_2014\Metin2Client\EterLib\GrpLightManager.cpp

; 96   : 		return l->GetDistance() < r->GetDistance();

  000e3	f3 0f 10 45 e8	 movss	 xmm0, DWORD PTR $T44[ebp]
  000e8	0f 2f 45 e4	 comiss	 xmm0, DWORD PTR $T43[ebp]
  000ec	76 09		 jbe	 SHORT $LN52@Partition_
  000ee	c7 45 2c 01 00
	00 00		 mov	 DWORD PTR tv222[ebp], 1
  000f5	eb 04		 jmp	 SHORT $LN53@Partition_
$LN52@Partition_:
  000f7	83 65 2c 00	 and	 DWORD PTR tv222[ebp], 0
$LN53@Partition_:
; File C:\Program Files (x86)\Microsoft Visual Studio\2019\Community\VC\Tools\MSVC\14.28.29333\include\algorithm

; 7475 :            && !_Pred(*_Pfirst, *_Prev_iter(_Pfirst))) {

  000fb	0f b6 45 2c	 movzx	 eax, BYTE PTR tv222[ebp]
  000ff	85 c0		 test	 eax, eax
  00101	75 0e		 jne	 SHORT $LN3@Partition_

; 7476 :         --_Pfirst;

  00103	8b 45 64	 mov	 eax, DWORD PTR __Pfirst$[ebp]
  00106	83 e8 04	 sub	 eax, 4
  00109	89 45 64	 mov	 DWORD PTR __Pfirst$[ebp], eax

; 7477 :     }

  0010c	e9 4c ff ff ff	 jmp	 $LN2@Partition_
$LN3@Partition_:

; 7479 :     while (_Plast < _Last && !_DEBUG_LT_PRED(_Pred, *_Plast, *_Pfirst) && !_Pred(*_Pfirst, *_Plast)) {

  00111	8b 45 60	 mov	 eax, DWORD PTR __Plast$[ebp]
  00114	3b 45 78	 cmp	 eax, DWORD PTR __Last$[ebp]
  00117	0f 83 8a 00 00
	00		 jae	 $LN5@Partition_
; File D:\Metin2 Server Files\mainline\SRC_2014\Metin2Client\EterLib\GrpLightManager.h

; 45   : 		float		GetDistance() const { return m_fDistance;	}

  0011d	8b 45 60	 mov	 eax, DWORD PTR __Plast$[ebp]
  00120	8b 00		 mov	 eax, DWORD PTR [eax]
  00122	f3 0f 10 40 78	 movss	 xmm0, DWORD PTR [eax+120]
  00127	f3 0f 11 45 dc	 movss	 DWORD PTR $T41[ebp], xmm0
  0012c	8b 45 64	 mov	 eax, DWORD PTR __Pfirst$[ebp]
  0012f	8b 00		 mov	 eax, DWORD PTR [eax]
  00131	f3 0f 10 40 78	 movss	 xmm0, DWORD PTR [eax+120]
  00136	f3 0f 11 45 e0	 movss	 DWORD PTR $T42[ebp], xmm0
; File D:\Metin2 Server Files\mainline\SRC_2014\Metin2Client\EterLib\GrpLightManager.cpp

; 96   : 		return l->GetDistance() < r->GetDistance();

  0013b	f3 0f 10 45 e0	 movss	 xmm0, DWORD PTR $T42[ebp]
  00140	0f 2f 45 dc	 comiss	 xmm0, DWORD PTR $T41[ebp]
  00144	76 09		 jbe	 SHORT $LN60@Partition_
  00146	c7 45 28 01 00
	00 00		 mov	 DWORD PTR tv226[ebp], 1
  0014d	eb 04		 jmp	 SHORT $LN61@Partition_
$LN60@Partition_:
  0014f	83 65 28 00	 and	 DWORD PTR tv226[ebp], 0
$LN61@Partition_:
; File C:\Program Files (x86)\Microsoft Visual Studio\2019\Community\VC\Tools\MSVC\14.28.29333\include\algorithm

; 7479 :     while (_Plast < _Last && !_DEBUG_LT_PRED(_Pred, *_Plast, *_Pfirst) && !_Pred(*_Pfirst, *_Plast)) {

  00153	0f b6 45 28	 movzx	 eax, BYTE PTR tv226[ebp]
  00157	85 c0		 test	 eax, eax
  00159	75 4c		 jne	 SHORT $LN5@Partition_
; File D:\Metin2 Server Files\mainline\SRC_2014\Metin2Client\EterLib\GrpLightManager.h

; 45   : 		float		GetDistance() const { return m_fDistance;	}

  0015b	8b 45 64	 mov	 eax, DWORD PTR __Pfirst$[ebp]
  0015e	8b 00		 mov	 eax, DWORD PTR [eax]
  00160	f3 0f 10 40 78	 movss	 xmm0, DWORD PTR [eax+120]
  00165	f3 0f 11 45 d4	 movss	 DWORD PTR $T39[ebp], xmm0
  0016a	8b 45 60	 mov	 eax, DWORD PTR __Plast$[ebp]
  0016d	8b 00		 mov	 eax, DWORD PTR [eax]
  0016f	f3 0f 10 40 78	 movss	 xmm0, DWORD PTR [eax+120]
  00174	f3 0f 11 45 d8	 movss	 DWORD PTR $T40[ebp], xmm0
; File D:\Metin2 Server Files\mainline\SRC_2014\Metin2Client\EterLib\GrpLightManager.cpp

; 96   : 		return l->GetDistance() < r->GetDistance();

  00179	f3 0f 10 45 d8	 movss	 xmm0, DWORD PTR $T40[ebp]
  0017e	0f 2f 45 d4	 comiss	 xmm0, DWORD PTR $T39[ebp]
  00182	76 09		 jbe	 SHORT $LN68@Partition_
  00184	c7 45 24 01 00
	00 00		 mov	 DWORD PTR tv230[ebp], 1
  0018b	eb 04		 jmp	 SHORT $LN69@Partition_
$LN68@Partition_:
  0018d	83 65 24 00	 and	 DWORD PTR tv230[ebp], 0
$LN69@Partition_:
; File C:\Program Files (x86)\Microsoft Visual Studio\2019\Community\VC\Tools\MSVC\14.28.29333\include\algorithm

; 7479 :     while (_Plast < _Last && !_DEBUG_LT_PRED(_Pred, *_Plast, *_Pfirst) && !_Pred(*_Pfirst, *_Plast)) {

  00191	0f b6 45 24	 movzx	 eax, BYTE PTR tv230[ebp]
  00195	85 c0		 test	 eax, eax
  00197	75 0e		 jne	 SHORT $LN5@Partition_

; 7480 :         ++_Plast;

  00199	8b 45 60	 mov	 eax, DWORD PTR __Plast$[ebp]
  0019c	83 c0 04	 add	 eax, 4
  0019f	89 45 60	 mov	 DWORD PTR __Plast$[ebp], eax

; 7481 :     }

  001a2	e9 6a ff ff ff	 jmp	 $LN3@Partition_
$LN5@Partition_:

; 7482 : 
; 7483 :     _RanIt _Gfirst = _Plast;

  001a7	8b 45 60	 mov	 eax, DWORD PTR __Plast$[ebp]
  001aa	89 45 5c	 mov	 DWORD PTR __Gfirst$[ebp], eax

; 7484 :     _RanIt _Glast  = _Pfirst;

  001ad	8b 45 64	 mov	 eax, DWORD PTR __Pfirst$[ebp]
  001b0	89 45 58	 mov	 DWORD PTR __Glast$[ebp], eax
$LN6@Partition_:

; 7485 : 
; 7486 :     for (;;) { // partition
; 7487 :         for (; _Gfirst < _Last; ++_Gfirst) {

  001b3	eb 09		 jmp	 SHORT $LN11@Partition_
$LN9@Partition_:
  001b5	8b 45 5c	 mov	 eax, DWORD PTR __Gfirst$[ebp]
  001b8	83 c0 04	 add	 eax, 4
  001bb	89 45 5c	 mov	 DWORD PTR __Gfirst$[ebp], eax
$LN11@Partition_:
  001be	8b 45 5c	 mov	 eax, DWORD PTR __Gfirst$[ebp]
  001c1	3b 45 78	 cmp	 eax, DWORD PTR __Last$[ebp]
  001c4	0f 83 dc 00 00
	00		 jae	 $LN10@Partition_
; File D:\Metin2 Server Files\mainline\SRC_2014\Metin2Client\EterLib\GrpLightManager.h

; 45   : 		float		GetDistance() const { return m_fDistance;	}

  001ca	8b 45 64	 mov	 eax, DWORD PTR __Pfirst$[ebp]
  001cd	8b 00		 mov	 eax, DWORD PTR [eax]
  001cf	f3 0f 10 40 78	 movss	 xmm0, DWORD PTR [eax+120]
  001d4	f3 0f 11 45 cc	 movss	 DWORD PTR $T37[ebp], xmm0
  001d9	8b 45 5c	 mov	 eax, DWORD PTR __Gfirst$[ebp]
  001dc	8b 00		 mov	 eax, DWORD PTR [eax]
  001de	f3 0f 10 40 78	 movss	 xmm0, DWORD PTR [eax+120]
  001e3	f3 0f 11 45 d0	 movss	 DWORD PTR $T38[ebp], xmm0
; File D:\Metin2 Server Files\mainline\SRC_2014\Metin2Client\EterLib\GrpLightManager.cpp

; 96   : 		return l->GetDistance() < r->GetDistance();

  001e8	f3 0f 10 45 d0	 movss	 xmm0, DWORD PTR $T38[ebp]
  001ed	0f 2f 45 cc	 comiss	 xmm0, DWORD PTR $T37[ebp]
  001f1	76 09		 jbe	 SHORT $LN76@Partition_
  001f3	c7 45 20 01 00
	00 00		 mov	 DWORD PTR tv234[ebp], 1
  001fa	eb 04		 jmp	 SHORT $LN77@Partition_
$LN76@Partition_:
  001fc	83 65 20 00	 and	 DWORD PTR tv234[ebp], 0
$LN77@Partition_:
; File C:\Program Files (x86)\Microsoft Visual Studio\2019\Community\VC\Tools\MSVC\14.28.29333\include\algorithm

; 7488 :             if (_DEBUG_LT_PRED(_Pred, *_Pfirst, *_Gfirst)) {

  00200	0f b6 45 20	 movzx	 eax, BYTE PTR tv234[ebp]
  00204	85 c0		 test	 eax, eax
  00206	74 07		 je	 SHORT $LN15@Partition_

; 7489 :                 continue;

  00208	eb ab		 jmp	 SHORT $LN9@Partition_

; 7490 :             } else if (_Pred(*_Gfirst, *_Pfirst)) {

  0020a	e9 92 00 00 00	 jmp	 $LN20@Partition_
$LN15@Partition_:
; File D:\Metin2 Server Files\mainline\SRC_2014\Metin2Client\EterLib\GrpLightManager.h

; 45   : 		float		GetDistance() const { return m_fDistance;	}

  0020f	8b 45 5c	 mov	 eax, DWORD PTR __Gfirst$[ebp]
  00212	8b 00		 mov	 eax, DWORD PTR [eax]
  00214	f3 0f 10 40 78	 movss	 xmm0, DWORD PTR [eax+120]
  00219	f3 0f 11 45 c4	 movss	 DWORD PTR $T35[ebp], xmm0
  0021e	8b 45 64	 mov	 eax, DWORD PTR __Pfirst$[ebp]
  00221	8b 00		 mov	 eax, DWORD PTR [eax]
  00223	f3 0f 10 40 78	 movss	 xmm0, DWORD PTR [eax+120]
  00228	f3 0f 11 45 c8	 movss	 DWORD PTR $T36[ebp], xmm0
; File D:\Metin2 Server Files\mainline\SRC_2014\Metin2Client\EterLib\GrpLightManager.cpp

; 96   : 		return l->GetDistance() < r->GetDistance();

  0022d	f3 0f 10 45 c8	 movss	 xmm0, DWORD PTR $T36[ebp]
  00232	0f 2f 45 c4	 comiss	 xmm0, DWORD PTR $T35[ebp]
  00236	76 09		 jbe	 SHORT $LN84@Partition_
  00238	c7 45 1c 01 00
	00 00		 mov	 DWORD PTR tv238[ebp], 1
  0023f	eb 04		 jmp	 SHORT $LN85@Partition_
$LN84@Partition_:
  00241	83 65 1c 00	 and	 DWORD PTR tv238[ebp], 0
$LN85@Partition_:
; File C:\Program Files (x86)\Microsoft Visual Studio\2019\Community\VC\Tools\MSVC\14.28.29333\include\algorithm

; 7490 :             } else if (_Pred(*_Gfirst, *_Pfirst)) {

  00245	0f b6 45 1c	 movzx	 eax, BYTE PTR tv238[ebp]
  00249	85 c0		 test	 eax, eax
  0024b	74 04		 je	 SHORT $LN17@Partition_

; 7491 :                 break;

  0024d	eb 57		 jmp	 SHORT $LN10@Partition_
  0024f	eb 50		 jmp	 SHORT $LN20@Partition_
$LN17@Partition_:

; 7492 :             } else if (_Plast != _Gfirst) {

  00251	8b 45 60	 mov	 eax, DWORD PTR __Plast$[ebp]
  00254	3b 45 5c	 cmp	 eax, DWORD PTR __Gfirst$[ebp]
  00257	74 3f		 je	 SHORT $LN19@Partition_

; 7493 :                 _STD iter_swap(_Plast, _Gfirst);

  00259	8b 45 60	 mov	 eax, DWORD PTR __Plast$[ebp]
  0025c	89 45 18	 mov	 DWORD PTR __Left$[ebp], eax
; File C:\Program Files (x86)\Microsoft Visual Studio\2019\Community\VC\Tools\MSVC\14.28.29333\include\type_traits

; 1455 :     return static_cast<remove_reference_t<_Ty>&&>(_Arg);

  0025f	8b 45 18	 mov	 eax, DWORD PTR __Left$[ebp]
  00262	89 45 c0	 mov	 DWORD PTR $T34[ebp], eax
; File C:\Program Files (x86)\Microsoft Visual Studio\2019\Community\VC\Tools\MSVC\14.28.29333\include\utility

; 104  :     _Ty _Tmp = _STD move(_Left);

  00265	8b 45 c0	 mov	 eax, DWORD PTR $T34[ebp]
  00268	8b 00		 mov	 eax, DWORD PTR [eax]
  0026a	89 45 b8	 mov	 DWORD PTR __Tmp$32[ebp], eax
; File C:\Program Files (x86)\Microsoft Visual Studio\2019\Community\VC\Tools\MSVC\14.28.29333\include\type_traits

; 1455 :     return static_cast<remove_reference_t<_Ty>&&>(_Arg);

  0026d	8b 45 5c	 mov	 eax, DWORD PTR __Gfirst$[ebp]
  00270	89 45 bc	 mov	 DWORD PTR $T33[ebp], eax
; File C:\Program Files (x86)\Microsoft Visual Studio\2019\Community\VC\Tools\MSVC\14.28.29333\include\utility

; 105  :     _Left    = _STD move(_Right);

  00273	8b 45 18	 mov	 eax, DWORD PTR __Left$[ebp]
  00276	8b 4d bc	 mov	 ecx, DWORD PTR $T33[ebp]
  00279	8b 09		 mov	 ecx, DWORD PTR [ecx]
  0027b	89 08		 mov	 DWORD PTR [eax], ecx
; File C:\Program Files (x86)\Microsoft Visual Studio\2019\Community\VC\Tools\MSVC\14.28.29333\include\type_traits

; 1455 :     return static_cast<remove_reference_t<_Ty>&&>(_Arg);

  0027d	8d 45 b8	 lea	 eax, DWORD PTR __Tmp$32[ebp]
  00280	89 45 b4	 mov	 DWORD PTR $T31[ebp], eax
; File C:\Program Files (x86)\Microsoft Visual Studio\2019\Community\VC\Tools\MSVC\14.28.29333\include\utility

; 106  :     _Right   = _STD move(_Tmp);

  00283	8b 45 5c	 mov	 eax, DWORD PTR __Gfirst$[ebp]
  00286	8b 4d b4	 mov	 ecx, DWORD PTR $T31[ebp]
  00289	8b 09		 mov	 ecx, DWORD PTR [ecx]
  0028b	89 08		 mov	 DWORD PTR [eax], ecx
; File C:\Program Files (x86)\Microsoft Visual Studio\2019\Community\VC\Tools\MSVC\14.28.29333\include\algorithm

; 7494 :                 ++_Plast;

  0028d	8b 45 60	 mov	 eax, DWORD PTR __Plast$[ebp]
  00290	83 c0 04	 add	 eax, 4
  00293	89 45 60	 mov	 DWORD PTR __Plast$[ebp], eax

; 7495 :             } else {

  00296	eb 09		 jmp	 SHORT $LN20@Partition_
$LN19@Partition_:

; 7496 :                 ++_Plast;

  00298	8b 45 60	 mov	 eax, DWORD PTR __Plast$[ebp]
  0029b	83 c0 04	 add	 eax, 4
  0029e	89 45 60	 mov	 DWORD PTR __Plast$[ebp], eax
$LN20@Partition_:

; 7497 :             }
; 7498 :         }

  002a1	e9 0f ff ff ff	 jmp	 $LN9@Partition_
$LN10@Partition_:

; 7499 : 
; 7500 :         for (; _First < _Glast; --_Glast) {

  002a6	eb 09		 jmp	 SHORT $LN14@Partition_
$LN12@Partition_:
  002a8	8b 45 58	 mov	 eax, DWORD PTR __Glast$[ebp]
  002ab	83 e8 04	 sub	 eax, 4
  002ae	89 45 58	 mov	 DWORD PTR __Glast$[ebp], eax
$LN14@Partition_:
  002b1	8b 45 74	 mov	 eax, DWORD PTR __First$[ebp]
  002b4	3b 45 58	 cmp	 eax, DWORD PTR __Glast$[ebp]
  002b7	0f 83 0d 01 00
	00		 jae	 $LN13@Partition_

; 7501 :             if (_DEBUG_LT_PRED(_Pred, *_Prev_iter(_Glast), *_Pfirst)) {

  002bd	8b 45 58	 mov	 eax, DWORD PTR __Glast$[ebp]
  002c0	89 45 40	 mov	 DWORD PTR __First$[ebp], eax
; File C:\Program Files (x86)\Microsoft Visual Studio\2019\Community\VC\Tools\MSVC\14.28.29333\include\xutility

; 1852 :     return --_First;

  002c3	8b 45 40	 mov	 eax, DWORD PTR __First$[ebp]
  002c6	83 e8 04	 sub	 eax, 4
  002c9	89 45 40	 mov	 DWORD PTR __First$[ebp], eax
; File D:\Metin2 Server Files\mainline\SRC_2014\Metin2Client\EterLib\GrpLightManager.h

; 45   : 		float		GetDistance() const { return m_fDistance;	}

  002cc	8b 45 40	 mov	 eax, DWORD PTR __First$[ebp]
  002cf	8b 00		 mov	 eax, DWORD PTR [eax]
  002d1	f3 0f 10 40 78	 movss	 xmm0, DWORD PTR [eax+120]
  002d6	f3 0f 11 45 ac	 movss	 DWORD PTR $T29[ebp], xmm0
  002db	8b 45 64	 mov	 eax, DWORD PTR __Pfirst$[ebp]
  002de	8b 00		 mov	 eax, DWORD PTR [eax]
  002e0	f3 0f 10 40 78	 movss	 xmm0, DWORD PTR [eax+120]
  002e5	f3 0f 11 45 b0	 movss	 DWORD PTR $T30[ebp], xmm0
; File D:\Metin2 Server Files\mainline\SRC_2014\Metin2Client\EterLib\GrpLightManager.cpp

; 96   : 		return l->GetDistance() < r->GetDistance();

  002ea	f3 0f 10 45 b0	 movss	 xmm0, DWORD PTR $T30[ebp]
  002ef	0f 2f 45 ac	 comiss	 xmm0, DWORD PTR $T29[ebp]
  002f3	76 09		 jbe	 SHORT $LN108@Partition_
  002f5	c7 45 14 01 00
	00 00		 mov	 DWORD PTR tv242[ebp], 1
  002fc	eb 04		 jmp	 SHORT $LN109@Partition_
$LN108@Partition_:
  002fe	83 65 14 00	 and	 DWORD PTR tv242[ebp], 0
$LN109@Partition_:
; File C:\Program Files (x86)\Microsoft Visual Studio\2019\Community\VC\Tools\MSVC\14.28.29333\include\algorithm

; 7501 :             if (_DEBUG_LT_PRED(_Pred, *_Prev_iter(_Glast), *_Pfirst)) {

  00302	0f b6 45 14	 movzx	 eax, BYTE PTR tv242[ebp]
  00306	85 c0		 test	 eax, eax
  00308	74 07		 je	 SHORT $LN21@Partition_

; 7502 :                 continue;

  0030a	eb 9c		 jmp	 SHORT $LN12@Partition_
  0030c	e9 b4 00 00 00	 jmp	 $LN128@Partition_
$LN21@Partition_:

; 7503 :             } else if (_Pred(*_Pfirst, *_Prev_iter(_Glast))) {

  00311	8b 45 58	 mov	 eax, DWORD PTR __Glast$[ebp]
  00314	89 45 3c	 mov	 DWORD PTR __First$[ebp], eax
; File C:\Program Files (x86)\Microsoft Visual Studio\2019\Community\VC\Tools\MSVC\14.28.29333\include\xutility

; 1852 :     return --_First;

  00317	8b 45 3c	 mov	 eax, DWORD PTR __First$[ebp]
  0031a	83 e8 04	 sub	 eax, 4
  0031d	89 45 3c	 mov	 DWORD PTR __First$[ebp], eax
; File D:\Metin2 Server Files\mainline\SRC_2014\Metin2Client\EterLib\GrpLightManager.h

; 45   : 		float		GetDistance() const { return m_fDistance;	}

  00320	8b 45 64	 mov	 eax, DWORD PTR __Pfirst$[ebp]
  00323	8b 00		 mov	 eax, DWORD PTR [eax]
  00325	f3 0f 10 40 78	 movss	 xmm0, DWORD PTR [eax+120]
  0032a	f3 0f 11 45 a4	 movss	 DWORD PTR $T27[ebp], xmm0
  0032f	8b 45 3c	 mov	 eax, DWORD PTR __First$[ebp]
  00332	8b 00		 mov	 eax, DWORD PTR [eax]
  00334	f3 0f 10 40 78	 movss	 xmm0, DWORD PTR [eax+120]
  00339	f3 0f 11 45 a8	 movss	 DWORD PTR $T28[ebp], xmm0
; File D:\Metin2 Server Files\mainline\SRC_2014\Metin2Client\EterLib\GrpLightManager.cpp

; 96   : 		return l->GetDistance() < r->GetDistance();

  0033e	f3 0f 10 45 a8	 movss	 xmm0, DWORD PTR $T28[ebp]
  00343	0f 2f 45 a4	 comiss	 xmm0, DWORD PTR $T27[ebp]
  00347	76 09		 jbe	 SHORT $LN118@Partition_
  00349	c7 45 10 01 00
	00 00		 mov	 DWORD PTR tv247[ebp], 1
  00350	eb 04		 jmp	 SHORT $LN119@Partition_
$LN118@Partition_:
  00352	83 65 10 00	 and	 DWORD PTR tv247[ebp], 0
$LN119@Partition_:
; File C:\Program Files (x86)\Microsoft Visual Studio\2019\Community\VC\Tools\MSVC\14.28.29333\include\algorithm

; 7503 :             } else if (_Pred(*_Pfirst, *_Prev_iter(_Glast))) {

  00356	0f b6 45 10	 movzx	 eax, BYTE PTR tv247[ebp]
  0035a	85 c0		 test	 eax, eax
  0035c	74 04		 je	 SHORT $LN23@Partition_

; 7504 :                 break;

  0035e	eb 6a		 jmp	 SHORT $LN13@Partition_
  00360	eb 63		 jmp	 SHORT $LN128@Partition_
$LN23@Partition_:

; 7505 :             } else if (--_Pfirst != _Prev_iter(_Glast)) {

  00362	8b 45 64	 mov	 eax, DWORD PTR __Pfirst$[ebp]
  00365	83 e8 04	 sub	 eax, 4
  00368	89 45 64	 mov	 DWORD PTR __Pfirst$[ebp], eax
  0036b	8b 45 58	 mov	 eax, DWORD PTR __Glast$[ebp]
  0036e	89 45 38	 mov	 DWORD PTR __First$[ebp], eax
; File C:\Program Files (x86)\Microsoft Visual Studio\2019\Community\VC\Tools\MSVC\14.28.29333\include\xutility

; 1852 :     return --_First;

  00371	8b 45 38	 mov	 eax, DWORD PTR __First$[ebp]
  00374	83 e8 04	 sub	 eax, 4
  00377	89 45 38	 mov	 DWORD PTR __First$[ebp], eax
; File C:\Program Files (x86)\Microsoft Visual Studio\2019\Community\VC\Tools\MSVC\14.28.29333\include\algorithm

; 7505 :             } else if (--_Pfirst != _Prev_iter(_Glast)) {

  0037a	8b 45 64	 mov	 eax, DWORD PTR __Pfirst$[ebp]
  0037d	3b 45 38	 cmp	 eax, DWORD PTR __First$[ebp]
  00380	74 43		 je	 SHORT $LN128@Partition_

; 7506 :                 _STD iter_swap(_Pfirst, _Prev_iter(_Glast));

  00382	8b 45 58	 mov	 eax, DWORD PTR __Glast$[ebp]
  00385	89 45 54	 mov	 DWORD PTR __First$[ebp], eax
; File C:\Program Files (x86)\Microsoft Visual Studio\2019\Community\VC\Tools\MSVC\14.28.29333\include\xutility

; 1852 :     return --_First;

  00388	8b 45 54	 mov	 eax, DWORD PTR __First$[ebp]
  0038b	83 e8 04	 sub	 eax, 4
  0038e	89 45 54	 mov	 DWORD PTR __First$[ebp], eax
; File C:\Program Files (x86)\Microsoft Visual Studio\2019\Community\VC\Tools\MSVC\14.28.29333\include\algorithm

; 7506 :                 _STD iter_swap(_Pfirst, _Prev_iter(_Glast));

  00391	8b 45 64	 mov	 eax, DWORD PTR __Pfirst$[ebp]
  00394	89 45 0c	 mov	 DWORD PTR __Left$[ebp], eax
; File C:\Program Files (x86)\Microsoft Visual Studio\2019\Community\VC\Tools\MSVC\14.28.29333\include\type_traits

; 1455 :     return static_cast<remove_reference_t<_Ty>&&>(_Arg);

  00397	8b 45 0c	 mov	 eax, DWORD PTR __Left$[ebp]
  0039a	89 45 a0	 mov	 DWORD PTR $T26[ebp], eax
; File C:\Program Files (x86)\Microsoft Visual Studio\2019\Community\VC\Tools\MSVC\14.28.29333\include\utility

; 104  :     _Ty _Tmp = _STD move(_Left);

  0039d	8b 45 a0	 mov	 eax, DWORD PTR $T26[ebp]
  003a0	8b 00		 mov	 eax, DWORD PTR [eax]
  003a2	89 45 98	 mov	 DWORD PTR __Tmp$24[ebp], eax
; File C:\Program Files (x86)\Microsoft Visual Studio\2019\Community\VC\Tools\MSVC\14.28.29333\include\type_traits

; 1455 :     return static_cast<remove_reference_t<_Ty>&&>(_Arg);

  003a5	8b 45 54	 mov	 eax, DWORD PTR __First$[ebp]
  003a8	89 45 9c	 mov	 DWORD PTR $T25[ebp], eax
; File C:\Program Files (x86)\Microsoft Visual Studio\2019\Community\VC\Tools\MSVC\14.28.29333\include\utility

; 105  :     _Left    = _STD move(_Right);

  003ab	8b 45 0c	 mov	 eax, DWORD PTR __Left$[ebp]
  003ae	8b 4d 9c	 mov	 ecx, DWORD PTR $T25[ebp]
  003b1	8b 09		 mov	 ecx, DWORD PTR [ecx]
  003b3	89 08		 mov	 DWORD PTR [eax], ecx
; File C:\Program Files (x86)\Microsoft Visual Studio\2019\Community\VC\Tools\MSVC\14.28.29333\include\type_traits

; 1455 :     return static_cast<remove_reference_t<_Ty>&&>(_Arg);

  003b5	8d 45 98	 lea	 eax, DWORD PTR __Tmp$24[ebp]
  003b8	89 45 94	 mov	 DWORD PTR $T23[ebp], eax
; File C:\Program Files (x86)\Microsoft Visual Studio\2019\Community\VC\Tools\MSVC\14.28.29333\include\utility

; 106  :     _Right   = _STD move(_Tmp);

  003bb	8b 45 54	 mov	 eax, DWORD PTR __First$[ebp]
  003be	8b 4d 94	 mov	 ecx, DWORD PTR $T23[ebp]
  003c1	8b 09		 mov	 ecx, DWORD PTR [ecx]
  003c3	89 08		 mov	 DWORD PTR [eax], ecx
$LN128@Partition_:
; File C:\Program Files (x86)\Microsoft Visual Studio\2019\Community\VC\Tools\MSVC\14.28.29333\include\algorithm

; 7508 :         }

  003c5	e9 de fe ff ff	 jmp	 $LN12@Partition_
$LN13@Partition_:

; 7509 : 
; 7510 :         if (_Glast == _First && _Gfirst == _Last) {

  003ca	8b 45 58	 mov	 eax, DWORD PTR __Glast$[ebp]
  003cd	3b 45 74	 cmp	 eax, DWORD PTR __First$[ebp]
  003d0	75 31		 jne	 SHORT $LN26@Partition_
  003d2	8b 45 5c	 mov	 eax, DWORD PTR __Gfirst$[ebp]
  003d5	3b 45 78	 cmp	 eax, DWORD PTR __Last$[ebp]
  003d8	75 29		 jne	 SHORT $LN26@Partition_
; File C:\Program Files (x86)\Microsoft Visual Studio\2019\Community\VC\Tools\MSVC\14.28.29333\include\type_traits

; 1443 :     return static_cast<_Ty&&>(_Arg);

  003da	8d 45 64	 lea	 eax, DWORD PTR __Pfirst$[ebp]
  003dd	89 45 90	 mov	 DWORD PTR $T22[ebp], eax
; File C:\Program Files (x86)\Microsoft Visual Studio\2019\Community\VC\Tools\MSVC\14.28.29333\include\utility

; 190  :         : first(_STD forward<_Other1>(_Val1)), second(_STD forward<_Other2>(_Val2)) {}

  003e0	8b 45 70	 mov	 eax, DWORD PTR ___$ReturnUdt$[ebp]
  003e3	8b 4d 90	 mov	 ecx, DWORD PTR $T22[ebp]
  003e6	8b 09		 mov	 ecx, DWORD PTR [ecx]
  003e8	89 08		 mov	 DWORD PTR [eax], ecx
; File C:\Program Files (x86)\Microsoft Visual Studio\2019\Community\VC\Tools\MSVC\14.28.29333\include\type_traits

; 1443 :     return static_cast<_Ty&&>(_Arg);

  003ea	8d 45 60	 lea	 eax, DWORD PTR __Plast$[ebp]
  003ed	89 45 8c	 mov	 DWORD PTR $T21[ebp], eax
; File C:\Program Files (x86)\Microsoft Visual Studio\2019\Community\VC\Tools\MSVC\14.28.29333\include\utility

; 190  :         : first(_STD forward<_Other1>(_Val1)), second(_STD forward<_Other2>(_Val2)) {}

  003f0	8b 45 70	 mov	 eax, DWORD PTR ___$ReturnUdt$[ebp]
  003f3	8b 4d 8c	 mov	 ecx, DWORD PTR $T21[ebp]
  003f6	8b 09		 mov	 ecx, DWORD PTR [ecx]
  003f8	89 48 04	 mov	 DWORD PTR [eax+4], ecx
; File C:\Program Files (x86)\Microsoft Visual Studio\2019\Community\VC\Tools\MSVC\14.28.29333\include\algorithm

; 7511 :             return pair<_RanIt, _RanIt>(_Pfirst, _Plast);

  003fb	8b 45 70	 mov	 eax, DWORD PTR ___$ReturnUdt$[ebp]
  003fe	e9 ec 01 00 00	 jmp	 $LN7@Partition_
$LN26@Partition_:

; 7512 :         }
; 7513 : 
; 7514 :         if (_Glast == _First) { // no room at bottom, rotate pivot upward

  00403	8b 45 58	 mov	 eax, DWORD PTR __Glast$[ebp]
  00406	3b 45 74	 cmp	 eax, DWORD PTR __First$[ebp]
  00409	0f 85 b4 00 00
	00		 jne	 $LN27@Partition_

; 7515 :             if (_Plast != _Gfirst) {

  0040f	8b 45 60	 mov	 eax, DWORD PTR __Plast$[ebp]
  00412	3b 45 5c	 cmp	 eax, DWORD PTR __Gfirst$[ebp]
  00415	74 40		 je	 SHORT $LN151@Partition_

; 7516 :                 _STD iter_swap(_Pfirst, _Plast);

  00417	8b 45 60	 mov	 eax, DWORD PTR __Plast$[ebp]
  0041a	89 45 04	 mov	 DWORD PTR __Right$[ebp], eax
  0041d	8b 45 64	 mov	 eax, DWORD PTR __Pfirst$[ebp]
  00420	89 45 08	 mov	 DWORD PTR __Left$[ebp], eax
; File C:\Program Files (x86)\Microsoft Visual Studio\2019\Community\VC\Tools\MSVC\14.28.29333\include\type_traits

; 1455 :     return static_cast<remove_reference_t<_Ty>&&>(_Arg);

  00423	8b 45 08	 mov	 eax, DWORD PTR __Left$[ebp]
  00426	89 45 88	 mov	 DWORD PTR $T20[ebp], eax
; File C:\Program Files (x86)\Microsoft Visual Studio\2019\Community\VC\Tools\MSVC\14.28.29333\include\utility

; 104  :     _Ty _Tmp = _STD move(_Left);

  00429	8b 45 88	 mov	 eax, DWORD PTR $T20[ebp]
  0042c	8b 00		 mov	 eax, DWORD PTR [eax]
  0042e	89 45 80	 mov	 DWORD PTR __Tmp$18[ebp], eax
; File C:\Program Files (x86)\Microsoft Visual Studio\2019\Community\VC\Tools\MSVC\14.28.29333\include\type_traits

; 1455 :     return static_cast<remove_reference_t<_Ty>&&>(_Arg);

  00431	8b 45 04	 mov	 eax, DWORD PTR __Right$[ebp]
  00434	89 45 84	 mov	 DWORD PTR $T19[ebp], eax
; File C:\Program Files (x86)\Microsoft Visual Studio\2019\Community\VC\Tools\MSVC\14.28.29333\include\utility

; 105  :     _Left    = _STD move(_Right);

  00437	8b 45 08	 mov	 eax, DWORD PTR __Left$[ebp]
  0043a	8b 4d 84	 mov	 ecx, DWORD PTR $T19[ebp]
  0043d	8b 09		 mov	 ecx, DWORD PTR [ecx]
  0043f	89 08		 mov	 DWORD PTR [eax], ecx
; File C:\Program Files (x86)\Microsoft Visual Studio\2019\Community\VC\Tools\MSVC\14.28.29333\include\type_traits

; 1455 :     return static_cast<remove_reference_t<_Ty>&&>(_Arg);

  00441	8d 45 80	 lea	 eax, DWORD PTR __Tmp$18[ebp]
  00444	89 85 7c ff ff
	ff		 mov	 DWORD PTR $T17[ebp], eax
; File C:\Program Files (x86)\Microsoft Visual Studio\2019\Community\VC\Tools\MSVC\14.28.29333\include\utility

; 106  :     _Right   = _STD move(_Tmp);

  0044a	8b 45 04	 mov	 eax, DWORD PTR __Right$[ebp]
  0044d	8b 8d 7c ff ff
	ff		 mov	 ecx, DWORD PTR $T17[ebp]
  00453	8b 09		 mov	 ecx, DWORD PTR [ecx]
  00455	89 08		 mov	 DWORD PTR [eax], ecx
$LN151@Partition_:
; File C:\Program Files (x86)\Microsoft Visual Studio\2019\Community\VC\Tools\MSVC\14.28.29333\include\algorithm

; 7519 :             ++_Plast;

  00457	8b 45 60	 mov	 eax, DWORD PTR __Plast$[ebp]
  0045a	83 c0 04	 add	 eax, 4
  0045d	89 45 60	 mov	 DWORD PTR __Plast$[ebp], eax

; 7520 :             _STD iter_swap(_Pfirst, _Gfirst);

  00460	8b 45 64	 mov	 eax, DWORD PTR __Pfirst$[ebp]
  00463	89 45 00	 mov	 DWORD PTR __Left$[ebp], eax
; File C:\Program Files (x86)\Microsoft Visual Studio\2019\Community\VC\Tools\MSVC\14.28.29333\include\type_traits

; 1455 :     return static_cast<remove_reference_t<_Ty>&&>(_Arg);

  00466	8b 45 00	 mov	 eax, DWORD PTR __Left$[ebp]
  00469	89 85 78 ff ff
	ff		 mov	 DWORD PTR $T16[ebp], eax
; File C:\Program Files (x86)\Microsoft Visual Studio\2019\Community\VC\Tools\MSVC\14.28.29333\include\utility

; 104  :     _Ty _Tmp = _STD move(_Left);

  0046f	8b 85 78 ff ff
	ff		 mov	 eax, DWORD PTR $T16[ebp]
  00475	8b 00		 mov	 eax, DWORD PTR [eax]
  00477	89 85 70 ff ff
	ff		 mov	 DWORD PTR __Tmp$14[ebp], eax
; File C:\Program Files (x86)\Microsoft Visual Studio\2019\Community\VC\Tools\MSVC\14.28.29333\include\type_traits

; 1455 :     return static_cast<remove_reference_t<_Ty>&&>(_Arg);

  0047d	8b 45 5c	 mov	 eax, DWORD PTR __Gfirst$[ebp]
  00480	89 85 74 ff ff
	ff		 mov	 DWORD PTR $T15[ebp], eax
; File C:\Program Files (x86)\Microsoft Visual Studio\2019\Community\VC\Tools\MSVC\14.28.29333\include\utility

; 105  :     _Left    = _STD move(_Right);

  00486	8b 45 00	 mov	 eax, DWORD PTR __Left$[ebp]
  00489	8b 8d 74 ff ff
	ff		 mov	 ecx, DWORD PTR $T15[ebp]
  0048f	8b 09		 mov	 ecx, DWORD PTR [ecx]
  00491	89 08		 mov	 DWORD PTR [eax], ecx
; File C:\Program Files (x86)\Microsoft Visual Studio\2019\Community\VC\Tools\MSVC\14.28.29333\include\type_traits

; 1455 :     return static_cast<remove_reference_t<_Ty>&&>(_Arg);

  00493	8d 85 70 ff ff
	ff		 lea	 eax, DWORD PTR __Tmp$14[ebp]
  00499	89 85 6c ff ff
	ff		 mov	 DWORD PTR $T13[ebp], eax
; File C:\Program Files (x86)\Microsoft Visual Studio\2019\Community\VC\Tools\MSVC\14.28.29333\include\utility

; 106  :     _Right   = _STD move(_Tmp);

  0049f	8b 45 5c	 mov	 eax, DWORD PTR __Gfirst$[ebp]
  004a2	8b 8d 6c ff ff
	ff		 mov	 ecx, DWORD PTR $T13[ebp]
  004a8	8b 09		 mov	 ecx, DWORD PTR [ecx]
  004aa	89 08		 mov	 DWORD PTR [eax], ecx
; File C:\Program Files (x86)\Microsoft Visual Studio\2019\Community\VC\Tools\MSVC\14.28.29333\include\algorithm

; 7521 :             ++_Pfirst;

  004ac	8b 45 64	 mov	 eax, DWORD PTR __Pfirst$[ebp]
  004af	83 c0 04	 add	 eax, 4
  004b2	89 45 64	 mov	 DWORD PTR __Pfirst$[ebp], eax

; 7522 :             ++_Gfirst;

  004b5	8b 45 5c	 mov	 eax, DWORD PTR __Gfirst$[ebp]
  004b8	83 c0 04	 add	 eax, 4
  004bb	89 45 5c	 mov	 DWORD PTR __Gfirst$[ebp], eax
  004be	e9 27 01 00 00	 jmp	 $LN31@Partition_
$LN27@Partition_:

; 7523 :         } else if (_Gfirst == _Last) { // no room at top, rotate pivot downward

  004c3	8b 45 5c	 mov	 eax, DWORD PTR __Gfirst$[ebp]
  004c6	3b 45 78	 cmp	 eax, DWORD PTR __Last$[ebp]
  004c9	0f 85 c3 00 00
	00		 jne	 $LN30@Partition_

; 7524 :             if (--_Glast != --_Pfirst) {

  004cf	8b 45 58	 mov	 eax, DWORD PTR __Glast$[ebp]
  004d2	83 e8 04	 sub	 eax, 4
  004d5	89 45 58	 mov	 DWORD PTR __Glast$[ebp], eax
  004d8	8b 45 64	 mov	 eax, DWORD PTR __Pfirst$[ebp]
  004db	83 e8 04	 sub	 eax, 4
  004de	89 45 64	 mov	 DWORD PTR __Pfirst$[ebp], eax
  004e1	8b 45 58	 mov	 eax, DWORD PTR __Glast$[ebp]
  004e4	3b 45 64	 cmp	 eax, DWORD PTR __Pfirst$[ebp]
  004e7	74 4c		 je	 SHORT $LN179@Partition_

; 7525 :                 _STD iter_swap(_Glast, _Pfirst);

  004e9	8b 45 64	 mov	 eax, DWORD PTR __Pfirst$[ebp]
  004ec	89 45 fc	 mov	 DWORD PTR __Right$[ebp], eax
; File C:\Program Files (x86)\Microsoft Visual Studio\2019\Community\VC\Tools\MSVC\14.28.29333\include\type_traits

; 1455 :     return static_cast<remove_reference_t<_Ty>&&>(_Arg);

  004ef	8b 45 58	 mov	 eax, DWORD PTR __Glast$[ebp]
  004f2	89 85 68 ff ff
	ff		 mov	 DWORD PTR $T12[ebp], eax
; File C:\Program Files (x86)\Microsoft Visual Studio\2019\Community\VC\Tools\MSVC\14.28.29333\include\utility

; 104  :     _Ty _Tmp = _STD move(_Left);

  004f8	8b 85 68 ff ff
	ff		 mov	 eax, DWORD PTR $T12[ebp]
  004fe	8b 00		 mov	 eax, DWORD PTR [eax]
  00500	89 85 60 ff ff
	ff		 mov	 DWORD PTR __Tmp$10[ebp], eax
; File C:\Program Files (x86)\Microsoft Visual Studio\2019\Community\VC\Tools\MSVC\14.28.29333\include\type_traits

; 1455 :     return static_cast<remove_reference_t<_Ty>&&>(_Arg);

  00506	8b 45 fc	 mov	 eax, DWORD PTR __Right$[ebp]
  00509	89 85 64 ff ff
	ff		 mov	 DWORD PTR $T11[ebp], eax
; File C:\Program Files (x86)\Microsoft Visual Studio\2019\Community\VC\Tools\MSVC\14.28.29333\include\utility

; 105  :     _Left    = _STD move(_Right);

  0050f	8b 45 58	 mov	 eax, DWORD PTR __Glast$[ebp]
  00512	8b 8d 64 ff ff
	ff		 mov	 ecx, DWORD PTR $T11[ebp]
  00518	8b 09		 mov	 ecx, DWORD PTR [ecx]
  0051a	89 08		 mov	 DWORD PTR [eax], ecx
; File C:\Program Files (x86)\Microsoft Visual Studio\2019\Community\VC\Tools\MSVC\14.28.29333\include\type_traits

; 1455 :     return static_cast<remove_reference_t<_Ty>&&>(_Arg);

  0051c	8d 85 60 ff ff
	ff		 lea	 eax, DWORD PTR __Tmp$10[ebp]
  00522	89 85 5c ff ff
	ff		 mov	 DWORD PTR $T9[ebp], eax
; File C:\Program Files (x86)\Microsoft Visual Studio\2019\Community\VC\Tools\MSVC\14.28.29333\include\utility

; 106  :     _Right   = _STD move(_Tmp);

  00528	8b 45 fc	 mov	 eax, DWORD PTR __Right$[ebp]
  0052b	8b 8d 5c ff ff
	ff		 mov	 ecx, DWORD PTR $T9[ebp]
  00531	8b 09		 mov	 ecx, DWORD PTR [ecx]
  00533	89 08		 mov	 DWORD PTR [eax], ecx
$LN179@Partition_:
; File C:\Program Files (x86)\Microsoft Visual Studio\2019\Community\VC\Tools\MSVC\14.28.29333\include\algorithm

; 7528 :             _STD iter_swap(_Pfirst, --_Plast);

  00535	8b 45 60	 mov	 eax, DWORD PTR __Plast$[ebp]
  00538	83 e8 04	 sub	 eax, 4
  0053b	89 45 60	 mov	 DWORD PTR __Plast$[ebp], eax
  0053e	8b 45 60	 mov	 eax, DWORD PTR __Plast$[ebp]
  00541	89 45 f4	 mov	 DWORD PTR __Right$[ebp], eax
  00544	8b 45 64	 mov	 eax, DWORD PTR __Pfirst$[ebp]
  00547	89 45 f8	 mov	 DWORD PTR __Left$[ebp], eax
; File C:\Program Files (x86)\Microsoft Visual Studio\2019\Community\VC\Tools\MSVC\14.28.29333\include\type_traits

; 1455 :     return static_cast<remove_reference_t<_Ty>&&>(_Arg);

  0054a	8b 45 f8	 mov	 eax, DWORD PTR __Left$[ebp]
  0054d	89 85 58 ff ff
	ff		 mov	 DWORD PTR $T8[ebp], eax
; File C:\Program Files (x86)\Microsoft Visual Studio\2019\Community\VC\Tools\MSVC\14.28.29333\include\utility

; 104  :     _Ty _Tmp = _STD move(_Left);

  00553	8b 85 58 ff ff
	ff		 mov	 eax, DWORD PTR $T8[ebp]
  00559	8b 00		 mov	 eax, DWORD PTR [eax]
  0055b	89 85 50 ff ff
	ff		 mov	 DWORD PTR __Tmp$6[ebp], eax
; File C:\Program Files (x86)\Microsoft Visual Studio\2019\Community\VC\Tools\MSVC\14.28.29333\include\type_traits

; 1455 :     return static_cast<remove_reference_t<_Ty>&&>(_Arg);

  00561	8b 45 f4	 mov	 eax, DWORD PTR __Right$[ebp]
  00564	89 85 54 ff ff
	ff		 mov	 DWORD PTR $T7[ebp], eax
; File C:\Program Files (x86)\Microsoft Visual Studio\2019\Community\VC\Tools\MSVC\14.28.29333\include\utility

; 105  :     _Left    = _STD move(_Right);

  0056a	8b 45 f8	 mov	 eax, DWORD PTR __Left$[ebp]
  0056d	8b 8d 54 ff ff
	ff		 mov	 ecx, DWORD PTR $T7[ebp]
  00573	8b 09		 mov	 ecx, DWORD PTR [ecx]
  00575	89 08		 mov	 DWORD PTR [eax], ecx
; File C:\Program Files (x86)\Microsoft Visual Studio\2019\Community\VC\Tools\MSVC\14.28.29333\include\type_traits

; 1455 :     return static_cast<remove_reference_t<_Ty>&&>(_Arg);

  00577	8d 85 50 ff ff
	ff		 lea	 eax, DWORD PTR __Tmp$6[ebp]
  0057d	89 85 4c ff ff
	ff		 mov	 DWORD PTR $T5[ebp], eax
; File C:\Program Files (x86)\Microsoft Visual Studio\2019\Community\VC\Tools\MSVC\14.28.29333\include\utility

; 106  :     _Right   = _STD move(_Tmp);

  00583	8b 45 f4	 mov	 eax, DWORD PTR __Right$[ebp]
  00586	8b 8d 4c ff ff
	ff		 mov	 ecx, DWORD PTR $T5[ebp]
  0058c	8b 09		 mov	 ecx, DWORD PTR [ecx]
  0058e	89 08		 mov	 DWORD PTR [eax], ecx
; File C:\Program Files (x86)\Microsoft Visual Studio\2019\Community\VC\Tools\MSVC\14.28.29333\include\algorithm

; 7529 :         } else {

  00590	eb 58		 jmp	 SHORT $LN31@Partition_
$LN30@Partition_:

; 7530 :             _STD iter_swap(_Gfirst, --_Glast);

  00592	8b 45 58	 mov	 eax, DWORD PTR __Glast$[ebp]
  00595	83 e8 04	 sub	 eax, 4
  00598	89 45 58	 mov	 DWORD PTR __Glast$[ebp], eax
; File C:\Program Files (x86)\Microsoft Visual Studio\2019\Community\VC\Tools\MSVC\14.28.29333\include\type_traits

; 1455 :     return static_cast<remove_reference_t<_Ty>&&>(_Arg);

  0059b	8b 45 5c	 mov	 eax, DWORD PTR __Gfirst$[ebp]
  0059e	89 85 48 ff ff
	ff		 mov	 DWORD PTR $T4[ebp], eax
; File C:\Program Files (x86)\Microsoft Visual Studio\2019\Community\VC\Tools\MSVC\14.28.29333\include\utility

; 104  :     _Ty _Tmp = _STD move(_Left);

  005a4	8b 85 48 ff ff
	ff		 mov	 eax, DWORD PTR $T4[ebp]
  005aa	8b 00		 mov	 eax, DWORD PTR [eax]
  005ac	89 85 40 ff ff
	ff		 mov	 DWORD PTR __Tmp$2[ebp], eax
; File C:\Program Files (x86)\Microsoft Visual Studio\2019\Community\VC\Tools\MSVC\14.28.29333\include\type_traits

; 1455 :     return static_cast<remove_reference_t<_Ty>&&>(_Arg);

  005b2	8b 45 58	 mov	 eax, DWORD PTR __Glast$[ebp]
  005b5	89 85 44 ff ff
	ff		 mov	 DWORD PTR $T3[ebp], eax
; File C:\Program Files (x86)\Microsoft Visual Studio\2019\Community\VC\Tools\MSVC\14.28.29333\include\utility

; 105  :     _Left    = _STD move(_Right);

  005bb	8b 45 5c	 mov	 eax, DWORD PTR __Gfirst$[ebp]
  005be	8b 8d 44 ff ff
	ff		 mov	 ecx, DWORD PTR $T3[ebp]
  005c4	8b 09		 mov	 ecx, DWORD PTR [ecx]
  005c6	89 08		 mov	 DWORD PTR [eax], ecx
; File C:\Program Files (x86)\Microsoft Visual Studio\2019\Community\VC\Tools\MSVC\14.28.29333\include\type_traits

; 1455 :     return static_cast<remove_reference_t<_Ty>&&>(_Arg);

  005c8	8d 85 40 ff ff
	ff		 lea	 eax, DWORD PTR __Tmp$2[ebp]
  005ce	89 85 3c ff ff
	ff		 mov	 DWORD PTR $T1[ebp], eax
; File C:\Program Files (x86)\Microsoft Visual Studio\2019\Community\VC\Tools\MSVC\14.28.29333\include\utility

; 106  :     _Right   = _STD move(_Tmp);

  005d4	8b 45 58	 mov	 eax, DWORD PTR __Glast$[ebp]
  005d7	8b 8d 3c ff ff
	ff		 mov	 ecx, DWORD PTR $T1[ebp]
  005dd	8b 09		 mov	 ecx, DWORD PTR [ecx]
  005df	89 08		 mov	 DWORD PTR [eax], ecx
; File C:\Program Files (x86)\Microsoft Visual Studio\2019\Community\VC\Tools\MSVC\14.28.29333\include\algorithm

; 7531 :             ++_Gfirst;

  005e1	8b 45 5c	 mov	 eax, DWORD PTR __Gfirst$[ebp]
  005e4	83 c0 04	 add	 eax, 4
  005e7	89 45 5c	 mov	 DWORD PTR __Gfirst$[ebp], eax
$LN31@Partition_:

; 7532 :         }
; 7533 :     }

  005ea	e9 c4 fb ff ff	 jmp	 $LN6@Partition_
$LN7@Partition_:

; 7534 : }

  005ef	83 c5 68	 add	 ebp, 104		; 00000068H
  005f2	c9		 leave
  005f3	c3		 ret	 0
??$_Partition_by_median_guess_unchecked@PAPAVCLight@@ULightComp@@@std@@YA?AU?$pair@PAPAVCLight@@PAPAV1@@0@PAPAVCLight@@0ULightComp@@@Z ENDP ; std::_Partition_by_median_guess_unchecked<CLight * *,LightComp>
_TEXT	ENDS
; Function compile flags: /Odspy
; File C:\Program Files (x86)\Microsoft Visual Studio\2019\Community\VC\Tools\MSVC\14.28.29333\include\algorithm
; File C:\Program Files (x86)\Microsoft Visual Studio\2019\Community\VC\Tools\MSVC\14.28.29333\include\type_traits
; File C:\Program Files (x86)\Microsoft Visual Studio\2019\Community\VC\Tools\MSVC\14.28.29333\include\algorithm
; File C:\Program Files (x86)\Microsoft Visual Studio\2019\Community\VC\Tools\MSVC\14.28.29333\include\type_traits
; File C:\Program Files (x86)\Microsoft Visual Studio\2019\Community\VC\Tools\MSVC\14.28.29333\include\algorithm
;	COMDAT ??$_Make_heap_unchecked@PAPAVCLight@@ULightComp@@@std@@YAXPAPAVCLight@@0ULightComp@@@Z
_TEXT	SEGMENT
$T1 = -20						; size = 4
__Val$2 = -16						; size = 4
$T3 = -12						; size = 4
__Bottom$ = -8						; size = 4
__Hole$4 = -4						; size = 4
__First$ = 8						; size = 4
__Last$ = 12						; size = 4
__Pred$ = 16						; size = 1
??$_Make_heap_unchecked@PAPAVCLight@@ULightComp@@@std@@YAXPAPAVCLight@@0ULightComp@@@Z PROC ; std::_Make_heap_unchecked<CLight * *,LightComp>, COMDAT

; 6357 : _CONSTEXPR20 void _Make_heap_unchecked(_RanIt _First, _RanIt _Last, _Pr _Pred) {

  00000	55		 push	 ebp
  00001	8b ec		 mov	 ebp, esp
  00003	83 ec 14	 sub	 esp, 20			; 00000014H

; 6358 :     // make [_First, _Last) into a heap
; 6359 :     using _Diff   = _Iter_diff_t<_RanIt>;
; 6360 :     _Diff _Bottom = _Last - _First;

  00006	8b 45 0c	 mov	 eax, DWORD PTR __Last$[ebp]
  00009	2b 45 08	 sub	 eax, DWORD PTR __First$[ebp]
  0000c	c1 f8 02	 sar	 eax, 2
  0000f	89 45 f8	 mov	 DWORD PTR __Bottom$[ebp], eax

; 6361 :     for (_Diff _Hole = _Bottom >> 1; _Hole > 0;) { // shift for codegen

  00012	8b 45 f8	 mov	 eax, DWORD PTR __Bottom$[ebp]
  00015	d1 f8		 sar	 eax, 1
  00017	89 45 fc	 mov	 DWORD PTR __Hole$4[ebp], eax
$LN4@Make_heap_:
  0001a	83 7d fc 00	 cmp	 DWORD PTR __Hole$4[ebp], 0
  0001e	7e 3a		 jle	 SHORT $LN1@Make_heap_

; 6362 :         // reheap top half, bottom to top
; 6363 :         --_Hole;

  00020	8b 45 fc	 mov	 eax, DWORD PTR __Hole$4[ebp]
  00023	48		 dec	 eax
  00024	89 45 fc	 mov	 DWORD PTR __Hole$4[ebp], eax

; 6364 :         _Iter_value_t<_RanIt> _Val = _STD move(*(_First + _Hole));

  00027	8b 45 fc	 mov	 eax, DWORD PTR __Hole$4[ebp]
  0002a	8b 4d 08	 mov	 ecx, DWORD PTR __First$[ebp]
  0002d	8d 04 81	 lea	 eax, DWORD PTR [ecx+eax*4]
; File C:\Program Files (x86)\Microsoft Visual Studio\2019\Community\VC\Tools\MSVC\14.28.29333\include\type_traits

; 1455 :     return static_cast<remove_reference_t<_Ty>&&>(_Arg);

  00030	89 45 f4	 mov	 DWORD PTR $T3[ebp], eax
; File C:\Program Files (x86)\Microsoft Visual Studio\2019\Community\VC\Tools\MSVC\14.28.29333\include\algorithm

; 6364 :         _Iter_value_t<_RanIt> _Val = _STD move(*(_First + _Hole));

  00033	8b 45 f4	 mov	 eax, DWORD PTR $T3[ebp]
  00036	8b 00		 mov	 eax, DWORD PTR [eax]
  00038	89 45 f0	 mov	 DWORD PTR __Val$2[ebp], eax
; File C:\Program Files (x86)\Microsoft Visual Studio\2019\Community\VC\Tools\MSVC\14.28.29333\include\type_traits

; 1455 :     return static_cast<remove_reference_t<_Ty>&&>(_Arg);

  0003b	8d 45 f0	 lea	 eax, DWORD PTR __Val$2[ebp]
  0003e	89 45 ec	 mov	 DWORD PTR $T1[ebp], eax
; File C:\Program Files (x86)\Microsoft Visual Studio\2019\Community\VC\Tools\MSVC\14.28.29333\include\algorithm

; 6365 :         _Pop_heap_hole_by_index(_First, _Hole, _Bottom, _STD move(_Val), _Pred);

  00041	ff 75 10	 push	 DWORD PTR __Pred$[ebp]
  00044	ff 75 ec	 push	 DWORD PTR $T1[ebp]
  00047	ff 75 f8	 push	 DWORD PTR __Bottom$[ebp]
  0004a	ff 75 fc	 push	 DWORD PTR __Hole$4[ebp]
  0004d	ff 75 08	 push	 DWORD PTR __First$[ebp]
  00050	e8 00 00 00 00	 call	 ??$_Pop_heap_hole_by_index@PAPAVCLight@@PAV1@ULightComp@@@std@@YAXPAPAVCLight@@HH$$QAPAV1@ULightComp@@@Z ; std::_Pop_heap_hole_by_index<CLight * *,CLight *,LightComp>
  00055	83 c4 14	 add	 esp, 20			; 00000014H

; 6366 :     }

  00058	eb c0		 jmp	 SHORT $LN4@Make_heap_
$LN1@Make_heap_:

; 6367 : }

  0005a	c9		 leave
  0005b	c3		 ret	 0
??$_Make_heap_unchecked@PAPAVCLight@@ULightComp@@@std@@YAXPAPAVCLight@@0ULightComp@@@Z ENDP ; std::_Make_heap_unchecked<CLight * *,LightComp>
_TEXT	ENDS
; Function compile flags: /Odspy
; File C:\Program Files (x86)\Microsoft Visual Studio\2019\Community\VC\Tools\MSVC\14.28.29333\include\algorithm
; File C:\Program Files (x86)\Microsoft Visual Studio\2019\Community\VC\Tools\MSVC\14.28.29333\include\type_traits
; File C:\Program Files (x86)\Microsoft Visual Studio\2019\Community\VC\Tools\MSVC\14.28.29333\include\algorithm
; File D:\Metin2 Server Files\mainline\SRC_2014\Metin2Client\EterLib\GrpLightManager.h
; File D:\Metin2 Server Files\mainline\SRC_2014\Metin2Client\EterLib\GrpLightManager.cpp
; File C:\Program Files (x86)\Microsoft Visual Studio\2019\Community\VC\Tools\MSVC\14.28.29333\include\algorithm
; File C:\Program Files (x86)\Microsoft Visual Studio\2019\Community\VC\Tools\MSVC\14.28.29333\include\xutility
; File C:\Program Files (x86)\Microsoft Visual Studio\2019\Community\VC\Tools\MSVC\14.28.29333\include\type_traits
; File C:\Program Files (x86)\Microsoft Visual Studio\2019\Community\VC\Tools\MSVC\14.28.29333\include\xutility
; File C:\Program Files (x86)\Microsoft Visual Studio\2019\Community\VC\Tools\MSVC\14.28.29333\include\type_traits
; File C:\Program Files (x86)\Microsoft Visual Studio\2019\Community\VC\Tools\MSVC\14.28.29333\include\algorithm
; File D:\Metin2 Server Files\mainline\SRC_2014\Metin2Client\EterLib\GrpLightManager.h
; File D:\Metin2 Server Files\mainline\SRC_2014\Metin2Client\EterLib\GrpLightManager.cpp
; File C:\Program Files (x86)\Microsoft Visual Studio\2019\Community\VC\Tools\MSVC\14.28.29333\include\algorithm
; File C:\Program Files (x86)\Microsoft Visual Studio\2019\Community\VC\Tools\MSVC\14.28.29333\include\type_traits
; File C:\Program Files (x86)\Microsoft Visual Studio\2019\Community\VC\Tools\MSVC\14.28.29333\include\algorithm
; File C:\Program Files (x86)\Microsoft Visual Studio\2019\Community\VC\Tools\MSVC\14.28.29333\include\type_traits
; File C:\Program Files (x86)\Microsoft Visual Studio\2019\Community\VC\Tools\MSVC\14.28.29333\include\algorithm
;	COMDAT ??$_Insertion_sort_unchecked@PAPAVCLight@@ULightComp@@@std@@YAPAPAVCLight@@QAPAV1@0ULightComp@@@Z
_TEXT	SEGMENT
$T1 = -68						; size = 4
$T2 = -64						; size = 4
$T3 = -60						; size = 4
$T4 = -56						; size = 4
$T5 = -52						; size = 4
$T6 = -48						; size = 4
$T7 = -44						; size = 4
$T8 = -40						; size = 4
$T9 = -36						; size = 4
tv135 = -32						; size = 4
tv128 = -28						; size = 4
__Val$10 = -24						; size = 4
__Dest$ = -20						; size = 4
__Prev$11 = -16						; size = 4
__Last$ = -12						; size = 4
__Mid$12 = -8						; size = 4
__Hole$13 = -4						; size = 4
__First$ = 8						; size = 4
__Last$ = 12						; size = 4
__Pred$ = 16						; size = 1
??$_Insertion_sort_unchecked@PAPAVCLight@@ULightComp@@@std@@YAPAPAVCLight@@QAPAV1@0ULightComp@@@Z PROC ; std::_Insertion_sort_unchecked<CLight * *,LightComp>, COMDAT

; 7410 : _CONSTEXPR20 _BidIt _Insertion_sort_unchecked(const _BidIt _First, const _BidIt _Last, _Pr _Pred) {

  00000	55		 push	 ebp
  00001	8b ec		 mov	 ebp, esp
  00003	83 ec 44	 sub	 esp, 68			; 00000044H

; 7411 :     // insertion sort [_First, _Last)
; 7412 :     if (_First != _Last) {

  00006	8b 45 08	 mov	 eax, DWORD PTR __First$[ebp]
  00009	3b 45 0c	 cmp	 eax, DWORD PTR __Last$[ebp]
  0000c	0f 84 4b 01 00
	00		 je	 $LN3@Insertion_

; 7413 :         for (_BidIt _Mid = _First; ++_Mid != _Last;) { // order next element

  00012	8b 45 08	 mov	 eax, DWORD PTR __First$[ebp]
  00015	89 45 f8	 mov	 DWORD PTR __Mid$12[ebp], eax
$LN2@Insertion_:
  00018	8b 45 f8	 mov	 eax, DWORD PTR __Mid$12[ebp]
  0001b	83 c0 04	 add	 eax, 4
  0001e	89 45 f8	 mov	 DWORD PTR __Mid$12[ebp], eax
  00021	8b 45 f8	 mov	 eax, DWORD PTR __Mid$12[ebp]
  00024	3b 45 0c	 cmp	 eax, DWORD PTR __Last$[ebp]
  00027	0f 84 30 01 00
	00		 je	 $LN3@Insertion_

; 7414 :             _BidIt _Hole               = _Mid;

  0002d	8b 45 f8	 mov	 eax, DWORD PTR __Mid$12[ebp]
  00030	89 45 fc	 mov	 DWORD PTR __Hole$13[ebp], eax
; File C:\Program Files (x86)\Microsoft Visual Studio\2019\Community\VC\Tools\MSVC\14.28.29333\include\type_traits

; 1455 :     return static_cast<remove_reference_t<_Ty>&&>(_Arg);

  00033	8b 45 f8	 mov	 eax, DWORD PTR __Mid$12[ebp]
  00036	89 45 dc	 mov	 DWORD PTR $T9[ebp], eax
; File C:\Program Files (x86)\Microsoft Visual Studio\2019\Community\VC\Tools\MSVC\14.28.29333\include\algorithm

; 7415 :             _Iter_value_t<_BidIt> _Val = _STD move(*_Mid);

  00039	8b 45 dc	 mov	 eax, DWORD PTR $T9[ebp]
  0003c	8b 00		 mov	 eax, DWORD PTR [eax]
  0003e	89 45 e8	 mov	 DWORD PTR __Val$10[ebp], eax
; File D:\Metin2 Server Files\mainline\SRC_2014\Metin2Client\EterLib\GrpLightManager.h

; 45   : 		float		GetDistance() const { return m_fDistance;	}

  00041	8b 45 e8	 mov	 eax, DWORD PTR __Val$10[ebp]
  00044	f3 0f 10 40 78	 movss	 xmm0, DWORD PTR [eax+120]
  00049	f3 0f 11 45 d4	 movss	 DWORD PTR $T7[ebp], xmm0
  0004e	8b 45 08	 mov	 eax, DWORD PTR __First$[ebp]
  00051	8b 00		 mov	 eax, DWORD PTR [eax]
  00053	f3 0f 10 40 78	 movss	 xmm0, DWORD PTR [eax+120]
  00058	f3 0f 11 45 d8	 movss	 DWORD PTR $T8[ebp], xmm0
; File D:\Metin2 Server Files\mainline\SRC_2014\Metin2Client\EterLib\GrpLightManager.cpp

; 96   : 		return l->GetDistance() < r->GetDistance();

  0005d	f3 0f 10 45 d8	 movss	 xmm0, DWORD PTR $T8[ebp]
  00062	0f 2f 45 d4	 comiss	 xmm0, DWORD PTR $T7[ebp]
  00066	76 09		 jbe	 SHORT $LN17@Insertion_
  00068	c7 45 e4 01 00
	00 00		 mov	 DWORD PTR tv128[ebp], 1
  0006f	eb 04		 jmp	 SHORT $LN18@Insertion_
$LN17@Insertion_:
  00071	83 65 e4 00	 and	 DWORD PTR tv128[ebp], 0
$LN18@Insertion_:
; File C:\Program Files (x86)\Microsoft Visual Studio\2019\Community\VC\Tools\MSVC\14.28.29333\include\algorithm

; 7417 :             if (_DEBUG_LT_PRED(_Pred, _Val, *_First)) { // found new earliest element, move to front

  00075	0f b6 45 e4	 movzx	 eax, BYTE PTR tv128[ebp]
  00079	85 c0		 test	 eax, eax
  0007b	74 66		 je	 SHORT $LN9@Insertion_

; 7418 :                 _Move_backward_unchecked(_First, _Mid, ++_Hole);

  0007d	8b 45 fc	 mov	 eax, DWORD PTR __Hole$13[ebp]
  00080	83 c0 04	 add	 eax, 4
  00083	89 45 fc	 mov	 DWORD PTR __Hole$13[ebp], eax
  00086	8b 45 fc	 mov	 eax, DWORD PTR __Hole$13[ebp]
  00089	89 45 ec	 mov	 DWORD PTR __Dest$[ebp], eax
  0008c	8b 45 f8	 mov	 eax, DWORD PTR __Mid$12[ebp]
  0008f	89 45 f4	 mov	 DWORD PTR __Last$[ebp], eax
; File C:\Program Files (x86)\Microsoft Visual Studio\2019\Community\VC\Tools\MSVC\14.28.29333\include\xutility

; 4696 :             return _Copy_backward_memmove(_First, _Last, _Dest);

  00092	ff 75 ec	 push	 DWORD PTR __Dest$[ebp]
  00095	ff 75 f4	 push	 DWORD PTR __Last$[ebp]
  00098	ff 75 08	 push	 DWORD PTR __First$[ebp]
  0009b	e8 00 00 00 00	 call	 ??$_Copy_backward_memmove@PAPAVCLight@@PAPAV1@@std@@YAPAPAVCLight@@PAPAV1@00@Z ; std::_Copy_backward_memmove<CLight * *,CLight * *>
  000a0	83 c4 0c	 add	 esp, 12			; 0000000cH
  000a3	eb 2c		 jmp	 SHORT $LN23@Insertion_
$LN24@Insertion_:

; 4697 :         }
; 4698 :     }
; 4699 : 
; 4700 :     while (_First != _Last) {

  000a5	8b 45 08	 mov	 eax, DWORD PTR __First$[ebp]
  000a8	3b 45 f4	 cmp	 eax, DWORD PTR __Last$[ebp]
  000ab	74 24		 je	 SHORT $LN25@Insertion_

; 4701 :         *--_Dest = _STD move(*--_Last);

  000ad	8b 45 f4	 mov	 eax, DWORD PTR __Last$[ebp]
  000b0	83 e8 04	 sub	 eax, 4
  000b3	89 45 f4	 mov	 DWORD PTR __Last$[ebp], eax
  000b6	8b 45 ec	 mov	 eax, DWORD PTR __Dest$[ebp]
  000b9	83 e8 04	 sub	 eax, 4
  000bc	89 45 ec	 mov	 DWORD PTR __Dest$[ebp], eax
; File C:\Program Files (x86)\Microsoft Visual Studio\2019\Community\VC\Tools\MSVC\14.28.29333\include\type_traits

; 1455 :     return static_cast<remove_reference_t<_Ty>&&>(_Arg);

  000bf	8b 45 f4	 mov	 eax, DWORD PTR __Last$[ebp]
  000c2	89 45 d0	 mov	 DWORD PTR $T6[ebp], eax
; File C:\Program Files (x86)\Microsoft Visual Studio\2019\Community\VC\Tools\MSVC\14.28.29333\include\xutility

; 4701 :         *--_Dest = _STD move(*--_Last);

  000c5	8b 45 ec	 mov	 eax, DWORD PTR __Dest$[ebp]
  000c8	8b 4d d0	 mov	 ecx, DWORD PTR $T6[ebp]
  000cb	8b 09		 mov	 ecx, DWORD PTR [ecx]
  000cd	89 08		 mov	 DWORD PTR [eax], ecx

; 4702 :     }

  000cf	eb d4		 jmp	 SHORT $LN24@Insertion_
$LN25@Insertion_:
$LN23@Insertion_:
; File C:\Program Files (x86)\Microsoft Visual Studio\2019\Community\VC\Tools\MSVC\14.28.29333\include\type_traits

; 1455 :     return static_cast<remove_reference_t<_Ty>&&>(_Arg);

  000d1	8d 45 e8	 lea	 eax, DWORD PTR __Val$10[ebp]
  000d4	89 45 cc	 mov	 DWORD PTR $T5[ebp], eax
; File C:\Program Files (x86)\Microsoft Visual Studio\2019\Community\VC\Tools\MSVC\14.28.29333\include\algorithm

; 7419 :                 *_First = _STD move(_Val);

  000d7	8b 45 08	 mov	 eax, DWORD PTR __First$[ebp]
  000da	8b 4d cc	 mov	 ecx, DWORD PTR $T5[ebp]
  000dd	8b 09		 mov	 ecx, DWORD PTR [ecx]
  000df	89 08		 mov	 DWORD PTR [eax], ecx

; 7420 :             } else { // look for insertion point after first

  000e1	eb 75		 jmp	 SHORT $LN10@Insertion_
$LN9@Insertion_:

; 7421 :                 for (_BidIt _Prev = _Hole; _DEBUG_LT_PRED(_Pred, _Val, *--_Prev); _Hole = _Prev) {

  000e3	8b 45 fc	 mov	 eax, DWORD PTR __Hole$13[ebp]
  000e6	89 45 f0	 mov	 DWORD PTR __Prev$11[ebp], eax
  000e9	eb 06		 jmp	 SHORT $LN7@Insertion_
$LN5@Insertion_:
  000eb	8b 45 f0	 mov	 eax, DWORD PTR __Prev$11[ebp]
  000ee	89 45 fc	 mov	 DWORD PTR __Hole$13[ebp], eax
$LN7@Insertion_:
  000f1	8b 45 f0	 mov	 eax, DWORD PTR __Prev$11[ebp]
  000f4	83 e8 04	 sub	 eax, 4
  000f7	89 45 f0	 mov	 DWORD PTR __Prev$11[ebp], eax
; File D:\Metin2 Server Files\mainline\SRC_2014\Metin2Client\EterLib\GrpLightManager.h

; 45   : 		float		GetDistance() const { return m_fDistance;	}

  000fa	8b 45 e8	 mov	 eax, DWORD PTR __Val$10[ebp]
  000fd	f3 0f 10 40 78	 movss	 xmm0, DWORD PTR [eax+120]
  00102	f3 0f 11 45 c4	 movss	 DWORD PTR $T3[ebp], xmm0
  00107	8b 45 f0	 mov	 eax, DWORD PTR __Prev$11[ebp]
  0010a	8b 00		 mov	 eax, DWORD PTR [eax]
  0010c	f3 0f 10 40 78	 movss	 xmm0, DWORD PTR [eax+120]
  00111	f3 0f 11 45 c8	 movss	 DWORD PTR $T4[ebp], xmm0
; File D:\Metin2 Server Files\mainline\SRC_2014\Metin2Client\EterLib\GrpLightManager.cpp

; 96   : 		return l->GetDistance() < r->GetDistance();

  00116	f3 0f 10 45 c8	 movss	 xmm0, DWORD PTR $T4[ebp]
  0011b	0f 2f 45 c4	 comiss	 xmm0, DWORD PTR $T3[ebp]
  0011f	76 09		 jbe	 SHORT $LN35@Insertion_
  00121	c7 45 e0 01 00
	00 00		 mov	 DWORD PTR tv135[ebp], 1
  00128	eb 04		 jmp	 SHORT $LN36@Insertion_
$LN35@Insertion_:
  0012a	83 65 e0 00	 and	 DWORD PTR tv135[ebp], 0
$LN36@Insertion_:
; File C:\Program Files (x86)\Microsoft Visual Studio\2019\Community\VC\Tools\MSVC\14.28.29333\include\algorithm

; 7421 :                 for (_BidIt _Prev = _Hole; _DEBUG_LT_PRED(_Pred, _Val, *--_Prev); _Hole = _Prev) {

  0012e	0f b6 45 e0	 movzx	 eax, BYTE PTR tv135[ebp]
  00132	85 c0		 test	 eax, eax
  00134	74 12		 je	 SHORT $LN6@Insertion_
; File C:\Program Files (x86)\Microsoft Visual Studio\2019\Community\VC\Tools\MSVC\14.28.29333\include\type_traits

; 1455 :     return static_cast<remove_reference_t<_Ty>&&>(_Arg);

  00136	8b 45 f0	 mov	 eax, DWORD PTR __Prev$11[ebp]
  00139	89 45 c0	 mov	 DWORD PTR $T2[ebp], eax
; File C:\Program Files (x86)\Microsoft Visual Studio\2019\Community\VC\Tools\MSVC\14.28.29333\include\algorithm

; 7422 :                     *_Hole = _STD move(*_Prev); // move hole down

  0013c	8b 45 fc	 mov	 eax, DWORD PTR __Hole$13[ebp]
  0013f	8b 4d c0	 mov	 ecx, DWORD PTR $T2[ebp]
  00142	8b 09		 mov	 ecx, DWORD PTR [ecx]
  00144	89 08		 mov	 DWORD PTR [eax], ecx

; 7423 :                 }

  00146	eb a3		 jmp	 SHORT $LN5@Insertion_
$LN6@Insertion_:
; File C:\Program Files (x86)\Microsoft Visual Studio\2019\Community\VC\Tools\MSVC\14.28.29333\include\type_traits

; 1455 :     return static_cast<remove_reference_t<_Ty>&&>(_Arg);

  00148	8d 45 e8	 lea	 eax, DWORD PTR __Val$10[ebp]
  0014b	89 45 bc	 mov	 DWORD PTR $T1[ebp], eax
; File C:\Program Files (x86)\Microsoft Visual Studio\2019\Community\VC\Tools\MSVC\14.28.29333\include\algorithm

; 7425 :                 *_Hole = _STD move(_Val); // insert element in hole

  0014e	8b 45 fc	 mov	 eax, DWORD PTR __Hole$13[ebp]
  00151	8b 4d bc	 mov	 ecx, DWORD PTR $T1[ebp]
  00154	8b 09		 mov	 ecx, DWORD PTR [ecx]
  00156	89 08		 mov	 DWORD PTR [eax], ecx
$LN10@Insertion_:

; 7426 :             }
; 7427 :         }

  00158	e9 bb fe ff ff	 jmp	 $LN2@Insertion_
$LN3@Insertion_:

; 7428 :     }
; 7429 : 
; 7430 :     return _Last;

  0015d	8b 45 0c	 mov	 eax, DWORD PTR __Last$[ebp]

; 7431 : }

  00160	c9		 leave
  00161	c3		 ret	 0
??$_Insertion_sort_unchecked@PAPAVCLight@@ULightComp@@@std@@YAPAPAVCLight@@QAPAV1@0ULightComp@@@Z ENDP ; std::_Insertion_sort_unchecked<CLight * *,LightComp>
_TEXT	ENDS
; Function compile flags: /Odspy
; File C:\Program Files (x86)\Microsoft Visual Studio\2019\Community\VC\Tools\MSVC\14.28.29333\include\xmemory
;	COMDAT ??$_Destroy_range@PAPAKPAPAK@std@@YAXPAPAKQAPAK@Z
_TEXT	SEGMENT
__First$ = 8						; size = 4
__Last$ = 12						; size = 4
??$_Destroy_range@PAPAKPAPAK@std@@YAXPAPAKQAPAK@Z PROC	; std::_Destroy_range<unsigned long * *,unsigned long * *>, COMDAT

; 974  : /* _CONSTEXPR20_DYNALLOC */ void _Destroy_range(_NoThrowFwdIt _First, const _NoThrowSentinel _Last) noexcept {

  00000	55		 push	 ebp
  00001	8b ec		 mov	 ebp, esp

; 975  :     // note that this is an optimization for debug mode codegen; in release mode the BE removes all of this
; 976  :     if _CONSTEXPR_IF (!is_trivially_destructible_v<_Iter_value_t<_NoThrowFwdIt>>) {
; 977  :         for (; _First != _Last; ++_First) {
; 978  :             _Destroy_in_place(*_First);
; 979  :         }
; 980  :     }
; 981  : }

  00003	5d		 pop	 ebp
  00004	c3		 ret	 0
??$_Destroy_range@PAPAKPAPAK@std@@YAXPAPAKQAPAK@Z ENDP	; std::_Destroy_range<unsigned long * *,unsigned long * *>
_TEXT	ENDS
; Function compile flags: /Odspy
; File C:\Program Files (x86)\Microsoft Visual Studio\2019\Community\VC\Tools\MSVC\14.28.29333\include\xmemory
;	COMDAT ??$_Uninitialized_value_construct_n_unchecked1@PAPAKI@std@@YAPAPAKPAPAKI@Z
_TEXT	SEGMENT
__UFirst$ = 8						; size = 4
__Count$ = 12						; size = 4
??$_Uninitialized_value_construct_n_unchecked1@PAPAKI@std@@YAPAPAKPAPAKI@Z PROC ; std::_Uninitialized_value_construct_n_unchecked1<unsigned long * *,unsigned int>, COMDAT

; 1912 : _NoThrowFwdIt _Uninitialized_value_construct_n_unchecked1(_NoThrowFwdIt _UFirst, _Diff _Count) {

  00000	55		 push	 ebp
  00001	8b ec		 mov	 ebp, esp

; 1913 :     // value-initialize all elements in [_UFirst, _UFirst + _Count_raw)
; 1914 :     _STL_INTERNAL_CHECK(_Count >= 0);
; 1915 :     if constexpr (_Use_memset_value_construct_v<_NoThrowFwdIt>) {
; 1916 :         return _Zero_range(_UFirst, _UFirst + _Count);

  00003	8b 45 0c	 mov	 eax, DWORD PTR __Count$[ebp]
  00006	8b 4d 08	 mov	 ecx, DWORD PTR __UFirst$[ebp]
  00009	8d 04 81	 lea	 eax, DWORD PTR [ecx+eax*4]
  0000c	50		 push	 eax
  0000d	ff 75 08	 push	 DWORD PTR __UFirst$[ebp]
  00010	e8 00 00 00 00	 call	 ??$_Zero_range@PAPAK@std@@YAPAPAKQAPAK0@Z ; std::_Zero_range<unsigned long * *>
  00015	59		 pop	 ecx
  00016	59		 pop	 ecx

; 1917 :     } else {
; 1918 :         _Uninitialized_backout<_NoThrowFwdIt> _Backout{_UFirst};
; 1919 :         for (; 0 < _Count; --_Count) {
; 1920 :             _Backout._Emplace_back();
; 1921 :         }
; 1922 : 
; 1923 :         return _Backout._Release();
; 1924 :     }
; 1925 : }

  00017	5d		 pop	 ebp
  00018	c3		 ret	 0
??$_Uninitialized_value_construct_n_unchecked1@PAPAKI@std@@YAPAPAKPAPAKI@Z ENDP ; std::_Uninitialized_value_construct_n_unchecked1<unsigned long * *,unsigned int>
_TEXT	ENDS
; Function compile flags: /Odspy
; File C:\Program Files (x86)\Microsoft Visual Studio\2019\Community\VC\Tools\MSVC\14.28.29333\include\xmemory
; File C:\Program Files (x86)\Microsoft Visual Studio\2019\Community\VC\Tools\MSVC\14.28.29333\include\xutility
; File C:\Program Files (x86)\Microsoft Visual Studio\2019\Community\VC\Tools\MSVC\14.28.29333\include\xmemory
; File C:\Program Files (x86)\Microsoft Visual Studio\2019\Community\VC\Tools\MSVC\14.28.29333\include\xutility
; File C:\Program Files (x86)\Microsoft Visual Studio\2019\Community\VC\Tools\MSVC\14.28.29333\include\xmemory
;	COMDAT ??$uninitialized_copy@PAPAKPAPAK@std@@YAPAPAKQAPAK0PAPAK@Z
_TEXT	SEGMENT
$T1 = -16						; size = 4
__UFirst$ = -12						; size = 4
__ULast$ = -8						; size = 4
__UDest$ = -4						; size = 4
__First$ = 8						; size = 4
__Last$ = 12						; size = 4
__Dest$ = 16						; size = 4
??$uninitialized_copy@PAPAKPAPAK@std@@YAPAPAKQAPAK0PAPAK@Z PROC ; std::uninitialized_copy<unsigned long * *,unsigned long * *>, COMDAT

; 1629 : _NoThrowFwdIt uninitialized_copy(const _InIt _First, const _InIt _Last, _NoThrowFwdIt _Dest) {

  00000	55		 push	 ebp
  00001	8b ec		 mov	 ebp, esp
  00003	83 ec 10	 sub	 esp, 16			; 00000010H

; 1630 :     // copy [_First, _Last) to raw [_Dest, ...)
; 1631 :     _Adl_verify_range(_First, _Last);
; 1632 :     auto _UFirst      = _Get_unwrapped(_First);

  00006	8b 45 08	 mov	 eax, DWORD PTR __First$[ebp]
  00009	89 45 f4	 mov	 DWORD PTR __UFirst$[ebp], eax

; 1633 :     const auto _ULast = _Get_unwrapped(_Last);

  0000c	8b 45 0c	 mov	 eax, DWORD PTR __Last$[ebp]
  0000f	89 45 f8	 mov	 DWORD PTR __ULast$[ebp], eax
; File C:\Program Files (x86)\Microsoft Visual Studio\2019\Community\VC\Tools\MSVC\14.28.29333\include\xutility

; 1557 :         return static_cast<_Iter_diff_t<_Checked>>(_Last - _First);

  00012	8b 45 f8	 mov	 eax, DWORD PTR __ULast$[ebp]
  00015	2b 45 f4	 sub	 eax, DWORD PTR __UFirst$[ebp]
  00018	c1 f8 02	 sar	 eax, 2
  0001b	89 45 f0	 mov	 DWORD PTR $T1[ebp], eax
; File C:\Program Files (x86)\Microsoft Visual Studio\2019\Community\VC\Tools\MSVC\14.28.29333\include\xmemory

; 1634 :     auto _UDest       = _Get_unwrapped_n(_Dest, _Idl_distance<_InIt>(_UFirst, _ULast));

  0001e	8b 45 10	 mov	 eax, DWORD PTR __Dest$[ebp]
  00021	89 45 fc	 mov	 DWORD PTR __UDest$[ebp], eax

; 1635 :     if constexpr (_Ptr_copy_cat<decltype(_UFirst), decltype(_UDest)>::_Really_trivial) {
; 1636 :         _UDest = _Copy_memmove(_UFirst, _ULast, _UDest);

  00024	ff 75 fc	 push	 DWORD PTR __UDest$[ebp]
  00027	ff 75 f8	 push	 DWORD PTR __ULast$[ebp]
  0002a	ff 75 f4	 push	 DWORD PTR __UFirst$[ebp]
  0002d	e8 00 00 00 00	 call	 ??$_Copy_memmove@PAPAKPAPAK@std@@YAPAPAKPAPAK00@Z ; std::_Copy_memmove<unsigned long * *,unsigned long * *>
  00032	83 c4 0c	 add	 esp, 12			; 0000000cH
  00035	89 45 fc	 mov	 DWORD PTR __UDest$[ebp], eax
; File C:\Program Files (x86)\Microsoft Visual Studio\2019\Community\VC\Tools\MSVC\14.28.29333\include\xutility

; 1492 :         _It = static_cast<_UIter&&>(_UIt);

  00038	8b 45 fc	 mov	 eax, DWORD PTR __UDest$[ebp]
  0003b	89 45 10	 mov	 DWORD PTR __Dest$[ebp], eax
; File C:\Program Files (x86)\Microsoft Visual Studio\2019\Community\VC\Tools\MSVC\14.28.29333\include\xmemory

; 1647 :     return _Dest;

  0003e	8b 45 10	 mov	 eax, DWORD PTR __Dest$[ebp]

; 1648 : }

  00041	c9		 leave
  00042	c3		 ret	 0
??$uninitialized_copy@PAPAKPAPAK@std@@YAPAPAKQAPAK0PAPAK@Z ENDP ; std::uninitialized_copy<unsigned long * *,unsigned long * *>
_TEXT	ENDS
; Function compile flags: /Odspy
; File C:\Program Files (x86)\Microsoft Visual Studio\2019\Community\VC\Tools\MSVC\14.28.29333\include\xmemory
; File C:\Program Files (x86)\Microsoft Visual Studio\2019\Community\VC\Tools\MSVC\14.28.29333\include\xstddef
; File C:\Program Files (x86)\Microsoft Visual Studio\2019\Community\VC\Tools\MSVC\14.28.29333\include\xmemory
;	COMDAT ??$_Uninitialized_move@PAPAVCLight@@V?$allocator@PAVCLight@@@std@@@std@@YAPAPAVCLight@@QAPAV1@0PAPAV1@AAV?$allocator@PAVCLight@@@0@@Z
_TEXT	SEGMENT
$T1 = -12						; size = 4
__UFirst$ = -8						; size = 4
__ULast$ = -4						; size = 4
__First$ = 8						; size = 4
__Last$ = 12						; size = 4
__Dest$ = 16						; size = 4
__Al$ = 20						; size = 4
??$_Uninitialized_move@PAPAVCLight@@V?$allocator@PAVCLight@@@std@@@std@@YAPAPAVCLight@@QAPAV1@0PAPAV1@AAV?$allocator@PAVCLight@@@0@@Z PROC ; std::_Uninitialized_move<CLight * *,std::allocator<CLight *> >, COMDAT

; 1685 :     const _InIt _First, const _InIt _Last, _Alloc_ptr_t<_Alloc> _Dest, _Alloc& _Al) {

  00000	55		 push	 ebp
  00001	8b ec		 mov	 ebp, esp
  00003	83 ec 0c	 sub	 esp, 12			; 0000000cH

; 1686 :     // move [_First, _Last) to raw _Dest, using _Al
; 1687 :     // note: only called internally from elsewhere in the STL
; 1688 :     using _Ptrval     = typename _Alloc::value_type*;
; 1689 :     auto _UFirst      = _Get_unwrapped(_First);

  00006	8b 45 08	 mov	 eax, DWORD PTR __First$[ebp]
  00009	89 45 f8	 mov	 DWORD PTR __UFirst$[ebp], eax

; 1690 :     const auto _ULast = _Get_unwrapped(_Last);

  0000c	8b 45 0c	 mov	 eax, DWORD PTR __Last$[ebp]
  0000f	89 45 fc	 mov	 DWORD PTR __ULast$[ebp], eax
; File C:\Program Files (x86)\Microsoft Visual Studio\2019\Community\VC\Tools\MSVC\14.28.29333\include\xstddef

; 289  :     return _Ptr;

  00012	8b 45 10	 mov	 eax, DWORD PTR __Dest$[ebp]
  00015	89 45 f4	 mov	 DWORD PTR $T1[ebp], eax
; File C:\Program Files (x86)\Microsoft Visual Studio\2019\Community\VC\Tools\MSVC\14.28.29333\include\xmemory

; 1693 :         _Copy_memmove(_UFirst, _ULast, _Unfancy(_Dest));

  00018	ff 75 f4	 push	 DWORD PTR $T1[ebp]
  0001b	ff 75 fc	 push	 DWORD PTR __ULast$[ebp]
  0001e	ff 75 f8	 push	 DWORD PTR __UFirst$[ebp]
  00021	e8 00 00 00 00	 call	 ??$_Copy_memmove@PAPAVCLight@@PAPAV1@@std@@YAPAPAVCLight@@PAPAV1@00@Z ; std::_Copy_memmove<CLight * *,CLight * *>
  00026	83 c4 0c	 add	 esp, 12			; 0000000cH

; 1694 :         return _Dest + (_ULast - _UFirst);

  00029	8b 45 fc	 mov	 eax, DWORD PTR __ULast$[ebp]
  0002c	2b 45 f8	 sub	 eax, DWORD PTR __UFirst$[ebp]
  0002f	c1 f8 02	 sar	 eax, 2
  00032	8b 4d 10	 mov	 ecx, DWORD PTR __Dest$[ebp]
  00035	8d 04 81	 lea	 eax, DWORD PTR [ecx+eax*4]

; 1695 :     } else {
; 1696 :         _Uninitialized_backout_al<_Alloc> _Backout{_Dest, _Al};
; 1697 :         for (; _UFirst != _ULast; ++_UFirst) {
; 1698 :             _Backout._Emplace_back(_STD move(*_UFirst));
; 1699 :         }
; 1700 : 
; 1701 :         return _Backout._Release();
; 1702 :     }
; 1703 : }

  00038	c9		 leave
  00039	c3		 ret	 0
??$_Uninitialized_move@PAPAVCLight@@V?$allocator@PAVCLight@@@std@@@std@@YAPAPAVCLight@@QAPAV1@0PAPAV1@AAV?$allocator@PAVCLight@@@0@@Z ENDP ; std::_Uninitialized_move<CLight * *,std::allocator<CLight *> >
_TEXT	ENDS
; Function compile flags: /Odspy
; File C:\Program Files (x86)\Microsoft Visual Studio\2019\Community\VC\Tools\MSVC\14.28.29333\include\xmemory
;	COMDAT ??$_Destroy_in_place@PAU?$_Tree_node@U?$pair@$$CBKPAVCLight@@@std@@PAX@std@@@std@@YAXAAPAU?$_Tree_node@U?$pair@$$CBKPAVCLight@@@std@@PAX@0@@Z
_TEXT	SEGMENT
__Obj$ = 8						; size = 4
??$_Destroy_in_place@PAU?$_Tree_node@U?$pair@$$CBKPAVCLight@@@std@@PAX@std@@@std@@YAXAAPAU?$_Tree_node@U?$pair@$$CBKPAVCLight@@@std@@PAX@0@@Z PROC ; std::_Destroy_in_place<std::_Tree_node<std::pair<unsigned long const ,CLight *>,void *> *>, COMDAT

; 270  : /* _CONSTEXPR20_DYNALLOC */ void _Destroy_in_place(_Ty& _Obj) noexcept {

  00000	55		 push	 ebp
  00001	8b ec		 mov	 ebp, esp

; 271  : #if _HAS_IF_CONSTEXPR
; 272  :     if constexpr (is_array_v<_Ty>) {
; 273  :         _Destroy_range(_Obj, _Obj + extent_v<_Ty>);
; 274  :     } else
; 275  : #endif // _HAS_IF_CONSTEXPR
; 276  :     {
; 277  :         _Obj.~_Ty();
; 278  :     }
; 279  : }

  00003	5d		 pop	 ebp
  00004	c3		 ret	 0
??$_Destroy_in_place@PAU?$_Tree_node@U?$pair@$$CBKPAVCLight@@@std@@PAX@std@@@std@@YAXAAPAU?$_Tree_node@U?$pair@$$CBKPAVCLight@@@std@@PAX@0@@Z ENDP ; std::_Destroy_in_place<std::_Tree_node<std::pair<unsigned long const ,CLight *>,void *> *>
_TEXT	ENDS
; Function compile flags: /Odspy
; File C:\Program Files (x86)\Microsoft Visual Studio\2019\Community\VC\Tools\MSVC\14.28.29333\include\xmemory
; File C:\Program Files (x86)\Microsoft Visual Studio\2019\Community\VC\Tools\MSVC\14.28.29333\include\xstddef
; File C:\Program Files (x86)\Microsoft Visual Studio\2019\Community\VC\Tools\MSVC\14.28.29333\include\vcruntime_new.h
; File C:\Program Files (x86)\Microsoft Visual Studio\2019\Community\VC\Tools\MSVC\14.28.29333\include\type_traits
; File C:\Program Files (x86)\Microsoft Visual Studio\2019\Community\VC\Tools\MSVC\14.28.29333\include\xmemory
;	COMDAT ??$_Construct_in_place@PAU?$_Tree_node@U?$pair@$$CBKPAVCLight@@@std@@PAX@std@@ABQAU12@@std@@YAXAAPAU?$_Tree_node@U?$pair@$$CBKPAVCLight@@@std@@PAX@0@ABQAU10@@Z
_TEXT	SEGMENT
$T1 = -12						; size = 4
$T2 = -8						; size = 4
$T3 = -4						; size = 4
__Obj$ = 8						; size = 4
_<_Args_0>$ = 12					; size = 4
??$_Construct_in_place@PAU?$_Tree_node@U?$pair@$$CBKPAVCLight@@@std@@PAX@std@@ABQAU12@@std@@YAXAAPAU?$_Tree_node@U?$pair@$$CBKPAVCLight@@@std@@PAX@0@ABQAU10@@Z PROC ; std::_Construct_in_place<std::_Tree_node<std::pair<unsigned long const ,CLight *>,void *> *,std::_Tree_node<std::pair<unsigned long const ,CLight *>,void *> * const &>, COMDAT

; 228  : void _Construct_in_place(_Ty& _Obj, _Types&&... _Args) noexcept(is_nothrow_constructible_v<_Ty, _Types...>) {

  00000	55		 push	 ebp
  00001	8b ec		 mov	 ebp, esp
  00003	83 ec 0c	 sub	 esp, 12			; 0000000cH
; File C:\Program Files (x86)\Microsoft Visual Studio\2019\Community\VC\Tools\MSVC\14.28.29333\include\xstddef

; 275  :     return __builtin_addressof(_Val);

  00006	8b 45 08	 mov	 eax, DWORD PTR __Obj$[ebp]
  00009	89 45 fc	 mov	 DWORD PTR $T3[ebp], eax
; File C:\Program Files (x86)\Microsoft Visual Studio\2019\Community\VC\Tools\MSVC\14.28.29333\include\vcruntime_new.h

; 169  :         return _Where;

  0000c	8b 45 fc	 mov	 eax, DWORD PTR $T3[ebp]
  0000f	89 45 f8	 mov	 DWORD PTR $T2[ebp], eax
; File C:\Program Files (x86)\Microsoft Visual Studio\2019\Community\VC\Tools\MSVC\14.28.29333\include\type_traits

; 1443 :     return static_cast<_Ty&&>(_Arg);

  00012	8b 45 0c	 mov	 eax, DWORD PTR _<_Args_0>$[ebp]
  00015	89 45 f4	 mov	 DWORD PTR $T1[ebp], eax
; File C:\Program Files (x86)\Microsoft Visual Studio\2019\Community\VC\Tools\MSVC\14.28.29333\include\xmemory

; 229  :     ::new (const_cast<void*>(static_cast<const volatile void*>(_STD addressof(_Obj))))

  00018	8b 45 f8	 mov	 eax, DWORD PTR $T2[ebp]
  0001b	8b 4d f4	 mov	 ecx, DWORD PTR $T1[ebp]
  0001e	8b 09		 mov	 ecx, DWORD PTR [ecx]
  00020	89 08		 mov	 DWORD PTR [eax], ecx

; 230  :         _Ty(_STD forward<_Types>(_Args)...);
; 231  : }

  00022	c9		 leave
  00023	c3		 ret	 0
??$_Construct_in_place@PAU?$_Tree_node@U?$pair@$$CBKPAVCLight@@@std@@PAX@std@@ABQAU12@@std@@YAXAAPAU?$_Tree_node@U?$pair@$$CBKPAVCLight@@@std@@PAX@0@ABQAU10@@Z ENDP ; std::_Construct_in_place<std::_Tree_node<std::pair<unsigned long const ,CLight *>,void *> *,std::_Tree_node<std::pair<unsigned long const ,CLight *>,void *> * const &>
_TEXT	ENDS
; Function compile flags: /Odspy
; File C:\Program Files (x86)\Microsoft Visual Studio\2019\Community\VC\Tools\MSVC\14.28.29333\include\vector
; File C:\Program Files (x86)\Microsoft Visual Studio\2019\Community\VC\Tools\MSVC\14.28.29333\include\xutility
; File C:\Program Files (x86)\Microsoft Visual Studio\2019\Community\VC\Tools\MSVC\14.28.29333\include\xmemory
; File C:\Program Files (x86)\Microsoft Visual Studio\2019\Community\VC\Tools\MSVC\14.28.29333\include\vector
; File C:\Program Files (x86)\Microsoft Visual Studio\2019\Community\VC\Tools\MSVC\14.28.29333\include\xstddef
; File C:\Program Files (x86)\Microsoft Visual Studio\2019\Community\VC\Tools\MSVC\14.28.29333\include\vector
;	COMDAT ??$_Assign_range@PAPAVCLight@@@?$vector@PAVCLight@@V?$allocator@PAVCLight@@@std@@@std@@AAEXPAPAVCLight@@0Uforward_iterator_tag@1@@Z
_TEXT	SEGMENT
__Mylast$ = -36						; size = 4
$T1 = -32						; size = 4
__Ptr$ = -28						; size = 4
__Oldcapacity$2 = -24					; size = 4
__Myend$ = -20						; size = 4
__Myfirst$ = -16					; size = 4
_this$ = -12						; size = 4
__Newsize$ = -8						; size = 4
__My_data$ = -4						; size = 4
__First$ = 8						; size = 4
__Last$ = 12						; size = 4
___formal$ = 16						; size = 1
??$_Assign_range@PAPAVCLight@@@?$vector@PAVCLight@@V?$allocator@PAVCLight@@@std@@@std@@AAEXPAPAVCLight@@0Uforward_iterator_tag@1@@Z PROC ; std::vector<CLight *,std::allocator<CLight *> >::_Assign_range<CLight * *>, COMDAT
; _this$ = ecx

; 1094 :     void _Assign_range(_Iter _First, _Iter _Last, forward_iterator_tag) { // assign forward range [_First, _Last)

  00000	55		 push	 ebp
  00001	8b ec		 mov	 ebp, esp
  00003	83 ec 24	 sub	 esp, 36			; 00000024H
  00006	89 4d f4	 mov	 DWORD PTR _this$[ebp], ecx
; File C:\Program Files (x86)\Microsoft Visual Studio\2019\Community\VC\Tools\MSVC\14.28.29333\include\xutility

; 1794 :         return _Last - _First; // assume the iterator will do debug checking

  00009	8b 45 0c	 mov	 eax, DWORD PTR __Last$[ebp]
  0000c	2b 45 08	 sub	 eax, DWORD PTR __First$[ebp]
  0000f	c1 f8 02	 sar	 eax, 2
; File C:\Program Files (x86)\Microsoft Visual Studio\2019\Community\VC\Tools\MSVC\14.28.29333\include\xmemory

; 997  :     return _Len;

  00012	89 45 f8	 mov	 DWORD PTR __Newsize$[ebp], eax
; File C:\Program Files (x86)\Microsoft Visual Studio\2019\Community\VC\Tools\MSVC\14.28.29333\include\vector

; 1096 :         auto& _My_data      = _Mypair._Myval2;

  00015	8b 45 f4	 mov	 eax, DWORD PTR _this$[ebp]
  00018	89 45 fc	 mov	 DWORD PTR __My_data$[ebp], eax

; 1097 :         pointer& _Myfirst   = _My_data._Myfirst;

  0001b	8b 45 fc	 mov	 eax, DWORD PTR __My_data$[ebp]
  0001e	89 45 f0	 mov	 DWORD PTR __Myfirst$[ebp], eax

; 1098 :         pointer& _Mylast    = _My_data._Mylast;

  00021	8b 45 fc	 mov	 eax, DWORD PTR __My_data$[ebp]
  00024	83 c0 04	 add	 eax, 4
  00027	89 45 dc	 mov	 DWORD PTR __Mylast$[ebp], eax

; 1099 :         pointer& _Myend     = _My_data._Myend;

  0002a	8b 45 fc	 mov	 eax, DWORD PTR __My_data$[ebp]
  0002d	83 c0 08	 add	 eax, 8
  00030	89 45 ec	 mov	 DWORD PTR __Myend$[ebp], eax

; 1100 : 
; 1101 :         _My_data._Orphan_all();
; 1102 : 
; 1103 : #if _HAS_IF_CONSTEXPR
; 1104 :         if constexpr (conjunction_v<bool_constant<_Ptr_copy_cat<_Iter, _Ty*>::_Trivially_copyable>,
; 1105 :                           _Uses_default_construct<_Alty, _Ty*, decltype(*_First)>,
; 1106 :                           _Uses_default_destroy<_Alty, _Ty*>>) {
; 1107 :             const auto _Oldcapacity = static_cast<size_type>(_Myend - _Myfirst);

  00033	8b 45 ec	 mov	 eax, DWORD PTR __Myend$[ebp]
  00036	8b 4d f0	 mov	 ecx, DWORD PTR __Myfirst$[ebp]
  00039	8b 00		 mov	 eax, DWORD PTR [eax]
  0003b	2b 01		 sub	 eax, DWORD PTR [ecx]
  0003d	c1 f8 02	 sar	 eax, 2
  00040	89 45 e8	 mov	 DWORD PTR __Oldcapacity$2[ebp], eax

; 1108 :             if (_Newsize > _Oldcapacity) {

  00043	8b 45 f8	 mov	 eax, DWORD PTR __Newsize$[ebp]
  00046	3b 45 e8	 cmp	 eax, DWORD PTR __Oldcapacity$2[ebp]
  00049	76 0b		 jbe	 SHORT $LN2@Assign_ran

; 1109 :                 _Clear_and_reserve_geometric(_Newsize);

  0004b	ff 75 f8	 push	 DWORD PTR __Newsize$[ebp]
  0004e	8b 4d f4	 mov	 ecx, DWORD PTR _this$[ebp]
  00051	e8 00 00 00 00	 call	 ?_Clear_and_reserve_geometric@?$vector@PAVCLight@@V?$allocator@PAVCLight@@@std@@@std@@AAEXI@Z ; std::vector<CLight *,std::allocator<CLight *> >::_Clear_and_reserve_geometric
$LN2@Assign_ran:

; 1112 :             _Mylast = _Refancy<pointer>(_Copy_memmove(_First, _Last, _Unfancy(_Myfirst)));

  00056	8b 45 f0	 mov	 eax, DWORD PTR __Myfirst$[ebp]
  00059	8b 00		 mov	 eax, DWORD PTR [eax]
  0005b	89 45 e4	 mov	 DWORD PTR __Ptr$[ebp], eax
; File C:\Program Files (x86)\Microsoft Visual Studio\2019\Community\VC\Tools\MSVC\14.28.29333\include\xstddef

; 289  :     return _Ptr;

  0005e	8b 45 e4	 mov	 eax, DWORD PTR __Ptr$[ebp]
  00061	89 45 e0	 mov	 DWORD PTR $T1[ebp], eax
; File C:\Program Files (x86)\Microsoft Visual Studio\2019\Community\VC\Tools\MSVC\14.28.29333\include\vector

; 1112 :             _Mylast = _Refancy<pointer>(_Copy_memmove(_First, _Last, _Unfancy(_Myfirst)));

  00064	ff 75 e0	 push	 DWORD PTR $T1[ebp]
  00067	ff 75 0c	 push	 DWORD PTR __Last$[ebp]
  0006a	ff 75 08	 push	 DWORD PTR __First$[ebp]
  0006d	e8 00 00 00 00	 call	 ??$_Copy_memmove@PAPAVCLight@@PAPAV1@@std@@YAPAPAVCLight@@PAPAV1@00@Z ; std::_Copy_memmove<CLight * *,CLight * *>
  00072	83 c4 0c	 add	 esp, 12			; 0000000cH
  00075	50		 push	 eax
  00076	e8 00 00 00 00	 call	 ??$_Refancy@PAPAVCLight@@$0A@@std@@YAPAPAVCLight@@PAPAV1@@Z ; std::_Refancy<CLight * *,0>
  0007b	59		 pop	 ecx
  0007c	8b 4d dc	 mov	 ecx, DWORD PTR __Mylast$[ebp]
  0007f	89 01		 mov	 DWORD PTR [ecx], eax

; 1113 :         } else
; 1114 : #endif // _HAS_IF_CONSTEXPR
; 1115 :         {
; 1116 :             auto _Oldsize = static_cast<size_type>(_Mylast - _Myfirst);
; 1117 : 
; 1118 :             if (_Newsize > _Oldsize) {
; 1119 :                 const auto _Oldcapacity = static_cast<size_type>(_Myend - _Myfirst);
; 1120 :                 if (_Newsize > _Oldcapacity) { // reallocate
; 1121 :                     _Clear_and_reserve_geometric(_Newsize);
; 1122 :                     _Oldsize = 0;
; 1123 :                 }
; 1124 : 
; 1125 :                 // performance note: traversing [_First, _Mid) twice
; 1126 :                 const _Iter _Mid = _STD next(_First, static_cast<difference_type>(_Oldsize));
; 1127 :                 _Copy_unchecked(_First, _Mid, _Myfirst);
; 1128 :                 _Mylast = _Ucopy(_Mid, _Last, _Mylast);
; 1129 :             } else {
; 1130 :                 const pointer _Newlast = _Myfirst + _Newsize;
; 1131 :                 _Copy_unchecked(_First, _Last, _Myfirst);
; 1132 :                 _Destroy(_Newlast, _Mylast);
; 1133 :                 _Mylast = _Newlast;
; 1134 :             }
; 1135 :         }
; 1136 :     }

  00081	c9		 leave
  00082	c2 0c 00	 ret	 12			; 0000000cH
??$_Assign_range@PAPAVCLight@@@?$vector@PAVCLight@@V?$allocator@PAVCLight@@@std@@@std@@AAEXPAPAVCLight@@0Uforward_iterator_tag@1@@Z ENDP ; std::vector<CLight *,std::allocator<CLight *> >::_Assign_range<CLight * *>
_TEXT	ENDS
; Function compile flags: /Odspy
; File C:\Program Files (x86)\Microsoft Visual Studio\2019\Community\VC\Tools\MSVC\14.28.29333\include\xmemory
; File C:\Program Files (x86)\Microsoft Visual Studio\2019\Community\VC\Tools\MSVC\14.28.29333\include\xstddef
; File C:\Program Files (x86)\Microsoft Visual Studio\2019\Community\VC\Tools\MSVC\14.28.29333\include\vcruntime_new.h
; File C:\Program Files (x86)\Microsoft Visual Studio\2019\Community\VC\Tools\MSVC\14.28.29333\include\type_traits
; File C:\Program Files (x86)\Microsoft Visual Studio\2019\Community\VC\Tools\MSVC\14.28.29333\include\xmemory
;	COMDAT ??$_Construct_in_place@U_Container_proxy@std@@PAU_Container_base12@2@@std@@YAXAAU_Container_proxy@0@$$QAPAU_Container_base12@0@@Z
_TEXT	SEGMENT
__Mycont_$ = -16					; size = 4
$T1 = -12						; size = 4
$T2 = -8						; size = 4
$T3 = -4						; size = 4
__Obj$ = 8						; size = 4
_<_Args_0>$ = 12					; size = 4
??$_Construct_in_place@U_Container_proxy@std@@PAU_Container_base12@2@@std@@YAXAAU_Container_proxy@0@$$QAPAU_Container_base12@0@@Z PROC ; std::_Construct_in_place<std::_Container_proxy,std::_Container_base12 *>, COMDAT

; 228  : void _Construct_in_place(_Ty& _Obj, _Types&&... _Args) noexcept(is_nothrow_constructible_v<_Ty, _Types...>) {

  00000	55		 push	 ebp
  00001	8b ec		 mov	 ebp, esp
  00003	83 ec 10	 sub	 esp, 16			; 00000010H
; File C:\Program Files (x86)\Microsoft Visual Studio\2019\Community\VC\Tools\MSVC\14.28.29333\include\xstddef

; 275  :     return __builtin_addressof(_Val);

  00006	8b 45 08	 mov	 eax, DWORD PTR __Obj$[ebp]
  00009	89 45 f8	 mov	 DWORD PTR $T2[ebp], eax
; File C:\Program Files (x86)\Microsoft Visual Studio\2019\Community\VC\Tools\MSVC\14.28.29333\include\vcruntime_new.h

; 169  :         return _Where;

  0000c	8b 45 f8	 mov	 eax, DWORD PTR $T2[ebp]
  0000f	89 45 fc	 mov	 DWORD PTR $T3[ebp], eax
; File C:\Program Files (x86)\Microsoft Visual Studio\2019\Community\VC\Tools\MSVC\14.28.29333\include\type_traits

; 1443 :     return static_cast<_Ty&&>(_Arg);

  00012	8b 45 0c	 mov	 eax, DWORD PTR _<_Args_0>$[ebp]
  00015	89 45 f4	 mov	 DWORD PTR $T1[ebp], eax
; File C:\Program Files (x86)\Microsoft Visual Studio\2019\Community\VC\Tools\MSVC\14.28.29333\include\xmemory

; 229  :     ::new (const_cast<void*>(static_cast<const volatile void*>(_STD addressof(_Obj))))

  00018	8b 45 f4	 mov	 eax, DWORD PTR $T1[ebp]
  0001b	8b 00		 mov	 eax, DWORD PTR [eax]
  0001d	89 45 f0	 mov	 DWORD PTR __Mycont_$[ebp], eax

; 1089 :     _Container_proxy(_Container_base12* _Mycont_) noexcept : _Mycont(_Mycont_), _Myfirstiter(nullptr) {}

  00020	8b 45 fc	 mov	 eax, DWORD PTR $T3[ebp]
  00023	8b 4d f0	 mov	 ecx, DWORD PTR __Mycont_$[ebp]
  00026	89 08		 mov	 DWORD PTR [eax], ecx
  00028	8b 45 fc	 mov	 eax, DWORD PTR $T3[ebp]
  0002b	83 60 04 00	 and	 DWORD PTR [eax+4], 0

; 230  :         _Ty(_STD forward<_Types>(_Args)...);
; 231  : }

  0002f	c9		 leave
  00030	c3		 ret	 0
??$_Construct_in_place@U_Container_proxy@std@@PAU_Container_base12@2@@std@@YAXAAU_Container_proxy@0@$$QAPAU_Container_base12@0@@Z ENDP ; std::_Construct_in_place<std::_Container_proxy,std::_Container_base12 *>
_TEXT	ENDS
; Function compile flags: /Odspy
; File C:\Program Files (x86)\Microsoft Visual Studio\2019\Community\VC\Tools\MSVC\14.28.29333\include\xmemory
;	COMDAT ??$_Deallocate_plain@V?$allocator@U_Container_proxy@std@@@std@@@std@@YAXAAV?$allocator@U_Container_proxy@std@@@0@QAU_Container_proxy@0@@Z
_TEXT	SEGMENT
__Al$ = 8						; size = 4
__Ptr$ = 12						; size = 4
??$_Deallocate_plain@V?$allocator@U_Container_proxy@std@@@std@@@std@@YAXAAV?$allocator@U_Container_proxy@std@@@0@QAU_Container_proxy@0@@Z PROC ; std::_Deallocate_plain<std::allocator<std::_Container_proxy> >, COMDAT

; 1003 : void _Deallocate_plain(_Alloc& _Al, typename _Alloc::value_type* const _Ptr) noexcept {

  00000	55		 push	 ebp
  00001	8b ec		 mov	 ebp, esp

; 696  :         _Deallocate<_New_alignof<value_type>>(_Ptr, sizeof(value_type) * _Count);

  00003	33 c0		 xor	 eax, eax
  00005	40		 inc	 eax
  00006	c1 e0 03	 shl	 eax, 3
  00009	50		 push	 eax
  0000a	ff 75 0c	 push	 DWORD PTR __Ptr$[ebp]
  0000d	e8 00 00 00 00	 call	 ??$_Deallocate@$07$0A@@std@@YAXPAXI@Z ; std::_Deallocate<8,0>
  00012	59		 pop	 ecx
  00013	59		 pop	 ecx

; 1004 :     // deallocate a plain pointer using an allocator
; 1005 :     using _Alloc_traits = allocator_traits<_Alloc>;
; 1006 :     if constexpr (is_same_v<_Alloc_ptr_t<_Alloc>, typename _Alloc::value_type*>) {
; 1007 :         _Alloc_traits::deallocate(_Al, _Ptr, 1);
; 1008 :     } else {
; 1009 :         using _Ptr_traits = pointer_traits<_Alloc_ptr_t<_Alloc>>;
; 1010 :         _Alloc_traits::deallocate(_Al, _Ptr_traits::pointer_to(*_Ptr), 1);
; 1011 :     }
; 1012 : }

  00014	5d		 pop	 ebp
  00015	c3		 ret	 0
??$_Deallocate_plain@V?$allocator@U_Container_proxy@std@@@std@@@std@@YAXAAV?$allocator@U_Container_proxy@std@@@0@QAU_Container_proxy@0@@Z ENDP ; std::_Deallocate_plain<std::allocator<std::_Container_proxy> >
_TEXT	ENDS
; Function compile flags: /Odspy
; File C:\Program Files (x86)\Microsoft Visual Studio\2019\Community\VC\Tools\MSVC\14.28.29333\include\xtree
; File C:\Program Files (x86)\Microsoft Visual Studio\2019\Community\VC\Tools\MSVC\14.28.29333\include\xmemory
; File C:\Program Files (x86)\Microsoft Visual Studio\2019\Community\VC\Tools\MSVC\14.28.29333\include\xtree
;	COMDAT ??$_Freenode0@V?$allocator@U?$_Tree_node@U?$pair@$$CBKPAVCLight@@@std@@PAX@std@@@std@@@?$_Tree_node@U?$pair@$$CBKPAVCLight@@@std@@PAX@std@@SAXAAV?$allocator@U?$_Tree_node@U?$pair@$$CBKPAVCLight@@@std@@PAX@std@@@1@PAU01@@Z
_TEXT	SEGMENT
__Al$ = 8						; size = 4
__Ptr$ = 12						; size = 4
??$_Freenode0@V?$allocator@U?$_Tree_node@U?$pair@$$CBKPAVCLight@@@std@@PAX@std@@@std@@@?$_Tree_node@U?$pair@$$CBKPAVCLight@@@std@@PAX@std@@SAXAAV?$allocator@U?$_Tree_node@U?$pair@$$CBKPAVCLight@@@std@@PAX@std@@@1@PAU01@@Z PROC ; std::_Tree_node<std::pair<unsigned long const ,CLight *>,void *>::_Freenode0<std::allocator<std::_Tree_node<std::pair<unsigned long const ,CLight *>,void *> > >, COMDAT

; 368  :     static void _Freenode0(_Alloc& _Al, _Nodeptr _Ptr) noexcept {

  00000	55		 push	 ebp
  00001	8b ec		 mov	 ebp, esp

; 369  :         static_assert(is_same_v<typename _Alloc::value_type, _Tree_node>, "Bad _Freenode0 call");
; 370  :         _Destroy_in_place(_Ptr->_Left);

  00003	ff 75 0c	 push	 DWORD PTR __Ptr$[ebp]
  00006	e8 00 00 00 00	 call	 ??$_Destroy_in_place@PAU?$_Tree_node@U?$pair@$$CBKPAVCLight@@@std@@PAX@std@@@std@@YAXAAPAU?$_Tree_node@U?$pair@$$CBKPAVCLight@@@std@@PAX@0@@Z ; std::_Destroy_in_place<std::_Tree_node<std::pair<unsigned long const ,CLight *>,void *> *>
  0000b	59		 pop	 ecx

; 371  :         _Destroy_in_place(_Ptr->_Parent);

  0000c	8b 45 0c	 mov	 eax, DWORD PTR __Ptr$[ebp]
  0000f	83 c0 04	 add	 eax, 4
  00012	50		 push	 eax
  00013	e8 00 00 00 00	 call	 ??$_Destroy_in_place@PAU?$_Tree_node@U?$pair@$$CBKPAVCLight@@@std@@PAX@std@@@std@@YAXAAPAU?$_Tree_node@U?$pair@$$CBKPAVCLight@@@std@@PAX@0@@Z ; std::_Destroy_in_place<std::_Tree_node<std::pair<unsigned long const ,CLight *>,void *> *>
  00018	59		 pop	 ecx

; 372  :         _Destroy_in_place(_Ptr->_Right);

  00019	8b 45 0c	 mov	 eax, DWORD PTR __Ptr$[ebp]
  0001c	83 c0 08	 add	 eax, 8
  0001f	50		 push	 eax
  00020	e8 00 00 00 00	 call	 ??$_Destroy_in_place@PAU?$_Tree_node@U?$pair@$$CBKPAVCLight@@@std@@PAX@std@@@std@@YAXAAPAU?$_Tree_node@U?$pair@$$CBKPAVCLight@@@std@@PAX@0@@Z ; std::_Destroy_in_place<std::_Tree_node<std::pair<unsigned long const ,CLight *>,void *> *>
  00025	59		 pop	 ecx
; File C:\Program Files (x86)\Microsoft Visual Studio\2019\Community\VC\Tools\MSVC\14.28.29333\include\xmemory

; 696  :         _Deallocate<_New_alignof<value_type>>(_Ptr, sizeof(value_type) * _Count);

  00026	33 c0		 xor	 eax, eax
  00028	40		 inc	 eax
  00029	6b c0 18	 imul	 eax, eax, 24
  0002c	50		 push	 eax
  0002d	ff 75 0c	 push	 DWORD PTR __Ptr$[ebp]
  00030	e8 00 00 00 00	 call	 ??$_Deallocate@$07$0A@@std@@YAXPAXI@Z ; std::_Deallocate<8,0>
  00035	59		 pop	 ecx
  00036	59		 pop	 ecx
; File C:\Program Files (x86)\Microsoft Visual Studio\2019\Community\VC\Tools\MSVC\14.28.29333\include\xtree

; 374  :     }

  00037	5d		 pop	 ebp
  00038	c3		 ret	 0
??$_Freenode0@V?$allocator@U?$_Tree_node@U?$pair@$$CBKPAVCLight@@@std@@PAX@std@@@std@@@?$_Tree_node@U?$pair@$$CBKPAVCLight@@@std@@PAX@std@@SAXAAV?$allocator@U?$_Tree_node@U?$pair@$$CBKPAVCLight@@@std@@PAX@std@@@1@PAU01@@Z ENDP ; std::_Tree_node<std::pair<unsigned long const ,CLight *>,void *>::_Freenode0<std::allocator<std::_Tree_node<std::pair<unsigned long const ,CLight *>,void *> > >
_TEXT	ENDS
; Function compile flags: /Odspy
; File C:\Program Files (x86)\Microsoft Visual Studio\2019\Community\VC\Tools\MSVC\14.28.29333\include\xtree
; File C:\Program Files (x86)\Microsoft Visual Studio\2019\Community\VC\Tools\MSVC\14.28.29333\include\xmemory
; File C:\Program Files (x86)\Microsoft Visual Studio\2019\Community\VC\Tools\MSVC\14.28.29333\include\xtree
; File C:\Program Files (x86)\Microsoft Visual Studio\2019\Community\VC\Tools\MSVC\14.28.29333\include\type_traits
; File C:\Program Files (x86)\Microsoft Visual Studio\2019\Community\VC\Tools\MSVC\14.28.29333\include\xtree
; File C:\Program Files (x86)\Microsoft Visual Studio\2019\Community\VC\Tools\MSVC\14.28.29333\include\xstddef
; File C:\Program Files (x86)\Microsoft Visual Studio\2019\Community\VC\Tools\MSVC\14.28.29333\include\xtree
;	COMDAT ??$?0ABUpiecewise_construct_t@std@@V?$tuple@ABK@1@V?$tuple@$$V@1@@?$_Tree_temp_node@V?$allocator@U?$_Tree_node@U?$pair@$$CBKPAVCLight@@@std@@PAX@std@@@std@@@std@@QAE@AAV?$allocator@U?$_Tree_node@U?$pair@$$CBKPAVCLight@@@std@@PAX@std@@@1@PAU?$_Tree_node@U?$pair@$$CBKPAVCLight@@@std@@PAX@1@ABUpiecewise_construct_t@1@$$QAV?$tuple@ABK@1@$$QAV?$tuple@$$V@1@@Z
_TEXT	SEGMENT
$T2 = -36						; size = 4
$T3 = -32						; size = 4
$T4 = -28						; size = 4
$T5 = -24						; size = 4
__Val$ = -20						; size = 4
_this$ = -16						; size = 4
__$EHRec$ = -12						; size = 12
__Al_$ = 8						; size = 4
__Myhead$ = 12						; size = 4
_<_Vals_0>$ = 16					; size = 4
_<_Vals_1>$ = 20					; size = 4
_<_Vals_2>$ = 24					; size = 4
??$?0ABUpiecewise_construct_t@std@@V?$tuple@ABK@1@V?$tuple@$$V@1@@?$_Tree_temp_node@V?$allocator@U?$_Tree_node@U?$pair@$$CBKPAVCLight@@@std@@PAX@std@@@std@@@std@@QAE@AAV?$allocator@U?$_Tree_node@U?$pair@$$CBKPAVCLight@@@std@@PAX@std@@@1@PAU?$_Tree_node@U?$pair@$$CBKPAVCLight@@@std@@PAX@1@ABUpiecewise_construct_t@1@$$QAV?$tuple@ABK@1@$$QAV?$tuple@$$V@1@@Z PROC ; std::_Tree_temp_node<std::allocator<std::_Tree_node<std::pair<unsigned long const ,CLight *>,void *> > >::_Tree_temp_node<std::allocator<std::_Tree_node<std::pair<unsigned long const ,CLight *>,void *> > ><std::piecewise_construct_t const &,std::tuple<unsigned long const &>,std::tuple<> >, COMDAT
; _this$ = ecx

; 805  :         : _Tree_temp_node_alloc<_Alnode>(_Al_) {

  00000	55		 push	 ebp
  00001	8b ec		 mov	 ebp, esp
  00003	6a ff		 push	 -1
  00005	68 00 00 00 00	 push	 __ehhandler$??$?0ABUpiecewise_construct_t@std@@V?$tuple@ABK@1@V?$tuple@$$V@1@@?$_Tree_temp_node@V?$allocator@U?$_Tree_node@U?$pair@$$CBKPAVCLight@@@std@@PAX@std@@@std@@@std@@QAE@AAV?$allocator@U?$_Tree_node@U?$pair@$$CBKPAVCLight@@@std@@PAX@std@@@1@PAU?$_Tree_node@U?$pair@$$CBKPAVCLight@@@std@@PAX@1@ABUpiecewise_construct_t@1@$$QAV?$tuple@ABK@1@$$QAV?$tuple@$$V@1@@Z
  0000a	64 a1 00 00 00
	00		 mov	 eax, DWORD PTR fs:0
  00010	50		 push	 eax
  00011	83 ec 18	 sub	 esp, 24			; 00000018H
  00014	a1 00 00 00 00	 mov	 eax, DWORD PTR ___security_cookie
  00019	33 c5		 xor	 eax, ebp
  0001b	50		 push	 eax
  0001c	8d 45 f4	 lea	 eax, DWORD PTR __$EHRec$[ebp]
  0001f	64 a3 00 00 00
	00		 mov	 DWORD PTR fs:0, eax
  00025	89 4d f0	 mov	 DWORD PTR _this$[ebp], ecx
; File C:\Program Files (x86)\Microsoft Visual Studio\2019\Community\VC\Tools\MSVC\14.28.29333\include\xmemory

; 1045 :     explicit _Alloc_construct_ptr(_Alloc& _Al_) : _Al(_Al_), _Ptr(nullptr) {}

  00028	8b 45 f0	 mov	 eax, DWORD PTR _this$[ebp]
  0002b	8b 4d 08	 mov	 ecx, DWORD PTR __Al_$[ebp]
  0002e	89 08		 mov	 DWORD PTR [eax], ecx
  00030	8b 45 f0	 mov	 eax, DWORD PTR _this$[ebp]
  00033	83 60 04 00	 and	 DWORD PTR [eax+4], 0
; File C:\Program Files (x86)\Microsoft Visual Studio\2019\Community\VC\Tools\MSVC\14.28.29333\include\xtree

; 784  :     explicit _Tree_temp_node_alloc(_Alnode& _Al_) : _Alloc_construct_ptr<_Alnode>(_Al_) {

  00037	83 65 fc 00	 and	 DWORD PTR __$EHRec$[ebp+8], 0

; 785  :         _Alloc_construct_ptr<_Alnode>::_Allocate();

  0003b	8b 4d f0	 mov	 ecx, DWORD PTR _this$[ebp]
  0003e	e8 00 00 00 00	 call	 ?_Allocate@?$_Alloc_construct_ptr@V?$allocator@U?$_Tree_node@U?$pair@$$CBKPAVCLight@@@std@@PAX@std@@@std@@@std@@QAEXXZ ; std::_Alloc_construct_ptr<std::allocator<std::_Tree_node<std::pair<unsigned long const ,CLight *>,void *> > >::_Allocate

; 805  :         : _Tree_temp_node_alloc<_Alnode>(_Al_) {

  00043	c7 45 fc 01 00
	00 00		 mov	 DWORD PTR __$EHRec$[ebp+8], 1
; File C:\Program Files (x86)\Microsoft Visual Studio\2019\Community\VC\Tools\MSVC\14.28.29333\include\type_traits

; 1443 :     return static_cast<_Ty&&>(_Arg);

  0004a	8b 45 18	 mov	 eax, DWORD PTR _<_Vals_2>$[ebp]
  0004d	89 45 e8	 mov	 DWORD PTR $T5[ebp], eax
  00050	8b 45 14	 mov	 eax, DWORD PTR _<_Vals_1>$[ebp]
  00053	89 45 e4	 mov	 DWORD PTR $T4[ebp], eax
  00056	8b 45 10	 mov	 eax, DWORD PTR _<_Vals_0>$[ebp]
  00059	89 45 e0	 mov	 DWORD PTR $T3[ebp], eax
; File C:\Program Files (x86)\Microsoft Visual Studio\2019\Community\VC\Tools\MSVC\14.28.29333\include\xtree

; 806  :         _Alnode_traits::construct(this->_Al, _STD addressof(this->_Ptr->_Myval), _STD forward<_Valtys>(_Vals)...);

  0005c	8b 45 f0	 mov	 eax, DWORD PTR _this$[ebp]
  0005f	8b 40 04	 mov	 eax, DWORD PTR [eax+4]
  00062	83 c0 10	 add	 eax, 16			; 00000010H
  00065	89 45 ec	 mov	 DWORD PTR __Val$[ebp], eax
; File C:\Program Files (x86)\Microsoft Visual Studio\2019\Community\VC\Tools\MSVC\14.28.29333\include\xstddef

; 275  :     return __builtin_addressof(_Val);

  00068	8b 45 ec	 mov	 eax, DWORD PTR __Val$[ebp]
  0006b	89 45 dc	 mov	 DWORD PTR $T2[ebp], eax
; File C:\Program Files (x86)\Microsoft Visual Studio\2019\Community\VC\Tools\MSVC\14.28.29333\include\xtree

; 806  :         _Alnode_traits::construct(this->_Al, _STD addressof(this->_Ptr->_Myval), _STD forward<_Valtys>(_Vals)...);

  0006e	ff 75 e8	 push	 DWORD PTR $T5[ebp]
  00071	ff 75 e4	 push	 DWORD PTR $T4[ebp]
  00074	ff 75 e0	 push	 DWORD PTR $T3[ebp]
  00077	ff 75 dc	 push	 DWORD PTR $T2[ebp]
  0007a	8b 45 f0	 mov	 eax, DWORD PTR _this$[ebp]
  0007d	ff 30		 push	 DWORD PTR [eax]
  0007f	e8 00 00 00 00	 call	 ??$construct@U?$pair@$$CBKPAVCLight@@@std@@ABUpiecewise_construct_t@2@V?$tuple@ABK@2@V?$tuple@$$V@2@@?$_Default_allocator_traits@V?$allocator@U?$_Tree_node@U?$pair@$$CBKPAVCLight@@@std@@PAX@std@@@std@@@std@@SAXAAV?$allocator@U?$_Tree_node@U?$pair@$$CBKPAVCLight@@@std@@PAX@std@@@1@QAU?$pair@$$CBKPAVCLight@@@1@ABUpiecewise_construct_t@1@$$QAV?$tuple@ABK@1@$$QAV?$tuple@$$V@1@@Z ; std::_Default_allocator_traits<std::allocator<std::_Tree_node<std::pair<unsigned long const ,CLight *>,void *> > >::construct<std::pair<unsigned long const ,CLight *>,std::piecewise_construct_t const &,std::tuple<unsigned long const &>,std::tuple<> >
  00084	83 c4 14	 add	 esp, 20			; 00000014H

; 807  :         _Construct_in_place(this->_Ptr->_Left, _Myhead);

  00087	8d 45 0c	 lea	 eax, DWORD PTR __Myhead$[ebp]
  0008a	50		 push	 eax
  0008b	8b 45 f0	 mov	 eax, DWORD PTR _this$[ebp]
  0008e	ff 70 04	 push	 DWORD PTR [eax+4]
  00091	e8 00 00 00 00	 call	 ??$_Construct_in_place@PAU?$_Tree_node@U?$pair@$$CBKPAVCLight@@@std@@PAX@std@@AAPAU12@@std@@YAXAAPAU?$_Tree_node@U?$pair@$$CBKPAVCLight@@@std@@PAX@0@0@Z ; std::_Construct_in_place<std::_Tree_node<std::pair<unsigned long const ,CLight *>,void *> *,std::_Tree_node<std::pair<unsigned long const ,CLight *>,void *> * &>
  00096	59		 pop	 ecx
  00097	59		 pop	 ecx

; 808  :         _Construct_in_place(this->_Ptr->_Parent, _Myhead);

  00098	8d 45 0c	 lea	 eax, DWORD PTR __Myhead$[ebp]
  0009b	50		 push	 eax
  0009c	8b 45 f0	 mov	 eax, DWORD PTR _this$[ebp]
  0009f	8b 40 04	 mov	 eax, DWORD PTR [eax+4]
  000a2	83 c0 04	 add	 eax, 4
  000a5	50		 push	 eax
  000a6	e8 00 00 00 00	 call	 ??$_Construct_in_place@PAU?$_Tree_node@U?$pair@$$CBKPAVCLight@@@std@@PAX@std@@AAPAU12@@std@@YAXAAPAU?$_Tree_node@U?$pair@$$CBKPAVCLight@@@std@@PAX@0@0@Z ; std::_Construct_in_place<std::_Tree_node<std::pair<unsigned long const ,CLight *>,void *> *,std::_Tree_node<std::pair<unsigned long const ,CLight *>,void *> * &>
  000ab	59		 pop	 ecx
  000ac	59		 pop	 ecx

; 809  :         _Construct_in_place(this->_Ptr->_Right, _Myhead);

  000ad	8d 45 0c	 lea	 eax, DWORD PTR __Myhead$[ebp]
  000b0	50		 push	 eax
  000b1	8b 45 f0	 mov	 eax, DWORD PTR _this$[ebp]
  000b4	8b 40 04	 mov	 eax, DWORD PTR [eax+4]
  000b7	83 c0 08	 add	 eax, 8
  000ba	50		 push	 eax
  000bb	e8 00 00 00 00	 call	 ??$_Construct_in_place@PAU?$_Tree_node@U?$pair@$$CBKPAVCLight@@@std@@PAX@std@@AAPAU12@@std@@YAXAAPAU?$_Tree_node@U?$pair@$$CBKPAVCLight@@@std@@PAX@0@0@Z ; std::_Construct_in_place<std::_Tree_node<std::pair<unsigned long const ,CLight *>,void *> *,std::_Tree_node<std::pair<unsigned long const ,CLight *>,void *> * &>
  000c0	59		 pop	 ecx
  000c1	59		 pop	 ecx

; 810  :         this->_Ptr->_Color = _Red;

  000c2	8b 45 f0	 mov	 eax, DWORD PTR _this$[ebp]
  000c5	8b 40 04	 mov	 eax, DWORD PTR [eax+4]
  000c8	c6 40 0c 00	 mov	 BYTE PTR [eax+12], 0

; 811  :         this->_Ptr->_Isnil = false;

  000cc	8b 45 f0	 mov	 eax, DWORD PTR _this$[ebp]
  000cf	8b 40 04	 mov	 eax, DWORD PTR [eax+4]
  000d2	c6 40 0d 00	 mov	 BYTE PTR [eax+13], 0

; 812  :     }

  000d6	83 4d fc ff	 or	 DWORD PTR __$EHRec$[ebp+8], -1
  000da	8b 45 f0	 mov	 eax, DWORD PTR _this$[ebp]
  000dd	8b 4d f4	 mov	 ecx, DWORD PTR __$EHRec$[ebp]
  000e0	64 89 0d 00 00
	00 00		 mov	 DWORD PTR fs:0, ecx
  000e7	59		 pop	 ecx
  000e8	c9		 leave
  000e9	c2 14 00	 ret	 20			; 00000014H
_TEXT	ENDS
;	COMDAT text$x
text$x	SEGMENT
__unwindfunclet$??$?0ABUpiecewise_construct_t@std@@V?$tuple@ABK@1@V?$tuple@$$V@1@@?$_Tree_temp_node@V?$allocator@U?$_Tree_node@U?$pair@$$CBKPAVCLight@@@std@@PAX@std@@@std@@@std@@QAE@AAV?$allocator@U?$_Tree_node@U?$pair@$$CBKPAVCLight@@@std@@PAX@std@@@1@PAU?$_Tree_node@U?$pair@$$CBKPAVCLight@@@std@@PAX@1@ABUpiecewise_construct_t@1@$$QAV?$tuple@ABK@1@$$QAV?$tuple@$$V@1@@Z$1:
  00000	8b 4d f0	 mov	 ecx, DWORD PTR _this$[ebp]
  00003	e9 00 00 00 00	 jmp	 ??1?$_Alloc_construct_ptr@V?$allocator@U?$_Tree_node@U?$pair@$$CBKPAVCLight@@@std@@PAX@std@@@std@@@std@@QAE@XZ ; std::_Alloc_construct_ptr<std::allocator<std::_Tree_node<std::pair<unsigned long const ,CLight *>,void *> > >::~_Alloc_construct_ptr<std::allocator<std::_Tree_node<std::pair<unsigned long const ,CLight *>,void *> > >
__unwindfunclet$??$?0ABUpiecewise_construct_t@std@@V?$tuple@ABK@1@V?$tuple@$$V@1@@?$_Tree_temp_node@V?$allocator@U?$_Tree_node@U?$pair@$$CBKPAVCLight@@@std@@PAX@std@@@std@@@std@@QAE@AAV?$allocator@U?$_Tree_node@U?$pair@$$CBKPAVCLight@@@std@@PAX@std@@@1@PAU?$_Tree_node@U?$pair@$$CBKPAVCLight@@@std@@PAX@1@ABUpiecewise_construct_t@1@$$QAV?$tuple@ABK@1@$$QAV?$tuple@$$V@1@@Z$0:
  00008	8b 4d f0	 mov	 ecx, DWORD PTR _this$[ebp]
  0000b	e9 00 00 00 00	 jmp	 ??1?$_Tree_temp_node_alloc@V?$allocator@U?$_Tree_node@U?$pair@$$CBKPAVCLight@@@std@@PAX@std@@@std@@@std@@QAE@XZ
  00010	cc		 int	 3
  00011	cc		 int	 3
  00012	cc		 int	 3
  00013	cc		 int	 3
  00014	cc		 int	 3
__ehhandler$??$?0ABUpiecewise_construct_t@std@@V?$tuple@ABK@1@V?$tuple@$$V@1@@?$_Tree_temp_node@V?$allocator@U?$_Tree_node@U?$pair@$$CBKPAVCLight@@@std@@PAX@std@@@std@@@std@@QAE@AAV?$allocator@U?$_Tree_node@U?$pair@$$CBKPAVCLight@@@std@@PAX@std@@@1@PAU?$_Tree_node@U?$pair@$$CBKPAVCLight@@@std@@PAX@1@ABUpiecewise_construct_t@1@$$QAV?$tuple@ABK@1@$$QAV?$tuple@$$V@1@@Z:
  00015	90		 npad	 1
  00016	90		 npad	 1
  00017	8b 54 24 08	 mov	 edx, DWORD PTR [esp+8]
  0001b	8d 42 0c	 lea	 eax, DWORD PTR [edx+12]
  0001e	8b 4a e4	 mov	 ecx, DWORD PTR [edx-28]
  00021	33 c8		 xor	 ecx, eax
  00023	e8 00 00 00 00	 call	 @__security_check_cookie@4
  00028	b8 00 00 00 00	 mov	 eax, OFFSET __ehfuncinfo$??$?0ABUpiecewise_construct_t@std@@V?$tuple@ABK@1@V?$tuple@$$V@1@@?$_Tree_temp_node@V?$allocator@U?$_Tree_node@U?$pair@$$CBKPAVCLight@@@std@@PAX@std@@@std@@@std@@QAE@AAV?$allocator@U?$_Tree_node@U?$pair@$$CBKPAVCLight@@@std@@PAX@std@@@1@PAU?$_Tree_node@U?$pair@$$CBKPAVCLight@@@std@@PAX@1@ABUpiecewise_construct_t@1@$$QAV?$tuple@ABK@1@$$QAV?$tuple@$$V@1@@Z
  0002d	e9 00 00 00 00	 jmp	 ___CxxFrameHandler3
text$x	ENDS
??$?0ABUpiecewise_construct_t@std@@V?$tuple@ABK@1@V?$tuple@$$V@1@@?$_Tree_temp_node@V?$allocator@U?$_Tree_node@U?$pair@$$CBKPAVCLight@@@std@@PAX@std@@@std@@@std@@QAE@AAV?$allocator@U?$_Tree_node@U?$pair@$$CBKPAVCLight@@@std@@PAX@std@@@1@PAU?$_Tree_node@U?$pair@$$CBKPAVCLight@@@std@@PAX@1@ABUpiecewise_construct_t@1@$$QAV?$tuple@ABK@1@$$QAV?$tuple@$$V@1@@Z ENDP ; std::_Tree_temp_node<std::allocator<std::_Tree_node<std::pair<unsigned long const ,CLight *>,void *> > >::_Tree_temp_node<std::allocator<std::_Tree_node<std::pair<unsigned long const ,CLight *>,void *> > ><std::piecewise_construct_t const &,std::tuple<unsigned long const &>,std::tuple<> >
; Function compile flags: /Odspy
; File C:\Program Files (x86)\Microsoft Visual Studio\2019\Community\VC\Tools\MSVC\14.28.29333\include\xtree
; File C:\Program Files (x86)\Microsoft Visual Studio\2019\Community\VC\Tools\MSVC\14.28.29333\include\xstddef
; File C:\Program Files (x86)\Microsoft Visual Studio\2019\Community\VC\Tools\MSVC\14.28.29333\include\xtree
;	COMDAT ??1?$_Tree_temp_node@V?$allocator@U?$_Tree_node@U?$pair@$$CBKPAVCLight@@@std@@PAX@std@@@std@@@std@@QAE@XZ
_TEXT	SEGMENT
$T1 = -12						; size = 4
__Val$ = -8						; size = 4
_this$ = -4						; size = 4
??1?$_Tree_temp_node@V?$allocator@U?$_Tree_node@U?$pair@$$CBKPAVCLight@@@std@@PAX@std@@@std@@@std@@QAE@XZ PROC ; std::_Tree_temp_node<std::allocator<std::_Tree_node<std::pair<unsigned long const ,CLight *>,void *> > >::~_Tree_temp_node<std::allocator<std::_Tree_node<std::pair<unsigned long const ,CLight *>,void *> > >, COMDAT
; _this$ = ecx

; 817  :     ~_Tree_temp_node() {

  00000	55		 push	 ebp
  00001	8b ec		 mov	 ebp, esp
  00003	83 ec 0c	 sub	 esp, 12			; 0000000cH
  00006	89 4d fc	 mov	 DWORD PTR _this$[ebp], ecx

; 818  :         if (this->_Ptr) {

  00009	8b 45 fc	 mov	 eax, DWORD PTR _this$[ebp]
  0000c	83 78 04 00	 cmp	 DWORD PTR [eax+4], 0
  00010	74 3e		 je	 SHORT $LN9@Tree_temp_

; 819  :             _Destroy_in_place(this->_Ptr->_Left);

  00012	8b 45 fc	 mov	 eax, DWORD PTR _this$[ebp]
  00015	ff 70 04	 push	 DWORD PTR [eax+4]
  00018	e8 00 00 00 00	 call	 ??$_Destroy_in_place@PAU?$_Tree_node@U?$pair@$$CBKPAVCLight@@@std@@PAX@std@@@std@@YAXAAPAU?$_Tree_node@U?$pair@$$CBKPAVCLight@@@std@@PAX@0@@Z ; std::_Destroy_in_place<std::_Tree_node<std::pair<unsigned long const ,CLight *>,void *> *>
  0001d	59		 pop	 ecx

; 820  :             _Destroy_in_place(this->_Ptr->_Parent);

  0001e	8b 45 fc	 mov	 eax, DWORD PTR _this$[ebp]
  00021	8b 40 04	 mov	 eax, DWORD PTR [eax+4]
  00024	83 c0 04	 add	 eax, 4
  00027	50		 push	 eax
  00028	e8 00 00 00 00	 call	 ??$_Destroy_in_place@PAU?$_Tree_node@U?$pair@$$CBKPAVCLight@@@std@@PAX@std@@@std@@YAXAAPAU?$_Tree_node@U?$pair@$$CBKPAVCLight@@@std@@PAX@0@@Z ; std::_Destroy_in_place<std::_Tree_node<std::pair<unsigned long const ,CLight *>,void *> *>
  0002d	59		 pop	 ecx

; 821  :             _Destroy_in_place(this->_Ptr->_Right);

  0002e	8b 45 fc	 mov	 eax, DWORD PTR _this$[ebp]
  00031	8b 40 04	 mov	 eax, DWORD PTR [eax+4]
  00034	83 c0 08	 add	 eax, 8
  00037	50		 push	 eax
  00038	e8 00 00 00 00	 call	 ??$_Destroy_in_place@PAU?$_Tree_node@U?$pair@$$CBKPAVCLight@@@std@@PAX@std@@@std@@YAXAAPAU?$_Tree_node@U?$pair@$$CBKPAVCLight@@@std@@PAX@0@@Z ; std::_Destroy_in_place<std::_Tree_node<std::pair<unsigned long const ,CLight *>,void *> *>
  0003d	59		 pop	 ecx

; 822  :             _Alnode_traits::destroy(this->_Al, _STD addressof(this->_Ptr->_Myval));

  0003e	8b 45 fc	 mov	 eax, DWORD PTR _this$[ebp]
  00041	8b 40 04	 mov	 eax, DWORD PTR [eax+4]
  00044	83 c0 10	 add	 eax, 16			; 00000010H
  00047	89 45 f8	 mov	 DWORD PTR __Val$[ebp], eax
; File C:\Program Files (x86)\Microsoft Visual Studio\2019\Community\VC\Tools\MSVC\14.28.29333\include\xstddef

; 275  :     return __builtin_addressof(_Val);

  0004a	8b 45 f8	 mov	 eax, DWORD PTR __Val$[ebp]
  0004d	89 45 f4	 mov	 DWORD PTR $T1[ebp], eax
$LN9@Tree_temp_:
  00050	8b 4d fc	 mov	 ecx, DWORD PTR _this$[ebp]
  00053	e8 00 00 00 00	 call	 ??1?$_Alloc_construct_ptr@V?$allocator@U?$_Tree_node@U?$pair@$$CBKPAVCLight@@@std@@PAX@std@@@std@@@std@@QAE@XZ ; std::_Alloc_construct_ptr<std::allocator<std::_Tree_node<std::pair<unsigned long const ,CLight *>,void *> > >::~_Alloc_construct_ptr<std::allocator<std::_Tree_node<std::pair<unsigned long const ,CLight *>,void *> > >
; File C:\Program Files (x86)\Microsoft Visual Studio\2019\Community\VC\Tools\MSVC\14.28.29333\include\xtree

; 824  :     }

  00058	c9		 leave
  00059	c3		 ret	 0
??1?$_Tree_temp_node@V?$allocator@U?$_Tree_node@U?$pair@$$CBKPAVCLight@@@std@@PAX@std@@@std@@@std@@QAE@XZ ENDP ; std::_Tree_temp_node<std::allocator<std::_Tree_node<std::pair<unsigned long const ,CLight *>,void *> > >::~_Tree_temp_node<std::allocator<std::_Tree_node<std::pair<unsigned long const ,CLight *>,void *> > >
_TEXT	ENDS
; Function compile flags: /Odspy
;	COMDAT ??1?$_Tree_temp_node_alloc@V?$allocator@U?$_Tree_node@U?$pair@$$CBKPAVCLight@@@std@@PAX@std@@@std@@@std@@QAE@XZ
_TEXT	SEGMENT
_this$ = -4						; size = 4
??1?$_Tree_temp_node_alloc@V?$allocator@U?$_Tree_node@U?$pair@$$CBKPAVCLight@@@std@@PAX@std@@@std@@@std@@QAE@XZ PROC ; std::_Tree_temp_node_alloc<std::allocator<std::_Tree_node<std::pair<unsigned long const ,CLight *>,void *> > >::~_Tree_temp_node_alloc<std::allocator<std::_Tree_node<std::pair<unsigned long const ,CLight *>,void *> > >, COMDAT
; _this$ = ecx
  00000	55		 push	 ebp
  00001	8b ec		 mov	 ebp, esp
  00003	51		 push	 ecx
  00004	89 4d fc	 mov	 DWORD PTR _this$[ebp], ecx
  00007	8b 4d fc	 mov	 ecx, DWORD PTR _this$[ebp]
  0000a	e8 00 00 00 00	 call	 ??1?$_Alloc_construct_ptr@V?$allocator@U?$_Tree_node@U?$pair@$$CBKPAVCLight@@@std@@PAX@std@@@std@@@std@@QAE@XZ ; std::_Alloc_construct_ptr<std::allocator<std::_Tree_node<std::pair<unsigned long const ,CLight *>,void *> > >::~_Alloc_construct_ptr<std::allocator<std::_Tree_node<std::pair<unsigned long const ,CLight *>,void *> > >
  0000f	c9		 leave
  00010	c3		 ret	 0
??1?$_Tree_temp_node_alloc@V?$allocator@U?$_Tree_node@U?$pair@$$CBKPAVCLight@@@std@@PAX@std@@@std@@@std@@QAE@XZ ENDP ; std::_Tree_temp_node_alloc<std::allocator<std::_Tree_node<std::pair<unsigned long const ,CLight *>,void *> > >::~_Tree_temp_node_alloc<std::allocator<std::_Tree_node<std::pair<unsigned long const ,CLight *>,void *> > >
_TEXT	ENDS
; Function compile flags: /Odspy
; File C:\Program Files (x86)\Microsoft Visual Studio\2019\Community\VC\Tools\MSVC\14.28.29333\include\xmemory
;	COMDAT ??1?$_Alloc_construct_ptr@V?$allocator@U?$_Tree_node@U?$pair@$$CBKPAVCLight@@@std@@PAX@std@@@std@@@std@@QAE@XZ
_TEXT	SEGMENT
_this$ = -12						; size = 4
__Ptr$ = -8						; size = 4
_this$ = -4						; size = 4
??1?$_Alloc_construct_ptr@V?$allocator@U?$_Tree_node@U?$pair@$$CBKPAVCLight@@@std@@PAX@std@@@std@@@std@@QAE@XZ PROC ; std::_Alloc_construct_ptr<std::allocator<std::_Tree_node<std::pair<unsigned long const ,CLight *>,void *> > >::~_Alloc_construct_ptr<std::allocator<std::_Tree_node<std::pair<unsigned long const ,CLight *>,void *> > >, COMDAT
; _this$ = ecx

; 1056 :     ~_Alloc_construct_ptr() { // if this instance is engaged, deallocate storage

  00000	55		 push	 ebp
  00001	8b ec		 mov	 ebp, esp
  00003	83 ec 0c	 sub	 esp, 12			; 0000000cH
  00006	89 4d fc	 mov	 DWORD PTR _this$[ebp], ecx

; 1057 :         if (_Ptr) {

  00009	8b 45 fc	 mov	 eax, DWORD PTR _this$[ebp]
  0000c	83 78 04 00	 cmp	 DWORD PTR [eax+4], 0
  00010	74 22		 je	 SHORT $LN3@Alloc_cons

; 1058 :             _Al.deallocate(_Ptr, 1);

  00012	8b 45 fc	 mov	 eax, DWORD PTR _this$[ebp]
  00015	8b 40 04	 mov	 eax, DWORD PTR [eax+4]
  00018	89 45 f8	 mov	 DWORD PTR __Ptr$[ebp], eax
  0001b	8b 45 fc	 mov	 eax, DWORD PTR _this$[ebp]
  0001e	8b 00		 mov	 eax, DWORD PTR [eax]
  00020	89 45 f4	 mov	 DWORD PTR _this$[ebp], eax

; 810  :         _Deallocate<_New_alignof<_Ty>>(_Ptr, sizeof(_Ty) * _Count);

  00023	33 c0		 xor	 eax, eax
  00025	40		 inc	 eax
  00026	6b c0 18	 imul	 eax, eax, 24
  00029	50		 push	 eax
  0002a	ff 75 f8	 push	 DWORD PTR __Ptr$[ebp]
  0002d	e8 00 00 00 00	 call	 ??$_Deallocate@$07$0A@@std@@YAXPAXI@Z ; std::_Deallocate<8,0>
  00032	59		 pop	 ecx
  00033	59		 pop	 ecx
$LN3@Alloc_cons:

; 1059 :         }
; 1060 :     }

  00034	c9		 leave
  00035	c3		 ret	 0
??1?$_Alloc_construct_ptr@V?$allocator@U?$_Tree_node@U?$pair@$$CBKPAVCLight@@@std@@PAX@std@@@std@@@std@@QAE@XZ ENDP ; std::_Alloc_construct_ptr<std::allocator<std::_Tree_node<std::pair<unsigned long const ,CLight *>,void *> > >::~_Alloc_construct_ptr<std::allocator<std::_Tree_node<std::pair<unsigned long const ,CLight *>,void *> > >
_TEXT	ENDS
; Function compile flags: /Odspy
; File C:\Program Files (x86)\Microsoft Visual Studio\2019\Community\VC\Tools\MSVC\14.28.29333\include\xmemory
;	COMDAT ?_Allocate@?$_Alloc_construct_ptr@V?$allocator@U?$_Tree_node@U?$pair@$$CBKPAVCLight@@@std@@PAX@std@@@std@@@std@@QAEXXZ
_TEXT	SEGMENT
__Max_possible$1 = -24					; size = 4
_this$ = -20						; size = 4
$T2 = -16						; size = 4
$T3 = -12						; size = 4
_this$ = -8						; size = 4
__Overflow_is_possible$4 = -1				; size = 1
?_Allocate@?$_Alloc_construct_ptr@V?$allocator@U?$_Tree_node@U?$pair@$$CBKPAVCLight@@@std@@PAX@std@@@std@@@std@@QAEXXZ PROC ; std::_Alloc_construct_ptr<std::allocator<std::_Tree_node<std::pair<unsigned long const ,CLight *>,void *> > >::_Allocate, COMDAT
; _this$ = ecx

; 1051 :     void _Allocate() { // disengage *this, then allocate a new memory block

  00000	55		 push	 ebp
  00001	8b ec		 mov	 ebp, esp
  00003	83 ec 18	 sub	 esp, 24			; 00000018H
  00006	89 4d f8	 mov	 DWORD PTR _this$[ebp], ecx

; 1052 :         _Ptr = nullptr; // if allocate throws, prevents double-free

  00009	8b 45 f8	 mov	 eax, DWORD PTR _this$[ebp]
  0000c	83 60 04 00	 and	 DWORD PTR [eax+4], 0

; 1053 :         _Ptr = _Al.allocate(1);

  00010	8b 45 f8	 mov	 eax, DWORD PTR _this$[ebp]
  00013	8b 00		 mov	 eax, DWORD PTR [eax]
  00015	89 45 ec	 mov	 DWORD PTR _this$[ebp], eax

; 56   :     constexpr bool _Overflow_is_possible = _Ty_size > 1;

  00018	c6 45 ff 01	 mov	 BYTE PTR __Overflow_is_possible$4[ebp], 1

; 57   : 
; 58   :     if _CONSTEXPR_IF (_Overflow_is_possible) {
; 59   :         constexpr size_t _Max_possible = static_cast<size_t>(-1) / _Ty_size;

  0001c	c7 45 e8 aa aa
	aa 0a		 mov	 DWORD PTR __Max_possible$1[ebp], 178956970 ; 0aaaaaaaH

; 60   :         if (_Count > _Max_possible) {

  00023	33 c0		 xor	 eax, eax
  00025	40		 inc	 eax
  00026	3d aa aa aa 0a	 cmp	 eax, 178956970		; 0aaaaaaaH
  0002b	76 05		 jbe	 SHORT $LN6@Allocate

; 61   :             _Throw_bad_array_new_length(); // multiply overflow

  0002d	e8 00 00 00 00	 call	 ?_Throw_bad_array_new_length@std@@YAXXZ ; std::_Throw_bad_array_new_length
$LN6@Allocate:

; 62   :         }
; 63   :     }
; 64   : 
; 65   :     return _Count * _Ty_size;

  00032	33 c0		 xor	 eax, eax
  00034	40		 inc	 eax
  00035	6b c0 18	 imul	 eax, eax, 24
  00038	89 45 f4	 mov	 DWORD PTR $T3[ebp], eax

; 814  :         return static_cast<_Ty*>(_Allocate<_New_alignof<_Ty>>(_Get_size_of_n<sizeof(_Ty)>(_Count)));

  0003b	ff 75 f4	 push	 DWORD PTR $T3[ebp]
  0003e	e8 00 00 00 00	 call	 ??$_Allocate@$07U_Default_allocate_traits@std@@$0A@@std@@YAPAXI@Z ; std::_Allocate<8,std::_Default_allocate_traits,0>
  00043	59		 pop	 ecx
  00044	89 45 f0	 mov	 DWORD PTR $T2[ebp], eax

; 1053 :         _Ptr = _Al.allocate(1);

  00047	8b 45 f8	 mov	 eax, DWORD PTR _this$[ebp]
  0004a	8b 4d f0	 mov	 ecx, DWORD PTR $T2[ebp]
  0004d	89 48 04	 mov	 DWORD PTR [eax+4], ecx
$LN9@Allocate:

; 1054 :     }

  00050	c9		 leave
  00051	c3		 ret	 0
?_Allocate@?$_Alloc_construct_ptr@V?$allocator@U?$_Tree_node@U?$pair@$$CBKPAVCLight@@@std@@PAX@std@@@std@@@std@@QAEXXZ ENDP ; std::_Alloc_construct_ptr<std::allocator<std::_Tree_node<std::pair<unsigned long const ,CLight *>,void *> > >::_Allocate
_TEXT	ENDS
; Function compile flags: /Odspy
; File C:\Program Files (x86)\Microsoft Visual Studio\2019\Community\VC\Tools\MSVC\14.28.29333\include\xtree
; File C:\Program Files (x86)\Microsoft Visual Studio\2019\Community\VC\Tools\MSVC\14.28.29333\include\xstddef
; File C:\Program Files (x86)\Microsoft Visual Studio\2019\Community\VC\Tools\MSVC\14.28.29333\include\xtree
; File C:\Program Files (x86)\Microsoft Visual Studio\2019\Community\VC\Tools\MSVC\14.28.29333\include\xmemory
; File C:\Program Files (x86)\Microsoft Visual Studio\2019\Community\VC\Tools\MSVC\14.28.29333\include\xtree
; File C:\Program Files (x86)\Microsoft Visual Studio\2019\Community\VC\Tools\MSVC\14.28.29333\include\xstddef
; File C:\Program Files (x86)\Microsoft Visual Studio\2019\Community\VC\Tools\MSVC\14.28.29333\include\xtree
;	COMDAT ??$_Find_lower_bound@K@?$_Tree@V?$_Tmap_traits@KPAVCLight@@U?$less@K@std@@V?$allocator@U?$pair@$$CBKPAVCLight@@@std@@@3@$0A@@std@@@std@@IBE?AU?$_Tree_find_result@PAU?$_Tree_node@U?$pair@$$CBKPAVCLight@@@std@@PAX@std@@@1@ABK@Z
_TEXT	SEGMENT
__Result$ = -40						; size = 12
$T1 = -28						; size = 4
$T2 = -24						; size = 4
$T3 = -20						; size = 4
tv64 = -16						; size = 4
_this$ = -12						; size = 4
__Scary$ = -8						; size = 4
__Trynode$ = -4						; size = 4
___$ReturnUdt$ = 8					; size = 4
__Keyval$ = 12						; size = 4
??$_Find_lower_bound@K@?$_Tree@V?$_Tmap_traits@KPAVCLight@@U?$less@K@std@@V?$allocator@U?$pair@$$CBKPAVCLight@@@std@@@3@$0A@@std@@@std@@IBE?AU?$_Tree_find_result@PAU?$_Tree_node@U?$pair@$$CBKPAVCLight@@@std@@PAX@std@@@1@ABK@Z PROC ; std::_Tree<std::_Tmap_traits<unsigned long,CLight *,std::less<unsigned long>,std::allocator<std::pair<unsigned long const ,CLight *> >,0> >::_Find_lower_bound<unsigned long>, COMDAT
; _this$ = ecx

; 1699 :     _Tree_find_result<_Nodeptr> _Find_lower_bound(const _Keyty& _Keyval) const {

  00000	55		 push	 ebp
  00001	8b ec		 mov	 ebp, esp
  00003	83 ec 28	 sub	 esp, 40			; 00000028H
  00006	56		 push	 esi
  00007	57		 push	 edi
  00008	89 4d f4	 mov	 DWORD PTR _this$[ebp], ecx

; 2051 :         return _STD addressof(_Mypair._Myval2._Myval2);

  0000b	8b 45 f4	 mov	 eax, DWORD PTR _this$[ebp]
; File C:\Program Files (x86)\Microsoft Visual Studio\2019\Community\VC\Tools\MSVC\14.28.29333\include\xstddef

; 275  :     return __builtin_addressof(_Val);

  0000e	89 45 ec	 mov	 DWORD PTR $T3[ebp], eax
; File C:\Program Files (x86)\Microsoft Visual Studio\2019\Community\VC\Tools\MSVC\14.28.29333\include\xtree

; 2051 :         return _STD addressof(_Mypair._Myval2._Myval2);

  00011	8b 45 ec	 mov	 eax, DWORD PTR $T3[ebp]
  00014	89 45 f8	 mov	 DWORD PTR __Scary$[ebp], eax

; 1700 :         const auto _Scary = _Get_scary();
; 1701 :         _Tree_find_result<_Nodeptr> _Result{{_Scary->_Myhead->_Parent, _Tree_child::_Right}, _Scary->_Myhead};

  00017	8b 45 f8	 mov	 eax, DWORD PTR __Scary$[ebp]
  0001a	8b 00		 mov	 eax, DWORD PTR [eax]
  0001c	8b 40 04	 mov	 eax, DWORD PTR [eax+4]
  0001f	89 45 d8	 mov	 DWORD PTR __Result$[ebp], eax
  00022	83 65 dc 00	 and	 DWORD PTR __Result$[ebp+4], 0
  00026	8b 45 f8	 mov	 eax, DWORD PTR __Scary$[ebp]
  00029	8b 00		 mov	 eax, DWORD PTR [eax]
  0002b	89 45 e0	 mov	 DWORD PTR __Result$[ebp+8], eax

; 1702 :         _Nodeptr _Trynode = _Result._Location._Parent;

  0002e	8b 45 d8	 mov	 eax, DWORD PTR __Result$[ebp]
  00031	89 45 fc	 mov	 DWORD PTR __Trynode$[ebp], eax
$LN2@Find_lower:

; 1703 :         while (!_Trynode->_Isnil) {

  00034	8b 45 fc	 mov	 eax, DWORD PTR __Trynode$[ebp]
  00037	0f be 40 0d	 movsx	 eax, BYTE PTR [eax+13]
  0003b	85 c0		 test	 eax, eax
  0003d	75 5a		 jne	 SHORT $LN3@Find_lower

; 1704 :             _Result._Location._Parent = _Trynode;

  0003f	8b 45 fc	 mov	 eax, DWORD PTR __Trynode$[ebp]
  00042	89 45 d8	 mov	 DWORD PTR __Result$[ebp], eax

; 2035 :         return _Mypair._Get_first();

  00045	8b 45 f4	 mov	 eax, DWORD PTR _this$[ebp]
; File C:\Program Files (x86)\Microsoft Visual Studio\2019\Community\VC\Tools\MSVC\14.28.29333\include\xmemory

; 1351 :         return *this;

  00048	89 45 e8	 mov	 DWORD PTR $T2[ebp], eax
; File C:\Program Files (x86)\Microsoft Visual Studio\2019\Community\VC\Tools\MSVC\14.28.29333\include\xtree

; 2035 :         return _Mypair._Get_first();

  0004b	8b 45 e8	 mov	 eax, DWORD PTR $T2[ebp]
  0004e	89 45 e4	 mov	 DWORD PTR $T1[ebp], eax
; File C:\Program Files (x86)\Microsoft Visual Studio\2019\Community\VC\Tools\MSVC\14.28.29333\include\xstddef

; 127  :         return _Left < _Right;

  00051	8b 45 fc	 mov	 eax, DWORD PTR __Trynode$[ebp]
  00054	8b 4d 0c	 mov	 ecx, DWORD PTR __Keyval$[ebp]
  00057	8b 40 10	 mov	 eax, DWORD PTR [eax+16]
  0005a	3b 01		 cmp	 eax, DWORD PTR [ecx]
  0005c	73 09		 jae	 SHORT $LN23@Find_lower
  0005e	c7 45 f0 01 00
	00 00		 mov	 DWORD PTR tv64[ebp], 1
  00065	eb 04		 jmp	 SHORT $LN21@Find_lower
$LN23@Find_lower:
  00067	83 65 f0 00	 and	 DWORD PTR tv64[ebp], 0
$LN21@Find_lower:
; File C:\Program Files (x86)\Microsoft Visual Studio\2019\Community\VC\Tools\MSVC\14.28.29333\include\xtree

; 1705 :             if (_DEBUG_LT_PRED(_Getcomp(), _Traits::_Kfn(_Trynode->_Myval), _Keyval)) {

  0006b	0f b6 45 f0	 movzx	 eax, BYTE PTR tv64[ebp]
  0006f	85 c0		 test	 eax, eax
  00071	74 0f		 je	 SHORT $LN4@Find_lower

; 1706 :                 _Result._Location._Child = _Tree_child::_Right;

  00073	83 65 dc 00	 and	 DWORD PTR __Result$[ebp+4], 0

; 1707 :                 _Trynode                 = _Trynode->_Right;

  00077	8b 45 fc	 mov	 eax, DWORD PTR __Trynode$[ebp]
  0007a	8b 40 08	 mov	 eax, DWORD PTR [eax+8]
  0007d	89 45 fc	 mov	 DWORD PTR __Trynode$[ebp], eax

; 1708 :             } else {

  00080	eb 15		 jmp	 SHORT $LN5@Find_lower
$LN4@Find_lower:

; 1709 :                 _Result._Location._Child = _Tree_child::_Left;

  00082	c7 45 dc 01 00
	00 00		 mov	 DWORD PTR __Result$[ebp+4], 1

; 1710 :                 _Result._Bound           = _Trynode;

  00089	8b 45 fc	 mov	 eax, DWORD PTR __Trynode$[ebp]
  0008c	89 45 e0	 mov	 DWORD PTR __Result$[ebp+8], eax

; 1711 :                 _Trynode                 = _Trynode->_Left;

  0008f	8b 45 fc	 mov	 eax, DWORD PTR __Trynode$[ebp]
  00092	8b 00		 mov	 eax, DWORD PTR [eax]
  00094	89 45 fc	 mov	 DWORD PTR __Trynode$[ebp], eax
$LN5@Find_lower:

; 1712 :             }
; 1713 :         }

  00097	eb 9b		 jmp	 SHORT $LN2@Find_lower
$LN3@Find_lower:

; 1714 : 
; 1715 :         return _Result;

  00099	8d 75 d8	 lea	 esi, DWORD PTR __Result$[ebp]
  0009c	8b 7d 08	 mov	 edi, DWORD PTR ___$ReturnUdt$[ebp]
  0009f	a5		 movsd
  000a0	a5		 movsd
  000a1	a5		 movsd
  000a2	8b 45 08	 mov	 eax, DWORD PTR ___$ReturnUdt$[ebp]

; 1716 :     }

  000a5	5f		 pop	 edi
  000a6	5e		 pop	 esi
  000a7	c9		 leave
  000a8	c2 08 00	 ret	 8
??$_Find_lower_bound@K@?$_Tree@V?$_Tmap_traits@KPAVCLight@@U?$less@K@std@@V?$allocator@U?$pair@$$CBKPAVCLight@@@std@@@3@$0A@@std@@@std@@IBE?AU?$_Tree_find_result@PAU?$_Tree_node@U?$pair@$$CBKPAVCLight@@@std@@PAX@std@@@1@ABK@Z ENDP ; std::_Tree<std::_Tmap_traits<unsigned long,CLight *,std::less<unsigned long>,std::allocator<std::pair<unsigned long const ,CLight *> >,0> >::_Find_lower_bound<unsigned long>
_TEXT	ENDS
; Function compile flags: /Odspy
; File C:\Program Files (x86)\Microsoft Visual Studio\2019\Community\VC\Tools\MSVC\14.28.29333\include\algorithm
;	COMDAT ??$_Sort_unchecked@PAPAVCLight@@ULightComp@@@std@@YAXPAPAVCLight@@0HULightComp@@@Z
_TEXT	SEGMENT
__Mid$1 = -12						; size = 8
__Last$ = -4						; size = 4
__First$ = 8						; size = 4
__Last$ = 12						; size = 4
__Ideal$ = 16						; size = 4
__Pred$ = 20						; size = 1
??$_Sort_unchecked@PAPAVCLight@@ULightComp@@@std@@YAXPAPAVCLight@@0HULightComp@@@Z PROC ; std::_Sort_unchecked<CLight * *,LightComp>, COMDAT

; 7537 : _CONSTEXPR20 void _Sort_unchecked(_RanIt _First, _RanIt _Last, _Iter_diff_t<_RanIt> _Ideal, _Pr _Pred) {

  00000	55		 push	 ebp
  00001	8b ec		 mov	 ebp, esp
  00003	83 ec 0c	 sub	 esp, 12			; 0000000cH
$LN4@Sort_unche:

; 7538 :     // order [_First, _Last)
; 7539 :     for (;;) {
; 7540 :         if (_Last - _First <= _ISORT_MAX) { // small

  00006	8b 45 0c	 mov	 eax, DWORD PTR __Last$[ebp]
  00009	2b 45 08	 sub	 eax, DWORD PTR __First$[ebp]
  0000c	c1 f8 02	 sar	 eax, 2
  0000f	83 f8 20	 cmp	 eax, 32			; 00000020H
  00012	7f 16		 jg	 SHORT $LN5@Sort_unche

; 7541 :             _Insertion_sort_unchecked(_First, _Last, _Pred);

  00014	ff 75 14	 push	 DWORD PTR __Pred$[ebp]
  00017	ff 75 0c	 push	 DWORD PTR __Last$[ebp]
  0001a	ff 75 08	 push	 DWORD PTR __First$[ebp]
  0001d	e8 00 00 00 00	 call	 ??$_Insertion_sort_unchecked@PAPAVCLight@@ULightComp@@@std@@YAPAPAVCLight@@QAPAV1@0ULightComp@@@Z ; std::_Insertion_sort_unchecked<CLight * *,LightComp>
  00022	83 c4 0c	 add	 esp, 12			; 0000000cH

; 7542 :             return;

  00025	e9 c1 00 00 00	 jmp	 $LN1@Sort_unche
$LN5@Sort_unche:

; 7543 :         }
; 7544 : 
; 7545 :         if (_Ideal <= 0) { // heap sort if too many divisions

  0002a	83 7d 10 00	 cmp	 DWORD PTR __Ideal$[ebp], 0
  0002e	7f 45		 jg	 SHORT $LN6@Sort_unche

; 7546 :             _Make_heap_unchecked(_First, _Last, _Pred);

  00030	ff 75 14	 push	 DWORD PTR __Pred$[ebp]
  00033	ff 75 0c	 push	 DWORD PTR __Last$[ebp]
  00036	ff 75 08	 push	 DWORD PTR __First$[ebp]
  00039	e8 00 00 00 00	 call	 ??$_Make_heap_unchecked@PAPAVCLight@@ULightComp@@@std@@YAXPAPAVCLight@@0ULightComp@@@Z ; std::_Make_heap_unchecked<CLight * *,LightComp>
  0003e	83 c4 0c	 add	 esp, 12			; 0000000cH

