; Listing generated by Microsoft (R) Optimizing Compiler Version 19.28.29335.0 

	TITLE	D:\Metin2 Server Files\mainline\SRC_2014\Metin2Client\EterLib\GrpMarkInstance.cpp
	.686P
	.XMM
	include listing.inc
	.model	flat

INCLUDELIB LIBCMT
INCLUDELIB OLDNAMES

PUBLIC	??_H@YGXPAXIIP6EPAX0@Z@Z			; `vector constructor iterator'
PUBLIC	??0exception@std@@QAE@ABV01@@Z			; std::exception::exception
PUBLIC	?what@exception@std@@UBEPBDXZ			; std::exception::what
PUBLIC	??_Gexception@std@@UAEPAXI@Z			; std::exception::`scalar deleting destructor'
PUBLIC	??0bad_alloc@std@@QAE@ABV01@@Z			; std::bad_alloc::bad_alloc
PUBLIC	??_Gbad_alloc@std@@UAEPAXI@Z			; std::bad_alloc::`scalar deleting destructor'
PUBLIC	??0bad_array_new_length@std@@QAE@XZ		; std::bad_array_new_length::bad_array_new_length
PUBLIC	??1bad_array_new_length@std@@UAE@XZ		; std::bad_array_new_length::~bad_array_new_length
PUBLIC	??0bad_array_new_length@std@@QAE@ABV01@@Z	; std::bad_array_new_length::bad_array_new_length
PUBLIC	??_Gbad_array_new_length@std@@UAEPAXI@Z		; std::bad_array_new_length::`scalar deleting destructor'
PUBLIC	?_Throw_bad_array_new_length@std@@YAXXZ		; std::_Throw_bad_array_new_length
PUBLIC	?_Adjust_manually_vector_aligned@std@@YAXAAPAXAAI@Z ; std::_Adjust_manually_vector_aligned
PUBLIC	?_Xlen_string@std@@YAXXZ			; std::_Xlen_string
PUBLIC	?_Myptr@?$_String_val@U?$_Simple_types@D@std@@@std@@QAEPADXZ ; std::_String_val<std::_Simple_types<char> >::_Myptr
PUBLIC	??0?$basic_string@DU?$char_traits@D@std@@V?$allocator@D@2@@std@@QAE@XZ ; std::basic_string<char,std::char_traits<char>,std::allocator<char> >::basic_string<char,std::char_traits<char>,std::allocator<char> >
PUBLIC	??1?$basic_string@DU?$char_traits@D@std@@V?$allocator@D@2@@std@@QAE@XZ ; std::basic_string<char,std::char_traits<char>,std::allocator<char> >::~basic_string<char,std::char_traits<char>,std::allocator<char> >
PUBLIC	?assign@?$basic_string@DU?$char_traits@D@std@@V?$allocator@D@2@@std@@QAEAAV12@QBDI@Z ; std::basic_string<char,std::char_traits<char>,std::allocator<char> >::assign
PUBLIC	?c_str@?$basic_string@DU?$char_traits@D@std@@V?$allocator@D@2@@std@@QBEPBDXZ ; std::basic_string<char,std::char_traits<char>,std::allocator<char> >::c_str
PUBLIC	?max_size@?$basic_string@DU?$char_traits@D@std@@V?$allocator@D@2@@std@@QBEIXZ ; std::basic_string<char,std::char_traits<char>,std::allocator<char> >::max_size
PUBLIC	?_Calculate_growth@?$basic_string@DU?$char_traits@D@std@@V?$allocator@D@2@@std@@ABEII@Z ; std::basic_string<char,std::char_traits<char>,std::allocator<char> >::_Calculate_growth
PUBLIC	?_Tidy_init@?$basic_string@DU?$char_traits@D@std@@V?$allocator@D@2@@std@@AAEXXZ ; std::basic_string<char,std::char_traits<char>,std::allocator<char> >::_Tidy_init
PUBLIC	?_Tidy_deallocate@?$basic_string@DU?$char_traits@D@std@@V?$allocator@D@2@@std@@AAEXXZ ; std::basic_string<char,std::char_traits<char>,std::allocator<char> >::_Tidy_deallocate
PUBLIC	??$_Destroy_in_place@PAD@std@@YAXAAPAD@Z	; std::_Destroy_in_place<char *>
PUBLIC	??$_Reallocate_for@V<lambda_9366063389c5f42a00a5088cf24e69de>@@PBD@?$basic_string@DU?$char_traits@D@std@@V?$allocator@D@2@@std@@AAEAAV01@IV<lambda_9366063389c5f42a00a5088cf24e69de>@@PBD@Z ; std::basic_string<char,std::char_traits<char>,std::allocator<char> >::_Reallocate_for<<lambda_9366063389c5f42a00a5088cf24e69de>,char const *>
PUBLIC	??$_Construct_in_place@PADABQAD@std@@YAXAAPADABQAD@Z ; std::_Construct_in_place<char *,char * const &>
PUBLIC	??$_Deallocate@$07$0A@@std@@YAXPAXI@Z		; std::_Deallocate<8,0>
PUBLIC	??$_Allocate@$07U_Default_allocate_traits@std@@$0A@@std@@YAPAXI@Z ; std::_Allocate<8,std::_Default_allocate_traits,0>
PUBLIC	??$_Allocate_manually_vector_aligned@U_Default_allocate_traits@std@@@std@@YAPAXI@Z ; std::_Allocate_manually_vector_aligned<std::_Default_allocate_traits>
PUBLIC	?Type@CGraphicMarkInstance@@SAKXZ		; CGraphicMarkInstance::Type
PUBLIC	?IsType@CGraphicMarkInstance@@QAEHK@Z		; CGraphicMarkInstance::IsType
PUBLIC	?SetImageFileName@CGraphicMarkInstance@@QAEXPBD@Z ; CGraphicMarkInstance::SetImageFileName
PUBLIC	?GetImageFileName@CGraphicMarkInstance@@QAEABV?$basic_string@DU?$char_traits@D@std@@V?$allocator@D@2@@std@@XZ ; CGraphicMarkInstance::GetImageFileName
PUBLIC	??0CGraphicMarkInstance@@QAE@XZ			; CGraphicMarkInstance::CGraphicMarkInstance
PUBLIC	??1CGraphicMarkInstance@@UAE@XZ			; CGraphicMarkInstance::~CGraphicMarkInstance
PUBLIC	?Destroy@CGraphicMarkInstance@@QAEXXZ		; CGraphicMarkInstance::Destroy
PUBLIC	?Render@CGraphicMarkInstance@@QAEXXZ		; CGraphicMarkInstance::Render
PUBLIC	?SetDiffuseColor@CGraphicMarkInstance@@QAEXMMMM@Z ; CGraphicMarkInstance::SetDiffuseColor
PUBLIC	?SetPosition@CGraphicMarkInstance@@QAEXMM@Z	; CGraphicMarkInstance::SetPosition
PUBLIC	?SetIndex@CGraphicMarkInstance@@QAEXI@Z		; CGraphicMarkInstance::SetIndex
PUBLIC	?SetScale@CGraphicMarkInstance@@QAEXM@Z		; CGraphicMarkInstance::SetScale
PUBLIC	?Load@CGraphicMarkInstance@@QAEXXZ		; CGraphicMarkInstance::Load
PUBLIC	?IsEmpty@CGraphicMarkInstance@@QBE_NXZ		; CGraphicMarkInstance::IsEmpty
PUBLIC	?GetWidth@CGraphicMarkInstance@@QAEHXZ		; CGraphicMarkInstance::GetWidth
PUBLIC	?GetHeight@CGraphicMarkInstance@@QAEHXZ		; CGraphicMarkInstance::GetHeight
PUBLIC	?GetTexturePointer@CGraphicMarkInstance@@QAEPAVCGraphicTexture@@XZ ; CGraphicMarkInstance::GetTexturePointer
PUBLIC	?GetTextureReference@CGraphicMarkInstance@@QBEABVCGraphicTexture@@XZ ; CGraphicMarkInstance::GetTextureReference
PUBLIC	?GetGraphicImagePointer@CGraphicMarkInstance@@QAEPAVCGraphicImage@@XZ ; CGraphicMarkInstance::GetGraphicImagePointer
PUBLIC	??8CGraphicMarkInstance@@QBE_NABV0@@Z		; CGraphicMarkInstance::operator==
PUBLIC	?Initialize@CGraphicMarkInstance@@IAEXXZ	; CGraphicMarkInstance::Initialize
PUBLIC	?OnRender@CGraphicMarkInstance@@MAEXXZ		; CGraphicMarkInstance::OnRender
PUBLIC	?OnSetImagePointer@CGraphicMarkInstance@@MAEXXZ	; CGraphicMarkInstance::OnSetImagePointer
PUBLIC	?OnIsType@CGraphicMarkInstance@@MAEHK@Z		; CGraphicMarkInstance::OnIsType
PUBLIC	?SetImagePointer@CGraphicMarkInstance@@IAEXPAVCGraphicImage@@@Z ; CGraphicMarkInstance::SetImagePointer
PUBLIC	??1?$CRef@VCGraphicImage@@@@QAE@XZ		; CRef<CGraphicImage>::~CRef<CGraphicImage>
PUBLIC	?SetPointer@?$CRef@VCGraphicImage@@@@QAEXPAVCReferenceObject@@@Z ; CRef<CGraphicImage>::SetPointer
PUBLIC	?CreateSystem@CGraphicMarkInstance@@SAXI@Z	; CGraphicMarkInstance::CreateSystem
PUBLIC	?DestroySystem@CGraphicMarkInstance@@SAXXZ	; CGraphicMarkInstance::DestroySystem
PUBLIC	?New@CGraphicMarkInstance@@SAPAV1@XZ		; CGraphicMarkInstance::New
PUBLIC	?Delete@CGraphicMarkInstance@@SAXPAV1@@Z	; CGraphicMarkInstance::Delete
PUBLIC	??_GCGraphicMarkInstance@@UAEPAXI@Z		; CGraphicMarkInstance::`scalar deleting destructor'
PUBLIC	??0?$CDynamicPool@VCGraphicMarkInstance@@@@QAE@XZ ; CDynamicPool<CGraphicMarkInstance>::CDynamicPool<CGraphicMarkInstance>
PUBLIC	??1?$CDynamicPool@VCGraphicMarkInstance@@@@UAE@XZ ; CDynamicPool<CGraphicMarkInstance>::~CDynamicPool<CGraphicMarkInstance>
PUBLIC	?Destroy@?$CDynamicPool@VCGraphicMarkInstance@@@@QAEXXZ ; CDynamicPool<CGraphicMarkInstance>::Destroy
PUBLIC	?Alloc@?$CDynamicPool@VCGraphicMarkInstance@@@@QAEPAVCGraphicMarkInstance@@XZ ; CDynamicPool<CGraphicMarkInstance>::Alloc
PUBLIC	?Delete@?$CDynamicPool@VCGraphicMarkInstance@@@@KAXPAVCGraphicMarkInstance@@@Z ; CDynamicPool<CGraphicMarkInstance>::Delete
PUBLIC	?deallocate@?$allocator@PAVCGraphicMarkInstance@@@std@@QAEXQAPAVCGraphicMarkInstance@@I@Z ; std::allocator<CGraphicMarkInstance *>::deallocate
PUBLIC	?_Reallocate_exactly@?$vector@PAVCGraphicMarkInstance@@V?$allocator@PAVCGraphicMarkInstance@@@std@@@std@@AAEXI@Z ; std::vector<CGraphicMarkInstance *,std::allocator<CGraphicMarkInstance *> >::_Reallocate_exactly
PUBLIC	?reserve@?$vector@PAVCGraphicMarkInstance@@V?$allocator@PAVCGraphicMarkInstance@@@std@@@std@@QAEXI@Z ; std::vector<CGraphicMarkInstance *,std::allocator<CGraphicMarkInstance *> >::reserve
PUBLIC	?clear@?$vector@PAVCGraphicMarkInstance@@V?$allocator@PAVCGraphicMarkInstance@@@std@@@std@@QAEXXZ ; std::vector<CGraphicMarkInstance *,std::allocator<CGraphicMarkInstance *> >::clear
PUBLIC	?_Destroy@?$vector@PAVCGraphicMarkInstance@@V?$allocator@PAVCGraphicMarkInstance@@@std@@@std@@AAEXPAPAVCGraphicMarkInstance@@0@Z ; std::vector<CGraphicMarkInstance *,std::allocator<CGraphicMarkInstance *> >::_Destroy
PUBLIC	?_Calculate_growth@?$vector@PAVCGraphicMarkInstance@@V?$allocator@PAVCGraphicMarkInstance@@@std@@@std@@ABEII@Z ; std::vector<CGraphicMarkInstance *,std::allocator<CGraphicMarkInstance *> >::_Calculate_growth
PUBLIC	?_Change_array@?$vector@PAVCGraphicMarkInstance@@V?$allocator@PAVCGraphicMarkInstance@@@std@@@std@@AAEXQAPAVCGraphicMarkInstance@@II@Z ; std::vector<CGraphicMarkInstance *,std::allocator<CGraphicMarkInstance *> >::_Change_array
PUBLIC	?_Tidy@?$vector@PAVCGraphicMarkInstance@@V?$allocator@PAVCGraphicMarkInstance@@@std@@@std@@AAEXXZ ; std::vector<CGraphicMarkInstance *,std::allocator<CGraphicMarkInstance *> >::_Tidy
PUBLIC	?_Xlength@?$vector@PAVCGraphicMarkInstance@@V?$allocator@PAVCGraphicMarkInstance@@@std@@@std@@CAXXZ ; std::vector<CGraphicMarkInstance *,std::allocator<CGraphicMarkInstance *> >::_Xlength
PUBLIC	?_Getal@?$vector@PAVCGraphicMarkInstance@@V?$allocator@PAVCGraphicMarkInstance@@@std@@@std@@AAEAAV?$allocator@PAVCGraphicMarkInstance@@@2@XZ ; std::vector<CGraphicMarkInstance *,std::allocator<CGraphicMarkInstance *> >::_Getal
PUBLIC	??_G?$CDynamicPool@VCGraphicMarkInstance@@@@UAEPAXI@Z ; CDynamicPool<CGraphicMarkInstance>::`scalar deleting destructor'
PUBLIC	??$for_each@V?$_Vector_iterator@V?$_Vector_val@U?$_Simple_types@PAVCGraphicMarkInstance@@@std@@@std@@@std@@P6AXPAVCGraphicMarkInstance@@@Z@std@@YAP6AXPAVCGraphicMarkInstance@@@ZV?$_Vector_iterator@V?$_Vector_val@U?$_Simple_types@PAVCGraphicMarkInstance@@@std@@@std@@@0@1P6AX0@Z@Z ; std::for_each<std::_Vector_iterator<std::_Vector_val<std::_Simple_types<CGraphicMarkInstance *> > >,void (__cdecl*)(CGraphicMarkInstance *)>
PUBLIC	??$emplace_back@ABQAVCGraphicMarkInstance@@@?$vector@PAVCGraphicMarkInstance@@V?$allocator@PAVCGraphicMarkInstance@@@std@@@std@@QAEXABQAVCGraphicMarkInstance@@@Z ; std::vector<CGraphicMarkInstance *,std::allocator<CGraphicMarkInstance *> >::emplace_back<CGraphicMarkInstance * const &>
PUBLIC	??$_Emplace_back_with_unused_capacity@ABQAVCGraphicMarkInstance@@@?$vector@PAVCGraphicMarkInstance@@V?$allocator@PAVCGraphicMarkInstance@@@std@@@std@@AAEXABQAVCGraphicMarkInstance@@@Z ; std::vector<CGraphicMarkInstance *,std::allocator<CGraphicMarkInstance *> >::_Emplace_back_with_unused_capacity<CGraphicMarkInstance * const &>
PUBLIC	??$_Emplace_reallocate@ABQAVCGraphicMarkInstance@@@?$vector@PAVCGraphicMarkInstance@@V?$allocator@PAVCGraphicMarkInstance@@@std@@@std@@QAEPAPAVCGraphicMarkInstance@@QAPAV2@ABQAV2@@Z ; std::vector<CGraphicMarkInstance *,std::allocator<CGraphicMarkInstance *> >::_Emplace_reallocate<CGraphicMarkInstance * const &>
PUBLIC	??$_Destroy_range@V?$allocator@PAVCGraphicMarkInstance@@@std@@@std@@YAXPAPAVCGraphicMarkInstance@@QAPAV1@AAV?$allocator@PAVCGraphicMarkInstance@@@0@@Z ; std::_Destroy_range<std::allocator<CGraphicMarkInstance *> >
PUBLIC	??$_Uninitialized_move@PAPAVCGraphicMarkInstance@@V?$allocator@PAVCGraphicMarkInstance@@@std@@@std@@YAPAPAVCGraphicMarkInstance@@QAPAV1@0PAPAV1@AAV?$allocator@PAVCGraphicMarkInstance@@@0@@Z ; std::_Uninitialized_move<CGraphicMarkInstance * *,std::allocator<CGraphicMarkInstance *> >
PUBLIC	??$_Copy_memmove@PAPAVCGraphicMarkInstance@@PAPAV1@@std@@YAPAPAVCGraphicMarkInstance@@PAPAV1@00@Z ; std::_Copy_memmove<CGraphicMarkInstance * *,CGraphicMarkInstance * *>
PUBLIC	??_7exception@std@@6B@				; std::exception::`vftable'
PUBLIC	??_C@_0BC@EOODALEL@Unknown?5exception@		; `string'
PUBLIC	??_7bad_alloc@std@@6B@				; std::bad_alloc::`vftable'
PUBLIC	??_7bad_array_new_length@std@@6B@		; std::bad_array_new_length::`vftable'
PUBLIC	??_C@_0BF@KINCDENJ@bad?5array?5new?5length@	; `string'
PUBLIC	__TI3?AVbad_array_new_length@std@@
PUBLIC	__CTA3?AVbad_array_new_length@std@@
PUBLIC	??_R0?AVbad_array_new_length@std@@@8		; std::bad_array_new_length `RTTI Type Descriptor'
PUBLIC	__CT??_R0?AVbad_array_new_length@std@@@8??0bad_array_new_length@std@@QAE@ABV01@@Z12
PUBLIC	??_R0?AVbad_alloc@std@@@8			; std::bad_alloc `RTTI Type Descriptor'
PUBLIC	__CT??_R0?AVbad_alloc@std@@@8??0bad_alloc@std@@QAE@ABV01@@Z12
PUBLIC	??_R0?AVexception@std@@@8			; std::exception `RTTI Type Descriptor'
PUBLIC	__CT??_R0?AVexception@std@@@8??0exception@std@@QAE@ABV01@@Z12
PUBLIC	??_C@_0BA@JFNIOLAK@string?5too?5long@		; `string'
PUBLIC	??_R4exception@std@@6B@				; std::exception::`RTTI Complete Object Locator'
PUBLIC	??_R3exception@std@@8				; std::exception::`RTTI Class Hierarchy Descriptor'
PUBLIC	??_R2exception@std@@8				; std::exception::`RTTI Base Class Array'
PUBLIC	??_R1A@?0A@EA@exception@std@@8			; std::exception::`RTTI Base Class Descriptor at (0,-1,0,64)'
PUBLIC	??_R4bad_alloc@std@@6B@				; std::bad_alloc::`RTTI Complete Object Locator'
PUBLIC	??_R3bad_alloc@std@@8				; std::bad_alloc::`RTTI Class Hierarchy Descriptor'
PUBLIC	??_R2bad_alloc@std@@8				; std::bad_alloc::`RTTI Base Class Array'
PUBLIC	??_R1A@?0A@EA@bad_alloc@std@@8			; std::bad_alloc::`RTTI Base Class Descriptor at (0,-1,0,64)'
PUBLIC	??_R4bad_array_new_length@std@@6B@		; std::bad_array_new_length::`RTTI Complete Object Locator'
PUBLIC	??_R3bad_array_new_length@std@@8		; std::bad_array_new_length::`RTTI Class Hierarchy Descriptor'
PUBLIC	??_R2bad_array_new_length@std@@8		; std::bad_array_new_length::`RTTI Base Class Array'
PUBLIC	??_R1A@?0A@EA@bad_array_new_length@std@@8	; std::bad_array_new_length::`RTTI Base Class Descriptor at (0,-1,0,64)'
PUBLIC	?ms_kPool@CGraphicMarkInstance@@2V?$CDynamicPool@VCGraphicMarkInstance@@@@A ; CGraphicMarkInstance::ms_kPool
PUBLIC	??_7CGraphicMarkInstance@@6B@			; CGraphicMarkInstance::`vftable'
PUBLIC	?ms_singleton@?$CSingleton@VCStateManager@@@@0PAVCStateManager@@A ; CSingleton<CStateManager>::ms_singleton
PUBLIC	?ms_singleton@?$CSingleton@VCResourceManager@@@@0PAVCResourceManager@@A ; CSingleton<CResourceManager>::ms_singleton
PUBLIC	??_7?$CDynamicPool@VCGraphicMarkInstance@@@@6B@	; CDynamicPool<CGraphicMarkInstance>::`vftable'
PUBLIC	??_C@_0CM@NEBKKKDH@CGraphicMarkinstance?3?3Load?5?9?5?$FL?$CF@ ; `string'
PUBLIC	??_C@_0BF@BKIBHNLF@CGraphicMarkInstance@	; `string'
PUBLIC	??_C@_0BA@FOIKENOD@vector?5too?5long@		; `string'
PUBLIC	??_R4CGraphicMarkInstance@@6B@			; CGraphicMarkInstance::`RTTI Complete Object Locator'
PUBLIC	??_R0?AVCGraphicMarkInstance@@@8		; CGraphicMarkInstance `RTTI Type Descriptor'
PUBLIC	??_R3CGraphicMarkInstance@@8			; CGraphicMarkInstance::`RTTI Class Hierarchy Descriptor'
PUBLIC	??_R2CGraphicMarkInstance@@8			; CGraphicMarkInstance::`RTTI Base Class Array'
PUBLIC	??_R1A@?0A@EA@CGraphicMarkInstance@@8		; CGraphicMarkInstance::`RTTI Base Class Descriptor at (0,-1,0,64)'
PUBLIC	??_R4?$CDynamicPool@VCGraphicMarkInstance@@@@6B@ ; CDynamicPool<CGraphicMarkInstance>::`RTTI Complete Object Locator'
PUBLIC	??_R0?AV?$CDynamicPool@VCGraphicMarkInstance@@@@@8 ; CDynamicPool<CGraphicMarkInstance> `RTTI Type Descriptor'
PUBLIC	??_R3?$CDynamicPool@VCGraphicMarkInstance@@@@8	; CDynamicPool<CGraphicMarkInstance>::`RTTI Class Hierarchy Descriptor'
PUBLIC	??_R2?$CDynamicPool@VCGraphicMarkInstance@@@@8	; CDynamicPool<CGraphicMarkInstance>::`RTTI Base Class Array'
PUBLIC	??_R1A@?0A@EA@?$CDynamicPool@VCGraphicMarkInstance@@@@8 ; CDynamicPool<CGraphicMarkInstance>::`RTTI Base Class Descriptor at (0,-1,0,64)'
PUBLIC	__real@3f000000
PUBLIC	__real@3f800000
PUBLIC	__real@41400000
PUBLIC	__real@41800000
PUBLIC	__real@437f0000
EXTRN	??2@YAPAXI@Z:PROC				; operator new
EXTRN	??3@YAXPAXI@Z:PROC				; operator delete
EXTRN	_atexit:PROC
EXTRN	__Init_thread_header:PROC
EXTRN	__Init_thread_abort:PROC
EXTRN	__Init_thread_footer:PROC
EXTRN	___std_terminate:PROC
EXTRN	__invalid_parameter_noinfo_noreturn:PROC
EXTRN	_memcpy:PROC
EXTRN	_memmove:PROC
EXTRN	_strlen:PROC
EXTRN	___std_exception_copy:PROC
EXTRN	___std_exception_destroy:PROC
EXTRN	??_Eexception@std@@UAEPAXI@Z:PROC		; std::exception::`vector deleting destructor'
EXTRN	??_Ebad_alloc@std@@UAEPAXI@Z:PROC		; std::bad_alloc::`vector deleting destructor'
EXTRN	??_Ebad_array_new_length@std@@UAEPAXI@Z:PROC	; std::bad_array_new_length::`vector deleting destructor'
EXTRN	?_Xlength_error@std@@YAXPBD@Z:PROC		; std::_Xlength_error
EXTRN	?TraceError@@YAXPBDZZ:PROC			; TraceError
EXTRN	?AddReference@CReferenceObject@@QAEXXZ:PROC	; CReferenceObject::AddReference
EXTRN	?Release@CReferenceObject@@QAEXXZ:PROC		; CReferenceObject::Release
EXTRN	?IsEmpty@CResource@@QBE_NXZ:PROC		; CResource::IsEmpty
EXTRN	?IsType@CResource@@QAE_NK@Z:PROC		; CResource::IsType
EXTRN	?SetDefaultIndexBuffer@CGraphicBase@@SAXI@Z:PROC ; CGraphicBase::SetDefaultIndexBuffer
EXTRN	?SetPDTStream@CGraphicBase@@SA_NPAUSPDTVertex@@I@Z:PROC ; CGraphicBase::SetPDTStream
EXTRN	?GetWidth@CGraphicTexture@@QBEHXZ:PROC		; CGraphicTexture::GetWidth
EXTRN	?GetHeight@CGraphicTexture@@QBEHXZ:PROC		; CGraphicTexture::GetHeight
EXTRN	?GetD3DTexture@CGraphicTexture@@QBEPAUIDirect3DTexture8@@XZ:PROC ; CGraphicTexture::GetD3DTexture
EXTRN	?Type@CGraphicImage@@SAKXZ:PROC			; CGraphicImage::Type
EXTRN	?GetWidth@CGraphicImage@@QBEHXZ:PROC		; CGraphicImage::GetWidth
EXTRN	?GetTextureReference@CGraphicImage@@QBEABVCGraphicTexture@@XZ:PROC ; CGraphicImage::GetTextureReference
EXTRN	?GetTexturePointer@CGraphicImage@@QAEPAVCGraphicTexture@@XZ:PROC ; CGraphicImage::GetTexturePointer
EXTRN	??_ECGraphicMarkInstance@@UAEPAXI@Z:PROC	; CGraphicMarkInstance::`vector deleting destructor'
EXTRN	?SetTexture@CStateManager@@QAEXKPAUIDirect3DBaseTexture8@@@Z:PROC ; CStateManager::SetTexture
EXTRN	?SetVertexShader@CStateManager@@QAEXK@Z:PROC	; CStateManager::SetVertexShader
EXTRN	?DrawIndexedPrimitive@CStateManager@@QAEJW4_D3DPRIMITIVETYPE@@IIII@Z:PROC ; CStateManager::DrawIndexedPrimitive
EXTRN	?GetResourcePointer@CResourceManager@@QAEPAVCResource@@PBD@Z:PROC ; CResourceManager::GetResourcePointer
EXTRN	?GetCRC32@@YAKPBDI@Z:PROC			; GetCRC32
EXTRN	??_E?$CDynamicPool@VCGraphicMarkInstance@@@@UAEPAXI@Z:PROC ; CDynamicPool<CGraphicMarkInstance>::`vector deleting destructor'
EXTRN	@__security_check_cookie@4:PROC
EXTRN	__CxxThrowException@8:PROC
EXTRN	___CxxFrameHandler3:PROC
EXTRN	__ftoui3:PROC
EXTRN	__Init_thread_epoch:DWORD
EXTRN	??_7type_info@@6B@:QWORD			; type_info::`vftable'
EXTRN	___security_cookie:DWORD
EXTRN	__fltused:DWORD
EXTRN	__tls_array:DWORD
EXTRN	__tls_index:DWORD
_BSS	SEGMENT
?ms_kPool@CGraphicMarkInstance@@2V?$CDynamicPool@VCGraphicMarkInstance@@@@A DB 024H DUP (?) ; CGraphicMarkInstance::ms_kPool
_BSS	ENDS
;	COMDAT ?ms_singleton@?$CSingleton@VCStateManager@@@@0PAVCStateManager@@A
_BSS	SEGMENT
?ms_singleton@?$CSingleton@VCStateManager@@@@0PAVCStateManager@@A DD 01H DUP (?) ; CSingleton<CStateManager>::ms_singleton
_BSS	ENDS
;	COMDAT ?ms_singleton@?$CSingleton@VCResourceManager@@@@0PAVCResourceManager@@A
_BSS	SEGMENT
?ms_singleton@?$CSingleton@VCResourceManager@@@@0PAVCResourceManager@@A DD 01H DUP (?) ; CSingleton<CResourceManager>::ms_singleton
_BSS	ENDS
;	COMDAT ?s_dwType@?1??Type@CGraphicMarkInstance@@SAKXZ@4KA
_BSS	SEGMENT
?s_dwType@?1??Type@CGraphicMarkInstance@@SAKXZ@4KA DD 01H DUP (?) ; `CGraphicMarkInstance::Type'::`2'::s_dwType
_BSS	ENDS
;	COMDAT ?$TSS0@?1??Type@CGraphicMarkInstance@@SAKXZ@4HA
_BSS	SEGMENT
?$TSS0@?1??Type@CGraphicMarkInstance@@SAKXZ@4HA DD 01H DUP (?) ; `CGraphicMarkInstance::Type'::`2'::$TSS0
_BSS	ENDS
CRT$XCU	SEGMENT
??ms_kPool$initializer$@CGraphicMarkInstance@@2P6AXXZA@@3P6AXXZA DD FLAT:??__E?ms_kPool@CGraphicMarkInstance@@2V?$CDynamicPool@VCGraphicMarkInstance@@@@A@@YAXXZ ; ??ms_kPool$initializer$@CGraphicMarkInstance@@2P6AXXZA@@3P6AXXZA
CRT$XCU	ENDS
;	COMDAT __real@437f0000
CONST	SEGMENT
__real@437f0000 DD 0437f0000r			; 255
CONST	ENDS
;	COMDAT __real@41800000
CONST	SEGMENT
__real@41800000 DD 041800000r			; 16
CONST	ENDS
;	COMDAT __real@41400000
CONST	SEGMENT
__real@41400000 DD 041400000r			; 12
CONST	ENDS
;	COMDAT __real@3f800000
CONST	SEGMENT
__real@3f800000 DD 03f800000r			; 1
CONST	ENDS
;	COMDAT __real@3f000000
CONST	SEGMENT
__real@3f000000 DD 03f000000r			; 0.5
CONST	ENDS
;	COMDAT ??_R1A@?0A@EA@?$CDynamicPool@VCGraphicMarkInstance@@@@8
rdata$r	SEGMENT
??_R1A@?0A@EA@?$CDynamicPool@VCGraphicMarkInstance@@@@8 DD FLAT:??_R0?AV?$CDynamicPool@VCGraphicMarkInstance@@@@@8 ; CDynamicPool<CGraphicMarkInstance>::`RTTI Base Class Descriptor at (0,-1,0,64)'
	DD	00H
	DD	00H
	DD	0ffffffffH
	DD	00H
	DD	040H
	DD	FLAT:??_R3?$CDynamicPool@VCGraphicMarkInstance@@@@8
rdata$r	ENDS
;	COMDAT ??_R2?$CDynamicPool@VCGraphicMarkInstance@@@@8
rdata$r	SEGMENT
??_R2?$CDynamicPool@VCGraphicMarkInstance@@@@8 DD FLAT:??_R1A@?0A@EA@?$CDynamicPool@VCGraphicMarkInstance@@@@8 ; CDynamicPool<CGraphicMarkInstance>::`RTTI Base Class Array'
rdata$r	ENDS
;	COMDAT ??_R3?$CDynamicPool@VCGraphicMarkInstance@@@@8
rdata$r	SEGMENT
??_R3?$CDynamicPool@VCGraphicMarkInstance@@@@8 DD 00H	; CDynamicPool<CGraphicMarkInstance>::`RTTI Class Hierarchy Descriptor'
	DD	00H
	DD	01H
	DD	FLAT:??_R2?$CDynamicPool@VCGraphicMarkInstance@@@@8
rdata$r	ENDS
;	COMDAT ??_R0?AV?$CDynamicPool@VCGraphicMarkInstance@@@@@8
data$rs	SEGMENT
??_R0?AV?$CDynamicPool@VCGraphicMarkInstance@@@@@8 DD FLAT:??_7type_info@@6B@ ; CDynamicPool<CGraphicMarkInstance> `RTTI Type Descriptor'
	DD	00H
	DB	'.?AV?$CDynamicPool@VCGraphicMarkInstance@@@@', 00H
data$rs	ENDS
;	COMDAT ??_R4?$CDynamicPool@VCGraphicMarkInstance@@@@6B@
rdata$r	SEGMENT
??_R4?$CDynamicPool@VCGraphicMarkInstance@@@@6B@ DD 00H	; CDynamicPool<CGraphicMarkInstance>::`RTTI Complete Object Locator'
	DD	00H
	DD	00H
	DD	FLAT:??_R0?AV?$CDynamicPool@VCGraphicMarkInstance@@@@@8
	DD	FLAT:??_R3?$CDynamicPool@VCGraphicMarkInstance@@@@8
rdata$r	ENDS
;	COMDAT ??_R1A@?0A@EA@CGraphicMarkInstance@@8
rdata$r	SEGMENT
??_R1A@?0A@EA@CGraphicMarkInstance@@8 DD FLAT:??_R0?AVCGraphicMarkInstance@@@8 ; CGraphicMarkInstance::`RTTI Base Class Descriptor at (0,-1,0,64)'
	DD	00H
	DD	00H
	DD	0ffffffffH
	DD	00H
	DD	040H
	DD	FLAT:??_R3CGraphicMarkInstance@@8
rdata$r	ENDS
;	COMDAT ??_R2CGraphicMarkInstance@@8
rdata$r	SEGMENT
??_R2CGraphicMarkInstance@@8 DD FLAT:??_R1A@?0A@EA@CGraphicMarkInstance@@8 ; CGraphicMarkInstance::`RTTI Base Class Array'
rdata$r	ENDS
;	COMDAT ??_R3CGraphicMarkInstance@@8
rdata$r	SEGMENT
??_R3CGraphicMarkInstance@@8 DD 00H			; CGraphicMarkInstance::`RTTI Class Hierarchy Descriptor'
	DD	00H
	DD	01H
	DD	FLAT:??_R2CGraphicMarkInstance@@8
rdata$r	ENDS
;	COMDAT ??_R0?AVCGraphicMarkInstance@@@8
data$rs	SEGMENT
??_R0?AVCGraphicMarkInstance@@@8 DD FLAT:??_7type_info@@6B@ ; CGraphicMarkInstance `RTTI Type Descriptor'
	DD	00H
	DB	'.?AVCGraphicMarkInstance@@', 00H
data$rs	ENDS
;	COMDAT ??_R4CGraphicMarkInstance@@6B@
rdata$r	SEGMENT
??_R4CGraphicMarkInstance@@6B@ DD 00H			; CGraphicMarkInstance::`RTTI Complete Object Locator'
	DD	00H
	DD	00H
	DD	FLAT:??_R0?AVCGraphicMarkInstance@@@8
	DD	FLAT:??_R3CGraphicMarkInstance@@8
rdata$r	ENDS
;	COMDAT ??_C@_0BA@FOIKENOD@vector?5too?5long@
CONST	SEGMENT
??_C@_0BA@FOIKENOD@vector?5too?5long@ DB 'vector too long', 00H ; `string'
CONST	ENDS
;	COMDAT ??_C@_0BF@BKIBHNLF@CGraphicMarkInstance@
CONST	SEGMENT
??_C@_0BF@BKIBHNLF@CGraphicMarkInstance@ DB 'CGraphicMarkInstance', 00H ; `string'
CONST	ENDS
;	COMDAT ??_C@_0CM@NEBKKKDH@CGraphicMarkinstance?3?3Load?5?9?5?$FL?$CF@
CONST	SEGMENT
??_C@_0CM@NEBKKKDH@CGraphicMarkinstance?3?3Load?5?9?5?$FL?$CF@ DB 'CGraph'
	DB	'icMarkinstance::Load - [%s] NOT EXIST', 00H	; `string'
CONST	ENDS
;	COMDAT ??_7?$CDynamicPool@VCGraphicMarkInstance@@@@6B@
CONST	SEGMENT
??_7?$CDynamicPool@VCGraphicMarkInstance@@@@6B@ DD FLAT:??_R4?$CDynamicPool@VCGraphicMarkInstance@@@@6B@ ; CDynamicPool<CGraphicMarkInstance>::`vftable'
	DD	FLAT:??_E?$CDynamicPool@VCGraphicMarkInstance@@@@UAEPAXI@Z
CONST	ENDS
;	COMDAT ??_7CGraphicMarkInstance@@6B@
CONST	SEGMENT
??_7CGraphicMarkInstance@@6B@ DD FLAT:??_R4CGraphicMarkInstance@@6B@ ; CGraphicMarkInstance::`vftable'
	DD	FLAT:??_ECGraphicMarkInstance@@UAEPAXI@Z
	DD	FLAT:?OnRender@CGraphicMarkInstance@@MAEXXZ
	DD	FLAT:?OnSetImagePointer@CGraphicMarkInstance@@MAEXXZ
	DD	FLAT:?OnIsType@CGraphicMarkInstance@@MAEHK@Z
CONST	ENDS
;	COMDAT ??_R1A@?0A@EA@bad_array_new_length@std@@8
rdata$r	SEGMENT
??_R1A@?0A@EA@bad_array_new_length@std@@8 DD FLAT:??_R0?AVbad_array_new_length@std@@@8 ; std::bad_array_new_length::`RTTI Base Class Descriptor at (0,-1,0,64)'
	DD	02H
	DD	00H
	DD	0ffffffffH
	DD	00H
	DD	040H
	DD	FLAT:??_R3bad_array_new_length@std@@8
rdata$r	ENDS
;	COMDAT ??_R2bad_array_new_length@std@@8
rdata$r	SEGMENT
??_R2bad_array_new_length@std@@8 DD FLAT:??_R1A@?0A@EA@bad_array_new_length@std@@8 ; std::bad_array_new_length::`RTTI Base Class Array'
	DD	FLAT:??_R1A@?0A@EA@bad_alloc@std@@8
	DD	FLAT:??_R1A@?0A@EA@exception@std@@8
rdata$r	ENDS
;	COMDAT ??_R3bad_array_new_length@std@@8
rdata$r	SEGMENT
??_R3bad_array_new_length@std@@8 DD 00H			; std::bad_array_new_length::`RTTI Class Hierarchy Descriptor'
	DD	00H
	DD	03H
	DD	FLAT:??_R2bad_array_new_length@std@@8
rdata$r	ENDS
;	COMDAT ??_R4bad_array_new_length@std@@6B@
rdata$r	SEGMENT
??_R4bad_array_new_length@std@@6B@ DD 00H		; std::bad_array_new_length::`RTTI Complete Object Locator'
	DD	00H
	DD	00H
	DD	FLAT:??_R0?AVbad_array_new_length@std@@@8
	DD	FLAT:??_R3bad_array_new_length@std@@8
rdata$r	ENDS
;	COMDAT ??_R1A@?0A@EA@bad_alloc@std@@8
rdata$r	SEGMENT
??_R1A@?0A@EA@bad_alloc@std@@8 DD FLAT:??_R0?AVbad_alloc@std@@@8 ; std::bad_alloc::`RTTI Base Class Descriptor at (0,-1,0,64)'
	DD	01H
	DD	00H
	DD	0ffffffffH
	DD	00H
	DD	040H
	DD	FLAT:??_R3bad_alloc@std@@8
rdata$r	ENDS
;	COMDAT ??_R2bad_alloc@std@@8
rdata$r	SEGMENT
??_R2bad_alloc@std@@8 DD FLAT:??_R1A@?0A@EA@bad_alloc@std@@8 ; std::bad_alloc::`RTTI Base Class Array'
	DD	FLAT:??_R1A@?0A@EA@exception@std@@8
rdata$r	ENDS
;	COMDAT ??_R3bad_alloc@std@@8
rdata$r	SEGMENT
??_R3bad_alloc@std@@8 DD 00H				; std::bad_alloc::`RTTI Class Hierarchy Descriptor'
	DD	00H
	DD	02H
	DD	FLAT:??_R2bad_alloc@std@@8
rdata$r	ENDS
;	COMDAT ??_R4bad_alloc@std@@6B@
rdata$r	SEGMENT
??_R4bad_alloc@std@@6B@ DD 00H				; std::bad_alloc::`RTTI Complete Object Locator'
	DD	00H
	DD	00H
	DD	FLAT:??_R0?AVbad_alloc@std@@@8
	DD	FLAT:??_R3bad_alloc@std@@8
rdata$r	ENDS
;	COMDAT ??_R1A@?0A@EA@exception@std@@8
rdata$r	SEGMENT
??_R1A@?0A@EA@exception@std@@8 DD FLAT:??_R0?AVexception@std@@@8 ; std::exception::`RTTI Base Class Descriptor at (0,-1,0,64)'
	DD	00H
	DD	00H
	DD	0ffffffffH
	DD	00H
	DD	040H
	DD	FLAT:??_R3exception@std@@8
rdata$r	ENDS
;	COMDAT ??_R2exception@std@@8
rdata$r	SEGMENT
??_R2exception@std@@8 DD FLAT:??_R1A@?0A@EA@exception@std@@8 ; std::exception::`RTTI Base Class Array'
rdata$r	ENDS
;	COMDAT ??_R3exception@std@@8
rdata$r	SEGMENT
??_R3exception@std@@8 DD 00H				; std::exception::`RTTI Class Hierarchy Descriptor'
	DD	00H
	DD	01H
	DD	FLAT:??_R2exception@std@@8
rdata$r	ENDS
;	COMDAT ??_R4exception@std@@6B@
rdata$r	SEGMENT
??_R4exception@std@@6B@ DD 00H				; std::exception::`RTTI Complete Object Locator'
	DD	00H
	DD	00H
	DD	FLAT:??_R0?AVexception@std@@@8
	DD	FLAT:??_R3exception@std@@8
rdata$r	ENDS
;	COMDAT ??_C@_0BA@JFNIOLAK@string?5too?5long@
CONST	SEGMENT
??_C@_0BA@JFNIOLAK@string?5too?5long@ DB 'string too long', 00H ; `string'
CONST	ENDS
;	COMDAT __CT??_R0?AVexception@std@@@8??0exception@std@@QAE@ABV01@@Z12
xdata$x	SEGMENT
__CT??_R0?AVexception@std@@@8??0exception@std@@QAE@ABV01@@Z12 DD 00H
	DD	FLAT:??_R0?AVexception@std@@@8
	DD	00H
	DD	0ffffffffH
	ORG $+4
	DD	0cH
	DD	FLAT:??0exception@std@@QAE@ABV01@@Z
xdata$x	ENDS
;	COMDAT ??_R0?AVexception@std@@@8
data$r	SEGMENT
??_R0?AVexception@std@@@8 DD FLAT:??_7type_info@@6B@	; std::exception `RTTI Type Descriptor'
	DD	00H
	DB	'.?AVexception@std@@', 00H
data$r	ENDS
;	COMDAT __CT??_R0?AVbad_alloc@std@@@8??0bad_alloc@std@@QAE@ABV01@@Z12
xdata$x	SEGMENT
__CT??_R0?AVbad_alloc@std@@@8??0bad_alloc@std@@QAE@ABV01@@Z12 DD 010H
	DD	FLAT:??_R0?AVbad_alloc@std@@@8
	DD	00H
	DD	0ffffffffH
	ORG $+4
	DD	0cH
	DD	FLAT:??0bad_alloc@std@@QAE@ABV01@@Z
xdata$x	ENDS
;	COMDAT ??_R0?AVbad_alloc@std@@@8
data$r	SEGMENT
??_R0?AVbad_alloc@std@@@8 DD FLAT:??_7type_info@@6B@	; std::bad_alloc `RTTI Type Descriptor'
	DD	00H
	DB	'.?AVbad_alloc@std@@', 00H
data$r	ENDS
;	COMDAT __CT??_R0?AVbad_array_new_length@std@@@8??0bad_array_new_length@std@@QAE@ABV01@@Z12
xdata$x	SEGMENT
__CT??_R0?AVbad_array_new_length@std@@@8??0bad_array_new_length@std@@QAE@ABV01@@Z12 DD 00H
	DD	FLAT:??_R0?AVbad_array_new_length@std@@@8
	DD	00H
	DD	0ffffffffH
	ORG $+4
	DD	0cH
	DD	FLAT:??0bad_array_new_length@std@@QAE@ABV01@@Z
xdata$x	ENDS
;	COMDAT ??_R0?AVbad_array_new_length@std@@@8
data$r	SEGMENT
??_R0?AVbad_array_new_length@std@@@8 DD FLAT:??_7type_info@@6B@ ; std::bad_array_new_length `RTTI Type Descriptor'
	DD	00H
	DB	'.?AVbad_array_new_length@std@@', 00H
data$r	ENDS
;	COMDAT __CTA3?AVbad_array_new_length@std@@
xdata$x	SEGMENT
__CTA3?AVbad_array_new_length@std@@ DD 03H
	DD	FLAT:__CT??_R0?AVbad_array_new_length@std@@@8??0bad_array_new_length@std@@QAE@ABV01@@Z12
	DD	FLAT:__CT??_R0?AVbad_alloc@std@@@8??0bad_alloc@std@@QAE@ABV01@@Z12
	DD	FLAT:__CT??_R0?AVexception@std@@@8??0exception@std@@QAE@ABV01@@Z12
xdata$x	ENDS
;	COMDAT __TI3?AVbad_array_new_length@std@@
xdata$x	SEGMENT
__TI3?AVbad_array_new_length@std@@ DD 00H
	DD	FLAT:??1bad_array_new_length@std@@UAE@XZ
	DD	00H
	DD	FLAT:__CTA3?AVbad_array_new_length@std@@
xdata$x	ENDS
;	COMDAT ??_C@_0BF@KINCDENJ@bad?5array?5new?5length@
CONST	SEGMENT
??_C@_0BF@KINCDENJ@bad?5array?5new?5length@ DB 'bad array new length', 00H ; `string'
CONST	ENDS
;	COMDAT ??_7bad_array_new_length@std@@6B@
CONST	SEGMENT
??_7bad_array_new_length@std@@6B@ DD FLAT:??_R4bad_array_new_length@std@@6B@ ; std::bad_array_new_length::`vftable'
	DD	FLAT:??_Ebad_array_new_length@std@@UAEPAXI@Z
	DD	FLAT:?what@exception@std@@UBEPBDXZ
CONST	ENDS
;	COMDAT ??_7bad_alloc@std@@6B@
CONST	SEGMENT
??_7bad_alloc@std@@6B@ DD FLAT:??_R4bad_alloc@std@@6B@	; std::bad_alloc::`vftable'
	DD	FLAT:??_Ebad_alloc@std@@UAEPAXI@Z
	DD	FLAT:?what@exception@std@@UBEPBDXZ
CONST	ENDS
;	COMDAT ??_C@_0BC@EOODALEL@Unknown?5exception@
CONST	SEGMENT
??_C@_0BC@EOODALEL@Unknown?5exception@ DB 'Unknown exception', 00H ; `string'
CONST	ENDS
;	COMDAT ??_7exception@std@@6B@
CONST	SEGMENT
??_7exception@std@@6B@ DD FLAT:??_R4exception@std@@6B@	; std::exception::`vftable'
	DD	FLAT:??_Eexception@std@@UAEPAXI@Z
	DD	FLAT:?what@exception@std@@UBEPBDXZ
CONST	ENDS
;	COMDAT xdata$x
xdata$x	SEGMENT
__catchsym$??$_Emplace_reallocate@ABQAVCGraphicMarkInstance@@@?$vector@PAVCGraphicMarkInstance@@V?$allocator@PAVCGraphicMarkInstance@@@std@@@std@@QAEPAPAVCGraphicMarkInstance@@QAPAV2@ABQAV2@@Z$32 DD 040H
	DD	00H
	DD	00H
	DD	FLAT:__catch$??$_Emplace_reallocate@ABQAVCGraphicMarkInstance@@@?$vector@PAVCGraphicMarkInstance@@V?$allocator@PAVCGraphicMarkInstance@@@std@@@std@@QAEPAPAVCGraphicMarkInstance@@QAPAV2@ABQAV2@@Z$0
__unwindtable$??$_Emplace_reallocate@ABQAVCGraphicMarkInstance@@@?$vector@PAVCGraphicMarkInstance@@V?$allocator@PAVCGraphicMarkInstance@@@std@@@std@@QAEPAPAVCGraphicMarkInstance@@QAPAV2@ABQAV2@@Z DD 0ffffffffH
	DD	00H
	DD	0ffffffffH
	DD	00H
__tryblocktable$??$_Emplace_reallocate@ABQAVCGraphicMarkInstance@@@?$vector@PAVCGraphicMarkInstance@@V?$allocator@PAVCGraphicMarkInstance@@@std@@@std@@QAEPAPAVCGraphicMarkInstance@@QAPAV2@ABQAV2@@Z DD 00H
	DD	00H
	DD	01H
	DD	01H
	DD	FLAT:__catchsym$??$_Emplace_reallocate@ABQAVCGraphicMarkInstance@@@?$vector@PAVCGraphicMarkInstance@@V?$allocator@PAVCGraphicMarkInstance@@@std@@@std@@QAEPAPAVCGraphicMarkInstance@@QAPAV2@ABQAV2@@Z$32
__ehfuncinfo$??$_Emplace_reallocate@ABQAVCGraphicMarkInstance@@@?$vector@PAVCGraphicMarkInstance@@V?$allocator@PAVCGraphicMarkInstance@@@std@@@std@@QAEPAPAVCGraphicMarkInstance@@QAPAV2@ABQAV2@@Z DD 019930522H
	DD	02H
	DD	FLAT:__unwindtable$??$_Emplace_reallocate@ABQAVCGraphicMarkInstance@@@?$vector@PAVCGraphicMarkInstance@@V?$allocator@PAVCGraphicMarkInstance@@@std@@@std@@QAEPAPAVCGraphicMarkInstance@@QAPAV2@ABQAV2@@Z
	DD	01H
	DD	FLAT:__tryblocktable$??$_Emplace_reallocate@ABQAVCGraphicMarkInstance@@@?$vector@PAVCGraphicMarkInstance@@V?$allocator@PAVCGraphicMarkInstance@@@std@@@std@@QAEPAPAVCGraphicMarkInstance@@QAPAV2@ABQAV2@@Z
	DD	2 DUP(00H)
	DD	00H
	DD	01H
xdata$x	ENDS
;	COMDAT xdata$x
xdata$x	SEGMENT
__catchsym$?_Reallocate_exactly@?$vector@PAVCGraphicMarkInstance@@V?$allocator@PAVCGraphicMarkInstance@@@std@@@std@@AAEXI@Z$11 DD 040H
	DD	00H
	DD	00H
	DD	FLAT:__catch$?_Reallocate_exactly@?$vector@PAVCGraphicMarkInstance@@V?$allocator@PAVCGraphicMarkInstance@@@std@@@std@@AAEXI@Z$0
__unwindtable$?_Reallocate_exactly@?$vector@PAVCGraphicMarkInstance@@V?$allocator@PAVCGraphicMarkInstance@@@std@@@std@@AAEXI@Z DD 0ffffffffH
	DD	00H
	DD	0ffffffffH
	DD	00H
__tryblocktable$?_Reallocate_exactly@?$vector@PAVCGraphicMarkInstance@@V?$allocator@PAVCGraphicMarkInstance@@@std@@@std@@AAEXI@Z DD 00H
	DD	00H
	DD	01H
	DD	01H
	DD	FLAT:__catchsym$?_Reallocate_exactly@?$vector@PAVCGraphicMarkInstance@@V?$allocator@PAVCGraphicMarkInstance@@@std@@@std@@AAEXI@Z$11
__ehfuncinfo$?_Reallocate_exactly@?$vector@PAVCGraphicMarkInstance@@V?$allocator@PAVCGraphicMarkInstance@@@std@@@std@@AAEXI@Z DD 019930522H
	DD	02H
	DD	FLAT:__unwindtable$?_Reallocate_exactly@?$vector@PAVCGraphicMarkInstance@@V?$allocator@PAVCGraphicMarkInstance@@@std@@@std@@AAEXI@Z
	DD	01H
	DD	FLAT:__tryblocktable$?_Reallocate_exactly@?$vector@PAVCGraphicMarkInstance@@V?$allocator@PAVCGraphicMarkInstance@@@std@@@std@@AAEXI@Z
	DD	2 DUP(00H)
	DD	00H
	DD	01H
xdata$x	ENDS
;	COMDAT xdata$x
xdata$x	SEGMENT
__unwindtable$?Alloc@?$CDynamicPool@VCGraphicMarkInstance@@@@QAEPAVCGraphicMarkInstance@@XZ DD 0ffffffffH
	DD	FLAT:__unwindfunclet$?Alloc@?$CDynamicPool@VCGraphicMarkInstance@@@@QAEPAVCGraphicMarkInstance@@XZ$0
__ehfuncinfo$?Alloc@?$CDynamicPool@VCGraphicMarkInstance@@@@QAEPAVCGraphicMarkInstance@@XZ DD 019930522H
	DD	01H
	DD	FLAT:__unwindtable$?Alloc@?$CDynamicPool@VCGraphicMarkInstance@@@@QAEPAVCGraphicMarkInstance@@XZ
	DD	2 DUP(00H)
	DD	2 DUP(00H)
	DD	00H
	DD	01H
xdata$x	ENDS
;	COMDAT xdata$x
xdata$x	SEGMENT
__ehfuncinfo$??1?$CRef@VCGraphicImage@@@@QAE@XZ DD 019930522H
	DD	00H
	DD	00H
	DD	2 DUP(00H)
	DD	2 DUP(00H)
	DD	00H
	DD	05H
xdata$x	ENDS
;	COMDAT xdata$x
xdata$x	SEGMENT
__unwindtable$??1CGraphicMarkInstance@@UAE@XZ DD 0ffffffffH
	DD	FLAT:___std_terminate
__ehfuncinfo$??1CGraphicMarkInstance@@UAE@XZ DD 019930522H
	DD	01H
	DD	FLAT:__unwindtable$??1CGraphicMarkInstance@@UAE@XZ
	DD	2 DUP(00H)
	DD	2 DUP(00H)
	DD	00H
	DD	05H
xdata$x	ENDS
;	COMDAT xdata$x
xdata$x	SEGMENT
__unwindtable$??0CGraphicMarkInstance@@QAE@XZ DD 0ffffffffH
	DD	FLAT:__unwindfunclet$??0CGraphicMarkInstance@@QAE@XZ$0
	DD	00H
	DD	FLAT:__unwindfunclet$??0CGraphicMarkInstance@@QAE@XZ$1
__ehfuncinfo$??0CGraphicMarkInstance@@QAE@XZ DD 019930522H
	DD	02H
	DD	FLAT:__unwindtable$??0CGraphicMarkInstance@@QAE@XZ
	DD	2 DUP(00H)
	DD	2 DUP(00H)
	DD	00H
	DD	01H
xdata$x	ENDS
;	COMDAT xdata$x
xdata$x	SEGMENT
__unwindtable$?Type@CGraphicMarkInstance@@SAKXZ DD 0ffffffffH
	DD	FLAT:__unwindfunclet$?Type@CGraphicMarkInstance@@SAKXZ$0
__ehfuncinfo$?Type@CGraphicMarkInstance@@SAKXZ DD 019930522H
	DD	01H
	DD	FLAT:__unwindtable$?Type@CGraphicMarkInstance@@SAKXZ
	DD	2 DUP(00H)
	DD	2 DUP(00H)
	DD	00H
	DD	01H
xdata$x	ENDS
;	COMDAT xdata$x
xdata$x	SEGMENT
__ehfuncinfo$??$_Deallocate@$07$0A@@std@@YAXPAXI@Z DD 019930522H
	DD	00H
	DD	00H
	DD	2 DUP(00H)
	DD	2 DUP(00H)
	DD	00H
	DD	05H
xdata$x	ENDS
; Function compile flags: /Odspy
; File C:\Program Files (x86)\Microsoft Visual Studio\2019\Community\VC\Tools\MSVC\14.28.29333\include\xutility
;	COMDAT ??$_Copy_memmove@PAPAVCGraphicMarkInstance@@PAPAV1@@std@@YAPAPAVCGraphicMarkInstance@@PAPAV1@00@Z
_TEXT	SEGMENT
__Last_ch$ = -16					; size = 4
__Count$ = -12						; size = 4
__Dest_ch$ = -8						; size = 4
__First_ch$ = -4					; size = 4
__First$ = 8						; size = 4
__Last$ = 12						; size = 4
__Dest$ = 16						; size = 4
??$_Copy_memmove@PAPAVCGraphicMarkInstance@@PAPAV1@@std@@YAPAPAVCGraphicMarkInstance@@PAPAV1@00@Z PROC ; std::_Copy_memmove<CGraphicMarkInstance * *,CGraphicMarkInstance * *>, COMDAT

; 4360 : _OutIt _Copy_memmove(_InIt _First, _InIt _Last, _OutIt _Dest) {

  00000	55		 push	 ebp
  00001	8b ec		 mov	 ebp, esp
  00003	83 ec 10	 sub	 esp, 16			; 00000010H

; 4361 :     const char* const _First_ch = const_cast<const char*>(reinterpret_cast<const volatile char*>(_First));

  00006	8b 45 08	 mov	 eax, DWORD PTR __First$[ebp]
  00009	89 45 fc	 mov	 DWORD PTR __First_ch$[ebp], eax

; 4362 :     const char* const _Last_ch  = const_cast<const char*>(reinterpret_cast<const volatile char*>(_Last));

  0000c	8b 45 0c	 mov	 eax, DWORD PTR __Last$[ebp]
  0000f	89 45 f0	 mov	 DWORD PTR __Last_ch$[ebp], eax

; 4363 :     char* const _Dest_ch        = const_cast<char*>(reinterpret_cast<volatile char*>(_Dest));

  00012	8b 45 10	 mov	 eax, DWORD PTR __Dest$[ebp]
  00015	89 45 f8	 mov	 DWORD PTR __Dest_ch$[ebp], eax

; 4364 :     const auto _Count           = static_cast<size_t>(_Last_ch - _First_ch);

  00018	8b 45 f0	 mov	 eax, DWORD PTR __Last_ch$[ebp]
  0001b	2b 45 fc	 sub	 eax, DWORD PTR __First_ch$[ebp]
  0001e	89 45 f4	 mov	 DWORD PTR __Count$[ebp], eax

; 4365 :     _CSTD memmove(_Dest_ch, _First_ch, _Count);

  00021	ff 75 f4	 push	 DWORD PTR __Count$[ebp]
  00024	ff 75 fc	 push	 DWORD PTR __First_ch$[ebp]
  00027	ff 75 f8	 push	 DWORD PTR __Dest_ch$[ebp]
  0002a	e8 00 00 00 00	 call	 _memmove
  0002f	83 c4 0c	 add	 esp, 12			; 0000000cH

; 4366 :     return reinterpret_cast<_OutIt>(_Dest_ch + _Count);

  00032	8b 45 f8	 mov	 eax, DWORD PTR __Dest_ch$[ebp]
  00035	03 45 f4	 add	 eax, DWORD PTR __Count$[ebp]

; 4367 : }

  00038	c9		 leave
  00039	c3		 ret	 0
??$_Copy_memmove@PAPAVCGraphicMarkInstance@@PAPAV1@@std@@YAPAPAVCGraphicMarkInstance@@PAPAV1@00@Z ENDP ; std::_Copy_memmove<CGraphicMarkInstance * *,CGraphicMarkInstance * *>
_TEXT	ENDS
; Function compile flags: /Odspy
; File C:\Program Files (x86)\Microsoft Visual Studio\2019\Community\VC\Tools\MSVC\14.28.29333\include\xmemory
; File C:\Program Files (x86)\Microsoft Visual Studio\2019\Community\VC\Tools\MSVC\14.28.29333\include\xstddef
; File C:\Program Files (x86)\Microsoft Visual Studio\2019\Community\VC\Tools\MSVC\14.28.29333\include\xmemory
;	COMDAT ??$_Uninitialized_move@PAPAVCGraphicMarkInstance@@V?$allocator@PAVCGraphicMarkInstance@@@std@@@std@@YAPAPAVCGraphicMarkInstance@@QAPAV1@0PAPAV1@AAV?$allocator@PAVCGraphicMarkInstance@@@0@@Z
_TEXT	SEGMENT
$T1 = -12						; size = 4
__UFirst$ = -8						; size = 4
__ULast$ = -4						; size = 4
__First$ = 8						; size = 4
__Last$ = 12						; size = 4
__Dest$ = 16						; size = 4
__Al$ = 20						; size = 4
??$_Uninitialized_move@PAPAVCGraphicMarkInstance@@V?$allocator@PAVCGraphicMarkInstance@@@std@@@std@@YAPAPAVCGraphicMarkInstance@@QAPAV1@0PAPAV1@AAV?$allocator@PAVCGraphicMarkInstance@@@0@@Z PROC ; std::_Uninitialized_move<CGraphicMarkInstance * *,std::allocator<CGraphicMarkInstance *> >, COMDAT

; 1685 :     const _InIt _First, const _InIt _Last, _Alloc_ptr_t<_Alloc> _Dest, _Alloc& _Al) {

  00000	55		 push	 ebp
  00001	8b ec		 mov	 ebp, esp
  00003	83 ec 0c	 sub	 esp, 12			; 0000000cH

; 1686 :     // move [_First, _Last) to raw _Dest, using _Al
; 1687 :     // note: only called internally from elsewhere in the STL
; 1688 :     using _Ptrval     = typename _Alloc::value_type*;
; 1689 :     auto _UFirst      = _Get_unwrapped(_First);

  00006	8b 45 08	 mov	 eax, DWORD PTR __First$[ebp]
  00009	89 45 f8	 mov	 DWORD PTR __UFirst$[ebp], eax

; 1690 :     const auto _ULast = _Get_unwrapped(_Last);

  0000c	8b 45 0c	 mov	 eax, DWORD PTR __Last$[ebp]
  0000f	89 45 fc	 mov	 DWORD PTR __ULast$[ebp], eax
; File C:\Program Files (x86)\Microsoft Visual Studio\2019\Community\VC\Tools\MSVC\14.28.29333\include\xstddef

; 289  :     return _Ptr;

  00012	8b 45 10	 mov	 eax, DWORD PTR __Dest$[ebp]
  00015	89 45 f4	 mov	 DWORD PTR $T1[ebp], eax
; File C:\Program Files (x86)\Microsoft Visual Studio\2019\Community\VC\Tools\MSVC\14.28.29333\include\xmemory

; 1693 :         _Copy_memmove(_UFirst, _ULast, _Unfancy(_Dest));

  00018	ff 75 f4	 push	 DWORD PTR $T1[ebp]
  0001b	ff 75 fc	 push	 DWORD PTR __ULast$[ebp]
  0001e	ff 75 f8	 push	 DWORD PTR __UFirst$[ebp]
  00021	e8 00 00 00 00	 call	 ??$_Copy_memmove@PAPAVCGraphicMarkInstance@@PAPAV1@@std@@YAPAPAVCGraphicMarkInstance@@PAPAV1@00@Z ; std::_Copy_memmove<CGraphicMarkInstance * *,CGraphicMarkInstance * *>
  00026	83 c4 0c	 add	 esp, 12			; 0000000cH

; 1694 :         return _Dest + (_ULast - _UFirst);

  00029	8b 45 fc	 mov	 eax, DWORD PTR __ULast$[ebp]
  0002c	2b 45 f8	 sub	 eax, DWORD PTR __UFirst$[ebp]
  0002f	c1 f8 02	 sar	 eax, 2
  00032	8b 4d 10	 mov	 ecx, DWORD PTR __Dest$[ebp]
  00035	8d 04 81	 lea	 eax, DWORD PTR [ecx+eax*4]

; 1695 :     } else {
; 1696 :         _Uninitialized_backout_al<_Alloc> _Backout{_Dest, _Al};
; 1697 :         for (; _UFirst != _ULast; ++_UFirst) {
; 1698 :             _Backout._Emplace_back(_STD move(*_UFirst));
; 1699 :         }
; 1700 : 
; 1701 :         return _Backout._Release();
; 1702 :     }
; 1703 : }

  00038	c9		 leave
  00039	c3		 ret	 0
??$_Uninitialized_move@PAPAVCGraphicMarkInstance@@V?$allocator@PAVCGraphicMarkInstance@@@std@@@std@@YAPAPAVCGraphicMarkInstance@@QAPAV1@0PAPAV1@AAV?$allocator@PAVCGraphicMarkInstance@@@0@@Z ENDP ; std::_Uninitialized_move<CGraphicMarkInstance * *,std::allocator<CGraphicMarkInstance *> >
_TEXT	ENDS
; Function compile flags: /Odspy
; File C:\Program Files (x86)\Microsoft Visual Studio\2019\Community\VC\Tools\MSVC\14.28.29333\include\xmemory
;	COMDAT ??$_Destroy_range@V?$allocator@PAVCGraphicMarkInstance@@@std@@@std@@YAXPAPAVCGraphicMarkInstance@@QAPAV1@AAV?$allocator@PAVCGraphicMarkInstance@@@0@@Z
_TEXT	SEGMENT
__First$ = 8						; size = 4
__Last$ = 12						; size = 4
__Al$ = 16						; size = 4
??$_Destroy_range@V?$allocator@PAVCGraphicMarkInstance@@@std@@@std@@YAXPAPAVCGraphicMarkInstance@@QAPAV1@AAV?$allocator@PAVCGraphicMarkInstance@@@0@@Z PROC ; std::_Destroy_range<std::allocator<CGraphicMarkInstance *> >, COMDAT

; 962  :     _Alloc_ptr_t<_Alloc> _First, const _Alloc_ptr_t<_Alloc> _Last, _Alloc& _Al) noexcept {

  00000	55		 push	 ebp
  00001	8b ec		 mov	 ebp, esp

; 963  :     // note that this is an optimization for debug mode codegen; in release mode the BE removes all of this
; 964  :     using _Ty = typename _Alloc::value_type;
; 965  :     if _CONSTEXPR_IF (!conjunction_v<is_trivially_destructible<_Ty>, _Uses_default_destroy<_Alloc, _Ty*>>) {
; 966  :         for (; _First != _Last; ++_First) {
; 967  :             allocator_traits<_Alloc>::destroy(_Al, _Unfancy(_First));
; 968  :         }
; 969  :     }
; 970  : }

  00003	5d		 pop	 ebp
  00004	c3		 ret	 0
??$_Destroy_range@V?$allocator@PAVCGraphicMarkInstance@@@std@@@std@@YAXPAPAVCGraphicMarkInstance@@QAPAV1@AAV?$allocator@PAVCGraphicMarkInstance@@@0@@Z ENDP ; std::_Destroy_range<std::allocator<CGraphicMarkInstance *> >
_TEXT	ENDS
; Function compile flags: /Odspy
; File C:\Program Files (x86)\Microsoft Visual Studio\2019\Community\VC\Tools\MSVC\14.28.29333\include\vector
; File C:\Program Files (x86)\Microsoft Visual Studio\2019\Community\VC\Tools\MSVC\14.28.29333\include\xmemory
; File C:\Program Files (x86)\Microsoft Visual Studio\2019\Community\VC\Tools\MSVC\14.28.29333\include\vector
; File C:\Program Files (x86)\Microsoft Visual Studio\2019\Community\VC\Tools\MSVC\14.28.29333\include\xmemory
; File C:\Program Files (x86)\Microsoft Visual Studio\2019\Community\VC\Tools\MSVC\14.28.29333\include\vector
; File C:\Program Files (x86)\Microsoft Visual Studio\2019\Community\VC\Tools\MSVC\14.28.29333\include\xmemory
; File C:\Program Files (x86)\Microsoft Visual Studio\2019\Community\VC\Tools\MSVC\14.28.29333\include\limits
; File C:\Program Files (x86)\Microsoft Visual Studio\2019\Community\VC\Tools\MSVC\14.28.29333\include\vector
; File C:\Program Files (x86)\Microsoft Visual Studio\2019\Community\VC\Tools\MSVC\14.28.29333\include\utility
; File C:\Program Files (x86)\Microsoft Visual Studio\2019\Community\VC\Tools\MSVC\14.28.29333\include\vector
; File C:\Program Files (x86)\Microsoft Visual Studio\2019\Community\VC\Tools\MSVC\14.28.29333\include\xmemory
; File C:\Program Files (x86)\Microsoft Visual Studio\2019\Community\VC\Tools\MSVC\14.28.29333\include\vector
; File C:\Program Files (x86)\Microsoft Visual Studio\2019\Community\VC\Tools\MSVC\14.28.29333\include\type_traits
; File C:\Program Files (x86)\Microsoft Visual Studio\2019\Community\VC\Tools\MSVC\14.28.29333\include\vector
; File C:\Program Files (x86)\Microsoft Visual Studio\2019\Community\VC\Tools\MSVC\14.28.29333\include\xstddef
; File C:\Program Files (x86)\Microsoft Visual Studio\2019\Community\VC\Tools\MSVC\14.28.29333\include\vcruntime_new.h
; File C:\Program Files (x86)\Microsoft Visual Studio\2019\Community\VC\Tools\MSVC\14.28.29333\include\type_traits
; File C:\Program Files (x86)\Microsoft Visual Studio\2019\Community\VC\Tools\MSVC\14.28.29333\include\xmemory
; File C:\Program Files (x86)\Microsoft Visual Studio\2019\Community\VC\Tools\MSVC\14.28.29333\include\vector
; File C:\Program Files (x86)\Microsoft Visual Studio\2019\Community\VC\Tools\MSVC\14.28.29333\include\xmemory
; File C:\Program Files (x86)\Microsoft Visual Studio\2019\Community\VC\Tools\MSVC\14.28.29333\include\vector
; File C:\Program Files (x86)\Microsoft Visual Studio\2019\Community\VC\Tools\MSVC\14.28.29333\include\xmemory
; File C:\Program Files (x86)\Microsoft Visual Studio\2019\Community\VC\Tools\MSVC\14.28.29333\include\vector
; File C:\Program Files (x86)\Microsoft Visual Studio\2019\Community\VC\Tools\MSVC\14.28.29333\include\xmemory
; File C:\Program Files (x86)\Microsoft Visual Studio\2019\Community\VC\Tools\MSVC\14.28.29333\include\vector
;	COMDAT ??$_Emplace_reallocate@ABQAVCGraphicMarkInstance@@@?$vector@PAVCGraphicMarkInstance@@V?$allocator@PAVCGraphicMarkInstance@@@std@@@std@@QAEPAPAVCGraphicMarkInstance@@QAPAV2@ABQAV2@@Z
_TEXT	SEGMENT
__Max_possible$2 = -68					; size = 4
$T3 = -64						; size = 4
__Al$ = -60						; size = 4
__Last$ = -56						; size = 4
$T4 = -52						; size = 4
$T5 = -48						; size = 4
__First$ = -44						; size = 4
$T6 = -40						; size = 4
$T7 = -36						; size = 4
__First$ = -32						; size = 4
__Last$ = -28						; size = 4
$T8 = -24						; size = 4
$T9 = -20						; size = 4
__$EHRec$ = -16						; size = 16
$T10 = 0						; size = 4
$T11 = 4						; size = 4
$T12 = 8						; size = 4
$T13 = 12						; size = 4
$T14 = 16						; size = 4
$T15 = 20						; size = 4
$T16 = 24						; size = 4
$T17 = 28						; size = 4
$T18 = 32						; size = 4
$T19 = 36						; size = 4
$T20 = 40						; size = 4
__Newsize$ = 44						; size = 4
__Constructed_last$ = 48				; size = 4
__Oldsize$ = 52						; size = 4
tv172 = 56						; size = 4
$T21 = 60						; size = 4
$T22 = 64						; size = 4
__My_data$ = 68						; size = 4
__Constructed_first$ = 72				; size = 4
___formal$ = 76						; size = 1
__Overflow_is_possible$23 = 83				; size = 1
__Newcapacity$ = 84					; size = 4
__Mylast$ = 88						; size = 4
__Myfirst$ = 92						; size = 4
__Whereoff$ = 96					; size = 4
$T24 = 103						; size = 1
_this$ = 104						; size = 4
__Newvec$ = 108						; size = 4
__Whereptr$ = 120					; size = 4
_<_Val_0>$ = 124					; size = 4
??$_Emplace_reallocate@ABQAVCGraphicMarkInstance@@@?$vector@PAVCGraphicMarkInstance@@V?$allocator@PAVCGraphicMarkInstance@@@std@@@std@@QAEPAPAVCGraphicMarkInstance@@QAPAV2@ABQAV2@@Z PROC ; std::vector<CGraphicMarkInstance *,std::allocator<CGraphicMarkInstance *> >::_Emplace_reallocate<CGraphicMarkInstance * const &>, COMDAT
; _this$ = ecx

; 725  :     pointer _Emplace_reallocate(const pointer _Whereptr, _Valty&&... _Val) {

  00000	55		 push	 ebp
  00001	8d 6c 24 90	 lea	 ebp, DWORD PTR [esp-112]
  00005	83 ec 70	 sub	 esp, 112		; 00000070H
  00008	6a ff		 push	 -1
  0000a	68 00 00 00 00	 push	 __ehhandler$??$_Emplace_reallocate@ABQAVCGraphicMarkInstance@@@?$vector@PAVCGraphicMarkInstance@@V?$allocator@PAVCGraphicMarkInstance@@@std@@@std@@QAEPAPAVCGraphicMarkInstance@@QAPAV2@ABQAV2@@Z
  0000f	64 a1 00 00 00
	00		 mov	 eax, DWORD PTR fs:0
  00015	50		 push	 eax
  00016	51		 push	 ecx
  00017	83 ec 34	 sub	 esp, 52			; 00000034H
  0001a	53		 push	 ebx
  0001b	56		 push	 esi
  0001c	57		 push	 edi
  0001d	a1 00 00 00 00	 mov	 eax, DWORD PTR ___security_cookie
  00022	33 c5		 xor	 eax, ebp
  00024	50		 push	 eax
  00025	8d 45 f4	 lea	 eax, DWORD PTR __$EHRec$[ebp+4]
  00028	64 a3 00 00 00
	00		 mov	 DWORD PTR fs:0, eax
  0002e	89 65 f0	 mov	 DWORD PTR __$EHRec$[ebp], esp
  00031	89 4d 68	 mov	 DWORD PTR _this$[ebp], ecx

; 1733 :         return _Mypair._Get_first();

  00034	8b 45 68	 mov	 eax, DWORD PTR _this$[ebp]
; File C:\Program Files (x86)\Microsoft Visual Studio\2019\Community\VC\Tools\MSVC\14.28.29333\include\xmemory

; 1347 :         return *this;

  00037	89 45 28	 mov	 DWORD PTR $T20[ebp], eax
; File C:\Program Files (x86)\Microsoft Visual Studio\2019\Community\VC\Tools\MSVC\14.28.29333\include\vector

; 1733 :         return _Mypair._Get_first();

  0003a	8b 45 28	 mov	 eax, DWORD PTR $T20[ebp]
  0003d	89 45 c4	 mov	 DWORD PTR __Al$[ebp], eax

; 726  :         // reallocate and insert by perfectly forwarding _Val at _Whereptr
; 727  :         _Alty& _Al        = _Getal();
; 728  :         auto& _My_data    = _Mypair._Myval2;

  00040	8b 45 68	 mov	 eax, DWORD PTR _this$[ebp]
  00043	89 45 44	 mov	 DWORD PTR __My_data$[ebp], eax

; 729  :         pointer& _Myfirst = _My_data._Myfirst;

  00046	8b 45 44	 mov	 eax, DWORD PTR __My_data$[ebp]
  00049	89 45 5c	 mov	 DWORD PTR __Myfirst$[ebp], eax

; 730  :         pointer& _Mylast  = _My_data._Mylast;

  0004c	8b 45 44	 mov	 eax, DWORD PTR __My_data$[ebp]
  0004f	83 c0 04	 add	 eax, 4
  00052	89 45 58	 mov	 DWORD PTR __Mylast$[ebp], eax

; 731  : 
; 732  :         _STL_INTERNAL_CHECK(_Mylast == _My_data._Myend); // check that we have no unused capacity
; 733  : 
; 734  :         const auto _Whereoff = static_cast<size_type>(_Whereptr - _Myfirst);

  00055	8b 45 5c	 mov	 eax, DWORD PTR __Myfirst$[ebp]
  00058	8b 4d 78	 mov	 ecx, DWORD PTR __Whereptr$[ebp]
  0005b	2b 08		 sub	 ecx, DWORD PTR [eax]
  0005d	c1 f9 02	 sar	 ecx, 2
  00060	89 4d 60	 mov	 DWORD PTR __Whereoff$[ebp], ecx

; 735  :         const auto _Oldsize  = static_cast<size_type>(_Mylast - _Myfirst);

  00063	8b 45 58	 mov	 eax, DWORD PTR __Mylast$[ebp]
  00066	8b 4d 5c	 mov	 ecx, DWORD PTR __Myfirst$[ebp]
  00069	8b 00		 mov	 eax, DWORD PTR [eax]
  0006b	2b 01		 sub	 eax, DWORD PTR [ecx]
  0006d	c1 f8 02	 sar	 eax, 2
  00070	89 45 34	 mov	 DWORD PTR __Oldsize$[ebp], eax

; 1737 :         return _Mypair._Get_first();

  00073	8b 45 68	 mov	 eax, DWORD PTR _this$[ebp]
; File C:\Program Files (x86)\Microsoft Visual Studio\2019\Community\VC\Tools\MSVC\14.28.29333\include\xmemory

; 1351 :         return *this;

  00076	89 45 24	 mov	 DWORD PTR $T19[ebp], eax
; File C:\Program Files (x86)\Microsoft Visual Studio\2019\Community\VC\Tools\MSVC\14.28.29333\include\vector

; 1737 :         return _Mypair._Get_first();

  00079	8b 45 24	 mov	 eax, DWORD PTR $T19[ebp]
  0007c	89 45 c0	 mov	 DWORD PTR $T3[ebp], eax
; File C:\Program Files (x86)\Microsoft Visual Studio\2019\Community\VC\Tools\MSVC\14.28.29333\include\xmemory

; 710  :         return static_cast<size_t>(-1) / sizeof(value_type);

  0007f	c7 45 40 ff ff
	ff 3f		 mov	 DWORD PTR $T22[ebp], 1073741823 ; 3fffffffH
; File C:\Program Files (x86)\Microsoft Visual Studio\2019\Community\VC\Tools\MSVC\14.28.29333\include\limits

; 557  :         return INT_MAX;

  00086	c7 45 20 ff ff
	ff 7f		 mov	 DWORD PTR $T18[ebp], 2147483647 ; 7fffffffH
; File C:\Program Files (x86)\Microsoft Visual Studio\2019\Community\VC\Tools\MSVC\14.28.29333\include\vector

; 1488 :         return (_STD min)(

  0008d	8b 45 20	 mov	 eax, DWORD PTR $T18[ebp]
  00090	89 45 3c	 mov	 DWORD PTR $T21[ebp], eax
; File C:\Program Files (x86)\Microsoft Visual Studio\2019\Community\VC\Tools\MSVC\14.28.29333\include\utility

; 68   :     return _Right < _Left ? _Right : _Left;

  00093	8b 45 40	 mov	 eax, DWORD PTR $T22[ebp]
  00096	3b 45 3c	 cmp	 eax, DWORD PTR $T21[ebp]
  00099	73 08		 jae	 SHORT $LN34@Emplace_re
  0009b	8d 45 40	 lea	 eax, DWORD PTR $T22[ebp]
  0009e	89 45 38	 mov	 DWORD PTR tv172[ebp], eax
  000a1	eb 06		 jmp	 SHORT $LN35@Emplace_re
$LN34@Emplace_re:
  000a3	8d 45 3c	 lea	 eax, DWORD PTR $T21[ebp]
  000a6	89 45 38	 mov	 DWORD PTR tv172[ebp], eax
$LN35@Emplace_re:
  000a9	8b 45 38	 mov	 eax, DWORD PTR tv172[ebp]
  000ac	89 45 1c	 mov	 DWORD PTR $T17[ebp], eax
  000af	8b 45 1c	 mov	 eax, DWORD PTR $T17[ebp]
  000b2	89 45 18	 mov	 DWORD PTR $T16[ebp], eax
; File C:\Program Files (x86)\Microsoft Visual Studio\2019\Community\VC\Tools\MSVC\14.28.29333\include\vector

; 1488 :         return (_STD min)(

  000b5	8b 45 18	 mov	 eax, DWORD PTR $T16[ebp]
  000b8	8b 00		 mov	 eax, DWORD PTR [eax]
  000ba	89 45 14	 mov	 DWORD PTR $T15[ebp], eax

; 736  : 
; 737  :         if (_Oldsize == max_size()) {

  000bd	8b 45 34	 mov	 eax, DWORD PTR __Oldsize$[ebp]
  000c0	3b 45 14	 cmp	 eax, DWORD PTR $T15[ebp]
  000c3	75 05		 jne	 SHORT $LN2@Emplace_re

; 738  :             _Xlength();

  000c5	e8 00 00 00 00	 call	 ?_Xlength@?$vector@PAVCGraphicMarkInstance@@V?$allocator@PAVCGraphicMarkInstance@@@std@@@std@@CAXXZ ; std::vector<CGraphicMarkInstance *,std::allocator<CGraphicMarkInstance *> >::_Xlength
$LN2@Emplace_re:

; 739  :         }
; 740  : 
; 741  :         const size_type _Newsize     = _Oldsize + 1;

  000ca	8b 45 34	 mov	 eax, DWORD PTR __Oldsize$[ebp]
  000cd	40		 inc	 eax
  000ce	89 45 2c	 mov	 DWORD PTR __Newsize$[ebp], eax

; 742  :         const size_type _Newcapacity = _Calculate_growth(_Newsize);

  000d1	ff 75 2c	 push	 DWORD PTR __Newsize$[ebp]
  000d4	8b 4d 68	 mov	 ecx, DWORD PTR _this$[ebp]
  000d7	e8 00 00 00 00	 call	 ?_Calculate_growth@?$vector@PAVCGraphicMarkInstance@@V?$allocator@PAVCGraphicMarkInstance@@@std@@@std@@ABEII@Z ; std::vector<CGraphicMarkInstance *,std::allocator<CGraphicMarkInstance *> >::_Calculate_growth
  000dc	89 45 54	 mov	 DWORD PTR __Newcapacity$[ebp], eax
; File C:\Program Files (x86)\Microsoft Visual Studio\2019\Community\VC\Tools\MSVC\14.28.29333\include\xmemory

; 56   :     constexpr bool _Overflow_is_possible = _Ty_size > 1;

  000df	c6 45 53 01	 mov	 BYTE PTR __Overflow_is_possible$23[ebp], 1

; 57   : 
; 58   :     if _CONSTEXPR_IF (_Overflow_is_possible) {
; 59   :         constexpr size_t _Max_possible = static_cast<size_t>(-1) / _Ty_size;

  000e3	c7 45 bc ff ff
	ff 3f		 mov	 DWORD PTR __Max_possible$2[ebp], 1073741823 ; 3fffffffH

; 60   :         if (_Count > _Max_possible) {

  000ea	81 7d 54 ff ff
	ff 3f		 cmp	 DWORD PTR __Newcapacity$[ebp], 1073741823 ; 3fffffffH
  000f1	76 05		 jbe	 SHORT $LN67@Emplace_re

; 61   :             _Throw_bad_array_new_length(); // multiply overflow

  000f3	e8 00 00 00 00	 call	 ?_Throw_bad_array_new_length@std@@YAXXZ ; std::_Throw_bad_array_new_length
$LN67@Emplace_re:

; 62   :         }
; 63   :     }
; 64   : 
; 65   :     return _Count * _Ty_size;

  000f8	8b 45 54	 mov	 eax, DWORD PTR __Newcapacity$[ebp]
  000fb	c1 e0 02	 shl	 eax, 2
  000fe	89 45 10	 mov	 DWORD PTR $T14[ebp], eax

; 814  :         return static_cast<_Ty*>(_Allocate<_New_alignof<_Ty>>(_Get_size_of_n<sizeof(_Ty)>(_Count)));

  00101	ff 75 10	 push	 DWORD PTR $T14[ebp]
  00104	e8 00 00 00 00	 call	 ??$_Allocate@$07U_Default_allocate_traits@std@@$0A@@std@@YAPAXI@Z ; std::_Allocate<8,std::_Default_allocate_traits,0>
  00109	59		 pop	 ecx
  0010a	89 45 6c	 mov	 DWORD PTR __Newvec$[ebp], eax
; File C:\Program Files (x86)\Microsoft Visual Studio\2019\Community\VC\Tools\MSVC\14.28.29333\include\vector

; 745  :         const pointer _Constructed_last = _Newvec + _Whereoff + 1;

  0010d	8b 45 60	 mov	 eax, DWORD PTR __Whereoff$[ebp]
  00110	8b 4d 6c	 mov	 ecx, DWORD PTR __Newvec$[ebp]
  00113	8d 44 81 04	 lea	 eax, DWORD PTR [ecx+eax*4+4]
  00117	89 45 30	 mov	 DWORD PTR __Constructed_last$[ebp], eax

; 746  :         pointer _Constructed_first      = _Constructed_last;

  0011a	8b 45 30	 mov	 eax, DWORD PTR __Constructed_last$[ebp]
  0011d	89 45 48	 mov	 DWORD PTR __Constructed_first$[ebp], eax

; 747  : 
; 748  :         _TRY_BEGIN

  00120	83 65 fc 00	 and	 DWORD PTR __$EHRec$[ebp+12], 0
; File C:\Program Files (x86)\Microsoft Visual Studio\2019\Community\VC\Tools\MSVC\14.28.29333\include\type_traits

; 1443 :     return static_cast<_Ty&&>(_Arg);

  00124	8b 45 7c	 mov	 eax, DWORD PTR _<_Val_0>$[ebp]
  00127	89 45 08	 mov	 DWORD PTR $T12[ebp], eax
; File C:\Program Files (x86)\Microsoft Visual Studio\2019\Community\VC\Tools\MSVC\14.28.29333\include\vector

; 749  :         _Alty_traits::construct(_Al, _Unfancy(_Newvec + _Whereoff), _STD forward<_Valty>(_Val)...);

  0012a	8b 45 60	 mov	 eax, DWORD PTR __Whereoff$[ebp]
  0012d	8b 4d 6c	 mov	 ecx, DWORD PTR __Newvec$[ebp]
  00130	8d 04 81	 lea	 eax, DWORD PTR [ecx+eax*4]
; File C:\Program Files (x86)\Microsoft Visual Studio\2019\Community\VC\Tools\MSVC\14.28.29333\include\xstddef

; 289  :     return _Ptr;

  00133	89 45 0c	 mov	 DWORD PTR $T13[ebp], eax
; File C:\Program Files (x86)\Microsoft Visual Studio\2019\Community\VC\Tools\MSVC\14.28.29333\include\vcruntime_new.h

; 169  :         return _Where;

  00136	8b 45 0c	 mov	 eax, DWORD PTR $T13[ebp]
  00139	89 45 04	 mov	 DWORD PTR $T11[ebp], eax
; File C:\Program Files (x86)\Microsoft Visual Studio\2019\Community\VC\Tools\MSVC\14.28.29333\include\type_traits

; 1443 :     return static_cast<_Ty&&>(_Arg);

  0013c	8b 45 08	 mov	 eax, DWORD PTR $T12[ebp]
  0013f	89 45 00	 mov	 DWORD PTR $T10[ebp], eax
; File C:\Program Files (x86)\Microsoft Visual Studio\2019\Community\VC\Tools\MSVC\14.28.29333\include\xmemory

; 701  :         ::new (const_cast<void*>(static_cast<const volatile void*>(_Ptr))) _Objty(_STD forward<_Types>(_Args)...);

  00142	8b 45 04	 mov	 eax, DWORD PTR $T11[ebp]
  00145	8b 4d 00	 mov	 ecx, DWORD PTR $T10[ebp]
  00148	8b 09		 mov	 ecx, DWORD PTR [ecx]
  0014a	89 08		 mov	 DWORD PTR [eax], ecx
; File C:\Program Files (x86)\Microsoft Visual Studio\2019\Community\VC\Tools\MSVC\14.28.29333\include\vector

; 750  :         _Constructed_first = _Newvec + _Whereoff;

  0014c	8b 45 60	 mov	 eax, DWORD PTR __Whereoff$[ebp]
  0014f	8b 4d 6c	 mov	 ecx, DWORD PTR __Newvec$[ebp]
  00152	8d 04 81	 lea	 eax, DWORD PTR [ecx+eax*4]
  00155	89 45 48	 mov	 DWORD PTR __Constructed_first$[ebp], eax

; 751  : 
; 752  :         if (_Whereptr == _Mylast) { // at back, provide strong guarantee

  00158	8b 45 58	 mov	 eax, DWORD PTR __Mylast$[ebp]
  0015b	8b 4d 78	 mov	 ecx, DWORD PTR __Whereptr$[ebp]
  0015e	3b 08		 cmp	 ecx, DWORD PTR [eax]
  00160	75 3d		 jne	 SHORT $LN4@Emplace_re

; 753  :             _Umove_if_noexcept(_Myfirst, _Mylast, _Newvec);

  00162	8b 45 58	 mov	 eax, DWORD PTR __Mylast$[ebp]
  00165	8b 00		 mov	 eax, DWORD PTR [eax]
  00167	89 45 e4	 mov	 DWORD PTR __Last$[ebp], eax
  0016a	8b 45 5c	 mov	 eax, DWORD PTR __Myfirst$[ebp]
  0016d	8b 00		 mov	 eax, DWORD PTR [eax]
  0016f	89 45 e0	 mov	 DWORD PTR __First$[ebp], eax

; 1607 :         _Umove_if_noexcept1(_First, _Last, _Dest,

  00172	33 c0		 xor	 eax, eax
  00174	88 45 67	 mov	 BYTE PTR $T24[ebp], al
  00177	8a 45 67	 mov	 al, BYTE PTR $T24[ebp]
  0017a	88 45 4c	 mov	 BYTE PTR ___formal$[ebp], al

; 1733 :         return _Mypair._Get_first();

  0017d	8b 45 68	 mov	 eax, DWORD PTR _this$[ebp]
; File C:\Program Files (x86)\Microsoft Visual Studio\2019\Community\VC\Tools\MSVC\14.28.29333\include\xmemory

; 1347 :         return *this;

  00180	89 45 ec	 mov	 DWORD PTR $T9[ebp], eax
; File C:\Program Files (x86)\Microsoft Visual Studio\2019\Community\VC\Tools\MSVC\14.28.29333\include\vector

; 1733 :         return _Mypair._Get_first();

  00183	8b 45 ec	 mov	 eax, DWORD PTR $T9[ebp]
  00186	89 45 e8	 mov	 DWORD PTR $T8[ebp], eax

; 1597 :         _Uninitialized_move(_First, _Last, _Dest, _Getal());

  00189	ff 75 e8	 push	 DWORD PTR $T8[ebp]
  0018c	ff 75 6c	 push	 DWORD PTR __Newvec$[ebp]
  0018f	ff 75 e4	 push	 DWORD PTR __Last$[ebp]
  00192	ff 75 e0	 push	 DWORD PTR __First$[ebp]
  00195	e8 00 00 00 00	 call	 ??$_Uninitialized_move@PAPAVCGraphicMarkInstance@@V?$allocator@PAVCGraphicMarkInstance@@@std@@@std@@YAPAPAVCGraphicMarkInstance@@QAPAV1@0PAPAV1@AAV?$allocator@PAVCGraphicMarkInstance@@@0@@Z ; std::_Uninitialized_move<CGraphicMarkInstance * *,std::allocator<CGraphicMarkInstance *> >
  0019a	83 c4 10	 add	 esp, 16			; 00000010H

; 754  :         } else { // provide basic guarantee

  0019d	eb 5e		 jmp	 SHORT $LN5@Emplace_re
$LN4@Emplace_re:

; 755  :             _Umove(_Myfirst, _Whereptr, _Newvec);

  0019f	8b 45 5c	 mov	 eax, DWORD PTR __Myfirst$[ebp]
  001a2	8b 00		 mov	 eax, DWORD PTR [eax]
  001a4	89 45 d4	 mov	 DWORD PTR __First$[ebp], eax

; 1733 :         return _Mypair._Get_first();

  001a7	8b 45 68	 mov	 eax, DWORD PTR _this$[ebp]
; File C:\Program Files (x86)\Microsoft Visual Studio\2019\Community\VC\Tools\MSVC\14.28.29333\include\xmemory

; 1347 :         return *this;

  001aa	89 45 dc	 mov	 DWORD PTR $T7[ebp], eax
; File C:\Program Files (x86)\Microsoft Visual Studio\2019\Community\VC\Tools\MSVC\14.28.29333\include\vector

; 1733 :         return _Mypair._Get_first();

  001ad	8b 45 dc	 mov	 eax, DWORD PTR $T7[ebp]
  001b0	89 45 d8	 mov	 DWORD PTR $T6[ebp], eax

; 1592 :         return _Uninitialized_move(_First, _Last, _Dest, _Getal());

  001b3	ff 75 d8	 push	 DWORD PTR $T6[ebp]
  001b6	ff 75 6c	 push	 DWORD PTR __Newvec$[ebp]
  001b9	ff 75 78	 push	 DWORD PTR __Whereptr$[ebp]
  001bc	ff 75 d4	 push	 DWORD PTR __First$[ebp]
  001bf	e8 00 00 00 00	 call	 ??$_Uninitialized_move@PAPAVCGraphicMarkInstance@@V?$allocator@PAVCGraphicMarkInstance@@@std@@@std@@YAPAPAVCGraphicMarkInstance@@QAPAV1@0PAPAV1@AAV?$allocator@PAVCGraphicMarkInstance@@@0@@Z ; std::_Uninitialized_move<CGraphicMarkInstance * *,std::allocator<CGraphicMarkInstance *> >
  001c4	83 c4 10	 add	 esp, 16			; 00000010H

; 756  :             _Constructed_first = _Newvec;

  001c7	8b 45 6c	 mov	 eax, DWORD PTR __Newvec$[ebp]
  001ca	89 45 48	 mov	 DWORD PTR __Constructed_first$[ebp], eax

; 757  :             _Umove(_Whereptr, _Mylast, _Newvec + _Whereoff + 1);

  001cd	8b 45 58	 mov	 eax, DWORD PTR __Mylast$[ebp]
  001d0	8b 00		 mov	 eax, DWORD PTR [eax]
  001d2	89 45 c8	 mov	 DWORD PTR __Last$[ebp], eax

; 1733 :         return _Mypair._Get_first();

  001d5	8b 45 68	 mov	 eax, DWORD PTR _this$[ebp]
; File C:\Program Files (x86)\Microsoft Visual Studio\2019\Community\VC\Tools\MSVC\14.28.29333\include\xmemory

; 1347 :         return *this;

  001d8	89 45 d0	 mov	 DWORD PTR $T5[ebp], eax
; File C:\Program Files (x86)\Microsoft Visual Studio\2019\Community\VC\Tools\MSVC\14.28.29333\include\vector

; 1733 :         return _Mypair._Get_first();

  001db	8b 45 d0	 mov	 eax, DWORD PTR $T5[ebp]
  001de	89 45 cc	 mov	 DWORD PTR $T4[ebp], eax

; 1592 :         return _Uninitialized_move(_First, _Last, _Dest, _Getal());

  001e1	ff 75 cc	 push	 DWORD PTR $T4[ebp]

; 757  :             _Umove(_Whereptr, _Mylast, _Newvec + _Whereoff + 1);

  001e4	8b 45 60	 mov	 eax, DWORD PTR __Whereoff$[ebp]
  001e7	8b 4d 6c	 mov	 ecx, DWORD PTR __Newvec$[ebp]
  001ea	8d 44 81 04	 lea	 eax, DWORD PTR [ecx+eax*4+4]

; 1592 :         return _Uninitialized_move(_First, _Last, _Dest, _Getal());

  001ee	50		 push	 eax
  001ef	ff 75 c8	 push	 DWORD PTR __Last$[ebp]
  001f2	ff 75 78	 push	 DWORD PTR __Whereptr$[ebp]
  001f5	e8 00 00 00 00	 call	 ??$_Uninitialized_move@PAPAVCGraphicMarkInstance@@V?$allocator@PAVCGraphicMarkInstance@@@std@@@std@@YAPAPAVCGraphicMarkInstance@@QAPAV1@0PAPAV1@AAV?$allocator@PAVCGraphicMarkInstance@@@0@@Z ; std::_Uninitialized_move<CGraphicMarkInstance * *,std::allocator<CGraphicMarkInstance *> >
  001fa	83 c4 10	 add	 esp, 16			; 00000010H
$LN5@Emplace_re:

; 757  :             _Umove(_Whereptr, _Mylast, _Newvec + _Whereoff + 1);

  001fd	eb 2b		 jmp	 SHORT $LN7@Emplace_re
__catch$??$_Emplace_reallocate@ABQAVCGraphicMarkInstance@@@?$vector@PAVCGraphicMarkInstance@@V?$allocator@PAVCGraphicMarkInstance@@@std@@@std@@QAEPAPAVCGraphicMarkInstance@@QAPAV2@ABQAV2@@Z$0:

; 758  :         }
; 759  :         _CATCH_ALL
; 760  :         _Destroy(_Constructed_first, _Constructed_last);

  001ff	ff 75 30	 push	 DWORD PTR __Constructed_last$[ebp]
  00202	ff 75 48	 push	 DWORD PTR __Constructed_first$[ebp]
  00205	8b 4d 68	 mov	 ecx, DWORD PTR _this$[ebp]
  00208	e8 00 00 00 00	 call	 ?_Destroy@?$vector@PAVCGraphicMarkInstance@@V?$allocator@PAVCGraphicMarkInstance@@@std@@@std@@AAEXPAPAVCGraphicMarkInstance@@0@Z ; std::vector<CGraphicMarkInstance *,std::allocator<CGraphicMarkInstance *> >::_Destroy

; 761  :         _Al.deallocate(_Newvec, _Newcapacity);

  0020d	ff 75 54	 push	 DWORD PTR __Newcapacity$[ebp]
  00210	ff 75 6c	 push	 DWORD PTR __Newvec$[ebp]
  00213	8b 4d c4	 mov	 ecx, DWORD PTR __Al$[ebp]
  00216	e8 00 00 00 00	 call	 ?deallocate@?$allocator@PAVCGraphicMarkInstance@@@std@@QAEXQAPAVCGraphicMarkInstance@@I@Z ; std::allocator<CGraphicMarkInstance *>::deallocate

; 762  :         _RERAISE;

  0021b	6a 00		 push	 0
  0021d	6a 00		 push	 0
  0021f	e8 00 00 00 00	 call	 __CxxThrowException@8

; 763  :         _CATCH_END

  00224	b8 00 00 00 00	 mov	 eax, $LN10@Emplace_re
  00229	c3		 ret	 0
$LN7@Emplace_re:
  0022a	83 4d fc ff	 or	 DWORD PTR __$EHRec$[ebp+12], -1
  0022e	eb 04		 jmp	 SHORT __tryend$??$_Emplace_reallocate@ABQAVCGraphicMarkInstance@@@?$vector@PAVCGraphicMarkInstance@@V?$allocator@PAVCGraphicMarkInstance@@@std@@@std@@QAEPAPAVCGraphicMarkInstance@@QAPAV2@ABQAV2@@Z$1
$LN10@Emplace_re:
; File C:\Program Files (x86)\Microsoft Visual Studio\2019\Community\VC\Tools\MSVC\14.28.29333\include\xmemory
  00230	83 4d fc ff	 or	 DWORD PTR __$EHRec$[ebp+12], -1
__tryend$??$_Emplace_reallocate@ABQAVCGraphicMarkInstance@@@?$vector@PAVCGraphicMarkInstance@@V?$allocator@PAVCGraphicMarkInstance@@@std@@@std@@QAEPAPAVCGraphicMarkInstance@@QAPAV2@ABQAV2@@Z$1:
; File C:\Program Files (x86)\Microsoft Visual Studio\2019\Community\VC\Tools\MSVC\14.28.29333\include\vector

; 764  : 
; 765  :         _Change_array(_Newvec, _Newsize, _Newcapacity);

  00234	ff 75 54	 push	 DWORD PTR __Newcapacity$[ebp]
  00237	ff 75 2c	 push	 DWORD PTR __Newsize$[ebp]
  0023a	ff 75 6c	 push	 DWORD PTR __Newvec$[ebp]
  0023d	8b 4d 68	 mov	 ecx, DWORD PTR _this$[ebp]
  00240	e8 00 00 00 00	 call	 ?_Change_array@?$vector@PAVCGraphicMarkInstance@@V?$allocator@PAVCGraphicMarkInstance@@@std@@@std@@AAEXQAPAVCGraphicMarkInstance@@II@Z ; std::vector<CGraphicMarkInstance *,std::allocator<CGraphicMarkInstance *> >::_Change_array

; 766  :         return _Newvec + _Whereoff;

  00245	8b 45 60	 mov	 eax, DWORD PTR __Whereoff$[ebp]
  00248	8b 4d 6c	 mov	 ecx, DWORD PTR __Newvec$[ebp]
  0024b	8d 04 81	 lea	 eax, DWORD PTR [ecx+eax*4]
$LN70@Emplace_re:

; 767  :     }

  0024e	8b 4d f4	 mov	 ecx, DWORD PTR __$EHRec$[ebp+4]
  00251	64 89 0d 00 00
	00 00		 mov	 DWORD PTR fs:0, ecx
  00258	59		 pop	 ecx
  00259	5f		 pop	 edi
  0025a	5e		 pop	 esi
  0025b	5b		 pop	 ebx
  0025c	83 c5 70	 add	 ebp, 112		; 00000070H
  0025f	c9		 leave
  00260	c2 08 00	 ret	 8
  00263	cc		 int	 3
  00264	cc		 int	 3
  00265	cc		 int	 3
  00266	cc		 int	 3
  00267	cc		 int	 3
_TEXT	ENDS
;	COMDAT text$x
text$x	SEGMENT
__ehhandler$??$_Emplace_reallocate@ABQAVCGraphicMarkInstance@@@?$vector@PAVCGraphicMarkInstance@@V?$allocator@PAVCGraphicMarkInstance@@@std@@@std@@QAEPAPAVCGraphicMarkInstance@@QAPAV2@ABQAV2@@Z:
  00000	90		 npad	 1
  00001	90		 npad	 1
  00002	8b 54 24 08	 mov	 edx, DWORD PTR [esp+8]
  00006	8d 42 0c	 lea	 eax, DWORD PTR [edx+12]
  00009	8b 4a b8	 mov	 ecx, DWORD PTR [edx-72]
  0000c	33 c8		 xor	 ecx, eax
  0000e	e8 00 00 00 00	 call	 @__security_check_cookie@4
  00013	b8 00 00 00 00	 mov	 eax, OFFSET __ehfuncinfo$??$_Emplace_reallocate@ABQAVCGraphicMarkInstance@@@?$vector@PAVCGraphicMarkInstance@@V?$allocator@PAVCGraphicMarkInstance@@@std@@@std@@QAEPAPAVCGraphicMarkInstance@@QAPAV2@ABQAV2@@Z
  00018	e9 00 00 00 00	 jmp	 ___CxxFrameHandler3
text$x	ENDS
??$_Emplace_reallocate@ABQAVCGraphicMarkInstance@@@?$vector@PAVCGraphicMarkInstance@@V?$allocator@PAVCGraphicMarkInstance@@@std@@@std@@QAEPAPAVCGraphicMarkInstance@@QAPAV2@ABQAV2@@Z ENDP ; std::vector<CGraphicMarkInstance *,std::allocator<CGraphicMarkInstance *> >::_Emplace_reallocate<CGraphicMarkInstance * const &>
; Function compile flags: /Odspy
; File C:\Program Files (x86)\Microsoft Visual Studio\2019\Community\VC\Tools\MSVC\14.28.29333\include\vector
; File C:\Program Files (x86)\Microsoft Visual Studio\2019\Community\VC\Tools\MSVC\14.28.29333\include\type_traits
; File C:\Program Files (x86)\Microsoft Visual Studio\2019\Community\VC\Tools\MSVC\14.28.29333\include\vector
; File C:\Program Files (x86)\Microsoft Visual Studio\2019\Community\VC\Tools\MSVC\14.28.29333\include\xstddef
; File C:\Program Files (x86)\Microsoft Visual Studio\2019\Community\VC\Tools\MSVC\14.28.29333\include\vector
; File C:\Program Files (x86)\Microsoft Visual Studio\2019\Community\VC\Tools\MSVC\14.28.29333\include\xmemory
; File C:\Program Files (x86)\Microsoft Visual Studio\2019\Community\VC\Tools\MSVC\14.28.29333\include\vector
; File C:\Program Files (x86)\Microsoft Visual Studio\2019\Community\VC\Tools\MSVC\14.28.29333\include\vcruntime_new.h
; File C:\Program Files (x86)\Microsoft Visual Studio\2019\Community\VC\Tools\MSVC\14.28.29333\include\type_traits
; File C:\Program Files (x86)\Microsoft Visual Studio\2019\Community\VC\Tools\MSVC\14.28.29333\include\xmemory
; File C:\Program Files (x86)\Microsoft Visual Studio\2019\Community\VC\Tools\MSVC\14.28.29333\include\vector
;	COMDAT ??$_Emplace_back_with_unused_capacity@ABQAVCGraphicMarkInstance@@@?$vector@PAVCGraphicMarkInstance@@V?$allocator@PAVCGraphicMarkInstance@@@std@@@std@@AAEXABQAVCGraphicMarkInstance@@@Z
_TEXT	SEGMENT
__Result$ = -44						; size = 4
$T1 = -40						; size = 4
$T2 = -36						; size = 4
$T3 = -32						; size = 4
$T4 = -28						; size = 4
$T5 = -24						; size = 4
$T6 = -20						; size = 4
__Ptr$ = -16						; size = 4
__My_data$ = -12					; size = 4
_this$ = -8						; size = 4
__Mylast$ = -4						; size = 4
_<_Val_0>$ = 8						; size = 4
??$_Emplace_back_with_unused_capacity@ABQAVCGraphicMarkInstance@@@?$vector@PAVCGraphicMarkInstance@@V?$allocator@PAVCGraphicMarkInstance@@@std@@@std@@AAEXABQAVCGraphicMarkInstance@@@Z PROC ; std::vector<CGraphicMarkInstance *,std::allocator<CGraphicMarkInstance *> >::_Emplace_back_with_unused_capacity<CGraphicMarkInstance * const &>, COMDAT
; _this$ = ecx

; 682  :     decltype(auto) _Emplace_back_with_unused_capacity(_Valty&&... _Val) {

  00000	55		 push	 ebp
  00001	8b ec		 mov	 ebp, esp
  00003	83 ec 2c	 sub	 esp, 44			; 0000002cH
  00006	89 4d f8	 mov	 DWORD PTR _this$[ebp], ecx

; 683  :         // insert by perfectly forwarding into element at end, provide strong guarantee
; 684  :         auto& _My_data   = _Mypair._Myval2;

  00009	8b 45 f8	 mov	 eax, DWORD PTR _this$[ebp]
  0000c	89 45 f4	 mov	 DWORD PTR __My_data$[ebp], eax

; 685  :         pointer& _Mylast = _My_data._Mylast;

  0000f	8b 45 f4	 mov	 eax, DWORD PTR __My_data$[ebp]
  00012	83 c0 04	 add	 eax, 4
  00015	89 45 fc	 mov	 DWORD PTR __Mylast$[ebp], eax
; File C:\Program Files (x86)\Microsoft Visual Studio\2019\Community\VC\Tools\MSVC\14.28.29333\include\type_traits

; 1443 :     return static_cast<_Ty&&>(_Arg);

  00018	8b 45 08	 mov	 eax, DWORD PTR _<_Val_0>$[ebp]
  0001b	89 45 e4	 mov	 DWORD PTR $T4[ebp], eax
; File C:\Program Files (x86)\Microsoft Visual Studio\2019\Community\VC\Tools\MSVC\14.28.29333\include\vector

; 687  :         _Alty_traits::construct(_Getal(), _Unfancy(_Mylast), _STD forward<_Valty>(_Val)...);

  0001e	8b 45 fc	 mov	 eax, DWORD PTR __Mylast$[ebp]
  00021	8b 00		 mov	 eax, DWORD PTR [eax]
  00023	89 45 f0	 mov	 DWORD PTR __Ptr$[ebp], eax
; File C:\Program Files (x86)\Microsoft Visual Studio\2019\Community\VC\Tools\MSVC\14.28.29333\include\xstddef

; 289  :     return _Ptr;

  00026	8b 45 f0	 mov	 eax, DWORD PTR __Ptr$[ebp]
  00029	89 45 e8	 mov	 DWORD PTR $T5[ebp], eax
; File C:\Program Files (x86)\Microsoft Visual Studio\2019\Community\VC\Tools\MSVC\14.28.29333\include\vector

; 1733 :         return _Mypair._Get_first();

  0002c	8b 45 f8	 mov	 eax, DWORD PTR _this$[ebp]
; File C:\Program Files (x86)\Microsoft Visual Studio\2019\Community\VC\Tools\MSVC\14.28.29333\include\xmemory

; 1347 :         return *this;

  0002f	89 45 ec	 mov	 DWORD PTR $T6[ebp], eax
; File C:\Program Files (x86)\Microsoft Visual Studio\2019\Community\VC\Tools\MSVC\14.28.29333\include\vector

; 1733 :         return _Mypair._Get_first();

  00032	8b 45 ec	 mov	 eax, DWORD PTR $T6[ebp]
  00035	89 45 d8	 mov	 DWORD PTR $T1[ebp], eax
; File C:\Program Files (x86)\Microsoft Visual Studio\2019\Community\VC\Tools\MSVC\14.28.29333\include\vcruntime_new.h

; 169  :         return _Where;

  00038	8b 45 e8	 mov	 eax, DWORD PTR $T5[ebp]
  0003b	89 45 e0	 mov	 DWORD PTR $T3[ebp], eax
; File C:\Program Files (x86)\Microsoft Visual Studio\2019\Community\VC\Tools\MSVC\14.28.29333\include\type_traits

; 1443 :     return static_cast<_Ty&&>(_Arg);

  0003e	8b 45 e4	 mov	 eax, DWORD PTR $T4[ebp]
  00041	89 45 dc	 mov	 DWORD PTR $T2[ebp], eax
; File C:\Program Files (x86)\Microsoft Visual Studio\2019\Community\VC\Tools\MSVC\14.28.29333\include\xmemory

; 701  :         ::new (const_cast<void*>(static_cast<const volatile void*>(_Ptr))) _Objty(_STD forward<_Types>(_Args)...);

  00044	8b 45 e0	 mov	 eax, DWORD PTR $T3[ebp]
  00047	8b 4d dc	 mov	 ecx, DWORD PTR $T2[ebp]
  0004a	8b 09		 mov	 ecx, DWORD PTR [ecx]
  0004c	89 08		 mov	 DWORD PTR [eax], ecx
; File C:\Program Files (x86)\Microsoft Visual Studio\2019\Community\VC\Tools\MSVC\14.28.29333\include\vector

; 689  :         _Ty& _Result = *_Mylast;

  0004e	8b 45 fc	 mov	 eax, DWORD PTR __Mylast$[ebp]
  00051	8b 00		 mov	 eax, DWORD PTR [eax]
  00053	89 45 d4	 mov	 DWORD PTR __Result$[ebp], eax

; 690  :         ++_Mylast;

  00056	8b 45 fc	 mov	 eax, DWORD PTR __Mylast$[ebp]
  00059	8b 00		 mov	 eax, DWORD PTR [eax]
  0005b	83 c0 04	 add	 eax, 4
  0005e	8b 4d fc	 mov	 ecx, DWORD PTR __Mylast$[ebp]
  00061	89 01		 mov	 DWORD PTR [ecx], eax

; 691  : #if _HAS_CXX17
; 692  :         return _Result;
; 693  : #else // ^^^ _HAS_CXX17 ^^^ // vvv !_HAS_CXX17 vvv
; 694  :         (void) _Result;
; 695  : #endif // _HAS_CXX17
; 696  :     }

  00063	c9		 leave
  00064	c2 04 00	 ret	 4
??$_Emplace_back_with_unused_capacity@ABQAVCGraphicMarkInstance@@@?$vector@PAVCGraphicMarkInstance@@V?$allocator@PAVCGraphicMarkInstance@@@std@@@std@@AAEXABQAVCGraphicMarkInstance@@@Z ENDP ; std::vector<CGraphicMarkInstance *,std::allocator<CGraphicMarkInstance *> >::_Emplace_back_with_unused_capacity<CGraphicMarkInstance * const &>
_TEXT	ENDS
; Function compile flags: /Odspy
; File C:\Program Files (x86)\Microsoft Visual Studio\2019\Community\VC\Tools\MSVC\14.28.29333\include\vector
; File C:\Program Files (x86)\Microsoft Visual Studio\2019\Community\VC\Tools\MSVC\14.28.29333\include\type_traits
; File C:\Program Files (x86)\Microsoft Visual Studio\2019\Community\VC\Tools\MSVC\14.28.29333\include\vector
; File C:\Program Files (x86)\Microsoft Visual Studio\2019\Community\VC\Tools\MSVC\14.28.29333\include\type_traits
; File C:\Program Files (x86)\Microsoft Visual Studio\2019\Community\VC\Tools\MSVC\14.28.29333\include\vector
;	COMDAT ??$emplace_back@ABQAVCGraphicMarkInstance@@@?$vector@PAVCGraphicMarkInstance@@V?$allocator@PAVCGraphicMarkInstance@@@std@@@std@@QAEXABQAVCGraphicMarkInstance@@@Z
_TEXT	SEGMENT
__Result$ = -24						; size = 4
$T1 = -20						; size = 4
$T2 = -16						; size = 4
__Mylast$ = -12						; size = 4
__My_data$ = -8						; size = 4
_this$ = -4						; size = 4
_<_Val_0>$ = 8						; size = 4
??$emplace_back@ABQAVCGraphicMarkInstance@@@?$vector@PAVCGraphicMarkInstance@@V?$allocator@PAVCGraphicMarkInstance@@@std@@@std@@QAEXABQAVCGraphicMarkInstance@@@Z PROC ; std::vector<CGraphicMarkInstance *,std::allocator<CGraphicMarkInstance *> >::emplace_back<CGraphicMarkInstance * const &>, COMDAT
; _this$ = ecx

; 700  :     decltype(auto) emplace_back(_Valty&&... _Val) {

  00000	55		 push	 ebp
  00001	8b ec		 mov	 ebp, esp
  00003	83 ec 18	 sub	 esp, 24			; 00000018H
  00006	89 4d fc	 mov	 DWORD PTR _this$[ebp], ecx

; 701  :         // insert by perfectly forwarding into element at end, provide strong guarantee
; 702  :         auto& _My_data   = _Mypair._Myval2;

  00009	8b 45 fc	 mov	 eax, DWORD PTR _this$[ebp]
  0000c	89 45 f8	 mov	 DWORD PTR __My_data$[ebp], eax

; 703  :         pointer& _Mylast = _My_data._Mylast;

  0000f	8b 45 f8	 mov	 eax, DWORD PTR __My_data$[ebp]
  00012	83 c0 04	 add	 eax, 4
  00015	89 45 f4	 mov	 DWORD PTR __Mylast$[ebp], eax

; 704  :         if (_Mylast != _My_data._Myend) {

  00018	8b 45 f4	 mov	 eax, DWORD PTR __Mylast$[ebp]
  0001b	8b 4d f8	 mov	 ecx, DWORD PTR __My_data$[ebp]
  0001e	8b 00		 mov	 eax, DWORD PTR [eax]
  00020	3b 41 08	 cmp	 eax, DWORD PTR [ecx+8]
  00023	74 13		 je	 SHORT $LN2@emplace_ba
; File C:\Program Files (x86)\Microsoft Visual Studio\2019\Community\VC\Tools\MSVC\14.28.29333\include\type_traits

; 1443 :     return static_cast<_Ty&&>(_Arg);

  00025	8b 45 08	 mov	 eax, DWORD PTR _<_Val_0>$[ebp]
  00028	89 45 f0	 mov	 DWORD PTR $T2[ebp], eax
; File C:\Program Files (x86)\Microsoft Visual Studio\2019\Community\VC\Tools\MSVC\14.28.29333\include\vector

; 705  :             return _Emplace_back_with_unused_capacity(_STD forward<_Valty>(_Val)...);

  0002b	ff 75 f0	 push	 DWORD PTR $T2[ebp]
  0002e	8b 4d fc	 mov	 ecx, DWORD PTR _this$[ebp]
  00031	e8 00 00 00 00	 call	 ??$_Emplace_back_with_unused_capacity@ABQAVCGraphicMarkInstance@@@?$vector@PAVCGraphicMarkInstance@@V?$allocator@PAVCGraphicMarkInstance@@@std@@@std@@AAEXABQAVCGraphicMarkInstance@@@Z ; std::vector<CGraphicMarkInstance *,std::allocator<CGraphicMarkInstance *> >::_Emplace_back_with_unused_capacity<CGraphicMarkInstance * const &>
  00036	eb 19		 jmp	 SHORT $LN1@emplace_ba
$LN2@emplace_ba:
; File C:\Program Files (x86)\Microsoft Visual Studio\2019\Community\VC\Tools\MSVC\14.28.29333\include\type_traits

; 1443 :     return static_cast<_Ty&&>(_Arg);

  00038	8b 45 08	 mov	 eax, DWORD PTR _<_Val_0>$[ebp]
  0003b	89 45 ec	 mov	 DWORD PTR $T1[ebp], eax
; File C:\Program Files (x86)\Microsoft Visual Studio\2019\Community\VC\Tools\MSVC\14.28.29333\include\vector

; 708  :         _Ty& _Result = *_Emplace_reallocate(_Mylast, _STD forward<_Valty>(_Val)...);

  0003e	ff 75 ec	 push	 DWORD PTR $T1[ebp]
  00041	8b 45 f4	 mov	 eax, DWORD PTR __Mylast$[ebp]
  00044	ff 30		 push	 DWORD PTR [eax]
  00046	8b 4d fc	 mov	 ecx, DWORD PTR _this$[ebp]
  00049	e8 00 00 00 00	 call	 ??$_Emplace_reallocate@ABQAVCGraphicMarkInstance@@@?$vector@PAVCGraphicMarkInstance@@V?$allocator@PAVCGraphicMarkInstance@@@std@@@std@@QAEPAPAVCGraphicMarkInstance@@QAPAV2@ABQAV2@@Z ; std::vector<CGraphicMarkInstance *,std::allocator<CGraphicMarkInstance *> >::_Emplace_reallocate<CGraphicMarkInstance * const &>
  0004e	89 45 e8	 mov	 DWORD PTR __Result$[ebp], eax
$LN1@emplace_ba:

; 709  : #if _HAS_CXX17
; 710  :         return _Result;
; 711  : #else // ^^^ _HAS_CXX17 ^^^ // vvv !_HAS_CXX17 vvv
; 712  :         (void) _Result;
; 713  : #endif // _HAS_CXX17
; 714  :     }

  00051	c9		 leave
  00052	c2 04 00	 ret	 4
??$emplace_back@ABQAVCGraphicMarkInstance@@@?$vector@PAVCGraphicMarkInstance@@V?$allocator@PAVCGraphicMarkInstance@@@std@@@std@@QAEXABQAVCGraphicMarkInstance@@@Z ENDP ; std::vector<CGraphicMarkInstance *,std::allocator<CGraphicMarkInstance *> >::emplace_back<CGraphicMarkInstance * const &>
_TEXT	ENDS
; Function compile flags: /Odspy
; File C:\Program Files (x86)\Microsoft Visual Studio\2019\Community\VC\Tools\MSVC\14.28.29333\include\algorithm
; File C:\Program Files (x86)\Microsoft Visual Studio\2019\Community\VC\Tools\MSVC\14.28.29333\include\vector
; File C:\Program Files (x86)\Microsoft Visual Studio\2019\Community\VC\Tools\MSVC\14.28.29333\include\xstddef
; File C:\Program Files (x86)\Microsoft Visual Studio\2019\Community\VC\Tools\MSVC\14.28.29333\include\vector
; File C:\Program Files (x86)\Microsoft Visual Studio\2019\Community\VC\Tools\MSVC\14.28.29333\include\algorithm
; File C:\Program Files (x86)\Microsoft Visual Studio\2019\Community\VC\Tools\MSVC\14.28.29333\include\vector
; File C:\Program Files (x86)\Microsoft Visual Studio\2019\Community\VC\Tools\MSVC\14.28.29333\include\xstddef
; File C:\Program Files (x86)\Microsoft Visual Studio\2019\Community\VC\Tools\MSVC\14.28.29333\include\vector
; File C:\Program Files (x86)\Microsoft Visual Studio\2019\Community\VC\Tools\MSVC\14.28.29333\include\algorithm
;	COMDAT ??$for_each@V?$_Vector_iterator@V?$_Vector_val@U?$_Simple_types@PAVCGraphicMarkInstance@@@std@@@std@@@std@@P6AXPAVCGraphicMarkInstance@@@Z@std@@YAP6AXPAVCGraphicMarkInstance@@@ZV?$_Vector_iterator@V?$_Vector_val@U?$_Simple_types@PAVCGraphicMarkInstance@@@std@@@std@@@0@1P6AX0@Z@Z
_TEXT	SEGMENT
__ULast$ = -32						; size = 4
$T1 = -28						; size = 4
$T2 = -24						; size = 4
__Ptr$3 = -20						; size = 4
$T4 = -16						; size = 4
$T5 = -12						; size = 4
__Ptr$6 = -8						; size = 4
__UFirst$ = -4						; size = 4
__First$ = 8						; size = 4
__Last$ = 12						; size = 4
__Func$ = 16						; size = 4
??$for_each@V?$_Vector_iterator@V?$_Vector_val@U?$_Simple_types@PAVCGraphicMarkInstance@@@std@@@std@@@std@@P6AXPAVCGraphicMarkInstance@@@Z@std@@YAP6AXPAVCGraphicMarkInstance@@@ZV?$_Vector_iterator@V?$_Vector_val@U?$_Simple_types@PAVCGraphicMarkInstance@@@std@@@std@@@0@1P6AX0@Z@Z PROC ; std::for_each<std::_Vector_iterator<std::_Vector_val<std::_Simple_types<CGraphicMarkInstance *> > >,void (__cdecl*)(CGraphicMarkInstance *)>, COMDAT

; 303  : _CONSTEXPR20 _Fn for_each(_InIt _First, _InIt _Last, _Fn _Func) { // perform function for each element [_First, _Last)

  00000	55		 push	 ebp
  00001	8b ec		 mov	 ebp, esp
  00003	83 ec 20	 sub	 esp, 32			; 00000020H
; File C:\Program Files (x86)\Microsoft Visual Studio\2019\Community\VC\Tools\MSVC\14.28.29333\include\vector

; 310  :         return _Unfancy(this->_Ptr);

  00006	8b 45 08	 mov	 eax, DWORD PTR __First$[ebp]
  00009	89 45 f8	 mov	 DWORD PTR __Ptr$6[ebp], eax
; File C:\Program Files (x86)\Microsoft Visual Studio\2019\Community\VC\Tools\MSVC\14.28.29333\include\xstddef

; 289  :     return _Ptr;

  0000c	8b 45 f8	 mov	 eax, DWORD PTR __Ptr$6[ebp]
  0000f	89 45 f4	 mov	 DWORD PTR $T5[ebp], eax
; File C:\Program Files (x86)\Microsoft Visual Studio\2019\Community\VC\Tools\MSVC\14.28.29333\include\vector

; 310  :         return _Unfancy(this->_Ptr);

  00012	8b 45 f4	 mov	 eax, DWORD PTR $T5[ebp]
  00015	89 45 f0	 mov	 DWORD PTR $T4[ebp], eax
; File C:\Program Files (x86)\Microsoft Visual Studio\2019\Community\VC\Tools\MSVC\14.28.29333\include\algorithm

; 305  :     auto _UFirst      = _Get_unwrapped(_First);

  00018	8b 45 f0	 mov	 eax, DWORD PTR $T4[ebp]
  0001b	89 45 fc	 mov	 DWORD PTR __UFirst$[ebp], eax
; File C:\Program Files (x86)\Microsoft Visual Studio\2019\Community\VC\Tools\MSVC\14.28.29333\include\vector

; 310  :         return _Unfancy(this->_Ptr);

  0001e	8b 45 0c	 mov	 eax, DWORD PTR __Last$[ebp]
  00021	89 45 ec	 mov	 DWORD PTR __Ptr$3[ebp], eax
; File C:\Program Files (x86)\Microsoft Visual Studio\2019\Community\VC\Tools\MSVC\14.28.29333\include\xstddef

; 289  :     return _Ptr;

  00024	8b 45 ec	 mov	 eax, DWORD PTR __Ptr$3[ebp]
  00027	89 45 e8	 mov	 DWORD PTR $T2[ebp], eax
; File C:\Program Files (x86)\Microsoft Visual Studio\2019\Community\VC\Tools\MSVC\14.28.29333\include\vector

; 310  :         return _Unfancy(this->_Ptr);

  0002a	8b 45 e8	 mov	 eax, DWORD PTR $T2[ebp]
  0002d	89 45 e4	 mov	 DWORD PTR $T1[ebp], eax
; File C:\Program Files (x86)\Microsoft Visual Studio\2019\Community\VC\Tools\MSVC\14.28.29333\include\algorithm

; 306  :     const auto _ULast = _Get_unwrapped(_Last);

  00030	8b 45 e4	 mov	 eax, DWORD PTR $T1[ebp]
  00033	89 45 e0	 mov	 DWORD PTR __ULast$[ebp], eax

; 307  :     for (; _UFirst != _ULast; ++_UFirst) {

  00036	eb 09		 jmp	 SHORT $LN4@for_each
$LN2@for_each:
  00038	8b 45 fc	 mov	 eax, DWORD PTR __UFirst$[ebp]
  0003b	83 c0 04	 add	 eax, 4
  0003e	89 45 fc	 mov	 DWORD PTR __UFirst$[ebp], eax
$LN4@for_each:
  00041	8b 45 fc	 mov	 eax, DWORD PTR __UFirst$[ebp]
  00044	3b 45 e0	 cmp	 eax, DWORD PTR __ULast$[ebp]
  00047	74 0b		 je	 SHORT $LN3@for_each

; 308  :         _Func(*_UFirst);

  00049	8b 45 fc	 mov	 eax, DWORD PTR __UFirst$[ebp]
  0004c	ff 30		 push	 DWORD PTR [eax]
  0004e	ff 55 10	 call	 DWORD PTR __Func$[ebp]
  00051	59		 pop	 ecx

; 309  :     }

  00052	eb e4		 jmp	 SHORT $LN2@for_each
$LN3@for_each:

; 310  : 
; 311  :     return _Func;

  00054	8b 45 10	 mov	 eax, DWORD PTR __Func$[ebp]

; 312  : }

  00057	c9		 leave
  00058	c3		 ret	 0
??$for_each@V?$_Vector_iterator@V?$_Vector_val@U?$_Simple_types@PAVCGraphicMarkInstance@@@std@@@std@@@std@@P6AXPAVCGraphicMarkInstance@@@Z@std@@YAP6AXPAVCGraphicMarkInstance@@@ZV?$_Vector_iterator@V?$_Vector_val@U?$_Simple_types@PAVCGraphicMarkInstance@@@std@@@std@@@0@1P6AX0@Z@Z ENDP ; std::for_each<std::_Vector_iterator<std::_Vector_val<std::_Simple_types<CGraphicMarkInstance *> > >,void (__cdecl*)(CGraphicMarkInstance *)>
_TEXT	ENDS
; Function compile flags: /Odspy
;	COMDAT ??__F?ms_kPool@CGraphicMarkInstance@@2V?$CDynamicPool@VCGraphicMarkInstance@@@@A@@YAXXZ
text$yd	SEGMENT
??__F?ms_kPool@CGraphicMarkInstance@@2V?$CDynamicPool@VCGraphicMarkInstance@@@@A@@YAXXZ PROC ; `dynamic atexit destructor for 'CGraphicMarkInstance::ms_kPool'', COMDAT
  00000	55		 push	 ebp
  00001	8b ec		 mov	 ebp, esp
  00003	b9 00 00 00 00	 mov	 ecx, OFFSET ?ms_kPool@CGraphicMarkInstance@@2V?$CDynamicPool@VCGraphicMarkInstance@@@@A ; CGraphicMarkInstance::ms_kPool
  00008	e8 00 00 00 00	 call	 ??1?$CDynamicPool@VCGraphicMarkInstance@@@@UAE@XZ ; CDynamicPool<CGraphicMarkInstance>::~CDynamicPool<CGraphicMarkInstance>
  0000d	5d		 pop	 ebp
  0000e	c3		 ret	 0
??__F?ms_kPool@CGraphicMarkInstance@@2V?$CDynamicPool@VCGraphicMarkInstance@@@@A@@YAXXZ ENDP ; `dynamic atexit destructor for 'CGraphicMarkInstance::ms_kPool''
text$yd	ENDS
; Function compile flags: /Odspy
; File D:\Metin2 Server Files\mainline\SRC_2014\Metin2Client\EterLib\GrpMarkInstance.cpp
;	COMDAT ??__E?ms_kPool@CGraphicMarkInstance@@2V?$CDynamicPool@VCGraphicMarkInstance@@@@A@@YAXXZ
text$di	SEGMENT
??__E?ms_kPool@CGraphicMarkInstance@@2V?$CDynamicPool@VCGraphicMarkInstance@@@@A@@YAXXZ PROC ; `dynamic initializer for 'CGraphicMarkInstance::ms_kPool'', COMDAT

; 8    : CDynamicPool<CGraphicMarkInstance> CGraphicMarkInstance::ms_kPool;

  00000	55		 push	 ebp
  00001	8b ec		 mov	 ebp, esp
  00003	b9 00 00 00 00	 mov	 ecx, OFFSET ?ms_kPool@CGraphicMarkInstance@@2V?$CDynamicPool@VCGraphicMarkInstance@@@@A ; CGraphicMarkInstance::ms_kPool
  00008	e8 00 00 00 00	 call	 ??0?$CDynamicPool@VCGraphicMarkInstance@@@@QAE@XZ ; CDynamicPool<CGraphicMarkInstance>::CDynamicPool<CGraphicMarkInstance>
  0000d	68 00 00 00 00	 push	 OFFSET ??__F?ms_kPool@CGraphicMarkInstance@@2V?$CDynamicPool@VCGraphicMarkInstance@@@@A@@YAXXZ ; `dynamic atexit destructor for 'CGraphicMarkInstance::ms_kPool''
  00012	e8 00 00 00 00	 call	 _atexit
  00017	59		 pop	 ecx
  00018	5d		 pop	 ebp
  00019	c3		 ret	 0
??__E?ms_kPool@CGraphicMarkInstance@@2V?$CDynamicPool@VCGraphicMarkInstance@@@@A@@YAXXZ ENDP ; `dynamic initializer for 'CGraphicMarkInstance::ms_kPool''
text$di	ENDS
; Function compile flags: /Odspy
;	COMDAT ??_G?$CDynamicPool@VCGraphicMarkInstance@@@@UAEPAXI@Z
_TEXT	SEGMENT
_this$ = -4						; size = 4
___flags$ = 8						; size = 4
??_G?$CDynamicPool@VCGraphicMarkInstance@@@@UAEPAXI@Z PROC ; CDynamicPool<CGraphicMarkInstance>::`scalar deleting destructor', COMDAT
; _this$ = ecx
  00000	55		 push	 ebp
  00001	8b ec		 mov	 ebp, esp
  00003	51		 push	 ecx
  00004	89 4d fc	 mov	 DWORD PTR _this$[ebp], ecx
  00007	8b 4d fc	 mov	 ecx, DWORD PTR _this$[ebp]
  0000a	e8 00 00 00 00	 call	 ??1?$CDynamicPool@VCGraphicMarkInstance@@@@UAE@XZ ; CDynamicPool<CGraphicMarkInstance>::~CDynamicPool<CGraphicMarkInstance>
  0000f	8b 45 08	 mov	 eax, DWORD PTR ___flags$[ebp]
  00012	83 e0 01	 and	 eax, 1
  00015	74 0c		 je	 SHORT $LN2@scalar
  00017	6a 24		 push	 36			; 00000024H
  00019	ff 75 fc	 push	 DWORD PTR _this$[ebp]
  0001c	e8 00 00 00 00	 call	 ??3@YAXPAXI@Z		; operator delete
  00021	59		 pop	 ecx
  00022	59		 pop	 ecx
$LN2@scalar:
  00023	8b 45 fc	 mov	 eax, DWORD PTR _this$[ebp]
  00026	c9		 leave
  00027	c2 04 00	 ret	 4
??_G?$CDynamicPool@VCGraphicMarkInstance@@@@UAEPAXI@Z ENDP ; CDynamicPool<CGraphicMarkInstance>::`scalar deleting destructor'
_TEXT	ENDS
; Function compile flags: /Odspy
; File C:\Program Files (x86)\Microsoft Visual Studio\2019\Community\VC\Tools\MSVC\14.28.29333\include\vector
; File C:\Program Files (x86)\Microsoft Visual Studio\2019\Community\VC\Tools\MSVC\14.28.29333\include\xmemory
; File C:\Program Files (x86)\Microsoft Visual Studio\2019\Community\VC\Tools\MSVC\14.28.29333\include\vector
;	COMDAT ?_Getal@?$vector@PAVCGraphicMarkInstance@@V?$allocator@PAVCGraphicMarkInstance@@@std@@@std@@AAEAAV?$allocator@PAVCGraphicMarkInstance@@@2@XZ
_TEXT	SEGMENT
$T1 = -8						; size = 4
_this$ = -4						; size = 4
?_Getal@?$vector@PAVCGraphicMarkInstance@@V?$allocator@PAVCGraphicMarkInstance@@@std@@@std@@AAEAAV?$allocator@PAVCGraphicMarkInstance@@@2@XZ PROC ; std::vector<CGraphicMarkInstance *,std::allocator<CGraphicMarkInstance *> >::_Getal, COMDAT
; _this$ = ecx

; 1732 :     _Alty& _Getal() noexcept {

  00000	55		 push	 ebp
  00001	8b ec		 mov	 ebp, esp
  00003	51		 push	 ecx
  00004	51		 push	 ecx
  00005	89 4d fc	 mov	 DWORD PTR _this$[ebp], ecx

; 1733 :         return _Mypair._Get_first();

  00008	8b 45 fc	 mov	 eax, DWORD PTR _this$[ebp]
; File C:\Program Files (x86)\Microsoft Visual Studio\2019\Community\VC\Tools\MSVC\14.28.29333\include\xmemory

; 1347 :         return *this;

  0000b	89 45 f8	 mov	 DWORD PTR $T1[ebp], eax
; File C:\Program Files (x86)\Microsoft Visual Studio\2019\Community\VC\Tools\MSVC\14.28.29333\include\vector

; 1733 :         return _Mypair._Get_first();

  0000e	8b 45 f8	 mov	 eax, DWORD PTR $T1[ebp]

; 1734 :     }

  00011	c9		 leave
  00012	c3		 ret	 0
?_Getal@?$vector@PAVCGraphicMarkInstance@@V?$allocator@PAVCGraphicMarkInstance@@@std@@@std@@AAEAAV?$allocator@PAVCGraphicMarkInstance@@@2@XZ ENDP ; std::vector<CGraphicMarkInstance *,std::allocator<CGraphicMarkInstance *> >::_Getal
_TEXT	ENDS
; Function compile flags: /Odspy
; File C:\Program Files (x86)\Microsoft Visual Studio\2019\Community\VC\Tools\MSVC\14.28.29333\include\vector
;	COMDAT ?_Xlength@?$vector@PAVCGraphicMarkInstance@@V?$allocator@PAVCGraphicMarkInstance@@@std@@@std@@CAXXZ
_TEXT	SEGMENT
?_Xlength@?$vector@PAVCGraphicMarkInstance@@V?$allocator@PAVCGraphicMarkInstance@@@std@@@std@@CAXXZ PROC ; std::vector<CGraphicMarkInstance *,std::allocator<CGraphicMarkInstance *> >::_Xlength, COMDAT

; 1704 :     [[noreturn]] static void _Xlength() {

  00000	55		 push	 ebp
  00001	8b ec		 mov	 ebp, esp

; 1705 :         _Xlength_error("vector too long");

  00003	68 00 00 00 00	 push	 OFFSET ??_C@_0BA@FOIKENOD@vector?5too?5long@
  00008	e8 00 00 00 00	 call	 ?_Xlength_error@std@@YAXPBD@Z ; std::_Xlength_error
$LN2@Xlength:

; 1706 :     }

  0000d	5d		 pop	 ebp
  0000e	c3		 ret	 0
?_Xlength@?$vector@PAVCGraphicMarkInstance@@V?$allocator@PAVCGraphicMarkInstance@@@std@@@std@@CAXXZ ENDP ; std::vector<CGraphicMarkInstance *,std::allocator<CGraphicMarkInstance *> >::_Xlength
_TEXT	ENDS
; Function compile flags: /Odspy
; File C:\Program Files (x86)\Microsoft Visual Studio\2019\Community\VC\Tools\MSVC\14.28.29333\include\vector
; File C:\Program Files (x86)\Microsoft Visual Studio\2019\Community\VC\Tools\MSVC\14.28.29333\include\xmemory
; File C:\Program Files (x86)\Microsoft Visual Studio\2019\Community\VC\Tools\MSVC\14.28.29333\include\vector
; File C:\Program Files (x86)\Microsoft Visual Studio\2019\Community\VC\Tools\MSVC\14.28.29333\include\xmemory
; File C:\Program Files (x86)\Microsoft Visual Studio\2019\Community\VC\Tools\MSVC\14.28.29333\include\vector
; File C:\Program Files (x86)\Microsoft Visual Studio\2019\Community\VC\Tools\MSVC\14.28.29333\include\xmemory
; File C:\Program Files (x86)\Microsoft Visual Studio\2019\Community\VC\Tools\MSVC\14.28.29333\include\vector
;	COMDAT ?_Tidy@?$vector@PAVCGraphicMarkInstance@@V?$allocator@PAVCGraphicMarkInstance@@@std@@@std@@AAEXXZ
_TEXT	SEGMENT
$T1 = -52						; size = 4
__Ptr$ = -48						; size = 4
__Count$ = -44						; size = 4
$T2 = -40						; size = 4
__First$ = -36						; size = 4
__Last$ = -32						; size = 4
$T3 = -28						; size = 4
$T4 = -24						; size = 4
__Myend$ = -20						; size = 4
__Mylast$ = -16						; size = 4
_this$ = -12						; size = 4
__My_data$ = -8						; size = 4
__Myfirst$ = -4						; size = 4
?_Tidy@?$vector@PAVCGraphicMarkInstance@@V?$allocator@PAVCGraphicMarkInstance@@@std@@@std@@AAEXXZ PROC ; std::vector<CGraphicMarkInstance *,std::allocator<CGraphicMarkInstance *> >::_Tidy, COMDAT
; _this$ = ecx

; 1686 :     void _Tidy() noexcept { // free all storage

  00000	55		 push	 ebp
  00001	8b ec		 mov	 ebp, esp
  00003	83 ec 34	 sub	 esp, 52			; 00000034H
  00006	89 4d f4	 mov	 DWORD PTR _this$[ebp], ecx

; 1687 :         auto& _My_data    = _Mypair._Myval2;

  00009	8b 45 f4	 mov	 eax, DWORD PTR _this$[ebp]
  0000c	89 45 f8	 mov	 DWORD PTR __My_data$[ebp], eax

; 1688 :         pointer& _Myfirst = _My_data._Myfirst;

  0000f	8b 45 f8	 mov	 eax, DWORD PTR __My_data$[ebp]
  00012	89 45 fc	 mov	 DWORD PTR __Myfirst$[ebp], eax

; 1689 :         pointer& _Mylast  = _My_data._Mylast;

  00015	8b 45 f8	 mov	 eax, DWORD PTR __My_data$[ebp]
  00018	83 c0 04	 add	 eax, 4
  0001b	89 45 f0	 mov	 DWORD PTR __Mylast$[ebp], eax

; 1690 :         pointer& _Myend   = _My_data._Myend;

  0001e	8b 45 f8	 mov	 eax, DWORD PTR __My_data$[ebp]
  00021	83 c0 08	 add	 eax, 8
  00024	89 45 ec	 mov	 DWORD PTR __Myend$[ebp], eax

; 1691 : 
; 1692 :         _My_data._Orphan_all();
; 1693 : 
; 1694 :         if (_Myfirst) { // destroy and deallocate old array

  00027	8b 45 fc	 mov	 eax, DWORD PTR __Myfirst$[ebp]
  0002a	83 38 00	 cmp	 DWORD PTR [eax], 0
  0002d	74 74		 je	 SHORT $LN3@Tidy

; 1695 :             _Destroy(_Myfirst, _Mylast);

  0002f	8b 45 f0	 mov	 eax, DWORD PTR __Mylast$[ebp]
  00032	8b 00		 mov	 eax, DWORD PTR [eax]
  00034	89 45 e0	 mov	 DWORD PTR __Last$[ebp], eax
  00037	8b 45 fc	 mov	 eax, DWORD PTR __Myfirst$[ebp]
  0003a	8b 00		 mov	 eax, DWORD PTR [eax]
  0003c	89 45 dc	 mov	 DWORD PTR __First$[ebp], eax

; 1733 :         return _Mypair._Get_first();

  0003f	8b 45 f4	 mov	 eax, DWORD PTR _this$[ebp]
; File C:\Program Files (x86)\Microsoft Visual Studio\2019\Community\VC\Tools\MSVC\14.28.29333\include\xmemory

; 1347 :         return *this;

  00042	89 45 e8	 mov	 DWORD PTR $T4[ebp], eax
; File C:\Program Files (x86)\Microsoft Visual Studio\2019\Community\VC\Tools\MSVC\14.28.29333\include\vector

; 1733 :         return _Mypair._Get_first();

  00045	8b 45 e8	 mov	 eax, DWORD PTR $T4[ebp]
  00048	89 45 e4	 mov	 DWORD PTR $T3[ebp], eax

; 1612 :         _Destroy_range(_First, _Last, _Getal());

  0004b	ff 75 e4	 push	 DWORD PTR $T3[ebp]
  0004e	ff 75 e0	 push	 DWORD PTR __Last$[ebp]
  00051	ff 75 dc	 push	 DWORD PTR __First$[ebp]
  00054	e8 00 00 00 00	 call	 ??$_Destroy_range@V?$allocator@PAVCGraphicMarkInstance@@@std@@@std@@YAXPAPAVCGraphicMarkInstance@@QAPAV1@AAV?$allocator@PAVCGraphicMarkInstance@@@0@@Z ; std::_Destroy_range<std::allocator<CGraphicMarkInstance *> >
  00059	83 c4 0c	 add	 esp, 12			; 0000000cH

; 1733 :         return _Mypair._Get_first();

  0005c	8b 45 f4	 mov	 eax, DWORD PTR _this$[ebp]
; File C:\Program Files (x86)\Microsoft Visual Studio\2019\Community\VC\Tools\MSVC\14.28.29333\include\xmemory

; 1347 :         return *this;

  0005f	89 45 d8	 mov	 DWORD PTR $T2[ebp], eax
; File C:\Program Files (x86)\Microsoft Visual Studio\2019\Community\VC\Tools\MSVC\14.28.29333\include\vector

; 1733 :         return _Mypair._Get_first();

  00062	8b 45 d8	 mov	 eax, DWORD PTR $T2[ebp]
  00065	89 45 cc	 mov	 DWORD PTR $T1[ebp], eax

; 1696 :             _Getal().deallocate(_Myfirst, static_cast<size_type>(_Myend - _Myfirst));

  00068	8b 45 ec	 mov	 eax, DWORD PTR __Myend$[ebp]
  0006b	8b 4d fc	 mov	 ecx, DWORD PTR __Myfirst$[ebp]
  0006e	8b 00		 mov	 eax, DWORD PTR [eax]
  00070	2b 01		 sub	 eax, DWORD PTR [ecx]
  00072	c1 f8 02	 sar	 eax, 2
  00075	89 45 d4	 mov	 DWORD PTR __Count$[ebp], eax
  00078	8b 45 fc	 mov	 eax, DWORD PTR __Myfirst$[ebp]
  0007b	8b 00		 mov	 eax, DWORD PTR [eax]
  0007d	89 45 d0	 mov	 DWORD PTR __Ptr$[ebp], eax
; File C:\Program Files (x86)\Microsoft Visual Studio\2019\Community\VC\Tools\MSVC\14.28.29333\include\xmemory

; 810  :         _Deallocate<_New_alignof<_Ty>>(_Ptr, sizeof(_Ty) * _Count);

  00080	8b 45 d4	 mov	 eax, DWORD PTR __Count$[ebp]
  00083	c1 e0 02	 shl	 eax, 2
  00086	50		 push	 eax
  00087	ff 75 d0	 push	 DWORD PTR __Ptr$[ebp]
  0008a	e8 00 00 00 00	 call	 ??$_Deallocate@$07$0A@@std@@YAXPAXI@Z ; std::_Deallocate<8,0>
  0008f	59		 pop	 ecx
  00090	59		 pop	 ecx
; File C:\Program Files (x86)\Microsoft Visual Studio\2019\Community\VC\Tools\MSVC\14.28.29333\include\vector

; 1698 :             _Myfirst = pointer();

  00091	8b 45 fc	 mov	 eax, DWORD PTR __Myfirst$[ebp]
  00094	83 20 00	 and	 DWORD PTR [eax], 0

; 1699 :             _Mylast  = pointer();

  00097	8b 45 f0	 mov	 eax, DWORD PTR __Mylast$[ebp]
  0009a	83 20 00	 and	 DWORD PTR [eax], 0

; 1700 :             _Myend   = pointer();

  0009d	8b 45 ec	 mov	 eax, DWORD PTR __Myend$[ebp]
  000a0	83 20 00	 and	 DWORD PTR [eax], 0
$LN3@Tidy:

; 1701 :         }
; 1702 :     }

  000a3	c9		 leave
  000a4	c3		 ret	 0
?_Tidy@?$vector@PAVCGraphicMarkInstance@@V?$allocator@PAVCGraphicMarkInstance@@@std@@@std@@AAEXXZ ENDP ; std::vector<CGraphicMarkInstance *,std::allocator<CGraphicMarkInstance *> >::_Tidy
_TEXT	ENDS
; Function compile flags: /Odspy
; File C:\Program Files (x86)\Microsoft Visual Studio\2019\Community\VC\Tools\MSVC\14.28.29333\include\vector
; File C:\Program Files (x86)\Microsoft Visual Studio\2019\Community\VC\Tools\MSVC\14.28.29333\include\xmemory
; File C:\Program Files (x86)\Microsoft Visual Studio\2019\Community\VC\Tools\MSVC\14.28.29333\include\vector
; File C:\Program Files (x86)\Microsoft Visual Studio\2019\Community\VC\Tools\MSVC\14.28.29333\include\xmemory
; File C:\Program Files (x86)\Microsoft Visual Studio\2019\Community\VC\Tools\MSVC\14.28.29333\include\vector
; File C:\Program Files (x86)\Microsoft Visual Studio\2019\Community\VC\Tools\MSVC\14.28.29333\include\xmemory
; File C:\Program Files (x86)\Microsoft Visual Studio\2019\Community\VC\Tools\MSVC\14.28.29333\include\vector
;	COMDAT ?_Change_array@?$vector@PAVCGraphicMarkInstance@@V?$allocator@PAVCGraphicMarkInstance@@@std@@@std@@AAEXQAPAVCGraphicMarkInstance@@II@Z
_TEXT	SEGMENT
$T1 = -52						; size = 4
__Ptr$ = -48						; size = 4
__Count$ = -44						; size = 4
$T2 = -40						; size = 4
__First$ = -36						; size = 4
__Last$ = -32						; size = 4
$T3 = -28						; size = 4
$T4 = -24						; size = 4
__Myend$ = -20						; size = 4
__Mylast$ = -16						; size = 4
_this$ = -12						; size = 4
__My_data$ = -8						; size = 4
__Myfirst$ = -4						; size = 4
__Newvec$ = 8						; size = 4
__Newsize$ = 12						; size = 4
__Newcapacity$ = 16					; size = 4
?_Change_array@?$vector@PAVCGraphicMarkInstance@@V?$allocator@PAVCGraphicMarkInstance@@@std@@@std@@AAEXQAPAVCGraphicMarkInstance@@II@Z PROC ; std::vector<CGraphicMarkInstance *,std::allocator<CGraphicMarkInstance *> >::_Change_array, COMDAT
; _this$ = ecx

; 1667 :     void _Change_array(const pointer _Newvec, const size_type _Newsize, const size_type _Newcapacity) {

  00000	55		 push	 ebp
  00001	8b ec		 mov	 ebp, esp
  00003	83 ec 34	 sub	 esp, 52			; 00000034H
  00006	89 4d f4	 mov	 DWORD PTR _this$[ebp], ecx

; 1668 :         // orphan all iterators, discard old array, acquire new array
; 1669 :         auto& _My_data    = _Mypair._Myval2;

  00009	8b 45 f4	 mov	 eax, DWORD PTR _this$[ebp]
  0000c	89 45 f8	 mov	 DWORD PTR __My_data$[ebp], eax

; 1670 :         pointer& _Myfirst = _My_data._Myfirst;

  0000f	8b 45 f8	 mov	 eax, DWORD PTR __My_data$[ebp]
  00012	89 45 fc	 mov	 DWORD PTR __Myfirst$[ebp], eax

; 1671 :         pointer& _Mylast  = _My_data._Mylast;

  00015	8b 45 f8	 mov	 eax, DWORD PTR __My_data$[ebp]
  00018	83 c0 04	 add	 eax, 4
  0001b	89 45 f0	 mov	 DWORD PTR __Mylast$[ebp], eax

; 1672 :         pointer& _Myend   = _My_data._Myend;

  0001e	8b 45 f8	 mov	 eax, DWORD PTR __My_data$[ebp]
  00021	83 c0 08	 add	 eax, 8
  00024	89 45 ec	 mov	 DWORD PTR __Myend$[ebp], eax

; 1673 : 
; 1674 :         _My_data._Orphan_all();
; 1675 : 
; 1676 :         if (_Myfirst) { // destroy and deallocate old array

  00027	8b 45 fc	 mov	 eax, DWORD PTR __Myfirst$[ebp]
  0002a	83 38 00	 cmp	 DWORD PTR [eax], 0
  0002d	74 62		 je	 SHORT $LN2@Change_arr

; 1677 :             _Destroy(_Myfirst, _Mylast);

  0002f	8b 45 f0	 mov	 eax, DWORD PTR __Mylast$[ebp]
  00032	8b 00		 mov	 eax, DWORD PTR [eax]
  00034	89 45 e0	 mov	 DWORD PTR __Last$[ebp], eax
  00037	8b 45 fc	 mov	 eax, DWORD PTR __Myfirst$[ebp]
  0003a	8b 00		 mov	 eax, DWORD PTR [eax]
  0003c	89 45 dc	 mov	 DWORD PTR __First$[ebp], eax

; 1733 :         return _Mypair._Get_first();

  0003f	8b 45 f4	 mov	 eax, DWORD PTR _this$[ebp]
; File C:\Program Files (x86)\Microsoft Visual Studio\2019\Community\VC\Tools\MSVC\14.28.29333\include\xmemory

; 1347 :         return *this;

  00042	89 45 e8	 mov	 DWORD PTR $T4[ebp], eax
; File C:\Program Files (x86)\Microsoft Visual Studio\2019\Community\VC\Tools\MSVC\14.28.29333\include\vector

; 1733 :         return _Mypair._Get_first();

  00045	8b 45 e8	 mov	 eax, DWORD PTR $T4[ebp]
  00048	89 45 e4	 mov	 DWORD PTR $T3[ebp], eax

; 1612 :         _Destroy_range(_First, _Last, _Getal());

  0004b	ff 75 e4	 push	 DWORD PTR $T3[ebp]
  0004e	ff 75 e0	 push	 DWORD PTR __Last$[ebp]
  00051	ff 75 dc	 push	 DWORD PTR __First$[ebp]
  00054	e8 00 00 00 00	 call	 ??$_Destroy_range@V?$allocator@PAVCGraphicMarkInstance@@@std@@@std@@YAXPAPAVCGraphicMarkInstance@@QAPAV1@AAV?$allocator@PAVCGraphicMarkInstance@@@0@@Z ; std::_Destroy_range<std::allocator<CGraphicMarkInstance *> >
  00059	83 c4 0c	 add	 esp, 12			; 0000000cH

; 1733 :         return _Mypair._Get_first();

  0005c	8b 45 f4	 mov	 eax, DWORD PTR _this$[ebp]
; File C:\Program Files (x86)\Microsoft Visual Studio\2019\Community\VC\Tools\MSVC\14.28.29333\include\xmemory

; 1347 :         return *this;

  0005f	89 45 d8	 mov	 DWORD PTR $T2[ebp], eax
; File C:\Program Files (x86)\Microsoft Visual Studio\2019\Community\VC\Tools\MSVC\14.28.29333\include\vector

; 1733 :         return _Mypair._Get_first();

  00062	8b 45 d8	 mov	 eax, DWORD PTR $T2[ebp]
  00065	89 45 cc	 mov	 DWORD PTR $T1[ebp], eax

; 1678 :             _Getal().deallocate(_Myfirst, static_cast<size_type>(_Myend - _Myfirst));

  00068	8b 45 ec	 mov	 eax, DWORD PTR __Myend$[ebp]
  0006b	8b 4d fc	 mov	 ecx, DWORD PTR __Myfirst$[ebp]
  0006e	8b 00		 mov	 eax, DWORD PTR [eax]
  00070	2b 01		 sub	 eax, DWORD PTR [ecx]
  00072	c1 f8 02	 sar	 eax, 2
  00075	89 45 d4	 mov	 DWORD PTR __Count$[ebp], eax
  00078	8b 45 fc	 mov	 eax, DWORD PTR __Myfirst$[ebp]
  0007b	8b 00		 mov	 eax, DWORD PTR [eax]
  0007d	89 45 d0	 mov	 DWORD PTR __Ptr$[ebp], eax
; File C:\Program Files (x86)\Microsoft Visual Studio\2019\Community\VC\Tools\MSVC\14.28.29333\include\xmemory

; 810  :         _Deallocate<_New_alignof<_Ty>>(_Ptr, sizeof(_Ty) * _Count);

  00080	8b 45 d4	 mov	 eax, DWORD PTR __Count$[ebp]
  00083	c1 e0 02	 shl	 eax, 2
  00086	50		 push	 eax
  00087	ff 75 d0	 push	 DWORD PTR __Ptr$[ebp]
  0008a	e8 00 00 00 00	 call	 ??$_Deallocate@$07$0A@@std@@YAXPAXI@Z ; std::_Deallocate<8,0>
  0008f	59		 pop	 ecx
  00090	59		 pop	 ecx
$LN2@Change_arr:
; File C:\Program Files (x86)\Microsoft Visual Studio\2019\Community\VC\Tools\MSVC\14.28.29333\include\vector

; 1681 :         _Myfirst = _Newvec;

  00091	8b 45 fc	 mov	 eax, DWORD PTR __Myfirst$[ebp]
  00094	8b 4d 08	 mov	 ecx, DWORD PTR __Newvec$[ebp]
  00097	89 08		 mov	 DWORD PTR [eax], ecx

; 1682 :         _Mylast  = _Newvec + _Newsize;

  00099	8b 45 0c	 mov	 eax, DWORD PTR __Newsize$[ebp]
  0009c	8b 4d 08	 mov	 ecx, DWORD PTR __Newvec$[ebp]
  0009f	8d 04 81	 lea	 eax, DWORD PTR [ecx+eax*4]
  000a2	8b 4d f0	 mov	 ecx, DWORD PTR __Mylast$[ebp]
  000a5	89 01		 mov	 DWORD PTR [ecx], eax

; 1683 :         _Myend   = _Newvec + _Newcapacity;

  000a7	8b 45 10	 mov	 eax, DWORD PTR __Newcapacity$[ebp]
  000aa	8b 4d 08	 mov	 ecx, DWORD PTR __Newvec$[ebp]
  000ad	8d 04 81	 lea	 eax, DWORD PTR [ecx+eax*4]
  000b0	8b 4d ec	 mov	 ecx, DWORD PTR __Myend$[ebp]
  000b3	89 01		 mov	 DWORD PTR [ecx], eax

; 1684 :     }

  000b5	c9		 leave
  000b6	c2 0c 00	 ret	 12			; 0000000cH
?_Change_array@?$vector@PAVCGraphicMarkInstance@@V?$allocator@PAVCGraphicMarkInstance@@@std@@@std@@AAEXQAPAVCGraphicMarkInstance@@II@Z ENDP ; std::vector<CGraphicMarkInstance *,std::allocator<CGraphicMarkInstance *> >::_Change_array
_TEXT	ENDS
; Function compile flags: /Odspy
; File C:\Program Files (x86)\Microsoft Visual Studio\2019\Community\VC\Tools\MSVC\14.28.29333\include\vector
; File C:\Program Files (x86)\Microsoft Visual Studio\2019\Community\VC\Tools\MSVC\14.28.29333\include\xmemory
; File C:\Program Files (x86)\Microsoft Visual Studio\2019\Community\VC\Tools\MSVC\14.28.29333\include\vector
; File C:\Program Files (x86)\Microsoft Visual Studio\2019\Community\VC\Tools\MSVC\14.28.29333\include\xmemory
; File C:\Program Files (x86)\Microsoft Visual Studio\2019\Community\VC\Tools\MSVC\14.28.29333\include\limits
; File C:\Program Files (x86)\Microsoft Visual Studio\2019\Community\VC\Tools\MSVC\14.28.29333\include\vector
; File C:\Program Files (x86)\Microsoft Visual Studio\2019\Community\VC\Tools\MSVC\14.28.29333\include\utility
; File C:\Program Files (x86)\Microsoft Visual Studio\2019\Community\VC\Tools\MSVC\14.28.29333\include\vector
;	COMDAT ?_Calculate_growth@?$vector@PAVCGraphicMarkInstance@@V?$allocator@PAVCGraphicMarkInstance@@@std@@@std@@ABEII@Z
_TEXT	SEGMENT
$T1 = -52						; size = 4
$T2 = -48						; size = 4
$T3 = -44						; size = 4
$T4 = -40						; size = 4
$T5 = -36						; size = 4
__Geometric$ = -32					; size = 4
__Max$ = -28						; size = 4
tv82 = -24						; size = 4
$T6 = -20						; size = 4
$T7 = -16						; size = 4
_this$ = -12						; size = 4
__My_data$8 = -8					; size = 4
__Oldcapacity$ = -4					; size = 4
__Newsize$ = 8						; size = 4
?_Calculate_growth@?$vector@PAVCGraphicMarkInstance@@V?$allocator@PAVCGraphicMarkInstance@@@std@@@std@@ABEII@Z PROC ; std::vector<CGraphicMarkInstance *,std::allocator<CGraphicMarkInstance *> >::_Calculate_growth, COMDAT
; _this$ = ecx

; 1615 :     size_type _Calculate_growth(const size_type _Newsize) const {

  00000	55		 push	 ebp
  00001	8b ec		 mov	 ebp, esp
  00003	83 ec 34	 sub	 esp, 52			; 00000034H
  00006	89 4d f4	 mov	 DWORD PTR _this$[ebp], ecx

; 1493 :         auto& _My_data = _Mypair._Myval2;

  00009	8b 45 f4	 mov	 eax, DWORD PTR _this$[ebp]
  0000c	89 45 f8	 mov	 DWORD PTR __My_data$8[ebp], eax

; 1494 :         return static_cast<size_type>(_My_data._Myend - _My_data._Myfirst);

  0000f	8b 45 f8	 mov	 eax, DWORD PTR __My_data$8[ebp]
  00012	8b 4d f8	 mov	 ecx, DWORD PTR __My_data$8[ebp]
  00015	8b 40 08	 mov	 eax, DWORD PTR [eax+8]
  00018	2b 01		 sub	 eax, DWORD PTR [ecx]
  0001a	c1 f8 02	 sar	 eax, 2
  0001d	89 45 fc	 mov	 DWORD PTR __Oldcapacity$[ebp], eax

; 1737 :         return _Mypair._Get_first();

  00020	8b 45 f4	 mov	 eax, DWORD PTR _this$[ebp]
; File C:\Program Files (x86)\Microsoft Visual Studio\2019\Community\VC\Tools\MSVC\14.28.29333\include\xmemory

; 1351 :         return *this;

  00023	89 45 dc	 mov	 DWORD PTR $T5[ebp], eax
; File C:\Program Files (x86)\Microsoft Visual Studio\2019\Community\VC\Tools\MSVC\14.28.29333\include\vector

; 1737 :         return _Mypair._Get_first();

  00026	8b 45 dc	 mov	 eax, DWORD PTR $T5[ebp]
  00029	89 45 cc	 mov	 DWORD PTR $T1[ebp], eax
; File C:\Program Files (x86)\Microsoft Visual Studio\2019\Community\VC\Tools\MSVC\14.28.29333\include\xmemory

; 710  :         return static_cast<size_t>(-1) / sizeof(value_type);

  0002c	c7 45 f0 ff ff
	ff 3f		 mov	 DWORD PTR $T7[ebp], 1073741823 ; 3fffffffH
; File C:\Program Files (x86)\Microsoft Visual Studio\2019\Community\VC\Tools\MSVC\14.28.29333\include\limits

; 557  :         return INT_MAX;

  00033	c7 45 d8 ff ff
	ff 7f		 mov	 DWORD PTR $T4[ebp], 2147483647 ; 7fffffffH
; File C:\Program Files (x86)\Microsoft Visual Studio\2019\Community\VC\Tools\MSVC\14.28.29333\include\vector

; 1488 :         return (_STD min)(

  0003a	8b 45 d8	 mov	 eax, DWORD PTR $T4[ebp]
  0003d	89 45 ec	 mov	 DWORD PTR $T6[ebp], eax
; File C:\Program Files (x86)\Microsoft Visual Studio\2019\Community\VC\Tools\MSVC\14.28.29333\include\utility

; 68   :     return _Right < _Left ? _Right : _Left;

  00040	8b 45 f0	 mov	 eax, DWORD PTR $T7[ebp]
  00043	3b 45 ec	 cmp	 eax, DWORD PTR $T6[ebp]
  00046	73 08		 jae	 SHORT $LN25@Calculate_
  00048	8d 45 f0	 lea	 eax, DWORD PTR $T7[ebp]
  0004b	89 45 e8	 mov	 DWORD PTR tv82[ebp], eax
  0004e	eb 06		 jmp	 SHORT $LN26@Calculate_
$LN25@Calculate_:
  00050	8d 45 ec	 lea	 eax, DWORD PTR $T6[ebp]
  00053	89 45 e8	 mov	 DWORD PTR tv82[ebp], eax
$LN26@Calculate_:
  00056	8b 45 e8	 mov	 eax, DWORD PTR tv82[ebp]
  00059	89 45 d4	 mov	 DWORD PTR $T3[ebp], eax
  0005c	8b 45 d4	 mov	 eax, DWORD PTR $T3[ebp]
  0005f	89 45 d0	 mov	 DWORD PTR $T2[ebp], eax
; File C:\Program Files (x86)\Microsoft Visual Studio\2019\Community\VC\Tools\MSVC\14.28.29333\include\vector

; 1488 :         return (_STD min)(

  00062	8b 45 d0	 mov	 eax, DWORD PTR $T2[ebp]
  00065	8b 00		 mov	 eax, DWORD PTR [eax]
  00067	89 45 e4	 mov	 DWORD PTR __Max$[ebp], eax

; 1616 :         // given _Oldcapacity and _Newsize, calculate geometric growth
; 1617 :         const size_type _Oldcapacity = capacity();
; 1618 :         const auto _Max              = max_size();
; 1619 : 
; 1620 :         if (_Oldcapacity > _Max - _Oldcapacity / 2) {

  0006a	8b 45 fc	 mov	 eax, DWORD PTR __Oldcapacity$[ebp]
  0006d	d1 e8		 shr	 eax, 1
  0006f	8b 4d e4	 mov	 ecx, DWORD PTR __Max$[ebp]
  00072	2b c8		 sub	 ecx, eax
  00074	39 4d fc	 cmp	 DWORD PTR __Oldcapacity$[ebp], ecx
  00077	76 05		 jbe	 SHORT $LN2@Calculate_

; 1621 :             return _Max; // geometric growth would overflow

  00079	8b 45 e4	 mov	 eax, DWORD PTR __Max$[ebp]
  0007c	eb 1b		 jmp	 SHORT $LN1@Calculate_
$LN2@Calculate_:

; 1622 :         }
; 1623 : 
; 1624 :         const size_type _Geometric = _Oldcapacity + _Oldcapacity / 2;

  0007e	8b 45 fc	 mov	 eax, DWORD PTR __Oldcapacity$[ebp]
  00081	d1 e8		 shr	 eax, 1
  00083	03 45 fc	 add	 eax, DWORD PTR __Oldcapacity$[ebp]
  00086	89 45 e0	 mov	 DWORD PTR __Geometric$[ebp], eax

; 1625 : 
; 1626 :         if (_Geometric < _Newsize) {

  00089	8b 45 e0	 mov	 eax, DWORD PTR __Geometric$[ebp]
  0008c	3b 45 08	 cmp	 eax, DWORD PTR __Newsize$[ebp]
  0008f	73 05		 jae	 SHORT $LN3@Calculate_

; 1627 :             return _Newsize; // geometric growth would be insufficient

  00091	8b 45 08	 mov	 eax, DWORD PTR __Newsize$[ebp]
  00094	eb 03		 jmp	 SHORT $LN1@Calculate_
$LN3@Calculate_:

; 1628 :         }
; 1629 : 
; 1630 :         return _Geometric; // geometric growth is sufficient

  00096	8b 45 e0	 mov	 eax, DWORD PTR __Geometric$[ebp]
$LN1@Calculate_:

; 1631 :     }

  00099	c9		 leave
  0009a	c2 04 00	 ret	 4
?_Calculate_growth@?$vector@PAVCGraphicMarkInstance@@V?$allocator@PAVCGraphicMarkInstance@@@std@@@std@@ABEII@Z ENDP ; std::vector<CGraphicMarkInstance *,std::allocator<CGraphicMarkInstance *> >::_Calculate_growth
_TEXT	ENDS
; Function compile flags: /Odspy
; File C:\Program Files (x86)\Microsoft Visual Studio\2019\Community\VC\Tools\MSVC\14.28.29333\include\vector
; File C:\Program Files (x86)\Microsoft Visual Studio\2019\Community\VC\Tools\MSVC\14.28.29333\include\xmemory
; File C:\Program Files (x86)\Microsoft Visual Studio\2019\Community\VC\Tools\MSVC\14.28.29333\include\vector
;	COMDAT ?_Destroy@?$vector@PAVCGraphicMarkInstance@@V?$allocator@PAVCGraphicMarkInstance@@@std@@@std@@AAEXPAPAVCGraphicMarkInstance@@0@Z
_TEXT	SEGMENT
$T1 = -12						; size = 4
$T2 = -8						; size = 4
_this$ = -4						; size = 4
__First$ = 8						; size = 4
__Last$ = 12						; size = 4
?_Destroy@?$vector@PAVCGraphicMarkInstance@@V?$allocator@PAVCGraphicMarkInstance@@@std@@@std@@AAEXPAPAVCGraphicMarkInstance@@0@Z PROC ; std::vector<CGraphicMarkInstance *,std::allocator<CGraphicMarkInstance *> >::_Destroy, COMDAT
; _this$ = ecx

; 1611 :     void _Destroy(pointer _First, pointer _Last) { // destroy [_First, _Last) using allocator

  00000	55		 push	 ebp
  00001	8b ec		 mov	 ebp, esp
  00003	83 ec 0c	 sub	 esp, 12			; 0000000cH
  00006	89 4d fc	 mov	 DWORD PTR _this$[ebp], ecx

; 1733 :         return _Mypair._Get_first();

  00009	8b 45 fc	 mov	 eax, DWORD PTR _this$[ebp]
; File C:\Program Files (x86)\Microsoft Visual Studio\2019\Community\VC\Tools\MSVC\14.28.29333\include\xmemory

; 1347 :         return *this;

  0000c	89 45 f8	 mov	 DWORD PTR $T2[ebp], eax
; File C:\Program Files (x86)\Microsoft Visual Studio\2019\Community\VC\Tools\MSVC\14.28.29333\include\vector

; 1733 :         return _Mypair._Get_first();

  0000f	8b 45 f8	 mov	 eax, DWORD PTR $T2[ebp]
  00012	89 45 f4	 mov	 DWORD PTR $T1[ebp], eax

; 1612 :         _Destroy_range(_First, _Last, _Getal());

  00015	ff 75 f4	 push	 DWORD PTR $T1[ebp]
  00018	ff 75 0c	 push	 DWORD PTR __Last$[ebp]
  0001b	ff 75 08	 push	 DWORD PTR __First$[ebp]
  0001e	e8 00 00 00 00	 call	 ??$_Destroy_range@V?$allocator@PAVCGraphicMarkInstance@@@std@@@std@@YAXPAPAVCGraphicMarkInstance@@QAPAV1@AAV?$allocator@PAVCGraphicMarkInstance@@@0@@Z ; std::_Destroy_range<std::allocator<CGraphicMarkInstance *> >
  00023	83 c4 0c	 add	 esp, 12			; 0000000cH

; 1613 :     }

  00026	c9		 leave
  00027	c2 08 00	 ret	 8
?_Destroy@?$vector@PAVCGraphicMarkInstance@@V?$allocator@PAVCGraphicMarkInstance@@@std@@@std@@AAEXPAPAVCGraphicMarkInstance@@0@Z ENDP ; std::vector<CGraphicMarkInstance *,std::allocator<CGraphicMarkInstance *> >::_Destroy
_TEXT	ENDS
; Function compile flags: /Odspy
; File C:\Program Files (x86)\Microsoft Visual Studio\2019\Community\VC\Tools\MSVC\14.28.29333\include\vector
; File C:\Program Files (x86)\Microsoft Visual Studio\2019\Community\VC\Tools\MSVC\14.28.29333\include\xmemory
; File C:\Program Files (x86)\Microsoft Visual Studio\2019\Community\VC\Tools\MSVC\14.28.29333\include\vector
;	COMDAT ?clear@?$vector@PAVCGraphicMarkInstance@@V?$allocator@PAVCGraphicMarkInstance@@@std@@@std@@QAEXXZ
_TEXT	SEGMENT
__First$ = -32						; size = 4
__Last$ = -28						; size = 4
$T1 = -24						; size = 4
$T2 = -20						; size = 4
__Myfirst$ = -16					; size = 4
__Mylast$ = -12						; size = 4
_this$ = -8						; size = 4
__My_data$ = -4						; size = 4
?clear@?$vector@PAVCGraphicMarkInstance@@V?$allocator@PAVCGraphicMarkInstance@@@std@@@std@@QAEXXZ PROC ; std::vector<CGraphicMarkInstance *,std::allocator<CGraphicMarkInstance *> >::clear, COMDAT
; _this$ = ecx

; 1383 :     void clear() noexcept { // erase all

  00000	55		 push	 ebp
  00001	8b ec		 mov	 ebp, esp
  00003	83 ec 20	 sub	 esp, 32			; 00000020H
  00006	89 4d f8	 mov	 DWORD PTR _this$[ebp], ecx

; 1384 :         auto& _My_data    = _Mypair._Myval2;

  00009	8b 45 f8	 mov	 eax, DWORD PTR _this$[ebp]
  0000c	89 45 fc	 mov	 DWORD PTR __My_data$[ebp], eax

; 1385 :         pointer& _Myfirst = _My_data._Myfirst;

  0000f	8b 45 fc	 mov	 eax, DWORD PTR __My_data$[ebp]
  00012	89 45 f0	 mov	 DWORD PTR __Myfirst$[ebp], eax

; 1386 :         pointer& _Mylast  = _My_data._Mylast;

  00015	8b 45 fc	 mov	 eax, DWORD PTR __My_data$[ebp]
  00018	83 c0 04	 add	 eax, 4
  0001b	89 45 f4	 mov	 DWORD PTR __Mylast$[ebp], eax

; 1387 : 
; 1388 :         _My_data._Orphan_all();
; 1389 :         _Destroy(_Myfirst, _Mylast);

  0001e	8b 45 f4	 mov	 eax, DWORD PTR __Mylast$[ebp]
  00021	8b 00		 mov	 eax, DWORD PTR [eax]
  00023	89 45 e4	 mov	 DWORD PTR __Last$[ebp], eax
  00026	8b 45 f0	 mov	 eax, DWORD PTR __Myfirst$[ebp]
  00029	8b 00		 mov	 eax, DWORD PTR [eax]
  0002b	89 45 e0	 mov	 DWORD PTR __First$[ebp], eax

; 1733 :         return _Mypair._Get_first();

  0002e	8b 45 f8	 mov	 eax, DWORD PTR _this$[ebp]
; File C:\Program Files (x86)\Microsoft Visual Studio\2019\Community\VC\Tools\MSVC\14.28.29333\include\xmemory

; 1347 :         return *this;

  00031	89 45 ec	 mov	 DWORD PTR $T2[ebp], eax
; File C:\Program Files (x86)\Microsoft Visual Studio\2019\Community\VC\Tools\MSVC\14.28.29333\include\vector

; 1733 :         return _Mypair._Get_first();

  00034	8b 45 ec	 mov	 eax, DWORD PTR $T2[ebp]
  00037	89 45 e8	 mov	 DWORD PTR $T1[ebp], eax

; 1612 :         _Destroy_range(_First, _Last, _Getal());

  0003a	ff 75 e8	 push	 DWORD PTR $T1[ebp]
  0003d	ff 75 e4	 push	 DWORD PTR __Last$[ebp]
  00040	ff 75 e0	 push	 DWORD PTR __First$[ebp]
  00043	e8 00 00 00 00	 call	 ??$_Destroy_range@V?$allocator@PAVCGraphicMarkInstance@@@std@@@std@@YAXPAPAVCGraphicMarkInstance@@QAPAV1@AAV?$allocator@PAVCGraphicMarkInstance@@@0@@Z ; std::_Destroy_range<std::allocator<CGraphicMarkInstance *> >
  00048	83 c4 0c	 add	 esp, 12			; 0000000cH

; 1390 :         _Mylast = _Myfirst;

  0004b	8b 45 f4	 mov	 eax, DWORD PTR __Mylast$[ebp]
  0004e	8b 4d f0	 mov	 ecx, DWORD PTR __Myfirst$[ebp]
  00051	8b 09		 mov	 ecx, DWORD PTR [ecx]
  00053	89 08		 mov	 DWORD PTR [eax], ecx

; 1391 :     }

  00055	c9		 leave
  00056	c3		 ret	 0
?clear@?$vector@PAVCGraphicMarkInstance@@V?$allocator@PAVCGraphicMarkInstance@@@std@@@std@@QAEXXZ ENDP ; std::vector<CGraphicMarkInstance *,std::allocator<CGraphicMarkInstance *> >::clear
_TEXT	ENDS
; Function compile flags: /Odspy
; File C:\Program Files (x86)\Microsoft Visual Studio\2019\Community\VC\Tools\MSVC\14.28.29333\include\vector
; File C:\Program Files (x86)\Microsoft Visual Studio\2019\Community\VC\Tools\MSVC\14.28.29333\include\xmemory
; File C:\Program Files (x86)\Microsoft Visual Studio\2019\Community\VC\Tools\MSVC\14.28.29333\include\vector
; File C:\Program Files (x86)\Microsoft Visual Studio\2019\Community\VC\Tools\MSVC\14.28.29333\include\xmemory
; File C:\Program Files (x86)\Microsoft Visual Studio\2019\Community\VC\Tools\MSVC\14.28.29333\include\limits
; File C:\Program Files (x86)\Microsoft Visual Studio\2019\Community\VC\Tools\MSVC\14.28.29333\include\vector
; File C:\Program Files (x86)\Microsoft Visual Studio\2019\Community\VC\Tools\MSVC\14.28.29333\include\utility
; File C:\Program Files (x86)\Microsoft Visual Studio\2019\Community\VC\Tools\MSVC\14.28.29333\include\vector
;	COMDAT ?reserve@?$vector@PAVCGraphicMarkInstance@@V?$allocator@PAVCGraphicMarkInstance@@@std@@@std@@QAEXI@Z
_TEXT	SEGMENT
$T1 = -48						; size = 4
$T2 = -44						; size = 4
$T3 = -40						; size = 4
$T4 = -36						; size = 4
$T5 = -32						; size = 4
$T6 = -28						; size = 4
$T7 = -24						; size = 4
tv81 = -20						; size = 4
$T8 = -16						; size = 4
$T9 = -12						; size = 4
__My_data$10 = -8					; size = 4
_this$ = -4						; size = 4
__Newcapacity$ = 8					; size = 4
?reserve@?$vector@PAVCGraphicMarkInstance@@V?$allocator@PAVCGraphicMarkInstance@@@std@@@std@@QAEXI@Z PROC ; std::vector<CGraphicMarkInstance *,std::allocator<CGraphicMarkInstance *> >::reserve, COMDAT
; _this$ = ecx

; 1304 :     void reserve(_CRT_GUARDOVERFLOW const size_type _Newcapacity) {

  00000	55		 push	 ebp
  00001	8b ec		 mov	 ebp, esp
  00003	83 ec 30	 sub	 esp, 48			; 00000030H
  00006	89 4d fc	 mov	 DWORD PTR _this$[ebp], ecx

; 1493 :         auto& _My_data = _Mypair._Myval2;

  00009	8b 45 fc	 mov	 eax, DWORD PTR _this$[ebp]
  0000c	89 45 f8	 mov	 DWORD PTR __My_data$10[ebp], eax

; 1494 :         return static_cast<size_type>(_My_data._Myend - _My_data._Myfirst);

  0000f	8b 45 f8	 mov	 eax, DWORD PTR __My_data$10[ebp]
  00012	8b 4d f8	 mov	 ecx, DWORD PTR __My_data$10[ebp]
  00015	8b 40 08	 mov	 eax, DWORD PTR [eax+8]
  00018	2b 01		 sub	 eax, DWORD PTR [ecx]
  0001a	c1 f8 02	 sar	 eax, 2
  0001d	89 45 e8	 mov	 DWORD PTR $T7[ebp], eax

; 1305 :         // increase capacity to _Newcapacity (without geometric growth), provide strong guarantee
; 1306 :         if (_Newcapacity > capacity()) { // something to do (reserve() never shrinks)

  00020	8b 45 08	 mov	 eax, DWORD PTR __Newcapacity$[ebp]
  00023	3b 45 e8	 cmp	 eax, DWORD PTR $T7[ebp]
  00026	76 62		 jbe	 SHORT $LN4@reserve

; 1737 :         return _Mypair._Get_first();

  00028	8b 45 fc	 mov	 eax, DWORD PTR _this$[ebp]
; File C:\Program Files (x86)\Microsoft Visual Studio\2019\Community\VC\Tools\MSVC\14.28.29333\include\xmemory

; 1351 :         return *this;

  0002b	89 45 e4	 mov	 DWORD PTR $T6[ebp], eax
; File C:\Program Files (x86)\Microsoft Visual Studio\2019\Community\VC\Tools\MSVC\14.28.29333\include\vector

; 1737 :         return _Mypair._Get_first();

  0002e	8b 45 e4	 mov	 eax, DWORD PTR $T6[ebp]
  00031	89 45 d0	 mov	 DWORD PTR $T1[ebp], eax
; File C:\Program Files (x86)\Microsoft Visual Studio\2019\Community\VC\Tools\MSVC\14.28.29333\include\xmemory

; 710  :         return static_cast<size_t>(-1) / sizeof(value_type);

  00034	c7 45 f4 ff ff
	ff 3f		 mov	 DWORD PTR $T9[ebp], 1073741823 ; 3fffffffH
; File C:\Program Files (x86)\Microsoft Visual Studio\2019\Community\VC\Tools\MSVC\14.28.29333\include\limits

; 557  :         return INT_MAX;

  0003b	c7 45 e0 ff ff
	ff 7f		 mov	 DWORD PTR $T5[ebp], 2147483647 ; 7fffffffH
; File C:\Program Files (x86)\Microsoft Visual Studio\2019\Community\VC\Tools\MSVC\14.28.29333\include\vector

; 1488 :         return (_STD min)(

  00042	8b 45 e0	 mov	 eax, DWORD PTR $T5[ebp]
  00045	89 45 f0	 mov	 DWORD PTR $T8[ebp], eax
; File C:\Program Files (x86)\Microsoft Visual Studio\2019\Community\VC\Tools\MSVC\14.28.29333\include\utility

; 68   :     return _Right < _Left ? _Right : _Left;

  00048	8b 45 f4	 mov	 eax, DWORD PTR $T9[ebp]
  0004b	3b 45 f0	 cmp	 eax, DWORD PTR $T8[ebp]
  0004e	73 08		 jae	 SHORT $LN25@reserve
  00050	8d 45 f4	 lea	 eax, DWORD PTR $T9[ebp]
  00053	89 45 ec	 mov	 DWORD PTR tv81[ebp], eax
  00056	eb 06		 jmp	 SHORT $LN26@reserve
$LN25@reserve:
  00058	8d 45 f0	 lea	 eax, DWORD PTR $T8[ebp]
  0005b	89 45 ec	 mov	 DWORD PTR tv81[ebp], eax
$LN26@reserve:
  0005e	8b 45 ec	 mov	 eax, DWORD PTR tv81[ebp]
  00061	89 45 dc	 mov	 DWORD PTR $T4[ebp], eax
  00064	8b 45 dc	 mov	 eax, DWORD PTR $T4[ebp]
  00067	89 45 d8	 mov	 DWORD PTR $T3[ebp], eax
; File C:\Program Files (x86)\Microsoft Visual Studio\2019\Community\VC\Tools\MSVC\14.28.29333\include\vector

; 1488 :         return (_STD min)(

  0006a	8b 45 d8	 mov	 eax, DWORD PTR $T3[ebp]
  0006d	8b 00		 mov	 eax, DWORD PTR [eax]
  0006f	89 45 d4	 mov	 DWORD PTR $T2[ebp], eax

; 1307 :             if (_Newcapacity > max_size()) {

  00072	8b 45 08	 mov	 eax, DWORD PTR __Newcapacity$[ebp]
  00075	3b 45 d4	 cmp	 eax, DWORD PTR $T2[ebp]
  00078	76 05		 jbe	 SHORT $LN3@reserve

; 1308 :                 _Xlength();

  0007a	e8 00 00 00 00	 call	 ?_Xlength@?$vector@PAVCGraphicMarkInstance@@V?$allocator@PAVCGraphicMarkInstance@@@std@@@std@@CAXXZ ; std::vector<CGraphicMarkInstance *,std::allocator<CGraphicMarkInstance *> >::_Xlength
$LN3@reserve:

; 1309 :             }
; 1310 : 
; 1311 :             _Reallocate_exactly(_Newcapacity);

  0007f	ff 75 08	 push	 DWORD PTR __Newcapacity$[ebp]
  00082	8b 4d fc	 mov	 ecx, DWORD PTR _this$[ebp]
  00085	e8 00 00 00 00	 call	 ?_Reallocate_exactly@?$vector@PAVCGraphicMarkInstance@@V?$allocator@PAVCGraphicMarkInstance@@@std@@@std@@AAEXI@Z ; std::vector<CGraphicMarkInstance *,std::allocator<CGraphicMarkInstance *> >::_Reallocate_exactly
$LN4@reserve:

; 1312 :         }
; 1313 :     }

  0008a	c9		 leave
  0008b	c2 04 00	 ret	 4
?reserve@?$vector@PAVCGraphicMarkInstance@@V?$allocator@PAVCGraphicMarkInstance@@@std@@@std@@QAEXI@Z ENDP ; std::vector<CGraphicMarkInstance *,std::allocator<CGraphicMarkInstance *> >::reserve
_TEXT	ENDS
; Function compile flags: /Odspy
; File C:\Program Files (x86)\Microsoft Visual Studio\2019\Community\VC\Tools\MSVC\14.28.29333\include\vector
; File C:\Program Files (x86)\Microsoft Visual Studio\2019\Community\VC\Tools\MSVC\14.28.29333\include\xmemory
; File C:\Program Files (x86)\Microsoft Visual Studio\2019\Community\VC\Tools\MSVC\14.28.29333\include\vector
; File C:\Program Files (x86)\Microsoft Visual Studio\2019\Community\VC\Tools\MSVC\14.28.29333\include\xmemory
; File C:\Program Files (x86)\Microsoft Visual Studio\2019\Community\VC\Tools\MSVC\14.28.29333\include\vector
; File C:\Program Files (x86)\Microsoft Visual Studio\2019\Community\VC\Tools\MSVC\14.28.29333\include\xmemory
; File C:\Program Files (x86)\Microsoft Visual Studio\2019\Community\VC\Tools\MSVC\14.28.29333\include\vector
;	COMDAT ?_Reallocate_exactly@?$vector@PAVCGraphicMarkInstance@@V?$allocator@PAVCGraphicMarkInstance@@@std@@@std@@AAEXI@Z
_TEXT	SEGMENT
__Max_possible$2 = -80					; size = 4
$T3 = -76						; size = 4
__Size$ = -72						; size = 4
__First$ = -68						; size = 4
__Last$ = -64						; size = 4
$T4 = -60						; size = 4
$T5 = -56						; size = 4
$T6 = -52						; size = 4
$T7 = -48						; size = 4
__Myfirst$ = -44					; size = 4
__Mylast$ = -40						; size = 4
__My_data$ = -36					; size = 4
__Newvec$ = -32						; size = 4
_this$ = -28						; size = 4
___formal$ = -24					; size = 1
__Overflow_is_possible$8 = -18				; size = 1
$T9 = -17						; size = 1
__$EHRec$ = -16						; size = 16
__Newcapacity$ = 8					; size = 4
?_Reallocate_exactly@?$vector@PAVCGraphicMarkInstance@@V?$allocator@PAVCGraphicMarkInstance@@@std@@@std@@AAEXI@Z PROC ; std::vector<CGraphicMarkInstance *,std::allocator<CGraphicMarkInstance *> >::_Reallocate_exactly, COMDAT
; _this$ = ecx

; 1251 :     void _Reallocate_exactly(const size_type _Newcapacity) {

  00000	55		 push	 ebp
  00001	8b ec		 mov	 ebp, esp
  00003	6a ff		 push	 -1
  00005	68 00 00 00 00	 push	 __ehhandler$?_Reallocate_exactly@?$vector@PAVCGraphicMarkInstance@@V?$allocator@PAVCGraphicMarkInstance@@@std@@@std@@AAEXI@Z
  0000a	64 a1 00 00 00
	00		 mov	 eax, DWORD PTR fs:0
  00010	50		 push	 eax
  00011	51		 push	 ecx
  00012	83 ec 40	 sub	 esp, 64			; 00000040H
  00015	53		 push	 ebx
  00016	56		 push	 esi
  00017	57		 push	 edi
  00018	a1 00 00 00 00	 mov	 eax, DWORD PTR ___security_cookie
  0001d	33 c5		 xor	 eax, ebp
  0001f	50		 push	 eax
  00020	8d 45 f4	 lea	 eax, DWORD PTR __$EHRec$[ebp+4]
  00023	64 a3 00 00 00
	00		 mov	 DWORD PTR fs:0, eax
  00029	89 65 f0	 mov	 DWORD PTR __$EHRec$[ebp], esp
  0002c	89 4d e4	 mov	 DWORD PTR _this$[ebp], ecx

; 1252 :         // set capacity to _Newcapacity (without geometric growth), provide strong guarantee
; 1253 :         auto& _My_data    = _Mypair._Myval2;

  0002f	8b 45 e4	 mov	 eax, DWORD PTR _this$[ebp]
  00032	89 45 dc	 mov	 DWORD PTR __My_data$[ebp], eax

; 1254 :         pointer& _Myfirst = _My_data._Myfirst;

  00035	8b 45 dc	 mov	 eax, DWORD PTR __My_data$[ebp]
  00038	89 45 d4	 mov	 DWORD PTR __Myfirst$[ebp], eax

; 1255 :         pointer& _Mylast  = _My_data._Mylast;

  0003b	8b 45 dc	 mov	 eax, DWORD PTR __My_data$[ebp]
  0003e	83 c0 04	 add	 eax, 4
  00041	89 45 d8	 mov	 DWORD PTR __Mylast$[ebp], eax

; 1256 : 
; 1257 :         const auto _Size = static_cast<size_type>(_Mylast - _Myfirst);

  00044	8b 45 d8	 mov	 eax, DWORD PTR __Mylast$[ebp]
  00047	8b 4d d4	 mov	 ecx, DWORD PTR __Myfirst$[ebp]
  0004a	8b 00		 mov	 eax, DWORD PTR [eax]
  0004c	2b 01		 sub	 eax, DWORD PTR [ecx]
  0004e	c1 f8 02	 sar	 eax, 2
  00051	89 45 b8	 mov	 DWORD PTR __Size$[ebp], eax

; 1733 :         return _Mypair._Get_first();

  00054	8b 45 e4	 mov	 eax, DWORD PTR _this$[ebp]
; File C:\Program Files (x86)\Microsoft Visual Studio\2019\Community\VC\Tools\MSVC\14.28.29333\include\xmemory

; 1347 :         return *this;

  00057	89 45 d0	 mov	 DWORD PTR $T7[ebp], eax
; File C:\Program Files (x86)\Microsoft Visual Studio\2019\Community\VC\Tools\MSVC\14.28.29333\include\vector

; 1733 :         return _Mypair._Get_first();

  0005a	8b 45 d0	 mov	 eax, DWORD PTR $T7[ebp]
  0005d	89 45 b4	 mov	 DWORD PTR $T3[ebp], eax
; File C:\Program Files (x86)\Microsoft Visual Studio\2019\Community\VC\Tools\MSVC\14.28.29333\include\xmemory

; 56   :     constexpr bool _Overflow_is_possible = _Ty_size > 1;

  00060	c6 45 ee 01	 mov	 BYTE PTR __Overflow_is_possible$8[ebp], 1

; 57   : 
; 58   :     if _CONSTEXPR_IF (_Overflow_is_possible) {
; 59   :         constexpr size_t _Max_possible = static_cast<size_t>(-1) / _Ty_size;

  00064	c7 45 b0 ff ff
	ff 3f		 mov	 DWORD PTR __Max_possible$2[ebp], 1073741823 ; 3fffffffH

; 60   :         if (_Count > _Max_possible) {

  0006b	81 7d 08 ff ff
	ff 3f		 cmp	 DWORD PTR __Newcapacity$[ebp], 1073741823 ; 3fffffffH
  00072	76 05		 jbe	 SHORT $LN17@Reallocate

; 61   :             _Throw_bad_array_new_length(); // multiply overflow

  00074	e8 00 00 00 00	 call	 ?_Throw_bad_array_new_length@std@@YAXXZ ; std::_Throw_bad_array_new_length
$LN17@Reallocate:

; 62   :         }
; 63   :     }
; 64   : 
; 65   :     return _Count * _Ty_size;

  00079	8b 45 08	 mov	 eax, DWORD PTR __Newcapacity$[ebp]
  0007c	c1 e0 02	 shl	 eax, 2
  0007f	89 45 cc	 mov	 DWORD PTR $T6[ebp], eax

; 814  :         return static_cast<_Ty*>(_Allocate<_New_alignof<_Ty>>(_Get_size_of_n<sizeof(_Ty)>(_Count)));

  00082	ff 75 cc	 push	 DWORD PTR $T6[ebp]
  00085	e8 00 00 00 00	 call	 ??$_Allocate@$07U_Default_allocate_traits@std@@$0A@@std@@YAPAXI@Z ; std::_Allocate<8,std::_Default_allocate_traits,0>
  0008a	59		 pop	 ecx
  0008b	89 45 e0	 mov	 DWORD PTR __Newvec$[ebp], eax
; File C:\Program Files (x86)\Microsoft Visual Studio\2019\Community\VC\Tools\MSVC\14.28.29333\include\vector

; 1261 :         _TRY_BEGIN

  0008e	83 65 fc 00	 and	 DWORD PTR __$EHRec$[ebp+12], 0

; 1262 :         _Umove_if_noexcept(_Myfirst, _Mylast, _Newvec);

  00092	8b 45 d8	 mov	 eax, DWORD PTR __Mylast$[ebp]
  00095	8b 00		 mov	 eax, DWORD PTR [eax]
  00097	89 45 c0	 mov	 DWORD PTR __Last$[ebp], eax
  0009a	8b 45 d4	 mov	 eax, DWORD PTR __Myfirst$[ebp]
  0009d	8b 00		 mov	 eax, DWORD PTR [eax]
  0009f	89 45 bc	 mov	 DWORD PTR __First$[ebp], eax

; 1607 :         _Umove_if_noexcept1(_First, _Last, _Dest,

  000a2	33 c0		 xor	 eax, eax
  000a4	88 45 ef	 mov	 BYTE PTR $T9[ebp], al
  000a7	8a 45 ef	 mov	 al, BYTE PTR $T9[ebp]
  000aa	88 45 e8	 mov	 BYTE PTR ___formal$[ebp], al

; 1733 :         return _Mypair._Get_first();

  000ad	8b 45 e4	 mov	 eax, DWORD PTR _this$[ebp]
; File C:\Program Files (x86)\Microsoft Visual Studio\2019\Community\VC\Tools\MSVC\14.28.29333\include\xmemory

; 1347 :         return *this;

  000b0	89 45 c8	 mov	 DWORD PTR $T5[ebp], eax
; File C:\Program Files (x86)\Microsoft Visual Studio\2019\Community\VC\Tools\MSVC\14.28.29333\include\vector

; 1733 :         return _Mypair._Get_first();

  000b3	8b 45 c8	 mov	 eax, DWORD PTR $T5[ebp]
  000b6	89 45 c4	 mov	 DWORD PTR $T4[ebp], eax

; 1597 :         _Uninitialized_move(_First, _Last, _Dest, _Getal());

  000b9	ff 75 c4	 push	 DWORD PTR $T4[ebp]
  000bc	ff 75 e0	 push	 DWORD PTR __Newvec$[ebp]
  000bf	ff 75 c0	 push	 DWORD PTR __Last$[ebp]
  000c2	ff 75 bc	 push	 DWORD PTR __First$[ebp]
  000c5	e8 00 00 00 00	 call	 ??$_Uninitialized_move@PAPAVCGraphicMarkInstance@@V?$allocator@PAVCGraphicMarkInstance@@@std@@@std@@YAPAPAVCGraphicMarkInstance@@QAPAV1@0PAPAV1@AAV?$allocator@PAVCGraphicMarkInstance@@@0@@Z ; std::_Uninitialized_move<CGraphicMarkInstance * *,std::allocator<CGraphicMarkInstance *> >
  000ca	83 c4 10	 add	 esp, 16			; 00000010H

; 1262 :         _Umove_if_noexcept(_Myfirst, _Mylast, _Newvec);

  000cd	eb 24		 jmp	 SHORT $LN4@Reallocate
__catch$?_Reallocate_exactly@?$vector@PAVCGraphicMarkInstance@@V?$allocator@PAVCGraphicMarkInstance@@@std@@@std@@AAEXI@Z$0:

; 1263 :         _CATCH_ALL
; 1264 :         _Getal().deallocate(_Newvec, _Newcapacity);

  000cf	ff 75 08	 push	 DWORD PTR __Newcapacity$[ebp]
  000d2	ff 75 e0	 push	 DWORD PTR __Newvec$[ebp]
  000d5	8b 4d e4	 mov	 ecx, DWORD PTR _this$[ebp]
  000d8	e8 00 00 00 00	 call	 ?_Getal@?$vector@PAVCGraphicMarkInstance@@V?$allocator@PAVCGraphicMarkInstance@@@std@@@std@@AAEAAV?$allocator@PAVCGraphicMarkInstance@@@2@XZ ; std::vector<CGraphicMarkInstance *,std::allocator<CGraphicMarkInstance *> >::_Getal
  000dd	8b c8		 mov	 ecx, eax
  000df	e8 00 00 00 00	 call	 ?deallocate@?$allocator@PAVCGraphicMarkInstance@@@std@@QAEXQAPAVCGraphicMarkInstance@@I@Z ; std::allocator<CGraphicMarkInstance *>::deallocate

; 1265 :         _RERAISE;

  000e4	6a 00		 push	 0
  000e6	6a 00		 push	 0
  000e8	e8 00 00 00 00	 call	 __CxxThrowException@8

; 1266 :         _CATCH_END

  000ed	b8 00 00 00 00	 mov	 eax, $LN7@Reallocate
  000f2	c3		 ret	 0
$LN4@Reallocate:
  000f3	83 4d fc ff	 or	 DWORD PTR __$EHRec$[ebp+12], -1
  000f7	eb 04		 jmp	 SHORT __tryend$?_Reallocate_exactly@?$vector@PAVCGraphicMarkInstance@@V?$allocator@PAVCGraphicMarkInstance@@@std@@@std@@AAEXI@Z$1
$LN7@Reallocate:
; File C:\Program Files (x86)\Microsoft Visual Studio\2019\Community\VC\Tools\MSVC\14.28.29333\include\xmemory
  000f9	83 4d fc ff	 or	 DWORD PTR __$EHRec$[ebp+12], -1
__tryend$?_Reallocate_exactly@?$vector@PAVCGraphicMarkInstance@@V?$allocator@PAVCGraphicMarkInstance@@@std@@@std@@AAEXI@Z$1:
; File C:\Program Files (x86)\Microsoft Visual Studio\2019\Community\VC\Tools\MSVC\14.28.29333\include\vector

; 1267 : 
; 1268 :         _Change_array(_Newvec, _Size, _Newcapacity);

  000fd	ff 75 08	 push	 DWORD PTR __Newcapacity$[ebp]
  00100	ff 75 b8	 push	 DWORD PTR __Size$[ebp]
  00103	ff 75 e0	 push	 DWORD PTR __Newvec$[ebp]
  00106	8b 4d e4	 mov	 ecx, DWORD PTR _this$[ebp]
  00109	e8 00 00 00 00	 call	 ?_Change_array@?$vector@PAVCGraphicMarkInstance@@V?$allocator@PAVCGraphicMarkInstance@@@std@@@std@@AAEXQAPAVCGraphicMarkInstance@@II@Z ; std::vector<CGraphicMarkInstance *,std::allocator<CGraphicMarkInstance *> >::_Change_array
$LN20@Reallocate:

; 1269 :     }

  0010e	8b 4d f4	 mov	 ecx, DWORD PTR __$EHRec$[ebp+4]
  00111	64 89 0d 00 00
	00 00		 mov	 DWORD PTR fs:0, ecx
  00118	59		 pop	 ecx
  00119	5f		 pop	 edi
  0011a	5e		 pop	 esi
  0011b	5b		 pop	 ebx
  0011c	c9		 leave
  0011d	c2 04 00	 ret	 4
  00120	cc		 int	 3
  00121	cc		 int	 3
  00122	cc		 int	 3
  00123	cc		 int	 3
  00124	cc		 int	 3
_TEXT	ENDS
;	COMDAT text$x
text$x	SEGMENT
__ehhandler$?_Reallocate_exactly@?$vector@PAVCGraphicMarkInstance@@V?$allocator@PAVCGraphicMarkInstance@@@std@@@std@@AAEXI@Z:
  00000	90		 npad	 1
  00001	90		 npad	 1
  00002	8b 54 24 08	 mov	 edx, DWORD PTR [esp+8]
  00006	8d 42 0c	 lea	 eax, DWORD PTR [edx+12]
  00009	8b 4a ac	 mov	 ecx, DWORD PTR [edx-84]
  0000c	33 c8		 xor	 ecx, eax
  0000e	e8 00 00 00 00	 call	 @__security_check_cookie@4
  00013	b8 00 00 00 00	 mov	 eax, OFFSET __ehfuncinfo$?_Reallocate_exactly@?$vector@PAVCGraphicMarkInstance@@V?$allocator@PAVCGraphicMarkInstance@@@std@@@std@@AAEXI@Z
  00018	e9 00 00 00 00	 jmp	 ___CxxFrameHandler3
text$x	ENDS
?_Reallocate_exactly@?$vector@PAVCGraphicMarkInstance@@V?$allocator@PAVCGraphicMarkInstance@@@std@@@std@@AAEXI@Z ENDP ; std::vector<CGraphicMarkInstance *,std::allocator<CGraphicMarkInstance *> >::_Reallocate_exactly
; Function compile flags: /Odspy
; File C:\Program Files (x86)\Microsoft Visual Studio\2019\Community\VC\Tools\MSVC\14.28.29333\include\xmemory
;	COMDAT ?deallocate@?$allocator@PAVCGraphicMarkInstance@@@std@@QAEXQAPAVCGraphicMarkInstance@@I@Z
_TEXT	SEGMENT
_this$ = -4						; size = 4
__Ptr$ = 8						; size = 4
__Count$ = 12						; size = 4
?deallocate@?$allocator@PAVCGraphicMarkInstance@@@std@@QAEXQAPAVCGraphicMarkInstance@@I@Z PROC ; std::allocator<CGraphicMarkInstance *>::deallocate, COMDAT
; _this$ = ecx

; 808  :     void deallocate(_Ty* const _Ptr, const size_t _Count) {

  00000	55		 push	 ebp
  00001	8b ec		 mov	 ebp, esp
  00003	51		 push	 ecx
  00004	89 4d fc	 mov	 DWORD PTR _this$[ebp], ecx

; 809  :         // no overflow check on the following multiply; we assume _Allocate did that check
; 810  :         _Deallocate<_New_alignof<_Ty>>(_Ptr, sizeof(_Ty) * _Count);

  00007	8b 45 0c	 mov	 eax, DWORD PTR __Count$[ebp]
  0000a	c1 e0 02	 shl	 eax, 2
  0000d	50		 push	 eax
  0000e	ff 75 08	 push	 DWORD PTR __Ptr$[ebp]
  00011	e8 00 00 00 00	 call	 ??$_Deallocate@$07$0A@@std@@YAXPAXI@Z ; std::_Deallocate<8,0>
  00016	59		 pop	 ecx
  00017	59		 pop	 ecx

; 811  :     }

  00018	c9		 leave
  00019	c2 08 00	 ret	 8
?deallocate@?$allocator@PAVCGraphicMarkInstance@@@std@@QAEXQAPAVCGraphicMarkInstance@@I@Z ENDP ; std::allocator<CGraphicMarkInstance *>::deallocate
_TEXT	ENDS
; Function compile flags: /Odspy
; File D:\Metin2 Server Files\mainline\SRC_2014\Metin2Client\EterLib\Pool.h
;	COMDAT ?Delete@?$CDynamicPool@VCGraphicMarkInstance@@@@KAXPAVCGraphicMarkInstance@@@Z
_TEXT	SEGMENT
tv70 = -8						; size = 4
$T1 = -4						; size = 4
_pkData$ = 8						; size = 4
?Delete@?$CDynamicPool@VCGraphicMarkInstance@@@@KAXPAVCGraphicMarkInstance@@@Z PROC ; CDynamicPool<CGraphicMarkInstance>::Delete, COMDAT

; 109  : 		{

  00000	55		 push	 ebp
  00001	8b ec		 mov	 ebp, esp
  00003	51		 push	 ecx
  00004	51		 push	 ecx

; 110  : 			delete pkData;

  00005	8b 45 08	 mov	 eax, DWORD PTR _pkData$[ebp]
  00008	89 45 fc	 mov	 DWORD PTR $T1[ebp], eax
  0000b	83 7d fc 00	 cmp	 DWORD PTR $T1[ebp], 0
  0000f	74 11		 je	 SHORT $LN3@Delete
  00011	6a 01		 push	 1
  00013	8b 45 fc	 mov	 eax, DWORD PTR $T1[ebp]
  00016	8b 00		 mov	 eax, DWORD PTR [eax]
  00018	8b 4d fc	 mov	 ecx, DWORD PTR $T1[ebp]
  0001b	ff 10		 call	 DWORD PTR [eax]
  0001d	89 45 f8	 mov	 DWORD PTR tv70[ebp], eax
  00020	eb 04		 jmp	 SHORT $LN1@Delete
$LN3@Delete:
  00022	83 65 f8 00	 and	 DWORD PTR tv70[ebp], 0
$LN1@Delete:

; 111  : 		}

  00026	c9		 leave
  00027	c3		 ret	 0
?Delete@?$CDynamicPool@VCGraphicMarkInstance@@@@KAXPAVCGraphicMarkInstance@@@Z ENDP ; CDynamicPool<CGraphicMarkInstance>::Delete
_TEXT	ENDS
; Function compile flags: /Odspy
; File D:\Metin2 Server Files\mainline\SRC_2014\Metin2Client\EterLib\Pool.h
; File C:\Program Files (x86)\Microsoft Visual Studio\2019\Community\VC\Tools\MSVC\14.28.29333\include\vector
; File D:\Metin2 Server Files\mainline\SRC_2014\Metin2Client\EterLib\Pool.h
; File C:\Program Files (x86)\Microsoft Visual Studio\2019\Community\VC\Tools\MSVC\14.28.29333\include\vector
; File D:\Metin2 Server Files\mainline\SRC_2014\Metin2Client\EterLib\Pool.h
; File C:\Program Files (x86)\Microsoft Visual Studio\2019\Community\VC\Tools\MSVC\14.28.29333\include\vector
; File D:\Metin2 Server Files\mainline\SRC_2014\Metin2Client\EterLib\Pool.h
; File C:\Program Files (x86)\Microsoft Visual Studio\2019\Community\VC\Tools\MSVC\14.28.29333\include\vector
; File D:\Metin2 Server Files\mainline\SRC_2014\Metin2Client\EterLib\Pool.h
; File C:\Program Files (x86)\Microsoft Visual Studio\2019\Community\VC\Tools\MSVC\14.28.29333\include\vector
; File C:\Program Files (x86)\Microsoft Visual Studio\2019\Community\VC\Tools\MSVC\14.28.29333\include\xstddef
; File C:\Program Files (x86)\Microsoft Visual Studio\2019\Community\VC\Tools\MSVC\14.28.29333\include\vector
; File C:\Program Files (x86)\Microsoft Visual Studio\2019\Community\VC\Tools\MSVC\14.28.29333\include\xmemory
; File C:\Program Files (x86)\Microsoft Visual Studio\2019\Community\VC\Tools\MSVC\14.28.29333\include\vector
; File D:\Metin2 Server Files\mainline\SRC_2014\Metin2Client\EterLib\Pool.h
;	COMDAT ?Alloc@?$CDynamicPool@VCGraphicMarkInstance@@@@QAEPAVCGraphicMarkInstance@@XZ
_TEXT	SEGMENT
$T2 = -84						; size = 4
$T3 = -80						; size = 4
_pkFreeData$ = -76					; size = 4
$T4 = -72						; size = 4
__Ptr$ = -68						; size = 4
__My_data$5 = -64					; size = 4
$T6 = -60						; size = 4
__My_data$7 = -56					; size = 4
$T8 = -52						; size = 4
_this$ = -48						; size = 4
_pkNewData$9 = -44					; size = 4
tv80 = -40						; size = 4
$T10 = -36						; size = 4
tv130 = -32						; size = 4
__My_data$11 = -28					; size = 4
__Mylast$12 = -24					; size = 4
_this$ = -20						; size = 4
$T13 = -13						; size = 1
__$EHRec$ = -12						; size = 12
?Alloc@?$CDynamicPool@VCGraphicMarkInstance@@@@QAEPAVCGraphicMarkInstance@@XZ PROC ; CDynamicPool<CGraphicMarkInstance>::Alloc, COMDAT
; _this$ = ecx

; 62   : 		{

  00000	55		 push	 ebp
  00001	8b ec		 mov	 ebp, esp
  00003	6a ff		 push	 -1
  00005	68 00 00 00 00	 push	 __ehhandler$?Alloc@?$CDynamicPool@VCGraphicMarkInstance@@@@QAEPAVCGraphicMarkInstance@@XZ
  0000a	64 a1 00 00 00
	00		 mov	 eax, DWORD PTR fs:0
  00010	50		 push	 eax
  00011	83 ec 48	 sub	 esp, 72			; 00000048H
  00014	a1 00 00 00 00	 mov	 eax, DWORD PTR ___security_cookie
  00019	33 c5		 xor	 eax, ebp
  0001b	50		 push	 eax
  0001c	8d 45 f4	 lea	 eax, DWORD PTR __$EHRec$[ebp]
  0001f	64 a3 00 00 00
	00		 mov	 DWORD PTR fs:0, eax
  00025	89 4d ec	 mov	 DWORD PTR _this$[ebp], ecx
; File C:\Program Files (x86)\Microsoft Visual Studio\2019\Community\VC\Tools\MSVC\14.28.29333\include\vector

; 1478 :         auto& _My_data = _Mypair._Myval2;

  00028	8b 45 ec	 mov	 eax, DWORD PTR _this$[ebp]
  0002b	83 c0 10	 add	 eax, 16			; 00000010H
  0002e	89 45 e4	 mov	 DWORD PTR __My_data$11[ebp], eax

; 1479 :         return _My_data._Myfirst == _My_data._Mylast;

  00031	8b 45 e4	 mov	 eax, DWORD PTR __My_data$11[ebp]
  00034	8b 4d e4	 mov	 ecx, DWORD PTR __My_data$11[ebp]
  00037	8b 00		 mov	 eax, DWORD PTR [eax]
  00039	3b 41 04	 cmp	 eax, DWORD PTR [ecx+4]
  0003c	75 09		 jne	 SHORT $LN9@Alloc
  0003e	c7 45 e0 01 00
	00 00		 mov	 DWORD PTR tv130[ebp], 1
  00045	eb 04		 jmp	 SHORT $LN10@Alloc
$LN9@Alloc:
  00047	83 65 e0 00	 and	 DWORD PTR tv130[ebp], 0
$LN10@Alloc:
  0004b	8a 45 e0	 mov	 al, BYTE PTR tv130[ebp]
  0004e	88 45 f3	 mov	 BYTE PTR $T13[ebp], al
; File D:\Metin2 Server Files\mainline\SRC_2014\Metin2Client\EterLib\Pool.h

; 63   : 			if (m_kVct_pkFree.empty())

  00051	0f b6 45 f3	 movzx	 eax, BYTE PTR $T13[ebp]
  00055	85 c0		 test	 eax, eax
  00057	74 57		 je	 SHORT $LN2@Alloc

; 64   : 			{
; 65   : 				T* pkNewData=new T;

  00059	6a 44		 push	 68			; 00000044H
  0005b	e8 00 00 00 00	 call	 ??2@YAPAXI@Z		; operator new
  00060	59		 pop	 ecx
  00061	89 45 dc	 mov	 DWORD PTR $T10[ebp], eax
  00064	83 65 fc 00	 and	 DWORD PTR __$EHRec$[ebp+8], 0
  00068	83 7d dc 00	 cmp	 DWORD PTR $T10[ebp], 0
  0006c	74 0d		 je	 SHORT $LN4@Alloc
  0006e	8b 4d dc	 mov	 ecx, DWORD PTR $T10[ebp]
  00071	e8 00 00 00 00	 call	 ??0CGraphicMarkInstance@@QAE@XZ ; CGraphicMarkInstance::CGraphicMarkInstance
  00076	89 45 d8	 mov	 DWORD PTR tv80[ebp], eax
  00079	eb 04		 jmp	 SHORT $LN5@Alloc
$LN4@Alloc:
  0007b	83 65 d8 00	 and	 DWORD PTR tv80[ebp], 0
$LN5@Alloc:
  0007f	8b 45 d8	 mov	 eax, DWORD PTR tv80[ebp]
  00082	89 45 cc	 mov	 DWORD PTR $T8[ebp], eax
  00085	83 4d fc ff	 or	 DWORD PTR __$EHRec$[ebp+8], -1
  00089	8b 45 cc	 mov	 eax, DWORD PTR $T8[ebp]
  0008c	89 45 d4	 mov	 DWORD PTR _pkNewData$9[ebp], eax
; File C:\Program Files (x86)\Microsoft Visual Studio\2019\Community\VC\Tools\MSVC\14.28.29333\include\vector

; 717  :         emplace_back(_Val);

  0008f	8d 45 d4	 lea	 eax, DWORD PTR _pkNewData$9[ebp]
  00092	50		 push	 eax
; File D:\Metin2 Server Files\mainline\SRC_2014\Metin2Client\EterLib\Pool.h

; 66   : 				m_kVct_pkData.push_back(pkNewData);

  00093	8b 4d ec	 mov	 ecx, DWORD PTR _this$[ebp]
  00096	83 c1 04	 add	 ecx, 4
; File C:\Program Files (x86)\Microsoft Visual Studio\2019\Community\VC\Tools\MSVC\14.28.29333\include\vector

; 717  :         emplace_back(_Val);

  00099	e8 00 00 00 00	 call	 ??$emplace_back@ABQAVCGraphicMarkInstance@@@?$vector@PAVCGraphicMarkInstance@@V?$allocator@PAVCGraphicMarkInstance@@@std@@@std@@QAEXABQAVCGraphicMarkInstance@@@Z ; std::vector<CGraphicMarkInstance *,std::allocator<CGraphicMarkInstance *> >::emplace_back<CGraphicMarkInstance * const &>
; File D:\Metin2 Server Files\mainline\SRC_2014\Metin2Client\EterLib\Pool.h

; 67   : 				++m_uUsedCapacity;

  0009e	8b 45 ec	 mov	 eax, DWORD PTR _this$[ebp]
  000a1	8b 40 20	 mov	 eax, DWORD PTR [eax+32]
  000a4	40		 inc	 eax
  000a5	8b 4d ec	 mov	 ecx, DWORD PTR _this$[ebp]
  000a8	89 41 20	 mov	 DWORD PTR [ecx+32], eax

; 68   : 				return pkNewData;

  000ab	8b 45 d4	 mov	 eax, DWORD PTR _pkNewData$9[ebp]
  000ae	eb 65		 jmp	 SHORT $LN1@Alloc
$LN2@Alloc:
; File C:\Program Files (x86)\Microsoft Visual Studio\2019\Community\VC\Tools\MSVC\14.28.29333\include\vector

; 1554 :         auto& _My_data = _Mypair._Myval2;

  000b0	8b 45 ec	 mov	 eax, DWORD PTR _this$[ebp]
  000b3	83 c0 10	 add	 eax, 16			; 00000010H
  000b6	89 45 c8	 mov	 DWORD PTR __My_data$7[ebp], eax

; 1555 : #if _CONTAINER_DEBUG_LEVEL > 0
; 1556 :         _STL_VERIFY(_My_data._Myfirst != _My_data._Mylast, "back() called on empty vector");
; 1557 : #endif // _CONTAINER_DEBUG_LEVEL > 0
; 1558 : 
; 1559 :         return _My_data._Mylast[-1];

  000b9	6a 04		 push	 4
  000bb	58		 pop	 eax
  000bc	6b c0 ff	 imul	 eax, eax, -1
  000bf	8b 4d c8	 mov	 ecx, DWORD PTR __My_data$7[ebp]
  000c2	03 41 04	 add	 eax, DWORD PTR [ecx+4]
  000c5	89 45 c4	 mov	 DWORD PTR $T6[ebp], eax
; File D:\Metin2 Server Files\mainline\SRC_2014\Metin2Client\EterLib\Pool.h

; 71   : 			T* pkFreeData=m_kVct_pkFree.back();

  000c8	8b 45 c4	 mov	 eax, DWORD PTR $T6[ebp]
  000cb	8b 00		 mov	 eax, DWORD PTR [eax]
  000cd	89 45 b4	 mov	 DWORD PTR _pkFreeData$[ebp], eax

; 72   : 			m_kVct_pkFree.pop_back();

  000d0	8b 45 ec	 mov	 eax, DWORD PTR _this$[ebp]
  000d3	83 c0 10	 add	 eax, 16			; 00000010H
  000d6	89 45 d0	 mov	 DWORD PTR _this$[ebp], eax
; File C:\Program Files (x86)\Microsoft Visual Studio\2019\Community\VC\Tools\MSVC\14.28.29333\include\vector

; 1329 :         auto& _My_data   = _Mypair._Myval2;

  000d9	8b 45 d0	 mov	 eax, DWORD PTR _this$[ebp]
  000dc	89 45 c0	 mov	 DWORD PTR __My_data$5[ebp], eax

; 1330 :         pointer& _Mylast = _My_data._Mylast;

  000df	8b 45 c0	 mov	 eax, DWORD PTR __My_data$5[ebp]
  000e2	83 c0 04	 add	 eax, 4
  000e5	89 45 e8	 mov	 DWORD PTR __Mylast$12[ebp], eax

; 1331 : 
; 1332 : #if _ITERATOR_DEBUG_LEVEL == 2
; 1333 :         _STL_VERIFY(_My_data._Myfirst != _Mylast, "vector empty before pop");
; 1334 :         _Orphan_range(_Mylast - 1, _Mylast);
; 1335 : #endif // _ITERATOR_DEBUG_LEVEL == 2
; 1336 : 
; 1337 :         _Alty_traits::destroy(_Getal(), _Unfancy(_Mylast - 1));

  000e8	8b 45 e8	 mov	 eax, DWORD PTR __Mylast$12[ebp]
  000eb	8b 00		 mov	 eax, DWORD PTR [eax]
  000ed	83 e8 04	 sub	 eax, 4
  000f0	89 45 bc	 mov	 DWORD PTR __Ptr$[ebp], eax
; File C:\Program Files (x86)\Microsoft Visual Studio\2019\Community\VC\Tools\MSVC\14.28.29333\include\xstddef

; 289  :     return _Ptr;

  000f3	8b 45 bc	 mov	 eax, DWORD PTR __Ptr$[ebp]
  000f6	89 45 b0	 mov	 DWORD PTR $T3[ebp], eax
; File C:\Program Files (x86)\Microsoft Visual Studio\2019\Community\VC\Tools\MSVC\14.28.29333\include\vector

; 1733 :         return _Mypair._Get_first();

  000f9	8b 45 d0	 mov	 eax, DWORD PTR _this$[ebp]
; File C:\Program Files (x86)\Microsoft Visual Studio\2019\Community\VC\Tools\MSVC\14.28.29333\include\xmemory

; 1347 :         return *this;

  000fc	89 45 b8	 mov	 DWORD PTR $T4[ebp], eax
; File C:\Program Files (x86)\Microsoft Visual Studio\2019\Community\VC\Tools\MSVC\14.28.29333\include\vector

; 1733 :         return _Mypair._Get_first();

  000ff	8b 45 b8	 mov	 eax, DWORD PTR $T4[ebp]
  00102	89 45 ac	 mov	 DWORD PTR $T2[ebp], eax

; 1338 :         --_Mylast;

  00105	8b 45 e8	 mov	 eax, DWORD PTR __Mylast$12[ebp]
  00108	8b 00		 mov	 eax, DWORD PTR [eax]
  0010a	83 e8 04	 sub	 eax, 4
  0010d	8b 4d e8	 mov	 ecx, DWORD PTR __Mylast$12[ebp]
  00110	89 01		 mov	 DWORD PTR [ecx], eax
; File D:\Metin2 Server Files\mainline\SRC_2014\Metin2Client\EterLib\Pool.h

; 73   : 			return pkFreeData;

  00112	8b 45 b4	 mov	 eax, DWORD PTR _pkFreeData$[ebp]
$LN1@Alloc:

; 74   : 		}

  00115	8b 4d f4	 mov	 ecx, DWORD PTR __$EHRec$[ebp]
  00118	64 89 0d 00 00
	00 00		 mov	 DWORD PTR fs:0, ecx
  0011f	59		 pop	 ecx
  00120	c9		 leave
  00121	c3		 ret	 0
_TEXT	ENDS
;	COMDAT text$x
text$x	SEGMENT
__unwindfunclet$?Alloc@?$CDynamicPool@VCGraphicMarkInstance@@@@QAEPAVCGraphicMarkInstance@@XZ$0:
  00000	6a 44		 push	 68			; 00000044H
  00002	ff 75 dc	 push	 DWORD PTR $T10[ebp]
  00005	e8 00 00 00 00	 call	 ??3@YAXPAXI@Z		; operator delete
  0000a	59		 pop	 ecx
  0000b	59		 pop	 ecx
  0000c	c3		 ret	 0
  0000d	cc		 int	 3
  0000e	cc		 int	 3
  0000f	cc		 int	 3
  00010	cc		 int	 3
  00011	cc		 int	 3
__ehhandler$?Alloc@?$CDynamicPool@VCGraphicMarkInstance@@@@QAEPAVCGraphicMarkInstance@@XZ:
  00012	90		 npad	 1
  00013	90		 npad	 1
  00014	8b 54 24 08	 mov	 edx, DWORD PTR [esp+8]
  00018	8d 42 0c	 lea	 eax, DWORD PTR [edx+12]
  0001b	8b 4a b4	 mov	 ecx, DWORD PTR [edx-76]
  0001e	33 c8		 xor	 ecx, eax
  00020	e8 00 00 00 00	 call	 @__security_check_cookie@4
  00025	b8 00 00 00 00	 mov	 eax, OFFSET __ehfuncinfo$?Alloc@?$CDynamicPool@VCGraphicMarkInstance@@@@QAEPAVCGraphicMarkInstance@@XZ
  0002a	e9 00 00 00 00	 jmp	 ___CxxFrameHandler3
text$x	ENDS
?Alloc@?$CDynamicPool@VCGraphicMarkInstance@@@@QAEPAVCGraphicMarkInstance@@XZ ENDP ; CDynamicPool<CGraphicMarkInstance>::Alloc
; Function compile flags: /Odspy
; File D:\Metin2 Server Files\mainline\SRC_2014\Metin2Client\EterLib\Pool.h
; File C:\Program Files (x86)\Microsoft Visual Studio\2019\Community\VC\Tools\MSVC\14.28.29333\include\vector
; File C:\Program Files (x86)\Microsoft Visual Studio\2019\Community\VC\Tools\MSVC\14.28.29333\include\xstddef
; File C:\Program Files (x86)\Microsoft Visual Studio\2019\Community\VC\Tools\MSVC\14.28.29333\include\vector
; File C:\Program Files (x86)\Microsoft Visual Studio\2019\Community\VC\Tools\MSVC\14.28.29333\include\xstddef
; File C:\Program Files (x86)\Microsoft Visual Studio\2019\Community\VC\Tools\MSVC\14.28.29333\include\vector
; File D:\Metin2 Server Files\mainline\SRC_2014\Metin2Client\EterLib\Pool.h
;	COMDAT ?Destroy@?$CDynamicPool@VCGraphicMarkInstance@@@@QAEXXZ
_TEXT	SEGMENT
$T1 = -44						; size = 4
$T2 = -40						; size = 4
$T3 = -36						; size = 4
$T4 = -32						; size = 4
$T5 = -28						; size = 4
___param0$ = -24					; size = 4
$T6 = -20						; size = 4
___param0$ = -16					; size = 4
__My_data$7 = -12					; size = 4
__My_data$8 = -8					; size = 4
_this$ = -4						; size = 4
?Destroy@?$CDynamicPool@VCGraphicMarkInstance@@@@QAEXXZ PROC ; CDynamicPool<CGraphicMarkInstance>::Destroy, COMDAT
; _this$ = ecx

; 38   : 		{

  00000	55		 push	 ebp
  00001	8b ec		 mov	 ebp, esp
  00003	83 ec 2c	 sub	 esp, 44			; 0000002cH
  00006	89 4d fc	 mov	 DWORD PTR _this$[ebp], ecx
; File C:\Program Files (x86)\Microsoft Visual Studio\2019\Community\VC\Tools\MSVC\14.28.29333\include\vector

; 1420 :         auto& _My_data = _Mypair._Myval2;

  00009	8b 45 fc	 mov	 eax, DWORD PTR _this$[ebp]
  0000c	83 c0 04	 add	 eax, 4
  0000f	89 45 f8	 mov	 DWORD PTR __My_data$8[ebp], eax
; File C:\Program Files (x86)\Microsoft Visual Studio\2019\Community\VC\Tools\MSVC\14.28.29333\include\xstddef

; 275  :     return __builtin_addressof(_Val);

  00012	8b 45 f8	 mov	 eax, DWORD PTR __My_data$8[ebp]
  00015	89 45 d8	 mov	 DWORD PTR $T2[ebp], eax
; File C:\Program Files (x86)\Microsoft Visual Studio\2019\Community\VC\Tools\MSVC\14.28.29333\include\vector

; 1421 :         return iterator(_My_data._Mylast, _STD addressof(_My_data));

  00018	8b 45 f8	 mov	 eax, DWORD PTR __My_data$8[ebp]
  0001b	8b 40 04	 mov	 eax, DWORD PTR [eax+4]
  0001e	89 45 f0	 mov	 DWORD PTR ___param0$[ebp], eax

; 42   :     _Vector_const_iterator(_Tptr _Parg, const _Container_base* _Pvector) noexcept : _Ptr(_Parg) {

  00021	8b 45 f0	 mov	 eax, DWORD PTR ___param0$[ebp]
  00024	89 45 ec	 mov	 DWORD PTR $T6[ebp], eax

; 1421 :         return iterator(_My_data._Mylast, _STD addressof(_My_data));

  00027	8d 45 ec	 lea	 eax, DWORD PTR $T6[ebp]
  0002a	89 45 e0	 mov	 DWORD PTR $T4[ebp], eax

; 1410 :         auto& _My_data = _Mypair._Myval2;

  0002d	8b 45 fc	 mov	 eax, DWORD PTR _this$[ebp]
  00030	83 c0 04	 add	 eax, 4
  00033	89 45 f4	 mov	 DWORD PTR __My_data$7[ebp], eax
; File C:\Program Files (x86)\Microsoft Visual Studio\2019\Community\VC\Tools\MSVC\14.28.29333\include\xstddef

; 275  :     return __builtin_addressof(_Val);

  00036	8b 45 f4	 mov	 eax, DWORD PTR __My_data$7[ebp]
  00039	89 45 d4	 mov	 DWORD PTR $T1[ebp], eax
; File C:\Program Files (x86)\Microsoft Visual Studio\2019\Community\VC\Tools\MSVC\14.28.29333\include\vector

; 1411 :         return iterator(_My_data._Myfirst, _STD addressof(_My_data));

  0003c	8b 45 f4	 mov	 eax, DWORD PTR __My_data$7[ebp]
  0003f	8b 00		 mov	 eax, DWORD PTR [eax]
  00041	89 45 e8	 mov	 DWORD PTR ___param0$[ebp], eax

; 42   :     _Vector_const_iterator(_Tptr _Parg, const _Container_base* _Pvector) noexcept : _Ptr(_Parg) {

  00044	8b 45 e8	 mov	 eax, DWORD PTR ___param0$[ebp]
  00047	89 45 e4	 mov	 DWORD PTR $T5[ebp], eax

; 1411 :         return iterator(_My_data._Myfirst, _STD addressof(_My_data));

  0004a	8d 45 e4	 lea	 eax, DWORD PTR $T5[ebp]
  0004d	89 45 dc	 mov	 DWORD PTR $T3[ebp], eax
; File D:\Metin2 Server Files\mainline\SRC_2014\Metin2Client\EterLib\Pool.h

; 50   : 			std::for_each(m_kVct_pkData.begin(), m_kVct_pkData.end(), Delete);

  00050	68 00 00 00 00	 push	 OFFSET ?Delete@?$CDynamicPool@VCGraphicMarkInstance@@@@KAXPAVCGraphicMarkInstance@@@Z ; CDynamicPool<CGraphicMarkInstance>::Delete
  00055	8b 45 e0	 mov	 eax, DWORD PTR $T4[ebp]
  00058	ff 30		 push	 DWORD PTR [eax]
  0005a	8b 45 dc	 mov	 eax, DWORD PTR $T3[ebp]
  0005d	ff 30		 push	 DWORD PTR [eax]
  0005f	e8 00 00 00 00	 call	 ??$for_each@V?$_Vector_iterator@V?$_Vector_val@U?$_Simple_types@PAVCGraphicMarkInstance@@@std@@@std@@@std@@P6AXPAVCGraphicMarkInstance@@@Z@std@@YAP6AXPAVCGraphicMarkInstance@@@ZV?$_Vector_iterator@V?$_Vector_val@U?$_Simple_types@PAVCGraphicMarkInstance@@@std@@@std@@@0@1P6AX0@Z@Z ; std::for_each<std::_Vector_iterator<std::_Vector_val<std::_Simple_types<CGraphicMarkInstance *> > >,void (__cdecl*)(CGraphicMarkInstance *)>
  00064	83 c4 0c	 add	 esp, 12			; 0000000cH

; 51   : 			m_kVct_pkData.clear();

  00067	8b 4d fc	 mov	 ecx, DWORD PTR _this$[ebp]
  0006a	83 c1 04	 add	 ecx, 4
  0006d	e8 00 00 00 00	 call	 ?clear@?$vector@PAVCGraphicMarkInstance@@V?$allocator@PAVCGraphicMarkInstance@@@std@@@std@@QAEXXZ ; std::vector<CGraphicMarkInstance *,std::allocator<CGraphicMarkInstance *> >::clear

; 52   : 			m_kVct_pkFree.clear();

  00072	8b 4d fc	 mov	 ecx, DWORD PTR _this$[ebp]
  00075	83 c1 10	 add	 ecx, 16			; 00000010H
  00078	e8 00 00 00 00	 call	 ?clear@?$vector@PAVCGraphicMarkInstance@@V?$allocator@PAVCGraphicMarkInstance@@@std@@@std@@QAEXXZ ; std::vector<CGraphicMarkInstance *,std::allocator<CGraphicMarkInstance *> >::clear

; 53   : 		}

  0007d	c9		 leave
  0007e	c3		 ret	 0
?Destroy@?$CDynamicPool@VCGraphicMarkInstance@@@@QAEXXZ ENDP ; CDynamicPool<CGraphicMarkInstance>::Destroy
_TEXT	ENDS
; Function compile flags: /Odspy
; File D:\Metin2 Server Files\mainline\SRC_2014\Metin2Client\EterLib\Pool.h
; File C:\Program Files (x86)\Microsoft Visual Studio\2019\Community\VC\Tools\MSVC\14.28.29333\include\vector
; File D:\Metin2 Server Files\mainline\SRC_2014\Metin2Client\EterLib\Pool.h
; File C:\Program Files (x86)\Microsoft Visual Studio\2019\Community\VC\Tools\MSVC\14.28.29333\include\vector
; File D:\Metin2 Server Files\mainline\SRC_2014\Metin2Client\EterLib\Pool.h
;	COMDAT ??1?$CDynamicPool@VCGraphicMarkInstance@@@@UAE@XZ
_TEXT	SEGMENT
_this$ = -4						; size = 4
??1?$CDynamicPool@VCGraphicMarkInstance@@@@UAE@XZ PROC	; CDynamicPool<CGraphicMarkInstance>::~CDynamicPool<CGraphicMarkInstance>, COMDAT
; _this$ = ecx

; 18   : 		{

  00000	55		 push	 ebp
  00001	8b ec		 mov	 ebp, esp
  00003	51		 push	 ecx
  00004	89 4d fc	 mov	 DWORD PTR _this$[ebp], ecx
  00007	8b 45 fc	 mov	 eax, DWORD PTR _this$[ebp]
  0000a	c7 00 00 00 00
	00		 mov	 DWORD PTR [eax], OFFSET ??_7?$CDynamicPool@VCGraphicMarkInstance@@@@6B@

; 26   : 		}

  00010	8b 4d fc	 mov	 ecx, DWORD PTR _this$[ebp]
  00013	83 c1 10	 add	 ecx, 16			; 00000010H
; File C:\Program Files (x86)\Microsoft Visual Studio\2019\Community\VC\Tools\MSVC\14.28.29333\include\vector

; 673  :         _Tidy();

  00016	e8 00 00 00 00	 call	 ?_Tidy@?$vector@PAVCGraphicMarkInstance@@V?$allocator@PAVCGraphicMarkInstance@@@std@@@std@@AAEXXZ ; std::vector<CGraphicMarkInstance *,std::allocator<CGraphicMarkInstance *> >::_Tidy
; File D:\Metin2 Server Files\mainline\SRC_2014\Metin2Client\EterLib\Pool.h

; 26   : 		}

  0001b	8b 4d fc	 mov	 ecx, DWORD PTR _this$[ebp]
  0001e	83 c1 04	 add	 ecx, 4
; File C:\Program Files (x86)\Microsoft Visual Studio\2019\Community\VC\Tools\MSVC\14.28.29333\include\vector

; 673  :         _Tidy();

  00021	e8 00 00 00 00	 call	 ?_Tidy@?$vector@PAVCGraphicMarkInstance@@V?$allocator@PAVCGraphicMarkInstance@@@std@@@std@@AAEXXZ ; std::vector<CGraphicMarkInstance *,std::allocator<CGraphicMarkInstance *> >::_Tidy
; File D:\Metin2 Server Files\mainline\SRC_2014\Metin2Client\EterLib\Pool.h

; 26   : 		}

  00026	c9		 leave
  00027	c3		 ret	 0
??1?$CDynamicPool@VCGraphicMarkInstance@@@@UAE@XZ ENDP	; CDynamicPool<CGraphicMarkInstance>::~CDynamicPool<CGraphicMarkInstance>
_TEXT	ENDS
; Function compile flags: /Odspy
; File D:\Metin2 Server Files\mainline\SRC_2014\Metin2Client\EterLib\Pool.h
; File C:\Program Files (x86)\Microsoft Visual Studio\2019\Community\VC\Tools\MSVC\14.28.29333\include\vector
; File C:\Program Files (x86)\Microsoft Visual Studio\2019\Community\VC\Tools\MSVC\14.28.29333\include\xmemory
; File C:\Program Files (x86)\Microsoft Visual Studio\2019\Community\VC\Tools\MSVC\14.28.29333\include\vector
; File D:\Metin2 Server Files\mainline\SRC_2014\Metin2Client\EterLib\Pool.h
; File C:\Program Files (x86)\Microsoft Visual Studio\2019\Community\VC\Tools\MSVC\14.28.29333\include\vector
; File C:\Program Files (x86)\Microsoft Visual Studio\2019\Community\VC\Tools\MSVC\14.28.29333\include\xmemory
; File C:\Program Files (x86)\Microsoft Visual Studio\2019\Community\VC\Tools\MSVC\14.28.29333\include\vector
; File D:\Metin2 Server Files\mainline\SRC_2014\Metin2Client\EterLib\Pool.h
;	COMDAT ??0?$CDynamicPool@VCGraphicMarkInstance@@@@QAE@XZ
_TEXT	SEGMENT
_this$ = -28						; size = 4
_this$ = -24						; size = 4
_this$ = -20						; size = 4
_this$ = -16						; size = 4
_this$1 = -12						; size = 4
_this$2 = -8						; size = 4
_this$ = -4						; size = 4
??0?$CDynamicPool@VCGraphicMarkInstance@@@@QAE@XZ PROC	; CDynamicPool<CGraphicMarkInstance>::CDynamicPool<CGraphicMarkInstance>, COMDAT
; _this$ = ecx

; 11   : 		CDynamicPool()

  00000	55		 push	 ebp
  00001	8b ec		 mov	 ebp, esp
  00003	83 ec 1c	 sub	 esp, 28			; 0000001cH
  00006	89 4d fc	 mov	 DWORD PTR _this$[ebp], ecx

; 12   : 		{

  00009	8b 45 fc	 mov	 eax, DWORD PTR _this$[ebp]
  0000c	c7 00 00 00 00
	00		 mov	 DWORD PTR [eax], OFFSET ??_7?$CDynamicPool@VCGraphicMarkInstance@@@@6B@
  00012	8b 45 fc	 mov	 eax, DWORD PTR _this$[ebp]
  00015	83 c0 04	 add	 eax, 4
  00018	89 45 f0	 mov	 DWORD PTR _this$[ebp], eax
; File C:\Program Files (x86)\Microsoft Visual Studio\2019\Community\VC\Tools\MSVC\14.28.29333\include\vector

; 445  :     vector() noexcept(is_nothrow_default_constructible_v<_Alty>) : _Mypair(_Zero_then_variadic_args_t{}) {

  0001b	8b 45 f0	 mov	 eax, DWORD PTR _this$[ebp]
  0001e	89 45 ec	 mov	 DWORD PTR _this$[ebp], eax
; File C:\Program Files (x86)\Microsoft Visual Studio\2019\Community\VC\Tools\MSVC\14.28.29333\include\xmemory

; 1339 :         : _Ty1(), _Myval2(_STD forward<_Other2>(_Val2)...) {}

  00021	8b 45 ec	 mov	 eax, DWORD PTR _this$[ebp]
  00024	89 45 f8	 mov	 DWORD PTR _this$2[ebp], eax
; File C:\Program Files (x86)\Microsoft Visual Studio\2019\Community\VC\Tools\MSVC\14.28.29333\include\vector

; 375  :     _Vector_val() noexcept : _Myfirst(), _Mylast(), _Myend() {}

  00027	8b 45 f8	 mov	 eax, DWORD PTR _this$2[ebp]
  0002a	83 20 00	 and	 DWORD PTR [eax], 0
  0002d	8b 45 f8	 mov	 eax, DWORD PTR _this$2[ebp]
  00030	83 60 04 00	 and	 DWORD PTR [eax+4], 0
  00034	8b 45 f8	 mov	 eax, DWORD PTR _this$2[ebp]
  00037	83 60 08 00	 and	 DWORD PTR [eax+8], 0
; File D:\Metin2 Server Files\mainline\SRC_2014\Metin2Client\EterLib\Pool.h

; 12   : 		{

  0003b	8b 45 fc	 mov	 eax, DWORD PTR _this$[ebp]
  0003e	83 c0 10	 add	 eax, 16			; 00000010H
  00041	89 45 e8	 mov	 DWORD PTR _this$[ebp], eax
; File C:\Program Files (x86)\Microsoft Visual Studio\2019\Community\VC\Tools\MSVC\14.28.29333\include\vector

; 445  :     vector() noexcept(is_nothrow_default_constructible_v<_Alty>) : _Mypair(_Zero_then_variadic_args_t{}) {

  00044	8b 45 e8	 mov	 eax, DWORD PTR _this$[ebp]
  00047	89 45 e4	 mov	 DWORD PTR _this$[ebp], eax
; File C:\Program Files (x86)\Microsoft Visual Studio\2019\Community\VC\Tools\MSVC\14.28.29333\include\xmemory

; 1339 :         : _Ty1(), _Myval2(_STD forward<_Other2>(_Val2)...) {}

  0004a	8b 45 e4	 mov	 eax, DWORD PTR _this$[ebp]
  0004d	89 45 f4	 mov	 DWORD PTR _this$1[ebp], eax
; File C:\Program Files (x86)\Microsoft Visual Studio\2019\Community\VC\Tools\MSVC\14.28.29333\include\vector

; 375  :     _Vector_val() noexcept : _Myfirst(), _Mylast(), _Myend() {}

  00050	8b 45 f4	 mov	 eax, DWORD PTR _this$1[ebp]
  00053	83 20 00	 and	 DWORD PTR [eax], 0
  00056	8b 45 f4	 mov	 eax, DWORD PTR _this$1[ebp]
  00059	83 60 04 00	 and	 DWORD PTR [eax+4], 0
  0005d	8b 45 f4	 mov	 eax, DWORD PTR _this$1[ebp]
  00060	83 60 08 00	 and	 DWORD PTR [eax+8], 0
; File D:\Metin2 Server Files\mainline\SRC_2014\Metin2Client\EterLib\Pool.h

; 14   : 			m_uInitCapacity=0;

  00064	8b 45 fc	 mov	 eax, DWORD PTR _this$[ebp]
  00067	83 60 1c 00	 and	 DWORD PTR [eax+28], 0

; 15   : 			m_uUsedCapacity=0;

  0006b	8b 45 fc	 mov	 eax, DWORD PTR _this$[ebp]
  0006e	83 60 20 00	 and	 DWORD PTR [eax+32], 0

; 16   : 		}

  00072	8b 45 fc	 mov	 eax, DWORD PTR _this$[ebp]
  00075	c9		 leave
  00076	c3		 ret	 0
??0?$CDynamicPool@VCGraphicMarkInstance@@@@QAE@XZ ENDP	; CDynamicPool<CGraphicMarkInstance>::CDynamicPool<CGraphicMarkInstance>
_TEXT	ENDS
; Function compile flags: /Odspy
;	COMDAT ??_GCGraphicMarkInstance@@UAEPAXI@Z
_TEXT	SEGMENT
_this$ = -4						; size = 4
___flags$ = 8						; size = 4
??_GCGraphicMarkInstance@@UAEPAXI@Z PROC		; CGraphicMarkInstance::`scalar deleting destructor', COMDAT
; _this$ = ecx
  00000	55		 push	 ebp
  00001	8b ec		 mov	 ebp, esp
  00003	51		 push	 ecx
  00004	89 4d fc	 mov	 DWORD PTR _this$[ebp], ecx
  00007	8b 4d fc	 mov	 ecx, DWORD PTR _this$[ebp]
  0000a	e8 00 00 00 00	 call	 ??1CGraphicMarkInstance@@UAE@XZ ; CGraphicMarkInstance::~CGraphicMarkInstance
  0000f	8b 45 08	 mov	 eax, DWORD PTR ___flags$[ebp]
  00012	83 e0 01	 and	 eax, 1
  00015	74 0c		 je	 SHORT $LN2@scalar
  00017	6a 44		 push	 68			; 00000044H
  00019	ff 75 fc	 push	 DWORD PTR _this$[ebp]
  0001c	e8 00 00 00 00	 call	 ??3@YAXPAXI@Z		; operator delete
  00021	59		 pop	 ecx
  00022	59		 pop	 ecx
$LN2@scalar:
  00023	8b 45 fc	 mov	 eax, DWORD PTR _this$[ebp]
  00026	c9		 leave
  00027	c2 04 00	 ret	 4
??_GCGraphicMarkInstance@@UAEPAXI@Z ENDP		; CGraphicMarkInstance::`scalar deleting destructor'
_TEXT	ENDS
; Function compile flags: /Odspy
; File D:\Metin2 Server Files\mainline\SRC_2014\Metin2Client\EterLib\GrpMarkInstance.cpp
; File C:\Program Files (x86)\Microsoft Visual Studio\2019\Community\VC\Tools\MSVC\14.28.29333\include\vector
; File D:\Metin2 Server Files\mainline\SRC_2014\Metin2Client\EterLib\GrpMarkInstance.cpp
;	COMDAT ?Delete@CGraphicMarkInstance@@SAXPAV1@@Z
_TEXT	SEGMENT
_pkData$ = -4						; size = 4
_pkImgInst$ = 8						; size = 4
?Delete@CGraphicMarkInstance@@SAXPAV1@@Z PROC		; CGraphicMarkInstance::Delete, COMDAT

; 36   : {

  00000	55		 push	 ebp
  00001	8b ec		 mov	 ebp, esp
  00003	51		 push	 ecx

; 37   : 	pkImgInst->Destroy();

  00004	8b 4d 08	 mov	 ecx, DWORD PTR _pkImgInst$[ebp]
  00007	e8 00 00 00 00	 call	 ?Destroy@CGraphicMarkInstance@@QAEXXZ ; CGraphicMarkInstance::Destroy

; 38   : 	ms_kPool.Free(pkImgInst);

  0000c	8b 45 08	 mov	 eax, DWORD PTR _pkImgInst$[ebp]
  0000f	89 45 fc	 mov	 DWORD PTR _pkData$[ebp], eax
; File C:\Program Files (x86)\Microsoft Visual Studio\2019\Community\VC\Tools\MSVC\14.28.29333\include\vector

; 717  :         emplace_back(_Val);

  00012	8d 45 fc	 lea	 eax, DWORD PTR _pkData$[ebp]
  00015	50		 push	 eax
  00016	b9 10 00 00 00	 mov	 ecx, OFFSET ?ms_kPool@CGraphicMarkInstance@@2V?$CDynamicPool@VCGraphicMarkInstance@@@@A+16
  0001b	e8 00 00 00 00	 call	 ??$emplace_back@ABQAVCGraphicMarkInstance@@@?$vector@PAVCGraphicMarkInstance@@V?$allocator@PAVCGraphicMarkInstance@@@std@@@std@@QAEXABQAVCGraphicMarkInstance@@@Z ; std::vector<CGraphicMarkInstance *,std::allocator<CGraphicMarkInstance *> >::emplace_back<CGraphicMarkInstance * const &>
; File D:\Metin2 Server Files\mainline\SRC_2014\Metin2Client\EterLib\GrpMarkInstance.cpp

; 39   : }

  00020	c9		 leave
  00021	c3		 ret	 0
?Delete@CGraphicMarkInstance@@SAXPAV1@@Z ENDP		; CGraphicMarkInstance::Delete
_TEXT	ENDS
; Function compile flags: /Odspy
; File D:\Metin2 Server Files\mainline\SRC_2014\Metin2Client\EterLib\GrpMarkInstance.cpp
;	COMDAT ?New@CGraphicMarkInstance@@SAPAV1@XZ
_TEXT	SEGMENT
?New@CGraphicMarkInstance@@SAPAV1@XZ PROC		; CGraphicMarkInstance::New, COMDAT

; 31   : {

  00000	55		 push	 ebp
  00001	8b ec		 mov	 ebp, esp

; 32   : 	return ms_kPool.Alloc();

  00003	b9 00 00 00 00	 mov	 ecx, OFFSET ?ms_kPool@CGraphicMarkInstance@@2V?$CDynamicPool@VCGraphicMarkInstance@@@@A ; CGraphicMarkInstance::ms_kPool
  00008	e8 00 00 00 00	 call	 ?Alloc@?$CDynamicPool@VCGraphicMarkInstance@@@@QAEPAVCGraphicMarkInstance@@XZ ; CDynamicPool<CGraphicMarkInstance>::Alloc

; 33   : }

  0000d	5d		 pop	 ebp
  0000e	c3		 ret	 0
?New@CGraphicMarkInstance@@SAPAV1@XZ ENDP		; CGraphicMarkInstance::New
_TEXT	ENDS
; Function compile flags: /Odspy
; File D:\Metin2 Server Files\mainline\SRC_2014\Metin2Client\EterLib\GrpMarkInstance.cpp
;	COMDAT ?DestroySystem@CGraphicMarkInstance@@SAXXZ
_TEXT	SEGMENT
?DestroySystem@CGraphicMarkInstance@@SAXXZ PROC		; CGraphicMarkInstance::DestroySystem, COMDAT

; 26   : {

  00000	55		 push	 ebp
  00001	8b ec		 mov	 ebp, esp

; 27   : 	ms_kPool.Destroy();

  00003	b9 00 00 00 00	 mov	 ecx, OFFSET ?ms_kPool@CGraphicMarkInstance@@2V?$CDynamicPool@VCGraphicMarkInstance@@@@A ; CGraphicMarkInstance::ms_kPool
  00008	e8 00 00 00 00	 call	 ?Destroy@?$CDynamicPool@VCGraphicMarkInstance@@@@QAEXXZ ; CDynamicPool<CGraphicMarkInstance>::Destroy

; 28   : }

  0000d	5d		 pop	 ebp
  0000e	c3		 ret	 0
?DestroySystem@CGraphicMarkInstance@@SAXXZ ENDP		; CGraphicMarkInstance::DestroySystem
_TEXT	ENDS
; Function compile flags: /Odspy
; File D:\Metin2 Server Files\mainline\SRC_2014\Metin2Client\EterLib\GrpMarkInstance.cpp
; File D:\Metin2 Server Files\mainline\SRC_2014\Metin2Client\EterLib\Pool.h
; File D:\Metin2 Server Files\mainline\SRC_2014\Metin2Client\EterLib\GrpMarkInstance.cpp
;	COMDAT ?CreateSystem@CGraphicMarkInstance@@SAXI@Z
_TEXT	SEGMENT
_uCapacity$ = 8						; size = 4
?CreateSystem@CGraphicMarkInstance@@SAXI@Z PROC		; CGraphicMarkInstance::CreateSystem, COMDAT

; 21   : {

  00000	55		 push	 ebp
  00001	8b ec		 mov	 ebp, esp
; File D:\Metin2 Server Files\mainline\SRC_2014\Metin2Client\EterLib\Pool.h

; 57   : 			m_uInitCapacity=uCapacity;

  00003	8b 45 08	 mov	 eax, DWORD PTR _uCapacity$[ebp]
  00006	a3 1c 00 00 00	 mov	 DWORD PTR ?ms_kPool@CGraphicMarkInstance@@2V?$CDynamicPool@VCGraphicMarkInstance@@@@A+28, eax

; 58   : 			m_kVct_pkData.reserve(uCapacity);

  0000b	ff 75 08	 push	 DWORD PTR _uCapacity$[ebp]
  0000e	b9 04 00 00 00	 mov	 ecx, OFFSET ?ms_kPool@CGraphicMarkInstance@@2V?$CDynamicPool@VCGraphicMarkInstance@@@@A+4
  00013	e8 00 00 00 00	 call	 ?reserve@?$vector@PAVCGraphicMarkInstance@@V?$allocator@PAVCGraphicMarkInstance@@@std@@@std@@QAEXI@Z ; std::vector<CGraphicMarkInstance *,std::allocator<CGraphicMarkInstance *> >::reserve

; 59   : 			m_kVct_pkFree.reserve(uCapacity);

  00018	ff 75 08	 push	 DWORD PTR _uCapacity$[ebp]
  0001b	b9 10 00 00 00	 mov	 ecx, OFFSET ?ms_kPool@CGraphicMarkInstance@@2V?$CDynamicPool@VCGraphicMarkInstance@@@@A+16
  00020	e8 00 00 00 00	 call	 ?reserve@?$vector@PAVCGraphicMarkInstance@@V?$allocator@PAVCGraphicMarkInstance@@@std@@@std@@QAEXI@Z ; std::vector<CGraphicMarkInstance *,std::allocator<CGraphicMarkInstance *> >::reserve
; File D:\Metin2 Server Files\mainline\SRC_2014\Metin2Client\EterLib\GrpMarkInstance.cpp

; 23   : }

  00025	5d		 pop	 ebp
  00026	c3		 ret	 0
?CreateSystem@CGraphicMarkInstance@@SAXI@Z ENDP		; CGraphicMarkInstance::CreateSystem
_TEXT	ENDS
; Function compile flags: /Odspy
; File D:\Metin2 Server Files\mainline\SRC_2014\Metin2Client\EterLib\Ref.h
;	COMDAT ?SetPointer@?$CRef@VCGraphicImage@@@@QAEXPAVCReferenceObject@@@Z
_TEXT	SEGMENT
_pOldObject$ = -8					; size = 4
_this$ = -4						; size = 4
_pObject$ = 8						; size = 4
?SetPointer@?$CRef@VCGraphicImage@@@@QAEXPAVCReferenceObject@@@Z PROC ; CRef<CGraphicImage>::SetPointer, COMDAT
; _this$ = ecx

; 66   : 		{

  00000	55		 push	 ebp
  00001	8b ec		 mov	 ebp, esp
  00003	51		 push	 ecx
  00004	51		 push	 ecx
  00005	89 4d fc	 mov	 DWORD PTR _this$[ebp], ecx

; 67   : 			CReferenceObject* pOldObject = m_pObject;

  00008	8b 45 fc	 mov	 eax, DWORD PTR _this$[ebp]
  0000b	8b 00		 mov	 eax, DWORD PTR [eax]
  0000d	89 45 f8	 mov	 DWORD PTR _pOldObject$[ebp], eax

; 68   : 
; 69   : 			m_pObject = pObject;

  00010	8b 45 fc	 mov	 eax, DWORD PTR _this$[ebp]
  00013	8b 4d 08	 mov	 ecx, DWORD PTR _pObject$[ebp]
  00016	89 08		 mov	 DWORD PTR [eax], ecx

; 70   : 
; 71   : 			if (m_pObject)

  00018	8b 45 fc	 mov	 eax, DWORD PTR _this$[ebp]
  0001b	83 38 00	 cmp	 DWORD PTR [eax], 0
  0001e	74 0a		 je	 SHORT $LN2@SetPointer

; 72   : 				m_pObject->AddReference();

  00020	8b 45 fc	 mov	 eax, DWORD PTR _this$[ebp]
  00023	8b 08		 mov	 ecx, DWORD PTR [eax]
  00025	e8 00 00 00 00	 call	 ?AddReference@CReferenceObject@@QAEXXZ ; CReferenceObject::AddReference
$LN2@SetPointer:

; 73   : 
; 74   : 			if (pOldObject)

  0002a	83 7d f8 00	 cmp	 DWORD PTR _pOldObject$[ebp], 0
  0002e	74 08		 je	 SHORT $LN1@SetPointer

; 75   : 				pOldObject->Release();

  00030	8b 4d f8	 mov	 ecx, DWORD PTR _pOldObject$[ebp]
  00033	e8 00 00 00 00	 call	 ?Release@CReferenceObject@@QAEXXZ ; CReferenceObject::Release
$LN1@SetPointer:

; 76   : 		}

  00038	c9		 leave
  00039	c2 04 00	 ret	 4
?SetPointer@?$CRef@VCGraphicImage@@@@QAEXPAVCReferenceObject@@@Z ENDP ; CRef<CGraphicImage>::SetPointer
_TEXT	ENDS
; Function compile flags: /Odspy
; File D:\Metin2 Server Files\mainline\SRC_2014\Metin2Client\EterLib\Ref.h
;	COMDAT ??1?$CRef@VCGraphicImage@@@@QAE@XZ
_TEXT	SEGMENT
_this$ = -16						; size = 4
__$EHRec$ = -12						; size = 12
??1?$CRef@VCGraphicImage@@@@QAE@XZ PROC			; CRef<CGraphicImage>::~CRef<CGraphicImage>, COMDAT
; _this$ = ecx

; 37   : 		{

  00000	55		 push	 ebp
  00001	8b ec		 mov	 ebp, esp
  00003	6a ff		 push	 -1
  00005	68 00 00 00 00	 push	 __ehhandler$??1?$CRef@VCGraphicImage@@@@QAE@XZ
  0000a	64 a1 00 00 00
	00		 mov	 eax, DWORD PTR fs:0
  00010	50		 push	 eax
  00011	51		 push	 ecx
  00012	a1 00 00 00 00	 mov	 eax, DWORD PTR ___security_cookie
  00017	33 c5		 xor	 eax, ebp
  00019	50		 push	 eax
  0001a	8d 45 f4	 lea	 eax, DWORD PTR __$EHRec$[ebp]
  0001d	64 a3 00 00 00
	00		 mov	 DWORD PTR fs:0, eax
  00023	89 4d f0	 mov	 DWORD PTR _this$[ebp], ecx

; 53   : 			if (m_pObject)

  00026	8b 45 f0	 mov	 eax, DWORD PTR _this$[ebp]
  00029	83 38 00	 cmp	 DWORD PTR [eax], 0
  0002c	74 10		 je	 SHORT $LN2@CRef

; 54   : 			{
; 55   : 				m_pObject->Release();

  0002e	8b 45 f0	 mov	 eax, DWORD PTR _this$[ebp]
  00031	8b 08		 mov	 ecx, DWORD PTR [eax]
  00033	e8 00 00 00 00	 call	 ?Release@CReferenceObject@@QAEXXZ ; CReferenceObject::Release

; 56   : 				m_pObject = NULL;

  00038	8b 45 f0	 mov	 eax, DWORD PTR _this$[ebp]
  0003b	83 20 00	 and	 DWORD PTR [eax], 0
$LN2@CRef:

; 38   : 			Clear();
; 39   : 		}

  0003e	8b 4d f4	 mov	 ecx, DWORD PTR __$EHRec$[ebp]
  00041	64 89 0d 00 00
	00 00		 mov	 DWORD PTR fs:0, ecx
  00048	59		 pop	 ecx
  00049	c9		 leave
  0004a	c3		 ret	 0
  0004b	cc		 int	 3
  0004c	cc		 int	 3
  0004d	cc		 int	 3
  0004e	cc		 int	 3
  0004f	cc		 int	 3
_TEXT	ENDS
;	COMDAT text$x
text$x	SEGMENT
__ehhandler$??1?$CRef@VCGraphicImage@@@@QAE@XZ:
  00000	90		 npad	 1
  00001	90		 npad	 1
  00002	8b 54 24 08	 mov	 edx, DWORD PTR [esp+8]
  00006	8d 42 0c	 lea	 eax, DWORD PTR [edx+12]
  00009	8b 4a f8	 mov	 ecx, DWORD PTR [edx-8]
  0000c	33 c8		 xor	 ecx, eax
  0000e	e8 00 00 00 00	 call	 @__security_check_cookie@4
  00013	b8 00 00 00 00	 mov	 eax, OFFSET __ehfuncinfo$??1?$CRef@VCGraphicImage@@@@QAE@XZ
  00018	e9 00 00 00 00	 jmp	 ___CxxFrameHandler3
text$x	ENDS
??1?$CRef@VCGraphicImage@@@@QAE@XZ ENDP			; CRef<CGraphicImage>::~CRef<CGraphicImage>
; Function compile flags: /Odspy
; File D:\Metin2 Server Files\mainline\SRC_2014\Metin2Client\EterLib\GrpMarkInstance.cpp
;	COMDAT ?SetImagePointer@CGraphicMarkInstance@@IAEXPAVCGraphicImage@@@Z
_TEXT	SEGMENT
_this$ = -4						; size = 4
_pImage$ = 8						; size = 4
?SetImagePointer@CGraphicMarkInstance@@IAEXPAVCGraphicImage@@@Z PROC ; CGraphicMarkInstance::SetImagePointer, COMDAT
; _this$ = ecx

; 192  : {

  00000	55		 push	 ebp
  00001	8b ec		 mov	 ebp, esp
  00003	51		 push	 ecx
  00004	89 4d fc	 mov	 DWORD PTR _this$[ebp], ecx

; 193  : 	m_roImage.SetPointer(pImage);

  00007	ff 75 08	 push	 DWORD PTR _pImage$[ebp]
  0000a	8b 4d fc	 mov	 ecx, DWORD PTR _this$[ebp]
  0000d	83 c1 28	 add	 ecx, 40			; 00000028H
  00010	e8 00 00 00 00	 call	 ?SetPointer@?$CRef@VCGraphicImage@@@@QAEXPAVCReferenceObject@@@Z ; CRef<CGraphicImage>::SetPointer

; 194  : 
; 195  : 	OnSetImagePointer();

  00015	8b 45 fc	 mov	 eax, DWORD PTR _this$[ebp]
  00018	8b 00		 mov	 eax, DWORD PTR [eax]
  0001a	8b 4d fc	 mov	 ecx, DWORD PTR _this$[ebp]
  0001d	ff 50 08	 call	 DWORD PTR [eax+8]

; 196  : }

  00020	c9		 leave
  00021	c2 04 00	 ret	 4
?SetImagePointer@CGraphicMarkInstance@@IAEXPAVCGraphicImage@@@Z ENDP ; CGraphicMarkInstance::SetImagePointer
_TEXT	ENDS
; Function compile flags: /Odspy
; File D:\Metin2 Server Files\mainline\SRC_2014\Metin2Client\EterLib\GrpMarkInstance.cpp
;	COMDAT ?OnIsType@CGraphicMarkInstance@@MAEHK@Z
_TEXT	SEGMENT
_this$ = -4						; size = 4
_dwType$ = 8						; size = 4
?OnIsType@CGraphicMarkInstance@@MAEHK@Z PROC		; CGraphicMarkInstance::OnIsType, COMDAT
; _this$ = ecx

; 223  : {

  00000	55		 push	 ebp
  00001	8b ec		 mov	 ebp, esp
  00003	51		 push	 ecx
  00004	89 4d fc	 mov	 DWORD PTR _this$[ebp], ecx

; 224  : 	if (CGraphicMarkInstance::Type() == dwType)

  00007	e8 00 00 00 00	 call	 ?Type@CGraphicMarkInstance@@SAKXZ ; CGraphicMarkInstance::Type
  0000c	3b 45 08	 cmp	 eax, DWORD PTR _dwType$[ebp]
  0000f	75 05		 jne	 SHORT $LN2@OnIsType

; 225  : 		return TRUE;

  00011	33 c0		 xor	 eax, eax
  00013	40		 inc	 eax
  00014	eb 02		 jmp	 SHORT $LN1@OnIsType
$LN2@OnIsType:

; 226  : 
; 227  : 	return FALSE;

  00016	33 c0		 xor	 eax, eax
$LN1@OnIsType:

; 228  : }

  00018	c9		 leave
  00019	c2 04 00	 ret	 4
?OnIsType@CGraphicMarkInstance@@MAEHK@Z ENDP		; CGraphicMarkInstance::OnIsType
_TEXT	ENDS
; Function compile flags: /Odspy
; File D:\Metin2 Server Files\mainline\SRC_2014\Metin2Client\EterLib\GrpMarkInstance.cpp
;	COMDAT ?OnSetImagePointer@CGraphicMarkInstance@@MAEXXZ
_TEXT	SEGMENT
_this$ = -4						; size = 4
?OnSetImagePointer@CGraphicMarkInstance@@MAEXXZ PROC	; CGraphicMarkInstance::OnSetImagePointer, COMDAT
; _this$ = ecx

; 231  : {

  00000	55		 push	 ebp
  00001	8b ec		 mov	 ebp, esp
  00003	51		 push	 ecx
  00004	89 4d fc	 mov	 DWORD PTR _this$[ebp], ecx

; 232  : }

  00007	c9		 leave
  00008	c3		 ret	 0
?OnSetImagePointer@CGraphicMarkInstance@@MAEXXZ ENDP	; CGraphicMarkInstance::OnSetImagePointer
_TEXT	ENDS
; Function compile flags: /Odspy
; File D:\Metin2 Server Files\mainline\SRC_2014\Metin2Client\EterLib\GrpMarkInstance.cpp
; File D:\Metin2 Server Files\mainline\SRC_2014\Metin2Client\EterLib\Ref.h
; File D:\Metin2 Server Files\mainline\SRC_2014\Metin2Client\EterLib\GrpMarkInstance.cpp
; File D:\Metin2 Server Files\mainline\SRC_2014\M2Data\include\d3dx8math.inl
; File D:\Metin2 Server Files\mainline\SRC_2014\Metin2Client\EterLib\GrpMarkInstance.cpp
; File D:\Metin2 Server Files\mainline\SRC_2014\M2Data\include\d3dx8math.inl
; File D:\Metin2 Server Files\mainline\SRC_2014\Metin2Client\EterLib\GrpMarkInstance.cpp
; File D:\Metin2 Server Files\mainline\SRC_2014\M2Data\include\d3dx8math.inl
; File D:\Metin2 Server Files\mainline\SRC_2014\Metin2Client\EterLib\GrpMarkInstance.cpp
; File D:\Metin2 Server Files\mainline\SRC_2014\M2Data\include\d3dx8math.inl
; File D:\Metin2 Server Files\mainline\SRC_2014\Metin2Client\EterLib\GrpMarkInstance.cpp
; File D:\Metin2 Server Files\mainline\SRC_2014\M2Data\include\d3dx8math.inl
; File D:\Metin2 Server Files\mainline\SRC_2014\Metin2Client\EterLib\GrpMarkInstance.cpp
; File D:\Metin2 Server Files\mainline\SRC_2014\M2Data\include\d3dx8math.inl
; File D:\Metin2 Server Files\mainline\SRC_2014\Metin2Client\EterLib\GrpMarkInstance.cpp
; File D:\Metin2 Server Files\mainline\SRC_2014\M2Data\include\d3dx8math.inl
; File D:\Metin2 Server Files\mainline\SRC_2014\Metin2Client\EterLib\GrpMarkInstance.cpp
; File D:\Metin2 Server Files\mainline\SRC_2014\M2Data\include\d3dx8math.inl
; File D:\Metin2 Server Files\mainline\SRC_2014\Metin2Client\EterLib\GrpMarkInstance.cpp
; File D:\Metin2 Server Files\mainline\SRC_2014\M2Data\include\d3dx8math.inl
; File D:\Metin2 Server Files\mainline\SRC_2014\Metin2Client\EterLib\GrpMarkInstance.cpp
; File D:\Metin2 Server Files\mainline\SRC_2014\M2Data\include\d3dx8math.inl
; File D:\Metin2 Server Files\mainline\SRC_2014\Metin2Client\EterLib\GrpMarkInstance.cpp
; File D:\Metin2 Server Files\mainline\SRC_2014\M2Data\include\d3dx8math.inl
; File D:\Metin2 Server Files\mainline\SRC_2014\Metin2Client\EterLib\GrpMarkInstance.cpp
; File D:\Metin2 Server Files\mainline\SRC_2014\M2Data\include\d3dx8math.inl
; File D:\Metin2 Server Files\mainline\SRC_2014\Metin2Client\EterLib\GrpMarkInstance.cpp
; File D:\Metin2 Server Files\mainline\SRC_2014\Metin2Client\eterBase\Singleton.h
; File D:\Metin2 Server Files\mainline\SRC_2014\Metin2Client\EterLib\GrpMarkInstance.cpp
;	COMDAT ?OnRender@CGraphicMarkInstance@@MAEXXZ
_TEXT	SEGMENT
_dwR$1 = -308						; size = 4
_uRow$ = -304						; size = 4
$T2 = -300						; size = 8
$T3 = -292						; size = 8
$T4 = -284						; size = 8
$T5 = -276						; size = 8
$T6 = -268						; size = 4
_dwB$7 = -264						; size = 4
_dwA$8 = -260						; size = 4
_dwG$9 = -256						; size = 4
_dwG$10 = -252						; size = 4
_dwB$11 = -248						; size = 4
_dwA$12 = -244						; size = 4
_dwR$13 = -240						; size = 4
_dwG$14 = -236						; size = 4
_dwB$15 = -232						; size = 4
_dwA$16 = -228						; size = 4
_dwR$17 = -224						; size = 4
_uCol$ = -220						; size = 4
_dwB$18 = -216						; size = 4
_dwA$19 = -212						; size = 4
_dwR$20 = -208						; size = 4
_dwG$21 = -204						; size = 4
tv384 = -200						; size = 4
_texReverseWidth$ = -196				; size = 4
_pImage$ = -192						; size = 4
tv572 = -188						; size = 4
tv571 = -184						; size = 4
tv561 = -180						; size = 4
tv560 = -176						; size = 4
tv550 = -172						; size = 4
tv549 = -168						; size = 4
tv539 = -164						; size = 4
tv538 = -160						; size = 4
_ev$ = -156						; size = 4
_eu$ = -152						; size = 4
_fRenderHeight$ = -148					; size = 4
_fRenderWidth$ = -144					; size = 4
tv524 = -140						; size = 4
tv523 = -136						; size = 4
tv513 = -132						; size = 4
tv512 = -128						; size = 4
tv502 = -124						; size = 4
tv501 = -120						; size = 4
tv491 = -116						; size = 4
tv490 = -112						; size = 4
_su$ = -108						; size = 4
tv476 = -104						; size = 4
tv475 = -100						; size = 4
tv465 = -96						; size = 4
tv464 = -92						; size = 4
tv454 = -88						; size = 4
tv453 = -84						; size = 4
tv443 = -80						; size = 4
tv442 = -76						; size = 4
_sv$ = -72						; size = 4
tv428 = -68						; size = 4
tv427 = -64						; size = 4
tv417 = -60						; size = 4
tv416 = -56						; size = 4
tv406 = -52						; size = 4
tv405 = -48						; size = 4
tv395 = -44						; size = 4
tv388 = -40						; size = 4
___t$ = -36						; size = 4
_texReverseHeight$ = -32				; size = 4
_pTexture$ = -28					; size = 4
___n$ = -24						; size = 4
_uColCount$ = -20					; size = 4
_this$ = -16						; size = 4
_this$ = -12						; size = 4
_this$ = -8						; size = 4
_this$ = -4						; size = 4
_this$ = 0						; size = 4
_kRect$ = 4						; size = 16
_vertices$ = 20						; size = 96
__$ArrayPad$ = 116					; size = 4
?OnRender@CGraphicMarkInstance@@MAEXXZ PROC		; CGraphicMarkInstance::OnRender, COMDAT
; _this$ = ecx

; 52   : {

  00000	55		 push	 ebp
  00001	8d 6c 24 88	 lea	 ebp, DWORD PTR [esp-120]
  00005	81 ec ac 01 00
	00		 sub	 esp, 428		; 000001acH
  0000b	a1 00 00 00 00	 mov	 eax, DWORD PTR ___security_cookie
  00010	33 c5		 xor	 eax, ebp
  00012	89 45 74	 mov	 DWORD PTR __$ArrayPad$[ebp], eax
  00015	56		 push	 esi
  00016	89 4d 00	 mov	 DWORD PTR _this$[ebp], ecx
; File D:\Metin2 Server Files\mainline\SRC_2014\Metin2Client\EterLib\Ref.h

; 80   : 			return static_cast<T*>(m_pObject);

  00019	8b 45 00	 mov	 eax, DWORD PTR _this$[ebp]
  0001c	8b 40 28	 mov	 eax, DWORD PTR [eax+40]
  0001f	89 85 40 ff ff
	ff		 mov	 DWORD PTR _pImage$[ebp], eax
; File D:\Metin2 Server Files\mainline\SRC_2014\Metin2Client\EterLib\GrpMarkInstance.cpp

; 54   : 	CGraphicTexture * pTexture = pImage->GetTexturePointer();

  00025	8b 8d 40 ff ff
	ff		 mov	 ecx, DWORD PTR _pImage$[ebp]
  0002b	e8 00 00 00 00	 call	 ?GetTexturePointer@CGraphicImage@@QAEPAVCGraphicTexture@@XZ ; CGraphicImage::GetTexturePointer
  00030	89 45 e4	 mov	 DWORD PTR _pTexture$[ebp], eax

; 55   : 	
; 56   : 	UINT uColCount = pImage->GetWidth() / MARK_WIDTH;

  00033	8b 8d 40 ff ff
	ff		 mov	 ecx, DWORD PTR _pImage$[ebp]
  00039	e8 00 00 00 00	 call	 ?GetWidth@CGraphicImage@@QBEHXZ ; CGraphicImage::GetWidth
  0003e	99		 cdq
  0003f	83 e2 0f	 and	 edx, 15			; 0000000fH
  00042	03 c2		 add	 eax, edx
  00044	c1 f8 04	 sar	 eax, 4
  00047	89 45 ec	 mov	 DWORD PTR _uColCount$[ebp], eax

; 57   : 
; 58   : 	if (uColCount == 0)

  0004a	83 7d ec 00	 cmp	 DWORD PTR _uColCount$[ebp], 0
  0004e	75 05		 jne	 SHORT $LN2@OnRender

; 59   : 		return;

  00050	e9 9b 0a 00 00	 jmp	 $LN1@OnRender
$LN2@OnRender:

; 60   : 
; 61   : 	UINT uCol = m_uIndex % uColCount;

  00055	8b 45 00	 mov	 eax, DWORD PTR _this$[ebp]
  00058	8b 40 1c	 mov	 eax, DWORD PTR [eax+28]
  0005b	33 d2		 xor	 edx, edx
  0005d	f7 75 ec	 div	 DWORD PTR _uColCount$[ebp]
  00060	89 95 24 ff ff
	ff		 mov	 DWORD PTR _uCol$[ebp], edx

; 62   : 	UINT uRow = m_uIndex / uColCount;

  00066	8b 45 00	 mov	 eax, DWORD PTR _this$[ebp]
  00069	8b 40 1c	 mov	 eax, DWORD PTR [eax+28]
  0006c	33 d2		 xor	 edx, edx
  0006e	f7 75 ec	 div	 DWORD PTR _uColCount$[ebp]
  00071	89 85 d0 fe ff
	ff		 mov	 DWORD PTR _uRow$[ebp], eax

; 63   : 
; 64   : 	RECT kRect;
; 65   : 	kRect.left=uCol*MARK_WIDTH;

  00077	8b 85 24 ff ff
	ff		 mov	 eax, DWORD PTR _uCol$[ebp]
  0007d	c1 e0 04	 shl	 eax, 4
  00080	89 45 04	 mov	 DWORD PTR _kRect$[ebp], eax

; 66   : 	kRect.top=uRow*MARK_HEIGHT;

  00083	6b 85 d0 fe ff
	ff 0c		 imul	 eax, DWORD PTR _uRow$[ebp], 12
  0008a	89 45 08	 mov	 DWORD PTR _kRect$[ebp+4], eax

; 67   : 	kRect.right=kRect.left+MARK_WIDTH;

  0008d	8b 45 04	 mov	 eax, DWORD PTR _kRect$[ebp]
  00090	83 c0 10	 add	 eax, 16			; 00000010H
  00093	89 45 0c	 mov	 DWORD PTR _kRect$[ebp+8], eax

; 68   : 	kRect.bottom=kRect.top+MARK_HEIGHT;

  00096	8b 45 08	 mov	 eax, DWORD PTR _kRect$[ebp+4]
  00099	83 c0 0c	 add	 eax, 12			; 0000000cH
  0009c	89 45 10	 mov	 DWORD PTR _kRect$[ebp+12], eax

; 69   : 
; 70   : 	float texReverseWidth = 1.0f / float(pTexture->GetWidth());

  0009f	8b 4d e4	 mov	 ecx, DWORD PTR _pTexture$[ebp]
  000a2	e8 00 00 00 00	 call	 ?GetWidth@CGraphicTexture@@QBEHXZ ; CGraphicTexture::GetWidth
  000a7	f3 0f 2a c0	 cvtsi2ss xmm0, eax
  000ab	f3 0f 10 0d 00
	00 00 00	 movss	 xmm1, DWORD PTR __real@3f800000
  000b3	f3 0f 5e c8	 divss	 xmm1, xmm0
  000b7	f3 0f 11 8d 3c
	ff ff ff	 movss	 DWORD PTR _texReverseWidth$[ebp], xmm1

; 71   : 	float texReverseHeight = 1.0f / float(pTexture->GetHeight());

  000bf	8b 4d e4	 mov	 ecx, DWORD PTR _pTexture$[ebp]
  000c2	e8 00 00 00 00	 call	 ?GetHeight@CGraphicTexture@@QBEHXZ ; CGraphicTexture::GetHeight
  000c7	f3 0f 2a c0	 cvtsi2ss xmm0, eax
  000cb	f3 0f 10 0d 00
	00 00 00	 movss	 xmm1, DWORD PTR __real@3f800000
  000d3	f3 0f 5e c8	 divss	 xmm1, xmm0
  000d7	f3 0f 11 4d e0	 movss	 DWORD PTR _texReverseHeight$[ebp], xmm1

; 72   : 	float su = kRect.left * texReverseWidth;

  000dc	f3 0f 2a 45 04	 cvtsi2ss xmm0, DWORD PTR _kRect$[ebp]
  000e1	f3 0f 59 85 3c
	ff ff ff	 mulss	 xmm0, DWORD PTR _texReverseWidth$[ebp]
  000e9	f3 0f 11 45 94	 movss	 DWORD PTR _su$[ebp], xmm0

; 73   : 	float sv = kRect.top * texReverseHeight;

  000ee	f3 0f 2a 45 08	 cvtsi2ss xmm0, DWORD PTR _kRect$[ebp+4]
  000f3	f3 0f 59 45 e0	 mulss	 xmm0, DWORD PTR _texReverseHeight$[ebp]
  000f8	f3 0f 11 45 b8	 movss	 DWORD PTR _sv$[ebp], xmm0

; 74   : 	float eu = kRect.right * texReverseWidth;

  000fd	f3 0f 2a 45 0c	 cvtsi2ss xmm0, DWORD PTR _kRect$[ebp+8]
  00102	f3 0f 59 85 3c
	ff ff ff	 mulss	 xmm0, DWORD PTR _texReverseWidth$[ebp]
  0010a	f3 0f 11 85 68
	ff ff ff	 movss	 DWORD PTR _eu$[ebp], xmm0

; 75   : 	float ev = kRect.bottom * texReverseHeight;

  00112	f3 0f 2a 45 10	 cvtsi2ss xmm0, DWORD PTR _kRect$[ebp+12]
  00117	f3 0f 59 45 e0	 mulss	 xmm0, DWORD PTR _texReverseHeight$[ebp]
  0011c	f3 0f 11 85 64
	ff ff ff	 movss	 DWORD PTR _ev$[ebp], xmm0

; 76   : 
; 77   : 	float fRenderWidth=MARK_WIDTH*m_fScale;

  00124	8b 45 00	 mov	 eax, DWORD PTR _this$[ebp]
  00127	f3 0f 10 05 00
	00 00 00	 movss	 xmm0, DWORD PTR __real@41800000
  0012f	f3 0f 59 40 20	 mulss	 xmm0, DWORD PTR [eax+32]
  00134	f3 0f 11 85 70
	ff ff ff	 movss	 DWORD PTR _fRenderWidth$[ebp], xmm0

; 78   : 	float fRenderHeight=MARK_HEIGHT*m_fScale;

  0013c	8b 45 00	 mov	 eax, DWORD PTR _this$[ebp]
  0013f	f3 0f 10 05 00
	00 00 00	 movss	 xmm0, DWORD PTR __real@41400000
  00147	f3 0f 59 40 20	 mulss	 xmm0, DWORD PTR [eax+32]
  0014c	f3 0f 11 85 6c
	ff ff ff	 movss	 DWORD PTR _fRenderHeight$[ebp], xmm0

; 79   : 
; 80   : 	TPDTVertex vertices[4];

  00154	c7 45 e8 04 00
	00 00		 mov	 DWORD PTR ___n$[ebp], 4
  0015b	8d 45 14	 lea	 eax, DWORD PTR _vertices$[ebp]
  0015e	89 45 dc	 mov	 DWORD PTR ___t$[ebp], eax
$LN8@OnRender:
  00161	8b 45 e8	 mov	 eax, DWORD PTR ___n$[ebp]
  00164	89 85 38 ff ff
	ff		 mov	 DWORD PTR tv384[ebp], eax
  0016a	8b 45 e8	 mov	 eax, DWORD PTR ___n$[ebp]
  0016d	48		 dec	 eax
  0016e	89 45 e8	 mov	 DWORD PTR ___n$[ebp], eax
  00171	83 bd 38 ff ff
	ff 00		 cmp	 DWORD PTR tv384[ebp], 0
  00178	76 0b		 jbe	 SHORT $LN9@OnRender
  0017a	8b 45 dc	 mov	 eax, DWORD PTR ___t$[ebp]
  0017d	83 c0 18	 add	 eax, 24			; 00000018H
  00180	89 45 dc	 mov	 DWORD PTR ___t$[ebp], eax
  00183	eb dc		 jmp	 SHORT $LN8@OnRender
$LN9@OnRender:

; 81   : 	vertices[0].position.x	= m_v2Position.x-0.5f;

  00185	8b 45 00	 mov	 eax, DWORD PTR _this$[ebp]
  00188	f3 0f 10 40 14	 movss	 xmm0, DWORD PTR [eax+20]
  0018d	f3 0f 5c 05 00
	00 00 00	 subss	 xmm0, DWORD PTR __real@3f000000
  00195	6a 18		 push	 24			; 00000018H
  00197	58		 pop	 eax
  00198	6b c0 00	 imul	 eax, eax, 0
  0019b	f3 0f 11 44 05
	14		 movss	 DWORD PTR _vertices$[ebp+eax], xmm0

; 82   : 	vertices[0].position.y	= m_v2Position.y-0.5f;

  001a1	8b 45 00	 mov	 eax, DWORD PTR _this$[ebp]
  001a4	f3 0f 10 40 18	 movss	 xmm0, DWORD PTR [eax+24]
  001a9	f3 0f 5c 05 00
	00 00 00	 subss	 xmm0, DWORD PTR __real@3f000000
  001b1	6a 18		 push	 24			; 00000018H
  001b3	58		 pop	 eax
  001b4	6b c0 00	 imul	 eax, eax, 0
  001b7	f3 0f 11 44 05
	18		 movss	 DWORD PTR _vertices$[ebp+eax+4], xmm0

; 83   : 	vertices[0].position.z	= 0.0f;

  001bd	6a 18		 push	 24			; 00000018H
  001bf	58		 pop	 eax
  001c0	6b c0 00	 imul	 eax, eax, 0
  001c3	0f 57 c0	 xorps	 xmm0, xmm0
  001c6	f3 0f 11 44 05
	1c		 movss	 DWORD PTR _vertices$[ebp+eax+8], xmm0
; File D:\Metin2 Server Files\mainline\SRC_2014\M2Data\include\d3dx8math.inl

; 41   :     x = fx;

  001cc	f3 0f 10 45 94	 movss	 xmm0, DWORD PTR _su$[ebp]
  001d1	f3 0f 11 85 ec
	fe ff ff	 movss	 DWORD PTR $T5[ebp], xmm0

; 42   :     y = fy;

  001d9	f3 0f 10 45 b8	 movss	 xmm0, DWORD PTR _sv$[ebp]
  001de	f3 0f 11 85 f0
	fe ff ff	 movss	 DWORD PTR $T5[ebp+4], xmm0
; File D:\Metin2 Server Files\mainline\SRC_2014\Metin2Client\EterLib\GrpMarkInstance.cpp

; 84   : 	vertices[0].texCoord	= TTextureCoordinate(su, sv);

  001e6	8b 85 ec fe ff
	ff		 mov	 eax, DWORD PTR $T5[ebp]
  001ec	8b 8d f0 fe ff
	ff		 mov	 ecx, DWORD PTR $T5[ebp+4]
  001f2	6a 18		 push	 24			; 00000018H
  001f4	5a		 pop	 edx
  001f5	6b d2 00	 imul	 edx, edx, 0
  001f8	89 44 15 24	 mov	 DWORD PTR _vertices$[ebp+edx+16], eax
  001fc	89 4c 15 28	 mov	 DWORD PTR _vertices$[ebp+edx+20], ecx

; 85   : 	vertices[0].diffuse		= m_DiffuseColor;

  00200	8b 45 00	 mov	 eax, DWORD PTR _this$[ebp]
  00203	83 c0 04	 add	 eax, 4
  00206	89 45 fc	 mov	 DWORD PTR _this$[ebp], eax
; File D:\Metin2 Server Files\mainline\SRC_2014\M2Data\include\d3dx8math.inl

; 931  :     DWORD dwR = r >= 1.0f ? 0xff : r <= 0.0f ? 0x00 : (DWORD) (r * 255.0f + 0.5f);

  00209	8b 45 fc	 mov	 eax, DWORD PTR _this$[ebp]
  0020c	f3 0f 10 00	 movss	 xmm0, DWORD PTR [eax]
  00210	0f 2f 05 00 00
	00 00		 comiss	 xmm0, DWORD PTR __real@3f800000
  00217	72 09		 jb	 SHORT $LN23@OnRender
  00219	c7 45 d4 ff 00
	00 00		 mov	 DWORD PTR tv395[ebp], 255 ; 000000ffH
  00220	eb 36		 jmp	 SHORT $LN24@OnRender
$LN23@OnRender:
  00222	8b 45 fc	 mov	 eax, DWORD PTR _this$[ebp]
  00225	0f 57 c0	 xorps	 xmm0, xmm0
  00228	0f 2f 00	 comiss	 xmm0, DWORD PTR [eax]
  0022b	72 06		 jb	 SHORT $LN21@OnRender
  0022d	83 65 d8 00	 and	 DWORD PTR tv388[ebp], 0
  00231	eb 1f		 jmp	 SHORT $LN22@OnRender
$LN21@OnRender:
  00233	8b 45 fc	 mov	 eax, DWORD PTR _this$[ebp]
  00236	f3 0f 10 00	 movss	 xmm0, DWORD PTR [eax]
  0023a	f3 0f 59 05 00
	00 00 00	 mulss	 xmm0, DWORD PTR __real@437f0000
  00242	f3 0f 58 05 00
	00 00 00	 addss	 xmm0, DWORD PTR __real@3f000000
  0024a	e8 00 00 00 00	 call	 __ftoui3
  0024f	89 45 d8	 mov	 DWORD PTR tv388[ebp], eax
$LN22@OnRender:
  00252	8b 45 d8	 mov	 eax, DWORD PTR tv388[ebp]
  00255	89 45 d4	 mov	 DWORD PTR tv395[ebp], eax
$LN24@OnRender:
  00258	8b 45 d4	 mov	 eax, DWORD PTR tv395[ebp]
  0025b	89 85 30 ff ff
	ff		 mov	 DWORD PTR _dwR$20[ebp], eax

; 932  :     DWORD dwG = g >= 1.0f ? 0xff : g <= 0.0f ? 0x00 : (DWORD) (g * 255.0f + 0.5f);

  00261	8b 45 fc	 mov	 eax, DWORD PTR _this$[ebp]
  00264	f3 0f 10 40 04	 movss	 xmm0, DWORD PTR [eax+4]
  00269	0f 2f 05 00 00
	00 00		 comiss	 xmm0, DWORD PTR __real@3f800000
  00270	72 09		 jb	 SHORT $LN27@OnRender
  00272	c7 45 cc ff 00
	00 00		 mov	 DWORD PTR tv406[ebp], 255 ; 000000ffH
  00279	eb 38		 jmp	 SHORT $LN28@OnRender
$LN27@OnRender:
  0027b	8b 45 fc	 mov	 eax, DWORD PTR _this$[ebp]
  0027e	0f 57 c0	 xorps	 xmm0, xmm0
  00281	0f 2f 40 04	 comiss	 xmm0, DWORD PTR [eax+4]
  00285	72 06		 jb	 SHORT $LN25@OnRender
  00287	83 65 d0 00	 and	 DWORD PTR tv405[ebp], 0
  0028b	eb 20		 jmp	 SHORT $LN26@OnRender
$LN25@OnRender:
  0028d	8b 45 fc	 mov	 eax, DWORD PTR _this$[ebp]
  00290	f3 0f 10 40 04	 movss	 xmm0, DWORD PTR [eax+4]
  00295	f3 0f 59 05 00
	00 00 00	 mulss	 xmm0, DWORD PTR __real@437f0000
  0029d	f3 0f 58 05 00
	00 00 00	 addss	 xmm0, DWORD PTR __real@3f000000
  002a5	e8 00 00 00 00	 call	 __ftoui3
  002aa	89 45 d0	 mov	 DWORD PTR tv405[ebp], eax
$LN26@OnRender:
  002ad	8b 45 d0	 mov	 eax, DWORD PTR tv405[ebp]
  002b0	89 45 cc	 mov	 DWORD PTR tv406[ebp], eax
$LN28@OnRender:
  002b3	8b 45 cc	 mov	 eax, DWORD PTR tv406[ebp]
  002b6	89 85 34 ff ff
	ff		 mov	 DWORD PTR _dwG$21[ebp], eax

; 933  :     DWORD dwB = b >= 1.0f ? 0xff : b <= 0.0f ? 0x00 : (DWORD) (b * 255.0f + 0.5f);

  002bc	8b 45 fc	 mov	 eax, DWORD PTR _this$[ebp]
  002bf	f3 0f 10 40 08	 movss	 xmm0, DWORD PTR [eax+8]
  002c4	0f 2f 05 00 00
	00 00		 comiss	 xmm0, DWORD PTR __real@3f800000
  002cb	72 09		 jb	 SHORT $LN31@OnRender
  002cd	c7 45 c4 ff 00
	00 00		 mov	 DWORD PTR tv417[ebp], 255 ; 000000ffH
  002d4	eb 38		 jmp	 SHORT $LN32@OnRender
$LN31@OnRender:
  002d6	8b 45 fc	 mov	 eax, DWORD PTR _this$[ebp]
  002d9	0f 57 c0	 xorps	 xmm0, xmm0
  002dc	0f 2f 40 08	 comiss	 xmm0, DWORD PTR [eax+8]
  002e0	72 06		 jb	 SHORT $LN29@OnRender
  002e2	83 65 c8 00	 and	 DWORD PTR tv416[ebp], 0
  002e6	eb 20		 jmp	 SHORT $LN30@OnRender
$LN29@OnRender:
  002e8	8b 45 fc	 mov	 eax, DWORD PTR _this$[ebp]
  002eb	f3 0f 10 40 08	 movss	 xmm0, DWORD PTR [eax+8]
  002f0	f3 0f 59 05 00
	00 00 00	 mulss	 xmm0, DWORD PTR __real@437f0000
  002f8	f3 0f 58 05 00
	00 00 00	 addss	 xmm0, DWORD PTR __real@3f000000
  00300	e8 00 00 00 00	 call	 __ftoui3
  00305	89 45 c8	 mov	 DWORD PTR tv416[ebp], eax
$LN30@OnRender:
  00308	8b 45 c8	 mov	 eax, DWORD PTR tv416[ebp]
  0030b	89 45 c4	 mov	 DWORD PTR tv417[ebp], eax
$LN32@OnRender:
  0030e	8b 45 c4	 mov	 eax, DWORD PTR tv417[ebp]
  00311	89 85 28 ff ff
	ff		 mov	 DWORD PTR _dwB$18[ebp], eax

; 934  :     DWORD dwA = a >= 1.0f ? 0xff : a <= 0.0f ? 0x00 : (DWORD) (a * 255.0f + 0.5f);

  00317	8b 45 fc	 mov	 eax, DWORD PTR _this$[ebp]
  0031a	f3 0f 10 40 0c	 movss	 xmm0, DWORD PTR [eax+12]
  0031f	0f 2f 05 00 00
	00 00		 comiss	 xmm0, DWORD PTR __real@3f800000
  00326	72 09		 jb	 SHORT $LN35@OnRender
  00328	c7 45 bc ff 00
	00 00		 mov	 DWORD PTR tv428[ebp], 255 ; 000000ffH
  0032f	eb 38		 jmp	 SHORT $LN36@OnRender
$LN35@OnRender:
  00331	8b 45 fc	 mov	 eax, DWORD PTR _this$[ebp]
  00334	0f 57 c0	 xorps	 xmm0, xmm0
  00337	0f 2f 40 0c	 comiss	 xmm0, DWORD PTR [eax+12]
  0033b	72 06		 jb	 SHORT $LN33@OnRender
  0033d	83 65 c0 00	 and	 DWORD PTR tv427[ebp], 0
  00341	eb 20		 jmp	 SHORT $LN34@OnRender
$LN33@OnRender:
  00343	8b 45 fc	 mov	 eax, DWORD PTR _this$[ebp]
  00346	f3 0f 10 40 0c	 movss	 xmm0, DWORD PTR [eax+12]
  0034b	f3 0f 59 05 00
	00 00 00	 mulss	 xmm0, DWORD PTR __real@437f0000
  00353	f3 0f 58 05 00
	00 00 00	 addss	 xmm0, DWORD PTR __real@3f000000
  0035b	e8 00 00 00 00	 call	 __ftoui3
  00360	89 45 c0	 mov	 DWORD PTR tv427[ebp], eax
$LN34@OnRender:
  00363	8b 45 c0	 mov	 eax, DWORD PTR tv427[ebp]
  00366	89 45 bc	 mov	 DWORD PTR tv428[ebp], eax
$LN36@OnRender:
  00369	8b 45 bc	 mov	 eax, DWORD PTR tv428[ebp]
  0036c	89 85 2c ff ff
	ff		 mov	 DWORD PTR _dwA$19[ebp], eax
; File D:\Metin2 Server Files\mainline\SRC_2014\Metin2Client\EterLib\GrpMarkInstance.cpp

; 85   : 	vertices[0].diffuse		= m_DiffuseColor;

  00372	6a 18		 push	 24			; 00000018H
  00374	58		 pop	 eax
  00375	6b c0 00	 imul	 eax, eax, 0
; File D:\Metin2 Server Files\mainline\SRC_2014\M2Data\include\d3dx8math.inl

; 936  :     return (dwA << 24) | (dwR << 16) | (dwG << 8) | dwB;

  00378	8b 8d 34 ff ff
	ff		 mov	 ecx, DWORD PTR _dwG$21[ebp]
  0037e	c1 e1 08	 shl	 ecx, 8
  00381	8b 95 30 ff ff
	ff		 mov	 edx, DWORD PTR _dwR$20[ebp]
  00387	c1 e2 10	 shl	 edx, 16			; 00000010H
  0038a	8b b5 2c ff ff
	ff		 mov	 esi, DWORD PTR _dwA$19[ebp]
  00390	c1 e6 18	 shl	 esi, 24			; 00000018H
  00393	0b f2		 or	 esi, edx
  00395	0b f1		 or	 esi, ecx
  00397	0b b5 28 ff ff
	ff		 or	 esi, DWORD PTR _dwB$18[ebp]
; File D:\Metin2 Server Files\mainline\SRC_2014\Metin2Client\EterLib\GrpMarkInstance.cpp

; 85   : 	vertices[0].diffuse		= m_DiffuseColor;

  0039d	89 74 05 20	 mov	 DWORD PTR _vertices$[ebp+eax+12], esi

; 86   : 
; 87   : 	vertices[1].position.x	= m_v2Position.x + fRenderWidth -0.5f;

  003a1	8b 45 00	 mov	 eax, DWORD PTR _this$[ebp]
  003a4	f3 0f 10 40 14	 movss	 xmm0, DWORD PTR [eax+20]
  003a9	f3 0f 58 85 70
	ff ff ff	 addss	 xmm0, DWORD PTR _fRenderWidth$[ebp]
  003b1	f3 0f 5c 05 00
	00 00 00	 subss	 xmm0, DWORD PTR __real@3f000000
  003b9	6a 18		 push	 24			; 00000018H
  003bb	58		 pop	 eax
  003bc	c1 e0 00	 shl	 eax, 0
  003bf	f3 0f 11 44 05
	14		 movss	 DWORD PTR _vertices$[ebp+eax], xmm0

; 88   : 	vertices[1].position.y	= m_v2Position.y-0.5f;

  003c5	8b 45 00	 mov	 eax, DWORD PTR _this$[ebp]
  003c8	f3 0f 10 40 18	 movss	 xmm0, DWORD PTR [eax+24]
  003cd	f3 0f 5c 05 00
	00 00 00	 subss	 xmm0, DWORD PTR __real@3f000000
  003d5	6a 18		 push	 24			; 00000018H
  003d7	58		 pop	 eax
  003d8	c1 e0 00	 shl	 eax, 0
  003db	f3 0f 11 44 05
	18		 movss	 DWORD PTR _vertices$[ebp+eax+4], xmm0

; 89   : 	vertices[1].position.z	= 0.0f;

  003e1	6a 18		 push	 24			; 00000018H
  003e3	58		 pop	 eax
  003e4	c1 e0 00	 shl	 eax, 0
  003e7	0f 57 c0	 xorps	 xmm0, xmm0
  003ea	f3 0f 11 44 05
	1c		 movss	 DWORD PTR _vertices$[ebp+eax+8], xmm0
; File D:\Metin2 Server Files\mainline\SRC_2014\M2Data\include\d3dx8math.inl

; 41   :     x = fx;

  003f0	f3 0f 10 85 68
	ff ff ff	 movss	 xmm0, DWORD PTR _eu$[ebp]
  003f8	f3 0f 11 85 e4
	fe ff ff	 movss	 DWORD PTR $T4[ebp], xmm0

; 42   :     y = fy;

  00400	f3 0f 10 45 b8	 movss	 xmm0, DWORD PTR _sv$[ebp]
  00405	f3 0f 11 85 e8
	fe ff ff	 movss	 DWORD PTR $T4[ebp+4], xmm0
; File D:\Metin2 Server Files\mainline\SRC_2014\Metin2Client\EterLib\GrpMarkInstance.cpp

; 90   : 	vertices[1].texCoord	= TTextureCoordinate(eu, sv);

  0040d	8b 85 e4 fe ff
	ff		 mov	 eax, DWORD PTR $T4[ebp]
  00413	8b 8d e8 fe ff
	ff		 mov	 ecx, DWORD PTR $T4[ebp+4]
  00419	6a 18		 push	 24			; 00000018H
  0041b	5a		 pop	 edx
  0041c	c1 e2 00	 shl	 edx, 0
  0041f	89 44 15 24	 mov	 DWORD PTR _vertices$[ebp+edx+16], eax
  00423	89 4c 15 28	 mov	 DWORD PTR _vertices$[ebp+edx+20], ecx

; 91   : 	vertices[1].diffuse		= m_DiffuseColor;

  00427	8b 45 00	 mov	 eax, DWORD PTR _this$[ebp]
  0042a	83 c0 04	 add	 eax, 4
  0042d	89 45 f8	 mov	 DWORD PTR _this$[ebp], eax
; File D:\Metin2 Server Files\mainline\SRC_2014\M2Data\include\d3dx8math.inl

; 931  :     DWORD dwR = r >= 1.0f ? 0xff : r <= 0.0f ? 0x00 : (DWORD) (r * 255.0f + 0.5f);

  00430	8b 45 f8	 mov	 eax, DWORD PTR _this$[ebp]
  00433	f3 0f 10 00	 movss	 xmm0, DWORD PTR [eax]
  00437	0f 2f 05 00 00
	00 00		 comiss	 xmm0, DWORD PTR __real@3f800000
  0043e	72 09		 jb	 SHORT $LN43@OnRender
  00440	c7 45 b0 ff 00
	00 00		 mov	 DWORD PTR tv443[ebp], 255 ; 000000ffH
  00447	eb 36		 jmp	 SHORT $LN44@OnRender
$LN43@OnRender:
  00449	8b 45 f8	 mov	 eax, DWORD PTR _this$[ebp]
  0044c	0f 57 c0	 xorps	 xmm0, xmm0
  0044f	0f 2f 00	 comiss	 xmm0, DWORD PTR [eax]
  00452	72 06		 jb	 SHORT $LN41@OnRender
  00454	83 65 b4 00	 and	 DWORD PTR tv442[ebp], 0
  00458	eb 1f		 jmp	 SHORT $LN42@OnRender
$LN41@OnRender:
  0045a	8b 45 f8	 mov	 eax, DWORD PTR _this$[ebp]
  0045d	f3 0f 10 00	 movss	 xmm0, DWORD PTR [eax]
  00461	f3 0f 59 05 00
	00 00 00	 mulss	 xmm0, DWORD PTR __real@437f0000
  00469	f3 0f 58 05 00
	00 00 00	 addss	 xmm0, DWORD PTR __real@3f000000
  00471	e8 00 00 00 00	 call	 __ftoui3
  00476	89 45 b4	 mov	 DWORD PTR tv442[ebp], eax
$LN42@OnRender:
  00479	8b 45 b4	 mov	 eax, DWORD PTR tv442[ebp]
  0047c	89 45 b0	 mov	 DWORD PTR tv443[ebp], eax
$LN44@OnRender:
  0047f	8b 45 b0	 mov	 eax, DWORD PTR tv443[ebp]
  00482	89 85 20 ff ff
	ff		 mov	 DWORD PTR _dwR$17[ebp], eax

; 932  :     DWORD dwG = g >= 1.0f ? 0xff : g <= 0.0f ? 0x00 : (DWORD) (g * 255.0f + 0.5f);

  00488	8b 45 f8	 mov	 eax, DWORD PTR _this$[ebp]
  0048b	f3 0f 10 40 04	 movss	 xmm0, DWORD PTR [eax+4]
  00490	0f 2f 05 00 00
	00 00		 comiss	 xmm0, DWORD PTR __real@3f800000
  00497	72 09		 jb	 SHORT $LN47@OnRender
  00499	c7 45 a8 ff 00
	00 00		 mov	 DWORD PTR tv454[ebp], 255 ; 000000ffH
  004a0	eb 38		 jmp	 SHORT $LN48@OnRender
$LN47@OnRender:
  004a2	8b 45 f8	 mov	 eax, DWORD PTR _this$[ebp]
  004a5	0f 57 c0	 xorps	 xmm0, xmm0
  004a8	0f 2f 40 04	 comiss	 xmm0, DWORD PTR [eax+4]
  004ac	72 06		 jb	 SHORT $LN45@OnRender
  004ae	83 65 ac 00	 and	 DWORD PTR tv453[ebp], 0
  004b2	eb 20		 jmp	 SHORT $LN46@OnRender
$LN45@OnRender:
  004b4	8b 45 f8	 mov	 eax, DWORD PTR _this$[ebp]
  004b7	f3 0f 10 40 04	 movss	 xmm0, DWORD PTR [eax+4]
  004bc	f3 0f 59 05 00
	00 00 00	 mulss	 xmm0, DWORD PTR __real@437f0000
  004c4	f3 0f 58 05 00
	00 00 00	 addss	 xmm0, DWORD PTR __real@3f000000
  004cc	e8 00 00 00 00	 call	 __ftoui3
  004d1	89 45 ac	 mov	 DWORD PTR tv453[ebp], eax
$LN46@OnRender:
  004d4	8b 45 ac	 mov	 eax, DWORD PTR tv453[ebp]
  004d7	89 45 a8	 mov	 DWORD PTR tv454[ebp], eax
$LN48@OnRender:
  004da	8b 45 a8	 mov	 eax, DWORD PTR tv454[ebp]
  004dd	89 85 00 ff ff
	ff		 mov	 DWORD PTR _dwG$9[ebp], eax

; 933  :     DWORD dwB = b >= 1.0f ? 0xff : b <= 0.0f ? 0x00 : (DWORD) (b * 255.0f + 0.5f);

  004e3	8b 45 f8	 mov	 eax, DWORD PTR _this$[ebp]
  004e6	f3 0f 10 40 08	 movss	 xmm0, DWORD PTR [eax+8]
  004eb	0f 2f 05 00 00
	00 00		 comiss	 xmm0, DWORD PTR __real@3f800000
  004f2	72 09		 jb	 SHORT $LN51@OnRender
  004f4	c7 45 a0 ff 00
	00 00		 mov	 DWORD PTR tv465[ebp], 255 ; 000000ffH
  004fb	eb 38		 jmp	 SHORT $LN52@OnRender
$LN51@OnRender:
  004fd	8b 45 f8	 mov	 eax, DWORD PTR _this$[ebp]
  00500	0f 57 c0	 xorps	 xmm0, xmm0
  00503	0f 2f 40 08	 comiss	 xmm0, DWORD PTR [eax+8]
  00507	72 06		 jb	 SHORT $LN49@OnRender
  00509	83 65 a4 00	 and	 DWORD PTR tv464[ebp], 0
  0050d	eb 20		 jmp	 SHORT $LN50@OnRender
$LN49@OnRender:
  0050f	8b 45 f8	 mov	 eax, DWORD PTR _this$[ebp]
  00512	f3 0f 10 40 08	 movss	 xmm0, DWORD PTR [eax+8]
  00517	f3 0f 59 05 00
	00 00 00	 mulss	 xmm0, DWORD PTR __real@437f0000
  0051f	f3 0f 58 05 00
	00 00 00	 addss	 xmm0, DWORD PTR __real@3f000000
  00527	e8 00 00 00 00	 call	 __ftoui3
  0052c	89 45 a4	 mov	 DWORD PTR tv464[ebp], eax
$LN50@OnRender:
  0052f	8b 45 a4	 mov	 eax, DWORD PTR tv464[ebp]
  00532	89 45 a0	 mov	 DWORD PTR tv465[ebp], eax
$LN52@OnRender:
  00535	8b 45 a0	 mov	 eax, DWORD PTR tv465[ebp]
  00538	89 85 18 ff ff
	ff		 mov	 DWORD PTR _dwB$15[ebp], eax

; 934  :     DWORD dwA = a >= 1.0f ? 0xff : a <= 0.0f ? 0x00 : (DWORD) (a * 255.0f + 0.5f);

  0053e	8b 45 f8	 mov	 eax, DWORD PTR _this$[ebp]
  00541	f3 0f 10 40 0c	 movss	 xmm0, DWORD PTR [eax+12]
  00546	0f 2f 05 00 00
	00 00		 comiss	 xmm0, DWORD PTR __real@3f800000
  0054d	72 09		 jb	 SHORT $LN55@OnRender
  0054f	c7 45 98 ff 00
	00 00		 mov	 DWORD PTR tv476[ebp], 255 ; 000000ffH
  00556	eb 38		 jmp	 SHORT $LN56@OnRender
$LN55@OnRender:
  00558	8b 45 f8	 mov	 eax, DWORD PTR _this$[ebp]
  0055b	0f 57 c0	 xorps	 xmm0, xmm0
  0055e	0f 2f 40 0c	 comiss	 xmm0, DWORD PTR [eax+12]
  00562	72 06		 jb	 SHORT $LN53@OnRender
  00564	83 65 9c 00	 and	 DWORD PTR tv475[ebp], 0
  00568	eb 20		 jmp	 SHORT $LN54@OnRender
$LN53@OnRender:
  0056a	8b 45 f8	 mov	 eax, DWORD PTR _this$[ebp]
  0056d	f3 0f 10 40 0c	 movss	 xmm0, DWORD PTR [eax+12]
  00572	f3 0f 59 05 00
	00 00 00	 mulss	 xmm0, DWORD PTR __real@437f0000
  0057a	f3 0f 58 05 00
	00 00 00	 addss	 xmm0, DWORD PTR __real@3f000000
  00582	e8 00 00 00 00	 call	 __ftoui3
  00587	89 45 9c	 mov	 DWORD PTR tv475[ebp], eax
$LN54@OnRender:
  0058a	8b 45 9c	 mov	 eax, DWORD PTR tv475[ebp]
  0058d	89 45 98	 mov	 DWORD PTR tv476[ebp], eax
$LN56@OnRender:
  00590	8b 45 98	 mov	 eax, DWORD PTR tv476[ebp]
  00593	89 85 1c ff ff
	ff		 mov	 DWORD PTR _dwA$16[ebp], eax
; File D:\Metin2 Server Files\mainline\SRC_2014\Metin2Client\EterLib\GrpMarkInstance.cpp

; 91   : 	vertices[1].diffuse		= m_DiffuseColor;

  00599	6a 18		 push	 24			; 00000018H
  0059b	58		 pop	 eax
  0059c	c1 e0 00	 shl	 eax, 0
; File D:\Metin2 Server Files\mainline\SRC_2014\M2Data\include\d3dx8math.inl

; 936  :     return (dwA << 24) | (dwR << 16) | (dwG << 8) | dwB;

  0059f	8b 8d 00 ff ff
	ff		 mov	 ecx, DWORD PTR _dwG$9[ebp]
  005a5	c1 e1 08	 shl	 ecx, 8
  005a8	8b 95 20 ff ff
	ff		 mov	 edx, DWORD PTR _dwR$17[ebp]
  005ae	c1 e2 10	 shl	 edx, 16			; 00000010H
  005b1	8b b5 1c ff ff
	ff		 mov	 esi, DWORD PTR _dwA$16[ebp]
  005b7	c1 e6 18	 shl	 esi, 24			; 00000018H
  005ba	0b f2		 or	 esi, edx
  005bc	0b f1		 or	 esi, ecx
  005be	0b b5 18 ff ff
	ff		 or	 esi, DWORD PTR _dwB$15[ebp]
; File D:\Metin2 Server Files\mainline\SRC_2014\Metin2Client\EterLib\GrpMarkInstance.cpp

; 91   : 	vertices[1].diffuse		= m_DiffuseColor;

  005c4	89 74 05 20	 mov	 DWORD PTR _vertices$[ebp+eax+12], esi

; 92   : 
; 93   : 	vertices[2].position.x	= m_v2Position.x-0.5f;

  005c8	8b 45 00	 mov	 eax, DWORD PTR _this$[ebp]
  005cb	f3 0f 10 40 14	 movss	 xmm0, DWORD PTR [eax+20]
  005d0	f3 0f 5c 05 00
	00 00 00	 subss	 xmm0, DWORD PTR __real@3f000000
  005d8	6a 18		 push	 24			; 00000018H
  005da	58		 pop	 eax
  005db	d1 e0		 shl	 eax, 1
  005dd	f3 0f 11 44 05
	14		 movss	 DWORD PTR _vertices$[ebp+eax], xmm0

; 94   : 	vertices[2].position.y	= m_v2Position.y + fRenderHeight -0.5f;

  005e3	8b 45 00	 mov	 eax, DWORD PTR _this$[ebp]
  005e6	f3 0f 10 40 18	 movss	 xmm0, DWORD PTR [eax+24]
  005eb	f3 0f 58 85 6c
	ff ff ff	 addss	 xmm0, DWORD PTR _fRenderHeight$[ebp]
  005f3	f3 0f 5c 05 00
	00 00 00	 subss	 xmm0, DWORD PTR __real@3f000000
  005fb	6a 18		 push	 24			; 00000018H
  005fd	58		 pop	 eax
  005fe	d1 e0		 shl	 eax, 1
  00600	f3 0f 11 44 05
	18		 movss	 DWORD PTR _vertices$[ebp+eax+4], xmm0

; 95   : 	vertices[2].position.z	= 0.0f;

  00606	6a 18		 push	 24			; 00000018H
  00608	58		 pop	 eax
  00609	d1 e0		 shl	 eax, 1
  0060b	0f 57 c0	 xorps	 xmm0, xmm0
  0060e	f3 0f 11 44 05
	1c		 movss	 DWORD PTR _vertices$[ebp+eax+8], xmm0
; File D:\Metin2 Server Files\mainline\SRC_2014\M2Data\include\d3dx8math.inl

; 41   :     x = fx;

  00614	f3 0f 10 45 94	 movss	 xmm0, DWORD PTR _su$[ebp]
  00619	f3 0f 11 85 dc
	fe ff ff	 movss	 DWORD PTR $T3[ebp], xmm0

; 42   :     y = fy;

  00621	f3 0f 10 85 64
	ff ff ff	 movss	 xmm0, DWORD PTR _ev$[ebp]
  00629	f3 0f 11 85 e0
	fe ff ff	 movss	 DWORD PTR $T3[ebp+4], xmm0
; File D:\Metin2 Server Files\mainline\SRC_2014\Metin2Client\EterLib\GrpMarkInstance.cpp

; 96   : 	vertices[2].texCoord	= TTextureCoordinate(su, ev);

  00631	8b 85 dc fe ff
	ff		 mov	 eax, DWORD PTR $T3[ebp]
  00637	8b 8d e0 fe ff
	ff		 mov	 ecx, DWORD PTR $T3[ebp+4]
  0063d	6a 18		 push	 24			; 00000018H
  0063f	5a		 pop	 edx
  00640	d1 e2		 shl	 edx, 1
  00642	89 44 15 24	 mov	 DWORD PTR _vertices$[ebp+edx+16], eax
  00646	89 4c 15 28	 mov	 DWORD PTR _vertices$[ebp+edx+20], ecx

; 97   : 	vertices[2].diffuse		= m_DiffuseColor;

  0064a	8b 45 00	 mov	 eax, DWORD PTR _this$[ebp]
  0064d	83 c0 04	 add	 eax, 4
  00650	89 45 f4	 mov	 DWORD PTR _this$[ebp], eax
; File D:\Metin2 Server Files\mainline\SRC_2014\M2Data\include\d3dx8math.inl

; 931  :     DWORD dwR = r >= 1.0f ? 0xff : r <= 0.0f ? 0x00 : (DWORD) (r * 255.0f + 0.5f);

  00653	8b 45 f4	 mov	 eax, DWORD PTR _this$[ebp]
  00656	f3 0f 10 00	 movss	 xmm0, DWORD PTR [eax]
  0065a	0f 2f 05 00 00
	00 00		 comiss	 xmm0, DWORD PTR __real@3f800000
  00661	72 09		 jb	 SHORT $LN63@OnRender
  00663	c7 45 8c ff 00
	00 00		 mov	 DWORD PTR tv491[ebp], 255 ; 000000ffH
  0066a	eb 36		 jmp	 SHORT $LN64@OnRender
$LN63@OnRender:
  0066c	8b 45 f4	 mov	 eax, DWORD PTR _this$[ebp]
  0066f	0f 57 c0	 xorps	 xmm0, xmm0
  00672	0f 2f 00	 comiss	 xmm0, DWORD PTR [eax]
  00675	72 06		 jb	 SHORT $LN61@OnRender
  00677	83 65 90 00	 and	 DWORD PTR tv490[ebp], 0
  0067b	eb 1f		 jmp	 SHORT $LN62@OnRender
$LN61@OnRender:
  0067d	8b 45 f4	 mov	 eax, DWORD PTR _this$[ebp]
  00680	f3 0f 10 00	 movss	 xmm0, DWORD PTR [eax]
  00684	f3 0f 59 05 00
	00 00 00	 mulss	 xmm0, DWORD PTR __real@437f0000
  0068c	f3 0f 58 05 00
	00 00 00	 addss	 xmm0, DWORD PTR __real@3f000000
  00694	e8 00 00 00 00	 call	 __ftoui3
  00699	89 45 90	 mov	 DWORD PTR tv490[ebp], eax
$LN62@OnRender:
  0069c	8b 45 90	 mov	 eax, DWORD PTR tv490[ebp]
  0069f	89 45 8c	 mov	 DWORD PTR tv491[ebp], eax
$LN64@OnRender:
  006a2	8b 45 8c	 mov	 eax, DWORD PTR tv491[ebp]
  006a5	89 85 10 ff ff
	ff		 mov	 DWORD PTR _dwR$13[ebp], eax

; 932  :     DWORD dwG = g >= 1.0f ? 0xff : g <= 0.0f ? 0x00 : (DWORD) (g * 255.0f + 0.5f);

  006ab	8b 45 f4	 mov	 eax, DWORD PTR _this$[ebp]
  006ae	f3 0f 10 40 04	 movss	 xmm0, DWORD PTR [eax+4]
  006b3	0f 2f 05 00 00
	00 00		 comiss	 xmm0, DWORD PTR __real@3f800000
  006ba	72 09		 jb	 SHORT $LN67@OnRender
  006bc	c7 45 84 ff 00
	00 00		 mov	 DWORD PTR tv502[ebp], 255 ; 000000ffH
  006c3	eb 38		 jmp	 SHORT $LN68@OnRender
$LN67@OnRender:
  006c5	8b 45 f4	 mov	 eax, DWORD PTR _this$[ebp]
  006c8	0f 57 c0	 xorps	 xmm0, xmm0
  006cb	0f 2f 40 04	 comiss	 xmm0, DWORD PTR [eax+4]
  006cf	72 06		 jb	 SHORT $LN65@OnRender
  006d1	83 65 88 00	 and	 DWORD PTR tv501[ebp], 0
  006d5	eb 20		 jmp	 SHORT $LN66@OnRender
$LN65@OnRender:
  006d7	8b 45 f4	 mov	 eax, DWORD PTR _this$[ebp]
  006da	f3 0f 10 40 04	 movss	 xmm0, DWORD PTR [eax+4]
  006df	f3 0f 59 05 00
	00 00 00	 mulss	 xmm0, DWORD PTR __real@437f0000
  006e7	f3 0f 58 05 00
	00 00 00	 addss	 xmm0, DWORD PTR __real@3f000000
  006ef	e8 00 00 00 00	 call	 __ftoui3
  006f4	89 45 88	 mov	 DWORD PTR tv501[ebp], eax
$LN66@OnRender:
  006f7	8b 45 88	 mov	 eax, DWORD PTR tv501[ebp]
  006fa	89 45 84	 mov	 DWORD PTR tv502[ebp], eax
$LN68@OnRender:
  006fd	8b 45 84	 mov	 eax, DWORD PTR tv502[ebp]
  00700	89 85 14 ff ff
	ff		 mov	 DWORD PTR _dwG$14[ebp], eax

; 933  :     DWORD dwB = b >= 1.0f ? 0xff : b <= 0.0f ? 0x00 : (DWORD) (b * 255.0f + 0.5f);

  00706	8b 45 f4	 mov	 eax, DWORD PTR _this$[ebp]
  00709	f3 0f 10 40 08	 movss	 xmm0, DWORD PTR [eax+8]
  0070e	0f 2f 05 00 00
	00 00		 comiss	 xmm0, DWORD PTR __real@3f800000
  00715	72 0c		 jb	 SHORT $LN71@OnRender
  00717	c7 85 7c ff ff
	ff ff 00 00 00	 mov	 DWORD PTR tv513[ebp], 255 ; 000000ffH
  00721	eb 3b		 jmp	 SHORT $LN72@OnRender
$LN71@OnRender:
  00723	8b 45 f4	 mov	 eax, DWORD PTR _this$[ebp]
  00726	0f 57 c0	 xorps	 xmm0, xmm0
  00729	0f 2f 40 08	 comiss	 xmm0, DWORD PTR [eax+8]
  0072d	72 06		 jb	 SHORT $LN69@OnRender
  0072f	83 65 80 00	 and	 DWORD PTR tv512[ebp], 0
  00733	eb 20		 jmp	 SHORT $LN70@OnRender
$LN69@OnRender:
  00735	8b 45 f4	 mov	 eax, DWORD PTR _this$[ebp]
  00738	f3 0f 10 40 08	 movss	 xmm0, DWORD PTR [eax+8]
  0073d	f3 0f 59 05 00
	00 00 00	 mulss	 xmm0, DWORD PTR __real@437f0000
  00745	f3 0f 58 05 00
	00 00 00	 addss	 xmm0, DWORD PTR __real@3f000000
  0074d	e8 00 00 00 00	 call	 __ftoui3
  00752	89 45 80	 mov	 DWORD PTR tv512[ebp], eax
$LN70@OnRender:
  00755	8b 45 80	 mov	 eax, DWORD PTR tv512[ebp]
  00758	89 85 7c ff ff
	ff		 mov	 DWORD PTR tv513[ebp], eax
$LN72@OnRender:
  0075e	8b 85 7c ff ff
	ff		 mov	 eax, DWORD PTR tv513[ebp]
  00764	89 85 08 ff ff
	ff		 mov	 DWORD PTR _dwB$11[ebp], eax

; 934  :     DWORD dwA = a >= 1.0f ? 0xff : a <= 0.0f ? 0x00 : (DWORD) (a * 255.0f + 0.5f);

  0076a	8b 45 f4	 mov	 eax, DWORD PTR _this$[ebp]
  0076d	f3 0f 10 40 0c	 movss	 xmm0, DWORD PTR [eax+12]
  00772	0f 2f 05 00 00
	00 00		 comiss	 xmm0, DWORD PTR __real@3f800000
  00779	72 0c		 jb	 SHORT $LN75@OnRender
  0077b	c7 85 74 ff ff
	ff ff 00 00 00	 mov	 DWORD PTR tv524[ebp], 255 ; 000000ffH
  00785	eb 44		 jmp	 SHORT $LN76@OnRender
$LN75@OnRender:
  00787	8b 45 f4	 mov	 eax, DWORD PTR _this$[ebp]
  0078a	0f 57 c0	 xorps	 xmm0, xmm0
  0078d	0f 2f 40 0c	 comiss	 xmm0, DWORD PTR [eax+12]
  00791	72 09		 jb	 SHORT $LN73@OnRender
  00793	83 a5 78 ff ff
	ff 00		 and	 DWORD PTR tv523[ebp], 0
  0079a	eb 23		 jmp	 SHORT $LN74@OnRender
$LN73@OnRender:
  0079c	8b 45 f4	 mov	 eax, DWORD PTR _this$[ebp]
  0079f	f3 0f 10 40 0c	 movss	 xmm0, DWORD PTR [eax+12]
  007a4	f3 0f 59 05 00
	00 00 00	 mulss	 xmm0, DWORD PTR __real@437f0000
  007ac	f3 0f 58 05 00
	00 00 00	 addss	 xmm0, DWORD PTR __real@3f000000
  007b4	e8 00 00 00 00	 call	 __ftoui3
  007b9	89 85 78 ff ff
	ff		 mov	 DWORD PTR tv523[ebp], eax
$LN74@OnRender:
  007bf	8b 85 78 ff ff
	ff		 mov	 eax, DWORD PTR tv523[ebp]
  007c5	89 85 74 ff ff
	ff		 mov	 DWORD PTR tv524[ebp], eax
$LN76@OnRender:
  007cb	8b 85 74 ff ff
	ff		 mov	 eax, DWORD PTR tv524[ebp]
  007d1	89 85 0c ff ff
	ff		 mov	 DWORD PTR _dwA$12[ebp], eax
; File D:\Metin2 Server Files\mainline\SRC_2014\Metin2Client\EterLib\GrpMarkInstance.cpp

; 97   : 	vertices[2].diffuse		= m_DiffuseColor;

  007d7	6a 18		 push	 24			; 00000018H
  007d9	58		 pop	 eax
  007da	d1 e0		 shl	 eax, 1
; File D:\Metin2 Server Files\mainline\SRC_2014\M2Data\include\d3dx8math.inl

; 936  :     return (dwA << 24) | (dwR << 16) | (dwG << 8) | dwB;

  007dc	8b 8d 14 ff ff
	ff		 mov	 ecx, DWORD PTR _dwG$14[ebp]
  007e2	c1 e1 08	 shl	 ecx, 8
  007e5	8b 95 10 ff ff
	ff		 mov	 edx, DWORD PTR _dwR$13[ebp]
  007eb	c1 e2 10	 shl	 edx, 16			; 00000010H
  007ee	8b b5 0c ff ff
	ff		 mov	 esi, DWORD PTR _dwA$12[ebp]
  007f4	c1 e6 18	 shl	 esi, 24			; 00000018H
  007f7	0b f2		 or	 esi, edx
  007f9	0b f1		 or	 esi, ecx
  007fb	0b b5 08 ff ff
	ff		 or	 esi, DWORD PTR _dwB$11[ebp]
; File D:\Metin2 Server Files\mainline\SRC_2014\Metin2Client\EterLib\GrpMarkInstance.cpp

; 97   : 	vertices[2].diffuse		= m_DiffuseColor;

  00801	89 74 05 20	 mov	 DWORD PTR _vertices$[ebp+eax+12], esi

; 98   : 
; 99   : 	vertices[3].position.x	= m_v2Position.x + fRenderWidth -0.5f;

  00805	8b 45 00	 mov	 eax, DWORD PTR _this$[ebp]
  00808	f3 0f 10 40 14	 movss	 xmm0, DWORD PTR [eax+20]
  0080d	f3 0f 58 85 70
	ff ff ff	 addss	 xmm0, DWORD PTR _fRenderWidth$[ebp]
  00815	f3 0f 5c 05 00
	00 00 00	 subss	 xmm0, DWORD PTR __real@3f000000
  0081d	6a 18		 push	 24			; 00000018H
  0081f	58		 pop	 eax
  00820	6b c0 03	 imul	 eax, eax, 3
  00823	f3 0f 11 44 05
	14		 movss	 DWORD PTR _vertices$[ebp+eax], xmm0

; 100  : 	vertices[3].position.y	= m_v2Position.y + fRenderHeight -0.5f;

  00829	8b 45 00	 mov	 eax, DWORD PTR _this$[ebp]
  0082c	f3 0f 10 40 18	 movss	 xmm0, DWORD PTR [eax+24]
  00831	f3 0f 58 85 6c
	ff ff ff	 addss	 xmm0, DWORD PTR _fRenderHeight$[ebp]
  00839	f3 0f 5c 05 00
	00 00 00	 subss	 xmm0, DWORD PTR __real@3f000000
  00841	6a 18		 push	 24			; 00000018H
  00843	58		 pop	 eax
  00844	6b c0 03	 imul	 eax, eax, 3
  00847	f3 0f 11 44 05
	18		 movss	 DWORD PTR _vertices$[ebp+eax+4], xmm0

; 101  : 	vertices[3].position.z	= 0.0f;

  0084d	6a 18		 push	 24			; 00000018H
  0084f	58		 pop	 eax
  00850	6b c0 03	 imul	 eax, eax, 3
  00853	0f 57 c0	 xorps	 xmm0, xmm0
  00856	f3 0f 11 44 05
	1c		 movss	 DWORD PTR _vertices$[ebp+eax+8], xmm0
; File D:\Metin2 Server Files\mainline\SRC_2014\M2Data\include\d3dx8math.inl

; 41   :     x = fx;

  0085c	f3 0f 10 85 68
	ff ff ff	 movss	 xmm0, DWORD PTR _eu$[ebp]
  00864	f3 0f 11 85 d4
	fe ff ff	 movss	 DWORD PTR $T2[ebp], xmm0

; 42   :     y = fy;

  0086c	f3 0f 10 85 64
	ff ff ff	 movss	 xmm0, DWORD PTR _ev$[ebp]
  00874	f3 0f 11 85 d8
	fe ff ff	 movss	 DWORD PTR $T2[ebp+4], xmm0
; File D:\Metin2 Server Files\mainline\SRC_2014\Metin2Client\EterLib\GrpMarkInstance.cpp

; 102  : 	vertices[3].texCoord	= TTextureCoordinate(eu, ev);	

  0087c	8b 85 d4 fe ff
	ff		 mov	 eax, DWORD PTR $T2[ebp]
  00882	8b 8d d8 fe ff
	ff		 mov	 ecx, DWORD PTR $T2[ebp+4]
  00888	6a 18		 push	 24			; 00000018H
  0088a	5a		 pop	 edx
  0088b	6b d2 03	 imul	 edx, edx, 3
  0088e	89 44 15 24	 mov	 DWORD PTR _vertices$[ebp+edx+16], eax
  00892	89 4c 15 28	 mov	 DWORD PTR _vertices$[ebp+edx+20], ecx

; 103  : 	vertices[3].diffuse		= m_DiffuseColor;

  00896	8b 45 00	 mov	 eax, DWORD PTR _this$[ebp]
  00899	83 c0 04	 add	 eax, 4
  0089c	89 45 f0	 mov	 DWORD PTR _this$[ebp], eax
; File D:\Metin2 Server Files\mainline\SRC_2014\M2Data\include\d3dx8math.inl

; 931  :     DWORD dwR = r >= 1.0f ? 0xff : r <= 0.0f ? 0x00 : (DWORD) (r * 255.0f + 0.5f);

  0089f	8b 45 f0	 mov	 eax, DWORD PTR _this$[ebp]
  008a2	f3 0f 10 00	 movss	 xmm0, DWORD PTR [eax]
  008a6	0f 2f 05 00 00
	00 00		 comiss	 xmm0, DWORD PTR __real@3f800000
  008ad	72 0c		 jb	 SHORT $LN83@OnRender
  008af	c7 85 5c ff ff
	ff ff 00 00 00	 mov	 DWORD PTR tv539[ebp], 255 ; 000000ffH
  008b9	eb 42		 jmp	 SHORT $LN84@OnRender
$LN83@OnRender:
  008bb	8b 45 f0	 mov	 eax, DWORD PTR _this$[ebp]
  008be	0f 57 c0	 xorps	 xmm0, xmm0
  008c1	0f 2f 00	 comiss	 xmm0, DWORD PTR [eax]
  008c4	72 09		 jb	 SHORT $LN81@OnRender
  008c6	83 a5 60 ff ff
	ff 00		 and	 DWORD PTR tv538[ebp], 0
  008cd	eb 22		 jmp	 SHORT $LN82@OnRender
$LN81@OnRender:
  008cf	8b 45 f0	 mov	 eax, DWORD PTR _this$[ebp]
  008d2	f3 0f 10 00	 movss	 xmm0, DWORD PTR [eax]
  008d6	f3 0f 59 05 00
	00 00 00	 mulss	 xmm0, DWORD PTR __real@437f0000
  008de	f3 0f 58 05 00
	00 00 00	 addss	 xmm0, DWORD PTR __real@3f000000
  008e6	e8 00 00 00 00	 call	 __ftoui3
  008eb	89 85 60 ff ff
	ff		 mov	 DWORD PTR tv538[ebp], eax
$LN82@OnRender:
  008f1	8b 85 60 ff ff
	ff		 mov	 eax, DWORD PTR tv538[ebp]
  008f7	89 85 5c ff ff
	ff		 mov	 DWORD PTR tv539[ebp], eax
$LN84@OnRender:
  008fd	8b 85 5c ff ff
	ff		 mov	 eax, DWORD PTR tv539[ebp]
  00903	89 85 cc fe ff
	ff		 mov	 DWORD PTR _dwR$1[ebp], eax

; 932  :     DWORD dwG = g >= 1.0f ? 0xff : g <= 0.0f ? 0x00 : (DWORD) (g * 255.0f + 0.5f);

  00909	8b 45 f0	 mov	 eax, DWORD PTR _this$[ebp]
  0090c	f3 0f 10 40 04	 movss	 xmm0, DWORD PTR [eax+4]
  00911	0f 2f 05 00 00
	00 00		 comiss	 xmm0, DWORD PTR __real@3f800000
  00918	72 0c		 jb	 SHORT $LN87@OnRender
  0091a	c7 85 54 ff ff
	ff ff 00 00 00	 mov	 DWORD PTR tv550[ebp], 255 ; 000000ffH
  00924	eb 44		 jmp	 SHORT $LN88@OnRender
$LN87@OnRender:
  00926	8b 45 f0	 mov	 eax, DWORD PTR _this$[ebp]
  00929	0f 57 c0	 xorps	 xmm0, xmm0
  0092c	0f 2f 40 04	 comiss	 xmm0, DWORD PTR [eax+4]
  00930	72 09		 jb	 SHORT $LN85@OnRender
  00932	83 a5 58 ff ff
	ff 00		 and	 DWORD PTR tv549[ebp], 0
  00939	eb 23		 jmp	 SHORT $LN86@OnRender
$LN85@OnRender:
  0093b	8b 45 f0	 mov	 eax, DWORD PTR _this$[ebp]
  0093e	f3 0f 10 40 04	 movss	 xmm0, DWORD PTR [eax+4]
  00943	f3 0f 59 05 00
	00 00 00	 mulss	 xmm0, DWORD PTR __real@437f0000
  0094b	f3 0f 58 05 00
	00 00 00	 addss	 xmm0, DWORD PTR __real@3f000000
  00953	e8 00 00 00 00	 call	 __ftoui3
  00958	89 85 58 ff ff
	ff		 mov	 DWORD PTR tv549[ebp], eax
$LN86@OnRender:
  0095e	8b 85 58 ff ff
	ff		 mov	 eax, DWORD PTR tv549[ebp]
  00964	89 85 54 ff ff
	ff		 mov	 DWORD PTR tv550[ebp], eax
$LN88@OnRender:
  0096a	8b 85 54 ff ff
	ff		 mov	 eax, DWORD PTR tv550[ebp]
  00970	89 85 04 ff ff
	ff		 mov	 DWORD PTR _dwG$10[ebp], eax

; 933  :     DWORD dwB = b >= 1.0f ? 0xff : b <= 0.0f ? 0x00 : (DWORD) (b * 255.0f + 0.5f);

  00976	8b 45 f0	 mov	 eax, DWORD PTR _this$[ebp]
  00979	f3 0f 10 40 08	 movss	 xmm0, DWORD PTR [eax+8]
  0097e	0f 2f 05 00 00
	00 00		 comiss	 xmm0, DWORD PTR __real@3f800000
  00985	72 0c		 jb	 SHORT $LN91@OnRender
  00987	c7 85 4c ff ff
	ff ff 00 00 00	 mov	 DWORD PTR tv561[ebp], 255 ; 000000ffH
  00991	eb 44		 jmp	 SHORT $LN92@OnRender
$LN91@OnRender:
  00993	8b 45 f0	 mov	 eax, DWORD PTR _this$[ebp]
  00996	0f 57 c0	 xorps	 xmm0, xmm0
  00999	0f 2f 40 08	 comiss	 xmm0, DWORD PTR [eax+8]
  0099d	72 09		 jb	 SHORT $LN89@OnRender
  0099f	83 a5 50 ff ff
	ff 00		 and	 DWORD PTR tv560[ebp], 0
  009a6	eb 23		 jmp	 SHORT $LN90@OnRender
$LN89@OnRender:
  009a8	8b 45 f0	 mov	 eax, DWORD PTR _this$[ebp]
  009ab	f3 0f 10 40 08	 movss	 xmm0, DWORD PTR [eax+8]
  009b0	f3 0f 59 05 00
	00 00 00	 mulss	 xmm0, DWORD PTR __real@437f0000
  009b8	f3 0f 58 05 00
	00 00 00	 addss	 xmm0, DWORD PTR __real@3f000000
  009c0	e8 00 00 00 00	 call	 __ftoui3
  009c5	89 85 50 ff ff
	ff		 mov	 DWORD PTR tv560[ebp], eax
$LN90@OnRender:
  009cb	8b 85 50 ff ff
	ff		 mov	 eax, DWORD PTR tv560[ebp]
  009d1	89 85 4c ff ff
	ff		 mov	 DWORD PTR tv561[ebp], eax
$LN92@OnRender:
  009d7	8b 85 4c ff ff
	ff		 mov	 eax, DWORD PTR tv561[ebp]
  009dd	89 85 f8 fe ff
	ff		 mov	 DWORD PTR _dwB$7[ebp], eax

; 934  :     DWORD dwA = a >= 1.0f ? 0xff : a <= 0.0f ? 0x00 : (DWORD) (a * 255.0f + 0.5f);

  009e3	8b 45 f0	 mov	 eax, DWORD PTR _this$[ebp]
  009e6	f3 0f 10 40 0c	 movss	 xmm0, DWORD PTR [eax+12]
  009eb	0f 2f 05 00 00
	00 00		 comiss	 xmm0, DWORD PTR __real@3f800000
  009f2	72 0c		 jb	 SHORT $LN95@OnRender
  009f4	c7 85 44 ff ff
	ff ff 00 00 00	 mov	 DWORD PTR tv572[ebp], 255 ; 000000ffH
  009fe	eb 44		 jmp	 SHORT $LN96@OnRender
$LN95@OnRender:
  00a00	8b 45 f0	 mov	 eax, DWORD PTR _this$[ebp]
  00a03	0f 57 c0	 xorps	 xmm0, xmm0
  00a06	0f 2f 40 0c	 comiss	 xmm0, DWORD PTR [eax+12]
  00a0a	72 09		 jb	 SHORT $LN93@OnRender
  00a0c	83 a5 48 ff ff
	ff 00		 and	 DWORD PTR tv571[ebp], 0
  00a13	eb 23		 jmp	 SHORT $LN94@OnRender
$LN93@OnRender:
  00a15	8b 45 f0	 mov	 eax, DWORD PTR _this$[ebp]
  00a18	f3 0f 10 40 0c	 movss	 xmm0, DWORD PTR [eax+12]
  00a1d	f3 0f 59 05 00
	00 00 00	 mulss	 xmm0, DWORD PTR __real@437f0000
  00a25	f3 0f 58 05 00
	00 00 00	 addss	 xmm0, DWORD PTR __real@3f000000
  00a2d	e8 00 00 00 00	 call	 __ftoui3
  00a32	89 85 48 ff ff
	ff		 mov	 DWORD PTR tv571[ebp], eax
$LN94@OnRender:
  00a38	8b 85 48 ff ff
	ff		 mov	 eax, DWORD PTR tv571[ebp]
  00a3e	89 85 44 ff ff
	ff		 mov	 DWORD PTR tv572[ebp], eax
$LN96@OnRender:
  00a44	8b 85 44 ff ff
	ff		 mov	 eax, DWORD PTR tv572[ebp]
  00a4a	89 85 fc fe ff
	ff		 mov	 DWORD PTR _dwA$8[ebp], eax
; File D:\Metin2 Server Files\mainline\SRC_2014\Metin2Client\EterLib\GrpMarkInstance.cpp

; 103  : 	vertices[3].diffuse		= m_DiffuseColor;

  00a50	6a 18		 push	 24			; 00000018H
  00a52	58		 pop	 eax
  00a53	6b c0 03	 imul	 eax, eax, 3
; File D:\Metin2 Server Files\mainline\SRC_2014\M2Data\include\d3dx8math.inl

; 936  :     return (dwA << 24) | (dwR << 16) | (dwG << 8) | dwB;

  00a56	8b 8d 04 ff ff
	ff		 mov	 ecx, DWORD PTR _dwG$10[ebp]
  00a5c	c1 e1 08	 shl	 ecx, 8
  00a5f	8b 95 cc fe ff
	ff		 mov	 edx, DWORD PTR _dwR$1[ebp]
  00a65	c1 e2 10	 shl	 edx, 16			; 00000010H
  00a68	8b b5 fc fe ff
	ff		 mov	 esi, DWORD PTR _dwA$8[ebp]
  00a6e	c1 e6 18	 shl	 esi, 24			; 00000018H
  00a71	0b f2		 or	 esi, edx
  00a73	0b f1		 or	 esi, ecx
  00a75	0b b5 f8 fe ff
	ff		 or	 esi, DWORD PTR _dwB$7[ebp]
; File D:\Metin2 Server Files\mainline\SRC_2014\Metin2Client\EterLib\GrpMarkInstance.cpp

; 103  : 	vertices[3].diffuse		= m_DiffuseColor;

  00a7b	89 74 05 20	 mov	 DWORD PTR _vertices$[ebp+eax+12], esi

; 104  : 
; 105  : 	if (CGraphicBase::SetPDTStream(vertices, 4))

  00a7f	6a 04		 push	 4
  00a81	8d 45 14	 lea	 eax, DWORD PTR _vertices$[ebp]
  00a84	50		 push	 eax
  00a85	e8 00 00 00 00	 call	 ?SetPDTStream@CGraphicBase@@SA_NPAUSPDTVertex@@I@Z ; CGraphicBase::SetPDTStream
  00a8a	59		 pop	 ecx
  00a8b	59		 pop	 ecx
  00a8c	0f b6 c0	 movzx	 eax, al
  00a8f	85 c0		 test	 eax, eax
  00a91	74 5d		 je	 SHORT $LN3@OnRender

; 106  : 	{
; 107  : 		CGraphicBase::SetDefaultIndexBuffer(CGraphicBase::DEFAULT_IB_FILL_RECT);

  00a93	6a 05		 push	 5
  00a95	e8 00 00 00 00	 call	 ?SetDefaultIndexBuffer@CGraphicBase@@SAXI@Z ; CGraphicBase::SetDefaultIndexBuffer
  00a9a	59		 pop	 ecx
; File D:\Metin2 Server Files\mainline\SRC_2014\Metin2Client\eterBase\Singleton.h

; 27   : 		return (*ms_singleton);

  00a9b	a1 00 00 00 00	 mov	 eax, DWORD PTR ?ms_singleton@?$CSingleton@VCStateManager@@@@0PAVCStateManager@@A ; CSingleton<CStateManager>::ms_singleton
  00aa0	89 85 f4 fe ff
	ff		 mov	 DWORD PTR $T6[ebp], eax
; File D:\Metin2 Server Files\mainline\SRC_2014\Metin2Client\EterLib\GrpMarkInstance.cpp

; 109  : 		STATEMANAGER.SetTexture(0, pTexture->GetD3DTexture());

  00aa6	8b 4d e4	 mov	 ecx, DWORD PTR _pTexture$[ebp]
  00aa9	e8 00 00 00 00	 call	 ?GetD3DTexture@CGraphicTexture@@QBEPAUIDirect3DTexture8@@XZ ; CGraphicTexture::GetD3DTexture
  00aae	50		 push	 eax
  00aaf	6a 00		 push	 0
  00ab1	8b 8d f4 fe ff
	ff		 mov	 ecx, DWORD PTR $T6[ebp]
  00ab7	e8 00 00 00 00	 call	 ?SetTexture@CStateManager@@QAEXKPAUIDirect3DBaseTexture8@@@Z ; CStateManager::SetTexture

; 110  : 		STATEMANAGER.SetTexture(1, NULL);

  00abc	6a 00		 push	 0
  00abe	6a 01		 push	 1
  00ac0	8b 0d 00 00 00
	00		 mov	 ecx, DWORD PTR ?ms_singleton@?$CSingleton@VCStateManager@@@@0PAVCStateManager@@A ; CSingleton<CStateManager>::ms_singleton
  00ac6	e8 00 00 00 00	 call	 ?SetTexture@CStateManager@@QAEXKPAUIDirect3DBaseTexture8@@@Z ; CStateManager::SetTexture

; 111  : 		STATEMANAGER.SetVertexShader(D3DFVF_XYZ|D3DFVF_DIFFUSE|D3DFVF_TEX1);

  00acb	68 42 01 00 00	 push	 322			; 00000142H
  00ad0	8b 0d 00 00 00
	00		 mov	 ecx, DWORD PTR ?ms_singleton@?$CSingleton@VCStateManager@@@@0PAVCStateManager@@A ; CSingleton<CStateManager>::ms_singleton
  00ad6	e8 00 00 00 00	 call	 ?SetVertexShader@CStateManager@@QAEXK@Z ; CStateManager::SetVertexShader

; 112  : 		STATEMANAGER.DrawIndexedPrimitive(D3DPT_TRIANGLELIST, 0, 4, 0, 2);

  00adb	6a 02		 push	 2
  00add	6a 00		 push	 0
  00adf	6a 04		 push	 4
  00ae1	6a 00		 push	 0
  00ae3	6a 04		 push	 4
  00ae5	8b 0d 00 00 00
	00		 mov	 ecx, DWORD PTR ?ms_singleton@?$CSingleton@VCStateManager@@@@0PAVCStateManager@@A ; CSingleton<CStateManager>::ms_singleton
  00aeb	e8 00 00 00 00	 call	 ?DrawIndexedPrimitive@CStateManager@@QAEJW4_D3DPRIMITIVETYPE@@IIII@Z ; CStateManager::DrawIndexedPrimitive
$LN3@OnRender:
$LN1@OnRender:

; 113  : 		//OLD: STATEMANAGER.DrawIndexedPrimitiveUP(D3DPT_TRIANGLELIST, 0, 4, 2, c_FillRectIndices, D3DFMT_INDEX16, vertices, sizeof(TPDTVertex));
; 114  : 	}
; 115  : }

  00af0	5e		 pop	 esi
  00af1	8b 4d 74	 mov	 ecx, DWORD PTR __$ArrayPad$[ebp]
  00af4	33 cd		 xor	 ecx, ebp
  00af6	e8 00 00 00 00	 call	 @__security_check_cookie@4
  00afb	83 c5 78	 add	 ebp, 120		; 00000078H
  00afe	c9		 leave
  00aff	c3		 ret	 0
?OnRender@CGraphicMarkInstance@@MAEXXZ ENDP		; CGraphicMarkInstance::OnRender
_TEXT	ENDS
; Function compile flags: /Odspy
; File D:\Metin2 Server Files\mainline\SRC_2014\Metin2Client\EterLib\GrpMarkInstance.cpp
;	COMDAT ?Initialize@CGraphicMarkInstance@@IAEXXZ
_TEXT	SEGMENT
_this$ = -4						; size = 4
?Initialize@CGraphicMarkInstance@@IAEXXZ PROC		; CGraphicMarkInstance::Initialize, COMDAT
; _this$ = ecx

; 235  : {

  00000	55		 push	 ebp
  00001	8b ec		 mov	 ebp, esp
  00003	51		 push	 ecx
  00004	89 4d fc	 mov	 DWORD PTR _this$[ebp], ecx

; 236  : 	m_DiffuseColor.r = m_DiffuseColor.g = m_DiffuseColor.b = m_DiffuseColor.a = 1.0f;

  00007	8b 45 fc	 mov	 eax, DWORD PTR _this$[ebp]
  0000a	f3 0f 10 05 00
	00 00 00	 movss	 xmm0, DWORD PTR __real@3f800000
  00012	f3 0f 11 40 10	 movss	 DWORD PTR [eax+16], xmm0
  00017	8b 45 fc	 mov	 eax, DWORD PTR _this$[ebp]
  0001a	f3 0f 10 05 00
	00 00 00	 movss	 xmm0, DWORD PTR __real@3f800000
  00022	f3 0f 11 40 0c	 movss	 DWORD PTR [eax+12], xmm0
  00027	8b 45 fc	 mov	 eax, DWORD PTR _this$[ebp]
  0002a	f3 0f 10 05 00
	00 00 00	 movss	 xmm0, DWORD PTR __real@3f800000
  00032	f3 0f 11 40 08	 movss	 DWORD PTR [eax+8], xmm0
  00037	8b 45 fc	 mov	 eax, DWORD PTR _this$[ebp]
  0003a	f3 0f 10 05 00
	00 00 00	 movss	 xmm0, DWORD PTR __real@3f800000
  00042	f3 0f 11 40 04	 movss	 DWORD PTR [eax+4], xmm0

; 237  : 	m_v2Position.x = m_v2Position.y = 0.0f;

  00047	8b 45 fc	 mov	 eax, DWORD PTR _this$[ebp]
  0004a	0f 57 c0	 xorps	 xmm0, xmm0
  0004d	f3 0f 11 40 18	 movss	 DWORD PTR [eax+24], xmm0
  00052	8b 45 fc	 mov	 eax, DWORD PTR _this$[ebp]
  00055	0f 57 c0	 xorps	 xmm0, xmm0
  00058	f3 0f 11 40 14	 movss	 DWORD PTR [eax+20], xmm0

; 238  : 	m_uIndex = 0;

  0005d	8b 45 fc	 mov	 eax, DWORD PTR _this$[ebp]
  00060	83 60 1c 00	 and	 DWORD PTR [eax+28], 0

; 239  : 	m_fScale = 1.0f;

  00064	8b 45 fc	 mov	 eax, DWORD PTR _this$[ebp]
  00067	f3 0f 10 05 00
	00 00 00	 movss	 xmm0, DWORD PTR __real@3f800000
  0006f	f3 0f 11 40 20	 movss	 DWORD PTR [eax+32], xmm0

; 240  : }

  00074	c9		 leave
  00075	c3		 ret	 0
?Initialize@CGraphicMarkInstance@@IAEXXZ ENDP		; CGraphicMarkInstance::Initialize
_TEXT	ENDS
; Function compile flags: /Odspy
; File D:\Metin2 Server Files\mainline\SRC_2014\Metin2Client\EterLib\GrpMarkInstance.cpp
; File D:\Metin2 Server Files\mainline\SRC_2014\Metin2Client\EterLib\Ref.h
; File D:\Metin2 Server Files\mainline\SRC_2014\Metin2Client\EterLib\GrpMarkInstance.cpp
;	COMDAT ??8CGraphicMarkInstance@@QBE_NABV0@@Z
_TEXT	SEGMENT
$T1 = -16						; size = 4
$T2 = -12						; size = 4
_this$ = -8						; size = 4
tv71 = -4						; size = 4
_rhs$ = 8						; size = 4
??8CGraphicMarkInstance@@QBE_NABV0@@Z PROC		; CGraphicMarkInstance::operator==, COMDAT
; _this$ = ecx

; 207  : {

  00000	55		 push	 ebp
  00001	8b ec		 mov	 ebp, esp
  00003	83 ec 10	 sub	 esp, 16			; 00000010H
  00006	89 4d f8	 mov	 DWORD PTR _this$[ebp], ecx
; File D:\Metin2 Server Files\mainline\SRC_2014\Metin2Client\EterLib\Ref.h

; 80   : 			return static_cast<T*>(m_pObject);

  00009	8b 45 f8	 mov	 eax, DWORD PTR _this$[ebp]
  0000c	8b 40 28	 mov	 eax, DWORD PTR [eax+40]
  0000f	89 45 f4	 mov	 DWORD PTR $T2[ebp], eax
  00012	8b 45 08	 mov	 eax, DWORD PTR _rhs$[ebp]
  00015	8b 40 28	 mov	 eax, DWORD PTR [eax+40]
  00018	89 45 f0	 mov	 DWORD PTR $T1[ebp], eax
; File D:\Metin2 Server Files\mainline\SRC_2014\Metin2Client\EterLib\GrpMarkInstance.cpp

; 208  : 	return (m_roImage.GetPointer() == rhs.m_roImage.GetPointer());

  0001b	8b 45 f4	 mov	 eax, DWORD PTR $T2[ebp]
  0001e	3b 45 f0	 cmp	 eax, DWORD PTR $T1[ebp]
  00021	75 09		 jne	 SHORT $LN3@operator
  00023	c7 45 fc 01 00
	00 00		 mov	 DWORD PTR tv71[ebp], 1
  0002a	eb 04		 jmp	 SHORT $LN4@operator
$LN3@operator:
  0002c	83 65 fc 00	 and	 DWORD PTR tv71[ebp], 0
$LN4@operator:
  00030	8a 45 fc	 mov	 al, BYTE PTR tv71[ebp]

; 209  : }

  00033	c9		 leave
  00034	c2 04 00	 ret	 4
??8CGraphicMarkInstance@@QBE_NABV0@@Z ENDP		; CGraphicMarkInstance::operator==
_TEXT	ENDS
; Function compile flags: /Odspy
; File D:\Metin2 Server Files\mainline\SRC_2014\Metin2Client\EterLib\GrpMarkInstance.cpp
; File D:\Metin2 Server Files\mainline\SRC_2014\Metin2Client\EterLib\Ref.h
; File D:\Metin2 Server Files\mainline\SRC_2014\Metin2Client\EterLib\GrpMarkInstance.cpp
;	COMDAT ?GetGraphicImagePointer@CGraphicMarkInstance@@QAEPAVCGraphicImage@@XZ
_TEXT	SEGMENT
$T1 = -8						; size = 4
_this$ = -4						; size = 4
?GetGraphicImagePointer@CGraphicMarkInstance@@QAEPAVCGraphicImage@@XZ PROC ; CGraphicMarkInstance::GetGraphicImagePointer, COMDAT
; _this$ = ecx

; 128  : {

  00000	55		 push	 ebp
  00001	8b ec		 mov	 ebp, esp
  00003	51		 push	 ecx
  00004	51		 push	 ecx
  00005	89 4d fc	 mov	 DWORD PTR _this$[ebp], ecx
; File D:\Metin2 Server Files\mainline\SRC_2014\Metin2Client\EterLib\Ref.h

; 80   : 			return static_cast<T*>(m_pObject);

  00008	8b 45 fc	 mov	 eax, DWORD PTR _this$[ebp]
  0000b	8b 40 28	 mov	 eax, DWORD PTR [eax+40]
  0000e	89 45 f8	 mov	 DWORD PTR $T1[ebp], eax
; File D:\Metin2 Server Files\mainline\SRC_2014\Metin2Client\EterLib\GrpMarkInstance.cpp

; 129  : 	return m_roImage.GetPointer();

  00011	8b 45 f8	 mov	 eax, DWORD PTR $T1[ebp]

; 130  : }

  00014	c9		 leave
  00015	c3		 ret	 0
?GetGraphicImagePointer@CGraphicMarkInstance@@QAEPAVCGraphicImage@@XZ ENDP ; CGraphicMarkInstance::GetGraphicImagePointer
_TEXT	ENDS
; Function compile flags: /Odspy
; File D:\Metin2 Server Files\mainline\SRC_2014\Metin2Client\EterLib\GrpMarkInstance.cpp
; File D:\Metin2 Server Files\mainline\SRC_2014\Metin2Client\EterLib\Ref.h
; File D:\Metin2 Server Files\mainline\SRC_2014\Metin2Client\EterLib\GrpMarkInstance.cpp
;	COMDAT ?GetTextureReference@CGraphicMarkInstance@@QBEABVCGraphicTexture@@XZ
_TEXT	SEGMENT
$T1 = -8						; size = 4
_this$ = -4						; size = 4
?GetTextureReference@CGraphicMarkInstance@@QBEABVCGraphicTexture@@XZ PROC ; CGraphicMarkInstance::GetTextureReference, COMDAT
; _this$ = ecx

; 118  : {

  00000	55		 push	 ebp
  00001	8b ec		 mov	 ebp, esp
  00003	51		 push	 ecx
  00004	51		 push	 ecx
  00005	89 4d fc	 mov	 DWORD PTR _this$[ebp], ecx
; File D:\Metin2 Server Files\mainline\SRC_2014\Metin2Client\EterLib\Ref.h

; 86   : 			return static_cast<T*>(m_pObject);

  00008	8b 45 fc	 mov	 eax, DWORD PTR _this$[ebp]
  0000b	8b 40 28	 mov	 eax, DWORD PTR [eax+40]
  0000e	89 45 f8	 mov	 DWORD PTR $T1[ebp], eax
; File D:\Metin2 Server Files\mainline\SRC_2014\Metin2Client\EterLib\GrpMarkInstance.cpp

; 119  : 	return m_roImage->GetTextureReference();

  00011	8b 4d f8	 mov	 ecx, DWORD PTR $T1[ebp]
  00014	e8 00 00 00 00	 call	 ?GetTextureReference@CGraphicImage@@QBEABVCGraphicTexture@@XZ ; CGraphicImage::GetTextureReference

; 120  : }

  00019	c9		 leave
  0001a	c3		 ret	 0
?GetTextureReference@CGraphicMarkInstance@@QBEABVCGraphicTexture@@XZ ENDP ; CGraphicMarkInstance::GetTextureReference
_TEXT	ENDS
; Function compile flags: /Odspy
; File D:\Metin2 Server Files\mainline\SRC_2014\Metin2Client\EterLib\GrpMarkInstance.cpp
; File D:\Metin2 Server Files\mainline\SRC_2014\Metin2Client\EterLib\Ref.h
; File D:\Metin2 Server Files\mainline\SRC_2014\Metin2Client\EterLib\GrpMarkInstance.cpp
;	COMDAT ?GetTexturePointer@CGraphicMarkInstance@@QAEPAVCGraphicTexture@@XZ
_TEXT	SEGMENT
$T1 = -8						; size = 4
_this$ = -4						; size = 4
?GetTexturePointer@CGraphicMarkInstance@@QAEPAVCGraphicTexture@@XZ PROC ; CGraphicMarkInstance::GetTexturePointer, COMDAT
; _this$ = ecx

; 123  : {

  00000	55		 push	 ebp
  00001	8b ec		 mov	 ebp, esp
  00003	51		 push	 ecx
  00004	51		 push	 ecx
  00005	89 4d fc	 mov	 DWORD PTR _this$[ebp], ecx
; File D:\Metin2 Server Files\mainline\SRC_2014\Metin2Client\EterLib\Ref.h

; 86   : 			return static_cast<T*>(m_pObject);

  00008	8b 45 fc	 mov	 eax, DWORD PTR _this$[ebp]
  0000b	8b 40 28	 mov	 eax, DWORD PTR [eax+40]
  0000e	89 45 f8	 mov	 DWORD PTR $T1[ebp], eax
; File D:\Metin2 Server Files\mainline\SRC_2014\Metin2Client\EterLib\GrpMarkInstance.cpp

; 124  : 	return m_roImage->GetTexturePointer();

  00011	8b 4d f8	 mov	 ecx, DWORD PTR $T1[ebp]
  00014	e8 00 00 00 00	 call	 ?GetTexturePointer@CGraphicImage@@QAEPAVCGraphicTexture@@XZ ; CGraphicImage::GetTexturePointer

; 125  : }

  00019	c9		 leave
  0001a	c3		 ret	 0
?GetTexturePointer@CGraphicMarkInstance@@QAEPAVCGraphicTexture@@XZ ENDP ; CGraphicMarkInstance::GetTexturePointer
_TEXT	ENDS
; Function compile flags: /Odspy
; File D:\Metin2 Server Files\mainline\SRC_2014\Metin2Client\EterLib\GrpMarkInstance.cpp
;	COMDAT ?GetHeight@CGraphicMarkInstance@@QAEHXZ
_TEXT	SEGMENT
_this$ = -4						; size = 4
?GetHeight@CGraphicMarkInstance@@QAEHXZ PROC		; CGraphicMarkInstance::GetHeight, COMDAT
; _this$ = ecx

; 152  : {

  00000	55		 push	 ebp
  00001	8b ec		 mov	 ebp, esp
  00003	51		 push	 ecx
  00004	89 4d fc	 mov	 DWORD PTR _this$[ebp], ecx

; 153  : 	if (IsEmpty())

  00007	8b 4d fc	 mov	 ecx, DWORD PTR _this$[ebp]
  0000a	e8 00 00 00 00	 call	 ?IsEmpty@CGraphicMarkInstance@@QBE_NXZ ; CGraphicMarkInstance::IsEmpty
  0000f	0f b6 c0	 movzx	 eax, al
  00012	85 c0		 test	 eax, eax
  00014	74 04		 je	 SHORT $LN2@GetHeight

; 154  : 		return 0;

  00016	33 c0		 xor	 eax, eax
  00018	eb 03		 jmp	 SHORT $LN1@GetHeight
$LN2@GetHeight:

; 155  : 	
; 156  : 	//return m_roImage->GetHeight();
; 157  : 	return 12;

  0001a	6a 0c		 push	 12			; 0000000cH
  0001c	58		 pop	 eax
$LN1@GetHeight:

; 158  : }

  0001d	c9		 leave
  0001e	c3		 ret	 0
?GetHeight@CGraphicMarkInstance@@QAEHXZ ENDP		; CGraphicMarkInstance::GetHeight
_TEXT	ENDS
; Function compile flags: /Odspy
; File D:\Metin2 Server Files\mainline\SRC_2014\Metin2Client\EterLib\GrpMarkInstance.cpp
;	COMDAT ?GetWidth@CGraphicMarkInstance@@QAEHXZ
_TEXT	SEGMENT
_this$ = -4						; size = 4
?GetWidth@CGraphicMarkInstance@@QAEHXZ PROC		; CGraphicMarkInstance::GetWidth, COMDAT
; _this$ = ecx

; 143  : {

  00000	55		 push	 ebp
  00001	8b ec		 mov	 ebp, esp
  00003	51		 push	 ecx
  00004	89 4d fc	 mov	 DWORD PTR _this$[ebp], ecx

; 144  : 	if (IsEmpty())

  00007	8b 4d fc	 mov	 ecx, DWORD PTR _this$[ebp]
  0000a	e8 00 00 00 00	 call	 ?IsEmpty@CGraphicMarkInstance@@QBE_NXZ ; CGraphicMarkInstance::IsEmpty
  0000f	0f b6 c0	 movzx	 eax, al
  00012	85 c0		 test	 eax, eax
  00014	74 04		 je	 SHORT $LN2@GetWidth

; 145  : 		return 0;

  00016	33 c0		 xor	 eax, eax
  00018	eb 03		 jmp	 SHORT $LN1@GetWidth
$LN2@GetWidth:

; 146  : 	
; 147  : 	//return m_roImage->GetWidth();
; 148  : 	return 16;

  0001a	6a 10		 push	 16			; 00000010H
  0001c	58		 pop	 eax
$LN1@GetWidth:

; 149  : }

  0001d	c9		 leave
  0001e	c3		 ret	 0
?GetWidth@CGraphicMarkInstance@@QAEHXZ ENDP		; CGraphicMarkInstance::GetWidth
_TEXT	ENDS
; Function compile flags: /Odspy
; File D:\Metin2 Server Files\mainline\SRC_2014\Metin2Client\EterLib\GrpMarkInstance.cpp
; File D:\Metin2 Server Files\mainline\SRC_2014\Metin2Client\EterLib\Ref.h
; File D:\Metin2 Server Files\mainline\SRC_2014\Metin2Client\EterLib\GrpMarkInstance.cpp
; File D:\Metin2 Server Files\mainline\SRC_2014\Metin2Client\EterLib\Ref.h
; File D:\Metin2 Server Files\mainline\SRC_2014\Metin2Client\EterLib\GrpMarkInstance.cpp
;	COMDAT ?IsEmpty@CGraphicMarkInstance@@QBE_NXZ
_TEXT	SEGMENT
$T1 = -12						; size = 4
_this$ = -8						; size = 4
tv82 = -1						; size = 1
?IsEmpty@CGraphicMarkInstance@@QBE_NXZ PROC		; CGraphicMarkInstance::IsEmpty, COMDAT
; _this$ = ecx

; 199  : {

  00000	55		 push	 ebp
  00001	8b ec		 mov	 ebp, esp
  00003	83 ec 0c	 sub	 esp, 12			; 0000000cH
  00006	89 4d f8	 mov	 DWORD PTR _this$[ebp], ecx
; File D:\Metin2 Server Files\mainline\SRC_2014\Metin2Client\EterLib\Ref.h

; 62   : 			return m_pObject == NULL ? true : false;

  00009	8b 45 f8	 mov	 eax, DWORD PTR _this$[ebp]
  0000c	83 78 28 00	 cmp	 DWORD PTR [eax+40], 0
  00010	75 06		 jne	 SHORT $LN6@IsEmpty
  00012	c6 45 ff 01	 mov	 BYTE PTR tv82[ebp], 1
  00016	eb 04		 jmp	 SHORT $LN4@IsEmpty
$LN6@IsEmpty:
  00018	c6 45 ff 00	 mov	 BYTE PTR tv82[ebp], 0
$LN4@IsEmpty:
; File D:\Metin2 Server Files\mainline\SRC_2014\Metin2Client\EterLib\GrpMarkInstance.cpp

; 200  : 	if (!m_roImage.IsNull() && !m_roImage->IsEmpty())

  0001c	0f b6 45 ff	 movzx	 eax, BYTE PTR tv82[ebp]
  00020	85 c0		 test	 eax, eax
  00022	75 1c		 jne	 SHORT $LN2@IsEmpty
; File D:\Metin2 Server Files\mainline\SRC_2014\Metin2Client\EterLib\Ref.h

; 86   : 			return static_cast<T*>(m_pObject);

  00024	8b 45 f8	 mov	 eax, DWORD PTR _this$[ebp]
  00027	8b 40 28	 mov	 eax, DWORD PTR [eax+40]
  0002a	89 45 f4	 mov	 DWORD PTR $T1[ebp], eax
; File D:\Metin2 Server Files\mainline\SRC_2014\Metin2Client\EterLib\GrpMarkInstance.cpp

; 200  : 	if (!m_roImage.IsNull() && !m_roImage->IsEmpty())

  0002d	8b 4d f4	 mov	 ecx, DWORD PTR $T1[ebp]
  00030	e8 00 00 00 00	 call	 ?IsEmpty@CResource@@QBE_NXZ ; CResource::IsEmpty
  00035	0f b6 c0	 movzx	 eax, al
  00038	85 c0		 test	 eax, eax
  0003a	75 04		 jne	 SHORT $LN2@IsEmpty

; 201  : 		return false;

  0003c	32 c0		 xor	 al, al
  0003e	eb 02		 jmp	 SHORT $LN1@IsEmpty
$LN2@IsEmpty:

; 202  : 
; 203  : 	return true;

  00040	b0 01		 mov	 al, 1
$LN1@IsEmpty:

; 204  : }

  00042	c9		 leave
  00043	c3		 ret	 0
?IsEmpty@CGraphicMarkInstance@@QBE_NXZ ENDP		; CGraphicMarkInstance::IsEmpty
_TEXT	ENDS
; Function compile flags: /Odspy
; File D:\Metin2 Server Files\mainline\SRC_2014\Metin2Client\EterLib\GrpMarkInstance.cpp
; File C:\Program Files (x86)\Microsoft Visual Studio\2019\Community\VC\Tools\MSVC\14.28.29333\include\xstring
; File D:\Metin2 Server Files\mainline\SRC_2014\Metin2Client\EterLib\GrpMarkInstance.cpp
; File D:\Metin2 Server Files\mainline\SRC_2014\Metin2Client\eterBase\Singleton.h
; File D:\Metin2 Server Files\mainline\SRC_2014\Metin2Client\EterLib\GrpMarkInstance.cpp
;	COMDAT ?Load@CGraphicMarkInstance@@QAEXXZ
_TEXT	SEGMENT
$T1 = -28						; size = 4
$T2 = -24						; size = 4
_this$ = -20						; size = 4
tv132 = -16						; size = 4
_pResource$ = -12					; size = 4
_this$ = -8						; size = 4
$T3 = -1						; size = 1
?Load@CGraphicMarkInstance@@QAEXXZ PROC			; CGraphicMarkInstance::Load, COMDAT
; _this$ = ecx

; 175  : {

  00000	55		 push	 ebp
  00001	8b ec		 mov	 ebp, esp
  00003	83 ec 1c	 sub	 esp, 28			; 0000001cH
  00006	89 4d f8	 mov	 DWORD PTR _this$[ebp], ecx

; 176  : 	if (GetImageFileName().empty())

  00009	8b 4d f8	 mov	 ecx, DWORD PTR _this$[ebp]
  0000c	e8 00 00 00 00	 call	 ?GetImageFileName@CGraphicMarkInstance@@QAEABV?$basic_string@DU?$char_traits@D@std@@V?$allocator@D@2@@std@@XZ ; CGraphicMarkInstance::GetImageFileName
  00011	89 45 ec	 mov	 DWORD PTR _this$[ebp], eax
; File C:\Program Files (x86)\Microsoft Visual Studio\2019\Community\VC\Tools\MSVC\14.28.29333\include\xstring

; 3770 :         return _Mypair._Myval2._Mysize;

  00014	8b 45 ec	 mov	 eax, DWORD PTR _this$[ebp]
  00017	8b 40 10	 mov	 eax, DWORD PTR [eax+16]
  0001a	89 45 e8	 mov	 DWORD PTR $T2[ebp], eax

; 3848 :         return size() == 0;

  0001d	83 7d e8 00	 cmp	 DWORD PTR $T2[ebp], 0
  00021	75 09		 jne	 SHORT $LN8@Load
  00023	c7 45 f0 01 00
	00 00		 mov	 DWORD PTR tv132[ebp], 1
  0002a	eb 04		 jmp	 SHORT $LN9@Load
$LN8@Load:
  0002c	83 65 f0 00	 and	 DWORD PTR tv132[ebp], 0
$LN9@Load:
  00030	8a 45 f0	 mov	 al, BYTE PTR tv132[ebp]
  00033	88 45 ff	 mov	 BYTE PTR $T3[ebp], al
; File D:\Metin2 Server Files\mainline\SRC_2014\Metin2Client\EterLib\GrpMarkInstance.cpp

; 176  : 	if (GetImageFileName().empty())

  00036	0f b6 45 ff	 movzx	 eax, BYTE PTR $T3[ebp]
  0003a	85 c0		 test	 eax, eax
  0003c	74 02		 je	 SHORT $LN2@Load

; 177  : 		return;

  0003e	eb 67		 jmp	 SHORT $LN1@Load
$LN2@Load:
; File D:\Metin2 Server Files\mainline\SRC_2014\Metin2Client\eterBase\Singleton.h

; 27   : 		return (*ms_singleton);

  00040	a1 00 00 00 00	 mov	 eax, DWORD PTR ?ms_singleton@?$CSingleton@VCResourceManager@@@@0PAVCResourceManager@@A ; CSingleton<CResourceManager>::ms_singleton
  00045	89 45 e4	 mov	 DWORD PTR $T1[ebp], eax
; File D:\Metin2 Server Files\mainline\SRC_2014\Metin2Client\EterLib\GrpMarkInstance.cpp

; 179  : 	CResource * pResource = CResourceManager::Instance().GetResourcePointer(GetImageFileName().c_str());

  00048	8b 4d f8	 mov	 ecx, DWORD PTR _this$[ebp]
  0004b	e8 00 00 00 00	 call	 ?GetImageFileName@CGraphicMarkInstance@@QAEABV?$basic_string@DU?$char_traits@D@std@@V?$allocator@D@2@@std@@XZ ; CGraphicMarkInstance::GetImageFileName
  00050	8b c8		 mov	 ecx, eax
  00052	e8 00 00 00 00	 call	 ?c_str@?$basic_string@DU?$char_traits@D@std@@V?$allocator@D@2@@std@@QBEPBDXZ ; std::basic_string<char,std::char_traits<char>,std::allocator<char> >::c_str
  00057	50		 push	 eax
  00058	8b 4d e4	 mov	 ecx, DWORD PTR $T1[ebp]
  0005b	e8 00 00 00 00	 call	 ?GetResourcePointer@CResourceManager@@QAEPAVCResource@@PBD@Z ; CResourceManager::GetResourcePointer
  00060	89 45 f4	 mov	 DWORD PTR _pResource$[ebp], eax

; 180  : 
; 181  : 	if (!pResource)

  00063	83 7d f4 00	 cmp	 DWORD PTR _pResource$[ebp], 0
  00067	75 1e		 jne	 SHORT $LN3@Load

; 182  : 	{
; 183  : 		TraceError("CGraphicMarkinstance::Load - [%s] NOT EXIST", GetImageFileName().c_str());

  00069	8b 4d f8	 mov	 ecx, DWORD PTR _this$[ebp]
  0006c	e8 00 00 00 00	 call	 ?GetImageFileName@CGraphicMarkInstance@@QAEABV?$basic_string@DU?$char_traits@D@std@@V?$allocator@D@2@@std@@XZ ; CGraphicMarkInstance::GetImageFileName
  00071	8b c8		 mov	 ecx, eax
  00073	e8 00 00 00 00	 call	 ?c_str@?$basic_string@DU?$char_traits@D@std@@V?$allocator@D@2@@std@@QBEPBDXZ ; std::basic_string<char,std::char_traits<char>,std::allocator<char> >::c_str
  00078	50		 push	 eax
  00079	68 00 00 00 00	 push	 OFFSET ??_C@_0CM@NEBKKKDH@CGraphicMarkinstance?3?3Load?5?9?5?$FL?$CF@
  0007e	e8 00 00 00 00	 call	 ?TraceError@@YAXPBDZZ	; TraceError
  00083	59		 pop	 ecx
  00084	59		 pop	 ecx

; 184  : 		return;

  00085	eb 20		 jmp	 SHORT $LN1@Load
$LN3@Load:

; 185  : 	}
; 186  : 
; 187  : 	if (pResource->IsType(CGraphicImage::Type()))

  00087	e8 00 00 00 00	 call	 ?Type@CGraphicImage@@SAKXZ ; CGraphicImage::Type
  0008c	50		 push	 eax
  0008d	8b 4d f4	 mov	 ecx, DWORD PTR _pResource$[ebp]
  00090	e8 00 00 00 00	 call	 ?IsType@CResource@@QAE_NK@Z ; CResource::IsType
  00095	0f b6 c0	 movzx	 eax, al
  00098	85 c0		 test	 eax, eax
  0009a	74 0b		 je	 SHORT $LN1@Load

; 188  : 		SetImagePointer(static_cast<CGraphicImage*>(pResource));		

  0009c	ff 75 f4	 push	 DWORD PTR _pResource$[ebp]
  0009f	8b 4d f8	 mov	 ecx, DWORD PTR _this$[ebp]
  000a2	e8 00 00 00 00	 call	 ?SetImagePointer@CGraphicMarkInstance@@IAEXPAVCGraphicImage@@@Z ; CGraphicMarkInstance::SetImagePointer
$LN1@Load:

; 189  : }

  000a7	c9		 leave
  000a8	c3		 ret	 0
?Load@CGraphicMarkInstance@@QAEXXZ ENDP			; CGraphicMarkInstance::Load
_TEXT	ENDS
; Function compile flags: /Odspy
; File D:\Metin2 Server Files\mainline\SRC_2014\Metin2Client\EterLib\GrpMarkInstance.cpp
;	COMDAT ?SetScale@CGraphicMarkInstance@@QAEXM@Z
_TEXT	SEGMENT
_this$ = -4						; size = 4
_fScale$ = 8						; size = 4
?SetScale@CGraphicMarkInstance@@QAEXM@Z PROC		; CGraphicMarkInstance::SetScale, COMDAT
; _this$ = ecx

; 133  : {

  00000	55		 push	 ebp
  00001	8b ec		 mov	 ebp, esp
  00003	51		 push	 ecx
  00004	89 4d fc	 mov	 DWORD PTR _this$[ebp], ecx

; 134  : 	m_fScale=fScale;

  00007	8b 45 fc	 mov	 eax, DWORD PTR _this$[ebp]
  0000a	f3 0f 10 45 08	 movss	 xmm0, DWORD PTR _fScale$[ebp]
  0000f	f3 0f 11 40 20	 movss	 DWORD PTR [eax+32], xmm0

; 135  : }

  00014	c9		 leave
  00015	c2 04 00	 ret	 4
?SetScale@CGraphicMarkInstance@@QAEXM@Z ENDP		; CGraphicMarkInstance::SetScale
_TEXT	ENDS
; Function compile flags: /Odspy
; File D:\Metin2 Server Files\mainline\SRC_2014\Metin2Client\EterLib\GrpMarkInstance.cpp
;	COMDAT ?SetIndex@CGraphicMarkInstance@@QAEXI@Z
_TEXT	SEGMENT
_this$ = -4						; size = 4
_uIndex$ = 8						; size = 4
?SetIndex@CGraphicMarkInstance@@QAEXI@Z PROC		; CGraphicMarkInstance::SetIndex, COMDAT
; _this$ = ecx

; 138  : {

  00000	55		 push	 ebp
  00001	8b ec		 mov	 ebp, esp
  00003	51		 push	 ecx
  00004	89 4d fc	 mov	 DWORD PTR _this$[ebp], ecx

; 139  : 	m_uIndex=uIndex;

  00007	8b 45 fc	 mov	 eax, DWORD PTR _this$[ebp]
  0000a	8b 4d 08	 mov	 ecx, DWORD PTR _uIndex$[ebp]
  0000d	89 48 1c	 mov	 DWORD PTR [eax+28], ecx

; 140  : }

  00010	c9		 leave
  00011	c2 04 00	 ret	 4
?SetIndex@CGraphicMarkInstance@@QAEXI@Z ENDP		; CGraphicMarkInstance::SetIndex
_TEXT	ENDS
; Function compile flags: /Odspy
; File D:\Metin2 Server Files\mainline\SRC_2014\Metin2Client\EterLib\GrpMarkInstance.cpp
;	COMDAT ?SetPosition@CGraphicMarkInstance@@QAEXMM@Z
_TEXT	SEGMENT
_this$ = -4						; size = 4
_fx$ = 8						; size = 4
_fy$ = 12						; size = 4
?SetPosition@CGraphicMarkInstance@@QAEXMM@Z PROC	; CGraphicMarkInstance::SetPosition, COMDAT
; _this$ = ecx

; 169  : {

  00000	55		 push	 ebp
  00001	8b ec		 mov	 ebp, esp
  00003	51		 push	 ecx
  00004	89 4d fc	 mov	 DWORD PTR _this$[ebp], ecx

; 170  : 	m_v2Position.x = fx;

  00007	8b 45 fc	 mov	 eax, DWORD PTR _this$[ebp]
  0000a	f3 0f 10 45 08	 movss	 xmm0, DWORD PTR _fx$[ebp]
  0000f	f3 0f 11 40 14	 movss	 DWORD PTR [eax+20], xmm0

; 171  : 	m_v2Position.y = fy;

  00014	8b 45 fc	 mov	 eax, DWORD PTR _this$[ebp]
  00017	f3 0f 10 45 0c	 movss	 xmm0, DWORD PTR _fy$[ebp]
  0001c	f3 0f 11 40 18	 movss	 DWORD PTR [eax+24], xmm0

; 172  : }

  00021	c9		 leave
  00022	c2 08 00	 ret	 8
?SetPosition@CGraphicMarkInstance@@QAEXMM@Z ENDP	; CGraphicMarkInstance::SetPosition
_TEXT	ENDS
; Function compile flags: /Odspy
; File D:\Metin2 Server Files\mainline\SRC_2014\Metin2Client\EterLib\GrpMarkInstance.cpp
;	COMDAT ?SetDiffuseColor@CGraphicMarkInstance@@QAEXMMMM@Z
_TEXT	SEGMENT
_this$ = -4						; size = 4
_fr$ = 8						; size = 4
_fg$ = 12						; size = 4
_fb$ = 16						; size = 4
_fa$ = 20						; size = 4
?SetDiffuseColor@CGraphicMarkInstance@@QAEXMMMM@Z PROC	; CGraphicMarkInstance::SetDiffuseColor, COMDAT
; _this$ = ecx

; 161  : {

  00000	55		 push	 ebp
  00001	8b ec		 mov	 ebp, esp
  00003	51		 push	 ecx
  00004	89 4d fc	 mov	 DWORD PTR _this$[ebp], ecx

; 162  : 	m_DiffuseColor.r = fr;

  00007	8b 45 fc	 mov	 eax, DWORD PTR _this$[ebp]
  0000a	f3 0f 10 45 08	 movss	 xmm0, DWORD PTR _fr$[ebp]
  0000f	f3 0f 11 40 04	 movss	 DWORD PTR [eax+4], xmm0

; 163  : 	m_DiffuseColor.g = fg;

  00014	8b 45 fc	 mov	 eax, DWORD PTR _this$[ebp]
  00017	f3 0f 10 45 0c	 movss	 xmm0, DWORD PTR _fg$[ebp]
  0001c	f3 0f 11 40 08	 movss	 DWORD PTR [eax+8], xmm0

; 164  : 	m_DiffuseColor.b = fb;

  00021	8b 45 fc	 mov	 eax, DWORD PTR _this$[ebp]
  00024	f3 0f 10 45 10	 movss	 xmm0, DWORD PTR _fb$[ebp]
  00029	f3 0f 11 40 0c	 movss	 DWORD PTR [eax+12], xmm0

; 165  : 	m_DiffuseColor.a = fa;

  0002e	8b 45 fc	 mov	 eax, DWORD PTR _this$[ebp]
  00031	f3 0f 10 45 14	 movss	 xmm0, DWORD PTR _fa$[ebp]
  00036	f3 0f 11 40 10	 movss	 DWORD PTR [eax+16], xmm0

; 166  : }

  0003b	c9		 leave
  0003c	c2 10 00	 ret	 16			; 00000010H
?SetDiffuseColor@CGraphicMarkInstance@@QAEXMMMM@Z ENDP	; CGraphicMarkInstance::SetDiffuseColor
_TEXT	ENDS
; Function compile flags: /Odspy
; File D:\Metin2 Server Files\mainline\SRC_2014\Metin2Client\EterLib\GrpMarkInstance.cpp
;	COMDAT ?Render@CGraphicMarkInstance@@QAEXXZ
_TEXT	SEGMENT
_this$ = -4						; size = 4
?Render@CGraphicMarkInstance@@QAEXXZ PROC		; CGraphicMarkInstance::Render, COMDAT
; _this$ = ecx

; 42   : {

  00000	55		 push	 ebp
  00001	8b ec		 mov	 ebp, esp
  00003	51		 push	 ecx
  00004	89 4d fc	 mov	 DWORD PTR _this$[ebp], ecx

; 43   : 	if (IsEmpty())

  00007	8b 4d fc	 mov	 ecx, DWORD PTR _this$[ebp]
  0000a	e8 00 00 00 00	 call	 ?IsEmpty@CGraphicMarkInstance@@QBE_NXZ ; CGraphicMarkInstance::IsEmpty
  0000f	0f b6 c0	 movzx	 eax, al
  00012	85 c0		 test	 eax, eax
  00014	74 02		 je	 SHORT $LN2@Render

; 44   : 		return;

  00016	eb 0b		 jmp	 SHORT $LN1@Render
$LN2@Render:

; 45   : 
; 46   : 	assert(!IsEmpty());
; 47   : 
; 48   : 	OnRender();

  00018	8b 45 fc	 mov	 eax, DWORD PTR _this$[ebp]
  0001b	8b 00		 mov	 eax, DWORD PTR [eax]
  0001d	8b 4d fc	 mov	 ecx, DWORD PTR _this$[ebp]
  00020	ff 50 04	 call	 DWORD PTR [eax+4]
$LN1@Render:

; 49   : }

  00023	c9		 leave
  00024	c3		 ret	 0
?Render@CGraphicMarkInstance@@QAEXXZ ENDP		; CGraphicMarkInstance::Render
_TEXT	ENDS
; Function compile flags: /Odspy
; File D:\Metin2 Server Files\mainline\SRC_2014\Metin2Client\EterLib\GrpMarkInstance.cpp
;	COMDAT ?Destroy@CGraphicMarkInstance@@QAEXXZ
_TEXT	SEGMENT
_this$ = -4						; size = 4
?Destroy@CGraphicMarkInstance@@QAEXXZ PROC		; CGraphicMarkInstance::Destroy, COMDAT
; _this$ = ecx

; 243  : {

  00000	55		 push	 ebp
  00001	8b ec		 mov	 ebp, esp
  00003	51		 push	 ecx
  00004	89 4d fc	 mov	 DWORD PTR _this$[ebp], ecx

; 244  : 	m_roImage.SetPointer(NULL); // CRef     .

  00007	6a 00		 push	 0
  00009	8b 4d fc	 mov	 ecx, DWORD PTR _this$[ebp]
  0000c	83 c1 28	 add	 ecx, 40			; 00000028H
  0000f	e8 00 00 00 00	 call	 ?SetPointer@?$CRef@VCGraphicImage@@@@QAEXPAVCReferenceObject@@@Z ; CRef<CGraphicImage>::SetPointer

; 245  : 	Initialize();

  00014	8b 4d fc	 mov	 ecx, DWORD PTR _this$[ebp]
  00017	e8 00 00 00 00	 call	 ?Initialize@CGraphicMarkInstance@@IAEXXZ ; CGraphicMarkInstance::Initialize

; 246  : }

  0001c	c9		 leave
  0001d	c3		 ret	 0
?Destroy@CGraphicMarkInstance@@QAEXXZ ENDP		; CGraphicMarkInstance::Destroy
_TEXT	ENDS
; Function compile flags: /Odspy
; File D:\Metin2 Server Files\mainline\SRC_2014\Metin2Client\EterLib\GrpMarkInstance.cpp
; File C:\Program Files (x86)\Microsoft Visual Studio\2019\Community\VC\Tools\MSVC\14.28.29333\include\xstring
; File D:\Metin2 Server Files\mainline\SRC_2014\Metin2Client\EterLib\GrpMarkInstance.cpp
; File D:\Metin2 Server Files\mainline\SRC_2014\Metin2Client\EterLib\Ref.h
; File D:\Metin2 Server Files\mainline\SRC_2014\Metin2Client\EterLib\GrpMarkInstance.cpp
;	COMDAT ??1CGraphicMarkInstance@@UAE@XZ
_TEXT	SEGMENT
_this$ = -20						; size = 4
_this$ = -16						; size = 4
__$EHRec$ = -12						; size = 12
??1CGraphicMarkInstance@@UAE@XZ PROC			; CGraphicMarkInstance::~CGraphicMarkInstance, COMDAT
; _this$ = ecx

; 254  : {

  00000	55		 push	 ebp
  00001	8b ec		 mov	 ebp, esp
  00003	6a ff		 push	 -1
  00005	68 00 00 00 00	 push	 __ehhandler$??1CGraphicMarkInstance@@UAE@XZ
  0000a	64 a1 00 00 00
	00		 mov	 eax, DWORD PTR fs:0
  00010	50		 push	 eax
  00011	51		 push	 ecx
  00012	51		 push	 ecx
  00013	a1 00 00 00 00	 mov	 eax, DWORD PTR ___security_cookie
  00018	33 c5		 xor	 eax, ebp
  0001a	50		 push	 eax
  0001b	8d 45 f4	 lea	 eax, DWORD PTR __$EHRec$[ebp]
  0001e	64 a3 00 00 00
	00		 mov	 DWORD PTR fs:0, eax
  00024	89 4d f0	 mov	 DWORD PTR _this$[ebp], ecx
  00027	8b 45 f0	 mov	 eax, DWORD PTR _this$[ebp]
  0002a	c7 00 00 00 00
	00		 mov	 DWORD PTR [eax], OFFSET ??_7CGraphicMarkInstance@@6B@

; 255  : 	Destroy();

  00030	8b 4d f0	 mov	 ecx, DWORD PTR _this$[ebp]
  00033	e8 00 00 00 00	 call	 ?Destroy@CGraphicMarkInstance@@QAEXXZ ; CGraphicMarkInstance::Destroy

; 256  : }

  00038	8b 4d f0	 mov	 ecx, DWORD PTR _this$[ebp]
  0003b	83 c1 2c	 add	 ecx, 44			; 0000002cH
; File C:\Program Files (x86)\Microsoft Visual Studio\2019\Community\VC\Tools\MSVC\14.28.29333\include\xstring

; 2801 :         _Tidy_deallocate();

  0003e	e8 00 00 00 00	 call	 ?_Tidy_deallocate@?$basic_string@DU?$char_traits@D@std@@V?$allocator@D@2@@std@@AAEXXZ ; std::basic_string<char,std::char_traits<char>,std::allocator<char> >::_Tidy_deallocate
; File D:\Metin2 Server Files\mainline\SRC_2014\Metin2Client\EterLib\GrpMarkInstance.cpp

; 256  : }

  00043	8b 45 f0	 mov	 eax, DWORD PTR _this$[ebp]
  00046	83 c0 28	 add	 eax, 40			; 00000028H
  00049	89 45 ec	 mov	 DWORD PTR _this$[ebp], eax
; File D:\Metin2 Server Files\mainline\SRC_2014\Metin2Client\EterLib\Ref.h

; 37   : 		{

  0004c	83 65 fc 00	 and	 DWORD PTR __$EHRec$[ebp+8], 0

; 53   : 			if (m_pObject)

  00050	8b 45 ec	 mov	 eax, DWORD PTR _this$[ebp]
  00053	83 38 00	 cmp	 DWORD PTR [eax], 0
  00056	74 10		 je	 SHORT $LN15@CGraphicMa

; 54   : 			{
; 55   : 				m_pObject->Release();

  00058	8b 45 ec	 mov	 eax, DWORD PTR _this$[ebp]
  0005b	8b 08		 mov	 ecx, DWORD PTR [eax]
  0005d	e8 00 00 00 00	 call	 ?Release@CReferenceObject@@QAEXXZ ; CReferenceObject::Release

; 56   : 				m_pObject = NULL;

  00062	8b 45 ec	 mov	 eax, DWORD PTR _this$[ebp]
  00065	83 20 00	 and	 DWORD PTR [eax], 0
$LN15@CGraphicMa:

; 39   : 		}

  00068	83 4d fc ff	 or	 DWORD PTR __$EHRec$[ebp+8], -1
; File D:\Metin2 Server Files\mainline\SRC_2014\Metin2Client\EterLib\GrpMarkInstance.cpp

; 256  : }

  0006c	8b 4d f4	 mov	 ecx, DWORD PTR __$EHRec$[ebp]
  0006f	64 89 0d 00 00
	00 00		 mov	 DWORD PTR fs:0, ecx
  00076	59		 pop	 ecx
  00077	c9		 leave
  00078	c3		 ret	 0
  00079	cc		 int	 3
  0007a	cc		 int	 3
  0007b	cc		 int	 3
  0007c	cc		 int	 3
  0007d	cc		 int	 3
_TEXT	ENDS
;	COMDAT text$x
text$x	SEGMENT
__ehhandler$??1CGraphicMarkInstance@@UAE@XZ:
  00000	90		 npad	 1
  00001	90		 npad	 1
  00002	8b 54 24 08	 mov	 edx, DWORD PTR [esp+8]
  00006	8d 42 0c	 lea	 eax, DWORD PTR [edx+12]
  00009	8b 4a f4	 mov	 ecx, DWORD PTR [edx-12]
  0000c	33 c8		 xor	 ecx, eax
  0000e	e8 00 00 00 00	 call	 @__security_check_cookie@4
  00013	b8 00 00 00 00	 mov	 eax, OFFSET __ehfuncinfo$??1CGraphicMarkInstance@@UAE@XZ
  00018	e9 00 00 00 00	 jmp	 ___CxxFrameHandler3
text$x	ENDS
??1CGraphicMarkInstance@@UAE@XZ ENDP			; CGraphicMarkInstance::~CGraphicMarkInstance
; Function compile flags: /Odspy
; File D:\Metin2 Server Files\mainline\SRC_2014\Metin2Client\EterLib\GrpMarkInstance.cpp
; File D:\Metin2 Server Files\mainline\SRC_2014\Metin2Client\EterLib\Ref.h
; File D:\Metin2 Server Files\mainline\SRC_2014\Metin2Client\EterLib\GrpMarkInstance.cpp
;	COMDAT ??0CGraphicMarkInstance@@QAE@XZ
_TEXT	SEGMENT
_this$ = -20						; size = 4
_this$ = -16						; size = 4
__$EHRec$ = -12						; size = 12
??0CGraphicMarkInstance@@QAE@XZ PROC			; CGraphicMarkInstance::CGraphicMarkInstance, COMDAT
; _this$ = ecx

; 249  : {

  00000	55		 push	 ebp
  00001	8b ec		 mov	 ebp, esp
  00003	6a ff		 push	 -1
  00005	68 00 00 00 00	 push	 __ehhandler$??0CGraphicMarkInstance@@QAE@XZ
  0000a	64 a1 00 00 00
	00		 mov	 eax, DWORD PTR fs:0
  00010	50		 push	 eax
  00011	51		 push	 ecx
  00012	51		 push	 ecx
  00013	a1 00 00 00 00	 mov	 eax, DWORD PTR ___security_cookie
  00018	33 c5		 xor	 eax, ebp
  0001a	50		 push	 eax
  0001b	8d 45 f4	 lea	 eax, DWORD PTR __$EHRec$[ebp]
  0001e	64 a3 00 00 00
	00		 mov	 DWORD PTR fs:0, eax
  00024	89 4d f0	 mov	 DWORD PTR _this$[ebp], ecx
  00027	8b 45 f0	 mov	 eax, DWORD PTR _this$[ebp]
  0002a	c7 00 00 00 00
	00		 mov	 DWORD PTR [eax], OFFSET ??_7CGraphicMarkInstance@@6B@
  00030	8b 45 f0	 mov	 eax, DWORD PTR _this$[ebp]
  00033	83 c0 28	 add	 eax, 40			; 00000028H
  00036	89 45 ec	 mov	 DWORD PTR _this$[ebp], eax
; File D:\Metin2 Server Files\mainline\SRC_2014\Metin2Client\EterLib\Ref.h

; 20   : 		CRef() : m_pObject(NULL)

  00039	8b 45 ec	 mov	 eax, DWORD PTR _this$[ebp]
  0003c	83 20 00	 and	 DWORD PTR [eax], 0
; File D:\Metin2 Server Files\mainline\SRC_2014\Metin2Client\EterLib\GrpMarkInstance.cpp

; 249  : {

  0003f	83 65 fc 00	 and	 DWORD PTR __$EHRec$[ebp+8], 0
  00043	8b 4d f0	 mov	 ecx, DWORD PTR _this$[ebp]
  00046	83 c1 2c	 add	 ecx, 44			; 0000002cH
  00049	e8 00 00 00 00	 call	 ??0?$basic_string@DU?$char_traits@D@std@@V?$allocator@D@2@@std@@QAE@XZ ; std::basic_string<char,std::char_traits<char>,std::allocator<char> >::basic_string<char,std::char_traits<char>,std::allocator<char> >
  0004e	c6 45 fc 01	 mov	 BYTE PTR __$EHRec$[ebp+8], 1

; 250  : 	Initialize();

  00052	8b 4d f0	 mov	 ecx, DWORD PTR _this$[ebp]
  00055	e8 00 00 00 00	 call	 ?Initialize@CGraphicMarkInstance@@IAEXXZ ; CGraphicMarkInstance::Initialize

; 251  : }

  0005a	83 4d fc ff	 or	 DWORD PTR __$EHRec$[ebp+8], -1
  0005e	8b 45 f0	 mov	 eax, DWORD PTR _this$[ebp]
  00061	8b 4d f4	 mov	 ecx, DWORD PTR __$EHRec$[ebp]
  00064	64 89 0d 00 00
	00 00		 mov	 DWORD PTR fs:0, ecx
  0006b	59		 pop	 ecx
  0006c	c9		 leave
  0006d	c3		 ret	 0
_TEXT	ENDS
;	COMDAT text$x
text$x	SEGMENT
__unwindfunclet$??0CGraphicMarkInstance@@QAE@XZ$0:
  00000	8b 4d f0	 mov	 ecx, DWORD PTR _this$[ebp]
  00003	83 c1 28	 add	 ecx, 40			; 00000028H
  00006	e9 00 00 00 00	 jmp	 ??1?$CRef@VCGraphicImage@@@@QAE@XZ ; CRef<CGraphicImage>::~CRef<CGraphicImage>
__unwindfunclet$??0CGraphicMarkInstance@@QAE@XZ$1:
  0000b	8b 4d f0	 mov	 ecx, DWORD PTR _this$[ebp]
  0000e	83 c1 2c	 add	 ecx, 44			; 0000002cH
  00011	e9 00 00 00 00	 jmp	 ??1?$basic_string@DU?$char_traits@D@std@@V?$allocator@D@2@@std@@QAE@XZ ; std::basic_string<char,std::char_traits<char>,std::allocator<char> >::~basic_string<char,std::char_traits<char>,std::allocator<char> >
  00016	cc		 int	 3
  00017	cc		 int	 3
  00018	cc		 int	 3
  00019	cc		 int	 3
  0001a	cc		 int	 3
__ehhandler$??0CGraphicMarkInstance@@QAE@XZ:
  0001b	90		 npad	 1
  0001c	90		 npad	 1
  0001d	8b 54 24 08	 mov	 edx, DWORD PTR [esp+8]
  00021	8d 42 0c	 lea	 eax, DWORD PTR [edx+12]
  00024	8b 4a f4	 mov	 ecx, DWORD PTR [edx-12]
  00027	33 c8		 xor	 ecx, eax
  00029	e8 00 00 00 00	 call	 @__security_check_cookie@4
  0002e	b8 00 00 00 00	 mov	 eax, OFFSET __ehfuncinfo$??0CGraphicMarkInstance@@QAE@XZ
  00033	e9 00 00 00 00	 jmp	 ___CxxFrameHandler3
text$x	ENDS
??0CGraphicMarkInstance@@QAE@XZ ENDP			; CGraphicMarkInstance::CGraphicMarkInstance
; Function compile flags: /Odspy
; File D:\Metin2 Server Files\mainline\SRC_2014\Metin2Client\EterLib\GrpMarkInstance.cpp
;	COMDAT ?GetImageFileName@CGraphicMarkInstance@@QAEABV?$basic_string@DU?$char_traits@D@std@@V?$allocator@D@2@@std@@XZ
_TEXT	SEGMENT
_this$ = -4						; size = 4
?GetImageFileName@CGraphicMarkInstance@@QAEABV?$basic_string@DU?$char_traits@D@std@@V?$allocator@D@2@@std@@XZ PROC ; CGraphicMarkInstance::GetImageFileName, COMDAT
; _this$ = ecx

; 16   : {

  00000	55		 push	 ebp
  00001	8b ec		 mov	 ebp, esp
  00003	51		 push	 ecx
  00004	89 4d fc	 mov	 DWORD PTR _this$[ebp], ecx

; 17   : 	return m_stImageFileName;

  00007	8b 45 fc	 mov	 eax, DWORD PTR _this$[ebp]
  0000a	83 c0 2c	 add	 eax, 44			; 0000002cH

; 18   : }

  0000d	c9		 leave
  0000e	c3		 ret	 0
?GetImageFileName@CGraphicMarkInstance@@QAEABV?$basic_string@DU?$char_traits@D@std@@V?$allocator@D@2@@std@@XZ ENDP ; CGraphicMarkInstance::GetImageFileName
_TEXT	ENDS
; Function compile flags: /Odspy
; File D:\Metin2 Server Files\mainline\SRC_2014\Metin2Client\EterLib\GrpMarkInstance.cpp
; File C:\Program Files (x86)\Microsoft Visual Studio\2019\Community\VC\Tools\MSVC\14.28.29333\include\xstring
; File C:\Program Files (x86)\Microsoft Visual Studio\2019\Community\VC\Tools\MSVC\14.28.29333\include\xmemory
; File C:\Program Files (x86)\Microsoft Visual Studio\2019\Community\VC\Tools\MSVC\14.28.29333\include\xstring
; File D:\Metin2 Server Files\mainline\SRC_2014\Metin2Client\EterLib\GrpMarkInstance.cpp
; File C:\Program Files (x86)\Microsoft Visual Studio\2019\Community\VC\Tools\MSVC\14.28.29333\include\xstring
; File D:\Metin2 Server Files\mainline\SRC_2014\Metin2Client\EterLib\GrpMarkInstance.cpp
;	COMDAT ?SetImageFileName@CGraphicMarkInstance@@QAEXPBD@Z
_TEXT	SEGMENT
_this$ = -12						; size = 4
$T1 = -8						; size = 4
$T2 = -4						; size = 4
_c_szFileName$ = 8					; size = 4
?SetImageFileName@CGraphicMarkInstance@@QAEXPBD@Z PROC	; CGraphicMarkInstance::SetImageFileName, COMDAT
; _this$ = ecx

; 11   : {

  00000	55		 push	 ebp
  00001	8b ec		 mov	 ebp, esp
  00003	83 ec 0c	 sub	 esp, 12			; 0000000cH
  00006	89 4d f4	 mov	 DWORD PTR _this$[ebp], ecx
; File C:\Program Files (x86)\Microsoft Visual Studio\2019\Community\VC\Tools\MSVC\14.28.29333\include\xstring

; 389  :         return _CSTD strlen(reinterpret_cast<const char*>(_First));

  00009	ff 75 08	 push	 DWORD PTR _c_szFileName$[ebp]
  0000c	e8 00 00 00 00	 call	 _strlen
  00011	59		 pop	 ecx
  00012	89 45 fc	 mov	 DWORD PTR $T2[ebp], eax
; File C:\Program Files (x86)\Microsoft Visual Studio\2019\Community\VC\Tools\MSVC\14.28.29333\include\xmemory

; 997  :     return _Len;

  00015	8b 45 fc	 mov	 eax, DWORD PTR $T2[ebp]
  00018	89 45 f8	 mov	 DWORD PTR $T1[ebp], eax
; File C:\Program Files (x86)\Microsoft Visual Studio\2019\Community\VC\Tools\MSVC\14.28.29333\include\xstring

; 3062 :         return assign(_Ptr, _Convert_size<size_type>(_Traits::length(_Ptr)));

  0001b	ff 75 f8	 push	 DWORD PTR $T1[ebp]
  0001e	ff 75 08	 push	 DWORD PTR _c_szFileName$[ebp]
; File D:\Metin2 Server Files\mainline\SRC_2014\Metin2Client\EterLib\GrpMarkInstance.cpp

; 12   : 	m_stImageFileName = c_szFileName;

  00021	8b 4d f4	 mov	 ecx, DWORD PTR _this$[ebp]
  00024	83 c1 2c	 add	 ecx, 44			; 0000002cH
; File C:\Program Files (x86)\Microsoft Visual Studio\2019\Community\VC\Tools\MSVC\14.28.29333\include\xstring

; 3062 :         return assign(_Ptr, _Convert_size<size_type>(_Traits::length(_Ptr)));

  00027	e8 00 00 00 00	 call	 ?assign@?$basic_string@DU?$char_traits@D@std@@V?$allocator@D@2@@std@@QAEAAV12@QBDI@Z ; std::basic_string<char,std::char_traits<char>,std::allocator<char> >::assign
; File D:\Metin2 Server Files\mainline\SRC_2014\Metin2Client\EterLib\GrpMarkInstance.cpp

; 13   : }

  0002c	c9		 leave
  0002d	c2 04 00	 ret	 4
?SetImageFileName@CGraphicMarkInstance@@QAEXPBD@Z ENDP	; CGraphicMarkInstance::SetImageFileName
_TEXT	ENDS
; Function compile flags: /Odspy
; File D:\Metin2 Server Files\mainline\SRC_2014\Metin2Client\EterLib\GrpMarkInstance.cpp
;	COMDAT ?IsType@CGraphicMarkInstance@@QAEHK@Z
_TEXT	SEGMENT
_this$ = -4						; size = 4
_dwType$ = 8						; size = 4
?IsType@CGraphicMarkInstance@@QAEHK@Z PROC		; CGraphicMarkInstance::IsType, COMDAT
; _this$ = ecx

; 218  : {

  00000	55		 push	 ebp
  00001	8b ec		 mov	 ebp, esp
  00003	51		 push	 ecx
  00004	89 4d fc	 mov	 DWORD PTR _this$[ebp], ecx

; 219  : 	return OnIsType(dwType);

  00007	ff 75 08	 push	 DWORD PTR _dwType$[ebp]
  0000a	8b 45 fc	 mov	 eax, DWORD PTR _this$[ebp]
  0000d	8b 00		 mov	 eax, DWORD PTR [eax]
  0000f	8b 4d fc	 mov	 ecx, DWORD PTR _this$[ebp]
  00012	ff 50 0c	 call	 DWORD PTR [eax+12]

; 220  : }

  00015	c9		 leave
  00016	c2 04 00	 ret	 4
?IsType@CGraphicMarkInstance@@QAEHK@Z ENDP		; CGraphicMarkInstance::IsType
_TEXT	ENDS
; Function compile flags: /Odspy
; File D:\Metin2 Server Files\mainline\SRC_2014\Metin2Client\EterLib\GrpMarkInstance.cpp
;	COMDAT ?Type@CGraphicMarkInstance@@SAKXZ
_TEXT	SEGMENT
__$EHRec$ = -12						; size = 12
?Type@CGraphicMarkInstance@@SAKXZ PROC			; CGraphicMarkInstance::Type, COMDAT

; 212  : {

  00000	55		 push	 ebp
  00001	8b ec		 mov	 ebp, esp
  00003	6a ff		 push	 -1
  00005	68 00 00 00 00	 push	 __ehhandler$?Type@CGraphicMarkInstance@@SAKXZ
  0000a	64 a1 00 00 00
	00		 mov	 eax, DWORD PTR fs:0
  00010	50		 push	 eax
  00011	a1 00 00 00 00	 mov	 eax, DWORD PTR ___security_cookie
  00016	33 c5		 xor	 eax, ebp
  00018	50		 push	 eax
  00019	8d 45 f4	 lea	 eax, DWORD PTR __$EHRec$[ebp]
  0001c	64 a3 00 00 00
	00		 mov	 DWORD PTR fs:0, eax

; 213  : 	static DWORD s_dwType = GetCRC32("CGraphicMarkInstance", strlen("CGraphicMarkInstance"));

  00022	a1 00 00 00 00	 mov	 eax, DWORD PTR __tls_index
  00027	64 8b 0d 00 00
	00 00		 mov	 ecx, DWORD PTR fs:__tls_array
  0002e	8b 04 81	 mov	 eax, DWORD PTR [ecx+eax*4]
  00031	8b 0d 00 00 00
	00		 mov	 ecx, DWORD PTR ?$TSS0@?1??Type@CGraphicMarkInstance@@SAKXZ@4HA
  00037	3b 88 00 00 00
	00		 cmp	 ecx, DWORD PTR __Init_thread_epoch[eax]
  0003d	7e 44		 jle	 SHORT $LN2@Type
  0003f	68 00 00 00 00	 push	 OFFSET ?$TSS0@?1??Type@CGraphicMarkInstance@@SAKXZ@4HA
  00044	e8 00 00 00 00	 call	 __Init_thread_header
  00049	59		 pop	 ecx
  0004a	83 3d 00 00 00
	00 ff		 cmp	 DWORD PTR ?$TSS0@?1??Type@CGraphicMarkInstance@@SAKXZ@4HA, -1
  00051	75 30		 jne	 SHORT $LN2@Type
  00053	83 65 fc 00	 and	 DWORD PTR __$EHRec$[ebp+8], 0
  00057	68 00 00 00 00	 push	 OFFSET ??_C@_0BF@BKIBHNLF@CGraphicMarkInstance@
  0005c	e8 00 00 00 00	 call	 _strlen
  00061	59		 pop	 ecx
  00062	50		 push	 eax
  00063	68 00 00 00 00	 push	 OFFSET ??_C@_0BF@BKIBHNLF@CGraphicMarkInstance@
  00068	e8 00 00 00 00	 call	 ?GetCRC32@@YAKPBDI@Z	; GetCRC32
  0006d	59		 pop	 ecx
  0006e	59		 pop	 ecx
  0006f	a3 00 00 00 00	 mov	 DWORD PTR ?s_dwType@?1??Type@CGraphicMarkInstance@@SAKXZ@4KA, eax
  00074	83 4d fc ff	 or	 DWORD PTR __$EHRec$[ebp+8], -1
  00078	68 00 00 00 00	 push	 OFFSET ?$TSS0@?1??Type@CGraphicMarkInstance@@SAKXZ@4HA
  0007d	e8 00 00 00 00	 call	 __Init_thread_footer
  00082	59		 pop	 ecx
$LN2@Type:

; 214  : 	return (s_dwType);

  00083	a1 00 00 00 00	 mov	 eax, DWORD PTR ?s_dwType@?1??Type@CGraphicMarkInstance@@SAKXZ@4KA

; 215  : }

  00088	8b 4d f4	 mov	 ecx, DWORD PTR __$EHRec$[ebp]
  0008b	64 89 0d 00 00
	00 00		 mov	 DWORD PTR fs:0, ecx
  00092	59		 pop	 ecx
  00093	c9		 leave
  00094	c3		 ret	 0
_TEXT	ENDS
;	COMDAT text$x
text$x	SEGMENT
__unwindfunclet$?Type@CGraphicMarkInstance@@SAKXZ$0:
  00000	68 00 00 00 00	 push	 OFFSET ?$TSS0@?1??Type@CGraphicMarkInstance@@SAKXZ@4HA
  00005	e8 00 00 00 00	 call	 __Init_thread_abort
  0000a	59		 pop	 ecx
  0000b	c3		 ret	 0
  0000c	cc		 int	 3
  0000d	cc		 int	 3
  0000e	cc		 int	 3
  0000f	cc		 int	 3
  00010	cc		 int	 3
__ehhandler$?Type@CGraphicMarkInstance@@SAKXZ:
  00011	90		 npad	 1
  00012	90		 npad	 1
  00013	8b 54 24 08	 mov	 edx, DWORD PTR [esp+8]
  00017	8d 42 0c	 lea	 eax, DWORD PTR [edx+12]
  0001a	8b 4a fc	 mov	 ecx, DWORD PTR [edx-4]
  0001d	33 c8		 xor	 ecx, eax
  0001f	e8 00 00 00 00	 call	 @__security_check_cookie@4
  00024	b8 00 00 00 00	 mov	 eax, OFFSET __ehfuncinfo$?Type@CGraphicMarkInstance@@SAKXZ
  00029	e9 00 00 00 00	 jmp	 ___CxxFrameHandler3
text$x	ENDS
?Type@CGraphicMarkInstance@@SAKXZ ENDP			; CGraphicMarkInstance::Type
; Function compile flags: /Odspy
; File C:\Program Files (x86)\Microsoft Visual Studio\2019\Community\VC\Tools\MSVC\14.28.29333\include\xmemory
;	COMDAT ??$_Allocate_manually_vector_aligned@U_Default_allocate_traits@std@@@std@@YAPAXI@Z
_TEXT	SEGMENT
__Ptr$ = -12						; size = 4
__Block_size$ = -8					; size = 4
__Ptr_container$ = -4					; size = 4
__Bytes$ = 8						; size = 4
??$_Allocate_manually_vector_aligned@U_Default_allocate_traits@std@@@std@@YAPAXI@Z PROC ; std::_Allocate_manually_vector_aligned<std::_Default_allocate_traits>, COMDAT

; 113  : __declspec(allocator) void* _Allocate_manually_vector_aligned(const size_t _Bytes) {

  00000	55		 push	 ebp
  00001	8b ec		 mov	 ebp, esp
  00003	83 ec 0c	 sub	 esp, 12			; 0000000cH

; 114  :     // allocate _Bytes manually aligned to at least _Big_allocation_alignment
; 115  :     const size_t _Block_size = _Non_user_size + _Bytes;

  00006	8b 45 08	 mov	 eax, DWORD PTR __Bytes$[ebp]
  00009	83 c0 23	 add	 eax, 35			; 00000023H
  0000c	89 45 f8	 mov	 DWORD PTR __Block_size$[ebp], eax

; 116  :     if (_Block_size <= _Bytes) {

  0000f	8b 45 f8	 mov	 eax, DWORD PTR __Block_size$[ebp]
  00012	3b 45 08	 cmp	 eax, DWORD PTR __Bytes$[ebp]
  00015	77 05		 ja	 SHORT $LN12@Allocate_m

; 117  :         _Throw_bad_array_new_length(); // add overflow

  00017	e8 00 00 00 00	 call	 ?_Throw_bad_array_new_length@std@@YAXXZ ; std::_Throw_bad_array_new_length
$LN12@Allocate_m:

; 77   :         return ::operator new(_Bytes);

  0001c	ff 75 f8	 push	 DWORD PTR __Block_size$[ebp]
  0001f	e8 00 00 00 00	 call	 ??2@YAPAXI@Z		; operator new
  00024	59		 pop	 ecx

; 118  :     }
; 119  : 
; 120  :     const uintptr_t _Ptr_container = reinterpret_cast<uintptr_t>(_Traits::_Allocate(_Block_size));

  00025	89 45 fc	 mov	 DWORD PTR __Ptr_container$[ebp], eax
$LN4@Allocate_m:

; 121  :     _STL_VERIFY(_Ptr_container != 0, "invalid argument"); // validate even in release since we're doing p[-1]

  00028	83 7d fc 00	 cmp	 DWORD PTR __Ptr_container$[ebp], 0
  0002c	74 02		 je	 SHORT $LN7@Allocate_m
  0002e	eb 09		 jmp	 SHORT $LN2@Allocate_m
$LN7@Allocate_m:
  00030	e8 00 00 00 00	 call	 __invalid_parameter_noinfo_noreturn
  00035	33 c0		 xor	 eax, eax
  00037	75 f7		 jne	 SHORT $LN7@Allocate_m
$LN2@Allocate_m:
  00039	33 c0		 xor	 eax, eax
  0003b	75 eb		 jne	 SHORT $LN4@Allocate_m

; 122  :     void* const _Ptr = reinterpret_cast<void*>((_Ptr_container + _Non_user_size) & ~(_Big_allocation_alignment - 1));

  0003d	8b 45 fc	 mov	 eax, DWORD PTR __Ptr_container$[ebp]
  00040	83 c0 23	 add	 eax, 35			; 00000023H
  00043	83 e0 e0	 and	 eax, -32		; ffffffe0H
  00046	89 45 f4	 mov	 DWORD PTR __Ptr$[ebp], eax

; 123  :     static_cast<uintptr_t*>(_Ptr)[-1] = _Ptr_container;

  00049	6a 04		 push	 4
  0004b	58		 pop	 eax
  0004c	6b c0 ff	 imul	 eax, eax, -1
  0004f	8b 4d f4	 mov	 ecx, DWORD PTR __Ptr$[ebp]
  00052	8b 55 fc	 mov	 edx, DWORD PTR __Ptr_container$[ebp]
  00055	89 14 01	 mov	 DWORD PTR [ecx+eax], edx

; 124  : 
; 125  : #ifdef _DEBUG
; 126  :     static_cast<uintptr_t*>(_Ptr)[-2] = _Big_allocation_sentinel;
; 127  : #endif // _DEBUG
; 128  :     return _Ptr;

  00058	8b 45 f4	 mov	 eax, DWORD PTR __Ptr$[ebp]
$LN11@Allocate_m:

; 129  : }

  0005b	c9		 leave
  0005c	c3		 ret	 0
??$_Allocate_manually_vector_aligned@U_Default_allocate_traits@std@@@std@@YAPAXI@Z ENDP ; std::_Allocate_manually_vector_aligned<std::_Default_allocate_traits>
_TEXT	ENDS
; Function compile flags: /Odspy
; File C:\Program Files (x86)\Microsoft Visual Studio\2019\Community\VC\Tools\MSVC\14.28.29333\include\xmemory
;	COMDAT ??$_Allocate@$07U_Default_allocate_traits@std@@$0A@@std@@YAPAXI@Z
_TEXT	SEGMENT
__Bytes$ = 8						; size = 4
??$_Allocate@$07U_Default_allocate_traits@std@@$0A@@std@@YAPAXI@Z PROC ; std::_Allocate<8,std::_Default_allocate_traits,0>, COMDAT

; 197  : __declspec(allocator) void* _Allocate(const size_t _Bytes) {

  00000	55		 push	 ebp
  00001	8b ec		 mov	 ebp, esp

; 198  :     // allocate _Bytes when !_HAS_ALIGNED_NEW || _Align <= __STDCPP_DEFAULT_NEW_ALIGNMENT__
; 199  : #if defined(_M_IX86) || defined(_M_X64)
; 200  :     if (_Bytes >= _Big_allocation_threshold) { // boost the alignment of big allocations to help autovectorization

  00003	81 7d 08 00 10
	00 00		 cmp	 DWORD PTR __Bytes$[ebp], 4096 ; 00001000H
  0000a	72 0b		 jb	 SHORT $LN2@Allocate

; 201  :         return _Allocate_manually_vector_aligned<_Traits>(_Bytes);

  0000c	ff 75 08	 push	 DWORD PTR __Bytes$[ebp]
  0000f	e8 00 00 00 00	 call	 ??$_Allocate_manually_vector_aligned@U_Default_allocate_traits@std@@@std@@YAPAXI@Z ; std::_Allocate_manually_vector_aligned<std::_Default_allocate_traits>
  00014	59		 pop	 ecx
  00015	eb 13		 jmp	 SHORT $LN1@Allocate
$LN2@Allocate:

; 202  :     }
; 203  : #endif // defined(_M_IX86) || defined(_M_X64)
; 204  : 
; 205  :     if (_Bytes != 0) {

  00017	83 7d 08 00	 cmp	 DWORD PTR __Bytes$[ebp], 0
  0001b	74 0b		 je	 SHORT $LN3@Allocate

; 77   :         return ::operator new(_Bytes);

  0001d	ff 75 08	 push	 DWORD PTR __Bytes$[ebp]
  00020	e8 00 00 00 00	 call	 ??2@YAPAXI@Z		; operator new
  00025	59		 pop	 ecx

; 206  :         return _Traits::_Allocate(_Bytes);

  00026	eb 02		 jmp	 SHORT $LN1@Allocate
$LN3@Allocate:

; 207  :     }
; 208  : 
; 209  :     return nullptr;

  00028	33 c0		 xor	 eax, eax
$LN1@Allocate:

; 210  : }

  0002a	5d		 pop	 ebp
  0002b	c3		 ret	 0
??$_Allocate@$07U_Default_allocate_traits@std@@$0A@@std@@YAPAXI@Z ENDP ; std::_Allocate<8,std::_Default_allocate_traits,0>
_TEXT	ENDS
; Function compile flags: /Odspy
; File C:\Program Files (x86)\Microsoft Visual Studio\2019\Community\VC\Tools\MSVC\14.28.29333\include\xmemory
;	COMDAT ??$_Deallocate@$07$0A@@std@@YAXPAXI@Z
_TEXT	SEGMENT
__$EHRec$ = -12						; size = 12
__Ptr$ = 8						; size = 4
__Bytes$ = 12						; size = 4
??$_Deallocate@$07$0A@@std@@YAXPAXI@Z PROC		; std::_Deallocate<8,0>, COMDAT

; 213  : void _Deallocate(void* _Ptr, size_t _Bytes) noexcept {

  00000	55		 push	 ebp
  00001	8b ec		 mov	 ebp, esp
  00003	6a ff		 push	 -1
  00005	68 00 00 00 00	 push	 __ehhandler$??$_Deallocate@$07$0A@@std@@YAXPAXI@Z
  0000a	64 a1 00 00 00
	00		 mov	 eax, DWORD PTR fs:0
  00010	50		 push	 eax
  00011	a1 00 00 00 00	 mov	 eax, DWORD PTR ___security_cookie
  00016	33 c5		 xor	 eax, ebp
  00018	50		 push	 eax
  00019	8d 45 f4	 lea	 eax, DWORD PTR __$EHRec$[ebp]
  0001c	64 a3 00 00 00
	00		 mov	 DWORD PTR fs:0, eax

; 214  :     // deallocate storage allocated by _Allocate when !_HAS_ALIGNED_NEW || _Align <= __STDCPP_DEFAULT_NEW_ALIGNMENT__
; 215  : #if defined(_M_IX86) || defined(_M_X64)
; 216  :     if (_Bytes >= _Big_allocation_threshold) { // boost the alignment of big allocations to help autovectorization

  00022	81 7d 0c 00 10
	00 00		 cmp	 DWORD PTR __Bytes$[ebp], 4096 ; 00001000H
  00029	72 0f		 jb	 SHORT $LN2@Deallocate

; 217  :         _Adjust_manually_vector_aligned(_Ptr, _Bytes);

  0002b	8d 45 0c	 lea	 eax, DWORD PTR __Bytes$[ebp]
  0002e	50		 push	 eax
  0002f	8d 45 08	 lea	 eax, DWORD PTR __Ptr$[ebp]
  00032	50		 push	 eax
  00033	e8 00 00 00 00	 call	 ?_Adjust_manually_vector_aligned@std@@YAXAAPAXAAI@Z ; std::_Adjust_manually_vector_aligned
  00038	59		 pop	 ecx
  00039	59		 pop	 ecx
$LN2@Deallocate:

; 218  :     }
; 219  : #endif // defined(_M_IX86) || defined(_M_X64)
; 220  : 
; 221  :     ::operator delete(_Ptr, _Bytes);

  0003a	ff 75 0c	 push	 DWORD PTR __Bytes$[ebp]
  0003d	ff 75 08	 push	 DWORD PTR __Ptr$[ebp]
  00040	e8 00 00 00 00	 call	 ??3@YAXPAXI@Z		; operator delete
  00045	59		 pop	 ecx
  00046	59		 pop	 ecx

; 222  : }

  00047	8b 4d f4	 mov	 ecx, DWORD PTR __$EHRec$[ebp]
  0004a	64 89 0d 00 00
	00 00		 mov	 DWORD PTR fs:0, ecx
  00051	59		 pop	 ecx
  00052	c9		 leave
  00053	c3		 ret	 0
  00054	cc		 int	 3
  00055	cc		 int	 3
  00056	cc		 int	 3
  00057	cc		 int	 3
  00058	cc		 int	 3
_TEXT	ENDS
;	COMDAT text$x
text$x	SEGMENT
__ehhandler$??$_Deallocate@$07$0A@@std@@YAXPAXI@Z:
  00000	90		 npad	 1
  00001	90		 npad	 1
  00002	8b 54 24 08	 mov	 edx, DWORD PTR [esp+8]
  00006	8d 42 0c	 lea	 eax, DWORD PTR [edx+12]
  00009	8b 4a fc	 mov	 ecx, DWORD PTR [edx-4]
  0000c	33 c8		 xor	 ecx, eax
  0000e	e8 00 00 00 00	 call	 @__security_check_cookie@4
  00013	b8 00 00 00 00	 mov	 eax, OFFSET __ehfuncinfo$??$_Deallocate@$07$0A@@std@@YAXPAXI@Z
  00018	e9 00 00 00 00	 jmp	 ___CxxFrameHandler3
text$x	ENDS
??$_Deallocate@$07$0A@@std@@YAXPAXI@Z ENDP		; std::_Deallocate<8,0>
; Function compile flags: /Odspy
; File C:\Program Files (x86)\Microsoft Visual Studio\2019\Community\VC\Tools\MSVC\14.28.29333\include\xmemory
; File C:\Program Files (x86)\Microsoft Visual Studio\2019\Community\VC\Tools\MSVC\14.28.29333\include\xstddef
; File C:\Program Files (x86)\Microsoft Visual Studio\2019\Community\VC\Tools\MSVC\14.28.29333\include\vcruntime_new.h
; File C:\Program Files (x86)\Microsoft Visual Studio\2019\Community\VC\Tools\MSVC\14.28.29333\include\type_traits
; File C:\Program Files (x86)\Microsoft Visual Studio\2019\Community\VC\Tools\MSVC\14.28.29333\include\xmemory
;	COMDAT ??$_Construct_in_place@PADABQAD@std@@YAXAAPADABQAD@Z
_TEXT	SEGMENT
$T1 = -12						; size = 4
$T2 = -8						; size = 4
$T3 = -4						; size = 4
__Obj$ = 8						; size = 4
_<_Args_0>$ = 12					; size = 4
??$_Construct_in_place@PADABQAD@std@@YAXAAPADABQAD@Z PROC ; std::_Construct_in_place<char *,char * const &>, COMDAT

; 228  : void _Construct_in_place(_Ty& _Obj, _Types&&... _Args) noexcept(is_nothrow_constructible_v<_Ty, _Types...>) {

  00000	55		 push	 ebp
  00001	8b ec		 mov	 ebp, esp
  00003	83 ec 0c	 sub	 esp, 12			; 0000000cH
; File C:\Program Files (x86)\Microsoft Visual Studio\2019\Community\VC\Tools\MSVC\14.28.29333\include\xstddef

; 275  :     return __builtin_addressof(_Val);

  00006	8b 45 08	 mov	 eax, DWORD PTR __Obj$[ebp]
  00009	89 45 fc	 mov	 DWORD PTR $T3[ebp], eax
; File C:\Program Files (x86)\Microsoft Visual Studio\2019\Community\VC\Tools\MSVC\14.28.29333\include\vcruntime_new.h

; 169  :         return _Where;

  0000c	8b 45 fc	 mov	 eax, DWORD PTR $T3[ebp]
  0000f	89 45 f8	 mov	 DWORD PTR $T2[ebp], eax
; File C:\Program Files (x86)\Microsoft Visual Studio\2019\Community\VC\Tools\MSVC\14.28.29333\include\type_traits

; 1443 :     return static_cast<_Ty&&>(_Arg);

  00012	8b 45 0c	 mov	 eax, DWORD PTR _<_Args_0>$[ebp]
  00015	89 45 f4	 mov	 DWORD PTR $T1[ebp], eax
; File C:\Program Files (x86)\Microsoft Visual Studio\2019\Community\VC\Tools\MSVC\14.28.29333\include\xmemory

; 229  :     ::new (const_cast<void*>(static_cast<const volatile void*>(_STD addressof(_Obj))))

  00018	8b 45 f8	 mov	 eax, DWORD PTR $T2[ebp]
  0001b	8b 4d f4	 mov	 ecx, DWORD PTR $T1[ebp]
  0001e	8b 09		 mov	 ecx, DWORD PTR [ecx]
  00020	89 08		 mov	 DWORD PTR [eax], ecx

; 230  :         _Ty(_STD forward<_Types>(_Args)...);
; 231  : }

  00022	c9		 leave
  00023	c3		 ret	 0
??$_Construct_in_place@PADABQAD@std@@YAXAAPADABQAD@Z ENDP ; std::_Construct_in_place<char *,char * const &>
_TEXT	ENDS
; Function compile flags: /Odspy
; File C:\Program Files (x86)\Microsoft Visual Studio\2019\Community\VC\Tools\MSVC\14.28.29333\include\xstring
; File C:\Program Files (x86)\Microsoft Visual Studio\2019\Community\VC\Tools\MSVC\14.28.29333\include\xmemory
; File C:\Program Files (x86)\Microsoft Visual Studio\2019\Community\VC\Tools\MSVC\14.28.29333\include\xstring
; File C:\Program Files (x86)\Microsoft Visual Studio\2019\Community\VC\Tools\MSVC\14.28.29333\include\xmemory
; File C:\Program Files (x86)\Microsoft Visual Studio\2019\Community\VC\Tools\MSVC\14.28.29333\include\xstring
; File C:\Program Files (x86)\Microsoft Visual Studio\2019\Community\VC\Tools\MSVC\14.28.29333\include\xmemory
; File C:\Program Files (x86)\Microsoft Visual Studio\2019\Community\VC\Tools\MSVC\14.28.29333\include\xstring
; File C:\Program Files (x86)\Microsoft Visual Studio\2019\Community\VC\Tools\MSVC\14.28.29333\include\xstddef
; File C:\Program Files (x86)\Microsoft Visual Studio\2019\Community\VC\Tools\MSVC\14.28.29333\include\xstring
; File C:\Program Files (x86)\Microsoft Visual Studio\2019\Community\VC\Tools\MSVC\14.28.29333\include\xmemory
; File C:\Program Files (x86)\Microsoft Visual Studio\2019\Community\VC\Tools\MSVC\14.28.29333\include\xstring
;	COMDAT ??$_Reallocate_for@V<lambda_9366063389c5f42a00a5088cf24e69de>@@PBD@?$basic_string@DU?$char_traits@D@std@@V?$allocator@D@2@@std@@AAEAAV01@IV<lambda_9366063389c5f42a00a5088cf24e69de>@@PBD@Z
_TEXT	SEGMENT
__Al$ = -40						; size = 4
__Ptr$ = -36						; size = 4
__Ptr$ = -32						; size = 4
$T1 = -28						; size = 4
__Old_capacity$ = -24					; size = 4
$T2 = -20						; size = 4
__New_capacity$ = -16					; size = 4
__New_ptr$ = -12					; size = 4
_this$ = -8						; size = 4
__Overflow_is_possible$3 = -2				; size = 1
$T4 = -1						; size = 1
__New_size$ = 8						; size = 4
__Fn$ = 12						; size = 1
_<_Args_0>$ = 16					; size = 4
??$_Reallocate_for@V<lambda_9366063389c5f42a00a5088cf24e69de>@@PBD@?$basic_string@DU?$char_traits@D@std@@V?$allocator@D@2@@std@@AAEAAV01@IV<lambda_9366063389c5f42a00a5088cf24e69de>@@PBD@Z PROC ; std::basic_string<char,std::char_traits<char>,std::allocator<char> >::_Reallocate_for<<lambda_9366063389c5f42a00a5088cf24e69de>,char const *>, COMDAT
; _this$ = ecx

; 4302 :     basic_string& _Reallocate_for(const size_type _New_size, _Fty _Fn, _ArgTys... _Args) {

  00000	55		 push	 ebp
  00001	8b ec		 mov	 ebp, esp
  00003	83 ec 28	 sub	 esp, 40			; 00000028H
  00006	89 4d f8	 mov	 DWORD PTR _this$[ebp], ecx

; 4303 :         // reallocate to store exactly _New_size elements, new buffer prepared by
; 4304 :         // _Fn(_New_ptr, _New_size, _Args...)
; 4305 :         if (_New_size > max_size()) {

  00009	8b 4d f8	 mov	 ecx, DWORD PTR _this$[ebp]
  0000c	e8 00 00 00 00	 call	 ?max_size@?$basic_string@DU?$char_traits@D@std@@V?$allocator@D@2@@std@@QBEIXZ ; std::basic_string<char,std::char_traits<char>,std::allocator<char> >::max_size
  00011	39 45 08	 cmp	 DWORD PTR __New_size$[ebp], eax
  00014	76 05		 jbe	 SHORT $LN2@Reallocate

; 4306 :             _Xlen_string(); // result too long

  00016	e8 00 00 00 00	 call	 ?_Xlen_string@std@@YAXXZ ; std::_Xlen_string
$LN2@Reallocate:

; 4307 :         }
; 4308 : 
; 4309 :         const size_type _Old_capacity = _Mypair._Myval2._Myres;

  0001b	8b 45 f8	 mov	 eax, DWORD PTR _this$[ebp]
  0001e	8b 40 14	 mov	 eax, DWORD PTR [eax+20]
  00021	89 45 e8	 mov	 DWORD PTR __Old_capacity$[ebp], eax

; 4310 :         const size_type _New_capacity = _Calculate_growth(_New_size);

  00024	ff 75 08	 push	 DWORD PTR __New_size$[ebp]
  00027	8b 4d f8	 mov	 ecx, DWORD PTR _this$[ebp]
  0002a	e8 00 00 00 00	 call	 ?_Calculate_growth@?$basic_string@DU?$char_traits@D@std@@V?$allocator@D@2@@std@@ABEII@Z ; std::basic_string<char,std::char_traits<char>,std::allocator<char> >::_Calculate_growth
  0002f	89 45 f0	 mov	 DWORD PTR __New_capacity$[ebp], eax

; 4409 :         return _Mypair._Get_first();

  00032	8b 45 f8	 mov	 eax, DWORD PTR _this$[ebp]
; File C:\Program Files (x86)\Microsoft Visual Studio\2019\Community\VC\Tools\MSVC\14.28.29333\include\xmemory

; 1347 :         return *this;

  00035	89 45 e4	 mov	 DWORD PTR $T1[ebp], eax
; File C:\Program Files (x86)\Microsoft Visual Studio\2019\Community\VC\Tools\MSVC\14.28.29333\include\xstring

; 4409 :         return _Mypair._Get_first();

  00038	8b 45 e4	 mov	 eax, DWORD PTR $T1[ebp]
  0003b	89 45 d8	 mov	 DWORD PTR __Al$[ebp], eax
; File C:\Program Files (x86)\Microsoft Visual Studio\2019\Community\VC\Tools\MSVC\14.28.29333\include\xmemory

; 56   :     constexpr bool _Overflow_is_possible = _Ty_size > 1;

  0003e	c6 45 fe 00	 mov	 BYTE PTR __Overflow_is_possible$3[ebp], 0
; File C:\Program Files (x86)\Microsoft Visual Studio\2019\Community\VC\Tools\MSVC\14.28.29333\include\xstring

; 4312 :         const pointer _New_ptr        = _Al.allocate(_New_capacity + 1); // throws

  00042	8b 45 f0	 mov	 eax, DWORD PTR __New_capacity$[ebp]
  00045	40		 inc	 eax
; File C:\Program Files (x86)\Microsoft Visual Studio\2019\Community\VC\Tools\MSVC\14.28.29333\include\xmemory

; 814  :         return static_cast<_Ty*>(_Allocate<_New_alignof<_Ty>>(_Get_size_of_n<sizeof(_Ty)>(_Count)));

  00046	50		 push	 eax
  00047	e8 00 00 00 00	 call	 ??$_Allocate@$07U_Default_allocate_traits@std@@$0A@@std@@YAPAXI@Z ; std::_Allocate<8,std::_Default_allocate_traits,0>
  0004c	59		 pop	 ecx
; File C:\Program Files (x86)\Microsoft Visual Studio\2019\Community\VC\Tools\MSVC\14.28.29333\include\xstring

; 4312 :         const pointer _New_ptr        = _Al.allocate(_New_capacity + 1); // throws

  0004d	89 45 f4	 mov	 DWORD PTR __New_ptr$[ebp], eax

; 4313 :         _Mypair._Myval2._Orphan_all();
; 4314 :         _Mypair._Myval2._Mysize = _New_size;

  00050	8b 45 f8	 mov	 eax, DWORD PTR _this$[ebp]
  00053	8b 4d 08	 mov	 ecx, DWORD PTR __New_size$[ebp]
  00056	89 48 10	 mov	 DWORD PTR [eax+16], ecx

; 4315 :         _Mypair._Myval2._Myres  = _New_capacity;

  00059	8b 45 f8	 mov	 eax, DWORD PTR _this$[ebp]
  0005c	8b 4d f0	 mov	 ecx, DWORD PTR __New_capacity$[ebp]
  0005f	89 48 14	 mov	 DWORD PTR [eax+20], ecx

; 4316 :         _Fn(_Unfancy(_New_ptr), _New_size, _Args...);

  00062	8b 45 f4	 mov	 eax, DWORD PTR __New_ptr$[ebp]
  00065	89 45 e0	 mov	 DWORD PTR __Ptr$[ebp], eax
; File C:\Program Files (x86)\Microsoft Visual Studio\2019\Community\VC\Tools\MSVC\14.28.29333\include\xstddef

; 289  :     return _Ptr;

  00068	8b 45 e0	 mov	 eax, DWORD PTR __Ptr$[ebp]
  0006b	89 45 ec	 mov	 DWORD PTR $T2[ebp], eax
; File C:\Program Files (x86)\Microsoft Visual Studio\2019\Community\VC\Tools\MSVC\14.28.29333\include\xstring

; 62   :         _CSTD memcpy(_First1, _First2, _Count * sizeof(_Elem));

  0006e	ff 75 08	 push	 DWORD PTR __New_size$[ebp]
  00071	ff 75 10	 push	 DWORD PTR _<_Args_0>$[ebp]
  00074	ff 75 ec	 push	 DWORD PTR $T2[ebp]
  00077	e8 00 00 00 00	 call	 _memcpy
  0007c	83 c4 0c	 add	 esp, 12			; 0000000cH

; 3056 :                 _Traits::assign(_New_ptr[_Count], _Elem());

  0007f	c6 45 ff 00	 mov	 BYTE PTR $T4[ebp], 0

; 428  :         _Left = _Right;

  00083	8b 45 ec	 mov	 eax, DWORD PTR $T2[ebp]
  00086	03 45 08	 add	 eax, DWORD PTR __New_size$[ebp]
  00089	8a 4d ff	 mov	 cl, BYTE PTR $T4[ebp]
  0008c	88 08		 mov	 BYTE PTR [eax], cl

; 4317 :         if (_BUF_SIZE <= _Old_capacity) {

  0008e	83 7d e8 10	 cmp	 DWORD PTR __Old_capacity$[ebp], 16 ; 00000010H
  00092	72 21		 jb	 SHORT $LN3@Reallocate

; 4318 :             _Al.deallocate(_Mypair._Myval2._Bx._Ptr, _Old_capacity + 1);

  00094	8b 45 f8	 mov	 eax, DWORD PTR _this$[ebp]
  00097	8b 00		 mov	 eax, DWORD PTR [eax]
  00099	89 45 dc	 mov	 DWORD PTR __Ptr$[ebp], eax
  0009c	8b 45 e8	 mov	 eax, DWORD PTR __Old_capacity$[ebp]
  0009f	40		 inc	 eax
; File C:\Program Files (x86)\Microsoft Visual Studio\2019\Community\VC\Tools\MSVC\14.28.29333\include\xmemory

; 810  :         _Deallocate<_New_alignof<_Ty>>(_Ptr, sizeof(_Ty) * _Count);

  000a0	50		 push	 eax
  000a1	ff 75 dc	 push	 DWORD PTR __Ptr$[ebp]
  000a4	e8 00 00 00 00	 call	 ??$_Deallocate@$07$0A@@std@@YAXPAXI@Z ; std::_Deallocate<8,0>
  000a9	59		 pop	 ecx
  000aa	59		 pop	 ecx
; File C:\Program Files (x86)\Microsoft Visual Studio\2019\Community\VC\Tools\MSVC\14.28.29333\include\xstring

; 4319 :             _Mypair._Myval2._Bx._Ptr = _New_ptr;

  000ab	8b 45 f8	 mov	 eax, DWORD PTR _this$[ebp]
  000ae	8b 4d f4	 mov	 ecx, DWORD PTR __New_ptr$[ebp]
  000b1	89 08		 mov	 DWORD PTR [eax], ecx

; 4320 :         } else {

  000b3	eb 0e		 jmp	 SHORT $LN4@Reallocate
$LN3@Reallocate:

; 4321 :             _Construct_in_place(_Mypair._Myval2._Bx._Ptr, _New_ptr);

  000b5	8d 45 f4	 lea	 eax, DWORD PTR __New_ptr$[ebp]
  000b8	50		 push	 eax
  000b9	ff 75 f8	 push	 DWORD PTR _this$[ebp]
  000bc	e8 00 00 00 00	 call	 ??$_Construct_in_place@PADABQAD@std@@YAXAAPADABQAD@Z ; std::_Construct_in_place<char *,char * const &>
  000c1	59		 pop	 ecx
  000c2	59		 pop	 ecx
$LN4@Reallocate:

; 4322 :         }
; 4323 : 
; 4324 :         return *this;

  000c3	8b 45 f8	 mov	 eax, DWORD PTR _this$[ebp]
$LN5@Reallocate:

; 4325 :     }

  000c6	c9		 leave
  000c7	c2 0c 00	 ret	 12			; 0000000cH
??$_Reallocate_for@V<lambda_9366063389c5f42a00a5088cf24e69de>@@PBD@?$basic_string@DU?$char_traits@D@std@@V?$allocator@D@2@@std@@AAEAAV01@IV<lambda_9366063389c5f42a00a5088cf24e69de>@@PBD@Z ENDP ; std::basic_string<char,std::char_traits<char>,std::allocator<char> >::_Reallocate_for<<lambda_9366063389c5f42a00a5088cf24e69de>,char const *>
_TEXT	ENDS
; Function compile flags: /Odspy
; File C:\Program Files (x86)\Microsoft Visual Studio\2019\Community\VC\Tools\MSVC\14.28.29333\include\xmemory
;	COMDAT ??$_Destroy_in_place@PAD@std@@YAXAAPAD@Z
_TEXT	SEGMENT
__Obj$ = 8						; size = 4
??$_Destroy_in_place@PAD@std@@YAXAAPAD@Z PROC		; std::_Destroy_in_place<char *>, COMDAT

; 270  : /* _CONSTEXPR20_DYNALLOC */ void _Destroy_in_place(_Ty& _Obj) noexcept {

  00000	55		 push	 ebp
  00001	8b ec		 mov	 ebp, esp

; 271  : #if _HAS_IF_CONSTEXPR
; 272  :     if constexpr (is_array_v<_Ty>) {
; 273  :         _Destroy_range(_Obj, _Obj + extent_v<_Ty>);
; 274  :     } else
; 275  : #endif // _HAS_IF_CONSTEXPR
; 276  :     {
; 277  :         _Obj.~_Ty();
; 278  :     }
; 279  : }

  00003	5d		 pop	 ebp
  00004	c3		 ret	 0
??$_Destroy_in_place@PAD@std@@YAXAAPAD@Z ENDP		; std::_Destroy_in_place<char *>
_TEXT	ENDS
; Function compile flags: /Odspy
; File C:\Program Files (x86)\Microsoft Visual Studio\2019\Community\VC\Tools\MSVC\14.28.29333\include\xstring
; File C:\Program Files (x86)\Microsoft Visual Studio\2019\Community\VC\Tools\MSVC\14.28.29333\include\xmemory
; File C:\Program Files (x86)\Microsoft Visual Studio\2019\Community\VC\Tools\MSVC\14.28.29333\include\xstring
; File C:\Program Files (x86)\Microsoft Visual Studio\2019\Community\VC\Tools\MSVC\14.28.29333\include\xmemory
; File C:\Program Files (x86)\Microsoft Visual Studio\2019\Community\VC\Tools\MSVC\14.28.29333\include\xstring
;	COMDAT ?_Tidy_deallocate@?$basic_string@DU?$char_traits@D@std@@V?$allocator@D@2@@std@@AAEXXZ
_TEXT	SEGMENT
__Al$1 = -28						; size = 4
__Ptr$2 = -24						; size = 4
__Count$ = -20						; size = 4
$T3 = -16						; size = 4
tv68 = -12						; size = 4
_this$ = -8						; size = 4
$T4 = -2						; size = 1
$T5 = -1						; size = 1
?_Tidy_deallocate@?$basic_string@DU?$char_traits@D@std@@V?$allocator@D@2@@std@@AAEXXZ PROC ; std::basic_string<char,std::char_traits<char>,std::allocator<char> >::_Tidy_deallocate, COMDAT
; _this$ = ecx

; 4383 :     void _Tidy_deallocate() noexcept { // initialize buffer, deallocating any storage

  00000	55		 push	 ebp
  00001	8b ec		 mov	 ebp, esp
  00003	83 ec 1c	 sub	 esp, 28			; 0000001cH
  00006	89 4d f8	 mov	 DWORD PTR _this$[ebp], ecx

; 2227 :         return _BUF_SIZE <= _Myres;

  00009	8b 45 f8	 mov	 eax, DWORD PTR _this$[ebp]
  0000c	83 78 14 10	 cmp	 DWORD PTR [eax+20], 16	; 00000010H
  00010	72 09		 jb	 SHORT $LN9@Tidy_deall
  00012	c7 45 f4 01 00
	00 00		 mov	 DWORD PTR tv68[ebp], 1
  00019	eb 04		 jmp	 SHORT $LN10@Tidy_deall
$LN9@Tidy_deall:
  0001b	83 65 f4 00	 and	 DWORD PTR tv68[ebp], 0
$LN10@Tidy_deall:
  0001f	8a 45 f4	 mov	 al, BYTE PTR tv68[ebp]
  00022	88 45 ff	 mov	 BYTE PTR $T5[ebp], al

; 4384 :         _Mypair._Myval2._Orphan_all();
; 4385 :         if (_Mypair._Myval2._Large_string_engaged()) {

  00025	0f b6 45 ff	 movzx	 eax, BYTE PTR $T5[ebp]
  00029	85 c0		 test	 eax, eax
  0002b	74 34		 je	 SHORT $LN2@Tidy_deall

; 4386 :             const pointer _Ptr = _Mypair._Myval2._Bx._Ptr;

  0002d	8b 45 f8	 mov	 eax, DWORD PTR _this$[ebp]
  00030	8b 00		 mov	 eax, DWORD PTR [eax]
  00032	89 45 e8	 mov	 DWORD PTR __Ptr$2[ebp], eax

; 4409 :         return _Mypair._Get_first();

  00035	8b 45 f8	 mov	 eax, DWORD PTR _this$[ebp]
; File C:\Program Files (x86)\Microsoft Visual Studio\2019\Community\VC\Tools\MSVC\14.28.29333\include\xmemory

; 1347 :         return *this;

  00038	89 45 f0	 mov	 DWORD PTR $T3[ebp], eax
; File C:\Program Files (x86)\Microsoft Visual Studio\2019\Community\VC\Tools\MSVC\14.28.29333\include\xstring

; 4409 :         return _Mypair._Get_first();

  0003b	8b 45 f0	 mov	 eax, DWORD PTR $T3[ebp]
  0003e	89 45 e4	 mov	 DWORD PTR __Al$1[ebp], eax

; 4387 :             auto& _Al          = _Getal();
; 4388 :             _Destroy_in_place(_Mypair._Myval2._Bx._Ptr);

  00041	ff 75 f8	 push	 DWORD PTR _this$[ebp]
  00044	e8 00 00 00 00	 call	 ??$_Destroy_in_place@PAD@std@@YAXAAPAD@Z ; std::_Destroy_in_place<char *>
  00049	59		 pop	 ecx

; 4389 :             _Al.deallocate(_Ptr, _Mypair._Myval2._Myres + 1);

  0004a	8b 45 f8	 mov	 eax, DWORD PTR _this$[ebp]
  0004d	8b 40 14	 mov	 eax, DWORD PTR [eax+20]
  00050	40		 inc	 eax
  00051	89 45 ec	 mov	 DWORD PTR __Count$[ebp], eax
; File C:\Program Files (x86)\Microsoft Visual Studio\2019\Community\VC\Tools\MSVC\14.28.29333\include\xmemory

; 810  :         _Deallocate<_New_alignof<_Ty>>(_Ptr, sizeof(_Ty) * _Count);

  00054	ff 75 ec	 push	 DWORD PTR __Count$[ebp]
  00057	ff 75 e8	 push	 DWORD PTR __Ptr$2[ebp]
  0005a	e8 00 00 00 00	 call	 ??$_Deallocate@$07$0A@@std@@YAXPAXI@Z ; std::_Deallocate<8,0>
  0005f	59		 pop	 ecx
  00060	59		 pop	 ecx
$LN2@Tidy_deall:
; File C:\Program Files (x86)\Microsoft Visual Studio\2019\Community\VC\Tools\MSVC\14.28.29333\include\xstring

; 4392 :         _Mypair._Myval2._Mysize = 0;

  00061	8b 45 f8	 mov	 eax, DWORD PTR _this$[ebp]
  00064	83 60 10 00	 and	 DWORD PTR [eax+16], 0

; 4393 :         _Mypair._Myval2._Myres  = _BUF_SIZE - 1;

  00068	8b 45 f8	 mov	 eax, DWORD PTR _this$[ebp]
  0006b	c7 40 14 0f 00
	00 00		 mov	 DWORD PTR [eax+20], 15	; 0000000fH

; 4394 :         // the _Traits::assign is last so the codegen doesn't think the char write can alias this
; 4395 :         _Traits::assign(_Mypair._Myval2._Bx._Buf[0], _Elem());

  00072	c6 45 fe 00	 mov	 BYTE PTR $T4[ebp], 0
  00076	33 c0		 xor	 eax, eax
  00078	40		 inc	 eax
  00079	6b c0 00	 imul	 eax, eax, 0

; 428  :         _Left = _Right;

  0007c	8b 4d f8	 mov	 ecx, DWORD PTR _this$[ebp]
  0007f	8a 55 fe	 mov	 dl, BYTE PTR $T4[ebp]
  00082	88 14 01	 mov	 BYTE PTR [ecx+eax], dl

; 4396 :     }

  00085	c9		 leave
  00086	c3		 ret	 0
?_Tidy_deallocate@?$basic_string@DU?$char_traits@D@std@@V?$allocator@D@2@@std@@AAEXXZ ENDP ; std::basic_string<char,std::char_traits<char>,std::allocator<char> >::_Tidy_deallocate
_TEXT	ENDS
; Function compile flags: /Odspy
; File C:\Program Files (x86)\Microsoft Visual Studio\2019\Community\VC\Tools\MSVC\14.28.29333\include\xstring
;	COMDAT ?_Tidy_init@?$basic_string@DU?$char_traits@D@std@@V?$allocator@D@2@@std@@AAEXXZ
_TEXT	SEGMENT
_this$ = -8						; size = 4
$T1 = -1						; size = 1
?_Tidy_init@?$basic_string@DU?$char_traits@D@std@@V?$allocator@D@2@@std@@AAEXXZ PROC ; std::basic_string<char,std::char_traits<char>,std::allocator<char> >::_Tidy_init, COMDAT
; _this$ = ecx

; 4376 :     void _Tidy_init() noexcept { // initialize basic_string data members

  00000	55		 push	 ebp
  00001	8b ec		 mov	 ebp, esp
  00003	51		 push	 ecx
  00004	51		 push	 ecx
  00005	89 4d f8	 mov	 DWORD PTR _this$[ebp], ecx

; 4377 :         _Mypair._Myval2._Mysize = 0;

  00008	8b 45 f8	 mov	 eax, DWORD PTR _this$[ebp]
  0000b	83 60 10 00	 and	 DWORD PTR [eax+16], 0

; 4378 :         _Mypair._Myval2._Myres  = _BUF_SIZE - 1;

  0000f	8b 45 f8	 mov	 eax, DWORD PTR _this$[ebp]
  00012	c7 40 14 0f 00
	00 00		 mov	 DWORD PTR [eax+20], 15	; 0000000fH

; 4379 :         // the _Traits::assign is last so the codegen doesn't think the char write can alias this
; 4380 :         _Traits::assign(_Mypair._Myval2._Bx._Buf[0], _Elem());

  00019	c6 45 ff 00	 mov	 BYTE PTR $T1[ebp], 0
  0001d	33 c0		 xor	 eax, eax
  0001f	40		 inc	 eax
  00020	6b c0 00	 imul	 eax, eax, 0

; 428  :         _Left = _Right;

  00023	8b 4d f8	 mov	 ecx, DWORD PTR _this$[ebp]
  00026	8a 55 ff	 mov	 dl, BYTE PTR $T1[ebp]
  00029	88 14 01	 mov	 BYTE PTR [ecx+eax], dl

; 4381 :     }

  0002c	c9		 leave
  0002d	c3		 ret	 0
?_Tidy_init@?$basic_string@DU?$char_traits@D@std@@V?$allocator@D@2@@std@@AAEXXZ ENDP ; std::basic_string<char,std::char_traits<char>,std::allocator<char> >::_Tidy_init
_TEXT	ENDS
; Function compile flags: /Odspy
; File C:\Program Files (x86)\Microsoft Visual Studio\2019\Community\VC\Tools\MSVC\14.28.29333\include\xstring
; File C:\Program Files (x86)\Microsoft Visual Studio\2019\Community\VC\Tools\MSVC\14.28.29333\include\utility
; File C:\Program Files (x86)\Microsoft Visual Studio\2019\Community\VC\Tools\MSVC\14.28.29333\include\xstring
;	COMDAT ?_Calculate_growth@?$basic_string@DU?$char_traits@D@std@@V?$allocator@D@2@@std@@ABEII@Z
_TEXT	SEGMENT
$T1 = -36						; size = 4
$T2 = -32						; size = 4
tv93 = -28						; size = 4
$T3 = -24						; size = 4
_this$ = -20						; size = 4
$T4 = -16						; size = 4
__Masked$5 = -12					; size = 4
__Old$ = -8						; size = 4
__Max$ = -4						; size = 4
__Requested$ = 8					; size = 4
?_Calculate_growth@?$basic_string@DU?$char_traits@D@std@@V?$allocator@D@2@@std@@ABEII@Z PROC ; std::basic_string<char,std::char_traits<char>,std::allocator<char> >::_Calculate_growth, COMDAT
; _this$ = ecx

; 4297 :     _NODISCARD size_type _Calculate_growth(const size_type _Requested) const noexcept {

  00000	55		 push	 ebp
  00001	8b ec		 mov	 ebp, esp
  00003	83 ec 24	 sub	 esp, 36			; 00000024H
  00006	89 4d ec	 mov	 DWORD PTR _this$[ebp], ecx

; 4298 :         return _Calculate_growth(_Requested, _Mypair._Myval2._Myres, max_size());

  00009	8b 4d ec	 mov	 ecx, DWORD PTR _this$[ebp]
  0000c	e8 00 00 00 00	 call	 ?max_size@?$basic_string@DU?$char_traits@D@std@@V?$allocator@D@2@@std@@QBEIXZ ; std::basic_string<char,std::char_traits<char>,std::allocator<char> >::max_size
  00011	89 45 fc	 mov	 DWORD PTR __Max$[ebp], eax
  00014	8b 45 ec	 mov	 eax, DWORD PTR _this$[ebp]
  00017	8b 40 14	 mov	 eax, DWORD PTR [eax+20]
  0001a	89 45 f8	 mov	 DWORD PTR __Old$[ebp], eax

; 4285 :         const size_type _Masked = _Requested | _ALLOC_MASK;

  0001d	8b 45 08	 mov	 eax, DWORD PTR __Requested$[ebp]
  00020	83 c8 0f	 or	 eax, 15			; 0000000fH
  00023	89 45 f4	 mov	 DWORD PTR __Masked$5[ebp], eax

; 4286 :         if (_Masked > _Max) { // the mask overflows, settle for max_size()

  00026	8b 45 f4	 mov	 eax, DWORD PTR __Masked$5[ebp]
  00029	3b 45 fc	 cmp	 eax, DWORD PTR __Max$[ebp]
  0002c	76 08		 jbe	 SHORT $LN29@Calculate_

; 4287 :             return _Max;

  0002e	8b 45 fc	 mov	 eax, DWORD PTR __Max$[ebp]
  00031	89 45 f0	 mov	 DWORD PTR $T4[ebp], eax
  00034	eb 4c		 jmp	 SHORT $LN31@Calculate_
$LN29@Calculate_:

; 4288 :         }
; 4289 : 
; 4290 :         if (_Old > _Max - _Old / 2) { // similarly, geometric overflows

  00036	8b 45 f8	 mov	 eax, DWORD PTR __Old$[ebp]
  00039	d1 e8		 shr	 eax, 1
  0003b	8b 4d fc	 mov	 ecx, DWORD PTR __Max$[ebp]
  0003e	2b c8		 sub	 ecx, eax
  00040	39 4d f8	 cmp	 DWORD PTR __Old$[ebp], ecx
  00043	76 08		 jbe	 SHORT $LN30@Calculate_

; 4291 :             return _Max;

  00045	8b 45 fc	 mov	 eax, DWORD PTR __Max$[ebp]
  00048	89 45 f0	 mov	 DWORD PTR $T4[ebp], eax
  0004b	eb 35		 jmp	 SHORT $LN31@Calculate_
$LN30@Calculate_:

; 4294 :         return (_STD max)(_Masked, _Old + _Old / 2);

  0004d	8b 45 f8	 mov	 eax, DWORD PTR __Old$[ebp]
  00050	d1 e8		 shr	 eax, 1
  00052	03 45 f8	 add	 eax, DWORD PTR __Old$[ebp]
  00055	89 45 e8	 mov	 DWORD PTR $T3[ebp], eax
; File C:\Program Files (x86)\Microsoft Visual Studio\2019\Community\VC\Tools\MSVC\14.28.29333\include\utility

; 44   :     return _Left < _Right ? _Right : _Left;

  00058	8b 45 f4	 mov	 eax, DWORD PTR __Masked$5[ebp]
  0005b	3b 45 e8	 cmp	 eax, DWORD PTR $T3[ebp]
  0005e	73 08		 jae	 SHORT $LN35@Calculate_
  00060	8d 45 e8	 lea	 eax, DWORD PTR $T3[ebp]
  00063	89 45 e4	 mov	 DWORD PTR tv93[ebp], eax
  00066	eb 06		 jmp	 SHORT $LN36@Calculate_
$LN35@Calculate_:
  00068	8d 45 f4	 lea	 eax, DWORD PTR __Masked$5[ebp]
  0006b	89 45 e4	 mov	 DWORD PTR tv93[ebp], eax
$LN36@Calculate_:
  0006e	8b 45 e4	 mov	 eax, DWORD PTR tv93[ebp]
  00071	89 45 e0	 mov	 DWORD PTR $T2[ebp], eax
  00074	8b 45 e0	 mov	 eax, DWORD PTR $T2[ebp]
  00077	89 45 dc	 mov	 DWORD PTR $T1[ebp], eax
; File C:\Program Files (x86)\Microsoft Visual Studio\2019\Community\VC\Tools\MSVC\14.28.29333\include\xstring

; 4294 :         return (_STD max)(_Masked, _Old + _Old / 2);

  0007a	8b 45 dc	 mov	 eax, DWORD PTR $T1[ebp]
  0007d	8b 00		 mov	 eax, DWORD PTR [eax]
  0007f	89 45 f0	 mov	 DWORD PTR $T4[ebp], eax
$LN31@Calculate_:

; 4298 :         return _Calculate_growth(_Requested, _Mypair._Myval2._Myres, max_size());

  00082	8b 45 f0	 mov	 eax, DWORD PTR $T4[ebp]

; 4299 :     }

  00085	c9		 leave
  00086	c2 04 00	 ret	 4
?_Calculate_growth@?$basic_string@DU?$char_traits@D@std@@V?$allocator@D@2@@std@@ABEII@Z ENDP ; std::basic_string<char,std::char_traits<char>,std::allocator<char> >::_Calculate_growth
_TEXT	ENDS
; Function compile flags: /Odspy
; File C:\Program Files (x86)\Microsoft Visual Studio\2019\Community\VC\Tools\MSVC\14.28.29333\include\xstring
; File C:\Program Files (x86)\Microsoft Visual Studio\2019\Community\VC\Tools\MSVC\14.28.29333\include\xmemory
; File C:\Program Files (x86)\Microsoft Visual Studio\2019\Community\VC\Tools\MSVC\14.28.29333\include\xstring
; File C:\Program Files (x86)\Microsoft Visual Studio\2019\Community\VC\Tools\MSVC\14.28.29333\include\xmemory
; File C:\Program Files (x86)\Microsoft Visual Studio\2019\Community\VC\Tools\MSVC\14.28.29333\include\xstring
; File C:\Program Files (x86)\Microsoft Visual Studio\2019\Community\VC\Tools\MSVC\14.28.29333\include\utility
; File C:\Program Files (x86)\Microsoft Visual Studio\2019\Community\VC\Tools\MSVC\14.28.29333\include\xstring
; File C:\Program Files (x86)\Microsoft Visual Studio\2019\Community\VC\Tools\MSVC\14.28.29333\include\limits
; File C:\Program Files (x86)\Microsoft Visual Studio\2019\Community\VC\Tools\MSVC\14.28.29333\include\xstring
; File C:\Program Files (x86)\Microsoft Visual Studio\2019\Community\VC\Tools\MSVC\14.28.29333\include\utility
; File C:\Program Files (x86)\Microsoft Visual Studio\2019\Community\VC\Tools\MSVC\14.28.29333\include\xstring
;	COMDAT ?max_size@?$basic_string@DU?$char_traits@D@std@@V?$allocator@D@2@@std@@QBEIXZ
_TEXT	SEGMENT
$T1 = -60						; size = 4
$T2 = -56						; size = 4
$T3 = -52						; size = 4
$T4 = -48						; size = 4
__Storage_max$ = -44					; size = 4
$T5 = -40						; size = 4
$T6 = -36						; size = 4
$T7 = -32						; size = 4
_this$ = -28						; size = 4
tv70 = -24						; size = 4
$T8 = -20						; size = 4
$T9 = -16						; size = 4
tv67 = -12						; size = 4
__Alloc_max$ = -8					; size = 4
$T10 = -4						; size = 4
?max_size@?$basic_string@DU?$char_traits@D@std@@V?$allocator@D@2@@std@@QBEIXZ PROC ; std::basic_string<char,std::char_traits<char>,std::allocator<char> >::max_size, COMDAT
; _this$ = ecx

; 3773 :     _NODISCARD size_type max_size() const noexcept {

  00000	55		 push	 ebp
  00001	8b ec		 mov	 ebp, esp
  00003	83 ec 3c	 sub	 esp, 60			; 0000003cH
  00006	89 4d e4	 mov	 DWORD PTR _this$[ebp], ecx

; 4413 :         return _Mypair._Get_first();

  00009	8b 45 e4	 mov	 eax, DWORD PTR _this$[ebp]
; File C:\Program Files (x86)\Microsoft Visual Studio\2019\Community\VC\Tools\MSVC\14.28.29333\include\xmemory

; 1351 :         return *this;

  0000c	89 45 e0	 mov	 DWORD PTR $T7[ebp], eax
; File C:\Program Files (x86)\Microsoft Visual Studio\2019\Community\VC\Tools\MSVC\14.28.29333\include\xstring

; 4413 :         return _Mypair._Get_first();

  0000f	8b 45 e0	 mov	 eax, DWORD PTR $T7[ebp]
  00012	89 45 c4	 mov	 DWORD PTR $T1[ebp], eax
; File C:\Program Files (x86)\Microsoft Visual Studio\2019\Community\VC\Tools\MSVC\14.28.29333\include\xmemory

; 710  :         return static_cast<size_t>(-1) / sizeof(value_type);

  00015	83 4d f8 ff	 or	 DWORD PTR __Alloc_max$[ebp], -1
; File C:\Program Files (x86)\Microsoft Visual Studio\2019\Community\VC\Tools\MSVC\14.28.29333\include\xstring

; 3775 :         const size_type _Storage_max = // can always store small string

  00019	c7 45 fc 10 00
	00 00		 mov	 DWORD PTR $T10[ebp], 16	; 00000010H
; File C:\Program Files (x86)\Microsoft Visual Studio\2019\Community\VC\Tools\MSVC\14.28.29333\include\utility

; 44   :     return _Left < _Right ? _Right : _Left;

  00020	8b 45 f8	 mov	 eax, DWORD PTR __Alloc_max$[ebp]
  00023	3b 45 fc	 cmp	 eax, DWORD PTR $T10[ebp]
  00026	73 08		 jae	 SHORT $LN14@max_size
  00028	8d 45 fc	 lea	 eax, DWORD PTR $T10[ebp]
  0002b	89 45 f4	 mov	 DWORD PTR tv67[ebp], eax
  0002e	eb 06		 jmp	 SHORT $LN15@max_size
$LN14@max_size:
  00030	8d 45 f8	 lea	 eax, DWORD PTR __Alloc_max$[ebp]
  00033	89 45 f4	 mov	 DWORD PTR tv67[ebp], eax
$LN15@max_size:
  00036	8b 45 f4	 mov	 eax, DWORD PTR tv67[ebp]
  00039	89 45 dc	 mov	 DWORD PTR $T6[ebp], eax
  0003c	8b 45 dc	 mov	 eax, DWORD PTR $T6[ebp]
  0003f	89 45 d8	 mov	 DWORD PTR $T5[ebp], eax
; File C:\Program Files (x86)\Microsoft Visual Studio\2019\Community\VC\Tools\MSVC\14.28.29333\include\xstring

; 3775 :         const size_type _Storage_max = // can always store small string

  00042	8b 45 d8	 mov	 eax, DWORD PTR $T5[ebp]
  00045	8b 00		 mov	 eax, DWORD PTR [eax]
  00047	89 45 d4	 mov	 DWORD PTR __Storage_max$[ebp], eax

; 3777 :         return (_STD min)(static_cast<size_type>((numeric_limits<difference_type>::max)()),

  0004a	8b 45 d4	 mov	 eax, DWORD PTR __Storage_max$[ebp]
  0004d	48		 dec	 eax
  0004e	89 45 f0	 mov	 DWORD PTR $T9[ebp], eax
; File C:\Program Files (x86)\Microsoft Visual Studio\2019\Community\VC\Tools\MSVC\14.28.29333\include\limits

; 557  :         return INT_MAX;

  00051	c7 45 d0 ff ff
	ff 7f		 mov	 DWORD PTR $T4[ebp], 2147483647 ; 7fffffffH
; File C:\Program Files (x86)\Microsoft Visual Studio\2019\Community\VC\Tools\MSVC\14.28.29333\include\xstring

; 3777 :         return (_STD min)(static_cast<size_type>((numeric_limits<difference_type>::max)()),

  00058	8b 45 d0	 mov	 eax, DWORD PTR $T4[ebp]
  0005b	89 45 ec	 mov	 DWORD PTR $T8[ebp], eax
; File C:\Program Files (x86)\Microsoft Visual Studio\2019\Community\VC\Tools\MSVC\14.28.29333\include\utility

; 68   :     return _Right < _Left ? _Right : _Left;

  0005e	8b 45 f0	 mov	 eax, DWORD PTR $T9[ebp]
  00061	3b 45 ec	 cmp	 eax, DWORD PTR $T8[ebp]
  00064	73 08		 jae	 SHORT $LN22@max_size
  00066	8d 45 f0	 lea	 eax, DWORD PTR $T9[ebp]
  00069	89 45 e8	 mov	 DWORD PTR tv70[ebp], eax
  0006c	eb 06		 jmp	 SHORT $LN23@max_size
$LN22@max_size:
  0006e	8d 45 ec	 lea	 eax, DWORD PTR $T8[ebp]
  00071	89 45 e8	 mov	 DWORD PTR tv70[ebp], eax
$LN23@max_size:
  00074	8b 45 e8	 mov	 eax, DWORD PTR tv70[ebp]
  00077	89 45 cc	 mov	 DWORD PTR $T3[ebp], eax
  0007a	8b 45 cc	 mov	 eax, DWORD PTR $T3[ebp]
  0007d	89 45 c8	 mov	 DWORD PTR $T2[ebp], eax
; File C:\Program Files (x86)\Microsoft Visual Studio\2019\Community\VC\Tools\MSVC\14.28.29333\include\xstring

; 3777 :         return (_STD min)(static_cast<size_type>((numeric_limits<difference_type>::max)()),

  00080	8b 45 c8	 mov	 eax, DWORD PTR $T2[ebp]
  00083	8b 00		 mov	 eax, DWORD PTR [eax]

; 3778 :             _Storage_max - 1 // -1 is for null terminator and/or npos
; 3779 :         );
; 3780 :     }

  00085	c9		 leave
  00086	c3		 ret	 0
?max_size@?$basic_string@DU?$char_traits@D@std@@V?$allocator@D@2@@std@@QBEIXZ ENDP ; std::basic_string<char,std::char_traits<char>,std::allocator<char> >::max_size
_TEXT	ENDS
; Function compile flags: /Odspy
; File C:\Program Files (x86)\Microsoft Visual Studio\2019\Community\VC\Tools\MSVC\14.28.29333\include\xstring
; File C:\Program Files (x86)\Microsoft Visual Studio\2019\Community\VC\Tools\MSVC\14.28.29333\include\xstddef
; File C:\Program Files (x86)\Microsoft Visual Studio\2019\Community\VC\Tools\MSVC\14.28.29333\include\xstring
;	COMDAT ?c_str@?$basic_string@DU?$char_traits@D@std@@V?$allocator@D@2@@std@@QBEPBDXZ
_TEXT	SEGMENT
$T1 = -28						; size = 4
__Ptr$ = -24						; size = 4
_this$ = -20						; size = 4
__Result$2 = -16					; size = 4
tv80 = -12						; size = 4
_this$ = -8						; size = 4
$T3 = -1						; size = 1
?c_str@?$basic_string@DU?$char_traits@D@std@@V?$allocator@D@2@@std@@QBEPBDXZ PROC ; std::basic_string<char,std::char_traits<char>,std::allocator<char> >::c_str, COMDAT
; _this$ = ecx

; 3751 :     _NODISCARD _Ret_z_ const _Elem* c_str() const noexcept {

  00000	55		 push	 ebp
  00001	8b ec		 mov	 ebp, esp
  00003	83 ec 1c	 sub	 esp, 28			; 0000001cH
  00006	89 4d ec	 mov	 DWORD PTR _this$[ebp], ecx

; 3752 :         return _Mypair._Myval2._Myptr();

  00009	8b 45 ec	 mov	 eax, DWORD PTR _this$[ebp]
  0000c	89 45 f8	 mov	 DWORD PTR _this$[ebp], eax

; 2218 :         const value_type* _Result = _Bx._Buf;

  0000f	8b 45 f8	 mov	 eax, DWORD PTR _this$[ebp]
  00012	89 45 f0	 mov	 DWORD PTR __Result$2[ebp], eax

; 2227 :         return _BUF_SIZE <= _Myres;

  00015	8b 45 f8	 mov	 eax, DWORD PTR _this$[ebp]
  00018	83 78 14 10	 cmp	 DWORD PTR [eax+20], 16	; 00000010H
  0001c	72 09		 jb	 SHORT $LN9@c_str
  0001e	c7 45 f4 01 00
	00 00		 mov	 DWORD PTR tv80[ebp], 1
  00025	eb 04		 jmp	 SHORT $LN10@c_str
$LN9@c_str:
  00027	83 65 f4 00	 and	 DWORD PTR tv80[ebp], 0
$LN10@c_str:
  0002b	8a 45 f4	 mov	 al, BYTE PTR tv80[ebp]
  0002e	88 45 ff	 mov	 BYTE PTR $T3[ebp], al

; 2219 :         if (_Large_string_engaged()) {

  00031	0f b6 45 ff	 movzx	 eax, BYTE PTR $T3[ebp]
  00035	85 c0		 test	 eax, eax
  00037	74 0e		 je	 SHORT $LN4@c_str

; 2220 :             _Result = _Unfancy(_Bx._Ptr);

  00039	8b 45 f8	 mov	 eax, DWORD PTR _this$[ebp]
  0003c	8b 00		 mov	 eax, DWORD PTR [eax]
  0003e	89 45 e8	 mov	 DWORD PTR __Ptr$[ebp], eax
; File C:\Program Files (x86)\Microsoft Visual Studio\2019\Community\VC\Tools\MSVC\14.28.29333\include\xstddef

; 289  :     return _Ptr;

  00041	8b 45 e8	 mov	 eax, DWORD PTR __Ptr$[ebp]
  00044	89 45 f0	 mov	 DWORD PTR __Result$2[ebp], eax
$LN4@c_str:
; File C:\Program Files (x86)\Microsoft Visual Studio\2019\Community\VC\Tools\MSVC\14.28.29333\include\xstring

; 2223 :         return _Result;

  00047	8b 45 f0	 mov	 eax, DWORD PTR __Result$2[ebp]
  0004a	89 45 e4	 mov	 DWORD PTR $T1[ebp], eax

; 3752 :         return _Mypair._Myval2._Myptr();

  0004d	8b 45 e4	 mov	 eax, DWORD PTR $T1[ebp]

; 3753 :     }

  00050	c9		 leave
  00051	c3		 ret	 0
?c_str@?$basic_string@DU?$char_traits@D@std@@V?$allocator@D@2@@std@@QBEPBDXZ ENDP ; std::basic_string<char,std::char_traits<char>,std::allocator<char> >::c_str
_TEXT	ENDS
; Function compile flags: /Odspy
; File C:\Program Files (x86)\Microsoft Visual Studio\2019\Community\VC\Tools\MSVC\14.28.29333\include\xstring
;	COMDAT ?assign@?$basic_string@DU?$char_traits@D@std@@V?$allocator@D@2@@std@@QAEAAV12@QBDI@Z
_TEXT	SEGMENT
$T1 = -16						; size = 1
__Old_ptr$2 = -12					; size = 4
_this$ = -8						; size = 4
$T3 = -1						; size = 1
__Ptr$ = 8						; size = 4
__Count$ = 12						; size = 4
?assign@?$basic_string@DU?$char_traits@D@std@@V?$allocator@D@2@@std@@QAEAAV12@QBDI@Z PROC ; std::basic_string<char,std::char_traits<char>,std::allocator<char> >::assign, COMDAT
; _this$ = ecx

; 3042 :     basic_string& assign(_In_reads_(_Count) const _Elem* const _Ptr, _CRT_GUARDOVERFLOW const size_type _Count) {

  00000	55		 push	 ebp
  00001	8b ec		 mov	 ebp, esp
  00003	83 ec 10	 sub	 esp, 16			; 00000010H
  00006	89 4d f8	 mov	 DWORD PTR _this$[ebp], ecx

; 3043 :         // assign [_Ptr, _Ptr + _Count)
; 3044 :         if (_Count <= _Mypair._Myval2._Myres) {

  00009	8b 45 f8	 mov	 eax, DWORD PTR _this$[ebp]
  0000c	8b 4d 0c	 mov	 ecx, DWORD PTR __Count$[ebp]
  0000f	3b 48 14	 cmp	 ecx, DWORD PTR [eax+20]
  00012	77 39		 ja	 SHORT $LN2@assign

; 3045 :             _Elem* const _Old_ptr   = _Mypair._Myval2._Myptr();

  00014	8b 4d f8	 mov	 ecx, DWORD PTR _this$[ebp]
  00017	e8 00 00 00 00	 call	 ?_Myptr@?$_String_val@U?$_Simple_types@D@std@@@std@@QAEPADXZ ; std::_String_val<std::_Simple_types<char> >::_Myptr
  0001c	89 45 f4	 mov	 DWORD PTR __Old_ptr$2[ebp], eax

; 3046 :             _Mypair._Myval2._Mysize = _Count;

  0001f	8b 45 f8	 mov	 eax, DWORD PTR _this$[ebp]
  00022	8b 4d 0c	 mov	 ecx, DWORD PTR __Count$[ebp]
  00025	89 48 10	 mov	 DWORD PTR [eax+16], ecx

; 119  :         _CSTD memmove(_First1, _First2, _Count * sizeof(_Elem));

  00028	ff 75 0c	 push	 DWORD PTR __Count$[ebp]
  0002b	ff 75 08	 push	 DWORD PTR __Ptr$[ebp]
  0002e	ff 75 f4	 push	 DWORD PTR __Old_ptr$2[ebp]
  00031	e8 00 00 00 00	 call	 _memmove
  00036	83 c4 0c	 add	 esp, 12			; 0000000cH

; 3047 :             _Traits::move(_Old_ptr, _Ptr, _Count);
; 3048 :             _Traits::assign(_Old_ptr[_Count], _Elem());

  00039	c6 45 ff 00	 mov	 BYTE PTR $T3[ebp], 0

; 428  :         _Left = _Right;

  0003d	8b 45 f4	 mov	 eax, DWORD PTR __Old_ptr$2[ebp]
  00040	03 45 0c	 add	 eax, DWORD PTR __Count$[ebp]
  00043	8a 4d ff	 mov	 cl, BYTE PTR $T3[ebp]
  00046	88 08		 mov	 BYTE PTR [eax], cl

; 3049 :             return *this;

  00048	8b 45 f8	 mov	 eax, DWORD PTR _this$[ebp]
  0004b	eb 16		 jmp	 SHORT $LN1@assign
$LN2@assign:

; 3050 :         }
; 3051 : 
; 3052 :         return _Reallocate_for(

  0004d	33 c0		 xor	 eax, eax
  0004f	88 45 f0	 mov	 BYTE PTR $T1[ebp], al
  00052	ff 75 08	 push	 DWORD PTR __Ptr$[ebp]
  00055	ff 75 f0	 push	 DWORD PTR $T1[ebp]
  00058	ff 75 0c	 push	 DWORD PTR __Count$[ebp]
  0005b	8b 4d f8	 mov	 ecx, DWORD PTR _this$[ebp]
  0005e	e8 00 00 00 00	 call	 ??$_Reallocate_for@V<lambda_9366063389c5f42a00a5088cf24e69de>@@PBD@?$basic_string@DU?$char_traits@D@std@@V?$allocator@D@2@@std@@AAEAAV01@IV<lambda_9366063389c5f42a00a5088cf24e69de>@@PBD@Z ; std::basic_string<char,std::char_traits<char>,std::allocator<char> >::_Reallocate_for<<lambda_9366063389c5f42a00a5088cf24e69de>,char const *>
$LN1@assign:

; 3053 :             _Count,
; 3054 :             [](_Elem* const _New_ptr, const size_type _Count, const _Elem* const _Ptr) {
; 3055 :                 _Traits::copy(_New_ptr, _Ptr, _Count);
; 3056 :                 _Traits::assign(_New_ptr[_Count], _Elem());
; 3057 :             },
; 3058 :             _Ptr);
; 3059 :     }

  00063	c9		 leave
  00064	c2 08 00	 ret	 8
?assign@?$basic_string@DU?$char_traits@D@std@@V?$allocator@D@2@@std@@QAEAAV12@QBDI@Z ENDP ; std::basic_string<char,std::char_traits<char>,std::allocator<char> >::assign
_TEXT	ENDS
; Function compile flags: /Odspy
; File C:\Program Files (x86)\Microsoft Visual Studio\2019\Community\VC\Tools\MSVC\14.28.29333\include\xstring
;	COMDAT ??1?$basic_string@DU?$char_traits@D@std@@V?$allocator@D@2@@std@@QAE@XZ
_TEXT	SEGMENT
_this$ = -4						; size = 4
??1?$basic_string@DU?$char_traits@D@std@@V?$allocator@D@2@@std@@QAE@XZ PROC ; std::basic_string<char,std::char_traits<char>,std::allocator<char> >::~basic_string<char,std::char_traits<char>,std::allocator<char> >, COMDAT
; _this$ = ecx

; 2800 :     ~basic_string() noexcept {

  00000	55		 push	 ebp
  00001	8b ec		 mov	 ebp, esp
  00003	51		 push	 ecx
  00004	89 4d fc	 mov	 DWORD PTR _this$[ebp], ecx

; 2801 :         _Tidy_deallocate();

  00007	8b 4d fc	 mov	 ecx, DWORD PTR _this$[ebp]
  0000a	e8 00 00 00 00	 call	 ?_Tidy_deallocate@?$basic_string@DU?$char_traits@D@std@@V?$allocator@D@2@@std@@AAEXXZ ; std::basic_string<char,std::char_traits<char>,std::allocator<char> >::_Tidy_deallocate

; 2802 : #if _ITERATOR_DEBUG_LEVEL != 0
; 2803 :         auto&& _Alproxy          = _GET_PROXY_ALLOCATOR(_Alty, _Getal());
; 2804 :         const auto _To_delete    = _Mypair._Myval2._Myproxy;
; 2805 :         _Mypair._Myval2._Myproxy = nullptr;
; 2806 :         _Delete_plain_internal(_Alproxy, _To_delete);
; 2807 : #endif // _ITERATOR_DEBUG_LEVEL != 0
; 2808 :     }

  0000f	c9		 leave
  00010	c3		 ret	 0
??1?$basic_string@DU?$char_traits@D@std@@V?$allocator@D@2@@std@@QAE@XZ ENDP ; std::basic_string<char,std::char_traits<char>,std::allocator<char> >::~basic_string<char,std::char_traits<char>,std::allocator<char> >
_TEXT	ENDS
; Function compile flags: /Odspy
; File C:\Program Files (x86)\Microsoft Visual Studio\2019\Community\VC\Tools\MSVC\14.28.29333\include\xstring
; File C:\Program Files (x86)\Microsoft Visual Studio\2019\Community\VC\Tools\MSVC\14.28.29333\include\xmemory
; File C:\Program Files (x86)\Microsoft Visual Studio\2019\Community\VC\Tools\MSVC\14.28.29333\include\xstring
;	COMDAT ??0?$basic_string@DU?$char_traits@D@std@@V?$allocator@D@2@@std@@QAE@XZ
_TEXT	SEGMENT
_this$ = -12						; size = 4
_this$ = -8						; size = 4
_this$ = -4						; size = 4
??0?$basic_string@DU?$char_traits@D@std@@V?$allocator@D@2@@std@@QAE@XZ PROC ; std::basic_string<char,std::char_traits<char>,std::allocator<char> >::basic_string<char,std::char_traits<char>,std::allocator<char> >, COMDAT
; _this$ = ecx

; 2365 :     basic_string() noexcept(is_nothrow_default_constructible_v<_Alty>) : _Mypair(_Zero_then_variadic_args_t{}) {

  00000	55		 push	 ebp
  00001	8b ec		 mov	 ebp, esp
  00003	83 ec 0c	 sub	 esp, 12			; 0000000cH
  00006	89 4d fc	 mov	 DWORD PTR _this$[ebp], ecx
  00009	8b 45 fc	 mov	 eax, DWORD PTR _this$[ebp]
  0000c	89 45 f4	 mov	 DWORD PTR _this$[ebp], eax
; File C:\Program Files (x86)\Microsoft Visual Studio\2019\Community\VC\Tools\MSVC\14.28.29333\include\xmemory

; 1339 :         : _Ty1(), _Myval2(_STD forward<_Other2>(_Val2)...) {}

  0000f	8b 45 f4	 mov	 eax, DWORD PTR _this$[ebp]
  00012	89 45 f8	 mov	 DWORD PTR _this$[ebp], eax
; File C:\Program Files (x86)\Microsoft Visual Studio\2019\Community\VC\Tools\MSVC\14.28.29333\include\xstring

; 2198 :     _String_val() noexcept : _Bx(), _Mysize(0), _Myres(0) {}

  00015	8b 45 f8	 mov	 eax, DWORD PTR _this$[ebp]
  00018	83 60 10 00	 and	 DWORD PTR [eax+16], 0
  0001c	8b 45 f8	 mov	 eax, DWORD PTR _this$[ebp]
  0001f	83 60 14 00	 and	 DWORD PTR [eax+20], 0

; 2366 :         _Mypair._Myval2._Alloc_proxy(_GET_PROXY_ALLOCATOR(_Alty, _Getal()));
; 2367 :         _Tidy_init();

  00023	8b 4d fc	 mov	 ecx, DWORD PTR _this$[ebp]
  00026	e8 00 00 00 00	 call	 ?_Tidy_init@?$basic_string@DU?$char_traits@D@std@@V?$allocator@D@2@@std@@AAEXXZ ; std::basic_string<char,std::char_traits<char>,std::allocator<char> >::_Tidy_init

; 2368 :     }

  0002b	8b 45 fc	 mov	 eax, DWORD PTR _this$[ebp]
  0002e	c9		 leave
  0002f	c3		 ret	 0
??0?$basic_string@DU?$char_traits@D@std@@V?$allocator@D@2@@std@@QAE@XZ ENDP ; std::basic_string<char,std::char_traits<char>,std::allocator<char> >::basic_string<char,std::char_traits<char>,std::allocator<char> >
_TEXT	ENDS
; Function compile flags: /Odspy
; File C:\Program Files (x86)\Microsoft Visual Studio\2019\Community\VC\Tools\MSVC\14.28.29333\include\xstring
; File C:\Program Files (x86)\Microsoft Visual Studio\2019\Community\VC\Tools\MSVC\14.28.29333\include\xstddef
; File C:\Program Files (x86)\Microsoft Visual Studio\2019\Community\VC\Tools\MSVC\14.28.29333\include\xstring
;	COMDAT ?_Myptr@?$_String_val@U?$_Simple_types@D@std@@@std@@QAEPADXZ
_TEXT	SEGMENT
__Ptr$ = -20						; size = 4
__Result$ = -16						; size = 4
tv76 = -12						; size = 4
_this$ = -8						; size = 4
$T1 = -1						; size = 1
?_Myptr@?$_String_val@U?$_Simple_types@D@std@@@std@@QAEPADXZ PROC ; std::_String_val<std::_Simple_types<char> >::_Myptr, COMDAT
; _this$ = ecx

; 2208 :     value_type* _Myptr() noexcept {

  00000	55		 push	 ebp
  00001	8b ec		 mov	 ebp, esp
  00003	83 ec 14	 sub	 esp, 20			; 00000014H
  00006	89 4d f8	 mov	 DWORD PTR _this$[ebp], ecx

; 2209 :         value_type* _Result = _Bx._Buf;

  00009	8b 45 f8	 mov	 eax, DWORD PTR _this$[ebp]
  0000c	89 45 f0	 mov	 DWORD PTR __Result$[ebp], eax

; 2227 :         return _BUF_SIZE <= _Myres;

  0000f	8b 45 f8	 mov	 eax, DWORD PTR _this$[ebp]
  00012	83 78 14 10	 cmp	 DWORD PTR [eax+20], 16	; 00000010H
  00016	72 09		 jb	 SHORT $LN6@Myptr
  00018	c7 45 f4 01 00
	00 00		 mov	 DWORD PTR tv76[ebp], 1
  0001f	eb 04		 jmp	 SHORT $LN7@Myptr
$LN6@Myptr:
  00021	83 65 f4 00	 and	 DWORD PTR tv76[ebp], 0
$LN7@Myptr:
  00025	8a 45 f4	 mov	 al, BYTE PTR tv76[ebp]
  00028	88 45 ff	 mov	 BYTE PTR $T1[ebp], al

; 2210 :         if (_Large_string_engaged()) {

  0002b	0f b6 45 ff	 movzx	 eax, BYTE PTR $T1[ebp]
  0002f	85 c0		 test	 eax, eax
  00031	74 0e		 je	 SHORT $LN2@Myptr

; 2211 :             _Result = _Unfancy(_Bx._Ptr);

  00033	8b 45 f8	 mov	 eax, DWORD PTR _this$[ebp]
  00036	8b 00		 mov	 eax, DWORD PTR [eax]
  00038	89 45 ec	 mov	 DWORD PTR __Ptr$[ebp], eax
; File C:\Program Files (x86)\Microsoft Visual Studio\2019\Community\VC\Tools\MSVC\14.28.29333\include\xstddef

; 289  :     return _Ptr;

  0003b	8b 45 ec	 mov	 eax, DWORD PTR __Ptr$[ebp]
  0003e	89 45 f0	 mov	 DWORD PTR __Result$[ebp], eax
$LN2@Myptr:
; File C:\Program Files (x86)\Microsoft Visual Studio\2019\Community\VC\Tools\MSVC\14.28.29333\include\xstring

; 2214 :         return _Result;

  00041	8b 45 f0	 mov	 eax, DWORD PTR __Result$[ebp]

; 2215 :     }

  00044	c9		 leave
  00045	c3		 ret	 0
?_Myptr@?$_String_val@U?$_Simple_types@D@std@@@std@@QAEPADXZ ENDP ; std::_String_val<std::_Simple_types<char> >::_Myptr
_TEXT	ENDS
; Function compile flags: /Odspy
; File C:\Program Files (x86)\Microsoft Visual Studio\2019\Community\VC\Tools\MSVC\14.28.29333\include\xstring
;	COMDAT ?_Xlen_string@std@@YAXXZ
_TEXT	SEGMENT
?_Xlen_string@std@@YAXXZ PROC				; std::_Xlen_string, COMDAT

; 2274 : [[noreturn]] inline void _Xlen_string() {

  00000	55		 push	 ebp
  00001	8b ec		 mov	 ebp, esp

; 2275 :     _Xlength_error("string too long");

  00003	68 00 00 00 00	 push	 OFFSET ??_C@_0BA@JFNIOLAK@string?5too?5long@
  00008	e8 00 00 00 00	 call	 ?_Xlength_error@std@@YAXPBD@Z ; std::_Xlength_error
$LN2@Xlen_strin:

; 2276 : }

  0000d	5d		 pop	 ebp
  0000e	c3		 ret	 0
?_Xlen_string@std@@YAXXZ ENDP				; std::_Xlen_string
_TEXT	ENDS
; Function compile flags: /Odspy
; File C:\Program Files (x86)\Microsoft Visual Studio\2019\Community\VC\Tools\MSVC\14.28.29333\include\xmemory
;	COMDAT ?_Adjust_manually_vector_aligned@std@@YAXAAPAXAAI@Z
_TEXT	SEGMENT
__Min_back_shift$ = -16					; size = 4
__Ptr_user$ = -12					; size = 4
__Ptr_container$ = -8					; size = 4
__Back_shift$ = -4					; size = 4
__Ptr$ = 8						; size = 4
__Bytes$ = 12						; size = 4
?_Adjust_manually_vector_aligned@std@@YAXAAPAXAAI@Z PROC ; std::_Adjust_manually_vector_aligned, COMDAT

; 132  : inline void _Adjust_manually_vector_aligned(void*& _Ptr, size_t& _Bytes) {

  00000	55		 push	 ebp
  00001	8b ec		 mov	 ebp, esp
  00003	83 ec 10	 sub	 esp, 16			; 00000010H

; 133  :     // adjust parameters from _Allocate_manually_vector_aligned to pass to operator delete
; 134  :     _Bytes += _Non_user_size;

  00006	8b 45 0c	 mov	 eax, DWORD PTR __Bytes$[ebp]
  00009	8b 00		 mov	 eax, DWORD PTR [eax]
  0000b	83 c0 23	 add	 eax, 35			; 00000023H
  0000e	8b 4d 0c	 mov	 ecx, DWORD PTR __Bytes$[ebp]
  00011	89 01		 mov	 DWORD PTR [ecx], eax

; 135  : 
; 136  :     const uintptr_t* const _Ptr_user = reinterpret_cast<uintptr_t*>(_Ptr);

  00013	8b 45 08	 mov	 eax, DWORD PTR __Ptr$[ebp]
  00016	8b 00		 mov	 eax, DWORD PTR [eax]
  00018	89 45 f4	 mov	 DWORD PTR __Ptr_user$[ebp], eax

; 137  :     const uintptr_t _Ptr_container   = _Ptr_user[-1];

  0001b	6a 04		 push	 4
  0001d	58		 pop	 eax
  0001e	6b c0 ff	 imul	 eax, eax, -1
  00021	8b 4d f4	 mov	 ecx, DWORD PTR __Ptr_user$[ebp]
  00024	8b 04 01	 mov	 eax, DWORD PTR [ecx+eax]
  00027	89 45 f8	 mov	 DWORD PTR __Ptr_container$[ebp], eax

; 138  : 
; 139  :     // If the following asserts, it likely means that we are performing
; 140  :     // an aligned delete on memory coming from an unaligned allocation.
; 141  :     _STL_ASSERT(_Ptr_user[-2] == _Big_allocation_sentinel, "invalid argument");
; 142  : 
; 143  :     // Extra paranoia on aligned allocation/deallocation; ensure _Ptr_container is
; 144  :     // in range [_Min_back_shift, _Non_user_size]
; 145  : #ifdef _DEBUG
; 146  :     constexpr uintptr_t _Min_back_shift = 2 * sizeof(void*);
; 147  : #else // ^^^ _DEBUG ^^^ // vvv !_DEBUG vvv
; 148  :     constexpr uintptr_t _Min_back_shift = sizeof(void*);

  0002a	c7 45 f0 04 00
	00 00		 mov	 DWORD PTR __Min_back_shift$[ebp], 4

; 149  : #endif // _DEBUG
; 150  :     const uintptr_t _Back_shift = reinterpret_cast<uintptr_t>(_Ptr) - _Ptr_container;

  00031	8b 45 08	 mov	 eax, DWORD PTR __Ptr$[ebp]
  00034	8b 00		 mov	 eax, DWORD PTR [eax]
  00036	2b 45 f8	 sub	 eax, DWORD PTR __Ptr_container$[ebp]
  00039	89 45 fc	 mov	 DWORD PTR __Back_shift$[ebp], eax
$LN4@Adjust_man:

; 151  :     _STL_VERIFY(_Back_shift >= _Min_back_shift && _Back_shift <= _Non_user_size, "invalid argument");

  0003c	83 7d fc 04	 cmp	 DWORD PTR __Back_shift$[ebp], 4
  00040	72 08		 jb	 SHORT $LN7@Adjust_man
  00042	83 7d fc 23	 cmp	 DWORD PTR __Back_shift$[ebp], 35 ; 00000023H
  00046	77 02		 ja	 SHORT $LN7@Adjust_man
  00048	eb 09		 jmp	 SHORT $LN2@Adjust_man
$LN7@Adjust_man:
  0004a	e8 00 00 00 00	 call	 __invalid_parameter_noinfo_noreturn
  0004f	33 c0		 xor	 eax, eax
  00051	75 f7		 jne	 SHORT $LN7@Adjust_man
$LN2@Adjust_man:
  00053	33 c0		 xor	 eax, eax
  00055	75 e5		 jne	 SHORT $LN4@Adjust_man

; 152  :     _Ptr = reinterpret_cast<void*>(_Ptr_container);

  00057	8b 45 08	 mov	 eax, DWORD PTR __Ptr$[ebp]
  0005a	8b 4d f8	 mov	 ecx, DWORD PTR __Ptr_container$[ebp]
  0005d	89 08		 mov	 DWORD PTR [eax], ecx
$LN10@Adjust_man:

; 153  : }

  0005f	c9		 leave
  00060	c3		 ret	 0
?_Adjust_manually_vector_aligned@std@@YAXAAPAXAAI@Z ENDP ; std::_Adjust_manually_vector_aligned
_TEXT	ENDS
; Function compile flags: /Odspy
; File C:\Program Files (x86)\Microsoft Visual Studio\2019\Community\VC\Tools\MSVC\14.28.29333\include\exception
;	COMDAT ?_Throw_bad_array_new_length@std@@YAXXZ
_TEXT	SEGMENT
$T1 = -12						; size = 12
?_Throw_bad_array_new_length@std@@YAXXZ PROC		; std::_Throw_bad_array_new_length, COMDAT

; 320  : [[noreturn]] inline void _Throw_bad_array_new_length() {

  00000	55		 push	 ebp
  00001	8b ec		 mov	 ebp, esp
  00003	83 ec 0c	 sub	 esp, 12			; 0000000cH

; 321  :     _THROW(bad_array_new_length{});

  00006	8d 4d f4	 lea	 ecx, DWORD PTR $T1[ebp]
  00009	e8 00 00 00 00	 call	 ??0bad_array_new_length@std@@QAE@XZ ; std::bad_array_new_length::bad_array_new_length
  0000e	68 00 00 00 00	 push	 OFFSET __TI3?AVbad_array_new_length@std@@
  00013	8d 45 f4	 lea	 eax, DWORD PTR $T1[ebp]
  00016	50		 push	 eax
  00017	e8 00 00 00 00	 call	 __CxxThrowException@8
$LN2@Throw_bad_:

; 322  : }

  0001c	c9		 leave
  0001d	c3		 ret	 0
?_Throw_bad_array_new_length@std@@YAXXZ ENDP		; std::_Throw_bad_array_new_length
_TEXT	ENDS
; Function compile flags: /Odspy
; File C:\Program Files (x86)\Microsoft Visual Studio\2019\Community\VC\Tools\MSVC\14.28.29333\include\vcruntime_exception.h
;	COMDAT ??_Gbad_array_new_length@std@@UAEPAXI@Z
_TEXT	SEGMENT
_this$ = -4						; size = 4
___flags$ = 8						; size = 4
??_Gbad_array_new_length@std@@UAEPAXI@Z PROC		; std::bad_array_new_length::`scalar deleting destructor', COMDAT
; _this$ = ecx
  00000	55		 push	 ebp
  00001	8b ec		 mov	 ebp, esp
  00003	51		 push	 ecx
  00004	89 4d fc	 mov	 DWORD PTR _this$[ebp], ecx

; 89   :     {

  00007	8b 45 fc	 mov	 eax, DWORD PTR _this$[ebp]
  0000a	c7 00 00 00 00
	00		 mov	 DWORD PTR [eax], OFFSET ??_7exception@std@@6B@

; 90   :         __std_exception_destroy(&_Data);

  00010	8b 45 fc	 mov	 eax, DWORD PTR _this$[ebp]
  00013	83 c0 04	 add	 eax, 4
  00016	50		 push	 eax
  00017	e8 00 00 00 00	 call	 ___std_exception_destroy
  0001c	59		 pop	 ecx
  0001d	8b 45 08	 mov	 eax, DWORD PTR ___flags$[ebp]
  00020	83 e0 01	 and	 eax, 1
  00023	74 0c		 je	 SHORT $LN2@scalar
  00025	6a 0c		 push	 12			; 0000000cH
  00027	ff 75 fc	 push	 DWORD PTR _this$[ebp]
  0002a	e8 00 00 00 00	 call	 ??3@YAXPAXI@Z		; operator delete
  0002f	59		 pop	 ecx
  00030	59		 pop	 ecx
$LN2@scalar:
  00031	8b 45 fc	 mov	 eax, DWORD PTR _this$[ebp]
  00034	c9		 leave
  00035	c2 04 00	 ret	 4
??_Gbad_array_new_length@std@@UAEPAXI@Z ENDP		; std::bad_array_new_length::`scalar deleting destructor'
_TEXT	ENDS
; Function compile flags: /Odspy
;	COMDAT ??0bad_array_new_length@std@@QAE@ABV01@@Z
_TEXT	SEGMENT
_this$ = -4						; size = 4
___that$ = 8						; size = 4
??0bad_array_new_length@std@@QAE@ABV01@@Z PROC		; std::bad_array_new_length::bad_array_new_length, COMDAT
; _this$ = ecx
  00000	55		 push	 ebp
  00001	8b ec		 mov	 ebp, esp
  00003	51		 push	 ecx
  00004	89 4d fc	 mov	 DWORD PTR _this$[ebp], ecx
  00007	ff 75 08	 push	 DWORD PTR ___that$[ebp]
  0000a	8b 4d fc	 mov	 ecx, DWORD PTR _this$[ebp]
  0000d	e8 00 00 00 00	 call	 ??0exception@std@@QAE@ABV01@@Z ; std::exception::exception
  00012	8b 45 fc	 mov	 eax, DWORD PTR _this$[ebp]
  00015	c7 00 00 00 00
	00		 mov	 DWORD PTR [eax], OFFSET ??_7bad_alloc@std@@6B@
  0001b	8b 45 fc	 mov	 eax, DWORD PTR _this$[ebp]
  0001e	c7 00 00 00 00
	00		 mov	 DWORD PTR [eax], OFFSET ??_7bad_array_new_length@std@@6B@
  00024	8b 45 fc	 mov	 eax, DWORD PTR _this$[ebp]
  00027	c9		 leave
  00028	c2 04 00	 ret	 4
??0bad_array_new_length@std@@QAE@ABV01@@Z ENDP		; std::bad_array_new_length::bad_array_new_length
_TEXT	ENDS
; Function compile flags: /Odspy
; File C:\Program Files (x86)\Microsoft Visual Studio\2019\Community\VC\Tools\MSVC\14.28.29333\include\vcruntime_exception.h
;	COMDAT ??1bad_array_new_length@std@@UAE@XZ
_TEXT	SEGMENT
_this$ = -4						; size = 4
??1bad_array_new_length@std@@UAE@XZ PROC		; std::bad_array_new_length::~bad_array_new_length, COMDAT
; _this$ = ecx
  00000	55		 push	 ebp
  00001	8b ec		 mov	 ebp, esp
  00003	51		 push	 ecx
  00004	89 4d fc	 mov	 DWORD PTR _this$[ebp], ecx

; 89   :     {

  00007	8b 45 fc	 mov	 eax, DWORD PTR _this$[ebp]
  0000a	c7 00 00 00 00
	00		 mov	 DWORD PTR [eax], OFFSET ??_7exception@std@@6B@

; 90   :         __std_exception_destroy(&_Data);

  00010	8b 45 fc	 mov	 eax, DWORD PTR _this$[ebp]
  00013	83 c0 04	 add	 eax, 4
  00016	50		 push	 eax
  00017	e8 00 00 00 00	 call	 ___std_exception_destroy
  0001c	59		 pop	 ecx
  0001d	c9		 leave
  0001e	c3		 ret	 0
??1bad_array_new_length@std@@UAE@XZ ENDP		; std::bad_array_new_length::~bad_array_new_length
_TEXT	ENDS
; Function compile flags: /Odspy
; File C:\Program Files (x86)\Microsoft Visual Studio\2019\Community\VC\Tools\MSVC\14.28.29333\include\vcruntime_exception.h
;	COMDAT ??0bad_array_new_length@std@@QAE@XZ
_TEXT	SEGMENT
_this$ = -4						; size = 4
??0bad_array_new_length@std@@QAE@XZ PROC		; std::bad_array_new_length::bad_array_new_length, COMDAT
; _this$ = ecx

; 141  :     {

  00000	55		 push	 ebp
  00001	8b ec		 mov	 ebp, esp
  00003	51		 push	 ecx
  00004	89 4d fc	 mov	 DWORD PTR _this$[ebp], ecx

; 66   :     {

  00007	8b 45 fc	 mov	 eax, DWORD PTR _this$[ebp]
  0000a	c7 00 00 00 00
	00		 mov	 DWORD PTR [eax], OFFSET ??_7exception@std@@6B@

; 65   :         : _Data()

  00010	33 c0		 xor	 eax, eax
  00012	8b 4d fc	 mov	 ecx, DWORD PTR _this$[ebp]
  00015	83 c1 04	 add	 ecx, 4
  00018	89 01		 mov	 DWORD PTR [ecx], eax
  0001a	89 41 04	 mov	 DWORD PTR [ecx+4], eax

; 67   :         _Data._What = _Message;

  0001d	8b 45 fc	 mov	 eax, DWORD PTR _this$[ebp]
  00020	c7 40 04 00 00
	00 00		 mov	 DWORD PTR [eax+4], OFFSET ??_C@_0BF@KINCDENJ@bad?5array?5new?5length@

; 130  :     {

  00027	8b 45 fc	 mov	 eax, DWORD PTR _this$[ebp]
  0002a	c7 00 00 00 00
	00		 mov	 DWORD PTR [eax], OFFSET ??_7bad_alloc@std@@6B@

; 141  :     {

  00030	8b 45 fc	 mov	 eax, DWORD PTR _this$[ebp]
  00033	c7 00 00 00 00
	00		 mov	 DWORD PTR [eax], OFFSET ??_7bad_array_new_length@std@@6B@

; 142  :     }

  00039	8b 45 fc	 mov	 eax, DWORD PTR _this$[ebp]
  0003c	c9		 leave
  0003d	c3		 ret	 0
??0bad_array_new_length@std@@QAE@XZ ENDP		; std::bad_array_new_length::bad_array_new_length
_TEXT	ENDS
; Function compile flags: /Odspy
; File C:\Program Files (x86)\Microsoft Visual Studio\2019\Community\VC\Tools\MSVC\14.28.29333\include\vcruntime_exception.h
;	COMDAT ??_Gbad_alloc@std@@UAEPAXI@Z
_TEXT	SEGMENT
_this$ = -4						; size = 4
___flags$ = 8						; size = 4
??_Gbad_alloc@std@@UAEPAXI@Z PROC			; std::bad_alloc::`scalar deleting destructor', COMDAT
; _this$ = ecx
  00000	55		 push	 ebp
  00001	8b ec		 mov	 ebp, esp
  00003	51		 push	 ecx
  00004	89 4d fc	 mov	 DWORD PTR _this$[ebp], ecx

; 89   :     {

  00007	8b 45 fc	 mov	 eax, DWORD PTR _this$[ebp]
  0000a	c7 00 00 00 00
	00		 mov	 DWORD PTR [eax], OFFSET ??_7exception@std@@6B@

; 90   :         __std_exception_destroy(&_Data);

  00010	8b 45 fc	 mov	 eax, DWORD PTR _this$[ebp]
  00013	83 c0 04	 add	 eax, 4
  00016	50		 push	 eax
  00017	e8 00 00 00 00	 call	 ___std_exception_destroy
  0001c	59		 pop	 ecx
  0001d	8b 45 08	 mov	 eax, DWORD PTR ___flags$[ebp]
  00020	83 e0 01	 and	 eax, 1
  00023	74 0c		 je	 SHORT $LN2@scalar
  00025	6a 0c		 push	 12			; 0000000cH
  00027	ff 75 fc	 push	 DWORD PTR _this$[ebp]
  0002a	e8 00 00 00 00	 call	 ??3@YAXPAXI@Z		; operator delete
  0002f	59		 pop	 ecx
  00030	59		 pop	 ecx
$LN2@scalar:
  00031	8b 45 fc	 mov	 eax, DWORD PTR _this$[ebp]
  00034	c9		 leave
  00035	c2 04 00	 ret	 4
??_Gbad_alloc@std@@UAEPAXI@Z ENDP			; std::bad_alloc::`scalar deleting destructor'
_TEXT	ENDS
; Function compile flags: /Odspy
;	COMDAT ??0bad_alloc@std@@QAE@ABV01@@Z
_TEXT	SEGMENT
_this$ = -4						; size = 4
___that$ = 8						; size = 4
??0bad_alloc@std@@QAE@ABV01@@Z PROC			; std::bad_alloc::bad_alloc, COMDAT
; _this$ = ecx
  00000	55		 push	 ebp
  00001	8b ec		 mov	 ebp, esp
  00003	51		 push	 ecx
  00004	89 4d fc	 mov	 DWORD PTR _this$[ebp], ecx
  00007	ff 75 08	 push	 DWORD PTR ___that$[ebp]
  0000a	8b 4d fc	 mov	 ecx, DWORD PTR _this$[ebp]
  0000d	e8 00 00 00 00	 call	 ??0exception@std@@QAE@ABV01@@Z ; std::exception::exception
  00012	8b 45 fc	 mov	 eax, DWORD PTR _this$[ebp]
  00015	c7 00 00 00 00
	00		 mov	 DWORD PTR [eax], OFFSET ??_7bad_alloc@std@@6B@
  0001b	8b 45 fc	 mov	 eax, DWORD PTR _this$[ebp]
  0001e	c9		 leave
  0001f	c2 04 00	 ret	 4
??0bad_alloc@std@@QAE@ABV01@@Z ENDP			; std::bad_alloc::bad_alloc
_TEXT	ENDS
; Function compile flags: /Odspy
; File C:\Program Files (x86)\Microsoft Visual Studio\2019\Community\VC\Tools\MSVC\14.28.29333\include\vcruntime_exception.h
;	COMDAT ??_Gexception@std@@UAEPAXI@Z
_TEXT	SEGMENT
_this$ = -4						; size = 4
___flags$ = 8						; size = 4
??_Gexception@std@@UAEPAXI@Z PROC			; std::exception::`scalar deleting destructor', COMDAT
; _this$ = ecx
  00000	55		 push	 ebp
  00001	8b ec		 mov	 ebp, esp
  00003	51		 push	 ecx
  00004	89 4d fc	 mov	 DWORD PTR _this$[ebp], ecx

; 89   :     {

  00007	8b 45 fc	 mov	 eax, DWORD PTR _this$[ebp]
  0000a	c7 00 00 00 00
	00		 mov	 DWORD PTR [eax], OFFSET ??_7exception@std@@6B@

; 90   :         __std_exception_destroy(&_Data);

  00010	8b 45 fc	 mov	 eax, DWORD PTR _this$[ebp]
  00013	83 c0 04	 add	 eax, 4
  00016	50		 push	 eax
  00017	e8 00 00 00 00	 call	 ___std_exception_destroy
  0001c	59		 pop	 ecx
  0001d	8b 45 08	 mov	 eax, DWORD PTR ___flags$[ebp]
  00020	83 e0 01	 and	 eax, 1
  00023	74 0c		 je	 SHORT $LN2@scalar
  00025	6a 0c		 push	 12			; 0000000cH
  00027	ff 75 fc	 push	 DWORD PTR _this$[ebp]
  0002a	e8 00 00 00 00	 call	 ??3@YAXPAXI@Z		; operator delete
  0002f	59		 pop	 ecx
  00030	59		 pop	 ecx
$LN2@scalar:
  00031	8b 45 fc	 mov	 eax, DWORD PTR _this$[ebp]
  00034	c9		 leave
  00035	c2 04 00	 ret	 4
??_Gexception@std@@UAEPAXI@Z ENDP			; std::exception::`scalar deleting destructor'
_TEXT	ENDS
; Function compile flags: /Odspy
; File C:\Program Files (x86)\Microsoft Visual Studio\2019\Community\VC\Tools\MSVC\14.28.29333\include\vcruntime_exception.h
;	COMDAT ?what@exception@std@@UBEPBDXZ
_TEXT	SEGMENT
tv69 = -8						; size = 4
_this$ = -4						; size = 4
?what@exception@std@@UBEPBDXZ PROC			; std::exception::what, COMDAT
; _this$ = ecx

; 94   :     {

  00000	55		 push	 ebp
  00001	8b ec		 mov	 ebp, esp
  00003	51		 push	 ecx
  00004	51		 push	 ecx
  00005	89 4d fc	 mov	 DWORD PTR _this$[ebp], ecx

; 95   :         return _Data._What ? _Data._What : "Unknown exception";

  00008	8b 45 fc	 mov	 eax, DWORD PTR _this$[ebp]
  0000b	83 78 04 00	 cmp	 DWORD PTR [eax+4], 0
  0000f	74 0b		 je	 SHORT $LN3@what
  00011	8b 45 fc	 mov	 eax, DWORD PTR _this$[ebp]
  00014	8b 40 04	 mov	 eax, DWORD PTR [eax+4]
  00017	89 45 f8	 mov	 DWORD PTR tv69[ebp], eax
  0001a	eb 07		 jmp	 SHORT $LN4@what
$LN3@what:
  0001c	c7 45 f8 00 00
	00 00		 mov	 DWORD PTR tv69[ebp], OFFSET ??_C@_0BC@EOODALEL@Unknown?5exception@
$LN4@what:
  00023	8b 45 f8	 mov	 eax, DWORD PTR tv69[ebp]

; 96   :     }

  00026	c9		 leave
  00027	c3		 ret	 0
?what@exception@std@@UBEPBDXZ ENDP			; std::exception::what
_TEXT	ENDS
; Function compile flags: /Odspy
; File C:\Program Files (x86)\Microsoft Visual Studio\2019\Community\VC\Tools\MSVC\14.28.29333\include\vcruntime_exception.h
;	COMDAT ??0exception@std@@QAE@ABV01@@Z
_TEXT	SEGMENT
_this$ = -4						; size = 4
__Other$ = 8						; size = 4
??0exception@std@@QAE@ABV01@@Z PROC			; std::exception::exception, COMDAT
; _this$ = ecx

; 72   :     {

  00000	55		 push	 ebp
  00001	8b ec		 mov	 ebp, esp
  00003	51		 push	 ecx
  00004	89 4d fc	 mov	 DWORD PTR _this$[ebp], ecx
  00007	8b 45 fc	 mov	 eax, DWORD PTR _this$[ebp]
  0000a	c7 00 00 00 00
	00		 mov	 DWORD PTR [eax], OFFSET ??_7exception@std@@6B@

; 71   :         : _Data()

  00010	33 c0		 xor	 eax, eax
  00012	8b 4d fc	 mov	 ecx, DWORD PTR _this$[ebp]
  00015	83 c1 04	 add	 ecx, 4
  00018	89 01		 mov	 DWORD PTR [ecx], eax
  0001a	89 41 04	 mov	 DWORD PTR [ecx+4], eax

; 73   :         __std_exception_copy(&_Other._Data, &_Data);

  0001d	8b 45 fc	 mov	 eax, DWORD PTR _this$[ebp]
  00020	83 c0 04	 add	 eax, 4
  00023	50		 push	 eax
  00024	8b 45 08	 mov	 eax, DWORD PTR __Other$[ebp]
  00027	83 c0 04	 add	 eax, 4
  0002a	50		 push	 eax
  0002b	e8 00 00 00 00	 call	 ___std_exception_copy
  00030	59		 pop	 ecx
  00031	59		 pop	 ecx

; 74   :     }

  00032	8b 45 fc	 mov	 eax, DWORD PTR _this$[ebp]
  00035	c9		 leave
  00036	c2 04 00	 ret	 4
??0exception@std@@QAE@ABV01@@Z ENDP			; std::exception::exception
_TEXT	ENDS
; Function compile flags: /Odspy
;	COMDAT ??_H@YGXPAXIIP6EPAX0@Z@Z
_TEXT	SEGMENT
tv66 = -4						; size = 4
___t$ = 8						; size = 4
___s$ = 12						; size = 4
___n$ = 16						; size = 4
___f$ = 20						; size = 4
??_H@YGXPAXIIP6EPAX0@Z@Z PROC				; `vector constructor iterator', COMDAT
  00000	55		 push	 ebp
  00001	8b ec		 mov	 ebp, esp
  00003	51		 push	 ecx
$LN2@vector:
  00004	8b 45 10	 mov	 eax, DWORD PTR ___n$[ebp]
  00007	89 45 fc	 mov	 DWORD PTR tv66[ebp], eax
  0000a	8b 45 10	 mov	 eax, DWORD PTR ___n$[ebp]
  0000d	48		 dec	 eax
  0000e	89 45 10	 mov	 DWORD PTR ___n$[ebp], eax
  00011	83 7d fc 00	 cmp	 DWORD PTR tv66[ebp], 0
  00015	76 11		 jbe	 SHORT $LN1@vector
  00017	8b 4d 08	 mov	 ecx, DWORD PTR ___t$[ebp]
  0001a	ff 55 14	 call	 DWORD PTR ___f$[ebp]
  0001d	8b 45 08	 mov	 eax, DWORD PTR ___t$[ebp]
  00020	03 45 0c	 add	 eax, DWORD PTR ___s$[ebp]
  00023	89 45 08	 mov	 DWORD PTR ___t$[ebp], eax
  00026	eb dc		 jmp	 SHORT $LN2@vector
$LN1@vector:
  00028	c9		 leave
  00029	c2 10 00	 ret	 16			; 00000010H
??_H@YGXPAXIIP6EPAX0@Z@Z ENDP				; `vector constructor iterator'
_TEXT	ENDS
END
