; Listing generated by Microsoft (R) Optimizing Compiler Version 19.28.29335.0 

	TITLE	D:\Metin2 Server Files\mainline\SRC_2014\Metin2Client\EterLib\GrpPixelShader.cpp
	.686P
	.XMM
	include listing.inc
	.model	flat

INCLUDELIB LIBCMT
INCLUDELIB OLDNAMES

PUBLIC	??_H@YGXPAXIIP6EPAX0@Z@Z			; `vector constructor iterator'
PUBLIC	??0CPixelShader@@QAE@XZ				; CPixelShader::CPixelShader
PUBLIC	??1CPixelShader@@UAE@XZ				; CPixelShader::~CPixelShader
PUBLIC	?Destroy@CPixelShader@@QAEXXZ			; CPixelShader::Destroy
PUBLIC	?CreateFromDiskFile@CPixelShader@@QAE_NPBD@Z	; CPixelShader::CreateFromDiskFile
PUBLIC	?Set@CPixelShader@@QAEXXZ			; CPixelShader::Set
PUBLIC	?Initialize@CPixelShader@@IAEXXZ		; CPixelShader::Initialize
PUBLIC	??_GCPixelShader@@UAEPAXI@Z			; CPixelShader::`scalar deleting destructor'
PUBLIC	??_7CPixelShader@@6B@				; CPixelShader::`vftable'
PUBLIC	?ms_singleton@?$CSingleton@VCStateManager@@@@0PAVCStateManager@@A ; CSingleton<CStateManager>::ms_singleton
PUBLIC	??_R4CPixelShader@@6B@				; CPixelShader::`RTTI Complete Object Locator'
PUBLIC	??_R0?AVCPixelShader@@@8			; CPixelShader `RTTI Type Descriptor'
PUBLIC	??_R3CPixelShader@@8				; CPixelShader::`RTTI Class Hierarchy Descriptor'
PUBLIC	??_R2CPixelShader@@8				; CPixelShader::`RTTI Base Class Array'
PUBLIC	??_R1A@?0A@EA@CPixelShader@@8			; CPixelShader::`RTTI Base Class Descriptor at (0,-1,0,64)'
PUBLIC	??_R1A@?0A@EA@CGraphicBase@@8			; CGraphicBase::`RTTI Base Class Descriptor at (0,-1,0,64)'
PUBLIC	??_R0?AVCGraphicBase@@@8			; CGraphicBase `RTTI Type Descriptor'
PUBLIC	??_R3CGraphicBase@@8				; CGraphicBase::`RTTI Class Hierarchy Descriptor'
PUBLIC	??_R2CGraphicBase@@8				; CGraphicBase::`RTTI Base Class Array'
EXTRN	??3@YAXPAXI@Z:PROC				; operator delete
EXTRN	_D3DXAssembleShaderFromFileA@20:PROC
EXTRN	??0CGraphicBase@@QAE@XZ:PROC			; CGraphicBase::CGraphicBase
EXTRN	??1CGraphicBase@@UAE@XZ:PROC			; CGraphicBase::~CGraphicBase
EXTRN	??_ECPixelShader@@UAEPAXI@Z:PROC		; CPixelShader::`vector deleting destructor'
EXTRN	??0CDirect3DXBuffer@@QAE@PAUID3DXBuffer@@@Z:PROC ; CDirect3DXBuffer::CDirect3DXBuffer
EXTRN	??1CDirect3DXBuffer@@UAE@XZ:PROC		; CDirect3DXBuffer::~CDirect3DXBuffer
EXTRN	?GetPointer@CDirect3DXBuffer@@QAEPAXXZ:PROC	; CDirect3DXBuffer::GetPointer
EXTRN	?SetPixelShader@CStateManager@@QAEXK@Z:PROC	; CStateManager::SetPixelShader
EXTRN	@__security_check_cookie@4:PROC
EXTRN	___CxxFrameHandler3:PROC
EXTRN	??_7type_info@@6B@:QWORD			; type_info::`vftable'
EXTRN	?ms_lpd3dDevice@CGraphicBase@@1PAUIDirect3DDevice8@@A:DWORD ; CGraphicBase::ms_lpd3dDevice
EXTRN	___security_cookie:DWORD
;	COMDAT ?ms_singleton@?$CSingleton@VCStateManager@@@@0PAVCStateManager@@A
_BSS	SEGMENT
?ms_singleton@?$CSingleton@VCStateManager@@@@0PAVCStateManager@@A DD 01H DUP (?) ; CSingleton<CStateManager>::ms_singleton
_BSS	ENDS
;	COMDAT ??_R2CGraphicBase@@8
rdata$r	SEGMENT
??_R2CGraphicBase@@8 DD FLAT:??_R1A@?0A@EA@CGraphicBase@@8 ; CGraphicBase::`RTTI Base Class Array'
rdata$r	ENDS
;	COMDAT ??_R3CGraphicBase@@8
rdata$r	SEGMENT
??_R3CGraphicBase@@8 DD 00H				; CGraphicBase::`RTTI Class Hierarchy Descriptor'
	DD	00H
	DD	01H
	DD	FLAT:??_R2CGraphicBase@@8
rdata$r	ENDS
;	COMDAT ??_R0?AVCGraphicBase@@@8
data$rs	SEGMENT
??_R0?AVCGraphicBase@@@8 DD FLAT:??_7type_info@@6B@	; CGraphicBase `RTTI Type Descriptor'
	DD	00H
	DB	'.?AVCGraphicBase@@', 00H
data$rs	ENDS
;	COMDAT ??_R1A@?0A@EA@CGraphicBase@@8
rdata$r	SEGMENT
??_R1A@?0A@EA@CGraphicBase@@8 DD FLAT:??_R0?AVCGraphicBase@@@8 ; CGraphicBase::`RTTI Base Class Descriptor at (0,-1,0,64)'
	DD	00H
	DD	00H
	DD	0ffffffffH
	DD	00H
	DD	040H
	DD	FLAT:??_R3CGraphicBase@@8
rdata$r	ENDS
;	COMDAT ??_R1A@?0A@EA@CPixelShader@@8
rdata$r	SEGMENT
??_R1A@?0A@EA@CPixelShader@@8 DD FLAT:??_R0?AVCPixelShader@@@8 ; CPixelShader::`RTTI Base Class Descriptor at (0,-1,0,64)'
	DD	01H
	DD	00H
	DD	0ffffffffH
	DD	00H
	DD	040H
	DD	FLAT:??_R3CPixelShader@@8
rdata$r	ENDS
;	COMDAT ??_R2CPixelShader@@8
rdata$r	SEGMENT
??_R2CPixelShader@@8 DD FLAT:??_R1A@?0A@EA@CPixelShader@@8 ; CPixelShader::`RTTI Base Class Array'
	DD	FLAT:??_R1A@?0A@EA@CGraphicBase@@8
rdata$r	ENDS
;	COMDAT ??_R3CPixelShader@@8
rdata$r	SEGMENT
??_R3CPixelShader@@8 DD 00H				; CPixelShader::`RTTI Class Hierarchy Descriptor'
	DD	00H
	DD	02H
	DD	FLAT:??_R2CPixelShader@@8
rdata$r	ENDS
;	COMDAT ??_R0?AVCPixelShader@@@8
data$rs	SEGMENT
??_R0?AVCPixelShader@@@8 DD FLAT:??_7type_info@@6B@	; CPixelShader `RTTI Type Descriptor'
	DD	00H
	DB	'.?AVCPixelShader@@', 00H
data$rs	ENDS
;	COMDAT ??_R4CPixelShader@@6B@
rdata$r	SEGMENT
??_R4CPixelShader@@6B@ DD 00H				; CPixelShader::`RTTI Complete Object Locator'
	DD	00H
	DD	00H
	DD	FLAT:??_R0?AVCPixelShader@@@8
	DD	FLAT:??_R3CPixelShader@@8
rdata$r	ENDS
;	COMDAT ??_7CPixelShader@@6B@
CONST	SEGMENT
??_7CPixelShader@@6B@ DD FLAT:??_R4CPixelShader@@6B@	; CPixelShader::`vftable'
	DD	FLAT:??_ECPixelShader@@UAEPAXI@Z
CONST	ENDS
;	COMDAT xdata$x
xdata$x	SEGMENT
__unwindtable$?CreateFromDiskFile@CPixelShader@@QAE_NPBD@Z DD 0ffffffffH
	DD	FLAT:__unwindfunclet$?CreateFromDiskFile@CPixelShader@@QAE_NPBD@Z$0
	DD	00H
	DD	FLAT:__unwindfunclet$?CreateFromDiskFile@CPixelShader@@QAE_NPBD@Z$1
__ehfuncinfo$?CreateFromDiskFile@CPixelShader@@QAE_NPBD@Z DD 019930522H
	DD	02H
	DD	FLAT:__unwindtable$?CreateFromDiskFile@CPixelShader@@QAE_NPBD@Z
	DD	2 DUP(00H)
	DD	2 DUP(00H)
	DD	00H
	DD	01H
xdata$x	ENDS
;	COMDAT xdata$x
xdata$x	SEGMENT
__ehfuncinfo$??1CPixelShader@@UAE@XZ DD 019930522H
	DD	00H
	DD	00H
	DD	2 DUP(00H)
	DD	2 DUP(00H)
	DD	00H
	DD	05H
xdata$x	ENDS
;	COMDAT xdata$x
xdata$x	SEGMENT
__unwindtable$??0CPixelShader@@QAE@XZ DD 0ffffffffH
	DD	FLAT:__unwindfunclet$??0CPixelShader@@QAE@XZ$0
__ehfuncinfo$??0CPixelShader@@QAE@XZ DD 019930522H
	DD	01H
	DD	FLAT:__unwindtable$??0CPixelShader@@QAE@XZ
	DD	2 DUP(00H)
	DD	2 DUP(00H)
	DD	00H
	DD	01H
xdata$x	ENDS
; Function compile flags: /Odspy
;	COMDAT ??_GCPixelShader@@UAEPAXI@Z
_TEXT	SEGMENT
_this$ = -4						; size = 4
___flags$ = 8						; size = 4
??_GCPixelShader@@UAEPAXI@Z PROC			; CPixelShader::`scalar deleting destructor', COMDAT
; _this$ = ecx
  00000	55		 push	 ebp
  00001	8b ec		 mov	 ebp, esp
  00003	51		 push	 ecx
  00004	89 4d fc	 mov	 DWORD PTR _this$[ebp], ecx
  00007	8b 4d fc	 mov	 ecx, DWORD PTR _this$[ebp]
  0000a	e8 00 00 00 00	 call	 ??1CPixelShader@@UAE@XZ	; CPixelShader::~CPixelShader
  0000f	8b 45 08	 mov	 eax, DWORD PTR ___flags$[ebp]
  00012	83 e0 01	 and	 eax, 1
  00015	74 0c		 je	 SHORT $LN2@scalar
  00017	6a 08		 push	 8
  00019	ff 75 fc	 push	 DWORD PTR _this$[ebp]
  0001c	e8 00 00 00 00	 call	 ??3@YAXPAXI@Z		; operator delete
  00021	59		 pop	 ecx
  00022	59		 pop	 ecx
$LN2@scalar:
  00023	8b 45 fc	 mov	 eax, DWORD PTR _this$[ebp]
  00026	c9		 leave
  00027	c2 04 00	 ret	 4
??_GCPixelShader@@UAEPAXI@Z ENDP			; CPixelShader::`scalar deleting destructor'
_TEXT	ENDS
; Function compile flags: /Odspy
; File D:\Metin2 Server Files\mainline\SRC_2014\Metin2Client\EterLib\GrpPixelShader.cpp
;	COMDAT ?Initialize@CPixelShader@@IAEXXZ
_TEXT	SEGMENT
_this$ = -4						; size = 4
?Initialize@CPixelShader@@IAEXXZ PROC			; CPixelShader::Initialize, COMDAT
; _this$ = ecx

; 17   : {

  00000	55		 push	 ebp
  00001	8b ec		 mov	 ebp, esp
  00003	51		 push	 ecx
  00004	89 4d fc	 mov	 DWORD PTR _this$[ebp], ecx

; 18   : 	m_handle=0;

  00007	8b 45 fc	 mov	 eax, DWORD PTR _this$[ebp]
  0000a	83 60 04 00	 and	 DWORD PTR [eax+4], 0

; 19   : }

  0000e	c9		 leave
  0000f	c3		 ret	 0
?Initialize@CPixelShader@@IAEXXZ ENDP			; CPixelShader::Initialize
_TEXT	ENDS
; Function compile flags: /Odspy
; File D:\Metin2 Server Files\mainline\SRC_2014\Metin2Client\EterLib\GrpPixelShader.cpp
;	COMDAT ?Set@CPixelShader@@QAEXXZ
_TEXT	SEGMENT
_this$ = -4						; size = 4
?Set@CPixelShader@@QAEXXZ PROC				; CPixelShader::Set, COMDAT
; _this$ = ecx

; 53   : {

  00000	55		 push	 ebp
  00001	8b ec		 mov	 ebp, esp
  00003	51		 push	 ecx
  00004	89 4d fc	 mov	 DWORD PTR _this$[ebp], ecx

; 54   : 	STATEMANAGER.SetPixelShader(m_handle);

  00007	8b 45 fc	 mov	 eax, DWORD PTR _this$[ebp]
  0000a	ff 70 04	 push	 DWORD PTR [eax+4]
  0000d	8b 0d 00 00 00
	00		 mov	 ecx, DWORD PTR ?ms_singleton@?$CSingleton@VCStateManager@@@@0PAVCStateManager@@A ; CSingleton<CStateManager>::ms_singleton
  00013	e8 00 00 00 00	 call	 ?SetPixelShader@CStateManager@@QAEXK@Z ; CStateManager::SetPixelShader

; 55   : }

  00018	c9		 leave
  00019	c3		 ret	 0
?Set@CPixelShader@@QAEXXZ ENDP				; CPixelShader::Set
_TEXT	ENDS
; Function compile flags: /Odspy
; File D:\Metin2 Server Files\mainline\SRC_2014\Metin2Client\EterLib\GrpPixelShader.cpp
;	COMDAT ?CreateFromDiskFile@CPixelShader@@QAE_NPBD@Z
_TEXT	SEGMENT
_errorBuffer$ = -44					; size = 8
_shaderBuffer$ = -36					; size = 8
_lpd3dxErrorBuffer$ = -28				; size = 4
_lpd3dxShaderBuffer$ = -24				; size = 4
_this$ = -20						; size = 4
$T2 = -14						; size = 1
$T3 = -13						; size = 1
__$EHRec$ = -12						; size = 12
_c_szFileName$ = 8					; size = 4
?CreateFromDiskFile@CPixelShader@@QAE_NPBD@Z PROC	; CPixelShader::CreateFromDiskFile, COMDAT
; _this$ = ecx

; 32   : {

  00000	55		 push	 ebp
  00001	8b ec		 mov	 ebp, esp
  00003	6a ff		 push	 -1
  00005	68 00 00 00 00	 push	 __ehhandler$?CreateFromDiskFile@CPixelShader@@QAE_NPBD@Z
  0000a	64 a1 00 00 00
	00		 mov	 eax, DWORD PTR fs:0
  00010	50		 push	 eax
  00011	83 ec 20	 sub	 esp, 32			; 00000020H
  00014	a1 00 00 00 00	 mov	 eax, DWORD PTR ___security_cookie
  00019	33 c5		 xor	 eax, ebp
  0001b	50		 push	 eax
  0001c	8d 45 f4	 lea	 eax, DWORD PTR __$EHRec$[ebp]
  0001f	64 a3 00 00 00
	00		 mov	 DWORD PTR fs:0, eax
  00025	89 4d ec	 mov	 DWORD PTR _this$[ebp], ecx

; 33   : 	Destroy();

  00028	8b 4d ec	 mov	 ecx, DWORD PTR _this$[ebp]
  0002b	e8 00 00 00 00	 call	 ?Destroy@CPixelShader@@QAEXXZ ; CPixelShader::Destroy

; 34   : 
; 35   : 	LPD3DXBUFFER lpd3dxShaderBuffer;
; 36   : 	LPD3DXBUFFER lpd3dxErrorBuffer;
; 37   : 	
; 38   : 	if (FAILED(

  00030	8d 45 e4	 lea	 eax, DWORD PTR _lpd3dxErrorBuffer$[ebp]
  00033	50		 push	 eax
  00034	8d 45 e8	 lea	 eax, DWORD PTR _lpd3dxShaderBuffer$[ebp]
  00037	50		 push	 eax
  00038	6a 00		 push	 0
  0003a	6a 00		 push	 0
  0003c	ff 75 08	 push	 DWORD PTR _c_szFileName$[ebp]
  0003f	e8 00 00 00 00	 call	 _D3DXAssembleShaderFromFileA@20
  00044	85 c0		 test	 eax, eax
  00046	7d 07		 jge	 SHORT $LN2@CreateFrom

; 39   : 		D3DXAssembleShaderFromFile(c_szFileName, 0, NULL, &lpd3dxShaderBuffer, &lpd3dxErrorBuffer)
; 40   : 	))
; 41   : 		return false;

  00048	32 c0		 xor	 al, al
  0004a	e9 85 00 00 00	 jmp	 $LN1@CreateFrom
$LN2@CreateFrom:

; 42   : 
; 43   : 	CDirect3DXBuffer shaderBuffer(lpd3dxShaderBuffer);

  0004f	ff 75 e8	 push	 DWORD PTR _lpd3dxShaderBuffer$[ebp]
  00052	8d 4d dc	 lea	 ecx, DWORD PTR _shaderBuffer$[ebp]
  00055	e8 00 00 00 00	 call	 ??0CDirect3DXBuffer@@QAE@PAUID3DXBuffer@@@Z ; CDirect3DXBuffer::CDirect3DXBuffer
  0005a	83 65 fc 00	 and	 DWORD PTR __$EHRec$[ebp+8], 0

; 44   : 	CDirect3DXBuffer errorBuffer(lpd3dxErrorBuffer);

  0005e	ff 75 e4	 push	 DWORD PTR _lpd3dxErrorBuffer$[ebp]
  00061	8d 4d d4	 lea	 ecx, DWORD PTR _errorBuffer$[ebp]
  00064	e8 00 00 00 00	 call	 ??0CDirect3DXBuffer@@QAE@PAUID3DXBuffer@@@Z ; CDirect3DXBuffer::CDirect3DXBuffer
  00069	c6 45 fc 01	 mov	 BYTE PTR __$EHRec$[ebp+8], 1

; 45   : 
; 46   : 	if (FAILED(ms_lpd3dDevice->CreatePixelShader((DWORD*)shaderBuffer.GetPointer(), &m_handle)))

  0006d	8b 45 ec	 mov	 eax, DWORD PTR _this$[ebp]
  00070	83 c0 04	 add	 eax, 4
  00073	50		 push	 eax
  00074	8d 4d dc	 lea	 ecx, DWORD PTR _shaderBuffer$[ebp]
  00077	e8 00 00 00 00	 call	 ?GetPointer@CDirect3DXBuffer@@QAEPAXXZ ; CDirect3DXBuffer::GetPointer
  0007c	50		 push	 eax
  0007d	a1 00 00 00 00	 mov	 eax, DWORD PTR ?ms_lpd3dDevice@CGraphicBase@@1PAUIDirect3DDevice8@@A ; CGraphicBase::ms_lpd3dDevice
  00082	8b 00		 mov	 eax, DWORD PTR [eax]
  00084	ff 35 00 00 00
	00		 push	 DWORD PTR ?ms_lpd3dDevice@CGraphicBase@@1PAUIDirect3DDevice8@@A ; CGraphicBase::ms_lpd3dDevice
  0008a	ff 90 5c 01 00
	00		 call	 DWORD PTR [eax+348]
  00090	85 c0		 test	 eax, eax
  00092	7d 21		 jge	 SHORT $LN3@CreateFrom

; 47   : 		return false;

  00094	c6 45 f3 00	 mov	 BYTE PTR $T3[ebp], 0
  00098	c6 45 fc 00	 mov	 BYTE PTR __$EHRec$[ebp+8], 0
  0009c	8d 4d d4	 lea	 ecx, DWORD PTR _errorBuffer$[ebp]
  0009f	e8 00 00 00 00	 call	 ??1CDirect3DXBuffer@@UAE@XZ ; CDirect3DXBuffer::~CDirect3DXBuffer
  000a4	83 4d fc ff	 or	 DWORD PTR __$EHRec$[ebp+8], -1
  000a8	8d 4d dc	 lea	 ecx, DWORD PTR _shaderBuffer$[ebp]
  000ab	e8 00 00 00 00	 call	 ??1CDirect3DXBuffer@@UAE@XZ ; CDirect3DXBuffer::~CDirect3DXBuffer
  000b0	8a 45 f3	 mov	 al, BYTE PTR $T3[ebp]
  000b3	eb 1f		 jmp	 SHORT $LN1@CreateFrom
$LN3@CreateFrom:

; 48   : 
; 49   : 	return true;

  000b5	c6 45 f2 01	 mov	 BYTE PTR $T2[ebp], 1
  000b9	c6 45 fc 00	 mov	 BYTE PTR __$EHRec$[ebp+8], 0
  000bd	8d 4d d4	 lea	 ecx, DWORD PTR _errorBuffer$[ebp]
  000c0	e8 00 00 00 00	 call	 ??1CDirect3DXBuffer@@UAE@XZ ; CDirect3DXBuffer::~CDirect3DXBuffer
  000c5	83 4d fc ff	 or	 DWORD PTR __$EHRec$[ebp+8], -1
  000c9	8d 4d dc	 lea	 ecx, DWORD PTR _shaderBuffer$[ebp]
  000cc	e8 00 00 00 00	 call	 ??1CDirect3DXBuffer@@UAE@XZ ; CDirect3DXBuffer::~CDirect3DXBuffer
  000d1	8a 45 f2	 mov	 al, BYTE PTR $T2[ebp]
$LN1@CreateFrom:

; 50   : }

  000d4	8b 4d f4	 mov	 ecx, DWORD PTR __$EHRec$[ebp]
  000d7	64 89 0d 00 00
	00 00		 mov	 DWORD PTR fs:0, ecx
  000de	59		 pop	 ecx
  000df	c9		 leave
  000e0	c2 04 00	 ret	 4
_TEXT	ENDS
;	COMDAT text$x
text$x	SEGMENT
__unwindfunclet$?CreateFromDiskFile@CPixelShader@@QAE_NPBD@Z$0:
  00000	8d 4d dc	 lea	 ecx, DWORD PTR _shaderBuffer$[ebp]
  00003	e9 00 00 00 00	 jmp	 ??1CDirect3DXBuffer@@UAE@XZ ; CDirect3DXBuffer::~CDirect3DXBuffer
__unwindfunclet$?CreateFromDiskFile@CPixelShader@@QAE_NPBD@Z$1:
  00008	8d 4d d4	 lea	 ecx, DWORD PTR _errorBuffer$[ebp]
  0000b	e9 00 00 00 00	 jmp	 ??1CDirect3DXBuffer@@UAE@XZ ; CDirect3DXBuffer::~CDirect3DXBuffer
  00010	cc		 int	 3
  00011	cc		 int	 3
  00012	cc		 int	 3
  00013	cc		 int	 3
  00014	cc		 int	 3
__ehhandler$?CreateFromDiskFile@CPixelShader@@QAE_NPBD@Z:
  00015	90		 npad	 1
  00016	90		 npad	 1
  00017	8b 54 24 08	 mov	 edx, DWORD PTR [esp+8]
  0001b	8d 42 0c	 lea	 eax, DWORD PTR [edx+12]
  0001e	8b 4a dc	 mov	 ecx, DWORD PTR [edx-36]
  00021	33 c8		 xor	 ecx, eax
  00023	e8 00 00 00 00	 call	 @__security_check_cookie@4
  00028	b8 00 00 00 00	 mov	 eax, OFFSET __ehfuncinfo$?CreateFromDiskFile@CPixelShader@@QAE_NPBD@Z
  0002d	e9 00 00 00 00	 jmp	 ___CxxFrameHandler3
text$x	ENDS
?CreateFromDiskFile@CPixelShader@@QAE_NPBD@Z ENDP	; CPixelShader::CreateFromDiskFile
; Function compile flags: /Odspy
; File D:\Metin2 Server Files\mainline\SRC_2014\Metin2Client\EterLib\GrpPixelShader.cpp
;	COMDAT ?Destroy@CPixelShader@@QAEXXZ
_TEXT	SEGMENT
_this$ = -4						; size = 4
?Destroy@CPixelShader@@QAEXXZ PROC			; CPixelShader::Destroy, COMDAT
; _this$ = ecx

; 22   : {

  00000	55		 push	 ebp
  00001	8b ec		 mov	 ebp, esp
  00003	51		 push	 ecx
  00004	89 4d fc	 mov	 DWORD PTR _this$[ebp], ecx

; 23   : 	if (m_handle)

  00007	8b 45 fc	 mov	 eax, DWORD PTR _this$[ebp]
  0000a	83 78 04 00	 cmp	 DWORD PTR [eax+4], 0
  0000e	74 29		 je	 SHORT $LN1@Destroy

; 24   : 	{
; 25   : 		if (ms_lpd3dDevice)

  00010	83 3d 00 00 00
	00 00		 cmp	 DWORD PTR ?ms_lpd3dDevice@CGraphicBase@@1PAUIDirect3DDevice8@@A, 0 ; CGraphicBase::ms_lpd3dDevice
  00017	74 19		 je	 SHORT $LN3@Destroy

; 26   : 			ms_lpd3dDevice->DeletePixelShader(m_handle);

  00019	8b 45 fc	 mov	 eax, DWORD PTR _this$[ebp]
  0001c	ff 70 04	 push	 DWORD PTR [eax+4]
  0001f	a1 00 00 00 00	 mov	 eax, DWORD PTR ?ms_lpd3dDevice@CGraphicBase@@1PAUIDirect3DDevice8@@A ; CGraphicBase::ms_lpd3dDevice
  00024	8b 00		 mov	 eax, DWORD PTR [eax]
  00026	ff 35 00 00 00
	00		 push	 DWORD PTR ?ms_lpd3dDevice@CGraphicBase@@1PAUIDirect3DDevice8@@A ; CGraphicBase::ms_lpd3dDevice
  0002c	ff 90 68 01 00
	00		 call	 DWORD PTR [eax+360]
$LN3@Destroy:

; 27   : 		m_handle=0;

  00032	8b 45 fc	 mov	 eax, DWORD PTR _this$[ebp]
  00035	83 60 04 00	 and	 DWORD PTR [eax+4], 0
$LN1@Destroy:

; 28   : 	}
; 29   : }

  00039	c9		 leave
  0003a	c3		 ret	 0
?Destroy@CPixelShader@@QAEXXZ ENDP			; CPixelShader::Destroy
_TEXT	ENDS
; Function compile flags: /Odspy
; File D:\Metin2 Server Files\mainline\SRC_2014\Metin2Client\EterLib\GrpPixelShader.cpp
;	COMDAT ??1CPixelShader@@UAE@XZ
_TEXT	SEGMENT
_this$ = -16						; size = 4
__$EHRec$ = -12						; size = 12
??1CPixelShader@@UAE@XZ PROC				; CPixelShader::~CPixelShader, COMDAT
; _this$ = ecx

; 12   : {

  00000	55		 push	 ebp
  00001	8b ec		 mov	 ebp, esp
  00003	6a ff		 push	 -1
  00005	68 00 00 00 00	 push	 __ehhandler$??1CPixelShader@@UAE@XZ
  0000a	64 a1 00 00 00
	00		 mov	 eax, DWORD PTR fs:0
  00010	50		 push	 eax
  00011	51		 push	 ecx
  00012	a1 00 00 00 00	 mov	 eax, DWORD PTR ___security_cookie
  00017	33 c5		 xor	 eax, ebp
  00019	50		 push	 eax
  0001a	8d 45 f4	 lea	 eax, DWORD PTR __$EHRec$[ebp]
  0001d	64 a3 00 00 00
	00		 mov	 DWORD PTR fs:0, eax
  00023	89 4d f0	 mov	 DWORD PTR _this$[ebp], ecx
  00026	8b 45 f0	 mov	 eax, DWORD PTR _this$[ebp]
  00029	c7 00 00 00 00
	00		 mov	 DWORD PTR [eax], OFFSET ??_7CPixelShader@@6B@

; 13   : 	Destroy();

  0002f	8b 4d f0	 mov	 ecx, DWORD PTR _this$[ebp]
  00032	e8 00 00 00 00	 call	 ?Destroy@CPixelShader@@QAEXXZ ; CPixelShader::Destroy

; 14   : }

  00037	8b 4d f0	 mov	 ecx, DWORD PTR _this$[ebp]
  0003a	e8 00 00 00 00	 call	 ??1CGraphicBase@@UAE@XZ	; CGraphicBase::~CGraphicBase
  0003f	8b 4d f4	 mov	 ecx, DWORD PTR __$EHRec$[ebp]
  00042	64 89 0d 00 00
	00 00		 mov	 DWORD PTR fs:0, ecx
  00049	59		 pop	 ecx
  0004a	c9		 leave
  0004b	c3		 ret	 0
  0004c	cc		 int	 3
  0004d	cc		 int	 3
  0004e	cc		 int	 3
  0004f	cc		 int	 3
  00050	cc		 int	 3
_TEXT	ENDS
;	COMDAT text$x
text$x	SEGMENT
__ehhandler$??1CPixelShader@@UAE@XZ:
  00000	90		 npad	 1
  00001	90		 npad	 1
  00002	8b 54 24 08	 mov	 edx, DWORD PTR [esp+8]
  00006	8d 42 0c	 lea	 eax, DWORD PTR [edx+12]
  00009	8b 4a f8	 mov	 ecx, DWORD PTR [edx-8]
  0000c	33 c8		 xor	 ecx, eax
  0000e	e8 00 00 00 00	 call	 @__security_check_cookie@4
  00013	b8 00 00 00 00	 mov	 eax, OFFSET __ehfuncinfo$??1CPixelShader@@UAE@XZ
  00018	e9 00 00 00 00	 jmp	 ___CxxFrameHandler3
text$x	ENDS
??1CPixelShader@@UAE@XZ ENDP				; CPixelShader::~CPixelShader
; Function compile flags: /Odspy
; File D:\Metin2 Server Files\mainline\SRC_2014\Metin2Client\EterLib\GrpPixelShader.cpp
;	COMDAT ??0CPixelShader@@QAE@XZ
_TEXT	SEGMENT
_this$ = -16						; size = 4
__$EHRec$ = -12						; size = 12
??0CPixelShader@@QAE@XZ PROC				; CPixelShader::CPixelShader, COMDAT
; _this$ = ecx

; 7    : {

  00000	55		 push	 ebp
  00001	8b ec		 mov	 ebp, esp
  00003	6a ff		 push	 -1
  00005	68 00 00 00 00	 push	 __ehhandler$??0CPixelShader@@QAE@XZ
  0000a	64 a1 00 00 00
	00		 mov	 eax, DWORD PTR fs:0
  00010	50		 push	 eax
  00011	51		 push	 ecx
  00012	a1 00 00 00 00	 mov	 eax, DWORD PTR ___security_cookie
  00017	33 c5		 xor	 eax, ebp
  00019	50		 push	 eax
  0001a	8d 45 f4	 lea	 eax, DWORD PTR __$EHRec$[ebp]
  0001d	64 a3 00 00 00
	00		 mov	 DWORD PTR fs:0, eax
  00023	89 4d f0	 mov	 DWORD PTR _this$[ebp], ecx
  00026	8b 4d f0	 mov	 ecx, DWORD PTR _this$[ebp]
  00029	e8 00 00 00 00	 call	 ??0CGraphicBase@@QAE@XZ	; CGraphicBase::CGraphicBase
  0002e	83 65 fc 00	 and	 DWORD PTR __$EHRec$[ebp+8], 0
  00032	8b 45 f0	 mov	 eax, DWORD PTR _this$[ebp]
  00035	c7 00 00 00 00
	00		 mov	 DWORD PTR [eax], OFFSET ??_7CPixelShader@@6B@

; 8    : 	Initialize();

  0003b	8b 4d f0	 mov	 ecx, DWORD PTR _this$[ebp]
  0003e	e8 00 00 00 00	 call	 ?Initialize@CPixelShader@@IAEXXZ ; CPixelShader::Initialize

; 9    : }

  00043	83 4d fc ff	 or	 DWORD PTR __$EHRec$[ebp+8], -1
  00047	8b 45 f0	 mov	 eax, DWORD PTR _this$[ebp]
  0004a	8b 4d f4	 mov	 ecx, DWORD PTR __$EHRec$[ebp]
  0004d	64 89 0d 00 00
	00 00		 mov	 DWORD PTR fs:0, ecx
  00054	59		 pop	 ecx
  00055	c9		 leave
  00056	c3		 ret	 0
_TEXT	ENDS
;	COMDAT text$x
text$x	SEGMENT
__unwindfunclet$??0CPixelShader@@QAE@XZ$0:
  00000	8b 4d f0	 mov	 ecx, DWORD PTR _this$[ebp]
  00003	e9 00 00 00 00	 jmp	 ??1CGraphicBase@@UAE@XZ	; CGraphicBase::~CGraphicBase
  00008	cc		 int	 3
  00009	cc		 int	 3
  0000a	cc		 int	 3
  0000b	cc		 int	 3
  0000c	cc		 int	 3
__ehhandler$??0CPixelShader@@QAE@XZ:
  0000d	90		 npad	 1
  0000e	90		 npad	 1
  0000f	8b 54 24 08	 mov	 edx, DWORD PTR [esp+8]
  00013	8d 42 0c	 lea	 eax, DWORD PTR [edx+12]
  00016	8b 4a f8	 mov	 ecx, DWORD PTR [edx-8]
  00019	33 c8		 xor	 ecx, eax
  0001b	e8 00 00 00 00	 call	 @__security_check_cookie@4
  00020	b8 00 00 00 00	 mov	 eax, OFFSET __ehfuncinfo$??0CPixelShader@@QAE@XZ
  00025	e9 00 00 00 00	 jmp	 ___CxxFrameHandler3
text$x	ENDS
??0CPixelShader@@QAE@XZ ENDP				; CPixelShader::CPixelShader
; Function compile flags: /Odspy
;	COMDAT ??_H@YGXPAXIIP6EPAX0@Z@Z
_TEXT	SEGMENT
tv66 = -4						; size = 4
___t$ = 8						; size = 4
___s$ = 12						; size = 4
___n$ = 16						; size = 4
___f$ = 20						; size = 4
??_H@YGXPAXIIP6EPAX0@Z@Z PROC				; `vector constructor iterator', COMDAT
  00000	55		 push	 ebp
  00001	8b ec		 mov	 ebp, esp
  00003	51		 push	 ecx
$LN2@vector:
  00004	8b 45 10	 mov	 eax, DWORD PTR ___n$[ebp]
  00007	89 45 fc	 mov	 DWORD PTR tv66[ebp], eax
  0000a	8b 45 10	 mov	 eax, DWORD PTR ___n$[ebp]
  0000d	48		 dec	 eax
  0000e	89 45 10	 mov	 DWORD PTR ___n$[ebp], eax
  00011	83 7d fc 00	 cmp	 DWORD PTR tv66[ebp], 0
  00015	76 11		 jbe	 SHORT $LN1@vector
  00017	8b 4d 08	 mov	 ecx, DWORD PTR ___t$[ebp]
  0001a	ff 55 14	 call	 DWORD PTR ___f$[ebp]
  0001d	8b 45 08	 mov	 eax, DWORD PTR ___t$[ebp]
  00020	03 45 0c	 add	 eax, DWORD PTR ___s$[ebp]
  00023	89 45 08	 mov	 DWORD PTR ___t$[ebp], eax
  00026	eb dc		 jmp	 SHORT $LN2@vector
$LN1@vector:
  00028	c9		 leave
  00029	c2 10 00	 ret	 16			; 00000010H
??_H@YGXPAXIIP6EPAX0@Z@Z ENDP				; `vector constructor iterator'
_TEXT	ENDS
END
