; Listing generated by Microsoft (R) Optimizing Compiler Version 19.28.29335.0 

	TITLE	D:\Metin2 Server Files\mainline\SRC_2014\Metin2Client\EterLib\GrpRatioInstance.cpp
	.686P
	.XMM
	include listing.inc
	.model	flat

INCLUDELIB LIBCMT
INCLUDELIB OLDNAMES

PUBLIC	??0CGraphicRatioInstance@@QAE@XZ		; CGraphicRatioInstance::CGraphicRatioInstance
PUBLIC	??1CGraphicRatioInstance@@UAE@XZ		; CGraphicRatioInstance::~CGraphicRatioInstance
PUBLIC	?Clear@CGraphicRatioInstance@@QAEXXZ		; CGraphicRatioInstance::Clear
PUBLIC	?SetRatioReference@CGraphicRatioInstance@@QAEXABM@Z ; CGraphicRatioInstance::SetRatioReference
PUBLIC	?BlendRatioReference@CGraphicRatioInstance@@QAEXKABM@Z ; CGraphicRatioInstance::BlendRatioReference
PUBLIC	?Update@CGraphicRatioInstance@@QAEXXZ		; CGraphicRatioInstance::Update
PUBLIC	?GetCurrentRatioReference@CGraphicRatioInstance@@QBEABMXZ ; CGraphicRatioInstance::GetCurrentRatioReference
PUBLIC	?GetTime@CGraphicRatioInstance@@IAEKXZ		; CGraphicRatioInstance::GetTime
PUBLIC	??_GCGraphicRatioInstance@@UAEPAXI@Z		; CGraphicRatioInstance::`scalar deleting destructor'
PUBLIC	??_7CGraphicRatioInstance@@6B@			; CGraphicRatioInstance::`vftable'
PUBLIC	?ms_singleton@?$CSingleton@VCTimer@@@@0PAVCTimer@@A ; CSingleton<CTimer>::ms_singleton
PUBLIC	??_R4CGraphicRatioInstance@@6B@			; CGraphicRatioInstance::`RTTI Complete Object Locator'
PUBLIC	??_R0?AVCGraphicRatioInstance@@@8		; CGraphicRatioInstance `RTTI Type Descriptor'
PUBLIC	??_R3CGraphicRatioInstance@@8			; CGraphicRatioInstance::`RTTI Class Hierarchy Descriptor'
PUBLIC	??_R2CGraphicRatioInstance@@8			; CGraphicRatioInstance::`RTTI Base Class Array'
PUBLIC	??_R1A@?0A@EA@CGraphicRatioInstance@@8		; CGraphicRatioInstance::`RTTI Base Class Descriptor at (0,-1,0,64)'
PUBLIC	__xmm@41f00000000000000000000000000000
EXTRN	??3@YAXPAXI@Z:PROC				; operator delete
EXTRN	??_ECGraphicRatioInstance@@UAEPAXI@Z:PROC	; CGraphicRatioInstance::`vector deleting destructor'
EXTRN	?GetCurrentMillisecond@CTimer@@QAEKXZ:PROC	; CTimer::GetCurrentMillisecond
EXTRN	??_7type_info@@6B@:QWORD			; type_info::`vftable'
EXTRN	__fltused:DWORD
;	COMDAT ?ms_singleton@?$CSingleton@VCTimer@@@@0PAVCTimer@@A
_BSS	SEGMENT
?ms_singleton@?$CSingleton@VCTimer@@@@0PAVCTimer@@A DD 01H DUP (?) ; CSingleton<CTimer>::ms_singleton
_BSS	ENDS
;	COMDAT __xmm@41f00000000000000000000000000000
CONST	SEGMENT
__xmm@41f00000000000000000000000000000 DB 00H, 00H, 00H, 00H, 00H, 00H, 00H
	DB	00H, 00H, 00H, 00H, 00H, 00H, 00H, 0f0H, 'A'
CONST	ENDS
;	COMDAT ??_R1A@?0A@EA@CGraphicRatioInstance@@8
rdata$r	SEGMENT
??_R1A@?0A@EA@CGraphicRatioInstance@@8 DD FLAT:??_R0?AVCGraphicRatioInstance@@@8 ; CGraphicRatioInstance::`RTTI Base Class Descriptor at (0,-1,0,64)'
	DD	00H
	DD	00H
	DD	0ffffffffH
	DD	00H
	DD	040H
	DD	FLAT:??_R3CGraphicRatioInstance@@8
rdata$r	ENDS
;	COMDAT ??_R2CGraphicRatioInstance@@8
rdata$r	SEGMENT
??_R2CGraphicRatioInstance@@8 DD FLAT:??_R1A@?0A@EA@CGraphicRatioInstance@@8 ; CGraphicRatioInstance::`RTTI Base Class Array'
rdata$r	ENDS
;	COMDAT ??_R3CGraphicRatioInstance@@8
rdata$r	SEGMENT
??_R3CGraphicRatioInstance@@8 DD 00H			; CGraphicRatioInstance::`RTTI Class Hierarchy Descriptor'
	DD	00H
	DD	01H
	DD	FLAT:??_R2CGraphicRatioInstance@@8
rdata$r	ENDS
;	COMDAT ??_R0?AVCGraphicRatioInstance@@@8
data$rs	SEGMENT
??_R0?AVCGraphicRatioInstance@@@8 DD FLAT:??_7type_info@@6B@ ; CGraphicRatioInstance `RTTI Type Descriptor'
	DD	00H
	DB	'.?AVCGraphicRatioInstance@@', 00H
data$rs	ENDS
;	COMDAT ??_R4CGraphicRatioInstance@@6B@
rdata$r	SEGMENT
??_R4CGraphicRatioInstance@@6B@ DD 00H			; CGraphicRatioInstance::`RTTI Complete Object Locator'
	DD	00H
	DD	00H
	DD	FLAT:??_R0?AVCGraphicRatioInstance@@@8
	DD	FLAT:??_R3CGraphicRatioInstance@@8
rdata$r	ENDS
;	COMDAT ??_7CGraphicRatioInstance@@6B@
CONST	SEGMENT
??_7CGraphicRatioInstance@@6B@ DD FLAT:??_R4CGraphicRatioInstance@@6B@ ; CGraphicRatioInstance::`vftable'
	DD	FLAT:??_ECGraphicRatioInstance@@UAEPAXI@Z
CONST	ENDS
; Function compile flags: /Odspy
;	COMDAT ??_GCGraphicRatioInstance@@UAEPAXI@Z
_TEXT	SEGMENT
_this$ = -4						; size = 4
___flags$ = 8						; size = 4
??_GCGraphicRatioInstance@@UAEPAXI@Z PROC		; CGraphicRatioInstance::`scalar deleting destructor', COMDAT
; _this$ = ecx
  00000	55		 push	 ebp
  00001	8b ec		 mov	 ebp, esp
  00003	51		 push	 ecx
  00004	89 4d fc	 mov	 DWORD PTR _this$[ebp], ecx
  00007	8b 4d fc	 mov	 ecx, DWORD PTR _this$[ebp]
  0000a	e8 00 00 00 00	 call	 ??1CGraphicRatioInstance@@UAE@XZ ; CGraphicRatioInstance::~CGraphicRatioInstance
  0000f	8b 45 08	 mov	 eax, DWORD PTR ___flags$[ebp]
  00012	83 e0 01	 and	 eax, 1
  00015	74 0c		 je	 SHORT $LN2@scalar
  00017	6a 18		 push	 24			; 00000018H
  00019	ff 75 fc	 push	 DWORD PTR _this$[ebp]
  0001c	e8 00 00 00 00	 call	 ??3@YAXPAXI@Z		; operator delete
  00021	59		 pop	 ecx
  00022	59		 pop	 ecx
$LN2@scalar:
  00023	8b 45 fc	 mov	 eax, DWORD PTR _this$[ebp]
  00026	c9		 leave
  00027	c2 04 00	 ret	 4
??_GCGraphicRatioInstance@@UAEPAXI@Z ENDP		; CGraphicRatioInstance::`scalar deleting destructor'
_TEXT	ENDS
; Function compile flags: /Odspy
; File D:\Metin2 Server Files\mainline\SRC_2014\Metin2Client\EterLib\GrpRatioInstance.cpp
; File D:\Metin2 Server Files\mainline\SRC_2014\Metin2Client\eterBase\Singleton.h
; File D:\Metin2 Server Files\mainline\SRC_2014\Metin2Client\EterLib\GrpRatioInstance.cpp
;	COMDAT ?GetTime@CGraphicRatioInstance@@IAEKXZ
_TEXT	SEGMENT
_this$ = -8						; size = 4
$T1 = -4						; size = 4
?GetTime@CGraphicRatioInstance@@IAEKXZ PROC		; CGraphicRatioInstance::GetTime, COMDAT
; _this$ = ecx

; 59   : {

  00000	55		 push	 ebp
  00001	8b ec		 mov	 ebp, esp
  00003	51		 push	 ecx
  00004	51		 push	 ecx
  00005	89 4d f8	 mov	 DWORD PTR _this$[ebp], ecx
; File D:\Metin2 Server Files\mainline\SRC_2014\Metin2Client\eterBase\Singleton.h

; 27   : 		return (*ms_singleton);

  00008	a1 00 00 00 00	 mov	 eax, DWORD PTR ?ms_singleton@?$CSingleton@VCTimer@@@@0PAVCTimer@@A ; CSingleton<CTimer>::ms_singleton
  0000d	89 45 fc	 mov	 DWORD PTR $T1[ebp], eax
; File D:\Metin2 Server Files\mainline\SRC_2014\Metin2Client\EterLib\GrpRatioInstance.cpp

; 60   : 	return CTimer::Instance().GetCurrentMillisecond();

  00010	8b 4d fc	 mov	 ecx, DWORD PTR $T1[ebp]
  00013	e8 00 00 00 00	 call	 ?GetCurrentMillisecond@CTimer@@QAEKXZ ; CTimer::GetCurrentMillisecond

; 61   : }

  00018	c9		 leave
  00019	c3		 ret	 0
?GetTime@CGraphicRatioInstance@@IAEKXZ ENDP		; CGraphicRatioInstance::GetTime
_TEXT	ENDS
; Function compile flags: /Odspy
; File D:\Metin2 Server Files\mainline\SRC_2014\Metin2Client\EterLib\GrpRatioInstance.cpp
;	COMDAT ?GetCurrentRatioReference@CGraphicRatioInstance@@QBEABMXZ
_TEXT	SEGMENT
_this$ = -4						; size = 4
?GetCurrentRatioReference@CGraphicRatioInstance@@QBEABMXZ PROC ; CGraphicRatioInstance::GetCurrentRatioReference, COMDAT
; _this$ = ecx

; 64   : {

  00000	55		 push	 ebp
  00001	8b ec		 mov	 ebp, esp
  00003	51		 push	 ecx
  00004	89 4d fc	 mov	 DWORD PTR _this$[ebp], ecx

; 65   : 	return m_curRatio;

  00007	8b 45 fc	 mov	 eax, DWORD PTR _this$[ebp]
  0000a	83 c0 04	 add	 eax, 4

; 66   : }

  0000d	c9		 leave
  0000e	c3		 ret	 0
?GetCurrentRatioReference@CGraphicRatioInstance@@QBEABMXZ ENDP ; CGraphicRatioInstance::GetCurrentRatioReference
_TEXT	ENDS
; Function compile flags: /Odspy
; File D:\Metin2 Server Files\mainline\SRC_2014\Metin2Client\EterLib\GrpRatioInstance.cpp
;	COMDAT ?Update@CGraphicRatioInstance@@QAEXXZ
_TEXT	SEGMENT
tv137 = -44						; size = 8
tv95 = -36						; size = 8
_rate$1 = -28						; size = 4
_diff$2 = -24						; size = 4
_curTime$ = -20						; size = 4
tv133 = -16						; size = 4
tv91 = -12						; size = 4
_elapsedTime$ = -8					; size = 4
_this$ = -4						; size = 4
?Update@CGraphicRatioInstance@@QAEXXZ PROC		; CGraphicRatioInstance::Update, COMDAT
; _this$ = ecx

; 42   : {

  00000	55		 push	 ebp
  00001	8b ec		 mov	 ebp, esp
  00003	83 ec 2c	 sub	 esp, 44			; 0000002cH
  00006	89 4d fc	 mov	 DWORD PTR _this$[ebp], ecx

; 43   : 	DWORD curTime = GetTime();

  00009	8b 4d fc	 mov	 ecx, DWORD PTR _this$[ebp]
  0000c	e8 00 00 00 00	 call	 ?GetTime@CGraphicRatioInstance@@IAEKXZ ; CGraphicRatioInstance::GetTime
  00011	89 45 ec	 mov	 DWORD PTR _curTime$[ebp], eax

; 44   : 	DWORD elapsedTime = curTime - m_baseTime;

  00014	8b 45 fc	 mov	 eax, DWORD PTR _this$[ebp]
  00017	8b 4d ec	 mov	 ecx, DWORD PTR _curTime$[ebp]
  0001a	2b 48 10	 sub	 ecx, DWORD PTR [eax+16]
  0001d	89 4d f8	 mov	 DWORD PTR _elapsedTime$[ebp], ecx

; 45   : 
; 46   : 	if (elapsedTime < m_blendTime)

  00020	8b 45 fc	 mov	 eax, DWORD PTR _this$[ebp]
  00023	8b 4d f8	 mov	 ecx, DWORD PTR _elapsedTime$[ebp]
  00026	3b 48 14	 cmp	 ecx, DWORD PTR [eax+20]
  00029	0f 83 85 00 00
	00		 jae	 $LN2@Update

; 47   : 	{
; 48   : 		float diff = m_dstRatio - m_srcRatio;

  0002f	8b 45 fc	 mov	 eax, DWORD PTR _this$[ebp]
  00032	8b 4d fc	 mov	 ecx, DWORD PTR _this$[ebp]
  00035	f3 0f 10 40 0c	 movss	 xmm0, DWORD PTR [eax+12]
  0003a	f3 0f 5c 41 08	 subss	 xmm0, DWORD PTR [ecx+8]
  0003f	f3 0f 11 45 e8	 movss	 DWORD PTR _diff$2[ebp], xmm0

; 49   : 		float rate = elapsedTime / float(m_blendTime);

  00044	8b 45 f8	 mov	 eax, DWORD PTR _elapsedTime$[ebp]
  00047	89 45 f4	 mov	 DWORD PTR tv91[ebp], eax
  0004a	f2 0f 2a 45 f4	 cvtsi2sd xmm0, DWORD PTR tv91[ebp]
  0004f	8b 45 f4	 mov	 eax, DWORD PTR tv91[ebp]
  00052	c1 e8 1f	 shr	 eax, 31			; 0000001fH
  00055	f2 0f 58 04 c5
	00 00 00 00	 addsd	 xmm0, QWORD PTR __xmm@41f00000000000000000000000000000[eax*8]
  0005e	f2 0f 11 45 dc	 movsd	 QWORD PTR tv95[ebp], xmm0
  00063	f2 0f 5a 45 dc	 cvtsd2ss xmm0, QWORD PTR tv95[ebp]
  00068	8b 45 fc	 mov	 eax, DWORD PTR _this$[ebp]
  0006b	8b 40 14	 mov	 eax, DWORD PTR [eax+20]
  0006e	89 45 f0	 mov	 DWORD PTR tv133[ebp], eax
  00071	f2 0f 2a 4d f0	 cvtsi2sd xmm1, DWORD PTR tv133[ebp]
  00076	8b 45 f0	 mov	 eax, DWORD PTR tv133[ebp]
  00079	c1 e8 1f	 shr	 eax, 31			; 0000001fH
  0007c	f2 0f 58 0c c5
	00 00 00 00	 addsd	 xmm1, QWORD PTR __xmm@41f00000000000000000000000000000[eax*8]
  00085	f2 0f 11 4d d4	 movsd	 QWORD PTR tv137[ebp], xmm1
  0008a	f2 0f 5a 4d d4	 cvtsd2ss xmm1, QWORD PTR tv137[ebp]
  0008f	f3 0f 5e c1	 divss	 xmm0, xmm1
  00093	f3 0f 11 45 e4	 movss	 DWORD PTR _rate$1[ebp], xmm0

; 50   : 		m_curRatio = diff * rate + m_srcRatio;	

  00098	f3 0f 10 45 e8	 movss	 xmm0, DWORD PTR _diff$2[ebp]
  0009d	f3 0f 59 45 e4	 mulss	 xmm0, DWORD PTR _rate$1[ebp]
  000a2	8b 45 fc	 mov	 eax, DWORD PTR _this$[ebp]
  000a5	f3 0f 58 40 08	 addss	 xmm0, DWORD PTR [eax+8]
  000aa	8b 45 fc	 mov	 eax, DWORD PTR _this$[ebp]
  000ad	f3 0f 11 40 04	 movss	 DWORD PTR [eax+4], xmm0

; 51   : 	}

  000b2	eb 0c		 jmp	 SHORT $LN3@Update
$LN2@Update:

; 52   : 	else
; 53   : 	{
; 54   : 		m_curRatio = m_dstRatio;

  000b4	8b 45 fc	 mov	 eax, DWORD PTR _this$[ebp]
  000b7	8b 4d fc	 mov	 ecx, DWORD PTR _this$[ebp]
  000ba	8b 49 0c	 mov	 ecx, DWORD PTR [ecx+12]
  000bd	89 48 04	 mov	 DWORD PTR [eax+4], ecx
$LN3@Update:

; 55   : 	}
; 56   : }

  000c0	c9		 leave
  000c1	c3		 ret	 0
?Update@CGraphicRatioInstance@@QAEXXZ ENDP		; CGraphicRatioInstance::Update
_TEXT	ENDS
; Function compile flags: /Odspy
; File D:\Metin2 Server Files\mainline\SRC_2014\Metin2Client\EterLib\GrpRatioInstance.cpp
;	COMDAT ?BlendRatioReference@CGraphicRatioInstance@@QAEXKABM@Z
_TEXT	SEGMENT
_this$ = -4						; size = 4
_blendTime$ = 8						; size = 4
_c_rDstRatio$ = 12					; size = 4
?BlendRatioReference@CGraphicRatioInstance@@QAEXKABM@Z PROC ; CGraphicRatioInstance::BlendRatioReference, COMDAT
; _this$ = ecx

; 33   : {

  00000	55		 push	 ebp
  00001	8b ec		 mov	 ebp, esp
  00003	51		 push	 ecx
  00004	89 4d fc	 mov	 DWORD PTR _this$[ebp], ecx

; 34   : 	m_baseTime = GetTime();

  00007	8b 4d fc	 mov	 ecx, DWORD PTR _this$[ebp]
  0000a	e8 00 00 00 00	 call	 ?GetTime@CGraphicRatioInstance@@IAEKXZ ; CGraphicRatioInstance::GetTime
  0000f	8b 4d fc	 mov	 ecx, DWORD PTR _this$[ebp]
  00012	89 41 10	 mov	 DWORD PTR [ecx+16], eax

; 35   : 	m_blendTime = blendTime;

  00015	8b 45 fc	 mov	 eax, DWORD PTR _this$[ebp]
  00018	8b 4d 08	 mov	 ecx, DWORD PTR _blendTime$[ebp]
  0001b	89 48 14	 mov	 DWORD PTR [eax+20], ecx

; 36   : 
; 37   : 	m_srcRatio = m_curRatio;

  0001e	8b 45 fc	 mov	 eax, DWORD PTR _this$[ebp]
  00021	8b 4d fc	 mov	 ecx, DWORD PTR _this$[ebp]
  00024	8b 49 04	 mov	 ecx, DWORD PTR [ecx+4]
  00027	89 48 08	 mov	 DWORD PTR [eax+8], ecx

; 38   : 	m_dstRatio = c_rDstRatio;

  0002a	8b 45 fc	 mov	 eax, DWORD PTR _this$[ebp]
  0002d	8b 4d 0c	 mov	 ecx, DWORD PTR _c_rDstRatio$[ebp]
  00030	8b 09		 mov	 ecx, DWORD PTR [ecx]
  00032	89 48 0c	 mov	 DWORD PTR [eax+12], ecx

; 39   : }

  00035	c9		 leave
  00036	c2 08 00	 ret	 8
?BlendRatioReference@CGraphicRatioInstance@@QAEXKABM@Z ENDP ; CGraphicRatioInstance::BlendRatioReference
_TEXT	ENDS
; Function compile flags: /Odspy
; File D:\Metin2 Server Files\mainline\SRC_2014\Metin2Client\EterLib\GrpRatioInstance.cpp
;	COMDAT ?SetRatioReference@CGraphicRatioInstance@@QAEXABM@Z
_TEXT	SEGMENT
_this$ = -4						; size = 4
_c_rRatio$ = 8						; size = 4
?SetRatioReference@CGraphicRatioInstance@@QAEXABM@Z PROC ; CGraphicRatioInstance::SetRatioReference, COMDAT
; _this$ = ecx

; 26   : {

  00000	55		 push	 ebp
  00001	8b ec		 mov	 ebp, esp
  00003	51		 push	 ecx
  00004	89 4d fc	 mov	 DWORD PTR _this$[ebp], ecx

; 27   : 	m_curRatio = c_rRatio;	

  00007	8b 45 fc	 mov	 eax, DWORD PTR _this$[ebp]
  0000a	8b 4d 08	 mov	 ecx, DWORD PTR _c_rRatio$[ebp]
  0000d	8b 09		 mov	 ecx, DWORD PTR [ecx]
  0000f	89 48 04	 mov	 DWORD PTR [eax+4], ecx

; 28   : 	m_srcRatio = m_curRatio;

  00012	8b 45 fc	 mov	 eax, DWORD PTR _this$[ebp]
  00015	8b 4d fc	 mov	 ecx, DWORD PTR _this$[ebp]
  00018	8b 49 04	 mov	 ecx, DWORD PTR [ecx+4]
  0001b	89 48 08	 mov	 DWORD PTR [eax+8], ecx

; 29   : 	m_dstRatio = m_curRatio;

  0001e	8b 45 fc	 mov	 eax, DWORD PTR _this$[ebp]
  00021	8b 4d fc	 mov	 ecx, DWORD PTR _this$[ebp]
  00024	8b 49 04	 mov	 ecx, DWORD PTR [ecx+4]
  00027	89 48 0c	 mov	 DWORD PTR [eax+12], ecx

; 30   : }

  0002a	c9		 leave
  0002b	c2 04 00	 ret	 4
?SetRatioReference@CGraphicRatioInstance@@QAEXABM@Z ENDP ; CGraphicRatioInstance::SetRatioReference
_TEXT	ENDS
; Function compile flags: /Odspy
; File D:\Metin2 Server Files\mainline\SRC_2014\Metin2Client\EterLib\GrpRatioInstance.cpp
;	COMDAT ?Clear@CGraphicRatioInstance@@QAEXXZ
_TEXT	SEGMENT
_this$ = -4						; size = 4
?Clear@CGraphicRatioInstance@@QAEXXZ PROC		; CGraphicRatioInstance::Clear, COMDAT
; _this$ = ecx

; 16   : {

  00000	55		 push	 ebp
  00001	8b ec		 mov	 ebp, esp
  00003	51		 push	 ecx
  00004	89 4d fc	 mov	 DWORD PTR _this$[ebp], ecx

; 17   : 	m_curRatio = 0.0f;

  00007	8b 45 fc	 mov	 eax, DWORD PTR _this$[ebp]
  0000a	0f 57 c0	 xorps	 xmm0, xmm0
  0000d	f3 0f 11 40 04	 movss	 DWORD PTR [eax+4], xmm0

; 18   : 	m_srcRatio = 0.0f;

  00012	8b 45 fc	 mov	 eax, DWORD PTR _this$[ebp]
  00015	0f 57 c0	 xorps	 xmm0, xmm0
  00018	f3 0f 11 40 08	 movss	 DWORD PTR [eax+8], xmm0

; 19   : 	m_dstRatio = 0.0f;

  0001d	8b 45 fc	 mov	 eax, DWORD PTR _this$[ebp]
  00020	0f 57 c0	 xorps	 xmm0, xmm0
  00023	f3 0f 11 40 0c	 movss	 DWORD PTR [eax+12], xmm0

; 20   : 
; 21   : 	m_baseTime = 0;

  00028	8b 45 fc	 mov	 eax, DWORD PTR _this$[ebp]
  0002b	83 60 10 00	 and	 DWORD PTR [eax+16], 0

; 22   : 	m_blendTime = 0;

  0002f	8b 45 fc	 mov	 eax, DWORD PTR _this$[ebp]
  00032	83 60 14 00	 and	 DWORD PTR [eax+20], 0

; 23   : }

  00036	c9		 leave
  00037	c3		 ret	 0
?Clear@CGraphicRatioInstance@@QAEXXZ ENDP		; CGraphicRatioInstance::Clear
_TEXT	ENDS
; Function compile flags: /Odspy
; File D:\Metin2 Server Files\mainline\SRC_2014\Metin2Client\EterLib\GrpRatioInstance.cpp
;	COMDAT ??1CGraphicRatioInstance@@UAE@XZ
_TEXT	SEGMENT
_this$ = -4						; size = 4
??1CGraphicRatioInstance@@UAE@XZ PROC			; CGraphicRatioInstance::~CGraphicRatioInstance, COMDAT
; _this$ = ecx

; 12   : {

  00000	55		 push	 ebp
  00001	8b ec		 mov	 ebp, esp
  00003	51		 push	 ecx
  00004	89 4d fc	 mov	 DWORD PTR _this$[ebp], ecx
  00007	8b 45 fc	 mov	 eax, DWORD PTR _this$[ebp]
  0000a	c7 00 00 00 00
	00		 mov	 DWORD PTR [eax], OFFSET ??_7CGraphicRatioInstance@@6B@

; 13   : }

  00010	c9		 leave
  00011	c3		 ret	 0
??1CGraphicRatioInstance@@UAE@XZ ENDP			; CGraphicRatioInstance::~CGraphicRatioInstance
_TEXT	ENDS
; Function compile flags: /Odspy
; File D:\Metin2 Server Files\mainline\SRC_2014\Metin2Client\EterLib\GrpRatioInstance.cpp
;	COMDAT ??0CGraphicRatioInstance@@QAE@XZ
_TEXT	SEGMENT
_this$ = -4						; size = 4
??0CGraphicRatioInstance@@QAE@XZ PROC			; CGraphicRatioInstance::CGraphicRatioInstance, COMDAT
; _this$ = ecx

; 6    : {

  00000	55		 push	 ebp
  00001	8b ec		 mov	 ebp, esp
  00003	51		 push	 ecx
  00004	89 4d fc	 mov	 DWORD PTR _this$[ebp], ecx
  00007	8b 45 fc	 mov	 eax, DWORD PTR _this$[ebp]
  0000a	c7 00 00 00 00
	00		 mov	 DWORD PTR [eax], OFFSET ??_7CGraphicRatioInstance@@6B@

; 7    : 	m_baseTime = 0;

  00010	8b 45 fc	 mov	 eax, DWORD PTR _this$[ebp]
  00013	83 60 10 00	 and	 DWORD PTR [eax+16], 0

; 8    : 	m_blendTime = 0;

  00017	8b 45 fc	 mov	 eax, DWORD PTR _this$[ebp]
  0001a	83 60 14 00	 and	 DWORD PTR [eax+20], 0

; 9    : }

  0001e	8b 45 fc	 mov	 eax, DWORD PTR _this$[ebp]
  00021	c9		 leave
  00022	c3		 ret	 0
??0CGraphicRatioInstance@@QAE@XZ ENDP			; CGraphicRatioInstance::CGraphicRatioInstance
_TEXT	ENDS
END
