; Listing generated by Microsoft (R) Optimizing Compiler Version 19.28.29335.0 

	TITLE	D:\Metin2 Server Files\mainline\SRC_2014\Metin2Client\EterLib\GrpScreen.cpp
	.686P
	.XMM
	include listing.inc
	.model	flat

INCLUDELIB LIBCMT
INCLUDELIB OLDNAMES

PUBLIC	?ms_diffuseColor@CScreen@@1KA			; CScreen::ms_diffuseColor
PUBLIC	?ms_clearColor@CScreen@@1KA			; CScreen::ms_clearColor
PUBLIC	?ms_clearStencil@CScreen@@1KA			; CScreen::ms_clearStencil
PUBLIC	?ms_clearDepth@CScreen@@1MA			; CScreen::ms_clearDepth
_BSS	SEGMENT
?ms_clearColor@CScreen@@1KA DD 01H DUP (?)		; CScreen::ms_clearColor
?ms_clearStencil@CScreen@@1KA DD 01H DUP (?)		; CScreen::ms_clearStencil
_BSS	ENDS
_DATA	SEGMENT
?ms_diffuseColor@CScreen@@1KA DD 0ffffffffH		; CScreen::ms_diffuseColor
?ms_clearDepth@CScreen@@1MA DD 03f800000r	; 1	; CScreen::ms_clearDepth
_DATA	ENDS
PUBLIC	??_H@YGXPAXIIP6EPAX0@Z@Z			; `vector constructor iterator'
PUBLIC	??0exception@std@@QAE@ABV01@@Z			; std::exception::exception
PUBLIC	?what@exception@std@@UBEPBDXZ			; std::exception::what
PUBLIC	??_Gexception@std@@UAEPAXI@Z			; std::exception::`scalar deleting destructor'
PUBLIC	??0bad_alloc@std@@QAE@ABV01@@Z			; std::bad_alloc::bad_alloc
PUBLIC	??_Gbad_alloc@std@@UAEPAXI@Z			; std::bad_alloc::`scalar deleting destructor'
PUBLIC	??0bad_array_new_length@std@@QAE@XZ		; std::bad_array_new_length::bad_array_new_length
PUBLIC	??1bad_array_new_length@std@@UAE@XZ		; std::bad_array_new_length::~bad_array_new_length
PUBLIC	??0bad_array_new_length@std@@QAE@ABV01@@Z	; std::bad_array_new_length::bad_array_new_length
PUBLIC	??_Gbad_array_new_length@std@@UAEPAXI@Z		; std::bad_array_new_length::`scalar deleting destructor'
PUBLIC	?_Throw_bad_array_new_length@std@@YAXXZ		; std::_Throw_bad_array_new_length
PUBLIC	?_Adjust_manually_vector_aligned@std@@YAXAAPAXAAI@Z ; std::_Adjust_manually_vector_aligned
PUBLIC	??$_Deallocate@$07$0A@@std@@YAXPAXI@Z		; std::_Deallocate<8,0>
PUBLIC	??$_Allocate@$07U_Default_allocate_traits@std@@$0A@@std@@YAPAXI@Z ; std::_Allocate<8,std::_Default_allocate_traits,0>
PUBLIC	??$_Allocate_manually_vector_aligned@U_Default_allocate_traits@std@@@std@@YAPAXI@Z ; std::_Allocate_manually_vector_aligned<std::_Default_allocate_traits>
PUBLIC	?SetDirection@CRay@@QAEXABUD3DXVECTOR3@@M@Z	; CRay::SetDirection
PUBLIC	??0CScreen@@QAE@XZ				; CScreen::CScreen
PUBLIC	??1CScreen@@UAE@XZ				; CScreen::~CScreen
PUBLIC	?ClearDepthBuffer@CScreen@@QAEXXZ		; CScreen::ClearDepthBuffer
PUBLIC	?Clear@CScreen@@QAEXXZ				; CScreen::Clear
PUBLIC	?Begin@CScreen@@QAE_NXZ				; CScreen::Begin
PUBLIC	?End@CScreen@@QAEXXZ				; CScreen::End
PUBLIC	?Show@CScreen@@QAEXPAUHWND__@@@Z		; CScreen::Show
PUBLIC	?Show@CScreen@@QAEXPAUtagRECT@@@Z		; CScreen::Show
PUBLIC	?Show@CScreen@@QAEXPAUtagRECT@@PAUHWND__@@@Z	; CScreen::Show
PUBLIC	?RenderLine2d@CScreen@@QAEXMMMMM@Z		; CScreen::RenderLine2d
PUBLIC	?RenderBox2d@CScreen@@QAEXMMMMM@Z		; CScreen::RenderBox2d
PUBLIC	?RenderBar2d@CScreen@@QAEXMMMMM@Z		; CScreen::RenderBar2d
PUBLIC	?RenderGradationBar2d@CScreen@@QAEXMMMMKKM@Z	; CScreen::RenderGradationBar2d
PUBLIC	?RenderCircle2d@CScreen@@QAEXMMMMH@Z		; CScreen::RenderCircle2d
PUBLIC	?RenderCircle3d@CScreen@@QAEXMMMMH@Z		; CScreen::RenderCircle3d
PUBLIC	?RenderLine3d@CScreen@@QAEXMMMMMM@Z		; CScreen::RenderLine3d
PUBLIC	?RenderBox3d@CScreen@@QAEXMMMMMM@Z		; CScreen::RenderBox3d
PUBLIC	?RenderBar3d@CScreen@@QAEXMMMMMM@Z		; CScreen::RenderBar3d
PUBLIC	?RenderBar3d@CScreen@@QAEXPBUD3DXVECTOR3@@@Z	; CScreen::RenderBar3d
PUBLIC	?RenderGradationBar3d@CScreen@@QAEXMMMMMMKK@Z	; CScreen::RenderGradationBar3d
PUBLIC	?RenderLineCube@CScreen@@QAEXMMMMMM@Z		; CScreen::RenderLineCube
PUBLIC	?RenderCube@CScreen@@QAEXMMMMMM@Z		; CScreen::RenderCube
PUBLIC	?RenderCube@CScreen@@QAEXMMMMMMUD3DXMATRIX@@@Z	; CScreen::RenderCube
PUBLIC	?RenderTextureBox@CScreen@@QAEXMMMMMMMMM@Z	; CScreen::RenderTextureBox
PUBLIC	?RenderBillboard@CScreen@@QAEXPAUD3DXVECTOR3@@AAUD3DXCOLOR@@@Z ; CScreen::RenderBillboard
PUBLIC	?DrawMinorGrid@CScreen@@QAEXMMMMMMM@Z		; CScreen::DrawMinorGrid
PUBLIC	?DrawGrid@CScreen@@QAEXMMMMMMMMM@Z		; CScreen::DrawGrid
PUBLIC	?RenderD3DXMesh@CScreen@@QAEXPAUID3DXMesh@@PBUD3DXMATRIX@@MMMMW4_D3DFILLMODE@@@Z ; CScreen::RenderD3DXMesh
PUBLIC	?RenderSphere@CScreen@@QAEXPBUD3DXMATRIX@@MMMMW4_D3DFILLMODE@@@Z ; CScreen::RenderSphere
PUBLIC	?RenderCylinder@CScreen@@QAEXPBUD3DXMATRIX@@MMMMMW4_D3DFILLMODE@@@Z ; CScreen::RenderCylinder
PUBLIC	?SetColorOperation@CScreen@@QAEXXZ		; CScreen::SetColorOperation
PUBLIC	?SetDiffuseOperation@CScreen@@QAEXXZ		; CScreen::SetDiffuseOperation
PUBLIC	?SetBlendOperation@CScreen@@QAEXXZ		; CScreen::SetBlendOperation
PUBLIC	?SetOneColorOperation@CScreen@@QAEXAAUD3DXCOLOR@@@Z ; CScreen::SetOneColorOperation
PUBLIC	?SetAddColorOperation@CScreen@@QAEXAAUD3DXCOLOR@@@Z ; CScreen::SetAddColorOperation
PUBLIC	?SetDiffuseColor@CScreen@@QAEXK@Z		; CScreen::SetDiffuseColor
PUBLIC	?SetDiffuseColor@CScreen@@QAEXMMMM@Z		; CScreen::SetDiffuseColor
PUBLIC	?SetClearColor@CScreen@@QAEXMMMM@Z		; CScreen::SetClearColor
PUBLIC	?SetClearDepth@CScreen@@QAEXM@Z			; CScreen::SetClearDepth
PUBLIC	?SetClearStencil@CScreen@@QAEXK@Z		; CScreen::SetClearStencil
PUBLIC	?SetCursorPosition@CScreen@@QAEXHHHH@Z		; CScreen::SetCursorPosition
PUBLIC	?GetCursorPosition@CScreen@@QAE_NPAM00@Z	; CScreen::GetCursorPosition
PUBLIC	?GetCursorXYPosition@CScreen@@QAE_NPAM0@Z	; CScreen::GetCursorXYPosition
PUBLIC	?GetCursorZPosition@CScreen@@QAE_NPAM@Z		; CScreen::GetCursorZPosition
PUBLIC	?GetPickingPosition@CScreen@@QAEXMPAM00@Z	; CScreen::GetPickingPosition
PUBLIC	?ProjectPosition@CScreen@@QAEXMMMPAM0@Z		; CScreen::ProjectPosition
PUBLIC	?ProjectPosition@CScreen@@QAEXMMMPAM00@Z	; CScreen::ProjectPosition
PUBLIC	?UnprojectPosition@CScreen@@QAEXMMMPAM00@Z	; CScreen::UnprojectPosition
PUBLIC	?IsLostDevice@CScreen@@QAEHXZ			; CScreen::IsLostDevice
PUBLIC	?RestoreDevice@CScreen@@QAEHXZ			; CScreen::RestoreDevice
PUBLIC	?BuildViewFrustum@CScreen@@QAEXXZ		; CScreen::BuildViewFrustum
PUBLIC	?Identity@CScreen@@SAXXZ			; CScreen::Identity
PUBLIC	??_GCScreen@@UAEPAXI@Z				; CScreen::`scalar deleting destructor'
PUBLIC	?deallocate@?$allocator@UD3DXVECTOR3@@@std@@QAEXQAUD3DXVECTOR3@@I@Z ; std::allocator<D3DXVECTOR3>::deallocate
PUBLIC	??1?$vector@UD3DXVECTOR3@@V?$allocator@UD3DXVECTOR3@@@std@@@std@@QAE@XZ ; std::vector<D3DXVECTOR3,std::allocator<D3DXVECTOR3> >::~vector<D3DXVECTOR3,std::allocator<D3DXVECTOR3> >
PUBLIC	?clear@?$vector@UD3DXVECTOR3@@V?$allocator@UD3DXVECTOR3@@@std@@@std@@QAEXXZ ; std::vector<D3DXVECTOR3,std::allocator<D3DXVECTOR3> >::clear
PUBLIC	?_Destroy@?$vector@UD3DXVECTOR3@@V?$allocator@UD3DXVECTOR3@@@std@@@std@@AAEXPAUD3DXVECTOR3@@0@Z ; std::vector<D3DXVECTOR3,std::allocator<D3DXVECTOR3> >::_Destroy
PUBLIC	?_Calculate_growth@?$vector@UD3DXVECTOR3@@V?$allocator@UD3DXVECTOR3@@@std@@@std@@ABEII@Z ; std::vector<D3DXVECTOR3,std::allocator<D3DXVECTOR3> >::_Calculate_growth
PUBLIC	?_Change_array@?$vector@UD3DXVECTOR3@@V?$allocator@UD3DXVECTOR3@@@std@@@std@@AAEXQAUD3DXVECTOR3@@II@Z ; std::vector<D3DXVECTOR3,std::allocator<D3DXVECTOR3> >::_Change_array
PUBLIC	?_Tidy@?$vector@UD3DXVECTOR3@@V?$allocator@UD3DXVECTOR3@@@std@@@std@@AAEXXZ ; std::vector<D3DXVECTOR3,std::allocator<D3DXVECTOR3> >::_Tidy
PUBLIC	?_Xlength@?$vector@UD3DXVECTOR3@@V?$allocator@UD3DXVECTOR3@@@std@@@std@@CAXXZ ; std::vector<D3DXVECTOR3,std::allocator<D3DXVECTOR3> >::_Xlength
PUBLIC	?_Getal@?$vector@UD3DXVECTOR3@@V?$allocator@UD3DXVECTOR3@@@std@@@std@@AAEAAV?$allocator@UD3DXVECTOR3@@@2@XZ ; std::vector<D3DXVECTOR3,std::allocator<D3DXVECTOR3> >::_Getal
PUBLIC	??0?$_Vector_val@U?$_Simple_types@UD3DXVECTOR3@@@std@@@std@@QAE@XZ ; std::_Vector_val<std::_Simple_types<D3DXVECTOR3> >::_Vector_val<std::_Simple_types<D3DXVECTOR3> >
PUBLIC	??0CD3DXMeshRenderingOption@@QAE@W4_D3DFILLMODE@@ABUD3DXMATRIX@@@Z ; CD3DXMeshRenderingOption::CD3DXMeshRenderingOption
PUBLIC	??1CD3DXMeshRenderingOption@@UAE@XZ		; CD3DXMeshRenderingOption::~CD3DXMeshRenderingOption
PUBLIC	??_GCD3DXMeshRenderingOption@@UAEPAXI@Z		; CD3DXMeshRenderingOption::`scalar deleting destructor'
PUBLIC	??$_Resize@U_Value_init_tag@std@@@?$vector@UD3DXVECTOR3@@V?$allocator@UD3DXVECTOR3@@@std@@@std@@AAEXIABU_Value_init_tag@1@@Z ; std::vector<D3DXVECTOR3,std::allocator<D3DXVECTOR3> >::_Resize<std::_Value_init_tag>
PUBLIC	??$_Destroy_range@V?$allocator@UD3DXVECTOR3@@@std@@@std@@YAXPAUD3DXVECTOR3@@QAU1@AAV?$allocator@UD3DXVECTOR3@@@0@@Z ; std::_Destroy_range<std::allocator<D3DXVECTOR3> >
PUBLIC	??$_Resize_reallocate@U_Value_init_tag@std@@@?$vector@UD3DXVECTOR3@@V?$allocator@UD3DXVECTOR3@@@std@@@std@@AAEXIABU_Value_init_tag@1@@Z ; std::vector<D3DXVECTOR3,std::allocator<D3DXVECTOR3> >::_Resize_reallocate<std::_Value_init_tag>
PUBLIC	??$_Uninitialized_value_construct_n@V?$allocator@UD3DXVECTOR3@@@std@@@std@@YAPAUD3DXVECTOR3@@PAU1@IAAV?$allocator@UD3DXVECTOR3@@@0@@Z ; std::_Uninitialized_value_construct_n<std::allocator<D3DXVECTOR3> >
PUBLIC	??$_Uninitialized_move@PAUD3DXVECTOR3@@V?$allocator@UD3DXVECTOR3@@@std@@@std@@YAPAUD3DXVECTOR3@@QAU1@0PAU1@AAV?$allocator@UD3DXVECTOR3@@@0@@Z ; std::_Uninitialized_move<D3DXVECTOR3 *,std::allocator<D3DXVECTOR3> >
PUBLIC	??_7exception@std@@6B@				; std::exception::`vftable'
PUBLIC	??_C@_0BC@EOODALEL@Unknown?5exception@		; `string'
PUBLIC	??_7bad_alloc@std@@6B@				; std::bad_alloc::`vftable'
PUBLIC	??_7bad_array_new_length@std@@6B@		; std::bad_array_new_length::`vftable'
PUBLIC	??_C@_0BF@KINCDENJ@bad?5array?5new?5length@	; `string'
PUBLIC	__TI3?AVbad_array_new_length@std@@
PUBLIC	__CTA3?AVbad_array_new_length@std@@
PUBLIC	??_R0?AVbad_array_new_length@std@@@8		; std::bad_array_new_length `RTTI Type Descriptor'
PUBLIC	__CT??_R0?AVbad_array_new_length@std@@@8??0bad_array_new_length@std@@QAE@ABV01@@Z12
PUBLIC	??_R0?AVbad_alloc@std@@@8			; std::bad_alloc `RTTI Type Descriptor'
PUBLIC	__CT??_R0?AVbad_alloc@std@@@8??0bad_alloc@std@@QAE@ABV01@@Z12
PUBLIC	??_R0?AVexception@std@@@8			; std::exception `RTTI Type Descriptor'
PUBLIC	__CT??_R0?AVexception@std@@@8??0exception@std@@QAE@ABV01@@Z12
PUBLIC	??_R4exception@std@@6B@				; std::exception::`RTTI Complete Object Locator'
PUBLIC	??_R3exception@std@@8				; std::exception::`RTTI Class Hierarchy Descriptor'
PUBLIC	??_R2exception@std@@8				; std::exception::`RTTI Base Class Array'
PUBLIC	??_R1A@?0A@EA@exception@std@@8			; std::exception::`RTTI Base Class Descriptor at (0,-1,0,64)'
PUBLIC	??_R4bad_alloc@std@@6B@				; std::bad_alloc::`RTTI Complete Object Locator'
PUBLIC	??_R3bad_alloc@std@@8				; std::bad_alloc::`RTTI Class Hierarchy Descriptor'
PUBLIC	??_R2bad_alloc@std@@8				; std::bad_alloc::`RTTI Base Class Array'
PUBLIC	??_R1A@?0A@EA@bad_alloc@std@@8			; std::bad_alloc::`RTTI Base Class Descriptor at (0,-1,0,64)'
PUBLIC	??_R4bad_array_new_length@std@@6B@		; std::bad_array_new_length::`RTTI Complete Object Locator'
PUBLIC	??_R3bad_array_new_length@std@@8		; std::bad_array_new_length::`RTTI Class Hierarchy Descriptor'
PUBLIC	??_R2bad_array_new_length@std@@8		; std::bad_array_new_length::`RTTI Base Class Array'
PUBLIC	??_R1A@?0A@EA@bad_array_new_length@std@@8	; std::bad_array_new_length::`RTTI Base Class Descriptor at (0,-1,0,64)'
PUBLIC	?ms_frustum@CScreen@@1VFrustum@@A		; CScreen::ms_frustum
PUBLIC	??_7CScreen@@6B@				; CScreen::`vftable'
PUBLIC	?ms_singleton@?$CSingleton@VCCameraManager@@@@0PAVCCameraManager@@A ; CSingleton<CCameraManager>::ms_singleton
PUBLIC	?ms_singleton@?$CSingleton@VCStateManager@@@@0PAVCStateManager@@A ; CSingleton<CStateManager>::ms_singleton
PUBLIC	??_7CD3DXMeshRenderingOption@@6B@		; CD3DXMeshRenderingOption::`vftable'
PUBLIC	??_C@_0BD@HBCJANMB@BeginScene?5FAILED?6@	; `string'
PUBLIC	??_C@_0BA@FOIKENOD@vector?5too?5long@		; `string'
PUBLIC	??_R4CScreen@@6B@				; CScreen::`RTTI Complete Object Locator'
PUBLIC	??_R0?AVCScreen@@@8				; CScreen `RTTI Type Descriptor'
PUBLIC	??_R3CScreen@@8					; CScreen::`RTTI Class Hierarchy Descriptor'
PUBLIC	??_R2CScreen@@8					; CScreen::`RTTI Base Class Array'
PUBLIC	??_R1A@?0A@EA@CScreen@@8			; CScreen::`RTTI Base Class Descriptor at (0,-1,0,64)'
PUBLIC	??_R1A@?0A@EA@CGraphicCollisionObject@@8	; CGraphicCollisionObject::`RTTI Base Class Descriptor at (0,-1,0,64)'
PUBLIC	??_R0?AVCGraphicCollisionObject@@@8		; CGraphicCollisionObject `RTTI Type Descriptor'
PUBLIC	??_R3CGraphicCollisionObject@@8			; CGraphicCollisionObject::`RTTI Class Hierarchy Descriptor'
PUBLIC	??_R2CGraphicCollisionObject@@8			; CGraphicCollisionObject::`RTTI Base Class Array'
PUBLIC	??_R1A@?0A@EA@CGraphicBase@@8			; CGraphicBase::`RTTI Base Class Descriptor at (0,-1,0,64)'
PUBLIC	??_R0?AVCGraphicBase@@@8			; CGraphicBase `RTTI Type Descriptor'
PUBLIC	??_R3CGraphicBase@@8				; CGraphicBase::`RTTI Class Hierarchy Descriptor'
PUBLIC	??_R2CGraphicBase@@8				; CGraphicBase::`RTTI Base Class Array'
PUBLIC	??_R4CD3DXMeshRenderingOption@@6B@		; CD3DXMeshRenderingOption::`RTTI Complete Object Locator'
PUBLIC	??_R0?AVCD3DXMeshRenderingOption@@@8		; CD3DXMeshRenderingOption `RTTI Type Descriptor'
PUBLIC	??_R3CD3DXMeshRenderingOption@@8		; CD3DXMeshRenderingOption::`RTTI Class Hierarchy Descriptor'
PUBLIC	??_R2CD3DXMeshRenderingOption@@8		; CD3DXMeshRenderingOption::`RTTI Base Class Array'
PUBLIC	??_R1A@?0A@EA@CD3DXMeshRenderingOption@@8	; CD3DXMeshRenderingOption::`RTTI Base Class Descriptor at (0,-1,0,64)'
PUBLIC	__real@3f000000
PUBLIC	__real@3f333333
PUBLIC	__real@3f800000
PUBLIC	__real@40000000
PUBLIC	__real@40c90fdb
PUBLIC	__real@437f0000
PUBLIC	__real@47480000
PUBLIC	__real@4caba950
PUBLIC	__xmm@80000000800000008000000080000000
EXTRN	??2@YAPAXI@Z:PROC				; operator new
EXTRN	??3@YAXPAXI@Z:PROC				; operator delete
EXTRN	__invalid_parameter_noinfo_noreturn:PROC
EXTRN	_cos:PROC
EXTRN	_sin:PROC
EXTRN	_D3DXVec3Normalize@8:PROC
EXTRN	_D3DXVec3TransformCoord@12:PROC
EXTRN	_D3DXVec3Project@24:PROC
EXTRN	_D3DXVec3Unproject@24:PROC
EXTRN	_D3DXMatrixMultiply@12:PROC
EXTRN	_D3DXMatrixScaling@16:PROC
EXTRN	_D3DXMatrixTranslation@16:PROC
EXTRN	___std_exception_copy:PROC
EXTRN	___std_exception_destroy:PROC
EXTRN	??_Eexception@std@@UAEPAXI@Z:PROC		; std::exception::`vector deleting destructor'
EXTRN	??_Ebad_alloc@std@@UAEPAXI@Z:PROC		; std::bad_alloc::`vector deleting destructor'
EXTRN	??_Ebad_array_new_length@std@@UAEPAXI@Z:PROC	; std::bad_array_new_length::`vector deleting destructor'
EXTRN	?_Xlength_error@std@@YAXPBD@Z:PROC		; std::_Xlength_error
EXTRN	?Tracenf@@YAXPBDZZ:PROC				; Tracenf
EXTRN	?GetDesktopD3DDisplayModer@D3D_CAdapterInfo@@QAEAAU_D3DDISPLAYMODE@@XZ:PROC ; D3D_CAdapterInfo::GetDesktopD3DDisplayModer
EXTRN	?GetD3DAdapterInfop@D3D_CDisplayModeAutoDetector@@QAEPAVD3D_CAdapterInfo@@I@Z:PROC ; D3D_CDisplayModeAutoDetector::GetD3DAdapterInfop
EXTRN	?GetColor@CGraphicBase@@QAEKMMMM@Z:PROC		; CGraphicBase::GetColor
EXTRN	?ResetFaceCount@CGraphicBase@@QAEXXZ:PROC	; CGraphicBase::ResetFaceCount
EXTRN	?SetDefaultIndexBuffer@CGraphicBase@@SAXI@Z:PROC ; CGraphicBase::SetDefaultIndexBuffer
EXTRN	?SetPDTStream@CGraphicBase@@SA_NPAUSPDTVertexRaw@@I@Z:PROC ; CGraphicBase::SetPDTStream
EXTRN	?SetPDTStream@CGraphicBase@@SA_NPAUSPDTVertex@@I@Z:PROC ; CGraphicBase::SetPDTStream
EXTRN	??0CGraphicCollisionObject@@QAE@XZ:PROC		; CGraphicCollisionObject::CGraphicCollisionObject
EXTRN	??1CGraphicCollisionObject@@UAE@XZ:PROC		; CGraphicCollisionObject::~CGraphicCollisionObject
EXTRN	?IntersectTriangle@CGraphicCollisionObject@@IAE_NABUD3DXVECTOR3@@0000PAM11@Z:PROC ; CGraphicCollisionObject::IntersectTriangle
EXTRN	?BuildViewFrustum2@Frustum@@QAEXAAUD3DXMATRIX@@MMMMABUD3DXVECTOR3@@1@Z:PROC ; Frustum::BuildViewFrustum2
EXTRN	??_ECScreen@@UAEPAXI@Z:PROC			; CScreen::`vector deleting destructor'
EXTRN	?GetCurrentCamera@CCameraManager@@QAEPAVCCamera@@XZ:PROC ; CCameraManager::GetCurrentCamera
EXTRN	?SetDefaultState@CStateManager@@QAEXXZ:PROC	; CStateManager::SetDefaultState
EXTRN	?BeginScene@CStateManager@@QAE_NXZ:PROC		; CStateManager::BeginScene
EXTRN	?EndScene@CStateManager@@QAEXXZ:PROC		; CStateManager::EndScene
EXTRN	?SetRenderState@CStateManager@@QAEXW4_D3DRENDERSTATETYPE@@K@Z:PROC ; CStateManager::SetRenderState
EXTRN	?SetTexture@CStateManager@@QAEXKPAUIDirect3DBaseTexture8@@@Z:PROC ; CStateManager::SetTexture
EXTRN	?SaveTextureStageState@CStateManager@@QAEXKW4_D3DTEXTURESTAGESTATETYPE@@K@Z:PROC ; CStateManager::SaveTextureStageState
EXTRN	?RestoreTextureStageState@CStateManager@@QAEXKW4_D3DTEXTURESTAGESTATETYPE@@@Z:PROC ; CStateManager::RestoreTextureStageState
EXTRN	?SetTextureStageState@CStateManager@@QAEXKW4_D3DTEXTURESTAGESTATETYPE@@K@Z:PROC ; CStateManager::SetTextureStageState
EXTRN	?SetVertexShader@CStateManager@@QAEXK@Z:PROC	; CStateManager::SetVertexShader
EXTRN	?SaveTransform@CStateManager@@QAEXW4_D3DTRANSFORMSTATETYPE@@PBU_D3DMATRIX@@@Z:PROC ; CStateManager::SaveTransform
EXTRN	?RestoreTransform@CStateManager@@QAEXW4_D3DTRANSFORMSTATETYPE@@@Z:PROC ; CStateManager::RestoreTransform
EXTRN	?SetTransform@CStateManager@@QAEXW4_D3DTRANSFORMSTATETYPE@@PBU_D3DMATRIX@@@Z:PROC ; CStateManager::SetTransform
EXTRN	?SetStreamSource@CStateManager@@QAEXIPAUIDirect3DVertexBuffer8@@I@Z:PROC ; CStateManager::SetStreamSource
EXTRN	?SetIndices@CStateManager@@QAEXPAUIDirect3DIndexBuffer8@@I@Z:PROC ; CStateManager::SetIndices
EXTRN	?DrawPrimitive@CStateManager@@QAEJW4_D3DPRIMITIVETYPE@@II@Z:PROC ; CStateManager::DrawPrimitive
EXTRN	?DrawIndexedPrimitive@CStateManager@@QAEJW4_D3DPRIMITIVETYPE@@IIII@Z:PROC ; CStateManager::DrawIndexedPrimitive
EXTRN	??_ECD3DXMeshRenderingOption@@UAEPAXI@Z:PROC	; CD3DXMeshRenderingOption::`vector deleting destructor'
EXTRN	@__security_check_cookie@4:PROC
EXTRN	__CxxThrowException@8:PROC
EXTRN	___CxxFrameHandler3:PROC
EXTRN	__ftoui3:PROC
EXTRN	??_7type_info@@6B@:QWORD			; type_info::`vftable'
EXTRN	?ms_matIdentity@CGraphicBase@@1UD3DXMATRIX@@A:BYTE ; CGraphicBase::ms_matIdentity
EXTRN	?ms_matView@CGraphicBase@@1UD3DXMATRIX@@A:BYTE	; CGraphicBase::ms_matView
EXTRN	?ms_matProj@CGraphicBase@@1UD3DXMATRIX@@A:BYTE	; CGraphicBase::ms_matProj
EXTRN	?ms_matInverseView@CGraphicBase@@1UD3DXMATRIX@@A:BYTE ; CGraphicBase::ms_matInverseView
EXTRN	?ms_matWorld@CGraphicBase@@1UD3DXMATRIX@@A:BYTE	; CGraphicBase::ms_matWorld
EXTRN	?ms_lpSphereMesh@CGraphicBase@@1PAUID3DXMesh@@A:DWORD ; CGraphicBase::ms_lpSphereMesh
EXTRN	?ms_lpCylinderMesh@CGraphicBase@@1PAUID3DXMesh@@A:DWORD ; CGraphicBase::ms_lpCylinderMesh
EXTRN	?ms_iD3DAdapterInfo@CGraphicBase@@1IA:DWORD	; CGraphicBase::ms_iD3DAdapterInfo
EXTRN	?ms_kD3DDetector@CGraphicBase@@1VD3D_CDisplayModeAutoDetector@@A:BYTE ; CGraphicBase::ms_kD3DDetector
EXTRN	?ms_lpd3d@CGraphicBase@@1PAUIDirect3D8@@A:DWORD	; CGraphicBase::ms_lpd3d
EXTRN	?ms_lpd3dDevice@CGraphicBase@@1PAUIDirect3DDevice8@@A:DWORD ; CGraphicBase::ms_lpd3dDevice
EXTRN	?ms_lpd3dMatStack@CGraphicBase@@1PAUID3DXMatrixStack@@A:DWORD ; CGraphicBase::ms_lpd3dMatStack
EXTRN	?ms_Viewport@CGraphicBase@@1U_D3DVIEWPORT8@@A:BYTE ; CGraphicBase::ms_Viewport
EXTRN	?ms_d3dPresentParameter@CGraphicBase@@1U_D3DPRESENT_PARAMETERS_@@A:BYTE ; CGraphicBase::ms_d3dPresentParameter
EXTRN	?ms_vtPickRayOrig@CGraphicBase@@1UD3DXVECTOR3@@A:BYTE ; CGraphicBase::ms_vtPickRayOrig
EXTRN	?ms_vtPickRayDir@CGraphicBase@@1UD3DXVECTOR3@@A:BYTE ; CGraphicBase::ms_vtPickRayDir
EXTRN	?ms_fFieldOfView@CGraphicBase@@1MA:DWORD	; CGraphicBase::ms_fFieldOfView
EXTRN	?ms_fAspect@CGraphicBase@@1MA:DWORD		; CGraphicBase::ms_fAspect
EXTRN	?ms_fNearY@CGraphicBase@@1MA:DWORD		; CGraphicBase::ms_fNearY
EXTRN	?ms_fFarY@CGraphicBase@@1MA:DWORD		; CGraphicBase::ms_fFarY
EXTRN	?ms_Ray@CGraphicBase@@1VCRay@@A:BYTE		; CGraphicBase::ms_Ray
EXTRN	?GRAPHICS_CAPS_CAN_NOT_DRAW_LINE@@3_NA:BYTE	; GRAPHICS_CAPS_CAN_NOT_DRAW_LINE
EXTRN	?g_isBrowserMode@@3_NA:BYTE			; g_isBrowserMode
EXTRN	?g_rcBrowser@@3UtagRECT@@A:BYTE			; g_rcBrowser
EXTRN	___security_cookie:DWORD
EXTRN	__fltused:DWORD
_BSS	SEGMENT
?ms_frustum@CScreen@@1VFrustum@@A DB 074H DUP (?)	; CScreen::ms_frustum
_BSS	ENDS
;	COMDAT ?ms_singleton@?$CSingleton@VCCameraManager@@@@0PAVCCameraManager@@A
_BSS	SEGMENT
?ms_singleton@?$CSingleton@VCCameraManager@@@@0PAVCCameraManager@@A DD 01H DUP (?) ; CSingleton<CCameraManager>::ms_singleton
_BSS	ENDS
;	COMDAT ?ms_singleton@?$CSingleton@VCStateManager@@@@0PAVCStateManager@@A
_BSS	SEGMENT
?ms_singleton@?$CSingleton@VCStateManager@@@@0PAVCStateManager@@A DD 01H DUP (?) ; CSingleton<CStateManager>::ms_singleton
_BSS	ENDS
CRT$XCU	SEGMENT
??ms_frustum$initializer$@CScreen@@1P6AXXZA@@3P6AXXZA DD FLAT:??__E?ms_frustum@CScreen@@1VFrustum@@A@@YAXXZ ; ??ms_frustum$initializer$@CScreen@@1P6AXXZA@@3P6AXXZA
CRT$XCU	ENDS
;	COMDAT __xmm@80000000800000008000000080000000
CONST	SEGMENT
__xmm@80000000800000008000000080000000 DB 00H, 00H, 00H, 080H, 00H, 00H, 00H
	DB	080H, 00H, 00H, 00H, 080H, 00H, 00H, 00H, 080H
CONST	ENDS
;	COMDAT __real@4caba950
CONST	SEGMENT
__real@4caba950 DD 04caba950r			; 9e+07
CONST	ENDS
;	COMDAT __real@47480000
CONST	SEGMENT
__real@47480000 DD 047480000r			; 51200
CONST	ENDS
;	COMDAT __real@437f0000
CONST	SEGMENT
__real@437f0000 DD 0437f0000r			; 255
CONST	ENDS
;	COMDAT __real@40c90fdb
CONST	SEGMENT
__real@40c90fdb DD 040c90fdbr			; 6.28319
CONST	ENDS
;	COMDAT __real@40000000
CONST	SEGMENT
__real@40000000 DD 040000000r			; 2
CONST	ENDS
;	COMDAT __real@3f800000
CONST	SEGMENT
__real@3f800000 DD 03f800000r			; 1
CONST	ENDS
;	COMDAT __real@3f333333
CONST	SEGMENT
__real@3f333333 DD 03f333333r			; 0.7
CONST	ENDS
;	COMDAT __real@3f000000
CONST	SEGMENT
__real@3f000000 DD 03f000000r			; 0.5
CONST	ENDS
;	COMDAT ??_R1A@?0A@EA@CD3DXMeshRenderingOption@@8
rdata$r	SEGMENT
??_R1A@?0A@EA@CD3DXMeshRenderingOption@@8 DD FLAT:??_R0?AVCD3DXMeshRenderingOption@@@8 ; CD3DXMeshRenderingOption::`RTTI Base Class Descriptor at (0,-1,0,64)'
	DD	03H
	DD	00H
	DD	0ffffffffH
	DD	00H
	DD	040H
	DD	FLAT:??_R3CD3DXMeshRenderingOption@@8
rdata$r	ENDS
;	COMDAT ??_R2CD3DXMeshRenderingOption@@8
rdata$r	SEGMENT
??_R2CD3DXMeshRenderingOption@@8 DD FLAT:??_R1A@?0A@EA@CD3DXMeshRenderingOption@@8 ; CD3DXMeshRenderingOption::`RTTI Base Class Array'
	DD	FLAT:??_R1A@?0A@EA@CScreen@@8
	DD	FLAT:??_R1A@?0A@EA@CGraphicCollisionObject@@8
	DD	FLAT:??_R1A@?0A@EA@CGraphicBase@@8
rdata$r	ENDS
;	COMDAT ??_R3CD3DXMeshRenderingOption@@8
rdata$r	SEGMENT
??_R3CD3DXMeshRenderingOption@@8 DD 00H			; CD3DXMeshRenderingOption::`RTTI Class Hierarchy Descriptor'
	DD	00H
	DD	04H
	DD	FLAT:??_R2CD3DXMeshRenderingOption@@8
rdata$r	ENDS
;	COMDAT ??_R0?AVCD3DXMeshRenderingOption@@@8
data$rs	SEGMENT
??_R0?AVCD3DXMeshRenderingOption@@@8 DD FLAT:??_7type_info@@6B@ ; CD3DXMeshRenderingOption `RTTI Type Descriptor'
	DD	00H
	DB	'.?AVCD3DXMeshRenderingOption@@', 00H
data$rs	ENDS
;	COMDAT ??_R4CD3DXMeshRenderingOption@@6B@
rdata$r	SEGMENT
??_R4CD3DXMeshRenderingOption@@6B@ DD 00H		; CD3DXMeshRenderingOption::`RTTI Complete Object Locator'
	DD	00H
	DD	00H
	DD	FLAT:??_R0?AVCD3DXMeshRenderingOption@@@8
	DD	FLAT:??_R3CD3DXMeshRenderingOption@@8
rdata$r	ENDS
;	COMDAT ??_R2CGraphicBase@@8
rdata$r	SEGMENT
??_R2CGraphicBase@@8 DD FLAT:??_R1A@?0A@EA@CGraphicBase@@8 ; CGraphicBase::`RTTI Base Class Array'
rdata$r	ENDS
;	COMDAT ??_R3CGraphicBase@@8
rdata$r	SEGMENT
??_R3CGraphicBase@@8 DD 00H				; CGraphicBase::`RTTI Class Hierarchy Descriptor'
	DD	00H
	DD	01H
	DD	FLAT:??_R2CGraphicBase@@8
rdata$r	ENDS
;	COMDAT ??_R0?AVCGraphicBase@@@8
data$rs	SEGMENT
??_R0?AVCGraphicBase@@@8 DD FLAT:??_7type_info@@6B@	; CGraphicBase `RTTI Type Descriptor'
	DD	00H
	DB	'.?AVCGraphicBase@@', 00H
data$rs	ENDS
;	COMDAT ??_R1A@?0A@EA@CGraphicBase@@8
rdata$r	SEGMENT
??_R1A@?0A@EA@CGraphicBase@@8 DD FLAT:??_R0?AVCGraphicBase@@@8 ; CGraphicBase::`RTTI Base Class Descriptor at (0,-1,0,64)'
	DD	00H
	DD	00H
	DD	0ffffffffH
	DD	00H
	DD	040H
	DD	FLAT:??_R3CGraphicBase@@8
rdata$r	ENDS
;	COMDAT ??_R2CGraphicCollisionObject@@8
rdata$r	SEGMENT
??_R2CGraphicCollisionObject@@8 DD FLAT:??_R1A@?0A@EA@CGraphicCollisionObject@@8 ; CGraphicCollisionObject::`RTTI Base Class Array'
	DD	FLAT:??_R1A@?0A@EA@CGraphicBase@@8
rdata$r	ENDS
;	COMDAT ??_R3CGraphicCollisionObject@@8
rdata$r	SEGMENT
??_R3CGraphicCollisionObject@@8 DD 00H			; CGraphicCollisionObject::`RTTI Class Hierarchy Descriptor'
	DD	00H
	DD	02H
	DD	FLAT:??_R2CGraphicCollisionObject@@8
rdata$r	ENDS
;	COMDAT ??_R0?AVCGraphicCollisionObject@@@8
data$rs	SEGMENT
??_R0?AVCGraphicCollisionObject@@@8 DD FLAT:??_7type_info@@6B@ ; CGraphicCollisionObject `RTTI Type Descriptor'
	DD	00H
	DB	'.?AVCGraphicCollisionObject@@', 00H
data$rs	ENDS
;	COMDAT ??_R1A@?0A@EA@CGraphicCollisionObject@@8
rdata$r	SEGMENT
??_R1A@?0A@EA@CGraphicCollisionObject@@8 DD FLAT:??_R0?AVCGraphicCollisionObject@@@8 ; CGraphicCollisionObject::`RTTI Base Class Descriptor at (0,-1,0,64)'
	DD	01H
	DD	00H
	DD	0ffffffffH
	DD	00H
	DD	040H
	DD	FLAT:??_R3CGraphicCollisionObject@@8
rdata$r	ENDS
;	COMDAT ??_R1A@?0A@EA@CScreen@@8
rdata$r	SEGMENT
??_R1A@?0A@EA@CScreen@@8 DD FLAT:??_R0?AVCScreen@@@8	; CScreen::`RTTI Base Class Descriptor at (0,-1,0,64)'
	DD	02H
	DD	00H
	DD	0ffffffffH
	DD	00H
	DD	040H
	DD	FLAT:??_R3CScreen@@8
rdata$r	ENDS
;	COMDAT ??_R2CScreen@@8
rdata$r	SEGMENT
??_R2CScreen@@8 DD FLAT:??_R1A@?0A@EA@CScreen@@8	; CScreen::`RTTI Base Class Array'
	DD	FLAT:??_R1A@?0A@EA@CGraphicCollisionObject@@8
	DD	FLAT:??_R1A@?0A@EA@CGraphicBase@@8
rdata$r	ENDS
;	COMDAT ??_R3CScreen@@8
rdata$r	SEGMENT
??_R3CScreen@@8 DD 00H					; CScreen::`RTTI Class Hierarchy Descriptor'
	DD	00H
	DD	03H
	DD	FLAT:??_R2CScreen@@8
rdata$r	ENDS
;	COMDAT ??_R0?AVCScreen@@@8
data$rs	SEGMENT
??_R0?AVCScreen@@@8 DD FLAT:??_7type_info@@6B@		; CScreen `RTTI Type Descriptor'
	DD	00H
	DB	'.?AVCScreen@@', 00H
data$rs	ENDS
;	COMDAT ??_R4CScreen@@6B@
rdata$r	SEGMENT
??_R4CScreen@@6B@ DD 00H				; CScreen::`RTTI Complete Object Locator'
	DD	00H
	DD	00H
	DD	FLAT:??_R0?AVCScreen@@@8
	DD	FLAT:??_R3CScreen@@8
rdata$r	ENDS
;	COMDAT ??_C@_0BA@FOIKENOD@vector?5too?5long@
CONST	SEGMENT
??_C@_0BA@FOIKENOD@vector?5too?5long@ DB 'vector too long', 00H ; `string'
CONST	ENDS
;	COMDAT ??_C@_0BD@HBCJANMB@BeginScene?5FAILED?6@
CONST	SEGMENT
??_C@_0BD@HBCJANMB@BeginScene?5FAILED?6@ DB 'BeginScene FAILED', 0aH, 00H ; `string'
CONST	ENDS
;	COMDAT ?sc_awFillRectIndices@?1??GetCursorZPosition@CScreen@@QAE_NPAM@Z@4QBGB
CONST	SEGMENT
?sc_awFillRectIndices@?1??GetCursorZPosition@CScreen@@QAE_NPAM@Z@4QBGB DW 00H ; `CScreen::GetCursorZPosition'::`2'::sc_awFillRectIndices
	DW	02H
	DW	01H
	DW	02H
	DW	03H
	DW	01H
CONST	ENDS
;	COMDAT ?sc_awFillRectIndices@?1??GetCursorXYPosition@CScreen@@QAE_NPAM0@Z@4QBGB
CONST	SEGMENT
?sc_awFillRectIndices@?1??GetCursorXYPosition@CScreen@@QAE_NPAM0@Z@4QBGB DW 00H ; `CScreen::GetCursorXYPosition'::`2'::sc_awFillRectIndices
	DW	02H
	DW	01H
	DW	02H
	DW	03H
	DW	01H
CONST	ENDS
;	COMDAT ??_7CD3DXMeshRenderingOption@@6B@
CONST	SEGMENT
??_7CD3DXMeshRenderingOption@@6B@ DD FLAT:??_R4CD3DXMeshRenderingOption@@6B@ ; CD3DXMeshRenderingOption::`vftable'
	DD	FLAT:??_ECD3DXMeshRenderingOption@@UAEPAXI@Z
CONST	ENDS
;	COMDAT ??_7CScreen@@6B@
CONST	SEGMENT
??_7CScreen@@6B@ DD FLAT:??_R4CScreen@@6B@		; CScreen::`vftable'
	DD	FLAT:??_ECScreen@@UAEPAXI@Z
CONST	ENDS
;	COMDAT ??_R1A@?0A@EA@bad_array_new_length@std@@8
rdata$r	SEGMENT
??_R1A@?0A@EA@bad_array_new_length@std@@8 DD FLAT:??_R0?AVbad_array_new_length@std@@@8 ; std::bad_array_new_length::`RTTI Base Class Descriptor at (0,-1,0,64)'
	DD	02H
	DD	00H
	DD	0ffffffffH
	DD	00H
	DD	040H
	DD	FLAT:??_R3bad_array_new_length@std@@8
rdata$r	ENDS
;	COMDAT ??_R2bad_array_new_length@std@@8
rdata$r	SEGMENT
??_R2bad_array_new_length@std@@8 DD FLAT:??_R1A@?0A@EA@bad_array_new_length@std@@8 ; std::bad_array_new_length::`RTTI Base Class Array'
	DD	FLAT:??_R1A@?0A@EA@bad_alloc@std@@8
	DD	FLAT:??_R1A@?0A@EA@exception@std@@8
rdata$r	ENDS
;	COMDAT ??_R3bad_array_new_length@std@@8
rdata$r	SEGMENT
??_R3bad_array_new_length@std@@8 DD 00H			; std::bad_array_new_length::`RTTI Class Hierarchy Descriptor'
	DD	00H
	DD	03H
	DD	FLAT:??_R2bad_array_new_length@std@@8
rdata$r	ENDS
;	COMDAT ??_R4bad_array_new_length@std@@6B@
rdata$r	SEGMENT
??_R4bad_array_new_length@std@@6B@ DD 00H		; std::bad_array_new_length::`RTTI Complete Object Locator'
	DD	00H
	DD	00H
	DD	FLAT:??_R0?AVbad_array_new_length@std@@@8
	DD	FLAT:??_R3bad_array_new_length@std@@8
rdata$r	ENDS
;	COMDAT ??_R1A@?0A@EA@bad_alloc@std@@8
rdata$r	SEGMENT
??_R1A@?0A@EA@bad_alloc@std@@8 DD FLAT:??_R0?AVbad_alloc@std@@@8 ; std::bad_alloc::`RTTI Base Class Descriptor at (0,-1,0,64)'
	DD	01H
	DD	00H
	DD	0ffffffffH
	DD	00H
	DD	040H
	DD	FLAT:??_R3bad_alloc@std@@8
rdata$r	ENDS
;	COMDAT ??_R2bad_alloc@std@@8
rdata$r	SEGMENT
??_R2bad_alloc@std@@8 DD FLAT:??_R1A@?0A@EA@bad_alloc@std@@8 ; std::bad_alloc::`RTTI Base Class Array'
	DD	FLAT:??_R1A@?0A@EA@exception@std@@8
rdata$r	ENDS
;	COMDAT ??_R3bad_alloc@std@@8
rdata$r	SEGMENT
??_R3bad_alloc@std@@8 DD 00H				; std::bad_alloc::`RTTI Class Hierarchy Descriptor'
	DD	00H
	DD	02H
	DD	FLAT:??_R2bad_alloc@std@@8
rdata$r	ENDS
;	COMDAT ??_R4bad_alloc@std@@6B@
rdata$r	SEGMENT
??_R4bad_alloc@std@@6B@ DD 00H				; std::bad_alloc::`RTTI Complete Object Locator'
	DD	00H
	DD	00H
	DD	FLAT:??_R0?AVbad_alloc@std@@@8
	DD	FLAT:??_R3bad_alloc@std@@8
rdata$r	ENDS
;	COMDAT ??_R1A@?0A@EA@exception@std@@8
rdata$r	SEGMENT
??_R1A@?0A@EA@exception@std@@8 DD FLAT:??_R0?AVexception@std@@@8 ; std::exception::`RTTI Base Class Descriptor at (0,-1,0,64)'
	DD	00H
	DD	00H
	DD	0ffffffffH
	DD	00H
	DD	040H
	DD	FLAT:??_R3exception@std@@8
rdata$r	ENDS
;	COMDAT ??_R2exception@std@@8
rdata$r	SEGMENT
??_R2exception@std@@8 DD FLAT:??_R1A@?0A@EA@exception@std@@8 ; std::exception::`RTTI Base Class Array'
rdata$r	ENDS
;	COMDAT ??_R3exception@std@@8
rdata$r	SEGMENT
??_R3exception@std@@8 DD 00H				; std::exception::`RTTI Class Hierarchy Descriptor'
	DD	00H
	DD	01H
	DD	FLAT:??_R2exception@std@@8
rdata$r	ENDS
;	COMDAT ??_R4exception@std@@6B@
rdata$r	SEGMENT
??_R4exception@std@@6B@ DD 00H				; std::exception::`RTTI Complete Object Locator'
	DD	00H
	DD	00H
	DD	FLAT:??_R0?AVexception@std@@@8
	DD	FLAT:??_R3exception@std@@8
rdata$r	ENDS
;	COMDAT __CT??_R0?AVexception@std@@@8??0exception@std@@QAE@ABV01@@Z12
xdata$x	SEGMENT
__CT??_R0?AVexception@std@@@8??0exception@std@@QAE@ABV01@@Z12 DD 00H
	DD	FLAT:??_R0?AVexception@std@@@8
	DD	00H
	DD	0ffffffffH
	ORG $+4
	DD	0cH
	DD	FLAT:??0exception@std@@QAE@ABV01@@Z
xdata$x	ENDS
;	COMDAT ??_R0?AVexception@std@@@8
data$r	SEGMENT
??_R0?AVexception@std@@@8 DD FLAT:??_7type_info@@6B@	; std::exception `RTTI Type Descriptor'
	DD	00H
	DB	'.?AVexception@std@@', 00H
data$r	ENDS
;	COMDAT __CT??_R0?AVbad_alloc@std@@@8??0bad_alloc@std@@QAE@ABV01@@Z12
xdata$x	SEGMENT
__CT??_R0?AVbad_alloc@std@@@8??0bad_alloc@std@@QAE@ABV01@@Z12 DD 010H
	DD	FLAT:??_R0?AVbad_alloc@std@@@8
	DD	00H
	DD	0ffffffffH
	ORG $+4
	DD	0cH
	DD	FLAT:??0bad_alloc@std@@QAE@ABV01@@Z
xdata$x	ENDS
;	COMDAT ??_R0?AVbad_alloc@std@@@8
data$r	SEGMENT
??_R0?AVbad_alloc@std@@@8 DD FLAT:??_7type_info@@6B@	; std::bad_alloc `RTTI Type Descriptor'
	DD	00H
	DB	'.?AVbad_alloc@std@@', 00H
data$r	ENDS
;	COMDAT __CT??_R0?AVbad_array_new_length@std@@@8??0bad_array_new_length@std@@QAE@ABV01@@Z12
xdata$x	SEGMENT
__CT??_R0?AVbad_array_new_length@std@@@8??0bad_array_new_length@std@@QAE@ABV01@@Z12 DD 00H
	DD	FLAT:??_R0?AVbad_array_new_length@std@@@8
	DD	00H
	DD	0ffffffffH
	ORG $+4
	DD	0cH
	DD	FLAT:??0bad_array_new_length@std@@QAE@ABV01@@Z
xdata$x	ENDS
;	COMDAT ??_R0?AVbad_array_new_length@std@@@8
data$r	SEGMENT
??_R0?AVbad_array_new_length@std@@@8 DD FLAT:??_7type_info@@6B@ ; std::bad_array_new_length `RTTI Type Descriptor'
	DD	00H
	DB	'.?AVbad_array_new_length@std@@', 00H
data$r	ENDS
;	COMDAT __CTA3?AVbad_array_new_length@std@@
xdata$x	SEGMENT
__CTA3?AVbad_array_new_length@std@@ DD 03H
	DD	FLAT:__CT??_R0?AVbad_array_new_length@std@@@8??0bad_array_new_length@std@@QAE@ABV01@@Z12
	DD	FLAT:__CT??_R0?AVbad_alloc@std@@@8??0bad_alloc@std@@QAE@ABV01@@Z12
	DD	FLAT:__CT??_R0?AVexception@std@@@8??0exception@std@@QAE@ABV01@@Z12
xdata$x	ENDS
;	COMDAT __TI3?AVbad_array_new_length@std@@
xdata$x	SEGMENT
__TI3?AVbad_array_new_length@std@@ DD 00H
	DD	FLAT:??1bad_array_new_length@std@@UAE@XZ
	DD	00H
	DD	FLAT:__CTA3?AVbad_array_new_length@std@@
xdata$x	ENDS
;	COMDAT ??_C@_0BF@KINCDENJ@bad?5array?5new?5length@
CONST	SEGMENT
??_C@_0BF@KINCDENJ@bad?5array?5new?5length@ DB 'bad array new length', 00H ; `string'
CONST	ENDS
;	COMDAT ??_7bad_array_new_length@std@@6B@
CONST	SEGMENT
??_7bad_array_new_length@std@@6B@ DD FLAT:??_R4bad_array_new_length@std@@6B@ ; std::bad_array_new_length::`vftable'
	DD	FLAT:??_Ebad_array_new_length@std@@UAEPAXI@Z
	DD	FLAT:?what@exception@std@@UBEPBDXZ
CONST	ENDS
;	COMDAT ??_7bad_alloc@std@@6B@
CONST	SEGMENT
??_7bad_alloc@std@@6B@ DD FLAT:??_R4bad_alloc@std@@6B@	; std::bad_alloc::`vftable'
	DD	FLAT:??_Ebad_alloc@std@@UAEPAXI@Z
	DD	FLAT:?what@exception@std@@UBEPBDXZ
CONST	ENDS
;	COMDAT ??_C@_0BC@EOODALEL@Unknown?5exception@
CONST	SEGMENT
??_C@_0BC@EOODALEL@Unknown?5exception@ DB 'Unknown exception', 00H ; `string'
CONST	ENDS
;	COMDAT ??_7exception@std@@6B@
CONST	SEGMENT
??_7exception@std@@6B@ DD FLAT:??_R4exception@std@@6B@	; std::exception::`vftable'
	DD	FLAT:??_Eexception@std@@UAEPAXI@Z
	DD	FLAT:?what@exception@std@@UBEPBDXZ
CONST	ENDS
;	COMDAT xdata$x
xdata$x	SEGMENT
__catchsym$??$_Resize_reallocate@U_Value_init_tag@std@@@?$vector@UD3DXVECTOR3@@V?$allocator@UD3DXVECTOR3@@@std@@@std@@AAEXIABU_Value_init_tag@1@@Z$26 DD 040H
	DD	00H
	DD	00H
	DD	FLAT:__catch$??$_Resize_reallocate@U_Value_init_tag@std@@@?$vector@UD3DXVECTOR3@@V?$allocator@UD3DXVECTOR3@@@std@@@std@@AAEXIABU_Value_init_tag@1@@Z$0
__unwindtable$??$_Resize_reallocate@U_Value_init_tag@std@@@?$vector@UD3DXVECTOR3@@V?$allocator@UD3DXVECTOR3@@@std@@@std@@AAEXIABU_Value_init_tag@1@@Z DD 0ffffffffH
	DD	00H
	DD	0ffffffffH
	DD	00H
__tryblocktable$??$_Resize_reallocate@U_Value_init_tag@std@@@?$vector@UD3DXVECTOR3@@V?$allocator@UD3DXVECTOR3@@@std@@@std@@AAEXIABU_Value_init_tag@1@@Z DD 00H
	DD	00H
	DD	01H
	DD	01H
	DD	FLAT:__catchsym$??$_Resize_reallocate@U_Value_init_tag@std@@@?$vector@UD3DXVECTOR3@@V?$allocator@UD3DXVECTOR3@@@std@@@std@@AAEXIABU_Value_init_tag@1@@Z$26
__ehfuncinfo$??$_Resize_reallocate@U_Value_init_tag@std@@@?$vector@UD3DXVECTOR3@@V?$allocator@UD3DXVECTOR3@@@std@@@std@@AAEXIABU_Value_init_tag@1@@Z DD 019930522H
	DD	02H
	DD	FLAT:__unwindtable$??$_Resize_reallocate@U_Value_init_tag@std@@@?$vector@UD3DXVECTOR3@@V?$allocator@UD3DXVECTOR3@@@std@@@std@@AAEXIABU_Value_init_tag@1@@Z
	DD	01H
	DD	FLAT:__tryblocktable$??$_Resize_reallocate@U_Value_init_tag@std@@@?$vector@UD3DXVECTOR3@@V?$allocator@UD3DXVECTOR3@@@std@@@std@@AAEXIABU_Value_init_tag@1@@Z
	DD	2 DUP(00H)
	DD	00H
	DD	01H
xdata$x	ENDS
;	COMDAT xdata$x
xdata$x	SEGMENT
__ehfuncinfo$??1CD3DXMeshRenderingOption@@UAE@XZ DD 019930522H
	DD	00H
	DD	00H
	DD	2 DUP(00H)
	DD	2 DUP(00H)
	DD	00H
	DD	05H
xdata$x	ENDS
;	COMDAT xdata$x
xdata$x	SEGMENT
__unwindtable$??0CD3DXMeshRenderingOption@@QAE@W4_D3DFILLMODE@@ABUD3DXMATRIX@@@Z DD 0ffffffffH
	DD	FLAT:__unwindfunclet$??0CD3DXMeshRenderingOption@@QAE@W4_D3DFILLMODE@@ABUD3DXMATRIX@@@Z$0
__ehfuncinfo$??0CD3DXMeshRenderingOption@@QAE@W4_D3DFILLMODE@@ABUD3DXMATRIX@@@Z DD 019930522H
	DD	01H
	DD	FLAT:__unwindtable$??0CD3DXMeshRenderingOption@@QAE@W4_D3DFILLMODE@@ABUD3DXMATRIX@@@Z
	DD	2 DUP(00H)
	DD	2 DUP(00H)
	DD	00H
	DD	01H
xdata$x	ENDS
;	COMDAT xdata$x
xdata$x	SEGMENT
__unwindtable$?RenderD3DXMesh@CScreen@@QAEXPAUID3DXMesh@@PBUD3DXMATRIX@@MMMMW4_D3DFILLMODE@@@Z DD 0ffffffffH
	DD	FLAT:__unwindfunclet$?RenderD3DXMesh@CScreen@@QAEXPAUID3DXMesh@@PBUD3DXMATRIX@@MMMMW4_D3DFILLMODE@@@Z$0
__ehfuncinfo$?RenderD3DXMesh@CScreen@@QAEXPAUID3DXMesh@@PBUD3DXMATRIX@@MMMMW4_D3DFILLMODE@@@Z DD 019930522H
	DD	01H
	DD	FLAT:__unwindtable$?RenderD3DXMesh@CScreen@@QAEXPAUID3DXMesh@@PBUD3DXMATRIX@@MMMMW4_D3DFILLMODE@@@Z
	DD	2 DUP(00H)
	DD	2 DUP(00H)
	DD	00H
	DD	01H
xdata$x	ENDS
;	COMDAT xdata$x
xdata$x	SEGMENT
__unwindtable$?RenderCircle3d@CScreen@@QAEXMMMMH@Z DD 0ffffffffH
	DD	FLAT:__unwindfunclet$?RenderCircle3d@CScreen@@QAEXMMMMH@Z$0
__ehfuncinfo$?RenderCircle3d@CScreen@@QAEXMMMMH@Z DD 019930522H
	DD	01H
	DD	FLAT:__unwindtable$?RenderCircle3d@CScreen@@QAEXMMMMH@Z
	DD	2 DUP(00H)
	DD	2 DUP(00H)
	DD	00H
	DD	01H
xdata$x	ENDS
;	COMDAT xdata$x
xdata$x	SEGMENT
__unwindtable$?RenderCircle2d@CScreen@@QAEXMMMMH@Z DD 0ffffffffH
	DD	FLAT:__unwindfunclet$?RenderCircle2d@CScreen@@QAEXMMMMH@Z$0
__ehfuncinfo$?RenderCircle2d@CScreen@@QAEXMMMMH@Z DD 019930522H
	DD	01H
	DD	FLAT:__unwindtable$?RenderCircle2d@CScreen@@QAEXMMMMH@Z
	DD	2 DUP(00H)
	DD	2 DUP(00H)
	DD	00H
	DD	01H
xdata$x	ENDS
;	COMDAT xdata$x
xdata$x	SEGMENT
__ehfuncinfo$??$_Deallocate@$07$0A@@std@@YAXPAXI@Z DD 019930522H
	DD	00H
	DD	00H
	DD	2 DUP(00H)
	DD	2 DUP(00H)
	DD	00H
	DD	05H
xdata$x	ENDS
; Function compile flags: /Odspy
; File C:\Program Files (x86)\Microsoft Visual Studio\2019\Community\VC\Tools\MSVC\14.28.29333\include\xmemory
; File C:\Program Files (x86)\Microsoft Visual Studio\2019\Community\VC\Tools\MSVC\14.28.29333\include\type_traits
; File C:\Program Files (x86)\Microsoft Visual Studio\2019\Community\VC\Tools\MSVC\14.28.29333\include\xmemory
; File C:\Program Files (x86)\Microsoft Visual Studio\2019\Community\VC\Tools\MSVC\14.28.29333\include\xstddef
; File C:\Program Files (x86)\Microsoft Visual Studio\2019\Community\VC\Tools\MSVC\14.28.29333\include\xmemory
; File C:\Program Files (x86)\Microsoft Visual Studio\2019\Community\VC\Tools\MSVC\14.28.29333\include\vcruntime_new.h
; File C:\Program Files (x86)\Microsoft Visual Studio\2019\Community\VC\Tools\MSVC\14.28.29333\include\type_traits
; File C:\Program Files (x86)\Microsoft Visual Studio\2019\Community\VC\Tools\MSVC\14.28.29333\include\xmemory
;	COMDAT ??$_Uninitialized_move@PAUD3DXVECTOR3@@V?$allocator@UD3DXVECTOR3@@@std@@@std@@YAPAUD3DXVECTOR3@@QAU1@0PAU1@AAV?$allocator@UD3DXVECTOR3@@@0@@Z
_TEXT	SEGMENT
__Backout$1 = -52					; size = 12
___formal$ = -40					; size = 4
$T2 = -36						; size = 4
$T3 = -32						; size = 4
$T4 = -28						; size = 4
$T5 = -24						; size = 4
$T6 = -20						; size = 4
__Ptr$ = -16						; size = 4
$T7 = -12						; size = 4
__ULast$ = -8						; size = 4
__UFirst$ = -4						; size = 4
__First$ = 8						; size = 4
__Last$ = 12						; size = 4
__Dest$ = 16						; size = 4
__Al$ = 20						; size = 4
??$_Uninitialized_move@PAUD3DXVECTOR3@@V?$allocator@UD3DXVECTOR3@@@std@@@std@@YAPAUD3DXVECTOR3@@QAU1@0PAU1@AAV?$allocator@UD3DXVECTOR3@@@0@@Z PROC ; std::_Uninitialized_move<D3DXVECTOR3 *,std::allocator<D3DXVECTOR3> >, COMDAT

; 1685 :     const _InIt _First, const _InIt _Last, _Alloc_ptr_t<_Alloc> _Dest, _Alloc& _Al) {

  00000	55		 push	 ebp
  00001	8b ec		 mov	 ebp, esp
  00003	83 ec 34	 sub	 esp, 52			; 00000034H
  00006	56		 push	 esi
  00007	57		 push	 edi

; 1686 :     // move [_First, _Last) to raw _Dest, using _Al
; 1687 :     // note: only called internally from elsewhere in the STL
; 1688 :     using _Ptrval     = typename _Alloc::value_type*;
; 1689 :     auto _UFirst      = _Get_unwrapped(_First);

  00008	8b 45 08	 mov	 eax, DWORD PTR __First$[ebp]
  0000b	89 45 fc	 mov	 DWORD PTR __UFirst$[ebp], eax

; 1690 :     const auto _ULast = _Get_unwrapped(_Last);

  0000e	8b 45 0c	 mov	 eax, DWORD PTR __Last$[ebp]
  00011	89 45 f8	 mov	 DWORD PTR __ULast$[ebp], eax

; 1535 :     _Uninitialized_backout_al(pointer _Dest, _Alloc& _Al_) : _First(_Dest), _Last(_Dest), _Al(_Al_) {}

  00014	8b 45 10	 mov	 eax, DWORD PTR __Dest$[ebp]
  00017	89 45 cc	 mov	 DWORD PTR __Backout$1[ebp], eax
  0001a	8b 45 10	 mov	 eax, DWORD PTR __Dest$[ebp]
  0001d	89 45 d0	 mov	 DWORD PTR __Backout$1[ebp+4], eax
  00020	8b 45 14	 mov	 eax, DWORD PTR __Al$[ebp]
  00023	89 45 d4	 mov	 DWORD PTR __Backout$1[ebp+8], eax

; 1691 :     if constexpr (conjunction_v<bool_constant<_Ptr_move_cat<decltype(_UFirst), _Ptrval>::_Really_trivial>,
; 1692 :                       _Uses_default_construct<_Alloc, _Ptrval, decltype(_STD move(*_UFirst))>>) {
; 1693 :         _Copy_memmove(_UFirst, _ULast, _Unfancy(_Dest));
; 1694 :         return _Dest + (_ULast - _UFirst);
; 1695 :     } else {
; 1696 :         _Uninitialized_backout_al<_Alloc> _Backout{_Dest, _Al};
; 1697 :         for (; _UFirst != _ULast; ++_UFirst) {

  00026	eb 09		 jmp	 SHORT $LN4@Uninitiali
$LN2@Uninitiali:
  00028	8b 45 fc	 mov	 eax, DWORD PTR __UFirst$[ebp]
  0002b	83 c0 0c	 add	 eax, 12			; 0000000cH
  0002e	89 45 fc	 mov	 DWORD PTR __UFirst$[ebp], eax
$LN4@Uninitiali:
  00031	8b 45 fc	 mov	 eax, DWORD PTR __UFirst$[ebp]
  00034	3b 45 f8	 cmp	 eax, DWORD PTR __ULast$[ebp]
  00037	74 3e		 je	 SHORT $LN3@Uninitiali
; File C:\Program Files (x86)\Microsoft Visual Studio\2019\Community\VC\Tools\MSVC\14.28.29333\include\type_traits

; 1455 :     return static_cast<remove_reference_t<_Ty>&&>(_Arg);

  00039	8b 45 fc	 mov	 eax, DWORD PTR __UFirst$[ebp]
  0003c	89 45 f4	 mov	 DWORD PTR $T7[ebp], eax

; 1443 :     return static_cast<_Ty&&>(_Arg);

  0003f	8b 45 f4	 mov	 eax, DWORD PTR $T7[ebp]
  00042	89 45 e8	 mov	 DWORD PTR $T5[ebp], eax
; File C:\Program Files (x86)\Microsoft Visual Studio\2019\Community\VC\Tools\MSVC\14.28.29333\include\xmemory

; 1546 :         allocator_traits<_Alloc>::construct(_Al, _Unfancy(_Last), _STD forward<_Types>(_Vals)...);

  00045	8b 45 d0	 mov	 eax, DWORD PTR __Backout$1[ebp+4]
  00048	89 45 f0	 mov	 DWORD PTR __Ptr$[ebp], eax
; File C:\Program Files (x86)\Microsoft Visual Studio\2019\Community\VC\Tools\MSVC\14.28.29333\include\xstddef

; 289  :     return _Ptr;

  0004b	8b 45 f0	 mov	 eax, DWORD PTR __Ptr$[ebp]
  0004e	89 45 ec	 mov	 DWORD PTR $T6[ebp], eax
; File C:\Program Files (x86)\Microsoft Visual Studio\2019\Community\VC\Tools\MSVC\14.28.29333\include\xmemory

; 1546 :         allocator_traits<_Alloc>::construct(_Al, _Unfancy(_Last), _STD forward<_Types>(_Vals)...);

  00051	8b 45 d4	 mov	 eax, DWORD PTR __Backout$1[ebp+8]
  00054	89 45 d8	 mov	 DWORD PTR ___formal$[ebp], eax
; File C:\Program Files (x86)\Microsoft Visual Studio\2019\Community\VC\Tools\MSVC\14.28.29333\include\vcruntime_new.h

; 169  :         return _Where;

  00057	8b 45 ec	 mov	 eax, DWORD PTR $T6[ebp]
  0005a	89 45 e0	 mov	 DWORD PTR $T3[ebp], eax
; File C:\Program Files (x86)\Microsoft Visual Studio\2019\Community\VC\Tools\MSVC\14.28.29333\include\type_traits

; 1443 :     return static_cast<_Ty&&>(_Arg);

  0005d	8b 45 e8	 mov	 eax, DWORD PTR $T5[ebp]
  00060	89 45 e4	 mov	 DWORD PTR $T4[ebp], eax
; File C:\Program Files (x86)\Microsoft Visual Studio\2019\Community\VC\Tools\MSVC\14.28.29333\include\xmemory

; 701  :         ::new (const_cast<void*>(static_cast<const volatile void*>(_Ptr))) _Objty(_STD forward<_Types>(_Args)...);

  00063	8b 75 e4	 mov	 esi, DWORD PTR $T4[ebp]
  00066	8b 7d e0	 mov	 edi, DWORD PTR $T3[ebp]
  00069	a5		 movsd
  0006a	a5		 movsd
  0006b	a5		 movsd

; 1547 :         ++_Last;

  0006c	8b 45 d0	 mov	 eax, DWORD PTR __Backout$1[ebp+4]
  0006f	83 c0 0c	 add	 eax, 12			; 0000000cH
  00072	89 45 d0	 mov	 DWORD PTR __Backout$1[ebp+4], eax

; 1698 :             _Backout._Emplace_back(_STD move(*_UFirst));
; 1699 :         }

  00075	eb b1		 jmp	 SHORT $LN2@Uninitiali
$LN3@Uninitiali:

; 1551 :         _First = _Last;

  00077	8b 45 d0	 mov	 eax, DWORD PTR __Backout$1[ebp+4]
  0007a	89 45 cc	 mov	 DWORD PTR __Backout$1[ebp], eax

; 1552 :         return _Last;

  0007d	8b 45 d0	 mov	 eax, DWORD PTR __Backout$1[ebp+4]
  00080	89 45 dc	 mov	 DWORD PTR $T2[ebp], eax

; 1541 :         _Destroy_range(_First, _Last, _Al);

  00083	ff 75 d4	 push	 DWORD PTR __Backout$1[ebp+8]
  00086	ff 75 d0	 push	 DWORD PTR __Backout$1[ebp+4]
  00089	ff 75 cc	 push	 DWORD PTR __Backout$1[ebp]
  0008c	e8 00 00 00 00	 call	 ??$_Destroy_range@V?$allocator@UD3DXVECTOR3@@@std@@@std@@YAXPAUD3DXVECTOR3@@QAU1@AAV?$allocator@UD3DXVECTOR3@@@0@@Z ; std::_Destroy_range<std::allocator<D3DXVECTOR3> >
  00091	83 c4 0c	 add	 esp, 12			; 0000000cH

; 1700 : 
; 1701 :         return _Backout._Release();

  00094	8b 45 dc	 mov	 eax, DWORD PTR $T2[ebp]

; 1702 :     }
; 1703 : }

  00097	5f		 pop	 edi
  00098	5e		 pop	 esi
  00099	c9		 leave
  0009a	c3		 ret	 0
??$_Uninitialized_move@PAUD3DXVECTOR3@@V?$allocator@UD3DXVECTOR3@@@std@@@std@@YAPAUD3DXVECTOR3@@QAU1@0PAU1@AAV?$allocator@UD3DXVECTOR3@@@0@@Z ENDP ; std::_Uninitialized_move<D3DXVECTOR3 *,std::allocator<D3DXVECTOR3> >
_TEXT	ENDS
; Function compile flags: /Odspy
; File C:\Program Files (x86)\Microsoft Visual Studio\2019\Community\VC\Tools\MSVC\14.28.29333\include\xmemory
; File C:\Program Files (x86)\Microsoft Visual Studio\2019\Community\VC\Tools\MSVC\14.28.29333\include\xstddef
; File C:\Program Files (x86)\Microsoft Visual Studio\2019\Community\VC\Tools\MSVC\14.28.29333\include\xmemory
; File C:\Program Files (x86)\Microsoft Visual Studio\2019\Community\VC\Tools\MSVC\14.28.29333\include\vcruntime_new.h
; File C:\Program Files (x86)\Microsoft Visual Studio\2019\Community\VC\Tools\MSVC\14.28.29333\include\xmemory
;	COMDAT ??$_Uninitialized_value_construct_n@V?$allocator@UD3DXVECTOR3@@@std@@@std@@YAPAUD3DXVECTOR3@@PAU1@IAAV?$allocator@UD3DXVECTOR3@@@0@@Z
_TEXT	SEGMENT
__Backout$1 = -32					; size = 12
$T2 = -20						; size = 4
___formal$ = -16					; size = 4
$T3 = -12						; size = 4
$T4 = -8						; size = 4
__Ptr$ = -4						; size = 4
__First$ = 8						; size = 4
__Count$ = 12						; size = 4
__Al$ = 16						; size = 4
??$_Uninitialized_value_construct_n@V?$allocator@UD3DXVECTOR3@@@std@@@std@@YAPAUD3DXVECTOR3@@PAU1@IAAV?$allocator@UD3DXVECTOR3@@@0@@Z PROC ; std::_Uninitialized_value_construct_n<std::allocator<D3DXVECTOR3> >, COMDAT

; 1862 :     _Alloc_ptr_t<_Alloc> _First, _Alloc_size_t<_Alloc> _Count, _Alloc& _Al) {

  00000	55		 push	 ebp
  00001	8b ec		 mov	 ebp, esp
  00003	83 ec 20	 sub	 esp, 32			; 00000020H

; 1535 :     _Uninitialized_backout_al(pointer _Dest, _Alloc& _Al_) : _First(_Dest), _Last(_Dest), _Al(_Al_) {}

  00006	8b 45 08	 mov	 eax, DWORD PTR __First$[ebp]
  00009	89 45 e0	 mov	 DWORD PTR __Backout$1[ebp], eax
  0000c	8b 45 08	 mov	 eax, DWORD PTR __First$[ebp]
  0000f	89 45 e4	 mov	 DWORD PTR __Backout$1[ebp+4], eax
  00012	8b 45 10	 mov	 eax, DWORD PTR __Al$[ebp]
  00015	89 45 e8	 mov	 DWORD PTR __Backout$1[ebp+8], eax

; 1863 :     // value-initialize _Count objects to raw _First, using _Al
; 1864 :     using _Ptrty = typename _Alloc::value_type*;
; 1865 :     if constexpr (_Use_memset_value_construct_v<_Ptrty> && _Uses_default_construct<_Alloc, _Ptrty>::value) {
; 1866 :         auto _PFirst = _Unfancy(_First);
; 1867 :         _Zero_range(_PFirst, _PFirst + _Count);
; 1868 :         return _First + _Count;
; 1869 :     } else {
; 1870 :         _Uninitialized_backout_al<_Alloc> _Backout{_First, _Al};
; 1871 :         for (; 0 < _Count; --_Count) {

  00018	eb 07		 jmp	 SHORT $LN4@Uninitiali
$LN2@Uninitiali:
  0001a	8b 45 0c	 mov	 eax, DWORD PTR __Count$[ebp]
  0001d	48		 dec	 eax
  0001e	89 45 0c	 mov	 DWORD PTR __Count$[ebp], eax
$LN4@Uninitiali:
  00021	83 7d 0c 00	 cmp	 DWORD PTR __Count$[ebp], 0
  00025	76 23		 jbe	 SHORT $LN3@Uninitiali

; 1546 :         allocator_traits<_Alloc>::construct(_Al, _Unfancy(_Last), _STD forward<_Types>(_Vals)...);

  00027	8b 45 e4	 mov	 eax, DWORD PTR __Backout$1[ebp+4]
  0002a	89 45 fc	 mov	 DWORD PTR __Ptr$[ebp], eax
; File C:\Program Files (x86)\Microsoft Visual Studio\2019\Community\VC\Tools\MSVC\14.28.29333\include\xstddef

; 289  :     return _Ptr;

  0002d	8b 45 fc	 mov	 eax, DWORD PTR __Ptr$[ebp]
  00030	89 45 f8	 mov	 DWORD PTR $T4[ebp], eax
; File C:\Program Files (x86)\Microsoft Visual Studio\2019\Community\VC\Tools\MSVC\14.28.29333\include\xmemory

; 1546 :         allocator_traits<_Alloc>::construct(_Al, _Unfancy(_Last), _STD forward<_Types>(_Vals)...);

  00033	8b 45 e8	 mov	 eax, DWORD PTR __Backout$1[ebp+8]
  00036	89 45 f0	 mov	 DWORD PTR ___formal$[ebp], eax
; File C:\Program Files (x86)\Microsoft Visual Studio\2019\Community\VC\Tools\MSVC\14.28.29333\include\vcruntime_new.h

; 169  :         return _Where;

  00039	8b 45 f8	 mov	 eax, DWORD PTR $T4[ebp]
  0003c	89 45 ec	 mov	 DWORD PTR $T2[ebp], eax
; File C:\Program Files (x86)\Microsoft Visual Studio\2019\Community\VC\Tools\MSVC\14.28.29333\include\xmemory

; 1547 :         ++_Last;

  0003f	8b 45 e4	 mov	 eax, DWORD PTR __Backout$1[ebp+4]
  00042	83 c0 0c	 add	 eax, 12			; 0000000cH
  00045	89 45 e4	 mov	 DWORD PTR __Backout$1[ebp+4], eax

; 1872 :             _Backout._Emplace_back();
; 1873 :         }

  00048	eb d0		 jmp	 SHORT $LN2@Uninitiali
$LN3@Uninitiali:

; 1551 :         _First = _Last;

  0004a	8b 45 e4	 mov	 eax, DWORD PTR __Backout$1[ebp+4]
  0004d	89 45 e0	 mov	 DWORD PTR __Backout$1[ebp], eax

; 1552 :         return _Last;

  00050	8b 45 e4	 mov	 eax, DWORD PTR __Backout$1[ebp+4]
  00053	89 45 f4	 mov	 DWORD PTR $T3[ebp], eax

; 1541 :         _Destroy_range(_First, _Last, _Al);

  00056	ff 75 e8	 push	 DWORD PTR __Backout$1[ebp+8]
  00059	ff 75 e4	 push	 DWORD PTR __Backout$1[ebp+4]
  0005c	ff 75 e0	 push	 DWORD PTR __Backout$1[ebp]
  0005f	e8 00 00 00 00	 call	 ??$_Destroy_range@V?$allocator@UD3DXVECTOR3@@@std@@@std@@YAXPAUD3DXVECTOR3@@QAU1@AAV?$allocator@UD3DXVECTOR3@@@0@@Z ; std::_Destroy_range<std::allocator<D3DXVECTOR3> >
  00064	83 c4 0c	 add	 esp, 12			; 0000000cH

; 1874 : 
; 1875 :         return _Backout._Release();

  00067	8b 45 f4	 mov	 eax, DWORD PTR $T3[ebp]

; 1876 :     }
; 1877 : }

  0006a	c9		 leave
  0006b	c3		 ret	 0
??$_Uninitialized_value_construct_n@V?$allocator@UD3DXVECTOR3@@@std@@@std@@YAPAUD3DXVECTOR3@@PAU1@IAAV?$allocator@UD3DXVECTOR3@@@0@@Z ENDP ; std::_Uninitialized_value_construct_n<std::allocator<D3DXVECTOR3> >
_TEXT	ENDS
; Function compile flags: /Odspy
; File C:\Program Files (x86)\Microsoft Visual Studio\2019\Community\VC\Tools\MSVC\14.28.29333\include\vector
; File C:\Program Files (x86)\Microsoft Visual Studio\2019\Community\VC\Tools\MSVC\14.28.29333\include\xmemory
; File C:\Program Files (x86)\Microsoft Visual Studio\2019\Community\VC\Tools\MSVC\14.28.29333\include\vector
; File C:\Program Files (x86)\Microsoft Visual Studio\2019\Community\VC\Tools\MSVC\14.28.29333\include\xmemory
; File C:\Program Files (x86)\Microsoft Visual Studio\2019\Community\VC\Tools\MSVC\14.28.29333\include\limits
; File C:\Program Files (x86)\Microsoft Visual Studio\2019\Community\VC\Tools\MSVC\14.28.29333\include\vector
; File C:\Program Files (x86)\Microsoft Visual Studio\2019\Community\VC\Tools\MSVC\14.28.29333\include\utility
; File C:\Program Files (x86)\Microsoft Visual Studio\2019\Community\VC\Tools\MSVC\14.28.29333\include\vector
; File C:\Program Files (x86)\Microsoft Visual Studio\2019\Community\VC\Tools\MSVC\14.28.29333\include\xmemory
; File C:\Program Files (x86)\Microsoft Visual Studio\2019\Community\VC\Tools\MSVC\14.28.29333\include\vector
; File C:\Program Files (x86)\Microsoft Visual Studio\2019\Community\VC\Tools\MSVC\14.28.29333\include\xmemory
; File C:\Program Files (x86)\Microsoft Visual Studio\2019\Community\VC\Tools\MSVC\14.28.29333\include\vector
; File C:\Program Files (x86)\Microsoft Visual Studio\2019\Community\VC\Tools\MSVC\14.28.29333\include\xmemory
; File C:\Program Files (x86)\Microsoft Visual Studio\2019\Community\VC\Tools\MSVC\14.28.29333\include\vector
; File C:\Program Files (x86)\Microsoft Visual Studio\2019\Community\VC\Tools\MSVC\14.28.29333\include\xmemory
; File C:\Program Files (x86)\Microsoft Visual Studio\2019\Community\VC\Tools\MSVC\14.28.29333\include\vector
;	COMDAT ??$_Resize_reallocate@U_Value_init_tag@std@@@?$vector@UD3DXVECTOR3@@V?$allocator@UD3DXVECTOR3@@@std@@@std@@AAEXIABU_Value_init_tag@1@@Z
_TEXT	SEGMENT
__Max_possible$2 = -148					; size = 4
$T3 = -144						; size = 4
$T4 = -140						; size = 4
__First$ = -136						; size = 4
__Last$ = -132						; size = 4
$T5 = -128						; size = 4
$T6 = -124						; size = 4
tv244 = -120						; size = 4
$T7 = -116						; size = 4
$T8 = -112						; size = 4
$T9 = -108						; size = 4
$T10 = -104						; size = 4
$T11 = -100						; size = 4
$T12 = -96						; size = 4
$T13 = -92						; size = 4
$T14 = -88						; size = 4
$T15 = -84						; size = 4
__Appended_last$ = -80					; size = 4
__Myfirst$ = -76					; size = 4
__Mylast$ = -72						; size = 4
__Oldsize$ = -68					; size = 4
__My_data$ = -64					; size = 4
tv147 = -60						; size = 4
$T16 = -56						; size = 4
$T17 = -52						; size = 4
__Appended_first$ = -48					; size = 4
___formal$ = -44					; size = 1
___formal$ = -40					; size = 1
__Overflow_is_possible$18 = -33				; size = 1
__Newvec$ = -32						; size = 4
__Newcapacity$ = -28					; size = 4
$T19 = -21						; size = 1
_this$ = -20						; size = 4
__$EHRec$ = -16						; size = 16
__Newsize$ = 8						; size = 4
__Val$ = 12						; size = 4
??$_Resize_reallocate@U_Value_init_tag@std@@@?$vector@UD3DXVECTOR3@@V?$allocator@UD3DXVECTOR3@@@std@@@std@@AAEXIABU_Value_init_tag@1@@Z PROC ; std::vector<D3DXVECTOR3,std::allocator<D3DXVECTOR3> >::_Resize_reallocate<std::_Value_init_tag>, COMDAT
; _this$ = ecx

; 1182 :     void _Resize_reallocate(const size_type _Newsize, const _Ty2& _Val) {

  00000	55		 push	 ebp
  00001	8b ec		 mov	 ebp, esp
  00003	6a ff		 push	 -1
  00005	68 00 00 00 00	 push	 __ehhandler$??$_Resize_reallocate@U_Value_init_tag@std@@@?$vector@UD3DXVECTOR3@@V?$allocator@UD3DXVECTOR3@@@std@@@std@@AAEXIABU_Value_init_tag@1@@Z
  0000a	64 a1 00 00 00
	00		 mov	 eax, DWORD PTR fs:0
  00010	50		 push	 eax
  00011	51		 push	 ecx
  00012	81 ec 84 00 00
	00		 sub	 esp, 132		; 00000084H
  00018	53		 push	 ebx
  00019	56		 push	 esi
  0001a	57		 push	 edi
  0001b	a1 00 00 00 00	 mov	 eax, DWORD PTR ___security_cookie
  00020	33 c5		 xor	 eax, ebp
  00022	50		 push	 eax
  00023	8d 45 f4	 lea	 eax, DWORD PTR __$EHRec$[ebp+4]
  00026	64 a3 00 00 00
	00		 mov	 DWORD PTR fs:0, eax
  0002c	89 65 f0	 mov	 DWORD PTR __$EHRec$[ebp], esp
  0002f	89 4d ec	 mov	 DWORD PTR _this$[ebp], ecx

; 1737 :         return _Mypair._Get_first();

  00032	8b 45 ec	 mov	 eax, DWORD PTR _this$[ebp]
; File C:\Program Files (x86)\Microsoft Visual Studio\2019\Community\VC\Tools\MSVC\14.28.29333\include\xmemory

; 1351 :         return *this;

  00035	89 45 ac	 mov	 DWORD PTR $T15[ebp], eax
; File C:\Program Files (x86)\Microsoft Visual Studio\2019\Community\VC\Tools\MSVC\14.28.29333\include\vector

; 1737 :         return _Mypair._Get_first();

  00038	8b 45 ac	 mov	 eax, DWORD PTR $T15[ebp]
  0003b	89 85 74 ff ff
	ff		 mov	 DWORD PTR $T4[ebp], eax
; File C:\Program Files (x86)\Microsoft Visual Studio\2019\Community\VC\Tools\MSVC\14.28.29333\include\xmemory

; 710  :         return static_cast<size_t>(-1) / sizeof(value_type);

  00041	c7 45 cc 55 55
	55 15		 mov	 DWORD PTR $T17[ebp], 357913941 ; 15555555H
; File C:\Program Files (x86)\Microsoft Visual Studio\2019\Community\VC\Tools\MSVC\14.28.29333\include\limits

; 557  :         return INT_MAX;

  00048	c7 45 a8 ff ff
	ff 7f		 mov	 DWORD PTR $T14[ebp], 2147483647 ; 7fffffffH
; File C:\Program Files (x86)\Microsoft Visual Studio\2019\Community\VC\Tools\MSVC\14.28.29333\include\vector

; 1488 :         return (_STD min)(

  0004f	8b 45 a8	 mov	 eax, DWORD PTR $T14[ebp]
  00052	89 45 c8	 mov	 DWORD PTR $T16[ebp], eax
; File C:\Program Files (x86)\Microsoft Visual Studio\2019\Community\VC\Tools\MSVC\14.28.29333\include\utility

; 68   :     return _Right < _Left ? _Right : _Left;

  00055	8b 45 cc	 mov	 eax, DWORD PTR $T17[ebp]
  00058	3b 45 c8	 cmp	 eax, DWORD PTR $T16[ebp]
  0005b	73 08		 jae	 SHORT $LN26@Resize_rea
  0005d	8d 45 cc	 lea	 eax, DWORD PTR $T17[ebp]
  00060	89 45 c4	 mov	 DWORD PTR tv147[ebp], eax
  00063	eb 06		 jmp	 SHORT $LN27@Resize_rea
$LN26@Resize_rea:
  00065	8d 45 c8	 lea	 eax, DWORD PTR $T16[ebp]
  00068	89 45 c4	 mov	 DWORD PTR tv147[ebp], eax
$LN27@Resize_rea:
  0006b	8b 45 c4	 mov	 eax, DWORD PTR tv147[ebp]
  0006e	89 45 a4	 mov	 DWORD PTR $T13[ebp], eax
  00071	8b 45 a4	 mov	 eax, DWORD PTR $T13[ebp]
  00074	89 45 a0	 mov	 DWORD PTR $T12[ebp], eax
; File C:\Program Files (x86)\Microsoft Visual Studio\2019\Community\VC\Tools\MSVC\14.28.29333\include\vector

; 1488 :         return (_STD min)(

  00077	8b 45 a0	 mov	 eax, DWORD PTR $T12[ebp]
  0007a	8b 00		 mov	 eax, DWORD PTR [eax]
  0007c	89 45 9c	 mov	 DWORD PTR $T11[ebp], eax

; 1183 :         if (_Newsize > max_size()) {

  0007f	8b 45 08	 mov	 eax, DWORD PTR __Newsize$[ebp]
  00082	3b 45 9c	 cmp	 eax, DWORD PTR $T11[ebp]
  00085	76 05		 jbe	 SHORT $LN2@Resize_rea

; 1184 :             _Xlength();

  00087	e8 00 00 00 00	 call	 ?_Xlength@?$vector@UD3DXVECTOR3@@V?$allocator@UD3DXVECTOR3@@@std@@@std@@CAXXZ ; std::vector<D3DXVECTOR3,std::allocator<D3DXVECTOR3> >::_Xlength
$LN2@Resize_rea:

; 1185 :         }
; 1186 : 
; 1187 :         auto& _My_data    = _Mypair._Myval2;

  0008c	8b 45 ec	 mov	 eax, DWORD PTR _this$[ebp]
  0008f	89 45 c0	 mov	 DWORD PTR __My_data$[ebp], eax

; 1188 :         pointer& _Myfirst = _My_data._Myfirst;

  00092	8b 45 c0	 mov	 eax, DWORD PTR __My_data$[ebp]
  00095	89 45 b4	 mov	 DWORD PTR __Myfirst$[ebp], eax

; 1189 :         pointer& _Mylast  = _My_data._Mylast;

  00098	8b 45 c0	 mov	 eax, DWORD PTR __My_data$[ebp]
  0009b	83 c0 04	 add	 eax, 4
  0009e	89 45 b8	 mov	 DWORD PTR __Mylast$[ebp], eax

; 1190 : 
; 1191 :         const auto _Oldsize          = static_cast<size_type>(_Mylast - _Myfirst);

  000a1	8b 45 b8	 mov	 eax, DWORD PTR __Mylast$[ebp]
  000a4	8b 4d b4	 mov	 ecx, DWORD PTR __Myfirst$[ebp]
  000a7	8b 00		 mov	 eax, DWORD PTR [eax]
  000a9	2b 01		 sub	 eax, DWORD PTR [ecx]
  000ab	99		 cdq
  000ac	6a 0c		 push	 12			; 0000000cH
  000ae	59		 pop	 ecx
  000af	f7 f9		 idiv	 ecx
  000b1	89 45 bc	 mov	 DWORD PTR __Oldsize$[ebp], eax

; 1192 :         const size_type _Newcapacity = _Calculate_growth(_Newsize);

  000b4	ff 75 08	 push	 DWORD PTR __Newsize$[ebp]
  000b7	8b 4d ec	 mov	 ecx, DWORD PTR _this$[ebp]
  000ba	e8 00 00 00 00	 call	 ?_Calculate_growth@?$vector@UD3DXVECTOR3@@V?$allocator@UD3DXVECTOR3@@@std@@@std@@ABEII@Z ; std::vector<D3DXVECTOR3,std::allocator<D3DXVECTOR3> >::_Calculate_growth
  000bf	89 45 e4	 mov	 DWORD PTR __Newcapacity$[ebp], eax

; 1733 :         return _Mypair._Get_first();

  000c2	8b 45 ec	 mov	 eax, DWORD PTR _this$[ebp]
; File C:\Program Files (x86)\Microsoft Visual Studio\2019\Community\VC\Tools\MSVC\14.28.29333\include\xmemory

; 1347 :         return *this;

  000c5	89 45 98	 mov	 DWORD PTR $T10[ebp], eax
; File C:\Program Files (x86)\Microsoft Visual Studio\2019\Community\VC\Tools\MSVC\14.28.29333\include\vector

; 1733 :         return _Mypair._Get_first();

  000c8	8b 45 98	 mov	 eax, DWORD PTR $T10[ebp]
  000cb	89 85 70 ff ff
	ff		 mov	 DWORD PTR $T3[ebp], eax
; File C:\Program Files (x86)\Microsoft Visual Studio\2019\Community\VC\Tools\MSVC\14.28.29333\include\xmemory

; 56   :     constexpr bool _Overflow_is_possible = _Ty_size > 1;

  000d1	c6 45 df 01	 mov	 BYTE PTR __Overflow_is_possible$18[ebp], 1

; 57   : 
; 58   :     if _CONSTEXPR_IF (_Overflow_is_possible) {
; 59   :         constexpr size_t _Max_possible = static_cast<size_t>(-1) / _Ty_size;

  000d5	c7 85 6c ff ff
	ff 55 55 55 15	 mov	 DWORD PTR __Max_possible$2[ebp], 357913941 ; 15555555H

; 60   :         if (_Count > _Max_possible) {

  000df	81 7d e4 55 55
	55 15		 cmp	 DWORD PTR __Newcapacity$[ebp], 357913941 ; 15555555H
  000e6	76 05		 jbe	 SHORT $LN65@Resize_rea

; 61   :             _Throw_bad_array_new_length(); // multiply overflow

  000e8	e8 00 00 00 00	 call	 ?_Throw_bad_array_new_length@std@@YAXXZ ; std::_Throw_bad_array_new_length
$LN65@Resize_rea:

; 62   :         }
; 63   :     }
; 64   : 
; 65   :     return _Count * _Ty_size;

  000ed	6b 45 e4 0c	 imul	 eax, DWORD PTR __Newcapacity$[ebp], 12
  000f1	89 45 94	 mov	 DWORD PTR $T9[ebp], eax

; 814  :         return static_cast<_Ty*>(_Allocate<_New_alignof<_Ty>>(_Get_size_of_n<sizeof(_Ty)>(_Count)));

  000f4	ff 75 94	 push	 DWORD PTR $T9[ebp]
  000f7	e8 00 00 00 00	 call	 ??$_Allocate@$07U_Default_allocate_traits@std@@$0A@@std@@YAPAXI@Z ; std::_Allocate<8,std::_Default_allocate_traits,0>
  000fc	59		 pop	 ecx
  000fd	89 45 e0	 mov	 DWORD PTR __Newvec$[ebp], eax
; File C:\Program Files (x86)\Microsoft Visual Studio\2019\Community\VC\Tools\MSVC\14.28.29333\include\vector

; 1195 :         const pointer _Appended_first = _Newvec + _Oldsize;

  00100	6b 45 bc 0c	 imul	 eax, DWORD PTR __Oldsize$[ebp], 12
  00104	03 45 e0	 add	 eax, DWORD PTR __Newvec$[ebp]
  00107	89 45 d0	 mov	 DWORD PTR __Appended_first$[ebp], eax

; 1196 :         pointer _Appended_last        = _Appended_first;

  0010a	8b 45 d0	 mov	 eax, DWORD PTR __Appended_first$[ebp]
  0010d	89 45 b0	 mov	 DWORD PTR __Appended_last$[ebp], eax

; 1197 : 
; 1198 :         _TRY_BEGIN

  00110	83 65 fc 00	 and	 DWORD PTR __$EHRec$[ebp+12], 0

; 1199 :         _Appended_last = _Ufill(_Appended_first, _Newsize - _Oldsize, _Val);

  00114	8b 45 0c	 mov	 eax, DWORD PTR __Val$[ebp]
  00117	8a 00		 mov	 al, BYTE PTR [eax]
  00119	88 45 d8	 mov	 BYTE PTR ___formal$[ebp], al

; 1733 :         return _Mypair._Get_first();

  0011c	8b 45 ec	 mov	 eax, DWORD PTR _this$[ebp]
; File C:\Program Files (x86)\Microsoft Visual Studio\2019\Community\VC\Tools\MSVC\14.28.29333\include\xmemory

; 1347 :         return *this;

  0011f	89 45 90	 mov	 DWORD PTR $T8[ebp], eax
; File C:\Program Files (x86)\Microsoft Visual Studio\2019\Community\VC\Tools\MSVC\14.28.29333\include\vector

; 1733 :         return _Mypair._Get_first();

  00122	8b 45 90	 mov	 eax, DWORD PTR $T8[ebp]
  00125	89 45 8c	 mov	 DWORD PTR $T7[ebp], eax

; 1583 :         return _Uninitialized_value_construct_n(_Dest, _Count, _Getal());

  00128	ff 75 8c	 push	 DWORD PTR $T7[ebp]

; 1199 :         _Appended_last = _Ufill(_Appended_first, _Newsize - _Oldsize, _Val);

  0012b	8b 45 08	 mov	 eax, DWORD PTR __Newsize$[ebp]
  0012e	2b 45 bc	 sub	 eax, DWORD PTR __Oldsize$[ebp]

; 1583 :         return _Uninitialized_value_construct_n(_Dest, _Count, _Getal());

  00131	50		 push	 eax
  00132	ff 75 d0	 push	 DWORD PTR __Appended_first$[ebp]
  00135	e8 00 00 00 00	 call	 ??$_Uninitialized_value_construct_n@V?$allocator@UD3DXVECTOR3@@@std@@@std@@YAPAUD3DXVECTOR3@@PAU1@IAAV?$allocator@UD3DXVECTOR3@@@0@@Z ; std::_Uninitialized_value_construct_n<std::allocator<D3DXVECTOR3> >
  0013a	83 c4 0c	 add	 esp, 12			; 0000000cH
  0013d	89 45 88	 mov	 DWORD PTR tv244[ebp], eax

; 1199 :         _Appended_last = _Ufill(_Appended_first, _Newsize - _Oldsize, _Val);

  00140	8b 45 88	 mov	 eax, DWORD PTR tv244[ebp]
  00143	89 45 b0	 mov	 DWORD PTR __Appended_last$[ebp], eax

; 1200 :         _Umove_if_noexcept(_Myfirst, _Mylast, _Newvec);

  00146	8b 45 b8	 mov	 eax, DWORD PTR __Mylast$[ebp]
  00149	8b 00		 mov	 eax, DWORD PTR [eax]
  0014b	89 85 7c ff ff
	ff		 mov	 DWORD PTR __Last$[ebp], eax
  00151	8b 45 b4	 mov	 eax, DWORD PTR __Myfirst$[ebp]
  00154	8b 00		 mov	 eax, DWORD PTR [eax]
  00156	89 85 78 ff ff
	ff		 mov	 DWORD PTR __First$[ebp], eax

; 1607 :         _Umove_if_noexcept1(_First, _Last, _Dest,

  0015c	33 c0		 xor	 eax, eax
  0015e	88 45 eb	 mov	 BYTE PTR $T19[ebp], al
  00161	8a 45 eb	 mov	 al, BYTE PTR $T19[ebp]
  00164	88 45 d4	 mov	 BYTE PTR ___formal$[ebp], al

; 1733 :         return _Mypair._Get_first();

  00167	8b 45 ec	 mov	 eax, DWORD PTR _this$[ebp]
; File C:\Program Files (x86)\Microsoft Visual Studio\2019\Community\VC\Tools\MSVC\14.28.29333\include\xmemory

; 1347 :         return *this;

  0016a	89 45 84	 mov	 DWORD PTR $T6[ebp], eax
; File C:\Program Files (x86)\Microsoft Visual Studio\2019\Community\VC\Tools\MSVC\14.28.29333\include\vector

; 1733 :         return _Mypair._Get_first();

  0016d	8b 45 84	 mov	 eax, DWORD PTR $T6[ebp]
  00170	89 45 80	 mov	 DWORD PTR $T5[ebp], eax

; 1597 :         _Uninitialized_move(_First, _Last, _Dest, _Getal());

  00173	ff 75 80	 push	 DWORD PTR $T5[ebp]
  00176	ff 75 e0	 push	 DWORD PTR __Newvec$[ebp]
  00179	ff b5 7c ff ff
	ff		 push	 DWORD PTR __Last$[ebp]
  0017f	ff b5 78 ff ff
	ff		 push	 DWORD PTR __First$[ebp]
  00185	e8 00 00 00 00	 call	 ??$_Uninitialized_move@PAUD3DXVECTOR3@@V?$allocator@UD3DXVECTOR3@@@std@@@std@@YAPAUD3DXVECTOR3@@QAU1@0PAU1@AAV?$allocator@UD3DXVECTOR3@@@0@@Z ; std::_Uninitialized_move<D3DXVECTOR3 *,std::allocator<D3DXVECTOR3> >
  0018a	83 c4 10	 add	 esp, 16			; 00000010H

; 1200 :         _Umove_if_noexcept(_Myfirst, _Mylast, _Newvec);

  0018d	eb 32		 jmp	 SHORT $LN5@Resize_rea
__catch$??$_Resize_reallocate@U_Value_init_tag@std@@@?$vector@UD3DXVECTOR3@@V?$allocator@UD3DXVECTOR3@@@std@@@std@@AAEXIABU_Value_init_tag@1@@Z$0:

; 1201 :         _CATCH_ALL
; 1202 :         _Destroy(_Appended_first, _Appended_last);

  0018f	ff 75 b0	 push	 DWORD PTR __Appended_last$[ebp]
  00192	ff 75 d0	 push	 DWORD PTR __Appended_first$[ebp]
  00195	8b 4d ec	 mov	 ecx, DWORD PTR _this$[ebp]
  00198	e8 00 00 00 00	 call	 ?_Destroy@?$vector@UD3DXVECTOR3@@V?$allocator@UD3DXVECTOR3@@@std@@@std@@AAEXPAUD3DXVECTOR3@@0@Z ; std::vector<D3DXVECTOR3,std::allocator<D3DXVECTOR3> >::_Destroy

; 1203 :         _Getal().deallocate(_Newvec, _Newcapacity);

  0019d	ff 75 e4	 push	 DWORD PTR __Newcapacity$[ebp]
  001a0	ff 75 e0	 push	 DWORD PTR __Newvec$[ebp]
  001a3	8b 4d ec	 mov	 ecx, DWORD PTR _this$[ebp]
  001a6	e8 00 00 00 00	 call	 ?_Getal@?$vector@UD3DXVECTOR3@@V?$allocator@UD3DXVECTOR3@@@std@@@std@@AAEAAV?$allocator@UD3DXVECTOR3@@@2@XZ ; std::vector<D3DXVECTOR3,std::allocator<D3DXVECTOR3> >::_Getal
  001ab	8b c8		 mov	 ecx, eax
  001ad	e8 00 00 00 00	 call	 ?deallocate@?$allocator@UD3DXVECTOR3@@@std@@QAEXQAUD3DXVECTOR3@@I@Z ; std::allocator<D3DXVECTOR3>::deallocate

; 1204 :         _RERAISE;

  001b2	6a 00		 push	 0
  001b4	6a 00		 push	 0
  001b6	e8 00 00 00 00	 call	 __CxxThrowException@8

; 1205 :         _CATCH_END

  001bb	b8 00 00 00 00	 mov	 eax, $LN8@Resize_rea
  001c0	c3		 ret	 0
$LN5@Resize_rea:
  001c1	83 4d fc ff	 or	 DWORD PTR __$EHRec$[ebp+12], -1
  001c5	eb 04		 jmp	 SHORT __tryend$??$_Resize_reallocate@U_Value_init_tag@std@@@?$vector@UD3DXVECTOR3@@V?$allocator@UD3DXVECTOR3@@@std@@@std@@AAEXIABU_Value_init_tag@1@@Z$1
$LN8@Resize_rea:
; File C:\Program Files (x86)\Microsoft Visual Studio\2019\Community\VC\Tools\MSVC\14.28.29333\include\xmemory
  001c7	83 4d fc ff	 or	 DWORD PTR __$EHRec$[ebp+12], -1
__tryend$??$_Resize_reallocate@U_Value_init_tag@std@@@?$vector@UD3DXVECTOR3@@V?$allocator@UD3DXVECTOR3@@@std@@@std@@AAEXIABU_Value_init_tag@1@@Z$1:
; File C:\Program Files (x86)\Microsoft Visual Studio\2019\Community\VC\Tools\MSVC\14.28.29333\include\vector

; 1206 : 
; 1207 :         _Change_array(_Newvec, _Newsize, _Newcapacity);

  001cb	ff 75 e4	 push	 DWORD PTR __Newcapacity$[ebp]
  001ce	ff 75 08	 push	 DWORD PTR __Newsize$[ebp]
  001d1	ff 75 e0	 push	 DWORD PTR __Newvec$[ebp]
  001d4	8b 4d ec	 mov	 ecx, DWORD PTR _this$[ebp]
  001d7	e8 00 00 00 00	 call	 ?_Change_array@?$vector@UD3DXVECTOR3@@V?$allocator@UD3DXVECTOR3@@@std@@@std@@AAEXQAUD3DXVECTOR3@@II@Z ; std::vector<D3DXVECTOR3,std::allocator<D3DXVECTOR3> >::_Change_array
$LN68@Resize_rea:

; 1208 :     }

  001dc	8b 4d f4	 mov	 ecx, DWORD PTR __$EHRec$[ebp+4]
  001df	64 89 0d 00 00
	00 00		 mov	 DWORD PTR fs:0, ecx
  001e6	59		 pop	 ecx
  001e7	5f		 pop	 edi
  001e8	5e		 pop	 esi
  001e9	5b		 pop	 ebx
  001ea	c9		 leave
  001eb	c2 08 00	 ret	 8
  001ee	cc		 int	 3
  001ef	cc		 int	 3
  001f0	cc		 int	 3
  001f1	cc		 int	 3
  001f2	cc		 int	 3
_TEXT	ENDS
;	COMDAT text$x
text$x	SEGMENT
__ehhandler$??$_Resize_reallocate@U_Value_init_tag@std@@@?$vector@UD3DXVECTOR3@@V?$allocator@UD3DXVECTOR3@@@std@@@std@@AAEXIABU_Value_init_tag@1@@Z:
  00000	90		 npad	 1
  00001	90		 npad	 1
  00002	8b 54 24 08	 mov	 edx, DWORD PTR [esp+8]
  00006	8d 42 0c	 lea	 eax, DWORD PTR [edx+12]
  00009	8b 8a 68 ff ff
	ff		 mov	 ecx, DWORD PTR [edx-152]
  0000f	33 c8		 xor	 ecx, eax
  00011	e8 00 00 00 00	 call	 @__security_check_cookie@4
  00016	b8 00 00 00 00	 mov	 eax, OFFSET __ehfuncinfo$??$_Resize_reallocate@U_Value_init_tag@std@@@?$vector@UD3DXVECTOR3@@V?$allocator@UD3DXVECTOR3@@@std@@@std@@AAEXIABU_Value_init_tag@1@@Z
  0001b	e9 00 00 00 00	 jmp	 ___CxxFrameHandler3
text$x	ENDS
??$_Resize_reallocate@U_Value_init_tag@std@@@?$vector@UD3DXVECTOR3@@V?$allocator@UD3DXVECTOR3@@@std@@@std@@AAEXIABU_Value_init_tag@1@@Z ENDP ; std::vector<D3DXVECTOR3,std::allocator<D3DXVECTOR3> >::_Resize_reallocate<std::_Value_init_tag>
; Function compile flags: /Odspy
; File C:\Program Files (x86)\Microsoft Visual Studio\2019\Community\VC\Tools\MSVC\14.28.29333\include\xmemory
;	COMDAT ??$_Destroy_range@V?$allocator@UD3DXVECTOR3@@@std@@@std@@YAXPAUD3DXVECTOR3@@QAU1@AAV?$allocator@UD3DXVECTOR3@@@0@@Z
_TEXT	SEGMENT
__First$ = 8						; size = 4
__Last$ = 12						; size = 4
__Al$ = 16						; size = 4
??$_Destroy_range@V?$allocator@UD3DXVECTOR3@@@std@@@std@@YAXPAUD3DXVECTOR3@@QAU1@AAV?$allocator@UD3DXVECTOR3@@@0@@Z PROC ; std::_Destroy_range<std::allocator<D3DXVECTOR3> >, COMDAT

; 962  :     _Alloc_ptr_t<_Alloc> _First, const _Alloc_ptr_t<_Alloc> _Last, _Alloc& _Al) noexcept {

  00000	55		 push	 ebp
  00001	8b ec		 mov	 ebp, esp

; 963  :     // note that this is an optimization for debug mode codegen; in release mode the BE removes all of this
; 964  :     using _Ty = typename _Alloc::value_type;
; 965  :     if _CONSTEXPR_IF (!conjunction_v<is_trivially_destructible<_Ty>, _Uses_default_destroy<_Alloc, _Ty*>>) {
; 966  :         for (; _First != _Last; ++_First) {
; 967  :             allocator_traits<_Alloc>::destroy(_Al, _Unfancy(_First));
; 968  :         }
; 969  :     }
; 970  : }

  00003	5d		 pop	 ebp
  00004	c3		 ret	 0
??$_Destroy_range@V?$allocator@UD3DXVECTOR3@@@std@@@std@@YAXPAUD3DXVECTOR3@@QAU1@AAV?$allocator@UD3DXVECTOR3@@@0@@Z ENDP ; std::_Destroy_range<std::allocator<D3DXVECTOR3> >
_TEXT	ENDS
; Function compile flags: /Odspy
; File C:\Program Files (x86)\Microsoft Visual Studio\2019\Community\VC\Tools\MSVC\14.28.29333\include\vector
; File C:\Program Files (x86)\Microsoft Visual Studio\2019\Community\VC\Tools\MSVC\14.28.29333\include\xmemory
; File C:\Program Files (x86)\Microsoft Visual Studio\2019\Community\VC\Tools\MSVC\14.28.29333\include\vector
; File C:\Program Files (x86)\Microsoft Visual Studio\2019\Community\VC\Tools\MSVC\14.28.29333\include\xmemory
; File C:\Program Files (x86)\Microsoft Visual Studio\2019\Community\VC\Tools\MSVC\14.28.29333\include\vector
;	COMDAT ??$_Resize@U_Value_init_tag@std@@@?$vector@UD3DXVECTOR3@@V?$allocator@UD3DXVECTOR3@@@std@@@std@@AAEXIABU_Value_init_tag@1@@Z
_TEXT	SEGMENT
__Oldlast$1 = -56					; size = 4
$T2 = -52						; size = 4
$T3 = -48						; size = 4
__Oldcapacity$4 = -44					; size = 4
__Last$ = -40						; size = 4
$T5 = -36						; size = 4
$T6 = -32						; size = 4
__Newlast$7 = -28					; size = 4
__Oldsize$ = -24					; size = 4
__Myfirst$ = -20					; size = 4
__My_data$ = -16					; size = 4
_this$ = -12						; size = 4
__Mylast$ = -8						; size = 4
___formal$ = -4						; size = 1
__Newsize$ = 8						; size = 4
__Val$ = 12						; size = 4
??$_Resize@U_Value_init_tag@std@@@?$vector@UD3DXVECTOR3@@V?$allocator@UD3DXVECTOR3@@@std@@@std@@AAEXIABU_Value_init_tag@1@@Z PROC ; std::vector<D3DXVECTOR3,std::allocator<D3DXVECTOR3> >::_Resize<std::_Value_init_tag>, COMDAT
; _this$ = ecx

; 1211 :     void _Resize(const size_type _Newsize, const _Ty2& _Val) { // trim or append elements, provide strong guarantee

  00000	55		 push	 ebp
  00001	8b ec		 mov	 ebp, esp
  00003	83 ec 38	 sub	 esp, 56			; 00000038H
  00006	89 4d f4	 mov	 DWORD PTR _this$[ebp], ecx

; 1212 :         auto& _My_data      = _Mypair._Myval2;

  00009	8b 45 f4	 mov	 eax, DWORD PTR _this$[ebp]
  0000c	89 45 f0	 mov	 DWORD PTR __My_data$[ebp], eax

; 1213 :         pointer& _Myfirst   = _My_data._Myfirst;

  0000f	8b 45 f0	 mov	 eax, DWORD PTR __My_data$[ebp]
  00012	89 45 ec	 mov	 DWORD PTR __Myfirst$[ebp], eax

; 1214 :         pointer& _Mylast    = _My_data._Mylast;

  00015	8b 45 f0	 mov	 eax, DWORD PTR __My_data$[ebp]
  00018	83 c0 04	 add	 eax, 4
  0001b	89 45 f8	 mov	 DWORD PTR __Mylast$[ebp], eax

; 1215 :         const auto _Oldsize = static_cast<size_type>(_Mylast - _Myfirst);

  0001e	8b 45 f8	 mov	 eax, DWORD PTR __Mylast$[ebp]
  00021	8b 4d ec	 mov	 ecx, DWORD PTR __Myfirst$[ebp]
  00024	8b 00		 mov	 eax, DWORD PTR [eax]
  00026	2b 01		 sub	 eax, DWORD PTR [ecx]
  00028	99		 cdq
  00029	6a 0c		 push	 12			; 0000000cH
  0002b	59		 pop	 ecx
  0002c	f7 f9		 idiv	 ecx
  0002e	89 45 e8	 mov	 DWORD PTR __Oldsize$[ebp], eax

; 1216 :         if (_Newsize < _Oldsize) { // trim

  00031	8b 45 08	 mov	 eax, DWORD PTR __Newsize$[ebp]
  00034	3b 45 e8	 cmp	 eax, DWORD PTR __Oldsize$[ebp]
  00037	73 3b		 jae	 SHORT $LN2@Resize

; 1217 :             const pointer _Newlast = _Myfirst + _Newsize;

  00039	6b 45 08 0c	 imul	 eax, DWORD PTR __Newsize$[ebp], 12
  0003d	8b 4d ec	 mov	 ecx, DWORD PTR __Myfirst$[ebp]
  00040	03 01		 add	 eax, DWORD PTR [ecx]
  00042	89 45 e4	 mov	 DWORD PTR __Newlast$7[ebp], eax

; 1218 :             _Orphan_range(_Newlast, _Mylast);
; 1219 :             _Destroy(_Newlast, _Mylast);

  00045	8b 45 f8	 mov	 eax, DWORD PTR __Mylast$[ebp]
  00048	8b 00		 mov	 eax, DWORD PTR [eax]
  0004a	89 45 d8	 mov	 DWORD PTR __Last$[ebp], eax

; 1733 :         return _Mypair._Get_first();

  0004d	8b 45 f4	 mov	 eax, DWORD PTR _this$[ebp]
; File C:\Program Files (x86)\Microsoft Visual Studio\2019\Community\VC\Tools\MSVC\14.28.29333\include\xmemory

; 1347 :         return *this;

  00050	89 45 e0	 mov	 DWORD PTR $T6[ebp], eax
; File C:\Program Files (x86)\Microsoft Visual Studio\2019\Community\VC\Tools\MSVC\14.28.29333\include\vector

; 1733 :         return _Mypair._Get_first();

  00053	8b 45 e0	 mov	 eax, DWORD PTR $T6[ebp]
  00056	89 45 dc	 mov	 DWORD PTR $T5[ebp], eax

; 1612 :         _Destroy_range(_First, _Last, _Getal());

  00059	ff 75 dc	 push	 DWORD PTR $T5[ebp]
  0005c	ff 75 d8	 push	 DWORD PTR __Last$[ebp]
  0005f	ff 75 e4	 push	 DWORD PTR __Newlast$7[ebp]
  00062	e8 00 00 00 00	 call	 ??$_Destroy_range@V?$allocator@UD3DXVECTOR3@@@std@@@std@@YAXPAUD3DXVECTOR3@@QAU1@AAV?$allocator@UD3DXVECTOR3@@@0@@Z ; std::_Destroy_range<std::allocator<D3DXVECTOR3> >
  00067	83 c4 0c	 add	 esp, 12			; 0000000cH

; 1220 :             _Mylast = _Newlast;

  0006a	8b 45 f8	 mov	 eax, DWORD PTR __Mylast$[ebp]
  0006d	8b 4d e4	 mov	 ecx, DWORD PTR __Newlast$7[ebp]
  00070	89 08		 mov	 DWORD PTR [eax], ecx

; 1221 :             return;

  00072	eb 6a		 jmp	 SHORT $LN1@Resize
$LN2@Resize:

; 1222 :         }
; 1223 : 
; 1224 :         if (_Newsize > _Oldsize) { // append

  00074	8b 45 08	 mov	 eax, DWORD PTR __Newsize$[ebp]
  00077	3b 45 e8	 cmp	 eax, DWORD PTR __Oldsize$[ebp]
  0007a	76 62		 jbe	 SHORT $LN1@Resize

; 1225 :             const auto _Oldcapacity = static_cast<size_type>(_My_data._Myend - _Myfirst);

  0007c	8b 45 f0	 mov	 eax, DWORD PTR __My_data$[ebp]
  0007f	8b 4d ec	 mov	 ecx, DWORD PTR __Myfirst$[ebp]
  00082	8b 40 08	 mov	 eax, DWORD PTR [eax+8]
  00085	2b 01		 sub	 eax, DWORD PTR [ecx]
  00087	99		 cdq
  00088	6a 0c		 push	 12			; 0000000cH
  0008a	59		 pop	 ecx
  0008b	f7 f9		 idiv	 ecx
  0008d	89 45 d4	 mov	 DWORD PTR __Oldcapacity$4[ebp], eax

; 1226 :             if (_Newsize > _Oldcapacity) { // reallocate

  00090	8b 45 08	 mov	 eax, DWORD PTR __Newsize$[ebp]
  00093	3b 45 d4	 cmp	 eax, DWORD PTR __Oldcapacity$4[ebp]
  00096	76 10		 jbe	 SHORT $LN4@Resize

; 1227 :                 _Resize_reallocate(_Newsize, _Val);

  00098	ff 75 0c	 push	 DWORD PTR __Val$[ebp]
  0009b	ff 75 08	 push	 DWORD PTR __Newsize$[ebp]
  0009e	8b 4d f4	 mov	 ecx, DWORD PTR _this$[ebp]
  000a1	e8 00 00 00 00	 call	 ??$_Resize_reallocate@U_Value_init_tag@std@@@?$vector@UD3DXVECTOR3@@V?$allocator@UD3DXVECTOR3@@@std@@@std@@AAEXIABU_Value_init_tag@1@@Z ; std::vector<D3DXVECTOR3,std::allocator<D3DXVECTOR3> >::_Resize_reallocate<std::_Value_init_tag>

; 1228 :                 return;

  000a6	eb 36		 jmp	 SHORT $LN1@Resize
$LN4@Resize:

; 1229 :             }
; 1230 : 
; 1231 :             const pointer _Oldlast = _Mylast;

  000a8	8b 45 f8	 mov	 eax, DWORD PTR __Mylast$[ebp]
  000ab	8b 00		 mov	 eax, DWORD PTR [eax]
  000ad	89 45 c8	 mov	 DWORD PTR __Oldlast$1[ebp], eax

; 1232 :             _Mylast                = _Ufill(_Oldlast, _Newsize - _Oldsize, _Val);

  000b0	8b 45 0c	 mov	 eax, DWORD PTR __Val$[ebp]
  000b3	8a 00		 mov	 al, BYTE PTR [eax]
  000b5	88 45 fc	 mov	 BYTE PTR ___formal$[ebp], al

; 1733 :         return _Mypair._Get_first();

  000b8	8b 45 f4	 mov	 eax, DWORD PTR _this$[ebp]
; File C:\Program Files (x86)\Microsoft Visual Studio\2019\Community\VC\Tools\MSVC\14.28.29333\include\xmemory

; 1347 :         return *this;

  000bb	89 45 d0	 mov	 DWORD PTR $T3[ebp], eax
; File C:\Program Files (x86)\Microsoft Visual Studio\2019\Community\VC\Tools\MSVC\14.28.29333\include\vector

; 1733 :         return _Mypair._Get_first();

  000be	8b 45 d0	 mov	 eax, DWORD PTR $T3[ebp]
  000c1	89 45 cc	 mov	 DWORD PTR $T2[ebp], eax

; 1583 :         return _Uninitialized_value_construct_n(_Dest, _Count, _Getal());

  000c4	ff 75 cc	 push	 DWORD PTR $T2[ebp]

; 1232 :             _Mylast                = _Ufill(_Oldlast, _Newsize - _Oldsize, _Val);

  000c7	8b 45 08	 mov	 eax, DWORD PTR __Newsize$[ebp]
  000ca	2b 45 e8	 sub	 eax, DWORD PTR __Oldsize$[ebp]

; 1583 :         return _Uninitialized_value_construct_n(_Dest, _Count, _Getal());

  000cd	50		 push	 eax
  000ce	ff 75 c8	 push	 DWORD PTR __Oldlast$1[ebp]
  000d1	e8 00 00 00 00	 call	 ??$_Uninitialized_value_construct_n@V?$allocator@UD3DXVECTOR3@@@std@@@std@@YAPAUD3DXVECTOR3@@PAU1@IAAV?$allocator@UD3DXVECTOR3@@@0@@Z ; std::_Uninitialized_value_construct_n<std::allocator<D3DXVECTOR3> >
  000d6	83 c4 0c	 add	 esp, 12			; 0000000cH

; 1232 :             _Mylast                = _Ufill(_Oldlast, _Newsize - _Oldsize, _Val);

  000d9	8b 4d f8	 mov	 ecx, DWORD PTR __Mylast$[ebp]
  000dc	89 01		 mov	 DWORD PTR [ecx], eax
$LN1@Resize:

; 1233 :             _Orphan_range(_Oldlast, _Oldlast);
; 1234 :         }
; 1235 : 
; 1236 :         // if _Newsize == _Oldsize, do nothing; avoid invalidating iterators
; 1237 :     }

  000de	c9		 leave
  000df	c2 08 00	 ret	 8
??$_Resize@U_Value_init_tag@std@@@?$vector@UD3DXVECTOR3@@V?$allocator@UD3DXVECTOR3@@@std@@@std@@AAEXIABU_Value_init_tag@1@@Z ENDP ; std::vector<D3DXVECTOR3,std::allocator<D3DXVECTOR3> >::_Resize<std::_Value_init_tag>
_TEXT	ENDS
; Function compile flags: /Odspy
;	COMDAT ??_GCD3DXMeshRenderingOption@@UAEPAXI@Z
_TEXT	SEGMENT
_this$ = -4						; size = 4
___flags$ = 8						; size = 4
??_GCD3DXMeshRenderingOption@@UAEPAXI@Z PROC		; CD3DXMeshRenderingOption::`scalar deleting destructor', COMDAT
; _this$ = ecx
  00000	55		 push	 ebp
  00001	8b ec		 mov	 ebp, esp
  00003	51		 push	 ecx
  00004	89 4d fc	 mov	 DWORD PTR _this$[ebp], ecx
  00007	8b 4d fc	 mov	 ecx, DWORD PTR _this$[ebp]
  0000a	e8 00 00 00 00	 call	 ??1CD3DXMeshRenderingOption@@UAE@XZ ; CD3DXMeshRenderingOption::~CD3DXMeshRenderingOption
  0000f	8b 45 08	 mov	 eax, DWORD PTR ___flags$[ebp]
  00012	83 e0 01	 and	 eax, 1
  00015	74 0c		 je	 SHORT $LN2@scalar
  00017	6a 08		 push	 8
  00019	ff 75 fc	 push	 DWORD PTR _this$[ebp]
  0001c	e8 00 00 00 00	 call	 ??3@YAXPAXI@Z		; operator delete
  00021	59		 pop	 ecx
  00022	59		 pop	 ecx
$LN2@scalar:
  00023	8b 45 fc	 mov	 eax, DWORD PTR _this$[ebp]
  00026	c9		 leave
  00027	c2 04 00	 ret	 4
??_GCD3DXMeshRenderingOption@@UAEPAXI@Z ENDP		; CD3DXMeshRenderingOption::`scalar deleting destructor'
_TEXT	ENDS
; Function compile flags: /Odspy
; File D:\Metin2 Server Files\mainline\SRC_2014\Metin2Client\EterLib\GrpScreen.cpp
;	COMDAT ??1CD3DXMeshRenderingOption@@UAE@XZ
_TEXT	SEGMENT
_this$ = -16						; size = 4
__$EHRec$ = -12						; size = 12
??1CD3DXMeshRenderingOption@@UAE@XZ PROC		; CD3DXMeshRenderingOption::~CD3DXMeshRenderingOption, COMDAT
; _this$ = ecx

; 331  : 	{

  00000	55		 push	 ebp
  00001	8b ec		 mov	 ebp, esp
  00003	6a ff		 push	 -1
  00005	68 00 00 00 00	 push	 __ehhandler$??1CD3DXMeshRenderingOption@@UAE@XZ
  0000a	64 a1 00 00 00
	00		 mov	 eax, DWORD PTR fs:0
  00010	50		 push	 eax
  00011	51		 push	 ecx
  00012	a1 00 00 00 00	 mov	 eax, DWORD PTR ___security_cookie
  00017	33 c5		 xor	 eax, ebp
  00019	50		 push	 eax
  0001a	8d 45 f4	 lea	 eax, DWORD PTR __$EHRec$[ebp]
  0001d	64 a3 00 00 00
	00		 mov	 DWORD PTR fs:0, eax
  00023	89 4d f0	 mov	 DWORD PTR _this$[ebp], ecx
  00026	8b 45 f0	 mov	 eax, DWORD PTR _this$[ebp]
  00029	c7 00 00 00 00
	00		 mov	 DWORD PTR [eax], OFFSET ??_7CD3DXMeshRenderingOption@@6B@

; 332  : 		ms_lpd3dDevice->SetVertexShader(m_dwVS);

  0002f	8b 45 f0	 mov	 eax, DWORD PTR _this$[ebp]
  00032	ff 70 04	 push	 DWORD PTR [eax+4]
  00035	a1 00 00 00 00	 mov	 eax, DWORD PTR ?ms_lpd3dDevice@CGraphicBase@@1PAUIDirect3DDevice8@@A ; CGraphicBase::ms_lpd3dDevice
  0003a	8b 00		 mov	 eax, DWORD PTR [eax]
  0003c	ff 35 00 00 00
	00		 push	 DWORD PTR ?ms_lpd3dDevice@CGraphicBase@@1PAUIDirect3DDevice8@@A ; CGraphicBase::ms_lpd3dDevice
  00042	ff 90 30 01 00
	00		 call	 DWORD PTR [eax+304]

; 333  : 
; 334  : 		STATEMANAGER.RestoreTransform(D3DTS_WORLD);

  00048	68 00 01 00 00	 push	 256			; 00000100H
  0004d	8b 0d 00 00 00
	00		 mov	 ecx, DWORD PTR ?ms_singleton@?$CSingleton@VCStateManager@@@@0PAVCStateManager@@A ; CSingleton<CStateManager>::ms_singleton
  00053	e8 00 00 00 00	 call	 ?RestoreTransform@CStateManager@@QAEXW4_D3DTRANSFORMSTATETYPE@@@Z ; CStateManager::RestoreTransform

; 335  : 		STATEMANAGER.RestoreTextureStageState(0, D3DTSS_COLORARG1);

  00058	6a 02		 push	 2
  0005a	6a 00		 push	 0
  0005c	8b 0d 00 00 00
	00		 mov	 ecx, DWORD PTR ?ms_singleton@?$CSingleton@VCStateManager@@@@0PAVCStateManager@@A ; CSingleton<CStateManager>::ms_singleton
  00062	e8 00 00 00 00	 call	 ?RestoreTextureStageState@CStateManager@@QAEXKW4_D3DTEXTURESTAGESTATETYPE@@@Z ; CStateManager::RestoreTextureStageState

; 336  : 		STATEMANAGER.RestoreTextureStageState(0, D3DTSS_COLOROP);

  00067	6a 01		 push	 1
  00069	6a 00		 push	 0
  0006b	8b 0d 00 00 00
	00		 mov	 ecx, DWORD PTR ?ms_singleton@?$CSingleton@VCStateManager@@@@0PAVCStateManager@@A ; CSingleton<CStateManager>::ms_singleton
  00071	e8 00 00 00 00	 call	 ?RestoreTextureStageState@CStateManager@@QAEXKW4_D3DTEXTURESTAGESTATETYPE@@@Z ; CStateManager::RestoreTextureStageState

; 337  : 		STATEMANAGER.RestoreTextureStageState(0, D3DTSS_ALPHAOP);

  00076	6a 04		 push	 4
  00078	6a 00		 push	 0
  0007a	8b 0d 00 00 00
	00		 mov	 ecx, DWORD PTR ?ms_singleton@?$CSingleton@VCStateManager@@@@0PAVCStateManager@@A ; CSingleton<CStateManager>::ms_singleton
  00080	e8 00 00 00 00	 call	 ?RestoreTextureStageState@CStateManager@@QAEXKW4_D3DTEXTURESTAGESTATETYPE@@@Z ; CStateManager::RestoreTextureStageState

; 338  : 		STATEMANAGER.SetRenderState(D3DRS_FILLMODE, D3DFILL_SOLID);

  00085	6a 03		 push	 3
  00087	6a 08		 push	 8
  00089	8b 0d 00 00 00
	00		 mov	 ecx, DWORD PTR ?ms_singleton@?$CSingleton@VCStateManager@@@@0PAVCStateManager@@A ; CSingleton<CStateManager>::ms_singleton
  0008f	e8 00 00 00 00	 call	 ?SetRenderState@CStateManager@@QAEXW4_D3DRENDERSTATETYPE@@K@Z ; CStateManager::SetRenderState

; 339  : 	}

  00094	8b 4d f0	 mov	 ecx, DWORD PTR _this$[ebp]
  00097	e8 00 00 00 00	 call	 ??1CScreen@@UAE@XZ	; CScreen::~CScreen
  0009c	8b 4d f4	 mov	 ecx, DWORD PTR __$EHRec$[ebp]
  0009f	64 89 0d 00 00
	00 00		 mov	 DWORD PTR fs:0, ecx
  000a6	59		 pop	 ecx
  000a7	c9		 leave
  000a8	c3		 ret	 0
  000a9	cc		 int	 3
  000aa	cc		 int	 3
  000ab	cc		 int	 3
  000ac	cc		 int	 3
  000ad	cc		 int	 3
_TEXT	ENDS
;	COMDAT text$x
text$x	SEGMENT
__ehhandler$??1CD3DXMeshRenderingOption@@UAE@XZ:
  00000	90		 npad	 1
  00001	90		 npad	 1
  00002	8b 54 24 08	 mov	 edx, DWORD PTR [esp+8]
  00006	8d 42 0c	 lea	 eax, DWORD PTR [edx+12]
  00009	8b 4a f8	 mov	 ecx, DWORD PTR [edx-8]
  0000c	33 c8		 xor	 ecx, eax
  0000e	e8 00 00 00 00	 call	 @__security_check_cookie@4
  00013	b8 00 00 00 00	 mov	 eax, OFFSET __ehfuncinfo$??1CD3DXMeshRenderingOption@@UAE@XZ
  00018	e9 00 00 00 00	 jmp	 ___CxxFrameHandler3
text$x	ENDS
??1CD3DXMeshRenderingOption@@UAE@XZ ENDP		; CD3DXMeshRenderingOption::~CD3DXMeshRenderingOption
; Function compile flags: /Odspy
; File D:\Metin2 Server Files\mainline\SRC_2014\Metin2Client\EterLib\GrpScreen.cpp
;	COMDAT ??0CD3DXMeshRenderingOption@@QAE@W4_D3DFILLMODE@@ABUD3DXMATRIX@@@Z
_TEXT	SEGMENT
_this$ = -16						; size = 4
__$EHRec$ = -12						; size = 12
_d3dFillMode$ = 8					; size = 4
_c_rmatWorld$ = 12					; size = 4
??0CD3DXMeshRenderingOption@@QAE@W4_D3DFILLMODE@@ABUD3DXMATRIX@@@Z PROC ; CD3DXMeshRenderingOption::CD3DXMeshRenderingOption, COMDAT
; _this$ = ecx

; 316  : 	CD3DXMeshRenderingOption(D3DFILLMODE d3dFillMode, const D3DXMATRIX & c_rmatWorld)

  00000	55		 push	 ebp
  00001	8b ec		 mov	 ebp, esp
  00003	6a ff		 push	 -1
  00005	68 00 00 00 00	 push	 __ehhandler$??0CD3DXMeshRenderingOption@@QAE@W4_D3DFILLMODE@@ABUD3DXMATRIX@@@Z
  0000a	64 a1 00 00 00
	00		 mov	 eax, DWORD PTR fs:0
  00010	50		 push	 eax
  00011	51		 push	 ecx
  00012	a1 00 00 00 00	 mov	 eax, DWORD PTR ___security_cookie
  00017	33 c5		 xor	 eax, ebp
  00019	50		 push	 eax
  0001a	8d 45 f4	 lea	 eax, DWORD PTR __$EHRec$[ebp]
  0001d	64 a3 00 00 00
	00		 mov	 DWORD PTR fs:0, eax
  00023	89 4d f0	 mov	 DWORD PTR _this$[ebp], ecx
  00026	8b 4d f0	 mov	 ecx, DWORD PTR _this$[ebp]
  00029	e8 00 00 00 00	 call	 ??0CScreen@@QAE@XZ	; CScreen::CScreen
  0002e	83 65 fc 00	 and	 DWORD PTR __$EHRec$[ebp+8], 0
  00032	8b 45 f0	 mov	 eax, DWORD PTR _this$[ebp]
  00035	c7 00 00 00 00
	00		 mov	 DWORD PTR [eax], OFFSET ??_7CD3DXMeshRenderingOption@@6B@

; 317  : 	{
; 318  : 		ms_lpd3dDevice->GetVertexShader(&m_dwVS);

  0003b	8b 45 f0	 mov	 eax, DWORD PTR _this$[ebp]
  0003e	83 c0 04	 add	 eax, 4
  00041	50		 push	 eax
  00042	a1 00 00 00 00	 mov	 eax, DWORD PTR ?ms_lpd3dDevice@CGraphicBase@@1PAUIDirect3DDevice8@@A ; CGraphicBase::ms_lpd3dDevice
  00047	8b 00		 mov	 eax, DWORD PTR [eax]
  00049	ff 35 00 00 00
	00		 push	 DWORD PTR ?ms_lpd3dDevice@CGraphicBase@@1PAUIDirect3DDevice8@@A ; CGraphicBase::ms_lpd3dDevice
  0004f	ff 90 34 01 00
	00		 call	 DWORD PTR [eax+308]

; 319  : 
; 320  : 		STATEMANAGER.SaveTextureStageState(0, D3DTSS_COLORARG1, D3DTA_TFACTOR);

  00055	6a 03		 push	 3
  00057	6a 02		 push	 2
  00059	6a 00		 push	 0
  0005b	8b 0d 00 00 00
	00		 mov	 ecx, DWORD PTR ?ms_singleton@?$CSingleton@VCStateManager@@@@0PAVCStateManager@@A ; CSingleton<CStateManager>::ms_singleton
  00061	e8 00 00 00 00	 call	 ?SaveTextureStageState@CStateManager@@QAEXKW4_D3DTEXTURESTAGESTATETYPE@@K@Z ; CStateManager::SaveTextureStageState

; 321  : 		STATEMANAGER.SaveTextureStageState(0, D3DTSS_COLOROP, D3DTOP_SELECTARG1);

  00066	6a 02		 push	 2
  00068	6a 01		 push	 1
  0006a	6a 00		 push	 0
  0006c	8b 0d 00 00 00
	00		 mov	 ecx, DWORD PTR ?ms_singleton@?$CSingleton@VCStateManager@@@@0PAVCStateManager@@A ; CSingleton<CStateManager>::ms_singleton
  00072	e8 00 00 00 00	 call	 ?SaveTextureStageState@CStateManager@@QAEXKW4_D3DTEXTURESTAGESTATETYPE@@K@Z ; CStateManager::SaveTextureStageState

; 322  : 		STATEMANAGER.SaveTextureStageState(0, D3DTSS_ALPHAOP, D3DTOP_DISABLE);

  00077	6a 01		 push	 1
  00079	6a 04		 push	 4
  0007b	6a 00		 push	 0
  0007d	8b 0d 00 00 00
	00		 mov	 ecx, DWORD PTR ?ms_singleton@?$CSingleton@VCStateManager@@@@0PAVCStateManager@@A ; CSingleton<CStateManager>::ms_singleton
  00083	e8 00 00 00 00	 call	 ?SaveTextureStageState@CStateManager@@QAEXKW4_D3DTEXTURESTAGESTATETYPE@@K@Z ; CStateManager::SaveTextureStageState

; 323  : 		STATEMANAGER.SetRenderState(D3DRS_FILLMODE, d3dFillMode);

  00088	ff 75 08	 push	 DWORD PTR _d3dFillMode$[ebp]
  0008b	6a 08		 push	 8
  0008d	8b 0d 00 00 00
	00		 mov	 ecx, DWORD PTR ?ms_singleton@?$CSingleton@VCStateManager@@@@0PAVCStateManager@@A ; CSingleton<CStateManager>::ms_singleton
  00093	e8 00 00 00 00	 call	 ?SetRenderState@CStateManager@@QAEXW4_D3DRENDERSTATETYPE@@K@Z ; CStateManager::SetRenderState

; 324  : 		STATEMANAGER.SaveTransform(D3DTS_WORLD, &c_rmatWorld);

  00098	ff 75 0c	 push	 DWORD PTR _c_rmatWorld$[ebp]
  0009b	68 00 01 00 00	 push	 256			; 00000100H
  000a0	8b 0d 00 00 00
	00		 mov	 ecx, DWORD PTR ?ms_singleton@?$CSingleton@VCStateManager@@@@0PAVCStateManager@@A ; CSingleton<CStateManager>::ms_singleton
  000a6	e8 00 00 00 00	 call	 ?SaveTransform@CStateManager@@QAEXW4_D3DTRANSFORMSTATETYPE@@PBU_D3DMATRIX@@@Z ; CStateManager::SaveTransform

; 325  : 
; 326  : 		STATEMANAGER.SetTexture(0, NULL);

  000ab	6a 00		 push	 0
  000ad	6a 00		 push	 0
  000af	8b 0d 00 00 00
	00		 mov	 ecx, DWORD PTR ?ms_singleton@?$CSingleton@VCStateManager@@@@0PAVCStateManager@@A ; CSingleton<CStateManager>::ms_singleton
  000b5	e8 00 00 00 00	 call	 ?SetTexture@CStateManager@@QAEXKPAUIDirect3DBaseTexture8@@@Z ; CStateManager::SetTexture

; 327  : 		STATEMANAGER.SetTexture(1, NULL);

  000ba	6a 00		 push	 0
  000bc	6a 01		 push	 1
  000be	8b 0d 00 00 00
	00		 mov	 ecx, DWORD PTR ?ms_singleton@?$CSingleton@VCStateManager@@@@0PAVCStateManager@@A ; CSingleton<CStateManager>::ms_singleton
  000c4	e8 00 00 00 00	 call	 ?SetTexture@CStateManager@@QAEXKPAUIDirect3DBaseTexture8@@@Z ; CStateManager::SetTexture

; 328  : 	}

  000c9	83 4d fc ff	 or	 DWORD PTR __$EHRec$[ebp+8], -1
  000cd	8b 45 f0	 mov	 eax, DWORD PTR _this$[ebp]
  000d0	8b 4d f4	 mov	 ecx, DWORD PTR __$EHRec$[ebp]
  000d3	64 89 0d 00 00
	00 00		 mov	 DWORD PTR fs:0, ecx
  000da	59		 pop	 ecx
  000db	c9		 leave
  000dc	c2 08 00	 ret	 8
_TEXT	ENDS
;	COMDAT text$x
text$x	SEGMENT
__unwindfunclet$??0CD3DXMeshRenderingOption@@QAE@W4_D3DFILLMODE@@ABUD3DXMATRIX@@@Z$0:
  00000	8b 4d f0	 mov	 ecx, DWORD PTR _this$[ebp]
  00003	e9 00 00 00 00	 jmp	 ??1CScreen@@UAE@XZ	; CScreen::~CScreen
  00008	cc		 int	 3
  00009	cc		 int	 3
  0000a	cc		 int	 3
  0000b	cc		 int	 3
  0000c	cc		 int	 3
__ehhandler$??0CD3DXMeshRenderingOption@@QAE@W4_D3DFILLMODE@@ABUD3DXMATRIX@@@Z:
  0000d	90		 npad	 1
  0000e	90		 npad	 1
  0000f	8b 54 24 08	 mov	 edx, DWORD PTR [esp+8]
  00013	8d 42 0c	 lea	 eax, DWORD PTR [edx+12]
  00016	8b 4a f8	 mov	 ecx, DWORD PTR [edx-8]
  00019	33 c8		 xor	 ecx, eax
  0001b	e8 00 00 00 00	 call	 @__security_check_cookie@4
  00020	b8 00 00 00 00	 mov	 eax, OFFSET __ehfuncinfo$??0CD3DXMeshRenderingOption@@QAE@W4_D3DFILLMODE@@ABUD3DXMATRIX@@@Z
  00025	e9 00 00 00 00	 jmp	 ___CxxFrameHandler3
text$x	ENDS
??0CD3DXMeshRenderingOption@@QAE@W4_D3DFILLMODE@@ABUD3DXMATRIX@@@Z ENDP ; CD3DXMeshRenderingOption::CD3DXMeshRenderingOption
; Function compile flags: /Odspy
; File C:\Program Files (x86)\Microsoft Visual Studio\2019\Community\VC\Tools\MSVC\14.28.29333\include\vector
;	COMDAT ??0?$_Vector_val@U?$_Simple_types@UD3DXVECTOR3@@@std@@@std@@QAE@XZ
_TEXT	SEGMENT
_this$ = -4						; size = 4
??0?$_Vector_val@U?$_Simple_types@UD3DXVECTOR3@@@std@@@std@@QAE@XZ PROC ; std::_Vector_val<std::_Simple_types<D3DXVECTOR3> >::_Vector_val<std::_Simple_types<D3DXVECTOR3> >, COMDAT
; _this$ = ecx

; 375  :     _Vector_val() noexcept : _Myfirst(), _Mylast(), _Myend() {}

  00000	55		 push	 ebp
  00001	8b ec		 mov	 ebp, esp
  00003	51		 push	 ecx
  00004	89 4d fc	 mov	 DWORD PTR _this$[ebp], ecx
  00007	8b 45 fc	 mov	 eax, DWORD PTR _this$[ebp]
  0000a	83 20 00	 and	 DWORD PTR [eax], 0
  0000d	8b 45 fc	 mov	 eax, DWORD PTR _this$[ebp]
  00010	83 60 04 00	 and	 DWORD PTR [eax+4], 0
  00014	8b 45 fc	 mov	 eax, DWORD PTR _this$[ebp]
  00017	83 60 08 00	 and	 DWORD PTR [eax+8], 0
  0001b	8b 45 fc	 mov	 eax, DWORD PTR _this$[ebp]
  0001e	c9		 leave
  0001f	c3		 ret	 0
??0?$_Vector_val@U?$_Simple_types@UD3DXVECTOR3@@@std@@@std@@QAE@XZ ENDP ; std::_Vector_val<std::_Simple_types<D3DXVECTOR3> >::_Vector_val<std::_Simple_types<D3DXVECTOR3> >
_TEXT	ENDS
; Function compile flags: /Odspy
; File C:\Program Files (x86)\Microsoft Visual Studio\2019\Community\VC\Tools\MSVC\14.28.29333\include\vector
; File C:\Program Files (x86)\Microsoft Visual Studio\2019\Community\VC\Tools\MSVC\14.28.29333\include\xmemory
; File C:\Program Files (x86)\Microsoft Visual Studio\2019\Community\VC\Tools\MSVC\14.28.29333\include\vector
;	COMDAT ?_Getal@?$vector@UD3DXVECTOR3@@V?$allocator@UD3DXVECTOR3@@@std@@@std@@AAEAAV?$allocator@UD3DXVECTOR3@@@2@XZ
_TEXT	SEGMENT
$T1 = -8						; size = 4
_this$ = -4						; size = 4
?_Getal@?$vector@UD3DXVECTOR3@@V?$allocator@UD3DXVECTOR3@@@std@@@std@@AAEAAV?$allocator@UD3DXVECTOR3@@@2@XZ PROC ; std::vector<D3DXVECTOR3,std::allocator<D3DXVECTOR3> >::_Getal, COMDAT
; _this$ = ecx

; 1732 :     _Alty& _Getal() noexcept {

  00000	55		 push	 ebp
  00001	8b ec		 mov	 ebp, esp
  00003	51		 push	 ecx
  00004	51		 push	 ecx
  00005	89 4d fc	 mov	 DWORD PTR _this$[ebp], ecx

; 1733 :         return _Mypair._Get_first();

  00008	8b 45 fc	 mov	 eax, DWORD PTR _this$[ebp]
; File C:\Program Files (x86)\Microsoft Visual Studio\2019\Community\VC\Tools\MSVC\14.28.29333\include\xmemory

; 1347 :         return *this;

  0000b	89 45 f8	 mov	 DWORD PTR $T1[ebp], eax
; File C:\Program Files (x86)\Microsoft Visual Studio\2019\Community\VC\Tools\MSVC\14.28.29333\include\vector

; 1733 :         return _Mypair._Get_first();

  0000e	8b 45 f8	 mov	 eax, DWORD PTR $T1[ebp]

; 1734 :     }

  00011	c9		 leave
  00012	c3		 ret	 0
?_Getal@?$vector@UD3DXVECTOR3@@V?$allocator@UD3DXVECTOR3@@@std@@@std@@AAEAAV?$allocator@UD3DXVECTOR3@@@2@XZ ENDP ; std::vector<D3DXVECTOR3,std::allocator<D3DXVECTOR3> >::_Getal
_TEXT	ENDS
; Function compile flags: /Odspy
; File C:\Program Files (x86)\Microsoft Visual Studio\2019\Community\VC\Tools\MSVC\14.28.29333\include\vector
;	COMDAT ?_Xlength@?$vector@UD3DXVECTOR3@@V?$allocator@UD3DXVECTOR3@@@std@@@std@@CAXXZ
_TEXT	SEGMENT
?_Xlength@?$vector@UD3DXVECTOR3@@V?$allocator@UD3DXVECTOR3@@@std@@@std@@CAXXZ PROC ; std::vector<D3DXVECTOR3,std::allocator<D3DXVECTOR3> >::_Xlength, COMDAT

; 1704 :     [[noreturn]] static void _Xlength() {

  00000	55		 push	 ebp
  00001	8b ec		 mov	 ebp, esp

; 1705 :         _Xlength_error("vector too long");

  00003	68 00 00 00 00	 push	 OFFSET ??_C@_0BA@FOIKENOD@vector?5too?5long@
  00008	e8 00 00 00 00	 call	 ?_Xlength_error@std@@YAXPBD@Z ; std::_Xlength_error
$LN2@Xlength:

; 1706 :     }

  0000d	5d		 pop	 ebp
  0000e	c3		 ret	 0
?_Xlength@?$vector@UD3DXVECTOR3@@V?$allocator@UD3DXVECTOR3@@@std@@@std@@CAXXZ ENDP ; std::vector<D3DXVECTOR3,std::allocator<D3DXVECTOR3> >::_Xlength
_TEXT	ENDS
; Function compile flags: /Odspy
; File C:\Program Files (x86)\Microsoft Visual Studio\2019\Community\VC\Tools\MSVC\14.28.29333\include\vector
; File C:\Program Files (x86)\Microsoft Visual Studio\2019\Community\VC\Tools\MSVC\14.28.29333\include\xmemory
; File C:\Program Files (x86)\Microsoft Visual Studio\2019\Community\VC\Tools\MSVC\14.28.29333\include\vector
; File C:\Program Files (x86)\Microsoft Visual Studio\2019\Community\VC\Tools\MSVC\14.28.29333\include\xmemory
; File C:\Program Files (x86)\Microsoft Visual Studio\2019\Community\VC\Tools\MSVC\14.28.29333\include\vector
; File C:\Program Files (x86)\Microsoft Visual Studio\2019\Community\VC\Tools\MSVC\14.28.29333\include\xmemory
; File C:\Program Files (x86)\Microsoft Visual Studio\2019\Community\VC\Tools\MSVC\14.28.29333\include\vector
;	COMDAT ?_Tidy@?$vector@UD3DXVECTOR3@@V?$allocator@UD3DXVECTOR3@@@std@@@std@@AAEXXZ
_TEXT	SEGMENT
$T1 = -52						; size = 4
__Ptr$ = -48						; size = 4
__Count$ = -44						; size = 4
$T2 = -40						; size = 4
__First$ = -36						; size = 4
__Last$ = -32						; size = 4
$T3 = -28						; size = 4
$T4 = -24						; size = 4
__Myend$ = -20						; size = 4
__Mylast$ = -16						; size = 4
_this$ = -12						; size = 4
__My_data$ = -8						; size = 4
__Myfirst$ = -4						; size = 4
?_Tidy@?$vector@UD3DXVECTOR3@@V?$allocator@UD3DXVECTOR3@@@std@@@std@@AAEXXZ PROC ; std::vector<D3DXVECTOR3,std::allocator<D3DXVECTOR3> >::_Tidy, COMDAT
; _this$ = ecx

; 1686 :     void _Tidy() noexcept { // free all storage

  00000	55		 push	 ebp
  00001	8b ec		 mov	 ebp, esp
  00003	83 ec 34	 sub	 esp, 52			; 00000034H
  00006	89 4d f4	 mov	 DWORD PTR _this$[ebp], ecx

; 1687 :         auto& _My_data    = _Mypair._Myval2;

  00009	8b 45 f4	 mov	 eax, DWORD PTR _this$[ebp]
  0000c	89 45 f8	 mov	 DWORD PTR __My_data$[ebp], eax

; 1688 :         pointer& _Myfirst = _My_data._Myfirst;

  0000f	8b 45 f8	 mov	 eax, DWORD PTR __My_data$[ebp]
  00012	89 45 fc	 mov	 DWORD PTR __Myfirst$[ebp], eax

; 1689 :         pointer& _Mylast  = _My_data._Mylast;

  00015	8b 45 f8	 mov	 eax, DWORD PTR __My_data$[ebp]
  00018	83 c0 04	 add	 eax, 4
  0001b	89 45 f0	 mov	 DWORD PTR __Mylast$[ebp], eax

; 1690 :         pointer& _Myend   = _My_data._Myend;

  0001e	8b 45 f8	 mov	 eax, DWORD PTR __My_data$[ebp]
  00021	83 c0 08	 add	 eax, 8
  00024	89 45 ec	 mov	 DWORD PTR __Myend$[ebp], eax

; 1691 : 
; 1692 :         _My_data._Orphan_all();
; 1693 : 
; 1694 :         if (_Myfirst) { // destroy and deallocate old array

  00027	8b 45 fc	 mov	 eax, DWORD PTR __Myfirst$[ebp]
  0002a	83 38 00	 cmp	 DWORD PTR [eax], 0
  0002d	74 75		 je	 SHORT $LN3@Tidy

; 1695 :             _Destroy(_Myfirst, _Mylast);

  0002f	8b 45 f0	 mov	 eax, DWORD PTR __Mylast$[ebp]
  00032	8b 00		 mov	 eax, DWORD PTR [eax]
  00034	89 45 e0	 mov	 DWORD PTR __Last$[ebp], eax
  00037	8b 45 fc	 mov	 eax, DWORD PTR __Myfirst$[ebp]
  0003a	8b 00		 mov	 eax, DWORD PTR [eax]
  0003c	89 45 dc	 mov	 DWORD PTR __First$[ebp], eax

; 1733 :         return _Mypair._Get_first();

  0003f	8b 45 f4	 mov	 eax, DWORD PTR _this$[ebp]
; File C:\Program Files (x86)\Microsoft Visual Studio\2019\Community\VC\Tools\MSVC\14.28.29333\include\xmemory

; 1347 :         return *this;

  00042	89 45 e8	 mov	 DWORD PTR $T4[ebp], eax
; File C:\Program Files (x86)\Microsoft Visual Studio\2019\Community\VC\Tools\MSVC\14.28.29333\include\vector

; 1733 :         return _Mypair._Get_first();

  00045	8b 45 e8	 mov	 eax, DWORD PTR $T4[ebp]
  00048	89 45 e4	 mov	 DWORD PTR $T3[ebp], eax

; 1612 :         _Destroy_range(_First, _Last, _Getal());

  0004b	ff 75 e4	 push	 DWORD PTR $T3[ebp]
  0004e	ff 75 e0	 push	 DWORD PTR __Last$[ebp]
  00051	ff 75 dc	 push	 DWORD PTR __First$[ebp]
  00054	e8 00 00 00 00	 call	 ??$_Destroy_range@V?$allocator@UD3DXVECTOR3@@@std@@@std@@YAXPAUD3DXVECTOR3@@QAU1@AAV?$allocator@UD3DXVECTOR3@@@0@@Z ; std::_Destroy_range<std::allocator<D3DXVECTOR3> >
  00059	83 c4 0c	 add	 esp, 12			; 0000000cH

; 1733 :         return _Mypair._Get_first();

  0005c	8b 45 f4	 mov	 eax, DWORD PTR _this$[ebp]
; File C:\Program Files (x86)\Microsoft Visual Studio\2019\Community\VC\Tools\MSVC\14.28.29333\include\xmemory

; 1347 :         return *this;

  0005f	89 45 d8	 mov	 DWORD PTR $T2[ebp], eax
; File C:\Program Files (x86)\Microsoft Visual Studio\2019\Community\VC\Tools\MSVC\14.28.29333\include\vector

; 1733 :         return _Mypair._Get_first();

  00062	8b 45 d8	 mov	 eax, DWORD PTR $T2[ebp]
  00065	89 45 cc	 mov	 DWORD PTR $T1[ebp], eax

; 1696 :             _Getal().deallocate(_Myfirst, static_cast<size_type>(_Myend - _Myfirst));

  00068	8b 45 ec	 mov	 eax, DWORD PTR __Myend$[ebp]
  0006b	8b 4d fc	 mov	 ecx, DWORD PTR __Myfirst$[ebp]
  0006e	8b 00		 mov	 eax, DWORD PTR [eax]
  00070	2b 01		 sub	 eax, DWORD PTR [ecx]
  00072	99		 cdq
  00073	6a 0c		 push	 12			; 0000000cH
  00075	59		 pop	 ecx
  00076	f7 f9		 idiv	 ecx
  00078	89 45 d4	 mov	 DWORD PTR __Count$[ebp], eax
  0007b	8b 45 fc	 mov	 eax, DWORD PTR __Myfirst$[ebp]
  0007e	8b 00		 mov	 eax, DWORD PTR [eax]
  00080	89 45 d0	 mov	 DWORD PTR __Ptr$[ebp], eax
; File C:\Program Files (x86)\Microsoft Visual Studio\2019\Community\VC\Tools\MSVC\14.28.29333\include\xmemory

; 810  :         _Deallocate<_New_alignof<_Ty>>(_Ptr, sizeof(_Ty) * _Count);

  00083	6b 45 d4 0c	 imul	 eax, DWORD PTR __Count$[ebp], 12
  00087	50		 push	 eax
  00088	ff 75 d0	 push	 DWORD PTR __Ptr$[ebp]
  0008b	e8 00 00 00 00	 call	 ??$_Deallocate@$07$0A@@std@@YAXPAXI@Z ; std::_Deallocate<8,0>
  00090	59		 pop	 ecx
  00091	59		 pop	 ecx
; File C:\Program Files (x86)\Microsoft Visual Studio\2019\Community\VC\Tools\MSVC\14.28.29333\include\vector

; 1698 :             _Myfirst = pointer();

  00092	8b 45 fc	 mov	 eax, DWORD PTR __Myfirst$[ebp]
  00095	83 20 00	 and	 DWORD PTR [eax], 0

; 1699 :             _Mylast  = pointer();

  00098	8b 45 f0	 mov	 eax, DWORD PTR __Mylast$[ebp]
  0009b	83 20 00	 and	 DWORD PTR [eax], 0

; 1700 :             _Myend   = pointer();

  0009e	8b 45 ec	 mov	 eax, DWORD PTR __Myend$[ebp]
  000a1	83 20 00	 and	 DWORD PTR [eax], 0
$LN3@Tidy:

; 1701 :         }
; 1702 :     }

  000a4	c9		 leave
  000a5	c3		 ret	 0
?_Tidy@?$vector@UD3DXVECTOR3@@V?$allocator@UD3DXVECTOR3@@@std@@@std@@AAEXXZ ENDP ; std::vector<D3DXVECTOR3,std::allocator<D3DXVECTOR3> >::_Tidy
_TEXT	ENDS
; Function compile flags: /Odspy
; File C:\Program Files (x86)\Microsoft Visual Studio\2019\Community\VC\Tools\MSVC\14.28.29333\include\vector
; File C:\Program Files (x86)\Microsoft Visual Studio\2019\Community\VC\Tools\MSVC\14.28.29333\include\xmemory
; File C:\Program Files (x86)\Microsoft Visual Studio\2019\Community\VC\Tools\MSVC\14.28.29333\include\vector
; File C:\Program Files (x86)\Microsoft Visual Studio\2019\Community\VC\Tools\MSVC\14.28.29333\include\xmemory
; File C:\Program Files (x86)\Microsoft Visual Studio\2019\Community\VC\Tools\MSVC\14.28.29333\include\vector
; File C:\Program Files (x86)\Microsoft Visual Studio\2019\Community\VC\Tools\MSVC\14.28.29333\include\xmemory
; File C:\Program Files (x86)\Microsoft Visual Studio\2019\Community\VC\Tools\MSVC\14.28.29333\include\vector
;	COMDAT ?_Change_array@?$vector@UD3DXVECTOR3@@V?$allocator@UD3DXVECTOR3@@@std@@@std@@AAEXQAUD3DXVECTOR3@@II@Z
_TEXT	SEGMENT
$T1 = -52						; size = 4
__Ptr$ = -48						; size = 4
__Count$ = -44						; size = 4
$T2 = -40						; size = 4
__First$ = -36						; size = 4
__Last$ = -32						; size = 4
$T3 = -28						; size = 4
$T4 = -24						; size = 4
__Myend$ = -20						; size = 4
__Mylast$ = -16						; size = 4
_this$ = -12						; size = 4
__My_data$ = -8						; size = 4
__Myfirst$ = -4						; size = 4
__Newvec$ = 8						; size = 4
__Newsize$ = 12						; size = 4
__Newcapacity$ = 16					; size = 4
?_Change_array@?$vector@UD3DXVECTOR3@@V?$allocator@UD3DXVECTOR3@@@std@@@std@@AAEXQAUD3DXVECTOR3@@II@Z PROC ; std::vector<D3DXVECTOR3,std::allocator<D3DXVECTOR3> >::_Change_array, COMDAT
; _this$ = ecx

; 1667 :     void _Change_array(const pointer _Newvec, const size_type _Newsize, const size_type _Newcapacity) {

  00000	55		 push	 ebp
  00001	8b ec		 mov	 ebp, esp
  00003	83 ec 34	 sub	 esp, 52			; 00000034H
  00006	89 4d f4	 mov	 DWORD PTR _this$[ebp], ecx

; 1668 :         // orphan all iterators, discard old array, acquire new array
; 1669 :         auto& _My_data    = _Mypair._Myval2;

  00009	8b 45 f4	 mov	 eax, DWORD PTR _this$[ebp]
  0000c	89 45 f8	 mov	 DWORD PTR __My_data$[ebp], eax

; 1670 :         pointer& _Myfirst = _My_data._Myfirst;

  0000f	8b 45 f8	 mov	 eax, DWORD PTR __My_data$[ebp]
  00012	89 45 fc	 mov	 DWORD PTR __Myfirst$[ebp], eax

; 1671 :         pointer& _Mylast  = _My_data._Mylast;

  00015	8b 45 f8	 mov	 eax, DWORD PTR __My_data$[ebp]
  00018	83 c0 04	 add	 eax, 4
  0001b	89 45 f0	 mov	 DWORD PTR __Mylast$[ebp], eax

; 1672 :         pointer& _Myend   = _My_data._Myend;

  0001e	8b 45 f8	 mov	 eax, DWORD PTR __My_data$[ebp]
  00021	83 c0 08	 add	 eax, 8
  00024	89 45 ec	 mov	 DWORD PTR __Myend$[ebp], eax

; 1673 : 
; 1674 :         _My_data._Orphan_all();
; 1675 : 
; 1676 :         if (_Myfirst) { // destroy and deallocate old array

  00027	8b 45 fc	 mov	 eax, DWORD PTR __Myfirst$[ebp]
  0002a	83 38 00	 cmp	 DWORD PTR [eax], 0
  0002d	74 63		 je	 SHORT $LN2@Change_arr

; 1677 :             _Destroy(_Myfirst, _Mylast);

  0002f	8b 45 f0	 mov	 eax, DWORD PTR __Mylast$[ebp]
  00032	8b 00		 mov	 eax, DWORD PTR [eax]
  00034	89 45 e0	 mov	 DWORD PTR __Last$[ebp], eax
  00037	8b 45 fc	 mov	 eax, DWORD PTR __Myfirst$[ebp]
  0003a	8b 00		 mov	 eax, DWORD PTR [eax]
  0003c	89 45 dc	 mov	 DWORD PTR __First$[ebp], eax

; 1733 :         return _Mypair._Get_first();

  0003f	8b 45 f4	 mov	 eax, DWORD PTR _this$[ebp]
; File C:\Program Files (x86)\Microsoft Visual Studio\2019\Community\VC\Tools\MSVC\14.28.29333\include\xmemory

; 1347 :         return *this;

  00042	89 45 e8	 mov	 DWORD PTR $T4[ebp], eax
; File C:\Program Files (x86)\Microsoft Visual Studio\2019\Community\VC\Tools\MSVC\14.28.29333\include\vector

; 1733 :         return _Mypair._Get_first();

  00045	8b 45 e8	 mov	 eax, DWORD PTR $T4[ebp]
  00048	89 45 e4	 mov	 DWORD PTR $T3[ebp], eax

; 1612 :         _Destroy_range(_First, _Last, _Getal());

  0004b	ff 75 e4	 push	 DWORD PTR $T3[ebp]
  0004e	ff 75 e0	 push	 DWORD PTR __Last$[ebp]
  00051	ff 75 dc	 push	 DWORD PTR __First$[ebp]
  00054	e8 00 00 00 00	 call	 ??$_Destroy_range@V?$allocator@UD3DXVECTOR3@@@std@@@std@@YAXPAUD3DXVECTOR3@@QAU1@AAV?$allocator@UD3DXVECTOR3@@@0@@Z ; std::_Destroy_range<std::allocator<D3DXVECTOR3> >
  00059	83 c4 0c	 add	 esp, 12			; 0000000cH

; 1733 :         return _Mypair._Get_first();

  0005c	8b 45 f4	 mov	 eax, DWORD PTR _this$[ebp]
; File C:\Program Files (x86)\Microsoft Visual Studio\2019\Community\VC\Tools\MSVC\14.28.29333\include\xmemory

; 1347 :         return *this;

  0005f	89 45 d8	 mov	 DWORD PTR $T2[ebp], eax
; File C:\Program Files (x86)\Microsoft Visual Studio\2019\Community\VC\Tools\MSVC\14.28.29333\include\vector

; 1733 :         return _Mypair._Get_first();

  00062	8b 45 d8	 mov	 eax, DWORD PTR $T2[ebp]
  00065	89 45 cc	 mov	 DWORD PTR $T1[ebp], eax

; 1678 :             _Getal().deallocate(_Myfirst, static_cast<size_type>(_Myend - _Myfirst));

  00068	8b 45 ec	 mov	 eax, DWORD PTR __Myend$[ebp]
  0006b	8b 4d fc	 mov	 ecx, DWORD PTR __Myfirst$[ebp]
  0006e	8b 00		 mov	 eax, DWORD PTR [eax]
  00070	2b 01		 sub	 eax, DWORD PTR [ecx]
  00072	99		 cdq
  00073	6a 0c		 push	 12			; 0000000cH
  00075	59		 pop	 ecx
  00076	f7 f9		 idiv	 ecx
  00078	89 45 d4	 mov	 DWORD PTR __Count$[ebp], eax
  0007b	8b 45 fc	 mov	 eax, DWORD PTR __Myfirst$[ebp]
  0007e	8b 00		 mov	 eax, DWORD PTR [eax]
  00080	89 45 d0	 mov	 DWORD PTR __Ptr$[ebp], eax
; File C:\Program Files (x86)\Microsoft Visual Studio\2019\Community\VC\Tools\MSVC\14.28.29333\include\xmemory

; 810  :         _Deallocate<_New_alignof<_Ty>>(_Ptr, sizeof(_Ty) * _Count);

  00083	6b 45 d4 0c	 imul	 eax, DWORD PTR __Count$[ebp], 12
  00087	50		 push	 eax
  00088	ff 75 d0	 push	 DWORD PTR __Ptr$[ebp]
  0008b	e8 00 00 00 00	 call	 ??$_Deallocate@$07$0A@@std@@YAXPAXI@Z ; std::_Deallocate<8,0>
  00090	59		 pop	 ecx
  00091	59		 pop	 ecx
$LN2@Change_arr:
; File C:\Program Files (x86)\Microsoft Visual Studio\2019\Community\VC\Tools\MSVC\14.28.29333\include\vector

; 1681 :         _Myfirst = _Newvec;

  00092	8b 45 fc	 mov	 eax, DWORD PTR __Myfirst$[ebp]
  00095	8b 4d 08	 mov	 ecx, DWORD PTR __Newvec$[ebp]
  00098	89 08		 mov	 DWORD PTR [eax], ecx

; 1682 :         _Mylast  = _Newvec + _Newsize;

  0009a	6b 45 0c 0c	 imul	 eax, DWORD PTR __Newsize$[ebp], 12
  0009e	03 45 08	 add	 eax, DWORD PTR __Newvec$[ebp]
  000a1	8b 4d f0	 mov	 ecx, DWORD PTR __Mylast$[ebp]
  000a4	89 01		 mov	 DWORD PTR [ecx], eax

; 1683 :         _Myend   = _Newvec + _Newcapacity;

  000a6	6b 45 10 0c	 imul	 eax, DWORD PTR __Newcapacity$[ebp], 12
  000aa	03 45 08	 add	 eax, DWORD PTR __Newvec$[ebp]
  000ad	8b 4d ec	 mov	 ecx, DWORD PTR __Myend$[ebp]
  000b0	89 01		 mov	 DWORD PTR [ecx], eax

; 1684 :     }

  000b2	c9		 leave
  000b3	c2 0c 00	 ret	 12			; 0000000cH
?_Change_array@?$vector@UD3DXVECTOR3@@V?$allocator@UD3DXVECTOR3@@@std@@@std@@AAEXQAUD3DXVECTOR3@@II@Z ENDP ; std::vector<D3DXVECTOR3,std::allocator<D3DXVECTOR3> >::_Change_array
_TEXT	ENDS
; Function compile flags: /Odspy
; File C:\Program Files (x86)\Microsoft Visual Studio\2019\Community\VC\Tools\MSVC\14.28.29333\include\vector
; File C:\Program Files (x86)\Microsoft Visual Studio\2019\Community\VC\Tools\MSVC\14.28.29333\include\xmemory
; File C:\Program Files (x86)\Microsoft Visual Studio\2019\Community\VC\Tools\MSVC\14.28.29333\include\vector
; File C:\Program Files (x86)\Microsoft Visual Studio\2019\Community\VC\Tools\MSVC\14.28.29333\include\xmemory
; File C:\Program Files (x86)\Microsoft Visual Studio\2019\Community\VC\Tools\MSVC\14.28.29333\include\limits
; File C:\Program Files (x86)\Microsoft Visual Studio\2019\Community\VC\Tools\MSVC\14.28.29333\include\vector
; File C:\Program Files (x86)\Microsoft Visual Studio\2019\Community\VC\Tools\MSVC\14.28.29333\include\utility
; File C:\Program Files (x86)\Microsoft Visual Studio\2019\Community\VC\Tools\MSVC\14.28.29333\include\vector
;	COMDAT ?_Calculate_growth@?$vector@UD3DXVECTOR3@@V?$allocator@UD3DXVECTOR3@@@std@@@std@@ABEII@Z
_TEXT	SEGMENT
$T1 = -52						; size = 4
$T2 = -48						; size = 4
$T3 = -44						; size = 4
$T4 = -40						; size = 4
$T5 = -36						; size = 4
__Geometric$ = -32					; size = 4
__Max$ = -28						; size = 4
tv82 = -24						; size = 4
$T6 = -20						; size = 4
$T7 = -16						; size = 4
_this$ = -12						; size = 4
__My_data$8 = -8					; size = 4
__Oldcapacity$ = -4					; size = 4
__Newsize$ = 8						; size = 4
?_Calculate_growth@?$vector@UD3DXVECTOR3@@V?$allocator@UD3DXVECTOR3@@@std@@@std@@ABEII@Z PROC ; std::vector<D3DXVECTOR3,std::allocator<D3DXVECTOR3> >::_Calculate_growth, COMDAT
; _this$ = ecx

; 1615 :     size_type _Calculate_growth(const size_type _Newsize) const {

  00000	55		 push	 ebp
  00001	8b ec		 mov	 ebp, esp
  00003	83 ec 34	 sub	 esp, 52			; 00000034H
  00006	89 4d f4	 mov	 DWORD PTR _this$[ebp], ecx

; 1493 :         auto& _My_data = _Mypair._Myval2;

  00009	8b 45 f4	 mov	 eax, DWORD PTR _this$[ebp]
  0000c	89 45 f8	 mov	 DWORD PTR __My_data$8[ebp], eax

; 1494 :         return static_cast<size_type>(_My_data._Myend - _My_data._Myfirst);

  0000f	8b 45 f8	 mov	 eax, DWORD PTR __My_data$8[ebp]
  00012	8b 4d f8	 mov	 ecx, DWORD PTR __My_data$8[ebp]
  00015	8b 40 08	 mov	 eax, DWORD PTR [eax+8]
  00018	2b 01		 sub	 eax, DWORD PTR [ecx]
  0001a	99		 cdq
  0001b	6a 0c		 push	 12			; 0000000cH
  0001d	59		 pop	 ecx
  0001e	f7 f9		 idiv	 ecx
  00020	89 45 fc	 mov	 DWORD PTR __Oldcapacity$[ebp], eax

; 1737 :         return _Mypair._Get_first();

  00023	8b 45 f4	 mov	 eax, DWORD PTR _this$[ebp]
; File C:\Program Files (x86)\Microsoft Visual Studio\2019\Community\VC\Tools\MSVC\14.28.29333\include\xmemory

; 1351 :         return *this;

  00026	89 45 dc	 mov	 DWORD PTR $T5[ebp], eax
; File C:\Program Files (x86)\Microsoft Visual Studio\2019\Community\VC\Tools\MSVC\14.28.29333\include\vector

; 1737 :         return _Mypair._Get_first();

  00029	8b 45 dc	 mov	 eax, DWORD PTR $T5[ebp]
  0002c	89 45 cc	 mov	 DWORD PTR $T1[ebp], eax
; File C:\Program Files (x86)\Microsoft Visual Studio\2019\Community\VC\Tools\MSVC\14.28.29333\include\xmemory

; 710  :         return static_cast<size_t>(-1) / sizeof(value_type);

  0002f	c7 45 f0 55 55
	55 15		 mov	 DWORD PTR $T7[ebp], 357913941 ; 15555555H
; File C:\Program Files (x86)\Microsoft Visual Studio\2019\Community\VC\Tools\MSVC\14.28.29333\include\limits

; 557  :         return INT_MAX;

  00036	c7 45 d8 ff ff
	ff 7f		 mov	 DWORD PTR $T4[ebp], 2147483647 ; 7fffffffH
; File C:\Program Files (x86)\Microsoft Visual Studio\2019\Community\VC\Tools\MSVC\14.28.29333\include\vector

; 1488 :         return (_STD min)(

  0003d	8b 45 d8	 mov	 eax, DWORD PTR $T4[ebp]
  00040	89 45 ec	 mov	 DWORD PTR $T6[ebp], eax
; File C:\Program Files (x86)\Microsoft Visual Studio\2019\Community\VC\Tools\MSVC\14.28.29333\include\utility

; 68   :     return _Right < _Left ? _Right : _Left;

  00043	8b 45 f0	 mov	 eax, DWORD PTR $T7[ebp]
  00046	3b 45 ec	 cmp	 eax, DWORD PTR $T6[ebp]
  00049	73 08		 jae	 SHORT $LN25@Calculate_
  0004b	8d 45 f0	 lea	 eax, DWORD PTR $T7[ebp]
  0004e	89 45 e8	 mov	 DWORD PTR tv82[ebp], eax
  00051	eb 06		 jmp	 SHORT $LN26@Calculate_
$LN25@Calculate_:
  00053	8d 45 ec	 lea	 eax, DWORD PTR $T6[ebp]
  00056	89 45 e8	 mov	 DWORD PTR tv82[ebp], eax
$LN26@Calculate_:
  00059	8b 45 e8	 mov	 eax, DWORD PTR tv82[ebp]
  0005c	89 45 d4	 mov	 DWORD PTR $T3[ebp], eax
  0005f	8b 45 d4	 mov	 eax, DWORD PTR $T3[ebp]
  00062	89 45 d0	 mov	 DWORD PTR $T2[ebp], eax
; File C:\Program Files (x86)\Microsoft Visual Studio\2019\Community\VC\Tools\MSVC\14.28.29333\include\vector

; 1488 :         return (_STD min)(

  00065	8b 45 d0	 mov	 eax, DWORD PTR $T2[ebp]
  00068	8b 00		 mov	 eax, DWORD PTR [eax]
  0006a	89 45 e4	 mov	 DWORD PTR __Max$[ebp], eax

; 1616 :         // given _Oldcapacity and _Newsize, calculate geometric growth
; 1617 :         const size_type _Oldcapacity = capacity();
; 1618 :         const auto _Max              = max_size();
; 1619 : 
; 1620 :         if (_Oldcapacity > _Max - _Oldcapacity / 2) {

  0006d	8b 45 fc	 mov	 eax, DWORD PTR __Oldcapacity$[ebp]
  00070	d1 e8		 shr	 eax, 1
  00072	8b 4d e4	 mov	 ecx, DWORD PTR __Max$[ebp]
  00075	2b c8		 sub	 ecx, eax
  00077	39 4d fc	 cmp	 DWORD PTR __Oldcapacity$[ebp], ecx
  0007a	76 05		 jbe	 SHORT $LN2@Calculate_

; 1621 :             return _Max; // geometric growth would overflow

  0007c	8b 45 e4	 mov	 eax, DWORD PTR __Max$[ebp]
  0007f	eb 1b		 jmp	 SHORT $LN1@Calculate_
$LN2@Calculate_:

; 1622 :         }
; 1623 : 
; 1624 :         const size_type _Geometric = _Oldcapacity + _Oldcapacity / 2;

  00081	8b 45 fc	 mov	 eax, DWORD PTR __Oldcapacity$[ebp]
  00084	d1 e8		 shr	 eax, 1
  00086	03 45 fc	 add	 eax, DWORD PTR __Oldcapacity$[ebp]
  00089	89 45 e0	 mov	 DWORD PTR __Geometric$[ebp], eax

; 1625 : 
; 1626 :         if (_Geometric < _Newsize) {

  0008c	8b 45 e0	 mov	 eax, DWORD PTR __Geometric$[ebp]
  0008f	3b 45 08	 cmp	 eax, DWORD PTR __Newsize$[ebp]
  00092	73 05		 jae	 SHORT $LN3@Calculate_

; 1627 :             return _Newsize; // geometric growth would be insufficient

  00094	8b 45 08	 mov	 eax, DWORD PTR __Newsize$[ebp]
  00097	eb 03		 jmp	 SHORT $LN1@Calculate_
$LN3@Calculate_:

; 1628 :         }
; 1629 : 
; 1630 :         return _Geometric; // geometric growth is sufficient

  00099	8b 45 e0	 mov	 eax, DWORD PTR __Geometric$[ebp]
$LN1@Calculate_:

; 1631 :     }

  0009c	c9		 leave
  0009d	c2 04 00	 ret	 4
?_Calculate_growth@?$vector@UD3DXVECTOR3@@V?$allocator@UD3DXVECTOR3@@@std@@@std@@ABEII@Z ENDP ; std::vector<D3DXVECTOR3,std::allocator<D3DXVECTOR3> >::_Calculate_growth
_TEXT	ENDS
; Function compile flags: /Odspy
; File C:\Program Files (x86)\Microsoft Visual Studio\2019\Community\VC\Tools\MSVC\14.28.29333\include\vector
; File C:\Program Files (x86)\Microsoft Visual Studio\2019\Community\VC\Tools\MSVC\14.28.29333\include\xmemory
; File C:\Program Files (x86)\Microsoft Visual Studio\2019\Community\VC\Tools\MSVC\14.28.29333\include\vector
;	COMDAT ?_Destroy@?$vector@UD3DXVECTOR3@@V?$allocator@UD3DXVECTOR3@@@std@@@std@@AAEXPAUD3DXVECTOR3@@0@Z
_TEXT	SEGMENT
$T1 = -12						; size = 4
$T2 = -8						; size = 4
_this$ = -4						; size = 4
__First$ = 8						; size = 4
__Last$ = 12						; size = 4
?_Destroy@?$vector@UD3DXVECTOR3@@V?$allocator@UD3DXVECTOR3@@@std@@@std@@AAEXPAUD3DXVECTOR3@@0@Z PROC ; std::vector<D3DXVECTOR3,std::allocator<D3DXVECTOR3> >::_Destroy, COMDAT
; _this$ = ecx

; 1611 :     void _Destroy(pointer _First, pointer _Last) { // destroy [_First, _Last) using allocator

  00000	55		 push	 ebp
  00001	8b ec		 mov	 ebp, esp
  00003	83 ec 0c	 sub	 esp, 12			; 0000000cH
  00006	89 4d fc	 mov	 DWORD PTR _this$[ebp], ecx

; 1733 :         return _Mypair._Get_first();

  00009	8b 45 fc	 mov	 eax, DWORD PTR _this$[ebp]
; File C:\Program Files (x86)\Microsoft Visual Studio\2019\Community\VC\Tools\MSVC\14.28.29333\include\xmemory

; 1347 :         return *this;

  0000c	89 45 f8	 mov	 DWORD PTR $T2[ebp], eax
; File C:\Program Files (x86)\Microsoft Visual Studio\2019\Community\VC\Tools\MSVC\14.28.29333\include\vector

; 1733 :         return _Mypair._Get_first();

  0000f	8b 45 f8	 mov	 eax, DWORD PTR $T2[ebp]
  00012	89 45 f4	 mov	 DWORD PTR $T1[ebp], eax

; 1612 :         _Destroy_range(_First, _Last, _Getal());

  00015	ff 75 f4	 push	 DWORD PTR $T1[ebp]
  00018	ff 75 0c	 push	 DWORD PTR __Last$[ebp]
  0001b	ff 75 08	 push	 DWORD PTR __First$[ebp]
  0001e	e8 00 00 00 00	 call	 ??$_Destroy_range@V?$allocator@UD3DXVECTOR3@@@std@@@std@@YAXPAUD3DXVECTOR3@@QAU1@AAV?$allocator@UD3DXVECTOR3@@@0@@Z ; std::_Destroy_range<std::allocator<D3DXVECTOR3> >
  00023	83 c4 0c	 add	 esp, 12			; 0000000cH

; 1613 :     }

  00026	c9		 leave
  00027	c2 08 00	 ret	 8
?_Destroy@?$vector@UD3DXVECTOR3@@V?$allocator@UD3DXVECTOR3@@@std@@@std@@AAEXPAUD3DXVECTOR3@@0@Z ENDP ; std::vector<D3DXVECTOR3,std::allocator<D3DXVECTOR3> >::_Destroy
_TEXT	ENDS
; Function compile flags: /Odspy
; File C:\Program Files (x86)\Microsoft Visual Studio\2019\Community\VC\Tools\MSVC\14.28.29333\include\vector
; File C:\Program Files (x86)\Microsoft Visual Studio\2019\Community\VC\Tools\MSVC\14.28.29333\include\xmemory
; File C:\Program Files (x86)\Microsoft Visual Studio\2019\Community\VC\Tools\MSVC\14.28.29333\include\vector
;	COMDAT ?clear@?$vector@UD3DXVECTOR3@@V?$allocator@UD3DXVECTOR3@@@std@@@std@@QAEXXZ
_TEXT	SEGMENT
__First$ = -32						; size = 4
__Last$ = -28						; size = 4
$T1 = -24						; size = 4
$T2 = -20						; size = 4
__Myfirst$ = -16					; size = 4
__Mylast$ = -12						; size = 4
_this$ = -8						; size = 4
__My_data$ = -4						; size = 4
?clear@?$vector@UD3DXVECTOR3@@V?$allocator@UD3DXVECTOR3@@@std@@@std@@QAEXXZ PROC ; std::vector<D3DXVECTOR3,std::allocator<D3DXVECTOR3> >::clear, COMDAT
; _this$ = ecx

; 1383 :     void clear() noexcept { // erase all

  00000	55		 push	 ebp
  00001	8b ec		 mov	 ebp, esp
  00003	83 ec 20	 sub	 esp, 32			; 00000020H
  00006	89 4d f8	 mov	 DWORD PTR _this$[ebp], ecx

; 1384 :         auto& _My_data    = _Mypair._Myval2;

  00009	8b 45 f8	 mov	 eax, DWORD PTR _this$[ebp]
  0000c	89 45 fc	 mov	 DWORD PTR __My_data$[ebp], eax

; 1385 :         pointer& _Myfirst = _My_data._Myfirst;

  0000f	8b 45 fc	 mov	 eax, DWORD PTR __My_data$[ebp]
  00012	89 45 f0	 mov	 DWORD PTR __Myfirst$[ebp], eax

; 1386 :         pointer& _Mylast  = _My_data._Mylast;

  00015	8b 45 fc	 mov	 eax, DWORD PTR __My_data$[ebp]
  00018	83 c0 04	 add	 eax, 4
  0001b	89 45 f4	 mov	 DWORD PTR __Mylast$[ebp], eax

; 1387 : 
; 1388 :         _My_data._Orphan_all();
; 1389 :         _Destroy(_Myfirst, _Mylast);

  0001e	8b 45 f4	 mov	 eax, DWORD PTR __Mylast$[ebp]
  00021	8b 00		 mov	 eax, DWORD PTR [eax]
  00023	89 45 e4	 mov	 DWORD PTR __Last$[ebp], eax
  00026	8b 45 f0	 mov	 eax, DWORD PTR __Myfirst$[ebp]
  00029	8b 00		 mov	 eax, DWORD PTR [eax]
  0002b	89 45 e0	 mov	 DWORD PTR __First$[ebp], eax

; 1733 :         return _Mypair._Get_first();

  0002e	8b 45 f8	 mov	 eax, DWORD PTR _this$[ebp]
; File C:\Program Files (x86)\Microsoft Visual Studio\2019\Community\VC\Tools\MSVC\14.28.29333\include\xmemory

; 1347 :         return *this;

  00031	89 45 ec	 mov	 DWORD PTR $T2[ebp], eax
; File C:\Program Files (x86)\Microsoft Visual Studio\2019\Community\VC\Tools\MSVC\14.28.29333\include\vector

; 1733 :         return _Mypair._Get_first();

  00034	8b 45 ec	 mov	 eax, DWORD PTR $T2[ebp]
  00037	89 45 e8	 mov	 DWORD PTR $T1[ebp], eax

; 1612 :         _Destroy_range(_First, _Last, _Getal());

  0003a	ff 75 e8	 push	 DWORD PTR $T1[ebp]
  0003d	ff 75 e4	 push	 DWORD PTR __Last$[ebp]
  00040	ff 75 e0	 push	 DWORD PTR __First$[ebp]
  00043	e8 00 00 00 00	 call	 ??$_Destroy_range@V?$allocator@UD3DXVECTOR3@@@std@@@std@@YAXPAUD3DXVECTOR3@@QAU1@AAV?$allocator@UD3DXVECTOR3@@@0@@Z ; std::_Destroy_range<std::allocator<D3DXVECTOR3> >
  00048	83 c4 0c	 add	 esp, 12			; 0000000cH

; 1390 :         _Mylast = _Myfirst;

  0004b	8b 45 f4	 mov	 eax, DWORD PTR __Mylast$[ebp]
  0004e	8b 4d f0	 mov	 ecx, DWORD PTR __Myfirst$[ebp]
  00051	8b 09		 mov	 ecx, DWORD PTR [ecx]
  00053	89 08		 mov	 DWORD PTR [eax], ecx

; 1391 :     }

  00055	c9		 leave
  00056	c3		 ret	 0
?clear@?$vector@UD3DXVECTOR3@@V?$allocator@UD3DXVECTOR3@@@std@@@std@@QAEXXZ ENDP ; std::vector<D3DXVECTOR3,std::allocator<D3DXVECTOR3> >::clear
_TEXT	ENDS
; Function compile flags: /Odspy
; File C:\Program Files (x86)\Microsoft Visual Studio\2019\Community\VC\Tools\MSVC\14.28.29333\include\vector
;	COMDAT ??1?$vector@UD3DXVECTOR3@@V?$allocator@UD3DXVECTOR3@@@std@@@std@@QAE@XZ
_TEXT	SEGMENT
_this$ = -4						; size = 4
??1?$vector@UD3DXVECTOR3@@V?$allocator@UD3DXVECTOR3@@@std@@@std@@QAE@XZ PROC ; std::vector<D3DXVECTOR3,std::allocator<D3DXVECTOR3> >::~vector<D3DXVECTOR3,std::allocator<D3DXVECTOR3> >, COMDAT
; _this$ = ecx

; 672  :     ~vector() noexcept {

  00000	55		 push	 ebp
  00001	8b ec		 mov	 ebp, esp
  00003	51		 push	 ecx
  00004	89 4d fc	 mov	 DWORD PTR _this$[ebp], ecx

; 673  :         _Tidy();

  00007	8b 4d fc	 mov	 ecx, DWORD PTR _this$[ebp]
  0000a	e8 00 00 00 00	 call	 ?_Tidy@?$vector@UD3DXVECTOR3@@V?$allocator@UD3DXVECTOR3@@@std@@@std@@AAEXXZ ; std::vector<D3DXVECTOR3,std::allocator<D3DXVECTOR3> >::_Tidy

; 674  : #if _ITERATOR_DEBUG_LEVEL != 0
; 675  :         auto&& _Alproxy = _GET_PROXY_ALLOCATOR(_Alty, _Getal());
; 676  :         _Delete_plain_internal(_Alproxy, _STD exchange(_Mypair._Myval2._Myproxy, nullptr));
; 677  : #endif // _ITERATOR_DEBUG_LEVEL != 0
; 678  :     }

  0000f	c9		 leave
  00010	c3		 ret	 0
??1?$vector@UD3DXVECTOR3@@V?$allocator@UD3DXVECTOR3@@@std@@@std@@QAE@XZ ENDP ; std::vector<D3DXVECTOR3,std::allocator<D3DXVECTOR3> >::~vector<D3DXVECTOR3,std::allocator<D3DXVECTOR3> >
_TEXT	ENDS
; Function compile flags: /Odspy
; File C:\Program Files (x86)\Microsoft Visual Studio\2019\Community\VC\Tools\MSVC\14.28.29333\include\xmemory
;	COMDAT ?deallocate@?$allocator@UD3DXVECTOR3@@@std@@QAEXQAUD3DXVECTOR3@@I@Z
_TEXT	SEGMENT
_this$ = -4						; size = 4
__Ptr$ = 8						; size = 4
__Count$ = 12						; size = 4
?deallocate@?$allocator@UD3DXVECTOR3@@@std@@QAEXQAUD3DXVECTOR3@@I@Z PROC ; std::allocator<D3DXVECTOR3>::deallocate, COMDAT
; _this$ = ecx

; 808  :     void deallocate(_Ty* const _Ptr, const size_t _Count) {

  00000	55		 push	 ebp
  00001	8b ec		 mov	 ebp, esp
  00003	51		 push	 ecx
  00004	89 4d fc	 mov	 DWORD PTR _this$[ebp], ecx

; 809  :         // no overflow check on the following multiply; we assume _Allocate did that check
; 810  :         _Deallocate<_New_alignof<_Ty>>(_Ptr, sizeof(_Ty) * _Count);

  00007	6b 45 0c 0c	 imul	 eax, DWORD PTR __Count$[ebp], 12
  0000b	50		 push	 eax
  0000c	ff 75 08	 push	 DWORD PTR __Ptr$[ebp]
  0000f	e8 00 00 00 00	 call	 ??$_Deallocate@$07$0A@@std@@YAXPAXI@Z ; std::_Deallocate<8,0>
  00014	59		 pop	 ecx
  00015	59		 pop	 ecx

; 811  :     }

  00016	c9		 leave
  00017	c2 08 00	 ret	 8
?deallocate@?$allocator@UD3DXVECTOR3@@@std@@QAEXQAUD3DXVECTOR3@@I@Z ENDP ; std::allocator<D3DXVECTOR3>::deallocate
_TEXT	ENDS
; Function compile flags: /Odspy
; File D:\Metin2 Server Files\mainline\SRC_2014\Metin2Client\EterLib\GrpScreen.cpp
;	COMDAT ??__E?ms_frustum@CScreen@@1VFrustum@@A@@YAXXZ
text$di	SEGMENT
tv76 = -12						; size = 4
___t$ = -8						; size = 4
___n$ = -4						; size = 4
??__E?ms_frustum@CScreen@@1VFrustum@@A@@YAXXZ PROC	; `dynamic initializer for 'CScreen::ms_frustum'', COMDAT

; 10   : Frustum		CScreen::ms_frustum;

  00000	55		 push	 ebp
  00001	8b ec		 mov	 ebp, esp
  00003	83 ec 0c	 sub	 esp, 12			; 0000000cH
  00006	c7 45 fc 06 00
	00 00		 mov	 DWORD PTR ___n$[ebp], 6
  0000d	c7 45 f8 14 00
	00 00		 mov	 DWORD PTR ___t$[ebp], OFFSET ?ms_frustum@CScreen@@1VFrustum@@A+20
$LN8@ms_frustum:
  00014	8b 45 fc	 mov	 eax, DWORD PTR ___n$[ebp]
  00017	89 45 f4	 mov	 DWORD PTR tv76[ebp], eax
  0001a	8b 45 fc	 mov	 eax, DWORD PTR ___n$[ebp]
  0001d	48		 dec	 eax
  0001e	89 45 fc	 mov	 DWORD PTR ___n$[ebp], eax
  00021	83 7d f4 00	 cmp	 DWORD PTR tv76[ebp], 0
  00025	76 0b		 jbe	 SHORT $LN1@ms_frustum
  00027	8b 45 f8	 mov	 eax, DWORD PTR ___t$[ebp]
  0002a	83 c0 10	 add	 eax, 16			; 00000010H
  0002d	89 45 f8	 mov	 DWORD PTR ___t$[ebp], eax
  00030	eb e2		 jmp	 SHORT $LN8@ms_frustum
$LN1@ms_frustum:
  00032	c9		 leave
  00033	c3		 ret	 0
??__E?ms_frustum@CScreen@@1VFrustum@@A@@YAXXZ ENDP	; `dynamic initializer for 'CScreen::ms_frustum''
text$di	ENDS
; Function compile flags: /Odspy
;	COMDAT ??_GCScreen@@UAEPAXI@Z
_TEXT	SEGMENT
_this$ = -4						; size = 4
___flags$ = 8						; size = 4
??_GCScreen@@UAEPAXI@Z PROC				; CScreen::`scalar deleting destructor', COMDAT
; _this$ = ecx
  00000	55		 push	 ebp
  00001	8b ec		 mov	 ebp, esp
  00003	51		 push	 ecx
  00004	89 4d fc	 mov	 DWORD PTR _this$[ebp], ecx
  00007	8b 4d fc	 mov	 ecx, DWORD PTR _this$[ebp]
  0000a	e8 00 00 00 00	 call	 ??1CScreen@@UAE@XZ	; CScreen::~CScreen
  0000f	8b 45 08	 mov	 eax, DWORD PTR ___flags$[ebp]
  00012	83 e0 01	 and	 eax, 1
  00015	74 0c		 je	 SHORT $LN2@scalar
  00017	6a 04		 push	 4
  00019	ff 75 fc	 push	 DWORD PTR _this$[ebp]
  0001c	e8 00 00 00 00	 call	 ??3@YAXPAXI@Z		; operator delete
  00021	59		 pop	 ecx
  00022	59		 pop	 ecx
$LN2@scalar:
  00023	8b 45 fc	 mov	 eax, DWORD PTR _this$[ebp]
  00026	c9		 leave
  00027	c2 04 00	 ret	 4
??_GCScreen@@UAEPAXI@Z ENDP				; CScreen::`scalar deleting destructor'
_TEXT	ENDS
; Function compile flags: /Odspy
; File D:\Metin2 Server Files\mainline\SRC_2014\Metin2Client\EterLib\GrpScreen.cpp
;	COMDAT ?Identity@CScreen@@SAXXZ
_TEXT	SEGMENT
?Identity@CScreen@@SAXXZ PROC				; CScreen::Identity, COMDAT

; 834  : {

  00000	55		 push	 ebp
  00001	8b ec		 mov	 ebp, esp

; 835  : 	STATEMANAGER.SetTransform(D3DTS_WORLD, &ms_matIdentity);

  00003	68 00 00 00 00	 push	 OFFSET ?ms_matIdentity@CGraphicBase@@1UD3DXMATRIX@@A ; CGraphicBase::ms_matIdentity
  00008	68 00 01 00 00	 push	 256			; 00000100H
  0000d	8b 0d 00 00 00
	00		 mov	 ecx, DWORD PTR ?ms_singleton@?$CSingleton@VCStateManager@@@@0PAVCStateManager@@A ; CSingleton<CStateManager>::ms_singleton
  00013	e8 00 00 00 00	 call	 ?SetTransform@CStateManager@@QAEXW4_D3DTRANSFORMSTATETYPE@@PBU_D3DMATRIX@@@Z ; CStateManager::SetTransform

; 836  : }

  00018	5d		 pop	 ebp
  00019	c3		 ret	 0
?Identity@CScreen@@SAXXZ ENDP				; CScreen::Identity
_TEXT	ENDS
; Function compile flags: /Odspy
; File D:\Metin2 Server Files\mainline\SRC_2014\Metin2Client\EterLib\GrpScreen.cpp
; File D:\Metin2 Server Files\mainline\SRC_2014\Metin2Client\eterBase\Singleton.h
; File D:\Metin2 Server Files\mainline\SRC_2014\Metin2Client\EterLib\GrpScreen.cpp
; File D:\Metin2 Server Files\mainline\SRC_2014\Metin2Client\EterLib\Camera.h
; File D:\Metin2 Server Files\mainline\SRC_2014\Metin2Client\EterLib\GrpScreen.cpp
; File D:\Metin2 Server Files\mainline\SRC_2014\Metin2Client\eterBase\Singleton.h
; File D:\Metin2 Server Files\mainline\SRC_2014\Metin2Client\EterLib\GrpScreen.cpp
; File D:\Metin2 Server Files\mainline\SRC_2014\Metin2Client\EterLib\Camera.h
; File D:\Metin2 Server Files\mainline\SRC_2014\Metin2Client\EterLib\GrpScreen.cpp
; File D:\Metin2 Server Files\mainline\SRC_2014\M2Data\include\d3dx8math.inl
; File D:\Metin2 Server Files\mainline\SRC_2014\Metin2Client\EterLib\GrpScreen.cpp
;	COMDAT ?BuildViewFrustum@CScreen@@QAEXXZ
_TEXT	SEGMENT
_this$ = -40						; size = 4
_c_rv3Eye$ = -36					; size = 4
_c_rv3View$ = -32					; size = 4
_this$ = -28						; size = 4
$T1 = -24						; size = 4
_this$ = -20						; size = 4
$T2 = -16						; size = 4
$T3 = -12						; size = 64
_matT$4 = 52						; size = 64
__$ArrayPad$ = 116					; size = 4
?BuildViewFrustum@CScreen@@QAEXXZ PROC			; CScreen::BuildViewFrustum, COMDAT
; _this$ = ecx

; 848  : {

  00000	55		 push	 ebp
  00001	8d 6c 24 88	 lea	 ebp, DWORD PTR [esp-120]
  00005	81 ec a0 00 00
	00		 sub	 esp, 160		; 000000a0H
  0000b	a1 00 00 00 00	 mov	 eax, DWORD PTR ___security_cookie
  00010	33 c5		 xor	 eax, ebp
  00012	89 45 74	 mov	 DWORD PTR __$ArrayPad$[ebp], eax
  00015	56		 push	 esi
  00016	57		 push	 edi
  00017	89 4d d8	 mov	 DWORD PTR _this$[ebp], ecx
; File D:\Metin2 Server Files\mainline\SRC_2014\Metin2Client\eterBase\Singleton.h

; 27   : 		return (*ms_singleton);

  0001a	a1 00 00 00 00	 mov	 eax, DWORD PTR ?ms_singleton@?$CSingleton@VCCameraManager@@@@0PAVCCameraManager@@A ; CSingleton<CCameraManager>::ms_singleton
  0001f	89 45 f0	 mov	 DWORD PTR $T2[ebp], eax
; File D:\Metin2 Server Files\mainline\SRC_2014\Metin2Client\EterLib\GrpScreen.cpp

; 849  : 	const D3DXVECTOR3& c_rv3Eye=CCameraManager::Instance().GetCurrentCamera()->GetEye();

  00022	8b 4d f0	 mov	 ecx, DWORD PTR $T2[ebp]
  00025	e8 00 00 00 00	 call	 ?GetCurrentCamera@CCameraManager@@QAEPAVCCamera@@XZ ; CCameraManager::GetCurrentCamera
  0002a	89 45 ec	 mov	 DWORD PTR _this$[ebp], eax
; File D:\Metin2 Server Files\mainline\SRC_2014\Metin2Client\EterLib\Camera.h

; 168  : 		const D3DXVECTOR3 & GetEye() const		{ return m_v3Eye; }

  0002d	8b 45 ec	 mov	 eax, DWORD PTR _this$[ebp]
  00030	83 c0 30	 add	 eax, 48			; 00000030H
; File D:\Metin2 Server Files\mainline\SRC_2014\Metin2Client\EterLib\GrpScreen.cpp

; 849  : 	const D3DXVECTOR3& c_rv3Eye=CCameraManager::Instance().GetCurrentCamera()->GetEye();

  00033	89 45 dc	 mov	 DWORD PTR _c_rv3Eye$[ebp], eax
; File D:\Metin2 Server Files\mainline\SRC_2014\Metin2Client\eterBase\Singleton.h

; 27   : 		return (*ms_singleton);

  00036	a1 00 00 00 00	 mov	 eax, DWORD PTR ?ms_singleton@?$CSingleton@VCCameraManager@@@@0PAVCCameraManager@@A ; CSingleton<CCameraManager>::ms_singleton
  0003b	89 45 e8	 mov	 DWORD PTR $T1[ebp], eax
; File D:\Metin2 Server Files\mainline\SRC_2014\Metin2Client\EterLib\GrpScreen.cpp

; 850  : 	const D3DXVECTOR3& c_rv3View=CCameraManager::Instance().GetCurrentCamera()->GetView();

  0003e	8b 4d e8	 mov	 ecx, DWORD PTR $T1[ebp]
  00041	e8 00 00 00 00	 call	 ?GetCurrentCamera@CCameraManager@@QAEPAVCCamera@@XZ ; CCameraManager::GetCurrentCamera
  00046	89 45 e4	 mov	 DWORD PTR _this$[ebp], eax
; File D:\Metin2 Server Files\mainline\SRC_2014\Metin2Client\EterLib\Camera.h

; 171  : 		const D3DXVECTOR3 & GetView() const		{ return m_v3View; }

  00049	8b 45 e4	 mov	 eax, DWORD PTR _this$[ebp]
  0004c	83 c0 54	 add	 eax, 84			; 00000054H
; File D:\Metin2 Server Files\mainline\SRC_2014\Metin2Client\EterLib\GrpScreen.cpp

; 850  : 	const D3DXVECTOR3& c_rv3View=CCameraManager::Instance().GetCurrentCamera()->GetView();

  0004f	89 45 e0	 mov	 DWORD PTR _c_rv3View$[ebp], eax
; File D:\Metin2 Server Files\mainline\SRC_2014\M2Data\include\d3dx8math.inl

; 580  :     D3DXMatrixMultiply(&matT, this, &mat);

  00052	68 00 00 00 00	 push	 OFFSET ?ms_matProj@CGraphicBase@@1UD3DXMATRIX@@A ; CGraphicBase::ms_matProj
  00057	68 00 00 00 00	 push	 OFFSET ?ms_matView@CGraphicBase@@1UD3DXMATRIX@@A ; CGraphicBase::ms_matView
  0005c	8d 45 34	 lea	 eax, DWORD PTR _matT$4[ebp]
  0005f	50		 push	 eax
  00060	e8 00 00 00 00	 call	 _D3DXMatrixMultiply@12

; 581  :     return matT;

  00065	6a 10		 push	 16			; 00000010H
  00067	59		 pop	 ecx
  00068	8d 75 34	 lea	 esi, DWORD PTR _matT$4[ebp]
  0006b	8d 7d f4	 lea	 edi, DWORD PTR $T3[ebp]
  0006e	f3 a5		 rep movsd
; File D:\Metin2 Server Files\mainline\SRC_2014\Metin2Client\EterLib\GrpScreen.cpp

; 851  : 	 ms_frustum.BuildViewFrustum2(

  00070	ff 75 e0	 push	 DWORD PTR _c_rv3View$[ebp]
  00073	ff 75 dc	 push	 DWORD PTR _c_rv3Eye$[ebp]
  00076	51		 push	 ecx
  00077	f3 0f 10 05 00
	00 00 00	 movss	 xmm0, DWORD PTR ?ms_fAspect@CGraphicBase@@1MA
  0007f	f3 0f 11 04 24	 movss	 DWORD PTR [esp], xmm0
  00084	51		 push	 ecx
  00085	f3 0f 10 05 00
	00 00 00	 movss	 xmm0, DWORD PTR ?ms_fFieldOfView@CGraphicBase@@1MA
  0008d	f3 0f 11 04 24	 movss	 DWORD PTR [esp], xmm0
  00092	51		 push	 ecx
  00093	f3 0f 10 05 00
	00 00 00	 movss	 xmm0, DWORD PTR ?ms_fFarY@CGraphicBase@@1MA
  0009b	f3 0f 11 04 24	 movss	 DWORD PTR [esp], xmm0
  000a0	51		 push	 ecx
  000a1	f3 0f 10 05 00
	00 00 00	 movss	 xmm0, DWORD PTR ?ms_fNearY@CGraphicBase@@1MA
  000a9	f3 0f 11 04 24	 movss	 DWORD PTR [esp], xmm0
  000ae	8d 45 f4	 lea	 eax, DWORD PTR $T3[ebp]
  000b1	50		 push	 eax
  000b2	b9 00 00 00 00	 mov	 ecx, OFFSET ?ms_frustum@CScreen@@1VFrustum@@A ; CScreen::ms_frustum
  000b7	e8 00 00 00 00	 call	 ?BuildViewFrustum2@Frustum@@QAEXAAUD3DXMATRIX@@MMMMABUD3DXVECTOR3@@1@Z ; Frustum::BuildViewFrustum2

; 852  : 		 ms_matView*ms_matProj, 
; 853  : 		 ms_fNearY,
; 854  : 		 ms_fFarY,
; 855  : 		 ms_fFieldOfView,
; 856  : 		 ms_fAspect, 
; 857  : 		 c_rv3Eye, c_rv3View);
; 858  : }

  000bc	5f		 pop	 edi
  000bd	5e		 pop	 esi
  000be	8b 4d 74	 mov	 ecx, DWORD PTR __$ArrayPad$[ebp]
  000c1	33 cd		 xor	 ecx, ebp
  000c3	e8 00 00 00 00	 call	 @__security_check_cookie@4
  000c8	83 c5 78	 add	 ebp, 120		; 00000078H
  000cb	c9		 leave
  000cc	c3		 ret	 0
?BuildViewFrustum@CScreen@@QAEXXZ ENDP			; CScreen::BuildViewFrustum
_TEXT	ENDS
; Function compile flags: /Odspy
; File D:\Metin2 Server Files\mainline\SRC_2014\Metin2Client\EterLib\GrpScreen.cpp
;	COMDAT ?RestoreDevice@CScreen@@QAEHXZ
_TEXT	SEGMENT
_this$ = -40						; size = 4
_hrReset$1 = -36					; size = 4
_iD3DAdapterInfo$ = -32					; size = 4
_rkD3DDetector$ = -28					; size = 4
_rkD3DPP$ = -24						; size = 4
_rkD3DDMDesktop$2 = -20					; size = 4
_rkD3D$ = -16						; size = 4
_pkD3DAdapterInfo$3 = -12				; size = 4
_hrTestCooperativeLevel$ = -8				; size = 4
_rkD3DDev$ = -4						; size = 4
?RestoreDevice@CScreen@@QAEHXZ PROC			; CScreen::RestoreDevice, COMDAT
; _this$ = ecx

; 643  : {

  00000	55		 push	 ebp
  00001	8b ec		 mov	 ebp, esp
  00003	83 ec 28	 sub	 esp, 40			; 00000028H
  00006	89 4d d8	 mov	 DWORD PTR _this$[ebp], ecx

; 644  : 	if (!ms_lpd3dDevice)

  00009	83 3d 00 00 00
	00 00		 cmp	 DWORD PTR ?ms_lpd3dDevice@CGraphicBase@@1PAUIDirect3DDevice8@@A, 0 ; CGraphicBase::ms_lpd3dDevice
  00010	75 07		 jne	 SHORT $LN2@RestoreDev

; 645  : 		return FALSE;

  00012	33 c0		 xor	 eax, eax
  00014	e9 c8 00 00 00	 jmp	 $LN1@RestoreDev
$LN2@RestoreDev:

; 646  : 
; 647  : 	UINT iD3DAdapterInfo = ms_iD3DAdapterInfo;

  00019	a1 00 00 00 00	 mov	 eax, DWORD PTR ?ms_iD3DAdapterInfo@CGraphicBase@@1IA ; CGraphicBase::ms_iD3DAdapterInfo
  0001e	89 45 e0	 mov	 DWORD PTR _iD3DAdapterInfo$[ebp], eax

; 648  : 	IDirect3D8 & rkD3D = *ms_lpd3d;

  00021	a1 00 00 00 00	 mov	 eax, DWORD PTR ?ms_lpd3d@CGraphicBase@@1PAUIDirect3D8@@A ; CGraphicBase::ms_lpd3d
  00026	89 45 f0	 mov	 DWORD PTR _rkD3D$[ebp], eax

; 649  : 	IDirect3DDevice8 & rkD3DDev = *ms_lpd3dDevice;

  00029	a1 00 00 00 00	 mov	 eax, DWORD PTR ?ms_lpd3dDevice@CGraphicBase@@1PAUIDirect3DDevice8@@A ; CGraphicBase::ms_lpd3dDevice
  0002e	89 45 fc	 mov	 DWORD PTR _rkD3DDev$[ebp], eax

; 650  : 	D3DPRESENT_PARAMETERS & rkD3DPP = ms_d3dPresentParameter;

  00031	c7 45 e8 00 00
	00 00		 mov	 DWORD PTR _rkD3DPP$[ebp], OFFSET ?ms_d3dPresentParameter@CGraphicBase@@1U_D3DPRESENT_PARAMETERS_@@A ; CGraphicBase::ms_d3dPresentParameter

; 651  : 	D3D_CDisplayModeAutoDetector & rkD3DDetector = ms_kD3DDetector;

  00038	c7 45 e4 00 00
	00 00		 mov	 DWORD PTR _rkD3DDetector$[ebp], OFFSET ?ms_kD3DDetector@CGraphicBase@@1VD3D_CDisplayModeAutoDetector@@A ; CGraphicBase::ms_kD3DDetector

; 652  : 	
; 653  : 	HRESULT hrTestCooperativeLevel = rkD3DDev.TestCooperativeLevel();

  0003f	8b 45 fc	 mov	 eax, DWORD PTR _rkD3DDev$[ebp]
  00042	8b 00		 mov	 eax, DWORD PTR [eax]
  00044	ff 75 fc	 push	 DWORD PTR _rkD3DDev$[ebp]
  00047	ff 50 0c	 call	 DWORD PTR [eax+12]
  0004a	89 45 f8	 mov	 DWORD PTR _hrTestCooperativeLevel$[ebp], eax

; 654  : 	
; 655  : 	if (FAILED(hrTestCooperativeLevel))

  0004d	83 7d f8 00	 cmp	 DWORD PTR _hrTestCooperativeLevel$[ebp], 0
  00051	0f 8d 87 00 00
	00		 jge	 $LN3@RestoreDev

; 656  : 	{		
; 657  : 		if (D3DERR_DEVICELOST == hrTestCooperativeLevel)

  00057	81 7d f8 68 08
	76 88		 cmp	 DWORD PTR _hrTestCooperativeLevel$[ebp], -2005530520 ; 88760868H
  0005e	75 04		 jne	 SHORT $LN4@RestoreDev

; 658  : 		{
; 659  : 			return FALSE;		

  00060	33 c0		 xor	 eax, eax
  00062	eb 7d		 jmp	 SHORT $LN1@RestoreDev
$LN4@RestoreDev:

; 660  : 		}
; 661  : 
; 662  : 		if (D3DERR_DEVICENOTRESET == hrTestCooperativeLevel)

  00064	81 7d f8 69 08
	76 88		 cmp	 DWORD PTR _hrTestCooperativeLevel$[ebp], -2005530519 ; 88760869H
  0006b	75 71		 jne	 SHORT $LN3@RestoreDev

; 663  : 		{
; 664  : 			D3D_CAdapterInfo* pkD3DAdapterInfo = rkD3DDetector.GetD3DAdapterInfop(ms_iD3DAdapterInfo);

  0006d	ff 35 00 00 00
	00		 push	 DWORD PTR ?ms_iD3DAdapterInfo@CGraphicBase@@1IA ; CGraphicBase::ms_iD3DAdapterInfo
  00073	8b 4d e4	 mov	 ecx, DWORD PTR _rkD3DDetector$[ebp]
  00076	e8 00 00 00 00	 call	 ?GetD3DAdapterInfop@D3D_CDisplayModeAutoDetector@@QAEPAVD3D_CAdapterInfo@@I@Z ; D3D_CDisplayModeAutoDetector::GetD3DAdapterInfop
  0007b	89 45 f4	 mov	 DWORD PTR _pkD3DAdapterInfo$3[ebp], eax

; 665  : 
; 666  : 			if (!pkD3DAdapterInfo)

  0007e	83 7d f4 00	 cmp	 DWORD PTR _pkD3DAdapterInfo$3[ebp], 0
  00082	75 04		 jne	 SHORT $LN6@RestoreDev

; 667  : 				return FALSE;

  00084	33 c0		 xor	 eax, eax
  00086	eb 59		 jmp	 SHORT $LN1@RestoreDev
$LN6@RestoreDev:

; 668  : 
; 669  : 			D3DDISPLAYMODE & rkD3DDMDesktop = pkD3DAdapterInfo->GetDesktopD3DDisplayModer();

  00088	8b 4d f4	 mov	 ecx, DWORD PTR _pkD3DAdapterInfo$3[ebp]
  0008b	e8 00 00 00 00	 call	 ?GetDesktopD3DDisplayModer@D3D_CAdapterInfo@@QAEAAU_D3DDISPLAYMODE@@XZ ; D3D_CAdapterInfo::GetDesktopD3DDisplayModer
  00090	89 45 ec	 mov	 DWORD PTR _rkD3DDMDesktop$2[ebp], eax

; 670  : 
; 671  : 			if (FAILED(rkD3D.GetAdapterDisplayMode(iD3DAdapterInfo, &rkD3DDMDesktop)))

  00093	ff 75 ec	 push	 DWORD PTR _rkD3DDMDesktop$2[ebp]
  00096	ff 75 e0	 push	 DWORD PTR _iD3DAdapterInfo$[ebp]
  00099	8b 45 f0	 mov	 eax, DWORD PTR _rkD3D$[ebp]
  0009c	8b 00		 mov	 eax, DWORD PTR [eax]
  0009e	ff 75 f0	 push	 DWORD PTR _rkD3D$[ebp]
  000a1	ff 50 20	 call	 DWORD PTR [eax+32]
  000a4	85 c0		 test	 eax, eax
  000a6	7d 04		 jge	 SHORT $LN7@RestoreDev

; 672  : 				return FALSE;

  000a8	33 c0		 xor	 eax, eax
  000aa	eb 35		 jmp	 SHORT $LN1@RestoreDev
$LN7@RestoreDev:

; 673  : 					
; 674  : 			rkD3DPP.BackBufferFormat = rkD3DDMDesktop.Format;	

  000ac	8b 45 e8	 mov	 eax, DWORD PTR _rkD3DPP$[ebp]
  000af	8b 4d ec	 mov	 ecx, DWORD PTR _rkD3DDMDesktop$2[ebp]
  000b2	8b 49 0c	 mov	 ecx, DWORD PTR [ecx+12]
  000b5	89 48 08	 mov	 DWORD PTR [eax+8], ecx

; 675  : 			
; 676  : 			HRESULT hrReset = rkD3DDev.Reset(&rkD3DPP);

  000b8	ff 75 e8	 push	 DWORD PTR _rkD3DPP$[ebp]
  000bb	8b 45 fc	 mov	 eax, DWORD PTR _rkD3DDev$[ebp]
  000be	8b 00		 mov	 eax, DWORD PTR [eax]
  000c0	ff 75 fc	 push	 DWORD PTR _rkD3DDev$[ebp]
  000c3	ff 50 38	 call	 DWORD PTR [eax+56]
  000c6	89 45 dc	 mov	 DWORD PTR _hrReset$1[ebp], eax

; 677  : 
; 678  : 			if (FAILED(hrReset))

  000c9	83 7d dc 00	 cmp	 DWORD PTR _hrReset$1[ebp], 0
  000cd	7d 04		 jge	 SHORT $LN10@RestoreDev

; 679  : 			{
; 680  : 				return FALSE;

  000cf	33 c0		 xor	 eax, eax
  000d1	eb 0e		 jmp	 SHORT $LN1@RestoreDev
$LN10@RestoreDev:

; 681  : 			}
; 682  : 			
; 683  : 			STATEMANAGER.SetDefaultState();

  000d3	8b 0d 00 00 00
	00		 mov	 ecx, DWORD PTR ?ms_singleton@?$CSingleton@VCStateManager@@@@0PAVCStateManager@@A ; CSingleton<CStateManager>::ms_singleton
  000d9	e8 00 00 00 00	 call	 ?SetDefaultState@CStateManager@@QAEXXZ ; CStateManager::SetDefaultState
$LN3@RestoreDev:

; 684  : 		}        
; 685  : 	}
; 686  : 
; 687  : 	return TRUE;

  000de	33 c0		 xor	 eax, eax
  000e0	40		 inc	 eax
$LN1@RestoreDev:

; 688  : 	
; 689  : }

  000e1	c9		 leave
  000e2	c3		 ret	 0
?RestoreDevice@CScreen@@QAEHXZ ENDP			; CScreen::RestoreDevice
_TEXT	ENDS
; Function compile flags: /Odspy
; File D:\Metin2 Server Files\mainline\SRC_2014\Metin2Client\EterLib\GrpScreen.cpp
;	COMDAT ?IsLostDevice@CScreen@@QAEHXZ
_TEXT	SEGMENT
_this$ = -12						; size = 4
_hrTestCooperativeLevel$ = -8				; size = 4
_rkD3DDev$ = -4						; size = 4
?IsLostDevice@CScreen@@QAEHXZ PROC			; CScreen::IsLostDevice, COMDAT
; _this$ = ecx

; 630  : {

  00000	55		 push	 ebp
  00001	8b ec		 mov	 ebp, esp
  00003	83 ec 0c	 sub	 esp, 12			; 0000000cH
  00006	89 4d f4	 mov	 DWORD PTR _this$[ebp], ecx

; 631  : 	if (!ms_lpd3dDevice)

  00009	83 3d 00 00 00
	00 00		 cmp	 DWORD PTR ?ms_lpd3dDevice@CGraphicBase@@1PAUIDirect3DDevice8@@A, 0 ; CGraphicBase::ms_lpd3dDevice
  00010	75 05		 jne	 SHORT $LN2@IsLostDevi

; 632  : 		return TRUE;

  00012	33 c0		 xor	 eax, eax
  00014	40		 inc	 eax
  00015	eb 23		 jmp	 SHORT $LN1@IsLostDevi
$LN2@IsLostDevi:

; 633  : 
; 634  : 	IDirect3DDevice8 & rkD3DDev = *ms_lpd3dDevice;

  00017	a1 00 00 00 00	 mov	 eax, DWORD PTR ?ms_lpd3dDevice@CGraphicBase@@1PAUIDirect3DDevice8@@A ; CGraphicBase::ms_lpd3dDevice
  0001c	89 45 fc	 mov	 DWORD PTR _rkD3DDev$[ebp], eax

; 635  : 	HRESULT hrTestCooperativeLevel = rkD3DDev.TestCooperativeLevel();

  0001f	8b 45 fc	 mov	 eax, DWORD PTR _rkD3DDev$[ebp]
  00022	8b 00		 mov	 eax, DWORD PTR [eax]
  00024	ff 75 fc	 push	 DWORD PTR _rkD3DDev$[ebp]
  00027	ff 50 0c	 call	 DWORD PTR [eax+12]
  0002a	89 45 f8	 mov	 DWORD PTR _hrTestCooperativeLevel$[ebp], eax

; 636  : 	if (FAILED(hrTestCooperativeLevel))

  0002d	83 7d f8 00	 cmp	 DWORD PTR _hrTestCooperativeLevel$[ebp], 0
  00031	7d 05		 jge	 SHORT $LN3@IsLostDevi

; 637  : 		return TRUE;		

  00033	33 c0		 xor	 eax, eax
  00035	40		 inc	 eax
  00036	eb 02		 jmp	 SHORT $LN1@IsLostDevi
$LN3@IsLostDevi:

; 638  : 	
; 639  : 	return FALSE;

  00038	33 c0		 xor	 eax, eax
$LN1@IsLostDevi:

; 640  : }

  0003a	c9		 leave
  0003b	c3		 ret	 0
?IsLostDevice@CScreen@@QAEHXZ ENDP			; CScreen::IsLostDevice
_TEXT	ENDS
; Function compile flags: /Odspy
; File D:\Metin2 Server Files\mainline\SRC_2014\Metin2Client\EterLib\GrpScreen.cpp
; File D:\Metin2 Server Files\mainline\SRC_2014\M2Data\include\d3dx8math.inl
; File D:\Metin2 Server Files\mainline\SRC_2014\Metin2Client\EterLib\GrpScreen.cpp
;	COMDAT ?UnprojectPosition@CScreen@@QAEXMMMPAM00@Z
_TEXT	SEGMENT
_this$ = -32						; size = 4
_Output$ = -28						; size = 12
_Input$ = -16						; size = 12
__$ArrayPad$ = -4					; size = 4
_x$ = 8							; size = 4
_y$ = 12						; size = 4
_z$ = 16						; size = 4
_pfX$ = 20						; size = 4
_pfY$ = 24						; size = 4
_pfZ$ = 28						; size = 4
?UnprojectPosition@CScreen@@QAEXMMMPAM00@Z PROC		; CScreen::UnprojectPosition, COMDAT
; _this$ = ecx

; 771  : {

  00000	55		 push	 ebp
  00001	8b ec		 mov	 ebp, esp
  00003	83 ec 20	 sub	 esp, 32			; 00000020H
  00006	a1 00 00 00 00	 mov	 eax, DWORD PTR ___security_cookie
  0000b	33 c5		 xor	 eax, ebp
  0000d	89 45 fc	 mov	 DWORD PTR __$ArrayPad$[ebp], eax
  00010	89 4d e0	 mov	 DWORD PTR _this$[ebp], ecx
; File D:\Metin2 Server Files\mainline\SRC_2014\M2Data\include\d3dx8math.inl

; 180  :     x = fx;

  00013	f3 0f 10 45 08	 movss	 xmm0, DWORD PTR _x$[ebp]
  00018	f3 0f 11 45 f0	 movss	 DWORD PTR _Input$[ebp], xmm0

; 181  :     y = fy;

  0001d	f3 0f 10 45 0c	 movss	 xmm0, DWORD PTR _y$[ebp]
  00022	f3 0f 11 45 f4	 movss	 DWORD PTR _Input$[ebp+4], xmm0

; 182  :     z = fz;

  00027	f3 0f 10 45 10	 movss	 xmm0, DWORD PTR _z$[ebp]
  0002c	f3 0f 11 45 f8	 movss	 DWORD PTR _Input$[ebp+8], xmm0
; File D:\Metin2 Server Files\mainline\SRC_2014\Metin2Client\EterLib\GrpScreen.cpp

; 774  : 	D3DXVec3Unproject(&Output, &Input, &ms_Viewport, &ms_matProj, &ms_matView, &ms_matWorld);

  00031	68 00 00 00 00	 push	 OFFSET ?ms_matWorld@CGraphicBase@@1UD3DXMATRIX@@A ; CGraphicBase::ms_matWorld
  00036	68 00 00 00 00	 push	 OFFSET ?ms_matView@CGraphicBase@@1UD3DXMATRIX@@A ; CGraphicBase::ms_matView
  0003b	68 00 00 00 00	 push	 OFFSET ?ms_matProj@CGraphicBase@@1UD3DXMATRIX@@A ; CGraphicBase::ms_matProj
  00040	68 00 00 00 00	 push	 OFFSET ?ms_Viewport@CGraphicBase@@1U_D3DVIEWPORT8@@A ; CGraphicBase::ms_Viewport
  00045	8d 45 f0	 lea	 eax, DWORD PTR _Input$[ebp]
  00048	50		 push	 eax
  00049	8d 45 e4	 lea	 eax, DWORD PTR _Output$[ebp]
  0004c	50		 push	 eax
  0004d	e8 00 00 00 00	 call	 _D3DXVec3Unproject@24

; 775  : 
; 776  : 	*pfX = Output.x;

  00052	8b 45 14	 mov	 eax, DWORD PTR _pfX$[ebp]
  00055	f3 0f 10 45 e4	 movss	 xmm0, DWORD PTR _Output$[ebp]
  0005a	f3 0f 11 00	 movss	 DWORD PTR [eax], xmm0

; 777  : 	*pfY = Output.y;

  0005e	8b 45 18	 mov	 eax, DWORD PTR _pfY$[ebp]
  00061	f3 0f 10 45 e8	 movss	 xmm0, DWORD PTR _Output$[ebp+4]
  00066	f3 0f 11 00	 movss	 DWORD PTR [eax], xmm0

; 778  : 	*pfZ = Output.z;

  0006a	8b 45 1c	 mov	 eax, DWORD PTR _pfZ$[ebp]
  0006d	f3 0f 10 45 ec	 movss	 xmm0, DWORD PTR _Output$[ebp+8]
  00072	f3 0f 11 00	 movss	 DWORD PTR [eax], xmm0

; 779  : }

  00076	8b 4d fc	 mov	 ecx, DWORD PTR __$ArrayPad$[ebp]
  00079	33 cd		 xor	 ecx, ebp
  0007b	e8 00 00 00 00	 call	 @__security_check_cookie@4
  00080	c9		 leave
  00081	c2 18 00	 ret	 24			; 00000018H
?UnprojectPosition@CScreen@@QAEXMMMPAM00@Z ENDP		; CScreen::UnprojectPosition
_TEXT	ENDS
; Function compile flags: /Odspy
; File D:\Metin2 Server Files\mainline\SRC_2014\Metin2Client\EterLib\GrpScreen.cpp
; File D:\Metin2 Server Files\mainline\SRC_2014\M2Data\include\d3dx8math.inl
; File D:\Metin2 Server Files\mainline\SRC_2014\Metin2Client\EterLib\GrpScreen.cpp
;	COMDAT ?ProjectPosition@CScreen@@QAEXMMMPAM00@Z
_TEXT	SEGMENT
_this$ = -32						; size = 4
_Output$ = -28						; size = 12
_Input$ = -16						; size = 12
__$ArrayPad$ = -4					; size = 4
_x$ = 8							; size = 4
_y$ = 12						; size = 4
_z$ = 16						; size = 4
_pfX$ = 20						; size = 4
_pfY$ = 24						; size = 4
_pfZ$ = 28						; size = 4
?ProjectPosition@CScreen@@QAEXMMMPAM00@Z PROC		; CScreen::ProjectPosition, COMDAT
; _this$ = ecx

; 760  : {

  00000	55		 push	 ebp
  00001	8b ec		 mov	 ebp, esp
  00003	83 ec 20	 sub	 esp, 32			; 00000020H
  00006	a1 00 00 00 00	 mov	 eax, DWORD PTR ___security_cookie
  0000b	33 c5		 xor	 eax, ebp
  0000d	89 45 fc	 mov	 DWORD PTR __$ArrayPad$[ebp], eax
  00010	89 4d e0	 mov	 DWORD PTR _this$[ebp], ecx
; File D:\Metin2 Server Files\mainline\SRC_2014\M2Data\include\d3dx8math.inl

; 180  :     x = fx;

  00013	f3 0f 10 45 08	 movss	 xmm0, DWORD PTR _x$[ebp]
  00018	f3 0f 11 45 f0	 movss	 DWORD PTR _Input$[ebp], xmm0

; 181  :     y = fy;

  0001d	f3 0f 10 45 0c	 movss	 xmm0, DWORD PTR _y$[ebp]
  00022	f3 0f 11 45 f4	 movss	 DWORD PTR _Input$[ebp+4], xmm0

; 182  :     z = fz;

  00027	f3 0f 10 45 10	 movss	 xmm0, DWORD PTR _z$[ebp]
  0002c	f3 0f 11 45 f8	 movss	 DWORD PTR _Input$[ebp+8], xmm0
; File D:\Metin2 Server Files\mainline\SRC_2014\Metin2Client\EterLib\GrpScreen.cpp

; 763  : 	D3DXVec3Project(&Output, &Input, &ms_Viewport, &ms_matProj, &ms_matView, &ms_matWorld);

  00031	68 00 00 00 00	 push	 OFFSET ?ms_matWorld@CGraphicBase@@1UD3DXMATRIX@@A ; CGraphicBase::ms_matWorld
  00036	68 00 00 00 00	 push	 OFFSET ?ms_matView@CGraphicBase@@1UD3DXMATRIX@@A ; CGraphicBase::ms_matView
  0003b	68 00 00 00 00	 push	 OFFSET ?ms_matProj@CGraphicBase@@1UD3DXMATRIX@@A ; CGraphicBase::ms_matProj
  00040	68 00 00 00 00	 push	 OFFSET ?ms_Viewport@CGraphicBase@@1U_D3DVIEWPORT8@@A ; CGraphicBase::ms_Viewport
  00045	8d 45 f0	 lea	 eax, DWORD PTR _Input$[ebp]
  00048	50		 push	 eax
  00049	8d 45 e4	 lea	 eax, DWORD PTR _Output$[ebp]
  0004c	50		 push	 eax
  0004d	e8 00 00 00 00	 call	 _D3DXVec3Project@24

; 764  : 
; 765  : 	*pfX = Output.x;

  00052	8b 45 14	 mov	 eax, DWORD PTR _pfX$[ebp]
  00055	f3 0f 10 45 e4	 movss	 xmm0, DWORD PTR _Output$[ebp]
  0005a	f3 0f 11 00	 movss	 DWORD PTR [eax], xmm0

; 766  : 	*pfY = Output.y;

  0005e	8b 45 18	 mov	 eax, DWORD PTR _pfY$[ebp]
  00061	f3 0f 10 45 e8	 movss	 xmm0, DWORD PTR _Output$[ebp+4]
  00066	f3 0f 11 00	 movss	 DWORD PTR [eax], xmm0

; 767  : 	*pfZ = Output.z;

  0006a	8b 45 1c	 mov	 eax, DWORD PTR _pfZ$[ebp]
  0006d	f3 0f 10 45 ec	 movss	 xmm0, DWORD PTR _Output$[ebp+8]
  00072	f3 0f 11 00	 movss	 DWORD PTR [eax], xmm0

; 768  : }

  00076	8b 4d fc	 mov	 ecx, DWORD PTR __$ArrayPad$[ebp]
  00079	33 cd		 xor	 ecx, ebp
  0007b	e8 00 00 00 00	 call	 @__security_check_cookie@4
  00080	c9		 leave
  00081	c2 18 00	 ret	 24			; 00000018H
?ProjectPosition@CScreen@@QAEXMMMPAM00@Z ENDP		; CScreen::ProjectPosition
_TEXT	ENDS
; Function compile flags: /Odspy
; File D:\Metin2 Server Files\mainline\SRC_2014\Metin2Client\EterLib\GrpScreen.cpp
; File D:\Metin2 Server Files\mainline\SRC_2014\M2Data\include\d3dx8math.inl
; File D:\Metin2 Server Files\mainline\SRC_2014\Metin2Client\EterLib\GrpScreen.cpp
;	COMDAT ?ProjectPosition@CScreen@@QAEXMMMPAM0@Z
_TEXT	SEGMENT
_this$ = -32						; size = 4
_Output$ = -28						; size = 12
_Input$ = -16						; size = 12
__$ArrayPad$ = -4					; size = 4
_x$ = 8							; size = 4
_y$ = 12						; size = 4
_z$ = 16						; size = 4
_pfX$ = 20						; size = 4
_pfY$ = 24						; size = 4
?ProjectPosition@CScreen@@QAEXMMMPAM0@Z PROC		; CScreen::ProjectPosition, COMDAT
; _this$ = ecx

; 750  : {

  00000	55		 push	 ebp
  00001	8b ec		 mov	 ebp, esp
  00003	83 ec 20	 sub	 esp, 32			; 00000020H
  00006	a1 00 00 00 00	 mov	 eax, DWORD PTR ___security_cookie
  0000b	33 c5		 xor	 eax, ebp
  0000d	89 45 fc	 mov	 DWORD PTR __$ArrayPad$[ebp], eax
  00010	89 4d e0	 mov	 DWORD PTR _this$[ebp], ecx
; File D:\Metin2 Server Files\mainline\SRC_2014\M2Data\include\d3dx8math.inl

; 180  :     x = fx;

  00013	f3 0f 10 45 08	 movss	 xmm0, DWORD PTR _x$[ebp]
  00018	f3 0f 11 45 f0	 movss	 DWORD PTR _Input$[ebp], xmm0

; 181  :     y = fy;

  0001d	f3 0f 10 45 0c	 movss	 xmm0, DWORD PTR _y$[ebp]
  00022	f3 0f 11 45 f4	 movss	 DWORD PTR _Input$[ebp+4], xmm0

; 182  :     z = fz;

  00027	f3 0f 10 45 10	 movss	 xmm0, DWORD PTR _z$[ebp]
  0002c	f3 0f 11 45 f8	 movss	 DWORD PTR _Input$[ebp+8], xmm0
; File D:\Metin2 Server Files\mainline\SRC_2014\Metin2Client\EterLib\GrpScreen.cpp

; 753  : 	D3DXVec3Project(&Output, &Input, &ms_Viewport, &ms_matProj, &ms_matView, &ms_matWorld);

  00031	68 00 00 00 00	 push	 OFFSET ?ms_matWorld@CGraphicBase@@1UD3DXMATRIX@@A ; CGraphicBase::ms_matWorld
  00036	68 00 00 00 00	 push	 OFFSET ?ms_matView@CGraphicBase@@1UD3DXMATRIX@@A ; CGraphicBase::ms_matView
  0003b	68 00 00 00 00	 push	 OFFSET ?ms_matProj@CGraphicBase@@1UD3DXMATRIX@@A ; CGraphicBase::ms_matProj
  00040	68 00 00 00 00	 push	 OFFSET ?ms_Viewport@CGraphicBase@@1U_D3DVIEWPORT8@@A ; CGraphicBase::ms_Viewport
  00045	8d 45 f0	 lea	 eax, DWORD PTR _Input$[ebp]
  00048	50		 push	 eax
  00049	8d 45 e4	 lea	 eax, DWORD PTR _Output$[ebp]
  0004c	50		 push	 eax
  0004d	e8 00 00 00 00	 call	 _D3DXVec3Project@24

; 754  : 
; 755  : 	*pfX = Output.x;

  00052	8b 45 14	 mov	 eax, DWORD PTR _pfX$[ebp]
  00055	f3 0f 10 45 e4	 movss	 xmm0, DWORD PTR _Output$[ebp]
  0005a	f3 0f 11 00	 movss	 DWORD PTR [eax], xmm0

; 756  : 	*pfY = Output.y;

  0005e	8b 45 18	 mov	 eax, DWORD PTR _pfY$[ebp]
  00061	f3 0f 10 45 e8	 movss	 xmm0, DWORD PTR _Output$[ebp+4]
  00066	f3 0f 11 00	 movss	 DWORD PTR [eax], xmm0

; 757  : }

  0006a	8b 4d fc	 mov	 ecx, DWORD PTR __$ArrayPad$[ebp]
  0006d	33 cd		 xor	 ecx, ebp
  0006f	e8 00 00 00 00	 call	 @__security_check_cookie@4
  00074	c9		 leave
  00075	c2 14 00	 ret	 20			; 00000014H
?ProjectPosition@CScreen@@QAEXMMMPAM0@Z ENDP		; CScreen::ProjectPosition
_TEXT	ENDS
; Function compile flags: /Odspy
; File D:\Metin2 Server Files\mainline\SRC_2014\Metin2Client\EterLib\GrpScreen.cpp
;	COMDAT ?GetPickingPosition@CScreen@@QAEXMPAM00@Z
_TEXT	SEGMENT
_this$ = -4						; size = 4
_t$ = 8							; size = 4
_x$ = 12						; size = 4
_y$ = 16						; size = 4
_z$ = 20						; size = 4
?GetPickingPosition@CScreen@@QAEXMPAM00@Z PROC		; CScreen::GetPickingPosition, COMDAT
; _this$ = ecx

; 586  : {

  00000	55		 push	 ebp
  00001	8b ec		 mov	 ebp, esp
  00003	51		 push	 ecx
  00004	89 4d fc	 mov	 DWORD PTR _this$[ebp], ecx

; 587  : 	*x = ms_vtPickRayOrig.x + ms_vtPickRayDir.x * t;

  00007	f3 0f 10 05 00
	00 00 00	 movss	 xmm0, DWORD PTR ?ms_vtPickRayDir@CGraphicBase@@1UD3DXVECTOR3@@A
  0000f	f3 0f 59 45 08	 mulss	 xmm0, DWORD PTR _t$[ebp]
  00014	f3 0f 58 05 00
	00 00 00	 addss	 xmm0, DWORD PTR ?ms_vtPickRayOrig@CGraphicBase@@1UD3DXVECTOR3@@A
  0001c	8b 45 0c	 mov	 eax, DWORD PTR _x$[ebp]
  0001f	f3 0f 11 00	 movss	 DWORD PTR [eax], xmm0

; 588  : 	*y = ms_vtPickRayOrig.y + ms_vtPickRayDir.y * t;

  00023	f3 0f 10 05 04
	00 00 00	 movss	 xmm0, DWORD PTR ?ms_vtPickRayDir@CGraphicBase@@1UD3DXVECTOR3@@A+4
  0002b	f3 0f 59 45 08	 mulss	 xmm0, DWORD PTR _t$[ebp]
  00030	f3 0f 58 05 04
	00 00 00	 addss	 xmm0, DWORD PTR ?ms_vtPickRayOrig@CGraphicBase@@1UD3DXVECTOR3@@A+4
  00038	8b 45 10	 mov	 eax, DWORD PTR _y$[ebp]
  0003b	f3 0f 11 00	 movss	 DWORD PTR [eax], xmm0

; 589  : 	*z = ms_vtPickRayOrig.z + ms_vtPickRayDir.z * t;

  0003f	f3 0f 10 05 08
	00 00 00	 movss	 xmm0, DWORD PTR ?ms_vtPickRayDir@CGraphicBase@@1UD3DXVECTOR3@@A+8
  00047	f3 0f 59 45 08	 mulss	 xmm0, DWORD PTR _t$[ebp]
  0004c	f3 0f 58 05 08
	00 00 00	 addss	 xmm0, DWORD PTR ?ms_vtPickRayOrig@CGraphicBase@@1UD3DXVECTOR3@@A+8
  00054	8b 45 14	 mov	 eax, DWORD PTR _z$[ebp]
  00057	f3 0f 11 00	 movss	 DWORD PTR [eax], xmm0

; 590  : }

  0005b	c9		 leave
  0005c	c2 10 00	 ret	 16			; 00000010H
?GetPickingPosition@CScreen@@QAEXMPAM00@Z ENDP		; CScreen::GetPickingPosition
_TEXT	ENDS
; Function compile flags: /Odspy
; File D:\Metin2 Server Files\mainline\SRC_2014\Metin2Client\EterLib\GrpScreen.cpp
; File D:\Metin2 Server Files\mainline\SRC_2014\Metin2Client\eterBase\Singleton.h
; File D:\Metin2 Server Files\mainline\SRC_2014\Metin2Client\EterLib\GrpScreen.cpp
; File D:\Metin2 Server Files\mainline\SRC_2014\Metin2Client\EterLib\Camera.h
; File D:\Metin2 Server Files\mainline\SRC_2014\Metin2Client\EterLib\GrpScreen.cpp
; File D:\Metin2 Server Files\mainline\SRC_2014\M2Data\include\d3dx8math.inl
; File D:\Metin2 Server Files\mainline\SRC_2014\Metin2Client\EterLib\GrpScreen.cpp
; File D:\Metin2 Server Files\mainline\SRC_2014\M2Data\include\d3dx8math.inl
; File D:\Metin2 Server Files\mainline\SRC_2014\Metin2Client\EterLib\GrpScreen.cpp
; File D:\Metin2 Server Files\mainline\SRC_2014\M2Data\include\d3dx8math.inl
; File D:\Metin2 Server Files\mainline\SRC_2014\Metin2Client\EterLib\GrpScreen.cpp
; File D:\Metin2 Server Files\mainline\SRC_2014\M2Data\include\d3dx8math.inl
; File D:\Metin2 Server Files\mainline\SRC_2014\Metin2Client\EterLib\GrpScreen.cpp
; File D:\Metin2 Server Files\mainline\SRC_2014\M2Data\include\d3dx8math.inl
; File D:\Metin2 Server Files\mainline\SRC_2014\Metin2Client\EterLib\GrpScreen.cpp
; File D:\Metin2 Server Files\mainline\SRC_2014\M2Data\include\d3dx8math.inl
; File D:\Metin2 Server Files\mainline\SRC_2014\Metin2Client\EterLib\GrpScreen.cpp
; File D:\Metin2 Server Files\mainline\SRC_2014\M2Data\include\d3dx8math.inl
; File D:\Metin2 Server Files\mainline\SRC_2014\Metin2Client\EterLib\GrpScreen.cpp
; File D:\Metin2 Server Files\mainline\SRC_2014\M2Data\include\d3dx8math.inl
; File D:\Metin2 Server Files\mainline\SRC_2014\Metin2Client\EterLib\GrpScreen.cpp
;	COMDAT ?GetCursorZPosition@CScreen@@QAE_NPAM@Z
_TEXT	SEGMENT
_u$ = -36						; size = 4
_v$ = -32						; size = 4
_t$ = -28						; size = 4
_this$ = -24						; size = 4
tv239 = -20						; size = 4
_this$ = -16						; size = 4
$T1 = -12						; size = 4
___t$ = -8						; size = 4
___n$ = -4						; size = 4
_i$2 = 0						; size = 4
_v3Eye$ = 4						; size = 12
$T3 = 16						; size = 12
$T4 = 28						; size = 12
$T5 = 40						; size = 12
$T6 = 52						; size = 12
_posVertices$ = 64					; size = 48
__$ArrayPad$ = 112					; size = 4
_pz$ = 124						; size = 4
?GetCursorZPosition@CScreen@@QAE_NPAM@Z PROC		; CScreen::GetCursorZPosition, COMDAT
; _this$ = ecx

; 558  : {

  00000	55		 push	 ebp
  00001	8d 6c 24 8c	 lea	 ebp, DWORD PTR [esp-116]
  00005	81 ec 98 00 00
	00		 sub	 esp, 152		; 00000098H
  0000b	a1 00 00 00 00	 mov	 eax, DWORD PTR ___security_cookie
  00010	33 c5		 xor	 eax, ebp
  00012	89 45 70	 mov	 DWORD PTR __$ArrayPad$[ebp], eax
  00015	56		 push	 esi
  00016	57		 push	 edi
  00017	89 4d e8	 mov	 DWORD PTR _this$[ebp], ecx
; File D:\Metin2 Server Files\mainline\SRC_2014\Metin2Client\eterBase\Singleton.h

; 27   : 		return (*ms_singleton);

  0001a	a1 00 00 00 00	 mov	 eax, DWORD PTR ?ms_singleton@?$CSingleton@VCCameraManager@@@@0PAVCCameraManager@@A ; CSingleton<CCameraManager>::ms_singleton
  0001f	89 45 f4	 mov	 DWORD PTR $T1[ebp], eax
; File D:\Metin2 Server Files\mainline\SRC_2014\Metin2Client\EterLib\GrpScreen.cpp

; 559  : 	D3DXVECTOR3 v3Eye = CCameraManager::Instance().GetCurrentCamera()->GetEye();

  00022	8b 4d f4	 mov	 ecx, DWORD PTR $T1[ebp]
  00025	e8 00 00 00 00	 call	 ?GetCurrentCamera@CCameraManager@@QAEPAVCCamera@@XZ ; CCameraManager::GetCurrentCamera
  0002a	89 45 f0	 mov	 DWORD PTR _this$[ebp], eax
; File D:\Metin2 Server Files\mainline\SRC_2014\Metin2Client\EterLib\Camera.h

; 168  : 		const D3DXVECTOR3 & GetEye() const		{ return m_v3Eye; }

  0002d	8b 75 f0	 mov	 esi, DWORD PTR _this$[ebp]
  00030	83 c6 30	 add	 esi, 48			; 00000030H
; File D:\Metin2 Server Files\mainline\SRC_2014\Metin2Client\EterLib\GrpScreen.cpp

; 559  : 	D3DXVECTOR3 v3Eye = CCameraManager::Instance().GetCurrentCamera()->GetEye();

  00033	8d 7d 04	 lea	 edi, DWORD PTR _v3Eye$[ebp]
  00036	a5		 movsd
  00037	a5		 movsd
  00038	a5		 movsd

; 560  : 
; 561  : 	TPosition posVertices[4];

  00039	c7 45 fc 04 00
	00 00		 mov	 DWORD PTR ___n$[ebp], 4
  00040	8d 45 40	 lea	 eax, DWORD PTR _posVertices$[ebp]
  00043	89 45 f8	 mov	 DWORD PTR ___t$[ebp], eax
$LN12@GetCursorZ:
  00046	8b 45 fc	 mov	 eax, DWORD PTR ___n$[ebp]
  00049	89 45 ec	 mov	 DWORD PTR tv239[ebp], eax
  0004c	8b 45 fc	 mov	 eax, DWORD PTR ___n$[ebp]
  0004f	48		 dec	 eax
  00050	89 45 fc	 mov	 DWORD PTR ___n$[ebp], eax
  00053	83 7d ec 00	 cmp	 DWORD PTR tv239[ebp], 0
  00057	76 0b		 jbe	 SHORT $LN13@GetCursorZ
  00059	8b 45 f8	 mov	 eax, DWORD PTR ___t$[ebp]
  0005c	83 c0 0c	 add	 eax, 12			; 0000000cH
  0005f	89 45 f8	 mov	 DWORD PTR ___t$[ebp], eax
  00062	eb e2		 jmp	 SHORT $LN12@GetCursorZ
$LN13@GetCursorZ:

; 562  : 	posVertices[0] = TPosition(v3Eye.x-90000000.0f, 0.0f, v3Eye.z+90000000.0f);

  00064	f3 0f 10 45 04	 movss	 xmm0, DWORD PTR _v3Eye$[ebp]
  00069	f3 0f 5c 05 00
	00 00 00	 subss	 xmm0, DWORD PTR __real@4caba950
; File D:\Metin2 Server Files\mainline\SRC_2014\M2Data\include\d3dx8math.inl

; 180  :     x = fx;

  00071	f3 0f 11 45 34	 movss	 DWORD PTR $T6[ebp], xmm0

; 181  :     y = fy;

  00076	0f 57 c0	 xorps	 xmm0, xmm0
  00079	f3 0f 11 45 38	 movss	 DWORD PTR $T6[ebp+4], xmm0
; File D:\Metin2 Server Files\mainline\SRC_2014\Metin2Client\EterLib\GrpScreen.cpp

; 562  : 	posVertices[0] = TPosition(v3Eye.x-90000000.0f, 0.0f, v3Eye.z+90000000.0f);

  0007e	f3 0f 10 45 0c	 movss	 xmm0, DWORD PTR _v3Eye$[ebp+8]
  00083	f3 0f 58 05 00
	00 00 00	 addss	 xmm0, DWORD PTR __real@4caba950
; File D:\Metin2 Server Files\mainline\SRC_2014\M2Data\include\d3dx8math.inl

; 182  :     z = fz;

  0008b	f3 0f 11 45 3c	 movss	 DWORD PTR $T6[ebp+8], xmm0
; File D:\Metin2 Server Files\mainline\SRC_2014\Metin2Client\EterLib\GrpScreen.cpp

; 562  : 	posVertices[0] = TPosition(v3Eye.x-90000000.0f, 0.0f, v3Eye.z+90000000.0f);

  00090	6a 0c		 push	 12			; 0000000cH
  00092	58		 pop	 eax
  00093	6b c0 00	 imul	 eax, eax, 0
  00096	8d 7c 05 40	 lea	 edi, DWORD PTR _posVertices$[ebp+eax]
  0009a	8d 75 34	 lea	 esi, DWORD PTR $T6[ebp]
  0009d	a5		 movsd
  0009e	a5		 movsd
  0009f	a5		 movsd

; 563  : 	posVertices[1] = TPosition(v3Eye.x-90000000.0f, 0.0f, v3Eye.z-90000000.0f);

  000a0	f3 0f 10 45 04	 movss	 xmm0, DWORD PTR _v3Eye$[ebp]
  000a5	f3 0f 5c 05 00
	00 00 00	 subss	 xmm0, DWORD PTR __real@4caba950
; File D:\Metin2 Server Files\mainline\SRC_2014\M2Data\include\d3dx8math.inl

; 180  :     x = fx;

  000ad	f3 0f 11 45 28	 movss	 DWORD PTR $T5[ebp], xmm0

; 181  :     y = fy;

  000b2	0f 57 c0	 xorps	 xmm0, xmm0
  000b5	f3 0f 11 45 2c	 movss	 DWORD PTR $T5[ebp+4], xmm0
; File D:\Metin2 Server Files\mainline\SRC_2014\Metin2Client\EterLib\GrpScreen.cpp

; 563  : 	posVertices[1] = TPosition(v3Eye.x-90000000.0f, 0.0f, v3Eye.z-90000000.0f);

  000ba	f3 0f 10 45 0c	 movss	 xmm0, DWORD PTR _v3Eye$[ebp+8]
  000bf	f3 0f 5c 05 00
	00 00 00	 subss	 xmm0, DWORD PTR __real@4caba950
; File D:\Metin2 Server Files\mainline\SRC_2014\M2Data\include\d3dx8math.inl

; 182  :     z = fz;

  000c7	f3 0f 11 45 30	 movss	 DWORD PTR $T5[ebp+8], xmm0
; File D:\Metin2 Server Files\mainline\SRC_2014\Metin2Client\EterLib\GrpScreen.cpp

; 563  : 	posVertices[1] = TPosition(v3Eye.x-90000000.0f, 0.0f, v3Eye.z-90000000.0f);

  000cc	6a 0c		 push	 12			; 0000000cH
  000ce	58		 pop	 eax
  000cf	c1 e0 00	 shl	 eax, 0
  000d2	8d 7c 05 40	 lea	 edi, DWORD PTR _posVertices$[ebp+eax]
  000d6	8d 75 28	 lea	 esi, DWORD PTR $T5[ebp]
  000d9	a5		 movsd
  000da	a5		 movsd
  000db	a5		 movsd

; 564  : 	posVertices[2] = TPosition(v3Eye.x+90000000.0f, 0.0f, v3Eye.z+90000000.0f);

  000dc	f3 0f 10 45 04	 movss	 xmm0, DWORD PTR _v3Eye$[ebp]
  000e1	f3 0f 58 05 00
	00 00 00	 addss	 xmm0, DWORD PTR __real@4caba950
; File D:\Metin2 Server Files\mainline\SRC_2014\M2Data\include\d3dx8math.inl

; 180  :     x = fx;

  000e9	f3 0f 11 45 1c	 movss	 DWORD PTR $T4[ebp], xmm0

; 181  :     y = fy;

  000ee	0f 57 c0	 xorps	 xmm0, xmm0
  000f1	f3 0f 11 45 20	 movss	 DWORD PTR $T4[ebp+4], xmm0
; File D:\Metin2 Server Files\mainline\SRC_2014\Metin2Client\EterLib\GrpScreen.cpp

; 564  : 	posVertices[2] = TPosition(v3Eye.x+90000000.0f, 0.0f, v3Eye.z+90000000.0f);

  000f6	f3 0f 10 45 0c	 movss	 xmm0, DWORD PTR _v3Eye$[ebp+8]
  000fb	f3 0f 58 05 00
	00 00 00	 addss	 xmm0, DWORD PTR __real@4caba950
; File D:\Metin2 Server Files\mainline\SRC_2014\M2Data\include\d3dx8math.inl

; 182  :     z = fz;

  00103	f3 0f 11 45 24	 movss	 DWORD PTR $T4[ebp+8], xmm0
; File D:\Metin2 Server Files\mainline\SRC_2014\Metin2Client\EterLib\GrpScreen.cpp

; 564  : 	posVertices[2] = TPosition(v3Eye.x+90000000.0f, 0.0f, v3Eye.z+90000000.0f);

  00108	6a 0c		 push	 12			; 0000000cH
  0010a	58		 pop	 eax
  0010b	d1 e0		 shl	 eax, 1
  0010d	8d 7c 05 40	 lea	 edi, DWORD PTR _posVertices$[ebp+eax]
  00111	8d 75 1c	 lea	 esi, DWORD PTR $T4[ebp]
  00114	a5		 movsd
  00115	a5		 movsd
  00116	a5		 movsd

; 565  : 	posVertices[3] = TPosition(v3Eye.x+90000000.0f, 0.0f, v3Eye.z-90000000.0f);

  00117	f3 0f 10 45 04	 movss	 xmm0, DWORD PTR _v3Eye$[ebp]
  0011c	f3 0f 58 05 00
	00 00 00	 addss	 xmm0, DWORD PTR __real@4caba950
; File D:\Metin2 Server Files\mainline\SRC_2014\M2Data\include\d3dx8math.inl

; 180  :     x = fx;

  00124	f3 0f 11 45 10	 movss	 DWORD PTR $T3[ebp], xmm0

; 181  :     y = fy;

  00129	0f 57 c0	 xorps	 xmm0, xmm0
  0012c	f3 0f 11 45 14	 movss	 DWORD PTR $T3[ebp+4], xmm0
; File D:\Metin2 Server Files\mainline\SRC_2014\Metin2Client\EterLib\GrpScreen.cpp

; 565  : 	posVertices[3] = TPosition(v3Eye.x+90000000.0f, 0.0f, v3Eye.z-90000000.0f);

  00131	f3 0f 10 45 0c	 movss	 xmm0, DWORD PTR _v3Eye$[ebp+8]
  00136	f3 0f 5c 05 00
	00 00 00	 subss	 xmm0, DWORD PTR __real@4caba950
; File D:\Metin2 Server Files\mainline\SRC_2014\M2Data\include\d3dx8math.inl

; 182  :     z = fz;

  0013e	f3 0f 11 45 18	 movss	 DWORD PTR $T3[ebp+8], xmm0
; File D:\Metin2 Server Files\mainline\SRC_2014\Metin2Client\EterLib\GrpScreen.cpp

; 565  : 	posVertices[3] = TPosition(v3Eye.x+90000000.0f, 0.0f, v3Eye.z-90000000.0f);

  00143	6a 0c		 push	 12			; 0000000cH
  00145	58		 pop	 eax
  00146	6b c0 03	 imul	 eax, eax, 3
  00149	8d 7c 05 40	 lea	 edi, DWORD PTR _posVertices$[ebp+eax]
  0014d	8d 75 10	 lea	 esi, DWORD PTR $T3[ebp]
  00150	a5		 movsd
  00151	a5		 movsd
  00152	a5		 movsd

; 566  : 
; 567  : 	static const WORD sc_awFillRectIndices[6] = { 0, 2, 1, 2, 3, 1, };
; 568  : 
; 569  : 	float u, v, t;
; 570  : 	for (int i = 0; i < 2; ++i)

  00153	83 65 00 00	 and	 DWORD PTR _i$2[ebp], 0
  00157	eb 07		 jmp	 SHORT $LN4@GetCursorZ
$LN2@GetCursorZ:
  00159	8b 45 00	 mov	 eax, DWORD PTR _i$2[ebp]
  0015c	40		 inc	 eax
  0015d	89 45 00	 mov	 DWORD PTR _i$2[ebp], eax
$LN4@GetCursorZ:
  00160	83 7d 00 02	 cmp	 DWORD PTR _i$2[ebp], 2
  00164	0f 8d 86 00 00
	00		 jge	 $LN3@GetCursorZ

; 571  : 	{
; 572  : 		if (IntersectTriangle(ms_vtPickRayOrig, ms_vtPickRayDir,

  0016a	8d 45 e4	 lea	 eax, DWORD PTR _t$[ebp]
  0016d	50		 push	 eax
  0016e	8d 45 e0	 lea	 eax, DWORD PTR _v$[ebp]
  00171	50		 push	 eax
  00172	8d 45 dc	 lea	 eax, DWORD PTR _u$[ebp]
  00175	50		 push	 eax
  00176	6b 45 00 03	 imul	 eax, DWORD PTR _i$2[ebp], 3
  0017a	0f b7 04 45 04
	00 00 00	 movzx	 eax, WORD PTR ?sc_awFillRectIndices@?1??GetCursorZPosition@CScreen@@QAE_NPAM@Z@4QBGB[eax*2+4]
  00182	6b c0 0c	 imul	 eax, eax, 12
  00185	8d 44 05 40	 lea	 eax, DWORD PTR _posVertices$[ebp+eax]
  00189	50		 push	 eax
  0018a	6b 45 00 03	 imul	 eax, DWORD PTR _i$2[ebp], 3
  0018e	0f b7 04 45 02
	00 00 00	 movzx	 eax, WORD PTR ?sc_awFillRectIndices@?1??GetCursorZPosition@CScreen@@QAE_NPAM@Z@4QBGB[eax*2+2]
  00196	6b c0 0c	 imul	 eax, eax, 12
  00199	8d 44 05 40	 lea	 eax, DWORD PTR _posVertices$[ebp+eax]
  0019d	50		 push	 eax
  0019e	6b 45 00 03	 imul	 eax, DWORD PTR _i$2[ebp], 3
  001a2	0f b7 04 45 00
	00 00 00	 movzx	 eax, WORD PTR ?sc_awFillRectIndices@?1??GetCursorZPosition@CScreen@@QAE_NPAM@Z@4QBGB[eax*2]
  001aa	6b c0 0c	 imul	 eax, eax, 12
  001ad	8d 44 05 40	 lea	 eax, DWORD PTR _posVertices$[ebp+eax]
  001b1	50		 push	 eax
  001b2	68 00 00 00 00	 push	 OFFSET ?ms_vtPickRayDir@CGraphicBase@@1UD3DXVECTOR3@@A ; CGraphicBase::ms_vtPickRayDir
  001b7	68 00 00 00 00	 push	 OFFSET ?ms_vtPickRayOrig@CGraphicBase@@1UD3DXVECTOR3@@A ; CGraphicBase::ms_vtPickRayOrig
  001bc	8b 4d e8	 mov	 ecx, DWORD PTR _this$[ebp]
  001bf	e8 00 00 00 00	 call	 ?IntersectTriangle@CGraphicCollisionObject@@IAE_NABUD3DXVECTOR3@@0000PAM11@Z ; CGraphicCollisionObject::IntersectTriangle
  001c4	0f b6 c0	 movzx	 eax, al
  001c7	85 c0		 test	 eax, eax
  001c9	74 20		 je	 SHORT $LN5@GetCursorZ

; 573  : 							 posVertices[sc_awFillRectIndices[i*3+0]],
; 574  : 							 posVertices[sc_awFillRectIndices[i*3+1]],
; 575  : 							 posVertices[sc_awFillRectIndices[i*3+2]],
; 576  : 							 &u, &v, &t))
; 577  : 		{
; 578  : 			*pz = ms_vtPickRayOrig.z + ms_vtPickRayDir.z * t;

  001cb	f3 0f 10 05 08
	00 00 00	 movss	 xmm0, DWORD PTR ?ms_vtPickRayDir@CGraphicBase@@1UD3DXVECTOR3@@A+8
  001d3	f3 0f 59 45 e4	 mulss	 xmm0, DWORD PTR _t$[ebp]
  001d8	f3 0f 58 05 08
	00 00 00	 addss	 xmm0, DWORD PTR ?ms_vtPickRayOrig@CGraphicBase@@1UD3DXVECTOR3@@A+8
  001e0	8b 45 7c	 mov	 eax, DWORD PTR _pz$[ebp]
  001e3	f3 0f 11 00	 movss	 DWORD PTR [eax], xmm0

; 579  : 			return true;

  001e7	b0 01		 mov	 al, 1
  001e9	eb 07		 jmp	 SHORT $LN1@GetCursorZ
$LN5@GetCursorZ:

; 580  : 		}
; 581  : 	}

  001eb	e9 69 ff ff ff	 jmp	 $LN2@GetCursorZ
$LN3@GetCursorZ:

; 582  : 	return false;

  001f0	32 c0		 xor	 al, al
$LN1@GetCursorZ:

; 583  : }

  001f2	5f		 pop	 edi
  001f3	5e		 pop	 esi
  001f4	8b 4d 70	 mov	 ecx, DWORD PTR __$ArrayPad$[ebp]
  001f7	33 cd		 xor	 ecx, ebp
  001f9	e8 00 00 00 00	 call	 @__security_check_cookie@4
  001fe	83 c5 74	 add	 ebp, 116		; 00000074H
  00201	c9		 leave
  00202	c2 04 00	 ret	 4
?GetCursorZPosition@CScreen@@QAE_NPAM@Z ENDP		; CScreen::GetCursorZPosition
_TEXT	ENDS
; Function compile flags: /Odspy
; File D:\Metin2 Server Files\mainline\SRC_2014\Metin2Client\EterLib\GrpScreen.cpp
; File D:\Metin2 Server Files\mainline\SRC_2014\Metin2Client\eterBase\Singleton.h
; File D:\Metin2 Server Files\mainline\SRC_2014\Metin2Client\EterLib\GrpScreen.cpp
; File D:\Metin2 Server Files\mainline\SRC_2014\Metin2Client\EterLib\Camera.h
; File D:\Metin2 Server Files\mainline\SRC_2014\Metin2Client\EterLib\GrpScreen.cpp
; File D:\Metin2 Server Files\mainline\SRC_2014\M2Data\include\d3dx8math.inl
; File D:\Metin2 Server Files\mainline\SRC_2014\Metin2Client\EterLib\GrpScreen.cpp
; File D:\Metin2 Server Files\mainline\SRC_2014\M2Data\include\d3dx8math.inl
; File D:\Metin2 Server Files\mainline\SRC_2014\Metin2Client\EterLib\GrpScreen.cpp
; File D:\Metin2 Server Files\mainline\SRC_2014\M2Data\include\d3dx8math.inl
; File D:\Metin2 Server Files\mainline\SRC_2014\Metin2Client\EterLib\GrpScreen.cpp
; File D:\Metin2 Server Files\mainline\SRC_2014\M2Data\include\d3dx8math.inl
; File D:\Metin2 Server Files\mainline\SRC_2014\Metin2Client\EterLib\GrpScreen.cpp
; File D:\Metin2 Server Files\mainline\SRC_2014\M2Data\include\d3dx8math.inl
; File D:\Metin2 Server Files\mainline\SRC_2014\Metin2Client\EterLib\GrpScreen.cpp
; File D:\Metin2 Server Files\mainline\SRC_2014\M2Data\include\d3dx8math.inl
; File D:\Metin2 Server Files\mainline\SRC_2014\Metin2Client\EterLib\GrpScreen.cpp
; File D:\Metin2 Server Files\mainline\SRC_2014\M2Data\include\d3dx8math.inl
; File D:\Metin2 Server Files\mainline\SRC_2014\Metin2Client\EterLib\GrpScreen.cpp
; File D:\Metin2 Server Files\mainline\SRC_2014\M2Data\include\d3dx8math.inl
; File D:\Metin2 Server Files\mainline\SRC_2014\Metin2Client\EterLib\GrpScreen.cpp
;	COMDAT ?GetCursorXYPosition@CScreen@@QAE_NPAM0@Z
_TEXT	SEGMENT
_u$ = -40						; size = 4
_v$ = -36						; size = 4
_this$ = -32						; size = 4
tv251 = -28						; size = 4
_this$ = -24						; size = 4
$T1 = -20						; size = 4
_t$ = -16						; size = 4
___t$ = -12						; size = 4
___n$ = -8						; size = 4
_i$2 = -4						; size = 4
_v3Eye$ = 0						; size = 12
$T3 = 12						; size = 12
$T4 = 24						; size = 12
$T5 = 36						; size = 12
$T6 = 48						; size = 12
_posVertices$ = 60					; size = 48
__$ArrayPad$ = 108					; size = 4
_px$ = 120						; size = 4
_py$ = 124						; size = 4
?GetCursorXYPosition@CScreen@@QAE_NPAM0@Z PROC		; CScreen::GetCursorXYPosition, COMDAT
; _this$ = ecx

; 529  : {

  00000	55		 push	 ebp
  00001	8d 6c 24 90	 lea	 ebp, DWORD PTR [esp-112]
  00005	81 ec 98 00 00
	00		 sub	 esp, 152		; 00000098H
  0000b	a1 00 00 00 00	 mov	 eax, DWORD PTR ___security_cookie
  00010	33 c5		 xor	 eax, ebp
  00012	89 45 6c	 mov	 DWORD PTR __$ArrayPad$[ebp], eax
  00015	56		 push	 esi
  00016	57		 push	 edi
  00017	89 4d e0	 mov	 DWORD PTR _this$[ebp], ecx
; File D:\Metin2 Server Files\mainline\SRC_2014\Metin2Client\eterBase\Singleton.h

; 27   : 		return (*ms_singleton);

  0001a	a1 00 00 00 00	 mov	 eax, DWORD PTR ?ms_singleton@?$CSingleton@VCCameraManager@@@@0PAVCCameraManager@@A ; CSingleton<CCameraManager>::ms_singleton
  0001f	89 45 ec	 mov	 DWORD PTR $T1[ebp], eax
; File D:\Metin2 Server Files\mainline\SRC_2014\Metin2Client\EterLib\GrpScreen.cpp

; 530  : 	D3DXVECTOR3 v3Eye = CCameraManager::Instance().GetCurrentCamera()->GetEye();

  00022	8b 4d ec	 mov	 ecx, DWORD PTR $T1[ebp]
  00025	e8 00 00 00 00	 call	 ?GetCurrentCamera@CCameraManager@@QAEPAVCCamera@@XZ ; CCameraManager::GetCurrentCamera
  0002a	89 45 e8	 mov	 DWORD PTR _this$[ebp], eax
; File D:\Metin2 Server Files\mainline\SRC_2014\Metin2Client\EterLib\Camera.h

; 168  : 		const D3DXVECTOR3 & GetEye() const		{ return m_v3Eye; }

  0002d	8b 75 e8	 mov	 esi, DWORD PTR _this$[ebp]
  00030	83 c6 30	 add	 esi, 48			; 00000030H
; File D:\Metin2 Server Files\mainline\SRC_2014\Metin2Client\EterLib\GrpScreen.cpp

; 530  : 	D3DXVECTOR3 v3Eye = CCameraManager::Instance().GetCurrentCamera()->GetEye();

  00033	8d 7d 00	 lea	 edi, DWORD PTR _v3Eye$[ebp]
  00036	a5		 movsd
  00037	a5		 movsd
  00038	a5		 movsd

; 531  : 
; 532  : 	TPosition posVertices[4];

  00039	c7 45 f8 04 00
	00 00		 mov	 DWORD PTR ___n$[ebp], 4
  00040	8d 45 3c	 lea	 eax, DWORD PTR _posVertices$[ebp]
  00043	89 45 f4	 mov	 DWORD PTR ___t$[ebp], eax
$LN12@GetCursorX:
  00046	8b 45 f8	 mov	 eax, DWORD PTR ___n$[ebp]
  00049	89 45 e4	 mov	 DWORD PTR tv251[ebp], eax
  0004c	8b 45 f8	 mov	 eax, DWORD PTR ___n$[ebp]
  0004f	48		 dec	 eax
  00050	89 45 f8	 mov	 DWORD PTR ___n$[ebp], eax
  00053	83 7d e4 00	 cmp	 DWORD PTR tv251[ebp], 0
  00057	76 0b		 jbe	 SHORT $LN13@GetCursorX
  00059	8b 45 f4	 mov	 eax, DWORD PTR ___t$[ebp]
  0005c	83 c0 0c	 add	 eax, 12			; 0000000cH
  0005f	89 45 f4	 mov	 DWORD PTR ___t$[ebp], eax
  00062	eb e2		 jmp	 SHORT $LN12@GetCursorX
$LN13@GetCursorX:

; 533  : 	posVertices[0] = TPosition(v3Eye.x-90000000.0f, v3Eye.y+90000000.0f, 0.0f);

  00064	f3 0f 10 45 00	 movss	 xmm0, DWORD PTR _v3Eye$[ebp]
  00069	f3 0f 5c 05 00
	00 00 00	 subss	 xmm0, DWORD PTR __real@4caba950
; File D:\Metin2 Server Files\mainline\SRC_2014\M2Data\include\d3dx8math.inl

; 180  :     x = fx;

  00071	f3 0f 11 45 30	 movss	 DWORD PTR $T6[ebp], xmm0
; File D:\Metin2 Server Files\mainline\SRC_2014\Metin2Client\EterLib\GrpScreen.cpp

; 533  : 	posVertices[0] = TPosition(v3Eye.x-90000000.0f, v3Eye.y+90000000.0f, 0.0f);

  00076	f3 0f 10 45 04	 movss	 xmm0, DWORD PTR _v3Eye$[ebp+4]
  0007b	f3 0f 58 05 00
	00 00 00	 addss	 xmm0, DWORD PTR __real@4caba950
; File D:\Metin2 Server Files\mainline\SRC_2014\M2Data\include\d3dx8math.inl

; 181  :     y = fy;

  00083	f3 0f 11 45 34	 movss	 DWORD PTR $T6[ebp+4], xmm0

; 182  :     z = fz;

  00088	0f 57 c0	 xorps	 xmm0, xmm0
  0008b	f3 0f 11 45 38	 movss	 DWORD PTR $T6[ebp+8], xmm0
; File D:\Metin2 Server Files\mainline\SRC_2014\Metin2Client\EterLib\GrpScreen.cpp

; 533  : 	posVertices[0] = TPosition(v3Eye.x-90000000.0f, v3Eye.y+90000000.0f, 0.0f);

  00090	6a 0c		 push	 12			; 0000000cH
  00092	58		 pop	 eax
  00093	6b c0 00	 imul	 eax, eax, 0
  00096	8d 7c 05 3c	 lea	 edi, DWORD PTR _posVertices$[ebp+eax]
  0009a	8d 75 30	 lea	 esi, DWORD PTR $T6[ebp]
  0009d	a5		 movsd
  0009e	a5		 movsd
  0009f	a5		 movsd

; 534  : 	posVertices[1] = TPosition(v3Eye.x-90000000.0f, v3Eye.y-90000000.0f, 0.0f);

  000a0	f3 0f 10 45 00	 movss	 xmm0, DWORD PTR _v3Eye$[ebp]
  000a5	f3 0f 5c 05 00
	00 00 00	 subss	 xmm0, DWORD PTR __real@4caba950
; File D:\Metin2 Server Files\mainline\SRC_2014\M2Data\include\d3dx8math.inl

; 180  :     x = fx;

  000ad	f3 0f 11 45 24	 movss	 DWORD PTR $T5[ebp], xmm0
; File D:\Metin2 Server Files\mainline\SRC_2014\Metin2Client\EterLib\GrpScreen.cpp

; 534  : 	posVertices[1] = TPosition(v3Eye.x-90000000.0f, v3Eye.y-90000000.0f, 0.0f);

  000b2	f3 0f 10 45 04	 movss	 xmm0, DWORD PTR _v3Eye$[ebp+4]
  000b7	f3 0f 5c 05 00
	00 00 00	 subss	 xmm0, DWORD PTR __real@4caba950
; File D:\Metin2 Server Files\mainline\SRC_2014\M2Data\include\d3dx8math.inl

; 181  :     y = fy;

  000bf	f3 0f 11 45 28	 movss	 DWORD PTR $T5[ebp+4], xmm0

; 182  :     z = fz;

  000c4	0f 57 c0	 xorps	 xmm0, xmm0
  000c7	f3 0f 11 45 2c	 movss	 DWORD PTR $T5[ebp+8], xmm0
; File D:\Metin2 Server Files\mainline\SRC_2014\Metin2Client\EterLib\GrpScreen.cpp

; 534  : 	posVertices[1] = TPosition(v3Eye.x-90000000.0f, v3Eye.y-90000000.0f, 0.0f);

  000cc	6a 0c		 push	 12			; 0000000cH
  000ce	58		 pop	 eax
  000cf	c1 e0 00	 shl	 eax, 0
  000d2	8d 7c 05 3c	 lea	 edi, DWORD PTR _posVertices$[ebp+eax]
  000d6	8d 75 24	 lea	 esi, DWORD PTR $T5[ebp]
  000d9	a5		 movsd
  000da	a5		 movsd
  000db	a5		 movsd

; 535  : 	posVertices[2] = TPosition(v3Eye.x+90000000.0f, v3Eye.y+90000000.0f, 0.0f);

  000dc	f3 0f 10 45 00	 movss	 xmm0, DWORD PTR _v3Eye$[ebp]
  000e1	f3 0f 58 05 00
	00 00 00	 addss	 xmm0, DWORD PTR __real@4caba950
; File D:\Metin2 Server Files\mainline\SRC_2014\M2Data\include\d3dx8math.inl

; 180  :     x = fx;

  000e9	f3 0f 11 45 18	 movss	 DWORD PTR $T4[ebp], xmm0
; File D:\Metin2 Server Files\mainline\SRC_2014\Metin2Client\EterLib\GrpScreen.cpp

; 535  : 	posVertices[2] = TPosition(v3Eye.x+90000000.0f, v3Eye.y+90000000.0f, 0.0f);

  000ee	f3 0f 10 45 04	 movss	 xmm0, DWORD PTR _v3Eye$[ebp+4]
  000f3	f3 0f 58 05 00
	00 00 00	 addss	 xmm0, DWORD PTR __real@4caba950
; File D:\Metin2 Server Files\mainline\SRC_2014\M2Data\include\d3dx8math.inl

; 181  :     y = fy;

  000fb	f3 0f 11 45 1c	 movss	 DWORD PTR $T4[ebp+4], xmm0

; 182  :     z = fz;

  00100	0f 57 c0	 xorps	 xmm0, xmm0
  00103	f3 0f 11 45 20	 movss	 DWORD PTR $T4[ebp+8], xmm0
; File D:\Metin2 Server Files\mainline\SRC_2014\Metin2Client\EterLib\GrpScreen.cpp

; 535  : 	posVertices[2] = TPosition(v3Eye.x+90000000.0f, v3Eye.y+90000000.0f, 0.0f);

  00108	6a 0c		 push	 12			; 0000000cH
  0010a	58		 pop	 eax
  0010b	d1 e0		 shl	 eax, 1
  0010d	8d 7c 05 3c	 lea	 edi, DWORD PTR _posVertices$[ebp+eax]
  00111	8d 75 18	 lea	 esi, DWORD PTR $T4[ebp]
  00114	a5		 movsd
  00115	a5		 movsd
  00116	a5		 movsd

; 536  : 	posVertices[3] = TPosition(v3Eye.x+90000000.0f, v3Eye.y-90000000.0f, 0.0f);

  00117	f3 0f 10 45 00	 movss	 xmm0, DWORD PTR _v3Eye$[ebp]
  0011c	f3 0f 58 05 00
	00 00 00	 addss	 xmm0, DWORD PTR __real@4caba950
; File D:\Metin2 Server Files\mainline\SRC_2014\M2Data\include\d3dx8math.inl

; 180  :     x = fx;

  00124	f3 0f 11 45 0c	 movss	 DWORD PTR $T3[ebp], xmm0
; File D:\Metin2 Server Files\mainline\SRC_2014\Metin2Client\EterLib\GrpScreen.cpp

; 536  : 	posVertices[3] = TPosition(v3Eye.x+90000000.0f, v3Eye.y-90000000.0f, 0.0f);

  00129	f3 0f 10 45 04	 movss	 xmm0, DWORD PTR _v3Eye$[ebp+4]
  0012e	f3 0f 5c 05 00
	00 00 00	 subss	 xmm0, DWORD PTR __real@4caba950
; File D:\Metin2 Server Files\mainline\SRC_2014\M2Data\include\d3dx8math.inl

; 181  :     y = fy;

  00136	f3 0f 11 45 10	 movss	 DWORD PTR $T3[ebp+4], xmm0

; 182  :     z = fz;

  0013b	0f 57 c0	 xorps	 xmm0, xmm0
  0013e	f3 0f 11 45 14	 movss	 DWORD PTR $T3[ebp+8], xmm0
; File D:\Metin2 Server Files\mainline\SRC_2014\Metin2Client\EterLib\GrpScreen.cpp

; 536  : 	posVertices[3] = TPosition(v3Eye.x+90000000.0f, v3Eye.y-90000000.0f, 0.0f);

  00143	6a 0c		 push	 12			; 0000000cH
  00145	58		 pop	 eax
  00146	6b c0 03	 imul	 eax, eax, 3
  00149	8d 7c 05 3c	 lea	 edi, DWORD PTR _posVertices$[ebp+eax]
  0014d	8d 75 0c	 lea	 esi, DWORD PTR $T3[ebp]
  00150	a5		 movsd
  00151	a5		 movsd
  00152	a5		 movsd

; 537  : 
; 538  : 	static const WORD sc_awFillRectIndices[6] = { 0, 2, 1, 2, 3, 1, };
; 539  : 
; 540  : 	float u, v, t;	
; 541  : 	for (int i = 0; i < 2; ++i)

  00153	83 65 fc 00	 and	 DWORD PTR _i$2[ebp], 0
  00157	eb 07		 jmp	 SHORT $LN4@GetCursorX
$LN2@GetCursorX:
  00159	8b 45 fc	 mov	 eax, DWORD PTR _i$2[ebp]
  0015c	40		 inc	 eax
  0015d	89 45 fc	 mov	 DWORD PTR _i$2[ebp], eax
$LN4@GetCursorX:
  00160	83 7d fc 02	 cmp	 DWORD PTR _i$2[ebp], 2
  00164	0f 8d a2 00 00
	00		 jge	 $LN3@GetCursorX

; 542  : 	{
; 543  : 		if (IntersectTriangle(ms_vtPickRayOrig, ms_vtPickRayDir,

  0016a	8d 45 f0	 lea	 eax, DWORD PTR _t$[ebp]
  0016d	50		 push	 eax
  0016e	8d 45 dc	 lea	 eax, DWORD PTR _v$[ebp]
  00171	50		 push	 eax
  00172	8d 45 d8	 lea	 eax, DWORD PTR _u$[ebp]
  00175	50		 push	 eax
  00176	6b 45 fc 03	 imul	 eax, DWORD PTR _i$2[ebp], 3
  0017a	0f b7 04 45 04
	00 00 00	 movzx	 eax, WORD PTR ?sc_awFillRectIndices@?1??GetCursorXYPosition@CScreen@@QAE_NPAM0@Z@4QBGB[eax*2+4]
  00182	6b c0 0c	 imul	 eax, eax, 12
  00185	8d 44 05 3c	 lea	 eax, DWORD PTR _posVertices$[ebp+eax]
  00189	50		 push	 eax
  0018a	6b 45 fc 03	 imul	 eax, DWORD PTR _i$2[ebp], 3
  0018e	0f b7 04 45 02
	00 00 00	 movzx	 eax, WORD PTR ?sc_awFillRectIndices@?1??GetCursorXYPosition@CScreen@@QAE_NPAM0@Z@4QBGB[eax*2+2]
  00196	6b c0 0c	 imul	 eax, eax, 12
  00199	8d 44 05 3c	 lea	 eax, DWORD PTR _posVertices$[ebp+eax]
  0019d	50		 push	 eax
  0019e	6b 45 fc 03	 imul	 eax, DWORD PTR _i$2[ebp], 3
  001a2	0f b7 04 45 00
	00 00 00	 movzx	 eax, WORD PTR ?sc_awFillRectIndices@?1??GetCursorXYPosition@CScreen@@QAE_NPAM0@Z@4QBGB[eax*2]
  001aa	6b c0 0c	 imul	 eax, eax, 12
  001ad	8d 44 05 3c	 lea	 eax, DWORD PTR _posVertices$[ebp+eax]
  001b1	50		 push	 eax
  001b2	68 00 00 00 00	 push	 OFFSET ?ms_vtPickRayDir@CGraphicBase@@1UD3DXVECTOR3@@A ; CGraphicBase::ms_vtPickRayDir
  001b7	68 00 00 00 00	 push	 OFFSET ?ms_vtPickRayOrig@CGraphicBase@@1UD3DXVECTOR3@@A ; CGraphicBase::ms_vtPickRayOrig
  001bc	8b 4d e0	 mov	 ecx, DWORD PTR _this$[ebp]
  001bf	e8 00 00 00 00	 call	 ?IntersectTriangle@CGraphicCollisionObject@@IAE_NABUD3DXVECTOR3@@0000PAM11@Z ; CGraphicCollisionObject::IntersectTriangle
  001c4	0f b6 c0	 movzx	 eax, al
  001c7	85 c0		 test	 eax, eax
  001c9	74 3c		 je	 SHORT $LN5@GetCursorX

; 544  : 							 posVertices[sc_awFillRectIndices[i*3+0]],
; 545  : 							 posVertices[sc_awFillRectIndices[i*3+1]],
; 546  : 							 posVertices[sc_awFillRectIndices[i*3+2]],
; 547  : 							 &u, &v, &t))
; 548  : 		{
; 549  : 			*px = ms_vtPickRayOrig.x + ms_vtPickRayDir.x * t;

  001cb	f3 0f 10 05 00
	00 00 00	 movss	 xmm0, DWORD PTR ?ms_vtPickRayDir@CGraphicBase@@1UD3DXVECTOR3@@A
  001d3	f3 0f 59 45 f0	 mulss	 xmm0, DWORD PTR _t$[ebp]
  001d8	f3 0f 58 05 00
	00 00 00	 addss	 xmm0, DWORD PTR ?ms_vtPickRayOrig@CGraphicBase@@1UD3DXVECTOR3@@A
  001e0	8b 45 78	 mov	 eax, DWORD PTR _px$[ebp]
  001e3	f3 0f 11 00	 movss	 DWORD PTR [eax], xmm0

; 550  : 			*py = ms_vtPickRayOrig.y + ms_vtPickRayDir.y * t;

  001e7	f3 0f 10 05 04
	00 00 00	 movss	 xmm0, DWORD PTR ?ms_vtPickRayDir@CGraphicBase@@1UD3DXVECTOR3@@A+4
  001ef	f3 0f 59 45 f0	 mulss	 xmm0, DWORD PTR _t$[ebp]
  001f4	f3 0f 58 05 04
	00 00 00	 addss	 xmm0, DWORD PTR ?ms_vtPickRayOrig@CGraphicBase@@1UD3DXVECTOR3@@A+4
  001fc	8b 45 7c	 mov	 eax, DWORD PTR _py$[ebp]
  001ff	f3 0f 11 00	 movss	 DWORD PTR [eax], xmm0

; 551  : 			return true;

  00203	b0 01		 mov	 al, 1
  00205	eb 07		 jmp	 SHORT $LN1@GetCursorX
$LN5@GetCursorX:

; 552  : 		}
; 553  : 	}

  00207	e9 4d ff ff ff	 jmp	 $LN2@GetCursorX
$LN3@GetCursorX:

; 554  : 	return false;

  0020c	32 c0		 xor	 al, al
$LN1@GetCursorX:

; 555  : }

  0020e	5f		 pop	 edi
  0020f	5e		 pop	 esi
  00210	8b 4d 6c	 mov	 ecx, DWORD PTR __$ArrayPad$[ebp]
  00213	33 cd		 xor	 ecx, ebp
  00215	e8 00 00 00 00	 call	 @__security_check_cookie@4
  0021a	83 c5 70	 add	 ebp, 112		; 00000070H
  0021d	c9		 leave
  0021e	c2 08 00	 ret	 8
?GetCursorXYPosition@CScreen@@QAE_NPAM0@Z ENDP		; CScreen::GetCursorXYPosition
_TEXT	ENDS
; Function compile flags: /Odspy
; File D:\Metin2 Server Files\mainline\SRC_2014\Metin2Client\EterLib\GrpScreen.cpp
;	COMDAT ?GetCursorPosition@CScreen@@QAE_NPAM00@Z
_TEXT	SEGMENT
_this$ = -4						; size = 4
_px$ = 8						; size = 4
_py$ = 12						; size = 4
_pz$ = 16						; size = 4
?GetCursorPosition@CScreen@@QAE_NPAM00@Z PROC		; CScreen::GetCursorPosition, COMDAT
; _this$ = ecx

; 521  : {

  00000	55		 push	 ebp
  00001	8b ec		 mov	 ebp, esp
  00003	51		 push	 ecx
  00004	89 4d fc	 mov	 DWORD PTR _this$[ebp], ecx

; 522  : 	if (!GetCursorXYPosition(px, py)) return false;

  00007	ff 75 0c	 push	 DWORD PTR _py$[ebp]
  0000a	ff 75 08	 push	 DWORD PTR _px$[ebp]
  0000d	8b 4d fc	 mov	 ecx, DWORD PTR _this$[ebp]
  00010	e8 00 00 00 00	 call	 ?GetCursorXYPosition@CScreen@@QAE_NPAM0@Z ; CScreen::GetCursorXYPosition
  00015	0f b6 c0	 movzx	 eax, al
  00018	85 c0		 test	 eax, eax
  0001a	75 04		 jne	 SHORT $LN2@GetCursorP
  0001c	32 c0		 xor	 al, al
  0001e	eb 18		 jmp	 SHORT $LN1@GetCursorP
$LN2@GetCursorP:

; 523  : 	if (!GetCursorZPosition(pz)) return false;

  00020	ff 75 10	 push	 DWORD PTR _pz$[ebp]
  00023	8b 4d fc	 mov	 ecx, DWORD PTR _this$[ebp]
  00026	e8 00 00 00 00	 call	 ?GetCursorZPosition@CScreen@@QAE_NPAM@Z ; CScreen::GetCursorZPosition
  0002b	0f b6 c0	 movzx	 eax, al
  0002e	85 c0		 test	 eax, eax
  00030	75 04		 jne	 SHORT $LN3@GetCursorP
  00032	32 c0		 xor	 al, al
  00034	eb 02		 jmp	 SHORT $LN1@GetCursorP
$LN3@GetCursorP:

; 524  : 
; 525  : 	return true;

  00036	b0 01		 mov	 al, 1
$LN1@GetCursorP:

; 526  : }

  00038	c9		 leave
  00039	c2 0c 00	 ret	 12			; 0000000cH
?GetCursorPosition@CScreen@@QAE_NPAM00@Z ENDP		; CScreen::GetCursorPosition
_TEXT	ENDS
; Function compile flags: /Odspy
; File D:\Metin2 Server Files\mainline\SRC_2014\Metin2Client\EterLib\GrpScreen.cpp
; File D:\Metin2 Server Files\mainline\SRC_2014\Metin2Client\EterLib\Ray.h
; File D:\Metin2 Server Files\mainline\SRC_2014\M2Data\include\d3dx8math.inl
; File D:\Metin2 Server Files\mainline\SRC_2014\Metin2Client\EterLib\GrpScreen.cpp
;	COMDAT ?SetCursorPosition@CScreen@@QAEXHHHH@Z
_TEXT	SEGMENT
_this$ = -108						; size = 4
_fz$ = -104						; size = 4
_fy$ = -100						; size = 4
_fx$ = -96						; size = 4
_matViewInverse$ = -92					; size = 64
$T1 = -28						; size = 12
_v$ = -16						; size = 12
__$ArrayPad$ = -4					; size = 4
_x$ = 8							; size = 4
_y$ = 12						; size = 4
_hres$ = 16						; size = 4
_vres$ = 20						; size = 4
?SetCursorPosition@CScreen@@QAEXHHHH@Z PROC		; CScreen::SetCursorPosition, COMDAT
; _this$ = ecx

; 488  : {

  00000	55		 push	 ebp
  00001	8b ec		 mov	 ebp, esp
  00003	83 ec 6c	 sub	 esp, 108		; 0000006cH
  00006	a1 00 00 00 00	 mov	 eax, DWORD PTR ___security_cookie
  0000b	33 c5		 xor	 eax, ebp
  0000d	89 45 fc	 mov	 DWORD PTR __$ArrayPad$[ebp], eax
  00010	56		 push	 esi
  00011	57		 push	 edi
  00012	89 4d 94	 mov	 DWORD PTR _this$[ebp], ecx

; 489  : 	D3DXVECTOR3 v;
; 490  : 	v.x = -(((2.0f * x) / hres) - 1) / ms_matProj._11;

  00015	f3 0f 2a 45 08	 cvtsi2ss xmm0, DWORD PTR _x$[ebp]
  0001a	f3 0f 59 05 00
	00 00 00	 mulss	 xmm0, DWORD PTR __real@40000000
  00022	f3 0f 2a 4d 10	 cvtsi2ss xmm1, DWORD PTR _hres$[ebp]
  00027	f3 0f 5e c1	 divss	 xmm0, xmm1
  0002b	f3 0f 5c 05 00
	00 00 00	 subss	 xmm0, DWORD PTR __real@3f800000
  00033	0f 57 05 00 00
	00 00		 xorps	 xmm0, DWORD PTR __xmm@80000000800000008000000080000000
  0003a	f3 0f 5e 05 00
	00 00 00	 divss	 xmm0, DWORD PTR ?ms_matProj@CGraphicBase@@1UD3DXMATRIX@@A
  00042	f3 0f 11 45 f0	 movss	 DWORD PTR _v$[ebp], xmm0

; 491  : 	v.y = (((2.0f * y) / vres) - 1) / ms_matProj._22;

  00047	f3 0f 2a 45 0c	 cvtsi2ss xmm0, DWORD PTR _y$[ebp]
  0004c	f3 0f 59 05 00
	00 00 00	 mulss	 xmm0, DWORD PTR __real@40000000
  00054	f3 0f 2a 4d 14	 cvtsi2ss xmm1, DWORD PTR _vres$[ebp]
  00059	f3 0f 5e c1	 divss	 xmm0, xmm1
  0005d	f3 0f 5c 05 00
	00 00 00	 subss	 xmm0, DWORD PTR __real@3f800000
  00065	f3 0f 5e 05 14
	00 00 00	 divss	 xmm0, DWORD PTR ?ms_matProj@CGraphicBase@@1UD3DXMATRIX@@A+20
  0006d	f3 0f 11 45 f4	 movss	 DWORD PTR _v$[ebp+4], xmm0

; 492  : 	v.z = 1.0f;

  00072	f3 0f 10 05 00
	00 00 00	 movss	 xmm0, DWORD PTR __real@3f800000
  0007a	f3 0f 11 45 f8	 movss	 DWORD PTR _v$[ebp+8], xmm0

; 493  : 
; 494  :     D3DXMATRIX matViewInverse=ms_matInverseView;

  0007f	6a 10		 push	 16			; 00000010H
  00081	59		 pop	 ecx
  00082	be 00 00 00 00	 mov	 esi, OFFSET ?ms_matInverseView@CGraphicBase@@1UD3DXMATRIX@@A ; CGraphicBase::ms_matInverseView
  00087	8d 7d a4	 lea	 edi, DWORD PTR _matViewInverse$[ebp]
  0008a	f3 a5		 rep movsd

; 495  :     //D3DXMatrixInverse(&matViewInverse, NULL, &ms_matView);
; 496  : 
; 497  :     ms_vtPickRayDir.x = v.x * matViewInverse._11 + 

  0008c	f3 0f 10 45 f0	 movss	 xmm0, DWORD PTR _v$[ebp]
  00091	f3 0f 59 45 a4	 mulss	 xmm0, DWORD PTR _matViewInverse$[ebp]
  00096	f3 0f 10 4d f4	 movss	 xmm1, DWORD PTR _v$[ebp+4]
  0009b	f3 0f 59 4d b4	 mulss	 xmm1, DWORD PTR _matViewInverse$[ebp+16]
  000a0	f3 0f 58 c1	 addss	 xmm0, xmm1
  000a4	f3 0f 10 4d f8	 movss	 xmm1, DWORD PTR _v$[ebp+8]
  000a9	f3 0f 59 4d c4	 mulss	 xmm1, DWORD PTR _matViewInverse$[ebp+32]
  000ae	f3 0f 58 c1	 addss	 xmm0, xmm1
  000b2	f3 0f 11 05 00
	00 00 00	 movss	 DWORD PTR ?ms_vtPickRayDir@CGraphicBase@@1UD3DXVECTOR3@@A, xmm0

; 498  : 						v.y * matViewInverse._21 +
; 499  : 						v.z * matViewInverse._31;
; 500  : 
; 501  :     ms_vtPickRayDir.y = v.x * matViewInverse._12 +

  000ba	f3 0f 10 45 f0	 movss	 xmm0, DWORD PTR _v$[ebp]
  000bf	f3 0f 59 45 a8	 mulss	 xmm0, DWORD PTR _matViewInverse$[ebp+4]
  000c4	f3 0f 10 4d f4	 movss	 xmm1, DWORD PTR _v$[ebp+4]
  000c9	f3 0f 59 4d b8	 mulss	 xmm1, DWORD PTR _matViewInverse$[ebp+20]
  000ce	f3 0f 58 c1	 addss	 xmm0, xmm1
  000d2	f3 0f 10 4d f8	 movss	 xmm1, DWORD PTR _v$[ebp+8]
  000d7	f3 0f 59 4d c8	 mulss	 xmm1, DWORD PTR _matViewInverse$[ebp+36]
  000dc	f3 0f 58 c1	 addss	 xmm0, xmm1
  000e0	f3 0f 11 05 04
	00 00 00	 movss	 DWORD PTR ?ms_vtPickRayDir@CGraphicBase@@1UD3DXVECTOR3@@A+4, xmm0

; 502  : 						v.y * matViewInverse._22 +
; 503  : 						v.z * matViewInverse._32;
; 504  : 
; 505  :     ms_vtPickRayDir.z = v.x * matViewInverse._13 +

  000e8	f3 0f 10 45 f0	 movss	 xmm0, DWORD PTR _v$[ebp]
  000ed	f3 0f 59 45 ac	 mulss	 xmm0, DWORD PTR _matViewInverse$[ebp+8]
  000f2	f3 0f 10 4d f4	 movss	 xmm1, DWORD PTR _v$[ebp+4]
  000f7	f3 0f 59 4d bc	 mulss	 xmm1, DWORD PTR _matViewInverse$[ebp+24]
  000fc	f3 0f 58 c1	 addss	 xmm0, xmm1
  00100	f3 0f 10 4d f8	 movss	 xmm1, DWORD PTR _v$[ebp+8]
  00105	f3 0f 59 4d cc	 mulss	 xmm1, DWORD PTR _matViewInverse$[ebp+40]
  0010a	f3 0f 58 c1	 addss	 xmm0, xmm1
  0010e	f3 0f 11 05 08
	00 00 00	 movss	 DWORD PTR ?ms_vtPickRayDir@CGraphicBase@@1UD3DXVECTOR3@@A+8, xmm0

; 506  : 						v.y * matViewInverse._23 +
; 507  : 						v.z * matViewInverse._33;
; 508  : 
; 509  :     ms_vtPickRayOrig.x = matViewInverse._41;

  00116	f3 0f 10 45 d4	 movss	 xmm0, DWORD PTR _matViewInverse$[ebp+48]
  0011b	f3 0f 11 05 00
	00 00 00	 movss	 DWORD PTR ?ms_vtPickRayOrig@CGraphicBase@@1UD3DXVECTOR3@@A, xmm0

; 510  :     ms_vtPickRayOrig.y = matViewInverse._42;

  00123	f3 0f 10 45 d8	 movss	 xmm0, DWORD PTR _matViewInverse$[ebp+52]
  00128	f3 0f 11 05 04
	00 00 00	 movss	 DWORD PTR ?ms_vtPickRayOrig@CGraphicBase@@1UD3DXVECTOR3@@A+4, xmm0

; 511  :     ms_vtPickRayOrig.z = matViewInverse._43;

  00130	f3 0f 10 45 dc	 movss	 xmm0, DWORD PTR _matViewInverse$[ebp+56]
  00135	f3 0f 11 05 08
	00 00 00	 movss	 DWORD PTR ?ms_vtPickRayOrig@CGraphicBase@@1UD3DXVECTOR3@@A+8, xmm0
; File D:\Metin2 Server Files\mainline\SRC_2014\Metin2Client\EterLib\Ray.h

; 22   : 			m_v3Start = v3Start;

  0013d	be 00 00 00 00	 mov	 esi, OFFSET ?ms_vtPickRayOrig@CGraphicBase@@1UD3DXVECTOR3@@A ; CGraphicBase::ms_vtPickRayOrig
  00142	bf 00 00 00 00	 mov	 edi, OFFSET ?ms_Ray@CGraphicBase@@1VCRay@@A ; CGraphicBase::ms_Ray
  00147	a5		 movsd
  00148	a5		 movsd
  00149	a5		 movsd
; File D:\Metin2 Server Files\mainline\SRC_2014\M2Data\include\d3dx8math.inl

; 249  :     return D3DXVECTOR3(-x, -y, -z);

  0014a	f3 0f 10 05 00
	00 00 00	 movss	 xmm0, DWORD PTR ?ms_vtPickRayDir@CGraphicBase@@1UD3DXVECTOR3@@A
  00152	0f 57 05 00 00
	00 00		 xorps	 xmm0, DWORD PTR __xmm@80000000800000008000000080000000
  00159	f3 0f 11 45 a0	 movss	 DWORD PTR _fx$[ebp], xmm0
  0015e	f3 0f 10 05 04
	00 00 00	 movss	 xmm0, DWORD PTR ?ms_vtPickRayDir@CGraphicBase@@1UD3DXVECTOR3@@A+4
  00166	0f 57 05 00 00
	00 00		 xorps	 xmm0, DWORD PTR __xmm@80000000800000008000000080000000
  0016d	f3 0f 11 45 9c	 movss	 DWORD PTR _fy$[ebp], xmm0
  00172	f3 0f 10 05 08
	00 00 00	 movss	 xmm0, DWORD PTR ?ms_vtPickRayDir@CGraphicBase@@1UD3DXVECTOR3@@A+8
  0017a	0f 57 05 00 00
	00 00		 xorps	 xmm0, DWORD PTR __xmm@80000000800000008000000080000000
  00181	f3 0f 11 45 98	 movss	 DWORD PTR _fz$[ebp], xmm0

; 180  :     x = fx;

  00186	f3 0f 10 45 a0	 movss	 xmm0, DWORD PTR _fx$[ebp]
  0018b	f3 0f 11 45 e4	 movss	 DWORD PTR $T1[ebp], xmm0

; 181  :     y = fy;

  00190	f3 0f 10 45 9c	 movss	 xmm0, DWORD PTR _fy$[ebp]
  00195	f3 0f 11 45 e8	 movss	 DWORD PTR $T1[ebp+4], xmm0

; 182  :     z = fz;

  0019a	f3 0f 10 45 98	 movss	 xmm0, DWORD PTR _fz$[ebp]
  0019f	f3 0f 11 45 ec	 movss	 DWORD PTR $T1[ebp+8], xmm0
; File D:\Metin2 Server Files\mainline\SRC_2014\Metin2Client\EterLib\GrpScreen.cpp

; 516  : 	ms_Ray.SetDirection(-ms_vtPickRayDir, 51200.0f);

  001a4	51		 push	 ecx
  001a5	f3 0f 10 05 00
	00 00 00	 movss	 xmm0, DWORD PTR __real@47480000
  001ad	f3 0f 11 04 24	 movss	 DWORD PTR [esp], xmm0
  001b2	8d 45 e4	 lea	 eax, DWORD PTR $T1[ebp]
  001b5	50		 push	 eax
  001b6	b9 00 00 00 00	 mov	 ecx, OFFSET ?ms_Ray@CGraphicBase@@1VCRay@@A ; CGraphicBase::ms_Ray
  001bb	e8 00 00 00 00	 call	 ?SetDirection@CRay@@QAEXABUD3DXVECTOR3@@M@Z ; CRay::SetDirection

; 517  : //	// 2003. 9. 9  
; 518  : }

  001c0	5f		 pop	 edi
  001c1	5e		 pop	 esi
  001c2	8b 4d fc	 mov	 ecx, DWORD PTR __$ArrayPad$[ebp]
  001c5	33 cd		 xor	 ecx, ebp
  001c7	e8 00 00 00 00	 call	 @__security_check_cookie@4
  001cc	c9		 leave
  001cd	c2 10 00	 ret	 16			; 00000010H
?SetCursorPosition@CScreen@@QAEXHHHH@Z ENDP		; CScreen::SetCursorPosition
_TEXT	ENDS
; Function compile flags: /Odspy
; File D:\Metin2 Server Files\mainline\SRC_2014\Metin2Client\EterLib\GrpScreen.cpp
;	COMDAT ?SetClearStencil@CScreen@@QAEXK@Z
_TEXT	SEGMENT
_this$ = -4						; size = 4
_stencil$ = 8						; size = 4
?SetClearStencil@CScreen@@QAEXK@Z PROC			; CScreen::SetClearStencil, COMDAT
; _this$ = ecx

; 613  : {

  00000	55		 push	 ebp
  00001	8b ec		 mov	 ebp, esp
  00003	51		 push	 ecx
  00004	89 4d fc	 mov	 DWORD PTR _this$[ebp], ecx

; 614  : 	ms_clearStencil = stencil;

  00007	8b 45 08	 mov	 eax, DWORD PTR _stencil$[ebp]
  0000a	a3 00 00 00 00	 mov	 DWORD PTR ?ms_clearStencil@CScreen@@1KA, eax ; CScreen::ms_clearStencil

; 615  : }

  0000f	c9		 leave
  00010	c2 04 00	 ret	 4
?SetClearStencil@CScreen@@QAEXK@Z ENDP			; CScreen::SetClearStencil
_TEXT	ENDS
; Function compile flags: /Odspy
; File D:\Metin2 Server Files\mainline\SRC_2014\Metin2Client\EterLib\GrpScreen.cpp
;	COMDAT ?SetClearDepth@CScreen@@QAEXM@Z
_TEXT	SEGMENT
_this$ = -4						; size = 4
_depth$ = 8						; size = 4
?SetClearDepth@CScreen@@QAEXM@Z PROC			; CScreen::SetClearDepth, COMDAT
; _this$ = ecx

; 608  : {

  00000	55		 push	 ebp
  00001	8b ec		 mov	 ebp, esp
  00003	51		 push	 ecx
  00004	89 4d fc	 mov	 DWORD PTR _this$[ebp], ecx

; 609  : 	ms_clearDepth = depth;

  00007	f3 0f 10 45 08	 movss	 xmm0, DWORD PTR _depth$[ebp]
  0000c	f3 0f 11 05 00
	00 00 00	 movss	 DWORD PTR ?ms_clearDepth@CScreen@@1MA, xmm0

; 610  : }

  00014	c9		 leave
  00015	c2 04 00	 ret	 4
?SetClearDepth@CScreen@@QAEXM@Z ENDP			; CScreen::SetClearDepth
_TEXT	ENDS
; Function compile flags: /Odspy
; File D:\Metin2 Server Files\mainline\SRC_2014\Metin2Client\EterLib\GrpScreen.cpp
;	COMDAT ?SetClearColor@CScreen@@QAEXMMMM@Z
_TEXT	SEGMENT
_this$ = -4						; size = 4
_r$ = 8							; size = 4
_g$ = 12						; size = 4
_b$ = 16						; size = 4
_a$ = 20						; size = 4
?SetClearColor@CScreen@@QAEXMMMM@Z PROC			; CScreen::SetClearColor, COMDAT
; _this$ = ecx

; 603  : {

  00000	55		 push	 ebp
  00001	8b ec		 mov	 ebp, esp
  00003	51		 push	 ecx
  00004	89 4d fc	 mov	 DWORD PTR _this$[ebp], ecx

; 604  : 	ms_clearColor = GetColor(r, g, b, a);

  00007	51		 push	 ecx
  00008	f3 0f 10 45 14	 movss	 xmm0, DWORD PTR _a$[ebp]
  0000d	f3 0f 11 04 24	 movss	 DWORD PTR [esp], xmm0
  00012	51		 push	 ecx
  00013	f3 0f 10 45 10	 movss	 xmm0, DWORD PTR _b$[ebp]
  00018	f3 0f 11 04 24	 movss	 DWORD PTR [esp], xmm0
  0001d	51		 push	 ecx
  0001e	f3 0f 10 45 0c	 movss	 xmm0, DWORD PTR _g$[ebp]
  00023	f3 0f 11 04 24	 movss	 DWORD PTR [esp], xmm0
  00028	51		 push	 ecx
  00029	f3 0f 10 45 08	 movss	 xmm0, DWORD PTR _r$[ebp]
  0002e	f3 0f 11 04 24	 movss	 DWORD PTR [esp], xmm0
  00033	8b 4d fc	 mov	 ecx, DWORD PTR _this$[ebp]
  00036	e8 00 00 00 00	 call	 ?GetColor@CGraphicBase@@QAEKMMMM@Z ; CGraphicBase::GetColor
  0003b	a3 00 00 00 00	 mov	 DWORD PTR ?ms_clearColor@CScreen@@1KA, eax ; CScreen::ms_clearColor

; 605  : }

  00040	c9		 leave
  00041	c2 10 00	 ret	 16			; 00000010H
?SetClearColor@CScreen@@QAEXMMMM@Z ENDP			; CScreen::SetClearColor
_TEXT	ENDS
; Function compile flags: /Odspy
; File D:\Metin2 Server Files\mainline\SRC_2014\Metin2Client\EterLib\GrpScreen.cpp
;	COMDAT ?SetDiffuseColor@CScreen@@QAEXMMMM@Z
_TEXT	SEGMENT
_this$ = -4						; size = 4
_r$ = 8							; size = 4
_g$ = 12						; size = 4
_b$ = 16						; size = 4
_a$ = 20						; size = 4
?SetDiffuseColor@CScreen@@QAEXMMMM@Z PROC		; CScreen::SetDiffuseColor, COMDAT
; _this$ = ecx

; 598  : {

  00000	55		 push	 ebp
  00001	8b ec		 mov	 ebp, esp
  00003	51		 push	 ecx
  00004	89 4d fc	 mov	 DWORD PTR _this$[ebp], ecx

; 599  : 	ms_diffuseColor = GetColor(r, g, b, a);

  00007	51		 push	 ecx
  00008	f3 0f 10 45 14	 movss	 xmm0, DWORD PTR _a$[ebp]
  0000d	f3 0f 11 04 24	 movss	 DWORD PTR [esp], xmm0
  00012	51		 push	 ecx
  00013	f3 0f 10 45 10	 movss	 xmm0, DWORD PTR _b$[ebp]
  00018	f3 0f 11 04 24	 movss	 DWORD PTR [esp], xmm0
  0001d	51		 push	 ecx
  0001e	f3 0f 10 45 0c	 movss	 xmm0, DWORD PTR _g$[ebp]
  00023	f3 0f 11 04 24	 movss	 DWORD PTR [esp], xmm0
  00028	51		 push	 ecx
  00029	f3 0f 10 45 08	 movss	 xmm0, DWORD PTR _r$[ebp]
  0002e	f3 0f 11 04 24	 movss	 DWORD PTR [esp], xmm0
  00033	8b 4d fc	 mov	 ecx, DWORD PTR _this$[ebp]
  00036	e8 00 00 00 00	 call	 ?GetColor@CGraphicBase@@QAEKMMMM@Z ; CGraphicBase::GetColor
  0003b	a3 00 00 00 00	 mov	 DWORD PTR ?ms_diffuseColor@CScreen@@1KA, eax ; CScreen::ms_diffuseColor

; 600  : }

  00040	c9		 leave
  00041	c2 10 00	 ret	 16			; 00000010H
?SetDiffuseColor@CScreen@@QAEXMMMM@Z ENDP		; CScreen::SetDiffuseColor
_TEXT	ENDS
; Function compile flags: /Odspy
; File D:\Metin2 Server Files\mainline\SRC_2014\Metin2Client\EterLib\GrpScreen.cpp
;	COMDAT ?SetDiffuseColor@CScreen@@QAEXK@Z
_TEXT	SEGMENT
_this$ = -4						; size = 4
_diffuseColor$ = 8					; size = 4
?SetDiffuseColor@CScreen@@QAEXK@Z PROC			; CScreen::SetDiffuseColor, COMDAT
; _this$ = ecx

; 593  : {

  00000	55		 push	 ebp
  00001	8b ec		 mov	 ebp, esp
  00003	51		 push	 ecx
  00004	89 4d fc	 mov	 DWORD PTR _this$[ebp], ecx

; 594  : 	ms_diffuseColor = diffuseColor;

  00007	8b 45 08	 mov	 eax, DWORD PTR _diffuseColor$[ebp]
  0000a	a3 00 00 00 00	 mov	 DWORD PTR ?ms_diffuseColor@CScreen@@1KA, eax ; CScreen::ms_diffuseColor

; 595  : }

  0000f	c9		 leave
  00010	c2 04 00	 ret	 4
?SetDiffuseColor@CScreen@@QAEXK@Z ENDP			; CScreen::SetDiffuseColor
_TEXT	ENDS
; Function compile flags: /Odspy
; File D:\Metin2 Server Files\mainline\SRC_2014\Metin2Client\EterLib\GrpScreen.cpp
; File D:\Metin2 Server Files\mainline\SRC_2014\M2Data\include\d3dx8math.inl
; File D:\Metin2 Server Files\mainline\SRC_2014\Metin2Client\EterLib\GrpScreen.cpp
;	COMDAT ?SetAddColorOperation@CScreen@@QAEXAAUD3DXCOLOR@@@Z
_TEXT	SEGMENT
_this$ = -52						; size = 4
_dwB$1 = -48						; size = 4
_dwA$2 = -44						; size = 4
_dwR$3 = -40						; size = 4
_dwG$4 = -36						; size = 4
tv160 = -32						; size = 4
tv159 = -28						; size = 4
tv149 = -24						; size = 4
tv148 = -20						; size = 4
tv138 = -16						; size = 4
tv137 = -12						; size = 4
tv95 = -8						; size = 4
tv94 = -4						; size = 4
_rColor$ = 8						; size = 4
?SetAddColorOperation@CScreen@@QAEXAAUD3DXCOLOR@@@Z PROC ; CScreen::SetAddColorOperation, COMDAT
; _this$ = ecx

; 826  : {

  00000	55		 push	 ebp
  00001	8b ec		 mov	 ebp, esp
  00003	83 ec 34	 sub	 esp, 52			; 00000034H
  00006	89 4d cc	 mov	 DWORD PTR _this$[ebp], ecx
; File D:\Metin2 Server Files\mainline\SRC_2014\M2Data\include\d3dx8math.inl

; 931  :     DWORD dwR = r >= 1.0f ? 0xff : r <= 0.0f ? 0x00 : (DWORD) (r * 255.0f + 0.5f);

  00009	8b 45 08	 mov	 eax, DWORD PTR _rColor$[ebp]
  0000c	f3 0f 10 00	 movss	 xmm0, DWORD PTR [eax]
  00010	0f 2f 05 00 00
	00 00		 comiss	 xmm0, DWORD PTR __real@3f800000
  00017	72 09		 jb	 SHORT $LN7@SetAddColo
  00019	c7 45 f8 ff 00
	00 00		 mov	 DWORD PTR tv95[ebp], 255 ; 000000ffH
  00020	eb 36		 jmp	 SHORT $LN8@SetAddColo
$LN7@SetAddColo:
  00022	8b 45 08	 mov	 eax, DWORD PTR _rColor$[ebp]
  00025	0f 57 c0	 xorps	 xmm0, xmm0
  00028	0f 2f 00	 comiss	 xmm0, DWORD PTR [eax]
  0002b	72 06		 jb	 SHORT $LN5@SetAddColo
  0002d	83 65 fc 00	 and	 DWORD PTR tv94[ebp], 0
  00031	eb 1f		 jmp	 SHORT $LN6@SetAddColo
$LN5@SetAddColo:
  00033	8b 45 08	 mov	 eax, DWORD PTR _rColor$[ebp]
  00036	f3 0f 10 00	 movss	 xmm0, DWORD PTR [eax]
  0003a	f3 0f 59 05 00
	00 00 00	 mulss	 xmm0, DWORD PTR __real@437f0000
  00042	f3 0f 58 05 00
	00 00 00	 addss	 xmm0, DWORD PTR __real@3f000000
  0004a	e8 00 00 00 00	 call	 __ftoui3
  0004f	89 45 fc	 mov	 DWORD PTR tv94[ebp], eax
$LN6@SetAddColo:
  00052	8b 45 fc	 mov	 eax, DWORD PTR tv94[ebp]
  00055	89 45 f8	 mov	 DWORD PTR tv95[ebp], eax
$LN8@SetAddColo:
  00058	8b 45 f8	 mov	 eax, DWORD PTR tv95[ebp]
  0005b	89 45 d8	 mov	 DWORD PTR _dwR$3[ebp], eax

; 932  :     DWORD dwG = g >= 1.0f ? 0xff : g <= 0.0f ? 0x00 : (DWORD) (g * 255.0f + 0.5f);

  0005e	8b 45 08	 mov	 eax, DWORD PTR _rColor$[ebp]
  00061	f3 0f 10 40 04	 movss	 xmm0, DWORD PTR [eax+4]
  00066	0f 2f 05 00 00
	00 00		 comiss	 xmm0, DWORD PTR __real@3f800000
  0006d	72 09		 jb	 SHORT $LN11@SetAddColo
  0006f	c7 45 f0 ff 00
	00 00		 mov	 DWORD PTR tv138[ebp], 255 ; 000000ffH
  00076	eb 38		 jmp	 SHORT $LN12@SetAddColo
$LN11@SetAddColo:
  00078	8b 45 08	 mov	 eax, DWORD PTR _rColor$[ebp]
  0007b	0f 57 c0	 xorps	 xmm0, xmm0
  0007e	0f 2f 40 04	 comiss	 xmm0, DWORD PTR [eax+4]
  00082	72 06		 jb	 SHORT $LN9@SetAddColo
  00084	83 65 f4 00	 and	 DWORD PTR tv137[ebp], 0
  00088	eb 20		 jmp	 SHORT $LN10@SetAddColo
$LN9@SetAddColo:
  0008a	8b 45 08	 mov	 eax, DWORD PTR _rColor$[ebp]
  0008d	f3 0f 10 40 04	 movss	 xmm0, DWORD PTR [eax+4]
  00092	f3 0f 59 05 00
	00 00 00	 mulss	 xmm0, DWORD PTR __real@437f0000
  0009a	f3 0f 58 05 00
	00 00 00	 addss	 xmm0, DWORD PTR __real@3f000000
  000a2	e8 00 00 00 00	 call	 __ftoui3
  000a7	89 45 f4	 mov	 DWORD PTR tv137[ebp], eax
$LN10@SetAddColo:
  000aa	8b 45 f4	 mov	 eax, DWORD PTR tv137[ebp]
  000ad	89 45 f0	 mov	 DWORD PTR tv138[ebp], eax
$LN12@SetAddColo:
  000b0	8b 45 f0	 mov	 eax, DWORD PTR tv138[ebp]
  000b3	89 45 dc	 mov	 DWORD PTR _dwG$4[ebp], eax

; 933  :     DWORD dwB = b >= 1.0f ? 0xff : b <= 0.0f ? 0x00 : (DWORD) (b * 255.0f + 0.5f);

  000b6	8b 45 08	 mov	 eax, DWORD PTR _rColor$[ebp]
  000b9	f3 0f 10 40 08	 movss	 xmm0, DWORD PTR [eax+8]
  000be	0f 2f 05 00 00
	00 00		 comiss	 xmm0, DWORD PTR __real@3f800000
  000c5	72 09		 jb	 SHORT $LN15@SetAddColo
  000c7	c7 45 e8 ff 00
	00 00		 mov	 DWORD PTR tv149[ebp], 255 ; 000000ffH
  000ce	eb 38		 jmp	 SHORT $LN16@SetAddColo
$LN15@SetAddColo:
  000d0	8b 45 08	 mov	 eax, DWORD PTR _rColor$[ebp]
  000d3	0f 57 c0	 xorps	 xmm0, xmm0
  000d6	0f 2f 40 08	 comiss	 xmm0, DWORD PTR [eax+8]
  000da	72 06		 jb	 SHORT $LN13@SetAddColo
  000dc	83 65 ec 00	 and	 DWORD PTR tv148[ebp], 0
  000e0	eb 20		 jmp	 SHORT $LN14@SetAddColo
$LN13@SetAddColo:
  000e2	8b 45 08	 mov	 eax, DWORD PTR _rColor$[ebp]
  000e5	f3 0f 10 40 08	 movss	 xmm0, DWORD PTR [eax+8]
  000ea	f3 0f 59 05 00
	00 00 00	 mulss	 xmm0, DWORD PTR __real@437f0000
  000f2	f3 0f 58 05 00
	00 00 00	 addss	 xmm0, DWORD PTR __real@3f000000
  000fa	e8 00 00 00 00	 call	 __ftoui3
  000ff	89 45 ec	 mov	 DWORD PTR tv148[ebp], eax
$LN14@SetAddColo:
  00102	8b 45 ec	 mov	 eax, DWORD PTR tv148[ebp]
  00105	89 45 e8	 mov	 DWORD PTR tv149[ebp], eax
$LN16@SetAddColo:
  00108	8b 45 e8	 mov	 eax, DWORD PTR tv149[ebp]
  0010b	89 45 d0	 mov	 DWORD PTR _dwB$1[ebp], eax

; 934  :     DWORD dwA = a >= 1.0f ? 0xff : a <= 0.0f ? 0x00 : (DWORD) (a * 255.0f + 0.5f);

  0010e	8b 45 08	 mov	 eax, DWORD PTR _rColor$[ebp]
  00111	f3 0f 10 40 0c	 movss	 xmm0, DWORD PTR [eax+12]
  00116	0f 2f 05 00 00
	00 00		 comiss	 xmm0, DWORD PTR __real@3f800000
  0011d	72 09		 jb	 SHORT $LN19@SetAddColo
  0011f	c7 45 e0 ff 00
	00 00		 mov	 DWORD PTR tv160[ebp], 255 ; 000000ffH
  00126	eb 38		 jmp	 SHORT $LN20@SetAddColo
$LN19@SetAddColo:
  00128	8b 45 08	 mov	 eax, DWORD PTR _rColor$[ebp]
  0012b	0f 57 c0	 xorps	 xmm0, xmm0
  0012e	0f 2f 40 0c	 comiss	 xmm0, DWORD PTR [eax+12]
  00132	72 06		 jb	 SHORT $LN17@SetAddColo
  00134	83 65 e4 00	 and	 DWORD PTR tv159[ebp], 0
  00138	eb 20		 jmp	 SHORT $LN18@SetAddColo
$LN17@SetAddColo:
  0013a	8b 45 08	 mov	 eax, DWORD PTR _rColor$[ebp]
  0013d	f3 0f 10 40 0c	 movss	 xmm0, DWORD PTR [eax+12]
  00142	f3 0f 59 05 00
	00 00 00	 mulss	 xmm0, DWORD PTR __real@437f0000
  0014a	f3 0f 58 05 00
	00 00 00	 addss	 xmm0, DWORD PTR __real@3f000000
  00152	e8 00 00 00 00	 call	 __ftoui3
  00157	89 45 e4	 mov	 DWORD PTR tv159[ebp], eax
$LN18@SetAddColo:
  0015a	8b 45 e4	 mov	 eax, DWORD PTR tv159[ebp]
  0015d	89 45 e0	 mov	 DWORD PTR tv160[ebp], eax
$LN20@SetAddColo:
  00160	8b 45 e0	 mov	 eax, DWORD PTR tv160[ebp]
  00163	89 45 d4	 mov	 DWORD PTR _dwA$2[ebp], eax

; 935  : 
; 936  :     return (dwA << 24) | (dwR << 16) | (dwG << 8) | dwB;

  00166	8b 45 dc	 mov	 eax, DWORD PTR _dwG$4[ebp]
  00169	c1 e0 08	 shl	 eax, 8
  0016c	8b 4d d8	 mov	 ecx, DWORD PTR _dwR$3[ebp]
  0016f	c1 e1 10	 shl	 ecx, 16			; 00000010H
  00172	8b 55 d4	 mov	 edx, DWORD PTR _dwA$2[ebp]
  00175	c1 e2 18	 shl	 edx, 24			; 00000018H
  00178	0b d1		 or	 edx, ecx
  0017a	0b d0		 or	 edx, eax
  0017c	0b 55 d0	 or	 edx, DWORD PTR _dwB$1[ebp]
; File D:\Metin2 Server Files\mainline\SRC_2014\Metin2Client\EterLib\GrpScreen.cpp

; 827  : 	STATEMANAGER.SetRenderState(D3DRS_TEXTUREFACTOR, rColor);

  0017f	52		 push	 edx
  00180	6a 3c		 push	 60			; 0000003cH
  00182	8b 0d 00 00 00
	00		 mov	 ecx, DWORD PTR ?ms_singleton@?$CSingleton@VCStateManager@@@@0PAVCStateManager@@A ; CSingleton<CStateManager>::ms_singleton
  00188	e8 00 00 00 00	 call	 ?SetRenderState@CStateManager@@QAEXW4_D3DRENDERSTATETYPE@@K@Z ; CStateManager::SetRenderState

; 828  : 	STATEMANAGER.SetTextureStageState(0, D3DTSS_COLORARG1, D3DTA_TEXTURE);

  0018d	6a 02		 push	 2
  0018f	6a 02		 push	 2
  00191	6a 00		 push	 0
  00193	8b 0d 00 00 00
	00		 mov	 ecx, DWORD PTR ?ms_singleton@?$CSingleton@VCStateManager@@@@0PAVCStateManager@@A ; CSingleton<CStateManager>::ms_singleton
  00199	e8 00 00 00 00	 call	 ?SetTextureStageState@CStateManager@@QAEXKW4_D3DTEXTURESTAGESTATETYPE@@K@Z ; CStateManager::SetTextureStageState

; 829  : 	STATEMANAGER.SetTextureStageState(0, D3DTSS_COLORARG2, D3DTA_TFACTOR);

  0019e	6a 03		 push	 3
  001a0	6a 03		 push	 3
  001a2	6a 00		 push	 0
  001a4	8b 0d 00 00 00
	00		 mov	 ecx, DWORD PTR ?ms_singleton@?$CSingleton@VCStateManager@@@@0PAVCStateManager@@A ; CSingleton<CStateManager>::ms_singleton
  001aa	e8 00 00 00 00	 call	 ?SetTextureStageState@CStateManager@@QAEXKW4_D3DTEXTURESTAGESTATETYPE@@K@Z ; CStateManager::SetTextureStageState

; 830  : 	STATEMANAGER.SetTextureStageState(0, D3DTSS_COLOROP, D3DTOP_ADD);

  001af	6a 07		 push	 7
  001b1	6a 01		 push	 1
  001b3	6a 00		 push	 0
  001b5	8b 0d 00 00 00
	00		 mov	 ecx, DWORD PTR ?ms_singleton@?$CSingleton@VCStateManager@@@@0PAVCStateManager@@A ; CSingleton<CStateManager>::ms_singleton
  001bb	e8 00 00 00 00	 call	 ?SetTextureStageState@CStateManager@@QAEXKW4_D3DTEXTURESTAGESTATETYPE@@K@Z ; CStateManager::SetTextureStageState

; 831  : }

  001c0	c9		 leave
  001c1	c2 04 00	 ret	 4
?SetAddColorOperation@CScreen@@QAEXAAUD3DXCOLOR@@@Z ENDP ; CScreen::SetAddColorOperation
_TEXT	ENDS
; Function compile flags: /Odspy
; File D:\Metin2 Server Files\mainline\SRC_2014\Metin2Client\EterLib\GrpScreen.cpp
; File D:\Metin2 Server Files\mainline\SRC_2014\M2Data\include\d3dx8math.inl
; File D:\Metin2 Server Files\mainline\SRC_2014\Metin2Client\EterLib\GrpScreen.cpp
;	COMDAT ?SetOneColorOperation@CScreen@@QAEXAAUD3DXCOLOR@@@Z
_TEXT	SEGMENT
_this$ = -52						; size = 4
_dwB$1 = -48						; size = 4
_dwA$2 = -44						; size = 4
_dwR$3 = -40						; size = 4
_dwG$4 = -36						; size = 4
tv163 = -32						; size = 4
tv162 = -28						; size = 4
tv152 = -24						; size = 4
tv151 = -20						; size = 4
tv141 = -16						; size = 4
tv140 = -12						; size = 4
tv130 = -8						; size = 4
tv129 = -4						; size = 4
_rColor$ = 8						; size = 4
?SetOneColorOperation@CScreen@@QAEXAAUD3DXCOLOR@@@Z PROC ; CScreen::SetOneColorOperation, COMDAT
; _this$ = ecx

; 816  : {

  00000	55		 push	 ebp
  00001	8b ec		 mov	 ebp, esp
  00003	83 ec 34	 sub	 esp, 52			; 00000034H
  00006	89 4d cc	 mov	 DWORD PTR _this$[ebp], ecx

; 817  : 	STATEMANAGER.SetTexture(0, NULL);

  00009	6a 00		 push	 0
  0000b	6a 00		 push	 0
  0000d	8b 0d 00 00 00
	00		 mov	 ecx, DWORD PTR ?ms_singleton@?$CSingleton@VCStateManager@@@@0PAVCStateManager@@A ; CSingleton<CStateManager>::ms_singleton
  00013	e8 00 00 00 00	 call	 ?SetTexture@CStateManager@@QAEXKPAUIDirect3DBaseTexture8@@@Z ; CStateManager::SetTexture

; 818  : 	STATEMANAGER.SetTexture(1, NULL);

  00018	6a 00		 push	 0
  0001a	6a 01		 push	 1
  0001c	8b 0d 00 00 00
	00		 mov	 ecx, DWORD PTR ?ms_singleton@?$CSingleton@VCStateManager@@@@0PAVCStateManager@@A ; CSingleton<CStateManager>::ms_singleton
  00022	e8 00 00 00 00	 call	 ?SetTexture@CStateManager@@QAEXKPAUIDirect3DBaseTexture8@@@Z ; CStateManager::SetTexture
; File D:\Metin2 Server Files\mainline\SRC_2014\M2Data\include\d3dx8math.inl

; 931  :     DWORD dwR = r >= 1.0f ? 0xff : r <= 0.0f ? 0x00 : (DWORD) (r * 255.0f + 0.5f);

  00027	8b 45 08	 mov	 eax, DWORD PTR _rColor$[ebp]
  0002a	f3 0f 10 00	 movss	 xmm0, DWORD PTR [eax]
  0002e	0f 2f 05 00 00
	00 00		 comiss	 xmm0, DWORD PTR __real@3f800000
  00035	72 09		 jb	 SHORT $LN11@SetOneColo
  00037	c7 45 f8 ff 00
	00 00		 mov	 DWORD PTR tv130[ebp], 255 ; 000000ffH
  0003e	eb 36		 jmp	 SHORT $LN12@SetOneColo
$LN11@SetOneColo:
  00040	8b 45 08	 mov	 eax, DWORD PTR _rColor$[ebp]
  00043	0f 57 c0	 xorps	 xmm0, xmm0
  00046	0f 2f 00	 comiss	 xmm0, DWORD PTR [eax]
  00049	72 06		 jb	 SHORT $LN9@SetOneColo
  0004b	83 65 fc 00	 and	 DWORD PTR tv129[ebp], 0
  0004f	eb 1f		 jmp	 SHORT $LN10@SetOneColo
$LN9@SetOneColo:
  00051	8b 45 08	 mov	 eax, DWORD PTR _rColor$[ebp]
  00054	f3 0f 10 00	 movss	 xmm0, DWORD PTR [eax]
  00058	f3 0f 59 05 00
	00 00 00	 mulss	 xmm0, DWORD PTR __real@437f0000
  00060	f3 0f 58 05 00
	00 00 00	 addss	 xmm0, DWORD PTR __real@3f000000
  00068	e8 00 00 00 00	 call	 __ftoui3
  0006d	89 45 fc	 mov	 DWORD PTR tv129[ebp], eax
$LN10@SetOneColo:
  00070	8b 45 fc	 mov	 eax, DWORD PTR tv129[ebp]
  00073	89 45 f8	 mov	 DWORD PTR tv130[ebp], eax
$LN12@SetOneColo:
  00076	8b 45 f8	 mov	 eax, DWORD PTR tv130[ebp]
  00079	89 45 d8	 mov	 DWORD PTR _dwR$3[ebp], eax

; 932  :     DWORD dwG = g >= 1.0f ? 0xff : g <= 0.0f ? 0x00 : (DWORD) (g * 255.0f + 0.5f);

  0007c	8b 45 08	 mov	 eax, DWORD PTR _rColor$[ebp]
  0007f	f3 0f 10 40 04	 movss	 xmm0, DWORD PTR [eax+4]
  00084	0f 2f 05 00 00
	00 00		 comiss	 xmm0, DWORD PTR __real@3f800000
  0008b	72 09		 jb	 SHORT $LN15@SetOneColo
  0008d	c7 45 f0 ff 00
	00 00		 mov	 DWORD PTR tv141[ebp], 255 ; 000000ffH
  00094	eb 38		 jmp	 SHORT $LN16@SetOneColo
$LN15@SetOneColo:
  00096	8b 45 08	 mov	 eax, DWORD PTR _rColor$[ebp]
  00099	0f 57 c0	 xorps	 xmm0, xmm0
  0009c	0f 2f 40 04	 comiss	 xmm0, DWORD PTR [eax+4]
  000a0	72 06		 jb	 SHORT $LN13@SetOneColo
  000a2	83 65 f4 00	 and	 DWORD PTR tv140[ebp], 0
  000a6	eb 20		 jmp	 SHORT $LN14@SetOneColo
$LN13@SetOneColo:
  000a8	8b 45 08	 mov	 eax, DWORD PTR _rColor$[ebp]
  000ab	f3 0f 10 40 04	 movss	 xmm0, DWORD PTR [eax+4]
  000b0	f3 0f 59 05 00
	00 00 00	 mulss	 xmm0, DWORD PTR __real@437f0000
  000b8	f3 0f 58 05 00
	00 00 00	 addss	 xmm0, DWORD PTR __real@3f000000
  000c0	e8 00 00 00 00	 call	 __ftoui3
  000c5	89 45 f4	 mov	 DWORD PTR tv140[ebp], eax
$LN14@SetOneColo:
  000c8	8b 45 f4	 mov	 eax, DWORD PTR tv140[ebp]
  000cb	89 45 f0	 mov	 DWORD PTR tv141[ebp], eax
$LN16@SetOneColo:
  000ce	8b 45 f0	 mov	 eax, DWORD PTR tv141[ebp]
  000d1	89 45 dc	 mov	 DWORD PTR _dwG$4[ebp], eax

; 933  :     DWORD dwB = b >= 1.0f ? 0xff : b <= 0.0f ? 0x00 : (DWORD) (b * 255.0f + 0.5f);

  000d4	8b 45 08	 mov	 eax, DWORD PTR _rColor$[ebp]
  000d7	f3 0f 10 40 08	 movss	 xmm0, DWORD PTR [eax+8]
  000dc	0f 2f 05 00 00
	00 00		 comiss	 xmm0, DWORD PTR __real@3f800000
  000e3	72 09		 jb	 SHORT $LN19@SetOneColo
  000e5	c7 45 e8 ff 00
	00 00		 mov	 DWORD PTR tv152[ebp], 255 ; 000000ffH
  000ec	eb 38		 jmp	 SHORT $LN20@SetOneColo
$LN19@SetOneColo:
  000ee	8b 45 08	 mov	 eax, DWORD PTR _rColor$[ebp]
  000f1	0f 57 c0	 xorps	 xmm0, xmm0
  000f4	0f 2f 40 08	 comiss	 xmm0, DWORD PTR [eax+8]
  000f8	72 06		 jb	 SHORT $LN17@SetOneColo
  000fa	83 65 ec 00	 and	 DWORD PTR tv151[ebp], 0
  000fe	eb 20		 jmp	 SHORT $LN18@SetOneColo
$LN17@SetOneColo:
  00100	8b 45 08	 mov	 eax, DWORD PTR _rColor$[ebp]
  00103	f3 0f 10 40 08	 movss	 xmm0, DWORD PTR [eax+8]
  00108	f3 0f 59 05 00
	00 00 00	 mulss	 xmm0, DWORD PTR __real@437f0000
  00110	f3 0f 58 05 00
	00 00 00	 addss	 xmm0, DWORD PTR __real@3f000000
  00118	e8 00 00 00 00	 call	 __ftoui3
  0011d	89 45 ec	 mov	 DWORD PTR tv151[ebp], eax
$LN18@SetOneColo:
  00120	8b 45 ec	 mov	 eax, DWORD PTR tv151[ebp]
  00123	89 45 e8	 mov	 DWORD PTR tv152[ebp], eax
$LN20@SetOneColo:
  00126	8b 45 e8	 mov	 eax, DWORD PTR tv152[ebp]
  00129	89 45 d0	 mov	 DWORD PTR _dwB$1[ebp], eax

; 934  :     DWORD dwA = a >= 1.0f ? 0xff : a <= 0.0f ? 0x00 : (DWORD) (a * 255.0f + 0.5f);

  0012c	8b 45 08	 mov	 eax, DWORD PTR _rColor$[ebp]
  0012f	f3 0f 10 40 0c	 movss	 xmm0, DWORD PTR [eax+12]
  00134	0f 2f 05 00 00
	00 00		 comiss	 xmm0, DWORD PTR __real@3f800000
  0013b	72 09		 jb	 SHORT $LN23@SetOneColo
  0013d	c7 45 e0 ff 00
	00 00		 mov	 DWORD PTR tv163[ebp], 255 ; 000000ffH
  00144	eb 38		 jmp	 SHORT $LN24@SetOneColo
$LN23@SetOneColo:
  00146	8b 45 08	 mov	 eax, DWORD PTR _rColor$[ebp]
  00149	0f 57 c0	 xorps	 xmm0, xmm0
  0014c	0f 2f 40 0c	 comiss	 xmm0, DWORD PTR [eax+12]
  00150	72 06		 jb	 SHORT $LN21@SetOneColo
  00152	83 65 e4 00	 and	 DWORD PTR tv162[ebp], 0
  00156	eb 20		 jmp	 SHORT $LN22@SetOneColo
$LN21@SetOneColo:
  00158	8b 45 08	 mov	 eax, DWORD PTR _rColor$[ebp]
  0015b	f3 0f 10 40 0c	 movss	 xmm0, DWORD PTR [eax+12]
  00160	f3 0f 59 05 00
	00 00 00	 mulss	 xmm0, DWORD PTR __real@437f0000
  00168	f3 0f 58 05 00
	00 00 00	 addss	 xmm0, DWORD PTR __real@3f000000
  00170	e8 00 00 00 00	 call	 __ftoui3
  00175	89 45 e4	 mov	 DWORD PTR tv162[ebp], eax
$LN22@SetOneColo:
  00178	8b 45 e4	 mov	 eax, DWORD PTR tv162[ebp]
  0017b	89 45 e0	 mov	 DWORD PTR tv163[ebp], eax
$LN24@SetOneColo:
  0017e	8b 45 e0	 mov	 eax, DWORD PTR tv163[ebp]
  00181	89 45 d4	 mov	 DWORD PTR _dwA$2[ebp], eax

; 935  : 
; 936  :     return (dwA << 24) | (dwR << 16) | (dwG << 8) | dwB;

  00184	8b 45 dc	 mov	 eax, DWORD PTR _dwG$4[ebp]
  00187	c1 e0 08	 shl	 eax, 8
  0018a	8b 4d d8	 mov	 ecx, DWORD PTR _dwR$3[ebp]
  0018d	c1 e1 10	 shl	 ecx, 16			; 00000010H
  00190	8b 55 d4	 mov	 edx, DWORD PTR _dwA$2[ebp]
  00193	c1 e2 18	 shl	 edx, 24			; 00000018H
  00196	0b d1		 or	 edx, ecx
  00198	0b d0		 or	 edx, eax
  0019a	0b 55 d0	 or	 edx, DWORD PTR _dwB$1[ebp]
; File D:\Metin2 Server Files\mainline\SRC_2014\Metin2Client\EterLib\GrpScreen.cpp

; 820  : 	STATEMANAGER.SetRenderState(D3DRS_TEXTUREFACTOR, rColor);

  0019d	52		 push	 edx
  0019e	6a 3c		 push	 60			; 0000003cH
  001a0	8b 0d 00 00 00
	00		 mov	 ecx, DWORD PTR ?ms_singleton@?$CSingleton@VCStateManager@@@@0PAVCStateManager@@A ; CSingleton<CStateManager>::ms_singleton
  001a6	e8 00 00 00 00	 call	 ?SetRenderState@CStateManager@@QAEXW4_D3DRENDERSTATETYPE@@K@Z ; CStateManager::SetRenderState

; 821  : 	STATEMANAGER.SetTextureStageState(0, D3DTSS_COLORARG1, D3DTA_TFACTOR);

  001ab	6a 03		 push	 3
  001ad	6a 02		 push	 2
  001af	6a 00		 push	 0
  001b1	8b 0d 00 00 00
	00		 mov	 ecx, DWORD PTR ?ms_singleton@?$CSingleton@VCStateManager@@@@0PAVCStateManager@@A ; CSingleton<CStateManager>::ms_singleton
  001b7	e8 00 00 00 00	 call	 ?SetTextureStageState@CStateManager@@QAEXKW4_D3DTEXTURESTAGESTATETYPE@@K@Z ; CStateManager::SetTextureStageState

; 822  : 	STATEMANAGER.SetTextureStageState(0, D3DTSS_COLOROP, D3DTOP_SELECTARG1);

  001bc	6a 02		 push	 2
  001be	6a 01		 push	 1
  001c0	6a 00		 push	 0
  001c2	8b 0d 00 00 00
	00		 mov	 ecx, DWORD PTR ?ms_singleton@?$CSingleton@VCStateManager@@@@0PAVCStateManager@@A ; CSingleton<CStateManager>::ms_singleton
  001c8	e8 00 00 00 00	 call	 ?SetTextureStageState@CStateManager@@QAEXKW4_D3DTEXTURESTAGESTATETYPE@@K@Z ; CStateManager::SetTextureStageState

; 823  : }

  001cd	c9		 leave
  001ce	c2 04 00	 ret	 4
?SetOneColorOperation@CScreen@@QAEXAAUD3DXCOLOR@@@Z ENDP ; CScreen::SetOneColorOperation
_TEXT	ENDS
; Function compile flags: /Odspy
; File D:\Metin2 Server Files\mainline\SRC_2014\Metin2Client\EterLib\GrpScreen.cpp
;	COMDAT ?SetBlendOperation@CScreen@@QAEXXZ
_TEXT	SEGMENT
_this$ = -4						; size = 4
?SetBlendOperation@CScreen@@QAEXXZ PROC			; CScreen::SetBlendOperation, COMDAT
; _this$ = ecx

; 803  : {

  00000	55		 push	 ebp
  00001	8b ec		 mov	 ebp, esp
  00003	51		 push	 ecx
  00004	89 4d fc	 mov	 DWORD PTR _this$[ebp], ecx

; 804  : 	STATEMANAGER.SetTexture(0, NULL);

  00007	6a 00		 push	 0
  00009	6a 00		 push	 0
  0000b	8b 0d 00 00 00
	00		 mov	 ecx, DWORD PTR ?ms_singleton@?$CSingleton@VCStateManager@@@@0PAVCStateManager@@A ; CSingleton<CStateManager>::ms_singleton
  00011	e8 00 00 00 00	 call	 ?SetTexture@CStateManager@@QAEXKPAUIDirect3DBaseTexture8@@@Z ; CStateManager::SetTexture

; 805  : 	STATEMANAGER.SetTextureStageState(0, D3DTSS_COLORARG1,	D3DTA_TEXTURE);

  00016	6a 02		 push	 2
  00018	6a 02		 push	 2
  0001a	6a 00		 push	 0
  0001c	8b 0d 00 00 00
	00		 mov	 ecx, DWORD PTR ?ms_singleton@?$CSingleton@VCStateManager@@@@0PAVCStateManager@@A ; CSingleton<CStateManager>::ms_singleton
  00022	e8 00 00 00 00	 call	 ?SetTextureStageState@CStateManager@@QAEXKW4_D3DTEXTURESTAGESTATETYPE@@K@Z ; CStateManager::SetTextureStageState

; 806  : 	STATEMANAGER.SetTextureStageState(0, D3DTSS_COLORARG2,	D3DTA_CURRENT);

  00027	6a 01		 push	 1
  00029	6a 03		 push	 3
  0002b	6a 00		 push	 0
  0002d	8b 0d 00 00 00
	00		 mov	 ecx, DWORD PTR ?ms_singleton@?$CSingleton@VCStateManager@@@@0PAVCStateManager@@A ; CSingleton<CStateManager>::ms_singleton
  00033	e8 00 00 00 00	 call	 ?SetTextureStageState@CStateManager@@QAEXKW4_D3DTEXTURESTAGESTATETYPE@@K@Z ; CStateManager::SetTextureStageState

; 807  : 	STATEMANAGER.SetTextureStageState(0, D3DTSS_COLOROP,	D3DTOP_MODULATE);

  00038	6a 04		 push	 4
  0003a	6a 01		 push	 1
  0003c	6a 00		 push	 0
  0003e	8b 0d 00 00 00
	00		 mov	 ecx, DWORD PTR ?ms_singleton@?$CSingleton@VCStateManager@@@@0PAVCStateManager@@A ; CSingleton<CStateManager>::ms_singleton
  00044	e8 00 00 00 00	 call	 ?SetTextureStageState@CStateManager@@QAEXKW4_D3DTEXTURESTAGESTATETYPE@@K@Z ; CStateManager::SetTextureStageState

; 808  : 	STATEMANAGER.SetTextureStageState(0, D3DTSS_ALPHAARG1,	D3DTA_TEXTURE);

  00049	6a 02		 push	 2
  0004b	6a 05		 push	 5
  0004d	6a 00		 push	 0
  0004f	8b 0d 00 00 00
	00		 mov	 ecx, DWORD PTR ?ms_singleton@?$CSingleton@VCStateManager@@@@0PAVCStateManager@@A ; CSingleton<CStateManager>::ms_singleton
  00055	e8 00 00 00 00	 call	 ?SetTextureStageState@CStateManager@@QAEXKW4_D3DTEXTURESTAGESTATETYPE@@K@Z ; CStateManager::SetTextureStageState

; 809  : 	STATEMANAGER.SetTextureStageState(0, D3DTSS_ALPHAARG2,	D3DTA_CURRENT);

  0005a	6a 01		 push	 1
  0005c	6a 06		 push	 6
  0005e	6a 00		 push	 0
  00060	8b 0d 00 00 00
	00		 mov	 ecx, DWORD PTR ?ms_singleton@?$CSingleton@VCStateManager@@@@0PAVCStateManager@@A ; CSingleton<CStateManager>::ms_singleton
  00066	e8 00 00 00 00	 call	 ?SetTextureStageState@CStateManager@@QAEXKW4_D3DTEXTURESTAGESTATETYPE@@K@Z ; CStateManager::SetTextureStageState

; 810  : 	STATEMANAGER.SetTextureStageState(0, D3DTSS_ALPHAOP,	D3DTOP_MODULATE);

  0006b	6a 04		 push	 4
  0006d	6a 04		 push	 4
  0006f	6a 00		 push	 0
  00071	8b 0d 00 00 00
	00		 mov	 ecx, DWORD PTR ?ms_singleton@?$CSingleton@VCStateManager@@@@0PAVCStateManager@@A ; CSingleton<CStateManager>::ms_singleton
  00077	e8 00 00 00 00	 call	 ?SetTextureStageState@CStateManager@@QAEXKW4_D3DTEXTURESTAGESTATETYPE@@K@Z ; CStateManager::SetTextureStageState

; 811  : 	STATEMANAGER.SetTextureStageState(1, D3DTSS_COLOROP,	D3DTOP_DISABLE);

  0007c	6a 01		 push	 1
  0007e	6a 01		 push	 1
  00080	6a 01		 push	 1
  00082	8b 0d 00 00 00
	00		 mov	 ecx, DWORD PTR ?ms_singleton@?$CSingleton@VCStateManager@@@@0PAVCStateManager@@A ; CSingleton<CStateManager>::ms_singleton
  00088	e8 00 00 00 00	 call	 ?SetTextureStageState@CStateManager@@QAEXKW4_D3DTEXTURESTAGESTATETYPE@@K@Z ; CStateManager::SetTextureStageState

; 812  : 	STATEMANAGER.SetTextureStageState(1, D3DTSS_ALPHAOP,	D3DTOP_DISABLE);

  0008d	6a 01		 push	 1
  0008f	6a 04		 push	 4
  00091	6a 01		 push	 1
  00093	8b 0d 00 00 00
	00		 mov	 ecx, DWORD PTR ?ms_singleton@?$CSingleton@VCStateManager@@@@0PAVCStateManager@@A ; CSingleton<CStateManager>::ms_singleton
  00099	e8 00 00 00 00	 call	 ?SetTextureStageState@CStateManager@@QAEXKW4_D3DTEXTURESTAGESTATETYPE@@K@Z ; CStateManager::SetTextureStageState

; 813  : }

  0009e	c9		 leave
  0009f	c3		 ret	 0
?SetBlendOperation@CScreen@@QAEXXZ ENDP			; CScreen::SetBlendOperation
_TEXT	ENDS
; Function compile flags: /Odspy
; File D:\Metin2 Server Files\mainline\SRC_2014\Metin2Client\EterLib\GrpScreen.cpp
;	COMDAT ?SetDiffuseOperation@CScreen@@QAEXXZ
_TEXT	SEGMENT
_this$ = -4						; size = 4
?SetDiffuseOperation@CScreen@@QAEXXZ PROC		; CScreen::SetDiffuseOperation, COMDAT
; _this$ = ecx

; 792  : {

  00000	55		 push	 ebp
  00001	8b ec		 mov	 ebp, esp
  00003	51		 push	 ecx
  00004	89 4d fc	 mov	 DWORD PTR _this$[ebp], ecx

; 793  : 	STATEMANAGER.SetTexture(0, NULL);

  00007	6a 00		 push	 0
  00009	6a 00		 push	 0
  0000b	8b 0d 00 00 00
	00		 mov	 ecx, DWORD PTR ?ms_singleton@?$CSingleton@VCStateManager@@@@0PAVCStateManager@@A ; CSingleton<CStateManager>::ms_singleton
  00011	e8 00 00 00 00	 call	 ?SetTexture@CStateManager@@QAEXKPAUIDirect3DBaseTexture8@@@Z ; CStateManager::SetTexture

; 794  : 	STATEMANAGER.SetTextureStageState(0, D3DTSS_COLORARG1,	D3DTA_TEXTURE);

  00016	6a 02		 push	 2
  00018	6a 02		 push	 2
  0001a	6a 00		 push	 0
  0001c	8b 0d 00 00 00
	00		 mov	 ecx, DWORD PTR ?ms_singleton@?$CSingleton@VCStateManager@@@@0PAVCStateManager@@A ; CSingleton<CStateManager>::ms_singleton
  00022	e8 00 00 00 00	 call	 ?SetTextureStageState@CStateManager@@QAEXKW4_D3DTEXTURESTAGESTATETYPE@@K@Z ; CStateManager::SetTextureStageState

; 795  : 	STATEMANAGER.SetTextureStageState(0, D3DTSS_COLORARG2,	D3DTA_DIFFUSE);

  00027	6a 00		 push	 0
  00029	6a 03		 push	 3
  0002b	6a 00		 push	 0
  0002d	8b 0d 00 00 00
	00		 mov	 ecx, DWORD PTR ?ms_singleton@?$CSingleton@VCStateManager@@@@0PAVCStateManager@@A ; CSingleton<CStateManager>::ms_singleton
  00033	e8 00 00 00 00	 call	 ?SetTextureStageState@CStateManager@@QAEXKW4_D3DTEXTURESTAGESTATETYPE@@K@Z ; CStateManager::SetTextureStageState

; 796  : 	STATEMANAGER.SetTextureStageState(0, D3DTSS_COLOROP,	D3DTOP_MODULATE);

  00038	6a 04		 push	 4
  0003a	6a 01		 push	 1
  0003c	6a 00		 push	 0
  0003e	8b 0d 00 00 00
	00		 mov	 ecx, DWORD PTR ?ms_singleton@?$CSingleton@VCStateManager@@@@0PAVCStateManager@@A ; CSingleton<CStateManager>::ms_singleton
  00044	e8 00 00 00 00	 call	 ?SetTextureStageState@CStateManager@@QAEXKW4_D3DTEXTURESTAGESTATETYPE@@K@Z ; CStateManager::SetTextureStageState

; 797  : 
; 798  : 	STATEMANAGER.SetTextureStageState(1, D3DTSS_COLOROP,	D3DTOP_DISABLE);

  00049	6a 01		 push	 1
  0004b	6a 01		 push	 1
  0004d	6a 01		 push	 1
  0004f	8b 0d 00 00 00
	00		 mov	 ecx, DWORD PTR ?ms_singleton@?$CSingleton@VCStateManager@@@@0PAVCStateManager@@A ; CSingleton<CStateManager>::ms_singleton
  00055	e8 00 00 00 00	 call	 ?SetTextureStageState@CStateManager@@QAEXKW4_D3DTEXTURESTAGESTATETYPE@@K@Z ; CStateManager::SetTextureStageState

; 799  : 	STATEMANAGER.SetTextureStageState(1, D3DTSS_ALPHAOP,	D3DTOP_DISABLE);

  0005a	6a 01		 push	 1
  0005c	6a 04		 push	 4
  0005e	6a 01		 push	 1
  00060	8b 0d 00 00 00
	00		 mov	 ecx, DWORD PTR ?ms_singleton@?$CSingleton@VCStateManager@@@@0PAVCStateManager@@A ; CSingleton<CStateManager>::ms_singleton
  00066	e8 00 00 00 00	 call	 ?SetTextureStageState@CStateManager@@QAEXKW4_D3DTEXTURESTAGESTATETYPE@@K@Z ; CStateManager::SetTextureStageState

; 800  : }

  0006b	c9		 leave
  0006c	c3		 ret	 0
?SetDiffuseOperation@CScreen@@QAEXXZ ENDP		; CScreen::SetDiffuseOperation
_TEXT	ENDS
; Function compile flags: /Odspy
; File D:\Metin2 Server Files\mainline\SRC_2014\Metin2Client\EterLib\GrpScreen.cpp
;	COMDAT ?SetColorOperation@CScreen@@QAEXXZ
_TEXT	SEGMENT
_this$ = -4						; size = 4
?SetColorOperation@CScreen@@QAEXXZ PROC			; CScreen::SetColorOperation, COMDAT
; _this$ = ecx

; 782  : {

  00000	55		 push	 ebp
  00001	8b ec		 mov	 ebp, esp
  00003	51		 push	 ecx
  00004	89 4d fc	 mov	 DWORD PTR _this$[ebp], ecx

; 783  : 	STATEMANAGER.SetTexture(0, NULL);

  00007	6a 00		 push	 0
  00009	6a 00		 push	 0
  0000b	8b 0d 00 00 00
	00		 mov	 ecx, DWORD PTR ?ms_singleton@?$CSingleton@VCStateManager@@@@0PAVCStateManager@@A ; CSingleton<CStateManager>::ms_singleton
  00011	e8 00 00 00 00	 call	 ?SetTexture@CStateManager@@QAEXKPAUIDirect3DBaseTexture8@@@Z ; CStateManager::SetTexture

; 784  : 	STATEMANAGER.SetTextureStageState(0, D3DTSS_COLORARG1,	D3DTA_DIFFUSE);

  00016	6a 00		 push	 0
  00018	6a 02		 push	 2
  0001a	6a 00		 push	 0
  0001c	8b 0d 00 00 00
	00		 mov	 ecx, DWORD PTR ?ms_singleton@?$CSingleton@VCStateManager@@@@0PAVCStateManager@@A ; CSingleton<CStateManager>::ms_singleton
  00022	e8 00 00 00 00	 call	 ?SetTextureStageState@CStateManager@@QAEXKW4_D3DTEXTURESTAGESTATETYPE@@K@Z ; CStateManager::SetTextureStageState

; 785  : 	STATEMANAGER.SetTextureStageState(0, D3DTSS_COLOROP,	D3DTOP_SELECTARG1);

  00027	6a 02		 push	 2
  00029	6a 01		 push	 1
  0002b	6a 00		 push	 0
  0002d	8b 0d 00 00 00
	00		 mov	 ecx, DWORD PTR ?ms_singleton@?$CSingleton@VCStateManager@@@@0PAVCStateManager@@A ; CSingleton<CStateManager>::ms_singleton
  00033	e8 00 00 00 00	 call	 ?SetTextureStageState@CStateManager@@QAEXKW4_D3DTEXTURESTAGESTATETYPE@@K@Z ; CStateManager::SetTextureStageState

; 786  : 	STATEMANAGER.SetTextureStageState(0, D3DTSS_ALPHAOP,	D3DTOP_DISABLE);

  00038	6a 01		 push	 1
  0003a	6a 04		 push	 4
  0003c	6a 00		 push	 0
  0003e	8b 0d 00 00 00
	00		 mov	 ecx, DWORD PTR ?ms_singleton@?$CSingleton@VCStateManager@@@@0PAVCStateManager@@A ; CSingleton<CStateManager>::ms_singleton
  00044	e8 00 00 00 00	 call	 ?SetTextureStageState@CStateManager@@QAEXKW4_D3DTEXTURESTAGESTATETYPE@@K@Z ; CStateManager::SetTextureStageState

; 787  : 	STATEMANAGER.SetTextureStageState(1, D3DTSS_COLOROP,	D3DTOP_DISABLE);

  00049	6a 01		 push	 1
  0004b	6a 01		 push	 1
  0004d	6a 01		 push	 1
  0004f	8b 0d 00 00 00
	00		 mov	 ecx, DWORD PTR ?ms_singleton@?$CSingleton@VCStateManager@@@@0PAVCStateManager@@A ; CSingleton<CStateManager>::ms_singleton
  00055	e8 00 00 00 00	 call	 ?SetTextureStageState@CStateManager@@QAEXKW4_D3DTEXTURESTAGESTATETYPE@@K@Z ; CStateManager::SetTextureStageState

; 788  : 	STATEMANAGER.SetTextureStageState(1, D3DTSS_ALPHAOP,	D3DTOP_DISABLE);

  0005a	6a 01		 push	 1
  0005c	6a 04		 push	 4
  0005e	6a 01		 push	 1
  00060	8b 0d 00 00 00
	00		 mov	 ecx, DWORD PTR ?ms_singleton@?$CSingleton@VCStateManager@@@@0PAVCStateManager@@A ; CSingleton<CStateManager>::ms_singleton
  00066	e8 00 00 00 00	 call	 ?SetTextureStageState@CStateManager@@QAEXKW4_D3DTEXTURESTAGESTATETYPE@@K@Z ; CStateManager::SetTextureStageState

; 789  : }

  0006b	c9		 leave
  0006c	c3		 ret	 0
?SetColorOperation@CScreen@@QAEXXZ ENDP			; CScreen::SetColorOperation
_TEXT	ENDS
; Function compile flags: /Odspy
; File D:\Metin2 Server Files\mainline\SRC_2014\Metin2Client\EterLib\GrpScreen.cpp
;	COMDAT ?RenderCylinder@CScreen@@QAEXPBUD3DXMATRIX@@MMMMMW4_D3DFILLMODE@@@Z
_TEXT	SEGMENT
_this$ = -4						; size = 4
_c_pmatWorld$ = 8					; size = 4
_fx$ = 12						; size = 4
_fy$ = 16						; size = 4
_fz$ = 20						; size = 4
_fRadius$ = 24						; size = 4
___formal$ = 28						; size = 4
_d3dFillMode$ = 32					; size = 4
?RenderCylinder@CScreen@@QAEXPBUD3DXMATRIX@@MMMMMW4_D3DFILLMODE@@@Z PROC ; CScreen::RenderCylinder, COMDAT
; _this$ = ecx

; 375  : {

  00000	55		 push	 ebp
  00001	8b ec		 mov	 ebp, esp
  00003	51		 push	 ecx
  00004	89 4d fc	 mov	 DWORD PTR _this$[ebp], ecx

; 376  : 	RenderD3DXMesh(ms_lpCylinderMesh, c_pmatWorld, fx, fy, fz, fRadius, d3dFillMode);

  00007	ff 75 20	 push	 DWORD PTR _d3dFillMode$[ebp]
  0000a	51		 push	 ecx
  0000b	f3 0f 10 45 18	 movss	 xmm0, DWORD PTR _fRadius$[ebp]
  00010	f3 0f 11 04 24	 movss	 DWORD PTR [esp], xmm0
  00015	51		 push	 ecx
  00016	f3 0f 10 45 14	 movss	 xmm0, DWORD PTR _fz$[ebp]
  0001b	f3 0f 11 04 24	 movss	 DWORD PTR [esp], xmm0
  00020	51		 push	 ecx
  00021	f3 0f 10 45 10	 movss	 xmm0, DWORD PTR _fy$[ebp]
  00026	f3 0f 11 04 24	 movss	 DWORD PTR [esp], xmm0
  0002b	51		 push	 ecx
  0002c	f3 0f 10 45 0c	 movss	 xmm0, DWORD PTR _fx$[ebp]
  00031	f3 0f 11 04 24	 movss	 DWORD PTR [esp], xmm0
  00036	ff 75 08	 push	 DWORD PTR _c_pmatWorld$[ebp]
  00039	ff 35 00 00 00
	00		 push	 DWORD PTR ?ms_lpCylinderMesh@CGraphicBase@@1PAUID3DXMesh@@A ; CGraphicBase::ms_lpCylinderMesh
  0003f	8b 4d fc	 mov	 ecx, DWORD PTR _this$[ebp]
  00042	e8 00 00 00 00	 call	 ?RenderD3DXMesh@CScreen@@QAEXPAUID3DXMesh@@PBUD3DXMATRIX@@MMMMW4_D3DFILLMODE@@@Z ; CScreen::RenderD3DXMesh

; 377  : }

  00047	c9		 leave
  00048	c2 1c 00	 ret	 28			; 0000001cH
?RenderCylinder@CScreen@@QAEXPBUD3DXMATRIX@@MMMMMW4_D3DFILLMODE@@@Z ENDP ; CScreen::RenderCylinder
_TEXT	ENDS
; Function compile flags: /Odspy
; File D:\Metin2 Server Files\mainline\SRC_2014\Metin2Client\EterLib\GrpScreen.cpp
;	COMDAT ?RenderSphere@CScreen@@QAEXPBUD3DXMATRIX@@MMMMW4_D3DFILLMODE@@@Z
_TEXT	SEGMENT
_this$ = -4						; size = 4
_c_pmatWorld$ = 8					; size = 4
_fx$ = 12						; size = 4
_fy$ = 16						; size = 4
_fz$ = 20						; size = 4
_fRadius$ = 24						; size = 4
_d3dFillMode$ = 28					; size = 4
?RenderSphere@CScreen@@QAEXPBUD3DXMATRIX@@MMMMW4_D3DFILLMODE@@@Z PROC ; CScreen::RenderSphere, COMDAT
; _this$ = ecx

; 370  : {

  00000	55		 push	 ebp
  00001	8b ec		 mov	 ebp, esp
  00003	51		 push	 ecx
  00004	89 4d fc	 mov	 DWORD PTR _this$[ebp], ecx

; 371  : 	RenderD3DXMesh(ms_lpSphereMesh, c_pmatWorld, fx, fy, fz, fRadius, d3dFillMode);

  00007	ff 75 1c	 push	 DWORD PTR _d3dFillMode$[ebp]
  0000a	51		 push	 ecx
  0000b	f3 0f 10 45 18	 movss	 xmm0, DWORD PTR _fRadius$[ebp]
  00010	f3 0f 11 04 24	 movss	 DWORD PTR [esp], xmm0
  00015	51		 push	 ecx
  00016	f3 0f 10 45 14	 movss	 xmm0, DWORD PTR _fz$[ebp]
  0001b	f3 0f 11 04 24	 movss	 DWORD PTR [esp], xmm0
  00020	51		 push	 ecx
  00021	f3 0f 10 45 10	 movss	 xmm0, DWORD PTR _fy$[ebp]
  00026	f3 0f 11 04 24	 movss	 DWORD PTR [esp], xmm0
  0002b	51		 push	 ecx
  0002c	f3 0f 10 45 0c	 movss	 xmm0, DWORD PTR _fx$[ebp]
  00031	f3 0f 11 04 24	 movss	 DWORD PTR [esp], xmm0
  00036	ff 75 08	 push	 DWORD PTR _c_pmatWorld$[ebp]
  00039	ff 35 00 00 00
	00		 push	 DWORD PTR ?ms_lpSphereMesh@CGraphicBase@@1PAUID3DXMesh@@A ; CGraphicBase::ms_lpSphereMesh
  0003f	8b 4d fc	 mov	 ecx, DWORD PTR _this$[ebp]
  00042	e8 00 00 00 00	 call	 ?RenderD3DXMesh@CScreen@@QAEXPAUID3DXMesh@@PBUD3DXMATRIX@@MMMMW4_D3DFILLMODE@@@Z ; CScreen::RenderD3DXMesh

; 372  : }

  00047	c9		 leave
  00048	c2 18 00	 ret	 24			; 00000018H
?RenderSphere@CScreen@@QAEXPBUD3DXMATRIX@@MMMMW4_D3DFILLMODE@@@Z ENDP ; CScreen::RenderSphere
_TEXT	ENDS
; Function compile flags: /Odspy
; File D:\Metin2 Server Files\mainline\SRC_2014\Metin2Client\EterLib\GrpScreen.cpp
; File D:\Metin2 Server Files\mainline\SRC_2014\M2Data\include\d3dx8math.inl
; File D:\Metin2 Server Files\mainline\SRC_2014\Metin2Client\EterLib\GrpScreen.cpp
; File D:\Metin2 Server Files\mainline\SRC_2014\M2Data\include\d3dx8math.inl
; File D:\Metin2 Server Files\mainline\SRC_2014\Metin2Client\EterLib\GrpScreen.cpp
; File D:\Metin2 Server Files\mainline\SRC_2014\Metin2Client\eterBase\Singleton.h
; File D:\Metin2 Server Files\mainline\SRC_2014\Metin2Client\EterLib\GrpScreen.cpp
; File D:\Metin2 Server Files\mainline\SRC_2014\Metin2Client\eterBase\Singleton.h
; File D:\Metin2 Server Files\mainline\SRC_2014\Metin2Client\EterLib\GrpScreen.cpp
;	COMDAT ?RenderD3DXMesh@CScreen@@QAEXPAUID3DXMesh@@PBUD3DXMATRIX@@MMMMW4_D3DFILLMODE@@@Z
_TEXT	SEGMENT
_SetRenderingOption$ = -364				; size = 8
_this$ = -356						; size = 4
$T2 = -352						; size = 4
_lpVertexBuffer$ = -348					; size = 4
_lpIndexBuffer$ = -344					; size = 4
$T3 = -340						; size = 4
$T4 = -336						; size = 64
_matT$5 = -272						; size = 64
_matScaling$ = -208					; size = 64
_matTranslation$ = -144					; size = 64
_matWorld$ = -80					; size = 64
__$ArrayPad$ = -16					; size = 4
__$EHRec$ = -12						; size = 12
_lpMesh$ = 8						; size = 4
_c_pmatWorld$ = 12					; size = 4
_fx$ = 16						; size = 4
_fy$ = 20						; size = 4
_fz$ = 24						; size = 4
_fRadius$ = 28						; size = 4
_d3dFillMode$ = 32					; size = 4
?RenderD3DXMesh@CScreen@@QAEXPAUID3DXMesh@@PBUD3DXMATRIX@@MMMMW4_D3DFILLMODE@@@Z PROC ; CScreen::RenderD3DXMesh, COMDAT
; _this$ = ecx

; 343  : {

  00000	55		 push	 ebp
  00001	8b ec		 mov	 ebp, esp
  00003	6a ff		 push	 -1
  00005	68 00 00 00 00	 push	 __ehhandler$?RenderD3DXMesh@CScreen@@QAEXPAUID3DXMesh@@PBUD3DXMATRIX@@MMMMW4_D3DFILLMODE@@@Z
  0000a	64 a1 00 00 00
	00		 mov	 eax, DWORD PTR fs:0
  00010	50		 push	 eax
  00011	81 ec 60 01 00
	00		 sub	 esp, 352		; 00000160H
  00017	a1 00 00 00 00	 mov	 eax, DWORD PTR ___security_cookie
  0001c	33 c5		 xor	 eax, ebp
  0001e	89 45 f0	 mov	 DWORD PTR __$ArrayPad$[ebp], eax
  00021	56		 push	 esi
  00022	57		 push	 edi
  00023	50		 push	 eax
  00024	8d 45 f4	 lea	 eax, DWORD PTR __$EHRec$[ebp]
  00027	64 a3 00 00 00
	00		 mov	 DWORD PTR fs:0, eax
  0002d	89 8d 9c fe ff
	ff		 mov	 DWORD PTR _this$[ebp], ecx

; 344  : 	D3DXMATRIX matTranslation;
; 345  : 	D3DXMATRIX matScaling;
; 346  : 
; 347  : 	D3DXMatrixTranslation(&matTranslation, fx, fy, fz);

  00033	51		 push	 ecx
  00034	f3 0f 10 45 18	 movss	 xmm0, DWORD PTR _fz$[ebp]
  00039	f3 0f 11 04 24	 movss	 DWORD PTR [esp], xmm0
  0003e	51		 push	 ecx
  0003f	f3 0f 10 45 14	 movss	 xmm0, DWORD PTR _fy$[ebp]
  00044	f3 0f 11 04 24	 movss	 DWORD PTR [esp], xmm0
  00049	51		 push	 ecx
  0004a	f3 0f 10 45 10	 movss	 xmm0, DWORD PTR _fx$[ebp]
  0004f	f3 0f 11 04 24	 movss	 DWORD PTR [esp], xmm0
  00054	8d 85 70 ff ff
	ff		 lea	 eax, DWORD PTR _matTranslation$[ebp]
  0005a	50		 push	 eax
  0005b	e8 00 00 00 00	 call	 _D3DXMatrixTranslation@16

; 348  : 	D3DXMatrixScaling(&matScaling, fRadius, fRadius, fRadius);

  00060	51		 push	 ecx
  00061	f3 0f 10 45 1c	 movss	 xmm0, DWORD PTR _fRadius$[ebp]
  00066	f3 0f 11 04 24	 movss	 DWORD PTR [esp], xmm0
  0006b	51		 push	 ecx
  0006c	f3 0f 10 45 1c	 movss	 xmm0, DWORD PTR _fRadius$[ebp]
  00071	f3 0f 11 04 24	 movss	 DWORD PTR [esp], xmm0
  00076	51		 push	 ecx
  00077	f3 0f 10 45 1c	 movss	 xmm0, DWORD PTR _fRadius$[ebp]
  0007c	f3 0f 11 04 24	 movss	 DWORD PTR [esp], xmm0
  00081	8d 85 30 ff ff
	ff		 lea	 eax, DWORD PTR _matScaling$[ebp]
  00087	50		 push	 eax
  00088	e8 00 00 00 00	 call	 _D3DXMatrixScaling@16
; File D:\Metin2 Server Files\mainline\SRC_2014\M2Data\include\d3dx8math.inl

; 580  :     D3DXMatrixMultiply(&matT, this, &mat);

  0008d	8d 85 70 ff ff
	ff		 lea	 eax, DWORD PTR _matTranslation$[ebp]
  00093	50		 push	 eax
  00094	8d 85 30 ff ff
	ff		 lea	 eax, DWORD PTR _matScaling$[ebp]
  0009a	50		 push	 eax
  0009b	8d 85 f0 fe ff
	ff		 lea	 eax, DWORD PTR _matT$5[ebp]
  000a1	50		 push	 eax
  000a2	e8 00 00 00 00	 call	 _D3DXMatrixMultiply@12

; 581  :     return matT;

  000a7	6a 10		 push	 16			; 00000010H
  000a9	59		 pop	 ecx
  000aa	8d b5 f0 fe ff
	ff		 lea	 esi, DWORD PTR _matT$5[ebp]
  000b0	8d bd b0 fe ff
	ff		 lea	 edi, DWORD PTR $T4[ebp]
  000b6	f3 a5		 rep movsd
; File D:\Metin2 Server Files\mainline\SRC_2014\Metin2Client\EterLib\GrpScreen.cpp

; 351  : 	matWorld = matScaling * matTranslation;

  000b8	6a 10		 push	 16			; 00000010H
  000ba	59		 pop	 ecx
  000bb	8d b5 b0 fe ff
	ff		 lea	 esi, DWORD PTR $T4[ebp]
  000c1	8d 7d b0	 lea	 edi, DWORD PTR _matWorld$[ebp]
  000c4	f3 a5		 rep movsd

; 352  : 
; 353  : 	if (c_pmatWorld)

  000c6	83 7d 0c 00	 cmp	 DWORD PTR _c_pmatWorld$[ebp], 0
  000ca	74 10		 je	 SHORT $LN15@RenderD3DX
; File D:\Metin2 Server Files\mainline\SRC_2014\M2Data\include\d3dx8math.inl

; 512  :     D3DXMatrixMultiply(this, this, &mat);

  000cc	ff 75 0c	 push	 DWORD PTR _c_pmatWorld$[ebp]
  000cf	8d 45 b0	 lea	 eax, DWORD PTR _matWorld$[ebp]
  000d2	50		 push	 eax
  000d3	8d 45 b0	 lea	 eax, DWORD PTR _matWorld$[ebp]
  000d6	50		 push	 eax
  000d7	e8 00 00 00 00	 call	 _D3DXMatrixMultiply@12
$LN15@RenderD3DX:
; File D:\Metin2 Server Files\mainline\SRC_2014\Metin2Client\EterLib\GrpScreen.cpp

; 358  : 	CD3DXMeshRenderingOption SetRenderingOption(d3dFillMode, matWorld);

  000dc	8d 45 b0	 lea	 eax, DWORD PTR _matWorld$[ebp]
  000df	50		 push	 eax
  000e0	ff 75 20	 push	 DWORD PTR _d3dFillMode$[ebp]
  000e3	8d 8d 94 fe ff
	ff		 lea	 ecx, DWORD PTR _SetRenderingOption$[ebp]
  000e9	e8 00 00 00 00	 call	 ??0CD3DXMeshRenderingOption@@QAE@W4_D3DFILLMODE@@ABUD3DXMATRIX@@@Z ; CD3DXMeshRenderingOption::CD3DXMeshRenderingOption
  000ee	83 65 fc 00	 and	 DWORD PTR __$EHRec$[ebp+8], 0

; 359  : 	LPDIRECT3DINDEXBUFFER8 lpIndexBuffer;
; 360  : 	LPDIRECT3DVERTEXBUFFER8 lpVertexBuffer;
; 361  : 	lpMesh->GetIndexBuffer(&lpIndexBuffer);

  000f2	8d 85 a8 fe ff
	ff		 lea	 eax, DWORD PTR _lpIndexBuffer$[ebp]
  000f8	50		 push	 eax
  000f9	8b 45 08	 mov	 eax, DWORD PTR _lpMesh$[ebp]
  000fc	8b 00		 mov	 eax, DWORD PTR [eax]
  000fe	ff 75 08	 push	 DWORD PTR _lpMesh$[ebp]
  00101	ff 50 34	 call	 DWORD PTR [eax+52]

; 362  : 	lpMesh->GetVertexBuffer(&lpVertexBuffer);

  00104	8d 85 a4 fe ff
	ff		 lea	 eax, DWORD PTR _lpVertexBuffer$[ebp]
  0010a	50		 push	 eax
  0010b	8b 45 08	 mov	 eax, DWORD PTR _lpMesh$[ebp]
  0010e	8b 00		 mov	 eax, DWORD PTR [eax]
  00110	ff 75 08	 push	 DWORD PTR _lpMesh$[ebp]
  00113	ff 50 30	 call	 DWORD PTR [eax+48]
; File D:\Metin2 Server Files\mainline\SRC_2014\Metin2Client\eterBase\Singleton.h

; 27   : 		return (*ms_singleton);

  00116	a1 00 00 00 00	 mov	 eax, DWORD PTR ?ms_singleton@?$CSingleton@VCStateManager@@@@0PAVCStateManager@@A ; CSingleton<CStateManager>::ms_singleton
  0011b	89 85 ac fe ff
	ff		 mov	 DWORD PTR $T3[ebp], eax
; File D:\Metin2 Server Files\mainline\SRC_2014\Metin2Client\EterLib\GrpScreen.cpp

; 363  : 	STATEMANAGER.SetVertexShader(lpMesh->GetFVF());

  00121	8b 45 08	 mov	 eax, DWORD PTR _lpMesh$[ebp]
  00124	8b 00		 mov	 eax, DWORD PTR [eax]
  00126	ff 75 08	 push	 DWORD PTR _lpMesh$[ebp]
  00129	ff 50 18	 call	 DWORD PTR [eax+24]
  0012c	50		 push	 eax
  0012d	8b 8d ac fe ff
	ff		 mov	 ecx, DWORD PTR $T3[ebp]
  00133	e8 00 00 00 00	 call	 ?SetVertexShader@CStateManager@@QAEXK@Z ; CStateManager::SetVertexShader

; 364  : 	STATEMANAGER.SetIndices(lpIndexBuffer, 0);

  00138	6a 00		 push	 0
  0013a	ff b5 a8 fe ff
	ff		 push	 DWORD PTR _lpIndexBuffer$[ebp]
  00140	8b 0d 00 00 00
	00		 mov	 ecx, DWORD PTR ?ms_singleton@?$CSingleton@VCStateManager@@@@0PAVCStateManager@@A ; CSingleton<CStateManager>::ms_singleton
  00146	e8 00 00 00 00	 call	 ?SetIndices@CStateManager@@QAEXPAUIDirect3DIndexBuffer8@@I@Z ; CStateManager::SetIndices

; 365  : 	STATEMANAGER.SetStreamSource(0, lpVertexBuffer, 24);

  0014b	6a 18		 push	 24			; 00000018H
  0014d	ff b5 a4 fe ff
	ff		 push	 DWORD PTR _lpVertexBuffer$[ebp]
  00153	6a 00		 push	 0
  00155	8b 0d 00 00 00
	00		 mov	 ecx, DWORD PTR ?ms_singleton@?$CSingleton@VCStateManager@@@@0PAVCStateManager@@A ; CSingleton<CStateManager>::ms_singleton
  0015b	e8 00 00 00 00	 call	 ?SetStreamSource@CStateManager@@QAEXIPAUIDirect3DVertexBuffer8@@I@Z ; CStateManager::SetStreamSource
; File D:\Metin2 Server Files\mainline\SRC_2014\Metin2Client\eterBase\Singleton.h

; 27   : 		return (*ms_singleton);

  00160	a1 00 00 00 00	 mov	 eax, DWORD PTR ?ms_singleton@?$CSingleton@VCStateManager@@@@0PAVCStateManager@@A ; CSingleton<CStateManager>::ms_singleton
  00165	89 85 a0 fe ff
	ff		 mov	 DWORD PTR $T2[ebp], eax
; File D:\Metin2 Server Files\mainline\SRC_2014\Metin2Client\EterLib\GrpScreen.cpp

; 366  : 	STATEMANAGER.DrawIndexedPrimitive(D3DPT_TRIANGLELIST, 0, lpMesh->GetNumVertices(), 0, lpMesh->GetNumFaces());

  0016b	8b 45 08	 mov	 eax, DWORD PTR _lpMesh$[ebp]
  0016e	8b 00		 mov	 eax, DWORD PTR [eax]
  00170	ff 75 08	 push	 DWORD PTR _lpMesh$[ebp]
  00173	ff 50 10	 call	 DWORD PTR [eax+16]
  00176	50		 push	 eax
  00177	6a 00		 push	 0
  00179	8b 45 08	 mov	 eax, DWORD PTR _lpMesh$[ebp]
  0017c	8b 00		 mov	 eax, DWORD PTR [eax]
  0017e	ff 75 08	 push	 DWORD PTR _lpMesh$[ebp]
  00181	ff 50 14	 call	 DWORD PTR [eax+20]
  00184	50		 push	 eax
  00185	6a 00		 push	 0
  00187	6a 04		 push	 4
  00189	8b 8d a0 fe ff
	ff		 mov	 ecx, DWORD PTR $T2[ebp]
  0018f	e8 00 00 00 00	 call	 ?DrawIndexedPrimitive@CStateManager@@QAEJW4_D3DPRIMITIVETYPE@@IIII@Z ; CStateManager::DrawIndexedPrimitive

; 367  : }

  00194	83 4d fc ff	 or	 DWORD PTR __$EHRec$[ebp+8], -1
  00198	8d 8d 94 fe ff
	ff		 lea	 ecx, DWORD PTR _SetRenderingOption$[ebp]
  0019e	e8 00 00 00 00	 call	 ??1CD3DXMeshRenderingOption@@UAE@XZ ; CD3DXMeshRenderingOption::~CD3DXMeshRenderingOption
  001a3	8b 4d f4	 mov	 ecx, DWORD PTR __$EHRec$[ebp]
  001a6	64 89 0d 00 00
	00 00		 mov	 DWORD PTR fs:0, ecx
  001ad	59		 pop	 ecx
  001ae	5f		 pop	 edi
  001af	5e		 pop	 esi
  001b0	8b 4d f0	 mov	 ecx, DWORD PTR __$ArrayPad$[ebp]
  001b3	33 cd		 xor	 ecx, ebp
  001b5	e8 00 00 00 00	 call	 @__security_check_cookie@4
  001ba	c9		 leave
  001bb	c2 1c 00	 ret	 28			; 0000001cH
_TEXT	ENDS
;	COMDAT text$x
text$x	SEGMENT
__unwindfunclet$?RenderD3DXMesh@CScreen@@QAEXPAUID3DXMesh@@PBUD3DXMATRIX@@MMMMW4_D3DFILLMODE@@@Z$0:
  00000	8d 8d 94 fe ff
	ff		 lea	 ecx, DWORD PTR _SetRenderingOption$[ebp]
  00006	e9 00 00 00 00	 jmp	 ??1CD3DXMeshRenderingOption@@UAE@XZ ; CD3DXMeshRenderingOption::~CD3DXMeshRenderingOption
  0000b	cc		 int	 3
  0000c	cc		 int	 3
  0000d	cc		 int	 3
  0000e	cc		 int	 3
  0000f	cc		 int	 3
__ehhandler$?RenderD3DXMesh@CScreen@@QAEXPAUID3DXMesh@@PBUD3DXMATRIX@@MMMMW4_D3DFILLMODE@@@Z:
  00010	90		 npad	 1
  00011	90		 npad	 1
  00012	8b 54 24 08	 mov	 edx, DWORD PTR [esp+8]
  00016	8d 42 0c	 lea	 eax, DWORD PTR [edx+12]
  00019	8b 8a 94 fe ff
	ff		 mov	 ecx, DWORD PTR [edx-364]
  0001f	33 c8		 xor	 ecx, eax
  00021	e8 00 00 00 00	 call	 @__security_check_cookie@4
  00026	8b 4a fc	 mov	 ecx, DWORD PTR [edx-4]
  00029	33 c8		 xor	 ecx, eax
  0002b	e8 00 00 00 00	 call	 @__security_check_cookie@4
  00030	b8 00 00 00 00	 mov	 eax, OFFSET __ehfuncinfo$?RenderD3DXMesh@CScreen@@QAEXPAUID3DXMesh@@PBUD3DXMATRIX@@MMMMW4_D3DFILLMODE@@@Z
  00035	e9 00 00 00 00	 jmp	 ___CxxFrameHandler3
text$x	ENDS
?RenderD3DXMesh@CScreen@@QAEXPAUID3DXMesh@@PBUD3DXMATRIX@@MMMMW4_D3DFILLMODE@@@Z ENDP ; CScreen::RenderD3DXMesh
; Function compile flags: /Odspy
; File D:\Metin2 Server Files\mainline\SRC_2014\Metin2Client\EterLib\GrpScreen.cpp
;	COMDAT ?DrawGrid@CScreen@@QAEXMMMMMMMMM@Z
_TEXT	SEGMENT
_this$ = -12						; size = 4
_x$ = -8						; size = 4
_y$ = -4						; size = 4
_xMin$ = 8						; size = 4
_yMin$ = 12						; size = 4
_xMax$ = 16						; size = 4
_yMax$ = 20						; size = 4
_xmajorStep$ = 24					; size = 4
_ymajorStep$ = 28					; size = 4
_xminorStep$ = 32					; size = 4
_yminorStep$ = 36					; size = 4
_zPos$ = 40						; size = 4
?DrawGrid@CScreen@@QAEXMMMMMMMMM@Z PROC			; CScreen::DrawGrid, COMDAT
; _this$ = ecx

; 456  : {

  00000	55		 push	 ebp
  00001	8b ec		 mov	 ebp, esp
  00003	83 ec 0c	 sub	 esp, 12			; 0000000cH
  00006	89 4d f4	 mov	 DWORD PTR _this$[ebp], ecx

; 457  : 	xMin*=xminorStep;

  00009	f3 0f 10 45 08	 movss	 xmm0, DWORD PTR _xMin$[ebp]
  0000e	f3 0f 59 45 20	 mulss	 xmm0, DWORD PTR _xminorStep$[ebp]
  00013	f3 0f 11 45 08	 movss	 DWORD PTR _xMin$[ebp], xmm0

; 458  : 	xMax*=xminorStep;

  00018	f3 0f 10 45 10	 movss	 xmm0, DWORD PTR _xMax$[ebp]
  0001d	f3 0f 59 45 20	 mulss	 xmm0, DWORD PTR _xminorStep$[ebp]
  00022	f3 0f 11 45 10	 movss	 DWORD PTR _xMax$[ebp], xmm0

; 459  : 	yMin*=yminorStep;

  00027	f3 0f 10 45 0c	 movss	 xmm0, DWORD PTR _yMin$[ebp]
  0002c	f3 0f 59 45 24	 mulss	 xmm0, DWORD PTR _yminorStep$[ebp]
  00031	f3 0f 11 45 0c	 movss	 DWORD PTR _yMin$[ebp], xmm0

; 460  : 	yMax*=yminorStep;

  00036	f3 0f 10 45 14	 movss	 xmm0, DWORD PTR _yMax$[ebp]
  0003b	f3 0f 59 45 24	 mulss	 xmm0, DWORD PTR _yminorStep$[ebp]
  00040	f3 0f 11 45 14	 movss	 DWORD PTR _yMax$[ebp], xmm0

; 461  : 	xmajorStep*=xminorStep;

  00045	f3 0f 10 45 18	 movss	 xmm0, DWORD PTR _xmajorStep$[ebp]
  0004a	f3 0f 59 45 20	 mulss	 xmm0, DWORD PTR _xminorStep$[ebp]
  0004f	f3 0f 11 45 18	 movss	 DWORD PTR _xmajorStep$[ebp], xmm0

; 462  : 	ymajorStep*=yminorStep;

  00054	f3 0f 10 45 1c	 movss	 xmm0, DWORD PTR _ymajorStep$[ebp]
  00059	f3 0f 59 45 24	 mulss	 xmm0, DWORD PTR _yminorStep$[ebp]
  0005e	f3 0f 11 45 1c	 movss	 DWORD PTR _ymajorStep$[ebp], xmm0

; 463  : 	
; 464  : 	float x, y;
; 465  : 	
; 466  : 	SetDiffuseColor(0.5f, 0.5f, 0.5f);

  00063	51		 push	 ecx
  00064	f3 0f 10 05 00
	00 00 00	 movss	 xmm0, DWORD PTR __real@3f800000
  0006c	f3 0f 11 04 24	 movss	 DWORD PTR [esp], xmm0
  00071	51		 push	 ecx
  00072	f3 0f 10 05 00
	00 00 00	 movss	 xmm0, DWORD PTR __real@3f000000
  0007a	f3 0f 11 04 24	 movss	 DWORD PTR [esp], xmm0
  0007f	51		 push	 ecx
  00080	f3 0f 10 05 00
	00 00 00	 movss	 xmm0, DWORD PTR __real@3f000000
  00088	f3 0f 11 04 24	 movss	 DWORD PTR [esp], xmm0
  0008d	51		 push	 ecx
  0008e	f3 0f 10 05 00
	00 00 00	 movss	 xmm0, DWORD PTR __real@3f000000
  00096	f3 0f 11 04 24	 movss	 DWORD PTR [esp], xmm0
  0009b	8b 4d f4	 mov	 ecx, DWORD PTR _this$[ebp]
  0009e	e8 00 00 00 00	 call	 ?SetDiffuseColor@CScreen@@QAEXMMMM@Z ; CScreen::SetDiffuseColor

; 467  : 	DrawMinorGrid(xMin, yMin, xMax, yMax, xminorStep, yminorStep, zPos);

  000a3	51		 push	 ecx
  000a4	f3 0f 10 45 28	 movss	 xmm0, DWORD PTR _zPos$[ebp]
  000a9	f3 0f 11 04 24	 movss	 DWORD PTR [esp], xmm0
  000ae	51		 push	 ecx
  000af	f3 0f 10 45 24	 movss	 xmm0, DWORD PTR _yminorStep$[ebp]
  000b4	f3 0f 11 04 24	 movss	 DWORD PTR [esp], xmm0
  000b9	51		 push	 ecx
  000ba	f3 0f 10 45 20	 movss	 xmm0, DWORD PTR _xminorStep$[ebp]
  000bf	f3 0f 11 04 24	 movss	 DWORD PTR [esp], xmm0
  000c4	51		 push	 ecx
  000c5	f3 0f 10 45 14	 movss	 xmm0, DWORD PTR _yMax$[ebp]
  000ca	f3 0f 11 04 24	 movss	 DWORD PTR [esp], xmm0
  000cf	51		 push	 ecx
  000d0	f3 0f 10 45 10	 movss	 xmm0, DWORD PTR _xMax$[ebp]
  000d5	f3 0f 11 04 24	 movss	 DWORD PTR [esp], xmm0
  000da	51		 push	 ecx
  000db	f3 0f 10 45 0c	 movss	 xmm0, DWORD PTR _yMin$[ebp]
  000e0	f3 0f 11 04 24	 movss	 DWORD PTR [esp], xmm0
  000e5	51		 push	 ecx
  000e6	f3 0f 10 45 08	 movss	 xmm0, DWORD PTR _xMin$[ebp]
  000eb	f3 0f 11 04 24	 movss	 DWORD PTR [esp], xmm0
  000f0	8b 4d f4	 mov	 ecx, DWORD PTR _this$[ebp]
  000f3	e8 00 00 00 00	 call	 ?DrawMinorGrid@CScreen@@QAEXMMMMMMM@Z ; CScreen::DrawMinorGrid

; 468  : 	
; 469  : 	SetDiffuseColor(0.7f, 0.7f, 0.7f);

  000f8	51		 push	 ecx
  000f9	f3 0f 10 05 00
	00 00 00	 movss	 xmm0, DWORD PTR __real@3f800000
  00101	f3 0f 11 04 24	 movss	 DWORD PTR [esp], xmm0
  00106	51		 push	 ecx
  00107	f3 0f 10 05 00
	00 00 00	 movss	 xmm0, DWORD PTR __real@3f333333
  0010f	f3 0f 11 04 24	 movss	 DWORD PTR [esp], xmm0
  00114	51		 push	 ecx
  00115	f3 0f 10 05 00
	00 00 00	 movss	 xmm0, DWORD PTR __real@3f333333
  0011d	f3 0f 11 04 24	 movss	 DWORD PTR [esp], xmm0
  00122	51		 push	 ecx
  00123	f3 0f 10 05 00
	00 00 00	 movss	 xmm0, DWORD PTR __real@3f333333
  0012b	f3 0f 11 04 24	 movss	 DWORD PTR [esp], xmm0
  00130	8b 4d f4	 mov	 ecx, DWORD PTR _this$[ebp]
  00133	e8 00 00 00 00	 call	 ?SetDiffuseColor@CScreen@@QAEXMMMM@Z ; CScreen::SetDiffuseColor

; 470  : 	for (y = 0.0f; y >= yMin; y -= ymajorStep)

  00138	0f 57 c0	 xorps	 xmm0, xmm0
  0013b	f3 0f 11 45 fc	 movss	 DWORD PTR _y$[ebp], xmm0
  00140	eb 0f		 jmp	 SHORT $LN4@DrawGrid
$LN2@DrawGrid:
  00142	f3 0f 10 45 fc	 movss	 xmm0, DWORD PTR _y$[ebp]
  00147	f3 0f 5c 45 1c	 subss	 xmm0, DWORD PTR _ymajorStep$[ebp]
  0014c	f3 0f 11 45 fc	 movss	 DWORD PTR _y$[ebp], xmm0
$LN4@DrawGrid:
  00151	f3 0f 10 45 fc	 movss	 xmm0, DWORD PTR _y$[ebp]
  00156	0f 2f 45 0c	 comiss	 xmm0, DWORD PTR _yMin$[ebp]
  0015a	72 41		 jb	 SHORT $LN3@DrawGrid

; 471  : 		RenderLine2d(xMin, y, xMax, y, zPos);

  0015c	51		 push	 ecx
  0015d	f3 0f 10 45 28	 movss	 xmm0, DWORD PTR _zPos$[ebp]
  00162	f3 0f 11 04 24	 movss	 DWORD PTR [esp], xmm0
  00167	51		 push	 ecx
  00168	f3 0f 10 45 fc	 movss	 xmm0, DWORD PTR _y$[ebp]
  0016d	f3 0f 11 04 24	 movss	 DWORD PTR [esp], xmm0
  00172	51		 push	 ecx
  00173	f3 0f 10 45 10	 movss	 xmm0, DWORD PTR _xMax$[ebp]
  00178	f3 0f 11 04 24	 movss	 DWORD PTR [esp], xmm0
  0017d	51		 push	 ecx
  0017e	f3 0f 10 45 fc	 movss	 xmm0, DWORD PTR _y$[ebp]
  00183	f3 0f 11 04 24	 movss	 DWORD PTR [esp], xmm0
  00188	51		 push	 ecx
  00189	f3 0f 10 45 08	 movss	 xmm0, DWORD PTR _xMin$[ebp]
  0018e	f3 0f 11 04 24	 movss	 DWORD PTR [esp], xmm0
  00193	8b 4d f4	 mov	 ecx, DWORD PTR _this$[ebp]
  00196	e8 00 00 00 00	 call	 ?RenderLine2d@CScreen@@QAEXMMMMM@Z ; CScreen::RenderLine2d
  0019b	eb a5		 jmp	 SHORT $LN2@DrawGrid
$LN3@DrawGrid:

; 472  : 	
; 473  : 	for (y = 0.0f; y <= yMax; y += ymajorStep)

  0019d	0f 57 c0	 xorps	 xmm0, xmm0
  001a0	f3 0f 11 45 fc	 movss	 DWORD PTR _y$[ebp], xmm0
  001a5	eb 0f		 jmp	 SHORT $LN7@DrawGrid
$LN5@DrawGrid:
  001a7	f3 0f 10 45 fc	 movss	 xmm0, DWORD PTR _y$[ebp]
  001ac	f3 0f 58 45 1c	 addss	 xmm0, DWORD PTR _ymajorStep$[ebp]
  001b1	f3 0f 11 45 fc	 movss	 DWORD PTR _y$[ebp], xmm0
$LN7@DrawGrid:
  001b6	f3 0f 10 45 14	 movss	 xmm0, DWORD PTR _yMax$[ebp]
  001bb	0f 2f 45 fc	 comiss	 xmm0, DWORD PTR _y$[ebp]
  001bf	72 41		 jb	 SHORT $LN6@DrawGrid

; 474  : 		RenderLine2d(xMin, y, xMax, y, zPos);

  001c1	51		 push	 ecx
  001c2	f3 0f 10 45 28	 movss	 xmm0, DWORD PTR _zPos$[ebp]
  001c7	f3 0f 11 04 24	 movss	 DWORD PTR [esp], xmm0
  001cc	51		 push	 ecx
  001cd	f3 0f 10 45 fc	 movss	 xmm0, DWORD PTR _y$[ebp]
  001d2	f3 0f 11 04 24	 movss	 DWORD PTR [esp], xmm0
  001d7	51		 push	 ecx
  001d8	f3 0f 10 45 10	 movss	 xmm0, DWORD PTR _xMax$[ebp]
  001dd	f3 0f 11 04 24	 movss	 DWORD PTR [esp], xmm0
  001e2	51		 push	 ecx
  001e3	f3 0f 10 45 fc	 movss	 xmm0, DWORD PTR _y$[ebp]
  001e8	f3 0f 11 04 24	 movss	 DWORD PTR [esp], xmm0
  001ed	51		 push	 ecx
  001ee	f3 0f 10 45 08	 movss	 xmm0, DWORD PTR _xMin$[ebp]
  001f3	f3 0f 11 04 24	 movss	 DWORD PTR [esp], xmm0
  001f8	8b 4d f4	 mov	 ecx, DWORD PTR _this$[ebp]
  001fb	e8 00 00 00 00	 call	 ?RenderLine2d@CScreen@@QAEXMMMMM@Z ; CScreen::RenderLine2d
  00200	eb a5		 jmp	 SHORT $LN5@DrawGrid
$LN6@DrawGrid:

; 475  : 	
; 476  : 	for (x = 0.0f; x >= xMin; x -= xmajorStep)

  00202	0f 57 c0	 xorps	 xmm0, xmm0
  00205	f3 0f 11 45 f8	 movss	 DWORD PTR _x$[ebp], xmm0
  0020a	eb 0f		 jmp	 SHORT $LN10@DrawGrid
$LN8@DrawGrid:
  0020c	f3 0f 10 45 f8	 movss	 xmm0, DWORD PTR _x$[ebp]
  00211	f3 0f 5c 45 18	 subss	 xmm0, DWORD PTR _xmajorStep$[ebp]
  00216	f3 0f 11 45 f8	 movss	 DWORD PTR _x$[ebp], xmm0
$LN10@DrawGrid:
  0021b	f3 0f 10 45 f8	 movss	 xmm0, DWORD PTR _x$[ebp]
  00220	0f 2f 45 08	 comiss	 xmm0, DWORD PTR _xMin$[ebp]
  00224	72 41		 jb	 SHORT $LN9@DrawGrid

; 477  : 		RenderLine2d(x, yMin, x, yMax, zPos);

  00226	51		 push	 ecx
  00227	f3 0f 10 45 28	 movss	 xmm0, DWORD PTR _zPos$[ebp]
  0022c	f3 0f 11 04 24	 movss	 DWORD PTR [esp], xmm0
  00231	51		 push	 ecx
  00232	f3 0f 10 45 14	 movss	 xmm0, DWORD PTR _yMax$[ebp]
  00237	f3 0f 11 04 24	 movss	 DWORD PTR [esp], xmm0
  0023c	51		 push	 ecx
  0023d	f3 0f 10 45 f8	 movss	 xmm0, DWORD PTR _x$[ebp]
  00242	f3 0f 11 04 24	 movss	 DWORD PTR [esp], xmm0
  00247	51		 push	 ecx
  00248	f3 0f 10 45 0c	 movss	 xmm0, DWORD PTR _yMin$[ebp]
  0024d	f3 0f 11 04 24	 movss	 DWORD PTR [esp], xmm0
  00252	51		 push	 ecx
  00253	f3 0f 10 45 f8	 movss	 xmm0, DWORD PTR _x$[ebp]
  00258	f3 0f 11 04 24	 movss	 DWORD PTR [esp], xmm0
  0025d	8b 4d f4	 mov	 ecx, DWORD PTR _this$[ebp]
  00260	e8 00 00 00 00	 call	 ?RenderLine2d@CScreen@@QAEXMMMMM@Z ; CScreen::RenderLine2d
  00265	eb a5		 jmp	 SHORT $LN8@DrawGrid
$LN9@DrawGrid:

; 478  : 	
; 479  : 	for (x = 0.0f; x <= yMax; x += xmajorStep)

  00267	0f 57 c0	 xorps	 xmm0, xmm0
  0026a	f3 0f 11 45 f8	 movss	 DWORD PTR _x$[ebp], xmm0
  0026f	eb 0f		 jmp	 SHORT $LN13@DrawGrid
$LN11@DrawGrid:
  00271	f3 0f 10 45 f8	 movss	 xmm0, DWORD PTR _x$[ebp]
  00276	f3 0f 58 45 18	 addss	 xmm0, DWORD PTR _xmajorStep$[ebp]
  0027b	f3 0f 11 45 f8	 movss	 DWORD PTR _x$[ebp], xmm0
$LN13@DrawGrid:
  00280	f3 0f 10 45 14	 movss	 xmm0, DWORD PTR _yMax$[ebp]
  00285	0f 2f 45 f8	 comiss	 xmm0, DWORD PTR _x$[ebp]
  00289	72 41		 jb	 SHORT $LN12@DrawGrid

; 480  : 		RenderLine2d(x, yMin, x, yMax, zPos);

  0028b	51		 push	 ecx
  0028c	f3 0f 10 45 28	 movss	 xmm0, DWORD PTR _zPos$[ebp]
  00291	f3 0f 11 04 24	 movss	 DWORD PTR [esp], xmm0
  00296	51		 push	 ecx
